; Listing generated by Microsoft (R) Optimizing Compiler Version 19.44.35219.0 

	TITLE	c:\anka2project\anka2project\source\binary\vs_files\userinterface\release\accountconnector.obj
	.686P
	.XMM
	include listing.inc
	.model	flat

INCLUDELIB OLDNAMES

PUBLIC	??_C@_0BB@JKKAAGON@1234abcd5678efgh@		; `string'
PUBLIC	??_C@_0L@GIJHLCPD@ext_180923@			; `string'
PUBLIC	??_C@_0DN@HEMMJEJK@?5CAccountConnector?3?3__AuthState@ ; `string'
PUBLIC	??_C@_0BF@MMAJMJLI@HANDSHAKE?5RECV?5?$CFu?5?$CFd@ ; `string'
PUBLIC	??_C@_0BC@CAMNEEDN@HANDSHAKE?5SEND?5?$CFu@	; `string'
PUBLIC	??_C@_0EE@PGOEFGOD@?5CAccountConnector?3?3__AuthState@ ; `string'
PUBLIC	??_C@_09FJACDEDF@BESAMEKEY@			; `string'
PUBLIC	??_C@_03KJMMOONA@?$CIs?$CJ@			; `string'
PUBLIC	??_C@_0P@OOEAIINI@OnLoginFailure@		; `string'
PUBLIC	??_C@_02HCKGKOFO@?$CI?$CJ@			; `string'
PUBLIC	??_C@_0BB@JEKGEMCL@OnConnectFailure@		; `string'
PUBLIC	??_C@_06NAODFICM@OnExit@			; `string'
PUBLIC	??_C@_0CB@JCOEPOFG@JyTxtHljHJlVJHorRM301vf?$EA4fvj10?9@ ; `string'
PUBLIC	??_R2CAccountConnector@@8			; CAccountConnector::`RTTI Base Class Array'
PUBLIC	??_R2?$CSingleton@VCAccountConnector@@@@8	; CSingleton<CAccountConnector>::`RTTI Base Class Array'
PUBLIC	??_R2CNetworkStream@@8				; CNetworkStream::`RTTI Base Class Array'
PUBLIC	??_R1HI@?0A@EA@?$CSingleton@VCAccountConnector@@@@8 ; CSingleton<CAccountConnector>::`RTTI Base Class Descriptor at (120,-1,0,64)'
PUBLIC	??_R1A@?0A@EA@CAccountConnector@@8		; CAccountConnector::`RTTI Base Class Descriptor at (0,-1,0,64)'
PUBLIC	??_R1A@?0A@EA@?$CSingleton@VCAccountConnector@@@@8 ; CSingleton<CAccountConnector>::`RTTI Base Class Descriptor at (0,-1,0,64)'
PUBLIC	??_R1A@?0A@EA@CNetworkStream@@8			; CNetworkStream::`RTTI Base Class Descriptor at (0,-1,0,64)'
PUBLIC	??_R3?$CSingleton@VCAccountConnector@@@@8	; CSingleton<CAccountConnector>::`RTTI Class Hierarchy Descriptor'
PUBLIC	??_R0?AV?$CSingleton@VCAccountConnector@@@@@8	; CSingleton<CAccountConnector> `RTTI Type Descriptor'
PUBLIC	??_R3CNetworkStream@@8				; CNetworkStream::`RTTI Class Hierarchy Descriptor'
PUBLIC	??_R0?AVCNetworkStream@@@8			; CNetworkStream `RTTI Type Descriptor'
PUBLIC	??_R3CAccountConnector@@8			; CAccountConnector::`RTTI Class Hierarchy Descriptor'
PUBLIC	??_R0?AVCAccountConnector@@@8			; CAccountConnector `RTTI Type Descriptor'
PUBLIC	??_R4?$CSingleton@VCAccountConnector@@@@6B@	; CSingleton<CAccountConnector>::`RTTI Complete Object Locator'
PUBLIC	??_R4CAccountConnector@@6B?$CSingleton@VCAccountConnector@@@@@ ; CAccountConnector::`RTTI Complete Object Locator'
PUBLIC	??_R4CAccountConnector@@6BCNetworkStream@@@	; CAccountConnector::`RTTI Complete Object Locator'
PUBLIC	??_C@_1BM@EENBGLDC@?$AA?$CB?$AAm?$AAs?$AA_?$AAs?$AAi?$AAn?$AAg?$AAl?$AAe?$AAt?$AAo?$AAn@ ; `string'
PUBLIC	?ms_singleton@?$CSingleton@VCAccountConnector@@@@0PAVCAccountConnector@@A ; CSingleton<CAccountConnector>::ms_singleton
PUBLIC	??_7?$CSingleton@VCAccountConnector@@@@6B@	; CSingleton<CAccountConnector>::`vftable'
PUBLIC	?ms_singleton@?$CSingleton@VCPythonNetworkStream@@@@0PAVCPythonNetworkStream@@A ; CSingleton<CPythonNetworkStream>::ms_singleton
PUBLIC	??_C@_1BK@FMEHPMFE@?$AAm?$AAs?$AA_?$AAs?$AAi?$AAn?$AAg?$AAl?$AAe?$AAt?$AAo?$AAn@ ; `string'
PUBLIC	??_C@_1IO@CAJLEEOI@?$AAC?$AA?3?$AA?2?$AAA?$AAn?$AAk?$AAa?$AA2?$AAP?$AAr?$AAo?$AAj?$AAe?$AAc?$AAt@ ; `string'
PUBLIC	??_7CAccountConnector@@6B?$CSingleton@VCAccountConnector@@@@@ ; CAccountConnector::`vftable'
PUBLIC	??_7CAccountConnector@@6BCNetworkStream@@@	; CAccountConnector::`vftable'
PUBLIC	??_C@_00CNPNBAHC@@				; `string'
PUBLIC	??_C@_0BA@JFNIOLAK@string?5too?5long@		; `string'
PUBLIC	??_C@_0BF@KINCDENJ@bad?5array?5new?5length@	; `string'
PUBLIC	??_R0?AVbad_array_new_length@std@@@8		; std::bad_array_new_length `RTTI Type Descriptor'
PUBLIC	??_R1A@?0A@EA@bad_array_new_length@std@@8	; std::bad_array_new_length::`RTTI Base Class Descriptor at (0,-1,0,64)'
PUBLIC	??_R2bad_array_new_length@std@@8		; std::bad_array_new_length::`RTTI Base Class Array'
PUBLIC	??_R3bad_array_new_length@std@@8		; std::bad_array_new_length::`RTTI Class Hierarchy Descriptor'
PUBLIC	??_R4bad_array_new_length@std@@6B@		; std::bad_array_new_length::`RTTI Complete Object Locator'
PUBLIC	??_7bad_array_new_length@std@@6B@		; std::bad_array_new_length::`vftable'
PUBLIC	__CT??_R0?AVbad_array_new_length@std@@@8??0bad_array_new_length@std@@QAE@ABV01@@Z12
PUBLIC	??_R0?AVbad_alloc@std@@@8			; std::bad_alloc `RTTI Type Descriptor'
PUBLIC	??_R1A@?0A@EA@bad_alloc@std@@8			; std::bad_alloc::`RTTI Base Class Descriptor at (0,-1,0,64)'
PUBLIC	??_R2bad_alloc@std@@8				; std::bad_alloc::`RTTI Base Class Array'
PUBLIC	??_R3bad_alloc@std@@8				; std::bad_alloc::`RTTI Class Hierarchy Descriptor'
PUBLIC	??_R4bad_alloc@std@@6B@				; std::bad_alloc::`RTTI Complete Object Locator'
PUBLIC	??_7bad_alloc@std@@6B@				; std::bad_alloc::`vftable'
PUBLIC	__CT??_R0?AVbad_alloc@std@@@8??0bad_alloc@std@@QAE@ABV01@@Z12
PUBLIC	??_R0?AVexception@std@@@8			; std::exception `RTTI Type Descriptor'
PUBLIC	??_R1A@?0A@EA@exception@std@@8			; std::exception::`RTTI Base Class Descriptor at (0,-1,0,64)'
PUBLIC	??_R2exception@std@@8				; std::exception::`RTTI Base Class Array'
PUBLIC	??_R3exception@std@@8				; std::exception::`RTTI Class Hierarchy Descriptor'
PUBLIC	??_R4exception@std@@6B@				; std::exception::`RTTI Complete Object Locator'
PUBLIC	??_C@_0BC@EOODALEL@Unknown?5exception@		; `string'
PUBLIC	??_7exception@std@@6B@				; std::exception::`vftable'
PUBLIC	__CT??_R0?AVexception@std@@@8??0exception@std@@QAE@ABV01@@Z12
PUBLIC	__CTA3?AVbad_array_new_length@std@@
PUBLIC	__TI3?AVbad_array_new_length@std@@
EXTRN	?OnProcess@CNetworkStream@@MAE_NXZ:PROC		; CNetworkStream::OnProcess
EXTRN	__wassert:PROC
EXTRN	?SetSendBufferSize@CNetworkStream@@QAEXH@Z:PROC	; CNetworkStream::SetSendBufferSize
EXTRN	?SetRecvBufferSize@CNetworkStream@@QAEXH@Z:PROC	; CNetworkStream::SetRecvBufferSize
EXTRN	??1CNetworkStream@@UAE@XZ:PROC			; CNetworkStream::~CNetworkStream
EXTRN	??0CNetworkStream@@QAE@XZ:PROC			; CNetworkStream::CNetworkStream
EXTRN	_tea_encrypt:PROC
EXTRN	?random@@YAKXZ:PROC				; random
EXTRN	?Peek@CNetworkStream@@QAE_NH@Z:PROC		; CNetworkStream::Peek
EXTRN	?Peek@CNetworkStream@@QAE_NHPAX@Z:PROC		; CNetworkStream::Peek
EXTRN	__imp__Py_BuildValue:PROC
EXTRN	?PyCallClassMemberFunc@@YA_NPAU_object@@PBD0@Z:PROC ; PyCallClassMemberFunc
EXTRN	?IsSecurityMode@CNetworkStream@@QAE_NXZ:PROC	; CNetworkStream::IsSecurityMode
EXTRN	?ELTimer_SetServerMSec@@YAXK@Z:PROC		; ELTimer_SetServerMSec
EXTRN	?Tracenf@@YAXPBDZZ:PROC				; Tracenf
EXTRN	?SendSequence@CNetworkStream@@QAE_NXZ:PROC	; CNetworkStream::SendSequence
EXTRN	?Tracen@@YAXPBD@Z:PROC				; Tracen
EXTRN	?Send@CNetworkStream@@QAE_NHPBX@Z:PROC		; CNetworkStream::Send
EXTRN	_strncpy:PROC
EXTRN	?SetSecurityMode@CNetworkStream@@QAEX_NPBD@Z:PROC ; CNetworkStream::SetSecurityMode
EXTRN	?Recv@CNetworkStream@@QAE_NHPAX@Z:PROC		; CNetworkStream::Recv
EXTRN	?Process@CNetworkStream@@QAEXXZ:PROC		; CNetworkStream::Process
EXTRN	?Disconnect@CNetworkStream@@QAEXXZ:PROC		; CNetworkStream::Disconnect
EXTRN	?Connect@CNetworkStream@@QAE_NPBDHH@Z:PROC	; CNetworkStream::Connect
EXTRN	?_Xlength_error@std@@YAXPBD@Z:PROC		; std::_Xlength_error
EXTRN	___std_exception_destroy:PROC
EXTRN	??_7type_info@@6B@:QWORD			; type_info::`vftable'
EXTRN	___std_exception_copy:PROC
EXTRN	??2@YAPAXI@Z:PROC				; operator new
EXTRN	??3@YAXPAX@Z:PROC				; operator delete
EXTRN	__invoke_watson:PROC
EXTRN	??3@YAXPAXI@Z:PROC				; operator delete
EXTRN	___std_terminate:PROC
EXTRN	___CxxFrameHandler3:PROC
;	COMDAT ?ms_singleton@?$CSingleton@VCAccountConnector@@@@0PAVCAccountConnector@@A
_BSS	SEGMENT
?ms_singleton@?$CSingleton@VCAccountConnector@@@@0PAVCAccountConnector@@A DD 01H DUP (?) ; CSingleton<CAccountConnector>::ms_singleton
_BSS	ENDS
;	COMDAT ?ms_singleton@?$CSingleton@VCPythonNetworkStream@@@@0PAVCPythonNetworkStream@@A
_BSS	SEGMENT
?ms_singleton@?$CSingleton@VCPythonNetworkStream@@@@0PAVCPythonNetworkStream@@A DD 01H DUP (?) ; CSingleton<CPythonNetworkStream>::ms_singleton
_BSS	ENDS
;	COMDAT __TI3?AVbad_array_new_length@std@@
xdata$x	SEGMENT
__TI3?AVbad_array_new_length@std@@ DD 00H
	DD	FLAT:??1bad_array_new_length@std@@UAE@XZ
	DD	00H
	DD	FLAT:__CTA3?AVbad_array_new_length@std@@
xdata$x	ENDS
;	COMDAT __CTA3?AVbad_array_new_length@std@@
xdata$x	SEGMENT
__CTA3?AVbad_array_new_length@std@@ DD 03H
	DD	FLAT:__CT??_R0?AVbad_array_new_length@std@@@8??0bad_array_new_length@std@@QAE@ABV01@@Z12
	DD	FLAT:__CT??_R0?AVbad_alloc@std@@@8??0bad_alloc@std@@QAE@ABV01@@Z12
	DD	FLAT:__CT??_R0?AVexception@std@@@8??0exception@std@@QAE@ABV01@@Z12
xdata$x	ENDS
;	COMDAT __CT??_R0?AVexception@std@@@8??0exception@std@@QAE@ABV01@@Z12
xdata$x	SEGMENT
__CT??_R0?AVexception@std@@@8??0exception@std@@QAE@ABV01@@Z12 DD 00H
	DD	FLAT:??_R0?AVexception@std@@@8
	DD	00H
	DD	0ffffffffH
	ORG $+4
	DD	0cH
	DD	FLAT:??0exception@std@@QAE@ABV01@@Z
xdata$x	ENDS
;	COMDAT ??_7exception@std@@6B@
CONST	SEGMENT
??_7exception@std@@6B@ DD FLAT:??_R4exception@std@@6B@	; std::exception::`vftable'
	DD	FLAT:??_Eexception@std@@UAEPAXI@Z
	DD	FLAT:?what@exception@std@@UBEPBDXZ
CONST	ENDS
;	COMDAT ??_C@_0BC@EOODALEL@Unknown?5exception@
CONST	SEGMENT
??_C@_0BC@EOODALEL@Unknown?5exception@ DB 'Unknown exception', 00H ; `string'
CONST	ENDS
;	COMDAT ??_R4exception@std@@6B@
rdata$r	SEGMENT
??_R4exception@std@@6B@ DD 00H				; std::exception::`RTTI Complete Object Locator'
	DD	00H
	DD	00H
	DD	FLAT:??_R0?AVexception@std@@@8
	DD	FLAT:??_R3exception@std@@8
rdata$r	ENDS
;	COMDAT ??_R3exception@std@@8
rdata$r	SEGMENT
??_R3exception@std@@8 DD 00H				; std::exception::`RTTI Class Hierarchy Descriptor'
	DD	00H
	DD	01H
	DD	FLAT:??_R2exception@std@@8
rdata$r	ENDS
;	COMDAT ??_R2exception@std@@8
rdata$r	SEGMENT
??_R2exception@std@@8 DD FLAT:??_R1A@?0A@EA@exception@std@@8 ; std::exception::`RTTI Base Class Array'
rdata$r	ENDS
;	COMDAT ??_R1A@?0A@EA@exception@std@@8
rdata$r	SEGMENT
??_R1A@?0A@EA@exception@std@@8 DD FLAT:??_R0?AVexception@std@@@8 ; std::exception::`RTTI Base Class Descriptor at (0,-1,0,64)'
	DD	00H
	DD	00H
	DD	0ffffffffH
	DD	00H
	DD	040H
	DD	FLAT:??_R3exception@std@@8
rdata$r	ENDS
;	COMDAT ??_R0?AVexception@std@@@8
data$r	SEGMENT
??_R0?AVexception@std@@@8 DD FLAT:??_7type_info@@6B@	; std::exception `RTTI Type Descriptor'
	DD	00H
	DB	'.?AVexception@std@@', 00H
data$r	ENDS
;	COMDAT __CT??_R0?AVbad_alloc@std@@@8??0bad_alloc@std@@QAE@ABV01@@Z12
xdata$x	SEGMENT
__CT??_R0?AVbad_alloc@std@@@8??0bad_alloc@std@@QAE@ABV01@@Z12 DD 010H
	DD	FLAT:??_R0?AVbad_alloc@std@@@8
	DD	00H
	DD	0ffffffffH
	ORG $+4
	DD	0cH
	DD	FLAT:??0bad_alloc@std@@QAE@ABV01@@Z
xdata$x	ENDS
;	COMDAT ??_7bad_alloc@std@@6B@
CONST	SEGMENT
??_7bad_alloc@std@@6B@ DD FLAT:??_R4bad_alloc@std@@6B@	; std::bad_alloc::`vftable'
	DD	FLAT:??_Ebad_alloc@std@@UAEPAXI@Z
	DD	FLAT:?what@exception@std@@UBEPBDXZ
CONST	ENDS
;	COMDAT ??_R4bad_alloc@std@@6B@
rdata$r	SEGMENT
??_R4bad_alloc@std@@6B@ DD 00H				; std::bad_alloc::`RTTI Complete Object Locator'
	DD	00H
	DD	00H
	DD	FLAT:??_R0?AVbad_alloc@std@@@8
	DD	FLAT:??_R3bad_alloc@std@@8
rdata$r	ENDS
;	COMDAT ??_R3bad_alloc@std@@8
rdata$r	SEGMENT
??_R3bad_alloc@std@@8 DD 00H				; std::bad_alloc::`RTTI Class Hierarchy Descriptor'
	DD	00H
	DD	02H
	DD	FLAT:??_R2bad_alloc@std@@8
rdata$r	ENDS
;	COMDAT ??_R2bad_alloc@std@@8
rdata$r	SEGMENT
??_R2bad_alloc@std@@8 DD FLAT:??_R1A@?0A@EA@bad_alloc@std@@8 ; std::bad_alloc::`RTTI Base Class Array'
	DD	FLAT:??_R1A@?0A@EA@exception@std@@8
rdata$r	ENDS
;	COMDAT ??_R1A@?0A@EA@bad_alloc@std@@8
rdata$r	SEGMENT
??_R1A@?0A@EA@bad_alloc@std@@8 DD FLAT:??_R0?AVbad_alloc@std@@@8 ; std::bad_alloc::`RTTI Base Class Descriptor at (0,-1,0,64)'
	DD	01H
	DD	00H
	DD	0ffffffffH
	DD	00H
	DD	040H
	DD	FLAT:??_R3bad_alloc@std@@8
rdata$r	ENDS
;	COMDAT ??_R0?AVbad_alloc@std@@@8
data$r	SEGMENT
??_R0?AVbad_alloc@std@@@8 DD FLAT:??_7type_info@@6B@	; std::bad_alloc `RTTI Type Descriptor'
	DD	00H
	DB	'.?AVbad_alloc@std@@', 00H
data$r	ENDS
;	COMDAT __CT??_R0?AVbad_array_new_length@std@@@8??0bad_array_new_length@std@@QAE@ABV01@@Z12
xdata$x	SEGMENT
__CT??_R0?AVbad_array_new_length@std@@@8??0bad_array_new_length@std@@QAE@ABV01@@Z12 DD 00H
	DD	FLAT:??_R0?AVbad_array_new_length@std@@@8
	DD	00H
	DD	0ffffffffH
	ORG $+4
	DD	0cH
	DD	FLAT:??0bad_array_new_length@std@@QAE@ABV01@@Z
xdata$x	ENDS
;	COMDAT ??_7bad_array_new_length@std@@6B@
CONST	SEGMENT
??_7bad_array_new_length@std@@6B@ DD FLAT:??_R4bad_array_new_length@std@@6B@ ; std::bad_array_new_length::`vftable'
	DD	FLAT:??_Ebad_array_new_length@std@@UAEPAXI@Z
	DD	FLAT:?what@exception@std@@UBEPBDXZ
CONST	ENDS
;	COMDAT ??_R4bad_array_new_length@std@@6B@
rdata$r	SEGMENT
??_R4bad_array_new_length@std@@6B@ DD 00H		; std::bad_array_new_length::`RTTI Complete Object Locator'
	DD	00H
	DD	00H
	DD	FLAT:??_R0?AVbad_array_new_length@std@@@8
	DD	FLAT:??_R3bad_array_new_length@std@@8
rdata$r	ENDS
;	COMDAT ??_R3bad_array_new_length@std@@8
rdata$r	SEGMENT
??_R3bad_array_new_length@std@@8 DD 00H			; std::bad_array_new_length::`RTTI Class Hierarchy Descriptor'
	DD	00H
	DD	03H
	DD	FLAT:??_R2bad_array_new_length@std@@8
rdata$r	ENDS
;	COMDAT ??_R2bad_array_new_length@std@@8
rdata$r	SEGMENT
??_R2bad_array_new_length@std@@8 DD FLAT:??_R1A@?0A@EA@bad_array_new_length@std@@8 ; std::bad_array_new_length::`RTTI Base Class Array'
	DD	FLAT:??_R1A@?0A@EA@bad_alloc@std@@8
	DD	FLAT:??_R1A@?0A@EA@exception@std@@8
rdata$r	ENDS
;	COMDAT ??_R1A@?0A@EA@bad_array_new_length@std@@8
rdata$r	SEGMENT
??_R1A@?0A@EA@bad_array_new_length@std@@8 DD FLAT:??_R0?AVbad_array_new_length@std@@@8 ; std::bad_array_new_length::`RTTI Base Class Descriptor at (0,-1,0,64)'
	DD	02H
	DD	00H
	DD	0ffffffffH
	DD	00H
	DD	040H
	DD	FLAT:??_R3bad_array_new_length@std@@8
rdata$r	ENDS
;	COMDAT ??_R0?AVbad_array_new_length@std@@@8
data$r	SEGMENT
??_R0?AVbad_array_new_length@std@@@8 DD FLAT:??_7type_info@@6B@ ; std::bad_array_new_length `RTTI Type Descriptor'
	DD	00H
	DB	'.?AVbad_array_new_length@std@@', 00H
data$r	ENDS
;	COMDAT ??_C@_0BF@KINCDENJ@bad?5array?5new?5length@
CONST	SEGMENT
??_C@_0BF@KINCDENJ@bad?5array?5new?5length@ DB 'bad array new length', 00H ; `string'
CONST	ENDS
;	COMDAT ??_C@_0BA@JFNIOLAK@string?5too?5long@
CONST	SEGMENT
??_C@_0BA@JFNIOLAK@string?5too?5long@ DB 'string too long', 00H ; `string'
CONST	ENDS
;	COMDAT ??_C@_00CNPNBAHC@@
CONST	SEGMENT
??_C@_00CNPNBAHC@@ DB 00H				; `string'
CONST	ENDS
;	COMDAT ??_7CAccountConnector@@6BCNetworkStream@@@
CONST	SEGMENT
??_7CAccountConnector@@6BCNetworkStream@@@ DD FLAT:??_R4CAccountConnector@@6BCNetworkStream@@@ ; CAccountConnector::`vftable'
	DD	FLAT:??_ECAccountConnector@@UAEPAXI@Z
	DD	FLAT:?OnConnectSuccess@CAccountConnector@@MAEXXZ
	DD	FLAT:?OnConnectFailure@CAccountConnector@@MAEXXZ
	DD	FLAT:?OnRemoteDisconnect@CAccountConnector@@MAEXXZ
	DD	FLAT:?OnDisconnect@CAccountConnector@@MAEXXZ
	DD	FLAT:?OnProcess@CNetworkStream@@MAE_NXZ
CONST	ENDS
;	COMDAT ??_7CAccountConnector@@6B?$CSingleton@VCAccountConnector@@@@@
CONST	SEGMENT
??_7CAccountConnector@@6B?$CSingleton@VCAccountConnector@@@@@ DD FLAT:??_R4CAccountConnector@@6B?$CSingleton@VCAccountConnector@@@@@ ; CAccountConnector::`vftable'
	DD	FLAT:??_ECAccountConnector@@WHI@AEPAXI@Z
CONST	ENDS
;	COMDAT ??_C@_1IO@CAJLEEOI@?$AAC?$AA?3?$AA?2?$AAA?$AAn?$AAk?$AAa?$AA2?$AAP?$AAr?$AAo?$AAj?$AAe?$AAc?$AAt@
CONST	SEGMENT
??_C@_1IO@CAJLEEOI@?$AAC?$AA?3?$AA?2?$AAA?$AAn?$AAk?$AAa?$AA2?$AAP?$AAr?$AAo?$AAj?$AAe?$AAc?$AAt@ DB 'C'
	DB	00H, ':', 00H, '\', 00H, 'A', 00H, 'n', 00H, 'k', 00H, 'a', 00H
	DB	'2', 00H, 'P', 00H, 'r', 00H, 'o', 00H, 'j', 00H, 'e', 00H, 'c'
	DB	00H, 't', 00H, '\', 00H, 'A', 00H, 'n', 00H, 'k', 00H, 'a', 00H
	DB	'2', 00H, 'P', 00H, 'r', 00H, 'o', 00H, 'j', 00H, 'e', 00H, 'c'
	DB	00H, 't', 00H, '\', 00H, 'S', 00H, 'o', 00H, 'u', 00H, 'r', 00H
	DB	'c', 00H, 'e', 00H, '\', 00H, 'B', 00H, 'i', 00H, 'n', 00H, 'a'
	DB	00H, 'r', 00H, 'y', 00H, '\', 00H, 's', 00H, 'o', 00H, 'u', 00H
	DB	'r', 00H, 'c', 00H, 'e', 00H, '\', 00H, 'e', 00H, 't', 00H, 'e'
	DB	00H, 'r', 00H, 'B', 00H, 'a', 00H, 's', 00H, 'e', 00H, '\', 00H
	DB	'S', 00H, 'i', 00H, 'n', 00H, 'g', 00H, 'l', 00H, 'e', 00H, 't'
	DB	00H, 'o', 00H, 'n', 00H, '.', 00H, 'h', 00H, 00H, 00H ; `string'
CONST	ENDS
;	COMDAT ??_C@_1BK@FMEHPMFE@?$AAm?$AAs?$AA_?$AAs?$AAi?$AAn?$AAg?$AAl?$AAe?$AAt?$AAo?$AAn@
CONST	SEGMENT
??_C@_1BK@FMEHPMFE@?$AAm?$AAs?$AA_?$AAs?$AAi?$AAn?$AAg?$AAl?$AAe?$AAt?$AAo?$AAn@ DB 'm'
	DB	00H, 's', 00H, '_', 00H, 's', 00H, 'i', 00H, 'n', 00H, 'g', 00H
	DB	'l', 00H, 'e', 00H, 't', 00H, 'o', 00H, 'n', 00H, 00H, 00H ; `string'
CONST	ENDS
;	COMDAT ??_7?$CSingleton@VCAccountConnector@@@@6B@
CONST	SEGMENT
??_7?$CSingleton@VCAccountConnector@@@@6B@ DD FLAT:??_R4?$CSingleton@VCAccountConnector@@@@6B@ ; CSingleton<CAccountConnector>::`vftable'
	DD	FLAT:??_E?$CSingleton@VCAccountConnector@@@@UAEPAXI@Z
CONST	ENDS
;	COMDAT ??_C@_1BM@EENBGLDC@?$AA?$CB?$AAm?$AAs?$AA_?$AAs?$AAi?$AAn?$AAg?$AAl?$AAe?$AAt?$AAo?$AAn@
CONST	SEGMENT
??_C@_1BM@EENBGLDC@?$AA?$CB?$AAm?$AAs?$AA_?$AAs?$AAi?$AAn?$AAg?$AAl?$AAe?$AAt?$AAo?$AAn@ DB '!'
	DB	00H, 'm', 00H, 's', 00H, '_', 00H, 's', 00H, 'i', 00H, 'n', 00H
	DB	'g', 00H, 'l', 00H, 'e', 00H, 't', 00H, 'o', 00H, 'n', 00H, 00H
	DB	00H						; `string'
CONST	ENDS
;	COMDAT ??_R4CAccountConnector@@6BCNetworkStream@@@
rdata$r	SEGMENT
??_R4CAccountConnector@@6BCNetworkStream@@@ DD 00H	; CAccountConnector::`RTTI Complete Object Locator'
	DD	00H
	DD	00H
	DD	FLAT:??_R0?AVCAccountConnector@@@8
	DD	FLAT:??_R3CAccountConnector@@8
rdata$r	ENDS
;	COMDAT ??_R4CAccountConnector@@6B?$CSingleton@VCAccountConnector@@@@@
rdata$r	SEGMENT
??_R4CAccountConnector@@6B?$CSingleton@VCAccountConnector@@@@@ DD 00H ; CAccountConnector::`RTTI Complete Object Locator'
	DD	078H
	DD	00H
	DD	FLAT:??_R0?AVCAccountConnector@@@8
	DD	FLAT:??_R3CAccountConnector@@8
rdata$r	ENDS
;	COMDAT ??_R4?$CSingleton@VCAccountConnector@@@@6B@
rdata$r	SEGMENT
??_R4?$CSingleton@VCAccountConnector@@@@6B@ DD 00H	; CSingleton<CAccountConnector>::`RTTI Complete Object Locator'
	DD	00H
	DD	00H
	DD	FLAT:??_R0?AV?$CSingleton@VCAccountConnector@@@@@8
	DD	FLAT:??_R3?$CSingleton@VCAccountConnector@@@@8
rdata$r	ENDS
;	COMDAT ??_R0?AVCAccountConnector@@@8
data$rs	SEGMENT
??_R0?AVCAccountConnector@@@8 DD FLAT:??_7type_info@@6B@ ; CAccountConnector `RTTI Type Descriptor'
	DD	00H
	DB	'.?AVCAccountConnector@@', 00H
data$rs	ENDS
;	COMDAT ??_R3CAccountConnector@@8
rdata$r	SEGMENT
??_R3CAccountConnector@@8 DD 00H			; CAccountConnector::`RTTI Class Hierarchy Descriptor'
	DD	01H
	DD	03H
	DD	FLAT:??_R2CAccountConnector@@8
rdata$r	ENDS
;	COMDAT ??_R0?AVCNetworkStream@@@8
data$rs	SEGMENT
??_R0?AVCNetworkStream@@@8 DD FLAT:??_7type_info@@6B@	; CNetworkStream `RTTI Type Descriptor'
	DD	00H
	DB	'.?AVCNetworkStream@@', 00H
data$rs	ENDS
;	COMDAT ??_R3CNetworkStream@@8
rdata$r	SEGMENT
??_R3CNetworkStream@@8 DD 00H				; CNetworkStream::`RTTI Class Hierarchy Descriptor'
	DD	00H
	DD	01H
	DD	FLAT:??_R2CNetworkStream@@8
rdata$r	ENDS
;	COMDAT ??_R0?AV?$CSingleton@VCAccountConnector@@@@@8
data$rs	SEGMENT
??_R0?AV?$CSingleton@VCAccountConnector@@@@@8 DD FLAT:??_7type_info@@6B@ ; CSingleton<CAccountConnector> `RTTI Type Descriptor'
	DD	00H
	DB	'.?AV?$CSingleton@VCAccountConnector@@@@', 00H
data$rs	ENDS
;	COMDAT ??_R3?$CSingleton@VCAccountConnector@@@@8
rdata$r	SEGMENT
??_R3?$CSingleton@VCAccountConnector@@@@8 DD 00H	; CSingleton<CAccountConnector>::`RTTI Class Hierarchy Descriptor'
	DD	00H
	DD	01H
	DD	FLAT:??_R2?$CSingleton@VCAccountConnector@@@@8
rdata$r	ENDS
;	COMDAT ??_R1A@?0A@EA@CNetworkStream@@8
rdata$r	SEGMENT
??_R1A@?0A@EA@CNetworkStream@@8 DD FLAT:??_R0?AVCNetworkStream@@@8 ; CNetworkStream::`RTTI Base Class Descriptor at (0,-1,0,64)'
	DD	00H
	DD	00H
	DD	0ffffffffH
	DD	00H
	DD	040H
	DD	FLAT:??_R3CNetworkStream@@8
rdata$r	ENDS
;	COMDAT ??_R1A@?0A@EA@?$CSingleton@VCAccountConnector@@@@8
rdata$r	SEGMENT
??_R1A@?0A@EA@?$CSingleton@VCAccountConnector@@@@8 DD FLAT:??_R0?AV?$CSingleton@VCAccountConnector@@@@@8 ; CSingleton<CAccountConnector>::`RTTI Base Class Descriptor at (0,-1,0,64)'
	DD	00H
	DD	00H
	DD	0ffffffffH
	DD	00H
	DD	040H
	DD	FLAT:??_R3?$CSingleton@VCAccountConnector@@@@8
rdata$r	ENDS
;	COMDAT ??_R1A@?0A@EA@CAccountConnector@@8
rdata$r	SEGMENT
??_R1A@?0A@EA@CAccountConnector@@8 DD FLAT:??_R0?AVCAccountConnector@@@8 ; CAccountConnector::`RTTI Base Class Descriptor at (0,-1,0,64)'
	DD	02H
	DD	00H
	DD	0ffffffffH
	DD	00H
	DD	040H
	DD	FLAT:??_R3CAccountConnector@@8
rdata$r	ENDS
;	COMDAT ??_R1HI@?0A@EA@?$CSingleton@VCAccountConnector@@@@8
rdata$r	SEGMENT
??_R1HI@?0A@EA@?$CSingleton@VCAccountConnector@@@@8 DD FLAT:??_R0?AV?$CSingleton@VCAccountConnector@@@@@8 ; CSingleton<CAccountConnector>::`RTTI Base Class Descriptor at (120,-1,0,64)'
	DD	00H
	DD	078H
	DD	0ffffffffH
	DD	00H
	DD	040H
	DD	FLAT:??_R3?$CSingleton@VCAccountConnector@@@@8
rdata$r	ENDS
;	COMDAT ??_R2CNetworkStream@@8
rdata$r	SEGMENT
??_R2CNetworkStream@@8 DD FLAT:??_R1A@?0A@EA@CNetworkStream@@8 ; CNetworkStream::`RTTI Base Class Array'
rdata$r	ENDS
;	COMDAT ??_R2?$CSingleton@VCAccountConnector@@@@8
rdata$r	SEGMENT
??_R2?$CSingleton@VCAccountConnector@@@@8 DD FLAT:??_R1A@?0A@EA@?$CSingleton@VCAccountConnector@@@@8 ; CSingleton<CAccountConnector>::`RTTI Base Class Array'
rdata$r	ENDS
;	COMDAT ??_R2CAccountConnector@@8
rdata$r	SEGMENT
??_R2CAccountConnector@@8 DD FLAT:??_R1A@?0A@EA@CAccountConnector@@8 ; CAccountConnector::`RTTI Base Class Array'
	DD	FLAT:??_R1A@?0A@EA@CNetworkStream@@8
	DD	FLAT:??_R1HI@?0A@EA@?$CSingleton@VCAccountConnector@@@@8
rdata$r	ENDS
;	COMDAT ??_C@_0CB@JCOEPOFG@JyTxtHljHJlVJHorRM301vf?$EA4fvj10?9@
CONST	SEGMENT
??_C@_0CB@JCOEPOFG@JyTxtHljHJlVJHorRM301vf?$EA4fvj10?9@ DB 'JyTxtHljHJlVJ'
	DB	'HorRM301vf@4fvj10-v', 00H			; `string'
CONST	ENDS
;	COMDAT ??_C@_06NAODFICM@OnExit@
CONST	SEGMENT
??_C@_06NAODFICM@OnExit@ DB 'OnExit', 00H		; `string'
CONST	ENDS
;	COMDAT ??_C@_0BB@JEKGEMCL@OnConnectFailure@
CONST	SEGMENT
??_C@_0BB@JEKGEMCL@OnConnectFailure@ DB 'OnConnectFailure', 00H ; `string'
CONST	ENDS
;	COMDAT ??_C@_02HCKGKOFO@?$CI?$CJ@
CONST	SEGMENT
??_C@_02HCKGKOFO@?$CI?$CJ@ DB '()', 00H			; `string'
CONST	ENDS
;	COMDAT ??_C@_0P@OOEAIINI@OnLoginFailure@
CONST	SEGMENT
??_C@_0P@OOEAIINI@OnLoginFailure@ DB 'OnLoginFailure', 00H ; `string'
CONST	ENDS
;	COMDAT ??_C@_03KJMMOONA@?$CIs?$CJ@
CONST	SEGMENT
??_C@_03KJMMOONA@?$CIs?$CJ@ DB '(s)', 00H		; `string'
CONST	ENDS
;	COMDAT ??_C@_09FJACDEDF@BESAMEKEY@
CONST	SEGMENT
??_C@_09FJACDEDF@BESAMEKEY@ DB 'BESAMEKEY', 00H		; `string'
CONST	ENDS
;	COMDAT ??_C@_0EE@PGOEFGOD@?5CAccountConnector?3?3__AuthState@
CONST	SEGMENT
??_C@_0EE@PGOEFGOD@?5CAccountConnector?3?3__AuthState@ DB ' CAccountConne'
	DB	'ctor::__AuthState_RecvHandshake - SendHandshake Error', 00H ; `string'
CONST	ENDS
;	COMDAT ??_C@_0BC@CAMNEEDN@HANDSHAKE?5SEND?5?$CFu@
CONST	SEGMENT
??_C@_0BC@CAMNEEDN@HANDSHAKE?5SEND?5?$CFu@ DB 'HANDSHAKE SEND %u', 00H ; `string'
CONST	ENDS
;	COMDAT ??_C@_0BF@MMAJMJLI@HANDSHAKE?5RECV?5?$CFu?5?$CFd@
CONST	SEGMENT
??_C@_0BF@MMAJMJLI@HANDSHAKE?5RECV?5?$CFu?5?$CFd@ DB 'HANDSHAKE RECV %u %'
	DB	'd', 00H					; `string'
CONST	ENDS
;	COMDAT ??_C@_0DN@HEMMJEJK@?5CAccountConnector?3?3__AuthState@
CONST	SEGMENT
??_C@_0DN@HEMMJEJK@?5CAccountConnector?3?3__AuthState@ DB ' CAccountConne'
	DB	'ctor::__AuthState_RecvPhase - SendLogin3 Error', 00H ; `string'
CONST	ENDS
;	COMDAT ??_C@_0L@GIJHLCPD@ext_180923@
CONST	SEGMENT
??_C@_0L@GIJHLCPD@ext_180923@ DB 'ext_180923', 00H	; `string'
CONST	ENDS
;	COMDAT ??_C@_0BB@JKKAAGON@1234abcd5678efgh@
CONST	SEGMENT
??_C@_0BB@JKKAAGON@1234abcd5678efgh@ DB '1234abcd5678efgh', 00H ; `string'
CONST	ENDS
PUBLIC	??0?$basic_string@DU?$char_traits@D@std@@V?$allocator@D@2@@std@@QAE@XZ ; std::basic_string<char,std::char_traits<char>,std::allocator<char> >::basic_string<char,std::char_traits<char>,std::allocator<char> >
PUBLIC	?_Construct_empty@?$basic_string@DU?$char_traits@D@std@@V?$allocator@D@2@@std@@AAEXXZ ; std::basic_string<char,std::char_traits<char>,std::allocator<char> >::_Construct_empty
PUBLIC	?assign@?$_Narrow_char_traits@DH@std@@SAXAADABD@Z ; std::_Narrow_char_traits<char,int>::assign
PUBLIC	?assign@?$_Char_traits@DH@std@@SAXAADABD@Z	; std::_Char_traits<char,int>::assign
PUBLIC	?is_constant_evaluated@std@@YA_NXZ		; std::is_constant_evaluated
PUBLIC	?_Activate_SSO_buffer@?$_String_val@U?$_Simple_types@D@std@@@std@@QAEXXZ ; std::_String_val<std::_Simple_types<char> >::_Activate_SSO_buffer
PUBLIC	?_Alloc_proxy@_Container_base0@std@@QAEXABU_Fake_allocator@2@@Z ; std::_Container_base0::_Alloc_proxy
PUBLIC	??1?$_Compressed_pair@V?$allocator@D@std@@V?$_String_val@U?$_Simple_types@D@std@@@2@$00@std@@QAE@XZ ; std::_Compressed_pair<std::allocator<char>,std::_String_val<std::_Simple_types<char> >,1>::~_Compressed_pair<std::allocator<char>,std::_String_val<std::_Simple_types<char> >,1>
PUBLIC	??1?$_String_val@U?$_Simple_types@D@std@@@std@@QAE@XZ ; std::_String_val<std::_Simple_types<char> >::~_String_val<std::_Simple_types<char> >
PUBLIC	??1_Bxty@?$_String_val@U?$_Simple_types@D@std@@@std@@QAE@XZ ; std::_String_val<std::_Simple_types<char> >::_Bxty::~_Bxty
PUBLIC	??$?0$$V@?$_Compressed_pair@V?$allocator@D@std@@V?$_String_val@U?$_Simple_types@D@std@@@2@$00@std@@QAE@U_Zero_then_variadic_args_t@1@@Z ; std::_Compressed_pair<std::allocator<char>,std::_String_val<std::_Simple_types<char> >,1>::_Compressed_pair<std::allocator<char>,std::_String_val<std::_Simple_types<char> >,1><>
PUBLIC	??0?$_String_val@U?$_Simple_types@D@std@@@std@@QAE@XZ ; std::_String_val<std::_Simple_types<char> >::_String_val<std::_Simple_types<char> >
PUBLIC	??0_Bxty@?$_String_val@U?$_Simple_types@D@std@@@std@@QAE@XZ ; std::_String_val<std::_Simple_types<char> >::_Bxty::_Bxty
PUBLIC	??0?$allocator@D@std@@QAE@XZ			; std::allocator<char>::allocator<char>
PUBLIC	??1?$basic_string@DU?$char_traits@D@std@@V?$allocator@D@2@@std@@QAE@XZ ; std::basic_string<char,std::char_traits<char>,std::allocator<char> >::~basic_string<char,std::char_traits<char>,std::allocator<char> >
PUBLIC	?_Tidy_deallocate@?$basic_string@DU?$char_traits@D@std@@V?$allocator@D@2@@std@@AAEXXZ ; std::basic_string<char,std::char_traits<char>,std::allocator<char> >::_Tidy_deallocate
PUBLIC	?_Switch_to_buf@_Bxty@?$_String_val@U?$_Simple_types@D@std@@@std@@QAEXXZ ; std::_String_val<std::_Simple_types<char> >::_Bxty::_Switch_to_buf
PUBLIC	??$_Destroy_in_place@PAD@std@@YAXAAPAD@Z	; std::_Destroy_in_place<char *>
PUBLIC	?_Deallocate_for_capacity@?$basic_string@DU?$char_traits@D@std@@V?$allocator@D@2@@std@@CAXAAV?$allocator@D@2@QADI@Z ; std::basic_string<char,std::char_traits<char>,std::allocator<char> >::_Deallocate_for_capacity
PUBLIC	?deallocate@?$allocator@D@std@@QAEXQADI@Z	; std::allocator<char>::deallocate
PUBLIC	??$_Deallocate@$07@std@@YAXPAXI@Z		; std::_Deallocate<8>
PUBLIC	?_Adjust_manually_vector_aligned@std@@YAXAAPAXAAI@Z ; std::_Adjust_manually_vector_aligned
PUBLIC	?_Getal@?$basic_string@DU?$char_traits@D@std@@V?$allocator@D@2@@std@@AAEAAV?$allocator@D@2@XZ ; std::basic_string<char,std::char_traits<char>,std::allocator<char> >::_Getal
PUBLIC	?_Get_first@?$_Compressed_pair@V?$allocator@D@std@@V?$_String_val@U?$_Simple_types@D@std@@@2@$00@std@@QAEAAV?$allocator@D@2@XZ ; std::_Compressed_pair<std::allocator<char>,std::_String_val<std::_Simple_types<char> >,1>::_Get_first
PUBLIC	?_Large_mode_engaged@?$_String_val@U?$_Simple_types@D@std@@@std@@QBE_NXZ ; std::_String_val<std::_Simple_types<char> >::_Large_mode_engaged
PUBLIC	?_Orphan_all@_Container_base0@std@@QAEXXZ	; std::_Container_base0::_Orphan_all
PUBLIC	?_Myptr@?$_String_val@U?$_Simple_types@D@std@@@std@@QBEPBDXZ ; std::_String_val<std::_Simple_types<char> >::_Myptr
PUBLIC	??$_Unfancy@D@std@@YAPADPAD@Z			; std::_Unfancy<char>
PUBLIC	?assign@?$basic_string@DU?$char_traits@D@std@@V?$allocator@D@2@@std@@QAEAAV12@QBDI@Z ; std::basic_string<char,std::char_traits<char>,std::allocator<char> >::assign
PUBLIC	??$_Reallocate_for@V<lambda_1>@?1??assign@?$basic_string@DU?$char_traits@D@std@@V?$allocator@D@2@@std@@QAEAAV34@QBDI@Z@PBD@?$basic_string@DU?$char_traits@D@std@@V?$allocator@D@2@@std@@AAEAAV01@IV<lambda_1>@?1??assign@01@QAEAAV01@QBDI@Z@PBD@Z ; std::basic_string<char,std::char_traits<char>,std::allocator<char> >::_Reallocate_for<`std::basic_string<char,std::char_traits<char>,std::allocator<char> >::assign'::`2'::<lambda_1>,char const *>
PUBLIC	??$_Construct_in_place@PADABQAD@std@@YAXAAPADABQAD@Z ; std::_Construct_in_place<char *,char * const &>
PUBLIC	??$addressof@PAD@std@@YAPAPADAAPAD@Z		; std::addressof<char *>
PUBLIC	??2@YAPAXIPAX@Z					; operator new
PUBLIC	??$construct_at@PADABQAD@std@@YAPAPADQAPADABQAD@Z ; std::construct_at<char *,char * const &>
PUBLIC	??$forward@ABQAD@std@@YAABQADABQAD@Z		; std::forward<char * const &>
PUBLIC	??R<lambda_1>@?1??assign@?$basic_string@DU?$char_traits@D@std@@V?$allocator@D@2@@std@@QAEAAV23@QBDI@Z@QBE@QADI0@Z ; `std::basic_string<char,std::char_traits<char>,std::allocator<char> >::assign'::`2'::<lambda_1>::operator()
PUBLIC	?copy@?$_Char_traits@DH@std@@SAPADQADQBDI@Z	; std::_Char_traits<char,int>::copy
PUBLIC	??$_Allocate_for_capacity@$0A@@?$basic_string@DU?$char_traits@D@std@@V?$allocator@D@2@@std@@CAPADAAV?$allocator@D@1@AAI@Z ; std::basic_string<char,std::char_traits<char>,std::allocator<char> >::_Allocate_for_capacity<0>
PUBLIC	??$construct_at@D$$V@std@@YAPADQAD@Z		; std::construct_at<char>
PUBLIC	??$_Allocate_at_least_helper@V?$allocator@D@std@@@std@@YAPADAAV?$allocator@D@0@AAI@Z ; std::_Allocate_at_least_helper<std::allocator<char> >
PUBLIC	?allocate@?$allocator@D@std@@QAEPADI@Z		; std::allocator<char>::allocate
PUBLIC	??$_Get_size_of_n@$00@std@@YAII@Z		; std::_Get_size_of_n<1>
PUBLIC	??$_Allocate@$07U_Default_allocate_traits@std@@@std@@YAPAXI@Z ; std::_Allocate<8,std::_Default_allocate_traits>
PUBLIC	?_Allocate@_Default_allocate_traits@std@@SAPAXI@Z ; std::_Default_allocate_traits::_Allocate
PUBLIC	??$_Allocate_manually_vector_aligned@U_Default_allocate_traits@std@@@std@@YAPAXI@Z ; std::_Allocate_manually_vector_aligned<std::_Default_allocate_traits>
PUBLIC	?_Throw_bad_array_new_length@std@@YAXXZ		; std::_Throw_bad_array_new_length
PUBLIC	??0exception@std@@QAE@ABV01@@Z			; std::exception::exception
PUBLIC	?what@exception@std@@UBEPBDXZ			; std::exception::what
PUBLIC	??_Gexception@std@@UAEPAXI@Z			; std::exception::`scalar deleting destructor'
PUBLIC	??0bad_alloc@std@@QAE@ABV01@@Z			; std::bad_alloc::bad_alloc
PUBLIC	??_Gbad_alloc@std@@UAEPAXI@Z			; std::bad_alloc::`scalar deleting destructor'
PUBLIC	??1exception@std@@UAE@XZ			; std::exception::~exception
PUBLIC	??0bad_array_new_length@std@@QAE@ABV01@@Z	; std::bad_array_new_length::bad_array_new_length
PUBLIC	??_Gbad_array_new_length@std@@UAEPAXI@Z		; std::bad_array_new_length::`scalar deleting destructor'
PUBLIC	??1bad_alloc@std@@UAE@XZ			; std::bad_alloc::~bad_alloc
PUBLIC	??1bad_array_new_length@std@@UAE@XZ		; std::bad_array_new_length::~bad_array_new_length
PUBLIC	??0bad_array_new_length@std@@QAE@XZ		; std::bad_array_new_length::bad_array_new_length
PUBLIC	??0bad_alloc@std@@AAE@QBD@Z			; std::bad_alloc::bad_alloc
PUBLIC	??0exception@std@@QAE@QBDH@Z			; std::exception::exception
PUBLIC	?_Calculate_growth@?$basic_string@DU?$char_traits@D@std@@V?$allocator@D@2@@std@@ABEII@Z ; std::basic_string<char,std::char_traits<char>,std::allocator<char> >::_Calculate_growth
PUBLIC	?max_size@?$basic_string@DU?$char_traits@D@std@@V?$allocator@D@2@@std@@QBEIXZ ; std::basic_string<char,std::char_traits<char>,std::allocator<char> >::max_size
PUBLIC	??$_Max_limit@H@std@@YAHXZ			; std::_Max_limit<int>
PUBLIC	??$min@I@std@@YAABIABI0@Z			; std::min<unsigned int>
PUBLIC	??$max@I@std@@YAABIABI0@Z			; std::max<unsigned int>
PUBLIC	?_Getal@?$basic_string@DU?$char_traits@D@std@@V?$allocator@D@2@@std@@ABEABV?$allocator@D@2@XZ ; std::basic_string<char,std::char_traits<char>,std::allocator<char> >::_Getal
PUBLIC	?_Get_first@?$_Compressed_pair@V?$allocator@D@std@@V?$_String_val@U?$_Simple_types@D@std@@@2@$00@std@@QBEABV?$allocator@D@2@XZ ; std::_Compressed_pair<std::allocator<char>,std::_String_val<std::_Simple_types<char> >,1>::_Get_first
PUBLIC	?max_size@?$_Default_allocator_traits@V?$allocator@D@std@@@std@@SAIABV?$allocator@D@2@@Z ; std::_Default_allocator_traits<std::allocator<char> >::max_size
PUBLIC	?_Calculate_growth@?$basic_string@DU?$char_traits@D@std@@V?$allocator@D@2@@std@@CAIIII@Z ; std::basic_string<char,std::char_traits<char>,std::allocator<char> >::_Calculate_growth
PUBLIC	?_Xlen_string@std@@YAXXZ			; std::_Xlen_string
PUBLIC	?move@?$_Char_traits@DH@std@@SAPADQADQBDI@Z	; std::_Char_traits<char,int>::move
PUBLIC	?_Myptr@?$_String_val@U?$_Simple_types@D@std@@@std@@QAEPADXZ ; std::_String_val<std::_Simple_types<char> >::_Myptr
PUBLIC	??4?$basic_string@DU?$char_traits@D@std@@V?$allocator@D@2@@std@@QAEAAV01@QBD@Z ; std::basic_string<char,std::char_traits<char>,std::allocator<char> >::operator=
PUBLIC	?assign@?$basic_string@DU?$char_traits@D@std@@V?$allocator@D@2@@std@@QAEAAV12@QBD@Z ; std::basic_string<char,std::char_traits<char>,std::allocator<char> >::assign
PUBLIC	?length@?$_Narrow_char_traits@DH@std@@SAIQBD@Z	; std::_Narrow_char_traits<char,int>::length
PUBLIC	??$_Convert_size@II@std@@YAII@Z			; std::_Convert_size<unsigned int,unsigned int>
PUBLIC	?c_str@?$basic_string@DU?$char_traits@D@std@@V?$allocator@D@2@@std@@QBEPBDXZ ; std::basic_string<char,std::char_traits<char>,std::allocator<char> >::c_str
PUBLIC	??_ECAccountConnector@@WHI@AEPAXI@Z		; [thunk]:CAccountConnector::`vector deleting destructor'
PUBLIC	??_G?$CSingleton@VCAccountConnector@@@@UAEPAXI@Z ; CSingleton<CAccountConnector>::`scalar deleting destructor'
PUBLIC	??0?$CSingleton@VCAccountConnector@@@@QAE@XZ	; CSingleton<CAccountConnector>::CSingleton<CAccountConnector>
PUBLIC	??1?$CSingleton@VCAccountConnector@@@@UAE@XZ	; CSingleton<CAccountConnector>::~CSingleton<CAccountConnector>
PUBLIC	?Instance@?$CSingleton@VCPythonNetworkStream@@@@SAAAVCPythonNetworkStream@@XZ ; CSingleton<CPythonNetworkStream>::Instance
PUBLIC	??1CAccountConnector@@UAE@XZ			; CAccountConnector::~CAccountConnector
PUBLIC	??_GCAccountConnector@@UAEPAXI@Z		; CAccountConnector::`scalar deleting destructor'
PUBLIC	??0CAccountConnector@@QAE@XZ			; CAccountConnector::CAccountConnector
PUBLIC	?__Inialize@CAccountConnector@@IAEXXZ		; CAccountConnector::__Inialize
PUBLIC	?__BuildClientKey@CAccountConnector@@IAEXXZ	; CAccountConnector::__BuildClientKey
PUBLIC	?OnDisconnect@CAccountConnector@@MAEXXZ		; CAccountConnector::OnDisconnect
PUBLIC	?OnRemoteDisconnect@CAccountConnector@@MAEXXZ	; CAccountConnector::OnRemoteDisconnect
PUBLIC	?OnConnectSuccess@CAccountConnector@@MAEXXZ	; CAccountConnector::OnConnectSuccess
PUBLIC	?OnConnectFailure@CAccountConnector@@MAEXXZ	; CAccountConnector::OnConnectFailure
PUBLIC	?__AuthState_Set@CAccountConnector@@IAEXXZ	; CAccountConnector::__AuthState_Set
PUBLIC	?__HandshakeState_Set@CAccountConnector@@IAEXXZ	; CAccountConnector::__HandshakeState_Set
PUBLIC	?__OfflineState_Set@CAccountConnector@@IAEXXZ	; CAccountConnector::__OfflineState_Set
PUBLIC	?__AnalyzePacket@CAccountConnector@@IAE_NIIP81@AE_NXZ@Z ; CAccountConnector::__AnalyzePacket
PUBLIC	?__AuthState_RecvAuthFailure@CAccountConnector@@IAE_NXZ ; CAccountConnector::__AuthState_RecvAuthFailure
PUBLIC	?__AuthState_RecvAuthSuccess@CAccountConnector@@IAE_NXZ ; CAccountConnector::__AuthState_RecvAuthSuccess
PUBLIC	?__AuthState_SendPong@CAccountConnector@@IAE_NXZ ; CAccountConnector::__AuthState_SendPong
PUBLIC	?__AuthState_RecvPing@CAccountConnector@@IAE_NXZ ; CAccountConnector::__AuthState_RecvPing
PUBLIC	?__AuthState_RecvHandshake@CAccountConnector@@IAE_NXZ ; CAccountConnector::__AuthState_RecvHandshake
PUBLIC	?__AuthState_RecvPhase@CAccountConnector@@IAE_NXZ ; CAccountConnector::__AuthState_RecvPhase
PUBLIC	?__AuthState_RecvEmpty@CAccountConnector@@IAE_NXZ ; CAccountConnector::__AuthState_RecvEmpty
PUBLIC	?__AuthState_Process@CAccountConnector@@IAE_NXZ	; CAccountConnector::__AuthState_Process
PUBLIC	?__HandshakeState_Process@CAccountConnector@@IAE_NXZ ; CAccountConnector::__HandshakeState_Process
PUBLIC	?__StateProcess@CAccountConnector@@IAE_NXZ	; CAccountConnector::__StateProcess
PUBLIC	?Process@CAccountConnector@@QAEXXZ		; CAccountConnector::Process
PUBLIC	?Disconnect@CAccountConnector@@QAEXXZ		; CAccountConnector::Disconnect
PUBLIC	?Connect@CAccountConnector@@QAE_NPBDH0H@Z	; CAccountConnector::Connect
PUBLIC	?ClearLoginInfo@CAccountConnector@@QAEXXZ	; CAccountConnector::ClearLoginInfo
PUBLIC	?SetLoginInfo@CAccountConnector@@QAEXPBD0@Z	; CAccountConnector::SetLoginInfo
PUBLIC	?SetHandler@CAccountConnector@@QAEXPAU_object@@@Z ; CAccountConnector::SetHandler
PUBLIC	??_H@YGXPAXIIP6EPAX0@Z@Z			; `vector constructor iterator'
EXTRN	??_Eexception@std@@UAEPAXI@Z:PROC		; std::exception::`vector deleting destructor'
EXTRN	??_Ebad_alloc@std@@UAEPAXI@Z:PROC		; std::bad_alloc::`vector deleting destructor'
EXTRN	??_Ebad_array_new_length@std@@UAEPAXI@Z:PROC	; std::bad_array_new_length::`vector deleting destructor'
EXTRN	??_ECAccountConnector@@UAEPAXI@Z:PROC		; CAccountConnector::`vector deleting destructor'
EXTRN	??_E?$CSingleton@VCAccountConnector@@@@UAEPAXI@Z:PROC ; CSingleton<CAccountConnector>::`vector deleting destructor'
_DATA	ENDS
;	COMDAT xdata$x
xdata$x	SEGMENT
__ehfuncinfo$??0CAccountConnector@@QAE@XZ DQ 00000000519930522r ; 1.0822e-313
	DD	FLAT:__unwindtable$??0CAccountConnector@@QAE@XZ
	DQ	00000000000000000r		; 0
	DQ	00000000000000000r		; 0
	DQ	00000000100000000r		; 2.122e-314
__unwindtable$??0CAccountConnector@@QAE@XZ DD 0ffffffffH
	DD	FLAT:__unwindfunclet$??0CAccountConnector@@QAE@XZ$0
	DD	00H
	DD	FLAT:__unwindfunclet$??0CAccountConnector@@QAE@XZ$1
	DD	01H
	DD	FLAT:__unwindfunclet$??0CAccountConnector@@QAE@XZ$2
	DD	02H
	DD	FLAT:__unwindfunclet$??0CAccountConnector@@QAE@XZ$3
	DD	03H
	DD	FLAT:__unwindfunclet$??0CAccountConnector@@QAE@XZ$4
xdata$x	ENDS
CRT$XCU	ENDS
CRT$XCU	ENDS
CRT$XCU	ENDS
CRT$XCU	ENDS
CRT$XCU	ENDS
CRT$XCU	ENDS
CRT$XCU	ENDS
CRT$XCU	ENDS
CRT$XCU	ENDS
CRT$XCU	ENDS
CRT$XCU	ENDS
CRT$XCU	ENDS
CRT$XCU	ENDS
CRT$XCU	ENDS
CRT$XCU	ENDS
CRT$XCU	ENDS
CRT$XCU	ENDS
CRT$XCU	ENDS
CRT$XCU	ENDS
CRT$XCU	ENDS
CRT$XCU	ENDS
CRT$XCU	ENDS
CRT$XCU	ENDS
CRT$XCU	ENDS
CRT$XCU	ENDS
CRT$XCU	ENDS
CRT$XCU	ENDS
CRT$XCU	ENDS
CRT$XCU	ENDS
CRT$XCU	ENDS
CRT$XCU	ENDS
CRT$XCU	ENDS
CRT$XCU	ENDS
CRT$XCU	ENDS
CRT$XCU	ENDS
CRT$XCU	ENDS
CRT$XCU	ENDS
CRT$XCU	ENDS
CRT$XCU	ENDS
CRT$XCU	ENDS
CRT$XCU	ENDS
CRT$XCU	ENDS
CRT$XCU	ENDS
CRT$XCU	ENDS
CRT$XCU	ENDS
CRT$XCU	ENDS
CRT$XCU	ENDS
CRT$XCU	ENDS
CRT$XCU	ENDS
CRT$XCU	ENDS
CRT$XCU	ENDS
CRT$XCU	ENDS
CRT$XCU	ENDS
CRT$XCU	ENDS
CRT$XCU	ENDS
CRT$XCU	ENDS
CRT$XCU	ENDS
CRT$XCU	ENDS
CRT$XCU	ENDS
CRT$XCU	ENDS
CRT$XCU	ENDS
CRT$XCU	ENDS
CRT$XCU	ENDS
CRT$XCU	ENDS
CRT$XCU	ENDS
CRT$XCU	ENDS
CRT$XCU	ENDS
CRT$XCU	ENDS
CRT$XCU	ENDS
CRT$XCU	ENDS
CRT$XCU	ENDS
CRT$XCU	ENDS
CRT$XCU	ENDS
CRT$XCU	ENDS
CRT$XCU	ENDS
CRT$XCU	ENDS
CRT$XCU	ENDS
CRT$XCU	ENDS
CRT$XCU	ENDS
CRT$XCU	ENDS
CRT$XCU	ENDS
CRT$XCU	ENDS
CRT$XCU	ENDS
CRT$XCU	ENDS
CRT$XCU	ENDS
CRT$XCU	ENDS
CRT$XCU	ENDS
CRT$XCU	ENDS
CRT$XCU	ENDS
CRT$XCU	ENDS
CRT$XCU	ENDS
CRT$XCU	ENDS
CRT$XCU	ENDS
CRT$XCU	ENDS
CRT$XCU	ENDS
CRT$XCU	ENDS
CRT$XCU	ENDS
CRT$XCU	ENDS
CRT$XCU	ENDS
CRT$XCU	ENDS
CRT$XCU	ENDS
CRT$XCU	ENDS
CRT$XCU	ENDS
CRT$XCU	ENDS
CRT$XCU	ENDS
CRT$XCU	ENDS
CRT$XCU	ENDS
CRT$XCU	ENDS
CRT$XCU	ENDS
CRT$XCU	ENDS
CRT$XCU	ENDS
CRT$XCU	ENDS
CRT$XCU	ENDS
CRT$XCU	ENDS
CRT$XCU	ENDS
CRT$XCU	ENDS
CRT$XCU	ENDS
CRT$XCU	ENDS
CRT$XCU	ENDS
CRT$XCU	ENDS
CRT$XCU	ENDS
CRT$XCU	ENDS
CRT$XCU	ENDS
CRT$XCU	ENDS
CRT$XCU	ENDS
CRT$XCU	ENDS
CRT$XCU	ENDS
CRT$XCU	ENDS
CRT$XCU	ENDS
CRT$XCU	ENDS
CRT$XCU	ENDS
CRT$XCU	ENDS
CRT$XCU	ENDS
CRT$XCU	ENDS
CRT$XCU	ENDS
CRT$XCU	ENDS
CRT$XCU	ENDS
CRT$XCU	ENDS
CRT$XCU	ENDS
CRT$XCU	ENDS
CRT$XCU	ENDS
CRT$XCU	ENDS
CRT$XCU	ENDS
CRT$XCU	ENDS
CRT$XCU	ENDS
CRT$XCU	ENDS
CRT$XCU	ENDS
CRT$XCU	ENDS
CRT$XCU	ENDS
CRT$XCU	ENDS
CRT$XCU	ENDS
CRT$XCU	ENDS
CRT$XCU	ENDS
CRT$XCU	ENDS
CRT$XCU	ENDS
CRT$XCU	ENDS
CRT$XCU	ENDS
CRT$XCU	ENDS
CRT$XCU	ENDS
CRT$XCU	ENDS
CRT$XCU	ENDS
CRT$XCU	ENDS
CRT$XCU	ENDS
CRT$XCU	ENDS
CRT$XCU	ENDS
CRT$XCU	ENDS
CRT$XCU	ENDS
CRT$XCU	ENDS
CRT$XCU	ENDS
CRT$XCU	ENDS
CRT$XCU	ENDS
CRT$XCU	ENDS
CRT$XCU	ENDS
CRT$XCU	ENDS
CRT$XCU	ENDS
CRT$XCU	ENDS
CRT$XCU	ENDS
CRT$XCU	ENDS
CRT$XCU	ENDS
CRT$XCU	ENDS
CRT$XCU	ENDS
CRT$XCU	ENDS
CRT$XCU	ENDS
CRT$XCU	ENDS
CRT$XCU	ENDS
CRT$XCU	ENDS
CRT$XCU	ENDS
CRT$XCU	ENDS
CRT$XCU	ENDS
CRT$XCU	ENDS
CRT$XCU	ENDS
CRT$XCU	ENDS
CRT$XCU	ENDS
CRT$XCU	ENDS
CRT$XCU	ENDS
CRT$XCU	ENDS
CRT$XCU	ENDS
CRT$XCU	ENDS
CRT$XCU	ENDS
CRT$XCU	ENDS
CRT$XCU	ENDS
CRT$XCU	ENDS
CRT$XCU	ENDS
CRT$XCU	ENDS
CRT$XCU	ENDS
CRT$XCU	ENDS
CRT$XCU	ENDS
CRT$XCU	ENDS
CRT$XCU	ENDS
CRT$XCU	ENDS
CRT$XCU	ENDS
CRT$XCU	ENDS
CRT$XCU	ENDS
CRT$XCU	ENDS
CRT$XCU	ENDS
CRT$XCU	ENDS
CRT$XCU	ENDS
CRT$XCU	ENDS
CRT$XCU	ENDS
CRT$XCU	ENDS
CRT$XCU	ENDS
CRT$XCU	ENDS
CRT$XCU	ENDS
CRT$XCU	ENDS
CRT$XCU	ENDS
CRT$XCU	ENDS
CRT$XCU	ENDS
CRT$XCU	ENDS
CRT$XCU	ENDS
CRT$XCU	ENDS
CRT$XCU	ENDS
CRT$XCU	ENDS
CRT$XCU	ENDS
CRT$XCU	ENDS
CRT$XCU	ENDS
CRT$XCU	ENDS
CRT$XCU	ENDS
CRT$XCU	ENDS
CRT$XCU	ENDS
CRT$XCU	ENDS
CRT$XCU	ENDS
CRT$XCU	ENDS
CRT$XCU	ENDS
CRT$XCU	ENDS
CRT$XCU	ENDS
CRT$XCU	ENDS
CRT$XCU	ENDS
CRT$XCU	ENDS
CRT$XCU	ENDS
CRT$XCU	ENDS
CRT$XCU	ENDS
CRT$XCU	ENDS
CRT$XCU	ENDS
CRT$XCU	ENDS
CRT$XCU	ENDS
CRT$XCU	ENDS
CRT$XCU	ENDS
CRT$XCU	ENDS
CRT$XCU	ENDS
CRT$XCU	ENDS
CRT$XCU	ENDS
CRT$XCU	ENDS
CRT$XCU	ENDS
CRT$XCU	ENDS
CRT$XCU	ENDS
CRT$XCU	ENDS
CRT$XCU	ENDS
CRT$XCU	ENDS
CRT$XCU	ENDS
CRT$XCU	ENDS
CRT$XCU	ENDS
CRT$XCU	ENDS
CRT$XCU	ENDS
CRT$XCU	ENDS
CRT$XCU	ENDS
CRT$XCU	ENDS
CRT$XCU	ENDS
CRT$XCU	ENDS
CRT$XCU	ENDS
CRT$XCU	ENDS
CRT$XCU	ENDS
CRT$XCU	ENDS
CRT$XCU	ENDS
CRT$XCU	ENDS
CRT$XCU	ENDS
CRT$XCU	ENDS
CRT$XCU	ENDS
CRT$XCU	ENDS
CRT$XCU	ENDS
CRT$XCU	ENDS
CRT$XCU	ENDS
CRT$XCU	ENDS
CRT$XCU	ENDS
CRT$XCU	ENDS
CRT$XCU	ENDS
CRT$XCU	ENDS
CRT$XCU	ENDS
CRT$XCU	ENDS
CRT$XCU	ENDS
CRT$XCU	ENDS
CRT$XCU	ENDS
CRT$XCU	ENDS
CRT$XCU	ENDS
; Function compile flags: /Ogtp
;	COMDAT ??_H@YGXPAXIIP6EPAX0@Z@Z
_TEXT	SEGMENT
___t$ = 8						; size = 4
___s$ = 12						; size = 4
___n$ = 16						; size = 4
___f$ = 20						; size = 4
??_H@YGXPAXIIP6EPAX0@Z@Z PROC				; `vector constructor iterator', COMDAT
  00000	55		 push	 ebp
  00001	8b ec		 mov	 ebp, esp
  00003	56		 push	 esi
  00004	8b 75 10	 mov	 esi, DWORD PTR ___n$[ebp]
  00007	85 f6		 test	 esi, esi
  00009	74 16		 je	 SHORT $LN6@vector
  0000b	53		 push	 ebx
  0000c	8b 5d 14	 mov	 ebx, DWORD PTR ___f$[ebp]
  0000f	57		 push	 edi
  00010	8b 7d 08	 mov	 edi, DWORD PTR ___t$[ebp]
$LL2@vector:
  00013	8b cf		 mov	 ecx, edi
  00015	ff d3		 call	 ebx
  00017	03 7d 0c	 add	 edi, DWORD PTR ___s$[ebp]
  0001a	83 ee 01	 sub	 esi, 1
  0001d	75 f4		 jne	 SHORT $LL2@vector
  0001f	5f		 pop	 edi
  00020	5b		 pop	 ebx
$LN6@vector:
  00021	5e		 pop	 esi
  00022	5d		 pop	 ebp
  00023	c2 10 00	 ret	 16			; 00000010H
??_H@YGXPAXIIP6EPAX0@Z@Z ENDP				; `vector constructor iterator'
_TEXT	ENDS
; Function compile flags: /Ogtp
; File C:\Anka2Project\Anka2Project\Source\Binary\source\UserInterface\AccountConnector.cpp
; File C:\Anka2Project\Anka2Project\Source\Binary\source\eterBase\Singleton.h
; File C:\Anka2Project\Anka2Project\Source\Binary\source\UserInterface\AccountConnector.cpp
; File C:\Program Files\Microsoft Visual Studio\2022\Community\VC\Tools\MSVC\14.44.35207\include\xstring
; File C:\Anka2Project\Anka2Project\Source\Binary\source\UserInterface\AccountConnector.cpp
;	COMDAT ?__AuthState_RecvAuthSuccess@CAccountConnector@@IAE_NXZ
_TEXT	SEGMENT
_kAuthSuccessPacket$ = -8				; size = 6
?__AuthState_RecvAuthSuccess@CAccountConnector@@IAE_NXZ PROC ; CAccountConnector::__AuthState_RecvAuthSuccess, COMDAT
; _this$ = ecx

; 226  : {

  00000	55		 push	 ebp
  00001	8b ec		 mov	 ebp, esp
  00003	83 ec 08	 sub	 esp, 8

; 227  : 	TPacketGCAuthSuccess kAuthSuccessPacket;
; 228  : 	if (!Recv(sizeof(kAuthSuccessPacket), &kAuthSuccessPacket))

  00006	8d 45 f8	 lea	 eax, DWORD PTR _kAuthSuccessPacket$[ebp]
  00009	56		 push	 esi
  0000a	50		 push	 eax
  0000b	6a 06		 push	 6
  0000d	8b f1		 mov	 esi, ecx
  0000f	e8 00 00 00 00	 call	 ?Recv@CNetworkStream@@QAE_NHPAX@Z ; CNetworkStream::Recv
  00014	84 c0		 test	 al, al
  00016	75 05		 jne	 SHORT $LN2@AuthState_
  00018	5e		 pop	 esi

; 247  : }

  00019	8b e5		 mov	 esp, ebp
  0001b	5d		 pop	 ebp
  0001c	c3		 ret	 0
$LN2@AuthState_:

; 229  : 		return false;
; 230  : 
; 231  : 	if (!kAuthSuccessPacket.bResult)

  0001d	80 7d fd 00	 cmp	 BYTE PTR _kAuthSuccessPacket$[ebp+5], 0
  00021	75 2f		 jne	 SHORT $LN3@AuthState_

; 232  : 	{
; 233  : 		if (m_poHandler)

  00023	83 be d0 00 00
	00 00		 cmp	 DWORD PTR [esi+208], 0
  0002a	74 71		 je	 SHORT $LN4@AuthState_

; 234  : 			PyCallClassMemberFunc(m_poHandler, "OnLoginFailure", Py_BuildValue("(s)", "BESAMEKEY"));

  0002c	68 00 00 00 00	 push	 OFFSET ??_C@_09FJACDEDF@BESAMEKEY@
  00031	68 00 00 00 00	 push	 OFFSET ??_C@_03KJMMOONA@?$CIs?$CJ@
  00036	ff 15 00 00 00
	00		 call	 DWORD PTR __imp__Py_BuildValue
  0003c	50		 push	 eax
  0003d	68 00 00 00 00	 push	 OFFSET ??_C@_0P@OOEAIINI@OnLoginFailure@
  00042	ff b6 d0 00 00
	00		 push	 DWORD PTR [esi+208]
  00048	e8 00 00 00 00	 call	 ?PyCallClassMemberFunc@@YA_NPAU_object@@PBD0@Z ; PyCallClassMemberFunc
  0004d	83 c4 14	 add	 esp, 20			; 00000014H

; 235  : 	}

  00050	eb 4b		 jmp	 SHORT $LN4@AuthState_
$LN3@AuthState_:
; File C:\Anka2Project\Anka2Project\Source\Binary\source\eterBase\Singleton.h

; 26   : 		assert(ms_singleton);

  00052	8b 0d 00 00 00
	00		 mov	 ecx, DWORD PTR ?ms_singleton@?$CSingleton@VCPythonNetworkStream@@@@0PAVCPythonNetworkStream@@A ; CSingleton<CPythonNetworkStream>::ms_singleton
  00058	85 c9		 test	 ecx, ecx
  0005a	75 1a		 jne	 SHORT $LN9@AuthState_
  0005c	6a 1a		 push	 26			; 0000001aH
  0005e	68 00 00 00 00	 push	 OFFSET ??_C@_1IO@CAJLEEOI@?$AAC?$AA?3?$AA?2?$AAA?$AAn?$AAk?$AAa?$AA2?$AAP?$AAr?$AAo?$AAj?$AAe?$AAc?$AAt@
  00063	68 00 00 00 00	 push	 OFFSET ??_C@_1BK@FMEHPMFE@?$AAm?$AAs?$AA_?$AAs?$AAi?$AAn?$AAg?$AAl?$AAe?$AAt?$AAo?$AAn@
  00068	e8 00 00 00 00	 call	 __wassert
  0006d	8b 0d 00 00 00
	00		 mov	 ecx, DWORD PTR ?ms_singleton@?$CSingleton@VCPythonNetworkStream@@@@0PAVCPythonNetworkStream@@A ; CSingleton<CPythonNetworkStream>::ms_singleton
  00073	83 c4 0c	 add	 esp, 12			; 0000000cH
$LN9@AuthState_:
; File C:\Anka2Project\Anka2Project\Source\Binary\source\UserInterface\AccountConnector.cpp

; 239  : 		rkNet.SetLoginKey(kAuthSuccessPacket.dwLoginKey);

  00076	ff 75 f9	 push	 DWORD PTR _kAuthSuccessPacket$[ebp+1]
  00079	e8 00 00 00 00	 call	 ?SetLoginKey@CPythonNetworkStream@@QAEXK@Z ; CPythonNetworkStream::SetLoginKey
; File C:\Program Files\Microsoft Visual Studio\2022\Community\VC\Tools\MSVC\14.44.35207\include\xstring

; 453  :         return _Myres > _Small_string_capacity;

  0007e	83 be c4 00 00
	00 0f		 cmp	 DWORD PTR [esi+196], 15	; 0000000fH

; 2356 :         return _Mypair._Myval2._Myptr();

  00085	8d 86 b0 00 00
	00		 lea	 eax, DWORD PTR [esi+176]

; 445  :         if (_Large_mode_engaged()) {

  0008b	76 02		 jbe	 SHORT $LN14@AuthState_

; 446  :             _Result = _Unfancy(_Bx._Ptr);

  0008d	8b 00		 mov	 eax, DWORD PTR [eax]
$LN14@AuthState_:
; File C:\Anka2Project\Anka2Project\Source\Binary\source\UserInterface\AccountConnector.cpp

; 240  : 		rkNet.Connect(m_strAddr.c_str(), m_iPort);

  0008f	6a 03		 push	 3
  00091	ff b6 c8 00 00
	00		 push	 DWORD PTR [esi+200]
  00097	50		 push	 eax
  00098	e8 00 00 00 00	 call	 ?Connect@CNetworkStream@@QAE_NPBDHH@Z ; CNetworkStream::Connect
$LN4@AuthState_:

; 241  : 	}
; 242  : 
; 243  : 	Disconnect();

  0009d	8b ce		 mov	 ecx, esi
  0009f	e8 00 00 00 00	 call	 ?Disconnect@CAccountConnector@@QAEXXZ ; CAccountConnector::Disconnect

; 244  : 	__OfflineState_Set();

  000a4	8b ce		 mov	 ecx, esi
  000a6	e8 00 00 00 00	 call	 ?__OfflineState_Set@CAccountConnector@@IAEXXZ ; CAccountConnector::__OfflineState_Set

; 245  : 
; 246  : 	return true;

  000ab	b0 01		 mov	 al, 1
  000ad	5e		 pop	 esi

; 247  : }

  000ae	8b e5		 mov	 esp, ebp
  000b0	5d		 pop	 ebp
  000b1	c3		 ret	 0
?__AuthState_RecvAuthSuccess@CAccountConnector@@IAE_NXZ ENDP ; CAccountConnector::__AuthState_RecvAuthSuccess
_TEXT	ENDS
; Function compile flags: /Ogtp
; File C:\Anka2Project\Anka2Project\Source\Binary\source\UserInterface\AccountConnector.cpp
;	COMDAT ?__AuthState_RecvAuthFailure@CAccountConnector@@IAE_NXZ
_TEXT	SEGMENT
_packet_failure$ = -16					; size = 10
__$ArrayPad$ = -4					; size = 4
?__AuthState_RecvAuthFailure@CAccountConnector@@IAE_NXZ PROC ; CAccountConnector::__AuthState_RecvAuthFailure, COMDAT
; _this$ = ecx

; 250  : {

  00000	55		 push	 ebp
  00001	8b ec		 mov	 ebp, esp
  00003	83 ec 10	 sub	 esp, 16			; 00000010H
  00006	a1 00 00 00 00	 mov	 eax, DWORD PTR ___security_cookie
  0000b	33 c5		 xor	 eax, ebp
  0000d	89 45 fc	 mov	 DWORD PTR __$ArrayPad$[ebp], eax
  00010	56		 push	 esi

; 251  : 	TPacketGCLoginFailure packet_failure;
; 252  : 	if (!Recv(sizeof(TPacketGCLoginFailure), &packet_failure))

  00011	8d 45 f0	 lea	 eax, DWORD PTR _packet_failure$[ebp]
  00014	8b f1		 mov	 esi, ecx
  00016	50		 push	 eax
  00017	6a 0a		 push	 10			; 0000000aH
  00019	e8 00 00 00 00	 call	 ?Recv@CNetworkStream@@QAE_NHPAX@Z ; CNetworkStream::Recv
  0001e	84 c0		 test	 al, al
  00020	75 0f		 jne	 SHORT $LN2@AuthState_
  00022	5e		 pop	 esi

; 257  : 
; 258  : 	return true;
; 259  : }

  00023	8b 4d fc	 mov	 ecx, DWORD PTR __$ArrayPad$[ebp]
  00026	33 cd		 xor	 ecx, ebp
  00028	e8 00 00 00 00	 call	 @__security_check_cookie@4
  0002d	8b e5		 mov	 esp, ebp
  0002f	5d		 pop	 ebp
  00030	c3		 ret	 0
$LN2@AuthState_:

; 253  : 		return false;
; 254  : 
; 255  : 	if (m_poHandler)

  00031	83 be d0 00 00
	00 00		 cmp	 DWORD PTR [esi+208], 0
  00038	74 23		 je	 SHORT $LN3@AuthState_

; 256  : 		PyCallClassMemberFunc(m_poHandler, "OnLoginFailure", Py_BuildValue("(s)", packet_failure.szStatus));

  0003a	8d 45 f1	 lea	 eax, DWORD PTR _packet_failure$[ebp+1]
  0003d	50		 push	 eax
  0003e	68 00 00 00 00	 push	 OFFSET ??_C@_03KJMMOONA@?$CIs?$CJ@
  00043	ff 15 00 00 00
	00		 call	 DWORD PTR __imp__Py_BuildValue
  00049	50		 push	 eax
  0004a	68 00 00 00 00	 push	 OFFSET ??_C@_0P@OOEAIINI@OnLoginFailure@
  0004f	ff b6 d0 00 00
	00		 push	 DWORD PTR [esi+208]
  00055	e8 00 00 00 00	 call	 ?PyCallClassMemberFunc@@YA_NPAU_object@@PBD0@Z ; PyCallClassMemberFunc
  0005a	83 c4 14	 add	 esp, 20			; 00000014H
$LN3@AuthState_:

; 257  : 
; 258  : 	return true;
; 259  : }

  0005d	8b 4d fc	 mov	 ecx, DWORD PTR __$ArrayPad$[ebp]
  00060	b0 01		 mov	 al, 1
  00062	33 cd		 xor	 ecx, ebp
  00064	5e		 pop	 esi
  00065	e8 00 00 00 00	 call	 @__security_check_cookie@4
  0006a	8b e5		 mov	 esp, ebp
  0006c	5d		 pop	 ebp
  0006d	c3		 ret	 0
?__AuthState_RecvAuthFailure@CAccountConnector@@IAE_NXZ ENDP ; CAccountConnector::__AuthState_RecvAuthFailure
_TEXT	ENDS
; Function compile flags: /Ogtp
; File C:\Anka2Project\Anka2Project\Source\Binary\source\UserInterface\AccountConnector.cpp
;	COMDAT ?__AnalyzePacket@CAccountConnector@@IAE_NIIP81@AE_NXZ@Z
_TEXT	SEGMENT
_bHeader$ = -1						; size = 1
_uHeader$ = 8						; size = 4
_uPacketSize$ = 12					; size = 4
_pfnDispatchPacket$ = 16				; size = 8
?__AnalyzePacket@CAccountConnector@@IAE_NIIP81@AE_NXZ@Z PROC ; CAccountConnector::__AnalyzePacket, COMDAT
; _this$ = ecx

; 262  : {

  00000	55		 push	 ebp
  00001	8b ec		 mov	 ebp, esp
  00003	51		 push	 ecx
  00004	56		 push	 esi

; 263  : 	BYTE bHeader;
; 264  : 	if (!Peek(sizeof(bHeader), &bHeader))

  00005	8d 45 ff	 lea	 eax, DWORD PTR _bHeader$[ebp]
  00008	8b f1		 mov	 esi, ecx
  0000a	50		 push	 eax
  0000b	6a 01		 push	 1
  0000d	e8 00 00 00 00	 call	 ?Peek@CNetworkStream@@QAE_NHPAX@Z ; CNetworkStream::Peek
  00012	84 c0		 test	 al, al
  00014	74 27		 je	 SHORT $LN6@AnalyzePac

; 265  : 		return true;
; 266  : 
; 267  : 	if (bHeader!=uHeader)

  00016	0f b6 45 ff	 movzx	 eax, BYTE PTR _bHeader$[ebp]
  0001a	3b 45 08	 cmp	 eax, DWORD PTR _uHeader$[ebp]
  0001d	75 1e		 jne	 SHORT $LN6@AnalyzePac

; 268  : 		return true;
; 269  : 
; 270  : 	if (!Peek(uPacketSize))

  0001f	ff 75 0c	 push	 DWORD PTR _uPacketSize$[ebp]
  00022	8b ce		 mov	 ecx, esi
  00024	e8 00 00 00 00	 call	 ?Peek@CNetworkStream@@QAE_NH@Z ; CNetworkStream::Peek
  00029	84 c0		 test	 al, al
  0002b	74 10		 je	 SHORT $LN6@AnalyzePac

; 272  : 
; 273  : 	return (this->*pfnDispatchPacket)();

  0002d	8b 4d 14	 mov	 ecx, DWORD PTR _pfnDispatchPacket$[ebp+4]
  00030	8d 0c 31	 lea	 ecx, DWORD PTR [ecx+esi]
  00033	ff 55 10	 call	 DWORD PTR _pfnDispatchPacket$[ebp]
  00036	5e		 pop	 esi

; 274  : }

  00037	8b e5		 mov	 esp, ebp
  00039	5d		 pop	 ebp
  0003a	c2 10 00	 ret	 16			; 00000010H
$LN6@AnalyzePac:

; 271  : 		return true;

  0003d	b0 01		 mov	 al, 1
  0003f	5e		 pop	 esi

; 274  : }

  00040	8b e5		 mov	 esp, ebp
  00042	5d		 pop	 ebp
  00043	c2 10 00	 ret	 16			; 00000010H
?__AnalyzePacket@CAccountConnector@@IAE_NIIP81@AE_NXZ@Z ENDP ; CAccountConnector::__AnalyzePacket
_TEXT	ENDS
; Function compile flags: /Ogtp
; File C:\Anka2Project\Anka2Project\Source\Binary\source\UserInterface\AccountConnector.cpp
;	COMDAT ?OnConnectFailure@CAccountConnector@@MAEXXZ
_TEXT	SEGMENT
?OnConnectFailure@CAccountConnector@@MAEXXZ PROC	; CAccountConnector::OnConnectFailure, COMDAT
; _this$ = ecx

; 312  : {

  00000	56		 push	 esi
  00001	8b f1		 mov	 esi, ecx

; 313  : 	if (m_poHandler)

  00003	83 be d0 00 00
	00 00		 cmp	 DWORD PTR [esi+208], 0
  0000a	74 1f		 je	 SHORT $LN2@OnConnectF

; 314  : 		PyCallClassMemberFunc(m_poHandler, "OnConnectFailure", Py_BuildValue("()"));

  0000c	68 00 00 00 00	 push	 OFFSET ??_C@_02HCKGKOFO@?$CI?$CJ@
  00011	ff 15 00 00 00
	00		 call	 DWORD PTR __imp__Py_BuildValue
  00017	50		 push	 eax
  00018	68 00 00 00 00	 push	 OFFSET ??_C@_0BB@JEKGEMCL@OnConnectFailure@
  0001d	ff b6 d0 00 00
	00		 push	 DWORD PTR [esi+208]
  00023	e8 00 00 00 00	 call	 ?PyCallClassMemberFunc@@YA_NPAU_object@@PBD0@Z ; PyCallClassMemberFunc
  00028	83 c4 10	 add	 esp, 16			; 00000010H
$LN2@OnConnectF:

; 315  : 
; 316  : 	__OfflineState_Set();

  0002b	8b ce		 mov	 ecx, esi
  0002d	5e		 pop	 esi
  0002e	e9 00 00 00 00	 jmp	 ?__OfflineState_Set@CAccountConnector@@IAEXXZ ; CAccountConnector::__OfflineState_Set
?OnConnectFailure@CAccountConnector@@MAEXXZ ENDP	; CAccountConnector::OnConnectFailure
_TEXT	ENDS
; Function compile flags: /Ogtp
; File C:\Anka2Project\Anka2Project\Source\Binary\source\UserInterface\AccountConnector.cpp
;	COMDAT ?OnRemoteDisconnect@CAccountConnector@@MAEXXZ
_TEXT	SEGMENT
?OnRemoteDisconnect@CAccountConnector@@MAEXXZ PROC	; CAccountConnector::OnRemoteDisconnect, COMDAT
; _this$ = ecx

; 325  : {

  00000	56		 push	 esi
  00001	8b f1		 mov	 esi, ecx

; 326  : 	if (m_isWaitKey)

  00003	83 be cc 00 00
	00 00		 cmp	 DWORD PTR [esi+204], 0
  0000a	74 2a		 je	 SHORT $LN3@OnRemoteDi

; 327  : 	{
; 328  : 		if (m_poHandler)

  0000c	83 be d0 00 00
	00 00		 cmp	 DWORD PTR [esi+208], 0
  00013	74 21		 je	 SHORT $LN3@OnRemoteDi

; 329  : 		{
; 330  : 			PyCallClassMemberFunc(m_poHandler, "OnExit", Py_BuildValue("()"));

  00015	68 00 00 00 00	 push	 OFFSET ??_C@_02HCKGKOFO@?$CI?$CJ@
  0001a	ff 15 00 00 00
	00		 call	 DWORD PTR __imp__Py_BuildValue
  00020	50		 push	 eax
  00021	68 00 00 00 00	 push	 OFFSET ??_C@_06NAODFICM@OnExit@
  00026	ff b6 d0 00 00
	00		 push	 DWORD PTR [esi+208]
  0002c	e8 00 00 00 00	 call	 ?PyCallClassMemberFunc@@YA_NPAU_object@@PBD0@Z ; PyCallClassMemberFunc
  00031	83 c4 10	 add	 esp, 16			; 00000010H
  00034	5e		 pop	 esi

; 336  : }

  00035	c3		 ret	 0
$LN3@OnRemoteDi:
  00036	5e		 pop	 esi

; 331  : 			return;
; 332  : 		}
; 333  : 	}
; 334  : 
; 335  : 	__OfflineState_Set();

  00037	e9 00 00 00 00	 jmp	 ?__OfflineState_Set@CAccountConnector@@IAEXXZ ; CAccountConnector::__OfflineState_Set
?OnRemoteDisconnect@CAccountConnector@@MAEXXZ ENDP	; CAccountConnector::OnRemoteDisconnect
_TEXT	ENDS
END
