; Listing generated by Microsoft (R) Optimizing Compiler Version 19.44.35219.0 

	TITLE	c:\anka2project\anka2project\source\binary\vs_files\userinterface\release\affectflagcontainer.obj
	.686P
	.XMM
	include listing.inc
	.model	flat

INCLUDELIB OLDNAMES

PUBLIC	??_C@_0CP@PLCKJEOM@CAffectFlagContainer?3?3Set?$CIuPos?$DN@ ; `string'
PUBLIC	??_C@_0CH@FJPFCGKP@CAffectFlagContainer?3?3IsSet?$CIuPo@ ; `string'
EXTRN	?TraceError@@YAXPBDZZ:PROC			; TraceError
;	COMDAT ??_C@_0CH@FJPFCGKP@CAffectFlagContainer?3?3IsSet?$CIuPo@
CONST	SEGMENT
??_C@_0CH@FJPFCGKP@CAffectFlagContainer?3?3IsSet?$CIuPo@ DB 'CAffectFlagC'
	DB	'ontainer::IsSet(uPos=%d>%d', 00H		; `string'
CONST	ENDS
;	COMDAT ??_C@_0CP@PLCKJEOM@CAffectFlagContainer?3?3Set?$CIuPos?$DN@
CONST	SEGMENT
??_C@_0CP@PLCKJEOM@CAffectFlagContainer?3?3Set?$CIuPos?$DN@ DB 'CAffectFl'
	DB	'agContainer::Set(uPos=%d>%d, isSet=%d', 00H	; `string'
PUBLIC	?IsSet@CAffectFlagContainer@@QBE_NI@Z		; CAffectFlagContainer::IsSet
PUBLIC	?Set@CAffectFlagContainer@@QAEXI_N@Z		; CAffectFlagContainer::Set
PUBLIC	?ConvertToPosition@CAffectFlagContainer@@QBEXPAI0@Z ; CAffectFlagContainer::ConvertToPosition
PUBLIC	?CopyData@CAffectFlagContainer@@QAEXIIPBX@Z	; CAffectFlagContainer::CopyData
PUBLIC	?CopyInstance@CAffectFlagContainer@@QAEXABV1@@Z	; CAffectFlagContainer::CopyInstance
PUBLIC	?Clear@CAffectFlagContainer@@QAEXXZ		; CAffectFlagContainer::Clear
PUBLIC	??1CAffectFlagContainer@@QAE@XZ			; CAffectFlagContainer::~CAffectFlagContainer
PUBLIC	??0CAffectFlagContainer@@QAE@XZ			; CAffectFlagContainer::CAffectFlagContainer
END
