; Listing generated by Microsoft (R) Optimizing Compiler Version 19.44.35219.0 

	TITLE	c:\anka2project\anka2project\source\binary\vs_files\userinterface\release\cameraprocedure.obj
	.686P
	.XMM
	include listing.inc
	.model	flat

INCLUDELIB OLDNAMES

PUBLIC	??_R2?$RangeTester@UCameraCollisionChecker@@@@8	; RangeTester<CameraCollisionChecker>::`RTTI Base Class Array'
PUBLIC	??_R1A@?0A@EA@?$RangeTester@UCameraCollisionChecker@@@@8 ; RangeTester<CameraCollisionChecker>::`RTTI Base Class Descriptor at (0,-1,0,64)'
PUBLIC	??_R3?$RangeTester@UCameraCollisionChecker@@@@8	; RangeTester<CameraCollisionChecker>::`RTTI Class Hierarchy Descriptor'
PUBLIC	??_R0?AU?$RangeTester@UCameraCollisionChecker@@@@@8 ; RangeTester<CameraCollisionChecker> `RTTI Type Descriptor'
PUBLIC	??_R4?$RangeTester@UCameraCollisionChecker@@@@6B@ ; RangeTester<CameraCollisionChecker>::`RTTI Complete Object Locator'
PUBLIC	??_C@_0BA@FOIKENOD@vector?5too?5long@		; `string'
PUBLIC	??_R0?AVSpherePackCallback@@@8			; SpherePackCallback `RTTI Type Descriptor'
PUBLIC	??_R1A@?0A@EA@SpherePackCallback@@8		; SpherePackCallback::`RTTI Base Class Descriptor at (0,-1,0,64)'
PUBLIC	??_R2SpherePackCallback@@8			; SpherePackCallback::`RTTI Base Class Array'
PUBLIC	??_R3SpherePackCallback@@8			; SpherePackCallback::`RTTI Class Hierarchy Descriptor'
PUBLIC	??_R4SpherePackCallback@@6B@			; SpherePackCallback::`RTTI Complete Object Locator'
PUBLIC	??_7SpherePackCallback@@6B@			; SpherePackCallback::`vftable'
PUBLIC	??_7?$RangeTester@UCameraCollisionChecker@@@@6B@ ; RangeTester<CameraCollisionChecker>::`vftable'
PUBLIC	?ms_singleton@?$CSingleton@VCCullingManager@@@@0PAVCCullingManager@@A ; CSingleton<CCullingManager>::ms_singleton
PUBLIC	?ms_singleton@?$CSingleton@VCPythonBackground@@@@0PAVCPythonBackground@@A ; CSingleton<CPythonBackground>::ms_singleton
PUBLIC	?CAMERA_MAX_DISTANCE@CCamera@@0MA		; CCamera::CAMERA_MAX_DISTANCE
PUBLIC	?CAMERA_MIN_DISTANCE@CCamera@@0MA		; CCamera::CAMERA_MIN_DISTANCE
EXTRN	?RangeTest@SpherePackFactory@@QAEXABVVector3d@@MPAVSpherePackCallback@@@Z:PROC ; SpherePackFactory::RangeTest
EXTRN	?SetTargetHeight@CCamera@@QAEXM@Z:PROC		; CCamera::SetTargetHeight
EXTRN	?SetDistance@CCamera@@QAEXM@Z:PROC		; CCamera::SetDistance
EXTRN	?fMAX@@YAMMM@Z:PROC				; fMAX
EXTRN	?RotateEyeAroundTarget@CCamera@@QAEXMM@Z:PROC	; CCamera::RotateEyeAroundTarget
EXTRN	?fMIN@@YAMMM@Z:PROC				; fMIN
EXTRN	?GetPosition@CGraphicObjectInstance@@QBEABUD3DXVECTOR3@@XZ:PROC ; CGraphicObjectInstance::GetPosition
EXTRN	?CollisionDynamicSphere@CGraphicObjectInstance@@QBE_NABUCDynamicSphereInstance@@@Z:PROC ; CGraphicObjectInstance::CollisionDynamicSphere
EXTRN	?SetEye@CCamera@@QAEXABUD3DXVECTOR3@@@Z:PROC	; CCamera::SetEye
EXTRN	?GetHeight@CMapManager@@QAEMMM@Z:PROC		; CMapManager::GetHeight
EXTRN	?SetCameraState@CCamera@@QAEXW4_eCameraState_@@@Z:PROC ; CCamera::SetCameraState
;	COMDAT ?ms_singleton@?$CSingleton@VCCullingManager@@@@0PAVCCullingManager@@A
_BSS	SEGMENT
?ms_singleton@?$CSingleton@VCCullingManager@@@@0PAVCCullingManager@@A DD 01H DUP (?) ; CSingleton<CCullingManager>::ms_singleton
_BSS	ENDS
;	COMDAT ?ms_singleton@?$CSingleton@VCPythonBackground@@@@0PAVCPythonBackground@@A
_BSS	SEGMENT
?ms_singleton@?$CSingleton@VCPythonBackground@@@@0PAVCPythonBackground@@A DD 01H DUP (?) ; CSingleton<CPythonBackground>::ms_singleton
_BSS	ENDS
?CAMERA_MAX_DISTANCE@CCamera@@0MA DD 0451c4000r	; 2500	; CCamera::CAMERA_MAX_DISTANCE
_DATA	ENDS
;	COMDAT ??_7?$RangeTester@UCameraCollisionChecker@@@@6B@
CONST	SEGMENT
??_7?$RangeTester@UCameraCollisionChecker@@@@6B@ DD FLAT:??_R4?$RangeTester@UCameraCollisionChecker@@@@6B@ ; RangeTester<CameraCollisionChecker>::`vftable'
	DD	FLAT:??_E?$RangeTester@UCameraCollisionChecker@@@@UAEPAXI@Z
	DD	FLAT:?VisibilityCallback@?$RangeTester@UCameraCollisionChecker@@@@UAEXABVFrustum@@PAVSpherePack@@W4ViewState@@@Z
	DD	FLAT:?RayTraceCallback@?$RangeTester@UCameraCollisionChecker@@@@UAEXABVVector3d@@0M0PAVSpherePack@@@Z
	DD	FLAT:?RangeTestCallback@?$RangeTester@UCameraCollisionChecker@@@@UAEXABVVector3d@@MPAVSpherePack@@W4ViewState@@@Z
	DD	FLAT:?PointTest2dCallback@?$RangeTester@UCameraCollisionChecker@@@@UAEXABVVector3d@@PAVSpherePack@@W4ViewState@@@Z
CONST	ENDS
;	COMDAT ??_7SpherePackCallback@@6B@
CONST	SEGMENT
??_7SpherePackCallback@@6B@ DD FLAT:??_R4SpherePackCallback@@6B@ ; SpherePackCallback::`vftable'
	DD	FLAT:??_ESpherePackCallback@@UAEPAXI@Z
	DD	FLAT:?VisibilityCallback@SpherePackCallback@@UAEXABVFrustum@@PAVSpherePack@@W4ViewState@@@Z
	DD	FLAT:?RayTraceCallback@SpherePackCallback@@UAEXABVVector3d@@0M0PAVSpherePack@@@Z
	DD	FLAT:?RangeTestCallback@SpherePackCallback@@UAEXABVVector3d@@MPAVSpherePack@@W4ViewState@@@Z
	DD	FLAT:?PointTest2dCallback@SpherePackCallback@@UAEXABVVector3d@@PAVSpherePack@@W4ViewState@@@Z
CONST	ENDS
;	COMDAT ??_R4SpherePackCallback@@6B@
rdata$r	SEGMENT
??_R4SpherePackCallback@@6B@ DD 00H			; SpherePackCallback::`RTTI Complete Object Locator'
	DD	00H
	DD	00H
	DD	FLAT:??_R0?AVSpherePackCallback@@@8
	DD	FLAT:??_R3SpherePackCallback@@8
rdata$r	ENDS
;	COMDAT ??_R3SpherePackCallback@@8
rdata$r	SEGMENT
??_R3SpherePackCallback@@8 DD 00H			; SpherePackCallback::`RTTI Class Hierarchy Descriptor'
	DD	00H
	DD	01H
	DD	FLAT:??_R2SpherePackCallback@@8
rdata$r	ENDS
;	COMDAT ??_R2SpherePackCallback@@8
rdata$r	SEGMENT
??_R2SpherePackCallback@@8 DD FLAT:??_R1A@?0A@EA@SpherePackCallback@@8 ; SpherePackCallback::`RTTI Base Class Array'
rdata$r	ENDS
;	COMDAT ??_R1A@?0A@EA@SpherePackCallback@@8
rdata$r	SEGMENT
??_R1A@?0A@EA@SpherePackCallback@@8 DD FLAT:??_R0?AVSpherePackCallback@@@8 ; SpherePackCallback::`RTTI Base Class Descriptor at (0,-1,0,64)'
	DD	00H
	DD	00H
	DD	0ffffffffH
	DD	00H
	DD	040H
	DD	FLAT:??_R3SpherePackCallback@@8
rdata$r	ENDS
;	COMDAT ??_R0?AVSpherePackCallback@@@8
data$rs	SEGMENT
??_R0?AVSpherePackCallback@@@8 DD FLAT:??_7type_info@@6B@ ; SpherePackCallback `RTTI Type Descriptor'
	DD	00H
	DB	'.?AVSpherePackCallback@@', 00H
data$rs	ENDS
;	COMDAT ??_C@_0BA@FOIKENOD@vector?5too?5long@
CONST	SEGMENT
??_C@_0BA@FOIKENOD@vector?5too?5long@ DB 'vector too long', 00H ; `string'
CONST	ENDS
;	COMDAT ??_R4?$RangeTester@UCameraCollisionChecker@@@@6B@
rdata$r	SEGMENT
??_R4?$RangeTester@UCameraCollisionChecker@@@@6B@ DD 00H ; RangeTester<CameraCollisionChecker>::`RTTI Complete Object Locator'
	DD	00H
	DD	00H
	DD	FLAT:??_R0?AU?$RangeTester@UCameraCollisionChecker@@@@@8
	DD	FLAT:??_R3?$RangeTester@UCameraCollisionChecker@@@@8
rdata$r	ENDS
;	COMDAT ??_R0?AU?$RangeTester@UCameraCollisionChecker@@@@@8
data$rs	SEGMENT
??_R0?AU?$RangeTester@UCameraCollisionChecker@@@@@8 DD FLAT:??_7type_info@@6B@ ; RangeTester<CameraCollisionChecker> `RTTI Type Descriptor'
	DD	00H
	DB	'.?AU?$RangeTester@UCameraCollisionChecker@@@@', 00H
data$rs	ENDS
;	COMDAT ??_R3?$RangeTester@UCameraCollisionChecker@@@@8
rdata$r	SEGMENT
??_R3?$RangeTester@UCameraCollisionChecker@@@@8 DD 00H	; RangeTester<CameraCollisionChecker>::`RTTI Class Hierarchy Descriptor'
	DD	00H
	DD	02H
	DD	FLAT:??_R2?$RangeTester@UCameraCollisionChecker@@@@8
rdata$r	ENDS
;	COMDAT ??_R1A@?0A@EA@?$RangeTester@UCameraCollisionChecker@@@@8
rdata$r	SEGMENT
??_R1A@?0A@EA@?$RangeTester@UCameraCollisionChecker@@@@8 DD FLAT:??_R0?AU?$RangeTester@UCameraCollisionChecker@@@@@8 ; RangeTester<CameraCollisionChecker>::`RTTI Base Class Descriptor at (0,-1,0,64)'
	DD	01H
	DD	00H
	DD	0ffffffffH
	DD	00H
	DD	040H
	DD	FLAT:??_R3?$RangeTester@UCameraCollisionChecker@@@@8
rdata$r	ENDS
;	COMDAT ??_R2?$RangeTester@UCameraCollisionChecker@@@@8
rdata$r	SEGMENT
??_R2?$RangeTester@UCameraCollisionChecker@@@@8 DD FLAT:??_R1A@?0A@EA@?$RangeTester@UCameraCollisionChecker@@@@8 ; RangeTester<CameraCollisionChecker>::`RTTI Base Class Array'
	DD	FLAT:??_R1A@?0A@EA@SpherePackCallback@@8
	ORG $+272
?CAMERA_MIN_DISTANCE@CCamera@@0MA DD 043480000r	; 200	; CCamera::CAMERA_MIN_DISTANCE
PUBLIC	??0D3DXVECTOR3@@QAE@XZ				; D3DXVECTOR3::D3DXVECTOR3
PUBLIC	??GD3DXVECTOR3@@QBE?AU0@ABU0@@Z			; D3DXVECTOR3::operator-
PUBLIC	??0D3DXVECTOR3@@QAE@MMM@Z			; D3DXVECTOR3::D3DXVECTOR3
PUBLIC	??D@YA?AUD3DXVECTOR3@@MABU0@@Z			; operator*
PUBLIC	_floorf
PUBLIC	??HD3DXVECTOR3@@QBE?AU0@ABU0@@Z			; D3DXVECTOR3::operator+
PUBLIC	?D3DXVec3Length@@YAMPBUD3DXVECTOR3@@@Z		; D3DXVec3Length
PUBLIC	_sqrtf
PUBLIC	??0Vector3d@@QAE@XZ				; Vector3d::Vector3d
PUBLIC	?Set@Vector3d@@QAEXMMM@Z			; Vector3d::Set
PUBLIC	?D3DXVec3Cross@@YAPAUD3DXVECTOR3@@PAU1@PBU1@1@Z	; D3DXVec3Cross
PUBLIC	?D3DXVec3Dot@@YAMPBUD3DXVECTOR3@@0@Z		; D3DXVec3Dot
PUBLIC	??XD3DXVECTOR3@@QAEAAU0@M@Z			; D3DXVECTOR3::operator*=
PUBLIC	?fabs@@YAMM@Z					; fabs
PUBLIC	_fabsf
PUBLIC	?GetUserData@SpherePack@@QBEPAXXZ		; SpherePack::GetUserData
PUBLIC	??1SpherePackCallback@@UAE@XZ			; SpherePackCallback::~SpherePackCallback
PUBLIC	?PointTest2dCallback@SpherePackCallback@@UAEXABVVector3d@@PAVSpherePack@@W4ViewState@@@Z ; SpherePackCallback::PointTest2dCallback
PUBLIC	?RangeTestCallback@SpherePackCallback@@UAEXABVVector3d@@MPAVSpherePack@@W4ViewState@@@Z ; SpherePackCallback::RangeTestCallback
PUBLIC	?RayTraceCallback@SpherePackCallback@@UAEXABVVector3d@@0M0PAVSpherePack@@@Z ; SpherePackCallback::RayTraceCallback
PUBLIC	?VisibilityCallback@SpherePackCallback@@UAEXABVFrustum@@PAVSpherePack@@W4ViewState@@@Z ; SpherePackCallback::VisibilityCallback
PUBLIC	??_GSpherePackCallback@@UAEPAXI@Z		; SpherePackCallback::`scalar deleting destructor'
PUBLIC	??0SpherePackCallback@@QAE@XZ			; SpherePackCallback::SpherePackCallback
PUBLIC	??$construct_at@UD3DXVECTOR3@@U1@@std@@YAPAUD3DXVECTOR3@@QAU1@$$QAU1@@Z ; std::construct_at<D3DXVECTOR3,D3DXVECTOR3>
PUBLIC	?_Get_first@?$_Compressed_pair@V?$allocator@UD3DXVECTOR3@@@std@@V?$_Vector_val@U?$_Simple_types@UD3DXVECTOR3@@@std@@@2@$00@std@@QBEABV?$allocator@UD3DXVECTOR3@@@2@XZ ; std::_Compressed_pair<std::allocator<D3DXVECTOR3>,std::_Vector_val<std::_Simple_types<D3DXVECTOR3> >,1>::_Get_first
PUBLIC	??$_Get_size_of_n@$0M@@std@@YAII@Z		; std::_Get_size_of_n<12>
PUBLIC	??$construct@UD3DXVECTOR3@@U1@@?$_Default_allocator_traits@V?$allocator@UD3DXVECTOR3@@@std@@@std@@SAXAAV?$allocator@UD3DXVECTOR3@@@1@QAUD3DXVECTOR3@@$$QAU3@@Z ; std::_Default_allocator_traits<std::allocator<D3DXVECTOR3> >::construct<D3DXVECTOR3,D3DXVECTOR3>
PUBLIC	??$forward@UD3DXVECTOR3@@@std@@YA$$QAUD3DXVECTOR3@@AAU1@@Z ; std::forward<D3DXVECTOR3>
PUBLIC	??$_Copy_memmove_tail@PAUD3DXVECTOR3@@@std@@YAPAUD3DXVECTOR3@@QBDQAU1@II@Z ; std::_Copy_memmove_tail<D3DXVECTOR3 *>
PUBLIC	??$move@AAPAUD3DXVECTOR3@@@std@@YA$$QAPAUD3DXVECTOR3@@AAPAU1@@Z ; std::move<D3DXVECTOR3 * &>
PUBLIC	??$to_address@UD3DXVECTOR3@@@std@@YAPAUD3DXVECTOR3@@QAU1@@Z ; std::to_address<D3DXVECTOR3>
PUBLIC	?allocate@?$allocator@UD3DXVECTOR3@@@std@@QAEPAUD3DXVECTOR3@@I@Z ; std::allocator<D3DXVECTOR3>::allocate
PUBLIC	?capacity@?$vector@UD3DXVECTOR3@@V?$allocator@UD3DXVECTOR3@@@std@@@std@@QBEIXZ ; std::vector<D3DXVECTOR3,std::allocator<D3DXVECTOR3> >::capacity
PUBLIC	?_Getal@?$vector@UD3DXVECTOR3@@V?$allocator@UD3DXVECTOR3@@@std@@@std@@ABEABV?$allocator@UD3DXVECTOR3@@@2@XZ ; std::vector<D3DXVECTOR3,std::allocator<D3DXVECTOR3> >::_Getal
PUBLIC	?max_size@?$_Default_allocator_traits@V?$allocator@UD3DXVECTOR3@@@std@@@std@@SAIABV?$allocator@UD3DXVECTOR3@@@2@@Z ; std::_Default_allocator_traits<std::allocator<D3DXVECTOR3> >::max_size
PUBLIC	??0?$_Uninitialized_backout_al@V?$allocator@UD3DXVECTOR3@@@std@@@std@@QAE@PAUD3DXVECTOR3@@AAV?$allocator@UD3DXVECTOR3@@@1@@Z ; std::_Uninitialized_backout_al<std::allocator<D3DXVECTOR3> >::_Uninitialized_backout_al<std::allocator<D3DXVECTOR3> >
PUBLIC	??1?$_Uninitialized_backout_al@V?$allocator@UD3DXVECTOR3@@@std@@@std@@QAE@XZ ; std::_Uninitialized_backout_al<std::allocator<D3DXVECTOR3> >::~_Uninitialized_backout_al<std::allocator<D3DXVECTOR3> >
PUBLIC	?_Release@?$_Uninitialized_backout_al@V?$allocator@UD3DXVECTOR3@@@std@@@std@@QAEPAUD3DXVECTOR3@@XZ ; std::_Uninitialized_backout_al<std::allocator<D3DXVECTOR3> >::_Release
PUBLIC	??$_Emplace_back@UD3DXVECTOR3@@@?$_Uninitialized_backout_al@V?$allocator@UD3DXVECTOR3@@@std@@@std@@QAEX$$QAUD3DXVECTOR3@@@Z ; std::_Uninitialized_backout_al<std::allocator<D3DXVECTOR3> >::_Emplace_back<D3DXVECTOR3>
PUBLIC	??$_To_address@PAUD3DXVECTOR3@@@std@@YA?A_PABQAUD3DXVECTOR3@@@Z ; std::_To_address<D3DXVECTOR3 *>
PUBLIC	??$_Copy_memmove@PAUD3DXVECTOR3@@PAU1@@std@@YAPAUD3DXVECTOR3@@PAU1@00@Z ; std::_Copy_memmove<D3DXVECTOR3 *,D3DXVECTOR3 *>
PUBLIC	??$move@AAUD3DXVECTOR3@@@std@@YA$$QAUD3DXVECTOR3@@AAU1@@Z ; std::move<D3DXVECTOR3 &>
PUBLIC	??$construct_at@UD3DXVECTOR3@@ABU1@@std@@YAPAUD3DXVECTOR3@@QAU1@ABU1@@Z ; std::construct_at<D3DXVECTOR3,D3DXVECTOR3 const &>
PUBLIC	??$addressof@UD3DXVECTOR3@@@std@@YAPAUD3DXVECTOR3@@AAU1@@Z ; std::addressof<D3DXVECTOR3>
PUBLIC	?max_size@?$vector@UD3DXVECTOR3@@V?$allocator@UD3DXVECTOR3@@@std@@@std@@QBEIXZ ; std::vector<D3DXVECTOR3,std::allocator<D3DXVECTOR3> >::max_size
PUBLIC	?_Calculate_growth@?$vector@UD3DXVECTOR3@@V?$allocator@UD3DXVECTOR3@@@std@@@std@@ABEII@Z ; std::vector<D3DXVECTOR3,std::allocator<D3DXVECTOR3> >::_Calculate_growth
PUBLIC	?_Change_array@?$vector@UD3DXVECTOR3@@V?$allocator@UD3DXVECTOR3@@@std@@@std@@AAEXQAUD3DXVECTOR3@@II@Z ; std::vector<D3DXVECTOR3,std::allocator<D3DXVECTOR3> >::_Change_array
PUBLIC	?_Xlength@?$vector@UD3DXVECTOR3@@V?$allocator@UD3DXVECTOR3@@@std@@@std@@CAXXZ ; std::vector<D3DXVECTOR3,std::allocator<D3DXVECTOR3> >::_Xlength
PUBLIC	?_Orphan_range@?$vector@UD3DXVECTOR3@@V?$allocator@UD3DXVECTOR3@@@std@@@std@@ABEXPAUD3DXVECTOR3@@0@Z ; std::vector<D3DXVECTOR3,std::allocator<D3DXVECTOR3> >::_Orphan_range
PUBLIC	??1_Reallocation_guard@?$vector@UD3DXVECTOR3@@V?$allocator@UD3DXVECTOR3@@@std@@@std@@QAE@XZ ; std::vector<D3DXVECTOR3,std::allocator<D3DXVECTOR3> >::_Reallocation_guard::~_Reallocation_guard
PUBLIC	?_Get_first@?$_Compressed_pair@V?$allocator@UD3DXVECTOR3@@@std@@V?$_Vector_val@U?$_Simple_types@UD3DXVECTOR3@@@std@@@2@$00@std@@QAEAAV?$allocator@UD3DXVECTOR3@@@2@XZ ; std::_Compressed_pair<std::allocator<D3DXVECTOR3>,std::_Vector_val<std::_Simple_types<D3DXVECTOR3> >,1>::_Get_first
PUBLIC	??$_Uninitialized_move@PAUD3DXVECTOR3@@V?$allocator@UD3DXVECTOR3@@@std@@@std@@YAPAUD3DXVECTOR3@@QAU1@0PAU1@AAV?$allocator@UD3DXVECTOR3@@@0@@Z ; std::_Uninitialized_move<D3DXVECTOR3 *,std::allocator<D3DXVECTOR3> >
PUBLIC	??$_Get_unwrapped@ABQAUD3DXVECTOR3@@@std@@YA?A_TABQAUD3DXVECTOR3@@@Z ; std::_Get_unwrapped<D3DXVECTOR3 * const &>
PUBLIC	??$construct@UD3DXVECTOR3@@ABU1@@?$_Default_allocator_traits@V?$allocator@UD3DXVECTOR3@@@std@@@std@@SAXAAV?$allocator@UD3DXVECTOR3@@@1@QAUD3DXVECTOR3@@ABU3@@Z ; std::_Default_allocator_traits<std::allocator<D3DXVECTOR3> >::construct<D3DXVECTOR3,D3DXVECTOR3 const &>
PUBLIC	??$_Unfancy@UD3DXVECTOR3@@@std@@YAPAUD3DXVECTOR3@@PAU1@@Z ; std::_Unfancy<D3DXVECTOR3>
PUBLIC	??$_Allocate_at_least_helper@V?$allocator@UD3DXVECTOR3@@@std@@@std@@YAPAUD3DXVECTOR3@@AAV?$allocator@UD3DXVECTOR3@@@0@AAI@Z ; std::_Allocate_at_least_helper<std::allocator<D3DXVECTOR3> >
PUBLIC	??$_Construct_in_place@UD3DXVECTOR3@@ABU1@@std@@YAXAAUD3DXVECTOR3@@ABU1@@Z ; std::_Construct_in_place<D3DXVECTOR3,D3DXVECTOR3 const &>
PUBLIC	?deallocate@?$allocator@UD3DXVECTOR3@@@std@@QAEXQAUD3DXVECTOR3@@I@Z ; std::allocator<D3DXVECTOR3>::deallocate
PUBLIC	?_Getal@?$vector@UD3DXVECTOR3@@V?$allocator@UD3DXVECTOR3@@@std@@@std@@AAEAAV?$allocator@UD3DXVECTOR3@@@2@XZ ; std::vector<D3DXVECTOR3,std::allocator<D3DXVECTOR3> >::_Getal
PUBLIC	??$_Destroy_range@V?$allocator@UD3DXVECTOR3@@@std@@@std@@YAXPAUD3DXVECTOR3@@QAU1@AAV?$allocator@UD3DXVECTOR3@@@0@@Z ; std::_Destroy_range<std::allocator<D3DXVECTOR3> >
PUBLIC	??$_Emplace_reallocate@ABUD3DXVECTOR3@@@?$vector@UD3DXVECTOR3@@V?$allocator@UD3DXVECTOR3@@@std@@@std@@AAEPAUD3DXVECTOR3@@QAU2@ABU2@@Z ; std::vector<D3DXVECTOR3,std::allocator<D3DXVECTOR3> >::_Emplace_reallocate<D3DXVECTOR3 const &>
PUBLIC	??$_Emplace_back_with_unused_capacity@ABUD3DXVECTOR3@@@?$vector@UD3DXVECTOR3@@V?$allocator@UD3DXVECTOR3@@@std@@@std@@AAEAAUD3DXVECTOR3@@ABU2@@Z ; std::vector<D3DXVECTOR3,std::allocator<D3DXVECTOR3> >::_Emplace_back_with_unused_capacity<D3DXVECTOR3 const &>
PUBLIC	??$forward@ABUD3DXVECTOR3@@@std@@YAABUD3DXVECTOR3@@ABU1@@Z ; std::forward<D3DXVECTOR3 const &>
PUBLIC	??_G?$RangeTester@UCameraCollisionChecker@@@@UAEPAXI@Z ; RangeTester<CameraCollisionChecker>::`scalar deleting destructor'
PUBLIC	?_Tidy@?$vector@UD3DXVECTOR3@@V?$allocator@UD3DXVECTOR3@@@std@@@std@@AAEXXZ ; std::vector<D3DXVECTOR3,std::allocator<D3DXVECTOR3> >::_Tidy
PUBLIC	??1?$RangeTester@UCameraCollisionChecker@@@@UAE@XZ ; RangeTester<CameraCollisionChecker>::~RangeTester<CameraCollisionChecker>
PUBLIC	?RayTraceCallback@?$RangeTester@UCameraCollisionChecker@@@@UAEXABVVector3d@@0M0PAVSpherePack@@@Z ; RangeTester<CameraCollisionChecker>::RayTraceCallback
PUBLIC	?VisibilityCallback@?$RangeTester@UCameraCollisionChecker@@@@UAEXABVFrustum@@PAVSpherePack@@W4ViewState@@@Z ; RangeTester<CameraCollisionChecker>::VisibilityCallback
PUBLIC	?RangeTestCallback@?$RangeTester@UCameraCollisionChecker@@@@UAEXABVVector3d@@MPAVSpherePack@@W4ViewState@@@Z ; RangeTester<CameraCollisionChecker>::RangeTestCallback
PUBLIC	?PointTest2dCallback@?$RangeTester@UCameraCollisionChecker@@@@UAEXABVVector3d@@PAVSpherePack@@W4ViewState@@@Z ; RangeTester<CameraCollisionChecker>::PointTest2dCallback
PUBLIC	??$_Emplace_one_at_back@ABUD3DXVECTOR3@@@?$vector@UD3DXVECTOR3@@V?$allocator@UD3DXVECTOR3@@@std@@@std@@AAEAAUD3DXVECTOR3@@ABU2@@Z ; std::vector<D3DXVECTOR3,std::allocator<D3DXVECTOR3> >::_Emplace_one_at_back<D3DXVECTOR3 const &>
PUBLIC	?Instance@?$CSingleton@VCCullingManager@@@@SAAAVCCullingManager@@XZ ; CSingleton<CCullingManager>::Instance
PUBLIC	??1?$vector@UD3DXVECTOR3@@V?$allocator@UD3DXVECTOR3@@@std@@@std@@QAE@XZ ; std::vector<D3DXVECTOR3,std::allocator<D3DXVECTOR3> >::~vector<D3DXVECTOR3,std::allocator<D3DXVECTOR3> >
PUBLIC	?push_back@?$vector@UD3DXVECTOR3@@V?$allocator@UD3DXVECTOR3@@@std@@@std@@QAEXABUD3DXVECTOR3@@@Z ; std::vector<D3DXVECTOR3,std::allocator<D3DXVECTOR3> >::push_back
PUBLIC	?Instance@?$CSingleton@VCPythonBackground@@@@SAAAVCPythonBackground@@XZ ; CSingleton<CPythonBackground>::Instance
PUBLIC	?Update@CCamera@@QAEXXZ				; CCamera::Update
PUBLIC	??0CDynamicSphereInstance@@QAE@XZ		; CDynamicSphereInstance::CDynamicSphereInstance
PUBLIC	??RCameraCollisionChecker@@QAEXPAVCGraphicObjectInstance@@@Z ; CameraCollisionChecker::operator()
PUBLIC	?ProcessTerrainCollision@CCamera@@AAEXXZ	; CCamera::ProcessTerrainCollision
PUBLIC	?GetDistance@CCamera@@QBEMXZ			; CCamera::GetDistance
EXTRN	??_ESpherePackCallback@@UAEPAXI@Z:PROC		; SpherePackCallback::`vector deleting destructor'
EXTRN	??_E?$RangeTester@UCameraCollisionChecker@@@@UAEPAXI@Z:PROC ; RangeTester<CameraCollisionChecker>::`vector deleting destructor'
END
