; Listing generated by Microsoft (R) Optimizing Compiler Version 19.44.35219.0 

	TITLE	c:\anka2project\anka2project\source\binary\vs_files\userinterface\release\guildmarkuploader.obj
	.686P
	.XMM
	include listing.inc
	.model	flat

INCLUDELIB OLDNAMES

PUBLIC	??_C@_02JDPG@rb@				; `string'
PUBLIC	??_R2CGuildMarkUploader@@8			; CGuildMarkUploader::`RTTI Base Class Array'
PUBLIC	??_R2?$CSingleton@VCGuildMarkUploader@@@@8	; CSingleton<CGuildMarkUploader>::`RTTI Base Class Array'
PUBLIC	??_R1HI@?0A@EA@?$CSingleton@VCGuildMarkUploader@@@@8 ; CSingleton<CGuildMarkUploader>::`RTTI Base Class Descriptor at (120,-1,0,64)'
PUBLIC	??_R1A@?0A@EA@CGuildMarkUploader@@8		; CGuildMarkUploader::`RTTI Base Class Descriptor at (0,-1,0,64)'
PUBLIC	??_R1A@?0A@EA@?$CSingleton@VCGuildMarkUploader@@@@8 ; CSingleton<CGuildMarkUploader>::`RTTI Base Class Descriptor at (0,-1,0,64)'
PUBLIC	??_R3?$CSingleton@VCGuildMarkUploader@@@@8	; CSingleton<CGuildMarkUploader>::`RTTI Class Hierarchy Descriptor'
PUBLIC	??_R0?AV?$CSingleton@VCGuildMarkUploader@@@@@8	; CSingleton<CGuildMarkUploader> `RTTI Type Descriptor'
PUBLIC	??_R3CGuildMarkUploader@@8			; CGuildMarkUploader::`RTTI Class Hierarchy Descriptor'
PUBLIC	??_R0?AVCGuildMarkUploader@@@8			; CGuildMarkUploader `RTTI Type Descriptor'
PUBLIC	??_R4?$CSingleton@VCGuildMarkUploader@@@@6B@	; CSingleton<CGuildMarkUploader>::`RTTI Complete Object Locator'
PUBLIC	??_R4CGuildMarkUploader@@6B?$CSingleton@VCGuildMarkUploader@@@@@ ; CGuildMarkUploader::`RTTI Complete Object Locator'
PUBLIC	??_R4CGuildMarkUploader@@6BCNetworkStream@@@	; CGuildMarkUploader::`RTTI Complete Object Locator'
PUBLIC	?ms_singleton@?$CSingleton@VCGuildMarkUploader@@@@0PAVCGuildMarkUploader@@A ; CSingleton<CGuildMarkUploader>::ms_singleton
PUBLIC	??_7?$CSingleton@VCGuildMarkUploader@@@@6B@	; CSingleton<CGuildMarkUploader>::`vftable'
PUBLIC	??_7CGuildMarkUploader@@6B?$CSingleton@VCGuildMarkUploader@@@@@ ; CGuildMarkUploader::`vftable'
PUBLIC	??_7CGuildMarkUploader@@6BCNetworkStream@@@	; CGuildMarkUploader::`vftable'
EXTRN	?__SendInternalBuffer@CNetworkStream@@IAE_NXZ:PROC ; CNetworkStream::__SendInternalBuffer
EXTRN	_fread:PROC
EXTRN	_ftell:PROC
EXTRN	_fseek:PROC
EXTRN	__imp__ilShutDown@0:PROC
EXTRN	__imp__ilDeleteImages@8:PROC
EXTRN	__imp__ilCopyPixels@36:PROC
EXTRN	__imp__ilConvertImage@8:PROC
EXTRN	__imp__ilGetInteger@4:PROC
EXTRN	__imp__ilLoad@8:PROC
EXTRN	__imp__ilOriginFunc@4:PROC
EXTRN	__imp__ilEnable@4:PROC
EXTRN	__imp__ilBindImage@4:PROC
EXTRN	__imp__ilGenImages@8:PROC
;	COMDAT ?ms_singleton@?$CSingleton@VCGuildMarkUploader@@@@0PAVCGuildMarkUploader@@A
_BSS	SEGMENT
?ms_singleton@?$CSingleton@VCGuildMarkUploader@@@@0PAVCGuildMarkUploader@@A DD 01H DUP (?) ; CSingleton<CGuildMarkUploader>::ms_singleton
_BSS	ENDS
;	COMDAT ??_7CGuildMarkUploader@@6BCNetworkStream@@@
CONST	SEGMENT
??_7CGuildMarkUploader@@6BCNetworkStream@@@ DD FLAT:??_R4CGuildMarkUploader@@6BCNetworkStream@@@ ; CGuildMarkUploader::`vftable'
	DD	FLAT:??_ECGuildMarkUploader@@UAEPAXI@Z
	DD	FLAT:?OnConnectSuccess@CGuildMarkUploader@@EAEXXZ
	DD	FLAT:?OnConnectFailure@CGuildMarkUploader@@EAEXXZ
	DD	FLAT:?OnRemoteDisconnect@CGuildMarkUploader@@EAEXXZ
	DD	FLAT:?OnDisconnect@CGuildMarkUploader@@EAEXXZ
	DD	FLAT:?OnProcess@CNetworkStream@@MAE_NXZ
CONST	ENDS
;	COMDAT ??_7CGuildMarkUploader@@6B?$CSingleton@VCGuildMarkUploader@@@@@
CONST	SEGMENT
??_7CGuildMarkUploader@@6B?$CSingleton@VCGuildMarkUploader@@@@@ DD FLAT:??_R4CGuildMarkUploader@@6B?$CSingleton@VCGuildMarkUploader@@@@@ ; CGuildMarkUploader::`vftable'
	DD	FLAT:??_ECGuildMarkUploader@@WHI@AEPAXI@Z
CONST	ENDS
;	COMDAT ??_7?$CSingleton@VCGuildMarkUploader@@@@6B@
CONST	SEGMENT
??_7?$CSingleton@VCGuildMarkUploader@@@@6B@ DD FLAT:??_R4?$CSingleton@VCGuildMarkUploader@@@@6B@ ; CSingleton<CGuildMarkUploader>::`vftable'
	DD	FLAT:??_E?$CSingleton@VCGuildMarkUploader@@@@UAEPAXI@Z
CONST	ENDS
;	COMDAT ??_R4CGuildMarkUploader@@6BCNetworkStream@@@
rdata$r	SEGMENT
??_R4CGuildMarkUploader@@6BCNetworkStream@@@ DD 00H	; CGuildMarkUploader::`RTTI Complete Object Locator'
	DD	00H
	DD	00H
	DD	FLAT:??_R0?AVCGuildMarkUploader@@@8
	DD	FLAT:??_R3CGuildMarkUploader@@8
rdata$r	ENDS
;	COMDAT ??_R4CGuildMarkUploader@@6B?$CSingleton@VCGuildMarkUploader@@@@@
rdata$r	SEGMENT
??_R4CGuildMarkUploader@@6B?$CSingleton@VCGuildMarkUploader@@@@@ DD 00H ; CGuildMarkUploader::`RTTI Complete Object Locator'
	DD	078H
	DD	00H
	DD	FLAT:??_R0?AVCGuildMarkUploader@@@8
	DD	FLAT:??_R3CGuildMarkUploader@@8
rdata$r	ENDS
;	COMDAT ??_R4?$CSingleton@VCGuildMarkUploader@@@@6B@
rdata$r	SEGMENT
??_R4?$CSingleton@VCGuildMarkUploader@@@@6B@ DD 00H	; CSingleton<CGuildMarkUploader>::`RTTI Complete Object Locator'
	DD	00H
	DD	00H
	DD	FLAT:??_R0?AV?$CSingleton@VCGuildMarkUploader@@@@@8
	DD	FLAT:??_R3?$CSingleton@VCGuildMarkUploader@@@@8
rdata$r	ENDS
;	COMDAT ??_R0?AVCGuildMarkUploader@@@8
data$rs	SEGMENT
??_R0?AVCGuildMarkUploader@@@8 DD FLAT:??_7type_info@@6B@ ; CGuildMarkUploader `RTTI Type Descriptor'
	DD	00H
	DB	'.?AVCGuildMarkUploader@@', 00H
data$rs	ENDS
;	COMDAT ??_R3CGuildMarkUploader@@8
rdata$r	SEGMENT
??_R3CGuildMarkUploader@@8 DD 00H			; CGuildMarkUploader::`RTTI Class Hierarchy Descriptor'
	DD	01H
	DD	03H
	DD	FLAT:??_R2CGuildMarkUploader@@8
rdata$r	ENDS
;	COMDAT ??_R0?AV?$CSingleton@VCGuildMarkUploader@@@@@8
data$rs	SEGMENT
??_R0?AV?$CSingleton@VCGuildMarkUploader@@@@@8 DD FLAT:??_7type_info@@6B@ ; CSingleton<CGuildMarkUploader> `RTTI Type Descriptor'
	DD	00H
	DB	'.?AV?$CSingleton@VCGuildMarkUploader@@@@', 00H
data$rs	ENDS
;	COMDAT ??_R3?$CSingleton@VCGuildMarkUploader@@@@8
rdata$r	SEGMENT
??_R3?$CSingleton@VCGuildMarkUploader@@@@8 DD 00H	; CSingleton<CGuildMarkUploader>::`RTTI Class Hierarchy Descriptor'
	DD	00H
	DD	01H
	DD	FLAT:??_R2?$CSingleton@VCGuildMarkUploader@@@@8
rdata$r	ENDS
;	COMDAT ??_R1A@?0A@EA@?$CSingleton@VCGuildMarkUploader@@@@8
rdata$r	SEGMENT
??_R1A@?0A@EA@?$CSingleton@VCGuildMarkUploader@@@@8 DD FLAT:??_R0?AV?$CSingleton@VCGuildMarkUploader@@@@@8 ; CSingleton<CGuildMarkUploader>::`RTTI Base Class Descriptor at (0,-1,0,64)'
	DD	00H
	DD	00H
	DD	0ffffffffH
	DD	00H
	DD	040H
	DD	FLAT:??_R3?$CSingleton@VCGuildMarkUploader@@@@8
rdata$r	ENDS
;	COMDAT ??_R1A@?0A@EA@CGuildMarkUploader@@8
rdata$r	SEGMENT
??_R1A@?0A@EA@CGuildMarkUploader@@8 DD FLAT:??_R0?AVCGuildMarkUploader@@@8 ; CGuildMarkUploader::`RTTI Base Class Descriptor at (0,-1,0,64)'
	DD	02H
	DD	00H
	DD	0ffffffffH
	DD	00H
	DD	040H
	DD	FLAT:??_R3CGuildMarkUploader@@8
rdata$r	ENDS
;	COMDAT ??_R1HI@?0A@EA@?$CSingleton@VCGuildMarkUploader@@@@8
rdata$r	SEGMENT
??_R1HI@?0A@EA@?$CSingleton@VCGuildMarkUploader@@@@8 DD FLAT:??_R0?AV?$CSingleton@VCGuildMarkUploader@@@@@8 ; CSingleton<CGuildMarkUploader>::`RTTI Base Class Descriptor at (120,-1,0,64)'
	DD	00H
	DD	078H
	DD	0ffffffffH
	DD	00H
	DD	040H
	DD	FLAT:??_R3?$CSingleton@VCGuildMarkUploader@@@@8
rdata$r	ENDS
;	COMDAT ??_R2?$CSingleton@VCGuildMarkUploader@@@@8
rdata$r	SEGMENT
??_R2?$CSingleton@VCGuildMarkUploader@@@@8 DD FLAT:??_R1A@?0A@EA@?$CSingleton@VCGuildMarkUploader@@@@8 ; CSingleton<CGuildMarkUploader>::`RTTI Base Class Array'
rdata$r	ENDS
;	COMDAT ??_R2CGuildMarkUploader@@8
rdata$r	SEGMENT
??_R2CGuildMarkUploader@@8 DD FLAT:??_R1A@?0A@EA@CGuildMarkUploader@@8 ; CGuildMarkUploader::`RTTI Base Class Array'
	DD	FLAT:??_R1A@?0A@EA@CNetworkStream@@8
	DD	FLAT:??_R1HI@?0A@EA@?$CSingleton@VCGuildMarkUploader@@@@8
rdata$r	ENDS
;	COMDAT ??_C@_02JDPG@rb@
CONST	SEGMENT
??_C@_02JDPG@rb@ DB 'rb', 00H				; `string'
PUBLIC	??_ECGuildMarkUploader@@WHI@AEPAXI@Z		; [thunk]:CGuildMarkUploader::`vector deleting destructor'
PUBLIC	??_G?$CSingleton@VCGuildMarkUploader@@@@UAEPAXI@Z ; CSingleton<CGuildMarkUploader>::`scalar deleting destructor'
PUBLIC	??0?$CSingleton@VCGuildMarkUploader@@@@QAE@XZ	; CSingleton<CGuildMarkUploader>::CSingleton<CGuildMarkUploader>
PUBLIC	??1?$CSingleton@VCGuildMarkUploader@@@@UAE@XZ	; CSingleton<CGuildMarkUploader>::~CSingleton<CGuildMarkUploader>
PUBLIC	?__AnalyzePacket@CGuildMarkUploader@@AAE_NIIP81@AE_NXZ@Z ; CGuildMarkUploader::__AnalyzePacket
PUBLIC	?__LoginState_RecvPing@CGuildMarkUploader@@AAE_NXZ ; CGuildMarkUploader::__LoginState_RecvPing
PUBLIC	?__LoginState_RecvHandshake@CGuildMarkUploader@@AAE_NXZ ; CGuildMarkUploader::__LoginState_RecvHandshake
PUBLIC	?__LoginState_RecvPhase@CGuildMarkUploader@@AAE_NXZ ; CGuildMarkUploader::__LoginState_RecvPhase
PUBLIC	?__SendSymbolPacket@CGuildMarkUploader@@AAE_NXZ	; CGuildMarkUploader::__SendSymbolPacket
PUBLIC	?__SendMarkPacket@CGuildMarkUploader@@AAE_NXZ	; CGuildMarkUploader::__SendMarkPacket
PUBLIC	?__LoginState_Process@CGuildMarkUploader@@AAE_NXZ ; CGuildMarkUploader::__LoginState_Process
PUBLIC	?__LoginState_Set@CGuildMarkUploader@@AAEXXZ	; CGuildMarkUploader::__LoginState_Set
PUBLIC	?__CompleteState_Set@CGuildMarkUploader@@AAEXXZ	; CGuildMarkUploader::__CompleteState_Set
PUBLIC	?__OfflineState_Set@CGuildMarkUploader@@AAEXXZ	; CGuildMarkUploader::__OfflineState_Set
PUBLIC	?__StateProcess@CGuildMarkUploader@@AAE_NXZ	; CGuildMarkUploader::__StateProcess
PUBLIC	?__Initialize@CGuildMarkUploader@@AAEXXZ	; CGuildMarkUploader::__Initialize
PUBLIC	?OnDisconnect@CGuildMarkUploader@@EAEXXZ	; CGuildMarkUploader::OnDisconnect
PUBLIC	?OnRemoteDisconnect@CGuildMarkUploader@@EAEXXZ	; CGuildMarkUploader::OnRemoteDisconnect
PUBLIC	?OnConnectSuccess@CGuildMarkUploader@@EAEXXZ	; CGuildMarkUploader::OnConnectSuccess
PUBLIC	?OnConnectFailure@CGuildMarkUploader@@EAEXXZ	; CGuildMarkUploader::OnConnectFailure
PUBLIC	?Process@CGuildMarkUploader@@QAEXXZ		; CGuildMarkUploader::Process
PUBLIC	?ConnectToSendSymbol@CGuildMarkUploader@@QAE_NABVCNetworkAddress@@KKKKPBDPAI_K@Z ; CGuildMarkUploader::ConnectToSendSymbol
PUBLIC	?Connect@CGuildMarkUploader@@QAE_NABVCNetworkAddress@@KKKKPBDPAI_K@Z ; CGuildMarkUploader::Connect
PUBLIC	?__LoadSymbol@CGuildMarkUploader@@AAE_NPBDPAI@Z	; CGuildMarkUploader::__LoadSymbol
PUBLIC	?__Load@CGuildMarkUploader@@AAE_NPBDPAI@Z	; CGuildMarkUploader::__Load
PUBLIC	?Disconnect@CGuildMarkUploader@@QAEXXZ		; CGuildMarkUploader::Disconnect
PUBLIC	??1CGuildMarkUploader@@UAE@XZ			; CGuildMarkUploader::~CGuildMarkUploader
PUBLIC	??_GCGuildMarkUploader@@UAEPAXI@Z		; CGuildMarkUploader::`scalar deleting destructor'
PUBLIC	??0CGuildMarkUploader@@QAE@XZ			; CGuildMarkUploader::CGuildMarkUploader
EXTRN	??_ECGuildMarkUploader@@UAEPAXI@Z:PROC		; CGuildMarkUploader::`vector deleting destructor'
EXTRN	??_E?$CSingleton@VCGuildMarkUploader@@@@UAEPAXI@Z:PROC ; CSingleton<CGuildMarkUploader>::`vector deleting destructor'
;	COMDAT xdata$x
xdata$x	SEGMENT
__ehfuncinfo$??0CGuildMarkUploader@@QAE@XZ DQ 00000000219930522r ; 4.45598e-314
	DD	FLAT:__unwindtable$??0CGuildMarkUploader@@QAE@XZ
	DQ	00000000000000000r		; 0
	DQ	00000000000000000r		; 0
	DQ	00000000100000000r		; 2.122e-314
__unwindtable$??0CGuildMarkUploader@@QAE@XZ DD 0ffffffffH
	DD	FLAT:__unwindfunclet$??0CGuildMarkUploader@@QAE@XZ$0
	DD	00H
	DD	FLAT:__unwindfunclet$??0CGuildMarkUploader@@QAE@XZ$1
END
