; Listing generated by Microsoft (R) Optimizing Compiler Version 19.44.35219.0 

	TITLE	c:\anka2project\anka2project\source\binary\vs_files\userinterface\release\guildmarkuploader.obj
	.686P
	.XMM
	include listing.inc
	.model	flat

INCLUDELIB OLDNAMES

PUBLIC	??_C@_02JDPG@rb@				; `string'
PUBLIC	??_R2CGuildMarkUploader@@8			; CGuildMarkUploader::`RTTI Base Class Array'
PUBLIC	??_R2?$CSingleton@VCGuildMarkUploader@@@@8	; CSingleton<CGuildMarkUploader>::`RTTI Base Class Array'
PUBLIC	??_R1HI@?0A@EA@?$CSingleton@VCGuildMarkUploader@@@@8 ; CSingleton<CGuildMarkUploader>::`RTTI Base Class Descriptor at (120,-1,0,64)'
PUBLIC	??_R1A@?0A@EA@CGuildMarkUploader@@8		; CGuildMarkUploader::`RTTI Base Class Descriptor at (0,-1,0,64)'
PUBLIC	??_R1A@?0A@EA@?$CSingleton@VCGuildMarkUploader@@@@8 ; CSingleton<CGuildMarkUploader>::`RTTI Base Class Descriptor at (0,-1,0,64)'
PUBLIC	??_R3?$CSingleton@VCGuildMarkUploader@@@@8	; CSingleton<CGuildMarkUploader>::`RTTI Class Hierarchy Descriptor'
PUBLIC	??_R0?AV?$CSingleton@VCGuildMarkUploader@@@@@8	; CSingleton<CGuildMarkUploader> `RTTI Type Descriptor'
PUBLIC	??_R3CGuildMarkUploader@@8			; CGuildMarkUploader::`RTTI Class Hierarchy Descriptor'
PUBLIC	??_R0?AVCGuildMarkUploader@@@8			; CGuildMarkUploader `RTTI Type Descriptor'
PUBLIC	??_R4?$CSingleton@VCGuildMarkUploader@@@@6B@	; CSingleton<CGuildMarkUploader>::`RTTI Complete Object Locator'
PUBLIC	??_R4CGuildMarkUploader@@6B?$CSingleton@VCGuildMarkUploader@@@@@ ; CGuildMarkUploader::`RTTI Complete Object Locator'
PUBLIC	??_R4CGuildMarkUploader@@6BCNetworkStream@@@	; CGuildMarkUploader::`RTTI Complete Object Locator'
PUBLIC	?ms_singleton@?$CSingleton@VCGuildMarkUploader@@@@0PAVCGuildMarkUploader@@A ; CSingleton<CGuildMarkUploader>::ms_singleton
PUBLIC	??_7?$CSingleton@VCGuildMarkUploader@@@@6B@	; CSingleton<CGuildMarkUploader>::`vftable'
PUBLIC	??_7CGuildMarkUploader@@6B?$CSingleton@VCGuildMarkUploader@@@@@ ; CGuildMarkUploader::`vftable'
PUBLIC	??_7CGuildMarkUploader@@6BCNetworkStream@@@	; CGuildMarkUploader::`vftable'
EXTRN	?__SendInternalBuffer@CNetworkStream@@IAE_NXZ:PROC ; CNetworkStream::__SendInternalBuffer
EXTRN	_fread:PROC
EXTRN	_ftell:PROC
EXTRN	_fseek:PROC
EXTRN	__imp__ilShutDown@0:PROC
EXTRN	__imp__ilDeleteImages@8:PROC
EXTRN	__imp__ilCopyPixels@36:PROC
EXTRN	__imp__ilConvertImage@8:PROC
EXTRN	__imp__ilGetInteger@4:PROC
EXTRN	__imp__ilLoad@8:PROC
EXTRN	__imp__ilOriginFunc@4:PROC
EXTRN	__imp__ilEnable@4:PROC
EXTRN	__imp__ilBindImage@4:PROC
EXTRN	__imp__ilGenImages@8:PROC
;	COMDAT ?ms_singleton@?$CSingleton@VCGuildMarkUploader@@@@0PAVCGuildMarkUploader@@A
_BSS	SEGMENT
?ms_singleton@?$CSingleton@VCGuildMarkUploader@@@@0PAVCGuildMarkUploader@@A DD 01H DUP (?) ; CSingleton<CGuildMarkUploader>::ms_singleton
_BSS	ENDS
;	COMDAT ??_7CGuildMarkUploader@@6BCNetworkStream@@@
CONST	SEGMENT
??_7CGuildMarkUploader@@6BCNetworkStream@@@ DD FLAT:??_R4CGuildMarkUploader@@6BCNetworkStream@@@ ; CGuildMarkUploader::`vftable'
	DD	FLAT:??_ECGuildMarkUploader@@UAEPAXI@Z
	DD	FLAT:?OnConnectSuccess@CGuildMarkUploader@@EAEXXZ
	DD	FLAT:?OnConnectFailure@CGuildMarkUploader@@EAEXXZ
	DD	FLAT:?OnRemoteDisconnect@CGuildMarkUploader@@EAEXXZ
	DD	FLAT:?OnDisconnect@CGuildMarkUploader@@EAEXXZ
	DD	FLAT:?OnProcess@CNetworkStream@@MAE_NXZ
CONST	ENDS
;	COMDAT ??_7CGuildMarkUploader@@6B?$CSingleton@VCGuildMarkUploader@@@@@
CONST	SEGMENT
??_7CGuildMarkUploader@@6B?$CSingleton@VCGuildMarkUploader@@@@@ DD FLAT:??_R4CGuildMarkUploader@@6B?$CSingleton@VCGuildMarkUploader@@@@@ ; CGuildMarkUploader::`vftable'
	DD	FLAT:??_ECGuildMarkUploader@@WHI@AEPAXI@Z
CONST	ENDS
;	COMDAT ??_7?$CSingleton@VCGuildMarkUploader@@@@6B@
CONST	SEGMENT
??_7?$CSingleton@VCGuildMarkUploader@@@@6B@ DD FLAT:??_R4?$CSingleton@VCGuildMarkUploader@@@@6B@ ; CSingleton<CGuildMarkUploader>::`vftable'
	DD	FLAT:??_E?$CSingleton@VCGuildMarkUploader@@@@UAEPAXI@Z
CONST	ENDS
;	COMDAT ??_R4CGuildMarkUploader@@6BCNetworkStream@@@
rdata$r	SEGMENT
??_R4CGuildMarkUploader@@6BCNetworkStream@@@ DD 00H	; CGuildMarkUploader::`RTTI Complete Object Locator'
	DD	00H
	DD	00H
	DD	FLAT:??_R0?AVCGuildMarkUploader@@@8
	DD	FLAT:??_R3CGuildMarkUploader@@8
rdata$r	ENDS
;	COMDAT ??_R4CGuildMarkUploader@@6B?$CSingleton@VCGuildMarkUploader@@@@@
rdata$r	SEGMENT
??_R4CGuildMarkUploader@@6B?$CSingleton@VCGuildMarkUploader@@@@@ DD 00H ; CGuildMarkUploader::`RTTI Complete Object Locator'
	DD	078H
	DD	00H
	DD	FLAT:??_R0?AVCGuildMarkUploader@@@8
	DD	FLAT:??_R3CGuildMarkUploader@@8
rdata$r	ENDS
;	COMDAT ??_R4?$CSingleton@VCGuildMarkUploader@@@@6B@
rdata$r	SEGMENT
??_R4?$CSingleton@VCGuildMarkUploader@@@@6B@ DD 00H	; CSingleton<CGuildMarkUploader>::`RTTI Complete Object Locator'
	DD	00H
	DD	00H
	DD	FLAT:??_R0?AV?$CSingleton@VCGuildMarkUploader@@@@@8
	DD	FLAT:??_R3?$CSingleton@VCGuildMarkUploader@@@@8
rdata$r	ENDS
;	COMDAT ??_R0?AVCGuildMarkUploader@@@8
data$rs	SEGMENT
??_R0?AVCGuildMarkUploader@@@8 DD FLAT:??_7type_info@@6B@ ; CGuildMarkUploader `RTTI Type Descriptor'
	DD	00H
	DB	'.?AVCGuildMarkUploader@@', 00H
data$rs	ENDS
;	COMDAT ??_R3CGuildMarkUploader@@8
rdata$r	SEGMENT
??_R3CGuildMarkUploader@@8 DD 00H			; CGuildMarkUploader::`RTTI Class Hierarchy Descriptor'
	DD	01H
	DD	03H
	DD	FLAT:??_R2CGuildMarkUploader@@8
rdata$r	ENDS
;	COMDAT ??_R0?AV?$CSingleton@VCGuildMarkUploader@@@@@8
data$rs	SEGMENT
??_R0?AV?$CSingleton@VCGuildMarkUploader@@@@@8 DD FLAT:??_7type_info@@6B@ ; CSingleton<CGuildMarkUploader> `RTTI Type Descriptor'
	DD	00H
	DB	'.?AV?$CSingleton@VCGuildMarkUploader@@@@', 00H
data$rs	ENDS
;	COMDAT ??_R3?$CSingleton@VCGuildMarkUploader@@@@8
rdata$r	SEGMENT
??_R3?$CSingleton@VCGuildMarkUploader@@@@8 DD 00H	; CSingleton<CGuildMarkUploader>::`RTTI Class Hierarchy Descriptor'
	DD	00H
	DD	01H
	DD	FLAT:??_R2?$CSingleton@VCGuildMarkUploader@@@@8
rdata$r	ENDS
;	COMDAT ??_R1A@?0A@EA@?$CSingleton@VCGuildMarkUploader@@@@8
rdata$r	SEGMENT
??_R1A@?0A@EA@?$CSingleton@VCGuildMarkUploader@@@@8 DD FLAT:??_R0?AV?$CSingleton@VCGuildMarkUploader@@@@@8 ; CSingleton<CGuildMarkUploader>::`RTTI Base Class Descriptor at (0,-1,0,64)'
	DD	00H
	DD	00H
	DD	0ffffffffH
	DD	00H
	DD	040H
	DD	FLAT:??_R3?$CSingleton@VCGuildMarkUploader@@@@8
rdata$r	ENDS
;	COMDAT ??_R1A@?0A@EA@CGuildMarkUploader@@8
rdata$r	SEGMENT
??_R1A@?0A@EA@CGuildMarkUploader@@8 DD FLAT:??_R0?AVCGuildMarkUploader@@@8 ; CGuildMarkUploader::`RTTI Base Class Descriptor at (0,-1,0,64)'
	DD	02H
	DD	00H
	DD	0ffffffffH
	DD	00H
	DD	040H
	DD	FLAT:??_R3CGuildMarkUploader@@8
rdata$r	ENDS
;	COMDAT ??_R1HI@?0A@EA@?$CSingleton@VCGuildMarkUploader@@@@8
rdata$r	SEGMENT
??_R1HI@?0A@EA@?$CSingleton@VCGuildMarkUploader@@@@8 DD FLAT:??_R0?AV?$CSingleton@VCGuildMarkUploader@@@@@8 ; CSingleton<CGuildMarkUploader>::`RTTI Base Class Descriptor at (120,-1,0,64)'
	DD	00H
	DD	078H
	DD	0ffffffffH
	DD	00H
	DD	040H
	DD	FLAT:??_R3?$CSingleton@VCGuildMarkUploader@@@@8
rdata$r	ENDS
;	COMDAT ??_R2?$CSingleton@VCGuildMarkUploader@@@@8
rdata$r	SEGMENT
??_R2?$CSingleton@VCGuildMarkUploader@@@@8 DD FLAT:??_R1A@?0A@EA@?$CSingleton@VCGuildMarkUploader@@@@8 ; CSingleton<CGuildMarkUploader>::`RTTI Base Class Array'
rdata$r	ENDS
;	COMDAT ??_R2CGuildMarkUploader@@8
rdata$r	SEGMENT
??_R2CGuildMarkUploader@@8 DD FLAT:??_R1A@?0A@EA@CGuildMarkUploader@@8 ; CGuildMarkUploader::`RTTI Base Class Array'
	DD	FLAT:??_R1A@?0A@EA@CNetworkStream@@8
	DD	FLAT:??_R1HI@?0A@EA@?$CSingleton@VCGuildMarkUploader@@@@8
rdata$r	ENDS
;	COMDAT ??_C@_02JDPG@rb@
CONST	SEGMENT
??_C@_02JDPG@rb@ DB 'rb', 00H				; `string'
PUBLIC	??_ECGuildMarkUploader@@WHI@AEPAXI@Z		; [thunk]:CGuildMarkUploader::`vector deleting destructor'
PUBLIC	??_G?$CSingleton@VCGuildMarkUploader@@@@UAEPAXI@Z ; CSingleton<CGuildMarkUploader>::`scalar deleting destructor'
PUBLIC	??0?$CSingleton@VCGuildMarkUploader@@@@QAE@XZ	; CSingleton<CGuildMarkUploader>::CSingleton<CGuildMarkUploader>
PUBLIC	??1?$CSingleton@VCGuildMarkUploader@@@@UAE@XZ	; CSingleton<CGuildMarkUploader>::~CSingleton<CGuildMarkUploader>
PUBLIC	?__AnalyzePacket@CGuildMarkUploader@@AAE_NIIP81@AE_NXZ@Z ; CGuildMarkUploader::__AnalyzePacket
PUBLIC	?__LoginState_RecvPing@CGuildMarkUploader@@AAE_NXZ ; CGuildMarkUploader::__LoginState_RecvPing
PUBLIC	?__LoginState_RecvHandshake@CGuildMarkUploader@@AAE_NXZ ; CGuildMarkUploader::__LoginState_RecvHandshake
PUBLIC	?__LoginState_RecvPhase@CGuildMarkUploader@@AAE_NXZ ; CGuildMarkUploader::__LoginState_RecvPhase
PUBLIC	?__SendSymbolPacket@CGuildMarkUploader@@AAE_NXZ	; CGuildMarkUploader::__SendSymbolPacket
PUBLIC	?__SendMarkPacket@CGuildMarkUploader@@AAE_NXZ	; CGuildMarkUploader::__SendMarkPacket
PUBLIC	?__LoginState_Process@CGuildMarkUploader@@AAE_NXZ ; CGuildMarkUploader::__LoginState_Process
PUBLIC	?__LoginState_Set@CGuildMarkUploader@@AAEXXZ	; CGuildMarkUploader::__LoginState_Set
PUBLIC	?__CompleteState_Set@CGuildMarkUploader@@AAEXXZ	; CGuildMarkUploader::__CompleteState_Set
PUBLIC	?__OfflineState_Set@CGuildMarkUploader@@AAEXXZ	; CGuildMarkUploader::__OfflineState_Set
PUBLIC	?__StateProcess@CGuildMarkUploader@@AAE_NXZ	; CGuildMarkUploader::__StateProcess
PUBLIC	?__Initialize@CGuildMarkUploader@@AAEXXZ	; CGuildMarkUploader::__Initialize
PUBLIC	?OnDisconnect@CGuildMarkUploader@@EAEXXZ	; CGuildMarkUploader::OnDisconnect
PUBLIC	?OnRemoteDisconnect@CGuildMarkUploader@@EAEXXZ	; CGuildMarkUploader::OnRemoteDisconnect
PUBLIC	?OnConnectSuccess@CGuildMarkUploader@@EAEXXZ	; CGuildMarkUploader::OnConnectSuccess
PUBLIC	?OnConnectFailure@CGuildMarkUploader@@EAEXXZ	; CGuildMarkUploader::OnConnectFailure
PUBLIC	?Process@CGuildMarkUploader@@QAEXXZ		; CGuildMarkUploader::Process
PUBLIC	?ConnectToSendSymbol@CGuildMarkUploader@@QAE_NABVCNetworkAddress@@KKKKPBDPAI_K@Z ; CGuildMarkUploader::ConnectToSendSymbol
PUBLIC	?Connect@CGuildMarkUploader@@QAE_NABVCNetworkAddress@@KKKKPBDPAI_K@Z ; CGuildMarkUploader::Connect
PUBLIC	?__LoadSymbol@CGuildMarkUploader@@AAE_NPBDPAI@Z	; CGuildMarkUploader::__LoadSymbol
PUBLIC	?__Load@CGuildMarkUploader@@AAE_NPBDPAI@Z	; CGuildMarkUploader::__Load
PUBLIC	?Disconnect@CGuildMarkUploader@@QAEXXZ		; CGuildMarkUploader::Disconnect
PUBLIC	??1CGuildMarkUploader@@UAE@XZ			; CGuildMarkUploader::~CGuildMarkUploader
PUBLIC	??_GCGuildMarkUploader@@UAEPAXI@Z		; CGuildMarkUploader::`scalar deleting destructor'
PUBLIC	??0CGuildMarkUploader@@QAE@XZ			; CGuildMarkUploader::CGuildMarkUploader
EXTRN	??_ECGuildMarkUploader@@UAEPAXI@Z:PROC		; CGuildMarkUploader::`vector deleting destructor'
EXTRN	??_E?$CSingleton@VCGuildMarkUploader@@@@UAEPAXI@Z:PROC ; CSingleton<CGuildMarkUploader>::`vector deleting destructor'
;	COMDAT xdata$x
xdata$x	SEGMENT
__ehfuncinfo$??0CGuildMarkUploader@@QAE@XZ DQ 00000000219930522r ; 4.45598e-314
	DD	FLAT:__unwindtable$??0CGuildMarkUploader@@QAE@XZ
	DQ	00000000000000000r		; 0
	DQ	00000000000000000r		; 0
	DQ	00000000100000000r		; 2.122e-314
__unwindtable$??0CGuildMarkUploader@@QAE@XZ DD 0ffffffffH
	DD	FLAT:__unwindfunclet$??0CGuildMarkUploader@@QAE@XZ$0
	DD	00H
	DD	FLAT:__unwindfunclet$??0CGuildMarkUploader@@QAE@XZ$1
; Function compile flags: /Ogtp
; File C:\Anka2Project\Anka2Project\Source\Binary\source\UserInterface\GuildMarkUploader.cpp
;	COMDAT ?__Load@CGuildMarkUploader@@AAE_NPBDPAI@Z
_TEXT	SEGMENT
_uImg$ = -4						; size = 4
_c_szFileName$ = 8					; size = 4
_peError$ = 12						; size = 4
?__Load@CGuildMarkUploader@@AAE_NPBDPAI@Z PROC		; CGuildMarkUploader::__Load, COMDAT
; _this$ = ecx

; 34   : {

  00000	55		 push	 ebp
  00001	8b ec		 mov	 ebp, esp
  00003	51		 push	 ecx
  00004	57		 push	 edi

; 35   : 	ILuint uImg;
; 36   : 	ilGenImages(1, &uImg);

  00005	8d 45 fc	 lea	 eax, DWORD PTR _uImg$[ebp]
  00008	8b f9		 mov	 edi, ecx
  0000a	50		 push	 eax
  0000b	6a 01		 push	 1
  0000d	ff 15 00 00 00
	00		 call	 DWORD PTR __imp__ilGenImages@8

; 37   : 	ilBindImage(uImg);

  00013	ff 75 fc	 push	 DWORD PTR _uImg$[ebp]
  00016	ff 15 00 00 00
	00		 call	 DWORD PTR __imp__ilBindImage@4

; 38   : 	ilEnable(IL_ORIGIN_SET);

  0001c	68 00 06 00 00	 push	 1536			; 00000600H
  00021	ff 15 00 00 00
	00		 call	 DWORD PTR __imp__ilEnable@4

; 39   : 	ilOriginFunc(IL_ORIGIN_UPPER_LEFT);

  00027	68 02 06 00 00	 push	 1538			; 00000602H
  0002c	ff 15 00 00 00
	00		 call	 DWORD PTR __imp__ilOriginFunc@4

; 40   : 
; 41   : 	if (!ilLoad(IL_TYPE_UNKNOWN, (const ILstring)c_szFileName))	

  00032	ff 75 08	 push	 DWORD PTR _c_szFileName$[ebp]
  00035	6a 00		 push	 0
  00037	ff 15 00 00 00
	00		 call	 DWORD PTR __imp__ilLoad@8
  0003d	84 c0		 test	 al, al
  0003f	75 12		 jne	 SHORT $LN2@Load

; 42   : 	{
; 43   : 		*peError=ERROR_LOAD;

  00041	8b 45 0c	 mov	 eax, DWORD PTR _peError$[ebp]
  00044	5f		 pop	 edi
  00045	c7 00 02 00 00
	00		 mov	 DWORD PTR [eax], 2

; 44   : 		return false;

  0004b	32 c0		 xor	 al, al

; 65   : }

  0004d	8b e5		 mov	 esp, ebp
  0004f	5d		 pop	 ebp
  00050	c2 08 00	 ret	 8
$LN2@Load:

; 45   : 	}
; 46   : 
; 47   : 	if (ilGetInteger(IL_IMAGE_WIDTH)!=SGuildMark::WIDTH)	

  00053	68 e4 0d 00 00	 push	 3556			; 00000de4H
  00058	ff 15 00 00 00
	00		 call	 DWORD PTR __imp__ilGetInteger@4
  0005e	83 f8 10	 cmp	 eax, 16			; 00000010H
  00061	74 12		 je	 SHORT $LN3@Load

; 48   : 	{
; 49   : 		*peError=ERROR_WIDTH;

  00063	8b 45 0c	 mov	 eax, DWORD PTR _peError$[ebp]
  00066	5f		 pop	 edi
  00067	c7 00 03 00 00
	00		 mov	 DWORD PTR [eax], 3

; 50   : 		return false;

  0006d	32 c0		 xor	 al, al

; 65   : }

  0006f	8b e5		 mov	 esp, ebp
  00071	5d		 pop	 ebp
  00072	c2 08 00	 ret	 8
$LN3@Load:

; 51   : 	}
; 52   : 
; 53   : 	if (ilGetInteger(IL_IMAGE_HEIGHT)!=SGuildMark::HEIGHT)

  00075	68 e5 0d 00 00	 push	 3557			; 00000de5H
  0007a	ff 15 00 00 00
	00		 call	 DWORD PTR __imp__ilGetInteger@4
  00080	83 f8 0c	 cmp	 eax, 12			; 0000000cH
  00083	74 12		 je	 SHORT $LN4@Load

; 54   : 	{
; 55   : 		*peError=ERROR_HEIGHT;

  00085	8b 45 0c	 mov	 eax, DWORD PTR _peError$[ebp]
  00088	5f		 pop	 edi
  00089	c7 00 04 00 00
	00		 mov	 DWORD PTR [eax], 4

; 56   : 		return false;

  0008f	32 c0		 xor	 al, al

; 65   : }

  00091	8b e5		 mov	 esp, ebp
  00093	5d		 pop	 ebp
  00094	c2 08 00	 ret	 8
$LN4@Load:

; 57   : 	}
; 58   : 
; 59   : 	ilConvertImage(IL_BGRA, IL_BYTE);

  00097	68 00 14 00 00	 push	 5120			; 00001400H
  0009c	68 e1 80 00 00	 push	 32993			; 000080e1H
  000a1	ff 15 00 00 00
	00		 call	 DWORD PTR __imp__ilConvertImage@8

; 60   : 
; 61   : 	ilCopyPixels(0, 0, 0, SGuildMark::WIDTH, SGuildMark::HEIGHT, 1, IL_BGRA, IL_BYTE, (ILvoid*)m_kMark.m_apxBuf);

  000a7	8d 87 9c 00 00
	00		 lea	 eax, DWORD PTR [edi+156]
  000ad	50		 push	 eax
  000ae	68 00 14 00 00	 push	 5120			; 00001400H
  000b3	68 e1 80 00 00	 push	 32993			; 000080e1H
  000b8	6a 01		 push	 1
  000ba	6a 0c		 push	 12			; 0000000cH
  000bc	6a 10		 push	 16			; 00000010H
  000be	6a 00		 push	 0
  000c0	6a 00		 push	 0
  000c2	6a 00		 push	 0
  000c4	ff 15 00 00 00
	00		 call	 DWORD PTR __imp__ilCopyPixels@36

; 62   : 
; 63   : 	ilDeleteImages(1, &uImg);

  000ca	8d 45 fc	 lea	 eax, DWORD PTR _uImg$[ebp]
  000cd	50		 push	 eax
  000ce	6a 01		 push	 1
  000d0	ff 15 00 00 00
	00		 call	 DWORD PTR __imp__ilDeleteImages@8

; 64   : 	return true;

  000d6	b0 01		 mov	 al, 1
  000d8	5f		 pop	 edi

; 65   : }

  000d9	8b e5		 mov	 esp, ebp
  000db	5d		 pop	 ebp
  000dc	c2 08 00	 ret	 8
?__Load@CGuildMarkUploader@@AAE_NPBDPAI@Z ENDP		; CGuildMarkUploader::__Load
_TEXT	ENDS
; Function compile flags: /Ogtp
; File C:\Anka2Project\Anka2Project\Source\Binary\source\UserInterface\GuildMarkUploader.cpp
;	COMDAT ?__LoadSymbol@CGuildMarkUploader@@AAE_NPBDPAI@Z
_TEXT	SEGMENT
_uImg$ = -4						; size = 4
_c_szFileName$ = 8					; size = 4
_peError$ = 12						; size = 4
?__LoadSymbol@CGuildMarkUploader@@AAE_NPBDPAI@Z PROC	; CGuildMarkUploader::__LoadSymbol, COMDAT
; _this$ = ecx

; 68   : {

  00000	55		 push	 ebp
  00001	8b ec		 mov	 ebp, esp
  00003	51		 push	 ecx
  00004	53		 push	 ebx
  00005	57		 push	 edi

; 69   : 	ILuint uImg;
; 70   : 	ilGenImages(1, &uImg);

  00006	8d 45 fc	 lea	 eax, DWORD PTR _uImg$[ebp]
  00009	8b d9		 mov	 ebx, ecx
  0000b	50		 push	 eax
  0000c	6a 01		 push	 1
  0000e	ff 15 00 00 00
	00		 call	 DWORD PTR __imp__ilGenImages@8

; 71   : 	ilBindImage(uImg);

  00014	ff 75 fc	 push	 DWORD PTR _uImg$[ebp]
  00017	ff 15 00 00 00
	00		 call	 DWORD PTR __imp__ilBindImage@4

; 72   : 	ilEnable(IL_ORIGIN_SET);

  0001d	68 00 06 00 00	 push	 1536			; 00000600H
  00022	ff 15 00 00 00
	00		 call	 DWORD PTR __imp__ilEnable@4

; 73   : 	ilOriginFunc(IL_ORIGIN_UPPER_LEFT);

  00028	68 02 06 00 00	 push	 1538			; 00000602H
  0002d	ff 15 00 00 00
	00		 call	 DWORD PTR __imp__ilOriginFunc@4

; 74   : 	if (!ilLoad(IL_TYPE_UNKNOWN, (const ILstring)c_szFileName))

  00033	8b 7d 08	 mov	 edi, DWORD PTR _c_szFileName$[ebp]
  00036	57		 push	 edi
  00037	6a 00		 push	 0
  00039	ff 15 00 00 00
	00		 call	 DWORD PTR __imp__ilLoad@8
  0003f	84 c0		 test	 al, al
  00041	75 13		 jne	 SHORT $LN2@LoadSymbol

; 75   : 	{
; 76   : 		*peError=ERROR_LOAD;

  00043	8b 45 0c	 mov	 eax, DWORD PTR _peError$[ebp]
  00046	5f		 pop	 edi

; 109  : }

  00047	5b		 pop	 ebx
  00048	c7 00 02 00 00
	00		 mov	 DWORD PTR [eax], 2
  0004e	32 c0		 xor	 al, al
  00050	8b e5		 mov	 esp, ebp
  00052	5d		 pop	 ebp
  00053	c2 08 00	 ret	 8
$LN2@LoadSymbol:
  00056	56		 push	 esi

; 77   : 		return false;
; 78   : 	}
; 79   : 	if (ilGetInteger(IL_IMAGE_WIDTH) != 64)

  00057	8b 35 00 00 00
	00		 mov	 esi, DWORD PTR __imp__ilGetInteger@4
  0005d	68 e4 0d 00 00	 push	 3556			; 00000de4H
  00062	ff d6		 call	 esi
  00064	83 f8 40	 cmp	 eax, 64			; 00000040H
  00067	74 14		 je	 SHORT $LN3@LoadSymbol

; 80   : 	{
; 81   : 		*peError=ERROR_WIDTH;

  00069	8b 45 0c	 mov	 eax, DWORD PTR _peError$[ebp]
  0006c	5e		 pop	 esi
  0006d	5f		 pop	 edi

; 109  : }

  0006e	5b		 pop	 ebx
  0006f	c7 00 03 00 00
	00		 mov	 DWORD PTR [eax], 3
  00075	32 c0		 xor	 al, al
  00077	8b e5		 mov	 esp, ebp
  00079	5d		 pop	 ebp
  0007a	c2 08 00	 ret	 8
$LN3@LoadSymbol:

; 82   : 		return false;
; 83   : 	}
; 84   : 	if (ilGetInteger(IL_IMAGE_HEIGHT) != 128)

  0007d	68 e5 0d 00 00	 push	 3557			; 00000de5H
  00082	ff d6		 call	 esi
  00084	3d 80 00 00 00	 cmp	 eax, 128		; 00000080H
  00089	74 14		 je	 SHORT $LN4@LoadSymbol

; 85   : 	{
; 86   : 		*peError=ERROR_HEIGHT;

  0008b	8b 45 0c	 mov	 eax, DWORD PTR _peError$[ebp]
  0008e	5e		 pop	 esi
  0008f	5f		 pop	 edi

; 109  : }

  00090	5b		 pop	 ebx
  00091	c7 00 04 00 00
	00		 mov	 DWORD PTR [eax], 4
  00097	32 c0		 xor	 al, al
  00099	8b e5		 mov	 esp, ebp
  0009b	5d		 pop	 ebp
  0009c	c2 08 00	 ret	 8
$LN4@LoadSymbol:

; 87   : 		return false;
; 88   : 	}
; 89   : 	ilDeleteImages(1, &uImg);

  0009f	8d 45 fc	 lea	 eax, DWORD PTR _uImg$[ebp]
  000a2	50		 push	 eax
  000a3	6a 01		 push	 1
  000a5	ff 15 00 00 00
	00		 call	 DWORD PTR __imp__ilDeleteImages@8

; 90   : 	ilShutDown();

  000ab	ff 15 00 00 00
	00		 call	 DWORD PTR __imp__ilShutDown@0

; 91   : 
; 92   : 	FILE * file = fopen(c_szFileName, "rb");

  000b1	68 00 00 00 00	 push	 OFFSET ??_C@_02JDPG@rb@
  000b6	57		 push	 edi
  000b7	e8 00 00 00 00	 call	 _fopen
  000bc	8b f0		 mov	 esi, eax
  000be	83 c4 08	 add	 esp, 8

; 93   : 	if (!file)

  000c1	85 f6		 test	 esi, esi
  000c3	75 09		 jne	 SHORT $LN5@LoadSymbol

; 94   : 	{
; 95   : 		*peError=ERROR_LOAD;

  000c5	8b 4d 0c	 mov	 ecx, DWORD PTR _peError$[ebp]
  000c8	c7 01 02 00 00
	00		 mov	 DWORD PTR [ecx], 2
$LN5@LoadSymbol:

; 96   : 	}
; 97   : 
; 98   : 	fseek(file, 0, SEEK_END);

  000ce	6a 02		 push	 2
  000d0	6a 00		 push	 0
  000d2	56		 push	 esi
  000d3	e8 00 00 00 00	 call	 _fseek

; 99   : 	m_dwSymbolBufSize = ftell(file);

  000d8	56		 push	 esi
  000d9	e8 00 00 00 00	 call	 _ftell

; 100  : 	fseek(file, 0, SEEK_SET);

  000de	6a 00		 push	 0
  000e0	6a 00		 push	 0
  000e2	56		 push	 esi
  000e3	89 83 9c 03 00
	00		 mov	 DWORD PTR [ebx+924], eax
  000e9	e8 00 00 00 00	 call	 _fseek

; 101  : 
; 102  : 	m_pbySymbolBuf = new BYTE [m_dwSymbolBufSize];

  000ee	ff b3 9c 03 00
	00		 push	 DWORD PTR [ebx+924]
  000f4	e8 00 00 00 00	 call	 ??_U@YAPAXI@Z		; operator new[]

; 103  : 	fread(m_pbySymbolBuf, m_dwSymbolBufSize, 1, file);

  000f9	56		 push	 esi
  000fa	6a 01		 push	 1
  000fc	ff b3 9c 03 00
	00		 push	 DWORD PTR [ebx+924]
  00102	89 83 a4 03 00
	00		 mov	 DWORD PTR [ebx+932], eax
  00108	50		 push	 eax
  00109	e8 00 00 00 00	 call	 _fread

; 104  : 
; 105  : 	fclose(file);

  0010e	56		 push	 esi
  0010f	e8 00 00 00 00	 call	 _fclose

; 106  : 
; 107  : 	m_dwSymbolCRC32 = GetFileCRC32(c_szFileName);

  00114	57		 push	 edi
  00115	e8 00 00 00 00	 call	 ?GetFileCRC32@@YAKPBD@Z	; GetFileCRC32
  0011a	83 c4 38	 add	 esp, 56			; 00000038H
  0011d	89 83 a0 03 00
	00		 mov	 DWORD PTR [ebx+928], eax

; 108  : 	return true;

  00123	b0 01		 mov	 al, 1
  00125	5e		 pop	 esi
  00126	5f		 pop	 edi

; 109  : }

  00127	5b		 pop	 ebx
  00128	8b e5		 mov	 esp, ebp
  0012a	5d		 pop	 ebp
  0012b	c2 08 00	 ret	 8
?__LoadSymbol@CGuildMarkUploader@@AAE_NPBDPAI@Z ENDP	; CGuildMarkUploader::__LoadSymbol
_TEXT	ENDS
; Function compile flags: /Ogtp
; File C:\Anka2Project\Anka2Project\Source\Binary\source\UserInterface\GuildMarkUploader.cpp
;	COMDAT ?__AnalyzePacket@CGuildMarkUploader@@AAE_NIIP81@AE_NXZ@Z
_TEXT	SEGMENT
_bHeader$ = -1						; size = 1
_uHeader$ = 8						; size = 4
_uPacketSize$ = 12					; size = 4
_pfnDispatchPacket$ = 16				; size = 8
?__AnalyzePacket@CGuildMarkUploader@@AAE_NIIP81@AE_NXZ@Z PROC ; CGuildMarkUploader::__AnalyzePacket, COMDAT
; _this$ = ecx

; 375  : {

  00000	55		 push	 ebp
  00001	8b ec		 mov	 ebp, esp
  00003	51		 push	 ecx
  00004	56		 push	 esi

; 376  : 	BYTE bHeader;
; 377  : 	if (!Peek(sizeof(bHeader), &bHeader))

  00005	8d 45 ff	 lea	 eax, DWORD PTR _bHeader$[ebp]
  00008	8b f1		 mov	 esi, ecx
  0000a	50		 push	 eax
  0000b	6a 01		 push	 1
  0000d	e8 00 00 00 00	 call	 ?Peek@CNetworkStream@@QAE_NHPAX@Z ; CNetworkStream::Peek
  00012	84 c0		 test	 al, al
  00014	74 27		 je	 SHORT $LN6@AnalyzePac

; 378  : 		return true;
; 379  : 
; 380  : 	if (bHeader!=uHeader)

  00016	0f b6 45 ff	 movzx	 eax, BYTE PTR _bHeader$[ebp]
  0001a	3b 45 08	 cmp	 eax, DWORD PTR _uHeader$[ebp]
  0001d	75 1e		 jne	 SHORT $LN6@AnalyzePac

; 381  : 		return true;
; 382  : 
; 383  : 	if (!Peek(uPacketSize))

  0001f	ff 75 0c	 push	 DWORD PTR _uPacketSize$[ebp]
  00022	8b ce		 mov	 ecx, esi
  00024	e8 00 00 00 00	 call	 ?Peek@CNetworkStream@@QAE_NH@Z ; CNetworkStream::Peek
  00029	84 c0		 test	 al, al
  0002b	74 10		 je	 SHORT $LN6@AnalyzePac

; 385  : 
; 386  : 	return (this->*pfnDispatchPacket)();

  0002d	8b 4d 14	 mov	 ecx, DWORD PTR _pfnDispatchPacket$[ebp+4]
  00030	8d 0c 31	 lea	 ecx, DWORD PTR [ecx+esi]
  00033	ff 55 10	 call	 DWORD PTR _pfnDispatchPacket$[ebp]
  00036	5e		 pop	 esi

; 387  : }

  00037	8b e5		 mov	 esp, ebp
  00039	5d		 pop	 ebp
  0003a	c2 10 00	 ret	 16			; 00000010H
$LN6@AnalyzePac:

; 384  : 		return true;

  0003d	b0 01		 mov	 al, 1
  0003f	5e		 pop	 esi

; 387  : }

  00040	8b e5		 mov	 esp, ebp
  00042	5d		 pop	 ebp
  00043	c2 10 00	 ret	 16			; 00000010H
?__AnalyzePacket@CGuildMarkUploader@@AAE_NIIP81@AE_NXZ@Z ENDP ; CGuildMarkUploader::__AnalyzePacket
_TEXT	ENDS
END
