; Listing generated by Microsoft (R) Optimizing Compiler Version 19.44.35219.0 

	TITLE	c:\anka2project\anka2project\source\binary\vs_files\userinterface\release\instancebase.obj
	.686P
	.XMM
	include listing.inc
	.model	flat

INCLUDELIB OLDNAMES

PUBLIC	??_C@_1KC@MEHOMOLH@?$AAC?$AA?3?$AA?2?$AAA?$AAn?$AAk?$AAa?$AA2?$AAP?$AAr?$AAo?$AAj?$AAe?$AAc?$AAt@ ; `string'
PUBLIC	??_C@_1CG@IGBIAIJA@?$AAm?$AA_?$AAp?$AAk?$AAA?$AAc?$AAt?$AAo?$AAr?$AA?$DN?$AA?$DN?$AAn?$AAu?$AAl?$AAl@ ; `string'
PUBLIC	??_C@_0CO@HHECMCIN@CInstanceBase?3?3SHORSE?3?3Create?5?9@ ; `string'
PUBLIC	??_C@_1IG@HGDICGNA@?$AAN?$AAU?$AAL?$AAL?$AA?$DN?$AA?$DN?$AAm?$AA_?$AAp?$AAk?$AAA?$AAc?$AAt?$AAo?$AAr@ ; `string'
PUBLIC	??_C@_0CD@JHMKKADJ@CInstanceBase?3?3SHORSE?3?3GetActor@ ; `string'
PUBLIC	??_C@_1HA@MDLILCCL@?$AAN?$AAU?$AAL?$AAL?$AA?$CB?$AA?$DN?$AAm?$AA_?$AAp?$AAk?$AAA?$AAc?$AAt?$AAo?$AAr@ ; `string'
PUBLIC	??_C@_06PNAKCKLH@saddle@			; `string'
PUBLIC	??_C@_0EL@PHAIMNFF@CInstanceBase?3?3__EnableSkipColl@ ; `string'
PUBLIC	??_C@_01CLKCMJKC@?5@				; `string'
PUBLIC	??_C@_0BP@PGINAIMI@Inst?5?9?5UC?5?$CFd?0?5RC?5?$CFd?5Pool?5?9?5?$CFd?5@ ; `string'
PUBLIC	??_C@_1FI@LCMHCAJP@?$AAp?$AAa?$AAr?$AAt?$AA?5?$AA?$DO?$AA?$DN?$AA?5?$AA0?$AA?5?$AA?$CG?$AA?$CG?$AA?5?$AAp?$AAa@ ; `string'
PUBLIC	??_C@_0FB@HJIAHMHN@CInstanceBase?3?3PushTCPState?3?5Oy@ ; `string'
PUBLIC	??_C@_0DM@EIDAANLK@vid?$DN?$CFd?5?$LP?r?A?w?$MA?O?5?$LM?v?5?$LO?x?$LE?B?5?$LL?s?E?B?$LG?s?5?$LN?$LK@ ; `string'
PUBLIC	??_C@_0EG@MNIPPABI@CPythonCharacterManager?3?3Change@ ; `string'
PUBLIC	??_C@_0N@DLOEJLFF@Bip01?5Spine2@		; `string'
PUBLIC	??_C@_1KI@FIPHLMOB@?$AAC?$AA?3?$AA?2?$AAA?$AAn?$AAk?$AAa?$AA2?$AAP?$AAr?$AAo?$AAj?$AAe?$AAc?$AAt@ ; `string'
PUBLIC	??_C@_1CM@FPMBEAEA@?$AAm?$AAs?$AA_?$AAs?$AAi?$AAn?$AAg?$AAl?$AAe?$AAt?$AAo?$AAn?$AA?$CB?$AA?$DN?$AAn@ ; `string'
PUBLIC	??_C@_0O@NKNMEGII@list?5too?5long@		; `string'
PUBLIC	??_C@_0BL@GOIGLPKN@unordered_map?1set?5too?5long@ ; `string'
PUBLIC	??_C@_0BK@OGNNAFAB@invalid?5hash?5bucket?5count@ ; `string'
PUBLIC	??_R2CActorInstanceBackground@@8		; CActorInstanceBackground::`RTTI Base Class Array'
PUBLIC	??_R2?$CDynamicPool@VCInstanceBase@@@@8		; CDynamicPool<CInstanceBase>::`RTTI Base Class Array'
PUBLIC	??_R2CInstanceBase@@8				; CInstanceBase::`RTTI Base Class Array'
PUBLIC	??_R1A@?0A@EA@CActorInstanceBackground@@8	; CActorInstanceBackground::`RTTI Base Class Descriptor at (0,-1,0,64)'
PUBLIC	??_R1A@?0A@EA@?$CDynamicPool@VCInstanceBase@@@@8 ; CDynamicPool<CInstanceBase>::`RTTI Base Class Descriptor at (0,-1,0,64)'
PUBLIC	??_R1A@?0A@EA@CInstanceBase@@8			; CInstanceBase::`RTTI Base Class Descriptor at (0,-1,0,64)'
PUBLIC	??_R3CActorInstanceBackground@@8		; CActorInstanceBackground::`RTTI Class Hierarchy Descriptor'
PUBLIC	??_R0?AVCActorInstanceBackground@@@8		; CActorInstanceBackground `RTTI Type Descriptor'
PUBLIC	??_R3?$CDynamicPool@VCInstanceBase@@@@8		; CDynamicPool<CInstanceBase>::`RTTI Class Hierarchy Descriptor'
PUBLIC	??_R0?AV?$CDynamicPool@VCInstanceBase@@@@@8	; CDynamicPool<CInstanceBase> `RTTI Type Descriptor'
PUBLIC	??_R3CInstanceBase@@8				; CInstanceBase::`RTTI Class Hierarchy Descriptor'
PUBLIC	??_R0?AVCInstanceBase@@@8			; CInstanceBase `RTTI Type Descriptor'
PUBLIC	??_R4CActorInstanceBackground@@6B@		; CActorInstanceBackground::`RTTI Complete Object Locator'
PUBLIC	??_R4?$CDynamicPool@VCInstanceBase@@@@6B@	; CDynamicPool<CInstanceBase>::`RTTI Complete Object Locator'
PUBLIC	??_R4CInstanceBase@@6B@				; CInstanceBase::`RTTI Complete Object Locator'
PUBLIC	?ms_singleton@?$CSingleton@VCStateManager@@@@0PAVCStateManager@@A ; CSingleton<CStateManager>::ms_singleton
PUBLIC	??_7?$CDynamicPool@VCInstanceBase@@@@6B@	; CDynamicPool<CInstanceBase>::`vftable'
PUBLIC	?ms_singleton@?$CSingleton@VCPythonNonPlayer@@@@0PAVCPythonNonPlayer@@A ; CSingleton<CPythonNonPlayer>::ms_singleton
PUBLIC	?ms_singleton@?$TAbstractSingleton@VIAbstractPlayer@@@@0PAVIAbstractPlayer@@A ; TAbstractSingleton<IAbstractPlayer>::ms_singleton
PUBLIC	?ms_singleton@?$CSingleton@VCPythonSkill@@@@0PAVCPythonSkill@@A ; CSingleton<CPythonSkill>::ms_singleton
PUBLIC	?ms_singleton@?$CSingleton@VCPythonPlayer@@@@0PAVCPythonPlayer@@A ; CSingleton<CPythonPlayer>::ms_singleton
PUBLIC	?ms_singleton@?$TAbstractSingleton@VIAbstractApplication@@@@0PAVIAbstractApplication@@A ; TAbstractSingleton<IAbstractApplication>::ms_singleton
PUBLIC	?ms_singleton@?$CSingleton@VCItemManager@@@@0PAVCItemManager@@A ; CSingleton<CItemManager>::ms_singleton
PUBLIC	?ms_singleton@?$CSingleton@VCRaceManager@@@@0PAVCRaceManager@@A ; CSingleton<CRaceManager>::ms_singleton
PUBLIC	?ms_singleton@?$CSingleton@VCPythonSystem@@@@0PAVCPythonSystem@@A ; CSingleton<CPythonSystem>::ms_singleton
PUBLIC	??_C@_1CM@EMHIMJGH@?$AAm?$AA_?$AAk?$AAV?$AAc?$AAt?$AA_?$AAp?$AAk?$AAD?$AAa?$AAt?$AAa?$AA?4?$AAe@ ; `string'
PUBLIC	??_7CInstanceBase@@6B@				; CInstanceBase::`vftable'
PUBLIC	?_Min_buckets@?$_Hash@V?$_Umap_traits@KMV?$_Uhash_compare@KU?$hash@K@std@@U?$equal_to@K@2@@std@@V?$allocator@U?$pair@$$CBKM@std@@@2@$0A@@std@@@std@@2IB ; std::_Hash<std::_Umap_traits<unsigned long,float,std::_Uhash_compare<unsigned long,std::hash<unsigned long>,std::equal_to<unsigned long> >,std::allocator<std::pair<unsigned long const ,float> >,0> >::_Min_buckets
PUBLIC	?g_iAccumulationTime@@3HA			; g_iAccumulationTime
PUBLIC	?_OptionsStorage@?1??__local_stdio_printf_options@@9@4_KA ; `__local_stdio_printf_options'::`2'::_OptionsStorage
PUBLIC	?ms_dwDeformCounter@CInstanceBase@@1KA		; CInstanceBase::ms_dwDeformCounter
PUBLIC	?ms_dwRenderCounter@CInstanceBase@@1KA		; CInstanceBase::ms_dwRenderCounter
PUBLIC	?ms_dwUpdateCounter@CInstanceBase@@1KA		; CInstanceBase::ms_dwUpdateCounter
PUBLIC	??_7CActorInstanceBackground@@6B@		; CActorInstanceBackground::`vftable'
PUBLIC	??_R4?$CSingleton@VIBackground@@@@6B@		; CSingleton<IBackground>::`RTTI Complete Object Locator'
PUBLIC	??_7?$CSingleton@VIBackground@@@@6B@		; CSingleton<IBackground>::`vftable'
PUBLIC	?ms_singleton@?$CSingleton@VIBackground@@@@0PAVIBackground@@A ; CSingleton<IBackground>::ms_singleton
PUBLIC	??_R0?AVIBackground@@@8				; IBackground `RTTI Type Descriptor'
PUBLIC	??_R1A@?0A@EA@IBackground@@8			; IBackground::`RTTI Base Class Descriptor at (0,-1,0,64)'
PUBLIC	??_R0?AV?$CSingleton@VIBackground@@@@@8		; CSingleton<IBackground> `RTTI Type Descriptor'
PUBLIC	??_R2?$CSingleton@VIBackground@@@@8		; CSingleton<IBackground>::`RTTI Base Class Array'
PUBLIC	??_R3?$CSingleton@VIBackground@@@@8		; CSingleton<IBackground>::`RTTI Class Hierarchy Descriptor'
PUBLIC	??_R1A@?0A@EA@?$CSingleton@VIBackground@@@@8	; CSingleton<IBackground>::`RTTI Base Class Descriptor at (0,-1,0,64)'
PUBLIC	??_R2IBackground@@8				; IBackground::`RTTI Base Class Array'
PUBLIC	??_R3IBackground@@8				; IBackground::`RTTI Class Hierarchy Descriptor'
PUBLIC	??_R4IBackground@@6B@				; IBackground::`RTTI Complete Object Locator'
PUBLIC	??_7IBackground@@6B@				; IBackground::`vftable'
PUBLIC	?USE_ARMOR_SPECULAR@@3HA			; USE_ARMOR_SPECULAR
PUBLIC	?HAIR_COLOR_ENABLE@@3HA				; HAIR_COLOR_ENABLE
EXTRN	___std_find_first_of_trivial_pos_1@16:PROC
EXTRN	___std_find_trivial_4@12:PROC
EXTRN	?AttachEffectByID@CActorInstance@@QAEKKPBDKPBUD3DXVECTOR3@@PAKM1@Z:PROC ; CActorInstance::AttachEffectByID
EXTRN	?GetAuraParticleScale@CItemData@@QAEMEE@Z:PROC	; CItemData::GetAuraParticleScale
EXTRN	?GetAuraMeshScaleVector@CItemData@@QAEAAUD3DXVECTOR3@@EE@Z:PROC ; CItemData::GetAuraMeshScaleVector
EXTRN	?ChangePart@CActorInstance@@QAEXKK@Z:PROC	; CActorInstance::ChangePart
EXTRN	?GetRaceHeight@CRaceManager@@QAEMH@Z:PROC	; CRaceManager::GetRaceHeight
EXTRN	?GetBoundBox@CGraphicThingInstance@@QAEXPAUD3DXVECTOR3@@0@Z:PROC ; CGraphicThingInstance::GetBoundBox
EXTRN	??1CActorInstance@@UAE@XZ:PROC			; CActorInstance::~CActorInstance
EXTRN	?Initialize@CGraphicObjectInstance@@QAEXXZ:PROC	; CGraphicObjectInstance::Initialize
EXTRN	?DestroyDeviceObjects@CGraphicThingInstance@@QAEXXZ:PROC ; CGraphicThingInstance::DestroyDeviceObjects
EXTRN	?CreateDeviceObjects@CGraphicThingInstance@@QAE_NXZ:PROC ; CGraphicThingInstance::CreateDeviceObjects
EXTRN	?RegisterBoundingSphere@CGraphicObjectInstance@@QAEXXZ:PROC ; CGraphicObjectInstance::RegisterBoundingSphere
EXTRN	?DeformNoSkin@CGraphicThingInstance@@QAEXXZ:PROC ; CGraphicThingInstance::DeformNoSkin
EXTRN	?InterceptLoopMotion@CActorInstance@@QAE_NKM@Z:PROC ; CActorInstance::InterceptLoopMotion
EXTRN	?GetPartItemID@CActorInstance@@QAEKK@Z:PROC	; CActorInstance::GetPartItemID
EXTRN	?AttachWeapon@CActorInstance@@QAEXKKK@Z:PROC	; CActorInstance::AttachWeapon
EXTRN	?GetSubType@CItemData@@QBEEXZ:PROC		; CItemData::GetSubType
EXTRN	?GetIndex@CItemData@@QBEKXZ:PROC		; CItemData::GetIndex
EXTRN	?GetSocketCount@CItemData@@QBEHXZ:PROC		; CItemData::GetSocketCount
EXTRN	?GetRefine@CItemData@@QBEIXZ:PROC		; CItemData::GetRefine
EXTRN	?GetWeaponType@CItemData@@QBEKXZ:PROC		; CItemData::GetWeaponType
EXTRN	?GetType@CItemData@@QBEEXZ:PROC			; CItemData::GetType
EXTRN	?GetItemScaleVector@CItemData@@QAEAAUD3DXVECTOR3@@EE@Z:PROC ; CItemData::GetItemScaleVector
EXTRN	?SetAcceScale@CGraphicObjectInstance@@QAEXABUD3DXVECTOR3@@E@Z:PROC ; CGraphicObjectInstance::SetAcceScale
EXTRN	?AttachAcce@CActorInstance@@QAEXPAVCItemData@@M@Z:PROC ; CActorInstance::AttachAcce
EXTRN	?SetAcceScale@CGraphicObjectInstance@@QAEXMMM@Z:PROC ; CGraphicObjectInstance::SetAcceScale
EXTRN	?GetSpecularPowerf@CItemData@@QBEMXZ:PROC	; CItemData::GetSpecularPowerf
EXTRN	?SetHair@CActorInstance@@QAEXKM@Z:PROC		; CActorInstance::SetHair
EXTRN	?GetAlphaValue@CActorInstance@@QAEMXZ:PROC	; CActorInstance::GetAlphaValue
EXTRN	?SetBlendRenderMode@CActorInstance@@QAEXXZ:PROC	; CActorInstance::SetBlendRenderMode
EXTRN	?SetAddColor@CActorInstance@@QAEXABUD3DXCOLOR@@@Z:PROC ; CActorInstance::SetAddColor
EXTRN	?SetRenderMode@CActorInstance@@QAEXH@Z:PROC	; CActorInstance::SetRenderMode
EXTRN	?SetModulateRenderMode@CActorInstance@@QAEXXZ:PROC ; CActorInstance::SetModulateRenderMode
EXTRN	?SetAddRenderMode@CActorInstance@@QAEXXZ:PROC	; CActorInstance::SetAddRenderMode
EXTRN	?RestoreRenderMode@CActorInstance@@QAEXXZ:PROC	; CActorInstance::RestoreRenderMode
EXTRN	?IntersectDefendingSphere@CActorInstance@@QAE_NXZ:PROC ; CActorInstance::IntersectDefendingSphere
EXTRN	?Intersect@CGraphicThingInstance@@QAE_NPAM00@Z:PROC ; CGraphicThingInstance::Intersect
EXTRN	?isShow@CGraphicObjectInstance@@QAE_NXZ:PROC	; CGraphicObjectInstance::isShow
EXTRN	?GetActorType@CActorInstance@@QBEIXZ:PROC	; CActorInstance::GetActorType
EXTRN	?IsDoor@CActorInstance@@QAE_NXZ:PROC		; CActorInstance::IsDoor
EXTRN	?IsBuilding@CActorInstance@@QAE_NXZ:PROC	; CActorInstance::IsBuilding
EXTRN	?IsObject@CActorInstance@@QAE_NXZ:PROC		; CActorInstance::IsObject
EXTRN	?IsGoto@CActorInstance@@QAE_NXZ:PROC		; CActorInstance::IsGoto
EXTRN	?IsWarp@CActorInstance@@QAE_NXZ:PROC		; CActorInstance::IsWarp
EXTRN	?IsMount@CActorInstance@@QAE_NXZ:PROC		; CActorInstance::IsMount
EXTRN	?IsGrowthPet@CActorInstance@@QAE_NXZ:PROC	; CActorInstance::IsGrowthPet
EXTRN	?IsPet@CActorInstance@@QAE_NXZ:PROC		; CActorInstance::IsPet
EXTRN	?IsHorse@CActorInstance@@QAE_NXZ:PROC		; CActorInstance::IsHorse
EXTRN	?IsStone@CActorInstance@@QAE_NXZ:PROC		; CActorInstance::IsStone
EXTRN	?IsEnemy@CActorInstance@@QAE_NXZ:PROC		; CActorInstance::IsEnemy
EXTRN	?IsNPC@CActorInstance@@QAE_NXZ:PROC		; CActorInstance::IsNPC
EXTRN	?IsPC@CActorInstance@@QAE_NXZ:PROC		; CActorInstance::IsPC
EXTRN	?IsShop@CActorInstance@@QAE_NXZ:PROC		; CActorInstance::IsShop
EXTRN	?IsPoly@CActorInstance@@QAE_NXZ:PROC		; CActorInstance::IsPoly
EXTRN	?CanChangeTarget@CActorInstance@@QAE_NXZ:PROC	; CActorInstance::CanChangeTarget
EXTRN	?SetComboType@CActorInstance@@QAEXG@Z:PROC	; CActorInstance::SetComboType
EXTRN	?SetActorType@CActorInstance@@QAEXI@Z:PROC	; CActorInstance::SetActorType
EXTRN	?SetVirtualID@CActorInstance@@QAEXK@Z:PROC	; CActorInstance::SetVirtualID
EXTRN	?RenderCollisionData@CActorInstance@@QAEXXZ:PROC ; CActorInstance::RenderCollisionData
EXTRN	?RenderToShadowMap@CActorInstance@@QAEXXZ:PROC	; CActorInstance::RenderToShadowMap
EXTRN	?RestoreRenderState@CStateManager@@QAEXW4_D3DRENDERSTATETYPE@@@Z:PROC ; CStateManager::RestoreRenderState
EXTRN	?RenderLine3d@CScreen@@QAEXMMMMMM@Z:PROC	; CScreen::RenderLine3d
EXTRN	?SetDiffuseColor@CScreen@@QAEXMMMM@Z:PROC	; CScreen::SetDiffuseColor
EXTRN	?GetPixelPosition@CActorInstance@@QAEXPAUD3DXVECTOR3@@@Z:PROC ; CActorInstance::GetPixelPosition
EXTRN	?SetRenderState@CStateManager@@QAEXW4_D3DRENDERSTATETYPE@@K@Z:PROC ; CStateManager::SetRenderState
EXTRN	?SaveRenderState@CStateManager@@QAEXW4_D3DRENDERSTATETYPE@@K@Z:PROC ; CStateManager::SaveRenderState
EXTRN	?SetTextureStageState@CStateManager@@QAEXKW4_D3DTEXTURESTAGESTATETYPE@@K@Z:PROC ; CStateManager::SetTextureStageState
EXTRN	__Init_thread_footer:PROC
EXTRN	??0CScreen@@QAE@XZ:PROC				; CScreen::CScreen
EXTRN	__Init_thread_abort:PROC
EXTRN	__Init_thread_header:PROC
EXTRN	__Init_thread_epoch:DWORD
EXTRN	?IsDirLine@CActorInstance@@SA_NXZ:PROC		; CActorInstance::IsDirLine
EXTRN	?RenderTrace@CActorInstance@@QAEXXZ:PROC	; CActorInstance::RenderTrace
EXTRN	?INSTANCEBASE_Transform@CActorInstance@@QAEXXZ:PROC ; CActorInstance::INSTANCEBASE_Transform
EXTRN	?HORSE_MotionProcess@CActorInstance@@QAEXH@Z:PROC ; CActorInstance::HORSE_MotionProcess
EXTRN	?SetActiveAllAttachingEffect@CActorInstance@@QAEXXZ:PROC ; CActorInstance::SetActiveAllAttachingEffect
EXTRN	?SetDeactiveAllAttachingEffect@CActorInstance@@QAEXXZ:PROC ; CActorInstance::SetDeactiveAllAttachingEffect
EXTRN	?MotionProcess@CActorInstance@@QAEXH@Z:PROC	; CActorInstance::MotionProcess
EXTRN	?UpdateAdvancingPointInstance@CActorInstance@@QAEXXZ:PROC ; CActorInstance::UpdateAdvancingPointInstance
EXTRN	?SetMaterialColor@CActorInstance@@QAEXK@Z:PROC	; CActorInstance::SetMaterialColor
EXTRN	?ELTimer_GetFrameMSec@@YAKXZ:PROC		; ELTimer_GetFrameMSec
EXTRN	?IsMovement@CActorInstance@@QAEHXZ:PROC		; CActorInstance::IsMovement
EXTRN	?AccumulationMovement@CActorInstance@@QAEXXZ:PROC ; CActorInstance::AccumulationMovement
EXTRN	?ComboProcess@CActorInstance@@QAEXXZ:PROC	; CActorInstance::ComboProcess
EXTRN	?RotationProcess@CActorInstance@@QAEXXZ:PROC	; CActorInstance::RotationProcess
EXTRN	?PhysicsProcess@CActorInstance@@QAEXXZ:PROC	; CActorInstance::PhysicsProcess
EXTRN	?SetAdvancingRotation@CActorInstance@@QAEXM@Z:PROC ; CActorInstance::SetAdvancingRotation
EXTRN	?GetTargetRotation@CActorInstance@@QAEMXZ:PROC	; CActorInstance::GetTargetRotation
EXTRN	?SetRotation@CActorInstance@@QAEXM@Z:PROC	; CActorInstance::SetRotation
EXTRN	?GetSecondElapsed@CGraphicThingInstance@@QAEMXZ:PROC ; CGraphicThingInstance::GetSecondElapsed
EXTRN	?GetRotatingDirection@@YAHMM@Z:PROC		; GetRotatingDirection
EXTRN	?GetAdvancingRotation@CActorInstance@@QAEMXZ:PROC ; CActorInstance::GetAdvancingRotation
EXTRN	?GetRotation@CActorInstance@@QAEMXZ:PROC	; CActorInstance::GetRotation
EXTRN	?IsUsingMovingSkill@CActorInstance@@QAEHXZ:PROC	; CActorInstance::IsUsingMovingSkill
EXTRN	?GetMovementVectorRef@CActorInstance@@QAEABUD3DXVECTOR3@@XZ:PROC ; CActorInstance::GetMovementVectorRef
EXTRN	?InterceptOnceMotion@CActorInstance@@QAE_NKMIM@Z:PROC ; CActorInstance::InterceptOnceMotion
EXTRN	?Lognf@@YAXIPBDZZ:PROC				; Lognf
EXTRN	?IsActEmotion@CActorInstance@@QAEHXZ:PROC	; CActorInstance::IsActEmotion
EXTRN	?CanCancelSkill@CActorInstance@@QAEHXZ:PROC	; CActorInstance::CanCancelSkill
EXTRN	?IsUsingSkill@CActorInstance@@QAEHXZ:PROC	; CActorInstance::IsUsingSkill
EXTRN	?IsKnockDown@CActorInstance@@QAEHXZ:PROC	; CActorInstance::IsKnockDown
EXTRN	?ELTimer_GetServerFrameMSec@@YAKXZ:PROC		; ELTimer_GetServerFrameMSec
EXTRN	?GetLocalTime@CGraphicThingInstance@@QAEMXZ:PROC ; CGraphicThingInstance::GetLocalTime
EXTRN	?SetOwner@CActorInstance@@QAEXK@Z:PROC		; CActorInstance::SetOwner
EXTRN	?__IsSyncing@CActorInstance@@QAE_NXZ:PROC	; CActorInstance::__IsSyncing
EXTRN	?IsSleep@CActorInstance@@QAEHXZ:PROC		; CActorInstance::IsSleep
EXTRN	?IsStun@CActorInstance@@QAEHXZ:PROC		; CActorInstance::IsStun
EXTRN	?IsDead@CActorInstance@@QAEHXZ:PROC		; CActorInstance::IsDead
EXTRN	?IsFishing@CActorInstance@@QAEHXZ:PROC		; CActorInstance::IsFishing
EXTRN	?GetMotionMode@CActorInstance@@QAEHXZ:PROC	; CActorInstance::GetMotionMode
EXTRN	?IsHandMode@CActorInstance@@QAE_NXZ:PROC	; CActorInstance::IsHandMode
EXTRN	?IsBowMode@CActorInstance@@QAE_NXZ:PROC		; CActorInstance::IsBowMode
EXTRN	?CanFishing@CActorInstance@@QAE_NXZ:PROC	; CActorInstance::CanFishing
EXTRN	?CanAttack@CActorInstance@@QAE_NXZ:PROC		; CActorInstance::CanAttack
EXTRN	?CanUseSkill@CActorInstance@@QAE_NXZ:PROC	; CActorInstance::CanUseSkill
EXTRN	?CanMove@CActorInstance@@QAE_NXZ:PROC		; CActorInstance::CanMove
EXTRN	?CanAct@CActorInstance@@QAE_NXZ:PROC		; CActorInstance::CanAct
EXTRN	?IsAttacked@CActorInstance@@QAEHXZ:PROC		; CActorInstance::IsAttacked
EXTRN	?isAttacking@CActorInstance@@QAEHXZ:PROC	; CActorInstance::isAttacking
EXTRN	?__OnMoving@CActorInstance@@QAEXXZ:PROC		; CActorInstance::__OnMoving
EXTRN	?__OnWaiting@CActorInstance@@QAEXXZ:PROC	; CActorInstance::__OnWaiting
EXTRN	?__OnSyncing@CActorInstance@@QAEXXZ:PROC	; CActorInstance::__OnSyncing
EXTRN	?NEW_GetSrcPixelPositionRef@CActorInstance@@QAEABUD3DXVECTOR3@@XZ:PROC ; CActorInstance::NEW_GetSrcPixelPositionRef
EXTRN	?NEW_GetDstPixelPositionRef@CActorInstance@@QAEABUD3DXVECTOR3@@XZ:PROC ; CActorInstance::NEW_GetDstPixelPositionRef
EXTRN	?NEW_SetSrcPixelPosition@CActorInstance@@QAEXABUD3DXVECTOR3@@@Z:PROC ; CActorInstance::NEW_SetSrcPixelPosition
EXTRN	?NEW_SetDstPixelPosition@CActorInstance@@QAEXABUD3DXVECTOR3@@@Z:PROC ; CActorInstance::NEW_SetDstPixelPosition
EXTRN	?NEW_SetDstPixelPositionZ@CActorInstance@@QAEXM@Z:PROC ; CActorInstance::NEW_SetDstPixelPositionZ
EXTRN	?NEW_GetLastPixelPositionRef@CActorInstance@@QAEABUD3DXVECTOR3@@XZ:PROC ; CActorInstance::NEW_GetLastPixelPositionRef
EXTRN	?IsPushing@CActorInstance@@QAE_NXZ:PROC		; CActorInstance::IsPushing
EXTRN	___stdio_common_vsprintf:PROC
EXTRN	?MountHorse@CActorInstance@@QAEXPAV1@@Z:PROC	; CActorInstance::MountHorse
EXTRN	?ChangeSkillColor@CActorInstance@@QAEXPBK@Z:PROC ; CActorInstance::ChangeSkillColor
EXTRN	?ChangeMaterial@CActorInstance@@QAEXPBD@Z:PROC	; CActorInstance::ChangeMaterial
EXTRN	?IsFile@@YA_NPBD@Z:PROC				; IsFile
EXTRN	?DieEnd@CActorInstance@@QAEXXZ:PROC		; CActorInstance::DieEnd
EXTRN	?SetScale@CGraphicObjectInstance@@QAEXMMM_N@Z:PROC ; CGraphicObjectInstance::SetScale
EXTRN	?SetMainInstance@CActorInstance@@QAEXXZ:PROC	; CActorInstance::SetMainInstance
EXTRN	?SPixelPosition_CalculateDistanceSq3d@@YAMABUD3DXVECTOR3@@0@Z:PROC ; SPixelPosition_CalculateDistanceSq3d
EXTRN	?NEW_GetCurPixelPositionRef@CActorInstance@@QAEABUD3DXVECTOR3@@XZ:PROC ; CActorInstance::NEW_GetCurPixelPositionRef
EXTRN	?IsParalysis@CActorInstance@@QAEHXZ:PROC	; CActorInstance::IsParalysis
EXTRN	?GetShadowMapColor@CMapManager@@QAEKMM@Z:PROC	; CMapManager::GetShadowMapColor
EXTRN	?DisableSkipCollision@CActorInstance@@QAEXXZ:PROC ; CActorInstance::DisableSkipCollision
EXTRN	?EnableSkipCollision@CActorInstance@@QAEXXZ:PROC ; CActorInstance::EnableSkipCollision
EXTRN	?isAttrOn@CMapManager@@QAE_NMME@Z:PROC		; CMapManager::isAttrOn
EXTRN	?GetWaterHeight@CMapManager@@QAE_NHHPAJ@Z:PROC	; CMapManager::GetWaterHeight
EXTRN	?GetLODControllerPointer@CGraphicThingInstance@@QAEPAVCGrannyLODController@@K@Z:PROC ; CGraphicThingInstance::GetLODControllerPointer
EXTRN	?isAttrOn@CMapManager@@QAE_NHHE@Z:PROC		; CMapManager::isAttrOn
EXTRN	__purecall:PROC
EXTRN	?GetValue@CItemData@@QBEJE@Z:PROC		; CItemData::GetValue
EXTRN	?GetItemDataPointer@CItemManager@@QAEHKPAPAVCItemData@@@Z:PROC ; CItemManager::GetItemDataPointer
EXTRN	?AvoidObject@CActorInstance@@QAE_NABVCGraphicObjectInstance@@@Z:PROC ; CActorInstance::AvoidObject
EXTRN	?IsBlockObject@CActorInstance@@QAE_NABVCGraphicObjectInstance@@@Z:PROC ; CActorInstance::IsBlockObject
EXTRN	?BlockMovement@CActorInstance@@QAEXXZ:PROC	; CActorInstance::BlockMovement
EXTRN	?DetachModelInstance@CGraphicThingInstance@@QAEXHAAV1@H@Z:PROC ; CGraphicThingInstance::DetachModelInstance
EXTRN	?AttachModelInstance@CGraphicThingInstance@@QAEXHPBDAAV1@H@Z:PROC ; CGraphicThingInstance::AttachModelInstance
EXTRN	?Render@CGraphicObjectInstance@@QAE_NXZ:PROC	; CGraphicObjectInstance::Render
EXTRN	?INSTANCEBASE_Deform@CActorInstance@@QAEXXZ:PROC ; CActorInstance::INSTANCEBASE_Deform
EXTRN	?GetRace@CActorInstance@@QAEKXZ:PROC		; CActorInstance::GetRace
EXTRN	?Destroy@CActorInstance@@QAEXXZ:PROC		; CActorInstance::Destroy
EXTRN	?SetCurPixelPosition@CActorInstance@@QAEXABUD3DXVECTOR3@@@Z:PROC ; CActorInstance::SetCurPixelPosition
EXTRN	?RefreshActorInstance@CActorInstance@@QAEXXZ:PROC ; CActorInstance::RefreshActorInstance
EXTRN	?Stop@CActorInstance@@QAEXM@Z:PROC		; CActorInstance::Stop
EXTRN	?SetMotionMode@CActorInstance@@QAEXH@Z:PROC	; CActorInstance::SetMotionMode
EXTRN	?BlendAlphaValue@CActorInstance@@QAEXMM@Z:PROC	; CActorInstance::BlendAlphaValue
EXTRN	?SetAlphaValue@CActorInstance@@QAEXM@Z:PROC	; CActorInstance::SetAlphaValue
EXTRN	?SetBattleHitEffect@CActorInstance@@QAEXK@Z:PROC ; CActorInstance::SetBattleHitEffect
EXTRN	?SetShape@CActorInstance@@QAEXKM@Z:PROC		; CActorInstance::SetShape
EXTRN	?SetRace@CActorInstance@@QAE_NK@Z:PROC		; CActorInstance::SetRace
EXTRN	?GetEmptyPtr@IEventHandler@CActorInstance@@SAPAV12@XZ:PROC ; CActorInstance::IEventHandler::GetEmptyPtr
EXTRN	?SetEventHandler@CActorInstance@@QAEXPAVIEventHandler@1@@Z:PROC ; CActorInstance::SetEventHandler
EXTRN	??0CActorInstance@@QAE@XZ:PROC			; CActorInstance::CActorInstance
EXTRN	?SetMoveSpeed@CActorInstance@@QAEXM@Z:PROC	; CActorInstance::SetMoveSpeed
EXTRN	?SetAttackSpeed@CActorInstance@@QAEXM@Z:PROC	; CActorInstance::SetAttackSpeed
EXTRN	??1CScreen@@UAE@XZ:PROC				; CScreen::~CScreen
;	COMDAT ?ms_singleton@?$CSingleton@VCStateManager@@@@0PAVCStateManager@@A
_BSS	SEGMENT
?ms_singleton@?$CSingleton@VCStateManager@@@@0PAVCStateManager@@A DD 01H DUP (?) ; CSingleton<CStateManager>::ms_singleton
_BSS	ENDS
;	COMDAT ?ms_singleton@?$CSingleton@VCPythonNonPlayer@@@@0PAVCPythonNonPlayer@@A
_BSS	SEGMENT
?ms_singleton@?$CSingleton@VCPythonNonPlayer@@@@0PAVCPythonNonPlayer@@A DD 01H DUP (?) ; CSingleton<CPythonNonPlayer>::ms_singleton
_BSS	ENDS
;	COMDAT ?ms_singleton@?$TAbstractSingleton@VIAbstractPlayer@@@@0PAVIAbstractPlayer@@A
_BSS	SEGMENT
?ms_singleton@?$TAbstractSingleton@VIAbstractPlayer@@@@0PAVIAbstractPlayer@@A DD 01H DUP (?) ; TAbstractSingleton<IAbstractPlayer>::ms_singleton
_BSS	ENDS
;	COMDAT ?ms_singleton@?$CSingleton@VCPythonSkill@@@@0PAVCPythonSkill@@A
_BSS	SEGMENT
?ms_singleton@?$CSingleton@VCPythonSkill@@@@0PAVCPythonSkill@@A DD 01H DUP (?) ; CSingleton<CPythonSkill>::ms_singleton
_BSS	ENDS
;	COMDAT ?ms_singleton@?$CSingleton@VCPythonPlayer@@@@0PAVCPythonPlayer@@A
_BSS	SEGMENT
?ms_singleton@?$CSingleton@VCPythonPlayer@@@@0PAVCPythonPlayer@@A DD 01H DUP (?) ; CSingleton<CPythonPlayer>::ms_singleton
_BSS	ENDS
;	COMDAT ?ms_singleton@?$TAbstractSingleton@VIAbstractApplication@@@@0PAVIAbstractApplication@@A
_BSS	SEGMENT
?ms_singleton@?$TAbstractSingleton@VIAbstractApplication@@@@0PAVIAbstractApplication@@A DD 01H DUP (?) ; TAbstractSingleton<IAbstractApplication>::ms_singleton
_BSS	ENDS
;	COMDAT ?ms_singleton@?$CSingleton@VCItemManager@@@@0PAVCItemManager@@A
_BSS	SEGMENT
?ms_singleton@?$CSingleton@VCItemManager@@@@0PAVCItemManager@@A DD 01H DUP (?) ; CSingleton<CItemManager>::ms_singleton
_BSS	ENDS
;	COMDAT ?ms_singleton@?$CSingleton@VCRaceManager@@@@0PAVCRaceManager@@A
_BSS	SEGMENT
?ms_singleton@?$CSingleton@VCRaceManager@@@@0PAVCRaceManager@@A DD 01H DUP (?) ; CSingleton<CRaceManager>::ms_singleton
_BSS	ENDS
;	COMDAT ?ms_singleton@?$CSingleton@VCPythonSystem@@@@0PAVCPythonSystem@@A
_BSS	SEGMENT
?ms_singleton@?$CSingleton@VCPythonSystem@@@@0PAVCPythonSystem@@A DD 01H DUP (?) ; CSingleton<CPythonSystem>::ms_singleton
?g_iAccumulationTime@@3HA DD 01H DUP (?)		; g_iAccumulationTime
_BSS	ENDS
;	COMDAT ?_OptionsStorage@?1??__local_stdio_printf_options@@9@4_KA
_BSS	SEGMENT
?_OptionsStorage@?1??__local_stdio_printf_options@@9@4_KA DQ 01H DUP (?) ; `__local_stdio_printf_options'::`2'::_OptionsStorage
?ms_dwDeformCounter@CInstanceBase@@1KA DD 01H DUP (?)	; CInstanceBase::ms_dwDeformCounter
?ms_dwRenderCounter@CInstanceBase@@1KA DD 01H DUP (?)	; CInstanceBase::ms_dwRenderCounter
?ms_dwUpdateCounter@CInstanceBase@@1KA DD 01H DUP (?)	; CInstanceBase::ms_dwUpdateCounter
_BSS	ENDS
;	COMDAT ?ms_singleton@?$CSingleton@VIBackground@@@@0PAVIBackground@@A
_BSS	SEGMENT
?ms_singleton@?$CSingleton@VIBackground@@@@0PAVIBackground@@A DD 01H DUP (?) ; CSingleton<IBackground>::ms_singleton
?HAIR_COLOR_ENABLE@@3HA DD 01H DUP (?)			; HAIR_COLOR_ENABLE
_BSS	ENDS
;	COMDAT ??_7IBackground@@6B@
CONST	SEGMENT
??_7IBackground@@6B@ DD FLAT:??_R4IBackground@@6B@	; IBackground::`vftable'
	DD	FLAT:??_EIBackground@@UAEPAXI@Z
	DD	FLAT:__purecall
CONST	ENDS
;	COMDAT ??_R4IBackground@@6B@
rdata$r	SEGMENT
??_R4IBackground@@6B@ DD 00H				; IBackground::`RTTI Complete Object Locator'
	DD	00H
	DD	00H
	DD	FLAT:??_R0?AVIBackground@@@8
	DD	FLAT:??_R3IBackground@@8
rdata$r	ENDS
;	COMDAT ??_R3IBackground@@8
rdata$r	SEGMENT
??_R3IBackground@@8 DD 00H				; IBackground::`RTTI Class Hierarchy Descriptor'
	DD	00H
	DD	02H
	DD	FLAT:??_R2IBackground@@8
rdata$r	ENDS
;	COMDAT ??_R2IBackground@@8
rdata$r	SEGMENT
??_R2IBackground@@8 DD FLAT:??_R1A@?0A@EA@IBackground@@8 ; IBackground::`RTTI Base Class Array'
	DD	FLAT:??_R1A@?0A@EA@?$CSingleton@VIBackground@@@@8
rdata$r	ENDS
;	COMDAT ??_R1A@?0A@EA@?$CSingleton@VIBackground@@@@8
rdata$r	SEGMENT
??_R1A@?0A@EA@?$CSingleton@VIBackground@@@@8 DD FLAT:??_R0?AV?$CSingleton@VIBackground@@@@@8 ; CSingleton<IBackground>::`RTTI Base Class Descriptor at (0,-1,0,64)'
	DD	00H
	DD	00H
	DD	0ffffffffH
	DD	00H
	DD	040H
	DD	FLAT:??_R3?$CSingleton@VIBackground@@@@8
rdata$r	ENDS
;	COMDAT ??_R3?$CSingleton@VIBackground@@@@8
rdata$r	SEGMENT
??_R3?$CSingleton@VIBackground@@@@8 DD 00H		; CSingleton<IBackground>::`RTTI Class Hierarchy Descriptor'
	DD	00H
	DD	01H
	DD	FLAT:??_R2?$CSingleton@VIBackground@@@@8
rdata$r	ENDS
;	COMDAT ??_R2?$CSingleton@VIBackground@@@@8
rdata$r	SEGMENT
??_R2?$CSingleton@VIBackground@@@@8 DD FLAT:??_R1A@?0A@EA@?$CSingleton@VIBackground@@@@8 ; CSingleton<IBackground>::`RTTI Base Class Array'
rdata$r	ENDS
;	COMDAT ??_R0?AV?$CSingleton@VIBackground@@@@@8
data$rs	SEGMENT
??_R0?AV?$CSingleton@VIBackground@@@@@8 DD FLAT:??_7type_info@@6B@ ; CSingleton<IBackground> `RTTI Type Descriptor'
	DD	00H
	DB	'.?AV?$CSingleton@VIBackground@@@@', 00H
data$rs	ENDS
;	COMDAT ??_R1A@?0A@EA@IBackground@@8
rdata$r	SEGMENT
??_R1A@?0A@EA@IBackground@@8 DD FLAT:??_R0?AVIBackground@@@8 ; IBackground::`RTTI Base Class Descriptor at (0,-1,0,64)'
	DD	01H
	DD	00H
	DD	0ffffffffH
	DD	00H
	DD	040H
	DD	FLAT:??_R3IBackground@@8
rdata$r	ENDS
;	COMDAT ??_R0?AVIBackground@@@8
data$rs	SEGMENT
??_R0?AVIBackground@@@8 DD FLAT:??_7type_info@@6B@	; IBackground `RTTI Type Descriptor'
	DD	00H
	DB	'.?AVIBackground@@', 00H
data$rs	ENDS
;	COMDAT ??_7?$CSingleton@VIBackground@@@@6B@
CONST	SEGMENT
??_7?$CSingleton@VIBackground@@@@6B@ DD FLAT:??_R4?$CSingleton@VIBackground@@@@6B@ ; CSingleton<IBackground>::`vftable'
	DD	FLAT:??_E?$CSingleton@VIBackground@@@@UAEPAXI@Z
CONST	ENDS
;	COMDAT ??_R4?$CSingleton@VIBackground@@@@6B@
rdata$r	SEGMENT
??_R4?$CSingleton@VIBackground@@@@6B@ DD 00H		; CSingleton<IBackground>::`RTTI Complete Object Locator'
	DD	00H
	DD	00H
	DD	FLAT:??_R0?AV?$CSingleton@VIBackground@@@@@8
	DD	FLAT:??_R3?$CSingleton@VIBackground@@@@8
rdata$r	ENDS
;	COMDAT ??_7CActorInstanceBackground@@6B@
CONST	SEGMENT
??_7CActorInstanceBackground@@6B@ DD FLAT:??_R4CActorInstanceBackground@@6B@ ; CActorInstanceBackground::`vftable'
	DD	FLAT:??_ECActorInstanceBackground@@UAEPAXI@Z
	DD	FLAT:?IsBlock@CActorInstanceBackground@@UAE_NHH@Z
CONST	ENDS
;	COMDAT ?_Min_buckets@?$_Hash@V?$_Umap_traits@KMV?$_Uhash_compare@KU?$hash@K@std@@U?$equal_to@K@2@@std@@V?$allocator@U?$pair@$$CBKM@std@@@2@$0A@@std@@@std@@2IB
CONST	SEGMENT
?_Min_buckets@?$_Hash@V?$_Umap_traits@KMV?$_Uhash_compare@KU?$hash@K@std@@U?$equal_to@K@2@@std@@V?$allocator@U?$pair@$$CBKM@std@@@2@$0A@@std@@@std@@2IB DD 08H ; std::_Hash<std::_Umap_traits<unsigned long,float,std::_Uhash_compare<unsigned long,std::hash<unsigned long>,std::equal_to<unsigned long> >,std::allocator<std::pair<unsigned long const ,float> >,0> >::_Min_buckets
CONST	ENDS
;	COMDAT ??_7CInstanceBase@@6B@
CONST	SEGMENT
??_7CInstanceBase@@6B@ DD FLAT:??_R4CInstanceBase@@6B@	; CInstanceBase::`vftable'
	DD	FLAT:??_ECInstanceBase@@UAEPAXI@Z
CONST	ENDS
;	COMDAT ??_C@_1CM@EMHIMJGH@?$AAm?$AA_?$AAk?$AAV?$AAc?$AAt?$AA_?$AAp?$AAk?$AAD?$AAa?$AAt?$AAa?$AA?4?$AAe@
CONST	SEGMENT
??_C@_1CM@EMHIMJGH@?$AAm?$AA_?$AAk?$AAV?$AAc?$AAt?$AA_?$AAp?$AAk?$AAD?$AAa?$AAt?$AAa?$AA?4?$AAe@ DB 'm'
	DB	00H, '_', 00H, 'k', 00H, 'V', 00H, 'c', 00H, 't', 00H, '_', 00H
	DB	'p', 00H, 'k', 00H, 'D', 00H, 'a', 00H, 't', 00H, 'a', 00H, '.'
	DB	00H, 'e', 00H, 'm', 00H, 'p', 00H, 't', 00H, 'y', 00H, '(', 00H
	DB	')', 00H, 00H, 00H				; `string'
CONST	ENDS
;	COMDAT ??_7?$CDynamicPool@VCInstanceBase@@@@6B@
CONST	SEGMENT
??_7?$CDynamicPool@VCInstanceBase@@@@6B@ DD FLAT:??_R4?$CDynamicPool@VCInstanceBase@@@@6B@ ; CDynamicPool<CInstanceBase>::`vftable'
	DD	FLAT:??_E?$CDynamicPool@VCInstanceBase@@@@UAEPAXI@Z
CONST	ENDS
;	COMDAT ??_R4CInstanceBase@@6B@
rdata$r	SEGMENT
??_R4CInstanceBase@@6B@ DD 00H				; CInstanceBase::`RTTI Complete Object Locator'
	DD	00H
	DD	00H
	DD	FLAT:??_R0?AVCInstanceBase@@@8
	DD	FLAT:??_R3CInstanceBase@@8
rdata$r	ENDS
;	COMDAT ??_R4?$CDynamicPool@VCInstanceBase@@@@6B@
rdata$r	SEGMENT
??_R4?$CDynamicPool@VCInstanceBase@@@@6B@ DD 00H	; CDynamicPool<CInstanceBase>::`RTTI Complete Object Locator'
	DD	00H
	DD	00H
	DD	FLAT:??_R0?AV?$CDynamicPool@VCInstanceBase@@@@@8
	DD	FLAT:??_R3?$CDynamicPool@VCInstanceBase@@@@8
rdata$r	ENDS
;	COMDAT ??_R4CActorInstanceBackground@@6B@
rdata$r	SEGMENT
??_R4CActorInstanceBackground@@6B@ DD 00H		; CActorInstanceBackground::`RTTI Complete Object Locator'
	DD	00H
	DD	00H
	DD	FLAT:??_R0?AVCActorInstanceBackground@@@8
	DD	FLAT:??_R3CActorInstanceBackground@@8
rdata$r	ENDS
;	COMDAT ??_R0?AVCInstanceBase@@@8
data$rs	SEGMENT
??_R0?AVCInstanceBase@@@8 DD FLAT:??_7type_info@@6B@	; CInstanceBase `RTTI Type Descriptor'
	DD	00H
	DB	'.?AVCInstanceBase@@', 00H
data$rs	ENDS
;	COMDAT ??_R3CInstanceBase@@8
rdata$r	SEGMENT
??_R3CInstanceBase@@8 DD 00H				; CInstanceBase::`RTTI Class Hierarchy Descriptor'
	DD	00H
	DD	01H
	DD	FLAT:??_R2CInstanceBase@@8
rdata$r	ENDS
;	COMDAT ??_R0?AV?$CDynamicPool@VCInstanceBase@@@@@8
data$rs	SEGMENT
??_R0?AV?$CDynamicPool@VCInstanceBase@@@@@8 DD FLAT:??_7type_info@@6B@ ; CDynamicPool<CInstanceBase> `RTTI Type Descriptor'
	DD	00H
	DB	'.?AV?$CDynamicPool@VCInstanceBase@@@@', 00H
data$rs	ENDS
;	COMDAT ??_R3?$CDynamicPool@VCInstanceBase@@@@8
rdata$r	SEGMENT
??_R3?$CDynamicPool@VCInstanceBase@@@@8 DD 00H		; CDynamicPool<CInstanceBase>::`RTTI Class Hierarchy Descriptor'
	DD	00H
	DD	01H
	DD	FLAT:??_R2?$CDynamicPool@VCInstanceBase@@@@8
rdata$r	ENDS
;	COMDAT ??_R0?AVCActorInstanceBackground@@@8
data$rs	SEGMENT
??_R0?AVCActorInstanceBackground@@@8 DD FLAT:??_7type_info@@6B@ ; CActorInstanceBackground `RTTI Type Descriptor'
	DD	00H
	DB	'.?AVCActorInstanceBackground@@', 00H
data$rs	ENDS
;	COMDAT ??_R3CActorInstanceBackground@@8
rdata$r	SEGMENT
??_R3CActorInstanceBackground@@8 DD 00H			; CActorInstanceBackground::`RTTI Class Hierarchy Descriptor'
	DD	00H
	DD	03H
	DD	FLAT:??_R2CActorInstanceBackground@@8
rdata$r	ENDS
;	COMDAT ??_R1A@?0A@EA@CInstanceBase@@8
rdata$r	SEGMENT
??_R1A@?0A@EA@CInstanceBase@@8 DD FLAT:??_R0?AVCInstanceBase@@@8 ; CInstanceBase::`RTTI Base Class Descriptor at (0,-1,0,64)'
	DD	00H
	DD	00H
	DD	0ffffffffH
	DD	00H
	DD	040H
	DD	FLAT:??_R3CInstanceBase@@8
rdata$r	ENDS
;	COMDAT ??_R1A@?0A@EA@?$CDynamicPool@VCInstanceBase@@@@8
rdata$r	SEGMENT
??_R1A@?0A@EA@?$CDynamicPool@VCInstanceBase@@@@8 DD FLAT:??_R0?AV?$CDynamicPool@VCInstanceBase@@@@@8 ; CDynamicPool<CInstanceBase>::`RTTI Base Class Descriptor at (0,-1,0,64)'
	DD	00H
	DD	00H
	DD	0ffffffffH
	DD	00H
	DD	040H
	DD	FLAT:??_R3?$CDynamicPool@VCInstanceBase@@@@8
rdata$r	ENDS
;	COMDAT ??_R1A@?0A@EA@CActorInstanceBackground@@8
rdata$r	SEGMENT
??_R1A@?0A@EA@CActorInstanceBackground@@8 DD FLAT:??_R0?AVCActorInstanceBackground@@@8 ; CActorInstanceBackground::`RTTI Base Class Descriptor at (0,-1,0,64)'
	DD	02H
	DD	00H
	DD	0ffffffffH
	DD	00H
	DD	040H
	DD	FLAT:??_R3CActorInstanceBackground@@8
rdata$r	ENDS
;	COMDAT ??_R2CInstanceBase@@8
rdata$r	SEGMENT
??_R2CInstanceBase@@8 DD FLAT:??_R1A@?0A@EA@CInstanceBase@@8 ; CInstanceBase::`RTTI Base Class Array'
rdata$r	ENDS
;	COMDAT ??_R2?$CDynamicPool@VCInstanceBase@@@@8
rdata$r	SEGMENT
??_R2?$CDynamicPool@VCInstanceBase@@@@8 DD FLAT:??_R1A@?0A@EA@?$CDynamicPool@VCInstanceBase@@@@8 ; CDynamicPool<CInstanceBase>::`RTTI Base Class Array'
rdata$r	ENDS
;	COMDAT ??_R2CActorInstanceBackground@@8
rdata$r	SEGMENT
??_R2CActorInstanceBackground@@8 DD FLAT:??_R1A@?0A@EA@CActorInstanceBackground@@8 ; CActorInstanceBackground::`RTTI Base Class Array'
	DD	FLAT:??_R1A@?0A@EA@IBackground@@8
	DD	FLAT:??_R1A@?0A@EA@?$CSingleton@VIBackground@@@@8
rdata$r	ENDS
;	COMDAT ??_C@_0BK@OGNNAFAB@invalid?5hash?5bucket?5count@
CONST	SEGMENT
??_C@_0BK@OGNNAFAB@invalid?5hash?5bucket?5count@ DB 'invalid hash bucket '
	DB	'count', 00H					; `string'
CONST	ENDS
;	COMDAT ??_C@_0BL@GOIGLPKN@unordered_map?1set?5too?5long@
CONST	SEGMENT
??_C@_0BL@GOIGLPKN@unordered_map?1set?5too?5long@ DB 'unordered_map/set t'
	DB	'oo long', 00H				; `string'
CONST	ENDS
;	COMDAT ??_C@_0O@NKNMEGII@list?5too?5long@
CONST	SEGMENT
??_C@_0O@NKNMEGII@list?5too?5long@ DB 'list too long', 00H ; `string'
CONST	ENDS
;	COMDAT ??_C@_1CM@FPMBEAEA@?$AAm?$AAs?$AA_?$AAs?$AAi?$AAn?$AAg?$AAl?$AAe?$AAt?$AAo?$AAn?$AA?$CB?$AA?$DN?$AAn@
CONST	SEGMENT
??_C@_1CM@FPMBEAEA@?$AAm?$AAs?$AA_?$AAs?$AAi?$AAn?$AAg?$AAl?$AAe?$AAt?$AAo?$AAn?$AA?$CB?$AA?$DN?$AAn@ DB 'm'
	DB	00H, 's', 00H, '_', 00H, 's', 00H, 'i', 00H, 'n', 00H, 'g', 00H
	DB	'l', 00H, 'e', 00H, 't', 00H, 'o', 00H, 'n', 00H, '!', 00H, '='
	DB	00H, 'n', 00H, 'u', 00H, 'l', 00H, 'l', 00H, 'p', 00H, 't', 00H
	DB	'r', 00H, 00H, 00H				; `string'
CONST	ENDS
;	COMDAT ??_C@_1KI@FIPHLMOB@?$AAC?$AA?3?$AA?2?$AAA?$AAn?$AAk?$AAa?$AA2?$AAP?$AAr?$AAo?$AAj?$AAe?$AAc?$AAt@
CONST	SEGMENT
??_C@_1KI@FIPHLMOB@?$AAC?$AA?3?$AA?2?$AAA?$AAn?$AAk?$AAa?$AA2?$AAP?$AAr?$AAo?$AAj?$AAe?$AAc?$AAt@ DB 'C'
	DB	00H, ':', 00H, '\', 00H, 'A', 00H, 'n', 00H, 'k', 00H, 'a', 00H
	DB	'2', 00H, 'P', 00H, 'r', 00H, 'o', 00H, 'j', 00H, 'e', 00H, 'c'
	DB	00H, 't', 00H, '\', 00H, 'A', 00H, 'n', 00H, 'k', 00H, 'a', 00H
	DB	'2', 00H, 'P', 00H, 'r', 00H, 'o', 00H, 'j', 00H, 'e', 00H, 'c'
	DB	00H, 't', 00H, '\', 00H, 'S', 00H, 'o', 00H, 'u', 00H, 'r', 00H
	DB	'c', 00H, 'e', 00H, '\', 00H, 'B', 00H, 'i', 00H, 'n', 00H, 'a'
	DB	00H, 'r', 00H, 'y', 00H, '\', 00H, 's', 00H, 'o', 00H, 'u', 00H
	DB	'r', 00H, 'c', 00H, 'e', 00H, '\', 00H, 'U', 00H, 's', 00H, 'e'
	DB	00H, 'r', 00H, 'I', 00H, 'n', 00H, 't', 00H, 'e', 00H, 'r', 00H
	DB	'f', 00H, 'a', 00H, 'c', 00H, 'e', 00H, '\', 00H, 'A', 00H, 'b'
	DB	00H, 's', 00H, 't', 00H, 'r', 00H, 'a', 00H, 'c', 00H, 't', 00H
	DB	'S', 00H, 'i', 00H, 'n', 00H, 'g', 00H, 'l', 00H, 'e', 00H, 't'
	DB	00H, 'o', 00H, 'n', 00H, '.', 00H, 'h', 00H, 00H, 00H ; `string'
CONST	ENDS
;	COMDAT ??_C@_0N@DLOEJLFF@Bip01?5Spine2@
CONST	SEGMENT
??_C@_0N@DLOEJLFF@Bip01?5Spine2@ DB 'Bip01 Spine2', 00H	; `string'
CONST	ENDS
;	COMDAT ??_C@_0EG@MNIPPABI@CPythonCharacterManager?3?3Change@
CONST	SEGMENT
??_C@_0EG@MNIPPABI@CPythonCharacterManager?3?3Change@ DB 'CPythonCharacte'
	DB	'rManager::ChangeArmor - SetRace VID[%d] Race[%d] ERROR', 00H ; `string'
CONST	ENDS
;	COMDAT ??_C@_0DM@EIDAANLK@vid?$DN?$CFd?5?$LP?r?A?w?$MA?O?5?$LM?v?5?$LO?x?$LE?B?5?$LL?s?E?B?$LG?s?5?$LN?$LK@
CONST	SEGMENT
??_C@_0DM@EIDAANLK@vid?$DN?$CFd?5?$LP?r?A?w?$MA?O?5?$LM?v?5?$LO?x?$LE?B?5?$LL?s?E?B?$LG?s?5?$LN?$LK@ DB 'v'
	DB	'id=%d ', 0bfH, 0f2H, 0c1H, 0f7H, 0c0H, 0cfH, ' ', 0bcH, 0f6H, ' '
	DB	0beH, 0f8H, 0b4H, 0c2H, ' ', 0bbH, 0f3H, 0c5H, 0c2H, 0b6H, 0f3H
	DB	' ', 0bdH, 0baH, 0c5H, 0b5H, ' IsDead=%d, IsKnockDown=%d', 00H ; `string'
CONST	ENDS
;	COMDAT ??_C@_0FB@HJIAHMHN@CInstanceBase?3?3PushTCPState?3?5Oy@
CONST	SEGMENT
??_C@_0FB@HJIAHMHN@CInstanceBase?3?3PushTCPState?3?5Oy@ DB 'CInstanceBase'
	DB	'::PushTCPState: Oyuncu kendi karakterine hareket paketi g', 0f6H
	DB	'nderemez!', 00H				; `string'
CONST	ENDS
;	COMDAT ??_C@_1FI@LCMHCAJP@?$AAp?$AAa?$AAr?$AAt?$AA?5?$AA?$DO?$AA?$DN?$AA?5?$AA0?$AA?5?$AA?$CG?$AA?$CG?$AA?5?$AAp?$AAa@
CONST	SEGMENT
??_C@_1FI@LCMHCAJP@?$AAp?$AAa?$AAr?$AAt?$AA?5?$AA?$DO?$AA?$DN?$AA?5?$AA0?$AA?5?$AA?$CG?$AA?$CG?$AA?5?$AAp?$AAa@ DB 'p'
	DB	00H, 'a', 00H, 'r', 00H, 't', 00H, ' ', 00H, '>', 00H, '=', 00H
	DB	' ', 00H, '0', 00H, ' ', 00H, '&', 00H, '&', 00H, ' ', 00H, 'p'
	DB	00H, 'a', 00H, 'r', 00H, 't', 00H, ' ', 00H, '<', 00H, ' ', 00H
	DB	'C', 00H, 'R', 00H, 'a', 00H, 'c', 00H, 'e', 00H, 'D', 00H, 'a'
	DB	00H, 't', 00H, 'a', 00H, ':', 00H, ':', 00H, 'P', 00H, 'A', 00H
	DB	'R', 00H, 'T', 00H, '_', 00H, 'M', 00H, 'A', 00H, 'X', 00H, '_'
	DB	00H, 'N', 00H, 'U', 00H, 'M', 00H, 00H, 00H	; `string'
CONST	ENDS
;	COMDAT ??_C@_0BP@PGINAIMI@Inst?5?9?5UC?5?$CFd?0?5RC?5?$CFd?5Pool?5?9?5?$CFd?5@
CONST	SEGMENT
??_C@_0BP@PGINAIMI@Inst?5?9?5UC?5?$CFd?0?5RC?5?$CFd?5Pool?5?9?5?$CFd?5@ DB 'I'
	DB	'nst - UC %d, RC %d Pool - %d ', 00H		; `string'
CONST	ENDS
;	COMDAT ??_C@_01CLKCMJKC@?5@
CONST	SEGMENT
??_C@_01CLKCMJKC@?5@ DB ' ', 00H			; `string'
CONST	ENDS
;	COMDAT ??_C@_0EL@PHAIMNFF@CInstanceBase?3?3__EnableSkipColl@
CONST	SEGMENT
??_C@_0EL@PHAIMNFF@CInstanceBase?3?3__EnableSkipColl@ DB 'CInstanceBase::'
	DB	'__EnableSkipCollision - ', 0c0H, 0daH, 0bdH, 0c5H, 0c0H, 0baH
	DB	' ', 0c3H, 0e6H, 0b5H, 0b9H, 0b0H, 0cbH, 0bbH, 0e7H, 0bdH, 0baH
	DB	0c5H, 0b5H, 0c0H, 0ccH, ' ', 0b5H, 0c7H, 0b8H, 0e9H, ' ', 0beH
	DB	0c8H, 0b5H, 0c8H, 0b4H, 0d9H, '!!', 00H	; `string'
CONST	ENDS
;	COMDAT ??_C@_06PNAKCKLH@saddle@
CONST	SEGMENT
??_C@_06PNAKCKLH@saddle@ DB 'saddle', 00H		; `string'
CONST	ENDS
;	COMDAT ??_C@_1HA@MDLILCCL@?$AAN?$AAU?$AAL?$AAL?$AA?$CB?$AA?$DN?$AAm?$AA_?$AAp?$AAk?$AAA?$AAc?$AAt?$AAo?$AAr@
CONST	SEGMENT
??_C@_1HA@MDLILCCL@?$AAN?$AAU?$AAL?$AAL?$AA?$CB?$AA?$DN?$AAm?$AA_?$AAp?$AAk?$AAA?$AAc?$AAt?$AAo?$AAr@ DB 'N'
	DB	00H, 'U', 00H, 'L', 00H, 'L', 00H, '!', 00H, '=', 00H, 'm', 00H
	DB	'_', 00H, 'p', 00H, 'k', 00H, 'A', 00H, 'c', 00H, 't', 00H, 'o'
	DB	00H, 'r', 00H, ' ', 00H, '&', 00H, '&', 00H, ' ', 00H, '"', 00H
	DB	'C', 00H, 'I', 00H, 'n', 00H, 's', 00H, 't', 00H, 'a', 00H, 'n'
	DB	00H, 'c', 00H, 'e', 00H, 'B', 00H, 'a', 00H, 's', 00H, 'e', 00H
	DB	':', 00H, ':', 00H, 'S', 00H, 'H', 00H, 'O', 00H, 'R', 00H, 'S'
	DB	00H, 'E', 00H, ':', 00H, ':', 00H, 'G', 00H, 'e', 00H, 't', 00H
	DB	'A', 00H, 'c', 00H, 't', 00H, 'o', 00H, 'r', 00H, 'R', 00H, 'e'
	DB	00H, 'f', 00H, '"', 00H, 00H, 00H		; `string'
CONST	ENDS
;	COMDAT ??_C@_0CD@JHMKKADJ@CInstanceBase?3?3SHORSE?3?3GetActor@
CONST	SEGMENT
??_C@_0CD@JHMKKADJ@CInstanceBase?3?3SHORSE?3?3GetActor@ DB 'CInstanceBase'
	DB	'::SHORSE::GetActorRef', 00H			; `string'
CONST	ENDS
;	COMDAT ??_C@_1IG@HGDICGNA@?$AAN?$AAU?$AAL?$AAL?$AA?$DN?$AA?$DN?$AAm?$AA_?$AAp?$AAk?$AAA?$AAc?$AAt?$AAo?$AAr@
CONST	SEGMENT
??_C@_1IG@HGDICGNA@?$AAN?$AAU?$AAL?$AAL?$AA?$DN?$AA?$DN?$AAm?$AA_?$AAp?$AAk?$AAA?$AAc?$AAt?$AAo?$AAr@ DB 'N'
	DB	00H, 'U', 00H, 'L', 00H, 'L', 00H, '=', 00H, '=', 00H, 'm', 00H
	DB	'_', 00H, 'p', 00H, 'k', 00H, 'A', 00H, 'c', 00H, 't', 00H, 'o'
	DB	00H, 'r', 00H, ' ', 00H, '&', 00H, '&', 00H, ' ', 00H, '"', 00H
	DB	'C', 00H, 'I', 00H, 'n', 00H, 's', 00H, 't', 00H, 'a', 00H, 'n'
	DB	00H, 'c', 00H, 'e', 00H, 'B', 00H, 'a', 00H, 's', 00H, 'e', 00H
	DB	':', 00H, ':', 00H, 'S', 00H, 'H', 00H, 'O', 00H, 'R', 00H, 'S'
	DB	00H, 'E', 00H, ':', 00H, ':', 00H, 'C', 00H, 'r', 00H, 'e', 00H
	DB	'a', 00H, 't', 00H, 'e', 00H, ' ', 00H, '-', 00H, ' ', 00H, 'A'
	DB	00H, 'L', 00H, 'R', 00H, 'E', 00H, 'A', 00H, 'D', 00H, 'Y', 00H
	DB	' ', 00H, 'M', 00H, 'O', 00H, 'U', 00H, 'N', 00H, 'T', 00H, '"'
	DB	00H, 00H, 00H				; `string'
CONST	ENDS
;	COMDAT ??_C@_0CO@HHECMCIN@CInstanceBase?3?3SHORSE?3?3Create?5?9@
CONST	SEGMENT
??_C@_0CO@HHECMCIN@CInstanceBase?3?3SHORSE?3?3Create?5?9@ DB 'CInstanceBa'
	DB	'se::SHORSE::Create - ALREADY MOUNT', 00H	; `string'
CONST	ENDS
;	COMDAT ??_C@_1CG@IGBIAIJA@?$AAm?$AA_?$AAp?$AAk?$AAA?$AAc?$AAt?$AAo?$AAr?$AA?$DN?$AA?$DN?$AAn?$AAu?$AAl?$AAl@
CONST	SEGMENT
??_C@_1CG@IGBIAIJA@?$AAm?$AA_?$AAp?$AAk?$AAA?$AAc?$AAt?$AAo?$AAr?$AA?$DN?$AA?$DN?$AAn?$AAu?$AAl?$AAl@ DB 'm'
	DB	00H, '_', 00H, 'p', 00H, 'k', 00H, 'A', 00H, 'c', 00H, 't', 00H
	DB	'o', 00H, 'r', 00H, '=', 00H, '=', 00H, 'n', 00H, 'u', 00H, 'l'
	DB	00H, 'l', 00H, 'p', 00H, 't', 00H, 'r', 00H, 00H, 00H ; `string'
CONST	ENDS
;	COMDAT ??_C@_1KC@MEHOMOLH@?$AAC?$AA?3?$AA?2?$AAA?$AAn?$AAk?$AAa?$AA2?$AAP?$AAr?$AAo?$AAj?$AAe?$AAc?$AAt@
CONST	SEGMENT
??_C@_1KC@MEHOMOLH@?$AAC?$AA?3?$AA?2?$AAA?$AAn?$AAk?$AAa?$AA2?$AAP?$AAr?$AAo?$AAj?$AAe?$AAc?$AAt@ DB 'C'
	DB	00H, ':', 00H, '\', 00H, 'A', 00H, 'n', 00H, 'k', 00H, 'a', 00H
	DB	'2', 00H, 'P', 00H, 'r', 00H, 'o', 00H, 'j', 00H, 'e', 00H, 'c'
	DB	00H, 't', 00H, '\', 00H, 'A', 00H, 'n', 00H, 'k', 00H, 'a', 00H
	DB	'2', 00H, 'P', 00H, 'r', 00H, 'o', 00H, 'j', 00H, 'e', 00H, 'c'
	DB	00H, 't', 00H, '\', 00H, 'S', 00H, 'o', 00H, 'u', 00H, 'r', 00H
	DB	'c', 00H, 'e', 00H, '\', 00H, 'B', 00H, 'i', 00H, 'n', 00H, 'a'
	DB	00H, 'r', 00H, 'y', 00H, '\', 00H, 's', 00H, 'o', 00H, 'u', 00H
	DB	'r', 00H, 'c', 00H, 'e', 00H, '\', 00H, 'U', 00H, 's', 00H, 'e'
	DB	00H, 'r', 00H, 'I', 00H, 'n', 00H, 't', 00H, 'e', 00H, 'r', 00H
	DB	'f', 00H, 'a', 00H, 'c', 00H, 'e', 00H, '\', 00H, 'I', 00H, 'n'
	DB	00H, 's', 00H, 't', 00H, 'a', 00H, 'n', 00H, 'c', 00H, 'e', 00H
	DB	'B', 00H, 'a', 00H, 's', 00H, 'e', 00H, '.', 00H, 'c', 00H, 'p'
	DB	00H, 'p', 00H, 00H, 00H			; `string'
?USE_ARMOR_SPECULAR@@3HA DD 01H				; USE_ARMOR_SPECULAR
PUBLIC	?length@?$basic_string@DU?$char_traits@D@std@@V?$allocator@D@2@@std@@QBEIXZ ; std::basic_string<char,std::char_traits<char>,std::allocator<char> >::length
PUBLIC	??0IBackground@@QAE@XZ				; IBackground::IBackground
PUBLIC	??_GIBackground@@UAEPAXI@Z			; IBackground::`scalar deleting destructor'
PUBLIC	??1?$CSingleton@VIBackground@@@@UAE@XZ		; CSingleton<IBackground>::~CSingleton<IBackground>
PUBLIC	??_G?$CSingleton@VIBackground@@@@UAEPAXI@Z	; CSingleton<IBackground>::`scalar deleting destructor'
PUBLIC	??0?$CSingleton@VIBackground@@@@QAE@XZ		; CSingleton<IBackground>::CSingleton<IBackground>
PUBLIC	??1IBackground@@UAE@XZ				; IBackground::~IBackground
PUBLIC	?GetLODLevel@CGrannyLODController@@QAEEXZ	; CGrannyLODController::GetLODLevel
PUBLIC	??0D3DXCOLOR@@QAE@K@Z				; D3DXCOLOR::D3DXCOLOR
PUBLIC	?resize@?$basic_string@DU?$char_traits@D@std@@V?$allocator@D@2@@std@@QAEXID@Z ; std::basic_string<char,std::char_traits<char>,std::allocator<char> >::resize
PUBLIC	?append@?$basic_string@DU?$char_traits@D@std@@V?$allocator@D@2@@std@@QAEAAV12@ID@Z ; std::basic_string<char,std::char_traits<char>,std::allocator<char> >::append
PUBLIC	??$_Reallocate_grow_by@V<lambda_1>@?1??append@?$basic_string@DU?$char_traits@D@std@@V?$allocator@D@2@@std@@QAEAAV34@ID@Z@ID@?$basic_string@DU?$char_traits@D@std@@V?$allocator@D@2@@std@@AAEAAV01@IV<lambda_1>@?1??append@01@QAEAAV01@ID@Z@ID@Z ; std::basic_string<char,std::char_traits<char>,std::allocator<char> >::_Reallocate_grow_by<`std::basic_string<char,std::char_traits<char>,std::allocator<char> >::append'::`2'::<lambda_1>,unsigned int,char>
PUBLIC	??R<lambda_1>@?1??append@?$basic_string@DU?$char_traits@D@std@@V?$allocator@D@2@@std@@QAEAAV23@ID@Z@QBE@QADQBDIID@Z ; `std::basic_string<char,std::char_traits<char>,std::allocator<char> >::append'::`2'::<lambda_1>::operator()
PUBLIC	?assign@?$_Narrow_char_traits@DH@std@@SAPADQADID@Z ; std::_Narrow_char_traits<char,int>::assign
PUBLIC	?assign@?$_Char_traits@DH@std@@SAPADQADID@Z	; std::_Char_traits<char,int>::assign
PUBLIC	?_Eos@?$basic_string@DU?$char_traits@D@std@@V?$allocator@D@2@@std@@AAEXI@Z ; std::basic_string<char,std::char_traits<char>,std::allocator<char> >::_Eos
PUBLIC	?size@?$basic_string@DU?$char_traits@D@std@@V?$allocator@D@2@@std@@QBEIXZ ; std::basic_string<char,std::char_traits<char>,std::allocator<char> >::size
PUBLIC	_sprintf
PUBLIC	__vsprintf_l
PUBLIC	__vsnprintf_l
PUBLIC	___local_stdio_printf_options
PUBLIC	?sqrt@@YAMM@Z					; sqrt
PUBLIC	_fmodf
PUBLIC	?GetAuraEffectID@CItemData@@QBEKXZ		; CItemData::GetAuraEffectID
PUBLIC	??$_Construct_in_place@U_Container_proxy@std@@PAU_Container_base12@2@@std@@YAXAAU_Container_proxy@0@$$QAPAU_Container_base12@0@@Z ; std::_Construct_in_place<std::_Container_proxy,std::_Container_base12 *>
PUBLIC	??0_Container_proxy@std@@QAE@PAU_Container_base12@1@@Z ; std::_Container_proxy::_Container_proxy
PUBLIC	??$addressof@U_Container_proxy@std@@@std@@YAPAU_Container_proxy@0@AAU10@@Z ; std::addressof<std::_Container_proxy>
PUBLIC	??$construct_at@U_Container_proxy@std@@PAU_Container_base12@2@@std@@YAPAU_Container_proxy@0@QAU10@$$QAPAU_Container_base12@0@@Z ; std::construct_at<std::_Container_proxy,std::_Container_base12 *>
PUBLIC	??$forward@PAU_Container_base12@std@@@std@@YA$$QAPAU_Container_base12@0@AAPAU10@@Z ; std::forward<std::_Container_base12 *>
PUBLIC	?_Is_constant_evaluated@std@@YA_NXZ		; std::_Is_constant_evaluated
PUBLIC	?find@?$_Narrow_char_traits@DH@std@@SAPBDQBDIABD@Z ; std::_Narrow_char_traits<char,int>::find
PUBLIC	?_Adopt@_Iterator_base0@std@@QAEXPBX@Z		; std::_Iterator_base0::_Adopt
PUBLIC	??0_Container_base12@std@@QAE@XZ		; std::_Container_base12::_Container_base12
PUBLIC	?_Orphan_all@_Container_base12@std@@QAEXXZ	; std::_Container_base12::_Orphan_all
PUBLIC	?_Fnv1a_append_bytes@std@@YAIIQBEI@Z		; std::_Fnv1a_append_bytes
PUBLIC	?_Floor_of_log_2@std@@YAKI@Z			; std::_Floor_of_log_2
PUBLIC	?_Ceiling_of_log_2@std@@YAKI@Z			; std::_Ceiling_of_log_2
PUBLIC	_ceilf
PUBLIC	?_Orphan_non_end@?$_List_val@U?$_List_simple_types@U?$pair@$$CBKM@std@@@std@@@std@@QAEXXZ ; std::_List_val<std::_List_simple_types<std::pair<unsigned long const ,float> > >::_Orphan_non_end
PUBLIC	??0_Range_eraser@?$_Hash@V?$_Umap_traits@KMV?$_Uhash_compare@KU?$hash@K@std@@U?$equal_to@K@2@@std@@V?$allocator@U?$pair@$$CBKM@std@@@2@$0A@@std@@@std@@QAE@AAV?$list@U?$pair@$$CBKM@std@@V?$allocator@U?$pair@$$CBKM@std@@@2@@2@QAU?$_List_node@U?$pair@$$CBKM@std@@PAX@2@@Z ; std::_Hash<std::_Umap_traits<unsigned long,float,std::_Uhash_compare<unsigned long,std::hash<unsigned long>,std::equal_to<unsigned long> >,std::allocator<std::pair<unsigned long const ,float> >,0> >::_Range_eraser::_Range_eraser
PUBLIC	?_Bump_erased@_Range_eraser@?$_Hash@V?$_Umap_traits@KMV?$_Uhash_compare@KU?$hash@K@std@@U?$equal_to@K@2@@std@@V?$allocator@U?$pair@$$CBKM@std@@@2@$0A@@std@@@std@@QAEXXZ ; std::_Hash<std::_Umap_traits<unsigned long,float,std::_Uhash_compare<unsigned long,std::hash<unsigned long>,std::equal_to<unsigned long> >,std::allocator<std::pair<unsigned long const ,float> >,0> >::_Range_eraser::_Bump_erased
PUBLIC	??1_Range_eraser@?$_Hash@V?$_Umap_traits@KMV?$_Uhash_compare@KU?$hash@K@std@@U?$equal_to@K@2@@std@@V?$allocator@U?$pair@$$CBKM@std@@@2@$0A@@std@@@std@@QAE@XZ ; std::_Hash<std::_Umap_traits<unsigned long,float,std::_Uhash_compare<unsigned long,std::hash<unsigned long>,std::equal_to<unsigned long> >,std::allocator<std::pair<unsigned long const ,float> >,0> >::_Range_eraser::~_Range_eraser
PUBLIC	?_Unchecked_erase@?$_Hash@V?$_Umap_traits@KMV?$_Uhash_compare@KU?$hash@K@std@@U?$equal_to@K@2@@std@@V?$allocator@U?$pair@$$CBKM@std@@@2@$0A@@std@@@std@@AAEPAU?$_List_node@U?$pair@$$CBKM@std@@PAX@2@PAU32@QAU32@@Z ; std::_Hash<std::_Umap_traits<unsigned long,float,std::_Uhash_compare<unsigned long,std::hash<unsigned long>,std::equal_to<unsigned long> >,std::allocator<std::pair<unsigned long const ,float> >,0> >::_Unchecked_erase
PUBLIC	?clear@?$list@U?$pair@$$CBKM@std@@V?$allocator@U?$pair@$$CBKM@std@@@2@@std@@QAEXXZ ; std::list<std::pair<unsigned long const ,float>,std::allocator<std::pair<unsigned long const ,float> > >::clear
PUBLIC	?_Get_max_bucket_size@?$_Uhash_compare@KU?$hash@K@std@@U?$equal_to@K@2@@std@@QBEABMXZ ; std::_Uhash_compare<unsigned long,std::hash<unsigned long>,std::equal_to<unsigned long> >::_Get_max_bucket_size
PUBLIC	?clear@?$_Hash@V?$_Umap_traits@KMV?$_Uhash_compare@KU?$hash@K@std@@U?$equal_to@K@2@@std@@V?$allocator@U?$pair@$$CBKM@std@@@2@$0A@@std@@@std@@QAEXXZ ; std::_Hash<std::_Umap_traits<unsigned long,float,std::_Uhash_compare<unsigned long,std::hash<unsigned long>,std::equal_to<unsigned long> >,std::allocator<std::pair<unsigned long const ,float> >,0> >::clear
PUBLIC	?_Unchecked_begin@?$list@U?$pair@$$CBKM@std@@V?$allocator@U?$pair@$$CBKM@std@@@2@@std@@QAE?AV?$_List_unchecked_iterator@V?$_List_val@U?$_List_simple_types@U?$pair@$$CBKM@std@@@std@@@std@@@2@XZ ; std::list<std::pair<unsigned long const ,float>,std::allocator<std::pair<unsigned long const ,float> > >::_Unchecked_begin
PUBLIC	?_Get_first@?$_Compressed_pair@V?$allocator@U?$_List_node@U?$pair@$$CBKM@std@@PAX@std@@@std@@V?$_List_val@U?$_List_simple_types@U?$pair@$$CBKM@std@@@std@@@2@$00@std@@QBEABV?$allocator@U?$_List_node@U?$pair@$$CBKM@std@@PAX@std@@@2@XZ ; std::_Compressed_pair<std::allocator<std::_List_node<std::pair<unsigned long const ,float>,void *> >,std::_List_val<std::_List_simple_types<std::pair<unsigned long const ,float> > >,1>::_Get_first
PUBLIC	?max_size@?$_Default_allocator_traits@V?$allocator@V?$_List_unchecked_iterator@V?$_List_val@U?$_List_simple_types@U?$pair@$$CBKM@std@@@std@@@std@@@std@@@std@@@std@@SAIABV?$allocator@V?$_List_unchecked_iterator@V?$_List_val@U?$_List_simple_types@U?$pair@$$CBKM@std@@@std@@@std@@@std@@@2@@Z ; std::_Default_allocator_traits<std::allocator<std::_List_unchecked_iterator<std::_List_val<std::_List_simple_types<std::pair<unsigned long const ,float> > > > > >::max_size
PUBLIC	?_Get_first@?$_Compressed_pair@V?$allocator@V?$_List_unchecked_iterator@V?$_List_val@U?$_List_simple_types@U?$pair@$$CBKM@std@@@std@@@std@@@std@@@std@@V?$_Vector_val@U?$_Simple_types@V?$_List_unchecked_iterator@V?$_List_val@U?$_List_simple_types@U?$pair@$$CBKM@std@@@std@@@std@@@std@@@std@@@2@$00@std@@QBEABV?$allocator@V?$_List_unchecked_iterator@V?$_List_val@U?$_List_simple_types@U?$pair@$$CBKM@std@@@std@@@std@@@std@@@2@XZ ; std::_Compressed_pair<std::allocator<std::_List_unchecked_iterator<std::_List_val<std::_List_simple_types<std::pair<unsigned long const ,float> > > > >,std::_Vector_val<std::_Simple_types<std::_List_unchecked_iterator<std::_List_val<std::_List_simple_types<std::pair<unsigned long const ,float> > > > > >,1>::_Get_first
PUBLIC	?_Unchecked_begin@?$_Hash@V?$_Umap_traits@KMV?$_Uhash_compare@KU?$hash@K@std@@U?$equal_to@K@2@@std@@V?$allocator@U?$pair@$$CBKM@std@@@2@$0A@@std@@@std@@QAE?AV?$_List_unchecked_iterator@V?$_List_val@U?$_List_simple_types@U?$pair@$$CBKM@std@@@std@@@std@@@2@XZ ; std::_Hash<std::_Umap_traits<unsigned long,float,std::_Uhash_compare<unsigned long,std::hash<unsigned long>,std::equal_to<unsigned long> >,std::allocator<std::pair<unsigned long const ,float> >,0> >::_Unchecked_begin
PUBLIC	?_Unchecked_end@?$_Hash@V?$_Umap_traits@KMV?$_Uhash_compare@KU?$hash@K@std@@U?$equal_to@K@2@@std@@V?$allocator@U?$pair@$$CBKM@std@@@2@$0A@@std@@@std@@QAE?AV?$_List_unchecked_iterator@V?$_List_val@U?$_List_simple_types@U?$pair@$$CBKM@std@@@std@@@std@@@2@XZ ; std::_Hash<std::_Umap_traits<unsigned long,float,std::_Uhash_compare<unsigned long,std::hash<unsigned long>,std::equal_to<unsigned long> >,std::allocator<std::pair<unsigned long const ,float> >,0> >::_Unchecked_end
PUBLIC	?bucket@?$_Hash@V?$_Umap_traits@KMV?$_Uhash_compare@KU?$hash@K@std@@U?$equal_to@K@2@@std@@V?$allocator@U?$pair@$$CBKM@std@@@2@$0A@@std@@@std@@QBEIABK@Z ; std::_Hash<std::_Umap_traits<unsigned long,float,std::_Uhash_compare<unsigned long,std::hash<unsigned long>,std::equal_to<unsigned long> >,std::allocator<std::pair<unsigned long const ,float> >,0> >::bucket
PUBLIC	?_Min_load_factor_buckets@?$_Hash@V?$_Umap_traits@KMV?$_Uhash_compare@KU?$hash@K@std@@U?$equal_to@K@2@@std@@V?$allocator@U?$pair@$$CBKM@std@@@2@$0A@@std@@@std@@IBEII@Z ; std::_Hash<std::_Umap_traits<unsigned long,float,std::_Uhash_compare<unsigned long,std::hash<unsigned long>,std::equal_to<unsigned long> >,std::allocator<std::pair<unsigned long const ,float> >,0> >::_Min_load_factor_buckets
PUBLIC	?_Max_bucket_size@?$_Hash@V?$_Umap_traits@KMV?$_Uhash_compare@KU?$hash@K@std@@U?$equal_to@K@2@@std@@V?$allocator@U?$pair@$$CBKM@std@@@2@$0A@@std@@@std@@IBEABMXZ ; std::_Hash<std::_Umap_traits<unsigned long,float,std::_Uhash_compare<unsigned long,std::hash<unsigned long>,std::equal_to<unsigned long> >,std::allocator<std::pair<unsigned long const ,float> >,0> >::_Max_bucket_size
PUBLIC	?_Getal@?$list@U?$pair@$$CBKM@std@@V?$allocator@U?$pair@$$CBKM@std@@@2@@std@@ABEABV?$allocator@U?$_List_node@U?$pair@$$CBKM@std@@PAX@std@@@2@XZ ; std::list<std::pair<unsigned long const ,float>,std::allocator<std::pair<unsigned long const ,float> > >::_Getal
PUBLIC	?max_size@?$_Default_allocator_traits@V?$allocator@U?$_List_node@U?$pair@$$CBKM@std@@PAX@std@@@std@@@std@@SAIABV?$allocator@U?$_List_node@U?$pair@$$CBKM@std@@PAX@std@@@2@@Z ; std::_Default_allocator_traits<std::allocator<std::_List_node<std::pair<unsigned long const ,float>,void *> > >::max_size
PUBLIC	?_Unchecked_splice@?$_List_val@U?$_List_simple_types@U?$pair@$$CBKM@std@@@std@@@std@@SAPAU?$_List_node@U?$pair@$$CBKM@std@@PAX@2@QAU32@00@Z ; std::_List_val<std::_List_simple_types<std::pair<unsigned long const ,float> > >::_Unchecked_splice
PUBLIC	??D?$_List_unchecked_iterator@V?$_List_val@U?$_List_simple_types@U?$pair@$$CBKM@std@@@std@@@std@@@std@@QBEAAU?$pair@$$CBKM@1@XZ ; std::_List_unchecked_iterator<std::_List_val<std::_List_simple_types<std::pair<unsigned long const ,float> > > >::operator*
PUBLIC	??E?$_List_unchecked_iterator@V?$_List_val@U?$_List_simple_types@U?$pair@$$CBKM@std@@@std@@@std@@@std@@QAEAAV01@XZ ; std::_List_unchecked_iterator<std::_List_val<std::_List_simple_types<std::pair<unsigned long const ,float> > > >::operator++
PUBLIC	??D?$_List_unchecked_const_iterator@V?$_List_val@U?$_List_simple_types@U?$pair@$$CBKM@std@@@std@@@std@@U_Iterator_base0@2@@std@@QBEABU?$pair@$$CBKM@1@XZ ; std::_List_unchecked_const_iterator<std::_List_val<std::_List_simple_types<std::pair<unsigned long const ,float> > >,std::_Iterator_base0>::operator*
PUBLIC	??E?$_List_unchecked_const_iterator@V?$_List_val@U?$_List_simple_types@U?$pair@$$CBKM@std@@@std@@@std@@U_Iterator_base0@2@@std@@QAEAAV01@XZ ; std::_List_unchecked_const_iterator<std::_List_val<std::_List_simple_types<std::pair<unsigned long const ,float> > >,std::_Iterator_base0>::operator++
PUBLIC	??F?$_List_unchecked_const_iterator@V?$_List_val@U?$_List_simple_types@U?$pair@$$CBKM@std@@@std@@@std@@U_Iterator_base0@2@@std@@QAEAAV01@XZ ; std::_List_unchecked_const_iterator<std::_List_val<std::_List_simple_types<std::pair<unsigned long const ,float> > >,std::_Iterator_base0>::operator--
PUBLIC	??8?$_List_unchecked_const_iterator@V?$_List_val@U?$_List_simple_types@U?$pair@$$CBKM@std@@@std@@@std@@U_Iterator_base0@2@@std@@QBE_NABV01@@Z ; std::_List_unchecked_const_iterator<std::_List_val<std::_List_simple_types<std::pair<unsigned long const ,float> > >,std::_Iterator_base0>::operator==
PUBLIC	??0_Clear_guard@?$_Hash@V?$_Umap_traits@KMV?$_Uhash_compare@KU?$hash@K@std@@U?$equal_to@K@2@@std@@V?$allocator@U?$pair@$$CBKM@std@@@2@$0A@@std@@@std@@QAE@QAV12@@Z ; std::_Hash<std::_Umap_traits<unsigned long,float,std::_Uhash_compare<unsigned long,std::hash<unsigned long>,std::equal_to<unsigned long> >,std::allocator<std::pair<unsigned long const ,float> >,0> >::_Clear_guard::_Clear_guard
PUBLIC	??1_Clear_guard@?$_Hash@V?$_Umap_traits@KMV?$_Uhash_compare@KU?$hash@K@std@@U?$equal_to@K@2@@std@@V?$allocator@U?$pair@$$CBKM@std@@@2@$0A@@std@@@std@@QAE@XZ ; std::_Hash<std::_Umap_traits<unsigned long,float,std::_Uhash_compare<unsigned long,std::hash<unsigned long>,std::equal_to<unsigned long> >,std::allocator<std::pair<unsigned long const ,float> >,0> >::_Clear_guard::~_Clear_guard
PUBLIC	?max_size@?$_Hash_vec@V?$allocator@V?$_List_unchecked_iterator@V?$_List_val@U?$_List_simple_types@U?$pair@$$CBKM@std@@@std@@@std@@@std@@@std@@@std@@QBEIXZ ; std::_Hash_vec<std::allocator<std::_List_unchecked_iterator<std::_List_val<std::_List_simple_types<std::pair<unsigned long const ,float> > > > > >::max_size
PUBLIC	??$construct_at@PAU?$_List_node@U?$pair@$$CBKM@std@@PAX@std@@ABQAU12@@std@@YAPAPAU?$_List_node@U?$pair@$$CBKM@std@@PAX@0@QAPAU10@ABQAU10@@Z ; std::construct_at<std::_List_node<std::pair<unsigned long const ,float>,void *> *,std::_List_node<std::pair<unsigned long const ,float>,void *> * const &>
PUBLIC	??$forward@ABQAU?$_List_node@U?$pair@$$CBKM@std@@PAX@std@@@std@@YAABQAU?$_List_node@U?$pair@$$CBKM@std@@PAX@0@ABQAU10@@Z ; std::forward<std::_List_node<std::pair<unsigned long const ,float>,void *> * const &>
PUBLIC	??$construct_at@V?$_List_unchecked_iterator@V?$_List_val@U?$_List_simple_types@U?$pair@$$CBKM@std@@@std@@@std@@@std@@ABV12@@std@@YAPAV?$_List_unchecked_iterator@V?$_List_val@U?$_List_simple_types@U?$pair@$$CBKM@std@@@std@@@std@@@0@QAV10@ABV10@@Z ; std::construct_at<std::_List_unchecked_iterator<std::_List_val<std::_List_simple_types<std::pair<unsigned long const ,float> > > >,std::_List_unchecked_iterator<std::_List_val<std::_List_simple_types<std::pair<unsigned long const ,float> > > > const &>
PUBLIC	??$addressof@V?$_List_unchecked_iterator@V?$_List_val@U?$_List_simple_types@U?$pair@$$CBKM@std@@@std@@@std@@@std@@@std@@YAPAV?$_List_unchecked_iterator@V?$_List_val@U?$_List_simple_types@U?$pair@$$CBKM@std@@@std@@@std@@@0@AAV10@@Z ; std::addressof<std::_List_unchecked_iterator<std::_List_val<std::_List_simple_types<std::pair<unsigned long const ,float> > > > >
PUBLIC	??$construct_at@PAVCInstanceBase@@PAV1@@std@@YAPAPAVCInstanceBase@@QAPAV1@$$QAPAV1@@Z ; std::construct_at<CInstanceBase *,CInstanceBase *>
PUBLIC	??$construct_at@U?$pair@$$CBKM@std@@ABU12@@std@@YAPAU?$pair@$$CBKM@0@QAU10@ABU10@@Z ; std::construct_at<std::pair<unsigned long const ,float>,std::pair<unsigned long const ,float> const &>
PUBLIC	??$construct_at@KK@std@@YAPAKQAK$$QAK@Z		; std::construct_at<unsigned long,unsigned long>
PUBLIC	?bucket_count@?$_Hash@V?$_Umap_traits@KMV?$_Uhash_compare@KU?$hash@K@std@@U?$equal_to@K@2@@std@@V?$allocator@U?$pair@$$CBKM@std@@@2@$0A@@std@@@std@@QBEIXZ ; std::_Hash<std::_Umap_traits<unsigned long,float,std::_Uhash_compare<unsigned long,std::hash<unsigned long>,std::equal_to<unsigned long> >,std::allocator<std::pair<unsigned long const ,float> >,0> >::bucket_count
PUBLIC	?max_load_factor@?$_Hash@V?$_Umap_traits@KMV?$_Uhash_compare@KU?$hash@K@std@@U?$equal_to@K@2@@std@@V?$allocator@U?$pair@$$CBKM@std@@@2@$0A@@std@@@std@@QBEMXZ ; std::_Hash<std::_Umap_traits<unsigned long,float,std::_Uhash_compare<unsigned long,std::hash<unsigned long>,std::equal_to<unsigned long> >,std::allocator<std::pair<unsigned long const ,float> >,0> >::max_load_factor
PUBLIC	?_Desired_grow_bucket_count@?$_Hash@V?$_Umap_traits@KMV?$_Uhash_compare@KU?$hash@K@std@@U?$equal_to@K@2@@std@@V?$allocator@U?$pair@$$CBKM@std@@@2@$0A@@std@@@std@@IBEII@Z ; std::_Hash<std::_Umap_traits<unsigned long,float,std::_Uhash_compare<unsigned long,std::hash<unsigned long>,std::equal_to<unsigned long> >,std::allocator<std::pair<unsigned long const ,float> >,0> >::_Desired_grow_bucket_count
PUBLIC	?_Forced_rehash@?$_Hash@V?$_Umap_traits@KMV?$_Uhash_compare@KU?$hash@K@std@@U?$equal_to@K@2@@std@@V?$allocator@U?$pair@$$CBKM@std@@@2@$0A@@std@@@std@@IAEXI@Z ; std::_Hash<std::_Umap_traits<unsigned long,float,std::_Uhash_compare<unsigned long,std::hash<unsigned long>,std::equal_to<unsigned long> >,std::allocator<std::pair<unsigned long const ,float> >,0> >::_Forced_rehash
PUBLIC	?max_size@?$list@U?$pair@$$CBKM@std@@V?$allocator@U?$pair@$$CBKM@std@@@2@@std@@QBEIXZ ; std::list<std::pair<unsigned long const ,float>,std::allocator<std::pair<unsigned long const ,float> > >::max_size
PUBLIC	??0?$_Alloc_construct_ptr@V?$allocator@U?$_List_node@U?$pair@$$CBKM@std@@PAX@std@@@std@@@std@@QAE@AAV?$allocator@U?$_List_node@U?$pair@$$CBKM@std@@PAX@std@@@1@@Z ; std::_Alloc_construct_ptr<std::allocator<std::_List_node<std::pair<unsigned long const ,float>,void *> > >::_Alloc_construct_ptr<std::allocator<std::_List_node<std::pair<unsigned long const ,float>,void *> > >
PUBLIC	?_Allocate@?$_Alloc_construct_ptr@V?$allocator@U?$_List_node@U?$pair@$$CBKM@std@@PAX@std@@@std@@@std@@QAEXXZ ; std::_Alloc_construct_ptr<std::allocator<std::_List_node<std::pair<unsigned long const ,float>,void *> > >::_Allocate
PUBLIC	??1?$_Alloc_construct_ptr@V?$allocator@U?$_List_node@U?$pair@$$CBKM@std@@PAX@std@@@std@@@std@@QAE@XZ ; std::_Alloc_construct_ptr<std::allocator<std::_List_node<std::pair<unsigned long const ,float>,void *> > >::~_Alloc_construct_ptr<std::allocator<std::_List_node<std::pair<unsigned long const ,float>,void *> > >
PUBLIC	??$_Get_size_of_n@$0BI@@std@@YAII@Z		; std::_Get_size_of_n<24>
PUBLIC	??$_Construct_in_place@PAU?$_List_node@U?$pair@$$CBKM@std@@PAX@std@@ABQAU12@@std@@YAXAAPAU?$_List_node@U?$pair@$$CBKM@std@@PAX@0@ABQAU10@@Z ; std::_Construct_in_place<std::_List_node<std::pair<unsigned long const ,float>,void *> *,std::_List_node<std::pair<unsigned long const ,float>,void *> * const &>
PUBLIC	??$_Get_size_of_n@$0BA@@std@@YAII@Z		; std::_Get_size_of_n<16>
PUBLIC	??$exchange@PAU?$_List_node@U?$pair@$$CBKM@std@@PAX@std@@$$T@std@@YAPAU?$_List_node@U?$pair@$$CBKM@std@@PAX@0@AAPAU10@$$QA$$T@Z ; std::exchange<std::_List_node<std::pair<unsigned long const ,float>,void *> *,std::nullptr_t>
PUBLIC	??$_Fnv1a_append_value@K@std@@YAIIABK@Z		; std::_Fnv1a_append_value<unsigned long>
PUBLIC	??$construct_at@PAU?$_List_node@U?$pair@$$CBKM@std@@PAX@std@@AAPAU12@@std@@YAPAPAU?$_List_node@U?$pair@$$CBKM@std@@PAX@0@QAPAU10@AAPAU10@@Z ; std::construct_at<std::_List_node<std::pair<unsigned long const ,float>,void *> *,std::_List_node<std::pair<unsigned long const ,float>,void *> * &>
PUBLIC	??$forward@AAPAU?$_List_node@U?$pair@$$CBKM@std@@PAX@std@@@std@@YAAAPAU?$_List_node@U?$pair@$$CBKM@std@@PAX@0@AAPAU10@@Z ; std::forward<std::_List_node<std::pair<unsigned long const ,float>,void *> * &>
PUBLIC	??$addressof@PAU?$_List_node@U?$pair@$$CBKM@std@@PAX@std@@@std@@YAPAPAU?$_List_node@U?$pair@$$CBKM@std@@PAX@0@AAPAU10@@Z ; std::addressof<std::_List_node<std::pair<unsigned long const ,float>,void *> *>
PUBLIC	??$construct_at@PAU?$_Tree_node@U?$pair@$$CBKK@std@@PAX@std@@ABQAU12@@std@@YAPAPAU?$_Tree_node@U?$pair@$$CBKK@std@@PAX@0@QAPAU10@ABQAU10@@Z ; std::construct_at<std::_Tree_node<std::pair<unsigned long const ,unsigned long>,void *> *,std::_Tree_node<std::pair<unsigned long const ,unsigned long>,void *> * const &>
PUBLIC	??$forward@ABQAU?$_Tree_node@U?$pair@$$CBKK@std@@PAX@std@@@std@@YAABQAU?$_Tree_node@U?$pair@$$CBKK@std@@PAX@0@ABQAU10@@Z ; std::forward<std::_Tree_node<std::pair<unsigned long const ,unsigned long>,void *> * const &>
PUBLIC	??$addressof@PAU?$_Tree_node@U?$pair@$$CBKK@std@@PAX@std@@@std@@YAPAPAU?$_Tree_node@U?$pair@$$CBKK@std@@PAX@0@AAPAU10@@Z ; std::addressof<std::_Tree_node<std::pair<unsigned long const ,unsigned long>,void *> *>
PUBLIC	??$_Construct_in_place@V?$_List_unchecked_iterator@V?$_List_val@U?$_List_simple_types@U?$pair@$$CBKM@std@@@std@@@std@@@std@@ABV12@@std@@YAXAAV?$_List_unchecked_iterator@V?$_List_val@U?$_List_simple_types@U?$pair@$$CBKM@std@@@std@@@std@@@0@ABV10@@Z ; std::_Construct_in_place<std::_List_unchecked_iterator<std::_List_val<std::_List_simple_types<std::pair<unsigned long const ,float> > > >,std::_List_unchecked_iterator<std::_List_val<std::_List_simple_types<std::pair<unsigned long const ,float> > > > const &>
PUBLIC	??$forward@ABV?$_List_unchecked_iterator@V?$_List_val@U?$_List_simple_types@U?$pair@$$CBKM@std@@@std@@@std@@@std@@@std@@YAABV?$_List_unchecked_iterator@V?$_List_val@U?$_List_simple_types@U?$pair@$$CBKM@std@@@std@@@std@@@0@ABV10@@Z ; std::forward<std::_List_unchecked_iterator<std::_List_val<std::_List_simple_types<std::pair<unsigned long const ,float> > > > const &>
PUBLIC	??$construct_at@PAVCInstanceBase@@ABQAV1@@std@@YAPAPAVCInstanceBase@@QAPAV1@ABQAV1@@Z ; std::construct_at<CInstanceBase *,CInstanceBase * const &>
PUBLIC	??$addressof@PAVCInstanceBase@@@std@@YAPAPAVCInstanceBase@@AAPAV1@@Z ; std::addressof<CInstanceBase *>
PUBLIC	??$construct@PAVCInstanceBase@@PAV1@@?$_Default_allocator_traits@V?$allocator@PAVCInstanceBase@@@std@@@std@@SAXAAV?$allocator@PAVCInstanceBase@@@1@QAPAVCInstanceBase@@$$QAPAV3@@Z ; std::_Default_allocator_traits<std::allocator<CInstanceBase *> >::construct<CInstanceBase *,CInstanceBase *>
PUBLIC	??$forward@PAVCInstanceBase@@@std@@YA$$QAPAVCInstanceBase@@AAPAV1@@Z ; std::forward<CInstanceBase *>
PUBLIC	??$_Copy_memmove_tail@PAPAVCInstanceBase@@@std@@YAPAPAVCInstanceBase@@QBDQAPAV1@II@Z ; std::_Copy_memmove_tail<CInstanceBase * *>
PUBLIC	??$move@AAPAPAVCInstanceBase@@@std@@YA$$QAPAPAVCInstanceBase@@AAPAPAV1@@Z ; std::move<CInstanceBase * * &>
PUBLIC	??$to_address@PAVCInstanceBase@@@std@@YAPAPAVCInstanceBase@@QAPAV1@@Z ; std::to_address<CInstanceBase *>
PUBLIC	??$forward@V?$_List_iterator@V?$_List_val@U?$_List_simple_types@U?$pair@$$CBKM@std@@@std@@@std@@@std@@@std@@YA$$QAV?$_List_iterator@V?$_List_val@U?$_List_simple_types@U?$pair@$$CBKM@std@@@std@@@std@@@0@AAV10@@Z ; std::forward<std::_List_iterator<std::_List_val<std::_List_simple_types<std::pair<unsigned long const ,float> > > > >
PUBLIC	??$construct@U?$pair@$$CBKM@std@@ABU12@@?$_Default_allocator_traits@V?$allocator@U?$_List_node@U?$pair@$$CBKM@std@@PAX@std@@@std@@@std@@SAXAAV?$allocator@U?$_List_node@U?$pair@$$CBKM@std@@PAX@std@@@1@QAU?$pair@$$CBKM@1@ABU31@@Z ; std::_Default_allocator_traits<std::allocator<std::_List_node<std::pair<unsigned long const ,float>,void *> > >::construct<std::pair<unsigned long const ,float>,std::pair<unsigned long const ,float> const &>
PUBLIC	??$destroy_at@U?$pair@$$CBKM@std@@@std@@YAXQAU?$pair@$$CBKM@0@@Z ; std::destroy_at<std::pair<unsigned long const ,float> >
PUBLIC	??$construct@KK@?$_Default_allocator_traits@V?$allocator@K@std@@@std@@SAXAAV?$allocator@K@1@QAK$$QAK@Z ; std::_Default_allocator_traits<std::allocator<unsigned long> >::construct<unsigned long,unsigned long>
PUBLIC	??$forward@K@std@@YA$$QAKAAK@Z			; std::forward<unsigned long>
PUBLIC	??$destroy_at@U?$pair@$$CBKK@std@@@std@@YAXQAU?$pair@$$CBKK@0@@Z ; std::destroy_at<std::pair<unsigned long const ,unsigned long> >
PUBLIC	?deallocate@?$allocator@U_Container_proxy@std@@@std@@QAEXQAU_Container_proxy@2@I@Z ; std::allocator<std::_Container_proxy>::deallocate
PUBLIC	??0?$allocator@U?$_Tree_node@U?$pair@$$CBKK@std@@PAX@std@@@std@@QAE@XZ ; std::allocator<std::_Tree_node<std::pair<unsigned long const ,unsigned long>,void *> >::allocator<std::_Tree_node<std::pair<unsigned long const ,unsigned long>,void *> >
PUBLIC	?deallocate@?$allocator@U?$_Tree_node@U?$pair@$$CBKK@std@@PAX@std@@@std@@QAEXQAU?$_Tree_node@U?$pair@$$CBKK@std@@PAX@2@I@Z ; std::allocator<std::_Tree_node<std::pair<unsigned long const ,unsigned long>,void *> >::deallocate
PUBLIC	?allocate@?$allocator@U?$_Tree_node@U?$pair@$$CBKK@std@@PAX@std@@@std@@QAEPAU?$_Tree_node@U?$pair@$$CBKK@std@@PAX@2@I@Z ; std::allocator<std::_Tree_node<std::pair<unsigned long const ,unsigned long>,void *> >::allocate
PUBLIC	??0?$_Tree_val@U?$_Tree_simple_types@U?$pair@$$CBKK@std@@@std@@@std@@QAE@XZ ; std::_Tree_val<std::_Tree_simple_types<std::pair<unsigned long const ,unsigned long> > >::_Tree_val<std::_Tree_simple_types<std::pair<unsigned long const ,unsigned long> > >
PUBLIC	?allocate@?$allocator@PAVCInstanceBase@@@std@@QAEPAPAVCInstanceBase@@I@Z ; std::allocator<CInstanceBase *>::allocate
PUBLIC	?_Calculate_growth@?$vector@PAVCInstanceBase@@V?$allocator@PAVCInstanceBase@@@std@@@std@@ABEII@Z ; std::vector<CInstanceBase *,std::allocator<CInstanceBase *> >::_Calculate_growth
PUBLIC	?deallocate@?$allocator@U?$_List_node@USCommand@CInstanceBase@@PAX@std@@@std@@QAEXQAU?$_List_node@USCommand@CInstanceBase@@PAX@2@I@Z ; std::allocator<std::_List_node<CInstanceBase::SCommand,void *> >::deallocate
PUBLIC	?_Get_first@?$_Compressed_pair@V?$allocator@U?$_List_node@USCommand@CInstanceBase@@PAX@std@@@std@@V?$_List_val@U?$_List_simple_types@USCommand@CInstanceBase@@@std@@@2@$00@std@@QBEABV?$allocator@U?$_List_node@USCommand@CInstanceBase@@PAX@std@@@2@XZ ; std::_Compressed_pair<std::allocator<std::_List_node<CInstanceBase::SCommand,void *> >,std::_List_val<std::_List_simple_types<CInstanceBase::SCommand> >,1>::_Get_first
PUBLIC	?_Get_data@?$deque@USEffectDamage@CInstanceBase@@V?$allocator@USEffectDamage@CInstanceBase@@@std@@@std@@ABEABV?$_Deque_val@U?$_Deque_simple_types@USEffectDamage@CInstanceBase@@@std@@@2@XZ ; std::deque<CInstanceBase::SEffectDamage,std::allocator<CInstanceBase::SEffectDamage> >::_Get_data
PUBLIC	?_Getblock@?$_Deque_val@U?$_Deque_simple_types@USEffectDamage@CInstanceBase@@@std@@@std@@QBEHI@Z ; std::_Deque_val<std::_Deque_simple_types<CInstanceBase::SEffectDamage> >::_Getblock
PUBLIC	??R?$equal_to@K@std@@QBE_NABK0@Z		; std::equal_to<unsigned long>::operator()
PUBLIC	?_Get_first@?$_Compressed_pair@U?$equal_to@K@std@@M$00@std@@QBEABU?$equal_to@K@2@XZ ; std::_Compressed_pair<std::equal_to<unsigned long>,float,1>::_Get_first
PUBLIC	??1_Reallocation_guard@?$vector@PAVCInstanceBase@@V?$allocator@PAVCInstanceBase@@@std@@@std@@QAE@XZ ; std::vector<CInstanceBase *,std::allocator<CInstanceBase *> >::_Reallocation_guard::~_Reallocation_guard
PUBLIC	?_Get_first@?$_Compressed_pair@V?$allocator@PAVCInstanceBase@@@std@@V?$_Vector_val@U?$_Simple_types@PAVCInstanceBase@@@std@@@2@$00@std@@QBEABV?$allocator@PAVCInstanceBase@@@2@XZ ; std::_Compressed_pair<std::allocator<CInstanceBase *>,std::_Vector_val<std::_Simple_types<CInstanceBase *> >,1>::_Get_first
PUBLIC	?_Insert_new_node_before@?$_Hash@V?$_Umap_traits@KMV?$_Uhash_compare@KU?$hash@K@std@@U?$equal_to@K@2@@std@@V?$allocator@U?$pair@$$CBKM@std@@@2@$0A@@std@@@std@@IAEPAU?$_List_node@U?$pair@$$CBKM@std@@PAX@2@IQAU32@0@Z ; std::_Hash<std::_Umap_traits<unsigned long,float,std::_Uhash_compare<unsigned long,std::hash<unsigned long>,std::equal_to<unsigned long> >,std::allocator<std::pair<unsigned long const ,float> >,0> >::_Insert_new_node_before
PUBLIC	?_Check_max_size@?$_Hash@V?$_Umap_traits@KMV?$_Uhash_compare@KU?$hash@K@std@@U?$equal_to@K@2@@std@@V?$allocator@U?$pair@$$CBKM@std@@@2@$0A@@std@@@std@@IBEXXZ ; std::_Hash<std::_Umap_traits<unsigned long,float,std::_Uhash_compare<unsigned long,std::hash<unsigned long>,std::equal_to<unsigned long> >,std::allocator<std::pair<unsigned long const ,float> >,0> >::_Check_max_size
PUBLIC	?_Check_rehash_required_1@?$_Hash@V?$_Umap_traits@KMV?$_Uhash_compare@KU?$hash@K@std@@U?$equal_to@K@2@@std@@V?$allocator@U?$pair@$$CBKM@std@@@2@$0A@@std@@@std@@IBE_NXZ ; std::_Hash<std::_Umap_traits<unsigned long,float,std::_Uhash_compare<unsigned long,std::hash<unsigned long>,std::equal_to<unsigned long> >,std::allocator<std::pair<unsigned long const ,float> >,0> >::_Check_rehash_required_1
PUBLIC	?_Rehash_for_1@?$_Hash@V?$_Umap_traits@KMV?$_Uhash_compare@KU?$hash@K@std@@U?$equal_to@K@2@@std@@V?$allocator@U?$pair@$$CBKM@std@@@2@$0A@@std@@@std@@IAEXXZ ; std::_Hash<std::_Umap_traits<unsigned long,float,std::_Uhash_compare<unsigned long,std::hash<unsigned long>,std::equal_to<unsigned long> >,std::allocator<std::pair<unsigned long const ,float> >,0> >::_Rehash_for_1
PUBLIC	?deallocate@?$allocator@U?$_List_node@U?$pair@$$CBKM@std@@PAX@std@@@std@@QAEXQAU?$_List_node@U?$pair@$$CBKM@std@@PAX@2@I@Z ; std::allocator<std::_List_node<std::pair<unsigned long const ,float>,void *> >::deallocate
PUBLIC	?allocate@?$allocator@U?$_List_node@U?$pair@$$CBKM@std@@PAX@std@@@std@@QAEPAU?$_List_node@U?$pair@$$CBKM@std@@PAX@2@I@Z ; std::allocator<std::_List_node<std::pair<unsigned long const ,float>,void *> >::allocate
PUBLIC	??0?$_List_val@U?$_List_simple_types@U?$pair@$$CBKM@std@@@std@@@std@@QAE@XZ ; std::_List_val<std::_List_simple_types<std::pair<unsigned long const ,float> > >::_List_val<std::_List_simple_types<std::pair<unsigned long const ,float> > >
PUBLIC	??0?$_Vector_val@U?$_Simple_types@V?$_List_unchecked_iterator@V?$_List_val@U?$_List_simple_types@U?$pair@$$CBKM@std@@@std@@@std@@@std@@@std@@@std@@QAE@XZ ; std::_Vector_val<std::_Simple_types<std::_List_unchecked_iterator<std::_List_val<std::_List_simple_types<std::pair<unsigned long const ,float> > > > > >::_Vector_val<std::_Simple_types<std::_List_unchecked_iterator<std::_List_val<std::_List_simple_types<std::pair<unsigned long const ,float> > > > > >
PUBLIC	?_Extract@?$_In_place_key_extract_map_impl@KU?$pair@$$CBKM@std@@@std@@SAABKABU?$pair@$$CBKM@2@@Z ; std::_In_place_key_extract_map_impl<unsigned long,std::pair<unsigned long const ,float> >::_Extract
PUBLIC	??1?$_List_node_emplace_op2@V?$allocator@U?$_List_node@U?$pair@$$CBKM@std@@PAX@std@@@std@@@std@@QAE@XZ ; std::_List_node_emplace_op2<std::allocator<std::_List_node<std::pair<unsigned long const ,float>,void *> > >::~_List_node_emplace_op2<std::allocator<std::_List_node<std::pair<unsigned long const ,float>,void *> > >
PUBLIC	?_Release@?$_Alloc_construct_ptr@V?$allocator@U?$_List_node@U?$pair@$$CBKM@std@@PAX@std@@@std@@@std@@QAEPAU?$_List_node@U?$pair@$$CBKM@std@@PAX@2@XZ ; std::_Alloc_construct_ptr<std::allocator<std::_List_node<std::pair<unsigned long const ,float>,void *> > >::_Release
PUBLIC	??0?$_Uninitialized_backout_al@V?$allocator@PAVCInstanceBase@@@std@@@std@@QAE@PAPAVCInstanceBase@@AAV?$allocator@PAVCInstanceBase@@@1@@Z ; std::_Uninitialized_backout_al<std::allocator<CInstanceBase *> >::_Uninitialized_backout_al<std::allocator<CInstanceBase *> >
PUBLIC	??1?$_Uninitialized_backout_al@V?$allocator@PAVCInstanceBase@@@std@@@std@@QAE@XZ ; std::_Uninitialized_backout_al<std::allocator<CInstanceBase *> >::~_Uninitialized_backout_al<std::allocator<CInstanceBase *> >
PUBLIC	?_Release@?$_Uninitialized_backout_al@V?$allocator@PAVCInstanceBase@@@std@@@std@@QAEPAPAVCInstanceBase@@XZ ; std::_Uninitialized_backout_al<std::allocator<CInstanceBase *> >::_Release
PUBLIC	??0?$_Uninitialized_backout@PAV?$_List_unchecked_iterator@V?$_List_val@U?$_List_simple_types@U?$pair@$$CBKM@std@@@std@@@std@@@std@@@std@@QAE@PAV?$_List_unchecked_iterator@V?$_List_val@U?$_List_simple_types@U?$pair@$$CBKM@std@@@std@@@std@@@1@@Z ; std::_Uninitialized_backout<std::_List_unchecked_iterator<std::_List_val<std::_List_simple_types<std::pair<unsigned long const ,float> > > > *>::_Uninitialized_backout<std::_List_unchecked_iterator<std::_List_val<std::_List_simple_types<std::pair<unsigned long const ,float> > > > *>
PUBLIC	??1?$_Uninitialized_backout@PAV?$_List_unchecked_iterator@V?$_List_val@U?$_List_simple_types@U?$pair@$$CBKM@std@@@std@@@std@@@std@@@std@@QAE@XZ ; std::_Uninitialized_backout<std::_List_unchecked_iterator<std::_List_val<std::_List_simple_types<std::pair<unsigned long const ,float> > > > *>::~_Uninitialized_backout<std::_List_unchecked_iterator<std::_List_val<std::_List_simple_types<std::pair<unsigned long const ,float> > > > *>
PUBLIC	?_Release@?$_Uninitialized_backout@PAV?$_List_unchecked_iterator@V?$_List_val@U?$_List_simple_types@U?$pair@$$CBKM@std@@@std@@@std@@@std@@@std@@QAEPAV?$_List_unchecked_iterator@V?$_List_val@U?$_List_simple_types@U?$pair@$$CBKM@std@@@std@@@std@@@2@XZ ; std::_Uninitialized_backout<std::_List_unchecked_iterator<std::_List_val<std::_List_simple_types<std::pair<unsigned long const ,float> > > > *>::_Release
PUBLIC	??$_Unfancy@USEffectDamage@CInstanceBase@@@std@@YAPAUSEffectDamage@CInstanceBase@@PAU12@@Z ; std::_Unfancy<CInstanceBase::SEffectDamage>
PUBLIC	??$_Hash_representation@K@std@@YAIABK@Z		; std::_Hash_representation<unsigned long>
PUBLIC	??$_Construct_in_place@PAU?$_List_node@U?$pair@$$CBKM@std@@PAX@std@@AAPAU12@@std@@YAXAAPAU?$_List_node@U?$pair@$$CBKM@std@@PAX@0@0@Z ; std::_Construct_in_place<std::_List_node<std::pair<unsigned long const ,float>,void *> *,std::_List_node<std::pair<unsigned long const ,float>,void *> * &>
PUBLIC	??$_Construct_in_place@PAU?$_Tree_node@U?$pair@$$CBKK@std@@PAX@std@@ABQAU12@@std@@YAXAAPAU?$_Tree_node@U?$pair@$$CBKK@std@@PAX@0@ABQAU10@@Z ; std::_Construct_in_place<std::_Tree_node<std::pair<unsigned long const ,unsigned long>,void *> *,std::_Tree_node<std::pair<unsigned long const ,unsigned long>,void *> * const &>
PUBLIC	??$destroy_at@USEffectDamage@CInstanceBase@@@std@@YAXQAUSEffectDamage@CInstanceBase@@@Z ; std::destroy_at<CInstanceBase::SEffectDamage>
PUBLIC	??$_Emplace_back@ABV?$_List_unchecked_iterator@V?$_List_val@U?$_List_simple_types@U?$pair@$$CBKM@std@@@std@@@std@@@std@@@?$_Uninitialized_backout@PAV?$_List_unchecked_iterator@V?$_List_val@U?$_List_simple_types@U?$pair@$$CBKM@std@@@std@@@std@@@std@@@std@@QAEXABV?$_List_unchecked_iterator@V?$_List_val@U?$_List_simple_types@U?$pair@$$CBKM@std@@@std@@@std@@@1@@Z ; std::_Uninitialized_backout<std::_List_unchecked_iterator<std::_List_val<std::_List_simple_types<std::pair<unsigned long const ,float> > > > *>::_Emplace_back<std::_List_unchecked_iterator<std::_List_val<std::_List_simple_types<std::pair<unsigned long const ,float> > > > const &>
PUBLIC	??$_Adl_verify_range@PAV?$_List_unchecked_iterator@V?$_List_val@U?$_List_simple_types@U?$pair@$$CBKM@std@@@std@@@std@@@std@@PAV12@@std@@YAXABQAV?$_List_unchecked_iterator@V?$_List_val@U?$_List_simple_types@U?$pair@$$CBKM@std@@@std@@@std@@@0@0@Z ; std::_Adl_verify_range<std::_List_unchecked_iterator<std::_List_val<std::_List_simple_types<std::pair<unsigned long const ,float> > > > *,std::_List_unchecked_iterator<std::_List_val<std::_List_simple_types<std::pair<unsigned long const ,float> > > > *>
PUBLIC	??$construct_at@PAU?$_List_node@USCommand@CInstanceBase@@PAX@std@@ABQAU12@@std@@YAPAPAU?$_List_node@USCommand@CInstanceBase@@PAX@0@QAPAU10@ABQAU10@@Z ; std::construct_at<std::_List_node<CInstanceBase::SCommand,void *> *,std::_List_node<CInstanceBase::SCommand,void *> * const &>
PUBLIC	??$forward@ABQAU?$_List_node@USCommand@CInstanceBase@@PAX@std@@@std@@YAABQAU?$_List_node@USCommand@CInstanceBase@@PAX@0@ABQAU10@@Z ; std::forward<std::_List_node<CInstanceBase::SCommand,void *> * const &>
PUBLIC	??$construct@PAVCInstanceBase@@ABQAV1@@?$_Default_allocator_traits@V?$allocator@PAVCInstanceBase@@@std@@@std@@SAXAAV?$allocator@PAVCInstanceBase@@@1@QAPAVCInstanceBase@@ABQAV3@@Z ; std::_Default_allocator_traits<std::allocator<CInstanceBase *> >::construct<CInstanceBase *,CInstanceBase * const &>
PUBLIC	??$_Construct_in_place@PAVCInstanceBase@@ABQAV1@@std@@YAXAAPAVCInstanceBase@@ABQAV1@@Z ; std::_Construct_in_place<CInstanceBase *,CInstanceBase * const &>
PUBLIC	??$_Emplace_back@PAVCInstanceBase@@@?$_Uninitialized_backout_al@V?$allocator@PAVCInstanceBase@@@std@@@std@@QAEX$$QAPAVCInstanceBase@@@Z ; std::_Uninitialized_backout_al<std::allocator<CInstanceBase *> >::_Emplace_back<CInstanceBase *>
PUBLIC	??$_To_address@PAPAVCInstanceBase@@@std@@YA?A_PABQAPAVCInstanceBase@@@Z ; std::_To_address<CInstanceBase * *>
PUBLIC	??$_Copy_memmove@PAPAVCInstanceBase@@PAPAV1@@std@@YAPAPAVCInstanceBase@@PAPAV1@00@Z ; std::_Copy_memmove<CInstanceBase * *,CInstanceBase * *>
PUBLIC	??$move@AAPAVCInstanceBase@@@std@@YA$$QAPAVCInstanceBase@@AAPAV1@@Z ; std::move<CInstanceBase * &>
PUBLIC	??$?0V?$_List_iterator@V?$_List_val@U?$_List_simple_types@U?$pair@$$CBKM@std@@@std@@@std@@@std@@_N$0A@@?$pair@V?$_List_iterator@V?$_List_val@U?$_List_simple_types@U?$pair@$$CBKM@std@@@std@@@std@@@std@@_N@std@@QAE@$$QAV?$_List_iterator@V?$_List_val@U?$_List_simple_types@U?$pair@$$CBKM@std@@@std@@@std@@@1@$$QA_N@Z ; std::pair<std::_List_iterator<std::_List_val<std::_List_simple_types<std::pair<unsigned long const ,float> > > >,bool>::pair<std::_List_iterator<std::_List_val<std::_List_simple_types<std::pair<unsigned long const ,float> > > >,bool><std::_List_iterator<std::_List_val<std::_List_simple_types<std::pair<unsigned long const ,float> > > >,bool,0>
PUBLIC	??$?0ABU?$pair@$$CBKM@std@@@?$_List_node_emplace_op2@V?$allocator@U?$_List_node@U?$pair@$$CBKM@std@@PAX@std@@@std@@@std@@QAE@AAV?$allocator@U?$_List_node@U?$pair@$$CBKM@std@@PAX@std@@@1@ABU?$pair@$$CBKM@1@@Z ; std::_List_node_emplace_op2<std::allocator<std::_List_node<std::pair<unsigned long const ,float>,void *> > >::_List_node_emplace_op2<std::allocator<std::_List_node<std::pair<unsigned long const ,float>,void *> > ><std::pair<unsigned long const ,float> const &>
PUBLIC	??$forward@ABU?$pair@$$CBKM@std@@@std@@YAABU?$pair@$$CBKM@0@ABU10@@Z ; std::forward<std::pair<unsigned long const ,float> const &>
PUBLIC	??$destroy@U?$pair@$$CBKM@std@@@?$_Default_allocator_traits@V?$allocator@U?$_List_node@U?$pair@$$CBKM@std@@PAX@std@@@std@@@std@@SAXAAV?$allocator@U?$_List_node@U?$pair@$$CBKM@std@@PAX@std@@@1@QAU?$pair@$$CBKM@1@@Z ; std::_Default_allocator_traits<std::allocator<std::_List_node<std::pair<unsigned long const ,float>,void *> > >::destroy<std::pair<unsigned long const ,float> >
PUBLIC	??$_Emplace_back@K@?$_Uninitialized_backout_al@V?$allocator@K@std@@@std@@QAEX$$QAK@Z ; std::_Uninitialized_backout_al<std::allocator<unsigned long> >::_Emplace_back<unsigned long>
PUBLIC	??$construct_at@KABK@std@@YAPAKQAKABK@Z		; std::construct_at<unsigned long,unsigned long const &>
PUBLIC	??$addressof@K@std@@YAPAKAAK@Z			; std::addressof<unsigned long>
PUBLIC	??$destroy@U?$pair@$$CBKK@std@@@?$_Default_allocator_traits@V?$allocator@U?$_Tree_node@U?$pair@$$CBKK@std@@PAX@std@@@std@@@std@@SAXAAV?$allocator@U?$_Tree_node@U?$pair@$$CBKK@std@@PAX@std@@@1@QAU?$pair@$$CBKK@1@@Z ; std::_Default_allocator_traits<std::allocator<std::_Tree_node<std::pair<unsigned long const ,unsigned long>,void *> > >::destroy<std::pair<unsigned long const ,unsigned long> >
PUBLIC	??$addressof@U?$pair@$$CBKK@std@@@std@@YAPAU?$pair@$$CBKK@0@AAU10@@Z ; std::addressof<std::pair<unsigned long const ,unsigned long> >
PUBLIC	??$construct_at@USCommand@CInstanceBase@@ABU12@@std@@YAPAUSCommand@CInstanceBase@@QAU12@ABU12@@Z ; std::construct_at<CInstanceBase::SCommand,CInstanceBase::SCommand const &>
PUBLIC	??$destroy_at@USCommand@CInstanceBase@@@std@@YAXQAUSCommand@CInstanceBase@@@Z ; std::destroy_at<CInstanceBase::SCommand>
PUBLIC	??$?0U?$pair@$$CBKM@std@@@?$allocator@U?$_List_node@U?$pair@$$CBKM@std@@PAX@std@@@std@@QAE@ABV?$allocator@U?$pair@$$CBKM@std@@@1@@Z ; std::allocator<std::_List_node<std::pair<unsigned long const ,float>,void *> >::allocator<std::_List_node<std::pair<unsigned long const ,float>,void *> ><std::pair<unsigned long const ,float> >
PUBLIC	??$?0U?$pair@$$CBKM@std@@@?$allocator@V?$_List_unchecked_iterator@V?$_List_val@U?$_List_simple_types@U?$pair@$$CBKM@std@@@std@@@std@@@std@@@std@@QAE@ABV?$allocator@U?$pair@$$CBKM@std@@@1@@Z ; std::allocator<std::_List_unchecked_iterator<std::_List_val<std::_List_simple_types<std::pair<unsigned long const ,float> > > > >::allocator<std::_List_unchecked_iterator<std::_List_val<std::_List_simple_types<std::pair<unsigned long const ,float> > > > ><std::pair<unsigned long const ,float> >
PUBLIC	?_Change_array@?$vector@KV?$allocator@K@std@@@std@@AAEXQAKII@Z ; std::vector<unsigned long,std::allocator<unsigned long> >::_Change_array
PUBLIC	??1_Reallocation_guard@?$vector@KV?$allocator@K@std@@@std@@QAE@XZ ; std::vector<unsigned long,std::allocator<unsigned long> >::_Reallocation_guard::~_Reallocation_guard
PUBLIC	?deallocate@?$_Default_allocator_traits@V?$allocator@U?$_Tree_node@U?$pair@$$CBKK@std@@PAX@std@@@std@@@std@@SAXAAV?$allocator@U?$_Tree_node@U?$pair@$$CBKK@std@@PAX@std@@@2@QAU?$_Tree_node@U?$pair@$$CBKK@std@@PAX@2@I@Z ; std::_Default_allocator_traits<std::allocator<std::_Tree_node<std::pair<unsigned long const ,unsigned long>,void *> > >::deallocate
PUBLIC	??0?$allocator@PAVCInstanceBase@@@std@@QAE@XZ	; std::allocator<CInstanceBase *>::allocator<CInstanceBase *>
PUBLIC	?deallocate@?$allocator@PAVCInstanceBase@@@std@@QAEXQAPAVCInstanceBase@@I@Z ; std::allocator<CInstanceBase *>::deallocate
PUBLIC	?_Change_array@?$vector@PAVCInstanceBase@@V?$allocator@PAVCInstanceBase@@@std@@@std@@AAEXQAPAVCInstanceBase@@II@Z ; std::vector<CInstanceBase *,std::allocator<CInstanceBase *> >::_Change_array
PUBLIC	?_Getal@?$vector@PAVCInstanceBase@@V?$allocator@PAVCInstanceBase@@@std@@@std@@ABEABV?$allocator@PAVCInstanceBase@@@2@XZ ; std::vector<CInstanceBase *,std::allocator<CInstanceBase *> >::_Getal
PUBLIC	?_Getal@?$list@USCommand@CInstanceBase@@V?$allocator@USCommand@CInstanceBase@@@std@@@std@@ABEABV?$allocator@U?$_List_node@USCommand@CInstanceBase@@PAX@std@@@2@XZ ; std::list<CInstanceBase::SCommand,std::allocator<CInstanceBase::SCommand> >::_Getal
PUBLIC	?deallocate@?$_Default_allocator_traits@V?$allocator@U?$_List_node@USCommand@CInstanceBase@@PAX@std@@@std@@@std@@SAXAAV?$allocator@U?$_List_node@USCommand@CInstanceBase@@PAX@std@@@2@QAU?$_List_node@USCommand@CInstanceBase@@PAX@2@I@Z ; std::_Default_allocator_traits<std::allocator<std::_List_node<CInstanceBase::SCommand,void *> > >::deallocate
PUBLIC	?max_size@?$_Default_allocator_traits@V?$allocator@U?$_List_node@USCommand@CInstanceBase@@PAX@std@@@std@@@std@@SAIABV?$allocator@U?$_List_node@USCommand@CInstanceBase@@PAX@std@@@2@@Z ; std::_Default_allocator_traits<std::allocator<std::_List_node<CInstanceBase::SCommand,void *> > >::max_size
PUBLIC	?deallocate@?$allocator@USEffectDamage@CInstanceBase@@@std@@QAEXQAUSEffectDamage@CInstanceBase@@I@Z ; std::allocator<CInstanceBase::SEffectDamage>::deallocate
PUBLIC	?_Mapsize@?$deque@USEffectDamage@CInstanceBase@@V?$allocator@USEffectDamage@CInstanceBase@@@std@@@std@@AAEAAIXZ ; std::deque<CInstanceBase::SEffectDamage,std::allocator<CInstanceBase::SEffectDamage> >::_Mapsize
PUBLIC	?_Myoff@?$deque@USEffectDamage@CInstanceBase@@V?$allocator@USEffectDamage@CInstanceBase@@@std@@@std@@AAEAAIXZ ; std::deque<CInstanceBase::SEffectDamage,std::allocator<CInstanceBase::SEffectDamage> >::_Myoff
PUBLIC	?_Mysize@?$deque@USEffectDamage@CInstanceBase@@V?$allocator@USEffectDamage@CInstanceBase@@@std@@@std@@AAEAAIXZ ; std::deque<CInstanceBase::SEffectDamage,std::allocator<CInstanceBase::SEffectDamage> >::_Mysize
PUBLIC	?_Mysize@?$deque@USEffectDamage@CInstanceBase@@V?$allocator@USEffectDamage@CInstanceBase@@@std@@@std@@ABEABIXZ ; std::deque<CInstanceBase::SEffectDamage,std::allocator<CInstanceBase::SEffectDamage> >::_Mysize
PUBLIC	?_Map_distance@?$deque@USEffectDamage@CInstanceBase@@V?$allocator@USEffectDamage@CInstanceBase@@@std@@@std@@ABEHXZ ; std::deque<CInstanceBase::SEffectDamage,std::allocator<CInstanceBase::SEffectDamage> >::_Map_distance
PUBLIC	?deallocate@?$allocator@PAUSEffectDamage@CInstanceBase@@@std@@QAEXQAPAUSEffectDamage@CInstanceBase@@I@Z ; std::allocator<CInstanceBase::SEffectDamage *>::deallocate
PUBLIC	?_Address_subscript@?$_Deque_val@U?$_Deque_simple_types@USEffectDamage@CInstanceBase@@@std@@@std@@QAEPAUSEffectDamage@CInstanceBase@@I@Z ; std::_Deque_val<std::_Deque_simple_types<CInstanceBase::SEffectDamage> >::_Address_subscript
PUBLIC	?_Do_hash@?$hash@K@std@@SAIABK@Z		; std::hash<unsigned long>::_Do_hash
PUBLIC	?_Get_max_bucket_size@?$_Uhash_compare@KU?$hash@K@std@@U?$equal_to@K@2@@std@@QAEAAMXZ ; std::_Uhash_compare<unsigned long,std::hash<unsigned long>,std::equal_to<unsigned long> >::_Get_max_bucket_size
PUBLIC	?max_size@?$_Default_allocator_traits@V?$allocator@PAVCInstanceBase@@@std@@@std@@SAIABV?$allocator@PAVCInstanceBase@@@2@@Z ; std::_Default_allocator_traits<std::allocator<CInstanceBase *> >::max_size
PUBLIC	??0?$_Vector_val@U?$_Simple_types@PAVCInstanceBase@@@std@@@std@@QAE@XZ ; std::_Vector_val<std::_Simple_types<CInstanceBase *> >::_Vector_val<std::_Simple_types<CInstanceBase *> >
PUBLIC	??1_Simple_reallocation_guard@?$vector@PAVCInstanceBase@@V?$allocator@PAVCInstanceBase@@@std@@@std@@QAE@XZ ; std::vector<CInstanceBase *,std::allocator<CInstanceBase *> >::_Simple_reallocation_guard::~_Simple_reallocation_guard
PUBLIC	?_Get_first@?$_Compressed_pair@V?$allocator@PAVCInstanceBase@@@std@@V?$_Vector_val@U?$_Simple_types@PAVCInstanceBase@@@std@@@2@$00@std@@QAEAAV?$allocator@PAVCInstanceBase@@@2@XZ ; std::_Compressed_pair<std::allocator<CInstanceBase *>,std::_Vector_val<std::_Simple_types<CInstanceBase *> >,1>::_Get_first
PUBLIC	?_Alloc_sentinel_and_proxy@?$list@U?$pair@$$CBKM@std@@V?$allocator@U?$pair@$$CBKM@std@@@2@@std@@AAEXXZ ; std::list<std::pair<unsigned long const ,float>,std::allocator<std::pair<unsigned long const ,float> > >::_Alloc_sentinel_and_proxy
PUBLIC	?deallocate@?$_Default_allocator_traits@V?$allocator@U?$_List_node@U?$pair@$$CBKM@std@@PAX@std@@@std@@@std@@SAXAAV?$allocator@U?$_List_node@U?$pair@$$CBKM@std@@PAX@std@@@2@QAU?$_List_node@U?$pair@$$CBKM@std@@PAX@2@I@Z ; std::_Default_allocator_traits<std::allocator<std::_List_node<std::pair<unsigned long const ,float>,void *> > >::deallocate
PUBLIC	?_Get_first@?$_Compressed_pair@V?$allocator@U?$_List_node@U?$pair@$$CBKM@std@@PAX@std@@@std@@V?$_List_val@U?$_List_simple_types@U?$pair@$$CBKM@std@@@std@@@2@$00@std@@QAEAAV?$allocator@U?$_List_node@U?$pair@$$CBKM@std@@PAX@std@@@2@XZ ; std::_Compressed_pair<std::allocator<std::_List_node<std::pair<unsigned long const ,float>,void *> >,std::_List_val<std::_List_simple_types<std::pair<unsigned long const ,float> > >,1>::_Get_first
PUBLIC	?allocate@?$allocator@V?$_List_unchecked_iterator@V?$_List_val@U?$_List_simple_types@U?$pair@$$CBKM@std@@@std@@@std@@@std@@@std@@QAEPAV?$_List_unchecked_iterator@V?$_List_val@U?$_List_simple_types@U?$pair@$$CBKM@std@@@std@@@std@@@2@I@Z ; std::allocator<std::_List_unchecked_iterator<std::_List_val<std::_List_simple_types<std::pair<unsigned long const ,float> > > > >::allocate
PUBLIC	?size@?$_Hash_vec@V?$allocator@V?$_List_unchecked_iterator@V?$_List_val@U?$_List_simple_types@U?$pair@$$CBKM@std@@@std@@@std@@@std@@@std@@@std@@QBEIXZ ; std::_Hash_vec<std::allocator<std::_List_unchecked_iterator<std::_List_val<std::_List_simple_types<std::pair<unsigned long const ,float> > > > > >::size
PUBLIC	??0?$_Alloc_construct_ptr@V?$allocator@U?$_List_node@USCommand@CInstanceBase@@PAX@std@@@std@@@std@@QAE@AAV?$allocator@U?$_List_node@USCommand@CInstanceBase@@PAX@std@@@1@@Z ; std::_Alloc_construct_ptr<std::allocator<std::_List_node<CInstanceBase::SCommand,void *> > >::_Alloc_construct_ptr<std::allocator<std::_List_node<CInstanceBase::SCommand,void *> > >
PUBLIC	?_Allocate@?$_Alloc_construct_ptr@V?$allocator@U?$_List_node@USCommand@CInstanceBase@@PAX@std@@@std@@@std@@QAEXXZ ; std::_Alloc_construct_ptr<std::allocator<std::_List_node<CInstanceBase::SCommand,void *> > >::_Allocate
PUBLIC	??1?$_Alloc_construct_ptr@V?$allocator@U?$_List_node@USCommand@CInstanceBase@@PAX@std@@@std@@@std@@QAE@XZ ; std::_Alloc_construct_ptr<std::allocator<std::_List_node<CInstanceBase::SCommand,void *> > >::~_Alloc_construct_ptr<std::allocator<std::_List_node<CInstanceBase::SCommand,void *> > >
PUBLIC	?deallocate@?$_Default_allocator_traits@V?$allocator@U_Container_proxy@std@@@std@@@std@@SAXAAV?$allocator@U_Container_proxy@std@@@2@QAU_Container_proxy@2@I@Z ; std::_Default_allocator_traits<std::allocator<std::_Container_proxy> >::deallocate
PUBLIC	??$_Get_size_of_n@$07@std@@YAII@Z		; std::_Get_size_of_n<8>
PUBLIC	??$_Refancy_maybe_null@PAK$0A@@std@@YAPAKPAK@Z	; std::_Refancy_maybe_null<unsigned long *,0>
PUBLIC	??$_Buyheadnode@V?$allocator@U?$_Tree_node@U?$pair@$$CBKK@std@@PAX@std@@@std@@@?$_Tree_node@U?$pair@$$CBKK@std@@PAX@std@@SAPAU01@AAV?$allocator@U?$_Tree_node@U?$pair@$$CBKK@std@@PAX@std@@@1@@Z ; std::_Tree_node<std::pair<unsigned long const ,unsigned long>,void *>::_Buyheadnode<std::allocator<std::_Tree_node<std::pair<unsigned long const ,unsigned long>,void *> > >
PUBLIC	??$_Unfancy_maybe_null@PAVCInstanceBase@@@std@@YAPAPAVCInstanceBase@@PAPAV1@@Z ; std::_Unfancy_maybe_null<CInstanceBase *>
PUBLIC	??$_Destroy_range@V?$allocator@PAVCInstanceBase@@@std@@@std@@YAXPAPAVCInstanceBase@@QAPAV1@AAV?$allocator@PAVCInstanceBase@@@0@@Z ; std::_Destroy_range<std::allocator<CInstanceBase *> >
PUBLIC	??$_Get_size_of_n@$0CM@@std@@YAII@Z		; std::_Get_size_of_n<44>
PUBLIC	??$destroy@USEffectDamage@CInstanceBase@@@?$_Default_allocator_traits@V?$allocator@USEffectDamage@CInstanceBase@@@std@@@std@@SAXAAV?$allocator@USEffectDamage@CInstanceBase@@@1@QAUSEffectDamage@CInstanceBase@@@Z ; std::_Default_allocator_traits<std::allocator<CInstanceBase::SEffectDamage> >::destroy<CInstanceBase::SEffectDamage>
PUBLIC	??$?0USEffectDamage@CInstanceBase@@@?$allocator@PAUSEffectDamage@CInstanceBase@@@std@@QAE@ABV?$allocator@USEffectDamage@CInstanceBase@@@1@@Z ; std::allocator<CInstanceBase::SEffectDamage *>::allocator<CInstanceBase::SEffectDamage *><CInstanceBase::SEffectDamage>
PUBLIC	??$_Destroy_in_place@PAUSEffectDamage@CInstanceBase@@@std@@YAXAAPAUSEffectDamage@CInstanceBase@@@Z ; std::_Destroy_in_place<CInstanceBase::SEffectDamage *>
PUBLIC	??$?0ABV?$allocator@U?$pair@$$CBKM@std@@@std@@$$V@?$_Compressed_pair@V?$allocator@U?$_List_node@U?$pair@$$CBKM@std@@PAX@std@@@std@@V?$_List_val@U?$_List_simple_types@U?$pair@$$CBKM@std@@@std@@@2@$00@std@@QAE@U_One_then_variadic_args_t@1@ABV?$allocator@U?$pair@$$CBKM@std@@@1@@Z ; std::_Compressed_pair<std::allocator<std::_List_node<std::pair<unsigned long const ,float>,void *> >,std::_List_val<std::_List_simple_types<std::pair<unsigned long const ,float> > >,1>::_Compressed_pair<std::allocator<std::_List_node<std::pair<unsigned long const ,float>,void *> >,std::_List_val<std::_List_simple_types<std::pair<unsigned long const ,float> > >,1><std::allocator<std::pair<unsigned long const ,float> > const &>
PUBLIC	??$fill@PAV?$_List_unchecked_iterator@V?$_List_val@U?$_List_simple_types@U?$pair@$$CBKM@std@@@std@@@std@@@std@@V12@@std@@YAXQAV?$_List_unchecked_iterator@V?$_List_val@U?$_List_simple_types@U?$pair@$$CBKM@std@@@std@@@std@@@0@0ABV10@@Z ; std::fill<std::_List_unchecked_iterator<std::_List_val<std::_List_simple_types<std::pair<unsigned long const ,float> > > > *,std::_List_unchecked_iterator<std::_List_val<std::_List_simple_types<std::pair<unsigned long const ,float> > > > >
PUBLIC	??$uninitialized_fill@PAV?$_List_unchecked_iterator@V?$_List_val@U?$_List_simple_types@U?$pair@$$CBKM@std@@@std@@@std@@@std@@V12@@std@@YAXQAV?$_List_unchecked_iterator@V?$_List_val@U?$_List_simple_types@U?$pair@$$CBKM@std@@@std@@@std@@@0@0ABV10@@Z ; std::uninitialized_fill<std::_List_unchecked_iterator<std::_List_val<std::_List_simple_types<std::pair<unsigned long const ,float> > > > *,std::_List_unchecked_iterator<std::_List_val<std::_List_simple_types<std::pair<unsigned long const ,float> > > > >
PUBLIC	??$_Get_unwrapped@ABQAV?$_List_unchecked_iterator@V?$_List_val@U?$_List_simple_types@U?$pair@$$CBKM@std@@@std@@@std@@@std@@@std@@YA?A_TABQAV?$_List_unchecked_iterator@V?$_List_val@U?$_List_simple_types@U?$pair@$$CBKM@std@@@std@@@std@@@0@@Z ; std::_Get_unwrapped<std::_List_unchecked_iterator<std::_List_val<std::_List_simple_types<std::pair<unsigned long const ,float> > > > * const &>
PUBLIC	??$_Construct_in_place@PAU?$_List_node@USCommand@CInstanceBase@@PAX@std@@ABQAU12@@std@@YAXAAPAU?$_List_node@USCommand@CInstanceBase@@PAX@0@ABQAU10@@Z ; std::_Construct_in_place<std::_List_node<CInstanceBase::SCommand,void *> *,std::_List_node<CInstanceBase::SCommand,void *> * const &>
PUBLIC	??$forward@ABU?$less@K@std@@@std@@YAABU?$less@K@0@ABU10@@Z ; std::forward<std::less<unsigned long> const &>
PUBLIC	??$_Emplace_reallocate@ABQAVCInstanceBase@@@?$vector@PAVCInstanceBase@@V?$allocator@PAVCInstanceBase@@@std@@@std@@AAEPAPAVCInstanceBase@@QAPAV2@ABQAV2@@Z ; std::vector<CInstanceBase *,std::allocator<CInstanceBase *> >::_Emplace_reallocate<CInstanceBase * const &>
PUBLIC	??$_Emplace_back_with_unused_capacity@ABQAVCInstanceBase@@@?$vector@PAVCInstanceBase@@V?$allocator@PAVCInstanceBase@@@std@@@std@@AAEAAPAVCInstanceBase@@ABQAV2@@Z ; std::vector<CInstanceBase *,std::allocator<CInstanceBase *> >::_Emplace_back_with_unused_capacity<CInstanceBase * const &>
PUBLIC	??$forward@ABQAVCInstanceBase@@@std@@YAABQAVCInstanceBase@@ABQAV1@@Z ; std::forward<CInstanceBase * const &>
PUBLIC	??$_Uninitialized_move@PAPAVCInstanceBase@@V?$allocator@PAVCInstanceBase@@@std@@@std@@YAPAPAVCInstanceBase@@QAPAV1@0PAPAV1@AAV?$allocator@PAVCInstanceBase@@@0@@Z ; std::_Uninitialized_move<CInstanceBase * *,std::allocator<CInstanceBase *> >
PUBLIC	??$_Get_unwrapped@ABQAPAVCInstanceBase@@@std@@YA?A_TABQAPAVCInstanceBase@@@Z ; std::_Get_unwrapped<CInstanceBase * * const &>
PUBLIC	??$_Allocate_at_least_helper@V?$allocator@PAVCInstanceBase@@@std@@@std@@YAPAPAVCInstanceBase@@AAV?$allocator@PAVCInstanceBase@@@0@AAI@Z ; std::_Allocate_at_least_helper<std::allocator<CInstanceBase *> >
PUBLIC	??$destroy_at@PAVCInstanceBase@@@std@@YAXQAPAVCInstanceBase@@@Z ; std::destroy_at<CInstanceBase *>
PUBLIC	??$_Destroy_in_place@PAU?$_List_node@USCommand@CInstanceBase@@PAX@std@@@std@@YAXAAPAU?$_List_node@USCommand@CInstanceBase@@PAX@0@@Z ; std::_Destroy_in_place<std::_List_node<CInstanceBase::SCommand,void *> *>
PUBLIC	??$construct_at@PAU?$_List_node@USCommand@CInstanceBase@@PAX@std@@AAPAU12@@std@@YAPAPAU?$_List_node@USCommand@CInstanceBase@@PAX@0@QAPAU10@AAPAU10@@Z ; std::construct_at<std::_List_node<CInstanceBase::SCommand,void *> *,std::_List_node<CInstanceBase::SCommand,void *> * &>
PUBLIC	??$forward@AAPAU?$_List_node@USCommand@CInstanceBase@@PAX@std@@@std@@YAAAPAU?$_List_node@USCommand@CInstanceBase@@PAX@0@AAPAU10@@Z ; std::forward<std::_List_node<CInstanceBase::SCommand,void *> * &>
PUBLIC	??$addressof@PAU?$_List_node@USCommand@CInstanceBase@@PAX@std@@@std@@YAPAPAU?$_List_node@USCommand@CInstanceBase@@PAX@0@AAPAU10@@Z ; std::addressof<std::_List_node<CInstanceBase::SCommand,void *> *>
PUBLIC	??$forward@U_Zero_then_variadic_args_t@std@@@std@@YA$$QAU_Zero_then_variadic_args_t@0@AAU10@@Z ; std::forward<std::_Zero_then_variadic_args_t>
PUBLIC	??$?0ABV?$allocator@U?$pair@$$CBKM@std@@@std@@$$V@?$_Compressed_pair@V?$allocator@V?$_List_unchecked_iterator@V?$_List_val@U?$_List_simple_types@U?$pair@$$CBKM@std@@@std@@@std@@@std@@@std@@V?$_Vector_val@U?$_Simple_types@V?$_List_unchecked_iterator@V?$_List_val@U?$_List_simple_types@U?$pair@$$CBKM@std@@@std@@@std@@@std@@@std@@@2@$00@std@@QAE@U_One_then_variadic_args_t@1@ABV?$allocator@U?$pair@$$CBKM@std@@@1@@Z ; std::_Compressed_pair<std::allocator<std::_List_unchecked_iterator<std::_List_val<std::_List_simple_types<std::pair<unsigned long const ,float> > > > >,std::_Vector_val<std::_Simple_types<std::_List_unchecked_iterator<std::_List_val<std::_List_simple_types<std::pair<unsigned long const ,float> > > > > >,1>::_Compressed_pair<std::allocator<std::_List_unchecked_iterator<std::_List_val<std::_List_simple_types<std::pair<unsigned long const ,float> > > > >,std::_Vector_val<std::_Simple_types<std::_List_unchecked_iterator<std::_List_val<std::_List_simple_types<std::pair<unsigned long const ,float> > > > > >,1><std::allocator<std::pair<unsigned long const ,float> > const &>
PUBLIC	??$forward@ABV?$allocator@U?$pair@$$CBKM@std@@@std@@@std@@YAABV?$allocator@U?$pair@$$CBKM@std@@@0@ABV10@@Z ; std::forward<std::allocator<std::pair<unsigned long const ,float> > const &>
PUBLIC	??$emplace@ABU?$pair@$$CBKM@std@@@?$_Hash@V?$_Umap_traits@KMV?$_Uhash_compare@KU?$hash@K@std@@U?$equal_to@K@2@@std@@V?$allocator@U?$pair@$$CBKM@std@@@2@$0A@@std@@@std@@QAE?AU?$pair@V?$_List_iterator@V?$_List_val@U?$_List_simple_types@U?$pair@$$CBKM@std@@@std@@@std@@@std@@_N@1@ABU?$pair@$$CBKM@1@@Z ; std::_Hash<std::_Umap_traits<unsigned long,float,std::_Uhash_compare<unsigned long,std::hash<unsigned long>,std::equal_to<unsigned long> >,std::allocator<std::pair<unsigned long const ,float> >,0> >::emplace<std::pair<unsigned long const ,float> const &>
PUBLIC	??$_Destroy_in_place@PAU?$_List_node@U?$pair@$$CBKM@std@@PAX@std@@@std@@YAXAAPAU?$_List_node@U?$pair@$$CBKM@std@@PAX@0@@Z ; std::_Destroy_in_place<std::_List_node<std::pair<unsigned long const ,float>,void *> *>
PUBLIC	??$_Freenode@V?$allocator@U?$_List_node@U?$pair@$$CBKM@std@@PAX@std@@@std@@@?$_List_node@U?$pair@$$CBKM@std@@PAX@std@@SAXAAV?$allocator@U?$_List_node@U?$pair@$$CBKM@std@@PAX@std@@@1@PAU01@@Z ; std::_List_node<std::pair<unsigned long const ,float>,void *>::_Freenode<std::allocator<std::_List_node<std::pair<unsigned long const ,float>,void *> > >
PUBLIC	??$_Uninitialized_move@PAKV?$allocator@K@std@@@std@@YAPAKQAK0PAKAAV?$allocator@K@0@@Z ; std::_Uninitialized_move<unsigned long *,std::allocator<unsigned long> >
PUBLIC	??$_Get_unwrapped@ABQAK@std@@YA?A_TABQAK@Z	; std::_Get_unwrapped<unsigned long * const &>
PUBLIC	??$construct@KABK@?$_Default_allocator_traits@V?$allocator@K@std@@@std@@SAXAAV?$allocator@K@1@QAKABK@Z ; std::_Default_allocator_traits<std::allocator<unsigned long> >::construct<unsigned long,unsigned long const &>
PUBLIC	??$_Construct_in_place@KABK@std@@YAXAAKABK@Z	; std::_Construct_in_place<unsigned long,unsigned long const &>
PUBLIC	??$_Destroy_in_place@PAU?$_Tree_node@U?$pair@$$CBKK@std@@PAX@std@@@std@@YAXAAPAU?$_Tree_node@U?$pair@$$CBKK@std@@PAX@0@@Z ; std::_Destroy_in_place<std::_Tree_node<std::pair<unsigned long const ,unsigned long>,void *> *>
PUBLIC	??$_Freenode@V?$allocator@U?$_Tree_node@U?$pair@$$CBKK@std@@PAX@std@@@std@@@?$_Tree_node@U?$pair@$$CBKK@std@@PAX@std@@SAXAAV?$allocator@U?$_Tree_node@U?$pair@$$CBKK@std@@PAX@std@@@1@PAU01@@Z ; std::_Tree_node<std::pair<unsigned long const ,unsigned long>,void *>::_Freenode<std::allocator<std::_Tree_node<std::pair<unsigned long const ,unsigned long>,void *> > >
PUBLIC	??$exchange@PAU?$_Tree_node@U?$pair@$$CBKK@std@@PAX@std@@AAPAU12@@std@@YAPAU?$_Tree_node@U?$pair@$$CBKK@std@@PAX@0@AAPAU10@0@Z ; std::exchange<std::_Tree_node<std::pair<unsigned long const ,unsigned long>,void *> *,std::_Tree_node<std::pair<unsigned long const ,unsigned long>,void *> * &>
PUBLIC	??$construct@USCommand@CInstanceBase@@ABU12@@?$_Default_allocator_traits@V?$allocator@U?$_List_node@USCommand@CInstanceBase@@PAX@std@@@std@@@std@@SAXAAV?$allocator@U?$_List_node@USCommand@CInstanceBase@@PAX@std@@@1@QAUSCommand@CInstanceBase@@ABU34@@Z ; std::_Default_allocator_traits<std::allocator<std::_List_node<CInstanceBase::SCommand,void *> > >::construct<CInstanceBase::SCommand,CInstanceBase::SCommand const &>
PUBLIC	??$destroy@USCommand@CInstanceBase@@@?$_Default_allocator_traits@V?$allocator@U?$_List_node@USCommand@CInstanceBase@@PAX@std@@@std@@@std@@SAXAAV?$allocator@U?$_List_node@USCommand@CInstanceBase@@PAX@std@@@1@QAUSCommand@CInstanceBase@@@Z ; std::_Default_allocator_traits<std::allocator<std::_List_node<CInstanceBase::SCommand,void *> > >::destroy<CInstanceBase::SCommand>
PUBLIC	??$addressof@USCommand@CInstanceBase@@@std@@YAPAUSCommand@CInstanceBase@@AAU12@@Z ; std::addressof<CInstanceBase::SCommand>
PUBLIC	??$?RKK@?$_Uhash_compare@KU?$hash@K@std@@U?$equal_to@K@2@@std@@QBE_NABK0@Z ; std::_Uhash_compare<unsigned long,std::hash<unsigned long>,std::equal_to<unsigned long> >::operator()<unsigned long,unsigned long>
PUBLIC	??$_Kfn@$$CBKM@?$_Umap_traits@KMV?$_Uhash_compare@KU?$hash@K@std@@U?$equal_to@K@2@@std@@V?$allocator@U?$pair@$$CBKM@std@@@2@$0A@@std@@SAABKABU?$pair@$$CBKM@1@@Z ; std::_Umap_traits<unsigned long,float,std::_Uhash_compare<unsigned long,std::hash<unsigned long>,std::equal_to<unsigned long> >,std::allocator<std::pair<unsigned long const ,float> >,0>::_Kfn<unsigned long const ,float>
PUBLIC	??$forward@_N@std@@YA$$QA_NAA_N@Z		; std::forward<bool>
PUBLIC	??$?0$$V@?$_Compressed_pair@V?$allocator@U?$_Tree_node@U?$pair@$$CBKK@std@@PAX@std@@@std@@V?$_Tree_val@U?$_Tree_simple_types@U?$pair@$$CBKK@std@@@std@@@2@$00@std@@QAE@U_Zero_then_variadic_args_t@1@@Z ; std::_Compressed_pair<std::allocator<std::_Tree_node<std::pair<unsigned long const ,unsigned long>,void *> >,std::_Tree_val<std::_Tree_simple_types<std::pair<unsigned long const ,unsigned long> > >,1>::_Compressed_pair<std::allocator<std::_Tree_node<std::pair<unsigned long const ,unsigned long>,void *> >,std::_Tree_val<std::_Tree_simple_types<std::pair<unsigned long const ,unsigned long> > >,1><>
PUBLIC	??$?0M@?$_Compressed_pair@U?$equal_to@K@std@@M$00@std@@QAE@U_Zero_then_variadic_args_t@1@$$QAM@Z ; std::_Compressed_pair<std::equal_to<unsigned long>,float,1>::_Compressed_pair<std::equal_to<unsigned long>,float,1><float>
PUBLIC	??0?$_List_unchecked_iterator@V?$_List_val@U?$_List_simple_types@U?$pair@$$CBKM@std@@@std@@@std@@@std@@QAE@PAU?$_List_node@U?$pair@$$CBKM@std@@PAX@1@PBV?$_List_val@U?$_List_simple_types@U?$pair@$$CBKM@std@@@std@@@1@@Z ; std::_List_unchecked_iterator<std::_List_val<std::_List_simple_types<std::pair<unsigned long const ,float> > > >::_List_unchecked_iterator<std::_List_val<std::_List_simple_types<std::pair<unsigned long const ,float> > > >
PUBLIC	?allocate@?$allocator@U_Container_proxy@std@@@std@@QAEPAU_Container_proxy@2@I@Z ; std::allocator<std::_Container_proxy>::allocate
PUBLIC	?_Seek_to@?$_Vector_const_iterator@V?$_Vector_val@U?$_Simple_types@K@std@@@std@@@std@@QAEXPBK@Z ; std::_Vector_const_iterator<std::_Vector_val<std::_Simple_types<unsigned long> > >::_Seek_to
PUBLIC	?_Alloc_sentinel_and_proxy@?$_Tree@V?$_Tmap_traits@KKU?$less@K@std@@V?$allocator@U?$pair@$$CBKK@std@@@2@$0A@@std@@@std@@IAEXXZ ; std::_Tree<std::_Tmap_traits<unsigned long,unsigned long,std::less<unsigned long>,std::allocator<std::pair<unsigned long const ,unsigned long> >,0> >::_Alloc_sentinel_and_proxy
PUBLIC	?_Get_first@?$_Compressed_pair@V?$allocator@U?$_Tree_node@U?$pair@$$CBKK@std@@PAX@std@@@std@@V?$_Tree_val@U?$_Tree_simple_types@U?$pair@$$CBKK@std@@@std@@@2@$00@std@@QAEAAV?$allocator@U?$_Tree_node@U?$pair@$$CBKK@std@@PAX@std@@@2@XZ ; std::_Compressed_pair<std::allocator<std::_Tree_node<std::pair<unsigned long const ,unsigned long>,void *> >,std::_Tree_val<std::_Tree_simple_types<std::pair<unsigned long const ,unsigned long> > >,1>::_Get_first
PUBLIC	?clear@?$vector@PAVCInstanceBase@@V?$allocator@PAVCInstanceBase@@@std@@@std@@QAEXXZ ; std::vector<CInstanceBase *,std::allocator<CInstanceBase *> >::clear
PUBLIC	?_Unchecked_begin@?$vector@PAVCInstanceBase@@V?$allocator@PAVCInstanceBase@@@std@@@std@@QAEPAPAVCInstanceBase@@XZ ; std::vector<CInstanceBase *,std::allocator<CInstanceBase *> >::_Unchecked_begin
PUBLIC	?_Unchecked_end@?$vector@PAVCInstanceBase@@V?$allocator@PAVCInstanceBase@@@std@@@std@@QAEPAPAVCInstanceBase@@XZ ; std::vector<CInstanceBase *,std::allocator<CInstanceBase *> >::_Unchecked_end
PUBLIC	?max_size@?$vector@PAVCInstanceBase@@V?$allocator@PAVCInstanceBase@@@std@@@std@@QBEIXZ ; std::vector<CInstanceBase *,std::allocator<CInstanceBase *> >::max_size
PUBLIC	?capacity@?$vector@PAVCInstanceBase@@V?$allocator@PAVCInstanceBase@@@std@@@std@@QBEIXZ ; std::vector<CInstanceBase *,std::allocator<CInstanceBase *> >::capacity
PUBLIC	?_Tidy@?$vector@PAVCInstanceBase@@V?$allocator@PAVCInstanceBase@@@std@@@std@@AAEXXZ ; std::vector<CInstanceBase *,std::allocator<CInstanceBase *> >::_Tidy
PUBLIC	?_Xlength@?$vector@PAVCInstanceBase@@V?$allocator@PAVCInstanceBase@@@std@@@std@@CAXXZ ; std::vector<CInstanceBase *,std::allocator<CInstanceBase *> >::_Xlength
PUBLIC	?_Orphan_range@?$vector@PAVCInstanceBase@@V?$allocator@PAVCInstanceBase@@@std@@@std@@ABEXPAPAVCInstanceBase@@0@Z ; std::vector<CInstanceBase *,std::allocator<CInstanceBase *> >::_Orphan_range
PUBLIC	?_Getal@?$vector@PAVCInstanceBase@@V?$allocator@PAVCInstanceBase@@@std@@@std@@AAEAAV?$allocator@PAVCInstanceBase@@@2@XZ ; std::vector<CInstanceBase *,std::allocator<CInstanceBase *> >::_Getal
PUBLIC	?max_size@?$list@USCommand@CInstanceBase@@V?$allocator@USCommand@CInstanceBase@@@std@@@std@@QBEIXZ ; std::list<CInstanceBase::SCommand,std::allocator<CInstanceBase::SCommand> >::max_size
PUBLIC	??0?$allocator@U?$_List_node@USCommand@CInstanceBase@@PAX@std@@@std@@QAE@XZ ; std::allocator<std::_List_node<CInstanceBase::SCommand,void *> >::allocator<std::_List_node<CInstanceBase::SCommand,void *> >
PUBLIC	?allocate@?$allocator@U?$_List_node@USCommand@CInstanceBase@@PAX@std@@@std@@QAEPAU?$_List_node@USCommand@CInstanceBase@@PAX@2@I@Z ; std::allocator<std::_List_node<CInstanceBase::SCommand,void *> >::allocate
PUBLIC	??0?$_List_val@U?$_List_simple_types@USCommand@CInstanceBase@@@std@@@std@@QAE@XZ ; std::_List_val<std::_List_simple_types<CInstanceBase::SCommand> >::_List_val<std::_List_simple_types<CInstanceBase::SCommand> >
PUBLIC	?_Orphan_ptr2@?$_List_val@U?$_List_simple_types@USCommand@CInstanceBase@@@std@@@std@@QAEXPAU?$_List_node@USCommand@CInstanceBase@@PAX@2@@Z ; std::_List_val<std::_List_simple_types<CInstanceBase::SCommand> >::_Orphan_ptr2
PUBLIC	?_Get_first@?$_Compressed_pair@V?$allocator@U?$_List_node@USCommand@CInstanceBase@@PAX@std@@@std@@V?$_List_val@U?$_List_simple_types@USCommand@CInstanceBase@@@std@@@2@$00@std@@QAEAAV?$allocator@U?$_List_node@USCommand@CInstanceBase@@PAX@std@@@2@XZ ; std::_Compressed_pair<std::allocator<std::_List_node<CInstanceBase::SCommand,void *> >,std::_List_val<std::_List_simple_types<CInstanceBase::SCommand> >,1>::_Get_first
PUBLIC	??0?$allocator@USEffectDamage@CInstanceBase@@@std@@QAE@XZ ; std::allocator<CInstanceBase::SEffectDamage>::allocator<CInstanceBase::SEffectDamage>
PUBLIC	?empty@?$deque@USEffectDamage@CInstanceBase@@V?$allocator@USEffectDamage@CInstanceBase@@@std@@@std@@QBE_NXZ ; std::deque<CInstanceBase::SEffectDamage,std::allocator<CInstanceBase::SEffectDamage> >::empty
PUBLIC	?pop_back@?$deque@USEffectDamage@CInstanceBase@@V?$allocator@USEffectDamage@CInstanceBase@@@std@@@std@@QAEXXZ ; std::deque<CInstanceBase::SEffectDamage,std::allocator<CInstanceBase::SEffectDamage> >::pop_back
PUBLIC	?_Reset_map@?$deque@USEffectDamage@CInstanceBase@@V?$allocator@USEffectDamage@CInstanceBase@@@std@@@std@@AAEXXZ ; std::deque<CInstanceBase::SEffectDamage,std::allocator<CInstanceBase::SEffectDamage> >::_Reset_map
PUBLIC	?_Orphan_all@?$deque@USEffectDamage@CInstanceBase@@V?$allocator@USEffectDamage@CInstanceBase@@@std@@@std@@AAEXXZ ; std::deque<CInstanceBase::SEffectDamage,std::allocator<CInstanceBase::SEffectDamage> >::_Orphan_all
PUBLIC	?_Map@?$deque@USEffectDamage@CInstanceBase@@V?$allocator@USEffectDamage@CInstanceBase@@@std@@@std@@AAEAAPAPAUSEffectDamage@CInstanceBase@@XZ ; std::deque<CInstanceBase::SEffectDamage,std::allocator<CInstanceBase::SEffectDamage> >::_Map
PUBLIC	??0?$_Deque_val@U?$_Deque_simple_types@USEffectDamage@CInstanceBase@@@std@@@std@@QAE@XZ ; std::_Deque_val<std::_Deque_simple_types<CInstanceBase::SEffectDamage> >::_Deque_val<std::_Deque_simple_types<CInstanceBase::SEffectDamage> >
PUBLIC	?_Get_first@?$_Compressed_pair@V?$allocator@USEffectDamage@CInstanceBase@@@std@@V?$_Deque_val@U?$_Deque_simple_types@USEffectDamage@CInstanceBase@@@std@@@2@$00@std@@QAEAAV?$allocator@USEffectDamage@CInstanceBase@@@2@XZ ; std::_Compressed_pair<std::allocator<CInstanceBase::SEffectDamage>,std::_Deque_val<std::_Deque_simple_types<CInstanceBase::SEffectDamage> >,1>::_Get_first
PUBLIC	?Delete@?$CDynamicPool@VCInstanceBase@@@@KAXPAVCInstanceBase@@@Z ; CDynamicPool<CInstanceBase>::Delete
PUBLIC	??R?$_Conditionally_enabled_hash@K$00@std@@SAIABK@Z ; std::_Conditionally_enabled_hash<unsigned long,1>::operator()
PUBLIC	?_Get_first@?$_Compressed_pair@U?$hash@K@std@@V?$_Compressed_pair@U?$equal_to@K@std@@M$00@2@$00@std@@QBEABU?$hash@K@2@XZ ; std::_Compressed_pair<std::hash<unsigned long>,std::_Compressed_pair<std::equal_to<unsigned long>,float,1>,1>::_Get_first
PUBLIC	??0?$_Umap_traits@KMV?$_Uhash_compare@KU?$hash@K@std@@U?$equal_to@K@2@@std@@V?$allocator@U?$pair@$$CBKM@std@@@2@$0A@@std@@QAE@ABV?$_Uhash_compare@KU?$hash@K@std@@U?$equal_to@K@2@@1@@Z ; std::_Umap_traits<unsigned long,float,std::_Uhash_compare<unsigned long,std::hash<unsigned long>,std::equal_to<unsigned long> >,std::allocator<std::pair<unsigned long const ,float> >,0>::_Umap_traits<unsigned long,float,std::_Uhash_compare<unsigned long,std::hash<unsigned long>,std::equal_to<unsigned long> >,std::allocator<std::pair<unsigned long const ,float> >,0>
PUBLIC	?_Max_bucket_size@?$_Hash@V?$_Umap_traits@KMV?$_Uhash_compare@KU?$hash@K@std@@U?$equal_to@K@2@@std@@V?$allocator@U?$pair@$$CBKM@std@@@2@$0A@@std@@@std@@IAEAAMXZ ; std::_Hash<std::_Umap_traits<unsigned long,float,std::_Uhash_compare<unsigned long,std::hash<unsigned long>,std::equal_to<unsigned long> >,std::allocator<std::pair<unsigned long const ,float> >,0> >::_Max_bucket_size
PUBLIC	??0?$list@U?$pair@$$CBKM@std@@V?$allocator@U?$pair@$$CBKM@std@@@2@@std@@QAE@ABV?$allocator@U?$pair@$$CBKM@std@@@1@@Z ; std::list<std::pair<unsigned long const ,float>,std::allocator<std::pair<unsigned long const ,float> > >::list<std::pair<unsigned long const ,float>,std::allocator<std::pair<unsigned long const ,float> > >
PUBLIC	?_Unchecked_end@?$list@U?$pair@$$CBKM@std@@V?$allocator@U?$pair@$$CBKM@std@@@2@@std@@QAE?AV?$_List_unchecked_iterator@V?$_List_val@U?$_List_simple_types@U?$pair@$$CBKM@std@@@std@@@std@@@2@XZ ; std::list<std::pair<unsigned long const ,float>,std::allocator<std::pair<unsigned long const ,float> > >::_Unchecked_end
PUBLIC	?_Getal@?$list@U?$pair@$$CBKM@std@@V?$allocator@U?$pair@$$CBKM@std@@@2@@std@@AAEAAV?$allocator@U?$_List_node@U?$pair@$$CBKM@std@@PAX@std@@@2@XZ ; std::list<std::pair<unsigned long const ,float>,std::allocator<std::pair<unsigned long const ,float> > >::_Getal
PUBLIC	??D?$_List_const_iterator@V?$_List_val@U?$_List_simple_types@U?$pair@$$CBKM@std@@@std@@@std@@@std@@QBEABU?$pair@$$CBKM@1@XZ ; std::_List_const_iterator<std::_List_val<std::_List_simple_types<std::pair<unsigned long const ,float> > > >::operator*
PUBLIC	??0?$_List_unchecked_const_iterator@V?$_List_val@U?$_List_simple_types@U?$pair@$$CBKM@std@@@std@@@std@@U_Iterator_base0@2@@std@@QAE@PAU?$_List_node@U?$pair@$$CBKM@std@@PAX@1@PBV?$_List_val@U?$_List_simple_types@U?$pair@$$CBKM@std@@@std@@@1@@Z ; std::_List_unchecked_const_iterator<std::_List_val<std::_List_simple_types<std::pair<unsigned long const ,float> > >,std::_Iterator_base0>::_List_unchecked_const_iterator<std::_List_val<std::_List_simple_types<std::pair<unsigned long const ,float> > >,std::_Iterator_base0>
PUBLIC	?begin@?$initializer_list@U?$pair@$$CBKM@std@@@std@@QBEPBU?$pair@$$CBKM@2@XZ ; std::initializer_list<std::pair<unsigned long const ,float> >::begin
PUBLIC	?end@?$initializer_list@U?$pair@$$CBKM@std@@@std@@QBEPBU?$pair@$$CBKM@2@XZ ; std::initializer_list<std::pair<unsigned long const ,float> >::end
PUBLIC	?deallocate@?$allocator@V?$_List_unchecked_iterator@V?$_List_val@U?$_List_simple_types@U?$pair@$$CBKM@std@@@std@@@std@@@std@@@std@@QAEXQAV?$_List_unchecked_iterator@V?$_List_val@U?$_List_simple_types@U?$pair@$$CBKM@std@@@std@@@std@@@2@I@Z ; std::allocator<std::_List_unchecked_iterator<std::_List_val<std::_List_simple_types<std::pair<unsigned long const ,float> > > > >::deallocate
PUBLIC	?capacity@?$_Hash_vec@V?$allocator@V?$_List_unchecked_iterator@V?$_List_val@U?$_List_simple_types@U?$pair@$$CBKM@std@@@std@@@std@@@std@@@std@@@std@@QBEIXZ ; std::_Hash_vec<std::allocator<std::_List_unchecked_iterator<std::_List_val<std::_List_simple_types<std::pair<unsigned long const ,float> > > > > >::capacity
PUBLIC	?_Assign_grow@?$_Hash_vec@V?$allocator@V?$_List_unchecked_iterator@V?$_List_val@U?$_List_simple_types@U?$pair@$$CBKM@std@@@std@@@std@@@std@@@std@@@std@@QAEXIV?$_List_unchecked_iterator@V?$_List_val@U?$_List_simple_types@U?$pair@$$CBKM@std@@@std@@@std@@@2@@Z ; std::_Hash_vec<std::allocator<std::_List_unchecked_iterator<std::_List_val<std::_List_simple_types<std::pair<unsigned long const ,float> > > > > >::_Assign_grow
PUBLIC	?_Get_first@?$_Compressed_pair@V?$allocator@V?$_List_unchecked_iterator@V?$_List_val@U?$_List_simple_types@U?$pair@$$CBKM@std@@@std@@@std@@@std@@@std@@V?$_Vector_val@U?$_Simple_types@V?$_List_unchecked_iterator@V?$_List_val@U?$_List_simple_types@U?$pair@$$CBKM@std@@@std@@@std@@@std@@@std@@@2@$00@std@@QAEAAV?$allocator@V?$_List_unchecked_iterator@V?$_List_val@U?$_List_simple_types@U?$pair@$$CBKM@std@@@std@@@std@@@std@@@2@XZ ; std::_Compressed_pair<std::allocator<std::_List_unchecked_iterator<std::_List_val<std::_List_simple_types<std::pair<unsigned long const ,float> > > > >,std::_Vector_val<std::_Simple_types<std::_List_unchecked_iterator<std::_List_val<std::_List_simple_types<std::pair<unsigned long const ,float> > > > > >,1>::_Get_first
PUBLIC	??1?$_List_node_emplace_op2@V?$allocator@U?$_List_node@USCommand@CInstanceBase@@PAX@std@@@std@@@std@@QAE@XZ ; std::_List_node_emplace_op2<std::allocator<std::_List_node<CInstanceBase::SCommand,void *> > >::~_List_node_emplace_op2<std::allocator<std::_List_node<CInstanceBase::SCommand,void *> > >
PUBLIC	?_Transfer_before@?$_List_node_emplace_op2@V?$allocator@U?$_List_node@USCommand@CInstanceBase@@PAX@std@@@std@@@std@@QAEPAU?$_List_node@USCommand@CInstanceBase@@PAX@2@QAU32@@Z ; std::_List_node_emplace_op2<std::allocator<std::_List_node<CInstanceBase::SCommand,void *> > >::_Transfer_before
PUBLIC	?_Mark@?$_String_bitmap@D$00@std@@QAE_NPBDQBD@Z	; std::_String_bitmap<char,1>::_Mark
PUBLIC	?_Match@?$_String_bitmap@D$00@std@@QBE_ND@Z	; std::_String_bitmap<char,1>::_Match
PUBLIC	??$?0ABU?$less@K@std@@U_Zero_then_variadic_args_t@1@@?$_Compressed_pair@U?$less@K@std@@V?$_Compressed_pair@V?$allocator@U?$_Tree_node@U?$pair@$$CBKK@std@@PAX@std@@@std@@V?$_Tree_val@U?$_Tree_simple_types@U?$pair@$$CBKK@std@@@std@@@2@$00@2@$00@std@@QAE@U_One_then_variadic_args_t@1@ABU?$less@K@1@$$QAU_Zero_then_variadic_args_t@1@@Z ; std::_Compressed_pair<std::less<unsigned long>,std::_Compressed_pair<std::allocator<std::_Tree_node<std::pair<unsigned long const ,unsigned long>,void *> >,std::_Tree_val<std::_Tree_simple_types<std::pair<unsigned long const ,unsigned long> > >,1>,1>::_Compressed_pair<std::less<unsigned long>,std::_Compressed_pair<std::allocator<std::_Tree_node<std::pair<unsigned long const ,unsigned long>,void *> >,std::_Tree_val<std::_Tree_simple_types<std::pair<unsigned long const ,unsigned long> > >,1>,1><std::less<unsigned long> const &,std::_Zero_then_variadic_args_t>
PUBLIC	??$addressof@V?$_Tree_val@U?$_Tree_simple_types@U?$pair@$$CBKK@std@@@std@@@std@@@std@@YAPAV?$_Tree_val@U?$_Tree_simple_types@U?$pair@$$CBKK@std@@@std@@@0@AAV10@@Z ; std::addressof<std::_Tree_val<std::_Tree_simple_types<std::pair<unsigned long const ,unsigned long> > > >
PUBLIC	??$?0$$V@?$_Compressed_pair@V?$allocator@PAVCInstanceBase@@@std@@V?$_Vector_val@U?$_Simple_types@PAVCInstanceBase@@@std@@@2@$00@std@@QAE@U_Zero_then_variadic_args_t@1@@Z ; std::_Compressed_pair<std::allocator<CInstanceBase *>,std::_Vector_val<std::_Simple_types<CInstanceBase *> >,1>::_Compressed_pair<std::allocator<CInstanceBase *>,std::_Vector_val<std::_Simple_types<CInstanceBase *> >,1><>
PUBLIC	??$_Emplace_one_at_back@ABQAVCInstanceBase@@@?$vector@PAVCInstanceBase@@V?$allocator@PAVCInstanceBase@@@std@@@std@@AAEAAPAVCInstanceBase@@ABQAV2@@Z ; std::vector<CInstanceBase *,std::allocator<CInstanceBase *> >::_Emplace_one_at_back<CInstanceBase * const &>
PUBLIC	??$destroy@PAVCInstanceBase@@@?$_Default_allocator_traits@V?$allocator@PAVCInstanceBase@@@std@@@std@@SAXAAV?$allocator@PAVCInstanceBase@@@1@QAPAVCInstanceBase@@@Z ; std::_Default_allocator_traits<std::allocator<CInstanceBase *> >::destroy<CInstanceBase *>
PUBLIC	??$_Unfancy@PAVCInstanceBase@@@std@@YAPAPAVCInstanceBase@@PAPAV1@@Z ; std::_Unfancy<CInstanceBase *>
PUBLIC	??$_Freenode0@V?$allocator@U?$_List_node@USCommand@CInstanceBase@@PAX@std@@@std@@@?$_List_node@USCommand@CInstanceBase@@PAX@std@@SAXAAV?$allocator@U?$_List_node@USCommand@CInstanceBase@@PAX@std@@@1@PAU01@@Z ; std::_List_node<CInstanceBase::SCommand,void *>::_Freenode0<std::allocator<std::_List_node<CInstanceBase::SCommand,void *> > >
PUBLIC	??$_Construct_in_place@PAU?$_List_node@USCommand@CInstanceBase@@PAX@std@@AAPAU12@@std@@YAXAAPAU?$_List_node@USCommand@CInstanceBase@@PAX@0@0@Z ; std::_Construct_in_place<std::_List_node<CInstanceBase::SCommand,void *> *,std::_List_node<CInstanceBase::SCommand,void *> * &>
PUBLIC	??$?0U_Zero_then_variadic_args_t@std@@M@?$_Compressed_pair@U?$hash@K@std@@V?$_Compressed_pair@U?$equal_to@K@std@@M$00@2@$00@std@@QAE@U_Zero_then_variadic_args_t@1@$$QAU21@$$QAM@Z ; std::_Compressed_pair<std::hash<unsigned long>,std::_Compressed_pair<std::equal_to<unsigned long>,float,1>,1>::_Compressed_pair<std::hash<unsigned long>,std::_Compressed_pair<std::equal_to<unsigned long>,float,1>,1><std::_Zero_then_variadic_args_t,float>
PUBLIC	??$?0ABV?$allocator@U?$pair@$$CBKM@std@@@std@@$0A@@?$_Hash_vec@V?$allocator@V?$_List_unchecked_iterator@V?$_List_val@U?$_List_simple_types@U?$pair@$$CBKM@std@@@std@@@std@@@std@@@std@@@std@@QAE@ABV?$allocator@U?$pair@$$CBKM@std@@@1@@Z ; std::_Hash_vec<std::allocator<std::_List_unchecked_iterator<std::_List_val<std::_List_simple_types<std::pair<unsigned long const ,float> > > > > >::_Hash_vec<std::allocator<std::_List_unchecked_iterator<std::_List_val<std::_List_simple_types<std::pair<unsigned long const ,float> > > > > ><std::allocator<std::pair<unsigned long const ,float> > const &,0>
PUBLIC	??$_Insert_range_unchecked@PBU?$pair@$$CBKM@std@@PBU12@@?$_Hash@V?$_Umap_traits@KMV?$_Uhash_compare@KU?$hash@K@std@@U?$equal_to@K@2@@std@@V?$allocator@U?$pair@$$CBKM@std@@@2@$0A@@std@@@std@@IAEXPBU?$pair@$$CBKM@1@QBU21@@Z ; std::_Hash<std::_Umap_traits<unsigned long,float,std::_Uhash_compare<unsigned long,std::hash<unsigned long>,std::equal_to<unsigned long> >,std::allocator<std::pair<unsigned long const ,float> >,0> >::_Insert_range_unchecked<std::pair<unsigned long const ,float> const *,std::pair<unsigned long const ,float> const *>
PUBLIC	??$addressof@V?$_List_val@U?$_List_simple_types@U?$pair@$$CBKM@std@@@std@@@std@@@std@@YAPAV?$_List_val@U?$_List_simple_types@U?$pair@$$CBKM@std@@@std@@@0@AAV10@@Z ; std::addressof<std::_List_val<std::_List_simple_types<std::pair<unsigned long const ,float> > > >
PUBLIC	??$addressof@$$CBV?$_List_val@U?$_List_simple_types@U?$pair@$$CBKM@std@@@std@@@std@@@std@@YAPBV?$_List_val@U?$_List_simple_types@U?$pair@$$CBKM@std@@@std@@@0@ABV10@@Z ; std::addressof<std::_List_val<std::_List_simple_types<std::pair<unsigned long const ,float> > > const >
PUBLIC	??$_Freenode0@V?$allocator@U?$_List_node@U?$pair@$$CBKM@std@@PAX@std@@@std@@@?$_List_node@U?$pair@$$CBKM@std@@PAX@std@@SAXAAV?$allocator@U?$_List_node@U?$pair@$$CBKM@std@@PAX@std@@@1@PAU01@@Z ; std::_List_node<std::pair<unsigned long const ,float>,void *>::_Freenode0<std::allocator<std::_List_node<std::pair<unsigned long const ,float>,void *> > >
PUBLIC	??$_Free_non_head@V?$allocator@U?$_List_node@U?$pair@$$CBKM@std@@PAX@std@@@std@@@?$_List_node@U?$pair@$$CBKM@std@@PAX@std@@SAXAAV?$allocator@U?$_List_node@U?$pair@$$CBKM@std@@PAX@std@@@1@PAU01@@Z ; std::_List_node<std::pair<unsigned long const ,float>,void *>::_Free_non_head<std::allocator<std::_List_node<std::pair<unsigned long const ,float>,void *> > >
PUBLIC	??$_Destroy_range@PAV?$_List_unchecked_iterator@V?$_List_val@U?$_List_simple_types@U?$pair@$$CBKM@std@@@std@@@std@@@std@@PAV12@@std@@YAXPAV?$_List_unchecked_iterator@V?$_List_val@U?$_List_simple_types@U?$pair@$$CBKM@std@@@std@@@std@@@0@QAV10@@Z ; std::_Destroy_range<std::_List_unchecked_iterator<std::_List_val<std::_List_simple_types<std::pair<unsigned long const ,float> > > > *,std::_List_unchecked_iterator<std::_List_val<std::_List_simple_types<std::pair<unsigned long const ,float> > > > *>
PUBLIC	??$addressof@U?$pair@$$CBKM@std@@@std@@YAPAU?$pair@$$CBKM@0@AAU10@@Z ; std::addressof<std::pair<unsigned long const ,float> >
PUBLIC	??$_Find_first_of_pos_vectorized@DD@std@@YAIQBDI0I@Z ; std::_Find_first_of_pos_vectorized<char,char>
PUBLIC	??$_Emplace_reallocate@ABK@?$vector@KV?$allocator@K@std@@@std@@AAEPAKQAKABK@Z ; std::vector<unsigned long,std::allocator<unsigned long> >::_Emplace_reallocate<unsigned long const &>
PUBLIC	??$_Emplace_back_with_unused_capacity@ABK@?$vector@KV?$allocator@K@std@@@std@@AAEAAKABK@Z ; std::vector<unsigned long,std::allocator<unsigned long> >::_Emplace_back_with_unused_capacity<unsigned long const &>
PUBLIC	??$forward@ABK@std@@YAABKABK@Z			; std::forward<unsigned long const &>
PUBLIC	??$destroy_at@K@std@@YAXQAK@Z			; std::destroy_at<unsigned long>
PUBLIC	??$move@AAK@std@@YA$$QAKAAK@Z			; std::move<unsigned long &>
PUBLIC	??$_Copy_memmove@PAKPAK@std@@YAPAKPAK00@Z	; std::_Copy_memmove<unsigned long *,unsigned long *>
PUBLIC	??$_Freenode0@V?$allocator@U?$_Tree_node@U?$pair@$$CBKK@std@@PAX@std@@@std@@@?$_Tree_node@U?$pair@$$CBKK@std@@PAX@std@@SAXAAV?$allocator@U?$_Tree_node@U?$pair@$$CBKK@std@@PAX@std@@@1@PAU01@@Z ; std::_Tree_node<std::pair<unsigned long const ,unsigned long>,void *>::_Freenode0<std::allocator<std::_Tree_node<std::pair<unsigned long const ,unsigned long>,void *> > >
PUBLIC	??$_Erase_tree@V?$allocator@U?$_Tree_node@U?$pair@$$CBKK@std@@PAX@std@@@std@@@?$_Tree_val@U?$_Tree_simple_types@U?$pair@$$CBKK@std@@@std@@@std@@QAEXAAV?$allocator@U?$_Tree_node@U?$pair@$$CBKK@std@@PAX@std@@@1@PAU?$_Tree_node@U?$pair@$$CBKK@std@@PAX@1@@Z ; std::_Tree_val<std::_Tree_simple_types<std::pair<unsigned long const ,unsigned long> > >::_Erase_tree<std::allocator<std::_Tree_node<std::pair<unsigned long const ,unsigned long>,void *> > >
PUBLIC	??$?0ABUSCommand@CInstanceBase@@@?$_List_node_emplace_op2@V?$allocator@U?$_List_node@USCommand@CInstanceBase@@PAX@std@@@std@@@std@@QAE@AAV?$allocator@U?$_List_node@USCommand@CInstanceBase@@PAX@std@@@1@ABUSCommand@CInstanceBase@@@Z ; std::_List_node_emplace_op2<std::allocator<std::_List_node<CInstanceBase::SCommand,void *> > >::_List_node_emplace_op2<std::allocator<std::_List_node<CInstanceBase::SCommand,void *> > ><CInstanceBase::SCommand const &>
PUBLIC	??$forward@ABUSCommand@CInstanceBase@@@std@@YAABUSCommand@CInstanceBase@@ABU12@@Z ; std::forward<CInstanceBase::SCommand const &>
PUBLIC	??$_Freenode@V?$allocator@U?$_List_node@USCommand@CInstanceBase@@PAX@std@@@std@@@?$_List_node@USCommand@CInstanceBase@@PAX@std@@SAXAAV?$allocator@U?$_List_node@USCommand@CInstanceBase@@PAX@std@@@1@PAU01@@Z ; std::_List_node<CInstanceBase::SCommand,void *>::_Freenode<std::allocator<std::_List_node<CInstanceBase::SCommand,void *> > >
PUBLIC	??$_Unfancy@U_Container_proxy@std@@@std@@YAPAU_Container_proxy@0@PAU10@@Z ; std::_Unfancy<std::_Container_proxy>
PUBLIC	??$_Deallocate_plain@V?$allocator@U_Container_proxy@std@@@std@@@std@@YAXAAV?$allocator@U_Container_proxy@std@@@0@QAU_Container_proxy@0@@Z ; std::_Deallocate_plain<std::allocator<std::_Container_proxy> >
PUBLIC	??$_Find_last@K@?$_Hash@V?$_Umap_traits@KMV?$_Uhash_compare@KU?$hash@K@std@@U?$equal_to@K@2@@std@@V?$allocator@U?$pair@$$CBKM@std@@@2@$0A@@std@@@std@@IBE?AU?$_Hash_find_last_result@PAU?$_List_node@U?$pair@$$CBKM@std@@PAX@std@@@1@ABKI@Z ; std::_Hash<std::_Umap_traits<unsigned long,float,std::_Uhash_compare<unsigned long,std::hash<unsigned long>,std::equal_to<unsigned long> >,std::allocator<std::pair<unsigned long const ,float> >,0> >::_Find_last<unsigned long>
PUBLIC	??$forward@PAK@std@@YA$$QAPAKAAPAK@Z		; std::forward<unsigned long *>
PUBLIC	??$_Find_vectorized@KK@std@@YAPAKQAK0K@Z	; std::_Find_vectorized<unsigned long,unsigned long>
PUBLIC	??$_Could_compare_equal_to_value_type@PAKK@std@@YA_NABK@Z ; std::_Could_compare_equal_to_value_type<unsigned long *,unsigned long>
PUBLIC	??0?$_List_const_iterator@V?$_List_val@U?$_List_simple_types@U?$pair@$$CBKM@std@@@std@@@std@@@std@@QAE@PAU?$_List_node@U?$pair@$$CBKM@std@@PAX@1@PBV?$_List_val@U?$_List_simple_types@U?$pair@$$CBKM@std@@@std@@@1@@Z ; std::_List_const_iterator<std::_List_val<std::_List_simple_types<std::pair<unsigned long const ,float> > > >::_List_const_iterator<std::_List_val<std::_List_simple_types<std::pair<unsigned long const ,float> > > >
PUBLIC	??0?$_List_iterator@V?$_List_val@U?$_List_simple_types@U?$pair@$$CBKM@std@@@std@@@std@@@std@@QAE@PAU?$_List_node@U?$pair@$$CBKM@std@@PAX@1@PBV?$_List_val@U?$_List_simple_types@U?$pair@$$CBKM@std@@@std@@@1@@Z ; std::_List_iterator<std::_List_val<std::_List_simple_types<std::pair<unsigned long const ,float> > > >::_List_iterator<std::_List_val<std::_List_simple_types<std::pair<unsigned long const ,float> > > >
PUBLIC	?_Orphan_range@?$vector@KV?$allocator@K@std@@@std@@ABEXPAK0@Z ; std::vector<unsigned long,std::allocator<unsigned long> >::_Orphan_range
PUBLIC	?_Unwrapped@?$_Vector_iterator@V?$_Vector_val@U?$_Simple_types@K@std@@@std@@@std@@QBEPAKXZ ; std::_Vector_iterator<std::_Vector_val<std::_Simple_types<unsigned long> > >::_Unwrapped
PUBLIC	??0?$_Vector_const_iterator@V?$_Vector_val@U?$_Simple_types@K@std@@@std@@@std@@QAE@PAKPBU_Container_base0@1@@Z ; std::_Vector_const_iterator<std::_Vector_val<std::_Simple_types<unsigned long> > >::_Vector_const_iterator<std::_Vector_val<std::_Simple_types<unsigned long> > >
PUBLIC	?_Compat@?$_Vector_const_iterator@V?$_Vector_val@U?$_Simple_types@K@std@@@std@@@std@@QBEXABV12@@Z ; std::_Vector_const_iterator<std::_Vector_val<std::_Simple_types<unsigned long> > >::_Compat
PUBLIC	??0?$_Tree@V?$_Tmap_traits@KKU?$less@K@std@@V?$allocator@U?$pair@$$CBKK@std@@@2@$0A@@std@@@std@@QAE@ABU?$less@K@1@@Z ; std::_Tree<std::_Tmap_traits<unsigned long,unsigned long,std::less<unsigned long>,std::allocator<std::pair<unsigned long const ,unsigned long> >,0> >::_Tree<std::_Tmap_traits<unsigned long,unsigned long,std::less<unsigned long>,std::allocator<std::pair<unsigned long const ,unsigned long> >,0> >
PUBLIC	?_Getal@?$_Tree@V?$_Tmap_traits@KKU?$less@K@std@@V?$allocator@U?$pair@$$CBKK@std@@@2@$0A@@std@@@std@@IAEAAV?$allocator@U?$_Tree_node@U?$pair@$$CBKK@std@@PAX@std@@@2@XZ ; std::_Tree<std::_Tmap_traits<unsigned long,unsigned long,std::less<unsigned long>,std::allocator<std::pair<unsigned long const ,unsigned long> >,0> >::_Getal
PUBLIC	?_Get_scary@?$_Tree@V?$_Tmap_traits@KKU?$less@K@std@@V?$allocator@U?$pair@$$CBKK@std@@@2@$0A@@std@@@std@@IAEPAV?$_Tree_val@U?$_Tree_simple_types@U?$pair@$$CBKK@std@@@std@@@2@XZ ; std::_Tree<std::_Tmap_traits<unsigned long,unsigned long,std::less<unsigned long>,std::allocator<std::pair<unsigned long const ,unsigned long> >,0> >::_Get_scary
PUBLIC	??0?$vector@PAVCInstanceBase@@V?$allocator@PAVCInstanceBase@@@std@@@std@@QAE@XZ ; std::vector<CInstanceBase *,std::allocator<CInstanceBase *> >::vector<CInstanceBase *,std::allocator<CInstanceBase *> >
PUBLIC	??1?$vector@PAVCInstanceBase@@V?$allocator@PAVCInstanceBase@@@std@@@std@@QAE@XZ ; std::vector<CInstanceBase *,std::allocator<CInstanceBase *> >::~vector<CInstanceBase *,std::allocator<CInstanceBase *> >
PUBLIC	?push_back@?$vector@PAVCInstanceBase@@V?$allocator@PAVCInstanceBase@@@std@@@std@@QAEXABQAVCInstanceBase@@@Z ; std::vector<CInstanceBase *,std::allocator<CInstanceBase *> >::push_back
PUBLIC	?pop_back@?$vector@PAVCInstanceBase@@V?$allocator@PAVCInstanceBase@@@std@@@std@@QAEXXZ ; std::vector<CInstanceBase *,std::allocator<CInstanceBase *> >::pop_back
PUBLIC	?empty@?$vector@PAVCInstanceBase@@V?$allocator@PAVCInstanceBase@@@std@@@std@@QBE_NXZ ; std::vector<CInstanceBase *,std::allocator<CInstanceBase *> >::empty
PUBLIC	?size@?$vector@PAVCInstanceBase@@V?$allocator@PAVCInstanceBase@@@std@@@std@@QBEIXZ ; std::vector<CInstanceBase *,std::allocator<CInstanceBase *> >::size
PUBLIC	?back@?$vector@PAVCInstanceBase@@V?$allocator@PAVCInstanceBase@@@std@@@std@@QAEAAPAVCInstanceBase@@XZ ; std::vector<CInstanceBase *,std::allocator<CInstanceBase *> >::back
PUBLIC	?_Unchecked_erase@?$list@USCommand@CInstanceBase@@V?$allocator@USCommand@CInstanceBase@@@std@@@std@@AAEPAU?$_List_node@USCommand@CInstanceBase@@PAX@2@QAU32@@Z ; std::list<CInstanceBase::SCommand,std::allocator<CInstanceBase::SCommand> >::_Unchecked_erase
PUBLIC	?_Tidy@?$list@USCommand@CInstanceBase@@V?$allocator@USCommand@CInstanceBase@@@std@@@std@@AAEXXZ ; std::list<CInstanceBase::SCommand,std::allocator<CInstanceBase::SCommand> >::_Tidy
PUBLIC	?_Alloc_sentinel_and_proxy@?$list@USCommand@CInstanceBase@@V?$allocator@USCommand@CInstanceBase@@@std@@@std@@AAEXXZ ; std::list<CInstanceBase::SCommand,std::allocator<CInstanceBase::SCommand> >::_Alloc_sentinel_and_proxy
PUBLIC	?_Getal@?$list@USCommand@CInstanceBase@@V?$allocator@USCommand@CInstanceBase@@@std@@@std@@AAEAAV?$allocator@U?$_List_node@USCommand@CInstanceBase@@PAX@std@@@2@XZ ; std::list<CInstanceBase::SCommand,std::allocator<CInstanceBase::SCommand> >::_Getal
PUBLIC	?_Orphan_non_end@?$_List_val@U?$_List_simple_types@USCommand@CInstanceBase@@@std@@@std@@QAEXXZ ; std::_List_val<std::_List_simple_types<CInstanceBase::SCommand> >::_Orphan_non_end
PUBLIC	?_Tidy@?$deque@USEffectDamage@CInstanceBase@@V?$allocator@USEffectDamage@CInstanceBase@@@std@@@std@@AAEXXZ ; std::deque<CInstanceBase::SEffectDamage,std::allocator<CInstanceBase::SEffectDamage> >::_Tidy
PUBLIC	?_Getal@?$deque@USEffectDamage@CInstanceBase@@V?$allocator@USEffectDamage@CInstanceBase@@@std@@@std@@AAEAAV?$allocator@USEffectDamage@CInstanceBase@@@2@XZ ; std::deque<CInstanceBase::SEffectDamage,std::allocator<CInstanceBase::SEffectDamage> >::_Getal
PUBLIC	?_Get_data@?$deque@USEffectDamage@CInstanceBase@@V?$allocator@USEffectDamage@CInstanceBase@@@std@@@std@@AAEAAV?$_Deque_val@U?$_Deque_simple_types@USEffectDamage@CInstanceBase@@@std@@@2@XZ ; std::deque<CInstanceBase::SEffectDamage,std::allocator<CInstanceBase::SEffectDamage> >::_Get_data
PUBLIC	?Destroy@?$CDynamicPool@VCInstanceBase@@@@QAEXXZ ; CDynamicPool<CInstanceBase>::Destroy
PUBLIC	??0?$_Uhash_compare@KU?$hash@K@std@@U?$equal_to@K@2@@std@@QAE@XZ ; std::_Uhash_compare<unsigned long,std::hash<unsigned long>,std::equal_to<unsigned long> >::_Uhash_compare<unsigned long,std::hash<unsigned long>,std::equal_to<unsigned long> >
PUBLIC	??0?$allocator@U?$pair@$$CBKM@std@@@std@@QAE@XZ	; std::allocator<std::pair<unsigned long const ,float> >::allocator<std::pair<unsigned long const ,float> >
PUBLIC	??0?$_Hash@V?$_Umap_traits@KMV?$_Uhash_compare@KU?$hash@K@std@@U?$equal_to@K@2@@std@@V?$allocator@U?$pair@$$CBKM@std@@@2@$0A@@std@@@std@@IAE@ABV?$_Uhash_compare@KU?$hash@K@std@@U?$equal_to@K@2@@1@ABV?$allocator@U?$pair@$$CBKM@std@@@1@@Z ; std::_Hash<std::_Umap_traits<unsigned long,float,std::_Uhash_compare<unsigned long,std::hash<unsigned long>,std::equal_to<unsigned long> >,std::allocator<std::pair<unsigned long const ,float> >,0> >::_Hash<std::_Umap_traits<unsigned long,float,std::_Uhash_compare<unsigned long,std::hash<unsigned long>,std::equal_to<unsigned long> >,std::allocator<std::pair<unsigned long const ,float> >,0> >
PUBLIC	?insert@?$_Hash@V?$_Umap_traits@KMV?$_Uhash_compare@KU?$hash@K@std@@U?$equal_to@K@2@@std@@V?$allocator@U?$pair@$$CBKM@std@@@2@$0A@@std@@@std@@QAEXV?$initializer_list@U?$pair@$$CBKM@std@@@2@@Z ; std::_Hash<std::_Umap_traits<unsigned long,float,std::_Uhash_compare<unsigned long,std::hash<unsigned long>,std::equal_to<unsigned long> >,std::allocator<std::pair<unsigned long const ,float> >,0> >::insert
PUBLIC	?end@?$list@U?$pair@$$CBKM@std@@V?$allocator@U?$pair@$$CBKM@std@@@2@@std@@QAE?AV?$_List_iterator@V?$_List_val@U?$_List_simple_types@U?$pair@$$CBKM@std@@@std@@@std@@@2@XZ ; std::list<std::pair<unsigned long const ,float>,std::allocator<std::pair<unsigned long const ,float> > >::end
PUBLIC	?_Make_iter@?$list@U?$pair@$$CBKM@std@@V?$allocator@U?$pair@$$CBKM@std@@@2@@std@@QBE?AV?$_List_iterator@V?$_List_val@U?$_List_simple_types@U?$pair@$$CBKM@std@@@std@@@std@@@2@PAU?$_List_node@U?$pair@$$CBKM@std@@PAX@2@@Z ; std::list<std::pair<unsigned long const ,float>,std::allocator<std::pair<unsigned long const ,float> > >::_Make_iter
PUBLIC	?_Tidy@?$list@U?$pair@$$CBKM@std@@V?$allocator@U?$pair@$$CBKM@std@@@2@@std@@AAEXXZ ; std::list<std::pair<unsigned long const ,float>,std::allocator<std::pair<unsigned long const ,float> > >::_Tidy
PUBLIC	??D?$_List_iterator@V?$_List_val@U?$_List_simple_types@U?$pair@$$CBKM@std@@@std@@@std@@@std@@QBEAAU?$pair@$$CBKM@1@XZ ; std::_List_iterator<std::_List_val<std::_List_simple_types<std::pair<unsigned long const ,float> > > >::operator*
PUBLIC	?_Tidy@?$_Hash_vec@V?$allocator@V?$_List_unchecked_iterator@V?$_List_val@U?$_List_simple_types@U?$pair@$$CBKM@std@@@std@@@std@@@std@@@std@@@std@@QAEXXZ ; std::_Hash_vec<std::allocator<std::_List_unchecked_iterator<std::_List_val<std::_List_simple_types<std::pair<unsigned long const ,float> > > > > >::_Tidy
PUBLIC	?pointer_to@?$pointer_traits@PAU?$pair@$$CBKM@std@@@std@@SAPAU?$pair@$$CBKM@2@AAU32@@Z ; std::pointer_traits<std::pair<unsigned long const ,float> *>::pointer_to
PUBLIC	??0?$_String_bitmap@D$00@std@@QAE@XZ		; std::_String_bitmap<char,1>::_String_bitmap<char,1>
PUBLIC	??$_Traits_find_first_of@U?$char_traits@D@std@@@std@@YAIQBDII0I@Z ; std::_Traits_find_first_of<std::char_traits<char> >
PUBLIC	??$_Emplace_one_at_back@ABK@?$vector@KV?$allocator@K@std@@@std@@AAEAAKABK@Z ; std::vector<unsigned long,std::allocator<unsigned long> >::_Emplace_one_at_back<unsigned long const &>
PUBLIC	??$destroy@K@?$_Default_allocator_traits@V?$allocator@K@std@@@std@@SAXAAV?$allocator@K@1@QAK@Z ; std::_Default_allocator_traits<std::allocator<unsigned long> >::destroy<unsigned long>
PUBLIC	??$_Move_unchecked@PAKPAK@std@@YAPAKPAK00@Z	; std::_Move_unchecked<unsigned long *,unsigned long *>
PUBLIC	??$addressof@V?$_Vector_val@U?$_Simple_types@K@std@@@std@@@std@@YAPAV?$_Vector_val@U?$_Simple_types@K@std@@@0@AAV10@@Z ; std::addressof<std::_Vector_val<std::_Simple_types<unsigned long> > >
PUBLIC	??$_Unfancy_maybe_null@K@std@@YAPAKPAK@Z	; std::_Unfancy_maybe_null<unsigned long>
PUBLIC	??$_Erase_head@V?$allocator@U?$_Tree_node@U?$pair@$$CBKK@std@@PAX@std@@@std@@@?$_Tree_val@U?$_Tree_simple_types@U?$pair@$$CBKK@std@@@std@@@std@@QAEXAAV?$allocator@U?$_Tree_node@U?$pair@$$CBKK@std@@PAX@std@@@1@@Z ; std::_Tree_val<std::_Tree_simple_types<std::pair<unsigned long const ,unsigned long> > >::_Erase_head<std::allocator<std::_Tree_node<std::pair<unsigned long const ,unsigned long>,void *> > >
PUBLIC	??$?0$$V@?$_Compressed_pair@V?$allocator@U?$_List_node@USCommand@CInstanceBase@@PAX@std@@@std@@V?$_List_val@U?$_List_simple_types@USCommand@CInstanceBase@@@std@@@2@$00@std@@QAE@U_Zero_then_variadic_args_t@1@@Z ; std::_Compressed_pair<std::allocator<std::_List_node<CInstanceBase::SCommand,void *> >,std::_List_val<std::_List_simple_types<CInstanceBase::SCommand> >,1>::_Compressed_pair<std::allocator<std::_List_node<CInstanceBase::SCommand,void *> >,std::_List_val<std::_List_simple_types<CInstanceBase::SCommand> >,1><>
PUBLIC	??$_Emplace@ABUSCommand@CInstanceBase@@@?$list@USCommand@CInstanceBase@@V?$allocator@USCommand@CInstanceBase@@@std@@@std@@QAEPAU?$_List_node@USCommand@CInstanceBase@@PAX@1@QAU21@ABUSCommand@CInstanceBase@@@Z ; std::list<CInstanceBase::SCommand,std::allocator<CInstanceBase::SCommand> >::_Emplace<CInstanceBase::SCommand const &>
PUBLIC	??$_Free_non_head@V?$allocator@U?$_List_node@USCommand@CInstanceBase@@PAX@std@@@std@@@?$_List_node@USCommand@CInstanceBase@@PAX@std@@SAXAAV?$allocator@U?$_List_node@USCommand@CInstanceBase@@PAX@std@@@1@PAU01@@Z ; std::_List_node<CInstanceBase::SCommand,void *>::_Free_non_head<std::allocator<std::_List_node<CInstanceBase::SCommand,void *> > >
PUBLIC	??$_Alloc_proxy@V?$allocator@U_Container_proxy@std@@@std@@@_Container_base12@std@@QAEX$$QAV?$allocator@U_Container_proxy@std@@@1@@Z ; std::_Container_base12::_Alloc_proxy<std::allocator<std::_Container_proxy> >
PUBLIC	??$?0$$V@?$_Compressed_pair@V?$allocator@USEffectDamage@CInstanceBase@@@std@@V?$_Deque_val@U?$_Deque_simple_types@USEffectDamage@CInstanceBase@@@std@@@2@$00@std@@QAE@U_Zero_then_variadic_args_t@1@@Z ; std::_Compressed_pair<std::allocator<CInstanceBase::SEffectDamage>,std::_Deque_val<std::_Deque_simple_types<CInstanceBase::SEffectDamage> >,1>::_Compressed_pair<std::allocator<CInstanceBase::SEffectDamage>,std::_Deque_val<std::_Deque_simple_types<CInstanceBase::SEffectDamage> >,1><>
PUBLIC	??$_Delete_plain_internal@V?$allocator@U_Container_proxy@std@@@std@@@std@@YAXAAV?$allocator@U_Container_proxy@std@@@0@QAU_Container_proxy@0@@Z ; std::_Delete_plain_internal<std::allocator<std::_Container_proxy> >
PUBLIC	??$exchange@PAU_Container_proxy@std@@$$T@std@@YAPAU_Container_proxy@0@AAPAU10@$$QA$$T@Z ; std::exchange<std::_Container_proxy *,std::nullptr_t>
PUBLIC	??$?0USEffectDamage@CInstanceBase@@@?$allocator@U_Container_proxy@std@@@std@@QAE@ABV?$allocator@USEffectDamage@CInstanceBase@@@1@@Z ; std::allocator<std::_Container_proxy>::allocator<std::_Container_proxy><CInstanceBase::SEffectDamage>
PUBLIC	??$_Find@K@?$_Hash@V?$_Umap_traits@KMV?$_Uhash_compare@KU?$hash@K@std@@U?$equal_to@K@2@@std@@V?$allocator@U?$pair@$$CBKM@std@@@2@$0A@@std@@@std@@ABEPAU?$_List_node@U?$pair@$$CBKM@std@@PAX@1@ABKI@Z ; std::_Hash<std::_Umap_traits<unsigned long,float,std::_Uhash_compare<unsigned long,std::hash<unsigned long>,std::equal_to<unsigned long> >,std::allocator<std::pair<unsigned long const ,float> >,0> >::_Find<unsigned long>
PUBLIC	??$?RK@?$_Uhash_compare@KU?$hash@K@std@@U?$equal_to@K@2@@std@@QBEIABK@Z ; std::_Uhash_compare<unsigned long,std::hash<unsigned long>,std::equal_to<unsigned long> >::operator()<unsigned long>
PUBLIC	??$_Seek_wrapped@V?$_Vector_iterator@V?$_Vector_val@U?$_Simple_types@K@std@@@std@@@std@@PAK@std@@YAXAAV?$_Vector_iterator@V?$_Vector_val@U?$_Simple_types@K@std@@@std@@@0@$$QAPAK@Z ; std::_Seek_wrapped<std::_Vector_iterator<std::_Vector_val<std::_Simple_types<unsigned long> > >,unsigned long *>
PUBLIC	??$_Find_unchecked@PAKK@std@@YAPAKPAKQAKABK@Z	; std::_Find_unchecked<unsigned long *,unsigned long>
PUBLIC	??$_Adl_verify_range@V?$_Vector_iterator@V?$_Vector_val@U?$_Simple_types@K@std@@@std@@@std@@V12@@std@@YAXABV?$_Vector_iterator@V?$_Vector_val@U?$_Simple_types@K@std@@@std@@@0@0@Z ; std::_Adl_verify_range<std::_Vector_iterator<std::_Vector_val<std::_Simple_types<unsigned long> > >,std::_Vector_iterator<std::_Vector_val<std::_Simple_types<unsigned long> > > >
PUBLIC	??$forward@M@std@@YA$$QAMAAM@Z			; std::forward<float>
PUBLIC	??$forward@H@std@@YA$$QAHAAH@Z			; std::forward<int>
PUBLIC	??_G?$CDynamicPool@VCInstanceBase@@@@UAEPAXI@Z	; CDynamicPool<CInstanceBase>::`scalar deleting destructor'
PUBLIC	?find_first_of@?$basic_string@DU?$char_traits@D@std@@V?$allocator@D@2@@std@@QBEIQBDI@Z ; std::basic_string<char,std::char_traits<char>,std::allocator<char> >::find_first_of
PUBLIC	?push_back@?$vector@KV?$allocator@K@std@@@std@@QAEXABK@Z ; std::vector<unsigned long,std::allocator<unsigned long> >::push_back
PUBLIC	?erase@?$vector@KV?$allocator@K@std@@@std@@QAE?AV?$_Vector_iterator@V?$_Vector_val@U?$_Simple_types@K@std@@@std@@@2@V?$_Vector_const_iterator@V?$_Vector_val@U?$_Simple_types@K@std@@@std@@@2@@Z ; std::vector<unsigned long,std::allocator<unsigned long> >::erase
PUBLIC	?begin@?$vector@KV?$allocator@K@std@@@std@@QAE?AV?$_Vector_iterator@V?$_Vector_val@U?$_Simple_types@K@std@@@std@@@2@XZ ; std::vector<unsigned long,std::allocator<unsigned long> >::begin
PUBLIC	??0?$_Vector_iterator@V?$_Vector_val@U?$_Simple_types@K@std@@@std@@@std@@QAE@PAKPBU_Container_base0@1@@Z ; std::_Vector_iterator<std::_Vector_val<std::_Simple_types<unsigned long> > >::_Vector_iterator<std::_Vector_val<std::_Simple_types<unsigned long> > >
PUBLIC	?end@?$vector@KV?$allocator@K@std@@@std@@QAE?AV?$_Vector_iterator@V?$_Vector_val@U?$_Simple_types@K@std@@@std@@@2@XZ ; std::vector<unsigned long,std::allocator<unsigned long> >::end
PUBLIC	?_Unchecked_begin@?$vector@KV?$allocator@K@std@@@std@@QAEPAKXZ ; std::vector<unsigned long,std::allocator<unsigned long> >::_Unchecked_begin
PUBLIC	?_Unchecked_end@?$vector@KV?$allocator@K@std@@@std@@QAEPAKXZ ; std::vector<unsigned long,std::allocator<unsigned long> >::_Unchecked_end
PUBLIC	??8?$_Vector_const_iterator@V?$_Vector_val@U?$_Simple_types@K@std@@@std@@@std@@QBE_NABV01@@Z ; std::_Vector_const_iterator<std::_Vector_val<std::_Simple_types<unsigned long> > >::operator==
PUBLIC	??0?$map@KKU?$less@K@std@@V?$allocator@U?$pair@$$CBKK@std@@@2@@std@@QAE@XZ ; std::map<unsigned long,unsigned long,std::less<unsigned long>,std::allocator<std::pair<unsigned long const ,unsigned long> > >::map<unsigned long,unsigned long,std::less<unsigned long>,std::allocator<std::pair<unsigned long const ,unsigned long> > >
PUBLIC	??1?$_Tree@V?$_Tmap_traits@KKU?$less@K@std@@V?$allocator@U?$pair@$$CBKK@std@@@2@$0A@@std@@@std@@QAE@XZ ; std::_Tree<std::_Tmap_traits<unsigned long,unsigned long,std::less<unsigned long>,std::allocator<std::pair<unsigned long const ,unsigned long> >,0> >::~_Tree<std::_Tmap_traits<unsigned long,unsigned long,std::less<unsigned long>,std::allocator<std::pair<unsigned long const ,unsigned long> >,0> >
PUBLIC	?Instance@?$CSingleton@VCStateManager@@@@SAAAVCStateManager@@XZ ; CSingleton<CStateManager>::Instance
PUBLIC	??0?$list@USCommand@CInstanceBase@@V?$allocator@USCommand@CInstanceBase@@@std@@@std@@QAE@XZ ; std::list<CInstanceBase::SCommand,std::allocator<CInstanceBase::SCommand> >::list<CInstanceBase::SCommand,std::allocator<CInstanceBase::SCommand> >
PUBLIC	??1?$list@USCommand@CInstanceBase@@V?$allocator@USCommand@CInstanceBase@@@std@@@std@@QAE@XZ ; std::list<CInstanceBase::SCommand,std::allocator<CInstanceBase::SCommand> >::~list<CInstanceBase::SCommand,std::allocator<CInstanceBase::SCommand> >
PUBLIC	?empty@?$list@USCommand@CInstanceBase@@V?$allocator@USCommand@CInstanceBase@@@std@@@std@@QBE_NXZ ; std::list<CInstanceBase::SCommand,std::allocator<CInstanceBase::SCommand> >::empty
PUBLIC	?front@?$list@USCommand@CInstanceBase@@V?$allocator@USCommand@CInstanceBase@@@std@@@std@@QAEAAUSCommand@CInstanceBase@@XZ ; std::list<CInstanceBase::SCommand,std::allocator<CInstanceBase::SCommand> >::front
PUBLIC	?pop_front@?$list@USCommand@CInstanceBase@@V?$allocator@USCommand@CInstanceBase@@@std@@@std@@QAEXXZ ; std::list<CInstanceBase::SCommand,std::allocator<CInstanceBase::SCommand> >::pop_front
PUBLIC	?push_back@?$list@USCommand@CInstanceBase@@V?$allocator@USCommand@CInstanceBase@@@std@@@std@@QAEXABUSCommand@CInstanceBase@@@Z ; std::list<CInstanceBase::SCommand,std::allocator<CInstanceBase::SCommand> >::push_back
PUBLIC	?clear@?$list@USCommand@CInstanceBase@@V?$allocator@USCommand@CInstanceBase@@@std@@@std@@QAEXXZ ; std::list<CInstanceBase::SCommand,std::allocator<CInstanceBase::SCommand> >::clear
PUBLIC	??0?$deque@USEffectDamage@CInstanceBase@@V?$allocator@USEffectDamage@CInstanceBase@@@std@@@std@@QAE@XZ ; std::deque<CInstanceBase::SEffectDamage,std::allocator<CInstanceBase::SEffectDamage> >::deque<CInstanceBase::SEffectDamage,std::allocator<CInstanceBase::SEffectDamage> >
PUBLIC	??1?$deque@USEffectDamage@CInstanceBase@@V?$allocator@USEffectDamage@CInstanceBase@@@std@@@std@@QAE@XZ ; std::deque<CInstanceBase::SEffectDamage,std::allocator<CInstanceBase::SEffectDamage> >::~deque<CInstanceBase::SEffectDamage,std::allocator<CInstanceBase::SEffectDamage> >
PUBLIC	??0?$CDynamicPool@VCInstanceBase@@@@QAE@XZ	; CDynamicPool<CInstanceBase>::CDynamicPool<CInstanceBase>
PUBLIC	??1?$CDynamicPool@VCInstanceBase@@@@UAE@XZ	; CDynamicPool<CInstanceBase>::~CDynamicPool<CInstanceBase>
PUBLIC	?Clear@?$CDynamicPool@VCInstanceBase@@@@QAEXXZ	; CDynamicPool<CInstanceBase>::Clear
PUBLIC	?Alloc@?$CDynamicPool@VCInstanceBase@@@@QAEPAVCInstanceBase@@XZ ; CDynamicPool<CInstanceBase>::Alloc
PUBLIC	?Free@?$CDynamicPool@VCInstanceBase@@@@QAEXPAVCInstanceBase@@@Z ; CDynamicPool<CInstanceBase>::Free
PUBLIC	?GetCapacity@?$CDynamicPool@VCInstanceBase@@@@QAEKXZ ; CDynamicPool<CInstanceBase>::GetCapacity
PUBLIC	?Instance@?$CSingleton@VCPythonNonPlayer@@@@SAAAVCPythonNonPlayer@@XZ ; CSingleton<CPythonNonPlayer>::Instance
PUBLIC	?GetSingleton@?$TAbstractSingleton@VIAbstractPlayer@@@@SAAAVIAbstractPlayer@@XZ ; TAbstractSingleton<IAbstractPlayer>::GetSingleton
PUBLIC	?Instance@?$CSingleton@VCPythonSkill@@@@SAAAVCPythonSkill@@XZ ; CSingleton<CPythonSkill>::Instance
PUBLIC	?Instance@?$CSingleton@VCPythonPlayer@@@@SAAAVCPythonPlayer@@XZ ; CSingleton<CPythonPlayer>::Instance
PUBLIC	?Instance@?$CSingleton@VCPythonCharacterManager@@@@SAAAVCPythonCharacterManager@@XZ ; CSingleton<CPythonCharacterManager>::Instance
PUBLIC	?GetSingleton@?$TAbstractSingleton@VIAbstractApplication@@@@SAAAVIAbstractApplication@@XZ ; TAbstractSingleton<IAbstractApplication>::GetSingleton
PUBLIC	?Instance@?$CSingleton@VCItemManager@@@@SAAAVCItemManager@@XZ ; CSingleton<CItemManager>::Instance
PUBLIC	?instance@?$CSingleton@VCRaceManager@@@@SAAAVCRaceManager@@XZ ; CSingleton<CRaceManager>::instance
PUBLIC	?Instance@?$CSingleton@VCPythonSystem@@@@SAAAVCPythonSystem@@XZ ; CSingleton<CPythonSystem>::Instance
PUBLIC	?instance@?$CSingleton@VCPythonSystem@@@@SAAAVCPythonSystem@@XZ ; CSingleton<CPythonSystem>::instance
PUBLIC	??0?$unordered_map@KMU?$hash@K@std@@U?$equal_to@K@2@V?$allocator@U?$pair@$$CBKM@std@@@2@@std@@QAE@V?$initializer_list@U?$pair@$$CBKM@std@@@1@@Z ; std::unordered_map<unsigned long,float,std::hash<unsigned long>,std::equal_to<unsigned long>,std::allocator<std::pair<unsigned long const ,float> > >::unordered_map<unsigned long,float,std::hash<unsigned long>,std::equal_to<unsigned long>,std::allocator<std::pair<unsigned long const ,float> > >
PUBLIC	?end@?$_Hash@V?$_Umap_traits@KMV?$_Uhash_compare@KU?$hash@K@std@@U?$equal_to@K@2@@std@@V?$allocator@U?$pair@$$CBKM@std@@@2@$0A@@std@@@std@@QAE?AV?$_List_iterator@V?$_List_val@U?$_List_simple_types@U?$pair@$$CBKM@std@@@std@@@std@@@2@XZ ; std::_Hash<std::_Umap_traits<unsigned long,float,std::_Uhash_compare<unsigned long,std::hash<unsigned long>,std::equal_to<unsigned long> >,std::allocator<std::pair<unsigned long const ,float> >,0> >::end
PUBLIC	?find@?$_Hash@V?$_Umap_traits@KMV?$_Uhash_compare@KU?$hash@K@std@@U?$equal_to@K@2@@std@@V?$allocator@U?$pair@$$CBKM@std@@@2@$0A@@std@@@std@@QAE?AV?$_List_iterator@V?$_List_val@U?$_List_simple_types@U?$pair@$$CBKM@std@@@std@@@std@@@2@ABK@Z ; std::_Hash<std::_Umap_traits<unsigned long,float,std::_Uhash_compare<unsigned long,std::hash<unsigned long>,std::equal_to<unsigned long> >,std::allocator<std::pair<unsigned long const ,float> >,0> >::find
PUBLIC	??1?$list@U?$pair@$$CBKM@std@@V?$allocator@U?$pair@$$CBKM@std@@@2@@std@@QAE@XZ ; std::list<std::pair<unsigned long const ,float>,std::allocator<std::pair<unsigned long const ,float> > >::~list<std::pair<unsigned long const ,float>,std::allocator<std::pair<unsigned long const ,float> > >
PUBLIC	??C?$_List_iterator@V?$_List_val@U?$_List_simple_types@U?$pair@$$CBKM@std@@@std@@@std@@@std@@QBEPAU?$pair@$$CBKM@1@XZ ; std::_List_iterator<std::_List_val<std::_List_simple_types<std::pair<unsigned long const ,float> > > >::operator->
PUBLIC	??8?$_List_const_iterator@V?$_List_val@U?$_List_simple_types@U?$pair@$$CBKM@std@@@std@@@std@@@std@@QBE_NABV01@@Z ; std::_List_const_iterator<std::_List_val<std::_List_simple_types<std::pair<unsigned long const ,float> > > >::operator==
PUBLIC	??0?$initializer_list@U?$pair@$$CBKM@std@@@std@@QAE@PBU?$pair@$$CBKM@1@0@Z ; std::initializer_list<std::pair<unsigned long const ,float> >::initializer_list<std::pair<unsigned long const ,float> >
PUBLIC	??1?$_Hash_vec@V?$allocator@V?$_List_unchecked_iterator@V?$_List_val@U?$_List_simple_types@U?$pair@$$CBKM@std@@@std@@@std@@@std@@@std@@@std@@QAE@XZ ; std::_Hash_vec<std::allocator<std::_List_unchecked_iterator<std::_List_val<std::_List_simple_types<std::pair<unsigned long const ,float> > > > > >::~_Hash_vec<std::allocator<std::_List_unchecked_iterator<std::_List_val<std::_List_simple_types<std::pair<unsigned long const ,float> > > > > >
PUBLIC	??$_Get_unwrapped@ABV?$_Vector_iterator@V?$_Vector_val@U?$_Simple_types@K@std@@@std@@@std@@@std@@YA?A_TABV?$_Vector_iterator@V?$_Vector_val@U?$_Simple_types@K@std@@@std@@@0@@Z ; std::_Get_unwrapped<std::_Vector_iterator<std::_Vector_val<std::_Simple_types<unsigned long> > > const &>
PUBLIC	??$_Get_unwrapped@AAV?$_Vector_iterator@V?$_Vector_val@U?$_Simple_types@K@std@@@std@@@std@@@std@@YA?A_TAAV?$_Vector_iterator@V?$_Vector_val@U?$_Simple_types@K@std@@@std@@@0@@Z ; std::_Get_unwrapped<std::_Vector_iterator<std::_Vector_val<std::_Simple_types<unsigned long> > > &>
PUBLIC	??$find@V?$_Vector_iterator@V?$_Vector_val@U?$_Simple_types@K@std@@@std@@@std@@K@std@@YA?AV?$_Vector_iterator@V?$_Vector_val@U?$_Simple_types@K@std@@@std@@@0@V10@V10@ABK@Z ; std::find<std::_Vector_iterator<std::_Vector_val<std::_Simple_types<unsigned long> > >,unsigned long>
PUBLIC	??$?0HM$0A@@?$pair@$$CBKM@std@@QAE@$$QAH$$QAM@Z	; std::pair<unsigned long const ,float>::pair<unsigned long const ,float><int,float,0>
PUBLIC	?IsHydraNPC@CInstanceBase@@QAEHXZ		; CInstanceBase::IsHydraNPC
PUBLIC	?SetAura@CInstanceBase@@QAE_NK@Z		; CInstanceBase::SetAura
PUBLIC	?ChangeAura@CInstanceBase@@QAEXK@Z		; CInstanceBase::ChangeAura
PUBLIC	?RefreshStoneScale@CInstanceBase@@QAEXXZ	; CInstanceBase::RefreshStoneScale
PUBLIC	?ClearWikiAffect@CInstanceBase@@QAEXXZ		; CInstanceBase::ClearWikiAffect
PUBLIC	?RemoveWikiAffect@CInstanceBase@@QAEXK@Z	; CInstanceBase::RemoveWikiAffect
PUBLIC	?AttachWikiAffect@CInstanceBase@@QAEXK@Z	; CInstanceBase::AttachWikiAffect
PUBLIC	?SetAlwaysRender@CInstanceBase@@QAEX_N@Z	; CInstanceBase::SetAlwaysRender
PUBLIC	?IsAlwaysRender@CInstanceBase@@QAE_NXZ		; CInstanceBase::IsAlwaysRender
PUBLIC	?GetBaseHeight@CInstanceBase@@QAEMXZ		; CInstanceBase::GetBaseHeight
PUBLIC	?GetBoundBox@CInstanceBase@@QAEXPAUD3DXVECTOR3@@0@Z ; CInstanceBase::GetBoundBox
PUBLIC	?GetPartData@CInstanceBase@@QAEKE@Z		; CInstanceBase::GetPartData
PUBLIC	??1CInstanceBase@@UAE@XZ			; CInstanceBase::~CInstanceBase
PUBLIC	??1?$queue@USEffectDamage@CInstanceBase@@V?$deque@USEffectDamage@CInstanceBase@@V?$allocator@USEffectDamage@CInstanceBase@@@std@@@std@@@std@@QAE@XZ ; std::queue<CInstanceBase::SEffectDamage,std::deque<CInstanceBase::SEffectDamage,std::allocator<CInstanceBase::SEffectDamage> > >::~queue<CInstanceBase::SEffectDamage,std::deque<CInstanceBase::SEffectDamage,std::allocator<CInstanceBase::SEffectDamage> > >
PUBLIC	??0SMoveAfterFunc@CInstanceBase@@QAE@XZ		; CInstanceBase::SMoveAfterFunc::SMoveAfterFunc
PUBLIC	??1?$map@KKU?$less@K@std@@V?$allocator@U?$pair@$$CBKK@std@@@2@@std@@QAE@XZ ; std::map<unsigned long,unsigned long,std::less<unsigned long>,std::allocator<std::pair<unsigned long const ,unsigned long> > >::~map<unsigned long,unsigned long,std::less<unsigned long>,std::allocator<std::pair<unsigned long const ,unsigned long> > >
PUBLIC	??1SEffectContainer@CInstanceBase@@QAE@XZ	; CInstanceBase::SEffectContainer::~SEffectContainer
PUBLIC	??0SEffectContainer@CInstanceBase@@QAE@XZ	; CInstanceBase::SEffectContainer::SEffectContainer
PUBLIC	??_GCInstanceBase@@UAEPAXI@Z			; CInstanceBase::`scalar deleting destructor'
PUBLIC	??0?$queue@USEffectDamage@CInstanceBase@@V?$deque@USEffectDamage@CInstanceBase@@V?$allocator@USEffectDamage@CInstanceBase@@@std@@@std@@@std@@QAE@XZ ; std::queue<CInstanceBase::SEffectDamage,std::deque<CInstanceBase::SEffectDamage,std::allocator<CInstanceBase::SEffectDamage> > >::queue<CInstanceBase::SEffectDamage,std::deque<CInstanceBase::SEffectDamage,std::allocator<CInstanceBase::SEffectDamage> > >
PUBLIC	??0CInstanceBase@@QAE@XZ			; CInstanceBase::CInstanceBase
PUBLIC	?__Initialize@CInstanceBase@@IAEXXZ		; CInstanceBase::__Initialize
PUBLIC	?__Warrior_Initialize@CInstanceBase@@IAEXXZ	; CInstanceBase::__Warrior_Initialize
PUBLIC	?__InitializeRotationSpeed@CInstanceBase@@IAEXXZ ; CInstanceBase::__InitializeRotationSpeed
PUBLIC	?Destroy@CInstanceBase@@QAEXXZ			; CInstanceBase::Destroy
PUBLIC	?RegisterBoundingSphere@CInstanceBase@@QAEXXZ	; CInstanceBase::RegisterBoundingSphere
PUBLIC	?RefreshState@CInstanceBase@@IAEXK_N@Z		; CInstanceBase::RefreshState
PUBLIC	?__IsShapeAnimalWear@CInstanceBase@@IAE_NXZ	; CInstanceBase::__IsShapeAnimalWear
PUBLIC	?ChangeArmor@CInstanceBase@@QAE_NK@Z		; CInstanceBase::ChangeArmor
PUBLIC	?ChangeWeapon@CInstanceBase@@QAEXK@Z		; CInstanceBase::ChangeWeapon
PUBLIC	?SetWeapon@CInstanceBase@@QAE_NK@Z		; CInstanceBase::SetWeapon
PUBLIC	?__GetRefinedEffect@CInstanceBase@@IAEIPAVCItemData@@@Z ; CInstanceBase::__GetRefinedEffect
PUBLIC	?__ClearArmorRefineEffect@CInstanceBase@@IAEXXZ	; CInstanceBase::__ClearArmorRefineEffect
PUBLIC	?__ClearWeaponRefineEffect@CInstanceBase@@IAEXXZ ; CInstanceBase::__ClearWeaponRefineEffect
PUBLIC	?GetWeaponType@CInstanceBase@@QAEKXZ		; CInstanceBase::GetWeaponType
PUBLIC	?SetShape@CInstanceBase@@QAEXKM@Z		; CInstanceBase::SetShape
PUBLIC	?ClearAcceEffect@CInstanceBase@@IAEXXZ		; CInstanceBase::ClearAcceEffect
PUBLIC	?ChangeAcce@CInstanceBase@@QAEXK@Z		; CInstanceBase::ChangeAcce
PUBLIC	?SetAcce@CInstanceBase@@QAE_NK@Z		; CInstanceBase::SetAcce
PUBLIC	?GetHair@CInstanceBase@@QAEKXZ			; CInstanceBase::GetHair
PUBLIC	?SetArmor@CInstanceBase@@QAEXK@Z		; CInstanceBase::SetArmor
PUBLIC	?ChangeHair@CInstanceBase@@QAEXK@Z		; CInstanceBase::ChangeHair
PUBLIC	??1?$_Hash@V?$_Umap_traits@KMV?$_Uhash_compare@KU?$hash@K@std@@U?$equal_to@K@2@@std@@V?$allocator@U?$pair@$$CBKM@std@@@2@$0A@@std@@@std@@QAE@XZ ; std::_Hash<std::_Umap_traits<unsigned long,float,std::_Uhash_compare<unsigned long,std::hash<unsigned long>,std::equal_to<unsigned long> >,std::allocator<std::pair<unsigned long const ,float> >,0> >::~_Hash<std::_Umap_traits<unsigned long,float,std::_Uhash_compare<unsigned long,std::hash<unsigned long>,std::equal_to<unsigned long> >,std::allocator<std::pair<unsigned long const ,float> >,0> >
PUBLIC	??1?$unordered_map@KMU?$hash@K@std@@U?$equal_to@K@2@V?$allocator@U?$pair@$$CBKM@std@@@2@@std@@QAE@XZ ; std::unordered_map<unsigned long,float,std::hash<unsigned long>,std::equal_to<unsigned long>,std::allocator<std::pair<unsigned long const ,float> > >::~unordered_map<unsigned long,float,std::hash<unsigned long>,std::equal_to<unsigned long>,std::allocator<std::pair<unsigned long const ,float> > >
PUBLIC	?SetHair@CInstanceBase@@QAEXK@Z			; CInstanceBase::SetHair
PUBLIC	?__GetAlphaValue@CInstanceBase@@IAEMXZ		; CInstanceBase::__GetAlphaValue
PUBLIC	?__SetAlphaValue@CInstanceBase@@IAEXM@Z		; CInstanceBase::__SetAlphaValue
PUBLIC	?__SetBlendRenderingMode@CInstanceBase@@IAEXXZ	; CInstanceBase::__SetBlendRenderingMode
PUBLIC	?SetAddColor@CInstanceBase@@QAEXABUD3DXCOLOR@@@Z ; CInstanceBase::SetAddColor
PUBLIC	?SetModulateRenderMode@CInstanceBase@@QAEXXZ	; CInstanceBase::SetModulateRenderMode
PUBLIC	?SetAddRenderMode@CInstanceBase@@QAEXXZ		; CInstanceBase::SetAddRenderMode
PUBLIC	?RestoreRenderMode@CInstanceBase@@QAEXXZ	; CInstanceBase::RestoreRenderMode
PUBLIC	?Refresh@CInstanceBase@@QAEXK_N@Z		; CInstanceBase::Refresh
PUBLIC	?RefreshActorInstance@CInstanceBase@@IAEXXZ	; CInstanceBase::RefreshActorInstance
PUBLIC	?GetGraphicThingInstancePtr@CInstanceBase@@QAEPAVCActorInstance@@XZ ; CInstanceBase::GetGraphicThingInstancePtr
PUBLIC	?GetGraphicThingInstanceRef@CInstanceBase@@QAEAAVCActorInstance@@XZ ; CInstanceBase::GetGraphicThingInstanceRef
PUBLIC	?GetDistance@CInstanceBase@@QAEMABUD3DXVECTOR3@@@Z ; CInstanceBase::GetDistance
PUBLIC	?GetDistance@CInstanceBase@@QAEMPAV1@@Z		; CInstanceBase::GetDistance
PUBLIC	?IntersectDefendingSphere@CInstanceBase@@QAE_NXZ ; CInstanceBase::IntersectDefendingSphere
PUBLIC	?IntersectBoundingBox@CInstanceBase@@QAE_NXZ	; CInstanceBase::IntersectBoundingBox
PUBLIC	?__CanRender@CInstanceBase@@IAE_NXZ		; CInstanceBase::__CanRender
PUBLIC	?__IsInViewFrustum@CInstanceBase@@IAE_NXZ	; CInstanceBase::__IsInViewFrustum
PUBLIC	?GetVirtualNumber@CInstanceBase@@QAEKXZ		; CInstanceBase::GetVirtualNumber
PUBLIC	?GetVirtualID@CInstanceBase@@QAEKXZ		; CInstanceBase::GetVirtualID
PUBLIC	?GetInstanceType@CInstanceBase@@QAEHXZ		; CInstanceBase::GetInstanceType
PUBLIC	?IsFlag@CInstanceBase@@QAEHXZ			; CInstanceBase::IsFlag
PUBLIC	?IsStoneDoor@CInstanceBase@@QAEHXZ		; CInstanceBase::IsStoneDoor
PUBLIC	?IsWoodenDoor@CInstanceBase@@QAEHXZ		; CInstanceBase::IsWoodenDoor
PUBLIC	?IsDoor@CInstanceBase@@QAEHXZ			; CInstanceBase::IsDoor
PUBLIC	?IsBuilding@CInstanceBase@@QAEHXZ		; CInstanceBase::IsBuilding
PUBLIC	?IsObject@CInstanceBase@@QAEHXZ			; CInstanceBase::IsObject
PUBLIC	?IsGoto@CInstanceBase@@QAEHXZ			; CInstanceBase::IsGoto
PUBLIC	?IsWarp@CInstanceBase@@QAEHXZ			; CInstanceBase::IsWarp
PUBLIC	?IsResource@CInstanceBase@@QAEHXZ		; CInstanceBase::IsResource
PUBLIC	?IsGuildWall@CInstanceBase@@QAEHXZ		; CInstanceBase::IsGuildWall
PUBLIC	?IsMount@CInstanceBase@@QAEHXZ			; CInstanceBase::IsMount
PUBLIC	?IsGrowthPet@CInstanceBase@@QAEHXZ		; CInstanceBase::IsGrowthPet
PUBLIC	?IsPet@CInstanceBase@@QAEHXZ			; CInstanceBase::IsPet
PUBLIC	?IsStone@CInstanceBase@@QAEHXZ			; CInstanceBase::IsStone
PUBLIC	?IsEnemy@CInstanceBase@@QAEHXZ			; CInstanceBase::IsEnemy
PUBLIC	?IsNPC@CInstanceBase@@QAEHXZ			; CInstanceBase::IsNPC
PUBLIC	?IsPC@CInstanceBase@@QAEHXZ			; CInstanceBase::IsPC
PUBLIC	?IsShop@CInstanceBase@@QAEHXZ			; CInstanceBase::IsShop
PUBLIC	?IsPoly@CInstanceBase@@QAEHXZ			; CInstanceBase::IsPoly
PUBLIC	?CanViewTargetHP@CInstanceBase@@QAE_NAAV1@@Z	; CInstanceBase::CanViewTargetHP
PUBLIC	?CanPickInstance@CInstanceBase@@QAE_NXZ		; CInstanceBase::CanPickInstance
PUBLIC	?CanChangeTarget@CInstanceBase@@QAE_NXZ		; CInstanceBase::CanChangeTarget
PUBLIC	?IsTargetableInstance@CInstanceBase@@QAE_NAAV1@@Z ; CInstanceBase::IsTargetableInstance
PUBLIC	?IsAttackableInstance@CInstanceBase@@QAE_NAAV1@@Z ; CInstanceBase::IsAttackableInstance
PUBLIC	?GetDuelMode@CInstanceBase@@QAEKXZ		; CInstanceBase::GetDuelMode
PUBLIC	?SetDuelMode@CInstanceBase@@QAEXK@Z		; CInstanceBase::SetDuelMode
PUBLIC	?IsConflictAlignmentInstance@CInstanceBase@@QAE_NAAV1@@Z ; CInstanceBase::IsConflictAlignmentInstance
PUBLIC	?GetLevel@CInstanceBase@@QAEKXZ			; CInstanceBase::GetLevel
PUBLIC	?GetRace@CInstanceBase@@QAEKXZ			; CInstanceBase::GetRace
PUBLIC	?SetPetLevel@CInstanceBase@@QAEXK@Z		; CInstanceBase::SetPetLevel
PUBLIC	?SetLevel@CInstanceBase@@QAEXK@Z		; CInstanceBase::SetLevel
PUBLIC	?GetNameString@CInstanceBase@@QAEPBDXZ		; CInstanceBase::GetNameString
PUBLIC	?SetComboType@CInstanceBase@@QAEXI@Z		; CInstanceBase::SetComboType
PUBLIC	?SetStateFlags@CInstanceBase@@QAEXK@Z		; CInstanceBase::SetStateFlags
PUBLIC	?SetPartyMemberFlag@CInstanceBase@@QAEX_N@Z	; CInstanceBase::SetPartyMemberFlag
PUBLIC	?SetKiller@CInstanceBase@@QAEX_N@Z		; CInstanceBase::SetKiller
PUBLIC	?SetPKMode@CInstanceBase@@QAEXE@Z		; CInstanceBase::SetPKMode
PUBLIC	?SetTitleSystem@CInstanceBase@@QAEXH@Z		; CInstanceBase::SetTitleSystem
PUBLIC	?SetAlignment@CInstanceBase@@QAEXF@Z		; CInstanceBase::SetAlignment
PUBLIC	?SetInstanceType@CInstanceBase@@QAEXH@Z		; CInstanceBase::SetInstanceType
PUBLIC	?SetVirtualNumber@CInstanceBase@@QAEXK@Z	; CInstanceBase::SetVirtualNumber
PUBLIC	?SetVirtualID@CInstanceBase@@QAEXK@Z		; CInstanceBase::SetVirtualID
PUBLIC	?RenderCollision@CInstanceBase@@QAEXXZ		; CInstanceBase::RenderCollision
PUBLIC	?RenderToShadowMap@CInstanceBase@@QAEXXZ	; CInstanceBase::RenderToShadowMap
PUBLIC	?Render@CInstanceBase@@QAEXXZ			; CInstanceBase::Render
PUBLIC	?RenderTrace@CInstanceBase@@QAEXXZ		; CInstanceBase::RenderTrace
PUBLIC	?Deform@CInstanceBase@@QAEXXZ			; CInstanceBase::Deform
PUBLIC	?Transform@CInstanceBase@@QAEXXZ		; CInstanceBase::Transform
PUBLIC	?Update@CInstanceBase@@QAEXXZ			; CInstanceBase::Update
PUBLIC	?__ProcessFunctionEmotion@CInstanceBase@@IAEXKKABUD3DXVECTOR3@@@Z ; CInstanceBase::__ProcessFunctionEmotion
PUBLIC	?MovementProcess@CInstanceBase@@IAEXXZ		; CInstanceBase::MovementProcess
PUBLIC	?StateProcess@CInstanceBase@@IAEXXZ		; CInstanceBase::StateProcess
PUBLIC	?__IsEnableTCPProcess@CInstanceBase@@IAEHI@Z	; CInstanceBase::__IsEnableTCPProcess
PUBLIC	?__CanProcessNetworkStatePacket@CInstanceBase@@IAEHXZ ; CInstanceBase::__CanProcessNetworkStatePacket
PUBLIC	?PushTCPState@CInstanceBase@@QAEXKABUD3DXVECTOR3@@MII@Z ; CInstanceBase::PushTCPState
PUBLIC	??0SCommand@CInstanceBase@@QAE@XZ		; CInstanceBase::SCommand::SCommand
PUBLIC	?PushTCPStateExpanded@CInstanceBase@@QAEXKABUD3DXVECTOR3@@MIII@Z ; CInstanceBase::PushTCPStateExpanded
PUBLIC	?NEW_SetOwner@CInstanceBase@@QAEXK@Z		; CInstanceBase::NEW_SetOwner
PUBLIC	?__IsSyncing@CInstanceBase@@QAEHXZ		; CInstanceBase::__IsSyncing
PUBLIC	?IsSleep@CInstanceBase@@QAEHXZ			; CInstanceBase::IsSleep
PUBLIC	?IsStun@CInstanceBase@@QAEHXZ			; CInstanceBase::IsStun
PUBLIC	?IsDead@CInstanceBase@@QAEHXZ			; CInstanceBase::IsDead
PUBLIC	?IsFishing@CInstanceBase@@QAEHXZ		; CInstanceBase::IsFishing
PUBLIC	?IsFishingMode@CInstanceBase@@QAEHXZ		; CInstanceBase::IsFishingMode
PUBLIC	?IsHandMode@CInstanceBase@@QAEHXZ		; CInstanceBase::IsHandMode
PUBLIC	?IsBowMode@CInstanceBase@@QAEHXZ		; CInstanceBase::IsBowMode
PUBLIC	?CanFishing@CInstanceBase@@QAE_NXZ		; CInstanceBase::CanFishing
PUBLIC	?CanAttack@CInstanceBase@@QAE_NXZ		; CInstanceBase::CanAttack
PUBLIC	?CanUseSkill@CInstanceBase@@QAE_NXZ		; CInstanceBase::CanUseSkill
PUBLIC	?CanMove@CInstanceBase@@QAE_NXZ			; CInstanceBase::CanMove
PUBLIC	?CanAct@CInstanceBase@@QAE_NXZ			; CInstanceBase::CanAct
PUBLIC	?CanInteract@CInstanceBase@@QAE_NXZ		; CInstanceBase::CanInteract
PUBLIC	?GetShape@CInstanceBase@@QAEKXZ			; CInstanceBase::GetShape
PUBLIC	?GetPart@CInstanceBase@@QAEKW4EParts@CRaceData@@@Z ; CInstanceBase::GetPart
PUBLIC	?ChangeGuild@CInstanceBase@@QAEXKK@Z		; CInstanceBase::ChangeGuild
PUBLIC	?OnMoving@CInstanceBase@@IAEXXZ			; CInstanceBase::OnMoving
PUBLIC	?OnWaiting@CInstanceBase@@IAEXXZ		; CInstanceBase::OnWaiting
PUBLIC	?NEW_GetSrcPixelPositionRef@CInstanceBase@@IAEABUD3DXVECTOR3@@XZ ; CInstanceBase::NEW_GetSrcPixelPositionRef
PUBLIC	?NEW_GetDstPixelPositionRef@CInstanceBase@@QAEABUD3DXVECTOR3@@XZ ; CInstanceBase::NEW_GetDstPixelPositionRef
PUBLIC	?NEW_GetCurPixelPositionRef@CInstanceBase@@IAEABUD3DXVECTOR3@@XZ ; CInstanceBase::NEW_GetCurPixelPositionRef
PUBLIC	?NEW_SetSrcPixelPosition@CInstanceBase@@IAEXABUD3DXVECTOR3@@@Z ; CInstanceBase::NEW_SetSrcPixelPosition
PUBLIC	?NEW_SetDstPixelPosition@CInstanceBase@@IAEXABUD3DXVECTOR3@@@Z ; CInstanceBase::NEW_SetDstPixelPosition
PUBLIC	?NEW_SetDstPixelPositionZ@CInstanceBase@@IAEXM@Z ; CInstanceBase::NEW_SetDstPixelPositionZ
PUBLIC	?ResetPerformanceCounter@CInstanceBase@@SAXXZ	; CInstanceBase::ResetPerformanceCounter
PUBLIC	?GetInfo@CInstanceBase@@SAXPAV?$basic_string@DU?$char_traits@D@std@@V?$allocator@D@2@@std@@@Z ; CInstanceBase::GetInfo
PUBLIC	?DismountHorse@CInstanceBase@@QAEXXZ		; CInstanceBase::DismountHorse
PUBLIC	?MountHorse@CInstanceBase@@QAEXI@Z		; CInstanceBase::MountHorse
PUBLIC	?IsMountingHorse@CInstanceBase@@QAEHXZ		; CInstanceBase::IsMountingHorse
PUBLIC	?IsMountingHoverBoard@CInstanceBase@@QAEHXZ	; CInstanceBase::IsMountingHoverBoard
PUBLIC	?IsNewMount@CInstanceBase@@QAEHXZ		; CInstanceBase::IsNewMount
PUBLIC	?IsHoldingFishRod@CInstanceBase@@QAEHXZ		; CInstanceBase::IsHoldingFishRod
PUBLIC	?IsHoldingPickAxe@CInstanceBase@@QAEHXZ		; CInstanceBase::IsHoldingPickAxe
PUBLIC	?IsWearingDress@CInstanceBase@@QAEHXZ		; CInstanceBase::IsWearingDress
PUBLIC	?__IsChangableWeapon@CInstanceBase@@IAEHH@Z	; CInstanceBase::__IsChangableWeapon
PUBLIC	?SetRace@CInstanceBase@@QAE_NK@Z		; CInstanceBase::SetRace
PUBLIC	?SetNameString@CInstanceBase@@QAEXPBDH@Z	; CInstanceBase::SetNameString
PUBLIC	?__Create_SetWarpName@CInstanceBase@@IAEXABUSCreateData@1@@Z ; CInstanceBase::__Create_SetWarpName
PUBLIC	?__Create_SetName@CInstanceBase@@IAEXABUSCreateData@1@@Z ; CInstanceBase::__Create_SetName
PUBLIC	?ChangeSkillColor@CInstanceBase@@QAEXPBK@Z	; CInstanceBase::ChangeSkillColor
PUBLIC	?Create@CInstanceBase@@QAE_NABUSCreateData@1@@Z	; CInstanceBase::Create
PUBLIC	?__FindRaceType@CInstanceBase@@IAE_NKPAE@Z	; CInstanceBase::__FindRaceType
PUBLIC	?__GetBowRange@CInstanceBase@@IAEMXZ		; CInstanceBase::__GetBowRange
PUBLIC	?__MainCanSeeHiddenThing@CInstanceBase@@IAE_NXZ	; CInstanceBase::__MainCanSeeHiddenThing
PUBLIC	?__IsExistMainInstance@CInstanceBase@@IAE_NXZ	; CInstanceBase::__IsExistMainInstance
PUBLIC	?__IsMainInstance@CInstanceBase@@IAE_NXZ	; CInstanceBase::__IsMainInstance
PUBLIC	?__ClearMainInstance@CInstanceBase@@IAEXXZ	; CInstanceBase::__ClearMainInstance
PUBLIC	?__GetMainInstancePtr@CInstanceBase@@IAEPAV1@XZ	; CInstanceBase::__GetMainInstancePtr
PUBLIC	?SetMainInstance@CInstanceBase@@QAEXXZ		; CInstanceBase::SetMainInstance
PUBLIC	?Delete@CInstanceBase@@SAXPAV1@@Z		; CInstanceBase::Delete
PUBLIC	?New@CInstanceBase@@SAPAV1@XZ			; CInstanceBase::New
PUBLIC	?DestroySystem@CInstanceBase@@SAXXZ		; CInstanceBase::DestroySystem
PUBLIC	?OnUntargeted@CInstanceBase@@QAEXXZ		; CInstanceBase::OnUntargeted
PUBLIC	?OnTargeted@CInstanceBase@@QAEXXZ		; CInstanceBase::OnTargeted
PUBLIC	?OnUnselected@CInstanceBase@@QAEXXZ		; CInstanceBase::OnUnselected
PUBLIC	?OnSelected@CInstanceBase@@QAEXXZ		; CInstanceBase::OnSelected
PUBLIC	?CalculateDistanceSq3d@CInstanceBase@@QAEMABUD3DXVECTOR3@@@Z ; CInstanceBase::CalculateDistanceSq3d
PUBLIC	?IsInSafe@CInstanceBase@@QAEHXZ			; CInstanceBase::IsInSafe
PUBLIC	?IsPartyMember@CInstanceBase@@QAE_NXZ		; CInstanceBase::IsPartyMember
PUBLIC	?IsKiller@CInstanceBase@@QAE_NXZ		; CInstanceBase::IsKiller
PUBLIC	?GetPKMode@CInstanceBase@@QAEEXZ		; CInstanceBase::GetPKMode
PUBLIC	?GetTitleID@CInstanceBase@@QAEHXZ		; CInstanceBase::GetTitleID
PUBLIC	?GetAlignmentType@CInstanceBase@@QAEHXZ		; CInstanceBase::GetAlignmentType
PUBLIC	?GetAlignmentGrade@CInstanceBase@@QAEIXZ	; CInstanceBase::GetAlignmentGrade
PUBLIC	?GetAlignment@CInstanceBase@@QAEHXZ		; CInstanceBase::GetAlignment
PUBLIC	?GetSkillColor@CInstanceBase@@QAEPAKK@Z		; CInstanceBase::GetSkillColor
PUBLIC	?GetGuildLeader@CInstanceBase@@QAEEXZ		; CInstanceBase::GetGuildLeader
PUBLIC	?GetGuildID@CInstanceBase@@QAEKXZ		; CInstanceBase::GetGuildID
PUBLIC	?GetAIFlag@CInstanceBase@@QAEKXZ		; CInstanceBase::GetAIFlag
PUBLIC	?GetEmpireID@CInstanceBase@@QAEKXZ		; CInstanceBase::GetEmpireID
PUBLIC	?IsSameEmpire@CInstanceBase@@QAEHAAV1@@Z	; CInstanceBase::IsSameEmpire
PUBLIC	?IsPremium@CInstanceBase@@QAEHXZ		; CInstanceBase::IsPremium
PUBLIC	?IsGameMaster@CInstanceBase@@QAEHXZ		; CInstanceBase::IsGameMaster
PUBLIC	?IsInvisibility@CInstanceBase@@QAEHXZ		; CInstanceBase::IsInvisibility
PUBLIC	?__GetBackgroundHeight@CInstanceBase@@KAMMM@Z	; CInstanceBase::__GetBackgroundHeight
PUBLIC	?__GetShadowMapColor@CInstanceBase@@KAKMM@Z	; CInstanceBase::__GetShadowMapColor
PUBLIC	?__DisableSkipCollision@CInstanceBase@@IAEXXZ	; CInstanceBase::__DisableSkipCollision
PUBLIC	?__EnableSkipCollision@CInstanceBase@@IAEXXZ	; CInstanceBase::__EnableSkipCollision
PUBLIC	?__IsInDustRange@CInstanceBase@@IAE_NXZ		; CInstanceBase::__IsInDustRange
PUBLIC	?__Background_IsWaterPixelPosition@CInstanceBase@@QAE_NABUD3DXVECTOR3@@@Z ; CInstanceBase::__Background_IsWaterPixelPosition
PUBLIC	?__Background_GetWaterHeight@CInstanceBase@@QAE_NABUD3DXVECTOR3@@PAM@Z ; CInstanceBase::__Background_GetWaterHeight
PUBLIC	?__LessRenderOrder_GetLODLevel@CInstanceBase@@IAEIXZ ; CInstanceBase::__LessRenderOrder_GetLODLevel
PUBLIC	?LessRenderOrder@CInstanceBase@@QAE_NPAV1@@Z	; CInstanceBase::LessRenderOrder
PUBLIC	??_GCActorInstanceBackground@@UAEPAXI@Z		; CActorInstanceBackground::`scalar deleting destructor'
PUBLIC	?IsBlock@CActorInstanceBackground@@UAE_NHH@Z	; CActorInstanceBackground::IsBlock
PUBLIC	??1CActorInstanceBackground@@UAE@XZ		; CActorInstanceBackground::~CActorInstanceBackground
PUBLIC	??0CActorInstanceBackground@@QAE@XZ		; CActorInstanceBackground::CActorInstanceBackground
PUBLIC	?__ArmorVnumToShape@@YA_NHPAK@Z			; __ArmorVnumToShape
PUBLIC	?AvoidObject@CInstanceBase@@QAE_NABVCGraphicObjectInstance@@@Z ; CInstanceBase::AvoidObject
PUBLIC	?IsBlockObject@CInstanceBase@@QAE_NABVCGraphicObjectInstance@@@Z ; CInstanceBase::IsBlockObject
PUBLIC	?BlockMovement@CInstanceBase@@QAEXXZ		; CInstanceBase::BlockMovement
PUBLIC	?__DetachHorseSaddle@CInstanceBase@@IAEXXZ	; CInstanceBase::__DetachHorseSaddle
PUBLIC	?__AttachHorseSaddle@CInstanceBase@@IAEXXZ	; CInstanceBase::__AttachHorseSaddle
PUBLIC	?Render@SHORSE@CInstanceBase@@QAEXXZ		; CInstanceBase::SHORSE::Render
PUBLIC	?Deform@SHORSE@CInstanceBase@@QAEXXZ		; CInstanceBase::SHORSE::Deform
PUBLIC	?IsMounting@SHORSE@CInstanceBase@@QAE_NXZ	; CInstanceBase::SHORSE::IsMounting
PUBLIC	?CanAttack@SHORSE@CInstanceBase@@QAE_NXZ	; CInstanceBase::SHORSE::CanAttack
PUBLIC	?CanUseSkill@SHORSE@CInstanceBase@@QAE_NXZ	; CInstanceBase::SHORSE::CanUseSkill
PUBLIC	?IsHoverBoard@SHORSE@CInstanceBase@@QAE_NXZ	; CInstanceBase::SHORSE::IsHoverBoard
PUBLIC	?IsNewMount@SHORSE@CInstanceBase@@QAE_NXZ	; CInstanceBase::SHORSE::IsNewMount
PUBLIC	?GetLevel@SHORSE@CInstanceBase@@QAEIXZ		; CInstanceBase::SHORSE::GetLevel
PUBLIC	?GetActorPtr@SHORSE@CInstanceBase@@QAEPAVCActorInstance@@XZ ; CInstanceBase::SHORSE::GetActorPtr
PUBLIC	?GetActorRef@SHORSE@CInstanceBase@@QAEAAVCActorInstance@@XZ ; CInstanceBase::SHORSE::GetActorRef
PUBLIC	?Destroy@SHORSE@CInstanceBase@@QAEXXZ		; CInstanceBase::SHORSE::Destroy
PUBLIC	?Create@SHORSE@CInstanceBase@@QAEXABUD3DXVECTOR3@@II@Z ; CInstanceBase::SHORSE::Create
PUBLIC	?SetMoveSpeed@SHORSE@CInstanceBase@@QAEXI@Z	; CInstanceBase::SHORSE::SetMoveSpeed
PUBLIC	?SetAttackSpeed@SHORSE@CInstanceBase@@QAEXI@Z	; CInstanceBase::SHORSE::SetAttackSpeed
PUBLIC	?__Initialize@SHORSE@CInstanceBase@@QAEXXZ	; CInstanceBase::SHORSE::__Initialize
PUBLIC	??1SHORSE@CInstanceBase@@QAE@XZ			; CInstanceBase::SHORSE::~SHORSE
PUBLIC	??0SHORSE@CInstanceBase@@QAE@XZ			; CInstanceBase::SHORSE::SHORSE
PUBLIC	?IsWall@@YA_NI@Z				; IsWall
PUBLIC	?RaceToSex@@YAHH@Z				; RaceToSex
PUBLIC	?RaceToJob@@YAHH@Z				; RaceToJob
PUBLIC	?SetLanguage2@CInstanceBase@@QAEXE@Z		; CInstanceBase::SetLanguage2
PUBLIC	?SetLanguage@CInstanceBase@@QAEXE@Z		; CInstanceBase::SetLanguage
PUBLIC	?GetSkillColorByMotionID@CActorInstance@@QAEPAKK@Z ; CActorInstance::GetSkillColorByMotionID
PUBLIC	?ms_kPool@CInstanceBase@@2V?$CDynamicPool@VCInstanceBase@@@@A ; CInstanceBase::ms_kPool
EXTRN	??_EIBackground@@UAEPAXI@Z:PROC			; IBackground::`vector deleting destructor'
EXTRN	??_E?$CSingleton@VIBackground@@@@UAEPAXI@Z:PROC	; CSingleton<IBackground>::`vector deleting destructor'
EXTRN	??_ECInstanceBase@@UAEPAXI@Z:PROC		; CInstanceBase::`vector deleting destructor'
EXTRN	??_E?$CDynamicPool@VCInstanceBase@@@@UAEPAXI@Z:PROC ; CDynamicPool<CInstanceBase>::`vector deleting destructor'
EXTRN	??_ECActorInstanceBackground@@UAEPAXI@Z:PROC	; CActorInstanceBackground::`vector deleting destructor'
;	COMDAT ?$TSS0@?9??Render@CInstanceBase@@QAEXXZ@4HA
_BSS	SEGMENT
?$TSS0@?9??Render@CInstanceBase@@QAEXXZ@4HA DD 01H DUP (?) ; `CInstanceBase::Render'::`10'::$TSS0
_BSS	ENDS
;	COMDAT ?s_kScreen@?9??Render@CInstanceBase@@QAEXXZ@4VCScreen@@A
_BSS	SEGMENT
?s_kScreen@?9??Render@CInstanceBase@@QAEXXZ@4VCScreen@@A DD 01H DUP (?) ; `CInstanceBase::Render'::`10'::s_kScreen
_BSS	ENDS
;	COMDAT ?$TSS0@?1??SetHair@CInstanceBase@@QAEXK@Z@4HA
_BSS	SEGMENT
?$TSS0@?1??SetHair@CInstanceBase@@QAEXK@Z@4HA DD 01H DUP (?) ; `CInstanceBase::SetHair'::`2'::$TSS0
_BSS	ENDS
;	COMDAT ?setAllowedHair@?1??SetHair@CInstanceBase@@QAEXK@Z@4V?$unordered_map@KMU?$hash@K@std@@U?$equal_to@K@2@V?$allocator@U?$pair@$$CBKM@std@@@2@@std@@A
_BSS	SEGMENT
?setAllowedHair@?1??SetHair@CInstanceBase@@QAEXK@Z@4V?$unordered_map@KMU?$hash@K@std@@U?$equal_to@K@2@V?$allocator@U?$pair@$$CBKM@std@@@2@@std@@A DB 020H DUP (?) ; `CInstanceBase::SetHair'::`2'::setAllowedHair
_BSS	ENDS
;	COMDAT xdata$x
xdata$x	SEGMENT
__ehfuncinfo$?Create@SHORSE@CInstanceBase@@QAEXABUD3DXVECTOR3@@II@Z DD 019930522H
	DD	01H
	DD	FLAT:__unwindtable$?Create@SHORSE@CInstanceBase@@QAEXABUD3DXVECTOR3@@II@Z
	DD	2 DUP(00H)
	DD	2 DUP(00H)
	DD	00H
	DD	01H
__unwindtable$?Create@SHORSE@CInstanceBase@@QAEXABUD3DXVECTOR3@@II@Z DD 0ffffffffH
	DD	FLAT:__unwindfunclet$?Create@SHORSE@CInstanceBase@@QAEXABUD3DXVECTOR3@@II@Z$0
xdata$x	ENDS
;	COMDAT xdata$x
xdata$x	SEGMENT
__ehfuncinfo$?New@CInstanceBase@@SAPAV1@XZ DD 019930522H
	DD	01H
	DD	FLAT:__unwindtable$?New@CInstanceBase@@SAPAV1@XZ
	DD	2 DUP(00H)
	DD	2 DUP(00H)
	DD	00H
	DD	01H
__unwindtable$?New@CInstanceBase@@SAPAV1@XZ DD 0ffffffffH
	DD	FLAT:__unwindfunclet$?New@CInstanceBase@@SAPAV1@XZ$0
xdata$x	ENDS
;	COMDAT xdata$x
xdata$x	SEGMENT
__ehfuncinfo$?Create@CInstanceBase@@QAE_NABUSCreateData@1@@Z DD 019930522H
	DD	01H
	DD	FLAT:__unwindtable$?Create@CInstanceBase@@QAE_NABUSCreateData@1@@Z
	DD	2 DUP(00H)
	DD	2 DUP(00H)
	DD	00H
	DD	01H
__unwindtable$?Create@CInstanceBase@@QAE_NABUSCreateData@1@@Z DD 0ffffffffH
	DD	FLAT:__unwindfunclet$?Create@CInstanceBase@@QAE_NABUSCreateData@1@@Z$0
xdata$x	ENDS
;	COMDAT xdata$x
xdata$x	SEGMENT
__ehfuncinfo$?__Create_SetWarpName@CInstanceBase@@IAEXABUSCreateData@1@@Z DQ 00000000119930522r ; 2.33398e-314
	DD	FLAT:__unwindtable$?__Create_SetWarpName@CInstanceBase@@IAEXABUSCreateData@1@@Z
	DQ	00000000000000000r		; 0
	DQ	00000000000000000r		; 0
	DQ	00000000100000000r		; 2.122e-314
__unwindtable$?__Create_SetWarpName@CInstanceBase@@IAEXABUSCreateData@1@@Z DD 0ffffffffH
	DD	FLAT:__unwindfunclet$?__Create_SetWarpName@CInstanceBase@@IAEXABUSCreateData@1@@Z$0
xdata$x	ENDS
;	COMDAT xdata$x
xdata$x	SEGMENT
__ehfuncinfo$?Render@CInstanceBase@@QAEXXZ DQ 00000000119930522r ; 2.33398e-314
	DD	FLAT:__unwindtable$?Render@CInstanceBase@@QAEXXZ
	DQ	00000000000000000r		; 0
	DQ	00000000000000000r		; 0
	DQ	00000000100000000r		; 2.122e-314
__unwindtable$?Render@CInstanceBase@@QAEXXZ DD 0ffffffffH
	DD	FLAT:__unwindfunclet$?Render@CInstanceBase@@QAEXXZ$0
xdata$x	ENDS
;	COMDAT xdata$x
xdata$x	SEGMENT
__ehfuncinfo$?SetHair@CInstanceBase@@QAEXK@Z DD 019930522H
	DD	04H
	DD	FLAT:__unwindtable$?SetHair@CInstanceBase@@QAEXK@Z
	DD	2 DUP(00H)
	DD	2 DUP(00H)
	DD	00H
	DD	01H
__unwindtable$?SetHair@CInstanceBase@@QAEXK@Z DD 0ffffffffH
	DD	FLAT:__unwindfunclet$?SetHair@CInstanceBase@@QAEXK@Z$0
	DD	00H
	DD	FLAT:__unwindfunclet$?SetHair@CInstanceBase@@QAEXK@Z$2
	DD	01H
	DD	FLAT:__unwindfunclet$?SetHair@CInstanceBase@@QAEXK@Z$3
	DD	00H
	DD	FLAT:__unwindfunclet$?SetHair@CInstanceBase@@QAEXK@Z$1
xdata$x	ENDS
;	COMDAT xdata$x
xdata$x	SEGMENT
__ehfuncinfo$??0CInstanceBase@@QAE@XZ DD 019930522H
	DD	07H
	DD	FLAT:__unwindtable$??0CInstanceBase@@QAE@XZ
	DD	2 DUP(00H)
	DD	2 DUP(00H)
	DD	00H
	DD	01H
__unwindtable$??0CInstanceBase@@QAE@XZ DD 0ffffffffH
	DD	FLAT:__unwindfunclet$??0CInstanceBase@@QAE@XZ$0
	DD	00H
	DD	FLAT:__unwindfunclet$??0CInstanceBase@@QAE@XZ$1
	DD	01H
	DD	FLAT:__unwindfunclet$??0CInstanceBase@@QAE@XZ$2
	DD	02H
	DD	FLAT:__unwindfunclet$??0CInstanceBase@@QAE@XZ$3
	DD	03H
	DD	FLAT:__unwindfunclet$??0CInstanceBase@@QAE@XZ$4
	DD	04H
	DD	FLAT:__unwindfunclet$??0CInstanceBase@@QAE@XZ$5
	DD	05H
	DD	FLAT:__unwindfunclet$??0CInstanceBase@@QAE@XZ$6
xdata$x	ENDS
;	COMDAT xdata$x
xdata$x	SEGMENT
__ehfuncinfo$??1CInstanceBase@@UAE@XZ DD 019930522H
	DD	00H
	DD	00H
	DD	2 DUP(00H)
	DD	2 DUP(00H)
	DD	00H
	DD	05H
xdata$x	ENDS
;	COMDAT xdata$x
xdata$x	SEGMENT
__ehfuncinfo$??0?$unordered_map@KMU?$hash@K@std@@U?$equal_to@K@2@V?$allocator@U?$pair@$$CBKM@std@@@2@@std@@QAE@V?$initializer_list@U?$pair@$$CBKM@std@@@1@@Z DD 019930522H
	DD	03H
	DD	FLAT:__unwindtable$??0?$unordered_map@KMU?$hash@K@std@@U?$equal_to@K@2@V?$allocator@U?$pair@$$CBKM@std@@@2@@std@@QAE@V?$initializer_list@U?$pair@$$CBKM@std@@@1@@Z
	DD	2 DUP(00H)
	DD	2 DUP(00H)
	DD	00H
	DD	01H
__unwindtable$??0?$unordered_map@KMU?$hash@K@std@@U?$equal_to@K@2@V?$allocator@U?$pair@$$CBKM@std@@@2@@std@@QAE@V?$initializer_list@U?$pair@$$CBKM@std@@@1@@Z DD 0ffffffffH
	DD	FLAT:__unwindfunclet$??0?$unordered_map@KMU?$hash@K@std@@U?$equal_to@K@2@V?$allocator@U?$pair@$$CBKM@std@@@2@@std@@QAE@V?$initializer_list@U?$pair@$$CBKM@std@@@1@@Z$1
	DD	00H
	DD	FLAT:__unwindfunclet$??0?$unordered_map@KMU?$hash@K@std@@U?$equal_to@K@2@V?$allocator@U?$pair@$$CBKM@std@@@2@@std@@QAE@V?$initializer_list@U?$pair@$$CBKM@std@@@1@@Z$2
	DD	0ffffffffH
	DD	FLAT:__unwindfunclet$??0?$unordered_map@KMU?$hash@K@std@@U?$equal_to@K@2@V?$allocator@U?$pair@$$CBKM@std@@@2@@std@@QAE@V?$initializer_list@U?$pair@$$CBKM@std@@@1@@Z$0
xdata$x	ENDS
;	COMDAT xdata$x
xdata$x	SEGMENT
__ehfuncinfo$?Alloc@?$CDynamicPool@VCInstanceBase@@@@QAEPAVCInstanceBase@@XZ DD 019930522H
	DD	01H
	DD	FLAT:__unwindtable$?Alloc@?$CDynamicPool@VCInstanceBase@@@@QAEPAVCInstanceBase@@XZ
	DD	2 DUP(00H)
	DD	2 DUP(00H)
	DD	00H
	DD	01H
__unwindtable$?Alloc@?$CDynamicPool@VCInstanceBase@@@@QAEPAVCInstanceBase@@XZ DD 0ffffffffH
	DD	FLAT:__unwindfunclet$?Alloc@?$CDynamicPool@VCInstanceBase@@@@QAEPAVCInstanceBase@@XZ$0
xdata$x	ENDS
;	COMDAT xdata$x
xdata$x	SEGMENT
__ehfuncinfo$?push_back@?$list@USCommand@CInstanceBase@@V?$allocator@USCommand@CInstanceBase@@@std@@@std@@QAEXABUSCommand@CInstanceBase@@@Z DQ 00000000119930522r ; 2.33398e-314
	DD	FLAT:__unwindtable$?push_back@?$list@USCommand@CInstanceBase@@V?$allocator@USCommand@CInstanceBase@@@std@@@std@@QAEXABUSCommand@CInstanceBase@@@Z
	DQ	00000000000000000r		; 0
	DQ	00000000000000000r		; 0
	DQ	00000000100000000r		; 2.122e-314
__unwindtable$?push_back@?$list@USCommand@CInstanceBase@@V?$allocator@USCommand@CInstanceBase@@@std@@@std@@QAEXABUSCommand@CInstanceBase@@@Z DD 0ffffffffH
	DD	FLAT:__unwindfunclet$?push_back@?$list@USCommand@CInstanceBase@@V?$allocator@USCommand@CInstanceBase@@@std@@@std@@QAEXABUSCommand@CInstanceBase@@@Z$1
xdata$x	ENDS
;	COMDAT xdata$x
xdata$x	SEGMENT
__ehfuncinfo$??$_Emplace@ABUSCommand@CInstanceBase@@@?$list@USCommand@CInstanceBase@@V?$allocator@USCommand@CInstanceBase@@@std@@@std@@QAEPAU?$_List_node@USCommand@CInstanceBase@@PAX@1@QAU21@ABUSCommand@CInstanceBase@@@Z DQ 00000000119930522r ; 2.33398e-314
	DD	FLAT:__unwindtable$??$_Emplace@ABUSCommand@CInstanceBase@@@?$list@USCommand@CInstanceBase@@V?$allocator@USCommand@CInstanceBase@@@std@@@std@@QAEPAU?$_List_node@USCommand@CInstanceBase@@PAX@1@QAU21@ABUSCommand@CInstanceBase@@@Z
	DQ	00000000000000000r		; 0
	DQ	00000000000000000r		; 0
	DQ	00000000100000000r		; 2.122e-314
__unwindtable$??$_Emplace@ABUSCommand@CInstanceBase@@@?$list@USCommand@CInstanceBase@@V?$allocator@USCommand@CInstanceBase@@@std@@@std@@QAEPAU?$_List_node@USCommand@CInstanceBase@@PAX@1@QAU21@ABUSCommand@CInstanceBase@@@Z DD 0ffffffffH
	DD	FLAT:__unwindfunclet$??$_Emplace@ABUSCommand@CInstanceBase@@@?$list@USCommand@CInstanceBase@@V?$allocator@USCommand@CInstanceBase@@@std@@@std@@QAEPAU?$_List_node@USCommand@CInstanceBase@@PAX@1@QAU21@ABUSCommand@CInstanceBase@@@Z$1
xdata$x	ENDS
;	COMDAT xdata$x
xdata$x	SEGMENT
__ehfuncinfo$??0?$_Hash@V?$_Umap_traits@KMV?$_Uhash_compare@KU?$hash@K@std@@U?$equal_to@K@2@@std@@V?$allocator@U?$pair@$$CBKM@std@@@2@$0A@@std@@@std@@IAE@ABV?$_Uhash_compare@KU?$hash@K@std@@U?$equal_to@K@2@@1@ABV?$allocator@U?$pair@$$CBKM@std@@@1@@Z DD 019930522H
	DD	02H
	DD	FLAT:__unwindtable$??0?$_Hash@V?$_Umap_traits@KMV?$_Uhash_compare@KU?$hash@K@std@@U?$equal_to@K@2@@std@@V?$allocator@U?$pair@$$CBKM@std@@@2@$0A@@std@@@std@@IAE@ABV?$_Uhash_compare@KU?$hash@K@std@@U?$equal_to@K@2@@1@ABV?$allocator@U?$pair@$$CBKM@std@@@1@@Z
	DD	2 DUP(00H)
	DD	2 DUP(00H)
	DD	00H
	DD	01H
__unwindtable$??0?$_Hash@V?$_Umap_traits@KMV?$_Uhash_compare@KU?$hash@K@std@@U?$equal_to@K@2@@std@@V?$allocator@U?$pair@$$CBKM@std@@@2@$0A@@std@@@std@@IAE@ABV?$_Uhash_compare@KU?$hash@K@std@@U?$equal_to@K@2@@1@ABV?$allocator@U?$pair@$$CBKM@std@@@1@@Z DD 0ffffffffH
	DD	FLAT:__unwindfunclet$??0?$_Hash@V?$_Umap_traits@KMV?$_Uhash_compare@KU?$hash@K@std@@U?$equal_to@K@2@@std@@V?$allocator@U?$pair@$$CBKM@std@@@2@$0A@@std@@@std@@IAE@ABV?$_Uhash_compare@KU?$hash@K@std@@U?$equal_to@K@2@@1@ABV?$allocator@U?$pair@$$CBKM@std@@@1@@Z$0
	DD	00H
	DD	FLAT:__unwindfunclet$??0?$_Hash@V?$_Umap_traits@KMV?$_Uhash_compare@KU?$hash@K@std@@U?$equal_to@K@2@@std@@V?$allocator@U?$pair@$$CBKM@std@@@2@$0A@@std@@@std@@IAE@ABV?$_Uhash_compare@KU?$hash@K@std@@U?$equal_to@K@2@@1@ABV?$allocator@U?$pair@$$CBKM@std@@@1@@Z$1
xdata$x	ENDS
;	COMDAT xdata$x
xdata$x	SEGMENT
__ehfuncinfo$??$?0ABUSCommand@CInstanceBase@@@?$_List_node_emplace_op2@V?$allocator@U?$_List_node@USCommand@CInstanceBase@@PAX@std@@@std@@@std@@QAE@AAV?$allocator@U?$_List_node@USCommand@CInstanceBase@@PAX@std@@@1@ABUSCommand@CInstanceBase@@@Z DQ 00000000119930522r ; 2.33398e-314
	DD	FLAT:__unwindtable$??$?0ABUSCommand@CInstanceBase@@@?$_List_node_emplace_op2@V?$allocator@U?$_List_node@USCommand@CInstanceBase@@PAX@std@@@std@@@std@@QAE@AAV?$allocator@U?$_List_node@USCommand@CInstanceBase@@PAX@std@@@1@ABUSCommand@CInstanceBase@@@Z
	DQ	00000000000000000r		; 0
	DQ	00000000000000000r		; 0
	DQ	00000000100000000r		; 2.122e-314
__unwindtable$??$?0ABUSCommand@CInstanceBase@@@?$_List_node_emplace_op2@V?$allocator@U?$_List_node@USCommand@CInstanceBase@@PAX@std@@@std@@@std@@QAE@AAV?$allocator@U?$_List_node@USCommand@CInstanceBase@@PAX@std@@@1@ABUSCommand@CInstanceBase@@@Z DD 0ffffffffH
	DD	FLAT:__unwindfunclet$??$?0ABUSCommand@CInstanceBase@@@?$_List_node_emplace_op2@V?$allocator@U?$_List_node@USCommand@CInstanceBase@@PAX@std@@@std@@@std@@QAE@AAV?$allocator@U?$_List_node@USCommand@CInstanceBase@@PAX@std@@@1@ABUSCommand@CInstanceBase@@@Z$0
xdata$x	ENDS
;	COMDAT xdata$x
xdata$x	SEGMENT
__ehfuncinfo$??$_Insert_range_unchecked@PBU?$pair@$$CBKM@std@@PBU12@@?$_Hash@V?$_Umap_traits@KMV?$_Uhash_compare@KU?$hash@K@std@@U?$equal_to@K@2@@std@@V?$allocator@U?$pair@$$CBKM@std@@@2@$0A@@std@@@std@@IAEXPBU?$pair@$$CBKM@1@QBU21@@Z DQ 00000000219930522r ; 4.45598e-314
	DD	FLAT:__unwindtable$??$_Insert_range_unchecked@PBU?$pair@$$CBKM@std@@PBU12@@?$_Hash@V?$_Umap_traits@KMV?$_Uhash_compare@KU?$hash@K@std@@U?$equal_to@K@2@@std@@V?$allocator@U?$pair@$$CBKM@std@@@2@$0A@@std@@@std@@IAEXPBU?$pair@$$CBKM@1@QBU21@@Z
	DQ	00000000000000000r		; 0
	DQ	00000000000000000r		; 0
	DQ	00000000100000000r		; 2.122e-314
__unwindtable$??$_Insert_range_unchecked@PBU?$pair@$$CBKM@std@@PBU12@@?$_Hash@V?$_Umap_traits@KMV?$_Uhash_compare@KU?$hash@K@std@@U?$equal_to@K@2@@std@@V?$allocator@U?$pair@$$CBKM@std@@@2@$0A@@std@@@std@@IAEXPBU?$pair@$$CBKM@1@QBU21@@Z DD 0ffffffffH
	DD	FLAT:__unwindfunclet$??$_Insert_range_unchecked@PBU?$pair@$$CBKM@std@@PBU12@@?$_Hash@V?$_Umap_traits@KMV?$_Uhash_compare@KU?$hash@K@std@@U?$equal_to@K@2@@std@@V?$allocator@U?$pair@$$CBKM@std@@@2@$0A@@std@@@std@@IAEXPBU?$pair@$$CBKM@1@QBU21@@Z$1
	DD	0ffffffffH
	DD	FLAT:__unwindfunclet$??$_Insert_range_unchecked@PBU?$pair@$$CBKM@std@@PBU12@@?$_Hash@V?$_Umap_traits@KMV?$_Uhash_compare@KU?$hash@K@std@@U?$equal_to@K@2@@std@@V?$allocator@U?$pair@$$CBKM@std@@@2@$0A@@std@@@std@@IAEXPBU?$pair@$$CBKM@1@QBU21@@Z$0
xdata$x	ENDS
;	COMDAT xdata$x
xdata$x	SEGMENT
__ehfuncinfo$??$emplace@ABU?$pair@$$CBKM@std@@@?$_Hash@V?$_Umap_traits@KMV?$_Uhash_compare@KU?$hash@K@std@@U?$equal_to@K@2@@std@@V?$allocator@U?$pair@$$CBKM@std@@@2@$0A@@std@@@std@@QAE?AU?$pair@V?$_List_iterator@V?$_List_val@U?$_List_simple_types@U?$pair@$$CBKM@std@@@std@@@std@@@std@@_N@1@ABU?$pair@$$CBKM@1@@Z DQ 00000000219930522r ; 4.45598e-314
	DD	FLAT:__unwindtable$??$emplace@ABU?$pair@$$CBKM@std@@@?$_Hash@V?$_Umap_traits@KMV?$_Uhash_compare@KU?$hash@K@std@@U?$equal_to@K@2@@std@@V?$allocator@U?$pair@$$CBKM@std@@@2@$0A@@std@@@std@@QAE?AU?$pair@V?$_List_iterator@V?$_List_val@U?$_List_simple_types@U?$pair@$$CBKM@std@@@std@@@std@@@std@@_N@1@ABU?$pair@$$CBKM@1@@Z
	DQ	00000000000000000r		; 0
	DQ	00000000000000000r		; 0
	DQ	00000000100000000r		; 2.122e-314
__unwindtable$??$emplace@ABU?$pair@$$CBKM@std@@@?$_Hash@V?$_Umap_traits@KMV?$_Uhash_compare@KU?$hash@K@std@@U?$equal_to@K@2@@std@@V?$allocator@U?$pair@$$CBKM@std@@@2@$0A@@std@@@std@@QAE?AU?$pair@V?$_List_iterator@V?$_List_val@U?$_List_simple_types@U?$pair@$$CBKM@std@@@std@@@std@@@std@@_N@1@ABU?$pair@$$CBKM@1@@Z DD 0ffffffffH
	DD	FLAT:__unwindfunclet$??$emplace@ABU?$pair@$$CBKM@std@@@?$_Hash@V?$_Umap_traits@KMV?$_Uhash_compare@KU?$hash@K@std@@U?$equal_to@K@2@@std@@V?$allocator@U?$pair@$$CBKM@std@@@2@$0A@@std@@@std@@QAE?AU?$pair@V?$_List_iterator@V?$_List_val@U?$_List_simple_types@U?$pair@$$CBKM@std@@@std@@@std@@@std@@_N@1@ABU?$pair@$$CBKM@1@@Z$1
	DD	0ffffffffH
	DD	FLAT:__unwindfunclet$??$emplace@ABU?$pair@$$CBKM@std@@@?$_Hash@V?$_Umap_traits@KMV?$_Uhash_compare@KU?$hash@K@std@@U?$equal_to@K@2@@std@@V?$allocator@U?$pair@$$CBKM@std@@@2@$0A@@std@@@std@@QAE?AU?$pair@V?$_List_iterator@V?$_List_val@U?$_List_simple_types@U?$pair@$$CBKM@std@@@std@@@std@@@std@@_N@1@ABU?$pair@$$CBKM@1@@Z$0
xdata$x	ENDS
;	COMDAT xdata$x
xdata$x	SEGMENT
__ehfuncinfo$??$?0ABU?$pair@$$CBKM@std@@@?$_List_node_emplace_op2@V?$allocator@U?$_List_node@U?$pair@$$CBKM@std@@PAX@std@@@std@@@std@@QAE@AAV?$allocator@U?$_List_node@U?$pair@$$CBKM@std@@PAX@std@@@1@ABU?$pair@$$CBKM@1@@Z DQ 00000000119930522r ; 2.33398e-314
	DD	FLAT:__unwindtable$??$?0ABU?$pair@$$CBKM@std@@@?$_List_node_emplace_op2@V?$allocator@U?$_List_node@U?$pair@$$CBKM@std@@PAX@std@@@std@@@std@@QAE@AAV?$allocator@U?$_List_node@U?$pair@$$CBKM@std@@PAX@std@@@1@ABU?$pair@$$CBKM@1@@Z
	DQ	00000000000000000r		; 0
	DQ	00000000000000000r		; 0
	DQ	00000000100000000r		; 2.122e-314
__unwindtable$??$?0ABU?$pair@$$CBKM@std@@@?$_List_node_emplace_op2@V?$allocator@U?$_List_node@U?$pair@$$CBKM@std@@PAX@std@@@std@@@std@@QAE@AAV?$allocator@U?$_List_node@U?$pair@$$CBKM@std@@PAX@std@@@1@ABU?$pair@$$CBKM@1@@Z DD 0ffffffffH
	DD	FLAT:__unwindfunclet$??$?0ABU?$pair@$$CBKM@std@@@?$_List_node_emplace_op2@V?$allocator@U?$_List_node@U?$pair@$$CBKM@std@@PAX@std@@@std@@@std@@QAE@AAV?$allocator@U?$_List_node@U?$pair@$$CBKM@std@@PAX@std@@@1@ABU?$pair@$$CBKM@1@@Z$0
?gs_kActorInstBG@@3VCActorInstanceBackground@@A DD FLAT:??_7?$CSingleton@VIBackground@@@@6B@ ; gs_kActorInstBG
?ms_kPool@CInstanceBase@@2V?$CDynamicPool@VCInstanceBase@@@@A DD FLAT:??_7?$CDynamicPool@VCInstanceBase@@@@6B@ ; CInstanceBase::ms_kPool
	DD	00H
	DD	00H
	DD	00H
	DD	00H
	DD	00H
	DD	00H
	DD	00H
	DD	00H
	ORG $-20
?gs_kActorInstBG$initializer$@@3P6AXXZA DD FLAT:??__Egs_kActorInstBG@@YAXXZ ; gs_kActorInstBG$initializer$
??ms_kPool$initializer$@CInstanceBase@@2P6AXXZA@@3P6AXXZA DD FLAT:??__E?ms_kPool@CInstanceBase@@2V?$CDynamicPool@VCInstanceBase@@@@A@@YAXXZ ; ??ms_kPool$initializer$@CInstanceBase@@2P6AXXZA@@3P6AXXZA
; Function compile flags: /Ogtp
; File C:\Anka2Project\Anka2Project\Source\Binary\source\UserInterface\InstanceBase.cpp
;	COMDAT ?Create@SHORSE@CInstanceBase@@QAEXABUD3DXVECTOR3@@II@Z
_TEXT	SEGMENT
$T1 = -16						; size = 4
__$EHRec$ = -12						; size = 12
_c_rkPPos$ = 8						; size = 4
_eRace$ = 12						; size = 4
_eHitEffect$ = 16					; size = 4
?Create@SHORSE@CInstanceBase@@QAEXABUD3DXVECTOR3@@II@Z PROC ; CInstanceBase::SHORSE::Create, COMDAT
; _this$ = ecx

; 91   : {

  00000	55		 push	 ebp
  00001	8b ec		 mov	 ebp, esp
  00003	6a ff		 push	 -1
  00005	68 00 00 00 00	 push	 __ehhandler$?Create@SHORSE@CInstanceBase@@QAEXABUD3DXVECTOR3@@II@Z
  0000a	64 a1 00 00 00
	00		 mov	 eax, DWORD PTR fs:0
  00010	50		 push	 eax
  00011	51		 push	 ecx
  00012	56		 push	 esi
  00013	57		 push	 edi
  00014	a1 00 00 00 00	 mov	 eax, DWORD PTR ___security_cookie
  00019	33 c5		 xor	 eax, ebp
  0001b	50		 push	 eax
  0001c	8d 45 f4	 lea	 eax, DWORD PTR __$EHRec$[ebp]
  0001f	64 a3 00 00 00
	00		 mov	 DWORD PTR fs:0, eax
  00025	8b f1		 mov	 esi, ecx

; 92   : 	assert(NULL==m_pkActor && "CInstanceBase::SHORSE::Create - ALREADY MOUNT");

  00027	83 7e 04 00	 cmp	 DWORD PTR [esi+4], 0
  0002b	74 14		 je	 SHORT $LN5@Create
  0002d	6a 5c		 push	 92			; 0000005cH
  0002f	68 00 00 00 00	 push	 OFFSET ??_C@_1KC@MEHOMOLH@?$AAC?$AA?3?$AA?2?$AAA?$AAn?$AAk?$AAa?$AA2?$AAP?$AAr?$AAo?$AAj?$AAe?$AAc?$AAt@
  00034	68 00 00 00 00	 push	 OFFSET ??_C@_1IG@HGDICGNA@?$AAN?$AAU?$AAL?$AAL?$AA?$DN?$AA?$DN?$AAm?$AA_?$AAp?$AAk?$AAA?$AAc?$AAt?$AAo?$AAr@
  00039	e8 00 00 00 00	 call	 __wassert
  0003e	83 c4 0c	 add	 esp, 12			; 0000000cH
$LN5@Create:

; 93   : 
; 94   : 	m_pkActor=new CActorInstance;

  00041	68 44 1a 00 00	 push	 6724			; 00001a44H
  00046	e8 00 00 00 00	 call	 ??2@YAPAXI@Z		; operator new
  0004b	83 c4 04	 add	 esp, 4
  0004e	89 45 f0	 mov	 DWORD PTR $T1[ebp], eax
  00051	8b c8		 mov	 ecx, eax
  00053	c7 45 fc 00 00
	00 00		 mov	 DWORD PTR __$EHRec$[ebp+8], 0
  0005a	e8 00 00 00 00	 call	 ??0CActorInstance@@QAE@XZ ; CActorInstance::CActorInstance
  0005f	c7 45 fc ff ff
	ff ff		 mov	 DWORD PTR __$EHRec$[ebp+8], -1

; 95   : 
; 96   : 	CActorInstance& rkActor=GetActorRef();

  00066	8b ce		 mov	 ecx, esi
  00068	89 46 04	 mov	 DWORD PTR [esi+4], eax
  0006b	e8 00 00 00 00	 call	 ?GetActorRef@SHORSE@CInstanceBase@@QAEAAVCActorInstance@@XZ ; CInstanceBase::SHORSE::GetActorRef
  00070	8b f8		 mov	 edi, eax

; 97   : 	rkActor.SetEventHandler(CActorInstance::IEventHandler::GetEmptyPtr());

  00072	e8 00 00 00 00	 call	 ?GetEmptyPtr@IEventHandler@CActorInstance@@SAPAV12@XZ ; CActorInstance::IEventHandler::GetEmptyPtr
  00077	50		 push	 eax
  00078	8b cf		 mov	 ecx, edi
  0007a	e8 00 00 00 00	 call	 ?SetEventHandler@CActorInstance@@QAEXPAVIEventHandler@1@@Z ; CActorInstance::SetEventHandler

; 98   : 	if (!rkActor.SetRace(eRace))

  0007f	ff 75 0c	 push	 DWORD PTR _eRace$[ebp]
  00082	8b cf		 mov	 ecx, edi
  00084	e8 00 00 00 00	 call	 ?SetRace@CActorInstance@@QAE_NK@Z ; CActorInstance::SetRace
  00089	84 c0		 test	 al, al
  0008b	75 27		 jne	 SHORT $LN2@Create

; 99   : 	{
; 100  : 		delete m_pkActor;

  0008d	8b 4e 04	 mov	 ecx, DWORD PTR [esi+4]
  00090	85 c9		 test	 ecx, ecx
  00092	74 06		 je	 SHORT $LN8@Create
  00094	8b 01		 mov	 eax, DWORD PTR [ecx]
  00096	6a 01		 push	 1
  00098	ff 10		 call	 DWORD PTR [eax]
$LN8@Create:

; 101  : 		m_pkActor=NULL;

  0009a	c7 46 04 00 00
	00 00		 mov	 DWORD PTR [esi+4], 0

; 118  : }

  000a1	8b 4d f4	 mov	 ecx, DWORD PTR __$EHRec$[ebp]
  000a4	64 89 0d 00 00
	00 00		 mov	 DWORD PTR fs:0, ecx
  000ab	59		 pop	 ecx
  000ac	5f		 pop	 edi
  000ad	5e		 pop	 esi
  000ae	8b e5		 mov	 esp, ebp
  000b0	5d		 pop	 ebp
  000b1	c2 0c 00	 ret	 12			; 0000000cH
$LN2@Create:

; 102  : 		return;
; 103  : 	}
; 104  : 
; 105  : 	rkActor.SetShape(0);

  000b4	51		 push	 ecx
  000b5	c7 04 24 00 00
	00 00		 mov	 DWORD PTR [esp], 0
  000bc	8b cf		 mov	 ecx, edi
  000be	6a 00		 push	 0
  000c0	e8 00 00 00 00	 call	 ?SetShape@CActorInstance@@QAEXKM@Z ; CActorInstance::SetShape

; 106  : 	rkActor.SetBattleHitEffect(eHitEffect);

  000c5	ff 75 10	 push	 DWORD PTR _eHitEffect$[ebp]
  000c8	8b cf		 mov	 ecx, edi
  000ca	e8 00 00 00 00	 call	 ?SetBattleHitEffect@CActorInstance@@QAEXK@Z ; CActorInstance::SetBattleHitEffect

; 107  : 	rkActor.SetAlphaValue(0.0f);

  000cf	51		 push	 ecx
  000d0	8b cf		 mov	 ecx, edi
  000d2	c7 04 24 00 00
	00 00		 mov	 DWORD PTR [esp], 0
  000d9	e8 00 00 00 00	 call	 ?SetAlphaValue@CActorInstance@@QAEXM@Z ; CActorInstance::SetAlphaValue

; 108  : 	rkActor.BlendAlphaValue(1.0f, 0.5f);

  000de	83 ec 08	 sub	 esp, 8
  000e1	8b cf		 mov	 ecx, edi
  000e3	c7 44 24 04 00
	00 00 3f	 mov	 DWORD PTR [esp+4], 1056964608 ; 3f000000H
  000eb	c7 04 24 00 00
	80 3f		 mov	 DWORD PTR [esp], 1065353216 ; 3f800000H
  000f2	e8 00 00 00 00	 call	 ?BlendAlphaValue@CActorInstance@@QAEXMM@Z ; CActorInstance::BlendAlphaValue

; 109  : 	rkActor.SetMoveSpeed(1.0f);

  000f7	51		 push	 ecx
  000f8	8b cf		 mov	 ecx, edi
  000fa	c7 04 24 00 00
	80 3f		 mov	 DWORD PTR [esp], 1065353216 ; 3f800000H
  00101	e8 00 00 00 00	 call	 ?SetMoveSpeed@CActorInstance@@QAEXM@Z ; CActorInstance::SetMoveSpeed

; 110  : 	rkActor.SetAttackSpeed(1.0f);

  00106	51		 push	 ecx
  00107	8b cf		 mov	 ecx, edi
  00109	c7 04 24 00 00
	80 3f		 mov	 DWORD PTR [esp], 1065353216 ; 3f800000H
  00110	e8 00 00 00 00	 call	 ?SetAttackSpeed@CActorInstance@@QAEXM@Z ; CActorInstance::SetAttackSpeed

; 111  : 	rkActor.SetMotionMode(CRaceMotionData::MODE_GENERAL);

  00115	6a 01		 push	 1
  00117	8b cf		 mov	 ecx, edi
  00119	e8 00 00 00 00	 call	 ?SetMotionMode@CActorInstance@@QAEXH@Z ; CActorInstance::SetMotionMode

; 112  : 	rkActor.Stop();

  0011e	51		 push	 ecx
  0011f	8b cf		 mov	 ecx, edi
  00121	c7 04 24 9a 99
	19 3e		 mov	 DWORD PTR [esp], 1041865114 ; 3e19999aH
  00128	e8 00 00 00 00	 call	 ?Stop@CActorInstance@@QAEXM@Z ; CActorInstance::Stop

; 113  : 	rkActor.RefreshActorInstance();

  0012d	8b cf		 mov	 ecx, edi
  0012f	e8 00 00 00 00	 call	 ?RefreshActorInstance@CActorInstance@@QAEXXZ ; CActorInstance::RefreshActorInstance

; 114  : 
; 115  : 	rkActor.SetCurPixelPosition(c_rkPPos);

  00134	ff 75 08	 push	 DWORD PTR _c_rkPPos$[ebp]
  00137	8b cf		 mov	 ecx, edi
  00139	e8 00 00 00 00	 call	 ?SetCurPixelPosition@CActorInstance@@QAEXABUD3DXVECTOR3@@@Z ; CActorInstance::SetCurPixelPosition

; 116  : 
; 117  : 	m_isMounting=true;

  0013e	c6 06 01	 mov	 BYTE PTR [esi], 1

; 118  : }

  00141	8b 4d f4	 mov	 ecx, DWORD PTR __$EHRec$[ebp]
  00144	64 89 0d 00 00
	00 00		 mov	 DWORD PTR fs:0, ecx
  0014b	59		 pop	 ecx
  0014c	5f		 pop	 edi
  0014d	5e		 pop	 esi
  0014e	8b e5		 mov	 esp, ebp
  00150	5d		 pop	 ebp
  00151	c2 0c 00	 ret	 12			; 0000000cH
_TEXT	ENDS
;	COMDAT text$x
text$x	SEGMENT
__unwindfunclet$?Create@SHORSE@CInstanceBase@@QAEXABUD3DXVECTOR3@@II@Z$0:
  00000	68 44 1a 00 00	 push	 6724			; 00001a44H
  00005	8b 45 f0	 mov	 eax, DWORD PTR $T1[ebp]
  00008	50		 push	 eax
  00009	e8 00 00 00 00	 call	 ??3@YAXPAXI@Z		; operator delete
  0000e	83 c4 08	 add	 esp, 8
  00011	c3		 ret	 0
  00012	cc		 int	 3
  00013	cc		 int	 3
  00014	cc		 int	 3
  00015	cc		 int	 3
  00016	cc		 int	 3
__ehhandler$?Create@SHORSE@CInstanceBase@@QAEXABUD3DXVECTOR3@@II@Z:
  00017	90		 npad	 1
  00018	90		 npad	 1
  00019	8b 54 24 08	 mov	 edx, DWORD PTR [esp+8]
  0001d	8d 42 0c	 lea	 eax, DWORD PTR [edx+12]
  00020	8b 4a f0	 mov	 ecx, DWORD PTR [edx-16]
  00023	33 c8		 xor	 ecx, eax
  00025	e8 00 00 00 00	 call	 @__security_check_cookie@4
  0002a	b8 00 00 00 00	 mov	 eax, OFFSET __ehfuncinfo$?Create@SHORSE@CInstanceBase@@QAEXABUD3DXVECTOR3@@II@Z
  0002f	e9 00 00 00 00	 jmp	 ___CxxFrameHandler3
text$x	ENDS
?Create@SHORSE@CInstanceBase@@QAEXABUD3DXVECTOR3@@II@Z ENDP ; CInstanceBase::SHORSE::Create
; Function compile flags: /Ogtp
; File C:\Anka2Project\Anka2Project\Source\Binary\source\UserInterface\InstanceBase.cpp
;	COMDAT ?Destroy@SHORSE@CInstanceBase@@QAEXXZ
_TEXT	SEGMENT
?Destroy@SHORSE@CInstanceBase@@QAEXXZ PROC		; CInstanceBase::SHORSE::Destroy, COMDAT
; _this$ = ecx

; 121  : {

  00000	56		 push	 esi
  00001	8b f1		 mov	 esi, ecx

; 122  : 	if (m_pkActor)

  00003	8b 4e 04	 mov	 ecx, DWORD PTR [esi+4]
  00006	85 c9		 test	 ecx, ecx
  00008	74 12		 je	 SHORT $LN4@Destroy

; 123  : 	{
; 124  : 		m_pkActor->Destroy();

  0000a	e8 00 00 00 00	 call	 ?Destroy@CActorInstance@@QAEXXZ ; CActorInstance::Destroy

; 125  : 		delete m_pkActor;

  0000f	8b 4e 04	 mov	 ecx, DWORD PTR [esi+4]
  00012	85 c9		 test	 ecx, ecx
  00014	74 06		 je	 SHORT $LN4@Destroy
  00016	8b 01		 mov	 eax, DWORD PTR [ecx]
  00018	6a 01		 push	 1
  0001a	ff 10		 call	 DWORD PTR [eax]
$LN4@Destroy:

; 126  : 	}
; 127  : 
; 128  : 	__Initialize();

  0001c	8b ce		 mov	 ecx, esi
  0001e	5e		 pop	 esi
  0001f	e9 00 00 00 00	 jmp	 ?__Initialize@SHORSE@CInstanceBase@@QAEXXZ ; CInstanceBase::SHORSE::__Initialize
?Destroy@SHORSE@CInstanceBase@@QAEXXZ ENDP		; CInstanceBase::SHORSE::Destroy
_TEXT	ENDS
; Function compile flags: /Ogtp
; File C:\Anka2Project\Anka2Project\Source\Binary\source\UserInterface\InstanceBase.cpp
; File C:\Anka2Project\Anka2Project\Source\Binary\source\eterBase\Singleton.h
; File C:\Anka2Project\Anka2Project\Source\Binary\source\UserInterface\InstanceBase.cpp
; File C:\Anka2Project\Anka2Project\Source\Binary\source\eterBase\Singleton.h
; File C:\Anka2Project\Anka2Project\Source\Binary\source\UserInterface\InstanceBase.cpp
;	COMDAT ??__Egs_kActorInstBG@@YAXXZ
text$di	SEGMENT
??__Egs_kActorInstBG@@YAXXZ PROC			; `dynamic initializer for 'gs_kActorInstBG'', COMDAT
; File C:\Anka2Project\Anka2Project\Source\Binary\source\eterBase\Singleton.h

; 13   : 		assert(!ms_singleton);

  00000	83 3d 00 00 00
	00 00		 cmp	 DWORD PTR ?ms_singleton@?$CSingleton@VIBackground@@@@0PAVIBackground@@A, 0 ; CSingleton<IBackground>::ms_singleton
  00007	74 14		 je	 SHORT $LN9@dynamic
  00009	6a 0d		 push	 13			; 0000000dH
  0000b	68 00 00 00 00	 push	 OFFSET ??_C@_1IO@CAJLEEOI@?$AAC?$AA?3?$AA?2?$AAA?$AAn?$AAk?$AAa?$AA2?$AAP?$AAr?$AAo?$AAj?$AAe?$AAc?$AAt@
  00010	68 00 00 00 00	 push	 OFFSET ??_C@_1BM@EENBGLDC@?$AA?$CB?$AAm?$AAs?$AA_?$AAs?$AAi?$AAn?$AAg?$AAl?$AAe?$AAt?$AAo?$AAn@
  00015	e8 00 00 00 00	 call	 __wassert
  0001a	83 c4 0c	 add	 esp, 12			; 0000000cH
$LN9@dynamic:
; File C:\Anka2Project\Anka2Project\Source\Binary\source\UserInterface\InstanceBase.cpp

; 291  : static CActorInstanceBackground gs_kActorInstBG;

  0001d	68 00 00 00 00	 push	 OFFSET ??__Fgs_kActorInstBG@@YAXXZ ; `dynamic atexit destructor for 'gs_kActorInstBG''
; File C:\Anka2Project\Anka2Project\Source\Binary\source\eterBase\Singleton.h

; 15   : 		ms_singleton = (T*) ((int) this + offset);

  00022	c7 05 00 00 00
	00 00 00 00 00	 mov	 DWORD PTR ?ms_singleton@?$CSingleton@VIBackground@@@@0PAVIBackground@@A, OFFSET ?gs_kActorInstBG@@3VCActorInstanceBackground@@A ; CSingleton<IBackground>::ms_singleton
; File C:\Anka2Project\Anka2Project\Source\Binary\source\UserInterface\InstanceBase.cpp

; 282  : 		CActorInstanceBackground() {}

  0002c	c7 05 00 00 00
	00 00 00 00 00	 mov	 DWORD PTR ?gs_kActorInstBG@@3VCActorInstanceBackground@@A, OFFSET ??_7CActorInstanceBackground@@6B@

; 291  : static CActorInstanceBackground gs_kActorInstBG;

  00036	e8 00 00 00 00	 call	 _atexit
  0003b	59		 pop	 ecx
  0003c	c3		 ret	 0
??__Egs_kActorInstBG@@YAXXZ ENDP			; `dynamic initializer for 'gs_kActorInstBG''
text$di	ENDS
; Function compile flags: /Ogtp
; File C:\Anka2Project\Anka2Project\Source\Binary\source\eterBase\Singleton.h
;	COMDAT ??__Fgs_kActorInstBG@@YAXXZ
text$yd	SEGMENT
??__Fgs_kActorInstBG@@YAXXZ PROC			; `dynamic atexit destructor for 'gs_kActorInstBG'', COMDAT

; 20   : 		assert(ms_singleton);

  00000	83 3d 00 00 00
	00 00		 cmp	 DWORD PTR ?ms_singleton@?$CSingleton@VIBackground@@@@0PAVIBackground@@A, 0 ; CSingleton<IBackground>::ms_singleton
  00007	c7 05 00 00 00
	00 00 00 00 00	 mov	 DWORD PTR ?gs_kActorInstBG@@3VCActorInstanceBackground@@A, OFFSET ??_7?$CSingleton@VIBackground@@@@6B@
  00011	75 14		 jne	 SHORT $LN17@dynamic
  00013	6a 14		 push	 20			; 00000014H
  00015	68 00 00 00 00	 push	 OFFSET ??_C@_1IO@CAJLEEOI@?$AAC?$AA?3?$AA?2?$AAA?$AAn?$AAk?$AAa?$AA2?$AAP?$AAr?$AAo?$AAj?$AAe?$AAc?$AAt@
  0001a	68 00 00 00 00	 push	 OFFSET ??_C@_1BK@FMEHPMFE@?$AAm?$AAs?$AA_?$AAs?$AAi?$AAn?$AAg?$AAl?$AAe?$AAt?$AAo?$AAn@
  0001f	e8 00 00 00 00	 call	 __wassert
  00024	83 c4 0c	 add	 esp, 12			; 0000000cH
$LN17@dynamic:

; 21   : 		ms_singleton = 0;

  00027	c7 05 00 00 00
	00 00 00 00 00	 mov	 DWORD PTR ?ms_singleton@?$CSingleton@VIBackground@@@@0PAVIBackground@@A, 0 ; CSingleton<IBackground>::ms_singleton
  00031	c3		 ret	 0
??__Fgs_kActorInstBG@@YAXXZ ENDP			; `dynamic atexit destructor for 'gs_kActorInstBG''
text$yd	ENDS
; Function compile flags: /Ogtp
; File C:\Anka2Project\Anka2Project\Source\Binary\source\UserInterface\InstanceBase.cpp
;	COMDAT ??__E?ms_kPool@CInstanceBase@@2V?$CDynamicPool@VCInstanceBase@@@@A@@YAXXZ
text$di	SEGMENT
??__E?ms_kPool@CInstanceBase@@2V?$CDynamicPool@VCInstanceBase@@@@A@@YAXXZ PROC ; `dynamic initializer for 'CInstanceBase::ms_kPool'', COMDAT

; 358  : CDynamicPool<CInstanceBase> CInstanceBase::ms_kPool;

  00000	68 00 00 00 00	 push	 OFFSET ??__F?ms_kPool@CInstanceBase@@2V?$CDynamicPool@VCInstanceBase@@@@A@@YAXXZ ; `dynamic atexit destructor for 'CInstanceBase::ms_kPool''
  00005	e8 00 00 00 00	 call	 _atexit
  0000a	59		 pop	 ecx
  0000b	c3		 ret	 0
??__E?ms_kPool@CInstanceBase@@2V?$CDynamicPool@VCInstanceBase@@@@A@@YAXXZ ENDP ; `dynamic initializer for 'CInstanceBase::ms_kPool''
text$di	ENDS
; Function compile flags: /Ogtp
;	COMDAT ??__F?ms_kPool@CInstanceBase@@2V?$CDynamicPool@VCInstanceBase@@@@A@@YAXXZ
text$yd	SEGMENT
??__F?ms_kPool@CInstanceBase@@2V?$CDynamicPool@VCInstanceBase@@@@A@@YAXXZ PROC ; `dynamic atexit destructor for 'CInstanceBase::ms_kPool'', COMDAT
  00000	b9 00 00 00 00	 mov	 ecx, OFFSET ?ms_kPool@CInstanceBase@@2V?$CDynamicPool@VCInstanceBase@@@@A ; CInstanceBase::ms_kPool
  00005	e9 00 00 00 00	 jmp	 ??1?$CDynamicPool@VCInstanceBase@@@@UAE@XZ ; CDynamicPool<CInstanceBase>::~CDynamicPool<CInstanceBase>
??__F?ms_kPool@CInstanceBase@@2V?$CDynamicPool@VCInstanceBase@@@@A@@YAXXZ ENDP ; `dynamic atexit destructor for 'CInstanceBase::ms_kPool''
text$yd	ENDS
; Function compile flags: /Ogtp
; File C:\Anka2Project\Anka2Project\Source\Binary\source\UserInterface\InstanceBase.cpp
; File C:\Program Files\Microsoft Visual Studio\2022\Community\VC\Tools\MSVC\14.44.35207\include\vector
; File C:\Anka2Project\Anka2Project\Source\Binary\source\eterLib\Pool.h
; File C:\Program Files\Microsoft Visual Studio\2022\Community\VC\Tools\MSVC\14.44.35207\include\vector
; File C:\Anka2Project\Anka2Project\Source\Binary\source\eterLib\Pool.h
; File C:\Program Files\Microsoft Visual Studio\2022\Community\VC\Tools\MSVC\14.44.35207\include\vector
; File C:\Anka2Project\Anka2Project\Source\Binary\source\eterLib\Pool.h
; File C:\Anka2Project\Anka2Project\Source\Binary\source\UserInterface\InstanceBase.cpp
; File C:\Anka2Project\Anka2Project\Source\Binary\source\eterLib\Pool.h
; File C:\Program Files\Microsoft Visual Studio\2022\Community\VC\Tools\MSVC\14.44.35207\include\vector
; File C:\Anka2Project\Anka2Project\Source\Binary\source\UserInterface\InstanceBase.cpp
;	COMDAT ?New@CInstanceBase@@SAPAV1@XZ
_TEXT	SEGMENT
_pkNewData$8 = -16					; size = 4
$T2 = -16						; size = 4
__$EHRec$ = -12						; size = 12
?New@CInstanceBase@@SAPAV1@XZ PROC			; CInstanceBase::New, COMDAT

; 648  : {

  00000	55		 push	 ebp
  00001	8b ec		 mov	 ebp, esp
  00003	6a ff		 push	 -1
  00005	68 00 00 00 00	 push	 __ehhandler$?New@CInstanceBase@@SAPAV1@XZ
  0000a	64 a1 00 00 00
	00		 mov	 eax, DWORD PTR fs:0
  00010	50		 push	 eax
  00011	51		 push	 ecx
  00012	56		 push	 esi
  00013	a1 00 00 00 00	 mov	 eax, DWORD PTR ___security_cookie
  00018	33 c5		 xor	 eax, ebp
  0001a	50		 push	 eax
  0001b	8d 45 f4	 lea	 eax, DWORD PTR __$EHRec$[ebp]
  0001e	64 a3 00 00 00
	00		 mov	 DWORD PTR fs:0, eax
; File C:\Program Files\Microsoft Visual Studio\2022\Community\VC\Tools\MSVC\14.44.35207\include\vector

; 1910 :         return _My_data._Myfirst == _My_data._Mylast;

  00024	8b 0d 14 00 00
	00		 mov	 ecx, DWORD PTR ?ms_kPool@CInstanceBase@@2V?$CDynamicPool@VCInstanceBase@@@@A+20
  0002a	39 0d 10 00 00
	00		 cmp	 DWORD PTR ?ms_kPool@CInstanceBase@@2V?$CDynamicPool@VCInstanceBase@@@@A+16, ecx
; File C:\Anka2Project\Anka2Project\Source\Binary\source\eterLib\Pool.h

; 42   : 			if (m_kVct_pkFree.empty())

  00030	75 50		 jne	 SHORT $LN4@New

; 44   : 				T* pkNewData=new T;

  00032	68 88 1d 00 00	 push	 7560			; 00001d88H
  00037	e8 00 00 00 00	 call	 ??2@YAPAXI@Z		; operator new
  0003c	83 c4 04	 add	 esp, 4
  0003f	89 45 f0	 mov	 DWORD PTR $T2[ebp], eax
  00042	8b c8		 mov	 ecx, eax
  00044	c7 45 fc 00 00
	00 00		 mov	 DWORD PTR __$EHRec$[ebp+8], 0
  0004b	e8 00 00 00 00	 call	 ??0CInstanceBase@@QAE@XZ ; CInstanceBase::CInstanceBase
  00050	8b f0		 mov	 esi, eax
  00052	c7 45 fc ff ff
	ff ff		 mov	 DWORD PTR __$EHRec$[ebp+8], -1
; File C:\Program Files\Microsoft Visual Studio\2022\Community\VC\Tools\MSVC\14.44.35207\include\vector

; 933  :         _Emplace_one_at_back(_Val);

  00059	8d 45 f0	 lea	 eax, DWORD PTR _pkNewData$8[ebp]
; File C:\Anka2Project\Anka2Project\Source\Binary\source\eterLib\Pool.h

; 44   : 				T* pkNewData=new T;

  0005c	89 75 f0	 mov	 DWORD PTR _pkNewData$8[ebp], esi
; File C:\Program Files\Microsoft Visual Studio\2022\Community\VC\Tools\MSVC\14.44.35207\include\vector

; 933  :         _Emplace_one_at_back(_Val);

  0005f	50		 push	 eax
  00060	b9 04 00 00 00	 mov	 ecx, OFFSET ?ms_kPool@CInstanceBase@@2V?$CDynamicPool@VCInstanceBase@@@@A+4
  00065	e8 00 00 00 00	 call	 ??$_Emplace_one_at_back@ABQAVCInstanceBase@@@?$vector@PAVCInstanceBase@@V?$allocator@PAVCInstanceBase@@@std@@@std@@AAEAAPAVCInstanceBase@@ABQAV2@@Z ; std::vector<CInstanceBase *,std::allocator<CInstanceBase *> >::_Emplace_one_at_back<CInstanceBase * const &>
; File C:\Anka2Project\Anka2Project\Source\Binary\source\eterLib\Pool.h

; 46   : 				++m_uUsedCapacity;

  0006a	ff 05 20 00 00
	00		 inc	 DWORD PTR ?ms_kPool@CInstanceBase@@2V?$CDynamicPool@VCInstanceBase@@@@A+32
; File C:\Anka2Project\Anka2Project\Source\Binary\source\UserInterface\InstanceBase.cpp

; 649  : 	return ms_kPool.Alloc();

  00070	8b c6		 mov	 eax, esi

; 650  : }

  00072	8b 4d f4	 mov	 ecx, DWORD PTR __$EHRec$[ebp]
  00075	64 89 0d 00 00
	00 00		 mov	 DWORD PTR fs:0, ecx
  0007c	59		 pop	 ecx
  0007d	5e		 pop	 esi
  0007e	8b e5		 mov	 esp, ebp
  00080	5d		 pop	 ebp
  00081	c3		 ret	 0
$LN4@New:
; File C:\Anka2Project\Anka2Project\Source\Binary\source\eterLib\Pool.h

; 50   : 			T* pkFreeData=m_kVct_pkFree.back();

  00082	8b 41 fc	 mov	 eax, DWORD PTR [ecx-4]
; File C:\Program Files\Microsoft Visual Studio\2022\Community\VC\Tools\MSVC\14.44.35207\include\vector

; 1989 :         return _My_data._Mylast[-1];

  00085	83 c1 fc	 add	 ecx, -4			; fffffffcH

; 1759 :         --_Mylast;

  00088	89 0d 14 00 00
	00		 mov	 DWORD PTR ?ms_kPool@CInstanceBase@@2V?$CDynamicPool@VCInstanceBase@@@@A+20, ecx
; File C:\Anka2Project\Anka2Project\Source\Binary\source\UserInterface\InstanceBase.cpp

; 650  : }

  0008e	8b 4d f4	 mov	 ecx, DWORD PTR __$EHRec$[ebp]
  00091	64 89 0d 00 00
	00 00		 mov	 DWORD PTR fs:0, ecx
  00098	59		 pop	 ecx
  00099	5e		 pop	 esi
  0009a	8b e5		 mov	 esp, ebp
  0009c	5d		 pop	 ebp
  0009d	c3		 ret	 0
_TEXT	ENDS
;	COMDAT text$x
text$x	SEGMENT
__unwindfunclet$?New@CInstanceBase@@SAPAV1@XZ$0:
  00000	68 88 1d 00 00	 push	 7560			; 00001d88H
  00005	8b 45 f0	 mov	 eax, DWORD PTR $T2[ebp]
  00008	50		 push	 eax
  00009	e8 00 00 00 00	 call	 ??3@YAXPAXI@Z		; operator delete
  0000e	83 c4 08	 add	 esp, 8
  00011	c3		 ret	 0
  00012	cc		 int	 3
  00013	cc		 int	 3
  00014	cc		 int	 3
  00015	cc		 int	 3
  00016	cc		 int	 3
__ehhandler$?New@CInstanceBase@@SAPAV1@XZ:
  00017	90		 npad	 1
  00018	90		 npad	 1
  00019	8b 54 24 08	 mov	 edx, DWORD PTR [esp+8]
  0001d	8d 42 0c	 lea	 eax, DWORD PTR [edx+12]
  00020	8b 4a f4	 mov	 ecx, DWORD PTR [edx-12]
  00023	33 c8		 xor	 ecx, eax
  00025	e8 00 00 00 00	 call	 @__security_check_cookie@4
  0002a	b8 00 00 00 00	 mov	 eax, OFFSET __ehfuncinfo$?New@CInstanceBase@@SAPAV1@XZ
  0002f	e9 00 00 00 00	 jmp	 ___CxxFrameHandler3
text$x	ENDS
?New@CInstanceBase@@SAPAV1@XZ ENDP			; CInstanceBase::New
; Function compile flags: /Ogtp
; File C:\Anka2Project\Anka2Project\Source\Binary\source\UserInterface\InstanceBase.cpp
; File C:\Anka2Project\Anka2Project\Source\Binary\source\UserInterface\AbstractSingleton.h
; File C:\Anka2Project\Anka2Project\Source\Binary\source\UserInterface\InstanceBase.cpp
;	COMDAT ?__GetBowRange@CInstanceBase@@IAEMXZ
_TEXT	SEGMENT
?__GetBowRange@CInstanceBase@@IAEMXZ PROC		; CInstanceBase::__GetBowRange, COMDAT
; _this$ = ecx

; 709  : 	float fRange = 2500.0f - 100.0f;
; 710  : 
; 711  : 	if (__IsMainInstance())

  00000	e8 00 00 00 00	 call	 ?__IsMainInstance@CInstanceBase@@IAE_NXZ ; CInstanceBase::__IsMainInstance
  00005	84 c0		 test	 al, al
  00007	74 3d		 je	 SHORT $LN7@GetBowRang
; File C:\Anka2Project\Anka2Project\Source\Binary\source\UserInterface\AbstractSingleton.h

; 24   : 		assert(ms_singleton!=nullptr);

  00009	8b 0d 00 00 00
	00		 mov	 ecx, DWORD PTR ?ms_singleton@?$TAbstractSingleton@VIAbstractPlayer@@@@0PAVIAbstractPlayer@@A ; TAbstractSingleton<IAbstractPlayer>::ms_singleton
  0000f	85 c9		 test	 ecx, ecx
  00011	75 1a		 jne	 SHORT $LN6@GetBowRang
  00013	6a 18		 push	 24			; 00000018H
  00015	68 00 00 00 00	 push	 OFFSET ??_C@_1KI@FIPHLMOB@?$AAC?$AA?3?$AA?2?$AAA?$AAn?$AAk?$AAa?$AA2?$AAP?$AAr?$AAo?$AAj?$AAe?$AAc?$AAt@
  0001a	68 00 00 00 00	 push	 OFFSET ??_C@_1CM@FPMBEAEA@?$AAm?$AAs?$AA_?$AAs?$AAi?$AAn?$AAg?$AAl?$AAe?$AAt?$AAo?$AAn?$AA?$CB?$AA?$DN?$AAn@
  0001f	e8 00 00 00 00	 call	 __wassert
  00024	8b 0d 00 00 00
	00		 mov	 ecx, DWORD PTR ?ms_singleton@?$TAbstractSingleton@VIAbstractPlayer@@@@0PAVIAbstractPlayer@@A ; TAbstractSingleton<IAbstractPlayer>::ms_singleton
  0002a	83 c4 0c	 add	 esp, 12			; 0000000cH
$LN6@GetBowRang:
; File C:\Anka2Project\Anka2Project\Source\Binary\source\UserInterface\InstanceBase.cpp

; 714  : 		fRange += float(rPlayer.GetStatus(POINT_BOW_DISTANCE));

  0002d	8b 01		 mov	 eax, DWORD PTR [ecx]
  0002f	6a 22		 push	 34			; 00000022H
  00031	8b 40 10	 mov	 eax, DWORD PTR [eax+16]
  00034	ff d0		 call	 eax
  00036	8b c8		 mov	 ecx, eax
  00038	e8 00 00 00 00	 call	 __ltof3
  0003d	f3 0f 58 05 00
	00 00 00	 addss	 xmm0, DWORD PTR __real@45160000

; 718  : }

  00045	c3		 ret	 0
$LN7@GetBowRang:

; 715  : 	}
; 716  : 
; 717  : 	return fRange;

  00046	f3 0f 10 05 00
	00 00 00	 movss	 xmm0, DWORD PTR __real@45160000

; 718  : }

  0004e	c3		 ret	 0
?__GetBowRange@CInstanceBase@@IAEMXZ ENDP		; CInstanceBase::__GetBowRange
_TEXT	ENDS
; Function compile flags: /Ogtp
; File C:\Anka2Project\Anka2Project\Source\Binary\source\UserInterface\InstanceBase.cpp
; File C:\Anka2Project\Anka2Project\Source\Binary\source\UserInterface\AbstractSingleton.h
; File C:\Anka2Project\Anka2Project\Source\Binary\source\UserInterface\InstanceBase.cpp
; File C:\Anka2Project\Anka2Project\Source\Binary\source\UserInterface\AbstractSingleton.h
; File C:\Anka2Project\Anka2Project\Source\Binary\source\UserInterface\InstanceBase.cpp
; File C:\Anka2Project\Anka2Project\Source\Binary\source\eterBase\Singleton.h
; File C:\Anka2Project\Anka2Project\Source\Binary\source\UserInterface\InstanceBase.cpp
; File C:\Anka2Project\Anka2Project\Source\Binary\extern\include\d3dx8math.inl
; File C:\Anka2Project\Anka2Project\Source\Binary\source\UserInterface\InstanceBase.cpp
; File C:\Anka2Project\Anka2Project\Source\Binary\source\eterBase\Singleton.h
; File C:\Anka2Project\Anka2Project\Source\Binary\source\UserInterface\InstanceBase.cpp
; File C:\Anka2Project\Anka2Project\Source\Binary\source\UserInterface\InstanceBase.h
; File C:\Anka2Project\Anka2Project\Source\Binary\source\UserInterface\InstanceBase.cpp
; File C:\Anka2Project\Anka2Project\Source\Binary\source\eterBase\Singleton.h
; File C:\Anka2Project\Anka2Project\Source\Binary\source\UserInterface\InstanceBase.cpp
; File C:\Anka2Project\Anka2Project\Source\Binary\source\eterBase\Singleton.h
; File C:\Anka2Project\Anka2Project\Source\Binary\source\UserInterface\InstanceBase.cpp
; File C:\Anka2Project\Anka2Project\Source\Binary\source\eterBase\Singleton.h
; File C:\Anka2Project\Anka2Project\Source\Binary\source\UserInterface\InstanceBase.cpp
; File C:\Anka2Project\Anka2Project\Source\Binary\source\eterBase\Singleton.h
; File C:\Anka2Project\Anka2Project\Source\Binary\source\UserInterface\InstanceBase.cpp
; File C:\Anka2Project\Anka2Project\Source\Binary\source\eterBase\Singleton.h
; File C:\Anka2Project\Anka2Project\Source\Binary\source\UserInterface\InstanceBase.cpp
; File C:\Anka2Project\Anka2Project\Source\Binary\extern\include\d3dx8math.inl
; File C:\Anka2Project\Anka2Project\Source\Binary\source\UserInterface\InstanceBase.cpp
; File C:\Anka2Project\Anka2Project\Source\Binary\extern\include\d3dx8math.inl
; File C:\Anka2Project\Anka2Project\Source\Binary\source\UserInterface\InstanceBase.cpp
; File C:\Anka2Project\Anka2Project\Source\Binary\extern\include\d3dx8math.inl
; File C:\Anka2Project\Anka2Project\Source\Binary\source\UserInterface\InstanceBase.cpp
; File C:\Anka2Project\Anka2Project\Source\Binary\extern\include\d3dx8math.inl
; File C:\Anka2Project\Anka2Project\Source\Binary\source\UserInterface\InstanceBase.cpp
; File C:\Program Files\Microsoft Visual Studio\2022\Community\VC\Tools\MSVC\14.44.35207\include\xstring
; File C:\Program Files\Microsoft Visual Studio\2022\Community\VC\Tools\MSVC\14.44.35207\include\__msvc_string_view.hpp
; File C:\Program Files\Microsoft Visual Studio\2022\Community\VC\Tools\MSVC\14.44.35207\include\xstring
; File C:\Program Files\Microsoft Visual Studio\2022\Community\VC\Tools\MSVC\14.44.35207\include\__msvc_string_view.hpp
; File C:\Program Files\Microsoft Visual Studio\2022\Community\VC\Tools\MSVC\14.44.35207\include\xstring
; File C:\Anka2Project\Anka2Project\Source\Binary\source\UserInterface\InstanceBase.cpp
; File C:\Program Files\Microsoft Visual Studio\2022\Community\VC\Tools\MSVC\14.44.35207\include\xstring
; File C:\Anka2Project\Anka2Project\Source\Binary\source\UserInterface\InstanceBase.cpp
; File C:\Program Files\Microsoft Visual Studio\2022\Community\VC\Tools\MSVC\14.44.35207\include\xstring
; File C:\Anka2Project\Anka2Project\Source\Binary\source\UserInterface\InstanceBase.cpp
; File C:\Program Files\Microsoft Visual Studio\2022\Community\VC\Tools\MSVC\14.44.35207\include\xstring
; File C:\Anka2Project\Anka2Project\Source\Binary\source\UserInterface\InstanceBase.cpp
; File C:\Program Files\Microsoft Visual Studio\2022\Community\VC\Tools\MSVC\14.44.35207\include\xstring
; File C:\Program Files\Microsoft Visual Studio\2022\Community\VC\Tools\MSVC\14.44.35207\include\xmemory
; File C:\Program Files\Microsoft Visual Studio\2022\Community\VC\Tools\MSVC\14.44.35207\include\xstring
; File C:\Program Files\Microsoft Visual Studio\2022\Community\VC\Tools\MSVC\14.44.35207\include\xmemory
; File C:\Program Files\Microsoft Visual Studio\2022\Community\VC\Tools\MSVC\14.44.35207\include\xstring
; File C:\Anka2Project\Anka2Project\Source\Binary\source\UserInterface\InstanceBase.cpp
; File C:\Program Files\Microsoft Visual Studio\2022\Community\VC\Tools\MSVC\14.44.35207\include\xmemory
; File C:\Anka2Project\Anka2Project\Source\Binary\source\UserInterface\InstanceBase.cpp
;	COMDAT ?Create@CInstanceBase@@QAE_NABUSCreateData@1@@Z
_TEXT	SEGMENT
_center_x$23 = -80					; size = 4
_fx$ = -76						; size = 4
_npcRaceIndex$1$ = -76					; size = 4
$T24 = -72						; size = 1
_c_rkCreateData$GSCopy$1$ = -72				; size = 4
_fy$ = -68						; size = 4
tv857 = -68						; size = 4
_dwRank$1$ = -68					; size = 4
_dwBodyColor$1$ = -68					; size = 4
_this$GSCopy$1$ = -68					; size = 4
_center_y$25 = -64					; size = 4
_fz$ = -64						; size = 4
_nonPlayer$1$ = -64					; size = 4
$T10 = -60						; size = 16
$T3 = -56						; size = 12
_strFileName$26 = -44					; size = 24
__$ArrayPad$ = -20					; size = 4
__$EHRec$ = -12						; size = 12
_c_rkCreateData$ = 8					; size = 4
?Create@CInstanceBase@@QAE_NABUSCreateData@1@@Z PROC	; CInstanceBase::Create, COMDAT
; _this$ = ecx

; 733  : {

  00000	53		 push	 ebx
  00001	8b dc		 mov	 ebx, esp
  00003	83 ec 08	 sub	 esp, 8
  00006	83 e4 f8	 and	 esp, -8			; fffffff8H
  00009	83 c4 04	 add	 esp, 4
  0000c	55		 push	 ebp
  0000d	8b 6b 04	 mov	 ebp, DWORD PTR [ebx+4]
  00010	89 6c 24 04	 mov	 DWORD PTR [esp+4], ebp
  00014	8b ec		 mov	 ebp, esp
  00016	6a ff		 push	 -1
  00018	68 00 00 00 00	 push	 __ehhandler$?Create@CInstanceBase@@QAE_NABUSCreateData@1@@Z
  0001d	64 a1 00 00 00
	00		 mov	 eax, DWORD PTR fs:0
  00023	50		 push	 eax
  00024	53		 push	 ebx
  00025	83 ec 40	 sub	 esp, 64			; 00000040H
  00028	a1 00 00 00 00	 mov	 eax, DWORD PTR ___security_cookie
  0002d	33 c5		 xor	 eax, ebp
  0002f	89 45 ec	 mov	 DWORD PTR __$ArrayPad$[ebp], eax
  00032	56		 push	 esi
  00033	57		 push	 edi
  00034	50		 push	 eax
  00035	8d 45 f4	 lea	 eax, DWORD PTR __$EHRec$[ebp]
  00038	64 a3 00 00 00
	00		 mov	 DWORD PTR fs:0, eax
  0003e	8b f9		 mov	 edi, ecx
  00040	89 7d bc	 mov	 DWORD PTR _this$GSCopy$1$[ebp], edi
; File C:\Anka2Project\Anka2Project\Source\Binary\source\UserInterface\AbstractSingleton.h

; 24   : 		assert(ms_singleton!=nullptr);

  00043	8b 0d 00 00 00
	00		 mov	 ecx, DWORD PTR ?ms_singleton@?$TAbstractSingleton@VIAbstractApplication@@@@0PAVIAbstractApplication@@A ; TAbstractSingleton<IAbstractApplication>::ms_singleton
; File C:\Anka2Project\Anka2Project\Source\Binary\source\UserInterface\InstanceBase.cpp

; 733  : {

  00049	8b 73 08	 mov	 esi, DWORD PTR _c_rkCreateData$[ebx]
  0004c	89 75 b8	 mov	 DWORD PTR _c_rkCreateData$GSCopy$1$[ebp], esi
; File C:\Anka2Project\Anka2Project\Source\Binary\source\UserInterface\AbstractSingleton.h

; 24   : 		assert(ms_singleton!=nullptr);

  0004f	85 c9		 test	 ecx, ecx
  00051	75 1a		 jne	 SHORT $LN34@Create
  00053	6a 18		 push	 24			; 00000018H
  00055	68 00 00 00 00	 push	 OFFSET ??_C@_1KI@FIPHLMOB@?$AAC?$AA?3?$AA?2?$AAA?$AAn?$AAk?$AAa?$AA2?$AAP?$AAr?$AAo?$AAj?$AAe?$AAc?$AAt@
  0005a	68 00 00 00 00	 push	 OFFSET ??_C@_1CM@FPMBEAEA@?$AAm?$AAs?$AA_?$AAs?$AAi?$AAn?$AAg?$AAl?$AAe?$AAt?$AAo?$AAn?$AA?$CB?$AA?$DN?$AAn@
  0005f	e8 00 00 00 00	 call	 __wassert
  00064	8b 0d 00 00 00
	00		 mov	 ecx, DWORD PTR ?ms_singleton@?$TAbstractSingleton@VIAbstractApplication@@@@0PAVIAbstractApplication@@A ; TAbstractSingleton<IAbstractApplication>::ms_singleton
  0006a	83 c4 0c	 add	 esp, 12			; 0000000cH
$LN34@Create:
; File C:\Anka2Project\Anka2Project\Source\Binary\source\UserInterface\InstanceBase.cpp

; 734  : 	IAbstractApplication::GetSingleton().SkipRenderBuffering(300);

  0006d	8b 01		 mov	 eax, DWORD PTR [ecx]
  0006f	68 2c 01 00 00	 push	 300			; 0000012cH
  00074	ff 50 10	 call	 DWORD PTR [eax+16]

; 735  : 
; 736  : 	SetInstanceType(c_rkCreateData.m_bType);

  00077	0f b6 06	 movzx	 eax, BYTE PTR [esi]
  0007a	8b cf		 mov	 ecx, edi
  0007c	50		 push	 eax
  0007d	e8 00 00 00 00	 call	 ?SetInstanceType@CInstanceBase@@QAEXH@Z ; CInstanceBase::SetInstanceType
; File C:\Anka2Project\Anka2Project\Source\Binary\source\eterBase\Singleton.h

; 26   : 		assert(ms_singleton);

  00082	8b 0d 00 00 00
	00		 mov	 ecx, DWORD PTR ?ms_singleton@?$CSingleton@VCPythonNonPlayer@@@@0PAVCPythonNonPlayer@@A ; CSingleton<CPythonNonPlayer>::ms_singleton
  00088	85 c9		 test	 ecx, ecx
  0008a	75 1a		 jne	 SHORT $LN37@Create
  0008c	6a 1a		 push	 26			; 0000001aH
  0008e	68 00 00 00 00	 push	 OFFSET ??_C@_1IO@CAJLEEOI@?$AAC?$AA?3?$AA?2?$AAA?$AAn?$AAk?$AAa?$AA2?$AAP?$AAr?$AAo?$AAj?$AAe?$AAc?$AAt@
  00093	68 00 00 00 00	 push	 OFFSET ??_C@_1BK@FMEHPMFE@?$AAm?$AAs?$AA_?$AAs?$AAi?$AAn?$AAg?$AAl?$AAe?$AAt?$AAo?$AAn@
  00098	e8 00 00 00 00	 call	 __wassert
  0009d	8b 0d 00 00 00
	00		 mov	 ecx, DWORD PTR ?ms_singleton@?$CSingleton@VCPythonNonPlayer@@@@0PAVCPythonNonPlayer@@A ; CSingleton<CPythonNonPlayer>::ms_singleton
  000a3	83 c4 0c	 add	 esp, 12			; 0000000cH
$LN37@Create:
; File C:\Anka2Project\Anka2Project\Source\Binary\source\UserInterface\InstanceBase.cpp

; 739  : 	const auto npcRaceIndex = CPythonNonPlayer::Instance().GetNPCWear(c_rkCreateData.m_dwRace, NPC_WEAR_RACE);

  000a6	6a 00		 push	 0
  000a8	ff 76 1c	 push	 DWORD PTR [esi+28]
  000ab	e8 00 00 00 00	 call	 ?GetNPCWear@CPythonNonPlayer@@QAEHHE@Z ; CPythonNonPlayer::GetNPCWear
  000b0	89 45 b4	 mov	 DWORD PTR _npcRaceIndex$1$[ebp], eax

; 740  : 	if (npcRaceIndex != -1)

  000b3	8b cf		 mov	 ecx, edi
  000b5	83 f8 ff	 cmp	 eax, -1
  000b8	0f 84 b1 00 00
	00		 je	 $LN2@Create

; 741  : 	{
; 742  : 		if (!SetRace(npcRaceIndex))

  000be	50		 push	 eax
  000bf	e8 00 00 00 00	 call	 ?SetRace@CInstanceBase@@QAE_NK@Z ; CInstanceBase::SetRace
  000c4	84 c0		 test	 al, al
  000c6	0f 84 b3 00 00
	00		 je	 $LN133@Create
$LN5@Create:

; 749  : 	}
; 750  : #else
; 751  : 	if (!SetRace(c_rkCreateData.m_dwRace))
; 752  : 		return false;
; 753  : #endif
; 754  : 
; 755  : 	SetVirtualID(c_rkCreateData.m_dwVID);

  000cc	ff 76 18	 push	 DWORD PTR [esi+24]
  000cf	8b cf		 mov	 ecx, edi
  000d1	e8 00 00 00 00	 call	 ?SetVirtualID@CInstanceBase@@QAEXK@Z ; CInstanceBase::SetVirtualID

; 756  : 
; 757  : 	if (c_rkCreateData.m_isMain)

  000d6	80 be 69 01 00
	00 00		 cmp	 BYTE PTR [esi+361], 0
  000dd	74 07		 je	 SHORT $LN6@Create

; 758  : 		SetMainInstance();

  000df	8b cf		 mov	 ecx, edi
  000e1	e8 00 00 00 00	 call	 ?SetMainInstance@CInstanceBase@@QAEXXZ ; CInstanceBase::SetMainInstance
$LN6@Create:

; 759  : 
; 760  : 	if (IsGuildWall())

  000e6	8b cf		 mov	 ecx, edi
  000e8	e8 00 00 00 00	 call	 ?IsGuildWall@CInstanceBase@@QAEHXZ ; CInstanceBase::IsGuildWall
  000ed	85 c0		 test	 eax, eax
  000ef	0f 84 91 00 00
	00		 je	 $LN7@Create

; 761  : 	{
; 762  : 		unsigned center_x;
; 763  : 		unsigned center_y;
; 764  : 
; 765  : 		c_rkCreateData.m_kAffectFlags.ConvertToPosition(&center_x, &center_y);

  000f5	8d 45 c0	 lea	 eax, DWORD PTR _center_y$25[ebp]
  000f8	50		 push	 eax
  000f9	8d 45 b0	 lea	 eax, DWORD PTR _center_x$23[ebp]
  000fc	8d 8e 43 01 00
	00		 lea	 ecx, DWORD PTR [esi+323]
  00102	50		 push	 eax
  00103	e8 00 00 00 00	 call	 ?ConvertToPosition@CAffectFlagContainer@@QBEXPAI0@Z ; CAffectFlagContainer::ConvertToPosition

; 766  : 		
; 767  : 		float center_z = __GetBackgroundHeight(center_x, center_y);

  00108	8b 45 c0	 mov	 eax, DWORD PTR _center_y$25[ebp]
  0010b	66 0f 6e c0	 movd	 xmm0, eax
  0010f	f3 0f e6 c0	 cvtdq2pd xmm0, xmm0
  00113	c1 e8 1f	 shr	 eax, 31			; 0000001fH
  00116	f2 0f 58 04 c5
	00 00 00 00	 addsd	 xmm0, QWORD PTR __xmm@41f00000000000000000000000000000[eax*8]
  0011f	8b 45 b0	 mov	 eax, DWORD PTR _center_x$23[ebp]
  00122	66 0f 5a c8	 cvtpd2ps xmm1, xmm0
  00126	66 0f 6e c0	 movd	 xmm0, eax
  0012a	f3 0f e6 c0	 cvtdq2pd xmm0, xmm0
  0012e	c1 e8 1f	 shr	 eax, 31			; 0000001fH
  00131	f2 0f 58 04 c5
	00 00 00 00	 addsd	 xmm0, QWORD PTR __xmm@41f00000000000000000000000000000[eax*8]
  0013a	66 0f 5a c0	 cvtpd2ps xmm0, xmm0
  0013e	e8 00 00 00 00	 call	 ?__GetBackgroundHeight@CInstanceBase@@KAMMM@Z ; CInstanceBase::__GetBackgroundHeight
  00143	66 0f 6e 56 28	 movd	 xmm2, DWORD PTR [esi+40]

; 768  : 		NEW_SetPixelPosition(TPixelPosition(float(c_rkCreateData.m_lPosX), float(c_rkCreateData.m_lPosY), center_z));

  00148	8d 45 c8	 lea	 eax, DWORD PTR $T3[ebp]
  0014b	66 0f 6e 4e 2c	 movd	 xmm1, DWORD PTR [esi+44]
  00150	8b cf		 mov	 ecx, edi
  00152	0f 5b d2	 cvtdq2ps xmm2, xmm2
  00155	50		 push	 eax
  00156	0f 5b c9	 cvtdq2ps xmm1, xmm1
; File C:\Anka2Project\Anka2Project\Source\Binary\extern\include\d3dx8math.inl

; 180  :     x = fx;

  00159	f3 0f 11 55 c8	 movss	 DWORD PTR $T3[ebp], xmm2

; 181  :     y = fy;

  0015e	f3 0f 11 4d cc	 movss	 DWORD PTR $T3[ebp+4], xmm1

; 182  :     z = fz;

  00163	f3 0f 11 45 d0	 movss	 DWORD PTR $T3[ebp+8], xmm0
; File C:\Anka2Project\Anka2Project\Source\Binary\source\UserInterface\InstanceBase.cpp

; 768  : 		NEW_SetPixelPosition(TPixelPosition(float(c_rkCreateData.m_lPosX), float(c_rkCreateData.m_lPosY), center_z));

  00168	e8 00 00 00 00	 call	 ?NEW_SetPixelPosition@CInstanceBase@@QAEXABUD3DXVECTOR3@@@Z ; CInstanceBase::NEW_SetPixelPosition

; 769  : 	}

  0016d	eb 2e		 jmp	 SHORT $LN8@Create
$LN2@Create:

; 743  : 			return false;
; 744  : 	}
; 745  : 	else
; 746  : 	{
; 747  : 		if (!SetRace(c_rkCreateData.m_dwRace))

  0016f	ff 76 1c	 push	 DWORD PTR [esi+28]
  00172	e8 00 00 00 00	 call	 ?SetRace@CInstanceBase@@QAE_NK@Z ; CInstanceBase::SetRace
  00177	84 c0		 test	 al, al
  00179	0f 85 4d ff ff
	ff		 jne	 $LN5@Create
$LN133@Create:

; 748  : 			return false;

  0017f	32 c0		 xor	 al, al
  00181	e9 81 05 00 00	 jmp	 $LN1@Create
$LN7@Create:
  00186	66 0f 6e 56 2c	 movd	 xmm2, DWORD PTR [esi+44]

; 770  : 	else
; 771  : 	{
; 772  : 		SCRIPT_SetPixelPosition(float(c_rkCreateData.m_lPosX), float(c_rkCreateData.m_lPosY));

  0018b	8b cf		 mov	 ecx, edi
  0018d	66 0f 6e 4e 28	 movd	 xmm1, DWORD PTR [esi+40]
  00192	0f 5b d2	 cvtdq2ps xmm2, xmm2
  00195	0f 5b c9	 cvtdq2ps xmm1, xmm1
  00198	e8 00 00 00 00	 call	 ?SCRIPT_SetPixelPosition@CInstanceBase@@QAEXMM@Z ; CInstanceBase::SCRIPT_SetPixelPosition
$LN8@Create:

; 773  : 	}
; 774  : 
; 775  : #ifdef ENABLE_NPC_WEAR_ITEM
; 776  : 	if (npcRaceIndex != -1)

  0019d	83 7d b4 ff	 cmp	 DWORD PTR _npcRaceIndex$1$[ebp], -1
  001a1	0f 84 ab 00 00
	00		 je	 $LN9@Create
; File C:\Anka2Project\Anka2Project\Source\Binary\source\eterBase\Singleton.h

; 26   : 		assert(ms_singleton);

  001a7	a1 00 00 00 00	 mov	 eax, DWORD PTR ?ms_singleton@?$CSingleton@VCPythonNonPlayer@@@@0PAVCPythonNonPlayer@@A ; CSingleton<CPythonNonPlayer>::ms_singleton
  001ac	89 45 c0	 mov	 DWORD PTR _nonPlayer$1$[ebp], eax
  001af	85 c0		 test	 eax, eax
  001b1	75 1c		 jne	 SHORT $LN51@Create
  001b3	6a 1a		 push	 26			; 0000001aH
  001b5	68 00 00 00 00	 push	 OFFSET ??_C@_1IO@CAJLEEOI@?$AAC?$AA?3?$AA?2?$AAA?$AAn?$AAk?$AAa?$AA2?$AAP?$AAr?$AAo?$AAj?$AAe?$AAc?$AAt@
  001ba	68 00 00 00 00	 push	 OFFSET ??_C@_1BK@FMEHPMFE@?$AAm?$AAs?$AA_?$AAs?$AAi?$AAn?$AAg?$AAl?$AAe?$AAt?$AAo?$AAn@
  001bf	e8 00 00 00 00	 call	 __wassert
  001c4	a1 00 00 00 00	 mov	 eax, DWORD PTR ?ms_singleton@?$CSingleton@VCPythonNonPlayer@@@@0PAVCPythonNonPlayer@@A ; CSingleton<CPythonNonPlayer>::ms_singleton
  001c9	83 c4 0c	 add	 esp, 12			; 0000000cH
  001cc	89 45 c0	 mov	 DWORD PTR _nonPlayer$1$[ebp], eax
$LN51@Create:
; File C:\Anka2Project\Anka2Project\Source\Binary\source\UserInterface\InstanceBase.cpp

; 780  : 		const auto mount = nonPlayer.GetNPCWear(c_rkCreateData.m_dwRace, NPC_WEAR_MOUNT);

  001cf	6a 06		 push	 6
  001d1	ff 76 1c	 push	 DWORD PTR [esi+28]
  001d4	8b c8		 mov	 ecx, eax
  001d6	e8 00 00 00 00	 call	 ?GetNPCWear@CPythonNonPlayer@@QAEHHE@Z ; CPythonNonPlayer::GetNPCWear

; 781  : 		if (mount != 0)

  001db	85 c0		 test	 eax, eax
  001dd	74 08		 je	 SHORT $LN11@Create

; 782  : 			MountHorse(mount);

  001df	50		 push	 eax
  001e0	8b cf		 mov	 ecx, edi
  001e2	e8 00 00 00 00	 call	 ?MountHorse@CInstanceBase@@QAEXI@Z ; CInstanceBase::MountHorse
$LN11@Create:

; 783  : 
; 784  : 		SetArmor(nonPlayer.GetNPCWear(c_rkCreateData.m_dwRace, NPC_WEAR_ARMOR));

  001e7	8b 4d c0	 mov	 ecx, DWORD PTR _nonPlayer$1$[ebp]
  001ea	6a 02		 push	 2
  001ec	ff 76 1c	 push	 DWORD PTR [esi+28]
  001ef	e8 00 00 00 00	 call	 ?GetNPCWear@CPythonNonPlayer@@QAEHHE@Z ; CPythonNonPlayer::GetNPCWear
  001f4	50		 push	 eax
  001f5	8b cf		 mov	 ecx, edi
  001f7	e8 00 00 00 00	 call	 ?SetArmor@CInstanceBase@@QAEXK@Z ; CInstanceBase::SetArmor

; 785  : 		SetWeapon(nonPlayer.GetNPCWear(c_rkCreateData.m_dwRace, NPC_WEAR_WEAPON));

  001fc	8b 4d c0	 mov	 ecx, DWORD PTR _nonPlayer$1$[ebp]
  001ff	6a 01		 push	 1
  00201	ff 76 1c	 push	 DWORD PTR [esi+28]
  00204	e8 00 00 00 00	 call	 ?GetNPCWear@CPythonNonPlayer@@QAEHHE@Z ; CPythonNonPlayer::GetNPCWear
  00209	50		 push	 eax
  0020a	8b cf		 mov	 ecx, edi
  0020c	e8 00 00 00 00	 call	 ?SetWeapon@CInstanceBase@@QAE_NK@Z ; CInstanceBase::SetWeapon

; 786  : 		SetHair(nonPlayer.GetNPCWear(c_rkCreateData.m_dwRace, NPC_WEAR_HAIR));

  00211	8b 4d c0	 mov	 ecx, DWORD PTR _nonPlayer$1$[ebp]
  00214	6a 03		 push	 3
  00216	ff 76 1c	 push	 DWORD PTR [esi+28]
  00219	e8 00 00 00 00	 call	 ?GetNPCWear@CPythonNonPlayer@@QAEHHE@Z ; CPythonNonPlayer::GetNPCWear
  0021e	50		 push	 eax
  0021f	8b cf		 mov	 ecx, edi
  00221	e8 00 00 00 00	 call	 ?SetHair@CInstanceBase@@QAEXK@Z ; CInstanceBase::SetHair

; 787  : #ifdef ENABLE_ACCE_COSTUME_SYSTEM
; 788  : 		SetAcce(nonPlayer.GetNPCWear(c_rkCreateData.m_dwRace, NPC_WEAR_ACCE));

  00226	8b 4d c0	 mov	 ecx, DWORD PTR _nonPlayer$1$[ebp]
  00229	6a 04		 push	 4
  0022b	ff 76 1c	 push	 DWORD PTR [esi+28]
  0022e	e8 00 00 00 00	 call	 ?GetNPCWear@CPythonNonPlayer@@QAEHHE@Z ; CPythonNonPlayer::GetNPCWear
  00233	50		 push	 eax
  00234	8b cf		 mov	 ecx, edi
  00236	e8 00 00 00 00	 call	 ?SetAcce@CInstanceBase@@QAE_NK@Z ; CInstanceBase::SetAcce

; 789  : #endif
; 790  : #ifdef ENABLE_AURA_COSTUME_SYSTEM
; 791  : 		SetAura(nonPlayer.GetNPCWear(c_rkCreateData.m_dwRace, NPC_WEAR_AURA));

  0023b	8b 4d c0	 mov	 ecx, DWORD PTR _nonPlayer$1$[ebp]
  0023e	6a 05		 push	 5
  00240	ff 76 1c	 push	 DWORD PTR [esi+28]
  00243	e8 00 00 00 00	 call	 ?GetNPCWear@CPythonNonPlayer@@QAEHHE@Z ; CPythonNonPlayer::GetNPCWear
  00248	50		 push	 eax
  00249	8b cf		 mov	 ecx, edi
  0024b	e8 00 00 00 00	 call	 ?SetAura@CInstanceBase@@QAE_NK@Z ; CInstanceBase::SetAura

; 792  : #endif
; 793  : 	}

  00250	eb 19		 jmp	 SHORT $LN10@Create
$LN9@Create:

; 794  : 	else
; 795  : 	{
; 796  : 		if (0 != c_rkCreateData.m_dwMountVnum)

  00252	8b 46 48	 mov	 eax, DWORD PTR [esi+72]
  00255	85 c0		 test	 eax, eax
  00257	74 08		 je	 SHORT $LN12@Create

; 797  : 			MountHorse(c_rkCreateData.m_dwMountVnum);

  00259	50		 push	 eax
  0025a	8b cf		 mov	 ecx, edi
  0025c	e8 00 00 00 00	 call	 ?MountHorse@CInstanceBase@@QAEXI@Z ; CInstanceBase::MountHorse
$LN12@Create:

; 798  : 		SetArmor(c_rkCreateData.m_dwArmor);

  00261	ff 76 34	 push	 DWORD PTR [esi+52]
  00264	8b cf		 mov	 ecx, edi
  00266	e8 00 00 00 00	 call	 ?SetArmor@CInstanceBase@@QAEXK@Z ; CInstanceBase::SetArmor
$LN10@Create:

; 799  : 	}
; 800  : #else
; 801  : 	if (0 != c_rkCreateData.m_dwMountVnum)
; 802  : 		MountHorse(c_rkCreateData.m_dwMountVnum);
; 803  : 
; 804  : 	SetArmor(c_rkCreateData.m_dwArmor);
; 805  : #endif
; 806  : 
; 807  : 	if (IsPC())

  0026b	8b cf		 mov	 ecx, edi
  0026d	e8 00 00 00 00	 call	 ?IsPC@CInstanceBase@@QAEHXZ ; CInstanceBase::IsPC
  00272	85 c0		 test	 eax, eax
  00274	74 4f		 je	 SHORT $LN131@Create

; 808  : 	{
; 809  : 		SetHair(c_rkCreateData.m_dwHair);

  00276	ff 76 3c	 push	 DWORD PTR [esi+60]
  00279	8b cf		 mov	 ecx, edi
  0027b	e8 00 00 00 00	 call	 ?SetHair@CInstanceBase@@QAEXK@Z ; CInstanceBase::SetHair

; 810  : 		SetWeapon(c_rkCreateData.m_dwWeapon);

  00280	ff 76 38	 push	 DWORD PTR [esi+56]
  00283	8b cf		 mov	 ecx, edi
  00285	e8 00 00 00 00	 call	 ?SetWeapon@CInstanceBase@@QAE_NK@Z ; CInstanceBase::SetWeapon

; 811  : #ifdef ENABLE_ACCE_COSTUME_SYSTEM
; 812  : 		SetAcce(c_rkCreateData.m_dwAcce);

  0028a	ff 76 40	 push	 DWORD PTR [esi+64]
  0028d	8b cf		 mov	 ecx, edi
  0028f	e8 00 00 00 00	 call	 ?SetAcce@CInstanceBase@@QAE_NK@Z ; CInstanceBase::SetAcce

; 813  : #endif
; 814  : #ifdef ENABLE_AURA_COSTUME_SYSTEM
; 815  : 		SetAura(c_rkCreateData.m_dwAura);

  00294	ff 76 44	 push	 DWORD PTR [esi+68]
  00297	8b cf		 mov	 ecx, edi
  00299	e8 00 00 00 00	 call	 ?SetAura@CInstanceBase@@QAE_NK@Z ; CInstanceBase::SetAura

; 816  : #endif
; 817  : #ifdef ENABLE_MULTI_LANGUAGE_SYSTEM
; 818  : 		SetLanguage(c_rkCreateData.m_bLanguage);

  0029e	8a 46 4d	 mov	 al, BYTE PTR [esi+77]

; 820  : #endif
; 821  : #ifdef ENABLE_SKILL_COLOR_SYSTEM
; 822  : 		ChangeSkillColor(*c_rkCreateData.m_dwSkillColor);

  002a1	8b cf		 mov	 ecx, edi
; File C:\Anka2Project\Anka2Project\Source\Binary\source\UserInterface\InstanceBase.h

; 712  : 		void SetLanguage(BYTE bLang) { m_bLanguage = bLang; }

  002a3	88 47 61	 mov	 BYTE PTR [edi+97], al
; File C:\Anka2Project\Anka2Project\Source\Binary\source\UserInterface\InstanceBase.cpp

; 819  : 		SetLanguage2(c_rkCreateData.m_bLanguage2);

  002a6	8a 46 4e	 mov	 al, BYTE PTR [esi+78]

; 820  : #endif
; 821  : #ifdef ENABLE_SKILL_COLOR_SYSTEM
; 822  : 		ChangeSkillColor(*c_rkCreateData.m_dwSkillColor);

  002a9	83 c6 50	 add	 esi, 80			; 00000050H
  002ac	56		 push	 esi
  002ad	88 47 62	 mov	 BYTE PTR [edi+98], al
  002b0	e8 00 00 00 00	 call	 ?ChangeSkillColor@CInstanceBase@@QAEXPBK@Z ; CInstanceBase::ChangeSkillColor

; 823  : 		memcpy(m_dwSkillColor, *c_rkCreateData.m_dwSkillColor, sizeof(m_dwSkillColor));

  002b5	83 c7 64	 add	 edi, 100		; 00000064H
  002b8	b9 3c 00 00 00	 mov	 ecx, 60			; 0000003cH
  002bd	f3 a5		 rep movsd
  002bf	8b 7d bc	 mov	 edi, DWORD PTR _this$GSCopy$1$[ebp]
  002c2	8b 75 b8	 mov	 esi, DWORD PTR _c_rkCreateData$GSCopy$1$[ebp]
$LN131@Create:

; 824  : #endif
; 825  : 	}
; 826  : 
; 827  : 	__Create_SetName(c_rkCreateData);

  002c5	56		 push	 esi
  002c6	8b cf		 mov	 ecx, edi
  002c8	e8 00 00 00 00	 call	 ?__Create_SetName@CInstanceBase@@IAEXABUSCreateData@1@@Z ; CInstanceBase::__Create_SetName

; 828  : 
; 829  : 	m_dwLevel = c_rkCreateData.m_dwLevel;

  002cd	8b 46 10	 mov	 eax, DWORD PTR [esi+16]

; 830  : #ifdef ENABLE_SHOW_MOB_INFO
; 831  : 	m_dwAIFlag = c_rkCreateData.m_dwAIFlag;
; 832  : #endif
; 833  : 	m_dwGuildID = c_rkCreateData.m_dwGuildID;
; 834  : 	m_dwEmpireID = c_rkCreateData.m_dwEmpireID;
; 835  : #ifdef ENABLE_GUILD_LEADER_TEXTAIL
; 836  : 	m_dwGuildLeader = c_rkCreateData.m_dwGuildLeader;
; 837  : #endif
; 838  : 	SetVirtualNumber(c_rkCreateData.m_dwRace);

  002d0	8b cf		 mov	 ecx, edi
  002d2	89 47 48	 mov	 DWORD PTR [edi+72], eax
  002d5	8b 46 14	 mov	 eax, DWORD PTR [esi+20]
  002d8	89 47 4c	 mov	 DWORD PTR [edi+76], eax
  002db	8b 46 0c	 mov	 eax, DWORD PTR [esi+12]
  002de	89 47 54	 mov	 DWORD PTR [edi+84], eax
  002e1	8b 46 08	 mov	 eax, DWORD PTR [esi+8]
  002e4	89 47 50	 mov	 DWORD PTR [edi+80], eax
  002e7	8a 46 4c	 mov	 al, BYTE PTR [esi+76]
  002ea	88 47 60	 mov	 BYTE PTR [edi+96], al
  002ed	ff 76 1c	 push	 DWORD PTR [esi+28]
  002f0	e8 00 00 00 00	 call	 ?SetVirtualNumber@CInstanceBase@@QAEXK@Z ; CInstanceBase::SetVirtualNumber

; 839  : 	SetRotation(c_rkCreateData.m_fRot);

  002f5	f3 0f 10 46 30	 movss	 xmm0, DWORD PTR [esi+48]
  002fa	51		 push	 ecx
  002fb	f3 0f 11 04 24	 movss	 DWORD PTR [esp], xmm0
  00300	e8 00 00 00 00	 call	 ?SetRotation@CInstanceBase@@QAEXM@Z ; CInstanceBase::SetRotation

; 840  : 
; 841  : 	SetAlignment(c_rkCreateData.m_sAlignment);

  00305	0f b7 86 40 01
	00 00		 movzx	 eax, WORD PTR [esi+320]
  0030c	8b cf		 mov	 ecx, edi
  0030e	50		 push	 eax
  0030f	e8 00 00 00 00	 call	 ?SetAlignment@CInstanceBase@@QAEXF@Z ; CInstanceBase::SetAlignment

; 842  : #ifdef ENABLE_TITLE_SYSTEM
; 843  : 	SetTitleSystem(c_rkCreateData.m_iTitleID);

  00314	ff b6 64 01 00
	00		 push	 DWORD PTR [esi+356]
  0031a	8b cf		 mov	 ecx, edi
  0031c	e8 00 00 00 00	 call	 ?SetTitleSystem@CInstanceBase@@QAEXH@Z ; CInstanceBase::SetTitleSystem

; 844  : #endif
; 845  : 	SetPKMode(c_rkCreateData.m_byPKMode);

  00321	0f b6 86 42 01
	00 00		 movzx	 eax, BYTE PTR [esi+322]
  00328	8b cf		 mov	 ecx, edi
  0032a	50		 push	 eax
  0032b	e8 00 00 00 00	 call	 ?SetPKMode@CInstanceBase@@QAEXE@Z ; CInstanceBase::SetPKMode

; 846  : 
; 847  : 	SetMoveSpeed(c_rkCreateData.m_dwMovSpd);

  00330	ff 76 20	 push	 DWORD PTR [esi+32]
  00333	8b cf		 mov	 ecx, edi
  00335	e8 00 00 00 00	 call	 ?SetMoveSpeed@CInstanceBase@@QAEXI@Z ; CInstanceBase::SetMoveSpeed

; 848  : 	SetAttackSpeed(c_rkCreateData.m_dwAtkSpd);

  0033a	ff 76 24	 push	 DWORD PTR [esi+36]
  0033d	8b cf		 mov	 ecx, edi
  0033f	e8 00 00 00 00	 call	 ?SetAttackSpeed@CInstanceBase@@QAEXI@Z ; CInstanceBase::SetAttackSpeed

; 849  : 
; 850  : #ifdef ENABLE_GROWTH_PET_SYSTEM
; 851  : 	m_bCharacterSize = c_rkCreateData.m_bCharacterSize;

  00344	8a 86 68 01 00
	00		 mov	 al, BYTE PTR [esi+360]

; 852  : 	if (IsGrowthPet())

  0034a	8b cf		 mov	 ecx, edi
  0034c	88 87 54 01 00
	00		 mov	 BYTE PTR [edi+340], al
  00352	e8 00 00 00 00	 call	 ?IsGrowthPet@CInstanceBase@@QAEHXZ ; CInstanceBase::IsGrowthPet
  00357	85 c0		 test	 eax, eax
  00359	74 0a		 je	 SHORT $LN14@Create

; 853  : 		SetPetLevel(c_rkCreateData.m_dwLevel);

  0035b	ff 76 10	 push	 DWORD PTR [esi+16]
  0035e	8b cf		 mov	 ecx, edi
  00360	e8 00 00 00 00	 call	 ?SetPetLevel@CInstanceBase@@QAEXK@Z ; CInstanceBase::SetPetLevel
$LN14@Create:
; File C:\Anka2Project\Anka2Project\Source\Binary\source\eterBase\Singleton.h

; 26   : 		assert(ms_singleton);

  00365	8b 0d 00 00 00
	00		 mov	 ecx, DWORD PTR ?ms_singleton@?$CSingleton@VCPythonNonPlayer@@@@0PAVCPythonNonPlayer@@A ; CSingleton<CPythonNonPlayer>::ms_singleton
; File C:\Anka2Project\Anka2Project\Source\Binary\source\UserInterface\InstanceBase.cpp

; 857  : 	float fx, fy, fz = 1.0f;

  0036b	c7 45 c0 00 00
	80 3f		 mov	 DWORD PTR _fz$[ebp], 1065353216 ; 3f800000H
; File C:\Anka2Project\Anka2Project\Source\Binary\source\eterBase\Singleton.h

; 26   : 		assert(ms_singleton);

  00372	85 c9		 test	 ecx, ecx
  00374	75 1a		 jne	 SHORT $LN40@Create
  00376	6a 1a		 push	 26			; 0000001aH
  00378	68 00 00 00 00	 push	 OFFSET ??_C@_1IO@CAJLEEOI@?$AAC?$AA?3?$AA?2?$AAA?$AAn?$AAk?$AAa?$AA2?$AAP?$AAr?$AAo?$AAj?$AAe?$AAc?$AAt@
  0037d	68 00 00 00 00	 push	 OFFSET ??_C@_1BK@FMEHPMFE@?$AAm?$AAs?$AA_?$AAs?$AAi?$AAn?$AAg?$AAl?$AAe?$AAt?$AAo?$AAn@
  00382	e8 00 00 00 00	 call	 __wassert
  00387	8b 0d 00 00 00
	00		 mov	 ecx, DWORD PTR ?ms_singleton@?$CSingleton@VCPythonNonPlayer@@@@0PAVCPythonNonPlayer@@A ; CSingleton<CPythonNonPlayer>::ms_singleton
  0038d	83 c4 0c	 add	 esp, 12			; 0000000cH
$LN40@Create:
; File C:\Anka2Project\Anka2Project\Source\Binary\source\UserInterface\InstanceBase.cpp

; 864  : 		&& !c_rkCreateData.m_dwAura

  00390	8d 45 c0	 lea	 eax, DWORD PTR _fz$[ebp]
  00393	50		 push	 eax
  00394	8d 45 bc	 lea	 eax, DWORD PTR _fy$[ebp]
  00397	50		 push	 eax
  00398	8d 45 b4	 lea	 eax, DWORD PTR _fx$[ebp]
  0039b	50		 push	 eax
  0039c	ff 76 1c	 push	 DWORD PTR [esi+28]
  0039f	e8 00 00 00 00	 call	 ?GetScale@CPythonNonPlayer@@QAE_NKAAM00@Z ; CPythonNonPlayer::GetScale
  003a4	84 c0		 test	 al, al
  003a6	74 3c		 je	 SHORT $LN15@Create
  003a8	83 7e 40 00	 cmp	 DWORD PTR [esi+64], 0
  003ac	75 36		 jne	 SHORT $LN15@Create
  003ae	83 7e 44 00	 cmp	 DWORD PTR [esi+68], 0
  003b2	75 30		 jne	 SHORT $LN15@Create

; 865  : #endif
; 866  : 	)
; 867  : 		m_GraphicThingInstance.SetScale(fx, fy, fz, true);

  003b4	f3 0f 10 45 c0	 movss	 xmm0, DWORD PTR _fz$[ebp]
  003b9	8d 8f f4 02 00
	00		 lea	 ecx, DWORD PTR [edi+756]
  003bf	6a 01		 push	 1
  003c1	83 ec 0c	 sub	 esp, 12			; 0000000cH
  003c4	f3 0f 11 44 24
	08		 movss	 DWORD PTR [esp+8], xmm0
  003ca	f3 0f 10 45 bc	 movss	 xmm0, DWORD PTR _fy$[ebp]
  003cf	f3 0f 11 44 24
	04		 movss	 DWORD PTR [esp+4], xmm0
  003d5	f3 0f 10 45 b4	 movss	 xmm0, DWORD PTR _fx$[ebp]
  003da	f3 0f 11 04 24	 movss	 DWORD PTR [esp], xmm0
  003df	e8 00 00 00 00	 call	 ?SetScale@CGraphicObjectInstance@@QAEXMMM_N@Z ; CGraphicObjectInstance::SetScale
$LN15@Create:

; 868  : #endif
; 869  : 
; 870  : 	if (!IsWearingDress())

  003e4	8b cf		 mov	 ecx, edi
  003e6	e8 00 00 00 00	 call	 ?IsWearingDress@CInstanceBase@@QAEHXZ ; CInstanceBase::IsWearingDress
  003eb	85 c0		 test	 eax, eax
  003ed	75 2f		 jne	 SHORT $LN16@Create

; 871  : 	{
; 872  : 		m_GraphicThingInstance.SetAlphaValue(0.0f);

  003ef	51		 push	 ecx
  003f0	8d 8f f4 02 00
	00		 lea	 ecx, DWORD PTR [edi+756]
  003f6	89 04 24	 mov	 DWORD PTR [esp], eax
  003f9	e8 00 00 00 00	 call	 ?SetAlphaValue@CActorInstance@@QAEXM@Z ; CActorInstance::SetAlphaValue

; 873  : 		m_GraphicThingInstance.BlendAlphaValue(1.0f, 0.5f);

  003fe	83 ec 08	 sub	 esp, 8
  00401	8d 8f f4 02 00
	00		 lea	 ecx, DWORD PTR [edi+756]
  00407	c7 44 24 04 00
	00 00 3f	 mov	 DWORD PTR [esp+4], 1056964608 ; 3f000000H
  0040f	c7 04 24 00 00
	80 3f		 mov	 DWORD PTR [esp], 1065353216 ; 3f800000H
  00416	e8 00 00 00 00	 call	 ?BlendAlphaValue@CActorInstance@@QAEXMM@Z ; CActorInstance::BlendAlphaValue
  0041b	8b 75 b8	 mov	 esi, DWORD PTR _c_rkCreateData$GSCopy$1$[ebp]
$LN16@Create:

; 874  : 	}
; 875  : 
; 876  : 	if (!IsGuildWall())

  0041e	8b cf		 mov	 ecx, edi
  00420	e8 00 00 00 00	 call	 ?IsGuildWall@CInstanceBase@@QAEHXZ ; CInstanceBase::IsGuildWall
  00425	85 c0		 test	 eax, eax
  00427	75 0e		 jne	 SHORT $LN17@Create

; 877  : 	{
; 878  : 		SetAffectFlagContainer(c_rkCreateData.m_kAffectFlags);

  00429	8d 86 43 01 00
	00		 lea	 eax, DWORD PTR [esi+323]
  0042f	8b cf		 mov	 ecx, edi
  00431	50		 push	 eax
  00432	e8 00 00 00 00	 call	 ?SetAffectFlagContainer@CInstanceBase@@QAEXABVCAffectFlagContainer@@@Z ; CInstanceBase::SetAffectFlagContainer
$LN17@Create:

; 879  : 	}
; 880  : 
; 881  : 	if (c_rkCreateData.m_dwStateFlags & ADD_CHARACTER_STATE_SPAWN) 

  00437	f6 46 04 02	 test	 BYTE PTR [esi+4], 2
  0043b	74 3d		 je	 SHORT $LN18@Create

; 882  : 	{
; 883  : 		if (IsAffect(AFFECT_SPAWN))

  0043d	6a 02		 push	 2
  0043f	8b cf		 mov	 ecx, edi
  00441	e8 00 00 00 00	 call	 ?IsAffect@CInstanceBase@@QAE_NI@Z ; CInstanceBase::IsAffect
  00446	84 c0		 test	 al, al
  00448	74 11		 je	 SHORT $LN20@Create

; 884  : 			__AttachEffect(EFFECT_SPAWN_APPEAR);

  0044a	f3 0f 10 15 00
	00 00 00	 movss	 xmm2, DWORD PTR __real@3f800000
  00452	8b cf		 mov	 ecx, edi
  00454	6a 09		 push	 9
  00456	e8 00 00 00 00	 call	 ?__AttachEffect@CInstanceBase@@IAEKIM@Z ; CInstanceBase::__AttachEffect
$LN20@Create:

; 885  : 
; 886  : 		if (IsPC())

  0045b	8b cf		 mov	 ecx, edi
  0045d	e8 00 00 00 00	 call	 ?IsPC@CInstanceBase@@QAEHXZ ; CInstanceBase::IsPC

; 887  : 		{
; 888  : 			Refresh(CRaceMotionData::NAME_WAIT, true);
; 889  : 		}
; 890  : 		else
; 891  : 		{
; 892  : 			Refresh(CRaceMotionData::NAME_SPAWN, false);
; 893  : 		}
; 894  : 	}

  00462	85 c0		 test	 eax, eax
  00464	c7 45 bc 19 00
	00 00		 mov	 DWORD PTR tv857[ebp], 25 ; 00000019H
  0046b	b9 01 00 00 00	 mov	 ecx, 1
  00470	0f 44 4d bc	 cmove	 ecx, DWORD PTR tv857[ebp]
  00474	0f 95 45 b8	 setne	 BYTE PTR $T24[ebp]
  00478	eb 08		 jmp	 SHORT $LN138@Create
$LN18@Create:

; 895  : 	else
; 896  : 	{
; 897  : 		Refresh(CRaceMotionData::NAME_WAIT, true);

  0047a	b9 01 00 00 00	 mov	 ecx, 1
  0047f	88 4d b8	 mov	 BYTE PTR $T24[ebp], cl
$LN138@Create:

; 898  : 	}
; 899  : 
; 900  : 	__AttachEmpireEffect(c_rkCreateData.m_dwEmpireID);

  00482	ff 75 b8	 push	 DWORD PTR $T24[ebp]
  00485	8b d7		 mov	 edx, edi
  00487	51		 push	 ecx
  00488	8b ca		 mov	 ecx, edx
  0048a	e8 00 00 00 00	 call	 ?Refresh@CInstanceBase@@QAEXK_N@Z ; CInstanceBase::Refresh
  0048f	ff 76 08	 push	 DWORD PTR [esi+8]
  00492	8b cf		 mov	 ecx, edi
  00494	e8 00 00 00 00	 call	 ?__AttachEmpireEffect@CInstanceBase@@IAEXK@Z ; CInstanceBase::__AttachEmpireEffect

; 901  : 
; 902  : 	RegisterBoundingSphere();

  00499	8b cf		 mov	 ecx, edi
  0049b	e8 00 00 00 00	 call	 ?RegisterBoundingSphere@CInstanceBase@@QAEXXZ ; CInstanceBase::RegisterBoundingSphere

; 903  : 
; 904  : 	AttachTextTail();

  004a0	8b cf		 mov	 ecx, edi
  004a2	e8 00 00 00 00	 call	 ?AttachTextTail@CInstanceBase@@QAEXXZ ; CInstanceBase::AttachTextTail

; 905  : 	RefreshTextTail();

  004a7	8b cf		 mov	 ecx, edi
  004a9	e8 00 00 00 00	 call	 ?RefreshTextTail@CInstanceBase@@QAEXXZ ; CInstanceBase::RefreshTextTail

; 906  : 
; 907  : #ifdef ENABLE_STONE_SCALE_OPTION
; 908  : 	RefreshStoneScale();

  004ae	8b cf		 mov	 ecx, edi
  004b0	e8 00 00 00 00	 call	 ?RefreshStoneScale@CInstanceBase@@QAEXXZ ; CInstanceBase::RefreshStoneScale
; File C:\Anka2Project\Anka2Project\Source\Binary\source\eterBase\Singleton.h

; 26   : 		assert(ms_singleton);

  004b5	8b 0d 00 00 00
	00		 mov	 ecx, DWORD PTR ?ms_singleton@?$CSingleton@VCPythonNonPlayer@@@@0PAVCPythonNonPlayer@@A ; CSingleton<CPythonNonPlayer>::ms_singleton
  004bb	85 c9		 test	 ecx, ecx
  004bd	75 1a		 jne	 SHORT $LN43@Create
  004bf	6a 1a		 push	 26			; 0000001aH
  004c1	68 00 00 00 00	 push	 OFFSET ??_C@_1IO@CAJLEEOI@?$AAC?$AA?3?$AA?2?$AAA?$AAn?$AAk?$AAa?$AA2?$AAP?$AAr?$AAo?$AAj?$AAe?$AAc?$AAt@
  004c6	68 00 00 00 00	 push	 OFFSET ??_C@_1BK@FMEHPMFE@?$AAm?$AAs?$AA_?$AAs?$AAi?$AAn?$AAg?$AAl?$AAe?$AAt?$AAo?$AAn@
  004cb	e8 00 00 00 00	 call	 __wassert
  004d0	8b 0d 00 00 00
	00		 mov	 ecx, DWORD PTR ?ms_singleton@?$CSingleton@VCPythonNonPlayer@@@@0PAVCPythonNonPlayer@@A ; CSingleton<CPythonNonPlayer>::ms_singleton
  004d6	83 c4 0c	 add	 esp, 12			; 0000000cH
$LN43@Create:
; File C:\Anka2Project\Anka2Project\Source\Binary\source\UserInterface\InstanceBase.cpp

; 912  : 	DWORD dwRank = CPythonNonPlayer::Instance().GetMonsterRank(c_rkCreateData.m_dwRace);

  004d9	ff 76 1c	 push	 DWORD PTR [esi+28]
  004dc	e8 00 00 00 00	 call	 ?GetMonsterRank@CPythonNonPlayer@@QAEKK@Z ; CPythonNonPlayer::GetMonsterRank
  004e1	89 45 bc	 mov	 DWORD PTR _dwRank$1$[ebp], eax
; File C:\Anka2Project\Anka2Project\Source\Binary\source\eterBase\Singleton.h

; 26   : 		assert(ms_singleton);

  004e4	a1 00 00 00 00	 mov	 eax, DWORD PTR ?ms_singleton@?$CSingleton@VCPythonNonPlayer@@@@0PAVCPythonNonPlayer@@A ; CSingleton<CPythonNonPlayer>::ms_singleton
  004e9	85 c0		 test	 eax, eax
  004eb	75 19		 jne	 SHORT $LN46@Create
  004ed	6a 1a		 push	 26			; 0000001aH
  004ef	68 00 00 00 00	 push	 OFFSET ??_C@_1IO@CAJLEEOI@?$AAC?$AA?3?$AA?2?$AAA?$AAn?$AAk?$AAa?$AA2?$AAP?$AAr?$AAo?$AAj?$AAe?$AAc?$AAt@
  004f4	68 00 00 00 00	 push	 OFFSET ??_C@_1BK@FMEHPMFE@?$AAm?$AAs?$AA_?$AAs?$AAi?$AAn?$AAg?$AAl?$AAe?$AAt?$AAo?$AAn@
  004f9	e8 00 00 00 00	 call	 __wassert
  004fe	a1 00 00 00 00	 mov	 eax, DWORD PTR ?ms_singleton@?$CSingleton@VCPythonNonPlayer@@@@0PAVCPythonNonPlayer@@A ; CSingleton<CPythonNonPlayer>::ms_singleton
  00503	83 c4 0c	 add	 esp, 12			; 0000000cH
$LN46@Create:
; File C:\Anka2Project\Anka2Project\Source\Binary\source\UserInterface\InstanceBase.cpp

; 913  : 	DWORD dwType = CPythonNonPlayer::Instance().GetMonsterType(c_rkCreateData.m_dwRace);

  00506	ff 76 1c	 push	 DWORD PTR [esi+28]
  00509	8b c8		 mov	 ecx, eax
  0050b	e8 00 00 00 00	 call	 ?GetMonsterType@CPythonNonPlayer@@QAEKK@Z ; CPythonNonPlayer::GetMonsterType

; 914  : 
; 915  : 	if (dwRank >= 4 && dwType == 0)

  00510	83 7d bc 04	 cmp	 DWORD PTR _dwRank$1$[ebp], 4
  00514	72 0b		 jb	 SHORT $LN23@Create
  00516	85 c0		 test	 eax, eax
  00518	75 07		 jne	 SHORT $LN23@Create

; 916  : 		__AttachBossEffect();

  0051a	8b cf		 mov	 ecx, edi
  0051c	e8 00 00 00 00	 call	 ?__AttachBossEffect@CInstanceBase@@IAEXXZ ; CInstanceBase::__AttachBossEffect
$LN23@Create:

; 917  : #endif
; 918  : 
; 919  : 	if (c_rkCreateData.m_dwStateFlags & ADD_CHARACTER_STATE_DEAD)

  00521	f6 46 04 01	 test	 BYTE PTR [esi+4], 1
  00525	74 0b		 je	 SHORT $LN132@Create

; 920  : 		m_GraphicThingInstance.DieEnd();

  00527	8d 8f f4 02 00
	00		 lea	 ecx, DWORD PTR [edi+756]
  0052d	e8 00 00 00 00	 call	 ?DieEnd@CActorInstance@@QAEXXZ ; CActorInstance::DieEnd
$LN132@Create:

; 921  : 
; 922  : 	SetStateFlags(c_rkCreateData.m_dwStateFlags);

  00532	ff 76 04	 push	 DWORD PTR [esi+4]
  00535	8b cf		 mov	 ecx, edi
  00537	e8 00 00 00 00	 call	 ?SetStateFlags@CInstanceBase@@QAEXK@Z ; CInstanceBase::SetStateFlags

; 923  : 
; 924  : 	m_GraphicThingInstance.SetBattleHitEffect(ms_adwCRCAffectEffect[EFFECT_HIT]);

  0053c	ff 35 08 00 00
	00		 push	 DWORD PTR ?ms_adwCRCAffectEffect@CInstanceBase@@1PAKA+8
  00542	8d 8f f4 02 00
	00		 lea	 ecx, DWORD PTR [edi+756]
  00548	e8 00 00 00 00	 call	 ?SetBattleHitEffect@CActorInstance@@QAEXK@Z ; CActorInstance::SetBattleHitEffect

; 925  : 
; 926  : 	if (!IsPC())

  0054d	8b cf		 mov	 ecx, edi
  0054f	e8 00 00 00 00	 call	 ?IsPC@CInstanceBase@@QAEHXZ ; CInstanceBase::IsPC
  00554	85 c0		 test	 eax, eax
  00556	0f 85 a6 00 00
	00		 jne	 $LN26@Create
; File C:\Anka2Project\Anka2Project\Source\Binary\source\eterBase\Singleton.h

; 26   : 		assert(ms_singleton);

  0055c	8b 0d 00 00 00
	00		 mov	 ecx, DWORD PTR ?ms_singleton@?$CSingleton@VCPythonNonPlayer@@@@0PAVCPythonNonPlayer@@A ; CSingleton<CPythonNonPlayer>::ms_singleton
  00562	85 c9		 test	 ecx, ecx
  00564	75 1a		 jne	 SHORT $LN56@Create
  00566	6a 1a		 push	 26			; 0000001aH
  00568	68 00 00 00 00	 push	 OFFSET ??_C@_1IO@CAJLEEOI@?$AAC?$AA?3?$AA?2?$AAA?$AAn?$AAk?$AAa?$AA2?$AAP?$AAr?$AAo?$AAj?$AAe?$AAc?$AAt@
  0056d	68 00 00 00 00	 push	 OFFSET ??_C@_1BK@FMEHPMFE@?$AAm?$AAs?$AA_?$AAs?$AAi?$AAn?$AAg?$AAl?$AAe?$AAt?$AAo?$AAn@
  00572	e8 00 00 00 00	 call	 __wassert
  00577	8b 0d 00 00 00
	00		 mov	 ecx, DWORD PTR ?ms_singleton@?$CSingleton@VCPythonNonPlayer@@@@0PAVCPythonNonPlayer@@A ; CSingleton<CPythonNonPlayer>::ms_singleton
  0057d	83 c4 0c	 add	 esp, 12			; 0000000cH
$LN56@Create:
; File C:\Anka2Project\Anka2Project\Source\Binary\source\UserInterface\InstanceBase.cpp

; 928  : 		DWORD dwBodyColor = CPythonNonPlayer::Instance().GetMonsterColor(c_rkCreateData.m_dwRace);

  00580	ff 76 1c	 push	 DWORD PTR [esi+28]
  00583	e8 00 00 00 00	 call	 ?GetMonsterColor@CPythonNonPlayer@@QAEKK@Z ; CPythonNonPlayer::GetMonsterColor
  00588	89 45 bc	 mov	 DWORD PTR _dwBodyColor$1$[ebp], eax

; 929  : 		if (0 != dwBodyColor)

  0058b	85 c0		 test	 eax, eax
  0058d	74 73		 je	 SHORT $LN26@Create

; 930  : 		{
; 931  : 			SetModulateRenderMode();

  0058f	8b cf		 mov	 ecx, edi
  00591	e8 00 00 00 00	 call	 ?SetModulateRenderMode@CInstanceBase@@QAEXXZ ; CInstanceBase::SetModulateRenderMode
; File C:\Anka2Project\Anka2Project\Source\Binary\extern\include\d3dx8math.inl

; 888  :     r = f * (FLOAT) (unsigned char) (dw >> 16);

  00596	8b 55 bc	 mov	 edx, DWORD PTR _dwBodyColor$1$[ebp]
  00599	8b ca		 mov	 ecx, edx
  0059b	f3 0f 10 0d 00
	00 00 00	 movss	 xmm1, DWORD PTR __real@3b808081

; 889  :     g = f * (FLOAT) (unsigned char) (dw >>  8);

  005a3	8b c2		 mov	 eax, edx
