; Listing generated by Microsoft (R) Optimizing Compiler Version 19.44.35219.0 

	TITLE	c:\anka2project\anka2project\source\binary\vs_files\userinterface\release\instancebasemovement.obj
	.686P
	.XMM
	include listing.inc
	.model	flat

INCLUDELIB OLDNAMES

PUBLIC	??_C@_0CJ@ECOCCIHP@Failed?5to?5move?5next?5position?5?$CI?$CF@ ; `string'
PUBLIC	??_C@_0BK@EOHFDFCK@CInstanceBase?3?3EndWalking@	; `string'
PUBLIC	??_C@_1LC@CGMIEMGB@?$AAC?$AA?3?$AA?2?$AAA?$AAn?$AAk?$AAa?$AA2?$AAP?$AAr?$AAo?$AAj?$AAe?$AAc?$AAt@ ; `string'
PUBLIC	??_C@_1FI@CGCKFHIC@?$AA?$CB?$AAI?$AAs?$AAW?$AAa?$AAi?$AAt?$AAi?$AAn?$AAg?$AA?$CI?$AA?$CJ?$AA?5?$AA?$CG?$AA?$CG@ ; `string'
EXTRN	?SetWalkMode@CActorInstance@@QAEXXZ:PROC	; CActorInstance::SetWalkMode
EXTRN	?SetRunMode@CActorInstance@@QAEXXZ:PROC		; CActorInstance::SetRunMode
EXTRN	?IsMoving@CActorInstance@@QAEHXZ:PROC		; CActorInstance::IsMoving
EXTRN	?IsWaiting@CActorInstance@@QAEHXZ:PROC		; CActorInstance::IsWaiting
EXTRN	?Move@CActorInstance@@QAEXXZ:PROC		; CActorInstance::Move
EXTRN	?GetDegreeDifference@@YAMMM@Z:PROC		; GetDegreeDifference
EXTRN	?TEMP_Push@CActorInstance@@QAEXHH@Z:PROC	; CActorInstance::TEMP_Push
EXTRN	?__OnStop@CActorInstance@@QAEXXZ:PROC		; CActorInstance::__OnStop
;	COMDAT ??_C@_1FI@CGCKFHIC@?$AA?$CB?$AAI?$AAs?$AAW?$AAa?$AAi?$AAt?$AAi?$AAn?$AAg?$AA?$CI?$AA?$CJ?$AA?5?$AA?$CG?$AA?$CG@
CONST	SEGMENT
??_C@_1FI@CGCKFHIC@?$AA?$CB?$AAI?$AAs?$AAW?$AAa?$AAi?$AAt?$AAi?$AAn?$AAg?$AA?$CI?$AA?$CJ?$AA?5?$AA?$CG?$AA?$CG@ DB '!'
	DB	00H, 'I', 00H, 's', 00H, 'W', 00H, 'a', 00H, 'i', 00H, 't', 00H
	DB	'i', 00H, 'n', 00H, 'g', 00H, '(', 00H, ')', 00H, ' ', 00H, '&'
	DB	00H, '&', 00H, ' ', 00H, '"', 00H, 'C', 00H, 'I', 00H, 'n', 00H
	DB	's', 00H, 't', 00H, 'a', 00H, 'n', 00H, 'c', 00H, 'e', 00H, 'B'
	DB	00H, 'a', 00H, 's', 00H, 'e', 00H, ':', 00H, ':', 00H, 'E', 00H
	DB	'n', 00H, 'd', 00H, 'W', 00H, 'a', 00H, 'l', 00H, 'k', 00H, 'i'
	DB	00H, 'n', 00H, 'g', 00H, '"', 00H, 00H, 00H	; `string'
CONST	ENDS
;	COMDAT ??_C@_1LC@CGMIEMGB@?$AAC?$AA?3?$AA?2?$AAA?$AAn?$AAk?$AAa?$AA2?$AAP?$AAr?$AAo?$AAj?$AAe?$AAc?$AAt@
CONST	SEGMENT
??_C@_1LC@CGMIEMGB@?$AAC?$AA?3?$AA?2?$AAA?$AAn?$AAk?$AAa?$AA2?$AAP?$AAr?$AAo?$AAj?$AAe?$AAc?$AAt@ DB 'C'
	DB	00H, ':', 00H, '\', 00H, 'A', 00H, 'n', 00H, 'k', 00H, 'a', 00H
	DB	'2', 00H, 'P', 00H, 'r', 00H, 'o', 00H, 'j', 00H, 'e', 00H, 'c'
	DB	00H, 't', 00H, '\', 00H, 'A', 00H, 'n', 00H, 'k', 00H, 'a', 00H
	DB	'2', 00H, 'P', 00H, 'r', 00H, 'o', 00H, 'j', 00H, 'e', 00H, 'c'
	DB	00H, 't', 00H, '\', 00H, 'S', 00H, 'o', 00H, 'u', 00H, 'r', 00H
	DB	'c', 00H, 'e', 00H, '\', 00H, 'B', 00H, 'i', 00H, 'n', 00H, 'a'
	DB	00H, 'r', 00H, 'y', 00H, '\', 00H, 's', 00H, 'o', 00H, 'u', 00H
	DB	'r', 00H, 'c', 00H, 'e', 00H, '\', 00H, 'U', 00H, 's', 00H, 'e'
	DB	00H, 'r', 00H, 'I', 00H, 'n', 00H, 't', 00H, 'e', 00H, 'r', 00H
	DB	'f', 00H, 'a', 00H, 'c', 00H, 'e', 00H, '\', 00H, 'I', 00H, 'n'
	DB	00H, 's', 00H, 't', 00H, 'a', 00H, 'n', 00H, 'c', 00H, 'e', 00H
	DB	'B', 00H, 'a', 00H, 's', 00H, 'e', 00H, 'M', 00H, 'o', 00H, 'v'
	DB	00H, 'e', 00H, 'm', 00H, 'e', 00H, 'n', 00H, 't', 00H, '.', 00H
	DB	'c', 00H, 'p', 00H, 'p', 00H, 00H, 00H	; `string'
CONST	ENDS
;	COMDAT ??_C@_0BK@EOHFDFCK@CInstanceBase?3?3EndWalking@
CONST	SEGMENT
??_C@_0BK@EOHFDFCK@CInstanceBase?3?3EndWalking@ DB 'CInstanceBase::EndWal'
	DB	'king', 00H					; `string'
CONST	ENDS
;	COMDAT ??_C@_0CJ@ECOCCIHP@Failed?5to?5move?5next?5position?5?$CI?$CF@
CONST	SEGMENT
??_C@_0CJ@ECOCCIHP@Failed?5to?5move?5next?5position?5?$CI?$CF@ DB 'Failed'
	DB	' to move next position (%f,%f, %f)', 00H	; `string'
PUBLIC	?floor@@YAMM@Z					; floor
PUBLIC	?D3DXVec3Scale@@YAPAUD3DXVECTOR3@@PAU1@PBU1@M@Z	; D3DXVec3Scale
PUBLIC	?D3DXVec3Add@@YAPAUD3DXVECTOR3@@PAU1@PBU1@1@Z	; D3DXVec3Add
PUBLIC	?SetWalkMode@CInstanceBase@@QAEXXZ		; CInstanceBase::SetWalkMode
PUBLIC	?SetRunMode@CInstanceBase@@QAEXXZ		; CInstanceBase::SetRunMode
PUBLIC	?NEW_MoveToDirection@CInstanceBase@@QAEXM@Z	; CInstanceBase::NEW_MoveToDirection
PUBLIC	?NEW_Goto@CInstanceBase@@QAE_NABUD3DXVECTOR3@@M@Z ; CInstanceBase::NEW_Goto
PUBLIC	?NEW_MoveToDestInstanceDirection@CInstanceBase@@QAEXAAV1@@Z ; CInstanceBase::NEW_MoveToDestInstanceDirection
PUBLIC	?IsActingEmotion@CInstanceBase@@QAEHXZ		; CInstanceBase::IsActingEmotion
PUBLIC	?IsAttacked@CInstanceBase@@QAEHXZ		; CInstanceBase::IsAttacked
PUBLIC	?IsPushing@CInstanceBase@@QAEHXZ		; CInstanceBase::IsPushing
PUBLIC	?NEW_SetAdvancingRotationFromPixelPosition@CInstanceBase@@QAEXABUD3DXVECTOR3@@0@Z ; CInstanceBase::NEW_SetAdvancingRotationFromPixelPosition
PUBLIC	?NEW_SetAdvancingRotationFromDirPixelPosition@CInstanceBase@@QAEXABUD3DXVECTOR3@@@Z ; CInstanceBase::NEW_SetAdvancingRotationFromDirPixelPosition
PUBLIC	?NEW_GetAdvancingRotationFromDirPixelPosition@CInstanceBase@@QAEMABUD3DXVECTOR3@@@Z ; CInstanceBase::NEW_GetAdvancingRotationFromDirPixelPosition
PUBLIC	?CInstanceBase_GetDegreeFromPosition@@YAMMM@Z	; CInstanceBase_GetDegreeFromPosition
PUBLIC	?NEW_CanMoveToDestPixelPosition@CInstanceBase@@QAE_NABUD3DXVECTOR3@@@Z ; CInstanceBase::NEW_CanMoveToDestPixelPosition
PUBLIC	?NEW_SyncPixelPosition@CInstanceBase@@QAEXAAJ0@Z ; CInstanceBase::NEW_SyncPixelPosition
PUBLIC	?ClampDegree@@YAMM@Z				; ClampDegree
PUBLIC	?IsKnockDown@CInstanceBase@@QAEHXZ		; CInstanceBase::IsKnockDown
PUBLIC	?EndGoing@CInstanceBase@@QAEXXZ			; CInstanceBase::EndGoing
PUBLIC	?IsAttacking@CInstanceBase@@QAEHXZ		; CInstanceBase::IsAttacking
PUBLIC	?NEW_MoveToDestPixelPositionDirection@CInstanceBase@@QAE_NABUD3DXVECTOR3@@@Z ; CInstanceBase::NEW_MoveToDestPixelPositionDirection
PUBLIC	?NEW_Stop@CInstanceBase@@QAEXXZ			; CInstanceBase::NEW_Stop
PUBLIC	?SetMoveSpeed@CInstanceBase@@QAEXI@Z		; CInstanceBase::SetMoveSpeed
PUBLIC	?SetAttackSpeed@CInstanceBase@@QAEXI@Z		; CInstanceBase::SetAttackSpeed
PUBLIC	?SetRotationSpeed@CInstanceBase@@QAEXM@Z	; CInstanceBase::SetRotationSpeed
PUBLIC	?IsWalking@CInstanceBase@@QAEHXZ		; CInstanceBase::IsWalking
PUBLIC	?StartWalking@CInstanceBase@@IAEXXZ		; CInstanceBase::StartWalking
PUBLIC	?IsWaiting@CInstanceBase@@QAEHXZ		; CInstanceBase::IsWaiting
PUBLIC	?EndWalking@CInstanceBase@@QAEXM@Z		; CInstanceBase::EndWalking
PUBLIC	?SetAdvancingRotation@CInstanceBase@@QAEXM@Z	; CInstanceBase::SetAdvancingRotation
PUBLIC	?NEW_GetAdvancingRotationFromPixelPosition@CInstanceBase@@QAEMABUD3DXVECTOR3@@0@Z ; CInstanceBase::NEW_GetAdvancingRotationFromPixelPosition
PUBLIC	?EndWalkingWithoutBlending@CInstanceBase@@QAEXXZ ; CInstanceBase::EndWalkingWithoutBlending
END
