; Listing generated by Microsoft (R) Optimizing Compiler Version 19.44.35219.0 

	TITLE	c:\anka2project\anka2project\source\binary\vs_files\userinterface\release\instancebasetransform.obj
	.686P
	.XMM
	include listing.inc
	.model	flat

INCLUDELIB OLDNAMES

EXTRN	?LookAt@CActorInstance@@QAEXPAV1@@Z:PROC	; CActorInstance::LookAt
EXTRN	?LookAt@CActorInstance@@QAEXMM@Z:PROC		; CActorInstance::LookAt
EXTRN	?LookAtFlyTarget@CActorInstance@@QAEXXZ:PROC	; CActorInstance::LookAtFlyTarget
EXTRN	?BlendRotation@CActorInstance@@QAEXMM@Z:PROC	; CActorInstance::BlendRotation
;	COMDAT ?s_dirRot@?1??GetDegreeFromDirection@CInstanceBase@@QAEMH@Z@4PAMA
CONST	SEGMENT
?s_dirRot@?1??GetDegreeFromDirection@CInstanceBase@@QAEMH@Z@4PAMA DD 043340000r ; 180 ; `CInstanceBase::GetDegreeFromDirection'::`2'::s_dirRot
	DD	043070000r			; 135
	DD	042b40000r			; 90
	DD	042340000r			; 45
	DD	000000000r			; 0
	DD	0439d8000r			; 315
	DD	043870000r			; 270
	DD	043610000r			; 225
PUBLIC	?GetDegreeFromDirection@CInstanceBase@@QAEMH@Z	; CInstanceBase::GetDegreeFromDirection
PUBLIC	?SetDirection@CInstanceBase@@QAEXH@Z		; CInstanceBase::SetDirection
PUBLIC	?NEW_LookAtDestPixelPosition@CInstanceBase@@QAEXABUD3DXVECTOR3@@@Z ; CInstanceBase::NEW_LookAtDestPixelPosition
PUBLIC	?NEW_LookAtFlyTarget@CInstanceBase@@QAEXXZ	; CInstanceBase::NEW_LookAtFlyTarget
PUBLIC	?NEW_SetPixelPosition@CInstanceBase@@QAEXABUD3DXVECTOR3@@@Z ; CInstanceBase::NEW_SetPixelPosition
PUBLIC	?SCRIPT_SetPixelPosition@CInstanceBase@@QAEXMM@Z ; CInstanceBase::SCRIPT_SetPixelPosition
PUBLIC	?SetRotation@CInstanceBase@@QAEXM@Z		; CInstanceBase::SetRotation
PUBLIC	?NEW_GetPixelPosition@CInstanceBase@@QAEXPAUD3DXVECTOR3@@@Z ; CInstanceBase::NEW_GetPixelPosition
PUBLIC	?BlendRotation@CInstanceBase@@QAEXMM@Z		; CInstanceBase::BlendRotation
PUBLIC	?NEW_LookAtDestInstance@CInstanceBase@@QAEXAAV1@@Z ; CInstanceBase::NEW_LookAtDestInstance
PUBLIC	?GetRotation@CInstanceBase@@QAEMXZ		; CInstanceBase::GetRotation
PUBLIC	?GetAdvancingRotation@CInstanceBase@@QAEMXZ	; CInstanceBase::GetAdvancingRotation
END
