; Listing generated by Microsoft (R) Optimizing Compiler Version 19.44.35219.0 

	TITLE	c:\anka2project\anka2project\source\binary\vs_files\userinterface\release\instancebase.obj
	.686P
	.XMM
	include listing.inc
	.model	flat

INCLUDELIB OLDNAMES

PUBLIC	??_C@_1KC@MEHOMOLH@?$AAC?$AA?3?$AA?2?$AAA?$AAn?$AAk?$AAa?$AA2?$AAP?$AAr?$AAo?$AAj?$AAe?$AAc?$AAt@ ; `string'
PUBLIC	??_C@_1CG@IGBIAIJA@?$AAm?$AA_?$AAp?$AAk?$AAA?$AAc?$AAt?$AAo?$AAr?$AA?$DN?$AA?$DN?$AAn?$AAu?$AAl?$AAl@ ; `string'
PUBLIC	??_C@_0CO@HHECMCIN@CInstanceBase?3?3SHORSE?3?3Create?5?9@ ; `string'
PUBLIC	??_C@_1IG@HGDICGNA@?$AAN?$AAU?$AAL?$AAL?$AA?$DN?$AA?$DN?$AAm?$AA_?$AAp?$AAk?$AAA?$AAc?$AAt?$AAo?$AAr@ ; `string'
PUBLIC	??_C@_0CD@JHMKKADJ@CInstanceBase?3?3SHORSE?3?3GetActor@ ; `string'
PUBLIC	??_C@_1HA@MDLILCCL@?$AAN?$AAU?$AAL?$AAL?$AA?$CB?$AA?$DN?$AAm?$AA_?$AAp?$AAk?$AAA?$AAc?$AAt?$AAo?$AAr@ ; `string'
PUBLIC	??_C@_06PNAKCKLH@saddle@			; `string'
PUBLIC	??_C@_0EL@PHAIMNFF@CInstanceBase?3?3__EnableSkipColl@ ; `string'
PUBLIC	??_C@_01CLKCMJKC@?5@				; `string'
PUBLIC	??_C@_0BP@PGINAIMI@Inst?5?9?5UC?5?$CFd?0?5RC?5?$CFd?5Pool?5?9?5?$CFd?5@ ; `string'
PUBLIC	??_C@_1FI@LCMHCAJP@?$AAp?$AAa?$AAr?$AAt?$AA?5?$AA?$DO?$AA?$DN?$AA?5?$AA0?$AA?5?$AA?$CG?$AA?$CG?$AA?5?$AAp?$AAa@ ; `string'
PUBLIC	??_C@_0FB@HJIAHMHN@CInstanceBase?3?3PushTCPState?3?5Oy@ ; `string'
PUBLIC	??_C@_0DM@EIDAANLK@vid?$DN?$CFd?5?$LP?r?A?w?$MA?O?5?$LM?v?5?$LO?x?$LE?B?5?$LL?s?E?B?$LG?s?5?$LN?$LK@ ; `string'
PUBLIC	??_C@_0EG@MNIPPABI@CPythonCharacterManager?3?3Change@ ; `string'
PUBLIC	??_C@_0N@DLOEJLFF@Bip01?5Spine2@		; `string'
PUBLIC	??_C@_1KI@FIPHLMOB@?$AAC?$AA?3?$AA?2?$AAA?$AAn?$AAk?$AAa?$AA2?$AAP?$AAr?$AAo?$AAj?$AAe?$AAc?$AAt@ ; `string'
PUBLIC	??_C@_1CM@FPMBEAEA@?$AAm?$AAs?$AA_?$AAs?$AAi?$AAn?$AAg?$AAl?$AAe?$AAt?$AAo?$AAn?$AA?$CB?$AA?$DN?$AAn@ ; `string'
PUBLIC	??_C@_0O@NKNMEGII@list?5too?5long@		; `string'
PUBLIC	??_C@_0BL@GOIGLPKN@unordered_map?1set?5too?5long@ ; `string'
PUBLIC	??_C@_0BK@OGNNAFAB@invalid?5hash?5bucket?5count@ ; `string'
PUBLIC	??_R2CActorInstanceBackground@@8		; CActorInstanceBackground::`RTTI Base Class Array'
PUBLIC	??_R2?$CDynamicPool@VCInstanceBase@@@@8		; CDynamicPool<CInstanceBase>::`RTTI Base Class Array'
PUBLIC	??_R2CInstanceBase@@8				; CInstanceBase::`RTTI Base Class Array'
PUBLIC	??_R1A@?0A@EA@CActorInstanceBackground@@8	; CActorInstanceBackground::`RTTI Base Class Descriptor at (0,-1,0,64)'
PUBLIC	??_R1A@?0A@EA@?$CDynamicPool@VCInstanceBase@@@@8 ; CDynamicPool<CInstanceBase>::`RTTI Base Class Descriptor at (0,-1,0,64)'
PUBLIC	??_R1A@?0A@EA@CInstanceBase@@8			; CInstanceBase::`RTTI Base Class Descriptor at (0,-1,0,64)'
PUBLIC	??_R3CActorInstanceBackground@@8		; CActorInstanceBackground::`RTTI Class Hierarchy Descriptor'
PUBLIC	??_R0?AVCActorInstanceBackground@@@8		; CActorInstanceBackground `RTTI Type Descriptor'
PUBLIC	??_R3?$CDynamicPool@VCInstanceBase@@@@8		; CDynamicPool<CInstanceBase>::`RTTI Class Hierarchy Descriptor'
PUBLIC	??_R0?AV?$CDynamicPool@VCInstanceBase@@@@@8	; CDynamicPool<CInstanceBase> `RTTI Type Descriptor'
PUBLIC	??_R3CInstanceBase@@8				; CInstanceBase::`RTTI Class Hierarchy Descriptor'
PUBLIC	??_R0?AVCInstanceBase@@@8			; CInstanceBase `RTTI Type Descriptor'
PUBLIC	??_R4CActorInstanceBackground@@6B@		; CActorInstanceBackground::`RTTI Complete Object Locator'
PUBLIC	??_R4?$CDynamicPool@VCInstanceBase@@@@6B@	; CDynamicPool<CInstanceBase>::`RTTI Complete Object Locator'
PUBLIC	??_R4CInstanceBase@@6B@				; CInstanceBase::`RTTI Complete Object Locator'
PUBLIC	?ms_singleton@?$CSingleton@VCStateManager@@@@0PAVCStateManager@@A ; CSingleton<CStateManager>::ms_singleton
PUBLIC	??_7?$CDynamicPool@VCInstanceBase@@@@6B@	; CDynamicPool<CInstanceBase>::`vftable'
PUBLIC	?ms_singleton@?$CSingleton@VCPythonNonPlayer@@@@0PAVCPythonNonPlayer@@A ; CSingleton<CPythonNonPlayer>::ms_singleton
PUBLIC	?ms_singleton@?$TAbstractSingleton@VIAbstractPlayer@@@@0PAVIAbstractPlayer@@A ; TAbstractSingleton<IAbstractPlayer>::ms_singleton
PUBLIC	?ms_singleton@?$CSingleton@VCPythonSkill@@@@0PAVCPythonSkill@@A ; CSingleton<CPythonSkill>::ms_singleton
PUBLIC	?ms_singleton@?$CSingleton@VCPythonPlayer@@@@0PAVCPythonPlayer@@A ; CSingleton<CPythonPlayer>::ms_singleton
PUBLIC	?ms_singleton@?$TAbstractSingleton@VIAbstractApplication@@@@0PAVIAbstractApplication@@A ; TAbstractSingleton<IAbstractApplication>::ms_singleton
PUBLIC	?ms_singleton@?$CSingleton@VCItemManager@@@@0PAVCItemManager@@A ; CSingleton<CItemManager>::ms_singleton
PUBLIC	?ms_singleton@?$CSingleton@VCRaceManager@@@@0PAVCRaceManager@@A ; CSingleton<CRaceManager>::ms_singleton
PUBLIC	?ms_singleton@?$CSingleton@VCPythonSystem@@@@0PAVCPythonSystem@@A ; CSingleton<CPythonSystem>::ms_singleton
PUBLIC	??_C@_1CM@EMHIMJGH@?$AAm?$AA_?$AAk?$AAV?$AAc?$AAt?$AA_?$AAp?$AAk?$AAD?$AAa?$AAt?$AAa?$AA?4?$AAe@ ; `string'
PUBLIC	??_7CInstanceBase@@6B@				; CInstanceBase::`vftable'
PUBLIC	?_Min_buckets@?$_Hash@V?$_Umap_traits@KMV?$_Uhash_compare@KU?$hash@K@std@@U?$equal_to@K@2@@std@@V?$allocator@U?$pair@$$CBKM@std@@@2@$0A@@std@@@std@@2IB ; std::_Hash<std::_Umap_traits<unsigned long,float,std::_Uhash_compare<unsigned long,std::hash<unsigned long>,std::equal_to<unsigned long> >,std::allocator<std::pair<unsigned long const ,float> >,0> >::_Min_buckets
PUBLIC	?g_iAccumulationTime@@3HA			; g_iAccumulationTime
PUBLIC	?_OptionsStorage@?1??__local_stdio_printf_options@@9@4_KA ; `__local_stdio_printf_options'::`2'::_OptionsStorage
PUBLIC	?ms_dwDeformCounter@CInstanceBase@@1KA		; CInstanceBase::ms_dwDeformCounter
PUBLIC	?ms_dwRenderCounter@CInstanceBase@@1KA		; CInstanceBase::ms_dwRenderCounter
PUBLIC	?ms_dwUpdateCounter@CInstanceBase@@1KA		; CInstanceBase::ms_dwUpdateCounter
PUBLIC	??_7CActorInstanceBackground@@6B@		; CActorInstanceBackground::`vftable'
PUBLIC	??_R4?$CSingleton@VIBackground@@@@6B@		; CSingleton<IBackground>::`RTTI Complete Object Locator'
PUBLIC	??_7?$CSingleton@VIBackground@@@@6B@		; CSingleton<IBackground>::`vftable'
PUBLIC	?ms_singleton@?$CSingleton@VIBackground@@@@0PAVIBackground@@A ; CSingleton<IBackground>::ms_singleton
PUBLIC	??_R0?AVIBackground@@@8				; IBackground `RTTI Type Descriptor'
PUBLIC	??_R1A@?0A@EA@IBackground@@8			; IBackground::`RTTI Base Class Descriptor at (0,-1,0,64)'
PUBLIC	??_R0?AV?$CSingleton@VIBackground@@@@@8		; CSingleton<IBackground> `RTTI Type Descriptor'
PUBLIC	??_R2?$CSingleton@VIBackground@@@@8		; CSingleton<IBackground>::`RTTI Base Class Array'
PUBLIC	??_R3?$CSingleton@VIBackground@@@@8		; CSingleton<IBackground>::`RTTI Class Hierarchy Descriptor'
PUBLIC	??_R1A@?0A@EA@?$CSingleton@VIBackground@@@@8	; CSingleton<IBackground>::`RTTI Base Class Descriptor at (0,-1,0,64)'
PUBLIC	??_R2IBackground@@8				; IBackground::`RTTI Base Class Array'
PUBLIC	??_R3IBackground@@8				; IBackground::`RTTI Class Hierarchy Descriptor'
PUBLIC	??_R4IBackground@@6B@				; IBackground::`RTTI Complete Object Locator'
PUBLIC	??_7IBackground@@6B@				; IBackground::`vftable'
PUBLIC	?USE_ARMOR_SPECULAR@@3HA			; USE_ARMOR_SPECULAR
PUBLIC	?HAIR_COLOR_ENABLE@@3HA				; HAIR_COLOR_ENABLE
EXTRN	___std_find_first_of_trivial_pos_1@16:PROC
EXTRN	___std_find_trivial_4@12:PROC
EXTRN	?AttachEffectByID@CActorInstance@@QAEKKPBDKPBUD3DXVECTOR3@@PAKM1@Z:PROC ; CActorInstance::AttachEffectByID
EXTRN	?GetAuraParticleScale@CItemData@@QAEMEE@Z:PROC	; CItemData::GetAuraParticleScale
EXTRN	?GetAuraMeshScaleVector@CItemData@@QAEAAUD3DXVECTOR3@@EE@Z:PROC ; CItemData::GetAuraMeshScaleVector
EXTRN	?ChangePart@CActorInstance@@QAEXKK@Z:PROC	; CActorInstance::ChangePart
EXTRN	?GetRaceHeight@CRaceManager@@QAEMH@Z:PROC	; CRaceManager::GetRaceHeight
EXTRN	?GetBoundBox@CGraphicThingInstance@@QAEXPAUD3DXVECTOR3@@0@Z:PROC ; CGraphicThingInstance::GetBoundBox
EXTRN	??1CActorInstance@@UAE@XZ:PROC			; CActorInstance::~CActorInstance
EXTRN	?Initialize@CGraphicObjectInstance@@QAEXXZ:PROC	; CGraphicObjectInstance::Initialize
EXTRN	?DestroyDeviceObjects@CGraphicThingInstance@@QAEXXZ:PROC ; CGraphicThingInstance::DestroyDeviceObjects
EXTRN	?CreateDeviceObjects@CGraphicThingInstance@@QAE_NXZ:PROC ; CGraphicThingInstance::CreateDeviceObjects
EXTRN	?RegisterBoundingSphere@CGraphicObjectInstance@@QAEXXZ:PROC ; CGraphicObjectInstance::RegisterBoundingSphere
EXTRN	?DeformNoSkin@CGraphicThingInstance@@QAEXXZ:PROC ; CGraphicThingInstance::DeformNoSkin
EXTRN	?InterceptLoopMotion@CActorInstance@@QAE_NKM@Z:PROC ; CActorInstance::InterceptLoopMotion
EXTRN	?GetPartItemID@CActorInstance@@QAEKK@Z:PROC	; CActorInstance::GetPartItemID
EXTRN	?AttachWeapon@CActorInstance@@QAEXKKK@Z:PROC	; CActorInstance::AttachWeapon
EXTRN	?GetSubType@CItemData@@QBEEXZ:PROC		; CItemData::GetSubType
EXTRN	?GetIndex@CItemData@@QBEKXZ:PROC		; CItemData::GetIndex
EXTRN	?GetSocketCount@CItemData@@QBEHXZ:PROC		; CItemData::GetSocketCount
EXTRN	?GetRefine@CItemData@@QBEIXZ:PROC		; CItemData::GetRefine
EXTRN	?GetWeaponType@CItemData@@QBEKXZ:PROC		; CItemData::GetWeaponType
EXTRN	?GetType@CItemData@@QBEEXZ:PROC			; CItemData::GetType
EXTRN	?GetItemScaleVector@CItemData@@QAEAAUD3DXVECTOR3@@EE@Z:PROC ; CItemData::GetItemScaleVector
EXTRN	?SetAcceScale@CGraphicObjectInstance@@QAEXABUD3DXVECTOR3@@E@Z:PROC ; CGraphicObjectInstance::SetAcceScale
EXTRN	?AttachAcce@CActorInstance@@QAEXPAVCItemData@@M@Z:PROC ; CActorInstance::AttachAcce
EXTRN	?SetAcceScale@CGraphicObjectInstance@@QAEXMMM@Z:PROC ; CGraphicObjectInstance::SetAcceScale
EXTRN	?GetSpecularPowerf@CItemData@@QBEMXZ:PROC	; CItemData::GetSpecularPowerf
EXTRN	?SetHair@CActorInstance@@QAEXKM@Z:PROC		; CActorInstance::SetHair
EXTRN	?GetAlphaValue@CActorInstance@@QAEMXZ:PROC	; CActorInstance::GetAlphaValue
EXTRN	?SetBlendRenderMode@CActorInstance@@QAEXXZ:PROC	; CActorInstance::SetBlendRenderMode
EXTRN	?SetAddColor@CActorInstance@@QAEXABUD3DXCOLOR@@@Z:PROC ; CActorInstance::SetAddColor
EXTRN	?SetRenderMode@CActorInstance@@QAEXH@Z:PROC	; CActorInstance::SetRenderMode
EXTRN	?SetModulateRenderMode@CActorInstance@@QAEXXZ:PROC ; CActorInstance::SetModulateRenderMode
EXTRN	?SetAddRenderMode@CActorInstance@@QAEXXZ:PROC	; CActorInstance::SetAddRenderMode
EXTRN	?RestoreRenderMode@CActorInstance@@QAEXXZ:PROC	; CActorInstance::RestoreRenderMode
EXTRN	?IntersectDefendingSphere@CActorInstance@@QAE_NXZ:PROC ; CActorInstance::IntersectDefendingSphere
EXTRN	?Intersect@CGraphicThingInstance@@QAE_NPAM00@Z:PROC ; CGraphicThingInstance::Intersect
EXTRN	?isShow@CGraphicObjectInstance@@QAE_NXZ:PROC	; CGraphicObjectInstance::isShow
EXTRN	?GetActorType@CActorInstance@@QBEIXZ:PROC	; CActorInstance::GetActorType
EXTRN	?IsDoor@CActorInstance@@QAE_NXZ:PROC		; CActorInstance::IsDoor
EXTRN	?IsBuilding@CActorInstance@@QAE_NXZ:PROC	; CActorInstance::IsBuilding
EXTRN	?IsObject@CActorInstance@@QAE_NXZ:PROC		; CActorInstance::IsObject
EXTRN	?IsGoto@CActorInstance@@QAE_NXZ:PROC		; CActorInstance::IsGoto
EXTRN	?IsWarp@CActorInstance@@QAE_NXZ:PROC		; CActorInstance::IsWarp
EXTRN	?IsMount@CActorInstance@@QAE_NXZ:PROC		; CActorInstance::IsMount
EXTRN	?IsGrowthPet@CActorInstance@@QAE_NXZ:PROC	; CActorInstance::IsGrowthPet
EXTRN	?IsPet@CActorInstance@@QAE_NXZ:PROC		; CActorInstance::IsPet
EXTRN	?IsHorse@CActorInstance@@QAE_NXZ:PROC		; CActorInstance::IsHorse
EXTRN	?IsStone@CActorInstance@@QAE_NXZ:PROC		; CActorInstance::IsStone
EXTRN	?IsEnemy@CActorInstance@@QAE_NXZ:PROC		; CActorInstance::IsEnemy
EXTRN	?IsNPC@CActorInstance@@QAE_NXZ:PROC		; CActorInstance::IsNPC
EXTRN	?IsPC@CActorInstance@@QAE_NXZ:PROC		; CActorInstance::IsPC
EXTRN	?IsShop@CActorInstance@@QAE_NXZ:PROC		; CActorInstance::IsShop
EXTRN	?IsPoly@CActorInstance@@QAE_NXZ:PROC		; CActorInstance::IsPoly
EXTRN	?CanChangeTarget@CActorInstance@@QAE_NXZ:PROC	; CActorInstance::CanChangeTarget
EXTRN	?SetComboType@CActorInstance@@QAEXG@Z:PROC	; CActorInstance::SetComboType
EXTRN	?SetActorType@CActorInstance@@QAEXI@Z:PROC	; CActorInstance::SetActorType
EXTRN	?SetVirtualID@CActorInstance@@QAEXK@Z:PROC	; CActorInstance::SetVirtualID
EXTRN	?RenderCollisionData@CActorInstance@@QAEXXZ:PROC ; CActorInstance::RenderCollisionData
EXTRN	?RenderToShadowMap@CActorInstance@@QAEXXZ:PROC	; CActorInstance::RenderToShadowMap
EXTRN	?RestoreRenderState@CStateManager@@QAEXW4_D3DRENDERSTATETYPE@@@Z:PROC ; CStateManager::RestoreRenderState
EXTRN	?RenderLine3d@CScreen@@QAEXMMMMMM@Z:PROC	; CScreen::RenderLine3d
EXTRN	?SetDiffuseColor@CScreen@@QAEXMMMM@Z:PROC	; CScreen::SetDiffuseColor
EXTRN	?GetPixelPosition@CActorInstance@@QAEXPAUD3DXVECTOR3@@@Z:PROC ; CActorInstance::GetPixelPosition
EXTRN	?SetRenderState@CStateManager@@QAEXW4_D3DRENDERSTATETYPE@@K@Z:PROC ; CStateManager::SetRenderState
EXTRN	?SaveRenderState@CStateManager@@QAEXW4_D3DRENDERSTATETYPE@@K@Z:PROC ; CStateManager::SaveRenderState
EXTRN	?SetTextureStageState@CStateManager@@QAEXKW4_D3DTEXTURESTAGESTATETYPE@@K@Z:PROC ; CStateManager::SetTextureStageState
EXTRN	__Init_thread_footer:PROC
EXTRN	??0CScreen@@QAE@XZ:PROC				; CScreen::CScreen
EXTRN	__Init_thread_abort:PROC
EXTRN	__Init_thread_header:PROC
EXTRN	__Init_thread_epoch:DWORD
EXTRN	?IsDirLine@CActorInstance@@SA_NXZ:PROC		; CActorInstance::IsDirLine
EXTRN	?RenderTrace@CActorInstance@@QAEXXZ:PROC	; CActorInstance::RenderTrace
EXTRN	?INSTANCEBASE_Transform@CActorInstance@@QAEXXZ:PROC ; CActorInstance::INSTANCEBASE_Transform
EXTRN	?HORSE_MotionProcess@CActorInstance@@QAEXH@Z:PROC ; CActorInstance::HORSE_MotionProcess
EXTRN	?SetActiveAllAttachingEffect@CActorInstance@@QAEXXZ:PROC ; CActorInstance::SetActiveAllAttachingEffect
EXTRN	?SetDeactiveAllAttachingEffect@CActorInstance@@QAEXXZ:PROC ; CActorInstance::SetDeactiveAllAttachingEffect
EXTRN	?MotionProcess@CActorInstance@@QAEXH@Z:PROC	; CActorInstance::MotionProcess
EXTRN	?UpdateAdvancingPointInstance@CActorInstance@@QAEXXZ:PROC ; CActorInstance::UpdateAdvancingPointInstance
EXTRN	?SetMaterialColor@CActorInstance@@QAEXK@Z:PROC	; CActorInstance::SetMaterialColor
EXTRN	?ELTimer_GetFrameMSec@@YAKXZ:PROC		; ELTimer_GetFrameMSec
EXTRN	?IsMovement@CActorInstance@@QAEHXZ:PROC		; CActorInstance::IsMovement
EXTRN	?AccumulationMovement@CActorInstance@@QAEXXZ:PROC ; CActorInstance::AccumulationMovement
EXTRN	?ComboProcess@CActorInstance@@QAEXXZ:PROC	; CActorInstance::ComboProcess
EXTRN	?RotationProcess@CActorInstance@@QAEXXZ:PROC	; CActorInstance::RotationProcess
EXTRN	?PhysicsProcess@CActorInstance@@QAEXXZ:PROC	; CActorInstance::PhysicsProcess
EXTRN	?SetAdvancingRotation@CActorInstance@@QAEXM@Z:PROC ; CActorInstance::SetAdvancingRotation
EXTRN	?GetTargetRotation@CActorInstance@@QAEMXZ:PROC	; CActorInstance::GetTargetRotation
EXTRN	?SetRotation@CActorInstance@@QAEXM@Z:PROC	; CActorInstance::SetRotation
EXTRN	?GetSecondElapsed@CGraphicThingInstance@@QAEMXZ:PROC ; CGraphicThingInstance::GetSecondElapsed
EXTRN	?GetRotatingDirection@@YAHMM@Z:PROC		; GetRotatingDirection
EXTRN	?GetAdvancingRotation@CActorInstance@@QAEMXZ:PROC ; CActorInstance::GetAdvancingRotation
EXTRN	?GetRotation@CActorInstance@@QAEMXZ:PROC	; CActorInstance::GetRotation
EXTRN	?IsUsingMovingSkill@CActorInstance@@QAEHXZ:PROC	; CActorInstance::IsUsingMovingSkill
EXTRN	?GetMovementVectorRef@CActorInstance@@QAEABUD3DXVECTOR3@@XZ:PROC ; CActorInstance::GetMovementVectorRef
EXTRN	?InterceptOnceMotion@CActorInstance@@QAE_NKMIM@Z:PROC ; CActorInstance::InterceptOnceMotion
EXTRN	?Lognf@@YAXIPBDZZ:PROC				; Lognf
EXTRN	?IsActEmotion@CActorInstance@@QAEHXZ:PROC	; CActorInstance::IsActEmotion
EXTRN	?CanCancelSkill@CActorInstance@@QAEHXZ:PROC	; CActorInstance::CanCancelSkill
EXTRN	?IsUsingSkill@CActorInstance@@QAEHXZ:PROC	; CActorInstance::IsUsingSkill
EXTRN	?IsKnockDown@CActorInstance@@QAEHXZ:PROC	; CActorInstance::IsKnockDown
EXTRN	?ELTimer_GetServerFrameMSec@@YAKXZ:PROC		; ELTimer_GetServerFrameMSec
EXTRN	?GetLocalTime@CGraphicThingInstance@@QAEMXZ:PROC ; CGraphicThingInstance::GetLocalTime
EXTRN	?SetOwner@CActorInstance@@QAEXK@Z:PROC		; CActorInstance::SetOwner
EXTRN	?__IsSyncing@CActorInstance@@QAE_NXZ:PROC	; CActorInstance::__IsSyncing
EXTRN	?IsSleep@CActorInstance@@QAEHXZ:PROC		; CActorInstance::IsSleep
EXTRN	?IsStun@CActorInstance@@QAEHXZ:PROC		; CActorInstance::IsStun
EXTRN	?IsDead@CActorInstance@@QAEHXZ:PROC		; CActorInstance::IsDead
EXTRN	?IsFishing@CActorInstance@@QAEHXZ:PROC		; CActorInstance::IsFishing
EXTRN	?GetMotionMode@CActorInstance@@QAEHXZ:PROC	; CActorInstance::GetMotionMode
EXTRN	?IsHandMode@CActorInstance@@QAE_NXZ:PROC	; CActorInstance::IsHandMode
EXTRN	?IsBowMode@CActorInstance@@QAE_NXZ:PROC		; CActorInstance::IsBowMode
EXTRN	?CanFishing@CActorInstance@@QAE_NXZ:PROC	; CActorInstance::CanFishing
EXTRN	?CanAttack@CActorInstance@@QAE_NXZ:PROC		; CActorInstance::CanAttack
EXTRN	?CanUseSkill@CActorInstance@@QAE_NXZ:PROC	; CActorInstance::CanUseSkill
EXTRN	?CanMove@CActorInstance@@QAE_NXZ:PROC		; CActorInstance::CanMove
EXTRN	?CanAct@CActorInstance@@QAE_NXZ:PROC		; CActorInstance::CanAct
EXTRN	?IsAttacked@CActorInstance@@QAEHXZ:PROC		; CActorInstance::IsAttacked
EXTRN	?isAttacking@CActorInstance@@QAEHXZ:PROC	; CActorInstance::isAttacking
EXTRN	?__OnMoving@CActorInstance@@QAEXXZ:PROC		; CActorInstance::__OnMoving
EXTRN	?__OnWaiting@CActorInstance@@QAEXXZ:PROC	; CActorInstance::__OnWaiting
EXTRN	?__OnSyncing@CActorInstance@@QAEXXZ:PROC	; CActorInstance::__OnSyncing
EXTRN	?NEW_GetSrcPixelPositionRef@CActorInstance@@QAEABUD3DXVECTOR3@@XZ:PROC ; CActorInstance::NEW_GetSrcPixelPositionRef
EXTRN	?NEW_GetDstPixelPositionRef@CActorInstance@@QAEABUD3DXVECTOR3@@XZ:PROC ; CActorInstance::NEW_GetDstPixelPositionRef
EXTRN	?NEW_SetSrcPixelPosition@CActorInstance@@QAEXABUD3DXVECTOR3@@@Z:PROC ; CActorInstance::NEW_SetSrcPixelPosition
EXTRN	?NEW_SetDstPixelPosition@CActorInstance@@QAEXABUD3DXVECTOR3@@@Z:PROC ; CActorInstance::NEW_SetDstPixelPosition
EXTRN	?NEW_SetDstPixelPositionZ@CActorInstance@@QAEXM@Z:PROC ; CActorInstance::NEW_SetDstPixelPositionZ
EXTRN	?NEW_GetLastPixelPositionRef@CActorInstance@@QAEABUD3DXVECTOR3@@XZ:PROC ; CActorInstance::NEW_GetLastPixelPositionRef
EXTRN	?IsPushing@CActorInstance@@QAE_NXZ:PROC		; CActorInstance::IsPushing
EXTRN	___stdio_common_vsprintf:PROC
EXTRN	?MountHorse@CActorInstance@@QAEXPAV1@@Z:PROC	; CActorInstance::MountHorse
EXTRN	?ChangeSkillColor@CActorInstance@@QAEXPBK@Z:PROC ; CActorInstance::ChangeSkillColor
EXTRN	?ChangeMaterial@CActorInstance@@QAEXPBD@Z:PROC	; CActorInstance::ChangeMaterial
EXTRN	?IsFile@@YA_NPBD@Z:PROC				; IsFile
EXTRN	?DieEnd@CActorInstance@@QAEXXZ:PROC		; CActorInstance::DieEnd
EXTRN	?SetScale@CGraphicObjectInstance@@QAEXMMM_N@Z:PROC ; CGraphicObjectInstance::SetScale
EXTRN	?SetMainInstance@CActorInstance@@QAEXXZ:PROC	; CActorInstance::SetMainInstance
EXTRN	?SPixelPosition_CalculateDistanceSq3d@@YAMABUD3DXVECTOR3@@0@Z:PROC ; SPixelPosition_CalculateDistanceSq3d
EXTRN	?NEW_GetCurPixelPositionRef@CActorInstance@@QAEABUD3DXVECTOR3@@XZ:PROC ; CActorInstance::NEW_GetCurPixelPositionRef
EXTRN	?IsParalysis@CActorInstance@@QAEHXZ:PROC	; CActorInstance::IsParalysis
EXTRN	?GetShadowMapColor@CMapManager@@QAEKMM@Z:PROC	; CMapManager::GetShadowMapColor
EXTRN	?DisableSkipCollision@CActorInstance@@QAEXXZ:PROC ; CActorInstance::DisableSkipCollision
EXTRN	?EnableSkipCollision@CActorInstance@@QAEXXZ:PROC ; CActorInstance::EnableSkipCollision
EXTRN	?isAttrOn@CMapManager@@QAE_NMME@Z:PROC		; CMapManager::isAttrOn
EXTRN	?GetWaterHeight@CMapManager@@QAE_NHHPAJ@Z:PROC	; CMapManager::GetWaterHeight
EXTRN	?GetLODControllerPointer@CGraphicThingInstance@@QAEPAVCGrannyLODController@@K@Z:PROC ; CGraphicThingInstance::GetLODControllerPointer
EXTRN	?isAttrOn@CMapManager@@QAE_NHHE@Z:PROC		; CMapManager::isAttrOn
EXTRN	__purecall:PROC
EXTRN	?GetValue@CItemData@@QBEJE@Z:PROC		; CItemData::GetValue
EXTRN	?GetItemDataPointer@CItemManager@@QAEHKPAPAVCItemData@@@Z:PROC ; CItemManager::GetItemDataPointer
EXTRN	?AvoidObject@CActorInstance@@QAE_NABVCGraphicObjectInstance@@@Z:PROC ; CActorInstance::AvoidObject
EXTRN	?IsBlockObject@CActorInstance@@QAE_NABVCGraphicObjectInstance@@@Z:PROC ; CActorInstance::IsBlockObject
EXTRN	?BlockMovement@CActorInstance@@QAEXXZ:PROC	; CActorInstance::BlockMovement
EXTRN	?DetachModelInstance@CGraphicThingInstance@@QAEXHAAV1@H@Z:PROC ; CGraphicThingInstance::DetachModelInstance
EXTRN	?AttachModelInstance@CGraphicThingInstance@@QAEXHPBDAAV1@H@Z:PROC ; CGraphicThingInstance::AttachModelInstance
EXTRN	?Render@CGraphicObjectInstance@@QAE_NXZ:PROC	; CGraphicObjectInstance::Render
EXTRN	?INSTANCEBASE_Deform@CActorInstance@@QAEXXZ:PROC ; CActorInstance::INSTANCEBASE_Deform
EXTRN	?GetRace@CActorInstance@@QAEKXZ:PROC		; CActorInstance::GetRace
EXTRN	?Destroy@CActorInstance@@QAEXXZ:PROC		; CActorInstance::Destroy
EXTRN	?SetCurPixelPosition@CActorInstance@@QAEXABUD3DXVECTOR3@@@Z:PROC ; CActorInstance::SetCurPixelPosition
EXTRN	?RefreshActorInstance@CActorInstance@@QAEXXZ:PROC ; CActorInstance::RefreshActorInstance
EXTRN	?Stop@CActorInstance@@QAEXM@Z:PROC		; CActorInstance::Stop
EXTRN	?SetMotionMode@CActorInstance@@QAEXH@Z:PROC	; CActorInstance::SetMotionMode
EXTRN	?BlendAlphaValue@CActorInstance@@QAEXMM@Z:PROC	; CActorInstance::BlendAlphaValue
EXTRN	?SetAlphaValue@CActorInstance@@QAEXM@Z:PROC	; CActorInstance::SetAlphaValue
EXTRN	?SetBattleHitEffect@CActorInstance@@QAEXK@Z:PROC ; CActorInstance::SetBattleHitEffect
EXTRN	?SetShape@CActorInstance@@QAEXKM@Z:PROC		; CActorInstance::SetShape
EXTRN	?SetRace@CActorInstance@@QAE_NK@Z:PROC		; CActorInstance::SetRace
EXTRN	?GetEmptyPtr@IEventHandler@CActorInstance@@SAPAV12@XZ:PROC ; CActorInstance::IEventHandler::GetEmptyPtr
EXTRN	?SetEventHandler@CActorInstance@@QAEXPAVIEventHandler@1@@Z:PROC ; CActorInstance::SetEventHandler
EXTRN	??0CActorInstance@@QAE@XZ:PROC			; CActorInstance::CActorInstance
EXTRN	?SetMoveSpeed@CActorInstance@@QAEXM@Z:PROC	; CActorInstance::SetMoveSpeed
EXTRN	?SetAttackSpeed@CActorInstance@@QAEXM@Z:PROC	; CActorInstance::SetAttackSpeed
EXTRN	??1CScreen@@UAE@XZ:PROC				; CScreen::~CScreen
;	COMDAT ?ms_singleton@?$CSingleton@VCStateManager@@@@0PAVCStateManager@@A
_BSS	SEGMENT
?ms_singleton@?$CSingleton@VCStateManager@@@@0PAVCStateManager@@A DD 01H DUP (?) ; CSingleton<CStateManager>::ms_singleton
_BSS	ENDS
;	COMDAT ?ms_singleton@?$CSingleton@VCPythonNonPlayer@@@@0PAVCPythonNonPlayer@@A
_BSS	SEGMENT
?ms_singleton@?$CSingleton@VCPythonNonPlayer@@@@0PAVCPythonNonPlayer@@A DD 01H DUP (?) ; CSingleton<CPythonNonPlayer>::ms_singleton
_BSS	ENDS
;	COMDAT ?ms_singleton@?$TAbstractSingleton@VIAbstractPlayer@@@@0PAVIAbstractPlayer@@A
_BSS	SEGMENT
?ms_singleton@?$TAbstractSingleton@VIAbstractPlayer@@@@0PAVIAbstractPlayer@@A DD 01H DUP (?) ; TAbstractSingleton<IAbstractPlayer>::ms_singleton
_BSS	ENDS
;	COMDAT ?ms_singleton@?$CSingleton@VCPythonSkill@@@@0PAVCPythonSkill@@A
_BSS	SEGMENT
?ms_singleton@?$CSingleton@VCPythonSkill@@@@0PAVCPythonSkill@@A DD 01H DUP (?) ; CSingleton<CPythonSkill>::ms_singleton
_BSS	ENDS
;	COMDAT ?ms_singleton@?$CSingleton@VCPythonPlayer@@@@0PAVCPythonPlayer@@A
_BSS	SEGMENT
?ms_singleton@?$CSingleton@VCPythonPlayer@@@@0PAVCPythonPlayer@@A DD 01H DUP (?) ; CSingleton<CPythonPlayer>::ms_singleton
_BSS	ENDS
;	COMDAT ?ms_singleton@?$TAbstractSingleton@VIAbstractApplication@@@@0PAVIAbstractApplication@@A
_BSS	SEGMENT
?ms_singleton@?$TAbstractSingleton@VIAbstractApplication@@@@0PAVIAbstractApplication@@A DD 01H DUP (?) ; TAbstractSingleton<IAbstractApplication>::ms_singleton
_BSS	ENDS
;	COMDAT ?ms_singleton@?$CSingleton@VCItemManager@@@@0PAVCItemManager@@A
_BSS	SEGMENT
?ms_singleton@?$CSingleton@VCItemManager@@@@0PAVCItemManager@@A DD 01H DUP (?) ; CSingleton<CItemManager>::ms_singleton
_BSS	ENDS
;	COMDAT ?ms_singleton@?$CSingleton@VCRaceManager@@@@0PAVCRaceManager@@A
_BSS	SEGMENT
?ms_singleton@?$CSingleton@VCRaceManager@@@@0PAVCRaceManager@@A DD 01H DUP (?) ; CSingleton<CRaceManager>::ms_singleton
_BSS	ENDS
;	COMDAT ?ms_singleton@?$CSingleton@VCPythonSystem@@@@0PAVCPythonSystem@@A
_BSS	SEGMENT
?ms_singleton@?$CSingleton@VCPythonSystem@@@@0PAVCPythonSystem@@A DD 01H DUP (?) ; CSingleton<CPythonSystem>::ms_singleton
?g_iAccumulationTime@@3HA DD 01H DUP (?)		; g_iAccumulationTime
_BSS	ENDS
;	COMDAT ?_OptionsStorage@?1??__local_stdio_printf_options@@9@4_KA
_BSS	SEGMENT
?_OptionsStorage@?1??__local_stdio_printf_options@@9@4_KA DQ 01H DUP (?) ; `__local_stdio_printf_options'::`2'::_OptionsStorage
?ms_dwDeformCounter@CInstanceBase@@1KA DD 01H DUP (?)	; CInstanceBase::ms_dwDeformCounter
?ms_dwRenderCounter@CInstanceBase@@1KA DD 01H DUP (?)	; CInstanceBase::ms_dwRenderCounter
?ms_dwUpdateCounter@CInstanceBase@@1KA DD 01H DUP (?)	; CInstanceBase::ms_dwUpdateCounter
_BSS	ENDS
;	COMDAT ?ms_singleton@?$CSingleton@VIBackground@@@@0PAVIBackground@@A
_BSS	SEGMENT
?ms_singleton@?$CSingleton@VIBackground@@@@0PAVIBackground@@A DD 01H DUP (?) ; CSingleton<IBackground>::ms_singleton
?HAIR_COLOR_ENABLE@@3HA DD 01H DUP (?)			; HAIR_COLOR_ENABLE
_BSS	ENDS
;	COMDAT ??_7IBackground@@6B@
CONST	SEGMENT
??_7IBackground@@6B@ DD FLAT:??_R4IBackground@@6B@	; IBackground::`vftable'
	DD	FLAT:??_EIBackground@@UAEPAXI@Z
	DD	FLAT:__purecall
CONST	ENDS
;	COMDAT ??_R4IBackground@@6B@
rdata$r	SEGMENT
??_R4IBackground@@6B@ DD 00H				; IBackground::`RTTI Complete Object Locator'
	DD	00H
	DD	00H
	DD	FLAT:??_R0?AVIBackground@@@8
	DD	FLAT:??_R3IBackground@@8
rdata$r	ENDS
;	COMDAT ??_R3IBackground@@8
rdata$r	SEGMENT
??_R3IBackground@@8 DD 00H				; IBackground::`RTTI Class Hierarchy Descriptor'
	DD	00H
	DD	02H
	DD	FLAT:??_R2IBackground@@8
rdata$r	ENDS
;	COMDAT ??_R2IBackground@@8
rdata$r	SEGMENT
??_R2IBackground@@8 DD FLAT:??_R1A@?0A@EA@IBackground@@8 ; IBackground::`RTTI Base Class Array'
	DD	FLAT:??_R1A@?0A@EA@?$CSingleton@VIBackground@@@@8
rdata$r	ENDS
;	COMDAT ??_R1A@?0A@EA@?$CSingleton@VIBackground@@@@8
rdata$r	SEGMENT
??_R1A@?0A@EA@?$CSingleton@VIBackground@@@@8 DD FLAT:??_R0?AV?$CSingleton@VIBackground@@@@@8 ; CSingleton<IBackground>::`RTTI Base Class Descriptor at (0,-1,0,64)'
	DD	00H
	DD	00H
	DD	0ffffffffH
	DD	00H
	DD	040H
	DD	FLAT:??_R3?$CSingleton@VIBackground@@@@8
rdata$r	ENDS
;	COMDAT ??_R3?$CSingleton@VIBackground@@@@8
rdata$r	SEGMENT
??_R3?$CSingleton@VIBackground@@@@8 DD 00H		; CSingleton<IBackground>::`RTTI Class Hierarchy Descriptor'
	DD	00H
	DD	01H
	DD	FLAT:??_R2?$CSingleton@VIBackground@@@@8
rdata$r	ENDS
;	COMDAT ??_R2?$CSingleton@VIBackground@@@@8
rdata$r	SEGMENT
??_R2?$CSingleton@VIBackground@@@@8 DD FLAT:??_R1A@?0A@EA@?$CSingleton@VIBackground@@@@8 ; CSingleton<IBackground>::`RTTI Base Class Array'
rdata$r	ENDS
;	COMDAT ??_R0?AV?$CSingleton@VIBackground@@@@@8
data$rs	SEGMENT
??_R0?AV?$CSingleton@VIBackground@@@@@8 DD FLAT:??_7type_info@@6B@ ; CSingleton<IBackground> `RTTI Type Descriptor'
	DD	00H
	DB	'.?AV?$CSingleton@VIBackground@@@@', 00H
data$rs	ENDS
;	COMDAT ??_R1A@?0A@EA@IBackground@@8
rdata$r	SEGMENT
??_R1A@?0A@EA@IBackground@@8 DD FLAT:??_R0?AVIBackground@@@8 ; IBackground::`RTTI Base Class Descriptor at (0,-1,0,64)'
	DD	01H
	DD	00H
	DD	0ffffffffH
	DD	00H
	DD	040H
	DD	FLAT:??_R3IBackground@@8
rdata$r	ENDS
;	COMDAT ??_R0?AVIBackground@@@8
data$rs	SEGMENT
??_R0?AVIBackground@@@8 DD FLAT:??_7type_info@@6B@	; IBackground `RTTI Type Descriptor'
	DD	00H
	DB	'.?AVIBackground@@', 00H
data$rs	ENDS
;	COMDAT ??_7?$CSingleton@VIBackground@@@@6B@
CONST	SEGMENT
??_7?$CSingleton@VIBackground@@@@6B@ DD FLAT:??_R4?$CSingleton@VIBackground@@@@6B@ ; CSingleton<IBackground>::`vftable'
	DD	FLAT:??_E?$CSingleton@VIBackground@@@@UAEPAXI@Z
CONST	ENDS
;	COMDAT ??_R4?$CSingleton@VIBackground@@@@6B@
rdata$r	SEGMENT
??_R4?$CSingleton@VIBackground@@@@6B@ DD 00H		; CSingleton<IBackground>::`RTTI Complete Object Locator'
	DD	00H
	DD	00H
	DD	FLAT:??_R0?AV?$CSingleton@VIBackground@@@@@8
	DD	FLAT:??_R3?$CSingleton@VIBackground@@@@8
rdata$r	ENDS
;	COMDAT ??_7CActorInstanceBackground@@6B@
CONST	SEGMENT
??_7CActorInstanceBackground@@6B@ DD FLAT:??_R4CActorInstanceBackground@@6B@ ; CActorInstanceBackground::`vftable'
	DD	FLAT:??_ECActorInstanceBackground@@UAEPAXI@Z
	DD	FLAT:?IsBlock@CActorInstanceBackground@@UAE_NHH@Z
CONST	ENDS
;	COMDAT ?_Min_buckets@?$_Hash@V?$_Umap_traits@KMV?$_Uhash_compare@KU?$hash@K@std@@U?$equal_to@K@2@@std@@V?$allocator@U?$pair@$$CBKM@std@@@2@$0A@@std@@@std@@2IB
CONST	SEGMENT
?_Min_buckets@?$_Hash@V?$_Umap_traits@KMV?$_Uhash_compare@KU?$hash@K@std@@U?$equal_to@K@2@@std@@V?$allocator@U?$pair@$$CBKM@std@@@2@$0A@@std@@@std@@2IB DD 08H ; std::_Hash<std::_Umap_traits<unsigned long,float,std::_Uhash_compare<unsigned long,std::hash<unsigned long>,std::equal_to<unsigned long> >,std::allocator<std::pair<unsigned long const ,float> >,0> >::_Min_buckets
CONST	ENDS
;	COMDAT ??_7CInstanceBase@@6B@
CONST	SEGMENT
??_7CInstanceBase@@6B@ DD FLAT:??_R4CInstanceBase@@6B@	; CInstanceBase::`vftable'
	DD	FLAT:??_ECInstanceBase@@UAEPAXI@Z
CONST	ENDS
;	COMDAT ??_C@_1CM@EMHIMJGH@?$AAm?$AA_?$AAk?$AAV?$AAc?$AAt?$AA_?$AAp?$AAk?$AAD?$AAa?$AAt?$AAa?$AA?4?$AAe@
CONST	SEGMENT
??_C@_1CM@EMHIMJGH@?$AAm?$AA_?$AAk?$AAV?$AAc?$AAt?$AA_?$AAp?$AAk?$AAD?$AAa?$AAt?$AAa?$AA?4?$AAe@ DB 'm'
	DB	00H, '_', 00H, 'k', 00H, 'V', 00H, 'c', 00H, 't', 00H, '_', 00H
	DB	'p', 00H, 'k', 00H, 'D', 00H, 'a', 00H, 't', 00H, 'a', 00H, '.'
	DB	00H, 'e', 00H, 'm', 00H, 'p', 00H, 't', 00H, 'y', 00H, '(', 00H
	DB	')', 00H, 00H, 00H				; `string'
CONST	ENDS
;	COMDAT ??_7?$CDynamicPool@VCInstanceBase@@@@6B@
CONST	SEGMENT
??_7?$CDynamicPool@VCInstanceBase@@@@6B@ DD FLAT:??_R4?$CDynamicPool@VCInstanceBase@@@@6B@ ; CDynamicPool<CInstanceBase>::`vftable'
	DD	FLAT:??_E?$CDynamicPool@VCInstanceBase@@@@UAEPAXI@Z
CONST	ENDS
;	COMDAT ??_R4CInstanceBase@@6B@
rdata$r	SEGMENT
??_R4CInstanceBase@@6B@ DD 00H				; CInstanceBase::`RTTI Complete Object Locator'
	DD	00H
	DD	00H
	DD	FLAT:??_R0?AVCInstanceBase@@@8
	DD	FLAT:??_R3CInstanceBase@@8
rdata$r	ENDS
;	COMDAT ??_R4?$CDynamicPool@VCInstanceBase@@@@6B@
rdata$r	SEGMENT
??_R4?$CDynamicPool@VCInstanceBase@@@@6B@ DD 00H	; CDynamicPool<CInstanceBase>::`RTTI Complete Object Locator'
	DD	00H
	DD	00H
	DD	FLAT:??_R0?AV?$CDynamicPool@VCInstanceBase@@@@@8
	DD	FLAT:??_R3?$CDynamicPool@VCInstanceBase@@@@8
rdata$r	ENDS
;	COMDAT ??_R4CActorInstanceBackground@@6B@
rdata$r	SEGMENT
??_R4CActorInstanceBackground@@6B@ DD 00H		; CActorInstanceBackground::`RTTI Complete Object Locator'
	DD	00H
	DD	00H
	DD	FLAT:??_R0?AVCActorInstanceBackground@@@8
	DD	FLAT:??_R3CActorInstanceBackground@@8
rdata$r	ENDS
;	COMDAT ??_R0?AVCInstanceBase@@@8
data$rs	SEGMENT
??_R0?AVCInstanceBase@@@8 DD FLAT:??_7type_info@@6B@	; CInstanceBase `RTTI Type Descriptor'
	DD	00H
	DB	'.?AVCInstanceBase@@', 00H
data$rs	ENDS
;	COMDAT ??_R3CInstanceBase@@8
rdata$r	SEGMENT
??_R3CInstanceBase@@8 DD 00H				; CInstanceBase::`RTTI Class Hierarchy Descriptor'
	DD	00H
	DD	01H
	DD	FLAT:??_R2CInstanceBase@@8
rdata$r	ENDS
;	COMDAT ??_R0?AV?$CDynamicPool@VCInstanceBase@@@@@8
data$rs	SEGMENT
??_R0?AV?$CDynamicPool@VCInstanceBase@@@@@8 DD FLAT:??_7type_info@@6B@ ; CDynamicPool<CInstanceBase> `RTTI Type Descriptor'
	DD	00H
	DB	'.?AV?$CDynamicPool@VCInstanceBase@@@@', 00H
data$rs	ENDS
;	COMDAT ??_R3?$CDynamicPool@VCInstanceBase@@@@8
rdata$r	SEGMENT
??_R3?$CDynamicPool@VCInstanceBase@@@@8 DD 00H		; CDynamicPool<CInstanceBase>::`RTTI Class Hierarchy Descriptor'
	DD	00H
	DD	01H
	DD	FLAT:??_R2?$CDynamicPool@VCInstanceBase@@@@8
rdata$r	ENDS
;	COMDAT ??_R0?AVCActorInstanceBackground@@@8
data$rs	SEGMENT
??_R0?AVCActorInstanceBackground@@@8 DD FLAT:??_7type_info@@6B@ ; CActorInstanceBackground `RTTI Type Descriptor'
	DD	00H
	DB	'.?AVCActorInstanceBackground@@', 00H
data$rs	ENDS
;	COMDAT ??_R3CActorInstanceBackground@@8
rdata$r	SEGMENT
??_R3CActorInstanceBackground@@8 DD 00H			; CActorInstanceBackground::`RTTI Class Hierarchy Descriptor'
	DD	00H
	DD	03H
	DD	FLAT:??_R2CActorInstanceBackground@@8
rdata$r	ENDS
;	COMDAT ??_R1A@?0A@EA@CInstanceBase@@8
rdata$r	SEGMENT
??_R1A@?0A@EA@CInstanceBase@@8 DD FLAT:??_R0?AVCInstanceBase@@@8 ; CInstanceBase::`RTTI Base Class Descriptor at (0,-1,0,64)'
	DD	00H
	DD	00H
	DD	0ffffffffH
	DD	00H
	DD	040H
	DD	FLAT:??_R3CInstanceBase@@8
rdata$r	ENDS
;	COMDAT ??_R1A@?0A@EA@?$CDynamicPool@VCInstanceBase@@@@8
rdata$r	SEGMENT
??_R1A@?0A@EA@?$CDynamicPool@VCInstanceBase@@@@8 DD FLAT:??_R0?AV?$CDynamicPool@VCInstanceBase@@@@@8 ; CDynamicPool<CInstanceBase>::`RTTI Base Class Descriptor at (0,-1,0,64)'
	DD	00H
	DD	00H
	DD	0ffffffffH
	DD	00H
	DD	040H
	DD	FLAT:??_R3?$CDynamicPool@VCInstanceBase@@@@8
rdata$r	ENDS
;	COMDAT ??_R1A@?0A@EA@CActorInstanceBackground@@8
rdata$r	SEGMENT
??_R1A@?0A@EA@CActorInstanceBackground@@8 DD FLAT:??_R0?AVCActorInstanceBackground@@@8 ; CActorInstanceBackground::`RTTI Base Class Descriptor at (0,-1,0,64)'
	DD	02H
	DD	00H
	DD	0ffffffffH
	DD	00H
	DD	040H
	DD	FLAT:??_R3CActorInstanceBackground@@8
rdata$r	ENDS
;	COMDAT ??_R2CInstanceBase@@8
rdata$r	SEGMENT
??_R2CInstanceBase@@8 DD FLAT:??_R1A@?0A@EA@CInstanceBase@@8 ; CInstanceBase::`RTTI Base Class Array'
rdata$r	ENDS
;	COMDAT ??_R2?$CDynamicPool@VCInstanceBase@@@@8
rdata$r	SEGMENT
??_R2?$CDynamicPool@VCInstanceBase@@@@8 DD FLAT:??_R1A@?0A@EA@?$CDynamicPool@VCInstanceBase@@@@8 ; CDynamicPool<CInstanceBase>::`RTTI Base Class Array'
rdata$r	ENDS
;	COMDAT ??_R2CActorInstanceBackground@@8
rdata$r	SEGMENT
??_R2CActorInstanceBackground@@8 DD FLAT:??_R1A@?0A@EA@CActorInstanceBackground@@8 ; CActorInstanceBackground::`RTTI Base Class Array'
	DD	FLAT:??_R1A@?0A@EA@IBackground@@8
	DD	FLAT:??_R1A@?0A@EA@?$CSingleton@VIBackground@@@@8
rdata$r	ENDS
;	COMDAT ??_C@_0BK@OGNNAFAB@invalid?5hash?5bucket?5count@
CONST	SEGMENT
??_C@_0BK@OGNNAFAB@invalid?5hash?5bucket?5count@ DB 'invalid hash bucket '
	DB	'count', 00H					; `string'
CONST	ENDS
;	COMDAT ??_C@_0BL@GOIGLPKN@unordered_map?1set?5too?5long@
CONST	SEGMENT
??_C@_0BL@GOIGLPKN@unordered_map?1set?5too?5long@ DB 'unordered_map/set t'
	DB	'oo long', 00H				; `string'
CONST	ENDS
;	COMDAT ??_C@_0O@NKNMEGII@list?5too?5long@
CONST	SEGMENT
??_C@_0O@NKNMEGII@list?5too?5long@ DB 'list too long', 00H ; `string'
CONST	ENDS
;	COMDAT ??_C@_1CM@FPMBEAEA@?$AAm?$AAs?$AA_?$AAs?$AAi?$AAn?$AAg?$AAl?$AAe?$AAt?$AAo?$AAn?$AA?$CB?$AA?$DN?$AAn@
CONST	SEGMENT
??_C@_1CM@FPMBEAEA@?$AAm?$AAs?$AA_?$AAs?$AAi?$AAn?$AAg?$AAl?$AAe?$AAt?$AAo?$AAn?$AA?$CB?$AA?$DN?$AAn@ DB 'm'
	DB	00H, 's', 00H, '_', 00H, 's', 00H, 'i', 00H, 'n', 00H, 'g', 00H
	DB	'l', 00H, 'e', 00H, 't', 00H, 'o', 00H, 'n', 00H, '!', 00H, '='
	DB	00H, 'n', 00H, 'u', 00H, 'l', 00H, 'l', 00H, 'p', 00H, 't', 00H
	DB	'r', 00H, 00H, 00H				; `string'
CONST	ENDS
;	COMDAT ??_C@_1KI@FIPHLMOB@?$AAC?$AA?3?$AA?2?$AAA?$AAn?$AAk?$AAa?$AA2?$AAP?$AAr?$AAo?$AAj?$AAe?$AAc?$AAt@
CONST	SEGMENT
??_C@_1KI@FIPHLMOB@?$AAC?$AA?3?$AA?2?$AAA?$AAn?$AAk?$AAa?$AA2?$AAP?$AAr?$AAo?$AAj?$AAe?$AAc?$AAt@ DB 'C'
	DB	00H, ':', 00H, '\', 00H, 'A', 00H, 'n', 00H, 'k', 00H, 'a', 00H
	DB	'2', 00H, 'P', 00H, 'r', 00H, 'o', 00H, 'j', 00H, 'e', 00H, 'c'
	DB	00H, 't', 00H, '\', 00H, 'A', 00H, 'n', 00H, 'k', 00H, 'a', 00H
	DB	'2', 00H, 'P', 00H, 'r', 00H, 'o', 00H, 'j', 00H, 'e', 00H, 'c'
	DB	00H, 't', 00H, '\', 00H, 'S', 00H, 'o', 00H, 'u', 00H, 'r', 00H
	DB	'c', 00H, 'e', 00H, '\', 00H, 'B', 00H, 'i', 00H, 'n', 00H, 'a'
	DB	00H, 'r', 00H, 'y', 00H, '\', 00H, 's', 00H, 'o', 00H, 'u', 00H
	DB	'r', 00H, 'c', 00H, 'e', 00H, '\', 00H, 'U', 00H, 's', 00H, 'e'
	DB	00H, 'r', 00H, 'I', 00H, 'n', 00H, 't', 00H, 'e', 00H, 'r', 00H
	DB	'f', 00H, 'a', 00H, 'c', 00H, 'e', 00H, '\', 00H, 'A', 00H, 'b'
	DB	00H, 's', 00H, 't', 00H, 'r', 00H, 'a', 00H, 'c', 00H, 't', 00H
	DB	'S', 00H, 'i', 00H, 'n', 00H, 'g', 00H, 'l', 00H, 'e', 00H, 't'
	DB	00H, 'o', 00H, 'n', 00H, '.', 00H, 'h', 00H, 00H, 00H ; `string'
CONST	ENDS
;	COMDAT ??_C@_0N@DLOEJLFF@Bip01?5Spine2@
CONST	SEGMENT
??_C@_0N@DLOEJLFF@Bip01?5Spine2@ DB 'Bip01 Spine2', 00H	; `string'
CONST	ENDS
;	COMDAT ??_C@_0EG@MNIPPABI@CPythonCharacterManager?3?3Change@
CONST	SEGMENT
??_C@_0EG@MNIPPABI@CPythonCharacterManager?3?3Change@ DB 'CPythonCharacte'
	DB	'rManager::ChangeArmor - SetRace VID[%d] Race[%d] ERROR', 00H ; `string'
CONST	ENDS
;	COMDAT ??_C@_0DM@EIDAANLK@vid?$DN?$CFd?5?$LP?r?A?w?$MA?O?5?$LM?v?5?$LO?x?$LE?B?5?$LL?s?E?B?$LG?s?5?$LN?$LK@
CONST	SEGMENT
??_C@_0DM@EIDAANLK@vid?$DN?$CFd?5?$LP?r?A?w?$MA?O?5?$LM?v?5?$LO?x?$LE?B?5?$LL?s?E?B?$LG?s?5?$LN?$LK@ DB 'v'
	DB	'id=%d ', 0bfH, 0f2H, 0c1H, 0f7H, 0c0H, 0cfH, ' ', 0bcH, 0f6H, ' '
	DB	0beH, 0f8H, 0b4H, 0c2H, ' ', 0bbH, 0f3H, 0c5H, 0c2H, 0b6H, 0f3H
	DB	' ', 0bdH, 0baH, 0c5H, 0b5H, ' IsDead=%d, IsKnockDown=%d', 00H ; `string'
CONST	ENDS
;	COMDAT ??_C@_0FB@HJIAHMHN@CInstanceBase?3?3PushTCPState?3?5Oy@
CONST	SEGMENT
??_C@_0FB@HJIAHMHN@CInstanceBase?3?3PushTCPState?3?5Oy@ DB 'CInstanceBase'
	DB	'::PushTCPState: Oyuncu kendi karakterine hareket paketi g', 0f6H
	DB	'nderemez!', 00H				; `string'
CONST	ENDS
;	COMDAT ??_C@_1FI@LCMHCAJP@?$AAp?$AAa?$AAr?$AAt?$AA?5?$AA?$DO?$AA?$DN?$AA?5?$AA0?$AA?5?$AA?$CG?$AA?$CG?$AA?5?$AAp?$AAa@
CONST	SEGMENT
??_C@_1FI@LCMHCAJP@?$AAp?$AAa?$AAr?$AAt?$AA?5?$AA?$DO?$AA?$DN?$AA?5?$AA0?$AA?5?$AA?$CG?$AA?$CG?$AA?5?$AAp?$AAa@ DB 'p'
	DB	00H, 'a', 00H, 'r', 00H, 't', 00H, ' ', 00H, '>', 00H, '=', 00H
	DB	' ', 00H, '0', 00H, ' ', 00H, '&', 00H, '&', 00H, ' ', 00H, 'p'
	DB	00H, 'a', 00H, 'r', 00H, 't', 00H, ' ', 00H, '<', 00H, ' ', 00H
	DB	'C', 00H, 'R', 00H, 'a', 00H, 'c', 00H, 'e', 00H, 'D', 00H, 'a'
	DB	00H, 't', 00H, 'a', 00H, ':', 00H, ':', 00H, 'P', 00H, 'A', 00H
	DB	'R', 00H, 'T', 00H, '_', 00H, 'M', 00H, 'A', 00H, 'X', 00H, '_'
	DB	00H, 'N', 00H, 'U', 00H, 'M', 00H, 00H, 00H	; `string'
CONST	ENDS
;	COMDAT ??_C@_0BP@PGINAIMI@Inst?5?9?5UC?5?$CFd?0?5RC?5?$CFd?5Pool?5?9?5?$CFd?5@
CONST	SEGMENT
??_C@_0BP@PGINAIMI@Inst?5?9?5UC?5?$CFd?0?5RC?5?$CFd?5Pool?5?9?5?$CFd?5@ DB 'I'
	DB	'nst - UC %d, RC %d Pool - %d ', 00H		; `string'
CONST	ENDS
;	COMDAT ??_C@_01CLKCMJKC@?5@
CONST	SEGMENT
??_C@_01CLKCMJKC@?5@ DB ' ', 00H			; `string'
CONST	ENDS
;	COMDAT ??_C@_0EL@PHAIMNFF@CInstanceBase?3?3__EnableSkipColl@
CONST	SEGMENT
??_C@_0EL@PHAIMNFF@CInstanceBase?3?3__EnableSkipColl@ DB 'CInstanceBase::'
	DB	'__EnableSkipCollision - ', 0c0H, 0daH, 0bdH, 0c5H, 0c0H, 0baH
	DB	' ', 0c3H, 0e6H, 0b5H, 0b9H, 0b0H, 0cbH, 0bbH, 0e7H, 0bdH, 0baH
	DB	0c5H, 0b5H, 0c0H, 0ccH, ' ', 0b5H, 0c7H, 0b8H, 0e9H, ' ', 0beH
	DB	0c8H, 0b5H, 0c8H, 0b4H, 0d9H, '!!', 00H	; `string'
CONST	ENDS
;	COMDAT ??_C@_06PNAKCKLH@saddle@
CONST	SEGMENT
??_C@_06PNAKCKLH@saddle@ DB 'saddle', 00H		; `string'
CONST	ENDS
;	COMDAT ??_C@_1HA@MDLILCCL@?$AAN?$AAU?$AAL?$AAL?$AA?$CB?$AA?$DN?$AAm?$AA_?$AAp?$AAk?$AAA?$AAc?$AAt?$AAo?$AAr@
CONST	SEGMENT
??_C@_1HA@MDLILCCL@?$AAN?$AAU?$AAL?$AAL?$AA?$CB?$AA?$DN?$AAm?$AA_?$AAp?$AAk?$AAA?$AAc?$AAt?$AAo?$AAr@ DB 'N'
	DB	00H, 'U', 00H, 'L', 00H, 'L', 00H, '!', 00H, '=', 00H, 'm', 00H
	DB	'_', 00H, 'p', 00H, 'k', 00H, 'A', 00H, 'c', 00H, 't', 00H, 'o'
	DB	00H, 'r', 00H, ' ', 00H, '&', 00H, '&', 00H, ' ', 00H, '"', 00H
	DB	'C', 00H, 'I', 00H, 'n', 00H, 's', 00H, 't', 00H, 'a', 00H, 'n'
	DB	00H, 'c', 00H, 'e', 00H, 'B', 00H, 'a', 00H, 's', 00H, 'e', 00H
	DB	':', 00H, ':', 00H, 'S', 00H, 'H', 00H, 'O', 00H, 'R', 00H, 'S'
	DB	00H, 'E', 00H, ':', 00H, ':', 00H, 'G', 00H, 'e', 00H, 't', 00H
	DB	'A', 00H, 'c', 00H, 't', 00H, 'o', 00H, 'r', 00H, 'R', 00H, 'e'
	DB	00H, 'f', 00H, '"', 00H, 00H, 00H		; `string'
CONST	ENDS
;	COMDAT ??_C@_0CD@JHMKKADJ@CInstanceBase?3?3SHORSE?3?3GetActor@
CONST	SEGMENT
??_C@_0CD@JHMKKADJ@CInstanceBase?3?3SHORSE?3?3GetActor@ DB 'CInstanceBase'
	DB	'::SHORSE::GetActorRef', 00H			; `string'
CONST	ENDS
;	COMDAT ??_C@_1IG@HGDICGNA@?$AAN?$AAU?$AAL?$AAL?$AA?$DN?$AA?$DN?$AAm?$AA_?$AAp?$AAk?$AAA?$AAc?$AAt?$AAo?$AAr@
CONST	SEGMENT
??_C@_1IG@HGDICGNA@?$AAN?$AAU?$AAL?$AAL?$AA?$DN?$AA?$DN?$AAm?$AA_?$AAp?$AAk?$AAA?$AAc?$AAt?$AAo?$AAr@ DB 'N'
	DB	00H, 'U', 00H, 'L', 00H, 'L', 00H, '=', 00H, '=', 00H, 'm', 00H
	DB	'_', 00H, 'p', 00H, 'k', 00H, 'A', 00H, 'c', 00H, 't', 00H, 'o'
	DB	00H, 'r', 00H, ' ', 00H, '&', 00H, '&', 00H, ' ', 00H, '"', 00H
	DB	'C', 00H, 'I', 00H, 'n', 00H, 's', 00H, 't', 00H, 'a', 00H, 'n'
	DB	00H, 'c', 00H, 'e', 00H, 'B', 00H, 'a', 00H, 's', 00H, 'e', 00H
	DB	':', 00H, ':', 00H, 'S', 00H, 'H', 00H, 'O', 00H, 'R', 00H, 'S'
	DB	00H, 'E', 00H, ':', 00H, ':', 00H, 'C', 00H, 'r', 00H, 'e', 00H
	DB	'a', 00H, 't', 00H, 'e', 00H, ' ', 00H, '-', 00H, ' ', 00H, 'A'
	DB	00H, 'L', 00H, 'R', 00H, 'E', 00H, 'A', 00H, 'D', 00H, 'Y', 00H
	DB	' ', 00H, 'M', 00H, 'O', 00H, 'U', 00H, 'N', 00H, 'T', 00H, '"'
	DB	00H, 00H, 00H				; `string'
CONST	ENDS
;	COMDAT ??_C@_0CO@HHECMCIN@CInstanceBase?3?3SHORSE?3?3Create?5?9@
CONST	SEGMENT
??_C@_0CO@HHECMCIN@CInstanceBase?3?3SHORSE?3?3Create?5?9@ DB 'CInstanceBa'
	DB	'se::SHORSE::Create - ALREADY MOUNT', 00H	; `string'
CONST	ENDS
;	COMDAT ??_C@_1CG@IGBIAIJA@?$AAm?$AA_?$AAp?$AAk?$AAA?$AAc?$AAt?$AAo?$AAr?$AA?$DN?$AA?$DN?$AAn?$AAu?$AAl?$AAl@
CONST	SEGMENT
??_C@_1CG@IGBIAIJA@?$AAm?$AA_?$AAp?$AAk?$AAA?$AAc?$AAt?$AAo?$AAr?$AA?$DN?$AA?$DN?$AAn?$AAu?$AAl?$AAl@ DB 'm'
	DB	00H, '_', 00H, 'p', 00H, 'k', 00H, 'A', 00H, 'c', 00H, 't', 00H
	DB	'o', 00H, 'r', 00H, '=', 00H, '=', 00H, 'n', 00H, 'u', 00H, 'l'
	DB	00H, 'l', 00H, 'p', 00H, 't', 00H, 'r', 00H, 00H, 00H ; `string'
CONST	ENDS
;	COMDAT ??_C@_1KC@MEHOMOLH@?$AAC?$AA?3?$AA?2?$AAA?$AAn?$AAk?$AAa?$AA2?$AAP?$AAr?$AAo?$AAj?$AAe?$AAc?$AAt@
CONST	SEGMENT
??_C@_1KC@MEHOMOLH@?$AAC?$AA?3?$AA?2?$AAA?$AAn?$AAk?$AAa?$AA2?$AAP?$AAr?$AAo?$AAj?$AAe?$AAc?$AAt@ DB 'C'
	DB	00H, ':', 00H, '\', 00H, 'A', 00H, 'n', 00H, 'k', 00H, 'a', 00H
	DB	'2', 00H, 'P', 00H, 'r', 00H, 'o', 00H, 'j', 00H, 'e', 00H, 'c'
	DB	00H, 't', 00H, '\', 00H, 'A', 00H, 'n', 00H, 'k', 00H, 'a', 00H
	DB	'2', 00H, 'P', 00H, 'r', 00H, 'o', 00H, 'j', 00H, 'e', 00H, 'c'
	DB	00H, 't', 00H, '\', 00H, 'S', 00H, 'o', 00H, 'u', 00H, 'r', 00H
	DB	'c', 00H, 'e', 00H, '\', 00H, 'B', 00H, 'i', 00H, 'n', 00H, 'a'
	DB	00H, 'r', 00H, 'y', 00H, '\', 00H, 's', 00H, 'o', 00H, 'u', 00H
	DB	'r', 00H, 'c', 00H, 'e', 00H, '\', 00H, 'U', 00H, 's', 00H, 'e'
	DB	00H, 'r', 00H, 'I', 00H, 'n', 00H, 't', 00H, 'e', 00H, 'r', 00H
	DB	'f', 00H, 'a', 00H, 'c', 00H, 'e', 00H, '\', 00H, 'I', 00H, 'n'
	DB	00H, 's', 00H, 't', 00H, 'a', 00H, 'n', 00H, 'c', 00H, 'e', 00H
	DB	'B', 00H, 'a', 00H, 's', 00H, 'e', 00H, '.', 00H, 'c', 00H, 'p'
	DB	00H, 'p', 00H, 00H, 00H			; `string'
?USE_ARMOR_SPECULAR@@3HA DD 01H				; USE_ARMOR_SPECULAR
PUBLIC	?length@?$basic_string@DU?$char_traits@D@std@@V?$allocator@D@2@@std@@QBEIXZ ; std::basic_string<char,std::char_traits<char>,std::allocator<char> >::length
PUBLIC	??0IBackground@@QAE@XZ				; IBackground::IBackground
PUBLIC	??_GIBackground@@UAEPAXI@Z			; IBackground::`scalar deleting destructor'
PUBLIC	??1?$CSingleton@VIBackground@@@@UAE@XZ		; CSingleton<IBackground>::~CSingleton<IBackground>
PUBLIC	??_G?$CSingleton@VIBackground@@@@UAEPAXI@Z	; CSingleton<IBackground>::`scalar deleting destructor'
PUBLIC	??0?$CSingleton@VIBackground@@@@QAE@XZ		; CSingleton<IBackground>::CSingleton<IBackground>
PUBLIC	??1IBackground@@UAE@XZ				; IBackground::~IBackground
PUBLIC	?GetLODLevel@CGrannyLODController@@QAEEXZ	; CGrannyLODController::GetLODLevel
PUBLIC	??0D3DXCOLOR@@QAE@K@Z				; D3DXCOLOR::D3DXCOLOR
PUBLIC	?resize@?$basic_string@DU?$char_traits@D@std@@V?$allocator@D@2@@std@@QAEXID@Z ; std::basic_string<char,std::char_traits<char>,std::allocator<char> >::resize
PUBLIC	?append@?$basic_string@DU?$char_traits@D@std@@V?$allocator@D@2@@std@@QAEAAV12@ID@Z ; std::basic_string<char,std::char_traits<char>,std::allocator<char> >::append
PUBLIC	??$_Reallocate_grow_by@V<lambda_1>@?1??append@?$basic_string@DU?$char_traits@D@std@@V?$allocator@D@2@@std@@QAEAAV34@ID@Z@ID@?$basic_string@DU?$char_traits@D@std@@V?$allocator@D@2@@std@@AAEAAV01@IV<lambda_1>@?1??append@01@QAEAAV01@ID@Z@ID@Z ; std::basic_string<char,std::char_traits<char>,std::allocator<char> >::_Reallocate_grow_by<`std::basic_string<char,std::char_traits<char>,std::allocator<char> >::append'::`2'::<lambda_1>,unsigned int,char>
PUBLIC	??R<lambda_1>@?1??append@?$basic_string@DU?$char_traits@D@std@@V?$allocator@D@2@@std@@QAEAAV23@ID@Z@QBE@QADQBDIID@Z ; `std::basic_string<char,std::char_traits<char>,std::allocator<char> >::append'::`2'::<lambda_1>::operator()
PUBLIC	?assign@?$_Narrow_char_traits@DH@std@@SAPADQADID@Z ; std::_Narrow_char_traits<char,int>::assign
PUBLIC	?assign@?$_Char_traits@DH@std@@SAPADQADID@Z	; std::_Char_traits<char,int>::assign
PUBLIC	?_Eos@?$basic_string@DU?$char_traits@D@std@@V?$allocator@D@2@@std@@AAEXI@Z ; std::basic_string<char,std::char_traits<char>,std::allocator<char> >::_Eos
PUBLIC	?size@?$basic_string@DU?$char_traits@D@std@@V?$allocator@D@2@@std@@QBEIXZ ; std::basic_string<char,std::char_traits<char>,std::allocator<char> >::size
PUBLIC	_sprintf
PUBLIC	__vsprintf_l
PUBLIC	__vsnprintf_l
PUBLIC	___local_stdio_printf_options
PUBLIC	?sqrt@@YAMM@Z					; sqrt
PUBLIC	_fmodf
PUBLIC	?GetAuraEffectID@CItemData@@QBEKXZ		; CItemData::GetAuraEffectID
PUBLIC	??$_Construct_in_place@U_Container_proxy@std@@PAU_Container_base12@2@@std@@YAXAAU_Container_proxy@0@$$QAPAU_Container_base12@0@@Z ; std::_Construct_in_place<std::_Container_proxy,std::_Container_base12 *>
PUBLIC	??0_Container_proxy@std@@QAE@PAU_Container_base12@1@@Z ; std::_Container_proxy::_Container_proxy
PUBLIC	??$addressof@U_Container_proxy@std@@@std@@YAPAU_Container_proxy@0@AAU10@@Z ; std::addressof<std::_Container_proxy>
PUBLIC	??$construct_at@U_Container_proxy@std@@PAU_Container_base12@2@@std@@YAPAU_Container_proxy@0@QAU10@$$QAPAU_Container_base12@0@@Z ; std::construct_at<std::_Container_proxy,std::_Container_base12 *>
PUBLIC	??$forward@PAU_Container_base12@std@@@std@@YA$$QAPAU_Container_base12@0@AAPAU10@@Z ; std::forward<std::_Container_base12 *>
PUBLIC	?_Is_constant_evaluated@std@@YA_NXZ		; std::_Is_constant_evaluated
PUBLIC	?find@?$_Narrow_char_traits@DH@std@@SAPBDQBDIABD@Z ; std::_Narrow_char_traits<char,int>::find
PUBLIC	?_Adopt@_Iterator_base0@std@@QAEXPBX@Z		; std::_Iterator_base0::_Adopt
PUBLIC	??0_Container_base12@std@@QAE@XZ		; std::_Container_base12::_Container_base12
PUBLIC	?_Orphan_all@_Container_base12@std@@QAEXXZ	; std::_Container_base12::_Orphan_all
PUBLIC	?_Fnv1a_append_bytes@std@@YAIIQBEI@Z		; std::_Fnv1a_append_bytes
PUBLIC	?_Floor_of_log_2@std@@YAKI@Z			; std::_Floor_of_log_2
PUBLIC	?_Ceiling_of_log_2@std@@YAKI@Z			; std::_Ceiling_of_log_2
PUBLIC	_ceilf
PUBLIC	?_Orphan_non_end@?$_List_val@U?$_List_simple_types@U?$pair@$$CBKM@std@@@std@@@std@@QAEXXZ ; std::_List_val<std::_List_simple_types<std::pair<unsigned long const ,float> > >::_Orphan_non_end
PUBLIC	??0_Range_eraser@?$_Hash@V?$_Umap_traits@KMV?$_Uhash_compare@KU?$hash@K@std@@U?$equal_to@K@2@@std@@V?$allocator@U?$pair@$$CBKM@std@@@2@$0A@@std@@@std@@QAE@AAV?$list@U?$pair@$$CBKM@std@@V?$allocator@U?$pair@$$CBKM@std@@@2@@2@QAU?$_List_node@U?$pair@$$CBKM@std@@PAX@2@@Z ; std::_Hash<std::_Umap_traits<unsigned long,float,std::_Uhash_compare<unsigned long,std::hash<unsigned long>,std::equal_to<unsigned long> >,std::allocator<std::pair<unsigned long const ,float> >,0> >::_Range_eraser::_Range_eraser
PUBLIC	?_Bump_erased@_Range_eraser@?$_Hash@V?$_Umap_traits@KMV?$_Uhash_compare@KU?$hash@K@std@@U?$equal_to@K@2@@std@@V?$allocator@U?$pair@$$CBKM@std@@@2@$0A@@std@@@std@@QAEXXZ ; std::_Hash<std::_Umap_traits<unsigned long,float,std::_Uhash_compare<unsigned long,std::hash<unsigned long>,std::equal_to<unsigned long> >,std::allocator<std::pair<unsigned long const ,float> >,0> >::_Range_eraser::_Bump_erased
PUBLIC	??1_Range_eraser@?$_Hash@V?$_Umap_traits@KMV?$_Uhash_compare@KU?$hash@K@std@@U?$equal_to@K@2@@std@@V?$allocator@U?$pair@$$CBKM@std@@@2@$0A@@std@@@std@@QAE@XZ ; std::_Hash<std::_Umap_traits<unsigned long,float,std::_Uhash_compare<unsigned long,std::hash<unsigned long>,std::equal_to<unsigned long> >,std::allocator<std::pair<unsigned long const ,float> >,0> >::_Range_eraser::~_Range_eraser
PUBLIC	?_Unchecked_erase@?$_Hash@V?$_Umap_traits@KMV?$_Uhash_compare@KU?$hash@K@std@@U?$equal_to@K@2@@std@@V?$allocator@U?$pair@$$CBKM@std@@@2@$0A@@std@@@std@@AAEPAU?$_List_node@U?$pair@$$CBKM@std@@PAX@2@PAU32@QAU32@@Z ; std::_Hash<std::_Umap_traits<unsigned long,float,std::_Uhash_compare<unsigned long,std::hash<unsigned long>,std::equal_to<unsigned long> >,std::allocator<std::pair<unsigned long const ,float> >,0> >::_Unchecked_erase
PUBLIC	?clear@?$list@U?$pair@$$CBKM@std@@V?$allocator@U?$pair@$$CBKM@std@@@2@@std@@QAEXXZ ; std::list<std::pair<unsigned long const ,float>,std::allocator<std::pair<unsigned long const ,float> > >::clear
PUBLIC	?_Get_max_bucket_size@?$_Uhash_compare@KU?$hash@K@std@@U?$equal_to@K@2@@std@@QBEABMXZ ; std::_Uhash_compare<unsigned long,std::hash<unsigned long>,std::equal_to<unsigned long> >::_Get_max_bucket_size
PUBLIC	?clear@?$_Hash@V?$_Umap_traits@KMV?$_Uhash_compare@KU?$hash@K@std@@U?$equal_to@K@2@@std@@V?$allocator@U?$pair@$$CBKM@std@@@2@$0A@@std@@@std@@QAEXXZ ; std::_Hash<std::_Umap_traits<unsigned long,float,std::_Uhash_compare<unsigned long,std::hash<unsigned long>,std::equal_to<unsigned long> >,std::allocator<std::pair<unsigned long const ,float> >,0> >::clear
PUBLIC	?_Unchecked_begin@?$list@U?$pair@$$CBKM@std@@V?$allocator@U?$pair@$$CBKM@std@@@2@@std@@QAE?AV?$_List_unchecked_iterator@V?$_List_val@U?$_List_simple_types@U?$pair@$$CBKM@std@@@std@@@std@@@2@XZ ; std::list<std::pair<unsigned long const ,float>,std::allocator<std::pair<unsigned long const ,float> > >::_Unchecked_begin
PUBLIC	?_Get_first@?$_Compressed_pair@V?$allocator@U?$_List_node@U?$pair@$$CBKM@std@@PAX@std@@@std@@V?$_List_val@U?$_List_simple_types@U?$pair@$$CBKM@std@@@std@@@2@$00@std@@QBEABV?$allocator@U?$_List_node@U?$pair@$$CBKM@std@@PAX@std@@@2@XZ ; std::_Compressed_pair<std::allocator<std::_List_node<std::pair<unsigned long const ,float>,void *> >,std::_List_val<std::_List_simple_types<std::pair<unsigned long const ,float> > >,1>::_Get_first
PUBLIC	?max_size@?$_Default_allocator_traits@V?$allocator@V?$_List_unchecked_iterator@V?$_List_val@U?$_List_simple_types@U?$pair@$$CBKM@std@@@std@@@std@@@std@@@std@@@std@@SAIABV?$allocator@V?$_List_unchecked_iterator@V?$_List_val@U?$_List_simple_types@U?$pair@$$CBKM@std@@@std@@@std@@@std@@@2@@Z ; std::_Default_allocator_traits<std::allocator<std::_List_unchecked_iterator<std::_List_val<std::_List_simple_types<std::pair<unsigned long const ,float> > > > > >::max_size
PUBLIC	?_Get_first@?$_Compressed_pair@V?$allocator@V?$_List_unchecked_iterator@V?$_List_val@U?$_List_simple_types@U?$pair@$$CBKM@std@@@std@@@std@@@std@@@std@@V?$_Vector_val@U?$_Simple_types@V?$_List_unchecked_iterator@V?$_List_val@U?$_List_simple_types@U?$pair@$$CBKM@std@@@std@@@std@@@std@@@std@@@2@$00@std@@QBEABV?$allocator@V?$_List_unchecked_iterator@V?$_List_val@U?$_List_simple_types@U?$pair@$$CBKM@std@@@std@@@std@@@std@@@2@XZ ; std::_Compressed_pair<std::allocator<std::_List_unchecked_iterator<std::_List_val<std::_List_simple_types<std::pair<unsigned long const ,float> > > > >,std::_Vector_val<std::_Simple_types<std::_List_unchecked_iterator<std::_List_val<std::_List_simple_types<std::pair<unsigned long const ,float> > > > > >,1>::_Get_first
PUBLIC	?_Unchecked_begin@?$_Hash@V?$_Umap_traits@KMV?$_Uhash_compare@KU?$hash@K@std@@U?$equal_to@K@2@@std@@V?$allocator@U?$pair@$$CBKM@std@@@2@$0A@@std@@@std@@QAE?AV?$_List_unchecked_iterator@V?$_List_val@U?$_List_simple_types@U?$pair@$$CBKM@std@@@std@@@std@@@2@XZ ; std::_Hash<std::_Umap_traits<unsigned long,float,std::_Uhash_compare<unsigned long,std::hash<unsigned long>,std::equal_to<unsigned long> >,std::allocator<std::pair<unsigned long const ,float> >,0> >::_Unchecked_begin
PUBLIC	?_Unchecked_end@?$_Hash@V?$_Umap_traits@KMV?$_Uhash_compare@KU?$hash@K@std@@U?$equal_to@K@2@@std@@V?$allocator@U?$pair@$$CBKM@std@@@2@$0A@@std@@@std@@QAE?AV?$_List_unchecked_iterator@V?$_List_val@U?$_List_simple_types@U?$pair@$$CBKM@std@@@std@@@std@@@2@XZ ; std::_Hash<std::_Umap_traits<unsigned long,float,std::_Uhash_compare<unsigned long,std::hash<unsigned long>,std::equal_to<unsigned long> >,std::allocator<std::pair<unsigned long const ,float> >,0> >::_Unchecked_end
PUBLIC	?bucket@?$_Hash@V?$_Umap_traits@KMV?$_Uhash_compare@KU?$hash@K@std@@U?$equal_to@K@2@@std@@V?$allocator@U?$pair@$$CBKM@std@@@2@$0A@@std@@@std@@QBEIABK@Z ; std::_Hash<std::_Umap_traits<unsigned long,float,std::_Uhash_compare<unsigned long,std::hash<unsigned long>,std::equal_to<unsigned long> >,std::allocator<std::pair<unsigned long const ,float> >,0> >::bucket
PUBLIC	?_Min_load_factor_buckets@?$_Hash@V?$_Umap_traits@KMV?$_Uhash_compare@KU?$hash@K@std@@U?$equal_to@K@2@@std@@V?$allocator@U?$pair@$$CBKM@std@@@2@$0A@@std@@@std@@IBEII@Z ; std::_Hash<std::_Umap_traits<unsigned long,float,std::_Uhash_compare<unsigned long,std::hash<unsigned long>,std::equal_to<unsigned long> >,std::allocator<std::pair<unsigned long const ,float> >,0> >::_Min_load_factor_buckets
PUBLIC	?_Max_bucket_size@?$_Hash@V?$_Umap_traits@KMV?$_Uhash_compare@KU?$hash@K@std@@U?$equal_to@K@2@@std@@V?$allocator@U?$pair@$$CBKM@std@@@2@$0A@@std@@@std@@IBEABMXZ ; std::_Hash<std::_Umap_traits<unsigned long,float,std::_Uhash_compare<unsigned long,std::hash<unsigned long>,std::equal_to<unsigned long> >,std::allocator<std::pair<unsigned long const ,float> >,0> >::_Max_bucket_size
PUBLIC	?_Getal@?$list@U?$pair@$$CBKM@std@@V?$allocator@U?$pair@$$CBKM@std@@@2@@std@@ABEABV?$allocator@U?$_List_node@U?$pair@$$CBKM@std@@PAX@std@@@2@XZ ; std::list<std::pair<unsigned long const ,float>,std::allocator<std::pair<unsigned long const ,float> > >::_Getal
PUBLIC	?max_size@?$_Default_allocator_traits@V?$allocator@U?$_List_node@U?$pair@$$CBKM@std@@PAX@std@@@std@@@std@@SAIABV?$allocator@U?$_List_node@U?$pair@$$CBKM@std@@PAX@std@@@2@@Z ; std::_Default_allocator_traits<std::allocator<std::_List_node<std::pair<unsigned long const ,float>,void *> > >::max_size
PUBLIC	?_Unchecked_splice@?$_List_val@U?$_List_simple_types@U?$pair@$$CBKM@std@@@std@@@std@@SAPAU?$_List_node@U?$pair@$$CBKM@std@@PAX@2@QAU32@00@Z ; std::_List_val<std::_List_simple_types<std::pair<unsigned long const ,float> > >::_Unchecked_splice
PUBLIC	??D?$_List_unchecked_iterator@V?$_List_val@U?$_List_simple_types@U?$pair@$$CBKM@std@@@std@@@std@@@std@@QBEAAU?$pair@$$CBKM@1@XZ ; std::_List_unchecked_iterator<std::_List_val<std::_List_simple_types<std::pair<unsigned long const ,float> > > >::operator*
PUBLIC	??E?$_List_unchecked_iterator@V?$_List_val@U?$_List_simple_types@U?$pair@$$CBKM@std@@@std@@@std@@@std@@QAEAAV01@XZ ; std::_List_unchecked_iterator<std::_List_val<std::_List_simple_types<std::pair<unsigned long const ,float> > > >::operator++
PUBLIC	??D?$_List_unchecked_const_iterator@V?$_List_val@U?$_List_simple_types@U?$pair@$$CBKM@std@@@std@@@std@@U_Iterator_base0@2@@std@@QBEABU?$pair@$$CBKM@1@XZ ; std::_List_unchecked_const_iterator<std::_List_val<std::_List_simple_types<std::pair<unsigned long const ,float> > >,std::_Iterator_base0>::operator*
PUBLIC	??E?$_List_unchecked_const_iterator@V?$_List_val@U?$_List_simple_types@U?$pair@$$CBKM@std@@@std@@@std@@U_Iterator_base0@2@@std@@QAEAAV01@XZ ; std::_List_unchecked_const_iterator<std::_List_val<std::_List_simple_types<std::pair<unsigned long const ,float> > >,std::_Iterator_base0>::operator++
PUBLIC	??F?$_List_unchecked_const_iterator@V?$_List_val@U?$_List_simple_types@U?$pair@$$CBKM@std@@@std@@@std@@U_Iterator_base0@2@@std@@QAEAAV01@XZ ; std::_List_unchecked_const_iterator<std::_List_val<std::_List_simple_types<std::pair<unsigned long const ,float> > >,std::_Iterator_base0>::operator--
PUBLIC	??8?$_List_unchecked_const_iterator@V?$_List_val@U?$_List_simple_types@U?$pair@$$CBKM@std@@@std@@@std@@U_Iterator_base0@2@@std@@QBE_NABV01@@Z ; std::_List_unchecked_const_iterator<std::_List_val<std::_List_simple_types<std::pair<unsigned long const ,float> > >,std::_Iterator_base0>::operator==
PUBLIC	??0_Clear_guard@?$_Hash@V?$_Umap_traits@KMV?$_Uhash_compare@KU?$hash@K@std@@U?$equal_to@K@2@@std@@V?$allocator@U?$pair@$$CBKM@std@@@2@$0A@@std@@@std@@QAE@QAV12@@Z ; std::_Hash<std::_Umap_traits<unsigned long,float,std::_Uhash_compare<unsigned long,std::hash<unsigned long>,std::equal_to<unsigned long> >,std::allocator<std::pair<unsigned long const ,float> >,0> >::_Clear_guard::_Clear_guard
PUBLIC	??1_Clear_guard@?$_Hash@V?$_Umap_traits@KMV?$_Uhash_compare@KU?$hash@K@std@@U?$equal_to@K@2@@std@@V?$allocator@U?$pair@$$CBKM@std@@@2@$0A@@std@@@std@@QAE@XZ ; std::_Hash<std::_Umap_traits<unsigned long,float,std::_Uhash_compare<unsigned long,std::hash<unsigned long>,std::equal_to<unsigned long> >,std::allocator<std::pair<unsigned long const ,float> >,0> >::_Clear_guard::~_Clear_guard
PUBLIC	?max_size@?$_Hash_vec@V?$allocator@V?$_List_unchecked_iterator@V?$_List_val@U?$_List_simple_types@U?$pair@$$CBKM@std@@@std@@@std@@@std@@@std@@@std@@QBEIXZ ; std::_Hash_vec<std::allocator<std::_List_unchecked_iterator<std::_List_val<std::_List_simple_types<std::pair<unsigned long const ,float> > > > > >::max_size
PUBLIC	??$construct_at@PAU?$_List_node@U?$pair@$$CBKM@std@@PAX@std@@ABQAU12@@std@@YAPAPAU?$_List_node@U?$pair@$$CBKM@std@@PAX@0@QAPAU10@ABQAU10@@Z ; std::construct_at<std::_List_node<std::pair<unsigned long const ,float>,void *> *,std::_List_node<std::pair<unsigned long const ,float>,void *> * const &>
PUBLIC	??$forward@ABQAU?$_List_node@U?$pair@$$CBKM@std@@PAX@std@@@std@@YAABQAU?$_List_node@U?$pair@$$CBKM@std@@PAX@0@ABQAU10@@Z ; std::forward<std::_List_node<std::pair<unsigned long const ,float>,void *> * const &>
PUBLIC	??$construct_at@V?$_List_unchecked_iterator@V?$_List_val@U?$_List_simple_types@U?$pair@$$CBKM@std@@@std@@@std@@@std@@ABV12@@std@@YAPAV?$_List_unchecked_iterator@V?$_List_val@U?$_List_simple_types@U?$pair@$$CBKM@std@@@std@@@std@@@0@QAV10@ABV10@@Z ; std::construct_at<std::_List_unchecked_iterator<std::_List_val<std::_List_simple_types<std::pair<unsigned long const ,float> > > >,std::_List_unchecked_iterator<std::_List_val<std::_List_simple_types<std::pair<unsigned long const ,float> > > > const &>
PUBLIC	??$addressof@V?$_List_unchecked_iterator@V?$_List_val@U?$_List_simple_types@U?$pair@$$CBKM@std@@@std@@@std@@@std@@@std@@YAPAV?$_List_unchecked_iterator@V?$_List_val@U?$_List_simple_types@U?$pair@$$CBKM@std@@@std@@@std@@@0@AAV10@@Z ; std::addressof<std::_List_unchecked_iterator<std::_List_val<std::_List_simple_types<std::pair<unsigned long const ,float> > > > >
PUBLIC	??$construct_at@PAVCInstanceBase@@PAV1@@std@@YAPAPAVCInstanceBase@@QAPAV1@$$QAPAV1@@Z ; std::construct_at<CInstanceBase *,CInstanceBase *>
PUBLIC	??$construct_at@U?$pair@$$CBKM@std@@ABU12@@std@@YAPAU?$pair@$$CBKM@0@QAU10@ABU10@@Z ; std::construct_at<std::pair<unsigned long const ,float>,std::pair<unsigned long const ,float> const &>
PUBLIC	??$construct_at@KK@std@@YAPAKQAK$$QAK@Z		; std::construct_at<unsigned long,unsigned long>
PUBLIC	?bucket_count@?$_Hash@V?$_Umap_traits@KMV?$_Uhash_compare@KU?$hash@K@std@@U?$equal_to@K@2@@std@@V?$allocator@U?$pair@$$CBKM@std@@@2@$0A@@std@@@std@@QBEIXZ ; std::_Hash<std::_Umap_traits<unsigned long,float,std::_Uhash_compare<unsigned long,std::hash<unsigned long>,std::equal_to<unsigned long> >,std::allocator<std::pair<unsigned long const ,float> >,0> >::bucket_count
PUBLIC	?max_load_factor@?$_Hash@V?$_Umap_traits@KMV?$_Uhash_compare@KU?$hash@K@std@@U?$equal_to@K@2@@std@@V?$allocator@U?$pair@$$CBKM@std@@@2@$0A@@std@@@std@@QBEMXZ ; std::_Hash<std::_Umap_traits<unsigned long,float,std::_Uhash_compare<unsigned long,std::hash<unsigned long>,std::equal_to<unsigned long> >,std::allocator<std::pair<unsigned long const ,float> >,0> >::max_load_factor
PUBLIC	?_Desired_grow_bucket_count@?$_Hash@V?$_Umap_traits@KMV?$_Uhash_compare@KU?$hash@K@std@@U?$equal_to@K@2@@std@@V?$allocator@U?$pair@$$CBKM@std@@@2@$0A@@std@@@std@@IBEII@Z ; std::_Hash<std::_Umap_traits<unsigned long,float,std::_Uhash_compare<unsigned long,std::hash<unsigned long>,std::equal_to<unsigned long> >,std::allocator<std::pair<unsigned long const ,float> >,0> >::_Desired_grow_bucket_count
PUBLIC	?_Forced_rehash@?$_Hash@V?$_Umap_traits@KMV?$_Uhash_compare@KU?$hash@K@std@@U?$equal_to@K@2@@std@@V?$allocator@U?$pair@$$CBKM@std@@@2@$0A@@std@@@std@@IAEXI@Z ; std::_Hash<std::_Umap_traits<unsigned long,float,std::_Uhash_compare<unsigned long,std::hash<unsigned long>,std::equal_to<unsigned long> >,std::allocator<std::pair<unsigned long const ,float> >,0> >::_Forced_rehash
PUBLIC	?max_size@?$list@U?$pair@$$CBKM@std@@V?$allocator@U?$pair@$$CBKM@std@@@2@@std@@QBEIXZ ; std::list<std::pair<unsigned long const ,float>,std::allocator<std::pair<unsigned long const ,float> > >::max_size
PUBLIC	??0?$_Alloc_construct_ptr@V?$allocator@U?$_List_node@U?$pair@$$CBKM@std@@PAX@std@@@std@@@std@@QAE@AAV?$allocator@U?$_List_node@U?$pair@$$CBKM@std@@PAX@std@@@1@@Z ; std::_Alloc_construct_ptr<std::allocator<std::_List_node<std::pair<unsigned long const ,float>,void *> > >::_Alloc_construct_ptr<std::allocator<std::_List_node<std::pair<unsigned long const ,float>,void *> > >
PUBLIC	?_Allocate@?$_Alloc_construct_ptr@V?$allocator@U?$_List_node@U?$pair@$$CBKM@std@@PAX@std@@@std@@@std@@QAEXXZ ; std::_Alloc_construct_ptr<std::allocator<std::_List_node<std::pair<unsigned long const ,float>,void *> > >::_Allocate
PUBLIC	??1?$_Alloc_construct_ptr@V?$allocator@U?$_List_node@U?$pair@$$CBKM@std@@PAX@std@@@std@@@std@@QAE@XZ ; std::_Alloc_construct_ptr<std::allocator<std::_List_node<std::pair<unsigned long const ,float>,void *> > >::~_Alloc_construct_ptr<std::allocator<std::_List_node<std::pair<unsigned long const ,float>,void *> > >
PUBLIC	??$_Get_size_of_n@$0BI@@std@@YAII@Z		; std::_Get_size_of_n<24>
PUBLIC	??$_Construct_in_place@PAU?$_List_node@U?$pair@$$CBKM@std@@PAX@std@@ABQAU12@@std@@YAXAAPAU?$_List_node@U?$pair@$$CBKM@std@@PAX@0@ABQAU10@@Z ; std::_Construct_in_place<std::_List_node<std::pair<unsigned long const ,float>,void *> *,std::_List_node<std::pair<unsigned long const ,float>,void *> * const &>
PUBLIC	??$_Get_size_of_n@$0BA@@std@@YAII@Z		; std::_Get_size_of_n<16>
PUBLIC	??$exchange@PAU?$_List_node@U?$pair@$$CBKM@std@@PAX@std@@$$T@std@@YAPAU?$_List_node@U?$pair@$$CBKM@std@@PAX@0@AAPAU10@$$QA$$T@Z ; std::exchange<std::_List_node<std::pair<unsigned long const ,float>,void *> *,std::nullptr_t>
PUBLIC	??$_Fnv1a_append_value@K@std@@YAIIABK@Z		; std::_Fnv1a_append_value<unsigned long>
PUBLIC	??$construct_at@PAU?$_List_node@U?$pair@$$CBKM@std@@PAX@std@@AAPAU12@@std@@YAPAPAU?$_List_node@U?$pair@$$CBKM@std@@PAX@0@QAPAU10@AAPAU10@@Z ; std::construct_at<std::_List_node<std::pair<unsigned long const ,float>,void *> *,std::_List_node<std::pair<unsigned long const ,float>,void *> * &>
PUBLIC	??$forward@AAPAU?$_List_node@U?$pair@$$CBKM@std@@PAX@std@@@std@@YAAAPAU?$_List_node@U?$pair@$$CBKM@std@@PAX@0@AAPAU10@@Z ; std::forward<std::_List_node<std::pair<unsigned long const ,float>,void *> * &>
PUBLIC	??$addressof@PAU?$_List_node@U?$pair@$$CBKM@std@@PAX@std@@@std@@YAPAPAU?$_List_node@U?$pair@$$CBKM@std@@PAX@0@AAPAU10@@Z ; std::addressof<std::_List_node<std::pair<unsigned long const ,float>,void *> *>
PUBLIC	??$construct_at@PAU?$_Tree_node@U?$pair@$$CBKK@std@@PAX@std@@ABQAU12@@std@@YAPAPAU?$_Tree_node@U?$pair@$$CBKK@std@@PAX@0@QAPAU10@ABQAU10@@Z ; std::construct_at<std::_Tree_node<std::pair<unsigned long const ,unsigned long>,void *> *,std::_Tree_node<std::pair<unsigned long const ,unsigned long>,void *> * const &>
PUBLIC	??$forward@ABQAU?$_Tree_node@U?$pair@$$CBKK@std@@PAX@std@@@std@@YAABQAU?$_Tree_node@U?$pair@$$CBKK@std@@PAX@0@ABQAU10@@Z ; std::forward<std::_Tree_node<std::pair<unsigned long const ,unsigned long>,void *> * const &>
PUBLIC	??$addressof@PAU?$_Tree_node@U?$pair@$$CBKK@std@@PAX@std@@@std@@YAPAPAU?$_Tree_node@U?$pair@$$CBKK@std@@PAX@0@AAPAU10@@Z ; std::addressof<std::_Tree_node<std::pair<unsigned long const ,unsigned long>,void *> *>
PUBLIC	??$_Construct_in_place@V?$_List_unchecked_iterator@V?$_List_val@U?$_List_simple_types@U?$pair@$$CBKM@std@@@std@@@std@@@std@@ABV12@@std@@YAXAAV?$_List_unchecked_iterator@V?$_List_val@U?$_List_simple_types@U?$pair@$$CBKM@std@@@std@@@std@@@0@ABV10@@Z ; std::_Construct_in_place<std::_List_unchecked_iterator<std::_List_val<std::_List_simple_types<std::pair<unsigned long const ,float> > > >,std::_List_unchecked_iterator<std::_List_val<std::_List_simple_types<std::pair<unsigned long const ,float> > > > const &>
PUBLIC	??$forward@ABV?$_List_unchecked_iterator@V?$_List_val@U?$_List_simple_types@U?$pair@$$CBKM@std@@@std@@@std@@@std@@@std@@YAABV?$_List_unchecked_iterator@V?$_List_val@U?$_List_simple_types@U?$pair@$$CBKM@std@@@std@@@std@@@0@ABV10@@Z ; std::forward<std::_List_unchecked_iterator<std::_List_val<std::_List_simple_types<std::pair<unsigned long const ,float> > > > const &>
PUBLIC	??$construct_at@PAVCInstanceBase@@ABQAV1@@std@@YAPAPAVCInstanceBase@@QAPAV1@ABQAV1@@Z ; std::construct_at<CInstanceBase *,CInstanceBase * const &>
PUBLIC	??$addressof@PAVCInstanceBase@@@std@@YAPAPAVCInstanceBase@@AAPAV1@@Z ; std::addressof<CInstanceBase *>
PUBLIC	??$construct@PAVCInstanceBase@@PAV1@@?$_Default_allocator_traits@V?$allocator@PAVCInstanceBase@@@std@@@std@@SAXAAV?$allocator@PAVCInstanceBase@@@1@QAPAVCInstanceBase@@$$QAPAV3@@Z ; std::_Default_allocator_traits<std::allocator<CInstanceBase *> >::construct<CInstanceBase *,CInstanceBase *>
PUBLIC	??$forward@PAVCInstanceBase@@@std@@YA$$QAPAVCInstanceBase@@AAPAV1@@Z ; std::forward<CInstanceBase *>
PUBLIC	??$_Copy_memmove_tail@PAPAVCInstanceBase@@@std@@YAPAPAVCInstanceBase@@QBDQAPAV1@II@Z ; std::_Copy_memmove_tail<CInstanceBase * *>
PUBLIC	??$move@AAPAPAVCInstanceBase@@@std@@YA$$QAPAPAVCInstanceBase@@AAPAPAV1@@Z ; std::move<CInstanceBase * * &>
PUBLIC	??$to_address@PAVCInstanceBase@@@std@@YAPAPAVCInstanceBase@@QAPAV1@@Z ; std::to_address<CInstanceBase *>
PUBLIC	??$forward@V?$_List_iterator@V?$_List_val@U?$_List_simple_types@U?$pair@$$CBKM@std@@@std@@@std@@@std@@@std@@YA$$QAV?$_List_iterator@V?$_List_val@U?$_List_simple_types@U?$pair@$$CBKM@std@@@std@@@std@@@0@AAV10@@Z ; std::forward<std::_List_iterator<std::_List_val<std::_List_simple_types<std::pair<unsigned long const ,float> > > > >
PUBLIC	??$construct@U?$pair@$$CBKM@std@@ABU12@@?$_Default_allocator_traits@V?$allocator@U?$_List_node@U?$pair@$$CBKM@std@@PAX@std@@@std@@@std@@SAXAAV?$allocator@U?$_List_node@U?$pair@$$CBKM@std@@PAX@std@@@1@QAU?$pair@$$CBKM@1@ABU31@@Z ; std::_Default_allocator_traits<std::allocator<std::_List_node<std::pair<unsigned long const ,float>,void *> > >::construct<std::pair<unsigned long const ,float>,std::pair<unsigned long const ,float> const &>
PUBLIC	??$destroy_at@U?$pair@$$CBKM@std@@@std@@YAXQAU?$pair@$$CBKM@0@@Z ; std::destroy_at<std::pair<unsigned long const ,float> >
PUBLIC	??$construct@KK@?$_Default_allocator_traits@V?$allocator@K@std@@@std@@SAXAAV?$allocator@K@1@QAK$$QAK@Z ; std::_Default_allocator_traits<std::allocator<unsigned long> >::construct<unsigned long,unsigned long>
PUBLIC	??$forward@K@std@@YA$$QAKAAK@Z			; std::forward<unsigned long>
PUBLIC	??$destroy_at@U?$pair@$$CBKK@std@@@std@@YAXQAU?$pair@$$CBKK@0@@Z ; std::destroy_at<std::pair<unsigned long const ,unsigned long> >
PUBLIC	?deallocate@?$allocator@U_Container_proxy@std@@@std@@QAEXQAU_Container_proxy@2@I@Z ; std::allocator<std::_Container_proxy>::deallocate
PUBLIC	??0?$allocator@U?$_Tree_node@U?$pair@$$CBKK@std@@PAX@std@@@std@@QAE@XZ ; std::allocator<std::_Tree_node<std::pair<unsigned long const ,unsigned long>,void *> >::allocator<std::_Tree_node<std::pair<unsigned long const ,unsigned long>,void *> >
PUBLIC	?deallocate@?$allocator@U?$_Tree_node@U?$pair@$$CBKK@std@@PAX@std@@@std@@QAEXQAU?$_Tree_node@U?$pair@$$CBKK@std@@PAX@2@I@Z ; std::allocator<std::_Tree_node<std::pair<unsigned long const ,unsigned long>,void *> >::deallocate
PUBLIC	?allocate@?$allocator@U?$_Tree_node@U?$pair@$$CBKK@std@@PAX@std@@@std@@QAEPAU?$_Tree_node@U?$pair@$$CBKK@std@@PAX@2@I@Z ; std::allocator<std::_Tree_node<std::pair<unsigned long const ,unsigned long>,void *> >::allocate
PUBLIC	??0?$_Tree_val@U?$_Tree_simple_types@U?$pair@$$CBKK@std@@@std@@@std@@QAE@XZ ; std::_Tree_val<std::_Tree_simple_types<std::pair<unsigned long const ,unsigned long> > >::_Tree_val<std::_Tree_simple_types<std::pair<unsigned long const ,unsigned long> > >
PUBLIC	?allocate@?$allocator@PAVCInstanceBase@@@std@@QAEPAPAVCInstanceBase@@I@Z ; std::allocator<CInstanceBase *>::allocate
PUBLIC	?_Calculate_growth@?$vector@PAVCInstanceBase@@V?$allocator@PAVCInstanceBase@@@std@@@std@@ABEII@Z ; std::vector<CInstanceBase *,std::allocator<CInstanceBase *> >::_Calculate_growth
PUBLIC	?deallocate@?$allocator@U?$_List_node@USCommand@CInstanceBase@@PAX@std@@@std@@QAEXQAU?$_List_node@USCommand@CInstanceBase@@PAX@2@I@Z ; std::allocator<std::_List_node<CInstanceBase::SCommand,void *> >::deallocate
PUBLIC	?_Get_first@?$_Compressed_pair@V?$allocator@U?$_List_node@USCommand@CInstanceBase@@PAX@std@@@std@@V?$_List_val@U?$_List_simple_types@USCommand@CInstanceBase@@@std@@@2@$00@std@@QBEABV?$allocator@U?$_List_node@USCommand@CInstanceBase@@PAX@std@@@2@XZ ; std::_Compressed_pair<std::allocator<std::_List_node<CInstanceBase::SCommand,void *> >,std::_List_val<std::_List_simple_types<CInstanceBase::SCommand> >,1>::_Get_first
PUBLIC	?_Get_data@?$deque@USEffectDamage@CInstanceBase@@V?$allocator@USEffectDamage@CInstanceBase@@@std@@@std@@ABEABV?$_Deque_val@U?$_Deque_simple_types@USEffectDamage@CInstanceBase@@@std@@@2@XZ ; std::deque<CInstanceBase::SEffectDamage,std::allocator<CInstanceBase::SEffectDamage> >::_Get_data
PUBLIC	?_Getblock@?$_Deque_val@U?$_Deque_simple_types@USEffectDamage@CInstanceBase@@@std@@@std@@QBEHI@Z ; std::_Deque_val<std::_Deque_simple_types<CInstanceBase::SEffectDamage> >::_Getblock
PUBLIC	??R?$equal_to@K@std@@QBE_NABK0@Z		; std::equal_to<unsigned long>::operator()
PUBLIC	?_Get_first@?$_Compressed_pair@U?$equal_to@K@std@@M$00@std@@QBEABU?$equal_to@K@2@XZ ; std::_Compressed_pair<std::equal_to<unsigned long>,float,1>::_Get_first
PUBLIC	??1_Reallocation_guard@?$vector@PAVCInstanceBase@@V?$allocator@PAVCInstanceBase@@@std@@@std@@QAE@XZ ; std::vector<CInstanceBase *,std::allocator<CInstanceBase *> >::_Reallocation_guard::~_Reallocation_guard
PUBLIC	?_Get_first@?$_Compressed_pair@V?$allocator@PAVCInstanceBase@@@std@@V?$_Vector_val@U?$_Simple_types@PAVCInstanceBase@@@std@@@2@$00@std@@QBEABV?$allocator@PAVCInstanceBase@@@2@XZ ; std::_Compressed_pair<std::allocator<CInstanceBase *>,std::_Vector_val<std::_Simple_types<CInstanceBase *> >,1>::_Get_first
PUBLIC	?_Insert_new_node_before@?$_Hash@V?$_Umap_traits@KMV?$_Uhash_compare@KU?$hash@K@std@@U?$equal_to@K@2@@std@@V?$allocator@U?$pair@$$CBKM@std@@@2@$0A@@std@@@std@@IAEPAU?$_List_node@U?$pair@$$CBKM@std@@PAX@2@IQAU32@0@Z ; std::_Hash<std::_Umap_traits<unsigned long,float,std::_Uhash_compare<unsigned long,std::hash<unsigned long>,std::equal_to<unsigned long> >,std::allocator<std::pair<unsigned long const ,float> >,0> >::_Insert_new_node_before
PUBLIC	?_Check_max_size@?$_Hash@V?$_Umap_traits@KMV?$_Uhash_compare@KU?$hash@K@std@@U?$equal_to@K@2@@std@@V?$allocator@U?$pair@$$CBKM@std@@@2@$0A@@std@@@std@@IBEXXZ ; std::_Hash<std::_Umap_traits<unsigned long,float,std::_Uhash_compare<unsigned long,std::hash<unsigned long>,std::equal_to<unsigned long> >,std::allocator<std::pair<unsigned long const ,float> >,0> >::_Check_max_size
PUBLIC	?_Check_rehash_required_1@?$_Hash@V?$_Umap_traits@KMV?$_Uhash_compare@KU?$hash@K@std@@U?$equal_to@K@2@@std@@V?$allocator@U?$pair@$$CBKM@std@@@2@$0A@@std@@@std@@IBE_NXZ ; std::_Hash<std::_Umap_traits<unsigned long,float,std::_Uhash_compare<unsigned long,std::hash<unsigned long>,std::equal_to<unsigned long> >,std::allocator<std::pair<unsigned long const ,float> >,0> >::_Check_rehash_required_1
PUBLIC	?_Rehash_for_1@?$_Hash@V?$_Umap_traits@KMV?$_Uhash_compare@KU?$hash@K@std@@U?$equal_to@K@2@@std@@V?$allocator@U?$pair@$$CBKM@std@@@2@$0A@@std@@@std@@IAEXXZ ; std::_Hash<std::_Umap_traits<unsigned long,float,std::_Uhash_compare<unsigned long,std::hash<unsigned long>,std::equal_to<unsigned long> >,std::allocator<std::pair<unsigned long const ,float> >,0> >::_Rehash_for_1
PUBLIC	?deallocate@?$allocator@U?$_List_node@U?$pair@$$CBKM@std@@PAX@std@@@std@@QAEXQAU?$_List_node@U?$pair@$$CBKM@std@@PAX@2@I@Z ; std::allocator<std::_List_node<std::pair<unsigned long const ,float>,void *> >::deallocate
PUBLIC	?allocate@?$allocator@U?$_List_node@U?$pair@$$CBKM@std@@PAX@std@@@std@@QAEPAU?$_List_node@U?$pair@$$CBKM@std@@PAX@2@I@Z ; std::allocator<std::_List_node<std::pair<unsigned long const ,float>,void *> >::allocate
PUBLIC	??0?$_List_val@U?$_List_simple_types@U?$pair@$$CBKM@std@@@std@@@std@@QAE@XZ ; std::_List_val<std::_List_simple_types<std::pair<unsigned long const ,float> > >::_List_val<std::_List_simple_types<std::pair<unsigned long const ,float> > >
PUBLIC	??0?$_Vector_val@U?$_Simple_types@V?$_List_unchecked_iterator@V?$_List_val@U?$_List_simple_types@U?$pair@$$CBKM@std@@@std@@@std@@@std@@@std@@@std@@QAE@XZ ; std::_Vector_val<std::_Simple_types<std::_List_unchecked_iterator<std::_List_val<std::_List_simple_types<std::pair<unsigned long const ,float> > > > > >::_Vector_val<std::_Simple_types<std::_List_unchecked_iterator<std::_List_val<std::_List_simple_types<std::pair<unsigned long const ,float> > > > > >
PUBLIC	?_Extract@?$_In_place_key_extract_map_impl@KU?$pair@$$CBKM@std@@@std@@SAABKABU?$pair@$$CBKM@2@@Z ; std::_In_place_key_extract_map_impl<unsigned long,std::pair<unsigned long const ,float> >::_Extract
PUBLIC	??1?$_List_node_emplace_op2@V?$allocator@U?$_List_node@U?$pair@$$CBKM@std@@PAX@std@@@std@@@std@@QAE@XZ ; std::_List_node_emplace_op2<std::allocator<std::_List_node<std::pair<unsigned long const ,float>,void *> > >::~_List_node_emplace_op2<std::allocator<std::_List_node<std::pair<unsigned long const ,float>,void *> > >
PUBLIC	?_Release@?$_Alloc_construct_ptr@V?$allocator@U?$_List_node@U?$pair@$$CBKM@std@@PAX@std@@@std@@@std@@QAEPAU?$_List_node@U?$pair@$$CBKM@std@@PAX@2@XZ ; std::_Alloc_construct_ptr<std::allocator<std::_List_node<std::pair<unsigned long const ,float>,void *> > >::_Release
PUBLIC	??0?$_Uninitialized_backout_al@V?$allocator@PAVCInstanceBase@@@std@@@std@@QAE@PAPAVCInstanceBase@@AAV?$allocator@PAVCInstanceBase@@@1@@Z ; std::_Uninitialized_backout_al<std::allocator<CInstanceBase *> >::_Uninitialized_backout_al<std::allocator<CInstanceBase *> >
PUBLIC	??1?$_Uninitialized_backout_al@V?$allocator@PAVCInstanceBase@@@std@@@std@@QAE@XZ ; std::_Uninitialized_backout_al<std::allocator<CInstanceBase *> >::~_Uninitialized_backout_al<std::allocator<CInstanceBase *> >
PUBLIC	?_Release@?$_Uninitialized_backout_al@V?$allocator@PAVCInstanceBase@@@std@@@std@@QAEPAPAVCInstanceBase@@XZ ; std::_Uninitialized_backout_al<std::allocator<CInstanceBase *> >::_Release
PUBLIC	??0?$_Uninitialized_backout@PAV?$_List_unchecked_iterator@V?$_List_val@U?$_List_simple_types@U?$pair@$$CBKM@std@@@std@@@std@@@std@@@std@@QAE@PAV?$_List_unchecked_iterator@V?$_List_val@U?$_List_simple_types@U?$pair@$$CBKM@std@@@std@@@std@@@1@@Z ; std::_Uninitialized_backout<std::_List_unchecked_iterator<std::_List_val<std::_List_simple_types<std::pair<unsigned long const ,float> > > > *>::_Uninitialized_backout<std::_List_unchecked_iterator<std::_List_val<std::_List_simple_types<std::pair<unsigned long const ,float> > > > *>
PUBLIC	??1?$_Uninitialized_backout@PAV?$_List_unchecked_iterator@V?$_List_val@U?$_List_simple_types@U?$pair@$$CBKM@std@@@std@@@std@@@std@@@std@@QAE@XZ ; std::_Uninitialized_backout<std::_List_unchecked_iterator<std::_List_val<std::_List_simple_types<std::pair<unsigned long const ,float> > > > *>::~_Uninitialized_backout<std::_List_unchecked_iterator<std::_List_val<std::_List_simple_types<std::pair<unsigned long const ,float> > > > *>
PUBLIC	?_Release@?$_Uninitialized_backout@PAV?$_List_unchecked_iterator@V?$_List_val@U?$_List_simple_types@U?$pair@$$CBKM@std@@@std@@@std@@@std@@@std@@QAEPAV?$_List_unchecked_iterator@V?$_List_val@U?$_List_simple_types@U?$pair@$$CBKM@std@@@std@@@std@@@2@XZ ; std::_Uninitialized_backout<std::_List_unchecked_iterator<std::_List_val<std::_List_simple_types<std::pair<unsigned long const ,float> > > > *>::_Release
PUBLIC	??$_Unfancy@USEffectDamage@CInstanceBase@@@std@@YAPAUSEffectDamage@CInstanceBase@@PAU12@@Z ; std::_Unfancy<CInstanceBase::SEffectDamage>
PUBLIC	??$_Hash_representation@K@std@@YAIABK@Z		; std::_Hash_representation<unsigned long>
PUBLIC	??$_Construct_in_place@PAU?$_List_node@U?$pair@$$CBKM@std@@PAX@std@@AAPAU12@@std@@YAXAAPAU?$_List_node@U?$pair@$$CBKM@std@@PAX@0@0@Z ; std::_Construct_in_place<std::_List_node<std::pair<unsigned long const ,float>,void *> *,std::_List_node<std::pair<unsigned long const ,float>,void *> * &>
PUBLIC	??$_Construct_in_place@PAU?$_Tree_node@U?$pair@$$CBKK@std@@PAX@std@@ABQAU12@@std@@YAXAAPAU?$_Tree_node@U?$pair@$$CBKK@std@@PAX@0@ABQAU10@@Z ; std::_Construct_in_place<std::_Tree_node<std::pair<unsigned long const ,unsigned long>,void *> *,std::_Tree_node<std::pair<unsigned long const ,unsigned long>,void *> * const &>
PUBLIC	??$destroy_at@USEffectDamage@CInstanceBase@@@std@@YAXQAUSEffectDamage@CInstanceBase@@@Z ; std::destroy_at<CInstanceBase::SEffectDamage>
PUBLIC	??$_Emplace_back@ABV?$_List_unchecked_iterator@V?$_List_val@U?$_List_simple_types@U?$pair@$$CBKM@std@@@std@@@std@@@std@@@?$_Uninitialized_backout@PAV?$_List_unchecked_iterator@V?$_List_val@U?$_List_simple_types@U?$pair@$$CBKM@std@@@std@@@std@@@std@@@std@@QAEXABV?$_List_unchecked_iterator@V?$_List_val@U?$_List_simple_types@U?$pair@$$CBKM@std@@@std@@@std@@@1@@Z ; std::_Uninitialized_backout<std::_List_unchecked_iterator<std::_List_val<std::_List_simple_types<std::pair<unsigned long const ,float> > > > *>::_Emplace_back<std::_List_unchecked_iterator<std::_List_val<std::_List_simple_types<std::pair<unsigned long const ,float> > > > const &>
PUBLIC	??$_Adl_verify_range@PAV?$_List_unchecked_iterator@V?$_List_val@U?$_List_simple_types@U?$pair@$$CBKM@std@@@std@@@std@@@std@@PAV12@@std@@YAXABQAV?$_List_unchecked_iterator@V?$_List_val@U?$_List_simple_types@U?$pair@$$CBKM@std@@@std@@@std@@@0@0@Z ; std::_Adl_verify_range<std::_List_unchecked_iterator<std::_List_val<std::_List_simple_types<std::pair<unsigned long const ,float> > > > *,std::_List_unchecked_iterator<std::_List_val<std::_List_simple_types<std::pair<unsigned long const ,float> > > > *>
PUBLIC	??$construct_at@PAU?$_List_node@USCommand@CInstanceBase@@PAX@std@@ABQAU12@@std@@YAPAPAU?$_List_node@USCommand@CInstanceBase@@PAX@0@QAPAU10@ABQAU10@@Z ; std::construct_at<std::_List_node<CInstanceBase::SCommand,void *> *,std::_List_node<CInstanceBase::SCommand,void *> * const &>
PUBLIC	??$forward@ABQAU?$_List_node@USCommand@CInstanceBase@@PAX@std@@@std@@YAABQAU?$_List_node@USCommand@CInstanceBase@@PAX@0@ABQAU10@@Z ; std::forward<std::_List_node<CInstanceBase::SCommand,void *> * const &>
PUBLIC	??$construct@PAVCInstanceBase@@ABQAV1@@?$_Default_allocator_traits@V?$allocator@PAVCInstanceBase@@@std@@@std@@SAXAAV?$allocator@PAVCInstanceBase@@@1@QAPAVCInstanceBase@@ABQAV3@@Z ; std::_Default_allocator_traits<std::allocator<CInstanceBase *> >::construct<CInstanceBase *,CInstanceBase * const &>
PUBLIC	??$_Construct_in_place@PAVCInstanceBase@@ABQAV1@@std@@YAXAAPAVCInstanceBase@@ABQAV1@@Z ; std::_Construct_in_place<CInstanceBase *,CInstanceBase * const &>
PUBLIC	??$_Emplace_back@PAVCInstanceBase@@@?$_Uninitialized_backout_al@V?$allocator@PAVCInstanceBase@@@std@@@std@@QAEX$$QAPAVCInstanceBase@@@Z ; std::_Uninitialized_backout_al<std::allocator<CInstanceBase *> >::_Emplace_back<CInstanceBase *>
PUBLIC	??$_To_address@PAPAVCInstanceBase@@@std@@YA?A_PABQAPAVCInstanceBase@@@Z ; std::_To_address<CInstanceBase * *>
PUBLIC	??$_Copy_memmove@PAPAVCInstanceBase@@PAPAV1@@std@@YAPAPAVCInstanceBase@@PAPAV1@00@Z ; std::_Copy_memmove<CInstanceBase * *,CInstanceBase * *>
PUBLIC	??$move@AAPAVCInstanceBase@@@std@@YA$$QAPAVCInstanceBase@@AAPAV1@@Z ; std::move<CInstanceBase * &>
PUBLIC	??$?0V?$_List_iterator@V?$_List_val@U?$_List_simple_types@U?$pair@$$CBKM@std@@@std@@@std@@@std@@_N$0A@@?$pair@V?$_List_iterator@V?$_List_val@U?$_List_simple_types@U?$pair@$$CBKM@std@@@std@@@std@@@std@@_N@std@@QAE@$$QAV?$_List_iterator@V?$_List_val@U?$_List_simple_types@U?$pair@$$CBKM@std@@@std@@@std@@@1@$$QA_N@Z ; std::pair<std::_List_iterator<std::_List_val<std::_List_simple_types<std::pair<unsigned long const ,float> > > >,bool>::pair<std::_List_iterator<std::_List_val<std::_List_simple_types<std::pair<unsigned long const ,float> > > >,bool><std::_List_iterator<std::_List_val<std::_List_simple_types<std::pair<unsigned long const ,float> > > >,bool,0>
PUBLIC	??$?0ABU?$pair@$$CBKM@std@@@?$_List_node_emplace_op2@V?$allocator@U?$_List_node@U?$pair@$$CBKM@std@@PAX@std@@@std@@@std@@QAE@AAV?$allocator@U?$_List_node@U?$pair@$$CBKM@std@@PAX@std@@@1@ABU?$pair@$$CBKM@1@@Z ; std::_List_node_emplace_op2<std::allocator<std::_List_node<std::pair<unsigned long const ,float>,void *> > >::_List_node_emplace_op2<std::allocator<std::_List_node<std::pair<unsigned long const ,float>,void *> > ><std::pair<unsigned long const ,float> const &>
PUBLIC	??$forward@ABU?$pair@$$CBKM@std@@@std@@YAABU?$pair@$$CBKM@0@ABU10@@Z ; std::forward<std::pair<unsigned long const ,float> const &>
PUBLIC	??$destroy@U?$pair@$$CBKM@std@@@?$_Default_allocator_traits@V?$allocator@U?$_List_node@U?$pair@$$CBKM@std@@PAX@std@@@std@@@std@@SAXAAV?$allocator@U?$_List_node@U?$pair@$$CBKM@std@@PAX@std@@@1@QAU?$pair@$$CBKM@1@@Z ; std::_Default_allocator_traits<std::allocator<std::_List_node<std::pair<unsigned long const ,float>,void *> > >::destroy<std::pair<unsigned long const ,float> >
PUBLIC	??$_Emplace_back@K@?$_Uninitialized_backout_al@V?$allocator@K@std@@@std@@QAEX$$QAK@Z ; std::_Uninitialized_backout_al<std::allocator<unsigned long> >::_Emplace_back<unsigned long>
PUBLIC	??$construct_at@KABK@std@@YAPAKQAKABK@Z		; std::construct_at<unsigned long,unsigned long const &>
PUBLIC	??$addressof@K@std@@YAPAKAAK@Z			; std::addressof<unsigned long>
PUBLIC	??$destroy@U?$pair@$$CBKK@std@@@?$_Default_allocator_traits@V?$allocator@U?$_Tree_node@U?$pair@$$CBKK@std@@PAX@std@@@std@@@std@@SAXAAV?$allocator@U?$_Tree_node@U?$pair@$$CBKK@std@@PAX@std@@@1@QAU?$pair@$$CBKK@1@@Z ; std::_Default_allocator_traits<std::allocator<std::_Tree_node<std::pair<unsigned long const ,unsigned long>,void *> > >::destroy<std::pair<unsigned long const ,unsigned long> >
PUBLIC	??$addressof@U?$pair@$$CBKK@std@@@std@@YAPAU?$pair@$$CBKK@0@AAU10@@Z ; std::addressof<std::pair<unsigned long const ,unsigned long> >
PUBLIC	??$construct_at@USCommand@CInstanceBase@@ABU12@@std@@YAPAUSCommand@CInstanceBase@@QAU12@ABU12@@Z ; std::construct_at<CInstanceBase::SCommand,CInstanceBase::SCommand const &>
PUBLIC	??$destroy_at@USCommand@CInstanceBase@@@std@@YAXQAUSCommand@CInstanceBase@@@Z ; std::destroy_at<CInstanceBase::SCommand>
PUBLIC	??$?0U?$pair@$$CBKM@std@@@?$allocator@U?$_List_node@U?$pair@$$CBKM@std@@PAX@std@@@std@@QAE@ABV?$allocator@U?$pair@$$CBKM@std@@@1@@Z ; std::allocator<std::_List_node<std::pair<unsigned long const ,float>,void *> >::allocator<std::_List_node<std::pair<unsigned long const ,float>,void *> ><std::pair<unsigned long const ,float> >
PUBLIC	??$?0U?$pair@$$CBKM@std@@@?$allocator@V?$_List_unchecked_iterator@V?$_List_val@U?$_List_simple_types@U?$pair@$$CBKM@std@@@std@@@std@@@std@@@std@@QAE@ABV?$allocator@U?$pair@$$CBKM@std@@@1@@Z ; std::allocator<std::_List_unchecked_iterator<std::_List_val<std::_List_simple_types<std::pair<unsigned long const ,float> > > > >::allocator<std::_List_unchecked_iterator<std::_List_val<std::_List_simple_types<std::pair<unsigned long const ,float> > > > ><std::pair<unsigned long const ,float> >
PUBLIC	?_Change_array@?$vector@KV?$allocator@K@std@@@std@@AAEXQAKII@Z ; std::vector<unsigned long,std::allocator<unsigned long> >::_Change_array
PUBLIC	??1_Reallocation_guard@?$vector@KV?$allocator@K@std@@@std@@QAE@XZ ; std::vector<unsigned long,std::allocator<unsigned long> >::_Reallocation_guard::~_Reallocation_guard
PUBLIC	?deallocate@?$_Default_allocator_traits@V?$allocator@U?$_Tree_node@U?$pair@$$CBKK@std@@PAX@std@@@std@@@std@@SAXAAV?$allocator@U?$_Tree_node@U?$pair@$$CBKK@std@@PAX@std@@@2@QAU?$_Tree_node@U?$pair@$$CBKK@std@@PAX@2@I@Z ; std::_Default_allocator_traits<std::allocator<std::_Tree_node<std::pair<unsigned long const ,unsigned long>,void *> > >::deallocate
PUBLIC	??0?$allocator@PAVCInstanceBase@@@std@@QAE@XZ	; std::allocator<CInstanceBase *>::allocator<CInstanceBase *>
PUBLIC	?deallocate@?$allocator@PAVCInstanceBase@@@std@@QAEXQAPAVCInstanceBase@@I@Z ; std::allocator<CInstanceBase *>::deallocate
PUBLIC	?_Change_array@?$vector@PAVCInstanceBase@@V?$allocator@PAVCInstanceBase@@@std@@@std@@AAEXQAPAVCInstanceBase@@II@Z ; std::vector<CInstanceBase *,std::allocator<CInstanceBase *> >::_Change_array
PUBLIC	?_Getal@?$vector@PAVCInstanceBase@@V?$allocator@PAVCInstanceBase@@@std@@@std@@ABEABV?$allocator@PAVCInstanceBase@@@2@XZ ; std::vector<CInstanceBase *,std::allocator<CInstanceBase *> >::_Getal
PUBLIC	?_Getal@?$list@USCommand@CInstanceBase@@V?$allocator@USCommand@CInstanceBase@@@std@@@std@@ABEABV?$allocator@U?$_List_node@USCommand@CInstanceBase@@PAX@std@@@2@XZ ; std::list<CInstanceBase::SCommand,std::allocator<CInstanceBase::SCommand> >::_Getal
PUBLIC	?deallocate@?$_Default_allocator_traits@V?$allocator@U?$_List_node@USCommand@CInstanceBase@@PAX@std@@@std@@@std@@SAXAAV?$allocator@U?$_List_node@USCommand@CInstanceBase@@PAX@std@@@2@QAU?$_List_node@USCommand@CInstanceBase@@PAX@2@I@Z ; std::_Default_allocator_traits<std::allocator<std::_List_node<CInstanceBase::SCommand,void *> > >::deallocate
PUBLIC	?max_size@?$_Default_allocator_traits@V?$allocator@U?$_List_node@USCommand@CInstanceBase@@PAX@std@@@std@@@std@@SAIABV?$allocator@U?$_List_node@USCommand@CInstanceBase@@PAX@std@@@2@@Z ; std::_Default_allocator_traits<std::allocator<std::_List_node<CInstanceBase::SCommand,void *> > >::max_size
PUBLIC	?deallocate@?$allocator@USEffectDamage@CInstanceBase@@@std@@QAEXQAUSEffectDamage@CInstanceBase@@I@Z ; std::allocator<CInstanceBase::SEffectDamage>::deallocate
PUBLIC	?_Mapsize@?$deque@USEffectDamage@CInstanceBase@@V?$allocator@USEffectDamage@CInstanceBase@@@std@@@std@@AAEAAIXZ ; std::deque<CInstanceBase::SEffectDamage,std::allocator<CInstanceBase::SEffectDamage> >::_Mapsize
PUBLIC	?_Myoff@?$deque@USEffectDamage@CInstanceBase@@V?$allocator@USEffectDamage@CInstanceBase@@@std@@@std@@AAEAAIXZ ; std::deque<CInstanceBase::SEffectDamage,std::allocator<CInstanceBase::SEffectDamage> >::_Myoff
PUBLIC	?_Mysize@?$deque@USEffectDamage@CInstanceBase@@V?$allocator@USEffectDamage@CInstanceBase@@@std@@@std@@AAEAAIXZ ; std::deque<CInstanceBase::SEffectDamage,std::allocator<CInstanceBase::SEffectDamage> >::_Mysize
PUBLIC	?_Mysize@?$deque@USEffectDamage@CInstanceBase@@V?$allocator@USEffectDamage@CInstanceBase@@@std@@@std@@ABEABIXZ ; std::deque<CInstanceBase::SEffectDamage,std::allocator<CInstanceBase::SEffectDamage> >::_Mysize
PUBLIC	?_Map_distance@?$deque@USEffectDamage@CInstanceBase@@V?$allocator@USEffectDamage@CInstanceBase@@@std@@@std@@ABEHXZ ; std::deque<CInstanceBase::SEffectDamage,std::allocator<CInstanceBase::SEffectDamage> >::_Map_distance
PUBLIC	?deallocate@?$allocator@PAUSEffectDamage@CInstanceBase@@@std@@QAEXQAPAUSEffectDamage@CInstanceBase@@I@Z ; std::allocator<CInstanceBase::SEffectDamage *>::deallocate
PUBLIC	?_Address_subscript@?$_Deque_val@U?$_Deque_simple_types@USEffectDamage@CInstanceBase@@@std@@@std@@QAEPAUSEffectDamage@CInstanceBase@@I@Z ; std::_Deque_val<std::_Deque_simple_types<CInstanceBase::SEffectDamage> >::_Address_subscript
PUBLIC	?_Do_hash@?$hash@K@std@@SAIABK@Z		; std::hash<unsigned long>::_Do_hash
PUBLIC	?_Get_max_bucket_size@?$_Uhash_compare@KU?$hash@K@std@@U?$equal_to@K@2@@std@@QAEAAMXZ ; std::_Uhash_compare<unsigned long,std::hash<unsigned long>,std::equal_to<unsigned long> >::_Get_max_bucket_size
PUBLIC	?max_size@?$_Default_allocator_traits@V?$allocator@PAVCInstanceBase@@@std@@@std@@SAIABV?$allocator@PAVCInstanceBase@@@2@@Z ; std::_Default_allocator_traits<std::allocator<CInstanceBase *> >::max_size
PUBLIC	??0?$_Vector_val@U?$_Simple_types@PAVCInstanceBase@@@std@@@std@@QAE@XZ ; std::_Vector_val<std::_Simple_types<CInstanceBase *> >::_Vector_val<std::_Simple_types<CInstanceBase *> >
PUBLIC	??1_Simple_reallocation_guard@?$vector@PAVCInstanceBase@@V?$allocator@PAVCInstanceBase@@@std@@@std@@QAE@XZ ; std::vector<CInstanceBase *,std::allocator<CInstanceBase *> >::_Simple_reallocation_guard::~_Simple_reallocation_guard
PUBLIC	?_Get_first@?$_Compressed_pair@V?$allocator@PAVCInstanceBase@@@std@@V?$_Vector_val@U?$_Simple_types@PAVCInstanceBase@@@std@@@2@$00@std@@QAEAAV?$allocator@PAVCInstanceBase@@@2@XZ ; std::_Compressed_pair<std::allocator<CInstanceBase *>,std::_Vector_val<std::_Simple_types<CInstanceBase *> >,1>::_Get_first
PUBLIC	?_Alloc_sentinel_and_proxy@?$list@U?$pair@$$CBKM@std@@V?$allocator@U?$pair@$$CBKM@std@@@2@@std@@AAEXXZ ; std::list<std::pair<unsigned long const ,float>,std::allocator<std::pair<unsigned long const ,float> > >::_Alloc_sentinel_and_proxy
PUBLIC	?deallocate@?$_Default_allocator_traits@V?$allocator@U?$_List_node@U?$pair@$$CBKM@std@@PAX@std@@@std@@@std@@SAXAAV?$allocator@U?$_List_node@U?$pair@$$CBKM@std@@PAX@std@@@2@QAU?$_List_node@U?$pair@$$CBKM@std@@PAX@2@I@Z ; std::_Default_allocator_traits<std::allocator<std::_List_node<std::pair<unsigned long const ,float>,void *> > >::deallocate
PUBLIC	?_Get_first@?$_Compressed_pair@V?$allocator@U?$_List_node@U?$pair@$$CBKM@std@@PAX@std@@@std@@V?$_List_val@U?$_List_simple_types@U?$pair@$$CBKM@std@@@std@@@2@$00@std@@QAEAAV?$allocator@U?$_List_node@U?$pair@$$CBKM@std@@PAX@std@@@2@XZ ; std::_Compressed_pair<std::allocator<std::_List_node<std::pair<unsigned long const ,float>,void *> >,std::_List_val<std::_List_simple_types<std::pair<unsigned long const ,float> > >,1>::_Get_first
PUBLIC	?allocate@?$allocator@V?$_List_unchecked_iterator@V?$_List_val@U?$_List_simple_types@U?$pair@$$CBKM@std@@@std@@@std@@@std@@@std@@QAEPAV?$_List_unchecked_iterator@V?$_List_val@U?$_List_simple_types@U?$pair@$$CBKM@std@@@std@@@std@@@2@I@Z ; std::allocator<std::_List_unchecked_iterator<std::_List_val<std::_List_simple_types<std::pair<unsigned long const ,float> > > > >::allocate
PUBLIC	?size@?$_Hash_vec@V?$allocator@V?$_List_unchecked_iterator@V?$_List_val@U?$_List_simple_types@U?$pair@$$CBKM@std@@@std@@@std@@@std@@@std@@@std@@QBEIXZ ; std::_Hash_vec<std::allocator<std::_List_unchecked_iterator<std::_List_val<std::_List_simple_types<std::pair<unsigned long const ,float> > > > > >::size
PUBLIC	??0?$_Alloc_construct_ptr@V?$allocator@U?$_List_node@USCommand@CInstanceBase@@PAX@std@@@std@@@std@@QAE@AAV?$allocator@U?$_List_node@USCommand@CInstanceBase@@PAX@std@@@1@@Z ; std::_Alloc_construct_ptr<std::allocator<std::_List_node<CInstanceBase::SCommand,void *> > >::_Alloc_construct_ptr<std::allocator<std::_List_node<CInstanceBase::SCommand,void *> > >
PUBLIC	?_Allocate@?$_Alloc_construct_ptr@V?$allocator@U?$_List_node@USCommand@CInstanceBase@@PAX@std@@@std@@@std@@QAEXXZ ; std::_Alloc_construct_ptr<std::allocator<std::_List_node<CInstanceBase::SCommand,void *> > >::_Allocate
PUBLIC	??1?$_Alloc_construct_ptr@V?$allocator@U?$_List_node@USCommand@CInstanceBase@@PAX@std@@@std@@@std@@QAE@XZ ; std::_Alloc_construct_ptr<std::allocator<std::_List_node<CInstanceBase::SCommand,void *> > >::~_Alloc_construct_ptr<std::allocator<std::_List_node<CInstanceBase::SCommand,void *> > >
PUBLIC	?deallocate@?$_Default_allocator_traits@V?$allocator@U_Container_proxy@std@@@std@@@std@@SAXAAV?$allocator@U_Container_proxy@std@@@2@QAU_Container_proxy@2@I@Z ; std::_Default_allocator_traits<std::allocator<std::_Container_proxy> >::deallocate
PUBLIC	??$_Get_size_of_n@$07@std@@YAII@Z		; std::_Get_size_of_n<8>
PUBLIC	??$_Refancy_maybe_null@PAK$0A@@std@@YAPAKPAK@Z	; std::_Refancy_maybe_null<unsigned long *,0>
PUBLIC	??$_Buyheadnode@V?$allocator@U?$_Tree_node@U?$pair@$$CBKK@std@@PAX@std@@@std@@@?$_Tree_node@U?$pair@$$CBKK@std@@PAX@std@@SAPAU01@AAV?$allocator@U?$_Tree_node@U?$pair@$$CBKK@std@@PAX@std@@@1@@Z ; std::_Tree_node<std::pair<unsigned long const ,unsigned long>,void *>::_Buyheadnode<std::allocator<std::_Tree_node<std::pair<unsigned long const ,unsigned long>,void *> > >
PUBLIC	??$_Unfancy_maybe_null@PAVCInstanceBase@@@std@@YAPAPAVCInstanceBase@@PAPAV1@@Z ; std::_Unfancy_maybe_null<CInstanceBase *>
PUBLIC	??$_Destroy_range@V?$allocator@PAVCInstanceBase@@@std@@@std@@YAXPAPAVCInstanceBase@@QAPAV1@AAV?$allocator@PAVCInstanceBase@@@0@@Z ; std::_Destroy_range<std::allocator<CInstanceBase *> >
PUBLIC	??$_Get_size_of_n@$0CM@@std@@YAII@Z		; std::_Get_size_of_n<44>
PUBLIC	??$destroy@USEffectDamage@CInstanceBase@@@?$_Default_allocator_traits@V?$allocator@USEffectDamage@CInstanceBase@@@std@@@std@@SAXAAV?$allocator@USEffectDamage@CInstanceBase@@@1@QAUSEffectDamage@CInstanceBase@@@Z ; std::_Default_allocator_traits<std::allocator<CInstanceBase::SEffectDamage> >::destroy<CInstanceBase::SEffectDamage>
PUBLIC	??$?0USEffectDamage@CInstanceBase@@@?$allocator@PAUSEffectDamage@CInstanceBase@@@std@@QAE@ABV?$allocator@USEffectDamage@CInstanceBase@@@1@@Z ; std::allocator<CInstanceBase::SEffectDamage *>::allocator<CInstanceBase::SEffectDamage *><CInstanceBase::SEffectDamage>
PUBLIC	??$_Destroy_in_place@PAUSEffectDamage@CInstanceBase@@@std@@YAXAAPAUSEffectDamage@CInstanceBase@@@Z ; std::_Destroy_in_place<CInstanceBase::SEffectDamage *>
PUBLIC	??$?0ABV?$allocator@U?$pair@$$CBKM@std@@@std@@$$V@?$_Compressed_pair@V?$allocator@U?$_List_node@U?$pair@$$CBKM@std@@PAX@std@@@std@@V?$_List_val@U?$_List_simple_types@U?$pair@$$CBKM@std@@@std@@@2@$00@std@@QAE@U_One_then_variadic_args_t@1@ABV?$allocator@U?$pair@$$CBKM@std@@@1@@Z ; std::_Compressed_pair<std::allocator<std::_List_node<std::pair<unsigned long const ,float>,void *> >,std::_List_val<std::_List_simple_types<std::pair<unsigned long const ,float> > >,1>::_Compressed_pair<std::allocator<std::_List_node<std::pair<unsigned long const ,float>,void *> >,std::_List_val<std::_List_simple_types<std::pair<unsigned long const ,float> > >,1><std::allocator<std::pair<unsigned long const ,float> > const &>
PUBLIC	??$fill@PAV?$_List_unchecked_iterator@V?$_List_val@U?$_List_simple_types@U?$pair@$$CBKM@std@@@std@@@std@@@std@@V12@@std@@YAXQAV?$_List_unchecked_iterator@V?$_List_val@U?$_List_simple_types@U?$pair@$$CBKM@std@@@std@@@std@@@0@0ABV10@@Z ; std::fill<std::_List_unchecked_iterator<std::_List_val<std::_List_simple_types<std::pair<unsigned long const ,float> > > > *,std::_List_unchecked_iterator<std::_List_val<std::_List_simple_types<std::pair<unsigned long const ,float> > > > >
PUBLIC	??$uninitialized_fill@PAV?$_List_unchecked_iterator@V?$_List_val@U?$_List_simple_types@U?$pair@$$CBKM@std@@@std@@@std@@@std@@V12@@std@@YAXQAV?$_List_unchecked_iterator@V?$_List_val@U?$_List_simple_types@U?$pair@$$CBKM@std@@@std@@@std@@@0@0ABV10@@Z ; std::uninitialized_fill<std::_List_unchecked_iterator<std::_List_val<std::_List_simple_types<std::pair<unsigned long const ,float> > > > *,std::_List_unchecked_iterator<std::_List_val<std::_List_simple_types<std::pair<unsigned long const ,float> > > > >
PUBLIC	??$_Get_unwrapped@ABQAV?$_List_unchecked_iterator@V?$_List_val@U?$_List_simple_types@U?$pair@$$CBKM@std@@@std@@@std@@@std@@@std@@YA?A_TABQAV?$_List_unchecked_iterator@V?$_List_val@U?$_List_simple_types@U?$pair@$$CBKM@std@@@std@@@std@@@0@@Z ; std::_Get_unwrapped<std::_List_unchecked_iterator<std::_List_val<std::_List_simple_types<std::pair<unsigned long const ,float> > > > * const &>
PUBLIC	??$_Construct_in_place@PAU?$_List_node@USCommand@CInstanceBase@@PAX@std@@ABQAU12@@std@@YAXAAPAU?$_List_node@USCommand@CInstanceBase@@PAX@0@ABQAU10@@Z ; std::_Construct_in_place<std::_List_node<CInstanceBase::SCommand,void *> *,std::_List_node<CInstanceBase::SCommand,void *> * const &>
PUBLIC	??$forward@ABU?$less@K@std@@@std@@YAABU?$less@K@0@ABU10@@Z ; std::forward<std::less<unsigned long> const &>
PUBLIC	??$_Emplace_reallocate@ABQAVCInstanceBase@@@?$vector@PAVCInstanceBase@@V?$allocator@PAVCInstanceBase@@@std@@@std@@AAEPAPAVCInstanceBase@@QAPAV2@ABQAV2@@Z ; std::vector<CInstanceBase *,std::allocator<CInstanceBase *> >::_Emplace_reallocate<CInstanceBase * const &>
PUBLIC	??$_Emplace_back_with_unused_capacity@ABQAVCInstanceBase@@@?$vector@PAVCInstanceBase@@V?$allocator@PAVCInstanceBase@@@std@@@std@@AAEAAPAVCInstanceBase@@ABQAV2@@Z ; std::vector<CInstanceBase *,std::allocator<CInstanceBase *> >::_Emplace_back_with_unused_capacity<CInstanceBase * const &>
PUBLIC	??$forward@ABQAVCInstanceBase@@@std@@YAABQAVCInstanceBase@@ABQAV1@@Z ; std::forward<CInstanceBase * const &>
PUBLIC	??$_Uninitialized_move@PAPAVCInstanceBase@@V?$allocator@PAVCInstanceBase@@@std@@@std@@YAPAPAVCInstanceBase@@QAPAV1@0PAPAV1@AAV?$allocator@PAVCInstanceBase@@@0@@Z ; std::_Uninitialized_move<CInstanceBase * *,std::allocator<CInstanceBase *> >
PUBLIC	??$_Get_unwrapped@ABQAPAVCInstanceBase@@@std@@YA?A_TABQAPAVCInstanceBase@@@Z ; std::_Get_unwrapped<CInstanceBase * * const &>
PUBLIC	??$_Allocate_at_least_helper@V?$allocator@PAVCInstanceBase@@@std@@@std@@YAPAPAVCInstanceBase@@AAV?$allocator@PAVCInstanceBase@@@0@AAI@Z ; std::_Allocate_at_least_helper<std::allocator<CInstanceBase *> >
PUBLIC	??$destroy_at@PAVCInstanceBase@@@std@@YAXQAPAVCInstanceBase@@@Z ; std::destroy_at<CInstanceBase *>
PUBLIC	??$_Destroy_in_place@PAU?$_List_node@USCommand@CInstanceBase@@PAX@std@@@std@@YAXAAPAU?$_List_node@USCommand@CInstanceBase@@PAX@0@@Z ; std::_Destroy_in_place<std::_List_node<CInstanceBase::SCommand,void *> *>
PUBLIC	??$construct_at@PAU?$_List_node@USCommand@CInstanceBase@@PAX@std@@AAPAU12@@std@@YAPAPAU?$_List_node@USCommand@CInstanceBase@@PAX@0@QAPAU10@AAPAU10@@Z ; std::construct_at<std::_List_node<CInstanceBase::SCommand,void *> *,std::_List_node<CInstanceBase::SCommand,void *> * &>
PUBLIC	??$forward@AAPAU?$_List_node@USCommand@CInstanceBase@@PAX@std@@@std@@YAAAPAU?$_List_node@USCommand@CInstanceBase@@PAX@0@AAPAU10@@Z ; std::forward<std::_List_node<CInstanceBase::SCommand,void *> * &>
PUBLIC	??$addressof@PAU?$_List_node@USCommand@CInstanceBase@@PAX@std@@@std@@YAPAPAU?$_List_node@USCommand@CInstanceBase@@PAX@0@AAPAU10@@Z ; std::addressof<std::_List_node<CInstanceBase::SCommand,void *> *>
PUBLIC	??$forward@U_Zero_then_variadic_args_t@std@@@std@@YA$$QAU_Zero_then_variadic_args_t@0@AAU10@@Z ; std::forward<std::_Zero_then_variadic_args_t>
PUBLIC	??$?0ABV?$allocator@U?$pair@$$CBKM@std@@@std@@$$V@?$_Compressed_pair@V?$allocator@V?$_List_unchecked_iterator@V?$_List_val@U?$_List_simple_types@U?$pair@$$CBKM@std@@@std@@@std@@@std@@@std@@V?$_Vector_val@U?$_Simple_types@V?$_List_unchecked_iterator@V?$_List_val@U?$_List_simple_types@U?$pair@$$CBKM@std@@@std@@@std@@@std@@@std@@@2@$00@std@@QAE@U_One_then_variadic_args_t@1@ABV?$allocator@U?$pair@$$CBKM@std@@@1@@Z ; std::_Compressed_pair<std::allocator<std::_List_unchecked_iterator<std::_List_val<std::_List_simple_types<std::pair<unsigned long const ,float> > > > >,std::_Vector_val<std::_Simple_types<std::_List_unchecked_iterator<std::_List_val<std::_List_simple_types<std::pair<unsigned long const ,float> > > > > >,1>::_Compressed_pair<std::allocator<std::_List_unchecked_iterator<std::_List_val<std::_List_simple_types<std::pair<unsigned long const ,float> > > > >,std::_Vector_val<std::_Simple_types<std::_List_unchecked_iterator<std::_List_val<std::_List_simple_types<std::pair<unsigned long const ,float> > > > > >,1><std::allocator<std::pair<unsigned long const ,float> > const &>
PUBLIC	??$forward@ABV?$allocator@U?$pair@$$CBKM@std@@@std@@@std@@YAABV?$allocator@U?$pair@$$CBKM@std@@@0@ABV10@@Z ; std::forward<std::allocator<std::pair<unsigned long const ,float> > const &>
PUBLIC	??$emplace@ABU?$pair@$$CBKM@std@@@?$_Hash@V?$_Umap_traits@KMV?$_Uhash_compare@KU?$hash@K@std@@U?$equal_to@K@2@@std@@V?$allocator@U?$pair@$$CBKM@std@@@2@$0A@@std@@@std@@QAE?AU?$pair@V?$_List_iterator@V?$_List_val@U?$_List_simple_types@U?$pair@$$CBKM@std@@@std@@@std@@@std@@_N@1@ABU?$pair@$$CBKM@1@@Z ; std::_Hash<std::_Umap_traits<unsigned long,float,std::_Uhash_compare<unsigned long,std::hash<unsigned long>,std::equal_to<unsigned long> >,std::allocator<std::pair<unsigned long const ,float> >,0> >::emplace<std::pair<unsigned long const ,float> const &>
PUBLIC	??$_Destroy_in_place@PAU?$_List_node@U?$pair@$$CBKM@std@@PAX@std@@@std@@YAXAAPAU?$_List_node@U?$pair@$$CBKM@std@@PAX@0@@Z ; std::_Destroy_in_place<std::_List_node<std::pair<unsigned long const ,float>,void *> *>
PUBLIC	??$_Freenode@V?$allocator@U?$_List_node@U?$pair@$$CBKM@std@@PAX@std@@@std@@@?$_List_node@U?$pair@$$CBKM@std@@PAX@std@@SAXAAV?$allocator@U?$_List_node@U?$pair@$$CBKM@std@@PAX@std@@@1@PAU01@@Z ; std::_List_node<std::pair<unsigned long const ,float>,void *>::_Freenode<std::allocator<std::_List_node<std::pair<unsigned long const ,float>,void *> > >
PUBLIC	??$_Uninitialized_move@PAKV?$allocator@K@std@@@std@@YAPAKQAK0PAKAAV?$allocator@K@0@@Z ; std::_Uninitialized_move<unsigned long *,std::allocator<unsigned long> >
PUBLIC	??$_Get_unwrapped@ABQAK@std@@YA?A_TABQAK@Z	; std::_Get_unwrapped<unsigned long * const &>
PUBLIC	??$construct@KABK@?$_Default_allocator_traits@V?$allocator@K@std@@@std@@SAXAAV?$allocator@K@1@QAKABK@Z ; std::_Default_allocator_traits<std::allocator<unsigned long> >::construct<unsigned long,unsigned long const &>
PUBLIC	??$_Construct_in_place@KABK@std@@YAXAAKABK@Z	; std::_Construct_in_place<unsigned long,unsigned long const &>
PUBLIC	??$_Destroy_in_place@PAU?$_Tree_node@U?$pair@$$CBKK@std@@PAX@std@@@std@@YAXAAPAU?$_Tree_node@U?$pair@$$CBKK@std@@PAX@0@@Z ; std::_Destroy_in_place<std::_Tree_node<std::pair<unsigned long const ,unsigned long>,void *> *>
PUBLIC	??$_Freenode@V?$allocator@U?$_Tree_node@U?$pair@$$CBKK@std@@PAX@std@@@std@@@?$_Tree_node@U?$pair@$$CBKK@std@@PAX@std@@SAXAAV?$allocator@U?$_Tree_node@U?$pair@$$CBKK@std@@PAX@std@@@1@PAU01@@Z ; std::_Tree_node<std::pair<unsigned long const ,unsigned long>,void *>::_Freenode<std::allocator<std::_Tree_node<std::pair<unsigned long const ,unsigned long>,void *> > >
PUBLIC	??$exchange@PAU?$_Tree_node@U?$pair@$$CBKK@std@@PAX@std@@AAPAU12@@std@@YAPAU?$_Tree_node@U?$pair@$$CBKK@std@@PAX@0@AAPAU10@0@Z ; std::exchange<std::_Tree_node<std::pair<unsigned long const ,unsigned long>,void *> *,std::_Tree_node<std::pair<unsigned long const ,unsigned long>,void *> * &>
PUBLIC	??$construct@USCommand@CInstanceBase@@ABU12@@?$_Default_allocator_traits@V?$allocator@U?$_List_node@USCommand@CInstanceBase@@PAX@std@@@std@@@std@@SAXAAV?$allocator@U?$_List_node@USCommand@CInstanceBase@@PAX@std@@@1@QAUSCommand@CInstanceBase@@ABU34@@Z ; std::_Default_allocator_traits<std::allocator<std::_List_node<CInstanceBase::SCommand,void *> > >::construct<CInstanceBase::SCommand,CInstanceBase::SCommand const &>
PUBLIC	??$destroy@USCommand@CInstanceBase@@@?$_Default_allocator_traits@V?$allocator@U?$_List_node@USCommand@CInstanceBase@@PAX@std@@@std@@@std@@SAXAAV?$allocator@U?$_List_node@USCommand@CInstanceBase@@PAX@std@@@1@QAUSCommand@CInstanceBase@@@Z ; std::_Default_allocator_traits<std::allocator<std::_List_node<CInstanceBase::SCommand,void *> > >::destroy<CInstanceBase::SCommand>
PUBLIC	??$addressof@USCommand@CInstanceBase@@@std@@YAPAUSCommand@CInstanceBase@@AAU12@@Z ; std::addressof<CInstanceBase::SCommand>
PUBLIC	??$?RKK@?$_Uhash_compare@KU?$hash@K@std@@U?$equal_to@K@2@@std@@QBE_NABK0@Z ; std::_Uhash_compare<unsigned long,std::hash<unsigned long>,std::equal_to<unsigned long> >::operator()<unsigned long,unsigned long>
PUBLIC	??$_Kfn@$$CBKM@?$_Umap_traits@KMV?$_Uhash_compare@KU?$hash@K@std@@U?$equal_to@K@2@@std@@V?$allocator@U?$pair@$$CBKM@std@@@2@$0A@@std@@SAABKABU?$pair@$$CBKM@1@@Z ; std::_Umap_traits<unsigned long,float,std::_Uhash_compare<unsigned long,std::hash<unsigned long>,std::equal_to<unsigned long> >,std::allocator<std::pair<unsigned long const ,float> >,0>::_Kfn<unsigned long const ,float>
PUBLIC	??$forward@_N@std@@YA$$QA_NAA_N@Z		; std::forward<bool>
PUBLIC	??$?0$$V@?$_Compressed_pair@V?$allocator@U?$_Tree_node@U?$pair@$$CBKK@std@@PAX@std@@@std@@V?$_Tree_val@U?$_Tree_simple_types@U?$pair@$$CBKK@std@@@std@@@2@$00@std@@QAE@U_Zero_then_variadic_args_t@1@@Z ; std::_Compressed_pair<std::allocator<std::_Tree_node<std::pair<unsigned long const ,unsigned long>,void *> >,std::_Tree_val<std::_Tree_simple_types<std::pair<unsigned long const ,unsigned long> > >,1>::_Compressed_pair<std::allocator<std::_Tree_node<std::pair<unsigned long const ,unsigned long>,void *> >,std::_Tree_val<std::_Tree_simple_types<std::pair<unsigned long const ,unsigned long> > >,1><>
PUBLIC	??$?0M@?$_Compressed_pair@U?$equal_to@K@std@@M$00@std@@QAE@U_Zero_then_variadic_args_t@1@$$QAM@Z ; std::_Compressed_pair<std::equal_to<unsigned long>,float,1>::_Compressed_pair<std::equal_to<unsigned long>,float,1><float>
PUBLIC	??0?$_List_unchecked_iterator@V?$_List_val@U?$_List_simple_types@U?$pair@$$CBKM@std@@@std@@@std@@@std@@QAE@PAU?$_List_node@U?$pair@$$CBKM@std@@PAX@1@PBV?$_List_val@U?$_List_simple_types@U?$pair@$$CBKM@std@@@std@@@1@@Z ; std::_List_unchecked_iterator<std::_List_val<std::_List_simple_types<std::pair<unsigned long const ,float> > > >::_List_unchecked_iterator<std::_List_val<std::_List_simple_types<std::pair<unsigned long const ,float> > > >
PUBLIC	?allocate@?$allocator@U_Container_proxy@std@@@std@@QAEPAU_Container_proxy@2@I@Z ; std::allocator<std::_Container_proxy>::allocate
PUBLIC	?_Seek_to@?$_Vector_const_iterator@V?$_Vector_val@U?$_Simple_types@K@std@@@std@@@std@@QAEXPBK@Z ; std::_Vector_const_iterator<std::_Vector_val<std::_Simple_types<unsigned long> > >::_Seek_to
PUBLIC	?_Alloc_sentinel_and_proxy@?$_Tree@V?$_Tmap_traits@KKU?$less@K@std@@V?$allocator@U?$pair@$$CBKK@std@@@2@$0A@@std@@@std@@IAEXXZ ; std::_Tree<std::_Tmap_traits<unsigned long,unsigned long,std::less<unsigned long>,std::allocator<std::pair<unsigned long const ,unsigned long> >,0> >::_Alloc_sentinel_and_proxy
PUBLIC	?_Get_first@?$_Compressed_pair@V?$allocator@U?$_Tree_node@U?$pair@$$CBKK@std@@PAX@std@@@std@@V?$_Tree_val@U?$_Tree_simple_types@U?$pair@$$CBKK@std@@@std@@@2@$00@std@@QAEAAV?$allocator@U?$_Tree_node@U?$pair@$$CBKK@std@@PAX@std@@@2@XZ ; std::_Compressed_pair<std::allocator<std::_Tree_node<std::pair<unsigned long const ,unsigned long>,void *> >,std::_Tree_val<std::_Tree_simple_types<std::pair<unsigned long const ,unsigned long> > >,1>::_Get_first
PUBLIC	?clear@?$vector@PAVCInstanceBase@@V?$allocator@PAVCInstanceBase@@@std@@@std@@QAEXXZ ; std::vector<CInstanceBase *,std::allocator<CInstanceBase *> >::clear
PUBLIC	?_Unchecked_begin@?$vector@PAVCInstanceBase@@V?$allocator@PAVCInstanceBase@@@std@@@std@@QAEPAPAVCInstanceBase@@XZ ; std::vector<CInstanceBase *,std::allocator<CInstanceBase *> >::_Unchecked_begin
PUBLIC	?_Unchecked_end@?$vector@PAVCInstanceBase@@V?$allocator@PAVCInstanceBase@@@std@@@std@@QAEPAPAVCInstanceBase@@XZ ; std::vector<CInstanceBase *,std::allocator<CInstanceBase *> >::_Unchecked_end
PUBLIC	?max_size@?$vector@PAVCInstanceBase@@V?$allocator@PAVCInstanceBase@@@std@@@std@@QBEIXZ ; std::vector<CInstanceBase *,std::allocator<CInstanceBase *> >::max_size
PUBLIC	?capacity@?$vector@PAVCInstanceBase@@V?$allocator@PAVCInstanceBase@@@std@@@std@@QBEIXZ ; std::vector<CInstanceBase *,std::allocator<CInstanceBase *> >::capacity
PUBLIC	?_Tidy@?$vector@PAVCInstanceBase@@V?$allocator@PAVCInstanceBase@@@std@@@std@@AAEXXZ ; std::vector<CInstanceBase *,std::allocator<CInstanceBase *> >::_Tidy
PUBLIC	?_Xlength@?$vector@PAVCInstanceBase@@V?$allocator@PAVCInstanceBase@@@std@@@std@@CAXXZ ; std::vector<CInstanceBase *,std::allocator<CInstanceBase *> >::_Xlength
PUBLIC	?_Orphan_range@?$vector@PAVCInstanceBase@@V?$allocator@PAVCInstanceBase@@@std@@@std@@ABEXPAPAVCInstanceBase@@0@Z ; std::vector<CInstanceBase *,std::allocator<CInstanceBase *> >::_Orphan_range
PUBLIC	?_Getal@?$vector@PAVCInstanceBase@@V?$allocator@PAVCInstanceBase@@@std@@@std@@AAEAAV?$allocator@PAVCInstanceBase@@@2@XZ ; std::vector<CInstanceBase *,std::allocator<CInstanceBase *> >::_Getal
PUBLIC	?max_size@?$list@USCommand@CInstanceBase@@V?$allocator@USCommand@CInstanceBase@@@std@@@std@@QBEIXZ ; std::list<CInstanceBase::SCommand,std::allocator<CInstanceBase::SCommand> >::max_size
PUBLIC	??0?$allocator@U?$_List_node@USCommand@CInstanceBase@@PAX@std@@@std@@QAE@XZ ; std::allocator<std::_List_node<CInstanceBase::SCommand,void *> >::allocator<std::_List_node<CInstanceBase::SCommand,void *> >
PUBLIC	?allocate@?$allocator@U?$_List_node@USCommand@CInstanceBase@@PAX@std@@@std@@QAEPAU?$_List_node@USCommand@CInstanceBase@@PAX@2@I@Z ; std::allocator<std::_List_node<CInstanceBase::SCommand,void *> >::allocate
PUBLIC	??0?$_List_val@U?$_List_simple_types@USCommand@CInstanceBase@@@std@@@std@@QAE@XZ ; std::_List_val<std::_List_simple_types<CInstanceBase::SCommand> >::_List_val<std::_List_simple_types<CInstanceBase::SCommand> >
PUBLIC	?_Orphan_ptr2@?$_List_val@U?$_List_simple_types@USCommand@CInstanceBase@@@std@@@std@@QAEXPAU?$_List_node@USCommand@CInstanceBase@@PAX@2@@Z ; std::_List_val<std::_List_simple_types<CInstanceBase::SCommand> >::_Orphan_ptr2
PUBLIC	?_Get_first@?$_Compressed_pair@V?$allocator@U?$_List_node@USCommand@CInstanceBase@@PAX@std@@@std@@V?$_List_val@U?$_List_simple_types@USCommand@CInstanceBase@@@std@@@2@$00@std@@QAEAAV?$allocator@U?$_List_node@USCommand@CInstanceBase@@PAX@std@@@2@XZ ; std::_Compressed_pair<std::allocator<std::_List_node<CInstanceBase::SCommand,void *> >,std::_List_val<std::_List_simple_types<CInstanceBase::SCommand> >,1>::_Get_first
PUBLIC	??0?$allocator@USEffectDamage@CInstanceBase@@@std@@QAE@XZ ; std::allocator<CInstanceBase::SEffectDamage>::allocator<CInstanceBase::SEffectDamage>
PUBLIC	?empty@?$deque@USEffectDamage@CInstanceBase@@V?$allocator@USEffectDamage@CInstanceBase@@@std@@@std@@QBE_NXZ ; std::deque<CInstanceBase::SEffectDamage,std::allocator<CInstanceBase::SEffectDamage> >::empty
PUBLIC	?pop_back@?$deque@USEffectDamage@CInstanceBase@@V?$allocator@USEffectDamage@CInstanceBase@@@std@@@std@@QAEXXZ ; std::deque<CInstanceBase::SEffectDamage,std::allocator<CInstanceBase::SEffectDamage> >::pop_back
PUBLIC	?_Reset_map@?$deque@USEffectDamage@CInstanceBase@@V?$allocator@USEffectDamage@CInstanceBase@@@std@@@std@@AAEXXZ ; std::deque<CInstanceBase::SEffectDamage,std::allocator<CInstanceBase::SEffectDamage> >::_Reset_map
PUBLIC	?_Orphan_all@?$deque@USEffectDamage@CInstanceBase@@V?$allocator@USEffectDamage@CInstanceBase@@@std@@@std@@AAEXXZ ; std::deque<CInstanceBase::SEffectDamage,std::allocator<CInstanceBase::SEffectDamage> >::_Orphan_all
PUBLIC	?_Map@?$deque@USEffectDamage@CInstanceBase@@V?$allocator@USEffectDamage@CInstanceBase@@@std@@@std@@AAEAAPAPAUSEffectDamage@CInstanceBase@@XZ ; std::deque<CInstanceBase::SEffectDamage,std::allocator<CInstanceBase::SEffectDamage> >::_Map
PUBLIC	??0?$_Deque_val@U?$_Deque_simple_types@USEffectDamage@CInstanceBase@@@std@@@std@@QAE@XZ ; std::_Deque_val<std::_Deque_simple_types<CInstanceBase::SEffectDamage> >::_Deque_val<std::_Deque_simple_types<CInstanceBase::SEffectDamage> >
PUBLIC	?_Get_first@?$_Compressed_pair@V?$allocator@USEffectDamage@CInstanceBase@@@std@@V?$_Deque_val@U?$_Deque_simple_types@USEffectDamage@CInstanceBase@@@std@@@2@$00@std@@QAEAAV?$allocator@USEffectDamage@CInstanceBase@@@2@XZ ; std::_Compressed_pair<std::allocator<CInstanceBase::SEffectDamage>,std::_Deque_val<std::_Deque_simple_types<CInstanceBase::SEffectDamage> >,1>::_Get_first
PUBLIC	?Delete@?$CDynamicPool@VCInstanceBase@@@@KAXPAVCInstanceBase@@@Z ; CDynamicPool<CInstanceBase>::Delete
PUBLIC	??R?$_Conditionally_enabled_hash@K$00@std@@SAIABK@Z ; std::_Conditionally_enabled_hash<unsigned long,1>::operator()
PUBLIC	?_Get_first@?$_Compressed_pair@U?$hash@K@std@@V?$_Compressed_pair@U?$equal_to@K@std@@M$00@2@$00@std@@QBEABU?$hash@K@2@XZ ; std::_Compressed_pair<std::hash<unsigned long>,std::_Compressed_pair<std::equal_to<unsigned long>,float,1>,1>::_Get_first
PUBLIC	??0?$_Umap_traits@KMV?$_Uhash_compare@KU?$hash@K@std@@U?$equal_to@K@2@@std@@V?$allocator@U?$pair@$$CBKM@std@@@2@$0A@@std@@QAE@ABV?$_Uhash_compare@KU?$hash@K@std@@U?$equal_to@K@2@@1@@Z ; std::_Umap_traits<unsigned long,float,std::_Uhash_compare<unsigned long,std::hash<unsigned long>,std::equal_to<unsigned long> >,std::allocator<std::pair<unsigned long const ,float> >,0>::_Umap_traits<unsigned long,float,std::_Uhash_compare<unsigned long,std::hash<unsigned long>,std::equal_to<unsigned long> >,std::allocator<std::pair<unsigned long const ,float> >,0>
PUBLIC	?_Max_bucket_size@?$_Hash@V?$_Umap_traits@KMV?$_Uhash_compare@KU?$hash@K@std@@U?$equal_to@K@2@@std@@V?$allocator@U?$pair@$$CBKM@std@@@2@$0A@@std@@@std@@IAEAAMXZ ; std::_Hash<std::_Umap_traits<unsigned long,float,std::_Uhash_compare<unsigned long,std::hash<unsigned long>,std::equal_to<unsigned long> >,std::allocator<std::pair<unsigned long const ,float> >,0> >::_Max_bucket_size
PUBLIC	??0?$list@U?$pair@$$CBKM@std@@V?$allocator@U?$pair@$$CBKM@std@@@2@@std@@QAE@ABV?$allocator@U?$pair@$$CBKM@std@@@1@@Z ; std::list<std::pair<unsigned long const ,float>,std::allocator<std::pair<unsigned long const ,float> > >::list<std::pair<unsigned long const ,float>,std::allocator<std::pair<unsigned long const ,float> > >
PUBLIC	?_Unchecked_end@?$list@U?$pair@$$CBKM@std@@V?$allocator@U?$pair@$$CBKM@std@@@2@@std@@QAE?AV?$_List_unchecked_iterator@V?$_List_val@U?$_List_simple_types@U?$pair@$$CBKM@std@@@std@@@std@@@2@XZ ; std::list<std::pair<unsigned long const ,float>,std::allocator<std::pair<unsigned long const ,float> > >::_Unchecked_end
PUBLIC	?_Getal@?$list@U?$pair@$$CBKM@std@@V?$allocator@U?$pair@$$CBKM@std@@@2@@std@@AAEAAV?$allocator@U?$_List_node@U?$pair@$$CBKM@std@@PAX@std@@@2@XZ ; std::list<std::pair<unsigned long const ,float>,std::allocator<std::pair<unsigned long const ,float> > >::_Getal
PUBLIC	??D?$_List_const_iterator@V?$_List_val@U?$_List_simple_types@U?$pair@$$CBKM@std@@@std@@@std@@@std@@QBEABU?$pair@$$CBKM@1@XZ ; std::_List_const_iterator<std::_List_val<std::_List_simple_types<std::pair<unsigned long const ,float> > > >::operator*
PUBLIC	??0?$_List_unchecked_const_iterator@V?$_List_val@U?$_List_simple_types@U?$pair@$$CBKM@std@@@std@@@std@@U_Iterator_base0@2@@std@@QAE@PAU?$_List_node@U?$pair@$$CBKM@std@@PAX@1@PBV?$_List_val@U?$_List_simple_types@U?$pair@$$CBKM@std@@@std@@@1@@Z ; std::_List_unchecked_const_iterator<std::_List_val<std::_List_simple_types<std::pair<unsigned long const ,float> > >,std::_Iterator_base0>::_List_unchecked_const_iterator<std::_List_val<std::_List_simple_types<std::pair<unsigned long const ,float> > >,std::_Iterator_base0>
PUBLIC	?begin@?$initializer_list@U?$pair@$$CBKM@std@@@std@@QBEPBU?$pair@$$CBKM@2@XZ ; std::initializer_list<std::pair<unsigned long const ,float> >::begin
PUBLIC	?end@?$initializer_list@U?$pair@$$CBKM@std@@@std@@QBEPBU?$pair@$$CBKM@2@XZ ; std::initializer_list<std::pair<unsigned long const ,float> >::end
PUBLIC	?deallocate@?$allocator@V?$_List_unchecked_iterator@V?$_List_val@U?$_List_simple_types@U?$pair@$$CBKM@std@@@std@@@std@@@std@@@std@@QAEXQAV?$_List_unchecked_iterator@V?$_List_val@U?$_List_simple_types@U?$pair@$$CBKM@std@@@std@@@std@@@2@I@Z ; std::allocator<std::_List_unchecked_iterator<std::_List_val<std::_List_simple_types<std::pair<unsigned long const ,float> > > > >::deallocate
PUBLIC	?capacity@?$_Hash_vec@V?$allocator@V?$_List_unchecked_iterator@V?$_List_val@U?$_List_simple_types@U?$pair@$$CBKM@std@@@std@@@std@@@std@@@std@@@std@@QBEIXZ ; std::_Hash_vec<std::allocator<std::_List_unchecked_iterator<std::_List_val<std::_List_simple_types<std::pair<unsigned long const ,float> > > > > >::capacity
PUBLIC	?_Assign_grow@?$_Hash_vec@V?$allocator@V?$_List_unchecked_iterator@V?$_List_val@U?$_List_simple_types@U?$pair@$$CBKM@std@@@std@@@std@@@std@@@std@@@std@@QAEXIV?$_List_unchecked_iterator@V?$_List_val@U?$_List_simple_types@U?$pair@$$CBKM@std@@@std@@@std@@@2@@Z ; std::_Hash_vec<std::allocator<std::_List_unchecked_iterator<std::_List_val<std::_List_simple_types<std::pair<unsigned long const ,float> > > > > >::_Assign_grow
PUBLIC	?_Get_first@?$_Compressed_pair@V?$allocator@V?$_List_unchecked_iterator@V?$_List_val@U?$_List_simple_types@U?$pair@$$CBKM@std@@@std@@@std@@@std@@@std@@V?$_Vector_val@U?$_Simple_types@V?$_List_unchecked_iterator@V?$_List_val@U?$_List_simple_types@U?$pair@$$CBKM@std@@@std@@@std@@@std@@@std@@@2@$00@std@@QAEAAV?$allocator@V?$_List_unchecked_iterator@V?$_List_val@U?$_List_simple_types@U?$pair@$$CBKM@std@@@std@@@std@@@std@@@2@XZ ; std::_Compressed_pair<std::allocator<std::_List_unchecked_iterator<std::_List_val<std::_List_simple_types<std::pair<unsigned long const ,float> > > > >,std::_Vector_val<std::_Simple_types<std::_List_unchecked_iterator<std::_List_val<std::_List_simple_types<std::pair<unsigned long const ,float> > > > > >,1>::_Get_first
PUBLIC	??1?$_List_node_emplace_op2@V?$allocator@U?$_List_node@USCommand@CInstanceBase@@PAX@std@@@std@@@std@@QAE@XZ ; std::_List_node_emplace_op2<std::allocator<std::_List_node<CInstanceBase::SCommand,void *> > >::~_List_node_emplace_op2<std::allocator<std::_List_node<CInstanceBase::SCommand,void *> > >
PUBLIC	?_Transfer_before@?$_List_node_emplace_op2@V?$allocator@U?$_List_node@USCommand@CInstanceBase@@PAX@std@@@std@@@std@@QAEPAU?$_List_node@USCommand@CInstanceBase@@PAX@2@QAU32@@Z ; std::_List_node_emplace_op2<std::allocator<std::_List_node<CInstanceBase::SCommand,void *> > >::_Transfer_before
PUBLIC	?_Mark@?$_String_bitmap@D$00@std@@QAE_NPBDQBD@Z	; std::_String_bitmap<char,1>::_Mark
PUBLIC	?_Match@?$_String_bitmap@D$00@std@@QBE_ND@Z	; std::_String_bitmap<char,1>::_Match
PUBLIC	??$?0ABU?$less@K@std@@U_Zero_then_variadic_args_t@1@@?$_Compressed_pair@U?$less@K@std@@V?$_Compressed_pair@V?$allocator@U?$_Tree_node@U?$pair@$$CBKK@std@@PAX@std@@@std@@V?$_Tree_val@U?$_Tree_simple_types@U?$pair@$$CBKK@std@@@std@@@2@$00@2@$00@std@@QAE@U_One_then_variadic_args_t@1@ABU?$less@K@1@$$QAU_Zero_then_variadic_args_t@1@@Z ; std::_Compressed_pair<std::less<unsigned long>,std::_Compressed_pair<std::allocator<std::_Tree_node<std::pair<unsigned long const ,unsigned long>,void *> >,std::_Tree_val<std::_Tree_simple_types<std::pair<unsigned long const ,unsigned long> > >,1>,1>::_Compressed_pair<std::less<unsigned long>,std::_Compressed_pair<std::allocator<std::_Tree_node<std::pair<unsigned long const ,unsigned long>,void *> >,std::_Tree_val<std::_Tree_simple_types<std::pair<unsigned long const ,unsigned long> > >,1>,1><std::less<unsigned long> const &,std::_Zero_then_variadic_args_t>
PUBLIC	??$addressof@V?$_Tree_val@U?$_Tree_simple_types@U?$pair@$$CBKK@std@@@std@@@std@@@std@@YAPAV?$_Tree_val@U?$_Tree_simple_types@U?$pair@$$CBKK@std@@@std@@@0@AAV10@@Z ; std::addressof<std::_Tree_val<std::_Tree_simple_types<std::pair<unsigned long const ,unsigned long> > > >
PUBLIC	??$?0$$V@?$_Compressed_pair@V?$allocator@PAVCInstanceBase@@@std@@V?$_Vector_val@U?$_Simple_types@PAVCInstanceBase@@@std@@@2@$00@std@@QAE@U_Zero_then_variadic_args_t@1@@Z ; std::_Compressed_pair<std::allocator<CInstanceBase *>,std::_Vector_val<std::_Simple_types<CInstanceBase *> >,1>::_Compressed_pair<std::allocator<CInstanceBase *>,std::_Vector_val<std::_Simple_types<CInstanceBase *> >,1><>
PUBLIC	??$_Emplace_one_at_back@ABQAVCInstanceBase@@@?$vector@PAVCInstanceBase@@V?$allocator@PAVCInstanceBase@@@std@@@std@@AAEAAPAVCInstanceBase@@ABQAV2@@Z ; std::vector<CInstanceBase *,std::allocator<CInstanceBase *> >::_Emplace_one_at_back<CInstanceBase * const &>
PUBLIC	??$destroy@PAVCInstanceBase@@@?$_Default_allocator_traits@V?$allocator@PAVCInstanceBase@@@std@@@std@@SAXAAV?$allocator@PAVCInstanceBase@@@1@QAPAVCInstanceBase@@@Z ; std::_Default_allocator_traits<std::allocator<CInstanceBase *> >::destroy<CInstanceBase *>
PUBLIC	??$_Unfancy@PAVCInstanceBase@@@std@@YAPAPAVCInstanceBase@@PAPAV1@@Z ; std::_Unfancy<CInstanceBase *>
PUBLIC	??$_Freenode0@V?$allocator@U?$_List_node@USCommand@CInstanceBase@@PAX@std@@@std@@@?$_List_node@USCommand@CInstanceBase@@PAX@std@@SAXAAV?$allocator@U?$_List_node@USCommand@CInstanceBase@@PAX@std@@@1@PAU01@@Z ; std::_List_node<CInstanceBase::SCommand,void *>::_Freenode0<std::allocator<std::_List_node<CInstanceBase::SCommand,void *> > >
PUBLIC	??$_Construct_in_place@PAU?$_List_node@USCommand@CInstanceBase@@PAX@std@@AAPAU12@@std@@YAXAAPAU?$_List_node@USCommand@CInstanceBase@@PAX@0@0@Z ; std::_Construct_in_place<std::_List_node<CInstanceBase::SCommand,void *> *,std::_List_node<CInstanceBase::SCommand,void *> * &>
PUBLIC	??$?0U_Zero_then_variadic_args_t@std@@M@?$_Compressed_pair@U?$hash@K@std@@V?$_Compressed_pair@U?$equal_to@K@std@@M$00@2@$00@std@@QAE@U_Zero_then_variadic_args_t@1@$$QAU21@$$QAM@Z ; std::_Compressed_pair<std::hash<unsigned long>,std::_Compressed_pair<std::equal_to<unsigned long>,float,1>,1>::_Compressed_pair<std::hash<unsigned long>,std::_Compressed_pair<std::equal_to<unsigned long>,float,1>,1><std::_Zero_then_variadic_args_t,float>
PUBLIC	??$?0ABV?$allocator@U?$pair@$$CBKM@std@@@std@@$0A@@?$_Hash_vec@V?$allocator@V?$_List_unchecked_iterator@V?$_List_val@U?$_List_simple_types@U?$pair@$$CBKM@std@@@std@@@std@@@std@@@std@@@std@@QAE@ABV?$allocator@U?$pair@$$CBKM@std@@@1@@Z ; std::_Hash_vec<std::allocator<std::_List_unchecked_iterator<std::_List_val<std::_List_simple_types<std::pair<unsigned long const ,float> > > > > >::_Hash_vec<std::allocator<std::_List_unchecked_iterator<std::_List_val<std::_List_simple_types<std::pair<unsigned long const ,float> > > > > ><std::allocator<std::pair<unsigned long const ,float> > const &,0>
PUBLIC	??$_Insert_range_unchecked@PBU?$pair@$$CBKM@std@@PBU12@@?$_Hash@V?$_Umap_traits@KMV?$_Uhash_compare@KU?$hash@K@std@@U?$equal_to@K@2@@std@@V?$allocator@U?$pair@$$CBKM@std@@@2@$0A@@std@@@std@@IAEXPBU?$pair@$$CBKM@1@QBU21@@Z ; std::_Hash<std::_Umap_traits<unsigned long,float,std::_Uhash_compare<unsigned long,std::hash<unsigned long>,std::equal_to<unsigned long> >,std::allocator<std::pair<unsigned long const ,float> >,0> >::_Insert_range_unchecked<std::pair<unsigned long const ,float> const *,std::pair<unsigned long const ,float> const *>
PUBLIC	??$addressof@V?$_List_val@U?$_List_simple_types@U?$pair@$$CBKM@std@@@std@@@std@@@std@@YAPAV?$_List_val@U?$_List_simple_types@U?$pair@$$CBKM@std@@@std@@@0@AAV10@@Z ; std::addressof<std::_List_val<std::_List_simple_types<std::pair<unsigned long const ,float> > > >
PUBLIC	??$addressof@$$CBV?$_List_val@U?$_List_simple_types@U?$pair@$$CBKM@std@@@std@@@std@@@std@@YAPBV?$_List_val@U?$_List_simple_types@U?$pair@$$CBKM@std@@@std@@@0@ABV10@@Z ; std::addressof<std::_List_val<std::_List_simple_types<std::pair<unsigned long const ,float> > > const >
PUBLIC	??$_Freenode0@V?$allocator@U?$_List_node@U?$pair@$$CBKM@std@@PAX@std@@@std@@@?$_List_node@U?$pair@$$CBKM@std@@PAX@std@@SAXAAV?$allocator@U?$_List_node@U?$pair@$$CBKM@std@@PAX@std@@@1@PAU01@@Z ; std::_List_node<std::pair<unsigned long const ,float>,void *>::_Freenode0<std::allocator<std::_List_node<std::pair<unsigned long const ,float>,void *> > >
PUBLIC	??$_Free_non_head@V?$allocator@U?$_List_node@U?$pair@$$CBKM@std@@PAX@std@@@std@@@?$_List_node@U?$pair@$$CBKM@std@@PAX@std@@SAXAAV?$allocator@U?$_List_node@U?$pair@$$CBKM@std@@PAX@std@@@1@PAU01@@Z ; std::_List_node<std::pair<unsigned long const ,float>,void *>::_Free_non_head<std::allocator<std::_List_node<std::pair<unsigned long const ,float>,void *> > >
PUBLIC	??$_Destroy_range@PAV?$_List_unchecked_iterator@V?$_List_val@U?$_List_simple_types@U?$pair@$$CBKM@std@@@std@@@std@@@std@@PAV12@@std@@YAXPAV?$_List_unchecked_iterator@V?$_List_val@U?$_List_simple_types@U?$pair@$$CBKM@std@@@std@@@std@@@0@QAV10@@Z ; std::_Destroy_range<std::_List_unchecked_iterator<std::_List_val<std::_List_simple_types<std::pair<unsigned long const ,float> > > > *,std::_List_unchecked_iterator<std::_List_val<std::_List_simple_types<std::pair<unsigned long const ,float> > > > *>
PUBLIC	??$addressof@U?$pair@$$CBKM@std@@@std@@YAPAU?$pair@$$CBKM@0@AAU10@@Z ; std::addressof<std::pair<unsigned long const ,float> >
PUBLIC	??$_Find_first_of_pos_vectorized@DD@std@@YAIQBDI0I@Z ; std::_Find_first_of_pos_vectorized<char,char>
PUBLIC	??$_Emplace_reallocate@ABK@?$vector@KV?$allocator@K@std@@@std@@AAEPAKQAKABK@Z ; std::vector<unsigned long,std::allocator<unsigned long> >::_Emplace_reallocate<unsigned long const &>
PUBLIC	??$_Emplace_back_with_unused_capacity@ABK@?$vector@KV?$allocator@K@std@@@std@@AAEAAKABK@Z ; std::vector<unsigned long,std::allocator<unsigned long> >::_Emplace_back_with_unused_capacity<unsigned long const &>
PUBLIC	??$forward@ABK@std@@YAABKABK@Z			; std::forward<unsigned long const &>
PUBLIC	??$destroy_at@K@std@@YAXQAK@Z			; std::destroy_at<unsigned long>
PUBLIC	??$move@AAK@std@@YA$$QAKAAK@Z			; std::move<unsigned long &>
PUBLIC	??$_Copy_memmove@PAKPAK@std@@YAPAKPAK00@Z	; std::_Copy_memmove<unsigned long *,unsigned long *>
PUBLIC	??$_Freenode0@V?$allocator@U?$_Tree_node@U?$pair@$$CBKK@std@@PAX@std@@@std@@@?$_Tree_node@U?$pair@$$CBKK@std@@PAX@std@@SAXAAV?$allocator@U?$_Tree_node@U?$pair@$$CBKK@std@@PAX@std@@@1@PAU01@@Z ; std::_Tree_node<std::pair<unsigned long const ,unsigned long>,void *>::_Freenode0<std::allocator<std::_Tree_node<std::pair<unsigned long const ,unsigned long>,void *> > >
PUBLIC	??$_Erase_tree@V?$allocator@U?$_Tree_node@U?$pair@$$CBKK@std@@PAX@std@@@std@@@?$_Tree_val@U?$_Tree_simple_types@U?$pair@$$CBKK@std@@@std@@@std@@QAEXAAV?$allocator@U?$_Tree_node@U?$pair@$$CBKK@std@@PAX@std@@@1@PAU?$_Tree_node@U?$pair@$$CBKK@std@@PAX@1@@Z ; std::_Tree_val<std::_Tree_simple_types<std::pair<unsigned long const ,unsigned long> > >::_Erase_tree<std::allocator<std::_Tree_node<std::pair<unsigned long const ,unsigned long>,void *> > >
PUBLIC	??$?0ABUSCommand@CInstanceBase@@@?$_List_node_emplace_op2@V?$allocator@U?$_List_node@USCommand@CInstanceBase@@PAX@std@@@std@@@std@@QAE@AAV?$allocator@U?$_List_node@USCommand@CInstanceBase@@PAX@std@@@1@ABUSCommand@CInstanceBase@@@Z ; std::_List_node_emplace_op2<std::allocator<std::_List_node<CInstanceBase::SCommand,void *> > >::_List_node_emplace_op2<std::allocator<std::_List_node<CInstanceBase::SCommand,void *> > ><CInstanceBase::SCommand const &>
PUBLIC	??$forward@ABUSCommand@CInstanceBase@@@std@@YAABUSCommand@CInstanceBase@@ABU12@@Z ; std::forward<CInstanceBase::SCommand const &>
PUBLIC	??$_Freenode@V?$allocator@U?$_List_node@USCommand@CInstanceBase@@PAX@std@@@std@@@?$_List_node@USCommand@CInstanceBase@@PAX@std@@SAXAAV?$allocator@U?$_List_node@USCommand@CInstanceBase@@PAX@std@@@1@PAU01@@Z ; std::_List_node<CInstanceBase::SCommand,void *>::_Freenode<std::allocator<std::_List_node<CInstanceBase::SCommand,void *> > >
PUBLIC	??$_Unfancy@U_Container_proxy@std@@@std@@YAPAU_Container_proxy@0@PAU10@@Z ; std::_Unfancy<std::_Container_proxy>
PUBLIC	??$_Deallocate_plain@V?$allocator@U_Container_proxy@std@@@std@@@std@@YAXAAV?$allocator@U_Container_proxy@std@@@0@QAU_Container_proxy@0@@Z ; std::_Deallocate_plain<std::allocator<std::_Container_proxy> >
PUBLIC	??$_Find_last@K@?$_Hash@V?$_Umap_traits@KMV?$_Uhash_compare@KU?$hash@K@std@@U?$equal_to@K@2@@std@@V?$allocator@U?$pair@$$CBKM@std@@@2@$0A@@std@@@std@@IBE?AU?$_Hash_find_last_result@PAU?$_List_node@U?$pair@$$CBKM@std@@PAX@std@@@1@ABKI@Z ; std::_Hash<std::_Umap_traits<unsigned long,float,std::_Uhash_compare<unsigned long,std::hash<unsigned long>,std::equal_to<unsigned long> >,std::allocator<std::pair<unsigned long const ,float> >,0> >::_Find_last<unsigned long>
PUBLIC	??$forward@PAK@std@@YA$$QAPAKAAPAK@Z		; std::forward<unsigned long *>
PUBLIC	??$_Find_vectorized@KK@std@@YAPAKQAK0K@Z	; std::_Find_vectorized<unsigned long,unsigned long>
PUBLIC	??$_Could_compare_equal_to_value_type@PAKK@std@@YA_NABK@Z ; std::_Could_compare_equal_to_value_type<unsigned long *,unsigned long>
PUBLIC	??0?$_List_const_iterator@V?$_List_val@U?$_List_simple_types@U?$pair@$$CBKM@std@@@std@@@std@@@std@@QAE@PAU?$_List_node@U?$pair@$$CBKM@std@@PAX@1@PBV?$_List_val@U?$_List_simple_types@U?$pair@$$CBKM@std@@@std@@@1@@Z ; std::_List_const_iterator<std::_List_val<std::_List_simple_types<std::pair<unsigned long const ,float> > > >::_List_const_iterator<std::_List_val<std::_List_simple_types<std::pair<unsigned long const ,float> > > >
PUBLIC	??0?$_List_iterator@V?$_List_val@U?$_List_simple_types@U?$pair@$$CBKM@std@@@std@@@std@@@std@@QAE@PAU?$_List_node@U?$pair@$$CBKM@std@@PAX@1@PBV?$_List_val@U?$_List_simple_types@U?$pair@$$CBKM@std@@@std@@@1@@Z ; std::_List_iterator<std::_List_val<std::_List_simple_types<std::pair<unsigned long const ,float> > > >::_List_iterator<std::_List_val<std::_List_simple_types<std::pair<unsigned long const ,float> > > >
PUBLIC	?_Orphan_range@?$vector@KV?$allocator@K@std@@@std@@ABEXPAK0@Z ; std::vector<unsigned long,std::allocator<unsigned long> >::_Orphan_range
PUBLIC	?_Unwrapped@?$_Vector_iterator@V?$_Vector_val@U?$_Simple_types@K@std@@@std@@@std@@QBEPAKXZ ; std::_Vector_iterator<std::_Vector_val<std::_Simple_types<unsigned long> > >::_Unwrapped
PUBLIC	??0?$_Vector_const_iterator@V?$_Vector_val@U?$_Simple_types@K@std@@@std@@@std@@QAE@PAKPBU_Container_base0@1@@Z ; std::_Vector_const_iterator<std::_Vector_val<std::_Simple_types<unsigned long> > >::_Vector_const_iterator<std::_Vector_val<std::_Simple_types<unsigned long> > >
PUBLIC	?_Compat@?$_Vector_const_iterator@V?$_Vector_val@U?$_Simple_types@K@std@@@std@@@std@@QBEXABV12@@Z ; std::_Vector_const_iterator<std::_Vector_val<std::_Simple_types<unsigned long> > >::_Compat
PUBLIC	??0?$_Tree@V?$_Tmap_traits@KKU?$less@K@std@@V?$allocator@U?$pair@$$CBKK@std@@@2@$0A@@std@@@std@@QAE@ABU?$less@K@1@@Z ; std::_Tree<std::_Tmap_traits<unsigned long,unsigned long,std::less<unsigned long>,std::allocator<std::pair<unsigned long const ,unsigned long> >,0> >::_Tree<std::_Tmap_traits<unsigned long,unsigned long,std::less<unsigned long>,std::allocator<std::pair<unsigned long const ,unsigned long> >,0> >
PUBLIC	?_Getal@?$_Tree@V?$_Tmap_traits@KKU?$less@K@std@@V?$allocator@U?$pair@$$CBKK@std@@@2@$0A@@std@@@std@@IAEAAV?$allocator@U?$_Tree_node@U?$pair@$$CBKK@std@@PAX@std@@@2@XZ ; std::_Tree<std::_Tmap_traits<unsigned long,unsigned long,std::less<unsigned long>,std::allocator<std::pair<unsigned long const ,unsigned long> >,0> >::_Getal
PUBLIC	?_Get_scary@?$_Tree@V?$_Tmap_traits@KKU?$less@K@std@@V?$allocator@U?$pair@$$CBKK@std@@@2@$0A@@std@@@std@@IAEPAV?$_Tree_val@U?$_Tree_simple_types@U?$pair@$$CBKK@std@@@std@@@2@XZ ; std::_Tree<std::_Tmap_traits<unsigned long,unsigned long,std::less<unsigned long>,std::allocator<std::pair<unsigned long const ,unsigned long> >,0> >::_Get_scary
PUBLIC	??0?$vector@PAVCInstanceBase@@V?$allocator@PAVCInstanceBase@@@std@@@std@@QAE@XZ ; std::vector<CInstanceBase *,std::allocator<CInstanceBase *> >::vector<CInstanceBase *,std::allocator<CInstanceBase *> >
PUBLIC	??1?$vector@PAVCInstanceBase@@V?$allocator@PAVCInstanceBase@@@std@@@std@@QAE@XZ ; std::vector<CInstanceBase *,std::allocator<CInstanceBase *> >::~vector<CInstanceBase *,std::allocator<CInstanceBase *> >
PUBLIC	?push_back@?$vector@PAVCInstanceBase@@V?$allocator@PAVCInstanceBase@@@std@@@std@@QAEXABQAVCInstanceBase@@@Z ; std::vector<CInstanceBase *,std::allocator<CInstanceBase *> >::push_back
PUBLIC	?pop_back@?$vector@PAVCInstanceBase@@V?$allocator@PAVCInstanceBase@@@std@@@std@@QAEXXZ ; std::vector<CInstanceBase *,std::allocator<CInstanceBase *> >::pop_back
PUBLIC	?empty@?$vector@PAVCInstanceBase@@V?$allocator@PAVCInstanceBase@@@std@@@std@@QBE_NXZ ; std::vector<CInstanceBase *,std::allocator<CInstanceBase *> >::empty
PUBLIC	?size@?$vector@PAVCInstanceBase@@V?$allocator@PAVCInstanceBase@@@std@@@std@@QBEIXZ ; std::vector<CInstanceBase *,std::allocator<CInstanceBase *> >::size
PUBLIC	?back@?$vector@PAVCInstanceBase@@V?$allocator@PAVCInstanceBase@@@std@@@std@@QAEAAPAVCInstanceBase@@XZ ; std::vector<CInstanceBase *,std::allocator<CInstanceBase *> >::back
PUBLIC	?_Unchecked_erase@?$list@USCommand@CInstanceBase@@V?$allocator@USCommand@CInstanceBase@@@std@@@std@@AAEPAU?$_List_node@USCommand@CInstanceBase@@PAX@2@QAU32@@Z ; std::list<CInstanceBase::SCommand,std::allocator<CInstanceBase::SCommand> >::_Unchecked_erase
PUBLIC	?_Tidy@?$list@USCommand@CInstanceBase@@V?$allocator@USCommand@CInstanceBase@@@std@@@std@@AAEXXZ ; std::list<CInstanceBase::SCommand,std::allocator<CInstanceBase::SCommand> >::_Tidy
PUBLIC	?_Alloc_sentinel_and_proxy@?$list@USCommand@CInstanceBase@@V?$allocator@USCommand@CInstanceBase@@@std@@@std@@AAEXXZ ; std::list<CInstanceBase::SCommand,std::allocator<CInstanceBase::SCommand> >::_Alloc_sentinel_and_proxy
PUBLIC	?_Getal@?$list@USCommand@CInstanceBase@@V?$allocator@USCommand@CInstanceBase@@@std@@@std@@AAEAAV?$allocator@U?$_List_node@USCommand@CInstanceBase@@PAX@std@@@2@XZ ; std::list<CInstanceBase::SCommand,std::allocator<CInstanceBase::SCommand> >::_Getal
PUBLIC	?_Orphan_non_end@?$_List_val@U?$_List_simple_types@USCommand@CInstanceBase@@@std@@@std@@QAEXXZ ; std::_List_val<std::_List_simple_types<CInstanceBase::SCommand> >::_Orphan_non_end
PUBLIC	?_Tidy@?$deque@USEffectDamage@CInstanceBase@@V?$allocator@USEffectDamage@CInstanceBase@@@std@@@std@@AAEXXZ ; std::deque<CInstanceBase::SEffectDamage,std::allocator<CInstanceBase::SEffectDamage> >::_Tidy
PUBLIC	?_Getal@?$deque@USEffectDamage@CInstanceBase@@V?$allocator@USEffectDamage@CInstanceBase@@@std@@@std@@AAEAAV?$allocator@USEffectDamage@CInstanceBase@@@2@XZ ; std::deque<CInstanceBase::SEffectDamage,std::allocator<CInstanceBase::SEffectDamage> >::_Getal
PUBLIC	?_Get_data@?$deque@USEffectDamage@CInstanceBase@@V?$allocator@USEffectDamage@CInstanceBase@@@std@@@std@@AAEAAV?$_Deque_val@U?$_Deque_simple_types@USEffectDamage@CInstanceBase@@@std@@@2@XZ ; std::deque<CInstanceBase::SEffectDamage,std::allocator<CInstanceBase::SEffectDamage> >::_Get_data
PUBLIC	?Destroy@?$CDynamicPool@VCInstanceBase@@@@QAEXXZ ; CDynamicPool<CInstanceBase>::Destroy
PUBLIC	??0?$_Uhash_compare@KU?$hash@K@std@@U?$equal_to@K@2@@std@@QAE@XZ ; std::_Uhash_compare<unsigned long,std::hash<unsigned long>,std::equal_to<unsigned long> >::_Uhash_compare<unsigned long,std::hash<unsigned long>,std::equal_to<unsigned long> >
PUBLIC	??0?$allocator@U?$pair@$$CBKM@std@@@std@@QAE@XZ	; std::allocator<std::pair<unsigned long const ,float> >::allocator<std::pair<unsigned long const ,float> >
PUBLIC	??0?$_Hash@V?$_Umap_traits@KMV?$_Uhash_compare@KU?$hash@K@std@@U?$equal_to@K@2@@std@@V?$allocator@U?$pair@$$CBKM@std@@@2@$0A@@std@@@std@@IAE@ABV?$_Uhash_compare@KU?$hash@K@std@@U?$equal_to@K@2@@1@ABV?$allocator@U?$pair@$$CBKM@std@@@1@@Z ; std::_Hash<std::_Umap_traits<unsigned long,float,std::_Uhash_compare<unsigned long,std::hash<unsigned long>,std::equal_to<unsigned long> >,std::allocator<std::pair<unsigned long const ,float> >,0> >::_Hash<std::_Umap_traits<unsigned long,float,std::_Uhash_compare<unsigned long,std::hash<unsigned long>,std::equal_to<unsigned long> >,std::allocator<std::pair<unsigned long const ,float> >,0> >
PUBLIC	?insert@?$_Hash@V?$_Umap_traits@KMV?$_Uhash_compare@KU?$hash@K@std@@U?$equal_to@K@2@@std@@V?$allocator@U?$pair@$$CBKM@std@@@2@$0A@@std@@@std@@QAEXV?$initializer_list@U?$pair@$$CBKM@std@@@2@@Z ; std::_Hash<std::_Umap_traits<unsigned long,float,std::_Uhash_compare<unsigned long,std::hash<unsigned long>,std::equal_to<unsigned long> >,std::allocator<std::pair<unsigned long const ,float> >,0> >::insert
PUBLIC	?end@?$list@U?$pair@$$CBKM@std@@V?$allocator@U?$pair@$$CBKM@std@@@2@@std@@QAE?AV?$_List_iterator@V?$_List_val@U?$_List_simple_types@U?$pair@$$CBKM@std@@@std@@@std@@@2@XZ ; std::list<std::pair<unsigned long const ,float>,std::allocator<std::pair<unsigned long const ,float> > >::end
PUBLIC	?_Make_iter@?$list@U?$pair@$$CBKM@std@@V?$allocator@U?$pair@$$CBKM@std@@@2@@std@@QBE?AV?$_List_iterator@V?$_List_val@U?$_List_simple_types@U?$pair@$$CBKM@std@@@std@@@std@@@2@PAU?$_List_node@U?$pair@$$CBKM@std@@PAX@2@@Z ; std::list<std::pair<unsigned long const ,float>,std::allocator<std::pair<unsigned long const ,float> > >::_Make_iter
PUBLIC	?_Tidy@?$list@U?$pair@$$CBKM@std@@V?$allocator@U?$pair@$$CBKM@std@@@2@@std@@AAEXXZ ; std::list<std::pair<unsigned long const ,float>,std::allocator<std::pair<unsigned long const ,float> > >::_Tidy
PUBLIC	??D?$_List_iterator@V?$_List_val@U?$_List_simple_types@U?$pair@$$CBKM@std@@@std@@@std@@@std@@QBEAAU?$pair@$$CBKM@1@XZ ; std::_List_iterator<std::_List_val<std::_List_simple_types<std::pair<unsigned long const ,float> > > >::operator*
PUBLIC	?_Tidy@?$_Hash_vec@V?$allocator@V?$_List_unchecked_iterator@V?$_List_val@U?$_List_simple_types@U?$pair@$$CBKM@std@@@std@@@std@@@std@@@std@@@std@@QAEXXZ ; std::_Hash_vec<std::allocator<std::_List_unchecked_iterator<std::_List_val<std::_List_simple_types<std::pair<unsigned long const ,float> > > > > >::_Tidy
PUBLIC	?pointer_to@?$pointer_traits@PAU?$pair@$$CBKM@std@@@std@@SAPAU?$pair@$$CBKM@2@AAU32@@Z ; std::pointer_traits<std::pair<unsigned long const ,float> *>::pointer_to
PUBLIC	??0?$_String_bitmap@D$00@std@@QAE@XZ		; std::_String_bitmap<char,1>::_String_bitmap<char,1>
PUBLIC	??$_Traits_find_first_of@U?$char_traits@D@std@@@std@@YAIQBDII0I@Z ; std::_Traits_find_first_of<std::char_traits<char> >
PUBLIC	??$_Emplace_one_at_back@ABK@?$vector@KV?$allocator@K@std@@@std@@AAEAAKABK@Z ; std::vector<unsigned long,std::allocator<unsigned long> >::_Emplace_one_at_back<unsigned long const &>
PUBLIC	??$destroy@K@?$_Default_allocator_traits@V?$allocator@K@std@@@std@@SAXAAV?$allocator@K@1@QAK@Z ; std::_Default_allocator_traits<std::allocator<unsigned long> >::destroy<unsigned long>
PUBLIC	??$_Move_unchecked@PAKPAK@std@@YAPAKPAK00@Z	; std::_Move_unchecked<unsigned long *,unsigned long *>
PUBLIC	??$addressof@V?$_Vector_val@U?$_Simple_types@K@std@@@std@@@std@@YAPAV?$_Vector_val@U?$_Simple_types@K@std@@@0@AAV10@@Z ; std::addressof<std::_Vector_val<std::_Simple_types<unsigned long> > >
PUBLIC	??$_Unfancy_maybe_null@K@std@@YAPAKPAK@Z	; std::_Unfancy_maybe_null<unsigned long>
PUBLIC	??$_Erase_head@V?$allocator@U?$_Tree_node@U?$pair@$$CBKK@std@@PAX@std@@@std@@@?$_Tree_val@U?$_Tree_simple_types@U?$pair@$$CBKK@std@@@std@@@std@@QAEXAAV?$allocator@U?$_Tree_node@U?$pair@$$CBKK@std@@PAX@std@@@1@@Z ; std::_Tree_val<std::_Tree_simple_types<std::pair<unsigned long const ,unsigned long> > >::_Erase_head<std::allocator<std::_Tree_node<std::pair<unsigned long const ,unsigned long>,void *> > >
PUBLIC	??$?0$$V@?$_Compressed_pair@V?$allocator@U?$_List_node@USCommand@CInstanceBase@@PAX@std@@@std@@V?$_List_val@U?$_List_simple_types@USCommand@CInstanceBase@@@std@@@2@$00@std@@QAE@U_Zero_then_variadic_args_t@1@@Z ; std::_Compressed_pair<std::allocator<std::_List_node<CInstanceBase::SCommand,void *> >,std::_List_val<std::_List_simple_types<CInstanceBase::SCommand> >,1>::_Compressed_pair<std::allocator<std::_List_node<CInstanceBase::SCommand,void *> >,std::_List_val<std::_List_simple_types<CInstanceBase::SCommand> >,1><>
PUBLIC	??$_Emplace@ABUSCommand@CInstanceBase@@@?$list@USCommand@CInstanceBase@@V?$allocator@USCommand@CInstanceBase@@@std@@@std@@QAEPAU?$_List_node@USCommand@CInstanceBase@@PAX@1@QAU21@ABUSCommand@CInstanceBase@@@Z ; std::list<CInstanceBase::SCommand,std::allocator<CInstanceBase::SCommand> >::_Emplace<CInstanceBase::SCommand const &>
PUBLIC	??$_Free_non_head@V?$allocator@U?$_List_node@USCommand@CInstanceBase@@PAX@std@@@std@@@?$_List_node@USCommand@CInstanceBase@@PAX@std@@SAXAAV?$allocator@U?$_List_node@USCommand@CInstanceBase@@PAX@std@@@1@PAU01@@Z ; std::_List_node<CInstanceBase::SCommand,void *>::_Free_non_head<std::allocator<std::_List_node<CInstanceBase::SCommand,void *> > >
PUBLIC	??$_Alloc_proxy@V?$allocator@U_Container_proxy@std@@@std@@@_Container_base12@std@@QAEX$$QAV?$allocator@U_Container_proxy@std@@@1@@Z ; std::_Container_base12::_Alloc_proxy<std::allocator<std::_Container_proxy> >
PUBLIC	??$?0$$V@?$_Compressed_pair@V?$allocator@USEffectDamage@CInstanceBase@@@std@@V?$_Deque_val@U?$_Deque_simple_types@USEffectDamage@CInstanceBase@@@std@@@2@$00@std@@QAE@U_Zero_then_variadic_args_t@1@@Z ; std::_Compressed_pair<std::allocator<CInstanceBase::SEffectDamage>,std::_Deque_val<std::_Deque_simple_types<CInstanceBase::SEffectDamage> >,1>::_Compressed_pair<std::allocator<CInstanceBase::SEffectDamage>,std::_Deque_val<std::_Deque_simple_types<CInstanceBase::SEffectDamage> >,1><>
PUBLIC	??$_Delete_plain_internal@V?$allocator@U_Container_proxy@std@@@std@@@std@@YAXAAV?$allocator@U_Container_proxy@std@@@0@QAU_Container_proxy@0@@Z ; std::_Delete_plain_internal<std::allocator<std::_Container_proxy> >
PUBLIC	??$exchange@PAU_Container_proxy@std@@$$T@std@@YAPAU_Container_proxy@0@AAPAU10@$$QA$$T@Z ; std::exchange<std::_Container_proxy *,std::nullptr_t>
PUBLIC	??$?0USEffectDamage@CInstanceBase@@@?$allocator@U_Container_proxy@std@@@std@@QAE@ABV?$allocator@USEffectDamage@CInstanceBase@@@1@@Z ; std::allocator<std::_Container_proxy>::allocator<std::_Container_proxy><CInstanceBase::SEffectDamage>
PUBLIC	??$_Find@K@?$_Hash@V?$_Umap_traits@KMV?$_Uhash_compare@KU?$hash@K@std@@U?$equal_to@K@2@@std@@V?$allocator@U?$pair@$$CBKM@std@@@2@$0A@@std@@@std@@ABEPAU?$_List_node@U?$pair@$$CBKM@std@@PAX@1@ABKI@Z ; std::_Hash<std::_Umap_traits<unsigned long,float,std::_Uhash_compare<unsigned long,std::hash<unsigned long>,std::equal_to<unsigned long> >,std::allocator<std::pair<unsigned long const ,float> >,0> >::_Find<unsigned long>
PUBLIC	??$?RK@?$_Uhash_compare@KU?$hash@K@std@@U?$equal_to@K@2@@std@@QBEIABK@Z ; std::_Uhash_compare<unsigned long,std::hash<unsigned long>,std::equal_to<unsigned long> >::operator()<unsigned long>
PUBLIC	??$_Seek_wrapped@V?$_Vector_iterator@V?$_Vector_val@U?$_Simple_types@K@std@@@std@@@std@@PAK@std@@YAXAAV?$_Vector_iterator@V?$_Vector_val@U?$_Simple_types@K@std@@@std@@@0@$$QAPAK@Z ; std::_Seek_wrapped<std::_Vector_iterator<std::_Vector_val<std::_Simple_types<unsigned long> > >,unsigned long *>
PUBLIC	??$_Find_unchecked@PAKK@std@@YAPAKPAKQAKABK@Z	; std::_Find_unchecked<unsigned long *,unsigned long>
PUBLIC	??$_Adl_verify_range@V?$_Vector_iterator@V?$_Vector_val@U?$_Simple_types@K@std@@@std@@@std@@V12@@std@@YAXABV?$_Vector_iterator@V?$_Vector_val@U?$_Simple_types@K@std@@@std@@@0@0@Z ; std::_Adl_verify_range<std::_Vector_iterator<std::_Vector_val<std::_Simple_types<unsigned long> > >,std::_Vector_iterator<std::_Vector_val<std::_Simple_types<unsigned long> > > >
PUBLIC	??$forward@M@std@@YA$$QAMAAM@Z			; std::forward<float>
PUBLIC	??$forward@H@std@@YA$$QAHAAH@Z			; std::forward<int>
PUBLIC	??_G?$CDynamicPool@VCInstanceBase@@@@UAEPAXI@Z	; CDynamicPool<CInstanceBase>::`scalar deleting destructor'
PUBLIC	?find_first_of@?$basic_string@DU?$char_traits@D@std@@V?$allocator@D@2@@std@@QBEIQBDI@Z ; std::basic_string<char,std::char_traits<char>,std::allocator<char> >::find_first_of
PUBLIC	?push_back@?$vector@KV?$allocator@K@std@@@std@@QAEXABK@Z ; std::vector<unsigned long,std::allocator<unsigned long> >::push_back
PUBLIC	?erase@?$vector@KV?$allocator@K@std@@@std@@QAE?AV?$_Vector_iterator@V?$_Vector_val@U?$_Simple_types@K@std@@@std@@@2@V?$_Vector_const_iterator@V?$_Vector_val@U?$_Simple_types@K@std@@@std@@@2@@Z ; std::vector<unsigned long,std::allocator<unsigned long> >::erase
PUBLIC	?begin@?$vector@KV?$allocator@K@std@@@std@@QAE?AV?$_Vector_iterator@V?$_Vector_val@U?$_Simple_types@K@std@@@std@@@2@XZ ; std::vector<unsigned long,std::allocator<unsigned long> >::begin
PUBLIC	??0?$_Vector_iterator@V?$_Vector_val@U?$_Simple_types@K@std@@@std@@@std@@QAE@PAKPBU_Container_base0@1@@Z ; std::_Vector_iterator<std::_Vector_val<std::_Simple_types<unsigned long> > >::_Vector_iterator<std::_Vector_val<std::_Simple_types<unsigned long> > >
PUBLIC	?end@?$vector@KV?$allocator@K@std@@@std@@QAE?AV?$_Vector_iterator@V?$_Vector_val@U?$_Simple_types@K@std@@@std@@@2@XZ ; std::vector<unsigned long,std::allocator<unsigned long> >::end
PUBLIC	?_Unchecked_begin@?$vector@KV?$allocator@K@std@@@std@@QAEPAKXZ ; std::vector<unsigned long,std::allocator<unsigned long> >::_Unchecked_begin
PUBLIC	?_Unchecked_end@?$vector@KV?$allocator@K@std@@@std@@QAEPAKXZ ; std::vector<unsigned long,std::allocator<unsigned long> >::_Unchecked_end
PUBLIC	??8?$_Vector_const_iterator@V?$_Vector_val@U?$_Simple_types@K@std@@@std@@@std@@QBE_NABV01@@Z ; std::_Vector_const_iterator<std::_Vector_val<std::_Simple_types<unsigned long> > >::operator==
PUBLIC	??0?$map@KKU?$less@K@std@@V?$allocator@U?$pair@$$CBKK@std@@@2@@std@@QAE@XZ ; std::map<unsigned long,unsigned long,std::less<unsigned long>,std::allocator<std::pair<unsigned long const ,unsigned long> > >::map<unsigned long,unsigned long,std::less<unsigned long>,std::allocator<std::pair<unsigned long const ,unsigned long> > >
PUBLIC	??1?$_Tree@V?$_Tmap_traits@KKU?$less@K@std@@V?$allocator@U?$pair@$$CBKK@std@@@2@$0A@@std@@@std@@QAE@XZ ; std::_Tree<std::_Tmap_traits<unsigned long,unsigned long,std::less<unsigned long>,std::allocator<std::pair<unsigned long const ,unsigned long> >,0> >::~_Tree<std::_Tmap_traits<unsigned long,unsigned long,std::less<unsigned long>,std::allocator<std::pair<unsigned long const ,unsigned long> >,0> >
PUBLIC	?Instance@?$CSingleton@VCStateManager@@@@SAAAVCStateManager@@XZ ; CSingleton<CStateManager>::Instance
PUBLIC	??0?$list@USCommand@CInstanceBase@@V?$allocator@USCommand@CInstanceBase@@@std@@@std@@QAE@XZ ; std::list<CInstanceBase::SCommand,std::allocator<CInstanceBase::SCommand> >::list<CInstanceBase::SCommand,std::allocator<CInstanceBase::SCommand> >
PUBLIC	??1?$list@USCommand@CInstanceBase@@V?$allocator@USCommand@CInstanceBase@@@std@@@std@@QAE@XZ ; std::list<CInstanceBase::SCommand,std::allocator<CInstanceBase::SCommand> >::~list<CInstanceBase::SCommand,std::allocator<CInstanceBase::SCommand> >
PUBLIC	?empty@?$list@USCommand@CInstanceBase@@V?$allocator@USCommand@CInstanceBase@@@std@@@std@@QBE_NXZ ; std::list<CInstanceBase::SCommand,std::allocator<CInstanceBase::SCommand> >::empty
PUBLIC	?front@?$list@USCommand@CInstanceBase@@V?$allocator@USCommand@CInstanceBase@@@std@@@std@@QAEAAUSCommand@CInstanceBase@@XZ ; std::list<CInstanceBase::SCommand,std::allocator<CInstanceBase::SCommand> >::front
PUBLIC	?pop_front@?$list@USCommand@CInstanceBase@@V?$allocator@USCommand@CInstanceBase@@@std@@@std@@QAEXXZ ; std::list<CInstanceBase::SCommand,std::allocator<CInstanceBase::SCommand> >::pop_front
PUBLIC	?push_back@?$list@USCommand@CInstanceBase@@V?$allocator@USCommand@CInstanceBase@@@std@@@std@@QAEXABUSCommand@CInstanceBase@@@Z ; std::list<CInstanceBase::SCommand,std::allocator<CInstanceBase::SCommand> >::push_back
PUBLIC	?clear@?$list@USCommand@CInstanceBase@@V?$allocator@USCommand@CInstanceBase@@@std@@@std@@QAEXXZ ; std::list<CInstanceBase::SCommand,std::allocator<CInstanceBase::SCommand> >::clear
PUBLIC	??0?$deque@USEffectDamage@CInstanceBase@@V?$allocator@USEffectDamage@CInstanceBase@@@std@@@std@@QAE@XZ ; std::deque<CInstanceBase::SEffectDamage,std::allocator<CInstanceBase::SEffectDamage> >::deque<CInstanceBase::SEffectDamage,std::allocator<CInstanceBase::SEffectDamage> >
PUBLIC	??1?$deque@USEffectDamage@CInstanceBase@@V?$allocator@USEffectDamage@CInstanceBase@@@std@@@std@@QAE@XZ ; std::deque<CInstanceBase::SEffectDamage,std::allocator<CInstanceBase::SEffectDamage> >::~deque<CInstanceBase::SEffectDamage,std::allocator<CInstanceBase::SEffectDamage> >
PUBLIC	??0?$CDynamicPool@VCInstanceBase@@@@QAE@XZ	; CDynamicPool<CInstanceBase>::CDynamicPool<CInstanceBase>
PUBLIC	??1?$CDynamicPool@VCInstanceBase@@@@UAE@XZ	; CDynamicPool<CInstanceBase>::~CDynamicPool<CInstanceBase>
PUBLIC	?Clear@?$CDynamicPool@VCInstanceBase@@@@QAEXXZ	; CDynamicPool<CInstanceBase>::Clear
PUBLIC	?Alloc@?$CDynamicPool@VCInstanceBase@@@@QAEPAVCInstanceBase@@XZ ; CDynamicPool<CInstanceBase>::Alloc
PUBLIC	?Free@?$CDynamicPool@VCInstanceBase@@@@QAEXPAVCInstanceBase@@@Z ; CDynamicPool<CInstanceBase>::Free
PUBLIC	?GetCapacity@?$CDynamicPool@VCInstanceBase@@@@QAEKXZ ; CDynamicPool<CInstanceBase>::GetCapacity
PUBLIC	?Instance@?$CSingleton@VCPythonNonPlayer@@@@SAAAVCPythonNonPlayer@@XZ ; CSingleton<CPythonNonPlayer>::Instance
PUBLIC	?GetSingleton@?$TAbstractSingleton@VIAbstractPlayer@@@@SAAAVIAbstractPlayer@@XZ ; TAbstractSingleton<IAbstractPlayer>::GetSingleton
PUBLIC	?Instance@?$CSingleton@VCPythonSkill@@@@SAAAVCPythonSkill@@XZ ; CSingleton<CPythonSkill>::Instance
PUBLIC	?Instance@?$CSingleton@VCPythonPlayer@@@@SAAAVCPythonPlayer@@XZ ; CSingleton<CPythonPlayer>::Instance
PUBLIC	?Instance@?$CSingleton@VCPythonCharacterManager@@@@SAAAVCPythonCharacterManager@@XZ ; CSingleton<CPythonCharacterManager>::Instance
PUBLIC	?GetSingleton@?$TAbstractSingleton@VIAbstractApplication@@@@SAAAVIAbstractApplication@@XZ ; TAbstractSingleton<IAbstractApplication>::GetSingleton
PUBLIC	?Instance@?$CSingleton@VCItemManager@@@@SAAAVCItemManager@@XZ ; CSingleton<CItemManager>::Instance
PUBLIC	?instance@?$CSingleton@VCRaceManager@@@@SAAAVCRaceManager@@XZ ; CSingleton<CRaceManager>::instance
PUBLIC	?Instance@?$CSingleton@VCPythonSystem@@@@SAAAVCPythonSystem@@XZ ; CSingleton<CPythonSystem>::Instance
PUBLIC	?instance@?$CSingleton@VCPythonSystem@@@@SAAAVCPythonSystem@@XZ ; CSingleton<CPythonSystem>::instance
PUBLIC	??0?$unordered_map@KMU?$hash@K@std@@U?$equal_to@K@2@V?$allocator@U?$pair@$$CBKM@std@@@2@@std@@QAE@V?$initializer_list@U?$pair@$$CBKM@std@@@1@@Z ; std::unordered_map<unsigned long,float,std::hash<unsigned long>,std::equal_to<unsigned long>,std::allocator<std::pair<unsigned long const ,float> > >::unordered_map<unsigned long,float,std::hash<unsigned long>,std::equal_to<unsigned long>,std::allocator<std::pair<unsigned long const ,float> > >
PUBLIC	?end@?$_Hash@V?$_Umap_traits@KMV?$_Uhash_compare@KU?$hash@K@std@@U?$equal_to@K@2@@std@@V?$allocator@U?$pair@$$CBKM@std@@@2@$0A@@std@@@std@@QAE?AV?$_List_iterator@V?$_List_val@U?$_List_simple_types@U?$pair@$$CBKM@std@@@std@@@std@@@2@XZ ; std::_Hash<std::_Umap_traits<unsigned long,float,std::_Uhash_compare<unsigned long,std::hash<unsigned long>,std::equal_to<unsigned long> >,std::allocator<std::pair<unsigned long const ,float> >,0> >::end
PUBLIC	?find@?$_Hash@V?$_Umap_traits@KMV?$_Uhash_compare@KU?$hash@K@std@@U?$equal_to@K@2@@std@@V?$allocator@U?$pair@$$CBKM@std@@@2@$0A@@std@@@std@@QAE?AV?$_List_iterator@V?$_List_val@U?$_List_simple_types@U?$pair@$$CBKM@std@@@std@@@std@@@2@ABK@Z ; std::_Hash<std::_Umap_traits<unsigned long,float,std::_Uhash_compare<unsigned long,std::hash<unsigned long>,std::equal_to<unsigned long> >,std::allocator<std::pair<unsigned long const ,float> >,0> >::find
PUBLIC	??1?$list@U?$pair@$$CBKM@std@@V?$allocator@U?$pair@$$CBKM@std@@@2@@std@@QAE@XZ ; std::list<std::pair<unsigned long const ,float>,std::allocator<std::pair<unsigned long const ,float> > >::~list<std::pair<unsigned long const ,float>,std::allocator<std::pair<unsigned long const ,float> > >
PUBLIC	??C?$_List_iterator@V?$_List_val@U?$_List_simple_types@U?$pair@$$CBKM@std@@@std@@@std@@@std@@QBEPAU?$pair@$$CBKM@1@XZ ; std::_List_iterator<std::_List_val<std::_List_simple_types<std::pair<unsigned long const ,float> > > >::operator->
PUBLIC	??8?$_List_const_iterator@V?$_List_val@U?$_List_simple_types@U?$pair@$$CBKM@std@@@std@@@std@@@std@@QBE_NABV01@@Z ; std::_List_const_iterator<std::_List_val<std::_List_simple_types<std::pair<unsigned long const ,float> > > >::operator==
PUBLIC	??0?$initializer_list@U?$pair@$$CBKM@std@@@std@@QAE@PBU?$pair@$$CBKM@1@0@Z ; std::initializer_list<std::pair<unsigned long const ,float> >::initializer_list<std::pair<unsigned long const ,float> >
PUBLIC	??1?$_Hash_vec@V?$allocator@V?$_List_unchecked_iterator@V?$_List_val@U?$_List_simple_types@U?$pair@$$CBKM@std@@@std@@@std@@@std@@@std@@@std@@QAE@XZ ; std::_Hash_vec<std::allocator<std::_List_unchecked_iterator<std::_List_val<std::_List_simple_types<std::pair<unsigned long const ,float> > > > > >::~_Hash_vec<std::allocator<std::_List_unchecked_iterator<std::_List_val<std::_List_simple_types<std::pair<unsigned long const ,float> > > > > >
PUBLIC	??$_Get_unwrapped@ABV?$_Vector_iterator@V?$_Vector_val@U?$_Simple_types@K@std@@@std@@@std@@@std@@YA?A_TABV?$_Vector_iterator@V?$_Vector_val@U?$_Simple_types@K@std@@@std@@@0@@Z ; std::_Get_unwrapped<std::_Vector_iterator<std::_Vector_val<std::_Simple_types<unsigned long> > > const &>
PUBLIC	??$_Get_unwrapped@AAV?$_Vector_iterator@V?$_Vector_val@U?$_Simple_types@K@std@@@std@@@std@@@std@@YA?A_TAAV?$_Vector_iterator@V?$_Vector_val@U?$_Simple_types@K@std@@@std@@@0@@Z ; std::_Get_unwrapped<std::_Vector_iterator<std::_Vector_val<std::_Simple_types<unsigned long> > > &>
PUBLIC	??$find@V?$_Vector_iterator@V?$_Vector_val@U?$_Simple_types@K@std@@@std@@@std@@K@std@@YA?AV?$_Vector_iterator@V?$_Vector_val@U?$_Simple_types@K@std@@@std@@@0@V10@V10@ABK@Z ; std::find<std::_Vector_iterator<std::_Vector_val<std::_Simple_types<unsigned long> > >,unsigned long>
PUBLIC	??$?0HM$0A@@?$pair@$$CBKM@std@@QAE@$$QAH$$QAM@Z	; std::pair<unsigned long const ,float>::pair<unsigned long const ,float><int,float,0>
PUBLIC	?IsHydraNPC@CInstanceBase@@QAEHXZ		; CInstanceBase::IsHydraNPC
PUBLIC	?SetAura@CInstanceBase@@QAE_NK@Z		; CInstanceBase::SetAura
PUBLIC	?ChangeAura@CInstanceBase@@QAEXK@Z		; CInstanceBase::ChangeAura
PUBLIC	?RefreshStoneScale@CInstanceBase@@QAEXXZ	; CInstanceBase::RefreshStoneScale
PUBLIC	?ClearWikiAffect@CInstanceBase@@QAEXXZ		; CInstanceBase::ClearWikiAffect
PUBLIC	?RemoveWikiAffect@CInstanceBase@@QAEXK@Z	; CInstanceBase::RemoveWikiAffect
PUBLIC	?AttachWikiAffect@CInstanceBase@@QAEXK@Z	; CInstanceBase::AttachWikiAffect
PUBLIC	?SetAlwaysRender@CInstanceBase@@QAEX_N@Z	; CInstanceBase::SetAlwaysRender
PUBLIC	?IsAlwaysRender@CInstanceBase@@QAE_NXZ		; CInstanceBase::IsAlwaysRender
PUBLIC	?GetBaseHeight@CInstanceBase@@QAEMXZ		; CInstanceBase::GetBaseHeight
PUBLIC	?GetBoundBox@CInstanceBase@@QAEXPAUD3DXVECTOR3@@0@Z ; CInstanceBase::GetBoundBox
PUBLIC	?GetPartData@CInstanceBase@@QAEKE@Z		; CInstanceBase::GetPartData
PUBLIC	??1CInstanceBase@@UAE@XZ			; CInstanceBase::~CInstanceBase
PUBLIC	??1?$queue@USEffectDamage@CInstanceBase@@V?$deque@USEffectDamage@CInstanceBase@@V?$allocator@USEffectDamage@CInstanceBase@@@std@@@std@@@std@@QAE@XZ ; std::queue<CInstanceBase::SEffectDamage,std::deque<CInstanceBase::SEffectDamage,std::allocator<CInstanceBase::SEffectDamage> > >::~queue<CInstanceBase::SEffectDamage,std::deque<CInstanceBase::SEffectDamage,std::allocator<CInstanceBase::SEffectDamage> > >
PUBLIC	??0SMoveAfterFunc@CInstanceBase@@QAE@XZ		; CInstanceBase::SMoveAfterFunc::SMoveAfterFunc
PUBLIC	??1?$map@KKU?$less@K@std@@V?$allocator@U?$pair@$$CBKK@std@@@2@@std@@QAE@XZ ; std::map<unsigned long,unsigned long,std::less<unsigned long>,std::allocator<std::pair<unsigned long const ,unsigned long> > >::~map<unsigned long,unsigned long,std::less<unsigned long>,std::allocator<std::pair<unsigned long const ,unsigned long> > >
PUBLIC	??1SEffectContainer@CInstanceBase@@QAE@XZ	; CInstanceBase::SEffectContainer::~SEffectContainer
PUBLIC	??0SEffectContainer@CInstanceBase@@QAE@XZ	; CInstanceBase::SEffectContainer::SEffectContainer
PUBLIC	??_GCInstanceBase@@UAEPAXI@Z			; CInstanceBase::`scalar deleting destructor'
PUBLIC	??0?$queue@USEffectDamage@CInstanceBase@@V?$deque@USEffectDamage@CInstanceBase@@V?$allocator@USEffectDamage@CInstanceBase@@@std@@@std@@@std@@QAE@XZ ; std::queue<CInstanceBase::SEffectDamage,std::deque<CInstanceBase::SEffectDamage,std::allocator<CInstanceBase::SEffectDamage> > >::queue<CInstanceBase::SEffectDamage,std::deque<CInstanceBase::SEffectDamage,std::allocator<CInstanceBase::SEffectDamage> > >
PUBLIC	??0CInstanceBase@@QAE@XZ			; CInstanceBase::CInstanceBase
PUBLIC	?__Initialize@CInstanceBase@@IAEXXZ		; CInstanceBase::__Initialize
PUBLIC	?__Warrior_Initialize@CInstanceBase@@IAEXXZ	; CInstanceBase::__Warrior_Initialize
PUBLIC	?__InitializeRotationSpeed@CInstanceBase@@IAEXXZ ; CInstanceBase::__InitializeRotationSpeed
PUBLIC	?Destroy@CInstanceBase@@QAEXXZ			; CInstanceBase::Destroy
PUBLIC	?RegisterBoundingSphere@CInstanceBase@@QAEXXZ	; CInstanceBase::RegisterBoundingSphere
PUBLIC	?RefreshState@CInstanceBase@@IAEXK_N@Z		; CInstanceBase::RefreshState
PUBLIC	?__IsShapeAnimalWear@CInstanceBase@@IAE_NXZ	; CInstanceBase::__IsShapeAnimalWear
PUBLIC	?ChangeArmor@CInstanceBase@@QAE_NK@Z		; CInstanceBase::ChangeArmor
PUBLIC	?ChangeWeapon@CInstanceBase@@QAEXK@Z		; CInstanceBase::ChangeWeapon
PUBLIC	?SetWeapon@CInstanceBase@@QAE_NK@Z		; CInstanceBase::SetWeapon
PUBLIC	?__GetRefinedEffect@CInstanceBase@@IAEIPAVCItemData@@@Z ; CInstanceBase::__GetRefinedEffect
PUBLIC	?__ClearArmorRefineEffect@CInstanceBase@@IAEXXZ	; CInstanceBase::__ClearArmorRefineEffect
PUBLIC	?__ClearWeaponRefineEffect@CInstanceBase@@IAEXXZ ; CInstanceBase::__ClearWeaponRefineEffect
PUBLIC	?GetWeaponType@CInstanceBase@@QAEKXZ		; CInstanceBase::GetWeaponType
PUBLIC	?SetShape@CInstanceBase@@QAEXKM@Z		; CInstanceBase::SetShape
PUBLIC	?ClearAcceEffect@CInstanceBase@@IAEXXZ		; CInstanceBase::ClearAcceEffect
PUBLIC	?ChangeAcce@CInstanceBase@@QAEXK@Z		; CInstanceBase::ChangeAcce
PUBLIC	?SetAcce@CInstanceBase@@QAE_NK@Z		; CInstanceBase::SetAcce
PUBLIC	?GetHair@CInstanceBase@@QAEKXZ			; CInstanceBase::GetHair
PUBLIC	?SetArmor@CInstanceBase@@QAEXK@Z		; CInstanceBase::SetArmor
PUBLIC	?ChangeHair@CInstanceBase@@QAEXK@Z		; CInstanceBase::ChangeHair
PUBLIC	??1?$_Hash@V?$_Umap_traits@KMV?$_Uhash_compare@KU?$hash@K@std@@U?$equal_to@K@2@@std@@V?$allocator@U?$pair@$$CBKM@std@@@2@$0A@@std@@@std@@QAE@XZ ; std::_Hash<std::_Umap_traits<unsigned long,float,std::_Uhash_compare<unsigned long,std::hash<unsigned long>,std::equal_to<unsigned long> >,std::allocator<std::pair<unsigned long const ,float> >,0> >::~_Hash<std::_Umap_traits<unsigned long,float,std::_Uhash_compare<unsigned long,std::hash<unsigned long>,std::equal_to<unsigned long> >,std::allocator<std::pair<unsigned long const ,float> >,0> >
PUBLIC	??1?$unordered_map@KMU?$hash@K@std@@U?$equal_to@K@2@V?$allocator@U?$pair@$$CBKM@std@@@2@@std@@QAE@XZ ; std::unordered_map<unsigned long,float,std::hash<unsigned long>,std::equal_to<unsigned long>,std::allocator<std::pair<unsigned long const ,float> > >::~unordered_map<unsigned long,float,std::hash<unsigned long>,std::equal_to<unsigned long>,std::allocator<std::pair<unsigned long const ,float> > >
PUBLIC	?SetHair@CInstanceBase@@QAEXK@Z			; CInstanceBase::SetHair
PUBLIC	?__GetAlphaValue@CInstanceBase@@IAEMXZ		; CInstanceBase::__GetAlphaValue
PUBLIC	?__SetAlphaValue@CInstanceBase@@IAEXM@Z		; CInstanceBase::__SetAlphaValue
PUBLIC	?__SetBlendRenderingMode@CInstanceBase@@IAEXXZ	; CInstanceBase::__SetBlendRenderingMode
PUBLIC	?SetAddColor@CInstanceBase@@QAEXABUD3DXCOLOR@@@Z ; CInstanceBase::SetAddColor
PUBLIC	?SetModulateRenderMode@CInstanceBase@@QAEXXZ	; CInstanceBase::SetModulateRenderMode
PUBLIC	?SetAddRenderMode@CInstanceBase@@QAEXXZ		; CInstanceBase::SetAddRenderMode
PUBLIC	?RestoreRenderMode@CInstanceBase@@QAEXXZ	; CInstanceBase::RestoreRenderMode
PUBLIC	?Refresh@CInstanceBase@@QAEXK_N@Z		; CInstanceBase::Refresh
PUBLIC	?RefreshActorInstance@CInstanceBase@@IAEXXZ	; CInstanceBase::RefreshActorInstance
PUBLIC	?GetGraphicThingInstancePtr@CInstanceBase@@QAEPAVCActorInstance@@XZ ; CInstanceBase::GetGraphicThingInstancePtr
PUBLIC	?GetGraphicThingInstanceRef@CInstanceBase@@QAEAAVCActorInstance@@XZ ; CInstanceBase::GetGraphicThingInstanceRef
PUBLIC	?GetDistance@CInstanceBase@@QAEMABUD3DXVECTOR3@@@Z ; CInstanceBase::GetDistance
PUBLIC	?GetDistance@CInstanceBase@@QAEMPAV1@@Z		; CInstanceBase::GetDistance
PUBLIC	?IntersectDefendingSphere@CInstanceBase@@QAE_NXZ ; CInstanceBase::IntersectDefendingSphere
PUBLIC	?IntersectBoundingBox@CInstanceBase@@QAE_NXZ	; CInstanceBase::IntersectBoundingBox
PUBLIC	?__CanRender@CInstanceBase@@IAE_NXZ		; CInstanceBase::__CanRender
PUBLIC	?__IsInViewFrustum@CInstanceBase@@IAE_NXZ	; CInstanceBase::__IsInViewFrustum
PUBLIC	?GetVirtualNumber@CInstanceBase@@QAEKXZ		; CInstanceBase::GetVirtualNumber
PUBLIC	?GetVirtualID@CInstanceBase@@QAEKXZ		; CInstanceBase::GetVirtualID
PUBLIC	?GetInstanceType@CInstanceBase@@QAEHXZ		; CInstanceBase::GetInstanceType
PUBLIC	?IsFlag@CInstanceBase@@QAEHXZ			; CInstanceBase::IsFlag
PUBLIC	?IsStoneDoor@CInstanceBase@@QAEHXZ		; CInstanceBase::IsStoneDoor
PUBLIC	?IsWoodenDoor@CInstanceBase@@QAEHXZ		; CInstanceBase::IsWoodenDoor
PUBLIC	?IsDoor@CInstanceBase@@QAEHXZ			; CInstanceBase::IsDoor
PUBLIC	?IsBuilding@CInstanceBase@@QAEHXZ		; CInstanceBase::IsBuilding
PUBLIC	?IsObject@CInstanceBase@@QAEHXZ			; CInstanceBase::IsObject
PUBLIC	?IsGoto@CInstanceBase@@QAEHXZ			; CInstanceBase::IsGoto
PUBLIC	?IsWarp@CInstanceBase@@QAEHXZ			; CInstanceBase::IsWarp
PUBLIC	?IsResource@CInstanceBase@@QAEHXZ		; CInstanceBase::IsResource
PUBLIC	?IsGuildWall@CInstanceBase@@QAEHXZ		; CInstanceBase::IsGuildWall
PUBLIC	?IsMount@CInstanceBase@@QAEHXZ			; CInstanceBase::IsMount
PUBLIC	?IsGrowthPet@CInstanceBase@@QAEHXZ		; CInstanceBase::IsGrowthPet
PUBLIC	?IsPet@CInstanceBase@@QAEHXZ			; CInstanceBase::IsPet
PUBLIC	?IsStone@CInstanceBase@@QAEHXZ			; CInstanceBase::IsStone
PUBLIC	?IsEnemy@CInstanceBase@@QAEHXZ			; CInstanceBase::IsEnemy
PUBLIC	?IsNPC@CInstanceBase@@QAEHXZ			; CInstanceBase::IsNPC
PUBLIC	?IsPC@CInstanceBase@@QAEHXZ			; CInstanceBase::IsPC
PUBLIC	?IsShop@CInstanceBase@@QAEHXZ			; CInstanceBase::IsShop
PUBLIC	?IsPoly@CInstanceBase@@QAEHXZ			; CInstanceBase::IsPoly
PUBLIC	?CanViewTargetHP@CInstanceBase@@QAE_NAAV1@@Z	; CInstanceBase::CanViewTargetHP
PUBLIC	?CanPickInstance@CInstanceBase@@QAE_NXZ		; CInstanceBase::CanPickInstance
PUBLIC	?CanChangeTarget@CInstanceBase@@QAE_NXZ		; CInstanceBase::CanChangeTarget
PUBLIC	?IsTargetableInstance@CInstanceBase@@QAE_NAAV1@@Z ; CInstanceBase::IsTargetableInstance
PUBLIC	?IsAttackableInstance@CInstanceBase@@QAE_NAAV1@@Z ; CInstanceBase::IsAttackableInstance
PUBLIC	?GetDuelMode@CInstanceBase@@QAEKXZ		; CInstanceBase::GetDuelMode
PUBLIC	?SetDuelMode@CInstanceBase@@QAEXK@Z		; CInstanceBase::SetDuelMode
PUBLIC	?IsConflictAlignmentInstance@CInstanceBase@@QAE_NAAV1@@Z ; CInstanceBase::IsConflictAlignmentInstance
PUBLIC	?GetLevel@CInstanceBase@@QAEKXZ			; CInstanceBase::GetLevel
PUBLIC	?GetRace@CInstanceBase@@QAEKXZ			; CInstanceBase::GetRace
PUBLIC	?SetPetLevel@CInstanceBase@@QAEXK@Z		; CInstanceBase::SetPetLevel
PUBLIC	?SetLevel@CInstanceBase@@QAEXK@Z		; CInstanceBase::SetLevel
PUBLIC	?GetNameString@CInstanceBase@@QAEPBDXZ		; CInstanceBase::GetNameString
PUBLIC	?SetComboType@CInstanceBase@@QAEXI@Z		; CInstanceBase::SetComboType
PUBLIC	?SetStateFlags@CInstanceBase@@QAEXK@Z		; CInstanceBase::SetStateFlags
PUBLIC	?SetPartyMemberFlag@CInstanceBase@@QAEX_N@Z	; CInstanceBase::SetPartyMemberFlag
PUBLIC	?SetKiller@CInstanceBase@@QAEX_N@Z		; CInstanceBase::SetKiller
PUBLIC	?SetPKMode@CInstanceBase@@QAEXE@Z		; CInstanceBase::SetPKMode
PUBLIC	?SetTitleSystem@CInstanceBase@@QAEXH@Z		; CInstanceBase::SetTitleSystem
PUBLIC	?SetAlignment@CInstanceBase@@QAEXF@Z		; CInstanceBase::SetAlignment
PUBLIC	?SetInstanceType@CInstanceBase@@QAEXH@Z		; CInstanceBase::SetInstanceType
PUBLIC	?SetVirtualNumber@CInstanceBase@@QAEXK@Z	; CInstanceBase::SetVirtualNumber
PUBLIC	?SetVirtualID@CInstanceBase@@QAEXK@Z		; CInstanceBase::SetVirtualID
PUBLIC	?RenderCollision@CInstanceBase@@QAEXXZ		; CInstanceBase::RenderCollision
PUBLIC	?RenderToShadowMap@CInstanceBase@@QAEXXZ	; CInstanceBase::RenderToShadowMap
PUBLIC	?Render@CInstanceBase@@QAEXXZ			; CInstanceBase::Render
PUBLIC	?RenderTrace@CInstanceBase@@QAEXXZ		; CInstanceBase::RenderTrace
PUBLIC	?Deform@CInstanceBase@@QAEXXZ			; CInstanceBase::Deform
PUBLIC	?Transform@CInstanceBase@@QAEXXZ		; CInstanceBase::Transform
PUBLIC	?Update@CInstanceBase@@QAEXXZ			; CInstanceBase::Update
PUBLIC	?__ProcessFunctionEmotion@CInstanceBase@@IAEXKKABUD3DXVECTOR3@@@Z ; CInstanceBase::__ProcessFunctionEmotion
PUBLIC	?MovementProcess@CInstanceBase@@IAEXXZ		; CInstanceBase::MovementProcess
PUBLIC	?StateProcess@CInstanceBase@@IAEXXZ		; CInstanceBase::StateProcess
PUBLIC	?__IsEnableTCPProcess@CInstanceBase@@IAEHI@Z	; CInstanceBase::__IsEnableTCPProcess
PUBLIC	?__CanProcessNetworkStatePacket@CInstanceBase@@IAEHXZ ; CInstanceBase::__CanProcessNetworkStatePacket
PUBLIC	?PushTCPState@CInstanceBase@@QAEXKABUD3DXVECTOR3@@MII@Z ; CInstanceBase::PushTCPState
PUBLIC	??0SCommand@CInstanceBase@@QAE@XZ		; CInstanceBase::SCommand::SCommand
PUBLIC	?PushTCPStateExpanded@CInstanceBase@@QAEXKABUD3DXVECTOR3@@MIII@Z ; CInstanceBase::PushTCPStateExpanded
PUBLIC	?NEW_SetOwner@CInstanceBase@@QAEXK@Z		; CInstanceBase::NEW_SetOwner
PUBLIC	?__IsSyncing@CInstanceBase@@QAEHXZ		; CInstanceBase::__IsSyncing
PUBLIC	?IsSleep@CInstanceBase@@QAEHXZ			; CInstanceBase::IsSleep
PUBLIC	?IsStun@CInstanceBase@@QAEHXZ			; CInstanceBase::IsStun
PUBLIC	?IsDead@CInstanceBase@@QAEHXZ			; CInstanceBase::IsDead
PUBLIC	?IsFishing@CInstanceBase@@QAEHXZ		; CInstanceBase::IsFishing
PUBLIC	?IsFishingMode@CInstanceBase@@QAEHXZ		; CInstanceBase::IsFishingMode
PUBLIC	?IsHandMode@CInstanceBase@@QAEHXZ		; CInstanceBase::IsHandMode
PUBLIC	?IsBowMode@CInstanceBase@@QAEHXZ		; CInstanceBase::IsBowMode
PUBLIC	?CanFishing@CInstanceBase@@QAE_NXZ		; CInstanceBase::CanFishing
PUBLIC	?CanAttack@CInstanceBase@@QAE_NXZ		; CInstanceBase::CanAttack
PUBLIC	?CanUseSkill@CInstanceBase@@QAE_NXZ		; CInstanceBase::CanUseSkill
PUBLIC	?CanMove@CInstanceBase@@QAE_NXZ			; CInstanceBase::CanMove
PUBLIC	?CanAct@CInstanceBase@@QAE_NXZ			; CInstanceBase::CanAct
PUBLIC	?CanInteract@CInstanceBase@@QAE_NXZ		; CInstanceBase::CanInteract
PUBLIC	?GetShape@CInstanceBase@@QAEKXZ			; CInstanceBase::GetShape
PUBLIC	?GetPart@CInstanceBase@@QAEKW4EParts@CRaceData@@@Z ; CInstanceBase::GetPart
PUBLIC	?ChangeGuild@CInstanceBase@@QAEXKK@Z		; CInstanceBase::ChangeGuild
PUBLIC	?OnMoving@CInstanceBase@@IAEXXZ			; CInstanceBase::OnMoving
PUBLIC	?OnWaiting@CInstanceBase@@IAEXXZ		; CInstanceBase::OnWaiting
PUBLIC	?NEW_GetSrcPixelPositionRef@CInstanceBase@@IAEABUD3DXVECTOR3@@XZ ; CInstanceBase::NEW_GetSrcPixelPositionRef
PUBLIC	?NEW_GetDstPixelPositionRef@CInstanceBase@@QAEABUD3DXVECTOR3@@XZ ; CInstanceBase::NEW_GetDstPixelPositionRef
PUBLIC	?NEW_GetCurPixelPositionRef@CInstanceBase@@IAEABUD3DXVECTOR3@@XZ ; CInstanceBase::NEW_GetCurPixelPositionRef
PUBLIC	?NEW_SetSrcPixelPosition@CInstanceBase@@IAEXABUD3DXVECTOR3@@@Z ; CInstanceBase::NEW_SetSrcPixelPosition
PUBLIC	?NEW_SetDstPixelPosition@CInstanceBase@@IAEXABUD3DXVECTOR3@@@Z ; CInstanceBase::NEW_SetDstPixelPosition
PUBLIC	?NEW_SetDstPixelPositionZ@CInstanceBase@@IAEXM@Z ; CInstanceBase::NEW_SetDstPixelPositionZ
PUBLIC	?ResetPerformanceCounter@CInstanceBase@@SAXXZ	; CInstanceBase::ResetPerformanceCounter
PUBLIC	?GetInfo@CInstanceBase@@SAXPAV?$basic_string@DU?$char_traits@D@std@@V?$allocator@D@2@@std@@@Z ; CInstanceBase::GetInfo
PUBLIC	?DismountHorse@CInstanceBase@@QAEXXZ		; CInstanceBase::DismountHorse
PUBLIC	?MountHorse@CInstanceBase@@QAEXI@Z		; CInstanceBase::MountHorse
PUBLIC	?IsMountingHorse@CInstanceBase@@QAEHXZ		; CInstanceBase::IsMountingHorse
PUBLIC	?IsMountingHoverBoard@CInstanceBase@@QAEHXZ	; CInstanceBase::IsMountingHoverBoard
PUBLIC	?IsNewMount@CInstanceBase@@QAEHXZ		; CInstanceBase::IsNewMount
PUBLIC	?IsHoldingFishRod@CInstanceBase@@QAEHXZ		; CInstanceBase::IsHoldingFishRod
PUBLIC	?IsHoldingPickAxe@CInstanceBase@@QAEHXZ		; CInstanceBase::IsHoldingPickAxe
PUBLIC	?IsWearingDress@CInstanceBase@@QAEHXZ		; CInstanceBase::IsWearingDress
PUBLIC	?__IsChangableWeapon@CInstanceBase@@IAEHH@Z	; CInstanceBase::__IsChangableWeapon
PUBLIC	?SetRace@CInstanceBase@@QAE_NK@Z		; CInstanceBase::SetRace
PUBLIC	?SetNameString@CInstanceBase@@QAEXPBDH@Z	; CInstanceBase::SetNameString
PUBLIC	?__Create_SetWarpName@CInstanceBase@@IAEXABUSCreateData@1@@Z ; CInstanceBase::__Create_SetWarpName
PUBLIC	?__Create_SetName@CInstanceBase@@IAEXABUSCreateData@1@@Z ; CInstanceBase::__Create_SetName
PUBLIC	?ChangeSkillColor@CInstanceBase@@QAEXPBK@Z	; CInstanceBase::ChangeSkillColor
PUBLIC	?Create@CInstanceBase@@QAE_NABUSCreateData@1@@Z	; CInstanceBase::Create
PUBLIC	?__FindRaceType@CInstanceBase@@IAE_NKPAE@Z	; CInstanceBase::__FindRaceType
PUBLIC	?__GetBowRange@CInstanceBase@@IAEMXZ		; CInstanceBase::__GetBowRange
PUBLIC	?__MainCanSeeHiddenThing@CInstanceBase@@IAE_NXZ	; CInstanceBase::__MainCanSeeHiddenThing
PUBLIC	?__IsExistMainInstance@CInstanceBase@@IAE_NXZ	; CInstanceBase::__IsExistMainInstance
PUBLIC	?__IsMainInstance@CInstanceBase@@IAE_NXZ	; CInstanceBase::__IsMainInstance
PUBLIC	?__ClearMainInstance@CInstanceBase@@IAEXXZ	; CInstanceBase::__ClearMainInstance
PUBLIC	?__GetMainInstancePtr@CInstanceBase@@IAEPAV1@XZ	; CInstanceBase::__GetMainInstancePtr
PUBLIC	?SetMainInstance@CInstanceBase@@QAEXXZ		; CInstanceBase::SetMainInstance
PUBLIC	?Delete@CInstanceBase@@SAXPAV1@@Z		; CInstanceBase::Delete
PUBLIC	?New@CInstanceBase@@SAPAV1@XZ			; CInstanceBase::New
PUBLIC	?DestroySystem@CInstanceBase@@SAXXZ		; CInstanceBase::DestroySystem
PUBLIC	?OnUntargeted@CInstanceBase@@QAEXXZ		; CInstanceBase::OnUntargeted
PUBLIC	?OnTargeted@CInstanceBase@@QAEXXZ		; CInstanceBase::OnTargeted
PUBLIC	?OnUnselected@CInstanceBase@@QAEXXZ		; CInstanceBase::OnUnselected
PUBLIC	?OnSelected@CInstanceBase@@QAEXXZ		; CInstanceBase::OnSelected
PUBLIC	?CalculateDistanceSq3d@CInstanceBase@@QAEMABUD3DXVECTOR3@@@Z ; CInstanceBase::CalculateDistanceSq3d
PUBLIC	?IsInSafe@CInstanceBase@@QAEHXZ			; CInstanceBase::IsInSafe
PUBLIC	?IsPartyMember@CInstanceBase@@QAE_NXZ		; CInstanceBase::IsPartyMember
PUBLIC	?IsKiller@CInstanceBase@@QAE_NXZ		; CInstanceBase::IsKiller
PUBLIC	?GetPKMode@CInstanceBase@@QAEEXZ		; CInstanceBase::GetPKMode
PUBLIC	?GetTitleID@CInstanceBase@@QAEHXZ		; CInstanceBase::GetTitleID
PUBLIC	?GetAlignmentType@CInstanceBase@@QAEHXZ		; CInstanceBase::GetAlignmentType
PUBLIC	?GetAlignmentGrade@CInstanceBase@@QAEIXZ	; CInstanceBase::GetAlignmentGrade
PUBLIC	?GetAlignment@CInstanceBase@@QAEHXZ		; CInstanceBase::GetAlignment
PUBLIC	?GetSkillColor@CInstanceBase@@QAEPAKK@Z		; CInstanceBase::GetSkillColor
PUBLIC	?GetGuildLeader@CInstanceBase@@QAEEXZ		; CInstanceBase::GetGuildLeader
PUBLIC	?GetGuildID@CInstanceBase@@QAEKXZ		; CInstanceBase::GetGuildID
PUBLIC	?GetAIFlag@CInstanceBase@@QAEKXZ		; CInstanceBase::GetAIFlag
PUBLIC	?GetEmpireID@CInstanceBase@@QAEKXZ		; CInstanceBase::GetEmpireID
PUBLIC	?IsSameEmpire@CInstanceBase@@QAEHAAV1@@Z	; CInstanceBase::IsSameEmpire
PUBLIC	?IsPremium@CInstanceBase@@QAEHXZ		; CInstanceBase::IsPremium
PUBLIC	?IsGameMaster@CInstanceBase@@QAEHXZ		; CInstanceBase::IsGameMaster
PUBLIC	?IsInvisibility@CInstanceBase@@QAEHXZ		; CInstanceBase::IsInvisibility
PUBLIC	?__GetBackgroundHeight@CInstanceBase@@KAMMM@Z	; CInstanceBase::__GetBackgroundHeight
PUBLIC	?__GetShadowMapColor@CInstanceBase@@KAKMM@Z	; CInstanceBase::__GetShadowMapColor
PUBLIC	?__DisableSkipCollision@CInstanceBase@@IAEXXZ	; CInstanceBase::__DisableSkipCollision
PUBLIC	?__EnableSkipCollision@CInstanceBase@@IAEXXZ	; CInstanceBase::__EnableSkipCollision
PUBLIC	?__IsInDustRange@CInstanceBase@@IAE_NXZ		; CInstanceBase::__IsInDustRange
PUBLIC	?__Background_IsWaterPixelPosition@CInstanceBase@@QAE_NABUD3DXVECTOR3@@@Z ; CInstanceBase::__Background_IsWaterPixelPosition
PUBLIC	?__Background_GetWaterHeight@CInstanceBase@@QAE_NABUD3DXVECTOR3@@PAM@Z ; CInstanceBase::__Background_GetWaterHeight
PUBLIC	?__LessRenderOrder_GetLODLevel@CInstanceBase@@IAEIXZ ; CInstanceBase::__LessRenderOrder_GetLODLevel
PUBLIC	?LessRenderOrder@CInstanceBase@@QAE_NPAV1@@Z	; CInstanceBase::LessRenderOrder
PUBLIC	??_GCActorInstanceBackground@@UAEPAXI@Z		; CActorInstanceBackground::`scalar deleting destructor'
PUBLIC	?IsBlock@CActorInstanceBackground@@UAE_NHH@Z	; CActorInstanceBackground::IsBlock
PUBLIC	??1CActorInstanceBackground@@UAE@XZ		; CActorInstanceBackground::~CActorInstanceBackground
PUBLIC	??0CActorInstanceBackground@@QAE@XZ		; CActorInstanceBackground::CActorInstanceBackground
PUBLIC	?__ArmorVnumToShape@@YA_NHPAK@Z			; __ArmorVnumToShape
PUBLIC	?AvoidObject@CInstanceBase@@QAE_NABVCGraphicObjectInstance@@@Z ; CInstanceBase::AvoidObject
PUBLIC	?IsBlockObject@CInstanceBase@@QAE_NABVCGraphicObjectInstance@@@Z ; CInstanceBase::IsBlockObject
PUBLIC	?BlockMovement@CInstanceBase@@QAEXXZ		; CInstanceBase::BlockMovement
PUBLIC	?__DetachHorseSaddle@CInstanceBase@@IAEXXZ	; CInstanceBase::__DetachHorseSaddle
PUBLIC	?__AttachHorseSaddle@CInstanceBase@@IAEXXZ	; CInstanceBase::__AttachHorseSaddle
PUBLIC	?Render@SHORSE@CInstanceBase@@QAEXXZ		; CInstanceBase::SHORSE::Render
PUBLIC	?Deform@SHORSE@CInstanceBase@@QAEXXZ		; CInstanceBase::SHORSE::Deform
PUBLIC	?IsMounting@SHORSE@CInstanceBase@@QAE_NXZ	; CInstanceBase::SHORSE::IsMounting
PUBLIC	?CanAttack@SHORSE@CInstanceBase@@QAE_NXZ	; CInstanceBase::SHORSE::CanAttack
PUBLIC	?CanUseSkill@SHORSE@CInstanceBase@@QAE_NXZ	; CInstanceBase::SHORSE::CanUseSkill
PUBLIC	?IsHoverBoard@SHORSE@CInstanceBase@@QAE_NXZ	; CInstanceBase::SHORSE::IsHoverBoard
PUBLIC	?IsNewMount@SHORSE@CInstanceBase@@QAE_NXZ	; CInstanceBase::SHORSE::IsNewMount
PUBLIC	?GetLevel@SHORSE@CInstanceBase@@QAEIXZ		; CInstanceBase::SHORSE::GetLevel
PUBLIC	?GetActorPtr@SHORSE@CInstanceBase@@QAEPAVCActorInstance@@XZ ; CInstanceBase::SHORSE::GetActorPtr
PUBLIC	?GetActorRef@SHORSE@CInstanceBase@@QAEAAVCActorInstance@@XZ ; CInstanceBase::SHORSE::GetActorRef
PUBLIC	?Destroy@SHORSE@CInstanceBase@@QAEXXZ		; CInstanceBase::SHORSE::Destroy
PUBLIC	?Create@SHORSE@CInstanceBase@@QAEXABUD3DXVECTOR3@@II@Z ; CInstanceBase::SHORSE::Create
PUBLIC	?SetMoveSpeed@SHORSE@CInstanceBase@@QAEXI@Z	; CInstanceBase::SHORSE::SetMoveSpeed
PUBLIC	?SetAttackSpeed@SHORSE@CInstanceBase@@QAEXI@Z	; CInstanceBase::SHORSE::SetAttackSpeed
PUBLIC	?__Initialize@SHORSE@CInstanceBase@@QAEXXZ	; CInstanceBase::SHORSE::__Initialize
PUBLIC	??1SHORSE@CInstanceBase@@QAE@XZ			; CInstanceBase::SHORSE::~SHORSE
PUBLIC	??0SHORSE@CInstanceBase@@QAE@XZ			; CInstanceBase::SHORSE::SHORSE
PUBLIC	?IsWall@@YA_NI@Z				; IsWall
PUBLIC	?RaceToSex@@YAHH@Z				; RaceToSex
PUBLIC	?RaceToJob@@YAHH@Z				; RaceToJob
PUBLIC	?SetLanguage2@CInstanceBase@@QAEXE@Z		; CInstanceBase::SetLanguage2
PUBLIC	?SetLanguage@CInstanceBase@@QAEXE@Z		; CInstanceBase::SetLanguage
PUBLIC	?GetSkillColorByMotionID@CActorInstance@@QAEPAKK@Z ; CActorInstance::GetSkillColorByMotionID
PUBLIC	?ms_kPool@CInstanceBase@@2V?$CDynamicPool@VCInstanceBase@@@@A ; CInstanceBase::ms_kPool
EXTRN	??_EIBackground@@UAEPAXI@Z:PROC			; IBackground::`vector deleting destructor'
EXTRN	??_E?$CSingleton@VIBackground@@@@UAEPAXI@Z:PROC	; CSingleton<IBackground>::`vector deleting destructor'
EXTRN	??_ECInstanceBase@@UAEPAXI@Z:PROC		; CInstanceBase::`vector deleting destructor'
EXTRN	??_E?$CDynamicPool@VCInstanceBase@@@@UAEPAXI@Z:PROC ; CDynamicPool<CInstanceBase>::`vector deleting destructor'
EXTRN	??_ECActorInstanceBackground@@UAEPAXI@Z:PROC	; CActorInstanceBackground::`vector deleting destructor'
;	COMDAT ?$TSS0@?9??Render@CInstanceBase@@QAEXXZ@4HA
_BSS	SEGMENT
?$TSS0@?9??Render@CInstanceBase@@QAEXXZ@4HA DD 01H DUP (?) ; `CInstanceBase::Render'::`10'::$TSS0
_BSS	ENDS
;	COMDAT ?s_kScreen@?9??Render@CInstanceBase@@QAEXXZ@4VCScreen@@A
_BSS	SEGMENT
?s_kScreen@?9??Render@CInstanceBase@@QAEXXZ@4VCScreen@@A DD 01H DUP (?) ; `CInstanceBase::Render'::`10'::s_kScreen
_BSS	ENDS
;	COMDAT ?$TSS0@?1??SetHair@CInstanceBase@@QAEXK@Z@4HA
_BSS	SEGMENT
?$TSS0@?1??SetHair@CInstanceBase@@QAEXK@Z@4HA DD 01H DUP (?) ; `CInstanceBase::SetHair'::`2'::$TSS0
_BSS	ENDS
;	COMDAT ?setAllowedHair@?1??SetHair@CInstanceBase@@QAEXK@Z@4V?$unordered_map@KMU?$hash@K@std@@U?$equal_to@K@2@V?$allocator@U?$pair@$$CBKM@std@@@2@@std@@A
_BSS	SEGMENT
?setAllowedHair@?1??SetHair@CInstanceBase@@QAEXK@Z@4V?$unordered_map@KMU?$hash@K@std@@U?$equal_to@K@2@V?$allocator@U?$pair@$$CBKM@std@@@2@@std@@A DB 020H DUP (?) ; `CInstanceBase::SetHair'::`2'::setAllowedHair
_BSS	ENDS
;	COMDAT xdata$x
xdata$x	SEGMENT
__ehfuncinfo$?Create@SHORSE@CInstanceBase@@QAEXABUD3DXVECTOR3@@II@Z DD 019930522H
	DD	01H
	DD	FLAT:__unwindtable$?Create@SHORSE@CInstanceBase@@QAEXABUD3DXVECTOR3@@II@Z
	DD	2 DUP(00H)
	DD	2 DUP(00H)
	DD	00H
	DD	01H
__unwindtable$?Create@SHORSE@CInstanceBase@@QAEXABUD3DXVECTOR3@@II@Z DD 0ffffffffH
	DD	FLAT:__unwindfunclet$?Create@SHORSE@CInstanceBase@@QAEXABUD3DXVECTOR3@@II@Z$0
xdata$x	ENDS
;	COMDAT xdata$x
xdata$x	SEGMENT
__ehfuncinfo$?New@CInstanceBase@@SAPAV1@XZ DD 019930522H
	DD	01H
	DD	FLAT:__unwindtable$?New@CInstanceBase@@SAPAV1@XZ
	DD	2 DUP(00H)
	DD	2 DUP(00H)
	DD	00H
	DD	01H
__unwindtable$?New@CInstanceBase@@SAPAV1@XZ DD 0ffffffffH
	DD	FLAT:__unwindfunclet$?New@CInstanceBase@@SAPAV1@XZ$0
xdata$x	ENDS
;	COMDAT xdata$x
xdata$x	SEGMENT
__ehfuncinfo$?Create@CInstanceBase@@QAE_NABUSCreateData@1@@Z DD 019930522H
	DD	01H
	DD	FLAT:__unwindtable$?Create@CInstanceBase@@QAE_NABUSCreateData@1@@Z
	DD	2 DUP(00H)
	DD	2 DUP(00H)
	DD	00H
	DD	01H
__unwindtable$?Create@CInstanceBase@@QAE_NABUSCreateData@1@@Z DD 0ffffffffH
	DD	FLAT:__unwindfunclet$?Create@CInstanceBase@@QAE_NABUSCreateData@1@@Z$0
xdata$x	ENDS
;	COMDAT xdata$x
xdata$x	SEGMENT
__ehfuncinfo$?__Create_SetWarpName@CInstanceBase@@IAEXABUSCreateData@1@@Z DQ 00000000119930522r ; 2.33398e-314
	DD	FLAT:__unwindtable$?__Create_SetWarpName@CInstanceBase@@IAEXABUSCreateData@1@@Z
	DQ	00000000000000000r		; 0
	DQ	00000000000000000r		; 0
	DQ	00000000100000000r		; 2.122e-314
__unwindtable$?__Create_SetWarpName@CInstanceBase@@IAEXABUSCreateData@1@@Z DD 0ffffffffH
	DD	FLAT:__unwindfunclet$?__Create_SetWarpName@CInstanceBase@@IAEXABUSCreateData@1@@Z$0
xdata$x	ENDS
;	COMDAT xdata$x
xdata$x	SEGMENT
__ehfuncinfo$?Render@CInstanceBase@@QAEXXZ DQ 00000000119930522r ; 2.33398e-314
	DD	FLAT:__unwindtable$?Render@CInstanceBase@@QAEXXZ
	DQ	00000000000000000r		; 0
	DQ	00000000000000000r		; 0
	DQ	00000000100000000r		; 2.122e-314
__unwindtable$?Render@CInstanceBase@@QAEXXZ DD 0ffffffffH
	DD	FLAT:__unwindfunclet$?Render@CInstanceBase@@QAEXXZ$0
xdata$x	ENDS
;	COMDAT xdata$x
xdata$x	SEGMENT
__ehfuncinfo$?SetHair@CInstanceBase@@QAEXK@Z DD 019930522H
	DD	04H
	DD	FLAT:__unwindtable$?SetHair@CInstanceBase@@QAEXK@Z
	DD	2 DUP(00H)
	DD	2 DUP(00H)
	DD	00H
	DD	01H
__unwindtable$?SetHair@CInstanceBase@@QAEXK@Z DD 0ffffffffH
	DD	FLAT:__unwindfunclet$?SetHair@CInstanceBase@@QAEXK@Z$0
	DD	00H
	DD	FLAT:__unwindfunclet$?SetHair@CInstanceBase@@QAEXK@Z$2
	DD	01H
	DD	FLAT:__unwindfunclet$?SetHair@CInstanceBase@@QAEXK@Z$3
	DD	00H
	DD	FLAT:__unwindfunclet$?SetHair@CInstanceBase@@QAEXK@Z$1
xdata$x	ENDS
;	COMDAT xdata$x
xdata$x	SEGMENT
__ehfuncinfo$??0CInstanceBase@@QAE@XZ DD 019930522H
	DD	07H
	DD	FLAT:__unwindtable$??0CInstanceBase@@QAE@XZ
	DD	2 DUP(00H)
	DD	2 DUP(00H)
	DD	00H
	DD	01H
__unwindtable$??0CInstanceBase@@QAE@XZ DD 0ffffffffH
	DD	FLAT:__unwindfunclet$??0CInstanceBase@@QAE@XZ$0
	DD	00H
	DD	FLAT:__unwindfunclet$??0CInstanceBase@@QAE@XZ$1
	DD	01H
	DD	FLAT:__unwindfunclet$??0CInstanceBase@@QAE@XZ$2
	DD	02H
	DD	FLAT:__unwindfunclet$??0CInstanceBase@@QAE@XZ$3
	DD	03H
	DD	FLAT:__unwindfunclet$??0CInstanceBase@@QAE@XZ$4
	DD	04H
	DD	FLAT:__unwindfunclet$??0CInstanceBase@@QAE@XZ$5
	DD	05H
	DD	FLAT:__unwindfunclet$??0CInstanceBase@@QAE@XZ$6
xdata$x	ENDS
;	COMDAT xdata$x
xdata$x	SEGMENT
__ehfuncinfo$??1CInstanceBase@@UAE@XZ DD 019930522H
	DD	00H
	DD	00H
	DD	2 DUP(00H)
	DD	2 DUP(00H)
	DD	00H
	DD	05H
xdata$x	ENDS
;	COMDAT xdata$x
xdata$x	SEGMENT
__ehfuncinfo$??0?$unordered_map@KMU?$hash@K@std@@U?$equal_to@K@2@V?$allocator@U?$pair@$$CBKM@std@@@2@@std@@QAE@V?$initializer_list@U?$pair@$$CBKM@std@@@1@@Z DD 019930522H
	DD	03H
	DD	FLAT:__unwindtable$??0?$unordered_map@KMU?$hash@K@std@@U?$equal_to@K@2@V?$allocator@U?$pair@$$CBKM@std@@@2@@std@@QAE@V?$initializer_list@U?$pair@$$CBKM@std@@@1@@Z
	DD	2 DUP(00H)
	DD	2 DUP(00H)
	DD	00H
	DD	01H
__unwindtable$??0?$unordered_map@KMU?$hash@K@std@@U?$equal_to@K@2@V?$allocator@U?$pair@$$CBKM@std@@@2@@std@@QAE@V?$initializer_list@U?$pair@$$CBKM@std@@@1@@Z DD 0ffffffffH
	DD	FLAT:__unwindfunclet$??0?$unordered_map@KMU?$hash@K@std@@U?$equal_to@K@2@V?$allocator@U?$pair@$$CBKM@std@@@2@@std@@QAE@V?$initializer_list@U?$pair@$$CBKM@std@@@1@@Z$1
	DD	00H
	DD	FLAT:__unwindfunclet$??0?$unordered_map@KMU?$hash@K@std@@U?$equal_to@K@2@V?$allocator@U?$pair@$$CBKM@std@@@2@@std@@QAE@V?$initializer_list@U?$pair@$$CBKM@std@@@1@@Z$2
	DD	0ffffffffH
	DD	FLAT:__unwindfunclet$??0?$unordered_map@KMU?$hash@K@std@@U?$equal_to@K@2@V?$allocator@U?$pair@$$CBKM@std@@@2@@std@@QAE@V?$initializer_list@U?$pair@$$CBKM@std@@@1@@Z$0
xdata$x	ENDS
;	COMDAT xdata$x
xdata$x	SEGMENT
__ehfuncinfo$?Alloc@?$CDynamicPool@VCInstanceBase@@@@QAEPAVCInstanceBase@@XZ DD 019930522H
	DD	01H
	DD	FLAT:__unwindtable$?Alloc@?$CDynamicPool@VCInstanceBase@@@@QAEPAVCInstanceBase@@XZ
	DD	2 DUP(00H)
	DD	2 DUP(00H)
	DD	00H
	DD	01H
__unwindtable$?Alloc@?$CDynamicPool@VCInstanceBase@@@@QAEPAVCInstanceBase@@XZ DD 0ffffffffH
	DD	FLAT:__unwindfunclet$?Alloc@?$CDynamicPool@VCInstanceBase@@@@QAEPAVCInstanceBase@@XZ$0
xdata$x	ENDS
;	COMDAT xdata$x
xdata$x	SEGMENT
__ehfuncinfo$?push_back@?$list@USCommand@CInstanceBase@@V?$allocator@USCommand@CInstanceBase@@@std@@@std@@QAEXABUSCommand@CInstanceBase@@@Z DQ 00000000119930522r ; 2.33398e-314
	DD	FLAT:__unwindtable$?push_back@?$list@USCommand@CInstanceBase@@V?$allocator@USCommand@CInstanceBase@@@std@@@std@@QAEXABUSCommand@CInstanceBase@@@Z
	DQ	00000000000000000r		; 0
	DQ	00000000000000000r		; 0
	DQ	00000000100000000r		; 2.122e-314
__unwindtable$?push_back@?$list@USCommand@CInstanceBase@@V?$allocator@USCommand@CInstanceBase@@@std@@@std@@QAEXABUSCommand@CInstanceBase@@@Z DD 0ffffffffH
	DD	FLAT:__unwindfunclet$?push_back@?$list@USCommand@CInstanceBase@@V?$allocator@USCommand@CInstanceBase@@@std@@@std@@QAEXABUSCommand@CInstanceBase@@@Z$1
xdata$x	ENDS
;	COMDAT xdata$x
xdata$x	SEGMENT
__ehfuncinfo$??$_Emplace@ABUSCommand@CInstanceBase@@@?$list@USCommand@CInstanceBase@@V?$allocator@USCommand@CInstanceBase@@@std@@@std@@QAEPAU?$_List_node@USCommand@CInstanceBase@@PAX@1@QAU21@ABUSCommand@CInstanceBase@@@Z DQ 00000000119930522r ; 2.33398e-314
	DD	FLAT:__unwindtable$??$_Emplace@ABUSCommand@CInstanceBase@@@?$list@USCommand@CInstanceBase@@V?$allocator@USCommand@CInstanceBase@@@std@@@std@@QAEPAU?$_List_node@USCommand@CInstanceBase@@PAX@1@QAU21@ABUSCommand@CInstanceBase@@@Z
	DQ	00000000000000000r		; 0
	DQ	00000000000000000r		; 0
	DQ	00000000100000000r		; 2.122e-314
__unwindtable$??$_Emplace@ABUSCommand@CInstanceBase@@@?$list@USCommand@CInstanceBase@@V?$allocator@USCommand@CInstanceBase@@@std@@@std@@QAEPAU?$_List_node@USCommand@CInstanceBase@@PAX@1@QAU21@ABUSCommand@CInstanceBase@@@Z DD 0ffffffffH
	DD	FLAT:__unwindfunclet$??$_Emplace@ABUSCommand@CInstanceBase@@@?$list@USCommand@CInstanceBase@@V?$allocator@USCommand@CInstanceBase@@@std@@@std@@QAEPAU?$_List_node@USCommand@CInstanceBase@@PAX@1@QAU21@ABUSCommand@CInstanceBase@@@Z$1
xdata$x	ENDS
;	COMDAT xdata$x
xdata$x	SEGMENT
__ehfuncinfo$??0?$_Hash@V?$_Umap_traits@KMV?$_Uhash_compare@KU?$hash@K@std@@U?$equal_to@K@2@@std@@V?$allocator@U?$pair@$$CBKM@std@@@2@$0A@@std@@@std@@IAE@ABV?$_Uhash_compare@KU?$hash@K@std@@U?$equal_to@K@2@@1@ABV?$allocator@U?$pair@$$CBKM@std@@@1@@Z DD 019930522H
	DD	02H
	DD	FLAT:__unwindtable$??0?$_Hash@V?$_Umap_traits@KMV?$_Uhash_compare@KU?$hash@K@std@@U?$equal_to@K@2@@std@@V?$allocator@U?$pair@$$CBKM@std@@@2@$0A@@std@@@std@@IAE@ABV?$_Uhash_compare@KU?$hash@K@std@@U?$equal_to@K@2@@1@ABV?$allocator@U?$pair@$$CBKM@std@@@1@@Z
	DD	2 DUP(00H)
	DD	2 DUP(00H)
	DD	00H
	DD	01H
__unwindtable$??0?$_Hash@V?$_Umap_traits@KMV?$_Uhash_compare@KU?$hash@K@std@@U?$equal_to@K@2@@std@@V?$allocator@U?$pair@$$CBKM@std@@@2@$0A@@std@@@std@@IAE@ABV?$_Uhash_compare@KU?$hash@K@std@@U?$equal_to@K@2@@1@ABV?$allocator@U?$pair@$$CBKM@std@@@1@@Z DD 0ffffffffH
	DD	FLAT:__unwindfunclet$??0?$_Hash@V?$_Umap_traits@KMV?$_Uhash_compare@KU?$hash@K@std@@U?$equal_to@K@2@@std@@V?$allocator@U?$pair@$$CBKM@std@@@2@$0A@@std@@@std@@IAE@ABV?$_Uhash_compare@KU?$hash@K@std@@U?$equal_to@K@2@@1@ABV?$allocator@U?$pair@$$CBKM@std@@@1@@Z$0
	DD	00H
	DD	FLAT:__unwindfunclet$??0?$_Hash@V?$_Umap_traits@KMV?$_Uhash_compare@KU?$hash@K@std@@U?$equal_to@K@2@@std@@V?$allocator@U?$pair@$$CBKM@std@@@2@$0A@@std@@@std@@IAE@ABV?$_Uhash_compare@KU?$hash@K@std@@U?$equal_to@K@2@@1@ABV?$allocator@U?$pair@$$CBKM@std@@@1@@Z$1
xdata$x	ENDS
;	COMDAT xdata$x
xdata$x	SEGMENT
__ehfuncinfo$??$?0ABUSCommand@CInstanceBase@@@?$_List_node_emplace_op2@V?$allocator@U?$_List_node@USCommand@CInstanceBase@@PAX@std@@@std@@@std@@QAE@AAV?$allocator@U?$_List_node@USCommand@CInstanceBase@@PAX@std@@@1@ABUSCommand@CInstanceBase@@@Z DQ 00000000119930522r ; 2.33398e-314
	DD	FLAT:__unwindtable$??$?0ABUSCommand@CInstanceBase@@@?$_List_node_emplace_op2@V?$allocator@U?$_List_node@USCommand@CInstanceBase@@PAX@std@@@std@@@std@@QAE@AAV?$allocator@U?$_List_node@USCommand@CInstanceBase@@PAX@std@@@1@ABUSCommand@CInstanceBase@@@Z
	DQ	00000000000000000r		; 0
	DQ	00000000000000000r		; 0
	DQ	00000000100000000r		; 2.122e-314
__unwindtable$??$?0ABUSCommand@CInstanceBase@@@?$_List_node_emplace_op2@V?$allocator@U?$_List_node@USCommand@CInstanceBase@@PAX@std@@@std@@@std@@QAE@AAV?$allocator@U?$_List_node@USCommand@CInstanceBase@@PAX@std@@@1@ABUSCommand@CInstanceBase@@@Z DD 0ffffffffH
	DD	FLAT:__unwindfunclet$??$?0ABUSCommand@CInstanceBase@@@?$_List_node_emplace_op2@V?$allocator@U?$_List_node@USCommand@CInstanceBase@@PAX@std@@@std@@@std@@QAE@AAV?$allocator@U?$_List_node@USCommand@CInstanceBase@@PAX@std@@@1@ABUSCommand@CInstanceBase@@@Z$0
xdata$x	ENDS
;	COMDAT xdata$x
xdata$x	SEGMENT
__ehfuncinfo$??$_Insert_range_unchecked@PBU?$pair@$$CBKM@std@@PBU12@@?$_Hash@V?$_Umap_traits@KMV?$_Uhash_compare@KU?$hash@K@std@@U?$equal_to@K@2@@std@@V?$allocator@U?$pair@$$CBKM@std@@@2@$0A@@std@@@std@@IAEXPBU?$pair@$$CBKM@1@QBU21@@Z DQ 00000000219930522r ; 4.45598e-314
	DD	FLAT:__unwindtable$??$_Insert_range_unchecked@PBU?$pair@$$CBKM@std@@PBU12@@?$_Hash@V?$_Umap_traits@KMV?$_Uhash_compare@KU?$hash@K@std@@U?$equal_to@K@2@@std@@V?$allocator@U?$pair@$$CBKM@std@@@2@$0A@@std@@@std@@IAEXPBU?$pair@$$CBKM@1@QBU21@@Z
	DQ	00000000000000000r		; 0
	DQ	00000000000000000r		; 0
	DQ	00000000100000000r		; 2.122e-314
__unwindtable$??$_Insert_range_unchecked@PBU?$pair@$$CBKM@std@@PBU12@@?$_Hash@V?$_Umap_traits@KMV?$_Uhash_compare@KU?$hash@K@std@@U?$equal_to@K@2@@std@@V?$allocator@U?$pair@$$CBKM@std@@@2@$0A@@std@@@std@@IAEXPBU?$pair@$$CBKM@1@QBU21@@Z DD 0ffffffffH
	DD	FLAT:__unwindfunclet$??$_Insert_range_unchecked@PBU?$pair@$$CBKM@std@@PBU12@@?$_Hash@V?$_Umap_traits@KMV?$_Uhash_compare@KU?$hash@K@std@@U?$equal_to@K@2@@std@@V?$allocator@U?$pair@$$CBKM@std@@@2@$0A@@std@@@std@@IAEXPBU?$pair@$$CBKM@1@QBU21@@Z$1
	DD	0ffffffffH
	DD	FLAT:__unwindfunclet$??$_Insert_range_unchecked@PBU?$pair@$$CBKM@std@@PBU12@@?$_Hash@V?$_Umap_traits@KMV?$_Uhash_compare@KU?$hash@K@std@@U?$equal_to@K@2@@std@@V?$allocator@U?$pair@$$CBKM@std@@@2@$0A@@std@@@std@@IAEXPBU?$pair@$$CBKM@1@QBU21@@Z$0
xdata$x	ENDS
;	COMDAT xdata$x
xdata$x	SEGMENT
__ehfuncinfo$??$emplace@ABU?$pair@$$CBKM@std@@@?$_Hash@V?$_Umap_traits@KMV?$_Uhash_compare@KU?$hash@K@std@@U?$equal_to@K@2@@std@@V?$allocator@U?$pair@$$CBKM@std@@@2@$0A@@std@@@std@@QAE?AU?$pair@V?$_List_iterator@V?$_List_val@U?$_List_simple_types@U?$pair@$$CBKM@std@@@std@@@std@@@std@@_N@1@ABU?$pair@$$CBKM@1@@Z DQ 00000000219930522r ; 4.45598e-314
	DD	FLAT:__unwindtable$??$emplace@ABU?$pair@$$CBKM@std@@@?$_Hash@V?$_Umap_traits@KMV?$_Uhash_compare@KU?$hash@K@std@@U?$equal_to@K@2@@std@@V?$allocator@U?$pair@$$CBKM@std@@@2@$0A@@std@@@std@@QAE?AU?$pair@V?$_List_iterator@V?$_List_val@U?$_List_simple_types@U?$pair@$$CBKM@std@@@std@@@std@@@std@@_N@1@ABU?$pair@$$CBKM@1@@Z
	DQ	00000000000000000r		; 0
	DQ	00000000000000000r		; 0
	DQ	00000000100000000r		; 2.122e-314
__unwindtable$??$emplace@ABU?$pair@$$CBKM@std@@@?$_Hash@V?$_Umap_traits@KMV?$_Uhash_compare@KU?$hash@K@std@@U?$equal_to@K@2@@std@@V?$allocator@U?$pair@$$CBKM@std@@@2@$0A@@std@@@std@@QAE?AU?$pair@V?$_List_iterator@V?$_List_val@U?$_List_simple_types@U?$pair@$$CBKM@std@@@std@@@std@@@std@@_N@1@ABU?$pair@$$CBKM@1@@Z DD 0ffffffffH
	DD	FLAT:__unwindfunclet$??$emplace@ABU?$pair@$$CBKM@std@@@?$_Hash@V?$_Umap_traits@KMV?$_Uhash_compare@KU?$hash@K@std@@U?$equal_to@K@2@@std@@V?$allocator@U?$pair@$$CBKM@std@@@2@$0A@@std@@@std@@QAE?AU?$pair@V?$_List_iterator@V?$_List_val@U?$_List_simple_types@U?$pair@$$CBKM@std@@@std@@@std@@@std@@_N@1@ABU?$pair@$$CBKM@1@@Z$1
	DD	0ffffffffH
	DD	FLAT:__unwindfunclet$??$emplace@ABU?$pair@$$CBKM@std@@@?$_Hash@V?$_Umap_traits@KMV?$_Uhash_compare@KU?$hash@K@std@@U?$equal_to@K@2@@std@@V?$allocator@U?$pair@$$CBKM@std@@@2@$0A@@std@@@std@@QAE?AU?$pair@V?$_List_iterator@V?$_List_val@U?$_List_simple_types@U?$pair@$$CBKM@std@@@std@@@std@@@std@@_N@1@ABU?$pair@$$CBKM@1@@Z$0
xdata$x	ENDS
;	COMDAT xdata$x
xdata$x	SEGMENT
__ehfuncinfo$??$?0ABU?$pair@$$CBKM@std@@@?$_List_node_emplace_op2@V?$allocator@U?$_List_node@U?$pair@$$CBKM@std@@PAX@std@@@std@@@std@@QAE@AAV?$allocator@U?$_List_node@U?$pair@$$CBKM@std@@PAX@std@@@1@ABU?$pair@$$CBKM@1@@Z DQ 00000000119930522r ; 2.33398e-314
	DD	FLAT:__unwindtable$??$?0ABU?$pair@$$CBKM@std@@@?$_List_node_emplace_op2@V?$allocator@U?$_List_node@U?$pair@$$CBKM@std@@PAX@std@@@std@@@std@@QAE@AAV?$allocator@U?$_List_node@U?$pair@$$CBKM@std@@PAX@std@@@1@ABU?$pair@$$CBKM@1@@Z
	DQ	00000000000000000r		; 0
	DQ	00000000000000000r		; 0
	DQ	00000000100000000r		; 2.122e-314
__unwindtable$??$?0ABU?$pair@$$CBKM@std@@@?$_List_node_emplace_op2@V?$allocator@U?$_List_node@U?$pair@$$CBKM@std@@PAX@std@@@std@@@std@@QAE@AAV?$allocator@U?$_List_node@U?$pair@$$CBKM@std@@PAX@std@@@1@ABU?$pair@$$CBKM@1@@Z DD 0ffffffffH
	DD	FLAT:__unwindfunclet$??$?0ABU?$pair@$$CBKM@std@@@?$_List_node_emplace_op2@V?$allocator@U?$_List_node@U?$pair@$$CBKM@std@@PAX@std@@@std@@@std@@QAE@AAV?$allocator@U?$_List_node@U?$pair@$$CBKM@std@@PAX@std@@@1@ABU?$pair@$$CBKM@1@@Z$0
?gs_kActorInstBG@@3VCActorInstanceBackground@@A DD FLAT:??_7?$CSingleton@VIBackground@@@@6B@ ; gs_kActorInstBG
?ms_kPool@CInstanceBase@@2V?$CDynamicPool@VCInstanceBase@@@@A DD FLAT:??_7?$CDynamicPool@VCInstanceBase@@@@6B@ ; CInstanceBase::ms_kPool
	DD	00H
	DD	00H
	DD	00H
	DD	00H
	DD	00H
	DD	00H
	DD	00H
	DD	00H
	ORG $-20
?gs_kActorInstBG$initializer$@@3P6AXXZA DD FLAT:??__Egs_kActorInstBG@@YAXXZ ; gs_kActorInstBG$initializer$
??ms_kPool$initializer$@CInstanceBase@@2P6AXXZA@@3P6AXXZA DD FLAT:??__E?ms_kPool@CInstanceBase@@2V?$CDynamicPool@VCInstanceBase@@@@A@@YAXXZ ; ??ms_kPool$initializer$@CInstanceBase@@2P6AXXZA@@3P6AXXZA
; Function compile flags: /Ogtp
; File C:\Anka2Project\Anka2Project\Source\Binary\source\UserInterface\InstanceBase.cpp
;	COMDAT ?Create@SHORSE@CInstanceBase@@QAEXABUD3DXVECTOR3@@II@Z
_TEXT	SEGMENT
$T1 = -16						; size = 4
__$EHRec$ = -12						; size = 12
_c_rkPPos$ = 8						; size = 4
_eRace$ = 12						; size = 4
_eHitEffect$ = 16					; size = 4
?Create@SHORSE@CInstanceBase@@QAEXABUD3DXVECTOR3@@II@Z PROC ; CInstanceBase::SHORSE::Create, COMDAT
; _this$ = ecx

; 91   : {

  00000	55		 push	 ebp
  00001	8b ec		 mov	 ebp, esp
  00003	6a ff		 push	 -1
  00005	68 00 00 00 00	 push	 __ehhandler$?Create@SHORSE@CInstanceBase@@QAEXABUD3DXVECTOR3@@II@Z
  0000a	64 a1 00 00 00
	00		 mov	 eax, DWORD PTR fs:0
  00010	50		 push	 eax
  00011	51		 push	 ecx
  00012	56		 push	 esi
  00013	57		 push	 edi
  00014	a1 00 00 00 00	 mov	 eax, DWORD PTR ___security_cookie
  00019	33 c5		 xor	 eax, ebp
  0001b	50		 push	 eax
  0001c	8d 45 f4	 lea	 eax, DWORD PTR __$EHRec$[ebp]
  0001f	64 a3 00 00 00
	00		 mov	 DWORD PTR fs:0, eax
  00025	8b f1		 mov	 esi, ecx

; 92   : 	assert(NULL==m_pkActor && "CInstanceBase::SHORSE::Create - ALREADY MOUNT");

  00027	83 7e 04 00	 cmp	 DWORD PTR [esi+4], 0
  0002b	74 14		 je	 SHORT $LN5@Create
  0002d	6a 5c		 push	 92			; 0000005cH
  0002f	68 00 00 00 00	 push	 OFFSET ??_C@_1KC@MEHOMOLH@?$AAC?$AA?3?$AA?2?$AAA?$AAn?$AAk?$AAa?$AA2?$AAP?$AAr?$AAo?$AAj?$AAe?$AAc?$AAt@
  00034	68 00 00 00 00	 push	 OFFSET ??_C@_1IG@HGDICGNA@?$AAN?$AAU?$AAL?$AAL?$AA?$DN?$AA?$DN?$AAm?$AA_?$AAp?$AAk?$AAA?$AAc?$AAt?$AAo?$AAr@
  00039	e8 00 00 00 00	 call	 __wassert
  0003e	83 c4 0c	 add	 esp, 12			; 0000000cH
$LN5@Create:

; 93   : 
; 94   : 	m_pkActor=new CActorInstance;

  00041	68 44 1a 00 00	 push	 6724			; 00001a44H
  00046	e8 00 00 00 00	 call	 ??2@YAPAXI@Z		; operator new
  0004b	83 c4 04	 add	 esp, 4
  0004e	89 45 f0	 mov	 DWORD PTR $T1[ebp], eax
  00051	8b c8		 mov	 ecx, eax
  00053	c7 45 fc 00 00
	00 00		 mov	 DWORD PTR __$EHRec$[ebp+8], 0
  0005a	e8 00 00 00 00	 call	 ??0CActorInstance@@QAE@XZ ; CActorInstance::CActorInstance
  0005f	c7 45 fc ff ff
	ff ff		 mov	 DWORD PTR __$EHRec$[ebp+8], -1

; 95   : 
; 96   : 	CActorInstance& rkActor=GetActorRef();

  00066	8b ce		 mov	 ecx, esi
  00068	89 46 04	 mov	 DWORD PTR [esi+4], eax
  0006b	e8 00 00 00 00	 call	 ?GetActorRef@SHORSE@CInstanceBase@@QAEAAVCActorInstance@@XZ ; CInstanceBase::SHORSE::GetActorRef
  00070	8b f8		 mov	 edi, eax

; 97   : 	rkActor.SetEventHandler(CActorInstance::IEventHandler::GetEmptyPtr());

  00072	e8 00 00 00 00	 call	 ?GetEmptyPtr@IEventHandler@CActorInstance@@SAPAV12@XZ ; CActorInstance::IEventHandler::GetEmptyPtr
  00077	50		 push	 eax
  00078	8b cf		 mov	 ecx, edi
  0007a	e8 00 00 00 00	 call	 ?SetEventHandler@CActorInstance@@QAEXPAVIEventHandler@1@@Z ; CActorInstance::SetEventHandler

; 98   : 	if (!rkActor.SetRace(eRace))

  0007f	ff 75 0c	 push	 DWORD PTR _eRace$[ebp]
  00082	8b cf		 mov	 ecx, edi
  00084	e8 00 00 00 00	 call	 ?SetRace@CActorInstance@@QAE_NK@Z ; CActorInstance::SetRace
  00089	84 c0		 test	 al, al
  0008b	75 27		 jne	 SHORT $LN2@Create

; 99   : 	{
; 100  : 		delete m_pkActor;

  0008d	8b 4e 04	 mov	 ecx, DWORD PTR [esi+4]
  00090	85 c9		 test	 ecx, ecx
  00092	74 06		 je	 SHORT $LN8@Create
  00094	8b 01		 mov	 eax, DWORD PTR [ecx]
  00096	6a 01		 push	 1
  00098	ff 10		 call	 DWORD PTR [eax]
$LN8@Create:

; 101  : 		m_pkActor=NULL;

  0009a	c7 46 04 00 00
	00 00		 mov	 DWORD PTR [esi+4], 0

; 118  : }

  000a1	8b 4d f4	 mov	 ecx, DWORD PTR __$EHRec$[ebp]
  000a4	64 89 0d 00 00
	00 00		 mov	 DWORD PTR fs:0, ecx
  000ab	59		 pop	 ecx
  000ac	5f		 pop	 edi
  000ad	5e		 pop	 esi
  000ae	8b e5		 mov	 esp, ebp
  000b0	5d		 pop	 ebp
  000b1	c2 0c 00	 ret	 12			; 0000000cH
$LN2@Create:

; 102  : 		return;
; 103  : 	}
; 104  : 
; 105  : 	rkActor.SetShape(0);

  000b4	51		 push	 ecx
  000b5	c7 04 24 00 00
	00 00		 mov	 DWORD PTR [esp], 0
  000bc	8b cf		 mov	 ecx, edi
  000be	6a 00		 push	 0
  000c0	e8 00 00 00 00	 call	 ?SetShape@CActorInstance@@QAEXKM@Z ; CActorInstance::SetShape

; 106  : 	rkActor.SetBattleHitEffect(eHitEffect);

  000c5	ff 75 10	 push	 DWORD PTR _eHitEffect$[ebp]
  000c8	8b cf		 mov	 ecx, edi
  000ca	e8 00 00 00 00	 call	 ?SetBattleHitEffect@CActorInstance@@QAEXK@Z ; CActorInstance::SetBattleHitEffect

; 107  : 	rkActor.SetAlphaValue(0.0f);

  000cf	51		 push	 ecx
  000d0	8b cf		 mov	 ecx, edi
  000d2	c7 04 24 00 00
	00 00		 mov	 DWORD PTR [esp], 0
  000d9	e8 00 00 00 00	 call	 ?SetAlphaValue@CActorInstance@@QAEXM@Z ; CActorInstance::SetAlphaValue

; 108  : 	rkActor.BlendAlphaValue(1.0f, 0.5f);

  000de	83 ec 08	 sub	 esp, 8
  000e1	8b cf		 mov	 ecx, edi
  000e3	c7 44 24 04 00
	00 00 3f	 mov	 DWORD PTR [esp+4], 1056964608 ; 3f000000H
  000eb	c7 04 24 00 00
	80 3f		 mov	 DWORD PTR [esp], 1065353216 ; 3f800000H
  000f2	e8 00 00 00 00	 call	 ?BlendAlphaValue@CActorInstance@@QAEXMM@Z ; CActorInstance::BlendAlphaValue

; 109  : 	rkActor.SetMoveSpeed(1.0f);

  000f7	51		 push	 ecx
  000f8	8b cf		 mov	 ecx, edi
  000fa	c7 04 24 00 00
	80 3f		 mov	 DWORD PTR [esp], 1065353216 ; 3f800000H
  00101	e8 00 00 00 00	 call	 ?SetMoveSpeed@CActorInstance@@QAEXM@Z ; CActorInstance::SetMoveSpeed

; 110  : 	rkActor.SetAttackSpeed(1.0f);

  00106	51		 push	 ecx
  00107	8b cf		 mov	 ecx, edi
  00109	c7 04 24 00 00
	80 3f		 mov	 DWORD PTR [esp], 1065353216 ; 3f800000H
  00110	e8 00 00 00 00	 call	 ?SetAttackSpeed@CActorInstance@@QAEXM@Z ; CActorInstance::SetAttackSpeed

; 111  : 	rkActor.SetMotionMode(CRaceMotionData::MODE_GENERAL);

  00115	6a 01		 push	 1
  00117	8b cf		 mov	 ecx, edi
  00119	e8 00 00 00 00	 call	 ?SetMotionMode@CActorInstance@@QAEXH@Z ; CActorInstance::SetMotionMode

; 112  : 	rkActor.Stop();

  0011e	51		 push	 ecx
  0011f	8b cf		 mov	 ecx, edi
  00121	c7 04 24 9a 99
	19 3e		 mov	 DWORD PTR [esp], 1041865114 ; 3e19999aH
  00128	e8 00 00 00 00	 call	 ?Stop@CActorInstance@@QAEXM@Z ; CActorInstance::Stop

; 113  : 	rkActor.RefreshActorInstance();

  0012d	8b cf		 mov	 ecx, edi
  0012f	e8 00 00 00 00	 call	 ?RefreshActorInstance@CActorInstance@@QAEXXZ ; CActorInstance::RefreshActorInstance

; 114  : 
; 115  : 	rkActor.SetCurPixelPosition(c_rkPPos);

  00134	ff 75 08	 push	 DWORD PTR _c_rkPPos$[ebp]
  00137	8b cf		 mov	 ecx, edi
  00139	e8 00 00 00 00	 call	 ?SetCurPixelPosition@CActorInstance@@QAEXABUD3DXVECTOR3@@@Z ; CActorInstance::SetCurPixelPosition

; 116  : 
; 117  : 	m_isMounting=true;

  0013e	c6 06 01	 mov	 BYTE PTR [esi], 1

; 118  : }

  00141	8b 4d f4	 mov	 ecx, DWORD PTR __$EHRec$[ebp]
  00144	64 89 0d 00 00
	00 00		 mov	 DWORD PTR fs:0, ecx
  0014b	59		 pop	 ecx
  0014c	5f		 pop	 edi
  0014d	5e		 pop	 esi
  0014e	8b e5		 mov	 esp, ebp
  00150	5d		 pop	 ebp
  00151	c2 0c 00	 ret	 12			; 0000000cH
_TEXT	ENDS
;	COMDAT text$x
text$x	SEGMENT
__unwindfunclet$?Create@SHORSE@CInstanceBase@@QAEXABUD3DXVECTOR3@@II@Z$0:
  00000	68 44 1a 00 00	 push	 6724			; 00001a44H
  00005	8b 45 f0	 mov	 eax, DWORD PTR $T1[ebp]
  00008	50		 push	 eax
  00009	e8 00 00 00 00	 call	 ??3@YAXPAXI@Z		; operator delete
  0000e	83 c4 08	 add	 esp, 8
  00011	c3		 ret	 0
  00012	cc		 int	 3
  00013	cc		 int	 3
  00014	cc		 int	 3
  00015	cc		 int	 3
  00016	cc		 int	 3
__ehhandler$?Create@SHORSE@CInstanceBase@@QAEXABUD3DXVECTOR3@@II@Z:
  00017	90		 npad	 1
  00018	90		 npad	 1
  00019	8b 54 24 08	 mov	 edx, DWORD PTR [esp+8]
  0001d	8d 42 0c	 lea	 eax, DWORD PTR [edx+12]
  00020	8b 4a f0	 mov	 ecx, DWORD PTR [edx-16]
  00023	33 c8		 xor	 ecx, eax
  00025	e8 00 00 00 00	 call	 @__security_check_cookie@4
  0002a	b8 00 00 00 00	 mov	 eax, OFFSET __ehfuncinfo$?Create@SHORSE@CInstanceBase@@QAEXABUD3DXVECTOR3@@II@Z
  0002f	e9 00 00 00 00	 jmp	 ___CxxFrameHandler3
text$x	ENDS
?Create@SHORSE@CInstanceBase@@QAEXABUD3DXVECTOR3@@II@Z ENDP ; CInstanceBase::SHORSE::Create
; Function compile flags: /Ogtp
; File C:\Anka2Project\Anka2Project\Source\Binary\source\UserInterface\InstanceBase.cpp
;	COMDAT ?Destroy@SHORSE@CInstanceBase@@QAEXXZ
_TEXT	SEGMENT
?Destroy@SHORSE@CInstanceBase@@QAEXXZ PROC		; CInstanceBase::SHORSE::Destroy, COMDAT
; _this$ = ecx

; 121  : {

  00000	56		 push	 esi
  00001	8b f1		 mov	 esi, ecx

; 122  : 	if (m_pkActor)

  00003	8b 4e 04	 mov	 ecx, DWORD PTR [esi+4]
  00006	85 c9		 test	 ecx, ecx
  00008	74 12		 je	 SHORT $LN4@Destroy

; 123  : 	{
; 124  : 		m_pkActor->Destroy();

  0000a	e8 00 00 00 00	 call	 ?Destroy@CActorInstance@@QAEXXZ ; CActorInstance::Destroy

; 125  : 		delete m_pkActor;

  0000f	8b 4e 04	 mov	 ecx, DWORD PTR [esi+4]
  00012	85 c9		 test	 ecx, ecx
  00014	74 06		 je	 SHORT $LN4@Destroy
  00016	8b 01		 mov	 eax, DWORD PTR [ecx]
  00018	6a 01		 push	 1
  0001a	ff 10		 call	 DWORD PTR [eax]
$LN4@Destroy:

; 126  : 	}
; 127  : 
; 128  : 	__Initialize();

  0001c	8b ce		 mov	 ecx, esi
  0001e	5e		 pop	 esi
  0001f	e9 00 00 00 00	 jmp	 ?__Initialize@SHORSE@CInstanceBase@@QAEXXZ ; CInstanceBase::SHORSE::__Initialize
?Destroy@SHORSE@CInstanceBase@@QAEXXZ ENDP		; CInstanceBase::SHORSE::Destroy
_TEXT	ENDS
; Function compile flags: /Ogtp
; File C:\Anka2Project\Anka2Project\Source\Binary\source\UserInterface\InstanceBase.cpp
; File C:\Anka2Project\Anka2Project\Source\Binary\source\eterBase\Singleton.h
; File C:\Anka2Project\Anka2Project\Source\Binary\source\UserInterface\InstanceBase.cpp
; File C:\Anka2Project\Anka2Project\Source\Binary\source\eterBase\Singleton.h
; File C:\Anka2Project\Anka2Project\Source\Binary\source\UserInterface\InstanceBase.cpp
;	COMDAT ??__Egs_kActorInstBG@@YAXXZ
text$di	SEGMENT
??__Egs_kActorInstBG@@YAXXZ PROC			; `dynamic initializer for 'gs_kActorInstBG'', COMDAT
; File C:\Anka2Project\Anka2Project\Source\Binary\source\eterBase\Singleton.h

; 13   : 		assert(!ms_singleton);

  00000	83 3d 00 00 00
	00 00		 cmp	 DWORD PTR ?ms_singleton@?$CSingleton@VIBackground@@@@0PAVIBackground@@A, 0 ; CSingleton<IBackground>::ms_singleton
  00007	74 14		 je	 SHORT $LN9@dynamic
  00009	6a 0d		 push	 13			; 0000000dH
  0000b	68 00 00 00 00	 push	 OFFSET ??_C@_1IO@CAJLEEOI@?$AAC?$AA?3?$AA?2?$AAA?$AAn?$AAk?$AAa?$AA2?$AAP?$AAr?$AAo?$AAj?$AAe?$AAc?$AAt@
  00010	68 00 00 00 00	 push	 OFFSET ??_C@_1BM@EENBGLDC@?$AA?$CB?$AAm?$AAs?$AA_?$AAs?$AAi?$AAn?$AAg?$AAl?$AAe?$AAt?$AAo?$AAn@
  00015	e8 00 00 00 00	 call	 __wassert
  0001a	83 c4 0c	 add	 esp, 12			; 0000000cH
$LN9@dynamic:
; File C:\Anka2Project\Anka2Project\Source\Binary\source\UserInterface\InstanceBase.cpp

; 291  : static CActorInstanceBackground gs_kActorInstBG;

  0001d	68 00 00 00 00	 push	 OFFSET ??__Fgs_kActorInstBG@@YAXXZ ; `dynamic atexit destructor for 'gs_kActorInstBG''
; File C:\Anka2Project\Anka2Project\Source\Binary\source\eterBase\Singleton.h

; 15   : 		ms_singleton = (T*) ((int) this + offset);

  00022	c7 05 00 00 00
	00 00 00 00 00	 mov	 DWORD PTR ?ms_singleton@?$CSingleton@VIBackground@@@@0PAVIBackground@@A, OFFSET ?gs_kActorInstBG@@3VCActorInstanceBackground@@A ; CSingleton<IBackground>::ms_singleton
; File C:\Anka2Project\Anka2Project\Source\Binary\source\UserInterface\InstanceBase.cpp

; 282  : 		CActorInstanceBackground() {}

  0002c	c7 05 00 00 00
	00 00 00 00 00	 mov	 DWORD PTR ?gs_kActorInstBG@@3VCActorInstanceBackground@@A, OFFSET ??_7CActorInstanceBackground@@6B@

; 291  : static CActorInstanceBackground gs_kActorInstBG;

  00036	e8 00 00 00 00	 call	 _atexit
  0003b	59		 pop	 ecx
  0003c	c3		 ret	 0
??__Egs_kActorInstBG@@YAXXZ ENDP			; `dynamic initializer for 'gs_kActorInstBG''
text$di	ENDS
; Function compile flags: /Ogtp
; File C:\Anka2Project\Anka2Project\Source\Binary\source\eterBase\Singleton.h
;	COMDAT ??__Fgs_kActorInstBG@@YAXXZ
text$yd	SEGMENT
??__Fgs_kActorInstBG@@YAXXZ PROC			; `dynamic atexit destructor for 'gs_kActorInstBG'', COMDAT

; 20   : 		assert(ms_singleton);

  00000	83 3d 00 00 00
	00 00		 cmp	 DWORD PTR ?ms_singleton@?$CSingleton@VIBackground@@@@0PAVIBackground@@A, 0 ; CSingleton<IBackground>::ms_singleton
  00007	c7 05 00 00 00
	00 00 00 00 00	 mov	 DWORD PTR ?gs_kActorInstBG@@3VCActorInstanceBackground@@A, OFFSET ??_7?$CSingleton@VIBackground@@@@6B@
  00011	75 14		 jne	 SHORT $LN17@dynamic
  00013	6a 14		 push	 20			; 00000014H
  00015	68 00 00 00 00	 push	 OFFSET ??_C@_1IO@CAJLEEOI@?$AAC?$AA?3?$AA?2?$AAA?$AAn?$AAk?$AAa?$AA2?$AAP?$AAr?$AAo?$AAj?$AAe?$AAc?$AAt@
  0001a	68 00 00 00 00	 push	 OFFSET ??_C@_1BK@FMEHPMFE@?$AAm?$AAs?$AA_?$AAs?$AAi?$AAn?$AAg?$AAl?$AAe?$AAt?$AAo?$AAn@
  0001f	e8 00 00 00 00	 call	 __wassert
  00024	83 c4 0c	 add	 esp, 12			; 0000000cH
$LN17@dynamic:

; 21   : 		ms_singleton = 0;

  00027	c7 05 00 00 00
	00 00 00 00 00	 mov	 DWORD PTR ?ms_singleton@?$CSingleton@VIBackground@@@@0PAVIBackground@@A, 0 ; CSingleton<IBackground>::ms_singleton
  00031	c3		 ret	 0
??__Fgs_kActorInstBG@@YAXXZ ENDP			; `dynamic atexit destructor for 'gs_kActorInstBG''
text$yd	ENDS
; Function compile flags: /Ogtp
; File C:\Anka2Project\Anka2Project\Source\Binary\source\UserInterface\InstanceBase.cpp
;	COMDAT ??__E?ms_kPool@CInstanceBase@@2V?$CDynamicPool@VCInstanceBase@@@@A@@YAXXZ
text$di	SEGMENT
??__E?ms_kPool@CInstanceBase@@2V?$CDynamicPool@VCInstanceBase@@@@A@@YAXXZ PROC ; `dynamic initializer for 'CInstanceBase::ms_kPool'', COMDAT

; 358  : CDynamicPool<CInstanceBase> CInstanceBase::ms_kPool;

  00000	68 00 00 00 00	 push	 OFFSET ??__F?ms_kPool@CInstanceBase@@2V?$CDynamicPool@VCInstanceBase@@@@A@@YAXXZ ; `dynamic atexit destructor for 'CInstanceBase::ms_kPool''
  00005	e8 00 00 00 00	 call	 _atexit
  0000a	59		 pop	 ecx
  0000b	c3		 ret	 0
??__E?ms_kPool@CInstanceBase@@2V?$CDynamicPool@VCInstanceBase@@@@A@@YAXXZ ENDP ; `dynamic initializer for 'CInstanceBase::ms_kPool''
text$di	ENDS
; Function compile flags: /Ogtp
;	COMDAT ??__F?ms_kPool@CInstanceBase@@2V?$CDynamicPool@VCInstanceBase@@@@A@@YAXXZ
text$yd	SEGMENT
??__F?ms_kPool@CInstanceBase@@2V?$CDynamicPool@VCInstanceBase@@@@A@@YAXXZ PROC ; `dynamic atexit destructor for 'CInstanceBase::ms_kPool'', COMDAT
  00000	b9 00 00 00 00	 mov	 ecx, OFFSET ?ms_kPool@CInstanceBase@@2V?$CDynamicPool@VCInstanceBase@@@@A ; CInstanceBase::ms_kPool
  00005	e9 00 00 00 00	 jmp	 ??1?$CDynamicPool@VCInstanceBase@@@@UAE@XZ ; CDynamicPool<CInstanceBase>::~CDynamicPool<CInstanceBase>
??__F?ms_kPool@CInstanceBase@@2V?$CDynamicPool@VCInstanceBase@@@@A@@YAXXZ ENDP ; `dynamic atexit destructor for 'CInstanceBase::ms_kPool''
text$yd	ENDS
; Function compile flags: /Ogtp
; File C:\Anka2Project\Anka2Project\Source\Binary\source\UserInterface\InstanceBase.cpp
; File C:\Program Files\Microsoft Visual Studio\2022\Community\VC\Tools\MSVC\14.44.35207\include\vector
; File C:\Anka2Project\Anka2Project\Source\Binary\source\eterLib\Pool.h
; File C:\Program Files\Microsoft Visual Studio\2022\Community\VC\Tools\MSVC\14.44.35207\include\vector
; File C:\Anka2Project\Anka2Project\Source\Binary\source\eterLib\Pool.h
; File C:\Program Files\Microsoft Visual Studio\2022\Community\VC\Tools\MSVC\14.44.35207\include\vector
; File C:\Anka2Project\Anka2Project\Source\Binary\source\eterLib\Pool.h
; File C:\Anka2Project\Anka2Project\Source\Binary\source\UserInterface\InstanceBase.cpp
; File C:\Anka2Project\Anka2Project\Source\Binary\source\eterLib\Pool.h
; File C:\Program Files\Microsoft Visual Studio\2022\Community\VC\Tools\MSVC\14.44.35207\include\vector
; File C:\Anka2Project\Anka2Project\Source\Binary\source\UserInterface\InstanceBase.cpp
;	COMDAT ?New@CInstanceBase@@SAPAV1@XZ
_TEXT	SEGMENT
_pkNewData$8 = -16					; size = 4
$T2 = -16						; size = 4
__$EHRec$ = -12						; size = 12
?New@CInstanceBase@@SAPAV1@XZ PROC			; CInstanceBase::New, COMDAT

; 648  : {

  00000	55		 push	 ebp
  00001	8b ec		 mov	 ebp, esp
  00003	6a ff		 push	 -1
  00005	68 00 00 00 00	 push	 __ehhandler$?New@CInstanceBase@@SAPAV1@XZ
  0000a	64 a1 00 00 00
	00		 mov	 eax, DWORD PTR fs:0
  00010	50		 push	 eax
  00011	51		 push	 ecx
  00012	56		 push	 esi
  00013	a1 00 00 00 00	 mov	 eax, DWORD PTR ___security_cookie
  00018	33 c5		 xor	 eax, ebp
  0001a	50		 push	 eax
  0001b	8d 45 f4	 lea	 eax, DWORD PTR __$EHRec$[ebp]
  0001e	64 a3 00 00 00
	00		 mov	 DWORD PTR fs:0, eax
; File C:\Program Files\Microsoft Visual Studio\2022\Community\VC\Tools\MSVC\14.44.35207\include\vector

; 1910 :         return _My_data._Myfirst == _My_data._Mylast;

  00024	8b 0d 14 00 00
	00		 mov	 ecx, DWORD PTR ?ms_kPool@CInstanceBase@@2V?$CDynamicPool@VCInstanceBase@@@@A+20
  0002a	39 0d 10 00 00
	00		 cmp	 DWORD PTR ?ms_kPool@CInstanceBase@@2V?$CDynamicPool@VCInstanceBase@@@@A+16, ecx
; File C:\Anka2Project\Anka2Project\Source\Binary\source\eterLib\Pool.h

; 42   : 			if (m_kVct_pkFree.empty())

  00030	75 50		 jne	 SHORT $LN4@New

; 44   : 				T* pkNewData=new T;

  00032	68 88 1d 00 00	 push	 7560			; 00001d88H
  00037	e8 00 00 00 00	 call	 ??2@YAPAXI@Z		; operator new
  0003c	83 c4 04	 add	 esp, 4
  0003f	89 45 f0	 mov	 DWORD PTR $T2[ebp], eax
  00042	8b c8		 mov	 ecx, eax
  00044	c7 45 fc 00 00
	00 00		 mov	 DWORD PTR __$EHRec$[ebp+8], 0
  0004b	e8 00 00 00 00	 call	 ??0CInstanceBase@@QAE@XZ ; CInstanceBase::CInstanceBase
  00050	8b f0		 mov	 esi, eax
  00052	c7 45 fc ff ff
	ff ff		 mov	 DWORD PTR __$EHRec$[ebp+8], -1
; File C:\Program Files\Microsoft Visual Studio\2022\Community\VC\Tools\MSVC\14.44.35207\include\vector

; 933  :         _Emplace_one_at_back(_Val);

  00059	8d 45 f0	 lea	 eax, DWORD PTR _pkNewData$8[ebp]
; File C:\Anka2Project\Anka2Project\Source\Binary\source\eterLib\Pool.h

; 44   : 				T* pkNewData=new T;

  0005c	89 75 f0	 mov	 DWORD PTR _pkNewData$8[ebp], esi
; File C:\Program Files\Microsoft Visual Studio\2022\Community\VC\Tools\MSVC\14.44.35207\include\vector

; 933  :         _Emplace_one_at_back(_Val);

  0005f	50		 push	 eax
  00060	b9 04 00 00 00	 mov	 ecx, OFFSET ?ms_kPool@CInstanceBase@@2V?$CDynamicPool@VCInstanceBase@@@@A+4
  00065	e8 00 00 00 00	 call	 ??$_Emplace_one_at_back@ABQAVCInstanceBase@@@?$vector@PAVCInstanceBase@@V?$allocator@PAVCInstanceBase@@@std@@@std@@AAEAAPAVCInstanceBase@@ABQAV2@@Z ; std::vector<CInstanceBase *,std::allocator<CInstanceBase *> >::_Emplace_one_at_back<CInstanceBase * const &>
; File C:\Anka2Project\Anka2Project\Source\Binary\source\eterLib\Pool.h

; 46   : 				++m_uUsedCapacity;

  0006a	ff 05 20 00 00
	00		 inc	 DWORD PTR ?ms_kPool@CInstanceBase@@2V?$CDynamicPool@VCInstanceBase@@@@A+32
; File C:\Anka2Project\Anka2Project\Source\Binary\source\UserInterface\InstanceBase.cpp

; 649  : 	return ms_kPool.Alloc();

  00070	8b c6		 mov	 eax, esi

; 650  : }

  00072	8b 4d f4	 mov	 ecx, DWORD PTR __$EHRec$[ebp]
  00075	64 89 0d 00 00
	00 00		 mov	 DWORD PTR fs:0, ecx
  0007c	59		 pop	 ecx
  0007d	5e		 pop	 esi
  0007e	8b e5		 mov	 esp, ebp
  00080	5d		 pop	 ebp
  00081	c3		 ret	 0
$LN4@New:
; File C:\Anka2Project\Anka2Project\Source\Binary\source\eterLib\Pool.h

; 50   : 			T* pkFreeData=m_kVct_pkFree.back();

  00082	8b 41 fc	 mov	 eax, DWORD PTR [ecx-4]
; File C:\Program Files\Microsoft Visual Studio\2022\Community\VC\Tools\MSVC\14.44.35207\include\vector

; 1989 :         return _My_data._Mylast[-1];

  00085	83 c1 fc	 add	 ecx, -4			; fffffffcH

; 1759 :         --_Mylast;

  00088	89 0d 14 00 00
	00		 mov	 DWORD PTR ?ms_kPool@CInstanceBase@@2V?$CDynamicPool@VCInstanceBase@@@@A+20, ecx
; File C:\Anka2Project\Anka2Project\Source\Binary\source\UserInterface\InstanceBase.cpp

; 650  : }

  0008e	8b 4d f4	 mov	 ecx, DWORD PTR __$EHRec$[ebp]
  00091	64 89 0d 00 00
	00 00		 mov	 DWORD PTR fs:0, ecx
  00098	59		 pop	 ecx
  00099	5e		 pop	 esi
  0009a	8b e5		 mov	 esp, ebp
  0009c	5d		 pop	 ebp
  0009d	c3		 ret	 0
_TEXT	ENDS
;	COMDAT text$x
text$x	SEGMENT
__unwindfunclet$?New@CInstanceBase@@SAPAV1@XZ$0:
  00000	68 88 1d 00 00	 push	 7560			; 00001d88H
  00005	8b 45 f0	 mov	 eax, DWORD PTR $T2[ebp]
  00008	50		 push	 eax
  00009	e8 00 00 00 00	 call	 ??3@YAXPAXI@Z		; operator delete
  0000e	83 c4 08	 add	 esp, 8
  00011	c3		 ret	 0
  00012	cc		 int	 3
  00013	cc		 int	 3
  00014	cc		 int	 3
  00015	cc		 int	 3
  00016	cc		 int	 3
__ehhandler$?New@CInstanceBase@@SAPAV1@XZ:
  00017	90		 npad	 1
  00018	90		 npad	 1
  00019	8b 54 24 08	 mov	 edx, DWORD PTR [esp+8]
  0001d	8d 42 0c	 lea	 eax, DWORD PTR [edx+12]
  00020	8b 4a f4	 mov	 ecx, DWORD PTR [edx-12]
  00023	33 c8		 xor	 ecx, eax
  00025	e8 00 00 00 00	 call	 @__security_check_cookie@4
  0002a	b8 00 00 00 00	 mov	 eax, OFFSET __ehfuncinfo$?New@CInstanceBase@@SAPAV1@XZ
  0002f	e9 00 00 00 00	 jmp	 ___CxxFrameHandler3
text$x	ENDS
?New@CInstanceBase@@SAPAV1@XZ ENDP			; CInstanceBase::New
; Function compile flags: /Ogtp
; File C:\Anka2Project\Anka2Project\Source\Binary\source\UserInterface\InstanceBase.cpp
; File C:\Anka2Project\Anka2Project\Source\Binary\source\UserInterface\AbstractSingleton.h
; File C:\Anka2Project\Anka2Project\Source\Binary\source\UserInterface\InstanceBase.cpp
;	COMDAT ?__GetBowRange@CInstanceBase@@IAEMXZ
_TEXT	SEGMENT
?__GetBowRange@CInstanceBase@@IAEMXZ PROC		; CInstanceBase::__GetBowRange, COMDAT
; _this$ = ecx

; 709  : 	float fRange = 2500.0f - 100.0f;
; 710  : 
; 711  : 	if (__IsMainInstance())

  00000	e8 00 00 00 00	 call	 ?__IsMainInstance@CInstanceBase@@IAE_NXZ ; CInstanceBase::__IsMainInstance
  00005	84 c0		 test	 al, al
  00007	74 3d		 je	 SHORT $LN7@GetBowRang
; File C:\Anka2Project\Anka2Project\Source\Binary\source\UserInterface\AbstractSingleton.h

; 24   : 		assert(ms_singleton!=nullptr);

  00009	8b 0d 00 00 00
	00		 mov	 ecx, DWORD PTR ?ms_singleton@?$TAbstractSingleton@VIAbstractPlayer@@@@0PAVIAbstractPlayer@@A ; TAbstractSingleton<IAbstractPlayer>::ms_singleton
  0000f	85 c9		 test	 ecx, ecx
  00011	75 1a		 jne	 SHORT $LN6@GetBowRang
  00013	6a 18		 push	 24			; 00000018H
  00015	68 00 00 00 00	 push	 OFFSET ??_C@_1KI@FIPHLMOB@?$AAC?$AA?3?$AA?2?$AAA?$AAn?$AAk?$AAa?$AA2?$AAP?$AAr?$AAo?$AAj?$AAe?$AAc?$AAt@
  0001a	68 00 00 00 00	 push	 OFFSET ??_C@_1CM@FPMBEAEA@?$AAm?$AAs?$AA_?$AAs?$AAi?$AAn?$AAg?$AAl?$AAe?$AAt?$AAo?$AAn?$AA?$CB?$AA?$DN?$AAn@
  0001f	e8 00 00 00 00	 call	 __wassert
  00024	8b 0d 00 00 00
	00		 mov	 ecx, DWORD PTR ?ms_singleton@?$TAbstractSingleton@VIAbstractPlayer@@@@0PAVIAbstractPlayer@@A ; TAbstractSingleton<IAbstractPlayer>::ms_singleton
  0002a	83 c4 0c	 add	 esp, 12			; 0000000cH
$LN6@GetBowRang:
; File C:\Anka2Project\Anka2Project\Source\Binary\source\UserInterface\InstanceBase.cpp

; 714  : 		fRange += float(rPlayer.GetStatus(POINT_BOW_DISTANCE));

  0002d	8b 01		 mov	 eax, DWORD PTR [ecx]
  0002f	6a 22		 push	 34			; 00000022H
  00031	8b 40 10	 mov	 eax, DWORD PTR [eax+16]
  00034	ff d0		 call	 eax
  00036	8b c8		 mov	 ecx, eax
  00038	e8 00 00 00 00	 call	 __ltof3
  0003d	f3 0f 58 05 00
	00 00 00	 addss	 xmm0, DWORD PTR __real@45160000

; 718  : }

  00045	c3		 ret	 0
$LN7@GetBowRang:

; 715  : 	}
; 716  : 
; 717  : 	return fRange;

  00046	f3 0f 10 05 00
	00 00 00	 movss	 xmm0, DWORD PTR __real@45160000

; 718  : }

  0004e	c3		 ret	 0
?__GetBowRange@CInstanceBase@@IAEMXZ ENDP		; CInstanceBase::__GetBowRange
_TEXT	ENDS
; Function compile flags: /Ogtp
; File C:\Anka2Project\Anka2Project\Source\Binary\source\UserInterface\InstanceBase.cpp
; File C:\Anka2Project\Anka2Project\Source\Binary\source\UserInterface\AbstractSingleton.h
; File C:\Anka2Project\Anka2Project\Source\Binary\source\UserInterface\InstanceBase.cpp
; File C:\Anka2Project\Anka2Project\Source\Binary\source\UserInterface\AbstractSingleton.h
; File C:\Anka2Project\Anka2Project\Source\Binary\source\UserInterface\InstanceBase.cpp
; File C:\Anka2Project\Anka2Project\Source\Binary\source\eterBase\Singleton.h
; File C:\Anka2Project\Anka2Project\Source\Binary\source\UserInterface\InstanceBase.cpp
; File C:\Anka2Project\Anka2Project\Source\Binary\extern\include\d3dx8math.inl
; File C:\Anka2Project\Anka2Project\Source\Binary\source\UserInterface\InstanceBase.cpp
; File C:\Anka2Project\Anka2Project\Source\Binary\source\eterBase\Singleton.h
; File C:\Anka2Project\Anka2Project\Source\Binary\source\UserInterface\InstanceBase.cpp
; File C:\Anka2Project\Anka2Project\Source\Binary\source\UserInterface\InstanceBase.h
; File C:\Anka2Project\Anka2Project\Source\Binary\source\UserInterface\InstanceBase.cpp
; File C:\Anka2Project\Anka2Project\Source\Binary\source\eterBase\Singleton.h
; File C:\Anka2Project\Anka2Project\Source\Binary\source\UserInterface\InstanceBase.cpp
; File C:\Anka2Project\Anka2Project\Source\Binary\source\eterBase\Singleton.h
; File C:\Anka2Project\Anka2Project\Source\Binary\source\UserInterface\InstanceBase.cpp
; File C:\Anka2Project\Anka2Project\Source\Binary\source\eterBase\Singleton.h
; File C:\Anka2Project\Anka2Project\Source\Binary\source\UserInterface\InstanceBase.cpp
; File C:\Anka2Project\Anka2Project\Source\Binary\source\eterBase\Singleton.h
; File C:\Anka2Project\Anka2Project\Source\Binary\source\UserInterface\InstanceBase.cpp
; File C:\Anka2Project\Anka2Project\Source\Binary\source\eterBase\Singleton.h
; File C:\Anka2Project\Anka2Project\Source\Binary\source\UserInterface\InstanceBase.cpp
; File C:\Anka2Project\Anka2Project\Source\Binary\extern\include\d3dx8math.inl
; File C:\Anka2Project\Anka2Project\Source\Binary\source\UserInterface\InstanceBase.cpp
; File C:\Anka2Project\Anka2Project\Source\Binary\extern\include\d3dx8math.inl
; File C:\Anka2Project\Anka2Project\Source\Binary\source\UserInterface\InstanceBase.cpp
; File C:\Anka2Project\Anka2Project\Source\Binary\extern\include\d3dx8math.inl
; File C:\Anka2Project\Anka2Project\Source\Binary\source\UserInterface\InstanceBase.cpp
; File C:\Anka2Project\Anka2Project\Source\Binary\extern\include\d3dx8math.inl
; File C:\Anka2Project\Anka2Project\Source\Binary\source\UserInterface\InstanceBase.cpp
; File C:\Program Files\Microsoft Visual Studio\2022\Community\VC\Tools\MSVC\14.44.35207\include\xstring
; File C:\Program Files\Microsoft Visual Studio\2022\Community\VC\Tools\MSVC\14.44.35207\include\__msvc_string_view.hpp
; File C:\Program Files\Microsoft Visual Studio\2022\Community\VC\Tools\MSVC\14.44.35207\include\xstring
; File C:\Program Files\Microsoft Visual Studio\2022\Community\VC\Tools\MSVC\14.44.35207\include\__msvc_string_view.hpp
; File C:\Program Files\Microsoft Visual Studio\2022\Community\VC\Tools\MSVC\14.44.35207\include\xstring
; File C:\Anka2Project\Anka2Project\Source\Binary\source\UserInterface\InstanceBase.cpp
; File C:\Program Files\Microsoft Visual Studio\2022\Community\VC\Tools\MSVC\14.44.35207\include\xstring
; File C:\Anka2Project\Anka2Project\Source\Binary\source\UserInterface\InstanceBase.cpp
; File C:\Program Files\Microsoft Visual Studio\2022\Community\VC\Tools\MSVC\14.44.35207\include\xstring
; File C:\Anka2Project\Anka2Project\Source\Binary\source\UserInterface\InstanceBase.cpp
; File C:\Program Files\Microsoft Visual Studio\2022\Community\VC\Tools\MSVC\14.44.35207\include\xstring
; File C:\Anka2Project\Anka2Project\Source\Binary\source\UserInterface\InstanceBase.cpp
; File C:\Program Files\Microsoft Visual Studio\2022\Community\VC\Tools\MSVC\14.44.35207\include\xstring
; File C:\Program Files\Microsoft Visual Studio\2022\Community\VC\Tools\MSVC\14.44.35207\include\xmemory
; File C:\Program Files\Microsoft Visual Studio\2022\Community\VC\Tools\MSVC\14.44.35207\include\xstring
; File C:\Program Files\Microsoft Visual Studio\2022\Community\VC\Tools\MSVC\14.44.35207\include\xmemory
; File C:\Program Files\Microsoft Visual Studio\2022\Community\VC\Tools\MSVC\14.44.35207\include\xstring
; File C:\Anka2Project\Anka2Project\Source\Binary\source\UserInterface\InstanceBase.cpp
; File C:\Program Files\Microsoft Visual Studio\2022\Community\VC\Tools\MSVC\14.44.35207\include\xmemory
; File C:\Anka2Project\Anka2Project\Source\Binary\source\UserInterface\InstanceBase.cpp
;	COMDAT ?Create@CInstanceBase@@QAE_NABUSCreateData@1@@Z
_TEXT	SEGMENT
_center_x$23 = -80					; size = 4
_fx$ = -76						; size = 4
_npcRaceIndex$1$ = -76					; size = 4
$T24 = -72						; size = 1
_c_rkCreateData$GSCopy$1$ = -72				; size = 4
_fy$ = -68						; size = 4
tv857 = -68						; size = 4
_dwRank$1$ = -68					; size = 4
_dwBodyColor$1$ = -68					; size = 4
_this$GSCopy$1$ = -68					; size = 4
_center_y$25 = -64					; size = 4
_fz$ = -64						; size = 4
_nonPlayer$1$ = -64					; size = 4
$T10 = -60						; size = 16
$T3 = -56						; size = 12
_strFileName$26 = -44					; size = 24
__$ArrayPad$ = -20					; size = 4
__$EHRec$ = -12						; size = 12
_c_rkCreateData$ = 8					; size = 4
?Create@CInstanceBase@@QAE_NABUSCreateData@1@@Z PROC	; CInstanceBase::Create, COMDAT
; _this$ = ecx

; 733  : {

  00000	53		 push	 ebx
  00001	8b dc		 mov	 ebx, esp
  00003	83 ec 08	 sub	 esp, 8
  00006	83 e4 f8	 and	 esp, -8			; fffffff8H
  00009	83 c4 04	 add	 esp, 4
  0000c	55		 push	 ebp
  0000d	8b 6b 04	 mov	 ebp, DWORD PTR [ebx+4]
  00010	89 6c 24 04	 mov	 DWORD PTR [esp+4], ebp
  00014	8b ec		 mov	 ebp, esp
  00016	6a ff		 push	 -1
  00018	68 00 00 00 00	 push	 __ehhandler$?Create@CInstanceBase@@QAE_NABUSCreateData@1@@Z
  0001d	64 a1 00 00 00
	00		 mov	 eax, DWORD PTR fs:0
  00023	50		 push	 eax
  00024	53		 push	 ebx
  00025	83 ec 40	 sub	 esp, 64			; 00000040H
  00028	a1 00 00 00 00	 mov	 eax, DWORD PTR ___security_cookie
  0002d	33 c5		 xor	 eax, ebp
  0002f	89 45 ec	 mov	 DWORD PTR __$ArrayPad$[ebp], eax
  00032	56		 push	 esi
  00033	57		 push	 edi
  00034	50		 push	 eax
  00035	8d 45 f4	 lea	 eax, DWORD PTR __$EHRec$[ebp]
  00038	64 a3 00 00 00
	00		 mov	 DWORD PTR fs:0, eax
  0003e	8b f9		 mov	 edi, ecx
  00040	89 7d bc	 mov	 DWORD PTR _this$GSCopy$1$[ebp], edi
; File C:\Anka2Project\Anka2Project\Source\Binary\source\UserInterface\AbstractSingleton.h

; 24   : 		assert(ms_singleton!=nullptr);

  00043	8b 0d 00 00 00
	00		 mov	 ecx, DWORD PTR ?ms_singleton@?$TAbstractSingleton@VIAbstractApplication@@@@0PAVIAbstractApplication@@A ; TAbstractSingleton<IAbstractApplication>::ms_singleton
; File C:\Anka2Project\Anka2Project\Source\Binary\source\UserInterface\InstanceBase.cpp

; 733  : {

  00049	8b 73 08	 mov	 esi, DWORD PTR _c_rkCreateData$[ebx]
  0004c	89 75 b8	 mov	 DWORD PTR _c_rkCreateData$GSCopy$1$[ebp], esi
; File C:\Anka2Project\Anka2Project\Source\Binary\source\UserInterface\AbstractSingleton.h

; 24   : 		assert(ms_singleton!=nullptr);

  0004f	85 c9		 test	 ecx, ecx
  00051	75 1a		 jne	 SHORT $LN34@Create
  00053	6a 18		 push	 24			; 00000018H
  00055	68 00 00 00 00	 push	 OFFSET ??_C@_1KI@FIPHLMOB@?$AAC?$AA?3?$AA?2?$AAA?$AAn?$AAk?$AAa?$AA2?$AAP?$AAr?$AAo?$AAj?$AAe?$AAc?$AAt@
  0005a	68 00 00 00 00	 push	 OFFSET ??_C@_1CM@FPMBEAEA@?$AAm?$AAs?$AA_?$AAs?$AAi?$AAn?$AAg?$AAl?$AAe?$AAt?$AAo?$AAn?$AA?$CB?$AA?$DN?$AAn@
  0005f	e8 00 00 00 00	 call	 __wassert
  00064	8b 0d 00 00 00
	00		 mov	 ecx, DWORD PTR ?ms_singleton@?$TAbstractSingleton@VIAbstractApplication@@@@0PAVIAbstractApplication@@A ; TAbstractSingleton<IAbstractApplication>::ms_singleton
  0006a	83 c4 0c	 add	 esp, 12			; 0000000cH
$LN34@Create:
; File C:\Anka2Project\Anka2Project\Source\Binary\source\UserInterface\InstanceBase.cpp

; 734  : 	IAbstractApplication::GetSingleton().SkipRenderBuffering(300);

  0006d	8b 01		 mov	 eax, DWORD PTR [ecx]
  0006f	68 2c 01 00 00	 push	 300			; 0000012cH
  00074	ff 50 10	 call	 DWORD PTR [eax+16]

; 735  : 
; 736  : 	SetInstanceType(c_rkCreateData.m_bType);

  00077	0f b6 06	 movzx	 eax, BYTE PTR [esi]
  0007a	8b cf		 mov	 ecx, edi
  0007c	50		 push	 eax
  0007d	e8 00 00 00 00	 call	 ?SetInstanceType@CInstanceBase@@QAEXH@Z ; CInstanceBase::SetInstanceType
; File C:\Anka2Project\Anka2Project\Source\Binary\source\eterBase\Singleton.h

; 26   : 		assert(ms_singleton);

  00082	8b 0d 00 00 00
	00		 mov	 ecx, DWORD PTR ?ms_singleton@?$CSingleton@VCPythonNonPlayer@@@@0PAVCPythonNonPlayer@@A ; CSingleton<CPythonNonPlayer>::ms_singleton
  00088	85 c9		 test	 ecx, ecx
  0008a	75 1a		 jne	 SHORT $LN37@Create
  0008c	6a 1a		 push	 26			; 0000001aH
  0008e	68 00 00 00 00	 push	 OFFSET ??_C@_1IO@CAJLEEOI@?$AAC?$AA?3?$AA?2?$AAA?$AAn?$AAk?$AAa?$AA2?$AAP?$AAr?$AAo?$AAj?$AAe?$AAc?$AAt@
  00093	68 00 00 00 00	 push	 OFFSET ??_C@_1BK@FMEHPMFE@?$AAm?$AAs?$AA_?$AAs?$AAi?$AAn?$AAg?$AAl?$AAe?$AAt?$AAo?$AAn@
  00098	e8 00 00 00 00	 call	 __wassert
  0009d	8b 0d 00 00 00
	00		 mov	 ecx, DWORD PTR ?ms_singleton@?$CSingleton@VCPythonNonPlayer@@@@0PAVCPythonNonPlayer@@A ; CSingleton<CPythonNonPlayer>::ms_singleton
  000a3	83 c4 0c	 add	 esp, 12			; 0000000cH
$LN37@Create:
; File C:\Anka2Project\Anka2Project\Source\Binary\source\UserInterface\InstanceBase.cpp

; 739  : 	const auto npcRaceIndex = CPythonNonPlayer::Instance().GetNPCWear(c_rkCreateData.m_dwRace, NPC_WEAR_RACE);

  000a6	6a 00		 push	 0
  000a8	ff 76 1c	 push	 DWORD PTR [esi+28]
  000ab	e8 00 00 00 00	 call	 ?GetNPCWear@CPythonNonPlayer@@QAEHHE@Z ; CPythonNonPlayer::GetNPCWear
  000b0	89 45 b4	 mov	 DWORD PTR _npcRaceIndex$1$[ebp], eax

; 740  : 	if (npcRaceIndex != -1)

  000b3	8b cf		 mov	 ecx, edi
  000b5	83 f8 ff	 cmp	 eax, -1
  000b8	0f 84 b1 00 00
	00		 je	 $LN2@Create

; 741  : 	{
; 742  : 		if (!SetRace(npcRaceIndex))

  000be	50		 push	 eax
  000bf	e8 00 00 00 00	 call	 ?SetRace@CInstanceBase@@QAE_NK@Z ; CInstanceBase::SetRace
  000c4	84 c0		 test	 al, al
  000c6	0f 84 b3 00 00
	00		 je	 $LN133@Create
$LN5@Create:

; 749  : 	}
; 750  : #else
; 751  : 	if (!SetRace(c_rkCreateData.m_dwRace))
; 752  : 		return false;
; 753  : #endif
; 754  : 
; 755  : 	SetVirtualID(c_rkCreateData.m_dwVID);

  000cc	ff 76 18	 push	 DWORD PTR [esi+24]
  000cf	8b cf		 mov	 ecx, edi
  000d1	e8 00 00 00 00	 call	 ?SetVirtualID@CInstanceBase@@QAEXK@Z ; CInstanceBase::SetVirtualID

; 756  : 
; 757  : 	if (c_rkCreateData.m_isMain)

  000d6	80 be 69 01 00
	00 00		 cmp	 BYTE PTR [esi+361], 0
  000dd	74 07		 je	 SHORT $LN6@Create

; 758  : 		SetMainInstance();

  000df	8b cf		 mov	 ecx, edi
  000e1	e8 00 00 00 00	 call	 ?SetMainInstance@CInstanceBase@@QAEXXZ ; CInstanceBase::SetMainInstance
$LN6@Create:

; 759  : 
; 760  : 	if (IsGuildWall())

  000e6	8b cf		 mov	 ecx, edi
  000e8	e8 00 00 00 00	 call	 ?IsGuildWall@CInstanceBase@@QAEHXZ ; CInstanceBase::IsGuildWall
  000ed	85 c0		 test	 eax, eax
  000ef	0f 84 91 00 00
	00		 je	 $LN7@Create

; 761  : 	{
; 762  : 		unsigned center_x;
; 763  : 		unsigned center_y;
; 764  : 
; 765  : 		c_rkCreateData.m_kAffectFlags.ConvertToPosition(&center_x, &center_y);

  000f5	8d 45 c0	 lea	 eax, DWORD PTR _center_y$25[ebp]
  000f8	50		 push	 eax
  000f9	8d 45 b0	 lea	 eax, DWORD PTR _center_x$23[ebp]
  000fc	8d 8e 43 01 00
	00		 lea	 ecx, DWORD PTR [esi+323]
  00102	50		 push	 eax
  00103	e8 00 00 00 00	 call	 ?ConvertToPosition@CAffectFlagContainer@@QBEXPAI0@Z ; CAffectFlagContainer::ConvertToPosition

; 766  : 		
; 767  : 		float center_z = __GetBackgroundHeight(center_x, center_y);

  00108	8b 45 c0	 mov	 eax, DWORD PTR _center_y$25[ebp]
  0010b	66 0f 6e c0	 movd	 xmm0, eax
  0010f	f3 0f e6 c0	 cvtdq2pd xmm0, xmm0
  00113	c1 e8 1f	 shr	 eax, 31			; 0000001fH
  00116	f2 0f 58 04 c5
	00 00 00 00	 addsd	 xmm0, QWORD PTR __xmm@41f00000000000000000000000000000[eax*8]
  0011f	8b 45 b0	 mov	 eax, DWORD PTR _center_x$23[ebp]
  00122	66 0f 5a c8	 cvtpd2ps xmm1, xmm0
  00126	66 0f 6e c0	 movd	 xmm0, eax
  0012a	f3 0f e6 c0	 cvtdq2pd xmm0, xmm0
  0012e	c1 e8 1f	 shr	 eax, 31			; 0000001fH
  00131	f2 0f 58 04 c5
	00 00 00 00	 addsd	 xmm0, QWORD PTR __xmm@41f00000000000000000000000000000[eax*8]
  0013a	66 0f 5a c0	 cvtpd2ps xmm0, xmm0
  0013e	e8 00 00 00 00	 call	 ?__GetBackgroundHeight@CInstanceBase@@KAMMM@Z ; CInstanceBase::__GetBackgroundHeight
  00143	66 0f 6e 56 28	 movd	 xmm2, DWORD PTR [esi+40]

; 768  : 		NEW_SetPixelPosition(TPixelPosition(float(c_rkCreateData.m_lPosX), float(c_rkCreateData.m_lPosY), center_z));

  00148	8d 45 c8	 lea	 eax, DWORD PTR $T3[ebp]
  0014b	66 0f 6e 4e 2c	 movd	 xmm1, DWORD PTR [esi+44]
  00150	8b cf		 mov	 ecx, edi
  00152	0f 5b d2	 cvtdq2ps xmm2, xmm2
  00155	50		 push	 eax
  00156	0f 5b c9	 cvtdq2ps xmm1, xmm1
; File C:\Anka2Project\Anka2Project\Source\Binary\extern\include\d3dx8math.inl

; 180  :     x = fx;

  00159	f3 0f 11 55 c8	 movss	 DWORD PTR $T3[ebp], xmm2

; 181  :     y = fy;

  0015e	f3 0f 11 4d cc	 movss	 DWORD PTR $T3[ebp+4], xmm1

; 182  :     z = fz;

  00163	f3 0f 11 45 d0	 movss	 DWORD PTR $T3[ebp+8], xmm0
; File C:\Anka2Project\Anka2Project\Source\Binary\source\UserInterface\InstanceBase.cpp

; 768  : 		NEW_SetPixelPosition(TPixelPosition(float(c_rkCreateData.m_lPosX), float(c_rkCreateData.m_lPosY), center_z));

  00168	e8 00 00 00 00	 call	 ?NEW_SetPixelPosition@CInstanceBase@@QAEXABUD3DXVECTOR3@@@Z ; CInstanceBase::NEW_SetPixelPosition

; 769  : 	}

  0016d	eb 2e		 jmp	 SHORT $LN8@Create
$LN2@Create:

; 743  : 			return false;
; 744  : 	}
; 745  : 	else
; 746  : 	{
; 747  : 		if (!SetRace(c_rkCreateData.m_dwRace))

  0016f	ff 76 1c	 push	 DWORD PTR [esi+28]
  00172	e8 00 00 00 00	 call	 ?SetRace@CInstanceBase@@QAE_NK@Z ; CInstanceBase::SetRace
  00177	84 c0		 test	 al, al
  00179	0f 85 4d ff ff
	ff		 jne	 $LN5@Create
$LN133@Create:

; 748  : 			return false;

  0017f	32 c0		 xor	 al, al
  00181	e9 81 05 00 00	 jmp	 $LN1@Create
$LN7@Create:
  00186	66 0f 6e 56 2c	 movd	 xmm2, DWORD PTR [esi+44]

; 770  : 	else
; 771  : 	{
; 772  : 		SCRIPT_SetPixelPosition(float(c_rkCreateData.m_lPosX), float(c_rkCreateData.m_lPosY));

  0018b	8b cf		 mov	 ecx, edi
  0018d	66 0f 6e 4e 28	 movd	 xmm1, DWORD PTR [esi+40]
  00192	0f 5b d2	 cvtdq2ps xmm2, xmm2
  00195	0f 5b c9	 cvtdq2ps xmm1, xmm1
  00198	e8 00 00 00 00	 call	 ?SCRIPT_SetPixelPosition@CInstanceBase@@QAEXMM@Z ; CInstanceBase::SCRIPT_SetPixelPosition
$LN8@Create:

; 773  : 	}
; 774  : 
; 775  : #ifdef ENABLE_NPC_WEAR_ITEM
; 776  : 	if (npcRaceIndex != -1)

  0019d	83 7d b4 ff	 cmp	 DWORD PTR _npcRaceIndex$1$[ebp], -1
  001a1	0f 84 ab 00 00
	00		 je	 $LN9@Create
; File C:\Anka2Project\Anka2Project\Source\Binary\source\eterBase\Singleton.h

; 26   : 		assert(ms_singleton);

  001a7	a1 00 00 00 00	 mov	 eax, DWORD PTR ?ms_singleton@?$CSingleton@VCPythonNonPlayer@@@@0PAVCPythonNonPlayer@@A ; CSingleton<CPythonNonPlayer>::ms_singleton
  001ac	89 45 c0	 mov	 DWORD PTR _nonPlayer$1$[ebp], eax
  001af	85 c0		 test	 eax, eax
  001b1	75 1c		 jne	 SHORT $LN51@Create
  001b3	6a 1a		 push	 26			; 0000001aH
  001b5	68 00 00 00 00	 push	 OFFSET ??_C@_1IO@CAJLEEOI@?$AAC?$AA?3?$AA?2?$AAA?$AAn?$AAk?$AAa?$AA2?$AAP?$AAr?$AAo?$AAj?$AAe?$AAc?$AAt@
  001ba	68 00 00 00 00	 push	 OFFSET ??_C@_1BK@FMEHPMFE@?$AAm?$AAs?$AA_?$AAs?$AAi?$AAn?$AAg?$AAl?$AAe?$AAt?$AAo?$AAn@
  001bf	e8 00 00 00 00	 call	 __wassert
  001c4	a1 00 00 00 00	 mov	 eax, DWORD PTR ?ms_singleton@?$CSingleton@VCPythonNonPlayer@@@@0PAVCPythonNonPlayer@@A ; CSingleton<CPythonNonPlayer>::ms_singleton
  001c9	83 c4 0c	 add	 esp, 12			; 0000000cH
  001cc	89 45 c0	 mov	 DWORD PTR _nonPlayer$1$[ebp], eax
$LN51@Create:
; File C:\Anka2Project\Anka2Project\Source\Binary\source\UserInterface\InstanceBase.cpp

; 780  : 		const auto mount = nonPlayer.GetNPCWear(c_rkCreateData.m_dwRace, NPC_WEAR_MOUNT);

  001cf	6a 06		 push	 6
  001d1	ff 76 1c	 push	 DWORD PTR [esi+28]
  001d4	8b c8		 mov	 ecx, eax
  001d6	e8 00 00 00 00	 call	 ?GetNPCWear@CPythonNonPlayer@@QAEHHE@Z ; CPythonNonPlayer::GetNPCWear

; 781  : 		if (mount != 0)

  001db	85 c0		 test	 eax, eax
  001dd	74 08		 je	 SHORT $LN11@Create

; 782  : 			MountHorse(mount);

  001df	50		 push	 eax
  001e0	8b cf		 mov	 ecx, edi
  001e2	e8 00 00 00 00	 call	 ?MountHorse@CInstanceBase@@QAEXI@Z ; CInstanceBase::MountHorse
$LN11@Create:

; 783  : 
; 784  : 		SetArmor(nonPlayer.GetNPCWear(c_rkCreateData.m_dwRace, NPC_WEAR_ARMOR));

  001e7	8b 4d c0	 mov	 ecx, DWORD PTR _nonPlayer$1$[ebp]
  001ea	6a 02		 push	 2
  001ec	ff 76 1c	 push	 DWORD PTR [esi+28]
  001ef	e8 00 00 00 00	 call	 ?GetNPCWear@CPythonNonPlayer@@QAEHHE@Z ; CPythonNonPlayer::GetNPCWear
  001f4	50		 push	 eax
  001f5	8b cf		 mov	 ecx, edi
  001f7	e8 00 00 00 00	 call	 ?SetArmor@CInstanceBase@@QAEXK@Z ; CInstanceBase::SetArmor

; 785  : 		SetWeapon(nonPlayer.GetNPCWear(c_rkCreateData.m_dwRace, NPC_WEAR_WEAPON));

  001fc	8b 4d c0	 mov	 ecx, DWORD PTR _nonPlayer$1$[ebp]
  001ff	6a 01		 push	 1
  00201	ff 76 1c	 push	 DWORD PTR [esi+28]
  00204	e8 00 00 00 00	 call	 ?GetNPCWear@CPythonNonPlayer@@QAEHHE@Z ; CPythonNonPlayer::GetNPCWear
  00209	50		 push	 eax
  0020a	8b cf		 mov	 ecx, edi
  0020c	e8 00 00 00 00	 call	 ?SetWeapon@CInstanceBase@@QAE_NK@Z ; CInstanceBase::SetWeapon

; 786  : 		SetHair(nonPlayer.GetNPCWear(c_rkCreateData.m_dwRace, NPC_WEAR_HAIR));

  00211	8b 4d c0	 mov	 ecx, DWORD PTR _nonPlayer$1$[ebp]
  00214	6a 03		 push	 3
  00216	ff 76 1c	 push	 DWORD PTR [esi+28]
  00219	e8 00 00 00 00	 call	 ?GetNPCWear@CPythonNonPlayer@@QAEHHE@Z ; CPythonNonPlayer::GetNPCWear
  0021e	50		 push	 eax
  0021f	8b cf		 mov	 ecx, edi
  00221	e8 00 00 00 00	 call	 ?SetHair@CInstanceBase@@QAEXK@Z ; CInstanceBase::SetHair

; 787  : #ifdef ENABLE_ACCE_COSTUME_SYSTEM
; 788  : 		SetAcce(nonPlayer.GetNPCWear(c_rkCreateData.m_dwRace, NPC_WEAR_ACCE));

  00226	8b 4d c0	 mov	 ecx, DWORD PTR _nonPlayer$1$[ebp]
  00229	6a 04		 push	 4
  0022b	ff 76 1c	 push	 DWORD PTR [esi+28]
  0022e	e8 00 00 00 00	 call	 ?GetNPCWear@CPythonNonPlayer@@QAEHHE@Z ; CPythonNonPlayer::GetNPCWear
  00233	50		 push	 eax
  00234	8b cf		 mov	 ecx, edi
  00236	e8 00 00 00 00	 call	 ?SetAcce@CInstanceBase@@QAE_NK@Z ; CInstanceBase::SetAcce

; 789  : #endif
; 790  : #ifdef ENABLE_AURA_COSTUME_SYSTEM
; 791  : 		SetAura(nonPlayer.GetNPCWear(c_rkCreateData.m_dwRace, NPC_WEAR_AURA));

  0023b	8b 4d c0	 mov	 ecx, DWORD PTR _nonPlayer$1$[ebp]
  0023e	6a 05		 push	 5
  00240	ff 76 1c	 push	 DWORD PTR [esi+28]
  00243	e8 00 00 00 00	 call	 ?GetNPCWear@CPythonNonPlayer@@QAEHHE@Z ; CPythonNonPlayer::GetNPCWear
  00248	50		 push	 eax
  00249	8b cf		 mov	 ecx, edi
  0024b	e8 00 00 00 00	 call	 ?SetAura@CInstanceBase@@QAE_NK@Z ; CInstanceBase::SetAura

; 792  : #endif
; 793  : 	}

  00250	eb 19		 jmp	 SHORT $LN10@Create
$LN9@Create:

; 794  : 	else
; 795  : 	{
; 796  : 		if (0 != c_rkCreateData.m_dwMountVnum)

  00252	8b 46 48	 mov	 eax, DWORD PTR [esi+72]
  00255	85 c0		 test	 eax, eax
  00257	74 08		 je	 SHORT $LN12@Create

; 797  : 			MountHorse(c_rkCreateData.m_dwMountVnum);

  00259	50		 push	 eax
  0025a	8b cf		 mov	 ecx, edi
  0025c	e8 00 00 00 00	 call	 ?MountHorse@CInstanceBase@@QAEXI@Z ; CInstanceBase::MountHorse
$LN12@Create:

; 798  : 		SetArmor(c_rkCreateData.m_dwArmor);

  00261	ff 76 34	 push	 DWORD PTR [esi+52]
  00264	8b cf		 mov	 ecx, edi
  00266	e8 00 00 00 00	 call	 ?SetArmor@CInstanceBase@@QAEXK@Z ; CInstanceBase::SetArmor
$LN10@Create:

; 799  : 	}
; 800  : #else
; 801  : 	if (0 != c_rkCreateData.m_dwMountVnum)
; 802  : 		MountHorse(c_rkCreateData.m_dwMountVnum);
; 803  : 
; 804  : 	SetArmor(c_rkCreateData.m_dwArmor);
; 805  : #endif
; 806  : 
; 807  : 	if (IsPC())

  0026b	8b cf		 mov	 ecx, edi
  0026d	e8 00 00 00 00	 call	 ?IsPC@CInstanceBase@@QAEHXZ ; CInstanceBase::IsPC
  00272	85 c0		 test	 eax, eax
  00274	74 4f		 je	 SHORT $LN131@Create

; 808  : 	{
; 809  : 		SetHair(c_rkCreateData.m_dwHair);

  00276	ff 76 3c	 push	 DWORD PTR [esi+60]
  00279	8b cf		 mov	 ecx, edi
  0027b	e8 00 00 00 00	 call	 ?SetHair@CInstanceBase@@QAEXK@Z ; CInstanceBase::SetHair

; 810  : 		SetWeapon(c_rkCreateData.m_dwWeapon);

  00280	ff 76 38	 push	 DWORD PTR [esi+56]
  00283	8b cf		 mov	 ecx, edi
  00285	e8 00 00 00 00	 call	 ?SetWeapon@CInstanceBase@@QAE_NK@Z ; CInstanceBase::SetWeapon

; 811  : #ifdef ENABLE_ACCE_COSTUME_SYSTEM
; 812  : 		SetAcce(c_rkCreateData.m_dwAcce);

  0028a	ff 76 40	 push	 DWORD PTR [esi+64]
  0028d	8b cf		 mov	 ecx, edi
  0028f	e8 00 00 00 00	 call	 ?SetAcce@CInstanceBase@@QAE_NK@Z ; CInstanceBase::SetAcce

; 813  : #endif
; 814  : #ifdef ENABLE_AURA_COSTUME_SYSTEM
; 815  : 		SetAura(c_rkCreateData.m_dwAura);

  00294	ff 76 44	 push	 DWORD PTR [esi+68]
  00297	8b cf		 mov	 ecx, edi
  00299	e8 00 00 00 00	 call	 ?SetAura@CInstanceBase@@QAE_NK@Z ; CInstanceBase::SetAura

; 816  : #endif
; 817  : #ifdef ENABLE_MULTI_LANGUAGE_SYSTEM
; 818  : 		SetLanguage(c_rkCreateData.m_bLanguage);

  0029e	8a 46 4d	 mov	 al, BYTE PTR [esi+77]

; 820  : #endif
; 821  : #ifdef ENABLE_SKILL_COLOR_SYSTEM
; 822  : 		ChangeSkillColor(*c_rkCreateData.m_dwSkillColor);

  002a1	8b cf		 mov	 ecx, edi
; File C:\Anka2Project\Anka2Project\Source\Binary\source\UserInterface\InstanceBase.h

; 712  : 		void SetLanguage(BYTE bLang) { m_bLanguage = bLang; }

  002a3	88 47 61	 mov	 BYTE PTR [edi+97], al
; File C:\Anka2Project\Anka2Project\Source\Binary\source\UserInterface\InstanceBase.cpp

; 819  : 		SetLanguage2(c_rkCreateData.m_bLanguage2);

  002a6	8a 46 4e	 mov	 al, BYTE PTR [esi+78]

; 820  : #endif
; 821  : #ifdef ENABLE_SKILL_COLOR_SYSTEM
; 822  : 		ChangeSkillColor(*c_rkCreateData.m_dwSkillColor);

  002a9	83 c6 50	 add	 esi, 80			; 00000050H
  002ac	56		 push	 esi
  002ad	88 47 62	 mov	 BYTE PTR [edi+98], al
  002b0	e8 00 00 00 00	 call	 ?ChangeSkillColor@CInstanceBase@@QAEXPBK@Z ; CInstanceBase::ChangeSkillColor

; 823  : 		memcpy(m_dwSkillColor, *c_rkCreateData.m_dwSkillColor, sizeof(m_dwSkillColor));

  002b5	83 c7 64	 add	 edi, 100		; 00000064H
  002b8	b9 3c 00 00 00	 mov	 ecx, 60			; 0000003cH
  002bd	f3 a5		 rep movsd
  002bf	8b 7d bc	 mov	 edi, DWORD PTR _this$GSCopy$1$[ebp]
  002c2	8b 75 b8	 mov	 esi, DWORD PTR _c_rkCreateData$GSCopy$1$[ebp]
$LN131@Create:

; 824  : #endif
; 825  : 	}
; 826  : 
; 827  : 	__Create_SetName(c_rkCreateData);

  002c5	56		 push	 esi
  002c6	8b cf		 mov	 ecx, edi
  002c8	e8 00 00 00 00	 call	 ?__Create_SetName@CInstanceBase@@IAEXABUSCreateData@1@@Z ; CInstanceBase::__Create_SetName

; 828  : 
; 829  : 	m_dwLevel = c_rkCreateData.m_dwLevel;

  002cd	8b 46 10	 mov	 eax, DWORD PTR [esi+16]

; 830  : #ifdef ENABLE_SHOW_MOB_INFO
; 831  : 	m_dwAIFlag = c_rkCreateData.m_dwAIFlag;
; 832  : #endif
; 833  : 	m_dwGuildID = c_rkCreateData.m_dwGuildID;
; 834  : 	m_dwEmpireID = c_rkCreateData.m_dwEmpireID;
; 835  : #ifdef ENABLE_GUILD_LEADER_TEXTAIL
; 836  : 	m_dwGuildLeader = c_rkCreateData.m_dwGuildLeader;
; 837  : #endif
; 838  : 	SetVirtualNumber(c_rkCreateData.m_dwRace);

  002d0	8b cf		 mov	 ecx, edi
  002d2	89 47 48	 mov	 DWORD PTR [edi+72], eax
  002d5	8b 46 14	 mov	 eax, DWORD PTR [esi+20]
  002d8	89 47 4c	 mov	 DWORD PTR [edi+76], eax
  002db	8b 46 0c	 mov	 eax, DWORD PTR [esi+12]
  002de	89 47 54	 mov	 DWORD PTR [edi+84], eax
  002e1	8b 46 08	 mov	 eax, DWORD PTR [esi+8]
  002e4	89 47 50	 mov	 DWORD PTR [edi+80], eax
  002e7	8a 46 4c	 mov	 al, BYTE PTR [esi+76]
  002ea	88 47 60	 mov	 BYTE PTR [edi+96], al
  002ed	ff 76 1c	 push	 DWORD PTR [esi+28]
  002f0	e8 00 00 00 00	 call	 ?SetVirtualNumber@CInstanceBase@@QAEXK@Z ; CInstanceBase::SetVirtualNumber

; 839  : 	SetRotation(c_rkCreateData.m_fRot);

  002f5	f3 0f 10 46 30	 movss	 xmm0, DWORD PTR [esi+48]
  002fa	51		 push	 ecx
  002fb	f3 0f 11 04 24	 movss	 DWORD PTR [esp], xmm0
  00300	e8 00 00 00 00	 call	 ?SetRotation@CInstanceBase@@QAEXM@Z ; CInstanceBase::SetRotation

; 840  : 
; 841  : 	SetAlignment(c_rkCreateData.m_sAlignment);

  00305	0f b7 86 40 01
	00 00		 movzx	 eax, WORD PTR [esi+320]
  0030c	8b cf		 mov	 ecx, edi
  0030e	50		 push	 eax
  0030f	e8 00 00 00 00	 call	 ?SetAlignment@CInstanceBase@@QAEXF@Z ; CInstanceBase::SetAlignment

; 842  : #ifdef ENABLE_TITLE_SYSTEM
; 843  : 	SetTitleSystem(c_rkCreateData.m_iTitleID);

  00314	ff b6 64 01 00
	00		 push	 DWORD PTR [esi+356]
  0031a	8b cf		 mov	 ecx, edi
  0031c	e8 00 00 00 00	 call	 ?SetTitleSystem@CInstanceBase@@QAEXH@Z ; CInstanceBase::SetTitleSystem

; 844  : #endif
; 845  : 	SetPKMode(c_rkCreateData.m_byPKMode);

  00321	0f b6 86 42 01
	00 00		 movzx	 eax, BYTE PTR [esi+322]
  00328	8b cf		 mov	 ecx, edi
  0032a	50		 push	 eax
  0032b	e8 00 00 00 00	 call	 ?SetPKMode@CInstanceBase@@QAEXE@Z ; CInstanceBase::SetPKMode

; 846  : 
; 847  : 	SetMoveSpeed(c_rkCreateData.m_dwMovSpd);

  00330	ff 76 20	 push	 DWORD PTR [esi+32]
  00333	8b cf		 mov	 ecx, edi
  00335	e8 00 00 00 00	 call	 ?SetMoveSpeed@CInstanceBase@@QAEXI@Z ; CInstanceBase::SetMoveSpeed

; 848  : 	SetAttackSpeed(c_rkCreateData.m_dwAtkSpd);

  0033a	ff 76 24	 push	 DWORD PTR [esi+36]
  0033d	8b cf		 mov	 ecx, edi
  0033f	e8 00 00 00 00	 call	 ?SetAttackSpeed@CInstanceBase@@QAEXI@Z ; CInstanceBase::SetAttackSpeed

; 849  : 
; 850  : #ifdef ENABLE_GROWTH_PET_SYSTEM
; 851  : 	m_bCharacterSize = c_rkCreateData.m_bCharacterSize;

  00344	8a 86 68 01 00
	00		 mov	 al, BYTE PTR [esi+360]

; 852  : 	if (IsGrowthPet())

  0034a	8b cf		 mov	 ecx, edi
  0034c	88 87 54 01 00
	00		 mov	 BYTE PTR [edi+340], al
  00352	e8 00 00 00 00	 call	 ?IsGrowthPet@CInstanceBase@@QAEHXZ ; CInstanceBase::IsGrowthPet
  00357	85 c0		 test	 eax, eax
  00359	74 0a		 je	 SHORT $LN14@Create

; 853  : 		SetPetLevel(c_rkCreateData.m_dwLevel);

  0035b	ff 76 10	 push	 DWORD PTR [esi+16]
  0035e	8b cf		 mov	 ecx, edi
  00360	e8 00 00 00 00	 call	 ?SetPetLevel@CInstanceBase@@QAEXK@Z ; CInstanceBase::SetPetLevel
$LN14@Create:
; File C:\Anka2Project\Anka2Project\Source\Binary\source\eterBase\Singleton.h

; 26   : 		assert(ms_singleton);

  00365	8b 0d 00 00 00
	00		 mov	 ecx, DWORD PTR ?ms_singleton@?$CSingleton@VCPythonNonPlayer@@@@0PAVCPythonNonPlayer@@A ; CSingleton<CPythonNonPlayer>::ms_singleton
; File C:\Anka2Project\Anka2Project\Source\Binary\source\UserInterface\InstanceBase.cpp

; 857  : 	float fx, fy, fz = 1.0f;

  0036b	c7 45 c0 00 00
	80 3f		 mov	 DWORD PTR _fz$[ebp], 1065353216 ; 3f800000H
; File C:\Anka2Project\Anka2Project\Source\Binary\source\eterBase\Singleton.h

; 26   : 		assert(ms_singleton);

  00372	85 c9		 test	 ecx, ecx
  00374	75 1a		 jne	 SHORT $LN40@Create
  00376	6a 1a		 push	 26			; 0000001aH
  00378	68 00 00 00 00	 push	 OFFSET ??_C@_1IO@CAJLEEOI@?$AAC?$AA?3?$AA?2?$AAA?$AAn?$AAk?$AAa?$AA2?$AAP?$AAr?$AAo?$AAj?$AAe?$AAc?$AAt@
  0037d	68 00 00 00 00	 push	 OFFSET ??_C@_1BK@FMEHPMFE@?$AAm?$AAs?$AA_?$AAs?$AAi?$AAn?$AAg?$AAl?$AAe?$AAt?$AAo?$AAn@
  00382	e8 00 00 00 00	 call	 __wassert
  00387	8b 0d 00 00 00
	00		 mov	 ecx, DWORD PTR ?ms_singleton@?$CSingleton@VCPythonNonPlayer@@@@0PAVCPythonNonPlayer@@A ; CSingleton<CPythonNonPlayer>::ms_singleton
  0038d	83 c4 0c	 add	 esp, 12			; 0000000cH
$LN40@Create:
; File C:\Anka2Project\Anka2Project\Source\Binary\source\UserInterface\InstanceBase.cpp

; 864  : 		&& !c_rkCreateData.m_dwAura

  00390	8d 45 c0	 lea	 eax, DWORD PTR _fz$[ebp]
  00393	50		 push	 eax
  00394	8d 45 bc	 lea	 eax, DWORD PTR _fy$[ebp]
  00397	50		 push	 eax
  00398	8d 45 b4	 lea	 eax, DWORD PTR _fx$[ebp]
  0039b	50		 push	 eax
  0039c	ff 76 1c	 push	 DWORD PTR [esi+28]
  0039f	e8 00 00 00 00	 call	 ?GetScale@CPythonNonPlayer@@QAE_NKAAM00@Z ; CPythonNonPlayer::GetScale
  003a4	84 c0		 test	 al, al
  003a6	74 3c		 je	 SHORT $LN15@Create
  003a8	83 7e 40 00	 cmp	 DWORD PTR [esi+64], 0
  003ac	75 36		 jne	 SHORT $LN15@Create
  003ae	83 7e 44 00	 cmp	 DWORD PTR [esi+68], 0
  003b2	75 30		 jne	 SHORT $LN15@Create

; 865  : #endif
; 866  : 	)
; 867  : 		m_GraphicThingInstance.SetScale(fx, fy, fz, true);

  003b4	f3 0f 10 45 c0	 movss	 xmm0, DWORD PTR _fz$[ebp]
  003b9	8d 8f f4 02 00
	00		 lea	 ecx, DWORD PTR [edi+756]
  003bf	6a 01		 push	 1
  003c1	83 ec 0c	 sub	 esp, 12			; 0000000cH
  003c4	f3 0f 11 44 24
	08		 movss	 DWORD PTR [esp+8], xmm0
  003ca	f3 0f 10 45 bc	 movss	 xmm0, DWORD PTR _fy$[ebp]
  003cf	f3 0f 11 44 24
	04		 movss	 DWORD PTR [esp+4], xmm0
  003d5	f3 0f 10 45 b4	 movss	 xmm0, DWORD PTR _fx$[ebp]
  003da	f3 0f 11 04 24	 movss	 DWORD PTR [esp], xmm0
  003df	e8 00 00 00 00	 call	 ?SetScale@CGraphicObjectInstance@@QAEXMMM_N@Z ; CGraphicObjectInstance::SetScale
$LN15@Create:

; 868  : #endif
; 869  : 
; 870  : 	if (!IsWearingDress())

  003e4	8b cf		 mov	 ecx, edi
  003e6	e8 00 00 00 00	 call	 ?IsWearingDress@CInstanceBase@@QAEHXZ ; CInstanceBase::IsWearingDress
  003eb	85 c0		 test	 eax, eax
  003ed	75 2f		 jne	 SHORT $LN16@Create

; 871  : 	{
; 872  : 		m_GraphicThingInstance.SetAlphaValue(0.0f);

  003ef	51		 push	 ecx
  003f0	8d 8f f4 02 00
	00		 lea	 ecx, DWORD PTR [edi+756]
  003f6	89 04 24	 mov	 DWORD PTR [esp], eax
  003f9	e8 00 00 00 00	 call	 ?SetAlphaValue@CActorInstance@@QAEXM@Z ; CActorInstance::SetAlphaValue

; 873  : 		m_GraphicThingInstance.BlendAlphaValue(1.0f, 0.5f);

  003fe	83 ec 08	 sub	 esp, 8
  00401	8d 8f f4 02 00
	00		 lea	 ecx, DWORD PTR [edi+756]
  00407	c7 44 24 04 00
	00 00 3f	 mov	 DWORD PTR [esp+4], 1056964608 ; 3f000000H
  0040f	c7 04 24 00 00
	80 3f		 mov	 DWORD PTR [esp], 1065353216 ; 3f800000H
  00416	e8 00 00 00 00	 call	 ?BlendAlphaValue@CActorInstance@@QAEXMM@Z ; CActorInstance::BlendAlphaValue
  0041b	8b 75 b8	 mov	 esi, DWORD PTR _c_rkCreateData$GSCopy$1$[ebp]
$LN16@Create:

; 874  : 	}
; 875  : 
; 876  : 	if (!IsGuildWall())

  0041e	8b cf		 mov	 ecx, edi
  00420	e8 00 00 00 00	 call	 ?IsGuildWall@CInstanceBase@@QAEHXZ ; CInstanceBase::IsGuildWall
  00425	85 c0		 test	 eax, eax
  00427	75 0e		 jne	 SHORT $LN17@Create

; 877  : 	{
; 878  : 		SetAffectFlagContainer(c_rkCreateData.m_kAffectFlags);

  00429	8d 86 43 01 00
	00		 lea	 eax, DWORD PTR [esi+323]
  0042f	8b cf		 mov	 ecx, edi
  00431	50		 push	 eax
  00432	e8 00 00 00 00	 call	 ?SetAffectFlagContainer@CInstanceBase@@QAEXABVCAffectFlagContainer@@@Z ; CInstanceBase::SetAffectFlagContainer
$LN17@Create:

; 879  : 	}
; 880  : 
; 881  : 	if (c_rkCreateData.m_dwStateFlags & ADD_CHARACTER_STATE_SPAWN) 

  00437	f6 46 04 02	 test	 BYTE PTR [esi+4], 2
  0043b	74 3d		 je	 SHORT $LN18@Create

; 882  : 	{
; 883  : 		if (IsAffect(AFFECT_SPAWN))

  0043d	6a 02		 push	 2
  0043f	8b cf		 mov	 ecx, edi
  00441	e8 00 00 00 00	 call	 ?IsAffect@CInstanceBase@@QAE_NI@Z ; CInstanceBase::IsAffect
  00446	84 c0		 test	 al, al
  00448	74 11		 je	 SHORT $LN20@Create

; 884  : 			__AttachEffect(EFFECT_SPAWN_APPEAR);

  0044a	f3 0f 10 15 00
	00 00 00	 movss	 xmm2, DWORD PTR __real@3f800000
  00452	8b cf		 mov	 ecx, edi
  00454	6a 09		 push	 9
  00456	e8 00 00 00 00	 call	 ?__AttachEffect@CInstanceBase@@IAEKIM@Z ; CInstanceBase::__AttachEffect
$LN20@Create:

; 885  : 
; 886  : 		if (IsPC())

  0045b	8b cf		 mov	 ecx, edi
  0045d	e8 00 00 00 00	 call	 ?IsPC@CInstanceBase@@QAEHXZ ; CInstanceBase::IsPC

; 887  : 		{
; 888  : 			Refresh(CRaceMotionData::NAME_WAIT, true);
; 889  : 		}
; 890  : 		else
; 891  : 		{
; 892  : 			Refresh(CRaceMotionData::NAME_SPAWN, false);
; 893  : 		}
; 894  : 	}

  00462	85 c0		 test	 eax, eax
  00464	c7 45 bc 19 00
	00 00		 mov	 DWORD PTR tv857[ebp], 25 ; 00000019H
  0046b	b9 01 00 00 00	 mov	 ecx, 1
  00470	0f 44 4d bc	 cmove	 ecx, DWORD PTR tv857[ebp]
  00474	0f 95 45 b8	 setne	 BYTE PTR $T24[ebp]
  00478	eb 08		 jmp	 SHORT $LN138@Create
$LN18@Create:

; 895  : 	else
; 896  : 	{
; 897  : 		Refresh(CRaceMotionData::NAME_WAIT, true);

  0047a	b9 01 00 00 00	 mov	 ecx, 1
  0047f	88 4d b8	 mov	 BYTE PTR $T24[ebp], cl
$LN138@Create:

; 898  : 	}
; 899  : 
; 900  : 	__AttachEmpireEffect(c_rkCreateData.m_dwEmpireID);

  00482	ff 75 b8	 push	 DWORD PTR $T24[ebp]
  00485	8b d7		 mov	 edx, edi
  00487	51		 push	 ecx
  00488	8b ca		 mov	 ecx, edx
  0048a	e8 00 00 00 00	 call	 ?Refresh@CInstanceBase@@QAEXK_N@Z ; CInstanceBase::Refresh
  0048f	ff 76 08	 push	 DWORD PTR [esi+8]
  00492	8b cf		 mov	 ecx, edi
  00494	e8 00 00 00 00	 call	 ?__AttachEmpireEffect@CInstanceBase@@IAEXK@Z ; CInstanceBase::__AttachEmpireEffect

; 901  : 
; 902  : 	RegisterBoundingSphere();

  00499	8b cf		 mov	 ecx, edi
  0049b	e8 00 00 00 00	 call	 ?RegisterBoundingSphere@CInstanceBase@@QAEXXZ ; CInstanceBase::RegisterBoundingSphere

; 903  : 
; 904  : 	AttachTextTail();

  004a0	8b cf		 mov	 ecx, edi
  004a2	e8 00 00 00 00	 call	 ?AttachTextTail@CInstanceBase@@QAEXXZ ; CInstanceBase::AttachTextTail

; 905  : 	RefreshTextTail();

  004a7	8b cf		 mov	 ecx, edi
  004a9	e8 00 00 00 00	 call	 ?RefreshTextTail@CInstanceBase@@QAEXXZ ; CInstanceBase::RefreshTextTail

; 906  : 
; 907  : #ifdef ENABLE_STONE_SCALE_OPTION
; 908  : 	RefreshStoneScale();

  004ae	8b cf		 mov	 ecx, edi
  004b0	e8 00 00 00 00	 call	 ?RefreshStoneScale@CInstanceBase@@QAEXXZ ; CInstanceBase::RefreshStoneScale
; File C:\Anka2Project\Anka2Project\Source\Binary\source\eterBase\Singleton.h

; 26   : 		assert(ms_singleton);

  004b5	8b 0d 00 00 00
	00		 mov	 ecx, DWORD PTR ?ms_singleton@?$CSingleton@VCPythonNonPlayer@@@@0PAVCPythonNonPlayer@@A ; CSingleton<CPythonNonPlayer>::ms_singleton
  004bb	85 c9		 test	 ecx, ecx
  004bd	75 1a		 jne	 SHORT $LN43@Create
  004bf	6a 1a		 push	 26			; 0000001aH
  004c1	68 00 00 00 00	 push	 OFFSET ??_C@_1IO@CAJLEEOI@?$AAC?$AA?3?$AA?2?$AAA?$AAn?$AAk?$AAa?$AA2?$AAP?$AAr?$AAo?$AAj?$AAe?$AAc?$AAt@
  004c6	68 00 00 00 00	 push	 OFFSET ??_C@_1BK@FMEHPMFE@?$AAm?$AAs?$AA_?$AAs?$AAi?$AAn?$AAg?$AAl?$AAe?$AAt?$AAo?$AAn@
  004cb	e8 00 00 00 00	 call	 __wassert
  004d0	8b 0d 00 00 00
	00		 mov	 ecx, DWORD PTR ?ms_singleton@?$CSingleton@VCPythonNonPlayer@@@@0PAVCPythonNonPlayer@@A ; CSingleton<CPythonNonPlayer>::ms_singleton
  004d6	83 c4 0c	 add	 esp, 12			; 0000000cH
$LN43@Create:
; File C:\Anka2Project\Anka2Project\Source\Binary\source\UserInterface\InstanceBase.cpp

; 912  : 	DWORD dwRank = CPythonNonPlayer::Instance().GetMonsterRank(c_rkCreateData.m_dwRace);

  004d9	ff 76 1c	 push	 DWORD PTR [esi+28]
  004dc	e8 00 00 00 00	 call	 ?GetMonsterRank@CPythonNonPlayer@@QAEKK@Z ; CPythonNonPlayer::GetMonsterRank
  004e1	89 45 bc	 mov	 DWORD PTR _dwRank$1$[ebp], eax
; File C:\Anka2Project\Anka2Project\Source\Binary\source\eterBase\Singleton.h

; 26   : 		assert(ms_singleton);

  004e4	a1 00 00 00 00	 mov	 eax, DWORD PTR ?ms_singleton@?$CSingleton@VCPythonNonPlayer@@@@0PAVCPythonNonPlayer@@A ; CSingleton<CPythonNonPlayer>::ms_singleton
  004e9	85 c0		 test	 eax, eax
  004eb	75 19		 jne	 SHORT $LN46@Create
  004ed	6a 1a		 push	 26			; 0000001aH
  004ef	68 00 00 00 00	 push	 OFFSET ??_C@_1IO@CAJLEEOI@?$AAC?$AA?3?$AA?2?$AAA?$AAn?$AAk?$AAa?$AA2?$AAP?$AAr?$AAo?$AAj?$AAe?$AAc?$AAt@
  004f4	68 00 00 00 00	 push	 OFFSET ??_C@_1BK@FMEHPMFE@?$AAm?$AAs?$AA_?$AAs?$AAi?$AAn?$AAg?$AAl?$AAe?$AAt?$AAo?$AAn@
  004f9	e8 00 00 00 00	 call	 __wassert
  004fe	a1 00 00 00 00	 mov	 eax, DWORD PTR ?ms_singleton@?$CSingleton@VCPythonNonPlayer@@@@0PAVCPythonNonPlayer@@A ; CSingleton<CPythonNonPlayer>::ms_singleton
  00503	83 c4 0c	 add	 esp, 12			; 0000000cH
$LN46@Create:
; File C:\Anka2Project\Anka2Project\Source\Binary\source\UserInterface\InstanceBase.cpp

; 913  : 	DWORD dwType = CPythonNonPlayer::Instance().GetMonsterType(c_rkCreateData.m_dwRace);

  00506	ff 76 1c	 push	 DWORD PTR [esi+28]
  00509	8b c8		 mov	 ecx, eax
  0050b	e8 00 00 00 00	 call	 ?GetMonsterType@CPythonNonPlayer@@QAEKK@Z ; CPythonNonPlayer::GetMonsterType

; 914  : 
; 915  : 	if (dwRank >= 4 && dwType == 0)

  00510	83 7d bc 04	 cmp	 DWORD PTR _dwRank$1$[ebp], 4
  00514	72 0b		 jb	 SHORT $LN23@Create
  00516	85 c0		 test	 eax, eax
  00518	75 07		 jne	 SHORT $LN23@Create

; 916  : 		__AttachBossEffect();

  0051a	8b cf		 mov	 ecx, edi
  0051c	e8 00 00 00 00	 call	 ?__AttachBossEffect@CInstanceBase@@IAEXXZ ; CInstanceBase::__AttachBossEffect
$LN23@Create:

; 917  : #endif
; 918  : 
; 919  : 	if (c_rkCreateData.m_dwStateFlags & ADD_CHARACTER_STATE_DEAD)

  00521	f6 46 04 01	 test	 BYTE PTR [esi+4], 1
  00525	74 0b		 je	 SHORT $LN132@Create

; 920  : 		m_GraphicThingInstance.DieEnd();

  00527	8d 8f f4 02 00
	00		 lea	 ecx, DWORD PTR [edi+756]
  0052d	e8 00 00 00 00	 call	 ?DieEnd@CActorInstance@@QAEXXZ ; CActorInstance::DieEnd
$LN132@Create:

; 921  : 
; 922  : 	SetStateFlags(c_rkCreateData.m_dwStateFlags);

  00532	ff 76 04	 push	 DWORD PTR [esi+4]
  00535	8b cf		 mov	 ecx, edi
  00537	e8 00 00 00 00	 call	 ?SetStateFlags@CInstanceBase@@QAEXK@Z ; CInstanceBase::SetStateFlags

; 923  : 
; 924  : 	m_GraphicThingInstance.SetBattleHitEffect(ms_adwCRCAffectEffect[EFFECT_HIT]);

  0053c	ff 35 08 00 00
	00		 push	 DWORD PTR ?ms_adwCRCAffectEffect@CInstanceBase@@1PAKA+8
  00542	8d 8f f4 02 00
	00		 lea	 ecx, DWORD PTR [edi+756]
  00548	e8 00 00 00 00	 call	 ?SetBattleHitEffect@CActorInstance@@QAEXK@Z ; CActorInstance::SetBattleHitEffect

; 925  : 
; 926  : 	if (!IsPC())

  0054d	8b cf		 mov	 ecx, edi
  0054f	e8 00 00 00 00	 call	 ?IsPC@CInstanceBase@@QAEHXZ ; CInstanceBase::IsPC
  00554	85 c0		 test	 eax, eax
  00556	0f 85 a6 00 00
	00		 jne	 $LN26@Create
; File C:\Anka2Project\Anka2Project\Source\Binary\source\eterBase\Singleton.h

; 26   : 		assert(ms_singleton);

  0055c	8b 0d 00 00 00
	00		 mov	 ecx, DWORD PTR ?ms_singleton@?$CSingleton@VCPythonNonPlayer@@@@0PAVCPythonNonPlayer@@A ; CSingleton<CPythonNonPlayer>::ms_singleton
  00562	85 c9		 test	 ecx, ecx
  00564	75 1a		 jne	 SHORT $LN56@Create
  00566	6a 1a		 push	 26			; 0000001aH
  00568	68 00 00 00 00	 push	 OFFSET ??_C@_1IO@CAJLEEOI@?$AAC?$AA?3?$AA?2?$AAA?$AAn?$AAk?$AAa?$AA2?$AAP?$AAr?$AAo?$AAj?$AAe?$AAc?$AAt@
  0056d	68 00 00 00 00	 push	 OFFSET ??_C@_1BK@FMEHPMFE@?$AAm?$AAs?$AA_?$AAs?$AAi?$AAn?$AAg?$AAl?$AAe?$AAt?$AAo?$AAn@
  00572	e8 00 00 00 00	 call	 __wassert
  00577	8b 0d 00 00 00
	00		 mov	 ecx, DWORD PTR ?ms_singleton@?$CSingleton@VCPythonNonPlayer@@@@0PAVCPythonNonPlayer@@A ; CSingleton<CPythonNonPlayer>::ms_singleton
  0057d	83 c4 0c	 add	 esp, 12			; 0000000cH
$LN56@Create:
; File C:\Anka2Project\Anka2Project\Source\Binary\source\UserInterface\InstanceBase.cpp

; 928  : 		DWORD dwBodyColor = CPythonNonPlayer::Instance().GetMonsterColor(c_rkCreateData.m_dwRace);

  00580	ff 76 1c	 push	 DWORD PTR [esi+28]
  00583	e8 00 00 00 00	 call	 ?GetMonsterColor@CPythonNonPlayer@@QAEKK@Z ; CPythonNonPlayer::GetMonsterColor
  00588	89 45 bc	 mov	 DWORD PTR _dwBodyColor$1$[ebp], eax

; 929  : 		if (0 != dwBodyColor)

  0058b	85 c0		 test	 eax, eax
  0058d	74 73		 je	 SHORT $LN26@Create

; 930  : 		{
; 931  : 			SetModulateRenderMode();

  0058f	8b cf		 mov	 ecx, edi
  00591	e8 00 00 00 00	 call	 ?SetModulateRenderMode@CInstanceBase@@QAEXXZ ; CInstanceBase::SetModulateRenderMode
; File C:\Anka2Project\Anka2Project\Source\Binary\extern\include\d3dx8math.inl

; 888  :     r = f * (FLOAT) (unsigned char) (dw >> 16);

  00596	8b 55 bc	 mov	 edx, DWORD PTR _dwBodyColor$1$[ebp]
  00599	8b ca		 mov	 ecx, edx
  0059b	f3 0f 10 0d 00
	00 00 00	 movss	 xmm1, DWORD PTR __real@3b808081

; 889  :     g = f * (FLOAT) (unsigned char) (dw >>  8);

  005a3	8b c2		 mov	 eax, edx
  005a5	c1 e9 10	 shr	 ecx, 16			; 00000010H
  005a8	0f b6 c9	 movzx	 ecx, cl
  005ab	c1 e8 08	 shr	 eax, 8
  005ae	0f b6 c0	 movzx	 eax, al
  005b1	66 0f 6e c1	 movd	 xmm0, ecx
; File C:\Anka2Project\Anka2Project\Source\Binary\source\UserInterface\InstanceBase.cpp

; 932  : 			SetAddColor(dwBodyColor);

  005b5	8b cf		 mov	 ecx, edi
; File C:\Anka2Project\Anka2Project\Source\Binary\extern\include\d3dx8math.inl

; 888  :     r = f * (FLOAT) (unsigned char) (dw >> 16);

  005b7	0f 5b c0	 cvtdq2ps xmm0, xmm0
  005ba	f3 0f 59 c1	 mulss	 xmm0, xmm1
  005be	f3 0f 11 45 c4	 movss	 DWORD PTR $T10[ebp], xmm0
  005c3	66 0f 6e c0	 movd	 xmm0, eax

; 889  :     g = f * (FLOAT) (unsigned char) (dw >>  8);

  005c7	0f 5b c0	 cvtdq2ps xmm0, xmm0

; 890  :     b = f * (FLOAT) (unsigned char) (dw >>  0);

  005ca	0f b6 c2	 movzx	 eax, dl

; 891  :     a = f * (FLOAT) (unsigned char) (dw >> 24);

  005cd	c1 ea 18	 shr	 edx, 24			; 00000018H
  005d0	f3 0f 59 c1	 mulss	 xmm0, xmm1
  005d4	f3 0f 11 45 c8	 movss	 DWORD PTR $T10[ebp+4], xmm0
  005d9	66 0f 6e c0	 movd	 xmm0, eax
; File C:\Anka2Project\Anka2Project\Source\Binary\source\UserInterface\InstanceBase.cpp

; 932  : 			SetAddColor(dwBodyColor);

  005dd	8d 45 c4	 lea	 eax, DWORD PTR $T10[ebp]
; File C:\Anka2Project\Anka2Project\Source\Binary\extern\include\d3dx8math.inl

; 890  :     b = f * (FLOAT) (unsigned char) (dw >>  0);

  005e0	0f 5b c0	 cvtdq2ps xmm0, xmm0
; File C:\Anka2Project\Anka2Project\Source\Binary\source\UserInterface\InstanceBase.cpp

; 932  : 			SetAddColor(dwBodyColor);

  005e3	50		 push	 eax
; File C:\Anka2Project\Anka2Project\Source\Binary\extern\include\d3dx8math.inl

; 890  :     b = f * (FLOAT) (unsigned char) (dw >>  0);

  005e4	f3 0f 59 c1	 mulss	 xmm0, xmm1
  005e8	f3 0f 11 45 cc	 movss	 DWORD PTR $T10[ebp+8], xmm0
  005ed	66 0f 6e c2	 movd	 xmm0, edx

; 891  :     a = f * (FLOAT) (unsigned char) (dw >> 24);

  005f1	0f 5b c0	 cvtdq2ps xmm0, xmm0
  005f4	f3 0f 59 c1	 mulss	 xmm0, xmm1
  005f8	f3 0f 11 45 d0	 movss	 DWORD PTR $T10[ebp+12], xmm0
; File C:\Anka2Project\Anka2Project\Source\Binary\source\UserInterface\InstanceBase.cpp

; 932  : 			SetAddColor(dwBodyColor);

  005fd	e8 00 00 00 00	 call	 ?SetAddColor@CInstanceBase@@QAEXABUD3DXCOLOR@@@Z ; CInstanceBase::SetAddColor
$LN26@Create:

; 933  : 		}
; 934  : 	}
; 935  : 
; 936  : 	__AttachHorseSaddle();

  00602	8b cf		 mov	 ecx, edi
  00604	e8 00 00 00 00	 call	 ?__AttachHorseSaddle@CInstanceBase@@IAEXXZ ; CInstanceBase::__AttachHorseSaddle

; 937  : 
; 938  : 	const int c_iGuildSymbolRace = 14200;
; 939  : 	if (c_iGuildSymbolRace == GetRace())

  00609	8b cf		 mov	 ecx, edi
  0060b	e8 00 00 00 00	 call	 ?GetRace@CInstanceBase@@QAEKXZ ; CInstanceBase::GetRace
  00610	3d 78 37 00 00	 cmp	 eax, 14200		; 00003778H
  00615	0f 85 b7 00 00
	00		 jne	 $LN92@Create

; 941  : 		std::string strFileName = GetGuildSymbolFileName(m_dwGuildID);

  0061b	8b 4f 54	 mov	 ecx, DWORD PTR [edi+84]
  0061e	e8 00 00 00 00	 call	 ?GetGuildSymbolFileName@@YAPBDK@Z ; GetGuildSymbolFileName
  00623	8b d0		 mov	 edx, eax
; File C:\Program Files\Microsoft Visual Studio\2022\Community\VC\Tools\MSVC\14.44.35207\include\xstring

; 517  :     size_type _Mysize = 0; // current length of string (size)

  00625	c7 45 e4 00 00
	00 00		 mov	 DWORD PTR _strFileName$26[ebp+16], 0
; File C:\Program Files\Microsoft Visual Studio\2022\Community\VC\Tools\MSVC\14.44.35207\include\__msvc_string_view.hpp

; 456  :             return __builtin_strlen(_First);

  0062c	8b ca		 mov	 ecx, edx
; File C:\Program Files\Microsoft Visual Studio\2022\Community\VC\Tools\MSVC\14.44.35207\include\xstring

; 518  :     size_type _Myres  = 0; // current storage reserved for string (capacity)

  0062e	c7 45 e8 00 00
	00 00		 mov	 DWORD PTR _strFileName$26[ebp+20], 0
  00635	0f 57 c0	 xorps	 xmm0, xmm0

; 493  :         _CONSTEXPR20 _Bxty() noexcept : _Buf() {} // user-provided, for fancy pointers

  00638	0f 11 45 d4	 movups	 XMMWORD PTR _strFileName$26[ebp], xmm0
; File C:\Program Files\Microsoft Visual Studio\2022\Community\VC\Tools\MSVC\14.44.35207\include\__msvc_string_view.hpp

; 456  :             return __builtin_strlen(_First);

  0063c	8d 71 01	 lea	 esi, DWORD PTR [ecx+1]
  0063f	90		 npad	 1
$LL135@Create:
  00640	8a 01		 mov	 al, BYTE PTR [ecx]
  00642	41		 inc	 ecx
  00643	84 c0		 test	 al, al
  00645	75 f9		 jne	 SHORT $LL135@Create
  00647	2b ce		 sub	 ecx, esi
; File C:\Program Files\Microsoft Visual Studio\2022\Community\VC\Tools\MSVC\14.44.35207\include\xstring

; 769  :         _Construct<_Construct_strategy::_From_ptr>(_Ptr, _Convert_size<size_type>(_Traits::length(_Ptr)));

  00649	51		 push	 ecx
  0064a	52		 push	 edx
  0064b	8d 4d d4	 lea	 ecx, DWORD PTR _strFileName$26[ebp]
  0064e	e8 00 00 00 00	 call	 ??$_Construct@$00PBD@?$basic_string@DU?$char_traits@D@std@@V?$allocator@D@2@@std@@AAEXQBDI@Z ; std::basic_string<char,std::char_traits<char>,std::allocator<char> >::_Construct<1,char const *>
; File C:\Anka2Project\Anka2Project\Source\Binary\source\UserInterface\InstanceBase.cpp

; 941  : 		std::string strFileName = GetGuildSymbolFileName(m_dwGuildID);

  00653	c7 45 fc 00 00
	00 00		 mov	 DWORD PTR __$EHRec$[ebp+8], 0
; File C:\Program Files\Microsoft Visual Studio\2022\Community\VC\Tools\MSVC\14.44.35207\include\xstring

; 444  :         const value_type* _Result = _Bx._Buf;

  0065a	8d 45 d4	 lea	 eax, DWORD PTR _strFileName$26[ebp]

; 453  :         return _Myres > _Small_string_capacity;

  0065d	83 7d e8 0f	 cmp	 DWORD PTR _strFileName$26[ebp+20], 15 ; 0000000fH

; 445  :         if (_Large_mode_engaged()) {

  00661	0f 47 45 d4	 cmova	 eax, DWORD PTR _strFileName$26[ebp]
; File C:\Anka2Project\Anka2Project\Source\Binary\source\UserInterface\InstanceBase.cpp

; 942  : 		if (IsFile(strFileName.c_str()))

  00665	50		 push	 eax
  00666	e8 00 00 00 00	 call	 ?IsFile@@YA_NPBD@Z	; IsFile
  0066b	83 c4 04	 add	 esp, 4
  0066e	84 c0		 test	 al, al
  00670	74 17		 je	 SHORT $LN28@Create
; File C:\Program Files\Microsoft Visual Studio\2022\Community\VC\Tools\MSVC\14.44.35207\include\xstring

; 453  :         return _Myres > _Small_string_capacity;

  00672	83 7d e8 0f	 cmp	 DWORD PTR _strFileName$26[ebp+20], 15 ; 0000000fH

; 444  :         const value_type* _Result = _Bx._Buf;

  00676	8d 45 d4	 lea	 eax, DWORD PTR _strFileName$26[ebp]
; File C:\Anka2Project\Anka2Project\Source\Binary\source\UserInterface\InstanceBase.cpp

; 943  : 			m_GraphicThingInstance.ChangeMaterial(strFileName.c_str());

  00679	8d 8f f4 02 00
	00		 lea	 ecx, DWORD PTR [edi+756]
; File C:\Program Files\Microsoft Visual Studio\2022\Community\VC\Tools\MSVC\14.44.35207\include\xstring

; 445  :         if (_Large_mode_engaged()) {

  0067f	0f 47 45 d4	 cmova	 eax, DWORD PTR _strFileName$26[ebp]
; File C:\Anka2Project\Anka2Project\Source\Binary\source\UserInterface\InstanceBase.cpp

; 943  : 			m_GraphicThingInstance.ChangeMaterial(strFileName.c_str());

  00683	50		 push	 eax
  00684	e8 00 00 00 00	 call	 ?ChangeMaterial@CActorInstance@@QAEXPBD@Z ; CActorInstance::ChangeMaterial
$LN28@Create:

; 944  : 	}

  00689	c7 45 fc ff ff
	ff ff		 mov	 DWORD PTR __$EHRec$[ebp+8], -1
; File C:\Program Files\Microsoft Visual Studio\2022\Community\VC\Tools\MSVC\14.44.35207\include\xstring

; 453  :         return _Myres > _Small_string_capacity;

  00690	8b 4d e8	 mov	 ecx, DWORD PTR _strFileName$26[ebp+20]
  00693	83 f9 0f	 cmp	 ecx, 15			; 0000000fH

; 3083 :         if (_My_data._Large_mode_engaged()) {

  00696	76 28		 jbe	 SHORT $LN103@Create
; File C:\Program Files\Microsoft Visual Studio\2022\Community\VC\Tools\MSVC\14.44.35207\include\xmemory

; 985  :         _STD _Deallocate<_New_alignof<_Ty>>(_Ptr, sizeof(_Ty) * _Count);

  00698	8b 55 d4	 mov	 edx, DWORD PTR _strFileName$26[ebp]
; File C:\Program Files\Microsoft Visual Studio\2022\Community\VC\Tools\MSVC\14.44.35207\include\xstring

; 852  :         _Al.deallocate(_Old_ptr, _Capacity + 1); // +1 for null terminator

  0069b	41		 inc	 ecx
; File C:\Program Files\Microsoft Visual Studio\2022\Community\VC\Tools\MSVC\14.44.35207\include\xmemory

; 985  :         _STD _Deallocate<_New_alignof<_Ty>>(_Ptr, sizeof(_Ty) * _Count);

  0069c	8b c2		 mov	 eax, edx

; 284  :         if (_Bytes >= _Big_allocation_threshold) {

  0069e	81 f9 00 10 00
	00		 cmp	 ecx, 4096		; 00001000H
  006a4	72 10		 jb	 SHORT $LN111@Create

; 205  :     const uintptr_t _Ptr_container   = _Ptr_user[-1];

  006a6	8b 50 fc	 mov	 edx, DWORD PTR [eax-4]
  006a9	83 c1 23	 add	 ecx, 35			; 00000023H
  006ac	2b c2		 sub	 eax, edx

; 219  :     _STL_VERIFY(_Back_shift >= _Min_back_shift && _Back_shift <= _Non_user_size, "invalid argument");

  006ae	83 c0 fc	 add	 eax, -4			; fffffffcH
  006b1	83 f8 1f	 cmp	 eax, 31			; 0000001fH
  006b4	77 71		 ja	 SHORT $LN140@Create
$LN111@Create:

; 289  :         ::operator delete(_Ptr, _Bytes);

  006b6	51		 push	 ecx
  006b7	52		 push	 edx
  006b8	e8 00 00 00 00	 call	 ??3@YAXPAXI@Z		; operator delete
  006bd	83 c4 08	 add	 esp, 8
$LN103@Create:
; File C:\Program Files\Microsoft Visual Studio\2022\Community\VC\Tools\MSVC\14.44.35207\include\xstring

; 3090 :         _My_data._Mysize = 0;

  006c0	c7 45 e4 00 00
	00 00		 mov	 DWORD PTR _strFileName$26[ebp+16], 0

; 3091 :         _My_data._Myres  = _Small_string_capacity;

  006c7	c7 45 e8 0f 00
	00 00		 mov	 DWORD PTR _strFileName$26[ebp+20], 15 ; 0000000fH

; 3092 :         // the _Traits::assign is last so the codegen doesn't think the char write can alias this
; 3093 :         _Traits::assign(_My_data._Bx._Buf[0], _Elem());

  006ce	c6 45 d4 00	 mov	 BYTE PTR _strFileName$26[ebp], 0
$LN92@Create:
; File C:\Anka2Project\Anka2Project\Source\Binary\source\UserInterface\InstanceBase.cpp

; 947  : 	if (IsAffect(AFFECT_INVISIBILITY) && __MainCanSeeHiddenThing())

  006d2	6a 01		 push	 1
  006d4	8b cf		 mov	 ecx, edi
  006d6	e8 00 00 00 00	 call	 ?IsAffect@CInstanceBase@@QAE_NI@Z ; CInstanceBase::IsAffect
  006db	84 c0		 test	 al, al
  006dd	74 26		 je	 SHORT $LN29@Create
  006df	e8 00 00 00 00	 call	 ?__MainCanSeeHiddenThing@CInstanceBase@@IAE_NXZ ; CInstanceBase::__MainCanSeeHiddenThing
  006e4	84 c0		 test	 al, al
  006e6	74 1d		 je	 SHORT $LN29@Create

; 948  : 		m_GraphicThingInstance.BlendAlphaValue(0.5f, 0.5f);

  006e8	83 ec 08	 sub	 esp, 8
  006eb	8d 8f f4 02 00
	00		 lea	 ecx, DWORD PTR [edi+756]
  006f1	c7 44 24 04 00
	00 00 3f	 mov	 DWORD PTR [esp+4], 1056964608 ; 3f000000H
  006f9	c7 04 24 00 00
	00 3f		 mov	 DWORD PTR [esp], 1056964608 ; 3f000000H
  00700	e8 00 00 00 00	 call	 ?BlendAlphaValue@CActorInstance@@QAEXMM@Z ; CActorInstance::BlendAlphaValue
$LN29@Create:

; 949  : #endif
; 950  : 
; 951  : 	return true;

  00705	b0 01		 mov	 al, 1
$LN1@Create:

; 952  : }

  00707	8b 4d f4	 mov	 ecx, DWORD PTR __$EHRec$[ebp]
  0070a	64 89 0d 00 00
	00 00		 mov	 DWORD PTR fs:0, ecx
  00711	59		 pop	 ecx
  00712	5f		 pop	 edi
  00713	5e		 pop	 esi
  00714	8b 4d ec	 mov	 ecx, DWORD PTR __$ArrayPad$[ebp]
  00717	33 cd		 xor	 ecx, ebp
  00719	e8 00 00 00 00	 call	 @__security_check_cookie@4
  0071e	8b e5		 mov	 esp, ebp
  00720	5d		 pop	 ebp
  00721	8b e3		 mov	 esp, ebx
  00723	5b		 pop	 ebx
  00724	c2 04 00	 ret	 4
$LN140@Create:
; File C:\Program Files\Microsoft Visual Studio\2022\Community\VC\Tools\MSVC\14.44.35207\include\xmemory

; 219  :     _STL_VERIFY(_Back_shift >= _Min_back_shift && _Back_shift <= _Non_user_size, "invalid argument");

  00727	6a 00		 push	 0
  00729	6a 00		 push	 0
  0072b	6a 00		 push	 0
  0072d	6a 00		 push	 0
  0072f	6a 00		 push	 0
  00731	e8 00 00 00 00	 call	 __invoke_watson
$LN137@Create:
  00736	cc		 int	 3
_TEXT	ENDS
;	COMDAT text$x
text$x	SEGMENT
__unwindfunclet$?Create@CInstanceBase@@QAE_NABUSCreateData@1@@Z$0:
  00000	8d 4d d4	 lea	 ecx, DWORD PTR _strFileName$26[ebp]
  00003	e9 00 00 00 00	 jmp	 ??1?$basic_string@DU?$char_traits@D@std@@V?$allocator@D@2@@std@@QAE@XZ ; std::basic_string<char,std::char_traits<char>,std::allocator<char> >::~basic_string<char,std::char_traits<char>,std::allocator<char> >
  00008	cc		 int	 3
  00009	cc		 int	 3
  0000a	cc		 int	 3
  0000b	cc		 int	 3
  0000c	cc		 int	 3
__ehhandler$?Create@CInstanceBase@@QAE_NABUSCreateData@1@@Z:
  0000d	90		 npad	 1
  0000e	90		 npad	 1
  0000f	8b 54 24 08	 mov	 edx, DWORD PTR [esp+8]
  00013	8d 42 0c	 lea	 eax, DWORD PTR [edx+12]
  00016	8b 4a b0	 mov	 ecx, DWORD PTR [edx-80]
  00019	33 c8		 xor	 ecx, eax
  0001b	e8 00 00 00 00	 call	 @__security_check_cookie@4
  00020	8b 4a f8	 mov	 ecx, DWORD PTR [edx-8]
  00023	33 c8		 xor	 ecx, eax
  00025	e8 00 00 00 00	 call	 @__security_check_cookie@4
  0002a	b8 00 00 00 00	 mov	 eax, OFFSET __ehfuncinfo$?Create@CInstanceBase@@QAE_NABUSCreateData@1@@Z
  0002f	e9 00 00 00 00	 jmp	 ___CxxFrameHandler3
text$x	ENDS
?Create@CInstanceBase@@QAE_NABUSCreateData@1@@Z ENDP	; CInstanceBase::Create
; Function compile flags: /Ogtp
; File C:\Anka2Project\Anka2Project\Source\Binary\source\UserInterface\InstanceBase.cpp
; File C:\Anka2Project\Anka2Project\Source\Binary\source\eterBase\Singleton.h
; File C:\Anka2Project\Anka2Project\Source\Binary\source\UserInterface\InstanceBase.cpp
; File C:\Anka2Project\Anka2Project\Source\Binary\source\UserInterface\InstanceBase.h
; File C:\Anka2Project\Anka2Project\Source\Binary\source\UserInterface\InstanceBase.cpp
; File C:\Anka2Project\Anka2Project\Source\Binary\source\UserInterface\InstanceBase.h
; File C:\Anka2Project\Anka2Project\Source\Binary\source\UserInterface\InstanceBase.cpp
; File C:\Anka2Project\Anka2Project\Source\Binary\source\UserInterface\InstanceBase.h
; File C:\Anka2Project\Anka2Project\Source\Binary\source\UserInterface\InstanceBase.cpp
; File C:\Anka2Project\Anka2Project\Source\Binary\source\UserInterface\AbstractSingleton.h
; File C:\Anka2Project\Anka2Project\Source\Binary\source\UserInterface\InstanceBase.cpp
; File C:\Anka2Project\Anka2Project\Source\Binary\source\UserInterface\AbstractSingleton.h
; File C:\Anka2Project\Anka2Project\Source\Binary\source\UserInterface\InstanceBase.cpp
;	COMDAT ?__ProcessFunctionEmotion@CInstanceBase@@IAEXKKABUD3DXVECTOR3@@@Z
_TEXT	SEGMENT
_this$1$ = -4						; size = 4
_dwMotionNumber$ = 8					; size = 4
_dwTargetVID$ = 12					; size = 4
_src_job$1$ = 12					; size = 4
_c_rkPosDst$ = 16					; size = 4
_pTargetInstance$1$ = 16				; size = 4
?__ProcessFunctionEmotion@CInstanceBase@@IAEXKKABUD3DXVECTOR3@@@Z PROC ; CInstanceBase::__ProcessFunctionEmotion, COMDAT
; _this$ = ecx

; 1993 : {

  00000	55		 push	 ebp
  00001	8b ec		 mov	 ebp, esp
  00003	51		 push	 ecx
  00004	53		 push	 ebx
  00005	8b d9		 mov	 ebx, ecx
  00007	57		 push	 edi
  00008	89 5d fc	 mov	 DWORD PTR _this$1$[ebp], ebx

; 1994 : 	if (IsWalking())

  0000b	e8 00 00 00 00	 call	 ?IsWalking@CInstanceBase@@QAEHXZ ; CInstanceBase::IsWalking
  00010	85 c0		 test	 eax, eax
  00012	74 07		 je	 SHORT $LN2@ProcessFun

; 1995 : 		EndWalkingWithoutBlending();

  00014	8b cb		 mov	 ecx, ebx
  00016	e8 00 00 00 00	 call	 ?EndWalkingWithoutBlending@CInstanceBase@@QAEXXZ ; CInstanceBase::EndWalkingWithoutBlending
$LN2@ProcessFun:

; 1996 : 
; 1997 : 	__EnableChangingTCPState();

  0001b	8b cb		 mov	 ecx, ebx
  0001d	e8 00 00 00 00	 call	 ?__EnableChangingTCPState@CInstanceBase@@IAEXXZ ; CInstanceBase::__EnableChangingTCPState

; 1998 : 	SCRIPT_SetPixelPosition(c_rkPosDst.x, c_rkPosDst.y);

  00022	8b 45 10	 mov	 eax, DWORD PTR _c_rkPosDst$[ebp]
  00025	f3 0f 10 50 04	 movss	 xmm2, DWORD PTR [eax+4]
  0002a	f3 0f 10 08	 movss	 xmm1, DWORD PTR [eax]
  0002e	e8 00 00 00 00	 call	 ?SCRIPT_SetPixelPosition@CInstanceBase@@QAEXMM@Z ; CInstanceBase::SCRIPT_SetPixelPosition
; File C:\Anka2Project\Anka2Project\Source\Binary\source\eterBase\Singleton.h

; 26   : 		assert(ms_singleton);

  00033	8b 0d 00 00 00
	00		 mov	 ecx, DWORD PTR ?ms_singleton@?$CSingleton@VCPythonCharacterManager@@@@0PAVCPythonCharacterManager@@A ; CSingleton<CPythonCharacterManager>::ms_singleton
  00039	85 c9		 test	 ecx, ecx
  0003b	75 1a		 jne	 SHORT $LN10@ProcessFun
  0003d	6a 1a		 push	 26			; 0000001aH
  0003f	68 00 00 00 00	 push	 OFFSET ??_C@_1IO@CAJLEEOI@?$AAC?$AA?3?$AA?2?$AAA?$AAn?$AAk?$AAa?$AA2?$AAP?$AAr?$AAo?$AAj?$AAe?$AAc?$AAt@
  00044	68 00 00 00 00	 push	 OFFSET ??_C@_1BK@FMEHPMFE@?$AAm?$AAs?$AA_?$AAs?$AAi?$AAn?$AAg?$AAl?$AAe?$AAt?$AAo?$AAn@
  00049	e8 00 00 00 00	 call	 __wassert
  0004e	8b 0d 00 00 00
	00		 mov	 ecx, DWORD PTR ?ms_singleton@?$CSingleton@VCPythonCharacterManager@@@@0PAVCPythonCharacterManager@@A ; CSingleton<CPythonCharacterManager>::ms_singleton
  00054	83 c4 0c	 add	 esp, 12			; 0000000cH
$LN10@ProcessFun:
; File C:\Anka2Project\Anka2Project\Source\Binary\source\UserInterface\InstanceBase.cpp

; 2000 : 	CInstanceBase * pTargetInstance = CPythonCharacterManager::Instance().GetInstancePtr(dwTargetVID);

  00057	8b 41 04	 mov	 eax, DWORD PTR [ecx+4]
  0005a	83 c1 04	 add	 ecx, 4
  0005d	ff 75 0c	 push	 DWORD PTR _dwTargetVID$[ebp]
  00060	ff 50 08	 call	 DWORD PTR [eax+8]
  00063	8b f8		 mov	 edi, eax
  00065	89 7d 10	 mov	 DWORD PTR _pTargetInstance$1$[ebp], edi

; 2001 : 	if (pTargetInstance)

  00068	85 ff		 test	 edi, edi
  0006a	0f 84 3a 01 00
	00		 je	 $LN5@ProcessFun

; 2002 : 	{
; 2003 : 		pTargetInstance->__EnableChangingTCPState();

  00070	8b cf		 mov	 ecx, edi
  00072	e8 00 00 00 00	 call	 ?__EnableChangingTCPState@CInstanceBase@@IAEXXZ ; CInstanceBase::__EnableChangingTCPState

; 2004 : 
; 2005 : 		if (pTargetInstance->IsWalking())

  00077	e8 00 00 00 00	 call	 ?IsWalking@CInstanceBase@@QAEHXZ ; CInstanceBase::IsWalking
  0007c	85 c0		 test	 eax, eax
  0007e	74 07		 je	 SHORT $LN4@ProcessFun

; 2006 : 			pTargetInstance->EndWalkingWithoutBlending();

  00080	8b cf		 mov	 ecx, edi
  00082	e8 00 00 00 00	 call	 ?EndWalkingWithoutBlending@CInstanceBase@@QAEXXZ ; CInstanceBase::EndWalkingWithoutBlending
$LN4@ProcessFun:

; 2007 : 
; 2008 : 		WORD wMotionNumber1 = HIWORD(dwMotionNumber);
; 2009 : 		WORD wMotionNumber2 = LOWORD(dwMotionNumber);
; 2010 : 
; 2011 : 		int src_job = RaceToJob(GetRace());

  00087	56		 push	 esi
  00088	8b cb		 mov	 ecx, ebx
  0008a	e8 00 00 00 00	 call	 ?GetRace@CInstanceBase@@QAEKXZ ; CInstanceBase::GetRace
; File C:\Anka2Project\Anka2Project\Source\Binary\source\UserInterface\InstanceBase.h

; 1425 : 	return race % JOB_NUM;

  0008f	25 03 00 00 80	 and	 eax, -2147483645	; 80000003H
  00094	79 05		 jns	 SHORT $LN30@ProcessFun
  00096	48		 dec	 eax
  00097	83 c8 fc	 or	 eax, -4			; fffffffcH
  0009a	40		 inc	 eax
$LN30@ProcessFun:
; File C:\Anka2Project\Anka2Project\Source\Binary\source\UserInterface\InstanceBase.cpp

; 2012 : 		int dst_job = RaceToJob(pTargetInstance->GetRace());

  0009b	8b cf		 mov	 ecx, edi
; File C:\Anka2Project\Anka2Project\Source\Binary\source\UserInterface\InstanceBase.h

; 1425 : 	return race % JOB_NUM;

  0009d	89 45 0c	 mov	 DWORD PTR _src_job$1$[ebp], eax
; File C:\Anka2Project\Anka2Project\Source\Binary\source\UserInterface\InstanceBase.cpp

; 2012 : 		int dst_job = RaceToJob(pTargetInstance->GetRace());

  000a0	e8 00 00 00 00	 call	 ?GetRace@CInstanceBase@@QAEKXZ ; CInstanceBase::GetRace
; File C:\Anka2Project\Anka2Project\Source\Binary\source\UserInterface\InstanceBase.h

; 1425 : 	return race % JOB_NUM;

  000a5	8b f0		 mov	 esi, eax
  000a7	81 e6 03 00 00
	80		 and	 esi, -2147483645	; 80000003H
  000ad	79 05		 jns	 SHORT $LN31@ProcessFun
  000af	4e		 dec	 esi
  000b0	83 ce fc	 or	 esi, -4			; fffffffcH
  000b3	46		 inc	 esi
$LN31@ProcessFun:
; File C:\Anka2Project\Anka2Project\Source\Binary\source\UserInterface\InstanceBase.cpp

; 2014 : 		NEW_LookAtDestInstance(*pTargetInstance);

  000b4	57		 push	 edi
  000b5	8b cb		 mov	 ecx, ebx
  000b7	e8 00 00 00 00	 call	 ?NEW_LookAtDestInstance@CInstanceBase@@QAEXAAV1@@Z ; CInstanceBase::NEW_LookAtDestInstance

; 2015 : 		m_GraphicThingInstance.InterceptOnceMotion(wMotionNumber1 + dst_job);

  000bc	51		 push	 ecx
  000bd	c7 04 24 00 00
	80 3f		 mov	 DWORD PTR [esp], 1065353216 ; 3f800000H
  000c4	8d bb f4 02 00
	00		 lea	 edi, DWORD PTR [ebx+756]
  000ca	8b 5d 08	 mov	 ebx, DWORD PTR _dwMotionNumber$[ebp]
  000cd	8b c3		 mov	 eax, ebx
  000cf	6a 00		 push	 0
  000d1	51		 push	 ecx
  000d2	c1 e8 10	 shr	 eax, 16			; 00000010H
  000d5	8b cf		 mov	 ecx, edi
  000d7	03 c6		 add	 eax, esi
  000d9	c7 04 24 cd cc
	cc 3d		 mov	 DWORD PTR [esp], 1036831949 ; 3dcccccdH
  000e0	50		 push	 eax
  000e1	e8 00 00 00 00	 call	 ?InterceptOnceMotion@CActorInstance@@QAE_NKMIM@Z ; CActorInstance::InterceptOnceMotion

; 2016 : 		m_GraphicThingInstance.SetRotation(m_GraphicThingInstance.GetTargetRotation());

  000e6	8b cf		 mov	 ecx, edi
  000e8	e8 00 00 00 00	 call	 ?GetTargetRotation@CActorInstance@@QAEMXZ ; CActorInstance::GetTargetRotation
  000ed	51		 push	 ecx
  000ee	8b cf		 mov	 ecx, edi
  000f0	d9 1c 24	 fstp	 DWORD PTR [esp]
  000f3	e8 00 00 00 00	 call	 ?SetRotation@CActorInstance@@QAEXM@Z ; CActorInstance::SetRotation

; 2017 : 		m_GraphicThingInstance.SetAdvancingRotation(m_GraphicThingInstance.GetTargetRotation());

  000f8	8b cf		 mov	 ecx, edi
  000fa	e8 00 00 00 00	 call	 ?GetTargetRotation@CActorInstance@@QAEMXZ ; CActorInstance::GetTargetRotation
  000ff	51		 push	 ecx
  00100	8b cf		 mov	 ecx, edi
  00102	d9 1c 24	 fstp	 DWORD PTR [esp]
  00105	e8 00 00 00 00	 call	 ?SetAdvancingRotation@CActorInstance@@QAEXM@Z ; CActorInstance::SetAdvancingRotation

; 2018 : 
; 2019 : 		pTargetInstance->NEW_LookAtDestInstance(*this);

  0010a	ff 75 fc	 push	 DWORD PTR _this$1$[ebp]
  0010d	8b 7d 10	 mov	 edi, DWORD PTR _pTargetInstance$1$[ebp]
  00110	8b cf		 mov	 ecx, edi
  00112	e8 00 00 00 00	 call	 ?NEW_LookAtDestInstance@CInstanceBase@@QAEXAAV1@@Z ; CInstanceBase::NEW_LookAtDestInstance

; 2020 : 		pTargetInstance->m_GraphicThingInstance.InterceptOnceMotion(wMotionNumber2 + src_job);

  00117	51		 push	 ecx
  00118	c7 04 24 00 00
	80 3f		 mov	 DWORD PTR [esp], 1065353216 ; 3f800000H
  0011f	6a 00		 push	 0
  00121	51		 push	 ecx
  00122	0f b7 c3	 movzx	 eax, bx
  00125	8d 8f f4 02 00
	00		 lea	 ecx, DWORD PTR [edi+756]
  0012b	03 45 0c	 add	 eax, DWORD PTR _src_job$1$[ebp]
  0012e	c7 04 24 cd cc
	cc 3d		 mov	 DWORD PTR [esp], 1036831949 ; 3dcccccdH
  00135	50		 push	 eax
  00136	e8 00 00 00 00	 call	 ?InterceptOnceMotion@CActorInstance@@QAE_NKMIM@Z ; CActorInstance::InterceptOnceMotion

; 2021 : 		pTargetInstance->m_GraphicThingInstance.SetRotation(pTargetInstance->m_GraphicThingInstance.GetTargetRotation());

  0013b	8d 8f f4 02 00
	00		 lea	 ecx, DWORD PTR [edi+756]
  00141	e8 00 00 00 00	 call	 ?GetTargetRotation@CActorInstance@@QAEMXZ ; CActorInstance::GetTargetRotation
  00146	51		 push	 ecx
  00147	8d 8f f4 02 00
	00		 lea	 ecx, DWORD PTR [edi+756]
  0014d	d9 1c 24	 fstp	 DWORD PTR [esp]
  00150	e8 00 00 00 00	 call	 ?SetRotation@CActorInstance@@QAEXM@Z ; CActorInstance::SetRotation

; 2022 : 		pTargetInstance->m_GraphicThingInstance.SetAdvancingRotation(pTargetInstance->m_GraphicThingInstance.GetTargetRotation());

  00155	8d 8f f4 02 00
	00		 lea	 ecx, DWORD PTR [edi+756]
  0015b	e8 00 00 00 00	 call	 ?GetTargetRotation@CActorInstance@@QAEMXZ ; CActorInstance::GetTargetRotation
  00160	51		 push	 ecx
  00161	8d 8f f4 02 00
	00		 lea	 ecx, DWORD PTR [edi+756]
  00167	d9 1c 24	 fstp	 DWORD PTR [esp]
  0016a	e8 00 00 00 00	 call	 ?SetAdvancingRotation@CActorInstance@@QAEXM@Z ; CActorInstance::SetAdvancingRotation

; 2023 : 
; 2024 : 		if (pTargetInstance->__IsMainInstance())

  0016f	8b cf		 mov	 ecx, edi
  00171	e8 00 00 00 00	 call	 ?__IsMainInstance@CInstanceBase@@IAE_NXZ ; CInstanceBase::__IsMainInstance
  00176	5e		 pop	 esi
  00177	84 c0		 test	 al, al
  00179	74 2c		 je	 SHORT $LN21@ProcessFun
; File C:\Anka2Project\Anka2Project\Source\Binary\source\UserInterface\AbstractSingleton.h

; 24   : 		assert(ms_singleton!=nullptr);

  0017b	8b 0d 00 00 00
	00		 mov	 ecx, DWORD PTR ?ms_singleton@?$TAbstractSingleton@VIAbstractPlayer@@@@0PAVIAbstractPlayer@@A ; TAbstractSingleton<IAbstractPlayer>::ms_singleton
  00181	85 c9		 test	 ecx, ecx
  00183	75 1a		 jne	 SHORT $LN17@ProcessFun
  00185	6a 18		 push	 24			; 00000018H
  00187	68 00 00 00 00	 push	 OFFSET ??_C@_1KI@FIPHLMOB@?$AAC?$AA?3?$AA?2?$AAA?$AAn?$AAk?$AAa?$AA2?$AAP?$AAr?$AAo?$AAj?$AAe?$AAc?$AAt@
  0018c	68 00 00 00 00	 push	 OFFSET ??_C@_1CM@FPMBEAEA@?$AAm?$AAs?$AA_?$AAs?$AAi?$AAn?$AAg?$AAl?$AAe?$AAt?$AAo?$AAn?$AA?$CB?$AA?$DN?$AAn@
  00191	e8 00 00 00 00	 call	 __wassert
  00196	8b 0d 00 00 00
	00		 mov	 ecx, DWORD PTR ?ms_singleton@?$TAbstractSingleton@VIAbstractPlayer@@@@0PAVIAbstractPlayer@@A ; TAbstractSingleton<IAbstractPlayer>::ms_singleton
  0019c	83 c4 0c	 add	 esp, 12			; 0000000cH
$LN17@ProcessFun:
; File C:\Anka2Project\Anka2Project\Source\Binary\source\UserInterface\InstanceBase.cpp

; 2027 : 			rPlayer.EndEmotionProcess();

  0019f	8b 01		 mov	 eax, DWORD PTR [ecx]
  001a1	ff 90 88 00 00
	00		 call	 DWORD PTR [eax+136]
$LN21@ProcessFun:

; 2028 : 		}
; 2029 : 	}
; 2030 : 
; 2031 : 	if (__IsMainInstance())

  001a7	8b 5d fc	 mov	 ebx, DWORD PTR _this$1$[ebp]
$LN5@ProcessFun:
  001aa	8b cb		 mov	 ecx, ebx
  001ac	e8 00 00 00 00	 call	 ?__IsMainInstance@CInstanceBase@@IAE_NXZ ; CInstanceBase::__IsMainInstance
  001b1	5f		 pop	 edi
  001b2	5b		 pop	 ebx
  001b3	84 c0		 test	 al, al
  001b5	74 2c		 je	 SHORT $LN6@ProcessFun
; File C:\Anka2Project\Anka2Project\Source\Binary\source\UserInterface\AbstractSingleton.h

; 24   : 		assert(ms_singleton!=nullptr);

  001b7	8b 0d 00 00 00
	00		 mov	 ecx, DWORD PTR ?ms_singleton@?$TAbstractSingleton@VIAbstractPlayer@@@@0PAVIAbstractPlayer@@A ; TAbstractSingleton<IAbstractPlayer>::ms_singleton
  001bd	85 c9		 test	 ecx, ecx
  001bf	75 1a		 jne	 SHORT $LN20@ProcessFun
  001c1	6a 18		 push	 24			; 00000018H
  001c3	68 00 00 00 00	 push	 OFFSET ??_C@_1KI@FIPHLMOB@?$AAC?$AA?3?$AA?2?$AAA?$AAn?$AAk?$AAa?$AA2?$AAP?$AAr?$AAo?$AAj?$AAe?$AAc?$AAt@
  001c8	68 00 00 00 00	 push	 OFFSET ??_C@_1CM@FPMBEAEA@?$AAm?$AAs?$AA_?$AAs?$AAi?$AAn?$AAg?$AAl?$AAe?$AAt?$AAo?$AAn?$AA?$CB?$AA?$DN?$AAn@
  001cd	e8 00 00 00 00	 call	 __wassert
  001d2	8b 0d 00 00 00
	00		 mov	 ecx, DWORD PTR ?ms_singleton@?$TAbstractSingleton@VIAbstractPlayer@@@@0PAVIAbstractPlayer@@A ; TAbstractSingleton<IAbstractPlayer>::ms_singleton
  001d8	83 c4 0c	 add	 esp, 12			; 0000000cH
$LN20@ProcessFun:
; File C:\Anka2Project\Anka2Project\Source\Binary\source\UserInterface\InstanceBase.cpp

; 2034 : 		rPlayer.EndEmotionProcess();

  001db	8b 01		 mov	 eax, DWORD PTR [ecx]
  001dd	ff 90 88 00 00
	00		 call	 DWORD PTR [eax+136]
$LN6@ProcessFun:

; 2035 : 	}
; 2036 : }

  001e3	8b e5		 mov	 esp, ebp
  001e5	5d		 pop	 ebp
  001e6	c2 0c 00	 ret	 12			; 0000000cH
?__ProcessFunctionEmotion@CInstanceBase@@IAEXKKABUD3DXVECTOR3@@@Z ENDP ; CInstanceBase::__ProcessFunctionEmotion
_TEXT	ENDS
; Function compile flags: /Ogtp
; File C:\Anka2Project\Anka2Project\Source\Binary\source\UserInterface\InstanceBase.cpp
; File C:\Anka2Project\Anka2Project\Source\Binary\source\eterBase\Singleton.h
; File C:\Anka2Project\Anka2Project\Source\Binary\source\UserInterface\InstanceBase.cpp
; File C:\Anka2Project\Anka2Project\Source\Binary\source\eterBase\Singleton.h
; File C:\Anka2Project\Anka2Project\Source\Binary\source\UserInterface\InstanceBase.cpp
; File C:\Anka2Project\Anka2Project\Source\Binary\source\eterBase\Singleton.h
; File C:\Anka2Project\Anka2Project\Source\Binary\source\UserInterface\InstanceBase.cpp
; File C:\Anka2Project\Anka2Project\Source\Binary\source\eterBase\Singleton.h
; File C:\Anka2Project\Anka2Project\Source\Binary\source\UserInterface\InstanceBase.cpp
; File C:\Anka2Project\Anka2Project\Source\Binary\source\eterBase\Singleton.h
; File C:\Anka2Project\Anka2Project\Source\Binary\source\UserInterface\InstanceBase.cpp
; File C:\Anka2Project\Anka2Project\Source\Binary\source\eterBase\Singleton.h
; File C:\Anka2Project\Anka2Project\Source\Binary\source\UserInterface\InstanceBase.cpp
;	COMDAT ?Update@CInstanceBase@@QAEXXZ
_TEXT	SEGMENT
_kPPosCur$7 = -16					; size = 12
__$ArrayPad$ = -4					; size = 4
?Update@CInstanceBase@@QAEXXZ PROC			; CInstanceBase::Update, COMDAT
; _this$ = ecx

; 2041 : {

  00000	55		 push	 ebp
  00001	8b ec		 mov	 ebp, esp
  00003	83 ec 10	 sub	 esp, 16			; 00000010H
  00006	a1 00 00 00 00	 mov	 eax, DWORD PTR ___security_cookie
  0000b	33 c5		 xor	 eax, ebp
  0000d	89 45 fc	 mov	 DWORD PTR __$ArrayPad$[ebp], eax

; 2042 : 	++ms_dwUpdateCounter;

  00010	ff 05 00 00 00
	00		 inc	 DWORD PTR ?ms_dwUpdateCounter@CInstanceBase@@1KA ; CInstanceBase::ms_dwUpdateCounter
  00016	56		 push	 esi
  00017	57		 push	 edi
  00018	8b f1		 mov	 esi, ecx

; 2043 : 
; 2044 : 	StateProcess();

  0001a	e8 00 00 00 00	 call	 ?StateProcess@CInstanceBase@@IAEXXZ ; CInstanceBase::StateProcess

; 2045 : 	m_GraphicThingInstance.PhysicsProcess();

  0001f	8d be f4 02 00
	00		 lea	 edi, DWORD PTR [esi+756]
  00025	8b cf		 mov	 ecx, edi
  00027	e8 00 00 00 00	 call	 ?PhysicsProcess@CActorInstance@@QAEXXZ ; CActorInstance::PhysicsProcess

; 2046 : 	m_GraphicThingInstance.RotationProcess();

  0002c	8b cf		 mov	 ecx, edi
  0002e	e8 00 00 00 00	 call	 ?RotationProcess@CActorInstance@@QAEXXZ ; CActorInstance::RotationProcess

; 2047 : 	m_GraphicThingInstance.ComboProcess();

  00033	8b cf		 mov	 ecx, edi
  00035	e8 00 00 00 00	 call	 ?ComboProcess@CActorInstance@@QAEXXZ ; CActorInstance::ComboProcess

; 2048 : 	m_GraphicThingInstance.AccumulationMovement();

  0003a	8b cf		 mov	 ecx, edi
  0003c	e8 00 00 00 00	 call	 ?AccumulationMovement@CActorInstance@@QAEXXZ ; CActorInstance::AccumulationMovement

; 2049 : 
; 2050 : 	if (m_GraphicThingInstance.IsMovement())

  00041	8b cf		 mov	 ecx, edi
  00043	e8 00 00 00 00	 call	 ?IsMovement@CActorInstance@@QAEHXZ ; CActorInstance::IsMovement
  00048	85 c0		 test	 eax, eax
  0004a	74 4c		 je	 SHORT $LN2@Update

; 2051 : 	{
; 2052 : 		TPixelPosition kPPosCur;
; 2053 : 		NEW_GetPixelPosition(&kPPosCur);

  0004c	8d 45 f0	 lea	 eax, DWORD PTR _kPPosCur$7[ebp]
  0004f	8b ce		 mov	 ecx, esi
  00051	50		 push	 eax
  00052	e8 00 00 00 00	 call	 ?NEW_GetPixelPosition@CInstanceBase@@QAEXPAUD3DXVECTOR3@@@Z ; CInstanceBase::NEW_GetPixelPosition

; 2054 : 
; 2055 : 		DWORD dwCurTime=ELTimer_GetFrameMSec();

  00057	e8 00 00 00 00	 call	 ?ELTimer_GetFrameMSec@@YAKXZ ; ELTimer_GetFrameMSec

; 2056 : 
; 2057 : 		{
; 2058 : 			m_dwNextUpdateHeightTime=dwCurTime;
; 2059 : 			kPPosCur.z = __GetBackgroundHeight(kPPosCur.x, kPPosCur.y);

  0005c	f3 0f 10 4d f4	 movss	 xmm1, DWORD PTR _kPPosCur$7[ebp+4]
  00061	f3 0f 10 45 f0	 movss	 xmm0, DWORD PTR _kPPosCur$7[ebp]
  00066	89 86 94 02 00
	00		 mov	 DWORD PTR [esi+660], eax
  0006c	e8 00 00 00 00	 call	 ?__GetBackgroundHeight@CInstanceBase@@KAMMM@Z ; CInstanceBase::__GetBackgroundHeight

; 2060 : 			NEW_SetPixelPosition(kPPosCur);

  00071	8d 45 f0	 lea	 eax, DWORD PTR _kPPosCur$7[ebp]
  00074	f3 0f 11 45 f8	 movss	 DWORD PTR _kPPosCur$7[ebp+8], xmm0
  00079	50		 push	 eax
  0007a	8b ce		 mov	 ecx, esi
  0007c	e8 00 00 00 00	 call	 ?NEW_SetPixelPosition@CInstanceBase@@QAEXABUD3DXVECTOR3@@@Z ; CInstanceBase::NEW_SetPixelPosition

; 2061 : 		}
; 2062 : 
; 2063 : 		{
; 2064 : 			DWORD dwMtrlColor=__GetShadowMapColor(kPPosCur.x, kPPosCur.y);

  00081	f3 0f 10 4d f4	 movss	 xmm1, DWORD PTR _kPPosCur$7[ebp+4]
  00086	f3 0f 10 45 f0	 movss	 xmm0, DWORD PTR _kPPosCur$7[ebp]
  0008b	e8 00 00 00 00	 call	 ?__GetShadowMapColor@CInstanceBase@@KAKMM@Z ; CInstanceBase::__GetShadowMapColor

; 2065 : 			m_GraphicThingInstance.SetMaterialColor(dwMtrlColor);

  00090	50		 push	 eax
  00091	8b cf		 mov	 ecx, edi
  00093	e8 00 00 00 00	 call	 ?SetMaterialColor@CActorInstance@@QAEXK@Z ; CActorInstance::SetMaterialColor
$LN2@Update:

; 2066 : 		}
; 2067 : 	}
; 2068 : 
; 2069 : 	m_GraphicThingInstance.UpdateAdvancingPointInstance();

  00098	8b cf		 mov	 ecx, edi
  0009a	e8 00 00 00 00	 call	 ?UpdateAdvancingPointInstance@CActorInstance@@QAEXXZ ; CActorInstance::UpdateAdvancingPointInstance

; 2070 : 
; 2071 : 	AttackProcess();

  0009f	8b ce		 mov	 ecx, esi
  000a1	e8 00 00 00 00	 call	 ?AttackProcess@CInstanceBase@@IAEXXZ ; CInstanceBase::AttackProcess

; 2072 : 	MovementProcess();

  000a6	8b ce		 mov	 ecx, esi
  000a8	e8 00 00 00 00	 call	 ?MovementProcess@CInstanceBase@@IAEXXZ ; CInstanceBase::MovementProcess

; 2073 : 
; 2074 : 	m_GraphicThingInstance.MotionProcess(IsPC());

  000ad	8b ce		 mov	 ecx, esi
  000af	e8 00 00 00 00	 call	 ?IsPC@CInstanceBase@@QAEHXZ ; CInstanceBase::IsPC
  000b4	50		 push	 eax
  000b5	8b cf		 mov	 ecx, edi
  000b7	e8 00 00 00 00	 call	 ?MotionProcess@CActorInstance@@QAEXH@Z ; CActorInstance::MotionProcess

; 2075 : 
; 2076 : 	if (IsPoly())

  000bc	8b ce		 mov	 ecx, esi
  000be	e8 00 00 00 00	 call	 ?IsPoly@CInstanceBase@@QAEHXZ ; CInstanceBase::IsPoly
  000c3	85 c0		 test	 eax, eax
  000c5	74 07		 je	 SHORT $LN3@Update

; 2077 : 		__ClearArmorRefineEffect(); // Fix

  000c7	8b ce		 mov	 ecx, esi
  000c9	e8 00 00 00 00	 call	 ?__ClearArmorRefineEffect@CInstanceBase@@IAEXXZ ; CInstanceBase::__ClearArmorRefineEffect
$LN3@Update:
; File C:\Anka2Project\Anka2Project\Source\Binary\source\eterBase\Singleton.h

; 37   : 		assert(ms_singleton);

  000ce	8b 0d 00 00 00
	00		 mov	 ecx, DWORD PTR ?ms_singleton@?$CSingleton@VCPythonSystem@@@@0PAVCPythonSystem@@A ; CSingleton<CPythonSystem>::ms_singleton
  000d4	85 c9		 test	 ecx, ecx
  000d6	75 1a		 jne	 SHORT $LN38@Update
  000d8	6a 25		 push	 37			; 00000025H
  000da	68 00 00 00 00	 push	 OFFSET ??_C@_1IO@CAJLEEOI@?$AAC?$AA?3?$AA?2?$AAA?$AAn?$AAk?$AAa?$AA2?$AAP?$AAr?$AAo?$AAj?$AAe?$AAc?$AAt@
  000df	68 00 00 00 00	 push	 OFFSET ??_C@_1BK@FMEHPMFE@?$AAm?$AAs?$AA_?$AAs?$AAi?$AAn?$AAg?$AAl?$AAe?$AAt?$AAo?$AAn@
  000e4	e8 00 00 00 00	 call	 __wassert
  000e9	8b 0d 00 00 00
	00		 mov	 ecx, DWORD PTR ?ms_singleton@?$CSingleton@VCPythonSystem@@@@0PAVCPythonSystem@@A ; CSingleton<CPythonSystem>::ms_singleton
  000ef	83 c4 0c	 add	 esp, 12			; 0000000cH
$LN38@Update:
; File C:\Anka2Project\Anka2Project\Source\Binary\source\UserInterface\InstanceBase.cpp

; 2080 : 	if (CPythonSystem::instance().GetEffectLevel() == 4)

  000f2	e8 00 00 00 00	 call	 ?GetEffectLevel@CPythonSystem@@QAEHXZ ; CPythonSystem::GetEffectLevel
  000f7	83 f8 04	 cmp	 eax, 4
  000fa	0f 84 cc 00 00
	00		 je	 $LN20@Update
; File C:\Anka2Project\Anka2Project\Source\Binary\source\eterBase\Singleton.h

; 37   : 		assert(ms_singleton);

  00100	85 c9		 test	 ecx, ecx
  00102	75 1a		 jne	 SHORT $LN41@Update
  00104	6a 25		 push	 37			; 00000025H
  00106	68 00 00 00 00	 push	 OFFSET ??_C@_1IO@CAJLEEOI@?$AAC?$AA?3?$AA?2?$AAA?$AAn?$AAk?$AAa?$AA2?$AAP?$AAr?$AAo?$AAj?$AAe?$AAc?$AAt@
  0010b	68 00 00 00 00	 push	 OFFSET ??_C@_1BK@FMEHPMFE@?$AAm?$AAs?$AA_?$AAs?$AAi?$AAn?$AAg?$AAl?$AAe?$AAt?$AAo?$AAn@
  00110	e8 00 00 00 00	 call	 __wassert
  00115	8b 0d 00 00 00
	00		 mov	 ecx, DWORD PTR ?ms_singleton@?$CSingleton@VCPythonSystem@@@@0PAVCPythonSystem@@A ; CSingleton<CPythonSystem>::ms_singleton
  0011b	83 c4 0c	 add	 esp, 12			; 0000000cH
$LN41@Update:
; File C:\Anka2Project\Anka2Project\Source\Binary\source\UserInterface\InstanceBase.cpp

; 2084 : 	else if (CPythonSystem::instance().GetEffectLevel() == 3)

  0011e	e8 00 00 00 00	 call	 ?GetEffectLevel@CPythonSystem@@QAEHXZ ; CPythonSystem::GetEffectLevel
  00123	83 f8 03	 cmp	 eax, 3
  00126	75 0b		 jne	 SHORT $LN6@Update

; 2085 : 	{
; 2086 : 		if (!__IsMainInstance())

  00128	8b ce		 mov	 ecx, esi
  0012a	e8 00 00 00 00	 call	 ?__IsMainInstance@CInstanceBase@@IAE_NXZ ; CInstanceBase::__IsMainInstance
  0012f	84 c0		 test	 al, al

; 2087 : 			m_GraphicThingInstance.SetDeactiveAllAttachingEffect();
; 2088 : 		else
; 2089 : 			if (!IsInvisibility())

  00131	eb 78		 jmp	 SHORT $LN62@Update
$LN6@Update:
; File C:\Anka2Project\Anka2Project\Source\Binary\source\eterBase\Singleton.h

; 37   : 		assert(ms_singleton);

  00133	85 c9		 test	 ecx, ecx
  00135	75 1a		 jne	 SHORT $LN44@Update
  00137	6a 25		 push	 37			; 00000025H
  00139	68 00 00 00 00	 push	 OFFSET ??_C@_1IO@CAJLEEOI@?$AAC?$AA?3?$AA?2?$AAA?$AAn?$AAk?$AAa?$AA2?$AAP?$AAr?$AAo?$AAj?$AAe?$AAc?$AAt@
  0013e	68 00 00 00 00	 push	 OFFSET ??_C@_1BK@FMEHPMFE@?$AAm?$AAs?$AA_?$AAs?$AAi?$AAn?$AAg?$AAl?$AAe?$AAt?$AAo?$AAn@
  00143	e8 00 00 00 00	 call	 __wassert
  00148	8b 0d 00 00 00
	00		 mov	 ecx, DWORD PTR ?ms_singleton@?$CSingleton@VCPythonSystem@@@@0PAVCPythonSystem@@A ; CSingleton<CPythonSystem>::ms_singleton
  0014e	83 c4 0c	 add	 esp, 12			; 0000000cH
$LN44@Update:
; File C:\Anka2Project\Anka2Project\Source\Binary\source\UserInterface\InstanceBase.cpp

; 2092 : 	else if (CPythonSystem::instance().GetEffectLevel() == 2)

  00151	e8 00 00 00 00	 call	 ?GetEffectLevel@CPythonSystem@@QAEHXZ ; CPythonSystem::GetEffectLevel
  00156	83 f8 02	 cmp	 eax, 2
  00159	75 09		 jne	 SHORT $LN11@Update

; 2093 : 	{
; 2094 : 		if (!IsPC())

  0015b	8b ce		 mov	 ecx, esi
  0015d	e8 00 00 00 00	 call	 ?IsPC@CInstanceBase@@QAEHXZ ; CInstanceBase::IsPC

; 2095 : 			m_GraphicThingInstance.SetDeactiveAllAttachingEffect();
; 2096 : 		else
; 2097 : 			if (!IsInvisibility())

  00162	eb 45		 jmp	 SHORT $LN61@Update
$LN11@Update:
; File C:\Anka2Project\Anka2Project\Source\Binary\source\eterBase\Singleton.h

; 37   : 		assert(ms_singleton);

  00164	85 c9		 test	 ecx, ecx
  00166	75 1a		 jne	 SHORT $LN47@Update
  00168	6a 25		 push	 37			; 00000025H
  0016a	68 00 00 00 00	 push	 OFFSET ??_C@_1IO@CAJLEEOI@?$AAC?$AA?3?$AA?2?$AAA?$AAn?$AAk?$AAa?$AA2?$AAP?$AAr?$AAo?$AAj?$AAe?$AAc?$AAt@
  0016f	68 00 00 00 00	 push	 OFFSET ??_C@_1BK@FMEHPMFE@?$AAm?$AAs?$AA_?$AAs?$AAi?$AAn?$AAg?$AAl?$AAe?$AAt?$AAo?$AAn@
  00174	e8 00 00 00 00	 call	 __wassert
  00179	8b 0d 00 00 00
	00		 mov	 ecx, DWORD PTR ?ms_singleton@?$CSingleton@VCPythonSystem@@@@0PAVCPythonSystem@@A ; CSingleton<CPythonSystem>::ms_singleton
  0017f	83 c4 0c	 add	 esp, 12			; 0000000cH
$LN47@Update:
; File C:\Anka2Project\Anka2Project\Source\Binary\source\UserInterface\InstanceBase.cpp

; 2100 : 	else if (CPythonSystem::instance().GetEffectLevel() == 1)

  00182	e8 00 00 00 00	 call	 ?GetEffectLevel@CPythonSystem@@QAEHXZ ; CPythonSystem::GetEffectLevel
  00187	8b ce		 mov	 ecx, esi
  00189	83 f8 01	 cmp	 eax, 1
  0018c	75 2c		 jne	 SHORT $LN16@Update

; 2101 : 	{
; 2102 : 		if (!__IsMainInstance() || !IsEnemy() && !IsNPC())

  0018e	e8 00 00 00 00	 call	 ?__IsMainInstance@CInstanceBase@@IAE_NXZ ; CInstanceBase::__IsMainInstance
  00193	84 c0		 test	 al, al
  00195	74 35		 je	 SHORT $LN20@Update
  00197	8b ce		 mov	 ecx, esi
  00199	e8 00 00 00 00	 call	 ?IsEnemy@CInstanceBase@@QAEHXZ ; CInstanceBase::IsEnemy
  0019e	85 c0		 test	 eax, eax
  001a0	75 0b		 jne	 SHORT $LN18@Update
  001a2	8b ce		 mov	 ecx, esi
  001a4	e8 00 00 00 00	 call	 ?IsNPC@CInstanceBase@@QAEHXZ ; CInstanceBase::IsNPC
$LN61@Update:

; 2112 : 	}
; 2113 : 
; 2114 : 	if (IsPet() || IsMount()
; 2115 : #ifdef ENABLE_GROWTH_PET_SYSTEM
; 2116 : 		|| IsGrowthPet()

  001a9	85 c0		 test	 eax, eax
$LN62@Update:
  001ab	74 1f		 je	 SHORT $LN20@Update
$LN18@Update:
  001ad	8b ce		 mov	 ecx, esi
  001af	e8 00 00 00 00	 call	 ?IsInvisibility@CInstanceBase@@QAEHXZ ; CInstanceBase::IsInvisibility
  001b4	85 c0		 test	 eax, eax
  001b6	74 0b		 je	 SHORT $LN54@Update
  001b8	eb 19		 jmp	 SHORT $LN22@Update
$LN16@Update:

; 2104 : 		else
; 2105 : 			if (!IsInvisibility())
; 2106 : 				m_GraphicThingInstance.SetActiveAllAttachingEffect();
; 2107 : 	}
; 2108 : 	else
; 2109 : 	{
; 2110 : 		if (!IsInvisibility())

  001ba	e8 00 00 00 00	 call	 ?IsInvisibility@CInstanceBase@@QAEHXZ ; CInstanceBase::IsInvisibility
  001bf	85 c0		 test	 eax, eax
  001c1	75 10		 jne	 SHORT $LN22@Update
$LN54@Update:

; 2111 : 			m_GraphicThingInstance.SetActiveAllAttachingEffect();

  001c3	8b cf		 mov	 ecx, edi
  001c5	e8 00 00 00 00	 call	 ?SetActiveAllAttachingEffect@CActorInstance@@QAEXXZ ; CActorInstance::SetActiveAllAttachingEffect
  001ca	eb 07		 jmp	 SHORT $LN22@Update
$LN20@Update:

; 2103 : 			m_GraphicThingInstance.SetDeactiveAllAttachingEffect();

  001cc	8b cf		 mov	 ecx, edi
  001ce	e8 00 00 00 00	 call	 ?SetDeactiveAllAttachingEffect@CActorInstance@@QAEXXZ ; CActorInstance::SetDeactiveAllAttachingEffect
$LN22@Update:

; 2112 : 	}
; 2113 : 
; 2114 : 	if (IsPet() || IsMount()
; 2115 : #ifdef ENABLE_GROWTH_PET_SYSTEM
; 2116 : 		|| IsGrowthPet()

  001d3	8b ce		 mov	 ecx, esi
  001d5	e8 00 00 00 00	 call	 ?IsPet@CInstanceBase@@QAEHXZ ; CInstanceBase::IsPet
  001da	85 c0		 test	 eax, eax
  001dc	75 16		 jne	 SHORT $LN24@Update
  001de	8b ce		 mov	 ecx, esi
  001e0	e8 00 00 00 00	 call	 ?IsMount@CInstanceBase@@QAEHXZ ; CInstanceBase::IsMount
  001e5	85 c0		 test	 eax, eax
  001e7	75 0b		 jne	 SHORT $LN24@Update
  001e9	8b ce		 mov	 ecx, esi
  001eb	e8 00 00 00 00	 call	 ?IsGrowthPet@CInstanceBase@@QAEHXZ ; CInstanceBase::IsGrowthPet
  001f0	85 c0		 test	 eax, eax
  001f2	74 6c		 je	 SHORT $LN28@Update
$LN24@Update:
; File C:\Anka2Project\Anka2Project\Source\Binary\source\eterBase\Singleton.h

; 37   : 		assert(ms_singleton);

  001f4	8b 0d 00 00 00
	00		 mov	 ecx, DWORD PTR ?ms_singleton@?$CSingleton@VCPythonSystem@@@@0PAVCPythonSystem@@A ; CSingleton<CPythonSystem>::ms_singleton
  001fa	85 c9		 test	 ecx, ecx
  001fc	75 1a		 jne	 SHORT $LN50@Update
  001fe	6a 25		 push	 37			; 00000025H
  00200	68 00 00 00 00	 push	 OFFSET ??_C@_1IO@CAJLEEOI@?$AAC?$AA?3?$AA?2?$AAA?$AAn?$AAk?$AAa?$AA2?$AAP?$AAr?$AAo?$AAj?$AAe?$AAc?$AAt@
  00205	68 00 00 00 00	 push	 OFFSET ??_C@_1BK@FMEHPMFE@?$AAm?$AAs?$AA_?$AAs?$AAi?$AAn?$AAg?$AAl?$AAe?$AAt?$AAo?$AAn@
  0020a	e8 00 00 00 00	 call	 __wassert
  0020f	8b 0d 00 00 00
	00		 mov	 ecx, DWORD PTR ?ms_singleton@?$CSingleton@VCPythonSystem@@@@0PAVCPythonSystem@@A ; CSingleton<CPythonSystem>::ms_singleton
  00215	83 c4 0c	 add	 esp, 12			; 0000000cH
$LN50@Update:
; File C:\Anka2Project\Anka2Project\Source\Binary\source\UserInterface\InstanceBase.cpp

; 2120 : 		if (CPythonSystem::instance().IsPetStatus() == 1)

  00218	e8 00 00 00 00	 call	 ?IsPetStatus@CPythonSystem@@QAE_NXZ ; CPythonSystem::IsPetStatus
  0021d	8b ce		 mov	 ecx, esi
  0021f	6a 01		 push	 1
  00221	3c 01		 cmp	 al, 1
  00223	75 18		 jne	 SHORT $LN25@Update

; 2121 : 		{
; 2122 : 			if (!IsAffect(AFFECT_INVISIBILITY))

  00225	e8 00 00 00 00	 call	 ?IsAffect@CInstanceBase@@QAE_NI@Z ; CInstanceBase::IsAffect
  0022a	84 c0		 test	 al, al
  0022c	75 32		 jne	 SHORT $LN28@Update

; 2123 : 			{
; 2124 : 				__SetAffect(AFFECT_INVISIBILITY, true);

  0022e	6a 01		 push	 1
  00230	6a 01		 push	 1
  00232	8b ce		 mov	 ecx, esi
  00234	e8 00 00 00 00	 call	 ?__SetAffect@CInstanceBase@@QAEXI_N@Z ; CInstanceBase::__SetAffect

; 2125 : 				m_kAffectFlagContainer.Set(AFFECT_INVISIBILITY, true);

  00239	6a 01		 push	 1

; 2126 : 			}
; 2127 : 		}

  0023b	eb 16		 jmp	 SHORT $LN63@Update
$LN25@Update:

; 2128 : 		else
; 2129 : 		{
; 2130 : 			if (IsAffect(AFFECT_INVISIBILITY))

  0023d	e8 00 00 00 00	 call	 ?IsAffect@CInstanceBase@@QAE_NI@Z ; CInstanceBase::IsAffect
  00242	84 c0		 test	 al, al
  00244	74 1a		 je	 SHORT $LN28@Update

; 2131 : 			{
; 2132 : 				__SetAffect(AFFECT_INVISIBILITY, false);

  00246	6a 00		 push	 0
  00248	6a 01		 push	 1
  0024a	8b ce		 mov	 ecx, esi
  0024c	e8 00 00 00 00	 call	 ?__SetAffect@CInstanceBase@@QAEXI_N@Z ; CInstanceBase::__SetAffect

; 2133 : 				m_kAffectFlagContainer.Set(AFFECT_INVISIBILITY, false);

  00251	6a 00		 push	 0
$LN63@Update:

; 2134 : 			}
; 2135 : 		}
; 2136 : 	}
; 2137 : 
; 2138 : 	if (IsShop())

  00253	6a 01		 push	 1
  00255	8d 8e 55 01 00
	00		 lea	 ecx, DWORD PTR [esi+341]
  0025b	e8 00 00 00 00	 call	 ?Set@CAffectFlagContainer@@QAEXI_N@Z ; CAffectFlagContainer::Set
$LN28@Update:
  00260	8b ce		 mov	 ecx, esi
  00262	e8 00 00 00 00	 call	 ?IsShop@CInstanceBase@@QAEHXZ ; CInstanceBase::IsShop
  00267	85 c0		 test	 eax, eax
  00269	74 6d		 je	 SHORT $LN33@Update
; File C:\Anka2Project\Anka2Project\Source\Binary\source\eterBase\Singleton.h

; 37   : 		assert(ms_singleton);

  0026b	8b 0d 00 00 00
	00		 mov	 ecx, DWORD PTR ?ms_singleton@?$CSingleton@VCPythonSystem@@@@0PAVCPythonSystem@@A ; CSingleton<CPythonSystem>::ms_singleton
  00271	85 c9		 test	 ecx, ecx
  00273	75 1a		 jne	 SHORT $LN53@Update
  00275	6a 25		 push	 37			; 00000025H
  00277	68 00 00 00 00	 push	 OFFSET ??_C@_1IO@CAJLEEOI@?$AAC?$AA?3?$AA?2?$AAA?$AAn?$AAk?$AAa?$AA2?$AAP?$AAr?$AAo?$AAj?$AAe?$AAc?$AAt@
  0027c	68 00 00 00 00	 push	 OFFSET ??_C@_1BK@FMEHPMFE@?$AAm?$AAs?$AA_?$AAs?$AAi?$AAn?$AAg?$AAl?$AAe?$AAt?$AAo?$AAn@
  00281	e8 00 00 00 00	 call	 __wassert
  00286	8b 0d 00 00 00
	00		 mov	 ecx, DWORD PTR ?ms_singleton@?$CSingleton@VCPythonSystem@@@@0PAVCPythonSystem@@A ; CSingleton<CPythonSystem>::ms_singleton
  0028c	83 c4 0c	 add	 esp, 12			; 0000000cH
$LN53@Update:
; File C:\Anka2Project\Anka2Project\Source\Binary\source\UserInterface\InstanceBase.cpp

; 2140 : 		if (CPythonSystem::instance().GetPrivateShopLevel() >= 3)

  0028f	e8 00 00 00 00	 call	 ?GetPrivateShopLevel@CPythonSystem@@QAEHXZ ; CPythonSystem::GetPrivateShopLevel
  00294	8b ce		 mov	 ecx, esi
  00296	6a 01		 push	 1
  00298	83 f8 03	 cmp	 eax, 3
  0029b	7c 18		 jl	 SHORT $LN30@Update

; 2141 : 		{
; 2142 : 			if (!IsAffect(AFFECT_INVISIBILITY))

  0029d	e8 00 00 00 00	 call	 ?IsAffect@CInstanceBase@@QAE_NI@Z ; CInstanceBase::IsAffect
  002a2	84 c0		 test	 al, al
  002a4	75 32		 jne	 SHORT $LN33@Update

; 2143 : 			{
; 2144 : 				__SetAffect(AFFECT_INVISIBILITY, true);

  002a6	6a 01		 push	 1
  002a8	6a 01		 push	 1
  002aa	8b ce		 mov	 ecx, esi
  002ac	e8 00 00 00 00	 call	 ?__SetAffect@CInstanceBase@@QAEXI_N@Z ; CInstanceBase::__SetAffect

; 2145 : 				m_kAffectFlagContainer.Set(AFFECT_INVISIBILITY, true);

  002b1	6a 01		 push	 1

; 2146 : 			}
; 2147 : 		}

  002b3	eb 16		 jmp	 SHORT $LN64@Update
$LN30@Update:

; 2148 : 		else
; 2149 : 		{
; 2150 : 			if (IsAffect(AFFECT_INVISIBILITY))

  002b5	e8 00 00 00 00	 call	 ?IsAffect@CInstanceBase@@QAE_NI@Z ; CInstanceBase::IsAffect
  002ba	84 c0		 test	 al, al
  002bc	74 1a		 je	 SHORT $LN33@Update

; 2151 : 			{
; 2152 : 				__SetAffect(AFFECT_INVISIBILITY, false);

  002be	6a 00		 push	 0
  002c0	6a 01		 push	 1
  002c2	8b ce		 mov	 ecx, esi
  002c4	e8 00 00 00 00	 call	 ?__SetAffect@CInstanceBase@@QAEXI_N@Z ; CInstanceBase::__SetAffect

; 2153 : 				m_kAffectFlagContainer.Set(AFFECT_INVISIBILITY, false);

  002c9	6a 00		 push	 0
$LN64@Update:

; 2154 : 			}
; 2155 : 		}
; 2156 : 	}
; 2157 : #endif
; 2158 : 
; 2159 : 	if (IsMountingHorse())

  002cb	6a 01		 push	 1
  002cd	8d 8e 55 01 00
	00		 lea	 ecx, DWORD PTR [esi+341]
  002d3	e8 00 00 00 00	 call	 ?Set@CAffectFlagContainer@@QAEXI_N@Z ; CAffectFlagContainer::Set
$LN33@Update:
  002d8	8b ce		 mov	 ecx, esi
  002da	e8 00 00 00 00	 call	 ?IsMountingHorse@CInstanceBase@@QAEHXZ ; CInstanceBase::IsMountingHorse
  002df	85 c0		 test	 eax, eax
  002e1	74 0a		 je	 SHORT $LN34@Update

; 2160 : 	{
; 2161 : 		m_kHorse.m_pkActor->HORSE_MotionProcess(FALSE);

  002e3	8b 4e 0c	 mov	 ecx, DWORD PTR [esi+12]
  002e6	6a 00		 push	 0
  002e8	e8 00 00 00 00	 call	 ?HORSE_MotionProcess@CActorInstance@@QAEXH@Z ; CActorInstance::HORSE_MotionProcess
$LN34@Update:

; 2162 : 	}
; 2163 : 
; 2164 : 	__ComboProcess();
; 2165 : 
; 2166 : 	ProcessRemoveOldDamage();

  002ed	8b ce		 mov	 ecx, esi
  002ef	e8 00 00 00 00	 call	 ?ProcessRemoveOldDamage@CInstanceBase@@IAEXXZ ; CInstanceBase::ProcessRemoveOldDamage

; 2167 : 	ProcessDamage();

  002f4	8b ce		 mov	 ecx, esi
  002f6	e8 00 00 00 00	 call	 ?ProcessDamage@CInstanceBase@@IAEXXZ ; CInstanceBase::ProcessDamage

; 2168 : 
; 2169 : #ifdef ENABLE_STONE_SCALE_OPTION
; 2170 : 	RefreshStoneScale();

  002fb	8b ce		 mov	 ecx, esi
  002fd	e8 00 00 00 00	 call	 ?RefreshStoneScale@CInstanceBase@@QAEXXZ ; CInstanceBase::RefreshStoneScale

; 2171 : #endif
; 2172 : }

  00302	8b 4d fc	 mov	 ecx, DWORD PTR __$ArrayPad$[ebp]
  00305	5f		 pop	 edi
  00306	33 cd		 xor	 ecx, ebp
  00308	5e		 pop	 esi
  00309	e8 00 00 00 00	 call	 @__security_check_cookie@4
  0030e	8b e5		 mov	 esp, ebp
  00310	5d		 pop	 ebp
  00311	c3		 ret	 0
?Update@CInstanceBase@@QAEXXZ ENDP			; CInstanceBase::Update
_TEXT	ENDS
; Function compile flags: /Ogtp
;	COMDAT ??__Fs_kScreen@?9??Render@CInstanceBase@@QAEXXZ@YAXXZ
text$yd	SEGMENT
??__Fs_kScreen@?9??Render@CInstanceBase@@QAEXXZ@YAXXZ PROC ; `CInstanceBase::Render'::`10'::`dynamic atexit destructor for 's_kScreen'', COMDAT
  00000	b9 00 00 00 00	 mov	 ecx, OFFSET ?s_kScreen@?9??Render@CInstanceBase@@QAEXXZ@4VCScreen@@A
  00005	e9 00 00 00 00	 jmp	 ??1CScreen@@UAE@XZ	; CScreen::~CScreen
??__Fs_kScreen@?9??Render@CInstanceBase@@QAEXXZ@YAXXZ ENDP ; `CInstanceBase::Render'::`10'::`dynamic atexit destructor for 's_kScreen''
text$yd	ENDS
; Function compile flags: /Ogtp
; File C:\Anka2Project\Anka2Project\Source\Binary\source\UserInterface\InstanceBase.cpp
; File C:\Anka2Project\Anka2Project\Source\Binary\source\UserInterface\AbstractSingleton.h
; File C:\Anka2Project\Anka2Project\Source\Binary\source\UserInterface\InstanceBase.cpp
;	COMDAT ?SetPKMode@CInstanceBase@@QAEXE@Z
_TEXT	SEGMENT
_byPKMode$ = 8						; size = 1
?SetPKMode@CInstanceBase@@QAEXE@Z PROC			; CInstanceBase::SetPKMode, COMDAT
; _this$ = ecx

; 2314 : {

  00000	55		 push	 ebp
  00001	8b ec		 mov	 ebp, esp

; 2315 : 	if (m_byPKMode == byPKMode)

  00003	8a 45 08	 mov	 al, BYTE PTR _byPKMode$[ebp]
  00006	38 81 7e 02 00
	00		 cmp	 BYTE PTR [ecx+638], al
  0000c	74 38		 je	 SHORT $LN3@SetPKMode

; 2316 : 		return;
; 2317 : 
; 2318 : 	m_byPKMode = byPKMode;

  0000e	88 81 7e 02 00
	00		 mov	 BYTE PTR [ecx+638], al

; 2319 : 
; 2320 : 	if (__IsMainInstance())

  00014	e8 00 00 00 00	 call	 ?__IsMainInstance@CInstanceBase@@IAE_NXZ ; CInstanceBase::__IsMainInstance
  00019	84 c0		 test	 al, al
  0001b	74 29		 je	 SHORT $LN3@SetPKMode
; File C:\Anka2Project\Anka2Project\Source\Binary\source\UserInterface\AbstractSingleton.h

; 24   : 		assert(ms_singleton!=nullptr);

  0001d	8b 0d 00 00 00
	00		 mov	 ecx, DWORD PTR ?ms_singleton@?$TAbstractSingleton@VIAbstractPlayer@@@@0PAVIAbstractPlayer@@A ; TAbstractSingleton<IAbstractPlayer>::ms_singleton
  00023	85 c9		 test	 ecx, ecx
  00025	75 1a		 jne	 SHORT $LN7@SetPKMode
  00027	6a 18		 push	 24			; 00000018H
  00029	68 00 00 00 00	 push	 OFFSET ??_C@_1KI@FIPHLMOB@?$AAC?$AA?3?$AA?2?$AAA?$AAn?$AAk?$AAa?$AA2?$AAP?$AAr?$AAo?$AAj?$AAe?$AAc?$AAt@
  0002e	68 00 00 00 00	 push	 OFFSET ??_C@_1CM@FPMBEAEA@?$AAm?$AAs?$AA_?$AAs?$AAi?$AAn?$AAg?$AAl?$AAe?$AAt?$AAo?$AAn?$AA?$CB?$AA?$DN?$AAn@
  00033	e8 00 00 00 00	 call	 __wassert
  00038	8b 0d 00 00 00
	00		 mov	 ecx, DWORD PTR ?ms_singleton@?$TAbstractSingleton@VIAbstractPlayer@@@@0PAVIAbstractPlayer@@A ; TAbstractSingleton<IAbstractPlayer>::ms_singleton
  0003e	83 c4 0c	 add	 esp, 12			; 0000000cH
$LN7@SetPKMode:
; File C:\Anka2Project\Anka2Project\Source\Binary\source\UserInterface\InstanceBase.cpp

; 2323 : 		rPlayer.NotifyChangePKMode();

  00041	8b 01		 mov	 eax, DWORD PTR [ecx]
  00043	ff 50 78	 call	 DWORD PTR [eax+120]
$LN3@SetPKMode:

; 2324 : 	}
; 2325 : }

  00046	5d		 pop	 ebp
  00047	c2 04 00	 ret	 4
?SetPKMode@CInstanceBase@@QAEXE@Z ENDP			; CInstanceBase::SetPKMode
_TEXT	ENDS
; Function compile flags: /Ogtp
; File C:\Anka2Project\Anka2Project\Source\Binary\source\UserInterface\InstanceBase.cpp
;	COMDAT ?SetDuelMode@CInstanceBase@@QAEXK@Z
_TEXT	SEGMENT
_type$ = 8						; size = 4
?SetDuelMode@CInstanceBase@@QAEXK@Z PROC		; CInstanceBase::SetDuelMode, COMDAT
; _this$ = ecx

; 2412 : {

  00000	55		 push	 ebp
  00001	8b ec		 mov	 ebp, esp

; 2413 : 	m_dwDuelMode = type;

  00003	8b 45 08	 mov	 eax, DWORD PTR _type$[ebp]
  00006	89 81 68 1d 00
	00		 mov	 DWORD PTR [ecx+7528], eax

; 2414 : }

  0000c	5d		 pop	 ebp
  0000d	c2 04 00	 ret	 4
?SetDuelMode@CInstanceBase@@QAEXK@Z ENDP		; CInstanceBase::SetDuelMode
_TEXT	ENDS
; Function compile flags: /Ogtp
; File C:\Anka2Project\Anka2Project\Source\Binary\source\UserInterface\InstanceBase.cpp
;	COMDAT ?GetDuelMode@CInstanceBase@@QAEKXZ
_TEXT	SEGMENT
?GetDuelMode@CInstanceBase@@QAEKXZ PROC			; CInstanceBase::GetDuelMode, COMDAT
; _this$ = ecx

; 2418 : 	return m_dwDuelMode;

  00000	8b 81 68 1d 00
	00		 mov	 eax, DWORD PTR [ecx+7528]

; 2419 : }

  00006	c3		 ret	 0
?GetDuelMode@CInstanceBase@@QAEKXZ ENDP			; CInstanceBase::GetDuelMode
_TEXT	ENDS
; Function compile flags: /Ogtp
; File C:\Anka2Project\Anka2Project\Source\Binary\source\UserInterface\InstanceBase.cpp
; File C:\Anka2Project\Anka2Project\Source\Binary\source\eterBase\Singleton.h
; File C:\Anka2Project\Anka2Project\Source\Binary\source\UserInterface\InstanceBase.cpp
; File C:\Anka2Project\Anka2Project\Source\Binary\source\eterBase\Singleton.h
; File C:\Anka2Project\Anka2Project\Source\Binary\source\UserInterface\InstanceBase.cpp
; File C:\Anka2Project\Anka2Project\Source\Binary\source\UserInterface\AbstractSingleton.h
; File C:\Anka2Project\Anka2Project\Source\Binary\source\UserInterface\InstanceBase.cpp
; File C:\Anka2Project\Anka2Project\Source\Binary\source\UserInterface\AbstractSingleton.h
; File C:\Anka2Project\Anka2Project\Source\Binary\source\UserInterface\InstanceBase.cpp
; File C:\Anka2Project\Anka2Project\Source\Binary\source\UserInterface\AbstractSingleton.h
; File C:\Anka2Project\Anka2Project\Source\Binary\source\UserInterface\InstanceBase.cpp
; File C:\Anka2Project\Anka2Project\Source\Binary\source\UserInterface\AbstractSingleton.h
; File C:\Anka2Project\Anka2Project\Source\Binary\source\UserInterface\InstanceBase.cpp
;	COMDAT ?IsAttackableInstance@CInstanceBase@@QAE_NAAV1@@Z
_TEXT	SEGMENT
_this$1$ = -4						; size = 4
_rkInstVictim$ = 8					; size = 4
?ms_singleton@?$TAbstractSingleton@VIAbstractPlayer@@@@0PAVIAbstractPlayer@@A$1 = 8 ; size = 4
?ms_singleton@?$TAbstractSingleton@VIAbstractPlayer@@@@0PAVIAbstractPlayer@@A$2 = 8 ; size = 4
?ms_singleton@?$TAbstractSingleton@VIAbstractPlayer@@@@0PAVIAbstractPlayer@@A$3 = 8 ; size = 4
?ms_singleton@?$TAbstractSingleton@VIAbstractPlayer@@@@0PAVIAbstractPlayer@@A$4 = 8 ; size = 4
?IsAttackableInstance@CInstanceBase@@QAE_NAAV1@@Z PROC	; CInstanceBase::IsAttackableInstance, COMDAT
; _this$ = ecx

; 2422 : {	

  00000	55		 push	 ebp
  00001	8b ec		 mov	 ebp, esp
  00003	51		 push	 ecx
  00004	53		 push	 ebx
  00005	56		 push	 esi
  00006	57		 push	 edi
  00007	8b f9		 mov	 edi, ecx
  00009	89 7d fc	 mov	 DWORD PTR _this$1$[ebp], edi

; 2423 : 	if (__IsMainInstance())

  0000c	e8 00 00 00 00	 call	 ?__IsMainInstance@CInstanceBase@@IAE_NXZ ; CInstanceBase::__IsMainInstance
  00011	84 c0		 test	 al, al
  00013	74 2d		 je	 SHORT $LN5@IsAttackab
; File C:\Anka2Project\Anka2Project\Source\Binary\source\eterBase\Singleton.h

; 26   : 		assert(ms_singleton);

  00015	8b 0d 00 00 00
	00		 mov	 ecx, DWORD PTR ?ms_singleton@?$CSingleton@VCPythonPlayer@@@@0PAVCPythonPlayer@@A ; CSingleton<CPythonPlayer>::ms_singleton
  0001b	85 c9		 test	 ecx, ecx
  0001d	75 1a		 jne	 SHORT $LN50@IsAttackab
  0001f	6a 1a		 push	 26			; 0000001aH
  00021	68 00 00 00 00	 push	 OFFSET ??_C@_1IO@CAJLEEOI@?$AAC?$AA?3?$AA?2?$AAA?$AAn?$AAk?$AAa?$AA2?$AAP?$AAr?$AAo?$AAj?$AAe?$AAc?$AAt@
  00026	68 00 00 00 00	 push	 OFFSET ??_C@_1BK@FMEHPMFE@?$AAm?$AAs?$AA_?$AAs?$AAi?$AAn?$AAg?$AAl?$AAe?$AAt?$AAo?$AAn@
  0002b	e8 00 00 00 00	 call	 __wassert
  00030	8b 0d 00 00 00
	00		 mov	 ecx, DWORD PTR ?ms_singleton@?$CSingleton@VCPythonPlayer@@@@0PAVCPythonPlayer@@A ; CSingleton<CPythonPlayer>::ms_singleton
  00036	83 c4 0c	 add	 esp, 12			; 0000000cH
$LN50@IsAttackab:
; File C:\Anka2Project\Anka2Project\Source\Binary\source\UserInterface\InstanceBase.cpp

; 2426 : 		if(rkPlayer.IsObserverMode())

  00039	e8 00 00 00 00	 call	 ?IsObserverMode@CPythonPlayer@@QAE_NXZ ; CPythonPlayer::IsObserverMode
  0003e	84 c0		 test	 al, al
  00040	75 31		 jne	 SHORT $LN46@IsAttackab
$LN5@IsAttackab:

; 2427 : 			return false;
; 2428 : 	}
; 2429 : 
; 2430 : 	if (GetVirtualID() == rkInstVictim.GetVirtualID())

  00042	8b 5d 08	 mov	 ebx, DWORD PTR _rkInstVictim$[ebp]
  00045	8b cb		 mov	 ecx, ebx
  00047	e8 00 00 00 00	 call	 ?GetVirtualID@CInstanceBase@@QAEKXZ ; CInstanceBase::GetVirtualID
  0004c	8b cf		 mov	 ecx, edi
  0004e	8b f0		 mov	 esi, eax
  00050	e8 00 00 00 00	 call	 ?GetVirtualID@CInstanceBase@@QAEKXZ ; CInstanceBase::GetVirtualID
  00055	3b c6		 cmp	 eax, esi
  00057	74 1a		 je	 SHORT $LN46@IsAttackab

; 2431 : 		return false;
; 2432 : 
; 2433 : 	if (IsStone())

  00059	8b cf		 mov	 ecx, edi
  0005b	e8 00 00 00 00	 call	 ?IsStone@CInstanceBase@@QAEHXZ ; CInstanceBase::IsStone
  00060	85 c0		 test	 eax, eax
  00062	74 1a		 je	 SHORT $LN7@IsAttackab

; 2434 : 	{
; 2435 : 		if (rkInstVictim.IsPC())

  00064	8b cb		 mov	 ecx, ebx
  00066	e8 00 00 00 00	 call	 ?IsPC@CInstanceBase@@QAEHXZ ; CInstanceBase::IsPC
$LN120@IsAttackab:

; 2525 : 			return true;
; 2526 : 	}
; 2527 : 	return false;

  0006b	85 c0		 test	 eax, eax
$LN121@IsAttackab:
  0006d	0f 85 02 02 00
	00		 jne	 $LN66@IsAttackab
$LN46@IsAttackab:
  00073	5f		 pop	 edi

; 2528 : }

  00074	5e		 pop	 esi
  00075	32 c0		 xor	 al, al
  00077	5b		 pop	 ebx
  00078	8b e5		 mov	 esp, ebp
  0007a	5d		 pop	 ebp
  0007b	c2 04 00	 ret	 4
$LN7@IsAttackab:

; 2436 : 			return true;
; 2437 : 	}
; 2438 : 	else if (IsPC())

  0007e	8b cf		 mov	 ecx, edi
  00080	e8 00 00 00 00	 call	 ?IsPC@CInstanceBase@@QAEHXZ ; CInstanceBase::IsPC
  00085	85 c0		 test	 eax, eax
  00087	0f 84 8e 02 00
	00		 je	 $LN10@IsAttackab

; 2439 : 	{
; 2440 : 		if (rkInstVictim.IsStone())

  0008d	8b cb		 mov	 ecx, ebx
  0008f	e8 00 00 00 00	 call	 ?IsStone@CInstanceBase@@QAEHXZ ; CInstanceBase::IsStone
  00094	85 c0		 test	 eax, eax
  00096	0f 85 d9 01 00
	00		 jne	 $LN66@IsAttackab

; 2441 : 			return true;
; 2442 : 
; 2443 : 		if (rkInstVictim.IsPC())

  0009c	8b cb		 mov	 ecx, ebx
  0009e	e8 00 00 00 00	 call	 ?IsPC@CInstanceBase@@QAEHXZ ; CInstanceBase::IsPC
  000a3	85 c0		 test	 eax, eax
  000a5	0f 84 55 02 00
	00		 je	 $LN33@IsAttackab
; File C:\Anka2Project\Anka2Project\Source\Binary\source\eterBase\Singleton.h

; 26   : 		assert(ms_singleton);

  000ab	8b 0d 00 00 00
	00		 mov	 ecx, DWORD PTR ?ms_singleton@?$CSingleton@VCPythonPlayer@@@@0PAVCPythonPlayer@@A ; CSingleton<CPythonPlayer>::ms_singleton
  000b1	85 c9		 test	 ecx, ecx
  000b3	75 1a		 jne	 SHORT $LN53@IsAttackab
  000b5	6a 1a		 push	 26			; 0000001aH
  000b7	68 00 00 00 00	 push	 OFFSET ??_C@_1IO@CAJLEEOI@?$AAC?$AA?3?$AA?2?$AAA?$AAn?$AAk?$AAa?$AA2?$AAP?$AAr?$AAo?$AAj?$AAe?$AAc?$AAt@
  000bc	68 00 00 00 00	 push	 OFFSET ??_C@_1BK@FMEHPMFE@?$AAm?$AAs?$AA_?$AAs?$AAi?$AAn?$AAg?$AAl?$AAe?$AAt?$AAo?$AAn@
  000c1	e8 00 00 00 00	 call	 __wassert
  000c6	8b 0d 00 00 00
	00		 mov	 ecx, DWORD PTR ?ms_singleton@?$CSingleton@VCPythonPlayer@@@@0PAVCPythonPlayer@@A ; CSingleton<CPythonPlayer>::ms_singleton
  000cc	83 c4 0c	 add	 esp, 12			; 0000000cH
$LN53@IsAttackab:
; File C:\Anka2Project\Anka2Project\Source\Binary\source\UserInterface\InstanceBase.cpp

; 2447 : 			if (rkPlayer.CheckBossSafeRange())

  000cf	e8 00 00 00 00	 call	 ?CheckBossSafeRange@CPythonPlayer@@QAE_NXZ ; CPythonPlayer::CheckBossSafeRange
  000d4	84 c0		 test	 al, al
  000d6	75 9b		 jne	 SHORT $LN46@IsAttackab

; 2448 : 				return false;
; 2449 : #endif
; 2450 : 			if (GetDuelMode())

  000d8	8b cf		 mov	 ecx, edi
  000da	e8 00 00 00 00	 call	 ?GetDuelMode@CInstanceBase@@QAEKXZ ; CInstanceBase::GetDuelMode
  000df	85 c0		 test	 eax, eax
  000e1	74 2f		 je	 SHORT $LN19@IsAttackab

; 2451 : 			{
; 2452 : 				switch(GetDuelMode())

  000e3	e8 00 00 00 00	 call	 ?GetDuelMode@CInstanceBase@@QAEKXZ ; CInstanceBase::GetDuelMode
  000e8	83 e8 01	 sub	 eax, 1
  000eb	74 86		 je	 SHORT $LN46@IsAttackab
  000ed	83 e8 01	 sub	 eax, 1
  000f0	75 20		 jne	 SHORT $LN19@IsAttackab

; 2453 : 				{
; 2454 : 				case DUEL_CANNOTATTACK:
; 2455 : 					return false;
; 2456 : 				case DUEL_START:
; 2457 : 					if(__FindDUELKey(GetVirtualID(),rkInstVictim.GetVirtualID()))

  000f2	8b cb		 mov	 ecx, ebx
  000f4	e8 00 00 00 00	 call	 ?GetVirtualID@CInstanceBase@@QAEKXZ ; CInstanceBase::GetVirtualID
  000f9	8b cf		 mov	 ecx, edi
  000fb	8b f0		 mov	 esi, eax
  000fd	e8 00 00 00 00	 call	 ?GetVirtualID@CInstanceBase@@QAEKXZ ; CInstanceBase::GetVirtualID
  00102	8b d6		 mov	 edx, esi
  00104	8b c8		 mov	 ecx, eax
  00106	e8 00 00 00 00	 call	 ?__FindDUELKey@CInstanceBase@@KA_NKK@Z ; CInstanceBase::__FindDUELKey
  0010b	84 c0		 test	 al, al
  0010d	e9 5b ff ff ff	 jmp	 $LN121@IsAttackab
$LN19@IsAttackab:

; 2458 : 						return true;
; 2459 : 					else
; 2460 : 						return false;
; 2461 : 				}
; 2462 : 			}
; 2463 : 			if (PK_MODE_GUILD == GetPKMode())

  00112	8b cf		 mov	 ecx, edi
  00114	e8 00 00 00 00	 call	 ?GetPKMode@CInstanceBase@@QAEEXZ ; CInstanceBase::GetPKMode
  00119	3c 04		 cmp	 al, 4
  0011b	75 18		 jne	 SHORT $LN21@IsAttackab

; 2464 : 				if (GetGuildID() == rkInstVictim.GetGuildID())

  0011d	8b cb		 mov	 ecx, ebx
  0011f	e8 00 00 00 00	 call	 ?GetGuildID@CInstanceBase@@QAEKXZ ; CInstanceBase::GetGuildID
  00124	8b cf		 mov	 ecx, edi
  00126	8b d0		 mov	 edx, eax
  00128	e8 00 00 00 00	 call	 ?GetGuildID@CInstanceBase@@QAEKXZ ; CInstanceBase::GetGuildID
  0012d	3b c2		 cmp	 eax, edx
  0012f	0f 84 3e ff ff
	ff		 je	 $LN46@IsAttackab
$LN21@IsAttackab:

; 2465 : 					return false;
; 2466 : 
; 2467 : 			if (rkInstVictim.IsKiller())

  00135	8b cb		 mov	 ecx, ebx
  00137	e8 00 00 00 00	 call	 ?IsKiller@CInstanceBase@@QAE_NXZ ; CInstanceBase::IsKiller
  0013c	84 c0		 test	 al, al
  0013e	74 50		 je	 SHORT $LN23@IsAttackab
; File C:\Anka2Project\Anka2Project\Source\Binary\source\UserInterface\AbstractSingleton.h

; 24   : 		assert(ms_singleton!=nullptr);

  00140	a1 00 00 00 00	 mov	 eax, DWORD PTR ?ms_singleton@?$TAbstractSingleton@VIAbstractPlayer@@@@0PAVIAbstractPlayer@@A ; TAbstractSingleton<IAbstractPlayer>::ms_singleton
  00145	89 45 08	 mov	 DWORD PTR ?ms_singleton@?$TAbstractSingleton@VIAbstractPlayer@@@@0PAVIAbstractPlayer@@A$1[ebp], eax
  00148	85 c0		 test	 eax, eax
  0014a	75 1c		 jne	 SHORT $LN56@IsAttackab
  0014c	6a 18		 push	 24			; 00000018H
  0014e	68 00 00 00 00	 push	 OFFSET ??_C@_1KI@FIPHLMOB@?$AAC?$AA?3?$AA?2?$AAA?$AAn?$AAk?$AAa?$AA2?$AAP?$AAr?$AAo?$AAj?$AAe?$AAc?$AAt@
  00153	68 00 00 00 00	 push	 OFFSET ??_C@_1CM@FPMBEAEA@?$AAm?$AAs?$AA_?$AAs?$AAi?$AAn?$AAg?$AAl?$AAe?$AAt?$AAo?$AAn?$AA?$CB?$AA?$DN?$AAn@
  00158	e8 00 00 00 00	 call	 __wassert
  0015d	a1 00 00 00 00	 mov	 eax, DWORD PTR ?ms_singleton@?$TAbstractSingleton@VIAbstractPlayer@@@@0PAVIAbstractPlayer@@A ; TAbstractSingleton<IAbstractPlayer>::ms_singleton
  00162	83 c4 0c	 add	 esp, 12			; 0000000cH
  00165	89 45 08	 mov	 DWORD PTR ?ms_singleton@?$TAbstractSingleton@VIAbstractPlayer@@@@0PAVIAbstractPlayer@@A$1[ebp], eax
$LN56@IsAttackab:
; File C:\Anka2Project\Anka2Project\Source\Binary\source\UserInterface\InstanceBase.cpp

; 2468 : 				if (!IAbstractPlayer::GetSingleton().IsSamePartyMember(GetVirtualID(), rkInstVictim.GetVirtualID()))

  00168	8b 00		 mov	 eax, DWORD PTR [eax]
  0016a	8b cb		 mov	 ecx, ebx
  0016c	8b 78 30	 mov	 edi, DWORD PTR [eax+48]
  0016f	e8 00 00 00 00	 call	 ?GetVirtualID@CInstanceBase@@QAEKXZ ; CInstanceBase::GetVirtualID
  00174	8b 4d fc	 mov	 ecx, DWORD PTR _this$1$[ebp]
  00177	8b f0		 mov	 esi, eax
  00179	e8 00 00 00 00	 call	 ?GetVirtualID@CInstanceBase@@QAEKXZ ; CInstanceBase::GetVirtualID
  0017e	8b 4d 08	 mov	 ecx, DWORD PTR ?ms_singleton@?$TAbstractSingleton@VIAbstractPlayer@@@@0PAVIAbstractPlayer@@A$1[ebp]
  00181	56		 push	 esi
  00182	50		 push	 eax
  00183	ff d7		 call	 edi
  00185	84 c0		 test	 al, al
  00187	0f 84 e8 00 00
	00		 je	 $LN66@IsAttackab
  0018d	8b 7d fc	 mov	 edi, DWORD PTR _this$1$[ebp]
$LN23@IsAttackab:

; 2469 : 					return true;
; 2470 : 
; 2471 : 			if (PK_MODE_PROTECT != GetPKMode())

  00190	8b cf		 mov	 ecx, edi
  00192	e8 00 00 00 00	 call	 ?GetPKMode@CInstanceBase@@QAEEXZ ; CInstanceBase::GetPKMode
  00197	3c 03		 cmp	 al, 3
  00199	0f 84 e4 00 00
	00		 je	 $LN31@IsAttackab

; 2472 : 			{
; 2473 : 				if (PK_MODE_FREE == GetPKMode())

  0019f	e8 00 00 00 00	 call	 ?GetPKMode@CInstanceBase@@QAEEXZ ; CInstanceBase::GetPKMode
  001a4	3c 02		 cmp	 al, 2
  001a6	75 57		 jne	 SHORT $LN27@IsAttackab

; 2474 : 				{
; 2475 : 					if (PK_MODE_PROTECT != rkInstVictim.GetPKMode())

  001a8	8b cb		 mov	 ecx, ebx
  001aa	e8 00 00 00 00	 call	 ?GetPKMode@CInstanceBase@@QAEEXZ ; CInstanceBase::GetPKMode
  001af	3c 03		 cmp	 al, 3
  001b1	74 4c		 je	 SHORT $LN27@IsAttackab
; File C:\Anka2Project\Anka2Project\Source\Binary\source\UserInterface\AbstractSingleton.h

; 24   : 		assert(ms_singleton!=nullptr);

  001b3	a1 00 00 00 00	 mov	 eax, DWORD PTR ?ms_singleton@?$TAbstractSingleton@VIAbstractPlayer@@@@0PAVIAbstractPlayer@@A ; TAbstractSingleton<IAbstractPlayer>::ms_singleton
  001b8	89 45 08	 mov	 DWORD PTR ?ms_singleton@?$TAbstractSingleton@VIAbstractPlayer@@@@0PAVIAbstractPlayer@@A$2[ebp], eax
  001bb	85 c0		 test	 eax, eax
  001bd	75 1c		 jne	 SHORT $LN59@IsAttackab
  001bf	6a 18		 push	 24			; 00000018H
  001c1	68 00 00 00 00	 push	 OFFSET ??_C@_1KI@FIPHLMOB@?$AAC?$AA?3?$AA?2?$AAA?$AAn?$AAk?$AAa?$AA2?$AAP?$AAr?$AAo?$AAj?$AAe?$AAc?$AAt@
  001c6	68 00 00 00 00	 push	 OFFSET ??_C@_1CM@FPMBEAEA@?$AAm?$AAs?$AA_?$AAs?$AAi?$AAn?$AAg?$AAl?$AAe?$AAt?$AAo?$AAn?$AA?$CB?$AA?$DN?$AAn@
  001cb	e8 00 00 00 00	 call	 __wassert
  001d0	a1 00 00 00 00	 mov	 eax, DWORD PTR ?ms_singleton@?$TAbstractSingleton@VIAbstractPlayer@@@@0PAVIAbstractPlayer@@A ; TAbstractSingleton<IAbstractPlayer>::ms_singleton
  001d5	83 c4 0c	 add	 esp, 12			; 0000000cH
  001d8	89 45 08	 mov	 DWORD PTR ?ms_singleton@?$TAbstractSingleton@VIAbstractPlayer@@@@0PAVIAbstractPlayer@@A$2[ebp], eax
$LN59@IsAttackab:
; File C:\Anka2Project\Anka2Project\Source\Binary\source\UserInterface\InstanceBase.cpp

; 2476 : 						if (!IAbstractPlayer::GetSingleton().IsSamePartyMember(GetVirtualID(), rkInstVictim.GetVirtualID()))

  001db	8b 00		 mov	 eax, DWORD PTR [eax]
  001dd	8b cb		 mov	 ecx, ebx
  001df	8b 78 30	 mov	 edi, DWORD PTR [eax+48]
  001e2	e8 00 00 00 00	 call	 ?GetVirtualID@CInstanceBase@@QAEKXZ ; CInstanceBase::GetVirtualID
  001e7	8b 4d fc	 mov	 ecx, DWORD PTR _this$1$[ebp]
  001ea	8b f0		 mov	 esi, eax
  001ec	e8 00 00 00 00	 call	 ?GetVirtualID@CInstanceBase@@QAEKXZ ; CInstanceBase::GetVirtualID
  001f1	8b 4d 08	 mov	 ecx, DWORD PTR ?ms_singleton@?$TAbstractSingleton@VIAbstractPlayer@@@@0PAVIAbstractPlayer@@A$2[ebp]
  001f4	56		 push	 esi
  001f5	50		 push	 eax
  001f6	ff d7		 call	 edi
  001f8	84 c0		 test	 al, al
  001fa	74 79		 je	 SHORT $LN66@IsAttackab
  001fc	8b 7d fc	 mov	 edi, DWORD PTR _this$1$[ebp]
$LN27@IsAttackab:

; 2477 : 							return true;
; 2478 : 				}
; 2479 : 				if (PK_MODE_GUILD == GetPKMode())

  001ff	8b cf		 mov	 ecx, edi
  00201	e8 00 00 00 00	 call	 ?GetPKMode@CInstanceBase@@QAEEXZ ; CInstanceBase::GetPKMode
  00206	3c 04		 cmp	 al, 4
  00208	75 79		 jne	 SHORT $LN31@IsAttackab

; 2480 : 				{
; 2481 : 					if (PK_MODE_PROTECT != rkInstVictim.GetPKMode())

  0020a	8b cb		 mov	 ecx, ebx
  0020c	e8 00 00 00 00	 call	 ?GetPKMode@CInstanceBase@@QAEEXZ ; CInstanceBase::GetPKMode
  00211	3c 03		 cmp	 al, 3
  00213	74 6e		 je	 SHORT $LN31@IsAttackab
; File C:\Anka2Project\Anka2Project\Source\Binary\source\UserInterface\AbstractSingleton.h

; 24   : 		assert(ms_singleton!=nullptr);

  00215	a1 00 00 00 00	 mov	 eax, DWORD PTR ?ms_singleton@?$TAbstractSingleton@VIAbstractPlayer@@@@0PAVIAbstractPlayer@@A ; TAbstractSingleton<IAbstractPlayer>::ms_singleton
  0021a	89 45 08	 mov	 DWORD PTR ?ms_singleton@?$TAbstractSingleton@VIAbstractPlayer@@@@0PAVIAbstractPlayer@@A$3[ebp], eax
  0021d	85 c0		 test	 eax, eax
  0021f	75 1c		 jne	 SHORT $LN62@IsAttackab
  00221	6a 18		 push	 24			; 00000018H
  00223	68 00 00 00 00	 push	 OFFSET ??_C@_1KI@FIPHLMOB@?$AAC?$AA?3?$AA?2?$AAA?$AAn?$AAk?$AAa?$AA2?$AAP?$AAr?$AAo?$AAj?$AAe?$AAc?$AAt@
  00228	68 00 00 00 00	 push	 OFFSET ??_C@_1CM@FPMBEAEA@?$AAm?$AAs?$AA_?$AAs?$AAi?$AAn?$AAg?$AAl?$AAe?$AAt?$AAo?$AAn?$AA?$CB?$AA?$DN?$AAn@
  0022d	e8 00 00 00 00	 call	 __wassert
  00232	a1 00 00 00 00	 mov	 eax, DWORD PTR ?ms_singleton@?$TAbstractSingleton@VIAbstractPlayer@@@@0PAVIAbstractPlayer@@A ; TAbstractSingleton<IAbstractPlayer>::ms_singleton
  00237	83 c4 0c	 add	 esp, 12			; 0000000cH
  0023a	89 45 08	 mov	 DWORD PTR ?ms_singleton@?$TAbstractSingleton@VIAbstractPlayer@@@@0PAVIAbstractPlayer@@A$3[ebp], eax
$LN62@IsAttackab:
; File C:\Anka2Project\Anka2Project\Source\Binary\source\UserInterface\InstanceBase.cpp

; 2482 : 						if (!IAbstractPlayer::GetSingleton().IsSamePartyMember(GetVirtualID(), rkInstVictim.GetVirtualID()))

  0023d	8b 00		 mov	 eax, DWORD PTR [eax]
  0023f	8b cb		 mov	 ecx, ebx
  00241	8b 78 30	 mov	 edi, DWORD PTR [eax+48]
  00244	e8 00 00 00 00	 call	 ?GetVirtualID@CInstanceBase@@QAEKXZ ; CInstanceBase::GetVirtualID
  00249	8b 4d fc	 mov	 ecx, DWORD PTR _this$1$[ebp]
  0024c	8b f0		 mov	 esi, eax
  0024e	e8 00 00 00 00	 call	 ?GetVirtualID@CInstanceBase@@QAEKXZ ; CInstanceBase::GetVirtualID
  00253	8b 4d 08	 mov	 ecx, DWORD PTR ?ms_singleton@?$TAbstractSingleton@VIAbstractPlayer@@@@0PAVIAbstractPlayer@@A$3[ebp]
  00256	56		 push	 esi
  00257	50		 push	 eax
  00258	ff d7		 call	 edi
  0025a	84 c0		 test	 al, al
  0025c	75 22		 jne	 SHORT $LN84@IsAttackab

; 2483 : 							if (GetGuildID() != rkInstVictim.GetGuildID())

  0025e	8b cb		 mov	 ecx, ebx
  00260	e8 00 00 00 00	 call	 ?GetGuildID@CInstanceBase@@QAEKXZ ; CInstanceBase::GetGuildID
  00265	8b 7d fc	 mov	 edi, DWORD PTR _this$1$[ebp]
  00268	8b d0		 mov	 edx, eax
  0026a	8b cf		 mov	 ecx, edi
  0026c	e8 00 00 00 00	 call	 ?GetGuildID@CInstanceBase@@QAEKXZ ; CInstanceBase::GetGuildID
  00271	3b c2		 cmp	 eax, edx
  00273	74 0e		 je	 SHORT $LN31@IsAttackab
$LN66@IsAttackab:
  00275	5f		 pop	 edi

; 2528 : }

  00276	5e		 pop	 esi
  00277	b0 01		 mov	 al, 1
  00279	5b		 pop	 ebx
  0027a	8b e5		 mov	 esp, ebp
  0027c	5d		 pop	 ebp
  0027d	c2 04 00	 ret	 4
$LN84@IsAttackab:

; 2482 : 						if (!IAbstractPlayer::GetSingleton().IsSamePartyMember(GetVirtualID(), rkInstVictim.GetVirtualID()))

  00280	8b 7d fc	 mov	 edi, DWORD PTR _this$1$[ebp]
$LN31@IsAttackab:

; 2484 : 								return true;
; 2485 : 				}
; 2486 : 			}
; 2487 : 
; 2488 : 			if (IsSameEmpire(rkInstVictim))

  00283	53		 push	 ebx
  00284	8b cf		 mov	 ecx, edi
  00286	e8 00 00 00 00	 call	 ?IsSameEmpire@CInstanceBase@@QAEHAAV1@@Z ; CInstanceBase::IsSameEmpire
  0028b	85 c0		 test	 eax, eax
  0028d	74 e6		 je	 SHORT $LN66@IsAttackab

; 2489 : 			{
; 2490 : 				if (IsPVPInstance(rkInstVictim))

  0028f	53		 push	 ebx
  00290	8b cf		 mov	 ecx, edi
  00292	e8 00 00 00 00	 call	 ?IsPVPInstance@CInstanceBase@@QAE_NAAV1@@Z ; CInstanceBase::IsPVPInstance
  00297	84 c0		 test	 al, al
  00299	75 da		 jne	 SHORT $LN66@IsAttackab

; 2491 : 					return true;
; 2492 : 
; 2493 : 				if (PK_MODE_REVENGE == GetPKMode())

  0029b	8b cf		 mov	 ecx, edi
  0029d	e8 00 00 00 00	 call	 ?GetPKMode@CInstanceBase@@QAEEXZ ; CInstanceBase::GetPKMode
  002a2	3c 01		 cmp	 al, 1
  002a4	75 5a		 jne	 SHORT $LN33@IsAttackab
; File C:\Anka2Project\Anka2Project\Source\Binary\source\UserInterface\AbstractSingleton.h

; 24   : 		assert(ms_singleton!=nullptr);

  002a6	a1 00 00 00 00	 mov	 eax, DWORD PTR ?ms_singleton@?$TAbstractSingleton@VIAbstractPlayer@@@@0PAVIAbstractPlayer@@A ; TAbstractSingleton<IAbstractPlayer>::ms_singleton
  002ab	89 45 08	 mov	 DWORD PTR ?ms_singleton@?$TAbstractSingleton@VIAbstractPlayer@@@@0PAVIAbstractPlayer@@A$4[ebp], eax
  002ae	85 c0		 test	 eax, eax
  002b0	75 1c		 jne	 SHORT $LN65@IsAttackab
  002b2	6a 18		 push	 24			; 00000018H
  002b4	68 00 00 00 00	 push	 OFFSET ??_C@_1KI@FIPHLMOB@?$AAC?$AA?3?$AA?2?$AAA?$AAn?$AAk?$AAa?$AA2?$AAP?$AAr?$AAo?$AAj?$AAe?$AAc?$AAt@
  002b9	68 00 00 00 00	 push	 OFFSET ??_C@_1CM@FPMBEAEA@?$AAm?$AAs?$AA_?$AAs?$AAi?$AAn?$AAg?$AAl?$AAe?$AAt?$AAo?$AAn?$AA?$CB?$AA?$DN?$AAn@
  002be	e8 00 00 00 00	 call	 __wassert
  002c3	a1 00 00 00 00	 mov	 eax, DWORD PTR ?ms_singleton@?$TAbstractSingleton@VIAbstractPlayer@@@@0PAVIAbstractPlayer@@A ; TAbstractSingleton<IAbstractPlayer>::ms_singleton
  002c8	83 c4 0c	 add	 esp, 12			; 0000000cH
  002cb	89 45 08	 mov	 DWORD PTR ?ms_singleton@?$TAbstractSingleton@VIAbstractPlayer@@@@0PAVIAbstractPlayer@@A$4[ebp], eax
$LN65@IsAttackab:
; File C:\Anka2Project\Anka2Project\Source\Binary\source\UserInterface\InstanceBase.cpp

; 2494 : 					if (!IAbstractPlayer::GetSingleton().IsSamePartyMember(GetVirtualID(), rkInstVictim.GetVirtualID()))

  002ce	8b 00		 mov	 eax, DWORD PTR [eax]
  002d0	8b cb		 mov	 ecx, ebx
  002d2	8b 78 30	 mov	 edi, DWORD PTR [eax+48]
  002d5	e8 00 00 00 00	 call	 ?GetVirtualID@CInstanceBase@@QAEKXZ ; CInstanceBase::GetVirtualID
  002da	8b 4d fc	 mov	 ecx, DWORD PTR _this$1$[ebp]
  002dd	8b f0		 mov	 esi, eax
  002df	e8 00 00 00 00	 call	 ?GetVirtualID@CInstanceBase@@QAEKXZ ; CInstanceBase::GetVirtualID
  002e4	8b 4d 08	 mov	 ecx, DWORD PTR ?ms_singleton@?$TAbstractSingleton@VIAbstractPlayer@@@@0PAVIAbstractPlayer@@A$4[ebp]
  002e7	56		 push	 esi
  002e8	50		 push	 eax
  002e9	ff d7		 call	 edi
  002eb	84 c0		 test	 al, al
  002ed	75 11		 jne	 SHORT $LN33@IsAttackab

; 2495 : 						if (IsConflictAlignmentInstance(rkInstVictim))

  002ef	8b 4d fc	 mov	 ecx, DWORD PTR _this$1$[ebp]
  002f2	53		 push	 ebx
  002f3	e8 00 00 00 00	 call	 ?IsConflictAlignmentInstance@CInstanceBase@@QAE_NAAV1@@Z ; CInstanceBase::IsConflictAlignmentInstance
  002f8	84 c0		 test	 al, al
  002fa	0f 85 75 ff ff
	ff		 jne	 $LN66@IsAttackab
$LN33@IsAttackab:

; 2496 : 							return true;
; 2497 : 			}
; 2498 : 			else
; 2499 : 			{
; 2500 : 				return true;
; 2501 : 			}
; 2502 : 		}
; 2503 : 
; 2504 : 		if (rkInstVictim.IsEnemy())

  00300	8b cb		 mov	 ecx, ebx
  00302	e8 00 00 00 00	 call	 ?IsEnemy@CInstanceBase@@QAEHXZ ; CInstanceBase::IsEnemy
  00307	85 c0		 test	 eax, eax
  00309	0f 85 66 ff ff
	ff		 jne	 $LN66@IsAttackab

; 2505 : 			return true;
; 2506 : 
; 2507 : 		if (rkInstVictim.IsWoodenDoor())

  0030f	8b cb		 mov	 ecx, ebx
  00311	e8 00 00 00 00	 call	 ?IsWoodenDoor@CInstanceBase@@QAEHXZ ; CInstanceBase::IsWoodenDoor
  00316	e9 50 fd ff ff	 jmp	 $LN120@IsAttackab
$LN10@IsAttackab:

; 2508 : 			return true;
; 2509 : 	}
; 2510 : 	else if (IsEnemy())

  0031b	8b cf		 mov	 ecx, edi
  0031d	e8 00 00 00 00	 call	 ?IsEnemy@CInstanceBase@@QAEHXZ ; CInstanceBase::IsEnemy
  00322	85 c0		 test	 eax, eax
  00324	74 1b		 je	 SHORT $LN40@IsAttackab

; 2511 : 	{
; 2512 : 		if (rkInstVictim.IsPC())

  00326	8b cb		 mov	 ecx, ebx
  00328	e8 00 00 00 00	 call	 ?IsPC@CInstanceBase@@QAEHXZ ; CInstanceBase::IsPC
  0032d	85 c0		 test	 eax, eax
  0032f	0f 85 40 ff ff
	ff		 jne	 $LN66@IsAttackab

; 2513 : 			return true;
; 2514 : 
; 2515 : 		if (rkInstVictim.IsBuilding())

  00335	8b cb		 mov	 ecx, ebx
  00337	e8 00 00 00 00	 call	 ?IsBuilding@CInstanceBase@@QAEHXZ ; CInstanceBase::IsBuilding
  0033c	e9 2a fd ff ff	 jmp	 $LN120@IsAttackab
$LN40@IsAttackab:

; 2516 : 			return true;
; 2517 : 		
; 2518 : 	}
; 2519 : 	else if (IsPoly())

  00341	8b cf		 mov	 ecx, edi
  00343	e8 00 00 00 00	 call	 ?IsPoly@CInstanceBase@@QAEHXZ ; CInstanceBase::IsPoly
  00348	85 c0		 test	 eax, eax
  0034a	0f 84 23 fd ff
	ff		 je	 $LN46@IsAttackab

; 2520 : 	{
; 2521 : 		if (rkInstVictim.IsPC())

  00350	8b cb		 mov	 ecx, ebx
  00352	e8 00 00 00 00	 call	 ?IsPC@CInstanceBase@@QAEHXZ ; CInstanceBase::IsPC
  00357	85 c0		 test	 eax, eax
  00359	0f 85 16 ff ff
	ff		 jne	 $LN66@IsAttackab

; 2522 : 			return true;
; 2523 : 
; 2524 : 		if (rkInstVictim.IsEnemy())

  0035f	8b cb		 mov	 ecx, ebx
  00361	e8 00 00 00 00	 call	 ?IsEnemy@CInstanceBase@@QAEHXZ ; CInstanceBase::IsEnemy
  00366	5f		 pop	 edi
  00367	85 c0		 test	 eax, eax

; 2528 : }

  00369	5e		 pop	 esi
  0036a	0f 95 c0	 setne	 al
  0036d	5b		 pop	 ebx
  0036e	8b e5		 mov	 esp, ebp
  00370	5d		 pop	 ebp
  00371	c2 04 00	 ret	 4
?IsAttackableInstance@CInstanceBase@@QAE_NAAV1@@Z ENDP	; CInstanceBase::IsAttackableInstance
_TEXT	ENDS
; Function compile flags: /Ogtp
; File C:\Anka2Project\Anka2Project\Source\Binary\source\UserInterface\InstanceBase.cpp
;	COMDAT ?GetVirtualID@CInstanceBase@@QAEKXZ
_TEXT	SEGMENT
?GetVirtualID@CInstanceBase@@QAEKXZ PROC		; CInstanceBase::GetVirtualID, COMDAT
; _this$ = ecx

; 2767 : 	return m_GraphicThingInstance.GetVirtualID();

  00000	8b 81 f4 02 00
	00		 mov	 eax, DWORD PTR [ecx+756]
  00006	81 c1 f4 02 00
	00		 add	 ecx, 756		; 000002f4H
  0000c	ff 60 48	 jmp	 DWORD PTR [eax+72]
?GetVirtualID@CInstanceBase@@QAEKXZ ENDP		; CInstanceBase::GetVirtualID
_TEXT	ENDS
; Function compile flags: /Ogtp
; File C:\Anka2Project\Anka2Project\Source\Binary\source\UserInterface\InstanceBase.cpp
;	COMDAT ?__CanRender@CInstanceBase@@IAE_NXZ
_TEXT	SEGMENT
?__CanRender@CInstanceBase@@IAE_NXZ PROC		; CInstanceBase::__CanRender, COMDAT
; _this$ = ecx

; 2781 : {

  00000	56		 push	 esi
  00001	8b f1		 mov	 esi, ecx

; 2782 : 	if (!__IsInViewFrustum())

  00003	e8 00 00 00 00	 call	 ?__IsInViewFrustum@CInstanceBase@@IAE_NXZ ; CInstanceBase::__IsInViewFrustum
  00008	84 c0		 test	 al, al
  0000a	74 26		 je	 SHORT $LN7@CanRender

; 2783 : 		return false;
; 2784 : 
; 2785 : #ifdef ENABLE_RENDER_TARGET
; 2786 : 	if (IsAlwaysRender())

  0000c	8b ce		 mov	 ecx, esi
  0000e	e8 00 00 00 00	 call	 ?IsAlwaysRender@CInstanceBase@@QAE_NXZ ; CInstanceBase::IsAlwaysRender
  00013	84 c0		 test	 al, al
  00015	75 17		 jne	 SHORT $LN4@CanRender

; 2787 : 		return true;
; 2788 : #endif
; 2789 : 
; 2790 : #ifdef ENABLE_CANSEEHIDDENTHING_FOR_GM
; 2791 : 	if (IsAffect(AFFECT_INVISIBILITY) && !__MainCanSeeHiddenThing())

  00017	6a 01		 push	 1
  00019	e8 00 00 00 00	 call	 ?IsAffect@CInstanceBase@@QAE_NI@Z ; CInstanceBase::IsAffect
  0001e	84 c0		 test	 al, al
  00020	74 0c		 je	 SHORT $LN4@CanRender
  00022	e8 00 00 00 00	 call	 ?__MainCanSeeHiddenThing@CInstanceBase@@IAE_NXZ ; CInstanceBase::__MainCanSeeHiddenThing
  00027	84 c0		 test	 al, al
  00029	5e		 pop	 esi
  0002a	0f 95 c0	 setne	 al

; 2799 : }

  0002d	c3		 ret	 0
$LN4@CanRender:

; 2793 : #else
; 2794 : 	if (IsAffect(AFFECT_INVISIBILITY))
; 2795 : 		return false;
; 2796 : #endif
; 2797 : 
; 2798 : 	return true;

  0002e	b0 01		 mov	 al, 1
  00030	5e		 pop	 esi

; 2799 : }

  00031	c3		 ret	 0
$LN7@CanRender:

; 2792 : 		return false;

  00032	32 c0		 xor	 al, al
  00034	5e		 pop	 esi

; 2799 : }

  00035	c3		 ret	 0
?__CanRender@CInstanceBase@@IAE_NXZ ENDP		; CInstanceBase::__CanRender
_TEXT	ENDS
; Function compile flags: /Ogtp
; File C:\Anka2Project\Anka2Project\Source\Binary\source\UserInterface\InstanceBase.cpp
; File C:\Program Files\Microsoft Visual Studio\2022\Community\VC\Tools\MSVC\14.44.35207\include\xmemory
; File C:\Program Files\Microsoft Visual Studio\2022\Community\VC\Tools\MSVC\14.44.35207\include\utility
; File C:\Program Files\Microsoft Visual Studio\2022\Community\VC\Tools\MSVC\14.44.35207\include\unordered_map
; File C:\Program Files\Microsoft Visual Studio\2022\Community\VC\Tools\MSVC\14.44.35207\include\list
; File C:\Program Files\Microsoft Visual Studio\2022\Community\VC\Tools\MSVC\14.44.35207\include\xmemory
; File C:\Program Files\Microsoft Visual Studio\2022\Community\VC\Tools\MSVC\14.44.35207\include\list
; File C:\Program Files\Microsoft Visual Studio\2022\Community\VC\Tools\MSVC\14.44.35207\include\vector
; File C:\Program Files\Microsoft Visual Studio\2022\Community\VC\Tools\MSVC\14.44.35207\include\xhash
; File C:\Program Files\Microsoft Visual Studio\2022\Community\VC\Tools\MSVC\14.44.35207\include\xmemory
; File C:\Program Files\Microsoft Visual Studio\2022\Community\VC\Tools\MSVC\14.44.35207\include\xhash
; File C:\Program Files\Microsoft Visual Studio\2022\Community\VC\Tools\MSVC\14.44.35207\include\xmemory
; File C:\Program Files\Microsoft Visual Studio\2022\Community\VC\Tools\MSVC\14.44.35207\include\xhash
; File C:\Program Files\Microsoft Visual Studio\2022\Community\VC\Tools\MSVC\14.44.35207\include\xmemory
; File C:\Program Files\Microsoft Visual Studio\2022\Community\VC\Tools\MSVC\14.44.35207\include\xhash
; File C:\Program Files\Microsoft Visual Studio\2022\Community\VC\Tools\MSVC\14.44.35207\include\xmemory
; File C:\Program Files\Microsoft Visual Studio\2022\Community\VC\Tools\MSVC\14.44.35207\include\xhash
; File C:\Program Files\Microsoft Visual Studio\2022\Community\VC\Tools\MSVC\14.44.35207\include\xmemory
; File C:\Program Files\Microsoft Visual Studio\2022\Community\VC\Tools\MSVC\14.44.35207\include\xhash
; File C:\Program Files\Microsoft Visual Studio\2022\Community\VC\Tools\MSVC\14.44.35207\include\unordered_map
; File C:\Program Files\Microsoft Visual Studio\2022\Community\VC\Tools\MSVC\14.44.35207\include\xhash
; File C:\Anka2Project\Anka2Project\Source\Binary\source\UserInterface\InstanceBase.cpp
; File C:\Program Files\Microsoft Visual Studio\2022\Community\VC\Tools\MSVC\14.44.35207\include\type_traits
; File C:\Program Files\Microsoft Visual Studio\2022\Community\VC\Tools\MSVC\14.44.35207\include\xhash
; File C:\Program Files\Microsoft Visual Studio\2022\Community\VC\Tools\MSVC\14.44.35207\include\list
; File C:\Anka2Project\Anka2Project\Source\Binary\source\UserInterface\InstanceBase.cpp
; File C:\Program Files\Microsoft Visual Studio\2022\Community\VC\Tools\MSVC\14.44.35207\include\xmemory
; File C:\Anka2Project\Anka2Project\Source\Binary\source\UserInterface\InstanceBase.cpp
;	COMDAT ?SetHair@CInstanceBase@@QAEXK@Z
_TEXT	SEGMENT
$T3 = -28						; size = 8
$T42 = -28						; size = 8
__Val$ = -20						; size = 4
__$EHRec$ = -12						; size = 12
_eHair$ = 8						; size = 4
?SetHair@CInstanceBase@@QAEXK@Z PROC			; CInstanceBase::SetHair, COMDAT
; _this$ = ecx

; 2891 : {

  00000	55		 push	 ebp
  00001	8b ec		 mov	 ebp, esp
  00003	6a ff		 push	 -1
  00005	68 00 00 00 00	 push	 __ehhandler$?SetHair@CInstanceBase@@QAEXK@Z
  0000a	64 a1 00 00 00
	00		 mov	 eax, DWORD PTR fs:0
  00010	50		 push	 eax
  00011	83 ec 10	 sub	 esp, 16			; 00000010H
  00014	53		 push	 ebx
  00015	56		 push	 esi
  00016	57		 push	 edi
  00017	a1 00 00 00 00	 mov	 eax, DWORD PTR ___security_cookie
  0001c	33 c5		 xor	 eax, ebp
  0001e	50		 push	 eax
  0001f	8d 45 f4	 lea	 eax, DWORD PTR __$EHRec$[ebp]
  00022	64 a3 00 00 00
	00		 mov	 DWORD PTR fs:0, eax
  00028	8b f1		 mov	 esi, ecx

; 2892 : 	if (!HAIR_COLOR_ENABLE)

  0002a	83 3d 00 00 00
	00 00		 cmp	 DWORD PTR ?HAIR_COLOR_ENABLE@@3HA, 0 ; HAIR_COLOR_ENABLE
  00031	0f 84 c7 01 00
	00		 je	 $LN1@SetHair

; 2893 : 		return;
; 2894 : 
; 2895 : #ifdef ENABLE_NPC_WEAR_ITEM
; 2896 : 	if (IsPC() == false && GetRace() > 7)

  00037	e8 00 00 00 00	 call	 ?IsPC@CInstanceBase@@QAEHXZ ; CInstanceBase::IsPC
  0003c	85 c0		 test	 eax, eax
  0003e	75 10		 jne	 SHORT $LN4@SetHair
  00040	8b ce		 mov	 ecx, esi
  00042	e8 00 00 00 00	 call	 ?GetRace@CInstanceBase@@QAEKXZ ; CInstanceBase::GetRace
  00047	83 f8 07	 cmp	 eax, 7
  0004a	0f 87 ae 01 00
	00		 ja	 $LN1@SetHair
$LN4@SetHair:

; 2897 : #else
; 2898 : 	if (IsPC() == false)
; 2899 : #endif
; 2900 : 		return;
; 2901 : 
; 2902 : 	m_awPart[CRaceData::PART_HAIR] = eHair;

  00050	8b 7d 08	 mov	 edi, DWORD PTR _eHair$[ebp]
  00053	89 7e 3c	 mov	 DWORD PTR [esi+60], edi

; 2907 : 	static std::unordered_map<DWORD, float> setAllowedHair = {

  00056	64 a1 00 00 00
	00		 mov	 eax, DWORD PTR fs:__tls_array
  0005c	8b 08		 mov	 ecx, DWORD PTR [eax]
  0005e	a1 00 00 00 00	 mov	 eax, DWORD PTR ?$TSS0@?1??SetHair@CInstanceBase@@QAEXK@Z@4HA
  00063	3b 81 00 00 00
	00		 cmp	 eax, DWORD PTR __Init_thread_epoch[ecx]
  00069	0f 8e 45 01 00
	00		 jle	 $LN2@SetHair
  0006f	68 00 00 00 00	 push	 OFFSET ?$TSS0@?1??SetHair@CInstanceBase@@QAEXK@Z@4HA
  00074	e8 00 00 00 00	 call	 __Init_thread_header
  00079	83 c4 04	 add	 esp, 4
  0007c	83 3d 00 00 00
	00 ff		 cmp	 DWORD PTR ?$TSS0@?1??SetHair@CInstanceBase@@QAEXK@Z@4HA, -1
  00083	0f 85 2b 01 00
	00		 jne	 $LN2@SetHair
  00089	c7 45 fc 00 00
	00 00		 mov	 DWORD PTR __$EHRec$[ebp+8], 0
; File C:\Program Files\Microsoft Visual Studio\2022\Community\VC\Tools\MSVC\14.44.35207\include\xmemory

; 136  :         return ::operator new(_Bytes);

  00090	6a 10		 push	 16			; 00000010H
; File C:\Program Files\Microsoft Visual Studio\2022\Community\VC\Tools\MSVC\14.44.35207\include\utility

; 274  :         : first(_STD forward<_Other1>(_Val1)), second(_STD forward<_Other2>(_Val2)) {

  00092	c7 45 e4 c1 13
	00 00		 mov	 DWORD PTR $T3[ebp], 5057 ; 000013c1H
  00099	c7 45 e8 00 00
	48 42		 mov	 DWORD PTR $T3[ebp+4], 1112014848 ; 42480000H
; File C:\Program Files\Microsoft Visual Studio\2022\Community\VC\Tools\MSVC\14.44.35207\include\unordered_map

; 49   :     explicit _Umap_traits(const _Tr& _Traits) noexcept(is_nothrow_copy_constructible_v<_Tr>) : _Tr(_Traits) {}

  000a0	c7 05 00 00 00
	00 00 00 00 00	 mov	 DWORD PTR ?setAllowedHair@?1??SetHair@CInstanceBase@@QAEXK@Z@4V?$unordered_map@KMU?$hash@K@std@@U?$equal_to@K@2@V?$allocator@U?$pair@$$CBKM@std@@@2@@std@@A, 0
; File C:\Program Files\Microsoft Visual Studio\2022\Community\VC\Tools\MSVC\14.44.35207\include\list

; 353  :     _List_val() noexcept : _Myhead(), _Mysize(0) {} // initialize data

  000aa	c7 05 04 00 00
	00 00 00 00 00	 mov	 DWORD PTR ?setAllowedHair@?1??SetHair@CInstanceBase@@QAEXK@Z@4V?$unordered_map@KMU?$hash@K@std@@U?$equal_to@K@2@V?$allocator@U?$pair@$$CBKM@std@@@2@@std@@A+4, 0
  000b4	c7 05 08 00 00
	00 00 00 00 00	 mov	 DWORD PTR ?setAllowedHair@?1??SetHair@CInstanceBase@@QAEXK@Z@4V?$unordered_map@KMU?$hash@K@std@@U?$equal_to@K@2@V?$allocator@U?$pair@$$CBKM@std@@@2@@std@@A+8, 0
; File C:\Program Files\Microsoft Visual Studio\2022\Community\VC\Tools\MSVC\14.44.35207\include\xmemory

; 136  :         return ::operator new(_Bytes);

  000be	e8 00 00 00 00	 call	 ??2@YAPAXI@Z		; operator new
  000c3	83 c4 04	 add	 esp, 4
; File C:\Program Files\Microsoft Visual Studio\2022\Community\VC\Tools\MSVC\14.44.35207\include\list

; 1852 :         _Construct_in_place(_Newhead->_Next, _Newhead);

  000c6	89 00		 mov	 DWORD PTR [eax], eax

; 1853 :         _Construct_in_place(_Newhead->_Prev, _Newhead);

  000c8	89 40 04	 mov	 DWORD PTR [eax+4], eax

; 1854 :         _Mypair._Myval2._Myhead = _Newhead;

  000cb	a3 04 00 00 00	 mov	 DWORD PTR ?setAllowedHair@?1??SetHair@CInstanceBase@@QAEXK@Z@4V?$unordered_map@KMU?$hash@K@std@@U?$equal_to@K@2@V?$allocator@U?$pair@$$CBKM@std@@@2@@std@@A+4, eax
; File C:\Program Files\Microsoft Visual Studio\2022\Community\VC\Tools\MSVC\14.44.35207\include\vector

; 400  :     _CONSTEXPR20 _Vector_val() noexcept : _Myfirst(), _Mylast(), _Myend() {}

  000d0	c7 05 0c 00 00
	00 00 00 00 00	 mov	 DWORD PTR ?setAllowedHair@?1??SetHair@CInstanceBase@@QAEXK@Z@4V?$unordered_map@KMU?$hash@K@std@@U?$equal_to@K@2@V?$allocator@U?$pair@$$CBKM@std@@@2@@std@@A+12, 0
  000da	c7 05 10 00 00
	00 00 00 00 00	 mov	 DWORD PTR ?setAllowedHair@?1??SetHair@CInstanceBase@@QAEXK@Z@4V?$unordered_map@KMU?$hash@K@std@@U?$equal_to@K@2@V?$allocator@U?$pair@$$CBKM@std@@@2@@std@@A+16, 0
  000e4	c7 05 14 00 00
	00 00 00 00 00	 mov	 DWORD PTR ?setAllowedHair@?1??SetHair@CInstanceBase@@QAEXK@Z@4V?$unordered_map@KMU?$hash@K@std@@U?$equal_to@K@2@V?$allocator@U?$pair@$$CBKM@std@@@2@@std@@A+20, 0
; File C:\Program Files\Microsoft Visual Studio\2022\Community\VC\Tools\MSVC\14.44.35207\include\xhash

; 371  :         : _Traitsobj(_Parg), _List(_Al), _Vec(_Al), _Mask(_Min_buckets - 1), _Maxidx(_Min_buckets) {

  000ee	c6 45 fc 02	 mov	 BYTE PTR __$EHRec$[ebp+8], 2
; File C:\Program Files\Microsoft Visual Studio\2022\Community\VC\Tools\MSVC\14.44.35207\include\xmemory

; 136  :         return ::operator new(_Bytes);

  000f2	6a 40		 push	 64			; 00000040H
; File C:\Program Files\Microsoft Visual Studio\2022\Community\VC\Tools\MSVC\14.44.35207\include\xhash

; 371  :         : _Traitsobj(_Parg), _List(_Al), _Vec(_Al), _Mask(_Min_buckets - 1), _Maxidx(_Min_buckets) {

  000f4	c7 05 18 00 00
	00 07 00 00 00	 mov	 DWORD PTR ?setAllowedHair@?1??SetHair@CInstanceBase@@QAEXK@Z@4V?$unordered_map@KMU?$hash@K@std@@U?$equal_to@K@2@V?$allocator@U?$pair@$$CBKM@std@@@2@@std@@A+24, 7
  000fe	c7 05 1c 00 00
	00 08 00 00 00	 mov	 DWORD PTR ?setAllowedHair@?1??SetHair@CInstanceBase@@QAEXK@Z@4V?$unordered_map@KMU?$hash@K@std@@U?$equal_to@K@2@V?$allocator@U?$pair@$$CBKM@std@@@2@@std@@A+28, 8

; 372  :         // construct empty hash table
; 373  :         _Max_bucket_size() = _Bucket_size;

  00108	c7 05 00 00 00
	00 00 00 80 3f	 mov	 DWORD PTR ?setAllowedHair@?1??SetHair@CInstanceBase@@QAEXK@Z@4V?$unordered_map@KMU?$hash@K@std@@U?$equal_to@K@2@V?$allocator@U?$pair@$$CBKM@std@@@2@@std@@A, 1065353216 ; 3f800000H

; 374  :         _Vec._Assign_grow(_Min_buckets * 2, _List._Unchecked_end());

  00112	89 45 ec	 mov	 DWORD PTR __Val$[ebp], eax
; File C:\Program Files\Microsoft Visual Studio\2022\Community\VC\Tools\MSVC\14.44.35207\include\xmemory

; 136  :         return ::operator new(_Bytes);

  00115	e8 00 00 00 00	 call	 ??2@YAPAXI@Z		; operator new
; File C:\Program Files\Microsoft Visual Studio\2022\Community\VC\Tools\MSVC\14.44.35207\include\xhash

; 279  :         return static_cast<size_type>(_Mypair._Myval2._Myend - _Mypair._Myval2._Myfirst);

  0011a	8b 0d 14 00 00
	00		 mov	 ecx, DWORD PTR ?setAllowedHair@?1??SetHair@CInstanceBase@@QAEXK@Z@4V?$unordered_map@KMU?$hash@K@std@@U?$equal_to@K@2@V?$allocator@U?$pair@$$CBKM@std@@@2@@std@@A+20
; File C:\Program Files\Microsoft Visual Studio\2022\Community\VC\Tools\MSVC\14.44.35207\include\xmemory

; 136  :         return ::operator new(_Bytes);

  00120	83 c4 04	 add	 esp, 4
; File C:\Program Files\Microsoft Visual Studio\2022\Community\VC\Tools\MSVC\14.44.35207\include\xhash

; 279  :         return static_cast<size_type>(_Mypair._Myval2._Myend - _Mypair._Myval2._Myfirst);

  00123	8b 15 0c 00 00
	00		 mov	 edx, DWORD PTR ?setAllowedHair@?1??SetHair@CInstanceBase@@QAEXK@Z@4V?$unordered_map@KMU?$hash@K@std@@U?$equal_to@K@2@V?$allocator@U?$pair@$$CBKM@std@@@2@@std@@A+12
; File C:\Program Files\Microsoft Visual Studio\2022\Community\VC\Tools\MSVC\14.44.35207\include\xmemory

; 256  :         return _Traits::_Allocate(_Bytes);

  00129	8b d8		 mov	 ebx, eax
; File C:\Program Files\Microsoft Visual Studio\2022\Community\VC\Tools\MSVC\14.44.35207\include\xhash

; 279  :         return static_cast<size_type>(_Mypair._Myval2._Myend - _Mypair._Myval2._Myfirst);

  0012b	2b ca		 sub	 ecx, edx
  0012d	c1 f9 02	 sar	 ecx, 2

; 291  :             if (_Oldcapacity != 0) {

  00130	85 c9		 test	 ecx, ecx
  00132	74 2b		 je	 SHORT $LN109@SetHair
; File C:\Program Files\Microsoft Visual Studio\2022\Community\VC\Tools\MSVC\14.44.35207\include\xmemory

; 985  :         _STD _Deallocate<_New_alignof<_Ty>>(_Ptr, sizeof(_Ty) * _Count);

  00134	c1 e1 02	 shl	 ecx, 2
  00137	8b c2		 mov	 eax, edx

; 284  :         if (_Bytes >= _Big_allocation_threshold) {

  00139	81 f9 00 10 00
	00		 cmp	 ecx, 4096		; 00001000H
  0013f	72 14		 jb	 SHORT $LN117@SetHair

; 205  :     const uintptr_t _Ptr_container   = _Ptr_user[-1];

  00141	8b 50 fc	 mov	 edx, DWORD PTR [eax-4]
  00144	83 c1 23	 add	 ecx, 35			; 00000023H
  00147	2b c2		 sub	 eax, edx

; 219  :     _STL_VERIFY(_Back_shift >= _Min_back_shift && _Back_shift <= _Non_user_size, "invalid argument");

  00149	83 c0 fc	 add	 eax, -4			; fffffffcH
  0014c	83 f8 1f	 cmp	 eax, 31			; 0000001fH
  0014f	0f 87 bd 00 00
	00		 ja	 $LN181@SetHair
$LN117@SetHair:

; 289  :         ::operator delete(_Ptr, _Bytes);

  00155	51		 push	 ecx
  00156	52		 push	 edx
  00157	e8 00 00 00 00	 call	 ??3@YAXPAXI@Z		; operator delete
  0015c	83 c4 08	 add	 esp, 8
$LN109@SetHair:
; File C:\Program Files\Microsoft Visual Studio\2022\Community\VC\Tools\MSVC\14.44.35207\include\xhash

; 297  :             const auto _Newend       = _Newvec + _Cells;

  0015f	8d 53 40	 lea	 edx, DWORD PTR [ebx+64]
  00162	89 1d 0c 00 00
	00		 mov	 DWORD PTR ?setAllowedHair@?1??SetHair@CInstanceBase@@QAEXK@Z@4V?$unordered_map@KMU?$hash@K@std@@U?$equal_to@K@2@V?$allocator@U?$pair@$$CBKM@std@@@2@@std@@A+12, ebx

; 298  :             _Mypair._Myval2._Mylast  = _Newend;
; 299  :             _Mypair._Myval2._Myend   = _Newend;
; 300  :             _STD uninitialized_fill(_Newvec, _Newend, _Val);

  00168	8d 45 ec	 lea	 eax, DWORD PTR __Val$[ebp]
  0016b	89 15 10 00 00
	00		 mov	 DWORD PTR ?setAllowedHair@?1??SetHair@CInstanceBase@@QAEXK@Z@4V?$unordered_map@KMU?$hash@K@std@@U?$equal_to@K@2@V?$allocator@U?$pair@$$CBKM@std@@@2@@std@@A+16, edx
  00171	50		 push	 eax
  00172	8b cb		 mov	 ecx, ebx
  00174	89 15 14 00 00
	00		 mov	 DWORD PTR ?setAllowedHair@?1??SetHair@CInstanceBase@@QAEXK@Z@4V?$unordered_map@KMU?$hash@K@std@@U?$equal_to@K@2@V?$allocator@U?$pair@$$CBKM@std@@@2@@std@@A+20, edx
  0017a	e8 00 00 00 00	 call	 ??$uninitialized_fill@PAV?$_List_unchecked_iterator@V?$_List_val@U?$_List_simple_types@U?$pair@$$CBKM@std@@@std@@@std@@@std@@V12@@std@@YAXQAV?$_List_unchecked_iterator@V?$_List_val@U?$_List_simple_types@U?$pair@$$CBKM@std@@@std@@@std@@@0@0ABV10@@Z ; std::uninitialized_fill<std::_List_unchecked_iterator<std::_List_val<std::_List_simple_types<std::pair<unsigned long const ,float> > > > *,std::_List_unchecked_iterator<std::_List_val<std::_List_simple_types<std::pair<unsigned long const ,float> > > > >
  0017f	83 c4 04	 add	 esp, 4

; 977  :         _Insert_range_unchecked(_Ilist.begin(), _Ilist.end());

  00182	8d 45 ec	 lea	 eax, DWORD PTR $T3[ebp+8]
; File C:\Program Files\Microsoft Visual Studio\2022\Community\VC\Tools\MSVC\14.44.35207\include\unordered_map

; 372  :     unordered_map(initializer_list<value_type> _Ilist) : _Mybase(_Key_compare(), allocator_type()) {

  00185	c6 45 fc 03	 mov	 BYTE PTR __$EHRec$[ebp+8], 3
; File C:\Program Files\Microsoft Visual Studio\2022\Community\VC\Tools\MSVC\14.44.35207\include\xhash

; 977  :         _Insert_range_unchecked(_Ilist.begin(), _Ilist.end());

  00189	50		 push	 eax
  0018a	8d 45 e4	 lea	 eax, DWORD PTR $T3[ebp]
  0018d	50		 push	 eax
  0018e	e8 00 00 00 00	 call	 ??$_Insert_range_unchecked@PBU?$pair@$$CBKM@std@@PBU12@@?$_Hash@V?$_Umap_traits@KMV?$_Uhash_compare@KU?$hash@K@std@@U?$equal_to@K@2@@std@@V?$allocator@U?$pair@$$CBKM@std@@@2@$0A@@std@@@std@@IAEXPBU?$pair@$$CBKM@1@QBU21@@Z ; std::_Hash<std::_Umap_traits<unsigned long,float,std::_Uhash_compare<unsigned long,std::hash<unsigned long>,std::equal_to<unsigned long> >,std::allocator<std::pair<unsigned long const ,float> >,0> >::_Insert_range_unchecked<std::pair<unsigned long const ,float> const *,std::pair<unsigned long const ,float> const *>
; File C:\Anka2Project\Anka2Project\Source\Binary\source\UserInterface\InstanceBase.cpp

; 2907 : 	static std::unordered_map<DWORD, float> setAllowedHair = {

  00193	68 00 00 00 00	 push	 OFFSET ??__FsetAllowedHair@?1??SetHair@CInstanceBase@@QAEXK@Z@YAXXZ ; `CInstanceBase::SetHair'::`2'::`dynamic atexit destructor for 'setAllowedHair''
  00198	e8 00 00 00 00	 call	 _atexit
  0019d	83 c4 04	 add	 esp, 4
  001a0	c7 45 fc ff ff
	ff ff		 mov	 DWORD PTR __$EHRec$[ebp+8], -1
  001a7	68 00 00 00 00	 push	 OFFSET ?$TSS0@?1??SetHair@CInstanceBase@@QAEXK@Z@4HA
  001ac	e8 00 00 00 00	 call	 __Init_thread_footer
  001b1	83 c4 04	 add	 esp, 4
$LN2@SetHair:
; File C:\Program Files\Microsoft Visual Studio\2022\Community\VC\Tools\MSVC\14.44.35207\include\type_traits

; 2324 :         return _Hash_representation(_Keyval);

  001b4	8d 45 08	 lea	 eax, DWORD PTR _eHair$[ebp]
  001b7	50		 push	 eax
  001b8	e8 00 00 00 00	 call	 ??$_Hash_representation@K@std@@YAIABK@Z ; std::_Hash_representation<unsigned long>
  001bd	83 c4 04	 add	 esp, 4
; File C:\Program Files\Microsoft Visual Studio\2022\Community\VC\Tools\MSVC\14.44.35207\include\xhash

; 1221 :             auto _Target = _Find_last(_Keyval, _Hashval)._Duplicate;

  001c0	50		 push	 eax
  001c1	8d 45 08	 lea	 eax, DWORD PTR _eHair$[ebp]
  001c4	50		 push	 eax
  001c5	8d 45 e4	 lea	 eax, DWORD PTR $T42[ebp]
  001c8	50		 push	 eax
  001c9	e8 00 00 00 00	 call	 ??$_Find_last@K@?$_Hash@V?$_Umap_traits@KMV?$_Uhash_compare@KU?$hash@K@std@@U?$equal_to@K@2@@std@@V?$allocator@U?$pair@$$CBKM@std@@@2@$0A@@std@@@std@@IBE?AU?$_Hash_find_last_result@PAU?$_List_node@U?$pair@$$CBKM@std@@PAX@std@@@1@ABKI@Z ; std::_Hash<std::_Umap_traits<unsigned long,float,std::_Uhash_compare<unsigned long,std::hash<unsigned long>,std::equal_to<unsigned long> >,std::allocator<std::pair<unsigned long const ,float> >,0> >::_Find_last<unsigned long>

; 1222 :             if (_Target) {

  001ce	8b 0d 04 00 00
	00		 mov	 ecx, DWORD PTR ?setAllowedHair@?1??SetHair@CInstanceBase@@QAEXK@Z@4V?$unordered_map@KMU?$hash@K@std@@U?$equal_to@K@2@V?$allocator@U?$pair@$$CBKM@std@@@2@@std@@A+4
  001d4	8b d1		 mov	 edx, ecx
  001d6	8b 40 04	 mov	 eax, DWORD PTR [eax+4]
  001d9	85 c0		 test	 eax, eax
  001db	0f 45 d0	 cmovne	 edx, eax
; File C:\Program Files\Microsoft Visual Studio\2022\Community\VC\Tools\MSVC\14.44.35207\include\list

; 37   :     _List_unchecked_const_iterator(_Nodeptr _Pnode, const _Mylist* _Plist) noexcept : _Ptr(_Pnode) {

  001de	3b d1		 cmp	 edx, ecx
; File C:\Anka2Project\Anka2Project\Source\Binary\source\UserInterface\InstanceBase.cpp

; 2912 : 	if (it != setAllowedHair.end())

  001e0	74 07		 je	 SHORT $LN177@SetHair

; 2913 : 		fSpecularPower = it->second;

  001e2	f3 0f 10 42 0c	 movss	 xmm0, DWORD PTR [edx+12]
  001e7	eb 03		 jmp	 SHORT $LN5@SetHair
$LN177@SetHair:
  001e9	0f 57 c0	 xorps	 xmm0, xmm0
$LN5@SetHair:

; 2914 : #endif
; 2915 : 
; 2916 : 	m_GraphicThingInstance.SetHair(eHair

  001ec	51		 push	 ecx
  001ed	f3 0f 11 04 24	 movss	 DWORD PTR [esp], xmm0
  001f2	8d 8e f4 02 00
	00		 lea	 ecx, DWORD PTR [esi+756]
  001f8	57		 push	 edi
  001f9	e8 00 00 00 00	 call	 ?SetHair@CActorInstance@@QAEXKM@Z ; CActorInstance::SetHair
$LN1@SetHair:

; 2921 : }

  001fe	8b 4d f4	 mov	 ecx, DWORD PTR __$EHRec$[ebp]
  00201	64 89 0d 00 00
	00 00		 mov	 DWORD PTR fs:0, ecx
  00208	59		 pop	 ecx
  00209	5f		 pop	 edi
  0020a	5e		 pop	 esi
  0020b	5b		 pop	 ebx
  0020c	8b e5		 mov	 esp, ebp
  0020e	5d		 pop	 ebp
  0020f	c2 04 00	 ret	 4
$LN181@SetHair:
; File C:\Program Files\Microsoft Visual Studio\2022\Community\VC\Tools\MSVC\14.44.35207\include\xmemory

; 219  :     _STL_VERIFY(_Back_shift >= _Min_back_shift && _Back_shift <= _Non_user_size, "invalid argument");

  00212	6a 00		 push	 0
  00214	6a 00		 push	 0
  00216	6a 00		 push	 0
  00218	6a 00		 push	 0
  0021a	6a 00		 push	 0
  0021c	e8 00 00 00 00	 call	 __invoke_watson
$LN179@SetHair:
  00221	cc		 int	 3
_TEXT	ENDS
;	COMDAT text$x
text$x	SEGMENT
__unwindfunclet$?SetHair@CInstanceBase@@QAEXK@Z$0:
  00000	68 00 00 00 00	 push	 OFFSET ?$TSS0@?1??SetHair@CInstanceBase@@QAEXK@Z@4HA
  00005	e8 00 00 00 00	 call	 __Init_thread_abort
  0000a	59		 pop	 ecx
  0000b	c3		 ret	 0
__unwindfunclet$?SetHair@CInstanceBase@@QAEXK@Z$2:
  0000c	b9 04 00 00 00	 mov	 ecx, OFFSET ?setAllowedHair@?1??SetHair@CInstanceBase@@QAEXK@Z@4V?$unordered_map@KMU?$hash@K@std@@U?$equal_to@K@2@V?$allocator@U?$pair@$$CBKM@std@@@2@@std@@A+4
  00011	e9 00 00 00 00	 jmp	 ??1?$list@U?$pair@$$CBKM@std@@V?$allocator@U?$pair@$$CBKM@std@@@2@@std@@QAE@XZ ; std::list<std::pair<unsigned long const ,float>,std::allocator<std::pair<unsigned long const ,float> > >::~list<std::pair<unsigned long const ,float>,std::allocator<std::pair<unsigned long const ,float> > >
__unwindfunclet$?SetHair@CInstanceBase@@QAEXK@Z$3:
  00016	b9 0c 00 00 00	 mov	 ecx, OFFSET ?setAllowedHair@?1??SetHair@CInstanceBase@@QAEXK@Z@4V?$unordered_map@KMU?$hash@K@std@@U?$equal_to@K@2@V?$allocator@U?$pair@$$CBKM@std@@@2@@std@@A+12
  0001b	e9 00 00 00 00	 jmp	 ??1?$_Hash_vec@V?$allocator@V?$_List_unchecked_iterator@V?$_List_val@U?$_List_simple_types@U?$pair@$$CBKM@std@@@std@@@std@@@std@@@std@@@std@@QAE@XZ ; std::_Hash_vec<std::allocator<std::_List_unchecked_iterator<std::_List_val<std::_List_simple_types<std::pair<unsigned long const ,float> > > > > >::~_Hash_vec<std::allocator<std::_List_unchecked_iterator<std::_List_val<std::_List_simple_types<std::pair<unsigned long const ,float> > > > > >
__unwindfunclet$?SetHair@CInstanceBase@@QAEXK@Z$1:
  00020	b9 00 00 00 00	 mov	 ecx, OFFSET ?setAllowedHair@?1??SetHair@CInstanceBase@@QAEXK@Z@4V?$unordered_map@KMU?$hash@K@std@@U?$equal_to@K@2@V?$allocator@U?$pair@$$CBKM@std@@@2@@std@@A
  00025	e9 00 00 00 00	 jmp	 ??1?$_Hash@V?$_Umap_traits@KMV?$_Uhash_compare@KU?$hash@K@std@@U?$equal_to@K@2@@std@@V?$allocator@U?$pair@$$CBKM@std@@@2@$0A@@std@@@std@@QAE@XZ
  0002a	cc		 int	 3
  0002b	cc		 int	 3
  0002c	cc		 int	 3
  0002d	cc		 int	 3
  0002e	cc		 int	 3
__ehhandler$?SetHair@CInstanceBase@@QAEXK@Z:
  0002f	90		 npad	 1
  00030	90		 npad	 1
  00031	8b 54 24 08	 mov	 edx, DWORD PTR [esp+8]
  00035	8d 42 0c	 lea	 eax, DWORD PTR [edx+12]
  00038	8b 4a e0	 mov	 ecx, DWORD PTR [edx-32]
  0003b	33 c8		 xor	 ecx, eax
  0003d	e8 00 00 00 00	 call	 @__security_check_cookie@4
  00042	b8 00 00 00 00	 mov	 eax, OFFSET __ehfuncinfo$?SetHair@CInstanceBase@@QAEXK@Z
  00047	e9 00 00 00 00	 jmp	 ___CxxFrameHandler3
text$x	ENDS
?SetHair@CInstanceBase@@QAEXK@Z ENDP			; CInstanceBase::SetHair
; Function compile flags: /Ogtp
;	COMDAT ??__FsetAllowedHair@?1??SetHair@CInstanceBase@@QAEXK@Z@YAXXZ
text$yd	SEGMENT
??__FsetAllowedHair@?1??SetHair@CInstanceBase@@QAEXK@Z@YAXXZ PROC ; `CInstanceBase::SetHair'::`2'::`dynamic atexit destructor for 'setAllowedHair'', COMDAT
  00000	b9 00 00 00 00	 mov	 ecx, OFFSET ?setAllowedHair@?1??SetHair@CInstanceBase@@QAEXK@Z@4V?$unordered_map@KMU?$hash@K@std@@U?$equal_to@K@2@V?$allocator@U?$pair@$$CBKM@std@@@2@@std@@A
  00005	e9 00 00 00 00	 jmp	 ??1?$_Hash@V?$_Umap_traits@KMV?$_Uhash_compare@KU?$hash@K@std@@U?$equal_to@K@2@@std@@V?$allocator@U?$pair@$$CBKM@std@@@2@$0A@@std@@@std@@QAE@XZ
??__FsetAllowedHair@?1??SetHair@CInstanceBase@@QAEXK@Z@YAXXZ ENDP ; `CInstanceBase::SetHair'::`2'::`dynamic atexit destructor for 'setAllowedHair''
text$yd	ENDS
; Function compile flags: /Ogtp
; File C:\Anka2Project\Anka2Project\Source\Binary\source\UserInterface\InstanceBase.cpp
;	COMDAT ?ChangeArmor@CInstanceBase@@QAE_NK@Z
_TEXT	SEGMENT
_fAdvRot$1$ = -44					; size = 4
_fRot$1$ = -40						; size = 4
_eAura$1$ = -36						; size = 4
_dwAcce$1$ = -32					; size = 4
_eWeapon$1$ = -28					; size = 4
_eHair$1$ = -24						; size = 4
_eShape$ = -20						; size = 4
_dwVID$1$ = -20						; size = 4
_kAffectFlagContainer$ = -16				; size = 8
__$ArrayPad$ = -8					; size = 4
_dwArmor$ = 8						; size = 4
?ChangeArmor@CInstanceBase@@QAE_NK@Z PROC		; CInstanceBase::ChangeArmor, COMDAT
; _this$ = ecx

; 3345 : {

  00000	55		 push	 ebp
  00001	8b ec		 mov	 ebp, esp
  00003	83 ec 2c	 sub	 esp, 44			; 0000002cH
  00006	a1 00 00 00 00	 mov	 eax, DWORD PTR ___security_cookie
  0000b	33 c5		 xor	 eax, ebp
  0000d	89 45 f8	 mov	 DWORD PTR __$ArrayPad$[ebp], eax
  00010	56		 push	 esi
  00011	8b f1		 mov	 esi, ecx

; 3346 : 	DWORD eShape;
; 3347 : 	__ArmorVnumToShape(dwArmor, &eShape);

  00013	8d 55 ec	 lea	 edx, DWORD PTR _eShape$[ebp]
  00016	8b 4d 08	 mov	 ecx, DWORD PTR _dwArmor$[ebp]
  00019	57		 push	 edi
  0001a	e8 00 00 00 00	 call	 ?__ArmorVnumToShape@@YA_NHPAK@Z ; __ArmorVnumToShape

; 3348 : 
; 3349 : 	if (GetShape()==eShape)

  0001f	8b ce		 mov	 ecx, esi
  00021	e8 00 00 00 00	 call	 ?GetShape@CInstanceBase@@QAEKXZ ; CInstanceBase::GetShape
  00026	3b 45 ec	 cmp	 eax, DWORD PTR _eShape$[ebp]
  00029	0f 84 b0 00 00
	00		 je	 $LN7@ChangeArmo

; 3350 : 		return false;
; 3351 : 
; 3352 : 	CAffectFlagContainer kAffectFlagContainer;

  0002f	8d 4d f0	 lea	 ecx, DWORD PTR _kAffectFlagContainer$[ebp]
  00032	e8 00 00 00 00	 call	 ??0CAffectFlagContainer@@QAE@XZ ; CAffectFlagContainer::CAffectFlagContainer

; 3353 : 	kAffectFlagContainer.CopyInstance(m_kAffectFlagContainer);

  00037	8d 86 55 01 00
	00		 lea	 eax, DWORD PTR [esi+341]
  0003d	50		 push	 eax
  0003e	8d 4d f0	 lea	 ecx, DWORD PTR _kAffectFlagContainer$[ebp]
  00041	e8 00 00 00 00	 call	 ?CopyInstance@CAffectFlagContainer@@QAEXABV1@@Z ; CAffectFlagContainer::CopyInstance

; 3354 : 
; 3355 : 	DWORD dwVID = GetVirtualID();

  00046	8b ce		 mov	 ecx, esi
  00048	e8 00 00 00 00	 call	 ?GetVirtualID@CInstanceBase@@QAEKXZ ; CInstanceBase::GetVirtualID

; 3356 : 	DWORD dwRace = GetRace();

  0004d	8b ce		 mov	 ecx, esi
  0004f	89 45 ec	 mov	 DWORD PTR _dwVID$1$[ebp], eax
  00052	e8 00 00 00 00	 call	 ?GetRace@CInstanceBase@@QAEKXZ ; CInstanceBase::GetRace

; 3357 : 	DWORD eHair = GetPart(CRaceData::PART_HAIR);

  00057	6a 04		 push	 4
  00059	8b ce		 mov	 ecx, esi
  0005b	8b f8		 mov	 edi, eax
  0005d	e8 00 00 00 00	 call	 ?GetPart@CInstanceBase@@QAEKW4EParts@CRaceData@@@Z ; CInstanceBase::GetPart

; 3358 : 	DWORD eWeapon = GetPart(CRaceData::PART_WEAPON);

  00062	6a 01		 push	 1
  00064	8b ce		 mov	 ecx, esi
  00066	89 45 e8	 mov	 DWORD PTR _eHair$1$[ebp], eax
  00069	e8 00 00 00 00	 call	 ?GetPart@CInstanceBase@@QAEKW4EParts@CRaceData@@@Z ; CInstanceBase::GetPart

; 3359 : #ifdef ENABLE_ACCE_COSTUME_SYSTEM
; 3360 : 	DWORD dwAcce = GetPart(CRaceData::PART_ACCE);

  0006e	6a 05		 push	 5
  00070	8b ce		 mov	 ecx, esi
  00072	89 45 e4	 mov	 DWORD PTR _eWeapon$1$[ebp], eax
  00075	e8 00 00 00 00	 call	 ?GetPart@CInstanceBase@@QAEKW4EParts@CRaceData@@@Z ; CInstanceBase::GetPart

; 3361 : #endif
; 3362 : #ifdef ENABLE_AURA_COSTUME_SYSTEM
; 3363 : 	DWORD eAura = GetPart(CRaceData::PART_AURA);

  0007a	6a 06		 push	 6
  0007c	8b ce		 mov	 ecx, esi
  0007e	89 45 e0	 mov	 DWORD PTR _dwAcce$1$[ebp], eax
  00081	e8 00 00 00 00	 call	 ?GetPart@CInstanceBase@@QAEKW4EParts@CRaceData@@@Z ; CInstanceBase::GetPart

; 3364 : #endif
; 3365 : 
; 3366 : 	float fRot = GetRotation();

  00086	8b ce		 mov	 ecx, esi
  00088	89 45 dc	 mov	 DWORD PTR _eAura$1$[ebp], eax
  0008b	e8 00 00 00 00	 call	 ?GetRotation@CInstanceBase@@QAEMXZ ; CInstanceBase::GetRotation

; 3367 : 	float fAdvRot = GetAdvancingRotation();

  00090	8b ce		 mov	 ecx, esi
  00092	f3 0f 11 45 d8	 movss	 DWORD PTR _fRot$1$[ebp], xmm0
  00097	e8 00 00 00 00	 call	 ?GetAdvancingRotation@CInstanceBase@@QAEMXZ ; CInstanceBase::GetAdvancingRotation

; 3368 : 
; 3369 : 	if (IsWalking())

  0009c	8b ce		 mov	 ecx, esi
  0009e	f3 0f 11 45 d4	 movss	 DWORD PTR _fAdvRot$1$[ebp], xmm0
  000a3	e8 00 00 00 00	 call	 ?IsWalking@CInstanceBase@@QAEHXZ ; CInstanceBase::IsWalking
  000a8	85 c0		 test	 eax, eax
  000aa	74 0f		 je	 SHORT $LN3@ChangeArmo

; 3370 : 		EndWalking();

  000ac	f3 0f 10 0d 00
	00 00 00	 movss	 xmm1, DWORD PTR __real@3e19999a
  000b4	8b ce		 mov	 ecx, esi
  000b6	e8 00 00 00 00	 call	 ?EndWalking@CInstanceBase@@QAEXM@Z ; CInstanceBase::EndWalking
$LN3@ChangeArmo:

; 3371 : 
; 3372 : 	__ClearAffects();

  000bb	8b ce		 mov	 ecx, esi
  000bd	e8 00 00 00 00	 call	 ?__ClearAffects@CInstanceBase@@QAEXXZ ; CInstanceBase::__ClearAffects

; 3373 : 
; 3374 : 	if (!SetRace(dwRace))

  000c2	57		 push	 edi
  000c3	8b ce		 mov	 ecx, esi
  000c5	e8 00 00 00 00	 call	 ?SetRace@CInstanceBase@@QAE_NK@Z ; CInstanceBase::SetRace
  000ca	84 c0		 test	 al, al
  000cc	75 25		 jne	 SHORT $LN4@ChangeArmo

; 3375 : 	{
; 3376 : 		TraceError("CPythonCharacterManager::ChangeArmor - SetRace VID[%d] Race[%d] ERROR", dwVID, dwRace);

  000ce	57		 push	 edi
  000cf	ff 75 ec	 push	 DWORD PTR _dwVID$1$[ebp]
  000d2	68 00 00 00 00	 push	 OFFSET ??_C@_0EG@MNIPPABI@CPythonCharacterManager?3?3Change@
  000d7	e8 00 00 00 00	 call	 ?TraceError@@YAXPBDZZ	; TraceError
  000dc	83 c4 0c	 add	 esp, 12			; 0000000cH
$LN7@ChangeArmo:

; 3400 : 
; 3401 : 	return true;
; 3402 : }

  000df	32 c0		 xor	 al, al
  000e1	5f		 pop	 edi
  000e2	5e		 pop	 esi
  000e3	8b 4d f8	 mov	 ecx, DWORD PTR __$ArrayPad$[ebp]
  000e6	33 cd		 xor	 ecx, ebp
  000e8	e8 00 00 00 00	 call	 @__security_check_cookie@4
  000ed	8b e5		 mov	 esp, ebp
  000ef	5d		 pop	 ebp
  000f0	c2 04 00	 ret	 4
$LN4@ChangeArmo:

; 3377 : 		return false;
; 3378 : 	}
; 3379 : 
; 3380 : 	SetArmor(dwArmor);

  000f3	ff 75 08	 push	 DWORD PTR _dwArmor$[ebp]
  000f6	8b ce		 mov	 ecx, esi
  000f8	e8 00 00 00 00	 call	 ?SetArmor@CInstanceBase@@QAEXK@Z ; CInstanceBase::SetArmor

; 3381 : 	SetHair(eHair);

  000fd	ff 75 e8	 push	 DWORD PTR _eHair$1$[ebp]
  00100	8b ce		 mov	 ecx, esi
  00102	e8 00 00 00 00	 call	 ?SetHair@CInstanceBase@@QAEXK@Z ; CInstanceBase::SetHair

; 3382 : 	SetWeapon(eWeapon);

  00107	ff 75 e4	 push	 DWORD PTR _eWeapon$1$[ebp]
  0010a	8b ce		 mov	 ecx, esi
  0010c	e8 00 00 00 00	 call	 ?SetWeapon@CInstanceBase@@QAE_NK@Z ; CInstanceBase::SetWeapon

; 3383 : #ifdef ENABLE_ACCE_COSTUME_SYSTEM
; 3384 : 	SetAcce(dwAcce);

  00111	ff 75 e0	 push	 DWORD PTR _dwAcce$1$[ebp]
  00114	8b ce		 mov	 ecx, esi
  00116	e8 00 00 00 00	 call	 ?SetAcce@CInstanceBase@@QAE_NK@Z ; CInstanceBase::SetAcce

; 3385 : #endif
; 3386 : #ifdef ENABLE_AURA_COSTUME_SYSTEM
; 3387 : 	SetAura(eAura);

  0011b	ff 75 dc	 push	 DWORD PTR _eAura$1$[ebp]
  0011e	8b ce		 mov	 ecx, esi
  00120	e8 00 00 00 00	 call	 ?SetAura@CInstanceBase@@QAE_NK@Z ; CInstanceBase::SetAura

; 3388 : #endif
; 3389 : 
; 3390 : 	SetRotation(fRot);

  00125	f3 0f 10 45 d8	 movss	 xmm0, DWORD PTR _fRot$1$[ebp]
  0012a	51		 push	 ecx
  0012b	8b ce		 mov	 ecx, esi
  0012d	f3 0f 11 04 24	 movss	 DWORD PTR [esp], xmm0
  00132	e8 00 00 00 00	 call	 ?SetRotation@CInstanceBase@@QAEXM@Z ; CInstanceBase::SetRotation

; 3391 : 	SetAdvancingRotation(fAdvRot);

  00137	f3 0f 10 4d d4	 movss	 xmm1, DWORD PTR _fAdvRot$1$[ebp]
  0013c	8b ce		 mov	 ecx, esi
  0013e	e8 00 00 00 00	 call	 ?SetAdvancingRotation@CInstanceBase@@QAEXM@Z ; CInstanceBase::SetAdvancingRotation

; 3392 : 
; 3393 : 	__AttachHorseSaddle();

  00143	8b ce		 mov	 ecx, esi
  00145	e8 00 00 00 00	 call	 ?__AttachHorseSaddle@CInstanceBase@@IAEXXZ ; CInstanceBase::__AttachHorseSaddle

; 3394 : 
; 3395 : 	RefreshState(CRaceMotionData::NAME_WAIT, TRUE);

  0014a	6a 01		 push	 1
  0014c	6a 01		 push	 1
  0014e	8b ce		 mov	 ecx, esi
  00150	e8 00 00 00 00	 call	 ?RefreshState@CInstanceBase@@IAEXK_N@Z ; CInstanceBase::RefreshState

; 3396 : 	SetAffectFlagContainer(kAffectFlagContainer);

  00155	8d 45 f0	 lea	 eax, DWORD PTR _kAffectFlagContainer$[ebp]
  00158	8b ce		 mov	 ecx, esi
  0015a	50		 push	 eax
  0015b	e8 00 00 00 00	 call	 ?SetAffectFlagContainer@CInstanceBase@@QAEXABVCAffectFlagContainer@@@Z ; CInstanceBase::SetAffectFlagContainer

; 3397 : 
; 3398 : 	CActorInstance::IEventHandler& rkEventHandler=GetEventHandlerRef();

  00160	8b ce		 mov	 ecx, esi
  00162	e8 00 00 00 00	 call	 ?GetEventHandlerRef@CInstanceBase@@IAEAAVIEventHandler@CActorInstance@@XZ ; CInstanceBase::GetEventHandlerRef

; 3399 : 	rkEventHandler.OnChangeShape();

  00167	8b c8		 mov	 ecx, eax
  00169	8b 10		 mov	 edx, DWORD PTR [eax]
  0016b	ff 52 34	 call	 DWORD PTR [edx+52]

; 3400 : 
; 3401 : 	return true;
; 3402 : }

  0016e	8b 4d f8	 mov	 ecx, DWORD PTR __$ArrayPad$[ebp]
  00171	b0 01		 mov	 al, 1
  00173	5f		 pop	 edi
  00174	33 cd		 xor	 ecx, ebp
  00176	5e		 pop	 esi
  00177	e8 00 00 00 00	 call	 @__security_check_cookie@4
  0017c	8b e5		 mov	 esp, ebp
  0017e	5d		 pop	 ebp
  0017f	c2 04 00	 ret	 4
?ChangeArmor@CInstanceBase@@QAE_NK@Z ENDP		; CInstanceBase::ChangeArmor
_TEXT	ENDS
; Function compile flags: /Ogtp
; File C:\Anka2Project\Anka2Project\Source\Binary\source\UserInterface\InstanceBase.cpp
;	COMDAT ?__Warrior_Initialize@CInstanceBase@@IAEXXZ
_TEXT	SEGMENT
?__Warrior_Initialize@CInstanceBase@@IAEXXZ PROC	; CInstanceBase::__Warrior_Initialize, COMDAT
; _this$ = ecx

; 3761 : 	m_kWarrior.m_dwGeomgyeongEffect=0;

  00000	c7 81 64 1d 00
	00 00 00 00 00	 mov	 DWORD PTR [ecx+7524], 0

; 3762 : }

  0000a	c3		 ret	 0
?__Warrior_Initialize@CInstanceBase@@IAEXXZ ENDP	; CInstanceBase::__Warrior_Initialize
_TEXT	ENDS
; Function compile flags: /Ogtp
; File C:\Anka2Project\Anka2Project\Source\Binary\source\UserInterface\InstanceBase.cpp
; File C:\Anka2Project\Anka2Project\Source\Binary\extern\include\d3dx8math.inl
; File C:\Anka2Project\Anka2Project\Source\Binary\source\UserInterface\InstanceBase.cpp
; File C:\Anka2Project\Anka2Project\Source\Binary\extern\include\d3dx8math.inl
; File C:\Anka2Project\Anka2Project\Source\Binary\source\UserInterface\InstanceBase.cpp
; File C:\Anka2Project\Anka2Project\Source\Binary\extern\include\d3dx8math.inl
; File C:\Anka2Project\Anka2Project\Source\Binary\source\UserInterface\InstanceBase.cpp
; File C:\Program Files\Microsoft Visual Studio\2022\Community\VC\Tools\MSVC\14.44.35207\include\list
; File C:\Program Files\Microsoft Visual Studio\2022\Community\VC\Tools\MSVC\14.44.35207\include\xmemory
; File C:\Program Files\Microsoft Visual Studio\2022\Community\VC\Tools\MSVC\14.44.35207\include\list
; File C:\Anka2Project\Anka2Project\Source\Binary\source\UserInterface\InstanceBase.cpp
; File C:\Program Files\Microsoft Visual Studio\2022\Community\VC\Tools\MSVC\14.44.35207\include\list
; File C:\Anka2Project\Anka2Project\Source\Binary\source\UserInterface\InstanceBase.cpp
; File C:\Program Files\Microsoft Visual Studio\2022\Community\VC\Tools\MSVC\14.44.35207\include\list
; File C:\Program Files\Microsoft Visual Studio\2022\Community\VC\Tools\MSVC\14.44.35207\include\xstring
; File C:\Anka2Project\Anka2Project\Source\Binary\source\UserInterface\InstanceBase.cpp
; File C:\Program Files\Microsoft Visual Studio\2022\Community\VC\Tools\MSVC\14.44.35207\include\xstring
; File C:\Anka2Project\Anka2Project\Source\Binary\source\UserInterface\InstanceBase.cpp
;	COMDAT ?__Initialize@CInstanceBase@@IAEXXZ
_TEXT	SEGMENT
$T1 = -16						; size = 12
$T3 = -16						; size = 12
__$ArrayPad$ = -4					; size = 4
?__Initialize@CInstanceBase@@IAEXXZ PROC		; CInstanceBase::__Initialize, COMDAT
; _this$ = ecx

; 3765 : {

  00000	55		 push	 ebp
  00001	8b ec		 mov	 ebp, esp
  00003	83 ec 10	 sub	 esp, 16			; 00000010H
  00006	a1 00 00 00 00	 mov	 eax, DWORD PTR ___security_cookie
  0000b	33 c5		 xor	 eax, ebp
  0000d	89 45 fc	 mov	 DWORD PTR __$ArrayPad$[ebp], eax
  00010	57		 push	 edi
  00011	8b f9		 mov	 edi, ecx

; 3766 : 	__Warrior_Initialize();

  00013	e8 00 00 00 00	 call	 ?__Warrior_Initialize@CInstanceBase@@IAEXXZ ; CInstanceBase::__Warrior_Initialize

; 3767 : 	__StoneSmoke_Inialize();

  00018	e8 00 00 00 00	 call	 ?__StoneSmoke_Inialize@CInstanceBase@@IAEXXZ ; CInstanceBase::__StoneSmoke_Inialize

; 3768 : 	__EffectContainer_Initialize();

  0001d	e8 00 00 00 00	 call	 ?__EffectContainer_Initialize@CInstanceBase@@IAEXXZ ; CInstanceBase::__EffectContainer_Initialize

; 3769 : 	__InitializeRotationSpeed();

  00022	8b cf		 mov	 ecx, edi
  00024	e8 00 00 00 00	 call	 ?__InitializeRotationSpeed@CInstanceBase@@IAEXXZ ; CInstanceBase::__InitializeRotationSpeed

; 3770 : 
; 3771 : 	SetEventHandler(CActorInstance::IEventHandler::GetEmptyPtr());

  00029	e8 00 00 00 00	 call	 ?GetEmptyPtr@IEventHandler@CActorInstance@@SAPAV12@XZ ; CActorInstance::IEventHandler::GetEmptyPtr
  0002e	50		 push	 eax
  0002f	8b cf		 mov	 ecx, edi
  00031	e8 00 00 00 00	 call	 ?SetEventHandler@CInstanceBase@@QAEXPAVIEventHandler@CActorInstance@@@Z ; CInstanceBase::SetEventHandler

; 3772 : 
; 3773 : 	m_kAffectFlagContainer.Clear();

  00036	8d 8f 55 01 00
	00		 lea	 ecx, DWORD PTR [edi+341]
  0003c	e8 00 00 00 00	 call	 ?Clear@CAffectFlagContainer@@QAEXXZ ; CAffectFlagContainer::Clear

; 3774 : 
; 3775 : 	m_dwLevel = 0;
; 3776 : #ifdef ENABLE_SHOW_MOB_INFO
; 3777 : 	m_dwAIFlag = 0;
; 3778 : #endif
; 3779 : 	m_dwGuildID = 0;
; 3780 : 	m_dwEmpireID = 0;
; 3781 : #ifdef ENABLE_GUILD_LEADER_TEXTAIL
; 3782 : 	m_dwGuildLeader = 0;
; 3783 : #endif
; 3784 : 
; 3785 : 	m_eType = 0;
; 3786 : 	m_eRaceType = 0;
; 3787 : 	m_eShape = 0;
; 3788 : 	m_dwRace = 0;
; 3789 : 	m_dwVirtualNumber = 0;
; 3790 : 
; 3791 : 	m_dwBaseCmdTime=0;
; 3792 : 	m_dwBaseChkTime=0;
; 3793 : 	m_dwSkipTime=0;
; 3794 : 
; 3795 : 	m_GraphicThingInstance.Initialize();

  00041	8d 8f f4 02 00
	00		 lea	 ecx, DWORD PTR [edi+756]
  00047	c7 47 48 00 00
	00 00		 mov	 DWORD PTR [edi+72], 0
  0004e	c7 47 4c 00 00
	00 00		 mov	 DWORD PTR [edi+76], 0
  00055	c7 47 54 00 00
	00 00		 mov	 DWORD PTR [edi+84], 0
  0005c	c7 47 50 00 00
	00 00		 mov	 DWORD PTR [edi+80], 0
  00063	c6 47 60 00	 mov	 BYTE PTR [edi+96], 0
  00067	66 c7 87 6c 02
	00 00 00 00	 mov	 WORD PTR [edi+620], 0
  00070	c7 87 70 02 00
	00 00 00 00 00	 mov	 DWORD PTR [edi+624], 0
  0007a	c7 87 74 02 00
	00 00 00 00 00	 mov	 DWORD PTR [edi+628], 0
  00084	c7 87 78 02 00
	00 00 00 00 00	 mov	 DWORD PTR [edi+632], 0
  0008e	c7 87 3c 1d 00
	00 00 00 00 00	 mov	 DWORD PTR [edi+7484], 0
  00098	c7 87 38 1d 00
	00 00 00 00 00	 mov	 DWORD PTR [edi+7480], 0
  000a2	c7 87 40 1d 00
	00 00 00 00 00	 mov	 DWORD PTR [edi+7488], 0
  000ac	e8 00 00 00 00	 call	 ?Initialize@CGraphicObjectInstance@@QAEXXZ ; CGraphicObjectInstance::Initialize

; 3809 : 	NEW_SetSrcPixelPosition(TPixelPosition(0, 0, 0));

  000b1	8d 45 f0	 lea	 eax, DWORD PTR $T1[ebp]
  000b4	c7 87 88 02 00
	00 00 00 00 00	 mov	 DWORD PTR [edi+648], 0
  000be	50		 push	 eax
  000bf	8b cf		 mov	 ecx, edi
  000c1	c7 87 8c 02 00
	00 00 00 00 00	 mov	 DWORD PTR [edi+652], 0
  000cb	c7 87 90 02 00
	00 00 00 00 00	 mov	 DWORD PTR [edi+656], 0
  000d5	c7 87 94 02 00
	00 00 00 00 00	 mov	 DWORD PTR [edi+660], 0
  000df	c7 87 84 02 00
	00 00 00 00 00	 mov	 DWORD PTR [edi+644], 0
  000e9	c7 47 10 00 00
	00 00		 mov	 DWORD PTR [edi+16], 0
  000f0	c6 87 98 02 00
	00 00		 mov	 BYTE PTR [edi+664], 0
; File C:\Anka2Project\Anka2Project\Source\Binary\extern\include\d3dx8math.inl

; 180  :     x = fx;

  000f7	c7 45 f0 00 00
	00 00		 mov	 DWORD PTR $T1[ebp], 0

; 181  :     y = fy;

  000fe	c7 45 f4 00 00
	00 00		 mov	 DWORD PTR $T1[ebp+4], 0

; 182  :     z = fz;

  00105	c7 45 f8 00 00
	00 00		 mov	 DWORD PTR $T1[ebp+8], 0
; File C:\Anka2Project\Anka2Project\Source\Binary\source\UserInterface\InstanceBase.cpp

; 3809 : 	NEW_SetSrcPixelPosition(TPixelPosition(0, 0, 0));

  0010c	e8 00 00 00 00	 call	 ?NEW_SetSrcPixelPosition@CInstanceBase@@IAEXABUD3DXVECTOR3@@@Z ; CInstanceBase::NEW_SetSrcPixelPosition

; 3810 : 	NEW_SetDstPixelPosition(TPixelPosition(0, 0, 0));

  00111	8d 45 f0	 lea	 eax, DWORD PTR $T3[ebp]
; File C:\Anka2Project\Anka2Project\Source\Binary\extern\include\d3dx8math.inl

; 180  :     x = fx;

  00114	c7 45 f0 00 00
	00 00		 mov	 DWORD PTR $T3[ebp], 0
; File C:\Anka2Project\Anka2Project\Source\Binary\source\UserInterface\InstanceBase.cpp

; 3810 : 	NEW_SetDstPixelPosition(TPixelPosition(0, 0, 0));

  0011b	50		 push	 eax
  0011c	8b cf		 mov	 ecx, edi
; File C:\Anka2Project\Anka2Project\Source\Binary\extern\include\d3dx8math.inl

; 181  :     y = fy;

  0011e	c7 45 f4 00 00
	00 00		 mov	 DWORD PTR $T3[ebp+4], 0

; 182  :     z = fz;

  00125	c7 45 f8 00 00
	00 00		 mov	 DWORD PTR $T3[ebp+8], 0
; File C:\Anka2Project\Anka2Project\Source\Binary\source\UserInterface\InstanceBase.cpp

; 3810 : 	NEW_SetDstPixelPosition(TPixelPosition(0, 0, 0));

  0012c	e8 00 00 00 00	 call	 ?NEW_SetDstPixelPosition@CInstanceBase@@IAEXABUD3DXVECTOR3@@@Z ; CInstanceBase::NEW_SetDstPixelPosition

; 3811 : 
; 3812 : 	m_kPPosDust = TPixelPosition(0, 0, 0);

  00131	c7 87 9c 02 00
	00 00 00 00 00	 mov	 DWORD PTR [edi+668], 0
  0013b	c7 87 a0 02 00
	00 00 00 00 00	 mov	 DWORD PTR [edi+672], 0
  00145	c7 87 a4 02 00
	00 00 00 00 00	 mov	 DWORD PTR [edi+676], 0
; File C:\Program Files\Microsoft Visual Studio\2022\Community\VC\Tools\MSVC\14.44.35207\include\list

; 1507 :         _Node::_Free_non_head(_Getal(), _My_data._Myhead);

  0014f	8b 8f 44 1d 00
	00		 mov	 ecx, DWORD PTR [edi+7492]

; 324  :         _Head->_Prev->_Next = nullptr;

  00155	8b 41 04	 mov	 eax, DWORD PTR [ecx+4]
  00158	c7 00 00 00 00
	00		 mov	 DWORD PTR [eax], 0

; 325  : 
; 326  :         auto _Pnode = _Head->_Next;

  0015e	8b 01		 mov	 eax, DWORD PTR [ecx]

; 327  :         for (_Nodeptr _Pnext; _Pnode; _Pnode = _Pnext) {

  00160	85 c0		 test	 eax, eax
  00162	74 15		 je	 SHORT $LN70@Initialize
  00164	56		 push	 esi
$LL15@Initialize:

; 328  :             _Pnext = _Pnode->_Next;

  00165	8b 30		 mov	 esi, DWORD PTR [eax]
; File C:\Program Files\Microsoft Visual Studio\2022\Community\VC\Tools\MSVC\14.44.35207\include\xmemory

; 289  :         ::operator delete(_Ptr, _Bytes);

  00167	6a 2c		 push	 44			; 0000002cH
  00169	50		 push	 eax
  0016a	e8 00 00 00 00	 call	 ??3@YAXPAXI@Z		; operator delete
  0016f	83 c4 08	 add	 esp, 8
; File C:\Program Files\Microsoft Visual Studio\2022\Community\VC\Tools\MSVC\14.44.35207\include\list

; 327  :         for (_Nodeptr _Pnext; _Pnode; _Pnode = _Pnext) {

  00172	8b c6		 mov	 eax, esi
  00174	85 f6		 test	 esi, esi
  00176	75 ed		 jne	 SHORT $LL15@Initialize
  00178	5e		 pop	 esi
$LN70@Initialize:

; 1508 :         _My_data._Myhead->_Next = _My_data._Myhead;

  00179	8b 87 44 1d 00
	00		 mov	 eax, DWORD PTR [edi+7492]
; File C:\Anka2Project\Anka2Project\Source\Binary\source\UserInterface\InstanceBase.cpp

; 3846 : 	m_stName = "";

  0017f	8d 4f 14	 lea	 ecx, DWORD PTR [edi+20]
; File C:\Program Files\Microsoft Visual Studio\2022\Community\VC\Tools\MSVC\14.44.35207\include\list

; 1508 :         _My_data._Myhead->_Next = _My_data._Myhead;

  00182	89 00		 mov	 DWORD PTR [eax], eax

; 1509 :         _My_data._Myhead->_Prev = _My_data._Myhead;

  00184	8b 87 44 1d 00
	00		 mov	 eax, DWORD PTR [edi+7492]
  0018a	89 40 04	 mov	 DWORD PTR [eax+4], eax
; File C:\Anka2Project\Anka2Project\Source\Binary\source\UserInterface\InstanceBase.cpp

; 3836 : 	m_sAlignment = 0;

  0018d	33 c0		 xor	 eax, eax
; File C:\Program Files\Microsoft Visual Studio\2022\Community\VC\Tools\MSVC\14.44.35207\include\list

; 1510 :         _My_data._Mysize        = 0;

  0018f	c7 87 48 1d 00
	00 00 00 00 00	 mov	 DWORD PTR [edi+7496], 0
; File C:\Program Files\Microsoft Visual Studio\2022\Community\VC\Tools\MSVC\14.44.35207\include\xstring

; 1638 :         return assign(_Ptr, _Convert_size<size_type>(_Traits::length(_Ptr)));

  00199	50		 push	 eax
  0019a	68 00 00 00 00	 push	 OFFSET ??_C@_00CNPNBAHC@@
; File C:\Anka2Project\Anka2Project\Source\Binary\source\UserInterface\InstanceBase.cpp

; 3817 : 	m_dwLastComboIndex = 0;

  0019f	c7 87 a8 02 00
	00 00 00 00 00	 mov	 DWORD PTR [edi+680], 0

; 3818 : 
; 3819 : 	m_swordRefineEffectRight = 0;

  001a9	c7 87 ac 02 00
	00 00 00 00 00	 mov	 DWORD PTR [edi+684], 0

; 3820 : 	m_swordRefineEffectLeft = 0;

  001b3	c7 87 b0 02 00
	00 00 00 00 00	 mov	 DWORD PTR [edi+688], 0

; 3821 : 	m_armorRefineEffect = 0;

  001bd	c7 87 b4 02 00
	00 00 00 00 00	 mov	 DWORD PTR [edi+692], 0

; 3822 : 
; 3823 : #ifdef ENABLE_MDE_EFFECT
; 3824 : 	m_dwSpecialEffect = 0;

  001c7	c7 87 b8 02 00
	00 00 00 00 00	 mov	 DWORD PTR [edi+696], 0

; 3825 : 	m_dwSpecialEffectLeft = 0;

  001d1	c7 87 bc 02 00
	00 00 00 00 00	 mov	 DWORD PTR [edi+700], 0

; 3826 : #endif
; 3827 : 
; 3828 : #ifdef ENABLE_ACCE_COSTUME_SYSTEM
; 3829 : 	m_dwAcceEffect = 0;

  001db	c7 87 c0 02 00
	00 00 00 00 00	 mov	 DWORD PTR [edi+704], 0

; 3830 : #endif
; 3831 : 
; 3832 : #ifdef ENABLE_AURA_COSTUME_SYSTEM
; 3833 : 	m_auraRefineEffect = 0;

  001e5	c7 87 80 1d 00
	00 00 00 00 00	 mov	 DWORD PTR [edi+7552], 0

; 3836 : 	m_sAlignment = 0;

  001ef	89 87 7c 02 00
	00		 mov	 DWORD PTR [edi+636], eax

; 3837 : #ifdef ENABLE_TITLE_SYSTEM
; 3838 : 	m_iTitleID = 0;

  001f5	89 87 c4 02 00
	00		 mov	 DWORD PTR [edi+708], eax

; 3839 : #endif
; 3840 : 	m_byPKMode = 0;
; 3841 : 	m_isKiller = false;
; 3842 : 	m_isPartyMember = false;

  001fb	88 87 80 02 00
	00		 mov	 BYTE PTR [edi+640], al

; 3843 : 
; 3844 : 	m_bEnableTCPState = TRUE;

  00201	c7 87 f0 02 00
	00 01 00 00 00	 mov	 DWORD PTR [edi+752], 1
; File C:\Program Files\Microsoft Visual Studio\2022\Community\VC\Tools\MSVC\14.44.35207\include\xstring

; 1638 :         return assign(_Ptr, _Convert_size<size_type>(_Traits::length(_Ptr)));

  0020b	e8 00 00 00 00	 call	 ?assign@?$basic_string@DU?$char_traits@D@std@@V?$allocator@D@2@@std@@QAEAAV12@QBDI@Z ; std::basic_string<char,std::char_traits<char>,std::allocator<char> >::assign
  00210	0f 57 c0	 xorps	 xmm0, xmm0
; File C:\Anka2Project\Anka2Project\Source\Binary\source\UserInterface\InstanceBase.cpp

; 3849 : 	memset(m_adwCRCAffectEffect, 0, sizeof(m_adwCRCAffectEffect));

  00213	8d 87 60 01 00
	00		 lea	 eax, DWORD PTR [edi+352]
  00219	68 00 01 00 00	 push	 256			; 00000100H
  0021e	0f 11 47 2c	 movups	 XMMWORD PTR [edi+44], xmm0
  00222	6a 00		 push	 0
  00224	66 0f d6 47 3c	 movq	 QWORD PTR [edi+60], xmm0
  00229	50		 push	 eax
  0022a	c7 47 44 00 00
	00 00		 mov	 DWORD PTR [edi+68], 0
  00231	e8 00 00 00 00	 call	 _memset

; 3850 : 	memset(&m_kMovAfterFunc, 0, sizeof(m_kMovAfterFunc));
; 3851 : 
; 3852 : 	m_bDamageEffectType = false;
; 3853 : 	m_dwDuelMode = DUEL_NONE;
; 3854 : 	m_dwEmoticonTime = 0;
; 3855 : 
; 3856 : #ifdef ENABLE_RENDER_TARGET
; 3857 : 	m_IsAlwaysRender = false;
; 3858 : #endif
; 3859 : 
; 3860 : #ifdef ENABLE_GROWTH_PET_SYSTEM
; 3861 : 	m_bCharacterSize = 0;
; 3862 : #endif
; 3863 : }

  00236	8b 4d fc	 mov	 ecx, DWORD PTR __$ArrayPad$[ebp]
  00239	83 c4 0c	 add	 esp, 12			; 0000000cH
  0023c	0f 57 c0	 xorps	 xmm0, xmm0
  0023f	33 cd		 xor	 ecx, ebp
  00241	0f 11 87 c8 02
	00 00		 movups	 XMMWORD PTR [edi+712], xmm0
  00248	66 0f d6 87 d8
	02 00 00	 movq	 QWORD PTR [edi+728], xmm0
  00250	c7 87 4c 1d 00
	00 00 00 00 00	 mov	 DWORD PTR [edi+7500], 0
  0025a	c7 87 68 1d 00
	00 00 00 00 00	 mov	 DWORD PTR [edi+7528], 0
  00264	c7 87 6c 1d 00
	00 00 00 00 00	 mov	 DWORD PTR [edi+7532], 0
  0026e	c6 87 70 1d 00
	00 00		 mov	 BYTE PTR [edi+7536], 0
  00275	c6 87 54 01 00
	00 00		 mov	 BYTE PTR [edi+340], 0
  0027c	5f		 pop	 edi
  0027d	e8 00 00 00 00	 call	 @__security_check_cookie@4
  00282	8b e5		 mov	 esp, ebp
  00284	5d		 pop	 ebp
  00285	c3		 ret	 0
?__Initialize@CInstanceBase@@IAEXXZ ENDP		; CInstanceBase::__Initialize
_TEXT	ENDS
; Function compile flags: /Ogtp
; File C:\Anka2Project\Anka2Project\Source\Binary\source\UserInterface\InstanceBase.cpp
; File C:\Program Files\Microsoft Visual Studio\2022\Community\VC\Tools\MSVC\14.44.35207\include\xstring
; File C:\Anka2Project\Anka2Project\Source\Binary\source\UserInterface\InstanceBase.cpp
; File C:\Program Files\Microsoft Visual Studio\2022\Community\VC\Tools\MSVC\14.44.35207\include\xtree
; File C:\Program Files\Microsoft Visual Studio\2022\Community\VC\Tools\MSVC\14.44.35207\include\xmemory
; File C:\Anka2Project\Anka2Project\Source\Binary\source\UserInterface\InstanceBase.cpp
; File C:\Program Files\Microsoft Visual Studio\2022\Community\VC\Tools\MSVC\14.44.35207\include\xtree
; File C:\Program Files\Microsoft Visual Studio\2022\Community\VC\Tools\MSVC\14.44.35207\include\xmemory
; File C:\Program Files\Microsoft Visual Studio\2022\Community\VC\Tools\MSVC\14.44.35207\include\xtree
; File C:\Anka2Project\Anka2Project\Source\Binary\source\UserInterface\InstanceBase.cpp
; File C:\Program Files\Microsoft Visual Studio\2022\Community\VC\Tools\MSVC\14.44.35207\include\xmemory
; File C:\Program Files\Microsoft Visual Studio\2022\Community\VC\Tools\MSVC\14.44.35207\include\list
; File C:\Program Files\Microsoft Visual Studio\2022\Community\VC\Tools\MSVC\14.44.35207\include\xmemory
; File C:\Program Files\Microsoft Visual Studio\2022\Community\VC\Tools\MSVC\14.44.35207\include\list
; File C:\Anka2Project\Anka2Project\Source\Binary\source\UserInterface\InstanceBase.cpp
; File C:\Program Files\Microsoft Visual Studio\2022\Community\VC\Tools\MSVC\14.44.35207\include\xmemory
; File C:\Anka2Project\Anka2Project\Source\Binary\source\UserInterface\InstanceBase.cpp
; File C:\Program Files\Microsoft Visual Studio\2022\Community\VC\Tools\MSVC\14.44.35207\include\xmemory
; File C:\Program Files\Microsoft Visual Studio\2022\Community\VC\Tools\MSVC\14.44.35207\include\deque
; File C:\Program Files\Microsoft Visual Studio\2022\Community\VC\Tools\MSVC\14.44.35207\include\xmemory
; File C:\Program Files\Microsoft Visual Studio\2022\Community\VC\Tools\MSVC\14.44.35207\include\vector
; File C:\Anka2Project\Anka2Project\Source\Binary\source\UserInterface\InstanceBase.cpp
;	COMDAT ??0CInstanceBase@@QAE@XZ
_TEXT	SEGMENT
_this$ = -20						; size = 4
_this$ = -20						; size = 4
_this$ = -16						; size = 4
__$EHRec$ = -12						; size = 12
??0CInstanceBase@@QAE@XZ PROC				; CInstanceBase::CInstanceBase, COMDAT
; _this$ = ecx

; 3866 : {

  00000	55		 push	 ebp
  00001	8b ec		 mov	 ebp, esp
  00003	6a ff		 push	 -1
  00005	68 00 00 00 00	 push	 __ehhandler$??0CInstanceBase@@QAE@XZ
  0000a	64 a1 00 00 00
	00		 mov	 eax, DWORD PTR fs:0
  00010	50		 push	 eax
  00011	83 ec 08	 sub	 esp, 8
  00014	56		 push	 esi
  00015	57		 push	 edi
  00016	a1 00 00 00 00	 mov	 eax, DWORD PTR ___security_cookie
  0001b	33 c5		 xor	 eax, ebp
  0001d	50		 push	 eax
  0001e	8d 45 f4	 lea	 eax, DWORD PTR __$EHRec$[ebp]
  00021	64 a3 00 00 00
	00		 mov	 DWORD PTR fs:0, eax
  00027	8b f9		 mov	 edi, ecx
  00029	89 7d f0	 mov	 DWORD PTR _this$[ebp], edi
  0002c	8d 4f 08	 lea	 ecx, DWORD PTR [edi+8]
  0002f	c7 07 00 00 00
	00		 mov	 DWORD PTR [edi], OFFSET ??_7CInstanceBase@@6B@
  00035	e8 00 00 00 00	 call	 ??0SHORSE@CInstanceBase@@QAE@XZ ; CInstanceBase::SHORSE::SHORSE
  0003a	c7 45 fc 00 00
	00 00		 mov	 DWORD PTR __$EHRec$[ebp+8], 0
  00041	0f 57 c0	 xorps	 xmm0, xmm0
; File C:\Program Files\Microsoft Visual Studio\2022\Community\VC\Tools\MSVC\14.44.35207\include\xstring

; 493  :         _CONSTEXPR20 _Bxty() noexcept : _Buf() {} // user-provided, for fancy pointers

  00044	0f 11 47 14	 movups	 XMMWORD PTR [edi+20], xmm0

; 860  :         _My_data._Mysize = 0;

  00048	c7 47 24 00 00
	00 00		 mov	 DWORD PTR [edi+36], 0

; 861  :         _My_data._Myres  = _Small_string_capacity;

  0004f	c7 47 28 0f 00
	00 00		 mov	 DWORD PTR [edi+40], 15	; 0000000fH

; 862  :         _My_data._Activate_SSO_buffer();
; 863  : 
; 864  :         // the _Traits::assign is last so the codegen doesn't think the char write can alias this
; 865  :         _Traits::assign(_My_data._Bx._Buf[0], _Elem());

  00056	c6 47 14 00	 mov	 BYTE PTR [edi+20], 0
; File C:\Anka2Project\Anka2Project\Source\Binary\source\UserInterface\InstanceBase.cpp

; 3866 : {

  0005a	c6 45 fc 01	 mov	 BYTE PTR __$EHRec$[ebp+8], 1
  0005e	8d 8f 55 01 00
	00		 lea	 ecx, DWORD PTR [edi+341]
  00064	c7 47 58 00 00
	00 00		 mov	 DWORD PTR [edi+88], 0
  0006b	c7 47 5c 00 00
	00 00		 mov	 DWORD PTR [edi+92], 0
  00072	e8 00 00 00 00	 call	 ??0CAffectFlagContainer@@QAE@XZ ; CAffectFlagContainer::CAffectFlagContainer
  00077	8d b7 60 02 00
	00		 lea	 esi, DWORD PTR [edi+608]
; File C:\Program Files\Microsoft Visual Studio\2022\Community\VC\Tools\MSVC\14.44.35207\include\xtree

; 450  :     _Tree_val() noexcept : _Myhead(), _Mysize(0) {}

  0007d	c7 06 00 00 00
	00		 mov	 DWORD PTR [esi], 0
; File C:\Program Files\Microsoft Visual Studio\2022\Community\VC\Tools\MSVC\14.44.35207\include\xmemory

; 136  :         return ::operator new(_Bytes);

  00083	6a 18		 push	 24			; 00000018H
; File C:\Anka2Project\Anka2Project\Source\Binary\source\UserInterface\InstanceBase.cpp

; 3866 : {

  00085	89 75 ec	 mov	 DWORD PTR _this$[ebp], esi
; File C:\Program Files\Microsoft Visual Studio\2022\Community\VC\Tools\MSVC\14.44.35207\include\xtree

; 450  :     _Tree_val() noexcept : _Myhead(), _Mysize(0) {}

  00088	c7 46 04 00 00
	00 00		 mov	 DWORD PTR [esi+4], 0
; File C:\Program Files\Microsoft Visual Studio\2022\Community\VC\Tools\MSVC\14.44.35207\include\xmemory

; 136  :         return ::operator new(_Bytes);

  0008f	e8 00 00 00 00	 call	 ??2@YAPAXI@Z		; operator new
  00094	83 c4 04	 add	 esp, 4
; File C:\Program Files\Microsoft Visual Studio\2022\Community\VC\Tools\MSVC\14.44.35207\include\xtree

; 346  :         _Construct_in_place(_Pnode->_Left, _Pnode);

  00097	89 00		 mov	 DWORD PTR [eax], eax

; 347  :         _Construct_in_place(_Pnode->_Parent, _Pnode);

  00099	89 40 04	 mov	 DWORD PTR [eax+4], eax

; 348  :         _Construct_in_place(_Pnode->_Right, _Pnode);

  0009c	89 40 08	 mov	 DWORD PTR [eax+8], eax

; 349  :         _Pnode->_Color = _Black;

  0009f	66 c7 40 0c 01
	01		 mov	 WORD PTR [eax+12], 257	; 00000101H

; 1957 :         _Scary->_Myhead = _Node::_Buyheadnode(_Getal());

  000a5	89 06		 mov	 DWORD PTR [esi], eax
; File C:\Anka2Project\Anka2Project\Source\Binary\source\UserInterface\InstanceBase.cpp

; 3866 : {

  000a7	8d 8f f4 02 00
	00		 lea	 ecx, DWORD PTR [edi+756]
  000ad	c6 45 fc 02	 mov	 BYTE PTR __$EHRec$[ebp+8], 2
  000b1	e8 00 00 00 00	 call	 ??0CActorInstance@@QAE@XZ ; CActorInstance::CActorInstance
  000b6	c6 45 fc 03	 mov	 BYTE PTR __$EHRec$[ebp+8], 3
; File C:\Program Files\Microsoft Visual Studio\2022\Community\VC\Tools\MSVC\14.44.35207\include\xmemory

; 136  :         return ::operator new(_Bytes);

  000ba	6a 2c		 push	 44			; 0000002cH
; File C:\Program Files\Microsoft Visual Studio\2022\Community\VC\Tools\MSVC\14.44.35207\include\list

; 353  :     _List_val() noexcept : _Myhead(), _Mysize(0) {} // initialize data

  000bc	c7 87 44 1d 00
	00 00 00 00 00	 mov	 DWORD PTR [edi+7492], 0
  000c6	c7 87 48 1d 00
	00 00 00 00 00	 mov	 DWORD PTR [edi+7496], 0
; File C:\Program Files\Microsoft Visual Studio\2022\Community\VC\Tools\MSVC\14.44.35207\include\xmemory

; 136  :         return ::operator new(_Bytes);

  000d0	e8 00 00 00 00	 call	 ??2@YAPAXI@Z		; operator new
; File C:\Program Files\Microsoft Visual Studio\2022\Community\VC\Tools\MSVC\14.44.35207\include\list

; 1852 :         _Construct_in_place(_Newhead->_Next, _Newhead);

  000d5	89 00		 mov	 DWORD PTR [eax], eax

; 1853 :         _Construct_in_place(_Newhead->_Prev, _Newhead);

  000d7	89 40 04	 mov	 DWORD PTR [eax+4], eax

; 1854 :         _Mypair._Myval2._Myhead = _Newhead;

  000da	89 87 44 1d 00
	00		 mov	 DWORD PTR [edi+7492], eax
; File C:\Anka2Project\Anka2Project\Source\Binary\source\UserInterface\InstanceBase.cpp

; 3866 : {

  000e0	8d b7 50 1d 00
	00		 lea	 esi, DWORD PTR [edi+7504]
  000e6	c6 45 fc 04	 mov	 BYTE PTR __$EHRec$[ebp+8], 4
; File C:\Program Files\Microsoft Visual Studio\2022\Community\VC\Tools\MSVC\14.44.35207\include\xmemory

; 136  :         return ::operator new(_Bytes);

  000ea	6a 08		 push	 8
; File C:\Anka2Project\Anka2Project\Source\Binary\source\UserInterface\InstanceBase.cpp

; 3866 : {

  000ec	89 75 ec	 mov	 DWORD PTR _this$[ebp], esi
; File C:\Program Files\Microsoft Visual Studio\2022\Community\VC\Tools\MSVC\14.44.35207\include\xmemory

; 1235 :     _Container_proxy* _Myproxy = nullptr;

  000ef	c7 06 00 00 00
	00		 mov	 DWORD PTR [esi], 0
; File C:\Program Files\Microsoft Visual Studio\2022\Community\VC\Tools\MSVC\14.44.35207\include\deque

; 556  :     _Deque_val() noexcept : _Map(), _Mapsize(0), _Myoff(0), _Mysize(0) {}

  000f5	c7 46 04 00 00
	00 00		 mov	 DWORD PTR [esi+4], 0
  000fc	c7 46 08 00 00
	00 00		 mov	 DWORD PTR [esi+8], 0
  00103	c7 46 0c 00 00
	00 00		 mov	 DWORD PTR [esi+12], 0
  0010a	c7 46 10 00 00
	00 00		 mov	 DWORD PTR [esi+16], 0
; File C:\Program Files\Microsoft Visual Studio\2022\Community\VC\Tools\MSVC\14.44.35207\include\xmemory

; 136  :         return ::operator new(_Bytes);

  00111	e8 00 00 00 00	 call	 ??2@YAPAXI@Z		; operator new
  00116	83 c4 08	 add	 esp, 8

; 1222 :         _Myproxy            = _New_proxy;

  00119	c7 40 04 00 00
	00 00		 mov	 DWORD PTR [eax+4], 0
  00120	89 06		 mov	 DWORD PTR [esi], eax

; 1223 :         _New_proxy->_Mycont = this;

  00122	89 30		 mov	 DWORD PTR [eax], esi
; File C:\Program Files\Microsoft Visual Studio\2022\Community\VC\Tools\MSVC\14.44.35207\include\vector

; 400  :     _CONSTEXPR20 _Vector_val() noexcept : _Myfirst(), _Mylast(), _Myend() {}

  00124	c7 87 74 1d 00
	00 00 00 00 00	 mov	 DWORD PTR [edi+7540], 0
  0012e	c7 87 78 1d 00
	00 00 00 00 00	 mov	 DWORD PTR [edi+7544], 0
  00138	c7 87 7c 1d 00
	00 00 00 00 00	 mov	 DWORD PTR [edi+7548], 0
; File C:\Anka2Project\Anka2Project\Source\Binary\source\UserInterface\InstanceBase.cpp

; 3867 : 	__Initialize();

  00142	8b cf		 mov	 ecx, edi
  00144	c6 45 fc 06	 mov	 BYTE PTR __$EHRec$[ebp+8], 6
  00148	e8 00 00 00 00	 call	 ?__Initialize@CInstanceBase@@IAEXXZ ; CInstanceBase::__Initialize

; 3868 : }

  0014d	8b c7		 mov	 eax, edi
  0014f	8b 4d f4	 mov	 ecx, DWORD PTR __$EHRec$[ebp]
  00152	64 89 0d 00 00
	00 00		 mov	 DWORD PTR fs:0, ecx
  00159	59		 pop	 ecx
  0015a	5f		 pop	 edi
  0015b	5e		 pop	 esi
  0015c	8b e5		 mov	 esp, ebp
  0015e	5d		 pop	 ebp
  0015f	c3		 ret	 0
_TEXT	ENDS
;	COMDAT text$x
text$x	SEGMENT
__unwindfunclet$??0CInstanceBase@@QAE@XZ$0:
  00000	8b 4d f0	 mov	 ecx, DWORD PTR _this$[ebp]
  00003	83 c1 08	 add	 ecx, 8
  00006	e9 00 00 00 00	 jmp	 ??1SHORSE@CInstanceBase@@QAE@XZ ; CInstanceBase::SHORSE::~SHORSE
__unwindfunclet$??0CInstanceBase@@QAE@XZ$1:
  0000b	8b 4d f0	 mov	 ecx, DWORD PTR _this$[ebp]
  0000e	83 c1 14	 add	 ecx, 20			; 00000014H
  00011	e9 00 00 00 00	 jmp	 ??1?$basic_string@DU?$char_traits@D@std@@V?$allocator@D@2@@std@@QAE@XZ ; std::basic_string<char,std::char_traits<char>,std::allocator<char> >::~basic_string<char,std::char_traits<char>,std::allocator<char> >
__unwindfunclet$??0CInstanceBase@@QAE@XZ$2:
  00016	8b 4d f0	 mov	 ecx, DWORD PTR _this$[ebp]
  00019	81 c1 60 02 00
	00		 add	 ecx, 608		; 00000260H
  0001f	e9 00 00 00 00	 jmp	 ??1SEffectContainer@CInstanceBase@@QAE@XZ
__unwindfunclet$??0CInstanceBase@@QAE@XZ$3:
  00024	8b 4d f0	 mov	 ecx, DWORD PTR _this$[ebp]
  00027	81 c1 f4 02 00
	00		 add	 ecx, 756		; 000002f4H
  0002d	e9 00 00 00 00	 jmp	 ??1CActorInstance@@UAE@XZ ; CActorInstance::~CActorInstance
__unwindfunclet$??0CInstanceBase@@QAE@XZ$4:
  00032	8b 4d f0	 mov	 ecx, DWORD PTR _this$[ebp]
  00035	81 c1 44 1d 00
	00		 add	 ecx, 7492		; 00001d44H
  0003b	e9 00 00 00 00	 jmp	 ??1?$list@USCommand@CInstanceBase@@V?$allocator@USCommand@CInstanceBase@@@std@@@std@@QAE@XZ ; std::list<CInstanceBase::SCommand,std::allocator<CInstanceBase::SCommand> >::~list<CInstanceBase::SCommand,std::allocator<CInstanceBase::SCommand> >
__unwindfunclet$??0CInstanceBase@@QAE@XZ$5:
  00040	8b 4d f0	 mov	 ecx, DWORD PTR _this$[ebp]
  00043	81 c1 50 1d 00
	00		 add	 ecx, 7504		; 00001d50H
  00049	e9 00 00 00 00	 jmp	 ??1?$queue@USEffectDamage@CInstanceBase@@V?$deque@USEffectDamage@CInstanceBase@@V?$allocator@USEffectDamage@CInstanceBase@@@std@@@std@@@std@@QAE@XZ
__unwindfunclet$??0CInstanceBase@@QAE@XZ$6:
  0004e	8b 4d f0	 mov	 ecx, DWORD PTR _this$[ebp]
  00051	81 c1 74 1d 00
	00		 add	 ecx, 7540		; 00001d74H
  00057	e9 00 00 00 00	 jmp	 ??1?$vector@KV?$allocator@K@std@@@std@@QAE@XZ ; std::vector<unsigned long,std::allocator<unsigned long> >::~vector<unsigned long,std::allocator<unsigned long> >
  0005c	cc		 int	 3
  0005d	cc		 int	 3
  0005e	cc		 int	 3
  0005f	cc		 int	 3
  00060	cc		 int	 3
__ehhandler$??0CInstanceBase@@QAE@XZ:
  00061	90		 npad	 1
  00062	90		 npad	 1
  00063	8b 54 24 08	 mov	 edx, DWORD PTR [esp+8]
  00067	8d 42 0c	 lea	 eax, DWORD PTR [edx+12]
  0006a	8b 4a ec	 mov	 ecx, DWORD PTR [edx-20]
  0006d	33 c8		 xor	 ecx, eax
  0006f	e8 00 00 00 00	 call	 @__security_check_cookie@4
  00074	b8 00 00 00 00	 mov	 eax, OFFSET __ehfuncinfo$??0CInstanceBase@@QAE@XZ
  00079	e9 00 00 00 00	 jmp	 ___CxxFrameHandler3
text$x	ENDS
??0CInstanceBase@@QAE@XZ ENDP				; CInstanceBase::CInstanceBase
; Function compile flags: /Ogtp
; File C:\Program Files\Microsoft Visual Studio\2022\Community\VC\Tools\MSVC\14.44.35207\include\queue
; File C:\Program Files\Microsoft Visual Studio\2022\Community\VC\Tools\MSVC\14.44.35207\include\xmemory
; File C:\Program Files\Microsoft Visual Studio\2022\Community\VC\Tools\MSVC\14.44.35207\include\queue
; File C:\Program Files\Microsoft Visual Studio\2022\Community\VC\Tools\MSVC\14.44.35207\include\xmemory
; File C:\Program Files\Microsoft Visual Studio\2022\Community\VC\Tools\MSVC\14.44.35207\include\deque
; File C:\Program Files\Microsoft Visual Studio\2022\Community\VC\Tools\MSVC\14.44.35207\include\xmemory
; File C:\Program Files\Microsoft Visual Studio\2022\Community\VC\Tools\MSVC\14.44.35207\include\queue
;	COMDAT ??0?$queue@USEffectDamage@CInstanceBase@@V?$deque@USEffectDamage@CInstanceBase@@V?$allocator@USEffectDamage@CInstanceBase@@@std@@@std@@@std@@QAE@XZ
_TEXT	SEGMENT
_this$ = -4						; size = 4
??0?$queue@USEffectDamage@CInstanceBase@@V?$deque@USEffectDamage@CInstanceBase@@V?$allocator@USEffectDamage@CInstanceBase@@@std@@@std@@@std@@QAE@XZ PROC ; std::queue<CInstanceBase::SEffectDamage,std::deque<CInstanceBase::SEffectDamage,std::allocator<CInstanceBase::SEffectDamage> > >::queue<CInstanceBase::SEffectDamage,std::deque<CInstanceBase::SEffectDamage,std::allocator<CInstanceBase::SEffectDamage> > >, COMDAT
; _this$ = ecx

; 46   :     queue() = default;

  00000	55		 push	 ebp
  00001	8b ec		 mov	 ebp, esp
  00003	51		 push	 ecx
  00004	56		 push	 esi
  00005	8b f1		 mov	 esi, ecx
; File C:\Program Files\Microsoft Visual Studio\2022\Community\VC\Tools\MSVC\14.44.35207\include\xmemory

; 136  :         return ::operator new(_Bytes);

  00007	6a 08		 push	 8
; File C:\Program Files\Microsoft Visual Studio\2022\Community\VC\Tools\MSVC\14.44.35207\include\queue

; 46   :     queue() = default;

  00009	89 75 fc	 mov	 DWORD PTR _this$[ebp], esi
; File C:\Program Files\Microsoft Visual Studio\2022\Community\VC\Tools\MSVC\14.44.35207\include\xmemory

; 1235 :     _Container_proxy* _Myproxy = nullptr;

  0000c	c7 06 00 00 00
	00		 mov	 DWORD PTR [esi], 0
; File C:\Program Files\Microsoft Visual Studio\2022\Community\VC\Tools\MSVC\14.44.35207\include\deque

; 556  :     _Deque_val() noexcept : _Map(), _Mapsize(0), _Myoff(0), _Mysize(0) {}

  00012	c7 46 04 00 00
	00 00		 mov	 DWORD PTR [esi+4], 0
  00019	c7 46 08 00 00
	00 00		 mov	 DWORD PTR [esi+8], 0
  00020	c7 46 0c 00 00
	00 00		 mov	 DWORD PTR [esi+12], 0
  00027	c7 46 10 00 00
	00 00		 mov	 DWORD PTR [esi+16], 0
; File C:\Program Files\Microsoft Visual Studio\2022\Community\VC\Tools\MSVC\14.44.35207\include\xmemory

; 136  :         return ::operator new(_Bytes);

  0002e	e8 00 00 00 00	 call	 ??2@YAPAXI@Z		; operator new
  00033	83 c4 04	 add	 esp, 4

; 1222 :         _Myproxy            = _New_proxy;

  00036	c7 40 04 00 00
	00 00		 mov	 DWORD PTR [eax+4], 0
  0003d	89 06		 mov	 DWORD PTR [esi], eax

; 1223 :         _New_proxy->_Mycont = this;

  0003f	89 30		 mov	 DWORD PTR [eax], esi
; File C:\Program Files\Microsoft Visual Studio\2022\Community\VC\Tools\MSVC\14.44.35207\include\queue

; 46   :     queue() = default;

  00041	8b c6		 mov	 eax, esi
  00043	5e		 pop	 esi
  00044	8b e5		 mov	 esp, ebp
  00046	5d		 pop	 ebp
  00047	c3		 ret	 0
??0?$queue@USEffectDamage@CInstanceBase@@V?$deque@USEffectDamage@CInstanceBase@@V?$allocator@USEffectDamage@CInstanceBase@@@std@@@std@@@std@@QAE@XZ ENDP ; std::queue<CInstanceBase::SEffectDamage,std::deque<CInstanceBase::SEffectDamage,std::allocator<CInstanceBase::SEffectDamage> > >::queue<CInstanceBase::SEffectDamage,std::deque<CInstanceBase::SEffectDamage,std::allocator<CInstanceBase::SEffectDamage> > >
_TEXT	ENDS
; Function compile flags: /Ogtp
;	COMDAT ??_GCInstanceBase@@UAEPAXI@Z
_TEXT	SEGMENT
___flags$ = 8						; size = 4
??_GCInstanceBase@@UAEPAXI@Z PROC			; CInstanceBase::`scalar deleting destructor', COMDAT
; _this$ = ecx
  00000	55		 push	 ebp
  00001	8b ec		 mov	 ebp, esp
  00003	56		 push	 esi
  00004	8b f1		 mov	 esi, ecx
  00006	e8 00 00 00 00	 call	 ??1CInstanceBase@@UAE@XZ ; CInstanceBase::~CInstanceBase
  0000b	f6 45 08 01	 test	 BYTE PTR ___flags$[ebp], 1
  0000f	74 0e		 je	 SHORT $LN5@scalar
  00011	68 88 1d 00 00	 push	 7560			; 00001d88H
  00016	56		 push	 esi
  00017	e8 00 00 00 00	 call	 ??3@YAXPAXI@Z		; operator delete
  0001c	83 c4 08	 add	 esp, 8
$LN5@scalar:
  0001f	8b c6		 mov	 eax, esi
  00021	5e		 pop	 esi
  00022	5d		 pop	 ebp
  00023	c2 04 00	 ret	 4
??_GCInstanceBase@@UAEPAXI@Z ENDP			; CInstanceBase::`scalar deleting destructor'
_TEXT	ENDS
; Function compile flags: /Ogtp
; File C:\Program Files\Microsoft Visual Studio\2022\Community\VC\Tools\MSVC\14.44.35207\include\xtree
; File C:\Program Files\Microsoft Visual Studio\2022\Community\VC\Tools\MSVC\14.44.35207\include\xmemory
; File C:\Program Files\Microsoft Visual Studio\2022\Community\VC\Tools\MSVC\14.44.35207\include\xtree
; File C:\Program Files\Microsoft Visual Studio\2022\Community\VC\Tools\MSVC\14.44.35207\include\xmemory
; File C:\Program Files\Microsoft Visual Studio\2022\Community\VC\Tools\MSVC\14.44.35207\include\xtree
;	COMDAT ??0SEffectContainer@CInstanceBase@@QAE@XZ
_TEXT	SEGMENT
_this$ = -4						; size = 4
??0SEffectContainer@CInstanceBase@@QAE@XZ PROC		; CInstanceBase::SEffectContainer::SEffectContainer, COMDAT
; _this$ = ecx
  00000	55		 push	 ebp
  00001	8b ec		 mov	 ebp, esp
  00003	51		 push	 ecx

; 450  :     _Tree_val() noexcept : _Myhead(), _Mysize(0) {}

  00004	56		 push	 esi
  00005	8b f1		 mov	 esi, ecx
; File C:\Program Files\Microsoft Visual Studio\2022\Community\VC\Tools\MSVC\14.44.35207\include\xmemory

; 136  :         return ::operator new(_Bytes);

  00007	6a 18		 push	 24			; 00000018H
  00009	89 75 fc	 mov	 DWORD PTR _this$[ebp], esi
; File C:\Program Files\Microsoft Visual Studio\2022\Community\VC\Tools\MSVC\14.44.35207\include\xtree

; 450  :     _Tree_val() noexcept : _Myhead(), _Mysize(0) {}

  0000c	c7 06 00 00 00
	00		 mov	 DWORD PTR [esi], 0
  00012	c7 46 04 00 00
	00 00		 mov	 DWORD PTR [esi+4], 0
; File C:\Program Files\Microsoft Visual Studio\2022\Community\VC\Tools\MSVC\14.44.35207\include\xmemory

; 136  :         return ::operator new(_Bytes);

  00019	e8 00 00 00 00	 call	 ??2@YAPAXI@Z		; operator new
  0001e	83 c4 04	 add	 esp, 4
; File C:\Program Files\Microsoft Visual Studio\2022\Community\VC\Tools\MSVC\14.44.35207\include\xtree

; 346  :         _Construct_in_place(_Pnode->_Left, _Pnode);

  00021	89 00		 mov	 DWORD PTR [eax], eax

; 347  :         _Construct_in_place(_Pnode->_Parent, _Pnode);

  00023	89 40 04	 mov	 DWORD PTR [eax+4], eax

; 348  :         _Construct_in_place(_Pnode->_Right, _Pnode);

  00026	89 40 08	 mov	 DWORD PTR [eax+8], eax

; 349  :         _Pnode->_Color = _Black;

  00029	66 c7 40 0c 01
	01		 mov	 WORD PTR [eax+12], 257	; 00000101H

; 1957 :         _Scary->_Myhead = _Node::_Buyheadnode(_Getal());

  0002f	89 06		 mov	 DWORD PTR [esi], eax
  00031	8b c6		 mov	 eax, esi
  00033	5e		 pop	 esi
  00034	8b e5		 mov	 esp, ebp
  00036	5d		 pop	 ebp
  00037	c3		 ret	 0
??0SEffectContainer@CInstanceBase@@QAE@XZ ENDP		; CInstanceBase::SEffectContainer::SEffectContainer
_TEXT	ENDS
; Function compile flags: /Ogtp
;	COMDAT ??1?$queue@USEffectDamage@CInstanceBase@@V?$deque@USEffectDamage@CInstanceBase@@V?$allocator@USEffectDamage@CInstanceBase@@@std@@@std@@@std@@QAE@XZ
_TEXT	SEGMENT
??1?$queue@USEffectDamage@CInstanceBase@@V?$deque@USEffectDamage@CInstanceBase@@V?$allocator@USEffectDamage@CInstanceBase@@@std@@@std@@@std@@QAE@XZ PROC ; std::queue<CInstanceBase::SEffectDamage,std::deque<CInstanceBase::SEffectDamage,std::allocator<CInstanceBase::SEffectDamage> > >::~queue<CInstanceBase::SEffectDamage,std::deque<CInstanceBase::SEffectDamage,std::allocator<CInstanceBase::SEffectDamage> > >, COMDAT
; _this$ = ecx
  00000	e9 00 00 00 00	 jmp	 ??1?$deque@USEffectDamage@CInstanceBase@@V?$allocator@USEffectDamage@CInstanceBase@@@std@@@std@@QAE@XZ ; std::deque<CInstanceBase::SEffectDamage,std::allocator<CInstanceBase::SEffectDamage> >::~deque<CInstanceBase::SEffectDamage,std::allocator<CInstanceBase::SEffectDamage> >
??1?$queue@USEffectDamage@CInstanceBase@@V?$deque@USEffectDamage@CInstanceBase@@V?$allocator@USEffectDamage@CInstanceBase@@@std@@@std@@@std@@QAE@XZ ENDP ; std::queue<CInstanceBase::SEffectDamage,std::deque<CInstanceBase::SEffectDamage,std::allocator<CInstanceBase::SEffectDamage> > >::~queue<CInstanceBase::SEffectDamage,std::deque<CInstanceBase::SEffectDamage,std::allocator<CInstanceBase::SEffectDamage> > >
_TEXT	ENDS
; Function compile flags: /Ogtp
; File C:\Anka2Project\Anka2Project\Source\Binary\source\UserInterface\InstanceBase.cpp
; File C:\Program Files\Microsoft Visual Studio\2022\Community\VC\Tools\MSVC\14.44.35207\include\vector
; File C:\Program Files\Microsoft Visual Studio\2022\Community\VC\Tools\MSVC\14.44.35207\include\list
; File C:\Program Files\Microsoft Visual Studio\2022\Community\VC\Tools\MSVC\14.44.35207\include\xmemory
; File C:\Program Files\Microsoft Visual Studio\2022\Community\VC\Tools\MSVC\14.44.35207\include\list
; File C:\Program Files\Microsoft Visual Studio\2022\Community\VC\Tools\MSVC\14.44.35207\include\xmemory
; File C:\Anka2Project\Anka2Project\Source\Binary\source\UserInterface\InstanceBase.cpp
; File C:\Program Files\Microsoft Visual Studio\2022\Community\VC\Tools\MSVC\14.44.35207\include\xtree
; File C:\Program Files\Microsoft Visual Studio\2022\Community\VC\Tools\MSVC\14.44.35207\include\xmemory
; File C:\Anka2Project\Anka2Project\Source\Binary\source\UserInterface\InstanceBase.cpp
; File C:\Program Files\Microsoft Visual Studio\2022\Community\VC\Tools\MSVC\14.44.35207\include\xstring
; File C:\Anka2Project\Anka2Project\Source\Binary\source\UserInterface\InstanceBase.cpp
;	COMDAT ??1CInstanceBase@@UAE@XZ
_TEXT	SEGMENT
__$EHRec$ = -12						; size = 12
??1CInstanceBase@@UAE@XZ PROC				; CInstanceBase::~CInstanceBase, COMDAT
; _this$ = ecx

; 3871 : {

  00000	55		 push	 ebp
  00001	8b ec		 mov	 ebp, esp
  00003	6a ff		 push	 -1
  00005	68 00 00 00 00	 push	 __ehhandler$??1CInstanceBase@@UAE@XZ
  0000a	64 a1 00 00 00
	00		 mov	 eax, DWORD PTR fs:0
  00010	50		 push	 eax
  00011	56		 push	 esi
  00012	57		 push	 edi
  00013	a1 00 00 00 00	 mov	 eax, DWORD PTR ___security_cookie
  00018	33 c5		 xor	 eax, ebp
  0001a	50		 push	 eax
  0001b	8d 45 f4	 lea	 eax, DWORD PTR __$EHRec$[ebp]
  0001e	64 a3 00 00 00
	00		 mov	 DWORD PTR fs:0, eax
  00024	8b f9		 mov	 edi, ecx
  00026	c7 07 00 00 00
	00		 mov	 DWORD PTR [edi], OFFSET ??_7CInstanceBase@@6B@

; 3872 : 	Destroy();

  0002c	e8 00 00 00 00	 call	 ?Destroy@CInstanceBase@@QAEXXZ ; CInstanceBase::Destroy

; 3873 : }

  00031	8d 8f 74 1d 00
	00		 lea	 ecx, DWORD PTR [edi+7540]
; File C:\Program Files\Microsoft Visual Studio\2022\Community\VC\Tools\MSVC\14.44.35207\include\vector

; 830  :         _Tidy();

  00037	e8 00 00 00 00	 call	 ?_Tidy@?$vector@KV?$allocator@K@std@@@std@@AAEXXZ ; std::vector<unsigned long,std::allocator<unsigned long> >::_Tidy
  0003c	8d 8f 50 1d 00
	00		 lea	 ecx, DWORD PTR [edi+7504]
  00042	e8 00 00 00 00	 call	 ??1?$deque@USEffectDamage@CInstanceBase@@V?$allocator@USEffectDamage@CInstanceBase@@@std@@@std@@QAE@XZ ; std::deque<CInstanceBase::SEffectDamage,std::allocator<CInstanceBase::SEffectDamage> >::~deque<CInstanceBase::SEffectDamage,std::allocator<CInstanceBase::SEffectDamage> >
; File C:\Program Files\Microsoft Visual Studio\2022\Community\VC\Tools\MSVC\14.44.35207\include\list

; 1518 :         _Node::_Free_non_head(_Al, _My_data._Myhead);

  00047	8b 8f 44 1d 00
	00		 mov	 ecx, DWORD PTR [edi+7492]

; 324  :         _Head->_Prev->_Next = nullptr;

  0004d	8b 41 04	 mov	 eax, DWORD PTR [ecx+4]
  00050	c7 00 00 00 00
	00		 mov	 DWORD PTR [eax], 0

; 325  : 
; 326  :         auto _Pnode = _Head->_Next;

  00056	8b 01		 mov	 eax, DWORD PTR [ecx]

; 327  :         for (_Nodeptr _Pnext; _Pnode; _Pnode = _Pnext) {

  00058	85 c0		 test	 eax, eax
  0005a	74 17		 je	 SHORT $LN163@CInstanceB
  0005c	0f 1f 40 00	 npad	 4
$LL21@CInstanceB:

; 328  :             _Pnext = _Pnode->_Next;

  00060	8b 30		 mov	 esi, DWORD PTR [eax]
; File C:\Program Files\Microsoft Visual Studio\2022\Community\VC\Tools\MSVC\14.44.35207\include\xmemory

; 289  :         ::operator delete(_Ptr, _Bytes);

  00062	6a 2c		 push	 44			; 0000002cH
  00064	50		 push	 eax
  00065	e8 00 00 00 00	 call	 ??3@YAXPAXI@Z		; operator delete
  0006a	83 c4 08	 add	 esp, 8
; File C:\Program Files\Microsoft Visual Studio\2022\Community\VC\Tools\MSVC\14.44.35207\include\list

; 327  :         for (_Nodeptr _Pnext; _Pnode; _Pnode = _Pnext) {

  0006d	8b c6		 mov	 eax, esi
  0006f	85 f6		 test	 esi, esi
  00071	75 ed		 jne	 SHORT $LL21@CInstanceB
$LN163@CInstanceB:
; File C:\Program Files\Microsoft Visual Studio\2022\Community\VC\Tools\MSVC\14.44.35207\include\xmemory

; 289  :         ::operator delete(_Ptr, _Bytes);

  00073	6a 2c		 push	 44			; 0000002cH
  00075	ff b7 44 1d 00
	00		 push	 DWORD PTR [edi+7492]
  0007b	e8 00 00 00 00	 call	 ??3@YAXPAXI@Z		; operator delete
  00080	83 c4 08	 add	 esp, 8
; File C:\Anka2Project\Anka2Project\Source\Binary\source\UserInterface\InstanceBase.cpp

; 3873 : }

  00083	8d 8f f4 02 00
	00		 lea	 ecx, DWORD PTR [edi+756]
  00089	e8 00 00 00 00	 call	 ??1CActorInstance@@UAE@XZ ; CActorInstance::~CActorInstance
; File C:\Program Files\Microsoft Visual Studio\2022\Community\VC\Tools\MSVC\14.44.35207\include\xtree

; 777  :         _Erase_tree(_Al, _Myhead->_Parent);

  0008e	8b 87 60 02 00
	00		 mov	 eax, DWORD PTR [edi+608]
  00094	8d b7 60 02 00
	00		 lea	 esi, DWORD PTR [edi+608]
  0009a	8b ce		 mov	 ecx, esi
  0009c	ff 70 04	 push	 DWORD PTR [eax+4]
  0009f	56		 push	 esi
  000a0	e8 00 00 00 00	 call	 ??$_Erase_tree@V?$allocator@U?$_Tree_node@U?$pair@$$CBKK@std@@PAX@std@@@std@@@?$_Tree_val@U?$_Tree_simple_types@U?$pair@$$CBKK@std@@@std@@@std@@QAEXAAV?$allocator@U?$_Tree_node@U?$pair@$$CBKK@std@@PAX@std@@@1@PAU?$_Tree_node@U?$pair@$$CBKK@std@@PAX@1@@Z ; std::_Tree_val<std::_Tree_simple_types<std::pair<unsigned long const ,unsigned long> > >::_Erase_tree<std::allocator<std::_Tree_node<std::pair<unsigned long const ,unsigned long>,void *> > >
; File C:\Program Files\Microsoft Visual Studio\2022\Community\VC\Tools\MSVC\14.44.35207\include\xmemory

; 289  :         ::operator delete(_Ptr, _Bytes);

  000a5	6a 18		 push	 24			; 00000018H
  000a7	ff 36		 push	 DWORD PTR [esi]
  000a9	e8 00 00 00 00	 call	 ??3@YAXPAXI@Z		; operator delete
  000ae	83 c4 08	 add	 esp, 8
; File C:\Anka2Project\Anka2Project\Source\Binary\source\UserInterface\InstanceBase.cpp

; 3873 : }

  000b1	8d 4f 14	 lea	 ecx, DWORD PTR [edi+20]
; File C:\Program Files\Microsoft Visual Studio\2022\Community\VC\Tools\MSVC\14.44.35207\include\xstring

; 1383 :         _Tidy_deallocate();

  000b4	e8 00 00 00 00	 call	 ?_Tidy_deallocate@?$basic_string@DU?$char_traits@D@std@@V?$allocator@D@2@@std@@AAEXXZ ; std::basic_string<char,std::char_traits<char>,std::allocator<char> >::_Tidy_deallocate
; File C:\Anka2Project\Anka2Project\Source\Binary\source\UserInterface\InstanceBase.cpp

; 3873 : }

  000b9	8d 4f 08	 lea	 ecx, DWORD PTR [edi+8]
  000bc	e8 00 00 00 00	 call	 ??1SHORSE@CInstanceBase@@QAE@XZ ; CInstanceBase::SHORSE::~SHORSE
  000c1	8b 4d f4	 mov	 ecx, DWORD PTR __$EHRec$[ebp]
  000c4	64 89 0d 00 00
	00 00		 mov	 DWORD PTR fs:0, ecx
  000cb	59		 pop	 ecx
  000cc	5f		 pop	 edi
  000cd	5e		 pop	 esi
  000ce	8b e5		 mov	 esp, ebp
  000d0	5d		 pop	 ebp
  000d1	c3		 ret	 0
  000d2	cc		 int	 3
  000d3	cc		 int	 3
  000d4	cc		 int	 3
  000d5	cc		 int	 3
  000d6	cc		 int	 3
_TEXT	ENDS
;	COMDAT text$x
text$x	SEGMENT
__ehhandler$??1CInstanceBase@@UAE@XZ:
  00000	90		 npad	 1
  00001	90		 npad	 1
  00002	8b 54 24 08	 mov	 edx, DWORD PTR [esp+8]
  00006	8d 42 0c	 lea	 eax, DWORD PTR [edx+12]
  00009	8b 4a f4	 mov	 ecx, DWORD PTR [edx-12]
  0000c	33 c8		 xor	 ecx, eax
  0000e	e8 00 00 00 00	 call	 @__security_check_cookie@4
  00013	b8 00 00 00 00	 mov	 eax, OFFSET __ehfuncinfo$??1CInstanceBase@@UAE@XZ
  00018	e9 00 00 00 00	 jmp	 ___CxxFrameHandler3
text$x	ENDS
??1CInstanceBase@@UAE@XZ ENDP				; CInstanceBase::~CInstanceBase
; Function compile flags: /Ogtp
; File C:\Anka2Project\Anka2Project\Source\Binary\source\UserInterface\InstanceBase.cpp
;	COMDAT ?IsAlwaysRender@CInstanceBase@@QAE_NXZ
_TEXT	SEGMENT
?IsAlwaysRender@CInstanceBase@@QAE_NXZ PROC		; CInstanceBase::IsAlwaysRender, COMDAT
; _this$ = ecx

; 3911 : 	return m_IsAlwaysRender;

  00000	8a 81 70 1d 00
	00		 mov	 al, BYTE PTR [ecx+7536]

; 3912 : }

  00006	c3		 ret	 0
?IsAlwaysRender@CInstanceBase@@QAE_NXZ ENDP		; CInstanceBase::IsAlwaysRender
_TEXT	ENDS
; Function compile flags: /Ogtp
; File C:\Anka2Project\Anka2Project\Source\Binary\source\UserInterface\InstanceBase.cpp
;	COMDAT ?SetAlwaysRender@CInstanceBase@@QAEX_N@Z
_TEXT	SEGMENT
_val$ = 8						; size = 1
?SetAlwaysRender@CInstanceBase@@QAEX_N@Z PROC		; CInstanceBase::SetAlwaysRender, COMDAT
; _this$ = ecx

; 3915 : {

  00000	55		 push	 ebp
  00001	8b ec		 mov	 ebp, esp

; 3916 : 	m_IsAlwaysRender = val;

  00003	8a 45 08	 mov	 al, BYTE PTR _val$[ebp]
  00006	88 81 70 1d 00
	00		 mov	 BYTE PTR [ecx+7536], al

; 3917 : }

  0000c	5d		 pop	 ebp
  0000d	c2 04 00	 ret	 4
?SetAlwaysRender@CInstanceBase@@QAEX_N@Z ENDP		; CInstanceBase::SetAlwaysRender
_TEXT	ENDS
; Function compile flags: /Ogtp
; File C:\Anka2Project\Anka2Project\Source\Binary\source\UserInterface\InstanceBase.cpp
; File C:\Program Files\Microsoft Visual Studio\2022\Community\VC\Tools\MSVC\14.44.35207\include\vector
; File C:\Anka2Project\Anka2Project\Source\Binary\source\UserInterface\InstanceBase.cpp
; File C:\Program Files\Microsoft Visual Studio\2022\Community\VC\Tools\MSVC\14.44.35207\include\vector
; File C:\Anka2Project\Anka2Project\Source\Binary\source\UserInterface\InstanceBase.cpp
; File C:\Program Files\Microsoft Visual Studio\2022\Community\VC\Tools\MSVC\14.44.35207\include\vector
; File C:\Anka2Project\Anka2Project\Source\Binary\source\UserInterface\InstanceBase.cpp
;	COMDAT ?AttachWikiAffect@CInstanceBase@@QAEXK@Z
_TEXT	SEGMENT
_effectIndex$ = 8					; size = 4
_newAffect$ = 8						; size = 4
?AttachWikiAffect@CInstanceBase@@QAEXK@Z PROC		; CInstanceBase::AttachWikiAffect, COMDAT
; _this$ = ecx

; 3920 : {

  00000	55		 push	 ebp
  00001	8b ec		 mov	 ebp, esp

; 3921 : 	const DWORD newAffect = __AttachEffect(effectIndex);

  00003	f3 0f 10 15 00
	00 00 00	 movss	 xmm2, DWORD PTR __real@3f800000
  0000b	56		 push	 esi
  0000c	ff 75 08	 push	 DWORD PTR _effectIndex$[ebp]
  0000f	8b f1		 mov	 esi, ecx
  00011	e8 00 00 00 00	 call	 ?__AttachEffect@CInstanceBase@@IAEKIM@Z ; CInstanceBase::__AttachEffect
; File C:\Program Files\Microsoft Visual Studio\2022\Community\VC\Tools\MSVC\14.44.35207\include\vector

; 844  :         if (_Mylast != _My_data._Myend) {

  00016	8b 8e 78 1d 00
	00		 mov	 ecx, DWORD PTR [esi+7544]
; File C:\Anka2Project\Anka2Project\Source\Binary\source\UserInterface\InstanceBase.cpp

; 3921 : 	const DWORD newAffect = __AttachEffect(effectIndex);

  0001c	89 45 08	 mov	 DWORD PTR _newAffect$[ebp], eax
; File C:\Program Files\Microsoft Visual Studio\2022\Community\VC\Tools\MSVC\14.44.35207\include\vector

; 844  :         if (_Mylast != _My_data._Myend) {

  0001f	3b 8e 7c 1d 00
	00		 cmp	 ecx, DWORD PTR [esi+7548]
  00025	74 0e		 je	 SHORT $LN6@AttachWiki

; 860  :             _STD _Construct_in_place(*_Mylast, _STD forward<_Valty>(_Val)...);

  00027	89 01		 mov	 DWORD PTR [ecx], eax

; 861  :         } else {
; 862  :             _ASAN_VECTOR_EXTEND_GUARD(static_cast<size_type>(_Mylast - _My_data._Myfirst) + 1);
; 863  :             _Alty_traits::construct(_Getal(), _Unfancy(_Mylast), _STD forward<_Valty>(_Val)...);
; 864  :             _ASAN_VECTOR_RELEASE_GUARD;
; 865  :         }
; 866  : 
; 867  :         _Orphan_range(_Mylast, _Mylast);
; 868  :         _Ty& _Result = *_Mylast;
; 869  :         ++_Mylast;

  00029	83 86 78 1d 00
	00 04		 add	 DWORD PTR [esi+7544], 4
  00030	5e		 pop	 esi
; File C:\Anka2Project\Anka2Project\Source\Binary\source\UserInterface\InstanceBase.cpp

; 3923 : }

  00031	5d		 pop	 ebp
  00032	c2 04 00	 ret	 4
$LN6@AttachWiki:
; File C:\Program Files\Microsoft Visual Studio\2022\Community\VC\Tools\MSVC\14.44.35207\include\vector

; 848  :         return *_Emplace_reallocate(_Mylast, _STD forward<_Valty>(_Val)...);

  00035	8d 45 08	 lea	 eax, DWORD PTR _newAffect$[ebp]
  00038	50		 push	 eax
  00039	51		 push	 ecx
  0003a	8d 8e 74 1d 00
	00		 lea	 ecx, DWORD PTR [esi+7540]
  00040	e8 00 00 00 00	 call	 ??$_Emplace_reallocate@ABK@?$vector@KV?$allocator@K@std@@@std@@AAEPAKQAKABK@Z ; std::vector<unsigned long,std::allocator<unsigned long> >::_Emplace_reallocate<unsigned long const &>
  00045	5e		 pop	 esi
; File C:\Anka2Project\Anka2Project\Source\Binary\source\UserInterface\InstanceBase.cpp

; 3923 : }

  00046	5d		 pop	 ebp
  00047	c2 04 00	 ret	 4
?AttachWikiAffect@CInstanceBase@@QAEXK@Z ENDP		; CInstanceBase::AttachWikiAffect
_TEXT	ENDS
; Function compile flags: /Ogtp
; File C:\Anka2Project\Anka2Project\Source\Binary\source\UserInterface\InstanceBase.cpp
; File C:\Program Files\Microsoft Visual Studio\2022\Community\VC\Tools\MSVC\14.44.35207\include\xutility
; File C:\Program Files\Microsoft Visual Studio\2022\Community\VC\Tools\MSVC\14.44.35207\include\vector
; File C:\Anka2Project\Anka2Project\Source\Binary\source\UserInterface\InstanceBase.cpp
; File C:\Program Files\Microsoft Visual Studio\2022\Community\VC\Tools\MSVC\14.44.35207\include\xutility
; File C:\Program Files\Microsoft Visual Studio\2022\Community\VC\Tools\MSVC\14.44.35207\include\vector
; File C:\Program Files\Microsoft Visual Studio\2022\Community\VC\Tools\MSVC\14.44.35207\include\xutility
; File C:\Program Files\Microsoft Visual Studio\2022\Community\VC\Tools\MSVC\14.44.35207\include\vector
; File C:\Anka2Project\Anka2Project\Source\Binary\source\UserInterface\InstanceBase.cpp
;	COMDAT ?RemoveWikiAffect@CInstanceBase@@QAEXK@Z
_TEXT	SEGMENT
_effectIndex$ = 8					; size = 4
?RemoveWikiAffect@CInstanceBase@@QAEXK@Z PROC		; CInstanceBase::RemoveWikiAffect, COMDAT
; _this$ = ecx

; 3926 : {

  00000	55		 push	 ebp
  00001	8b ec		 mov	 ebp, esp
  00003	56		 push	 esi
  00004	8b f1		 mov	 esi, ecx
  00006	57		 push	 edi
; File C:\Program Files\Microsoft Visual Studio\2022\Community\VC\Tools\MSVC\14.44.35207\include\xutility

; 6127 :             const auto _Result    = _STD _Find_vectorized(_First_ptr, _STD _To_address(_Last), _Val);

  00007	ff 75 08	 push	 DWORD PTR _effectIndex$[ebp]
  0000a	8b 96 78 1d 00
	00		 mov	 edx, DWORD PTR [esi+7544]
  00010	8b 8e 74 1d 00
	00		 mov	 ecx, DWORD PTR [esi+7540]
  00016	e8 00 00 00 00	 call	 ??$_Find_vectorized@KK@std@@YAPAKQAK0K@Z ; std::_Find_vectorized<unsigned long,unsigned long>

; 6128 :             if constexpr (is_pointer_v<_InIt>) {
; 6129 :                 return _Result;

  0001b	8b f8		 mov	 edi, eax
  0001d	83 c4 04	 add	 esp, 4
; File C:\Program Files\Microsoft Visual Studio\2022\Community\VC\Tools\MSVC\14.44.35207\include\vector

; 46   :     _CONSTEXPR20 _Vector_const_iterator(_Tptr _Parg, const _Container_base* _Pvector) noexcept : _Ptr(_Parg) {

  00020	3b be 78 1d 00
	00		 cmp	 edi, DWORD PTR [esi+7544]
; File C:\Anka2Project\Anka2Project\Source\Binary\source\UserInterface\InstanceBase.cpp

; 3928 : 	if (it != m_vecWikiEffects.end())

  00026	74 24		 je	 SHORT $LN57@RemoveWiki

; 3929 : 	{
; 3930 : 		__DetachEffect(effectIndex);

  00028	ff 75 08	 push	 DWORD PTR _effectIndex$[ebp]
  0002b	8b ce		 mov	 ecx, esi
  0002d	e8 00 00 00 00	 call	 ?__DetachEffect@CInstanceBase@@IAEXK@Z ; CInstanceBase::__DetachEffect
; File C:\Program Files\Microsoft Visual Studio\2022\Community\VC\Tools\MSVC\14.44.35207\include\xutility

; 5147 :                 return _STD _Copy_memmove(_First, _Last, _Dest);

  00032	57		 push	 edi
  00033	ff b6 78 1d 00
	00		 push	 DWORD PTR [esi+7544]
; File C:\Program Files\Microsoft Visual Studio\2022\Community\VC\Tools\MSVC\14.44.35207\include\vector

; 1775 :         _STD _Move_unchecked(_Whereptr + 1, _Mylast, _Whereptr);

  00039	8d 4f 04	 lea	 ecx, DWORD PTR [edi+4]
; File C:\Program Files\Microsoft Visual Studio\2022\Community\VC\Tools\MSVC\14.44.35207\include\xutility

; 5147 :                 return _STD _Copy_memmove(_First, _Last, _Dest);

  0003c	51		 push	 ecx
  0003d	e8 00 00 00 00	 call	 ??$_Copy_memmove@PAKPAK@std@@YAPAKPAK00@Z ; std::_Copy_memmove<unsigned long *,unsigned long *>
  00042	83 c4 0c	 add	 esp, 12			; 0000000cH
; File C:\Program Files\Microsoft Visual Studio\2022\Community\VC\Tools\MSVC\14.44.35207\include\vector

; 1778 :         --_Mylast;

  00045	83 86 78 1d 00
	00 fc		 add	 DWORD PTR [esi+7544], -4 ; fffffffcH
$LN57@RemoveWiki:
  0004c	5f		 pop	 edi
; File C:\Anka2Project\Anka2Project\Source\Binary\source\UserInterface\InstanceBase.cpp

; 3933 : }

  0004d	5e		 pop	 esi
  0004e	5d		 pop	 ebp
  0004f	c2 04 00	 ret	 4
?RemoveWikiAffect@CInstanceBase@@QAEXK@Z ENDP		; CInstanceBase::RemoveWikiAffect
_TEXT	ENDS
; Function compile flags: /Ogtp
; File C:\Anka2Project\Anka2Project\Source\Binary\source\UserInterface\InstanceBase.cpp
; File C:\Program Files\Microsoft Visual Studio\2022\Community\VC\Tools\MSVC\14.44.35207\include\vector
; File C:\Anka2Project\Anka2Project\Source\Binary\source\UserInterface\InstanceBase.cpp
;	COMDAT ?ClearWikiAffect@CInstanceBase@@QAEXXZ
_TEXT	SEGMENT
?ClearWikiAffect@CInstanceBase@@QAEXXZ PROC		; CInstanceBase::ClearWikiAffect, COMDAT
; _this$ = ecx

; 3936 : {

  00000	53		 push	 ebx
  00001	56		 push	 esi
  00002	57		 push	 edi
  00003	8b f9		 mov	 edi, ecx

; 3937 : 	for (const auto& effectIndex : m_vecWikiEffects)

  00005	8b 9f 78 1d 00
	00		 mov	 ebx, DWORD PTR [edi+7544]
  0000b	8b b7 74 1d 00
	00		 mov	 esi, DWORD PTR [edi+7540]
  00011	3b f3		 cmp	 esi, ebx
  00013	74 10		 je	 SHORT $LN3@ClearWikiA
$LL4@ClearWikiA:

; 3938 : 		__DetachEffect(effectIndex);

  00015	ff 36		 push	 DWORD PTR [esi]
  00017	8b cf		 mov	 ecx, edi
  00019	e8 00 00 00 00	 call	 ?__DetachEffect@CInstanceBase@@IAEXK@Z ; CInstanceBase::__DetachEffect
  0001e	83 c6 04	 add	 esi, 4
  00021	3b f3		 cmp	 esi, ebx
  00023	75 f0		 jne	 SHORT $LL4@ClearWikiA
$LN3@ClearWikiA:
; File C:\Program Files\Microsoft Visual Studio\2022\Community\VC\Tools\MSVC\14.44.35207\include\vector

; 1812 :         if (_Myfirst == _Mylast) { // already empty, nothing to do

  00025	8b 87 74 1d 00
	00		 mov	 eax, DWORD PTR [edi+7540]
  0002b	3b 87 78 1d 00
	00		 cmp	 eax, DWORD PTR [edi+7544]
  00031	74 06		 je	 SHORT $LN6@ClearWikiA

; 1813 :             // This is an optimization for debug mode: we can avoid taking the debug lock to invalidate iterators.
; 1814 :             // Note that when clearing an empty vector, this will preserve past-the-end iterators, which is allowed by
; 1815 :             // N4950 [sequence.reqmts]/54 "a.clear() [...] may invalidate the past-the-end iterator".
; 1816 :             return;
; 1817 :         }
; 1818 : 
; 1819 :         _My_data._Orphan_all();
; 1820 :         _Destroy_range(_Myfirst, _Mylast, _Getal());
; 1821 :         _ASAN_VECTOR_MODIFY(static_cast<difference_type>(_Myfirst - _Mylast)); // negative when destroying elements
; 1822 :         _Mylast = _Myfirst;

  00033	89 87 78 1d 00
	00		 mov	 DWORD PTR [edi+7544], eax
$LN6@ClearWikiA:
  00039	5f		 pop	 edi
; File C:\Anka2Project\Anka2Project\Source\Binary\source\UserInterface\InstanceBase.cpp

; 3940 : }

  0003a	5e		 pop	 esi
  0003b	5b		 pop	 ebx
  0003c	c3		 ret	 0
?ClearWikiAffect@CInstanceBase@@QAEXXZ ENDP		; CInstanceBase::ClearWikiAffect
_TEXT	ENDS
; Function compile flags: /Ogtp
; File C:\Anka2Project\Anka2Project\Source\Binary\source\UserInterface\InstanceBase.cpp
; File C:\Anka2Project\Anka2Project\Source\Binary\source\eterBase\Singleton.h
; File C:\Anka2Project\Anka2Project\Source\Binary\source\UserInterface\InstanceBase.cpp
; File C:\Anka2Project\Anka2Project\Source\Binary\source\UserInterface\InstanceBase.h
; File C:\Anka2Project\Anka2Project\Source\Binary\source\UserInterface\InstanceBase.cpp
; File C:\Anka2Project\Anka2Project\Source\Binary\source\UserInterface\InstanceBase.h
; File C:\Anka2Project\Anka2Project\Source\Binary\source\UserInterface\InstanceBase.cpp
;	COMDAT ?SetAura@CInstanceBase@@QAE_NK@Z
_TEXT	SEGMENT
_fParticleScale$ = -28					; size = 4
_byJob$ = -28						; size = 1
_pItemData$ = -24					; size = 4
$T4 = -20						; size = 1
_v3MeshScale$ = -16					; size = 12
__$ArrayPad$ = -4					; size = 4
_eAura$ = 8						; size = 4
?SetAura@CInstanceBase@@QAE_NK@Z PROC			; CInstanceBase::SetAura, COMDAT
; _this$ = ecx

; 3965 : {

  00000	55		 push	 ebp
  00001	8b ec		 mov	 ebp, esp
  00003	83 ec 1c	 sub	 esp, 28			; 0000001cH
  00006	a1 00 00 00 00	 mov	 eax, DWORD PTR ___security_cookie
  0000b	33 c5		 xor	 eax, ebp
  0000d	89 45 fc	 mov	 DWORD PTR __$ArrayPad$[ebp], eax
  00010	53		 push	 ebx
  00011	8b d9		 mov	 ebx, ecx

; 3966 : #ifdef ENABLE_NPC_WEAR_ITEM
; 3967 : 	if ((IsPC() && GetRace() > 7) || IsPoly() || IsWearingDress() || __IsShapeAnimalWear())

  00013	e8 00 00 00 00	 call	 ?IsPC@CInstanceBase@@QAEHXZ ; CInstanceBase::IsPC
  00018	85 c0		 test	 eax, eax
  0001a	74 10		 je	 SHORT $LN4@SetAura
  0001c	8b cb		 mov	 ecx, ebx
  0001e	e8 00 00 00 00	 call	 ?GetRace@CInstanceBase@@QAEKXZ ; CInstanceBase::GetRace
  00023	83 f8 07	 cmp	 eax, 7
  00026	0f 87 54 01 00
	00		 ja	 $LN3@SetAura
$LN4@SetAura:
  0002c	8b cb		 mov	 ecx, ebx
  0002e	e8 00 00 00 00	 call	 ?IsPoly@CInstanceBase@@QAEHXZ ; CInstanceBase::IsPoly
  00033	85 c0		 test	 eax, eax
  00035	0f 85 45 01 00
	00		 jne	 $LN3@SetAura
  0003b	8b cb		 mov	 ecx, ebx
  0003d	e8 00 00 00 00	 call	 ?IsWearingDress@CInstanceBase@@QAEHXZ ; CInstanceBase::IsWearingDress
  00042	85 c0		 test	 eax, eax
  00044	0f 85 36 01 00
	00		 jne	 $LN3@SetAura
  0004a	e8 00 00 00 00	 call	 ?__IsShapeAnimalWear@CInstanceBase@@IAE_NXZ ; CInstanceBase::__IsShapeAnimalWear
  0004f	84 c0		 test	 al, al
  00051	0f 85 29 01 00
	00		 jne	 $LN3@SetAura

; 3968 : #else
; 3969 : 	if (!IsPC() || IsPoly() || IsWearingDress() || __IsShapeAnimalWear())
; 3970 : #endif
; 3971 : 		return false;
; 3972 : 
; 3973 : 	m_GraphicThingInstance.ChangePart(CRaceData::PART_AURA, eAura);

  00057	56		 push	 esi
  00058	8b 75 08	 mov	 esi, DWORD PTR _eAura$[ebp]
  0005b	8d 8b f4 02 00
	00		 lea	 ecx, DWORD PTR [ebx+756]
  00061	56		 push	 esi
  00062	6a 06		 push	 6
  00064	e8 00 00 00 00	 call	 ?ChangePart@CActorInstance@@QAEXKK@Z ; CActorInstance::ChangePart

; 3974 : 	if (!eAura)

  00069	85 f6		 test	 esi, esi
  0006b	74 32		 je	 SHORT $LN41@SetAura
; File C:\Anka2Project\Anka2Project\Source\Binary\source\eterBase\Singleton.h

; 26   : 		assert(ms_singleton);

  0006d	8b 0d 00 00 00
	00		 mov	 ecx, DWORD PTR ?ms_singleton@?$CSingleton@VCItemManager@@@@0PAVCItemManager@@A ; CSingleton<CItemManager>::ms_singleton
  00073	85 c9		 test	 ecx, ecx
  00075	75 1a		 jne	 SHORT $LN12@SetAura
  00077	6a 1a		 push	 26			; 0000001aH
  00079	68 00 00 00 00	 push	 OFFSET ??_C@_1IO@CAJLEEOI@?$AAC?$AA?3?$AA?2?$AAA?$AAn?$AAk?$AAa?$AA2?$AAP?$AAr?$AAo?$AAj?$AAe?$AAc?$AAt@
  0007e	68 00 00 00 00	 push	 OFFSET ??_C@_1BK@FMEHPMFE@?$AAm?$AAs?$AA_?$AAs?$AAi?$AAn?$AAg?$AAl?$AAe?$AAt?$AAo?$AAn@
  00083	e8 00 00 00 00	 call	 __wassert
  00088	8b 0d 00 00 00
	00		 mov	 ecx, DWORD PTR ?ms_singleton@?$CSingleton@VCItemManager@@@@0PAVCItemManager@@A ; CSingleton<CItemManager>::ms_singleton
  0008e	83 c4 0c	 add	 esp, 12			; 0000000cH
$LN12@SetAura:
; File C:\Anka2Project\Anka2Project\Source\Binary\source\UserInterface\InstanceBase.cpp

; 3986 : 	if (!CItemManager::Instance().GetItemDataPointer(eAura, &pItemData))

  00091	8d 45 e8	 lea	 eax, DWORD PTR _pItemData$[ebp]
  00094	50		 push	 eax
  00095	56		 push	 esi
  00096	e8 00 00 00 00	 call	 ?GetItemDataPointer@CItemManager@@QAEHKPAPAVCItemData@@@Z ; CItemManager::GetItemDataPointer
  0009b	85 c0		 test	 eax, eax
  0009d	75 37		 jne	 SHORT $LN7@SetAura
$LN41@SetAura:

; 3987 : 	{
; 3988 : 		if (m_auraRefineEffect)
; 3989 : 		{
; 3990 : 			__DetachEffect(m_auraRefineEffect);
; 3991 : 			m_auraRefineEffect = 0;
; 3992 : 		}
; 3993 : 		m_awPart[CRaceData::PART_AURA] = 0;

  0009f	8b 83 80 1d 00
	00		 mov	 eax, DWORD PTR [ebx+7552]
  000a5	85 c0		 test	 eax, eax
  000a7	74 12		 je	 SHORT $LN8@SetAura
  000a9	50		 push	 eax
  000aa	8b cb		 mov	 ecx, ebx
  000ac	e8 00 00 00 00	 call	 ?__DetachEffect@CInstanceBase@@IAEXK@Z ; CInstanceBase::__DetachEffect
  000b1	c7 83 80 1d 00
	00 00 00 00 00	 mov	 DWORD PTR [ebx+7552], 0
$LN8@SetAura:
  000bb	5e		 pop	 esi
  000bc	c7 43 44 00 00
	00 00		 mov	 DWORD PTR [ebx+68], 0

; 3994 : 		return true;

  000c3	b0 01		 mov	 al, 1
  000c5	5b		 pop	 ebx

; 4010 : }

  000c6	8b 4d fc	 mov	 ecx, DWORD PTR __$ArrayPad$[ebp]
  000c9	33 cd		 xor	 ecx, ebp
  000cb	e8 00 00 00 00	 call	 @__security_check_cookie@4
  000d0	8b e5		 mov	 esp, ebp
  000d2	5d		 pop	 ebp
  000d3	c2 04 00	 ret	 4
$LN7@SetAura:

; 3995 : 	}
; 3996 : 
; 3997 : 	BYTE byRace = (BYTE)GetRace();

  000d6	8b cb		 mov	 ecx, ebx
  000d8	e8 00 00 00 00	 call	 ?GetRace@CInstanceBase@@QAEKXZ ; CInstanceBase::GetRace

; 3998 : 	BYTE byJob = (BYTE)RaceToJob(byRace);

  000dd	0f b6 c8	 movzx	 ecx, al
; File C:\Anka2Project\Anka2Project\Source\Binary\source\UserInterface\InstanceBase.h

; 1425 : 	return race % JOB_NUM;

  000e0	8a c1		 mov	 al, cl
  000e2	24 03		 and	 al, 3
; File C:\Anka2Project\Anka2Project\Source\Binary\source\UserInterface\InstanceBase.cpp

; 3998 : 	BYTE byJob = (BYTE)RaceToJob(byRace);

  000e4	88 45 e4	 mov	 BYTE PTR _byJob$[ebp], al
; File C:\Anka2Project\Anka2Project\Source\Binary\source\UserInterface\InstanceBase.h

; 1430 : 	switch (race)

  000e7	83 f9 07	 cmp	 ecx, 7
  000ea	77 14		 ja	 SHORT $LN16@SetAura
  000ec	0f b6 81 00 00
	00 00		 movzx	 eax, BYTE PTR $LN27@SetAura[ecx]
  000f3	ff 24 85 00 00
	00 00		 jmp	 DWORD PTR $LN28@SetAura[eax*4]
$LN18@SetAura:

; 1431 : 	{
; 1432 : 		case 0:
; 1433 : 		case 2:
; 1434 : 		case 5:
; 1435 : 		case 7:
; 1436 : 			return 1;

  000fa	c6 45 ec 01	 mov	 BYTE PTR $T4[ebp], 1
  000fe	eb 04		 jmp	 SHORT $LN15@SetAura
$LN16@SetAura:
; File C:\Anka2Project\Anka2Project\Source\Binary\source\UserInterface\InstanceBase.cpp

; 4001 : 	D3DXVECTOR3 v3MeshScale = pItemData->GetAuraMeshScaleVector(byJob, bySex);

  00100	c6 45 ec 00	 mov	 BYTE PTR $T4[ebp], 0
$LN15@SetAura:
  00104	8b 75 e4	 mov	 esi, DWORD PTR _byJob$[ebp]
  00107	8b 4d e8	 mov	 ecx, DWORD PTR _pItemData$[ebp]
  0010a	57		 push	 edi
  0010b	8b 7d ec	 mov	 edi, DWORD PTR $T4[ebp]
  0010e	57		 push	 edi
  0010f	56		 push	 esi
  00110	e8 00 00 00 00	 call	 ?GetAuraMeshScaleVector@CItemData@@QAEAAUD3DXVECTOR3@@EE@Z ; CItemData::GetAuraMeshScaleVector

; 4002 : 	float fParticleScale = pItemData->GetAuraParticleScale(byJob, bySex);

  00115	8b 4d e8	 mov	 ecx, DWORD PTR _pItemData$[ebp]
  00118	57		 push	 edi
  00119	56		 push	 esi
  0011a	f3 0f 7e 00	 movq	 xmm0, QWORD PTR [eax]
  0011e	66 0f d6 45 f0	 movq	 QWORD PTR _v3MeshScale$[ebp], xmm0
  00123	8b 40 08	 mov	 eax, DWORD PTR [eax+8]
  00126	89 45 f8	 mov	 DWORD PTR _v3MeshScale$[ebp+8], eax
  00129	e8 00 00 00 00	 call	 ?GetAuraParticleScale@CItemData@@QAEMEE@Z ; CItemData::GetAuraParticleScale

; 4003 : 	m_auraRefineEffect = m_GraphicThingInstance.AttachEffectByID(0, "Bip01 Spine2", pItemData->GetAuraEffectID(), NULL

  0012e	8d 45 f0	 lea	 eax, DWORD PTR _v3MeshScale$[ebp]
  00131	50		 push	 eax
  00132	8b 45 e8	 mov	 eax, DWORD PTR _pItemData$[ebp]
  00135	51		 push	 ecx
  00136	d9 5d e4	 fstp	 DWORD PTR _fParticleScale$[ebp]
  00139	f3 0f 10 45 e4	 movss	 xmm0, DWORD PTR _fParticleScale$[ebp]
  0013e	8d 8b f4 02 00
	00		 lea	 ecx, DWORD PTR [ebx+756]
  00144	f3 0f 11 04 24	 movss	 DWORD PTR [esp], xmm0
  00149	6a 00		 push	 0
  0014b	6a 00		 push	 0
  0014d	ff b0 98 02 00
	00		 push	 DWORD PTR [eax+664]
  00153	68 00 00 00 00	 push	 OFFSET ??_C@_0N@DLOEJLFF@Bip01?5Spine2@
  00158	6a 00		 push	 0
  0015a	e8 00 00 00 00	 call	 ?AttachEffectByID@CActorInstance@@QAEKKPBDKPBUD3DXVECTOR3@@PAKM1@Z ; CActorInstance::AttachEffectByID
  0015f	89 83 80 1d 00
	00		 mov	 DWORD PTR [ebx+7552], eax

; 4004 : #ifdef ENABLE_SKILL_COLOR_SYSTEM
; 4005 : 		, NULL
; 4006 : #endif
; 4007 : 		, fParticleScale, &v3MeshScale);
; 4008 : 	m_awPart[CRaceData::PART_AURA] = eAura;

  00165	8b 45 08	 mov	 eax, DWORD PTR _eAura$[ebp]

; 4009 : 	return true;

  00168	5f		 pop	 edi
  00169	89 43 44	 mov	 DWORD PTR [ebx+68], eax
  0016c	b0 01		 mov	 al, 1
  0016e	5e		 pop	 esi
  0016f	5b		 pop	 ebx

; 4010 : }

  00170	8b 4d fc	 mov	 ecx, DWORD PTR __$ArrayPad$[ebp]
  00173	33 cd		 xor	 ecx, ebp
  00175	e8 00 00 00 00	 call	 @__security_check_cookie@4
  0017a	8b e5		 mov	 esp, ebp
  0017c	5d		 pop	 ebp
  0017d	c2 04 00	 ret	 4
$LN3@SetAura:
  00180	8b 4d fc	 mov	 ecx, DWORD PTR __$ArrayPad$[ebp]
  00183	32 c0		 xor	 al, al
  00185	33 cd		 xor	 ecx, ebp
  00187	5b		 pop	 ebx
  00188	e8 00 00 00 00	 call	 @__security_check_cookie@4
  0018d	8b e5		 mov	 esp, ebp
  0018f	5d		 pop	 ebp
  00190	c2 04 00	 ret	 4
  00193	90		 npad	 1
$LN28@SetAura:
  00194	00 00 00 00	 DD	 $LN18@SetAura
  00198	00 00 00 00	 DD	 $LN16@SetAura
$LN27@SetAura:
  0019c	00		 DB	 0
  0019d	01		 DB	 1
  0019e	00		 DB	 0
  0019f	01		 DB	 1
  001a0	01		 DB	 1
  001a1	00		 DB	 0
  001a2	01		 DB	 1
  001a3	00		 DB	 0
?SetAura@CInstanceBase@@QAE_NK@Z ENDP			; CInstanceBase::SetAura
_TEXT	ENDS
; Function compile flags: /Ogtp
; File C:\Program Files\Microsoft Visual Studio\2022\Community\VC\Tools\MSVC\14.44.35207\include\unordered_map
; File C:\Program Files\Microsoft Visual Studio\2022\Community\VC\Tools\MSVC\14.44.35207\include\xmemory
; File C:\Program Files\Microsoft Visual Studio\2022\Community\VC\Tools\MSVC\14.44.35207\include\unordered_map
; File C:\Program Files\Microsoft Visual Studio\2022\Community\VC\Tools\MSVC\14.44.35207\include\list
; File C:\Program Files\Microsoft Visual Studio\2022\Community\VC\Tools\MSVC\14.44.35207\include\xmemory
; File C:\Program Files\Microsoft Visual Studio\2022\Community\VC\Tools\MSVC\14.44.35207\include\list
; File C:\Program Files\Microsoft Visual Studio\2022\Community\VC\Tools\MSVC\14.44.35207\include\xhash
; File C:\Program Files\Microsoft Visual Studio\2022\Community\VC\Tools\MSVC\14.44.35207\include\vector
; File C:\Program Files\Microsoft Visual Studio\2022\Community\VC\Tools\MSVC\14.44.35207\include\xhash
; File C:\Program Files\Microsoft Visual Studio\2022\Community\VC\Tools\MSVC\14.44.35207\include\xmemory
; File C:\Program Files\Microsoft Visual Studio\2022\Community\VC\Tools\MSVC\14.44.35207\include\xhash
; File C:\Program Files\Microsoft Visual Studio\2022\Community\VC\Tools\MSVC\14.44.35207\include\xmemory
; File C:\Program Files\Microsoft Visual Studio\2022\Community\VC\Tools\MSVC\14.44.35207\include\xhash
; File C:\Program Files\Microsoft Visual Studio\2022\Community\VC\Tools\MSVC\14.44.35207\include\xmemory
; File C:\Program Files\Microsoft Visual Studio\2022\Community\VC\Tools\MSVC\14.44.35207\include\xhash
; File C:\Program Files\Microsoft Visual Studio\2022\Community\VC\Tools\MSVC\14.44.35207\include\xmemory
; File C:\Program Files\Microsoft Visual Studio\2022\Community\VC\Tools\MSVC\14.44.35207\include\xhash
; File C:\Program Files\Microsoft Visual Studio\2022\Community\VC\Tools\MSVC\14.44.35207\include\xmemory
; File C:\Program Files\Microsoft Visual Studio\2022\Community\VC\Tools\MSVC\14.44.35207\include\xhash
; File C:\Program Files\Microsoft Visual Studio\2022\Community\VC\Tools\MSVC\14.44.35207\include\unordered_map
; File C:\Program Files\Microsoft Visual Studio\2022\Community\VC\Tools\MSVC\14.44.35207\include\xhash
; File C:\Program Files\Microsoft Visual Studio\2022\Community\VC\Tools\MSVC\14.44.35207\include\unordered_map
; File C:\Program Files\Microsoft Visual Studio\2022\Community\VC\Tools\MSVC\14.44.35207\include\xmemory
; File C:\Program Files\Microsoft Visual Studio\2022\Community\VC\Tools\MSVC\14.44.35207\include\unordered_map
;	COMDAT ??0?$unordered_map@KMU?$hash@K@std@@U?$equal_to@K@2@V?$allocator@U?$pair@$$CBKM@std@@@2@@std@@QAE@V?$initializer_list@U?$pair@$$CBKM@std@@@1@@Z
_TEXT	SEGMENT
_this$ = -20						; size = 4
__Val$ = -16						; size = 4
__$EHRec$ = -12						; size = 12
__Ilist$ = 8						; size = 8
??0?$unordered_map@KMU?$hash@K@std@@U?$equal_to@K@2@V?$allocator@U?$pair@$$CBKM@std@@@2@@std@@QAE@V?$initializer_list@U?$pair@$$CBKM@std@@@1@@Z PROC ; std::unordered_map<unsigned long,float,std::hash<unsigned long>,std::equal_to<unsigned long>,std::allocator<std::pair<unsigned long const ,float> > >::unordered_map<unsigned long,float,std::hash<unsigned long>,std::equal_to<unsigned long>,std::allocator<std::pair<unsigned long const ,float> > >, COMDAT
; _this$dead$ = ecx

; 372  :     unordered_map(initializer_list<value_type> _Ilist) : _Mybase(_Key_compare(), allocator_type()) {

  00000	55		 push	 ebp
  00001	8b ec		 mov	 ebp, esp
  00003	6a ff		 push	 -1
  00005	68 00 00 00 00	 push	 __ehhandler$??0?$unordered_map@KMU?$hash@K@std@@U?$equal_to@K@2@V?$allocator@U?$pair@$$CBKM@std@@@2@@std@@QAE@V?$initializer_list@U?$pair@$$CBKM@std@@@1@@Z
  0000a	64 a1 00 00 00
	00		 mov	 eax, DWORD PTR fs:0
  00010	50		 push	 eax
  00011	83 ec 0c	 sub	 esp, 12			; 0000000cH
  00014	56		 push	 esi
  00015	a1 00 00 00 00	 mov	 eax, DWORD PTR ___security_cookie
  0001a	33 c5		 xor	 eax, ebp
  0001c	50		 push	 eax
  0001d	8d 45 f4	 lea	 eax, DWORD PTR __$EHRec$[ebp]
  00020	64 a3 00 00 00
	00		 mov	 DWORD PTR fs:0, eax
; File C:\Program Files\Microsoft Visual Studio\2022\Community\VC\Tools\MSVC\14.44.35207\include\xmemory

; 136  :         return ::operator new(_Bytes);

  00026	6a 10		 push	 16			; 00000010H
  00028	c7 45 ec 00 00
	00 00		 mov	 DWORD PTR _this$[ebp], OFFSET ?setAllowedHair@?1??SetHair@CInstanceBase@@QAEXK@Z@4V?$unordered_map@KMU?$hash@K@std@@U?$equal_to@K@2@V?$allocator@U?$pair@$$CBKM@std@@@2@@std@@A
; File C:\Program Files\Microsoft Visual Studio\2022\Community\VC\Tools\MSVC\14.44.35207\include\unordered_map

; 49   :     explicit _Umap_traits(const _Tr& _Traits) noexcept(is_nothrow_copy_constructible_v<_Tr>) : _Tr(_Traits) {}

  0002f	c7 05 00 00 00
	00 00 00 00 00	 mov	 DWORD PTR ?setAllowedHair@?1??SetHair@CInstanceBase@@QAEXK@Z@4V?$unordered_map@KMU?$hash@K@std@@U?$equal_to@K@2@V?$allocator@U?$pair@$$CBKM@std@@@2@@std@@A, 0
; File C:\Program Files\Microsoft Visual Studio\2022\Community\VC\Tools\MSVC\14.44.35207\include\list

; 353  :     _List_val() noexcept : _Myhead(), _Mysize(0) {} // initialize data

  00039	c7 05 04 00 00
	00 00 00 00 00	 mov	 DWORD PTR ?setAllowedHair@?1??SetHair@CInstanceBase@@QAEXK@Z@4V?$unordered_map@KMU?$hash@K@std@@U?$equal_to@K@2@V?$allocator@U?$pair@$$CBKM@std@@@2@@std@@A+4, 0
  00043	c7 05 08 00 00
	00 00 00 00 00	 mov	 DWORD PTR ?setAllowedHair@?1??SetHair@CInstanceBase@@QAEXK@Z@4V?$unordered_map@KMU?$hash@K@std@@U?$equal_to@K@2@V?$allocator@U?$pair@$$CBKM@std@@@2@@std@@A+8, 0
; File C:\Program Files\Microsoft Visual Studio\2022\Community\VC\Tools\MSVC\14.44.35207\include\xmemory

; 136  :         return ::operator new(_Bytes);

  0004d	e8 00 00 00 00	 call	 ??2@YAPAXI@Z		; operator new
  00052	83 c4 04	 add	 esp, 4
; File C:\Program Files\Microsoft Visual Studio\2022\Community\VC\Tools\MSVC\14.44.35207\include\list

; 1852 :         _Construct_in_place(_Newhead->_Next, _Newhead);

  00055	89 00		 mov	 DWORD PTR [eax], eax

; 1853 :         _Construct_in_place(_Newhead->_Prev, _Newhead);

  00057	89 40 04	 mov	 DWORD PTR [eax+4], eax

; 1854 :         _Mypair._Myval2._Myhead = _Newhead;

  0005a	a3 04 00 00 00	 mov	 DWORD PTR ?setAllowedHair@?1??SetHair@CInstanceBase@@QAEXK@Z@4V?$unordered_map@KMU?$hash@K@std@@U?$equal_to@K@2@V?$allocator@U?$pair@$$CBKM@std@@@2@@std@@A+4, eax
; File C:\Program Files\Microsoft Visual Studio\2022\Community\VC\Tools\MSVC\14.44.35207\include\xhash

; 371  :         : _Traitsobj(_Parg), _List(_Al), _Vec(_Al), _Mask(_Min_buckets - 1), _Maxidx(_Min_buckets) {

  0005f	c7 45 fc 00 00
	00 00		 mov	 DWORD PTR __$EHRec$[ebp+8], 0
; File C:\Program Files\Microsoft Visual Studio\2022\Community\VC\Tools\MSVC\14.44.35207\include\vector

; 400  :     _CONSTEXPR20 _Vector_val() noexcept : _Myfirst(), _Mylast(), _Myend() {}

  00066	c7 05 0c 00 00
	00 00 00 00 00	 mov	 DWORD PTR ?setAllowedHair@?1??SetHair@CInstanceBase@@QAEXK@Z@4V?$unordered_map@KMU?$hash@K@std@@U?$equal_to@K@2@V?$allocator@U?$pair@$$CBKM@std@@@2@@std@@A+12, 0
  00070	c7 05 10 00 00
	00 00 00 00 00	 mov	 DWORD PTR ?setAllowedHair@?1??SetHair@CInstanceBase@@QAEXK@Z@4V?$unordered_map@KMU?$hash@K@std@@U?$equal_to@K@2@V?$allocator@U?$pair@$$CBKM@std@@@2@@std@@A+16, 0
  0007a	c7 05 14 00 00
	00 00 00 00 00	 mov	 DWORD PTR ?setAllowedHair@?1??SetHair@CInstanceBase@@QAEXK@Z@4V?$unordered_map@KMU?$hash@K@std@@U?$equal_to@K@2@V?$allocator@U?$pair@$$CBKM@std@@@2@@std@@A+20, 0
; File C:\Program Files\Microsoft Visual Studio\2022\Community\VC\Tools\MSVC\14.44.35207\include\xhash

; 371  :         : _Traitsobj(_Parg), _List(_Al), _Vec(_Al), _Mask(_Min_buckets - 1), _Maxidx(_Min_buckets) {

  00084	c6 45 fc 01	 mov	 BYTE PTR __$EHRec$[ebp+8], 1
; File C:\Program Files\Microsoft Visual Studio\2022\Community\VC\Tools\MSVC\14.44.35207\include\xmemory

; 136  :         return ::operator new(_Bytes);

  00088	6a 40		 push	 64			; 00000040H
; File C:\Program Files\Microsoft Visual Studio\2022\Community\VC\Tools\MSVC\14.44.35207\include\xhash

; 371  :         : _Traitsobj(_Parg), _List(_Al), _Vec(_Al), _Mask(_Min_buckets - 1), _Maxidx(_Min_buckets) {

  0008a	c7 05 18 00 00
	00 07 00 00 00	 mov	 DWORD PTR ?setAllowedHair@?1??SetHair@CInstanceBase@@QAEXK@Z@4V?$unordered_map@KMU?$hash@K@std@@U?$equal_to@K@2@V?$allocator@U?$pair@$$CBKM@std@@@2@@std@@A+24, 7
  00094	c7 05 1c 00 00
	00 08 00 00 00	 mov	 DWORD PTR ?setAllowedHair@?1??SetHair@CInstanceBase@@QAEXK@Z@4V?$unordered_map@KMU?$hash@K@std@@U?$equal_to@K@2@V?$allocator@U?$pair@$$CBKM@std@@@2@@std@@A+28, 8

; 372  :         // construct empty hash table
; 373  :         _Max_bucket_size() = _Bucket_size;

  0009e	c7 05 00 00 00
	00 00 00 80 3f	 mov	 DWORD PTR ?setAllowedHair@?1??SetHair@CInstanceBase@@QAEXK@Z@4V?$unordered_map@KMU?$hash@K@std@@U?$equal_to@K@2@V?$allocator@U?$pair@$$CBKM@std@@@2@@std@@A, 1065353216 ; 3f800000H

; 374  :         _Vec._Assign_grow(_Min_buckets * 2, _List._Unchecked_end());

  000a8	89 45 f0	 mov	 DWORD PTR __Val$[ebp], eax
; File C:\Program Files\Microsoft Visual Studio\2022\Community\VC\Tools\MSVC\14.44.35207\include\xmemory

; 136  :         return ::operator new(_Bytes);

  000ab	e8 00 00 00 00	 call	 ??2@YAPAXI@Z		; operator new
; File C:\Program Files\Microsoft Visual Studio\2022\Community\VC\Tools\MSVC\14.44.35207\include\xhash

; 279  :         return static_cast<size_type>(_Mypair._Myval2._Myend - _Mypair._Myval2._Myfirst);

  000b0	8b 15 14 00 00
	00		 mov	 edx, DWORD PTR ?setAllowedHair@?1??SetHair@CInstanceBase@@QAEXK@Z@4V?$unordered_map@KMU?$hash@K@std@@U?$equal_to@K@2@V?$allocator@U?$pair@$$CBKM@std@@@2@@std@@A+20
; File C:\Program Files\Microsoft Visual Studio\2022\Community\VC\Tools\MSVC\14.44.35207\include\xmemory

; 136  :         return ::operator new(_Bytes);

  000b6	83 c4 04	 add	 esp, 4
; File C:\Program Files\Microsoft Visual Studio\2022\Community\VC\Tools\MSVC\14.44.35207\include\xhash

; 279  :         return static_cast<size_type>(_Mypair._Myval2._Myend - _Mypair._Myval2._Myfirst);

  000b9	8b 0d 0c 00 00
	00		 mov	 ecx, DWORD PTR ?setAllowedHair@?1??SetHair@CInstanceBase@@QAEXK@Z@4V?$unordered_map@KMU?$hash@K@std@@U?$equal_to@K@2@V?$allocator@U?$pair@$$CBKM@std@@@2@@std@@A+12
; File C:\Program Files\Microsoft Visual Studio\2022\Community\VC\Tools\MSVC\14.44.35207\include\xmemory

; 256  :         return _Traits::_Allocate(_Bytes);

  000bf	8b f0		 mov	 esi, eax
; File C:\Program Files\Microsoft Visual Studio\2022\Community\VC\Tools\MSVC\14.44.35207\include\xhash

; 279  :         return static_cast<size_type>(_Mypair._Myval2._Myend - _Mypair._Myval2._Myfirst);

  000c1	2b d1		 sub	 edx, ecx
  000c3	c1 fa 02	 sar	 edx, 2

; 291  :             if (_Oldcapacity != 0) {

  000c6	85 d2		 test	 edx, edx
  000c8	74 27		 je	 SHORT $LN96@unordered_
; File C:\Program Files\Microsoft Visual Studio\2022\Community\VC\Tools\MSVC\14.44.35207\include\xmemory

; 985  :         _STD _Deallocate<_New_alignof<_Ty>>(_Ptr, sizeof(_Ty) * _Count);

  000ca	c1 e2 02	 shl	 edx, 2
  000cd	8b c1		 mov	 eax, ecx

; 284  :         if (_Bytes >= _Big_allocation_threshold) {

  000cf	81 fa 00 10 00
	00		 cmp	 edx, 4096		; 00001000H
  000d5	72 10		 jb	 SHORT $LN104@unordered_

; 205  :     const uintptr_t _Ptr_container   = _Ptr_user[-1];

  000d7	8b 48 fc	 mov	 ecx, DWORD PTR [eax-4]
  000da	83 c2 23	 add	 edx, 35			; 00000023H
  000dd	2b c1		 sub	 eax, ecx

; 219  :     _STL_VERIFY(_Back_shift >= _Min_back_shift && _Back_shift <= _Non_user_size, "invalid argument");

  000df	83 c0 fc	 add	 eax, -4			; fffffffcH
  000e2	83 f8 1f	 cmp	 eax, 31			; 0000001fH
  000e5	77 56		 ja	 SHORT $LN113@unordered_
$LN104@unordered_:

; 289  :         ::operator delete(_Ptr, _Bytes);

  000e7	52		 push	 edx
  000e8	51		 push	 ecx
  000e9	e8 00 00 00 00	 call	 ??3@YAXPAXI@Z		; operator delete
  000ee	83 c4 08	 add	 esp, 8
$LN96@unordered_:
; File C:\Program Files\Microsoft Visual Studio\2022\Community\VC\Tools\MSVC\14.44.35207\include\xhash

; 297  :             const auto _Newend       = _Newvec + _Cells;

  000f1	8d 56 40	 lea	 edx, DWORD PTR [esi+64]
  000f4	89 35 0c 00 00
	00		 mov	 DWORD PTR ?setAllowedHair@?1??SetHair@CInstanceBase@@QAEXK@Z@4V?$unordered_map@KMU?$hash@K@std@@U?$equal_to@K@2@V?$allocator@U?$pair@$$CBKM@std@@@2@@std@@A+12, esi

; 298  :             _Mypair._Myval2._Mylast  = _Newend;
; 299  :             _Mypair._Myval2._Myend   = _Newend;
; 300  :             _STD uninitialized_fill(_Newvec, _Newend, _Val);

  000fa	8d 45 f0	 lea	 eax, DWORD PTR __Val$[ebp]
  000fd	89 15 10 00 00
	00		 mov	 DWORD PTR ?setAllowedHair@?1??SetHair@CInstanceBase@@QAEXK@Z@4V?$unordered_map@KMU?$hash@K@std@@U?$equal_to@K@2@V?$allocator@U?$pair@$$CBKM@std@@@2@@std@@A+16, edx
  00103	50		 push	 eax
  00104	8b ce		 mov	 ecx, esi
  00106	89 15 14 00 00
	00		 mov	 DWORD PTR ?setAllowedHair@?1??SetHair@CInstanceBase@@QAEXK@Z@4V?$unordered_map@KMU?$hash@K@std@@U?$equal_to@K@2@V?$allocator@U?$pair@$$CBKM@std@@@2@@std@@A+20, edx
  0010c	e8 00 00 00 00	 call	 ??$uninitialized_fill@PAV?$_List_unchecked_iterator@V?$_List_val@U?$_List_simple_types@U?$pair@$$CBKM@std@@@std@@@std@@@std@@V12@@std@@YAXQAV?$_List_unchecked_iterator@V?$_List_val@U?$_List_simple_types@U?$pair@$$CBKM@std@@@std@@@std@@@0@0ABV10@@Z ; std::uninitialized_fill<std::_List_unchecked_iterator<std::_List_val<std::_List_simple_types<std::pair<unsigned long const ,float> > > > *,std::_List_unchecked_iterator<std::_List_val<std::_List_simple_types<std::pair<unsigned long const ,float> > > > >
  00111	83 c4 04	 add	 esp, 4
; File C:\Program Files\Microsoft Visual Studio\2022\Community\VC\Tools\MSVC\14.44.35207\include\unordered_map

; 372  :     unordered_map(initializer_list<value_type> _Ilist) : _Mybase(_Key_compare(), allocator_type()) {

  00114	c7 45 fc 02 00
	00 00		 mov	 DWORD PTR __$EHRec$[ebp+8], 2
; File C:\Program Files\Microsoft Visual Studio\2022\Community\VC\Tools\MSVC\14.44.35207\include\xhash

; 977  :         _Insert_range_unchecked(_Ilist.begin(), _Ilist.end());

  0011b	ff 75 0c	 push	 DWORD PTR __Ilist$[ebp+4]
  0011e	ff 75 08	 push	 DWORD PTR __Ilist$[ebp]
  00121	e8 00 00 00 00	 call	 ??$_Insert_range_unchecked@PBU?$pair@$$CBKM@std@@PBU12@@?$_Hash@V?$_Umap_traits@KMV?$_Uhash_compare@KU?$hash@K@std@@U?$equal_to@K@2@@std@@V?$allocator@U?$pair@$$CBKM@std@@@2@$0A@@std@@@std@@IAEXPBU?$pair@$$CBKM@1@QBU21@@Z ; std::_Hash<std::_Umap_traits<unsigned long,float,std::_Uhash_compare<unsigned long,std::hash<unsigned long>,std::equal_to<unsigned long> >,std::allocator<std::pair<unsigned long const ,float> >,0> >::_Insert_range_unchecked<std::pair<unsigned long const ,float> const *,std::pair<unsigned long const ,float> const *>
; File C:\Program Files\Microsoft Visual Studio\2022\Community\VC\Tools\MSVC\14.44.35207\include\unordered_map

; 374  :     }

  00126	b8 00 00 00 00	 mov	 eax, OFFSET ?setAllowedHair@?1??SetHair@CInstanceBase@@QAEXK@Z@4V?$unordered_map@KMU?$hash@K@std@@U?$equal_to@K@2@V?$allocator@U?$pair@$$CBKM@std@@@2@@std@@A
  0012b	8b 4d f4	 mov	 ecx, DWORD PTR __$EHRec$[ebp]
  0012e	64 89 0d 00 00
	00 00		 mov	 DWORD PTR fs:0, ecx
  00135	59		 pop	 ecx
  00136	5e		 pop	 esi
  00137	8b e5		 mov	 esp, ebp
  00139	5d		 pop	 ebp
  0013a	c2 08 00	 ret	 8
$LN113@unordered_:
; File C:\Program Files\Microsoft Visual Studio\2022\Community\VC\Tools\MSVC\14.44.35207\include\xmemory

; 219  :     _STL_VERIFY(_Back_shift >= _Min_back_shift && _Back_shift <= _Non_user_size, "invalid argument");

  0013d	6a 00		 push	 0
  0013f	6a 00		 push	 0
  00141	6a 00		 push	 0
  00143	6a 00		 push	 0
  00145	6a 00		 push	 0
  00147	e8 00 00 00 00	 call	 __invoke_watson
$LN111@unordered_:
  0014c	cc		 int	 3
_TEXT	ENDS
;	COMDAT text$x
text$x	SEGMENT
__unwindfunclet$??0?$unordered_map@KMU?$hash@K@std@@U?$equal_to@K@2@V?$allocator@U?$pair@$$CBKM@std@@@2@@std@@QAE@V?$initializer_list@U?$pair@$$CBKM@std@@@1@@Z$1:
  00000	8b 4d ec	 mov	 ecx, DWORD PTR _this$[ebp]
  00003	83 c1 04	 add	 ecx, 4
  00006	e9 00 00 00 00	 jmp	 ??1?$list@U?$pair@$$CBKM@std@@V?$allocator@U?$pair@$$CBKM@std@@@2@@std@@QAE@XZ ; std::list<std::pair<unsigned long const ,float>,std::allocator<std::pair<unsigned long const ,float> > >::~list<std::pair<unsigned long const ,float>,std::allocator<std::pair<unsigned long const ,float> > >
__unwindfunclet$??0?$unordered_map@KMU?$hash@K@std@@U?$equal_to@K@2@V?$allocator@U?$pair@$$CBKM@std@@@2@@std@@QAE@V?$initializer_list@U?$pair@$$CBKM@std@@@1@@Z$2:
  0000b	8b 4d ec	 mov	 ecx, DWORD PTR _this$[ebp]
  0000e	83 c1 0c	 add	 ecx, 12			; 0000000cH
  00011	e9 00 00 00 00	 jmp	 ??1?$_Hash_vec@V?$allocator@V?$_List_unchecked_iterator@V?$_List_val@U?$_List_simple_types@U?$pair@$$CBKM@std@@@std@@@std@@@std@@@std@@@std@@QAE@XZ ; std::_Hash_vec<std::allocator<std::_List_unchecked_iterator<std::_List_val<std::_List_simple_types<std::pair<unsigned long const ,float> > > > > >::~_Hash_vec<std::allocator<std::_List_unchecked_iterator<std::_List_val<std::_List_simple_types<std::pair<unsigned long const ,float> > > > > >
__unwindfunclet$??0?$unordered_map@KMU?$hash@K@std@@U?$equal_to@K@2@V?$allocator@U?$pair@$$CBKM@std@@@2@@std@@QAE@V?$initializer_list@U?$pair@$$CBKM@std@@@1@@Z$0:
  00016	8b 4d ec	 mov	 ecx, DWORD PTR _this$[ebp]
  00019	e9 00 00 00 00	 jmp	 ??1?$_Hash@V?$_Umap_traits@KMV?$_Uhash_compare@KU?$hash@K@std@@U?$equal_to@K@2@@std@@V?$allocator@U?$pair@$$CBKM@std@@@2@$0A@@std@@@std@@QAE@XZ
  0001e	cc		 int	 3
  0001f	cc		 int	 3
  00020	cc		 int	 3
  00021	cc		 int	 3
  00022	cc		 int	 3
__ehhandler$??0?$unordered_map@KMU?$hash@K@std@@U?$equal_to@K@2@V?$allocator@U?$pair@$$CBKM@std@@@2@@std@@QAE@V?$initializer_list@U?$pair@$$CBKM@std@@@1@@Z:
  00023	90		 npad	 1
  00024	90		 npad	 1
  00025	8b 54 24 08	 mov	 edx, DWORD PTR [esp+8]
  00029	8d 42 0c	 lea	 eax, DWORD PTR [edx+12]
  0002c	8b 4a ec	 mov	 ecx, DWORD PTR [edx-20]
  0002f	33 c8		 xor	 ecx, eax
  00031	e8 00 00 00 00	 call	 @__security_check_cookie@4
  00036	b8 00 00 00 00	 mov	 eax, OFFSET __ehfuncinfo$??0?$unordered_map@KMU?$hash@K@std@@U?$equal_to@K@2@V?$allocator@U?$pair@$$CBKM@std@@@2@@std@@QAE@V?$initializer_list@U?$pair@$$CBKM@std@@@1@@Z
  0003b	e9 00 00 00 00	 jmp	 ___CxxFrameHandler3
text$x	ENDS
??0?$unordered_map@KMU?$hash@K@std@@U?$equal_to@K@2@V?$allocator@U?$pair@$$CBKM@std@@@2@@std@@QAE@V?$initializer_list@U?$pair@$$CBKM@std@@@1@@Z ENDP ; std::unordered_map<unsigned long,float,std::hash<unsigned long>,std::equal_to<unsigned long>,std::allocator<std::pair<unsigned long const ,float> > >::unordered_map<unsigned long,float,std::hash<unsigned long>,std::equal_to<unsigned long>,std::allocator<std::pair<unsigned long const ,float> > >
; Function compile flags: /Ogtp
; File C:\Anka2Project\Anka2Project\Source\Binary\source\eterLib\Pool.h
; File C:\Program Files\Microsoft Visual Studio\2022\Community\VC\Tools\MSVC\14.44.35207\include\vector
; File C:\Anka2Project\Anka2Project\Source\Binary\source\eterLib\Pool.h
; File C:\Program Files\Microsoft Visual Studio\2022\Community\VC\Tools\MSVC\14.44.35207\include\vector
; File C:\Anka2Project\Anka2Project\Source\Binary\source\eterLib\Pool.h
; File C:\Program Files\Microsoft Visual Studio\2022\Community\VC\Tools\MSVC\14.44.35207\include\vector
; File C:\Anka2Project\Anka2Project\Source\Binary\source\eterLib\Pool.h
; File C:\Program Files\Microsoft Visual Studio\2022\Community\VC\Tools\MSVC\14.44.35207\include\vector
; File C:\Anka2Project\Anka2Project\Source\Binary\source\eterLib\Pool.h
;	COMDAT ?Alloc@?$CDynamicPool@VCInstanceBase@@@@QAEPAVCInstanceBase@@XZ
_TEXT	SEGMENT
_pkNewData$7 = -16					; size = 4
$T2 = -16						; size = 4
__$EHRec$ = -12						; size = 12
?Alloc@?$CDynamicPool@VCInstanceBase@@@@QAEPAVCInstanceBase@@XZ PROC ; CDynamicPool<CInstanceBase>::Alloc, COMDAT
; _this$dead$ = ecx

; 41   : 		{

  00000	55		 push	 ebp
  00001	8b ec		 mov	 ebp, esp
  00003	6a ff		 push	 -1
  00005	68 00 00 00 00	 push	 __ehhandler$?Alloc@?$CDynamicPool@VCInstanceBase@@@@QAEPAVCInstanceBase@@XZ
  0000a	64 a1 00 00 00
	00		 mov	 eax, DWORD PTR fs:0
  00010	50		 push	 eax
  00011	51		 push	 ecx
  00012	56		 push	 esi
  00013	a1 00 00 00 00	 mov	 eax, DWORD PTR ___security_cookie
  00018	33 c5		 xor	 eax, ebp
  0001a	50		 push	 eax
  0001b	8d 45 f4	 lea	 eax, DWORD PTR __$EHRec$[ebp]
  0001e	64 a3 00 00 00
	00		 mov	 DWORD PTR fs:0, eax
; File C:\Program Files\Microsoft Visual Studio\2022\Community\VC\Tools\MSVC\14.44.35207\include\vector

; 1910 :         return _My_data._Myfirst == _My_data._Mylast;

  00024	8b 0d 14 00 00
	00		 mov	 ecx, DWORD PTR ?ms_kPool@CInstanceBase@@2V?$CDynamicPool@VCInstanceBase@@@@A+20
  0002a	39 0d 10 00 00
	00		 cmp	 DWORD PTR ?ms_kPool@CInstanceBase@@2V?$CDynamicPool@VCInstanceBase@@@@A+16, ecx
; File C:\Anka2Project\Anka2Project\Source\Binary\source\eterLib\Pool.h

; 42   : 			if (m_kVct_pkFree.empty())

  00030	75 50		 jne	 SHORT $LN2@Alloc

; 44   : 				T* pkNewData=new T;

  00032	68 88 1d 00 00	 push	 7560			; 00001d88H
  00037	e8 00 00 00 00	 call	 ??2@YAPAXI@Z		; operator new
  0003c	83 c4 04	 add	 esp, 4
  0003f	89 45 f0	 mov	 DWORD PTR $T2[ebp], eax
  00042	8b c8		 mov	 ecx, eax
  00044	c7 45 fc 00 00
	00 00		 mov	 DWORD PTR __$EHRec$[ebp+8], 0
  0004b	e8 00 00 00 00	 call	 ??0CInstanceBase@@QAE@XZ ; CInstanceBase::CInstanceBase
  00050	8b f0		 mov	 esi, eax
  00052	c7 45 fc ff ff
	ff ff		 mov	 DWORD PTR __$EHRec$[ebp+8], -1
; File C:\Program Files\Microsoft Visual Studio\2022\Community\VC\Tools\MSVC\14.44.35207\include\vector

; 933  :         _Emplace_one_at_back(_Val);

  00059	8d 45 f0	 lea	 eax, DWORD PTR _pkNewData$7[ebp]
; File C:\Anka2Project\Anka2Project\Source\Binary\source\eterLib\Pool.h

; 44   : 				T* pkNewData=new T;

  0005c	89 75 f0	 mov	 DWORD PTR _pkNewData$7[ebp], esi
; File C:\Program Files\Microsoft Visual Studio\2022\Community\VC\Tools\MSVC\14.44.35207\include\vector

; 933  :         _Emplace_one_at_back(_Val);

  0005f	50		 push	 eax
  00060	b9 04 00 00 00	 mov	 ecx, OFFSET ?ms_kPool@CInstanceBase@@2V?$CDynamicPool@VCInstanceBase@@@@A+4
  00065	e8 00 00 00 00	 call	 ??$_Emplace_one_at_back@ABQAVCInstanceBase@@@?$vector@PAVCInstanceBase@@V?$allocator@PAVCInstanceBase@@@std@@@std@@AAEAAPAVCInstanceBase@@ABQAV2@@Z ; std::vector<CInstanceBase *,std::allocator<CInstanceBase *> >::_Emplace_one_at_back<CInstanceBase * const &>
; File C:\Anka2Project\Anka2Project\Source\Binary\source\eterLib\Pool.h

; 46   : 				++m_uUsedCapacity;

  0006a	ff 05 20 00 00
	00		 inc	 DWORD PTR ?ms_kPool@CInstanceBase@@2V?$CDynamicPool@VCInstanceBase@@@@A+32

; 47   : 				return pkNewData;

  00070	8b c6		 mov	 eax, esi

; 53   : 		}

  00072	8b 4d f4	 mov	 ecx, DWORD PTR __$EHRec$[ebp]
  00075	64 89 0d 00 00
	00 00		 mov	 DWORD PTR fs:0, ecx
  0007c	59		 pop	 ecx
  0007d	5e		 pop	 esi
  0007e	8b e5		 mov	 esp, ebp
  00080	5d		 pop	 ebp
  00081	c3		 ret	 0
$LN2@Alloc:

; 48   : 			}
; 49   : 
; 50   : 			T* pkFreeData=m_kVct_pkFree.back();

  00082	8b 41 fc	 mov	 eax, DWORD PTR [ecx-4]
; File C:\Program Files\Microsoft Visual Studio\2022\Community\VC\Tools\MSVC\14.44.35207\include\vector

; 1989 :         return _My_data._Mylast[-1];

  00085	83 c1 fc	 add	 ecx, -4			; fffffffcH

; 1759 :         --_Mylast;

  00088	89 0d 14 00 00
	00		 mov	 DWORD PTR ?ms_kPool@CInstanceBase@@2V?$CDynamicPool@VCInstanceBase@@@@A+20, ecx
; File C:\Anka2Project\Anka2Project\Source\Binary\source\eterLib\Pool.h

; 53   : 		}

  0008e	8b 4d f4	 mov	 ecx, DWORD PTR __$EHRec$[ebp]
  00091	64 89 0d 00 00
	00 00		 mov	 DWORD PTR fs:0, ecx
  00098	59		 pop	 ecx
  00099	5e		 pop	 esi
  0009a	8b e5		 mov	 esp, ebp
  0009c	5d		 pop	 ebp
  0009d	c3		 ret	 0
_TEXT	ENDS
;	COMDAT text$x
text$x	SEGMENT
__unwindfunclet$?Alloc@?$CDynamicPool@VCInstanceBase@@@@QAEPAVCInstanceBase@@XZ$0:
  00000	68 88 1d 00 00	 push	 7560			; 00001d88H
  00005	8b 45 f0	 mov	 eax, DWORD PTR $T2[ebp]
  00008	50		 push	 eax
  00009	e8 00 00 00 00	 call	 ??3@YAXPAXI@Z		; operator delete
  0000e	83 c4 08	 add	 esp, 8
  00011	c3		 ret	 0
  00012	cc		 int	 3
  00013	cc		 int	 3
  00014	cc		 int	 3
  00015	cc		 int	 3
  00016	cc		 int	 3
__ehhandler$?Alloc@?$CDynamicPool@VCInstanceBase@@@@QAEPAVCInstanceBase@@XZ:
  00017	90		 npad	 1
  00018	90		 npad	 1
  00019	8b 54 24 08	 mov	 edx, DWORD PTR [esp+8]
  0001d	8d 42 0c	 lea	 eax, DWORD PTR [edx+12]
  00020	8b 4a f4	 mov	 ecx, DWORD PTR [edx-12]
  00023	33 c8		 xor	 ecx, eax
  00025	e8 00 00 00 00	 call	 @__security_check_cookie@4
  0002a	b8 00 00 00 00	 mov	 eax, OFFSET __ehfuncinfo$?Alloc@?$CDynamicPool@VCInstanceBase@@@@QAEPAVCInstanceBase@@XZ
  0002f	e9 00 00 00 00	 jmp	 ___CxxFrameHandler3
text$x	ENDS
?Alloc@?$CDynamicPool@VCInstanceBase@@@@QAEPAVCInstanceBase@@XZ ENDP ; CDynamicPool<CInstanceBase>::Alloc
; Function compile flags: /Ogtp
; File C:\Program Files\Microsoft Visual Studio\2022\Community\VC\Tools\MSVC\14.44.35207\include\deque
; File C:\Program Files\Microsoft Visual Studio\2022\Community\VC\Tools\MSVC\14.44.35207\include\xmemory
; File C:\Program Files\Microsoft Visual Studio\2022\Community\VC\Tools\MSVC\14.44.35207\include\deque
; File C:\Program Files\Microsoft Visual Studio\2022\Community\VC\Tools\MSVC\14.44.35207\include\xmemory
; File C:\Program Files\Microsoft Visual Studio\2022\Community\VC\Tools\MSVC\14.44.35207\include\deque
; File C:\Program Files\Microsoft Visual Studio\2022\Community\VC\Tools\MSVC\14.44.35207\include\utility
; File C:\Program Files\Microsoft Visual Studio\2022\Community\VC\Tools\MSVC\14.44.35207\include\xmemory
; File C:\Program Files\Microsoft Visual Studio\2022\Community\VC\Tools\MSVC\14.44.35207\include\utility
; File C:\Program Files\Microsoft Visual Studio\2022\Community\VC\Tools\MSVC\14.44.35207\include\xmemory
; File C:\Program Files\Microsoft Visual Studio\2022\Community\VC\Tools\MSVC\14.44.35207\include\deque
; File C:\Program Files\Microsoft Visual Studio\2022\Community\VC\Tools\MSVC\14.44.35207\include\xmemory
; File C:\Program Files\Microsoft Visual Studio\2022\Community\VC\Tools\MSVC\14.44.35207\include\deque
;	COMDAT ??1?$deque@USEffectDamage@CInstanceBase@@V?$allocator@USEffectDamage@CInstanceBase@@@std@@@std@@QAE@XZ
_TEXT	SEGMENT
??1?$deque@USEffectDamage@CInstanceBase@@V?$allocator@USEffectDamage@CInstanceBase@@@std@@@std@@QAE@XZ PROC ; std::deque<CInstanceBase::SEffectDamage,std::allocator<CInstanceBase::SEffectDamage> >::~deque<CInstanceBase::SEffectDamage,std::allocator<CInstanceBase::SEffectDamage> >, COMDAT
; _this$ = ecx

; 773  :     ~deque() noexcept {

  00000	56		 push	 esi
  00001	8b f1		 mov	 esi, ecx

; 971  :         return _Mysize() == 0;

  00003	8b 4e 10	 mov	 ecx, DWORD PTR [esi+16]
  00006	85 c9		 test	 ecx, ecx

; 1673 :         while (!empty()) {

  00008	74 15		 je	 SHORT $LN112@deque
  0000a	66 0f 1f 44 00
	00		 npad	 6
$LL5@deque:

; 1513 :         if (--_Mysize() == 0) {

  00010	8d 41 ff	 lea	 eax, DWORD PTR [ecx-1]
  00013	89 46 10	 mov	 DWORD PTR [esi+16], eax
  00016	8b c8		 mov	 ecx, eax
  00018	85 c0		 test	 eax, eax
  0001a	75 f4		 jne	 SHORT $LL5@deque

; 1514 :             _Myoff() = 0;

  0001c	89 46 0c	 mov	 DWORD PTR [esi+12], eax
$LN112@deque:

; 1677 :         if (_Map() != nullptr) {

  0001f	83 7e 04 00	 cmp	 DWORD PTR [esi+4], 0
  00023	74 61		 je	 SHORT $LN28@deque
  00025	57		 push	 edi

; 1654 :         for (auto _Block = _Map_distance(); _Block > 0;) { // free storage for a block and destroy pointer

  00026	8b 7e 08	 mov	 edi, DWORD PTR [esi+8]
  00029	85 ff		 test	 edi, edi
  0002b	7e 1d		 jle	 SHORT $LN109@deque
  0002d	0f 1f 00	 npad	 3
$LL26@deque:

; 1655 :             --_Block;
; 1656 :             auto& _Block_ptr = _Map()[_Block];
; 1657 :             if (_Block_ptr) { // free block

  00030	8b 46 04	 mov	 eax, DWORD PTR [esi+4]
  00033	4f		 dec	 edi
  00034	8b 04 b8	 mov	 eax, DWORD PTR [eax+edi*4]
  00037	85 c0		 test	 eax, eax
  00039	74 0b		 je	 SHORT $LN24@deque
; File C:\Program Files\Microsoft Visual Studio\2022\Community\VC\Tools\MSVC\14.44.35207\include\xmemory

; 289  :         ::operator delete(_Ptr, _Bytes);

  0003b	6a 18		 push	 24			; 00000018H
  0003d	50		 push	 eax
  0003e	e8 00 00 00 00	 call	 ??3@YAXPAXI@Z		; operator delete
  00043	83 c4 08	 add	 esp, 8
$LN24@deque:
; File C:\Program Files\Microsoft Visual Studio\2022\Community\VC\Tools\MSVC\14.44.35207\include\deque

; 1654 :         for (auto _Block = _Map_distance(); _Block > 0;) { // free storage for a block and destroy pointer

  00046	85 ff		 test	 edi, edi
  00048	7f e6		 jg	 SHORT $LL26@deque
$LN109@deque:
; File C:\Program Files\Microsoft Visual Studio\2022\Community\VC\Tools\MSVC\14.44.35207\include\xmemory

; 985  :         _STD _Deallocate<_New_alignof<_Ty>>(_Ptr, sizeof(_Ty) * _Count);

  0004a	8b 4e 08	 mov	 ecx, DWORD PTR [esi+8]
  0004d	8b 46 04	 mov	 eax, DWORD PTR [esi+4]
  00050	c1 e1 02	 shl	 ecx, 2
  00053	5f		 pop	 edi

; 284  :         if (_Bytes >= _Big_allocation_threshold) {

  00054	81 f9 00 10 00
	00		 cmp	 ecx, 4096		; 00001000H
  0005a	72 12		 jb	 SHORT $LN56@deque

; 205  :     const uintptr_t _Ptr_container   = _Ptr_user[-1];

  0005c	8b 50 fc	 mov	 edx, DWORD PTR [eax-4]
  0005f	83 c1 23	 add	 ecx, 35			; 00000023H

; 206  : 
; 207  :     // If the following asserts, it likely means that we are performing
; 208  :     // an aligned delete on memory coming from an unaligned allocation.
; 209  :     _STL_ASSERT(_Ptr_user[-2] == _Big_allocation_sentinel, "invalid argument");
; 210  : 
; 211  :     // Extra paranoia on aligned allocation/deallocation; ensure _Ptr_container is
; 212  :     // in range [_Min_back_shift, _Non_user_size]
; 213  : #ifdef _DEBUG
; 214  :     constexpr uintptr_t _Min_back_shift = 2 * sizeof(void*);
; 215  : #else // ^^^ defined(_DEBUG) / !defined(_DEBUG) vvv
; 216  :     constexpr uintptr_t _Min_back_shift = sizeof(void*);
; 217  : #endif // ^^^ !defined(_DEBUG) ^^^
; 218  :     const uintptr_t _Back_shift = reinterpret_cast<uintptr_t>(_Ptr) - _Ptr_container;

  00062	2b c2		 sub	 eax, edx

; 219  :     _STL_VERIFY(_Back_shift >= _Min_back_shift && _Back_shift <= _Non_user_size, "invalid argument");

  00064	83 c0 fc	 add	 eax, -4			; fffffffcH
  00067	83 f8 1f	 cmp	 eax, 31			; 0000001fH
  0006a	77 2f		 ja	 SHORT $LN55@deque

; 220  :     _Ptr = reinterpret_cast<void*>(_Ptr_container);

  0006c	8b c2		 mov	 eax, edx
$LN56@deque:

; 289  :         ::operator delete(_Ptr, _Bytes);

  0006e	51		 push	 ecx
  0006f	50		 push	 eax
  00070	e8 00 00 00 00	 call	 ??3@YAXPAXI@Z		; operator delete
  00075	83 c4 08	 add	 esp, 8
; File C:\Program Files\Microsoft Visual Studio\2022\Community\VC\Tools\MSVC\14.44.35207\include\deque

; 1666 :         _Map()     = nullptr;

  00078	c7 46 04 00 00
	00 00		 mov	 DWORD PTR [esi+4], 0

; 1667 :         _Mapsize() = 0;

  0007f	c7 46 08 00 00
	00 00		 mov	 DWORD PTR [esi+8], 0
$LN28@deque:
; File C:\Program Files\Microsoft Visual Studio\2022\Community\VC\Tools\MSVC\14.44.35207\include\utility

; 773  :     _Ty _Old_val = static_cast<_Ty&&>(_Val);

  00086	8b 06		 mov	 eax, DWORD PTR [esi]
; File C:\Program Files\Microsoft Visual Studio\2022\Community\VC\Tools\MSVC\14.44.35207\include\xmemory

; 289  :         ::operator delete(_Ptr, _Bytes);

  00088	6a 08		 push	 8
  0008a	50		 push	 eax
; File C:\Program Files\Microsoft Visual Studio\2022\Community\VC\Tools\MSVC\14.44.35207\include\utility

; 774  :     _Val         = static_cast<_Other&&>(_New_val);

  0008b	c7 06 00 00 00
	00		 mov	 DWORD PTR [esi], 0
; File C:\Program Files\Microsoft Visual Studio\2022\Community\VC\Tools\MSVC\14.44.35207\include\xmemory

; 289  :         ::operator delete(_Ptr, _Bytes);

  00091	e8 00 00 00 00	 call	 ??3@YAXPAXI@Z		; operator delete
  00096	83 c4 08	 add	 esp, 8
  00099	5e		 pop	 esi
; File C:\Program Files\Microsoft Visual Studio\2022\Community\VC\Tools\MSVC\14.44.35207\include\deque

; 777  :     }

  0009a	c3		 ret	 0
$LN55@deque:
; File C:\Program Files\Microsoft Visual Studio\2022\Community\VC\Tools\MSVC\14.44.35207\include\xmemory

; 219  :     _STL_VERIFY(_Back_shift >= _Min_back_shift && _Back_shift <= _Non_user_size, "invalid argument");

  0009b	6a 00		 push	 0
  0009d	6a 00		 push	 0
  0009f	6a 00		 push	 0
  000a1	6a 00		 push	 0
  000a3	6a 00		 push	 0
  000a5	e8 00 00 00 00	 call	 __invoke_watson
$LN121@deque:
  000aa	cc		 int	 3
??1?$deque@USEffectDamage@CInstanceBase@@V?$allocator@USEffectDamage@CInstanceBase@@@std@@@std@@QAE@XZ ENDP ; std::deque<CInstanceBase::SEffectDamage,std::allocator<CInstanceBase::SEffectDamage> >::~deque<CInstanceBase::SEffectDamage,std::allocator<CInstanceBase::SEffectDamage> >
_TEXT	ENDS
; Function compile flags: /Ogtp
; File C:\Program Files\Microsoft Visual Studio\2022\Community\VC\Tools\MSVC\14.44.35207\include\deque
; File C:\Program Files\Microsoft Visual Studio\2022\Community\VC\Tools\MSVC\14.44.35207\include\xmemory
; File C:\Program Files\Microsoft Visual Studio\2022\Community\VC\Tools\MSVC\14.44.35207\include\deque
; File C:\Program Files\Microsoft Visual Studio\2022\Community\VC\Tools\MSVC\14.44.35207\include\xmemory
; File C:\Program Files\Microsoft Visual Studio\2022\Community\VC\Tools\MSVC\14.44.35207\include\deque
;	COMDAT ??0?$deque@USEffectDamage@CInstanceBase@@V?$allocator@USEffectDamage@CInstanceBase@@@std@@@std@@QAE@XZ
_TEXT	SEGMENT
??0?$deque@USEffectDamage@CInstanceBase@@V?$allocator@USEffectDamage@CInstanceBase@@@std@@@std@@QAE@XZ PROC ; std::deque<CInstanceBase::SEffectDamage,std::allocator<CInstanceBase::SEffectDamage> >::deque<CInstanceBase::SEffectDamage,std::allocator<CInstanceBase::SEffectDamage> >, COMDAT
; _this$ = ecx

; 643  :     deque() : _Mypair(_Zero_then_variadic_args_t{}) {

  00000	56		 push	 esi
  00001	8b f1		 mov	 esi, ecx
; File C:\Program Files\Microsoft Visual Studio\2022\Community\VC\Tools\MSVC\14.44.35207\include\xmemory

; 136  :         return ::operator new(_Bytes);

  00003	6a 08		 push	 8

; 1235 :     _Container_proxy* _Myproxy = nullptr;

  00005	c7 06 00 00 00
	00		 mov	 DWORD PTR [esi], 0
; File C:\Program Files\Microsoft Visual Studio\2022\Community\VC\Tools\MSVC\14.44.35207\include\deque

; 556  :     _Deque_val() noexcept : _Map(), _Mapsize(0), _Myoff(0), _Mysize(0) {}

  0000b	c7 46 04 00 00
	00 00		 mov	 DWORD PTR [esi+4], 0
  00012	c7 46 08 00 00
	00 00		 mov	 DWORD PTR [esi+8], 0
  00019	c7 46 0c 00 00
	00 00		 mov	 DWORD PTR [esi+12], 0
  00020	c7 46 10 00 00
	00 00		 mov	 DWORD PTR [esi+16], 0
; File C:\Program Files\Microsoft Visual Studio\2022\Community\VC\Tools\MSVC\14.44.35207\include\xmemory

; 136  :         return ::operator new(_Bytes);

  00027	e8 00 00 00 00	 call	 ??2@YAPAXI@Z		; operator new
  0002c	83 c4 04	 add	 esp, 4

; 1222 :         _Myproxy            = _New_proxy;

  0002f	c7 40 04 00 00
	00 00		 mov	 DWORD PTR [eax+4], 0
  00036	89 06		 mov	 DWORD PTR [esi], eax

; 1223 :         _New_proxy->_Mycont = this;

  00038	89 30		 mov	 DWORD PTR [eax], esi
; File C:\Program Files\Microsoft Visual Studio\2022\Community\VC\Tools\MSVC\14.44.35207\include\deque

; 645  :     }

  0003a	8b c6		 mov	 eax, esi
  0003c	5e		 pop	 esi
  0003d	c3		 ret	 0
??0?$deque@USEffectDamage@CInstanceBase@@V?$allocator@USEffectDamage@CInstanceBase@@@std@@@std@@QAE@XZ ENDP ; std::deque<CInstanceBase::SEffectDamage,std::allocator<CInstanceBase::SEffectDamage> >::deque<CInstanceBase::SEffectDamage,std::allocator<CInstanceBase::SEffectDamage> >
_TEXT	ENDS
; Function compile flags: /Ogtp
; File C:\Program Files\Microsoft Visual Studio\2022\Community\VC\Tools\MSVC\14.44.35207\include\list
; File C:\Program Files\Microsoft Visual Studio\2022\Community\VC\Tools\MSVC\14.44.35207\include\xmemory
; File C:\Program Files\Microsoft Visual Studio\2022\Community\VC\Tools\MSVC\14.44.35207\include\list
; File C:\Program Files\Microsoft Visual Studio\2022\Community\VC\Tools\MSVC\14.44.35207\include\xmemory
; File C:\Program Files\Microsoft Visual Studio\2022\Community\VC\Tools\MSVC\14.44.35207\include\list
;	COMDAT ??0?$list@USCommand@CInstanceBase@@V?$allocator@USCommand@CInstanceBase@@@std@@@std@@QAE@XZ
_TEXT	SEGMENT
??0?$list@USCommand@CInstanceBase@@V?$allocator@USCommand@CInstanceBase@@@std@@@std@@QAE@XZ PROC ; std::list<CInstanceBase::SCommand,std::allocator<CInstanceBase::SCommand> >::list<CInstanceBase::SCommand,std::allocator<CInstanceBase::SCommand> >, COMDAT
; _this$ = ecx

; 812  :     list() : _Mypair(_Zero_then_variadic_args_t{}) {

  00000	56		 push	 esi
  00001	8b f1		 mov	 esi, ecx
; File C:\Program Files\Microsoft Visual Studio\2022\Community\VC\Tools\MSVC\14.44.35207\include\xmemory

; 136  :         return ::operator new(_Bytes);

  00003	6a 2c		 push	 44			; 0000002cH
; File C:\Program Files\Microsoft Visual Studio\2022\Community\VC\Tools\MSVC\14.44.35207\include\list

; 353  :     _List_val() noexcept : _Myhead(), _Mysize(0) {} // initialize data

  00005	c7 06 00 00 00
	00		 mov	 DWORD PTR [esi], 0
  0000b	c7 46 04 00 00
	00 00		 mov	 DWORD PTR [esi+4], 0
; File C:\Program Files\Microsoft Visual Studio\2022\Community\VC\Tools\MSVC\14.44.35207\include\xmemory

; 136  :         return ::operator new(_Bytes);

  00012	e8 00 00 00 00	 call	 ??2@YAPAXI@Z		; operator new
  00017	83 c4 04	 add	 esp, 4
; File C:\Program Files\Microsoft Visual Studio\2022\Community\VC\Tools\MSVC\14.44.35207\include\list

; 1852 :         _Construct_in_place(_Newhead->_Next, _Newhead);

  0001a	89 00		 mov	 DWORD PTR [eax], eax

; 1853 :         _Construct_in_place(_Newhead->_Prev, _Newhead);

  0001c	89 40 04	 mov	 DWORD PTR [eax+4], eax

; 1854 :         _Mypair._Myval2._Myhead = _Newhead;

  0001f	89 06		 mov	 DWORD PTR [esi], eax

; 813  :         _Alloc_sentinel_and_proxy();
; 814  :     }

  00021	8b c6		 mov	 eax, esi
  00023	5e		 pop	 esi
  00024	c3		 ret	 0
??0?$list@USCommand@CInstanceBase@@V?$allocator@USCommand@CInstanceBase@@@std@@@std@@QAE@XZ ENDP ; std::list<CInstanceBase::SCommand,std::allocator<CInstanceBase::SCommand> >::list<CInstanceBase::SCommand,std::allocator<CInstanceBase::SCommand> >
_TEXT	ENDS
; Function compile flags: /Ogtp
; File C:\Program Files\Microsoft Visual Studio\2022\Community\VC\Tools\MSVC\14.44.35207\include\map
; File C:\Program Files\Microsoft Visual Studio\2022\Community\VC\Tools\MSVC\14.44.35207\include\xmemory
; File C:\Program Files\Microsoft Visual Studio\2022\Community\VC\Tools\MSVC\14.44.35207\include\map
; File C:\Program Files\Microsoft Visual Studio\2022\Community\VC\Tools\MSVC\14.44.35207\include\xtree
; File C:\Program Files\Microsoft Visual Studio\2022\Community\VC\Tools\MSVC\14.44.35207\include\xmemory
; File C:\Program Files\Microsoft Visual Studio\2022\Community\VC\Tools\MSVC\14.44.35207\include\xtree
; File C:\Program Files\Microsoft Visual Studio\2022\Community\VC\Tools\MSVC\14.44.35207\include\map
;	COMDAT ??0?$map@KKU?$less@K@std@@V?$allocator@U?$pair@$$CBKK@std@@@2@@std@@QAE@XZ
_TEXT	SEGMENT
_this$ = -4						; size = 4
??0?$map@KKU?$less@K@std@@V?$allocator@U?$pair@$$CBKK@std@@@2@@std@@QAE@XZ PROC ; std::map<unsigned long,unsigned long,std::less<unsigned long>,std::allocator<std::pair<unsigned long const ,unsigned long> > >::map<unsigned long,unsigned long,std::less<unsigned long>,std::allocator<std::pair<unsigned long const ,unsigned long> > >, COMDAT
; _this$ = ecx

; 106  :     map() : _Mybase(key_compare()) {}

  00000	55		 push	 ebp
  00001	8b ec		 mov	 ebp, esp
  00003	51		 push	 ecx
  00004	56		 push	 esi
  00005	8b f1		 mov	 esi, ecx
; File C:\Program Files\Microsoft Visual Studio\2022\Community\VC\Tools\MSVC\14.44.35207\include\xmemory

; 136  :         return ::operator new(_Bytes);

  00007	6a 18		 push	 24			; 00000018H
; File C:\Program Files\Microsoft Visual Studio\2022\Community\VC\Tools\MSVC\14.44.35207\include\map

; 106  :     map() : _Mybase(key_compare()) {}

  00009	89 75 fc	 mov	 DWORD PTR _this$[ebp], esi
; File C:\Program Files\Microsoft Visual Studio\2022\Community\VC\Tools\MSVC\14.44.35207\include\xtree

; 450  :     _Tree_val() noexcept : _Myhead(), _Mysize(0) {}

  0000c	c7 06 00 00 00
	00		 mov	 DWORD PTR [esi], 0
  00012	c7 46 04 00 00
	00 00		 mov	 DWORD PTR [esi+4], 0
; File C:\Program Files\Microsoft Visual Studio\2022\Community\VC\Tools\MSVC\14.44.35207\include\xmemory

; 136  :         return ::operator new(_Bytes);

  00019	e8 00 00 00 00	 call	 ??2@YAPAXI@Z		; operator new
  0001e	83 c4 04	 add	 esp, 4
; File C:\Program Files\Microsoft Visual Studio\2022\Community\VC\Tools\MSVC\14.44.35207\include\xtree

; 346  :         _Construct_in_place(_Pnode->_Left, _Pnode);

  00021	89 00		 mov	 DWORD PTR [eax], eax

; 347  :         _Construct_in_place(_Pnode->_Parent, _Pnode);

  00023	89 40 04	 mov	 DWORD PTR [eax+4], eax

; 348  :         _Construct_in_place(_Pnode->_Right, _Pnode);

  00026	89 40 08	 mov	 DWORD PTR [eax+8], eax

; 349  :         _Pnode->_Color = _Black;

  00029	66 c7 40 0c 01
	01		 mov	 WORD PTR [eax+12], 257	; 00000101H

; 1957 :         _Scary->_Myhead = _Node::_Buyheadnode(_Getal());

  0002f	89 06		 mov	 DWORD PTR [esi], eax
; File C:\Program Files\Microsoft Visual Studio\2022\Community\VC\Tools\MSVC\14.44.35207\include\map

; 106  :     map() : _Mybase(key_compare()) {}

  00031	8b c6		 mov	 eax, esi
  00033	5e		 pop	 esi
  00034	8b e5		 mov	 esp, ebp
  00036	5d		 pop	 ebp
  00037	c3		 ret	 0
??0?$map@KKU?$less@K@std@@V?$allocator@U?$pair@$$CBKK@std@@@2@@std@@QAE@XZ ENDP ; std::map<unsigned long,unsigned long,std::less<unsigned long>,std::allocator<std::pair<unsigned long const ,unsigned long> > >::map<unsigned long,unsigned long,std::less<unsigned long>,std::allocator<std::pair<unsigned long const ,unsigned long> > >
_TEXT	ENDS
; Function compile flags: /Ogtp
; File C:\Program Files\Microsoft Visual Studio\2022\Community\VC\Tools\MSVC\14.44.35207\include\xmemory
;	COMDAT ??$?0USEffectDamage@CInstanceBase@@@?$allocator@U_Container_proxy@std@@@std@@QAE@ABV?$allocator@USEffectDamage@CInstanceBase@@@1@@Z
_TEXT	SEGMENT
___formal$dead$ = 8					; size = 4
??$?0USEffectDamage@CInstanceBase@@@?$allocator@U_Container_proxy@std@@@std@@QAE@ABV?$allocator@USEffectDamage@CInstanceBase@@@1@@Z PROC ; std::allocator<std::_Container_proxy>::allocator<std::_Container_proxy><CInstanceBase::SEffectDamage>, COMDAT
; _this$ = ecx

; 978  :     constexpr allocator(const allocator<_Other>&) noexcept {}

  00000	8b c1		 mov	 eax, ecx
  00002	c2 04 00	 ret	 4
??$?0USEffectDamage@CInstanceBase@@@?$allocator@U_Container_proxy@std@@@std@@QAE@ABV?$allocator@USEffectDamage@CInstanceBase@@@1@@Z ENDP ; std::allocator<std::_Container_proxy>::allocator<std::_Container_proxy><CInstanceBase::SEffectDamage>
_TEXT	ENDS
; Function compile flags: /Ogtp
; File C:\Program Files\Microsoft Visual Studio\2022\Community\VC\Tools\MSVC\14.44.35207\include\utility
;	COMDAT ??$exchange@PAU_Container_proxy@std@@$$T@std@@YAPAU_Container_proxy@0@AAPAU10@$$QA$$T@Z
_TEXT	SEGMENT
??$exchange@PAU_Container_proxy@std@@$$T@std@@YAPAU_Container_proxy@0@AAPAU10@$$QA$$T@Z PROC ; std::exchange<std::_Container_proxy *,std::nullptr_t>, COMDAT
; __Val$ = ecx
; __New_val$ = edx

; 772  :     // assign _New_val to _Val, return previous _Val
; 773  :     _Ty _Old_val = static_cast<_Ty&&>(_Val);

  00000	8b 01		 mov	 eax, DWORD PTR [ecx]

; 774  :     _Val         = static_cast<_Other&&>(_New_val);

  00002	8b 12		 mov	 edx, DWORD PTR [edx]
  00004	89 11		 mov	 DWORD PTR [ecx], edx

; 775  :     return _Old_val;
; 776  : }

  00006	c3		 ret	 0
??$exchange@PAU_Container_proxy@std@@$$T@std@@YAPAU_Container_proxy@0@AAPAU10@$$QA$$T@Z ENDP ; std::exchange<std::_Container_proxy *,std::nullptr_t>
_TEXT	ENDS
; Function compile flags: /Ogtp
; File C:\Program Files\Microsoft Visual Studio\2022\Community\VC\Tools\MSVC\14.44.35207\include\xmemory
;	COMDAT ??$_Delete_plain_internal@V?$allocator@U_Container_proxy@std@@@std@@@std@@YAXAAV?$allocator@U_Container_proxy@std@@@0@QAU_Container_proxy@0@@Z
_TEXT	SEGMENT
??$_Delete_plain_internal@V?$allocator@U_Container_proxy@std@@@std@@@std@@YAXAAV?$allocator@U_Container_proxy@std@@@0@QAU_Container_proxy@0@@Z PROC ; std::_Delete_plain_internal<std::allocator<std::_Container_proxy> >, COMDAT
; __Al$dead$ = ecx
; __Ptr$ = edx

; 289  :         ::operator delete(_Ptr, _Bytes);

  00000	6a 08		 push	 8
  00002	52		 push	 edx
  00003	e8 00 00 00 00	 call	 ??3@YAXPAXI@Z		; operator delete
  00008	83 c4 08	 add	 esp, 8

; 1148 :     // destroy *_Ptr in place, then deallocate _Ptr using _Al; used for internal container types the user didn't name
; 1149 :     using _Ty = typename _Alloc::value_type;
; 1150 :     _Ptr->~_Ty();
; 1151 :     _STD _Deallocate_plain(_Al, _Ptr);
; 1152 : }

  0000b	c3		 ret	 0
??$_Delete_plain_internal@V?$allocator@U_Container_proxy@std@@@std@@@std@@YAXAAV?$allocator@U_Container_proxy@std@@@0@QAU_Container_proxy@0@@Z ENDP ; std::_Delete_plain_internal<std::allocator<std::_Container_proxy> >
_TEXT	ENDS
; Function compile flags: /Ogtp
; File C:\Program Files\Microsoft Visual Studio\2022\Community\VC\Tools\MSVC\14.44.35207\include\xmemory
; File C:\Program Files\Microsoft Visual Studio\2022\Community\VC\Tools\MSVC\14.44.35207\include\deque
; File C:\Program Files\Microsoft Visual Studio\2022\Community\VC\Tools\MSVC\14.44.35207\include\xmemory
;	COMDAT ??$?0$$V@?$_Compressed_pair@V?$allocator@USEffectDamage@CInstanceBase@@@std@@V?$_Deque_val@U?$_Deque_simple_types@USEffectDamage@CInstanceBase@@@std@@@2@$00@std@@QAE@U_Zero_then_variadic_args_t@1@@Z
_TEXT	SEGMENT
___formal$ = 8						; size = 1
??$?0$$V@?$_Compressed_pair@V?$allocator@USEffectDamage@CInstanceBase@@@std@@V?$_Deque_val@U?$_Deque_simple_types@USEffectDamage@CInstanceBase@@@std@@@2@$00@std@@QAE@U_Zero_then_variadic_args_t@1@@Z PROC ; std::_Compressed_pair<std::allocator<CInstanceBase::SEffectDamage>,std::_Deque_val<std::_Deque_simple_types<CInstanceBase::SEffectDamage> >,1>::_Compressed_pair<std::allocator<CInstanceBase::SEffectDamage>,std::_Deque_val<std::_Deque_simple_types<CInstanceBase::SEffectDamage> >,1><>, COMDAT
; _this$ = ecx

; 1235 :     _Container_proxy* _Myproxy = nullptr;

  00000	c7 01 00 00 00
	00		 mov	 DWORD PTR [ecx], 0

; 1531 :         : _Ty1(), _Myval2(_STD forward<_Other2>(_Val2)...) {}

  00006	8b c1		 mov	 eax, ecx
; File C:\Program Files\Microsoft Visual Studio\2022\Community\VC\Tools\MSVC\14.44.35207\include\deque

; 556  :     _Deque_val() noexcept : _Map(), _Mapsize(0), _Myoff(0), _Mysize(0) {}

  00008	c7 41 04 00 00
	00 00		 mov	 DWORD PTR [ecx+4], 0
  0000f	c7 41 08 00 00
	00 00		 mov	 DWORD PTR [ecx+8], 0
  00016	c7 41 0c 00 00
	00 00		 mov	 DWORD PTR [ecx+12], 0
  0001d	c7 41 10 00 00
	00 00		 mov	 DWORD PTR [ecx+16], 0
; File C:\Program Files\Microsoft Visual Studio\2022\Community\VC\Tools\MSVC\14.44.35207\include\xmemory

; 1531 :         : _Ty1(), _Myval2(_STD forward<_Other2>(_Val2)...) {}

  00024	c2 04 00	 ret	 4
??$?0$$V@?$_Compressed_pair@V?$allocator@USEffectDamage@CInstanceBase@@@std@@V?$_Deque_val@U?$_Deque_simple_types@USEffectDamage@CInstanceBase@@@std@@@2@$00@std@@QAE@U_Zero_then_variadic_args_t@1@@Z ENDP ; std::_Compressed_pair<std::allocator<CInstanceBase::SEffectDamage>,std::_Deque_val<std::_Deque_simple_types<CInstanceBase::SEffectDamage> >,1>::_Compressed_pair<std::allocator<CInstanceBase::SEffectDamage>,std::_Deque_val<std::_Deque_simple_types<CInstanceBase::SEffectDamage> >,1><>
_TEXT	ENDS
; Function compile flags: /Ogtp
; File C:\Program Files\Microsoft Visual Studio\2022\Community\VC\Tools\MSVC\14.44.35207\include\xmemory
;	COMDAT ??$_Alloc_proxy@V?$allocator@U_Container_proxy@std@@@std@@@_Container_base12@std@@QAEX$$QAV?$allocator@U_Container_proxy@std@@@1@@Z
_TEXT	SEGMENT
__Al$dead$ = 8						; size = 4
??$_Alloc_proxy@V?$allocator@U_Container_proxy@std@@@std@@@_Container_base12@std@@QAEX$$QAV?$allocator@U_Container_proxy@std@@@1@@Z PROC ; std::_Container_base12::_Alloc_proxy<std::allocator<std::_Container_proxy> >, COMDAT
; _this$ = ecx

; 1219 :     _CONSTEXPR20 void _Alloc_proxy(_Alloc&& _Al) {

  00000	56		 push	 esi

; 136  :         return ::operator new(_Bytes);

  00001	6a 08		 push	 8

; 1219 :     _CONSTEXPR20 void _Alloc_proxy(_Alloc&& _Al) {

  00003	8b f1		 mov	 esi, ecx

; 136  :         return ::operator new(_Bytes);

  00005	e8 00 00 00 00	 call	 ??2@YAPAXI@Z		; operator new
  0000a	83 c4 04	 add	 esp, 4

; 1220 :         _Container_proxy* const _New_proxy = _Unfancy(_Al.allocate(1));
; 1221 :         _Construct_in_place(*_New_proxy, this);
; 1222 :         _Myproxy            = _New_proxy;

  0000d	c7 40 04 00 00
	00 00		 mov	 DWORD PTR [eax+4], 0
  00014	89 06		 mov	 DWORD PTR [esi], eax

; 1223 :         _New_proxy->_Mycont = this;

  00016	89 30		 mov	 DWORD PTR [eax], esi
  00018	5e		 pop	 esi

; 1224 :     }

  00019	c2 04 00	 ret	 4
??$_Alloc_proxy@V?$allocator@U_Container_proxy@std@@@std@@@_Container_base12@std@@QAEX$$QAV?$allocator@U_Container_proxy@std@@@1@@Z ENDP ; std::_Container_base12::_Alloc_proxy<std::allocator<std::_Container_proxy> >
_TEXT	ENDS
; Function compile flags: /Ogtp
; File C:\Program Files\Microsoft Visual Studio\2022\Community\VC\Tools\MSVC\14.44.35207\include\xhash
; File C:\Program Files\Microsoft Visual Studio\2022\Community\VC\Tools\MSVC\14.44.35207\include\unordered_map
; File C:\Program Files\Microsoft Visual Studio\2022\Community\VC\Tools\MSVC\14.44.35207\include\xmemory
; File C:\Program Files\Microsoft Visual Studio\2022\Community\VC\Tools\MSVC\14.44.35207\include\unordered_map
; File C:\Program Files\Microsoft Visual Studio\2022\Community\VC\Tools\MSVC\14.44.35207\include\list
; File C:\Program Files\Microsoft Visual Studio\2022\Community\VC\Tools\MSVC\14.44.35207\include\xmemory
; File C:\Program Files\Microsoft Visual Studio\2022\Community\VC\Tools\MSVC\14.44.35207\include\list
; File C:\Program Files\Microsoft Visual Studio\2022\Community\VC\Tools\MSVC\14.44.35207\include\xhash
; File C:\Program Files\Microsoft Visual Studio\2022\Community\VC\Tools\MSVC\14.44.35207\include\vector
; File C:\Program Files\Microsoft Visual Studio\2022\Community\VC\Tools\MSVC\14.44.35207\include\xhash
; File C:\Program Files\Microsoft Visual Studio\2022\Community\VC\Tools\MSVC\14.44.35207\include\xmemory
; File C:\Program Files\Microsoft Visual Studio\2022\Community\VC\Tools\MSVC\14.44.35207\include\xhash
; File C:\Program Files\Microsoft Visual Studio\2022\Community\VC\Tools\MSVC\14.44.35207\include\xmemory
; File C:\Program Files\Microsoft Visual Studio\2022\Community\VC\Tools\MSVC\14.44.35207\include\xhash
; File C:\Program Files\Microsoft Visual Studio\2022\Community\VC\Tools\MSVC\14.44.35207\include\xmemory
; File C:\Program Files\Microsoft Visual Studio\2022\Community\VC\Tools\MSVC\14.44.35207\include\xhash
; File C:\Program Files\Microsoft Visual Studio\2022\Community\VC\Tools\MSVC\14.44.35207\include\xmemory
; File C:\Program Files\Microsoft Visual Studio\2022\Community\VC\Tools\MSVC\14.44.35207\include\xhash
; File C:\Program Files\Microsoft Visual Studio\2022\Community\VC\Tools\MSVC\14.44.35207\include\xmemory
; File C:\Program Files\Microsoft Visual Studio\2022\Community\VC\Tools\MSVC\14.44.35207\include\xhash
; File C:\Program Files\Microsoft Visual Studio\2022\Community\VC\Tools\MSVC\14.44.35207\include\xmemory
; File C:\Program Files\Microsoft Visual Studio\2022\Community\VC\Tools\MSVC\14.44.35207\include\xhash
;	COMDAT ??0?$_Hash@V?$_Umap_traits@KMV?$_Uhash_compare@KU?$hash@K@std@@U?$equal_to@K@2@@std@@V?$allocator@U?$pair@$$CBKM@std@@@2@$0A@@std@@@std@@IAE@ABV?$_Uhash_compare@KU?$hash@K@std@@U?$equal_to@K@2@@1@ABV?$allocator@U?$pair@$$CBKM@std@@@1@@Z
_TEXT	SEGMENT
_this$ = -16						; size = 4
__$EHRec$ = -12						; size = 12
__Parg$ = 8						; size = 4
__Val$ = 8						; size = 4
__Al$dead$ = 12						; size = 4
??0?$_Hash@V?$_Umap_traits@KMV?$_Uhash_compare@KU?$hash@K@std@@U?$equal_to@K@2@@std@@V?$allocator@U?$pair@$$CBKM@std@@@2@$0A@@std@@@std@@IAE@ABV?$_Uhash_compare@KU?$hash@K@std@@U?$equal_to@K@2@@1@ABV?$allocator@U?$pair@$$CBKM@std@@@1@@Z PROC ; std::_Hash<std::_Umap_traits<unsigned long,float,std::_Uhash_compare<unsigned long,std::hash<unsigned long>,std::equal_to<unsigned long> >,std::allocator<std::pair<unsigned long const ,float> >,0> >::_Hash<std::_Umap_traits<unsigned long,float,std::_Uhash_compare<unsigned long,std::hash<unsigned long>,std::equal_to<unsigned long> >,std::allocator<std::pair<unsigned long const ,float> >,0> >, COMDAT
; _this$dead$ = ecx

; 371  :         : _Traitsobj(_Parg), _List(_Al), _Vec(_Al), _Mask(_Min_buckets - 1), _Maxidx(_Min_buckets) {

  00000	55		 push	 ebp
  00001	8b ec		 mov	 ebp, esp
  00003	6a ff		 push	 -1
  00005	68 00 00 00 00	 push	 __ehhandler$??0?$_Hash@V?$_Umap_traits@KMV?$_Uhash_compare@KU?$hash@K@std@@U?$equal_to@K@2@@std@@V?$allocator@U?$pair@$$CBKM@std@@@2@$0A@@std@@@std@@IAE@ABV?$_Uhash_compare@KU?$hash@K@std@@U?$equal_to@K@2@@1@ABV?$allocator@U?$pair@$$CBKM@std@@@1@@Z
  0000a	64 a1 00 00 00
	00		 mov	 eax, DWORD PTR fs:0
  00010	50		 push	 eax
  00011	51		 push	 ecx
  00012	56		 push	 esi
  00013	a1 00 00 00 00	 mov	 eax, DWORD PTR ___security_cookie
  00018	33 c5		 xor	 eax, ebp
  0001a	50		 push	 eax
  0001b	8d 45 f4	 lea	 eax, DWORD PTR __$EHRec$[ebp]
  0001e	64 a3 00 00 00
	00		 mov	 DWORD PTR fs:0, eax
; File C:\Program Files\Microsoft Visual Studio\2022\Community\VC\Tools\MSVC\14.44.35207\include\unordered_map

; 49   :     explicit _Umap_traits(const _Tr& _Traits) noexcept(is_nothrow_copy_constructible_v<_Tr>) : _Tr(_Traits) {}

  00024	8b 45 08	 mov	 eax, DWORD PTR __Parg$[ebp]
; File C:\Program Files\Microsoft Visual Studio\2022\Community\VC\Tools\MSVC\14.44.35207\include\xmemory

; 136  :         return ::operator new(_Bytes);

  00027	6a 10		 push	 16			; 00000010H
  00029	c7 45 f0 00 00
	00 00		 mov	 DWORD PTR _this$[ebp], OFFSET ?setAllowedHair@?1??SetHair@CInstanceBase@@QAEXK@Z@4V?$unordered_map@KMU?$hash@K@std@@U?$equal_to@K@2@V?$allocator@U?$pair@$$CBKM@std@@@2@@std@@A
; File C:\Program Files\Microsoft Visual Studio\2022\Community\VC\Tools\MSVC\14.44.35207\include\unordered_map

; 49   :     explicit _Umap_traits(const _Tr& _Traits) noexcept(is_nothrow_copy_constructible_v<_Tr>) : _Tr(_Traits) {}

  00030	8b 00		 mov	 eax, DWORD PTR [eax]
  00032	a3 00 00 00 00	 mov	 DWORD PTR ?setAllowedHair@?1??SetHair@CInstanceBase@@QAEXK@Z@4V?$unordered_map@KMU?$hash@K@std@@U?$equal_to@K@2@V?$allocator@U?$pair@$$CBKM@std@@@2@@std@@A, eax
; File C:\Program Files\Microsoft Visual Studio\2022\Community\VC\Tools\MSVC\14.44.35207\include\list

; 353  :     _List_val() noexcept : _Myhead(), _Mysize(0) {} // initialize data

  00037	c7 05 04 00 00
	00 00 00 00 00	 mov	 DWORD PTR ?setAllowedHair@?1??SetHair@CInstanceBase@@QAEXK@Z@4V?$unordered_map@KMU?$hash@K@std@@U?$equal_to@K@2@V?$allocator@U?$pair@$$CBKM@std@@@2@@std@@A+4, 0
  00041	c7 05 08 00 00
	00 00 00 00 00	 mov	 DWORD PTR ?setAllowedHair@?1??SetHair@CInstanceBase@@QAEXK@Z@4V?$unordered_map@KMU?$hash@K@std@@U?$equal_to@K@2@V?$allocator@U?$pair@$$CBKM@std@@@2@@std@@A+8, 0
; File C:\Program Files\Microsoft Visual Studio\2022\Community\VC\Tools\MSVC\14.44.35207\include\xmemory

; 136  :         return ::operator new(_Bytes);

  0004b	e8 00 00 00 00	 call	 ??2@YAPAXI@Z		; operator new
  00050	83 c4 04	 add	 esp, 4
; File C:\Program Files\Microsoft Visual Studio\2022\Community\VC\Tools\MSVC\14.44.35207\include\list

; 1852 :         _Construct_in_place(_Newhead->_Next, _Newhead);

  00053	89 00		 mov	 DWORD PTR [eax], eax

; 1853 :         _Construct_in_place(_Newhead->_Prev, _Newhead);

  00055	89 40 04	 mov	 DWORD PTR [eax+4], eax

; 1854 :         _Mypair._Myval2._Myhead = _Newhead;

  00058	a3 04 00 00 00	 mov	 DWORD PTR ?setAllowedHair@?1??SetHair@CInstanceBase@@QAEXK@Z@4V?$unordered_map@KMU?$hash@K@std@@U?$equal_to@K@2@V?$allocator@U?$pair@$$CBKM@std@@@2@@std@@A+4, eax
; File C:\Program Files\Microsoft Visual Studio\2022\Community\VC\Tools\MSVC\14.44.35207\include\xhash

; 371  :         : _Traitsobj(_Parg), _List(_Al), _Vec(_Al), _Mask(_Min_buckets - 1), _Maxidx(_Min_buckets) {

  0005d	c7 45 fc 00 00
	00 00		 mov	 DWORD PTR __$EHRec$[ebp+8], 0
; File C:\Program Files\Microsoft Visual Studio\2022\Community\VC\Tools\MSVC\14.44.35207\include\vector

; 400  :     _CONSTEXPR20 _Vector_val() noexcept : _Myfirst(), _Mylast(), _Myend() {}

  00064	c7 05 0c 00 00
	00 00 00 00 00	 mov	 DWORD PTR ?setAllowedHair@?1??SetHair@CInstanceBase@@QAEXK@Z@4V?$unordered_map@KMU?$hash@K@std@@U?$equal_to@K@2@V?$allocator@U?$pair@$$CBKM@std@@@2@@std@@A+12, 0
  0006e	c7 05 10 00 00
	00 00 00 00 00	 mov	 DWORD PTR ?setAllowedHair@?1??SetHair@CInstanceBase@@QAEXK@Z@4V?$unordered_map@KMU?$hash@K@std@@U?$equal_to@K@2@V?$allocator@U?$pair@$$CBKM@std@@@2@@std@@A+16, 0
  00078	c7 05 14 00 00
	00 00 00 00 00	 mov	 DWORD PTR ?setAllowedHair@?1??SetHair@CInstanceBase@@QAEXK@Z@4V?$unordered_map@KMU?$hash@K@std@@U?$equal_to@K@2@V?$allocator@U?$pair@$$CBKM@std@@@2@@std@@A+20, 0
; File C:\Program Files\Microsoft Visual Studio\2022\Community\VC\Tools\MSVC\14.44.35207\include\xhash

; 371  :         : _Traitsobj(_Parg), _List(_Al), _Vec(_Al), _Mask(_Min_buckets - 1), _Maxidx(_Min_buckets) {

  00082	c6 45 fc 01	 mov	 BYTE PTR __$EHRec$[ebp+8], 1
; File C:\Program Files\Microsoft Visual Studio\2022\Community\VC\Tools\MSVC\14.44.35207\include\xmemory

; 136  :         return ::operator new(_Bytes);

  00086	6a 40		 push	 64			; 00000040H
; File C:\Program Files\Microsoft Visual Studio\2022\Community\VC\Tools\MSVC\14.44.35207\include\xhash

; 371  :         : _Traitsobj(_Parg), _List(_Al), _Vec(_Al), _Mask(_Min_buckets - 1), _Maxidx(_Min_buckets) {

  00088	c7 05 18 00 00
	00 07 00 00 00	 mov	 DWORD PTR ?setAllowedHair@?1??SetHair@CInstanceBase@@QAEXK@Z@4V?$unordered_map@KMU?$hash@K@std@@U?$equal_to@K@2@V?$allocator@U?$pair@$$CBKM@std@@@2@@std@@A+24, 7
  00092	c7 05 1c 00 00
	00 08 00 00 00	 mov	 DWORD PTR ?setAllowedHair@?1??SetHair@CInstanceBase@@QAEXK@Z@4V?$unordered_map@KMU?$hash@K@std@@U?$equal_to@K@2@V?$allocator@U?$pair@$$CBKM@std@@@2@@std@@A+28, 8

; 372  :         // construct empty hash table
; 373  :         _Max_bucket_size() = _Bucket_size;

  0009c	c7 05 00 00 00
	00 00 00 80 3f	 mov	 DWORD PTR ?setAllowedHair@?1??SetHair@CInstanceBase@@QAEXK@Z@4V?$unordered_map@KMU?$hash@K@std@@U?$equal_to@K@2@V?$allocator@U?$pair@$$CBKM@std@@@2@@std@@A, 1065353216 ; 3f800000H

; 374  :         _Vec._Assign_grow(_Min_buckets * 2, _List._Unchecked_end());

  000a6	89 45 08	 mov	 DWORD PTR __Val$[ebp], eax
; File C:\Program Files\Microsoft Visual Studio\2022\Community\VC\Tools\MSVC\14.44.35207\include\xmemory

; 136  :         return ::operator new(_Bytes);

  000a9	e8 00 00 00 00	 call	 ??2@YAPAXI@Z		; operator new
; File C:\Program Files\Microsoft Visual Studio\2022\Community\VC\Tools\MSVC\14.44.35207\include\xhash

; 279  :         return static_cast<size_type>(_Mypair._Myval2._Myend - _Mypair._Myval2._Myfirst);

  000ae	8b 15 14 00 00
	00		 mov	 edx, DWORD PTR ?setAllowedHair@?1??SetHair@CInstanceBase@@QAEXK@Z@4V?$unordered_map@KMU?$hash@K@std@@U?$equal_to@K@2@V?$allocator@U?$pair@$$CBKM@std@@@2@@std@@A+20
; File C:\Program Files\Microsoft Visual Studio\2022\Community\VC\Tools\MSVC\14.44.35207\include\xmemory

; 136  :         return ::operator new(_Bytes);

  000b4	83 c4 04	 add	 esp, 4
; File C:\Program Files\Microsoft Visual Studio\2022\Community\VC\Tools\MSVC\14.44.35207\include\xhash

; 279  :         return static_cast<size_type>(_Mypair._Myval2._Myend - _Mypair._Myval2._Myfirst);

  000b7	8b 0d 0c 00 00
	00		 mov	 ecx, DWORD PTR ?setAllowedHair@?1??SetHair@CInstanceBase@@QAEXK@Z@4V?$unordered_map@KMU?$hash@K@std@@U?$equal_to@K@2@V?$allocator@U?$pair@$$CBKM@std@@@2@@std@@A+12
; File C:\Program Files\Microsoft Visual Studio\2022\Community\VC\Tools\MSVC\14.44.35207\include\xmemory

; 256  :         return _Traits::_Allocate(_Bytes);

  000bd	8b f0		 mov	 esi, eax
; File C:\Program Files\Microsoft Visual Studio\2022\Community\VC\Tools\MSVC\14.44.35207\include\xhash

; 279  :         return static_cast<size_type>(_Mypair._Myval2._Myend - _Mypair._Myval2._Myfirst);

  000bf	2b d1		 sub	 edx, ecx
  000c1	c1 fa 02	 sar	 edx, 2

; 291  :             if (_Oldcapacity != 0) {

  000c4	85 d2		 test	 edx, edx
  000c6	74 27		 je	 SHORT $LN84@Hash
; File C:\Program Files\Microsoft Visual Studio\2022\Community\VC\Tools\MSVC\14.44.35207\include\xmemory

; 985  :         _STD _Deallocate<_New_alignof<_Ty>>(_Ptr, sizeof(_Ty) * _Count);

  000c8	c1 e2 02	 shl	 edx, 2
  000cb	8b c1		 mov	 eax, ecx

; 284  :         if (_Bytes >= _Big_allocation_threshold) {

  000cd	81 fa 00 10 00
	00		 cmp	 edx, 4096		; 00001000H
  000d3	72 10		 jb	 SHORT $LN92@Hash

; 205  :     const uintptr_t _Ptr_container   = _Ptr_user[-1];

  000d5	8b 48 fc	 mov	 ecx, DWORD PTR [eax-4]
  000d8	83 c2 23	 add	 edx, 35			; 00000023H
  000db	2b c1		 sub	 eax, ecx

; 219  :     _STL_VERIFY(_Back_shift >= _Min_back_shift && _Back_shift <= _Non_user_size, "invalid argument");

  000dd	83 c0 fc	 add	 eax, -4			; fffffffcH
  000e0	83 f8 1f	 cmp	 eax, 31			; 0000001fH
  000e3	77 44		 ja	 SHORT $LN98@Hash
$LN92@Hash:

; 289  :         ::operator delete(_Ptr, _Bytes);

  000e5	52		 push	 edx
  000e6	51		 push	 ecx
  000e7	e8 00 00 00 00	 call	 ??3@YAXPAXI@Z		; operator delete
  000ec	83 c4 08	 add	 esp, 8
$LN84@Hash:
; File C:\Program Files\Microsoft Visual Studio\2022\Community\VC\Tools\MSVC\14.44.35207\include\xhash

; 297  :             const auto _Newend       = _Newvec + _Cells;

  000ef	8d 56 40	 lea	 edx, DWORD PTR [esi+64]
  000f2	89 35 0c 00 00
	00		 mov	 DWORD PTR ?setAllowedHair@?1??SetHair@CInstanceBase@@QAEXK@Z@4V?$unordered_map@KMU?$hash@K@std@@U?$equal_to@K@2@V?$allocator@U?$pair@$$CBKM@std@@@2@@std@@A+12, esi

; 298  :             _Mypair._Myval2._Mylast  = _Newend;
; 299  :             _Mypair._Myval2._Myend   = _Newend;
; 300  :             _STD uninitialized_fill(_Newvec, _Newend, _Val);

  000f8	8d 45 08	 lea	 eax, DWORD PTR __Val$[ebp]
  000fb	89 15 10 00 00
	00		 mov	 DWORD PTR ?setAllowedHair@?1??SetHair@CInstanceBase@@QAEXK@Z@4V?$unordered_map@KMU?$hash@K@std@@U?$equal_to@K@2@V?$allocator@U?$pair@$$CBKM@std@@@2@@std@@A+16, edx
  00101	50		 push	 eax
  00102	8b ce		 mov	 ecx, esi
  00104	89 15 14 00 00
	00		 mov	 DWORD PTR ?setAllowedHair@?1??SetHair@CInstanceBase@@QAEXK@Z@4V?$unordered_map@KMU?$hash@K@std@@U?$equal_to@K@2@V?$allocator@U?$pair@$$CBKM@std@@@2@@std@@A+20, edx
  0010a	e8 00 00 00 00	 call	 ??$uninitialized_fill@PAV?$_List_unchecked_iterator@V?$_List_val@U?$_List_simple_types@U?$pair@$$CBKM@std@@@std@@@std@@@std@@V12@@std@@YAXQAV?$_List_unchecked_iterator@V?$_List_val@U?$_List_simple_types@U?$pair@$$CBKM@std@@@std@@@std@@@0@0ABV10@@Z ; std::uninitialized_fill<std::_List_unchecked_iterator<std::_List_val<std::_List_simple_types<std::pair<unsigned long const ,float> > > > *,std::_List_unchecked_iterator<std::_List_val<std::_List_simple_types<std::pair<unsigned long const ,float> > > > >
  0010f	83 c4 04	 add	 esp, 4

; 378  :     }

  00112	b8 00 00 00 00	 mov	 eax, OFFSET ?setAllowedHair@?1??SetHair@CInstanceBase@@QAEXK@Z@4V?$unordered_map@KMU?$hash@K@std@@U?$equal_to@K@2@V?$allocator@U?$pair@$$CBKM@std@@@2@@std@@A
  00117	8b 4d f4	 mov	 ecx, DWORD PTR __$EHRec$[ebp]
  0011a	64 89 0d 00 00
	00 00		 mov	 DWORD PTR fs:0, ecx
  00121	59		 pop	 ecx
  00122	5e		 pop	 esi
  00123	8b e5		 mov	 esp, ebp
  00125	5d		 pop	 ebp
  00126	c2 08 00	 ret	 8
$LN98@Hash:
; File C:\Program Files\Microsoft Visual Studio\2022\Community\VC\Tools\MSVC\14.44.35207\include\xmemory

; 219  :     _STL_VERIFY(_Back_shift >= _Min_back_shift && _Back_shift <= _Non_user_size, "invalid argument");

  00129	6a 00		 push	 0
  0012b	6a 00		 push	 0
  0012d	6a 00		 push	 0
  0012f	6a 00		 push	 0
  00131	6a 00		 push	 0
  00133	e8 00 00 00 00	 call	 __invoke_watson
$LN96@Hash:
  00138	cc		 int	 3
_TEXT	ENDS
;	COMDAT text$x
text$x	SEGMENT
__unwindfunclet$??0?$_Hash@V?$_Umap_traits@KMV?$_Uhash_compare@KU?$hash@K@std@@U?$equal_to@K@2@@std@@V?$allocator@U?$pair@$$CBKM@std@@@2@$0A@@std@@@std@@IAE@ABV?$_Uhash_compare@KU?$hash@K@std@@U?$equal_to@K@2@@1@ABV?$allocator@U?$pair@$$CBKM@std@@@1@@Z$0:
  00000	8b 4d f0	 mov	 ecx, DWORD PTR _this$[ebp]
  00003	83 c1 04	 add	 ecx, 4
  00006	e9 00 00 00 00	 jmp	 ??1?$list@U?$pair@$$CBKM@std@@V?$allocator@U?$pair@$$CBKM@std@@@2@@std@@QAE@XZ ; std::list<std::pair<unsigned long const ,float>,std::allocator<std::pair<unsigned long const ,float> > >::~list<std::pair<unsigned long const ,float>,std::allocator<std::pair<unsigned long const ,float> > >
__unwindfunclet$??0?$_Hash@V?$_Umap_traits@KMV?$_Uhash_compare@KU?$hash@K@std@@U?$equal_to@K@2@@std@@V?$allocator@U?$pair@$$CBKM@std@@@2@$0A@@std@@@std@@IAE@ABV?$_Uhash_compare@KU?$hash@K@std@@U?$equal_to@K@2@@1@ABV?$allocator@U?$pair@$$CBKM@std@@@1@@Z$1:
  0000b	8b 4d f0	 mov	 ecx, DWORD PTR _this$[ebp]
  0000e	83 c1 0c	 add	 ecx, 12			; 0000000cH
  00011	e9 00 00 00 00	 jmp	 ??1?$_Hash_vec@V?$allocator@V?$_List_unchecked_iterator@V?$_List_val@U?$_List_simple_types@U?$pair@$$CBKM@std@@@std@@@std@@@std@@@std@@@std@@QAE@XZ ; std::_Hash_vec<std::allocator<std::_List_unchecked_iterator<std::_List_val<std::_List_simple_types<std::pair<unsigned long const ,float> > > > > >::~_Hash_vec<std::allocator<std::_List_unchecked_iterator<std::_List_val<std::_List_simple_types<std::pair<unsigned long const ,float> > > > > >
  00016	cc		 int	 3
  00017	cc		 int	 3
  00018	cc		 int	 3
  00019	cc		 int	 3
  0001a	cc		 int	 3
__ehhandler$??0?$_Hash@V?$_Umap_traits@KMV?$_Uhash_compare@KU?$hash@K@std@@U?$equal_to@K@2@@std@@V?$allocator@U?$pair@$$CBKM@std@@@2@$0A@@std@@@std@@IAE@ABV?$_Uhash_compare@KU?$hash@K@std@@U?$equal_to@K@2@@1@ABV?$allocator@U?$pair@$$CBKM@std@@@1@@Z:
  0001b	90		 npad	 1
  0001c	90		 npad	 1
  0001d	8b 54 24 08	 mov	 edx, DWORD PTR [esp+8]
  00021	8d 42 0c	 lea	 eax, DWORD PTR [edx+12]
  00024	8b 4a f4	 mov	 ecx, DWORD PTR [edx-12]
  00027	33 c8		 xor	 ecx, eax
  00029	e8 00 00 00 00	 call	 @__security_check_cookie@4
  0002e	b8 00 00 00 00	 mov	 eax, OFFSET __ehfuncinfo$??0?$_Hash@V?$_Umap_traits@KMV?$_Uhash_compare@KU?$hash@K@std@@U?$equal_to@K@2@@std@@V?$allocator@U?$pair@$$CBKM@std@@@2@$0A@@std@@@std@@IAE@ABV?$_Uhash_compare@KU?$hash@K@std@@U?$equal_to@K@2@@1@ABV?$allocator@U?$pair@$$CBKM@std@@@1@@Z
  00033	e9 00 00 00 00	 jmp	 ___CxxFrameHandler3
text$x	ENDS
??0?$_Hash@V?$_Umap_traits@KMV?$_Uhash_compare@KU?$hash@K@std@@U?$equal_to@K@2@@std@@V?$allocator@U?$pair@$$CBKM@std@@@2@$0A@@std@@@std@@IAE@ABV?$_Uhash_compare@KU?$hash@K@std@@U?$equal_to@K@2@@1@ABV?$allocator@U?$pair@$$CBKM@std@@@1@@Z ENDP ; std::_Hash<std::_Umap_traits<unsigned long,float,std::_Uhash_compare<unsigned long,std::hash<unsigned long>,std::equal_to<unsigned long> >,std::allocator<std::pair<unsigned long const ,float> >,0> >::_Hash<std::_Umap_traits<unsigned long,float,std::_Uhash_compare<unsigned long,std::hash<unsigned long>,std::equal_to<unsigned long> >,std::allocator<std::pair<unsigned long const ,float> >,0> >
; Function compile flags: /Ogtp
; File C:\Program Files\Microsoft Visual Studio\2022\Community\VC\Tools\MSVC\14.44.35207\include\deque
;	COMDAT ?_Get_data@?$deque@USEffectDamage@CInstanceBase@@V?$allocator@USEffectDamage@CInstanceBase@@@std@@@std@@AAEAAV?$_Deque_val@U?$_Deque_simple_types@USEffectDamage@CInstanceBase@@@std@@@2@XZ
_TEXT	SEGMENT
?_Get_data@?$deque@USEffectDamage@CInstanceBase@@V?$allocator@USEffectDamage@CInstanceBase@@@std@@@std@@AAEAAV?$_Deque_val@U?$_Deque_simple_types@USEffectDamage@CInstanceBase@@@std@@@2@XZ PROC ; std::deque<CInstanceBase::SEffectDamage,std::allocator<CInstanceBase::SEffectDamage> >::_Get_data, COMDAT
; _this$ = ecx

; 1722 :         return _Mypair._Myval2;

  00000	8b c1		 mov	 eax, ecx

; 1723 :     }

  00002	c3		 ret	 0
?_Get_data@?$deque@USEffectDamage@CInstanceBase@@V?$allocator@USEffectDamage@CInstanceBase@@@std@@@std@@AAEAAV?$_Deque_val@U?$_Deque_simple_types@USEffectDamage@CInstanceBase@@@std@@@2@XZ ENDP ; std::deque<CInstanceBase::SEffectDamage,std::allocator<CInstanceBase::SEffectDamage> >::_Get_data
_TEXT	ENDS
; Function compile flags: /Ogtp
; File C:\Program Files\Microsoft Visual Studio\2022\Community\VC\Tools\MSVC\14.44.35207\include\deque
;	COMDAT ?_Getal@?$deque@USEffectDamage@CInstanceBase@@V?$allocator@USEffectDamage@CInstanceBase@@@std@@@std@@AAEAAV?$allocator@USEffectDamage@CInstanceBase@@@2@XZ
_TEXT	SEGMENT
?_Getal@?$deque@USEffectDamage@CInstanceBase@@V?$allocator@USEffectDamage@CInstanceBase@@@std@@@std@@AAEAAV?$allocator@USEffectDamage@CInstanceBase@@@2@XZ PROC ; std::deque<CInstanceBase::SEffectDamage,std::allocator<CInstanceBase::SEffectDamage> >::_Getal, COMDAT
; _this$ = ecx

; 1714 :         return _Mypair._Get_first();

  00000	8b c1		 mov	 eax, ecx

; 1715 :     }

  00002	c3		 ret	 0
?_Getal@?$deque@USEffectDamage@CInstanceBase@@V?$allocator@USEffectDamage@CInstanceBase@@@std@@@std@@AAEAAV?$allocator@USEffectDamage@CInstanceBase@@@2@XZ ENDP ; std::deque<CInstanceBase::SEffectDamage,std::allocator<CInstanceBase::SEffectDamage> >::_Getal
_TEXT	ENDS
; Function compile flags: /Ogtp
; File C:\Program Files\Microsoft Visual Studio\2022\Community\VC\Tools\MSVC\14.44.35207\include\deque
; File C:\Program Files\Microsoft Visual Studio\2022\Community\VC\Tools\MSVC\14.44.35207\include\xmemory
; File C:\Program Files\Microsoft Visual Studio\2022\Community\VC\Tools\MSVC\14.44.35207\include\deque
; File C:\Program Files\Microsoft Visual Studio\2022\Community\VC\Tools\MSVC\14.44.35207\include\xmemory
; File C:\Program Files\Microsoft Visual Studio\2022\Community\VC\Tools\MSVC\14.44.35207\include\deque
; File C:\Program Files\Microsoft Visual Studio\2022\Community\VC\Tools\MSVC\14.44.35207\include\xmemory
; File C:\Program Files\Microsoft Visual Studio\2022\Community\VC\Tools\MSVC\14.44.35207\include\deque
;	COMDAT ?_Tidy@?$deque@USEffectDamage@CInstanceBase@@V?$allocator@USEffectDamage@CInstanceBase@@@std@@@std@@AAEXXZ
_TEXT	SEGMENT
?_Tidy@?$deque@USEffectDamage@CInstanceBase@@V?$allocator@USEffectDamage@CInstanceBase@@@std@@@std@@AAEXXZ PROC ; std::deque<CInstanceBase::SEffectDamage,std::allocator<CInstanceBase::SEffectDamage> >::_Tidy, COMDAT
; _this$ = ecx

; 1670 :     void _Tidy() noexcept { // free all storage

  00000	57		 push	 edi
  00001	8b f9		 mov	 edi, ecx

; 971  :         return _Mysize() == 0;

  00003	8b 4f 10	 mov	 ecx, DWORD PTR [edi+16]
  00006	85 c9		 test	 ecx, ecx

; 1671 :         _Orphan_all();
; 1672 : 
; 1673 :         while (!empty()) {

  00008	74 15		 je	 SHORT $LN67@Tidy
  0000a	66 0f 1f 44 00
	00		 npad	 6
$LL2@Tidy:

; 1513 :         if (--_Mysize() == 0) {

  00010	8d 41 ff	 lea	 eax, DWORD PTR [ecx-1]
  00013	89 47 10	 mov	 DWORD PTR [edi+16], eax
  00016	8b c8		 mov	 ecx, eax
  00018	85 c0		 test	 eax, eax
  0001a	75 f4		 jne	 SHORT $LL2@Tidy

; 1514 :             _Myoff() = 0;

  0001c	89 47 0c	 mov	 DWORD PTR [edi+12], eax
$LN67@Tidy:

; 1674 :             pop_back();
; 1675 :         }
; 1676 : 
; 1677 :         if (_Map() != nullptr) {

  0001f	83 7f 04 00	 cmp	 DWORD PTR [edi+4], 0
  00023	74 61		 je	 SHORT $LN25@Tidy
  00025	56		 push	 esi

; 1654 :         for (auto _Block = _Map_distance(); _Block > 0;) { // free storage for a block and destroy pointer

  00026	8b 77 08	 mov	 esi, DWORD PTR [edi+8]
  00029	85 f6		 test	 esi, esi
  0002b	7e 1d		 jle	 SHORT $LN64@Tidy
  0002d	0f 1f 00	 npad	 3
$LL23@Tidy:

; 1655 :             --_Block;
; 1656 :             auto& _Block_ptr = _Map()[_Block];
; 1657 :             if (_Block_ptr) { // free block

  00030	8b 47 04	 mov	 eax, DWORD PTR [edi+4]
  00033	4e		 dec	 esi
  00034	8b 04 b0	 mov	 eax, DWORD PTR [eax+esi*4]
  00037	85 c0		 test	 eax, eax
  00039	74 0b		 je	 SHORT $LN21@Tidy
; File C:\Program Files\Microsoft Visual Studio\2022\Community\VC\Tools\MSVC\14.44.35207\include\xmemory

; 289  :         ::operator delete(_Ptr, _Bytes);

  0003b	6a 18		 push	 24			; 00000018H
  0003d	50		 push	 eax
  0003e	e8 00 00 00 00	 call	 ??3@YAXPAXI@Z		; operator delete
  00043	83 c4 08	 add	 esp, 8
$LN21@Tidy:
; File C:\Program Files\Microsoft Visual Studio\2022\Community\VC\Tools\MSVC\14.44.35207\include\deque

; 1654 :         for (auto _Block = _Map_distance(); _Block > 0;) { // free storage for a block and destroy pointer

  00046	85 f6		 test	 esi, esi
  00048	7f e6		 jg	 SHORT $LL23@Tidy
$LN64@Tidy:
; File C:\Program Files\Microsoft Visual Studio\2022\Community\VC\Tools\MSVC\14.44.35207\include\xmemory

; 985  :         _STD _Deallocate<_New_alignof<_Ty>>(_Ptr, sizeof(_Ty) * _Count);

  0004a	8b 4f 08	 mov	 ecx, DWORD PTR [edi+8]
  0004d	8b 47 04	 mov	 eax, DWORD PTR [edi+4]
  00050	c1 e1 02	 shl	 ecx, 2
  00053	5e		 pop	 esi

; 284  :         if (_Bytes >= _Big_allocation_threshold) {

  00054	81 f9 00 10 00
	00		 cmp	 ecx, 4096		; 00001000H
  0005a	72 12		 jb	 SHORT $LN53@Tidy

; 205  :     const uintptr_t _Ptr_container   = _Ptr_user[-1];

  0005c	8b 50 fc	 mov	 edx, DWORD PTR [eax-4]
  0005f	83 c1 23	 add	 ecx, 35			; 00000023H

; 206  : 
; 207  :     // If the following asserts, it likely means that we are performing
; 208  :     // an aligned delete on memory coming from an unaligned allocation.
; 209  :     _STL_ASSERT(_Ptr_user[-2] == _Big_allocation_sentinel, "invalid argument");
; 210  : 
; 211  :     // Extra paranoia on aligned allocation/deallocation; ensure _Ptr_container is
; 212  :     // in range [_Min_back_shift, _Non_user_size]
; 213  : #ifdef _DEBUG
; 214  :     constexpr uintptr_t _Min_back_shift = 2 * sizeof(void*);
; 215  : #else // ^^^ defined(_DEBUG) / !defined(_DEBUG) vvv
; 216  :     constexpr uintptr_t _Min_back_shift = sizeof(void*);
; 217  : #endif // ^^^ !defined(_DEBUG) ^^^
; 218  :     const uintptr_t _Back_shift = reinterpret_cast<uintptr_t>(_Ptr) - _Ptr_container;

  00062	2b c2		 sub	 eax, edx

; 219  :     _STL_VERIFY(_Back_shift >= _Min_back_shift && _Back_shift <= _Non_user_size, "invalid argument");

  00064	83 c0 fc	 add	 eax, -4			; fffffffcH
  00067	83 f8 1f	 cmp	 eax, 31			; 0000001fH
  0006a	77 1c		 ja	 SHORT $LN52@Tidy

; 220  :     _Ptr = reinterpret_cast<void*>(_Ptr_container);

  0006c	8b c2		 mov	 eax, edx
$LN53@Tidy:

; 289  :         ::operator delete(_Ptr, _Bytes);

  0006e	51		 push	 ecx
  0006f	50		 push	 eax
  00070	e8 00 00 00 00	 call	 ??3@YAXPAXI@Z		; operator delete
  00075	83 c4 08	 add	 esp, 8
; File C:\Program Files\Microsoft Visual Studio\2022\Community\VC\Tools\MSVC\14.44.35207\include\deque

; 1666 :         _Map()     = nullptr;

  00078	c7 47 04 00 00
	00 00		 mov	 DWORD PTR [edi+4], 0

; 1667 :         _Mapsize() = 0;

  0007f	c7 47 08 00 00
	00 00		 mov	 DWORD PTR [edi+8], 0
$LN25@Tidy:
  00086	5f		 pop	 edi

; 1682 :     }

  00087	c3		 ret	 0
$LN52@Tidy:
; File C:\Program Files\Microsoft Visual Studio\2022\Community\VC\Tools\MSVC\14.44.35207\include\xmemory

; 219  :     _STL_VERIFY(_Back_shift >= _Min_back_shift && _Back_shift <= _Non_user_size, "invalid argument");

  00088	6a 00		 push	 0
  0008a	6a 00		 push	 0
  0008c	6a 00		 push	 0
  0008e	6a 00		 push	 0
  00090	6a 00		 push	 0
  00092	e8 00 00 00 00	 call	 __invoke_watson
$LN76@Tidy:
  00097	cc		 int	 3
?_Tidy@?$deque@USEffectDamage@CInstanceBase@@V?$allocator@USEffectDamage@CInstanceBase@@@std@@@std@@AAEXXZ ENDP ; std::deque<CInstanceBase::SEffectDamage,std::allocator<CInstanceBase::SEffectDamage> >::_Tidy
_TEXT	ENDS
; Function compile flags: /Ogtp
; File C:\Program Files\Microsoft Visual Studio\2022\Community\VC\Tools\MSVC\14.44.35207\include\list
; File C:\Program Files\Microsoft Visual Studio\2022\Community\VC\Tools\MSVC\14.44.35207\include\xmemory
; File C:\Program Files\Microsoft Visual Studio\2022\Community\VC\Tools\MSVC\14.44.35207\include\list
; File C:\Program Files\Microsoft Visual Studio\2022\Community\VC\Tools\MSVC\14.44.35207\include\xmemory
; File C:\Program Files\Microsoft Visual Studio\2022\Community\VC\Tools\MSVC\14.44.35207\include\list
;	COMDAT ?_Alloc_sentinel_and_proxy@?$list@USCommand@CInstanceBase@@V?$allocator@USCommand@CInstanceBase@@@std@@@std@@AAEXXZ
_TEXT	SEGMENT
?_Alloc_sentinel_and_proxy@?$list@USCommand@CInstanceBase@@V?$allocator@USCommand@CInstanceBase@@@std@@@std@@AAEXXZ PROC ; std::list<CInstanceBase::SCommand,std::allocator<CInstanceBase::SCommand> >::_Alloc_sentinel_and_proxy, COMDAT
; _this$ = ecx

; 1847 :     void _Alloc_sentinel_and_proxy() {

  00000	56		 push	 esi
; File C:\Program Files\Microsoft Visual Studio\2022\Community\VC\Tools\MSVC\14.44.35207\include\xmemory

; 136  :         return ::operator new(_Bytes);

  00001	6a 2c		 push	 44			; 0000002cH
; File C:\Program Files\Microsoft Visual Studio\2022\Community\VC\Tools\MSVC\14.44.35207\include\list

; 1847 :     void _Alloc_sentinel_and_proxy() {

  00003	8b f1		 mov	 esi, ecx
; File C:\Program Files\Microsoft Visual Studio\2022\Community\VC\Tools\MSVC\14.44.35207\include\xmemory

; 136  :         return ::operator new(_Bytes);

  00005	e8 00 00 00 00	 call	 ??2@YAPAXI@Z		; operator new
  0000a	83 c4 04	 add	 esp, 4
; File C:\Program Files\Microsoft Visual Studio\2022\Community\VC\Tools\MSVC\14.44.35207\include\list

; 1852 :         _Construct_in_place(_Newhead->_Next, _Newhead);

  0000d	89 00		 mov	 DWORD PTR [eax], eax

; 1853 :         _Construct_in_place(_Newhead->_Prev, _Newhead);

  0000f	89 40 04	 mov	 DWORD PTR [eax+4], eax

; 1854 :         _Mypair._Myval2._Myhead = _Newhead;

  00012	89 06		 mov	 DWORD PTR [esi], eax
  00014	5e		 pop	 esi

; 1855 :         _Proxy._Release();
; 1856 :     }

  00015	c3		 ret	 0
?_Alloc_sentinel_and_proxy@?$list@USCommand@CInstanceBase@@V?$allocator@USCommand@CInstanceBase@@@std@@@std@@AAEXXZ ENDP ; std::list<CInstanceBase::SCommand,std::allocator<CInstanceBase::SCommand> >::_Alloc_sentinel_and_proxy
_TEXT	ENDS
; Function compile flags: /Ogtp
; File C:\Program Files\Microsoft Visual Studio\2022\Community\VC\Tools\MSVC\14.44.35207\include\xtree
; File C:\Program Files\Microsoft Visual Studio\2022\Community\VC\Tools\MSVC\14.44.35207\include\xmemory
; File C:\Program Files\Microsoft Visual Studio\2022\Community\VC\Tools\MSVC\14.44.35207\include\xtree
; File C:\Program Files\Microsoft Visual Studio\2022\Community\VC\Tools\MSVC\14.44.35207\include\xmemory
; File C:\Program Files\Microsoft Visual Studio\2022\Community\VC\Tools\MSVC\14.44.35207\include\xtree
;	COMDAT ??0?$_Tree@V?$_Tmap_traits@KKU?$less@K@std@@V?$allocator@U?$pair@$$CBKK@std@@@2@$0A@@std@@@std@@QAE@ABU?$less@K@1@@Z
_TEXT	SEGMENT
__Parg$dead$ = 8					; size = 4
??0?$_Tree@V?$_Tmap_traits@KKU?$less@K@std@@V?$allocator@U?$pair@$$CBKK@std@@@2@$0A@@std@@@std@@QAE@ABU?$less@K@1@@Z PROC ; std::_Tree<std::_Tmap_traits<unsigned long,unsigned long,std::less<unsigned long>,std::allocator<std::pair<unsigned long const ,unsigned long> >,0> >::_Tree<std::_Tmap_traits<unsigned long,unsigned long,std::less<unsigned long>,std::allocator<std::pair<unsigned long const ,unsigned long> >,0> >, COMDAT
; _this$ = ecx

; 904  :     _Tree(const key_compare& _Parg) : _Mypair(_One_then_variadic_args_t{}, _Parg, _Zero_then_variadic_args_t{}) {

  00000	56		 push	 esi
  00001	8b f1		 mov	 esi, ecx
; File C:\Program Files\Microsoft Visual Studio\2022\Community\VC\Tools\MSVC\14.44.35207\include\xmemory

; 136  :         return ::operator new(_Bytes);

  00003	6a 18		 push	 24			; 00000018H
; File C:\Program Files\Microsoft Visual Studio\2022\Community\VC\Tools\MSVC\14.44.35207\include\xtree

; 450  :     _Tree_val() noexcept : _Myhead(), _Mysize(0) {}

  00005	c7 06 00 00 00
	00		 mov	 DWORD PTR [esi], 0
  0000b	c7 46 04 00 00
	00 00		 mov	 DWORD PTR [esi+4], 0
; File C:\Program Files\Microsoft Visual Studio\2022\Community\VC\Tools\MSVC\14.44.35207\include\xmemory

; 136  :         return ::operator new(_Bytes);

  00012	e8 00 00 00 00	 call	 ??2@YAPAXI@Z		; operator new
  00017	83 c4 04	 add	 esp, 4
; File C:\Program Files\Microsoft Visual Studio\2022\Community\VC\Tools\MSVC\14.44.35207\include\xtree

; 346  :         _Construct_in_place(_Pnode->_Left, _Pnode);

  0001a	89 00		 mov	 DWORD PTR [eax], eax

; 347  :         _Construct_in_place(_Pnode->_Parent, _Pnode);

  0001c	89 40 04	 mov	 DWORD PTR [eax+4], eax

; 348  :         _Construct_in_place(_Pnode->_Right, _Pnode);

  0001f	89 40 08	 mov	 DWORD PTR [eax+8], eax

; 349  :         _Pnode->_Color = _Black;

  00022	66 c7 40 0c 01
	01		 mov	 WORD PTR [eax+12], 257	; 00000101H

; 1957 :         _Scary->_Myhead = _Node::_Buyheadnode(_Getal());

  00028	89 06		 mov	 DWORD PTR [esi], eax

; 905  :         _Alloc_sentinel_and_proxy();
; 906  :     }

  0002a	8b c6		 mov	 eax, esi
  0002c	5e		 pop	 esi
  0002d	c2 04 00	 ret	 4
??0?$_Tree@V?$_Tmap_traits@KKU?$less@K@std@@V?$allocator@U?$pair@$$CBKK@std@@@2@$0A@@std@@@std@@QAE@ABU?$less@K@1@@Z ENDP ; std::_Tree<std::_Tmap_traits<unsigned long,unsigned long,std::less<unsigned long>,std::allocator<std::pair<unsigned long const ,unsigned long> >,0> >::_Tree<std::_Tmap_traits<unsigned long,unsigned long,std::less<unsigned long>,std::allocator<std::pair<unsigned long const ,unsigned long> >,0> >
_TEXT	ENDS
; Function compile flags: /Ogtp
; File C:\Program Files\Microsoft Visual Studio\2022\Community\VC\Tools\MSVC\14.44.35207\include\xmemory
;	COMDAT ??$_Deallocate_plain@V?$allocator@U_Container_proxy@std@@@std@@@std@@YAXAAV?$allocator@U_Container_proxy@std@@@0@QAU_Container_proxy@0@@Z
_TEXT	SEGMENT
??$_Deallocate_plain@V?$allocator@U_Container_proxy@std@@@std@@@std@@YAXAAV?$allocator@U_Container_proxy@std@@@0@QAU_Container_proxy@0@@Z PROC ; std::_Deallocate_plain<std::allocator<std::_Container_proxy> >, COMDAT
; __Al$dead$ = ecx
; __Ptr$ = edx

; 289  :         ::operator delete(_Ptr, _Bytes);

  00000	6a 08		 push	 8
  00002	52		 push	 edx
  00003	e8 00 00 00 00	 call	 ??3@YAXPAXI@Z		; operator delete
  00008	83 c4 08	 add	 esp, 8

; 1136 :     // deallocate a plain pointer using an allocator
; 1137 :     using _Alloc_traits = allocator_traits<_Alloc>;
; 1138 :     if constexpr (is_same_v<_Alloc_ptr_t<_Alloc>, typename _Alloc::value_type*>) {
; 1139 :         _Alloc_traits::deallocate(_Al, _Ptr, 1);
; 1140 :     } else {
; 1141 :         using _Ptr_traits = pointer_traits<_Alloc_ptr_t<_Alloc>>;
; 1142 :         _Alloc_traits::deallocate(_Al, _Ptr_traits::pointer_to(*_Ptr), 1);
; 1143 :     }
; 1144 : }

  0000b	c3		 ret	 0
??$_Deallocate_plain@V?$allocator@U_Container_proxy@std@@@std@@@std@@YAXAAV?$allocator@U_Container_proxy@std@@@0@QAU_Container_proxy@0@@Z ENDP ; std::_Deallocate_plain<std::allocator<std::_Container_proxy> >
_TEXT	ENDS
; Function compile flags: /Ogtp
; File C:\Program Files\Microsoft Visual Studio\2022\Community\VC\Tools\MSVC\14.44.35207\include\xmemory
;	COMDAT ??$_Unfancy@U_Container_proxy@std@@@std@@YAPAU_Container_proxy@0@PAU10@@Z
_TEXT	SEGMENT
??$_Unfancy@U_Container_proxy@std@@@std@@YAPAU_Container_proxy@0@PAU10@@Z PROC ; std::_Unfancy<std::_Container_proxy>, COMDAT
; __Ptr$ = ecx

; 69   :     return _Ptr;

  00000	8b c1		 mov	 eax, ecx

; 70   : }

  00002	c3		 ret	 0
??$_Unfancy@U_Container_proxy@std@@@std@@YAPAU_Container_proxy@0@PAU10@@Z ENDP ; std::_Unfancy<std::_Container_proxy>
_TEXT	ENDS
; Function compile flags: /Ogtp
; File C:\Program Files\Microsoft Visual Studio\2022\Community\VC\Tools\MSVC\14.44.35207\include\list
; File C:\Program Files\Microsoft Visual Studio\2022\Community\VC\Tools\MSVC\14.44.35207\include\xmemory
; File C:\Program Files\Microsoft Visual Studio\2022\Community\VC\Tools\MSVC\14.44.35207\include\list
; File C:\Program Files\Microsoft Visual Studio\2022\Community\VC\Tools\MSVC\14.44.35207\include\xmemory
; File C:\Program Files\Microsoft Visual Studio\2022\Community\VC\Tools\MSVC\14.44.35207\include\list
;	COMDAT ??0?$list@U?$pair@$$CBKM@std@@V?$allocator@U?$pair@$$CBKM@std@@@2@@std@@QAE@ABV?$allocator@U?$pair@$$CBKM@std@@@1@@Z
_TEXT	SEGMENT
__Al$dead$ = 8						; size = 4
??0?$list@U?$pair@$$CBKM@std@@V?$allocator@U?$pair@$$CBKM@std@@@2@@std@@QAE@ABV?$allocator@U?$pair@$$CBKM@std@@@1@@Z PROC ; std::list<std::pair<unsigned long const ,float>,std::allocator<std::pair<unsigned long const ,float> > >::list<std::pair<unsigned long const ,float>,std::allocator<std::pair<unsigned long const ,float> > >, COMDAT
; _this$ = ecx

; 816  :     explicit list(const _Alloc& _Al) : _Mypair(_One_then_variadic_args_t{}, _Al) {

  00000	56		 push	 esi
  00001	8b f1		 mov	 esi, ecx
; File C:\Program Files\Microsoft Visual Studio\2022\Community\VC\Tools\MSVC\14.44.35207\include\xmemory

; 136  :         return ::operator new(_Bytes);

  00003	6a 10		 push	 16			; 00000010H
; File C:\Program Files\Microsoft Visual Studio\2022\Community\VC\Tools\MSVC\14.44.35207\include\list

; 353  :     _List_val() noexcept : _Myhead(), _Mysize(0) {} // initialize data

  00005	c7 06 00 00 00
	00		 mov	 DWORD PTR [esi], 0
  0000b	c7 46 04 00 00
	00 00		 mov	 DWORD PTR [esi+4], 0
; File C:\Program Files\Microsoft Visual Studio\2022\Community\VC\Tools\MSVC\14.44.35207\include\xmemory

; 136  :         return ::operator new(_Bytes);

  00012	e8 00 00 00 00	 call	 ??2@YAPAXI@Z		; operator new
  00017	83 c4 04	 add	 esp, 4
; File C:\Program Files\Microsoft Visual Studio\2022\Community\VC\Tools\MSVC\14.44.35207\include\list

; 1852 :         _Construct_in_place(_Newhead->_Next, _Newhead);

  0001a	89 00		 mov	 DWORD PTR [eax], eax

; 1853 :         _Construct_in_place(_Newhead->_Prev, _Newhead);

  0001c	89 40 04	 mov	 DWORD PTR [eax+4], eax

; 1854 :         _Mypair._Myval2._Myhead = _Newhead;

  0001f	89 06		 mov	 DWORD PTR [esi], eax

; 817  :         _Alloc_sentinel_and_proxy();
; 818  :     }

  00021	8b c6		 mov	 eax, esi
  00023	5e		 pop	 esi
  00024	c2 04 00	 ret	 4
??0?$list@U?$pair@$$CBKM@std@@V?$allocator@U?$pair@$$CBKM@std@@@2@@std@@QAE@ABV?$allocator@U?$pair@$$CBKM@std@@@1@@Z ENDP ; std::list<std::pair<unsigned long const ,float>,std::allocator<std::pair<unsigned long const ,float> > >::list<std::pair<unsigned long const ,float>,std::allocator<std::pair<unsigned long const ,float> > >
_TEXT	ENDS
; Function compile flags: /Ogtp
; File C:\Anka2Project\Anka2Project\Source\Binary\source\eterLib\Pool.h
;	COMDAT ?Delete@?$CDynamicPool@VCInstanceBase@@@@KAXPAVCInstanceBase@@@Z
_TEXT	SEGMENT
?Delete@?$CDynamicPool@VCInstanceBase@@@@KAXPAVCInstanceBase@@@Z PROC ; CDynamicPool<CInstanceBase>::Delete, COMDAT
; _pkData$ = ecx

; 85   : 			delete pkData;

  00000	85 c9		 test	 ecx, ecx
  00002	74 06		 je	 SHORT $LN3@Delete
  00004	8b 01		 mov	 eax, DWORD PTR [ecx]
  00006	6a 01		 push	 1
  00008	ff 10		 call	 DWORD PTR [eax]
$LN3@Delete:

; 86   : 		}

  0000a	c3		 ret	 0
?Delete@?$CDynamicPool@VCInstanceBase@@@@KAXPAVCInstanceBase@@@Z ENDP ; CDynamicPool<CInstanceBase>::Delete
_TEXT	ENDS
; Function compile flags: /Ogtp
; File C:\Program Files\Microsoft Visual Studio\2022\Community\VC\Tools\MSVC\14.44.35207\include\xmemory
;	COMDAT ?_Get_first@?$_Compressed_pair@V?$allocator@USEffectDamage@CInstanceBase@@@std@@V?$_Deque_val@U?$_Deque_simple_types@USEffectDamage@CInstanceBase@@@std@@@2@$00@std@@QAEAAV?$allocator@USEffectDamage@CInstanceBase@@@2@XZ
_TEXT	SEGMENT
?_Get_first@?$_Compressed_pair@V?$allocator@USEffectDamage@CInstanceBase@@@std@@V?$_Deque_val@U?$_Deque_simple_types@USEffectDamage@CInstanceBase@@@std@@@2@$00@std@@QAEAAV?$allocator@USEffectDamage@CInstanceBase@@@2@XZ PROC ; std::_Compressed_pair<std::allocator<CInstanceBase::SEffectDamage>,std::_Deque_val<std::_Deque_simple_types<CInstanceBase::SEffectDamage> >,1>::_Get_first, COMDAT
; _this$ = ecx

; 1539 :         return *this;

  00000	8b c1		 mov	 eax, ecx

; 1540 :     }

  00002	c3		 ret	 0
?_Get_first@?$_Compressed_pair@V?$allocator@USEffectDamage@CInstanceBase@@@std@@V?$_Deque_val@U?$_Deque_simple_types@USEffectDamage@CInstanceBase@@@std@@@2@$00@std@@QAEAAV?$allocator@USEffectDamage@CInstanceBase@@@2@XZ ENDP ; std::_Compressed_pair<std::allocator<CInstanceBase::SEffectDamage>,std::_Deque_val<std::_Deque_simple_types<CInstanceBase::SEffectDamage> >,1>::_Get_first
_TEXT	ENDS
; Function compile flags: /Ogtp
; File C:\Program Files\Microsoft Visual Studio\2022\Community\VC\Tools\MSVC\14.44.35207\include\deque
; File C:\Program Files\Microsoft Visual Studio\2022\Community\VC\Tools\MSVC\14.44.35207\include\xmemory
; File C:\Program Files\Microsoft Visual Studio\2022\Community\VC\Tools\MSVC\14.44.35207\include\deque
;	COMDAT ??0?$_Deque_val@U?$_Deque_simple_types@USEffectDamage@CInstanceBase@@@std@@@std@@QAE@XZ
_TEXT	SEGMENT
??0?$_Deque_val@U?$_Deque_simple_types@USEffectDamage@CInstanceBase@@@std@@@std@@QAE@XZ PROC ; std::_Deque_val<std::_Deque_simple_types<CInstanceBase::SEffectDamage> >::_Deque_val<std::_Deque_simple_types<CInstanceBase::SEffectDamage> >, COMDAT
; _this$ = ecx
; File C:\Program Files\Microsoft Visual Studio\2022\Community\VC\Tools\MSVC\14.44.35207\include\xmemory

; 1235 :     _Container_proxy* _Myproxy = nullptr;

  00000	c7 01 00 00 00
	00		 mov	 DWORD PTR [ecx], 0
; File C:\Program Files\Microsoft Visual Studio\2022\Community\VC\Tools\MSVC\14.44.35207\include\deque

; 556  :     _Deque_val() noexcept : _Map(), _Mapsize(0), _Myoff(0), _Mysize(0) {}

  00006	8b c1		 mov	 eax, ecx
  00008	c7 41 04 00 00
	00 00		 mov	 DWORD PTR [ecx+4], 0
  0000f	c7 41 08 00 00
	00 00		 mov	 DWORD PTR [ecx+8], 0
  00016	c7 41 0c 00 00
	00 00		 mov	 DWORD PTR [ecx+12], 0
  0001d	c7 41 10 00 00
	00 00		 mov	 DWORD PTR [ecx+16], 0
  00024	c3		 ret	 0
??0?$_Deque_val@U?$_Deque_simple_types@USEffectDamage@CInstanceBase@@@std@@@std@@QAE@XZ ENDP ; std::_Deque_val<std::_Deque_simple_types<CInstanceBase::SEffectDamage> >::_Deque_val<std::_Deque_simple_types<CInstanceBase::SEffectDamage> >
_TEXT	ENDS
; Function compile flags: /Ogtp
; File C:\Program Files\Microsoft Visual Studio\2022\Community\VC\Tools\MSVC\14.44.35207\include\deque
;	COMDAT ?_Map@?$deque@USEffectDamage@CInstanceBase@@V?$allocator@USEffectDamage@CInstanceBase@@@std@@@std@@AAEAAPAPAUSEffectDamage@CInstanceBase@@XZ
_TEXT	SEGMENT
?_Map@?$deque@USEffectDamage@CInstanceBase@@V?$allocator@USEffectDamage@CInstanceBase@@@std@@@std@@AAEAAPAPAUSEffectDamage@CInstanceBase@@XZ PROC ; std::deque<CInstanceBase::SEffectDamage,std::allocator<CInstanceBase::SEffectDamage> >::_Map, COMDAT
; _this$ = ecx

; 1730 :         return _Get_data()._Map;

  00000	8d 41 04	 lea	 eax, DWORD PTR [ecx+4]

; 1731 :     }

  00003	c3		 ret	 0
?_Map@?$deque@USEffectDamage@CInstanceBase@@V?$allocator@USEffectDamage@CInstanceBase@@@std@@@std@@AAEAAPAPAUSEffectDamage@CInstanceBase@@XZ ENDP ; std::deque<CInstanceBase::SEffectDamage,std::allocator<CInstanceBase::SEffectDamage> >::_Map
_TEXT	ENDS
; Function compile flags: /Ogtp
; File C:\Program Files\Microsoft Visual Studio\2022\Community\VC\Tools\MSVC\14.44.35207\include\deque
;	COMDAT ?_Orphan_all@?$deque@USEffectDamage@CInstanceBase@@V?$allocator@USEffectDamage@CInstanceBase@@@std@@@std@@AAEXXZ
_TEXT	SEGMENT
?_Orphan_all@?$deque@USEffectDamage@CInstanceBase@@V?$allocator@USEffectDamage@CInstanceBase@@@std@@@std@@AAEXXZ PROC ; std::deque<CInstanceBase::SEffectDamage,std::allocator<CInstanceBase::SEffectDamage> >::_Orphan_all, COMDAT
; _this$dead$ = ecx

; 1710 :         _Get_data()._Orphan_all();
; 1711 :     }

  00000	c2 00 00	 ret	 0
?_Orphan_all@?$deque@USEffectDamage@CInstanceBase@@V?$allocator@USEffectDamage@CInstanceBase@@@std@@@std@@AAEXXZ ENDP ; std::deque<CInstanceBase::SEffectDamage,std::allocator<CInstanceBase::SEffectDamage> >::_Orphan_all
_TEXT	ENDS
; Function compile flags: /Ogtp
; File C:\Program Files\Microsoft Visual Studio\2022\Community\VC\Tools\MSVC\14.44.35207\include\deque
; File C:\Program Files\Microsoft Visual Studio\2022\Community\VC\Tools\MSVC\14.44.35207\include\xmemory
; File C:\Program Files\Microsoft Visual Studio\2022\Community\VC\Tools\MSVC\14.44.35207\include\deque
; File C:\Program Files\Microsoft Visual Studio\2022\Community\VC\Tools\MSVC\14.44.35207\include\xmemory
; File C:\Program Files\Microsoft Visual Studio\2022\Community\VC\Tools\MSVC\14.44.35207\include\deque
; File C:\Program Files\Microsoft Visual Studio\2022\Community\VC\Tools\MSVC\14.44.35207\include\xmemory
; File C:\Program Files\Microsoft Visual Studio\2022\Community\VC\Tools\MSVC\14.44.35207\include\deque
;	COMDAT ?_Reset_map@?$deque@USEffectDamage@CInstanceBase@@V?$allocator@USEffectDamage@CInstanceBase@@@std@@@std@@AAEXXZ
_TEXT	SEGMENT
_this$1$ = -4						; size = 4
?_Reset_map@?$deque@USEffectDamage@CInstanceBase@@V?$allocator@USEffectDamage@CInstanceBase@@@std@@@std@@AAEXXZ PROC ; std::deque<CInstanceBase::SEffectDamage,std::allocator<CInstanceBase::SEffectDamage> >::_Reset_map, COMDAT
; _this$ = ecx

; 1651 :     void _Reset_map() noexcept {

  00000	55		 push	 ebp
  00001	8b ec		 mov	 ebp, esp
  00003	51		 push	 ecx
  00004	8b c1		 mov	 eax, ecx
  00006	53		 push	 ebx
  00007	56		 push	 esi

; 1654 :         for (auto _Block = _Map_distance(); _Block > 0;) { // free storage for a block and destroy pointer

  00008	8b 70 08	 mov	 esi, DWORD PTR [eax+8]
  0000b	8d 58 08	 lea	 ebx, DWORD PTR [eax+8]
  0000e	89 45 fc	 mov	 DWORD PTR _this$1$[ebp], eax
  00011	57		 push	 edi
  00012	8d 78 04	 lea	 edi, DWORD PTR [eax+4]
  00015	85 f6		 test	 esi, esi
  00017	7e 28		 jle	 SHORT $LN44@Reset_map
  00019	0f 1f 80 00 00
	00 00		 npad	 7
$LL4@Reset_map:

; 1655 :             --_Block;
; 1656 :             auto& _Block_ptr = _Map()[_Block];
; 1657 :             if (_Block_ptr) { // free block

  00020	8b 07		 mov	 eax, DWORD PTR [edi]
  00022	4e		 dec	 esi
  00023	8b 04 b0	 mov	 eax, DWORD PTR [eax+esi*4]
  00026	85 c0		 test	 eax, eax
  00028	74 0b		 je	 SHORT $LN2@Reset_map
; File C:\Program Files\Microsoft Visual Studio\2022\Community\VC\Tools\MSVC\14.44.35207\include\xmemory

; 289  :         ::operator delete(_Ptr, _Bytes);

  0002a	6a 18		 push	 24			; 00000018H
  0002c	50		 push	 eax
  0002d	e8 00 00 00 00	 call	 ??3@YAXPAXI@Z		; operator delete
  00032	83 c4 08	 add	 esp, 8
$LN2@Reset_map:
; File C:\Program Files\Microsoft Visual Studio\2022\Community\VC\Tools\MSVC\14.44.35207\include\deque

; 1654 :         for (auto _Block = _Map_distance(); _Block > 0;) { // free storage for a block and destroy pointer

  00035	85 f6		 test	 esi, esi
  00037	7f e7		 jg	 SHORT $LL4@Reset_map
  00039	8b 75 fc	 mov	 esi, DWORD PTR _this$1$[ebp]
  0003c	83 c6 08	 add	 esi, 8
  0003f	eb 02		 jmp	 SHORT $LN42@Reset_map
$LN44@Reset_map:
  00041	8b f3		 mov	 esi, ebx
$LN42@Reset_map:
; File C:\Program Files\Microsoft Visual Studio\2022\Community\VC\Tools\MSVC\14.44.35207\include\xmemory

; 985  :         _STD _Deallocate<_New_alignof<_Ty>>(_Ptr, sizeof(_Ty) * _Count);

  00043	8b 0b		 mov	 ecx, DWORD PTR [ebx]
  00045	8b 07		 mov	 eax, DWORD PTR [edi]
  00047	c1 e1 02	 shl	 ecx, 2

; 284  :         if (_Bytes >= _Big_allocation_threshold) {

  0004a	81 f9 00 10 00
	00		 cmp	 ecx, 4096		; 00001000H
  00050	72 12		 jb	 SHORT $LN34@Reset_map

; 205  :     const uintptr_t _Ptr_container   = _Ptr_user[-1];

  00052	8b 50 fc	 mov	 edx, DWORD PTR [eax-4]
  00055	83 c1 23	 add	 ecx, 35			; 00000023H

; 206  : 
; 207  :     // If the following asserts, it likely means that we are performing
; 208  :     // an aligned delete on memory coming from an unaligned allocation.
; 209  :     _STL_ASSERT(_Ptr_user[-2] == _Big_allocation_sentinel, "invalid argument");
; 210  : 
; 211  :     // Extra paranoia on aligned allocation/deallocation; ensure _Ptr_container is
; 212  :     // in range [_Min_back_shift, _Non_user_size]
; 213  : #ifdef _DEBUG
; 214  :     constexpr uintptr_t _Min_back_shift = 2 * sizeof(void*);
; 215  : #else // ^^^ defined(_DEBUG) / !defined(_DEBUG) vvv
; 216  :     constexpr uintptr_t _Min_back_shift = sizeof(void*);
; 217  : #endif // ^^^ !defined(_DEBUG) ^^^
; 218  :     const uintptr_t _Back_shift = reinterpret_cast<uintptr_t>(_Ptr) - _Ptr_container;

  00058	2b c2		 sub	 eax, edx

; 219  :     _STL_VERIFY(_Back_shift >= _Min_back_shift && _Back_shift <= _Non_user_size, "invalid argument");

  0005a	83 c0 fc	 add	 eax, -4			; fffffffcH
  0005d	83 f8 1f	 cmp	 eax, 31			; 0000001fH
  00060	77 1f		 ja	 SHORT $LN33@Reset_map

; 220  :     _Ptr = reinterpret_cast<void*>(_Ptr_container);

  00062	8b c2		 mov	 eax, edx
$LN34@Reset_map:

; 289  :         ::operator delete(_Ptr, _Bytes);

  00064	51		 push	 ecx
  00065	50		 push	 eax
  00066	e8 00 00 00 00	 call	 ??3@YAXPAXI@Z		; operator delete
  0006b	83 c4 08	 add	 esp, 8
; File C:\Program Files\Microsoft Visual Studio\2022\Community\VC\Tools\MSVC\14.44.35207\include\deque

; 1666 :         _Map()     = nullptr;

  0006e	c7 07 00 00 00
	00		 mov	 DWORD PTR [edi], 0

; 1667 :         _Mapsize() = 0;

  00074	c7 06 00 00 00
	00		 mov	 DWORD PTR [esi], 0
  0007a	5f		 pop	 edi
  0007b	5e		 pop	 esi
  0007c	5b		 pop	 ebx

; 1668 :     }

  0007d	8b e5		 mov	 esp, ebp
  0007f	5d		 pop	 ebp
  00080	c3		 ret	 0
$LN33@Reset_map:
; File C:\Program Files\Microsoft Visual Studio\2022\Community\VC\Tools\MSVC\14.44.35207\include\xmemory

; 219  :     _STL_VERIFY(_Back_shift >= _Min_back_shift && _Back_shift <= _Non_user_size, "invalid argument");

  00081	6a 00		 push	 0
  00083	6a 00		 push	 0
  00085	6a 00		 push	 0
  00087	6a 00		 push	 0
  00089	6a 00		 push	 0
  0008b	e8 00 00 00 00	 call	 __invoke_watson
$LN50@Reset_map:
  00090	cc		 int	 3
?_Reset_map@?$deque@USEffectDamage@CInstanceBase@@V?$allocator@USEffectDamage@CInstanceBase@@@std@@@std@@AAEXXZ ENDP ; std::deque<CInstanceBase::SEffectDamage,std::allocator<CInstanceBase::SEffectDamage> >::_Reset_map
_TEXT	ENDS
; Function compile flags: /Ogtp
; File C:\Program Files\Microsoft Visual Studio\2022\Community\VC\Tools\MSVC\14.44.35207\include\deque
;	COMDAT ?pop_back@?$deque@USEffectDamage@CInstanceBase@@V?$allocator@USEffectDamage@CInstanceBase@@@std@@@std@@QAEXXZ
_TEXT	SEGMENT
tv177 = -4						; size = 4
?pop_back@?$deque@USEffectDamage@CInstanceBase@@V?$allocator@USEffectDamage@CInstanceBase@@@std@@@std@@QAEXXZ PROC ; std::deque<CInstanceBase::SEffectDamage,std::allocator<CInstanceBase::SEffectDamage> >::pop_back, COMDAT
; _this$ = ecx

; 1503 :     void pop_back() noexcept /* strengthened */ {

  00000	55		 push	 ebp
  00001	8b ec		 mov	 ebp, esp
  00003	51		 push	 ecx

; 1504 : #if _MSVC_STL_HARDENING_DEQUE || _ITERATOR_DEBUG_LEVEL != 0
; 1505 :         _STL_VERIFY(!empty(), "pop_back() called on empty deque");
; 1506 : #endif
; 1507 : 
; 1508 :         size_type _Newoff = _Myoff() + _Mysize() - 1;
; 1509 : #if _ITERATOR_DEBUG_LEVEL == 2
; 1510 :         _Orphan_off(_Newoff);
; 1511 : #endif
; 1512 :         _Alty_traits::destroy(_Getal(), _Get_data()._Address_subscript(_Newoff));
; 1513 :         if (--_Mysize() == 0) {

  00004	83 41 10 ff	 add	 DWORD PTR [ecx+16], -1
  00008	75 07		 jne	 SHORT $LN2@pop_back

; 1514 :             _Myoff() = 0;

  0000a	c7 41 0c 00 00
	00 00		 mov	 DWORD PTR [ecx+12], 0
$LN2@pop_back:

; 1515 :         }
; 1516 :     }

  00011	8b e5		 mov	 esp, ebp
  00013	5d		 pop	 ebp
  00014	c3		 ret	 0
?pop_back@?$deque@USEffectDamage@CInstanceBase@@V?$allocator@USEffectDamage@CInstanceBase@@@std@@@std@@QAEXXZ ENDP ; std::deque<CInstanceBase::SEffectDamage,std::allocator<CInstanceBase::SEffectDamage> >::pop_back
_TEXT	ENDS
; Function compile flags: /Ogtp
; File C:\Program Files\Microsoft Visual Studio\2022\Community\VC\Tools\MSVC\14.44.35207\include\deque
;	COMDAT ?empty@?$deque@USEffectDamage@CInstanceBase@@V?$allocator@USEffectDamage@CInstanceBase@@@std@@@std@@QBE_NXZ
_TEXT	SEGMENT
?empty@?$deque@USEffectDamage@CInstanceBase@@V?$allocator@USEffectDamage@CInstanceBase@@@std@@@std@@QBE_NXZ PROC ; std::deque<CInstanceBase::SEffectDamage,std::allocator<CInstanceBase::SEffectDamage> >::empty, COMDAT
; _this$ = ecx

; 971  :         return _Mysize() == 0;

  00000	83 79 10 00	 cmp	 DWORD PTR [ecx+16], 0
  00004	0f 94 c0	 sete	 al

; 972  :     }

  00007	c3		 ret	 0
?empty@?$deque@USEffectDamage@CInstanceBase@@V?$allocator@USEffectDamage@CInstanceBase@@@std@@@std@@QBE_NXZ ENDP ; std::deque<CInstanceBase::SEffectDamage,std::allocator<CInstanceBase::SEffectDamage> >::empty
_TEXT	ENDS
; Function compile flags: /Ogtp
; File C:\Program Files\Microsoft Visual Studio\2022\Community\VC\Tools\MSVC\14.44.35207\include\xmemory
;	COMDAT ??0?$allocator@USEffectDamage@CInstanceBase@@@std@@QAE@XZ
_TEXT	SEGMENT
??0?$allocator@USEffectDamage@CInstanceBase@@@std@@QAE@XZ PROC ; std::allocator<CInstanceBase::SEffectDamage>::allocator<CInstanceBase::SEffectDamage>, COMDAT
; _this$ = ecx

; 974  :     constexpr allocator() noexcept {}

  00000	8b c1		 mov	 eax, ecx
  00002	c3		 ret	 0
??0?$allocator@USEffectDamage@CInstanceBase@@@std@@QAE@XZ ENDP ; std::allocator<CInstanceBase::SEffectDamage>::allocator<CInstanceBase::SEffectDamage>
_TEXT	ENDS
; Function compile flags: /Ogtp
; File C:\Program Files\Microsoft Visual Studio\2022\Community\VC\Tools\MSVC\14.44.35207\include\xtree
; File C:\Program Files\Microsoft Visual Studio\2022\Community\VC\Tools\MSVC\14.44.35207\include\xmemory
; File C:\Program Files\Microsoft Visual Studio\2022\Community\VC\Tools\MSVC\14.44.35207\include\xtree
; File C:\Program Files\Microsoft Visual Studio\2022\Community\VC\Tools\MSVC\14.44.35207\include\xmemory
; File C:\Program Files\Microsoft Visual Studio\2022\Community\VC\Tools\MSVC\14.44.35207\include\xtree
;	COMDAT ?_Alloc_sentinel_and_proxy@?$_Tree@V?$_Tmap_traits@KKU?$less@K@std@@V?$allocator@U?$pair@$$CBKK@std@@@2@$0A@@std@@@std@@IAEXXZ
_TEXT	SEGMENT
?_Alloc_sentinel_and_proxy@?$_Tree@V?$_Tmap_traits@KKU?$less@K@std@@V?$allocator@U?$pair@$$CBKK@std@@@2@$0A@@std@@@std@@IAEXXZ PROC ; std::_Tree<std::_Tmap_traits<unsigned long,unsigned long,std::less<unsigned long>,std::allocator<std::pair<unsigned long const ,unsigned long> >,0> >::_Alloc_sentinel_and_proxy, COMDAT
; _this$ = ecx

; 1953 :     void _Alloc_sentinel_and_proxy() {

  00000	56		 push	 esi
; File C:\Program Files\Microsoft Visual Studio\2022\Community\VC\Tools\MSVC\14.44.35207\include\xmemory

; 136  :         return ::operator new(_Bytes);

  00001	6a 18		 push	 24			; 00000018H
; File C:\Program Files\Microsoft Visual Studio\2022\Community\VC\Tools\MSVC\14.44.35207\include\xtree

; 1953 :     void _Alloc_sentinel_and_proxy() {

  00003	8b f1		 mov	 esi, ecx
; File C:\Program Files\Microsoft Visual Studio\2022\Community\VC\Tools\MSVC\14.44.35207\include\xmemory

; 136  :         return ::operator new(_Bytes);

  00005	e8 00 00 00 00	 call	 ??2@YAPAXI@Z		; operator new
  0000a	83 c4 04	 add	 esp, 4
; File C:\Program Files\Microsoft Visual Studio\2022\Community\VC\Tools\MSVC\14.44.35207\include\xtree

; 346  :         _Construct_in_place(_Pnode->_Left, _Pnode);

  0000d	89 00		 mov	 DWORD PTR [eax], eax

; 347  :         _Construct_in_place(_Pnode->_Parent, _Pnode);

  0000f	89 40 04	 mov	 DWORD PTR [eax+4], eax

; 348  :         _Construct_in_place(_Pnode->_Right, _Pnode);

  00012	89 40 08	 mov	 DWORD PTR [eax+8], eax

; 349  :         _Pnode->_Color = _Black;

  00015	66 c7 40 0c 01
	01		 mov	 WORD PTR [eax+12], 257	; 00000101H

; 1954 :         const auto _Scary = _Get_scary();
; 1955 :         auto&& _Alproxy   = _GET_PROXY_ALLOCATOR(_Alnode, _Getal());
; 1956 :         _Container_proxy_ptr<_Alnode> _Proxy(_Alproxy, *_Scary);
; 1957 :         _Scary->_Myhead = _Node::_Buyheadnode(_Getal());

  0001b	89 06		 mov	 DWORD PTR [esi], eax
  0001d	5e		 pop	 esi

; 1958 :         _Proxy._Release();
; 1959 :     }

  0001e	c3		 ret	 0
?_Alloc_sentinel_and_proxy@?$_Tree@V?$_Tmap_traits@KKU?$less@K@std@@V?$allocator@U?$pair@$$CBKK@std@@@2@$0A@@std@@@std@@IAEXXZ ENDP ; std::_Tree<std::_Tmap_traits<unsigned long,unsigned long,std::less<unsigned long>,std::allocator<std::pair<unsigned long const ,unsigned long> >,0> >::_Alloc_sentinel_and_proxy
_TEXT	ENDS
; Function compile flags: /Ogtp
; File C:\Program Files\Microsoft Visual Studio\2022\Community\VC\Tools\MSVC\14.44.35207\include\xmemory
;	COMDAT ?allocate@?$allocator@U_Container_proxy@std@@@std@@QAEPAU_Container_proxy@2@I@Z
_TEXT	SEGMENT
__Count$dead$ = 8					; size = 4
?allocate@?$allocator@U_Container_proxy@std@@@std@@QAEPAU_Container_proxy@2@I@Z PROC ; std::allocator<std::_Container_proxy>::allocate, COMDAT
; _this$dead$ = ecx

; 136  :         return ::operator new(_Bytes);

  00000	6a 08		 push	 8
  00002	e8 00 00 00 00	 call	 ??2@YAPAXI@Z		; operator new
  00007	83 c4 04	 add	 esp, 4

; 989  :         static_assert(sizeof(value_type) > 0, "value_type must be complete before calling allocate.");
; 990  :         return static_cast<_Ty*>(_STD _Allocate<_New_alignof<_Ty>>(_Get_size_of_n<sizeof(_Ty)>(_Count)));
; 991  :     }

  0000a	c2 04 00	 ret	 4
?allocate@?$allocator@U_Container_proxy@std@@@std@@QAEPAU_Container_proxy@2@I@Z ENDP ; std::allocator<std::_Container_proxy>::allocate
_TEXT	ENDS
; Function compile flags: /Ogtp
; File C:\Program Files\Microsoft Visual Studio\2022\Community\VC\Tools\MSVC\14.44.35207\include\xmemory
;	COMDAT ??$_Destroy_in_place@PAUSEffectDamage@CInstanceBase@@@std@@YAXAAPAUSEffectDamage@CInstanceBase@@@Z
_TEXT	SEGMENT
??$_Destroy_in_place@PAUSEffectDamage@CInstanceBase@@@std@@YAXAAPAUSEffectDamage@CInstanceBase@@@Z PROC ; std::_Destroy_in_place<CInstanceBase::SEffectDamage *>, COMDAT
; __Obj$dead$ = ecx

; 321  :     if constexpr (is_array_v<_Ty>) {
; 322  :         _STD _Destroy_range(_Obj, _Obj + extent_v<_Ty>);
; 323  :     } else {
; 324  :         _Obj.~_Ty();
; 325  :     }
; 326  : }

  00000	c2 00 00	 ret	 0
??$_Destroy_in_place@PAUSEffectDamage@CInstanceBase@@@std@@YAXAAPAUSEffectDamage@CInstanceBase@@@Z ENDP ; std::_Destroy_in_place<CInstanceBase::SEffectDamage *>
_TEXT	ENDS
; Function compile flags: /Ogtp
; File C:\Program Files\Microsoft Visual Studio\2022\Community\VC\Tools\MSVC\14.44.35207\include\xmemory
;	COMDAT ??$?0USEffectDamage@CInstanceBase@@@?$allocator@PAUSEffectDamage@CInstanceBase@@@std@@QAE@ABV?$allocator@USEffectDamage@CInstanceBase@@@1@@Z
_TEXT	SEGMENT
___formal$dead$ = 8					; size = 4
??$?0USEffectDamage@CInstanceBase@@@?$allocator@PAUSEffectDamage@CInstanceBase@@@std@@QAE@ABV?$allocator@USEffectDamage@CInstanceBase@@@1@@Z PROC ; std::allocator<CInstanceBase::SEffectDamage *>::allocator<CInstanceBase::SEffectDamage *><CInstanceBase::SEffectDamage>, COMDAT
; _this$ = ecx

; 978  :     constexpr allocator(const allocator<_Other>&) noexcept {}

  00000	8b c1		 mov	 eax, ecx
  00002	c2 04 00	 ret	 4
??$?0USEffectDamage@CInstanceBase@@@?$allocator@PAUSEffectDamage@CInstanceBase@@@std@@QAE@ABV?$allocator@USEffectDamage@CInstanceBase@@@1@@Z ENDP ; std::allocator<CInstanceBase::SEffectDamage *>::allocator<CInstanceBase::SEffectDamage *><CInstanceBase::SEffectDamage>
_TEXT	ENDS
; Function compile flags: /Ogtp
; File C:\Program Files\Microsoft Visual Studio\2022\Community\VC\Tools\MSVC\14.44.35207\include\xmemory
;	COMDAT ??$destroy@USEffectDamage@CInstanceBase@@@?$_Default_allocator_traits@V?$allocator@USEffectDamage@CInstanceBase@@@std@@@std@@SAXAAV?$allocator@USEffectDamage@CInstanceBase@@@1@QAUSEffectDamage@CInstanceBase@@@Z
_TEXT	SEGMENT
??$destroy@USEffectDamage@CInstanceBase@@@?$_Default_allocator_traits@V?$allocator@USEffectDamage@CInstanceBase@@@std@@@std@@SAXAAV?$allocator@USEffectDamage@CInstanceBase@@@1@QAUSEffectDamage@CInstanceBase@@@Z PROC ; std::_Default_allocator_traits<std::allocator<CInstanceBase::SEffectDamage> >::destroy<CInstanceBase::SEffectDamage>, COMDAT
; ___formal$dead$ = ecx
; __Ptr$dead$ = edx

; 738  : #if _HAS_CXX20
; 739  :         _STD destroy_at(_Ptr);
; 740  : #else // ^^^ _HAS_CXX20 / !_HAS_CXX20 vvv
; 741  :         _Ptr->~_Uty();
; 742  : #endif // ^^^ !_HAS_CXX20 ^^^
; 743  :     }

  00000	c2 00 00	 ret	 0
??$destroy@USEffectDamage@CInstanceBase@@@?$_Default_allocator_traits@V?$allocator@USEffectDamage@CInstanceBase@@@std@@@std@@SAXAAV?$allocator@USEffectDamage@CInstanceBase@@@1@QAUSEffectDamage@CInstanceBase@@@Z ENDP ; std::_Default_allocator_traits<std::allocator<CInstanceBase::SEffectDamage> >::destroy<CInstanceBase::SEffectDamage>
_TEXT	ENDS
; Function compile flags: /Ogtp
; File C:\Program Files\Microsoft Visual Studio\2022\Community\VC\Tools\MSVC\14.44.35207\include\xmemory
;	COMDAT ??$_Get_size_of_n@$07@std@@YAII@Z
_TEXT	SEGMENT
??$_Get_size_of_n@$07@std@@YAII@Z PROC			; std::_Get_size_of_n<8>, COMDAT
; __Count$ = ecx

; 113  :     constexpr bool _Overflow_is_possible = _Ty_size > 1;
; 114  : 
; 115  :     if constexpr (_Overflow_is_possible) {
; 116  :         constexpr size_t _Max_possible = static_cast<size_t>(-1) / _Ty_size;
; 117  :         if (_Count > _Max_possible) {

  00000	81 f9 ff ff ff
	1f		 cmp	 ecx, 536870911		; 1fffffffH
  00006	0f 87 00 00 00
	00		 ja	 ?_Throw_bad_array_new_length@std@@YAXXZ ; std::_Throw_bad_array_new_length

; 118  :             _Throw_bad_array_new_length(); // multiply overflow
; 119  :         }
; 120  :     }
; 121  : 
; 122  :     return _Count * _Ty_size;

  0000c	8d 04 cd 00 00
	00 00		 lea	 eax, DWORD PTR [ecx*8]

; 123  : }

  00013	c3		 ret	 0
??$_Get_size_of_n@$07@std@@YAII@Z ENDP			; std::_Get_size_of_n<8>
_TEXT	ENDS
; Function compile flags: /Ogtp
; File C:\Program Files\Microsoft Visual Studio\2022\Community\VC\Tools\MSVC\14.44.35207\include\xmemory
;	COMDAT ?deallocate@?$_Default_allocator_traits@V?$allocator@U_Container_proxy@std@@@std@@@std@@SAXAAV?$allocator@U_Container_proxy@std@@@2@QAU_Container_proxy@2@I@Z
_TEXT	SEGMENT
__Count$dead$ = 8					; size = 4
?deallocate@?$_Default_allocator_traits@V?$allocator@U_Container_proxy@std@@@std@@@std@@SAXAAV?$allocator@U_Container_proxy@std@@@2@QAU_Container_proxy@2@I@Z PROC ; std::_Default_allocator_traits<std::allocator<std::_Container_proxy> >::deallocate, COMDAT
; __Al$dead$ = ecx
; __Ptr$ = edx

; 289  :         ::operator delete(_Ptr, _Bytes);

  00000	6a 08		 push	 8
  00002	52		 push	 edx
  00003	e8 00 00 00 00	 call	 ??3@YAXPAXI@Z		; operator delete
  00008	83 c4 08	 add	 esp, 8

; 715  :         // no overflow check on the following multiply; we assume _Allocate did that check
; 716  : #if _HAS_CXX20 // TRANSITION, GH-1532
; 717  :         if (_STD is_constant_evaluated()) {
; 718  :             _Al.deallocate(_Ptr, _Count);
; 719  :         } else
; 720  : #endif // _HAS_CXX20
; 721  :         {
; 722  :             (void) _Al;
; 723  :             _STD _Deallocate<_New_alignof<value_type>>(_Ptr, sizeof(value_type) * _Count);
; 724  :         }
; 725  :     }

  0000b	c3		 ret	 0
?deallocate@?$_Default_allocator_traits@V?$allocator@U_Container_proxy@std@@@std@@@std@@SAXAAV?$allocator@U_Container_proxy@std@@@2@QAU_Container_proxy@2@I@Z ENDP ; std::_Default_allocator_traits<std::allocator<std::_Container_proxy> >::deallocate
_TEXT	ENDS
; Function compile flags: /Ogtp
; File C:\Program Files\Microsoft Visual Studio\2022\Community\VC\Tools\MSVC\14.44.35207\include\list
; File C:\Program Files\Microsoft Visual Studio\2022\Community\VC\Tools\MSVC\14.44.35207\include\xmemory
; File C:\Program Files\Microsoft Visual Studio\2022\Community\VC\Tools\MSVC\14.44.35207\include\list
; File C:\Program Files\Microsoft Visual Studio\2022\Community\VC\Tools\MSVC\14.44.35207\include\xmemory
; File C:\Program Files\Microsoft Visual Studio\2022\Community\VC\Tools\MSVC\14.44.35207\include\list
;	COMDAT ?_Alloc_sentinel_and_proxy@?$list@U?$pair@$$CBKM@std@@V?$allocator@U?$pair@$$CBKM@std@@@2@@std@@AAEXXZ
_TEXT	SEGMENT
?_Alloc_sentinel_and_proxy@?$list@U?$pair@$$CBKM@std@@V?$allocator@U?$pair@$$CBKM@std@@@2@@std@@AAEXXZ PROC ; std::list<std::pair<unsigned long const ,float>,std::allocator<std::pair<unsigned long const ,float> > >::_Alloc_sentinel_and_proxy, COMDAT
; _this$ = ecx

; 1847 :     void _Alloc_sentinel_and_proxy() {

  00000	56		 push	 esi
; File C:\Program Files\Microsoft Visual Studio\2022\Community\VC\Tools\MSVC\14.44.35207\include\xmemory

; 136  :         return ::operator new(_Bytes);

  00001	6a 10		 push	 16			; 00000010H
; File C:\Program Files\Microsoft Visual Studio\2022\Community\VC\Tools\MSVC\14.44.35207\include\list

; 1847 :     void _Alloc_sentinel_and_proxy() {

  00003	8b f1		 mov	 esi, ecx
; File C:\Program Files\Microsoft Visual Studio\2022\Community\VC\Tools\MSVC\14.44.35207\include\xmemory

; 136  :         return ::operator new(_Bytes);

  00005	e8 00 00 00 00	 call	 ??2@YAPAXI@Z		; operator new
  0000a	83 c4 04	 add	 esp, 4
; File C:\Program Files\Microsoft Visual Studio\2022\Community\VC\Tools\MSVC\14.44.35207\include\list

; 1852 :         _Construct_in_place(_Newhead->_Next, _Newhead);

  0000d	89 00		 mov	 DWORD PTR [eax], eax

; 1853 :         _Construct_in_place(_Newhead->_Prev, _Newhead);

  0000f	89 40 04	 mov	 DWORD PTR [eax+4], eax

; 1854 :         _Mypair._Myval2._Myhead = _Newhead;

  00012	89 06		 mov	 DWORD PTR [esi], eax
  00014	5e		 pop	 esi

; 1855 :         _Proxy._Release();
; 1856 :     }

  00015	c3		 ret	 0
?_Alloc_sentinel_and_proxy@?$list@U?$pair@$$CBKM@std@@V?$allocator@U?$pair@$$CBKM@std@@@2@@std@@AAEXXZ ENDP ; std::list<std::pair<unsigned long const ,float>,std::allocator<std::pair<unsigned long const ,float> > >::_Alloc_sentinel_and_proxy
_TEXT	ENDS
; Function compile flags: /Ogtp
; File C:\Program Files\Microsoft Visual Studio\2022\Community\VC\Tools\MSVC\14.44.35207\include\deque
;	COMDAT ?_Address_subscript@?$_Deque_val@U?$_Deque_simple_types@USEffectDamage@CInstanceBase@@@std@@@std@@QAEPAUSEffectDamage@CInstanceBase@@I@Z
_TEXT	SEGMENT
__Off$ = 8						; size = 4
?_Address_subscript@?$_Deque_val@U?$_Deque_simple_types@USEffectDamage@CInstanceBase@@@std@@@std@@QAEPAUSEffectDamage@CInstanceBase@@I@Z PROC ; std::_Deque_val<std::_Deque_simple_types<CInstanceBase::SEffectDamage> >::_Address_subscript, COMDAT
; _this$ = ecx

; 587  :     value_type* _Address_subscript(size_type _Off) noexcept {

  00000	55		 push	 ebp
  00001	8b ec		 mov	 ebp, esp

; 572  :         return static_cast<_Map_difference_type>((_Off / _Block_size) & (_Mapsize - 1));

  00003	8b 51 08	 mov	 edx, DWORD PTR [ecx+8]

; 588  :         const auto _Block     = _Getblock(_Off);
; 589  :         const auto _Block_off = static_cast<difference_type>(_Off % _Block_size);
; 590  :         return _STD _Unfancy(_Map[_Block] + _Block_off);

  00006	8b 41 04	 mov	 eax, DWORD PTR [ecx+4]

; 572  :         return static_cast<_Map_difference_type>((_Off / _Block_size) & (_Mapsize - 1));

  00009	4a		 dec	 edx
  0000a	23 55 08	 and	 edx, DWORD PTR __Off$[ebp]

; 588  :         const auto _Block     = _Getblock(_Off);
; 589  :         const auto _Block_off = static_cast<difference_type>(_Off % _Block_size);
; 590  :         return _STD _Unfancy(_Map[_Block] + _Block_off);

  0000d	8b 04 90	 mov	 eax, DWORD PTR [eax+edx*4]

; 591  :     }

  00010	5d		 pop	 ebp
  00011	c2 04 00	 ret	 4
?_Address_subscript@?$_Deque_val@U?$_Deque_simple_types@USEffectDamage@CInstanceBase@@@std@@@std@@QAEPAUSEffectDamage@CInstanceBase@@I@Z ENDP ; std::_Deque_val<std::_Deque_simple_types<CInstanceBase::SEffectDamage> >::_Address_subscript
_TEXT	ENDS
; Function compile flags: /Ogtp
; File C:\Program Files\Microsoft Visual Studio\2022\Community\VC\Tools\MSVC\14.44.35207\include\xmemory
;	COMDAT ?deallocate@?$allocator@PAUSEffectDamage@CInstanceBase@@@std@@QAEXQAPAUSEffectDamage@CInstanceBase@@I@Z
_TEXT	SEGMENT
__Ptr$ = 8						; size = 4
__Count$ = 12						; size = 4
?deallocate@?$allocator@PAUSEffectDamage@CInstanceBase@@@std@@QAEXQAPAUSEffectDamage@CInstanceBase@@I@Z PROC ; std::allocator<CInstanceBase::SEffectDamage *>::deallocate, COMDAT
; _this$dead$ = ecx

; 982  :     _CONSTEXPR20 void deallocate(_Ty* const _Ptr, const size_t _Count) noexcept /* strengthened */ {

  00000	55		 push	 ebp
  00001	8b ec		 mov	 ebp, esp

; 983  :         _STL_ASSERT(_Ptr != nullptr || _Count == 0, "null pointer cannot point to a block of non-zero size");
; 984  :         // no overflow check on the following multiply; we assume _Allocate did that check
; 985  :         _STD _Deallocate<_New_alignof<_Ty>>(_Ptr, sizeof(_Ty) * _Count);

  00003	8b 45 0c	 mov	 eax, DWORD PTR __Count$[ebp]
  00006	8d 0c 85 00 00
	00 00		 lea	 ecx, DWORD PTR [eax*4]
  0000d	8b 45 08	 mov	 eax, DWORD PTR __Ptr$[ebp]

; 284  :         if (_Bytes >= _Big_allocation_threshold) {

  00010	81 f9 00 10 00
	00		 cmp	 ecx, 4096		; 00001000H
  00016	72 12		 jb	 SHORT $LN12@deallocate

; 205  :     const uintptr_t _Ptr_container   = _Ptr_user[-1];

  00018	8b 50 fc	 mov	 edx, DWORD PTR [eax-4]
  0001b	83 c1 23	 add	 ecx, 35			; 00000023H

; 206  : 
; 207  :     // If the following asserts, it likely means that we are performing
; 208  :     // an aligned delete on memory coming from an unaligned allocation.
; 209  :     _STL_ASSERT(_Ptr_user[-2] == _Big_allocation_sentinel, "invalid argument");
; 210  : 
; 211  :     // Extra paranoia on aligned allocation/deallocation; ensure _Ptr_container is
; 212  :     // in range [_Min_back_shift, _Non_user_size]
; 213  : #ifdef _DEBUG
; 214  :     constexpr uintptr_t _Min_back_shift = 2 * sizeof(void*);
; 215  : #else // ^^^ defined(_DEBUG) / !defined(_DEBUG) vvv
; 216  :     constexpr uintptr_t _Min_back_shift = sizeof(void*);
; 217  : #endif // ^^^ !defined(_DEBUG) ^^^
; 218  :     const uintptr_t _Back_shift = reinterpret_cast<uintptr_t>(_Ptr) - _Ptr_container;

  0001e	2b c2		 sub	 eax, edx

; 219  :     _STL_VERIFY(_Back_shift >= _Min_back_shift && _Back_shift <= _Non_user_size, "invalid argument");

  00020	83 c0 fc	 add	 eax, -4			; fffffffcH
  00023	83 f8 1f	 cmp	 eax, 31			; 0000001fH
  00026	77 10		 ja	 SHORT $LN11@deallocate

; 220  :     _Ptr = reinterpret_cast<void*>(_Ptr_container);

  00028	8b c2		 mov	 eax, edx
$LN12@deallocate:

; 289  :         ::operator delete(_Ptr, _Bytes);

  0002a	51		 push	 ecx
  0002b	50		 push	 eax
  0002c	e8 00 00 00 00	 call	 ??3@YAXPAXI@Z		; operator delete
  00031	83 c4 08	 add	 esp, 8

; 986  :     }

  00034	5d		 pop	 ebp
  00035	c2 08 00	 ret	 8
$LN11@deallocate:

; 219  :     _STL_VERIFY(_Back_shift >= _Min_back_shift && _Back_shift <= _Non_user_size, "invalid argument");

  00038	6a 00		 push	 0
  0003a	6a 00		 push	 0
  0003c	6a 00		 push	 0
  0003e	6a 00		 push	 0
  00040	6a 00		 push	 0
  00042	e8 00 00 00 00	 call	 __invoke_watson
$LN15@deallocate:
  00047	cc		 int	 3
?deallocate@?$allocator@PAUSEffectDamage@CInstanceBase@@@std@@QAEXQAPAUSEffectDamage@CInstanceBase@@I@Z ENDP ; std::allocator<CInstanceBase::SEffectDamage *>::deallocate
_TEXT	ENDS
; Function compile flags: /Ogtp
; File C:\Program Files\Microsoft Visual Studio\2022\Community\VC\Tools\MSVC\14.44.35207\include\deque
;	COMDAT ?_Map_distance@?$deque@USEffectDamage@CInstanceBase@@V?$allocator@USEffectDamage@CInstanceBase@@@std@@@std@@ABEHXZ
_TEXT	SEGMENT
?_Map_distance@?$deque@USEffectDamage@CInstanceBase@@V?$allocator@USEffectDamage@CInstanceBase@@@std@@@std@@ABEHXZ PROC ; std::deque<CInstanceBase::SEffectDamage,std::allocator<CInstanceBase::SEffectDamage> >::_Map_distance, COMDAT
; _this$ = ecx

; 1762 :         return static_cast<_Map_difference_type>(_Get_data()._Mapsize);

  00000	8b 41 08	 mov	 eax, DWORD PTR [ecx+8]

; 1763 :     }

  00003	c3		 ret	 0
?_Map_distance@?$deque@USEffectDamage@CInstanceBase@@V?$allocator@USEffectDamage@CInstanceBase@@@std@@@std@@ABEHXZ ENDP ; std::deque<CInstanceBase::SEffectDamage,std::allocator<CInstanceBase::SEffectDamage> >::_Map_distance
_TEXT	ENDS
; Function compile flags: /Ogtp
; File C:\Program Files\Microsoft Visual Studio\2022\Community\VC\Tools\MSVC\14.44.35207\include\deque
;	COMDAT ?_Mysize@?$deque@USEffectDamage@CInstanceBase@@V?$allocator@USEffectDamage@CInstanceBase@@@std@@@std@@ABEABIXZ
_TEXT	SEGMENT
?_Mysize@?$deque@USEffectDamage@CInstanceBase@@V?$allocator@USEffectDamage@CInstanceBase@@@std@@@std@@ABEABIXZ PROC ; std::deque<CInstanceBase::SEffectDamage,std::allocator<CInstanceBase::SEffectDamage> >::_Mysize, COMDAT
; _this$ = ecx

; 1758 :         return _Get_data()._Mysize;

  00000	8d 41 10	 lea	 eax, DWORD PTR [ecx+16]

; 1759 :     }

  00003	c3		 ret	 0
?_Mysize@?$deque@USEffectDamage@CInstanceBase@@V?$allocator@USEffectDamage@CInstanceBase@@@std@@@std@@ABEABIXZ ENDP ; std::deque<CInstanceBase::SEffectDamage,std::allocator<CInstanceBase::SEffectDamage> >::_Mysize
_TEXT	ENDS
; Function compile flags: /Ogtp
; File C:\Program Files\Microsoft Visual Studio\2022\Community\VC\Tools\MSVC\14.44.35207\include\deque
;	COMDAT ?_Mysize@?$deque@USEffectDamage@CInstanceBase@@V?$allocator@USEffectDamage@CInstanceBase@@@std@@@std@@AAEAAIXZ
_TEXT	SEGMENT
?_Mysize@?$deque@USEffectDamage@CInstanceBase@@V?$allocator@USEffectDamage@CInstanceBase@@@std@@@std@@AAEAAIXZ PROC ; std::deque<CInstanceBase::SEffectDamage,std::allocator<CInstanceBase::SEffectDamage> >::_Mysize, COMDAT
; _this$ = ecx

; 1754 :         return _Get_data()._Mysize;

  00000	8d 41 10	 lea	 eax, DWORD PTR [ecx+16]

; 1755 :     }

  00003	c3		 ret	 0
?_Mysize@?$deque@USEffectDamage@CInstanceBase@@V?$allocator@USEffectDamage@CInstanceBase@@@std@@@std@@AAEAAIXZ ENDP ; std::deque<CInstanceBase::SEffectDamage,std::allocator<CInstanceBase::SEffectDamage> >::_Mysize
_TEXT	ENDS
; Function compile flags: /Ogtp
; File C:\Program Files\Microsoft Visual Studio\2022\Community\VC\Tools\MSVC\14.44.35207\include\deque
;	COMDAT ?_Myoff@?$deque@USEffectDamage@CInstanceBase@@V?$allocator@USEffectDamage@CInstanceBase@@@std@@@std@@AAEAAIXZ
_TEXT	SEGMENT
?_Myoff@?$deque@USEffectDamage@CInstanceBase@@V?$allocator@USEffectDamage@CInstanceBase@@@std@@@std@@AAEAAIXZ PROC ; std::deque<CInstanceBase::SEffectDamage,std::allocator<CInstanceBase::SEffectDamage> >::_Myoff, COMDAT
; _this$ = ecx

; 1746 :         return _Get_data()._Myoff;

  00000	8d 41 0c	 lea	 eax, DWORD PTR [ecx+12]

; 1747 :     }

  00003	c3		 ret	 0
?_Myoff@?$deque@USEffectDamage@CInstanceBase@@V?$allocator@USEffectDamage@CInstanceBase@@@std@@@std@@AAEAAIXZ ENDP ; std::deque<CInstanceBase::SEffectDamage,std::allocator<CInstanceBase::SEffectDamage> >::_Myoff
_TEXT	ENDS
; Function compile flags: /Ogtp
; File C:\Program Files\Microsoft Visual Studio\2022\Community\VC\Tools\MSVC\14.44.35207\include\deque
;	COMDAT ?_Mapsize@?$deque@USEffectDamage@CInstanceBase@@V?$allocator@USEffectDamage@CInstanceBase@@@std@@@std@@AAEAAIXZ
_TEXT	SEGMENT
?_Mapsize@?$deque@USEffectDamage@CInstanceBase@@V?$allocator@USEffectDamage@CInstanceBase@@@std@@@std@@AAEAAIXZ PROC ; std::deque<CInstanceBase::SEffectDamage,std::allocator<CInstanceBase::SEffectDamage> >::_Mapsize, COMDAT
; _this$ = ecx

; 1738 :         return _Get_data()._Mapsize;

  00000	8d 41 08	 lea	 eax, DWORD PTR [ecx+8]

; 1739 :     }

  00003	c3		 ret	 0
?_Mapsize@?$deque@USEffectDamage@CInstanceBase@@V?$allocator@USEffectDamage@CInstanceBase@@@std@@@std@@AAEAAIXZ ENDP ; std::deque<CInstanceBase::SEffectDamage,std::allocator<CInstanceBase::SEffectDamage> >::_Mapsize
_TEXT	ENDS
; Function compile flags: /Ogtp
; File C:\Program Files\Microsoft Visual Studio\2022\Community\VC\Tools\MSVC\14.44.35207\include\xmemory
;	COMDAT ?deallocate@?$allocator@USEffectDamage@CInstanceBase@@@std@@QAEXQAUSEffectDamage@CInstanceBase@@I@Z
_TEXT	SEGMENT
__Ptr$ = 8						; size = 4
__Count$dead$ = 12					; size = 4
?deallocate@?$allocator@USEffectDamage@CInstanceBase@@@std@@QAEXQAUSEffectDamage@CInstanceBase@@I@Z PROC ; std::allocator<CInstanceBase::SEffectDamage>::deallocate, COMDAT
; _this$dead$ = ecx

; 982  :     _CONSTEXPR20 void deallocate(_Ty* const _Ptr, const size_t _Count) noexcept /* strengthened */ {

  00000	55		 push	 ebp
  00001	8b ec		 mov	 ebp, esp

; 289  :         ::operator delete(_Ptr, _Bytes);

  00003	6a 18		 push	 24			; 00000018H
  00005	ff 75 08	 push	 DWORD PTR __Ptr$[ebp]
  00008	e8 00 00 00 00	 call	 ??3@YAXPAXI@Z		; operator delete
  0000d	83 c4 08	 add	 esp, 8

; 983  :         _STL_ASSERT(_Ptr != nullptr || _Count == 0, "null pointer cannot point to a block of non-zero size");
; 984  :         // no overflow check on the following multiply; we assume _Allocate did that check
; 985  :         _STD _Deallocate<_New_alignof<_Ty>>(_Ptr, sizeof(_Ty) * _Count);
; 986  :     }

  00010	5d		 pop	 ebp
  00011	c2 08 00	 ret	 8
?deallocate@?$allocator@USEffectDamage@CInstanceBase@@@std@@QAEXQAUSEffectDamage@CInstanceBase@@I@Z ENDP ; std::allocator<CInstanceBase::SEffectDamage>::deallocate
_TEXT	ENDS
; Function compile flags: /Ogtp
; File C:\Program Files\Microsoft Visual Studio\2022\Community\VC\Tools\MSVC\14.44.35207\include\xmemory
;	COMDAT ??$destroy_at@USEffectDamage@CInstanceBase@@@std@@YAXQAUSEffectDamage@CInstanceBase@@@Z
_TEXT	SEGMENT
??$destroy_at@USEffectDamage@CInstanceBase@@@std@@YAXQAUSEffectDamage@CInstanceBase@@@Z PROC ; std::destroy_at<CInstanceBase::SEffectDamage>, COMDAT
; __Location$dead$ = ecx

; 331  : #if _HAS_CXX20
; 332  :     if constexpr (is_array_v<_Ty>) {
; 333  :         _STD _Destroy_range(_STD begin(*_Location), _STD end(*_Location));
; 334  :     } else
; 335  : #endif // _HAS_CXX20
; 336  :     {
; 337  :         _Location->~_Ty();
; 338  :     }
; 339  : }

  00000	c2 00 00	 ret	 0
??$destroy_at@USEffectDamage@CInstanceBase@@@std@@YAXQAUSEffectDamage@CInstanceBase@@@Z ENDP ; std::destroy_at<CInstanceBase::SEffectDamage>
_TEXT	ENDS
; Function compile flags: /Ogtp
; File C:\Program Files\Microsoft Visual Studio\2022\Community\VC\Tools\MSVC\14.44.35207\include\xmemory
;	COMDAT ??$_Unfancy@USEffectDamage@CInstanceBase@@@std@@YAPAUSEffectDamage@CInstanceBase@@PAU12@@Z
_TEXT	SEGMENT
??$_Unfancy@USEffectDamage@CInstanceBase@@@std@@YAPAUSEffectDamage@CInstanceBase@@PAU12@@Z PROC ; std::_Unfancy<CInstanceBase::SEffectDamage>, COMDAT
; __Ptr$ = ecx

; 69   :     return _Ptr;

  00000	8b c1		 mov	 eax, ecx

; 70   : }

  00002	c3		 ret	 0
??$_Unfancy@USEffectDamage@CInstanceBase@@@std@@YAPAUSEffectDamage@CInstanceBase@@PAU12@@Z ENDP ; std::_Unfancy<CInstanceBase::SEffectDamage>
_TEXT	ENDS
; Function compile flags: /Ogtp
; File C:\Program Files\Microsoft Visual Studio\2022\Community\VC\Tools\MSVC\14.44.35207\include\deque
;	COMDAT ?_Getblock@?$_Deque_val@U?$_Deque_simple_types@USEffectDamage@CInstanceBase@@@std@@@std@@QBEHI@Z
_TEXT	SEGMENT
__Off$ = 8						; size = 4
?_Getblock@?$_Deque_val@U?$_Deque_simple_types@USEffectDamage@CInstanceBase@@@std@@@std@@QBEHI@Z PROC ; std::_Deque_val<std::_Deque_simple_types<CInstanceBase::SEffectDamage> >::_Getblock, COMDAT
; _this$ = ecx

; 570  :     _Map_difference_type _Getblock(size_type _Off) const noexcept {

  00000	55		 push	 ebp
  00001	8b ec		 mov	 ebp, esp

; 571  :         // NB: _Mapsize and _Block_size are guaranteed to be powers of 2
; 572  :         return static_cast<_Map_difference_type>((_Off / _Block_size) & (_Mapsize - 1));

  00003	8b 41 08	 mov	 eax, DWORD PTR [ecx+8]
  00006	48		 dec	 eax
  00007	23 45 08	 and	 eax, DWORD PTR __Off$[ebp]

; 573  :     }

  0000a	5d		 pop	 ebp
  0000b	c2 04 00	 ret	 4
?_Getblock@?$_Deque_val@U?$_Deque_simple_types@USEffectDamage@CInstanceBase@@@std@@@std@@QBEHI@Z ENDP ; std::_Deque_val<std::_Deque_simple_types<CInstanceBase::SEffectDamage> >::_Getblock
_TEXT	ENDS
; Function compile flags: /Ogtp
; File C:\Program Files\Microsoft Visual Studio\2022\Community\VC\Tools\MSVC\14.44.35207\include\deque
;	COMDAT ?_Get_data@?$deque@USEffectDamage@CInstanceBase@@V?$allocator@USEffectDamage@CInstanceBase@@@std@@@std@@ABEABV?$_Deque_val@U?$_Deque_simple_types@USEffectDamage@CInstanceBase@@@std@@@2@XZ
_TEXT	SEGMENT
?_Get_data@?$deque@USEffectDamage@CInstanceBase@@V?$allocator@USEffectDamage@CInstanceBase@@@std@@@std@@ABEABV?$_Deque_val@U?$_Deque_simple_types@USEffectDamage@CInstanceBase@@@std@@@2@XZ PROC ; std::deque<CInstanceBase::SEffectDamage,std::allocator<CInstanceBase::SEffectDamage> >::_Get_data, COMDAT
; _this$ = ecx

; 1726 :         return _Mypair._Myval2;

  00000	8b c1		 mov	 eax, ecx

; 1727 :     }

  00002	c3		 ret	 0
?_Get_data@?$deque@USEffectDamage@CInstanceBase@@V?$allocator@USEffectDamage@CInstanceBase@@@std@@@std@@ABEABV?$_Deque_val@U?$_Deque_simple_types@USEffectDamage@CInstanceBase@@@std@@@2@XZ ENDP ; std::deque<CInstanceBase::SEffectDamage,std::allocator<CInstanceBase::SEffectDamage> >::_Get_data
_TEXT	ENDS
; Function compile flags: /Ogtp
; File C:\Program Files\Microsoft Visual Studio\2022\Community\VC\Tools\MSVC\14.44.35207\include\xmemory
;	COMDAT ?deallocate@?$allocator@U_Container_proxy@std@@@std@@QAEXQAU_Container_proxy@2@I@Z
_TEXT	SEGMENT
__Ptr$ = 8						; size = 4
__Count$dead$ = 12					; size = 4
?deallocate@?$allocator@U_Container_proxy@std@@@std@@QAEXQAU_Container_proxy@2@I@Z PROC ; std::allocator<std::_Container_proxy>::deallocate, COMDAT
; _this$dead$ = ecx

; 982  :     _CONSTEXPR20 void deallocate(_Ty* const _Ptr, const size_t _Count) noexcept /* strengthened */ {

  00000	55		 push	 ebp
  00001	8b ec		 mov	 ebp, esp

; 289  :         ::operator delete(_Ptr, _Bytes);

  00003	6a 08		 push	 8
  00005	ff 75 08	 push	 DWORD PTR __Ptr$[ebp]
  00008	e8 00 00 00 00	 call	 ??3@YAXPAXI@Z		; operator delete
  0000d	83 c4 08	 add	 esp, 8

; 983  :         _STL_ASSERT(_Ptr != nullptr || _Count == 0, "null pointer cannot point to a block of non-zero size");
; 984  :         // no overflow check on the following multiply; we assume _Allocate did that check
; 985  :         _STD _Deallocate<_New_alignof<_Ty>>(_Ptr, sizeof(_Ty) * _Count);
; 986  :     }

  00010	5d		 pop	 ebp
  00011	c2 08 00	 ret	 8
?deallocate@?$allocator@U_Container_proxy@std@@@std@@QAEXQAU_Container_proxy@2@I@Z ENDP ; std::allocator<std::_Container_proxy>::deallocate
_TEXT	ENDS
; Function compile flags: /Ogtp
; File C:\Program Files\Microsoft Visual Studio\2022\Community\VC\Tools\MSVC\14.44.35207\include\xmemory
;	COMDAT ?_Orphan_all@_Container_base12@std@@QAEXXZ
_TEXT	SEGMENT
?_Orphan_all@_Container_base12@std@@QAEXXZ PROC		; std::_Container_base12::_Orphan_all, COMDAT
; _this$dead$ = ecx

; 1393 : #if _ITERATOR_DEBUG_LEVEL == 2
; 1394 : #if _HAS_CXX20
; 1395 :     if (_STD is_constant_evaluated()) {
; 1396 :         _Orphan_all_unlocked_v3();
; 1397 :     } else
; 1398 : #endif // _HAS_CXX20
; 1399 :     {
; 1400 :         _Orphan_all_locked_v3();
; 1401 :     }
; 1402 : #endif // _ITERATOR_DEBUG_LEVEL == 2
; 1403 : }

  00000	c2 00 00	 ret	 0
?_Orphan_all@_Container_base12@std@@QAEXXZ ENDP		; std::_Container_base12::_Orphan_all
_TEXT	ENDS
; Function compile flags: /Ogtp
; File C:\Program Files\Microsoft Visual Studio\2022\Community\VC\Tools\MSVC\14.44.35207\include\xmemory
;	COMDAT ??0_Container_base12@std@@QAE@XZ
_TEXT	SEGMENT
??0_Container_base12@std@@QAE@XZ PROC			; std::_Container_base12::_Container_base12, COMDAT
; _this$ = ecx

; 1211 : 
; 1212 :     _Container_base12(const _Container_base12&)            = delete;
; 1213 :     _Container_base12& operator=(const _Container_base12&) = delete;
; 1214 : 
; 1215 :     _CONSTEXPR20 void _Orphan_all() noexcept;
; 1216 :     _CONSTEXPR20 void _Swap_proxy_and_iterators(_Container_base12&) noexcept;
; 1217 : 
; 1218 :     template <class _Alloc>
; 1219 :     _CONSTEXPR20 void _Alloc_proxy(_Alloc&& _Al) {
; 1220 :         _Container_proxy* const _New_proxy = _Unfancy(_Al.allocate(1));
; 1221 :         _Construct_in_place(*_New_proxy, this);
; 1222 :         _Myproxy            = _New_proxy;
; 1223 :         _New_proxy->_Mycont = this;
; 1224 :     }
; 1225 : 
; 1226 :     template <class _Alloc>
; 1227 :     _CONSTEXPR20 void _Reload_proxy(_Alloc&& _Old_alloc, _Alloc&& _New_alloc) {
; 1228 :         // pre: no iterators refer to the existing proxy
; 1229 :         _Container_proxy* const _New_proxy = _Unfancy(_New_alloc.allocate(1));
; 1230 :         _Construct_in_place(*_New_proxy, this);
; 1231 :         _New_proxy->_Mycont = this;
; 1232 :         _Delete_plain_internal(_Old_alloc, _STD exchange(_Myproxy, _New_proxy));
; 1233 :     }
; 1234 : 
; 1235 :     _Container_proxy* _Myproxy = nullptr;

  00000	c7 01 00 00 00
	00		 mov	 DWORD PTR [ecx], 0
  00006	8b c1		 mov	 eax, ecx
  00008	c3		 ret	 0
??0_Container_base12@std@@QAE@XZ ENDP			; std::_Container_base12::_Container_base12
_TEXT	ENDS
; Function compile flags: /Ogtp
; File C:\Program Files\Microsoft Visual Studio\2022\Community\VC\Tools\MSVC\14.44.35207\include\type_traits
;	COMDAT ??$forward@PAU_Container_base12@std@@@std@@YA$$QAPAU_Container_base12@0@AAPAU10@@Z
_TEXT	SEGMENT
??$forward@PAU_Container_base12@std@@@std@@YA$$QAPAU_Container_base12@0@AAPAU10@@Z PROC ; std::forward<std::_Container_base12 *>, COMDAT
; __Arg$ = ecx

; 1502 :     return static_cast<_Ty&&>(_Arg);

  00000	8b c1		 mov	 eax, ecx

; 1503 : }

  00002	c3		 ret	 0
??$forward@PAU_Container_base12@std@@@std@@YA$$QAPAU_Container_base12@0@AAPAU10@@Z ENDP ; std::forward<std::_Container_base12 *>
_TEXT	ENDS
; Function compile flags: /Ogtp
; File C:\Program Files\Microsoft Visual Studio\2022\Community\VC\Tools\MSVC\14.44.35207\include\xutility
; File C:\Program Files\Microsoft Visual Studio\2022\Community\VC\Tools\MSVC\14.44.35207\include\xmemory
; File C:\Program Files\Microsoft Visual Studio\2022\Community\VC\Tools\MSVC\14.44.35207\include\xutility
; File C:\Program Files\Microsoft Visual Studio\2022\Community\VC\Tools\MSVC\14.44.35207\include\xmemory
; File C:\Program Files\Microsoft Visual Studio\2022\Community\VC\Tools\MSVC\14.44.35207\include\xutility
;	COMDAT ??$construct_at@U_Container_proxy@std@@PAU_Container_base12@2@@std@@YAPAU_Container_proxy@0@QAU10@$$QAPAU_Container_base12@0@@Z
_TEXT	SEGMENT
??$construct_at@U_Container_proxy@std@@PAU_Container_base12@2@@std@@YAPAU_Container_proxy@0@QAU10@$$QAPAU_Container_base12@0@@Z PROC ; std::construct_at<std::_Container_proxy,std::_Container_base12 *>, COMDAT
; __Location$ = ecx
; _<_Args_0>$ = edx
; File C:\Program Files\Microsoft Visual Studio\2022\Community\VC\Tools\MSVC\14.44.35207\include\xmemory

; 1202 :     _CONSTEXPR20 _Container_proxy(_Container_base12* _Mycont_) noexcept : _Mycont(_Mycont_) {}

  00000	8b 02		 mov	 eax, DWORD PTR [edx]
  00002	89 01		 mov	 DWORD PTR [ecx], eax
; File C:\Program Files\Microsoft Visual Studio\2022\Community\VC\Tools\MSVC\14.44.35207\include\xutility

; 463  :     _MSVC_CONSTEXPR return ::new (static_cast<void*>(_Location)) _Ty(_STD forward<_Types>(_Args)...);

  00004	8b c1		 mov	 eax, ecx
; File C:\Program Files\Microsoft Visual Studio\2022\Community\VC\Tools\MSVC\14.44.35207\include\xmemory

; 1205 :     mutable _Iterator_base12* _Myfirstiter = nullptr;

  00006	c7 41 04 00 00
	00 00		 mov	 DWORD PTR [ecx+4], 0
; File C:\Program Files\Microsoft Visual Studio\2022\Community\VC\Tools\MSVC\14.44.35207\include\xutility

; 464  : }

  0000d	c3		 ret	 0
??$construct_at@U_Container_proxy@std@@PAU_Container_base12@2@@std@@YAPAU_Container_proxy@0@QAU10@$$QAPAU_Container_base12@0@@Z ENDP ; std::construct_at<std::_Container_proxy,std::_Container_base12 *>
_TEXT	ENDS
; Function compile flags: /Ogtp
; File C:\Program Files\Microsoft Visual Studio\2022\Community\VC\Tools\MSVC\14.44.35207\include\type_traits
;	COMDAT ??$addressof@U_Container_proxy@std@@@std@@YAPAU_Container_proxy@0@AAU10@@Z
_TEXT	SEGMENT
??$addressof@U_Container_proxy@std@@@std@@YAPAU_Container_proxy@0@AAU10@@Z PROC ; std::addressof<std::_Container_proxy>, COMDAT
; __Val$ = ecx

; 1525 :     return __builtin_addressof(_Val);

  00000	8b c1		 mov	 eax, ecx

; 1526 : }

  00002	c3		 ret	 0
??$addressof@U_Container_proxy@std@@@std@@YAPAU_Container_proxy@0@AAU10@@Z ENDP ; std::addressof<std::_Container_proxy>
_TEXT	ENDS
; Function compile flags: /Ogtp
; File C:\Program Files\Microsoft Visual Studio\2022\Community\VC\Tools\MSVC\14.44.35207\include\xmemory
;	COMDAT ??0_Container_proxy@std@@QAE@PAU_Container_base12@1@@Z
_TEXT	SEGMENT
__Mycont_$ = 8						; size = 4
??0_Container_proxy@std@@QAE@PAU_Container_base12@1@@Z PROC ; std::_Container_proxy::_Container_proxy, COMDAT
; _this$ = ecx

; 1202 :     _CONSTEXPR20 _Container_proxy(_Container_base12* _Mycont_) noexcept : _Mycont(_Mycont_) {}

  00000	55		 push	 ebp
  00001	8b ec		 mov	 ebp, esp
  00003	8b 45 08	 mov	 eax, DWORD PTR __Mycont_$[ebp]
  00006	89 01		 mov	 DWORD PTR [ecx], eax
  00008	8b c1		 mov	 eax, ecx

; 1203 : 
; 1204 :     const _Container_base12* _Mycont       = nullptr;
; 1205 :     mutable _Iterator_base12* _Myfirstiter = nullptr;

  0000a	c7 41 04 00 00
	00 00		 mov	 DWORD PTR [ecx+4], 0

; 1202 :     _CONSTEXPR20 _Container_proxy(_Container_base12* _Mycont_) noexcept : _Mycont(_Mycont_) {}

  00011	5d		 pop	 ebp
  00012	c2 04 00	 ret	 4
??0_Container_proxy@std@@QAE@PAU_Container_base12@1@@Z ENDP ; std::_Container_proxy::_Container_proxy
_TEXT	ENDS
; Function compile flags: /Ogtp
; File C:\Program Files\Microsoft Visual Studio\2022\Community\VC\Tools\MSVC\14.44.35207\include\xutility
;	COMDAT ??$_Construct_in_place@U_Container_proxy@std@@PAU_Container_base12@2@@std@@YAXAAU_Container_proxy@0@$$QAPAU_Container_base12@0@@Z
_TEXT	SEGMENT
??$_Construct_in_place@U_Container_proxy@std@@PAU_Container_base12@2@@std@@YAXAAU_Container_proxy@0@$$QAPAU_Container_base12@0@@Z PROC ; std::_Construct_in_place<std::_Container_proxy,std::_Container_base12 *>, COMDAT
; __Obj$ = ecx
; _<_Args_0>$ = edx

; 470  : #if _HAS_CXX20
; 471  :     if (_STD is_constant_evaluated()) {
; 472  :         _STD construct_at(_STD addressof(_Obj), _STD forward<_Types>(_Args)...);
; 473  :     } else
; 474  : #endif // _HAS_CXX20
; 475  :     {
; 476  :         ::new (static_cast<void*>(_STD addressof(_Obj))) _Ty(_STD forward<_Types>(_Args)...);
; 477  :     }
; 478  : }

  00000	8b 02		 mov	 eax, DWORD PTR [edx]
  00002	89 01		 mov	 DWORD PTR [ecx], eax
  00004	c7 41 04 00 00
	00 00		 mov	 DWORD PTR [ecx+4], 0
  0000b	c3		 ret	 0
??$_Construct_in_place@U_Container_proxy@std@@PAU_Container_base12@2@@std@@YAXAAU_Container_proxy@0@$$QAPAU_Container_base12@0@@Z ENDP ; std::_Construct_in_place<std::_Container_proxy,std::_Container_base12 *>
_TEXT	ENDS
END
