; Listing generated by Microsoft (R) Optimizing Compiler Version 19.44.35219.0 

	TITLE	c:\anka2project\anka2project\source\binary\vs_files\userinterface\release\instancebaseeffect.obj
	.686P
	.XMM
	include listing.inc
	.model	flat

INCLUDELIB OLDNAMES

PUBLIC	?ms_fHorseDustGap@CInstanceBase@@1MA		; CInstanceBase::ms_fHorseDustGap
PUBLIC	?ms_fDustGap@CInstanceBase@@1MA			; CInstanceBase::ms_fDustGap
PUBLIC	?ms_adwCRCAffectEffect@CInstanceBase@@1PAKA	; CInstanceBase::ms_adwCRCAffectEffect
PUBLIC	??_C@_0M@DCGGAEPD@npclist?4txt@			; `string'
PUBLIC	??_C@_0BC@NAJLHID@sound?1ui?1drop?4wav@		; `string'
PUBLIC	??_C@_0BP@BMHKPOHF@sound?1ui?1equip_ring_amulet?4wav@ ; `string'
PUBLIC	??_C@_0BP@PMFHICHL@sound?1ui?1equip_metal_armor?4wav@ ; `string'
PUBLIC	??_C@_0BH@JDLOIICI@sound?1ui?1equip_bow?4wav@	; `string'
PUBLIC	??_C@_0CA@COJJICKC@sound?1ui?1equip_metal_weapon?4wav@ ; `string'
PUBLIC	??_C@_0BI@HPEEMGIC@sound?1ui?1eat_potion?4wav@	; `string'
PUBLIC	??_C@_0BK@KFMADICD@sound?1ui?1potal_scroll?4wav@ ; `string'
PUBLIC	??_C@_0DG@MNIDINPI@d?3?1ymir?5work?1effect?1etc?1appear_@ ; `string'
PUBLIC	??_C@_05BBIGKCLJ@Bip01@				; `string'
PUBLIC	??_C@_0DD@JEPOMPGJ@d?3?1ymir?5work?1effect?1etc?1appear_@ ; `string'
PUBLIC	??_C@_0DG@KJDCFPII@d?3?1ymir?5work?1effect?1hit?1blow_fl@ ; `string'
PUBLIC	??_C@_0BB@BPFBADGN@equip_right_hand@		; `string'
PUBLIC	??_C@_0DE@OJIBILHC@d?3?1ymir?5work?1effect?1hit?1blow_fl@ ; `string'
PUBLIC	??_C@_0DE@FPADLJBL@d?3?1ymir?5work?1effect?1hit?1blow_fl@ ; `string'
PUBLIC	??_C@_0DJ@JDHCNJPF@d?3?1ymir?5work?1effect?1hit?1blow_el@ ; `string'
PUBLIC	??_C@_0M@OLLEIOHA@equip_right@			; `string'
PUBLIC	??_C@_0DH@DBPGLNCF@d?3?1ymir?5work?1effect?1hit?1blow_el@ ; `string'
PUBLIC	??_C@_0DH@IHHEIPEM@d?3?1ymir?5work?1effect?1hit?1blow_el@ ; `string'
PUBLIC	??_C@_0CN@NIGJEOKG@d?3?1ymir?5work?1effect?1etc?1boss_ef@ ; `string'
PUBLIC	??_C@_0CP@IEGOOEJL@d?3?1ymir?5work?1effect?1etc?1levelup@ ; `string'
PUBLIC	??_C@_0CO@BGKHBBGO@d?3?1ymir?5work?1effect?1etc?1skillup@ ; `string'
PUBLIC	??_C@_0CM@IHKFDKKE@d?3?1ymir?5work?1effect?1etc?1empire?1@ ; `string'
PUBLIC	??_C@_0CM@BDBEIAK@d?3?1ymir?5work?1effect?1etc?1empire?1@ ; `string'
PUBLIC	??_C@_0CM@MKGNJLKP@d?3?1ymir?5work?1effect?1etc?1empire?1@ ; `string'
PUBLIC	??_C@_0DD@EOBPHODL@d?3?1ymir?5work?1pc?1warrior?1effect?1@ ; `string'
PUBLIC	??_C@_0DD@CMEIIDFJ@d?3?1ymir?5work?1pc?1warrior?1effect?1@ ; `string'
PUBLIC	??_C@_0DE@KJMEEODN@d?3?1ymir?5work?1effect?1hit?1blow_po@ ; `string'
PUBLIC	??_C@_0CE@FPDCDHKE@d?3?1ymir?5work?1effect?1affect?1slow@ ; `string'
PUBLIC	??_C@_0CL@IPGAJMDP@d?3?1ymir?5work?1effect?1etc?1stun?1st@ ; `string'
PUBLIC	??_C@_0L@GHIHOBPC@Bip01?5Head@			; `string'
PUBLIC	??_C@_0CI@CBNNNGMC@d?3?1ymir?5work?1effect?1etc?1ready?1r@ ; `string'
PUBLIC	??_C@_0DG@JMJLCJCB@d?3?1ymir?5work?1pc?1warrior?1effect?1@ ; `string'
PUBLIC	??_C@_0DE@JCKMOOOL@d?3?1ymir?5work?1pc?1assassin?1effect@ ; `string'
PUBLIC	??_C@_0CN@LGPPPMOM@d?3?1ymir?5work?1pc?1sura?1effect?1gwi@ ; `string'
PUBLIC	??_C@_0BA@LANKCOK@Bip01?5R?5Finger2@		; `string'
PUBLIC	??_C@_0CK@CIALJCLA@d?3?1ymir?5work?1pc?1sura?1effect?1fea@ ; `string'
PUBLIC	??_C@_0CN@LNFALLNB@d?3?1ymir?5work?1pc?1sura?1effect?1jum@ ; `string'
PUBLIC	??_C@_0CO@IDBDIMLN@d?3?1ymir?5work?1pc?1shaman?1effect?13@ ; `string'
PUBLIC	??_C@_0CM@LPKODKL@d?3?1ymir?5work?1pc?1shaman?1effect?1b@ ; `string'
PUBLIC	??_C@_0DB@JOKHCNEG@d?3?1ymir?5work?1pc?1shaman?1effect?11@ ; `string'
PUBLIC	??_C@_0CN@FIKFMJKE@d?3?1ymir?5work?1pc?1sura?1effect?1heu@ ; `string'
PUBLIC	??_C@_0CN@OFCKCPPJ@d?3?1ymir?5work?1pc?1sura?1effect?1muy@ ; `string'
PUBLIC	??_C@_0DC@JEFOLNDJ@d?3?1ymir?5work?1effect?1hit?1blow_fl@ ; `string'
PUBLIC	??_C@_0DA@CCOAHJOP@d?3?1ymir?5work?1pc?1shaman?1effect?16@ ; `string'
PUBLIC	??_C@_0N@NFGLJLMH@Bip01?5R?5Hand@		; `string'
PUBLIC	??_C@_0DC@GCFCFGML@d?3?1ymir?5work?1pc?1shaman?1effect?1j@ ; `string'
PUBLIC	??_C@_0N@OCIKHMFE@Bip01?5L?5Hand@		; `string'
PUBLIC	??_C@_0CM@CCAFDLBP@d?3?1ymir?5work?1pc?1sura?1effect?1pab@ ; `string'
PUBLIC	??_C@_0DE@OPIDGJBC@d?3?1ymir?5work?1effect?1etc?1guild_w@ ; `string'
PUBLIC	??_C@_0DF@ELFLIELL@d?3?1ymir?5work?1effect?1etc?1guild_w@ ; `string'
PUBLIC	??_C@_0DH@IIDBMJBL@d?3?1ymir?5work?1effect?1etc?1guild_w@ ; `string'
PUBLIC	??_C@_0CL@OEFHPFHK@d?3?1ymir?5work?1effect?1autohunt?1au@ ; `string'
PUBLIC	??_C@_0CM@GNEGOGBH@d?3?1ymir?5work?1ui?1game?1staff_effe@ ; `string'
PUBLIC	??_C@_0CM@NAJCHPFI@d?3?1ymir?5work?1ui?1game?1staff_effe@ ; `string'
PUBLIC	??_C@_0CM@EBGEEMDH@d?3?1ymir?5work?1ui?1game?1staff_effe@ ; `string'
PUBLIC	??_C@_0CO@HACMINDF@d?3?1ymir?5work?1ui?1game?1staff_effe@ ; `string'
PUBLIC	??_C@_0DA@GECHCBE@D?3?1ymir?5work?1pc?1common?1effect?1s@ ; `string'
PUBLIC	??_C@_0M@LDILJIBN@PART_WEAPON@			; `string'
PUBLIC	??_C@_0DA@PHBEMAMB@D?3?1ymir?5work?1pc?1common?1effect?1s@ ; `string'
PUBLIC	??_C@_0DA@DMEIBDGE@D?3?1ymir?5work?1pc?1common?1effect?1s@ ; `string'
PUBLIC	??_C@_0DC@GAOGMCDD@D?3?1ymir?5work?1pc?1common?1effect?1s@ ; `string'
PUBLIC	??_C@_0BB@KENNFNCF@PART_WEAPON_LEFT@		; `string'
PUBLIC	??_C@_0DC@LJMGNAJP@D?3?1ymir?5work?1pc?1common?1effect?1s@ ; `string'
PUBLIC	??_C@_0DC@HFGMNAAB@D?3?1ymir?5work?1pc?1common?1effect?1s@ ; `string'
PUBLIC	??_C@_0DC@PLHHIACF@D?3?1ymir?5work?1pc?1common?1effect?1s@ ; `string'
PUBLIC	??_C@_0DC@CCFHJCIJ@D?3?1ymir?5work?1pc?1common?1effect?1s@ ; `string'
PUBLIC	??_C@_0DC@OOPNJCBH@D?3?1ymir?5work?1pc?1common?1effect?1s@ ; `string'
PUBLIC	??_C@_0DC@KIGMBDAN@D?3?1ymir?5work?1pc?1common?1effect?1s@ ; `string'
PUBLIC	??_C@_0DC@HBEMABKB@D?3?1ymir?5work?1pc?1common?1effect?1s@ ; `string'
PUBLIC	??_C@_0DC@LNOGABDP@D?3?1ymir?5work?1pc?1common?1effect?1s@ ; `string'
PUBLIC	??_C@_0DA@KPNIEGP@D?3?1ymir?5work?1pc?1common?1effect?1a@ ; `string'
PUBLIC	??_C@_0DA@PLKLDGLK@D?3?1ymir?5work?1pc?1common?1effect?1a@ ; `string'
PUBLIC	??_C@_0DA@DAPHOFBP@D?3?1ymir?5work?1pc?1common?1effect?1a@ ; `string'
PUBLIC	??_C@_0DE@CBDJIACC@D?3?1ymir?5work?1pc?1common?1effect?1a@ ; `string'
PUBLIC	??_C@_0DE@KHKNPCIM@D?3?1ymir?5work?1pc?1common?1effect?1a@ ; `string'
PUBLIC	??_C@_0CP@IMBNOLN@d?3?1ymir?5work?1pc?1common?1effect?1a@ ; `string'
PUBLIC	??_C@_0CC@GDMANCJ@D?3?1ymir?5work?1effect?1sword?1fms?4m@ ; `string'
PUBLIC	??_C@_0CF@FMCPLCFN@D?3?1ymir?5work?1effect?1sword?1tryto@ ; `string'
PUBLIC	??_C@_0CH@OJKFEBAD@D?3?1ymir?5work?1effect?1sword?1zatru@ ; `string'
PUBLIC	??_C@_0CC@PGBPPDJM@D?3?1ymir?5work?1effect?1sword?1lwi?4m@ ; `string'
PUBLIC	??_C@_0CH@JHALOLH@D?3?1ymir?5work?1effect?1sword?1brzeg@ ; `string'
PUBLIC	??_C@_0CF@PEOGOFEJ@D?3?1ymir?5work?1effect?1sword?1swiet@ ; `string'
PUBLIC	??_C@_0CC@MCAIMHNF@D?3?1ymir?5work?1effect?1sword?1rib?4m@ ; `string'
PUBLIC	??_C@_0CC@BIAIPDHH@D?3?1ymir?5work?1effect?1sword?1zal?4m@ ; `string'
PUBLIC	??_C@_0CG@KGPMPGPP@D?3?1ymir?5work?1effect?1sword?1jelon@ ; `string'
PUBLIC	??_C@_0CD@IFJBIMEB@D?3?1ymir?5work?1effect?1sword?1kruk?4@ ; `string'
PUBLIC	??_C@_0CH@PHJGNKLC@D?3?1ymir?5work?1effect?1sword?1diabl@ ; `string'
PUBLIC	??_C@_0CE@JAECJFJF@D?3?1ymir?5work?1effect?1sword?1antyk@ ; `string'
PUBLIC	??_C@_0CF@OBOLHPCK@D?3?1ymir?5work?1effect?1sword?1bambu@ ; `string'
PUBLIC	??_C@_0CG@FNICILCM@D?3?1ymir?5work?1effect?1sword?1szcze@ ; `string'
PUBLIC	??_C@_0CE@OCEPJPOD@D?3?1ymir?5work?1effect?1sword?1kozik@ ; `string'
PUBLIC	??_C@_0CH@FKBGCCDC@D?3?1ymir?5work?1effect?1sword?1skrzy@ ; `string'
PUBLIC	??_C@_0CI@GHHADAPC@D?3?1ymir?5work?1effect?1sword?1bezdu@ ; `string'
PUBLIC	??_C@_0CF@BHENGJGF@D?3?1ymir?5work?1effect?1sword?1jesio@ ; `string'
PUBLIC	??_C@_0CH@JOIHCIOK@D?3?1ymir?5work?1effect?1sword?1diabl@ ; `string'
PUBLIC	??_C@_0CI@MPPOJFLC@D?3?1ymir?5work?1effect?1sword?1pieki@ ; `string'
PUBLIC	??_C@_0CG@FNIDGDAD@d?3?1ymir?5work?1effect?1etc?1dust?1du@ ; `string'
PUBLIC	??_C@_0CO@FHOIMEIA@d?3?1ymir?5work?1effect?1etc?1dust?1ru@ ; `string'
PUBLIC	??_C@_0CO@GCOGPOPI@d?3?1ymir?5work?1effect?1hit?1blow_1?1@ ; `string'
PUBLIC	??_C@_0DE@KDBGJFJN@d?3?1ymir?5work?1effect?1etc?1recuper@ ; `string'
PUBLIC	??_C@_0DF@DGBAIPPG@d?3?1ymir?5work?1effect?1etc?1recuper@ ; `string'
PUBLIC	??_C@_0DG@KJEGMFD@d?3?1ymir?5work?1effect?1etc?1recuper@ ; `string'
PUBLIC	??_C@_0DH@DGDHOHHH@d?3?1ymir?5work?1effect?1etc?1recuper@ ; `string'
PUBLIC	??_C@_0DI@DJOLHMEJ@d?3?1ymir?5work?1effect?1etc?1recuper@ ; `string'
PUBLIC	??_C@_0DJ@LHDEGENC@d?3?1ymir?5work?1effect?1etc?1recuper@ ; `string'
PUBLIC	??_C@_0CM@KLIJIODA@d?3?1ymir?5work?1effect?1etc?1buff?1bu@ ; `string'
PUBLIC	??_C@_0CM@CNBNPMJO@d?3?1ymir?5work?1effect?1etc?1buff?1bu@ ; `string'
PUBLIC	??_C@_0CM@OGEBCPDL@d?3?1ymir?5work?1effect?1etc?1buff?1bu@ ; `string'
PUBLIC	??_C@_0CM@PLEEBPID@d?3?1ymir?5work?1effect?1etc?1buff?1bu@ ; `string'
PUBLIC	??_C@_0CM@LGIMLOII@d?3?1ymir?5work?1effect?1etc?1buff?1bu@ ; `string'
PUBLIC	??_C@_0CM@HNNAGNCN@d?3?1ymir?5work?1effect?1etc?1buff?1bu@ ; `string'
PUBLIC	??_C@_0CF@MCCGBFIH@d?3?1ymir?5work?1effect?1hit?1gwanton@ ; `string'
PUBLIC	??_C@_0DM@LMNPCMLO@d?3?1ymir?5work?1effect?1etc?1firecra@ ; `string'
PUBLIC	??_C@_0DA@OKHBFDHO@d?3?1ymir?5work?1effect?1etc?1firecra@ ; `string'
PUBLIC	??_C@_0CP@NMKNLCNB@d?3?1ymir?5work?1effect?1etc?1click?1c@ ; `string'
PUBLIC	??_C@_0DE@OKJDPEOH@d?3?1ymir?5work?1effect?1etc?1click?1c@ ; `string'
PUBLIC	??_C@_0CG@OFJICOGE@d?3?1ymir?5work?1effect?1etc?1stun?1st@ ; `string'
PUBLIC	??_C@_0CF@IGNMMICG@d?3?1ymir?5work?1effect?1hit?1critica@ ; `string'
PUBLIC	??_C@_0DC@ELCGDOJC@d?3?1ymir?5work?1effect?1affect?1dama@ ; `string'
PUBLIC	??_C@_0DF@NHKBGLCB@d?3?1ymir?5work?1effect?1affect?1dama@ ; `string'
PUBLIC	??_C@_0DC@PNDLOGJ@d?3?1ymir?5work?1effect?1affect?1dama@ ; `string'
PUBLIC	??_C@_0DE@OCLPDINL@d?3?1ymir?5work?1effect?1affect?1dama@ ; `string'
PUBLIC	??_C@_0DC@DFGPOAGN@d?3?1ymir?5work?1effect?1affect?1dama@ ; `string'
PUBLIC	??_C@_0DA@GCPGFOFF@d?3?1ymir?5work?1effect?1affect?1dama@ ; `string'
PUBLIC	??_C@_0DH@BALHLFPA@d?3?1ymir?5work?1effect?1affect?1dama@ ; `string'
PUBLIC	??_C@_0CM@KFAIMBLD@d?3?1ymir?5work?1effect?1hit?1percent@ ; `string'
PUBLIC	??_C@_0CM@CDJMLDBN@d?3?1ymir?5work?1effect?1hit?1percent@ ; `string'
PUBLIC	??_C@_0CM@OIMAGALI@d?3?1ymir?5work?1effect?1hit?1percent@ ; `string'
PUBLIC	??_C@_0DL@JAMGHMDJ@d?3?1ymir?5work?1effect?1battlepass?1@ ; `string'
PUBLIC	??_C@_0DM@MHMMIOAK@d?3?1ymir?5work?1effect?1battlepass?1@ ; `string'
PUBLIC	??_C@_0DO@BLNOCHAN@d?3?1ymir?5work?1effect?1battlepass?1@ ; `string'
PUBLIC	??_C@_0DP@PLKMBGLC@d?3?1ymir?5work?1effect?1battlepass?1@ ; `string'
PUBLIC	??_C@_0CM@GHEHNBJK@d?3?1ymir?5work?1effect?1hit?1gyeongg@ ; `string'
PUBLIC	??_C@_0CO@MFCEALPI@d?3?1ymir?5work?1ui?1game?1windows?1em@ ; `string'
PUBLIC	??_C@_0DC@FAACJHAB@d?3?1ymir?5work?1ui?1game?1windows?1em@ ; `string'
PUBLIC	??_C@_0DC@NGJGOFKP@d?3?1ymir?5work?1ui?1game?1windows?1em@ ; `string'
PUBLIC	??_C@_0BH@OMFLFAKO@icon?1action?1dance1?4tga@	; `string'
PUBLIC	??_C@_0BH@GKMPCCAA@icon?1action?1dance2?4tga@	; `string'
PUBLIC	??_C@_0BP@GFFNIAJA@icon?1action?1congratulation?4tga@ ; `string'
PUBLIC	??_C@_0BI@BEEJPNBE@icon?1action?1forgive?4tga@	; `string'
PUBLIC	??_C@_0BG@JPEPMGBB@icon?1action?1angry?4tga@	; `string'
PUBLIC	??_C@_0BL@FJINJML@icon?1action?1attractive?4tga@ ; `string'
PUBLIC	??_C@_0BE@PHMEGIFH@icon?1action?1sad?4tga@	; `string'
PUBLIC	??_C@_0BE@NNBEDMMB@icon?1action?1shy?4tga@	; `string'
PUBLIC	??_C@_0BI@NHHIJFI@icon?1action?1cheerup?4tga@	; `string'
PUBLIC	??_C@_0BH@PLFMNKBN@icon?1action?1banter?4tga@	; `string'
PUBLIC	??_C@_0BE@HLEHCIEP@icon?1action?1joy?4tga@	; `string'
PUBLIC	??_C@_0BH@KBJDPBKF@icon?1action?1dance3?4tga@	; `string'
PUBLIC	??_C@_0BH@LMJGMBBN@icon?1action?1dance4?4tga@	; `string'
PUBLIC	??_C@_0BH@HHMKBCLI@icon?1action?1dance5?4tga@	; `string'
PUBLIC	??_C@_0BH@PBFOGABG@icon?1action?1dance6?4tga@	; `string'
PUBLIC	??_C@_0BH@DKACLDLD@icon?1action?1dance7?4tga@	; `string'
PUBLIC	??_C@_0BH@FENECHOL@icon?1action?1selfie?4tga@	; `string'
PUBLIC	??_C@_0BF@DCMJCJMG@icon?1action?1doze?4tga@	; `string'
PUBLIC	??_C@_0BJ@IAIOJNNE@icon?1action?1exercise?4tga@	; `string'
PUBLIC	??_C@_0BH@HPAODKAC@icon?1action?1pushup?4tga@	; `string'
PUBLIC	??_C@_0BK@BPOFCBBP@icon?1action?1emotion_1?4tga@ ; `string'
PUBLIC	??_C@_0BK@JJHBFDLB@icon?1action?1emotion_2?4tga@ ; `string'
PUBLIC	??_C@_0BK@FCCNIABE@icon?1action?1emotion_3?4tga@ ; `string'
PUBLIC	??_C@_0BK@EPCILAKM@icon?1action?1emotion_4?4tga@ ; `string'
PUBLIC	??_C@_0BK@IEHEGDAJ@icon?1action?1emotion_5?4tga@ ; `string'
PUBLIC	??_C@_0BK@COABBKH@icon?1action?1emotion_6?4tga@	; `string'
PUBLIC	??_C@_0BK@MJLMMCAC@icon?1action?1emotion_7?4tga@ ; `string'
PUBLIC	??_C@_0BK@DIOKHANH@icon?1action?1emotion_8?4tga@ ; `string'
PUBLIC	??_C@_0BK@PDLGKDHC@icon?1action?1emotion_9?4tga@ ; `string'
PUBLIC	??_C@_0BL@PMKPICHA@icon?1action?1emotion_10?4tga@ ; `string'
PUBLIC	??_C@_0BL@DHPDFBNF@icon?1action?1emotion_11?4tga@ ; `string'
PUBLIC	??_C@_0BL@LBGHCDHL@icon?1action?1emotion_12?4tga@ ; `string'
PUBLIC	??_C@_0BF@LAAKDKNI@icon?1action?1bani?4tga@	; `string'
PUBLIC	??_C@_0BK@ELOIPPLP@icon?1action?1bestmates?4tga@ ; `string'
PUBLIC	??_C@_0BG@JKBEMEJO@icon?1action?1flair?4tga@	; `string'
PUBLIC	??_C@_0BG@FIKAAJPK@icon?1action?1horon?4tga@	; `string'
PUBLIC	??_C@_0BL@BLFBHANH@icon?1action?1robotdance?4tga@ ; `string'
PUBLIC	??_C@_0BJ@BMIINBG@icon?1action?1snowball?4tga@	; `string'
PUBLIC	??_C@_0BL@MKJPKIAM@icon?1action?1surprised2?4tga@ ; `string'
PUBLIC	??_C@_0CO@EAMJFIMN@d?3?1ymir?5work?1ui?1game?1windows?1em@ ; `string'
PUBLIC	??_C@_0DF@IGFOIPMD@d?3?1ymir?5work?1ui?1game?1windows?1em@ ; `string'
PUBLIC	??_C@_0CO@GJOEEJIJ@d?3?1ymir?5work?1ui?1game?1windows?1em@ ; `string'
PUBLIC	??_C@_07NLANJMCK@PASSIVE@			; `string'
PUBLIC	??_C@_06MHJDLBHA@ACTIVE@			; `string'
PUBLIC	??_C@_07CGELAMBF@damage_@			; `string'
PUBLIC	??_C@_0L@CIJHKPGM@nontarget_@			; `string'
PUBLIC	??_C@_0N@GCLAEOCJ@target_crit_@			; `string'
PUBLIC	??_C@_07JANNHJBM@target_@			; `string'
PUBLIC	??_C@_0BN@FDMJLKAE@ProcessDamage?$LJ?$KL?G?Q?$LH?g?G?A?5?$LA?$KB?$LE?I?$LM?$LK@ ; `string'
PUBLIC	??_C@_06ONAKMDAO@?$CFd?4dds@			; `string'
PUBLIC	??_C@_0CI@OENALEEN@d?3?1ymir?5work?1effect?1affect?1dama@ ; `string'
PUBLIC	??_C@_07KCEIEFPE@dot?4dds@			; `string'
PUBLIC	??_C@_0DI@DFIOGJBE@CInstanceBase?3?3GetNameColorInde@ ; `string'
PUBLIC	??_C@_0DH@DAAPKFDD@CInstanceBase?3?3AttachTextTail?5?9@ ; `string'
PUBLIC	??_C@_0BG@HNKALPOD@Lv?5?$CFd?5?$HMcFFFFC125VIP?$HMr@ ; `string'
PUBLIC	??_C@_05NPBAAELC@Lv?5?$CFd@			; `string'
PUBLIC	??_C@_0EJ@EOCLPPLJ@CInstanceBase?$FLVID?3?$CFd?$FN?3?3SetAffec@ ; `string'
PUBLIC	??_C@_0CF@NBLAJAFI@ELTimer_GetMSec?$CI?$CJ?5?9?5m_dwEmotico@ ; `string'
PUBLIC	??_C@_0EP@LCDOHAI@CInstanceBase?$FLVID?3?$CFd?$FN?3?3SetEmoti@ ; `string'
PUBLIC	??_C@_0GF@CHPHHENO@CInstanceBase?3?3RegisterEffect?$CIe@ ; `string'
PUBLIC	??_C@_0BC@KBDMBKEH@deque?$DMT?$DO?5too?5long@	; `string'
PUBLIC	?ms_singleton@?$CSingleton@VCEffectManager@@@@0PAVCEffectManager@@A ; CSingleton<CEffectManager>::ms_singleton
PUBLIC	?ms_singleton@?$CSingleton@VCPythonTextTail@@@@0PAVCPythonTextTail@@A ; CSingleton<CPythonTextTail>::ms_singleton
PUBLIC	?ms_singleton@?$CSingleton@VCCameraManager@@@@0PAVCCameraManager@@A ; CSingleton<CCameraManager>::ms_singleton
PUBLIC	?greater@strong_ordering@std@@2U12@B		; std::strong_ordering::greater
PUBLIC	?less@strong_ordering@std@@2U12@B		; std::strong_ordering::less
PUBLIC	?equal@strong_ordering@std@@2U12@B		; std::strong_ordering::equal
EXTRN	?RegisterEffect2@CEffectManager@@QAEHPBDPAK_N0@Z:PROC ; CEffectManager::RegisterEffect2
EXTRN	?GetAttachingBoneName@CActorInstance@@QAEHKPAPBD@Z:PROC ; CActorInstance::GetAttachingBoneName
EXTRN	?GetSkillColorByEffectID@CActorInstance@@QAEPAKK@Z:PROC ; CActorInstance::GetSkillColorByEffectID
EXTRN	?DettachEffect@CActorInstance@@QAEXK@Z:PROC	; CActorInstance::DettachEffect
EXTRN	?ELTimer_GetMSec@@YAKXZ:PROC			; ELTimer_GetMSec
EXTRN	?IsAliveEffect@CEffectManager@@QAE_NK@Z:PROC	; CEffectManager::IsAliveEffect
EXTRN	?SetSleep@CActorInstance@@QAEX_N@Z:PROC		; CActorInstance::SetSleep
EXTRN	?ShowAllAttachingEffect@CActorInstance@@QAEXXZ:PROC ; CActorInstance::ShowAllAttachingEffect
EXTRN	?HideAllAttachingEffect@CActorInstance@@QAEXXZ:PROC ; CActorInstance::HideAllAttachingEffect
EXTRN	?SetResistFallen@CActorInstance@@QAEX_N@Z:PROC	; CActorInstance::SetResistFallen
EXTRN	?IsTwoHandMode@CActorInstance@@QAE_NXZ:PROC	; CActorInstance::IsTwoHandMode
EXTRN	?SetReachScale@CActorInstance@@QAEXM@Z:PROC	; CActorInstance::SetReachScale
EXTRN	?SetParalysis@CActorInstance@@QAEX_N@Z:PROC	; CActorInstance::SetParalysis
EXTRN	?__OnResetAffect@CActorInstance@@QAEXI@Z:PROC	; CActorInstance::__OnResetAffect
EXTRN	?__OnSetAffect@CActorInstance@@QAEXI@Z:PROC	; CActorInstance::__OnSetAffect
EXTRN	?__OnClearAffects@CActorInstance@@QAEXXZ:PROC	; CActorInstance::__OnClearAffects
EXTRN	?AttachSmokeEffect@CActorInstance@@QAEKK@Z:PROC	; CActorInstance::AttachSmokeEffect
EXTRN	?GetScale@CGraphicObjectInstance@@QBEABUD3DXVECTOR3@@XZ:PROC ; CGraphicObjectInstance::GetScale
EXTRN	?SetEffectInstanceGlobalMatrix@CEffectManager@@QAEXABUD3DXMATRIX@@@Z:PROC ; CEffectManager::SetEffectInstanceGlobalMatrix
EXTRN	?SelectEffectInstance@CEffectManager@@QAEHK@Z:PROC ; CEffectManager::SelectEffectInstance
EXTRN	?CreateEffectInstanceWithScale@CEffectManager@@QAEXKKMPBUD3DXVECTOR3@@PAK@Z:PROC ; CEffectManager::CreateEffectInstanceWithScale
EXTRN	?GetEmptyIndex@CEffectManager@@QAEHXZ:PROC	; CEffectManager::GetEmptyIndex
EXTRN	?GetTransform@CGraphicObjectInstance@@QAEAAUD3DXMATRIX@@XZ:PROC ; CGraphicObjectInstance::GetTransform
EXTRN	_D3DXMatrixMultiply@12:PROC
EXTRN	_D3DXMatrixTranslation@16:PROC
EXTRN	?SetEffectTextures@CEffectManager@@QAEXKV?$vector@V?$basic_string@DU?$char_traits@D@std@@V?$allocator@D@2@@std@@V?$allocator@V?$basic_string@DU?$char_traits@D@std@@V?$allocator@D@2@@std@@@2@@std@@@Z:PROC ; CEffectManager::SetEffectTextures
EXTRN	?CreateEffect@CEffectManager@@QAEHKABUD3DXVECTOR3@@0PAK@Z:PROC ; CEffectManager::CreateEffect
EXTRN	?GetHeight@CActorInstance@@QAEMXZ:PROC		; CActorInstance::GetHeight
EXTRN	?GetDegreeFromPosition2@@YAMMMMM@Z:PROC		; GetDegreeFromPosition2
EXTRN	?GetCurrentCamera@CCameraManager@@QAEPAVCCamera@@XZ:PROC ; CCameraManager::GetCurrentCamera
EXTRN	??_M@YGXPAXIIP6EX0@Z@Z:PROC			; `eh vector destructor iterator'
?ms_fHorseDustGap@CInstanceBase@@1MA DD 01H DUP (?)	; CInstanceBase::ms_fHorseDustGap
?ms_fDustGap@CInstanceBase@@1MA DD 01H DUP (?)		; CInstanceBase::ms_fDustGap
?ms_adwCRCAffectEffect@CInstanceBase@@1PAKA DD 0132H DUP (?) ; CInstanceBase::ms_adwCRCAffectEffect
_BSS	ENDS
;	COMDAT ?ms_singleton@?$CSingleton@VCEffectManager@@@@0PAVCEffectManager@@A
_BSS	SEGMENT
?ms_singleton@?$CSingleton@VCEffectManager@@@@0PAVCEffectManager@@A DD 01H DUP (?) ; CSingleton<CEffectManager>::ms_singleton
_BSS	ENDS
;	COMDAT ?ms_singleton@?$CSingleton@VCPythonTextTail@@@@0PAVCPythonTextTail@@A
_BSS	SEGMENT
?ms_singleton@?$CSingleton@VCPythonTextTail@@@@0PAVCPythonTextTail@@A DD 01H DUP (?) ; CSingleton<CPythonTextTail>::ms_singleton
_BSS	ENDS
;	COMDAT ?ms_singleton@?$CSingleton@VCCameraManager@@@@0PAVCCameraManager@@A
_BSS	SEGMENT
?ms_singleton@?$CSingleton@VCCameraManager@@@@0PAVCCameraManager@@A DD 01H DUP (?) ; CSingleton<CCameraManager>::ms_singleton
_BSS	ENDS
;	COMDAT ?equal@strong_ordering@std@@2U12@B
CONST	SEGMENT
?equal@strong_ordering@std@@2U12@B DB 00H		; std::strong_ordering::equal
CONST	ENDS
;	COMDAT ?less@strong_ordering@std@@2U12@B
CONST	SEGMENT
?less@strong_ordering@std@@2U12@B DB 0ffH		; std::strong_ordering::less
CONST	ENDS
;	COMDAT ?greater@strong_ordering@std@@2U12@B
CONST	SEGMENT
?greater@strong_ordering@std@@2U12@B DB 01H		; std::strong_ordering::greater
CONST	ENDS
;	COMDAT ??_C@_0BC@KBDMBKEH@deque?$DMT?$DO?5too?5long@
CONST	SEGMENT
??_C@_0BC@KBDMBKEH@deque?$DMT?$DO?5too?5long@ DB 'deque<T> too long', 00H ; `string'
CONST	ENDS
;	COMDAT ??_C@_0GF@CHPHHENO@CInstanceBase?3?3RegisterEffect?$CIe@
CONST	SEGMENT
??_C@_0GF@CHPHHENO@CInstanceBase?3?3RegisterEffect?$CIe@ DB 'CInstanceBas'
	DB	'e::RegisterEffect(eEftType=%d, c_szEftAttachBone=%s, c_szEftN'
	DB	'ame=%s, isCache=%d) - Error', 00H		; `string'
CONST	ENDS
;	COMDAT ??_C@_0EP@LCDOHAI@CInstanceBase?$FLVID?3?$CFd?$FN?3?3SetEmoti@
CONST	SEGMENT
??_C@_0EP@LCDOHAI@CInstanceBase?$FLVID?3?$CFd?$FN?3?3SetEmoti@ DB 'CInsta'
	DB	'nceBase[VID:%d]::SetEmoticon(eEmoticon:%d<EMOTICON_NUM:%d, is'
	DB	'Visible=%d)', 00H				; `string'
CONST	ENDS
;	COMDAT ??_C@_0CF@NBLAJAFI@ELTimer_GetMSec?$CI?$CJ?5?9?5m_dwEmotico@
CONST	SEGMENT
??_C@_0CF@NBLAJAFI@ELTimer_GetMSec?$CI?$CJ?5?9?5m_dwEmotico@ DB 'ELTimer_'
	DB	'GetMSec() - m_dwEmoticonTime', 00H		; `string'
CONST	ENDS
;	COMDAT ??_C@_0EJ@EOCLPPLJ@CInstanceBase?$FLVID?3?$CFd?$FN?3?3SetAffec@
CONST	SEGMENT
??_C@_0EJ@EOCLPPLJ@CInstanceBase?$FLVID?3?$CFd?$FN?3?3SetAffec@ DB 'CInst'
	DB	'anceBase[VID:%d]::SetAffect(eAffect:%d<AFFECT_NUM:%d, isVisib'
	DB	'le=%d)', 00H				; `string'
CONST	ENDS
;	COMDAT ??_C@_05NPBAAELC@Lv?5?$CFd@
CONST	SEGMENT
??_C@_05NPBAAELC@Lv?5?$CFd@ DB 'Lv %d', 00H		; `string'
CONST	ENDS
;	COMDAT ??_C@_0BG@HNKALPOD@Lv?5?$CFd?5?$HMcFFFFC125VIP?$HMr@
CONST	SEGMENT
??_C@_0BG@HNKALPOD@Lv?5?$CFd?5?$HMcFFFFC125VIP?$HMr@ DB 'Lv %d |cFFFFC125'
	DB	'VIP|r', 00H					; `string'
CONST	ENDS
;	COMDAT ??_C@_0DH@DAAPKFDD@CInstanceBase?3?3AttachTextTail?5?9@
CONST	SEGMENT
??_C@_0DH@DAAPKFDD@CInstanceBase?3?3AttachTextTail?5?9@ DB 'CInstanceBase'
	DB	'::AttachTextTail - VID [%d] ALREADY EXIST', 00H ; `string'
CONST	ENDS
;	COMDAT ??_C@_0DI@DFIOGJBE@CInstanceBase?3?3GetNameColorInde@
CONST	SEGMENT
??_C@_0DI@DFIOGJBE@CInstanceBase?3?3GetNameColorInde@ DB 'CInstanceBase::'
	DB	'GetNameColorIndex - MainInstance is NULL', 00H ; `string'
CONST	ENDS
;	COMDAT ??_C@_07KCEIEFPE@dot?4dds@
CONST	SEGMENT
??_C@_07KCEIEFPE@dot?4dds@ DB 'dot.dds', 00H		; `string'
CONST	ENDS
;	COMDAT ??_C@_0CI@OENALEEN@d?3?1ymir?5work?1effect?1affect?1dama@
CONST	SEGMENT
??_C@_0CI@OENALEEN@d?3?1ymir?5work?1effect?1affect?1dama@ DB 'd:/ymir wor'
	DB	'k/effect/affect/damagevalue/', 00H		; `string'
CONST	ENDS
;	COMDAT ??_C@_06ONAKMDAO@?$CFd?4dds@
CONST	SEGMENT
??_C@_06ONAKMDAO@?$CFd?4dds@ DB '%d.dds', 00H		; `string'
CONST	ENDS
;	COMDAT ??_C@_0BN@FDMJLKAE@ProcessDamage?$LJ?$KL?G?Q?$LH?g?G?A?5?$LA?$KB?$LE?I?$LM?$LK@
CONST	SEGMENT
??_C@_0BN@FDMJLKAE@ProcessDamage?$LJ?$KL?G?Q?$LH?g?G?A?5?$LA?$KB?$LE?I?$LM?$LK@ DB 'P'
	DB	'rocessDamage', 0b9H, 0abH, 0c7H, 0d1H, 0b7H, 0e7H, 0c7H, 0c1H
	DB	' ', 0b0H, 0a1H, 0b4H, 0c9H, 0bcH, 0baH, 00H	; `string'
CONST	ENDS
;	COMDAT ??_C@_07JANNHJBM@target_@
CONST	SEGMENT
??_C@_07JANNHJBM@target_@ DB 'target_', 00H		; `string'
CONST	ENDS
;	COMDAT ??_C@_0N@GCLAEOCJ@target_crit_@
CONST	SEGMENT
??_C@_0N@GCLAEOCJ@target_crit_@ DB 'target_crit_', 00H	; `string'
CONST	ENDS
;	COMDAT ??_C@_0L@CIJHKPGM@nontarget_@
CONST	SEGMENT
??_C@_0L@CIJHKPGM@nontarget_@ DB 'nontarget_', 00H	; `string'
CONST	ENDS
;	COMDAT ??_C@_07CGELAMBF@damage_@
CONST	SEGMENT
??_C@_07CGELAMBF@damage_@ DB 'damage_', 00H		; `string'
CONST	ENDS
;	COMDAT ??_C@_06MHJDLBHA@ACTIVE@
CONST	SEGMENT
??_C@_06MHJDLBHA@ACTIVE@ DB 'ACTIVE', 00H		; `string'
CONST	ENDS
;	COMDAT ??_C@_07NLANJMCK@PASSIVE@
CONST	SEGMENT
??_C@_07NLANJMCK@PASSIVE@ DB 'PASSIVE', 00H		; `string'
CONST	ENDS
;	COMDAT ??_C@_0CO@GJOEEJIJ@d?3?1ymir?5work?1ui?1game?1windows?1em@
CONST	SEGMENT
??_C@_0CO@GJOEEJIJ@d?3?1ymir?5work?1ui?1game?1windows?1em@ DB 'd:/ymir wo'
	DB	'rk/ui/game/windows/emotion_slap.sub', 00H	; `string'
CONST	ENDS
;	COMDAT ??_C@_0DF@IGFOIPMD@d?3?1ymir?5work?1ui?1game?1windows?1em@
CONST	SEGMENT
??_C@_0DF@IGFOIPMD@d?3?1ymir?5work?1ui?1game?1windows?1em@ DB 'd:/ymir wo'
	DB	'rk/ui/game/windows/emotion_french_kiss.sub', 00H ; `string'
CONST	ENDS
;	COMDAT ??_C@_0CO@EAMJFIMN@d?3?1ymir?5work?1ui?1game?1windows?1em@
CONST	SEGMENT
??_C@_0CO@EAMJFIMN@d?3?1ymir?5work?1ui?1game?1windows?1em@ DB 'd:/ymir wo'
	DB	'rk/ui/game/windows/emotion_kiss.sub', 00H	; `string'
CONST	ENDS
;	COMDAT ??_C@_0BL@MKJPKIAM@icon?1action?1surprised2?4tga@
CONST	SEGMENT
??_C@_0BL@MKJPKIAM@icon?1action?1surprised2?4tga@ DB 'icon/action/surpris'
	DB	'ed2.tga', 00H				; `string'
CONST	ENDS
;	COMDAT ??_C@_0BJ@BMIINBG@icon?1action?1snowball?4tga@
CONST	SEGMENT
??_C@_0BJ@BMIINBG@icon?1action?1snowball?4tga@ DB 'icon/action/snowball.t'
	DB	'ga', 00H					; `string'
CONST	ENDS
;	COMDAT ??_C@_0BL@BLFBHANH@icon?1action?1robotdance?4tga@
CONST	SEGMENT
??_C@_0BL@BLFBHANH@icon?1action?1robotdance?4tga@ DB 'icon/action/robotda'
	DB	'nce.tga', 00H				; `string'
CONST	ENDS
;	COMDAT ??_C@_0BG@FIKAAJPK@icon?1action?1horon?4tga@
CONST	SEGMENT
??_C@_0BG@FIKAAJPK@icon?1action?1horon?4tga@ DB 'icon/action/horon.tga', 00H ; `string'
CONST	ENDS
;	COMDAT ??_C@_0BG@JKBEMEJO@icon?1action?1flair?4tga@
CONST	SEGMENT
??_C@_0BG@JKBEMEJO@icon?1action?1flair?4tga@ DB 'icon/action/flair.tga', 00H ; `string'
CONST	ENDS
;	COMDAT ??_C@_0BK@ELOIPPLP@icon?1action?1bestmates?4tga@
CONST	SEGMENT
??_C@_0BK@ELOIPPLP@icon?1action?1bestmates?4tga@ DB 'icon/action/bestmate'
	DB	's.tga', 00H					; `string'
CONST	ENDS
;	COMDAT ??_C@_0BF@LAAKDKNI@icon?1action?1bani?4tga@
CONST	SEGMENT
??_C@_0BF@LAAKDKNI@icon?1action?1bani?4tga@ DB 'icon/action/bani.tga', 00H ; `string'
CONST	ENDS
;	COMDAT ??_C@_0BL@LBGHCDHL@icon?1action?1emotion_12?4tga@
CONST	SEGMENT
??_C@_0BL@LBGHCDHL@icon?1action?1emotion_12?4tga@ DB 'icon/action/emotion'
	DB	'_12.tga', 00H				; `string'
CONST	ENDS
;	COMDAT ??_C@_0BL@DHPDFBNF@icon?1action?1emotion_11?4tga@
CONST	SEGMENT
??_C@_0BL@DHPDFBNF@icon?1action?1emotion_11?4tga@ DB 'icon/action/emotion'
	DB	'_11.tga', 00H				; `string'
CONST	ENDS
;	COMDAT ??_C@_0BL@PMKPICHA@icon?1action?1emotion_10?4tga@
CONST	SEGMENT
??_C@_0BL@PMKPICHA@icon?1action?1emotion_10?4tga@ DB 'icon/action/emotion'
	DB	'_10.tga', 00H				; `string'
CONST	ENDS
;	COMDAT ??_C@_0BK@PDLGKDHC@icon?1action?1emotion_9?4tga@
CONST	SEGMENT
??_C@_0BK@PDLGKDHC@icon?1action?1emotion_9?4tga@ DB 'icon/action/emotion_'
	DB	'9.tga', 00H					; `string'
CONST	ENDS
;	COMDAT ??_C@_0BK@DIOKHANH@icon?1action?1emotion_8?4tga@
CONST	SEGMENT
??_C@_0BK@DIOKHANH@icon?1action?1emotion_8?4tga@ DB 'icon/action/emotion_'
	DB	'8.tga', 00H					; `string'
CONST	ENDS
;	COMDAT ??_C@_0BK@MJLMMCAC@icon?1action?1emotion_7?4tga@
CONST	SEGMENT
??_C@_0BK@MJLMMCAC@icon?1action?1emotion_7?4tga@ DB 'icon/action/emotion_'
	DB	'7.tga', 00H					; `string'
CONST	ENDS
;	COMDAT ??_C@_0BK@COABBKH@icon?1action?1emotion_6?4tga@
CONST	SEGMENT
??_C@_0BK@COABBKH@icon?1action?1emotion_6?4tga@ DB 'icon/action/emotion_6'
	DB	'.tga', 00H					; `string'
CONST	ENDS
;	COMDAT ??_C@_0BK@IEHEGDAJ@icon?1action?1emotion_5?4tga@
CONST	SEGMENT
??_C@_0BK@IEHEGDAJ@icon?1action?1emotion_5?4tga@ DB 'icon/action/emotion_'
	DB	'5.tga', 00H					; `string'
CONST	ENDS
;	COMDAT ??_C@_0BK@EPCILAKM@icon?1action?1emotion_4?4tga@
CONST	SEGMENT
??_C@_0BK@EPCILAKM@icon?1action?1emotion_4?4tga@ DB 'icon/action/emotion_'
	DB	'4.tga', 00H					; `string'
CONST	ENDS
;	COMDAT ??_C@_0BK@FCCNIABE@icon?1action?1emotion_3?4tga@
CONST	SEGMENT
??_C@_0BK@FCCNIABE@icon?1action?1emotion_3?4tga@ DB 'icon/action/emotion_'
	DB	'3.tga', 00H					; `string'
CONST	ENDS
;	COMDAT ??_C@_0BK@JJHBFDLB@icon?1action?1emotion_2?4tga@
CONST	SEGMENT
??_C@_0BK@JJHBFDLB@icon?1action?1emotion_2?4tga@ DB 'icon/action/emotion_'
	DB	'2.tga', 00H					; `string'
CONST	ENDS
;	COMDAT ??_C@_0BK@BPOFCBBP@icon?1action?1emotion_1?4tga@
CONST	SEGMENT
??_C@_0BK@BPOFCBBP@icon?1action?1emotion_1?4tga@ DB 'icon/action/emotion_'
	DB	'1.tga', 00H					; `string'
CONST	ENDS
;	COMDAT ??_C@_0BH@HPAODKAC@icon?1action?1pushup?4tga@
CONST	SEGMENT
??_C@_0BH@HPAODKAC@icon?1action?1pushup?4tga@ DB 'icon/action/pushup.tga', 00H ; `string'
CONST	ENDS
;	COMDAT ??_C@_0BJ@IAIOJNNE@icon?1action?1exercise?4tga@
CONST	SEGMENT
??_C@_0BJ@IAIOJNNE@icon?1action?1exercise?4tga@ DB 'icon/action/exercise.'
	DB	'tga', 00H					; `string'
CONST	ENDS
;	COMDAT ??_C@_0BF@DCMJCJMG@icon?1action?1doze?4tga@
CONST	SEGMENT
??_C@_0BF@DCMJCJMG@icon?1action?1doze?4tga@ DB 'icon/action/doze.tga', 00H ; `string'
CONST	ENDS
;	COMDAT ??_C@_0BH@FENECHOL@icon?1action?1selfie?4tga@
CONST	SEGMENT
??_C@_0BH@FENECHOL@icon?1action?1selfie?4tga@ DB 'icon/action/selfie.tga', 00H ; `string'
CONST	ENDS
;	COMDAT ??_C@_0BH@DKACLDLD@icon?1action?1dance7?4tga@
CONST	SEGMENT
??_C@_0BH@DKACLDLD@icon?1action?1dance7?4tga@ DB 'icon/action/dance7.tga', 00H ; `string'
CONST	ENDS
;	COMDAT ??_C@_0BH@PBFOGABG@icon?1action?1dance6?4tga@
CONST	SEGMENT
??_C@_0BH@PBFOGABG@icon?1action?1dance6?4tga@ DB 'icon/action/dance6.tga', 00H ; `string'
CONST	ENDS
;	COMDAT ??_C@_0BH@HHMKBCLI@icon?1action?1dance5?4tga@
CONST	SEGMENT
??_C@_0BH@HHMKBCLI@icon?1action?1dance5?4tga@ DB 'icon/action/dance5.tga', 00H ; `string'
CONST	ENDS
;	COMDAT ??_C@_0BH@LMJGMBBN@icon?1action?1dance4?4tga@
CONST	SEGMENT
??_C@_0BH@LMJGMBBN@icon?1action?1dance4?4tga@ DB 'icon/action/dance4.tga', 00H ; `string'
CONST	ENDS
;	COMDAT ??_C@_0BH@KBJDPBKF@icon?1action?1dance3?4tga@
CONST	SEGMENT
??_C@_0BH@KBJDPBKF@icon?1action?1dance3?4tga@ DB 'icon/action/dance3.tga', 00H ; `string'
CONST	ENDS
;	COMDAT ??_C@_0BE@HLEHCIEP@icon?1action?1joy?4tga@
CONST	SEGMENT
??_C@_0BE@HLEHCIEP@icon?1action?1joy?4tga@ DB 'icon/action/joy.tga', 00H ; `string'
CONST	ENDS
;	COMDAT ??_C@_0BH@PLFMNKBN@icon?1action?1banter?4tga@
CONST	SEGMENT
??_C@_0BH@PLFMNKBN@icon?1action?1banter?4tga@ DB 'icon/action/banter.tga', 00H ; `string'
CONST	ENDS
;	COMDAT ??_C@_0BI@NHHIJFI@icon?1action?1cheerup?4tga@
CONST	SEGMENT
??_C@_0BI@NHHIJFI@icon?1action?1cheerup?4tga@ DB 'icon/action/cheerup.tga'
	DB	00H						; `string'
CONST	ENDS
;	COMDAT ??_C@_0BE@NNBEDMMB@icon?1action?1shy?4tga@
CONST	SEGMENT
??_C@_0BE@NNBEDMMB@icon?1action?1shy?4tga@ DB 'icon/action/shy.tga', 00H ; `string'
CONST	ENDS
;	COMDAT ??_C@_0BE@PHMEGIFH@icon?1action?1sad?4tga@
CONST	SEGMENT
??_C@_0BE@PHMEGIFH@icon?1action?1sad?4tga@ DB 'icon/action/sad.tga', 00H ; `string'
CONST	ENDS
;	COMDAT ??_C@_0BL@FJINJML@icon?1action?1attractive?4tga@
CONST	SEGMENT
??_C@_0BL@FJINJML@icon?1action?1attractive?4tga@ DB 'icon/action/attracti'
	DB	've.tga', 00H				; `string'
CONST	ENDS
;	COMDAT ??_C@_0BG@JPEPMGBB@icon?1action?1angry?4tga@
CONST	SEGMENT
??_C@_0BG@JPEPMGBB@icon?1action?1angry?4tga@ DB 'icon/action/angry.tga', 00H ; `string'
CONST	ENDS
;	COMDAT ??_C@_0BI@BEEJPNBE@icon?1action?1forgive?4tga@
CONST	SEGMENT
??_C@_0BI@BEEJPNBE@icon?1action?1forgive?4tga@ DB 'icon/action/forgive.tg'
	DB	'a', 00H					; `string'
CONST	ENDS
;	COMDAT ??_C@_0BP@GFFNIAJA@icon?1action?1congratulation?4tga@
CONST	SEGMENT
??_C@_0BP@GFFNIAJA@icon?1action?1congratulation?4tga@ DB 'icon/action/con'
	DB	'gratulation.tga', 00H			; `string'
CONST	ENDS
;	COMDAT ??_C@_0BH@GKMPCCAA@icon?1action?1dance2?4tga@
CONST	SEGMENT
??_C@_0BH@GKMPCCAA@icon?1action?1dance2?4tga@ DB 'icon/action/dance2.tga', 00H ; `string'
CONST	ENDS
;	COMDAT ??_C@_0BH@OMFLFAKO@icon?1action?1dance1?4tga@
CONST	SEGMENT
??_C@_0BH@OMFLFAKO@icon?1action?1dance1?4tga@ DB 'icon/action/dance1.tga', 00H ; `string'
CONST	ENDS
;	COMDAT ??_C@_0DC@NGJGOFKP@d?3?1ymir?5work?1ui?1game?1windows?1em@
CONST	SEGMENT
??_C@_0DC@NGJGOFKP@d?3?1ymir?5work?1ui?1game?1windows?1em@ DB 'd:/ymir wo'
	DB	'rk/ui/game/windows/emotion_cheers_2.sub', 00H ; `string'
CONST	ENDS
;	COMDAT ??_C@_0DC@FAACJHAB@d?3?1ymir?5work?1ui?1game?1windows?1em@
CONST	SEGMENT
??_C@_0DC@FAACJHAB@d?3?1ymir?5work?1ui?1game?1windows?1em@ DB 'd:/ymir wo'
	DB	'rk/ui/game/windows/emotion_cheers_1.sub', 00H ; `string'
CONST	ENDS
;	COMDAT ??_C@_0CO@MFCEALPI@d?3?1ymir?5work?1ui?1game?1windows?1em@
CONST	SEGMENT
??_C@_0CO@MFCEALPI@d?3?1ymir?5work?1ui?1game?1windows?1em@ DB 'd:/ymir wo'
	DB	'rk/ui/game/windows/emotion_clap.sub', 00H	; `string'
CONST	ENDS
;	COMDAT ??_C@_0CM@GHEHNBJK@d?3?1ymir?5work?1effect?1hit?1gyeongg@
CONST	SEGMENT
??_C@_0CM@GHEHNBJK@d?3?1ymir?5work?1effect?1hit?1gyeongg@ DB 'd:/ymir wor'
	DB	'k/effect/hit/gyeonggong_boom.mse', 00H	; `string'
CONST	ENDS
;	COMDAT ??_C@_0DP@PLKMBGLC@d?3?1ymir?5work?1effect?1battlepass?1@
CONST	SEGMENT
??_C@_0DP@PLKMBGLC@d?3?1ymir?5work?1effect?1battlepass?1@ DB 'd:/ymir wor'
	DB	'k/effect/battlepass/premium_battlepass_complete.mse', 00H ; `string'
CONST	ENDS
;	COMDAT ??_C@_0DO@BLNOCHAN@d?3?1ymir?5work?1effect?1battlepass?1@
CONST	SEGMENT
??_C@_0DO@BLNOCHAN@d?3?1ymir?5work?1effect?1battlepass?1@ DB 'd:/ymir wor'
	DB	'k/effect/battlepass/normal_battlepass_complete.mse', 00H ; `string'
CONST	ENDS
;	COMDAT ??_C@_0DM@MHMMIOAK@d?3?1ymir?5work?1effect?1battlepass?1@
CONST	SEGMENT
??_C@_0DM@MHMMIOAK@d?3?1ymir?5work?1effect?1battlepass?1@ DB 'd:/ymir wor'
	DB	'k/effect/battlepass/premium_mission_complete.mse', 00H ; `string'
CONST	ENDS
;	COMDAT ??_C@_0DL@JAMGHMDJ@d?3?1ymir?5work?1effect?1battlepass?1@
CONST	SEGMENT
??_C@_0DL@JAMGHMDJ@d?3?1ymir?5work?1effect?1battlepass?1@ DB 'd:/ymir wor'
	DB	'k/effect/battlepass/normal_mission_complete.mse', 00H ; `string'
CONST	ENDS
;	COMDAT ??_C@_0CM@OIMAGALI@d?3?1ymir?5work?1effect?1hit?1percent@
CONST	SEGMENT
??_C@_0CM@OIMAGALI@d?3?1ymir?5work?1effect?1hit?1percent@ DB 'd:/ymir wor'
	DB	'k/effect/hit/percent_damage3.mse', 00H	; `string'
CONST	ENDS
;	COMDAT ??_C@_0CM@CDJMLDBN@d?3?1ymir?5work?1effect?1hit?1percent@
CONST	SEGMENT
??_C@_0CM@CDJMLDBN@d?3?1ymir?5work?1effect?1hit?1percent@ DB 'd:/ymir wor'
	DB	'k/effect/hit/percent_damage2.mse', 00H	; `string'
CONST	ENDS
;	COMDAT ??_C@_0CM@KFAIMBLD@d?3?1ymir?5work?1effect?1hit?1percent@
CONST	SEGMENT
??_C@_0CM@KFAIMBLD@d?3?1ymir?5work?1effect?1hit?1percent@ DB 'd:/ymir wor'
	DB	'k/effect/hit/percent_damage1.mse', 00H	; `string'
CONST	ENDS
;	COMDAT ??_C@_0DH@BALHLFPA@d?3?1ymir?5work?1effect?1affect?1dama@
CONST	SEGMENT
??_C@_0DH@BALHLFPA@d?3?1ymir?5work?1effect?1affect?1dama@ DB 'd:/ymir wor'
	DB	'k/effect/affect/damagevalue/target_miss.mse', 00H ; `string'
CONST	ENDS
;	COMDAT ??_C@_0DA@GCPGFOFF@d?3?1ymir?5work?1effect?1affect?1dama@
CONST	SEGMENT
??_C@_0DA@GCPGFOFF@d?3?1ymir?5work?1effect?1affect?1dama@ DB 'd:/ymir wor'
	DB	'k/effect/affect/damagevalue/miss.mse', 00H	; `string'
CONST	ENDS
;	COMDAT ??_C@_0DC@DFGPOAGN@d?3?1ymir?5work?1effect?1affect?1dama@
CONST	SEGMENT
??_C@_0DC@DFGPOAGN@d?3?1ymir?5work?1effect?1affect?1dama@ DB 'd:/ymir wor'
	DB	'k/effect/affect/damagevalue/poison.mse', 00H ; `string'
CONST	ENDS
;	COMDAT ??_C@_0DE@OCLPDINL@d?3?1ymir?5work?1effect?1affect?1dama@
CONST	SEGMENT
??_C@_0DE@OCLPDINL@d?3?1ymir?5work?1effect?1affect?1dama@ DB 'd:/ymir wor'
	DB	'k/effect/affect/damagevalue/damage_1.mse', 00H ; `string'
CONST	ENDS
;	COMDAT ??_C@_0DC@PNDLOGJ@d?3?1ymir?5work?1effect?1affect?1dama@
CONST	SEGMENT
??_C@_0DC@PNDLOGJ@d?3?1ymir?5work?1effect?1affect?1dama@ DB 'd:/ymir work'
	DB	'/effect/affect/damagevalue/damage.mse', 00H	; `string'
CONST	ENDS
;	COMDAT ??_C@_0DF@NHKBGLCB@d?3?1ymir?5work?1effect?1affect?1dama@
CONST	SEGMENT
??_C@_0DF@NHKBGLCB@d?3?1ymir?5work?1effect?1affect?1dama@ DB 'd:/ymir wor'
	DB	'k/effect/affect/damagevalue/nontarget.mse', 00H ; `string'
CONST	ENDS
;	COMDAT ??_C@_0DC@ELCGDOJC@d?3?1ymir?5work?1effect?1affect?1dama@
CONST	SEGMENT
??_C@_0DC@ELCGDOJC@d?3?1ymir?5work?1effect?1affect?1dama@ DB 'd:/ymir wor'
	DB	'k/effect/affect/damagevalue/target.mse', 00H ; `string'
CONST	ENDS
;	COMDAT ??_C@_0CF@IGNMMICG@d?3?1ymir?5work?1effect?1hit?1critica@
CONST	SEGMENT
??_C@_0CF@IGNMMICG@d?3?1ymir?5work?1effect?1hit?1critica@ DB 'd:/ymir wor'
	DB	'k/effect/hit/critical.mse', 00H		; `string'
CONST	ENDS
;	COMDAT ??_C@_0CG@OFJICOGE@d?3?1ymir?5work?1effect?1etc?1stun?1st@
CONST	SEGMENT
??_C@_0CG@OFJICOGE@d?3?1ymir?5work?1effect?1etc?1stun?1st@ DB 'd:/ymir wo'
	DB	'rk/effect/etc/stun/stun.mse', 00H		; `string'
CONST	ENDS
;	COMDAT ??_C@_0DE@OKJDPEOH@d?3?1ymir?5work?1effect?1etc?1click?1c@
CONST	SEGMENT
??_C@_0DE@OKJDPEOH@d?3?1ymir?5work?1effect?1etc?1click?1c@ DB 'd:/ymir wo'
	DB	'rk/effect/etc/click/click_glow_select.mse', 00H ; `string'
CONST	ENDS
;	COMDAT ??_C@_0CP@NMKNLCNB@d?3?1ymir?5work?1effect?1etc?1click?1c@
CONST	SEGMENT
??_C@_0CP@NMKNLCNB@d?3?1ymir?5work?1effect?1etc?1click?1c@ DB 'd:/ymir wo'
	DB	'rk/effect/etc/click/click_select.mse', 00H	; `string'
CONST	ENDS
;	COMDAT ??_C@_0DA@OKHBFDHO@d?3?1ymir?5work?1effect?1etc?1firecra@
CONST	SEGMENT
??_C@_0DA@OKHBFDHO@d?3?1ymir?5work?1effect?1etc?1firecra@ DB 'd:/ymir wor'
	DB	'k/effect/etc/firecracker/paing_i.mse', 00H	; `string'
CONST	ENDS
;	COMDAT ??_C@_0DM@LMNPCMLO@d?3?1ymir?5work?1effect?1etc?1firecra@
CONST	SEGMENT
??_C@_0DM@LMNPCMLO@d?3?1ymir?5work?1effect?1etc?1firecra@ DB 'd:/ymir wor'
	DB	'k/effect/etc/firecracker/newyear_firecracker.mse', 00H ; `string'
CONST	ENDS
;	COMDAT ??_C@_0CF@MCCGBFIH@d?3?1ymir?5work?1effect?1hit?1gwanton@
CONST	SEGMENT
??_C@_0CF@MCCGBFIH@d?3?1ymir?5work?1effect?1hit?1gwanton@ DB 'd:/ymir wor'
	DB	'k/effect/hit/gwantong.mse', 00H		; `string'
CONST	ENDS
;	COMDAT ??_C@_0CM@HNNAGNCN@d?3?1ymir?5work?1effect?1etc?1buff?1bu@
CONST	SEGMENT
??_C@_0CM@HNNAGNCN@d?3?1ymir?5work?1effect?1etc?1buff?1bu@ DB 'd:/ymir wo'
	DB	'rk/effect/etc/buff/buff_item7.mse', 00H	; `string'
CONST	ENDS
;	COMDAT ??_C@_0CM@LGIMLOII@d?3?1ymir?5work?1effect?1etc?1buff?1bu@
CONST	SEGMENT
??_C@_0CM@LGIMLOII@d?3?1ymir?5work?1effect?1etc?1buff?1bu@ DB 'd:/ymir wo'
	DB	'rk/effect/etc/buff/buff_item6.mse', 00H	; `string'
CONST	ENDS
;	COMDAT ??_C@_0CM@PLEEBPID@d?3?1ymir?5work?1effect?1etc?1buff?1bu@
CONST	SEGMENT
??_C@_0CM@PLEEBPID@d?3?1ymir?5work?1effect?1etc?1buff?1bu@ DB 'd:/ymir wo'
	DB	'rk/effect/etc/buff/buff_item4.mse', 00H	; `string'
CONST	ENDS
;	COMDAT ??_C@_0CM@OGEBCPDL@d?3?1ymir?5work?1effect?1etc?1buff?1bu@
CONST	SEGMENT
??_C@_0CM@OGEBCPDL@d?3?1ymir?5work?1effect?1etc?1buff?1bu@ DB 'd:/ymir wo'
	DB	'rk/effect/etc/buff/buff_item3.mse', 00H	; `string'
CONST	ENDS
;	COMDAT ??_C@_0CM@CNBNPMJO@d?3?1ymir?5work?1effect?1etc?1buff?1bu@
CONST	SEGMENT
??_C@_0CM@CNBNPMJO@d?3?1ymir?5work?1effect?1etc?1buff?1bu@ DB 'd:/ymir wo'
	DB	'rk/effect/etc/buff/buff_item2.mse', 00H	; `string'
CONST	ENDS
;	COMDAT ??_C@_0CM@KLIJIODA@d?3?1ymir?5work?1effect?1etc?1buff?1bu@
CONST	SEGMENT
??_C@_0CM@KLIJIODA@d?3?1ymir?5work?1effect?1etc?1buff?1bu@ DB 'd:/ymir wo'
	DB	'rk/effect/etc/buff/buff_item1.mse', 00H	; `string'
CONST	ENDS
;	COMDAT ??_C@_0DJ@LHDEGENC@d?3?1ymir?5work?1effect?1etc?1recuper@
CONST	SEGMENT
??_C@_0DJ@LHDEGENC@d?3?1ymir?5work?1effect?1etc?1recuper@ DB 'd:/ymir wor'
	DB	'k/effect/etc/recuperation/autodrugup_blue.mse', 00H ; `string'
CONST	ENDS
;	COMDAT ??_C@_0DI@DJOLHMEJ@d?3?1ymir?5work?1effect?1etc?1recuper@
CONST	SEGMENT
??_C@_0DI@DJOLHMEJ@d?3?1ymir?5work?1effect?1etc?1recuper@ DB 'd:/ymir wor'
	DB	'k/effect/etc/recuperation/autodrugup_red.mse', 00H ; `string'
CONST	ENDS
;	COMDAT ??_C@_0DH@DGDHOHHH@d?3?1ymir?5work?1effect?1etc?1recuper@
CONST	SEGMENT
??_C@_0DH@DGDHOHHH@d?3?1ymir?5work?1effect?1etc?1recuper@ DB 'd:/ymir wor'
	DB	'k/effect/etc/recuperation/drugup_purple.mse', 00H ; `string'
CONST	ENDS
;	COMDAT ??_C@_0DG@KJEGMFD@d?3?1ymir?5work?1effect?1etc?1recuper@
CONST	SEGMENT
??_C@_0DG@KJEGMFD@d?3?1ymir?5work?1effect?1etc?1recuper@ DB 'd:/ymir work'
	DB	'/effect/etc/recuperation/drugup_green.mse', 00H ; `string'
CONST	ENDS
;	COMDAT ??_C@_0DF@DGBAIPPG@d?3?1ymir?5work?1effect?1etc?1recuper@
CONST	SEGMENT
??_C@_0DF@DGBAIPPG@d?3?1ymir?5work?1effect?1etc?1recuper@ DB 'd:/ymir wor'
	DB	'k/effect/etc/recuperation/drugup_blue.mse', 00H ; `string'
CONST	ENDS
;	COMDAT ??_C@_0DE@KDBGJFJN@d?3?1ymir?5work?1effect?1etc?1recuper@
CONST	SEGMENT
??_C@_0DE@KDBGJFJN@d?3?1ymir?5work?1effect?1etc?1recuper@ DB 'd:/ymir wor'
	DB	'k/effect/etc/recuperation/drugup_red.mse', 00H ; `string'
CONST	ENDS
;	COMDAT ??_C@_0CO@GCOGPOPI@d?3?1ymir?5work?1effect?1hit?1blow_1?1@
CONST	SEGMENT
??_C@_0CO@GCOGPOPI@d?3?1ymir?5work?1effect?1hit?1blow_1?1@ DB 'd:/ymir wo'
	DB	'rk/effect/hit/blow_1/blow_1_low.mse', 00H	; `string'
CONST	ENDS
;	COMDAT ??_C@_0CO@FHOIMEIA@d?3?1ymir?5work?1effect?1etc?1dust?1ru@
CONST	SEGMENT
??_C@_0CO@FHOIMEIA@d?3?1ymir?5work?1effect?1etc?1dust?1ru@ DB 'd:/ymir wo'
	DB	'rk/effect/etc/dust/running_dust.mse', 00H	; `string'
CONST	ENDS
;	COMDAT ??_C@_0CG@FNIDGDAD@d?3?1ymir?5work?1effect?1etc?1dust?1du@
CONST	SEGMENT
??_C@_0CG@FNIDGDAD@d?3?1ymir?5work?1effect?1etc?1dust?1du@ DB 'd:/ymir wo'
	DB	'rk/effect/etc/dust/dust.mse', 00H		; `string'
CONST	ENDS
;	COMDAT ??_C@_0CI@MPPOJFLC@D?3?1ymir?5work?1effect?1sword?1pieki@
CONST	SEGMENT
??_C@_0CI@MPPOJFLC@D?3?1ymir?5work?1effect?1sword?1pieki@ DB 'D:/ymir wor'
	DB	'k/effect/sword/piekielne.mse', 00H		; `string'
CONST	ENDS
;	COMDAT ??_C@_0CH@JOIHCIOK@D?3?1ymir?5work?1effect?1sword?1diabl@
CONST	SEGMENT
??_C@_0CH@JOIHCIOK@D?3?1ymir?5work?1effect?1sword?1diabl@ DB 'D:/ymir wor'
	DB	'k/effect/sword/diabla_w.mse', 00H		; `string'
CONST	ENDS
;	COMDAT ??_C@_0CF@BHENGJGF@D?3?1ymir?5work?1effect?1sword?1jesio@
CONST	SEGMENT
??_C@_0CF@BHENGJGF@D?3?1ymir?5work?1effect?1sword?1jesio@ DB 'D:/ymir wor'
	DB	'k/effect/sword/jesion.mse', 00H		; `string'
CONST	ENDS
;	COMDAT ??_C@_0CI@GHHADAPC@D?3?1ymir?5work?1effect?1sword?1bezdu@
CONST	SEGMENT
??_C@_0CI@GHHADAPC@D?3?1ymir?5work?1effect?1sword?1bezdu@ DB 'D:/ymir wor'
	DB	'k/effect/sword/bezduszne.mse', 00H		; `string'
CONST	ENDS
;	COMDAT ??_C@_0CH@FKBGCCDC@D?3?1ymir?5work?1effect?1sword?1skrzy@
CONST	SEGMENT
??_C@_0CH@FKBGCCDC@D?3?1ymir?5work?1effect?1sword?1skrzy@ DB 'D:/ymir wor'
	DB	'k/effect/sword/skrzydla.mse', 00H		; `string'
CONST	ENDS
;	COMDAT ??_C@_0CE@OCEPJPOD@D?3?1ymir?5work?1effect?1sword?1kozik@
CONST	SEGMENT
??_C@_0CE@OCEPJPOD@D?3?1ymir?5work?1effect?1sword?1kozik@ DB 'D:/ymir wor'
	DB	'k/effect/sword/kozik.mse', 00H		; `string'
CONST	ENDS
;	COMDAT ??_C@_0CG@FNICILCM@D?3?1ymir?5work?1effect?1sword?1szcze@
CONST	SEGMENT
??_C@_0CG@FNICILCM@D?3?1ymir?5work?1effect?1sword?1szcze@ DB 'D:/ymir wor'
	DB	'k/effect/sword/szczeki.mse', 00H		; `string'
CONST	ENDS
;	COMDAT ??_C@_0CF@OBOLHPCK@D?3?1ymir?5work?1effect?1sword?1bambu@
CONST	SEGMENT
??_C@_0CF@OBOLHPCK@D?3?1ymir?5work?1effect?1sword?1bambu@ DB 'D:/ymir wor'
	DB	'k/effect/sword/bambus.mse', 00H		; `string'
CONST	ENDS
;	COMDAT ??_C@_0CE@JAECJFJF@D?3?1ymir?5work?1effect?1sword?1antyk@
CONST	SEGMENT
??_C@_0CE@JAECJFJF@D?3?1ymir?5work?1effect?1sword?1antyk@ DB 'D:/ymir wor'
	DB	'k/effect/sword/antyk.mse', 00H		; `string'
CONST	ENDS
;	COMDAT ??_C@_0CH@PHJGNKLC@D?3?1ymir?5work?1effect?1sword?1diabl@
CONST	SEGMENT
??_C@_0CH@PHJGNKLC@D?3?1ymir?5work?1effect?1sword?1diabl@ DB 'D:/ymir wor'
	DB	'k/effect/sword/diabla_l.mse', 00H		; `string'
CONST	ENDS
;	COMDAT ??_C@_0CD@IFJBIMEB@D?3?1ymir?5work?1effect?1sword?1kruk?4@
CONST	SEGMENT
??_C@_0CD@IFJBIMEB@D?3?1ymir?5work?1effect?1sword?1kruk?4@ DB 'D:/ymir wo'
	DB	'rk/effect/sword/kruk.mse', 00H		; `string'
CONST	ENDS
;	COMDAT ??_C@_0CG@KGPMPGPP@D?3?1ymir?5work?1effect?1sword?1jelon@
CONST	SEGMENT
??_C@_0CG@KGPMPGPP@D?3?1ymir?5work?1effect?1sword?1jelon@ DB 'D:/ymir wor'
	DB	'k/effect/sword/jelonek.mse', 00H		; `string'
CONST	ENDS
;	COMDAT ??_C@_0CC@BIAIPDHH@D?3?1ymir?5work?1effect?1sword?1zal?4m@
CONST	SEGMENT
??_C@_0CC@BIAIPDHH@D?3?1ymir?5work?1effect?1sword?1zal?4m@ DB 'D:/ymir wo'
	DB	'rk/effect/sword/zal.mse', 00H		; `string'
CONST	ENDS
;	COMDAT ??_C@_0CC@MCAIMHNF@D?3?1ymir?5work?1effect?1sword?1rib?4m@
CONST	SEGMENT
??_C@_0CC@MCAIMHNF@D?3?1ymir?5work?1effect?1sword?1rib?4m@ DB 'D:/ymir wo'
	DB	'rk/effect/sword/rib.mse', 00H		; `string'
CONST	ENDS
;	COMDAT ??_C@_0CF@PEOGOFEJ@D?3?1ymir?5work?1effect?1sword?1swiet@
CONST	SEGMENT
??_C@_0CF@PEOGOFEJ@D?3?1ymir?5work?1effect?1sword?1swiet@ DB 'D:/ymir wor'
	DB	'k/effect/sword/swiety.mse', 00H		; `string'
CONST	ENDS
;	COMDAT ??_C@_0CH@JHALOLH@D?3?1ymir?5work?1effect?1sword?1brzeg@
CONST	SEGMENT
??_C@_0CH@JHALOLH@D?3?1ymir?5work?1effect?1sword?1brzeg@ DB 'D:/ymir work'
	DB	'/effect/sword/brzegowe.mse', 00H		; `string'
CONST	ENDS
;	COMDAT ??_C@_0CC@PGBPPDJM@D?3?1ymir?5work?1effect?1sword?1lwi?4m@
CONST	SEGMENT
??_C@_0CC@PGBPPDJM@D?3?1ymir?5work?1effect?1sword?1lwi?4m@ DB 'D:/ymir wo'
	DB	'rk/effect/sword/lwi.mse', 00H		; `string'
CONST	ENDS
;	COMDAT ??_C@_0CH@OJKFEBAD@D?3?1ymir?5work?1effect?1sword?1zatru@
CONST	SEGMENT
??_C@_0CH@OJKFEBAD@D?3?1ymir?5work?1effect?1sword?1zatru@ DB 'D:/ymir wor'
	DB	'k/effect/sword/zatruty2.mse', 00H		; `string'
CONST	ENDS
;	COMDAT ??_C@_0CF@FMCPLCFN@D?3?1ymir?5work?1effect?1sword?1tryto@
CONST	SEGMENT
??_C@_0CF@FMCPLCFN@D?3?1ymir?5work?1effect?1sword?1tryto@ DB 'D:/ymir wor'
	DB	'k/effect/sword/tryton.mse', 00H		; `string'
CONST	ENDS
;	COMDAT ??_C@_0CC@GDMANCJ@D?3?1ymir?5work?1effect?1sword?1fms?4m@
CONST	SEGMENT
??_C@_0CC@GDMANCJ@D?3?1ymir?5work?1effect?1sword?1fms?4m@ DB 'D:/ymir wor'
	DB	'k/effect/sword/fms.mse', 00H		; `string'
CONST	ENDS
;	COMDAT ??_C@_0CP@IMBNOLN@d?3?1ymir?5work?1pc?1common?1effect?1a@
CONST	SEGMENT
??_C@_0CP@IMBNOLN@d?3?1ymir?5work?1pc?1common?1effect?1a@ DB 'd:/ymir wor'
	DB	'k/pc/common/effect/armor/acc_01.mse', 00H	; `string'
CONST	ENDS
;	COMDAT ??_C@_0DE@KHKNPCIM@D?3?1ymir?5work?1pc?1common?1effect?1a@
CONST	SEGMENT
??_C@_0DE@KHKNPCIM@D?3?1ymir?5work?1pc?1common?1effect?1a@ DB 'D:/ymir wo'
	DB	'rk/pc/common/effect/armor/armor-4-2-2.mse', 00H ; `string'
CONST	ENDS
;	COMDAT ??_C@_0DE@CBDJIACC@D?3?1ymir?5work?1pc?1common?1effect?1a@
CONST	SEGMENT
??_C@_0DE@CBDJIACC@D?3?1ymir?5work?1pc?1common?1effect?1a@ DB 'D:/ymir wo'
	DB	'rk/pc/common/effect/armor/armor-4-2-1.mse', 00H ; `string'
CONST	ENDS
;	COMDAT ??_C@_0DA@DAPHOFBP@D?3?1ymir?5work?1pc?1common?1effect?1a@
CONST	SEGMENT
??_C@_0DA@DAPHOFBP@D?3?1ymir?5work?1pc?1common?1effect?1a@ DB 'D:/ymir wo'
	DB	'rk/pc/common/effect/armor/armor_9.mse', 00H	; `string'
CONST	ENDS
;	COMDAT ??_C@_0DA@PLKLDGLK@D?3?1ymir?5work?1pc?1common?1effect?1a@
CONST	SEGMENT
??_C@_0DA@PLKLDGLK@D?3?1ymir?5work?1pc?1common?1effect?1a@ DB 'D:/ymir wo'
	DB	'rk/pc/common/effect/armor/armor_8.mse', 00H	; `string'
CONST	ENDS
;	COMDAT ??_C@_0DA@KPNIEGP@D?3?1ymir?5work?1pc?1common?1effect?1a@
CONST	SEGMENT
??_C@_0DA@KPNIEGP@D?3?1ymir?5work?1pc?1common?1effect?1a@ DB 'D:/ymir wor'
	DB	'k/pc/common/effect/armor/armor_7.mse', 00H	; `string'
CONST	ENDS
;	COMDAT ??_C@_0DC@LNOGABDP@D?3?1ymir?5work?1pc?1common?1effect?1s@
CONST	SEGMENT
??_C@_0DC@LNOGABDP@D?3?1ymir?5work?1pc?1common?1effect?1s@ DB 'D:/ymir wo'
	DB	'rk/pc/common/effect/sword/sword_9_s.mse', 00H ; `string'
CONST	ENDS
;	COMDAT ??_C@_0DC@HBEMABKB@D?3?1ymir?5work?1pc?1common?1effect?1s@
CONST	SEGMENT
??_C@_0DC@HBEMABKB@D?3?1ymir?5work?1pc?1common?1effect?1s@ DB 'D:/ymir wo'
	DB	'rk/pc/common/effect/sword/sword_8_s.mse', 00H ; `string'
CONST	ENDS
;	COMDAT ??_C@_0DC@KIGMBDAN@D?3?1ymir?5work?1pc?1common?1effect?1s@
CONST	SEGMENT
??_C@_0DC@KIGMBDAN@D?3?1ymir?5work?1pc?1common?1effect?1s@ DB 'D:/ymir wo'
	DB	'rk/pc/common/effect/sword/sword_7_s.mse', 00H ; `string'
CONST	ENDS
;	COMDAT ??_C@_0DC@OOPNJCBH@D?3?1ymir?5work?1pc?1common?1effect?1s@
CONST	SEGMENT
??_C@_0DC@OOPNJCBH@D?3?1ymir?5work?1pc?1common?1effect?1s@ DB 'D:/ymir wo'
	DB	'rk/pc/common/effect/sword/sword_9_f.mse', 00H ; `string'
CONST	ENDS
;	COMDAT ??_C@_0DC@CCFHJCIJ@D?3?1ymir?5work?1pc?1common?1effect?1s@
CONST	SEGMENT
??_C@_0DC@CCFHJCIJ@D?3?1ymir?5work?1pc?1common?1effect?1s@ DB 'D:/ymir wo'
	DB	'rk/pc/common/effect/sword/sword_8_f.mse', 00H ; `string'
CONST	ENDS
;	COMDAT ??_C@_0DC@PLHHIACF@D?3?1ymir?5work?1pc?1common?1effect?1s@
CONST	SEGMENT
??_C@_0DC@PLHHIACF@D?3?1ymir?5work?1pc?1common?1effect?1s@ DB 'D:/ymir wo'
	DB	'rk/pc/common/effect/sword/sword_7_f.mse', 00H ; `string'
CONST	ENDS
;	COMDAT ??_C@_0DC@HFGMNAAB@D?3?1ymir?5work?1pc?1common?1effect?1s@
CONST	SEGMENT
??_C@_0DC@HFGMNAAB@D?3?1ymir?5work?1pc?1common?1effect?1s@ DB 'D:/ymir wo'
	DB	'rk/pc/common/effect/sword/sword_9_b.mse', 00H ; `string'
CONST	ENDS
;	COMDAT ??_C@_0DC@LJMGNAJP@D?3?1ymir?5work?1pc?1common?1effect?1s@
CONST	SEGMENT
??_C@_0DC@LJMGNAJP@D?3?1ymir?5work?1pc?1common?1effect?1s@ DB 'D:/ymir wo'
	DB	'rk/pc/common/effect/sword/sword_8_b.mse', 00H ; `string'
CONST	ENDS
;	COMDAT ??_C@_0BB@KENNFNCF@PART_WEAPON_LEFT@
CONST	SEGMENT
??_C@_0BB@KENNFNCF@PART_WEAPON_LEFT@ DB 'PART_WEAPON_LEFT', 00H ; `string'
CONST	ENDS
;	COMDAT ??_C@_0DC@GAOGMCDD@D?3?1ymir?5work?1pc?1common?1effect?1s@
CONST	SEGMENT
??_C@_0DC@GAOGMCDD@D?3?1ymir?5work?1pc?1common?1effect?1s@ DB 'D:/ymir wo'
	DB	'rk/pc/common/effect/sword/sword_7_b.mse', 00H ; `string'
CONST	ENDS
;	COMDAT ??_C@_0DA@DMEIBDGE@D?3?1ymir?5work?1pc?1common?1effect?1s@
CONST	SEGMENT
??_C@_0DA@DMEIBDGE@D?3?1ymir?5work?1pc?1common?1effect?1s@ DB 'D:/ymir wo'
	DB	'rk/pc/common/effect/sword/sword_9.mse', 00H	; `string'
CONST	ENDS
;	COMDAT ??_C@_0DA@PHBEMAMB@D?3?1ymir?5work?1pc?1common?1effect?1s@
CONST	SEGMENT
??_C@_0DA@PHBEMAMB@D?3?1ymir?5work?1pc?1common?1effect?1s@ DB 'D:/ymir wo'
	DB	'rk/pc/common/effect/sword/sword_8.mse', 00H	; `string'
CONST	ENDS
;	COMDAT ??_C@_0M@LDILJIBN@PART_WEAPON@
CONST	SEGMENT
??_C@_0M@LDILJIBN@PART_WEAPON@ DB 'PART_WEAPON', 00H	; `string'
CONST	ENDS
;	COMDAT ??_C@_0DA@GECHCBE@D?3?1ymir?5work?1pc?1common?1effect?1s@
CONST	SEGMENT
??_C@_0DA@GECHCBE@D?3?1ymir?5work?1pc?1common?1effect?1s@ DB 'D:/ymir wor'
	DB	'k/pc/common/effect/sword/sword_7.mse', 00H	; `string'
CONST	ENDS
;	COMDAT ??_C@_0CO@HACMINDF@d?3?1ymir?5work?1ui?1game?1staff_effe@
CONST	SEGMENT
??_C@_0CO@HACMINDF@d?3?1ymir?5work?1ui?1game?1staff_effe@ DB 'd:/ymir wor'
	DB	'k/ui/game/staff_effect/tgm/tgm.mse', 00H	; `string'
CONST	ENDS
;	COMDAT ??_C@_0CM@EBGEEMDH@d?3?1ymir?5work?1ui?1game?1staff_effe@
CONST	SEGMENT
??_C@_0CM@EBGEEMDH@d?3?1ymir?5work?1ui?1game?1staff_effe@ DB 'd:/ymir wor'
	DB	'k/ui/game/staff_effect/gm/gm.mse', 00H	; `string'
CONST	ENDS
;	COMDAT ??_C@_0CM@NAJCHPFI@d?3?1ymir?5work?1ui?1game?1staff_effe@
CONST	SEGMENT
??_C@_0CM@NAJCHPFI@d?3?1ymir?5work?1ui?1game?1staff_effe@ DB 'd:/ymir wor'
	DB	'k/ui/game/staff_effect/ga/ga.mse', 00H	; `string'
CONST	ENDS
;	COMDAT ??_C@_0CM@GNEGOGBH@d?3?1ymir?5work?1ui?1game?1staff_effe@
CONST	SEGMENT
??_C@_0CM@GNEGOGBH@d?3?1ymir?5work?1ui?1game?1staff_effe@ DB 'd:/ymir wor'
	DB	'k/ui/game/staff_effect/sa/sa.mse', 00H	; `string'
CONST	ENDS
;	COMDAT ??_C@_0CL@OEFHPFHK@d?3?1ymir?5work?1effect?1autohunt?1au@
CONST	SEGMENT
??_C@_0CL@OEFHPFHK@d?3?1ymir?5work?1effect?1autohunt?1au@ DB 'd:/ymir wor'
	DB	'k/effect/autohunt/auto_hunt.mse', 00H	; `string'
CONST	ENDS
;	COMDAT ??_C@_0DH@IIDBMJBL@d?3?1ymir?5work?1effect?1etc?1guild_w@
CONST	SEGMENT
??_C@_0DH@IIDBMJBL@d?3?1ymir?5work?1effect?1etc?1guild_w@ DB 'd:/ymir wor'
	DB	'k/effect/etc/guild_war_flag/flag_yellow.mse', 00H ; `string'
CONST	ENDS
;	COMDAT ??_C@_0DF@ELFLIELL@d?3?1ymir?5work?1effect?1etc?1guild_w@
CONST	SEGMENT
??_C@_0DF@ELFLIELL@d?3?1ymir?5work?1effect?1etc?1guild_w@ DB 'd:/ymir wor'
	DB	'k/effect/etc/guild_war_flag/flag_blue.mse', 00H ; `string'
CONST	ENDS
;	COMDAT ??_C@_0DE@OPIDGJBC@d?3?1ymir?5work?1effect?1etc?1guild_w@
CONST	SEGMENT
??_C@_0DE@OPIDGJBC@d?3?1ymir?5work?1effect?1etc?1guild_w@ DB 'd:/ymir wor'
	DB	'k/effect/etc/guild_war_flag/flag_red.mse', 00H ; `string'
CONST	ENDS
;	COMDAT ??_C@_0CM@CCAFDLBP@d?3?1ymir?5work?1pc?1sura?1effect?1pab@
CONST	SEGMENT
??_C@_0CM@CCAFDLBP@d?3?1ymir?5work?1pc?1sura?1effect?1pab@ DB 'd:/ymir wo'
	DB	'rk/pc/sura/effect/pabeop_loop.mse', 00H	; `string'
CONST	ENDS
;	COMDAT ??_C@_0N@OCIKHMFE@Bip01?5L?5Hand@
CONST	SEGMENT
??_C@_0N@OCIKHMFE@Bip01?5L?5Hand@ DB 'Bip01 L Hand', 00H ; `string'
CONST	ENDS
;	COMDAT ??_C@_0DC@GCFCFGML@d?3?1ymir?5work?1pc?1shaman?1effect?1j@
CONST	SEGMENT
??_C@_0DC@GCFCFGML@d?3?1ymir?5work?1pc?1shaman?1effect?1j@ DB 'd:/ymir wo'
	DB	'rk/pc/shaman/effect/jeungryeok_hand.mse', 00H ; `string'
CONST	ENDS
;	COMDAT ??_C@_0N@NFGLJLMH@Bip01?5R?5Hand@
CONST	SEGMENT
??_C@_0N@NFGLJLMH@Bip01?5R?5Hand@ DB 'Bip01 R Hand', 00H ; `string'
CONST	ENDS
;	COMDAT ??_C@_0DA@CCOAHJOP@d?3?1ymir?5work?1pc?1shaman?1effect?16@
CONST	SEGMENT
??_C@_0DA@CCOAHJOP@d?3?1ymir?5work?1pc?1shaman?1effect?16@ DB 'd:/ymir wo'
	DB	'rk/pc/shaman/effect/6gicheon_hand.mse', 00H	; `string'
CONST	ENDS
;	COMDAT ??_C@_0DC@JEFOLNDJ@d?3?1ymir?5work?1effect?1hit?1blow_fl@
CONST	SEGMENT
??_C@_0DC@JEFOLNDJ@d?3?1ymir?5work?1effect?1hit?1blow_fl@ DB 'd:/ymir wor'
	DB	'k/effect/hit/blow_flame/flame_loop.mse', 00H ; `string'
CONST	ENDS
;	COMDAT ??_C@_0CN@OFCKCPPJ@d?3?1ymir?5work?1pc?1sura?1effect?1muy@
CONST	SEGMENT
??_C@_0CN@OFCKCPPJ@d?3?1ymir?5work?1pc?1sura?1effect?1muy@ DB 'd:/ymir wo'
	DB	'rk/pc/sura/effect/muyeong_loop.mse', 00H	; `string'
CONST	ENDS
;	COMDAT ??_C@_0CN@FIKFMJKE@d?3?1ymir?5work?1pc?1sura?1effect?1heu@
CONST	SEGMENT
??_C@_0CN@FIKFMJKE@d?3?1ymir?5work?1pc?1sura?1effect?1heu@ DB 'd:/ymir wo'
	DB	'rk/pc/sura/effect/heuksin_loop.mse', 00H	; `string'
CONST	ENDS
;	COMDAT ??_C@_0DB@JOKHCNEG@d?3?1ymir?5work?1pc?1shaman?1effect?11@
CONST	SEGMENT
??_C@_0DB@JOKHCNEG@d?3?1ymir?5work?1pc?1shaman?1effect?11@ DB 'd:/ymir wo'
	DB	'rk/pc/shaman/effect/10kwaesok_loop.mse', 00H ; `string'
CONST	ENDS
;	COMDAT ??_C@_0CM@LPKODKL@d?3?1ymir?5work?1pc?1shaman?1effect?1b@
CONST	SEGMENT
??_C@_0CM@LPKODKL@d?3?1ymir?5work?1pc?1shaman?1effect?1b@ DB 'd:/ymir wor'
	DB	'k/pc/shaman/effect/boho_loop.mse', 00H	; `string'
CONST	ENDS
;	COMDAT ??_C@_0CO@IDBDIMLN@d?3?1ymir?5work?1pc?1shaman?1effect?13@
CONST	SEGMENT
??_C@_0CO@IDBDIMLN@d?3?1ymir?5work?1pc?1shaman?1effect?13@ DB 'd:/ymir wo'
	DB	'rk/pc/shaman/effect/3hosin_loop.mse', 00H	; `string'
CONST	ENDS
;	COMDAT ??_C@_0CN@LNFALLNB@d?3?1ymir?5work?1pc?1sura?1effect?1jum@
CONST	SEGMENT
??_C@_0CN@LNFALLNB@d?3?1ymir?5work?1pc?1sura?1effect?1jum@ DB 'd:/ymir wo'
	DB	'rk/pc/sura/effect/jumagap_loop.mse', 00H	; `string'
CONST	ENDS
;	COMDAT ??_C@_0CK@CIALJCLA@d?3?1ymir?5work?1pc?1sura?1effect?1fea@
CONST	SEGMENT
??_C@_0CK@CIALJCLA@d?3?1ymir?5work?1pc?1sura?1effect?1fea@ DB 'd:/ymir wo'
	DB	'rk/pc/sura/effect/fear_loop.mse', 00H	; `string'
CONST	ENDS
;	COMDAT ??_C@_0BA@LANKCOK@Bip01?5R?5Finger2@
CONST	SEGMENT
??_C@_0BA@LANKCOK@Bip01?5R?5Finger2@ DB 'Bip01 R Finger2', 00H ; `string'
CONST	ENDS
;	COMDAT ??_C@_0CN@LGPPPMOM@d?3?1ymir?5work?1pc?1sura?1effect?1gwi@
CONST	SEGMENT
??_C@_0CN@LGPPPMOM@d?3?1ymir?5work?1pc?1sura?1effect?1gwi@ DB 'd:/ymir wo'
	DB	'rk/pc/sura/effect/gwigeom_loop.mse', 00H	; `string'
CONST	ENDS
;	COMDAT ??_C@_0DE@JCKMOOOL@d?3?1ymir?5work?1pc?1assassin?1effect@
CONST	SEGMENT
??_C@_0DE@JCKMOOOL@d?3?1ymir?5work?1pc?1assassin?1effect@ DB 'd:/ymir wor'
	DB	'k/pc/assassin/effect/gyeonggong_loop.mse', 00H ; `string'
CONST	ENDS
;	COMDAT ??_C@_0DG@JMJLCJCB@d?3?1ymir?5work?1pc?1warrior?1effect?1@
CONST	SEGMENT
??_C@_0DG@JMJLCJCB@d?3?1ymir?5work?1pc?1warrior?1effect?1@ DB 'd:/ymir wo'
	DB	'rk/pc/warrior/effect/gyeokgongjang_loop.mse', 00H ; `string'
CONST	ENDS
;	COMDAT ??_C@_0CI@CBNNNGMC@d?3?1ymir?5work?1effect?1etc?1ready?1r@
CONST	SEGMENT
??_C@_0CI@CBNNNGMC@d?3?1ymir?5work?1effect?1etc?1ready?1r@ DB 'd:/ymir wo'
	DB	'rk/effect/etc/ready/ready.mse', 00H		; `string'
CONST	ENDS
;	COMDAT ??_C@_0L@GHIHOBPC@Bip01?5Head@
CONST	SEGMENT
??_C@_0L@GHIHOBPC@Bip01?5Head@ DB 'Bip01 Head', 00H	; `string'
CONST	ENDS
;	COMDAT ??_C@_0CL@IPGAJMDP@d?3?1ymir?5work?1effect?1etc?1stun?1st@
CONST	SEGMENT
??_C@_0CL@IPGAJMDP@d?3?1ymir?5work?1effect?1etc?1stun?1st@ DB 'd:/ymir wo'
	DB	'rk/effect/etc/stun/stun_loop.mse', 00H	; `string'
CONST	ENDS
;	COMDAT ??_C@_0CE@FPDCDHKE@d?3?1ymir?5work?1effect?1affect?1slow@
CONST	SEGMENT
??_C@_0CE@FPDCDHKE@d?3?1ymir?5work?1effect?1affect?1slow@ DB 'd:/ymir wor'
	DB	'k/effect/affect/slow.mse', 00H		; `string'
CONST	ENDS
;	COMDAT ??_C@_0DE@KJMEEODN@d?3?1ymir?5work?1effect?1hit?1blow_po@
CONST	SEGMENT
??_C@_0DE@KJMEEODN@d?3?1ymir?5work?1effect?1hit?1blow_po@ DB 'd:/ymir wor'
	DB	'k/effect/hit/blow_poison/poison_loop.mse', 00H ; `string'
CONST	ENDS
;	COMDAT ??_C@_0DD@CMEIIDFJ@d?3?1ymir?5work?1pc?1warrior?1effect?1@
CONST	SEGMENT
??_C@_0DD@CMEIIDFJ@d?3?1ymir?5work?1pc?1warrior?1effect?1@ DB 'd:/ymir wo'
	DB	'rk/pc/warrior/effect/geom_spear_loop.mse', 00H ; `string'
CONST	ENDS
;	COMDAT ??_C@_0DD@EOBPHODL@d?3?1ymir?5work?1pc?1warrior?1effect?1@
CONST	SEGMENT
??_C@_0DD@EOBPHODL@d?3?1ymir?5work?1pc?1warrior?1effect?1@ DB 'd:/ymir wo'
	DB	'rk/pc/warrior/effect/geom_sword_loop.mse', 00H ; `string'
CONST	ENDS
;	COMDAT ??_C@_0CM@MKGNJLKP@d?3?1ymir?5work?1effect?1etc?1empire?1@
CONST	SEGMENT
??_C@_0CM@MKGNJLKP@d?3?1ymir?5work?1effect?1etc?1empire?1@ DB 'd:/ymir wo'
	DB	'rk/effect/etc/empire/empire_C.mse', 00H	; `string'
CONST	ENDS
;	COMDAT ??_C@_0CM@BDBEIAK@d?3?1ymir?5work?1effect?1etc?1empire?1@
CONST	SEGMENT
??_C@_0CM@BDBEIAK@d?3?1ymir?5work?1effect?1etc?1empire?1@ DB 'd:/ymir wor'
	DB	'k/effect/etc/empire/empire_B.mse', 00H	; `string'
CONST	ENDS
;	COMDAT ??_C@_0CM@IHKFDKKE@d?3?1ymir?5work?1effect?1etc?1empire?1@
CONST	SEGMENT
??_C@_0CM@IHKFDKKE@d?3?1ymir?5work?1effect?1etc?1empire?1@ DB 'd:/ymir wo'
	DB	'rk/effect/etc/empire/empire_A.mse', 00H	; `string'
CONST	ENDS
;	COMDAT ??_C@_0CO@BGKHBBGO@d?3?1ymir?5work?1effect?1etc?1skillup@
CONST	SEGMENT
??_C@_0CO@BGKHBBGO@d?3?1ymir?5work?1effect?1etc?1skillup@ DB 'd:/ymir wor'
	DB	'k/effect/etc/skillup/skillup_1.mse', 00H	; `string'
CONST	ENDS
;	COMDAT ??_C@_0CP@IEGOOEJL@d?3?1ymir?5work?1effect?1etc?1levelup@
CONST	SEGMENT
??_C@_0CP@IEGOOEJL@d?3?1ymir?5work?1effect?1etc?1levelup@ DB 'd:/ymir wor'
	DB	'k/effect/etc/levelup_1/level_up.mse', 00H	; `string'
CONST	ENDS
;	COMDAT ??_C@_0CN@NIGJEOKG@d?3?1ymir?5work?1effect?1etc?1boss_ef@
CONST	SEGMENT
??_C@_0CN@NIGJEOKG@d?3?1ymir?5work?1effect?1etc?1boss_ef@ DB 'd:/ymir wor'
	DB	'k/effect/etc/boss_effect/boss.mse', 00H	; `string'
CONST	ENDS
;	COMDAT ??_C@_0DH@IHHEIPEM@d?3?1ymir?5work?1effect?1hit?1blow_el@
CONST	SEGMENT
??_C@_0DH@IHHEIPEM@d?3?1ymir?5work?1effect?1hit?1blow_el@ DB 'd:/ymir wor'
	DB	'k/effect/hit/blow_electric/light_1_body.mse', 00H ; `string'
CONST	ENDS
;	COMDAT ??_C@_0DH@DBPGLNCF@d?3?1ymir?5work?1effect?1hit?1blow_el@
CONST	SEGMENT
??_C@_0DH@DBPGLNCF@d?3?1ymir?5work?1effect?1hit?1blow_el@ DB 'd:/ymir wor'
	DB	'k/effect/hit/blow_electric/light_1_blow.mse', 00H ; `string'
CONST	ENDS
;	COMDAT ??_C@_0M@OLLEIOHA@equip_right@
CONST	SEGMENT
??_C@_0M@OLLEIOHA@equip_right@ DB 'equip_right', 00H	; `string'
CONST	ENDS
;	COMDAT ??_C@_0DJ@JDHCNJPF@d?3?1ymir?5work?1effect?1hit?1blow_el@
CONST	SEGMENT
??_C@_0DJ@JDHCNJPF@d?3?1ymir?5work?1effect?1hit?1blow_el@ DB 'd:/ymir wor'
	DB	'k/effect/hit/blow_electric/light_1_weapon.mse', 00H ; `string'
CONST	ENDS
;	COMDAT ??_C@_0DE@FPADLJBL@d?3?1ymir?5work?1effect?1hit?1blow_fl@
CONST	SEGMENT
??_C@_0DE@FPADLJBL@d?3?1ymir?5work?1effect?1hit?1blow_fl@ DB 'd:/ymir wor'
	DB	'k/effect/hit/blow_flame/flame_3_body.mse', 00H ; `string'
CONST	ENDS
;	COMDAT ??_C@_0DE@OJIBILHC@d?3?1ymir?5work?1effect?1hit?1blow_fl@
CONST	SEGMENT
??_C@_0DE@OJIBILHC@d?3?1ymir?5work?1effect?1hit?1blow_fl@ DB 'd:/ymir wor'
	DB	'k/effect/hit/blow_flame/flame_3_blow.mse', 00H ; `string'
CONST	ENDS
;	COMDAT ??_C@_0BB@BPFBADGN@equip_right_hand@
CONST	SEGMENT
??_C@_0BB@BPFBADGN@equip_right_hand@ DB 'equip_right_hand', 00H ; `string'
CONST	ENDS
;	COMDAT ??_C@_0DG@KJDCFPII@d?3?1ymir?5work?1effect?1hit?1blow_fl@
CONST	SEGMENT
??_C@_0DG@KJDCFPII@d?3?1ymir?5work?1effect?1hit?1blow_fl@ DB 'd:/ymir wor'
	DB	'k/effect/hit/blow_flame/flame_3_weapon.mse', 00H ; `string'
CONST	ENDS
;	COMDAT ??_C@_0DD@JEPOMPGJ@d?3?1ymir?5work?1effect?1etc?1appear_@
CONST	SEGMENT
??_C@_0DD@JEPOMPGJ@d?3?1ymir?5work?1effect?1etc?1appear_@ DB 'd:/ymir wor'
	DB	'k/effect/etc/appear_die/monster_die.mse', 00H ; `string'
CONST	ENDS
;	COMDAT ??_C@_05BBIGKCLJ@Bip01@
CONST	SEGMENT
??_C@_05BBIGKCLJ@Bip01@ DB 'Bip01', 00H			; `string'
CONST	ENDS
;	COMDAT ??_C@_0DG@MNIDINPI@d?3?1ymir?5work?1effect?1etc?1appear_@
CONST	SEGMENT
??_C@_0DG@MNIDINPI@d?3?1ymir?5work?1effect?1etc?1appear_@ DB 'd:/ymir wor'
	DB	'k/effect/etc/appear_die/monster_appear.mse', 00H ; `string'
CONST	ENDS
;	COMDAT ??_C@_0BK@KFMADICD@sound?1ui?1potal_scroll?4wav@
CONST	SEGMENT
??_C@_0BK@KFMADICD@sound?1ui?1potal_scroll?4wav@ DB 'sound/ui/potal_scrol'
	DB	'l.wav', 00H					; `string'
CONST	ENDS
;	COMDAT ??_C@_0BI@HPEEMGIC@sound?1ui?1eat_potion?4wav@
CONST	SEGMENT
??_C@_0BI@HPEEMGIC@sound?1ui?1eat_potion?4wav@ DB 'sound/ui/eat_potion.wa'
	DB	'v', 00H					; `string'
CONST	ENDS
;	COMDAT ??_C@_0CA@COJJICKC@sound?1ui?1equip_metal_weapon?4wav@
CONST	SEGMENT
??_C@_0CA@COJJICKC@sound?1ui?1equip_metal_weapon?4wav@ DB 'sound/ui/equip'
	DB	'_metal_weapon.wav', 00H			; `string'
CONST	ENDS
;	COMDAT ??_C@_0BH@JDLOIICI@sound?1ui?1equip_bow?4wav@
CONST	SEGMENT
??_C@_0BH@JDLOIICI@sound?1ui?1equip_bow?4wav@ DB 'sound/ui/equip_bow.wav', 00H ; `string'
CONST	ENDS
;	COMDAT ??_C@_0BP@PMFHICHL@sound?1ui?1equip_metal_armor?4wav@
CONST	SEGMENT
??_C@_0BP@PMFHICHL@sound?1ui?1equip_metal_armor?4wav@ DB 'sound/ui/equip_'
	DB	'metal_armor.wav', 00H			; `string'
CONST	ENDS
;	COMDAT ??_C@_0BP@BMHKPOHF@sound?1ui?1equip_ring_amulet?4wav@
CONST	SEGMENT
??_C@_0BP@BMHKPOHF@sound?1ui?1equip_ring_amulet?4wav@ DB 'sound/ui/equip_'
	DB	'ring_amulet.wav', 00H			; `string'
CONST	ENDS
;	COMDAT ??_C@_0BC@NAJLHID@sound?1ui?1drop?4wav@
CONST	SEGMENT
??_C@_0BC@NAJLHID@sound?1ui?1drop?4wav@ DB 'sound/ui/drop.wav', 00H ; `string'
CONST	ENDS
;	COMDAT ??_C@_0M@DCGGAEPD@npclist?4txt@
CONST	SEGMENT
??_C@_0M@DCGGAEPD@npclist?4txt@ DB 'npclist.txt', 00H	; `string'
PUBLIC	??0D3DXCOLOR@@QAE@XZ				; D3DXCOLOR::D3DXCOLOR
PUBLIC	?D3DXMatrixIdentity@@YAPAUD3DXMATRIX@@PAU1@@Z	; D3DXMatrixIdentity
PUBLIC	??0?$basic_string@DU?$char_traits@D@std@@V?$allocator@D@2@@std@@QAE@ABV01@@Z ; std::basic_string<char,std::char_traits<char>,std::allocator<char> >::basic_string<char,std::char_traits<char>,std::allocator<char> >
PUBLIC	??$_Construct@$01PBD@?$basic_string@DU?$char_traits@D@std@@V?$allocator@D@2@@std@@AAEXQBDI@Z ; std::basic_string<char,std::char_traits<char>,std::allocator<char> >::_Construct<2,char const *>
PUBLIC	?select_on_container_copy_construction@?$_Default_allocator_traits@V?$allocator@D@std@@@std@@SA?AV?$allocator@D@2@ABV32@@Z ; std::_Default_allocator_traits<std::allocator<char> >::select_on_container_copy_construction
PUBLIC	??$?0V?$allocator@D@std@@$$V@?$_Compressed_pair@V?$allocator@D@std@@V?$_String_val@U?$_Simple_types@D@std@@@2@$00@std@@QAE@U_One_then_variadic_args_t@1@$$QAV?$allocator@D@1@@Z ; std::_Compressed_pair<std::allocator<char>,std::_String_val<std::_Simple_types<char> >,1>::_Compressed_pair<std::allocator<char>,std::_String_val<std::_Simple_types<char> >,1><std::allocator<char> >
PUBLIC	??$forward@V?$allocator@D@std@@@std@@YA$$QAV?$allocator@D@0@AAV10@@Z ; std::forward<std::allocator<char> >
PUBLIC	?compare@?$_Narrow_char_traits@DH@std@@SAHQBD0I@Z ; std::_Narrow_char_traits<char,int>::compare
PUBLIC	??0?$tuple@$$V@std@@QAE@ABV01@@Z		; std::tuple<>::tuple<>
PUBLIC	??DD3DXMATRIX@@QBE?AU0@ABU0@@Z			; D3DXMATRIX::operator*
PUBLIC	??BD3DXCOLOR@@QBEKXZ				; D3DXCOLOR::operator unsigned long
PUBLIC	??0D3DXCOLOR@@QAE@MMMM@Z			; D3DXCOLOR::D3DXCOLOR
PUBLIC	??DD3DXVECTOR3@@QBE?AU0@M@Z			; D3DXVECTOR3::operator*
PUBLIC	?empty@?$basic_string@DU?$char_traits@D@std@@V?$allocator@D@2@@std@@QBE_NXZ ; std::basic_string<char,std::char_traits<char>,std::allocator<char> >::empty
PUBLIC	?compare@?$basic_string@DU?$char_traits@D@std@@V?$allocator@D@2@@std@@QBEHQBD@Z ; std::basic_string<char,std::char_traits<char>,std::allocator<char> >::compare
PUBLIC	??$_Traits_compare@U?$char_traits@D@std@@@std@@YAHQBDI0I@Z ; std::_Traits_compare<std::char_traits<char> >
PUBLIC	??0?$basic_string@DU?$char_traits@D@std@@V?$allocator@D@2@@std@@QAE@U_String_constructor_concat_tag@1@ABV01@QBDI2I@Z ; std::basic_string<char,std::char_traits<char>,std::allocator<char> >::basic_string<char,std::char_traits<char>,std::allocator<char> >
PUBLIC	??0?$basic_string@DU?$char_traits@D@std@@V?$allocator@D@2@@std@@QAE@$$QAV01@@Z ; std::basic_string<char,std::char_traits<char>,std::allocator<char> >::basic_string<char,std::char_traits<char>,std::allocator<char> >
PUBLIC	?_Take_contents@?$basic_string@DU?$char_traits@D@std@@V?$allocator@D@2@@std@@AAEXAAV12@@Z ; std::basic_string<char,std::char_traits<char>,std::allocator<char> >::_Take_contents
PUBLIC	??$_Construct_in_place@PADAAPAD@std@@YAXAAPAD0@Z ; std::_Construct_in_place<char *,char * &>
PUBLIC	??$construct_at@PADAAPAD@std@@YAPAPADQAPADAAPAD@Z ; std::construct_at<char *,char * &>
PUBLIC	??$forward@AAPAD@std@@YAAAPADAAPAD@Z		; std::forward<char * &>
PUBLIC	?_Swap_proxy_and_iterators@?$basic_string@DU?$char_traits@D@std@@V?$allocator@D@2@@std@@AAEXAAV12@@Z ; std::basic_string<char,std::char_traits<char>,std::allocator<char> >::_Swap_proxy_and_iterators
PUBLIC	?_Swap_proxy_and_iterators@_Container_base0@std@@QAEXAAU12@@Z ; std::_Container_base0::_Swap_proxy_and_iterators
PUBLIC	??$addressof@V?$_String_val@U?$_Simple_types@D@std@@@std@@@std@@YAPAV?$_String_val@U?$_Simple_types@D@std@@@0@AAV10@@Z ; std::addressof<std::_String_val<std::_Simple_types<char> > >
PUBLIC	??$move@AAV?$allocator@D@std@@@std@@YA$$QAV?$allocator@D@0@AAV10@@Z ; std::move<std::allocator<char> &>
PUBLIC	?_Getcont@_Iterator_base0@std@@QBEPBU_Container_base0@2@XZ ; std::_Iterator_base0::_Getcont
PUBLIC	??$addressof@V?$basic_string@DU?$char_traits@D@std@@V?$allocator@D@2@@std@@@std@@YAPAV?$basic_string@DU?$char_traits@D@std@@V?$allocator@D@2@@0@AAV10@@Z ; std::addressof<std::basic_string<char,std::char_traits<char>,std::allocator<char> > >
PUBLIC	??Mstd@@YA_NUstrong_ordering@0@U_Literal_zero@0@@Z ; std::operator<
PUBLIC	??$construct_at@U?$pair@$$CBEV?$vector@EV?$allocator@E@std@@@std@@@std@@AAU12@@std@@YAPAU?$pair@$$CBEV?$vector@EV?$allocator@E@std@@@std@@@0@QAU10@AAU10@@Z ; std::construct_at<std::pair<unsigned char const ,std::vector<unsigned char,std::allocator<unsigned char> > >,std::pair<unsigned char const ,std::vector<unsigned char,std::allocator<unsigned char> > > &>
PUBLIC	??$construct@U?$pair@$$CBEV?$vector@EV?$allocator@E@std@@@std@@@std@@AAU12@@?$_Default_allocator_traits@V?$allocator@U?$_Tree_node@U?$pair@$$CBEV?$vector@EV?$allocator@E@std@@@std@@@std@@PAX@std@@@std@@@std@@SAXAAV?$allocator@U?$_Tree_node@U?$pair@$$CBEV?$vector@EV?$allocator@E@std@@@std@@@std@@PAX@std@@@1@QAU?$pair@$$CBEV?$vector@EV?$allocator@E@std@@@std@@@1@AAU31@@Z ; std::_Default_allocator_traits<std::allocator<std::_Tree_node<std::pair<unsigned char const ,std::vector<unsigned char,std::allocator<unsigned char> > >,void *> > >::construct<std::pair<unsigned char const ,std::vector<unsigned char,std::allocator<unsigned char> > >,std::pair<unsigned char const ,std::vector<unsigned char,std::allocator<unsigned char> > > &>
PUBLIC	??$addressof@PAUSEffectDamage@CInstanceBase@@@std@@YAPAPAUSEffectDamage@CInstanceBase@@AAPAU12@@Z ; std::addressof<CInstanceBase::SEffectDamage *>
PUBLIC	?compare@?$basic_string@DU?$char_traits@D@std@@V?$allocator@D@2@@std@@QBEHABV12@@Z ; std::basic_string<char,std::char_traits<char>,std::allocator<char> >::compare
PUBLIC	?_Get_first@?$_Compressed_pair@V?$allocator@U?$_Tree_node@U?$pair@$$CBEV?$array@E$02@std@@@std@@PAX@std@@@std@@V?$_Tree_val@U?$_Tree_simple_types@U?$pair@$$CBEV?$array@E$02@std@@@std@@@std@@@2@$00@std@@QBEABV?$allocator@U?$_Tree_node@U?$pair@$$CBEV?$array@E$02@std@@@std@@PAX@std@@@2@XZ ; std::_Compressed_pair<std::allocator<std::_Tree_node<std::pair<unsigned char const ,std::array<unsigned char,3> >,void *> >,std::_Tree_val<std::_Tree_simple_types<std::pair<unsigned char const ,std::array<unsigned char,3> > > >,1>::_Get_first
PUBLIC	?_Get_first@?$_Compressed_pair@V?$allocator@U?$_Tree_node@U?$pair@$$CBEPBD@std@@PAX@std@@@std@@V?$_Tree_val@U?$_Tree_simple_types@U?$pair@$$CBEPBD@std@@@std@@@2@$00@std@@QBEABV?$allocator@U?$_Tree_node@U?$pair@$$CBEPBD@std@@PAX@std@@@2@XZ ; std::_Compressed_pair<std::allocator<std::_Tree_node<std::pair<unsigned char const ,char const *>,void *> >,std::_Tree_val<std::_Tree_simple_types<std::pair<unsigned char const ,char const *> > >,1>::_Get_first
PUBLIC	?_Get_first@?$_Compressed_pair@V?$allocator@U?$_Tree_node@U?$pair@$$CBEV?$map@EV?$vector@EV?$allocator@E@std@@@std@@U?$less@E@2@V?$allocator@U?$pair@$$CBEV?$vector@EV?$allocator@E@std@@@std@@@std@@@2@@std@@@std@@PAX@std@@@std@@V?$_Tree_val@U?$_Tree_simple_types@U?$pair@$$CBEV?$map@EV?$vector@EV?$allocator@E@std@@@std@@U?$less@E@2@V?$allocator@U?$pair@$$CBEV?$vector@EV?$allocator@E@std@@@std@@@std@@@2@@std@@@std@@@std@@@2@$00@std@@QBEABV?$allocator@U?$_Tree_node@U?$pair@$$CBEV?$map@EV?$vector@EV?$allocator@E@std@@@std@@U?$less@E@2@V?$allocator@U?$pair@$$CBEV?$vector@EV?$allocator@E@std@@@std@@@std@@@2@@std@@@std@@PAX@std@@@2@XZ ; std::_Compressed_pair<std::allocator<std::_Tree_node<std::pair<unsigned char const ,std::map<unsigned char,std::vector<unsigned char,std::allocator<unsigned char> >,std::less<unsigned char>,std::allocator<std::pair<unsigned char const ,std::vector<unsigned char,std::allocator<unsigned char> > > > > >,void *> >,std::_Tree_val<std::_Tree_simple_types<std::pair<unsigned char const ,std::map<unsigned char,std::vector<unsigned char,std::allocator<unsigned char> >,std::less<unsigned char>,std::allocator<std::pair<unsigned char const ,std::vector<unsigned char,std::allocator<unsigned char> > > > > > > >,1>::_Get_first
PUBLIC	?_Orphan_ptr@?$_Tree_val@U?$_Tree_simple_types@U?$pair@$$CBEV?$vector@EV?$allocator@E@std@@@std@@@std@@@std@@@std@@QAEXQAU?$_Tree_node@U?$pair@$$CBEV?$vector@EV?$allocator@E@std@@@std@@@std@@PAX@2@@Z ; std::_Tree_val<std::_Tree_simple_types<std::pair<unsigned char const ,std::vector<unsigned char,std::allocator<unsigned char> > > > >::_Orphan_ptr
PUBLIC	?_Get_first@?$_Compressed_pair@V?$allocator@U?$_Tree_node@U?$pair@$$CBV?$basic_string@DU?$char_traits@D@std@@V?$allocator@D@2@@std@@V?$vector@EV?$allocator@E@std@@@2@@std@@PAX@std@@@std@@V?$_Tree_val@U?$_Tree_simple_types@U?$pair@$$CBV?$basic_string@DU?$char_traits@D@std@@V?$allocator@D@2@@std@@V?$vector@EV?$allocator@E@std@@@2@@std@@@std@@@2@$00@std@@QBEABV?$allocator@U?$_Tree_node@U?$pair@$$CBV?$basic_string@DU?$char_traits@D@std@@V?$allocator@D@2@@std@@V?$vector@EV?$allocator@E@std@@@2@@std@@PAX@std@@@2@XZ ; std::_Compressed_pair<std::allocator<std::_Tree_node<std::pair<std::basic_string<char,std::char_traits<char>,std::allocator<char> > const ,std::vector<unsigned char,std::allocator<unsigned char> > >,void *> >,std::_Tree_val<std::_Tree_simple_types<std::pair<std::basic_string<char,std::char_traits<char>,std::allocator<char> > const ,std::vector<unsigned char,std::allocator<unsigned char> > > > >,1>::_Get_first
PUBLIC	??$_Construct_in_place_by_deref@PAUSEffectDamage@CInstanceBase@@PAPAU12@@std@@YAXAAPAUSEffectDamage@CInstanceBase@@AAPAPAU12@@Z ; std::_Construct_in_place_by_deref<CInstanceBase::SEffectDamage *,CInstanceBase::SEffectDamage * *>
PUBLIC	??$_Copy_memmove_tail@PAPAUSEffectDamage@CInstanceBase@@@std@@YAPAPAUSEffectDamage@CInstanceBase@@QBDQAPAU12@II@Z ; std::_Copy_memmove_tail<CInstanceBase::SEffectDamage * *>
PUBLIC	??$move@AAPAPAUSEffectDamage@CInstanceBase@@@std@@YA$$QAPAPAUSEffectDamage@CInstanceBase@@AAPAPAU12@@Z ; std::move<CInstanceBase::SEffectDamage * * &>
PUBLIC	??$_Buynode@V?$allocator@U?$_Tree_node@U?$pair@$$CBEV?$vector@EV?$allocator@E@std@@@std@@@std@@PAX@std@@@std@@AAU?$pair@$$CBEV?$vector@EV?$allocator@E@std@@@std@@@2@@?$_Tree_node@U?$pair@$$CBEV?$vector@EV?$allocator@E@std@@@std@@@std@@PAX@std@@SAPAU01@AAV?$allocator@U?$_Tree_node@U?$pair@$$CBEV?$vector@EV?$allocator@E@std@@@std@@@std@@PAX@std@@@1@PAU01@AAU?$pair@$$CBEV?$vector@EV?$allocator@E@std@@@std@@@1@@Z ; std::_Tree_node<std::pair<unsigned char const ,std::vector<unsigned char,std::allocator<unsigned char> > >,void *>::_Buynode<std::allocator<std::_Tree_node<std::pair<unsigned char const ,std::vector<unsigned char,std::allocator<unsigned char> > >,void *> >,std::pair<unsigned char const ,std::vector<unsigned char,std::allocator<unsigned char> > > &>
PUBLIC	??$forward@AAU?$pair@$$CBEV?$vector@EV?$allocator@E@std@@@std@@@std@@@std@@YAAAU?$pair@$$CBEV?$vector@EV?$allocator@E@std@@@std@@@0@AAU10@@Z ; std::forward<std::pair<unsigned char const ,std::vector<unsigned char,std::allocator<unsigned char> > > &>
PUBLIC	??$forward@PBD@std@@YA$$QAPBDAAPBD@Z		; std::forward<char const *>
PUBLIC	??0?$pair@$$CBEV?$map@EV?$vector@EV?$allocator@E@std@@@std@@U?$less@E@2@V?$allocator@U?$pair@$$CBEV?$vector@EV?$allocator@E@std@@@std@@@std@@@2@@std@@@std@@QAE@ABU01@@Z ; std::pair<unsigned char const ,std::map<unsigned char,std::vector<unsigned char,std::allocator<unsigned char> >,std::less<unsigned char>,std::allocator<std::pair<unsigned char const ,std::vector<unsigned char,std::allocator<unsigned char> > > > > >::pair<unsigned char const ,std::map<unsigned char,std::vector<unsigned char,std::allocator<unsigned char> >,std::less<unsigned char>,std::allocator<std::pair<unsigned char const ,std::vector<unsigned char,std::allocator<unsigned char> > > > > >
PUBLIC	??0?$pair@$$CBEV?$vector@EV?$allocator@E@std@@@std@@@std@@QAE@ABU01@@Z ; std::pair<unsigned char const ,std::vector<unsigned char,std::allocator<unsigned char> > >::pair<unsigned char const ,std::vector<unsigned char,std::allocator<unsigned char> > >
PUBLIC	??0?$pair@$$CBV?$basic_string@DU?$char_traits@D@std@@V?$allocator@D@2@@std@@V?$vector@EV?$allocator@E@std@@@2@@std@@QAE@ABU01@@Z ; std::pair<std::basic_string<char,std::char_traits<char>,std::allocator<char> > const ,std::vector<unsigned char,std::allocator<unsigned char> > >::pair<std::basic_string<char,std::char_traits<char>,std::allocator<char> > const ,std::vector<unsigned char,std::allocator<unsigned char> > >
PUBLIC	?_Getal@?$_Tree@V?$_Tmap_traits@EV?$array@E$02@std@@U?$less@E@2@V?$allocator@U?$pair@$$CBEV?$array@E$02@std@@@std@@@2@$0A@@std@@@std@@IBEABV?$allocator@U?$_Tree_node@U?$pair@$$CBEV?$array@E$02@std@@@std@@PAX@std@@@2@XZ ; std::_Tree<std::_Tmap_traits<unsigned char,std::array<unsigned char,3>,std::less<unsigned char>,std::allocator<std::pair<unsigned char const ,std::array<unsigned char,3> > >,0> >::_Getal
PUBLIC	?max_size@?$_Default_allocator_traits@V?$allocator@U?$_Tree_node@U?$pair@$$CBEV?$array@E$02@std@@@std@@PAX@std@@@std@@@std@@SAIABV?$allocator@U?$_Tree_node@U?$pair@$$CBEV?$array@E$02@std@@@std@@PAX@std@@@2@@Z ; std::_Default_allocator_traits<std::allocator<std::_Tree_node<std::pair<unsigned char const ,std::array<unsigned char,3> >,void *> > >::max_size
PUBLIC	?_Max@?$_Tree_val@U?$_Tree_simple_types@U?$pair@$$CBEV?$array@E$02@std@@@std@@@std@@@std@@SAPAU?$_Tree_node@U?$pair@$$CBEV?$array@E$02@std@@@std@@PAX@2@PAU32@@Z ; std::_Tree_val<std::_Tree_simple_types<std::pair<unsigned char const ,std::array<unsigned char,3> > > >::_Max
PUBLIC	?_Min@?$_Tree_val@U?$_Tree_simple_types@U?$pair@$$CBEV?$array@E$02@std@@@std@@@std@@@std@@SAPAU?$_Tree_node@U?$pair@$$CBEV?$array@E$02@std@@@std@@PAX@2@PAU32@@Z ; std::_Tree_val<std::_Tree_simple_types<std::pair<unsigned char const ,std::array<unsigned char,3> > > >::_Min
PUBLIC	?_Get_first@?$_Compressed_pair@U?$less@E@std@@V?$_Compressed_pair@V?$allocator@U?$_Tree_node@U?$pair@$$CBEV?$array@E$02@std@@@std@@PAX@std@@@std@@V?$_Tree_val@U?$_Tree_simple_types@U?$pair@$$CBEV?$array@E$02@std@@@std@@@std@@@2@$00@2@$00@std@@QBEABU?$less@E@2@XZ ; std::_Compressed_pair<std::less<unsigned char>,std::_Compressed_pair<std::allocator<std::_Tree_node<std::pair<unsigned char const ,std::array<unsigned char,3> >,void *> >,std::_Tree_val<std::_Tree_simple_types<std::pair<unsigned char const ,std::array<unsigned char,3> > > >,1>,1>::_Get_first
PUBLIC	?_Getal@?$_Tree@V?$_Tmap_traits@EPBDU?$less@E@std@@V?$allocator@U?$pair@$$CBEPBD@std@@@2@$0A@@std@@@std@@IBEABV?$allocator@U?$_Tree_node@U?$pair@$$CBEPBD@std@@PAX@std@@@2@XZ ; std::_Tree<std::_Tmap_traits<unsigned char,char const *,std::less<unsigned char>,std::allocator<std::pair<unsigned char const ,char const *> >,0> >::_Getal
PUBLIC	?max_size@?$_Default_allocator_traits@V?$allocator@U?$_Tree_node@U?$pair@$$CBEPBD@std@@PAX@std@@@std@@@std@@SAIABV?$allocator@U?$_Tree_node@U?$pair@$$CBEPBD@std@@PAX@std@@@2@@Z ; std::_Default_allocator_traits<std::allocator<std::_Tree_node<std::pair<unsigned char const ,char const *>,void *> > >::max_size
PUBLIC	?_Max@?$_Tree_val@U?$_Tree_simple_types@U?$pair@$$CBEPBD@std@@@std@@@std@@SAPAU?$_Tree_node@U?$pair@$$CBEPBD@std@@PAX@2@PAU32@@Z ; std::_Tree_val<std::_Tree_simple_types<std::pair<unsigned char const ,char const *> > >::_Max
PUBLIC	?_Min@?$_Tree_val@U?$_Tree_simple_types@U?$pair@$$CBEPBD@std@@@std@@@std@@SAPAU?$_Tree_node@U?$pair@$$CBEPBD@std@@PAX@2@PAU32@@Z ; std::_Tree_val<std::_Tree_simple_types<std::pair<unsigned char const ,char const *> > >::_Min
PUBLIC	?_Get_first@?$_Compressed_pair@U?$less@E@std@@V?$_Compressed_pair@V?$allocator@U?$_Tree_node@U?$pair@$$CBEPBD@std@@PAX@std@@@std@@V?$_Tree_val@U?$_Tree_simple_types@U?$pair@$$CBEPBD@std@@@std@@@2@$00@2@$00@std@@QBEABU?$less@E@2@XZ ; std::_Compressed_pair<std::less<unsigned char>,std::_Compressed_pair<std::allocator<std::_Tree_node<std::pair<unsigned char const ,char const *>,void *> >,std::_Tree_val<std::_Tree_simple_types<std::pair<unsigned char const ,char const *> > >,1>,1>::_Get_first
PUBLIC	?_Getal@?$_Tree@V?$_Tmap_traits@EV?$map@EV?$vector@EV?$allocator@E@std@@@std@@U?$less@E@2@V?$allocator@U?$pair@$$CBEV?$vector@EV?$allocator@E@std@@@std@@@std@@@2@@std@@U?$less@E@2@V?$allocator@U?$pair@$$CBEV?$map@EV?$vector@EV?$allocator@E@std@@@std@@U?$less@E@2@V?$allocator@U?$pair@$$CBEV?$vector@EV?$allocator@E@std@@@std@@@std@@@2@@std@@@std@@@2@$0A@@std@@@std@@IBEABV?$allocator@U?$_Tree_node@U?$pair@$$CBEV?$map@EV?$vector@EV?$allocator@E@std@@@std@@U?$less@E@2@V?$allocator@U?$pair@$$CBEV?$vector@EV?$allocator@E@std@@@std@@@std@@@2@@std@@@std@@PAX@std@@@2@XZ ; std::_Tree<std::_Tmap_traits<unsigned char,std::map<unsigned char,std::vector<unsigned char,std::allocator<unsigned char> >,std::less<unsigned char>,std::allocator<std::pair<unsigned char const ,std::vector<unsigned char,std::allocator<unsigned char> > > > >,std::less<unsigned char>,std::allocator<std::pair<unsigned char const ,std::map<unsigned char,std::vector<unsigned char,std::allocator<unsigned char> >,std::less<unsigned char>,std::allocator<std::pair<unsigned char const ,std::vector<unsigned char,std::allocator<unsigned char> > > > > > >,0> >::_Getal
PUBLIC	?max_size@?$_Default_allocator_traits@V?$allocator@U?$_Tree_node@U?$pair@$$CBEV?$map@EV?$vector@EV?$allocator@E@std@@@std@@U?$less@E@2@V?$allocator@U?$pair@$$CBEV?$vector@EV?$allocator@E@std@@@std@@@std@@@2@@std@@@std@@PAX@std@@@std@@@std@@SAIABV?$allocator@U?$_Tree_node@U?$pair@$$CBEV?$map@EV?$vector@EV?$allocator@E@std@@@std@@U?$less@E@2@V?$allocator@U?$pair@$$CBEV?$vector@EV?$allocator@E@std@@@std@@@std@@@2@@std@@@std@@PAX@std@@@2@@Z ; std::_Default_allocator_traits<std::allocator<std::_Tree_node<std::pair<unsigned char const ,std::map<unsigned char,std::vector<unsigned char,std::allocator<unsigned char> >,std::less<unsigned char>,std::allocator<std::pair<unsigned char const ,std::vector<unsigned char,std::allocator<unsigned char> > > > > >,void *> > >::max_size
PUBLIC	?_Max@?$_Tree_val@U?$_Tree_simple_types@U?$pair@$$CBEV?$map@EV?$vector@EV?$allocator@E@std@@@std@@U?$less@E@2@V?$allocator@U?$pair@$$CBEV?$vector@EV?$allocator@E@std@@@std@@@std@@@2@@std@@@std@@@std@@@std@@SAPAU?$_Tree_node@U?$pair@$$CBEV?$map@EV?$vector@EV?$allocator@E@std@@@std@@U?$less@E@2@V?$allocator@U?$pair@$$CBEV?$vector@EV?$allocator@E@std@@@std@@@std@@@2@@std@@@std@@PAX@2@PAU32@@Z ; std::_Tree_val<std::_Tree_simple_types<std::pair<unsigned char const ,std::map<unsigned char,std::vector<unsigned char,std::allocator<unsigned char> >,std::less<unsigned char>,std::allocator<std::pair<unsigned char const ,std::vector<unsigned char,std::allocator<unsigned char> > > > > > > >::_Max
PUBLIC	?_Min@?$_Tree_val@U?$_Tree_simple_types@U?$pair@$$CBEV?$map@EV?$vector@EV?$allocator@E@std@@@std@@U?$less@E@2@V?$allocator@U?$pair@$$CBEV?$vector@EV?$allocator@E@std@@@std@@@std@@@2@@std@@@std@@@std@@@std@@SAPAU?$_Tree_node@U?$pair@$$CBEV?$map@EV?$vector@EV?$allocator@E@std@@@std@@U?$less@E@2@V?$allocator@U?$pair@$$CBEV?$vector@EV?$allocator@E@std@@@std@@@std@@@2@@std@@@std@@PAX@2@PAU32@@Z ; std::_Tree_val<std::_Tree_simple_types<std::pair<unsigned char const ,std::map<unsigned char,std::vector<unsigned char,std::allocator<unsigned char> >,std::less<unsigned char>,std::allocator<std::pair<unsigned char const ,std::vector<unsigned char,std::allocator<unsigned char> > > > > > > >::_Min
PUBLIC	?_Get_first@?$_Compressed_pair@U?$less@E@std@@V?$_Compressed_pair@V?$allocator@U?$_Tree_node@U?$pair@$$CBEV?$map@EV?$vector@EV?$allocator@E@std@@@std@@U?$less@E@2@V?$allocator@U?$pair@$$CBEV?$vector@EV?$allocator@E@std@@@std@@@std@@@2@@std@@@std@@PAX@std@@@std@@V?$_Tree_val@U?$_Tree_simple_types@U?$pair@$$CBEV?$map@EV?$vector@EV?$allocator@E@std@@@std@@U?$less@E@2@V?$allocator@U?$pair@$$CBEV?$vector@EV?$allocator@E@std@@@std@@@std@@@2@@std@@@std@@@std@@@2@$00@2@$00@std@@QBEABU?$less@E@2@XZ ; std::_Compressed_pair<std::less<unsigned char>,std::_Compressed_pair<std::allocator<std::_Tree_node<std::pair<unsigned char const ,std::map<unsigned char,std::vector<unsigned char,std::allocator<unsigned char> >,std::less<unsigned char>,std::allocator<std::pair<unsigned char const ,std::vector<unsigned char,std::allocator<unsigned char> > > > > >,void *> >,std::_Tree_val<std::_Tree_simple_types<std::pair<unsigned char const ,std::map<unsigned char,std::vector<unsigned char,std::allocator<unsigned char> >,std::less<unsigned char>,std::allocator<std::pair<unsigned char const ,std::vector<unsigned char,std::allocator<unsigned char> > > > > > > >,1>,1>::_Get_first
PUBLIC	?max_size@?$_Default_allocator_traits@V?$allocator@U?$_Tree_node@U?$pair@$$CBEV?$vector@EV?$allocator@E@std@@@std@@@std@@PAX@std@@@std@@@std@@SAIABV?$allocator@U?$_Tree_node@U?$pair@$$CBEV?$vector@EV?$allocator@E@std@@@std@@@std@@PAX@std@@@2@@Z ; std::_Default_allocator_traits<std::allocator<std::_Tree_node<std::pair<unsigned char const ,std::vector<unsigned char,std::allocator<unsigned char> > >,void *> > >::max_size
PUBLIC	?_Getal@?$_Tree@V?$_Tmap_traits@V?$basic_string@DU?$char_traits@D@std@@V?$allocator@D@2@@std@@V?$vector@EV?$allocator@E@std@@@2@U?$less@V?$basic_string@DU?$char_traits@D@std@@V?$allocator@D@2@@std@@@2@V?$allocator@U?$pair@$$CBV?$basic_string@DU?$char_traits@D@std@@V?$allocator@D@2@@std@@V?$vector@EV?$allocator@E@std@@@2@@std@@@2@$0A@@std@@@std@@IBEABV?$allocator@U?$_Tree_node@U?$pair@$$CBV?$basic_string@DU?$char_traits@D@std@@V?$allocator@D@2@@std@@V?$vector@EV?$allocator@E@std@@@2@@std@@PAX@std@@@2@XZ ; std::_Tree<std::_Tmap_traits<std::basic_string<char,std::char_traits<char>,std::allocator<char> >,std::vector<unsigned char,std::allocator<unsigned char> >,std::less<std::basic_string<char,std::char_traits<char>,std::allocator<char> > >,std::allocator<std::pair<std::basic_string<char,std::char_traits<char>,std::allocator<char> > const ,std::vector<unsigned char,std::allocator<unsigned char> > > >,0> >::_Getal
PUBLIC	?max_size@?$_Default_allocator_traits@V?$allocator@U?$_Tree_node@U?$pair@$$CBV?$basic_string@DU?$char_traits@D@std@@V?$allocator@D@2@@std@@V?$vector@EV?$allocator@E@std@@@2@@std@@PAX@std@@@std@@@std@@SAIABV?$allocator@U?$_Tree_node@U?$pair@$$CBV?$basic_string@DU?$char_traits@D@std@@V?$allocator@D@2@@std@@V?$vector@EV?$allocator@E@std@@@2@@std@@PAX@std@@@2@@Z ; std::_Default_allocator_traits<std::allocator<std::_Tree_node<std::pair<std::basic_string<char,std::char_traits<char>,std::allocator<char> > const ,std::vector<unsigned char,std::allocator<unsigned char> > >,void *> > >::max_size
PUBLIC	?_Max@?$_Tree_val@U?$_Tree_simple_types@U?$pair@$$CBV?$basic_string@DU?$char_traits@D@std@@V?$allocator@D@2@@std@@V?$vector@EV?$allocator@E@std@@@2@@std@@@std@@@std@@SAPAU?$_Tree_node@U?$pair@$$CBV?$basic_string@DU?$char_traits@D@std@@V?$allocator@D@2@@std@@V?$vector@EV?$allocator@E@std@@@2@@std@@PAX@2@PAU32@@Z ; std::_Tree_val<std::_Tree_simple_types<std::pair<std::basic_string<char,std::char_traits<char>,std::allocator<char> > const ,std::vector<unsigned char,std::allocator<unsigned char> > > > >::_Max
PUBLIC	?_Min@?$_Tree_val@U?$_Tree_simple_types@U?$pair@$$CBV?$basic_string@DU?$char_traits@D@std@@V?$allocator@D@2@@std@@V?$vector@EV?$allocator@E@std@@@2@@std@@@std@@@std@@SAPAU?$_Tree_node@U?$pair@$$CBV?$basic_string@DU?$char_traits@D@std@@V?$allocator@D@2@@std@@V?$vector@EV?$allocator@E@std@@@2@@std@@PAX@2@PAU32@@Z ; std::_Tree_val<std::_Tree_simple_types<std::pair<std::basic_string<char,std::char_traits<char>,std::allocator<char> > const ,std::vector<unsigned char,std::allocator<unsigned char> > > > >::_Min
PUBLIC	?_Get_first@?$_Compressed_pair@U?$less@V?$basic_string@DU?$char_traits@D@std@@V?$allocator@D@2@@std@@@std@@V?$_Compressed_pair@V?$allocator@U?$_Tree_node@U?$pair@$$CBV?$basic_string@DU?$char_traits@D@std@@V?$allocator@D@2@@std@@V?$vector@EV?$allocator@E@std@@@2@@std@@PAX@std@@@std@@V?$_Tree_val@U?$_Tree_simple_types@U?$pair@$$CBV?$basic_string@DU?$char_traits@D@std@@V?$allocator@D@2@@std@@V?$vector@EV?$allocator@E@std@@@2@@std@@@std@@@2@$00@2@$00@std@@QBEABU?$less@V?$basic_string@DU?$char_traits@D@std@@V?$allocator@D@2@@std@@@2@XZ ; std::_Compressed_pair<std::less<std::basic_string<char,std::char_traits<char>,std::allocator<char> > >,std::_Compressed_pair<std::allocator<std::_Tree_node<std::pair<std::basic_string<char,std::char_traits<char>,std::allocator<char> > const ,std::vector<unsigned char,std::allocator<unsigned char> > >,void *> >,std::_Tree_val<std::_Tree_simple_types<std::pair<std::basic_string<char,std::char_traits<char>,std::allocator<char> > const ,std::vector<unsigned char,std::allocator<unsigned char> > > > >,1>,1>::_Get_first
PUBLIC	?_Get_first@?$_Compressed_pair@V?$allocator@U?$_Tree_node@U?$pair@$$CBHV?$basic_string@DU?$char_traits@D@std@@V?$allocator@D@2@@std@@@std@@PAX@std@@@std@@V?$_Tree_val@U?$_Tree_simple_types@U?$pair@$$CBHV?$basic_string@DU?$char_traits@D@std@@V?$allocator@D@2@@std@@@std@@@std@@@2@$00@std@@QBEABV?$allocator@U?$_Tree_node@U?$pair@$$CBHV?$basic_string@DU?$char_traits@D@std@@V?$allocator@D@2@@std@@@std@@PAX@std@@@2@XZ ; std::_Compressed_pair<std::allocator<std::_Tree_node<std::pair<int const ,std::basic_string<char,std::char_traits<char>,std::allocator<char> > >,void *> >,std::_Tree_val<std::_Tree_simple_types<std::pair<int const ,std::basic_string<char,std::char_traits<char>,std::allocator<char> > > > >,1>::_Get_first
PUBLIC	??0?$_Alloc_construct_ptr@V?$allocator@U?$_Tree_node@U?$pair@$$CBV?$basic_string@DU?$char_traits@D@std@@V?$allocator@D@2@@std@@V?$vector@EV?$allocator@E@std@@@2@@std@@PAX@std@@@std@@@std@@QAE@AAV?$allocator@U?$_Tree_node@U?$pair@$$CBV?$basic_string@DU?$char_traits@D@std@@V?$allocator@D@2@@std@@V?$vector@EV?$allocator@E@std@@@2@@std@@PAX@std@@@1@@Z ; std::_Alloc_construct_ptr<std::allocator<std::_Tree_node<std::pair<std::basic_string<char,std::char_traits<char>,std::allocator<char> > const ,std::vector<unsigned char,std::allocator<unsigned char> > >,void *> > >::_Alloc_construct_ptr<std::allocator<std::_Tree_node<std::pair<std::basic_string<char,std::char_traits<char>,std::allocator<char> > const ,std::vector<unsigned char,std::allocator<unsigned char> > >,void *> > >
PUBLIC	?_Allocate@?$_Alloc_construct_ptr@V?$allocator@U?$_Tree_node@U?$pair@$$CBV?$basic_string@DU?$char_traits@D@std@@V?$allocator@D@2@@std@@V?$vector@EV?$allocator@E@std@@@2@@std@@PAX@std@@@std@@@std@@QAEXXZ ; std::_Alloc_construct_ptr<std::allocator<std::_Tree_node<std::pair<std::basic_string<char,std::char_traits<char>,std::allocator<char> > const ,std::vector<unsigned char,std::allocator<unsigned char> > >,void *> > >::_Allocate
PUBLIC	??0?$_Alloc_construct_ptr@V?$allocator@U?$_Tree_node@U?$pair@$$CBEV?$vector@EV?$allocator@E@std@@@std@@@std@@PAX@std@@@std@@@std@@QAE@AAV?$allocator@U?$_Tree_node@U?$pair@$$CBEV?$vector@EV?$allocator@E@std@@@std@@@std@@PAX@std@@@1@@Z ; std::_Alloc_construct_ptr<std::allocator<std::_Tree_node<std::pair<unsigned char const ,std::vector<unsigned char,std::allocator<unsigned char> > >,void *> > >::_Alloc_construct_ptr<std::allocator<std::_Tree_node<std::pair<unsigned char const ,std::vector<unsigned char,std::allocator<unsigned char> > >,void *> > >
PUBLIC	?_Allocate@?$_Alloc_construct_ptr@V?$allocator@U?$_Tree_node@U?$pair@$$CBEV?$vector@EV?$allocator@E@std@@@std@@@std@@PAX@std@@@std@@@std@@QAEXXZ ; std::_Alloc_construct_ptr<std::allocator<std::_Tree_node<std::pair<unsigned char const ,std::vector<unsigned char,std::allocator<unsigned char> > >,void *> > >::_Allocate
PUBLIC	??0?$_Alloc_construct_ptr@V?$allocator@U?$_Tree_node@U?$pair@$$CBEV?$map@EV?$vector@EV?$allocator@E@std@@@std@@U?$less@E@2@V?$allocator@U?$pair@$$CBEV?$vector@EV?$allocator@E@std@@@std@@@std@@@2@@std@@@std@@PAX@std@@@std@@@std@@QAE@AAV?$allocator@U?$_Tree_node@U?$pair@$$CBEV?$map@EV?$vector@EV?$allocator@E@std@@@std@@U?$less@E@2@V?$allocator@U?$pair@$$CBEV?$vector@EV?$allocator@E@std@@@std@@@std@@@2@@std@@@std@@PAX@std@@@1@@Z ; std::_Alloc_construct_ptr<std::allocator<std::_Tree_node<std::pair<unsigned char const ,std::map<unsigned char,std::vector<unsigned char,std::allocator<unsigned char> >,std::less<unsigned char>,std::allocator<std::pair<unsigned char const ,std::vector<unsigned char,std::allocator<unsigned char> > > > > >,void *> > >::_Alloc_construct_ptr<std::allocator<std::_Tree_node<std::pair<unsigned char const ,std::map<unsigned char,std::vector<unsigned char,std::allocator<unsigned char> >,std::less<unsigned char>,std::allocator<std::pair<unsigned char const ,std::vector<unsigned char,std::allocator<unsigned char> > > > > >,void *> > >
PUBLIC	?_Allocate@?$_Alloc_construct_ptr@V?$allocator@U?$_Tree_node@U?$pair@$$CBEV?$map@EV?$vector@EV?$allocator@E@std@@@std@@U?$less@E@2@V?$allocator@U?$pair@$$CBEV?$vector@EV?$allocator@E@std@@@std@@@std@@@2@@std@@@std@@PAX@std@@@std@@@std@@QAEXXZ ; std::_Alloc_construct_ptr<std::allocator<std::_Tree_node<std::pair<unsigned char const ,std::map<unsigned char,std::vector<unsigned char,std::allocator<unsigned char> >,std::less<unsigned char>,std::allocator<std::pair<unsigned char const ,std::vector<unsigned char,std::allocator<unsigned char> > > > > >,void *> > >::_Allocate
PUBLIC	??0?$_Alloc_construct_ptr@V?$allocator@U?$_Tree_node@U?$pair@$$CBEPBD@std@@PAX@std@@@std@@@std@@QAE@AAV?$allocator@U?$_Tree_node@U?$pair@$$CBEPBD@std@@PAX@std@@@1@@Z ; std::_Alloc_construct_ptr<std::allocator<std::_Tree_node<std::pair<unsigned char const ,char const *>,void *> > >::_Alloc_construct_ptr<std::allocator<std::_Tree_node<std::pair<unsigned char const ,char const *>,void *> > >
PUBLIC	?_Allocate@?$_Alloc_construct_ptr@V?$allocator@U?$_Tree_node@U?$pair@$$CBEPBD@std@@PAX@std@@@std@@@std@@QAEXXZ ; std::_Alloc_construct_ptr<std::allocator<std::_Tree_node<std::pair<unsigned char const ,char const *>,void *> > >::_Allocate
PUBLIC	??0?$_Alloc_construct_ptr@V?$allocator@U?$_Tree_node@U?$pair@$$CBEV?$array@E$02@std@@@std@@PAX@std@@@std@@@std@@QAE@AAV?$allocator@U?$_Tree_node@U?$pair@$$CBEV?$array@E$02@std@@@std@@PAX@std@@@1@@Z ; std::_Alloc_construct_ptr<std::allocator<std::_Tree_node<std::pair<unsigned char const ,std::array<unsigned char,3> >,void *> > >::_Alloc_construct_ptr<std::allocator<std::_Tree_node<std::pair<unsigned char const ,std::array<unsigned char,3> >,void *> > >
PUBLIC	?_Allocate@?$_Alloc_construct_ptr@V?$allocator@U?$_Tree_node@U?$pair@$$CBEV?$array@E$02@std@@@std@@PAX@std@@@std@@@std@@QAEXXZ ; std::_Alloc_construct_ptr<std::allocator<std::_Tree_node<std::pair<unsigned char const ,std::array<unsigned char,3> >,void *> > >::_Allocate
PUBLIC	??0?$_Uninitialized_backout@PAPAUSEffectDamage@CInstanceBase@@@std@@QAE@PAPAUSEffectDamage@CInstanceBase@@@Z ; std::_Uninitialized_backout<CInstanceBase::SEffectDamage * *>::_Uninitialized_backout<CInstanceBase::SEffectDamage * *>
PUBLIC	??1?$_Uninitialized_backout@PAPAUSEffectDamage@CInstanceBase@@@std@@QAE@XZ ; std::_Uninitialized_backout<CInstanceBase::SEffectDamage * *>::~_Uninitialized_backout<CInstanceBase::SEffectDamage * *>
PUBLIC	?_Release@?$_Uninitialized_backout@PAPAUSEffectDamage@CInstanceBase@@@std@@QAEPAPAUSEffectDamage@CInstanceBase@@XZ ; std::_Uninitialized_backout<CInstanceBase::SEffectDamage * *>::_Release
PUBLIC	??$addressof@$$CBV?$_Tree_val@U?$_Tree_simple_types@U?$pair@$$CBEV?$array@E$02@std@@@std@@@std@@@std@@@std@@YAPBV?$_Tree_val@U?$_Tree_simple_types@U?$pair@$$CBEV?$array@E$02@std@@@std@@@std@@@0@ABV10@@Z ; std::addressof<std::_Tree_val<std::_Tree_simple_types<std::pair<unsigned char const ,std::array<unsigned char,3> > > > const >
PUBLIC	??$addressof@$$CBV?$_Tree_val@U?$_Tree_simple_types@U?$pair@$$CBEPBD@std@@@std@@@std@@@std@@YAPBV?$_Tree_val@U?$_Tree_simple_types@U?$pair@$$CBEPBD@std@@@std@@@0@ABV10@@Z ; std::addressof<std::_Tree_val<std::_Tree_simple_types<std::pair<unsigned char const ,char const *> > > const >
PUBLIC	??$addressof@$$CBV?$_Tree_val@U?$_Tree_simple_types@U?$pair@$$CBEV?$map@EV?$vector@EV?$allocator@E@std@@@std@@U?$less@E@2@V?$allocator@U?$pair@$$CBEV?$vector@EV?$allocator@E@std@@@std@@@std@@@2@@std@@@std@@@std@@@std@@@std@@YAPBV?$_Tree_val@U?$_Tree_simple_types@U?$pair@$$CBEV?$map@EV?$vector@EV?$allocator@E@std@@@std@@U?$less@E@2@V?$allocator@U?$pair@$$CBEV?$vector@EV?$allocator@E@std@@@std@@@std@@@2@@std@@@std@@@std@@@0@ABV10@@Z ; std::addressof<std::_Tree_val<std::_Tree_simple_types<std::pair<unsigned char const ,std::map<unsigned char,std::vector<unsigned char,std::allocator<unsigned char> >,std::less<unsigned char>,std::allocator<std::pair<unsigned char const ,std::vector<unsigned char,std::allocator<unsigned char> > > > > > > > const >
PUBLIC	??$addressof@$$CBV?$_Tree_val@U?$_Tree_simple_types@U?$pair@$$CBV?$basic_string@DU?$char_traits@D@std@@V?$allocator@D@2@@std@@V?$vector@EV?$allocator@E@std@@@2@@std@@@std@@@std@@@std@@YAPBV?$_Tree_val@U?$_Tree_simple_types@U?$pair@$$CBV?$basic_string@DU?$char_traits@D@std@@V?$allocator@D@2@@std@@V?$vector@EV?$allocator@E@std@@@2@@std@@@std@@@0@ABV10@@Z ; std::addressof<std::_Tree_val<std::_Tree_simple_types<std::pair<std::basic_string<char,std::char_traits<char>,std::allocator<char> > const ,std::vector<unsigned char,std::allocator<unsigned char> > > > > const >
PUBLIC	??$_Erase_tree_and_orphan@V?$allocator@U?$_Tree_node@U?$pair@$$CBEV?$vector@EV?$allocator@E@std@@@std@@@std@@PAX@std@@@std@@@?$_Tree_val@U?$_Tree_simple_types@U?$pair@$$CBEV?$vector@EV?$allocator@E@std@@@std@@@std@@@std@@@std@@QAEXAAV?$allocator@U?$_Tree_node@U?$pair@$$CBEV?$vector@EV?$allocator@E@std@@@std@@@std@@PAX@std@@@1@PAU?$_Tree_node@U?$pair@$$CBEV?$vector@EV?$allocator@E@std@@@std@@@std@@PAX@1@@Z ; std::_Tree_val<std::_Tree_simple_types<std::pair<unsigned char const ,std::vector<unsigned char,std::allocator<unsigned char> > > > >::_Erase_tree_and_orphan<std::allocator<std::_Tree_node<std::pair<unsigned char const ,std::vector<unsigned char,std::allocator<unsigned char> > >,void *> > >
PUBLIC	??$to_address@PAUSEffectDamage@CInstanceBase@@@std@@YAPAPAUSEffectDamage@CInstanceBase@@QAPAU12@@Z ; std::to_address<CInstanceBase::SEffectDamage *>
PUBLIC	??$forward@PAPAUSEffectDamage@CInstanceBase@@@std@@YA$$QAPAPAUSEffectDamage@CInstanceBase@@AAPAPAU12@@Z ; std::forward<CInstanceBase::SEffectDamage * *>
PUBLIC	??$_Emplace_back_deref@PAPAUSEffectDamage@CInstanceBase@@@?$_Uninitialized_backout@PAPAUSEffectDamage@CInstanceBase@@@std@@QAEXAAPAPAUSEffectDamage@CInstanceBase@@@Z ; std::_Uninitialized_backout<CInstanceBase::SEffectDamage * *>::_Emplace_back_deref<CInstanceBase::SEffectDamage * *>
PUBLIC	??$_Copy_memmove@PAPAUSEffectDamage@CInstanceBase@@PAPAU12@@std@@YAPAPAUSEffectDamage@CInstanceBase@@PAPAU12@00@Z ; std::_Copy_memmove<CInstanceBase::SEffectDamage * *,CInstanceBase::SEffectDamage * *>
PUBLIC	??$construct_at@EAAE@std@@YAPAEQAEAAE@Z		; std::construct_at<unsigned char,unsigned char &>
PUBLIC	??$construct_at@PAU?$_Tree_node@U?$pair@$$CBEV?$array@E$02@std@@@std@@PAX@std@@AAPAU12@@std@@YAPAPAU?$_Tree_node@U?$pair@$$CBEV?$array@E$02@std@@@std@@PAX@0@QAPAU10@AAPAU10@@Z ; std::construct_at<std::_Tree_node<std::pair<unsigned char const ,std::array<unsigned char,3> >,void *> *,std::_Tree_node<std::pair<unsigned char const ,std::array<unsigned char,3> >,void *> * &>
PUBLIC	??$forward@AAPAU?$_Tree_node@U?$pair@$$CBEV?$array@E$02@std@@@std@@PAX@std@@@std@@YAAAPAU?$_Tree_node@U?$pair@$$CBEV?$array@E$02@std@@@std@@PAX@0@AAPAU10@@Z ; std::forward<std::_Tree_node<std::pair<unsigned char const ,std::array<unsigned char,3> >,void *> * &>
PUBLIC	??$construct_at@U?$pair@$$CBEV?$array@E$02@std@@@std@@ABU12@@std@@YAPAU?$pair@$$CBEV?$array@E$02@std@@@0@QAU10@ABU10@@Z ; std::construct_at<std::pair<unsigned char const ,std::array<unsigned char,3> >,std::pair<unsigned char const ,std::array<unsigned char,3> > const &>
PUBLIC	??$construct_at@PAU?$_Tree_node@U?$pair@$$CBEPBD@std@@PAX@std@@AAPAU12@@std@@YAPAPAU?$_Tree_node@U?$pair@$$CBEPBD@std@@PAX@0@QAPAU10@AAPAU10@@Z ; std::construct_at<std::_Tree_node<std::pair<unsigned char const ,char const *>,void *> *,std::_Tree_node<std::pair<unsigned char const ,char const *>,void *> * &>
PUBLIC	??$forward@AAPAU?$_Tree_node@U?$pair@$$CBEPBD@std@@PAX@std@@@std@@YAAAPAU?$_Tree_node@U?$pair@$$CBEPBD@std@@PAX@0@AAPAU10@@Z ; std::forward<std::_Tree_node<std::pair<unsigned char const ,char const *>,void *> * &>
PUBLIC	??$construct_at@U?$pair@$$CBEPBD@std@@ABU12@@std@@YAPAU?$pair@$$CBEPBD@0@QAU10@ABU10@@Z ; std::construct_at<std::pair<unsigned char const ,char const *>,std::pair<unsigned char const ,char const *> const &>
PUBLIC	??$_Buynode@AAU?$pair@$$CBEV?$vector@EV?$allocator@E@std@@@std@@@std@@@?$_Tree@V?$_Tmap_traits@EV?$vector@EV?$allocator@E@std@@@std@@U?$less@E@2@V?$allocator@U?$pair@$$CBEV?$vector@EV?$allocator@E@std@@@std@@@std@@@2@$0A@@std@@@std@@IAEPAU?$_Tree_node@U?$pair@$$CBEV?$vector@EV?$allocator@E@std@@@std@@@std@@PAX@1@AAU?$pair@$$CBEV?$vector@EV?$allocator@E@std@@@std@@@1@@Z ; std::_Tree<std::_Tmap_traits<unsigned char,std::vector<unsigned char,std::allocator<unsigned char> >,std::less<unsigned char>,std::allocator<std::pair<unsigned char const ,std::vector<unsigned char,std::allocator<unsigned char> > > >,0> >::_Buynode<std::pair<unsigned char const ,std::vector<unsigned char,std::allocator<unsigned char> > > &>
PUBLIC	??$construct_at@PAU?$_Tree_node@U?$pair@$$CBEV?$map@EV?$vector@EV?$allocator@E@std@@@std@@U?$less@E@2@V?$allocator@U?$pair@$$CBEV?$vector@EV?$allocator@E@std@@@std@@@std@@@2@@std@@@std@@PAX@std@@AAPAU12@@std@@YAPAPAU?$_Tree_node@U?$pair@$$CBEV?$map@EV?$vector@EV?$allocator@E@std@@@std@@U?$less@E@2@V?$allocator@U?$pair@$$CBEV?$vector@EV?$allocator@E@std@@@std@@@std@@@2@@std@@@std@@PAX@0@QAPAU10@AAPAU10@@Z ; std::construct_at<std::_Tree_node<std::pair<unsigned char const ,std::map<unsigned char,std::vector<unsigned char,std::allocator<unsigned char> >,std::less<unsigned char>,std::allocator<std::pair<unsigned char const ,std::vector<unsigned char,std::allocator<unsigned char> > > > > >,void *> *,std::_Tree_node<std::pair<unsigned char const ,std::map<unsigned char,std::vector<unsigned char,std::allocator<unsigned char> >,std::less<unsigned char>,std::allocator<std::pair<unsigned char const ,std::vector<unsigned char,std::allocator<unsigned char> > > > > >,void *> * &>
PUBLIC	??$forward@AAPAU?$_Tree_node@U?$pair@$$CBEV?$map@EV?$vector@EV?$allocator@E@std@@@std@@U?$less@E@2@V?$allocator@U?$pair@$$CBEV?$vector@EV?$allocator@E@std@@@std@@@std@@@2@@std@@@std@@PAX@std@@@std@@YAAAPAU?$_Tree_node@U?$pair@$$CBEV?$map@EV?$vector@EV?$allocator@E@std@@@std@@U?$less@E@2@V?$allocator@U?$pair@$$CBEV?$vector@EV?$allocator@E@std@@@std@@@std@@@2@@std@@@std@@PAX@0@AAPAU10@@Z ; std::forward<std::_Tree_node<std::pair<unsigned char const ,std::map<unsigned char,std::vector<unsigned char,std::allocator<unsigned char> >,std::less<unsigned char>,std::allocator<std::pair<unsigned char const ,std::vector<unsigned char,std::allocator<unsigned char> > > > > >,void *> * &>
PUBLIC	??$construct_at@U?$pair@$$CBEV?$map@EV?$vector@EV?$allocator@E@std@@@std@@U?$less@E@2@V?$allocator@U?$pair@$$CBEV?$vector@EV?$allocator@E@std@@@std@@@std@@@2@@std@@@std@@ABU12@@std@@YAPAU?$pair@$$CBEV?$map@EV?$vector@EV?$allocator@E@std@@@std@@U?$less@E@2@V?$allocator@U?$pair@$$CBEV?$vector@EV?$allocator@E@std@@@std@@@std@@@2@@std@@@0@QAU10@ABU10@@Z ; std::construct_at<std::pair<unsigned char const ,std::map<unsigned char,std::vector<unsigned char,std::allocator<unsigned char> >,std::less<unsigned char>,std::allocator<std::pair<unsigned char const ,std::vector<unsigned char,std::allocator<unsigned char> > > > > >,std::pair<unsigned char const ,std::map<unsigned char,std::vector<unsigned char,std::allocator<unsigned char> >,std::less<unsigned char>,std::allocator<std::pair<unsigned char const ,std::vector<unsigned char,std::allocator<unsigned char> > > > > > const &>
PUBLIC	??$construct_at@PAU?$_Tree_node@U?$pair@$$CBEV?$vector@EV?$allocator@E@std@@@std@@@std@@PAX@std@@AAPAU12@@std@@YAPAPAU?$_Tree_node@U?$pair@$$CBEV?$vector@EV?$allocator@E@std@@@std@@@std@@PAX@0@QAPAU10@AAPAU10@@Z ; std::construct_at<std::_Tree_node<std::pair<unsigned char const ,std::vector<unsigned char,std::allocator<unsigned char> > >,void *> *,std::_Tree_node<std::pair<unsigned char const ,std::vector<unsigned char,std::allocator<unsigned char> > >,void *> * &>
PUBLIC	??$forward@AAPAU?$_Tree_node@U?$pair@$$CBEV?$vector@EV?$allocator@E@std@@@std@@@std@@PAX@std@@@std@@YAAAPAU?$_Tree_node@U?$pair@$$CBEV?$vector@EV?$allocator@E@std@@@std@@@std@@PAX@0@AAPAU10@@Z ; std::forward<std::_Tree_node<std::pair<unsigned char const ,std::vector<unsigned char,std::allocator<unsigned char> > >,void *> * &>
PUBLIC	??$construct_at@U?$pair@$$CBEV?$vector@EV?$allocator@E@std@@@std@@@std@@ABU12@@std@@YAPAU?$pair@$$CBEV?$vector@EV?$allocator@E@std@@@std@@@0@QAU10@ABU10@@Z ; std::construct_at<std::pair<unsigned char const ,std::vector<unsigned char,std::allocator<unsigned char> > >,std::pair<unsigned char const ,std::vector<unsigned char,std::allocator<unsigned char> > > const &>
PUBLIC	??$construct_at@PAU?$_Tree_node@U?$pair@$$CBV?$basic_string@DU?$char_traits@D@std@@V?$allocator@D@2@@std@@V?$vector@EV?$allocator@E@std@@@2@@std@@PAX@std@@AAPAU12@@std@@YAPAPAU?$_Tree_node@U?$pair@$$CBV?$basic_string@DU?$char_traits@D@std@@V?$allocator@D@2@@std@@V?$vector@EV?$allocator@E@std@@@2@@std@@PAX@0@QAPAU10@AAPAU10@@Z ; std::construct_at<std::_Tree_node<std::pair<std::basic_string<char,std::char_traits<char>,std::allocator<char> > const ,std::vector<unsigned char,std::allocator<unsigned char> > >,void *> *,std::_Tree_node<std::pair<std::basic_string<char,std::char_traits<char>,std::allocator<char> > const ,std::vector<unsigned char,std::allocator<unsigned char> > >,void *> * &>
PUBLIC	??$forward@AAPAU?$_Tree_node@U?$pair@$$CBV?$basic_string@DU?$char_traits@D@std@@V?$allocator@D@2@@std@@V?$vector@EV?$allocator@E@std@@@2@@std@@PAX@std@@@std@@YAAAPAU?$_Tree_node@U?$pair@$$CBV?$basic_string@DU?$char_traits@D@std@@V?$allocator@D@2@@std@@V?$vector@EV?$allocator@E@std@@@2@@std@@PAX@0@AAPAU10@@Z ; std::forward<std::_Tree_node<std::pair<std::basic_string<char,std::char_traits<char>,std::allocator<char> > const ,std::vector<unsigned char,std::allocator<unsigned char> > >,void *> * &>
PUBLIC	??$construct_at@U?$pair@$$CBV?$basic_string@DU?$char_traits@D@std@@V?$allocator@D@2@@std@@V?$vector@EV?$allocator@E@std@@@2@@std@@ABU12@@std@@YAPAU?$pair@$$CBV?$basic_string@DU?$char_traits@D@std@@V?$allocator@D@2@@std@@V?$vector@EV?$allocator@E@std@@@2@@0@QAU10@ABU10@@Z ; std::construct_at<std::pair<std::basic_string<char,std::char_traits<char>,std::allocator<char> > const ,std::vector<unsigned char,std::allocator<unsigned char> > >,std::pair<std::basic_string<char,std::char_traits<char>,std::allocator<char> > const ,std::vector<unsigned char,std::allocator<unsigned char> > > const &>
PUBLIC	??$?__MDU?$char_traits@D@std@@V?$allocator@D@1@@std@@YA?AUstrong_ordering@0@ABV?$basic_string@DU?$char_traits@D@std@@V?$allocator@D@2@@0@0@Z ; std::operator<=><char,std::char_traits<char>,std::allocator<char> >
PUBLIC	??$?0HPBD$0A@@?$pair@$$CBHV?$basic_string@DU?$char_traits@D@std@@V?$allocator@D@2@@std@@@std@@QAE@$$QAU?$pair@HPBD@1@@Z ; std::pair<int const ,std::basic_string<char,std::char_traits<char>,std::allocator<char> > >::pair<int const ,std::basic_string<char,std::char_traits<char>,std::allocator<char> > ><int,char const *,0>
PUBLIC	??_G?$pair@$$CBEV?$map@EV?$vector@EV?$allocator@E@std@@@std@@U?$less@E@2@V?$allocator@U?$pair@$$CBEV?$vector@EV?$allocator@E@std@@@std@@@std@@@2@@std@@@std@@QAEPAXI@Z ; std::pair<unsigned char const ,std::map<unsigned char,std::vector<unsigned char,std::allocator<unsigned char> >,std::less<unsigned char>,std::allocator<std::pair<unsigned char const ,std::vector<unsigned char,std::allocator<unsigned char> > > > > >::`scalar deleting destructor'
PUBLIC	??_G?$pair@$$CBEV?$vector@EV?$allocator@E@std@@@std@@@std@@QAEPAXI@Z ; std::pair<unsigned char const ,std::vector<unsigned char,std::allocator<unsigned char> > >::`scalar deleting destructor'
PUBLIC	??_G?$pair@$$CBV?$basic_string@DU?$char_traits@D@std@@V?$allocator@D@2@@std@@V?$vector@EV?$allocator@E@std@@@2@@std@@QAEPAXI@Z ; std::pair<std::basic_string<char,std::char_traits<char>,std::allocator<char> > const ,std::vector<unsigned char,std::allocator<unsigned char> > >::`scalar deleting destructor'
PUBLIC	??_G?$pair@$$CBHV?$basic_string@DU?$char_traits@D@std@@V?$allocator@D@2@@std@@@std@@QAEPAXI@Z ; std::pair<int const ,std::basic_string<char,std::char_traits<char>,std::allocator<char> > >::`scalar deleting destructor'
PUBLIC	??R?$less@V?$basic_string@DU?$char_traits@D@std@@V?$allocator@D@2@@std@@@std@@QBE_NABV?$basic_string@DU?$char_traits@D@std@@V?$allocator@D@2@@1@0@Z ; std::less<std::basic_string<char,std::char_traits<char>,std::allocator<char> > >::operator()
PUBLIC	?_Get_first@?$_Compressed_pair@V?$allocator@U?$_Tree_node@U?$pair@$$CBKK@std@@PAX@std@@@std@@V?$_Tree_val@U?$_Tree_simple_types@U?$pair@$$CBKK@std@@@std@@@2@$00@std@@QBEABV?$allocator@U?$_Tree_node@U?$pair@$$CBKK@std@@PAX@std@@@2@XZ ; std::_Compressed_pair<std::allocator<std::_Tree_node<std::pair<unsigned long const ,unsigned long>,void *> >,std::_Tree_val<std::_Tree_simple_types<std::pair<unsigned long const ,unsigned long> > >,1>::_Get_first
PUBLIC	?max_size@?$_Default_allocator_traits@V?$allocator@USEffectDamage@CInstanceBase@@@std@@@std@@SAIABV?$allocator@USEffectDamage@CInstanceBase@@@2@@Z ; std::_Default_allocator_traits<std::allocator<CInstanceBase::SEffectDamage> >::max_size
PUBLIC	?allocate@?$allocator@PAUSEffectDamage@CInstanceBase@@@std@@QAEPAPAUSEffectDamage@CInstanceBase@@I@Z ; std::allocator<CInstanceBase::SEffectDamage *>::allocate
PUBLIC	?_Max@?$_Tree_val@U?$_Tree_simple_types@K@std@@@std@@SAPAU?$_Tree_node@KPAX@2@PAU32@@Z ; std::_Tree_val<std::_Tree_simple_types<unsigned long> >::_Max
PUBLIC	?_Get_first@?$_Compressed_pair@V?$allocator@U?$_Tree_node@KPAX@std@@@std@@V?$_Tree_val@U?$_Tree_simple_types@K@std@@@2@$00@std@@QBEABV?$allocator@U?$_Tree_node@KPAX@std@@@2@XZ ; std::_Compressed_pair<std::allocator<std::_Tree_node<unsigned long,void *> >,std::_Tree_val<std::_Tree_simple_types<unsigned long> >,1>::_Get_first
PUBLIC	??R?$less@E@std@@QBE_NABE0@Z			; std::less<unsigned char>::operator()
PUBLIC	?max_size@?$_Tree@V?$_Tmap_traits@EV?$array@E$02@std@@U?$less@E@2@V?$allocator@U?$pair@$$CBEV?$array@E$02@std@@@std@@@2@$0A@@std@@@std@@QBEIXZ ; std::_Tree<std::_Tmap_traits<unsigned char,std::array<unsigned char,3>,std::less<unsigned char>,std::allocator<std::pair<unsigned char const ,std::array<unsigned char,3> > >,0> >::max_size
PUBLIC	?_Getcomp@?$_Tree@V?$_Tmap_traits@EV?$array@E$02@std@@U?$less@E@2@V?$allocator@U?$pair@$$CBEV?$array@E$02@std@@@std@@@2@$0A@@std@@@std@@IBEABU?$less@E@2@XZ ; std::_Tree<std::_Tmap_traits<unsigned char,std::array<unsigned char,3>,std::less<unsigned char>,std::allocator<std::pair<unsigned char const ,std::array<unsigned char,3> > >,0> >::_Getcomp
PUBLIC	?_Get_scary@?$_Tree@V?$_Tmap_traits@EV?$array@E$02@std@@U?$less@E@2@V?$allocator@U?$pair@$$CBEV?$array@E$02@std@@@std@@@2@$0A@@std@@@std@@IBEPBV?$_Tree_val@U?$_Tree_simple_types@U?$pair@$$CBEV?$array@E$02@std@@@std@@@std@@@2@XZ ; std::_Tree<std::_Tmap_traits<unsigned char,std::array<unsigned char,3>,std::less<unsigned char>,std::allocator<std::pair<unsigned char const ,std::array<unsigned char,3> > >,0> >::_Get_scary
PUBLIC	?_Lrotate@?$_Tree_val@U?$_Tree_simple_types@U?$pair@$$CBEV?$array@E$02@std@@@std@@@std@@@std@@QAEXPAU?$_Tree_node@U?$pair@$$CBEV?$array@E$02@std@@@std@@PAX@2@@Z ; std::_Tree_val<std::_Tree_simple_types<std::pair<unsigned char const ,std::array<unsigned char,3> > > >::_Lrotate
PUBLIC	?_Rrotate@?$_Tree_val@U?$_Tree_simple_types@U?$pair@$$CBEV?$array@E$02@std@@@std@@@std@@@std@@QAEXPAU?$_Tree_node@U?$pair@$$CBEV?$array@E$02@std@@@std@@PAX@2@@Z ; std::_Tree_val<std::_Tree_simple_types<std::pair<unsigned char const ,std::array<unsigned char,3> > > >::_Rrotate
PUBLIC	??0?$_Tree_unchecked_const_iterator@V?$_Tree_val@U?$_Tree_simple_types@U?$pair@$$CBEV?$array@E$02@std@@@std@@@std@@@std@@U_Iterator_base0@2@@std@@QAE@PAU?$_Tree_node@U?$pair@$$CBEV?$array@E$02@std@@@std@@PAX@1@PBV?$_Tree_val@U?$_Tree_simple_types@U?$pair@$$CBEV?$array@E$02@std@@@std@@@std@@@1@@Z ; std::_Tree_unchecked_const_iterator<std::_Tree_val<std::_Tree_simple_types<std::pair<unsigned char const ,std::array<unsigned char,3> > > >,std::_Iterator_base0>::_Tree_unchecked_const_iterator<std::_Tree_val<std::_Tree_simple_types<std::pair<unsigned char const ,std::array<unsigned char,3> > > >,std::_Iterator_base0>
PUBLIC	??E?$_Tree_unchecked_const_iterator@V?$_Tree_val@U?$_Tree_simple_types@U?$pair@$$CBEV?$array@E$02@std@@@std@@@std@@@std@@U_Iterator_base0@2@@std@@QAEAAV01@XZ ; std::_Tree_unchecked_const_iterator<std::_Tree_val<std::_Tree_simple_types<std::pair<unsigned char const ,std::array<unsigned char,3> > > >,std::_Iterator_base0>::operator++
PUBLIC	??F?$_Tree_unchecked_const_iterator@V?$_Tree_val@U?$_Tree_simple_types@U?$pair@$$CBEV?$array@E$02@std@@@std@@@std@@@std@@U_Iterator_base0@2@@std@@QAEAAV01@XZ ; std::_Tree_unchecked_const_iterator<std::_Tree_val<std::_Tree_simple_types<std::pair<unsigned char const ,std::array<unsigned char,3> > > >,std::_Iterator_base0>::operator--
PUBLIC	?max_size@?$_Tree@V?$_Tmap_traits@EPBDU?$less@E@std@@V?$allocator@U?$pair@$$CBEPBD@std@@@2@$0A@@std@@@std@@QBEIXZ ; std::_Tree<std::_Tmap_traits<unsigned char,char const *,std::less<unsigned char>,std::allocator<std::pair<unsigned char const ,char const *> >,0> >::max_size
PUBLIC	?_Getcomp@?$_Tree@V?$_Tmap_traits@EPBDU?$less@E@std@@V?$allocator@U?$pair@$$CBEPBD@std@@@2@$0A@@std@@@std@@IBEABU?$less@E@2@XZ ; std::_Tree<std::_Tmap_traits<unsigned char,char const *,std::less<unsigned char>,std::allocator<std::pair<unsigned char const ,char const *> >,0> >::_Getcomp
PUBLIC	?_Get_scary@?$_Tree@V?$_Tmap_traits@EPBDU?$less@E@std@@V?$allocator@U?$pair@$$CBEPBD@std@@@2@$0A@@std@@@std@@IBEPBV?$_Tree_val@U?$_Tree_simple_types@U?$pair@$$CBEPBD@std@@@std@@@2@XZ ; std::_Tree<std::_Tmap_traits<unsigned char,char const *,std::less<unsigned char>,std::allocator<std::pair<unsigned char const ,char const *> >,0> >::_Get_scary
PUBLIC	?_Lrotate@?$_Tree_val@U?$_Tree_simple_types@U?$pair@$$CBEPBD@std@@@std@@@std@@QAEXPAU?$_Tree_node@U?$pair@$$CBEPBD@std@@PAX@2@@Z ; std::_Tree_val<std::_Tree_simple_types<std::pair<unsigned char const ,char const *> > >::_Lrotate
PUBLIC	?_Rrotate@?$_Tree_val@U?$_Tree_simple_types@U?$pair@$$CBEPBD@std@@@std@@@std@@QAEXPAU?$_Tree_node@U?$pair@$$CBEPBD@std@@PAX@2@@Z ; std::_Tree_val<std::_Tree_simple_types<std::pair<unsigned char const ,char const *> > >::_Rrotate
PUBLIC	??0?$_Tree_unchecked_const_iterator@V?$_Tree_val@U?$_Tree_simple_types@U?$pair@$$CBEPBD@std@@@std@@@std@@U_Iterator_base0@2@@std@@QAE@PAU?$_Tree_node@U?$pair@$$CBEPBD@std@@PAX@1@PBV?$_Tree_val@U?$_Tree_simple_types@U?$pair@$$CBEPBD@std@@@std@@@1@@Z ; std::_Tree_unchecked_const_iterator<std::_Tree_val<std::_Tree_simple_types<std::pair<unsigned char const ,char const *> > >,std::_Iterator_base0>::_Tree_unchecked_const_iterator<std::_Tree_val<std::_Tree_simple_types<std::pair<unsigned char const ,char const *> > >,std::_Iterator_base0>
PUBLIC	??E?$_Tree_unchecked_const_iterator@V?$_Tree_val@U?$_Tree_simple_types@U?$pair@$$CBEPBD@std@@@std@@@std@@U_Iterator_base0@2@@std@@QAEAAV01@XZ ; std::_Tree_unchecked_const_iterator<std::_Tree_val<std::_Tree_simple_types<std::pair<unsigned char const ,char const *> > >,std::_Iterator_base0>::operator++
PUBLIC	??F?$_Tree_unchecked_const_iterator@V?$_Tree_val@U?$_Tree_simple_types@U?$pair@$$CBEPBD@std@@@std@@@std@@U_Iterator_base0@2@@std@@QAEAAV01@XZ ; std::_Tree_unchecked_const_iterator<std::_Tree_val<std::_Tree_simple_types<std::pair<unsigned char const ,char const *> > >,std::_Iterator_base0>::operator--
PUBLIC	?max_size@?$_Tree@V?$_Tmap_traits@EV?$map@EV?$vector@EV?$allocator@E@std@@@std@@U?$less@E@2@V?$allocator@U?$pair@$$CBEV?$vector@EV?$allocator@E@std@@@std@@@std@@@2@@std@@U?$less@E@2@V?$allocator@U?$pair@$$CBEV?$map@EV?$vector@EV?$allocator@E@std@@@std@@U?$less@E@2@V?$allocator@U?$pair@$$CBEV?$vector@EV?$allocator@E@std@@@std@@@std@@@2@@std@@@std@@@2@$0A@@std@@@std@@QBEIXZ ; std::_Tree<std::_Tmap_traits<unsigned char,std::map<unsigned char,std::vector<unsigned char,std::allocator<unsigned char> >,std::less<unsigned char>,std::allocator<std::pair<unsigned char const ,std::vector<unsigned char,std::allocator<unsigned char> > > > >,std::less<unsigned char>,std::allocator<std::pair<unsigned char const ,std::map<unsigned char,std::vector<unsigned char,std::allocator<unsigned char> >,std::less<unsigned char>,std::allocator<std::pair<unsigned char const ,std::vector<unsigned char,std::allocator<unsigned char> > > > > > >,0> >::max_size
PUBLIC	?_Getcomp@?$_Tree@V?$_Tmap_traits@EV?$map@EV?$vector@EV?$allocator@E@std@@@std@@U?$less@E@2@V?$allocator@U?$pair@$$CBEV?$vector@EV?$allocator@E@std@@@std@@@std@@@2@@std@@U?$less@E@2@V?$allocator@U?$pair@$$CBEV?$map@EV?$vector@EV?$allocator@E@std@@@std@@U?$less@E@2@V?$allocator@U?$pair@$$CBEV?$vector@EV?$allocator@E@std@@@std@@@std@@@2@@std@@@std@@@2@$0A@@std@@@std@@IBEABU?$less@E@2@XZ ; std::_Tree<std::_Tmap_traits<unsigned char,std::map<unsigned char,std::vector<unsigned char,std::allocator<unsigned char> >,std::less<unsigned char>,std::allocator<std::pair<unsigned char const ,std::vector<unsigned char,std::allocator<unsigned char> > > > >,std::less<unsigned char>,std::allocator<std::pair<unsigned char const ,std::map<unsigned char,std::vector<unsigned char,std::allocator<unsigned char> >,std::less<unsigned char>,std::allocator<std::pair<unsigned char const ,std::vector<unsigned char,std::allocator<unsigned char> > > > > > >,0> >::_Getcomp
PUBLIC	?_Get_scary@?$_Tree@V?$_Tmap_traits@EV?$map@EV?$vector@EV?$allocator@E@std@@@std@@U?$less@E@2@V?$allocator@U?$pair@$$CBEV?$vector@EV?$allocator@E@std@@@std@@@std@@@2@@std@@U?$less@E@2@V?$allocator@U?$pair@$$CBEV?$map@EV?$vector@EV?$allocator@E@std@@@std@@U?$less@E@2@V?$allocator@U?$pair@$$CBEV?$vector@EV?$allocator@E@std@@@std@@@std@@@2@@std@@@std@@@2@$0A@@std@@@std@@IBEPBV?$_Tree_val@U?$_Tree_simple_types@U?$pair@$$CBEV?$map@EV?$vector@EV?$allocator@E@std@@@std@@U?$less@E@2@V?$allocator@U?$pair@$$CBEV?$vector@EV?$allocator@E@std@@@std@@@std@@@2@@std@@@std@@@std@@@2@XZ ; std::_Tree<std::_Tmap_traits<unsigned char,std::map<unsigned char,std::vector<unsigned char,std::allocator<unsigned char> >,std::less<unsigned char>,std::allocator<std::pair<unsigned char const ,std::vector<unsigned char,std::allocator<unsigned char> > > > >,std::less<unsigned char>,std::allocator<std::pair<unsigned char const ,std::map<unsigned char,std::vector<unsigned char,std::allocator<unsigned char> >,std::less<unsigned char>,std::allocator<std::pair<unsigned char const ,std::vector<unsigned char,std::allocator<unsigned char> > > > > > >,0> >::_Get_scary
PUBLIC	?_Lrotate@?$_Tree_val@U?$_Tree_simple_types@U?$pair@$$CBEV?$map@EV?$vector@EV?$allocator@E@std@@@std@@U?$less@E@2@V?$allocator@U?$pair@$$CBEV?$vector@EV?$allocator@E@std@@@std@@@std@@@2@@std@@@std@@@std@@@std@@QAEXPAU?$_Tree_node@U?$pair@$$CBEV?$map@EV?$vector@EV?$allocator@E@std@@@std@@U?$less@E@2@V?$allocator@U?$pair@$$CBEV?$vector@EV?$allocator@E@std@@@std@@@std@@@2@@std@@@std@@PAX@2@@Z ; std::_Tree_val<std::_Tree_simple_types<std::pair<unsigned char const ,std::map<unsigned char,std::vector<unsigned char,std::allocator<unsigned char> >,std::less<unsigned char>,std::allocator<std::pair<unsigned char const ,std::vector<unsigned char,std::allocator<unsigned char> > > > > > > >::_Lrotate
PUBLIC	?_Rrotate@?$_Tree_val@U?$_Tree_simple_types@U?$pair@$$CBEV?$map@EV?$vector@EV?$allocator@E@std@@@std@@U?$less@E@2@V?$allocator@U?$pair@$$CBEV?$vector@EV?$allocator@E@std@@@std@@@std@@@2@@std@@@std@@@std@@@std@@QAEXPAU?$_Tree_node@U?$pair@$$CBEV?$map@EV?$vector@EV?$allocator@E@std@@@std@@U?$less@E@2@V?$allocator@U?$pair@$$CBEV?$vector@EV?$allocator@E@std@@@std@@@std@@@2@@std@@@std@@PAX@2@@Z ; std::_Tree_val<std::_Tree_simple_types<std::pair<unsigned char const ,std::map<unsigned char,std::vector<unsigned char,std::allocator<unsigned char> >,std::less<unsigned char>,std::allocator<std::pair<unsigned char const ,std::vector<unsigned char,std::allocator<unsigned char> > > > > > > >::_Rrotate
PUBLIC	??0?$_Tree_unchecked_const_iterator@V?$_Tree_val@U?$_Tree_simple_types@U?$pair@$$CBEV?$map@EV?$vector@EV?$allocator@E@std@@@std@@U?$less@E@2@V?$allocator@U?$pair@$$CBEV?$vector@EV?$allocator@E@std@@@std@@@std@@@2@@std@@@std@@@std@@@std@@U_Iterator_base0@2@@std@@QAE@PAU?$_Tree_node@U?$pair@$$CBEV?$map@EV?$vector@EV?$allocator@E@std@@@std@@U?$less@E@2@V?$allocator@U?$pair@$$CBEV?$vector@EV?$allocator@E@std@@@std@@@std@@@2@@std@@@std@@PAX@1@PBV?$_Tree_val@U?$_Tree_simple_types@U?$pair@$$CBEV?$map@EV?$vector@EV?$allocator@E@std@@@std@@U?$less@E@2@V?$allocator@U?$pair@$$CBEV?$vector@EV?$allocator@E@std@@@std@@@std@@@2@@std@@@std@@@std@@@1@@Z ; std::_Tree_unchecked_const_iterator<std::_Tree_val<std::_Tree_simple_types<std::pair<unsigned char const ,std::map<unsigned char,std::vector<unsigned char,std::allocator<unsigned char> >,std::less<unsigned char>,std::allocator<std::pair<unsigned char const ,std::vector<unsigned char,std::allocator<unsigned char> > > > > > > >,std::_Iterator_base0>::_Tree_unchecked_const_iterator<std::_Tree_val<std::_Tree_simple_types<std::pair<unsigned char const ,std::map<unsigned char,std::vector<unsigned char,std::allocator<unsigned char> >,std::less<unsigned char>,std::allocator<std::pair<unsigned char const ,std::vector<unsigned char,std::allocator<unsigned char> > > > > > > >,std::_Iterator_base0>
PUBLIC	??E?$_Tree_unchecked_const_iterator@V?$_Tree_val@U?$_Tree_simple_types@U?$pair@$$CBEV?$map@EV?$vector@EV?$allocator@E@std@@@std@@U?$less@E@2@V?$allocator@U?$pair@$$CBEV?$vector@EV?$allocator@E@std@@@std@@@std@@@2@@std@@@std@@@std@@@std@@U_Iterator_base0@2@@std@@QAEAAV01@XZ ; std::_Tree_unchecked_const_iterator<std::_Tree_val<std::_Tree_simple_types<std::pair<unsigned char const ,std::map<unsigned char,std::vector<unsigned char,std::allocator<unsigned char> >,std::less<unsigned char>,std::allocator<std::pair<unsigned char const ,std::vector<unsigned char,std::allocator<unsigned char> > > > > > > >,std::_Iterator_base0>::operator++
PUBLIC	??F?$_Tree_unchecked_const_iterator@V?$_Tree_val@U?$_Tree_simple_types@U?$pair@$$CBEV?$map@EV?$vector@EV?$allocator@E@std@@@std@@U?$less@E@2@V?$allocator@U?$pair@$$CBEV?$vector@EV?$allocator@E@std@@@std@@@std@@@2@@std@@@std@@@std@@@std@@U_Iterator_base0@2@@std@@QAEAAV01@XZ ; std::_Tree_unchecked_const_iterator<std::_Tree_val<std::_Tree_simple_types<std::pair<unsigned char const ,std::map<unsigned char,std::vector<unsigned char,std::allocator<unsigned char> >,std::less<unsigned char>,std::allocator<std::pair<unsigned char const ,std::vector<unsigned char,std::allocator<unsigned char> > > > > > > >,std::_Iterator_base0>::operator--
PUBLIC	?max_size@?$_Tree@V?$_Tmap_traits@EV?$vector@EV?$allocator@E@std@@@std@@U?$less@E@2@V?$allocator@U?$pair@$$CBEV?$vector@EV?$allocator@E@std@@@std@@@std@@@2@$0A@@std@@@std@@QBEIXZ ; std::_Tree<std::_Tmap_traits<unsigned char,std::vector<unsigned char,std::allocator<unsigned char> >,std::less<unsigned char>,std::allocator<std::pair<unsigned char const ,std::vector<unsigned char,std::allocator<unsigned char> > > >,0> >::max_size
PUBLIC	?_Lrotate@?$_Tree_val@U?$_Tree_simple_types@U?$pair@$$CBEV?$vector@EV?$allocator@E@std@@@std@@@std@@@std@@@std@@QAEXPAU?$_Tree_node@U?$pair@$$CBEV?$vector@EV?$allocator@E@std@@@std@@@std@@PAX@2@@Z ; std::_Tree_val<std::_Tree_simple_types<std::pair<unsigned char const ,std::vector<unsigned char,std::allocator<unsigned char> > > > >::_Lrotate
PUBLIC	?_Rrotate@?$_Tree_val@U?$_Tree_simple_types@U?$pair@$$CBEV?$vector@EV?$allocator@E@std@@@std@@@std@@@std@@@std@@QAEXPAU?$_Tree_node@U?$pair@$$CBEV?$vector@EV?$allocator@E@std@@@std@@@std@@PAX@2@@Z ; std::_Tree_val<std::_Tree_simple_types<std::pair<unsigned char const ,std::vector<unsigned char,std::allocator<unsigned char> > > > >::_Rrotate
PUBLIC	??0?$_Tree_unchecked_const_iterator@V?$_Tree_val@U?$_Tree_simple_types@U?$pair@$$CBEV?$vector@EV?$allocator@E@std@@@std@@@std@@@std@@@std@@U_Iterator_base0@2@@std@@QAE@PAU?$_Tree_node@U?$pair@$$CBEV?$vector@EV?$allocator@E@std@@@std@@@std@@PAX@1@PBV?$_Tree_val@U?$_Tree_simple_types@U?$pair@$$CBEV?$vector@EV?$allocator@E@std@@@std@@@std@@@std@@@1@@Z ; std::_Tree_unchecked_const_iterator<std::_Tree_val<std::_Tree_simple_types<std::pair<unsigned char const ,std::vector<unsigned char,std::allocator<unsigned char> > > > >,std::_Iterator_base0>::_Tree_unchecked_const_iterator<std::_Tree_val<std::_Tree_simple_types<std::pair<unsigned char const ,std::vector<unsigned char,std::allocator<unsigned char> > > > >,std::_Iterator_base0>
PUBLIC	??E?$_Tree_unchecked_const_iterator@V?$_Tree_val@U?$_Tree_simple_types@U?$pair@$$CBEV?$vector@EV?$allocator@E@std@@@std@@@std@@@std@@@std@@U_Iterator_base0@2@@std@@QAEAAV01@XZ ; std::_Tree_unchecked_const_iterator<std::_Tree_val<std::_Tree_simple_types<std::pair<unsigned char const ,std::vector<unsigned char,std::allocator<unsigned char> > > > >,std::_Iterator_base0>::operator++
PUBLIC	??F?$_Tree_unchecked_const_iterator@V?$_Tree_val@U?$_Tree_simple_types@U?$pair@$$CBEV?$vector@EV?$allocator@E@std@@@std@@@std@@@std@@@std@@U_Iterator_base0@2@@std@@QAEAAV01@XZ ; std::_Tree_unchecked_const_iterator<std::_Tree_val<std::_Tree_simple_types<std::pair<unsigned char const ,std::vector<unsigned char,std::allocator<unsigned char> > > > >,std::_Iterator_base0>::operator--
PUBLIC	?_Get_first@?$_Compressed_pair@U?$less@E@std@@V?$_Compressed_pair@V?$allocator@U?$_Tree_node@U?$pair@$$CBEV?$vector@EV?$allocator@E@std@@@std@@@std@@PAX@std@@@std@@V?$_Tree_val@U?$_Tree_simple_types@U?$pair@$$CBEV?$vector@EV?$allocator@E@std@@@std@@@std@@@std@@@2@$00@2@$00@std@@QBEABU?$less@E@2@XZ ; std::_Compressed_pair<std::less<unsigned char>,std::_Compressed_pair<std::allocator<std::_Tree_node<std::pair<unsigned char const ,std::vector<unsigned char,std::allocator<unsigned char> > >,void *> >,std::_Tree_val<std::_Tree_simple_types<std::pair<unsigned char const ,std::vector<unsigned char,std::allocator<unsigned char> > > > >,1>,1>::_Get_first
PUBLIC	?max_size@?$_Tree@V?$_Tmap_traits@V?$basic_string@DU?$char_traits@D@std@@V?$allocator@D@2@@std@@V?$vector@EV?$allocator@E@std@@@2@U?$less@V?$basic_string@DU?$char_traits@D@std@@V?$allocator@D@2@@std@@@2@V?$allocator@U?$pair@$$CBV?$basic_string@DU?$char_traits@D@std@@V?$allocator@D@2@@std@@V?$vector@EV?$allocator@E@std@@@2@@std@@@2@$0A@@std@@@std@@QBEIXZ ; std::_Tree<std::_Tmap_traits<std::basic_string<char,std::char_traits<char>,std::allocator<char> >,std::vector<unsigned char,std::allocator<unsigned char> >,std::less<std::basic_string<char,std::char_traits<char>,std::allocator<char> > >,std::allocator<std::pair<std::basic_string<char,std::char_traits<char>,std::allocator<char> > const ,std::vector<unsigned char,std::allocator<unsigned char> > > >,0> >::max_size
PUBLIC	?_Getcomp@?$_Tree@V?$_Tmap_traits@V?$basic_string@DU?$char_traits@D@std@@V?$allocator@D@2@@std@@V?$vector@EV?$allocator@E@std@@@2@U?$less@V?$basic_string@DU?$char_traits@D@std@@V?$allocator@D@2@@std@@@2@V?$allocator@U?$pair@$$CBV?$basic_string@DU?$char_traits@D@std@@V?$allocator@D@2@@std@@V?$vector@EV?$allocator@E@std@@@2@@std@@@2@$0A@@std@@@std@@IBEABU?$less@V?$basic_string@DU?$char_traits@D@std@@V?$allocator@D@2@@std@@@2@XZ ; std::_Tree<std::_Tmap_traits<std::basic_string<char,std::char_traits<char>,std::allocator<char> >,std::vector<unsigned char,std::allocator<unsigned char> >,std::less<std::basic_string<char,std::char_traits<char>,std::allocator<char> > >,std::allocator<std::pair<std::basic_string<char,std::char_traits<char>,std::allocator<char> > const ,std::vector<unsigned char,std::allocator<unsigned char> > > >,0> >::_Getcomp
PUBLIC	?_Get_scary@?$_Tree@V?$_Tmap_traits@V?$basic_string@DU?$char_traits@D@std@@V?$allocator@D@2@@std@@V?$vector@EV?$allocator@E@std@@@2@U?$less@V?$basic_string@DU?$char_traits@D@std@@V?$allocator@D@2@@std@@@2@V?$allocator@U?$pair@$$CBV?$basic_string@DU?$char_traits@D@std@@V?$allocator@D@2@@std@@V?$vector@EV?$allocator@E@std@@@2@@std@@@2@$0A@@std@@@std@@IBEPBV?$_Tree_val@U?$_Tree_simple_types@U?$pair@$$CBV?$basic_string@DU?$char_traits@D@std@@V?$allocator@D@2@@std@@V?$vector@EV?$allocator@E@std@@@2@@std@@@std@@@2@XZ ; std::_Tree<std::_Tmap_traits<std::basic_string<char,std::char_traits<char>,std::allocator<char> >,std::vector<unsigned char,std::allocator<unsigned char> >,std::less<std::basic_string<char,std::char_traits<char>,std::allocator<char> > >,std::allocator<std::pair<std::basic_string<char,std::char_traits<char>,std::allocator<char> > const ,std::vector<unsigned char,std::allocator<unsigned char> > > >,0> >::_Get_scary
PUBLIC	?_Lrotate@?$_Tree_val@U?$_Tree_simple_types@U?$pair@$$CBV?$basic_string@DU?$char_traits@D@std@@V?$allocator@D@2@@std@@V?$vector@EV?$allocator@E@std@@@2@@std@@@std@@@std@@QAEXPAU?$_Tree_node@U?$pair@$$CBV?$basic_string@DU?$char_traits@D@std@@V?$allocator@D@2@@std@@V?$vector@EV?$allocator@E@std@@@2@@std@@PAX@2@@Z ; std::_Tree_val<std::_Tree_simple_types<std::pair<std::basic_string<char,std::char_traits<char>,std::allocator<char> > const ,std::vector<unsigned char,std::allocator<unsigned char> > > > >::_Lrotate
PUBLIC	?_Rrotate@?$_Tree_val@U?$_Tree_simple_types@U?$pair@$$CBV?$basic_string@DU?$char_traits@D@std@@V?$allocator@D@2@@std@@V?$vector@EV?$allocator@E@std@@@2@@std@@@std@@@std@@QAEXPAU?$_Tree_node@U?$pair@$$CBV?$basic_string@DU?$char_traits@D@std@@V?$allocator@D@2@@std@@V?$vector@EV?$allocator@E@std@@@2@@std@@PAX@2@@Z ; std::_Tree_val<std::_Tree_simple_types<std::pair<std::basic_string<char,std::char_traits<char>,std::allocator<char> > const ,std::vector<unsigned char,std::allocator<unsigned char> > > > >::_Rrotate
PUBLIC	??0?$_Tree_unchecked_const_iterator@V?$_Tree_val@U?$_Tree_simple_types@U?$pair@$$CBV?$basic_string@DU?$char_traits@D@std@@V?$allocator@D@2@@std@@V?$vector@EV?$allocator@E@std@@@2@@std@@@std@@@std@@U_Iterator_base0@2@@std@@QAE@PAU?$_Tree_node@U?$pair@$$CBV?$basic_string@DU?$char_traits@D@std@@V?$allocator@D@2@@std@@V?$vector@EV?$allocator@E@std@@@2@@std@@PAX@1@PBV?$_Tree_val@U?$_Tree_simple_types@U?$pair@$$CBV?$basic_string@DU?$char_traits@D@std@@V?$allocator@D@2@@std@@V?$vector@EV?$allocator@E@std@@@2@@std@@@std@@@1@@Z ; std::_Tree_unchecked_const_iterator<std::_Tree_val<std::_Tree_simple_types<std::pair<std::basic_string<char,std::char_traits<char>,std::allocator<char> > const ,std::vector<unsigned char,std::allocator<unsigned char> > > > >,std::_Iterator_base0>::_Tree_unchecked_const_iterator<std::_Tree_val<std::_Tree_simple_types<std::pair<std::basic_string<char,std::char_traits<char>,std::allocator<char> > const ,std::vector<unsigned char,std::allocator<unsigned char> > > > >,std::_Iterator_base0>
PUBLIC	??E?$_Tree_unchecked_const_iterator@V?$_Tree_val@U?$_Tree_simple_types@U?$pair@$$CBV?$basic_string@DU?$char_traits@D@std@@V?$allocator@D@2@@std@@V?$vector@EV?$allocator@E@std@@@2@@std@@@std@@@std@@U_Iterator_base0@2@@std@@QAEAAV01@XZ ; std::_Tree_unchecked_const_iterator<std::_Tree_val<std::_Tree_simple_types<std::pair<std::basic_string<char,std::char_traits<char>,std::allocator<char> > const ,std::vector<unsigned char,std::allocator<unsigned char> > > > >,std::_Iterator_base0>::operator++
PUBLIC	??F?$_Tree_unchecked_const_iterator@V?$_Tree_val@U?$_Tree_simple_types@U?$pair@$$CBV?$basic_string@DU?$char_traits@D@std@@V?$allocator@D@2@@std@@V?$vector@EV?$allocator@E@std@@@2@@std@@@std@@@std@@U_Iterator_base0@2@@std@@QAEAAV01@XZ ; std::_Tree_unchecked_const_iterator<std::_Tree_val<std::_Tree_simple_types<std::pair<std::basic_string<char,std::char_traits<char>,std::allocator<char> > const ,std::vector<unsigned char,std::allocator<unsigned char> > > > >,std::_Iterator_base0>::operator--
PUBLIC	?_Getal@?$_Tree@V?$_Tmap_traits@HV?$basic_string@DU?$char_traits@D@std@@V?$allocator@D@2@@std@@U?$less@H@2@V?$allocator@U?$pair@$$CBHV?$basic_string@DU?$char_traits@D@std@@V?$allocator@D@2@@std@@@std@@@2@$0A@@std@@@std@@IBEABV?$allocator@U?$_Tree_node@U?$pair@$$CBHV?$basic_string@DU?$char_traits@D@std@@V?$allocator@D@2@@std@@@std@@PAX@std@@@2@XZ ; std::_Tree<std::_Tmap_traits<int,std::basic_string<char,std::char_traits<char>,std::allocator<char> >,std::less<int>,std::allocator<std::pair<int const ,std::basic_string<char,std::char_traits<char>,std::allocator<char> > > >,0> >::_Getal
PUBLIC	?max_size@?$_Default_allocator_traits@V?$allocator@U?$_Tree_node@U?$pair@$$CBHV?$basic_string@DU?$char_traits@D@std@@V?$allocator@D@2@@std@@@std@@PAX@std@@@std@@@std@@SAIABV?$allocator@U?$_Tree_node@U?$pair@$$CBHV?$basic_string@DU?$char_traits@D@std@@V?$allocator@D@2@@std@@@std@@PAX@std@@@2@@Z ; std::_Default_allocator_traits<std::allocator<std::_Tree_node<std::pair<int const ,std::basic_string<char,std::char_traits<char>,std::allocator<char> > >,void *> > >::max_size
PUBLIC	??0?$_Alloc_construct_ptr@V?$allocator@U?$_Tree_node@U?$pair@$$CBHV?$basic_string@DU?$char_traits@D@std@@V?$allocator@D@2@@std@@@std@@PAX@std@@@std@@@std@@QAE@AAV?$allocator@U?$_Tree_node@U?$pair@$$CBHV?$basic_string@DU?$char_traits@D@std@@V?$allocator@D@2@@std@@@std@@PAX@std@@@1@@Z ; std::_Alloc_construct_ptr<std::allocator<std::_Tree_node<std::pair<int const ,std::basic_string<char,std::char_traits<char>,std::allocator<char> > >,void *> > >::_Alloc_construct_ptr<std::allocator<std::_Tree_node<std::pair<int const ,std::basic_string<char,std::char_traits<char>,std::allocator<char> > >,void *> > >
PUBLIC	?_Allocate@?$_Alloc_construct_ptr@V?$allocator@U?$_Tree_node@U?$pair@$$CBHV?$basic_string@DU?$char_traits@D@std@@V?$allocator@D@2@@std@@@std@@PAX@std@@@std@@@std@@QAEXXZ ; std::_Alloc_construct_ptr<std::allocator<std::_Tree_node<std::pair<int const ,std::basic_string<char,std::char_traits<char>,std::allocator<char> > >,void *> > >::_Allocate
PUBLIC	??0?$_Tree_temp_node_alloc@V?$allocator@U?$_Tree_node@U?$pair@$$CBV?$basic_string@DU?$char_traits@D@std@@V?$allocator@D@2@@std@@V?$vector@EV?$allocator@E@std@@@2@@std@@PAX@std@@@std@@@std@@QAE@AAV?$allocator@U?$_Tree_node@U?$pair@$$CBV?$basic_string@DU?$char_traits@D@std@@V?$allocator@D@2@@std@@V?$vector@EV?$allocator@E@std@@@2@@std@@PAX@std@@@1@@Z ; std::_Tree_temp_node_alloc<std::allocator<std::_Tree_node<std::pair<std::basic_string<char,std::char_traits<char>,std::allocator<char> > const ,std::vector<unsigned char,std::allocator<unsigned char> > >,void *> > >::_Tree_temp_node_alloc<std::allocator<std::_Tree_node<std::pair<std::basic_string<char,std::char_traits<char>,std::allocator<char> > const ,std::vector<unsigned char,std::allocator<unsigned char> > >,void *> > >
PUBLIC	??1?$_Alloc_construct_ptr@V?$allocator@U?$_Tree_node@U?$pair@$$CBV?$basic_string@DU?$char_traits@D@std@@V?$allocator@D@2@@std@@V?$vector@EV?$allocator@E@std@@@2@@std@@PAX@std@@@std@@@std@@QAE@XZ ; std::_Alloc_construct_ptr<std::allocator<std::_Tree_node<std::pair<std::basic_string<char,std::char_traits<char>,std::allocator<char> > const ,std::vector<unsigned char,std::allocator<unsigned char> > >,void *> > >::~_Alloc_construct_ptr<std::allocator<std::_Tree_node<std::pair<std::basic_string<char,std::char_traits<char>,std::allocator<char> > const ,std::vector<unsigned char,std::allocator<unsigned char> > >,void *> > >
PUBLIC	??0?$_Tree_temp_node_alloc@V?$allocator@U?$_Tree_node@U?$pair@$$CBEV?$vector@EV?$allocator@E@std@@@std@@@std@@PAX@std@@@std@@@std@@QAE@AAV?$allocator@U?$_Tree_node@U?$pair@$$CBEV?$vector@EV?$allocator@E@std@@@std@@@std@@PAX@std@@@1@@Z ; std::_Tree_temp_node_alloc<std::allocator<std::_Tree_node<std::pair<unsigned char const ,std::vector<unsigned char,std::allocator<unsigned char> > >,void *> > >::_Tree_temp_node_alloc<std::allocator<std::_Tree_node<std::pair<unsigned char const ,std::vector<unsigned char,std::allocator<unsigned char> > >,void *> > >
PUBLIC	??1?$_Alloc_construct_ptr@V?$allocator@U?$_Tree_node@U?$pair@$$CBEV?$vector@EV?$allocator@E@std@@@std@@@std@@PAX@std@@@std@@@std@@QAE@XZ ; std::_Alloc_construct_ptr<std::allocator<std::_Tree_node<std::pair<unsigned char const ,std::vector<unsigned char,std::allocator<unsigned char> > >,void *> > >::~_Alloc_construct_ptr<std::allocator<std::_Tree_node<std::pair<unsigned char const ,std::vector<unsigned char,std::allocator<unsigned char> > >,void *> > >
PUBLIC	??0?$_Tree_temp_node_alloc@V?$allocator@U?$_Tree_node@U?$pair@$$CBEV?$map@EV?$vector@EV?$allocator@E@std@@@std@@U?$less@E@2@V?$allocator@U?$pair@$$CBEV?$vector@EV?$allocator@E@std@@@std@@@std@@@2@@std@@@std@@PAX@std@@@std@@@std@@QAE@AAV?$allocator@U?$_Tree_node@U?$pair@$$CBEV?$map@EV?$vector@EV?$allocator@E@std@@@std@@U?$less@E@2@V?$allocator@U?$pair@$$CBEV?$vector@EV?$allocator@E@std@@@std@@@std@@@2@@std@@@std@@PAX@std@@@1@@Z ; std::_Tree_temp_node_alloc<std::allocator<std::_Tree_node<std::pair<unsigned char const ,std::map<unsigned char,std::vector<unsigned char,std::allocator<unsigned char> >,std::less<unsigned char>,std::allocator<std::pair<unsigned char const ,std::vector<unsigned char,std::allocator<unsigned char> > > > > >,void *> > >::_Tree_temp_node_alloc<std::allocator<std::_Tree_node<std::pair<unsigned char const ,std::map<unsigned char,std::vector<unsigned char,std::allocator<unsigned char> >,std::less<unsigned char>,std::allocator<std::pair<unsigned char const ,std::vector<unsigned char,std::allocator<unsigned char> > > > > >,void *> > >
PUBLIC	??1?$_Alloc_construct_ptr@V?$allocator@U?$_Tree_node@U?$pair@$$CBEV?$map@EV?$vector@EV?$allocator@E@std@@@std@@U?$less@E@2@V?$allocator@U?$pair@$$CBEV?$vector@EV?$allocator@E@std@@@std@@@std@@@2@@std@@@std@@PAX@std@@@std@@@std@@QAE@XZ ; std::_Alloc_construct_ptr<std::allocator<std::_Tree_node<std::pair<unsigned char const ,std::map<unsigned char,std::vector<unsigned char,std::allocator<unsigned char> >,std::less<unsigned char>,std::allocator<std::pair<unsigned char const ,std::vector<unsigned char,std::allocator<unsigned char> > > > > >,void *> > >::~_Alloc_construct_ptr<std::allocator<std::_Tree_node<std::pair<unsigned char const ,std::map<unsigned char,std::vector<unsigned char,std::allocator<unsigned char> >,std::less<unsigned char>,std::allocator<std::pair<unsigned char const ,std::vector<unsigned char,std::allocator<unsigned char> > > > > >,void *> > >
PUBLIC	??0?$_Tree_temp_node_alloc@V?$allocator@U?$_Tree_node@U?$pair@$$CBEPBD@std@@PAX@std@@@std@@@std@@QAE@AAV?$allocator@U?$_Tree_node@U?$pair@$$CBEPBD@std@@PAX@std@@@1@@Z ; std::_Tree_temp_node_alloc<std::allocator<std::_Tree_node<std::pair<unsigned char const ,char const *>,void *> > >::_Tree_temp_node_alloc<std::allocator<std::_Tree_node<std::pair<unsigned char const ,char const *>,void *> > >
PUBLIC	??1?$_Alloc_construct_ptr@V?$allocator@U?$_Tree_node@U?$pair@$$CBEPBD@std@@PAX@std@@@std@@@std@@QAE@XZ ; std::_Alloc_construct_ptr<std::allocator<std::_Tree_node<std::pair<unsigned char const ,char const *>,void *> > >::~_Alloc_construct_ptr<std::allocator<std::_Tree_node<std::pair<unsigned char const ,char const *>,void *> > >
PUBLIC	??0?$_Tree_temp_node_alloc@V?$allocator@U?$_Tree_node@U?$pair@$$CBEV?$array@E$02@std@@@std@@PAX@std@@@std@@@std@@QAE@AAV?$allocator@U?$_Tree_node@U?$pair@$$CBEV?$array@E$02@std@@@std@@PAX@std@@@1@@Z ; std::_Tree_temp_node_alloc<std::allocator<std::_Tree_node<std::pair<unsigned char const ,std::array<unsigned char,3> >,void *> > >::_Tree_temp_node_alloc<std::allocator<std::_Tree_node<std::pair<unsigned char const ,std::array<unsigned char,3> >,void *> > >
PUBLIC	??1?$_Alloc_construct_ptr@V?$allocator@U?$_Tree_node@U?$pair@$$CBEV?$array@E$02@std@@@std@@PAX@std@@@std@@@std@@QAE@XZ ; std::_Alloc_construct_ptr<std::allocator<std::_Tree_node<std::pair<unsigned char const ,std::array<unsigned char,3> >,void *> > >::~_Alloc_construct_ptr<std::allocator<std::_Tree_node<std::pair<unsigned char const ,std::array<unsigned char,3> >,void *> > >
PUBLIC	??1?$_Erase_tree_and_orphan_guard@V?$allocator@U?$_Tree_node@U?$pair@$$CBEV?$vector@EV?$allocator@E@std@@@std@@@std@@PAX@std@@@std@@@?$_Tree_val@U?$_Tree_simple_types@U?$pair@$$CBEV?$vector@EV?$allocator@E@std@@@std@@@std@@@std@@@std@@QAE@XZ ; std::_Tree_val<std::_Tree_simple_types<std::pair<unsigned char const ,std::vector<unsigned char,std::allocator<unsigned char> > > > >::_Erase_tree_and_orphan_guard<std::allocator<std::_Tree_node<std::pair<unsigned char const ,std::vector<unsigned char,std::allocator<unsigned char> > >,void *> > >::~_Erase_tree_and_orphan_guard<std::allocator<std::_Tree_node<std::pair<unsigned char const ,std::vector<unsigned char,std::allocator<unsigned char> > >,void *> > >
PUBLIC	??$_Get_size_of_n@$0BM@@std@@YAII@Z		; std::_Get_size_of_n<28>
PUBLIC	??$addressof@$$CBV?$_Tree_val@U?$_Tree_simple_types@U?$pair@$$CBEV?$vector@EV?$allocator@E@std@@@std@@@std@@@std@@@std@@@std@@YAPBV?$_Tree_val@U?$_Tree_simple_types@U?$pair@$$CBEV?$vector@EV?$allocator@E@std@@@std@@@std@@@std@@@0@ABV10@@Z ; std::addressof<std::_Tree_val<std::_Tree_simple_types<std::pair<unsigned char const ,std::vector<unsigned char,std::allocator<unsigned char> > > > > const >
PUBLIC	??$_Get_size_of_n@$0CA@@std@@YAII@Z		; std::_Get_size_of_n<32>
PUBLIC	??$_Get_size_of_n@$0DE@@std@@YAII@Z		; std::_Get_size_of_n<52>
PUBLIC	??$exchange@PAU?$_Tree_node@U?$pair@$$CBV?$basic_string@DU?$char_traits@D@std@@V?$allocator@D@2@@std@@V?$vector@EV?$allocator@E@std@@@2@@std@@PAX@std@@$$T@std@@YAPAU?$_Tree_node@U?$pair@$$CBV?$basic_string@DU?$char_traits@D@std@@V?$allocator@D@2@@std@@V?$vector@EV?$allocator@E@std@@@2@@std@@PAX@0@AAPAU10@$$QA$$T@Z ; std::exchange<std::_Tree_node<std::pair<std::basic_string<char,std::char_traits<char>,std::allocator<char> > const ,std::vector<unsigned char,std::allocator<unsigned char> > >,void *> *,std::nullptr_t>
PUBLIC	??$exchange@PAU?$_Tree_node@U?$pair@$$CBEV?$vector@EV?$allocator@E@std@@@std@@@std@@PAX@std@@$$T@std@@YAPAU?$_Tree_node@U?$pair@$$CBEV?$vector@EV?$allocator@E@std@@@std@@@std@@PAX@0@AAPAU10@$$QA$$T@Z ; std::exchange<std::_Tree_node<std::pair<unsigned char const ,std::vector<unsigned char,std::allocator<unsigned char> > >,void *> *,std::nullptr_t>
PUBLIC	??$exchange@PAU?$_Tree_node@U?$pair@$$CBEV?$map@EV?$vector@EV?$allocator@E@std@@@std@@U?$less@E@2@V?$allocator@U?$pair@$$CBEV?$vector@EV?$allocator@E@std@@@std@@@std@@@2@@std@@@std@@PAX@std@@$$T@std@@YAPAU?$_Tree_node@U?$pair@$$CBEV?$map@EV?$vector@EV?$allocator@E@std@@@std@@U?$less@E@2@V?$allocator@U?$pair@$$CBEV?$vector@EV?$allocator@E@std@@@std@@@std@@@2@@std@@@std@@PAX@0@AAPAU10@$$QA$$T@Z ; std::exchange<std::_Tree_node<std::pair<unsigned char const ,std::map<unsigned char,std::vector<unsigned char,std::allocator<unsigned char> >,std::less<unsigned char>,std::allocator<std::pair<unsigned char const ,std::vector<unsigned char,std::allocator<unsigned char> > > > > >,void *> *,std::nullptr_t>
PUBLIC	??$exchange@PAU?$_Tree_node@U?$pair@$$CBEPBD@std@@PAX@std@@$$T@std@@YAPAU?$_Tree_node@U?$pair@$$CBEPBD@std@@PAX@0@AAPAU10@$$QA$$T@Z ; std::exchange<std::_Tree_node<std::pair<unsigned char const ,char const *>,void *> *,std::nullptr_t>
PUBLIC	??$exchange@PAU?$_Tree_node@U?$pair@$$CBEV?$array@E$02@std@@@std@@PAX@std@@$$T@std@@YAPAU?$_Tree_node@U?$pair@$$CBEV?$array@E$02@std@@@std@@PAX@0@AAPAU10@$$QA$$T@Z ; std::exchange<std::_Tree_node<std::pair<unsigned char const ,std::array<unsigned char,3> >,void *> *,std::nullptr_t>
PUBLIC	??$_To_address@PAPAUSEffectDamage@CInstanceBase@@@std@@YA?A_PABQAPAUSEffectDamage@CInstanceBase@@@Z ; std::_To_address<CInstanceBase::SEffectDamage * *>
PUBLIC	??$_Zero_range@PAPAUSEffectDamage@CInstanceBase@@@std@@YAPAPAUSEffectDamage@CInstanceBase@@QAPAU12@0@Z ; std::_Zero_range<CInstanceBase::SEffectDamage * *>
PUBLIC	??$_Seek_wrapped@PAPAUSEffectDamage@CInstanceBase@@PAPAU12@@std@@YAXAAPAPAUSEffectDamage@CInstanceBase@@$$QAPAPAU12@@Z ; std::_Seek_wrapped<CInstanceBase::SEffectDamage * *,CInstanceBase::SEffectDamage * *>
PUBLIC	??$_Uninitialized_copy_unchecked@PAPAUSEffectDamage@CInstanceBase@@PAPAU12@@std@@YAPAPAUSEffectDamage@CInstanceBase@@PAPAU12@QAPAU12@0@Z ; std::_Uninitialized_copy_unchecked<CInstanceBase::SEffectDamage * *,CInstanceBase::SEffectDamage * *>
PUBLIC	??$_Adl_verify_range@PAPAUSEffectDamage@CInstanceBase@@PAPAU12@@std@@YAXABQAPAUSEffectDamage@CInstanceBase@@0@Z ; std::_Adl_verify_range<CInstanceBase::SEffectDamage * *,CInstanceBase::SEffectDamage * *>
PUBLIC	??$construct_at@PAU?$_Tree_node@KPAX@std@@ABQAU12@@std@@YAPAPAU?$_Tree_node@KPAX@0@QAPAU10@ABQAU10@@Z ; std::construct_at<std::_Tree_node<unsigned long,void *> *,std::_Tree_node<unsigned long,void *> * const &>
PUBLIC	??$forward@ABQAU?$_Tree_node@KPAX@std@@@std@@YAABQAU?$_Tree_node@KPAX@0@ABQAU10@@Z ; std::forward<std::_Tree_node<unsigned long,void *> * const &>
PUBLIC	??$construct_at@PAU?$_Tree_node@U?$pair@$$CBEV?$array@E$02@std@@@std@@PAX@std@@ABQAU12@@std@@YAPAPAU?$_Tree_node@U?$pair@$$CBEV?$array@E$02@std@@@std@@PAX@0@QAPAU10@ABQAU10@@Z ; std::construct_at<std::_Tree_node<std::pair<unsigned char const ,std::array<unsigned char,3> >,void *> *,std::_Tree_node<std::pair<unsigned char const ,std::array<unsigned char,3> >,void *> * const &>
PUBLIC	??$forward@ABQAU?$_Tree_node@U?$pair@$$CBEV?$array@E$02@std@@@std@@PAX@std@@@std@@YAABQAU?$_Tree_node@U?$pair@$$CBEV?$array@E$02@std@@@std@@PAX@0@ABQAU10@@Z ; std::forward<std::_Tree_node<std::pair<unsigned char const ,std::array<unsigned char,3> >,void *> * const &>
PUBLIC	??$addressof@PAU?$_Tree_node@U?$pair@$$CBEV?$array@E$02@std@@@std@@PAX@std@@@std@@YAPAPAU?$_Tree_node@U?$pair@$$CBEV?$array@E$02@std@@@std@@PAX@0@AAPAU10@@Z ; std::addressof<std::_Tree_node<std::pair<unsigned char const ,std::array<unsigned char,3> >,void *> *>
PUBLIC	??$construct_at@PAU?$_Tree_node@U?$pair@$$CBEPBD@std@@PAX@std@@ABQAU12@@std@@YAPAPAU?$_Tree_node@U?$pair@$$CBEPBD@std@@PAX@0@QAPAU10@ABQAU10@@Z ; std::construct_at<std::_Tree_node<std::pair<unsigned char const ,char const *>,void *> *,std::_Tree_node<std::pair<unsigned char const ,char const *>,void *> * const &>
PUBLIC	??$forward@ABQAU?$_Tree_node@U?$pair@$$CBEPBD@std@@PAX@std@@@std@@YAABQAU?$_Tree_node@U?$pair@$$CBEPBD@std@@PAX@0@ABQAU10@@Z ; std::forward<std::_Tree_node<std::pair<unsigned char const ,char const *>,void *> * const &>
PUBLIC	??$addressof@PAU?$_Tree_node@U?$pair@$$CBEPBD@std@@PAX@std@@@std@@YAPAPAU?$_Tree_node@U?$pair@$$CBEPBD@std@@PAX@0@AAPAU10@@Z ; std::addressof<std::_Tree_node<std::pair<unsigned char const ,char const *>,void *> *>
PUBLIC	??$construct_at@PAU?$_Tree_node@U?$pair@$$CBEV?$map@EV?$vector@EV?$allocator@E@std@@@std@@U?$less@E@2@V?$allocator@U?$pair@$$CBEV?$vector@EV?$allocator@E@std@@@std@@@std@@@2@@std@@@std@@PAX@std@@ABQAU12@@std@@YAPAPAU?$_Tree_node@U?$pair@$$CBEV?$map@EV?$vector@EV?$allocator@E@std@@@std@@U?$less@E@2@V?$allocator@U?$pair@$$CBEV?$vector@EV?$allocator@E@std@@@std@@@std@@@2@@std@@@std@@PAX@0@QAPAU10@ABQAU10@@Z ; std::construct_at<std::_Tree_node<std::pair<unsigned char const ,std::map<unsigned char,std::vector<unsigned char,std::allocator<unsigned char> >,std::less<unsigned char>,std::allocator<std::pair<unsigned char const ,std::vector<unsigned char,std::allocator<unsigned char> > > > > >,void *> *,std::_Tree_node<std::pair<unsigned char const ,std::map<unsigned char,std::vector<unsigned char,std::allocator<unsigned char> >,std::less<unsigned char>,std::allocator<std::pair<unsigned char const ,std::vector<unsigned char,std::allocator<unsigned char> > > > > >,void *> * const &>
PUBLIC	??$forward@ABQAU?$_Tree_node@U?$pair@$$CBEV?$map@EV?$vector@EV?$allocator@E@std@@@std@@U?$less@E@2@V?$allocator@U?$pair@$$CBEV?$vector@EV?$allocator@E@std@@@std@@@std@@@2@@std@@@std@@PAX@std@@@std@@YAABQAU?$_Tree_node@U?$pair@$$CBEV?$map@EV?$vector@EV?$allocator@E@std@@@std@@U?$less@E@2@V?$allocator@U?$pair@$$CBEV?$vector@EV?$allocator@E@std@@@std@@@std@@@2@@std@@@std@@PAX@0@ABQAU10@@Z ; std::forward<std::_Tree_node<std::pair<unsigned char const ,std::map<unsigned char,std::vector<unsigned char,std::allocator<unsigned char> >,std::less<unsigned char>,std::allocator<std::pair<unsigned char const ,std::vector<unsigned char,std::allocator<unsigned char> > > > > >,void *> * const &>
PUBLIC	??$addressof@PAU?$_Tree_node@U?$pair@$$CBEV?$map@EV?$vector@EV?$allocator@E@std@@@std@@U?$less@E@2@V?$allocator@U?$pair@$$CBEV?$vector@EV?$allocator@E@std@@@std@@@std@@@2@@std@@@std@@PAX@std@@@std@@YAPAPAU?$_Tree_node@U?$pair@$$CBEV?$map@EV?$vector@EV?$allocator@E@std@@@std@@U?$less@E@2@V?$allocator@U?$pair@$$CBEV?$vector@EV?$allocator@E@std@@@std@@@std@@@2@@std@@@std@@PAX@0@AAPAU10@@Z ; std::addressof<std::_Tree_node<std::pair<unsigned char const ,std::map<unsigned char,std::vector<unsigned char,std::allocator<unsigned char> >,std::less<unsigned char>,std::allocator<std::pair<unsigned char const ,std::vector<unsigned char,std::allocator<unsigned char> > > > > >,void *> *>
PUBLIC	??$construct_at@PAU?$_Tree_node@U?$pair@$$CBEV?$vector@EV?$allocator@E@std@@@std@@@std@@PAX@std@@ABQAU12@@std@@YAPAPAU?$_Tree_node@U?$pair@$$CBEV?$vector@EV?$allocator@E@std@@@std@@@std@@PAX@0@QAPAU10@ABQAU10@@Z ; std::construct_at<std::_Tree_node<std::pair<unsigned char const ,std::vector<unsigned char,std::allocator<unsigned char> > >,void *> *,std::_Tree_node<std::pair<unsigned char const ,std::vector<unsigned char,std::allocator<unsigned char> > >,void *> * const &>
PUBLIC	??$forward@ABQAU?$_Tree_node@U?$pair@$$CBEV?$vector@EV?$allocator@E@std@@@std@@@std@@PAX@std@@@std@@YAABQAU?$_Tree_node@U?$pair@$$CBEV?$vector@EV?$allocator@E@std@@@std@@@std@@PAX@0@ABQAU10@@Z ; std::forward<std::_Tree_node<std::pair<unsigned char const ,std::vector<unsigned char,std::allocator<unsigned char> > >,void *> * const &>
PUBLIC	??$addressof@PAU?$_Tree_node@U?$pair@$$CBEV?$vector@EV?$allocator@E@std@@@std@@@std@@PAX@std@@@std@@YAPAPAU?$_Tree_node@U?$pair@$$CBEV?$vector@EV?$allocator@E@std@@@std@@@std@@PAX@0@AAPAU10@@Z ; std::addressof<std::_Tree_node<std::pair<unsigned char const ,std::vector<unsigned char,std::allocator<unsigned char> > >,void *> *>
PUBLIC	??$construct_at@PAU?$_Tree_node@U?$pair@$$CBV?$basic_string@DU?$char_traits@D@std@@V?$allocator@D@2@@std@@V?$vector@EV?$allocator@E@std@@@2@@std@@PAX@std@@ABQAU12@@std@@YAPAPAU?$_Tree_node@U?$pair@$$CBV?$basic_string@DU?$char_traits@D@std@@V?$allocator@D@2@@std@@V?$vector@EV?$allocator@E@std@@@2@@std@@PAX@0@QAPAU10@ABQAU10@@Z ; std::construct_at<std::_Tree_node<std::pair<std::basic_string<char,std::char_traits<char>,std::allocator<char> > const ,std::vector<unsigned char,std::allocator<unsigned char> > >,void *> *,std::_Tree_node<std::pair<std::basic_string<char,std::char_traits<char>,std::allocator<char> > const ,std::vector<unsigned char,std::allocator<unsigned char> > >,void *> * const &>
PUBLIC	??$forward@ABQAU?$_Tree_node@U?$pair@$$CBV?$basic_string@DU?$char_traits@D@std@@V?$allocator@D@2@@std@@V?$vector@EV?$allocator@E@std@@@2@@std@@PAX@std@@@std@@YAABQAU?$_Tree_node@U?$pair@$$CBV?$basic_string@DU?$char_traits@D@std@@V?$allocator@D@2@@std@@V?$vector@EV?$allocator@E@std@@@2@@std@@PAX@0@ABQAU10@@Z ; std::forward<std::_Tree_node<std::pair<std::basic_string<char,std::char_traits<char>,std::allocator<char> > const ,std::vector<unsigned char,std::allocator<unsigned char> > >,void *> * const &>
PUBLIC	??$addressof@PAU?$_Tree_node@U?$pair@$$CBV?$basic_string@DU?$char_traits@D@std@@V?$allocator@D@2@@std@@V?$vector@EV?$allocator@E@std@@@2@@std@@PAX@std@@@std@@YAPAPAU?$_Tree_node@U?$pair@$$CBV?$basic_string@DU?$char_traits@D@std@@V?$allocator@D@2@@std@@V?$vector@EV?$allocator@E@std@@@2@@std@@PAX@0@AAPAU10@@Z ; std::addressof<std::_Tree_node<std::pair<std::basic_string<char,std::char_traits<char>,std::allocator<char> > const ,std::vector<unsigned char,std::allocator<unsigned char> > >,void *> *>
PUBLIC	??$construct_at@PAU?$_Tree_node@U?$pair@$$CBHV?$basic_string@DU?$char_traits@D@std@@V?$allocator@D@2@@std@@@std@@PAX@std@@ABQAU12@@std@@YAPAPAU?$_Tree_node@U?$pair@$$CBHV?$basic_string@DU?$char_traits@D@std@@V?$allocator@D@2@@std@@@std@@PAX@0@QAPAU10@ABQAU10@@Z ; std::construct_at<std::_Tree_node<std::pair<int const ,std::basic_string<char,std::char_traits<char>,std::allocator<char> > >,void *> *,std::_Tree_node<std::pair<int const ,std::basic_string<char,std::char_traits<char>,std::allocator<char> > >,void *> * const &>
PUBLIC	??$forward@ABQAU?$_Tree_node@U?$pair@$$CBHV?$basic_string@DU?$char_traits@D@std@@V?$allocator@D@2@@std@@@std@@PAX@std@@@std@@YAABQAU?$_Tree_node@U?$pair@$$CBHV?$basic_string@DU?$char_traits@D@std@@V?$allocator@D@2@@std@@@std@@PAX@0@ABQAU10@@Z ; std::forward<std::_Tree_node<std::pair<int const ,std::basic_string<char,std::char_traits<char>,std::allocator<char> > >,void *> * const &>
PUBLIC	??$construct@EAAE@?$_Default_allocator_traits@V?$allocator@E@std@@@std@@SAXAAV?$allocator@E@1@QAEAAE@Z ; std::_Default_allocator_traits<std::allocator<unsigned char> >::construct<unsigned char,unsigned char &>
PUBLIC	??$forward@AAE@std@@YAAAEAAE@Z			; std::forward<unsigned char &>
PUBLIC	??$_Construct_in_place@PAU?$_Tree_node@U?$pair@$$CBEV?$array@E$02@std@@@std@@PAX@std@@AAPAU12@@std@@YAXAAPAU?$_Tree_node@U?$pair@$$CBEV?$array@E$02@std@@@std@@PAX@0@0@Z ; std::_Construct_in_place<std::_Tree_node<std::pair<unsigned char const ,std::array<unsigned char,3> >,void *> *,std::_Tree_node<std::pair<unsigned char const ,std::array<unsigned char,3> >,void *> * &>
PUBLIC	??$construct@U?$pair@$$CBEV?$array@E$02@std@@@std@@ABU12@@?$_Default_allocator_traits@V?$allocator@U?$_Tree_node@U?$pair@$$CBEV?$array@E$02@std@@@std@@PAX@std@@@std@@@std@@SAXAAV?$allocator@U?$_Tree_node@U?$pair@$$CBEV?$array@E$02@std@@@std@@PAX@std@@@1@QAU?$pair@$$CBEV?$array@E$02@std@@@1@ABU31@@Z ; std::_Default_allocator_traits<std::allocator<std::_Tree_node<std::pair<unsigned char const ,std::array<unsigned char,3> >,void *> > >::construct<std::pair<unsigned char const ,std::array<unsigned char,3> >,std::pair<unsigned char const ,std::array<unsigned char,3> > const &>
PUBLIC	??$_Lower_bound_duplicate@E@?$_Tree@V?$_Tmap_traits@EV?$array@E$02@std@@U?$less@E@2@V?$allocator@U?$pair@$$CBEV?$array@E$02@std@@@std@@@2@$0A@@std@@@std@@IBE_NQAU?$_Tree_node@U?$pair@$$CBEV?$array@E$02@std@@@std@@PAX@1@ABE@Z ; std::_Tree<std::_Tmap_traits<unsigned char,std::array<unsigned char,3>,std::less<unsigned char>,std::allocator<std::pair<unsigned char const ,std::array<unsigned char,3> > >,0> >::_Lower_bound_duplicate<unsigned char>
PUBLIC	??$_Find_lower_bound@E@?$_Tree@V?$_Tmap_traits@EV?$array@E$02@std@@U?$less@E@2@V?$allocator@U?$pair@$$CBEV?$array@E$02@std@@@std@@@2@$0A@@std@@@std@@IBE?AU?$_Tree_find_result@PAU?$_Tree_node@U?$pair@$$CBEV?$array@E$02@std@@@std@@PAX@std@@@1@ABE@Z ; std::_Tree<std::_Tmap_traits<unsigned char,std::array<unsigned char,3>,std::less<unsigned char>,std::allocator<std::pair<unsigned char const ,std::array<unsigned char,3> > >,0> >::_Find_lower_bound<unsigned char>
PUBLIC	??$_Kfn@$$CBEV?$array@E$02@std@@@?$_Tmap_traits@EV?$array@E$02@std@@U?$less@E@2@V?$allocator@U?$pair@$$CBEV?$array@E$02@std@@@std@@@2@$0A@@std@@SAABEABU?$pair@$$CBEV?$array@E$02@std@@@1@@Z ; std::_Tmap_traits<unsigned char,std::array<unsigned char,3>,std::less<unsigned char>,std::allocator<std::pair<unsigned char const ,std::array<unsigned char,3> > >,0>::_Kfn<unsigned char const ,std::array<unsigned char,3> >
PUBLIC	??$_Construct_in_place@PAU?$_Tree_node@U?$pair@$$CBEPBD@std@@PAX@std@@AAPAU12@@std@@YAXAAPAU?$_Tree_node@U?$pair@$$CBEPBD@std@@PAX@0@0@Z ; std::_Construct_in_place<std::_Tree_node<std::pair<unsigned char const ,char const *>,void *> *,std::_Tree_node<std::pair<unsigned char const ,char const *>,void *> * &>
PUBLIC	??$construct@U?$pair@$$CBEPBD@std@@ABU12@@?$_Default_allocator_traits@V?$allocator@U?$_Tree_node@U?$pair@$$CBEPBD@std@@PAX@std@@@std@@@std@@SAXAAV?$allocator@U?$_Tree_node@U?$pair@$$CBEPBD@std@@PAX@std@@@1@QAU?$pair@$$CBEPBD@1@ABU31@@Z ; std::_Default_allocator_traits<std::allocator<std::_Tree_node<std::pair<unsigned char const ,char const *>,void *> > >::construct<std::pair<unsigned char const ,char const *>,std::pair<unsigned char const ,char const *> const &>
PUBLIC	??$_Lower_bound_duplicate@E@?$_Tree@V?$_Tmap_traits@EPBDU?$less@E@std@@V?$allocator@U?$pair@$$CBEPBD@std@@@2@$0A@@std@@@std@@IBE_NQAU?$_Tree_node@U?$pair@$$CBEPBD@std@@PAX@1@ABE@Z ; std::_Tree<std::_Tmap_traits<unsigned char,char const *,std::less<unsigned char>,std::allocator<std::pair<unsigned char const ,char const *> >,0> >::_Lower_bound_duplicate<unsigned char>
PUBLIC	??$_Find_lower_bound@E@?$_Tree@V?$_Tmap_traits@EPBDU?$less@E@std@@V?$allocator@U?$pair@$$CBEPBD@std@@@2@$0A@@std@@@std@@IBE?AU?$_Tree_find_result@PAU?$_Tree_node@U?$pair@$$CBEPBD@std@@PAX@std@@@1@ABE@Z ; std::_Tree<std::_Tmap_traits<unsigned char,char const *,std::less<unsigned char>,std::allocator<std::pair<unsigned char const ,char const *> >,0> >::_Find_lower_bound<unsigned char>
PUBLIC	??$_Kfn@$$CBEPBD@?$_Tmap_traits@EPBDU?$less@E@std@@V?$allocator@U?$pair@$$CBEPBD@std@@@2@$0A@@std@@SAABEABU?$pair@$$CBEPBD@1@@Z ; std::_Tmap_traits<unsigned char,char const *,std::less<unsigned char>,std::allocator<std::pair<unsigned char const ,char const *> >,0>::_Kfn<unsigned char const ,char const *>
PUBLIC	??$_Copy_or_move@$0A@U?$pair@$$CBEV?$vector@EV?$allocator@E@std@@@std@@@std@@@?$_Tree@V?$_Tmap_traits@EV?$vector@EV?$allocator@E@std@@@std@@U?$less@E@2@V?$allocator@U?$pair@$$CBEV?$vector@EV?$allocator@E@std@@@std@@@std@@@2@$0A@@std@@@std@@IAEPAU?$_Tree_node@U?$pair@$$CBEV?$vector@EV?$allocator@E@std@@@std@@@std@@PAX@1@AAU?$pair@$$CBEV?$vector@EV?$allocator@E@std@@@std@@@1@@Z ; std::_Tree<std::_Tmap_traits<unsigned char,std::vector<unsigned char,std::allocator<unsigned char> >,std::less<unsigned char>,std::allocator<std::pair<unsigned char const ,std::vector<unsigned char,std::allocator<unsigned char> > > >,0> >::_Copy_or_move<0,std::pair<unsigned char const ,std::vector<unsigned char,std::allocator<unsigned char> > > >
PUBLIC	??$_Construct_in_place@PAU?$_Tree_node@U?$pair@$$CBEV?$map@EV?$vector@EV?$allocator@E@std@@@std@@U?$less@E@2@V?$allocator@U?$pair@$$CBEV?$vector@EV?$allocator@E@std@@@std@@@std@@@2@@std@@@std@@PAX@std@@AAPAU12@@std@@YAXAAPAU?$_Tree_node@U?$pair@$$CBEV?$map@EV?$vector@EV?$allocator@E@std@@@std@@U?$less@E@2@V?$allocator@U?$pair@$$CBEV?$vector@EV?$allocator@E@std@@@std@@@std@@@2@@std@@@std@@PAX@0@0@Z ; std::_Construct_in_place<std::_Tree_node<std::pair<unsigned char const ,std::map<unsigned char,std::vector<unsigned char,std::allocator<unsigned char> >,std::less<unsigned char>,std::allocator<std::pair<unsigned char const ,std::vector<unsigned char,std::allocator<unsigned char> > > > > >,void *> *,std::_Tree_node<std::pair<unsigned char const ,std::map<unsigned char,std::vector<unsigned char,std::allocator<unsigned char> >,std::less<unsigned char>,std::allocator<std::pair<unsigned char const ,std::vector<unsigned char,std::allocator<unsigned char> > > > > >,void *> * &>
PUBLIC	??$construct@U?$pair@$$CBEV?$map@EV?$vector@EV?$allocator@E@std@@@std@@U?$less@E@2@V?$allocator@U?$pair@$$CBEV?$vector@EV?$allocator@E@std@@@std@@@std@@@2@@std@@@std@@ABU12@@?$_Default_allocator_traits@V?$allocator@U?$_Tree_node@U?$pair@$$CBEV?$map@EV?$vector@EV?$allocator@E@std@@@std@@U?$less@E@2@V?$allocator@U?$pair@$$CBEV?$vector@EV?$allocator@E@std@@@std@@@std@@@2@@std@@@std@@PAX@std@@@std@@@std@@SAXAAV?$allocator@U?$_Tree_node@U?$pair@$$CBEV?$map@EV?$vector@EV?$allocator@E@std@@@std@@U?$less@E@2@V?$allocator@U?$pair@$$CBEV?$vector@EV?$allocator@E@std@@@std@@@std@@@2@@std@@@std@@PAX@std@@@1@QAU?$pair@$$CBEV?$map@EV?$vector@EV?$allocator@E@std@@@std@@U?$less@E@2@V?$allocator@U?$pair@$$CBEV?$vector@EV?$allocator@E@std@@@std@@@std@@@2@@std@@@1@ABU31@@Z ; std::_Default_allocator_traits<std::allocator<std::_Tree_node<std::pair<unsigned char const ,std::map<unsigned char,std::vector<unsigned char,std::allocator<unsigned char> >,std::less<unsigned char>,std::allocator<std::pair<unsigned char const ,std::vector<unsigned char,std::allocator<unsigned char> > > > > >,void *> > >::construct<std::pair<unsigned char const ,std::map<unsigned char,std::vector<unsigned char,std::allocator<unsigned char> >,std::less<unsigned char>,std::allocator<std::pair<unsigned char const ,std::vector<unsigned char,std::allocator<unsigned char> > > > > >,std::pair<unsigned char const ,std::map<unsigned char,std::vector<unsigned char,std::allocator<unsigned char> >,std::less<unsigned char>,std::allocator<std::pair<unsigned char const ,std::vector<unsigned char,std::allocator<unsigned char> > > > > > const &>
PUBLIC	??$_Lower_bound_duplicate@E@?$_Tree@V?$_Tmap_traits@EV?$map@EV?$vector@EV?$allocator@E@std@@@std@@U?$less@E@2@V?$allocator@U?$pair@$$CBEV?$vector@EV?$allocator@E@std@@@std@@@std@@@2@@std@@U?$less@E@2@V?$allocator@U?$pair@$$CBEV?$map@EV?$vector@EV?$allocator@E@std@@@std@@U?$less@E@2@V?$allocator@U?$pair@$$CBEV?$vector@EV?$allocator@E@std@@@std@@@std@@@2@@std@@@std@@@2@$0A@@std@@@std@@IBE_NQAU?$_Tree_node@U?$pair@$$CBEV?$map@EV?$vector@EV?$allocator@E@std@@@std@@U?$less@E@2@V?$allocator@U?$pair@$$CBEV?$vector@EV?$allocator@E@std@@@std@@@std@@@2@@std@@@std@@PAX@1@ABE@Z ; std::_Tree<std::_Tmap_traits<unsigned char,std::map<unsigned char,std::vector<unsigned char,std::allocator<unsigned char> >,std::less<unsigned char>,std::allocator<std::pair<unsigned char const ,std::vector<unsigned char,std::allocator<unsigned char> > > > >,std::less<unsigned char>,std::allocator<std::pair<unsigned char const ,std::map<unsigned char,std::vector<unsigned char,std::allocator<unsigned char> >,std::less<unsigned char>,std::allocator<std::pair<unsigned char const ,std::vector<unsigned char,std::allocator<unsigned char> > > > > > >,0> >::_Lower_bound_duplicate<unsigned char>
PUBLIC	??$_Find_lower_bound@E@?$_Tree@V?$_Tmap_traits@EV?$map@EV?$vector@EV?$allocator@E@std@@@std@@U?$less@E@2@V?$allocator@U?$pair@$$CBEV?$vector@EV?$allocator@E@std@@@std@@@std@@@2@@std@@U?$less@E@2@V?$allocator@U?$pair@$$CBEV?$map@EV?$vector@EV?$allocator@E@std@@@std@@U?$less@E@2@V?$allocator@U?$pair@$$CBEV?$vector@EV?$allocator@E@std@@@std@@@std@@@2@@std@@@std@@@2@$0A@@std@@@std@@IBE?AU?$_Tree_find_result@PAU?$_Tree_node@U?$pair@$$CBEV?$map@EV?$vector@EV?$allocator@E@std@@@std@@U?$less@E@2@V?$allocator@U?$pair@$$CBEV?$vector@EV?$allocator@E@std@@@std@@@std@@@2@@std@@@std@@PAX@std@@@1@ABE@Z ; std::_Tree<std::_Tmap_traits<unsigned char,std::map<unsigned char,std::vector<unsigned char,std::allocator<unsigned char> >,std::less<unsigned char>,std::allocator<std::pair<unsigned char const ,std::vector<unsigned char,std::allocator<unsigned char> > > > >,std::less<unsigned char>,std::allocator<std::pair<unsigned char const ,std::map<unsigned char,std::vector<unsigned char,std::allocator<unsigned char> >,std::less<unsigned char>,std::allocator<std::pair<unsigned char const ,std::vector<unsigned char,std::allocator<unsigned char> > > > > > >,0> >::_Find_lower_bound<unsigned char>
PUBLIC	??$_Kfn@$$CBEV?$map@EV?$vector@EV?$allocator@E@std@@@std@@U?$less@E@2@V?$allocator@U?$pair@$$CBEV?$vector@EV?$allocator@E@std@@@std@@@std@@@2@@std@@@?$_Tmap_traits@EV?$map@EV?$vector@EV?$allocator@E@std@@@std@@U?$less@E@2@V?$allocator@U?$pair@$$CBEV?$vector@EV?$allocator@E@std@@@std@@@std@@@2@@std@@U?$less@E@2@V?$allocator@U?$pair@$$CBEV?$map@EV?$vector@EV?$allocator@E@std@@@std@@U?$less@E@2@V?$allocator@U?$pair@$$CBEV?$vector@EV?$allocator@E@std@@@std@@@std@@@2@@std@@@std@@@2@$0A@@std@@SAABEABU?$pair@$$CBEV?$map@EV?$vector@EV?$allocator@E@std@@@std@@U?$less@E@2@V?$allocator@U?$pair@$$CBEV?$vector@EV?$allocator@E@std@@@std@@@std@@@2@@std@@@1@@Z ; std::_Tmap_traits<unsigned char,std::map<unsigned char,std::vector<unsigned char,std::allocator<unsigned char> >,std::less<unsigned char>,std::allocator<std::pair<unsigned char const ,std::vector<unsigned char,std::allocator<unsigned char> > > > >,std::less<unsigned char>,std::allocator<std::pair<unsigned char const ,std::map<unsigned char,std::vector<unsigned char,std::allocator<unsigned char> >,std::less<unsigned char>,std::allocator<std::pair<unsigned char const ,std::vector<unsigned char,std::allocator<unsigned char> > > > > > >,0>::_Kfn<unsigned char const ,std::map<unsigned char,std::vector<unsigned char,std::allocator<unsigned char> >,std::less<unsigned char>,std::allocator<std::pair<unsigned char const ,std::vector<unsigned char,std::allocator<unsigned char> > > > > >
PUBLIC	??$_Construct_in_place@PAU?$_Tree_node@U?$pair@$$CBEV?$vector@EV?$allocator@E@std@@@std@@@std@@PAX@std@@AAPAU12@@std@@YAXAAPAU?$_Tree_node@U?$pair@$$CBEV?$vector@EV?$allocator@E@std@@@std@@@std@@PAX@0@0@Z ; std::_Construct_in_place<std::_Tree_node<std::pair<unsigned char const ,std::vector<unsigned char,std::allocator<unsigned char> > >,void *> *,std::_Tree_node<std::pair<unsigned char const ,std::vector<unsigned char,std::allocator<unsigned char> > >,void *> * &>
PUBLIC	??$construct@U?$pair@$$CBEV?$vector@EV?$allocator@E@std@@@std@@@std@@ABU12@@?$_Default_allocator_traits@V?$allocator@U?$_Tree_node@U?$pair@$$CBEV?$vector@EV?$allocator@E@std@@@std@@@std@@PAX@std@@@std@@@std@@SAXAAV?$allocator@U?$_Tree_node@U?$pair@$$CBEV?$vector@EV?$allocator@E@std@@@std@@@std@@PAX@std@@@1@QAU?$pair@$$CBEV?$vector@EV?$allocator@E@std@@@std@@@1@ABU31@@Z ; std::_Default_allocator_traits<std::allocator<std::_Tree_node<std::pair<unsigned char const ,std::vector<unsigned char,std::allocator<unsigned char> > >,void *> > >::construct<std::pair<unsigned char const ,std::vector<unsigned char,std::allocator<unsigned char> > >,std::pair<unsigned char const ,std::vector<unsigned char,std::allocator<unsigned char> > > const &>
PUBLIC	??$_Lower_bound_duplicate@E@?$_Tree@V?$_Tmap_traits@EV?$vector@EV?$allocator@E@std@@@std@@U?$less@E@2@V?$allocator@U?$pair@$$CBEV?$vector@EV?$allocator@E@std@@@std@@@std@@@2@$0A@@std@@@std@@IBE_NQAU?$_Tree_node@U?$pair@$$CBEV?$vector@EV?$allocator@E@std@@@std@@@std@@PAX@1@ABE@Z ; std::_Tree<std::_Tmap_traits<unsigned char,std::vector<unsigned char,std::allocator<unsigned char> >,std::less<unsigned char>,std::allocator<std::pair<unsigned char const ,std::vector<unsigned char,std::allocator<unsigned char> > > >,0> >::_Lower_bound_duplicate<unsigned char>
PUBLIC	??$_Find_lower_bound@E@?$_Tree@V?$_Tmap_traits@EV?$vector@EV?$allocator@E@std@@@std@@U?$less@E@2@V?$allocator@U?$pair@$$CBEV?$vector@EV?$allocator@E@std@@@std@@@std@@@2@$0A@@std@@@std@@IBE?AU?$_Tree_find_result@PAU?$_Tree_node@U?$pair@$$CBEV?$vector@EV?$allocator@E@std@@@std@@@std@@PAX@std@@@1@ABE@Z ; std::_Tree<std::_Tmap_traits<unsigned char,std::vector<unsigned char,std::allocator<unsigned char> >,std::less<unsigned char>,std::allocator<std::pair<unsigned char const ,std::vector<unsigned char,std::allocator<unsigned char> > > >,0> >::_Find_lower_bound<unsigned char>
PUBLIC	??$_Kfn@$$CBEV?$vector@EV?$allocator@E@std@@@std@@@?$_Tmap_traits@EV?$vector@EV?$allocator@E@std@@@std@@U?$less@E@2@V?$allocator@U?$pair@$$CBEV?$vector@EV?$allocator@E@std@@@std@@@std@@@2@$0A@@std@@SAABEABU?$pair@$$CBEV?$vector@EV?$allocator@E@std@@@std@@@1@@Z ; std::_Tmap_traits<unsigned char,std::vector<unsigned char,std::allocator<unsigned char> >,std::less<unsigned char>,std::allocator<std::pair<unsigned char const ,std::vector<unsigned char,std::allocator<unsigned char> > > >,0>::_Kfn<unsigned char const ,std::vector<unsigned char,std::allocator<unsigned char> > >
PUBLIC	??$_Construct_in_place@PAU?$_Tree_node@U?$pair@$$CBV?$basic_string@DU?$char_traits@D@std@@V?$allocator@D@2@@std@@V?$vector@EV?$allocator@E@std@@@2@@std@@PAX@std@@AAPAU12@@std@@YAXAAPAU?$_Tree_node@U?$pair@$$CBV?$basic_string@DU?$char_traits@D@std@@V?$allocator@D@2@@std@@V?$vector@EV?$allocator@E@std@@@2@@std@@PAX@0@0@Z ; std::_Construct_in_place<std::_Tree_node<std::pair<std::basic_string<char,std::char_traits<char>,std::allocator<char> > const ,std::vector<unsigned char,std::allocator<unsigned char> > >,void *> *,std::_Tree_node<std::pair<std::basic_string<char,std::char_traits<char>,std::allocator<char> > const ,std::vector<unsigned char,std::allocator<unsigned char> > >,void *> * &>
PUBLIC	??$construct@U?$pair@$$CBV?$basic_string@DU?$char_traits@D@std@@V?$allocator@D@2@@std@@V?$vector@EV?$allocator@E@std@@@2@@std@@ABU12@@?$_Default_allocator_traits@V?$allocator@U?$_Tree_node@U?$pair@$$CBV?$basic_string@DU?$char_traits@D@std@@V?$allocator@D@2@@std@@V?$vector@EV?$allocator@E@std@@@2@@std@@PAX@std@@@std@@@std@@SAXAAV?$allocator@U?$_Tree_node@U?$pair@$$CBV?$basic_string@DU?$char_traits@D@std@@V?$allocator@D@2@@std@@V?$vector@EV?$allocator@E@std@@@2@@std@@PAX@std@@@1@QAU?$pair@$$CBV?$basic_string@DU?$char_traits@D@std@@V?$allocator@D@2@@std@@V?$vector@EV?$allocator@E@std@@@2@@1@ABU31@@Z ; std::_Default_allocator_traits<std::allocator<std::_Tree_node<std::pair<std::basic_string<char,std::char_traits<char>,std::allocator<char> > const ,std::vector<unsigned char,std::allocator<unsigned char> > >,void *> > >::construct<std::pair<std::basic_string<char,std::char_traits<char>,std::allocator<char> > const ,std::vector<unsigned char,std::allocator<unsigned char> > >,std::pair<std::basic_string<char,std::char_traits<char>,std::allocator<char> > const ,std::vector<unsigned char,std::allocator<unsigned char> > > const &>
PUBLIC	??$_Lower_bound_duplicate@V?$basic_string@DU?$char_traits@D@std@@V?$allocator@D@2@@std@@@?$_Tree@V?$_Tmap_traits@V?$basic_string@DU?$char_traits@D@std@@V?$allocator@D@2@@std@@V?$vector@EV?$allocator@E@std@@@2@U?$less@V?$basic_string@DU?$char_traits@D@std@@V?$allocator@D@2@@std@@@2@V?$allocator@U?$pair@$$CBV?$basic_string@DU?$char_traits@D@std@@V?$allocator@D@2@@std@@V?$vector@EV?$allocator@E@std@@@2@@std@@@2@$0A@@std@@@std@@IBE_NQAU?$_Tree_node@U?$pair@$$CBV?$basic_string@DU?$char_traits@D@std@@V?$allocator@D@2@@std@@V?$vector@EV?$allocator@E@std@@@2@@std@@PAX@1@ABV?$basic_string@DU?$char_traits@D@std@@V?$allocator@D@2@@1@@Z ; std::_Tree<std::_Tmap_traits<std::basic_string<char,std::char_traits<char>,std::allocator<char> >,std::vector<unsigned char,std::allocator<unsigned char> >,std::less<std::basic_string<char,std::char_traits<char>,std::allocator<char> > >,std::allocator<std::pair<std::basic_string<char,std::char_traits<char>,std::allocator<char> > const ,std::vector<unsigned char,std::allocator<unsigned char> > > >,0> >::_Lower_bound_duplicate<std::basic_string<char,std::char_traits<char>,std::allocator<char> > >
PUBLIC	??$_Find_lower_bound@V?$basic_string@DU?$char_traits@D@std@@V?$allocator@D@2@@std@@@?$_Tree@V?$_Tmap_traits@V?$basic_string@DU?$char_traits@D@std@@V?$allocator@D@2@@std@@V?$vector@EV?$allocator@E@std@@@2@U?$less@V?$basic_string@DU?$char_traits@D@std@@V?$allocator@D@2@@std@@@2@V?$allocator@U?$pair@$$CBV?$basic_string@DU?$char_traits@D@std@@V?$allocator@D@2@@std@@V?$vector@EV?$allocator@E@std@@@2@@std@@@2@$0A@@std@@@std@@IBE?AU?$_Tree_find_result@PAU?$_Tree_node@U?$pair@$$CBV?$basic_string@DU?$char_traits@D@std@@V?$allocator@D@2@@std@@V?$vector@EV?$allocator@E@std@@@2@@std@@PAX@std@@@1@ABV?$basic_string@DU?$char_traits@D@std@@V?$allocator@D@2@@1@@Z ; std::_Tree<std::_Tmap_traits<std::basic_string<char,std::char_traits<char>,std::allocator<char> >,std::vector<unsigned char,std::allocator<unsigned char> >,std::less<std::basic_string<char,std::char_traits<char>,std::allocator<char> > >,std::allocator<std::pair<std::basic_string<char,std::char_traits<char>,std::allocator<char> > const ,std::vector<unsigned char,std::allocator<unsigned char> > > >,0> >::_Find_lower_bound<std::basic_string<char,std::char_traits<char>,std::allocator<char> > >
PUBLIC	??$_Kfn@$$CBV?$basic_string@DU?$char_traits@D@std@@V?$allocator@D@2@@std@@V?$vector@EV?$allocator@E@std@@@2@@?$_Tmap_traits@V?$basic_string@DU?$char_traits@D@std@@V?$allocator@D@2@@std@@V?$vector@EV?$allocator@E@std@@@2@U?$less@V?$basic_string@DU?$char_traits@D@std@@V?$allocator@D@2@@std@@@2@V?$allocator@U?$pair@$$CBV?$basic_string@DU?$char_traits@D@std@@V?$allocator@D@2@@std@@V?$vector@EV?$allocator@E@std@@@2@@std@@@2@$0A@@std@@SAABV?$basic_string@DU?$char_traits@D@std@@V?$allocator@D@2@@1@ABU?$pair@$$CBV?$basic_string@DU?$char_traits@D@std@@V?$allocator@D@2@@std@@V?$vector@EV?$allocator@E@std@@@2@@1@@Z ; std::_Tmap_traits<std::basic_string<char,std::char_traits<char>,std::allocator<char> >,std::vector<unsigned char,std::allocator<unsigned char> >,std::less<std::basic_string<char,std::char_traits<char>,std::allocator<char> > >,std::allocator<std::pair<std::basic_string<char,std::char_traits<char>,std::allocator<char> > const ,std::vector<unsigned char,std::allocator<unsigned char> > > >,0>::_Kfn<std::basic_string<char,std::char_traits<char>,std::allocator<char> > const ,std::vector<unsigned char,std::allocator<unsigned char> > >
PUBLIC	??$construct_at@V?$basic_string@DU?$char_traits@D@std@@V?$allocator@D@2@@std@@AAV12@@std@@YAPAV?$basic_string@DU?$char_traits@D@std@@V?$allocator@D@2@@0@QAV10@AAV10@@Z ; std::construct_at<std::basic_string<char,std::char_traits<char>,std::allocator<char> >,std::basic_string<char,std::char_traits<char>,std::allocator<char> > &>
PUBLIC	??$destroy_at@U?$pair@$$CBEV?$array@E$02@std@@@std@@@std@@YAXQAU?$pair@$$CBEV?$array@E$02@std@@@0@@Z ; std::destroy_at<std::pair<unsigned char const ,std::array<unsigned char,3> > >
PUBLIC	??$destroy_at@U?$pair@$$CBEPBD@std@@@std@@YAXQAU?$pair@$$CBEPBD@0@@Z ; std::destroy_at<std::pair<unsigned char const ,char const *> >
PUBLIC	??$destroy_at@U?$pair@$$CBEV?$map@EV?$vector@EV?$allocator@E@std@@@std@@U?$less@E@2@V?$allocator@U?$pair@$$CBEV?$vector@EV?$allocator@E@std@@@std@@@std@@@2@@std@@@std@@@std@@YAXQAU?$pair@$$CBEV?$map@EV?$vector@EV?$allocator@E@std@@@std@@U?$less@E@2@V?$allocator@U?$pair@$$CBEV?$vector@EV?$allocator@E@std@@@std@@@std@@@2@@std@@@0@@Z ; std::destroy_at<std::pair<unsigned char const ,std::map<unsigned char,std::vector<unsigned char,std::allocator<unsigned char> >,std::less<unsigned char>,std::allocator<std::pair<unsigned char const ,std::vector<unsigned char,std::allocator<unsigned char> > > > > > >
PUBLIC	??$destroy_at@U?$pair@$$CBEV?$vector@EV?$allocator@E@std@@@std@@@std@@@std@@YAXQAU?$pair@$$CBEV?$vector@EV?$allocator@E@std@@@std@@@0@@Z ; std::destroy_at<std::pair<unsigned char const ,std::vector<unsigned char,std::allocator<unsigned char> > > >
PUBLIC	??$destroy_at@U?$pair@$$CBV?$basic_string@DU?$char_traits@D@std@@V?$allocator@D@2@@std@@V?$vector@EV?$allocator@E@std@@@2@@std@@@std@@YAXQAU?$pair@$$CBV?$basic_string@DU?$char_traits@D@std@@V?$allocator@D@2@@std@@V?$vector@EV?$allocator@E@std@@@2@@0@@Z ; std::destroy_at<std::pair<std::basic_string<char,std::char_traits<char>,std::allocator<char> > const ,std::vector<unsigned char,std::allocator<unsigned char> > > >
PUBLIC	??1?$pair@$$CBHV?$basic_string@DU?$char_traits@D@std@@V?$allocator@D@2@@std@@@std@@QAE@XZ ; std::pair<int const ,std::basic_string<char,std::char_traits<char>,std::allocator<char> > >::~pair<int const ,std::basic_string<char,std::char_traits<char>,std::allocator<char> > >
PUBLIC	??$destroy_at@U?$pair@$$CBHV?$basic_string@DU?$char_traits@D@std@@V?$allocator@D@2@@std@@@std@@@std@@YAXQAU?$pair@$$CBHV?$basic_string@DU?$char_traits@D@std@@V?$allocator@D@2@@std@@@0@@Z ; std::destroy_at<std::pair<int const ,std::basic_string<char,std::char_traits<char>,std::allocator<char> > > >
PUBLIC	??$construct_at@PAU?$_Tree_node@U?$pair@$$CBHV?$basic_string@DU?$char_traits@D@std@@V?$allocator@D@2@@std@@@std@@PAX@std@@AAPAU12@@std@@YAPAPAU?$_Tree_node@U?$pair@$$CBHV?$basic_string@DU?$char_traits@D@std@@V?$allocator@D@2@@std@@@std@@PAX@0@QAPAU10@AAPAU10@@Z ; std::construct_at<std::_Tree_node<std::pair<int const ,std::basic_string<char,std::char_traits<char>,std::allocator<char> > >,void *> *,std::_Tree_node<std::pair<int const ,std::basic_string<char,std::char_traits<char>,std::allocator<char> > >,void *> * &>
PUBLIC	??$addressof@PAU?$_Tree_node@U?$pair@$$CBHV?$basic_string@DU?$char_traits@D@std@@V?$allocator@D@2@@std@@@std@@PAX@std@@@std@@YAPAPAU?$_Tree_node@U?$pair@$$CBHV?$basic_string@DU?$char_traits@D@std@@V?$allocator@D@2@@std@@@std@@PAX@0@AAPAU10@@Z ; std::addressof<std::_Tree_node<std::pair<int const ,std::basic_string<char,std::char_traits<char>,std::allocator<char> > >,void *> *>
PUBLIC	??$construct_at@U?$pair@$$CBHV?$basic_string@DU?$char_traits@D@std@@V?$allocator@D@2@@std@@@std@@U?$pair@HPBD@2@@std@@YAPAU?$pair@$$CBHV?$basic_string@DU?$char_traits@D@std@@V?$allocator@D@2@@std@@@0@QAU10@$$QAU?$pair@HPBD@0@@Z ; std::construct_at<std::pair<int const ,std::basic_string<char,std::char_traits<char>,std::allocator<char> > >,std::pair<int,char const *> >
PUBLIC	??1?$_Tree_temp_node_alloc@V?$allocator@U?$_Tree_node@U?$pair@$$CBEV?$array@E$02@std@@@std@@PAX@std@@@std@@@std@@QAE@XZ ; std::_Tree_temp_node_alloc<std::allocator<std::_Tree_node<std::pair<unsigned char const ,std::array<unsigned char,3> >,void *> > >::~_Tree_temp_node_alloc<std::allocator<std::_Tree_node<std::pair<unsigned char const ,std::array<unsigned char,3> >,void *> > >
PUBLIC	??1?$_Tree_temp_node_alloc@V?$allocator@U?$_Tree_node@U?$pair@$$CBEPBD@std@@PAX@std@@@std@@@std@@QAE@XZ ; std::_Tree_temp_node_alloc<std::allocator<std::_Tree_node<std::pair<unsigned char const ,char const *>,void *> > >::~_Tree_temp_node_alloc<std::allocator<std::_Tree_node<std::pair<unsigned char const ,char const *>,void *> > >
PUBLIC	??1?$_Tree_temp_node_alloc@V?$allocator@U?$_Tree_node@U?$pair@$$CBEV?$map@EV?$vector@EV?$allocator@E@std@@@std@@U?$less@E@2@V?$allocator@U?$pair@$$CBEV?$vector@EV?$allocator@E@std@@@std@@@std@@@2@@std@@@std@@PAX@std@@@std@@@std@@QAE@XZ ; std::_Tree_temp_node_alloc<std::allocator<std::_Tree_node<std::pair<unsigned char const ,std::map<unsigned char,std::vector<unsigned char,std::allocator<unsigned char> >,std::less<unsigned char>,std::allocator<std::pair<unsigned char const ,std::vector<unsigned char,std::allocator<unsigned char> > > > > >,void *> > >::~_Tree_temp_node_alloc<std::allocator<std::_Tree_node<std::pair<unsigned char const ,std::map<unsigned char,std::vector<unsigned char,std::allocator<unsigned char> >,std::less<unsigned char>,std::allocator<std::pair<unsigned char const ,std::vector<unsigned char,std::allocator<unsigned char> > > > > >,void *> > >
PUBLIC	??1?$_Tree_temp_node_alloc@V?$allocator@U?$_Tree_node@U?$pair@$$CBEV?$vector@EV?$allocator@E@std@@@std@@@std@@PAX@std@@@std@@@std@@QAE@XZ ; std::_Tree_temp_node_alloc<std::allocator<std::_Tree_node<std::pair<unsigned char const ,std::vector<unsigned char,std::allocator<unsigned char> > >,void *> > >::~_Tree_temp_node_alloc<std::allocator<std::_Tree_node<std::pair<unsigned char const ,std::vector<unsigned char,std::allocator<unsigned char> > >,void *> > >
PUBLIC	??1?$_Tree_temp_node_alloc@V?$allocator@U?$_Tree_node@U?$pair@$$CBV?$basic_string@DU?$char_traits@D@std@@V?$allocator@D@2@@std@@V?$vector@EV?$allocator@E@std@@@2@@std@@PAX@std@@@std@@@std@@QAE@XZ ; std::_Tree_temp_node_alloc<std::allocator<std::_Tree_node<std::pair<std::basic_string<char,std::char_traits<char>,std::allocator<char> > const ,std::vector<unsigned char,std::allocator<unsigned char> > >,void *> > >::~_Tree_temp_node_alloc<std::allocator<std::_Tree_node<std::pair<std::basic_string<char,std::char_traits<char>,std::allocator<char> > const ,std::vector<unsigned char,std::allocator<unsigned char> > >,void *> > >
PUBLIC	?allocate@?$allocator@V?$basic_string@DU?$char_traits@D@std@@V?$allocator@D@2@@std@@@std@@QAEPAV?$basic_string@DU?$char_traits@D@std@@V?$allocator@D@2@@2@I@Z ; std::allocator<std::basic_string<char,std::char_traits<char>,std::allocator<char> > >::allocate
PUBLIC	?capacity@?$vector@V?$basic_string@DU?$char_traits@D@std@@V?$allocator@D@2@@std@@V?$allocator@V?$basic_string@DU?$char_traits@D@std@@V?$allocator@D@2@@std@@@2@@std@@QBEIXZ ; std::vector<std::basic_string<char,std::char_traits<char>,std::allocator<char> >,std::allocator<std::basic_string<char,std::char_traits<char>,std::allocator<char> > > >::capacity
PUBLIC	?max_size@?$_Default_allocator_traits@V?$allocator@V?$basic_string@DU?$char_traits@D@std@@V?$allocator@D@2@@std@@@std@@@std@@SAIABV?$allocator@V?$basic_string@DU?$char_traits@D@std@@V?$allocator@D@2@@std@@@2@@Z ; std::_Default_allocator_traits<std::allocator<std::basic_string<char,std::char_traits<char>,std::allocator<char> > > >::max_size
PUBLIC	?allocate@?$allocator@E@std@@QAEPAEI@Z		; std::allocator<unsigned char>::allocate
PUBLIC	?max_size@?$_Default_allocator_traits@V?$allocator@E@std@@@std@@SAIABV?$allocator@E@2@@Z ; std::_Default_allocator_traits<std::allocator<unsigned char> >::max_size
PUBLIC	?_Getal@?$_Tree@V?$_Tmap_traits@KKU?$less@K@std@@V?$allocator@U?$pair@$$CBKK@std@@@2@$0A@@std@@@std@@IBEABV?$allocator@U?$_Tree_node@U?$pair@$$CBKK@std@@PAX@std@@@2@XZ ; std::_Tree<std::_Tmap_traits<unsigned long,unsigned long,std::less<unsigned long>,std::allocator<std::pair<unsigned long const ,unsigned long> >,0> >::_Getal
PUBLIC	?max_size@?$_Default_allocator_traits@V?$allocator@U?$_Tree_node@U?$pair@$$CBKK@std@@PAX@std@@@std@@@std@@SAIABV?$allocator@U?$_Tree_node@U?$pair@$$CBKK@std@@PAX@std@@@2@@Z ; std::_Default_allocator_traits<std::allocator<std::_Tree_node<std::pair<unsigned long const ,unsigned long>,void *> > >::max_size
PUBLIC	?_Get_first@?$_Compressed_pair@U?$less@K@std@@V?$_Compressed_pair@V?$allocator@U?$_Tree_node@U?$pair@$$CBKK@std@@PAX@std@@@std@@V?$_Tree_val@U?$_Tree_simple_types@U?$pair@$$CBKK@std@@@std@@@2@$00@2@$00@std@@QBEABU?$less@K@2@XZ ; std::_Compressed_pair<std::less<unsigned long>,std::_Compressed_pair<std::allocator<std::_Tree_node<std::pair<unsigned long const ,unsigned long>,void *> >,std::_Tree_val<std::_Tree_simple_types<std::pair<unsigned long const ,unsigned long> > >,1>,1>::_Get_first
PUBLIC	?max_size@?$deque@USEffectDamage@CInstanceBase@@V?$allocator@USEffectDamage@CInstanceBase@@@std@@@std@@QBEIXZ ; std::deque<CInstanceBase::SEffectDamage,std::allocator<CInstanceBase::SEffectDamage> >::max_size
PUBLIC	?_Xlen@?$deque@USEffectDamage@CInstanceBase@@V?$allocator@USEffectDamage@CInstanceBase@@@std@@@std@@CAXXZ ; std::deque<CInstanceBase::SEffectDamage,std::allocator<CInstanceBase::SEffectDamage> >::_Xlen
PUBLIC	?_Subscript@?$_Deque_val@U?$_Deque_simple_types@USEffectDamage@CInstanceBase@@@std@@@std@@QBEABUSEffectDamage@CInstanceBase@@I@Z ; std::_Deque_val<std::_Deque_simple_types<CInstanceBase::SEffectDamage> >::_Subscript
PUBLIC	??G?$_Deque_unchecked_const_iterator@V?$_Deque_val@U?$_Deque_simple_types@USEffectDamage@CInstanceBase@@@std@@@std@@@std@@QBEHABV01@@Z ; std::_Deque_unchecked_const_iterator<std::_Deque_val<std::_Deque_simple_types<CInstanceBase::SEffectDamage> > >::operator-
PUBLIC	?_Getal@?$_Tree@V?$_Tset_traits@KU?$less@K@std@@V?$allocator@K@2@$0A@@std@@@std@@IBEABV?$allocator@U?$_Tree_node@KPAX@std@@@2@XZ ; std::_Tree<std::_Tset_traits<unsigned long,std::less<unsigned long>,std::allocator<unsigned long>,0> >::_Getal
PUBLIC	??0?$allocator@U?$_Tree_node@KPAX@std@@@std@@QAE@XZ ; std::allocator<std::_Tree_node<unsigned long,void *> >::allocator<std::_Tree_node<unsigned long,void *> >
PUBLIC	?deallocate@?$allocator@U?$_Tree_node@KPAX@std@@@std@@QAEXQAU?$_Tree_node@KPAX@2@I@Z ; std::allocator<std::_Tree_node<unsigned long,void *> >::deallocate
PUBLIC	?allocate@?$allocator@U?$_Tree_node@KPAX@std@@@std@@QAEPAU?$_Tree_node@KPAX@2@I@Z ; std::allocator<std::_Tree_node<unsigned long,void *> >::allocate
PUBLIC	?max_size@?$_Default_allocator_traits@V?$allocator@U?$_Tree_node@KPAX@std@@@std@@@std@@SAIABV?$allocator@U?$_Tree_node@KPAX@std@@@2@@Z ; std::_Default_allocator_traits<std::allocator<std::_Tree_node<unsigned long,void *> > >::max_size
PUBLIC	??0?$_Tree_val@U?$_Tree_simple_types@K@std@@@std@@QAE@XZ ; std::_Tree_val<std::_Tree_simple_types<unsigned long> >::_Tree_val<std::_Tree_simple_types<unsigned long> >
PUBLIC	?_Min@?$_Tree_val@U?$_Tree_simple_types@K@std@@@std@@SAPAU?$_Tree_node@KPAX@2@PAU32@@Z ; std::_Tree_val<std::_Tree_simple_types<unsigned long> >::_Min
PUBLIC	?_Extract@?$_Tree_val@U?$_Tree_simple_types@K@std@@@std@@QAEPAU?$_Tree_node@KPAX@2@V?$_Tree_unchecked_const_iterator@V?$_Tree_val@U?$_Tree_simple_types@K@std@@@std@@U_Iterator_base0@2@@2@@Z ; std::_Tree_val<std::_Tree_simple_types<unsigned long> >::_Extract
PUBLIC	?_Check_grow_by_1@?$_Tree@V?$_Tmap_traits@EV?$array@E$02@std@@U?$less@E@2@V?$allocator@U?$pair@$$CBEV?$array@E$02@std@@@std@@@2@$0A@@std@@@std@@IAEXXZ ; std::_Tree<std::_Tmap_traits<unsigned char,std::array<unsigned char,3>,std::less<unsigned char>,std::allocator<std::pair<unsigned char const ,std::array<unsigned char,3> > >,0> >::_Check_grow_by_1
PUBLIC	??0?$allocator@U?$_Tree_node@U?$pair@$$CBEV?$array@E$02@std@@@std@@PAX@std@@@std@@QAE@XZ ; std::allocator<std::_Tree_node<std::pair<unsigned char const ,std::array<unsigned char,3> >,void *> >::allocator<std::_Tree_node<std::pair<unsigned char const ,std::array<unsigned char,3> >,void *> >
PUBLIC	?deallocate@?$allocator@U?$_Tree_node@U?$pair@$$CBEV?$array@E$02@std@@@std@@PAX@std@@@std@@QAEXQAU?$_Tree_node@U?$pair@$$CBEV?$array@E$02@std@@@std@@PAX@2@I@Z ; std::allocator<std::_Tree_node<std::pair<unsigned char const ,std::array<unsigned char,3> >,void *> >::deallocate
PUBLIC	?allocate@?$allocator@U?$_Tree_node@U?$pair@$$CBEV?$array@E$02@std@@@std@@PAX@std@@@std@@QAEPAU?$_Tree_node@U?$pair@$$CBEV?$array@E$02@std@@@std@@PAX@2@I@Z ; std::allocator<std::_Tree_node<std::pair<unsigned char const ,std::array<unsigned char,3> >,void *> >::allocate
PUBLIC	??0?$_Tree_val@U?$_Tree_simple_types@U?$pair@$$CBEV?$array@E$02@std@@@std@@@std@@@std@@QAE@XZ ; std::_Tree_val<std::_Tree_simple_types<std::pair<unsigned char const ,std::array<unsigned char,3> > > >::_Tree_val<std::_Tree_simple_types<std::pair<unsigned char const ,std::array<unsigned char,3> > > >
PUBLIC	?_Insert_node@?$_Tree_val@U?$_Tree_simple_types@U?$pair@$$CBEV?$array@E$02@std@@@std@@@std@@@std@@QAEPAU?$_Tree_node@U?$pair@$$CBEV?$array@E$02@std@@@std@@PAX@2@U?$_Tree_id@PAU?$_Tree_node@U?$pair@$$CBEV?$array@E$02@std@@@std@@PAX@std@@@2@QAU32@@Z ; std::_Tree_val<std::_Tree_simple_types<std::pair<unsigned char const ,std::array<unsigned char,3> > > >::_Insert_node
PUBLIC	?_Check_grow_by_1@?$_Tree@V?$_Tmap_traits@EPBDU?$less@E@std@@V?$allocator@U?$pair@$$CBEPBD@std@@@2@$0A@@std@@@std@@IAEXXZ ; std::_Tree<std::_Tmap_traits<unsigned char,char const *,std::less<unsigned char>,std::allocator<std::pair<unsigned char const ,char const *> >,0> >::_Check_grow_by_1
PUBLIC	??0?$allocator@U?$_Tree_node@U?$pair@$$CBEPBD@std@@PAX@std@@@std@@QAE@XZ ; std::allocator<std::_Tree_node<std::pair<unsigned char const ,char const *>,void *> >::allocator<std::_Tree_node<std::pair<unsigned char const ,char const *>,void *> >
PUBLIC	?deallocate@?$allocator@U?$_Tree_node@U?$pair@$$CBEPBD@std@@PAX@std@@@std@@QAEXQAU?$_Tree_node@U?$pair@$$CBEPBD@std@@PAX@2@I@Z ; std::allocator<std::_Tree_node<std::pair<unsigned char const ,char const *>,void *> >::deallocate
PUBLIC	?allocate@?$allocator@U?$_Tree_node@U?$pair@$$CBEPBD@std@@PAX@std@@@std@@QAEPAU?$_Tree_node@U?$pair@$$CBEPBD@std@@PAX@2@I@Z ; std::allocator<std::_Tree_node<std::pair<unsigned char const ,char const *>,void *> >::allocate
PUBLIC	??0?$_Tree_val@U?$_Tree_simple_types@U?$pair@$$CBEPBD@std@@@std@@@std@@QAE@XZ ; std::_Tree_val<std::_Tree_simple_types<std::pair<unsigned char const ,char const *> > >::_Tree_val<std::_Tree_simple_types<std::pair<unsigned char const ,char const *> > >
PUBLIC	?_Insert_node@?$_Tree_val@U?$_Tree_simple_types@U?$pair@$$CBEPBD@std@@@std@@@std@@QAEPAU?$_Tree_node@U?$pair@$$CBEPBD@std@@PAX@2@U?$_Tree_id@PAU?$_Tree_node@U?$pair@$$CBEPBD@std@@PAX@std@@@2@QAU32@@Z ; std::_Tree_val<std::_Tree_simple_types<std::pair<unsigned char const ,char const *> > >::_Insert_node
PUBLIC	?_Check_grow_by_1@?$_Tree@V?$_Tmap_traits@EV?$map@EV?$vector@EV?$allocator@E@std@@@std@@U?$less@E@2@V?$allocator@U?$pair@$$CBEV?$vector@EV?$allocator@E@std@@@std@@@std@@@2@@std@@U?$less@E@2@V?$allocator@U?$pair@$$CBEV?$map@EV?$vector@EV?$allocator@E@std@@@std@@U?$less@E@2@V?$allocator@U?$pair@$$CBEV?$vector@EV?$allocator@E@std@@@std@@@std@@@2@@std@@@std@@@2@$0A@@std@@@std@@IAEXXZ ; std::_Tree<std::_Tmap_traits<unsigned char,std::map<unsigned char,std::vector<unsigned char,std::allocator<unsigned char> >,std::less<unsigned char>,std::allocator<std::pair<unsigned char const ,std::vector<unsigned char,std::allocator<unsigned char> > > > >,std::less<unsigned char>,std::allocator<std::pair<unsigned char const ,std::map<unsigned char,std::vector<unsigned char,std::allocator<unsigned char> >,std::less<unsigned char>,std::allocator<std::pair<unsigned char const ,std::vector<unsigned char,std::allocator<unsigned char> > > > > > >,0> >::_Check_grow_by_1
PUBLIC	??0?$allocator@U?$_Tree_node@U?$pair@$$CBEV?$map@EV?$vector@EV?$allocator@E@std@@@std@@U?$less@E@2@V?$allocator@U?$pair@$$CBEV?$vector@EV?$allocator@E@std@@@std@@@std@@@2@@std@@@std@@PAX@std@@@std@@QAE@XZ ; std::allocator<std::_Tree_node<std::pair<unsigned char const ,std::map<unsigned char,std::vector<unsigned char,std::allocator<unsigned char> >,std::less<unsigned char>,std::allocator<std::pair<unsigned char const ,std::vector<unsigned char,std::allocator<unsigned char> > > > > >,void *> >::allocator<std::_Tree_node<std::pair<unsigned char const ,std::map<unsigned char,std::vector<unsigned char,std::allocator<unsigned char> >,std::less<unsigned char>,std::allocator<std::pair<unsigned char const ,std::vector<unsigned char,std::allocator<unsigned char> > > > > >,void *> >
PUBLIC	?deallocate@?$allocator@U?$_Tree_node@U?$pair@$$CBEV?$map@EV?$vector@EV?$allocator@E@std@@@std@@U?$less@E@2@V?$allocator@U?$pair@$$CBEV?$vector@EV?$allocator@E@std@@@std@@@std@@@2@@std@@@std@@PAX@std@@@std@@QAEXQAU?$_Tree_node@U?$pair@$$CBEV?$map@EV?$vector@EV?$allocator@E@std@@@std@@U?$less@E@2@V?$allocator@U?$pair@$$CBEV?$vector@EV?$allocator@E@std@@@std@@@std@@@2@@std@@@std@@PAX@2@I@Z ; std::allocator<std::_Tree_node<std::pair<unsigned char const ,std::map<unsigned char,std::vector<unsigned char,std::allocator<unsigned char> >,std::less<unsigned char>,std::allocator<std::pair<unsigned char const ,std::vector<unsigned char,std::allocator<unsigned char> > > > > >,void *> >::deallocate
PUBLIC	?allocate@?$allocator@U?$_Tree_node@U?$pair@$$CBEV?$map@EV?$vector@EV?$allocator@E@std@@@std@@U?$less@E@2@V?$allocator@U?$pair@$$CBEV?$vector@EV?$allocator@E@std@@@std@@@std@@@2@@std@@@std@@PAX@std@@@std@@QAEPAU?$_Tree_node@U?$pair@$$CBEV?$map@EV?$vector@EV?$allocator@E@std@@@std@@U?$less@E@2@V?$allocator@U?$pair@$$CBEV?$vector@EV?$allocator@E@std@@@std@@@std@@@2@@std@@@std@@PAX@2@I@Z ; std::allocator<std::_Tree_node<std::pair<unsigned char const ,std::map<unsigned char,std::vector<unsigned char,std::allocator<unsigned char> >,std::less<unsigned char>,std::allocator<std::pair<unsigned char const ,std::vector<unsigned char,std::allocator<unsigned char> > > > > >,void *> >::allocate
PUBLIC	??0?$_Tree_val@U?$_Tree_simple_types@U?$pair@$$CBEV?$map@EV?$vector@EV?$allocator@E@std@@@std@@U?$less@E@2@V?$allocator@U?$pair@$$CBEV?$vector@EV?$allocator@E@std@@@std@@@std@@@2@@std@@@std@@@std@@@std@@QAE@XZ ; std::_Tree_val<std::_Tree_simple_types<std::pair<unsigned char const ,std::map<unsigned char,std::vector<unsigned char,std::allocator<unsigned char> >,std::less<unsigned char>,std::allocator<std::pair<unsigned char const ,std::vector<unsigned char,std::allocator<unsigned char> > > > > > > >::_Tree_val<std::_Tree_simple_types<std::pair<unsigned char const ,std::map<unsigned char,std::vector<unsigned char,std::allocator<unsigned char> >,std::less<unsigned char>,std::allocator<std::pair<unsigned char const ,std::vector<unsigned char,std::allocator<unsigned char> > > > > > > >
PUBLIC	?_Insert_node@?$_Tree_val@U?$_Tree_simple_types@U?$pair@$$CBEV?$map@EV?$vector@EV?$allocator@E@std@@@std@@U?$less@E@2@V?$allocator@U?$pair@$$CBEV?$vector@EV?$allocator@E@std@@@std@@@std@@@2@@std@@@std@@@std@@@std@@QAEPAU?$_Tree_node@U?$pair@$$CBEV?$map@EV?$vector@EV?$allocator@E@std@@@std@@U?$less@E@2@V?$allocator@U?$pair@$$CBEV?$vector@EV?$allocator@E@std@@@std@@@std@@@2@@std@@@std@@PAX@2@U?$_Tree_id@PAU?$_Tree_node@U?$pair@$$CBEV?$map@EV?$vector@EV?$allocator@E@std@@@std@@U?$less@E@2@V?$allocator@U?$pair@$$CBEV?$vector@EV?$allocator@E@std@@@std@@@std@@@2@@std@@@std@@PAX@std@@@2@QAU32@@Z ; std::_Tree_val<std::_Tree_simple_types<std::pair<unsigned char const ,std::map<unsigned char,std::vector<unsigned char,std::allocator<unsigned char> >,std::less<unsigned char>,std::allocator<std::pair<unsigned char const ,std::vector<unsigned char,std::allocator<unsigned char> > > > > > > >::_Insert_node
PUBLIC	?_Check_grow_by_1@?$_Tree@V?$_Tmap_traits@EV?$vector@EV?$allocator@E@std@@@std@@U?$less@E@2@V?$allocator@U?$pair@$$CBEV?$vector@EV?$allocator@E@std@@@std@@@std@@@2@$0A@@std@@@std@@IAEXXZ ; std::_Tree<std::_Tmap_traits<unsigned char,std::vector<unsigned char,std::allocator<unsigned char> >,std::less<unsigned char>,std::allocator<std::pair<unsigned char const ,std::vector<unsigned char,std::allocator<unsigned char> > > >,0> >::_Check_grow_by_1
PUBLIC	?_Getcomp@?$_Tree@V?$_Tmap_traits@EV?$vector@EV?$allocator@E@std@@@std@@U?$less@E@2@V?$allocator@U?$pair@$$CBEV?$vector@EV?$allocator@E@std@@@std@@@std@@@2@$0A@@std@@@std@@IBEABU?$less@E@2@XZ ; std::_Tree<std::_Tmap_traits<unsigned char,std::vector<unsigned char,std::allocator<unsigned char> >,std::less<unsigned char>,std::allocator<std::pair<unsigned char const ,std::vector<unsigned char,std::allocator<unsigned char> > > >,0> >::_Getcomp
PUBLIC	?_Get_scary@?$_Tree@V?$_Tmap_traits@EV?$vector@EV?$allocator@E@std@@@std@@U?$less@E@2@V?$allocator@U?$pair@$$CBEV?$vector@EV?$allocator@E@std@@@std@@@std@@@2@$0A@@std@@@std@@IBEPBV?$_Tree_val@U?$_Tree_simple_types@U?$pair@$$CBEV?$vector@EV?$allocator@E@std@@@std@@@std@@@std@@@2@XZ ; std::_Tree<std::_Tmap_traits<unsigned char,std::vector<unsigned char,std::allocator<unsigned char> >,std::less<unsigned char>,std::allocator<std::pair<unsigned char const ,std::vector<unsigned char,std::allocator<unsigned char> > > >,0> >::_Get_scary
PUBLIC	??0?$allocator@U?$_Tree_node@U?$pair@$$CBEV?$vector@EV?$allocator@E@std@@@std@@@std@@PAX@std@@@std@@QAE@XZ ; std::allocator<std::_Tree_node<std::pair<unsigned char const ,std::vector<unsigned char,std::allocator<unsigned char> > >,void *> >::allocator<std::_Tree_node<std::pair<unsigned char const ,std::vector<unsigned char,std::allocator<unsigned char> > >,void *> >
PUBLIC	?deallocate@?$allocator@U?$_Tree_node@U?$pair@$$CBEV?$vector@EV?$allocator@E@std@@@std@@@std@@PAX@std@@@std@@QAEXQAU?$_Tree_node@U?$pair@$$CBEV?$vector@EV?$allocator@E@std@@@std@@@std@@PAX@2@I@Z ; std::allocator<std::_Tree_node<std::pair<unsigned char const ,std::vector<unsigned char,std::allocator<unsigned char> > >,void *> >::deallocate
PUBLIC	?allocate@?$allocator@U?$_Tree_node@U?$pair@$$CBEV?$vector@EV?$allocator@E@std@@@std@@@std@@PAX@std@@@std@@QAEPAU?$_Tree_node@U?$pair@$$CBEV?$vector@EV?$allocator@E@std@@@std@@@std@@PAX@2@I@Z ; std::allocator<std::_Tree_node<std::pair<unsigned char const ,std::vector<unsigned char,std::allocator<unsigned char> > >,void *> >::allocate
PUBLIC	??0?$_Tree_val@U?$_Tree_simple_types@U?$pair@$$CBEV?$vector@EV?$allocator@E@std@@@std@@@std@@@std@@@std@@QAE@XZ ; std::_Tree_val<std::_Tree_simple_types<std::pair<unsigned char const ,std::vector<unsigned char,std::allocator<unsigned char> > > > >::_Tree_val<std::_Tree_simple_types<std::pair<unsigned char const ,std::vector<unsigned char,std::allocator<unsigned char> > > > >
PUBLIC	?_Max@?$_Tree_val@U?$_Tree_simple_types@U?$pair@$$CBEV?$vector@EV?$allocator@E@std@@@std@@@std@@@std@@@std@@SAPAU?$_Tree_node@U?$pair@$$CBEV?$vector@EV?$allocator@E@std@@@std@@@std@@PAX@2@PAU32@@Z ; std::_Tree_val<std::_Tree_simple_types<std::pair<unsigned char const ,std::vector<unsigned char,std::allocator<unsigned char> > > > >::_Max
PUBLIC	?_Min@?$_Tree_val@U?$_Tree_simple_types@U?$pair@$$CBEV?$vector@EV?$allocator@E@std@@@std@@@std@@@std@@@std@@SAPAU?$_Tree_node@U?$pair@$$CBEV?$vector@EV?$allocator@E@std@@@std@@@std@@PAX@2@PAU32@@Z ; std::_Tree_val<std::_Tree_simple_types<std::pair<unsigned char const ,std::vector<unsigned char,std::allocator<unsigned char> > > > >::_Min
PUBLIC	?_Insert_node@?$_Tree_val@U?$_Tree_simple_types@U?$pair@$$CBEV?$vector@EV?$allocator@E@std@@@std@@@std@@@std@@@std@@QAEPAU?$_Tree_node@U?$pair@$$CBEV?$vector@EV?$allocator@E@std@@@std@@@std@@PAX@2@U?$_Tree_id@PAU?$_Tree_node@U?$pair@$$CBEV?$vector@EV?$allocator@E@std@@@std@@@std@@PAX@std@@@2@QAU32@@Z ; std::_Tree_val<std::_Tree_simple_types<std::pair<unsigned char const ,std::vector<unsigned char,std::allocator<unsigned char> > > > >::_Insert_node
PUBLIC	?_Check_grow_by_1@?$_Tree@V?$_Tmap_traits@V?$basic_string@DU?$char_traits@D@std@@V?$allocator@D@2@@std@@V?$vector@EV?$allocator@E@std@@@2@U?$less@V?$basic_string@DU?$char_traits@D@std@@V?$allocator@D@2@@std@@@2@V?$allocator@U?$pair@$$CBV?$basic_string@DU?$char_traits@D@std@@V?$allocator@D@2@@std@@V?$vector@EV?$allocator@E@std@@@2@@std@@@2@$0A@@std@@@std@@IAEXXZ ; std::_Tree<std::_Tmap_traits<std::basic_string<char,std::char_traits<char>,std::allocator<char> >,std::vector<unsigned char,std::allocator<unsigned char> >,std::less<std::basic_string<char,std::char_traits<char>,std::allocator<char> > >,std::allocator<std::pair<std::basic_string<char,std::char_traits<char>,std::allocator<char> > const ,std::vector<unsigned char,std::allocator<unsigned char> > > >,0> >::_Check_grow_by_1
PUBLIC	??0?$allocator@U?$_Tree_node@U?$pair@$$CBV?$basic_string@DU?$char_traits@D@std@@V?$allocator@D@2@@std@@V?$vector@EV?$allocator@E@std@@@2@@std@@PAX@std@@@std@@QAE@XZ ; std::allocator<std::_Tree_node<std::pair<std::basic_string<char,std::char_traits<char>,std::allocator<char> > const ,std::vector<unsigned char,std::allocator<unsigned char> > >,void *> >::allocator<std::_Tree_node<std::pair<std::basic_string<char,std::char_traits<char>,std::allocator<char> > const ,std::vector<unsigned char,std::allocator<unsigned char> > >,void *> >
PUBLIC	?deallocate@?$allocator@U?$_Tree_node@U?$pair@$$CBV?$basic_string@DU?$char_traits@D@std@@V?$allocator@D@2@@std@@V?$vector@EV?$allocator@E@std@@@2@@std@@PAX@std@@@std@@QAEXQAU?$_Tree_node@U?$pair@$$CBV?$basic_string@DU?$char_traits@D@std@@V?$allocator@D@2@@std@@V?$vector@EV?$allocator@E@std@@@2@@std@@PAX@2@I@Z ; std::allocator<std::_Tree_node<std::pair<std::basic_string<char,std::char_traits<char>,std::allocator<char> > const ,std::vector<unsigned char,std::allocator<unsigned char> > >,void *> >::deallocate
PUBLIC	?allocate@?$allocator@U?$_Tree_node@U?$pair@$$CBV?$basic_string@DU?$char_traits@D@std@@V?$allocator@D@2@@std@@V?$vector@EV?$allocator@E@std@@@2@@std@@PAX@std@@@std@@QAEPAU?$_Tree_node@U?$pair@$$CBV?$basic_string@DU?$char_traits@D@std@@V?$allocator@D@2@@std@@V?$vector@EV?$allocator@E@std@@@2@@std@@PAX@2@I@Z ; std::allocator<std::_Tree_node<std::pair<std::basic_string<char,std::char_traits<char>,std::allocator<char> > const ,std::vector<unsigned char,std::allocator<unsigned char> > >,void *> >::allocate
PUBLIC	??0?$_Tree_val@U?$_Tree_simple_types@U?$pair@$$CBV?$basic_string@DU?$char_traits@D@std@@V?$allocator@D@2@@std@@V?$vector@EV?$allocator@E@std@@@2@@std@@@std@@@std@@QAE@XZ ; std::_Tree_val<std::_Tree_simple_types<std::pair<std::basic_string<char,std::char_traits<char>,std::allocator<char> > const ,std::vector<unsigned char,std::allocator<unsigned char> > > > >::_Tree_val<std::_Tree_simple_types<std::pair<std::basic_string<char,std::char_traits<char>,std::allocator<char> > const ,std::vector<unsigned char,std::allocator<unsigned char> > > > >
PUBLIC	?_Insert_node@?$_Tree_val@U?$_Tree_simple_types@U?$pair@$$CBV?$basic_string@DU?$char_traits@D@std@@V?$allocator@D@2@@std@@V?$vector@EV?$allocator@E@std@@@2@@std@@@std@@@std@@QAEPAU?$_Tree_node@U?$pair@$$CBV?$basic_string@DU?$char_traits@D@std@@V?$allocator@D@2@@std@@V?$vector@EV?$allocator@E@std@@@2@@std@@PAX@2@U?$_Tree_id@PAU?$_Tree_node@U?$pair@$$CBV?$basic_string@DU?$char_traits@D@std@@V?$allocator@D@2@@std@@V?$vector@EV?$allocator@E@std@@@2@@std@@PAX@std@@@2@QAU32@@Z ; std::_Tree_val<std::_Tree_simple_types<std::pair<std::basic_string<char,std::char_traits<char>,std::allocator<char> > const ,std::vector<unsigned char,std::allocator<unsigned char> > > > >::_Insert_node
PUBLIC	?max_size@?$_Tree@V?$_Tmap_traits@HV?$basic_string@DU?$char_traits@D@std@@V?$allocator@D@2@@std@@U?$less@H@2@V?$allocator@U?$pair@$$CBHV?$basic_string@DU?$char_traits@D@std@@V?$allocator@D@2@@std@@@std@@@2@$0A@@std@@@std@@QBEIXZ ; std::_Tree<std::_Tmap_traits<int,std::basic_string<char,std::char_traits<char>,std::allocator<char> >,std::less<int>,std::allocator<std::pair<int const ,std::basic_string<char,std::char_traits<char>,std::allocator<char> > > >,0> >::max_size
PUBLIC	??0?$allocator@U?$_Tree_node@U?$pair@$$CBHV?$basic_string@DU?$char_traits@D@std@@V?$allocator@D@2@@std@@@std@@PAX@std@@@std@@QAE@XZ ; std::allocator<std::_Tree_node<std::pair<int const ,std::basic_string<char,std::char_traits<char>,std::allocator<char> > >,void *> >::allocator<std::_Tree_node<std::pair<int const ,std::basic_string<char,std::char_traits<char>,std::allocator<char> > >,void *> >
PUBLIC	?deallocate@?$allocator@U?$_Tree_node@U?$pair@$$CBHV?$basic_string@DU?$char_traits@D@std@@V?$allocator@D@2@@std@@@std@@PAX@std@@@std@@QAEXQAU?$_Tree_node@U?$pair@$$CBHV?$basic_string@DU?$char_traits@D@std@@V?$allocator@D@2@@std@@@std@@PAX@2@I@Z ; std::allocator<std::_Tree_node<std::pair<int const ,std::basic_string<char,std::char_traits<char>,std::allocator<char> > >,void *> >::deallocate
PUBLIC	?allocate@?$allocator@U?$_Tree_node@U?$pair@$$CBHV?$basic_string@DU?$char_traits@D@std@@V?$allocator@D@2@@std@@@std@@PAX@std@@@std@@QAEPAU?$_Tree_node@U?$pair@$$CBHV?$basic_string@DU?$char_traits@D@std@@V?$allocator@D@2@@std@@@std@@PAX@2@I@Z ; std::allocator<std::_Tree_node<std::pair<int const ,std::basic_string<char,std::char_traits<char>,std::allocator<char> > >,void *> >::allocate
PUBLIC	??0?$_Tree_val@U?$_Tree_simple_types@U?$pair@$$CBHV?$basic_string@DU?$char_traits@D@std@@V?$allocator@D@2@@std@@@std@@@std@@@std@@QAE@XZ ; std::_Tree_val<std::_Tree_simple_types<std::pair<int const ,std::basic_string<char,std::char_traits<char>,std::allocator<char> > > > >::_Tree_val<std::_Tree_simple_types<std::pair<int const ,std::basic_string<char,std::char_traits<char>,std::allocator<char> > > > >
PUBLIC	?_Lrotate@?$_Tree_val@U?$_Tree_simple_types@U?$pair@$$CBHV?$basic_string@DU?$char_traits@D@std@@V?$allocator@D@2@@std@@@std@@@std@@@std@@QAEXPAU?$_Tree_node@U?$pair@$$CBHV?$basic_string@DU?$char_traits@D@std@@V?$allocator@D@2@@std@@@std@@PAX@2@@Z ; std::_Tree_val<std::_Tree_simple_types<std::pair<int const ,std::basic_string<char,std::char_traits<char>,std::allocator<char> > > > >::_Lrotate
PUBLIC	?_Rrotate@?$_Tree_val@U?$_Tree_simple_types@U?$pair@$$CBHV?$basic_string@DU?$char_traits@D@std@@V?$allocator@D@2@@std@@@std@@@std@@@std@@QAEXPAU?$_Tree_node@U?$pair@$$CBHV?$basic_string@DU?$char_traits@D@std@@V?$allocator@D@2@@std@@@std@@PAX@2@@Z ; std::_Tree_val<std::_Tree_simple_types<std::pair<int const ,std::basic_string<char,std::char_traits<char>,std::allocator<char> > > > >::_Rrotate
PUBLIC	?_Get_first@?$_Compressed_pair@U?$less@H@std@@V?$_Compressed_pair@V?$allocator@U?$_Tree_node@U?$pair@$$CBHV?$basic_string@DU?$char_traits@D@std@@V?$allocator@D@2@@std@@@std@@PAX@std@@@std@@V?$_Tree_val@U?$_Tree_simple_types@U?$pair@$$CBHV?$basic_string@DU?$char_traits@D@std@@V?$allocator@D@2@@std@@@std@@@std@@@2@$00@2@$00@std@@QBEABU?$less@H@2@XZ ; std::_Compressed_pair<std::less<int>,std::_Compressed_pair<std::allocator<std::_Tree_node<std::pair<int const ,std::basic_string<char,std::char_traits<char>,std::allocator<char> > >,void *> >,std::_Tree_val<std::_Tree_simple_types<std::pair<int const ,std::basic_string<char,std::char_traits<char>,std::allocator<char> > > > >,1>,1>::_Get_first
PUBLIC	??0?$_Alloc_construct_ptr@V?$allocator@U?$_Tree_node@U?$pair@$$CBKK@std@@PAX@std@@@std@@@std@@QAE@AAV?$allocator@U?$_Tree_node@U?$pair@$$CBKK@std@@PAX@std@@@1@@Z ; std::_Alloc_construct_ptr<std::allocator<std::_Tree_node<std::pair<unsigned long const ,unsigned long>,void *> > >::_Alloc_construct_ptr<std::allocator<std::_Tree_node<std::pair<unsigned long const ,unsigned long>,void *> > >
PUBLIC	?_Allocate@?$_Alloc_construct_ptr@V?$allocator@U?$_Tree_node@U?$pair@$$CBKK@std@@PAX@std@@@std@@@std@@QAEXXZ ; std::_Alloc_construct_ptr<std::allocator<std::_Tree_node<std::pair<unsigned long const ,unsigned long>,void *> > >::_Allocate
PUBLIC	??0?$_Alloc_construct_ptr@V?$allocator@U?$_Tree_node@KPAX@std@@@std@@@std@@QAE@AAV?$allocator@U?$_Tree_node@KPAX@std@@@1@@Z ; std::_Alloc_construct_ptr<std::allocator<std::_Tree_node<unsigned long,void *> > >::_Alloc_construct_ptr<std::allocator<std::_Tree_node<unsigned long,void *> > >
PUBLIC	?_Allocate@?$_Alloc_construct_ptr@V?$allocator@U?$_Tree_node@KPAX@std@@@std@@@std@@QAEXXZ ; std::_Alloc_construct_ptr<std::allocator<std::_Tree_node<unsigned long,void *> > >::_Allocate
PUBLIC	??0?$_Tree_temp_node_alloc@V?$allocator@U?$_Tree_node@U?$pair@$$CBHV?$basic_string@DU?$char_traits@D@std@@V?$allocator@D@2@@std@@@std@@PAX@std@@@std@@@std@@QAE@AAV?$allocator@U?$_Tree_node@U?$pair@$$CBHV?$basic_string@DU?$char_traits@D@std@@V?$allocator@D@2@@std@@@std@@PAX@std@@@1@@Z ; std::_Tree_temp_node_alloc<std::allocator<std::_Tree_node<std::pair<int const ,std::basic_string<char,std::char_traits<char>,std::allocator<char> > >,void *> > >::_Tree_temp_node_alloc<std::allocator<std::_Tree_node<std::pair<int const ,std::basic_string<char,std::char_traits<char>,std::allocator<char> > >,void *> > >
PUBLIC	??1?$_Alloc_construct_ptr@V?$allocator@U?$_Tree_node@U?$pair@$$CBHV?$basic_string@DU?$char_traits@D@std@@V?$allocator@D@2@@std@@@std@@PAX@std@@@std@@@std@@QAE@XZ ; std::_Alloc_construct_ptr<std::allocator<std::_Tree_node<std::pair<int const ,std::basic_string<char,std::char_traits<char>,std::allocator<char> > >,void *> > >::~_Alloc_construct_ptr<std::allocator<std::_Tree_node<std::pair<int const ,std::basic_string<char,std::char_traits<char>,std::allocator<char> > >,void *> > >
PUBLIC	?_Extract@?$_In_place_key_extract_map_impl@V?$basic_string@DU?$char_traits@D@std@@V?$allocator@D@2@@std@@U?$pair@$$CBV?$basic_string@DU?$char_traits@D@std@@V?$allocator@D@2@@std@@V?$vector@EV?$allocator@E@std@@@2@@2@@std@@SAABV?$basic_string@DU?$char_traits@D@std@@V?$allocator@D@2@@2@ABU?$pair@$$CBV?$basic_string@DU?$char_traits@D@std@@V?$allocator@D@2@@std@@V?$vector@EV?$allocator@E@std@@@2@@2@@Z ; std::_In_place_key_extract_map_impl<std::basic_string<char,std::char_traits<char>,std::allocator<char> >,std::pair<std::basic_string<char,std::char_traits<char>,std::allocator<char> > const ,std::vector<unsigned char,std::allocator<unsigned char> > > >::_Extract
PUBLIC	??1?$_Tree_temp_node@V?$allocator@U?$_Tree_node@U?$pair@$$CBV?$basic_string@DU?$char_traits@D@std@@V?$allocator@D@2@@std@@V?$vector@EV?$allocator@E@std@@@2@@std@@PAX@std@@@std@@@std@@QAE@XZ ; std::_Tree_temp_node<std::allocator<std::_Tree_node<std::pair<std::basic_string<char,std::char_traits<char>,std::allocator<char> > const ,std::vector<unsigned char,std::allocator<unsigned char> > >,void *> > >::~_Tree_temp_node<std::allocator<std::_Tree_node<std::pair<std::basic_string<char,std::char_traits<char>,std::allocator<char> > const ,std::vector<unsigned char,std::allocator<unsigned char> > >,void *> > >
PUBLIC	?_Release@?$_Alloc_construct_ptr@V?$allocator@U?$_Tree_node@U?$pair@$$CBV?$basic_string@DU?$char_traits@D@std@@V?$allocator@D@2@@std@@V?$vector@EV?$allocator@E@std@@@2@@std@@PAX@std@@@std@@@std@@QAEPAU?$_Tree_node@U?$pair@$$CBV?$basic_string@DU?$char_traits@D@std@@V?$allocator@D@2@@std@@V?$vector@EV?$allocator@E@std@@@2@@std@@PAX@2@XZ ; std::_Alloc_construct_ptr<std::allocator<std::_Tree_node<std::pair<std::basic_string<char,std::char_traits<char>,std::allocator<char> > const ,std::vector<unsigned char,std::allocator<unsigned char> > >,void *> > >::_Release
PUBLIC	?_Extract@?$_In_place_key_extract_map_impl@EU?$pair@$$CBEV?$vector@EV?$allocator@E@std@@@std@@@std@@@std@@SAABEABU?$pair@$$CBEV?$vector@EV?$allocator@E@std@@@std@@@2@@Z ; std::_In_place_key_extract_map_impl<unsigned char,std::pair<unsigned char const ,std::vector<unsigned char,std::allocator<unsigned char> > > >::_Extract
PUBLIC	??1?$_Tree_temp_node@V?$allocator@U?$_Tree_node@U?$pair@$$CBEV?$vector@EV?$allocator@E@std@@@std@@@std@@PAX@std@@@std@@@std@@QAE@XZ ; std::_Tree_temp_node<std::allocator<std::_Tree_node<std::pair<unsigned char const ,std::vector<unsigned char,std::allocator<unsigned char> > >,void *> > >::~_Tree_temp_node<std::allocator<std::_Tree_node<std::pair<unsigned char const ,std::vector<unsigned char,std::allocator<unsigned char> > >,void *> > >
PUBLIC	?_Release@?$_Alloc_construct_ptr@V?$allocator@U?$_Tree_node@U?$pair@$$CBEV?$vector@EV?$allocator@E@std@@@std@@@std@@PAX@std@@@std@@@std@@QAEPAU?$_Tree_node@U?$pair@$$CBEV?$vector@EV?$allocator@E@std@@@std@@@std@@PAX@2@XZ ; std::_Alloc_construct_ptr<std::allocator<std::_Tree_node<std::pair<unsigned char const ,std::vector<unsigned char,std::allocator<unsigned char> > >,void *> > >::_Release
PUBLIC	?_Extract@?$_In_place_key_extract_map_impl@EU?$pair@$$CBEV?$map@EV?$vector@EV?$allocator@E@std@@@std@@U?$less@E@2@V?$allocator@U?$pair@$$CBEV?$vector@EV?$allocator@E@std@@@std@@@std@@@2@@std@@@std@@@std@@SAABEABU?$pair@$$CBEV?$map@EV?$vector@EV?$allocator@E@std@@@std@@U?$less@E@2@V?$allocator@U?$pair@$$CBEV?$vector@EV?$allocator@E@std@@@std@@@std@@@2@@std@@@2@@Z ; std::_In_place_key_extract_map_impl<unsigned char,std::pair<unsigned char const ,std::map<unsigned char,std::vector<unsigned char,std::allocator<unsigned char> >,std::less<unsigned char>,std::allocator<std::pair<unsigned char const ,std::vector<unsigned char,std::allocator<unsigned char> > > > > > >::_Extract
PUBLIC	??1?$_Tree_temp_node@V?$allocator@U?$_Tree_node@U?$pair@$$CBEV?$map@EV?$vector@EV?$allocator@E@std@@@std@@U?$less@E@2@V?$allocator@U?$pair@$$CBEV?$vector@EV?$allocator@E@std@@@std@@@std@@@2@@std@@@std@@PAX@std@@@std@@@std@@QAE@XZ ; std::_Tree_temp_node<std::allocator<std::_Tree_node<std::pair<unsigned char const ,std::map<unsigned char,std::vector<unsigned char,std::allocator<unsigned char> >,std::less<unsigned char>,std::allocator<std::pair<unsigned char const ,std::vector<unsigned char,std::allocator<unsigned char> > > > > >,void *> > >::~_Tree_temp_node<std::allocator<std::_Tree_node<std::pair<unsigned char const ,std::map<unsigned char,std::vector<unsigned char,std::allocator<unsigned char> >,std::less<unsigned char>,std::allocator<std::pair<unsigned char const ,std::vector<unsigned char,std::allocator<unsigned char> > > > > >,void *> > >
PUBLIC	?_Release@?$_Alloc_construct_ptr@V?$allocator@U?$_Tree_node@U?$pair@$$CBEV?$map@EV?$vector@EV?$allocator@E@std@@@std@@U?$less@E@2@V?$allocator@U?$pair@$$CBEV?$vector@EV?$allocator@E@std@@@std@@@std@@@2@@std@@@std@@PAX@std@@@std@@@std@@QAEPAU?$_Tree_node@U?$pair@$$CBEV?$map@EV?$vector@EV?$allocator@E@std@@@std@@U?$less@E@2@V?$allocator@U?$pair@$$CBEV?$vector@EV?$allocator@E@std@@@std@@@std@@@2@@std@@@std@@PAX@2@XZ ; std::_Alloc_construct_ptr<std::allocator<std::_Tree_node<std::pair<unsigned char const ,std::map<unsigned char,std::vector<unsigned char,std::allocator<unsigned char> >,std::less<unsigned char>,std::allocator<std::pair<unsigned char const ,std::vector<unsigned char,std::allocator<unsigned char> > > > > >,void *> > >::_Release
PUBLIC	?_Extract@?$_In_place_key_extract_map_impl@EU?$pair@$$CBEPBD@std@@@std@@SAABEABU?$pair@$$CBEPBD@2@@Z ; std::_In_place_key_extract_map_impl<unsigned char,std::pair<unsigned char const ,char const *> >::_Extract
PUBLIC	??1?$_Tree_temp_node@V?$allocator@U?$_Tree_node@U?$pair@$$CBEPBD@std@@PAX@std@@@std@@@std@@QAE@XZ ; std::_Tree_temp_node<std::allocator<std::_Tree_node<std::pair<unsigned char const ,char const *>,void *> > >::~_Tree_temp_node<std::allocator<std::_Tree_node<std::pair<unsigned char const ,char const *>,void *> > >
PUBLIC	?_Release@?$_Alloc_construct_ptr@V?$allocator@U?$_Tree_node@U?$pair@$$CBEPBD@std@@PAX@std@@@std@@@std@@QAEPAU?$_Tree_node@U?$pair@$$CBEPBD@std@@PAX@2@XZ ; std::_Alloc_construct_ptr<std::allocator<std::_Tree_node<std::pair<unsigned char const ,char const *>,void *> > >::_Release
PUBLIC	?_Extract@?$_In_place_key_extract_map_impl@EU?$pair@$$CBEV?$array@E$02@std@@@std@@@std@@SAABEABU?$pair@$$CBEV?$array@E$02@std@@@2@@Z ; std::_In_place_key_extract_map_impl<unsigned char,std::pair<unsigned char const ,std::array<unsigned char,3> > >::_Extract
PUBLIC	??1?$_Tree_temp_node@V?$allocator@U?$_Tree_node@U?$pair@$$CBEV?$array@E$02@std@@@std@@PAX@std@@@std@@@std@@QAE@XZ ; std::_Tree_temp_node<std::allocator<std::_Tree_node<std::pair<unsigned char const ,std::array<unsigned char,3> >,void *> > >::~_Tree_temp_node<std::allocator<std::_Tree_node<std::pair<unsigned char const ,std::array<unsigned char,3> >,void *> > >
PUBLIC	?_Release@?$_Alloc_construct_ptr@V?$allocator@U?$_Tree_node@U?$pair@$$CBEV?$array@E$02@std@@@std@@PAX@std@@@std@@@std@@QAEPAU?$_Tree_node@U?$pair@$$CBEV?$array@E$02@std@@@std@@PAX@2@XZ ; std::_Alloc_construct_ptr<std::allocator<std::_Tree_node<std::pair<unsigned char const ,std::array<unsigned char,3> >,void *> > >::_Release
PUBLIC	??$addressof@V?$_Deque_val@U?$_Deque_simple_types@USEffectDamage@CInstanceBase@@@std@@@std@@@std@@YAPAV?$_Deque_val@U?$_Deque_simple_types@USEffectDamage@CInstanceBase@@@std@@@0@AAV10@@Z ; std::addressof<std::_Deque_val<std::_Deque_simple_types<CInstanceBase::SEffectDamage> > >
PUBLIC	??$_Destroy_range@PAPAUSEffectDamage@CInstanceBase@@PAPAU12@@std@@YAXPAPAUSEffectDamage@CInstanceBase@@QAPAU12@@Z ; std::_Destroy_range<CInstanceBase::SEffectDamage * *,CInstanceBase::SEffectDamage * *>
PUBLIC	??$_Uninitialized_value_construct_n_unchecked1@PAPAUSEffectDamage@CInstanceBase@@I@std@@YAPAPAUSEffectDamage@CInstanceBase@@PAPAU12@I@Z ; std::_Uninitialized_value_construct_n_unchecked1<CInstanceBase::SEffectDamage * *,unsigned int>
PUBLIC	??$_Get_unwrapped_n@AAPAPAUSEffectDamage@CInstanceBase@@H@std@@YA?A_TAAPAPAUSEffectDamage@CInstanceBase@@H@Z ; std::_Get_unwrapped_n<CInstanceBase::SEffectDamage * * &,int>
PUBLIC	??$_Idl_distance@PAPAUSEffectDamage@CInstanceBase@@PAPAU12@@std@@YA?A_PABQAPAUSEffectDamage@CInstanceBase@@0@Z ; std::_Idl_distance<CInstanceBase::SEffectDamage * *,CInstanceBase::SEffectDamage * *>
PUBLIC	??$_Get_unwrapped@ABQAPAUSEffectDamage@CInstanceBase@@@std@@YA?A_TABQAPAUSEffectDamage@CInstanceBase@@@Z ; std::_Get_unwrapped<CInstanceBase::SEffectDamage * * const &>
PUBLIC	??$uninitialized_copy@PAPAUSEffectDamage@CInstanceBase@@PAPAU12@@std@@YAPAPAUSEffectDamage@CInstanceBase@@QAPAU12@0PAPAU12@@Z ; std::uninitialized_copy<CInstanceBase::SEffectDamage * *,CInstanceBase::SEffectDamage * *>
PUBLIC	??$_Allocate_at_least_helper@V?$allocator@PAUSEffectDamage@CInstanceBase@@@std@@@std@@YAPAPAUSEffectDamage@CInstanceBase@@AAV?$allocator@PAUSEffectDamage@CInstanceBase@@@0@AAI@Z ; std::_Allocate_at_least_helper<std::allocator<CInstanceBase::SEffectDamage *> >
PUBLIC	??$exchange@PAU?$_Tree_node@U?$pair@$$CBHV?$basic_string@DU?$char_traits@D@std@@V?$allocator@D@2@@std@@@std@@PAX@std@@$$T@std@@YAPAU?$_Tree_node@U?$pair@$$CBHV?$basic_string@DU?$char_traits@D@std@@V?$allocator@D@2@@std@@@std@@PAX@0@AAPAU10@$$QA$$T@Z ; std::exchange<std::_Tree_node<std::pair<int const ,std::basic_string<char,std::char_traits<char>,std::allocator<char> > >,void *> *,std::nullptr_t>
PUBLIC	??$move@AAD@std@@YA$$QADAAD@Z			; std::move<char &>
PUBLIC	??$_Construct_in_place@PAU?$_Tree_node@KPAX@std@@ABQAU12@@std@@YAXAAPAU?$_Tree_node@KPAX@0@ABQAU10@@Z ; std::_Construct_in_place<std::_Tree_node<unsigned long,void *> *,std::_Tree_node<unsigned long,void *> * const &>
PUBLIC	??$_Construct_in_place@PAU?$_Tree_node@U?$pair@$$CBEV?$array@E$02@std@@@std@@PAX@std@@ABQAU12@@std@@YAXAAPAU?$_Tree_node@U?$pair@$$CBEV?$array@E$02@std@@@std@@PAX@0@ABQAU10@@Z ; std::_Construct_in_place<std::_Tree_node<std::pair<unsigned char const ,std::array<unsigned char,3> >,void *> *,std::_Tree_node<std::pair<unsigned char const ,std::array<unsigned char,3> >,void *> * const &>
PUBLIC	??$_Construct_in_place@PAU?$_Tree_node@U?$pair@$$CBEPBD@std@@PAX@std@@ABQAU12@@std@@YAXAAPAU?$_Tree_node@U?$pair@$$CBEPBD@std@@PAX@0@ABQAU10@@Z ; std::_Construct_in_place<std::_Tree_node<std::pair<unsigned char const ,char const *>,void *> *,std::_Tree_node<std::pair<unsigned char const ,char const *>,void *> * const &>
PUBLIC	??$_Construct_in_place@PAU?$_Tree_node@U?$pair@$$CBEV?$map@EV?$vector@EV?$allocator@E@std@@@std@@U?$less@E@2@V?$allocator@U?$pair@$$CBEV?$vector@EV?$allocator@E@std@@@std@@@std@@@2@@std@@@std@@PAX@std@@ABQAU12@@std@@YAXAAPAU?$_Tree_node@U?$pair@$$CBEV?$map@EV?$vector@EV?$allocator@E@std@@@std@@U?$less@E@2@V?$allocator@U?$pair@$$CBEV?$vector@EV?$allocator@E@std@@@std@@@std@@@2@@std@@@std@@PAX@0@ABQAU10@@Z ; std::_Construct_in_place<std::_Tree_node<std::pair<unsigned char const ,std::map<unsigned char,std::vector<unsigned char,std::allocator<unsigned char> >,std::less<unsigned char>,std::allocator<std::pair<unsigned char const ,std::vector<unsigned char,std::allocator<unsigned char> > > > > >,void *> *,std::_Tree_node<std::pair<unsigned char const ,std::map<unsigned char,std::vector<unsigned char,std::allocator<unsigned char> >,std::less<unsigned char>,std::allocator<std::pair<unsigned char const ,std::vector<unsigned char,std::allocator<unsigned char> > > > > >,void *> * const &>
PUBLIC	??$_Construct_in_place@PAU?$_Tree_node@U?$pair@$$CBEV?$vector@EV?$allocator@E@std@@@std@@@std@@PAX@std@@ABQAU12@@std@@YAXAAPAU?$_Tree_node@U?$pair@$$CBEV?$vector@EV?$allocator@E@std@@@std@@@std@@PAX@0@ABQAU10@@Z ; std::_Construct_in_place<std::_Tree_node<std::pair<unsigned char const ,std::vector<unsigned char,std::allocator<unsigned char> > >,void *> *,std::_Tree_node<std::pair<unsigned char const ,std::vector<unsigned char,std::allocator<unsigned char> > >,void *> * const &>
PUBLIC	??$_Construct_in_place@PAU?$_Tree_node@U?$pair@$$CBV?$basic_string@DU?$char_traits@D@std@@V?$allocator@D@2@@std@@V?$vector@EV?$allocator@E@std@@@2@@std@@PAX@std@@ABQAU12@@std@@YAXAAPAU?$_Tree_node@U?$pair@$$CBV?$basic_string@DU?$char_traits@D@std@@V?$allocator@D@2@@std@@V?$vector@EV?$allocator@E@std@@@2@@std@@PAX@0@ABQAU10@@Z ; std::_Construct_in_place<std::_Tree_node<std::pair<std::basic_string<char,std::char_traits<char>,std::allocator<char> > const ,std::vector<unsigned char,std::allocator<unsigned char> > >,void *> *,std::_Tree_node<std::pair<std::basic_string<char,std::char_traits<char>,std::allocator<char> > const ,std::vector<unsigned char,std::allocator<unsigned char> > >,void *> * const &>
PUBLIC	??$_Construct_in_place@PAU?$_Tree_node@U?$pair@$$CBHV?$basic_string@DU?$char_traits@D@std@@V?$allocator@D@2@@std@@@std@@PAX@std@@ABQAU12@@std@@YAXAAPAU?$_Tree_node@U?$pair@$$CBHV?$basic_string@DU?$char_traits@D@std@@V?$allocator@D@2@@std@@@std@@PAX@0@ABQAU10@@Z ; std::_Construct_in_place<std::_Tree_node<std::pair<int const ,std::basic_string<char,std::char_traits<char>,std::allocator<char> > >,void *> *,std::_Tree_node<std::pair<int const ,std::basic_string<char,std::char_traits<char>,std::allocator<char> > >,void *> * const &>
PUBLIC	??$_Emplace_back@AAE@?$_Uninitialized_backout_al@V?$allocator@E@std@@@std@@QAEXAAE@Z ; std::_Uninitialized_backout_al<std::allocator<unsigned char> >::_Emplace_back<unsigned char &>
PUBLIC	??$construct_at@USEffectDamage@CInstanceBase@@ABU12@@std@@YAPAUSEffectDamage@CInstanceBase@@QAU12@ABU12@@Z ; std::construct_at<CInstanceBase::SEffectDamage,CInstanceBase::SEffectDamage const &>
PUBLIC	??$?0ABU?$pair@$$CBEV?$array@E$02@std@@@std@@@?$_Tree_temp_node@V?$allocator@U?$_Tree_node@U?$pair@$$CBEV?$array@E$02@std@@@std@@PAX@std@@@std@@@std@@QAE@AAV?$allocator@U?$_Tree_node@U?$pair@$$CBEV?$array@E$02@std@@@std@@PAX@std@@@1@PAU?$_Tree_node@U?$pair@$$CBEV?$array@E$02@std@@@std@@PAX@1@ABU?$pair@$$CBEV?$array@E$02@std@@@1@@Z ; std::_Tree_temp_node<std::allocator<std::_Tree_node<std::pair<unsigned char const ,std::array<unsigned char,3> >,void *> > >::_Tree_temp_node<std::allocator<std::_Tree_node<std::pair<unsigned char const ,std::array<unsigned char,3> >,void *> > ><std::pair<unsigned char const ,std::array<unsigned char,3> > const &>
PUBLIC	??$forward@ABU?$pair@$$CBEV?$array@E$02@std@@@std@@@std@@YAABU?$pair@$$CBEV?$array@E$02@std@@@0@ABU10@@Z ; std::forward<std::pair<unsigned char const ,std::array<unsigned char,3> > const &>
PUBLIC	??$_Find_hint@E@?$_Tree@V?$_Tmap_traits@EV?$array@E$02@std@@U?$less@E@2@V?$allocator@U?$pair@$$CBEV?$array@E$02@std@@@std@@@2@$0A@@std@@@std@@IBE?AU?$_Tree_find_hint_result@PAU?$_Tree_node@U?$pair@$$CBEV?$array@E$02@std@@@std@@PAX@std@@@1@QAU?$_Tree_node@U?$pair@$$CBEV?$array@E$02@std@@@std@@PAX@1@ABE@Z ; std::_Tree<std::_Tmap_traits<unsigned char,std::array<unsigned char,3>,std::less<unsigned char>,std::allocator<std::pair<unsigned char const ,std::array<unsigned char,3> > >,0> >::_Find_hint<unsigned char>
PUBLIC	??$?0ABU?$pair@$$CBEPBD@std@@@?$_Tree_temp_node@V?$allocator@U?$_Tree_node@U?$pair@$$CBEPBD@std@@PAX@std@@@std@@@std@@QAE@AAV?$allocator@U?$_Tree_node@U?$pair@$$CBEPBD@std@@PAX@std@@@1@PAU?$_Tree_node@U?$pair@$$CBEPBD@std@@PAX@1@ABU?$pair@$$CBEPBD@1@@Z ; std::_Tree_temp_node<std::allocator<std::_Tree_node<std::pair<unsigned char const ,char const *>,void *> > >::_Tree_temp_node<std::allocator<std::_Tree_node<std::pair<unsigned char const ,char const *>,void *> > ><std::pair<unsigned char const ,char const *> const &>
PUBLIC	??$forward@ABU?$pair@$$CBEPBD@std@@@std@@YAABU?$pair@$$CBEPBD@0@ABU10@@Z ; std::forward<std::pair<unsigned char const ,char const *> const &>
PUBLIC	??$_Find_hint@E@?$_Tree@V?$_Tmap_traits@EPBDU?$less@E@std@@V?$allocator@U?$pair@$$CBEPBD@std@@@2@$0A@@std@@@std@@IBE?AU?$_Tree_find_hint_result@PAU?$_Tree_node@U?$pair@$$CBEPBD@std@@PAX@std@@@1@QAU?$_Tree_node@U?$pair@$$CBEPBD@std@@PAX@1@ABE@Z ; std::_Tree<std::_Tmap_traits<unsigned char,char const *,std::less<unsigned char>,std::allocator<std::pair<unsigned char const ,char const *> >,0> >::_Find_hint<unsigned char>
PUBLIC	??$_Copy_nodes@$0A@@?$_Tree@V?$_Tmap_traits@EV?$vector@EV?$allocator@E@std@@@std@@U?$less@E@2@V?$allocator@U?$pair@$$CBEV?$vector@EV?$allocator@E@std@@@std@@@std@@@2@$0A@@std@@@std@@IAEPAU?$_Tree_node@U?$pair@$$CBEV?$vector@EV?$allocator@E@std@@@std@@@std@@PAX@1@PAU21@0@Z ; std::_Tree<std::_Tmap_traits<unsigned char,std::vector<unsigned char,std::allocator<unsigned char> >,std::less<unsigned char>,std::allocator<std::pair<unsigned char const ,std::vector<unsigned char,std::allocator<unsigned char> > > >,0> >::_Copy_nodes<0>
PUBLIC	??$forward@U?$less@E@std@@@std@@YA$$QAU?$less@E@0@AAU10@@Z ; std::forward<std::less<unsigned char> >
PUBLIC	??$?0ABU?$pair@$$CBEV?$map@EV?$vector@EV?$allocator@E@std@@@std@@U?$less@E@2@V?$allocator@U?$pair@$$CBEV?$vector@EV?$allocator@E@std@@@std@@@std@@@2@@std@@@std@@@?$_Tree_temp_node@V?$allocator@U?$_Tree_node@U?$pair@$$CBEV?$map@EV?$vector@EV?$allocator@E@std@@@std@@U?$less@E@2@V?$allocator@U?$pair@$$CBEV?$vector@EV?$allocator@E@std@@@std@@@std@@@2@@std@@@std@@PAX@std@@@std@@@std@@QAE@AAV?$allocator@U?$_Tree_node@U?$pair@$$CBEV?$map@EV?$vector@EV?$allocator@E@std@@@std@@U?$less@E@2@V?$allocator@U?$pair@$$CBEV?$vector@EV?$allocator@E@std@@@std@@@std@@@2@@std@@@std@@PAX@std@@@1@PAU?$_Tree_node@U?$pair@$$CBEV?$map@EV?$vector@EV?$allocator@E@std@@@std@@U?$less@E@2@V?$allocator@U?$pair@$$CBEV?$vector@EV?$allocator@E@std@@@std@@@std@@@2@@std@@@std@@PAX@1@ABU?$pair@$$CBEV?$map@EV?$vector@EV?$allocator@E@std@@@std@@U?$less@E@2@V?$allocator@U?$pair@$$CBEV?$vector@EV?$allocator@E@std@@@std@@@std@@@2@@std@@@1@@Z ; std::_Tree_temp_node<std::allocator<std::_Tree_node<std::pair<unsigned char const ,std::map<unsigned char,std::vector<unsigned char,std::allocator<unsigned char> >,std::less<unsigned char>,std::allocator<std::pair<unsigned char const ,std::vector<unsigned char,std::allocator<unsigned char> > > > > >,void *> > >::_Tree_temp_node<std::allocator<std::_Tree_node<std::pair<unsigned char const ,std::map<unsigned char,std::vector<unsigned char,std::allocator<unsigned char> >,std::less<unsigned char>,std::allocator<std::pair<unsigned char const ,std::vector<unsigned char,std::allocator<unsigned char> > > > > >,void *> > ><std::pair<unsigned char const ,std::map<unsigned char,std::vector<unsigned char,std::allocator<unsigned char> >,std::less<unsigned char>,std::allocator<std::pair<unsigned char const ,std::vector<unsigned char,std::allocator<unsigned char> > > > > > const &>
PUBLIC	??$forward@ABU?$pair@$$CBEV?$map@EV?$vector@EV?$allocator@E@std@@@std@@U?$less@E@2@V?$allocator@U?$pair@$$CBEV?$vector@EV?$allocator@E@std@@@std@@@std@@@2@@std@@@std@@@std@@YAABU?$pair@$$CBEV?$map@EV?$vector@EV?$allocator@E@std@@@std@@U?$less@E@2@V?$allocator@U?$pair@$$CBEV?$vector@EV?$allocator@E@std@@@std@@@std@@@2@@std@@@0@ABU10@@Z ; std::forward<std::pair<unsigned char const ,std::map<unsigned char,std::vector<unsigned char,std::allocator<unsigned char> >,std::less<unsigned char>,std::allocator<std::pair<unsigned char const ,std::vector<unsigned char,std::allocator<unsigned char> > > > > > const &>
PUBLIC	??$_Find_hint@E@?$_Tree@V?$_Tmap_traits@EV?$map@EV?$vector@EV?$allocator@E@std@@@std@@U?$less@E@2@V?$allocator@U?$pair@$$CBEV?$vector@EV?$allocator@E@std@@@std@@@std@@@2@@std@@U?$less@E@2@V?$allocator@U?$pair@$$CBEV?$map@EV?$vector@EV?$allocator@E@std@@@std@@U?$less@E@2@V?$allocator@U?$pair@$$CBEV?$vector@EV?$allocator@E@std@@@std@@@std@@@2@@std@@@std@@@2@$0A@@std@@@std@@IBE?AU?$_Tree_find_hint_result@PAU?$_Tree_node@U?$pair@$$CBEV?$map@EV?$vector@EV?$allocator@E@std@@@std@@U?$less@E@2@V?$allocator@U?$pair@$$CBEV?$vector@EV?$allocator@E@std@@@std@@@std@@@2@@std@@@std@@PAX@std@@@1@QAU?$_Tree_node@U?$pair@$$CBEV?$map@EV?$vector@EV?$allocator@E@std@@@std@@U?$less@E@2@V?$allocator@U?$pair@$$CBEV?$vector@EV?$allocator@E@std@@@std@@@std@@@2@@std@@@std@@PAX@1@ABE@Z ; std::_Tree<std::_Tmap_traits<unsigned char,std::map<unsigned char,std::vector<unsigned char,std::allocator<unsigned char> >,std::less<unsigned char>,std::allocator<std::pair<unsigned char const ,std::vector<unsigned char,std::allocator<unsigned char> > > > >,std::less<unsigned char>,std::allocator<std::pair<unsigned char const ,std::map<unsigned char,std::vector<unsigned char,std::allocator<unsigned char> >,std::less<unsigned char>,std::allocator<std::pair<unsigned char const ,std::vector<unsigned char,std::allocator<unsigned char> > > > > > >,0> >::_Find_hint<unsigned char>
PUBLIC	??$?0ABU?$pair@$$CBEV?$vector@EV?$allocator@E@std@@@std@@@std@@@?$_Tree_temp_node@V?$allocator@U?$_Tree_node@U?$pair@$$CBEV?$vector@EV?$allocator@E@std@@@std@@@std@@PAX@std@@@std@@@std@@QAE@AAV?$allocator@U?$_Tree_node@U?$pair@$$CBEV?$vector@EV?$allocator@E@std@@@std@@@std@@PAX@std@@@1@PAU?$_Tree_node@U?$pair@$$CBEV?$vector@EV?$allocator@E@std@@@std@@@std@@PAX@1@ABU?$pair@$$CBEV?$vector@EV?$allocator@E@std@@@std@@@1@@Z ; std::_Tree_temp_node<std::allocator<std::_Tree_node<std::pair<unsigned char const ,std::vector<unsigned char,std::allocator<unsigned char> > >,void *> > >::_Tree_temp_node<std::allocator<std::_Tree_node<std::pair<unsigned char const ,std::vector<unsigned char,std::allocator<unsigned char> > >,void *> > ><std::pair<unsigned char const ,std::vector<unsigned char,std::allocator<unsigned char> > > const &>
PUBLIC	??$forward@ABU?$pair@$$CBEV?$vector@EV?$allocator@E@std@@@std@@@std@@@std@@YAABU?$pair@$$CBEV?$vector@EV?$allocator@E@std@@@std@@@0@ABU10@@Z ; std::forward<std::pair<unsigned char const ,std::vector<unsigned char,std::allocator<unsigned char> > > const &>
PUBLIC	??$_Find_hint@E@?$_Tree@V?$_Tmap_traits@EV?$vector@EV?$allocator@E@std@@@std@@U?$less@E@2@V?$allocator@U?$pair@$$CBEV?$vector@EV?$allocator@E@std@@@std@@@std@@@2@$0A@@std@@@std@@IBE?AU?$_Tree_find_hint_result@PAU?$_Tree_node@U?$pair@$$CBEV?$vector@EV?$allocator@E@std@@@std@@@std@@PAX@std@@@1@QAU?$_Tree_node@U?$pair@$$CBEV?$vector@EV?$allocator@E@std@@@std@@@std@@PAX@1@ABE@Z ; std::_Tree<std::_Tmap_traits<unsigned char,std::vector<unsigned char,std::allocator<unsigned char> >,std::less<unsigned char>,std::allocator<std::pair<unsigned char const ,std::vector<unsigned char,std::allocator<unsigned char> > > >,0> >::_Find_hint<unsigned char>
PUBLIC	??$?0ABU?$pair@$$CBV?$basic_string@DU?$char_traits@D@std@@V?$allocator@D@2@@std@@V?$vector@EV?$allocator@E@std@@@2@@std@@@?$_Tree_temp_node@V?$allocator@U?$_Tree_node@U?$pair@$$CBV?$basic_string@DU?$char_traits@D@std@@V?$allocator@D@2@@std@@V?$vector@EV?$allocator@E@std@@@2@@std@@PAX@std@@@std@@@std@@QAE@AAV?$allocator@U?$_Tree_node@U?$pair@$$CBV?$basic_string@DU?$char_traits@D@std@@V?$allocator@D@2@@std@@V?$vector@EV?$allocator@E@std@@@2@@std@@PAX@std@@@1@PAU?$_Tree_node@U?$pair@$$CBV?$basic_string@DU?$char_traits@D@std@@V?$allocator@D@2@@std@@V?$vector@EV?$allocator@E@std@@@2@@std@@PAX@1@ABU?$pair@$$CBV?$basic_string@DU?$char_traits@D@std@@V?$allocator@D@2@@std@@V?$vector@EV?$allocator@E@std@@@2@@1@@Z ; std::_Tree_temp_node<std::allocator<std::_Tree_node<std::pair<std::basic_string<char,std::char_traits<char>,std::allocator<char> > const ,std::vector<unsigned char,std::allocator<unsigned char> > >,void *> > >::_Tree_temp_node<std::allocator<std::_Tree_node<std::pair<std::basic_string<char,std::char_traits<char>,std::allocator<char> > const ,std::vector<unsigned char,std::allocator<unsigned char> > >,void *> > ><std::pair<std::basic_string<char,std::char_traits<char>,std::allocator<char> > const ,std::vector<unsigned char,std::allocator<unsigned char> > > const &>
PUBLIC	??$forward@ABU?$pair@$$CBV?$basic_string@DU?$char_traits@D@std@@V?$allocator@D@2@@std@@V?$vector@EV?$allocator@E@std@@@2@@std@@@std@@YAABU?$pair@$$CBV?$basic_string@DU?$char_traits@D@std@@V?$allocator@D@2@@std@@V?$vector@EV?$allocator@E@std@@@2@@0@ABU10@@Z ; std::forward<std::pair<std::basic_string<char,std::char_traits<char>,std::allocator<char> > const ,std::vector<unsigned char,std::allocator<unsigned char> > > const &>
PUBLIC	??$_Find_hint@V?$basic_string@DU?$char_traits@D@std@@V?$allocator@D@2@@std@@@?$_Tree@V?$_Tmap_traits@V?$basic_string@DU?$char_traits@D@std@@V?$allocator@D@2@@std@@V?$vector@EV?$allocator@E@std@@@2@U?$less@V?$basic_string@DU?$char_traits@D@std@@V?$allocator@D@2@@std@@@2@V?$allocator@U?$pair@$$CBV?$basic_string@DU?$char_traits@D@std@@V?$allocator@D@2@@std@@V?$vector@EV?$allocator@E@std@@@2@@std@@@2@$0A@@std@@@std@@IBE?AU?$_Tree_find_hint_result@PAU?$_Tree_node@U?$pair@$$CBV?$basic_string@DU?$char_traits@D@std@@V?$allocator@D@2@@std@@V?$vector@EV?$allocator@E@std@@@2@@std@@PAX@std@@@1@QAU?$_Tree_node@U?$pair@$$CBV?$basic_string@DU?$char_traits@D@std@@V?$allocator@D@2@@std@@V?$vector@EV?$allocator@E@std@@@2@@std@@PAX@1@ABV?$basic_string@DU?$char_traits@D@std@@V?$allocator@D@2@@1@@Z ; std::_Tree<std::_Tmap_traits<std::basic_string<char,std::char_traits<char>,std::allocator<char> >,std::vector<unsigned char,std::allocator<unsigned char> >,std::less<std::basic_string<char,std::char_traits<char>,std::allocator<char> > >,std::allocator<std::pair<std::basic_string<char,std::char_traits<char>,std::allocator<char> > const ,std::vector<unsigned char,std::allocator<unsigned char> > > >,0> >::_Find_hint<std::basic_string<char,std::char_traits<char>,std::allocator<char> > >
PUBLIC	??$construct@V?$basic_string@DU?$char_traits@D@std@@V?$allocator@D@2@@std@@AAV12@@?$_Default_allocator_traits@V?$allocator@V?$basic_string@DU?$char_traits@D@std@@V?$allocator@D@2@@std@@@std@@@std@@SAXAAV?$allocator@V?$basic_string@DU?$char_traits@D@std@@V?$allocator@D@2@@std@@@1@QAV?$basic_string@DU?$char_traits@D@std@@V?$allocator@D@2@@1@AAV31@@Z ; std::_Default_allocator_traits<std::allocator<std::basic_string<char,std::char_traits<char>,std::allocator<char> > > >::construct<std::basic_string<char,std::char_traits<char>,std::allocator<char> >,std::basic_string<char,std::char_traits<char>,std::allocator<char> > &>
PUBLIC	??$forward@AAV?$basic_string@DU?$char_traits@D@std@@V?$allocator@D@2@@std@@@std@@YAAAV?$basic_string@DU?$char_traits@D@std@@V?$allocator@D@2@@0@AAV10@@Z ; std::forward<std::basic_string<char,std::char_traits<char>,std::allocator<char> > &>
PUBLIC	??$_Emplace_back@V?$basic_string@DU?$char_traits@D@std@@V?$allocator@D@2@@std@@@?$_Uninitialized_backout_al@V?$allocator@V?$basic_string@DU?$char_traits@D@std@@V?$allocator@D@2@@std@@@std@@@std@@QAEX$$QAV?$basic_string@DU?$char_traits@D@std@@V?$allocator@D@2@@1@@Z ; std::_Uninitialized_backout_al<std::allocator<std::basic_string<char,std::char_traits<char>,std::allocator<char> > > >::_Emplace_back<std::basic_string<char,std::char_traits<char>,std::allocator<char> > >
PUBLIC	??$construct_at@V?$basic_string@DU?$char_traits@D@std@@V?$allocator@D@2@@std@@V12@@std@@YAPAV?$basic_string@DU?$char_traits@D@std@@V?$allocator@D@2@@0@QAV10@$$QAV10@@Z ; std::construct_at<std::basic_string<char,std::char_traits<char>,std::allocator<char> >,std::basic_string<char,std::char_traits<char>,std::allocator<char> > >
PUBLIC	??$_Copy_memmove_tail@PAE@std@@YAPAEQBDQAEII@Z	; std::_Copy_memmove_tail<unsigned char *>
PUBLIC	??$move@AAPAE@std@@YA$$QAPAEAAPAE@Z		; std::move<unsigned char * &>
PUBLIC	??$_Copy_memmove@PAEPAE@std@@YAPAEPAE00@Z	; std::_Copy_memmove<unsigned char *,unsigned char *>
PUBLIC	??$construct_at@EABE@std@@YAPAEQAEABE@Z		; std::construct_at<unsigned char,unsigned char const &>
PUBLIC	??$destroy@U?$pair@$$CBEV?$array@E$02@std@@@std@@@?$_Default_allocator_traits@V?$allocator@U?$_Tree_node@U?$pair@$$CBEV?$array@E$02@std@@@std@@PAX@std@@@std@@@std@@SAXAAV?$allocator@U?$_Tree_node@U?$pair@$$CBEV?$array@E$02@std@@@std@@PAX@std@@@1@QAU?$pair@$$CBEV?$array@E$02@std@@@1@@Z ; std::_Default_allocator_traits<std::allocator<std::_Tree_node<std::pair<unsigned char const ,std::array<unsigned char,3> >,void *> > >::destroy<std::pair<unsigned char const ,std::array<unsigned char,3> > >
PUBLIC	??$addressof@U?$pair@$$CBEV?$array@E$02@std@@@std@@@std@@YAPAU?$pair@$$CBEV?$array@E$02@std@@@0@AAU10@@Z ; std::addressof<std::pair<unsigned char const ,std::array<unsigned char,3> > >
PUBLIC	??$destroy@U?$pair@$$CBEPBD@std@@@?$_Default_allocator_traits@V?$allocator@U?$_Tree_node@U?$pair@$$CBEPBD@std@@PAX@std@@@std@@@std@@SAXAAV?$allocator@U?$_Tree_node@U?$pair@$$CBEPBD@std@@PAX@std@@@1@QAU?$pair@$$CBEPBD@1@@Z ; std::_Default_allocator_traits<std::allocator<std::_Tree_node<std::pair<unsigned char const ,char const *>,void *> > >::destroy<std::pair<unsigned char const ,char const *> >
PUBLIC	??$addressof@U?$pair@$$CBEPBD@std@@@std@@YAPAU?$pair@$$CBEPBD@0@AAU10@@Z ; std::addressof<std::pair<unsigned char const ,char const *> >
PUBLIC	??$destroy@U?$pair@$$CBEV?$map@EV?$vector@EV?$allocator@E@std@@@std@@U?$less@E@2@V?$allocator@U?$pair@$$CBEV?$vector@EV?$allocator@E@std@@@std@@@std@@@2@@std@@@std@@@?$_Default_allocator_traits@V?$allocator@U?$_Tree_node@U?$pair@$$CBEV?$map@EV?$vector@EV?$allocator@E@std@@@std@@U?$less@E@2@V?$allocator@U?$pair@$$CBEV?$vector@EV?$allocator@E@std@@@std@@@std@@@2@@std@@@std@@PAX@std@@@std@@@std@@SAXAAV?$allocator@U?$_Tree_node@U?$pair@$$CBEV?$map@EV?$vector@EV?$allocator@E@std@@@std@@U?$less@E@2@V?$allocator@U?$pair@$$CBEV?$vector@EV?$allocator@E@std@@@std@@@std@@@2@@std@@@std@@PAX@std@@@1@QAU?$pair@$$CBEV?$map@EV?$vector@EV?$allocator@E@std@@@std@@U?$less@E@2@V?$allocator@U?$pair@$$CBEV?$vector@EV?$allocator@E@std@@@std@@@std@@@2@@std@@@1@@Z ; std::_Default_allocator_traits<std::allocator<std::_Tree_node<std::pair<unsigned char const ,std::map<unsigned char,std::vector<unsigned char,std::allocator<unsigned char> >,std::less<unsigned char>,std::allocator<std::pair<unsigned char const ,std::vector<unsigned char,std::allocator<unsigned char> > > > > >,void *> > >::destroy<std::pair<unsigned char const ,std::map<unsigned char,std::vector<unsigned char,std::allocator<unsigned char> >,std::less<unsigned char>,std::allocator<std::pair<unsigned char const ,std::vector<unsigned char,std::allocator<unsigned char> > > > > > >
PUBLIC	??$addressof@U?$pair@$$CBEV?$map@EV?$vector@EV?$allocator@E@std@@@std@@U?$less@E@2@V?$allocator@U?$pair@$$CBEV?$vector@EV?$allocator@E@std@@@std@@@std@@@2@@std@@@std@@@std@@YAPAU?$pair@$$CBEV?$map@EV?$vector@EV?$allocator@E@std@@@std@@U?$less@E@2@V?$allocator@U?$pair@$$CBEV?$vector@EV?$allocator@E@std@@@std@@@std@@@2@@std@@@0@AAU10@@Z ; std::addressof<std::pair<unsigned char const ,std::map<unsigned char,std::vector<unsigned char,std::allocator<unsigned char> >,std::less<unsigned char>,std::allocator<std::pair<unsigned char const ,std::vector<unsigned char,std::allocator<unsigned char> > > > > > >
PUBLIC	??$destroy@U?$pair@$$CBEV?$vector@EV?$allocator@E@std@@@std@@@std@@@?$_Default_allocator_traits@V?$allocator@U?$_Tree_node@U?$pair@$$CBEV?$vector@EV?$allocator@E@std@@@std@@@std@@PAX@std@@@std@@@std@@SAXAAV?$allocator@U?$_Tree_node@U?$pair@$$CBEV?$vector@EV?$allocator@E@std@@@std@@@std@@PAX@std@@@1@QAU?$pair@$$CBEV?$vector@EV?$allocator@E@std@@@std@@@1@@Z ; std::_Default_allocator_traits<std::allocator<std::_Tree_node<std::pair<unsigned char const ,std::vector<unsigned char,std::allocator<unsigned char> > >,void *> > >::destroy<std::pair<unsigned char const ,std::vector<unsigned char,std::allocator<unsigned char> > > >
PUBLIC	??$addressof@U?$pair@$$CBEV?$vector@EV?$allocator@E@std@@@std@@@std@@@std@@YAPAU?$pair@$$CBEV?$vector@EV?$allocator@E@std@@@std@@@0@AAU10@@Z ; std::addressof<std::pair<unsigned char const ,std::vector<unsigned char,std::allocator<unsigned char> > > >
PUBLIC	??$destroy@U?$pair@$$CBV?$basic_string@DU?$char_traits@D@std@@V?$allocator@D@2@@std@@V?$vector@EV?$allocator@E@std@@@2@@std@@@?$_Default_allocator_traits@V?$allocator@U?$_Tree_node@U?$pair@$$CBV?$basic_string@DU?$char_traits@D@std@@V?$allocator@D@2@@std@@V?$vector@EV?$allocator@E@std@@@2@@std@@PAX@std@@@std@@@std@@SAXAAV?$allocator@U?$_Tree_node@U?$pair@$$CBV?$basic_string@DU?$char_traits@D@std@@V?$allocator@D@2@@std@@V?$vector@EV?$allocator@E@std@@@2@@std@@PAX@std@@@1@QAU?$pair@$$CBV?$basic_string@DU?$char_traits@D@std@@V?$allocator@D@2@@std@@V?$vector@EV?$allocator@E@std@@@2@@1@@Z ; std::_Default_allocator_traits<std::allocator<std::_Tree_node<std::pair<std::basic_string<char,std::char_traits<char>,std::allocator<char> > const ,std::vector<unsigned char,std::allocator<unsigned char> > >,void *> > >::destroy<std::pair<std::basic_string<char,std::char_traits<char>,std::allocator<char> > const ,std::vector<unsigned char,std::allocator<unsigned char> > > >
PUBLIC	??$addressof@U?$pair@$$CBV?$basic_string@DU?$char_traits@D@std@@V?$allocator@D@2@@std@@V?$vector@EV?$allocator@E@std@@@2@@std@@@std@@YAPAU?$pair@$$CBV?$basic_string@DU?$char_traits@D@std@@V?$allocator@D@2@@std@@V?$vector@EV?$allocator@E@std@@@2@@0@AAU10@@Z ; std::addressof<std::pair<std::basic_string<char,std::char_traits<char>,std::allocator<char> > const ,std::vector<unsigned char,std::allocator<unsigned char> > > >
PUBLIC	??$destroy@U?$pair@$$CBHV?$basic_string@DU?$char_traits@D@std@@V?$allocator@D@2@@std@@@std@@@?$_Default_allocator_traits@V?$allocator@U?$_Tree_node@U?$pair@$$CBHV?$basic_string@DU?$char_traits@D@std@@V?$allocator@D@2@@std@@@std@@PAX@std@@@std@@@std@@SAXAAV?$allocator@U?$_Tree_node@U?$pair@$$CBHV?$basic_string@DU?$char_traits@D@std@@V?$allocator@D@2@@std@@@std@@PAX@std@@@1@QAU?$pair@$$CBHV?$basic_string@DU?$char_traits@D@std@@V?$allocator@D@2@@std@@@1@@Z ; std::_Default_allocator_traits<std::allocator<std::_Tree_node<std::pair<int const ,std::basic_string<char,std::char_traits<char>,std::allocator<char> > >,void *> > >::destroy<std::pair<int const ,std::basic_string<char,std::char_traits<char>,std::allocator<char> > > >
PUBLIC	??$forward@PAU?$_Tree_node@U?$pair@$$CBHV?$basic_string@DU?$char_traits@D@std@@V?$allocator@D@2@@std@@@std@@PAX@std@@@std@@YA$$QAPAU?$_Tree_node@U?$pair@$$CBHV?$basic_string@DU?$char_traits@D@std@@V?$allocator@D@2@@std@@@std@@PAX@0@AAPAU10@@Z ; std::forward<std::_Tree_node<std::pair<int const ,std::basic_string<char,std::char_traits<char>,std::allocator<char> > >,void *> *>
PUBLIC	??$forward@AAPAU?$_Tree_node@U?$pair@$$CBHV?$basic_string@DU?$char_traits@D@std@@V?$allocator@D@2@@std@@@std@@PAX@std@@@std@@YAAAPAU?$_Tree_node@U?$pair@$$CBHV?$basic_string@DU?$char_traits@D@std@@V?$allocator@D@2@@std@@@std@@PAX@0@AAPAU10@@Z ; std::forward<std::_Tree_node<std::pair<int const ,std::basic_string<char,std::char_traits<char>,std::allocator<char> > >,void *> * &>
PUBLIC	??$_Construct_in_place@PAU?$_Tree_node@U?$pair@$$CBHV?$basic_string@DU?$char_traits@D@std@@V?$allocator@D@2@@std@@@std@@PAX@std@@AAPAU12@@std@@YAXAAPAU?$_Tree_node@U?$pair@$$CBHV?$basic_string@DU?$char_traits@D@std@@V?$allocator@D@2@@std@@@std@@PAX@0@0@Z ; std::_Construct_in_place<std::_Tree_node<std::pair<int const ,std::basic_string<char,std::char_traits<char>,std::allocator<char> > >,void *> *,std::_Tree_node<std::pair<int const ,std::basic_string<char,std::char_traits<char>,std::allocator<char> > >,void *> * &>
PUBLIC	??$construct@U?$pair@$$CBHV?$basic_string@DU?$char_traits@D@std@@V?$allocator@D@2@@std@@@std@@U?$pair@HPBD@2@@?$_Default_allocator_traits@V?$allocator@U?$_Tree_node@U?$pair@$$CBHV?$basic_string@DU?$char_traits@D@std@@V?$allocator@D@2@@std@@@std@@PAX@std@@@std@@@std@@SAXAAV?$allocator@U?$_Tree_node@U?$pair@$$CBHV?$basic_string@DU?$char_traits@D@std@@V?$allocator@D@2@@std@@@std@@PAX@std@@@1@QAU?$pair@$$CBHV?$basic_string@DU?$char_traits@D@std@@V?$allocator@D@2@@std@@@1@$$QAU?$pair@HPBD@1@@Z ; std::_Default_allocator_traits<std::allocator<std::_Tree_node<std::pair<int const ,std::basic_string<char,std::char_traits<char>,std::allocator<char> > >,void *> > >::construct<std::pair<int const ,std::basic_string<char,std::char_traits<char>,std::allocator<char> > >,std::pair<int,char const *> >
PUBLIC	??$construct_at@PAU?$_Tree_node@KPAX@std@@AAPAU12@@std@@YAPAPAU?$_Tree_node@KPAX@0@QAPAU10@AAPAU10@@Z ; std::construct_at<std::_Tree_node<unsigned long,void *> *,std::_Tree_node<unsigned long,void *> * &>
PUBLIC	??$addressof@PAU?$_Tree_node@KPAX@std@@@std@@YAPAPAU?$_Tree_node@KPAX@0@AAPAU10@@Z ; std::addressof<std::_Tree_node<unsigned long,void *> *>
PUBLIC	??$construct_at@PAU?$_Tree_node@U?$pair@$$CBKK@std@@PAX@std@@AAPAU12@@std@@YAPAPAU?$_Tree_node@U?$pair@$$CBKK@std@@PAX@0@QAPAU10@AAPAU10@@Z ; std::construct_at<std::_Tree_node<std::pair<unsigned long const ,unsigned long>,void *> *,std::_Tree_node<std::pair<unsigned long const ,unsigned long>,void *> * &>
PUBLIC	??$construct_at@U?$pair@$$CBKK@std@@U12@@std@@YAPAU?$pair@$$CBKK@0@QAU10@$$QAU10@@Z ; std::construct_at<std::pair<unsigned long const ,unsigned long>,std::pair<unsigned long const ,unsigned long> >
PUBLIC	??$?0V?$allocator@U?$_Tree_node@U?$pair@$$CBEV?$vector@EV?$allocator@E@std@@@std@@@std@@PAX@std@@@std@@$$V@?$_Compressed_pair@V?$allocator@U?$_Tree_node@U?$pair@$$CBEV?$vector@EV?$allocator@E@std@@@std@@@std@@PAX@std@@@std@@V?$_Tree_val@U?$_Tree_simple_types@U?$pair@$$CBEV?$vector@EV?$allocator@E@std@@@std@@@std@@@std@@@2@$00@std@@QAE@U_One_then_variadic_args_t@1@$$QAV?$allocator@U?$_Tree_node@U?$pair@$$CBEV?$vector@EV?$allocator@E@std@@@std@@@std@@PAX@std@@@1@@Z ; std::_Compressed_pair<std::allocator<std::_Tree_node<std::pair<unsigned char const ,std::vector<unsigned char,std::allocator<unsigned char> > >,void *> >,std::_Tree_val<std::_Tree_simple_types<std::pair<unsigned char const ,std::vector<unsigned char,std::allocator<unsigned char> > > > >,1>::_Compressed_pair<std::allocator<std::_Tree_node<std::pair<unsigned char const ,std::vector<unsigned char,std::allocator<unsigned char> > >,void *> >,std::_Tree_val<std::_Tree_simple_types<std::pair<unsigned char const ,std::vector<unsigned char,std::allocator<unsigned char> > > > >,1><std::allocator<std::_Tree_node<std::pair<unsigned char const ,std::vector<unsigned char,std::allocator<unsigned char> > >,void *> > >
PUBLIC	??0?$_Deque_unchecked_iterator@V?$_Deque_val@U?$_Deque_simple_types@USEffectDamage@CInstanceBase@@@std@@@std@@@std@@QAE@IPBU_Container_base12@1@@Z ; std::_Deque_unchecked_iterator<std::_Deque_val<std::_Deque_simple_types<CInstanceBase::SEffectDamage> > >::_Deque_unchecked_iterator<std::_Deque_val<std::_Deque_simple_types<CInstanceBase::SEffectDamage> > >
PUBLIC	??_G?$basic_string@DU?$char_traits@D@std@@V?$allocator@D@2@@std@@QAEPAXI@Z ; std::basic_string<char,std::char_traits<char>,std::allocator<char> >::`scalar deleting destructor'
PUBLIC	??1?$_Tree_temp_node_alloc@V?$allocator@U?$_Tree_node@U?$pair@$$CBHV?$basic_string@DU?$char_traits@D@std@@V?$allocator@D@2@@std@@@std@@PAX@std@@@std@@@std@@QAE@XZ ; std::_Tree_temp_node_alloc<std::allocator<std::_Tree_node<std::pair<int const ,std::basic_string<char,std::char_traits<char>,std::allocator<char> > >,void *> > >::~_Tree_temp_node_alloc<std::allocator<std::_Tree_node<std::pair<int const ,std::basic_string<char,std::char_traits<char>,std::allocator<char> > >,void *> > >
PUBLIC	??R?$less@H@std@@QBE_NABH0@Z			; std::less<int>::operator()
PUBLIC	?max_size@?$vector@V?$basic_string@DU?$char_traits@D@std@@V?$allocator@D@2@@std@@V?$allocator@V?$basic_string@DU?$char_traits@D@std@@V?$allocator@D@2@@std@@@2@@std@@QBEIXZ ; std::vector<std::basic_string<char,std::char_traits<char>,std::allocator<char> >,std::allocator<std::basic_string<char,std::char_traits<char>,std::allocator<char> > > >::max_size
PUBLIC	?_Calculate_growth@?$vector@V?$basic_string@DU?$char_traits@D@std@@V?$allocator@D@2@@std@@V?$allocator@V?$basic_string@DU?$char_traits@D@std@@V?$allocator@D@2@@std@@@2@@std@@ABEII@Z ; std::vector<std::basic_string<char,std::char_traits<char>,std::allocator<char> >,std::allocator<std::basic_string<char,std::char_traits<char>,std::allocator<char> > > >::_Calculate_growth
PUBLIC	?_Buy_raw@?$vector@V?$basic_string@DU?$char_traits@D@std@@V?$allocator@D@2@@std@@V?$allocator@V?$basic_string@DU?$char_traits@D@std@@V?$allocator@D@2@@std@@@2@@std@@AAEXI@Z ; std::vector<std::basic_string<char,std::char_traits<char>,std::allocator<char> >,std::allocator<std::basic_string<char,std::char_traits<char>,std::allocator<char> > > >::_Buy_raw
PUBLIC	?_Change_array@?$vector@V?$basic_string@DU?$char_traits@D@std@@V?$allocator@D@2@@std@@V?$allocator@V?$basic_string@DU?$char_traits@D@std@@V?$allocator@D@2@@std@@@2@@std@@AAEXQAV?$basic_string@DU?$char_traits@D@std@@V?$allocator@D@2@@2@II@Z ; std::vector<std::basic_string<char,std::char_traits<char>,std::allocator<char> >,std::allocator<std::basic_string<char,std::char_traits<char>,std::allocator<char> > > >::_Change_array
PUBLIC	?_Xlength@?$vector@V?$basic_string@DU?$char_traits@D@std@@V?$allocator@D@2@@std@@V?$allocator@V?$basic_string@DU?$char_traits@D@std@@V?$allocator@D@2@@std@@@2@@std@@CAXXZ ; std::vector<std::basic_string<char,std::char_traits<char>,std::allocator<char> >,std::allocator<std::basic_string<char,std::char_traits<char>,std::allocator<char> > > >::_Xlength
PUBLIC	?_Orphan_range@?$vector@V?$basic_string@DU?$char_traits@D@std@@V?$allocator@D@2@@std@@V?$allocator@V?$basic_string@DU?$char_traits@D@std@@V?$allocator@D@2@@std@@@2@@std@@ABEXPAV?$basic_string@DU?$char_traits@D@std@@V?$allocator@D@2@@2@0@Z ; std::vector<std::basic_string<char,std::char_traits<char>,std::allocator<char> >,std::allocator<std::basic_string<char,std::char_traits<char>,std::allocator<char> > > >::_Orphan_range
PUBLIC	??1_Reallocation_guard@?$vector@V?$basic_string@DU?$char_traits@D@std@@V?$allocator@D@2@@std@@V?$allocator@V?$basic_string@DU?$char_traits@D@std@@V?$allocator@D@2@@std@@@2@@std@@QAE@XZ ; std::vector<std::basic_string<char,std::char_traits<char>,std::allocator<char> >,std::allocator<std::basic_string<char,std::char_traits<char>,std::allocator<char> > > >::_Reallocation_guard::~_Reallocation_guard
PUBLIC	?max_size@?$vector@EV?$allocator@E@std@@@std@@QBEIXZ ; std::vector<unsigned char,std::allocator<unsigned char> >::max_size
PUBLIC	?_Buy_raw@?$vector@EV?$allocator@E@std@@@std@@AAEXI@Z ; std::vector<unsigned char,std::allocator<unsigned char> >::_Buy_raw
PUBLIC	?_Xlength@?$vector@EV?$allocator@E@std@@@std@@CAXXZ ; std::vector<unsigned char,std::allocator<unsigned char> >::_Xlength
PUBLIC	?_Get_first@?$_Compressed_pair@V?$allocator@E@std@@V?$_Vector_val@U?$_Simple_types@E@std@@@2@$00@std@@QBEABV?$allocator@E@2@XZ ; std::_Compressed_pair<std::allocator<unsigned char>,std::_Vector_val<std::_Simple_types<unsigned char> >,1>::_Get_first
PUBLIC	?max_size@?$_Tree@V?$_Tmap_traits@KKU?$less@K@std@@V?$allocator@U?$pair@$$CBKK@std@@@2@$0A@@std@@@std@@QBEIXZ ; std::_Tree<std::_Tmap_traits<unsigned long,unsigned long,std::less<unsigned long>,std::allocator<std::pair<unsigned long const ,unsigned long> >,0> >::max_size
PUBLIC	?_Getcomp@?$_Tree@V?$_Tmap_traits@KKU?$less@K@std@@V?$allocator@U?$pair@$$CBKK@std@@@2@$0A@@std@@@std@@IBEABU?$less@K@2@XZ ; std::_Tree<std::_Tmap_traits<unsigned long,unsigned long,std::less<unsigned long>,std::allocator<std::pair<unsigned long const ,unsigned long> >,0> >::_Getcomp
PUBLIC	?_Max@?$_Tree_val@U?$_Tree_simple_types@U?$pair@$$CBKK@std@@@std@@@std@@SAPAU?$_Tree_node@U?$pair@$$CBKK@std@@PAX@2@PAU32@@Z ; std::_Tree_val<std::_Tree_simple_types<std::pair<unsigned long const ,unsigned long> > >::_Max
PUBLIC	?_Min@?$_Tree_val@U?$_Tree_simple_types@U?$pair@$$CBKK@std@@@std@@@std@@SAPAU?$_Tree_node@U?$pair@$$CBKK@std@@PAX@2@PAU32@@Z ; std::_Tree_val<std::_Tree_simple_types<std::pair<unsigned long const ,unsigned long> > >::_Min
PUBLIC	?_Lrotate@?$_Tree_val@U?$_Tree_simple_types@U?$pair@$$CBKK@std@@@std@@@std@@QAEXPAU?$_Tree_node@U?$pair@$$CBKK@std@@PAX@2@@Z ; std::_Tree_val<std::_Tree_simple_types<std::pair<unsigned long const ,unsigned long> > >::_Lrotate
PUBLIC	?_Rrotate@?$_Tree_val@U?$_Tree_simple_types@U?$pair@$$CBKK@std@@@std@@@std@@QAEXPAU?$_Tree_node@U?$pair@$$CBKK@std@@PAX@2@@Z ; std::_Tree_val<std::_Tree_simple_types<std::pair<unsigned long const ,unsigned long> > >::_Rrotate
PUBLIC	?allocate@?$allocator@USEffectDamage@CInstanceBase@@@std@@QAEPAUSEffectDamage@CInstanceBase@@I@Z ; std::allocator<CInstanceBase::SEffectDamage>::allocate
PUBLIC	?_Unchecked_begin@?$deque@USEffectDamage@CInstanceBase@@V?$allocator@USEffectDamage@CInstanceBase@@@std@@@std@@QAE?AV?$_Deque_unchecked_iterator@V?$_Deque_val@U?$_Deque_simple_types@USEffectDamage@CInstanceBase@@@std@@@std@@@2@XZ ; std::deque<CInstanceBase::SEffectDamage,std::allocator<CInstanceBase::SEffectDamage> >::_Unchecked_begin
PUBLIC	?_Unchecked_end@?$deque@USEffectDamage@CInstanceBase@@V?$allocator@USEffectDamage@CInstanceBase@@@std@@@std@@QAE?AV?$_Deque_unchecked_iterator@V?$_Deque_val@U?$_Deque_simple_types@USEffectDamage@CInstanceBase@@@std@@@std@@@2@XZ ; std::deque<CInstanceBase::SEffectDamage,std::allocator<CInstanceBase::SEffectDamage> >::_Unchecked_end
PUBLIC	?_Erase_last_n@?$deque@USEffectDamage@CInstanceBase@@V?$allocator@USEffectDamage@CInstanceBase@@@std@@@std@@AAEXI@Z ; std::deque<CInstanceBase::SEffectDamage,std::allocator<CInstanceBase::SEffectDamage> >::_Erase_last_n
PUBLIC	?_Growmap@?$deque@USEffectDamage@CInstanceBase@@V?$allocator@USEffectDamage@CInstanceBase@@@std@@@std@@AAEXI@Z ; std::deque<CInstanceBase::SEffectDamage,std::allocator<CInstanceBase::SEffectDamage> >::_Growmap
PUBLIC	?_Getblock@?$deque@USEffectDamage@CInstanceBase@@V?$allocator@USEffectDamage@CInstanceBase@@@std@@@std@@ABEHI@Z ; std::deque<CInstanceBase::SEffectDamage,std::allocator<CInstanceBase::SEffectDamage> >::_Getblock
PUBLIC	?_Subscript@?$_Deque_val@U?$_Deque_simple_types@USEffectDamage@CInstanceBase@@@std@@@std@@QAEAAUSEffectDamage@CInstanceBase@@I@Z ; std::_Deque_val<std::_Deque_simple_types<CInstanceBase::SEffectDamage> >::_Subscript
PUBLIC	??D?$_Deque_unchecked_iterator@V?$_Deque_val@U?$_Deque_simple_types@USEffectDamage@CInstanceBase@@@std@@@std@@@std@@QBEAAUSEffectDamage@CInstanceBase@@XZ ; std::_Deque_unchecked_iterator<std::_Deque_val<std::_Deque_simple_types<CInstanceBase::SEffectDamage> > >::operator*
PUBLIC	??E?$_Deque_unchecked_iterator@V?$_Deque_val@U?$_Deque_simple_types@USEffectDamage@CInstanceBase@@@std@@@std@@@std@@QAEAAV01@XZ ; std::_Deque_unchecked_iterator<std::_Deque_val<std::_Deque_simple_types<CInstanceBase::SEffectDamage> > >::operator++
PUBLIC	??G?$_Deque_unchecked_iterator@V?$_Deque_val@U?$_Deque_simple_types@USEffectDamage@CInstanceBase@@@std@@@std@@@std@@QBEHABV?$_Deque_unchecked_const_iterator@V?$_Deque_val@U?$_Deque_simple_types@USEffectDamage@CInstanceBase@@@std@@@std@@@1@@Z ; std::_Deque_unchecked_iterator<std::_Deque_val<std::_Deque_simple_types<CInstanceBase::SEffectDamage> > >::operator-
PUBLIC	??D?$_Deque_unchecked_const_iterator@V?$_Deque_val@U?$_Deque_simple_types@USEffectDamage@CInstanceBase@@@std@@@std@@@std@@QBEABUSEffectDamage@CInstanceBase@@XZ ; std::_Deque_unchecked_const_iterator<std::_Deque_val<std::_Deque_simple_types<CInstanceBase::SEffectDamage> > >::operator*
PUBLIC	??E?$_Deque_unchecked_const_iterator@V?$_Deque_val@U?$_Deque_simple_types@USEffectDamage@CInstanceBase@@@std@@@std@@@std@@QAEAAV01@XZ ; std::_Deque_unchecked_const_iterator<std::_Deque_val<std::_Deque_simple_types<CInstanceBase::SEffectDamage> > >::operator++
PUBLIC	??8?$_Deque_unchecked_const_iterator@V?$_Deque_val@U?$_Deque_simple_types@USEffectDamage@CInstanceBase@@@std@@@std@@@std@@QBE_NABV01@@Z ; std::_Deque_unchecked_const_iterator<std::_Deque_val<std::_Deque_simple_types<CInstanceBase::SEffectDamage> > >::operator==
PUBLIC	?_Unchecked_begin@?$_Tree@V?$_Tset_traits@KU?$less@K@std@@V?$allocator@K@2@$0A@@std@@@std@@QAE?AV?$_Tree_unchecked_const_iterator@V?$_Tree_val@U?$_Tree_simple_types@K@std@@@std@@U_Iterator_base0@2@@2@XZ ; std::_Tree<std::_Tset_traits<unsigned long,std::less<unsigned long>,std::allocator<unsigned long>,0> >::_Unchecked_begin
PUBLIC	?max_size@?$_Tree@V?$_Tset_traits@KU?$less@K@std@@V?$allocator@K@2@$0A@@std@@@std@@QBEIXZ ; std::_Tree<std::_Tset_traits<unsigned long,std::less<unsigned long>,std::allocator<unsigned long>,0> >::max_size
PUBLIC	?_Erase_unchecked@?$_Tree@V?$_Tset_traits@KU?$less@K@std@@V?$allocator@K@2@$0A@@std@@@std@@AAEPAU?$_Tree_node@KPAX@2@V?$_Tree_unchecked_const_iterator@V?$_Tree_val@U?$_Tree_simple_types@K@std@@@std@@U_Iterator_base0@2@@2@@Z ; std::_Tree<std::_Tset_traits<unsigned long,std::less<unsigned long>,std::allocator<unsigned long>,0> >::_Erase_unchecked
PUBLIC	?deallocate@?$_Default_allocator_traits@V?$allocator@U?$_Tree_node@KPAX@std@@@std@@@std@@SAXAAV?$allocator@U?$_Tree_node@KPAX@std@@@2@QAU?$_Tree_node@KPAX@2@I@Z ; std::_Default_allocator_traits<std::allocator<std::_Tree_node<unsigned long,void *> > >::deallocate
PUBLIC	?_Lrotate@?$_Tree_val@U?$_Tree_simple_types@K@std@@@std@@QAEXPAU?$_Tree_node@KPAX@2@@Z ; std::_Tree_val<std::_Tree_simple_types<unsigned long> >::_Lrotate
