; Listing generated by Microsoft (R) Optimizing Compiler Version 19.44.35219.0 

	TITLE	c:\anka2project\anka2project\source\binary\vs_files\userinterface\release\instancebasemotion.obj
	.686P
	.XMM
	include listing.inc
	.model	flat

INCLUDELIB OLDNAMES

EXTRN	?ELTimer_GetServerMSec@@YAKXZ:PROC		; ELTimer_GetServerMSec
EXTRN	?SetFishingPosition@CActorInstance@@QAEXAAUD3DXVECTOR3@@@Z:PROC ; CActorInstance::SetFishingPosition
EXTRN	?PixelPositionToD3DXVECTOR3@@YAXABUD3DXVECTOR3@@PAU1@@Z:PROC ; PixelPositionToD3DXVECTOR3
EXTRN	?isLock@CActorInstance@@QAEHXZ:PROC		; CActorInstance::isLock
EXTRN	?SetEndStopMotion@CGraphicThingInstance@@QAEXXZ:PROC ; CGraphicThingInstance::SetEndStopMotion
EXTRN	?ResetLocalTime@CGraphicThingInstance@@QAEXXZ:PROC ; CGraphicThingInstance::ResetLocalTime
EXTRN	?PushLoopMotion@CActorInstance@@QAE_NKMM@Z:PROC	; CActorInstance::PushLoopMotion
EXTRN	?PushOnceMotion@CActorInstance@@QAE_NKMM@Z:PROC	; CActorInstance::PushOnceMotion
EXTRN	?SetLoopMotion@CActorInstance@@QAEXKMM@Z:PROC	; CActorInstance::SetLoopMotion
PUBLIC	??$EL_DegreeToRadian@M@@YAMM@Z			; EL_DegreeToRadian<float>
PUBLIC	??$ELPlainCoord_GetRotatedPixelPosition@M@@YAXMMMMPAM0@Z ; ELPlainCoord_GetRotatedPixelPosition<float>
PUBLIC	?ActEmotion@CInstanceBase@@QAEXK@Z		; CInstanceBase::ActEmotion
PUBLIC	?ActDualEmotion@CInstanceBase@@QAEXAAV1@GG@Z	; CInstanceBase::ActDualEmotion
PUBLIC	?__DisableChangingTCPState@CInstanceBase@@IAEXXZ ; CInstanceBase::__DisableChangingTCPState
PUBLIC	?GetFishingRot@CInstanceBase@@QAEHPAH@Z		; CInstanceBase::GetFishingRot
PUBLIC	?CatchFail@CInstanceBase@@QAEXXZ		; CInstanceBase::CatchFail
PUBLIC	?CatchSuccess@CInstanceBase@@QAEXXZ		; CInstanceBase::CatchSuccess
PUBLIC	?ReactFishing@CInstanceBase@@QAEXXZ		; CInstanceBase::ReactFishing
PUBLIC	?StopFishing@CInstanceBase@@QAEXXZ		; CInstanceBase::StopFishing
PUBLIC	?StartFishing@CInstanceBase@@QAEXM@Z		; CInstanceBase::StartFishing
PUBLIC	?isLock@CInstanceBase@@QAEHXZ			; CInstanceBase::isLock
PUBLIC	?PushLoopMotion@CInstanceBase@@QAEXGMM@Z	; CInstanceBase::PushLoopMotion
PUBLIC	?PushOnceMotion@CInstanceBase@@QAEXGMM@Z	; CInstanceBase::PushOnceMotion
PUBLIC	?SetLoopMotion@CInstanceBase@@QAEXGMM@Z		; CInstanceBase::SetLoopMotion
PUBLIC	?SetMotionMode@CInstanceBase@@QAEXH@Z		; CInstanceBase::SetMotionMode
PUBLIC	?__EnableChangingTCPState@CInstanceBase@@IAEXXZ	; CInstanceBase::__EnableChangingTCPState
END
