; Listing generated by Microsoft (R) Optimizing Compiler Version 19.44.35219.0 

	TITLE	c:\anka2project\anka2project\source\binary\vs_files\userinterface\release\instancebasebattle.obj
	.686P
	.XMM
	include listing.inc
	.model	flat

INCLUDELIB OLDNAMES

PUBLIC	??_C@_03MLCJGEGC@?9_?9@				; `string'
PUBLIC	??_C@_0BO@MDJDDHGJ@CInstanceBase?3?3ProcessHitting@ ; `string'
PUBLIC	??_C@_1KO@DFFCIFAB@?$AAC?$AA?3?$AA?2?$AAA?$AAn?$AAk?$AAa?$AA2?$AAP?$AAr?$AAo?$AAj?$AAe?$AAc?$AAt@ ; `string'
PUBLIC	??_C@_1FE@CIHODCJL@?$AA?$CB?$AA?$CC?$AA?9?$AA_?$AA?9?$AA?$CC?$AA?5?$AA?$CG?$AA?$CG?$AA?5?$AA?$CC?$AAC?$AAI?$AAn?$AAs@ ; `string'
PUBLIC	??_C@_0BB@GCADKGJO@map?1set?5too?5long@		; `string'
EXTRN	?Die@CActorInstance@@QAEXXZ:PROC		; CActorInstance::Die
EXTRN	?Stun@CActorInstance@@QAEXXZ:PROC		; CActorInstance::Stun
EXTRN	?Revive@CActorInstance@@QAEXXZ:PROC		; CActorInstance::Revive
EXTRN	?SetBlendingPosition@CActorInstance@@QAEXABUD3DXVECTOR3@@M@Z:PROC ; CActorInstance::SetBlendingPosition
EXTRN	?GetBlendingPosition@CActorInstance@@QAEXPAUD3DXVECTOR3@@@Z:PROC ; CActorInstance::GetBlendingPosition
EXTRN	?GetAttackingElapsedTime@CActorInstance@@QAEMXZ:PROC ; CActorInstance::GetAttackingElapsedTime
EXTRN	?GetComboIndex@CActorInstance@@QAEKXZ:PROC	; CActorInstance::GetComboIndex
EXTRN	?GetNormalAttackIndex@CActorInstance@@QAEKXZ:PROC ; CActorInstance::GetNormalAttackIndex
EXTRN	?isComboAttacking@CActorInstance@@QAEHXZ:PROC	; CActorInstance::isComboAttacking
EXTRN	?isNormalAttacking@CActorInstance@@QAEHXZ:PROC	; CActorInstance::isNormalAttacking
EXTRN	?AttackingProcess@CActorInstance@@QAEHAAV1@@Z:PROC ; CActorInstance::AttackingProcess
EXTRN	?AdjustDynamicCollisionMovement@CActorInstance@@QAEXPBV1@@Z:PROC ; CActorInstance::AdjustDynamicCollisionMovement
EXTRN	?CanSkipCollision@CActorInstance@@QAE_NXZ:PROC	; CActorInstance::CanSkipCollision
EXTRN	?TestActorCollision@CActorInstance@@QAEHAAV1@@Z:PROC ; CActorInstance::TestActorCollision
EXTRN	?ComboAttack@CActorInstance@@QAEHKMM@Z:PROC	; CActorInstance::ComboAttack
EXTRN	?NormalAttack@CActorInstance@@QAEHMM@Z:PROC	; CActorInstance::NormalAttack
EXTRN	?InputComboAttackCommand@CActorInstance@@QAE_NM@Z:PROC ; CActorInstance::InputComboAttackCommand
EXTRN	?InputNormalAttackCommand@CActorInstance@@QAEXM@Z:PROC ; CActorInstance::InputNormalAttackCommand
EXTRN	?CanCheckAttacking@CActorInstance@@QAEHXZ:PROC	; CActorInstance::CanCheckAttacking
EXTRN	?SetMotionLoopCount@CActorInstance@@QAEXH@Z:PROC ; CActorInstance::SetMotionLoopCount
EXTRN	?__OnUseSkill@CActorInstance@@QAEXII_N@Z:PROC	; CActorInstance::__OnUseSkill
EXTRN	?IsClickableDistanceDestInstance@CActorInstance@@QAEHAAV1@M@Z:PROC ; CActorInstance::IsClickableDistanceDestInstance
EXTRN	_D3DXVec3TransformCoord@12:PROC
EXTRN	_D3DXMatrixRotationZ@8:PROC
EXTRN	?frandom@@YAMMM@Z:PROC				; frandom
EXTRN	??0CFlyTarget@@QAE@ABUD3DXVECTOR3@@@Z:PROC	; CFlyTarget::CFlyTarget
EXTRN	?AddFlyTarget@CActorInstance@@QAEXABVCFlyTarget@@@Z:PROC ; CActorInstance::AddFlyTarget
EXTRN	??1CFlyTarget@@UAE@XZ:PROC			; CFlyTarget::~CFlyTarget
EXTRN	??0CFlyTarget@@QAE@PAVIFlyTargetableObject@@@Z:PROC ; CFlyTarget::CFlyTarget
EXTRN	?SetFlyTarget@CActorInstance@@QAEXABVCFlyTarget@@@Z:PROC ; CActorInstance::SetFlyTarget
EXTRN	?ClearFlyTarget@CActorInstance@@QAEXXZ:PROC	; CActorInstance::ClearFlyTarget
EXTRN	?GetFlyTargetDistance@CActorInstance@@QAEMXZ:PROC ; CActorInstance::GetFlyTargetDistance
EXTRN	?IsFlyTargetObject@CActorInstance@@QAE_NXZ:PROC	; CActorInstance::IsFlyTargetObject
EXTRN	_D3DXVec3Normalize@8:PROC
;	COMDAT ??_C@_0BB@GCADKGJO@map?1set?5too?5long@
CONST	SEGMENT
??_C@_0BB@GCADKGJO@map?1set?5too?5long@ DB 'map/set too long', 00H ; `string'
CONST	ENDS
;	COMDAT ??_C@_1FE@CIHODCJL@?$AA?$CB?$AA?$CC?$AA?9?$AA_?$AA?9?$AA?$CC?$AA?5?$AA?$CG?$AA?$CG?$AA?5?$AA?$CC?$AAC?$AAI?$AAn?$AAs@
CONST	SEGMENT
??_C@_1FE@CIHODCJL@?$AA?$CB?$AA?$CC?$AA?9?$AA_?$AA?9?$AA?$CC?$AA?5?$AA?$CG?$AA?$CG?$AA?5?$AA?$CC?$AAC?$AAI?$AAn?$AAs@ DB '!'
	DB	00H, '"', 00H, '-', 00H, '_', 00H, '-', 00H, '"', 00H, ' ', 00H
	DB	'&', 00H, '&', 00H, ' ', 00H, '"', 00H, 'C', 00H, 'I', 00H, 'n'
	DB	00H, 's', 00H, 't', 00H, 'a', 00H, 'n', 00H, 'c', 00H, 'e', 00H
	DB	'B', 00H, 'a', 00H, 's', 00H, 'e', 00H, ':', 00H, ':', 00H, 'P'
	DB	00H, 'r', 00H, 'o', 00H, 'c', 00H, 'e', 00H, 's', 00H, 's', 00H
	DB	'H', 00H, 'i', 00H, 't', 00H, 't', 00H, 'i', 00H, 'n', 00H, 'g'
	DB	00H, '"', 00H, 00H, 00H			; `string'
CONST	ENDS
;	COMDAT ??_C@_1KO@DFFCIFAB@?$AAC?$AA?3?$AA?2?$AAA?$AAn?$AAk?$AAa?$AA2?$AAP?$AAr?$AAo?$AAj?$AAe?$AAc?$AAt@
CONST	SEGMENT
??_C@_1KO@DFFCIFAB@?$AAC?$AA?3?$AA?2?$AAA?$AAn?$AAk?$AAa?$AA2?$AAP?$AAr?$AAo?$AAj?$AAe?$AAc?$AAt@ DB 'C'
	DB	00H, ':', 00H, '\', 00H, 'A', 00H, 'n', 00H, 'k', 00H, 'a', 00H
	DB	'2', 00H, 'P', 00H, 'r', 00H, 'o', 00H, 'j', 00H, 'e', 00H, 'c'
	DB	00H, 't', 00H, '\', 00H, 'A', 00H, 'n', 00H, 'k', 00H, 'a', 00H
	DB	'2', 00H, 'P', 00H, 'r', 00H, 'o', 00H, 'j', 00H, 'e', 00H, 'c'
	DB	00H, 't', 00H, '\', 00H, 'S', 00H, 'o', 00H, 'u', 00H, 'r', 00H
	DB	'c', 00H, 'e', 00H, '\', 00H, 'B', 00H, 'i', 00H, 'n', 00H, 'a'
	DB	00H, 'r', 00H, 'y', 00H, '\', 00H, 's', 00H, 'o', 00H, 'u', 00H
	DB	'r', 00H, 'c', 00H, 'e', 00H, '\', 00H, 'U', 00H, 's', 00H, 'e'
	DB	00H, 'r', 00H, 'I', 00H, 'n', 00H, 't', 00H, 'e', 00H, 'r', 00H
	DB	'f', 00H, 'a', 00H, 'c', 00H, 'e', 00H, '\', 00H, 'I', 00H, 'n'
	DB	00H, 's', 00H, 't', 00H, 'a', 00H, 'n', 00H, 'c', 00H, 'e', 00H
	DB	'B', 00H, 'a', 00H, 's', 00H, 'e', 00H, 'B', 00H, 'a', 00H, 't'
	DB	00H, 't', 00H, 'l', 00H, 'e', 00H, '.', 00H, 'c', 00H, 'p', 00H
	DB	'p', 00H, 00H, 00H				; `string'
CONST	ENDS
;	COMDAT ??_C@_0BO@MDJDDHGJ@CInstanceBase?3?3ProcessHitting@
CONST	SEGMENT
??_C@_0BO@MDJDDHGJ@CInstanceBase?3?3ProcessHitting@ DB 'CInstanceBase::Pr'
	DB	'ocessHitting', 00H				; `string'
CONST	ENDS
;	COMDAT ??_C@_03MLCJGEGC@?9_?9@
CONST	SEGMENT
??_C@_03MLCJGEGC@?9_?9@ DB '-_-', 00H			; `string'
PUBLIC	??0D3DXMATRIX@@QAE@XZ				; D3DXMATRIX::D3DXMATRIX
PUBLIC	_acosf
PUBLIC	??KD3DXVECTOR3@@QBE?AU0@M@Z			; D3DXVECTOR3::operator/
PUBLIC	??YD3DXVECTOR3@@QAEAAU0@ABU0@@Z			; D3DXVECTOR3::operator+=
PUBLIC	?_Throw_tree_length_error@std@@YAXXZ		; std::_Throw_tree_length_error
PUBLIC	??$?0MPAVCInstanceBase@@$0A@@?$pair@$$CBMPAVCInstanceBase@@@std@@QAE@$$QAU?$pair@MPAVCInstanceBase@@@1@@Z ; std::pair<float const ,CInstanceBase *>::pair<float const ,CInstanceBase *><float,CInstanceBase *,0>
PUBLIC	??$construct_at@U?$pair@$$CBMPAVCInstanceBase@@@std@@U?$pair@MPAVCInstanceBase@@@2@@std@@YAPAU?$pair@$$CBMPAVCInstanceBase@@@0@QAU10@$$QAU?$pair@MPAVCInstanceBase@@@0@@Z ; std::construct_at<std::pair<float const ,CInstanceBase *>,std::pair<float,CInstanceBase *> >
PUBLIC	?_Get_first@?$_Compressed_pair@V?$allocator@U?$_Tree_node@U?$pair@$$CBMPAVCInstanceBase@@@std@@PAX@std@@@std@@V?$_Tree_val@U?$_Tree_simple_types@U?$pair@$$CBMPAVCInstanceBase@@@std@@@std@@@2@$00@std@@QBEABV?$allocator@U?$_Tree_node@U?$pair@$$CBMPAVCInstanceBase@@@std@@PAX@std@@@2@XZ ; std::_Compressed_pair<std::allocator<std::_Tree_node<std::pair<float const ,CInstanceBase *>,void *> >,std::_Tree_val<std::_Tree_simple_types<std::pair<float const ,CInstanceBase *> > >,1>::_Get_first
PUBLIC	??$construct_at@PAU?$_Tree_node@U?$pair@$$CBMPAVCInstanceBase@@@std@@PAX@std@@ABQAU12@@std@@YAPAPAU?$_Tree_node@U?$pair@$$CBMPAVCInstanceBase@@@std@@PAX@0@QAPAU10@ABQAU10@@Z ; std::construct_at<std::_Tree_node<std::pair<float const ,CInstanceBase *>,void *> *,std::_Tree_node<std::pair<float const ,CInstanceBase *>,void *> * const &>
PUBLIC	??$forward@ABQAU?$_Tree_node@U?$pair@$$CBMPAVCInstanceBase@@@std@@PAX@std@@@std@@YAABQAU?$_Tree_node@U?$pair@$$CBMPAVCInstanceBase@@@std@@PAX@0@ABQAU10@@Z ; std::forward<std::_Tree_node<std::pair<float const ,CInstanceBase *>,void *> * const &>
PUBLIC	??$construct@U?$pair@$$CBMPAVCInstanceBase@@@std@@U?$pair@MPAVCInstanceBase@@@2@@?$_Default_allocator_traits@V?$allocator@U?$_Tree_node@U?$pair@$$CBMPAVCInstanceBase@@@std@@PAX@std@@@std@@@std@@SAXAAV?$allocator@U?$_Tree_node@U?$pair@$$CBMPAVCInstanceBase@@@std@@PAX@std@@@1@QAU?$pair@$$CBMPAVCInstanceBase@@@1@$$QAU?$pair@MPAVCInstanceBase@@@1@@Z ; std::_Default_allocator_traits<std::allocator<std::_Tree_node<std::pair<float const ,CInstanceBase *>,void *> > >::construct<std::pair<float const ,CInstanceBase *>,std::pair<float,CInstanceBase *> >
PUBLIC	?_Getal@?$_Tree@V?$_Tmap_traits@MPAVCInstanceBase@@U?$less@M@std@@V?$allocator@U?$pair@$$CBMPAVCInstanceBase@@@std@@@3@$00@std@@@std@@IBEABV?$allocator@U?$_Tree_node@U?$pair@$$CBMPAVCInstanceBase@@@std@@PAX@std@@@2@XZ ; std::_Tree<std::_Tmap_traits<float,CInstanceBase *,std::less<float>,std::allocator<std::pair<float const ,CInstanceBase *> >,1> >::_Getal
PUBLIC	??0?$allocator@U?$_Tree_node@U?$pair@$$CBMPAVCInstanceBase@@@std@@PAX@std@@@std@@QAE@XZ ; std::allocator<std::_Tree_node<std::pair<float const ,CInstanceBase *>,void *> >::allocator<std::_Tree_node<std::pair<float const ,CInstanceBase *>,void *> >
PUBLIC	?deallocate@?$allocator@U?$_Tree_node@U?$pair@$$CBMPAVCInstanceBase@@@std@@PAX@std@@@std@@QAEXQAU?$_Tree_node@U?$pair@$$CBMPAVCInstanceBase@@@std@@PAX@2@I@Z ; std::allocator<std::_Tree_node<std::pair<float const ,CInstanceBase *>,void *> >::deallocate
PUBLIC	?allocate@?$allocator@U?$_Tree_node@U?$pair@$$CBMPAVCInstanceBase@@@std@@PAX@std@@@std@@QAEPAU?$_Tree_node@U?$pair@$$CBMPAVCInstanceBase@@@std@@PAX@2@I@Z ; std::allocator<std::_Tree_node<std::pair<float const ,CInstanceBase *>,void *> >::allocate
PUBLIC	?max_size@?$_Default_allocator_traits@V?$allocator@U?$_Tree_node@U?$pair@$$CBMPAVCInstanceBase@@@std@@PAX@std@@@std@@@std@@SAIABV?$allocator@U?$_Tree_node@U?$pair@$$CBMPAVCInstanceBase@@@std@@PAX@std@@@2@@Z ; std::_Default_allocator_traits<std::allocator<std::_Tree_node<std::pair<float const ,CInstanceBase *>,void *> > >::max_size
PUBLIC	??0?$_Tree_val@U?$_Tree_simple_types@U?$pair@$$CBMPAVCInstanceBase@@@std@@@std@@@std@@QAE@XZ ; std::_Tree_val<std::_Tree_simple_types<std::pair<float const ,CInstanceBase *> > >::_Tree_val<std::_Tree_simple_types<std::pair<float const ,CInstanceBase *> > >
PUBLIC	?_Get_first@?$_Compressed_pair@U?$less@M@std@@V?$_Compressed_pair@V?$allocator@U?$_Tree_node@U?$pair@$$CBMPAVCInstanceBase@@@std@@PAX@std@@@std@@V?$_Tree_val@U?$_Tree_simple_types@U?$pair@$$CBMPAVCInstanceBase@@@std@@@std@@@2@$00@2@$00@std@@QBEABU?$less@M@2@XZ ; std::_Compressed_pair<std::less<float>,std::_Compressed_pair<std::allocator<std::_Tree_node<std::pair<float const ,CInstanceBase *>,void *> >,std::_Tree_val<std::_Tree_simple_types<std::pair<float const ,CInstanceBase *> > >,1>,1>::_Get_first
PUBLIC	??0?$_Alloc_construct_ptr@V?$allocator@U?$_Tree_node@U?$pair@$$CBMPAVCInstanceBase@@@std@@PAX@std@@@std@@@std@@QAE@AAV?$allocator@U?$_Tree_node@U?$pair@$$CBMPAVCInstanceBase@@@std@@PAX@std@@@1@@Z ; std::_Alloc_construct_ptr<std::allocator<std::_Tree_node<std::pair<float const ,CInstanceBase *>,void *> > >::_Alloc_construct_ptr<std::allocator<std::_Tree_node<std::pair<float const ,CInstanceBase *>,void *> > >
PUBLIC	?_Allocate@?$_Alloc_construct_ptr@V?$allocator@U?$_Tree_node@U?$pair@$$CBMPAVCInstanceBase@@@std@@PAX@std@@@std@@@std@@QAEXXZ ; std::_Alloc_construct_ptr<std::allocator<std::_Tree_node<std::pair<float const ,CInstanceBase *>,void *> > >::_Allocate
PUBLIC	??$_Construct_in_place@PAU?$_Tree_node@U?$pair@$$CBMPAVCInstanceBase@@@std@@PAX@std@@ABQAU12@@std@@YAXAAPAU?$_Tree_node@U?$pair@$$CBMPAVCInstanceBase@@@std@@PAX@0@ABQAU10@@Z ; std::_Construct_in_place<std::_Tree_node<std::pair<float const ,CInstanceBase *>,void *> *,std::_Tree_node<std::pair<float const ,CInstanceBase *>,void *> * const &>
PUBLIC	??$destroy_at@U?$pair@$$CBMPAVCInstanceBase@@@std@@@std@@YAXQAU?$pair@$$CBMPAVCInstanceBase@@@0@@Z ; std::destroy_at<std::pair<float const ,CInstanceBase *> >
PUBLIC	??$forward@V?$_Tree_iterator@V?$_Tree_val@U?$_Tree_simple_types@U?$pair@$$CBMPAVCInstanceBase@@@std@@@std@@@std@@@std@@@std@@YA$$QAV?$_Tree_iterator@V?$_Tree_val@U?$_Tree_simple_types@U?$pair@$$CBMPAVCInstanceBase@@@std@@@std@@@std@@@0@AAV10@@Z ; std::forward<std::_Tree_iterator<std::_Tree_val<std::_Tree_simple_types<std::pair<float const ,CInstanceBase *> > > > >
PUBLIC	??$?0U?$pair@MPAVCInstanceBase@@@std@@@?$_Tree_temp_node@V?$allocator@U?$_Tree_node@U?$pair@$$CBMPAVCInstanceBase@@@std@@PAX@std@@@std@@@std@@QAE@AAV?$allocator@U?$_Tree_node@U?$pair@$$CBMPAVCInstanceBase@@@std@@PAX@std@@@1@PAU?$_Tree_node@U?$pair@$$CBMPAVCInstanceBase@@@std@@PAX@1@$$QAU?$pair@MPAVCInstanceBase@@@1@@Z ; std::_Tree_temp_node<std::allocator<std::_Tree_node<std::pair<float const ,CInstanceBase *>,void *> > >::_Tree_temp_node<std::allocator<std::_Tree_node<std::pair<float const ,CInstanceBase *>,void *> > ><std::pair<float,CInstanceBase *> >
PUBLIC	??$construct_at@PAU?$_Tree_node@U?$pair@$$CBMPAVCInstanceBase@@@std@@PAX@std@@AAPAU12@@std@@YAPAPAU?$_Tree_node@U?$pair@$$CBMPAVCInstanceBase@@@std@@PAX@0@QAPAU10@AAPAU10@@Z ; std::construct_at<std::_Tree_node<std::pair<float const ,CInstanceBase *>,void *> *,std::_Tree_node<std::pair<float const ,CInstanceBase *>,void *> * &>
PUBLIC	??$forward@AAPAU?$_Tree_node@U?$pair@$$CBMPAVCInstanceBase@@@std@@PAX@std@@@std@@YAAAPAU?$_Tree_node@U?$pair@$$CBMPAVCInstanceBase@@@std@@PAX@0@AAPAU10@@Z ; std::forward<std::_Tree_node<std::pair<float const ,CInstanceBase *>,void *> * &>
PUBLIC	??$addressof@PAU?$_Tree_node@U?$pair@$$CBMPAVCInstanceBase@@@std@@PAX@std@@@std@@YAPAPAU?$_Tree_node@U?$pair@$$CBMPAVCInstanceBase@@@std@@PAX@0@AAPAU10@@Z ; std::addressof<std::_Tree_node<std::pair<float const ,CInstanceBase *>,void *> *>
PUBLIC	??$construct_at@U?$pair@$$CBMPAVCInstanceBase@@@std@@U12@@std@@YAPAU?$pair@$$CBMPAVCInstanceBase@@@0@QAU10@$$QAU10@@Z ; std::construct_at<std::pair<float const ,CInstanceBase *>,std::pair<float const ,CInstanceBase *> >
PUBLIC	??R?$less@M@std@@QBE_NABM0@Z			; std::less<float>::operator()
PUBLIC	?_Min@?$_Tree_val@U?$_Tree_simple_types@U?$pair@$$CBKPAVCInstanceBase@@@std@@@std@@@std@@SAPAU?$_Tree_node@U?$pair@$$CBKPAVCInstanceBase@@@std@@PAX@2@PAU32@@Z ; std::_Tree_val<std::_Tree_simple_types<std::pair<unsigned long const ,CInstanceBase *> > >::_Min
PUBLIC	?max_size@?$_Tree@V?$_Tmap_traits@MPAVCInstanceBase@@U?$less@M@std@@V?$allocator@U?$pair@$$CBMPAVCInstanceBase@@@std@@@3@$00@std@@@std@@QBEIXZ ; std::_Tree<std::_Tmap_traits<float,CInstanceBase *,std::less<float>,std::allocator<std::pair<float const ,CInstanceBase *> >,1> >::max_size
PUBLIC	?_Getcomp@?$_Tree@V?$_Tmap_traits@MPAVCInstanceBase@@U?$less@M@std@@V?$allocator@U?$pair@$$CBMPAVCInstanceBase@@@std@@@3@$00@std@@@std@@IBEABU?$less@M@2@XZ ; std::_Tree<std::_Tmap_traits<float,CInstanceBase *,std::less<float>,std::allocator<std::pair<float const ,CInstanceBase *> >,1> >::_Getcomp
PUBLIC	?deallocate@?$_Default_allocator_traits@V?$allocator@U?$_Tree_node@U?$pair@$$CBMPAVCInstanceBase@@@std@@PAX@std@@@std@@@std@@SAXAAV?$allocator@U?$_Tree_node@U?$pair@$$CBMPAVCInstanceBase@@@std@@PAX@std@@@2@QAU?$_Tree_node@U?$pair@$$CBMPAVCInstanceBase@@@std@@PAX@2@I@Z ; std::_Default_allocator_traits<std::allocator<std::_Tree_node<std::pair<float const ,CInstanceBase *>,void *> > >::deallocate
PUBLIC	?_Min@?$_Tree_val@U?$_Tree_simple_types@U?$pair@$$CBMPAVCInstanceBase@@@std@@@std@@@std@@SAPAU?$_Tree_node@U?$pair@$$CBMPAVCInstanceBase@@@std@@PAX@2@PAU32@@Z ; std::_Tree_val<std::_Tree_simple_types<std::pair<float const ,CInstanceBase *> > >::_Min
PUBLIC	?_Lrotate@?$_Tree_val@U?$_Tree_simple_types@U?$pair@$$CBMPAVCInstanceBase@@@std@@@std@@@std@@QAEXPAU?$_Tree_node@U?$pair@$$CBMPAVCInstanceBase@@@std@@PAX@2@@Z ; std::_Tree_val<std::_Tree_simple_types<std::pair<float const ,CInstanceBase *> > >::_Lrotate
PUBLIC	?_Rrotate@?$_Tree_val@U?$_Tree_simple_types@U?$pair@$$CBMPAVCInstanceBase@@@std@@@std@@@std@@QAEXPAU?$_Tree_node@U?$pair@$$CBMPAVCInstanceBase@@@std@@PAX@2@@Z ; std::_Tree_val<std::_Tree_simple_types<std::pair<float const ,CInstanceBase *> > >::_Rrotate
PUBLIC	??0?$_Tree_temp_node_alloc@V?$allocator@U?$_Tree_node@U?$pair@$$CBMPAVCInstanceBase@@@std@@PAX@std@@@std@@@std@@QAE@AAV?$allocator@U?$_Tree_node@U?$pair@$$CBMPAVCInstanceBase@@@std@@PAX@std@@@1@@Z ; std::_Tree_temp_node_alloc<std::allocator<std::_Tree_node<std::pair<float const ,CInstanceBase *>,void *> > >::_Tree_temp_node_alloc<std::allocator<std::_Tree_node<std::pair<float const ,CInstanceBase *>,void *> > >
PUBLIC	??1?$_Alloc_construct_ptr@V?$allocator@U?$_Tree_node@U?$pair@$$CBMPAVCInstanceBase@@@std@@PAX@std@@@std@@@std@@QAE@XZ ; std::_Alloc_construct_ptr<std::allocator<std::_Tree_node<std::pair<float const ,CInstanceBase *>,void *> > >::~_Alloc_construct_ptr<std::allocator<std::_Tree_node<std::pair<float const ,CInstanceBase *>,void *> > >
PUBLIC	??$_Buyheadnode@V?$allocator@U?$_Tree_node@U?$pair@$$CBMPAVCInstanceBase@@@std@@PAX@std@@@std@@@?$_Tree_node@U?$pair@$$CBMPAVCInstanceBase@@@std@@PAX@std@@SAPAU01@AAV?$allocator@U?$_Tree_node@U?$pair@$$CBMPAVCInstanceBase@@@std@@PAX@std@@@1@@Z ; std::_Tree_node<std::pair<float const ,CInstanceBase *>,void *>::_Buyheadnode<std::allocator<std::_Tree_node<std::pair<float const ,CInstanceBase *>,void *> > >
PUBLIC	??$destroy@U?$pair@$$CBMPAVCInstanceBase@@@std@@@?$_Default_allocator_traits@V?$allocator@U?$_Tree_node@U?$pair@$$CBMPAVCInstanceBase@@@std@@PAX@std@@@std@@@std@@SAXAAV?$allocator@U?$_Tree_node@U?$pair@$$CBMPAVCInstanceBase@@@std@@PAX@std@@@1@QAU?$pair@$$CBMPAVCInstanceBase@@@1@@Z ; std::_Default_allocator_traits<std::allocator<std::_Tree_node<std::pair<float const ,CInstanceBase *>,void *> > >::destroy<std::pair<float const ,CInstanceBase *> >
PUBLIC	??$exchange@PAU?$_Tree_node@U?$pair@$$CBMPAVCInstanceBase@@@std@@PAX@std@@$$T@std@@YAPAU?$_Tree_node@U?$pair@$$CBMPAVCInstanceBase@@@std@@PAX@0@AAPAU10@$$QA$$T@Z ; std::exchange<std::_Tree_node<std::pair<float const ,CInstanceBase *>,void *> *,std::nullptr_t>
PUBLIC	??$forward@ABU?$less@M@std@@@std@@YAABU?$less@M@0@ABU10@@Z ; std::forward<std::less<float> const &>
PUBLIC	??$_Destroy_in_place@PAU?$_Tree_node@U?$pair@$$CBMPAVCInstanceBase@@@std@@PAX@std@@@std@@YAXAAPAU?$_Tree_node@U?$pair@$$CBMPAVCInstanceBase@@@std@@PAX@0@@Z ; std::_Destroy_in_place<std::_Tree_node<std::pair<float const ,CInstanceBase *>,void *> *>
PUBLIC	??$_Freenode@V?$allocator@U?$_Tree_node@U?$pair@$$CBMPAVCInstanceBase@@@std@@PAX@std@@@std@@@?$_Tree_node@U?$pair@$$CBMPAVCInstanceBase@@@std@@PAX@std@@SAXAAV?$allocator@U?$_Tree_node@U?$pair@$$CBMPAVCInstanceBase@@@std@@PAX@std@@@1@PAU01@@Z ; std::_Tree_node<std::pair<float const ,CInstanceBase *>,void *>::_Freenode<std::allocator<std::_Tree_node<std::pair<float const ,CInstanceBase *>,void *> > >
PUBLIC	??$exchange@PAU?$_Tree_node@U?$pair@$$CBMPAVCInstanceBase@@@std@@PAX@std@@AAPAU12@@std@@YAPAU?$_Tree_node@U?$pair@$$CBMPAVCInstanceBase@@@std@@PAX@0@AAPAU10@0@Z ; std::exchange<std::_Tree_node<std::pair<float const ,CInstanceBase *>,void *> *,std::_Tree_node<std::pair<float const ,CInstanceBase *>,void *> * &>
PUBLIC	??$?0V?$_Tree_iterator@V?$_Tree_val@U?$_Tree_simple_types@U?$pair@$$CBMPAVCInstanceBase@@@std@@@std@@@std@@@std@@AB_N$0A@@?$pair@V?$_Tree_iterator@V?$_Tree_val@U?$_Tree_simple_types@U?$pair@$$CBMPAVCInstanceBase@@@std@@@std@@@std@@@std@@_N@std@@QAE@$$QAV?$_Tree_iterator@V?$_Tree_val@U?$_Tree_simple_types@U?$pair@$$CBMPAVCInstanceBase@@@std@@@std@@@std@@@1@AB_N@Z ; std::pair<std::_Tree_iterator<std::_Tree_val<std::_Tree_simple_types<std::pair<float const ,CInstanceBase *> > > >,bool>::pair<std::_Tree_iterator<std::_Tree_val<std::_Tree_simple_types<std::pair<float const ,CInstanceBase *> > > >,bool><std::_Tree_iterator<std::_Tree_val<std::_Tree_simple_types<std::pair<float const ,CInstanceBase *> > > >,bool const &,0>
PUBLIC	??$_Emplace@U?$pair@MPAVCInstanceBase@@@std@@@?$_Tree@V?$_Tmap_traits@MPAVCInstanceBase@@U?$less@M@std@@V?$allocator@U?$pair@$$CBMPAVCInstanceBase@@@std@@@3@$00@std@@@std@@IAE?AU?$pair@PAU?$_Tree_node@U?$pair@$$CBMPAVCInstanceBase@@@std@@PAX@std@@_N@1@$$QAU?$pair@MPAVCInstanceBase@@@1@@Z ; std::_Tree<std::_Tmap_traits<float,CInstanceBase *,std::less<float>,std::allocator<std::pair<float const ,CInstanceBase *> >,1> >::_Emplace<std::pair<float,CInstanceBase *> >
PUBLIC	??$forward@PAU?$_Tree_node@U?$pair@$$CBMPAVCInstanceBase@@@std@@PAX@std@@@std@@YA$$QAPAU?$_Tree_node@U?$pair@$$CBMPAVCInstanceBase@@@std@@PAX@0@AAPAU10@@Z ; std::forward<std::_Tree_node<std::pair<float const ,CInstanceBase *>,void *> *>
PUBLIC	??$_Construct_in_place@PAU?$_Tree_node@U?$pair@$$CBMPAVCInstanceBase@@@std@@PAX@std@@AAPAU12@@std@@YAXAAPAU?$_Tree_node@U?$pair@$$CBMPAVCInstanceBase@@@std@@PAX@0@0@Z ; std::_Construct_in_place<std::_Tree_node<std::pair<float const ,CInstanceBase *>,void *> *,std::_Tree_node<std::pair<float const ,CInstanceBase *>,void *> * &>
PUBLIC	??$construct@U?$pair@$$CBMPAVCInstanceBase@@@std@@U12@@?$_Default_allocator_traits@V?$allocator@U?$_Tree_node@U?$pair@$$CBMPAVCInstanceBase@@@std@@PAX@std@@@std@@@std@@SAXAAV?$allocator@U?$_Tree_node@U?$pair@$$CBMPAVCInstanceBase@@@std@@PAX@std@@@1@QAU?$pair@$$CBMPAVCInstanceBase@@@1@$$QAU31@@Z ; std::_Default_allocator_traits<std::allocator<std::_Tree_node<std::pair<float const ,CInstanceBase *>,void *> > >::construct<std::pair<float const ,CInstanceBase *>,std::pair<float const ,CInstanceBase *> >
PUBLIC	??$?0$$V@?$_Compressed_pair@V?$allocator@U?$_Tree_node@U?$pair@$$CBMPAVCInstanceBase@@@std@@PAX@std@@@std@@V?$_Tree_val@U?$_Tree_simple_types@U?$pair@$$CBMPAVCInstanceBase@@@std@@@std@@@2@$00@std@@QAE@U_Zero_then_variadic_args_t@1@@Z ; std::_Compressed_pair<std::allocator<std::_Tree_node<std::pair<float const ,CInstanceBase *>,void *> >,std::_Tree_val<std::_Tree_simple_types<std::pair<float const ,CInstanceBase *> > >,1>::_Compressed_pair<std::allocator<std::_Tree_node<std::pair<float const ,CInstanceBase *>,void *> >,std::_Tree_val<std::_Tree_simple_types<std::pair<float const ,CInstanceBase *> > >,1><>
PUBLIC	??1?$_Tree_temp_node_alloc@V?$allocator@U?$_Tree_node@U?$pair@$$CBMPAVCInstanceBase@@@std@@PAX@std@@@std@@@std@@QAE@XZ ; std::_Tree_temp_node_alloc<std::allocator<std::_Tree_node<std::pair<float const ,CInstanceBase *>,void *> > >::~_Tree_temp_node_alloc<std::allocator<std::_Tree_node<std::pair<float const ,CInstanceBase *>,void *> > >
PUBLIC	??D?$_Tree_const_iterator@V?$_Tree_val@U?$_Tree_simple_types@U?$pair@$$CBKPAVCInstanceBase@@@std@@@std@@@std@@@std@@QBEABU?$pair@$$CBKPAVCInstanceBase@@@1@XZ ; std::_Tree_const_iterator<std::_Tree_val<std::_Tree_simple_types<std::pair<unsigned long const ,CInstanceBase *> > > >::operator*
PUBLIC	??E?$_Tree_unchecked_const_iterator@V?$_Tree_val@U?$_Tree_simple_types@U?$pair@$$CBKPAVCInstanceBase@@@std@@@std@@@std@@U_Iterator_base0@2@@std@@QAEAAV01@XZ ; std::_Tree_unchecked_const_iterator<std::_Tree_val<std::_Tree_simple_types<std::pair<unsigned long const ,CInstanceBase *> > >,std::_Iterator_base0>::operator++
PUBLIC	?_Check_grow_by_1@?$_Tree@V?$_Tmap_traits@MPAVCInstanceBase@@U?$less@M@std@@V?$allocator@U?$pair@$$CBMPAVCInstanceBase@@@std@@@3@$00@std@@@std@@IAEXXZ ; std::_Tree<std::_Tmap_traits<float,CInstanceBase *,std::less<float>,std::allocator<std::pair<float const ,CInstanceBase *> >,1> >::_Check_grow_by_1
PUBLIC	?_Alloc_sentinel_and_proxy@?$_Tree@V?$_Tmap_traits@MPAVCInstanceBase@@U?$less@M@std@@V?$allocator@U?$pair@$$CBMPAVCInstanceBase@@@std@@@3@$00@std@@@std@@IAEXXZ ; std::_Tree<std::_Tmap_traits<float,CInstanceBase *,std::less<float>,std::allocator<std::pair<float const ,CInstanceBase *> >,1> >::_Alloc_sentinel_and_proxy
PUBLIC	?_Insert_node@?$_Tree_val@U?$_Tree_simple_types@U?$pair@$$CBMPAVCInstanceBase@@@std@@@std@@@std@@QAEPAU?$_Tree_node@U?$pair@$$CBMPAVCInstanceBase@@@std@@PAX@2@U?$_Tree_id@PAU?$_Tree_node@U?$pair@$$CBMPAVCInstanceBase@@@std@@PAX@std@@@2@QAU32@@Z ; std::_Tree_val<std::_Tree_simple_types<std::pair<float const ,CInstanceBase *> > >::_Insert_node
PUBLIC	??D?$_Tree_const_iterator@V?$_Tree_val@U?$_Tree_simple_types@U?$pair@$$CBMPAVCInstanceBase@@@std@@@std@@@std@@@std@@QBEABU?$pair@$$CBMPAVCInstanceBase@@@1@XZ ; std::_Tree_const_iterator<std::_Tree_val<std::_Tree_simple_types<std::pair<float const ,CInstanceBase *> > > >::operator*
PUBLIC	??E?$_Tree_unchecked_const_iterator@V?$_Tree_val@U?$_Tree_simple_types@U?$pair@$$CBMPAVCInstanceBase@@@std@@@std@@@std@@U_Iterator_base0@2@@std@@QAEAAV01@XZ ; std::_Tree_unchecked_const_iterator<std::_Tree_val<std::_Tree_simple_types<std::pair<float const ,CInstanceBase *> > >,std::_Iterator_base0>::operator++
PUBLIC	?_Get_first@?$_Compressed_pair@V?$allocator@U?$_Tree_node@U?$pair@$$CBMPAVCInstanceBase@@@std@@PAX@std@@@std@@V?$_Tree_val@U?$_Tree_simple_types@U?$pair@$$CBMPAVCInstanceBase@@@std@@@std@@@2@$00@std@@QAEAAV?$allocator@U?$_Tree_node@U?$pair@$$CBMPAVCInstanceBase@@@std@@PAX@std@@@2@XZ ; std::_Compressed_pair<std::allocator<std::_Tree_node<std::pair<float const ,CInstanceBase *>,void *> >,std::_Tree_val<std::_Tree_simple_types<std::pair<float const ,CInstanceBase *> > >,1>::_Get_first
PUBLIC	??1?$_Tree_temp_node@V?$allocator@U?$_Tree_node@U?$pair@$$CBMPAVCInstanceBase@@@std@@PAX@std@@@std@@@std@@QAE@XZ ; std::_Tree_temp_node<std::allocator<std::_Tree_node<std::pair<float const ,CInstanceBase *>,void *> > >::~_Tree_temp_node<std::allocator<std::_Tree_node<std::pair<float const ,CInstanceBase *>,void *> > >
PUBLIC	?_Release@?$_Alloc_construct_ptr@V?$allocator@U?$_Tree_node@U?$pair@$$CBMPAVCInstanceBase@@@std@@PAX@std@@@std@@@std@@QAEPAU?$_Tree_node@U?$pair@$$CBMPAVCInstanceBase@@@std@@PAX@2@XZ ; std::_Alloc_construct_ptr<std::allocator<std::_Tree_node<std::pair<float const ,CInstanceBase *>,void *> > >::_Release
PUBLIC	??$addressof@V?$_Tree_val@U?$_Tree_simple_types@U?$pair@$$CBKPAVCInstanceBase@@@std@@@std@@@std@@@std@@YAPAV?$_Tree_val@U?$_Tree_simple_types@U?$pair@$$CBKPAVCInstanceBase@@@std@@@std@@@0@AAV10@@Z ; std::addressof<std::_Tree_val<std::_Tree_simple_types<std::pair<unsigned long const ,CInstanceBase *> > > >
PUBLIC	??$?0ABU?$less@M@std@@U_Zero_then_variadic_args_t@1@@?$_Compressed_pair@U?$less@M@std@@V?$_Compressed_pair@V?$allocator@U?$_Tree_node@U?$pair@$$CBMPAVCInstanceBase@@@std@@PAX@std@@@std@@V?$_Tree_val@U?$_Tree_simple_types@U?$pair@$$CBMPAVCInstanceBase@@@std@@@std@@@2@$00@2@$00@std@@QAE@U_One_then_variadic_args_t@1@ABU?$less@M@1@$$QAU_Zero_then_variadic_args_t@1@@Z ; std::_Compressed_pair<std::less<float>,std::_Compressed_pair<std::allocator<std::_Tree_node<std::pair<float const ,CInstanceBase *>,void *> >,std::_Tree_val<std::_Tree_simple_types<std::pair<float const ,CInstanceBase *> > >,1>,1>::_Compressed_pair<std::less<float>,std::_Compressed_pair<std::allocator<std::_Tree_node<std::pair<float const ,CInstanceBase *>,void *> >,std::_Tree_val<std::_Tree_simple_types<std::pair<float const ,CInstanceBase *> > >,1>,1><std::less<float> const &,std::_Zero_then_variadic_args_t>
PUBLIC	??$addressof@V?$_Tree_val@U?$_Tree_simple_types@U?$pair@$$CBMPAVCInstanceBase@@@std@@@std@@@std@@@std@@YAPAV?$_Tree_val@U?$_Tree_simple_types@U?$pair@$$CBMPAVCInstanceBase@@@std@@@std@@@0@AAV10@@Z ; std::addressof<std::_Tree_val<std::_Tree_simple_types<std::pair<float const ,CInstanceBase *> > > >
PUBLIC	??$addressof@$$CBV?$_Tree_val@U?$_Tree_simple_types@U?$pair@$$CBMPAVCInstanceBase@@@std@@@std@@@std@@@std@@YAPBV?$_Tree_val@U?$_Tree_simple_types@U?$pair@$$CBMPAVCInstanceBase@@@std@@@std@@@0@ABV10@@Z ; std::addressof<std::_Tree_val<std::_Tree_simple_types<std::pair<float const ,CInstanceBase *> > > const >
PUBLIC	??$addressof@U?$pair@$$CBMPAVCInstanceBase@@@std@@@std@@YAPAU?$pair@$$CBMPAVCInstanceBase@@@0@AAU10@@Z ; std::addressof<std::pair<float const ,CInstanceBase *> >
PUBLIC	??$addressof@U?$pair@$$CBKPAVCInstanceBase@@@std@@@std@@YAPAU?$pair@$$CBKPAVCInstanceBase@@@0@AAU10@@Z ; std::addressof<std::pair<unsigned long const ,CInstanceBase *> >
PUBLIC	??$_Freenode0@V?$allocator@U?$_Tree_node@U?$pair@$$CBMPAVCInstanceBase@@@std@@PAX@std@@@std@@@?$_Tree_node@U?$pair@$$CBMPAVCInstanceBase@@@std@@PAX@std@@SAXAAV?$allocator@U?$_Tree_node@U?$pair@$$CBMPAVCInstanceBase@@@std@@PAX@std@@@1@PAU01@@Z ; std::_Tree_node<std::pair<float const ,CInstanceBase *>,void *>::_Freenode0<std::allocator<std::_Tree_node<std::pair<float const ,CInstanceBase *>,void *> > >
PUBLIC	??$_Erase_tree@V?$allocator@U?$_Tree_node@U?$pair@$$CBMPAVCInstanceBase@@@std@@PAX@std@@@std@@@?$_Tree_val@U?$_Tree_simple_types@U?$pair@$$CBMPAVCInstanceBase@@@std@@@std@@@std@@QAEXAAV?$allocator@U?$_Tree_node@U?$pair@$$CBMPAVCInstanceBase@@@std@@PAX@std@@@1@PAU?$_Tree_node@U?$pair@$$CBMPAVCInstanceBase@@@std@@PAX@1@@Z ; std::_Tree_val<std::_Tree_simple_types<std::pair<float const ,CInstanceBase *> > >::_Erase_tree<std::allocator<std::_Tree_node<std::pair<float const ,CInstanceBase *>,void *> > >
PUBLIC	??$emplace@U?$pair@MPAVCInstanceBase@@@std@@@?$_Tree@V?$_Tmap_traits@MPAVCInstanceBase@@U?$less@M@std@@V?$allocator@U?$pair@$$CBMPAVCInstanceBase@@@std@@@3@$00@std@@@std@@QAE?AU?$pair@V?$_Tree_iterator@V?$_Tree_val@U?$_Tree_simple_types@U?$pair@$$CBMPAVCInstanceBase@@@std@@@std@@@std@@@std@@_N@1@$$QAU?$pair@MPAVCInstanceBase@@@1@@Z ; std::_Tree<std::_Tmap_traits<float,CInstanceBase *,std::less<float>,std::allocator<std::pair<float const ,CInstanceBase *> >,1> >::emplace<std::pair<float,CInstanceBase *> >
PUBLIC	??$?0PAU?$_Tree_node@U?$pair@$$CBMPAVCInstanceBase@@@std@@PAX@std@@_N$0A@@?$pair@PAU?$_Tree_node@U?$pair@$$CBMPAVCInstanceBase@@@std@@PAX@std@@_N@std@@QAE@$$QAPAU?$_Tree_node@U?$pair@$$CBMPAVCInstanceBase@@@std@@PAX@1@$$QA_N@Z ; std::pair<std::_Tree_node<std::pair<float const ,CInstanceBase *>,void *> *,bool>::pair<std::_Tree_node<std::pair<float const ,CInstanceBase *>,void *> *,bool><std::_Tree_node<std::pair<float const ,CInstanceBase *>,void *> *,bool,0>
PUBLIC	??$_Find_upper_bound@M@?$_Tree@V?$_Tmap_traits@MPAVCInstanceBase@@U?$less@M@std@@V?$allocator@U?$pair@$$CBMPAVCInstanceBase@@@std@@@3@$00@std@@@std@@IBE?AU?$_Tree_find_result@PAU?$_Tree_node@U?$pair@$$CBMPAVCInstanceBase@@@std@@PAX@std@@@1@ABM@Z ; std::_Tree<std::_Tmap_traits<float,CInstanceBase *,std::less<float>,std::allocator<std::pair<float const ,CInstanceBase *> >,1> >::_Find_upper_bound<float>
PUBLIC	??$_Kfn@$$CBMPAVCInstanceBase@@@?$_Tmap_traits@MPAVCInstanceBase@@U?$less@M@std@@V?$allocator@U?$pair@$$CBMPAVCInstanceBase@@@std@@@3@$00@std@@SAABMABU?$pair@$$CBMPAVCInstanceBase@@@1@@Z ; std::_Tmap_traits<float,CInstanceBase *,std::less<float>,std::allocator<std::pair<float const ,CInstanceBase *> >,1>::_Kfn<float const ,CInstanceBase *>
PUBLIC	??$?0U?$pair@$$CBMPAVCInstanceBase@@@std@@@?$_Tree_temp_node@V?$allocator@U?$_Tree_node@U?$pair@$$CBMPAVCInstanceBase@@@std@@PAX@std@@@std@@@std@@QAE@AAV?$allocator@U?$_Tree_node@U?$pair@$$CBMPAVCInstanceBase@@@std@@PAX@std@@@1@PAU?$_Tree_node@U?$pair@$$CBMPAVCInstanceBase@@@std@@PAX@1@$$QAU?$pair@$$CBMPAVCInstanceBase@@@1@@Z ; std::_Tree_temp_node<std::allocator<std::_Tree_node<std::pair<float const ,CInstanceBase *>,void *> > >::_Tree_temp_node<std::allocator<std::_Tree_node<std::pair<float const ,CInstanceBase *>,void *> > ><std::pair<float const ,CInstanceBase *> >
PUBLIC	??$forward@U?$pair@$$CBMPAVCInstanceBase@@@std@@@std@@YA$$QAU?$pair@$$CBMPAVCInstanceBase@@@0@AAU10@@Z ; std::forward<std::pair<float const ,CInstanceBase *> >
PUBLIC	??$forward@AB_N@std@@YAAB_NAB_N@Z		; std::forward<bool const &>
PUBLIC	?_Get_scary@?$_Tree@V?$_Tmap_traits@KPAVCInstanceBase@@U?$less@K@std@@V?$allocator@U?$pair@$$CBKPAVCInstanceBase@@@std@@@3@$0A@@std@@@std@@IAEPAV?$_Tree_val@U?$_Tree_simple_types@U?$pair@$$CBKPAVCInstanceBase@@@std@@@std@@@2@XZ ; std::_Tree<std::_Tmap_traits<unsigned long,CInstanceBase *,std::less<unsigned long>,std::allocator<std::pair<unsigned long const ,CInstanceBase *> >,0> >::_Get_scary
PUBLIC	??E?$_Tree_const_iterator@V?$_Tree_val@U?$_Tree_simple_types@U?$pair@$$CBKPAVCInstanceBase@@@std@@@std@@@std@@@std@@QAEAAV01@XZ ; std::_Tree_const_iterator<std::_Tree_val<std::_Tree_simple_types<std::pair<unsigned long const ,CInstanceBase *> > > >::operator++
PUBLIC	??D?$_Tree_iterator@V?$_Tree_val@U?$_Tree_simple_types@U?$pair@$$CBKPAVCInstanceBase@@@std@@@std@@@std@@@std@@QBEAAU?$pair@$$CBKPAVCInstanceBase@@@1@XZ ; std::_Tree_iterator<std::_Tree_val<std::_Tree_simple_types<std::pair<unsigned long const ,CInstanceBase *> > > >::operator*
PUBLIC	??0?$_Tree_unchecked_const_iterator@V?$_Tree_val@U?$_Tree_simple_types@U?$pair@$$CBKPAVCInstanceBase@@@std@@@std@@@std@@U_Iterator_base0@2@@std@@QAE@PAU?$_Tree_node@U?$pair@$$CBKPAVCInstanceBase@@@std@@PAX@1@PBV?$_Tree_val@U?$_Tree_simple_types@U?$pair@$$CBKPAVCInstanceBase@@@std@@@std@@@1@@Z ; std::_Tree_unchecked_const_iterator<std::_Tree_val<std::_Tree_simple_types<std::pair<unsigned long const ,CInstanceBase *> > >,std::_Iterator_base0>::_Tree_unchecked_const_iterator<std::_Tree_val<std::_Tree_simple_types<std::pair<unsigned long const ,CInstanceBase *> > >,std::_Iterator_base0>
PUBLIC	??0?$_Tree@V?$_Tmap_traits@MPAVCInstanceBase@@U?$less@M@std@@V?$allocator@U?$pair@$$CBMPAVCInstanceBase@@@std@@@3@$00@std@@@std@@QAE@ABU?$less@M@1@@Z ; std::_Tree<std::_Tmap_traits<float,CInstanceBase *,std::less<float>,std::allocator<std::pair<float const ,CInstanceBase *> >,1> >::_Tree<std::_Tmap_traits<float,CInstanceBase *,std::less<float>,std::allocator<std::pair<float const ,CInstanceBase *> >,1> >
PUBLIC	?_Getal@?$_Tree@V?$_Tmap_traits@MPAVCInstanceBase@@U?$less@M@std@@V?$allocator@U?$pair@$$CBMPAVCInstanceBase@@@std@@@3@$00@std@@@std@@IAEAAV?$allocator@U?$_Tree_node@U?$pair@$$CBMPAVCInstanceBase@@@std@@PAX@std@@@2@XZ ; std::_Tree<std::_Tmap_traits<float,CInstanceBase *,std::less<float>,std::allocator<std::pair<float const ,CInstanceBase *> >,1> >::_Getal
PUBLIC	?_Get_scary@?$_Tree@V?$_Tmap_traits@MPAVCInstanceBase@@U?$less@M@std@@V?$allocator@U?$pair@$$CBMPAVCInstanceBase@@@std@@@3@$00@std@@@std@@IAEPAV?$_Tree_val@U?$_Tree_simple_types@U?$pair@$$CBMPAVCInstanceBase@@@std@@@std@@@2@XZ ; std::_Tree<std::_Tmap_traits<float,CInstanceBase *,std::less<float>,std::allocator<std::pair<float const ,CInstanceBase *> >,1> >::_Get_scary
PUBLIC	?_Get_scary@?$_Tree@V?$_Tmap_traits@MPAVCInstanceBase@@U?$less@M@std@@V?$allocator@U?$pair@$$CBMPAVCInstanceBase@@@std@@@3@$00@std@@@std@@IBEPBV?$_Tree_val@U?$_Tree_simple_types@U?$pair@$$CBMPAVCInstanceBase@@@std@@@std@@@2@XZ ; std::_Tree<std::_Tmap_traits<float,CInstanceBase *,std::less<float>,std::allocator<std::pair<float const ,CInstanceBase *> >,1> >::_Get_scary
PUBLIC	??E?$_Tree_const_iterator@V?$_Tree_val@U?$_Tree_simple_types@U?$pair@$$CBMPAVCInstanceBase@@@std@@@std@@@std@@@std@@QAEAAV01@XZ ; std::_Tree_const_iterator<std::_Tree_val<std::_Tree_simple_types<std::pair<float const ,CInstanceBase *> > > >::operator++
PUBLIC	??D?$_Tree_iterator@V?$_Tree_val@U?$_Tree_simple_types@U?$pair@$$CBMPAVCInstanceBase@@@std@@@std@@@std@@@std@@QBEAAU?$pair@$$CBMPAVCInstanceBase@@@1@XZ ; std::_Tree_iterator<std::_Tree_val<std::_Tree_simple_types<std::pair<float const ,CInstanceBase *> > > >::operator*
PUBLIC	??0?$_Tree_unchecked_const_iterator@V?$_Tree_val@U?$_Tree_simple_types@U?$pair@$$CBMPAVCInstanceBase@@@std@@@std@@@std@@U_Iterator_base0@2@@std@@QAE@PAU?$_Tree_node@U?$pair@$$CBMPAVCInstanceBase@@@std@@PAX@1@PBV?$_Tree_val@U?$_Tree_simple_types@U?$pair@$$CBMPAVCInstanceBase@@@std@@@std@@@1@@Z ; std::_Tree_unchecked_const_iterator<std::_Tree_val<std::_Tree_simple_types<std::pair<float const ,CInstanceBase *> > >,std::_Iterator_base0>::_Tree_unchecked_const_iterator<std::_Tree_val<std::_Tree_simple_types<std::pair<float const ,CInstanceBase *> > >,std::_Iterator_base0>
PUBLIC	?pointer_to@?$pointer_traits@PAU?$pair@$$CBMPAVCInstanceBase@@@std@@@std@@SAPAU?$pair@$$CBMPAVCInstanceBase@@@2@AAU32@@Z ; std::pointer_traits<std::pair<float const ,CInstanceBase *> *>::pointer_to
PUBLIC	?pointer_to@?$pointer_traits@PAU?$pair@$$CBKPAVCInstanceBase@@@std@@@std@@SAPAU?$pair@$$CBKPAVCInstanceBase@@@2@AAU32@@Z ; std::pointer_traits<std::pair<unsigned long const ,CInstanceBase *> *>::pointer_to
PUBLIC	??$_Erase_head@V?$allocator@U?$_Tree_node@U?$pair@$$CBMPAVCInstanceBase@@@std@@PAX@std@@@std@@@?$_Tree_val@U?$_Tree_simple_types@U?$pair@$$CBMPAVCInstanceBase@@@std@@@std@@@std@@QAEXAAV?$allocator@U?$_Tree_node@U?$pair@$$CBMPAVCInstanceBase@@@std@@PAX@std@@@1@@Z ; std::_Tree_val<std::_Tree_simple_types<std::pair<float const ,CInstanceBase *> > >::_Erase_head<std::allocator<std::_Tree_node<std::pair<float const ,CInstanceBase *>,void *> > >
PUBLIC	??$emplace@U?$pair@MPAVCInstanceBase@@@std@@@?$multimap@MPAVCInstanceBase@@U?$less@M@std@@V?$allocator@U?$pair@$$CBMPAVCInstanceBase@@@std@@@3@@std@@QAE?AV?$_Tree_iterator@V?$_Tree_val@U?$_Tree_simple_types@U?$pair@$$CBMPAVCInstanceBase@@@std@@@std@@@std@@@1@$$QAU?$pair@MPAVCInstanceBase@@@1@@Z ; std::multimap<float,CInstanceBase *,std::less<float>,std::allocator<std::pair<float const ,CInstanceBase *> > >::emplace<std::pair<float,CInstanceBase *> >
PUBLIC	??$forward@U?$pair@MPAVCInstanceBase@@@std@@@std@@YA$$QAU?$pair@MPAVCInstanceBase@@@0@AAU10@@Z ; std::forward<std::pair<float,CInstanceBase *> >
PUBLIC	??$?0AAMAAPAVCInstanceBase@@$0A@@?$pair@MPAVCInstanceBase@@@std@@QAE@AAMAAPAVCInstanceBase@@@Z ; std::pair<float,CInstanceBase *>::pair<float,CInstanceBase *><float &,CInstanceBase * &,0>
PUBLIC	??$_Emplace@U?$pair@$$CBMPAVCInstanceBase@@@std@@@?$_Tree@V?$_Tmap_traits@MPAVCInstanceBase@@U?$less@M@std@@V?$allocator@U?$pair@$$CBMPAVCInstanceBase@@@std@@@3@$00@std@@@std@@IAE?AU?$pair@PAU?$_Tree_node@U?$pair@$$CBMPAVCInstanceBase@@@std@@PAX@std@@_N@1@$$QAU?$pair@$$CBMPAVCInstanceBase@@@1@@Z ; std::_Tree<std::_Tmap_traits<float,CInstanceBase *,std::less<float>,std::allocator<std::pair<float const ,CInstanceBase *> >,1> >::_Emplace<std::pair<float const ,CInstanceBase *> >
PUBLIC	??$move@AAU?$pair@$$CBMPAVCInstanceBase@@@std@@@std@@YA$$QAU?$pair@$$CBMPAVCInstanceBase@@@0@AAU10@@Z ; std::move<std::pair<float const ,CInstanceBase *> &>
PUBLIC	??$forward@AAPAVCInstanceBase@@@std@@YAAAPAVCInstanceBase@@AAPAV1@@Z ; std::forward<CInstanceBase * &>
PUBLIC	??$forward@AAM@std@@YAAAMAAM@Z			; std::forward<float &>
PUBLIC	??0?$_Tree_const_iterator@V?$_Tree_val@U?$_Tree_simple_types@U?$pair@$$CBKPAVCInstanceBase@@@std@@@std@@@std@@@std@@QAE@PAU?$_Tree_node@U?$pair@$$CBKPAVCInstanceBase@@@std@@PAX@1@PBV?$_Tree_val@U?$_Tree_simple_types@U?$pair@$$CBKPAVCInstanceBase@@@std@@@std@@@1@@Z ; std::_Tree_const_iterator<std::_Tree_val<std::_Tree_simple_types<std::pair<unsigned long const ,CInstanceBase *> > > >::_Tree_const_iterator<std::_Tree_val<std::_Tree_simple_types<std::pair<unsigned long const ,CInstanceBase *> > > >
PUBLIC	??0?$_Tree_const_iterator@V?$_Tree_val@U?$_Tree_simple_types@U?$pair@$$CBMPAVCInstanceBase@@@std@@@std@@@std@@@std@@QAE@PAU?$_Tree_node@U?$pair@$$CBMPAVCInstanceBase@@@std@@PAX@1@PBV?$_Tree_val@U?$_Tree_simple_types@U?$pair@$$CBMPAVCInstanceBase@@@std@@@std@@@1@@Z ; std::_Tree_const_iterator<std::_Tree_val<std::_Tree_simple_types<std::pair<float const ,CInstanceBase *> > > >::_Tree_const_iterator<std::_Tree_val<std::_Tree_simple_types<std::pair<float const ,CInstanceBase *> > > >
PUBLIC	??0?$_Tree_iterator@V?$_Tree_val@U?$_Tree_simple_types@U?$pair@$$CBKPAVCInstanceBase@@@std@@@std@@@std@@@std@@QAE@PAU?$_Tree_node@U?$pair@$$CBKPAVCInstanceBase@@@std@@PAX@1@PBV?$_Tree_val@U?$_Tree_simple_types@U?$pair@$$CBKPAVCInstanceBase@@@std@@@std@@@1@@Z ; std::_Tree_iterator<std::_Tree_val<std::_Tree_simple_types<std::pair<unsigned long const ,CInstanceBase *> > > >::_Tree_iterator<std::_Tree_val<std::_Tree_simple_types<std::pair<unsigned long const ,CInstanceBase *> > > >
PUBLIC	??0?$_Tree_iterator@V?$_Tree_val@U?$_Tree_simple_types@U?$pair@$$CBMPAVCInstanceBase@@@std@@@std@@@std@@@std@@QAE@PAU?$_Tree_node@U?$pair@$$CBMPAVCInstanceBase@@@std@@PAX@1@PBV?$_Tree_val@U?$_Tree_simple_types@U?$pair@$$CBMPAVCInstanceBase@@@std@@@std@@@1@@Z ; std::_Tree_iterator<std::_Tree_val<std::_Tree_simple_types<std::pair<float const ,CInstanceBase *> > > >::_Tree_iterator<std::_Tree_val<std::_Tree_simple_types<std::pair<float const ,CInstanceBase *> > > >
PUBLIC	?begin@?$_Tree@V?$_Tmap_traits@KPAVCInstanceBase@@U?$less@K@std@@V?$allocator@U?$pair@$$CBKPAVCInstanceBase@@@std@@@3@$0A@@std@@@std@@QAE?AV?$_Tree_iterator@V?$_Tree_val@U?$_Tree_simple_types@U?$pair@$$CBKPAVCInstanceBase@@@std@@@std@@@std@@@2@XZ ; std::_Tree<std::_Tmap_traits<unsigned long,CInstanceBase *,std::less<unsigned long>,std::allocator<std::pair<unsigned long const ,CInstanceBase *> >,0> >::begin
PUBLIC	?end@?$_Tree@V?$_Tmap_traits@KPAVCInstanceBase@@U?$less@K@std@@V?$allocator@U?$pair@$$CBKPAVCInstanceBase@@@std@@@3@$0A@@std@@@std@@QAE?AV?$_Tree_iterator@V?$_Tree_val@U?$_Tree_simple_types@U?$pair@$$CBKPAVCInstanceBase@@@std@@@std@@@std@@@2@XZ ; std::_Tree<std::_Tmap_traits<unsigned long,CInstanceBase *,std::less<unsigned long>,std::allocator<std::pair<unsigned long const ,CInstanceBase *> >,0> >::end
PUBLIC	??8?$_Tree_const_iterator@V?$_Tree_val@U?$_Tree_simple_types@U?$pair@$$CBKPAVCInstanceBase@@@std@@@std@@@std@@@std@@QBE_NABV01@@Z ; std::_Tree_const_iterator<std::_Tree_val<std::_Tree_simple_types<std::pair<unsigned long const ,CInstanceBase *> > > >::operator==
PUBLIC	??C?$_Tree_iterator@V?$_Tree_val@U?$_Tree_simple_types@U?$pair@$$CBKPAVCInstanceBase@@@std@@@std@@@std@@@std@@QBEPAU?$pair@$$CBKPAVCInstanceBase@@@1@XZ ; std::_Tree_iterator<std::_Tree_val<std::_Tree_simple_types<std::pair<unsigned long const ,CInstanceBase *> > > >::operator->
PUBLIC	??E?$_Tree_iterator@V?$_Tree_val@U?$_Tree_simple_types@U?$pair@$$CBKPAVCInstanceBase@@@std@@@std@@@std@@@std@@QAEAAV01@XZ ; std::_Tree_iterator<std::_Tree_val<std::_Tree_simple_types<std::pair<unsigned long const ,CInstanceBase *> > > >::operator++
PUBLIC	??0?$_Tree_unchecked_const_iterator@V?$_Tree_val@U?$_Tree_simple_types@U?$pair@$$CBKPAVCInstanceBase@@@std@@@std@@@std@@U_Iterator_base0@2@@std@@QAE@XZ ; std::_Tree_unchecked_const_iterator<std::_Tree_val<std::_Tree_simple_types<std::pair<unsigned long const ,CInstanceBase *> > >,std::_Iterator_base0>::_Tree_unchecked_const_iterator<std::_Tree_val<std::_Tree_simple_types<std::pair<unsigned long const ,CInstanceBase *> > >,std::_Iterator_base0>
PUBLIC	??0?$multimap@MPAVCInstanceBase@@U?$less@M@std@@V?$allocator@U?$pair@$$CBMPAVCInstanceBase@@@std@@@3@@std@@QAE@XZ ; std::multimap<float,CInstanceBase *,std::less<float>,std::allocator<std::pair<float const ,CInstanceBase *> > >::multimap<float,CInstanceBase *,std::less<float>,std::allocator<std::pair<float const ,CInstanceBase *> > >
PUBLIC	??1?$_Tree@V?$_Tmap_traits@MPAVCInstanceBase@@U?$less@M@std@@V?$allocator@U?$pair@$$CBMPAVCInstanceBase@@@std@@@3@$00@std@@@std@@QAE@XZ ; std::_Tree<std::_Tmap_traits<float,CInstanceBase *,std::less<float>,std::allocator<std::pair<float const ,CInstanceBase *> >,1> >::~_Tree<std::_Tmap_traits<float,CInstanceBase *,std::less<float>,std::allocator<std::pair<float const ,CInstanceBase *> >,1> >
PUBLIC	?begin@?$_Tree@V?$_Tmap_traits@MPAVCInstanceBase@@U?$less@M@std@@V?$allocator@U?$pair@$$CBMPAVCInstanceBase@@@std@@@3@$00@std@@@std@@QAE?AV?$_Tree_iterator@V?$_Tree_val@U?$_Tree_simple_types@U?$pair@$$CBMPAVCInstanceBase@@@std@@@std@@@std@@@2@XZ ; std::_Tree<std::_Tmap_traits<float,CInstanceBase *,std::less<float>,std::allocator<std::pair<float const ,CInstanceBase *> >,1> >::begin
PUBLIC	?end@?$_Tree@V?$_Tmap_traits@MPAVCInstanceBase@@U?$less@M@std@@V?$allocator@U?$pair@$$CBMPAVCInstanceBase@@@std@@@3@$00@std@@@std@@QAE?AV?$_Tree_iterator@V?$_Tree_val@U?$_Tree_simple_types@U?$pair@$$CBMPAVCInstanceBase@@@std@@@std@@@std@@@2@XZ ; std::_Tree<std::_Tmap_traits<float,CInstanceBase *,std::less<float>,std::allocator<std::pair<float const ,CInstanceBase *> >,1> >::end
PUBLIC	?empty@?$_Tree@V?$_Tmap_traits@MPAVCInstanceBase@@U?$less@M@std@@V?$allocator@U?$pair@$$CBMPAVCInstanceBase@@@std@@@3@$00@std@@@std@@QBE_NXZ ; std::_Tree<std::_Tmap_traits<float,CInstanceBase *,std::less<float>,std::allocator<std::pair<float const ,CInstanceBase *> >,1> >::empty
PUBLIC	??8?$_Tree_const_iterator@V?$_Tree_val@U?$_Tree_simple_types@U?$pair@$$CBMPAVCInstanceBase@@@std@@@std@@@std@@@std@@QBE_NABV01@@Z ; std::_Tree_const_iterator<std::_Tree_val<std::_Tree_simple_types<std::pair<float const ,CInstanceBase *> > > >::operator==
PUBLIC	??C?$_Tree_iterator@V?$_Tree_val@U?$_Tree_simple_types@U?$pair@$$CBMPAVCInstanceBase@@@std@@@std@@@std@@@std@@QBEPAU?$pair@$$CBMPAVCInstanceBase@@@1@XZ ; std::_Tree_iterator<std::_Tree_val<std::_Tree_simple_types<std::pair<float const ,CInstanceBase *> > > >::operator->
PUBLIC	??E?$_Tree_iterator@V?$_Tree_val@U?$_Tree_simple_types@U?$pair@$$CBMPAVCInstanceBase@@@std@@@std@@@std@@@std@@QAEAAV01@XZ ; std::_Tree_iterator<std::_Tree_val<std::_Tree_simple_types<std::pair<float const ,CInstanceBase *> > > >::operator++
PUBLIC	??$insert@U?$pair@MPAVCInstanceBase@@@std@@$0A@@?$multimap@MPAVCInstanceBase@@U?$less@M@std@@V?$allocator@U?$pair@$$CBMPAVCInstanceBase@@@std@@@3@@std@@QAE?AV?$_Tree_iterator@V?$_Tree_val@U?$_Tree_simple_types@U?$pair@$$CBMPAVCInstanceBase@@@std@@@std@@@std@@@1@$$QAU?$pair@MPAVCInstanceBase@@@1@@Z ; std::multimap<float,CInstanceBase *,std::less<float>,std::allocator<std::pair<float const ,CInstanceBase *> > >::insert<std::pair<float,CInstanceBase *>,0>
PUBLIC	??$make_pair@AAMAAPAVCInstanceBase@@@std@@YA?AU?$pair@MPAVCInstanceBase@@@0@AAMAAPAVCInstanceBase@@@Z ; std::make_pair<float &,CInstanceBase * &>
PUBLIC	??$insert@$00$0A@@?$_Tree@V?$_Tmap_traits@MPAVCInstanceBase@@U?$less@M@std@@V?$allocator@U?$pair@$$CBMPAVCInstanceBase@@@std@@@3@$00@std@@@std@@QAE?AV?$_Tree_iterator@V?$_Tree_val@U?$_Tree_simple_types@U?$pair@$$CBMPAVCInstanceBase@@@std@@@std@@@std@@@1@$$QAU?$pair@$$CBMPAVCInstanceBase@@@1@@Z ; std::_Tree<std::_Tmap_traits<float,CInstanceBase *,std::less<float>,std::allocator<std::pair<float const ,CInstanceBase *> >,1> >::insert<1,0>
PUBLIC	??$?0AAMAAPAVCInstanceBase@@$0A@@?$pair@$$CBMPAVCInstanceBase@@@std@@QAE@AAMAAPAVCInstanceBase@@@Z ; std::pair<float const ,CInstanceBase *>::pair<float const ,CInstanceBase *><float &,CInstanceBase * &,0>
PUBLIC	?Show@CInstanceBase@@QAEXXZ			; CInstanceBase::Show
PUBLIC	?Hide@CInstanceBase@@QAEXXZ			; CInstanceBase::Hide
PUBLIC	?Die@CInstanceBase@@QAEXXZ			; CInstanceBase::Die
PUBLIC	?Stun@CInstanceBase@@QAEXXZ			; CInstanceBase::Stun
PUBLIC	?Revive@CInstanceBase@@QAEXXZ			; CInstanceBase::Revive
PUBLIC	?GetComboIndex@CInstanceBase@@QAEKXZ		; CInstanceBase::GetComboIndex
PUBLIC	?CanAttackHorseLevel@CInstanceBase@@QAEHXZ	; CInstanceBase::CanAttackHorseLevel
PUBLIC	?IsUsingMovingSkill@CInstanceBase@@QAEHXZ	; CInstanceBase::IsUsingMovingSkill
PUBLIC	?IsUsingSkill@CInstanceBase@@QAEHXZ		; CInstanceBase::IsUsingSkill
PUBLIC	?CheckAttacking@CInstanceBase@@QAEHAAV1@@Z	; CInstanceBase::CheckAttacking
PUBLIC	?CheckAdvancing@CInstanceBase@@QAEHXZ		; CInstanceBase::CheckAdvancing
PUBLIC	?InputComboAttack@CInstanceBase@@QAEXM@Z	; CInstanceBase::InputComboAttack
PUBLIC	?InputNormalAttack@CInstanceBase@@QAEXM@Z	; CInstanceBase::InputNormalAttack
PUBLIC	?NEW_AttackToDestInstanceDirection@CInstanceBase@@QAE_NAAV1@@Z ; CInstanceBase::NEW_AttackToDestInstanceDirection
PUBLIC	?NEW_AttackToDestInstanceDirection@CInstanceBase@@QAE_NAAV1@PAVIFlyEventHandler@@@Z ; CInstanceBase::NEW_AttackToDestInstanceDirection
PUBLIC	?NEW_AttackToDestPixelPositionDirection@CInstanceBase@@QAEXABUD3DXVECTOR3@@@Z ; CInstanceBase::NEW_AttackToDestPixelPositionDirection
PUBLIC	?NEW_Attack@CInstanceBase@@QAEXM@Z		; CInstanceBase::NEW_Attack
PUBLIC	?NEW_Attack@CInstanceBase@@QAEXXZ		; CInstanceBase::NEW_Attack
PUBLIC	?NEW_IsClickableDistanceDestInstance@CInstanceBase@@QAEHAAV1@@Z ; CInstanceBase::NEW_IsClickableDistanceDestInstance
PUBLIC	?NEW_IsClickableDistanceDestPixelPosition@CInstanceBase@@QAEHABUD3DXVECTOR3@@@Z ; CInstanceBase::NEW_IsClickableDistanceDestPixelPosition
PUBLIC	?NEW_GetInstanceVectorInCircleRange@CInstanceBase@@QAE_NMPAV?$vector@PAVCInstanceBase@@V?$allocator@PAVCInstanceBase@@@std@@@std@@@Z ; CInstanceBase::NEW_GetInstanceVectorInCircleRange
PUBLIC	?NEW_GetInstanceVectorInFanRange@CInstanceBase@@QAE_NMAAV1@PAV?$vector@PAVCInstanceBase@@V?$allocator@PAVCInstanceBase@@@std@@@std@@@Z ; CInstanceBase::NEW_GetInstanceVectorInFanRange
PUBLIC	??1?$multimap@MPAVCInstanceBase@@U?$less@M@std@@V?$allocator@U?$pair@$$CBMPAVCInstanceBase@@@std@@@3@@std@@QAE@XZ ; std::multimap<float,CInstanceBase *,std::less<float>,std::allocator<std::pair<float const ,CInstanceBase *> > >::~multimap<float,CInstanceBase *,std::less<float>,std::allocator<std::pair<float const ,CInstanceBase *> > >
PUBLIC	?NEW_GetFrontInstance@CInstanceBase@@QAE_NPAPAV1@M@Z ; CInstanceBase::NEW_GetFrontInstance
PUBLIC	?NEW_GetRandomPositionInFanRange@CInstanceBase@@QAEXAAV1@PAUD3DXVECTOR3@@@Z ; CInstanceBase::NEW_GetRandomPositionInFanRange
PUBLIC	?NEW_GetRotationFromDestInstance@CInstanceBase@@QAEMAAV1@@Z ; CInstanceBase::NEW_GetRotationFromDestInstance
PUBLIC	?NEW_GetRotationFromDestPixelPosition@CInstanceBase@@QAEMABUD3DXVECTOR3@@@Z ; CInstanceBase::NEW_GetRotationFromDestPixelPosition
PUBLIC	?NEW_GetRotationFromDirPixelPosition@CInstanceBase@@QAEMABUD3DXVECTOR3@@@Z ; CInstanceBase::NEW_GetRotationFromDirPixelPosition
PUBLIC	?NEW_GetRotation@CInstanceBase@@QAEMXZ		; CInstanceBase::NEW_GetRotation
PUBLIC	?NEW_GetDistanceFromDirPixelPosition@CInstanceBase@@QAEMABUD3DXVECTOR3@@@Z ; CInstanceBase::NEW_GetDistanceFromDirPixelPosition
PUBLIC	?AddFlyTargetInstance@CInstanceBase@@QAEXAAV1@@Z ; CInstanceBase::AddFlyTargetInstance
PUBLIC	?AddFlyTargetPosition@CInstanceBase@@QAEXABUD3DXVECTOR3@@@Z ; CInstanceBase::AddFlyTargetPosition
PUBLIC	?SetFlyTargetInstance@CInstanceBase@@QAEXAAV1@@Z ; CInstanceBase::SetFlyTargetInstance
PUBLIC	?ClearFlyTargetInstance@CInstanceBase@@QAEXXZ	; CInstanceBase::ClearFlyTargetInstance
PUBLIC	?IsFlyTargetObject@CInstanceBase@@QAE_NXZ	; CInstanceBase::IsFlyTargetObject
PUBLIC	?NEW_GetSignedDegreeFromDirPixelPosition@@YAMABUD3DXVECTOR3@@@Z ; NEW_GetSignedDegreeFromDirPixelPosition
PUBLIC	?NEW_UnsignedDegreeToSignedDegree@@YAMM@Z	; NEW_UnsignedDegreeToSignedDegree
PUBLIC	?GetAutoHuntStatus@CPythonPlayer@@QAE_NXZ	; CPythonPlayer::GetAutoHuntStatus
PUBLIC	??0?$_Tree_const_iterator@V?$_Tree_val@U?$_Tree_simple_types@U?$pair@$$CBKPAVCInstanceBase@@@std@@@std@@@std@@@std@@QAE@XZ ; std::_Tree_const_iterator<std::_Tree_val<std::_Tree_simple_types<std::pair<unsigned long const ,CInstanceBase *> > > >::_Tree_const_iterator<std::_Tree_val<std::_Tree_simple_types<std::pair<unsigned long const ,CInstanceBase *> > > >
PUBLIC	??0?$_Tree_iterator@V?$_Tree_val@U?$_Tree_simple_types@U?$pair@$$CBKPAVCInstanceBase@@@std@@@std@@@std@@@std@@QAE@XZ ; std::_Tree_iterator<std::_Tree_val<std::_Tree_simple_types<std::pair<unsigned long const ,CInstanceBase *> > > >::_Tree_iterator<std::_Tree_val<std::_Tree_simple_types<std::pair<unsigned long const ,CInstanceBase *> > > >
PUBLIC	??9CharacterIterator@CPythonCharacterManager@@QBE_NABV01@@Z ; CPythonCharacterManager::CharacterIterator::operator!=
PUBLIC	??4CharacterIterator@CPythonCharacterManager@@QAEAAV01@ABV01@@Z ; CPythonCharacterManager::CharacterIterator::operator=
PUBLIC	??ECharacterIterator@CPythonCharacterManager@@QAEAAV01@XZ ; CPythonCharacterManager::CharacterIterator::operator++
PUBLIC	??DCharacterIterator@CPythonCharacterManager@@QAEPAVCInstanceBase@@XZ ; CPythonCharacterManager::CharacterIterator::operator*
PUBLIC	??0CharacterIterator@CPythonCharacterManager@@QAE@ABV?$_Tree_iterator@V?$_Tree_val@U?$_Tree_simple_types@U?$pair@$$CBKPAVCInstanceBase@@@std@@@std@@@std@@@std@@@Z ; CPythonCharacterManager::CharacterIterator::CharacterIterator
PUBLIC	??0CharacterIterator@CPythonCharacterManager@@QAE@XZ ; CPythonCharacterManager::CharacterIterator::CharacterIterator
PUBLIC	?CharacterInstanceEnd@CPythonCharacterManager@@QAE?AVCharacterIterator@1@XZ ; CPythonCharacterManager::CharacterInstanceEnd
PUBLIC	?CharacterInstanceBegin@CPythonCharacterManager@@QAE?AVCharacterIterator@1@XZ ; CPythonCharacterManager::CharacterInstanceBegin
PUBLIC	?NEW_GetDistanceFromDestInstance@CInstanceBase@@QAEMAAV1@@Z ; CInstanceBase::NEW_GetDistanceFromDestInstance
PUBLIC	?IsAffect@CInstanceBase@@QAE_NI@Z		; CInstanceBase::IsAffect
PUBLIC	?RunComboAttack@CInstanceBase@@QAEXMK@Z		; CInstanceBase::RunComboAttack
PUBLIC	?RunNormalAttack@CInstanceBase@@QAEXM@Z		; CInstanceBase::RunNormalAttack
PUBLIC	?NEW_UseSkill@CInstanceBase@@QAE_NIII_N@Z	; CInstanceBase::NEW_UseSkill
PUBLIC	?NEW_GetDistanceFromDestPixelPosition@CInstanceBase@@QAEMABUD3DXVECTOR3@@@Z ; CInstanceBase::NEW_GetDistanceFromDestPixelPosition
PUBLIC	?AttackProcess@CInstanceBase@@IAEXXZ		; CInstanceBase::AttackProcess
;	COMDAT xdata$x
xdata$x	SEGMENT
__ehfuncinfo$?SetFlyTargetInstance@CInstanceBase@@QAEXAAV1@@Z DQ 00000000119930522r ; 2.33398e-314
	DD	FLAT:__unwindtable$?SetFlyTargetInstance@CInstanceBase@@QAEXAAV1@@Z
	DQ	00000000000000000r		; 0
	DQ	00000000000000000r		; 0
	DQ	00000000100000000r		; 2.122e-314
__unwindtable$?SetFlyTargetInstance@CInstanceBase@@QAEXAAV1@@Z DD 0ffffffffH
	DD	FLAT:__unwindfunclet$?SetFlyTargetInstance@CInstanceBase@@QAEXAAV1@@Z$0
xdata$x	ENDS
;	COMDAT xdata$x
xdata$x	SEGMENT
__ehfuncinfo$?AddFlyTargetPosition@CInstanceBase@@QAEXABUD3DXVECTOR3@@@Z DQ 00000000119930522r ; 2.33398e-314
	DD	FLAT:__unwindtable$?AddFlyTargetPosition@CInstanceBase@@QAEXABUD3DXVECTOR3@@@Z
	DQ	00000000000000000r		; 0
	DQ	00000000000000000r		; 0
	DQ	00000000100000000r		; 2.122e-314
__unwindtable$?AddFlyTargetPosition@CInstanceBase@@QAEXABUD3DXVECTOR3@@@Z DD 0ffffffffH
	DD	FLAT:__unwindfunclet$?AddFlyTargetPosition@CInstanceBase@@QAEXABUD3DXVECTOR3@@@Z$0
xdata$x	ENDS
;	COMDAT xdata$x
xdata$x	SEGMENT
__ehfuncinfo$?AddFlyTargetInstance@CInstanceBase@@QAEXAAV1@@Z DQ 00000000119930522r ; 2.33398e-314
	DD	FLAT:__unwindtable$?AddFlyTargetInstance@CInstanceBase@@QAEXAAV1@@Z
	DQ	00000000000000000r		; 0
	DQ	00000000000000000r		; 0
	DQ	00000000100000000r		; 2.122e-314
__unwindtable$?AddFlyTargetInstance@CInstanceBase@@QAEXAAV1@@Z DD 0ffffffffH
	DD	FLAT:__unwindfunclet$?AddFlyTargetInstance@CInstanceBase@@QAEXAAV1@@Z$0
xdata$x	ENDS
;	COMDAT xdata$x
xdata$x	SEGMENT
__ehfuncinfo$?NEW_GetFrontInstance@CInstanceBase@@QAE_NPAPAV1@M@Z DQ 00000000119930522r ; 2.33398e-314
	DD	FLAT:__unwindtable$?NEW_GetFrontInstance@CInstanceBase@@QAE_NPAPAV1@M@Z
	DQ	00000000000000000r		; 0
	DQ	00000000000000000r		; 0
	DQ	00000000100000000r		; 2.122e-314
__unwindtable$?NEW_GetFrontInstance@CInstanceBase@@QAE_NPAPAV1@M@Z DD 0ffffffffH
	DD	FLAT:__unwindfunclet$?NEW_GetFrontInstance@CInstanceBase@@QAE_NPAPAV1@M@Z$0
xdata$x	ENDS
;	COMDAT xdata$x
xdata$x	SEGMENT
__ehfuncinfo$?NEW_GetInstanceVectorInFanRange@CInstanceBase@@QAE_NMAAV1@PAV?$vector@PAVCInstanceBase@@V?$allocator@PAVCInstanceBase@@@std@@@std@@@Z DQ 00000000119930522r ; 2.33398e-314
	DD	FLAT:__unwindtable$?NEW_GetInstanceVectorInFanRange@CInstanceBase@@QAE_NMAAV1@PAV?$vector@PAVCInstanceBase@@V?$allocator@PAVCInstanceBase@@@std@@@std@@@Z
	DQ	00000000000000000r		; 0
	DQ	00000000000000000r		; 0
	DQ	00000000100000000r		; 2.122e-314
__unwindtable$?NEW_GetInstanceVectorInFanRange@CInstanceBase@@QAE_NMAAV1@PAV?$vector@PAVCInstanceBase@@V?$allocator@PAVCInstanceBase@@@std@@@std@@@Z DD 0ffffffffH
	DD	FLAT:__unwindfunclet$?NEW_GetInstanceVectorInFanRange@CInstanceBase@@QAE_NMAAV1@PAV?$vector@PAVCInstanceBase@@V?$allocator@PAVCInstanceBase@@@std@@@std@@@Z$0
xdata$x	ENDS
;	COMDAT xdata$x
xdata$x	SEGMENT
__ehfuncinfo$?NEW_GetInstanceVectorInCircleRange@CInstanceBase@@QAE_NMPAV?$vector@PAVCInstanceBase@@V?$allocator@PAVCInstanceBase@@@std@@@std@@@Z DQ 00000000119930522r ; 2.33398e-314
	DD	FLAT:__unwindtable$?NEW_GetInstanceVectorInCircleRange@CInstanceBase@@QAE_NMPAV?$vector@PAVCInstanceBase@@V?$allocator@PAVCInstanceBase@@@std@@@std@@@Z
	DQ	00000000000000000r		; 0
	DQ	00000000000000000r		; 0
	DQ	00000000100000000r		; 2.122e-314
__unwindtable$?NEW_GetInstanceVectorInCircleRange@CInstanceBase@@QAE_NMPAV?$vector@PAVCInstanceBase@@V?$allocator@PAVCInstanceBase@@@std@@@std@@@Z DD 0ffffffffH
	DD	FLAT:__unwindfunclet$?NEW_GetInstanceVectorInCircleRange@CInstanceBase@@QAE_NMPAV?$vector@PAVCInstanceBase@@V?$allocator@PAVCInstanceBase@@@std@@@std@@@Z$0
xdata$x	ENDS
;	COMDAT xdata$x
xdata$x	SEGMENT
__ehfuncinfo$??$insert@$00$0A@@?$_Tree@V?$_Tmap_traits@MPAVCInstanceBase@@U?$less@M@std@@V?$allocator@U?$pair@$$CBMPAVCInstanceBase@@@std@@@3@$00@std@@@std@@QAE?AV?$_Tree_iterator@V?$_Tree_val@U?$_Tree_simple_types@U?$pair@$$CBMPAVCInstanceBase@@@std@@@std@@@std@@@1@$$QAU?$pair@$$CBMPAVCInstanceBase@@@1@@Z DQ 00000000219930522r ; 4.45598e-314
	DD	FLAT:__unwindtable$??$insert@$00$0A@@?$_Tree@V?$_Tmap_traits@MPAVCInstanceBase@@U?$less@M@std@@V?$allocator@U?$pair@$$CBMPAVCInstanceBase@@@std@@@3@$00@std@@@std@@QAE?AV?$_Tree_iterator@V?$_Tree_val@U?$_Tree_simple_types@U?$pair@$$CBMPAVCInstanceBase@@@std@@@std@@@std@@@1@$$QAU?$pair@$$CBMPAVCInstanceBase@@@1@@Z
	DQ	00000000000000000r		; 0
	DQ	00000000000000000r		; 0
	DQ	00000000100000000r		; 2.122e-314
__unwindtable$??$insert@$00$0A@@?$_Tree@V?$_Tmap_traits@MPAVCInstanceBase@@U?$less@M@std@@V?$allocator@U?$pair@$$CBMPAVCInstanceBase@@@std@@@3@$00@std@@@std@@QAE?AV?$_Tree_iterator@V?$_Tree_val@U?$_Tree_simple_types@U?$pair@$$CBMPAVCInstanceBase@@@std@@@std@@@std@@@1@$$QAU?$pair@$$CBMPAVCInstanceBase@@@1@@Z DD 0ffffffffH
	DD	FLAT:__unwindfunclet$??$insert@$00$0A@@?$_Tree@V?$_Tmap_traits@MPAVCInstanceBase@@U?$less@M@std@@V?$allocator@U?$pair@$$CBMPAVCInstanceBase@@@std@@@3@$00@std@@@std@@QAE?AV?$_Tree_iterator@V?$_Tree_val@U?$_Tree_simple_types@U?$pair@$$CBMPAVCInstanceBase@@@std@@@std@@@std@@@1@$$QAU?$pair@$$CBMPAVCInstanceBase@@@1@@Z$2
	DD	0ffffffffH
	DD	FLAT:__unwindfunclet$??$insert@$00$0A@@?$_Tree@V?$_Tmap_traits@MPAVCInstanceBase@@U?$less@M@std@@V?$allocator@U?$pair@$$CBMPAVCInstanceBase@@@std@@@3@$00@std@@@std@@QAE?AV?$_Tree_iterator@V?$_Tree_val@U?$_Tree_simple_types@U?$pair@$$CBMPAVCInstanceBase@@@std@@@std@@@std@@@1@$$QAU?$pair@$$CBMPAVCInstanceBase@@@1@@Z$0
xdata$x	ENDS
;	COMDAT xdata$x
xdata$x	SEGMENT
__ehfuncinfo$??$_Emplace@U?$pair@$$CBMPAVCInstanceBase@@@std@@@?$_Tree@V?$_Tmap_traits@MPAVCInstanceBase@@U?$less@M@std@@V?$allocator@U?$pair@$$CBMPAVCInstanceBase@@@std@@@3@$00@std@@@std@@IAE?AU?$pair@PAU?$_Tree_node@U?$pair@$$CBMPAVCInstanceBase@@@std@@PAX@std@@_N@1@$$QAU?$pair@$$CBMPAVCInstanceBase@@@1@@Z DQ 00000000219930522r ; 4.45598e-314
	DD	FLAT:__unwindtable$??$_Emplace@U?$pair@$$CBMPAVCInstanceBase@@@std@@@?$_Tree@V?$_Tmap_traits@MPAVCInstanceBase@@U?$less@M@std@@V?$allocator@U?$pair@$$CBMPAVCInstanceBase@@@std@@@3@$00@std@@@std@@IAE?AU?$pair@PAU?$_Tree_node@U?$pair@$$CBMPAVCInstanceBase@@@std@@PAX@std@@_N@1@$$QAU?$pair@$$CBMPAVCInstanceBase@@@1@@Z
	DQ	00000000000000000r		; 0
	DQ	00000000000000000r		; 0
	DQ	00000000100000000r		; 2.122e-314
__unwindtable$??$_Emplace@U?$pair@$$CBMPAVCInstanceBase@@@std@@@?$_Tree@V?$_Tmap_traits@MPAVCInstanceBase@@U?$less@M@std@@V?$allocator@U?$pair@$$CBMPAVCInstanceBase@@@std@@@3@$00@std@@@std@@IAE?AU?$pair@PAU?$_Tree_node@U?$pair@$$CBMPAVCInstanceBase@@@std@@PAX@std@@_N@1@$$QAU?$pair@$$CBMPAVCInstanceBase@@@1@@Z DD 0ffffffffH
	DD	FLAT:__unwindfunclet$??$_Emplace@U?$pair@$$CBMPAVCInstanceBase@@@std@@@?$_Tree@V?$_Tmap_traits@MPAVCInstanceBase@@U?$less@M@std@@V?$allocator@U?$pair@$$CBMPAVCInstanceBase@@@std@@@3@$00@std@@@std@@IAE?AU?$pair@PAU?$_Tree_node@U?$pair@$$CBMPAVCInstanceBase@@@std@@PAX@std@@_N@1@$$QAU?$pair@$$CBMPAVCInstanceBase@@@1@@Z$2
	DD	0ffffffffH
	DD	FLAT:__unwindfunclet$??$_Emplace@U?$pair@$$CBMPAVCInstanceBase@@@std@@@?$_Tree@V?$_Tmap_traits@MPAVCInstanceBase@@U?$less@M@std@@V?$allocator@U?$pair@$$CBMPAVCInstanceBase@@@std@@@3@$00@std@@@std@@IAE?AU?$pair@PAU?$_Tree_node@U?$pair@$$CBMPAVCInstanceBase@@@std@@PAX@std@@_N@1@$$QAU?$pair@$$CBMPAVCInstanceBase@@@1@@Z$0
xdata$x	ENDS
;	COMDAT xdata$x
xdata$x	SEGMENT
__ehfuncinfo$??$emplace@U?$pair@MPAVCInstanceBase@@@std@@@?$multimap@MPAVCInstanceBase@@U?$less@M@std@@V?$allocator@U?$pair@$$CBMPAVCInstanceBase@@@std@@@3@@std@@QAE?AV?$_Tree_iterator@V?$_Tree_val@U?$_Tree_simple_types@U?$pair@$$CBMPAVCInstanceBase@@@std@@@std@@@std@@@1@$$QAU?$pair@MPAVCInstanceBase@@@1@@Z DQ 00000000219930522r ; 4.45598e-314
	DD	FLAT:__unwindtable$??$emplace@U?$pair@MPAVCInstanceBase@@@std@@@?$multimap@MPAVCInstanceBase@@U?$less@M@std@@V?$allocator@U?$pair@$$CBMPAVCInstanceBase@@@std@@@3@@std@@QAE?AV?$_Tree_iterator@V?$_Tree_val@U?$_Tree_simple_types@U?$pair@$$CBMPAVCInstanceBase@@@std@@@std@@@std@@@1@$$QAU?$pair@MPAVCInstanceBase@@@1@@Z
	DQ	00000000000000000r		; 0
	DQ	00000000000000000r		; 0
	DQ	00000000100000000r		; 2.122e-314
__unwindtable$??$emplace@U?$pair@MPAVCInstanceBase@@@std@@@?$multimap@MPAVCInstanceBase@@U?$less@M@std@@V?$allocator@U?$pair@$$CBMPAVCInstanceBase@@@std@@@3@@std@@QAE?AV?$_Tree_iterator@V?$_Tree_val@U?$_Tree_simple_types@U?$pair@$$CBMPAVCInstanceBase@@@std@@@std@@@std@@@1@$$QAU?$pair@MPAVCInstanceBase@@@1@@Z DD 0ffffffffH
	DD	FLAT:__unwindfunclet$??$emplace@U?$pair@MPAVCInstanceBase@@@std@@@?$multimap@MPAVCInstanceBase@@U?$less@M@std@@V?$allocator@U?$pair@$$CBMPAVCInstanceBase@@@std@@@3@@std@@QAE?AV?$_Tree_iterator@V?$_Tree_val@U?$_Tree_simple_types@U?$pair@$$CBMPAVCInstanceBase@@@std@@@std@@@std@@@1@$$QAU?$pair@MPAVCInstanceBase@@@1@@Z$2
	DD	0ffffffffH
	DD	FLAT:__unwindfunclet$??$emplace@U?$pair@MPAVCInstanceBase@@@std@@@?$multimap@MPAVCInstanceBase@@U?$less@M@std@@V?$allocator@U?$pair@$$CBMPAVCInstanceBase@@@std@@@3@@std@@QAE?AV?$_Tree_iterator@V?$_Tree_val@U?$_Tree_simple_types@U?$pair@$$CBMPAVCInstanceBase@@@std@@@std@@@std@@@1@$$QAU?$pair@MPAVCInstanceBase@@@1@@Z$0
xdata$x	ENDS
;	COMDAT xdata$x
xdata$x	SEGMENT
__ehfuncinfo$??$?0U?$pair@$$CBMPAVCInstanceBase@@@std@@@?$_Tree_temp_node@V?$allocator@U?$_Tree_node@U?$pair@$$CBMPAVCInstanceBase@@@std@@PAX@std@@@std@@@std@@QAE@AAV?$allocator@U?$_Tree_node@U?$pair@$$CBMPAVCInstanceBase@@@std@@PAX@std@@@1@PAU?$_Tree_node@U?$pair@$$CBMPAVCInstanceBase@@@std@@PAX@1@$$QAU?$pair@$$CBMPAVCInstanceBase@@@1@@Z DQ 00000000119930522r ; 2.33398e-314
	DD	FLAT:__unwindtable$??$?0U?$pair@$$CBMPAVCInstanceBase@@@std@@@?$_Tree_temp_node@V?$allocator@U?$_Tree_node@U?$pair@$$CBMPAVCInstanceBase@@@std@@PAX@std@@@std@@@std@@QAE@AAV?$allocator@U?$_Tree_node@U?$pair@$$CBMPAVCInstanceBase@@@std@@PAX@std@@@1@PAU?$_Tree_node@U?$pair@$$CBMPAVCInstanceBase@@@std@@PAX@1@$$QAU?$pair@$$CBMPAVCInstanceBase@@@1@@Z
	DQ	00000000000000000r		; 0
	DQ	00000000000000000r		; 0
	DQ	00000000100000000r		; 2.122e-314
__unwindtable$??$?0U?$pair@$$CBMPAVCInstanceBase@@@std@@@?$_Tree_temp_node@V?$allocator@U?$_Tree_node@U?$pair@$$CBMPAVCInstanceBase@@@std@@PAX@std@@@std@@@std@@QAE@AAV?$allocator@U?$_Tree_node@U?$pair@$$CBMPAVCInstanceBase@@@std@@PAX@std@@@1@PAU?$_Tree_node@U?$pair@$$CBMPAVCInstanceBase@@@std@@PAX@1@$$QAU?$pair@$$CBMPAVCInstanceBase@@@1@@Z DD 0ffffffffH
	DD	FLAT:__unwindfunclet$??$?0U?$pair@$$CBMPAVCInstanceBase@@@std@@@?$_Tree_temp_node@V?$allocator@U?$_Tree_node@U?$pair@$$CBMPAVCInstanceBase@@@std@@PAX@std@@@std@@@std@@QAE@AAV?$allocator@U?$_Tree_node@U?$pair@$$CBMPAVCInstanceBase@@@std@@PAX@std@@@1@PAU?$_Tree_node@U?$pair@$$CBMPAVCInstanceBase@@@std@@PAX@1@$$QAU?$pair@$$CBMPAVCInstanceBase@@@1@@Z$1
xdata$x	ENDS
;	COMDAT xdata$x
xdata$x	SEGMENT
__ehfuncinfo$??$emplace@U?$pair@MPAVCInstanceBase@@@std@@@?$_Tree@V?$_Tmap_traits@MPAVCInstanceBase@@U?$less@M@std@@V?$allocator@U?$pair@$$CBMPAVCInstanceBase@@@std@@@3@$00@std@@@std@@QAE?AU?$pair@V?$_Tree_iterator@V?$_Tree_val@U?$_Tree_simple_types@U?$pair@$$CBMPAVCInstanceBase@@@std@@@std@@@std@@@std@@_N@1@$$QAU?$pair@MPAVCInstanceBase@@@1@@Z DQ 00000000219930522r ; 4.45598e-314
	DD	FLAT:__unwindtable$??$emplace@U?$pair@MPAVCInstanceBase@@@std@@@?$_Tree@V?$_Tmap_traits@MPAVCInstanceBase@@U?$less@M@std@@V?$allocator@U?$pair@$$CBMPAVCInstanceBase@@@std@@@3@$00@std@@@std@@QAE?AU?$pair@V?$_Tree_iterator@V?$_Tree_val@U?$_Tree_simple_types@U?$pair@$$CBMPAVCInstanceBase@@@std@@@std@@@std@@@std@@_N@1@$$QAU?$pair@MPAVCInstanceBase@@@1@@Z
	DQ	00000000000000000r		; 0
	DQ	00000000000000000r		; 0
	DQ	00000000100000000r		; 2.122e-314
__unwindtable$??$emplace@U?$pair@MPAVCInstanceBase@@@std@@@?$_Tree@V?$_Tmap_traits@MPAVCInstanceBase@@U?$less@M@std@@V?$allocator@U?$pair@$$CBMPAVCInstanceBase@@@std@@@3@$00@std@@@std@@QAE?AU?$pair@V?$_Tree_iterator@V?$_Tree_val@U?$_Tree_simple_types@U?$pair@$$CBMPAVCInstanceBase@@@std@@@std@@@std@@@std@@_N@1@$$QAU?$pair@MPAVCInstanceBase@@@1@@Z DD 0ffffffffH
	DD	FLAT:__unwindfunclet$??$emplace@U?$pair@MPAVCInstanceBase@@@std@@@?$_Tree@V?$_Tmap_traits@MPAVCInstanceBase@@U?$less@M@std@@V?$allocator@U?$pair@$$CBMPAVCInstanceBase@@@std@@@3@$00@std@@@std@@QAE?AU?$pair@V?$_Tree_iterator@V?$_Tree_val@U?$_Tree_simple_types@U?$pair@$$CBMPAVCInstanceBase@@@std@@@std@@@std@@@std@@_N@1@$$QAU?$pair@MPAVCInstanceBase@@@1@@Z$2
	DD	0ffffffffH
	DD	FLAT:__unwindfunclet$??$emplace@U?$pair@MPAVCInstanceBase@@@std@@@?$_Tree@V?$_Tmap_traits@MPAVCInstanceBase@@U?$less@M@std@@V?$allocator@U?$pair@$$CBMPAVCInstanceBase@@@std@@@3@$00@std@@@std@@QAE?AU?$pair@V?$_Tree_iterator@V?$_Tree_val@U?$_Tree_simple_types@U?$pair@$$CBMPAVCInstanceBase@@@std@@@std@@@std@@@std@@_N@1@$$QAU?$pair@MPAVCInstanceBase@@@1@@Z$0
xdata$x	ENDS
;	COMDAT xdata$x
xdata$x	SEGMENT
__ehfuncinfo$??$_Emplace@U?$pair@MPAVCInstanceBase@@@std@@@?$_Tree@V?$_Tmap_traits@MPAVCInstanceBase@@U?$less@M@std@@V?$allocator@U?$pair@$$CBMPAVCInstanceBase@@@std@@@3@$00@std@@@std@@IAE?AU?$pair@PAU?$_Tree_node@U?$pair@$$CBMPAVCInstanceBase@@@std@@PAX@std@@_N@1@$$QAU?$pair@MPAVCInstanceBase@@@1@@Z DQ 00000000219930522r ; 4.45598e-314
	DD	FLAT:__unwindtable$??$_Emplace@U?$pair@MPAVCInstanceBase@@@std@@@?$_Tree@V?$_Tmap_traits@MPAVCInstanceBase@@U?$less@M@std@@V?$allocator@U?$pair@$$CBMPAVCInstanceBase@@@std@@@3@$00@std@@@std@@IAE?AU?$pair@PAU?$_Tree_node@U?$pair@$$CBMPAVCInstanceBase@@@std@@PAX@std@@_N@1@$$QAU?$pair@MPAVCInstanceBase@@@1@@Z
	DQ	00000000000000000r		; 0
	DQ	00000000000000000r		; 0
	DQ	00000000100000000r		; 2.122e-314
__unwindtable$??$_Emplace@U?$pair@MPAVCInstanceBase@@@std@@@?$_Tree@V?$_Tmap_traits@MPAVCInstanceBase@@U?$less@M@std@@V?$allocator@U?$pair@$$CBMPAVCInstanceBase@@@std@@@3@$00@std@@@std@@IAE?AU?$pair@PAU?$_Tree_node@U?$pair@$$CBMPAVCInstanceBase@@@std@@PAX@std@@_N@1@$$QAU?$pair@MPAVCInstanceBase@@@1@@Z DD 0ffffffffH
	DD	FLAT:__unwindfunclet$??$_Emplace@U?$pair@MPAVCInstanceBase@@@std@@@?$_Tree@V?$_Tmap_traits@MPAVCInstanceBase@@U?$less@M@std@@V?$allocator@U?$pair@$$CBMPAVCInstanceBase@@@std@@@3@$00@std@@@std@@IAE?AU?$pair@PAU?$_Tree_node@U?$pair@$$CBMPAVCInstanceBase@@@std@@PAX@std@@_N@1@$$QAU?$pair@MPAVCInstanceBase@@@1@@Z$2
	DD	0ffffffffH
	DD	FLAT:__unwindfunclet$??$_Emplace@U?$pair@MPAVCInstanceBase@@@std@@@?$_Tree@V?$_Tmap_traits@MPAVCInstanceBase@@U?$less@M@std@@V?$allocator@U?$pair@$$CBMPAVCInstanceBase@@@std@@@3@$00@std@@@std@@IAE?AU?$pair@PAU?$_Tree_node@U?$pair@$$CBMPAVCInstanceBase@@@std@@PAX@std@@_N@1@$$QAU?$pair@MPAVCInstanceBase@@@1@@Z$0
xdata$x	ENDS
;	COMDAT xdata$x
xdata$x	SEGMENT
__ehfuncinfo$??0?$_Tree_temp_node_alloc@V?$allocator@U?$_Tree_node@U?$pair@$$CBMPAVCInstanceBase@@@std@@PAX@std@@@std@@@std@@QAE@AAV?$allocator@U?$_Tree_node@U?$pair@$$CBMPAVCInstanceBase@@@std@@PAX@std@@@1@@Z DQ 00000000119930522r ; 2.33398e-314
	DD	FLAT:__unwindtable$??0?$_Tree_temp_node_alloc@V?$allocator@U?$_Tree_node@U?$pair@$$CBMPAVCInstanceBase@@@std@@PAX@std@@@std@@@std@@QAE@AAV?$allocator@U?$_Tree_node@U?$pair@$$CBMPAVCInstanceBase@@@std@@PAX@std@@@1@@Z
	DQ	00000000000000000r		; 0
	DQ	00000000000000000r		; 0
	DQ	00000000100000000r		; 2.122e-314
__unwindtable$??0?$_Tree_temp_node_alloc@V?$allocator@U?$_Tree_node@U?$pair@$$CBMPAVCInstanceBase@@@std@@PAX@std@@@std@@@std@@QAE@AAV?$allocator@U?$_Tree_node@U?$pair@$$CBMPAVCInstanceBase@@@std@@PAX@std@@@1@@Z DD 0ffffffffH
	DD	FLAT:__unwindfunclet$??0?$_Tree_temp_node_alloc@V?$allocator@U?$_Tree_node@U?$pair@$$CBMPAVCInstanceBase@@@std@@PAX@std@@@std@@@std@@QAE@AAV?$allocator@U?$_Tree_node@U?$pair@$$CBMPAVCInstanceBase@@@std@@PAX@std@@@1@@Z$0
xdata$x	ENDS
;	COMDAT xdata$x
xdata$x	SEGMENT
__ehfuncinfo$??$?0U?$pair@MPAVCInstanceBase@@@std@@@?$_Tree_temp_node@V?$allocator@U?$_Tree_node@U?$pair@$$CBMPAVCInstanceBase@@@std@@PAX@std@@@std@@@std@@QAE@AAV?$allocator@U?$_Tree_node@U?$pair@$$CBMPAVCInstanceBase@@@std@@PAX@std@@@1@PAU?$_Tree_node@U?$pair@$$CBMPAVCInstanceBase@@@std@@PAX@1@$$QAU?$pair@MPAVCInstanceBase@@@1@@Z DQ 00000000119930522r ; 2.33398e-314
	DD	FLAT:__unwindtable$??$?0U?$pair@MPAVCInstanceBase@@@std@@@?$_Tree_temp_node@V?$allocator@U?$_Tree_node@U?$pair@$$CBMPAVCInstanceBase@@@std@@PAX@std@@@std@@@std@@QAE@AAV?$allocator@U?$_Tree_node@U?$pair@$$CBMPAVCInstanceBase@@@std@@PAX@std@@@1@PAU?$_Tree_node@U?$pair@$$CBMPAVCInstanceBase@@@std@@PAX@1@$$QAU?$pair@MPAVCInstanceBase@@@1@@Z
	DQ	00000000000000000r		; 0
	DQ	00000000000000000r		; 0
	DQ	00000000100000000r		; 2.122e-314
__unwindtable$??$?0U?$pair@MPAVCInstanceBase@@@std@@@?$_Tree_temp_node@V?$allocator@U?$_Tree_node@U?$pair@$$CBMPAVCInstanceBase@@@std@@PAX@std@@@std@@@std@@QAE@AAV?$allocator@U?$_Tree_node@U?$pair@$$CBMPAVCInstanceBase@@@std@@PAX@std@@@1@PAU?$_Tree_node@U?$pair@$$CBMPAVCInstanceBase@@@std@@PAX@1@$$QAU?$pair@MPAVCInstanceBase@@@1@@Z DD 0ffffffffH
	DD	FLAT:__unwindfunclet$??$?0U?$pair@MPAVCInstanceBase@@@std@@@?$_Tree_temp_node@V?$allocator@U?$_Tree_node@U?$pair@$$CBMPAVCInstanceBase@@@std@@PAX@std@@@std@@@std@@QAE@AAV?$allocator@U?$_Tree_node@U?$pair@$$CBMPAVCInstanceBase@@@std@@PAX@std@@@1@PAU?$_Tree_node@U?$pair@$$CBMPAVCInstanceBase@@@std@@PAX@1@$$QAU?$pair@MPAVCInstanceBase@@@1@@Z$1
; Function compile flags: /Ogtp
; File C:\Anka2Project\Anka2Project\Source\Binary\source\UserInterface\InstanceBaseBattle.cpp
; File C:\Anka2Project\Anka2Project\Source\Binary\source\eterBase\Singleton.h
; File C:\Program Files\Microsoft Visual Studio\2022\Community\VC\Tools\MSVC\14.44.35207\include\xtree
; File C:\Anka2Project\Anka2Project\Source\Binary\source\UserInterface\PythonCharacterManager.h
; File C:\Anka2Project\Anka2Project\Source\Binary\source\UserInterface\InstanceBaseBattle.cpp
; File C:\Program Files\Microsoft Visual Studio\2022\Community\VC\Tools\MSVC\14.44.35207\include\xtree
; File C:\Anka2Project\Anka2Project\Source\Binary\source\UserInterface\PythonCharacterManager.h
; File C:\Anka2Project\Anka2Project\Source\Binary\source\UserInterface\InstanceBaseBattle.cpp
; File C:\Anka2Project\Anka2Project\Source\Binary\source\eterBase\Singleton.h
; File C:\Anka2Project\Anka2Project\Source\Binary\source\UserInterface\InstanceBaseBattle.cpp
; File C:\Anka2Project\Anka2Project\Source\Binary\source\eterBase\Singleton.h
; File C:\Anka2Project\Anka2Project\Source\Binary\source\UserInterface\InstanceBaseBattle.cpp
; File C:\Program Files\Microsoft Visual Studio\2022\Community\VC\Tools\MSVC\14.44.35207\include\xtree
; File C:\Anka2Project\Anka2Project\Source\Binary\source\UserInterface\PythonCharacterManager.h
; File C:\Anka2Project\Anka2Project\Source\Binary\source\UserInterface\InstanceBaseBattle.cpp
; File C:\Anka2Project\Anka2Project\Source\Binary\source\eterBase\Singleton.h
; File C:\Anka2Project\Anka2Project\Source\Binary\source\UserInterface\InstanceBaseBattle.cpp
; File C:\Program Files\Microsoft Visual Studio\2022\Community\VC\Tools\MSVC\14.44.35207\include\xtree
; File C:\Anka2Project\Anka2Project\Source\Binary\source\UserInterface\PythonCharacterManager.h
; File C:\Anka2Project\Anka2Project\Source\Binary\source\UserInterface\InstanceBaseBattle.cpp
; File C:\Anka2Project\Anka2Project\Source\Binary\source\eterBase\Singleton.h
; File C:\Anka2Project\Anka2Project\Source\Binary\source\UserInterface\InstanceBaseBattle.cpp
; File C:\Anka2Project\Anka2Project\Source\Binary\extern\include\d3dx8math.inl
; File C:\Program Files (x86)\Windows Kits\10\Include\10.0.26100.0\ucrt\corecrt_math.h
; File C:\Anka2Project\Anka2Project\Source\Binary\source\UserInterface\InstanceBaseBattle.cpp
; File C:\Program Files (x86)\Windows Kits\10\Include\10.0.26100.0\ucrt\corecrt_math.h
; File C:\Anka2Project\Anka2Project\Source\Binary\source\UserInterface\InstanceBaseBattle.cpp
; File C:\Anka2Project\Anka2Project\Source\Binary\extern\include\d3dx8math.inl
; File C:\Anka2Project\Anka2Project\Source\Binary\source\UserInterface\InstanceBaseBattle.cpp
; File C:\Anka2Project\Anka2Project\Source\Binary\extern\include\d3dx8math.inl
; File C:\Anka2Project\Anka2Project\Source\Binary\source\UserInterface\InstanceBaseBattle.cpp
; File C:\Anka2Project\Anka2Project\Source\Binary\extern\include\d3dx8math.inl
; File C:\Anka2Project\Anka2Project\Source\Binary\source\UserInterface\InstanceBaseBattle.cpp
; File C:\Anka2Project\Anka2Project\Source\Binary\extern\include\d3dx8math.inl
; File C:\Anka2Project\Anka2Project\Source\Binary\source\UserInterface\InstanceBaseBattle.cpp
; File C:\Anka2Project\Anka2Project\Source\Binary\extern\include\d3dx8math.inl
; File C:\Anka2Project\Anka2Project\Source\Binary\source\UserInterface\InstanceBaseBattle.cpp
; File C:\Anka2Project\Anka2Project\Source\Binary\extern\include\d3dx8math.inl
; File C:\Anka2Project\Anka2Project\Source\Binary\source\UserInterface\InstanceBaseBattle.cpp
; File C:\Anka2Project\Anka2Project\Source\Binary\extern\include\d3dx8math.inl
; File C:\Anka2Project\Anka2Project\Source\Binary\source\UserInterface\InstanceBaseBattle.cpp
; File C:\Anka2Project\Anka2Project\Source\Binary\extern\include\d3dx8math.inl
; File C:\Anka2Project\Anka2Project\Source\Binary\source\UserInterface\InstanceBaseBattle.cpp
; File C:\Anka2Project\Anka2Project\Source\Binary\extern\include\d3dx8math.inl
; File C:\Anka2Project\Anka2Project\Source\Binary\source\UserInterface\InstanceBaseBattle.cpp
; File C:\Anka2Project\Anka2Project\Source\Binary\extern\include\d3dx8math.inl
; File C:\Anka2Project\Anka2Project\Source\Binary\source\UserInterface\InstanceBaseBattle.cpp
;	COMDAT ?CheckAdvancing@CInstanceBase@@QAEHXZ
_TEXT	SEGMENT
_this$1$ = -40						; size = 4
_v3CheckStep$$sroa$619$1$ = -40				; size = 4
_rkChrMgr$1$ = -36					; size = 4
_uCollisionCount$1$ = -36				; size = 4
_v3CheckStep$$sroa$618$1$ = -36				; size = 4
_i$35 = -32						; size = 4
_rkActorEach$1$ = -32					; size = 4
_rkBG$1$ = -32						; size = 4
_i$36 = -28						; size = 4
_rv3Position$1$ = -28					; size = 4
_bUsingSkill$1$ = -24					; size = 4
_rv3MoveDirection$1$ = -24				; size = 4
_rkActorSelf$1$ = -20					; size = 4
_v3CheckPosition$1$ = -20				; size = 4
_rkChrMgr$1$ = -16					; size = 4
_v3CheckPosition$2$ = -16				; size = 4
_v3CheckPosition$ = -12					; size = 12
?CheckAdvancing@CInstanceBase@@QAEHXZ PROC		; CInstanceBase::CheckAdvancing, COMDAT
; _this$ = ecx

; 484  : {

  00000	55		 push	 ebp
  00001	8b ec		 mov	 ebp, esp
  00003	83 e4 f8	 and	 esp, -8			; fffffff8H
  00006	83 ec 28	 sub	 esp, 40			; 00000028H
  00009	56		 push	 esi
  0000a	8b f1		 mov	 esi, ecx
  0000c	57		 push	 edi
  0000d	89 74 24 08	 mov	 DWORD PTR _this$1$[esp+48], esi

; 485  : 	if (!__IsMainInstance() && !IsAttacking())

  00011	e8 00 00 00 00	 call	 ?__IsMainInstance@CInstanceBase@@IAE_NXZ ; CInstanceBase::__IsMainInstance
  00016	84 c0		 test	 al, al
  00018	0f 85 ad 00 00
	00		 jne	 $LN11@CheckAdvan
  0001e	8b ce		 mov	 ecx, esi
  00020	e8 00 00 00 00	 call	 ?IsAttacking@CInstanceBase@@QAEHXZ ; CInstanceBase::IsAttacking
  00025	85 c0		 test	 eax, eax
  00027	0f 85 9e 00 00
	00		 jne	 $LN11@CheckAdvan

; 486  : 	{
; 487  : 		if (IsPC() && IsWalking())

  0002d	8b ce		 mov	 ecx, esi
  0002f	e8 00 00 00 00	 call	 ?IsPC@CInstanceBase@@QAEHXZ ; CInstanceBase::IsPC
  00034	85 c0		 test	 eax, eax
  00036	0f 84 87 00 00
	00		 je	 $LN27@CheckAdvan
  0003c	8b ce		 mov	 ecx, esi
  0003e	e8 00 00 00 00	 call	 ?IsWalking@CInstanceBase@@QAEHXZ ; CInstanceBase::IsWalking
  00043	85 c0		 test	 eax, eax
  00045	74 7c		 je	 SHORT $LN27@CheckAdvan
; File C:\Anka2Project\Anka2Project\Source\Binary\source\eterBase\Singleton.h

; 26   : 		assert(ms_singleton);

  00047	a1 00 00 00 00	 mov	 eax, DWORD PTR ?ms_singleton@?$CSingleton@VCPythonCharacterManager@@@@0PAVCPythonCharacterManager@@A ; CSingleton<CPythonCharacterManager>::ms_singleton
  0004c	89 44 24 0c	 mov	 DWORD PTR _rkChrMgr$1$[esp+48], eax
  00050	85 c0		 test	 eax, eax
  00052	75 1d		 jne	 SHORT $LN150@CheckAdvan
  00054	6a 1a		 push	 26			; 0000001aH
  00056	68 00 00 00 00	 push	 OFFSET ??_C@_1IO@CAJLEEOI@?$AAC?$AA?3?$AA?2?$AAA?$AAn?$AAk?$AAa?$AA2?$AAP?$AAr?$AAo?$AAj?$AAe?$AAc?$AAt@
  0005b	68 00 00 00 00	 push	 OFFSET ??_C@_1BK@FMEHPMFE@?$AAm?$AAs?$AA_?$AAs?$AAi?$AAn?$AAg?$AAl?$AAe?$AAt?$AAo?$AAn@
  00060	e8 00 00 00 00	 call	 __wassert
  00065	a1 00 00 00 00	 mov	 eax, DWORD PTR ?ms_singleton@?$CSingleton@VCPythonCharacterManager@@@@0PAVCPythonCharacterManager@@A ; CSingleton<CPythonCharacterManager>::ms_singleton
  0006a	83 c4 0c	 add	 esp, 12			; 0000000cH
  0006d	89 44 24 0c	 mov	 DWORD PTR _rkChrMgr$1$[esp+48], eax
$LN150@CheckAdvan:
; File C:\Program Files\Microsoft Visual Studio\2022\Community\VC\Tools\MSVC\14.44.35207\include\xtree

; 1142 :         return iterator(_Scary->_Myhead->_Left, _Scary);

  00071	8b 48 20	 mov	 ecx, DWORD PTR [eax+32]

; 37   :     _Tree_unchecked_const_iterator(_Nodeptr _Pnode, const _Mytree* _Plist) noexcept : _Ptr(_Pnode) {

  00074	8b 01		 mov	 eax, DWORD PTR [ecx]
; File C:\Anka2Project\Anka2Project\Source\Binary\source\UserInterface\PythonCharacterManager.h

; 141  : 				CharacterIterator(const TCharacterInstanceMap::iterator & it) : m_it(it) {}

  00076	89 44 24 10	 mov	 DWORD PTR _i$35[esp+48], eax

; 171  : 					return m_it != rhs.m_it;

  0007a	3b c1		 cmp	 eax, ecx
; File C:\Anka2Project\Anka2Project\Source\Binary\source\UserInterface\InstanceBaseBattle.cpp

; 490  : 			for(CPythonCharacterManager::CharacterIterator i = rkChrMgr.CharacterInstanceBegin(); i!=rkChrMgr.CharacterInstanceEnd();++i)

  0007c	74 45		 je	 SHORT $LN27@CheckAdvan
  0007e	66 90		 npad	 2
$LL4@CheckAdvan:

; 491  : 			{
; 492  : 				CInstanceBase* pkInstEach=*i;

  00080	8b 78 14	 mov	 edi, DWORD PTR [eax+20]

; 493  : 				if (pkInstEach==this)

  00083	3b fe		 cmp	 edi, esi
  00085	74 26		 je	 SHORT $LN2@CheckAdvan

; 494  : 					continue;
; 495  : 				if (!pkInstEach->IsDoor())

  00087	8b cf		 mov	 ecx, edi
  00089	e8 00 00 00 00	 call	 ?IsDoor@CInstanceBase@@QAEHXZ ; CInstanceBase::IsDoor
  0008e	85 c0		 test	 eax, eax
  00090	74 1b		 je	 SHORT $LN2@CheckAdvan

; 496  : 					continue;
; 497  : 
; 498  : 				if (m_GraphicThingInstance.TestActorCollision(pkInstEach->GetGraphicThingInstanceRef()))

  00092	8b cf		 mov	 ecx, edi
  00094	e8 00 00 00 00	 call	 ?GetGraphicThingInstanceRef@CInstanceBase@@QAEAAVCActorInstance@@XZ ; CInstanceBase::GetGraphicThingInstanceRef
  00099	50		 push	 eax
  0009a	8d 8e f4 02 00
	00		 lea	 ecx, DWORD PTR [esi+756]
  000a0	e8 00 00 00 00	 call	 ?TestActorCollision@CActorInstance@@QAEHAAV1@@Z ; CActorInstance::TestActorCollision
  000a5	85 c0		 test	 eax, eax
  000a7	0f 85 28 03 00
	00		 jne	 $LN186@CheckAdvan
$LN2@CheckAdvan:
; File C:\Program Files\Microsoft Visual Studio\2022\Community\VC\Tools\MSVC\14.44.35207\include\xtree

; 198  :         _Mybase::operator++();

  000ad	8d 4c 24 10	 lea	 ecx, DWORD PTR _i$35[esp+48]
  000b1	e8 00 00 00 00	 call	 ??E?$_Tree_unchecked_const_iterator@V?$_Tree_val@U?$_Tree_simple_types@U?$pair@$$CBKPAVCInstanceBase@@@std@@@std@@@std@@U_Iterator_base0@2@@std@@QAEAAV01@XZ ; std::_Tree_unchecked_const_iterator<std::_Tree_val<std::_Tree_simple_types<std::pair<unsigned long const ,CInstanceBase *> > >,std::_Iterator_base0>::operator++
; File C:\Anka2Project\Anka2Project\Source\Binary\source\UserInterface\PythonCharacterManager.h

; 171  : 					return m_it != rhs.m_it;

  000b6	8b 4c 24 0c	 mov	 ecx, DWORD PTR _rkChrMgr$1$[esp+48]
  000ba	8b 44 24 10	 mov	 eax, DWORD PTR _i$35[esp+48]
  000be	3b 41 20	 cmp	 eax, DWORD PTR [ecx+32]
; File C:\Anka2Project\Anka2Project\Source\Binary\source\UserInterface\InstanceBaseBattle.cpp

; 490  : 			for(CPythonCharacterManager::CharacterIterator i = rkChrMgr.CharacterInstanceBegin(); i!=rkChrMgr.CharacterInstanceEnd();++i)

  000c1	75 bd		 jne	 SHORT $LL4@CheckAdvan
$LN27@CheckAdvan:

; 583  : 		return TRUE;
; 584  : 	}
; 585  : 
; 586  : 	return FALSE;

  000c3	33 c0		 xor	 eax, eax

; 587  : }

  000c5	5f		 pop	 edi
  000c6	5e		 pop	 esi
  000c7	8b e5		 mov	 esp, ebp
  000c9	5d		 pop	 ebp
  000ca	c3		 ret	 0
$LN11@CheckAdvan:

; 499  : 				{
; 500  : 					BlockMovement();
; 501  : 					return true;
; 502  : 				}
; 503  : 			}
; 504  : 		}
; 505  : 		return FALSE;
; 506  : 	}
; 507  : 
; 508  : 	if (m_GraphicThingInstance.CanSkipCollision())

  000cb	8d be f4 02 00
	00		 lea	 edi, DWORD PTR [esi+756]
  000d1	8b cf		 mov	 ecx, edi
  000d3	89 7c 24 1c	 mov	 DWORD PTR _rkActorSelf$1$[esp+48], edi
  000d7	e8 00 00 00 00	 call	 ?CanSkipCollision@CActorInstance@@QAE_NXZ ; CActorInstance::CanSkipCollision
  000dc	84 c0		 test	 al, al
  000de	75 e3		 jne	 SHORT $LN27@CheckAdvan

; 514  : 	BOOL bUsingSkill = m_GraphicThingInstance.IsUsingSkill();

  000e0	8b cf		 mov	 ecx, edi
  000e2	e8 00 00 00 00	 call	 ?IsUsingSkill@CActorInstance@@QAEHXZ ; CActorInstance::IsUsingSkill

; 515  : 
; 516  : 	m_dwAdvActorVID = 0;

  000e7	c7 86 88 02 00
	00 00 00 00 00	 mov	 DWORD PTR [esi+648], 0
; File C:\Anka2Project\Anka2Project\Source\Binary\source\eterBase\Singleton.h

; 26   : 		assert(ms_singleton);

  000f1	83 3d 00 00 00
	00 00		 cmp	 DWORD PTR ?ms_singleton@?$CSingleton@VCPythonCharacterManager@@@@0PAVCPythonCharacterManager@@A, 0 ; CSingleton<CPythonCharacterManager>::ms_singleton
; File C:\Anka2Project\Anka2Project\Source\Binary\source\UserInterface\InstanceBaseBattle.cpp

; 514  : 	BOOL bUsingSkill = m_GraphicThingInstance.IsUsingSkill();

  000f8	89 44 24 18	 mov	 DWORD PTR _bUsingSkill$1$[esp+48], eax

; 517  : 	UINT uCollisionCount=0;

  000fc	c7 44 24 0c 00
	00 00 00	 mov	 DWORD PTR _uCollisionCount$1$[esp+48], 0
; File C:\Anka2Project\Anka2Project\Source\Binary\source\eterBase\Singleton.h

; 26   : 		assert(ms_singleton);

  00104	75 14		 jne	 SHORT $LN91@CheckAdvan
  00106	6a 1a		 push	 26			; 0000001aH
  00108	68 00 00 00 00	 push	 OFFSET ??_C@_1IO@CAJLEEOI@?$AAC?$AA?3?$AA?2?$AAA?$AAn?$AAk?$AAa?$AA2?$AAP?$AAr?$AAo?$AAj?$AAe?$AAc?$AAt@
  0010d	68 00 00 00 00	 push	 OFFSET ??_C@_1BK@FMEHPMFE@?$AAm?$AAs?$AA_?$AAs?$AAi?$AAn?$AAg?$AAl?$AAe?$AAt?$AAo?$AAn@
  00112	e8 00 00 00 00	 call	 __wassert
  00117	83 c4 0c	 add	 esp, 12			; 0000000cH
$LN91@CheckAdvan:
; File C:\Anka2Project\Anka2Project\Source\Binary\source\UserInterface\InstanceBaseBattle.cpp

; 519  : 	CPythonCharacterManager& rkChrMgr=CPythonCharacterManager::Instance();

  0011a	a1 00 00 00 00	 mov	 eax, DWORD PTR ?ms_singleton@?$CSingleton@VCPythonCharacterManager@@@@0PAVCPythonCharacterManager@@A ; CSingleton<CPythonCharacterManager>::ms_singleton
  0011f	89 44 24 20	 mov	 DWORD PTR _rkChrMgr$1$[esp+48], eax
; File C:\Program Files\Microsoft Visual Studio\2022\Community\VC\Tools\MSVC\14.44.35207\include\xtree

; 1142 :         return iterator(_Scary->_Myhead->_Left, _Scary);

  00123	8b 48 20	 mov	 ecx, DWORD PTR [eax+32]

; 37   :     _Tree_unchecked_const_iterator(_Nodeptr _Pnode, const _Mytree* _Plist) noexcept : _Ptr(_Pnode) {

  00126	8b 01		 mov	 eax, DWORD PTR [ecx]
; File C:\Anka2Project\Anka2Project\Source\Binary\source\UserInterface\PythonCharacterManager.h

; 141  : 				CharacterIterator(const TCharacterInstanceMap::iterator & it) : m_it(it) {}

  00128	89 44 24 14	 mov	 DWORD PTR _i$36[esp+48], eax

; 171  : 					return m_it != rhs.m_it;

  0012c	3b c1		 cmp	 eax, ecx
; File C:\Anka2Project\Anka2Project\Source\Binary\source\UserInterface\InstanceBaseBattle.cpp

; 520  : 	for(CPythonCharacterManager::CharacterIterator i = rkChrMgr.CharacterInstanceBegin(); i!=rkChrMgr.CharacterInstanceEnd();++i)

  0012e	0f 84 f7 00 00
	00		 je	 $LN177@CheckAdvan
$LL7@CheckAdvan:

; 521  : 	{
; 522  : 		CInstanceBase* pkInstEach=*i;

  00134	8b 48 14	 mov	 ecx, DWORD PTR [eax+20]

; 523  : 		if (pkInstEach==this)

  00137	3b ce		 cmp	 ecx, esi
  00139	0f 84 cc 00 00
	00		 je	 $LN5@CheckAdvan

; 524  : 			continue;
; 525  : 
; 526  : 		CActorInstance& rkActorSelf=m_GraphicThingInstance;
; 527  : 		CActorInstance& rkActorEach=pkInstEach->GetGraphicThingInstanceRef();

  0013f	e8 00 00 00 00	 call	 ?GetGraphicThingInstanceRef@CInstanceBase@@QAEAAVCActorInstance@@XZ ; CInstanceBase::GetGraphicThingInstanceRef

; 528  : 
; 529  : 		if( bUsingSkill && !rkActorEach.IsDoor() )

  00144	83 7c 24 18 00	 cmp	 DWORD PTR _bUsingSkill$1$[esp+48], 0
  00149	89 44 24 10	 mov	 DWORD PTR _rkActorEach$1$[esp+48], eax
  0014d	74 0f		 je	 SHORT $LN18@CheckAdvan
  0014f	8b c8		 mov	 ecx, eax
  00151	e8 00 00 00 00	 call	 ?IsDoor@CActorInstance@@QAE_NXZ ; CActorInstance::IsDoor
  00156	84 c0		 test	 al, al
  00158	0f 84 ad 00 00
	00		 je	 $LN5@CheckAdvan
$LN18@CheckAdvan:
; File C:\Anka2Project\Anka2Project\Source\Binary\source\eterBase\Singleton.h

; 26   : 		assert(ms_singleton);

  0015e	83 3d 00 00 00
	00 00		 cmp	 DWORD PTR ?ms_singleton@?$CSingleton@VCPythonCharacterManager@@@@0PAVCPythonCharacterManager@@A, 0 ; CSingleton<CPythonCharacterManager>::ms_singleton
  00165	75 14		 jne	 SHORT $LN88@CheckAdvan
  00167	6a 1a		 push	 26			; 0000001aH
  00169	68 00 00 00 00	 push	 OFFSET ??_C@_1IO@CAJLEEOI@?$AAC?$AA?3?$AA?2?$AAA?$AAn?$AAk?$AAa?$AA2?$AAP?$AAr?$AAo?$AAj?$AAe?$AAc?$AAt@
  0016e	68 00 00 00 00	 push	 OFFSET ??_C@_1BK@FMEHPMFE@?$AAm?$AAs?$AA_?$AAs?$AAi?$AAn?$AAg?$AAl?$AAe?$AAt?$AAo?$AAn@
  00173	e8 00 00 00 00	 call	 __wassert
  00178	83 c4 0c	 add	 esp, 12			; 0000000cH
$LN88@CheckAdvan:
; File C:\Anka2Project\Anka2Project\Source\Binary\source\UserInterface\InstanceBaseBattle.cpp

; 532  : 		CInstanceBase * pkInstBase = CPythonCharacterManager::Instance().GetInstancePtr(rkActorEach.GetVirtualID());

  0017b	8b 3d 00 00 00
	00		 mov	 edi, DWORD PTR ?ms_singleton@?$CSingleton@VCPythonCharacterManager@@@@0PAVCPythonCharacterManager@@A ; CSingleton<CPythonCharacterManager>::ms_singleton
  00181	8b 4c 24 10	 mov	 ecx, DWORD PTR _rkActorEach$1$[esp+48]
  00185	8b 47 04	 mov	 eax, DWORD PTR [edi+4]
  00188	8b 70 08	 mov	 esi, DWORD PTR [eax+8]
  0018b	8b 01		 mov	 eax, DWORD PTR [ecx]
  0018d	8b 40 48	 mov	 eax, DWORD PTR [eax+72]
  00190	ff d0		 call	 eax
  00192	50		 push	 eax
  00193	8d 4f 04	 lea	 ecx, DWORD PTR [edi+4]
  00196	ff d6		 call	 esi
  00198	8b c8		 mov	 ecx, eax

; 533  : 
; 534  : 		if (pkInstBase)

  0019a	85 c9		 test	 ecx, ecx
  0019c	74 16		 je	 SHORT $LN20@CheckAdvan

; 535  : 		{
; 536  : 			if (pkInstBase->HasAffect(AFFECT_INVISIBILITY) || pkInstBase->HasAffect(AFFECT_EUNHYEONG))

  0019e	6a 01		 push	 1
  001a0	e8 00 00 00 00	 call	 ?HasAffect@CInstanceBase@@QAEHK@Z ; CInstanceBase::HasAffect
  001a5	85 c0		 test	 eax, eax
  001a7	75 5e		 jne	 SHORT $LN190@CheckAdvan
  001a9	6a 12		 push	 18			; 00000012H
  001ab	e8 00 00 00 00	 call	 ?HasAffect@CInstanceBase@@QAEHK@Z ; CInstanceBase::HasAffect
  001b0	85 c0		 test	 eax, eax
  001b2	75 53		 jne	 SHORT $LN190@CheckAdvan
$LN20@CheckAdvan:

; 537  : 				continue;
; 538  : 		}
; 539  : 
; 540  : 		if (rkActorSelf.TestActorCollision(rkActorEach))

  001b4	8b 74 24 10	 mov	 esi, DWORD PTR _rkActorEach$1$[esp+48]
  001b8	8b 7c 24 1c	 mov	 edi, DWORD PTR _rkActorSelf$1$[esp+48]
  001bc	8b cf		 mov	 ecx, edi
  001be	56		 push	 esi
  001bf	e8 00 00 00 00	 call	 ?TestActorCollision@CActorInstance@@QAEHAAV1@@Z ; CActorInstance::TestActorCollision
  001c4	85 c0		 test	 eax, eax
  001c6	74 3f		 je	 SHORT $LN190@CheckAdvan

; 541  : 		{
; 542  : 			uCollisionCount++;

  001c8	8b 44 24 0c	 mov	 eax, DWORD PTR _uCollisionCount$1$[esp+48]
  001cc	40		 inc	 eax
  001cd	89 44 24 0c	 mov	 DWORD PTR _uCollisionCount$1$[esp+48], eax

; 543  : 			if (uCollisionCount==2)

  001d1	83 f8 02	 cmp	 eax, 2
  001d4	0f 84 d7 00 00
	00		 je	 $LN171@CheckAdvan

; 547  : 			}
; 548  : 			rkActorSelf.AdjustDynamicCollisionMovement(&rkActorEach);

  001da	56		 push	 esi
  001db	8b cf		 mov	 ecx, edi
  001dd	e8 00 00 00 00	 call	 ?AdjustDynamicCollisionMovement@CActorInstance@@QAEXPBV1@@Z ; CActorInstance::AdjustDynamicCollisionMovement

; 549  : 
; 550  : 			if (rkActorSelf.TestActorCollision(rkActorEach))

  001e2	56		 push	 esi
  001e3	8b cf		 mov	 ecx, edi
  001e5	e8 00 00 00 00	 call	 ?TestActorCollision@CActorInstance@@QAEHAAV1@@Z ; CActorInstance::TestActorCollision
  001ea	85 c0		 test	 eax, eax
  001ec	0f 85 bf 00 00
	00		 jne	 $LN171@CheckAdvan

; 551  : 			{
; 552  : 				rkActorSelf.BlockMovement();
; 553  : 				return TRUE;
; 554  : 			}
; 555  : 			else
; 556  : 			{
; 557  : 				NEW_MoveToDestPixelPositionDirection(NEW_GetDstPixelPositionRef());

  001f2	8b 74 24 08	 mov	 esi, DWORD PTR _this$1$[esp+48]
  001f6	8b ce		 mov	 ecx, esi
  001f8	e8 00 00 00 00	 call	 ?NEW_GetDstPixelPositionRef@CInstanceBase@@QAEABUD3DXVECTOR3@@XZ ; CInstanceBase::NEW_GetDstPixelPositionRef
  001fd	50		 push	 eax
  001fe	8b ce		 mov	 ecx, esi
  00200	e8 00 00 00 00	 call	 ?NEW_MoveToDestPixelPositionDirection@CInstanceBase@@QAE_NABUD3DXVECTOR3@@@Z ; CInstanceBase::NEW_MoveToDestPixelPositionDirection
  00205	eb 04		 jmp	 SHORT $LN5@CheckAdvan
$LN190@CheckAdvan:
; File C:\Program Files\Microsoft Visual Studio\2022\Community\VC\Tools\MSVC\14.44.35207\include\xtree

; 198  :         _Mybase::operator++();

  00207	8b 74 24 08	 mov	 esi, DWORD PTR _this$1$[esp+48]
$LN5@CheckAdvan:
  0020b	8d 4c 24 14	 lea	 ecx, DWORD PTR _i$36[esp+48]
  0020f	e8 00 00 00 00	 call	 ??E?$_Tree_unchecked_const_iterator@V?$_Tree_val@U?$_Tree_simple_types@U?$pair@$$CBKPAVCInstanceBase@@@std@@@std@@@std@@U_Iterator_base0@2@@std@@QAEAAV01@XZ ; std::_Tree_unchecked_const_iterator<std::_Tree_val<std::_Tree_simple_types<std::pair<unsigned long const ,CInstanceBase *> > >,std::_Iterator_base0>::operator++
; File C:\Anka2Project\Anka2Project\Source\Binary\source\UserInterface\PythonCharacterManager.h

; 171  : 					return m_it != rhs.m_it;

  00214	8b 4c 24 20	 mov	 ecx, DWORD PTR _rkChrMgr$1$[esp+48]
  00218	8b 44 24 14	 mov	 eax, DWORD PTR _i$36[esp+48]
  0021c	3b 41 20	 cmp	 eax, DWORD PTR [ecx+32]
; File C:\Anka2Project\Anka2Project\Source\Binary\source\UserInterface\InstanceBaseBattle.cpp

; 520  : 	for(CPythonCharacterManager::CharacterIterator i = rkChrMgr.CharacterInstanceBegin(); i!=rkChrMgr.CharacterInstanceEnd();++i)

  0021f	0f 85 0f ff ff
	ff		 jne	 $LL7@CheckAdvan

; 528  : 
; 529  : 		if( bUsingSkill && !rkActorEach.IsDoor() )

  00225	8d be f4 02 00
	00		 lea	 edi, DWORD PTR [esi+756]
$LN177@CheckAdvan:
; File C:\Anka2Project\Anka2Project\Source\Binary\source\eterBase\Singleton.h

; 26   : 		assert(ms_singleton);

  0022b	a1 00 00 00 00	 mov	 eax, DWORD PTR ?ms_singleton@?$CSingleton@VCPythonBackground@@@@0PAVCPythonBackground@@A ; CSingleton<CPythonBackground>::ms_singleton
  00230	89 44 24 10	 mov	 DWORD PTR _rkBG$1$[esp+48], eax
  00234	85 c0		 test	 eax, eax
  00236	75 1d		 jne	 SHORT $LN69@CheckAdvan
  00238	6a 1a		 push	 26			; 0000001aH
  0023a	68 00 00 00 00	 push	 OFFSET ??_C@_1IO@CAJLEEOI@?$AAC?$AA?3?$AA?2?$AAA?$AAn?$AAk?$AAa?$AA2?$AAP?$AAr?$AAo?$AAj?$AAe?$AAc?$AAt@
  0023f	68 00 00 00 00	 push	 OFFSET ??_C@_1BK@FMEHPMFE@?$AAm?$AAs?$AA_?$AAs?$AAi?$AAn?$AAg?$AAl?$AAe?$AAt?$AAo?$AAn@
  00244	e8 00 00 00 00	 call	 __wassert
  00249	a1 00 00 00 00	 mov	 eax, DWORD PTR ?ms_singleton@?$CSingleton@VCPythonBackground@@@@0PAVCPythonBackground@@A ; CSingleton<CPythonBackground>::ms_singleton
  0024e	83 c4 0c	 add	 esp, 12			; 0000000cH
  00251	89 44 24 10	 mov	 DWORD PTR _rkBG$1$[esp+48], eax
$LN69@CheckAdvan:
; File C:\Anka2Project\Anka2Project\Source\Binary\source\UserInterface\InstanceBaseBattle.cpp

; 563  : 	const D3DXVECTOR3 & rv3Position = m_GraphicThingInstance.GetPosition();

  00255	8b cf		 mov	 ecx, edi
  00257	e8 00 00 00 00	 call	 ?GetPosition@CGraphicObjectInstance@@QBEABUD3DXVECTOR3@@XZ ; CGraphicObjectInstance::GetPosition

; 564  : 	const D3DXVECTOR3 & rv3MoveDirection = m_GraphicThingInstance.GetMovementVectorRef();

  0025c	8b cf		 mov	 ecx, edi
  0025e	89 44 24 14	 mov	 DWORD PTR _rv3Position$1$[esp+48], eax
  00262	e8 00 00 00 00	 call	 ?GetMovementVectorRef@CActorInstance@@QAEABUD3DXVECTOR3@@XZ ; CActorInstance::GetMovementVectorRef
  00267	89 44 24 18	 mov	 DWORD PTR _rv3MoveDirection$1$[esp+48], eax
; File C:\Anka2Project\Anka2Project\Source\Binary\extern\include\d3dx8math.inl

; 1239 :     return sqrtf(pV->x * pV->x + pV->y * pV->y + pV->z * pV->z);

  0026b	f3 0f 10 00	 movss	 xmm0, DWORD PTR [eax]
  0026f	f3 0f 10 58 04	 movss	 xmm3, DWORD PTR [eax+4]
  00274	0f 28 c8	 movaps	 xmm1, xmm0
  00277	f3 0f 10 50 08	 movss	 xmm2, DWORD PTR [eax+8]
  0027c	f3 0f 59 c8	 mulss	 xmm1, xmm0
  00280	f3 0f 11 44 24
	08		 movss	 DWORD PTR _v3CheckStep$$sroa$619$1$[esp+48], xmm0
  00286	0f 28 c3	 movaps	 xmm0, xmm3
  00289	f3 0f 59 c3	 mulss	 xmm0, xmm3
  0028d	f3 0f 59 d2	 mulss	 xmm2, xmm2
  00291	f3 0f 58 c8	 addss	 xmm1, xmm0
  00295	f3 0f 11 5c 24
	0c		 movss	 DWORD PTR _v3CheckStep$$sroa$618$1$[esp+48], xmm3
  0029b	f3 0f 58 ca	 addss	 xmm1, xmm2
; File C:\Program Files (x86)\Windows Kits\10\Include\10.0.26100.0\ucrt\corecrt_math.h

; 799  :             return (float)sqrt(_X);

  0029f	0f 5a c1	 cvtps2pd xmm0, xmm1
  002a2	0f 57 c9	 xorps	 xmm1, xmm1
  002a5	66 0f 2e c8	 ucomisd xmm1, xmm0
  002a9	77 18		 ja	 SHORT $LN191@CheckAdvan
  002ab	f2 0f 51 c0	 sqrtsd	 xmm0, xmm0
  002af	eb 17		 jmp	 SHORT $LN192@CheckAdvan
$LN171@CheckAdvan:
; File C:\Anka2Project\Anka2Project\Source\Binary\source\UserInterface\InstanceBaseBattle.cpp

; 545  : 				rkActorSelf.BlockMovement();

  002b1	8b cf		 mov	 ecx, edi
  002b3	e8 00 00 00 00	 call	 ?BlockMovement@CActorInstance@@QAEXXZ ; CActorInstance::BlockMovement

; 546  : 				return TRUE;

  002b8	b8 01 00 00 00	 mov	 eax, 1

; 587  : }

  002bd	5f		 pop	 edi
  002be	5e		 pop	 esi
  002bf	8b e5		 mov	 esp, ebp
  002c1	5d		 pop	 ebp
  002c2	c3		 ret	 0
$LN191@CheckAdvan:
; File C:\Program Files (x86)\Windows Kits\10\Include\10.0.26100.0\ucrt\corecrt_math.h

; 799  :             return (float)sqrt(_X);

  002c3	e8 00 00 00 00	 call	 __libm_sse2_sqrt_precise
$LN192@CheckAdvan:
  002c8	f2 0f 5a c0	 cvtsd2ss xmm0, xmm0
; File C:\Anka2Project\Anka2Project\Source\Binary\source\UserInterface\InstanceBaseBattle.cpp

; 568  : 	D3DXVECTOR3 v3CheckPosition = rv3Position;

  002cc	8b 4c 24 14	 mov	 ecx, DWORD PTR _rv3Position$1$[esp+48]
; File C:\Anka2Project\Anka2Project\Source\Binary\extern\include\d3dx8math.inl

; 275  :     FLOAT fInv = 1.0f / f;

  002d0	f3 0f 10 0d 00
	00 00 00	 movss	 xmm1, DWORD PTR __real@3f800000
; File C:\Anka2Project\Anka2Project\Source\Binary\source\UserInterface\InstanceBaseBattle.cpp

; 566  : 	int iStep = int(D3DXVec3Length(&rv3MoveDirection) / 10.0f);

  002d8	f3 0f 5e 05 00
	00 00 00	 divss	 xmm0, DWORD PTR __real@41200000
; File C:\Anka2Project\Anka2Project\Source\Binary\extern\include\d3dx8math.inl

; 276  :     return D3DXVECTOR3(x * fInv, y * fInv, z * fInv);

  002e0	f3 0f 10 64 24
	08		 movss	 xmm4, DWORD PTR _v3CheckStep$$sroa$619$1$[esp+48]
; File C:\Anka2Project\Anka2Project\Source\Binary\source\UserInterface\InstanceBaseBattle.cpp

; 566  : 	int iStep = int(D3DXVec3Length(&rv3MoveDirection) / 10.0f);

  002e6	f3 0f 2c f8	 cvttss2si edi, xmm0
; File C:\Anka2Project\Anka2Project\Source\Binary\extern\include\d3dx8math.inl

; 276  :     return D3DXVECTOR3(x * fInv, y * fInv, z * fInv);

  002ea	f3 0f 10 6c 24
	0c		 movss	 xmm5, DWORD PTR _v3CheckStep$$sroa$618$1$[esp+48]
; File C:\Anka2Project\Anka2Project\Source\Binary\source\UserInterface\InstanceBaseBattle.cpp

; 569  : 	for (int j = 0; j < iStep; ++j)

  002f0	f3 0f 10 1d 00
	00 00 00	 movss	 xmm3, DWORD PTR __xmm@80000000800000008000000080000000
  002f8	66 0f 6e c7	 movd	 xmm0, edi
  002fc	0f 5b c0	 cvtdq2ps xmm0, xmm0
; File C:\Anka2Project\Anka2Project\Source\Binary\extern\include\d3dx8math.inl

; 275  :     FLOAT fInv = 1.0f / f;

  002ff	f3 0f 5e c8	 divss	 xmm1, xmm0
; File C:\Anka2Project\Anka2Project\Source\Binary\source\UserInterface\InstanceBaseBattle.cpp

; 568  : 	D3DXVECTOR3 v3CheckPosition = rv3Position;

  00303	f3 0f 7e 01	 movq	 xmm0, QWORD PTR [ecx]
; File C:\Anka2Project\Anka2Project\Source\Binary\extern\include\d3dx8math.inl

; 276  :     return D3DXVECTOR3(x * fInv, y * fInv, z * fInv);

  00307	f3 0f 59 e1	 mulss	 xmm4, xmm1
  0030b	f3 0f 59 e9	 mulss	 xmm5, xmm1
; File C:\Anka2Project\Anka2Project\Source\Binary\source\UserInterface\InstanceBaseBattle.cpp

; 568  : 	D3DXVECTOR3 v3CheckPosition = rv3Position;

  0030f	66 0f d6 44 24
	24		 movq	 QWORD PTR _v3CheckPosition$[esp+48], xmm0
; File C:\Anka2Project\Anka2Project\Source\Binary\extern\include\d3dx8math.inl

; 276  :     return D3DXVECTOR3(x * fInv, y * fInv, z * fInv);

  00315	f3 0f 11 64 24
	08		 movss	 DWORD PTR _v3CheckStep$$sroa$619$1$[esp+48], xmm4
  0031b	f3 0f 11 6c 24
	0c		 movss	 DWORD PTR _v3CheckStep$$sroa$618$1$[esp+48], xmm5
; File C:\Anka2Project\Anka2Project\Source\Binary\source\UserInterface\InstanceBaseBattle.cpp

; 569  : 	for (int j = 0; j < iStep; ++j)

  00321	85 ff		 test	 edi, edi
  00323	7e 76		 jle	 SHORT $LN9@CheckAdvan

; 558  : 			}
; 559  : 		}
; 560  : 	}
; 561  : 
; 562  : 	CPythonBackground& rkBG=CPythonBackground::Instance();

  00325	f3 0f 10 4c 24
	28		 movss	 xmm1, DWORD PTR _v3CheckPosition$[esp+52]
  0032b	f3 0f 10 54 24
	24		 movss	 xmm2, DWORD PTR _v3CheckPosition$[esp+48]
$LL10@CheckAdvan:

; 573  : 		if (rkBG.isAttrOn(v3CheckPosition.x, -v3CheckPosition.y, CTerrainImpl::ATTRIBUTE_BLOCK))

  00331	8b 4c 24 10	 mov	 ecx, DWORD PTR _rkBG$1$[esp+48]
; File C:\Anka2Project\Anka2Project\Source\Binary\extern\include\d3dx8math.inl

; 204  :     x += v.x;

  00335	0f 28 c4	 movaps	 xmm0, xmm4
  00338	f3 0f 58 d0	 addss	 xmm2, xmm0

; 205  :     y += v.y;

  0033c	0f 28 c5	 movaps	 xmm0, xmm5
  0033f	f3 0f 58 c1	 addss	 xmm0, xmm1
; File C:\Anka2Project\Anka2Project\Source\Binary\source\UserInterface\InstanceBaseBattle.cpp

; 573  : 		if (rkBG.isAttrOn(v3CheckPosition.x, -v3CheckPosition.y, CTerrainImpl::ATTRIBUTE_BLOCK))

  00343	6a 01		 push	 1
  00345	83 ec 08	 sub	 esp, 8
; File C:\Anka2Project\Anka2Project\Source\Binary\extern\include\d3dx8math.inl

; 204  :     x += v.x;

  00348	f3 0f 11 54 24
	28		 movss	 DWORD PTR _v3CheckPosition$1$[esp+60], xmm2

; 205  :     y += v.y;

  0034e	f3 0f 11 44 24
	2c		 movss	 DWORD PTR _v3CheckPosition$2$[esp+60], xmm0
; File C:\Anka2Project\Anka2Project\Source\Binary\source\UserInterface\InstanceBaseBattle.cpp

; 573  : 		if (rkBG.isAttrOn(v3CheckPosition.x, -v3CheckPosition.y, CTerrainImpl::ATTRIBUTE_BLOCK))

  00354	0f 57 c3	 xorps	 xmm0, xmm3
  00357	f3 0f 11 44 24
	04		 movss	 DWORD PTR [esp+4], xmm0
  0035d	f3 0f 11 14 24	 movss	 DWORD PTR [esp], xmm2
  00362	e8 00 00 00 00	 call	 ?isAttrOn@CMapManager@@QAE_NMME@Z ; CMapManager::isAttrOn
  00367	84 c0		 test	 al, al
  00369	74 07		 je	 SHORT $LN8@CheckAdvan

; 574  : 		{
; 575  : 			BlockMovement();

  0036b	8b ce		 mov	 ecx, esi
  0036d	e8 00 00 00 00	 call	 ?BlockMovement@CInstanceBase@@QAEXXZ ; CInstanceBase::BlockMovement
$LN8@CheckAdvan:

; 569  : 	for (int j = 0; j < iStep; ++j)

  00372	f3 0f 10 4c 24
	20		 movss	 xmm1, DWORD PTR _v3CheckPosition$2$[esp+48]
  00378	f3 0f 10 54 24
	1c		 movss	 xmm2, DWORD PTR _v3CheckPosition$1$[esp+48]
  0037e	f3 0f 10 1d 00
	00 00 00	 movss	 xmm3, DWORD PTR __xmm@80000000800000008000000080000000
  00386	f3 0f 10 64 24
	08		 movss	 xmm4, DWORD PTR _v3CheckStep$$sroa$619$1$[esp+48]
  0038c	f3 0f 10 6c 24
	0c		 movss	 xmm5, DWORD PTR _v3CheckStep$$sroa$618$1$[esp+48]
  00392	83 ef 01	 sub	 edi, 1
  00395	75 9a		 jne	 SHORT $LL10@CheckAdvan
  00397	8b 4c 24 14	 mov	 ecx, DWORD PTR _rv3Position$1$[esp+48]
$LN9@CheckAdvan:
; File C:\Anka2Project\Anka2Project\Source\Binary\extern\include\d3dx8math.inl

; 257  :     return D3DXVECTOR3(x + v.x, y + v.y, z + v.z);

  0039b	8b 44 24 18	 mov	 eax, DWORD PTR _rv3MoveDirection$1$[esp+48]
; File C:\Anka2Project\Anka2Project\Source\Binary\source\UserInterface\InstanceBaseBattle.cpp

; 580  : 	if (rkBG.isAttrOn(v3NextPosition.x, -v3NextPosition.y, CTerrainImpl::ATTRIBUTE_BLOCK))

  0039f	6a 01		 push	 1
  003a1	83 ec 08	 sub	 esp, 8
; File C:\Anka2Project\Anka2Project\Source\Binary\extern\include\d3dx8math.inl

; 257  :     return D3DXVECTOR3(x + v.x, y + v.y, z + v.z);

  003a4	f3 0f 10 40 04	 movss	 xmm0, DWORD PTR [eax+4]
  003a9	f3 0f 58 41 04	 addss	 xmm0, DWORD PTR [ecx+4]
  003ae	f3 0f 10 08	 movss	 xmm1, DWORD PTR [eax]
  003b2	f3 0f 58 09	 addss	 xmm1, DWORD PTR [ecx]
; File C:\Anka2Project\Anka2Project\Source\Binary\source\UserInterface\InstanceBaseBattle.cpp

; 580  : 	if (rkBG.isAttrOn(v3NextPosition.x, -v3NextPosition.y, CTerrainImpl::ATTRIBUTE_BLOCK))

  003b6	8b 4c 24 1c	 mov	 ecx, DWORD PTR _rkBG$1$[esp+60]
  003ba	0f 57 c3	 xorps	 xmm0, xmm3
  003bd	f3 0f 11 44 24
	04		 movss	 DWORD PTR [esp+4], xmm0
  003c3	f3 0f 11 0c 24	 movss	 DWORD PTR [esp], xmm1
  003c8	e8 00 00 00 00	 call	 ?isAttrOn@CMapManager@@QAE_NMME@Z ; CMapManager::isAttrOn
  003cd	84 c0		 test	 al, al
  003cf	0f 84 ee fc ff
	ff		 je	 $LN27@CheckAdvan
$LN186@CheckAdvan:

; 581  : 	{
; 582  : 		BlockMovement();

  003d5	8b ce		 mov	 ecx, esi
  003d7	e8 00 00 00 00	 call	 ?BlockMovement@CInstanceBase@@QAEXXZ ; CInstanceBase::BlockMovement

; 587  : }

  003dc	5f		 pop	 edi
  003dd	b8 01 00 00 00	 mov	 eax, 1
  003e2	5e		 pop	 esi
  003e3	8b e5		 mov	 esp, ebp
  003e5	5d		 pop	 ebp
  003e6	c3		 ret	 0
?CheckAdvancing@CInstanceBase@@QAEHXZ ENDP		; CInstanceBase::CheckAdvancing
_TEXT	ENDS
END
