; Listing generated by Microsoft (R) Optimizing Compiler Version 19.44.35219.0 

	TITLE	c:\anka2project\anka2project\source\binary\vs_files\userinterface\release\locale.obj
	.686P
	.XMM
	include listing.inc
	.model	flat

INCLUDELIB OLDNAMES

PUBLIC	??_C@_0L@LCFODDFH@locale?4cfg@			; `string'
PUBLIC	??_C@_02BMJICGCB@rt@				; `string'
PUBLIC	??_C@_05OPEIBKFE@?$CFd?5?$CFs@			; `string'
PUBLIC	??_C@_08OLPJPPGI@?$CFd?5?$CFd?5?$CFs@		; `string'
PUBLIC	??_C@_09MLPAPLEB@locale?1?$CFs@			; `string'
PUBLIC	??_C@_02LFNMGJAP@en@				; `string'
PUBLIC	??_C@_02LFKOONLL@ro@				; `string'
PUBLIC	??_C@_02BPBMPCEP@pt@				; `string'
PUBLIC	??_C@_02EKLAAFBD@es@				; `string'
PUBLIC	??_C@_02FBONIKAL@fr@				; `string'
PUBLIC	??_C@_02FHOKNKPD@de@				; `string'
PUBLIC	??_C@_02JNAHGKBG@pl@				; `string'
PUBLIC	??_C@_02MOLGKLA@it@				; `string'
PUBLIC	??_C@_02JPPPMCOI@cz@				; `string'
PUBLIC	??_C@_02BEDCDBMG@hu@				; `string'
PUBLIC	??_C@_02EOEPPNBF@tr@				; `string'
PUBLIC	??_C@_02BKFDOEMK@wt@				; `string'
PUBLIC	?_OptionsStorage@?1??__local_stdio_scanf_options@@9@4_KA ; `__local_stdio_scanf_options'::`2'::_OptionsStorage
PUBLIC	?LOCALE_CODEPAGE@@3HA				; LOCALE_CODEPAGE
PUBLIC	?MULTI_LOCALE_NAME@@3PADA			; MULTI_LOCALE_NAME
PUBLIC	?MULTI_LOCALE_PATH@@3PADA			; MULTI_LOCALE_PATH
EXTRN	___stdio_common_vfprintf:PROC
EXTRN	?SetDefaultCodePage@@YA_NK@Z:PROC		; SetDefaultCodePage
EXTRN	__strnicmp:PROC
EXTRN	___stdio_common_vsscanf:PROC
EXTRN	___report_rangecheckfailure:PROC
EXTRN	_fgets:PROC
EXTRN	__access:PROC
;	COMDAT ?_OptionsStorage@?1??__local_stdio_scanf_options@@9@4_KA
_BSS	SEGMENT
?_OptionsStorage@?1??__local_stdio_scanf_options@@9@4_KA DQ 01H DUP (?) ; `__local_stdio_scanf_options'::`2'::_OptionsStorage
_BSS	ENDS
;	COMDAT ?GUILD_EXP_LIST@?1??GetGuildLastExp@@YAIH@Z@4PAKA
CONST	SEGMENT
?GUILD_EXP_LIST@?1??GetGuildLastExp@@YAIH@Z@4PAKA DD 00H ; `GetGuildLastExp'::`2'::GUILD_EXP_LIST
	DD	01770H
	DD	04650H
	DD	08ca0H
	DD	0fa00H
	DD	016f30H
	DD	01fbd0H
	DD	029fe0H
	DD	035b60H
	DD	042e50H
	DD	0518b0H
	DD	061a80H
	DD	0927c0H
	DD	0cd140H
	DD	0111700H
	DD	015f900H
	DD	01b7740H
	DD	027ac40H
	DD	030d400H
	DD	03d0900H
	DD	01005900H
CONST	ENDS
;	COMDAT ?SKILL_POWERS@?1??GetSkillPower@@YAHI@Z@4PAIA
CONST	SEGMENT
?SKILL_POWERS@?1??GetSkillPower@@YAHI@Z@4PAIA DD 00H	; `GetSkillPower'::`2'::SKILL_POWERS
	DD	05H
	DD	06H
	DD	08H
	DD	0aH
	DD	0cH
	DD	0eH
	DD	010H
	DD	012H
	DD	014H
	DD	016H
	DD	018H
	DD	01aH
	DD	01cH
	DD	01eH
	DD	020H
	DD	022H
	DD	024H
	DD	026H
	DD	028H
	DD	032H
	DD	034H
	DD	036H
	DD	038H
	DD	03aH
	DD	03cH
	DD	03fH
	DD	042H
	DD	045H
	DD	048H
	DD	052H
	DD	055H
	DD	058H
	DD	05bH
	DD	05eH
	DD	062H
	DD	066H
	DD	06aH
	DD	06eH
	DD	073H
	DD	07dH
	DD	07dH
	ORG $+32
CONST	ENDS
;	COMDAT ??_C@_02BKFDOEMK@wt@
CONST	SEGMENT
??_C@_02BKFDOEMK@wt@ DB 'wt', 00H			; `string'
CONST	ENDS
;	COMDAT ??_C@_02EOEPPNBF@tr@
CONST	SEGMENT
??_C@_02EOEPPNBF@tr@ DB 'tr', 00H			; `string'
CONST	ENDS
;	COMDAT ??_C@_02BEDCDBMG@hu@
CONST	SEGMENT
??_C@_02BEDCDBMG@hu@ DB 'hu', 00H			; `string'
CONST	ENDS
;	COMDAT ??_C@_02JPPPMCOI@cz@
CONST	SEGMENT
??_C@_02JPPPMCOI@cz@ DB 'cz', 00H			; `string'
CONST	ENDS
;	COMDAT ??_C@_02MOLGKLA@it@
CONST	SEGMENT
??_C@_02MOLGKLA@it@ DB 'it', 00H			; `string'
CONST	ENDS
;	COMDAT ??_C@_02JNAHGKBG@pl@
CONST	SEGMENT
??_C@_02JNAHGKBG@pl@ DB 'pl', 00H			; `string'
CONST	ENDS
;	COMDAT ??_C@_02FHOKNKPD@de@
CONST	SEGMENT
??_C@_02FHOKNKPD@de@ DB 'de', 00H			; `string'
CONST	ENDS
;	COMDAT ??_C@_02FBONIKAL@fr@
CONST	SEGMENT
??_C@_02FBONIKAL@fr@ DB 'fr', 00H			; `string'
CONST	ENDS
;	COMDAT ??_C@_02EKLAAFBD@es@
CONST	SEGMENT
??_C@_02EKLAAFBD@es@ DB 'es', 00H			; `string'
CONST	ENDS
;	COMDAT ??_C@_02BPBMPCEP@pt@
CONST	SEGMENT
??_C@_02BPBMPCEP@pt@ DB 'pt', 00H			; `string'
CONST	ENDS
;	COMDAT ??_C@_02LFKOONLL@ro@
CONST	SEGMENT
??_C@_02LFKOONLL@ro@ DB 'ro', 00H			; `string'
CONST	ENDS
;	COMDAT ??_C@_02LFNMGJAP@en@
CONST	SEGMENT
??_C@_02LFNMGJAP@en@ DB 'en', 00H			; `string'
CONST	ENDS
;	COMDAT ??_C@_09MLPAPLEB@locale?1?$CFs@
CONST	SEGMENT
??_C@_09MLPAPLEB@locale?1?$CFs@ DB 'locale/%s', 00H	; `string'
CONST	ENDS
;	COMDAT ??_C@_08OLPJPPGI@?$CFd?5?$CFd?5?$CFs@
CONST	SEGMENT
??_C@_08OLPJPPGI@?$CFd?5?$CFd?5?$CFs@ DB '%d %d %s', 00H ; `string'
CONST	ENDS
;	COMDAT ??_C@_05OPEIBKFE@?$CFd?5?$CFs@
CONST	SEGMENT
??_C@_05OPEIBKFE@?$CFd?5?$CFs@ DB '%d %s', 00H		; `string'
CONST	ENDS
;	COMDAT ??_C@_02BMJICGCB@rt@
CONST	SEGMENT
??_C@_02BMJICGCB@rt@ DB 'rt', 00H			; `string'
CONST	ENDS
;	COMDAT ??_C@_0L@LCFODDFH@locale?4cfg@
CONST	SEGMENT
??_C@_0L@LCFODDFH@locale?4cfg@ DB 'locale.cfg', 00H	; `string'
?LOCALE_CODEPAGE@@3HA DD 04e6H				; LOCALE_CODEPAGE
?MULTI_LOCALE_NAME@@3PADA DB 'ymir', 00H		; MULTI_LOCALE_NAME
	ORG $+251
?MULTI_LOCALE_PATH@@3PADA DB 'locale/ymir', 00H		; MULTI_LOCALE_PATH
	ORG $+244
PUBLIC	_sscanf
PUBLIC	__vsscanf_l
PUBLIC	___local_stdio_scanf_options
PUBLIC	_fprintf
PUBLIC	__vfprintf_l
PUBLIC	?LocaleService_SaveLocale@@YA_NHPBD@Z		; LocaleService_SaveLocale
PUBLIC	?LocaleService_GetLocale@@YAPBDXZ		; LocaleService_GetLocale
PUBLIC	?LocaleService_GetLocalePath@@YAPBDXZ		; LocaleService_GetLocalePath
PUBLIC	?LocaleService_GetLocaleName@@YAPBDXZ		; LocaleService_GetLocaleName
PUBLIC	?GetCodePage@@YAIXZ				; GetCodePage
PUBLIC	?GetSkillPower@@YAHI@Z				; GetSkillPower
PUBLIC	?GetGuildLastExp@@YAIH@Z			; GetGuildLastExp
PUBLIC	?LoadConfig@@YAXPBD@Z				; LoadConfig
PUBLIC	?StringCompareCI@@YAHPBD0I@Z			; StringCompareCI
PUBLIC	?LocaleService_GetLocaleID@@YAEXZ		; LocaleService_GetLocaleID
?vecDropSoundFileName@@3V?$array@U?$pair@KV?$basic_string@DU?$char_traits@D@std@@V?$allocator@D@2@@std@@@std@@$04@std@@B DB 08cH DUP (?) ; vecDropSoundFileName
?vecEffectList@@3V?$vector@V?$tuple@IPBDPBD_N@std@@V?$allocator@V?$tuple@IPBDPBD_N@std@@@2@@std@@B DB 0cH DUP (?) ; vecEffectList
?characterNameColors@@3V?$map@EV?$array@E$02@std@@U?$less@E@2@V?$allocator@U?$pair@$$CBEV?$array@E$02@std@@@std@@@2@@std@@B DQ 01H DUP (?) ; characterNameColors
?characterTitleColors@@3V?$map@EV?$array@E$02@std@@U?$less@E@2@V?$allocator@U?$pair@$$CBEV?$array@E$02@std@@@std@@@2@@std@@B DQ 01H DUP (?) ; characterTitleColors
?characterTitleSystemColors@@3V?$map@EV?$array@E$02@std@@U?$less@E@2@V?$allocator@U?$pair@$$CBEV?$array@E$02@std@@@std@@@2@@std@@B DQ 01H DUP (?) ; characterTitleSystemColors
?emotionIcons@@3V?$map@EPBDU?$less@E@std@@V?$allocator@U?$pair@$$CBEPBD@std@@@2@@std@@B DQ 01H DUP (?) ; emotionIcons
?skillIndexes@@3V?$map@EV?$map@EV?$vector@EV?$allocator@E@std@@@std@@U?$less@E@2@V?$allocator@U?$pair@$$CBEV?$vector@EV?$allocator@E@std@@@std@@@std@@@2@@std@@U?$less@E@2@V?$allocator@U?$pair@$$CBEV?$map@EV?$vector@EV?$allocator@E@std@@@std@@U?$less@E@2@V?$allocator@U?$pair@$$CBEV?$vector@EV?$allocator@E@std@@@std@@@std@@@2@@std@@@std@@@2@@std@@B DQ 01H DUP (?) ; skillIndexes
?guildSkills@@3V?$map@V?$basic_string@DU?$char_traits@D@std@@V?$allocator@D@2@@std@@V?$vector@EV?$allocator@E@std@@@2@U?$less@V?$basic_string@DU?$char_traits@D@std@@V?$allocator@D@2@@std@@@2@V?$allocator@U?$pair@$$CBV?$basic_string@DU?$char_traits@D@std@@V?$allocator@D@2@@std@@V?$vector@EV?$allocator@E@std@@@2@@std@@@2@@std@@B DQ 01H DUP (?) ; guildSkills
_BSS	ENDS
;	COMDAT xdata$x
xdata$x	SEGMENT
__ehfuncinfo$??__EvecUseSoundFileName@@YAXXZ DQ 00000000619930522r ; 1.2944e-313
	DD	FLAT:__unwindtable$??__EvecUseSoundFileName@@YAXXZ
	DQ	00000000000000000r		; 0
	DQ	00000000000000000r		; 0
	DQ	00000000100000000r		; 2.122e-314
__unwindtable$??__EvecUseSoundFileName@@YAXXZ DD 0ffffffffH
	DD	FLAT:__unwindfunclet$??__EvecUseSoundFileName@@YAXXZ$0
	DD	00H
	DD	FLAT:__unwindfunclet$??__EvecUseSoundFileName@@YAXXZ$1
	DD	01H
	DD	FLAT:__unwindfunclet$??__EvecUseSoundFileName@@YAXXZ$2
	DD	02H
	DD	FLAT:__unwindfunclet$??__EvecUseSoundFileName@@YAXXZ$3
	DD	03H
	DD	FLAT:__unwindfunclet$??__EvecUseSoundFileName@@YAXXZ$4
	DD	04H
	DD	FLAT:__unwindfunclet$??__EvecUseSoundFileName@@YAXXZ$5
xdata$x	ENDS
;	COMDAT xdata$x
xdata$x	SEGMENT
__ehfuncinfo$??__FvecUseSoundFileName@@YAXXZ DQ 00000000119930522r ; 2.33398e-314
	DD	FLAT:__unwindtable$??__FvecUseSoundFileName@@YAXXZ
	DQ	00000000000000000r		; 0
	DQ	00000000000000000r		; 0
	DQ	00000000100000000r		; 2.122e-314
__unwindtable$??__FvecUseSoundFileName@@YAXXZ DD 0ffffffffH
	DD	FLAT:___std_terminate
xdata$x	ENDS
;	COMDAT xdata$x
xdata$x	SEGMENT
__ehfuncinfo$??__EvecDropSoundFileName@@YAXXZ DQ 00000000419930522r ; 8.69997e-314
	DD	FLAT:__unwindtable$??__EvecDropSoundFileName@@YAXXZ
	DQ	00000000000000000r		; 0
	DQ	00000000000000000r		; 0
	DQ	00000000100000000r		; 2.122e-314
__unwindtable$??__EvecDropSoundFileName@@YAXXZ DD 0ffffffffH
	DD	FLAT:__unwindfunclet$??__EvecDropSoundFileName@@YAXXZ$0
	DD	00H
	DD	FLAT:__unwindfunclet$??__EvecDropSoundFileName@@YAXXZ$1
	DD	01H
	DD	FLAT:__unwindfunclet$??__EvecDropSoundFileName@@YAXXZ$2
	DD	02H
	DD	FLAT:__unwindfunclet$??__EvecDropSoundFileName@@YAXXZ$3
xdata$x	ENDS
;	COMDAT xdata$x
xdata$x	SEGMENT
__ehfuncinfo$??__FvecDropSoundFileName@@YAXXZ DQ 00000000119930522r ; 2.33398e-314
	DD	FLAT:__unwindtable$??__FvecDropSoundFileName@@YAXXZ
	DQ	00000000000000000r		; 0
	DQ	00000000000000000r		; 0
	DQ	00000000100000000r		; 2.122e-314
__unwindtable$??__FvecDropSoundFileName@@YAXXZ DD 0ffffffffH
	DD	FLAT:___std_terminate
xdata$x	ENDS
;	COMDAT xdata$x
xdata$x	SEGMENT
__ehfuncinfo$??__EskillIndexes@@YAXXZ DQ 00000002819930522r ; 8.50918e-313
	DD	FLAT:__unwindtable$??__EskillIndexes@@YAXXZ
	DQ	00000000000000000r		; 0
	DQ	00000000000000000r		; 0
	DQ	00000000100000000r		; 2.122e-314
	ORG $+4
__unwindtable$??__EskillIndexes@@YAXXZ DD 0ffffffffH
	DD	FLAT:__unwindfunclet$??__EskillIndexes@@YAXXZ$0
	DD	00H
	DD	FLAT:__unwindfunclet$??__EskillIndexes@@YAXXZ$1
	DD	01H
	DD	FLAT:__unwindfunclet$??__EskillIndexes@@YAXXZ$2
	DD	00H
	DD	FLAT:__unwindfunclet$??__EskillIndexes@@YAXXZ$2
	DD	03H
	DD	FLAT:__unwindfunclet$??__EskillIndexes@@YAXXZ$4
	DD	04H
	DD	FLAT:__unwindfunclet$??__EskillIndexes@@YAXXZ$5
	DD	05H
	DD	FLAT:__unwindfunclet$??__EskillIndexes@@YAXXZ$6
	DD	06H
	DD	FLAT:__unwindfunclet$??__EskillIndexes@@YAXXZ$7
	DD	07H
	DD	FLAT:__unwindfunclet$??__EskillIndexes@@YAXXZ$8
	DD	08H
	DD	FLAT:__unwindfunclet$??__EskillIndexes@@YAXXZ$9
	DD	07H
	DD	FLAT:__unwindfunclet$??__EskillIndexes@@YAXXZ$9
	DD	0aH
	DD	FLAT:__unwindfunclet$??__EskillIndexes@@YAXXZ$11
	DD	0bH
	DD	FLAT:__unwindfunclet$??__EskillIndexes@@YAXXZ$12
	DD	0cH
	DD	FLAT:__unwindfunclet$??__EskillIndexes@@YAXXZ$13
	DD	0dH
	DD	FLAT:__unwindfunclet$??__EskillIndexes@@YAXXZ$14
	DD	0eH
	DD	FLAT:__unwindfunclet$??__EskillIndexes@@YAXXZ$15
	DD	0fH
	DD	FLAT:__unwindfunclet$??__EskillIndexes@@YAXXZ$16
	DD	0eH
	DD	FLAT:__unwindfunclet$??__EskillIndexes@@YAXXZ$16
	DD	011H
	DD	FLAT:__unwindfunclet$??__EskillIndexes@@YAXXZ$18
	DD	012H
	DD	FLAT:__unwindfunclet$??__EskillIndexes@@YAXXZ$19
	DD	013H
	DD	FLAT:__unwindfunclet$??__EskillIndexes@@YAXXZ$20
	DD	014H
	DD	FLAT:__unwindfunclet$??__EskillIndexes@@YAXXZ$21
	DD	015H
	DD	FLAT:__unwindfunclet$??__EskillIndexes@@YAXXZ$22
	DD	016H
	DD	FLAT:__unwindfunclet$??__EskillIndexes@@YAXXZ$23
	DD	015H
	DD	FLAT:__unwindfunclet$??__EskillIndexes@@YAXXZ$23
	DD	018H
	DD	FLAT:__unwindfunclet$??__EskillIndexes@@YAXXZ$25
	DD	019H
	DD	FLAT:__unwindfunclet$??__EskillIndexes@@YAXXZ$26
	DD	05H
	DD	FLAT:__unwindfunclet$??__EskillIndexes@@YAXXZ$7
	DD	01bH
	DD	FLAT:__unwindfunclet$??__EskillIndexes@@YAXXZ$9
	DD	01cH
	DD	FLAT:__unwindfunclet$??__EskillIndexes@@YAXXZ$11
	DD	01dH
	DD	FLAT:__unwindfunclet$??__EskillIndexes@@YAXXZ$12
	DD	01eH
	DD	FLAT:__unwindfunclet$??__EskillIndexes@@YAXXZ$14
	DD	01fH
	DD	FLAT:__unwindfunclet$??__EskillIndexes@@YAXXZ$16
	DD	020H
	DD	FLAT:__unwindfunclet$??__EskillIndexes@@YAXXZ$18
	DD	021H
	DD	FLAT:__unwindfunclet$??__EskillIndexes@@YAXXZ$19
	DD	022H
	DD	FLAT:__unwindfunclet$??__EskillIndexes@@YAXXZ$21
	DD	023H
	DD	FLAT:__unwindfunclet$??__EskillIndexes@@YAXXZ$23
	DD	024H
	DD	FLAT:__unwindfunclet$??__EskillIndexes@@YAXXZ$25
	DD	025H
	DD	FLAT:__unwindfunclet$??__EskillIndexes@@YAXXZ$26
	DD	026H
	DD	FLAT:__unwindfunclet$??__EskillIndexes@@YAXXZ$28
xdata$x	ENDS
;	COMDAT xdata$x
xdata$x	SEGMENT
__ehfuncinfo$??__EguildSkills@@YAXXZ DQ 00000000a19930522r ; 2.14319e-313
	DD	FLAT:__unwindtable$??__EguildSkills@@YAXXZ
	DQ	00000000000000000r		; 0
	DQ	00000000000000000r		; 0
	DQ	00000000100000000r		; 2.122e-314
	ORG $+4
__unwindtable$??__EguildSkills@@YAXXZ DD 0ffffffffH
	DD	FLAT:__unwindfunclet$??__EguildSkills@@YAXXZ$0
	DD	00H
	DD	FLAT:__unwindfunclet$??__EguildSkills@@YAXXZ$1
	DD	01H
	DD	FLAT:__unwindfunclet$??__EguildSkills@@YAXXZ$10
	DD	01H
	DD	FLAT:__unwindfunclet$??__EguildSkills@@YAXXZ$2
	DD	03H
	DD	FLAT:__unwindfunclet$??__EguildSkills@@YAXXZ$3
	DD	04H
	DD	FLAT:__unwindfunclet$??__EguildSkills@@YAXXZ$4
	DD	05H
	DD	FLAT:__unwindfunclet$??__EguildSkills@@YAXXZ$16
	DD	01H
	DD	FLAT:__unwindfunclet$??__EguildSkills@@YAXXZ$3
	DD	07H
	DD	FLAT:__unwindfunclet$??__EguildSkills@@YAXXZ$4
	DD	08H
	DD	FLAT:__unwindfunclet$??__EguildSkills@@YAXXZ$6
?vecUseSoundFileName@@3V?$array@U?$pair@KV?$basic_string@DU?$char_traits@D@std@@V?$allocator@D@2@@std@@@std@@$06@std@@B DQ 00000000000000001r ; 4.94066e-324 ; vecUseSoundFileName
	DQ	00000000000000000r		; 0
	DQ	00000000000000000r		; 0
	DQ	00000000000000000r		; 0
	DQ	00000000000000000r		; 0
	DQ	00000000000000000r		; 0
	DQ	00000000000000000r		; 0
	DQ	00000000000000000r		; 0
	DQ	00000000000000000r		; 0
	DQ	00000000000000000r		; 0
	DQ	00000000000000000r		; 0
	DQ	00000000000000000r		; 0
	DQ	00000000000000000r		; 0
	DQ	00000000000000000r		; 0
	DQ	00000000000000000r		; 0
	DQ	00000000000000000r		; 0
	DQ	00000000000000000r		; 0
	DQ	00000000000000000r		; 0
	DQ	00000000000000000r		; 0
	DQ	00000000000000000r		; 0
	DQ	00000000000000000r		; 0
	DQ	00000000000000000r		; 0
	DQ	00000000000000000r		; 0
	DQ	00000000000000000r		; 0
	DD	00H
?vecUseSoundFileName$initializer$@@3P6AXXZA DD FLAT:??__EvecUseSoundFileName@@YAXXZ ; vecUseSoundFileName$initializer$
?vecDropSoundFileName$initializer$@@3P6AXXZA DD FLAT:??__EvecDropSoundFileName@@YAXXZ ; vecDropSoundFileName$initializer$
?vecEffectList$initializer$@@3P6AXXZA DD FLAT:??__EvecEffectList@@YAXXZ ; vecEffectList$initializer$
?characterNameColors$initializer$@@3P6AXXZA DD FLAT:??__EcharacterNameColors@@YAXXZ ; characterNameColors$initializer$
?characterTitleColors$initializer$@@3P6AXXZA DD FLAT:??__EcharacterTitleColors@@YAXXZ ; characterTitleColors$initializer$
?characterTitleSystemColors$initializer$@@3P6AXXZA DD FLAT:??__EcharacterTitleSystemColors@@YAXXZ ; characterTitleSystemColors$initializer$
?emotionIcons$initializer$@@3P6AXXZA DD FLAT:??__EemotionIcons@@YAXXZ ; emotionIcons$initializer$
?skillIndexes$initializer$@@3P6AXXZA DD FLAT:??__EskillIndexes@@YAXXZ ; skillIndexes$initializer$
?guildSkills$initializer$@@3P6AXXZA DD FLAT:??__EguildSkills@@YAXXZ ; guildSkills$initializer$
END
