; Listing generated by Microsoft (R) Optimizing Compiler Version 19.44.35219.0 

	TITLE	c:\anka2project\anka2project\source\binary\vs_files\userinterface\release\markmanager.obj
	.686P
	.XMM
	include listing.inc
	.model	flat

INCLUDELIB OLDNAMES

PUBLIC	??_C@_04KJJCFCK@mark@				; `string'
PUBLIC	??_C@_0BA@BKPHNHHG@mark?1?$CFs_?$CFlu?4tga@	; `string'
PUBLIC	??_C@_0O@OILHOJMF@mark?1?$CFs_index@		; `string'
PUBLIC	??_C@_01KDCPPGHE@r@				; `string'
PUBLIC	??_C@_07HJBKDJLI@?$CFlu?5?$CFlu@		; `string'
PUBLIC	??_C@_01NOFIACDB@w@				; `string'
PUBLIC	??_C@_0DD@DCHMIIOP@MarkManager?3?3SaveMarkData?3?5cann@ ; `string'
PUBLIC	??_C@_06IPGPIAII@?$CFd?5?$CFd?6@		; `string'
PUBLIC	??_C@_0CK@IKDHOBNC@MarkManager?3?3SaveMarkData?3?5inde@ ; `string'
PUBLIC	??_C@_0BA@PBMNNCMH@?$CFs?5Save?5failed?6@	; `string'
PUBLIC	??_C@_0CL@HBDGKDCJ@CGuildMarkManager?3?5cannot?5alloc@ ; `string'
PUBLIC	??_C@_0BL@FIGDHGGB@SaveMark?3?5mark?5id?5alloc?5?$CFu@ ; `string'
PUBLIC	??_C@_0BL@DJLHMKOD@SaveMark?3?5mark?5id?5found?5?$CFu@ ; `string'
PUBLIC	??_C@_0L@GFEFCHNI@imgidx?5?$CFu?5@		; `string'
PUBLIC	??_C@_0P@PFBACHEK@invalid?5idx?5?$CFu@		; `string'
PUBLIC	??_C@_0CD@OFIJIOEB@Cannot?5open?5Symbol?5file?5?$CIname?3?5@ ; `string'
PUBLIC	??_C@_0CG@NOAPOIFA@GuildSymbolUpload?5guildID?5?$CFlu?5S@ ; `string'
PUBLIC	??_R2CGuildMarkManager@@8			; CGuildMarkManager::`RTTI Base Class Array'
PUBLIC	??_R2?$singleton@VCGuildMarkManager@@@@8	; singleton<CGuildMarkManager>::`RTTI Base Class Array'
PUBLIC	??_R1A@?0A@EA@CGuildMarkManager@@8		; CGuildMarkManager::`RTTI Base Class Descriptor at (0,-1,0,64)'
PUBLIC	??_R1A@?0A@EA@?$singleton@VCGuildMarkManager@@@@8 ; singleton<CGuildMarkManager>::`RTTI Base Class Descriptor at (0,-1,0,64)'
PUBLIC	??_R3?$singleton@VCGuildMarkManager@@@@8	; singleton<CGuildMarkManager>::`RTTI Class Hierarchy Descriptor'
PUBLIC	??_R0?AV?$singleton@VCGuildMarkManager@@@@@8	; singleton<CGuildMarkManager> `RTTI Type Descriptor'
PUBLIC	??_R3CGuildMarkManager@@8			; CGuildMarkManager::`RTTI Class Hierarchy Descriptor'
PUBLIC	??_R0?AVCGuildMarkManager@@@8			; CGuildMarkManager `RTTI Type Descriptor'
PUBLIC	??_R4?$singleton@VCGuildMarkManager@@@@6B@	; singleton<CGuildMarkManager>::`RTTI Complete Object Locator'
PUBLIC	??_R4CGuildMarkManager@@6B@			; CGuildMarkManager::`RTTI Complete Object Locator'
PUBLIC	?piecewise_construct@std@@3Upiecewise_construct_t@1@B ; std::piecewise_construct
PUBLIC	??_7?$singleton@VCGuildMarkManager@@@@6B@	; singleton<CGuildMarkManager>::`vftable'
PUBLIC	??_7CGuildMarkManager@@6B@			; CGuildMarkManager::`vftable'
EXTRN	__mkdir:PROC
;	COMDAT ??_7CGuildMarkManager@@6B@
CONST	SEGMENT
??_7CGuildMarkManager@@6B@ DD FLAT:??_R4CGuildMarkManager@@6B@ ; CGuildMarkManager::`vftable'
	DD	FLAT:??_ECGuildMarkManager@@UAEPAXI@Z
CONST	ENDS
;	COMDAT ??_7?$singleton@VCGuildMarkManager@@@@6B@
CONST	SEGMENT
??_7?$singleton@VCGuildMarkManager@@@@6B@ DD FLAT:??_R4?$singleton@VCGuildMarkManager@@@@6B@ ; singleton<CGuildMarkManager>::`vftable'
	DD	FLAT:??_E?$singleton@VCGuildMarkManager@@@@UAEPAXI@Z
CONST	ENDS
;	COMDAT ?piecewise_construct@std@@3Upiecewise_construct_t@1@B
CONST	SEGMENT
?piecewise_construct@std@@3Upiecewise_construct_t@1@B	ORG $+1 ; std::piecewise_construct
CONST	ENDS
;	COMDAT ??_R4CGuildMarkManager@@6B@
rdata$r	SEGMENT
??_R4CGuildMarkManager@@6B@ DD 00H			; CGuildMarkManager::`RTTI Complete Object Locator'
	DD	00H
	DD	00H
	DD	FLAT:??_R0?AVCGuildMarkManager@@@8
	DD	FLAT:??_R3CGuildMarkManager@@8
rdata$r	ENDS
;	COMDAT ??_R4?$singleton@VCGuildMarkManager@@@@6B@
rdata$r	SEGMENT
??_R4?$singleton@VCGuildMarkManager@@@@6B@ DD 00H	; singleton<CGuildMarkManager>::`RTTI Complete Object Locator'
	DD	00H
	DD	00H
	DD	FLAT:??_R0?AV?$singleton@VCGuildMarkManager@@@@@8
	DD	FLAT:??_R3?$singleton@VCGuildMarkManager@@@@8
rdata$r	ENDS
;	COMDAT ??_R0?AVCGuildMarkManager@@@8
data$rs	SEGMENT
??_R0?AVCGuildMarkManager@@@8 DD FLAT:??_7type_info@@6B@ ; CGuildMarkManager `RTTI Type Descriptor'
	DD	00H
	DB	'.?AVCGuildMarkManager@@', 00H
data$rs	ENDS
;	COMDAT ??_R3CGuildMarkManager@@8
rdata$r	SEGMENT
??_R3CGuildMarkManager@@8 DD 00H			; CGuildMarkManager::`RTTI Class Hierarchy Descriptor'
	DD	00H
	DD	02H
	DD	FLAT:??_R2CGuildMarkManager@@8
rdata$r	ENDS
;	COMDAT ??_R0?AV?$singleton@VCGuildMarkManager@@@@@8
data$rs	SEGMENT
??_R0?AV?$singleton@VCGuildMarkManager@@@@@8 DD FLAT:??_7type_info@@6B@ ; singleton<CGuildMarkManager> `RTTI Type Descriptor'
	DD	00H
	DB	'.?AV?$singleton@VCGuildMarkManager@@@@', 00H
data$rs	ENDS
;	COMDAT ??_R3?$singleton@VCGuildMarkManager@@@@8
rdata$r	SEGMENT
??_R3?$singleton@VCGuildMarkManager@@@@8 DD 00H		; singleton<CGuildMarkManager>::`RTTI Class Hierarchy Descriptor'
	DD	00H
	DD	01H
	DD	FLAT:??_R2?$singleton@VCGuildMarkManager@@@@8
rdata$r	ENDS
;	COMDAT ??_R1A@?0A@EA@?$singleton@VCGuildMarkManager@@@@8
rdata$r	SEGMENT
??_R1A@?0A@EA@?$singleton@VCGuildMarkManager@@@@8 DD FLAT:??_R0?AV?$singleton@VCGuildMarkManager@@@@@8 ; singleton<CGuildMarkManager>::`RTTI Base Class Descriptor at (0,-1,0,64)'
	DD	00H
	DD	00H
	DD	0ffffffffH
	DD	00H
	DD	040H
	DD	FLAT:??_R3?$singleton@VCGuildMarkManager@@@@8
rdata$r	ENDS
;	COMDAT ??_R1A@?0A@EA@CGuildMarkManager@@8
rdata$r	SEGMENT
??_R1A@?0A@EA@CGuildMarkManager@@8 DD FLAT:??_R0?AVCGuildMarkManager@@@8 ; CGuildMarkManager::`RTTI Base Class Descriptor at (0,-1,0,64)'
	DD	01H
	DD	00H
	DD	0ffffffffH
	DD	00H
	DD	040H
	DD	FLAT:??_R3CGuildMarkManager@@8
rdata$r	ENDS
;	COMDAT ??_R2?$singleton@VCGuildMarkManager@@@@8
rdata$r	SEGMENT
??_R2?$singleton@VCGuildMarkManager@@@@8 DD FLAT:??_R1A@?0A@EA@?$singleton@VCGuildMarkManager@@@@8 ; singleton<CGuildMarkManager>::`RTTI Base Class Array'
rdata$r	ENDS
;	COMDAT ??_R2CGuildMarkManager@@8
rdata$r	SEGMENT
??_R2CGuildMarkManager@@8 DD FLAT:??_R1A@?0A@EA@CGuildMarkManager@@8 ; CGuildMarkManager::`RTTI Base Class Array'
	DD	FLAT:??_R1A@?0A@EA@?$singleton@VCGuildMarkManager@@@@8
rdata$r	ENDS
;	COMDAT ??_C@_0CG@NOAPOIFA@GuildSymbolUpload?5guildID?5?$CFlu?5S@
CONST	SEGMENT
??_C@_0CG@NOAPOIFA@GuildSymbolUpload?5guildID?5?$CFlu?5S@ DB 'GuildSymbol'
	DB	'Upload guildID %lu Size %d', 00H		; `string'
CONST	ENDS
;	COMDAT ??_C@_0CD@OFIJIOEB@Cannot?5open?5Symbol?5file?5?$CIname?3?5@
CONST	SEGMENT
??_C@_0CD@OFIJIOEB@Cannot?5open?5Symbol?5file?5?$CIname?3?5@ DB 'Cannot o'
	DB	'pen Symbol file (name: %s)', 00H		; `string'
CONST	ENDS
;	COMDAT ??_C@_0P@PFBACHEK@invalid?5idx?5?$CFu@
CONST	SEGMENT
??_C@_0P@PFBACHEK@invalid?5idx?5?$CFu@ DB 'invalid idx %u', 00H ; `string'
CONST	ENDS
;	COMDAT ??_C@_0L@GFEFCHNI@imgidx?5?$CFu?5@
CONST	SEGMENT
??_C@_0L@GFEFCHNI@imgidx?5?$CFu?5@ DB 'imgidx %u ', 00H	; `string'
CONST	ENDS
;	COMDAT ??_C@_0BL@DJLHMKOD@SaveMark?3?5mark?5id?5found?5?$CFu@
CONST	SEGMENT
??_C@_0BL@DJLHMKOD@SaveMark?3?5mark?5id?5found?5?$CFu@ DB 'SaveMark: mark'
	DB	' id found %u', 00H				; `string'
CONST	ENDS
;	COMDAT ??_C@_0BL@FIGDHGGB@SaveMark?3?5mark?5id?5alloc?5?$CFu@
CONST	SEGMENT
??_C@_0BL@FIGDHGGB@SaveMark?3?5mark?5id?5alloc?5?$CFu@ DB 'SaveMark: mark'
	DB	' id alloc %u', 00H				; `string'
CONST	ENDS
;	COMDAT ??_C@_0CL@HBDGKDCJ@CGuildMarkManager?3?5cannot?5alloc@
CONST	SEGMENT
??_C@_0CL@HBDGKDCJ@CGuildMarkManager?3?5cannot?5alloc@ DB 'CGuildMarkMana'
	DB	'ger: cannot alloc mark id %u', 00H		; `string'
CONST	ENDS
;	COMDAT ??_C@_0BA@PBMNNCMH@?$CFs?5Save?5failed?6@
CONST	SEGMENT
??_C@_0BA@PBMNNCMH@?$CFs?5Save?5failed?6@ DB '%s Save failed', 0aH, 00H ; `string'
CONST	ENDS
;	COMDAT ??_C@_0CK@IKDHOBNC@MarkManager?3?3SaveMarkData?3?5inde@
CONST	SEGMENT
??_C@_0CK@IKDHOBNC@MarkManager?3?3SaveMarkData?3?5inde@ DB 'MarkManager::'
	DB	'SaveMarkData: index count %d', 00H		; `string'
CONST	ENDS
;	COMDAT ??_C@_06IPGPIAII@?$CFd?5?$CFd?6@
CONST	SEGMENT
??_C@_06IPGPIAII@?$CFd?5?$CFd?6@ DB '%d %d', 0aH, 00H	; `string'
CONST	ENDS
;	COMDAT ??_C@_0DD@DCHMIIOP@MarkManager?3?3SaveMarkData?3?5cann@
CONST	SEGMENT
??_C@_0DD@DCHMIIOP@MarkManager?3?3SaveMarkData?3?5cann@ DB 'MarkManager::'
	DB	'SaveMarkData: cannot open index file.', 00H	; `string'
CONST	ENDS
;	COMDAT ??_C@_01NOFIACDB@w@
CONST	SEGMENT
??_C@_01NOFIACDB@w@ DB 'w', 00H				; `string'
CONST	ENDS
;	COMDAT ??_C@_07HJBKDJLI@?$CFlu?5?$CFlu@
CONST	SEGMENT
??_C@_07HJBKDJLI@?$CFlu?5?$CFlu@ DB '%lu %lu', 00H	; `string'
CONST	ENDS
;	COMDAT ??_C@_01KDCPPGHE@r@
CONST	SEGMENT
??_C@_01KDCPPGHE@r@ DB 'r', 00H				; `string'
CONST	ENDS
;	COMDAT ??_C@_0O@OILHOJMF@mark?1?$CFs_index@
CONST	SEGMENT
??_C@_0O@OILHOJMF@mark?1?$CFs_index@ DB 'mark/%s_index', 00H ; `string'
CONST	ENDS
;	COMDAT ??_C@_0BA@BKPHNHHG@mark?1?$CFs_?$CFlu?4tga@
CONST	SEGMENT
??_C@_0BA@BKPHNHHG@mark?1?$CFs_?$CFlu?4tga@ DB 'mark/%s_%lu.tga', 00H ; `string'
CONST	ENDS
;	COMDAT ??_C@_04KJJCFCK@mark@
CONST	SEGMENT
??_C@_04KJJCFCK@mark@ DB 'mark', 00H			; `string'
PUBLIC	__snprintf
PUBLIC	__vsnprintf
PUBLIC	??$addressof@E@std@@YAPAEAAE@Z			; std::addressof<unsigned char>
PUBLIC	??$move@AAV?$tuple@ABK@std@@@std@@YA$$QAV?$tuple@ABK@0@AAV10@@Z ; std::move<std::tuple<unsigned long const &> &>
PUBLIC	??$_Tuple_get@$0A@ABK@std@@YA$$QA_P$$QAV?$tuple@ABK@0@@Z ; std::_Tuple_get<0,unsigned long const &>
PUBLIC	?_Get_first@?$_Compressed_pair@V?$allocator@U?$_Tree_node@U?$pair@$$CBKPAVCGuildMarkImage@@@std@@PAX@std@@@std@@V?$_Tree_val@U?$_Tree_simple_types@U?$pair@$$CBKPAVCGuildMarkImage@@@std@@@std@@@2@$00@std@@QBEABV?$allocator@U?$_Tree_node@U?$pair@$$CBKPAVCGuildMarkImage@@@std@@PAX@std@@@2@XZ ; std::_Compressed_pair<std::allocator<std::_Tree_node<std::pair<unsigned long const ,CGuildMarkImage *>,void *> >,std::_Tree_val<std::_Tree_simple_types<std::pair<unsigned long const ,CGuildMarkImage *> > >,1>::_Get_first
PUBLIC	??$_Get_size_of_n@$0CE@@std@@YAII@Z		; std::_Get_size_of_n<36>
PUBLIC	??$_Emplace_reallocate@ABE@?$vector@EV?$allocator@E@std@@@std@@AAEPAEQAEABE@Z ; std::vector<unsigned char,std::allocator<unsigned char> >::_Emplace_reallocate<unsigned char const &>
PUBLIC	??$construct_at@PAU?$_Tree_node@U?$pair@$$CBKPAVCGuildMarkImage@@@std@@PAX@std@@ABQAU12@@std@@YAPAPAU?$_Tree_node@U?$pair@$$CBKPAVCGuildMarkImage@@@std@@PAX@0@QAPAU10@ABQAU10@@Z ; std::construct_at<std::_Tree_node<std::pair<unsigned long const ,CGuildMarkImage *>,void *> *,std::_Tree_node<std::pair<unsigned long const ,CGuildMarkImage *>,void *> * const &>
PUBLIC	??$forward@ABQAU?$_Tree_node@U?$pair@$$CBKPAVCGuildMarkImage@@@std@@PAX@std@@@std@@YAABQAU?$_Tree_node@U?$pair@$$CBKPAVCGuildMarkImage@@@std@@PAX@0@ABQAU10@@Z ; std::forward<std::_Tree_node<std::pair<unsigned long const ,CGuildMarkImage *>,void *> * const &>
PUBLIC	??$construct_at@PAU?$_Tree_node@U?$pair@$$CBKUTGuildSymbol@CGuildMarkManager@@@std@@PAX@std@@ABQAU12@@std@@YAPAPAU?$_Tree_node@U?$pair@$$CBKUTGuildSymbol@CGuildMarkManager@@@std@@PAX@0@QAPAU10@ABQAU10@@Z ; std::construct_at<std::_Tree_node<std::pair<unsigned long const ,CGuildMarkManager::TGuildSymbol>,void *> *,std::_Tree_node<std::pair<unsigned long const ,CGuildMarkManager::TGuildSymbol>,void *> * const &>
PUBLIC	??$construct_at@E$$V@std@@YAPAEQAE@Z		; std::construct_at<unsigned char>
PUBLIC	??$construct_at@EE@std@@YAPAEQAE$$QAE@Z		; std::construct_at<unsigned char,unsigned char>
PUBLIC	??$?0ABK@?$_Tuple_val@ABK@std@@QAE@ABK@Z	; std::_Tuple_val<unsigned long const &>::_Tuple_val<unsigned long const &><unsigned long const &>
PUBLIC	??_G?$pair@$$CBKUTGuildSymbol@CGuildMarkManager@@@std@@QAEPAXI@Z ; std::pair<unsigned long const ,CGuildMarkManager::TGuildSymbol>::`scalar deleting destructor'
PUBLIC	??0?$tuple@ABK@std@@QAE@$$QAV01@@Z		; std::tuple<unsigned long const &>::tuple<unsigned long const &>
PUBLIC	?_Getal@?$_Tree@V?$_Tmap_traits@KPAVCGuildMarkImage@@U?$less@K@std@@V?$allocator@U?$pair@$$CBKPAVCGuildMarkImage@@@std@@@3@$0A@@std@@@std@@IBEABV?$allocator@U?$_Tree_node@U?$pair@$$CBKPAVCGuildMarkImage@@@std@@PAX@std@@@2@XZ ; std::_Tree<std::_Tmap_traits<unsigned long,CGuildMarkImage *,std::less<unsigned long>,std::allocator<std::pair<unsigned long const ,CGuildMarkImage *> >,0> >::_Getal
PUBLIC	??0?$allocator@U?$_Tree_node@U?$pair@$$CBKPAVCGuildMarkImage@@@std@@PAX@std@@@std@@QAE@XZ ; std::allocator<std::_Tree_node<std::pair<unsigned long const ,CGuildMarkImage *>,void *> >::allocator<std::_Tree_node<std::pair<unsigned long const ,CGuildMarkImage *>,void *> >
PUBLIC	?deallocate@?$allocator@U?$_Tree_node@U?$pair@$$CBKPAVCGuildMarkImage@@@std@@PAX@std@@@std@@QAEXQAU?$_Tree_node@U?$pair@$$CBKPAVCGuildMarkImage@@@std@@PAX@2@I@Z ; std::allocator<std::_Tree_node<std::pair<unsigned long const ,CGuildMarkImage *>,void *> >::deallocate
PUBLIC	?allocate@?$allocator@U?$_Tree_node@U?$pair@$$CBKPAVCGuildMarkImage@@@std@@PAX@std@@@std@@QAEPAU?$_Tree_node@U?$pair@$$CBKPAVCGuildMarkImage@@@std@@PAX@2@I@Z ; std::allocator<std::_Tree_node<std::pair<unsigned long const ,CGuildMarkImage *>,void *> >::allocate
PUBLIC	?max_size@?$_Default_allocator_traits@V?$allocator@U?$_Tree_node@U?$pair@$$CBKPAVCGuildMarkImage@@@std@@PAX@std@@@std@@@std@@SAIABV?$allocator@U?$_Tree_node@U?$pair@$$CBKPAVCGuildMarkImage@@@std@@PAX@std@@@2@@Z ; std::_Default_allocator_traits<std::allocator<std::_Tree_node<std::pair<unsigned long const ,CGuildMarkImage *>,void *> > >::max_size
PUBLIC	??0?$_Tree_val@U?$_Tree_simple_types@U?$pair@$$CBKPAVCGuildMarkImage@@@std@@@std@@@std@@QAE@XZ ; std::_Tree_val<std::_Tree_simple_types<std::pair<unsigned long const ,CGuildMarkImage *> > >::_Tree_val<std::_Tree_simple_types<std::pair<unsigned long const ,CGuildMarkImage *> > >
PUBLIC	?_Get_first@?$_Compressed_pair@U?$less@K@std@@V?$_Compressed_pair@V?$allocator@U?$_Tree_node@U?$pair@$$CBKPAVCGuildMarkImage@@@std@@PAX@std@@@std@@V?$_Tree_val@U?$_Tree_simple_types@U?$pair@$$CBKPAVCGuildMarkImage@@@std@@@std@@@2@$00@2@$00@std@@QBEABU?$less@K@2@XZ ; std::_Compressed_pair<std::less<unsigned long>,std::_Compressed_pair<std::allocator<std::_Tree_node<std::pair<unsigned long const ,CGuildMarkImage *>,void *> >,std::_Tree_val<std::_Tree_simple_types<std::pair<unsigned long const ,CGuildMarkImage *> > >,1>,1>::_Get_first
PUBLIC	??0?$allocator@U?$_Tree_node@U?$pair@$$CBKUTGuildSymbol@CGuildMarkManager@@@std@@PAX@std@@@std@@QAE@XZ ; std::allocator<std::_Tree_node<std::pair<unsigned long const ,CGuildMarkManager::TGuildSymbol>,void *> >::allocator<std::_Tree_node<std::pair<unsigned long const ,CGuildMarkManager::TGuildSymbol>,void *> >
PUBLIC	?deallocate@?$allocator@U?$_Tree_node@U?$pair@$$CBKUTGuildSymbol@CGuildMarkManager@@@std@@PAX@std@@@std@@QAEXQAU?$_Tree_node@U?$pair@$$CBKUTGuildSymbol@CGuildMarkManager@@@std@@PAX@2@I@Z ; std::allocator<std::_Tree_node<std::pair<unsigned long const ,CGuildMarkManager::TGuildSymbol>,void *> >::deallocate
PUBLIC	?allocate@?$allocator@U?$_Tree_node@U?$pair@$$CBKUTGuildSymbol@CGuildMarkManager@@@std@@PAX@std@@@std@@QAEPAU?$_Tree_node@U?$pair@$$CBKUTGuildSymbol@CGuildMarkManager@@@std@@PAX@2@I@Z ; std::allocator<std::_Tree_node<std::pair<unsigned long const ,CGuildMarkManager::TGuildSymbol>,void *> >::allocate
PUBLIC	??0?$_Tree_val@U?$_Tree_simple_types@U?$pair@$$CBKUTGuildSymbol@CGuildMarkManager@@@std@@@std@@@std@@QAE@XZ ; std::_Tree_val<std::_Tree_simple_types<std::pair<unsigned long const ,CGuildMarkManager::TGuildSymbol> > >::_Tree_val<std::_Tree_simple_types<std::pair<unsigned long const ,CGuildMarkManager::TGuildSymbol> > >
PUBLIC	??0?$_Alloc_construct_ptr@V?$allocator@U?$_Tree_node@U?$pair@$$CBKPAVCGuildMarkImage@@@std@@PAX@std@@@std@@@std@@QAE@AAV?$allocator@U?$_Tree_node@U?$pair@$$CBKPAVCGuildMarkImage@@@std@@PAX@std@@@1@@Z ; std::_Alloc_construct_ptr<std::allocator<std::_Tree_node<std::pair<unsigned long const ,CGuildMarkImage *>,void *> > >::_Alloc_construct_ptr<std::allocator<std::_Tree_node<std::pair<unsigned long const ,CGuildMarkImage *>,void *> > >
PUBLIC	?_Allocate@?$_Alloc_construct_ptr@V?$allocator@U?$_Tree_node@U?$pair@$$CBKPAVCGuildMarkImage@@@std@@PAX@std@@@std@@@std@@QAEXXZ ; std::_Alloc_construct_ptr<std::allocator<std::_Tree_node<std::pair<unsigned long const ,CGuildMarkImage *>,void *> > >::_Allocate
PUBLIC	??$_Construct_in_place@PAU?$_Tree_node@U?$pair@$$CBKPAVCGuildMarkImage@@@std@@PAX@std@@ABQAU12@@std@@YAXAAPAU?$_Tree_node@U?$pair@$$CBKPAVCGuildMarkImage@@@std@@PAX@0@ABQAU10@@Z ; std::_Construct_in_place<std::_Tree_node<std::pair<unsigned long const ,CGuildMarkImage *>,void *> *,std::_Tree_node<std::pair<unsigned long const ,CGuildMarkImage *>,void *> * const &>
PUBLIC	??$_Construct_in_place@PAU?$_Tree_node@U?$pair@$$CBKUTGuildSymbol@CGuildMarkManager@@@std@@PAX@std@@ABQAU12@@std@@YAXAAPAU?$_Tree_node@U?$pair@$$CBKUTGuildSymbol@CGuildMarkManager@@@std@@PAX@0@ABQAU10@@Z ; std::_Construct_in_place<std::_Tree_node<std::pair<unsigned long const ,CGuildMarkManager::TGuildSymbol>,void *> *,std::_Tree_node<std::pair<unsigned long const ,CGuildMarkManager::TGuildSymbol>,void *> * const &>
PUBLIC	??1?$pair@$$CBKUTGuildSymbol@CGuildMarkManager@@@std@@QAE@XZ ; std::pair<unsigned long const ,CGuildMarkManager::TGuildSymbol>::~pair<unsigned long const ,CGuildMarkManager::TGuildSymbol>
PUBLIC	??$destroy_at@U?$pair@$$CBKUTGuildSymbol@CGuildMarkManager@@@std@@@std@@YAXQAU?$pair@$$CBKUTGuildSymbol@CGuildMarkManager@@@0@@Z ; std::destroy_at<std::pair<unsigned long const ,CGuildMarkManager::TGuildSymbol> >
PUBLIC	??$construct@E$$V@?$_Default_allocator_traits@V?$allocator@E@std@@@std@@SAXAAV?$allocator@E@1@QAE@Z ; std::_Default_allocator_traits<std::allocator<unsigned char> >::construct<unsigned char>
PUBLIC	??$construct@EE@?$_Default_allocator_traits@V?$allocator@E@std@@@std@@SAXAAV?$allocator@E@1@QAE$$QAE@Z ; std::_Default_allocator_traits<std::allocator<unsigned char> >::construct<unsigned char,unsigned char>
PUBLIC	??$forward@E@std@@YA$$QAEAAE@Z			; std::forward<unsigned char>
PUBLIC	??$destroy_at@U?$pair@$$CBKPAVCGuildMarkImage@@@std@@@std@@YAXQAU?$pair@$$CBKPAVCGuildMarkImage@@@0@@Z ; std::destroy_at<std::pair<unsigned long const ,CGuildMarkImage *> >
PUBLIC	??$addressof@PAU?$_Tree_node@U?$pair@$$CBKUTGuildSymbol@CGuildMarkManager@@@std@@PAX@std@@@std@@YAPAPAU?$_Tree_node@U?$pair@$$CBKUTGuildSymbol@CGuildMarkManager@@@std@@PAX@0@AAPAU10@@Z ; std::addressof<std::_Tree_node<std::pair<unsigned long const ,CGuildMarkManager::TGuildSymbol>,void *> *>
PUBLIC	??$?0U_Exact_args_t@std@@ABK$$V$0A@@?$tuple@ABK@std@@QAE@U_Exact_args_t@1@ABK@Z ; std::tuple<unsigned long const &>::tuple<unsigned long const &><std::_Exact_args_t,unsigned long const &,0>
PUBLIC	??$construct_at@PAU?$_Tree_node@U?$pair@$$CBKPAVCGuildMarkImage@@@std@@PAX@std@@AAPAU12@@std@@YAPAPAU?$_Tree_node@U?$pair@$$CBKPAVCGuildMarkImage@@@std@@PAX@0@QAPAU10@AAPAU10@@Z ; std::construct_at<std::_Tree_node<std::pair<unsigned long const ,CGuildMarkImage *>,void *> *,std::_Tree_node<std::pair<unsigned long const ,CGuildMarkImage *>,void *> * &>
PUBLIC	??$addressof@PAU?$_Tree_node@U?$pair@$$CBKPAVCGuildMarkImage@@@std@@PAX@std@@@std@@YAPAPAU?$_Tree_node@U?$pair@$$CBKPAVCGuildMarkImage@@@std@@PAX@0@AAPAU10@@Z ; std::addressof<std::_Tree_node<std::pair<unsigned long const ,CGuildMarkImage *>,void *> *>
PUBLIC	??$construct_at@U?$pair@$$CBKPAVCGuildMarkImage@@@std@@U12@@std@@YAPAU?$pair@$$CBKPAVCGuildMarkImage@@@0@QAU10@$$QAU10@@Z ; std::construct_at<std::pair<unsigned long const ,CGuildMarkImage *>,std::pair<unsigned long const ,CGuildMarkImage *> >
PUBLIC	?_Calculate_growth@?$vector@EV?$allocator@E@std@@@std@@ABEII@Z ; std::vector<unsigned char,std::allocator<unsigned char> >::_Calculate_growth
PUBLIC	??1_Reallocation_guard@?$vector@EV?$allocator@E@std@@@std@@QAE@XZ ; std::vector<unsigned char,std::allocator<unsigned char> >::_Reallocation_guard::~_Reallocation_guard
PUBLIC	?max_size@?$_Tree@V?$_Tmap_traits@KPAVCGuildMarkImage@@U?$less@K@std@@V?$allocator@U?$pair@$$CBKPAVCGuildMarkImage@@@std@@@3@$0A@@std@@@std@@QBEIXZ ; std::_Tree<std::_Tmap_traits<unsigned long,CGuildMarkImage *,std::less<unsigned long>,std::allocator<std::pair<unsigned long const ,CGuildMarkImage *> >,0> >::max_size
PUBLIC	?_Getcomp@?$_Tree@V?$_Tmap_traits@KPAVCGuildMarkImage@@U?$less@K@std@@V?$allocator@U?$pair@$$CBKPAVCGuildMarkImage@@@std@@@3@$0A@@std@@@std@@IBEABU?$less@K@2@XZ ; std::_Tree<std::_Tmap_traits<unsigned long,CGuildMarkImage *,std::less<unsigned long>,std::allocator<std::pair<unsigned long const ,CGuildMarkImage *> >,0> >::_Getcomp
PUBLIC	?deallocate@?$_Default_allocator_traits@V?$allocator@U?$_Tree_node@U?$pair@$$CBKPAVCGuildMarkImage@@@std@@PAX@std@@@std@@@std@@SAXAAV?$allocator@U?$_Tree_node@U?$pair@$$CBKPAVCGuildMarkImage@@@std@@PAX@std@@@2@QAU?$_Tree_node@U?$pair@$$CBKPAVCGuildMarkImage@@@std@@PAX@2@I@Z ; std::_Default_allocator_traits<std::allocator<std::_Tree_node<std::pair<unsigned long const ,CGuildMarkImage *>,void *> > >::deallocate
PUBLIC	?_Min@?$_Tree_val@U?$_Tree_simple_types@U?$pair@$$CBKPAVCGuildMarkImage@@@std@@@std@@@std@@SAPAU?$_Tree_node@U?$pair@$$CBKPAVCGuildMarkImage@@@std@@PAX@2@PAU32@@Z ; std::_Tree_val<std::_Tree_simple_types<std::pair<unsigned long const ,CGuildMarkImage *> > >::_Min
PUBLIC	?_Lrotate@?$_Tree_val@U?$_Tree_simple_types@U?$pair@$$CBKPAVCGuildMarkImage@@@std@@@std@@@std@@QAEXPAU?$_Tree_node@U?$pair@$$CBKPAVCGuildMarkImage@@@std@@PAX@2@@Z ; std::_Tree_val<std::_Tree_simple_types<std::pair<unsigned long const ,CGuildMarkImage *> > >::_Lrotate
PUBLIC	?_Rrotate@?$_Tree_val@U?$_Tree_simple_types@U?$pair@$$CBKPAVCGuildMarkImage@@@std@@@std@@@std@@QAEXPAU?$_Tree_node@U?$pair@$$CBKPAVCGuildMarkImage@@@std@@PAX@2@@Z ; std::_Tree_val<std::_Tree_simple_types<std::pair<unsigned long const ,CGuildMarkImage *> > >::_Rrotate
PUBLIC	?deallocate@?$_Default_allocator_traits@V?$allocator@U?$_Tree_node@U?$pair@$$CBKUTGuildSymbol@CGuildMarkManager@@@std@@PAX@std@@@std@@@std@@SAXAAV?$allocator@U?$_Tree_node@U?$pair@$$CBKUTGuildSymbol@CGuildMarkManager@@@std@@PAX@std@@@2@QAU?$_Tree_node@U?$pair@$$CBKUTGuildSymbol@CGuildMarkManager@@@std@@PAX@2@I@Z ; std::_Default_allocator_traits<std::allocator<std::_Tree_node<std::pair<unsigned long const ,CGuildMarkManager::TGuildSymbol>,void *> > >::deallocate
PUBLIC	??0?$_Tree_temp_node_alloc@V?$allocator@U?$_Tree_node@U?$pair@$$CBKPAVCGuildMarkImage@@@std@@PAX@std@@@std@@@std@@QAE@AAV?$allocator@U?$_Tree_node@U?$pair@$$CBKPAVCGuildMarkImage@@@std@@PAX@std@@@1@@Z ; std::_Tree_temp_node_alloc<std::allocator<std::_Tree_node<std::pair<unsigned long const ,CGuildMarkImage *>,void *> > >::_Tree_temp_node_alloc<std::allocator<std::_Tree_node<std::pair<unsigned long const ,CGuildMarkImage *>,void *> > >
PUBLIC	??1?$_Alloc_construct_ptr@V?$allocator@U?$_Tree_node@U?$pair@$$CBKPAVCGuildMarkImage@@@std@@PAX@std@@@std@@@std@@QAE@XZ ; std::_Alloc_construct_ptr<std::allocator<std::_Tree_node<std::pair<unsigned long const ,CGuildMarkImage *>,void *> > >::~_Alloc_construct_ptr<std::allocator<std::_Tree_node<std::pair<unsigned long const ,CGuildMarkImage *>,void *> > >
PUBLIC	??1?$_Alloc_construct_ptr@V?$allocator@U?$_Tree_node@U?$pair@$$CBKUTGuildSymbol@CGuildMarkManager@@@std@@PAX@std@@@std@@@std@@QAE@XZ ; std::_Alloc_construct_ptr<std::allocator<std::_Tree_node<std::pair<unsigned long const ,CGuildMarkManager::TGuildSymbol>,void *> > >::~_Alloc_construct_ptr<std::allocator<std::_Tree_node<std::pair<unsigned long const ,CGuildMarkManager::TGuildSymbol>,void *> > >
PUBLIC	??$_Buyheadnode@V?$allocator@U?$_Tree_node@U?$pair@$$CBKPAVCGuildMarkImage@@@std@@PAX@std@@@std@@@?$_Tree_node@U?$pair@$$CBKPAVCGuildMarkImage@@@std@@PAX@std@@SAPAU01@AAV?$allocator@U?$_Tree_node@U?$pair@$$CBKPAVCGuildMarkImage@@@std@@PAX@std@@@1@@Z ; std::_Tree_node<std::pair<unsigned long const ,CGuildMarkImage *>,void *>::_Buyheadnode<std::allocator<std::_Tree_node<std::pair<unsigned long const ,CGuildMarkImage *>,void *> > >
PUBLIC	??$_Buyheadnode@V?$allocator@U?$_Tree_node@U?$pair@$$CBKUTGuildSymbol@CGuildMarkManager@@@std@@PAX@std@@@std@@@?$_Tree_node@U?$pair@$$CBKUTGuildSymbol@CGuildMarkManager@@@std@@PAX@std@@SAPAU01@AAV?$allocator@U?$_Tree_node@U?$pair@$$CBKUTGuildSymbol@CGuildMarkManager@@@std@@PAX@std@@@1@@Z ; std::_Tree_node<std::pair<unsigned long const ,CGuildMarkManager::TGuildSymbol>,void *>::_Buyheadnode<std::allocator<std::_Tree_node<std::pair<unsigned long const ,CGuildMarkManager::TGuildSymbol>,void *> > >
PUBLIC	??$exchange@PAU?$_Tree_node@U?$pair@$$CBKPAVCGuildMarkImage@@@std@@PAX@std@@$$T@std@@YAPAU?$_Tree_node@U?$pair@$$CBKPAVCGuildMarkImage@@@std@@PAX@0@AAPAU10@$$QA$$T@Z ; std::exchange<std::_Tree_node<std::pair<unsigned long const ,CGuildMarkImage *>,void *> *,std::nullptr_t>
PUBLIC	??$destroy@U?$pair@$$CBKUTGuildSymbol@CGuildMarkManager@@@std@@@?$_Default_allocator_traits@V?$allocator@U?$_Tree_node@U?$pair@$$CBKUTGuildSymbol@CGuildMarkManager@@@std@@PAX@std@@@std@@@std@@SAXAAV?$allocator@U?$_Tree_node@U?$pair@$$CBKUTGuildSymbol@CGuildMarkManager@@@std@@PAX@std@@@1@QAU?$pair@$$CBKUTGuildSymbol@CGuildMarkManager@@@1@@Z ; std::_Default_allocator_traits<std::allocator<std::_Tree_node<std::pair<unsigned long const ,CGuildMarkManager::TGuildSymbol>,void *> > >::destroy<std::pair<unsigned long const ,CGuildMarkManager::TGuildSymbol> >
PUBLIC	??$_Emplace_back@$$V@?$_Uninitialized_backout_al@V?$allocator@E@std@@@std@@QAEXXZ ; std::_Uninitialized_backout_al<std::allocator<unsigned char> >::_Emplace_back<>
PUBLIC	??$_Zero_range@PAE@std@@YAPAEQAE0@Z		; std::_Zero_range<unsigned char *>
PUBLIC	??$_Emplace_back@E@?$_Uninitialized_backout_al@V?$allocator@E@std@@@std@@QAEX$$QAE@Z ; std::_Uninitialized_backout_al<std::allocator<unsigned char> >::_Emplace_back<unsigned char>
PUBLIC	??$move@AAE@std@@YA$$QAEAAE@Z			; std::move<unsigned char &>
PUBLIC	??$_Destroy_in_place@PAU?$_Tree_node@U?$pair@$$CBKPAVCGuildMarkImage@@@std@@PAX@std@@@std@@YAXAAPAU?$_Tree_node@U?$pair@$$CBKPAVCGuildMarkImage@@@std@@PAX@0@@Z ; std::_Destroy_in_place<std::_Tree_node<std::pair<unsigned long const ,CGuildMarkImage *>,void *> *>
PUBLIC	??$destroy@U?$pair@$$CBKPAVCGuildMarkImage@@@std@@@?$_Default_allocator_traits@V?$allocator@U?$_Tree_node@U?$pair@$$CBKPAVCGuildMarkImage@@@std@@PAX@std@@@std@@@std@@SAXAAV?$allocator@U?$_Tree_node@U?$pair@$$CBKPAVCGuildMarkImage@@@std@@PAX@std@@@1@QAU?$pair@$$CBKPAVCGuildMarkImage@@@1@@Z ; std::_Default_allocator_traits<std::allocator<std::_Tree_node<std::pair<unsigned long const ,CGuildMarkImage *>,void *> > >::destroy<std::pair<unsigned long const ,CGuildMarkImage *> >
PUBLIC	??$forward@ABQAU?$_Tree_node@U?$pair@$$CBKUTGuildSymbol@CGuildMarkManager@@@std@@PAX@std@@@std@@YAABQAU?$_Tree_node@U?$pair@$$CBKUTGuildSymbol@CGuildMarkManager@@@std@@PAX@0@ABQAU10@@Z ; std::forward<std::_Tree_node<std::pair<unsigned long const ,CGuildMarkManager::TGuildSymbol>,void *> * const &>
PUBLIC	??$forward@V?$tuple@$$V@std@@@std@@YA$$QAV?$tuple@$$V@0@AAV10@@Z ; std::forward<std::tuple<> >
PUBLIC	??$forward@V?$tuple@ABK@std@@@std@@YA$$QAV?$tuple@ABK@0@AAV10@@Z ; std::forward<std::tuple<unsigned long const &> >
PUBLIC	??$forward@ABUpiecewise_construct_t@std@@@std@@YAABUpiecewise_construct_t@0@ABU10@@Z ; std::forward<std::piecewise_construct_t const &>
PUBLIC	??$?0ABK$0A@@?$tuple@ABK@std@@QAE@ABK@Z		; std::tuple<unsigned long const &>::tuple<unsigned long const &><unsigned long const &,0>
PUBLIC	??$_Destroy_in_place@PAU?$_Tree_node@U?$pair@$$CBKUTGuildSymbol@CGuildMarkManager@@@std@@PAX@std@@@std@@YAXAAPAU?$_Tree_node@U?$pair@$$CBKUTGuildSymbol@CGuildMarkManager@@@std@@PAX@0@@Z ; std::_Destroy_in_place<std::_Tree_node<std::pair<unsigned long const ,CGuildMarkManager::TGuildSymbol>,void *> *>
PUBLIC	??$_Freenode@V?$allocator@U?$_Tree_node@U?$pair@$$CBKUTGuildSymbol@CGuildMarkManager@@@std@@PAX@std@@@std@@@?$_Tree_node@U?$pair@$$CBKUTGuildSymbol@CGuildMarkManager@@@std@@PAX@std@@SAXAAV?$allocator@U?$_Tree_node@U?$pair@$$CBKUTGuildSymbol@CGuildMarkManager@@@std@@PAX@std@@@1@PAU01@@Z ; std::_Tree_node<std::pair<unsigned long const ,CGuildMarkManager::TGuildSymbol>,void *>::_Freenode<std::allocator<std::_Tree_node<std::pair<unsigned long const ,CGuildMarkManager::TGuildSymbol>,void *> > >
PUBLIC	??$exchange@PAU?$_Tree_node@U?$pair@$$CBKUTGuildSymbol@CGuildMarkManager@@@std@@PAX@std@@AAPAU12@@std@@YAPAU?$_Tree_node@U?$pair@$$CBKUTGuildSymbol@CGuildMarkManager@@@std@@PAX@0@AAPAU10@0@Z ; std::exchange<std::_Tree_node<std::pair<unsigned long const ,CGuildMarkManager::TGuildSymbol>,void *> *,std::_Tree_node<std::pair<unsigned long const ,CGuildMarkManager::TGuildSymbol>,void *> * &>
PUBLIC	??$forward@PAU?$_Tree_node@U?$pair@$$CBKPAVCGuildMarkImage@@@std@@PAX@std@@@std@@YA$$QAPAU?$_Tree_node@U?$pair@$$CBKPAVCGuildMarkImage@@@std@@PAX@0@AAPAU10@@Z ; std::forward<std::_Tree_node<std::pair<unsigned long const ,CGuildMarkImage *>,void *> *>
PUBLIC	??$forward@AAPAU?$_Tree_node@U?$pair@$$CBKPAVCGuildMarkImage@@@std@@PAX@std@@@std@@YAAAPAU?$_Tree_node@U?$pair@$$CBKPAVCGuildMarkImage@@@std@@PAX@0@AAPAU10@@Z ; std::forward<std::_Tree_node<std::pair<unsigned long const ,CGuildMarkImage *>,void *> * &>
PUBLIC	??$_Construct_in_place@PAU?$_Tree_node@U?$pair@$$CBKPAVCGuildMarkImage@@@std@@PAX@std@@AAPAU12@@std@@YAXAAPAU?$_Tree_node@U?$pair@$$CBKPAVCGuildMarkImage@@@std@@PAX@0@0@Z ; std::_Construct_in_place<std::_Tree_node<std::pair<unsigned long const ,CGuildMarkImage *>,void *> *,std::_Tree_node<std::pair<unsigned long const ,CGuildMarkImage *>,void *> * &>
PUBLIC	??$construct@U?$pair@$$CBKPAVCGuildMarkImage@@@std@@U12@@?$_Default_allocator_traits@V?$allocator@U?$_Tree_node@U?$pair@$$CBKPAVCGuildMarkImage@@@std@@PAX@std@@@std@@@std@@SAXAAV?$allocator@U?$_Tree_node@U?$pair@$$CBKPAVCGuildMarkImage@@@std@@PAX@std@@@1@QAU?$pair@$$CBKPAVCGuildMarkImage@@@1@$$QAU31@@Z ; std::_Default_allocator_traits<std::allocator<std::_Tree_node<std::pair<unsigned long const ,CGuildMarkImage *>,void *> > >::construct<std::pair<unsigned long const ,CGuildMarkImage *>,std::pair<unsigned long const ,CGuildMarkImage *> >
PUBLIC	??$_Kfn@$$CBKPAVCGuildMarkImage@@@?$_Tmap_traits@KPAVCGuildMarkImage@@U?$less@K@std@@V?$allocator@U?$pair@$$CBKPAVCGuildMarkImage@@@std@@@3@$0A@@std@@SAABKABU?$pair@$$CBKPAVCGuildMarkImage@@@1@@Z ; std::_Tmap_traits<unsigned long,CGuildMarkImage *,std::less<unsigned long>,std::allocator<std::pair<unsigned long const ,CGuildMarkImage *> >,0>::_Kfn<unsigned long const ,CGuildMarkImage *>
PUBLIC	??$?0$$V@?$_Compressed_pair@V?$allocator@U?$_Tree_node@U?$pair@$$CBKPAVCGuildMarkImage@@@std@@PAX@std@@@std@@V?$_Tree_val@U?$_Tree_simple_types@U?$pair@$$CBKPAVCGuildMarkImage@@@std@@@std@@@2@$00@std@@QAE@U_Zero_then_variadic_args_t@1@@Z ; std::_Compressed_pair<std::allocator<std::_Tree_node<std::pair<unsigned long const ,CGuildMarkImage *>,void *> >,std::_Tree_val<std::_Tree_simple_types<std::pair<unsigned long const ,CGuildMarkImage *> > >,1>::_Compressed_pair<std::allocator<std::_Tree_node<std::pair<unsigned long const ,CGuildMarkImage *>,void *> >,std::_Tree_val<std::_Tree_simple_types<std::pair<unsigned long const ,CGuildMarkImage *> > >,1><>
PUBLIC	??$?0$$V@?$_Compressed_pair@V?$allocator@U?$_Tree_node@U?$pair@$$CBKUTGuildSymbol@CGuildMarkManager@@@std@@PAX@std@@@std@@V?$_Tree_val@U?$_Tree_simple_types@U?$pair@$$CBKUTGuildSymbol@CGuildMarkManager@@@std@@@std@@@2@$00@std@@QAE@U_Zero_then_variadic_args_t@1@@Z ; std::_Compressed_pair<std::allocator<std::_Tree_node<std::pair<unsigned long const ,CGuildMarkManager::TGuildSymbol>,void *> >,std::_Tree_val<std::_Tree_simple_types<std::pair<unsigned long const ,CGuildMarkManager::TGuildSymbol> > >,1>::_Compressed_pair<std::allocator<std::_Tree_node<std::pair<unsigned long const ,CGuildMarkManager::TGuildSymbol>,void *> >,std::_Tree_val<std::_Tree_simple_types<std::pair<unsigned long const ,CGuildMarkManager::TGuildSymbol> > >,1><>
PUBLIC	??1?$_Tree_temp_node_alloc@V?$allocator@U?$_Tree_node@U?$pair@$$CBKUTGuildSymbol@CGuildMarkManager@@@std@@PAX@std@@@std@@@std@@QAE@XZ ; std::_Tree_temp_node_alloc<std::allocator<std::_Tree_node<std::pair<unsigned long const ,CGuildMarkManager::TGuildSymbol>,void *> > >::~_Tree_temp_node_alloc<std::allocator<std::_Tree_node<std::pair<unsigned long const ,CGuildMarkManager::TGuildSymbol>,void *> > >
PUBLIC	??1?$_Tree_temp_node_alloc@V?$allocator@U?$_Tree_node@U?$pair@$$CBKPAVCGuildMarkImage@@@std@@PAX@std@@@std@@@std@@QAE@XZ ; std::_Tree_temp_node_alloc<std::allocator<std::_Tree_node<std::pair<unsigned long const ,CGuildMarkImage *>,void *> > >::~_Tree_temp_node_alloc<std::allocator<std::_Tree_node<std::pair<unsigned long const ,CGuildMarkImage *>,void *> > >
PUBLIC	?_Change_array@?$vector@EV?$allocator@E@std@@@std@@AAEXQAEII@Z ; std::vector<unsigned char,std::allocator<unsigned char> >::_Change_array
PUBLIC	?_Orphan_range@?$vector@EV?$allocator@E@std@@@std@@ABEXPAE0@Z ; std::vector<unsigned char,std::allocator<unsigned char> >::_Orphan_range
PUBLIC	??1_Simple_reallocation_guard@?$vector@EV?$allocator@E@std@@@std@@QAE@XZ ; std::vector<unsigned char,std::allocator<unsigned char> >::_Simple_reallocation_guard::~_Simple_reallocation_guard
PUBLIC	?_Check_grow_by_1@?$_Tree@V?$_Tmap_traits@KPAVCGuildMarkImage@@U?$less@K@std@@V?$allocator@U?$pair@$$CBKPAVCGuildMarkImage@@@std@@@3@$0A@@std@@@std@@IAEXXZ ; std::_Tree<std::_Tmap_traits<unsigned long,CGuildMarkImage *,std::less<unsigned long>,std::allocator<std::pair<unsigned long const ,CGuildMarkImage *> >,0> >::_Check_grow_by_1
PUBLIC	?_Alloc_sentinel_and_proxy@?$_Tree@V?$_Tmap_traits@KPAVCGuildMarkImage@@U?$less@K@std@@V?$allocator@U?$pair@$$CBKPAVCGuildMarkImage@@@std@@@3@$0A@@std@@@std@@IAEXXZ ; std::_Tree<std::_Tmap_traits<unsigned long,CGuildMarkImage *,std::less<unsigned long>,std::allocator<std::pair<unsigned long const ,CGuildMarkImage *> >,0> >::_Alloc_sentinel_and_proxy
PUBLIC	?_Insert_node@?$_Tree_val@U?$_Tree_simple_types@U?$pair@$$CBKPAVCGuildMarkImage@@@std@@@std@@@std@@QAEPAU?$_Tree_node@U?$pair@$$CBKPAVCGuildMarkImage@@@std@@PAX@2@U?$_Tree_id@PAU?$_Tree_node@U?$pair@$$CBKPAVCGuildMarkImage@@@std@@PAX@std@@@2@QAU32@@Z ; std::_Tree_val<std::_Tree_simple_types<std::pair<unsigned long const ,CGuildMarkImage *> > >::_Insert_node
PUBLIC	??D?$_Tree_const_iterator@V?$_Tree_val@U?$_Tree_simple_types@U?$pair@$$CBKPAVCGuildMarkImage@@@std@@@std@@@std@@@std@@QBEABU?$pair@$$CBKPAVCGuildMarkImage@@@1@XZ ; std::_Tree_const_iterator<std::_Tree_val<std::_Tree_simple_types<std::pair<unsigned long const ,CGuildMarkImage *> > > >::operator*
PUBLIC	??E?$_Tree_unchecked_const_iterator@V?$_Tree_val@U?$_Tree_simple_types@U?$pair@$$CBKPAVCGuildMarkImage@@@std@@@std@@@std@@U_Iterator_base0@2@@std@@QAEAAV01@XZ ; std::_Tree_unchecked_const_iterator<std::_Tree_val<std::_Tree_simple_types<std::pair<unsigned long const ,CGuildMarkImage *> > >,std::_Iterator_base0>::operator++
PUBLIC	?_Get_first@?$_Compressed_pair@V?$allocator@U?$_Tree_node@U?$pair@$$CBKPAVCGuildMarkImage@@@std@@PAX@std@@@std@@V?$_Tree_val@U?$_Tree_simple_types@U?$pair@$$CBKPAVCGuildMarkImage@@@std@@@std@@@2@$00@std@@QAEAAV?$allocator@U?$_Tree_node@U?$pair@$$CBKPAVCGuildMarkImage@@@std@@PAX@std@@@2@XZ ; std::_Compressed_pair<std::allocator<std::_Tree_node<std::pair<unsigned long const ,CGuildMarkImage *>,void *> >,std::_Tree_val<std::_Tree_simple_types<std::pair<unsigned long const ,CGuildMarkImage *> > >,1>::_Get_first
PUBLIC	?_Alloc_sentinel_and_proxy@?$_Tree@V?$_Tmap_traits@KUTGuildSymbol@CGuildMarkManager@@U?$less@K@std@@V?$allocator@U?$pair@$$CBKUTGuildSymbol@CGuildMarkManager@@@std@@@4@$0A@@std@@@std@@IAEXXZ ; std::_Tree<std::_Tmap_traits<unsigned long,CGuildMarkManager::TGuildSymbol,std::less<unsigned long>,std::allocator<std::pair<unsigned long const ,CGuildMarkManager::TGuildSymbol> >,0> >::_Alloc_sentinel_and_proxy
PUBLIC	?_Get_first@?$_Compressed_pair@V?$allocator@U?$_Tree_node@U?$pair@$$CBKUTGuildSymbol@CGuildMarkManager@@@std@@PAX@std@@@std@@V?$_Tree_val@U?$_Tree_simple_types@U?$pair@$$CBKUTGuildSymbol@CGuildMarkManager@@@std@@@std@@@2@$00@std@@QAEAAV?$allocator@U?$_Tree_node@U?$pair@$$CBKUTGuildSymbol@CGuildMarkManager@@@std@@PAX@std@@@2@XZ ; std::_Compressed_pair<std::allocator<std::_Tree_node<std::pair<unsigned long const ,CGuildMarkManager::TGuildSymbol>,void *> >,std::_Tree_val<std::_Tree_simple_types<std::pair<unsigned long const ,CGuildMarkManager::TGuildSymbol> > >,1>::_Get_first
PUBLIC	?_Extract@?$_In_place_key_extract_map_impl@KU?$pair@$$CBKPAVCGuildMarkImage@@@std@@@std@@SAABKABU?$pair@$$CBKPAVCGuildMarkImage@@@2@@Z ; std::_In_place_key_extract_map_impl<unsigned long,std::pair<unsigned long const ,CGuildMarkImage *> >::_Extract
PUBLIC	??1?$_Tree_temp_node@V?$allocator@U?$_Tree_node@U?$pair@$$CBKPAVCGuildMarkImage@@@std@@PAX@std@@@std@@@std@@QAE@XZ ; std::_Tree_temp_node<std::allocator<std::_Tree_node<std::pair<unsigned long const ,CGuildMarkImage *>,void *> > >::~_Tree_temp_node<std::allocator<std::_Tree_node<std::pair<unsigned long const ,CGuildMarkImage *>,void *> > >
PUBLIC	?_Release@?$_Alloc_construct_ptr@V?$allocator@U?$_Tree_node@U?$pair@$$CBKPAVCGuildMarkImage@@@std@@PAX@std@@@std@@@std@@QAEPAU?$_Tree_node@U?$pair@$$CBKPAVCGuildMarkImage@@@std@@PAX@2@XZ ; std::_Alloc_construct_ptr<std::allocator<std::_Tree_node<std::pair<unsigned long const ,CGuildMarkImage *>,void *> > >::_Release
PUBLIC	??1?$_Tree_temp_node@V?$allocator@U?$_Tree_node@U?$pair@$$CBKUTGuildSymbol@CGuildMarkManager@@@std@@PAX@std@@@std@@@std@@QAE@XZ ; std::_Tree_temp_node<std::allocator<std::_Tree_node<std::pair<unsigned long const ,CGuildMarkManager::TGuildSymbol>,void *> > >::~_Tree_temp_node<std::allocator<std::_Tree_node<std::pair<unsigned long const ,CGuildMarkManager::TGuildSymbol>,void *> > >
PUBLIC	??$?0ABU?$less@K@std@@U_Zero_then_variadic_args_t@1@@?$_Compressed_pair@U?$less@K@std@@V?$_Compressed_pair@V?$allocator@U?$_Tree_node@U?$pair@$$CBKPAVCGuildMarkImage@@@std@@PAX@std@@@std@@V?$_Tree_val@U?$_Tree_simple_types@U?$pair@$$CBKPAVCGuildMarkImage@@@std@@@std@@@2@$00@2@$00@std@@QAE@U_One_then_variadic_args_t@1@ABU?$less@K@1@$$QAU_Zero_then_variadic_args_t@1@@Z ; std::_Compressed_pair<std::less<unsigned long>,std::_Compressed_pair<std::allocator<std::_Tree_node<std::pair<unsigned long const ,CGuildMarkImage *>,void *> >,std::_Tree_val<std::_Tree_simple_types<std::pair<unsigned long const ,CGuildMarkImage *> > >,1>,1>::_Compressed_pair<std::less<unsigned long>,std::_Compressed_pair<std::allocator<std::_Tree_node<std::pair<unsigned long const ,CGuildMarkImage *>,void *> >,std::_Tree_val<std::_Tree_simple_types<std::pair<unsigned long const ,CGuildMarkImage *> > >,1>,1><std::less<unsigned long> const &,std::_Zero_then_variadic_args_t>
PUBLIC	??$addressof@V?$_Tree_val@U?$_Tree_simple_types@U?$pair@$$CBKPAVCGuildMarkImage@@@std@@@std@@@std@@@std@@YAPAV?$_Tree_val@U?$_Tree_simple_types@U?$pair@$$CBKPAVCGuildMarkImage@@@std@@@std@@@0@AAV10@@Z ; std::addressof<std::_Tree_val<std::_Tree_simple_types<std::pair<unsigned long const ,CGuildMarkImage *> > > >
PUBLIC	??$addressof@$$CBV?$_Tree_val@U?$_Tree_simple_types@U?$pair@$$CBKPAVCGuildMarkImage@@@std@@@std@@@std@@@std@@YAPBV?$_Tree_val@U?$_Tree_simple_types@U?$pair@$$CBKPAVCGuildMarkImage@@@std@@@std@@@0@ABV10@@Z ; std::addressof<std::_Tree_val<std::_Tree_simple_types<std::pair<unsigned long const ,CGuildMarkImage *> > > const >
PUBLIC	??$?0ABU?$less@K@std@@U_Zero_then_variadic_args_t@1@@?$_Compressed_pair@U?$less@K@std@@V?$_Compressed_pair@V?$allocator@U?$_Tree_node@U?$pair@$$CBKUTGuildSymbol@CGuildMarkManager@@@std@@PAX@std@@@std@@V?$_Tree_val@U?$_Tree_simple_types@U?$pair@$$CBKUTGuildSymbol@CGuildMarkManager@@@std@@@std@@@2@$00@2@$00@std@@QAE@U_One_then_variadic_args_t@1@ABU?$less@K@1@$$QAU_Zero_then_variadic_args_t@1@@Z ; std::_Compressed_pair<std::less<unsigned long>,std::_Compressed_pair<std::allocator<std::_Tree_node<std::pair<unsigned long const ,CGuildMarkManager::TGuildSymbol>,void *> >,std::_Tree_val<std::_Tree_simple_types<std::pair<unsigned long const ,CGuildMarkManager::TGuildSymbol> > >,1>,1>::_Compressed_pair<std::less<unsigned long>,std::_Compressed_pair<std::allocator<std::_Tree_node<std::pair<unsigned long const ,CGuildMarkManager::TGuildSymbol>,void *> >,std::_Tree_val<std::_Tree_simple_types<std::pair<unsigned long const ,CGuildMarkManager::TGuildSymbol> > >,1>,1><std::less<unsigned long> const &,std::_Zero_then_variadic_args_t>
PUBLIC	??$addressof@V?$_Tree_val@U?$_Tree_simple_types@U?$pair@$$CBKUTGuildSymbol@CGuildMarkManager@@@std@@@std@@@std@@@std@@YAPAV?$_Tree_val@U?$_Tree_simple_types@U?$pair@$$CBKUTGuildSymbol@CGuildMarkManager@@@std@@@std@@@0@AAV10@@Z ; std::addressof<std::_Tree_val<std::_Tree_simple_types<std::pair<unsigned long const ,CGuildMarkManager::TGuildSymbol> > > >
PUBLIC	??$addressof@U?$pair@$$CBKUTGuildSymbol@CGuildMarkManager@@@std@@@std@@YAPAU?$pair@$$CBKUTGuildSymbol@CGuildMarkManager@@@0@AAU10@@Z ; std::addressof<std::pair<unsigned long const ,CGuildMarkManager::TGuildSymbol> >
PUBLIC	??$addressof@U?$pair@$$CBKPAVCGuildMarkImage@@@std@@@std@@YAPAU?$pair@$$CBKPAVCGuildMarkImage@@@0@AAU10@@Z ; std::addressof<std::pair<unsigned long const ,CGuildMarkImage *> >
PUBLIC	??$_Uninitialized_value_construct_n@V?$allocator@E@std@@@std@@YAPAEPAEIAAV?$allocator@E@0@@Z ; std::_Uninitialized_value_construct_n<std::allocator<unsigned char> >
PUBLIC	??$_Resize_reallocate@U_Value_init_tag@std@@@?$vector@EV?$allocator@E@std@@@std@@AAEXIABU_Value_init_tag@1@@Z ; std::vector<unsigned char,std::allocator<unsigned char> >::_Resize_reallocate<std::_Value_init_tag>
PUBLIC	??$_Uninitialized_move@PAEV?$allocator@E@std@@@std@@YAPAEQAE0PAEAAV?$allocator@E@0@@Z ; std::_Uninitialized_move<unsigned char *,std::allocator<unsigned char> >
PUBLIC	??$_Get_unwrapped@ABQAE@std@@YA?A_TABQAE@Z	; std::_Get_unwrapped<unsigned char * const &>
PUBLIC	??$_Freenode0@V?$allocator@U?$_Tree_node@U?$pair@$$CBKPAVCGuildMarkImage@@@std@@PAX@std@@@std@@@?$_Tree_node@U?$pair@$$CBKPAVCGuildMarkImage@@@std@@PAX@std@@SAXAAV?$allocator@U?$_Tree_node@U?$pair@$$CBKPAVCGuildMarkImage@@@std@@PAX@std@@@1@PAU01@@Z ; std::_Tree_node<std::pair<unsigned long const ,CGuildMarkImage *>,void *>::_Freenode0<std::allocator<std::_Tree_node<std::pair<unsigned long const ,CGuildMarkImage *>,void *> > >
PUBLIC	??$_Freenode@V?$allocator@U?$_Tree_node@U?$pair@$$CBKPAVCGuildMarkImage@@@std@@PAX@std@@@std@@@?$_Tree_node@U?$pair@$$CBKPAVCGuildMarkImage@@@std@@PAX@std@@SAXAAV?$allocator@U?$_Tree_node@U?$pair@$$CBKPAVCGuildMarkImage@@@std@@PAX@std@@@1@PAU01@@Z ; std::_Tree_node<std::pair<unsigned long const ,CGuildMarkImage *>,void *>::_Freenode<std::allocator<std::_Tree_node<std::pair<unsigned long const ,CGuildMarkImage *>,void *> > >
PUBLIC	??$exchange@PAU?$_Tree_node@U?$pair@$$CBKPAVCGuildMarkImage@@@std@@PAX@std@@AAPAU12@@std@@YAPAU?$_Tree_node@U?$pair@$$CBKPAVCGuildMarkImage@@@std@@PAX@0@AAPAU10@0@Z ; std::exchange<std::_Tree_node<std::pair<unsigned long const ,CGuildMarkImage *>,void *> *,std::_Tree_node<std::pair<unsigned long const ,CGuildMarkImage *>,void *> * &>
PUBLIC	??$forward_as_tuple@$$V@std@@YA?AV?$tuple@$$V@0@XZ ; std::forward_as_tuple<>
PUBLIC	??$forward_as_tuple@ABK@std@@YA?AV?$tuple@ABK@0@ABK@Z ; std::forward_as_tuple<unsigned long const &>
PUBLIC	??$_Freenode0@V?$allocator@U?$_Tree_node@U?$pair@$$CBKUTGuildSymbol@CGuildMarkManager@@@std@@PAX@std@@@std@@@?$_Tree_node@U?$pair@$$CBKUTGuildSymbol@CGuildMarkManager@@@std@@PAX@std@@SAXAAV?$allocator@U?$_Tree_node@U?$pair@$$CBKUTGuildSymbol@CGuildMarkManager@@@std@@PAX@std@@@1@PAU01@@Z ; std::_Tree_node<std::pair<unsigned long const ,CGuildMarkManager::TGuildSymbol>,void *>::_Freenode0<std::allocator<std::_Tree_node<std::pair<unsigned long const ,CGuildMarkManager::TGuildSymbol>,void *> > >
PUBLIC	??$_Erase_tree@V?$allocator@U?$_Tree_node@U?$pair@$$CBKUTGuildSymbol@CGuildMarkManager@@@std@@PAX@std@@@std@@@?$_Tree_val@U?$_Tree_simple_types@U?$pair@$$CBKUTGuildSymbol@CGuildMarkManager@@@std@@@std@@@std@@QAEXAAV?$allocator@U?$_Tree_node@U?$pair@$$CBKUTGuildSymbol@CGuildMarkManager@@@std@@PAX@std@@@1@PAU?$_Tree_node@U?$pair@$$CBKUTGuildSymbol@CGuildMarkManager@@@std@@PAX@1@@Z ; std::_Tree_val<std::_Tree_simple_types<std::pair<unsigned long const ,CGuildMarkManager::TGuildSymbol> > >::_Erase_tree<std::allocator<std::_Tree_node<std::pair<unsigned long const ,CGuildMarkManager::TGuildSymbol>,void *> > >
PUBLIC	??$forward@V?$_Tree_iterator@V?$_Tree_val@U?$_Tree_simple_types@U?$pair@$$CBKPAVCGuildMarkImage@@@std@@@std@@@std@@@std@@@std@@YA$$QAV?$_Tree_iterator@V?$_Tree_val@U?$_Tree_simple_types@U?$pair@$$CBKPAVCGuildMarkImage@@@std@@@std@@@std@@@0@AAV10@@Z ; std::forward<std::_Tree_iterator<std::_Tree_val<std::_Tree_simple_types<std::pair<unsigned long const ,CGuildMarkImage *> > > > >
PUBLIC	??$?0PAU?$_Tree_node@U?$pair@$$CBKPAVCGuildMarkImage@@@std@@PAX@std@@_N$0A@@?$pair@PAU?$_Tree_node@U?$pair@$$CBKPAVCGuildMarkImage@@@std@@PAX@std@@_N@std@@QAE@$$QAPAU?$_Tree_node@U?$pair@$$CBKPAVCGuildMarkImage@@@std@@PAX@1@$$QA_N@Z ; std::pair<std::_Tree_node<std::pair<unsigned long const ,CGuildMarkImage *>,void *> *,bool>::pair<std::_Tree_node<std::pair<unsigned long const ,CGuildMarkImage *>,void *> *,bool><std::_Tree_node<std::pair<unsigned long const ,CGuildMarkImage *>,void *> *,bool,0>
PUBLIC	??$?0AAPAU?$_Tree_node@U?$pair@$$CBKPAVCGuildMarkImage@@@std@@PAX@std@@_N$0A@@?$pair@PAU?$_Tree_node@U?$pair@$$CBKPAVCGuildMarkImage@@@std@@PAX@std@@_N@std@@QAE@AAPAU?$_Tree_node@U?$pair@$$CBKPAVCGuildMarkImage@@@std@@PAX@1@$$QA_N@Z ; std::pair<std::_Tree_node<std::pair<unsigned long const ,CGuildMarkImage *>,void *> *,bool>::pair<std::_Tree_node<std::pair<unsigned long const ,CGuildMarkImage *>,void *> *,bool><std::_Tree_node<std::pair<unsigned long const ,CGuildMarkImage *>,void *> * &,bool,0>
PUBLIC	??$?0U?$pair@$$CBKPAVCGuildMarkImage@@@std@@@?$_Tree_temp_node@V?$allocator@U?$_Tree_node@U?$pair@$$CBKPAVCGuildMarkImage@@@std@@PAX@std@@@std@@@std@@QAE@AAV?$allocator@U?$_Tree_node@U?$pair@$$CBKPAVCGuildMarkImage@@@std@@PAX@std@@@1@PAU?$_Tree_node@U?$pair@$$CBKPAVCGuildMarkImage@@@std@@PAX@1@$$QAU?$pair@$$CBKPAVCGuildMarkImage@@@1@@Z ; std::_Tree_temp_node<std::allocator<std::_Tree_node<std::pair<unsigned long const ,CGuildMarkImage *>,void *> > >::_Tree_temp_node<std::allocator<std::_Tree_node<std::pair<unsigned long const ,CGuildMarkImage *>,void *> > ><std::pair<unsigned long const ,CGuildMarkImage *> >
PUBLIC	??$forward@U?$pair@$$CBKPAVCGuildMarkImage@@@std@@@std@@YA$$QAU?$pair@$$CBKPAVCGuildMarkImage@@@0@AAU10@@Z ; std::forward<std::pair<unsigned long const ,CGuildMarkImage *> >
PUBLIC	??$_Lower_bound_duplicate@K@?$_Tree@V?$_Tmap_traits@KPAVCGuildMarkImage@@U?$less@K@std@@V?$allocator@U?$pair@$$CBKPAVCGuildMarkImage@@@std@@@3@$0A@@std@@@std@@IBE_NQAU?$_Tree_node@U?$pair@$$CBKPAVCGuildMarkImage@@@std@@PAX@1@ABK@Z ; std::_Tree<std::_Tmap_traits<unsigned long,CGuildMarkImage *,std::less<unsigned long>,std::allocator<std::pair<unsigned long const ,CGuildMarkImage *> >,0> >::_Lower_bound_duplicate<unsigned long>
PUBLIC	??$_Find_lower_bound@K@?$_Tree@V?$_Tmap_traits@KPAVCGuildMarkImage@@U?$less@K@std@@V?$allocator@U?$pair@$$CBKPAVCGuildMarkImage@@@std@@@3@$0A@@std@@@std@@IBE?AU?$_Tree_find_result@PAU?$_Tree_node@U?$pair@$$CBKPAVCGuildMarkImage@@@std@@PAX@std@@@1@ABK@Z ; std::_Tree<std::_Tmap_traits<unsigned long,CGuildMarkImage *,std::less<unsigned long>,std::allocator<std::pair<unsigned long const ,CGuildMarkImage *> >,0> >::_Find_lower_bound<unsigned long>
PUBLIC	?capacity@?$vector@EV?$allocator@E@std@@@std@@QBEIXZ ; std::vector<unsigned char,std::allocator<unsigned char> >::capacity
PUBLIC	??0?$_Tree@V?$_Tmap_traits@KPAVCGuildMarkImage@@U?$less@K@std@@V?$allocator@U?$pair@$$CBKPAVCGuildMarkImage@@@std@@@3@$0A@@std@@@std@@QAE@ABU?$less@K@1@@Z ; std::_Tree<std::_Tmap_traits<unsigned long,CGuildMarkImage *,std::less<unsigned long>,std::allocator<std::pair<unsigned long const ,CGuildMarkImage *> >,0> >::_Tree<std::_Tmap_traits<unsigned long,CGuildMarkImage *,std::less<unsigned long>,std::allocator<std::pair<unsigned long const ,CGuildMarkImage *> >,0> >
PUBLIC	?_Getal@?$_Tree@V?$_Tmap_traits@KPAVCGuildMarkImage@@U?$less@K@std@@V?$allocator@U?$pair@$$CBKPAVCGuildMarkImage@@@std@@@3@$0A@@std@@@std@@IAEAAV?$allocator@U?$_Tree_node@U?$pair@$$CBKPAVCGuildMarkImage@@@std@@PAX@std@@@2@XZ ; std::_Tree<std::_Tmap_traits<unsigned long,CGuildMarkImage *,std::less<unsigned long>,std::allocator<std::pair<unsigned long const ,CGuildMarkImage *> >,0> >::_Getal
PUBLIC	?_Get_scary@?$_Tree@V?$_Tmap_traits@KPAVCGuildMarkImage@@U?$less@K@std@@V?$allocator@U?$pair@$$CBKPAVCGuildMarkImage@@@std@@@3@$0A@@std@@@std@@IAEPAV?$_Tree_val@U?$_Tree_simple_types@U?$pair@$$CBKPAVCGuildMarkImage@@@std@@@std@@@2@XZ ; std::_Tree<std::_Tmap_traits<unsigned long,CGuildMarkImage *,std::less<unsigned long>,std::allocator<std::pair<unsigned long const ,CGuildMarkImage *> >,0> >::_Get_scary
PUBLIC	?_Get_scary@?$_Tree@V?$_Tmap_traits@KPAVCGuildMarkImage@@U?$less@K@std@@V?$allocator@U?$pair@$$CBKPAVCGuildMarkImage@@@std@@@3@$0A@@std@@@std@@IBEPBV?$_Tree_val@U?$_Tree_simple_types@U?$pair@$$CBKPAVCGuildMarkImage@@@std@@@std@@@2@XZ ; std::_Tree<std::_Tmap_traits<unsigned long,CGuildMarkImage *,std::less<unsigned long>,std::allocator<std::pair<unsigned long const ,CGuildMarkImage *> >,0> >::_Get_scary
PUBLIC	?_Orphan_ptr@?$_Tree_val@U?$_Tree_simple_types@U?$pair@$$CBKPAVCGuildMarkImage@@@std@@@std@@@std@@QAEXQAU?$_Tree_node@U?$pair@$$CBKPAVCGuildMarkImage@@@std@@PAX@2@@Z ; std::_Tree_val<std::_Tree_simple_types<std::pair<unsigned long const ,CGuildMarkImage *> > >::_Orphan_ptr
PUBLIC	??E?$_Tree_const_iterator@V?$_Tree_val@U?$_Tree_simple_types@U?$pair@$$CBKPAVCGuildMarkImage@@@std@@@std@@@std@@@std@@QAEAAV01@XZ ; std::_Tree_const_iterator<std::_Tree_val<std::_Tree_simple_types<std::pair<unsigned long const ,CGuildMarkImage *> > > >::operator++
PUBLIC	??D?$_Tree_iterator@V?$_Tree_val@U?$_Tree_simple_types@U?$pair@$$CBKPAVCGuildMarkImage@@@std@@@std@@@std@@@std@@QBEAAU?$pair@$$CBKPAVCGuildMarkImage@@@1@XZ ; std::_Tree_iterator<std::_Tree_val<std::_Tree_simple_types<std::pair<unsigned long const ,CGuildMarkImage *> > > >::operator*
PUBLIC	??0?$_Tree_unchecked_const_iterator@V?$_Tree_val@U?$_Tree_simple_types@U?$pair@$$CBKPAVCGuildMarkImage@@@std@@@std@@@std@@U_Iterator_base0@2@@std@@QAE@PAU?$_Tree_node@U?$pair@$$CBKPAVCGuildMarkImage@@@std@@PAX@1@PBV?$_Tree_val@U?$_Tree_simple_types@U?$pair@$$CBKPAVCGuildMarkImage@@@std@@@std@@@1@@Z ; std::_Tree_unchecked_const_iterator<std::_Tree_val<std::_Tree_simple_types<std::pair<unsigned long const ,CGuildMarkImage *> > >,std::_Iterator_base0>::_Tree_unchecked_const_iterator<std::_Tree_val<std::_Tree_simple_types<std::pair<unsigned long const ,CGuildMarkImage *> > >,std::_Iterator_base0>
PUBLIC	??0?$_Tree@V?$_Tmap_traits@KUTGuildSymbol@CGuildMarkManager@@U?$less@K@std@@V?$allocator@U?$pair@$$CBKUTGuildSymbol@CGuildMarkManager@@@std@@@4@$0A@@std@@@std@@QAE@ABU?$less@K@1@@Z ; std::_Tree<std::_Tmap_traits<unsigned long,CGuildMarkManager::TGuildSymbol,std::less<unsigned long>,std::allocator<std::pair<unsigned long const ,CGuildMarkManager::TGuildSymbol> >,0> >::_Tree<std::_Tmap_traits<unsigned long,CGuildMarkManager::TGuildSymbol,std::less<unsigned long>,std::allocator<std::pair<unsigned long const ,CGuildMarkManager::TGuildSymbol> >,0> >
PUBLIC	?_Getal@?$_Tree@V?$_Tmap_traits@KUTGuildSymbol@CGuildMarkManager@@U?$less@K@std@@V?$allocator@U?$pair@$$CBKUTGuildSymbol@CGuildMarkManager@@@std@@@4@$0A@@std@@@std@@IAEAAV?$allocator@U?$_Tree_node@U?$pair@$$CBKUTGuildSymbol@CGuildMarkManager@@@std@@PAX@std@@@2@XZ ; std::_Tree<std::_Tmap_traits<unsigned long,CGuildMarkManager::TGuildSymbol,std::less<unsigned long>,std::allocator<std::pair<unsigned long const ,CGuildMarkManager::TGuildSymbol> >,0> >::_Getal
PUBLIC	?_Get_scary@?$_Tree@V?$_Tmap_traits@KUTGuildSymbol@CGuildMarkManager@@U?$less@K@std@@V?$allocator@U?$pair@$$CBKUTGuildSymbol@CGuildMarkManager@@@std@@@4@$0A@@std@@@std@@IAEPAV?$_Tree_val@U?$_Tree_simple_types@U?$pair@$$CBKUTGuildSymbol@CGuildMarkManager@@@std@@@std@@@2@XZ ; std::_Tree<std::_Tmap_traits<unsigned long,CGuildMarkManager::TGuildSymbol,std::less<unsigned long>,std::allocator<std::pair<unsigned long const ,CGuildMarkManager::TGuildSymbol> >,0> >::_Get_scary
PUBLIC	?pointer_to@?$pointer_traits@PAU?$pair@$$CBKPAVCGuildMarkImage@@@std@@@std@@SAPAU?$pair@$$CBKPAVCGuildMarkImage@@@2@AAU32@@Z ; std::pointer_traits<std::pair<unsigned long const ,CGuildMarkImage *> *>::pointer_to
PUBLIC	??$?0$$V@?$_Compressed_pair@V?$allocator@E@std@@V?$_Vector_val@U?$_Simple_types@E@std@@@2@$00@std@@QAE@U_Zero_then_variadic_args_t@1@@Z ; std::_Compressed_pair<std::allocator<unsigned char>,std::_Vector_val<std::_Simple_types<unsigned char> >,1>::_Compressed_pair<std::allocator<unsigned char>,std::_Vector_val<std::_Simple_types<unsigned char> >,1><>
PUBLIC	??$_Resize@U_Value_init_tag@std@@@?$vector@EV?$allocator@E@std@@@std@@AAEXIABU_Value_init_tag@1@@Z ; std::vector<unsigned char,std::allocator<unsigned char> >::_Resize<std::_Value_init_tag>
PUBLIC	??$_Erase_head@V?$allocator@U?$_Tree_node@U?$pair@$$CBKPAVCGuildMarkImage@@@std@@PAX@std@@@std@@@?$_Tree_val@U?$_Tree_simple_types@U?$pair@$$CBKPAVCGuildMarkImage@@@std@@@std@@@std@@QAEXAAV?$allocator@U?$_Tree_node@U?$pair@$$CBKPAVCGuildMarkImage@@@std@@PAX@std@@@1@@Z ; std::_Tree_val<std::_Tree_simple_types<std::pair<unsigned long const ,CGuildMarkImage *> > >::_Erase_head<std::allocator<std::_Tree_node<std::pair<unsigned long const ,CGuildMarkImage *>,void *> > >
PUBLIC	??$_Erase_tree@V?$allocator@U?$_Tree_node@U?$pair@$$CBKPAVCGuildMarkImage@@@std@@PAX@std@@@std@@@?$_Tree_val@U?$_Tree_simple_types@U?$pair@$$CBKPAVCGuildMarkImage@@@std@@@std@@@std@@QAEXAAV?$allocator@U?$_Tree_node@U?$pair@$$CBKPAVCGuildMarkImage@@@std@@PAX@std@@@1@PAU?$_Tree_node@U?$pair@$$CBKPAVCGuildMarkImage@@@std@@PAX@1@@Z ; std::_Tree_val<std::_Tree_simple_types<std::pair<unsigned long const ,CGuildMarkImage *> > >::_Erase_tree<std::allocator<std::_Tree_node<std::pair<unsigned long const ,CGuildMarkImage *>,void *> > >
PUBLIC	??$_Find@K@?$_Tree@V?$_Tmap_traits@KPAVCGuildMarkImage@@U?$less@K@std@@V?$allocator@U?$pair@$$CBKPAVCGuildMarkImage@@@std@@@3@$0A@@std@@@std@@ABEPAU?$_Tree_node@U?$pair@$$CBKPAVCGuildMarkImage@@@std@@PAX@1@ABK@Z ; std::_Tree<std::_Tmap_traits<unsigned long,CGuildMarkImage *,std::less<unsigned long>,std::allocator<std::pair<unsigned long const ,CGuildMarkImage *> >,0> >::_Find<unsigned long>
PUBLIC	??$_Erase_head@V?$allocator@U?$_Tree_node@U?$pair@$$CBKUTGuildSymbol@CGuildMarkManager@@@std@@PAX@std@@@std@@@?$_Tree_val@U?$_Tree_simple_types@U?$pair@$$CBKUTGuildSymbol@CGuildMarkManager@@@std@@@std@@@std@@QAEXAAV?$allocator@U?$_Tree_node@U?$pair@$$CBKUTGuildSymbol@CGuildMarkManager@@@std@@PAX@std@@@1@@Z ; std::_Tree_val<std::_Tree_simple_types<std::pair<unsigned long const ,CGuildMarkManager::TGuildSymbol> > >::_Erase_head<std::allocator<std::_Tree_node<std::pair<unsigned long const ,CGuildMarkManager::TGuildSymbol>,void *> > >
PUBLIC	??$?0V?$_Tree_iterator@V?$_Tree_val@U?$_Tree_simple_types@U?$pair@$$CBKPAVCGuildMarkImage@@@std@@@std@@@std@@@std@@AB_N$0A@@?$pair@V?$_Tree_iterator@V?$_Tree_val@U?$_Tree_simple_types@U?$pair@$$CBKPAVCGuildMarkImage@@@std@@@std@@@std@@@std@@_N@std@@QAE@$$QAV?$_Tree_iterator@V?$_Tree_val@U?$_Tree_simple_types@U?$pair@$$CBKPAVCGuildMarkImage@@@std@@@std@@@std@@@1@AB_N@Z ; std::pair<std::_Tree_iterator<std::_Tree_val<std::_Tree_simple_types<std::pair<unsigned long const ,CGuildMarkImage *> > > >,bool>::pair<std::_Tree_iterator<std::_Tree_val<std::_Tree_simple_types<std::pair<unsigned long const ,CGuildMarkImage *> > > >,bool><std::_Tree_iterator<std::_Tree_val<std::_Tree_simple_types<std::pair<unsigned long const ,CGuildMarkImage *> > > >,bool const &,0>
PUBLIC	??$_Emplace@U?$pair@$$CBKPAVCGuildMarkImage@@@std@@@?$_Tree@V?$_Tmap_traits@KPAVCGuildMarkImage@@U?$less@K@std@@V?$allocator@U?$pair@$$CBKPAVCGuildMarkImage@@@std@@@3@$0A@@std@@@std@@IAE?AU?$pair@PAU?$_Tree_node@U?$pair@$$CBKPAVCGuildMarkImage@@@std@@PAX@std@@_N@1@$$QAU?$pair@$$CBKPAVCGuildMarkImage@@@1@@Z ; std::_Tree<std::_Tmap_traits<unsigned long,CGuildMarkImage *,std::less<unsigned long>,std::allocator<std::pair<unsigned long const ,CGuildMarkImage *> >,0> >::_Emplace<std::pair<unsigned long const ,CGuildMarkImage *> >
PUBLIC	??$move@AAU?$pair@$$CBKPAVCGuildMarkImage@@@std@@@std@@YA$$QAU?$pair@$$CBKPAVCGuildMarkImage@@@0@AAU10@@Z ; std::move<std::pair<unsigned long const ,CGuildMarkImage *> &>
PUBLIC	??$forward@AAPAVCGuildMarkImage@@@std@@YAAAPAVCGuildMarkImage@@AAPAV1@@Z ; std::forward<CGuildMarkImage * &>
PUBLIC	??0?$_Tree_const_iterator@V?$_Tree_val@U?$_Tree_simple_types@U?$pair@$$CBKPAVCGuildMarkImage@@@std@@@std@@@std@@@std@@QAE@PAU?$_Tree_node@U?$pair@$$CBKPAVCGuildMarkImage@@@std@@PAX@1@PBV?$_Tree_val@U?$_Tree_simple_types@U?$pair@$$CBKPAVCGuildMarkImage@@@std@@@std@@@1@@Z ; std::_Tree_const_iterator<std::_Tree_val<std::_Tree_simple_types<std::pair<unsigned long const ,CGuildMarkImage *> > > >::_Tree_const_iterator<std::_Tree_val<std::_Tree_simple_types<std::pair<unsigned long const ,CGuildMarkImage *> > > >
PUBLIC	??_G?$singleton@VCGuildMarkManager@@@@UAEPAXI@Z	; singleton<CGuildMarkManager>::`scalar deleting destructor'
PUBLIC	??0?$_Tree_iterator@V?$_Tree_val@U?$_Tree_simple_types@U?$pair@$$CBKPAVCGuildMarkImage@@@std@@@std@@@std@@@std@@QAE@PAU?$_Tree_node@U?$pair@$$CBKPAVCGuildMarkImage@@@std@@PAX@1@PBV?$_Tree_val@U?$_Tree_simple_types@U?$pair@$$CBKPAVCGuildMarkImage@@@std@@@std@@@1@@Z ; std::_Tree_iterator<std::_Tree_val<std::_Tree_simple_types<std::pair<unsigned long const ,CGuildMarkImage *> > > >::_Tree_iterator<std::_Tree_val<std::_Tree_simple_types<std::pair<unsigned long const ,CGuildMarkImage *> > > >
PUBLIC	??0?$vector@EV?$allocator@E@std@@@std@@QAE@XZ	; std::vector<unsigned char,std::allocator<unsigned char> >::vector<unsigned char,std::allocator<unsigned char> >
PUBLIC	?clear@?$vector@EV?$allocator@E@std@@@std@@QAEXXZ ; std::vector<unsigned char,std::allocator<unsigned char> >::clear
PUBLIC	?size@?$vector@EV?$allocator@E@std@@@std@@QBEIXZ ; std::vector<unsigned char,std::allocator<unsigned char> >::size
PUBLIC	??A?$vector@EV?$allocator@E@std@@@std@@QAEAAEI@Z ; std::vector<unsigned char,std::allocator<unsigned char> >::operator[]
PUBLIC	??0?$singleton@VCGuildMarkManager@@@@QAE@XZ	; singleton<CGuildMarkManager>::singleton<CGuildMarkManager>
PUBLIC	??1?$singleton@VCGuildMarkManager@@@@UAE@XZ	; singleton<CGuildMarkManager>::~singleton<CGuildMarkManager>
PUBLIC	??0?$map@KPAVCGuildMarkImage@@U?$less@K@std@@V?$allocator@U?$pair@$$CBKPAVCGuildMarkImage@@@std@@@3@@std@@QAE@XZ ; std::map<unsigned long,CGuildMarkImage *,std::less<unsigned long>,std::allocator<std::pair<unsigned long const ,CGuildMarkImage *> > >::map<unsigned long,CGuildMarkImage *,std::less<unsigned long>,std::allocator<std::pair<unsigned long const ,CGuildMarkImage *> > >
PUBLIC	??1?$_Tree@V?$_Tmap_traits@KPAVCGuildMarkImage@@U?$less@K@std@@V?$allocator@U?$pair@$$CBKPAVCGuildMarkImage@@@std@@@3@$0A@@std@@@std@@QAE@XZ ; std::_Tree<std::_Tmap_traits<unsigned long,CGuildMarkImage *,std::less<unsigned long>,std::allocator<std::pair<unsigned long const ,CGuildMarkImage *> >,0> >::~_Tree<std::_Tmap_traits<unsigned long,CGuildMarkImage *,std::less<unsigned long>,std::allocator<std::pair<unsigned long const ,CGuildMarkImage *> >,0> >
PUBLIC	?begin@?$_Tree@V?$_Tmap_traits@KPAVCGuildMarkImage@@U?$less@K@std@@V?$allocator@U?$pair@$$CBKPAVCGuildMarkImage@@@std@@@3@$0A@@std@@@std@@QAE?AV?$_Tree_iterator@V?$_Tree_val@U?$_Tree_simple_types@U?$pair@$$CBKPAVCGuildMarkImage@@@std@@@std@@@std@@@2@XZ ; std::_Tree<std::_Tmap_traits<unsigned long,CGuildMarkImage *,std::less<unsigned long>,std::allocator<std::pair<unsigned long const ,CGuildMarkImage *> >,0> >::begin
PUBLIC	?end@?$_Tree@V?$_Tmap_traits@KPAVCGuildMarkImage@@U?$less@K@std@@V?$allocator@U?$pair@$$CBKPAVCGuildMarkImage@@@std@@@3@$0A@@std@@@std@@QAE?AV?$_Tree_iterator@V?$_Tree_val@U?$_Tree_simple_types@U?$pair@$$CBKPAVCGuildMarkImage@@@std@@@std@@@std@@@2@XZ ; std::_Tree<std::_Tmap_traits<unsigned long,CGuildMarkImage *,std::less<unsigned long>,std::allocator<std::pair<unsigned long const ,CGuildMarkImage *> >,0> >::end
PUBLIC	?size@?$_Tree@V?$_Tmap_traits@KPAVCGuildMarkImage@@U?$less@K@std@@V?$allocator@U?$pair@$$CBKPAVCGuildMarkImage@@@std@@@3@$0A@@std@@@std@@QBEIXZ ; std::_Tree<std::_Tmap_traits<unsigned long,CGuildMarkImage *,std::less<unsigned long>,std::allocator<std::pair<unsigned long const ,CGuildMarkImage *> >,0> >::size
PUBLIC	?clear@?$_Tree@V?$_Tmap_traits@KPAVCGuildMarkImage@@U?$less@K@std@@V?$allocator@U?$pair@$$CBKPAVCGuildMarkImage@@@std@@@3@$0A@@std@@@std@@QAEXXZ ; std::_Tree<std::_Tmap_traits<unsigned long,CGuildMarkImage *,std::less<unsigned long>,std::allocator<std::pair<unsigned long const ,CGuildMarkImage *> >,0> >::clear
PUBLIC	?find@?$_Tree@V?$_Tmap_traits@KPAVCGuildMarkImage@@U?$less@K@std@@V?$allocator@U?$pair@$$CBKPAVCGuildMarkImage@@@std@@@3@$0A@@std@@@std@@QAE?AV?$_Tree_iterator@V?$_Tree_val@U?$_Tree_simple_types@U?$pair@$$CBKPAVCGuildMarkImage@@@std@@@std@@@std@@@2@ABK@Z ; std::_Tree<std::_Tmap_traits<unsigned long,CGuildMarkImage *,std::less<unsigned long>,std::allocator<std::pair<unsigned long const ,CGuildMarkImage *> >,0> >::find
PUBLIC	??8?$_Tree_const_iterator@V?$_Tree_val@U?$_Tree_simple_types@U?$pair@$$CBKPAVCGuildMarkImage@@@std@@@std@@@std@@@std@@QBE_NABV01@@Z ; std::_Tree_const_iterator<std::_Tree_val<std::_Tree_simple_types<std::pair<unsigned long const ,CGuildMarkImage *> > > >::operator==
PUBLIC	??C?$_Tree_iterator@V?$_Tree_val@U?$_Tree_simple_types@U?$pair@$$CBKPAVCGuildMarkImage@@@std@@@std@@@std@@@std@@QBEPAU?$pair@$$CBKPAVCGuildMarkImage@@@1@XZ ; std::_Tree_iterator<std::_Tree_val<std::_Tree_simple_types<std::pair<unsigned long const ,CGuildMarkImage *> > > >::operator->
PUBLIC	??E?$_Tree_iterator@V?$_Tree_val@U?$_Tree_simple_types@U?$pair@$$CBKPAVCGuildMarkImage@@@std@@@std@@@std@@@std@@QAEAAV01@XZ ; std::_Tree_iterator<std::_Tree_val<std::_Tree_simple_types<std::pair<unsigned long const ,CGuildMarkImage *> > > >::operator++
PUBLIC	??0?$map@KUTGuildSymbol@CGuildMarkManager@@U?$less@K@std@@V?$allocator@U?$pair@$$CBKUTGuildSymbol@CGuildMarkManager@@@std@@@4@@std@@QAE@XZ ; std::map<unsigned long,CGuildMarkManager::TGuildSymbol,std::less<unsigned long>,std::allocator<std::pair<unsigned long const ,CGuildMarkManager::TGuildSymbol> > >::map<unsigned long,CGuildMarkManager::TGuildSymbol,std::less<unsigned long>,std::allocator<std::pair<unsigned long const ,CGuildMarkManager::TGuildSymbol> > >
PUBLIC	??1?$_Tree@V?$_Tmap_traits@KUTGuildSymbol@CGuildMarkManager@@U?$less@K@std@@V?$allocator@U?$pair@$$CBKUTGuildSymbol@CGuildMarkManager@@@std@@@4@$0A@@std@@@std@@QAE@XZ ; std::_Tree<std::_Tmap_traits<unsigned long,CGuildMarkManager::TGuildSymbol,std::less<unsigned long>,std::allocator<std::pair<unsigned long const ,CGuildMarkManager::TGuildSymbol> >,0> >::~_Tree<std::_Tmap_traits<unsigned long,CGuildMarkManager::TGuildSymbol,std::less<unsigned long>,std::allocator<std::pair<unsigned long const ,CGuildMarkManager::TGuildSymbol> >,0> >
PUBLIC	??$insert@$0A@$0A@@?$_Tree@V?$_Tmap_traits@KPAVCGuildMarkImage@@U?$less@K@std@@V?$allocator@U?$pair@$$CBKPAVCGuildMarkImage@@@std@@@3@$0A@@std@@@std@@QAE?AU?$pair@V?$_Tree_iterator@V?$_Tree_val@U?$_Tree_simple_types@U?$pair@$$CBKPAVCGuildMarkImage@@@std@@@std@@@std@@@std@@_N@1@$$QAU?$pair@$$CBKPAVCGuildMarkImage@@@1@@Z ; std::_Tree<std::_Tmap_traits<unsigned long,CGuildMarkImage *,std::less<unsigned long>,std::allocator<std::pair<unsigned long const ,CGuildMarkImage *> >,0> >::insert<0,0>
PUBLIC	??$?0AAKAAPAVCGuildMarkImage@@$0A@@?$pair@$$CBKPAVCGuildMarkImage@@@std@@QAE@AAKAAPAVCGuildMarkImage@@@Z ; std::pair<unsigned long const ,CGuildMarkImage *>::pair<unsigned long const ,CGuildMarkImage *><unsigned long &,CGuildMarkImage * &,0>
PUBLIC	??1?$pair@KUTGuildSymbol@CGuildMarkManager@@@std@@QAE@XZ ; std::pair<unsigned long,CGuildMarkManager::TGuildSymbol>::~pair<unsigned long,CGuildMarkManager::TGuildSymbol>
PUBLIC	??1TGuildSymbol@CGuildMarkManager@@QAE@XZ	; CGuildMarkManager::TGuildSymbol::~TGuildSymbol
PUBLIC	?GetMarkID@CGuildMarkManager@@QAEKK@Z		; CGuildMarkManager::GetMarkID
PUBLIC	?__GetImage@CGuildMarkManager@@AAEPAVCGuildMarkImage@@K@Z ; CGuildMarkManager::__GetImage
PUBLIC	?SetMarkPathPrefix@CGuildMarkManager@@QAEXPBD@Z	; CGuildMarkManager::SetMarkPathPrefix
PUBLIC	??1CGuildMarkManager@@UAE@XZ			; CGuildMarkManager::~CGuildMarkManager
PUBLIC	??1?$map@KUTGuildSymbol@CGuildMarkManager@@U?$less@K@std@@V?$allocator@U?$pair@$$CBKUTGuildSymbol@CGuildMarkManager@@@std@@@4@@std@@QAE@XZ ; std::map<unsigned long,CGuildMarkManager::TGuildSymbol,std::less<unsigned long>,std::allocator<std::pair<unsigned long const ,CGuildMarkManager::TGuildSymbol> > >::~map<unsigned long,CGuildMarkManager::TGuildSymbol,std::less<unsigned long>,std::allocator<std::pair<unsigned long const ,CGuildMarkManager::TGuildSymbol> > >
PUBLIC	??1?$map@KPAVCGuildMarkImage@@U?$less@K@std@@V?$allocator@U?$pair@$$CBKPAVCGuildMarkImage@@@std@@@3@@std@@QAE@XZ ; std::map<unsigned long,CGuildMarkImage *,std::less<unsigned long>,std::allocator<std::pair<unsigned long const ,CGuildMarkImage *> > >::~map<unsigned long,CGuildMarkImage *,std::less<unsigned long>,std::allocator<std::pair<unsigned long const ,CGuildMarkImage *> > >
PUBLIC	??_GCGuildMarkManager@@UAEPAXI@Z		; CGuildMarkManager::`scalar deleting destructor'
PUBLIC	??0CGuildMarkManager@@QAE@XZ			; CGuildMarkManager::CGuildMarkManager
PUBLIC	?__DeleteImage@CGuildMarkManager@@AAEXPAVCGuildMarkImage@@@Z ; CGuildMarkManager::__DeleteImage
PUBLIC	?__NewImage@CGuildMarkManager@@AAEPAVCGuildMarkImage@@XZ ; CGuildMarkManager::__NewImage
PUBLIC	?AddMarkIDByGuildID@CGuildMarkManager@@QAE_NKK@Z ; CGuildMarkManager::AddMarkIDByGuildID
PUBLIC	?LoadMarkImages@CGuildMarkManager@@QAEXXZ	; CGuildMarkManager::LoadMarkImages
PUBLIC	?GetBlockCRCList@CGuildMarkManager@@QAE_NKPAK@Z	; CGuildMarkManager::GetBlockCRCList
PUBLIC	?SaveBlockFromCompressedData@CGuildMarkManager@@QAE_NKKPBEK@Z ; CGuildMarkManager::SaveBlockFromCompressedData
PUBLIC	?SaveMarkImage@CGuildMarkManager@@QAEXK@Z	; CGuildMarkManager::SaveMarkImage
PUBLIC	?GetMarkImageFilename@CGuildMarkManager@@QBE_NKAAV?$basic_string@DU?$char_traits@D@std@@V?$allocator@D@2@@std@@@Z ; CGuildMarkManager::GetMarkImageFilename
PUBLIC	?GetMarkImageCount@CGuildMarkManager@@QBEKXZ	; CGuildMarkManager::GetMarkImageCount
EXTRN	??_ECGuildMarkManager@@UAEPAXI@Z:PROC		; CGuildMarkManager::`vector deleting destructor'
EXTRN	??_E?$singleton@VCGuildMarkManager@@@@UAEPAXI@Z:PROC ; singleton<CGuildMarkManager>::`vector deleting destructor'
;	COMDAT xdata$x
xdata$x	SEGMENT
__ehfuncinfo$?SaveMarkImage@CGuildMarkManager@@QAEXK@Z DQ 00000000119930522r ; 2.33398e-314
	DD	FLAT:__unwindtable$?SaveMarkImage@CGuildMarkManager@@QAEXK@Z
	DQ	00000000000000000r		; 0
	DQ	00000000000000000r		; 0
	DQ	00000000100000000r		; 2.122e-314
__unwindtable$?SaveMarkImage@CGuildMarkManager@@QAEXK@Z DD 0ffffffffH
	DD	FLAT:__unwindfunclet$?SaveMarkImage@CGuildMarkManager@@QAEXK@Z$0
xdata$x	ENDS
;	COMDAT xdata$x
xdata$x	SEGMENT
__ehfuncinfo$??0CGuildMarkManager@@QAE@XZ DQ 00000000719930522r ; 1.5066e-313
	DD	FLAT:__unwindtable$??0CGuildMarkManager@@QAE@XZ
	DQ	00000000000000000r		; 0
	DQ	00000000000000000r		; 0
	DQ	00000000100000000r		; 2.122e-314
__unwindtable$??0CGuildMarkManager@@QAE@XZ DD 0ffffffffH
	DD	FLAT:__unwindfunclet$??0CGuildMarkManager@@QAE@XZ$0
	DD	00H
	DD	FLAT:__unwindfunclet$??0CGuildMarkManager@@QAE@XZ$1
	DD	01H
	DD	FLAT:__unwindfunclet$??0CGuildMarkManager@@QAE@XZ$2
	DD	02H
	DD	FLAT:__unwindfunclet$??0CGuildMarkManager@@QAE@XZ$3
	DD	03H
	DD	FLAT:__unwindfunclet$??0CGuildMarkManager@@QAE@XZ$4
	DD	04H
	DD	FLAT:__unwindfunclet$??0CGuildMarkManager@@QAE@XZ$5
	DD	05H
	DD	FLAT:__unwindfunclet$??0CGuildMarkManager@@QAE@XZ$15
xdata$x	ENDS
;	COMDAT xdata$x
xdata$x	SEGMENT
__ehfuncinfo$?__GetImage@CGuildMarkManager@@AAEPAVCGuildMarkImage@@K@Z DQ 00000000219930522r ; 4.45598e-314
	DD	FLAT:__unwindtable$?__GetImage@CGuildMarkManager@@AAEPAVCGuildMarkImage@@K@Z
	DQ	00000000000000000r		; 0
	DQ	00000000000000000r		; 0
	DQ	00000000100000000r		; 2.122e-314
__unwindtable$?__GetImage@CGuildMarkManager@@AAEPAVCGuildMarkImage@@K@Z DD 0ffffffffH
	DD	FLAT:__unwindfunclet$?__GetImage@CGuildMarkManager@@AAEPAVCGuildMarkImage@@K@Z$0
	DD	00H
	DD	FLAT:__unwindfunclet$?__GetImage@CGuildMarkManager@@AAEPAVCGuildMarkImage@@K@Z$6
xdata$x	ENDS
;	COMDAT xdata$x
xdata$x	SEGMENT
__ehfuncinfo$??$insert@$0A@$0A@@?$_Tree@V?$_Tmap_traits@KPAVCGuildMarkImage@@U?$less@K@std@@V?$allocator@U?$pair@$$CBKPAVCGuildMarkImage@@@std@@@3@$0A@@std@@@std@@QAE?AU?$pair@V?$_Tree_iterator@V?$_Tree_val@U?$_Tree_simple_types@U?$pair@$$CBKPAVCGuildMarkImage@@@std@@@std@@@std@@@std@@_N@1@$$QAU?$pair@$$CBKPAVCGuildMarkImage@@@1@@Z DQ 00000000119930522r ; 2.33398e-314
	DD	FLAT:__unwindtable$??$insert@$0A@$0A@@?$_Tree@V?$_Tmap_traits@KPAVCGuildMarkImage@@U?$less@K@std@@V?$allocator@U?$pair@$$CBKPAVCGuildMarkImage@@@std@@@3@$0A@@std@@@std@@QAE?AU?$pair@V?$_Tree_iterator@V?$_Tree_val@U?$_Tree_simple_types@U?$pair@$$CBKPAVCGuildMarkImage@@@std@@@std@@@std@@@std@@_N@1@$$QAU?$pair@$$CBKPAVCGuildMarkImage@@@1@@Z
	DQ	00000000000000000r		; 0
	DQ	00000000000000000r		; 0
	DQ	00000000100000000r		; 2.122e-314
__unwindtable$??$insert@$0A@$0A@@?$_Tree@V?$_Tmap_traits@KPAVCGuildMarkImage@@U?$less@K@std@@V?$allocator@U?$pair@$$CBKPAVCGuildMarkImage@@@std@@@3@$0A@@std@@@std@@QAE?AU?$pair@V?$_Tree_iterator@V?$_Tree_val@U?$_Tree_simple_types@U?$pair@$$CBKPAVCGuildMarkImage@@@std@@@std@@@std@@@std@@_N@1@$$QAU?$pair@$$CBKPAVCGuildMarkImage@@@1@@Z DD 0ffffffffH
	DD	FLAT:__unwindfunclet$??$insert@$0A@$0A@@?$_Tree@V?$_Tmap_traits@KPAVCGuildMarkImage@@U?$less@K@std@@V?$allocator@U?$pair@$$CBKPAVCGuildMarkImage@@@std@@@3@$0A@@std@@@std@@QAE?AU?$pair@V?$_Tree_iterator@V?$_Tree_val@U?$_Tree_simple_types@U?$pair@$$CBKPAVCGuildMarkImage@@@std@@@std@@@std@@@std@@_N@1@$$QAU?$pair@$$CBKPAVCGuildMarkImage@@@1@@Z$2
xdata$x	ENDS
;	COMDAT xdata$x
xdata$x	SEGMENT
__ehfuncinfo$??$_Emplace@U?$pair@$$CBKPAVCGuildMarkImage@@@std@@@?$_Tree@V?$_Tmap_traits@KPAVCGuildMarkImage@@U?$less@K@std@@V?$allocator@U?$pair@$$CBKPAVCGuildMarkImage@@@std@@@3@$0A@@std@@@std@@IAE?AU?$pair@PAU?$_Tree_node@U?$pair@$$CBKPAVCGuildMarkImage@@@std@@PAX@std@@_N@1@$$QAU?$pair@$$CBKPAVCGuildMarkImage@@@1@@Z DQ 00000000119930522r ; 2.33398e-314
	DD	FLAT:__unwindtable$??$_Emplace@U?$pair@$$CBKPAVCGuildMarkImage@@@std@@@?$_Tree@V?$_Tmap_traits@KPAVCGuildMarkImage@@U?$less@K@std@@V?$allocator@U?$pair@$$CBKPAVCGuildMarkImage@@@std@@@3@$0A@@std@@@std@@IAE?AU?$pair@PAU?$_Tree_node@U?$pair@$$CBKPAVCGuildMarkImage@@@std@@PAX@std@@_N@1@$$QAU?$pair@$$CBKPAVCGuildMarkImage@@@1@@Z
	DQ	00000000000000000r		; 0
	DQ	00000000000000000r		; 0
	DQ	00000000100000000r		; 2.122e-314
__unwindtable$??$_Emplace@U?$pair@$$CBKPAVCGuildMarkImage@@@std@@@?$_Tree@V?$_Tmap_traits@KPAVCGuildMarkImage@@U?$less@K@std@@V?$allocator@U?$pair@$$CBKPAVCGuildMarkImage@@@std@@@3@$0A@@std@@@std@@IAE?AU?$pair@PAU?$_Tree_node@U?$pair@$$CBKPAVCGuildMarkImage@@@std@@PAX@std@@_N@1@$$QAU?$pair@$$CBKPAVCGuildMarkImage@@@1@@Z DD 0ffffffffH
	DD	FLAT:__unwindfunclet$??$_Emplace@U?$pair@$$CBKPAVCGuildMarkImage@@@std@@@?$_Tree@V?$_Tmap_traits@KPAVCGuildMarkImage@@U?$less@K@std@@V?$allocator@U?$pair@$$CBKPAVCGuildMarkImage@@@std@@@3@$0A@@std@@@std@@IAE?AU?$pair@PAU?$_Tree_node@U?$pair@$$CBKPAVCGuildMarkImage@@@std@@PAX@std@@_N@1@$$QAU?$pair@$$CBKPAVCGuildMarkImage@@@1@@Z$2
xdata$x	ENDS
;	COMDAT xdata$x
xdata$x	SEGMENT
__ehfuncinfo$??$?0U?$pair@$$CBKPAVCGuildMarkImage@@@std@@@?$_Tree_temp_node@V?$allocator@U?$_Tree_node@U?$pair@$$CBKPAVCGuildMarkImage@@@std@@PAX@std@@@std@@@std@@QAE@AAV?$allocator@U?$_Tree_node@U?$pair@$$CBKPAVCGuildMarkImage@@@std@@PAX@std@@@1@PAU?$_Tree_node@U?$pair@$$CBKPAVCGuildMarkImage@@@std@@PAX@1@$$QAU?$pair@$$CBKPAVCGuildMarkImage@@@1@@Z DQ 00000000119930522r ; 2.33398e-314
	DD	FLAT:__unwindtable$??$?0U?$pair@$$CBKPAVCGuildMarkImage@@@std@@@?$_Tree_temp_node@V?$allocator@U?$_Tree_node@U?$pair@$$CBKPAVCGuildMarkImage@@@std@@PAX@std@@@std@@@std@@QAE@AAV?$allocator@U?$_Tree_node@U?$pair@$$CBKPAVCGuildMarkImage@@@std@@PAX@std@@@1@PAU?$_Tree_node@U?$pair@$$CBKPAVCGuildMarkImage@@@std@@PAX@1@$$QAU?$pair@$$CBKPAVCGuildMarkImage@@@1@@Z
	DQ	00000000000000000r		; 0
	DQ	00000000000000000r		; 0
	DQ	00000000100000000r		; 2.122e-314
__unwindtable$??$?0U?$pair@$$CBKPAVCGuildMarkImage@@@std@@@?$_Tree_temp_node@V?$allocator@U?$_Tree_node@U?$pair@$$CBKPAVCGuildMarkImage@@@std@@PAX@std@@@std@@@std@@QAE@AAV?$allocator@U?$_Tree_node@U?$pair@$$CBKPAVCGuildMarkImage@@@std@@PAX@std@@@1@PAU?$_Tree_node@U?$pair@$$CBKPAVCGuildMarkImage@@@std@@PAX@1@$$QAU?$pair@$$CBKPAVCGuildMarkImage@@@1@@Z DD 0ffffffffH
	DD	FLAT:__unwindfunclet$??$?0U?$pair@$$CBKPAVCGuildMarkImage@@@std@@@?$_Tree_temp_node@V?$allocator@U?$_Tree_node@U?$pair@$$CBKPAVCGuildMarkImage@@@std@@PAX@std@@@std@@@std@@QAE@AAV?$allocator@U?$_Tree_node@U?$pair@$$CBKPAVCGuildMarkImage@@@std@@PAX@std@@@1@PAU?$_Tree_node@U?$pair@$$CBKPAVCGuildMarkImage@@@std@@PAX@1@$$QAU?$pair@$$CBKPAVCGuildMarkImage@@@1@@Z$1
xdata$x	ENDS
;	COMDAT xdata$x
xdata$x	SEGMENT
__ehfuncinfo$??0?$_Tree_temp_node_alloc@V?$allocator@U?$_Tree_node@U?$pair@$$CBKPAVCGuildMarkImage@@@std@@PAX@std@@@std@@@std@@QAE@AAV?$allocator@U?$_Tree_node@U?$pair@$$CBKPAVCGuildMarkImage@@@std@@PAX@std@@@1@@Z DQ 00000000119930522r ; 2.33398e-314
	DD	FLAT:__unwindtable$??0?$_Tree_temp_node_alloc@V?$allocator@U?$_Tree_node@U?$pair@$$CBKPAVCGuildMarkImage@@@std@@PAX@std@@@std@@@std@@QAE@AAV?$allocator@U?$_Tree_node@U?$pair@$$CBKPAVCGuildMarkImage@@@std@@PAX@std@@@1@@Z
	DQ	00000000000000000r		; 0
	DQ	00000000000000000r		; 0
	DQ	00000000100000000r		; 2.122e-314
__unwindtable$??0?$_Tree_temp_node_alloc@V?$allocator@U?$_Tree_node@U?$pair@$$CBKPAVCGuildMarkImage@@@std@@PAX@std@@@std@@@std@@QAE@AAV?$allocator@U?$_Tree_node@U?$pair@$$CBKPAVCGuildMarkImage@@@std@@PAX@std@@@1@@Z DD 0ffffffffH
	DD	FLAT:__unwindfunclet$??0?$_Tree_temp_node_alloc@V?$allocator@U?$_Tree_node@U?$pair@$$CBKPAVCGuildMarkImage@@@std@@PAX@std@@@std@@@std@@QAE@AAV?$allocator@U?$_Tree_node@U?$pair@$$CBKPAVCGuildMarkImage@@@std@@PAX@std@@@1@@Z$0
END
