; Listing generated by Microsoft (R) Optimizing Compiler Version 19.44.35219.0 

	TITLE	c:\anka2project\anka2project\source\binary\vs_files\userinterface\release\minini.obj
	.686P
	.XMM
	include listing.inc
	.model	flat

INCLUDELIB OLDNAMES

PUBLIC	??_C@_1JC@NEGGBKHC@?$AAC?$AA?3?$AA?2?$AAA?$AAn?$AAk?$AAa?$AA2?$AAP?$AAr?$AAo?$AAj?$AAe?$AAc?$AAt@ ; `string'
PUBLIC	??_C@_1BI@MFCLPIBM@?$AAs?$AAt?$AAr?$AA?5?$AA?$CB?$AA?$DN?$AA?5?$AAN?$AAU?$AAL?$AAL@ ; `string'
PUBLIC	??_C@_1BK@FFEIJADH@?$AAb?$AAa?$AAs?$AAe?$AA?5?$AA?$CB?$AA?$DN?$AA?5?$AAN?$AAU?$AAL?$AAL@ ; `string'
PUBLIC	??_C@_1BI@JNDFFBDE@?$AAp?$AAt?$AAr?$AA?5?$AA?$CB?$AA?$DN?$AA?5?$AAN?$AAU?$AAL?$AAL@ ; `string'
PUBLIC	??_C@_1BC@NDDHEECE@?$AAm?$AAa?$AAx?$AAl?$AAe?$AAn?$AA?$DO?$AA0@ ; `string'
PUBLIC	??_C@_1DO@LFNMLALB@?$AAs?$AAo?$AAu?$AAr?$AAc?$AAe?$AA?5?$AA?$CB?$AA?$DN?$AA?5?$AAN?$AAU?$AAL?$AAL?$AA?5@ ; `string'
PUBLIC	??_C@_1MC@PILIKPOK@?$AA?$CI?$AAd?$AAe?$AAs?$AAt?$AA?5?$AA?$DM?$AA?5?$AAs?$AAo?$AAu?$AAr?$AAc?$AAe?$AA?5@ ; `string'
PUBLIC	??_C@_1BG@ECLDGLBL@?$AAd?$AA?5?$AA?$DM?$AA?5?$AAm?$AAa?$AAx?$AAl?$AAe?$AAn@ ; `string'
PUBLIC	??_C@_13COJANIEC@?$AA0@				; `string'
PUBLIC	??_C@_1BO@JIBAMMGI@?$AAs?$AAt?$AAr?$AAi?$AAn?$AAg?$AA?5?$AA?$CB?$AA?$DN?$AA?5?$AAN?$AAU?$AAL?$AAL@ ; `string'
PUBLIC	??_C@_1BO@LIMDMCCP@?$AAq?$AAu?$AAo?$AAt?$AAe?$AAs?$AA?5?$AA?$CB?$AA?$DN?$AA?5?$AAN?$AAU?$AAL?$AAL@ ; `string'
PUBLIC	??_C@_1HA@HFAGEGBJ@?$AAe?$AAp?$AA?5?$AA?$CB?$AA?$DN?$AA?5?$AAN?$AAU?$AAL?$AAL?$AA?5?$AA?$CG?$AA?$CG?$AA?5?$AA?$CI@ ; `string'
PUBLIC	??_C@_1BG@HMNFKEEL@?$AAf?$AAp?$AA?5?$AA?$CB?$AA?$DN?$AA?5?$AAN?$AAU?$AAL?$AAL@ ; `string'
PUBLIC	??_C@_1EG@DGBOAHNH@?$AAi?$AAd?$AAx?$AAS?$AAe?$AAc?$AAt?$AAi?$AAo?$AAn?$AA?5?$AA?$DO?$AA?$DN?$AA?5?$AA0@ ; `string'
PUBLIC	??_C@_1BG@EFKNAJAL@?$AAe?$AAp?$AA?5?$AA?$CB?$AA?$DN?$AA?5?$AAN?$AAU?$AAL?$AAL@ ; `string'
PUBLIC	??_C@_1BG@DFDCBLFP@?$AA?$CK?$AAe?$AAp?$AA?5?$AA?$DN?$AA?$DN?$AA?5?$AA?8?$AA?$FN?$AA?8@ ; `string'
PUBLIC	??_C@_1DG@KFKEBANM@?$AAK?$AAe?$AAy?$AA?5?$AA?$CB?$AA?$DN?$AA?5?$AAN?$AAU?$AAL?$AAL?$AA?5?$AA?$HM?$AA?$HM?$AA?5@ ; `string'
PUBLIC	??_C@_1DC@LGIOGJOE@?$AA?$CK?$AAe?$AAp?$AA?5?$AA?$DN?$AA?$DN?$AA?5?$AA?8?$AA?$DN?$AA?8?$AA?5?$AA?$HM?$AA?$HM?$AA?5?$AA?$CK@ ; `string'
PUBLIC	??_C@_1BE@OLAJGFKC@?$AAp?$AA?5?$AA?$CB?$AA?$DN?$AA?5?$AAN?$AAU?$AAL?$AAL@ ; `string'
PUBLIC	??_C@_1BM@LDMALBIM@?$AAV?$AAa?$AAl?$AAu?$AAe?$AA?5?$AA?$CB?$AA?$DN?$AA?5?$AAN?$AAU?$AAL?$AAL@ ; `string'
PUBLIC	??_C@_02PCIJFNDE@?$AN?6@			; `string'
PUBLIC	??_C@_1BO@PNINNIGK@?$AAb?$AAu?$AAf?$AAf?$AAe?$AAr?$AA?5?$AA?$CB?$AA?$DN?$AA?5?$AAN?$AAU?$AAL?$AAL@ ; `string'
PUBLIC	??_C@_1BK@GEGBBDKG@?$AAs?$AAi?$AAz?$AAe?$AA?5?$AA?$CB?$AA?$DN?$AA?5?$AAN?$AAU?$AAL?$AAL@ ; `string'
PUBLIC	??_C@_1DA@POCMMIEF@?$AA?$CK?$AAs?$AAi?$AAz?$AAe?$AA?5?$AA?$DM?$AA?$DN?$AA?5?$AAI?$AAN?$AAI?$AA_?$AAB?$AAU@ ; `string'
PUBLIC	??_C@_1EC@NIOFJDCP@?$AAp?$AAo?$AAs?$AA?5?$AA?$DO?$AA?5?$AA0?$AA?5?$AA?$CG?$AA?$CG?$AA?5?$AAp?$AAo?$AAs?$AA?5@ ; `string'
PUBLIC	??_C@_1CC@NKKPOJNJ@?$AAF?$AAi?$AAl?$AAe?$AAn?$AAa?$AAm?$AAe?$AA?5?$AA?$CB?$AA?$DN?$AA?5?$AAN?$AAU?$AAL@ ; `string'
PUBLIC	??_C@_02NJPGOMH@?$CFf@				; `string'
EXTRN	_strrchr:PROC
EXTRN	_fsetpos:PROC
EXTRN	_fputs:PROC
EXTRN	_fgetpos:PROC
EXTRN	_strtol:PROC
EXTRN	_rename:PROC
EXTRN	_remove:PROC
EXTRN	_strnicmp:PROC
EXTRN	_strtod:PROC
EXTRN	_toupper:PROC
COMM	?_OptionsStorage@?1??__local_stdio_scanf_options@@9@9:QWORD							; `__local_stdio_scanf_options'::`2'::_OptionsStorage
COMM	?_OptionsStorage@?1??__local_stdio_printf_options@@9@9:QWORD							; `__local_stdio_printf_options'::`2'::_OptionsStorage
_DATA	ENDS
;	COMDAT ??_C@_02NJPGOMH@?$CFf@
CONST	SEGMENT
??_C@_02NJPGOMH@?$CFf@ DB '%f', 00H			; `string'
CONST	ENDS
;	COMDAT ??_C@_1CC@NKKPOJNJ@?$AAF?$AAi?$AAl?$AAe?$AAn?$AAa?$AAm?$AAe?$AA?5?$AA?$CB?$AA?$DN?$AA?5?$AAN?$AAU?$AAL@
CONST	SEGMENT
??_C@_1CC@NKKPOJNJ@?$AAF?$AAi?$AAl?$AAe?$AAn?$AAa?$AAm?$AAe?$AA?5?$AA?$CB?$AA?$DN?$AA?5?$AAN?$AAU?$AAL@ DB 'F'
	DB	00H, 'i', 00H, 'l', 00H, 'e', 00H, 'n', 00H, 'a', 00H, 'm', 00H
	DB	'e', 00H, ' ', 00H, '!', 00H, '=', 00H, ' ', 00H, 'N', 00H, 'U'
	DB	00H, 'L', 00H, 'L', 00H, 00H, 00H		; `string'
CONST	ENDS
;	COMDAT ??_C@_1EC@NIOFJDCP@?$AAp?$AAo?$AAs?$AA?5?$AA?$DO?$AA?5?$AA0?$AA?5?$AA?$CG?$AA?$CG?$AA?5?$AAp?$AAo?$AAs?$AA?5@
CONST	SEGMENT
??_C@_1EC@NIOFJDCP@?$AAp?$AAo?$AAs?$AA?5?$AA?$DO?$AA?5?$AA0?$AA?5?$AA?$CG?$AA?$CG?$AA?5?$AAp?$AAo?$AAs?$AA?5@ DB 'p'
	DB	00H, 'o', 00H, 's', 00H, ' ', 00H, '>', 00H, ' ', 00H, '0', 00H
	DB	' ', 00H, '&', 00H, '&', 00H, ' ', 00H, 'p', 00H, 'o', 00H, 's'
	DB	00H, ' ', 00H, '<', 00H, '=', 00H, ' ', 00H, 'I', 00H, 'N', 00H
	DB	'I', 00H, '_', 00H, 'B', 00H, 'U', 00H, 'F', 00H, 'F', 00H, 'E'
	DB	00H, 'R', 00H, 'S', 00H, 'I', 00H, 'Z', 00H, 'E', 00H, 00H, 00H ; `string'
CONST	ENDS
;	COMDAT ??_C@_1DA@POCMMIEF@?$AA?$CK?$AAs?$AAi?$AAz?$AAe?$AA?5?$AA?$DM?$AA?$DN?$AA?5?$AAI?$AAN?$AAI?$AA_?$AAB?$AAU@
CONST	SEGMENT
??_C@_1DA@POCMMIEF@?$AA?$CK?$AAs?$AAi?$AAz?$AAe?$AA?5?$AA?$DM?$AA?$DN?$AA?5?$AAI?$AAN?$AAI?$AA_?$AAB?$AAU@ DB '*'
	DB	00H, 's', 00H, 'i', 00H, 'z', 00H, 'e', 00H, ' ', 00H, '<', 00H
	DB	'=', 00H, ' ', 00H, 'I', 00H, 'N', 00H, 'I', 00H, '_', 00H, 'B'
	DB	00H, 'U', 00H, 'F', 00H, 'F', 00H, 'E', 00H, 'R', 00H, 'S', 00H
	DB	'I', 00H, 'Z', 00H, 'E', 00H, 00H, 00H	; `string'
CONST	ENDS
;	COMDAT ??_C@_1BK@GEGBBDKG@?$AAs?$AAi?$AAz?$AAe?$AA?5?$AA?$CB?$AA?$DN?$AA?5?$AAN?$AAU?$AAL?$AAL@
CONST	SEGMENT
??_C@_1BK@GEGBBDKG@?$AAs?$AAi?$AAz?$AAe?$AA?5?$AA?$CB?$AA?$DN?$AA?5?$AAN?$AAU?$AAL?$AAL@ DB 's'
	DB	00H, 'i', 00H, 'z', 00H, 'e', 00H, ' ', 00H, '!', 00H, '=', 00H
	DB	' ', 00H, 'N', 00H, 'U', 00H, 'L', 00H, 'L', 00H, 00H, 00H ; `string'
CONST	ENDS
;	COMDAT ??_C@_1BO@PNINNIGK@?$AAb?$AAu?$AAf?$AAf?$AAe?$AAr?$AA?5?$AA?$CB?$AA?$DN?$AA?5?$AAN?$AAU?$AAL?$AAL@
CONST	SEGMENT
??_C@_1BO@PNINNIGK@?$AAb?$AAu?$AAf?$AAf?$AAe?$AAr?$AA?5?$AA?$CB?$AA?$DN?$AA?5?$AAN?$AAU?$AAL?$AAL@ DB 'b'
	DB	00H, 'u', 00H, 'f', 00H, 'f', 00H, 'e', 00H, 'r', 00H, ' ', 00H
	DB	'!', 00H, '=', 00H, ' ', 00H, 'N', 00H, 'U', 00H, 'L', 00H, 'L'
	DB	00H, 00H, 00H				; `string'
CONST	ENDS
;	COMDAT ??_C@_02PCIJFNDE@?$AN?6@
CONST	SEGMENT
??_C@_02PCIJFNDE@?$AN?6@ DB 0dH, 0aH, 00H		; `string'
CONST	ENDS
;	COMDAT ??_C@_1BM@LDMALBIM@?$AAV?$AAa?$AAl?$AAu?$AAe?$AA?5?$AA?$CB?$AA?$DN?$AA?5?$AAN?$AAU?$AAL?$AAL@
CONST	SEGMENT
??_C@_1BM@LDMALBIM@?$AAV?$AAa?$AAl?$AAu?$AAe?$AA?5?$AA?$CB?$AA?$DN?$AA?5?$AAN?$AAU?$AAL?$AAL@ DB 'V'
	DB	00H, 'a', 00H, 'l', 00H, 'u', 00H, 'e', 00H, ' ', 00H, '!', 00H
	DB	'=', 00H, ' ', 00H, 'N', 00H, 'U', 00H, 'L', 00H, 'L', 00H, 00H
	DB	00H						; `string'
CONST	ENDS
;	COMDAT ??_C@_1BE@OLAJGFKC@?$AAp?$AA?5?$AA?$CB?$AA?$DN?$AA?5?$AAN?$AAU?$AAL?$AAL@
CONST	SEGMENT
??_C@_1BE@OLAJGFKC@?$AAp?$AA?5?$AA?$CB?$AA?$DN?$AA?5?$AAN?$AAU?$AAL?$AAL@ DB 'p'
	DB	00H, ' ', 00H, '!', 00H, '=', 00H, ' ', 00H, 'N', 00H, 'U', 00H
	DB	'L', 00H, 'L', 00H, 00H, 00H			; `string'
CONST	ENDS
;	COMDAT ??_C@_1DC@LGIOGJOE@?$AA?$CK?$AAe?$AAp?$AA?5?$AA?$DN?$AA?$DN?$AA?5?$AA?8?$AA?$DN?$AA?8?$AA?5?$AA?$HM?$AA?$HM?$AA?5?$AA?$CK@
CONST	SEGMENT
??_C@_1DC@LGIOGJOE@?$AA?$CK?$AAe?$AAp?$AA?5?$AA?$DN?$AA?$DN?$AA?5?$AA?8?$AA?$DN?$AA?8?$AA?5?$AA?$HM?$AA?$HM?$AA?5?$AA?$CK@ DB '*'
	DB	00H, 'e', 00H, 'p', 00H, ' ', 00H, '=', 00H, '=', 00H, ' ', 00H
	DB	'''', 00H, '=', 00H, '''', 00H, ' ', 00H, '|', 00H, '|', 00H, ' '
	DB	00H, '*', 00H, 'e', 00H, 'p', 00H, ' ', 00H, '=', 00H, '=', 00H
	DB	' ', 00H, '''', 00H, ':', 00H, '''', 00H, 00H, 00H ; `string'
CONST	ENDS
;	COMDAT ??_C@_1DG@KFKEBANM@?$AAK?$AAe?$AAy?$AA?5?$AA?$CB?$AA?$DN?$AA?5?$AAN?$AAU?$AAL?$AAL?$AA?5?$AA?$HM?$AA?$HM?$AA?5@
CONST	SEGMENT
??_C@_1DG@KFKEBANM@?$AAK?$AAe?$AAy?$AA?5?$AA?$CB?$AA?$DN?$AA?5?$AAN?$AAU?$AAL?$AAL?$AA?5?$AA?$HM?$AA?$HM?$AA?5@ DB 'K'
	DB	00H, 'e', 00H, 'y', 00H, ' ', 00H, '!', 00H, '=', 00H, ' ', 00H
	DB	'N', 00H, 'U', 00H, 'L', 00H, 'L', 00H, ' ', 00H, '|', 00H, '|'
	DB	00H, ' ', 00H, 'i', 00H, 'd', 00H, 'x', 00H, 'K', 00H, 'e', 00H
	DB	'y', 00H, ' ', 00H, '>', 00H, '=', 00H, ' ', 00H, '0', 00H, 00H
	DB	00H						; `string'
CONST	ENDS
;	COMDAT ??_C@_1BG@DFDCBLFP@?$AA?$CK?$AAe?$AAp?$AA?5?$AA?$DN?$AA?$DN?$AA?5?$AA?8?$AA?$FN?$AA?8@
CONST	SEGMENT
??_C@_1BG@DFDCBLFP@?$AA?$CK?$AAe?$AAp?$AA?5?$AA?$DN?$AA?$DN?$AA?5?$AA?8?$AA?$FN?$AA?8@ DB '*'
	DB	00H, 'e', 00H, 'p', 00H, ' ', 00H, '=', 00H, '=', 00H, ' ', 00H
	DB	'''', 00H, ']', 00H, '''', 00H, 00H, 00H	; `string'
CONST	ENDS
;	COMDAT ??_C@_1BG@EFKNAJAL@?$AAe?$AAp?$AA?5?$AA?$CB?$AA?$DN?$AA?5?$AAN?$AAU?$AAL?$AAL@
CONST	SEGMENT
??_C@_1BG@EFKNAJAL@?$AAe?$AAp?$AA?5?$AA?$CB?$AA?$DN?$AA?5?$AAN?$AAU?$AAL?$AAL@ DB 'e'
	DB	00H, 'p', 00H, ' ', 00H, '!', 00H, '=', 00H, ' ', 00H, 'N', 00H
	DB	'U', 00H, 'L', 00H, 'L', 00H, 00H, 00H	; `string'
CONST	ENDS
;	COMDAT ??_C@_1EG@DGBOAHNH@?$AAi?$AAd?$AAx?$AAS?$AAe?$AAc?$AAt?$AAi?$AAo?$AAn?$AA?5?$AA?$DO?$AA?$DN?$AA?5?$AA0@
CONST	SEGMENT
??_C@_1EG@DGBOAHNH@?$AAi?$AAd?$AAx?$AAS?$AAe?$AAc?$AAt?$AAi?$AAo?$AAn?$AA?5?$AA?$DO?$AA?$DN?$AA?5?$AA0@ DB 'i'
	DB	00H, 'd', 00H, 'x', 00H, 'S', 00H, 'e', 00H, 'c', 00H, 't', 00H
	DB	'i', 00H, 'o', 00H, 'n', 00H, ' ', 00H, '>', 00H, '=', 00H, ' '
	DB	00H, '0', 00H, ' ', 00H, '|', 00H, '|', 00H, ' ', 00H, 'S', 00H
	DB	'e', 00H, 'c', 00H, 't', 00H, 'i', 00H, 'o', 00H, 'n', 00H, ' '
	DB	00H, '!', 00H, '=', 00H, ' ', 00H, 'N', 00H, 'U', 00H, 'L', 00H
	DB	'L', 00H, 00H, 00H				; `string'
CONST	ENDS
;	COMDAT ??_C@_1BG@HMNFKEEL@?$AAf?$AAp?$AA?5?$AA?$CB?$AA?$DN?$AA?5?$AAN?$AAU?$AAL?$AAL@
CONST	SEGMENT
??_C@_1BG@HMNFKEEL@?$AAf?$AAp?$AA?5?$AA?$CB?$AA?$DN?$AA?5?$AAN?$AAU?$AAL?$AAL@ DB 'f'
	DB	00H, 'p', 00H, ' ', 00H, '!', 00H, '=', 00H, ' ', 00H, 'N', 00H
	DB	'U', 00H, 'L', 00H, 'L', 00H, 00H, 00H	; `string'
CONST	ENDS
;	COMDAT ??_C@_1HA@HFAGEGBJ@?$AAe?$AAp?$AA?5?$AA?$CB?$AA?$DN?$AA?5?$AAN?$AAU?$AAL?$AAL?$AA?5?$AA?$CG?$AA?$CG?$AA?5?$AA?$CI@
CONST	SEGMENT
??_C@_1HA@HFAGEGBJ@?$AAe?$AAp?$AA?5?$AA?$CB?$AA?$DN?$AA?5?$AAN?$AAU?$AAL?$AAL?$AA?5?$AA?$CG?$AA?$CG?$AA?5?$AA?$CI@ DB 'e'
	DB	00H, 'p', 00H, ' ', 00H, '!', 00H, '=', 00H, ' ', 00H, 'N', 00H
	DB	'U', 00H, 'L', 00H, 'L', 00H, ' ', 00H, '&', 00H, '&', 00H, ' '
	DB	00H, '(', 00H, '*', 00H, 'e', 00H, 'p', 00H, ' ', 00H, '=', 00H
	DB	'=', 00H, ' ', 00H, '''', 00H, '\', 00H, '0', 00H, '''', 00H, ' '
	DB	00H, '|', 00H, '|', 00H, ' ', 00H, '*', 00H, 'e', 00H, 'p', 00H
	DB	' ', 00H, '=', 00H, '=', 00H, ' ', 00H, '''', 00H, ';', 00H, ''''
	DB	00H, ' ', 00H, '|', 00H, '|', 00H, ' ', 00H, '*', 00H, 'e', 00H
	DB	'p', 00H, ' ', 00H, '=', 00H, '=', 00H, ' ', 00H, '''', 00H, '#'
	DB	00H, '''', 00H, ')', 00H, 00H, 00H		; `string'
CONST	ENDS
;	COMDAT ??_C@_1BO@LIMDMCCP@?$AAq?$AAu?$AAo?$AAt?$AAe?$AAs?$AA?5?$AA?$CB?$AA?$DN?$AA?5?$AAN?$AAU?$AAL?$AAL@
CONST	SEGMENT
??_C@_1BO@LIMDMCCP@?$AAq?$AAu?$AAo?$AAt?$AAe?$AAs?$AA?5?$AA?$CB?$AA?$DN?$AA?5?$AAN?$AAU?$AAL?$AAL@ DB 'q'
	DB	00H, 'u', 00H, 'o', 00H, 't', 00H, 'e', 00H, 's', 00H, ' ', 00H
	DB	'!', 00H, '=', 00H, ' ', 00H, 'N', 00H, 'U', 00H, 'L', 00H, 'L'
	DB	00H, 00H, 00H				; `string'
CONST	ENDS
;	COMDAT ??_C@_1BO@JIBAMMGI@?$AAs?$AAt?$AAr?$AAi?$AAn?$AAg?$AA?5?$AA?$CB?$AA?$DN?$AA?5?$AAN?$AAU?$AAL?$AAL@
CONST	SEGMENT
??_C@_1BO@JIBAMMGI@?$AAs?$AAt?$AAr?$AAi?$AAn?$AAg?$AA?5?$AA?$CB?$AA?$DN?$AA?5?$AAN?$AAU?$AAL?$AAL@ DB 's'
	DB	00H, 't', 00H, 'r', 00H, 'i', 00H, 'n', 00H, 'g', 00H, ' ', 00H
	DB	'!', 00H, '=', 00H, ' ', 00H, 'N', 00H, 'U', 00H, 'L', 00H, 'L'
	DB	00H, 00H, 00H				; `string'
CONST	ENDS
;	COMDAT ??_C@_13COJANIEC@?$AA0@
CONST	SEGMENT
??_C@_13COJANIEC@?$AA0@ DB '0', 00H, 00H, 00H		; `string'
CONST	ENDS
;	COMDAT ??_C@_1BG@ECLDGLBL@?$AAd?$AA?5?$AA?$DM?$AA?5?$AAm?$AAa?$AAx?$AAl?$AAe?$AAn@
CONST	SEGMENT
??_C@_1BG@ECLDGLBL@?$AAd?$AA?5?$AA?$DM?$AA?5?$AAm?$AAa?$AAx?$AAl?$AAe?$AAn@ DB 'd'
	DB	00H, ' ', 00H, '<', 00H, ' ', 00H, 'm', 00H, 'a', 00H, 'x', 00H
	DB	'l', 00H, 'e', 00H, 'n', 00H, 00H, 00H	; `string'
CONST	ENDS
;	COMDAT ??_C@_1MC@PILIKPOK@?$AA?$CI?$AAd?$AAe?$AAs?$AAt?$AA?5?$AA?$DM?$AA?5?$AAs?$AAo?$AAu?$AAr?$AAc?$AAe?$AA?5@
CONST	SEGMENT
??_C@_1MC@PILIKPOK@?$AA?$CI?$AAd?$AAe?$AAs?$AAt?$AA?5?$AA?$DM?$AA?5?$AAs?$AAo?$AAu?$AAr?$AAc?$AAe?$AA?5@ DB '('
	DB	00H, 'd', 00H, 'e', 00H, 's', 00H, 't', 00H, ' ', 00H, '<', 00H
	DB	' ', 00H, 's', 00H, 'o', 00H, 'u', 00H, 'r', 00H, 'c', 00H, 'e'
	DB	00H, ' ', 00H, '|', 00H, '|', 00H, ' ', 00H, '(', 00H, 'd', 00H
	DB	'e', 00H, 's', 00H, 't', 00H, ' ', 00H, '=', 00H, '=', 00H, ' '
	DB	00H, 's', 00H, 'o', 00H, 'u', 00H, 'r', 00H, 'c', 00H, 'e', 00H
	DB	' ', 00H, '&', 00H, '&', 00H, ' ', 00H, 'o', 00H, 'p', 00H, 't'
	DB	00H, 'i', 00H, 'o', 00H, 'n', 00H, ' ', 00H, '!', 00H, '=', 00H
	DB	' ', 00H, 'Q', 00H, 'U', 00H, 'O', 00H, 'T', 00H, 'E', 00H, '_'
	DB	00H, 'E', 00H, 'N', 00H, 'Q', 00H, 'U', 00H, 'O', 00H, 'T', 00H
	DB	'E', 00H, ')', 00H, ')', 00H, ' ', 00H, '|', 00H, '|', 00H, ' '
	DB	00H, 'd', 00H, 'e', 00H, 's', 00H, 't', 00H, ' ', 00H, '>', 00H
	DB	' ', 00H, 's', 00H, 'o', 00H, 'u', 00H, 'r', 00H, 'c', 00H, 'e'
	DB	00H, ' ', 00H, '+', 00H, ' ', 00H, 's', 00H, 't', 00H, 'r', 00H
	DB	'l', 00H, 'e', 00H, 'n', 00H, '(', 00H, 's', 00H, 'o', 00H, 'u'
	DB	00H, 'r', 00H, 'c', 00H, 'e', 00H, ')', 00H, 00H, 00H ; `string'
CONST	ENDS
;	COMDAT ??_C@_1DO@LFNMLALB@?$AAs?$AAo?$AAu?$AAr?$AAc?$AAe?$AA?5?$AA?$CB?$AA?$DN?$AA?5?$AAN?$AAU?$AAL?$AAL?$AA?5@
CONST	SEGMENT
??_C@_1DO@LFNMLALB@?$AAs?$AAo?$AAu?$AAr?$AAc?$AAe?$AA?5?$AA?$CB?$AA?$DN?$AA?5?$AAN?$AAU?$AAL?$AAL?$AA?5@ DB 's'
	DB	00H, 'o', 00H, 'u', 00H, 'r', 00H, 'c', 00H, 'e', 00H, ' ', 00H
	DB	'!', 00H, '=', 00H, ' ', 00H, 'N', 00H, 'U', 00H, 'L', 00H, 'L'
	DB	00H, ' ', 00H, '&', 00H, '&', 00H, ' ', 00H, 'd', 00H, 'e', 00H
	DB	's', 00H, 't', 00H, ' ', 00H, '!', 00H, '=', 00H, ' ', 00H, 'N'
	DB	00H, 'U', 00H, 'L', 00H, 'L', 00H, 00H, 00H	; `string'
CONST	ENDS
;	COMDAT ??_C@_1BC@NDDHEECE@?$AAm?$AAa?$AAx?$AAl?$AAe?$AAn?$AA?$DO?$AA0@
CONST	SEGMENT
??_C@_1BC@NDDHEECE@?$AAm?$AAa?$AAx?$AAl?$AAe?$AAn?$AA?$DO?$AA0@ DB 'm', 00H
	DB	'a', 00H, 'x', 00H, 'l', 00H, 'e', 00H, 'n', 00H, '>', 00H, '0'
	DB	00H, 00H, 00H				; `string'
CONST	ENDS
;	COMDAT ??_C@_1BI@JNDFFBDE@?$AAp?$AAt?$AAr?$AA?5?$AA?$CB?$AA?$DN?$AA?5?$AAN?$AAU?$AAL?$AAL@
CONST	SEGMENT
??_C@_1BI@JNDFFBDE@?$AAp?$AAt?$AAr?$AA?5?$AA?$CB?$AA?$DN?$AA?5?$AAN?$AAU?$AAL?$AAL@ DB 'p'
	DB	00H, 't', 00H, 'r', 00H, ' ', 00H, '!', 00H, '=', 00H, ' ', 00H
	DB	'N', 00H, 'U', 00H, 'L', 00H, 'L', 00H, 00H, 00H ; `string'
CONST	ENDS
;	COMDAT ??_C@_1BK@FFEIJADH@?$AAb?$AAa?$AAs?$AAe?$AA?5?$AA?$CB?$AA?$DN?$AA?5?$AAN?$AAU?$AAL?$AAL@
CONST	SEGMENT
??_C@_1BK@FFEIJADH@?$AAb?$AAa?$AAs?$AAe?$AA?5?$AA?$CB?$AA?$DN?$AA?5?$AAN?$AAU?$AAL?$AAL@ DB 'b'
	DB	00H, 'a', 00H, 's', 00H, 'e', 00H, ' ', 00H, '!', 00H, '=', 00H
	DB	' ', 00H, 'N', 00H, 'U', 00H, 'L', 00H, 'L', 00H, 00H, 00H ; `string'
CONST	ENDS
;	COMDAT ??_C@_1BI@MFCLPIBM@?$AAs?$AAt?$AAr?$AA?5?$AA?$CB?$AA?$DN?$AA?5?$AAN?$AAU?$AAL?$AAL@
CONST	SEGMENT
??_C@_1BI@MFCLPIBM@?$AAs?$AAt?$AAr?$AA?5?$AA?$CB?$AA?$DN?$AA?5?$AAN?$AAU?$AAL?$AAL@ DB 's'
	DB	00H, 't', 00H, 'r', 00H, ' ', 00H, '!', 00H, '=', 00H, ' ', 00H
	DB	'N', 00H, 'U', 00H, 'L', 00H, 'L', 00H, 00H, 00H ; `string'
CONST	ENDS
;	COMDAT ??_C@_1JC@NEGGBKHC@?$AAC?$AA?3?$AA?2?$AAA?$AAn?$AAk?$AAa?$AA2?$AAP?$AAr?$AAo?$AAj?$AAe?$AAc?$AAt@
CONST	SEGMENT
??_C@_1JC@NEGGBKHC@?$AAC?$AA?3?$AA?2?$AAA?$AAn?$AAk?$AAa?$AA2?$AAP?$AAr?$AAo?$AAj?$AAe?$AAc?$AAt@ DB 'C'
	DB	00H, ':', 00H, '\', 00H, 'A', 00H, 'n', 00H, 'k', 00H, 'a', 00H
	DB	'2', 00H, 'P', 00H, 'r', 00H, 'o', 00H, 'j', 00H, 'e', 00H, 'c'
	DB	00H, 't', 00H, '\', 00H, 'A', 00H, 'n', 00H, 'k', 00H, 'a', 00H
	DB	'2', 00H, 'P', 00H, 'r', 00H, 'o', 00H, 'j', 00H, 'e', 00H, 'c'
	DB	00H, 't', 00H, '\', 00H, 'S', 00H, 'o', 00H, 'u', 00H, 'r', 00H
	DB	'c', 00H, 'e', 00H, '\', 00H, 'B', 00H, 'i', 00H, 'n', 00H, 'a'
	DB	00H, 'r', 00H, 'y', 00H, '\', 00H, 's', 00H, 'o', 00H, 'u', 00H
	DB	'r', 00H, 'c', 00H, 'e', 00H, '\', 00H, 'U', 00H, 's', 00H, 'e'
	DB	00H, 'r', 00H, 'I', 00H, 'n', 00H, 't', 00H, 'e', 00H, 'r', 00H
	DB	'f', 00H, 'a', 00H, 'c', 00H, 'e', 00H, '\', 00H, 'm', 00H, 'i'
	DB	00H, 'n', 00H, 'I', 00H, 'n', 00H, 'i', 00H, '.', 00H, 'c', 00H
	DB	00H, 00H					; `string'
PUBLIC	_ini_putl
PUBLIC	_ini_puts
PUBLIC	_ini_gets
END
