; Listing generated by Microsoft (R) Optimizing Compiler Version 19.44.35219.0 

	TITLE	c:\anka2project\anka2project\source\binary\vs_files\userinterface\release\processscanner.obj
	.686P
	.XMM
	include listing.inc
	.model	flat

INCLUDELIB OLDNAMES

PUBLIC	??_C@_0BH@HGFKAINA@ProcessScanner_ReqExit@	; `string'
PUBLIC	??_C@_0BH@DLJCKJNL@ProcessScanner_ResExit@	; `string'
PUBLIC	??_C@_0BD@HGPDOMOG@CreateThread?5Error@		; `string'
PUBLIC	??_C@_0BI@DABBIDIM@SetThreadPriority?5Error@	; `string'
EXTRN	__imp__SetThreadPriority@8:PROC
EXTRN	?LogBox@@YAXPBD0PAUHWND__@@@Z:PROC		; LogBox
EXTRN	__beginthread:PROC
EXTRN	__imp__CreateEventA@16:PROC
EXTRN	__imp__InitializeCriticalSection@4:PROC
EXTRN	_rand:PROC
EXTRN	__imp__LeaveCriticalSection@4:PROC
EXTRN	__imp__EnterCriticalSection@4:PROC
EXTRN	__imp__DeleteCriticalSection@4:PROC
EXTRN	__imp__WaitForSingleObject@8:PROC
EXTRN	__imp__SetEvent@4:PROC
EXTRN	__imp__Process32Next@8:PROC
EXTRN	__imp__Sleep@4:PROC
EXTRN	__imp__OpenProcess@12:PROC
EXTRN	__imp__Process32First@8:PROC
EXTRN	__imp__GetSystemInfo@4:PROC
?gs_evResExit@@3PAXA DD 01H DUP (?)			; gs_evResExit
?gs_evReqExit@@3PAXA DD 01H DUP (?)			; gs_evReqExit
_BSS	ENDS
;	COMDAT ??_C@_0BI@DABBIDIM@SetThreadPriority?5Error@
CONST	SEGMENT
??_C@_0BI@DABBIDIM@SetThreadPriority?5Error@ DB 'SetThreadPriority Error', 00H ; `string'
CONST	ENDS
;	COMDAT ??_C@_0BD@HGPDOMOG@CreateThread?5Error@
CONST	SEGMENT
??_C@_0BD@HGPDOMOG@CreateThread?5Error@ DB 'CreateThread Error', 00H ; `string'
CONST	ENDS
;	COMDAT ??_C@_0BH@DLJCKJNL@ProcessScanner_ResExit@
CONST	SEGMENT
??_C@_0BH@DLJCKJNL@ProcessScanner_ResExit@ DB 'ProcessScanner_ResExit', 00H ; `string'
CONST	ENDS
;	COMDAT ??_C@_0BH@HGFKAINA@ProcessScanner_ReqExit@
CONST	SEGMENT
??_C@_0BH@HGFKAINA@ProcessScanner_ReqExit@ DB 'ProcessScanner_ReqExit', 00H ; `string'
PUBLIC	??4?$basic_string@DU?$char_traits@D@std@@V?$allocator@D@2@@std@@QAEAAV01@$$QAV01@@Z ; std::basic_string<char,std::char_traits<char>,std::allocator<char> >::operator=
PUBLIC	??$_Pocma@V?$allocator@D@std@@@std@@YAXAAV?$allocator@D@0@0@Z ; std::_Pocma<std::allocator<char> >
PUBLIC	??$?0KK$0A@@?$pair@$$CBKK@std@@QAE@$$QAU?$pair@KK@1@@Z ; std::pair<unsigned long const ,unsigned long>::pair<unsigned long const ,unsigned long><unsigned long,unsigned long,0>
PUBLIC	??0?$pair@KV?$basic_string@DU?$char_traits@D@std@@V?$allocator@D@2@@std@@@std@@QAE@ABU01@@Z ; std::pair<unsigned long,std::basic_string<char,std::char_traits<char>,std::allocator<char> > >::pair<unsigned long,std::basic_string<char,std::char_traits<char>,std::allocator<char> > >
PUBLIC	??$construct_at@U?$pair@KV?$basic_string@DU?$char_traits@D@std@@V?$allocator@D@2@@std@@@std@@AAU12@@std@@YAPAU?$pair@KV?$basic_string@DU?$char_traits@D@std@@V?$allocator@D@2@@std@@@0@QAU10@AAU10@@Z ; std::construct_at<std::pair<unsigned long,std::basic_string<char,std::char_traits<char>,std::allocator<char> > >,std::pair<unsigned long,std::basic_string<char,std::char_traits<char>,std::allocator<char> > > &>
PUBLIC	??$construct_at@U?$pair@$$CBKK@std@@U?$pair@KK@2@@std@@YAPAU?$pair@$$CBKK@0@QAU10@$$QAU?$pair@KK@0@@Z ; std::construct_at<std::pair<unsigned long const ,unsigned long>,std::pair<unsigned long,unsigned long> >
PUBLIC	??$construct_at@U?$pair@KV?$basic_string@DU?$char_traits@D@std@@V?$allocator@D@2@@std@@@std@@U12@@std@@YAPAU?$pair@KV?$basic_string@DU?$char_traits@D@std@@V?$allocator@D@2@@std@@@0@QAU10@$$QAU10@@Z ; std::construct_at<std::pair<unsigned long,std::basic_string<char,std::char_traits<char>,std::allocator<char> > >,std::pair<unsigned long,std::basic_string<char,std::char_traits<char>,std::allocator<char> > > >
PUBLIC	??$addressof@U?$pair@KV?$basic_string@DU?$char_traits@D@std@@V?$allocator@D@2@@std@@@std@@@std@@YAPAU?$pair@KV?$basic_string@DU?$char_traits@D@std@@V?$allocator@D@2@@std@@@0@AAU10@@Z ; std::addressof<std::pair<unsigned long,std::basic_string<char,std::char_traits<char>,std::allocator<char> > > >
PUBLIC	??$construct@U?$pair@KV?$basic_string@DU?$char_traits@D@std@@V?$allocator@D@2@@std@@@std@@AAU12@@?$_Default_allocator_traits@V?$allocator@U?$pair@KV?$basic_string@DU?$char_traits@D@std@@V?$allocator@D@2@@std@@@std@@@std@@@std@@SAXAAV?$allocator@U?$pair@KV?$basic_string@DU?$char_traits@D@std@@V?$allocator@D@2@@std@@@std@@@1@QAU?$pair@KV?$basic_string@DU?$char_traits@D@std@@V?$allocator@D@2@@std@@@1@AAU31@@Z ; std::_Default_allocator_traits<std::allocator<std::pair<unsigned long,std::basic_string<char,std::char_traits<char>,std::allocator<char> > > > >::construct<std::pair<unsigned long,std::basic_string<char,std::char_traits<char>,std::allocator<char> > >,std::pair<unsigned long,std::basic_string<char,std::char_traits<char>,std::allocator<char> > > &>
PUBLIC	??$forward@AAU?$pair@KV?$basic_string@DU?$char_traits@D@std@@V?$allocator@D@2@@std@@@std@@@std@@YAAAU?$pair@KV?$basic_string@DU?$char_traits@D@std@@V?$allocator@D@2@@std@@@0@AAU10@@Z ; std::forward<std::pair<unsigned long,std::basic_string<char,std::char_traits<char>,std::allocator<char> > > &>
PUBLIC	??$construct@U?$pair@$$CBKK@std@@U?$pair@KK@2@@?$_Default_allocator_traits@V?$allocator@U?$_Tree_node@U?$pair@$$CBKK@std@@PAX@std@@@std@@@std@@SAXAAV?$allocator@U?$_Tree_node@U?$pair@$$CBKK@std@@PAX@std@@@1@QAU?$pair@$$CBKK@1@$$QAU?$pair@KK@1@@Z ; std::_Default_allocator_traits<std::allocator<std::_Tree_node<std::pair<unsigned long const ,unsigned long>,void *> > >::construct<std::pair<unsigned long const ,unsigned long>,std::pair<unsigned long,unsigned long> >
PUBLIC	??0?$pair@KV?$basic_string@DU?$char_traits@D@std@@V?$allocator@D@2@@std@@@std@@QAE@$$QAU01@@Z ; std::pair<unsigned long,std::basic_string<char,std::char_traits<char>,std::allocator<char> > >::pair<unsigned long,std::basic_string<char,std::char_traits<char>,std::allocator<char> > >
PUBLIC	??_G?$pair@KV?$basic_string@DU?$char_traits@D@std@@V?$allocator@D@2@@std@@@std@@QAEPAXI@Z ; std::pair<unsigned long,std::basic_string<char,std::char_traits<char>,std::allocator<char> > >::`scalar deleting destructor'
PUBLIC	?allocate@?$allocator@U?$pair@KV?$basic_string@DU?$char_traits@D@std@@V?$allocator@D@2@@std@@@std@@@std@@QAEPAU?$pair@KV?$basic_string@DU?$char_traits@D@std@@V?$allocator@D@2@@std@@@2@I@Z ; std::allocator<std::pair<unsigned long,std::basic_string<char,std::char_traits<char>,std::allocator<char> > > >::allocate
PUBLIC	?capacity@?$vector@U?$pair@KV?$basic_string@DU?$char_traits@D@std@@V?$allocator@D@2@@std@@@std@@V?$allocator@U?$pair@KV?$basic_string@DU?$char_traits@D@std@@V?$allocator@D@2@@std@@@std@@@2@@std@@QBEIXZ ; std::vector<std::pair<unsigned long,std::basic_string<char,std::char_traits<char>,std::allocator<char> > >,std::allocator<std::pair<unsigned long,std::basic_string<char,std::char_traits<char>,std::allocator<char> > > > >::capacity
PUBLIC	?max_size@?$_Default_allocator_traits@V?$allocator@U?$pair@KV?$basic_string@DU?$char_traits@D@std@@V?$allocator@D@2@@std@@@std@@@std@@@std@@SAIABV?$allocator@U?$pair@KV?$basic_string@DU?$char_traits@D@std@@V?$allocator@D@2@@std@@@std@@@2@@Z ; std::_Default_allocator_traits<std::allocator<std::pair<unsigned long,std::basic_string<char,std::char_traits<char>,std::allocator<char> > > > >::max_size
PUBLIC	?_Extract@?$_In_place_key_extract_map_impl@KU?$pair@KK@std@@@std@@SAABKABU?$pair@KK@2@@Z ; std::_In_place_key_extract_map_impl<unsigned long,std::pair<unsigned long,unsigned long> >::_Extract
PUBLIC	??0?$_Uninitialized_backout_al@V?$allocator@U?$pair@KV?$basic_string@DU?$char_traits@D@std@@V?$allocator@D@2@@std@@@std@@@std@@@std@@QAE@PAU?$pair@KV?$basic_string@DU?$char_traits@D@std@@V?$allocator@D@2@@std@@@1@AAV?$allocator@U?$pair@KV?$basic_string@DU?$char_traits@D@std@@V?$allocator@D@2@@std@@@std@@@1@@Z ; std::_Uninitialized_backout_al<std::allocator<std::pair<unsigned long,std::basic_string<char,std::char_traits<char>,std::allocator<char> > > > >::_Uninitialized_backout_al<std::allocator<std::pair<unsigned long,std::basic_string<char,std::char_traits<char>,std::allocator<char> > > > >
PUBLIC	??1?$_Uninitialized_backout_al@V?$allocator@U?$pair@KV?$basic_string@DU?$char_traits@D@std@@V?$allocator@D@2@@std@@@std@@@std@@@std@@QAE@XZ ; std::_Uninitialized_backout_al<std::allocator<std::pair<unsigned long,std::basic_string<char,std::char_traits<char>,std::allocator<char> > > > >::~_Uninitialized_backout_al<std::allocator<std::pair<unsigned long,std::basic_string<char,std::char_traits<char>,std::allocator<char> > > > >
PUBLIC	?_Release@?$_Uninitialized_backout_al@V?$allocator@U?$pair@KV?$basic_string@DU?$char_traits@D@std@@V?$allocator@D@2@@std@@@std@@@std@@@std@@QAEPAU?$pair@KV?$basic_string@DU?$char_traits@D@std@@V?$allocator@D@2@@std@@@2@XZ ; std::_Uninitialized_backout_al<std::allocator<std::pair<unsigned long,std::basic_string<char,std::char_traits<char>,std::allocator<char> > > > >::_Release
PUBLIC	??$construct@U?$pair@KV?$basic_string@DU?$char_traits@D@std@@V?$allocator@D@2@@std@@@std@@U12@@?$_Default_allocator_traits@V?$allocator@U?$pair@KV?$basic_string@DU?$char_traits@D@std@@V?$allocator@D@2@@std@@@std@@@std@@@std@@SAXAAV?$allocator@U?$pair@KV?$basic_string@DU?$char_traits@D@std@@V?$allocator@D@2@@std@@@std@@@1@QAU?$pair@KV?$basic_string@DU?$char_traits@D@std@@V?$allocator@D@2@@std@@@1@$$QAU31@@Z ; std::_Default_allocator_traits<std::allocator<std::pair<unsigned long,std::basic_string<char,std::char_traits<char>,std::allocator<char> > > > >::construct<std::pair<unsigned long,std::basic_string<char,std::char_traits<char>,std::allocator<char> > >,std::pair<unsigned long,std::basic_string<char,std::char_traits<char>,std::allocator<char> > > >
PUBLIC	??$_Construct_in_place@U?$pair@KV?$basic_string@DU?$char_traits@D@std@@V?$allocator@D@2@@std@@@std@@U12@@std@@YAXAAU?$pair@KV?$basic_string@DU?$char_traits@D@std@@V?$allocator@D@2@@std@@@0@$$QAU10@@Z ; std::_Construct_in_place<std::pair<unsigned long,std::basic_string<char,std::char_traits<char>,std::allocator<char> > >,std::pair<unsigned long,std::basic_string<char,std::char_traits<char>,std::allocator<char> > > >
PUBLIC	??$destroy_at@U?$pair@KV?$basic_string@DU?$char_traits@D@std@@V?$allocator@D@2@@std@@@std@@@std@@YAXQAU?$pair@KV?$basic_string@DU?$char_traits@D@std@@V?$allocator@D@2@@std@@@0@@Z ; std::destroy_at<std::pair<unsigned long,std::basic_string<char,std::char_traits<char>,std::allocator<char> > > >
PUBLIC	??$_Emplace_back@U?$pair@KV?$basic_string@DU?$char_traits@D@std@@V?$allocator@D@2@@std@@@std@@@?$_Uninitialized_backout_al@V?$allocator@U?$pair@KV?$basic_string@DU?$char_traits@D@std@@V?$allocator@D@2@@std@@@std@@@std@@@std@@QAEX$$QAU?$pair@KV?$basic_string@DU?$char_traits@D@std@@V?$allocator@D@2@@std@@@1@@Z ; std::_Uninitialized_backout_al<std::allocator<std::pair<unsigned long,std::basic_string<char,std::char_traits<char>,std::allocator<char> > > > >::_Emplace_back<std::pair<unsigned long,std::basic_string<char,std::char_traits<char>,std::allocator<char> > > >
PUBLIC	??$_Emplace_back@AAU?$pair@KV?$basic_string@DU?$char_traits@D@std@@V?$allocator@D@2@@std@@@std@@@?$_Uninitialized_backout_al@V?$allocator@U?$pair@KV?$basic_string@DU?$char_traits@D@std@@V?$allocator@D@2@@std@@@std@@@std@@@std@@QAEXAAU?$pair@KV?$basic_string@DU?$char_traits@D@std@@V?$allocator@D@2@@std@@@1@@Z ; std::_Uninitialized_backout_al<std::allocator<std::pair<unsigned long,std::basic_string<char,std::char_traits<char>,std::allocator<char> > > > >::_Emplace_back<std::pair<unsigned long,std::basic_string<char,std::char_traits<char>,std::allocator<char> > > &>
PUBLIC	??$?0U?$pair@KK@std@@@?$_Tree_temp_node@V?$allocator@U?$_Tree_node@U?$pair@$$CBKK@std@@PAX@std@@@std@@@std@@QAE@AAV?$allocator@U?$_Tree_node@U?$pair@$$CBKK@std@@PAX@std@@@1@PAU?$_Tree_node@U?$pair@$$CBKK@std@@PAX@1@$$QAU?$pair@KK@1@@Z ; std::_Tree_temp_node<std::allocator<std::_Tree_node<std::pair<unsigned long const ,unsigned long>,void *> > >::_Tree_temp_node<std::allocator<std::_Tree_node<std::pair<unsigned long const ,unsigned long>,void *> > ><std::pair<unsigned long,unsigned long> >
PUBLIC	??$?4U?$pair@KV?$basic_string@DU?$char_traits@D@std@@V?$allocator@D@2@@std@@@std@@$0A@@?$pair@KV?$basic_string@DU?$char_traits@D@std@@V?$allocator@D@2@@std@@@std@@QAEAAU01@$$QAU01@@Z ; std::pair<unsigned long,std::basic_string<char,std::char_traits<char>,std::allocator<char> > >::operator=<std::pair<unsigned long,std::basic_string<char,std::char_traits<char>,std::allocator<char> > >,0>
PUBLIC	?deallocate@?$allocator@U?$pair@KV?$basic_string@DU?$char_traits@D@std@@V?$allocator@D@2@@std@@@std@@@std@@QAEXQAU?$pair@KV?$basic_string@DU?$char_traits@D@std@@V?$allocator@D@2@@std@@@2@I@Z ; std::allocator<std::pair<unsigned long,std::basic_string<char,std::char_traits<char>,std::allocator<char> > > >::deallocate
PUBLIC	?max_size@?$vector@U?$pair@KV?$basic_string@DU?$char_traits@D@std@@V?$allocator@D@2@@std@@@std@@V?$allocator@U?$pair@KV?$basic_string@DU?$char_traits@D@std@@V?$allocator@D@2@@std@@@std@@@2@@std@@QBEIXZ ; std::vector<std::pair<unsigned long,std::basic_string<char,std::char_traits<char>,std::allocator<char> > >,std::allocator<std::pair<unsigned long,std::basic_string<char,std::char_traits<char>,std::allocator<char> > > > >::max_size
PUBLIC	?_Calculate_growth@?$vector@U?$pair@KV?$basic_string@DU?$char_traits@D@std@@V?$allocator@D@2@@std@@@std@@V?$allocator@U?$pair@KV?$basic_string@DU?$char_traits@D@std@@V?$allocator@D@2@@std@@@std@@@2@@std@@ABEII@Z ; std::vector<std::pair<unsigned long,std::basic_string<char,std::char_traits<char>,std::allocator<char> > >,std::allocator<std::pair<unsigned long,std::basic_string<char,std::char_traits<char>,std::allocator<char> > > > >::_Calculate_growth
PUBLIC	?_Change_array@?$vector@U?$pair@KV?$basic_string@DU?$char_traits@D@std@@V?$allocator@D@2@@std@@@std@@V?$allocator@U?$pair@KV?$basic_string@DU?$char_traits@D@std@@V?$allocator@D@2@@std@@@std@@@2@@std@@AAEXQAU?$pair@KV?$basic_string@DU?$char_traits@D@std@@V?$allocator@D@2@@std@@@2@II@Z ; std::vector<std::pair<unsigned long,std::basic_string<char,std::char_traits<char>,std::allocator<char> > >,std::allocator<std::pair<unsigned long,std::basic_string<char,std::char_traits<char>,std::allocator<char> > > > >::_Change_array
PUBLIC	?_Xlength@?$vector@U?$pair@KV?$basic_string@DU?$char_traits@D@std@@V?$allocator@D@2@@std@@@std@@V?$allocator@U?$pair@KV?$basic_string@DU?$char_traits@D@std@@V?$allocator@D@2@@std@@@std@@@2@@std@@CAXXZ ; std::vector<std::pair<unsigned long,std::basic_string<char,std::char_traits<char>,std::allocator<char> > >,std::allocator<std::pair<unsigned long,std::basic_string<char,std::char_traits<char>,std::allocator<char> > > > >::_Xlength
PUBLIC	?_Orphan_range@?$vector@U?$pair@KV?$basic_string@DU?$char_traits@D@std@@V?$allocator@D@2@@std@@@std@@V?$allocator@U?$pair@KV?$basic_string@DU?$char_traits@D@std@@V?$allocator@D@2@@std@@@std@@@2@@std@@ABEXPAU?$pair@KV?$basic_string@DU?$char_traits@D@std@@V?$allocator@D@2@@std@@@2@0@Z ; std::vector<std::pair<unsigned long,std::basic_string<char,std::char_traits<char>,std::allocator<char> > >,std::allocator<std::pair<unsigned long,std::basic_string<char,std::char_traits<char>,std::allocator<char> > > > >::_Orphan_range
PUBLIC	??1_Reallocation_guard@?$vector@U?$pair@KV?$basic_string@DU?$char_traits@D@std@@V?$allocator@D@2@@std@@@std@@V?$allocator@U?$pair@KV?$basic_string@DU?$char_traits@D@std@@V?$allocator@D@2@@std@@@std@@@2@@std@@QAE@XZ ; std::vector<std::pair<unsigned long,std::basic_string<char,std::char_traits<char>,std::allocator<char> > >,std::allocator<std::pair<unsigned long,std::basic_string<char,std::char_traits<char>,std::allocator<char> > > > >::_Reallocation_guard::~_Reallocation_guard
PUBLIC	??1_Vaporization_guard@?$vector@U?$pair@KV?$basic_string@DU?$char_traits@D@std@@V?$allocator@D@2@@std@@@std@@V?$allocator@U?$pair@KV?$basic_string@DU?$char_traits@D@std@@V?$allocator@D@2@@std@@@std@@@2@@std@@QAE@XZ ; std::vector<std::pair<unsigned long,std::basic_string<char,std::char_traits<char>,std::allocator<char> > >,std::allocator<std::pair<unsigned long,std::basic_string<char,std::char_traits<char>,std::allocator<char> > > > >::_Vaporization_guard::~_Vaporization_guard
PUBLIC	?_Get_first@?$_Compressed_pair@V?$allocator@U?$pair@KV?$basic_string@DU?$char_traits@D@std@@V?$allocator@D@2@@std@@@std@@@std@@V?$_Vector_val@U?$_Simple_types@U?$pair@KV?$basic_string@DU?$char_traits@D@std@@V?$allocator@D@2@@std@@@std@@@std@@@2@$00@std@@QAEAAV?$allocator@U?$pair@KV?$basic_string@DU?$char_traits@D@std@@V?$allocator@D@2@@std@@@std@@@2@XZ ; std::_Compressed_pair<std::allocator<std::pair<unsigned long,std::basic_string<char,std::char_traits<char>,std::allocator<char> > > >,std::_Vector_val<std::_Simple_types<std::pair<unsigned long,std::basic_string<char,std::char_traits<char>,std::allocator<char> > > > >,1>::_Get_first
PUBLIC	?_Get_first@?$_Compressed_pair@V?$allocator@U?$pair@KV?$basic_string@DU?$char_traits@D@std@@V?$allocator@D@2@@std@@@std@@@std@@V?$_Vector_val@U?$_Simple_types@U?$pair@KV?$basic_string@DU?$char_traits@D@std@@V?$allocator@D@2@@std@@@std@@@std@@@2@$00@std@@QBEABV?$allocator@U?$pair@KV?$basic_string@DU?$char_traits@D@std@@V?$allocator@D@2@@std@@@std@@@2@XZ ; std::_Compressed_pair<std::allocator<std::pair<unsigned long,std::basic_string<char,std::char_traits<char>,std::allocator<char> > > >,std::_Vector_val<std::_Simple_types<std::pair<unsigned long,std::basic_string<char,std::char_traits<char>,std::allocator<char> > > > >,1>::_Get_first
PUBLIC	??$_Unfancy_maybe_null@U?$pair@KV?$basic_string@DU?$char_traits@D@std@@V?$allocator@D@2@@std@@@std@@@std@@YAPAU?$pair@KV?$basic_string@DU?$char_traits@D@std@@V?$allocator@D@2@@std@@@0@PAU10@@Z ; std::_Unfancy_maybe_null<std::pair<unsigned long,std::basic_string<char,std::char_traits<char>,std::allocator<char> > > >
PUBLIC	??$_Emplace_reallocate@U?$pair@KV?$basic_string@DU?$char_traits@D@std@@V?$allocator@D@2@@std@@@std@@@?$vector@U?$pair@KV?$basic_string@DU?$char_traits@D@std@@V?$allocator@D@2@@std@@@std@@V?$allocator@U?$pair@KV?$basic_string@DU?$char_traits@D@std@@V?$allocator@D@2@@std@@@std@@@2@@std@@AAEPAU?$pair@KV?$basic_string@DU?$char_traits@D@std@@V?$allocator@D@2@@std@@@1@QAU21@$$QAU21@@Z ; std::vector<std::pair<unsigned long,std::basic_string<char,std::char_traits<char>,std::allocator<char> > >,std::allocator<std::pair<unsigned long,std::basic_string<char,std::char_traits<char>,std::allocator<char> > > > >::_Emplace_reallocate<std::pair<unsigned long,std::basic_string<char,std::char_traits<char>,std::allocator<char> > > >
PUBLIC	??$_Emplace_back_with_unused_capacity@U?$pair@KV?$basic_string@DU?$char_traits@D@std@@V?$allocator@D@2@@std@@@std@@@?$vector@U?$pair@KV?$basic_string@DU?$char_traits@D@std@@V?$allocator@D@2@@std@@@std@@V?$allocator@U?$pair@KV?$basic_string@DU?$char_traits@D@std@@V?$allocator@D@2@@std@@@std@@@2@@std@@AAEAAU?$pair@KV?$basic_string@DU?$char_traits@D@std@@V?$allocator@D@2@@std@@@1@$$QAU21@@Z ; std::vector<std::pair<unsigned long,std::basic_string<char,std::char_traits<char>,std::allocator<char> > >,std::allocator<std::pair<unsigned long,std::basic_string<char,std::char_traits<char>,std::allocator<char> > > > >::_Emplace_back_with_unused_capacity<std::pair<unsigned long,std::basic_string<char,std::char_traits<char>,std::allocator<char> > > >
PUBLIC	??$forward@U?$pair@KV?$basic_string@DU?$char_traits@D@std@@V?$allocator@D@2@@std@@@std@@@std@@YA$$QAU?$pair@KV?$basic_string@DU?$char_traits@D@std@@V?$allocator@D@2@@std@@@0@AAU10@@Z ; std::forward<std::pair<unsigned long,std::basic_string<char,std::char_traits<char>,std::allocator<char> > > >
PUBLIC	??$destroy@U?$pair@KV?$basic_string@DU?$char_traits@D@std@@V?$allocator@D@2@@std@@@std@@@?$_Default_allocator_traits@V?$allocator@U?$pair@KV?$basic_string@DU?$char_traits@D@std@@V?$allocator@D@2@@std@@@std@@@std@@@std@@SAXAAV?$allocator@U?$pair@KV?$basic_string@DU?$char_traits@D@std@@V?$allocator@D@2@@std@@@std@@@1@QAU?$pair@KV?$basic_string@DU?$char_traits@D@std@@V?$allocator@D@2@@std@@@1@@Z ; std::_Default_allocator_traits<std::allocator<std::pair<unsigned long,std::basic_string<char,std::char_traits<char>,std::allocator<char> > > > >::destroy<std::pair<unsigned long,std::basic_string<char,std::char_traits<char>,std::allocator<char> > > >
PUBLIC	??$_Unfancy@U?$pair@KV?$basic_string@DU?$char_traits@D@std@@V?$allocator@D@2@@std@@@std@@@std@@YAPAU?$pair@KV?$basic_string@DU?$char_traits@D@std@@V?$allocator@D@2@@std@@@0@PAU10@@Z ; std::_Unfancy<std::pair<unsigned long,std::basic_string<char,std::char_traits<char>,std::allocator<char> > > >
PUBLIC	??$_Move_unchecked@PAU?$pair@KV?$basic_string@DU?$char_traits@D@std@@V?$allocator@D@2@@std@@@std@@PAU12@@std@@YAPAU?$pair@KV?$basic_string@DU?$char_traits@D@std@@V?$allocator@D@2@@std@@@0@PAU10@00@Z ; std::_Move_unchecked<std::pair<unsigned long,std::basic_string<char,std::char_traits<char>,std::allocator<char> > > *,std::pair<unsigned long,std::basic_string<char,std::char_traits<char>,std::allocator<char> > > *>
PUBLIC	??$_Move_backward_unchecked@PAU?$pair@KV?$basic_string@DU?$char_traits@D@std@@V?$allocator@D@2@@std@@@std@@PAU12@@std@@YAPAU?$pair@KV?$basic_string@DU?$char_traits@D@std@@V?$allocator@D@2@@std@@@0@PAU10@00@Z ; std::_Move_backward_unchecked<std::pair<unsigned long,std::basic_string<char,std::char_traits<char>,std::allocator<char> > > *,std::pair<unsigned long,std::basic_string<char,std::char_traits<char>,std::allocator<char> > > *>
PUBLIC	??$_Uninitialized_move@PAU?$pair@KV?$basic_string@DU?$char_traits@D@std@@V?$allocator@D@2@@std@@@std@@V?$allocator@U?$pair@KV?$basic_string@DU?$char_traits@D@std@@V?$allocator@D@2@@std@@@std@@@2@@std@@YAPAU?$pair@KV?$basic_string@DU?$char_traits@D@std@@V?$allocator@D@2@@std@@@0@QAU10@0PAU10@AAV?$allocator@U?$pair@KV?$basic_string@DU?$char_traits@D@std@@V?$allocator@D@2@@std@@@std@@@0@@Z ; std::_Uninitialized_move<std::pair<unsigned long,std::basic_string<char,std::char_traits<char>,std::allocator<char> > > *,std::allocator<std::pair<unsigned long,std::basic_string<char,std::char_traits<char>,std::allocator<char> > > > >
PUBLIC	??$_Get_unwrapped@ABQAU?$pair@KV?$basic_string@DU?$char_traits@D@std@@V?$allocator@D@2@@std@@@std@@@std@@YA?A_TABQAU?$pair@KV?$basic_string@DU?$char_traits@D@std@@V?$allocator@D@2@@std@@@0@@Z ; std::_Get_unwrapped<std::pair<unsigned long,std::basic_string<char,std::char_traits<char>,std::allocator<char> > > * const &>
PUBLIC	??$_Uninitialized_copy_n@PAU?$pair@KV?$basic_string@DU?$char_traits@D@std@@V?$allocator@D@2@@std@@@std@@V?$allocator@U?$pair@KV?$basic_string@DU?$char_traits@D@std@@V?$allocator@D@2@@std@@@std@@@2@@std@@YAPAU?$pair@KV?$basic_string@DU?$char_traits@D@std@@V?$allocator@D@2@@std@@@0@PAU10@I0AAV?$allocator@U?$pair@KV?$basic_string@DU?$char_traits@D@std@@V?$allocator@D@2@@std@@@std@@@0@@Z ; std::_Uninitialized_copy_n<std::pair<unsigned long,std::basic_string<char,std::char_traits<char>,std::allocator<char> > > *,std::allocator<std::pair<unsigned long,std::basic_string<char,std::char_traits<char>,std::allocator<char> > > > >
PUBLIC	??$_Get_unwrapped@PAU?$pair@KV?$basic_string@DU?$char_traits@D@std@@V?$allocator@D@2@@std@@@std@@@std@@YA?A_T$$QAPAU?$pair@KV?$basic_string@DU?$char_traits@D@std@@V?$allocator@D@2@@std@@@0@@Z ; std::_Get_unwrapped<std::pair<unsigned long,std::basic_string<char,std::char_traits<char>,std::allocator<char> > > *>
PUBLIC	??$move@AAPAU?$pair@KV?$basic_string@DU?$char_traits@D@std@@V?$allocator@D@2@@std@@@std@@@std@@YA$$QAPAU?$pair@KV?$basic_string@DU?$char_traits@D@std@@V?$allocator@D@2@@std@@@0@AAPAU10@@Z ; std::move<std::pair<unsigned long,std::basic_string<char,std::char_traits<char>,std::allocator<char> > > * &>
PUBLIC	??$_Allocate_at_least_helper@V?$allocator@U?$pair@KV?$basic_string@DU?$char_traits@D@std@@V?$allocator@D@2@@std@@@std@@@std@@@std@@YAPAU?$pair@KV?$basic_string@DU?$char_traits@D@std@@V?$allocator@D@2@@std@@@0@AAV?$allocator@U?$pair@KV?$basic_string@DU?$char_traits@D@std@@V?$allocator@D@2@@std@@@std@@@0@AAI@Z ; std::_Allocate_at_least_helper<std::allocator<std::pair<unsigned long,std::basic_string<char,std::char_traits<char>,std::allocator<char> > > > >
PUBLIC	??$_Emplace@U?$pair@KK@std@@@?$_Tree@V?$_Tmap_traits@KKU?$less@K@std@@V?$allocator@U?$pair@$$CBKK@std@@@2@$0A@@std@@@std@@IAE?AU?$pair@PAU?$_Tree_node@U?$pair@$$CBKK@std@@PAX@std@@_N@1@$$QAU?$pair@KK@1@@Z ; std::_Tree<std::_Tmap_traits<unsigned long,unsigned long,std::less<unsigned long>,std::allocator<std::pair<unsigned long const ,unsigned long> >,0> >::_Emplace<std::pair<unsigned long,unsigned long> >
PUBLIC	?_Tidy@?$vector@U?$pair@KV?$basic_string@DU?$char_traits@D@std@@V?$allocator@D@2@@std@@@std@@V?$allocator@U?$pair@KV?$basic_string@DU?$char_traits@D@std@@V?$allocator@D@2@@std@@@std@@@2@@std@@AAEXXZ ; std::vector<std::pair<unsigned long,std::basic_string<char,std::char_traits<char>,std::allocator<char> > >,std::allocator<std::pair<unsigned long,std::basic_string<char,std::char_traits<char>,std::allocator<char> > > > >::_Tidy
PUBLIC	?_Getal@?$vector@U?$pair@KV?$basic_string@DU?$char_traits@D@std@@V?$allocator@D@2@@std@@@std@@V?$allocator@U?$pair@KV?$basic_string@DU?$char_traits@D@std@@V?$allocator@D@2@@std@@@std@@@2@@std@@AAEAAV?$allocator@U?$pair@KV?$basic_string@DU?$char_traits@D@std@@V?$allocator@D@2@@std@@@std@@@2@XZ ; std::vector<std::pair<unsigned long,std::basic_string<char,std::char_traits<char>,std::allocator<char> > >,std::allocator<std::pair<unsigned long,std::basic_string<char,std::char_traits<char>,std::allocator<char> > > > >::_Getal
PUBLIC	?_Getal@?$vector@U?$pair@KV?$basic_string@DU?$char_traits@D@std@@V?$allocator@D@2@@std@@@std@@V?$allocator@U?$pair@KV?$basic_string@DU?$char_traits@D@std@@V?$allocator@D@2@@std@@@std@@@2@@std@@ABEABV?$allocator@U?$pair@KV?$basic_string@DU?$char_traits@D@std@@V?$allocator@D@2@@std@@@std@@@2@XZ ; std::vector<std::pair<unsigned long,std::basic_string<char,std::char_traits<char>,std::allocator<char> > >,std::allocator<std::pair<unsigned long,std::basic_string<char,std::char_traits<char>,std::allocator<char> > > > >::_Getal
PUBLIC	?_Make_iterator_offset@?$vector@U?$pair@KV?$basic_string@DU?$char_traits@D@std@@V?$allocator@D@2@@std@@@std@@V?$allocator@U?$pair@KV?$basic_string@DU?$char_traits@D@std@@V?$allocator@D@2@@std@@@std@@@2@@std@@AAE?AV?$_Vector_iterator@V?$_Vector_val@U?$_Simple_types@U?$pair@KV?$basic_string@DU?$char_traits@D@std@@V?$allocator@D@2@@std@@@std@@@std@@@std@@@2@I@Z ; std::vector<std::pair<unsigned long,std::basic_string<char,std::char_traits<char>,std::allocator<char> > >,std::allocator<std::pair<unsigned long,std::basic_string<char,std::char_traits<char>,std::allocator<char> > > > >::_Make_iterator_offset
PUBLIC	?_Unwrapped@?$_Vector_iterator@V?$_Vector_val@U?$_Simple_types@U?$pair@KV?$basic_string@DU?$char_traits@D@std@@V?$allocator@D@2@@std@@@std@@@std@@@std@@@std@@QBEPAU?$pair@KV?$basic_string@DU?$char_traits@D@std@@V?$allocator@D@2@@std@@@2@XZ ; std::_Vector_iterator<std::_Vector_val<std::_Simple_types<std::pair<unsigned long,std::basic_string<char,std::char_traits<char>,std::allocator<char> > > > > >::_Unwrapped
PUBLIC	??0?$_Vector_const_iterator@V?$_Vector_val@U?$_Simple_types@U?$pair@KV?$basic_string@DU?$char_traits@D@std@@V?$allocator@D@2@@std@@@std@@@std@@@std@@@std@@QAE@PAU?$pair@KV?$basic_string@DU?$char_traits@D@std@@V?$allocator@D@2@@std@@@1@PBU_Container_base0@1@@Z ; std::_Vector_const_iterator<std::_Vector_val<std::_Simple_types<std::pair<unsigned long,std::basic_string<char,std::char_traits<char>,std::allocator<char> > > > > >::_Vector_const_iterator<std::_Vector_val<std::_Simple_types<std::pair<unsigned long,std::basic_string<char,std::char_traits<char>,std::allocator<char> > > > > >
PUBLIC	??$_Emplace_one_at_back@U?$pair@KV?$basic_string@DU?$char_traits@D@std@@V?$allocator@D@2@@std@@@std@@@?$vector@U?$pair@KV?$basic_string@DU?$char_traits@D@std@@V?$allocator@D@2@@std@@@std@@V?$allocator@U?$pair@KV?$basic_string@DU?$char_traits@D@std@@V?$allocator@D@2@@std@@@std@@@2@@std@@AAEAAU?$pair@KV?$basic_string@DU?$char_traits@D@std@@V?$allocator@D@2@@std@@@1@$$QAU21@@Z ; std::vector<std::pair<unsigned long,std::basic_string<char,std::char_traits<char>,std::allocator<char> > >,std::allocator<std::pair<unsigned long,std::basic_string<char,std::char_traits<char>,std::allocator<char> > > > >::_Emplace_one_at_back<std::pair<unsigned long,std::basic_string<char,std::char_traits<char>,std::allocator<char> > > >
PUBLIC	??$move@AAU?$pair@KV?$basic_string@DU?$char_traits@D@std@@V?$allocator@D@2@@std@@@std@@@std@@YA$$QAU?$pair@KV?$basic_string@DU?$char_traits@D@std@@V?$allocator@D@2@@std@@@0@AAU10@@Z ; std::move<std::pair<unsigned long,std::basic_string<char,std::char_traits<char>,std::allocator<char> > > &>
PUBLIC	??$_Destroy_range@V?$allocator@U?$pair@KV?$basic_string@DU?$char_traits@D@std@@V?$allocator@D@2@@std@@@std@@@std@@@std@@YAXPAU?$pair@KV?$basic_string@DU?$char_traits@D@std@@V?$allocator@D@2@@std@@@0@QAU10@AAV?$allocator@U?$pair@KV?$basic_string@DU?$char_traits@D@std@@V?$allocator@D@2@@std@@@std@@@0@@Z ; std::_Destroy_range<std::allocator<std::pair<unsigned long,std::basic_string<char,std::char_traits<char>,std::allocator<char> > > > >
PUBLIC	??$addressof@V?$_Vector_val@U?$_Simple_types@U?$pair@KV?$basic_string@DU?$char_traits@D@std@@V?$allocator@D@2@@std@@@std@@@std@@@std@@@std@@YAPAV?$_Vector_val@U?$_Simple_types@U?$pair@KV?$basic_string@DU?$char_traits@D@std@@V?$allocator@D@2@@std@@@std@@@std@@@0@AAV10@@Z ; std::addressof<std::_Vector_val<std::_Simple_types<std::pair<unsigned long,std::basic_string<char,std::char_traits<char>,std::allocator<char> > > > > >
PUBLIC	??$_Insert_counted_range@PAU?$pair@KV?$basic_string@DU?$char_traits@D@std@@V?$allocator@D@2@@std@@@std@@@?$vector@U?$pair@KV?$basic_string@DU?$char_traits@D@std@@V?$allocator@D@2@@std@@@std@@V?$allocator@U?$pair@KV?$basic_string@DU?$char_traits@D@std@@V?$allocator@D@2@@std@@@std@@@2@@std@@AAEXV?$_Vector_const_iterator@V?$_Vector_val@U?$_Simple_types@U?$pair@KV?$basic_string@DU?$char_traits@D@std@@V?$allocator@D@2@@std@@@std@@@std@@@std@@@1@PAU?$pair@KV?$basic_string@DU?$char_traits@D@std@@V?$allocator@D@2@@std@@@1@I@Z ; std::vector<std::pair<unsigned long,std::basic_string<char,std::char_traits<char>,std::allocator<char> > >,std::allocator<std::pair<unsigned long,std::basic_string<char,std::char_traits<char>,std::allocator<char> > > > >::_Insert_counted_range<std::pair<unsigned long,std::basic_string<char,std::char_traits<char>,std::allocator<char> > > *>
PUBLIC	??$distance@PAU?$pair@KV?$basic_string@DU?$char_traits@D@std@@V?$allocator@D@2@@std@@@std@@@std@@YAHPAU?$pair@KV?$basic_string@DU?$char_traits@D@std@@V?$allocator@D@2@@std@@@0@0@Z ; std::distance<std::pair<unsigned long,std::basic_string<char,std::char_traits<char>,std::allocator<char> > > *>
PUBLIC	??$_Adl_verify_range@V?$_Vector_iterator@V?$_Vector_val@U?$_Simple_types@U?$pair@KV?$basic_string@DU?$char_traits@D@std@@V?$allocator@D@2@@std@@@std@@@std@@@std@@@std@@V12@@std@@YAXABV?$_Vector_iterator@V?$_Vector_val@U?$_Simple_types@U?$pair@KV?$basic_string@DU?$char_traits@D@std@@V?$allocator@D@2@@std@@@std@@@std@@@std@@@0@0@Z ; std::_Adl_verify_range<std::_Vector_iterator<std::_Vector_val<std::_Simple_types<std::pair<unsigned long,std::basic_string<char,std::char_traits<char>,std::allocator<char> > > > > >,std::_Vector_iterator<std::_Vector_val<std::_Simple_types<std::pair<unsigned long,std::basic_string<char,std::char_traits<char>,std::allocator<char> > > > > > >
PUBLIC	??$?0AAKPBD$0A@@?$pair@KPBD@std@@QAE@AAK$$QAPBD@Z ; std::pair<unsigned long,char const *>::pair<unsigned long,char const *><unsigned long &,char const *,0>
PUBLIC	??$emplace@U?$pair@KK@std@@@?$_Tree@V?$_Tmap_traits@KKU?$less@K@std@@V?$allocator@U?$pair@$$CBKK@std@@@2@$0A@@std@@@std@@QAE?AU?$pair@V?$_Tree_iterator@V?$_Tree_val@U?$_Tree_simple_types@U?$pair@$$CBKK@std@@@std@@@std@@@std@@_N@1@$$QAU?$pair@KK@1@@Z ; std::_Tree<std::_Tmap_traits<unsigned long,unsigned long,std::less<unsigned long>,std::allocator<std::pair<unsigned long const ,unsigned long> >,0> >::emplace<std::pair<unsigned long,unsigned long> >
PUBLIC	??$forward@U?$pair@KK@std@@@std@@YA$$QAU?$pair@KK@0@AAU10@@Z ; std::forward<std::pair<unsigned long,unsigned long> >
PUBLIC	??$?0AAKAAK$0A@@?$pair@KK@std@@QAE@AAK0@Z	; std::pair<unsigned long,unsigned long>::pair<unsigned long,unsigned long><unsigned long &,unsigned long &,0>
PUBLIC	??1?$vector@U?$pair@KV?$basic_string@DU?$char_traits@D@std@@V?$allocator@D@2@@std@@@std@@V?$allocator@U?$pair@KV?$basic_string@DU?$char_traits@D@std@@V?$allocator@D@2@@std@@@std@@@2@@std@@QAE@XZ ; std::vector<std::pair<unsigned long,std::basic_string<char,std::char_traits<char>,std::allocator<char> > >,std::allocator<std::pair<unsigned long,std::basic_string<char,std::char_traits<char>,std::allocator<char> > > > >::~vector<std::pair<unsigned long,std::basic_string<char,std::char_traits<char>,std::allocator<char> > >,std::allocator<std::pair<unsigned long,std::basic_string<char,std::char_traits<char>,std::allocator<char> > > > >
PUBLIC	?push_back@?$vector@U?$pair@KV?$basic_string@DU?$char_traits@D@std@@V?$allocator@D@2@@std@@@std@@V?$allocator@U?$pair@KV?$basic_string@DU?$char_traits@D@std@@V?$allocator@D@2@@std@@@std@@@2@@std@@QAEX$$QAU?$pair@KV?$basic_string@DU?$char_traits@D@std@@V?$allocator@D@2@@std@@@2@@Z ; std::vector<std::pair<unsigned long,std::basic_string<char,std::char_traits<char>,std::allocator<char> > >,std::allocator<std::pair<unsigned long,std::basic_string<char,std::char_traits<char>,std::allocator<char> > > > >::push_back
PUBLIC	?clear@?$vector@U?$pair@KV?$basic_string@DU?$char_traits@D@std@@V?$allocator@D@2@@std@@@std@@V?$allocator@U?$pair@KV?$basic_string@DU?$char_traits@D@std@@V?$allocator@D@2@@std@@@std@@@2@@std@@QAEXXZ ; std::vector<std::pair<unsigned long,std::basic_string<char,std::char_traits<char>,std::allocator<char> > >,std::allocator<std::pair<unsigned long,std::basic_string<char,std::char_traits<char>,std::allocator<char> > > > >::clear
PUBLIC	?begin@?$vector@U?$pair@KV?$basic_string@DU?$char_traits@D@std@@V?$allocator@D@2@@std@@@std@@V?$allocator@U?$pair@KV?$basic_string@DU?$char_traits@D@std@@V?$allocator@D@2@@std@@@std@@@2@@std@@QAE?AV?$_Vector_iterator@V?$_Vector_val@U?$_Simple_types@U?$pair@KV?$basic_string@DU?$char_traits@D@std@@V?$allocator@D@2@@std@@@std@@@std@@@std@@@2@XZ ; std::vector<std::pair<unsigned long,std::basic_string<char,std::char_traits<char>,std::allocator<char> > >,std::allocator<std::pair<unsigned long,std::basic_string<char,std::char_traits<char>,std::allocator<char> > > > >::begin
PUBLIC	??0?$_Vector_iterator@V?$_Vector_val@U?$_Simple_types@U?$pair@KV?$basic_string@DU?$char_traits@D@std@@V?$allocator@D@2@@std@@@std@@@std@@@std@@@std@@QAE@PAU?$pair@KV?$basic_string@DU?$char_traits@D@std@@V?$allocator@D@2@@std@@@1@PBU_Container_base0@1@@Z ; std::_Vector_iterator<std::_Vector_val<std::_Simple_types<std::pair<unsigned long,std::basic_string<char,std::char_traits<char>,std::allocator<char> > > > > >::_Vector_iterator<std::_Vector_val<std::_Simple_types<std::pair<unsigned long,std::basic_string<char,std::char_traits<char>,std::allocator<char> > > > > >
PUBLIC	?end@?$vector@U?$pair@KV?$basic_string@DU?$char_traits@D@std@@V?$allocator@D@2@@std@@@std@@V?$allocator@U?$pair@KV?$basic_string@DU?$char_traits@D@std@@V?$allocator@D@2@@std@@@std@@@2@@std@@QAE?AV?$_Vector_iterator@V?$_Vector_val@U?$_Simple_types@U?$pair@KV?$basic_string@DU?$char_traits@D@std@@V?$allocator@D@2@@std@@@std@@@std@@@std@@@2@XZ ; std::vector<std::pair<unsigned long,std::basic_string<char,std::char_traits<char>,std::allocator<char> > >,std::allocator<std::pair<unsigned long,std::basic_string<char,std::char_traits<char>,std::allocator<char> > > > >::end
PUBLIC	??$_Get_unwrapped@AAV?$_Vector_iterator@V?$_Vector_val@U?$_Simple_types@U?$pair@KV?$basic_string@DU?$char_traits@D@std@@V?$allocator@D@2@@std@@@std@@@std@@@std@@@std@@@std@@YA?A_TAAV?$_Vector_iterator@V?$_Vector_val@U?$_Simple_types@U?$pair@KV?$basic_string@DU?$char_traits@D@std@@V?$allocator@D@2@@std@@@std@@@std@@@std@@@0@@Z ; std::_Get_unwrapped<std::_Vector_iterator<std::_Vector_val<std::_Simple_types<std::pair<unsigned long,std::basic_string<char,std::char_traits<char>,std::allocator<char> > > > > > &>
PUBLIC	??$insert@V?$_Vector_iterator@V?$_Vector_val@U?$_Simple_types@U?$pair@KV?$basic_string@DU?$char_traits@D@std@@V?$allocator@D@2@@std@@@std@@@std@@@std@@@std@@$0A@@?$vector@U?$pair@KV?$basic_string@DU?$char_traits@D@std@@V?$allocator@D@2@@std@@@std@@V?$allocator@U?$pair@KV?$basic_string@DU?$char_traits@D@std@@V?$allocator@D@2@@std@@@std@@@2@@std@@QAE?AV?$_Vector_iterator@V?$_Vector_val@U?$_Simple_types@U?$pair@KV?$basic_string@DU?$char_traits@D@std@@V?$allocator@D@2@@std@@@std@@@std@@@std@@@1@V?$_Vector_const_iterator@V?$_Vector_val@U?$_Simple_types@U?$pair@KV?$basic_string@DU?$char_traits@D@std@@V?$allocator@D@2@@std@@@std@@@std@@@std@@@1@V21@1@Z ; std::vector<std::pair<unsigned long,std::basic_string<char,std::char_traits<char>,std::allocator<char> > >,std::allocator<std::pair<unsigned long,std::basic_string<char,std::char_traits<char>,std::allocator<char> > > > >::insert<std::_Vector_iterator<std::_Vector_val<std::_Simple_types<std::pair<unsigned long,std::basic_string<char,std::char_traits<char>,std::allocator<char> > > > > >,0>
PUBLIC	??$?0KPBD$0A@@?$pair@KV?$basic_string@DU?$char_traits@D@std@@V?$allocator@D@2@@std@@@std@@QAE@$$QAU?$pair@KPBD@1@@Z ; std::pair<unsigned long,std::basic_string<char,std::char_traits<char>,std::allocator<char> > >::pair<unsigned long,std::basic_string<char,std::char_traits<char>,std::allocator<char> > ><unsigned long,char const *,0>
PUBLIC	??$make_pair@AAKPBD@std@@YA?AU?$pair@KPBD@0@AAK$$QAPBD@Z ; std::make_pair<unsigned long &,char const *>
PUBLIC	??$insert@U?$pair@KK@std@@$0A@@?$map@KKU?$less@K@std@@V?$allocator@U?$pair@$$CBKK@std@@@2@@std@@QAE?AU?$pair@V?$_Tree_iterator@V?$_Tree_val@U?$_Tree_simple_types@U?$pair@$$CBKK@std@@@std@@@std@@@std@@_N@1@$$QAU?$pair@KK@1@@Z ; std::map<unsigned long,unsigned long,std::less<unsigned long>,std::allocator<std::pair<unsigned long const ,unsigned long> > >::insert<std::pair<unsigned long,unsigned long>,0>
PUBLIC	??$make_pair@AAKAAK@std@@YA?AU?$pair@KK@0@AAK0@Z ; std::make_pair<unsigned long &,unsigned long &>
PUBLIC	?ProcessScanner_Thread@@YAXPAX@Z		; ProcessScanner_Thread
PUBLIC	?ScanProcessList@@YAXAAV?$map@KKU?$less@K@std@@V?$allocator@U?$pair@$$CBKK@std@@@2@@std@@PAV?$vector@U?$pair@KV?$basic_string@DU?$char_traits@D@std@@V?$allocator@D@2@@std@@@std@@V?$allocator@U?$pair@KV?$basic_string@DU?$char_traits@D@std@@V?$allocator@D@2@@std@@@std@@@2@@2@@Z ; ScanProcessList
PUBLIC	??0?$_Vector_val@U?$_Simple_types@U?$pair@KV?$basic_string@DU?$char_traits@D@std@@V?$allocator@D@2@@std@@@std@@@std@@@std@@QAE@XZ ; std::_Vector_val<std::_Simple_types<std::pair<unsigned long,std::basic_string<char,std::char_traits<char>,std::allocator<char> > > > >::_Vector_val<std::_Simple_types<std::pair<unsigned long,std::basic_string<char,std::char_traits<char>,std::allocator<char> > > > >
PUBLIC	??0?$allocator@U?$pair@KV?$basic_string@DU?$char_traits@D@std@@V?$allocator@D@2@@std@@@std@@@std@@QAE@XZ ; std::allocator<std::pair<unsigned long,std::basic_string<char,std::char_traits<char>,std::allocator<char> > > >::allocator<std::pair<unsigned long,std::basic_string<char,std::char_traits<char>,std::allocator<char> > > >
PUBLIC	??$?0$$V@?$_Compressed_pair@V?$allocator@U?$pair@KV?$basic_string@DU?$char_traits@D@std@@V?$allocator@D@2@@std@@@std@@@std@@V?$_Vector_val@U?$_Simple_types@U?$pair@KV?$basic_string@DU?$char_traits@D@std@@V?$allocator@D@2@@std@@@std@@@std@@@2@$00@std@@QAE@U_Zero_then_variadic_args_t@1@@Z ; std::_Compressed_pair<std::allocator<std::pair<unsigned long,std::basic_string<char,std::char_traits<char>,std::allocator<char> > > >,std::_Vector_val<std::_Simple_types<std::pair<unsigned long,std::basic_string<char,std::char_traits<char>,std::allocator<char> > > > >,1>::_Compressed_pair<std::allocator<std::pair<unsigned long,std::basic_string<char,std::char_traits<char>,std::allocator<char> > > >,std::_Vector_val<std::_Simple_types<std::pair<unsigned long,std::basic_string<char,std::char_traits<char>,std::allocator<char> > > > >,1><>
PUBLIC	??0?$vector@U?$pair@KV?$basic_string@DU?$char_traits@D@std@@V?$allocator@D@2@@std@@@std@@V?$allocator@U?$pair@KV?$basic_string@DU?$char_traits@D@std@@V?$allocator@D@2@@std@@@std@@@2@@std@@QAE@XZ ; std::vector<std::pair<unsigned long,std::basic_string<char,std::char_traits<char>,std::allocator<char> > >,std::allocator<std::pair<unsigned long,std::basic_string<char,std::char_traits<char>,std::allocator<char> > > > >::vector<std::pair<unsigned long,std::basic_string<char,std::char_traits<char>,std::allocator<char> > >,std::allocator<std::pair<unsigned long,std::basic_string<char,std::char_traits<char>,std::allocator<char> > > > >
	ALIGN	4

?gs_kVct_crcPair@@3V?$vector@U?$pair@KV?$basic_string@DU?$char_traits@D@std@@V?$allocator@D@2@@std@@@std@@V?$allocator@U?$pair@KV?$basic_string@DU?$char_traits@D@std@@V?$allocator@D@2@@std@@@std@@@2@@std@@A DB 0cH DUP (?) ; gs_kVct_crcPair
?gs_csData@@3U_RTL_CRITICAL_SECTION@@A DB 018H DUP (?)	; gs_csData
_BSS	ENDS
;	COMDAT xdata$x
xdata$x	SEGMENT
__ehfuncinfo$?ScanProcessList@@YAXAAV?$map@KKU?$less@K@std@@V?$allocator@U?$pair@$$CBKK@std@@@2@@std@@PAV?$vector@U?$pair@KV?$basic_string@DU?$char_traits@D@std@@V?$allocator@D@2@@std@@@std@@V?$allocator@U?$pair@KV?$basic_string@DU?$char_traits@D@std@@V?$allocator@D@2@@std@@@std@@@2@@2@@Z DD 019930522H
	DD	01H
	DD	FLAT:__unwindtable$?ScanProcessList@@YAXAAV?$map@KKU?$less@K@std@@V?$allocator@U?$pair@$$CBKK@std@@@2@@std@@PAV?$vector@U?$pair@KV?$basic_string@DU?$char_traits@D@std@@V?$allocator@D@2@@std@@@std@@V?$allocator@U?$pair@KV?$basic_string@DU?$char_traits@D@std@@V?$allocator@D@2@@std@@@std@@@2@@2@@Z
	DD	2 DUP(00H)
	DD	2 DUP(00H)
	DD	00H
	DD	01H
__unwindtable$?ScanProcessList@@YAXAAV?$map@KKU?$less@K@std@@V?$allocator@U?$pair@$$CBKK@std@@@2@@std@@PAV?$vector@U?$pair@KV?$basic_string@DU?$char_traits@D@std@@V?$allocator@D@2@@std@@@std@@V?$allocator@U?$pair@KV?$basic_string@DU?$char_traits@D@std@@V?$allocator@D@2@@std@@@std@@@2@@2@@Z DD 0ffffffffH
	DD	FLAT:__unwindfunclet$?ScanProcessList@@YAXAAV?$map@KKU?$less@K@std@@V?$allocator@U?$pair@$$CBKK@std@@@2@@std@@PAV?$vector@U?$pair@KV?$basic_string@DU?$char_traits@D@std@@V?$allocator@D@2@@std@@@std@@V?$allocator@U?$pair@KV?$basic_string@DU?$char_traits@D@std@@V?$allocator@D@2@@std@@@std@@@2@@2@@Z$0
xdata$x	ENDS
;	COMDAT xdata$x
xdata$x	SEGMENT
__ehfuncinfo$?ProcessScanner_Thread@@YAXPAX@Z DD 019930522H
	DD	02H
	DD	FLAT:__unwindtable$?ProcessScanner_Thread@@YAXPAX@Z
	DD	2 DUP(00H)
	DD	2 DUP(00H)
	DD	00H
	DD	01H
__unwindtable$?ProcessScanner_Thread@@YAXPAX@Z DD 0ffffffffH
	DD	FLAT:__unwindfunclet$?ProcessScanner_Thread@@YAXPAX@Z$0
	DD	00H
	DD	FLAT:__unwindfunclet$?ProcessScanner_Thread@@YAXPAX@Z$1
xdata$x	ENDS
;	COMDAT xdata$x
xdata$x	SEGMENT
__ehfuncinfo$??$emplace@U?$pair@KK@std@@@?$_Tree@V?$_Tmap_traits@KKU?$less@K@std@@V?$allocator@U?$pair@$$CBKK@std@@@2@$0A@@std@@@std@@QAE?AU?$pair@V?$_Tree_iterator@V?$_Tree_val@U?$_Tree_simple_types@U?$pair@$$CBKK@std@@@std@@@std@@@std@@_N@1@$$QAU?$pair@KK@1@@Z DQ 00000000119930522r ; 2.33398e-314
	DD	FLAT:__unwindtable$??$emplace@U?$pair@KK@std@@@?$_Tree@V?$_Tmap_traits@KKU?$less@K@std@@V?$allocator@U?$pair@$$CBKK@std@@@2@$0A@@std@@@std@@QAE?AU?$pair@V?$_Tree_iterator@V?$_Tree_val@U?$_Tree_simple_types@U?$pair@$$CBKK@std@@@std@@@std@@@std@@_N@1@$$QAU?$pair@KK@1@@Z
	DQ	00000000000000000r		; 0
	DQ	00000000000000000r		; 0
	DQ	00000000100000000r		; 2.122e-314
__unwindtable$??$emplace@U?$pair@KK@std@@@?$_Tree@V?$_Tmap_traits@KKU?$less@K@std@@V?$allocator@U?$pair@$$CBKK@std@@@2@$0A@@std@@@std@@QAE?AU?$pair@V?$_Tree_iterator@V?$_Tree_val@U?$_Tree_simple_types@U?$pair@$$CBKK@std@@@std@@@std@@@std@@_N@1@$$QAU?$pair@KK@1@@Z DD 0ffffffffH
	DD	FLAT:__unwindfunclet$??$emplace@U?$pair@KK@std@@@?$_Tree@V?$_Tmap_traits@KKU?$less@K@std@@V?$allocator@U?$pair@$$CBKK@std@@@2@$0A@@std@@@std@@QAE?AU?$pair@V?$_Tree_iterator@V?$_Tree_val@U?$_Tree_simple_types@U?$pair@$$CBKK@std@@@std@@@std@@@std@@_N@1@$$QAU?$pair@KK@1@@Z$2
xdata$x	ENDS
;	COMDAT xdata$x
xdata$x	SEGMENT
__ehfuncinfo$??$_Insert_counted_range@PAU?$pair@KV?$basic_string@DU?$char_traits@D@std@@V?$allocator@D@2@@std@@@std@@@?$vector@U?$pair@KV?$basic_string@DU?$char_traits@D@std@@V?$allocator@D@2@@std@@@std@@V?$allocator@U?$pair@KV?$basic_string@DU?$char_traits@D@std@@V?$allocator@D@2@@std@@@std@@@2@@std@@AAEXV?$_Vector_const_iterator@V?$_Vector_val@U?$_Simple_types@U?$pair@KV?$basic_string@DU?$char_traits@D@std@@V?$allocator@D@2@@std@@@std@@@std@@@std@@@1@PAU?$pair@KV?$basic_string@DU?$char_traits@D@std@@V?$allocator@D@2@@std@@@1@I@Z DQ 00000000a19930522r ; 2.14319e-313
	DD	FLAT:__unwindtable$??$_Insert_counted_range@PAU?$pair@KV?$basic_string@DU?$char_traits@D@std@@V?$allocator@D@2@@std@@@std@@@?$vector@U?$pair@KV?$basic_string@DU?$char_traits@D@std@@V?$allocator@D@2@@std@@@std@@V?$allocator@U?$pair@KV?$basic_string@DU?$char_traits@D@std@@V?$allocator@D@2@@std@@@std@@@2@@std@@AAEXV?$_Vector_const_iterator@V?$_Vector_val@U?$_Simple_types@U?$pair@KV?$basic_string@DU?$char_traits@D@std@@V?$allocator@D@2@@std@@@std@@@std@@@std@@@1@PAU?$pair@KV?$basic_string@DU?$char_traits@D@std@@V?$allocator@D@2@@std@@@1@I@Z
	DD	02H
	DD	FLAT:__tryblocktable$??$_Insert_counted_range@PAU?$pair@KV?$basic_string@DU?$char_traits@D@std@@V?$allocator@D@2@@std@@@std@@@?$vector@U?$pair@KV?$basic_string@DU?$char_traits@D@std@@V?$allocator@D@2@@std@@@std@@V?$allocator@U?$pair@KV?$basic_string@DU?$char_traits@D@std@@V?$allocator@D@2@@std@@@std@@@2@@std@@AAEXV?$_Vector_const_iterator@V?$_Vector_val@U?$_Simple_types@U?$pair@KV?$basic_string@DU?$char_traits@D@std@@V?$allocator@D@2@@std@@@std@@@std@@@std@@@1@PAU?$pair@KV?$basic_string@DU?$char_traits@D@std@@V?$allocator@D@2@@std@@@1@I@Z
	DQ	00000000000000000r		; 0
	DQ	00000000100000000r		; 2.122e-314
	ORG $+4
__unwindtable$??$_Insert_counted_range@PAU?$pair@KV?$basic_string@DU?$char_traits@D@std@@V?$allocator@D@2@@std@@@std@@@?$vector@U?$pair@KV?$basic_string@DU?$char_traits@D@std@@V?$allocator@D@2@@std@@@std@@V?$allocator@U?$pair@KV?$basic_string@DU?$char_traits@D@std@@V?$allocator@D@2@@std@@@std@@@2@@std@@AAEXV?$_Vector_const_iterator@V?$_Vector_val@U?$_Simple_types@U?$pair@KV?$basic_string@DU?$char_traits@D@std@@V?$allocator@D@2@@std@@@std@@@std@@@std@@@1@PAU?$pair@KV?$basic_string@DU?$char_traits@D@std@@V?$allocator@D@2@@std@@@1@I@Z DD 0ffffffffH
	DD	FLAT:__unwindfunclet$??$_Insert_counted_range@PAU?$pair@KV?$basic_string@DU?$char_traits@D@std@@V?$allocator@D@2@@std@@@std@@@?$vector@U?$pair@KV?$basic_string@DU?$char_traits@D@std@@V?$allocator@D@2@@std@@@std@@V?$allocator@U?$pair@KV?$basic_string@DU?$char_traits@D@std@@V?$allocator@D@2@@std@@@std@@@2@@std@@AAEXV?$_Vector_const_iterator@V?$_Vector_val@U?$_Simple_types@U?$pair@KV?$basic_string@DU?$char_traits@D@std@@V?$allocator@D@2@@std@@@std@@@std@@@std@@@1@PAU?$pair@KV?$basic_string@DU?$char_traits@D@std@@V?$allocator@D@2@@std@@@1@I@Z$4
	DD	00H
	DD	FLAT:__unwindfunclet$??$_Insert_counted_range@PAU?$pair@KV?$basic_string@DU?$char_traits@D@std@@V?$allocator@D@2@@std@@@std@@@?$vector@U?$pair@KV?$basic_string@DU?$char_traits@D@std@@V?$allocator@D@2@@std@@@std@@V?$allocator@U?$pair@KV?$basic_string@DU?$char_traits@D@std@@V?$allocator@D@2@@std@@@std@@@2@@std@@AAEXV?$_Vector_const_iterator@V?$_Vector_val@U?$_Simple_types@U?$pair@KV?$basic_string@DU?$char_traits@D@std@@V?$allocator@D@2@@std@@@std@@@std@@@std@@@1@PAU?$pair@KV?$basic_string@DU?$char_traits@D@std@@V?$allocator@D@2@@std@@@1@I@Z$7
	DQ	000000000ffffffffr		; 2.122e-314
	DD	02H
	DD	FLAT:__unwindfunclet$??$_Insert_counted_range@PAU?$pair@KV?$basic_string@DU?$char_traits@D@std@@V?$allocator@D@2@@std@@@std@@@?$vector@U?$pair@KV?$basic_string@DU?$char_traits@D@std@@V?$allocator@D@2@@std@@@std@@V?$allocator@U?$pair@KV?$basic_string@DU?$char_traits@D@std@@V?$allocator@D@2@@std@@@std@@@2@@std@@AAEXV?$_Vector_const_iterator@V?$_Vector_val@U?$_Simple_types@U?$pair@KV?$basic_string@DU?$char_traits@D@std@@V?$allocator@D@2@@std@@@std@@@std@@@std@@@1@PAU?$pair@KV?$basic_string@DU?$char_traits@D@std@@V?$allocator@D@2@@std@@@1@I@Z$13
	DQ	000000000ffffffffr		; 2.122e-314
	DD	04H
	DD	FLAT:__unwindfunclet$??$_Insert_counted_range@PAU?$pair@KV?$basic_string@DU?$char_traits@D@std@@V?$allocator@D@2@@std@@@std@@@?$vector@U?$pair@KV?$basic_string@DU?$char_traits@D@std@@V?$allocator@D@2@@std@@@std@@V?$allocator@U?$pair@KV?$basic_string@DU?$char_traits@D@std@@V?$allocator@D@2@@std@@@std@@@2@@std@@AAEXV?$_Vector_const_iterator@V?$_Vector_val@U?$_Simple_types@U?$pair@KV?$basic_string@DU?$char_traits@D@std@@V?$allocator@D@2@@std@@@std@@@std@@@std@@@1@PAU?$pair@KV?$basic_string@DU?$char_traits@D@std@@V?$allocator@D@2@@std@@@1@I@Z$5
	DQ	000000000ffffffffr		; 2.122e-314
	DD	06H
	DD	FLAT:__unwindfunclet$??$_Insert_counted_range@PAU?$pair@KV?$basic_string@DU?$char_traits@D@std@@V?$allocator@D@2@@std@@@std@@@?$vector@U?$pair@KV?$basic_string@DU?$char_traits@D@std@@V?$allocator@D@2@@std@@@std@@V?$allocator@U?$pair@KV?$basic_string@DU?$char_traits@D@std@@V?$allocator@D@2@@std@@@std@@@2@@std@@AAEXV?$_Vector_const_iterator@V?$_Vector_val@U?$_Simple_types@U?$pair@KV?$basic_string@DU?$char_traits@D@std@@V?$allocator@D@2@@std@@@std@@@std@@@std@@@1@PAU?$pair@KV?$basic_string@DU?$char_traits@D@std@@V?$allocator@D@2@@std@@@1@I@Z$19
	DQ	000000000ffffffffr		; 2.122e-314
	DD	08H
	DD	FLAT:__unwindfunclet$??$_Insert_counted_range@PAU?$pair@KV?$basic_string@DU?$char_traits@D@std@@V?$allocator@D@2@@std@@@std@@@?$vector@U?$pair@KV?$basic_string@DU?$char_traits@D@std@@V?$allocator@D@2@@std@@@std@@V?$allocator@U?$pair@KV?$basic_string@DU?$char_traits@D@std@@V?$allocator@D@2@@std@@@std@@@2@@std@@AAEXV?$_Vector_const_iterator@V?$_Vector_val@U?$_Simple_types@U?$pair@KV?$basic_string@DU?$char_traits@D@std@@V?$allocator@D@2@@std@@@std@@@std@@@std@@@1@PAU?$pair@KV?$basic_string@DU?$char_traits@D@std@@V?$allocator@D@2@@std@@@1@I@Z$6
__tryblocktable$??$_Insert_counted_range@PAU?$pair@KV?$basic_string@DU?$char_traits@D@std@@V?$allocator@D@2@@std@@@std@@@?$vector@U?$pair@KV?$basic_string@DU?$char_traits@D@std@@V?$allocator@D@2@@std@@@std@@V?$allocator@U?$pair@KV?$basic_string@DU?$char_traits@D@std@@V?$allocator@D@2@@std@@@std@@@2@@std@@AAEXV?$_Vector_const_iterator@V?$_Vector_val@U?$_Simple_types@U?$pair@KV?$basic_string@DU?$char_traits@D@std@@V?$allocator@D@2@@std@@@std@@@std@@@std@@@1@PAU?$pair@KV?$basic_string@DU?$char_traits@D@std@@V?$allocator@D@2@@std@@@1@I@Z DQ 00000000300000002r ; 6.36599e-314
	DQ	00000000100000005r		; 2.122e-314
	DD	FLAT:__catchsym$??$_Insert_counted_range@PAU?$pair@KV?$basic_string@DU?$char_traits@D@std@@V?$allocator@D@2@@std@@@std@@@?$vector@U?$pair@KV?$basic_string@DU?$char_traits@D@std@@V?$allocator@D@2@@std@@@std@@V?$allocator@U?$pair@KV?$basic_string@DU?$char_traits@D@std@@V?$allocator@D@2@@std@@@std@@@2@@std@@AAEXV?$_Vector_const_iterator@V?$_Vector_val@U?$_Simple_types@U?$pair@KV?$basic_string@DU?$char_traits@D@std@@V?$allocator@D@2@@std@@@std@@@std@@@std@@@1@PAU?$pair@KV?$basic_string@DU?$char_traits@D@std@@V?$allocator@D@2@@std@@@1@I@Z$23
	DQ	00000000700000006r		; 1.4854e-313
	DQ	00000000100000009r		; 2.122e-314
	DD	FLAT:__catchsym$??$_Insert_counted_range@PAU?$pair@KV?$basic_string@DU?$char_traits@D@std@@V?$allocator@D@2@@std@@@std@@@?$vector@U?$pair@KV?$basic_string@DU?$char_traits@D@std@@V?$allocator@D@2@@std@@@std@@V?$allocator@U?$pair@KV?$basic_string@DU?$char_traits@D@std@@V?$allocator@D@2@@std@@@std@@@2@@std@@AAEXV?$_Vector_const_iterator@V?$_Vector_val@U?$_Simple_types@U?$pair@KV?$basic_string@DU?$char_traits@D@std@@V?$allocator@D@2@@std@@@std@@@std@@@std@@@1@PAU?$pair@KV?$basic_string@DU?$char_traits@D@std@@V?$allocator@D@2@@std@@@1@I@Z$24
__catchsym$??$_Insert_counted_range@PAU?$pair@KV?$basic_string@DU?$char_traits@D@std@@V?$allocator@D@2@@std@@@std@@@?$vector@U?$pair@KV?$basic_string@DU?$char_traits@D@std@@V?$allocator@D@2@@std@@@std@@V?$allocator@U?$pair@KV?$basic_string@DU?$char_traits@D@std@@V?$allocator@D@2@@std@@@std@@@2@@std@@AAEXV?$_Vector_const_iterator@V?$_Vector_val@U?$_Simple_types@U?$pair@KV?$basic_string@DU?$char_traits@D@std@@V?$allocator@D@2@@std@@@std@@@std@@@std@@@1@PAU?$pair@KV?$basic_string@DU?$char_traits@D@std@@V?$allocator@D@2@@std@@@1@I@Z$23 DQ 00000000000000040r ; 3.16202e-322
	DD	00H
	DD	FLAT:__catch$??$_Insert_counted_range@PAU?$pair@KV?$basic_string@DU?$char_traits@D@std@@V?$allocator@D@2@@std@@@std@@@?$vector@U?$pair@KV?$basic_string@DU?$char_traits@D@std@@V?$allocator@D@2@@std@@@std@@V?$allocator@U?$pair@KV?$basic_string@DU?$char_traits@D@std@@V?$allocator@D@2@@std@@@std@@@2@@std@@AAEXV?$_Vector_const_iterator@V?$_Vector_val@U?$_Simple_types@U?$pair@KV?$basic_string@DU?$char_traits@D@std@@V?$allocator@D@2@@std@@@std@@@std@@@std@@@1@PAU?$pair@KV?$basic_string@DU?$char_traits@D@std@@V?$allocator@D@2@@std@@@1@I@Z$0
__catchsym$??$_Insert_counted_range@PAU?$pair@KV?$basic_string@DU?$char_traits@D@std@@V?$allocator@D@2@@std@@@std@@@?$vector@U?$pair@KV?$basic_string@DU?$char_traits@D@std@@V?$allocator@D@2@@std@@@std@@V?$allocator@U?$pair@KV?$basic_string@DU?$char_traits@D@std@@V?$allocator@D@2@@std@@@std@@@2@@std@@AAEXV?$_Vector_const_iterator@V?$_Vector_val@U?$_Simple_types@U?$pair@KV?$basic_string@DU?$char_traits@D@std@@V?$allocator@D@2@@std@@@std@@@std@@@std@@@1@PAU?$pair@KV?$basic_string@DU?$char_traits@D@std@@V?$allocator@D@2@@std@@@1@I@Z$24 DQ 00000000000000040r ; 3.16202e-322
	DD	00H
	DD	FLAT:__catch$??$_Insert_counted_range@PAU?$pair@KV?$basic_string@DU?$char_traits@D@std@@V?$allocator@D@2@@std@@@std@@@?$vector@U?$pair@KV?$basic_string@DU?$char_traits@D@std@@V?$allocator@D@2@@std@@@std@@V?$allocator@U?$pair@KV?$basic_string@DU?$char_traits@D@std@@V?$allocator@D@2@@std@@@std@@@2@@std@@AAEXV?$_Vector_const_iterator@V?$_Vector_val@U?$_Simple_types@U?$pair@KV?$basic_string@DU?$char_traits@D@std@@V?$allocator@D@2@@std@@@std@@@std@@@std@@@1@PAU?$pair@KV?$basic_string@DU?$char_traits@D@std@@V?$allocator@D@2@@std@@@1@I@Z$2
xdata$x	ENDS
;	COMDAT xdata$x
xdata$x	SEGMENT
__ehfuncinfo$??$_Emplace@U?$pair@KK@std@@@?$_Tree@V?$_Tmap_traits@KKU?$less@K@std@@V?$allocator@U?$pair@$$CBKK@std@@@2@$0A@@std@@@std@@IAE?AU?$pair@PAU?$_Tree_node@U?$pair@$$CBKK@std@@PAX@std@@_N@1@$$QAU?$pair@KK@1@@Z DQ 00000000119930522r ; 2.33398e-314
	DD	FLAT:__unwindtable$??$_Emplace@U?$pair@KK@std@@@?$_Tree@V?$_Tmap_traits@KKU?$less@K@std@@V?$allocator@U?$pair@$$CBKK@std@@@2@$0A@@std@@@std@@IAE?AU?$pair@PAU?$_Tree_node@U?$pair@$$CBKK@std@@PAX@std@@_N@1@$$QAU?$pair@KK@1@@Z
	DQ	00000000000000000r		; 0
	DQ	00000000000000000r		; 0
	DQ	00000000100000000r		; 2.122e-314
__unwindtable$??$_Emplace@U?$pair@KK@std@@@?$_Tree@V?$_Tmap_traits@KKU?$less@K@std@@V?$allocator@U?$pair@$$CBKK@std@@@2@$0A@@std@@@std@@IAE?AU?$pair@PAU?$_Tree_node@U?$pair@$$CBKK@std@@PAX@std@@_N@1@$$QAU?$pair@KK@1@@Z DD 0ffffffffH
	DD	FLAT:__unwindfunclet$??$_Emplace@U?$pair@KK@std@@@?$_Tree@V?$_Tmap_traits@KKU?$less@K@std@@V?$allocator@U?$pair@$$CBKK@std@@@2@$0A@@std@@@std@@IAE?AU?$pair@PAU?$_Tree_node@U?$pair@$$CBKK@std@@PAX@std@@_N@1@$$QAU?$pair@KK@1@@Z$2
xdata$x	ENDS
;	COMDAT xdata$x
xdata$x	SEGMENT
__ehfuncinfo$??$_Uninitialized_copy_n@PAU?$pair@KV?$basic_string@DU?$char_traits@D@std@@V?$allocator@D@2@@std@@@std@@V?$allocator@U?$pair@KV?$basic_string@DU?$char_traits@D@std@@V?$allocator@D@2@@std@@@std@@@2@@std@@YAPAU?$pair@KV?$basic_string@DU?$char_traits@D@std@@V?$allocator@D@2@@std@@@0@PAU10@I0AAV?$allocator@U?$pair@KV?$basic_string@DU?$char_traits@D@std@@V?$allocator@D@2@@std@@@std@@@0@@Z DQ 00000000119930522r ; 2.33398e-314
	DD	FLAT:__unwindtable$??$_Uninitialized_copy_n@PAU?$pair@KV?$basic_string@DU?$char_traits@D@std@@V?$allocator@D@2@@std@@@std@@V?$allocator@U?$pair@KV?$basic_string@DU?$char_traits@D@std@@V?$allocator@D@2@@std@@@std@@@2@@std@@YAPAU?$pair@KV?$basic_string@DU?$char_traits@D@std@@V?$allocator@D@2@@std@@@0@PAU10@I0AAV?$allocator@U?$pair@KV?$basic_string@DU?$char_traits@D@std@@V?$allocator@D@2@@std@@@std@@@0@@Z
	DQ	00000000000000000r		; 0
	DQ	00000000000000000r		; 0
	DQ	00000000100000000r		; 2.122e-314
__unwindtable$??$_Uninitialized_copy_n@PAU?$pair@KV?$basic_string@DU?$char_traits@D@std@@V?$allocator@D@2@@std@@@std@@V?$allocator@U?$pair@KV?$basic_string@DU?$char_traits@D@std@@V?$allocator@D@2@@std@@@std@@@2@@std@@YAPAU?$pair@KV?$basic_string@DU?$char_traits@D@std@@V?$allocator@D@2@@std@@@0@PAU10@I0AAV?$allocator@U?$pair@KV?$basic_string@DU?$char_traits@D@std@@V?$allocator@D@2@@std@@@std@@@0@@Z DD 0ffffffffH
	DD	FLAT:__unwindfunclet$??$_Uninitialized_copy_n@PAU?$pair@KV?$basic_string@DU?$char_traits@D@std@@V?$allocator@D@2@@std@@@std@@V?$allocator@U?$pair@KV?$basic_string@DU?$char_traits@D@std@@V?$allocator@D@2@@std@@@std@@@2@@std@@YAPAU?$pair@KV?$basic_string@DU?$char_traits@D@std@@V?$allocator@D@2@@std@@@0@PAU10@I0AAV?$allocator@U?$pair@KV?$basic_string@DU?$char_traits@D@std@@V?$allocator@D@2@@std@@@std@@@0@@Z$0
xdata$x	ENDS
;	COMDAT xdata$x
xdata$x	SEGMENT
__ehfuncinfo$??$?0U?$pair@KK@std@@@?$_Tree_temp_node@V?$allocator@U?$_Tree_node@U?$pair@$$CBKK@std@@PAX@std@@@std@@@std@@QAE@AAV?$allocator@U?$_Tree_node@U?$pair@$$CBKK@std@@PAX@std@@@1@PAU?$_Tree_node@U?$pair@$$CBKK@std@@PAX@1@$$QAU?$pair@KK@1@@Z DQ 00000000119930522r ; 2.33398e-314
	DD	FLAT:__unwindtable$??$?0U?$pair@KK@std@@@?$_Tree_temp_node@V?$allocator@U?$_Tree_node@U?$pair@$$CBKK@std@@PAX@std@@@std@@@std@@QAE@AAV?$allocator@U?$_Tree_node@U?$pair@$$CBKK@std@@PAX@std@@@1@PAU?$_Tree_node@U?$pair@$$CBKK@std@@PAX@1@$$QAU?$pair@KK@1@@Z
	DQ	00000000000000000r		; 0
	DQ	00000000000000000r		; 0
	DQ	00000000100000000r		; 2.122e-314
__unwindtable$??$?0U?$pair@KK@std@@@?$_Tree_temp_node@V?$allocator@U?$_Tree_node@U?$pair@$$CBKK@std@@PAX@std@@@std@@@std@@QAE@AAV?$allocator@U?$_Tree_node@U?$pair@$$CBKK@std@@PAX@std@@@1@PAU?$_Tree_node@U?$pair@$$CBKK@std@@PAX@1@$$QAU?$pair@KK@1@@Z DD 0ffffffffH
	DD	FLAT:__unwindfunclet$??$?0U?$pair@KK@std@@@?$_Tree_temp_node@V?$allocator@U?$_Tree_node@U?$pair@$$CBKK@std@@PAX@std@@@std@@@std@@QAE@AAV?$allocator@U?$_Tree_node@U?$pair@$$CBKK@std@@PAX@std@@@1@PAU?$_Tree_node@U?$pair@$$CBKK@std@@PAX@1@$$QAU?$pair@KK@1@@Z$1
?gs_kVct_crcPair$initializer$@@3P6AXXZA DD FLAT:??__Egs_kVct_crcPair@@YAXXZ ; gs_kVct_crcPair$initializer$
; Function compile flags: /Ogtp
; File C:\Anka2Project\Anka2Project\Source\Binary\source\UserInterface\ProcessScanner.cpp
;	COMDAT ??__Egs_kVct_crcPair@@YAXXZ
text$di	SEGMENT
??__Egs_kVct_crcPair@@YAXXZ PROC			; `dynamic initializer for 'gs_kVct_crcPair'', COMDAT

; 6    : static std::vector<CRCPair> gs_kVct_crcPair;

  00000	68 00 00 00 00	 push	 OFFSET ??__Fgs_kVct_crcPair@@YAXXZ ; `dynamic atexit destructor for 'gs_kVct_crcPair''
  00005	e8 00 00 00 00	 call	 _atexit
  0000a	59		 pop	 ecx
  0000b	c3		 ret	 0
??__Egs_kVct_crcPair@@YAXXZ ENDP			; `dynamic initializer for 'gs_kVct_crcPair''
text$di	ENDS
; Function compile flags: /Ogtp
;	COMDAT ??__Fgs_kVct_crcPair@@YAXXZ
text$yd	SEGMENT
??__Fgs_kVct_crcPair@@YAXXZ PROC			; `dynamic atexit destructor for 'gs_kVct_crcPair'', COMDAT
  00000	b9 00 00 00 00	 mov	 ecx, OFFSET ?gs_kVct_crcPair@@3V?$vector@U?$pair@KV?$basic_string@DU?$char_traits@D@std@@V?$allocator@D@2@@std@@@std@@V?$allocator@U?$pair@KV?$basic_string@DU?$char_traits@D@std@@V?$allocator@D@2@@std@@@std@@@2@@std@@A
  00005	e9 00 00 00 00	 jmp	 ??1?$vector@U?$pair@KV?$basic_string@DU?$char_traits@D@std@@V?$allocator@D@2@@std@@@std@@V?$allocator@U?$pair@KV?$basic_string@DU?$char_traits@D@std@@V?$allocator@D@2@@std@@@std@@@2@@std@@QAE@XZ ; std::vector<std::pair<unsigned long,std::basic_string<char,std::char_traits<char>,std::allocator<char> > >,std::allocator<std::pair<unsigned long,std::basic_string<char,std::char_traits<char>,std::allocator<char> > > > >::~vector<std::pair<unsigned long,std::basic_string<char,std::char_traits<char>,std::allocator<char> > >,std::allocator<std::pair<unsigned long,std::basic_string<char,std::char_traits<char>,std::allocator<char> > > > >
??__Fgs_kVct_crcPair@@YAXXZ ENDP			; `dynamic atexit destructor for 'gs_kVct_crcPair''
text$yd	ENDS
; Function compile flags: /Ogtp
; File C:\Anka2Project\Anka2Project\Source\Binary\source\UserInterface\ProcessScanner.cpp
; File C:\Program Files\Microsoft Visual Studio\2022\Community\VC\Tools\MSVC\14.44.35207\include\xtree
; File C:\Anka2Project\Anka2Project\Source\Binary\source\UserInterface\ProcessScanner.cpp
; File C:\Program Files\Microsoft Visual Studio\2022\Community\VC\Tools\MSVC\14.44.35207\include\xtree
; File C:\Anka2Project\Anka2Project\Source\Binary\source\UserInterface\ProcessScanner.cpp
; File C:\Program Files\Microsoft Visual Studio\2022\Community\VC\Tools\MSVC\14.44.35207\include\xtree
; File C:\Program Files\Microsoft Visual Studio\2022\Community\VC\Tools\MSVC\14.44.35207\include\type_traits
; File C:\Program Files\Microsoft Visual Studio\2022\Community\VC\Tools\MSVC\14.44.35207\include\xtree
; File C:\Anka2Project\Anka2Project\Source\Binary\source\UserInterface\ProcessScanner.cpp
; File C:\Program Files\Microsoft Visual Studio\2022\Community\VC\Tools\MSVC\14.44.35207\include\map
; File C:\Anka2Project\Anka2Project\Source\Binary\source\UserInterface\ProcessScanner.cpp
; File C:\Program Files\Microsoft Visual Studio\2022\Community\VC\Tools\MSVC\14.44.35207\include\utility
; File C:\Program Files\Microsoft Visual Studio\2022\Community\VC\Tools\MSVC\14.44.35207\include\map
; File C:\Program Files\Microsoft Visual Studio\2022\Community\VC\Tools\MSVC\14.44.35207\include\utility
; File C:\Program Files\Microsoft Visual Studio\2022\Community\VC\Tools\MSVC\14.44.35207\include\map
; File C:\Program Files\Microsoft Visual Studio\2022\Community\VC\Tools\MSVC\14.44.35207\include\utility
; File C:\Program Files\Microsoft Visual Studio\2022\Community\VC\Tools\MSVC\14.44.35207\include\__msvc_string_view.hpp
; File C:\Program Files\Microsoft Visual Studio\2022\Community\VC\Tools\MSVC\14.44.35207\include\xstring
; File C:\Program Files\Microsoft Visual Studio\2022\Community\VC\Tools\MSVC\14.44.35207\include\__msvc_string_view.hpp
; File C:\Program Files\Microsoft Visual Studio\2022\Community\VC\Tools\MSVC\14.44.35207\include\xstring
; File C:\Program Files\Microsoft Visual Studio\2022\Community\VC\Tools\MSVC\14.44.35207\include\vector
; File C:\Anka2Project\Anka2Project\Source\Binary\source\UserInterface\ProcessScanner.cpp
; File C:\Program Files\Microsoft Visual Studio\2022\Community\VC\Tools\MSVC\14.44.35207\include\vector
; File C:\Program Files\Microsoft Visual Studio\2022\Community\VC\Tools\MSVC\14.44.35207\include\xstring
; File C:\Program Files\Microsoft Visual Studio\2022\Community\VC\Tools\MSVC\14.44.35207\include\utility
; File C:\Program Files\Microsoft Visual Studio\2022\Community\VC\Tools\MSVC\14.44.35207\include\xstring
; File C:\Program Files\Microsoft Visual Studio\2022\Community\VC\Tools\MSVC\14.44.35207\include\vector
; File C:\Program Files\Microsoft Visual Studio\2022\Community\VC\Tools\MSVC\14.44.35207\include\xstring
; File C:\Program Files\Microsoft Visual Studio\2022\Community\VC\Tools\MSVC\14.44.35207\include\vector
; File C:\Program Files\Microsoft Visual Studio\2022\Community\VC\Tools\MSVC\14.44.35207\include\xstring
; File C:\Anka2Project\Anka2Project\Source\Binary\source\UserInterface\ProcessScanner.cpp
; File C:\Program Files\Microsoft Visual Studio\2022\Community\VC\Tools\MSVC\14.44.35207\include\xstring
; File C:\Anka2Project\Anka2Project\Source\Binary\source\UserInterface\ProcessScanner.cpp
;	COMDAT ?ScanProcessList@@YAXAAV?$map@KKU?$less@K@std@@V?$allocator@U?$pair@$$CBKK@std@@@2@@std@@PAV?$vector@U?$pair@KV?$basic_string@DU?$char_traits@D@std@@V?$allocator@D@2@@std@@@std@@V?$allocator@U?$pair@KV?$basic_string@DU?$char_traits@D@std@@V?$allocator@D@2@@std@@@std@@@2@@2@@Z
_TEXT	SEGMENT
_si$ = -976						; size = 36
$T12 = -940						; size = 8
__Loc$43 = -932						; size = 12
$T10 = -920						; size = 8
_hProc$1$ = -912					; size = 4
_hModuleSnap$1$ = -908					; size = 4
_pkVct_crcPair$GSCopy$1$ = -904				; size = 4
_crcExtPath$44 = -900					; size = 4
_process$1$ = -896					; size = 4
_rkMap_crcProc$GSCopy$1$ = -892				; size = 4
_pro$ = -888						; size = 296
_me32$45 = -592						; size = 548
$T16 = -44						; size = 28
__$ArrayPad$ = -16					; size = 4
__$EHRec$ = -12						; size = 12
?ScanProcessList@@YAXAAV?$map@KKU?$less@K@std@@V?$allocator@U?$pair@$$CBKK@std@@@2@@std@@PAV?$vector@U?$pair@KV?$basic_string@DU?$char_traits@D@std@@V?$allocator@D@2@@std@@@std@@V?$allocator@U?$pair@KV?$basic_string@DU?$char_traits@D@std@@V?$allocator@D@2@@std@@@std@@@2@@2@@Z PROC ; ScanProcessList, COMDAT
; _rkMap_crcProc$ = ecx
; _pkVct_crcPair$ = edx

; 13   : {

  00000	55		 push	 ebp
  00001	8b ec		 mov	 ebp, esp
  00003	6a ff		 push	 -1
  00005	68 00 00 00 00	 push	 __ehhandler$?ScanProcessList@@YAXAAV?$map@KKU?$less@K@std@@V?$allocator@U?$pair@$$CBKK@std@@@2@@std@@PAV?$vector@U?$pair@KV?$basic_string@DU?$char_traits@D@std@@V?$allocator@D@2@@std@@@std@@V?$allocator@U?$pair@KV?$basic_string@DU?$char_traits@D@std@@V?$allocator@D@2@@std@@@std@@@2@@2@@Z
  0000a	64 a1 00 00 00
	00		 mov	 eax, DWORD PTR fs:0
  00010	50		 push	 eax
  00011	81 ec c4 03 00
	00		 sub	 esp, 964		; 000003c4H
  00017	a1 00 00 00 00	 mov	 eax, DWORD PTR ___security_cookie
  0001c	33 c5		 xor	 eax, ebp
  0001e	89 45 f0	 mov	 DWORD PTR __$ArrayPad$[ebp], eax
  00021	56		 push	 esi
  00022	57		 push	 edi
  00023	50		 push	 eax
  00024	8d 45 f4	 lea	 eax, DWORD PTR __$EHRec$[ebp]
  00027	64 a3 00 00 00
	00		 mov	 DWORD PTR fs:0, eax
  0002d	89 95 78 fc ff
	ff		 mov	 DWORD PTR _pkVct_crcPair$GSCopy$1$[ebp], edx
  00033	89 8d 84 fc ff
	ff		 mov	 DWORD PTR _rkMap_crcProc$GSCopy$1$[ebp], ecx
  00039	0f 57 c0	 xorps	 xmm0, xmm0

; 14   : 	SYSTEM_INFO si;
; 15   : 	memset(&si, 0, sizeof(si));

  0003c	c7 85 50 fc ff
	ff 00 00 00 00	 mov	 DWORD PTR _si$[ebp+32], 0

; 16   : 	GetSystemInfo(&si);

  00046	8d 85 30 fc ff
	ff		 lea	 eax, DWORD PTR _si$[ebp]
  0004c	50		 push	 eax
  0004d	0f 11 85 30 fc
	ff ff		 movups	 XMMWORD PTR _si$[ebp], xmm0
  00054	0f 11 85 40 fc
	ff ff		 movups	 XMMWORD PTR _si$[ebp+16], xmm0
  0005b	ff 15 00 00 00
	00		 call	 DWORD PTR __imp__GetSystemInfo@4

; 17   : 
; 18   : 	PROCESSENTRY32 pro;
; 19   :     pro.dwSize = sizeof(PROCESSENTRY32);
; 20   : 
; 21   :     LPPROCESSENTRY32 Entry;
; 22   :     Entry = &pro;
; 23   : 
; 24   :     HANDLE process = CreateToolhelp32Snapshot(TH32CS_SNAPPROCESS,0);

  00061	6a 00		 push	 0
  00063	6a 02		 push	 2
  00065	c7 85 88 fc ff
	ff 28 01 00 00	 mov	 DWORD PTR _pro$[ebp], 296 ; 00000128H
  0006f	ff 15 00 00 00
	00		 call	 DWORD PTR __imp__CreateToolhelp32Snapshot@8

; 25   : 
; 26   :     BOOL bOK = Process32First(process, Entry);

  00075	8d 8d 88 fc ff
	ff		 lea	 ecx, DWORD PTR _pro$[ebp]
  0007b	89 85 80 fc ff
	ff		 mov	 DWORD PTR _process$1$[ebp], eax
  00081	51		 push	 ecx
  00082	50		 push	 eax
  00083	ff 15 00 00 00
	00		 call	 DWORD PTR __imp__Process32First@8

; 27   : 
; 28   :     while(bOK)

  00089	8b 35 00 00 00
	00		 mov	 esi, DWORD PTR __imp__CloseHandle@4
  0008f	85 c0		 test	 eax, eax
  00091	0f 84 2a 02 00
	00		 je	 $LN3@ScanProces
  00097	66 0f 1f 84 00
	00 00 00 00	 npad	 9
$LL2@ScanProces:

; 29   :     {
; 30   : 		HANDLE hProc = OpenProcess(PROCESS_VM_READ, FALSE, Entry->th32ProcessID);

  000a0	ff b5 90 fc ff
	ff		 push	 DWORD PTR _pro$[ebp+8]
  000a6	6a 00		 push	 0
  000a8	6a 10		 push	 16			; 00000010H
  000aa	ff 15 00 00 00
	00		 call	 DWORD PTR __imp__OpenProcess@12
  000b0	8b f8		 mov	 edi, eax
  000b2	89 bd 70 fc ff
	ff		 mov	 DWORD PTR _hProc$1$[ebp], edi

; 31   : 		if (hProc)

  000b8	85 ff		 test	 edi, edi
  000ba	0f 84 e6 01 00
	00		 je	 $LN6@ScanProces

; 32   : 		{
; 33   : 			HANDLE hModuleSnap = CreateToolhelp32Snapshot(TH32CS_SNAPMODULE, Entry->th32ProcessID);

  000c0	ff b5 90 fc ff
	ff		 push	 DWORD PTR _pro$[ebp+8]
  000c6	6a 08		 push	 8
  000c8	ff 15 00 00 00
	00		 call	 DWORD PTR __imp__CreateToolhelp32Snapshot@8
  000ce	8b f0		 mov	 esi, eax
  000d0	89 b5 74 fc ff
	ff		 mov	 DWORD PTR _hModuleSnap$1$[ebp], esi

; 34   : 			if (hModuleSnap != INVALID_HANDLE_VALUE) 

  000d6	83 fe ff	 cmp	 esi, -1
  000d9	0f 84 be 01 00
	00		 je	 $LN325@ScanProces

; 35   : 			{
; 36   : 				MODULEENTRY32	me32;
; 37   : 				memset(&me32, 0, sizeof(me32));

  000df	68 20 02 00 00	 push	 544			; 00000220H
  000e4	8d 85 b4 fd ff
	ff		 lea	 eax, DWORD PTR _me32$45[ebp+4]
  000ea	6a 00		 push	 0
  000ec	50		 push	 eax
  000ed	e8 00 00 00 00	 call	 _memset
  000f2	83 c4 0c	 add	 esp, 12			; 0000000cH

; 38   : 				me32.dwSize = sizeof(MODULEENTRY32);

  000f5	c7 85 b0 fd ff
	ff 24 02 00 00	 mov	 DWORD PTR _me32$45[ebp], 548 ; 00000224H

; 39   : 
; 40   : 				BOOL bRet = Module32First(hModuleSnap, &me32);

  000ff	8d 85 b0 fd ff
	ff		 lea	 eax, DWORD PTR _me32$45[ebp]
  00105	50		 push	 eax
  00106	56		 push	 esi
  00107	ff 15 00 00 00
	00		 call	 DWORD PTR __imp__Module32First@8

; 41   : 				while (bRet) 

  0010d	85 c0		 test	 eax, eax
  0010f	0f 84 7d 01 00
	00		 je	 $LN5@ScanProces
$LL4@ScanProces:

; 43   : 					DWORD crcExtPath=GetCRC32((const char *)me32.szExePath, strlen(me32.szExePath));

  00115	8d 85 d0 fe ff
	ff		 lea	 eax, DWORD PTR _me32$45[ebp+288]
  0011b	8d 50 01	 lea	 edx, DWORD PTR [eax+1]
  0011e	66 90		 npad	 2
$LL323@ScanProces:
  00120	8a 08		 mov	 cl, BYTE PTR [eax]
  00122	40		 inc	 eax
  00123	84 c9		 test	 cl, cl
  00125	75 f9		 jne	 SHORT $LL323@ScanProces
  00127	2b c2		 sub	 eax, edx
  00129	50		 push	 eax
  0012a	8d 85 d0 fe ff
	ff		 lea	 eax, DWORD PTR _me32$45[ebp+288]
  00130	50		 push	 eax
  00131	e8 00 00 00 00	 call	 ?GetCRC32@@YAKPBDI@Z	; GetCRC32
; File C:\Program Files\Microsoft Visual Studio\2022\Community\VC\Tools\MSVC\14.44.35207\include\xtree

; 1384 :         const _Tree_find_result<_Nodeptr> _Loc = _Find_lower_bound(_Keyval);

  00136	8b 8d 84 fc ff
	ff		 mov	 ecx, DWORD PTR _rkMap_crcProc$GSCopy$1$[ebp]
; File C:\Anka2Project\Anka2Project\Source\Binary\source\UserInterface\ProcessScanner.cpp

; 43   : 					DWORD crcExtPath=GetCRC32((const char *)me32.szExePath, strlen(me32.szExePath));

  0013c	83 c4 08	 add	 esp, 8
  0013f	8b f8		 mov	 edi, eax
; File C:\Program Files\Microsoft Visual Studio\2022\Community\VC\Tools\MSVC\14.44.35207\include\xtree

; 1384 :         const _Tree_find_result<_Nodeptr> _Loc = _Find_lower_bound(_Keyval);

  00141	8d 85 7c fc ff
	ff		 lea	 eax, DWORD PTR _crcExtPath$44[ebp]
; File C:\Anka2Project\Anka2Project\Source\Binary\source\UserInterface\ProcessScanner.cpp

; 43   : 					DWORD crcExtPath=GetCRC32((const char *)me32.szExePath, strlen(me32.szExePath));

  00147	89 bd 7c fc ff
	ff		 mov	 DWORD PTR _crcExtPath$44[ebp], edi
; File C:\Program Files\Microsoft Visual Studio\2022\Community\VC\Tools\MSVC\14.44.35207\include\xtree

; 1384 :         const _Tree_find_result<_Nodeptr> _Loc = _Find_lower_bound(_Keyval);

  0014d	50		 push	 eax
  0014e	8d 85 5c fc ff
	ff		 lea	 eax, DWORD PTR __Loc$43[ebp]
  00154	50		 push	 eax
  00155	e8 00 00 00 00	 call	 ??$_Find_lower_bound@K@?$_Tree@V?$_Tmap_traits@KKU?$less@K@std@@V?$allocator@U?$pair@$$CBKK@std@@@2@$0A@@std@@@std@@IBE?AU?$_Tree_find_result@PAU?$_Tree_node@U?$pair@$$CBKK@std@@PAX@std@@@1@ABK@Z ; std::_Tree<std::_Tmap_traits<unsigned long,unsigned long,std::less<unsigned long>,std::allocator<std::pair<unsigned long const ,unsigned long> >,0> >::_Find_lower_bound<unsigned long>

; 1624 :         return !_Bound->_Isnil && !_DEBUG_LT_PRED(_Getcomp(), _Keyval, _Traits::_Kfn(_Bound->_Myval));

  0015a	8b 8d 64 fc ff
	ff		 mov	 ecx, DWORD PTR __Loc$43[ebp+8]
  00160	80 79 0d 00	 cmp	 BYTE PTR [ecx+13], 0
  00164	75 13		 jne	 SHORT $LN322@ScanProces
; File C:\Program Files\Microsoft Visual Studio\2022\Community\VC\Tools\MSVC\14.44.35207\include\type_traits

; 2380 :         return _Left < _Right;

  00166	3b 79 10	 cmp	 edi, DWORD PTR [ecx+16]
; File C:\Program Files\Microsoft Visual Studio\2022\Community\VC\Tools\MSVC\14.44.35207\include\xtree

; 1624 :         return !_Bound->_Isnil && !_DEBUG_LT_PRED(_Getcomp(), _Keyval, _Traits::_Kfn(_Bound->_Myval));

  00169	72 0e		 jb	 SHORT $LN322@ScanProces

; 37   :     _Tree_unchecked_const_iterator(_Nodeptr _Pnode, const _Mytree* _Plist) noexcept : _Ptr(_Pnode) {

  0016b	8b 85 84 fc ff
	ff		 mov	 eax, DWORD PTR _rkMap_crcProc$GSCopy$1$[ebp]
  00171	39 08		 cmp	 DWORD PTR [eax], ecx
; File C:\Anka2Project\Anka2Project\Source\Binary\source\UserInterface\ProcessScanner.cpp

; 46   : 					if (rkMap_crcProc.end()==f)

  00173	0f 85 d5 00 00
	00		 jne	 $LN291@ScanProces
$LN322@ScanProces:

; 48   : 						DWORD crcProc=GetFileCRC32(me32.szExePath);

  00179	8d 85 d0 fe ff
	ff		 lea	 eax, DWORD PTR _me32$45[ebp+288]
  0017f	50		 push	 eax
  00180	e8 00 00 00 00	 call	 ?GetFileCRC32@@YAKPBD@Z	; GetFileCRC32
; File C:\Program Files\Microsoft Visual Studio\2022\Community\VC\Tools\MSVC\14.44.35207\include\map

; 186  :         return this->emplace(_STD forward<_Valty>(_Val));

  00185	8b 8d 84 fc ff
	ff		 mov	 ecx, DWORD PTR _rkMap_crcProc$GSCopy$1$[ebp]
; File C:\Anka2Project\Anka2Project\Source\Binary\source\UserInterface\ProcessScanner.cpp

; 48   : 						DWORD crcProc=GetFileCRC32(me32.szExePath);

  0018b	83 c4 04	 add	 esp, 4
  0018e	8b f0		 mov	 esi, eax
; File C:\Program Files\Microsoft Visual Studio\2022\Community\VC\Tools\MSVC\14.44.35207\include\utility

; 274  :         : first(_STD forward<_Other1>(_Val1)), second(_STD forward<_Other2>(_Val2)) {

  00190	89 bd 68 fc ff
	ff		 mov	 DWORD PTR $T10[ebp], edi
; File C:\Program Files\Microsoft Visual Studio\2022\Community\VC\Tools\MSVC\14.44.35207\include\map

; 186  :         return this->emplace(_STD forward<_Valty>(_Val));

  00196	8d 85 68 fc ff
	ff		 lea	 eax, DWORD PTR $T10[ebp]
; File C:\Program Files\Microsoft Visual Studio\2022\Community\VC\Tools\MSVC\14.44.35207\include\utility

; 274  :         : first(_STD forward<_Other1>(_Val1)), second(_STD forward<_Other2>(_Val2)) {

  0019c	89 b5 6c fc ff
	ff		 mov	 DWORD PTR $T10[ebp+4], esi
; File C:\Program Files\Microsoft Visual Studio\2022\Community\VC\Tools\MSVC\14.44.35207\include\map

; 186  :         return this->emplace(_STD forward<_Valty>(_Val));

  001a2	50		 push	 eax
  001a3	8d 85 54 fc ff
	ff		 lea	 eax, DWORD PTR $T12[ebp]
  001a9	50		 push	 eax
  001aa	e8 00 00 00 00	 call	 ??$emplace@U?$pair@KK@std@@@?$_Tree@V?$_Tmap_traits@KKU?$less@K@std@@V?$allocator@U?$pair@$$CBKK@std@@@2@$0A@@std@@@std@@QAE?AU?$pair@V?$_Tree_iterator@V?$_Tree_val@U?$_Tree_simple_types@U?$pair@$$CBKK@std@@@std@@@std@@@std@@_N@1@$$QAU?$pair@KK@1@@Z ; std::_Tree<std::_Tmap_traits<unsigned long,unsigned long,std::less<unsigned long>,std::allocator<std::pair<unsigned long const ,unsigned long> >,0> >::emplace<std::pair<unsigned long,unsigned long> >
  001af	0f 57 c0	 xorps	 xmm0, xmm0
; File C:\Program Files\Microsoft Visual Studio\2022\Community\VC\Tools\MSVC\14.44.35207\include\utility

; 303  :         : first(_STD forward<_Other1>(_Right.first)), second(_STD forward<_Other2>(_Right.second)) {}

  001b2	89 75 d4	 mov	 DWORD PTR $T16[ebp], esi
; File C:\Program Files\Microsoft Visual Studio\2022\Community\VC\Tools\MSVC\14.44.35207\include\__msvc_string_view.hpp

; 456  :             return __builtin_strlen(_First);

  001b5	8d 8d d0 fe ff
	ff		 lea	 ecx, DWORD PTR _me32$45[ebp+288]
; File C:\Program Files\Microsoft Visual Studio\2022\Community\VC\Tools\MSVC\14.44.35207\include\xstring

; 517  :     size_type _Mysize = 0; // current length of string (size)

  001bb	c7 45 e8 00 00
	00 00		 mov	 DWORD PTR $T16[ebp+20], 0

; 493  :         _CONSTEXPR20 _Bxty() noexcept : _Buf() {} // user-provided, for fancy pointers

  001c2	0f 11 45 d8	 movups	 XMMWORD PTR $T16[ebp+4], xmm0

; 518  :     size_type _Myres  = 0; // current storage reserved for string (capacity)

  001c6	c7 45 ec 00 00
	00 00		 mov	 DWORD PTR $T16[ebp+24], 0
; File C:\Program Files\Microsoft Visual Studio\2022\Community\VC\Tools\MSVC\14.44.35207\include\__msvc_string_view.hpp

; 456  :             return __builtin_strlen(_First);

  001cd	8d 51 01	 lea	 edx, DWORD PTR [ecx+1]
$LL324@ScanProces:
  001d0	8a 01		 mov	 al, BYTE PTR [ecx]
  001d2	41		 inc	 ecx
  001d3	84 c0		 test	 al, al
  001d5	75 f9		 jne	 SHORT $LL324@ScanProces
  001d7	2b ca		 sub	 ecx, edx
; File C:\Program Files\Microsoft Visual Studio\2022\Community\VC\Tools\MSVC\14.44.35207\include\xstring

; 769  :         _Construct<_Construct_strategy::_From_ptr>(_Ptr, _Convert_size<size_type>(_Traits::length(_Ptr)));

  001d9	8d 85 d0 fe ff
	ff		 lea	 eax, DWORD PTR _me32$45[ebp+288]
  001df	51		 push	 ecx
  001e0	50		 push	 eax
  001e1	8d 4d d8	 lea	 ecx, DWORD PTR $T16[ebp+4]
  001e4	e8 00 00 00 00	 call	 ??$_Construct@$00PBD@?$basic_string@DU?$char_traits@D@std@@V?$allocator@D@2@@std@@AAEXQBDI@Z ; std::basic_string<char,std::char_traits<char>,std::allocator<char> >::_Construct<1,char const *>
; File C:\Program Files\Microsoft Visual Studio\2022\Community\VC\Tools\MSVC\14.44.35207\include\vector

; 844  :         if (_Mylast != _My_data._Myend) {

  001e9	8b b5 78 fc ff
	ff		 mov	 esi, DWORD PTR _pkVct_crcPair$GSCopy$1$[ebp]
; File C:\Anka2Project\Anka2Project\Source\Binary\source\UserInterface\ProcessScanner.cpp

; 50   : 						pkVct_crcPair->push_back(std::make_pair(crcProc, (const char *)me32.szExePath));						

  001ef	c7 45 fc 00 00
	00 00		 mov	 DWORD PTR __$EHRec$[ebp+8], 0
; File C:\Program Files\Microsoft Visual Studio\2022\Community\VC\Tools\MSVC\14.44.35207\include\vector

; 844  :         if (_Mylast != _My_data._Myend) {

  001f6	8b 4e 04	 mov	 ecx, DWORD PTR [esi+4]
  001f9	3b 4e 08	 cmp	 ecx, DWORD PTR [esi+8]
  001fc	74 2f		 je	 SHORT $LN195@ScanProces
; File C:\Program Files\Microsoft Visual Studio\2022\Community\VC\Tools\MSVC\14.44.35207\include\xstring

; 1286 :                 _CSTD memcpy(_My_data_mem, _Right_data_mem, _Memcpy_val_size);

  001fe	0f 10 45 d8	 movups	 xmm0, XMMWORD PTR $T16[ebp+4]
; File C:\Program Files\Microsoft Visual Studio\2022\Community\VC\Tools\MSVC\14.44.35207\include\utility

; 278  :     pair(pair&&)      = default;

  00202	8b 45 d4	 mov	 eax, DWORD PTR $T16[ebp]
  00205	89 01		 mov	 DWORD PTR [ecx], eax
; File C:\Program Files\Microsoft Visual Studio\2022\Community\VC\Tools\MSVC\14.44.35207\include\xstring

; 1286 :                 _CSTD memcpy(_My_data_mem, _Right_data_mem, _Memcpy_val_size);

  00207	0f 11 41 04	 movups	 XMMWORD PTR [ecx+4], xmm0

; 1290 :                 _Right_data._Activate_SSO_buffer();
; 1291 :                 _Traits::assign(_Right_data._Bx._Buf[0], _Elem());

  0020b	c6 45 d8 00	 mov	 BYTE PTR $T16[ebp+4], 0
  0020f	f3 0f 7e 45 e8	 movq	 xmm0, QWORD PTR $T16[ebp+20]
  00214	66 0f d6 41 14	 movq	 QWORD PTR [ecx+20], xmm0
; File C:\Program Files\Microsoft Visual Studio\2022\Community\VC\Tools\MSVC\14.44.35207\include\vector

; 869  :         ++_Mylast;

  00219	83 46 04 1c	 add	 DWORD PTR [esi+4], 28	; 0000001cH
; File C:\Program Files\Microsoft Visual Studio\2022\Community\VC\Tools\MSVC\14.44.35207\include\xstring

; 1288 :                 _Right_data._Mysize = 0;

  0021d	c7 45 e8 00 00
	00 00		 mov	 DWORD PTR $T16[ebp+20], 0

; 1289 :                 _Right_data._Myres  = _Small_string_capacity;

  00224	c7 45 ec 0f 00
	00 00		 mov	 DWORD PTR $T16[ebp+24], 15 ; 0000000fH
; File C:\Program Files\Microsoft Visual Studio\2022\Community\VC\Tools\MSVC\14.44.35207\include\vector

; 845  :             return _Emplace_back_with_unused_capacity(_STD forward<_Valty>(_Val)...);

  0022b	eb 0c		 jmp	 SHORT $LN194@ScanProces
$LN195@ScanProces:

; 846  :         }
; 847  : 
; 848  :         return *_Emplace_reallocate(_Mylast, _STD forward<_Valty>(_Val)...);

  0022d	8d 45 d4	 lea	 eax, DWORD PTR $T16[ebp]
  00230	50		 push	 eax
  00231	51		 push	 ecx
  00232	8b ce		 mov	 ecx, esi
  00234	e8 00 00 00 00	 call	 ??$_Emplace_reallocate@U?$pair@KV?$basic_string@DU?$char_traits@D@std@@V?$allocator@D@2@@std@@@std@@@?$vector@U?$pair@KV?$basic_string@DU?$char_traits@D@std@@V?$allocator@D@2@@std@@@std@@V?$allocator@U?$pair@KV?$basic_string@DU?$char_traits@D@std@@V?$allocator@D@2@@std@@@std@@@2@@std@@AAEPAU?$pair@KV?$basic_string@DU?$char_traits@D@std@@V?$allocator@D@2@@std@@@1@QAU21@$$QAU21@@Z ; std::vector<std::pair<unsigned long,std::basic_string<char,std::char_traits<char>,std::allocator<char> > >,std::allocator<std::pair<unsigned long,std::basic_string<char,std::char_traits<char>,std::allocator<char> > > > >::_Emplace_reallocate<std::pair<unsigned long,std::basic_string<char,std::char_traits<char>,std::allocator<char> > > >
$LN194@ScanProces:
; File C:\Program Files\Microsoft Visual Studio\2022\Community\VC\Tools\MSVC\14.44.35207\include\xstring

; 1383 :         _Tidy_deallocate();

  00239	8d 4d d8	 lea	 ecx, DWORD PTR $T16[ebp+4]
; File C:\Anka2Project\Anka2Project\Source\Binary\source\UserInterface\ProcessScanner.cpp

; 50   : 						pkVct_crcPair->push_back(std::make_pair(crcProc, (const char *)me32.szExePath));						

  0023c	c7 45 fc ff ff
	ff ff		 mov	 DWORD PTR __$EHRec$[ebp+8], -1
; File C:\Program Files\Microsoft Visual Studio\2022\Community\VC\Tools\MSVC\14.44.35207\include\xstring

; 1383 :         _Tidy_deallocate();

  00243	e8 00 00 00 00	 call	 ?_Tidy_deallocate@?$basic_string@DU?$char_traits@D@std@@V?$allocator@D@2@@std@@AAEXXZ ; std::basic_string<char,std::char_traits<char>,std::allocator<char> >::_Tidy_deallocate
  00248	8b b5 74 fc ff
	ff		 mov	 esi, DWORD PTR _hModuleSnap$1$[ebp]
$LN291@ScanProces:
; File C:\Anka2Project\Anka2Project\Source\Binary\source\UserInterface\ProcessScanner.cpp

; 52   : 					Sleep(1);

  0024e	6a 01		 push	 1
  00250	ff 15 00 00 00
	00		 call	 DWORD PTR __imp__Sleep@4

; 53   : 						
; 54   : 					ZeroMemory(&me32, sizeof(MODULEENTRY32));

  00256	68 20 02 00 00	 push	 544			; 00000220H
  0025b	8d 85 b4 fd ff
	ff		 lea	 eax, DWORD PTR _me32$45[ebp+4]
  00261	6a 00		 push	 0
  00263	50		 push	 eax
  00264	e8 00 00 00 00	 call	 _memset
  00269	83 c4 0c	 add	 esp, 12			; 0000000cH

; 55   : 					me32.dwSize = sizeof(MODULEENTRY32);		

  0026c	c7 85 b0 fd ff
	ff 24 02 00 00	 mov	 DWORD PTR _me32$45[ebp], 548 ; 00000224H

; 56   : 					bRet = Module32Next(hModuleSnap, &me32);

  00276	8d 85 b0 fd ff
	ff		 lea	 eax, DWORD PTR _me32$45[ebp]
  0027c	50		 push	 eax
  0027d	56		 push	 esi
  0027e	ff 15 00 00 00
	00		 call	 DWORD PTR __imp__Module32Next@8
  00284	85 c0		 test	 eax, eax
  00286	0f 85 89 fe ff
	ff		 jne	 $LL4@ScanProces
  0028c	8b bd 70 fc ff
	ff		 mov	 edi, DWORD PTR _hProc$1$[ebp]
$LN5@ScanProces:

; 57   : 				}
; 58   : 
; 59   : 				CloseHandle(hModuleSnap);

  00292	56		 push	 esi
  00293	8b 35 00 00 00
	00		 mov	 esi, DWORD PTR __imp__CloseHandle@4
  00299	ff d6		 call	 esi
  0029b	eb 06		 jmp	 SHORT $LN7@ScanProces
$LN325@ScanProces:

; 34   : 			if (hModuleSnap != INVALID_HANDLE_VALUE) 

  0029d	8b 35 00 00 00
	00		 mov	 esi, DWORD PTR __imp__CloseHandle@4
$LN7@ScanProces:

; 60   : 			}
; 61   : 
; 62   : 			CloseHandle(hProc);		

  002a3	57		 push	 edi
  002a4	ff d6		 call	 esi
$LN6@ScanProces:

; 63   : 		}
; 64   : 
; 65   : 	
; 66   :         bOK = Process32Next(process, Entry);

  002a6	8d 85 88 fc ff
	ff		 lea	 eax, DWORD PTR _pro$[ebp]
  002ac	50		 push	 eax
  002ad	ff b5 80 fc ff
	ff		 push	 DWORD PTR _process$1$[ebp]
  002b3	ff 15 00 00 00
	00		 call	 DWORD PTR __imp__Process32Next@8
  002b9	85 c0		 test	 eax, eax
  002bb	0f 85 df fd ff
	ff		 jne	 $LL2@ScanProces
$LN3@ScanProces:

; 67   :     }
; 68   :     CloseHandle(process);

  002c1	ff b5 80 fc ff
	ff		 push	 DWORD PTR _process$1$[ebp]
  002c7	ff d6		 call	 esi

; 69   : }

  002c9	8b 4d f4	 mov	 ecx, DWORD PTR __$EHRec$[ebp]
  002cc	64 89 0d 00 00
	00 00		 mov	 DWORD PTR fs:0, ecx
  002d3	59		 pop	 ecx
  002d4	5f		 pop	 edi
  002d5	5e		 pop	 esi
  002d6	8b 4d f0	 mov	 ecx, DWORD PTR __$ArrayPad$[ebp]
  002d9	33 cd		 xor	 ecx, ebp
  002db	e8 00 00 00 00	 call	 @__security_check_cookie@4
  002e0	8b e5		 mov	 esp, ebp
  002e2	5d		 pop	 ebp
  002e3	c3		 ret	 0
_TEXT	ENDS
;	COMDAT text$x
text$x	SEGMENT
__unwindfunclet$?ScanProcessList@@YAXAAV?$map@KKU?$less@K@std@@V?$allocator@U?$pair@$$CBKK@std@@@2@@std@@PAV?$vector@U?$pair@KV?$basic_string@DU?$char_traits@D@std@@V?$allocator@D@2@@std@@@std@@V?$allocator@U?$pair@KV?$basic_string@DU?$char_traits@D@std@@V?$allocator@D@2@@std@@@std@@@2@@2@@Z$0:
  00000	8d 4d d4	 lea	 ecx, DWORD PTR $T16[ebp]
  00003	e9 00 00 00 00	 jmp	 ??1?$pair@KV?$basic_string@DU?$char_traits@D@std@@V?$allocator@D@2@@std@@@std@@QAE@XZ
  00008	cc		 int	 3
  00009	cc		 int	 3
  0000a	cc		 int	 3
  0000b	cc		 int	 3
  0000c	cc		 int	 3
__ehhandler$?ScanProcessList@@YAXAAV?$map@KKU?$less@K@std@@V?$allocator@U?$pair@$$CBKK@std@@@2@@std@@PAV?$vector@U?$pair@KV?$basic_string@DU?$char_traits@D@std@@V?$allocator@D@2@@std@@@std@@V?$allocator@U?$pair@KV?$basic_string@DU?$char_traits@D@std@@V?$allocator@D@2@@std@@@std@@@2@@2@@Z:
  0000d	90		 npad	 1
  0000e	90		 npad	 1
  0000f	8b 54 24 08	 mov	 edx, DWORD PTR [esp+8]
  00013	8d 42 0c	 lea	 eax, DWORD PTR [edx+12]
  00016	8b 8a 30 fc ff
	ff		 mov	 ecx, DWORD PTR [edx-976]
  0001c	33 c8		 xor	 ecx, eax
  0001e	e8 00 00 00 00	 call	 @__security_check_cookie@4
  00023	8b 4a fc	 mov	 ecx, DWORD PTR [edx-4]
  00026	33 c8		 xor	 ecx, eax
  00028	e8 00 00 00 00	 call	 @__security_check_cookie@4
  0002d	b8 00 00 00 00	 mov	 eax, OFFSET __ehfuncinfo$?ScanProcessList@@YAXAAV?$map@KKU?$less@K@std@@V?$allocator@U?$pair@$$CBKK@std@@@2@@std@@PAV?$vector@U?$pair@KV?$basic_string@DU?$char_traits@D@std@@V?$allocator@D@2@@std@@@std@@V?$allocator@U?$pair@KV?$basic_string@DU?$char_traits@D@std@@V?$allocator@D@2@@std@@@std@@@2@@2@@Z
  00032	e9 00 00 00 00	 jmp	 ___CxxFrameHandler3
text$x	ENDS
?ScanProcessList@@YAXAAV?$map@KKU?$less@K@std@@V?$allocator@U?$pair@$$CBKK@std@@@2@@std@@PAV?$vector@U?$pair@KV?$basic_string@DU?$char_traits@D@std@@V?$allocator@D@2@@std@@@std@@V?$allocator@U?$pair@KV?$basic_string@DU?$char_traits@D@std@@V?$allocator@D@2@@std@@@std@@@2@@2@@Z ENDP ; ScanProcessList
; Function compile flags: /Ogtp
; File C:\Anka2Project\Anka2Project\Source\Binary\source\UserInterface\ProcessScanner.cpp
; File C:\Program Files\Microsoft Visual Studio\2022\Community\VC\Tools\MSVC\14.44.35207\include\xmemory
; File C:\Anka2Project\Anka2Project\Source\Binary\source\UserInterface\ProcessScanner.cpp
; File C:\Program Files\Microsoft Visual Studio\2022\Community\VC\Tools\MSVC\14.44.35207\include\xtree
; File C:\Anka2Project\Anka2Project\Source\Binary\source\UserInterface\ProcessScanner.cpp
; File C:\Program Files\Microsoft Visual Studio\2022\Community\VC\Tools\MSVC\14.44.35207\include\xtree
; File C:\Program Files\Microsoft Visual Studio\2022\Community\VC\Tools\MSVC\14.44.35207\include\xmemory
; File C:\Program Files\Microsoft Visual Studio\2022\Community\VC\Tools\MSVC\14.44.35207\include\xtree
; File C:\Anka2Project\Anka2Project\Source\Binary\source\UserInterface\ProcessScanner.cpp
; File C:\Program Files\Microsoft Visual Studio\2022\Community\VC\Tools\MSVC\14.44.35207\include\vector
; File C:\Anka2Project\Anka2Project\Source\Binary\source\UserInterface\ProcessScanner.cpp
; File C:\Program Files\Microsoft Visual Studio\2022\Community\VC\Tools\MSVC\14.44.35207\include\vector
; File C:\Program Files\Microsoft Visual Studio\2022\Community\VC\Tools\MSVC\14.44.35207\include\xstring
; File C:\Program Files\Microsoft Visual Studio\2022\Community\VC\Tools\MSVC\14.44.35207\include\xmemory
; File C:\Program Files\Microsoft Visual Studio\2022\Community\VC\Tools\MSVC\14.44.35207\include\vector
; File C:\Anka2Project\Anka2Project\Source\Binary\source\UserInterface\ProcessScanner.cpp
; File C:\Program Files\Microsoft Visual Studio\2022\Community\VC\Tools\MSVC\14.44.35207\include\vector
; File C:\Program Files\Microsoft Visual Studio\2022\Community\VC\Tools\MSVC\14.44.35207\include\xutility
; File C:\Program Files\Microsoft Visual Studio\2022\Community\VC\Tools\MSVC\14.44.35207\include\vector
; File C:\Program Files\Microsoft Visual Studio\2022\Community\VC\Tools\MSVC\14.44.35207\include\xutility
; File C:\Program Files\Microsoft Visual Studio\2022\Community\VC\Tools\MSVC\14.44.35207\include\vector
; File C:\Anka2Project\Anka2Project\Source\Binary\source\UserInterface\ProcessScanner.cpp
; File C:\Program Files\Microsoft Visual Studio\2022\Community\VC\Tools\MSVC\14.44.35207\include\vector
; File C:\Program Files\Microsoft Visual Studio\2022\Community\VC\Tools\MSVC\14.44.35207\include\xmemory
; File C:\Program Files\Microsoft Visual Studio\2022\Community\VC\Tools\MSVC\14.44.35207\include\xstring
; File C:\Program Files\Microsoft Visual Studio\2022\Community\VC\Tools\MSVC\14.44.35207\include\xmemory
; File C:\Program Files\Microsoft Visual Studio\2022\Community\VC\Tools\MSVC\14.44.35207\include\vector
; File C:\Program Files\Microsoft Visual Studio\2022\Community\VC\Tools\MSVC\14.44.35207\include\xmemory
; File C:\Program Files\Microsoft Visual Studio\2022\Community\VC\Tools\MSVC\14.44.35207\include\vector
; File C:\Program Files\Microsoft Visual Studio\2022\Community\VC\Tools\MSVC\14.44.35207\include\xtree
; File C:\Program Files\Microsoft Visual Studio\2022\Community\VC\Tools\MSVC\14.44.35207\include\xmemory
; File C:\Anka2Project\Anka2Project\Source\Binary\source\UserInterface\ProcessScanner.cpp
; File C:\Program Files\Microsoft Visual Studio\2022\Community\VC\Tools\MSVC\14.44.35207\include\xmemory
; File C:\Anka2Project\Anka2Project\Source\Binary\source\UserInterface\ProcessScanner.cpp
;	COMDAT ?ProcessScanner_Thread@@YAXPAX@Z
_TEXT	SEGMENT
_kVct_crcPair$ = -32					; size = 12
_kMap_crcProc$ = -20					; size = 8
__$EHRec$ = -12						; size = 12
_pv$ = 8						; size = 4
?ProcessScanner_Thread@@YAXPAX@Z PROC			; ProcessScanner_Thread, COMDAT

; 100  : {	

  00000	55		 push	 ebp
  00001	8b ec		 mov	 ebp, esp
  00003	6a ff		 push	 -1
  00005	68 00 00 00 00	 push	 __ehhandler$?ProcessScanner_Thread@@YAXPAX@Z
  0000a	64 a1 00 00 00
	00		 mov	 eax, DWORD PTR fs:0
  00010	50		 push	 eax
  00011	83 ec 14	 sub	 esp, 20			; 00000014H
  00014	53		 push	 ebx
  00015	56		 push	 esi
  00016	57		 push	 edi
  00017	a1 00 00 00 00	 mov	 eax, DWORD PTR ___security_cookie
  0001c	33 c5		 xor	 eax, ebp
  0001e	50		 push	 eax
  0001f	8d 45 f4	 lea	 eax, DWORD PTR __$EHRec$[ebp]
  00022	64 a3 00 00 00
	00		 mov	 DWORD PTR fs:0, eax

; 101  : 	DWORD dwDelay=(rand()%10)*1000+1000*10;

  00028	e8 00 00 00 00	 call	 _rand
  0002d	b9 0a 00 00 00	 mov	 ecx, 10			; 0000000aH
  00032	99		 cdq
  00033	f7 f9		 idiv	 ecx
; File C:\Program Files\Microsoft Visual Studio\2022\Community\VC\Tools\MSVC\14.44.35207\include\xmemory

; 136  :         return ::operator new(_Bytes);

  00035	6a 18		 push	 24			; 00000018H
; File C:\Anka2Project\Anka2Project\Source\Binary\source\UserInterface\ProcessScanner.cpp

; 101  : 	DWORD dwDelay=(rand()%10)*1000+1000*10;

  00037	03 d1		 add	 edx, ecx
; File C:\Program Files\Microsoft Visual Studio\2022\Community\VC\Tools\MSVC\14.44.35207\include\xtree

; 450  :     _Tree_val() noexcept : _Myhead(), _Mysize(0) {}

  00039	c7 45 ec 00 00
	00 00		 mov	 DWORD PTR _kMap_crcProc$[ebp], 0
; File C:\Anka2Project\Anka2Project\Source\Binary\source\UserInterface\ProcessScanner.cpp

; 101  : 	DWORD dwDelay=(rand()%10)*1000+1000*10;

  00040	69 f2 e8 03 00
	00		 imul	 esi, edx, 1000
; File C:\Program Files\Microsoft Visual Studio\2022\Community\VC\Tools\MSVC\14.44.35207\include\xtree

; 450  :     _Tree_val() noexcept : _Myhead(), _Mysize(0) {}

  00046	c7 45 f0 00 00
	00 00		 mov	 DWORD PTR _kMap_crcProc$[ebp+4], 0
; File C:\Program Files\Microsoft Visual Studio\2022\Community\VC\Tools\MSVC\14.44.35207\include\xmemory

; 136  :         return ::operator new(_Bytes);

  0004d	e8 00 00 00 00	 call	 ??2@YAPAXI@Z		; operator new
  00052	83 c4 04	 add	 esp, 4
; File C:\Program Files\Microsoft Visual Studio\2022\Community\VC\Tools\MSVC\14.44.35207\include\xtree

; 346  :         _Construct_in_place(_Pnode->_Left, _Pnode);

  00055	89 00		 mov	 DWORD PTR [eax], eax

; 347  :         _Construct_in_place(_Pnode->_Parent, _Pnode);

  00057	89 40 04	 mov	 DWORD PTR [eax+4], eax

; 348  :         _Construct_in_place(_Pnode->_Right, _Pnode);

  0005a	89 40 08	 mov	 DWORD PTR [eax+8], eax

; 349  :         _Pnode->_Color = _Black;

  0005d	66 c7 40 0c 01
	01		 mov	 WORD PTR [eax+12], 257	; 00000101H

; 1957 :         _Scary->_Myhead = _Node::_Buyheadnode(_Getal());

  00063	89 45 ec	 mov	 DWORD PTR _kMap_crcProc$[ebp], eax
; File C:\Anka2Project\Anka2Project\Source\Binary\source\UserInterface\ProcessScanner.cpp

; 103  : 	std::map<DWORD, DWORD>	kMap_crcProc;

  00066	c7 45 fc 00 00
	00 00		 mov	 DWORD PTR __$EHRec$[ebp+8], 0
; File C:\Program Files\Microsoft Visual Studio\2022\Community\VC\Tools\MSVC\14.44.35207\include\vector

; 400  :     _CONSTEXPR20 _Vector_val() noexcept : _Myfirst(), _Mylast(), _Myend() {}

  0006d	c7 45 e0 00 00
	00 00		 mov	 DWORD PTR _kVct_crcPair$[ebp], 0
  00074	c7 45 e4 00 00
	00 00		 mov	 DWORD PTR _kVct_crcPair$[ebp+4], 0
  0007b	c7 45 e8 00 00
	00 00		 mov	 DWORD PTR _kVct_crcPair$[ebp+8], 0
; File C:\Anka2Project\Anka2Project\Source\Binary\source\UserInterface\ProcessScanner.cpp

; 104  : 	std::vector<CRCPair>	kVct_crcPair;

  00082	c6 45 fc 01	 mov	 BYTE PTR __$EHRec$[ebp+8], 1

; 105  : 	
; 106  : 	while (WAIT_OBJECT_0 != WaitForSingleObject(gs_evReqExit, dwDelay))

  00086	8b 1d 00 00 00
	00		 mov	 ebx, DWORD PTR __imp__WaitForSingleObject@8
  0008c	56		 push	 esi
  0008d	ff 35 00 00 00
	00		 push	 DWORD PTR ?gs_evReqExit@@3PAXA
  00093	ff d3		 call	 ebx
  00095	85 c0		 test	 eax, eax
  00097	0f 84 96 00 00
	00		 je	 $LN3@ProcessSca
  0009d	0f 1f 00	 npad	 3
$LL2@ProcessSca:
; File C:\Program Files\Microsoft Visual Studio\2022\Community\VC\Tools\MSVC\14.44.35207\include\vector

; 1812 :         if (_Myfirst == _Mylast) { // already empty, nothing to do

  000a0	8b 75 e0	 mov	 esi, DWORD PTR _kVct_crcPair$[ebp]
  000a3	8b 7d e4	 mov	 edi, DWORD PTR _kVct_crcPair$[ebp+4]
  000a6	3b f7		 cmp	 esi, edi
  000a8	74 1b		 je	 SHORT $LN54@ProcessSca
  000aa	66 0f 1f 44 00
	00		 npad	 6
$LL61@ProcessSca:
; File C:\Program Files\Microsoft Visual Studio\2022\Community\VC\Tools\MSVC\14.44.35207\include\xstring

; 1383 :         _Tidy_deallocate();

  000b0	8d 4e 04	 lea	 ecx, DWORD PTR [esi+4]
  000b3	e8 00 00 00 00	 call	 ?_Tidy_deallocate@?$basic_string@DU?$char_traits@D@std@@V?$allocator@D@2@@std@@AAEXXZ ; std::basic_string<char,std::char_traits<char>,std::allocator<char> >::_Tidy_deallocate
; File C:\Program Files\Microsoft Visual Studio\2022\Community\VC\Tools\MSVC\14.44.35207\include\xmemory

; 1102 :         for (; _First != _Last; ++_First) {

  000b8	83 c6 1c	 add	 esi, 28			; 0000001cH
  000bb	3b f7		 cmp	 esi, edi
  000bd	75 f1		 jne	 SHORT $LL61@ProcessSca
; File C:\Program Files\Microsoft Visual Studio\2022\Community\VC\Tools\MSVC\14.44.35207\include\vector

; 1822 :         _Mylast = _Myfirst;

  000bf	8b 45 e0	 mov	 eax, DWORD PTR _kVct_crcPair$[ebp]
  000c2	89 45 e4	 mov	 DWORD PTR _kVct_crcPair$[ebp+4], eax
$LN54@ProcessSca:
; File C:\Anka2Project\Anka2Project\Source\Binary\source\UserInterface\ProcessScanner.cpp

; 109  : 		ScanProcessList(kMap_crcProc, &kVct_crcPair);

  000c5	8d 55 e0	 lea	 edx, DWORD PTR _kVct_crcPair$[ebp]
  000c8	8d 4d ec	 lea	 ecx, DWORD PTR _kMap_crcProc$[ebp]
  000cb	e8 00 00 00 00	 call	 ?ScanProcessList@@YAXAAV?$map@KKU?$less@K@std@@V?$allocator@U?$pair@$$CBKK@std@@@2@@std@@PAV?$vector@U?$pair@KV?$basic_string@DU?$char_traits@D@std@@V?$allocator@D@2@@std@@@std@@V?$allocator@U?$pair@KV?$basic_string@DU?$char_traits@D@std@@V?$allocator@D@2@@std@@@std@@@2@@2@@Z ; ScanProcessList

; 110  : 
; 111  : 		EnterCriticalSection(&gs_csData);

  000d0	68 00 00 00 00	 push	 OFFSET ?gs_csData@@3U_RTL_CRITICAL_SECTION@@A
  000d5	ff 15 00 00 00
	00		 call	 DWORD PTR __imp__EnterCriticalSection@4
; File C:\Program Files\Microsoft Visual Studio\2022\Community\VC\Tools\MSVC\14.44.35207\include\vector

; 1276 :         auto _UFirst         = _STD _Get_unwrapped(_First);

  000db	8b 4d e4	 mov	 ecx, DWORD PTR _kVct_crcPair$[ebp+4]
; File C:\Program Files\Microsoft Visual Studio\2022\Community\VC\Tools\MSVC\14.44.35207\include\xutility

; 1662 :         return _Last - _First; // assume the iterator will do debug checking

  000de	b8 93 24 49 92	 mov	 eax, -1840700269	; 92492493H
; File C:\Program Files\Microsoft Visual Studio\2022\Community\VC\Tools\MSVC\14.44.35207\include\vector

; 1276 :         auto _UFirst         = _STD _Get_unwrapped(_First);

  000e3	8b 75 e0	 mov	 esi, DWORD PTR _kVct_crcPair$[ebp]
  000e6	2b ce		 sub	 ecx, esi
; File C:\Program Files\Microsoft Visual Studio\2022\Community\VC\Tools\MSVC\14.44.35207\include\xutility

; 1662 :         return _Last - _First; // assume the iterator will do debug checking

  000e8	f7 e9		 imul	 ecx
  000ea	03 d1		 add	 edx, ecx
  000ec	c1 fa 04	 sar	 edx, 4
  000ef	8b c2		 mov	 eax, edx
  000f1	c1 e8 1f	 shr	 eax, 31			; 0000001fH
  000f4	03 c2		 add	 eax, edx
; File C:\Program Files\Microsoft Visual Studio\2022\Community\VC\Tools\MSVC\14.44.35207\include\vector

; 1282 :             _Insert_counted_range(_Where, _UFirst, _Count);

  000f6	50		 push	 eax
  000f7	56		 push	 esi
  000f8	ff 35 04 00 00
	00		 push	 DWORD PTR ?gs_kVct_crcPair@@3V?$vector@U?$pair@KV?$basic_string@DU?$char_traits@D@std@@V?$allocator@D@2@@std@@@std@@V?$allocator@U?$pair@KV?$basic_string@DU?$char_traits@D@std@@V?$allocator@D@2@@std@@@std@@@2@@std@@A+4
  000fe	e8 00 00 00 00	 call	 ??$_Insert_counted_range@PAU?$pair@KV?$basic_string@DU?$char_traits@D@std@@V?$allocator@D@2@@std@@@std@@@?$vector@U?$pair@KV?$basic_string@DU?$char_traits@D@std@@V?$allocator@D@2@@std@@@std@@V?$allocator@U?$pair@KV?$basic_string@DU?$char_traits@D@std@@V?$allocator@D@2@@std@@@std@@@2@@std@@AAEXV?$_Vector_const_iterator@V?$_Vector_val@U?$_Simple_types@U?$pair@KV?$basic_string@DU?$char_traits@D@std@@V?$allocator@D@2@@std@@@std@@@std@@@std@@@1@PAU?$pair@KV?$basic_string@DU?$char_traits@D@std@@V?$allocator@D@2@@std@@@1@I@Z ; std::vector<std::pair<unsigned long,std::basic_string<char,std::char_traits<char>,std::allocator<char> > >,std::allocator<std::pair<unsigned long,std::basic_string<char,std::char_traits<char>,std::allocator<char> > > > >::_Insert_counted_range<std::pair<unsigned long,std::basic_string<char,std::char_traits<char>,std::allocator<char> > > *>
; File C:\Anka2Project\Anka2Project\Source\Binary\source\UserInterface\ProcessScanner.cpp

; 113  : 		LeaveCriticalSection(&gs_csData);				

  00103	68 00 00 00 00	 push	 OFFSET ?gs_csData@@3U_RTL_CRITICAL_SECTION@@A
  00108	ff 15 00 00 00
	00		 call	 DWORD PTR __imp__LeaveCriticalSection@4

; 114  : 
; 115  : 		dwDelay=(rand()%10)*1000+1000;

  0010e	e8 00 00 00 00	 call	 _rand
  00113	99		 cdq
  00114	b9 0a 00 00 00	 mov	 ecx, 10			; 0000000aH
  00119	f7 f9		 idiv	 ecx
  0011b	42		 inc	 edx
  0011c	69 c2 e8 03 00
	00		 imul	 eax, edx, 1000
  00122	50		 push	 eax
  00123	ff 35 00 00 00
	00		 push	 DWORD PTR ?gs_evReqExit@@3PAXA
  00129	ff d3		 call	 ebx
  0012b	85 c0		 test	 eax, eax
  0012d	0f 85 6d ff ff
	ff		 jne	 $LL2@ProcessSca
$LN3@ProcessSca:

; 116  : 	}
; 117  : 
; 118  : 	SetEvent(gs_evResExit);

  00133	ff 35 00 00 00
	00		 push	 DWORD PTR ?gs_evResExit@@3PAXA
  00139	ff 15 00 00 00
	00		 call	 DWORD PTR __imp__SetEvent@4
; File C:\Program Files\Microsoft Visual Studio\2022\Community\VC\Tools\MSVC\14.44.35207\include\vector

; 2090 :         if (_Myfirst) { // destroy and deallocate old array

  0013f	8b 75 e0	 mov	 esi, DWORD PTR _kVct_crcPair$[ebp]
  00142	85 f6		 test	 esi, esi
  00144	0f 84 76 00 00
	00		 je	 $LN127@ProcessSca

; 2091 :             _STD _Destroy_range(_Myfirst, _Mylast, _Al);

  0014a	8b 7d e4	 mov	 edi, DWORD PTR _kVct_crcPair$[ebp+4]
  0014d	3b f7		 cmp	 esi, edi
; File C:\Program Files\Microsoft Visual Studio\2022\Community\VC\Tools\MSVC\14.44.35207\include\xmemory

; 1102 :         for (; _First != _Last; ++_First) {

  0014f	74 12		 je	 SHORT $LN132@ProcessSca
$LL133@ProcessSca:
; File C:\Program Files\Microsoft Visual Studio\2022\Community\VC\Tools\MSVC\14.44.35207\include\xstring

; 1383 :         _Tidy_deallocate();

  00151	8d 4e 04	 lea	 ecx, DWORD PTR [esi+4]
  00154	e8 00 00 00 00	 call	 ?_Tidy_deallocate@?$basic_string@DU?$char_traits@D@std@@V?$allocator@D@2@@std@@AAEXXZ ; std::basic_string<char,std::char_traits<char>,std::allocator<char> >::_Tidy_deallocate
; File C:\Program Files\Microsoft Visual Studio\2022\Community\VC\Tools\MSVC\14.44.35207\include\xmemory

; 1102 :         for (; _First != _Last; ++_First) {

  00159	83 c6 1c	 add	 esi, 28			; 0000001cH
  0015c	3b f7		 cmp	 esi, edi
  0015e	75 f1		 jne	 SHORT $LL133@ProcessSca
  00160	8b 75 e0	 mov	 esi, DWORD PTR _kVct_crcPair$[ebp]
$LN132@ProcessSca:
; File C:\Program Files\Microsoft Visual Studio\2022\Community\VC\Tools\MSVC\14.44.35207\include\vector

; 2093 :             _Al.deallocate(_Myfirst, static_cast<size_type>(_Myend - _Myfirst));

  00163	8b 4d e8	 mov	 ecx, DWORD PTR _kVct_crcPair$[ebp+8]
  00166	b8 93 24 49 92	 mov	 eax, -1840700269	; 92492493H
  0016b	2b ce		 sub	 ecx, esi
  0016d	f7 e9		 imul	 ecx
  0016f	03 d1		 add	 edx, ecx
  00171	c1 fa 04	 sar	 edx, 4
  00174	8b c2		 mov	 eax, edx
  00176	c1 e8 1f	 shr	 eax, 31			; 0000001fH
  00179	03 c2		 add	 eax, edx
; File C:\Program Files\Microsoft Visual Studio\2022\Community\VC\Tools\MSVC\14.44.35207\include\xmemory

; 985  :         _STD _Deallocate<_New_alignof<_Ty>>(_Ptr, sizeof(_Ty) * _Count);

  0017b	8d 0c c5 00 00
	00 00		 lea	 ecx, DWORD PTR [eax*8]
  00182	2b c8		 sub	 ecx, eax
  00184	8b c6		 mov	 eax, esi
  00186	c1 e1 02	 shl	 ecx, 2

; 284  :         if (_Bytes >= _Big_allocation_threshold) {

  00189	81 f9 00 10 00
	00		 cmp	 ecx, 4096		; 00001000H
  0018f	72 10		 jb	 SHORT $LN166@ProcessSca

; 205  :     const uintptr_t _Ptr_container   = _Ptr_user[-1];

  00191	8b 70 fc	 mov	 esi, DWORD PTR [eax-4]
  00194	83 c1 23	 add	 ecx, 35			; 00000023H
  00197	2b c6		 sub	 eax, esi

; 219  :     _STL_VERIFY(_Back_shift >= _Min_back_shift && _Back_shift <= _Non_user_size, "invalid argument");

  00199	83 c0 fc	 add	 eax, -4			; fffffffcH
  0019c	83 f8 1f	 cmp	 eax, 31			; 0000001fH
  0019f	77 4f		 ja	 SHORT $LN234@ProcessSca
$LN166@ProcessSca:

; 289  :         ::operator delete(_Ptr, _Bytes);

  001a1	51		 push	 ecx
  001a2	56		 push	 esi
  001a3	e8 00 00 00 00	 call	 ??3@YAXPAXI@Z		; operator delete
  001a8	83 c4 08	 add	 esp, 8
; File C:\Program Files\Microsoft Visual Studio\2022\Community\VC\Tools\MSVC\14.44.35207\include\vector

; 2095 :             _Myfirst = nullptr;

  001ab	c7 45 e0 00 00
	00 00		 mov	 DWORD PTR _kVct_crcPair$[ebp], 0

; 2096 :             _Mylast  = nullptr;

  001b2	c7 45 e4 00 00
	00 00		 mov	 DWORD PTR _kVct_crcPair$[ebp+4], 0

; 2097 :             _Myend   = nullptr;

  001b9	c7 45 e8 00 00
	00 00		 mov	 DWORD PTR _kVct_crcPair$[ebp+8], 0
$LN127@ProcessSca:
; File C:\Program Files\Microsoft Visual Studio\2022\Community\VC\Tools\MSVC\14.44.35207\include\xtree

; 777  :         _Erase_tree(_Al, _Myhead->_Parent);

  001c0	8b 45 ec	 mov	 eax, DWORD PTR _kMap_crcProc$[ebp]
  001c3	ff 70 04	 push	 DWORD PTR [eax+4]
  001c6	8d 45 ec	 lea	 eax, DWORD PTR _kMap_crcProc$[ebp]
  001c9	50		 push	 eax
  001ca	8b c8		 mov	 ecx, eax
  001cc	e8 00 00 00 00	 call	 ??$_Erase_tree@V?$allocator@U?$_Tree_node@U?$pair@$$CBKK@std@@PAX@std@@@std@@@?$_Tree_val@U?$_Tree_simple_types@U?$pair@$$CBKK@std@@@std@@@std@@QAEXAAV?$allocator@U?$_Tree_node@U?$pair@$$CBKK@std@@PAX@std@@@1@PAU?$_Tree_node@U?$pair@$$CBKK@std@@PAX@1@@Z ; std::_Tree_val<std::_Tree_simple_types<std::pair<unsigned long const ,unsigned long> > >::_Erase_tree<std::allocator<std::_Tree_node<std::pair<unsigned long const ,unsigned long>,void *> > >
; File C:\Program Files\Microsoft Visual Studio\2022\Community\VC\Tools\MSVC\14.44.35207\include\xmemory

; 289  :         ::operator delete(_Ptr, _Bytes);

  001d1	6a 18		 push	 24			; 00000018H
  001d3	ff 75 ec	 push	 DWORD PTR _kMap_crcProc$[ebp]
  001d6	e8 00 00 00 00	 call	 ??3@YAXPAXI@Z		; operator delete
  001db	83 c4 08	 add	 esp, 8
; File C:\Anka2Project\Anka2Project\Source\Binary\source\UserInterface\ProcessScanner.cpp

; 119  : }

  001de	8b 4d f4	 mov	 ecx, DWORD PTR __$EHRec$[ebp]
  001e1	64 89 0d 00 00
	00 00		 mov	 DWORD PTR fs:0, ecx
  001e8	59		 pop	 ecx
  001e9	5f		 pop	 edi
  001ea	5e		 pop	 esi
  001eb	5b		 pop	 ebx
  001ec	8b e5		 mov	 esp, ebp
  001ee	5d		 pop	 ebp
  001ef	c3		 ret	 0
$LN234@ProcessSca:
; File C:\Program Files\Microsoft Visual Studio\2022\Community\VC\Tools\MSVC\14.44.35207\include\xmemory

; 219  :     _STL_VERIFY(_Back_shift >= _Min_back_shift && _Back_shift <= _Non_user_size, "invalid argument");

  001f0	6a 00		 push	 0
  001f2	6a 00		 push	 0
  001f4	6a 00		 push	 0
  001f6	6a 00		 push	 0
  001f8	6a 00		 push	 0
  001fa	e8 00 00 00 00	 call	 __invoke_watson
$LN232@ProcessSca:
  001ff	cc		 int	 3
_TEXT	ENDS
;	COMDAT text$x
text$x	SEGMENT
__unwindfunclet$?ProcessScanner_Thread@@YAXPAX@Z$0:
  00000	8d 4d ec	 lea	 ecx, DWORD PTR _kMap_crcProc$[ebp]
  00003	e9 00 00 00 00	 jmp	 ??1?$map@KKU?$less@K@std@@V?$allocator@U?$pair@$$CBKK@std@@@2@@std@@QAE@XZ
__unwindfunclet$?ProcessScanner_Thread@@YAXPAX@Z$1:
  00008	8d 4d e0	 lea	 ecx, DWORD PTR _kVct_crcPair$[ebp]
  0000b	e9 00 00 00 00	 jmp	 ??1?$vector@U?$pair@KV?$basic_string@DU?$char_traits@D@std@@V?$allocator@D@2@@std@@@std@@V?$allocator@U?$pair@KV?$basic_string@DU?$char_traits@D@std@@V?$allocator@D@2@@std@@@std@@@2@@std@@QAE@XZ ; std::vector<std::pair<unsigned long,std::basic_string<char,std::char_traits<char>,std::allocator<char> > >,std::allocator<std::pair<unsigned long,std::basic_string<char,std::char_traits<char>,std::allocator<char> > > > >::~vector<std::pair<unsigned long,std::basic_string<char,std::char_traits<char>,std::allocator<char> > >,std::allocator<std::pair<unsigned long,std::basic_string<char,std::char_traits<char>,std::allocator<char> > > > >
  00010	cc		 int	 3
  00011	cc		 int	 3
  00012	cc		 int	 3
  00013	cc		 int	 3
  00014	cc		 int	 3
__ehhandler$?ProcessScanner_Thread@@YAXPAX@Z:
  00015	90		 npad	 1
  00016	90		 npad	 1
  00017	8b 54 24 08	 mov	 edx, DWORD PTR [esp+8]
  0001b	8d 42 0c	 lea	 eax, DWORD PTR [edx+12]
  0001e	8b 4a dc	 mov	 ecx, DWORD PTR [edx-36]
  00021	33 c8		 xor	 ecx, eax
  00023	e8 00 00 00 00	 call	 @__security_check_cookie@4
  00028	b8 00 00 00 00	 mov	 eax, OFFSET __ehfuncinfo$?ProcessScanner_Thread@@YAXPAX@Z
  0002d	e9 00 00 00 00	 jmp	 ___CxxFrameHandler3
text$x	ENDS
?ProcessScanner_Thread@@YAXPAX@Z ENDP			; ProcessScanner_Thread
END
