; Listing generated by Microsoft (R) Optimizing Compiler Version 19.44.35219.0 

	TITLE	c:\anka2project\anka2project\source\binary\vs_files\userinterface\release\pythonapplication.obj
	.686P
	.XMM
	include listing.inc
	.model	flat

INCLUDELIB OLDNAMES

PUBLIC	??_C@_1KI@NDOHEKDB@?$AAC?$AA?3?$AA?2?$AAA?$AAn?$AAk?$AAa?$AA2?$AAP?$AAr?$AAo?$AAj?$AAe?$AAc?$AAt@ ; `string'
PUBLIC	??_C@_1DA@IANAENLC@?$AAm?$AAs?$AA_?$AAp?$AAI?$AAn?$AAs?$AAt?$AAa?$AAn?$AAc?$AAe?$AA?5?$AA?$CB?$AA?$DN@ ; `string'
PUBLIC	??_C@_0GN@LLBDNFAM@?$DN?$DN?$DN?$DN?$DN?$DN?$DN?$DN?$DN?$DN?$DN?$DN?$DN?$DN?$DN?$DN?$DN?$DN?$DN?$DN?$DN?$DN?$DN?$DN?$DN?$DN?$DN?$DN?$DN?$DN?$DN@ ; `string'
PUBLIC	??_C@_0M@EHJKIBDK@Abort?$CB?$CB?$CB?$CB?6?6@	; `string'
PUBLIC	??_C@_0BL@GHJOJKGG@FrameSkip?5Adjusting?4?4?4?5?$CFd?6@ ; `string'
PUBLIC	??_C@_0CF@LOPCCCAL@DEVICESTATE_NEEDS_RESET?5?9?5attem@ ; `string'
PUBLIC	??_C@_0BN@OAKBEJJN@CREATE_NO_APPROPRIATE_DEVICE@ ; `string'
PUBLIC	??_C@_0CD@GGLEAAKE@CreateDevice?3?5Enum?5?$CG?5Detect?5fai@ ; `string'
PUBLIC	??_C@_0BC@NKAKBNDM@CREATE_NO_DIRECTX@		; `string'
PUBLIC	??_C@_0DK@GACPAJMM@CreateDevice?3?5DirectX?58?41?5or?5gr@ ; `string'
PUBLIC	??_C@_0O@CMPMDOEH@CREATE_DEVICE@		; `string'
PUBLIC	??_C@_0CK@KMPBIDGP@CreateDevice?3?5GraphicDevice?5cre@ ; `string'
PUBLIC	??_C@_0O@DAEHMKOB@CREATE_FORMAT@		; `string'
PUBLIC	??_C@_0CH@DEBFNBPL@CreateDevice?3?5Change?5the?5screen@ ; `string'
PUBLIC	??_C@_0BC@IMJEDJEA@GetDevCaps?5failed@		; `string'
PUBLIC	??_C@_0CA@DLHDILBB@CreateDevice?3?5GetDevCaps?5failed@ ; `string'
PUBLIC	??_C@_0BD@IHNLMMLJ@GetDevCaps2?5failed@		; `string'
PUBLIC	??_C@_0CB@JLAAEKGJ@CreateDevice?3?5GetDevCaps2?5faile@ ; `string'
PUBLIC	??_C@_0O@BAEJJDKB@UNKNOWN_ERROR@		; `string'
PUBLIC	??_C@_0BN@JAHEKIGK@CreateDevice?3?5Unknown?5Error?$CB@ ; `string'
PUBLIC	??_C@_0O@MBOHINFJ@locale?1common@		; `string'
PUBLIC	??_C@_0BB@EOELDOLA@?$CFs?1item_list?4txt@	; `string'
PUBLIC	??_C@_0BC@NLEJCAEF@?$CFs?1SkillTable?4txt@	; `string'
PUBLIC	??_C@_0BB@JGLJKD@?$CFs?1mob_scale?4txt@		; `string'
PUBLIC	??_C@_0BC@PNKIJLFN@?$CFs?1item_scale?4txt@	; `string'
PUBLIC	??_C@_0BC@GDFAFLKP@?$CFs?1aura_scale?4txt@	; `string'
PUBLIC	??_C@_0BJ@LHDGEGED@?$CFs?1event_reward_list?4txt@ ; `string'
PUBLIC	??_C@_0BF@DDJEMEFH@?$CFs?1locale_string?4txt@	; `string'
PUBLIC	??_C@_0BE@CKCMBMKI@?$CFs?1monster_chat?4txt@	; `string'
PUBLIC	??_C@_0BD@CFBMHOFC@?$CFs?1locale_quiz?4txt@	; `string'
PUBLIC	??_C@_0BJ@CILNFEAO@?$CFs?1guildbuildinglist?4txt@ ; `string'
PUBLIC	??_C@_0BB@EHJGDDML@?$CFs?1pet_skill?4txt@	; `string'
PUBLIC	??_C@_0BA@EPHKNMDA@?$CFs?1npc_wear?4txt@	; `string'
PUBLIC	??_C@_0O@MEMEPBB@?$CFs?1item_proto@		; `string'
PUBLIC	??_C@_0BA@BIDKFLDM@?$CFs?1itemdesc?4txt@	; `string'
PUBLIC	??_C@_0N@KCBCHIHM@?$CFs?1mob_proto@		; `string'
PUBLIC	??_C@_0BB@JDMIHPNN@?$CFs?1SkillDesc?4txt@	; `string'
PUBLIC	??_C@_0O@JEIJHCCG@?$CFs?1insult?4txt@		; `string'
PUBLIC	??_C@_0CI@MGBDCDJE@LoadLocaleData?5?9?5LoadItemList?$CI?$CF@ ; `string'
PUBLIC	??_C@_0CJ@MIFDPICO@LoadLocaleData?5?9?5LoadItemProto?$CI@ ; `string'
PUBLIC	??_C@_0CI@FLOPHKEN@LoadLocaleData?5?9?5LoadItemDesc?$CI?$CF@ ; `string'
PUBLIC	??_C@_0CI@PNCAMHEJ@LoadLocaleData?5?9?5LoadMobProto?$CI?$CF@ ; `string'
PUBLIC	??_C@_0CN@NIKOAAJF@LoadLocaleData?5?9?5RegisterSkillD@ ; `string'
PUBLIC	??_C@_0CO@HCDPLHIO@LoadLocaleData?5?9?5RegisterSkillT@ ; `string'
PUBLIC	??_C@_0DO@PNDPPMDH@CPythonApplication?5?9?5CPythonNet@ ; `string'
PUBLIC	??_C@_0CG@PLPHALMN@LoadMobScale?5?9?5LoadMobScale?$CI?$CFs?$CJ@ ; `string'
PUBLIC	??_C@_0CI@NHMEBJOH@LoadLocaleData?3?5error?5while?5loa@ ; `string'
PUBLIC	??_C@_0CJ@MDAGKIOK@LoadLocaleData?5?9?5LoadAuraScale?$CI@ ; `string'
PUBLIC	??_C@_0CP@CBNIPEEN@LoadLocaleData?5?9?5LoadEventRewar@ ; `string'
PUBLIC	??_C@_0DA@DIGJHCGF@LoadLocaleData?5?9?5LoadLocaleStri@ ; `string'
PUBLIC	??_C@_0CO@PHJMHAHD@LoadLocaleData?5?9?5LoadLocaleChat@ ; `string'
PUBLIC	??_C@_0CO@ILPAGHEO@LoadLocaleData?5?9?5LoadLocaleQuiz@ ; `string'
PUBLIC	??_C@_0DF@HFNMNKEC@LoadLocaleData?5?9?5RegisterGuildB@ ; `string'
PUBLIC	??_C@_0DB@GEMLPGJM@LoadLocaleData?5?9?5RegisterPetSki@ ; `string'
PUBLIC	??_C@_0CL@IBCOJJMI@LoadLocaleData?5?9?5LoadNPCWearIte@ ; `string'
PUBLIC	??_C@_0BJ@DBNNLGNG@CMSWindow?3?3Create?5failed@	; `string'
PUBLIC	??_C@_0O@NOBMPFEG@CREATE_WINDOW@		; `string'
PUBLIC	??_C@_0CA@FFOMJBHN@CMSWindow?3?3Cursors?5Create?5Error@ ; `string'
PUBLIC	??_C@_0BA@GLLECKCO@?$CCCREATE_CURSOR?$CC@	; `string'
PUBLIC	??_C@_0BJ@CJEBNOLC@NetDevice?3?3Create?5failed@	; `string'
PUBLIC	??_C@_0BB@EJLMKODK@?$CCCREATE_NETWORK?$CC@	; `string'
PUBLIC	??_C@_0CD@KIIBIHOG@d?3?1ymir?5work?1special?1spheremap?4@ ; `string'
PUBLIC	??_C@_0CF@CBFEMJII@d?3?1ymir?5work?1special?1spheremap0@ ; `string'
PUBLIC	??_R2CPythonApplication@@8			; CPythonApplication::`RTTI Base Class Array'
PUBLIC	??_R2CInputKeyboard@@8				; CInputKeyboard::`RTTI Base Class Array'
PUBLIC	??_R2CInputDevice@@8				; CInputDevice::`RTTI Base Class Array'
PUBLIC	??_R2CMSApplication@@8				; CMSApplication::`RTTI Base Class Array'
PUBLIC	??_R2CMSWindow@@8				; CMSWindow::`RTTI Base Class Array'
PUBLIC	??_R2IAbstractApplication@@8			; IAbstractApplication::`RTTI Base Class Array'
PUBLIC	??_R2?$TAbstractSingleton@VIAbstractApplication@@@@8 ; TAbstractSingleton<IAbstractApplication>::`RTTI Base Class Array'
PUBLIC	??_R1CA@?0A@EA@?$TAbstractSingleton@VIAbstractApplication@@@@8 ; TAbstractSingleton<IAbstractApplication>::`RTTI Base Class Descriptor at (32,-1,0,64)'
PUBLIC	??_R1CA@?0A@EA@IAbstractApplication@@8		; IAbstractApplication::`RTTI Base Class Descriptor at (32,-1,0,64)'
PUBLIC	??_R1BM@?0A@EA@CInputDevice@@8			; CInputDevice::`RTTI Base Class Descriptor at (28,-1,0,64)'
PUBLIC	??_R1BM@?0A@EA@CInputKeyboard@@8		; CInputKeyboard::`RTTI Base Class Descriptor at (28,-1,0,64)'
PUBLIC	??_R1A@?0A@EA@CPythonApplication@@8		; CPythonApplication::`RTTI Base Class Descriptor at (0,-1,0,64)'
PUBLIC	??_R1A@?0A@EA@CInputKeyboard@@8			; CInputKeyboard::`RTTI Base Class Descriptor at (0,-1,0,64)'
PUBLIC	??_R1A@?0A@EA@CInputDevice@@8			; CInputDevice::`RTTI Base Class Descriptor at (0,-1,0,64)'
PUBLIC	??_R1A@?0A@EA@CMSApplication@@8			; CMSApplication::`RTTI Base Class Descriptor at (0,-1,0,64)'
PUBLIC	??_R1A@?0A@EA@CMSWindow@@8			; CMSWindow::`RTTI Base Class Descriptor at (0,-1,0,64)'
PUBLIC	??_R1A@?0A@EA@IAbstractApplication@@8		; IAbstractApplication::`RTTI Base Class Descriptor at (0,-1,0,64)'
PUBLIC	??_R1A@?0A@EA@?$TAbstractSingleton@VIAbstractApplication@@@@8 ; TAbstractSingleton<IAbstractApplication>::`RTTI Base Class Descriptor at (0,-1,0,64)'
PUBLIC	??_R3CInputDevice@@8				; CInputDevice::`RTTI Class Hierarchy Descriptor'
PUBLIC	??_R0?AVCInputDevice@@@8			; CInputDevice `RTTI Type Descriptor'
PUBLIC	??_R3CInputKeyboard@@8				; CInputKeyboard::`RTTI Class Hierarchy Descriptor'
PUBLIC	??_R0?AVCInputKeyboard@@@8			; CInputKeyboard `RTTI Type Descriptor'
PUBLIC	??_R3CMSApplication@@8				; CMSApplication::`RTTI Class Hierarchy Descriptor'
PUBLIC	??_R0?AVCMSApplication@@@8			; CMSApplication `RTTI Type Descriptor'
PUBLIC	??_R3CMSWindow@@8				; CMSWindow::`RTTI Class Hierarchy Descriptor'
PUBLIC	??_R0?AVCMSWindow@@@8				; CMSWindow `RTTI Type Descriptor'
PUBLIC	??_R3CPythonApplication@@8			; CPythonApplication::`RTTI Class Hierarchy Descriptor'
PUBLIC	??_R0?AVCPythonApplication@@@8			; CPythonApplication `RTTI Type Descriptor'
PUBLIC	??_R3?$TAbstractSingleton@VIAbstractApplication@@@@8 ; TAbstractSingleton<IAbstractApplication>::`RTTI Class Hierarchy Descriptor'
PUBLIC	??_R0?AV?$TAbstractSingleton@VIAbstractApplication@@@@@8 ; TAbstractSingleton<IAbstractApplication> `RTTI Type Descriptor'
PUBLIC	??_R3IAbstractApplication@@8			; IAbstractApplication::`RTTI Class Hierarchy Descriptor'
PUBLIC	??_R0?AVIAbstractApplication@@@8		; IAbstractApplication `RTTI Type Descriptor'
PUBLIC	??_R4CPythonApplication@@6BIAbstractApplication@@@ ; CPythonApplication::`RTTI Complete Object Locator'
PUBLIC	??_R4CPythonApplication@@6BCInputKeyboard@@@	; CPythonApplication::`RTTI Complete Object Locator'
PUBLIC	??_R4CPythonApplication@@6BCMSApplication@@@	; CPythonApplication::`RTTI Complete Object Locator'
PUBLIC	??_R4?$TAbstractSingleton@VIAbstractApplication@@@@6B@ ; TAbstractSingleton<IAbstractApplication>::`RTTI Complete Object Locator'
PUBLIC	??_R4IAbstractApplication@@6B@			; IAbstractApplication::`RTTI Complete Object Locator'
PUBLIC	?ms_singleton@?$CSingleton@VCTimer@@@@0PAVCTimer@@A ; CSingleton<CTimer>::ms_singleton
PUBLIC	?ms_singleton@?$CSingleton@VCWindowManager@UI@@@@0PAVCWindowManager@UI@@A ; CSingleton<UI::CWindowManager>::ms_singleton
PUBLIC	?ms_singleton@?$CSingleton@VCPythonIME@@@@0PAVCPythonIME@@A ; CSingleton<CPythonIME>::ms_singleton
PUBLIC	??_7?$TAbstractSingleton@VIAbstractApplication@@@@6B@ ; TAbstractSingleton<IAbstractApplication>::`vftable'
PUBLIC	?ms_singleton@?$CSingleton@VCPythonPlayerSettingsModule@@@@0PAVCPythonPlayerSettingsModule@@A ; CSingleton<CPythonPlayerSettingsModule>::ms_singleton
PUBLIC	?ms_singleton@?$CSingleton@VCRenderTargetManager@@@@0PAVCRenderTargetManager@@A ; CSingleton<CRenderTargetManager>::ms_singleton
PUBLIC	?ms_singleton@?$CSingleton@VInGameEventManager@@@@0PAVInGameEventManager@@A ; CSingleton<InGameEventManager>::ms_singleton
PUBLIC	?ms_singleton@?$CSingleton@VCPythonWiki@@@@0PAVCPythonWiki@@A ; CSingleton<CPythonWiki>::ms_singleton
PUBLIC	??_7CPythonApplication@@6BIAbstractApplication@@@ ; CPythonApplication::`vftable'
PUBLIC	??_7CPythonApplication@@6BCInputKeyboard@@@	; CPythonApplication::`vftable'
PUBLIC	??_7CPythonApplication@@6BCMSApplication@@@	; CPythonApplication::`vftable'
PUBLIC	?c_fDefaultCameraZoomSpeed@@3MA			; c_fDefaultCameraZoomSpeed
PUBLIC	?c_fDefaultCameraPitchSpeed@@3MA		; c_fDefaultCameraPitchSpeed
PUBLIC	?c_fDefaultCameraRotateSpeed@@3MA		; c_fDefaultCameraRotateSpeed
PUBLIC	?g_specularSpd@@3NA				; g_specularSpd
PUBLIC	?MIN_FOG@@3MA					; MIN_FOG
PUBLIC	?ms_pInstance@CPythonApplication@@1PAV1@A	; CPythonApplication::ms_pInstance
PUBLIC	??_7IAbstractApplication@@6B@			; IAbstractApplication::`vftable'
EXTRN	?OnSize@CMSWindow@@UAEXIJ@Z:PROC		; CMSWindow::OnSize
EXTRN	?Destroy@CMSWindow@@QAEXXZ:PROC			; CMSWindow::Destroy
EXTRN	?DestroySystem@CTextFileLoader@@SAXXZ:PROC	; CTextFileLoader::DestroySystem
EXTRN	?DestroySystem@CAttributeInstance@@SAXXZ:PROC	; CAttributeInstance::DestroySystem
EXTRN	?Destroy@CGraphicDevice@@QAEXXZ:PROC		; CGraphicDevice::Destroy
EXTRN	?Destroy@CSoundManager@@QAEXXZ:PROC		; CSoundManager::Destroy
EXTRN	?DestroySystem@CGraphicImageInstance@@SAXXZ:PROC ; CGraphicImageInstance::DestroySystem
EXTRN	?DestroySystem@CGrannyModelInstance@@SAXXZ:PROC	; CGrannyModelInstance::DestroySystem
EXTRN	?Destroy@CPythonResource@@QAEXXZ:PROC		; CPythonResource::Destroy
EXTRN	?Destroy@CPythonGraphic@@QAEXXZ:PROC		; CPythonGraphic::Destroy
EXTRN	?GrannyDestroySharedDeformBuffer@@YAXXZ:PROC	; GrannyDestroySharedDeformBuffer
EXTRN	?Destroy@CLightManager@@QAEXXZ:PROC		; CLightManager::Destroy
EXTRN	?Destroy@CEffectManager@@QAEXXZ:PROC		; CEffectManager::Destroy
EXTRN	?Destroy@CRaceManager@@QAEXXZ:PROC		; CRaceManager::Destroy
EXTRN	?Destroy@CFlyingManager@@QAEXXZ:PROC		; CFlyingManager::Destroy
EXTRN	?DestroyCollisionInstanceSystem@@YAXXZ:PROC	; DestroyCollisionInstanceSystem
EXTRN	?Destroy@CRenderTargetManager@@QAEXXZ:PROC	; CRenderTargetManager::Destroy
EXTRN	?Destroy@CWindowManager@UI@@QAEXXZ:PROC		; UI::CWindowManager::Destroy
EXTRN	?DestroySphereMap@CGrannyMaterial@@SAXXZ:PROC	; CGrannyMaterial::DestroySphereMap
EXTRN	_WebBrowser_Destroy:PROC
EXTRN	__imp__SendMessageA@16:PROC
EXTRN	?ms_hInstance@CMSWindow@@1PAUHINSTANCE__@@A:DWORD ; CMSWindow::ms_hInstance
EXTRN	__imp__FlashWindowEx@4:PROC
EXTRN	__time32:PROC
EXTRN	?CreateSphereMap@CGrannyMaterial@@SAXIPBD@Z:PROC ; CGrannyMaterial::CreateSphereMap
EXTRN	__imp__SystemParametersInfoA@16:PROC
EXTRN	?CreateSystem@CGraphicImageInstance@@SAXI@Z:PROC ; CGraphicImageInstance::CreateSystem
EXTRN	?Initialize@CLightManager@@QAEXXZ:PROC		; CLightManager::Initialize
EXTRN	?SetText@CIME@@QAEXPBDH@Z:PROC			; CIME::SetText
EXTRN	?IsFastTNL@CGraphicBase@@SA_NXZ:PROC		; CGraphicBase::IsFastTNL
EXTRN	?Create@CNetworkDevice@@QAE_NXZ:PROC		; CNetworkDevice::Create
EXTRN	?InitializeKeyboard@CInputKeyboard@@QAE_NPAUHWND__@@@Z:PROC ; CInputKeyboard::InitializeKeyboard
EXTRN	__imp__SetWindowPos@28:PROC
EXTRN	?SetVisibleMode@CMSWindow@@QAEX_N@Z:PROC	; CMSWindow::SetVisibleMode
EXTRN	?GrannyCreateSharedDeformBuffer@@YAXXZ:PROC	; GrannyCreateSharedDeformBuffer
EXTRN	?Create@CSoundManager@@QAEHXZ:PROC		; CSoundManager::Create
EXTRN	?GetScreenWidth@CMSWindow@@QAEHXZ:PROC		; CMSWindow::GetScreenWidth
EXTRN	?GetScreenHeight@CMSWindow@@QAEHXZ:PROC		; CMSWindow::GetScreenHeight
EXTRN	?SetPosition@CMSWindow@@QAEXHH@Z:PROC		; CMSWindow::SetPosition
EXTRN	?AdjustSize@CMSWindow@@QAEXHH@Z:PROC		; CMSWindow::AdjustSize
EXTRN	?UseDefaultIME@CIME@@QAEXXZ:PROC		; CIME::UseDefaultIME
EXTRN	?GetInstance@CMSWindow@@QAEPAUHINSTANCE__@@XZ:PROC ; CMSWindow::GetInstance
EXTRN	__imp__LoadIconA@8:PROC
EXTRN	?Create@CMSWindow@@QAE_NPBDHKKPAUHICON__@@H@Z:PROC ; CMSWindow::Create
EXTRN	__imp__FindWindowA@8:PROC
EXTRN	?LoadAuraScale@CItemManager@@QAE_NPBD@Z:PROC	; CItemManager::LoadAuraScale
EXTRN	?LoadItemScale@CItemManager@@QAE_NPBD@Z:PROC	; CItemManager::LoadItemScale
EXTRN	?LoadItemDesc@CItemManager@@QAE_NPBD@Z:PROC	; CItemManager::LoadItemDesc
EXTRN	?LoadItemTable@CItemManager@@QAE_NPBD@Z:PROC	; CItemManager::LoadItemTable
EXTRN	?LoadItemList@CItemManager@@QAE_NPBD@Z:PROC	; CItemManager::LoadItemList
EXTRN	?Destroy@CItemManager@@QAEXXZ:PROC		; CItemManager::Destroy
EXTRN	?MessageProcess@CMSApplication@@QAE_NXZ:PROC	; CMSApplication::MessageProcess
EXTRN	?IsMessage@CMSApplication@@QAE_NXZ:PROC		; CMSApplication::IsMessage
EXTRN	?SetMinLODMode@CGrannyLODController@@SAX_N@Z:PROC ; CGrannyLODController::SetMinLODMode
EXTRN	__imp__PyExc_RuntimeError:DWORD
EXTRN	__imp__PyErr_SetString:PROC
EXTRN	?GetWindowHandle@CMSWindow@@QAEPAUHWND__@@XZ:PROC ; CMSWindow::GetWindowHandle
EXTRN	?Create@CGraphicDevice@@QAEHPAUHWND__@@HH_NHH@Z:PROC ; CGraphicDevice::Create
EXTRN	?g_fGameFPS@@3MA:DWORD				; g_fGameFPS
EXTRN	?InitBackBufferCount@CGraphicDevice@@QAEXI@Z:PROC ; CGraphicDevice::InitBackBufferCount
EXTRN	?Reset@CGraphicDevice@@QAE_NXZ:PROC		; CGraphicDevice::Reset
EXTRN	?Trace@@YAXPBD@Z:PROC				; Trace
EXTRN	?GetDeviceState@CGraphicDevice@@QAE?AW4EDeviceState@1@XZ:PROC ; CGraphicDevice::GetDeviceState
EXTRN	?GetClientRect@CMSWindow@@QAEXPAUtagRECT@@@Z:PROC ; CMSWindow::GetClientRect
EXTRN	?ResetFaceCount@CGraphicBase@@QAEXXZ:PROC	; CGraphicBase::ResetFaceCount
EXTRN	?GetFaceCount@CGraphicBase@@QAEKXZ:PROC		; CGraphicBase::GetFaceCount
EXTRN	?Show@CScreen@@QAEXPAUHWND__@@@Z:PROC		; CScreen::Show
EXTRN	?End@CScreen@@QAEXXZ:PROC			; CScreen::End
EXTRN	?SetInterfaceRenderState@CPythonGraphic@@QAEXXZ:PROC ; CPythonGraphic::SetInterfaceRenderState
EXTRN	?ClearDepthBuffer@CScreen@@QAEXXZ:PROC		; CScreen::ClearDepthBuffer
EXTRN	?Begin@CScreen@@QAE_NXZ:PROC			; CScreen::Begin
EXTRN	?Update@CCullingManager@@QAEXXZ:PROC		; CCullingManager::Update
EXTRN	?IsActive@CMSWindow@@QAE_NXZ:PROC		; CMSWindow::IsActive
EXTRN	?CreateRenderTargetTextures@CRenderTargetManager@@QAEXXZ:PROC ; CRenderTargetManager::CreateRenderTargetTextures
EXTRN	?RestoreDevice@CScreen@@QAEHXZ:PROC		; CScreen::RestoreDevice
EXTRN	?ReleaseRenderTargetTextures@CRenderTargetManager@@QAEXXZ:PROC ; CRenderTargetManager::ReleaseRenderTargetTextures
EXTRN	?TranslateSpecularMatrix@CGrannyMaterial@@SAXMMM@Z:PROC ; CGrannyMaterial::TranslateSpecularMatrix
EXTRN	?Adjust@CTimer@@QAEXH@Z:PROC			; CTimer::Adjust
EXTRN	?Update@CResourceManager@@QAEXXZ:PROC		; CResourceManager::Update
EXTRN	__imp__ScreenToClient@8:PROC
EXTRN	__imp__GetCursorPos@4:PROC
EXTRN	?UpdateKeyboard@CInputKeyboard@@QAEXXZ:PROC	; CInputKeyboard::UpdateKeyboard
EXTRN	?GetElapsedMilliecond@CTimer@@QAEKXZ:PROC	; CTimer::GetElapsedMilliecond
EXTRN	?GetElapsedSecond@CTimer@@QAEMXZ:PROC		; CTimer::GetElapsedSecond
EXTRN	?GetCurrentSecond@CTimer@@QAEMXZ:PROC		; CTimer::GetCurrentSecond
EXTRN	?Advance@CTimer@@QAEXXZ:PROC			; CTimer::Advance
EXTRN	?ELTimer_SetFrameMSec@@YAXXZ:PROC		; ELTimer_SetFrameMSec
EXTRN	?Update@CFlyingManager@@QAEXXZ:PROC		; CFlyingManager::Update
EXTRN	?UpdateSound@CEffectManager@@QAEXXZ:PROC	; CEffectManager::UpdateSound
EXTRN	?Update@CEffectManager@@QAEXXZ:PROC		; CEffectManager::Update
EXTRN	?Update@CGameEventManager@@QAEXXZ:PROC		; CGameEventManager::Update
EXTRN	?SetCenterPosition@CGameEventManager@@QAEXMMM@Z:PROC ; CGameEventManager::SetCenterPosition
EXTRN	?UpdateModels@CRenderTargetManager@@QAEXXZ:PROC	; CRenderTargetManager::UpdateModels
EXTRN	?BuildViewFrustum@CScreen@@QAEXXZ:PROC		; CScreen::BuildViewFrustum
EXTRN	?Hyperlink_UpdateMousePos@CGraphicTextInstance@@SAXHH@Z:PROC ; CGraphicTextInstance::Hyperlink_UpdateMousePos
EXTRN	?Render@CFlyingManager@@QAEXXZ:PROC		; CFlyingManager::Render
EXTRN	?Render@CEffectManager@@QAEXXZ:PROC		; CEffectManager::Render
EXTRN	?EndEnvironment@CMapManager@@QAEXXZ:PROC	; CMapManager::EndEnvironment
EXTRN	?RenderModels@CRenderTargetManager@@QAEXXZ:PROC	; CRenderTargetManager::RenderModels
EXTRN	?BeginEnvironment@CMapManager@@QAEXXZ:PROC	; CMapManager::BeginEnvironment
EXTRN	?SetCursorPosition@CPythonGraphic@@QAEXHH@Z:PROC ; CPythonGraphic::SetCursorPosition
EXTRN	?GetMousePosition@CWindowManager@UI@@QAEXAAJ0@Z:PROC ; UI::CWindowManager::GetMousePosition
EXTRN	?PushState@CPythonGraphic@@QAEXXZ:PROC		; CPythonGraphic::PushState
EXTRN	?SetGameRenderState@CPythonGraphic@@QAEXXZ:PROC	; CPythonGraphic::SetGameRenderState
EXTRN	?DeformModels@CRenderTargetManager@@QAEXXZ:PROC	; CRenderTargetManager::DeformModels
EXTRN	?Process@CCullingManager@@QAEXXZ:PROC		; CCullingManager::Process
EXTRN	?SetPerspective@CGraphicBase@@QAEXMMMM@Z:PROC	; CGraphicBase::SetPerspective
EXTRN	?GetAspect@CWindowManager@UI@@QAEMXZ:PROC	; UI::CWindowManager::GetAspect
EXTRN	?RenderBackgrounds@CRenderTargetManager@@QAEXXZ:PROC ; CRenderTargetManager::RenderBackgrounds
EXTRN	__imp__PostQuitMessage@4:PROC
EXTRN	?GetInfo@CEffectManager@@QAEXPAV?$basic_string@DU?$char_traits@D@std@@V?$allocator@D@2@@std@@@Z:PROC ; CEffectManager::GetInfo
EXTRN	?GetMousePosition@CMSWindow@@QAEXPAUtagPOINT@@@Z:PROC ; CMSWindow::GetMousePosition
EXTRN	?AddCamera@CCameraManager@@QAE_NE@Z:PROC	; CCameraManager::AddCamera
EXTRN	?UseCustomTime@CTimer@@QAEXXZ:PROC		; CTimer::UseCustomTime
EXTRN	?SetEterExceptionHandler@@YAXXZ:PROC		; SetEterExceptionHandler
EXTRN	??1CRenderTargetManager@@UAE@XZ:PROC		; CRenderTargetManager::~CRenderTargetManager
EXTRN	??0CRenderTargetManager@@QAE@XZ:PROC		; CRenderTargetManager::CRenderTargetManager
EXTRN	??1CNetworkDevice@@UAE@XZ:PROC			; CNetworkDevice::~CNetworkDevice
EXTRN	??0CNetworkDevice@@QAE@XZ:PROC			; CNetworkDevice::CNetworkDevice
EXTRN	??1CGraphicDevice@@UAE@XZ:PROC			; CGraphicDevice::~CGraphicDevice
EXTRN	??0CGraphicDevice@@QAE@XZ:PROC			; CGraphicDevice::CGraphicDevice
EXTRN	??1CPythonResource@@UAE@XZ:PROC			; CPythonResource::~CPythonResource
EXTRN	??0CPythonResource@@QAE@XZ:PROC			; CPythonResource::CPythonResource
EXTRN	??1CPythonGraphic@@UAE@XZ:PROC			; CPythonGraphic::~CPythonGraphic
EXTRN	??0CPythonGraphic@@QAE@XZ:PROC			; CPythonGraphic::CPythonGraphic
EXTRN	??1CEffectManager@@UAE@XZ:PROC			; CEffectManager::~CEffectManager
EXTRN	??0CEffectManager@@QAE@XZ:PROC			; CEffectManager::CEffectManager
EXTRN	??1CWindowManager@UI@@UAE@XZ:PROC		; UI::CWindowManager::~CWindowManager
EXTRN	??0CWindowManager@UI@@QAE@XZ:PROC		; UI::CWindowManager::CWindowManager
EXTRN	??1CItemManager@@UAE@XZ:PROC			; CItemManager::~CItemManager
EXTRN	??0CItemManager@@QAE@XZ:PROC			; CItemManager::CItemManager
EXTRN	??1CGameEventManager@@UAE@XZ:PROC		; CGameEventManager::~CGameEventManager
EXTRN	??0CGameEventManager@@QAE@XZ:PROC		; CGameEventManager::CGameEventManager
EXTRN	??1CRaceManager@@UAE@XZ:PROC			; CRaceManager::~CRaceManager
EXTRN	??0CRaceManager@@QAE@XZ:PROC			; CRaceManager::CRaceManager
EXTRN	??1CFlyingManager@@UAE@XZ:PROC			; CFlyingManager::~CFlyingManager
EXTRN	??0CFlyingManager@@QAE@XZ:PROC			; CFlyingManager::CFlyingManager
EXTRN	??1CSoundManager@@UAE@XZ:PROC			; CSoundManager::~CSoundManager
EXTRN	??0CSoundManager@@QAE@XZ:PROC			; CSoundManager::CSoundManager
EXTRN	??1CLightManager@@UAE@XZ:PROC			; CLightManager::~CLightManager
EXTRN	??0CLightManager@@QAE@XZ:PROC			; CLightManager::CLightManager
EXTRN	??1CTimer@@UAE@XZ:PROC				; CTimer::~CTimer
EXTRN	??0CTimer@@QAE@XZ:PROC				; CTimer::CTimer
EXTRN	??1CInputKeyboard@@UAE@XZ:PROC			; CInputKeyboard::~CInputKeyboard
EXTRN	??0CInputKeyboard@@QAE@XZ:PROC			; CInputKeyboard::CInputKeyboard
EXTRN	??1CMSApplication@@UAE@XZ:PROC			; CMSApplication::~CMSApplication
EXTRN	??0CMSApplication@@QAE@XZ:PROC			; CMSApplication::CMSApplication
;	COMDAT ?ms_singleton@?$CSingleton@VCTimer@@@@0PAVCTimer@@A
_BSS	SEGMENT
?ms_singleton@?$CSingleton@VCTimer@@@@0PAVCTimer@@A DD 01H DUP (?) ; CSingleton<CTimer>::ms_singleton
_BSS	ENDS
;	COMDAT ?ms_singleton@?$CSingleton@VCWindowManager@UI@@@@0PAVCWindowManager@UI@@A
_BSS	SEGMENT
?ms_singleton@?$CSingleton@VCWindowManager@UI@@@@0PAVCWindowManager@UI@@A DD 01H DUP (?) ; CSingleton<UI::CWindowManager>::ms_singleton
_BSS	ENDS
;	COMDAT ?ms_singleton@?$CSingleton@VCPythonIME@@@@0PAVCPythonIME@@A
_BSS	SEGMENT
?ms_singleton@?$CSingleton@VCPythonIME@@@@0PAVCPythonIME@@A DD 01H DUP (?) ; CSingleton<CPythonIME>::ms_singleton
_BSS	ENDS
;	COMDAT ?ms_singleton@?$CSingleton@VCPythonPlayerSettingsModule@@@@0PAVCPythonPlayerSettingsModule@@A
_BSS	SEGMENT
?ms_singleton@?$CSingleton@VCPythonPlayerSettingsModule@@@@0PAVCPythonPlayerSettingsModule@@A DD 01H DUP (?) ; CSingleton<CPythonPlayerSettingsModule>::ms_singleton
_BSS	ENDS
;	COMDAT ?ms_singleton@?$CSingleton@VCRenderTargetManager@@@@0PAVCRenderTargetManager@@A
_BSS	SEGMENT
?ms_singleton@?$CSingleton@VCRenderTargetManager@@@@0PAVCRenderTargetManager@@A DD 01H DUP (?) ; CSingleton<CRenderTargetManager>::ms_singleton
_BSS	ENDS
;	COMDAT ?ms_singleton@?$CSingleton@VInGameEventManager@@@@0PAVInGameEventManager@@A
_BSS	SEGMENT
?ms_singleton@?$CSingleton@VInGameEventManager@@@@0PAVInGameEventManager@@A DD 01H DUP (?) ; CSingleton<InGameEventManager>::ms_singleton
_BSS	ENDS
;	COMDAT ?ms_singleton@?$CSingleton@VCPythonWiki@@@@0PAVCPythonWiki@@A
_BSS	SEGMENT
?ms_singleton@?$CSingleton@VCPythonWiki@@@@0PAVCPythonWiki@@A DD 01H DUP (?) ; CSingleton<CPythonWiki>::ms_singleton
_BSS	ENDS
;	COMDAT ?s_fBufRenderTime@?DE@??Process@CPythonApplication@@QAE_NXZ@4MA
_BSS	SEGMENT
?s_fBufRenderTime@?DE@??Process@CPythonApplication@@QAE_NXZ@4MA DD 01H DUP (?) ; `CPythonApplication::Process'::`52'::s_fBufRenderTime
_BSS	ENDS
;	COMDAT ?s_dwRenderRangeFrame@?CL@??Process@CPythonApplication@@QAE_NXZ@4KA
_BSS	SEGMENT
?s_dwRenderRangeFrame@?CL@??Process@CPythonApplication@@QAE_NXZ@4KA DD 01H DUP (?) ; `CPythonApplication::Process'::`43'::s_dwRenderRangeFrame
_BSS	ENDS
;	COMDAT ?s_dwRenderRangeTime@?CL@??Process@CPythonApplication@@QAE_NXZ@4KA
_BSS	SEGMENT
?s_dwRenderRangeTime@?CL@??Process@CPythonApplication@@QAE_NXZ@4KA DD 01H DUP (?) ; `CPythonApplication::Process'::`43'::s_dwRenderRangeTime
_BSS	ENDS
;	COMDAT ?s_bFrameSkip@?1??Process@CPythonApplication@@QAE_NXZ@4HA
_BSS	SEGMENT
?s_bFrameSkip@?1??Process@CPythonApplication@@QAE_NXZ@4HA DD 01H DUP (?) ; `CPythonApplication::Process'::`2'::s_bFrameSkip
_BSS	ENDS
;	COMDAT ?s_dwFaceCount@?1??Process@CPythonApplication@@QAE_NXZ@4KA
_BSS	SEGMENT
?s_dwFaceCount@?1??Process@CPythonApplication@@QAE_NXZ@4KA DD 01H DUP (?) ; `CPythonApplication::Process'::`2'::s_dwFaceCount
_BSS	ENDS
;	COMDAT ?s_uiLoad@?1??Process@CPythonApplication@@QAE_NXZ@4IA
_BSS	SEGMENT
?s_uiLoad@?1??Process@CPythonApplication@@QAE_NXZ@4IA DD 01H DUP (?) ; `CPythonApplication::Process'::`2'::s_uiLoad
_BSS	ENDS
;	COMDAT ?s_dwRenderFrameCount@?1??Process@CPythonApplication@@QAE_NXZ@4KA
_BSS	SEGMENT
?s_dwRenderFrameCount@?1??Process@CPythonApplication@@QAE_NXZ@4KA DD 01H DUP (?) ; `CPythonApplication::Process'::`2'::s_dwRenderFrameCount
_BSS	ENDS
;	COMDAT ?s_dwUpdateFrameCount@?1??Process@CPythonApplication@@QAE_NXZ@4KA
_BSS	SEGMENT
?s_dwUpdateFrameCount@?1??Process@CPythonApplication@@QAE_NXZ@4KA DD 01H DUP (?) ; `CPythonApplication::Process'::`2'::s_dwUpdateFrameCount
?ms_pInstance@CPythonApplication@@1PAV1@A DD 01H DUP (?) ; CPythonApplication::ms_pInstance
_BSS	ENDS
;	COMDAT ??_7IAbstractApplication@@6B@
CONST	SEGMENT
??_7IAbstractApplication@@6B@ DD FLAT:??_R4IAbstractApplication@@6B@ ; IAbstractApplication::`vftable'
	DD	FLAT:??_EIAbstractApplication@@UAEPAXI@Z
	DD	FLAT:__purecall
	DD	FLAT:__purecall
	DD	FLAT:__purecall
	DD	FLAT:__purecall
	DD	FLAT:__purecall
	DD	FLAT:__purecall
	DD	FLAT:__purecall
	DD	FLAT:__purecall
	DD	FLAT:__purecall
	DD	FLAT:__purecall
	DD	FLAT:__purecall
	DD	FLAT:__purecall
	DD	FLAT:__purecall
	DD	FLAT:__purecall
	DD	FLAT:__purecall
	DD	FLAT:__purecall
	DD	FLAT:__purecall
CONST	ENDS
;	COMDAT ??_7CPythonApplication@@6BCMSApplication@@@
CONST	SEGMENT
??_7CPythonApplication@@6BCMSApplication@@@ DD FLAT:??_R4CPythonApplication@@6BCMSApplication@@@ ; CPythonApplication::`vftable'
	DD	FLAT:??_ECPythonApplication@@UAEPAXI@Z
	DD	FLAT:?WindowProcedure@CPythonApplication@@MAEJPAUHWND__@@IIJ@Z
	DD	FLAT:?OnSize@CMSWindow@@UAEXIJ@Z
CONST	ENDS
;	COMDAT ??_7CPythonApplication@@6BCInputKeyboard@@@
CONST	SEGMENT
??_7CPythonApplication@@6BCInputKeyboard@@@ DD FLAT:??_R4CPythonApplication@@6BCInputKeyboard@@@ ; CPythonApplication::`vftable'
	DD	FLAT:??_ECPythonApplication@@WBM@AEPAXI@Z
	DD	FLAT:?OnKeyDown@CPythonApplication@@MAEXH@Z
	DD	FLAT:?OnKeyUp@CPythonApplication@@MAEXH@Z
CONST	ENDS
;	COMDAT ??_7CPythonApplication@@6BIAbstractApplication@@@
CONST	SEGMENT
??_7CPythonApplication@@6BIAbstractApplication@@@ DD FLAT:??_R4CPythonApplication@@6BIAbstractApplication@@@ ; CPythonApplication::`vftable'
	DD	FLAT:??_ECPythonApplication@@WCA@AEPAXI@Z
	DD	FLAT:?GetMousePosition@CPythonApplication@@UAEXPAUtagPOINT@@@Z
	DD	FLAT:?GetGlobalTime@CPythonApplication@@UAEMXZ
	DD	FLAT:?GetGlobalElapsedTime@CPythonApplication@@UAEMXZ
	DD	FLAT:?SkipRenderBuffering@CPythonApplication@@UAEXK@Z
	DD	FLAT:?SetServerTime@CPythonApplication@@UAEXJ@Z
	DD	FLAT:?SetCenterPosition@CPythonApplication@@UAEXMMM@Z
	DD	FLAT:?SetEventCamera@CPythonApplication@@UAEXABUSCameraSetting@IAbstractApplication@@@Z
	DD	FLAT:?BlendEventCamera@CPythonApplication@@UAEXABUSCameraSetting@IAbstractApplication@@M@Z
	DD	FLAT:?SetDefaultCamera@CPythonApplication@@UAEXXZ
	DD	FLAT:?RunIMEUpdate@CPythonApplication@@UAEXXZ
	DD	FLAT:?RunIMETabEvent@CPythonApplication@@UAEXXZ
	DD	FLAT:?RunIMEReturnEvent@CPythonApplication@@UAEXXZ
	DD	FLAT:?RunIMEChangeCodePage@CPythonApplication@@UAEXXZ
	DD	FLAT:?RunIMEOpenCandidateListEvent@CPythonApplication@@UAEXXZ
	DD	FLAT:?RunIMECloseCandidateListEvent@CPythonApplication@@UAEXXZ
	DD	FLAT:?RunIMEOpenReadingWndEvent@CPythonApplication@@UAEXXZ
	DD	FLAT:?RunIMECloseReadingWndEvent@CPythonApplication@@UAEXXZ
CONST	ENDS
;	COMDAT ?s_fAveRenderTime@?EN@??Process@CPythonApplication@@QAE_NXZ@4MA
_DATA	SEGMENT
?s_fAveRenderTime@?EN@??Process@CPythonApplication@@QAE_NXZ@4MA DD 041800000r ; 16 ; `CPythonApplication::Process'::`77'::s_fAveRenderTime
_DATA	ENDS
;	COMDAT ??_7?$TAbstractSingleton@VIAbstractApplication@@@@6B@
CONST	SEGMENT
??_7?$TAbstractSingleton@VIAbstractApplication@@@@6B@ DD FLAT:??_R4?$TAbstractSingleton@VIAbstractApplication@@@@6B@ ; TAbstractSingleton<IAbstractApplication>::`vftable'
	DD	FLAT:??_E?$TAbstractSingleton@VIAbstractApplication@@@@UAEPAXI@Z
CONST	ENDS
;	COMDAT ??_R4IAbstractApplication@@6B@
rdata$r	SEGMENT
??_R4IAbstractApplication@@6B@ DD 00H			; IAbstractApplication::`RTTI Complete Object Locator'
	DD	00H
	DD	00H
	DD	FLAT:??_R0?AVIAbstractApplication@@@8
	DD	FLAT:??_R3IAbstractApplication@@8
rdata$r	ENDS
;	COMDAT ??_R4?$TAbstractSingleton@VIAbstractApplication@@@@6B@
rdata$r	SEGMENT
??_R4?$TAbstractSingleton@VIAbstractApplication@@@@6B@ DD 00H ; TAbstractSingleton<IAbstractApplication>::`RTTI Complete Object Locator'
	DD	00H
	DD	00H
	DD	FLAT:??_R0?AV?$TAbstractSingleton@VIAbstractApplication@@@@@8
	DD	FLAT:??_R3?$TAbstractSingleton@VIAbstractApplication@@@@8
rdata$r	ENDS
;	COMDAT ??_R4CPythonApplication@@6BCMSApplication@@@
rdata$r	SEGMENT
??_R4CPythonApplication@@6BCMSApplication@@@ DD 00H	; CPythonApplication::`RTTI Complete Object Locator'
	DD	00H
	DD	00H
	DD	FLAT:??_R0?AVCPythonApplication@@@8
	DD	FLAT:??_R3CPythonApplication@@8
rdata$r	ENDS
;	COMDAT ??_R4CPythonApplication@@6BCInputKeyboard@@@
rdata$r	SEGMENT
??_R4CPythonApplication@@6BCInputKeyboard@@@ DD 00H	; CPythonApplication::`RTTI Complete Object Locator'
	DD	01cH
	DD	00H
	DD	FLAT:??_R0?AVCPythonApplication@@@8
	DD	FLAT:??_R3CPythonApplication@@8
rdata$r	ENDS
;	COMDAT ??_R4CPythonApplication@@6BIAbstractApplication@@@
rdata$r	SEGMENT
??_R4CPythonApplication@@6BIAbstractApplication@@@ DD 00H ; CPythonApplication::`RTTI Complete Object Locator'
	DD	020H
	DD	00H
	DD	FLAT:??_R0?AVCPythonApplication@@@8
	DD	FLAT:??_R3CPythonApplication@@8
rdata$r	ENDS
;	COMDAT ??_R0?AVIAbstractApplication@@@8
data$rs	SEGMENT
??_R0?AVIAbstractApplication@@@8 DD FLAT:??_7type_info@@6B@ ; IAbstractApplication `RTTI Type Descriptor'
	DD	00H
	DB	'.?AVIAbstractApplication@@', 00H
data$rs	ENDS
;	COMDAT ??_R3IAbstractApplication@@8
rdata$r	SEGMENT
??_R3IAbstractApplication@@8 DD 00H			; IAbstractApplication::`RTTI Class Hierarchy Descriptor'
	DD	00H
	DD	02H
	DD	FLAT:??_R2IAbstractApplication@@8
rdata$r	ENDS
;	COMDAT ??_R0?AV?$TAbstractSingleton@VIAbstractApplication@@@@@8
data$rs	SEGMENT
??_R0?AV?$TAbstractSingleton@VIAbstractApplication@@@@@8 DD FLAT:??_7type_info@@6B@ ; TAbstractSingleton<IAbstractApplication> `RTTI Type Descriptor'
	DD	00H
	DB	'.?AV?$TAbstractSingleton@VIAbstractApplication@@@@', 00H
data$rs	ENDS
;	COMDAT ??_R3?$TAbstractSingleton@VIAbstractApplication@@@@8
rdata$r	SEGMENT
??_R3?$TAbstractSingleton@VIAbstractApplication@@@@8 DD 00H ; TAbstractSingleton<IAbstractApplication>::`RTTI Class Hierarchy Descriptor'
	DD	00H
	DD	01H
	DD	FLAT:??_R2?$TAbstractSingleton@VIAbstractApplication@@@@8
rdata$r	ENDS
;	COMDAT ??_R0?AVCPythonApplication@@@8
data$rs	SEGMENT
??_R0?AVCPythonApplication@@@8 DD FLAT:??_7type_info@@6B@ ; CPythonApplication `RTTI Type Descriptor'
	DD	00H
	DB	'.?AVCPythonApplication@@', 00H
data$rs	ENDS
;	COMDAT ??_R3CPythonApplication@@8
rdata$r	SEGMENT
??_R3CPythonApplication@@8 DD 00H			; CPythonApplication::`RTTI Class Hierarchy Descriptor'
	DD	01H
	DD	07H
	DD	FLAT:??_R2CPythonApplication@@8
rdata$r	ENDS
;	COMDAT ??_R0?AVCMSWindow@@@8
data$rs	SEGMENT
??_R0?AVCMSWindow@@@8 DD FLAT:??_7type_info@@6B@	; CMSWindow `RTTI Type Descriptor'
	DD	00H
	DB	'.?AVCMSWindow@@', 00H
data$rs	ENDS
;	COMDAT ??_R3CMSWindow@@8
rdata$r	SEGMENT
??_R3CMSWindow@@8 DD 00H				; CMSWindow::`RTTI Class Hierarchy Descriptor'
	DD	00H
	DD	01H
	DD	FLAT:??_R2CMSWindow@@8
rdata$r	ENDS
;	COMDAT ??_R0?AVCMSApplication@@@8
data$rs	SEGMENT
??_R0?AVCMSApplication@@@8 DD FLAT:??_7type_info@@6B@	; CMSApplication `RTTI Type Descriptor'
	DD	00H
	DB	'.?AVCMSApplication@@', 00H
data$rs	ENDS
;	COMDAT ??_R3CMSApplication@@8
rdata$r	SEGMENT
??_R3CMSApplication@@8 DD 00H				; CMSApplication::`RTTI Class Hierarchy Descriptor'
	DD	00H
	DD	02H
	DD	FLAT:??_R2CMSApplication@@8
rdata$r	ENDS
;	COMDAT ??_R0?AVCInputKeyboard@@@8
data$rs	SEGMENT
??_R0?AVCInputKeyboard@@@8 DD FLAT:??_7type_info@@6B@	; CInputKeyboard `RTTI Type Descriptor'
	DD	00H
	DB	'.?AVCInputKeyboard@@', 00H
data$rs	ENDS
;	COMDAT ??_R3CInputKeyboard@@8
rdata$r	SEGMENT
??_R3CInputKeyboard@@8 DD 00H				; CInputKeyboard::`RTTI Class Hierarchy Descriptor'
	DD	00H
	DD	02H
	DD	FLAT:??_R2CInputKeyboard@@8
rdata$r	ENDS
;	COMDAT ??_R0?AVCInputDevice@@@8
data$rs	SEGMENT
??_R0?AVCInputDevice@@@8 DD FLAT:??_7type_info@@6B@	; CInputDevice `RTTI Type Descriptor'
	DD	00H
	DB	'.?AVCInputDevice@@', 00H
data$rs	ENDS
;	COMDAT ??_R3CInputDevice@@8
rdata$r	SEGMENT
??_R3CInputDevice@@8 DD 00H				; CInputDevice::`RTTI Class Hierarchy Descriptor'
	DD	00H
	DD	01H
	DD	FLAT:??_R2CInputDevice@@8
rdata$r	ENDS
;	COMDAT ??_R1A@?0A@EA@?$TAbstractSingleton@VIAbstractApplication@@@@8
rdata$r	SEGMENT
??_R1A@?0A@EA@?$TAbstractSingleton@VIAbstractApplication@@@@8 DD FLAT:??_R0?AV?$TAbstractSingleton@VIAbstractApplication@@@@@8 ; TAbstractSingleton<IAbstractApplication>::`RTTI Base Class Descriptor at (0,-1,0,64)'
	DD	00H
	DD	00H
	DD	0ffffffffH
	DD	00H
	DD	040H
	DD	FLAT:??_R3?$TAbstractSingleton@VIAbstractApplication@@@@8
rdata$r	ENDS
;	COMDAT ??_R1A@?0A@EA@IAbstractApplication@@8
rdata$r	SEGMENT
??_R1A@?0A@EA@IAbstractApplication@@8 DD FLAT:??_R0?AVIAbstractApplication@@@8 ; IAbstractApplication::`RTTI Base Class Descriptor at (0,-1,0,64)'
	DD	01H
	DD	00H
	DD	0ffffffffH
	DD	00H
	DD	040H
	DD	FLAT:??_R3IAbstractApplication@@8
rdata$r	ENDS
;	COMDAT ??_R1A@?0A@EA@CMSWindow@@8
rdata$r	SEGMENT
??_R1A@?0A@EA@CMSWindow@@8 DD FLAT:??_R0?AVCMSWindow@@@8 ; CMSWindow::`RTTI Base Class Descriptor at (0,-1,0,64)'
	DD	00H
	DD	00H
	DD	0ffffffffH
	DD	00H
	DD	040H
	DD	FLAT:??_R3CMSWindow@@8
rdata$r	ENDS
;	COMDAT ??_R1A@?0A@EA@CMSApplication@@8
rdata$r	SEGMENT
??_R1A@?0A@EA@CMSApplication@@8 DD FLAT:??_R0?AVCMSApplication@@@8 ; CMSApplication::`RTTI Base Class Descriptor at (0,-1,0,64)'
	DD	01H
	DD	00H
	DD	0ffffffffH
	DD	00H
	DD	040H
	DD	FLAT:??_R3CMSApplication@@8
rdata$r	ENDS
;	COMDAT ??_R1A@?0A@EA@CInputDevice@@8
rdata$r	SEGMENT
??_R1A@?0A@EA@CInputDevice@@8 DD FLAT:??_R0?AVCInputDevice@@@8 ; CInputDevice::`RTTI Base Class Descriptor at (0,-1,0,64)'
	DD	00H
	DD	00H
	DD	0ffffffffH
	DD	00H
	DD	040H
	DD	FLAT:??_R3CInputDevice@@8
rdata$r	ENDS
;	COMDAT ??_R1A@?0A@EA@CInputKeyboard@@8
rdata$r	SEGMENT
??_R1A@?0A@EA@CInputKeyboard@@8 DD FLAT:??_R0?AVCInputKeyboard@@@8 ; CInputKeyboard::`RTTI Base Class Descriptor at (0,-1,0,64)'
	DD	01H
	DD	00H
	DD	0ffffffffH
	DD	00H
	DD	040H
	DD	FLAT:??_R3CInputKeyboard@@8
rdata$r	ENDS
;	COMDAT ??_R1A@?0A@EA@CPythonApplication@@8
rdata$r	SEGMENT
??_R1A@?0A@EA@CPythonApplication@@8 DD FLAT:??_R0?AVCPythonApplication@@@8 ; CPythonApplication::`RTTI Base Class Descriptor at (0,-1,0,64)'
	DD	06H
	DD	00H
	DD	0ffffffffH
	DD	00H
	DD	040H
	DD	FLAT:??_R3CPythonApplication@@8
rdata$r	ENDS
;	COMDAT ??_R1BM@?0A@EA@CInputKeyboard@@8
rdata$r	SEGMENT
??_R1BM@?0A@EA@CInputKeyboard@@8 DD FLAT:??_R0?AVCInputKeyboard@@@8 ; CInputKeyboard::`RTTI Base Class Descriptor at (28,-1,0,64)'
	DD	01H
	DD	01cH
	DD	0ffffffffH
	DD	00H
	DD	040H
	DD	FLAT:??_R3CInputKeyboard@@8
rdata$r	ENDS
;	COMDAT ??_R1BM@?0A@EA@CInputDevice@@8
rdata$r	SEGMENT
??_R1BM@?0A@EA@CInputDevice@@8 DD FLAT:??_R0?AVCInputDevice@@@8 ; CInputDevice::`RTTI Base Class Descriptor at (28,-1,0,64)'
	DD	00H
	DD	01cH
	DD	0ffffffffH
	DD	00H
	DD	040H
	DD	FLAT:??_R3CInputDevice@@8
rdata$r	ENDS
;	COMDAT ??_R1CA@?0A@EA@IAbstractApplication@@8
rdata$r	SEGMENT
??_R1CA@?0A@EA@IAbstractApplication@@8 DD FLAT:??_R0?AVIAbstractApplication@@@8 ; IAbstractApplication::`RTTI Base Class Descriptor at (32,-1,0,64)'
	DD	01H
	DD	020H
	DD	0ffffffffH
	DD	00H
	DD	040H
	DD	FLAT:??_R3IAbstractApplication@@8
rdata$r	ENDS
;	COMDAT ??_R1CA@?0A@EA@?$TAbstractSingleton@VIAbstractApplication@@@@8
rdata$r	SEGMENT
??_R1CA@?0A@EA@?$TAbstractSingleton@VIAbstractApplication@@@@8 DD FLAT:??_R0?AV?$TAbstractSingleton@VIAbstractApplication@@@@@8 ; TAbstractSingleton<IAbstractApplication>::`RTTI Base Class Descriptor at (32,-1,0,64)'
	DD	00H
	DD	020H
	DD	0ffffffffH
	DD	00H
	DD	040H
	DD	FLAT:??_R3?$TAbstractSingleton@VIAbstractApplication@@@@8
rdata$r	ENDS
;	COMDAT ??_R2?$TAbstractSingleton@VIAbstractApplication@@@@8
rdata$r	SEGMENT
??_R2?$TAbstractSingleton@VIAbstractApplication@@@@8 DD FLAT:??_R1A@?0A@EA@?$TAbstractSingleton@VIAbstractApplication@@@@8 ; TAbstractSingleton<IAbstractApplication>::`RTTI Base Class Array'
rdata$r	ENDS
;	COMDAT ??_R2IAbstractApplication@@8
rdata$r	SEGMENT
??_R2IAbstractApplication@@8 DD FLAT:??_R1A@?0A@EA@IAbstractApplication@@8 ; IAbstractApplication::`RTTI Base Class Array'
	DD	FLAT:??_R1A@?0A@EA@?$TAbstractSingleton@VIAbstractApplication@@@@8
rdata$r	ENDS
;	COMDAT ??_R2CMSWindow@@8
rdata$r	SEGMENT
??_R2CMSWindow@@8 DD FLAT:??_R1A@?0A@EA@CMSWindow@@8	; CMSWindow::`RTTI Base Class Array'
rdata$r	ENDS
;	COMDAT ??_R2CMSApplication@@8
rdata$r	SEGMENT
??_R2CMSApplication@@8 DD FLAT:??_R1A@?0A@EA@CMSApplication@@8 ; CMSApplication::`RTTI Base Class Array'
	DD	FLAT:??_R1A@?0A@EA@CMSWindow@@8
rdata$r	ENDS
;	COMDAT ??_R2CInputDevice@@8
rdata$r	SEGMENT
??_R2CInputDevice@@8 DD FLAT:??_R1A@?0A@EA@CInputDevice@@8 ; CInputDevice::`RTTI Base Class Array'
rdata$r	ENDS
;	COMDAT ??_R2CInputKeyboard@@8
rdata$r	SEGMENT
??_R2CInputKeyboard@@8 DD FLAT:??_R1A@?0A@EA@CInputKeyboard@@8 ; CInputKeyboard::`RTTI Base Class Array'
	DD	FLAT:??_R1A@?0A@EA@CInputDevice@@8
rdata$r	ENDS
;	COMDAT ??_R2CPythonApplication@@8
rdata$r	SEGMENT
??_R2CPythonApplication@@8 DD FLAT:??_R1A@?0A@EA@CPythonApplication@@8 ; CPythonApplication::`RTTI Base Class Array'
	DD	FLAT:??_R1A@?0A@EA@CMSApplication@@8
	DD	FLAT:??_R1A@?0A@EA@CMSWindow@@8
	DD	FLAT:??_R1BM@?0A@EA@CInputKeyboard@@8
	DD	FLAT:??_R1BM@?0A@EA@CInputDevice@@8
	DD	FLAT:??_R1CA@?0A@EA@IAbstractApplication@@8
	DD	FLAT:??_R1CA@?0A@EA@?$TAbstractSingleton@VIAbstractApplication@@@@8
rdata$r	ENDS
;	COMDAT ??_C@_0CF@CBFEMJII@d?3?1ymir?5work?1special?1spheremap0@
CONST	SEGMENT
??_C@_0CF@CBFEMJII@d?3?1ymir?5work?1special?1spheremap0@ DB 'd:/ymir work'
	DB	'/special/spheremap01.jpg', 00H		; `string'
CONST	ENDS
;	COMDAT ??_C@_0CD@KIIBIHOG@d?3?1ymir?5work?1special?1spheremap?4@
CONST	SEGMENT
??_C@_0CD@KIIBIHOG@d?3?1ymir?5work?1special?1spheremap?4@ DB 'd:/ymir wor'
	DB	'k/special/spheremap.jpg', 00H		; `string'
CONST	ENDS
;	COMDAT ??_C@_0BB@EJLMKODK@?$CCCREATE_NETWORK?$CC@
CONST	SEGMENT
??_C@_0BB@EJLMKODK@?$CCCREATE_NETWORK?$CC@ DB '"CREATE_NETWORK"', 00H ; `string'
CONST	ENDS
;	COMDAT ??_C@_0BJ@CJEBNOLC@NetDevice?3?3Create?5failed@
CONST	SEGMENT
??_C@_0BJ@CJEBNOLC@NetDevice?3?3Create?5failed@ DB 'NetDevice::Create fai'
	DB	'led', 00H					; `string'
CONST	ENDS
;	COMDAT ??_C@_0BA@GLLECKCO@?$CCCREATE_CURSOR?$CC@
CONST	SEGMENT
??_C@_0BA@GLLECKCO@?$CCCREATE_CURSOR?$CC@ DB '"CREATE_CURSOR"', 00H ; `string'
CONST	ENDS
;	COMDAT ??_C@_0CA@FFOMJBHN@CMSWindow?3?3Cursors?5Create?5Error@
CONST	SEGMENT
??_C@_0CA@FFOMJBHN@CMSWindow?3?3Cursors?5Create?5Error@ DB 'CMSWindow::Cu'
	DB	'rsors Create Error', 00H			; `string'
CONST	ENDS
;	COMDAT ??_C@_0O@NOBMPFEG@CREATE_WINDOW@
CONST	SEGMENT
??_C@_0O@NOBMPFEG@CREATE_WINDOW@ DB 'CREATE_WINDOW', 00H ; `string'
CONST	ENDS
;	COMDAT ??_C@_0BJ@DBNNLGNG@CMSWindow?3?3Create?5failed@
CONST	SEGMENT
??_C@_0BJ@DBNNLGNG@CMSWindow?3?3Create?5failed@ DB 'CMSWindow::Create fai'
	DB	'led', 00H					; `string'
CONST	ENDS
;	COMDAT ??_C@_0CL@IBCOJJMI@LoadLocaleData?5?9?5LoadNPCWearIte@
CONST	SEGMENT
??_C@_0CL@IBCOJJMI@LoadLocaleData?5?9?5LoadNPCWearIte@ DB 'LoadLocaleData'
	DB	' - LoadNPCWearItem(%s) Error', 00H		; `string'
CONST	ENDS
;	COMDAT ??_C@_0DB@GEMLPGJM@LoadLocaleData?5?9?5RegisterPetSki@
CONST	SEGMENT
??_C@_0DB@GEMLPGJM@LoadLocaleData?5?9?5RegisterPetSki@ DB 'LoadLocaleData'
	DB	' - RegisterPetSkillTable(%s) Error', 00H	; `string'
CONST	ENDS
;	COMDAT ??_C@_0DF@HFNMNKEC@LoadLocaleData?5?9?5RegisterGuildB@
CONST	SEGMENT
??_C@_0DF@HFNMNKEC@LoadLocaleData?5?9?5RegisterGuildB@ DB 'LoadLocaleData'
	DB	' - RegisterGuildBuildingList(%s) Error', 00H ; `string'
CONST	ENDS
;	COMDAT ??_C@_0CO@ILPAGHEO@LoadLocaleData?5?9?5LoadLocaleQuiz@
CONST	SEGMENT
??_C@_0CO@ILPAGHEO@LoadLocaleData?5?9?5LoadLocaleQuiz@ DB 'LoadLocaleData'
	DB	' - LoadLocaleQuizVnum(%s) Error', 00H	; `string'
CONST	ENDS
;	COMDAT ??_C@_0CO@PHJMHAHD@LoadLocaleData?5?9?5LoadLocaleChat@
CONST	SEGMENT
??_C@_0CO@PHJMHAHD@LoadLocaleData?5?9?5LoadLocaleChat@ DB 'LoadLocaleData'
	DB	' - LoadLocaleChatVnum(%s) Error', 00H	; `string'
CONST	ENDS
;	COMDAT ??_C@_0DA@DIGJHCGF@LoadLocaleData?5?9?5LoadLocaleStri@
CONST	SEGMENT
??_C@_0DA@DIGJHCGF@LoadLocaleData?5?9?5LoadLocaleStri@ DB 'LoadLocaleData'
	DB	' - LoadLocaleStringVnum(%s) Error', 00H	; `string'
CONST	ENDS
;	COMDAT ??_C@_0CP@CBNIPEEN@LoadLocaleData?5?9?5LoadEventRewar@
CONST	SEGMENT
??_C@_0CP@CBNIPEEN@LoadLocaleData?5?9?5LoadEventRewar@ DB 'LoadLocaleData'
	DB	' - LoadEventRewardList(%s) Error', 00H	; `string'
CONST	ENDS
;	COMDAT ??_C@_0CJ@MDAGKIOK@LoadLocaleData?5?9?5LoadAuraScale?$CI@
CONST	SEGMENT
??_C@_0CJ@MDAGKIOK@LoadLocaleData?5?9?5LoadAuraScale?$CI@ DB 'LoadLocaleD'
	DB	'ata - LoadAuraScale(%s) Error', 00H		; `string'
CONST	ENDS
;	COMDAT ??_C@_0CI@NHMEBJOH@LoadLocaleData?3?5error?5while?5loa@
CONST	SEGMENT
??_C@_0CI@NHMEBJOH@LoadLocaleData?3?5error?5while?5loa@ DB 'LoadLocaleDat'
	DB	'a: error while loading %s.', 00H		; `string'
CONST	ENDS
;	COMDAT ??_C@_0CG@PLPHALMN@LoadMobScale?5?9?5LoadMobScale?$CI?$CFs?$CJ@
CONST	SEGMENT
??_C@_0CG@PLPHALMN@LoadMobScale?5?9?5LoadMobScale?$CI?$CFs?$CJ@ DB 'LoadM'
	DB	'obScale - LoadMobScale(%s) Error', 00H	; `string'
CONST	ENDS
;	COMDAT ??_C@_0DO@PNDPPMDH@CPythonApplication?5?9?5CPythonNet@
CONST	SEGMENT
??_C@_0DO@PNDPPMDH@CPythonApplication?5?9?5CPythonNet@ DB 'CPythonApplica'
	DB	'tion - CPythonNetworkStream::LoadInsultList(%s)', 00H ; `string'
CONST	ENDS
;	COMDAT ??_C@_0CO@HCDPLHIO@LoadLocaleData?5?9?5RegisterSkillT@
CONST	SEGMENT
??_C@_0CO@HCDPLHIO@LoadLocaleData?5?9?5RegisterSkillT@ DB 'LoadLocaleData'
	DB	' - RegisterSkillTable(%s) Error', 00H	; `string'
CONST	ENDS
;	COMDAT ??_C@_0CN@NIKOAAJF@LoadLocaleData?5?9?5RegisterSkillD@
CONST	SEGMENT
??_C@_0CN@NIKOAAJF@LoadLocaleData?5?9?5RegisterSkillD@ DB 'LoadLocaleData'
	DB	' - RegisterSkillDesc(%s) Error', 00H	; `string'
CONST	ENDS
;	COMDAT ??_C@_0CI@PNCAMHEJ@LoadLocaleData?5?9?5LoadMobProto?$CI?$CF@
CONST	SEGMENT
??_C@_0CI@PNCAMHEJ@LoadLocaleData?5?9?5LoadMobProto?$CI?$CF@ DB 'LoadLoca'
	DB	'leData - LoadMobProto(%s) Error', 00H	; `string'
CONST	ENDS
;	COMDAT ??_C@_0CI@FLOPHKEN@LoadLocaleData?5?9?5LoadItemDesc?$CI?$CF@
CONST	SEGMENT
??_C@_0CI@FLOPHKEN@LoadLocaleData?5?9?5LoadItemDesc?$CI?$CF@ DB 'LoadLoca'
	DB	'leData - LoadItemDesc(%s) Error', 00H	; `string'
CONST	ENDS
;	COMDAT ??_C@_0CJ@MIFDPICO@LoadLocaleData?5?9?5LoadItemProto?$CI@
CONST	SEGMENT
??_C@_0CJ@MIFDPICO@LoadLocaleData?5?9?5LoadItemProto?$CI@ DB 'LoadLocaleD'
	DB	'ata - LoadItemProto(%s) Error', 00H		; `string'
CONST	ENDS
;	COMDAT ??_C@_0CI@MGBDCDJE@LoadLocaleData?5?9?5LoadItemList?$CI?$CF@
CONST	SEGMENT
??_C@_0CI@MGBDCDJE@LoadLocaleData?5?9?5LoadItemList?$CI?$CF@ DB 'LoadLoca'
	DB	'leData - LoadItemList(%s) Error', 00H	; `string'
CONST	ENDS
;	COMDAT ??_C@_0O@JEIJHCCG@?$CFs?1insult?4txt@
CONST	SEGMENT
??_C@_0O@JEIJHCCG@?$CFs?1insult?4txt@ DB '%s/insult.txt', 00H ; `string'
CONST	ENDS
;	COMDAT ??_C@_0BB@JDMIHPNN@?$CFs?1SkillDesc?4txt@
CONST	SEGMENT
??_C@_0BB@JDMIHPNN@?$CFs?1SkillDesc?4txt@ DB '%s/SkillDesc.txt', 00H ; `string'
CONST	ENDS
;	COMDAT ??_C@_0N@KCBCHIHM@?$CFs?1mob_proto@
CONST	SEGMENT
??_C@_0N@KCBCHIHM@?$CFs?1mob_proto@ DB '%s/mob_proto', 00H ; `string'
CONST	ENDS
;	COMDAT ??_C@_0BA@BIDKFLDM@?$CFs?1itemdesc?4txt@
CONST	SEGMENT
??_C@_0BA@BIDKFLDM@?$CFs?1itemdesc?4txt@ DB '%s/itemdesc.txt', 00H ; `string'
CONST	ENDS
;	COMDAT ??_C@_0O@MEMEPBB@?$CFs?1item_proto@
CONST	SEGMENT
??_C@_0O@MEMEPBB@?$CFs?1item_proto@ DB '%s/item_proto', 00H ; `string'
CONST	ENDS
;	COMDAT ??_C@_0BA@EPHKNMDA@?$CFs?1npc_wear?4txt@
CONST	SEGMENT
??_C@_0BA@EPHKNMDA@?$CFs?1npc_wear?4txt@ DB '%s/npc_wear.txt', 00H ; `string'
CONST	ENDS
;	COMDAT ??_C@_0BB@EHJGDDML@?$CFs?1pet_skill?4txt@
CONST	SEGMENT
??_C@_0BB@EHJGDDML@?$CFs?1pet_skill?4txt@ DB '%s/pet_skill.txt', 00H ; `string'
CONST	ENDS
;	COMDAT ??_C@_0BJ@CILNFEAO@?$CFs?1guildbuildinglist?4txt@
CONST	SEGMENT
??_C@_0BJ@CILNFEAO@?$CFs?1guildbuildinglist?4txt@ DB '%s/guildbuildinglis'
	DB	't.txt', 00H					; `string'
CONST	ENDS
;	COMDAT ??_C@_0BD@CFBMHOFC@?$CFs?1locale_quiz?4txt@
CONST	SEGMENT
??_C@_0BD@CFBMHOFC@?$CFs?1locale_quiz?4txt@ DB '%s/locale_quiz.txt', 00H ; `string'
CONST	ENDS
;	COMDAT ??_C@_0BE@CKCMBMKI@?$CFs?1monster_chat?4txt@
CONST	SEGMENT
??_C@_0BE@CKCMBMKI@?$CFs?1monster_chat?4txt@ DB '%s/monster_chat.txt', 00H ; `string'
CONST	ENDS
;	COMDAT ??_C@_0BF@DDJEMEFH@?$CFs?1locale_string?4txt@
CONST	SEGMENT
??_C@_0BF@DDJEMEFH@?$CFs?1locale_string?4txt@ DB '%s/locale_string.txt', 00H ; `string'
CONST	ENDS
;	COMDAT ??_C@_0BJ@LHDGEGED@?$CFs?1event_reward_list?4txt@
CONST	SEGMENT
??_C@_0BJ@LHDGEGED@?$CFs?1event_reward_list?4txt@ DB '%s/event_reward_lis'
	DB	't.txt', 00H					; `string'
CONST	ENDS
;	COMDAT ??_C@_0BC@GDFAFLKP@?$CFs?1aura_scale?4txt@
CONST	SEGMENT
??_C@_0BC@GDFAFLKP@?$CFs?1aura_scale?4txt@ DB '%s/aura_scale.txt', 00H ; `string'
CONST	ENDS
;	COMDAT ??_C@_0BC@PNKIJLFN@?$CFs?1item_scale?4txt@
CONST	SEGMENT
??_C@_0BC@PNKIJLFN@?$CFs?1item_scale?4txt@ DB '%s/item_scale.txt', 00H ; `string'
CONST	ENDS
;	COMDAT ??_C@_0BB@JGLJKD@?$CFs?1mob_scale?4txt@
CONST	SEGMENT
??_C@_0BB@JGLJKD@?$CFs?1mob_scale?4txt@ DB '%s/mob_scale.txt', 00H ; `string'
CONST	ENDS
;	COMDAT ??_C@_0BC@NLEJCAEF@?$CFs?1SkillTable?4txt@
CONST	SEGMENT
??_C@_0BC@NLEJCAEF@?$CFs?1SkillTable?4txt@ DB '%s/SkillTable.txt', 00H ; `string'
CONST	ENDS
;	COMDAT ??_C@_0BB@EOELDOLA@?$CFs?1item_list?4txt@
CONST	SEGMENT
??_C@_0BB@EOELDOLA@?$CFs?1item_list?4txt@ DB '%s/item_list.txt', 00H ; `string'
CONST	ENDS
;	COMDAT ??_C@_0O@MBOHINFJ@locale?1common@
CONST	SEGMENT
??_C@_0O@MBOHINFJ@locale?1common@ DB 'locale/common', 00H ; `string'
CONST	ENDS
;	COMDAT ??_C@_0BN@JAHEKIGK@CreateDevice?3?5Unknown?5Error?$CB@
CONST	SEGMENT
??_C@_0BN@JAHEKIGK@CreateDevice?3?5Unknown?5Error?$CB@ DB 'CreateDevice: '
	DB	'Unknown Error!', 00H			; `string'
CONST	ENDS
;	COMDAT ??_C@_0O@BAEJJDKB@UNKNOWN_ERROR@
CONST	SEGMENT
??_C@_0O@BAEJJDKB@UNKNOWN_ERROR@ DB 'UNKNOWN_ERROR', 00H ; `string'
CONST	ENDS
;	COMDAT ??_C@_0CB@JLAAEKGJ@CreateDevice?3?5GetDevCaps2?5faile@
CONST	SEGMENT
??_C@_0CB@JLAAEKGJ@CreateDevice?3?5GetDevCaps2?5faile@ DB 'CreateDevice: '
	DB	'GetDevCaps2 failed', 00H			; `string'
CONST	ENDS
;	COMDAT ??_C@_0BD@IHNLMMLJ@GetDevCaps2?5failed@
CONST	SEGMENT
??_C@_0BD@IHNLMMLJ@GetDevCaps2?5failed@ DB 'GetDevCaps2 failed', 00H ; `string'
CONST	ENDS
;	COMDAT ??_C@_0CA@DLHDILBB@CreateDevice?3?5GetDevCaps?5failed@
CONST	SEGMENT
??_C@_0CA@DLHDILBB@CreateDevice?3?5GetDevCaps?5failed@ DB 'CreateDevice: '
	DB	'GetDevCaps failed', 00H			; `string'
CONST	ENDS
;	COMDAT ??_C@_0BC@IMJEDJEA@GetDevCaps?5failed@
CONST	SEGMENT
??_C@_0BC@IMJEDJEA@GetDevCaps?5failed@ DB 'GetDevCaps failed', 00H ; `string'
CONST	ENDS
;	COMDAT ??_C@_0CH@DEBFNBPL@CreateDevice?3?5Change?5the?5screen@
CONST	SEGMENT
??_C@_0CH@DEBFNBPL@CreateDevice?3?5Change?5the?5screen@ DB 'CreateDevice:'
	DB	' Change the screen format', 00H		; `string'
CONST	ENDS
;	COMDAT ??_C@_0O@DAEHMKOB@CREATE_FORMAT@
CONST	SEGMENT
??_C@_0O@DAEHMKOB@CREATE_FORMAT@ DB 'CREATE_FORMAT', 00H ; `string'
CONST	ENDS
;	COMDAT ??_C@_0CK@KMPBIDGP@CreateDevice?3?5GraphicDevice?5cre@
CONST	SEGMENT
??_C@_0CK@KMPBIDGP@CreateDevice?3?5GraphicDevice?5cre@ DB 'CreateDevice: '
	DB	'GraphicDevice create failed', 00H		; `string'
CONST	ENDS
;	COMDAT ??_C@_0O@CMPMDOEH@CREATE_DEVICE@
CONST	SEGMENT
??_C@_0O@CMPMDOEH@CREATE_DEVICE@ DB 'CREATE_DEVICE', 00H ; `string'
CONST	ENDS
;	COMDAT ??_C@_0DK@GACPAJMM@CreateDevice?3?5DirectX?58?41?5or?5gr@
CONST	SEGMENT
??_C@_0DK@GACPAJMM@CreateDevice?3?5DirectX?58?41?5or?5gr@ DB 'CreateDevic'
	DB	'e: DirectX 8.1 or greater required to run game', 00H ; `string'
CONST	ENDS
;	COMDAT ??_C@_0BC@NKAKBNDM@CREATE_NO_DIRECTX@
CONST	SEGMENT
??_C@_0BC@NKAKBNDM@CREATE_NO_DIRECTX@ DB 'CREATE_NO_DIRECTX', 00H ; `string'
CONST	ENDS
;	COMDAT ??_C@_0CD@GGLEAAKE@CreateDevice?3?5Enum?5?$CG?5Detect?5fai@
CONST	SEGMENT
??_C@_0CD@GGLEAAKE@CreateDevice?3?5Enum?5?$CG?5Detect?5fai@ DB 'CreateDev'
	DB	'ice: Enum & Detect failed', 00H		; `string'
CONST	ENDS
;	COMDAT ??_C@_0BN@OAKBEJJN@CREATE_NO_APPROPRIATE_DEVICE@
CONST	SEGMENT
??_C@_0BN@OAKBEJJN@CREATE_NO_APPROPRIATE_DEVICE@ DB 'CREATE_NO_APPROPRIAT'
	DB	'E_DEVICE', 00H				; `string'
CONST	ENDS
;	COMDAT ??_C@_0CF@LOPCCCAL@DEVICESTATE_NEEDS_RESET?5?9?5attem@
CONST	SEGMENT
??_C@_0CF@LOPCCCAL@DEVICESTATE_NEEDS_RESET?5?9?5attem@ DB 'DEVICESTATE_NE'
	DB	'EDS_RESET - attempting', 00H		; `string'
CONST	ENDS
;	COMDAT ??_C@_0BL@GHJOJKGG@FrameSkip?5Adjusting?4?4?4?5?$CFd?6@
CONST	SEGMENT
??_C@_0BL@GHJOJKGG@FrameSkip?5Adjusting?4?4?4?5?$CFd?6@ DB 'FrameSkip Adj'
	DB	'usting... %d', 0aH, 00H			; `string'
CONST	ENDS
;	COMDAT ??_C@_0M@EHJKIBDK@Abort?$CB?$CB?$CB?$CB?6?6@
CONST	SEGMENT
??_C@_0M@EHJKIBDK@Abort?$CB?$CB?$CB?$CB?6?6@ DB 'Abort!!!!', 0aH, 0aH, 00H ; `string'
CONST	ENDS
;	COMDAT ??_C@_0GN@LLBDNFAM@?$DN?$DN?$DN?$DN?$DN?$DN?$DN?$DN?$DN?$DN?$DN?$DN?$DN?$DN?$DN?$DN?$DN?$DN?$DN?$DN?$DN?$DN?$DN?$DN?$DN?$DN?$DN?$DN?$DN?$DN?$DN@
CONST	SEGMENT
??_C@_0GN@LLBDNFAM@?$DN?$DN?$DN?$DN?$DN?$DN?$DN?$DN?$DN?$DN?$DN?$DN?$DN?$DN?$DN?$DN?$DN?$DN?$DN?$DN?$DN?$DN?$DN?$DN?$DN?$DN?$DN?$DN?$DN?$DN?$DN@ DB '='
	DB	'============================================================='
	DB	'==============================================', 00H ; `string'
CONST	ENDS
;	COMDAT ??_C@_1DA@IANAENLC@?$AAm?$AAs?$AA_?$AAp?$AAI?$AAn?$AAs?$AAt?$AAa?$AAn?$AAc?$AAe?$AA?5?$AA?$CB?$AA?$DN@
CONST	SEGMENT
??_C@_1DA@IANAENLC@?$AAm?$AAs?$AA_?$AAp?$AAI?$AAn?$AAs?$AAt?$AAa?$AAn?$AAc?$AAe?$AA?5?$AA?$CB?$AA?$DN@ DB 'm'
	DB	00H, 's', 00H, '_', 00H, 'p', 00H, 'I', 00H, 'n', 00H, 's', 00H
	DB	't', 00H, 'a', 00H, 'n', 00H, 'c', 00H, 'e', 00H, ' ', 00H, '!'
	DB	00H, '=', 00H, ' ', 00H, 'n', 00H, 'u', 00H, 'l', 00H, 'l', 00H
	DB	'p', 00H, 't', 00H, 'r', 00H, 00H, 00H	; `string'
CONST	ENDS
;	COMDAT ??_C@_1KI@NDOHEKDB@?$AAC?$AA?3?$AA?2?$AAA?$AAn?$AAk?$AAa?$AA2?$AAP?$AAr?$AAo?$AAj?$AAe?$AAc?$AAt@
CONST	SEGMENT
??_C@_1KI@NDOHEKDB@?$AAC?$AA?3?$AA?2?$AAA?$AAn?$AAk?$AAa?$AA2?$AAP?$AAr?$AAo?$AAj?$AAe?$AAc?$AAt@ DB 'C'
	DB	00H, ':', 00H, '\', 00H, 'A', 00H, 'n', 00H, 'k', 00H, 'a', 00H
	DB	'2', 00H, 'P', 00H, 'r', 00H, 'o', 00H, 'j', 00H, 'e', 00H, 'c'
	DB	00H, 't', 00H, '\', 00H, 'A', 00H, 'n', 00H, 'k', 00H, 'a', 00H
	DB	'2', 00H, 'P', 00H, 'r', 00H, 'o', 00H, 'j', 00H, 'e', 00H, 'c'
	DB	00H, 't', 00H, '\', 00H, 'S', 00H, 'o', 00H, 'u', 00H, 'r', 00H
	DB	'c', 00H, 'e', 00H, '\', 00H, 'B', 00H, 'i', 00H, 'n', 00H, 'a'
	DB	00H, 'r', 00H, 'y', 00H, '\', 00H, 's', 00H, 'o', 00H, 'u', 00H
	DB	'r', 00H, 'c', 00H, 'e', 00H, '\', 00H, 'U', 00H, 's', 00H, 'e'
	DB	00H, 'r', 00H, 'I', 00H, 'n', 00H, 't', 00H, 'e', 00H, 'r', 00H
	DB	'f', 00H, 'a', 00H, 'c', 00H, 'e', 00H, '\', 00H, 'P', 00H, 'y'
	DB	00H, 't', 00H, 'h', 00H, 'o', 00H, 'n', 00H, 'A', 00H, 'p', 00H
	DB	'p', 00H, 'l', 00H, 'i', 00H, 'c', 00H, 'a', 00H, 't', 00H, 'i'
	DB	00H, 'o', 00H, 'n', 00H, '.', 00H, 'h', 00H, 00H, 00H ; `string'
?MIN_FOG@@3MA DD 045160000r			; 2400	; MIN_FOG
?g_specularSpd@@3NA DQ 03f7cac0840000000r	; 0.007	; g_specularSpd
?c_fDefaultCameraZoomSpeed@@3MA DD 03d4ccccdr	; 0.05	; c_fDefaultCameraZoomSpeed
?c_fDefaultCameraPitchSpeed@@3MA DD 03fc00000r	; 1.5	; c_fDefaultCameraPitchSpeed
?c_fDefaultCameraRotateSpeed@@3MA DD 03fc00000r	; 1.5	; c_fDefaultCameraRotateSpeed
PUBLIC	?SetUpdateTime@CTimer@@QAEXIEE@Z		; CTimer::SetUpdateTime
PUBLIC	??_ECPythonApplication@@WCA@AEPAXI@Z		; [thunk]:CPythonApplication::`vector deleting destructor'
PUBLIC	??_ECPythonApplication@@WBM@AEPAXI@Z		; [thunk]:CPythonApplication::`vector deleting destructor'
PUBLIC	??$construct_at@PAU?$_Tree_node@U?$pair@$$CBHPAX@std@@PAX@std@@ABQAU12@@std@@YAPAPAU?$_Tree_node@U?$pair@$$CBHPAX@std@@PAX@0@QAPAU10@ABQAU10@@Z ; std::construct_at<std::_Tree_node<std::pair<int const ,void *>,void *> *,std::_Tree_node<std::pair<int const ,void *>,void *> * const &>
PUBLIC	??$forward@ABQAU?$_Tree_node@U?$pair@$$CBHPAX@std@@PAX@std@@@std@@YAABQAU?$_Tree_node@U?$pair@$$CBHPAX@std@@PAX@0@ABQAU10@@Z ; std::forward<std::_Tree_node<std::pair<int const ,void *>,void *> * const &>
PUBLIC	??$addressof@PAU?$_Tree_node@U?$pair@$$CBHPAX@std@@PAX@std@@@std@@YAPAPAU?$_Tree_node@U?$pair@$$CBHPAX@std@@PAX@0@AAPAU10@@Z ; std::addressof<std::_Tree_node<std::pair<int const ,void *>,void *> *>
PUBLIC	??$destroy_at@U?$pair@$$CBHPAX@std@@@std@@YAXQAU?$pair@$$CBHPAX@0@@Z ; std::destroy_at<std::pair<int const ,void *> >
PUBLIC	??0?$allocator@U?$_Tree_node@U?$pair@$$CBHPAX@std@@PAX@std@@@std@@QAE@XZ ; std::allocator<std::_Tree_node<std::pair<int const ,void *>,void *> >::allocator<std::_Tree_node<std::pair<int const ,void *>,void *> >
PUBLIC	?deallocate@?$allocator@U?$_Tree_node@U?$pair@$$CBHPAX@std@@PAX@std@@@std@@QAEXQAU?$_Tree_node@U?$pair@$$CBHPAX@std@@PAX@2@I@Z ; std::allocator<std::_Tree_node<std::pair<int const ,void *>,void *> >::deallocate
PUBLIC	?allocate@?$allocator@U?$_Tree_node@U?$pair@$$CBHPAX@std@@PAX@std@@@std@@QAEPAU?$_Tree_node@U?$pair@$$CBHPAX@std@@PAX@2@I@Z ; std::allocator<std::_Tree_node<std::pair<int const ,void *>,void *> >::allocate
PUBLIC	??0?$_Tree_val@U?$_Tree_simple_types@U?$pair@$$CBHPAX@std@@@std@@@std@@QAE@XZ ; std::_Tree_val<std::_Tree_simple_types<std::pair<int const ,void *> > >::_Tree_val<std::_Tree_simple_types<std::pair<int const ,void *> > >
PUBLIC	??$_Construct_in_place@PAU?$_Tree_node@U?$pair@$$CBHPAX@std@@PAX@std@@ABQAU12@@std@@YAXAAPAU?$_Tree_node@U?$pair@$$CBHPAX@std@@PAX@0@ABQAU10@@Z ; std::_Construct_in_place<std::_Tree_node<std::pair<int const ,void *>,void *> *,std::_Tree_node<std::pair<int const ,void *>,void *> * const &>
PUBLIC	??$destroy@U?$pair@$$CBHPAX@std@@@?$_Default_allocator_traits@V?$allocator@U?$_Tree_node@U?$pair@$$CBHPAX@std@@PAX@std@@@std@@@std@@SAXAAV?$allocator@U?$_Tree_node@U?$pair@$$CBHPAX@std@@PAX@std@@@1@QAU?$pair@$$CBHPAX@1@@Z ; std::_Default_allocator_traits<std::allocator<std::_Tree_node<std::pair<int const ,void *>,void *> > >::destroy<std::pair<int const ,void *> >
PUBLIC	??$addressof@U?$pair@$$CBHPAX@std@@@std@@YAPAU?$pair@$$CBHPAX@0@AAU10@@Z ; std::addressof<std::pair<int const ,void *> >
PUBLIC	?deallocate@?$_Default_allocator_traits@V?$allocator@U?$_Tree_node@U?$pair@$$CBHPAX@std@@PAX@std@@@std@@@std@@SAXAAV?$allocator@U?$_Tree_node@U?$pair@$$CBHPAX@std@@PAX@std@@@2@QAU?$_Tree_node@U?$pair@$$CBHPAX@std@@PAX@2@I@Z ; std::_Default_allocator_traits<std::allocator<std::_Tree_node<std::pair<int const ,void *>,void *> > >::deallocate
PUBLIC	??$_Buyheadnode@V?$allocator@U?$_Tree_node@U?$pair@$$CBHPAX@std@@PAX@std@@@std@@@?$_Tree_node@U?$pair@$$CBHPAX@std@@PAX@std@@SAPAU01@AAV?$allocator@U?$_Tree_node@U?$pair@$$CBHPAX@std@@PAX@std@@@1@@Z ; std::_Tree_node<std::pair<int const ,void *>,void *>::_Buyheadnode<std::allocator<std::_Tree_node<std::pair<int const ,void *>,void *> > >
PUBLIC	??$_Destroy_in_place@PAU?$_Tree_node@U?$pair@$$CBHPAX@std@@PAX@std@@@std@@YAXAAPAU?$_Tree_node@U?$pair@$$CBHPAX@std@@PAX@0@@Z ; std::_Destroy_in_place<std::_Tree_node<std::pair<int const ,void *>,void *> *>
PUBLIC	??$_Freenode@V?$allocator@U?$_Tree_node@U?$pair@$$CBHPAX@std@@PAX@std@@@std@@@?$_Tree_node@U?$pair@$$CBHPAX@std@@PAX@std@@SAXAAV?$allocator@U?$_Tree_node@U?$pair@$$CBHPAX@std@@PAX@std@@@1@PAU01@@Z ; std::_Tree_node<std::pair<int const ,void *>,void *>::_Freenode<std::allocator<std::_Tree_node<std::pair<int const ,void *>,void *> > >
PUBLIC	??$exchange@PAU?$_Tree_node@U?$pair@$$CBHPAX@std@@PAX@std@@AAPAU12@@std@@YAPAU?$_Tree_node@U?$pair@$$CBHPAX@std@@PAX@0@AAPAU10@0@Z ; std::exchange<std::_Tree_node<std::pair<int const ,void *>,void *> *,std::_Tree_node<std::pair<int const ,void *>,void *> * &>
PUBLIC	??$?0$$V@?$_Compressed_pair@V?$allocator@U?$_Tree_node@U?$pair@$$CBHPAX@std@@PAX@std@@@std@@V?$_Tree_val@U?$_Tree_simple_types@U?$pair@$$CBHPAX@std@@@std@@@2@$00@std@@QAE@U_Zero_then_variadic_args_t@1@@Z ; std::_Compressed_pair<std::allocator<std::_Tree_node<std::pair<int const ,void *>,void *> >,std::_Tree_val<std::_Tree_simple_types<std::pair<int const ,void *> > >,1>::_Compressed_pair<std::allocator<std::_Tree_node<std::pair<int const ,void *>,void *> >,std::_Tree_val<std::_Tree_simple_types<std::pair<int const ,void *> > >,1><>
PUBLIC	?_Alloc_sentinel_and_proxy@?$_Tree@V?$_Tmap_traits@HPAXU?$less@H@std@@V?$allocator@U?$pair@$$CBHPAX@std@@@2@$0A@@std@@@std@@IAEXXZ ; std::_Tree<std::_Tmap_traits<int,void *,std::less<int>,std::allocator<std::pair<int const ,void *> >,0> >::_Alloc_sentinel_and_proxy
PUBLIC	?_Get_first@?$_Compressed_pair@V?$allocator@U?$_Tree_node@U?$pair@$$CBHPAX@std@@PAX@std@@@std@@V?$_Tree_val@U?$_Tree_simple_types@U?$pair@$$CBHPAX@std@@@std@@@2@$00@std@@QAEAAV?$allocator@U?$_Tree_node@U?$pair@$$CBHPAX@std@@PAX@std@@@2@XZ ; std::_Compressed_pair<std::allocator<std::_Tree_node<std::pair<int const ,void *>,void *> >,std::_Tree_val<std::_Tree_simple_types<std::pair<int const ,void *> > >,1>::_Get_first
PUBLIC	??$?0ABU?$less@H@std@@U_Zero_then_variadic_args_t@1@@?$_Compressed_pair@U?$less@H@std@@V?$_Compressed_pair@V?$allocator@U?$_Tree_node@U?$pair@$$CBHPAX@std@@PAX@std@@@std@@V?$_Tree_val@U?$_Tree_simple_types@U?$pair@$$CBHPAX@std@@@std@@@2@$00@2@$00@std@@QAE@U_One_then_variadic_args_t@1@ABU?$less@H@1@$$QAU_Zero_then_variadic_args_t@1@@Z ; std::_Compressed_pair<std::less<int>,std::_Compressed_pair<std::allocator<std::_Tree_node<std::pair<int const ,void *>,void *> >,std::_Tree_val<std::_Tree_simple_types<std::pair<int const ,void *> > >,1>,1>::_Compressed_pair<std::less<int>,std::_Compressed_pair<std::allocator<std::_Tree_node<std::pair<int const ,void *>,void *> >,std::_Tree_val<std::_Tree_simple_types<std::pair<int const ,void *> > >,1>,1><std::less<int> const &,std::_Zero_then_variadic_args_t>
PUBLIC	??$addressof@V?$_Tree_val@U?$_Tree_simple_types@U?$pair@$$CBHPAX@std@@@std@@@std@@@std@@YAPAV?$_Tree_val@U?$_Tree_simple_types@U?$pair@$$CBHPAX@std@@@std@@@0@AAV10@@Z ; std::addressof<std::_Tree_val<std::_Tree_simple_types<std::pair<int const ,void *> > > >
PUBLIC	??$_Freenode0@V?$allocator@U?$_Tree_node@U?$pair@$$CBHPAX@std@@PAX@std@@@std@@@?$_Tree_node@U?$pair@$$CBHPAX@std@@PAX@std@@SAXAAV?$allocator@U?$_Tree_node@U?$pair@$$CBHPAX@std@@PAX@std@@@1@PAU01@@Z ; std::_Tree_node<std::pair<int const ,void *>,void *>::_Freenode0<std::allocator<std::_Tree_node<std::pair<int const ,void *>,void *> > >
PUBLIC	??$_Erase_tree@V?$allocator@U?$_Tree_node@U?$pair@$$CBHPAX@std@@PAX@std@@@std@@@?$_Tree_val@U?$_Tree_simple_types@U?$pair@$$CBHPAX@std@@@std@@@std@@QAEXAAV?$allocator@U?$_Tree_node@U?$pair@$$CBHPAX@std@@PAX@std@@@1@PAU?$_Tree_node@U?$pair@$$CBHPAX@std@@PAX@1@@Z ; std::_Tree_val<std::_Tree_simple_types<std::pair<int const ,void *> > >::_Erase_tree<std::allocator<std::_Tree_node<std::pair<int const ,void *>,void *> > >
PUBLIC	??$?0H@?$_Tuple_val@H@std@@QAE@$$QAH@Z		; std::_Tuple_val<int>::_Tuple_val<int><int>
PUBLIC	??$?0U_Exact_args_t@std@@H$$V$0A@@?$tuple@H@std@@QAE@U_Exact_args_t@1@$$QAH@Z ; std::tuple<int>::tuple<int><std::_Exact_args_t,int,0>
PUBLIC	??0?$_Tree@V?$_Tmap_traits@HPAXU?$less@H@std@@V?$allocator@U?$pair@$$CBHPAX@std@@@2@$0A@@std@@@std@@QAE@ABU?$less@H@1@@Z ; std::_Tree<std::_Tmap_traits<int,void *,std::less<int>,std::allocator<std::pair<int const ,void *> >,0> >::_Tree<std::_Tmap_traits<int,void *,std::less<int>,std::allocator<std::pair<int const ,void *> >,0> >
PUBLIC	?_Getal@?$_Tree@V?$_Tmap_traits@HPAXU?$less@H@std@@V?$allocator@U?$pair@$$CBHPAX@std@@@2@$0A@@std@@@std@@IAEAAV?$allocator@U?$_Tree_node@U?$pair@$$CBHPAX@std@@PAX@std@@@2@XZ ; std::_Tree<std::_Tmap_traits<int,void *,std::less<int>,std::allocator<std::pair<int const ,void *> >,0> >::_Getal
PUBLIC	?_Get_scary@?$_Tree@V?$_Tmap_traits@HPAXU?$less@H@std@@V?$allocator@U?$pair@$$CBHPAX@std@@@2@$0A@@std@@@std@@IAEPAV?$_Tree_val@U?$_Tree_simple_types@U?$pair@$$CBHPAX@std@@@std@@@2@XZ ; std::_Tree<std::_Tmap_traits<int,void *,std::less<int>,std::allocator<std::pair<int const ,void *> >,0> >::_Get_scary
PUBLIC	??$_Erase_head@V?$allocator@U?$_Tree_node@U?$pair@$$CBHPAX@std@@PAX@std@@@std@@@?$_Tree_val@U?$_Tree_simple_types@U?$pair@$$CBHPAX@std@@@std@@@std@@QAEXAAV?$allocator@U?$_Tree_node@U?$pair@$$CBHPAX@std@@PAX@std@@@1@@Z ; std::_Tree_val<std::_Tree_simple_types<std::pair<int const ,void *> > >::_Erase_head<std::allocator<std::_Tree_node<std::pair<int const ,void *>,void *> > >
PUBLIC	??$?0U_Exact_args_t@std@@HH$0A@@?$tuple@HH@std@@QAE@U_Exact_args_t@1@$$QAH1@Z ; std::tuple<int,int>::tuple<int,int><std::_Exact_args_t,int,int,0>
PUBLIC	??_G?$TAbstractSingleton@VIAbstractApplication@@@@UAEPAXI@Z ; TAbstractSingleton<IAbstractApplication>::`scalar deleting destructor'
PUBLIC	?Instance@?$CSingleton@VCTimer@@@@SAAAVCTimer@@XZ ; CSingleton<CTimer>::Instance
PUBLIC	?Instance@?$CSingleton@VCWindowManager@UI@@@@SAAAVCWindowManager@UI@@XZ ; CSingleton<UI::CWindowManager>::Instance
PUBLIC	?Instance@?$CSingleton@VCPythonIME@@@@SAAAVCPythonIME@@XZ ; CSingleton<CPythonIME>::Instance
PUBLIC	??0?$TAbstractSingleton@VIAbstractApplication@@@@QAE@XZ ; TAbstractSingleton<IAbstractApplication>::TAbstractSingleton<IAbstractApplication>
PUBLIC	??1?$TAbstractSingleton@VIAbstractApplication@@@@UAE@XZ ; TAbstractSingleton<IAbstractApplication>::~TAbstractSingleton<IAbstractApplication>
PUBLIC	?Instance@?$CSingleton@VCPythonPlayerSettingsModule@@@@SAAAVCPythonPlayerSettingsModule@@XZ ; CSingleton<CPythonPlayerSettingsModule>::Instance
PUBLIC	?Instance@?$CSingleton@VCRenderTargetManager@@@@SAAAVCRenderTargetManager@@XZ ; CSingleton<CRenderTargetManager>::Instance
PUBLIC	?Instance@?$CSingleton@VInGameEventManager@@@@SAAAVInGameEventManager@@XZ ; CSingleton<InGameEventManager>::Instance
PUBLIC	?Instance@?$CSingleton@VCPythonWiki@@@@SAAAVCPythonWiki@@XZ ; CSingleton<CPythonWiki>::Instance
PUBLIC	??0?$map@HPAXU?$less@H@std@@V?$allocator@U?$pair@$$CBHPAX@std@@@2@@std@@QAE@XZ ; std::map<int,void *,std::less<int>,std::allocator<std::pair<int const ,void *> > >::map<int,void *,std::less<int>,std::allocator<std::pair<int const ,void *> > >
PUBLIC	??1?$_Tree@V?$_Tmap_traits@HPAXU?$less@H@std@@V?$allocator@U?$pair@$$CBHPAX@std@@@2@$0A@@std@@@std@@QAE@XZ ; std::_Tree<std::_Tmap_traits<int,void *,std::less<int>,std::allocator<std::pair<int const ,void *> >,0> >::~_Tree<std::_Tmap_traits<int,void *,std::less<int>,std::allocator<std::pair<int const ,void *> >,0> >
PUBLIC	??$get@$00HH@std@@YA$$QAH$$QAV?$tuple@HH@0@@Z	; std::get<1,int,int>
PUBLIC	??$get@$0A@HH@std@@YA$$QAH$$QAV?$tuple@HH@0@@Z	; std::get<0,int,int>
PUBLIC	??$<move>@AAV?$tuple@HH@std@@@@YA$$QAV?$tuple@HH@std@@AAV01@@Z ; <move><std::tuple<int,int> &>
PUBLIC	??$?0HH$0A@@?$tuple@HH@std@@QAE@$$QAH0@Z	; std::tuple<int,int>::tuple<int,int><int,int,0>
PUBLIC	?Destroy@CPythonApplication@@QAEXXZ		; CPythonApplication::Destroy
PUBLIC	?MultiFarmBlockIcon@CPythonApplication@@QAEXE@Z	; CPythonApplication::MultiFarmBlockIcon
PUBLIC	?FlashApplication@CPythonApplication@@QAEXXZ	; CPythonApplication::FlashApplication
PUBLIC	?Clear@CPythonApplication@@QAEXXZ		; CPythonApplication::Clear
PUBLIC	?SetForceSightRange@CPythonApplication@@QAEXH@Z	; CPythonApplication::SetForceSightRange
PUBLIC	?SetCameraSpeed@CPythonApplication@@QAEXH@Z	; CPythonApplication::SetCameraSpeed
PUBLIC	?EnableSpecialCameraMode@CPythonApplication@@QAEXXZ ; CPythonApplication::EnableSpecialCameraMode
PUBLIC	?GetConnectData@CPythonApplication@@QAEXAAV?$basic_string@DU?$char_traits@D@std@@V?$allocator@D@2@@std@@AAH@Z ; CPythonApplication::GetConnectData
PUBLIC	?SetConnectData@CPythonApplication@@QAEXPBDH@Z	; CPythonApplication::SetConnectData
PUBLIC	?GetHeight@CPythonApplication@@QAEHXZ		; CPythonApplication::GetHeight
PUBLIC	?GetWidth@CPythonApplication@@QAEHXZ		; CPythonApplication::GetWidth
PUBLIC	?SetFPS@CPythonApplication@@QAEXH@Z		; CPythonApplication::SetFPS
PUBLIC	?GetGlobalElapsedTime@CPythonApplication@@UAEMXZ ; CPythonApplication::GetGlobalElapsedTime
PUBLIC	?GetGlobalTime@CPythonApplication@@UAEMXZ	; CPythonApplication::GetGlobalTime
PUBLIC	?GetServerTimeStamp@CPythonApplication@@QAEJXZ	; CPythonApplication::GetServerTimeStamp
PUBLIC	?GetServerTime@CPythonApplication@@QAEJXZ	; CPythonApplication::GetServerTime
PUBLIC	?SetServerTime@CPythonApplication@@UAEXJ@Z	; CPythonApplication::SetServerTime
PUBLIC	?GetCenterPosition@CPythonApplication@@QAEXPAUD3DXVECTOR3@@@Z ; CPythonApplication::GetCenterPosition
PUBLIC	?SetCenterPosition@CPythonApplication@@UAEXMMM@Z ; CPythonApplication::SetCenterPosition
PUBLIC	?SetGlobalCenterPosition@CPythonApplication@@QAEXJJ@Z ; CPythonApplication::SetGlobalCenterPosition
PUBLIC	?Create@CPythonApplication@@QAE_NPAU_object@@PBDHHH@Z ; CPythonApplication::Create
PUBLIC	?__GetWindowMode@@YAI_N@Z			; __GetWindowMode
PUBLIC	?LoadLocaleData@@YA_NPBD@Z			; LoadLocaleData
PUBLIC	?Loop@CPythonApplication@@QAEXXZ		; CPythonApplication::Loop
PUBLIC	?CreateDevice@CPythonApplication@@QAE_NHHHHH@Z	; CPythonApplication::CreateDevice
PUBLIC	?GetTimer@@YA?AV?$tuple@HH@std@@H@Z		; GetTimer
PUBLIC	?CheckDeviceState@CPythonApplication@@IAEHXZ	; CPythonApplication::CheckDeviceState
PUBLIC	?SetMouseHandler@CPythonApplication@@QAEXPAU_object@@@Z ; CPythonApplication::SetMouseHandler
PUBLIC	?Process@CPythonApplication@@QAE_NXZ		; CPythonApplication::Process
PUBLIC	?SkipRenderBuffering@CPythonApplication@@UAEXK@Z ; CPythonApplication::SkipRenderBuffering
PUBLIC	?UpdateGame@CPythonApplication@@QAEXXZ		; CPythonApplication::UpdateGame
PUBLIC	?RenderGame@CPythonApplication@@QAEXXZ		; CPythonApplication::RenderGame
PUBLIC	?Exit@CPythonApplication@@QAEXXZ		; CPythonApplication::Exit
PUBLIC	?Abort@CPythonApplication@@QAEXXZ		; CPythonApplication::Abort
PUBLIC	?GetInfo@CPythonApplication@@QAEXIPAV?$basic_string@DU?$char_traits@D@std@@V?$allocator@D@2@@std@@@Z ; CPythonApplication::GetInfo
PUBLIC	?SetFrameSkip@CPythonApplication@@QAEX_N@Z	; CPythonApplication::SetFrameSkip
PUBLIC	?SetMinFog@CPythonApplication@@QAEXM@Z		; CPythonApplication::SetMinFog
PUBLIC	?GetMousePosition@CPythonApplication@@UAEXPAUtagPOINT@@@Z ; CPythonApplication::GetMousePosition
PUBLIC	??1CPythonApplication@@UAE@XZ			; CPythonApplication::~CPythonApplication
PUBLIC	??1?$map@HPAXU?$less@H@std@@V?$allocator@U?$pair@$$CBHPAX@std@@@2@@std@@QAE@XZ ; std::map<int,void *,std::less<int>,std::allocator<std::pair<int const ,void *> > >::~map<int,void *,std::less<int>,std::allocator<std::pair<int const ,void *> > >
PUBLIC	??_GCPythonApplication@@UAEPAXI@Z		; CPythonApplication::`scalar deleting destructor'
PUBLIC	??0CPythonApplication@@QAE@XZ			; CPythonApplication::CPythonApplication
PUBLIC	?Instance@CPythonApplication@@SAAAV1@XZ		; CPythonApplication::Instance
PUBLIC	??0SCameraSpeed@CPythonApplication@@QAE@XZ	; CPythonApplication::SCameraSpeed::SCameraSpeed
PUBLIC	??_GIAbstractApplication@@UAEPAXI@Z		; IAbstractApplication::`scalar deleting destructor'
PUBLIC	??1IAbstractApplication@@UAE@XZ			; IAbstractApplication::~IAbstractApplication
PUBLIC	??0IAbstractApplication@@QAE@XZ			; IAbstractApplication::IAbstractApplication
PUBLIC	??0SCameraSetting@IAbstractApplication@@QAE@XZ	; IAbstractApplication::SCameraSetting::SCameraSetting
PUBLIC	??0SCameraPos@IAbstractApplication@@QAE@XZ	; IAbstractApplication::SCameraPos::SCameraPos
PUBLIC	?SetMapManagerPtr@CFlyingManager@@QAEXPAVCMapManager@@@Z ; CFlyingManager::SetMapManagerPtr
EXTRN	??_EIAbstractApplication@@UAEPAXI@Z:PROC	; IAbstractApplication::`vector deleting destructor'
EXTRN	??_E?$TAbstractSingleton@VIAbstractApplication@@@@UAEPAXI@Z:PROC ; TAbstractSingleton<IAbstractApplication>::`vector deleting destructor'
EXTRN	??_ECPythonApplication@@UAEPAXI@Z:PROC		; CPythonApplication::`vector deleting destructor'
?vecDropSoundFileName@@3V?$array@U?$pair@KV?$basic_string@DU?$char_traits@D@std@@V?$allocator@D@2@@std@@@std@@$04@std@@B DB 08cH DUP (?) ; vecDropSoundFileName
?vecEffectList@@3V?$vector@V?$tuple@IPBDPBD_N@std@@V?$allocator@V?$tuple@IPBDPBD_N@std@@@2@@std@@B DB 0cH DUP (?) ; vecEffectList
?characterNameColors@@3V?$map@EV?$array@E$02@std@@U?$less@E@2@V?$allocator@U?$pair@$$CBEV?$array@E$02@std@@@std@@@2@@std@@B DQ 01H DUP (?) ; characterNameColors
?characterTitleColors@@3V?$map@EV?$array@E$02@std@@U?$less@E@2@V?$allocator@U?$pair@$$CBEV?$array@E$02@std@@@std@@@2@@std@@B DQ 01H DUP (?) ; characterTitleColors
?characterTitleSystemColors@@3V?$map@EV?$array@E$02@std@@U?$less@E@2@V?$allocator@U?$pair@$$CBEV?$array@E$02@std@@@std@@@2@@std@@B DQ 01H DUP (?) ; characterTitleSystemColors
?emotionIcons@@3V?$map@EPBDU?$less@E@std@@V?$allocator@U?$pair@$$CBEPBD@std@@@2@@std@@B DQ 01H DUP (?) ; emotionIcons
?skillIndexes@@3V?$map@EV?$map@EV?$vector@EV?$allocator@E@std@@@std@@U?$less@E@2@V?$allocator@U?$pair@$$CBEV?$vector@EV?$allocator@E@std@@@std@@@std@@@2@@std@@U?$less@E@2@V?$allocator@U?$pair@$$CBEV?$map@EV?$vector@EV?$allocator@E@std@@@std@@U?$less@E@2@V?$allocator@U?$pair@$$CBEV?$vector@EV?$allocator@E@std@@@std@@@std@@@2@@std@@@std@@@2@@std@@B DQ 01H DUP (?) ; skillIndexes
?guildSkills@@3V?$map@V?$basic_string@DU?$char_traits@D@std@@V?$allocator@D@2@@std@@V?$vector@EV?$allocator@E@std@@@2@U?$less@V?$basic_string@DU?$char_traits@D@std@@V?$allocator@D@2@@std@@@2@V?$allocator@U?$pair@$$CBV?$basic_string@DU?$char_traits@D@std@@V?$allocator@D@2@@std@@V?$vector@EV?$allocator@E@std@@@2@@std@@@2@@std@@B DQ 01H DUP (?) ; guildSkills
_BSS	ENDS
;	COMDAT ?$TSS0@?1??Process@CPythonApplication@@QAE_NXZ@4HA
_BSS	SEGMENT
?$TSS0@?1??Process@CPythonApplication@@QAE_NXZ@4HA DD 01H DUP (?) ; `CPythonApplication::Process'::`2'::$TSS0
_BSS	ENDS
;	COMDAT ?s_dwCheckTime@?1??Process@CPythonApplication@@QAE_NXZ@4KA
_BSS	SEGMENT
?s_dwCheckTime@?1??Process@CPythonApplication@@QAE_NXZ@4KA DD 01H DUP (?) ; `CPythonApplication::Process'::`2'::s_dwCheckTime
_BSS	ENDS
;	COMDAT ?$TSS1@?1??Process@CPythonApplication@@QAE_NXZ@4HA
_BSS	SEGMENT
?$TSS1@?1??Process@CPythonApplication@@QAE_NXZ@4HA DD 01H DUP (?) ; `CPythonApplication::Process'::`2'::$TSS1
_BSS	ENDS
;	COMDAT ?s_uiNextFrameTime@?1??Process@CPythonApplication@@QAE_NXZ@4IA
_BSS	SEGMENT
?s_uiNextFrameTime@?1??Process@CPythonApplication@@QAE_NXZ@4IA DD 01H DUP (?) ; `CPythonApplication::Process'::`2'::s_uiNextFrameTime
_BSS	ENDS
;	COMDAT ?$TSS2@?CL@??Process@CPythonApplication@@QAE_NXZ@4HA
_BSS	SEGMENT
?$TSS2@?CL@??Process@CPythonApplication@@QAE_NXZ@4HA DD 01H DUP (?) ; `CPythonApplication::Process'::`43'::$TSS2
_BSS	ENDS
;	COMDAT ?s_dwRenderCheckTime@?CL@??Process@CPythonApplication@@QAE_NXZ@4KA
_BSS	SEGMENT
?s_dwRenderCheckTime@?CL@??Process@CPythonApplication@@QAE_NXZ@4KA DD 01H DUP (?) ; `CPythonApplication::Process'::`43'::s_dwRenderCheckTime
_BSS	ENDS
;	COMDAT xdata$x
xdata$x	SEGMENT
__ehfuncinfo$??__EvecUseSoundFileName@@YAXXZ DQ 00000000619930522r ; 1.2944e-313
	DD	FLAT:__unwindtable$??__EvecUseSoundFileName@@YAXXZ
	DQ	00000000000000000r		; 0
	DQ	00000000000000000r		; 0
	DQ	00000000100000000r		; 2.122e-314
__unwindtable$??__EvecUseSoundFileName@@YAXXZ DD 0ffffffffH
	DD	FLAT:__unwindfunclet$??__EvecUseSoundFileName@@YAXXZ$0
	DD	00H
	DD	FLAT:__unwindfunclet$??__EvecUseSoundFileName@@YAXXZ$1
	DD	01H
	DD	FLAT:__unwindfunclet$??__EvecUseSoundFileName@@YAXXZ$2
	DD	02H
	DD	FLAT:__unwindfunclet$??__EvecUseSoundFileName@@YAXXZ$3
	DD	03H
	DD	FLAT:__unwindfunclet$??__EvecUseSoundFileName@@YAXXZ$4
	DD	04H
	DD	FLAT:__unwindfunclet$??__EvecUseSoundFileName@@YAXXZ$5
xdata$x	ENDS
;	COMDAT xdata$x
xdata$x	SEGMENT
__ehfuncinfo$??__FvecUseSoundFileName@@YAXXZ DQ 00000000119930522r ; 2.33398e-314
	DD	FLAT:__unwindtable$??__FvecUseSoundFileName@@YAXXZ
	DQ	00000000000000000r		; 0
	DQ	00000000000000000r		; 0
	DQ	00000000100000000r		; 2.122e-314
__unwindtable$??__FvecUseSoundFileName@@YAXXZ DD 0ffffffffH
	DD	FLAT:___std_terminate
xdata$x	ENDS
;	COMDAT xdata$x
xdata$x	SEGMENT
__ehfuncinfo$??__EvecDropSoundFileName@@YAXXZ DQ 00000000419930522r ; 8.69997e-314
	DD	FLAT:__unwindtable$??__EvecDropSoundFileName@@YAXXZ
	DQ	00000000000000000r		; 0
	DQ	00000000000000000r		; 0
	DQ	00000000100000000r		; 2.122e-314
__unwindtable$??__EvecDropSoundFileName@@YAXXZ DD 0ffffffffH
	DD	FLAT:__unwindfunclet$??__EvecDropSoundFileName@@YAXXZ$0
	DD	00H
	DD	FLAT:__unwindfunclet$??__EvecDropSoundFileName@@YAXXZ$1
	DD	01H
	DD	FLAT:__unwindfunclet$??__EvecDropSoundFileName@@YAXXZ$2
	DD	02H
	DD	FLAT:__unwindfunclet$??__EvecDropSoundFileName@@YAXXZ$3
xdata$x	ENDS
;	COMDAT xdata$x
xdata$x	SEGMENT
__ehfuncinfo$??__FvecDropSoundFileName@@YAXXZ DQ 00000000119930522r ; 2.33398e-314
	DD	FLAT:__unwindtable$??__FvecDropSoundFileName@@YAXXZ
	DQ	00000000000000000r		; 0
	DQ	00000000000000000r		; 0
	DQ	00000000100000000r		; 2.122e-314
__unwindtable$??__FvecDropSoundFileName@@YAXXZ DD 0ffffffffH
	DD	FLAT:___std_terminate
xdata$x	ENDS
;	COMDAT xdata$x
xdata$x	SEGMENT
__ehfuncinfo$??__EskillIndexes@@YAXXZ DQ 00000002819930522r ; 8.50918e-313
	DD	FLAT:__unwindtable$??__EskillIndexes@@YAXXZ
	DQ	00000000000000000r		; 0
	DQ	00000000000000000r		; 0
	DQ	00000000100000000r		; 2.122e-314
	ORG $+4
__unwindtable$??__EskillIndexes@@YAXXZ DD 0ffffffffH
	DD	FLAT:__unwindfunclet$??__EskillIndexes@@YAXXZ$0
	DD	00H
	DD	FLAT:__unwindfunclet$??__EskillIndexes@@YAXXZ$1
	DD	01H
	DD	FLAT:__unwindfunclet$??__EskillIndexes@@YAXXZ$2
	DD	00H
	DD	FLAT:__unwindfunclet$??__EskillIndexes@@YAXXZ$2
	DD	03H
	DD	FLAT:__unwindfunclet$??__EskillIndexes@@YAXXZ$4
	DD	04H
	DD	FLAT:__unwindfunclet$??__EskillIndexes@@YAXXZ$5
	DD	05H
	DD	FLAT:__unwindfunclet$??__EskillIndexes@@YAXXZ$6
	DD	06H
	DD	FLAT:__unwindfunclet$??__EskillIndexes@@YAXXZ$7
	DD	07H
	DD	FLAT:__unwindfunclet$??__EskillIndexes@@YAXXZ$8
	DD	08H
	DD	FLAT:__unwindfunclet$??__EskillIndexes@@YAXXZ$9
	DD	07H
	DD	FLAT:__unwindfunclet$??__EskillIndexes@@YAXXZ$9
	DD	0aH
	DD	FLAT:__unwindfunclet$??__EskillIndexes@@YAXXZ$11
	DD	0bH
	DD	FLAT:__unwindfunclet$??__EskillIndexes@@YAXXZ$12
	DD	0cH
	DD	FLAT:__unwindfunclet$??__EskillIndexes@@YAXXZ$13
	DD	0dH
	DD	FLAT:__unwindfunclet$??__EskillIndexes@@YAXXZ$14
	DD	0eH
	DD	FLAT:__unwindfunclet$??__EskillIndexes@@YAXXZ$15
	DD	0fH
	DD	FLAT:__unwindfunclet$??__EskillIndexes@@YAXXZ$16
	DD	0eH
	DD	FLAT:__unwindfunclet$??__EskillIndexes@@YAXXZ$16
	DD	011H
	DD	FLAT:__unwindfunclet$??__EskillIndexes@@YAXXZ$18
	DD	012H
	DD	FLAT:__unwindfunclet$??__EskillIndexes@@YAXXZ$19
	DD	013H
	DD	FLAT:__unwindfunclet$??__EskillIndexes@@YAXXZ$20
	DD	014H
	DD	FLAT:__unwindfunclet$??__EskillIndexes@@YAXXZ$21
	DD	015H
	DD	FLAT:__unwindfunclet$??__EskillIndexes@@YAXXZ$22
	DD	016H
	DD	FLAT:__unwindfunclet$??__EskillIndexes@@YAXXZ$23
	DD	015H
	DD	FLAT:__unwindfunclet$??__EskillIndexes@@YAXXZ$23
	DD	018H
	DD	FLAT:__unwindfunclet$??__EskillIndexes@@YAXXZ$25
	DD	019H
	DD	FLAT:__unwindfunclet$??__EskillIndexes@@YAXXZ$26
	DD	05H
	DD	FLAT:__unwindfunclet$??__EskillIndexes@@YAXXZ$7
	DD	01bH
	DD	FLAT:__unwindfunclet$??__EskillIndexes@@YAXXZ$9
	DD	01cH
	DD	FLAT:__unwindfunclet$??__EskillIndexes@@YAXXZ$11
	DD	01dH
	DD	FLAT:__unwindfunclet$??__EskillIndexes@@YAXXZ$12
	DD	01eH
	DD	FLAT:__unwindfunclet$??__EskillIndexes@@YAXXZ$14
	DD	01fH
	DD	FLAT:__unwindfunclet$??__EskillIndexes@@YAXXZ$16
	DD	020H
	DD	FLAT:__unwindfunclet$??__EskillIndexes@@YAXXZ$18
	DD	021H
	DD	FLAT:__unwindfunclet$??__EskillIndexes@@YAXXZ$19
	DD	022H
	DD	FLAT:__unwindfunclet$??__EskillIndexes@@YAXXZ$21
	DD	023H
	DD	FLAT:__unwindfunclet$??__EskillIndexes@@YAXXZ$23
	DD	024H
	DD	FLAT:__unwindfunclet$??__EskillIndexes@@YAXXZ$25
	DD	025H
	DD	FLAT:__unwindfunclet$??__EskillIndexes@@YAXXZ$26
	DD	026H
	DD	FLAT:__unwindfunclet$??__EskillIndexes@@YAXXZ$28
xdata$x	ENDS
;	COMDAT xdata$x
xdata$x	SEGMENT
__ehfuncinfo$??__EguildSkills@@YAXXZ DQ 00000000a19930522r ; 2.14319e-313
	DD	FLAT:__unwindtable$??__EguildSkills@@YAXXZ
	DQ	00000000000000000r		; 0
	DQ	00000000000000000r		; 0
	DQ	00000000100000000r		; 2.122e-314
	ORG $+4
__unwindtable$??__EguildSkills@@YAXXZ DD 0ffffffffH
	DD	FLAT:__unwindfunclet$??__EguildSkills@@YAXXZ$0
	DD	00H
	DD	FLAT:__unwindfunclet$??__EguildSkills@@YAXXZ$1
	DD	01H
	DD	FLAT:__unwindfunclet$??__EguildSkills@@YAXXZ$10
	DD	01H
	DD	FLAT:__unwindfunclet$??__EguildSkills@@YAXXZ$2
	DD	03H
	DD	FLAT:__unwindfunclet$??__EguildSkills@@YAXXZ$3
	DD	04H
	DD	FLAT:__unwindfunclet$??__EguildSkills@@YAXXZ$4
	DD	05H
	DD	FLAT:__unwindfunclet$??__EguildSkills@@YAXXZ$16
	DD	01H
	DD	FLAT:__unwindfunclet$??__EguildSkills@@YAXXZ$3
	DD	07H
	DD	FLAT:__unwindfunclet$??__EguildSkills@@YAXXZ$4
	DD	08H
	DD	FLAT:__unwindfunclet$??__EguildSkills@@YAXXZ$6
xdata$x	ENDS
;	COMDAT xdata$x
xdata$x	SEGMENT
__ehfuncinfo$??0CPythonApplication@@QAE@XZ DQ 00000003419930522r ; 1.10556e-312
	DD	FLAT:__unwindtable$??0CPythonApplication@@QAE@XZ
	DQ	00000000000000000r		; 0
	DQ	00000000000000000r		; 0
	DQ	00000000100000000r		; 2.122e-314
	ORG $+4
__unwindtable$??0CPythonApplication@@QAE@XZ DD 0ffffffffH
	DD	FLAT:__unwindfunclet$??0CPythonApplication@@QAE@XZ$0
	DD	00H
	DD	FLAT:__unwindfunclet$??0CPythonApplication@@QAE@XZ$1
	DD	01H
	DD	FLAT:__unwindfunclet$??0CPythonApplication@@QAE@XZ$2
	DD	02H
	DD	FLAT:__unwindfunclet$??0CPythonApplication@@QAE@XZ$3
	DD	03H
	DD	FLAT:__unwindfunclet$??0CPythonApplication@@QAE@XZ$4
	DD	04H
	DD	FLAT:__unwindfunclet$??0CPythonApplication@@QAE@XZ$5
	DD	05H
	DD	FLAT:__unwindfunclet$??0CPythonApplication@@QAE@XZ$6
	DD	06H
	DD	FLAT:__unwindfunclet$??0CPythonApplication@@QAE@XZ$7
	DD	07H
	DD	FLAT:__unwindfunclet$??0CPythonApplication@@QAE@XZ$8
	DD	08H
	DD	FLAT:__unwindfunclet$??0CPythonApplication@@QAE@XZ$9
	DD	09H
	DD	FLAT:__unwindfunclet$??0CPythonApplication@@QAE@XZ$10
	DD	0aH
	DD	FLAT:__unwindfunclet$??0CPythonApplication@@QAE@XZ$11
	DD	0bH
	DD	FLAT:__unwindfunclet$??0CPythonApplication@@QAE@XZ$12
	DD	0cH
	DD	FLAT:__unwindfunclet$??0CPythonApplication@@QAE@XZ$13
	DD	0dH
	DD	FLAT:__unwindfunclet$??0CPythonApplication@@QAE@XZ$14
	DD	0eH
	DD	FLAT:__unwindfunclet$??0CPythonApplication@@QAE@XZ$15
	DD	0fH
	DD	FLAT:__unwindfunclet$??0CPythonApplication@@QAE@XZ$16
	DD	010H
	DD	FLAT:__unwindfunclet$??0CPythonApplication@@QAE@XZ$17
	DD	011H
	DD	FLAT:__unwindfunclet$??0CPythonApplication@@QAE@XZ$18
	DD	012H
	DD	FLAT:__unwindfunclet$??0CPythonApplication@@QAE@XZ$19
	DD	013H
	DD	FLAT:__unwindfunclet$??0CPythonApplication@@QAE@XZ$20
	DD	014H
	DD	FLAT:__unwindfunclet$??0CPythonApplication@@QAE@XZ$21
	DD	015H
	DD	FLAT:__unwindfunclet$??0CPythonApplication@@QAE@XZ$22
	DD	016H
	DD	FLAT:__unwindfunclet$??0CPythonApplication@@QAE@XZ$23
	DD	017H
	DD	FLAT:__unwindfunclet$??0CPythonApplication@@QAE@XZ$24
	DD	018H
	DD	FLAT:__unwindfunclet$??0CPythonApplication@@QAE@XZ$25
	DD	019H
	DD	FLAT:__unwindfunclet$??0CPythonApplication@@QAE@XZ$26
	DD	01aH
	DD	FLAT:__unwindfunclet$??0CPythonApplication@@QAE@XZ$27
	DD	01bH
	DD	FLAT:__unwindfunclet$??0CPythonApplication@@QAE@XZ$28
	DD	01cH
	DD	FLAT:__unwindfunclet$??0CPythonApplication@@QAE@XZ$29
	DD	01dH
	DD	FLAT:__unwindfunclet$??0CPythonApplication@@QAE@XZ$30
	DD	01eH
	DD	FLAT:__unwindfunclet$??0CPythonApplication@@QAE@XZ$31
	DD	01fH
	DD	FLAT:__unwindfunclet$??0CPythonApplication@@QAE@XZ$32
	DD	020H
	DD	FLAT:__unwindfunclet$??0CPythonApplication@@QAE@XZ$33
	DD	021H
	DD	FLAT:__unwindfunclet$??0CPythonApplication@@QAE@XZ$34
	DD	022H
	DD	FLAT:__unwindfunclet$??0CPythonApplication@@QAE@XZ$35
	DD	023H
	DD	FLAT:__unwindfunclet$??0CPythonApplication@@QAE@XZ$36
	DD	024H
	DD	FLAT:__unwindfunclet$??0CPythonApplication@@QAE@XZ$37
	DD	025H
	DD	FLAT:__unwindfunclet$??0CPythonApplication@@QAE@XZ$38
	DD	026H
	DD	FLAT:__unwindfunclet$??0CPythonApplication@@QAE@XZ$39
	DD	027H
	DD	FLAT:__unwindfunclet$??0CPythonApplication@@QAE@XZ$40
	DD	028H
	DD	FLAT:__unwindfunclet$??0CPythonApplication@@QAE@XZ$41
	DD	029H
	DD	FLAT:__unwindfunclet$??0CPythonApplication@@QAE@XZ$42
	DD	02aH
	DD	FLAT:__unwindfunclet$??0CPythonApplication@@QAE@XZ$43
	DD	02bH
	DD	FLAT:__unwindfunclet$??0CPythonApplication@@QAE@XZ$44
	DD	02cH
	DD	FLAT:__unwindfunclet$??0CPythonApplication@@QAE@XZ$45
	DD	02dH
	DD	FLAT:__unwindfunclet$??0CPythonApplication@@QAE@XZ$46
	DD	02eH
	DD	FLAT:__unwindfunclet$??0CPythonApplication@@QAE@XZ$47
	DD	02fH
	DD	FLAT:__unwindfunclet$??0CPythonApplication@@QAE@XZ$48
	DD	030H
	DD	FLAT:__unwindfunclet$??0CPythonApplication@@QAE@XZ$49
	DD	031H
	DD	FLAT:__unwindfunclet$??0CPythonApplication@@QAE@XZ$50
	DD	032H
	DD	FLAT:__unwindfunclet$??0CPythonApplication@@QAE@XZ$51
xdata$x	ENDS
;	COMDAT xdata$x
xdata$x	SEGMENT
__ehfuncinfo$?UpdateGame@CPythonApplication@@QAEXXZ DD 019930522H
	DD	01H
	DD	FLAT:__unwindtable$?UpdateGame@CPythonApplication@@QAEXXZ
	DD	2 DUP(00H)
	DD	2 DUP(00H)
	DD	00H
	DD	01H
__unwindtable$?UpdateGame@CPythonApplication@@QAEXXZ DD 0ffffffffH
	DD	FLAT:__unwindfunclet$?UpdateGame@CPythonApplication@@QAEXXZ$0
xdata$x	ENDS
;	COMDAT xdata$x
xdata$x	SEGMENT
__ehfuncinfo$?Process@CPythonApplication@@QAE_NXZ DD 019930522H
	DD	02H
	DD	FLAT:__unwindtable$?Process@CPythonApplication@@QAE_NXZ
	DD	2 DUP(00H)
	DD	2 DUP(00H)
	DD	00H
	DD	01H
__unwindtable$?Process@CPythonApplication@@QAE_NXZ DD 0ffffffffH
	DD	FLAT:__unwindfunclet$?Process@CPythonApplication@@QAE_NXZ$0
	DD	0ffffffffH
	DD	FLAT:__unwindfunclet$?Process@CPythonApplication@@QAE_NXZ$1
	ORG $+4
?vecUseSoundFileName@@3V?$array@U?$pair@KV?$basic_string@DU?$char_traits@D@std@@V?$allocator@D@2@@std@@@std@@$06@std@@B DQ 00000000000000001r ; 4.94066e-324 ; vecUseSoundFileName
	DQ	00000000000000000r		; 0
	DQ	00000000000000000r		; 0
	DQ	00000000000000000r		; 0
	DQ	00000000000000000r		; 0
	DQ	00000000000000000r		; 0
	DQ	00000000000000000r		; 0
	DQ	00000000000000000r		; 0
	DQ	00000000000000000r		; 0
	DQ	00000000000000000r		; 0
	DQ	00000000000000000r		; 0
	DQ	00000000000000000r		; 0
	DQ	00000000000000000r		; 0
	DQ	00000000000000000r		; 0
	DQ	00000000000000000r		; 0
	DQ	00000000000000000r		; 0
	DQ	00000000000000000r		; 0
	DQ	00000000000000000r		; 0
	DQ	00000000000000000r		; 0
	DQ	00000000000000000r		; 0
	DQ	00000000000000000r		; 0
	DQ	00000000000000000r		; 0
	DQ	00000000000000000r		; 0
	DQ	00000000000000000r		; 0
	DD	00H
?vecUseSoundFileName$initializer$@@3P6AXXZA DD FLAT:??__EvecUseSoundFileName@@YAXXZ ; vecUseSoundFileName$initializer$
?vecDropSoundFileName$initializer$@@3P6AXXZA DD FLAT:??__EvecDropSoundFileName@@YAXXZ ; vecDropSoundFileName$initializer$
?vecEffectList$initializer$@@3P6AXXZA DD FLAT:??__EvecEffectList@@YAXXZ ; vecEffectList$initializer$
?characterNameColors$initializer$@@3P6AXXZA DD FLAT:??__EcharacterNameColors@@YAXXZ ; characterNameColors$initializer$
?characterTitleColors$initializer$@@3P6AXXZA DD FLAT:??__EcharacterTitleColors@@YAXXZ ; characterTitleColors$initializer$
?characterTitleSystemColors$initializer$@@3P6AXXZA DD FLAT:??__EcharacterTitleSystemColors@@YAXXZ ; characterTitleSystemColors$initializer$
?emotionIcons$initializer$@@3P6AXXZA DD FLAT:??__EemotionIcons@@YAXXZ ; emotionIcons$initializer$
?skillIndexes$initializer$@@3P6AXXZA DD FLAT:??__EskillIndexes@@YAXXZ ; skillIndexes$initializer$
?guildSkills$initializer$@@3P6AXXZA DD FLAT:??__EguildSkills@@YAXXZ ; guildSkills$initializer$
; Function compile flags: /Ogtp
; File C:\Anka2Project\Anka2Project\Source\Binary\source\UserInterface\PythonApplication.cpp
;	COMDAT ?Abort@CPythonApplication@@QAEXXZ
_TEXT	SEGMENT
?Abort@CPythonApplication@@QAEXXZ PROC			; CPythonApplication::Abort, COMDAT
; _this$dead$ = ecx

; 159  : 	TraceError("============================================================================================================");

  00000	68 00 00 00 00	 push	 OFFSET ??_C@_0GN@LLBDNFAM@?$DN?$DN?$DN?$DN?$DN?$DN?$DN?$DN?$DN?$DN?$DN?$DN?$DN?$DN?$DN?$DN?$DN?$DN?$DN?$DN?$DN?$DN?$DN?$DN?$DN?$DN?$DN?$DN?$DN?$DN?$DN@
  00005	e8 00 00 00 00	 call	 ?TraceError@@YAXPBDZZ	; TraceError

; 160  : 	TraceError("Abort!!!!\n\n");

  0000a	68 00 00 00 00	 push	 OFFSET ??_C@_0M@EHJKIBDK@Abort?$CB?$CB?$CB?$CB?6?6@
  0000f	e8 00 00 00 00	 call	 ?TraceError@@YAXPBDZZ	; TraceError
  00014	83 c4 08	 add	 esp, 8

; 161  : 
; 162  : 	PostQuitMessage(0);

  00017	6a 00		 push	 0
  00019	ff 15 00 00 00
	00		 call	 DWORD PTR __imp__PostQuitMessage@4

; 163  : }

  0001f	c3		 ret	 0
?Abort@CPythonApplication@@QAEXXZ ENDP			; CPythonApplication::Abort
_TEXT	ENDS
; Function compile flags: /Ogtp
; File C:\Anka2Project\Anka2Project\Source\Binary\source\UserInterface\PythonApplication.cpp
;	COMDAT ?Exit@CPythonApplication@@QAEXXZ
_TEXT	SEGMENT
?Exit@CPythonApplication@@QAEXXZ PROC			; CPythonApplication::Exit, COMDAT
; _this$dead$ = ecx

; 167  : 	PostQuitMessage(0);

  00000	6a 00		 push	 0
  00002	ff 15 00 00 00
	00		 call	 DWORD PTR __imp__PostQuitMessage@4

; 168  : }

  00008	c3		 ret	 0
?Exit@CPythonApplication@@QAEXXZ ENDP			; CPythonApplication::Exit
_TEXT	ENDS
; Function compile flags: /Ogtp
; File C:\Anka2Project\Anka2Project\Source\Binary\source\UserInterface\PythonApplication.cpp
; File C:\Anka2Project\Anka2Project\Source\Binary\source\eterBase\Singleton.h
; File C:\Anka2Project\Anka2Project\Source\Binary\source\UserInterface\PythonApplication.cpp
; File C:\Anka2Project\Anka2Project\Source\Binary\source\eterBase\Singleton.h
; File C:\Anka2Project\Anka2Project\Source\Binary\source\UserInterface\PythonApplication.cpp
; File C:\Anka2Project\Anka2Project\Source\Binary\source\eterBase\Singleton.h
; File C:\Anka2Project\Anka2Project\Source\Binary\source\UserInterface\PythonApplication.cpp
; File C:\Anka2Project\Anka2Project\Source\Binary\source\eterBase\Singleton.h
; File C:\Anka2Project\Anka2Project\Source\Binary\source\UserInterface\PythonApplication.cpp
; File C:\Anka2Project\Anka2Project\Source\Binary\source\eterBase\Singleton.h
; File C:\Anka2Project\Anka2Project\Source\Binary\source\UserInterface\PythonApplication.cpp
;	COMDAT ?UpdateGame@CPythonApplication@@QAEXXZ
_TEXT	SEGMENT
_kPPosMainActor$ = -44					; size = 12
_ptMouse$ = -32						; size = 8
_fAspect$5 = -24					; size = 4
_fFarClip$1$ = -20					; size = 4
_s$6 = -16						; size = 4
__$EHRec$ = -12						; size = 12
?UpdateGame@CPythonApplication@@QAEXXZ PROC		; CPythonApplication::UpdateGame, COMDAT
; _this$ = ecx

; 233  : {

  00000	55		 push	 ebp
  00001	8b ec		 mov	 ebp, esp
  00003	6a ff		 push	 -1
  00005	68 00 00 00 00	 push	 __ehhandler$?UpdateGame@CPythonApplication@@QAEXXZ
  0000a	64 a1 00 00 00
	00		 mov	 eax, DWORD PTR fs:0
  00010	50		 push	 eax
  00011	83 ec 24	 sub	 esp, 36			; 00000024H
  00014	53		 push	 ebx
  00015	56		 push	 esi
  00016	57		 push	 edi
  00017	a1 00 00 00 00	 mov	 eax, DWORD PTR ___security_cookie
  0001c	33 c5		 xor	 eax, ebp
  0001e	50		 push	 eax
  0001f	8d 45 f4	 lea	 eax, DWORD PTR __$EHRec$[ebp]
  00022	64 a3 00 00 00
	00		 mov	 DWORD PTR fs:0, eax
  00028	8b d9		 mov	 ebx, ecx

; 234  : 	POINT ptMouse;
; 235  : 	GetMousePosition(&ptMouse);

  0002a	8b 43 20	 mov	 eax, DWORD PTR [ebx+32]
  0002d	8d 4d e0	 lea	 ecx, DWORD PTR _ptMouse$[ebp]
  00030	51		 push	 ecx
  00031	8d 4b 20	 lea	 ecx, DWORD PTR [ebx+32]
  00034	ff 50 04	 call	 DWORD PTR [eax+4]

; 236  : 
; 237  : 	CGraphicTextInstance::Hyperlink_UpdateMousePos(ptMouse.x, ptMouse.y);

  00037	ff 75 e4	 push	 DWORD PTR _ptMouse$[ebp+4]
  0003a	ff 75 e0	 push	 DWORD PTR _ptMouse$[ebp]
  0003d	e8 00 00 00 00	 call	 ?Hyperlink_UpdateMousePos@CGraphicTextInstance@@SAXHH@Z ; CGraphicTextInstance::Hyperlink_UpdateMousePos
  00042	83 c4 08	 add	 esp, 8

; 238  : 
; 239  : 	{
; 240  : 		CScreen s;

  00045	8d 4d f0	 lea	 ecx, DWORD PTR _s$6[ebp]
  00048	e8 00 00 00 00	 call	 ??0CScreen@@QAE@XZ	; CScreen::CScreen
  0004d	c7 45 fc 00 00
	00 00		 mov	 DWORD PTR __$EHRec$[ebp+8], 0
; File C:\Anka2Project\Anka2Project\Source\Binary\source\eterBase\Singleton.h

; 26   : 		assert(ms_singleton);

  00054	8b 0d 00 00 00
	00		 mov	 ecx, DWORD PTR ?ms_singleton@?$CSingleton@VCWindowManager@UI@@@@0PAVCWindowManager@UI@@A ; CSingleton<UI::CWindowManager>::ms_singleton
  0005a	85 c9		 test	 ecx, ecx
  0005c	75 1a		 jne	 SHORT $LN6@UpdateGame
  0005e	6a 1a		 push	 26			; 0000001aH
  00060	68 00 00 00 00	 push	 OFFSET ??_C@_1IO@CAJLEEOI@?$AAC?$AA?3?$AA?2?$AAA?$AAn?$AAk?$AAa?$AA2?$AAP?$AAr?$AAo?$AAj?$AAe?$AAc?$AAt@
  00065	68 00 00 00 00	 push	 OFFSET ??_C@_1BK@FMEHPMFE@?$AAm?$AAs?$AA_?$AAs?$AAi?$AAn?$AAg?$AAl?$AAe?$AAt?$AAo?$AAn@
  0006a	e8 00 00 00 00	 call	 __wassert
  0006f	8b 0d 00 00 00
	00		 mov	 ecx, DWORD PTR ?ms_singleton@?$CSingleton@VCWindowManager@UI@@@@0PAVCWindowManager@UI@@A ; CSingleton<UI::CWindowManager>::ms_singleton
  00075	83 c4 0c	 add	 esp, 12			; 0000000cH
$LN6@UpdateGame:
; File C:\Anka2Project\Anka2Project\Source\Binary\source\UserInterface\PythonApplication.cpp

; 241  : 		float fAspect = UI::CWindowManager::Instance().GetAspect();

  00078	e8 00 00 00 00	 call	 ?GetAspect@CWindowManager@UI@@QAEMXZ ; UI::CWindowManager::GetAspect
; File C:\Anka2Project\Anka2Project\Source\Binary\source\eterBase\Singleton.h

; 26   : 		assert(ms_singleton);

  0007d	8b 0d 00 00 00
	00		 mov	 ecx, DWORD PTR ?ms_singleton@?$CSingleton@VCPythonBackground@@@@0PAVCPythonBackground@@A ; CSingleton<CPythonBackground>::ms_singleton
; File C:\Anka2Project\Anka2Project\Source\Binary\source\UserInterface\PythonApplication.cpp

; 241  : 		float fAspect = UI::CWindowManager::Instance().GetAspect();

  00083	d9 5d e8	 fstp	 DWORD PTR _fAspect$5[ebp]
; File C:\Anka2Project\Anka2Project\Source\Binary\source\eterBase\Singleton.h

; 26   : 		assert(ms_singleton);

  00086	85 c9		 test	 ecx, ecx
  00088	75 1a		 jne	 SHORT $LN9@UpdateGame
  0008a	6a 1a		 push	 26			; 0000001aH
  0008c	68 00 00 00 00	 push	 OFFSET ??_C@_1IO@CAJLEEOI@?$AAC?$AA?3?$AA?2?$AAA?$AAn?$AAk?$AAa?$AA2?$AAP?$AAr?$AAo?$AAj?$AAe?$AAc?$AAt@
  00091	68 00 00 00 00	 push	 OFFSET ??_C@_1BK@FMEHPMFE@?$AAm?$AAs?$AA_?$AAs?$AAi?$AAn?$AAg?$AAl?$AAe?$AAt?$AAo?$AAn@
  00096	e8 00 00 00 00	 call	 __wassert
  0009b	8b 0d 00 00 00
	00		 mov	 ecx, DWORD PTR ?ms_singleton@?$CSingleton@VCPythonBackground@@@@0PAVCPythonBackground@@A ; CSingleton<CPythonBackground>::ms_singleton
  000a1	83 c4 0c	 add	 esp, 12			; 0000000cH
$LN9@UpdateGame:
; File C:\Anka2Project\Anka2Project\Source\Binary\source\UserInterface\PythonApplication.cpp

; 242  : 		float fFarClip = CPythonBackground::Instance().GetFarClip();

  000a4	e8 00 00 00 00	 call	 ?GetFarClip@CPythonBackground@@QAEMXZ ; CPythonBackground::GetFarClip
; File C:\Anka2Project\Anka2Project\Source\Binary\source\eterBase\Singleton.h

; 26   : 		assert(ms_singleton);

  000a9	8b 0d 00 00 00
	00		 mov	 ecx, DWORD PTR ?ms_singleton@?$CSingleton@VCPythonSystem@@@@0PAVCPythonSystem@@A ; CSingleton<CPythonSystem>::ms_singleton
; File C:\Anka2Project\Anka2Project\Source\Binary\source\UserInterface\PythonApplication.cpp

; 242  : 		float fFarClip = CPythonBackground::Instance().GetFarClip();

  000af	f3 0f 11 45 ec	 movss	 DWORD PTR _fFarClip$1$[ebp], xmm0
; File C:\Anka2Project\Anka2Project\Source\Binary\source\eterBase\Singleton.h

; 26   : 		assert(ms_singleton);

  000b4	85 c9		 test	 ecx, ecx
  000b6	75 1f		 jne	 SHORT $LN12@UpdateGame
  000b8	6a 1a		 push	 26			; 0000001aH
  000ba	68 00 00 00 00	 push	 OFFSET ??_C@_1IO@CAJLEEOI@?$AAC?$AA?3?$AA?2?$AAA?$AAn?$AAk?$AAa?$AA2?$AAP?$AAr?$AAo?$AAj?$AAe?$AAc?$AAt@
  000bf	68 00 00 00 00	 push	 OFFSET ??_C@_1BK@FMEHPMFE@?$AAm?$AAs?$AA_?$AAs?$AAi?$AAn?$AAg?$AAl?$AAe?$AAt?$AAo?$AAn@
  000c4	e8 00 00 00 00	 call	 __wassert
  000c9	8b 0d 00 00 00
	00		 mov	 ecx, DWORD PTR ?ms_singleton@?$CSingleton@VCPythonSystem@@@@0PAVCPythonSystem@@A ; CSingleton<CPythonSystem>::ms_singleton
  000cf	83 c4 0c	 add	 esp, 12			; 0000000cH
  000d2	f3 0f 10 45 ec	 movss	 xmm0, DWORD PTR _fFarClip$1$[ebp]
$LN12@UpdateGame:
; File C:\Anka2Project\Anka2Project\Source\Binary\source\UserInterface\PythonApplication.cpp

; 245  : 		s.SetPerspective(CPythonSystem::Instance().GetFOV(), fAspect, 100.0f, fFarClip);

  000d7	83 ec 0c	 sub	 esp, 12			; 0000000cH
  000da	f3 0f 11 44 24
	08		 movss	 DWORD PTR [esp+8], xmm0
  000e0	f3 0f 10 45 e8	 movss	 xmm0, DWORD PTR _fAspect$5[ebp]
  000e5	c7 44 24 04 00
	00 c8 42	 mov	 DWORD PTR [esp+4], 1120403456 ; 42c80000H
  000ed	f3 0f 11 04 24	 movss	 DWORD PTR [esp], xmm0
  000f2	e8 00 00 00 00	 call	 ?GetFOV@CPythonSystem@@QAEMXZ ; CPythonSystem::GetFOV
  000f7	51		 push	 ecx
  000f8	8d 4d f0	 lea	 ecx, DWORD PTR _s$6[ebp]
  000fb	f3 0f 11 04 24	 movss	 DWORD PTR [esp], xmm0
  00100	e8 00 00 00 00	 call	 ?SetPerspective@CGraphicBase@@QAEXMMMM@Z ; CGraphicBase::SetPerspective

; 246  : #else
; 247  : 		s.SetPerspective(30.0f,fAspect, 100.0f, fFarClip);
; 248  : #endif
; 249  : 
; 250  : 		s.BuildViewFrustum();

  00105	8d 4d f0	 lea	 ecx, DWORD PTR _s$6[ebp]
  00108	e8 00 00 00 00	 call	 ?BuildViewFrustum@CScreen@@QAEXXZ ; CScreen::BuildViewFrustum

; 251  : 	}

  0010d	8d 4d f0	 lea	 ecx, DWORD PTR _s$6[ebp]
  00110	c7 45 fc ff ff
	ff ff		 mov	 DWORD PTR __$EHRec$[ebp+8], -1
  00117	e8 00 00 00 00	 call	 ??1CScreen@@UAE@XZ	; CScreen::~CScreen

; 252  : 
; 253  : #ifdef ENABLE_RENDER_TARGET
; 254  : 	m_kRenderTargetManager.UpdateModels();

  0011c	8d 8b 50 d3 03
	00		 lea	 ecx, DWORD PTR [ebx+250704]
  00122	e8 00 00 00 00	 call	 ?UpdateModels@CRenderTargetManager@@QAEXXZ ; CRenderTargetManager::UpdateModels

; 255  : #endif
; 256  : 
; 257  : 	TPixelPosition kPPosMainActor;
; 258  : 	m_pyPlayer.NEW_GetMainActorPosition(&kPPosMainActor);

  00127	8d 45 d4	 lea	 eax, DWORD PTR _kPPosMainActor$[ebp]
  0012a	50		 push	 eax
  0012b	e8 00 00 00 00	 call	 ?NEW_GetMainActorPosition@CPythonPlayer@@QAEXPAUD3DXVECTOR3@@@Z ; CPythonPlayer::NEW_GetMainActorPosition

; 259  : 	m_pyBackground.Update(kPPosMainActor.x, kPPosMainActor.y, kPPosMainActor.z);

  00130	f3 0f 10 5d dc	 movss	 xmm3, DWORD PTR _kPPosMainActor$[ebp+8]
  00135	8d 8b b8 8d 03
	00		 lea	 ecx, DWORD PTR [ebx+232888]
  0013b	f3 0f 10 55 d8	 movss	 xmm2, DWORD PTR _kPPosMainActor$[ebp+4]
  00140	f3 0f 10 4d d4	 movss	 xmm1, DWORD PTR _kPPosMainActor$[ebp]
  00145	e8 00 00 00 00	 call	 ?Update@CPythonBackground@@QAEXMMM@Z ; CPythonBackground::Update

; 260  : 
; 261  : 	m_GameEventManager.SetCenterPosition(kPPosMainActor.x, kPPosMainActor.y, kPPosMainActor.z);

  0014a	f3 0f 10 45 dc	 movss	 xmm0, DWORD PTR _kPPosMainActor$[ebp+8]
  0014f	8d 8b c8 01 00
	00		 lea	 ecx, DWORD PTR [ebx+456]
  00155	83 ec 0c	 sub	 esp, 12			; 0000000cH
  00158	f3 0f 11 44 24
	08		 movss	 DWORD PTR [esp+8], xmm0
  0015e	f3 0f 10 45 d8	 movss	 xmm0, DWORD PTR _kPPosMainActor$[ebp+4]
  00163	f3 0f 11 44 24
	04		 movss	 DWORD PTR [esp+4], xmm0
  00169	f3 0f 10 45 d4	 movss	 xmm0, DWORD PTR _kPPosMainActor$[ebp]
  0016e	f3 0f 11 04 24	 movss	 DWORD PTR [esp], xmm0
  00173	e8 00 00 00 00	 call	 ?SetCenterPosition@CGameEventManager@@QAEXMMM@Z ; CGameEventManager::SetCenterPosition

; 262  : 	m_GameEventManager.Update();

  00178	8d 8b c8 01 00
	00		 lea	 ecx, DWORD PTR [ebx+456]
  0017e	e8 00 00 00 00	 call	 ?Update@CGameEventManager@@QAEXXZ ; CGameEventManager::Update

; 263  : 
; 264  : 	m_kChrMgr.Update();

  00183	8d 8b c4 02 00
	00		 lea	 ecx, DWORD PTR [ebx+708]
  00189	e8 00 00 00 00	 call	 ?Update@CPythonCharacterManager@@QAEXXZ ; CPythonCharacterManager::Update

; 265  : 	m_kEftMgr.Update();

  0018e	8d 8b 9c 02 00
	00		 lea	 ecx, DWORD PTR [ebx+668]
  00194	e8 00 00 00 00	 call	 ?Update@CEffectManager@@QAEXXZ ; CEffectManager::Update

; 266  : 	m_kEftMgr.UpdateSound();

  00199	8d 8b 9c 02 00
	00		 lea	 ecx, DWORD PTR [ebx+668]
  0019f	e8 00 00 00 00	 call	 ?UpdateSound@CEffectManager@@QAEXXZ ; CEffectManager::UpdateSound

; 267  : 	m_FlyingManager.Update();

  001a4	8d 8b 64 01 00
	00		 lea	 ecx, DWORD PTR [ebx+356]
  001aa	e8 00 00 00 00	 call	 ?Update@CFlyingManager@@QAEXXZ ; CFlyingManager::Update

; 268  : 	m_pyItem.Update(ptMouse);

  001af	8d 45 e0	 lea	 eax, DWORD PTR _ptMouse$[ebp]
  001b2	50		 push	 eax
  001b3	8d 8b 34 3f 02
	00		 lea	 ecx, DWORD PTR [ebx+147252]
  001b9	e8 00 00 00 00	 call	 ?Update@CPythonItem@@QAEXABUtagPOINT@@@Z ; CPythonItem::Update

; 269  : 	m_pyPlayer.Update();

  001be	8d 8b b0 82 00
	00		 lea	 ecx, DWORD PTR [ebx+33456]
  001c4	e8 00 00 00 00	 call	 ?Update@CPythonPlayer@@QAEXXZ ; CPythonPlayer::Update

; 270  : 
; 271  : 	m_pyPlayer.NEW_GetMainActorPosition(&kPPosMainActor);

  001c9	8d 45 d4	 lea	 eax, DWORD PTR _kPPosMainActor$[ebp]
  001cc	50		 push	 eax
  001cd	e8 00 00 00 00	 call	 ?NEW_GetMainActorPosition@CPythonPlayer@@QAEXPAUD3DXVECTOR3@@@Z ; CPythonPlayer::NEW_GetMainActorPosition

; 272  : 	SetCenterPosition(kPPosMainActor.x, kPPosMainActor.y, kPPosMainActor.z);

  001d2	f3 0f 10 45 dc	 movss	 xmm0, DWORD PTR _kPPosMainActor$[ebp+8]
  001d7	8d 4b 20	 lea	 ecx, DWORD PTR [ebx+32]
  001da	8b 43 20	 mov	 eax, DWORD PTR [ebx+32]
  001dd	83 ec 0c	 sub	 esp, 12			; 0000000cH
  001e0	f3 0f 11 44 24
	08		 movss	 DWORD PTR [esp+8], xmm0
  001e6	f3 0f 10 45 d8	 movss	 xmm0, DWORD PTR _kPPosMainActor$[ebp+4]
  001eb	f3 0f 11 44 24
	04		 movss	 DWORD PTR [esp+4], xmm0
  001f1	f3 0f 10 45 d4	 movss	 xmm0, DWORD PTR _kPPosMainActor$[ebp]
  001f6	f3 0f 11 04 24	 movss	 DWORD PTR [esp], xmm0
  001fb	ff 50 18	 call	 DWORD PTR [eax+24]

; 273  : }

  001fe	8b 4d f4	 mov	 ecx, DWORD PTR __$EHRec$[ebp]
  00201	64 89 0d 00 00
	00 00		 mov	 DWORD PTR fs:0, ecx
  00208	59		 pop	 ecx
  00209	5f		 pop	 edi
  0020a	5e		 pop	 esi
  0020b	5b		 pop	 ebx
  0020c	8b e5		 mov	 esp, ebp
  0020e	5d		 pop	 ebp
  0020f	c3		 ret	 0
_TEXT	ENDS
;	COMDAT text$x
text$x	SEGMENT
__unwindfunclet$?UpdateGame@CPythonApplication@@QAEXXZ$0:
  00000	8d 4d f0	 lea	 ecx, DWORD PTR _s$6[ebp]
  00003	e9 00 00 00 00	 jmp	 ??1CScreen@@UAE@XZ	; CScreen::~CScreen
  00008	cc		 int	 3
  00009	cc		 int	 3
  0000a	cc		 int	 3
  0000b	cc		 int	 3
  0000c	cc		 int	 3
__ehhandler$?UpdateGame@CPythonApplication@@QAEXXZ:
  0000d	90		 npad	 1
  0000e	90		 npad	 1
  0000f	8b 54 24 08	 mov	 edx, DWORD PTR [esp+8]
  00013	8d 42 0c	 lea	 eax, DWORD PTR [edx+12]
  00016	8b 4a cc	 mov	 ecx, DWORD PTR [edx-52]
  00019	33 c8		 xor	 ecx, eax
  0001b	e8 00 00 00 00	 call	 @__security_check_cookie@4
  00020	b8 00 00 00 00	 mov	 eax, OFFSET __ehfuncinfo$?UpdateGame@CPythonApplication@@QAEXXZ
  00025	e9 00 00 00 00	 jmp	 ___CxxFrameHandler3
text$x	ENDS
?UpdateGame@CPythonApplication@@QAEXXZ ENDP		; CPythonApplication::UpdateGame
; Function compile flags: /Ogtp
; File C:\Anka2Project\Anka2Project\Source\Binary\source\UserInterface\PythonApplication.cpp
; File C:\Anka2Project\Anka2Project\Source\Binary\source\eterBase\Singleton.h
; File C:\Anka2Project\Anka2Project\Source\Binary\source\UserInterface\PythonApplication.cpp
; File C:\Anka2Project\Anka2Project\Source\Binary\source\eterBase\Singleton.h
; File C:\Anka2Project\Anka2Project\Source\Binary\source\UserInterface\PythonApplication.cpp
; File C:\Anka2Project\Anka2Project\Source\Binary\source\eterBase\Singleton.h
; File C:\Anka2Project\Anka2Project\Source\Binary\source\UserInterface\PythonApplication.cpp
; File C:\Anka2Project\Anka2Project\Source\Binary\source\eterBase\Singleton.h
; File C:\Anka2Project\Anka2Project\Source\Binary\source\UserInterface\PythonApplication.cpp
; File C:\Anka2Project\Anka2Project\Source\Binary\source\eterBase\Singleton.h
; File C:\Anka2Project\Anka2Project\Source\Binary\source\UserInterface\PythonApplication.cpp
; File C:\Anka2Project\Anka2Project\Source\Binary\source\eterBase\Singleton.h
; File C:\Anka2Project\Anka2Project\Source\Binary\source\UserInterface\PythonApplication.cpp
; File C:\Anka2Project\Anka2Project\Source\Binary\source\eterBase\Singleton.h
; File C:\Anka2Project\Anka2Project\Source\Binary\source\UserInterface\PythonApplication.cpp
; File C:\Anka2Project\Anka2Project\Source\Binary\source\eterBase\Singleton.h
; File C:\Anka2Project\Anka2Project\Source\Binary\source\UserInterface\PythonApplication.cpp
;	COMDAT ?Process@CPythonApplication@@QAE_NXZ
_TEXT	SEGMENT
_Point$ = -40						; size = 8
_dwStart$1$ = -32					; size = 4
_fCurRenderTime$1$ = -28				; size = 4
_fRatio$9 = -24						; size = 4
_dwRenderStartTime$1$ = -20				; size = 4
_dwCurFaceCount$1$ = -20				; size = 4
$T10 = -16						; size = 4
__$EHRec$ = -12						; size = 12
?Process@CPythonApplication@@QAE_NXZ PROC		; CPythonApplication::Process, COMDAT
; _this$ = ecx

; 286  : {

  00000	55		 push	 ebp
  00001	8b ec		 mov	 ebp, esp
  00003	6a ff		 push	 -1
  00005	68 00 00 00 00	 push	 __ehhandler$?Process@CPythonApplication@@QAE_NXZ
  0000a	64 a1 00 00 00
	00		 mov	 eax, DWORD PTR fs:0
  00010	50		 push	 eax
  00011	83 ec 1c	 sub	 esp, 28			; 0000001cH
  00014	53		 push	 ebx
  00015	56		 push	 esi
  00016	57		 push	 edi
  00017	a1 00 00 00 00	 mov	 eax, DWORD PTR ___security_cookie
  0001c	33 c5		 xor	 eax, ebp
  0001e	50		 push	 eax
  0001f	8d 45 f4	 lea	 eax, DWORD PTR __$EHRec$[ebp]
  00022	64 a3 00 00 00
	00		 mov	 DWORD PTR fs:0, eax
  00028	8b f1		 mov	 esi, ecx

; 287  : 	ELTimer_SetFrameMSec();

  0002a	e8 00 00 00 00	 call	 ?ELTimer_SetFrameMSec@@YAXXZ ; ELTimer_SetFrameMSec

; 288  : 
; 289  : 	DWORD dwStart = ELTimer_GetMSec();

  0002f	e8 00 00 00 00	 call	 ?ELTimer_GetMSec@@YAKXZ	; ELTimer_GetMSec

; 290  : 
; 291  : 	///////////////////////////////////////////////////////////////////////////////////////////////////
; 292  : 	static DWORD	s_dwUpdateFrameCount = 0;
; 293  : 	static DWORD	s_dwRenderFrameCount = 0;
; 294  : 	static DWORD	s_dwFaceCount = 0;
; 295  : 	static UINT		s_uiLoad = 0;
; 296  : 	static DWORD	s_dwCheckTime = ELTimer_GetMSec();

  00034	64 8b 0d 00 00
	00 00		 mov	 ecx, DWORD PTR fs:__tls_array
  0003b	89 45 e0	 mov	 DWORD PTR _dwStart$1$[ebp], eax
  0003e	8b 11		 mov	 edx, DWORD PTR [ecx]
  00040	8b 0d 00 00 00
	00		 mov	 ecx, DWORD PTR ?$TSS0@?1??Process@CPythonApplication@@QAE_NXZ@4HA
  00046	3b 8a 00 00 00
	00		 cmp	 ecx, DWORD PTR __Init_thread_epoch[edx]
  0004c	7e 3b		 jle	 SHORT $LN2@Process
  0004e	68 00 00 00 00	 push	 OFFSET ?$TSS0@?1??Process@CPythonApplication@@QAE_NXZ@4HA
  00053	e8 00 00 00 00	 call	 __Init_thread_header
  00058	83 c4 04	 add	 esp, 4
  0005b	83 3d 00 00 00
	00 ff		 cmp	 DWORD PTR ?$TSS0@?1??Process@CPythonApplication@@QAE_NXZ@4HA, -1
  00062	75 25		 jne	 SHORT $LN2@Process
  00064	c7 45 fc 00 00
	00 00		 mov	 DWORD PTR __$EHRec$[ebp+8], 0
  0006b	e8 00 00 00 00	 call	 ?ELTimer_GetMSec@@YAKXZ	; ELTimer_GetMSec
  00070	68 00 00 00 00	 push	 OFFSET ?$TSS0@?1??Process@CPythonApplication@@QAE_NXZ@4HA
  00075	a3 00 00 00 00	 mov	 DWORD PTR ?s_dwCheckTime@?1??Process@CPythonApplication@@QAE_NXZ@4KA, eax
  0007a	c7 45 fc ff ff
	ff ff		 mov	 DWORD PTR __$EHRec$[ebp+8], -1
  00081	e8 00 00 00 00	 call	 __Init_thread_footer
  00086	83 c4 04	 add	 esp, 4
$LN2@Process:

; 297  : 
; 298  : 	if (ELTimer_GetMSec() - s_dwCheckTime > 1000)

  00089	e8 00 00 00 00	 call	 ?ELTimer_GetMSec@@YAKXZ	; ELTimer_GetMSec
  0008e	2b 05 00 00 00
	00		 sub	 eax, DWORD PTR ?s_dwCheckTime@?1??Process@CPythonApplication@@QAE_NXZ@4KA
  00094	3d e8 03 00 00	 cmp	 eax, 1000		; 000003e8H
  00099	76 6d		 jbe	 SHORT $LN5@Process

; 299  : 	{
; 300  : 		m_dwUpdateFPS		= s_dwUpdateFrameCount;

  0009b	a1 00 00 00 00	 mov	 eax, DWORD PTR ?s_dwUpdateFrameCount@?1??Process@CPythonApplication@@QAE_NXZ@4KA

; 301  : 		m_dwRenderFPS		= s_dwRenderFrameCount;

  000a0	8b 0d 00 00 00
	00		 mov	 ecx, DWORD PTR ?s_dwRenderFrameCount@?1??Process@CPythonApplication@@QAE_NXZ@4KA
  000a6	89 86 a4 d7 03
	00		 mov	 DWORD PTR [esi+251812], eax

; 302  : 		m_dwLoad			= s_uiLoad;

  000ac	a1 00 00 00 00	 mov	 eax, DWORD PTR ?s_uiLoad@?1??Process@CPythonApplication@@QAE_NXZ@4IA
  000b1	89 86 c0 d6 03
	00		 mov	 DWORD PTR [esi+251584], eax

; 303  : 
; 304  : 		m_dwFaceCount		= s_dwFaceCount / max(1, s_dwRenderFrameCount);

  000b7	b8 01 00 00 00	 mov	 eax, 1
  000bc	3b c8		 cmp	 ecx, eax
  000be	89 8e a8 d7 03
	00		 mov	 DWORD PTR [esi+251816], ecx
  000c4	0f 42 c8	 cmovb	 ecx, eax
  000c7	a1 00 00 00 00	 mov	 eax, DWORD PTR ?s_dwFaceCount@?1??Process@CPythonApplication@@QAE_NXZ@4KA
  000cc	33 d2		 xor	 edx, edx
  000ce	f7 f1		 div	 ecx
  000d0	89 86 ac d7 03
	00		 mov	 DWORD PTR [esi+251820], eax

; 305  : 
; 306  : 		s_dwCheckTime		= ELTimer_GetMSec();

  000d6	e8 00 00 00 00	 call	 ?ELTimer_GetMSec@@YAKXZ	; ELTimer_GetMSec
  000db	a3 00 00 00 00	 mov	 DWORD PTR ?s_dwCheckTime@?1??Process@CPythonApplication@@QAE_NXZ@4KA, eax

; 307  : 
; 308  : 		s_uiLoad = s_dwFaceCount = s_dwUpdateFrameCount = s_dwRenderFrameCount = 0;

  000e0	c7 05 00 00 00
	00 00 00 00 00	 mov	 DWORD PTR ?s_dwRenderFrameCount@?1??Process@CPythonApplication@@QAE_NXZ@4KA, 0
  000ea	c7 05 00 00 00
	00 00 00 00 00	 mov	 DWORD PTR ?s_dwUpdateFrameCount@?1??Process@CPythonApplication@@QAE_NXZ@4KA, 0
  000f4	c7 05 00 00 00
	00 00 00 00 00	 mov	 DWORD PTR ?s_dwFaceCount@?1??Process@CPythonApplication@@QAE_NXZ@4KA, 0
  000fe	c7 05 00 00 00
	00 00 00 00 00	 mov	 DWORD PTR ?s_uiLoad@?1??Process@CPythonApplication@@QAE_NXZ@4IA, 0
$LN5@Process:

; 309  : 	}
; 310  : 
; 311  : 	// Update Time
; 312  : 	static BOOL s_bFrameSkip = false;
; 313  : 	static UINT s_uiNextFrameTime = ELTimer_GetMSec();

  00108	64 a1 00 00 00
	00		 mov	 eax, DWORD PTR fs:__tls_array
  0010e	8b 08		 mov	 ecx, DWORD PTR [eax]
  00110	a1 00 00 00 00	 mov	 eax, DWORD PTR ?$TSS1@?1??Process@CPythonApplication@@QAE_NXZ@4HA
  00115	3b 81 00 00 00
	00		 cmp	 eax, DWORD PTR __Init_thread_epoch[ecx]
  0011b	7e 3b		 jle	 SHORT $LN3@Process
  0011d	68 00 00 00 00	 push	 OFFSET ?$TSS1@?1??Process@CPythonApplication@@QAE_NXZ@4HA
  00122	e8 00 00 00 00	 call	 __Init_thread_header
  00127	83 c4 04	 add	 esp, 4
  0012a	83 3d 00 00 00
	00 ff		 cmp	 DWORD PTR ?$TSS1@?1??Process@CPythonApplication@@QAE_NXZ@4HA, -1
  00131	75 25		 jne	 SHORT $LN3@Process
  00133	c7 45 fc 01 00
	00 00		 mov	 DWORD PTR __$EHRec$[ebp+8], 1
  0013a	e8 00 00 00 00	 call	 ?ELTimer_GetMSec@@YAKXZ	; ELTimer_GetMSec
  0013f	68 00 00 00 00	 push	 OFFSET ?$TSS1@?1??Process@CPythonApplication@@QAE_NXZ@4HA
  00144	a3 00 00 00 00	 mov	 DWORD PTR ?s_uiNextFrameTime@?1??Process@CPythonApplication@@QAE_NXZ@4IA, eax
  00149	c7 45 fc ff ff
	ff ff		 mov	 DWORD PTR __$EHRec$[ebp+8], -1
  00150	e8 00 00 00 00	 call	 __Init_thread_footer
  00155	83 c4 04	 add	 esp, 4
$LN3@Process:
; File C:\Anka2Project\Anka2Project\Source\Binary\source\eterBase\Singleton.h

; 26   : 		assert(ms_singleton);

  00158	8b 3d 00 00 00
	00		 mov	 edi, DWORD PTR ?ms_singleton@?$CSingleton@VCTimer@@@@0PAVCTimer@@A ; CSingleton<CTimer>::ms_singleton
  0015e	85 ff		 test	 edi, edi
  00160	75 1a		 jne	 SHORT $LN48@Process
  00162	6a 1a		 push	 26			; 0000001aH
  00164	68 00 00 00 00	 push	 OFFSET ??_C@_1IO@CAJLEEOI@?$AAC?$AA?3?$AA?2?$AAA?$AAn?$AAk?$AAa?$AA2?$AAP?$AAr?$AAo?$AAj?$AAe?$AAc?$AAt@
  00169	68 00 00 00 00	 push	 OFFSET ??_C@_1BK@FMEHPMFE@?$AAm?$AAs?$AA_?$AAs?$AAi?$AAn?$AAg?$AAl?$AAe?$AAt?$AAo?$AAn@
  0016e	e8 00 00 00 00	 call	 __wassert
  00173	8b 3d 00 00 00
	00		 mov	 edi, DWORD PTR ?ms_singleton@?$CSingleton@VCTimer@@@@0PAVCTimer@@A ; CSingleton<CTimer>::ms_singleton
  00179	83 c4 0c	 add	 esp, 12			; 0000000cH
$LN48@Process:
; File C:\Anka2Project\Anka2Project\Source\Binary\source\UserInterface\PythonApplication.cpp

; 316  : 	rkTimer.Advance();

  0017c	8b cf		 mov	 ecx, edi
  0017e	e8 00 00 00 00	 call	 ?Advance@CTimer@@QAEXXZ	; CTimer::Advance

; 317  : 
; 318  : 	m_fGlobalTime = rkTimer.GetCurrentSecond();

  00183	8b cf		 mov	 ecx, edi
  00185	e8 00 00 00 00	 call	 ?GetCurrentSecond@CTimer@@QAEMXZ ; CTimer::GetCurrentSecond
  0018a	d9 9e dc d6 03
	00		 fstp	 DWORD PTR [esi+251612]

; 319  : 	m_fGlobalElapsedTime = rkTimer.GetElapsedSecond();

  00190	8b cf		 mov	 ecx, edi
  00192	e8 00 00 00 00	 call	 ?GetElapsedSecond@CTimer@@QAEMXZ ; CTimer::GetElapsedSecond

; 320  : 
; 321  : 	UINT uiFrameTime = rkTimer.GetElapsedMilliecond();

  00197	8b cf		 mov	 ecx, edi
  00199	d9 9e e0 d6 03
	00		 fstp	 DWORD PTR [esi+251616]
  0019f	e8 00 00 00 00	 call	 ?GetElapsedMilliecond@CTimer@@QAEKXZ ; CTimer::GetElapsedMilliecond
  001a4	8b f8		 mov	 edi, eax

; 322  : 	s_uiNextFrameTime += uiFrameTime;

  001a6	01 3d 00 00 00
	00		 add	 DWORD PTR ?s_uiNextFrameTime@?1??Process@CPythonApplication@@QAE_NXZ@4IA, edi

; 323  : 
; 324  : 	DWORD updatestart = ELTimer_GetMSec();

  001ac	e8 00 00 00 00	 call	 ?ELTimer_GetMSec@@YAKXZ	; ELTimer_GetMSec

; 325  : 	// Network I/O
; 326  : 	m_pyNetworkStream.Process();

  001b1	8d 8e 28 08 00
	00		 lea	 ecx, DWORD PTR [esi+2088]
  001b7	8b d8		 mov	 ebx, eax
  001b9	e8 00 00 00 00	 call	 ?Process@CNetworkStream@@QAEXXZ ; CNetworkStream::Process

; 327  : 	//m_pyNetworkDatagram.Process();
; 328  : 
; 329  : 	m_kGuildMarkUploader.Process();

  001be	8d 8e 38 a6 03
	00		 lea	 ecx, DWORD PTR [esi+239160]
  001c4	e8 00 00 00 00	 call	 ?Process@CGuildMarkUploader@@QAEXXZ ; CGuildMarkUploader::Process

; 330  : 
; 331  : 	m_kGuildMarkDownloader.Process();

  001c9	8d 8e 88 a5 03
	00		 lea	 ecx, DWORD PTR [esi+238984]
  001cf	e8 00 00 00 00	 call	 ?Process@CGuildMarkDownloader@@QAEXXZ ; CGuildMarkDownloader::Process

; 332  : 	m_kAccountConnector.Process();

  001d4	8d 8e e0 a9 03
	00		 lea	 ecx, DWORD PTR [esi+240096]
  001da	e8 00 00 00 00	 call	 ?Process@CAccountConnector@@QAEXXZ ; CAccountConnector::Process

; 333  : 
; 334  : 	//////////////////////
; 335  : 	// Input Process
; 336  : 	// Keyboard
; 337  : 	UpdateKeyboard();

  001df	8d 4e 1c	 lea	 ecx, DWORD PTR [esi+28]
  001e2	e8 00 00 00 00	 call	 ?UpdateKeyboard@CInputKeyboard@@QAEXXZ ; CInputKeyboard::UpdateKeyboard

; 338  : 
; 339  : 	// Mouse
; 340  : 	POINT Point;
; 341  : 	if (GetCursorPos(&Point))

  001e7	8d 45 d8	 lea	 eax, DWORD PTR _Point$[ebp]
  001ea	50		 push	 eax
  001eb	ff 15 00 00 00
	00		 call	 DWORD PTR __imp__GetCursorPos@4
  001f1	85 c0		 test	 eax, eax
  001f3	74 1a		 je	 SHORT $LN6@Process

; 342  : 	{
; 343  : 		ScreenToClient(m_hWnd, &Point);

  001f5	8d 45 d8	 lea	 eax, DWORD PTR _Point$[ebp]
  001f8	50		 push	 eax
  001f9	ff 76 04	 push	 DWORD PTR [esi+4]
  001fc	ff 15 00 00 00
	00		 call	 DWORD PTR __imp__ScreenToClient@8

; 344  : 		OnMouseMove(Point.x, Point.y);

  00202	ff 75 dc	 push	 DWORD PTR _Point$[ebp+4]
  00205	8b ce		 mov	 ecx, esi
  00207	ff 75 d8	 push	 DWORD PTR _Point$[ebp]
  0020a	e8 00 00 00 00	 call	 ?OnMouseMove@CPythonApplication@@IAEXHH@Z ; CPythonApplication::OnMouseMove
$LN6@Process:

; 345  : 	}
; 346  : 	//////////////////////
; 347  : 	//if (m_isActivateWnd)
; 348  : 	__UpdateCamera();

  0020f	8b ce		 mov	 ecx, esi
  00211	e8 00 00 00 00	 call	 ?__UpdateCamera@CPythonApplication@@IAEXXZ ; CPythonApplication::__UpdateCamera
; File C:\Anka2Project\Anka2Project\Source\Binary\source\eterBase\Singleton.h

; 26   : 		assert(ms_singleton);

  00216	8b 0d 00 00 00
	00		 mov	 ecx, DWORD PTR ?ms_singleton@?$CSingleton@VCResourceManager@@@@0PAVCResourceManager@@A ; CSingleton<CResourceManager>::ms_singleton
  0021c	85 c9		 test	 ecx, ecx
  0021e	75 1a		 jne	 SHORT $LN51@Process
  00220	6a 1a		 push	 26			; 0000001aH
  00222	68 00 00 00 00	 push	 OFFSET ??_C@_1IO@CAJLEEOI@?$AAC?$AA?3?$AA?2?$AAA?$AAn?$AAk?$AAa?$AA2?$AAP?$AAr?$AAo?$AAj?$AAe?$AAc?$AAt@
  00227	68 00 00 00 00	 push	 OFFSET ??_C@_1BK@FMEHPMFE@?$AAm?$AAs?$AA_?$AAs?$AAi?$AAn?$AAg?$AAl?$AAe?$AAt?$AAo?$AAn@
  0022c	e8 00 00 00 00	 call	 __wassert
  00231	8b 0d 00 00 00
	00		 mov	 ecx, DWORD PTR ?ms_singleton@?$CSingleton@VCResourceManager@@@@0PAVCResourceManager@@A ; CSingleton<CResourceManager>::ms_singleton
  00237	83 c4 0c	 add	 esp, 12			; 0000000cH
$LN51@Process:
; File C:\Anka2Project\Anka2Project\Source\Binary\source\UserInterface\PythonApplication.cpp

; 350  : 	CResourceManager::Instance().Update();

  0023a	e8 00 00 00 00	 call	 ?Update@CResourceManager@@QAEXXZ ; CResourceManager::Update

; 351  : 	OnCameraUpdate();

  0023f	8b ce		 mov	 ecx, esi
  00241	e8 00 00 00 00	 call	 ?OnCameraUpdate@CPythonApplication@@IAEXXZ ; CPythonApplication::OnCameraUpdate

; 352  : 	OnMouseUpdate();

  00246	8b ce		 mov	 ecx, esi
  00248	e8 00 00 00 00	 call	 ?OnMouseUpdate@CPythonApplication@@IAEXXZ ; CPythonApplication::OnMouseUpdate

; 353  : 	OnUIUpdate();

  0024d	e8 00 00 00 00	 call	 ?OnUIUpdate@CPythonApplication@@IAEXXZ ; CPythonApplication::OnUIUpdate

; 354  : 
; 355  : 	m_dwCurUpdateTime = ELTimer_GetMSec() - updatestart;

  00252	e8 00 00 00 00	 call	 ?ELTimer_GetMSec@@YAKXZ	; ELTimer_GetMSec
  00257	2b c3		 sub	 eax, ebx
  00259	89 86 bc d6 03
	00		 mov	 DWORD PTR [esi+251580], eax

; 356  : 
; 357  : 	DWORD dwCurrentTime = ELTimer_GetMSec();

  0025f	e8 00 00 00 00	 call	 ?ELTimer_GetMSec@@YAKXZ	; ELTimer_GetMSec

; 358  : 	BOOL  bCurrentLateUpdate = FALSE;
; 359  : 
; 360  : 	s_bFrameSkip = false;
; 361  : 
; 362  : 	if (dwCurrentTime > s_uiNextFrameTime)

  00264	8b 0d 00 00 00
	00		 mov	 ecx, DWORD PTR ?s_uiNextFrameTime@?1??Process@CPythonApplication@@QAE_NXZ@4IA
  0026a	33 db		 xor	 ebx, ebx
  0026c	89 5d f0	 mov	 DWORD PTR $T10[ebp], ebx
  0026f	89 1d 00 00 00
	00		 mov	 DWORD PTR ?s_bFrameSkip@?1??Process@CPythonApplication@@QAE_NXZ@4HA, ebx
  00275	3b c1		 cmp	 eax, ecx
  00277	0f 86 86 00 00
	00		 jbe	 $LN7@Process

; 363  : 	{
; 364  : 		int dt = dwCurrentTime - s_uiNextFrameTime;

  0027d	66 0f 6e c7	 movd	 xmm0, edi
  00281	2b c1		 sub	 eax, ecx

; 365  : 		int nAdjustTime = ((float)dt / (float)uiFrameTime) * uiFrameTime;

  00283	f3 0f e6 c0	 cvtdq2pd xmm0, xmm0
  00287	c1 ef 1f	 shr	 edi, 31			; 0000001fH
  0028a	f2 0f 58 04 fd
	00 00 00 00	 addsd	 xmm0, QWORD PTR __xmm@41f00000000000000000000000000000[edi*8]
  00293	66 0f 5a c8	 cvtpd2ps xmm1, xmm0
  00297	66 0f 6e c0	 movd	 xmm0, eax
  0029b	0f 5b c0	 cvtdq2ps xmm0, xmm0
  0029e	f3 0f 5e c1	 divss	 xmm0, xmm1
  002a2	f3 0f 59 c1	 mulss	 xmm0, xmm1
  002a6	f3 0f 2c f8	 cvttss2si edi, xmm0

; 366  : 
; 367  : 		if ( dt >= 500 )

  002aa	3d f4 01 00 00	 cmp	 eax, 500		; 000001f4H
  002af	7c 40		 jl	 SHORT $LN8@Process

; 368  : 		{
; 369  : 			s_uiNextFrameTime += nAdjustTime;

  002b1	03 cf		 add	 ecx, edi

; 370  : 			printf("FrameSkip Adjusting... %d\n",nAdjustTime);

  002b3	57		 push	 edi
  002b4	68 00 00 00 00	 push	 OFFSET ??_C@_0BL@GHJOJKGG@FrameSkip?5Adjusting?4?4?4?5?$CFd?6@
  002b9	89 0d 00 00 00
	00		 mov	 DWORD PTR ?s_uiNextFrameTime@?1??Process@CPythonApplication@@QAE_NXZ@4IA, ecx
  002bf	e8 00 00 00 00	 call	 _printf
; File C:\Anka2Project\Anka2Project\Source\Binary\source\eterBase\Singleton.h

; 26   : 		assert(ms_singleton);

  002c4	8b 0d 00 00 00
	00		 mov	 ecx, DWORD PTR ?ms_singleton@?$CSingleton@VCTimer@@@@0PAVCTimer@@A ; CSingleton<CTimer>::ms_singleton
; File C:\Anka2Project\Anka2Project\Source\Binary\source\UserInterface\PythonApplication.cpp

; 370  : 			printf("FrameSkip Adjusting... %d\n",nAdjustTime);

  002ca	83 c4 08	 add	 esp, 8
; File C:\Anka2Project\Anka2Project\Source\Binary\source\eterBase\Singleton.h

; 26   : 		assert(ms_singleton);

  002cd	85 c9		 test	 ecx, ecx
  002cf	75 1a		 jne	 SHORT $LN54@Process
  002d1	6a 1a		 push	 26			; 0000001aH
  002d3	68 00 00 00 00	 push	 OFFSET ??_C@_1IO@CAJLEEOI@?$AAC?$AA?3?$AA?2?$AAA?$AAn?$AAk?$AAa?$AA2?$AAP?$AAr?$AAo?$AAj?$AAe?$AAc?$AAt@
  002d8	68 00 00 00 00	 push	 OFFSET ??_C@_1BK@FMEHPMFE@?$AAm?$AAs?$AA_?$AAs?$AAi?$AAn?$AAg?$AAl?$AAe?$AAt?$AAo?$AAn@
  002dd	e8 00 00 00 00	 call	 __wassert
  002e2	8b 0d 00 00 00
	00		 mov	 ecx, DWORD PTR ?ms_singleton@?$CSingleton@VCTimer@@@@0PAVCTimer@@A ; CSingleton<CTimer>::ms_singleton
  002e8	83 c4 0c	 add	 esp, 12			; 0000000cH
$LN54@Process:
; File C:\Anka2Project\Anka2Project\Source\Binary\source\UserInterface\PythonApplication.cpp

; 371  : 			CTimer::Instance().Adjust(nAdjustTime);

  002eb	57		 push	 edi
  002ec	e8 00 00 00 00	 call	 ?Adjust@CTimer@@QAEXH@Z	; CTimer::Adjust
$LN8@Process:

; 372  : 		}
; 373  : 
; 374  : 		s_bFrameSkip = true;
; 375  : 		bCurrentLateUpdate = TRUE;

  002f1	bb 01 00 00 00	 mov	 ebx, 1
  002f6	c7 05 00 00 00
	00 01 00 00 00	 mov	 DWORD PTR ?s_bFrameSkip@?1??Process@CPythonApplication@@QAE_NXZ@4HA, 1
  00300	89 5d f0	 mov	 DWORD PTR $T10[ebp], ebx
$LN7@Process:

; 376  : 	}
; 377  : 
; 378  : 	if (m_isFrameSkipDisable)

  00303	80 be d1 d7 03
	00 00		 cmp	 BYTE PTR [esi+251857], 0
  0030a	74 0c		 je	 SHORT $LN9@Process

; 379  : 		s_bFrameSkip = false;

  0030c	c7 05 00 00 00
	00 00 00 00 00	 mov	 DWORD PTR ?s_bFrameSkip@?1??Process@CPythonApplication@@QAE_NXZ@4HA, 0

; 442  : 		{
; 443  : 			SkipRenderBuffering(3000);

  00316	eb 08		 jmp	 SHORT $LN69@Process
$LN9@Process:

; 380  : 
; 381  : 	if (!s_bFrameSkip)

  00318	85 db		 test	 ebx, ebx
  0031a	0f 85 51 04 00
	00		 jne	 $LN19@Process
$LN69@Process:
  00320	f2 0f 10 05 00
	00 00 00	 movsd	 xmm0, QWORD PTR ?g_specularSpd@@3NA

; 382  : 	{
; 383  : 		CGrannyMaterial::TranslateSpecularMatrix(g_specularSpd, g_specularSpd, 0.0f);

  00328	83 ec 0c	 sub	 esp, 12			; 0000000cH
  0032b	66 0f 5a c0	 cvtpd2ps xmm0, xmm0
  0032f	c7 44 24 08 00
	00 00 00	 mov	 DWORD PTR [esp+8], 0
  00337	f3 0f 11 44 24
	04		 movss	 DWORD PTR [esp+4], xmm0
  0033d	f3 0f 11 04 24	 movss	 DWORD PTR [esp], xmm0
  00342	e8 00 00 00 00	 call	 ?TranslateSpecularMatrix@CGrannyMaterial@@SAXMMM@Z ; CGrannyMaterial::TranslateSpecularMatrix
  00347	83 c4 0c	 add	 esp, 12			; 0000000cH

; 384  : 
; 385  : 		DWORD dwRenderStartTime = ELTimer_GetMSec();

  0034a	e8 00 00 00 00	 call	 ?ELTimer_GetMSec@@YAKXZ	; ELTimer_GetMSec

; 386  : 
; 387  : 		bool canRender = true;
; 388  : 
; 389  : 		if (m_isMinimizedWnd)

  0034f	80 be f0 d7 03
	00 00		 cmp	 BYTE PTR [esi+251888], 0
  00356	b3 01		 mov	 bl, 1
  00358	89 45 ec	 mov	 DWORD PTR _dwRenderStartTime$1$[ebp], eax
  0035b	0f 85 a0 00 00
	00		 jne	 $LN14@Process

; 390  : 		{
; 391  : 			canRender = false;
; 392  : 		}
; 393  : 		else
; 394  : 		{
; 395  : #ifdef ENABLE_FIX_MOBS_LAG
; 396  : 			if (DEVICE_STATE_OK != CheckDeviceState())

  00361	8b ce		 mov	 ecx, esi
  00363	e8 00 00 00 00	 call	 ?CheckDeviceState@CPythonApplication@@IAEHXZ ; CPythonApplication::CheckDeviceState
  00368	83 f8 02	 cmp	 eax, 2
  0036b	0f 84 92 00 00
	00		 je	 $LN15@Process
; File C:\Anka2Project\Anka2Project\Source\Binary\source\eterBase\Singleton.h

; 26   : 		assert(ms_singleton);

  00371	8b 3d 00 00 00
	00		 mov	 edi, DWORD PTR ?ms_singleton@?$CSingleton@VCPythonBackground@@@@0PAVCPythonBackground@@A ; CSingleton<CPythonBackground>::ms_singleton
; File C:\Anka2Project\Anka2Project\Source\Binary\source\UserInterface\PythonApplication.cpp

; 398  : 				canRender = false;

  00377	32 db		 xor	 bl, bl
; File C:\Anka2Project\Anka2Project\Source\Binary\source\eterBase\Singleton.h

; 26   : 		assert(ms_singleton);

  00379	85 ff		 test	 edi, edi
  0037b	75 1a		 jne	 SHORT $LN57@Process
  0037d	6a 1a		 push	 26			; 0000001aH
  0037f	68 00 00 00 00	 push	 OFFSET ??_C@_1IO@CAJLEEOI@?$AAC?$AA?3?$AA?2?$AAA?$AAn?$AAk?$AAa?$AA2?$AAP?$AAr?$AAo?$AAj?$AAe?$AAc?$AAt@
  00384	68 00 00 00 00	 push	 OFFSET ??_C@_1BK@FMEHPMFE@?$AAm?$AAs?$AA_?$AAs?$AAi?$AAn?$AAg?$AAl?$AAe?$AAt?$AAo?$AAn@
  00389	e8 00 00 00 00	 call	 __wassert
  0038e	8b 3d 00 00 00
	00		 mov	 edi, DWORD PTR ?ms_singleton@?$CSingleton@VCPythonBackground@@@@0PAVCPythonBackground@@A ; CSingleton<CPythonBackground>::ms_singleton
  00394	83 c4 0c	 add	 esp, 12			; 0000000cH
$LN57@Process:
  00397	8b 0d 00 00 00
	00		 mov	 ecx, DWORD PTR ?ms_singleton@?$CSingleton@VCRenderTargetManager@@@@0PAVCRenderTargetManager@@A ; CSingleton<CRenderTargetManager>::ms_singleton
  0039d	85 c9		 test	 ecx, ecx
  0039f	75 1a		 jne	 SHORT $LN60@Process
  003a1	6a 1a		 push	 26			; 0000001aH
  003a3	68 00 00 00 00	 push	 OFFSET ??_C@_1IO@CAJLEEOI@?$AAC?$AA?3?$AA?2?$AAA?$AAn?$AAk?$AAa?$AA2?$AAP?$AAr?$AAo?$AAj?$AAe?$AAc?$AAt@
  003a8	68 00 00 00 00	 push	 OFFSET ??_C@_1BK@FMEHPMFE@?$AAm?$AAs?$AA_?$AAs?$AAi?$AAn?$AAg?$AAl?$AAe?$AAt?$AAo?$AAn@
  003ad	e8 00 00 00 00	 call	 __wassert
  003b2	8b 0d 00 00 00
	00		 mov	 ecx, DWORD PTR ?ms_singleton@?$CSingleton@VCRenderTargetManager@@@@0PAVCRenderTargetManager@@A ; CSingleton<CRenderTargetManager>::ms_singleton
  003b8	83 c4 0c	 add	 esp, 12			; 0000000cH
$LN60@Process:
; File C:\Anka2Project\Anka2Project\Source\Binary\source\UserInterface\PythonApplication.cpp

; 402  : 				CRenderTargetManager::Instance().ReleaseRenderTargetTextures();

  003bb	e8 00 00 00 00	 call	 ?ReleaseRenderTargetTextures@CRenderTargetManager@@QAEXXZ ; CRenderTargetManager::ReleaseRenderTargetTextures

; 403  : #endif
; 404  : 
; 405  : 				if (m_pyGraphic.RestoreDevice())

  003c0	8d 8e 84 07 00
	00		 lea	 ecx, DWORD PTR [esi+1924]
  003c6	e8 00 00 00 00	 call	 ?RestoreDevice@CScreen@@QAEHXZ ; CScreen::RestoreDevice
  003cb	85 c0		 test	 eax, eax
  003cd	74 32		 je	 SHORT $LN14@Process
; File C:\Anka2Project\Anka2Project\Source\Binary\source\eterBase\Singleton.h

; 26   : 		assert(ms_singleton);

  003cf	8b 0d 00 00 00
	00		 mov	 ecx, DWORD PTR ?ms_singleton@?$CSingleton@VCRenderTargetManager@@@@0PAVCRenderTargetManager@@A ; CSingleton<CRenderTargetManager>::ms_singleton
  003d5	85 c9		 test	 ecx, ecx
  003d7	75 1a		 jne	 SHORT $LN63@Process
  003d9	6a 1a		 push	 26			; 0000001aH
  003db	68 00 00 00 00	 push	 OFFSET ??_C@_1IO@CAJLEEOI@?$AAC?$AA?3?$AA?2?$AAA?$AAn?$AAk?$AAa?$AA2?$AAP?$AAr?$AAo?$AAj?$AAe?$AAc?$AAt@
  003e0	68 00 00 00 00	 push	 OFFSET ??_C@_1BK@FMEHPMFE@?$AAm?$AAs?$AA_?$AAs?$AAi?$AAn?$AAg?$AAl?$AAe?$AAt?$AAo?$AAn@
  003e5	e8 00 00 00 00	 call	 __wassert
  003ea	8b 0d 00 00 00
	00		 mov	 ecx, DWORD PTR ?ms_singleton@?$CSingleton@VCRenderTargetManager@@@@0PAVCRenderTargetManager@@A ; CSingleton<CRenderTargetManager>::ms_singleton
  003f0	83 c4 0c	 add	 esp, 12			; 0000000cH
$LN63@Process:
; File C:\Anka2Project\Anka2Project\Source\Binary\source\UserInterface\PythonApplication.cpp

; 408  : 					CRenderTargetManager::Instance().CreateRenderTargetTextures();

  003f3	e8 00 00 00 00	 call	 ?CreateRenderTargetTextures@CRenderTargetManager@@QAEXXZ ; CRenderTargetManager::CreateRenderTargetTextures

; 409  : #endif
; 410  : 					rkBG.CreateCharacterShadowTexture();

  003f8	8b cf		 mov	 ecx, edi
  003fa	e8 00 00 00 00	 call	 ?CreateCharacterShadowTexture@CPythonBackground@@QAEXXZ ; CPythonBackground::CreateCharacterShadowTexture

; 411  : 				}

  003ff	eb 02		 jmp	 SHORT $LN15@Process
$LN14@Process:

; 412  : 				else
; 413  : 				{
; 414  : 					canRender = false;
; 415  : 				}
; 416  : 			}
; 417  : #else
; 418  : 			if (m_pyGraphic.IsLostDevice())
; 419  : 			{
; 420  : 				CPythonBackground& rkBG = CPythonBackground::Instance();
; 421  : 				rkBG.ReleaseCharacterShadowTexture();
; 422  : #ifdef ENABLE_RENDER_TARGET
; 423  : 				CRenderTargetManager::Instance().ReleaseRenderTargetTextures();
; 424  : #endif
; 425  : 
; 426  : 				if (m_pyGraphic.RestoreDevice())
; 427  : 				{
; 428  : #ifdef ENABLE_RENDER_TARGET
; 429  : 					CRenderTargetManager::Instance().CreateRenderTargetTextures();
; 430  : #endif
; 431  : 					rkBG.CreateCharacterShadowTexture();
; 432  : 				}
; 433  : 				else
; 434  : 				{
; 435  : 					canRender = false;
; 436  : 				}
; 437  : 			}
; 438  : #endif
; 439  : 		}
; 440  : 
; 441  : 		if (!IsActive())

  00401	32 db		 xor	 bl, bl
$LN15@Process:
  00403	8b ce		 mov	 ecx, esi
  00405	e8 00 00 00 00	 call	 ?IsActive@CMSWindow@@QAE_NXZ ; CMSWindow::IsActive
  0040a	8d 7e 20	 lea	 edi, DWORD PTR [esi+32]
  0040d	84 c0		 test	 al, al
  0040f	75 0c		 jne	 SHORT $LN16@Process

; 442  : 		{
; 443  : 			SkipRenderBuffering(3000);

  00411	8b 07		 mov	 eax, DWORD PTR [edi]
  00413	8b cf		 mov	 ecx, edi
  00415	68 b8 0b 00 00	 push	 3000			; 00000bb8H
  0041a	ff 50 10	 call	 DWORD PTR [eax+16]
$LN16@Process:

; 444  : 		}
; 445  : 
; 446  : 		if (!canRender)

  0041d	84 db		 test	 bl, bl
  0041f	75 11		 jne	 SHORT $LN17@Process

; 447  : 		{
; 448  : 			SkipRenderBuffering(3000);

  00421	8b 07		 mov	 eax, DWORD PTR [edi]
  00423	8b cf		 mov	 ecx, edi
  00425	68 b8 0b 00 00	 push	 3000			; 00000bb8H
  0042a	ff 50 10	 call	 DWORD PTR [eax+16]

; 449  : 		}

  0042d	e9 3c 03 00 00	 jmp	 $LN70@Process
$LN17@Process:
; File C:\Anka2Project\Anka2Project\Source\Binary\source\eterBase\Singleton.h

; 26   : 		assert(ms_singleton);

  00432	8b 0d 00 00 00
	00		 mov	 ecx, DWORD PTR ?ms_singleton@?$CSingleton@VCCullingManager@@@@0PAVCCullingManager@@A ; CSingleton<CCullingManager>::ms_singleton
  00438	85 c9		 test	 ecx, ecx
  0043a	75 1a		 jne	 SHORT $LN66@Process
  0043c	6a 1a		 push	 26			; 0000001aH
  0043e	68 00 00 00 00	 push	 OFFSET ??_C@_1IO@CAJLEEOI@?$AAC?$AA?3?$AA?2?$AAA?$AAn?$AAk?$AAa?$AA2?$AAP?$AAr?$AAo?$AAj?$AAe?$AAc?$AAt@
  00443	68 00 00 00 00	 push	 OFFSET ??_C@_1BK@FMEHPMFE@?$AAm?$AAs?$AA_?$AAs?$AAi?$AAn?$AAg?$AAl?$AAe?$AAt?$AAo?$AAn@
  00448	e8 00 00 00 00	 call	 __wassert
  0044d	8b 0d 00 00 00
	00		 mov	 ecx, DWORD PTR ?ms_singleton@?$CSingleton@VCCullingManager@@@@0PAVCCullingManager@@A ; CSingleton<CCullingManager>::ms_singleton
  00453	83 c4 0c	 add	 esp, 12			; 0000000cH
$LN66@Process:
; File C:\Anka2Project\Anka2Project\Source\Binary\source\UserInterface\PythonApplication.cpp

; 452  : 			CCullingManager::Instance().Update();

  00456	e8 00 00 00 00	 call	 ?Update@CCullingManager@@QAEXXZ ; CCullingManager::Update

; 453  : 			if (m_pyGraphic.Begin())

  0045b	8d be 84 07 00
	00		 lea	 edi, DWORD PTR [esi+1924]
  00461	8b cf		 mov	 ecx, edi
  00463	e8 00 00 00 00	 call	 ?Begin@CScreen@@QAE_NXZ	; CScreen::Begin
  00468	84 c0		 test	 al, al
  0046a	0f 84 fe 02 00
	00		 je	 $LN70@Process

; 454  : 			{
; 455  : 
; 456  : 				m_pyGraphic.ClearDepthBuffer();

  00470	8b cf		 mov	 ecx, edi
  00472	e8 00 00 00 00	 call	 ?ClearDepthBuffer@CScreen@@QAEXXZ ; CScreen::ClearDepthBuffer

; 457  : 
; 458  : #ifdef _DEBUG
; 459  : 				m_pyGraphic.SetClearColor(0.3f, 0.3f, 0.3f);
; 460  : 				m_pyGraphic.Clear();
; 461  : #endif
; 462  : 
; 463  : 				/////////////////////
; 464  : 				// Interface
; 465  : 				m_pyGraphic.SetInterfaceRenderState();

  00477	8b cf		 mov	 ecx, edi
  00479	e8 00 00 00 00	 call	 ?SetInterfaceRenderState@CPythonGraphic@@QAEXXZ ; CPythonGraphic::SetInterfaceRenderState

; 466  : 
; 467  : 				OnUIRender();

  0047e	e8 00 00 00 00	 call	 ?OnUIRender@CPythonApplication@@IAEXXZ ; CPythonApplication::OnUIRender

; 468  : 				OnMouseRender();

  00483	8b ce		 mov	 ecx, esi
  00485	e8 00 00 00 00	 call	 ?OnMouseRender@CPythonApplication@@IAEXXZ ; CPythonApplication::OnMouseRender

; 469  : 				/////////////////////
; 470  : 
; 471  : 				m_pyGraphic.End();

  0048a	8b cf		 mov	 ecx, edi
  0048c	e8 00 00 00 00	 call	 ?End@CScreen@@QAEXXZ	; CScreen::End

; 472  : 
; 473  : 				//DWORD t1 = ELTimer_GetMSec();
; 474  : 				m_pyGraphic.Show();

  00491	6a 00		 push	 0
  00493	8b cf		 mov	 ecx, edi
  00495	e8 00 00 00 00	 call	 ?Show@CScreen@@QAEXPAUHWND__@@@Z ; CScreen::Show

; 475  : 				//DWORD t2 = ELTimer_GetMSec();
; 476  : 
; 477  : 				DWORD dwRenderEndTime = ELTimer_GetMSec();

  0049a	e8 00 00 00 00	 call	 ?ELTimer_GetMSec@@YAKXZ	; ELTimer_GetMSec

; 478  : 
; 479  : 				static DWORD s_dwRenderCheckTime = dwRenderEndTime;

  0049f	64 8b 0d 00 00
	00 00		 mov	 ecx, DWORD PTR fs:__tls_array
  004a6	8b d8		 mov	 ebx, eax
  004a8	8b 11		 mov	 edx, DWORD PTR [ecx]
  004aa	8b 0d 00 00 00
	00		 mov	 ecx, DWORD PTR ?$TSS2@?CL@??Process@CPythonApplication@@QAE_NXZ@4HA
  004b0	3b 8a 00 00 00
	00		 cmp	 ecx, DWORD PTR __Init_thread_epoch[edx]
  004b6	7e 29		 jle	 SHORT $LN4@Process
  004b8	68 00 00 00 00	 push	 OFFSET ?$TSS2@?CL@??Process@CPythonApplication@@QAE_NXZ@4HA
  004bd	e8 00 00 00 00	 call	 __Init_thread_header
  004c2	83 c4 04	 add	 esp, 4
  004c5	83 3d 00 00 00
	00 ff		 cmp	 DWORD PTR ?$TSS2@?CL@??Process@CPythonApplication@@QAE_NXZ@4HA, -1
  004cc	75 13		 jne	 SHORT $LN4@Process
  004ce	68 00 00 00 00	 push	 OFFSET ?$TSS2@?CL@??Process@CPythonApplication@@QAE_NXZ@4HA
  004d3	89 1d 00 00 00
	00		 mov	 DWORD PTR ?s_dwRenderCheckTime@?CL@??Process@CPythonApplication@@QAE_NXZ@4KA, ebx
  004d9	e8 00 00 00 00	 call	 __Init_thread_footer
  004de	83 c4 04	 add	 esp, 4
$LN4@Process:

; 480  : 				static DWORD s_dwRenderRangeTime = 0;
; 481  : 				static DWORD s_dwRenderRangeFrame = 0;
; 482  : 
; 483  : 				m_dwCurRenderTime = dwRenderEndTime - dwRenderStartTime;			
; 484  : 				s_dwRenderRangeTime += m_dwCurRenderTime;				
; 485  : 				++s_dwRenderRangeFrame;			

  004e1	8b 15 00 00 00
	00		 mov	 edx, DWORD PTR ?s_dwRenderRangeFrame@?CL@??Process@CPythonApplication@@QAE_NXZ@4KA
  004e7	8b cb		 mov	 ecx, ebx
  004e9	2b 4d ec	 sub	 ecx, DWORD PTR _dwRenderStartTime$1$[ebp]

; 486  : 
; 487  : 				if (dwRenderEndTime-s_dwRenderCheckTime>1000)

  004ec	8b c3		 mov	 eax, ebx
  004ee	2b 05 00 00 00
	00		 sub	 eax, DWORD PTR ?s_dwRenderCheckTime@?CL@??Process@CPythonApplication@@QAE_NXZ@4KA
  004f4	42		 inc	 edx
  004f5	89 8e b8 d6 03
	00		 mov	 DWORD PTR [esi+251576], ecx
  004fb	03 0d 00 00 00
	00		 add	 ecx, DWORD PTR ?s_dwRenderRangeTime@?CL@??Process@CPythonApplication@@QAE_NXZ@4KA
  00501	89 0d 00 00 00
	00		 mov	 DWORD PTR ?s_dwRenderRangeTime@?CL@??Process@CPythonApplication@@QAE_NXZ@4KA, ecx
  00507	89 15 00 00 00
	00		 mov	 DWORD PTR ?s_dwRenderRangeFrame@?CL@??Process@CPythonApplication@@QAE_NXZ@4KA, edx
  0050d	3d e8 03 00 00	 cmp	 eax, 1000		; 000003e8H
  00512	76 56		 jbe	 SHORT $LN20@Process

; 488  : 				{
; 489  : 					m_fAveRenderTime=float(double(s_dwRenderRangeTime)/double(s_dwRenderRangeFrame));

  00514	66 0f 6e c9	 movd	 xmm1, ecx
  00518	66 0f 6e c2	 movd	 xmm0, edx
  0051c	f3 0f e6 c9	 cvtdq2pd xmm1, xmm1
  00520	c1 e9 1f	 shr	 ecx, 31			; 0000001fH
  00523	c1 ea 1f	 shr	 edx, 31			; 0000001fH
  00526	f3 0f e6 c0	 cvtdq2pd xmm0, xmm0
  0052a	f2 0f 58 0c cd
	00 00 00 00	 addsd	 xmm1, QWORD PTR __xmm@41f00000000000000000000000000000[ecx*8]
  00533	f2 0f 58 04 d5
	00 00 00 00	 addsd	 xmm0, QWORD PTR __xmm@41f00000000000000000000000000000[edx*8]
  0053c	f2 0f 5e c8	 divsd	 xmm1, xmm0
  00540	66 0f 5a c1	 cvtpd2ps xmm0, xmm1
  00544	f3 0f 11 86 b4
	d6 03 00	 movss	 DWORD PTR [esi+251572], xmm0

; 490  : 
; 491  : 					s_dwRenderCheckTime=ELTimer_GetMSec();

  0054c	e8 00 00 00 00	 call	 ?ELTimer_GetMSec@@YAKXZ	; ELTimer_GetMSec
  00551	a3 00 00 00 00	 mov	 DWORD PTR ?s_dwRenderCheckTime@?CL@??Process@CPythonApplication@@QAE_NXZ@4KA, eax

; 492  : 					s_dwRenderRangeTime=0;

  00556	c7 05 00 00 00
	00 00 00 00 00	 mov	 DWORD PTR ?s_dwRenderRangeTime@?CL@??Process@CPythonApplication@@QAE_NXZ@4KA, 0

; 493  : 					s_dwRenderRangeFrame=0;

  00560	c7 05 00 00 00
	00 00 00 00 00	 mov	 DWORD PTR ?s_dwRenderRangeFrame@?CL@??Process@CPythonApplication@@QAE_NXZ@4KA, 0
$LN20@Process:

; 494  : 				}										
; 495  : 
; 496  : 				DWORD dwCurFaceCount=m_pyGraphic.GetFaceCount();

  0056a	8b cf		 mov	 ecx, edi
  0056c	e8 00 00 00 00	 call	 ?GetFaceCount@CGraphicBase@@QAEKXZ ; CGraphicBase::GetFaceCount

; 497  : 				m_pyGraphic.ResetFaceCount();

  00571	8b cf		 mov	 ecx, edi
  00573	89 45 ec	 mov	 DWORD PTR _dwCurFaceCount$1$[ebp], eax
  00576	e8 00 00 00 00	 call	 ?ResetFaceCount@CGraphicBase@@QAEXXZ ; CGraphicBase::ResetFaceCount

; 498  : 				s_dwFaceCount += dwCurFaceCount;

  0057b	8b 4d ec	 mov	 ecx, DWORD PTR _dwCurFaceCount$1$[ebp]
  0057e	01 0d 00 00 00
	00		 add	 DWORD PTR ?s_dwFaceCount@?1??Process@CPythonApplication@@QAE_NXZ@4KA, ecx

; 499  : 
; 500  : 				if (dwCurFaceCount > 5000)

  00584	81 f9 88 13 00
	00		 cmp	 ecx, 5000		; 00001388H
  0058a	0f 86 c1 01 00
	00		 jbe	 $LN21@Process

; 501  : 				{
; 502  : 					//   
; 503  : 					if (dwRenderEndTime > m_dwBufSleepSkipTime)

  00590	f3 0f 10 1d 00
	00 00 00	 movss	 xmm3, DWORD PTR __real@42c80000
  00598	3b 9e fc d7 03
	00		 cmp	 ebx, DWORD PTR [esi+251900]
  0059e	0f 86 c2 00 00
	00		 jbe	 $LN67@Process

; 504  : 					{	
; 505  : 						static float s_fBufRenderTime = 0.0f;
; 506  : 
; 507  : 						float fCurRenderTime = m_dwCurRenderTime;

  005a4	8b 86 b8 d6 03
	00		 mov	 eax, DWORD PTR [esi+251576]

; 508  : 
; 509  : 						if (fCurRenderTime > s_fBufRenderTime)

  005aa	f3 0f 10 0d 00
	00 00 00	 movss	 xmm1, DWORD PTR ?s_fBufRenderTime@?DE@??Process@CPythonApplication@@QAE_NXZ@4MA
  005b2	66 0f 6e c0	 movd	 xmm0, eax
  005b6	f3 0f e6 c0	 cvtdq2pd xmm0, xmm0
  005ba	c1 e8 1f	 shr	 eax, 31			; 0000001fH
  005bd	f2 0f 58 04 c5
	00 00 00 00	 addsd	 xmm0, QWORD PTR __xmm@41f00000000000000000000000000000[eax*8]
  005c6	66 0f 5a c0	 cvtpd2ps xmm0, xmm0
  005ca	0f 2f c1	 comiss	 xmm0, xmm1
  005cd	f3 0f 11 45 e4	 movss	 DWORD PTR _fCurRenderTime$1$[ebp], xmm0
  005d2	76 5a		 jbe	 SHORT $LN24@Process

; 510  : 						{
; 511  : 							float fRatio = fMAX(0.5f, (fCurRenderTime - s_fBufRenderTime) / 30.0f);

  005d4	f3 0f 5c c1	 subss	 xmm0, xmm1
  005d8	83 ec 08	 sub	 esp, 8
  005db	f3 0f 5e 05 00
	00 00 00	 divss	 xmm0, DWORD PTR __real@41f00000
  005e3	f3 0f 11 44 24
	04		 movss	 DWORD PTR [esp+4], xmm0
  005e9	c7 04 24 00 00
	00 3f		 mov	 DWORD PTR [esp], 1056964608 ; 3f000000H
  005f0	e8 00 00 00 00	 call	 ?fMAX@@YAMMM@Z		; fMAX

; 512  : 							s_fBufRenderTime = (s_fBufRenderTime * (100.0f - fRatio) + (fCurRenderTime + 5) * fRatio) / 100.0f;

  005f5	f3 0f 10 1d 00
	00 00 00	 movss	 xmm3, DWORD PTR __real@42c80000
  005fd	83 c4 08	 add	 esp, 8
  00600	f3 0f 10 55 e4	 movss	 xmm2, DWORD PTR _fCurRenderTime$1$[ebp]
  00605	0f 28 cb	 movaps	 xmm1, xmm3
  00608	f3 0f 58 15 00
	00 00 00	 addss	 xmm2, DWORD PTR __real@40a00000

; 513  : 						}

  00610	8b 4d ec	 mov	 ecx, DWORD PTR _dwCurFaceCount$1$[ebp]
  00613	d9 5d e8	 fstp	 DWORD PTR _fRatio$9[ebp]
  00616	f3 0f 5c 4d e8	 subss	 xmm1, DWORD PTR _fRatio$9[ebp]
  0061b	f3 0f 59 55 e8	 mulss	 xmm2, DWORD PTR _fRatio$9[ebp]
  00620	f3 0f 59 0d 00
	00 00 00	 mulss	 xmm1, DWORD PTR ?s_fBufRenderTime@?DE@??Process@CPythonApplication@@QAE_NXZ@4MA
  00628	f3 0f 58 ca	 addss	 xmm1, xmm2
  0062c	eb 14		 jmp	 SHORT $LN72@Process
$LN24@Process:

; 514  : 						else
; 515  : 						{
; 516  : 							float fRatio = 0.5f;
; 517  : 							s_fBufRenderTime = (s_fBufRenderTime * (100.0f - fRatio) + fCurRenderTime * fRatio) / 100.0f;

  0062e	f3 0f 59 0d 00
	00 00 00	 mulss	 xmm1, DWORD PTR __real@42c70000
  00636	f3 0f 59 05 00
	00 00 00	 mulss	 xmm0, DWORD PTR __real@3f000000
  0063e	f3 0f 58 c8	 addss	 xmm1, xmm0
$LN72@Process:

; 518  : 						}
; 519  : 
; 520  : 						//  
; 521  : 						if (s_fBufRenderTime > 100.0f)

  00642	f3 0f 5e cb	 divss	 xmm1, xmm3
  00646	0f 2f cb	 comiss	 xmm1, xmm3
  00649	f3 0f 11 0d 00
	00 00 00	 movss	 DWORD PTR ?s_fBufRenderTime@?DE@??Process@CPythonApplication@@QAE_NXZ@4MA, xmm1
  00651	76 0b		 jbe	 SHORT $LN26@Process

; 522  : 							s_fBufRenderTime = 100.0f;

  00653	0f 28 cb	 movaps	 xmm1, xmm3
  00656	f3 0f 11 0d 00
	00 00 00	 movss	 DWORD PTR ?s_fBufRenderTime@?DE@??Process@CPythonApplication@@QAE_NXZ@4MA, xmm1
$LN26@Process:

; 523  : 
; 524  : 						DWORD dwBufRenderTime = s_fBufRenderTime;
; 525  : 
; 526  : 						if (m_isWindowed)
; 527  : 						{						
; 528  : 							if (dwBufRenderTime>58)
; 529  : 								dwBufRenderTime=64;
; 530  : 							else if (dwBufRenderTime>42)
; 531  : 								dwBufRenderTime=48;
; 532  : 							else if (dwBufRenderTime>26)
; 533  : 								dwBufRenderTime=32;
; 534  : 							else if (dwBufRenderTime>10)
; 535  : 								dwBufRenderTime=16;
; 536  : 							else
; 537  : 								dwBufRenderTime=8;
; 538  : 						}
; 539  : 
; 540  : 						//      
; 541  : 						//    ??
; 542  : 						//if (m_dwCurRenderTime<dwBufRenderTime)
; 543  : 						//	Sleep(dwBufRenderTime-m_dwCurRenderTime);			
; 544  : 
; 545  : 						m_fAveRenderTime=s_fBufRenderTime;

  0065e	f3 0f 11 8e b4
	d6 03 00	 movss	 DWORD PTR [esi+251572], xmm1
$LN67@Process:

; 546  : 					}
; 547  : 
; 548  : 					m_dwFaceAccCount += dwCurFaceCount;

  00666	01 8e 9c d7 03
	00		 add	 DWORD PTR [esi+251804], ecx

; 549  : 					m_dwFaceAccTime += m_dwCurRenderTime;
; 550  : 
; 551  : 					m_fFaceSpd=(m_dwFaceAccCount/m_dwFaceAccTime);

  0066c	33 d2		 xor	 edx, edx
  0066e	8b 8e b8 d6 03
	00		 mov	 ecx, DWORD PTR [esi+251576]
  00674	01 8e a0 d7 03
	00		 add	 DWORD PTR [esi+251808], ecx
  0067a	8b 86 9c d7 03
	00		 mov	 eax, DWORD PTR [esi+251804]
  00680	f7 b6 a0 d7 03
	00		 div	 DWORD PTR [esi+251808]
  00686	66 0f 6e c0	 movd	 xmm0, eax
  0068a	f3 0f e6 c0	 cvtdq2pd xmm0, xmm0
  0068e	c1 e8 1f	 shr	 eax, 31			; 0000001fH
  00691	f2 0f 58 04 c5
	00 00 00 00	 addsd	 xmm0, QWORD PTR __xmm@41f00000000000000000000000000000[eax*8]

; 552  : 
; 553  : 					//   ?
; 554  : 					if (-1 == m_iForceSightRange)

  0069a	8b 86 00 d8 03
	00		 mov	 eax, DWORD PTR [esi+251904]
  006a0	66 0f 5a c0	 cvtpd2ps xmm0, xmm0
  006a4	f3 0f 11 86 90
	d7 03 00	 movss	 DWORD PTR [esi+251792], xmm0
  006ac	83 f8 ff	 cmp	 eax, -1
  006af	0f 85 93 00 00
	00		 jne	 $LN36@Process

; 555  : 					{
; 556  : 						static float s_fAveRenderTime = 16.0f;
; 557  : 						float fRatio=0.3f;
; 558  : 						s_fAveRenderTime=(s_fAveRenderTime*(100.0f-fRatio)+max(16.0f, m_dwCurRenderTime)*fRatio)/100.0f;

  006b5	f3 0f 10 15 00
	00 00 00	 movss	 xmm2, DWORD PTR __real@41800000
  006bd	0f 57 c0	 xorps	 xmm0, xmm0
  006c0	f2 0f 2a c1	 cvtsi2sd xmm0, ecx
  006c4	c1 e9 1f	 shr	 ecx, 31			; 0000001fH

; 559  : 
; 560  : 
; 561  : 						float fFar=25600.0f;
; 562  : 						float fNear=MIN_FOG;

  006c7	f3 0f 10 0d 00
	00 00 00	 movss	 xmm1, DWORD PTR ?MIN_FOG@@3MA
  006cf	f2 0f 58 04 cd
	00 00 00 00	 addsd	 xmm0, QWORD PTR __xmm@41f00000000000000000000000000000[ecx*8]
  006d8	66 0f 5a c0	 cvtpd2ps xmm0, xmm0
  006dc	f3 0f 5f d0	 maxss	 xmm2, xmm0
  006e0	f3 0f 10 05 00
	00 00 00	 movss	 xmm0, DWORD PTR ?s_fAveRenderTime@?EN@??Process@CPythonApplication@@QAE_NXZ@4MA
  006e8	f3 0f 59 05 00
	00 00 00	 mulss	 xmm0, DWORD PTR __real@42c76666
  006f0	f3 0f 59 15 00
	00 00 00	 mulss	 xmm2, DWORD PTR __real@3e99999a
  006f8	f3 0f 58 d0	 addss	 xmm2, xmm0
  006fc	f3 0f 10 05 00
	00 00 00	 movss	 xmm0, DWORD PTR __real@447a0000
  00704	f3 0f 5e d3	 divss	 xmm2, xmm3

; 563  : 						double dbAvePow=double(1000.0f/s_fAveRenderTime);
; 564  : 						double dbMaxPow=60.0;
; 565  : 						float fDistance=max(fNear+(fFar-fNear)*(dbAvePow)/dbMaxPow, fNear);

  00708	0f 5a d9	 cvtps2pd xmm3, xmm1
  0070b	f3 0f 5e c2	 divss	 xmm0, xmm2
  0070f	f3 0f 11 15 00
	00 00 00	 movss	 DWORD PTR ?s_fAveRenderTime@?EN@??Process@CPythonApplication@@QAE_NXZ@4MA, xmm2
  00717	0f 5a d0	 cvtps2pd xmm2, xmm0
  0071a	f3 0f 10 05 00
	00 00 00	 movss	 xmm0, DWORD PTR __real@46c80000
  00722	f3 0f 5c c1	 subss	 xmm0, xmm1
  00726	0f 5a c0	 cvtps2pd xmm0, xmm0
  00729	f2 0f 59 d0	 mulsd	 xmm2, xmm0
  0072d	f2 0f 5e 15 00
	00 00 00	 divsd	 xmm2, QWORD PTR __real@404e000000000000
  00735	f2 0f 58 d3	 addsd	 xmm2, xmm3
  00739	66 0f 2f d3	 comisd	 xmm2, xmm3
  0073d	77 03		 ja	 SHORT $LN43@Process
  0073f	0f 28 d3	 movaps	 xmm2, xmm3
$LN43@Process:
  00742	66 0f 5a d2	 cvtpd2ps xmm2, xmm2

; 566  : 						m_pyBackground.SetViewDistanceSet(0, fDistance);
; 567  : 					}

  00746	eb 11		 jmp	 SHORT $LN37@Process
$LN36@Process:
  00748	66 0f 6e d0	 movd	 xmm2, eax

; 568  : 					//   
; 569  : 					else
; 570  : 					{
; 571  : 						m_pyBackground.SetViewDistanceSet(0, float(m_iForceSightRange));

  0074c	0f 5b d2	 cvtdq2ps xmm2, xmm2

; 572  : 					}
; 573  : 				}

  0074f	eb 08		 jmp	 SHORT $LN37@Process
$LN21@Process:

; 574  : 				else
; 575  : 				{
; 576  : 					// 10000       
; 577  : 					m_pyBackground.SetViewDistanceSet(0, 25600.0f);

  00751	f3 0f 10 15 00
	00 00 00	 movss	 xmm2, DWORD PTR __real@46c80000
$LN37@Process:

; 578  : 				}
; 579  : 
; 580  : 				++s_dwRenderFrameCount;

  00759	b8 b8 8d 03 00	 mov	 eax, 232888		; 00038db8H
  0075e	6a 00		 push	 0
  00760	8d 0c 06	 lea	 ecx, DWORD PTR [esi+eax]
  00763	e8 00 00 00 00	 call	 ?SetViewDistanceSet@CPythonBackground@@QAEXHM@Z ; CPythonBackground::SetViewDistanceSet
  00768	ff 05 00 00 00
	00		 inc	 DWORD PTR ?s_dwRenderFrameCount@?1??Process@CPythonApplication@@QAE_NXZ@4KA
$LN70@Process:

; 581  : 			}
; 582  : 		}
; 583  : 	}
; 584  : 
; 585  : 	int rest = s_uiNextFrameTime - ELTimer_GetMSec();

  0076e	8b 5d f0	 mov	 ebx, DWORD PTR $T10[ebp]
$LN19@Process:
  00771	e8 00 00 00 00	 call	 ?ELTimer_GetMSec@@YAKXZ	; ELTimer_GetMSec
  00776	8b 0d 00 00 00
	00		 mov	 ecx, DWORD PTR ?s_uiNextFrameTime@?1??Process@CPythonApplication@@QAE_NXZ@4IA
  0077c	2b c8		 sub	 ecx, eax

; 586  : 
; 587  : 	if (rest > 0 && !bCurrentLateUpdate )

  0077e	85 c9		 test	 ecx, ecx
  00780	7e 11		 jle	 SHORT $LN38@Process
  00782	85 db		 test	 ebx, ebx
  00784	75 0d		 jne	 SHORT $LN38@Process

; 588  : 	{
; 589  : 		s_uiLoad -= rest;	//    ..

  00786	29 0d 00 00 00
	00		 sub	 DWORD PTR ?s_uiLoad@?1??Process@CPythonApplication@@QAE_NXZ@4IA, ecx

; 590  : 		Sleep(rest);

  0078c	51		 push	 ecx
  0078d	ff 15 00 00 00
	00		 call	 DWORD PTR __imp__Sleep@4
$LN38@Process:

; 591  : 	}	
; 592  : 
; 593  : 	++s_dwUpdateFrameCount;

  00793	ff 05 00 00 00
	00		 inc	 DWORD PTR ?s_dwUpdateFrameCount@?1??Process@CPythonApplication@@QAE_NXZ@4KA

; 594  : 
; 595  : 	s_uiLoad += ELTimer_GetMSec() - dwStart;

  00799	e8 00 00 00 00	 call	 ?ELTimer_GetMSec@@YAKXZ	; ELTimer_GetMSec
  0079e	2b 45 e0	 sub	 eax, DWORD PTR _dwStart$1$[ebp]
  007a1	01 05 00 00 00
	00		 add	 DWORD PTR ?s_uiLoad@?1??Process@CPythonApplication@@QAE_NXZ@4IA, eax

; 596  : 	//m_Profiler.ProfileByScreen();	
; 597  : 	return true;

  007a7	b0 01		 mov	 al, 1

; 598  : }

  007a9	8b 4d f4	 mov	 ecx, DWORD PTR __$EHRec$[ebp]
  007ac	64 89 0d 00 00
	00 00		 mov	 DWORD PTR fs:0, ecx
  007b3	59		 pop	 ecx
  007b4	5f		 pop	 edi
  007b5	5e		 pop	 esi
  007b6	5b		 pop	 ebx
  007b7	8b e5		 mov	 esp, ebp
  007b9	5d		 pop	 ebp
  007ba	c3		 ret	 0
_TEXT	ENDS
;	COMDAT text$x
text$x	SEGMENT
__unwindfunclet$?Process@CPythonApplication@@QAE_NXZ$0:
  00000	68 00 00 00 00	 push	 OFFSET ?$TSS0@?1??Process@CPythonApplication@@QAE_NXZ@4HA
  00005	e8 00 00 00 00	 call	 __Init_thread_abort
  0000a	59		 pop	 ecx
  0000b	c3		 ret	 0
__unwindfunclet$?Process@CPythonApplication@@QAE_NXZ$1:
  0000c	68 00 00 00 00	 push	 OFFSET ?$TSS1@?1??Process@CPythonApplication@@QAE_NXZ@4HA
  00011	e8 00 00 00 00	 call	 __Init_thread_abort
  00016	59		 pop	 ecx
  00017	c3		 ret	 0
  00018	cc		 int	 3
  00019	cc		 int	 3
  0001a	cc		 int	 3
  0001b	cc		 int	 3
  0001c	cc		 int	 3
__ehhandler$?Process@CPythonApplication@@QAE_NXZ:
  0001d	90		 npad	 1
  0001e	90		 npad	 1
  0001f	8b 54 24 08	 mov	 edx, DWORD PTR [esp+8]
  00023	8d 42 0c	 lea	 eax, DWORD PTR [edx+12]
  00026	8b 4a d4	 mov	 ecx, DWORD PTR [edx-44]
  00029	33 c8		 xor	 ecx, eax
  0002b	e8 00 00 00 00	 call	 @__security_check_cookie@4
  00030	b8 00 00 00 00	 mov	 eax, OFFSET __ehfuncinfo$?Process@CPythonApplication@@QAE_NXZ
  00035	e9 00 00 00 00	 jmp	 ___CxxFrameHandler3
text$x	ENDS
?Process@CPythonApplication@@QAE_NXZ ENDP		; CPythonApplication::Process
; Function compile flags: /Ogtp
; File C:\Anka2Project\Anka2Project\Source\Binary\source\UserInterface\PythonApplication.cpp
; File C:\Anka2Project\Anka2Project\Source\Binary\source\eterBase\Singleton.h
; File C:\Anka2Project\Anka2Project\Source\Binary\source\eterBase\Timer.h
; File C:\Anka2Project\Anka2Project\Source\Binary\source\UserInterface\PythonApplication.cpp
; File C:\Anka2Project\Anka2Project\Source\Binary\source\eterBase\Timer.h
; File C:\Anka2Project\Anka2Project\Source\Binary\source\UserInterface\PythonApplication.cpp
; File C:\Anka2Project\Anka2Project\Source\Binary\source\eterBase\Timer.h
; File C:\Anka2Project\Anka2Project\Source\Binary\source\UserInterface\PythonApplication.cpp
; File C:\Anka2Project\Anka2Project\Source\Binary\source\eterBase\Timer.h
; File C:\Anka2Project\Anka2Project\Source\Binary\source\UserInterface\PythonApplication.cpp
;	COMDAT ?CreateDevice@CPythonApplication@@QAE_NHHHHH@Z
_TEXT	SEGMENT
_$S13$ = -12						; size = 8
_width$ = 8						; size = 4
_height$ = 12						; size = 4
_Windowed$ = 16						; size = 4
_bit$ = 20						; size = 4
_frequency$ = 24					; size = 4
?CreateDevice@CPythonApplication@@QAE_NHHHHH@Z PROC	; CPythonApplication::CreateDevice, COMDAT
; _this$ = ecx

; 689  : {

  00000	55		 push	 ebp
  00001	8b ec		 mov	 ebp, esp
  00003	83 ec 10	 sub	 esp, 16			; 00000010H
  00006	53		 push	 ebx
  00007	56		 push	 esi
  00008	57		 push	 edi
  00009	8b f9		 mov	 edi, ecx

; 690  : 	int iRet;
; 691  : 
; 692  : 	m_grpDevice.InitBackBufferCount(2);

  0000b	6a 02		 push	 2
  0000d	8d 8f b4 aa 03
	00		 lea	 ecx, DWORD PTR [edi+240308]
  00013	e8 00 00 00 00	 call	 ?InitBackBufferCount@CGraphicDevice@@QAEXI@Z ; CGraphicDevice::InitBackBufferCount

; 693  : 
; 694  : #ifdef ENABLE_MORE_FPS
; 695  : 	g_fGameFPS = static_cast<float>(frequency);

  00018	8b 75 18	 mov	 esi, DWORD PTR _frequency$[ebp]

; 696  : 
; 697  : 	const auto diff = 0.42f;
; 698  : 	g_specularSpd = (diff / frequency);
; 699  : 
; 700  : 	auto [first, sec] = GetTimer(frequency);

  0001b	8d 4d f4	 lea	 ecx, DWORD PTR _$S13$[ebp]
  0001e	f3 0f 10 05 00
	00 00 00	 movss	 xmm0, DWORD PTR __real@3ed70a3d
  00026	8b d6		 mov	 edx, esi
  00028	66 0f 6e ce	 movd	 xmm1, esi
  0002c	0f 5b c9	 cvtdq2ps xmm1, xmm1
  0002f	f3 0f 5e c1	 divss	 xmm0, xmm1
  00033	f3 0f 11 0d 00
	00 00 00	 movss	 DWORD PTR ?g_fGameFPS@@3MA, xmm1
  0003b	0f 5a c0	 cvtps2pd xmm0, xmm0
  0003e	f2 0f 11 05 00
	00 00 00	 movsd	 QWORD PTR ?g_specularSpd@@3NA, xmm0
  00046	e8 00 00 00 00	 call	 ?GetTimer@@YA?AV?$tuple@HH@std@@H@Z ; GetTimer
; File C:\Anka2Project\Anka2Project\Source\Binary\source\eterBase\Singleton.h

; 26   : 		assert(ms_singleton);

  0004b	8b 0d 00 00 00
	00		 mov	 ecx, DWORD PTR ?ms_singleton@?$CSingleton@VCTimer@@@@0PAVCTimer@@A ; CSingleton<CTimer>::ms_singleton
  00051	85 c9		 test	 ecx, ecx
  00053	75 1a		 jne	 SHORT $LN23@CreateDevi
  00055	6a 1a		 push	 26			; 0000001aH
  00057	68 00 00 00 00	 push	 OFFSET ??_C@_1IO@CAJLEEOI@?$AAC?$AA?3?$AA?2?$AAA?$AAn?$AAk?$AAa?$AA2?$AAP?$AAr?$AAo?$AAj?$AAe?$AAc?$AAt@
  0005c	68 00 00 00 00	 push	 OFFSET ??_C@_1BK@FMEHPMFE@?$AAm?$AAs?$AA_?$AAs?$AAi?$AAn?$AAg?$AAl?$AAe?$AAt?$AAo?$AAn@
  00061	e8 00 00 00 00	 call	 __wassert
  00066	8b 0d 00 00 00
	00		 mov	 ecx, DWORD PTR ?ms_singleton@?$CSingleton@VCTimer@@@@0PAVCTimer@@A ; CSingleton<CTimer>::ms_singleton
  0006c	83 c4 0c	 add	 esp, 12			; 0000000cH
$LN23@CreateDevi:
; File C:\Anka2Project\Anka2Project\Source\Binary\source\eterBase\Timer.h

; 34   : 	void SetUpdateTime(uint32_t frequency, uint8_t first, uint8_t sec) { m_freq = frequency; m_firstArg = first; m_SecondArg = sec; }

  0006f	0f b6 45 f8	 movzx	 eax, BYTE PTR _$S13$[ebp+4]
; File C:\Anka2Project\Anka2Project\Source\Binary\source\UserInterface\PythonApplication.cpp

; 705  : 	iRet = m_grpDevice.Create(GetWindowHandle(), width, height, Windowed ? true : false, bit,frequency);

  00073	83 7d 10 00	 cmp	 DWORD PTR _Windowed$[ebp], 0
; File C:\Anka2Project\Anka2Project\Source\Binary\source\eterBase\Timer.h

; 34   : 	void SetUpdateTime(uint32_t frequency, uint8_t first, uint8_t sec) { m_freq = frequency; m_firstArg = first; m_SecondArg = sec; }

  00077	88 41 1c	 mov	 BYTE PTR [ecx+28], al
  0007a	0f b6 45 f4	 movzx	 eax, BYTE PTR _$S13$[ebp]
; File C:\Anka2Project\Anka2Project\Source\Binary\source\UserInterface\PythonApplication.cpp

; 705  : 	iRet = m_grpDevice.Create(GetWindowHandle(), width, height, Windowed ? true : false, bit,frequency);

  0007e	56		 push	 esi
  0007f	ff 75 14	 push	 DWORD PTR _bit$[ebp]
; File C:\Anka2Project\Anka2Project\Source\Binary\source\eterBase\Timer.h

; 34   : 	void SetUpdateTime(uint32_t frequency, uint8_t first, uint8_t sec) { m_freq = frequency; m_firstArg = first; m_SecondArg = sec; }

  00082	88 41 1d	 mov	 BYTE PTR [ecx+29], al
; File C:\Anka2Project\Anka2Project\Source\Binary\source\UserInterface\PythonApplication.cpp

; 705  : 	iRet = m_grpDevice.Create(GetWindowHandle(), width, height, Windowed ? true : false, bit,frequency);

  00085	0f 95 c0	 setne	 al
  00088	0f b6 c0	 movzx	 eax, al
  0008b	50		 push	 eax
  0008c	ff 75 0c	 push	 DWORD PTR _height$[ebp]
; File C:\Anka2Project\Anka2Project\Source\Binary\source\eterBase\Timer.h

; 34   : 	void SetUpdateTime(uint32_t frequency, uint8_t first, uint8_t sec) { m_freq = frequency; m_firstArg = first; m_SecondArg = sec; }

  0008f	89 71 20	 mov	 DWORD PTR [ecx+32], esi
; File C:\Anka2Project\Anka2Project\Source\Binary\source\UserInterface\PythonApplication.cpp

; 705  : 	iRet = m_grpDevice.Create(GetWindowHandle(), width, height, Windowed ? true : false, bit,frequency);

  00092	8b cf		 mov	 ecx, edi
  00094	ff 75 08	 push	 DWORD PTR _width$[ebp]
  00097	e8 00 00 00 00	 call	 ?GetWindowHandle@CMSWindow@@QAEPAUHWND__@@XZ ; CMSWindow::GetWindowHandle
  0009c	50		 push	 eax
  0009d	8d 8f b4 aa 03
	00		 lea	 ecx, DWORD PTR [edi+240308]
  000a3	e8 00 00 00 00	 call	 ?Create@CGraphicDevice@@QAEHPAUHWND__@@HH_NHH@Z ; CGraphicDevice::Create

; 706  : 
; 707  : 	switch (iRet)

  000a8	83 f8 10	 cmp	 eax, 16			; 00000010H
  000ab	0f 8f c1 00 00
	00		 jg	 $LN17@CreateDevi
  000b1	0f 84 91 00 00
	00		 je	 $LN9@CreateDevi
  000b7	8d 48 ff	 lea	 ecx, DWORD PTR [eax-1]
  000ba	83 f9 07	 cmp	 ecx, 7
  000bd	0f 87 f3 00 00
	00		 ja	 $LN13@CreateDevi
  000c3	ff 24 8d 00 00
	00 00		 jmp	 DWORD PTR $LN26@CreateDevi[ecx*4]
$LN8@CreateDevi:

; 719  : 		return false;
; 720  : 
; 721  : 	case CGraphicDevice::CREATE_NO_DIRECTX:
; 722  : 		//PyErr_SetString(PyExc_RuntimeError, "DirectX 8.1 or greater required to run game");
; 723  : 		SET_EXCEPTION(CREATE_NO_DIRECTX);

  000ca	a1 00 00 00 00	 mov	 eax, DWORD PTR __imp__PyExc_RuntimeError
  000cf	68 00 00 00 00	 push	 OFFSET ??_C@_0BC@NKAKBNDM@CREATE_NO_DIRECTX@
  000d4	ff 30		 push	 DWORD PTR [eax]
  000d6	ff 15 00 00 00
	00		 call	 DWORD PTR __imp__PyErr_SetString

; 724  : 		TraceError("CreateDevice: DirectX 8.1 or greater required to run game");

  000dc	68 00 00 00 00	 push	 OFFSET ??_C@_0DK@GACPAJMM@CreateDevice?3?5DirectX?58?41?5or?5gr@

; 766  : 		return false;
; 767  : 	}
; 768  : }

  000e1	e8 00 00 00 00	 call	 ?TraceError@@YAXPBDZZ	; TraceError
  000e6	83 c4 0c	 add	 esp, 12			; 0000000cH
  000e9	32 c0		 xor	 al, al
  000eb	5f		 pop	 edi
  000ec	5e		 pop	 esi
  000ed	5b		 pop	 ebx
  000ee	8b e5		 mov	 esp, ebp
  000f0	5d		 pop	 ebp
  000f1	c2 14 00	 ret	 20			; 00000014H
$LN11@CreateDevi:

; 736  : 		return false;
; 737  : 
; 738  : 		/*case CGraphicDevice::CREATE_GET_ADAPTER_DISPLAY_MODE:
; 739  : 		//PyErr_SetString(PyExc_RuntimeError, "GetAdapterDisplayMode failed");
; 740  : 		SET_EXCEPTION(CREATE_GET_ADAPTER_DISPLAY_MODE);
; 741  : 		TraceError("CreateDevice: GetAdapterDisplayMode failed");
; 742  : 		return false;*/
; 743  : 
; 744  : 	case CGraphicDevice::CREATE_GET_DEVICE_CAPS:
; 745  : 		PyErr_SetString(PyExc_RuntimeError, "GetDevCaps failed");

  000f4	a1 00 00 00 00	 mov	 eax, DWORD PTR __imp__PyExc_RuntimeError
  000f9	68 00 00 00 00	 push	 OFFSET ??_C@_0BC@IMJEDJEA@GetDevCaps?5failed@
  000fe	ff 30		 push	 DWORD PTR [eax]
  00100	ff 15 00 00 00
	00		 call	 DWORD PTR __imp__PyErr_SetString

; 746  : 		TraceError("CreateDevice: GetDevCaps failed");

  00106	68 00 00 00 00	 push	 OFFSET ??_C@_0CA@DLHDILBB@CreateDevice?3?5GetDevCaps?5failed@

; 766  : 		return false;
; 767  : 	}
; 768  : }

  0010b	e8 00 00 00 00	 call	 ?TraceError@@YAXPBDZZ	; TraceError
  00110	83 c4 0c	 add	 esp, 12			; 0000000cH
  00113	32 c0		 xor	 al, al
  00115	5f		 pop	 edi
  00116	5e		 pop	 esi
  00117	5b		 pop	 ebx
  00118	8b e5		 mov	 esp, ebp
  0011a	5d		 pop	 ebp
  0011b	c2 14 00	 ret	 20			; 00000014H
$LN12@CreateDevi:

; 747  : 		return false;
; 748  : 
; 749  : 	case CGraphicDevice::CREATE_GET_DEVICE_CAPS2:
; 750  : 		PyErr_SetString(PyExc_RuntimeError, "GetDevCaps2 failed");

  0011e	a1 00 00 00 00	 mov	 eax, DWORD PTR __imp__PyExc_RuntimeError
  00123	68 00 00 00 00	 push	 OFFSET ??_C@_0BD@IHNLMMLJ@GetDevCaps2?5failed@
  00128	ff 30		 push	 DWORD PTR [eax]
  0012a	ff 15 00 00 00
	00		 call	 DWORD PTR __imp__PyErr_SetString

; 751  : 		TraceError("CreateDevice: GetDevCaps2 failed");

  00130	68 00 00 00 00	 push	 OFFSET ??_C@_0CB@JLAAEKGJ@CreateDevice?3?5GetDevCaps2?5faile@

; 766  : 		return false;
; 767  : 	}
; 768  : }

  00135	e8 00 00 00 00	 call	 ?TraceError@@YAXPBDZZ	; TraceError
  0013a	83 c4 0c	 add	 esp, 12			; 0000000cH
  0013d	32 c0		 xor	 al, al
  0013f	5f		 pop	 edi
  00140	5e		 pop	 esi
  00141	5b		 pop	 ebx
  00142	8b e5		 mov	 esp, ebp
  00144	5d		 pop	 ebp
  00145	c2 14 00	 ret	 20			; 00000014H
$LN9@CreateDevi:

; 725  : 		return false;
; 726  : 
; 727  : 	case CGraphicDevice::CREATE_DEVICE:
; 728  : 		//PyErr_SetString(PyExc_RuntimeError, "GraphicDevice create failed");
; 729  : 		SET_EXCEPTION(CREATE_DEVICE);

  00148	a1 00 00 00 00	 mov	 eax, DWORD PTR __imp__PyExc_RuntimeError
  0014d	68 00 00 00 00	 push	 OFFSET ??_C@_0O@CMPMDOEH@CREATE_DEVICE@
  00152	ff 30		 push	 DWORD PTR [eax]
  00154	ff 15 00 00 00
	00		 call	 DWORD PTR __imp__PyErr_SetString

; 730  : 		TraceError("CreateDevice: GraphicDevice create failed");

  0015a	68 00 00 00 00	 push	 OFFSET ??_C@_0CK@KMPBIDGP@CreateDevice?3?5GraphicDevice?5cre@

; 766  : 		return false;
; 767  : 	}
; 768  : }

  0015f	e8 00 00 00 00	 call	 ?TraceError@@YAXPBDZZ	; TraceError
  00164	83 c4 0c	 add	 esp, 12			; 0000000cH
  00167	32 c0		 xor	 al, al
  00169	5f		 pop	 edi
  0016a	5e		 pop	 esi
  0016b	5b		 pop	 ebx
  0016c	8b e5		 mov	 esp, ebp
  0016e	5d		 pop	 ebp
  0016f	c2 14 00	 ret	 20			; 00000014H
$LN17@CreateDevi:

; 706  : 
; 707  : 	switch (iRet)

  00172	3d 80 00 00 00	 cmp	 eax, 128		; 00000080H
  00177	7f 36		 jg	 SHORT $LN18@CreateDevi
  00179	74 0a		 je	 SHORT $LN6@CreateDevi
  0017b	83 f8 20	 cmp	 eax, 32			; 00000020H
  0017e	74 4b		 je	 SHORT $LN15@CreateDevi
  00180	83 f8 40	 cmp	 eax, 64			; 00000040H
  00183	75 31		 jne	 SHORT $LN13@CreateDevi
$LN6@CreateDevi:

; 708  : 	{
; 709  : 	case CGraphicDevice::CREATE_OK:
; 710  : 		return true;
; 711  : 
; 712  : 	case CGraphicDevice::CREATE_REFRESHRATE:
; 713  : 		return true;
; 714  : 
; 715  : 	case CGraphicDevice::CREATE_ENUM:
; 716  : 	case CGraphicDevice::CREATE_DETECT:
; 717  : 		SET_EXCEPTION(CREATE_NO_APPROPRIATE_DEVICE);

  00185	a1 00 00 00 00	 mov	 eax, DWORD PTR __imp__PyExc_RuntimeError
  0018a	68 00 00 00 00	 push	 OFFSET ??_C@_0BN@OAKBEJJN@CREATE_NO_APPROPRIATE_DEVICE@
  0018f	ff 30		 push	 DWORD PTR [eax]
  00191	ff 15 00 00 00
	00		 call	 DWORD PTR __imp__PyErr_SetString

; 718  : 		TraceError("CreateDevice: Enum & Detect failed");

  00197	68 00 00 00 00	 push	 OFFSET ??_C@_0CD@GGLEAAKE@CreateDevice?3?5Enum?5?$CG?5Detect?5fai@

; 766  : 		return false;
; 767  : 	}
; 768  : }

  0019c	e8 00 00 00 00	 call	 ?TraceError@@YAXPBDZZ	; TraceError
  001a1	83 c4 0c	 add	 esp, 12			; 0000000cH
  001a4	32 c0		 xor	 al, al
  001a6	5f		 pop	 edi
  001a7	5e		 pop	 esi
  001a8	5b		 pop	 ebx
  001a9	8b e5		 mov	 esp, ebp
  001ab	5d		 pop	 ebp
  001ac	c2 14 00	 ret	 20			; 00000014H
$LN18@CreateDevi:

; 706  : 
; 707  : 	switch (iRet)

  001af	3d 00 04 00 00	 cmp	 eax, 1024		; 00000400H
  001b4	74 4a		 je	 SHORT $LN10@CreateDevi
$LN13@CreateDevi:

; 752  : 		return false;
; 753  : 
; 754  : 	default:
; 755  : 		if (iRet & CGraphicDevice::CREATE_OK)

  001b6	a8 01		 test	 al, 1
  001b8	74 1c		 je	 SHORT $LN14@CreateDevi

; 756  : 		{
; 757  : 			if (iRet & CGraphicDevice::CREATE_NO_TNL)

  001ba	a9 00 01 00 00	 test	 eax, 256		; 00000100H
  001bf	74 0a		 je	 SHORT $LN15@CreateDevi

; 758  : 			{
; 759  : 				CGrannyLODController::SetMinLODMode(true);

  001c1	6a 01		 push	 1
  001c3	e8 00 00 00 00	 call	 ?SetMinLODMode@CGrannyLODController@@SAX_N@Z ; CGrannyLODController::SetMinLODMode
  001c8	83 c4 04	 add	 esp, 4
$LN15@CreateDevi:

; 760  : 			}
; 761  : 			return true;

  001cb	b0 01		 mov	 al, 1

; 766  : 		return false;
; 767  : 	}
; 768  : }

  001cd	5f		 pop	 edi
  001ce	5e		 pop	 esi
  001cf	5b		 pop	 ebx
  001d0	8b e5		 mov	 esp, ebp
  001d2	5d		 pop	 ebp
  001d3	c2 14 00	 ret	 20			; 00000014H
$LN14@CreateDevi:

; 762  : 		}
; 763  : 
; 764  : 		SET_EXCEPTION(UNKNOWN_ERROR);

  001d6	a1 00 00 00 00	 mov	 eax, DWORD PTR __imp__PyExc_RuntimeError
  001db	68 00 00 00 00	 push	 OFFSET ??_C@_0O@BAEJJDKB@UNKNOWN_ERROR@
  001e0	ff 30		 push	 DWORD PTR [eax]
  001e2	ff 15 00 00 00
	00		 call	 DWORD PTR __imp__PyErr_SetString

; 765  : 		TraceError("CreateDevice: Unknown Error!");

  001e8	68 00 00 00 00	 push	 OFFSET ??_C@_0BN@JAHEKIGK@CreateDevice?3?5Unknown?5Error?$CB@

; 766  : 		return false;
; 767  : 	}
; 768  : }

  001ed	e8 00 00 00 00	 call	 ?TraceError@@YAXPBDZZ	; TraceError
  001f2	83 c4 0c	 add	 esp, 12			; 0000000cH
  001f5	32 c0		 xor	 al, al
  001f7	5f		 pop	 edi
  001f8	5e		 pop	 esi
  001f9	5b		 pop	 ebx
  001fa	8b e5		 mov	 esp, ebp
  001fc	5d		 pop	 ebp
  001fd	c2 14 00	 ret	 20			; 00000014H
$LN10@CreateDevi:

; 731  : 		return false;
; 732  : 
; 733  : 	case CGraphicDevice::CREATE_FORMAT:
; 734  : 		SET_EXCEPTION(CREATE_FORMAT);

  00200	a1 00 00 00 00	 mov	 eax, DWORD PTR __imp__PyExc_RuntimeError
  00205	68 00 00 00 00	 push	 OFFSET ??_C@_0O@DAEHMKOB@CREATE_FORMAT@
  0020a	ff 30		 push	 DWORD PTR [eax]
  0020c	ff 15 00 00 00
	00		 call	 DWORD PTR __imp__PyErr_SetString

; 735  : 		TraceError("CreateDevice: Change the screen format");

  00212	68 00 00 00 00	 push	 OFFSET ??_C@_0CH@DEBFNBPL@CreateDevice?3?5Change?5the?5screen@

; 766  : 		return false;
; 767  : 	}
; 768  : }

  00217	e8 00 00 00 00	 call	 ?TraceError@@YAXPBDZZ	; TraceError
  0021c	83 c4 0c	 add	 esp, 12			; 0000000cH
  0021f	32 c0		 xor	 al, al
  00221	5f		 pop	 edi
  00222	5e		 pop	 esi
  00223	5b		 pop	 ebx
  00224	8b e5		 mov	 esp, ebp
  00226	5d		 pop	 ebp
  00227	c2 14 00	 ret	 20			; 00000014H
  0022a	66 90		 npad	 2
$LN26@CreateDevi:
  0022c	00 00 00 00	 DD	 $LN15@CreateDevi
  00230	00 00 00 00	 DD	 $LN8@CreateDevi
  00234	00 00 00 00	 DD	 $LN13@CreateDevi
  00238	00 00 00 00	 DD	 $LN11@CreateDevi
  0023c	00 00 00 00	 DD	 $LN13@CreateDevi
  00240	00 00 00 00	 DD	 $LN13@CreateDevi
  00244	00 00 00 00	 DD	 $LN13@CreateDevi
  00248	00 00 00 00	 DD	 $LN12@CreateDevi
?CreateDevice@CPythonApplication@@QAE_NHHHHH@Z ENDP	; CPythonApplication::CreateDevice
_TEXT	ENDS
; Function compile flags: /Ogtp
; File C:\Anka2Project\Anka2Project\Source\Binary\source\UserInterface\PythonApplication.cpp
; File C:\Anka2Project\Anka2Project\Source\Binary\source\eterBase\Singleton.h
; File C:\Anka2Project\Anka2Project\Source\Binary\source\UserInterface\PythonApplication.cpp
; File C:\Anka2Project\Anka2Project\Source\Binary\source\eterBase\Singleton.h
; File C:\Anka2Project\Anka2Project\Source\Binary\source\UserInterface\PythonApplication.cpp
; File C:\Anka2Project\Anka2Project\Source\Binary\source\eterBase\Singleton.h
; File C:\Anka2Project\Anka2Project\Source\Binary\source\UserInterface\PythonApplication.cpp
; File C:\Anka2Project\Anka2Project\Source\Binary\source\eterBase\Singleton.h
; File C:\Anka2Project\Anka2Project\Source\Binary\source\UserInterface\PythonApplication.cpp
; File C:\Anka2Project\Anka2Project\Source\Binary\source\eterBase\Singleton.h
; File C:\Anka2Project\Anka2Project\Source\Binary\source\UserInterface\PythonApplication.cpp
;	COMDAT ?Create@CPythonApplication@@QAE_NPAU_object@@PBDHHH@Z
_TEXT	SEGMENT
_sStickKeys$ = -36					; size = 8
_Windowed$1$ = -28					; size = 4
_this$1$ = -24						; size = 4
_rc$6 = -20						; size = 16
__$ArrayPad$ = -4					; size = 4
_poSelf$ = 8						; size = 4
_c_szName$ = 12						; size = 4
_width$ = 16						; size = 4
_height$ = 20						; size = 4
_Windowed$ = 24						; size = 4
?Create@CPythonApplication@@QAE_NPAU_object@@PBDHHH@Z PROC ; CPythonApplication::Create, COMDAT
; _this$ = ecx

; 1040 : {

  00000	55		 push	 ebp
  00001	8b ec		 mov	 ebp, esp
  00003	83 ec 24	 sub	 esp, 36			; 00000024H
  00006	a1 00 00 00 00	 mov	 eax, DWORD PTR ___security_cookie
  0000b	33 c5		 xor	 eax, ebp
  0000d	89 45 fc	 mov	 DWORD PTR __$ArrayPad$[ebp], eax
  00010	53		 push	 ebx
  00011	56		 push	 esi
  00012	57		 push	 edi
  00013	89 4d e8	 mov	 DWORD PTR _this$1$[ebp], ecx

; 1041 : 	NANOBEGIN

  00016	eb		 DB	 -21			; ffffffebH
  00017	03		 DB	 3
  00018	d6		 DB	 -42			; ffffffd6H
  00019	d7		 DB	 -41			; ffffffd7H
  0001a	01		 DB	 1
; File C:\Anka2Project\Anka2Project\Source\Binary\source\eterBase\Singleton.h

; 26   : 		assert(ms_singleton);

  0001b	8b 0d 00 00 00
	00		 mov	 ecx, DWORD PTR ?ms_singleton@?$CSingleton@VCPythonSystem@@@@0PAVCPythonSystem@@A ; CSingleton<CPythonSystem>::ms_singleton
  00021	85 c9		 test	 ecx, ecx
  00023	75 1a		 jne	 SHORT $LN21@Create
  00025	6a 1a		 push	 26			; 0000001aH
  00027	68 00 00 00 00	 push	 OFFSET ??_C@_1IO@CAJLEEOI@?$AAC?$AA?3?$AA?2?$AAA?$AAn?$AAk?$AAa?$AA2?$AAP?$AAr?$AAo?$AAj?$AAe?$AAc?$AAt@
  0002c	68 00 00 00 00	 push	 OFFSET ??_C@_1BK@FMEHPMFE@?$AAm?$AAs?$AA_?$AAs?$AAi?$AAn?$AAg?$AAl?$AAe?$AAt?$AAo?$AAn@
  00031	e8 00 00 00 00	 call	 __wassert
  00036	8b 0d 00 00 00
	00		 mov	 ecx, DWORD PTR ?ms_singleton@?$CSingleton@VCPythonSystem@@@@0PAVCPythonSystem@@A ; CSingleton<CPythonSystem>::ms_singleton
  0003c	83 c4 0c	 add	 esp, 12			; 0000000cH
$LN21@Create:
; File C:\Anka2Project\Anka2Project\Source\Binary\source\UserInterface\PythonApplication.cpp

; 1041 : 	NANOBEGIN

  0003f	e8 00 00 00 00	 call	 ?IsWindowed@CPythonSystem@@QAE_NXZ ; CPythonSystem::IsWindowed

; 1042 : 		Windowed = CPythonSystem::Instance().IsWindowed() ? 1 : 0;
; 1043 : 
; 1044 : 	bool bAnotherWindow = false;
; 1045 : 
; 1046 : 	if (FindWindow(nullptr, c_szName))

  00044	8b 75 0c	 mov	 esi, DWORD PTR _c_szName$[ebp]
  00047	8a d8		 mov	 bl, al
  00049	56		 push	 esi
  0004a	0f b6 c3	 movzx	 eax, bl
  0004d	6a 00		 push	 0
  0004f	89 45 e4	 mov	 DWORD PTR _Windowed$1$[ebp], eax
  00052	ff 15 00 00 00
	00		 call	 DWORD PTR __imp__FindWindowA@8

; 1047 : 		bAnotherWindow = true;
; 1048 : 
; 1049 : 	m_dwWidth = width;

  00058	8b 4d 10	 mov	 ecx, DWORD PTR _width$[ebp]
  0005b	8b f8		 mov	 edi, eax
  0005d	8b 45 e8	 mov	 eax, DWORD PTR _this$1$[ebp]

; 1050 : 	m_dwHeight = height;
; 1051 : 
; 1052 : 	// Window
; 1053 : 	UINT WindowMode = __GetWindowMode(Windowed ? true : false);
; 1054 : 
; 1055 : 	if (!CMSWindow::Create(c_szName, 4, 0, WindowMode, ::LoadIcon( GetInstance(), MAKEINTRESOURCE( IDI_METIN2 ) ), IDC_CURSOR_NORMAL))

  00060	6a 66		 push	 102			; 00000066H
  00062	6a 64		 push	 100			; 00000064H
  00064	89 88 c4 d6 03
	00		 mov	 DWORD PTR [eax+251588], ecx
  0006a	8b 4d 14	 mov	 ecx, DWORD PTR _height$[ebp]
  0006d	89 88 c8 d6 03
	00		 mov	 DWORD PTR [eax+251592], ecx
  00073	8b c8		 mov	 ecx, eax
  00075	e8 00 00 00 00	 call	 ?GetInstance@CMSWindow@@QAEPAUHINSTANCE__@@XZ ; CMSWindow::GetInstance
  0007a	50		 push	 eax
  0007b	ff 15 00 00 00
	00		 call	 DWORD PTR __imp__LoadIconA@8
  00081	50		 push	 eax
  00082	8a cb		 mov	 cl, bl
  00084	e8 00 00 00 00	 call	 ?__GetWindowMode@@YAI_N@Z ; __GetWindowMode
  00089	8b 5d e8	 mov	 ebx, DWORD PTR _this$1$[ebp]
  0008c	8b cb		 mov	 ecx, ebx
  0008e	50		 push	 eax
  0008f	6a 00		 push	 0
  00091	6a 04		 push	 4
  00093	56		 push	 esi
  00094	e8 00 00 00 00	 call	 ?Create@CMSWindow@@QAE_NPBDHKKPAUHICON__@@H@Z ; CMSWindow::Create
  00099	84 c0		 test	 al, al
  0009b	75 37		 jne	 SHORT $LN3@Create

; 1056 : 	{
; 1057 : 		TraceError("CMSWindow::Create failed");

  0009d	68 00 00 00 00	 push	 OFFSET ??_C@_0BJ@DBNNLGNG@CMSWindow?3?3Create?5failed@
  000a2	e8 00 00 00 00	 call	 ?TraceError@@YAXPBDZZ	; TraceError
  000a7	83 c4 04	 add	 esp, 4

; 1058 : 		SET_EXCEPTION(CREATE_WINDOW);

  000aa	68 00 00 00 00	 push	 OFFSET ??_C@_0O@NOBMPFEG@CREATE_WINDOW@
$LN36@Create:

; 1172 : 	return true;
; 1173 : }

  000af	a1 00 00 00 00	 mov	 eax, DWORD PTR __imp__PyExc_RuntimeError
  000b4	ff 30		 push	 DWORD PTR [eax]
  000b6	ff 15 00 00 00
	00		 call	 DWORD PTR __imp__PyErr_SetString
  000bc	83 c4 08	 add	 esp, 8
$LN34@Create:
  000bf	32 c0		 xor	 al, al
  000c1	5f		 pop	 edi
  000c2	5e		 pop	 esi
  000c3	5b		 pop	 ebx
  000c4	8b 4d fc	 mov	 ecx, DWORD PTR __$ArrayPad$[ebp]
  000c7	33 cd		 xor	 ecx, ebp
  000c9	e8 00 00 00 00	 call	 @__security_check_cookie@4
  000ce	8b e5		 mov	 esp, ebp
  000d0	5d		 pop	 ebp
  000d1	c2 14 00	 ret	 20			; 00000014H
$LN3@Create:

; 1059 : 		return false;
; 1060 : 	}
; 1061 : 
; 1062 : 	if (m_pySystem.IsUseDefaultIME())

  000d4	8d b3 d0 aa 03
	00		 lea	 esi, DWORD PTR [ebx+240336]
  000da	8b ce		 mov	 ecx, esi
  000dc	e8 00 00 00 00	 call	 ?IsUseDefaultIME@CPythonSystem@@QAE_NXZ ; CPythonSystem::IsUseDefaultIME
  000e1	84 c0		 test	 al, al
  000e3	74 2c		 je	 SHORT $LN4@Create
; File C:\Anka2Project\Anka2Project\Source\Binary\source\eterBase\Singleton.h

; 26   : 		assert(ms_singleton);

  000e5	8b 0d 00 00 00
	00		 mov	 ecx, DWORD PTR ?ms_singleton@?$CSingleton@VCPythonIME@@@@0PAVCPythonIME@@A ; CSingleton<CPythonIME>::ms_singleton
  000eb	85 c9		 test	 ecx, ecx
  000ed	75 1a		 jne	 SHORT $LN24@Create
  000ef	6a 1a		 push	 26			; 0000001aH
  000f1	68 00 00 00 00	 push	 OFFSET ??_C@_1IO@CAJLEEOI@?$AAC?$AA?3?$AA?2?$AAA?$AAn?$AAk?$AAa?$AA2?$AAP?$AAr?$AAo?$AAj?$AAe?$AAc?$AAt@
  000f6	68 00 00 00 00	 push	 OFFSET ??_C@_1BK@FMEHPMFE@?$AAm?$AAs?$AA_?$AAs?$AAi?$AAn?$AAg?$AAl?$AAe?$AAt?$AAo?$AAn@
  000fb	e8 00 00 00 00	 call	 __wassert
  00100	8b 0d 00 00 00
	00		 mov	 ecx, DWORD PTR ?ms_singleton@?$CSingleton@VCPythonIME@@@@0PAVCPythonIME@@A ; CSingleton<CPythonIME>::ms_singleton
  00106	83 c4 0c	 add	 esp, 12			; 0000000cH
$LN24@Create:
; File C:\Anka2Project\Anka2Project\Source\Binary\source\UserInterface\PythonApplication.cpp

; 1064 : 		CPythonIME::Instance().UseDefaultIME();

  00109	83 c1 04	 add	 ecx, 4
  0010c	e8 00 00 00 00	 call	 ?UseDefaultIME@CIME@@QAEXXZ ; CIME::UseDefaultIME
$LN4@Create:

; 1065 : 	}
; 1066 : 
; 1067 : #ifdef ENABLE_DISCORD_RPC
; 1068 : 	m_pyNetworkStream.Discord_Start();

  00111	e8 00 00 00 00	 call	 ?Discord_Start@CPythonNetworkStream@@QAEXXZ ; CPythonNetworkStream::Discord_Start

; 1069 : #endif
; 1070 : 
; 1071 : 	AdjustSize(m_pySystem.GetWidth(), m_pySystem.GetHeight());

  00116	8b ce		 mov	 ecx, esi
  00118	e8 00 00 00 00	 call	 ?GetHeight@CPythonSystem@@QAEKXZ ; CPythonSystem::GetHeight
  0011d	50		 push	 eax
  0011e	e8 00 00 00 00	 call	 ?GetWidth@CPythonSystem@@QAEKXZ ; CPythonSystem::GetWidth
  00123	50		 push	 eax
  00124	8b cb		 mov	 ecx, ebx
  00126	e8 00 00 00 00	 call	 ?AdjustSize@CMSWindow@@QAEXHH@Z ; CMSWindow::AdjustSize

; 1072 : 
; 1073 : 	if (Windowed)

  0012b	83 7d e4 00	 cmp	 DWORD PTR _Windowed$1$[ebp], 0
  0012f	74 56		 je	 SHORT $LN5@Create

; 1074 : 	{
; 1075 : 		m_isWindowed = true;

  00131	c6 83 d0 d7 03
	00 01		 mov	 BYTE PTR [ebx+251856], 1

; 1076 : 
; 1077 : 		if (bAnotherWindow)

  00138	85 ff		 test	 edi, edi
  0013a	74 44		 je	 SHORT $LN7@Create

; 1078 : 		{
; 1079 : 			RECT rc;
; 1080 : 
; 1081 : 			GetClientRect(&rc);

  0013c	8d 45 ec	 lea	 eax, DWORD PTR _rc$6[ebp]
  0013f	8b cb		 mov	 ecx, ebx
  00141	50		 push	 eax
  00142	e8 00 00 00 00	 call	 ?GetClientRect@CMSWindow@@QAEXPAUtagRECT@@@Z ; CMSWindow::GetClientRect

; 1082 : 
; 1083 : 			int windowWidth = rc.right - rc.left;

  00147	8b 5d f4	 mov	 ebx, DWORD PTR _rc$6[ebp+8]

; 1084 : 			int windowHeight = (rc.bottom - rc.top);

  0014a	8b 75 f8	 mov	 esi, DWORD PTR _rc$6[ebp+12]

; 1085 : 
; 1086 : 			CMSApplication::SetPosition(GetScreenWidth() - windowWidth, GetScreenHeight() - 60 - windowHeight);

  0014d	8b 4d e8	 mov	 ecx, DWORD PTR _this$1$[ebp]
  00150	2b 5d ec	 sub	 ebx, DWORD PTR _rc$6[ebp]
  00153	2b 75 f0	 sub	 esi, DWORD PTR _rc$6[ebp+4]
  00156	e8 00 00 00 00	 call	 ?GetScreenHeight@CMSWindow@@QAEHXZ ; CMSWindow::GetScreenHeight
  0015b	8b 4d e8	 mov	 ecx, DWORD PTR _this$1$[ebp]
  0015e	bf c4 ff ff ff	 mov	 edi, -60		; ffffffc4H
  00163	2b fe		 sub	 edi, esi
  00165	03 f8		 add	 edi, eax
  00167	e8 00 00 00 00	 call	 ?GetScreenWidth@CMSWindow@@QAEHXZ ; CMSWindow::GetScreenWidth
  0016c	2b c3		 sub	 eax, ebx
  0016e	8b 5d e8	 mov	 ebx, DWORD PTR _this$1$[ebp]
  00171	57		 push	 edi
  00172	50		 push	 eax
  00173	8b cb		 mov	 ecx, ebx
  00175	e8 00 00 00 00	 call	 ?SetPosition@CMSWindow@@QAEXHH@Z ; CMSWindow::SetPosition
  0017a	8d b3 d0 aa 03
	00		 lea	 esi, DWORD PTR [ebx+240336]
$LN7@Create:

; 1087 : 		}
; 1088 : 		SetPosition(-8, 0); //Fix

  00180	b8 f8 ff ff ff	 mov	 eax, -8			; fffffff8H

; 1089 : 	}

  00185	eb 09		 jmp	 SHORT $LN6@Create
$LN5@Create:

; 1090 : 	else
; 1091 : 	{
; 1092 : 		m_isWindowed = false;

  00187	c6 83 d0 d7 03
	00 00		 mov	 BYTE PTR [ebx+251856], 0

; 1093 : 		SetPosition(0, 0);

  0018e	33 c0		 xor	 eax, eax
$LN6@Create:

; 1094 : 	}
; 1095 : 
; 1096 : 	if (!CreateCursors())

  00190	6a 00		 push	 0
  00192	50		 push	 eax
  00193	8b cb		 mov	 ecx, ebx
  00195	e8 00 00 00 00	 call	 ?SetPosition@CMSWindow@@QAEXHH@Z ; CMSWindow::SetPosition
  0019a	8b cb		 mov	 ecx, ebx
  0019c	e8 00 00 00 00	 call	 ?CreateCursors@CPythonApplication@@QAE_NXZ ; CPythonApplication::CreateCursors
  001a1	84 c0		 test	 al, al
  001a3	75 17		 jne	 SHORT $LN8@Create

; 1097 : 	{
; 1098 : 		TraceError("CMSWindow::Cursors Create Error");

  001a5	68 00 00 00 00	 push	 OFFSET ??_C@_0CA@FFOMJBHN@CMSWindow?3?3Cursors?5Create?5Error@
  001aa	e8 00 00 00 00	 call	 ?TraceError@@YAXPBDZZ	; TraceError
  001af	83 c4 04	 add	 esp, 4

; 1099 : 		SET_EXCEPTION("CREATE_CURSOR");

  001b2	68 00 00 00 00	 push	 OFFSET ??_C@_0BA@GLLECKCO@?$CCCREATE_CURSOR?$CC@

; 1100 : 		return false;

  001b7	e9 f3 fe ff ff	 jmp	 $LN36@Create
$LN8@Create:

; 1101 : 	}
; 1102 : 
; 1103 : 	if (!m_pySystem.IsNoSoundCard())

  001bc	8b ce		 mov	 ecx, esi
  001be	e8 00 00 00 00	 call	 ?IsNoSoundCard@CPythonSystem@@QAE_NXZ ; CPythonSystem::IsNoSoundCard
  001c3	84 c0		 test	 al, al
  001c5	75 0b		 jne	 SHORT $LN10@Create

; 1104 : 	{
; 1105 : 		// Sound
; 1106 : 		if (!m_SoundManager.Create())

  001c7	8d 8b f0 00 00
	00		 lea	 ecx, DWORD PTR [ebx+240]
  001cd	e8 00 00 00 00	 call	 ?Create@CSoundManager@@QAEHXZ ; CSoundManager::Create
$LN10@Create:

; 1107 : 		{
; 1108 : 		}
; 1109 : 	}
; 1110 : 
; 1111 : 	// Device
; 1112 : 	if (!CreateDevice(m_pySystem.GetWidth(), m_pySystem.GetHeight(), Windowed, m_pySystem.GetBPP(), m_pySystem.GetFrequency()))

  001d2	8b ce		 mov	 ecx, esi
  001d4	e8 00 00 00 00	 call	 ?GetFrequency@CPythonSystem@@QAEKXZ ; CPythonSystem::GetFrequency
  001d9	8b f8		 mov	 edi, eax
  001db	e8 00 00 00 00	 call	 ?GetBPP@CPythonSystem@@QAEKXZ ; CPythonSystem::GetBPP
  001e0	8d 8b d0 aa 03
	00		 lea	 ecx, DWORD PTR [ebx+240336]
  001e6	8b f0		 mov	 esi, eax
  001e8	e8 00 00 00 00	 call	 ?GetHeight@CPythonSystem@@QAEKXZ ; CPythonSystem::GetHeight
  001ed	8b d0		 mov	 edx, eax
  001ef	e8 00 00 00 00	 call	 ?GetWidth@CPythonSystem@@QAEKXZ ; CPythonSystem::GetWidth
  001f4	57		 push	 edi
  001f5	56		 push	 esi
  001f6	ff 75 e4	 push	 DWORD PTR _Windowed$1$[ebp]
  001f9	8b cb		 mov	 ecx, ebx
  001fb	52		 push	 edx
  001fc	50		 push	 eax
  001fd	e8 00 00 00 00	 call	 ?CreateDevice@CPythonApplication@@QAE_NHHHHH@Z ; CPythonApplication::CreateDevice
  00202	84 c0		 test	 al, al
  00204	0f 84 b5 fe ff
	ff		 je	 $LN34@Create

; 1113 : 		return false;
; 1114 : 
; 1115 : 	GrannyCreateSharedDeformBuffer();

  0020a	e8 00 00 00 00	 call	 ?GrannyCreateSharedDeformBuffer@@YAXXZ ; GrannyCreateSharedDeformBuffer

; 1116 : 
; 1117 : 	SetVisibleMode(true);

  0020f	6a 01		 push	 1
  00211	8b cb		 mov	 ecx, ebx
  00213	e8 00 00 00 00	 call	 ?SetVisibleMode@CMSWindow@@QAEX_N@Z ; CMSWindow::SetVisibleMode

; 1118 : 
; 1119 : 	if (m_isWindowFullScreenEnable)

  00218	83 bb f4 d7 03
	00 00		 cmp	 DWORD PTR [ebx+251892], 0
  0021f	74 1c		 je	 SHORT $LN12@Create

; 1120 : 	{
; 1121 : 		SetWindowPos(GetWindowHandle(), HWND_TOP, 0, 0, width, height, SWP_SHOWWINDOW);

  00221	6a 40		 push	 64			; 00000040H
  00223	ff 75 14	 push	 DWORD PTR _height$[ebp]
  00226	8b cb		 mov	 ecx, ebx
  00228	ff 75 10	 push	 DWORD PTR _width$[ebp]
  0022b	6a 00		 push	 0
  0022d	6a 00		 push	 0
  0022f	6a 00		 push	 0
  00231	e8 00 00 00 00	 call	 ?GetWindowHandle@CMSWindow@@QAEPAUHWND__@@XZ ; CMSWindow::GetWindowHandle
  00236	50		 push	 eax
  00237	ff 15 00 00 00
	00		 call	 DWORD PTR __imp__SetWindowPos@28
$LN12@Create:

; 1122 : 	}
; 1123 : 
; 1124 : 	if (!InitializeKeyboard(GetWindowHandle()))

  0023d	8b cb		 mov	 ecx, ebx
  0023f	e8 00 00 00 00	 call	 ?GetWindowHandle@CMSWindow@@QAEPAUHWND__@@XZ ; CMSWindow::GetWindowHandle
  00244	50		 push	 eax
  00245	8d 4b 1c	 lea	 ecx, DWORD PTR [ebx+28]
  00248	e8 00 00 00 00	 call	 ?InitializeKeyboard@CInputKeyboard@@QAE_NPAUHWND__@@@Z ; CInputKeyboard::InitializeKeyboard
  0024d	84 c0		 test	 al, al
  0024f	0f 84 6a fe ff
	ff		 je	 $LN34@Create

; 1125 : 		return false;
; 1126 : 
; 1127 : 	m_pySystem.GetDisplaySettings();

  00255	8d 8b d0 aa 03
	00		 lea	 ecx, DWORD PTR [ebx+240336]
  0025b	e8 00 00 00 00	 call	 ?GetDisplaySettings@CPythonSystem@@QAEXXZ ; CPythonSystem::GetDisplaySettings

; 1128 : 
; 1129 : 	// Mouse
; 1130 : 	if (m_pySystem.IsSoftwareCursor())

  00260	8d 8b d0 aa 03
	00		 lea	 ecx, DWORD PTR [ebx+240336]
  00266	e8 00 00 00 00	 call	 ?IsSoftwareCursor@CPythonSystem@@QAE_NXZ ; CPythonSystem::IsSoftwareCursor

; 1131 : 		SetCursorMode(CURSOR_MODE_SOFTWARE);
; 1132 : 	else
; 1133 : 		SetCursorMode(CURSOR_MODE_HARDWARE);
; 1134 : 
; 1135 : 	// Network
; 1136 : 	if (!m_netDevice.Create())

  0026b	0f b6 c0	 movzx	 eax, al
  0026e	8b cb		 mov	 ecx, ebx
  00270	50		 push	 eax
  00271	e8 00 00 00 00	 call	 ?SetCursorMode@CPythonApplication@@QAEXH@Z ; CPythonApplication::SetCursorMode
  00276	8d 8b c8 aa 03
	00		 lea	 ecx, DWORD PTR [ebx+240328]
  0027c	e8 00 00 00 00	 call	 ?Create@CNetworkDevice@@QAE_NXZ ; CNetworkDevice::Create
  00281	84 c0		 test	 al, al
  00283	75 17		 jne	 SHORT $LN16@Create

; 1137 : 	{
; 1138 : 		TraceError("NetDevice::Create failed");

  00285	68 00 00 00 00	 push	 OFFSET ??_C@_0BJ@CJEBNOLC@NetDevice?3?3Create?5failed@
  0028a	e8 00 00 00 00	 call	 ?TraceError@@YAXPBDZZ	; TraceError
  0028f	83 c4 04	 add	 esp, 4

; 1139 : 		SET_EXCEPTION("CREATE_NETWORK");

  00292	68 00 00 00 00	 push	 OFFSET ??_C@_0BB@EJLMKODK@?$CCCREATE_NETWORK?$CC@

; 1140 : 		return false;

  00297	e9 13 fe ff ff	 jmp	 $LN36@Create
$LN16@Create:

; 1141 : 	}
; 1142 : 
; 1143 : 	if (!m_grpDevice.IsFastTNL())

  0029c	e8 00 00 00 00	 call	 ?IsFastTNL@CGraphicBase@@SA_NXZ ; CGraphicBase::IsFastTNL
  002a1	84 c0		 test	 al, al
  002a3	75 0a		 jne	 SHORT $LN17@Create

; 1144 : 		CGrannyLODController::SetMinLODMode(true);

  002a5	6a 01		 push	 1
  002a7	e8 00 00 00 00	 call	 ?SetMinLODMode@CGrannyLODController@@SAX_N@Z ; CGrannyLODController::SetMinLODMode
  002ac	83 c4 04	 add	 esp, 4
$LN17@Create:

; 1145 : 
; 1146 : 	m_pyItem.Create();

  002af	8d 8b 34 3f 02
	00		 lea	 ecx, DWORD PTR [ebx+147252]
  002b5	e8 00 00 00 00	 call	 ?Create@CPythonItem@@QAEXXZ ; CPythonItem::Create

; 1147 : 
; 1148 : 	// Other Modules
; 1149 : 	DefaultFont_Startup();

  002ba	e8 00 00 00 00	 call	 ?DefaultFont_Startup@@YAXXZ ; DefaultFont_Startup
; File C:\Anka2Project\Anka2Project\Source\Binary\source\eterBase\Singleton.h

; 26   : 		assert(ms_singleton);

  002bf	8b 35 00 00 00
	00		 mov	 esi, DWORD PTR ?ms_singleton@?$CSingleton@VCPythonIME@@@@0PAVCPythonIME@@A ; CSingleton<CPythonIME>::ms_singleton
  002c5	85 f6		 test	 esi, esi
  002c7	75 1a		 jne	 SHORT $LN27@Create
  002c9	6a 1a		 push	 26			; 0000001aH
  002cb	68 00 00 00 00	 push	 OFFSET ??_C@_1IO@CAJLEEOI@?$AAC?$AA?3?$AA?2?$AAA?$AAn?$AAk?$AAa?$AA2?$AAP?$AAr?$AAo?$AAj?$AAe?$AAc?$AAt@
  002d0	68 00 00 00 00	 push	 OFFSET ??_C@_1BK@FMEHPMFE@?$AAm?$AAs?$AA_?$AAs?$AAi?$AAn?$AAg?$AAl?$AAe?$AAt?$AAo?$AAn@
  002d5	e8 00 00 00 00	 call	 __wassert
  002da	8b 35 00 00 00
	00		 mov	 esi, DWORD PTR ?ms_singleton@?$CSingleton@VCPythonIME@@@@0PAVCPythonIME@@A ; CSingleton<CPythonIME>::ms_singleton
  002e0	83 c4 0c	 add	 esp, 12			; 0000000cH
$LN27@Create:
; File C:\Anka2Project\Anka2Project\Source\Binary\source\UserInterface\PythonApplication.cpp

; 1151 : 	CPythonIME::Instance().Create(GetWindowHandle());

  002e3	8b cb		 mov	 ecx, ebx
  002e5	e8 00 00 00 00	 call	 ?GetWindowHandle@CMSWindow@@QAEPAUHWND__@@XZ ; CMSWindow::GetWindowHandle
  002ea	50		 push	 eax
  002eb	8b ce		 mov	 ecx, esi
  002ed	e8 00 00 00 00	 call	 ?Create@CPythonIME@@QAEXPAUHWND__@@@Z ; CPythonIME::Create
; File C:\Anka2Project\Anka2Project\Source\Binary\source\eterBase\Singleton.h

; 26   : 		assert(ms_singleton);

  002f2	8b 0d 00 00 00
	00		 mov	 ecx, DWORD PTR ?ms_singleton@?$CSingleton@VCPythonIME@@@@0PAVCPythonIME@@A ; CSingleton<CPythonIME>::ms_singleton
  002f8	85 c9		 test	 ecx, ecx
  002fa	75 1a		 jne	 SHORT $LN30@Create
  002fc	6a 1a		 push	 26			; 0000001aH
  002fe	68 00 00 00 00	 push	 OFFSET ??_C@_1IO@CAJLEEOI@?$AAC?$AA?3?$AA?2?$AAA?$AAn?$AAk?$AAa?$AA2?$AAP?$AAr?$AAo?$AAj?$AAe?$AAc?$AAt@
  00303	68 00 00 00 00	 push	 OFFSET ??_C@_1BK@FMEHPMFE@?$AAm?$AAs?$AA_?$AAs?$AAi?$AAn?$AAg?$AAl?$AAe?$AAt?$AAo?$AAn@
  00308	e8 00 00 00 00	 call	 __wassert
  0030d	8b 0d 00 00 00
	00		 mov	 ecx, DWORD PTR ?ms_singleton@?$CSingleton@VCPythonIME@@@@0PAVCPythonIME@@A ; CSingleton<CPythonIME>::ms_singleton
  00313	83 c4 0c	 add	 esp, 12			; 0000000cH
$LN30@Create:
; File C:\Anka2Project\Anka2Project\Source\Binary\source\UserInterface\PythonApplication.cpp

; 1152 : 	CPythonIME::Instance().SetText("", 0);

  00316	6a 00		 push	 0
  00318	68 00 00 00 00	 push	 OFFSET ??_C@_00CNPNBAHC@@
  0031d	83 c1 04	 add	 ecx, 4
  00320	e8 00 00 00 00	 call	 ?SetText@CIME@@QAEXPBDH@Z ; CIME::SetText
; File C:\Anka2Project\Anka2Project\Source\Binary\source\eterBase\Singleton.h

; 26   : 		assert(ms_singleton);

  00325	83 3d 00 00 00
	00 00		 cmp	 DWORD PTR ?ms_singleton@?$CSingleton@VCPythonTextTail@@@@0PAVCPythonTextTail@@A, 0 ; CSingleton<CPythonTextTail>::ms_singleton
  0032c	75 14		 jne	 SHORT $LN33@Create
  0032e	6a 1a		 push	 26			; 0000001aH
  00330	68 00 00 00 00	 push	 OFFSET ??_C@_1IO@CAJLEEOI@?$AAC?$AA?3?$AA?2?$AAA?$AAn?$AAk?$AAa?$AA2?$AAP?$AAr?$AAo?$AAj?$AAe?$AAc?$AAt@
  00335	68 00 00 00 00	 push	 OFFSET ??_C@_1BK@FMEHPMFE@?$AAm?$AAs?$AA_?$AAs?$AAi?$AAn?$AAg?$AAl?$AAe?$AAt?$AAo?$AAn@
  0033a	e8 00 00 00 00	 call	 __wassert
  0033f	83 c4 0c	 add	 esp, 12			; 0000000cH
$LN33@Create:
; File C:\Anka2Project\Anka2Project\Source\Binary\source\UserInterface\PythonApplication.cpp

; 1153 : 	CPythonTextTail::Instance().Initialize();

  00342	e8 00 00 00 00	 call	 ?Initialize@CPythonTextTail@@QAEXXZ ; CPythonTextTail::Initialize

; 1154 : 
; 1155 : 	// Light Manager
; 1156 : 	m_LightManager.Initialize();

  00347	8d 8b 84 00 00
	00		 lea	 ecx, DWORD PTR [ebx+132]
  0034d	e8 00 00 00 00	 call	 ?Initialize@CLightManager@@QAEXXZ ; CLightManager::Initialize

; 1157 : 
; 1158 : 	CGraphicImageInstance::CreateSystem(32);

  00352	6a 20		 push	 32			; 00000020H
  00354	e8 00 00 00 00	 call	 ?CreateSystem@CGraphicImageInstance@@SAXI@Z ; CGraphicImageInstance::CreateSystem

; 1159 : 
; 1160 : 	STICKYKEYS sStickKeys;
; 1161 : 	memset(&sStickKeys, 0, sizeof(sStickKeys));
; 1162 : 	sStickKeys.cbSize = sizeof(sStickKeys);
; 1163 : 	SystemParametersInfo( SPI_GETSTICKYKEYS, sizeof(sStickKeys), &sStickKeys, 0 );

  00359	8b 35 00 00 00
	00		 mov	 esi, DWORD PTR __imp__SystemParametersInfoA@16
  0035f	8d 45 dc	 lea	 eax, DWORD PTR _sStickKeys$[ebp]
  00362	83 c4 04	 add	 esp, 4
  00365	0f 57 c0	 xorps	 xmm0, xmm0
  00368	66 0f 13 45 dc	 movlpd	 QWORD PTR _sStickKeys$[ebp], xmm0
  0036d	c7 45 dc 08 00
	00 00		 mov	 DWORD PTR _sStickKeys$[ebp], 8
  00374	6a 00		 push	 0
  00376	50		 push	 eax
  00377	6a 08		 push	 8
  00379	6a 3a		 push	 58			; 0000003aH
  0037b	ff d6		 call	 esi

; 1164 : 	m_dwStickyKeysFlag = sStickKeys.dwFlags;

  0037d	8b 45 e0	 mov	 eax, DWORD PTR _sStickKeys$[ebp+4]
  00380	89 83 f8 d7 03
	00		 mov	 DWORD PTR [ebx+251896], eax

; 1165 : 
; 1166 : 	sStickKeys.dwFlags &= ~(SKF_AVAILABLE|SKF_HOTKEYACTIVE);

  00386	83 e0 f9	 and	 eax, -7			; fffffff9H

; 1167 : 	SystemParametersInfo( SPI_SETSTICKYKEYS, sizeof(sStickKeys), &sStickKeys, 0 );

  00389	6a 00		 push	 0
  0038b	89 45 e0	 mov	 DWORD PTR _sStickKeys$[ebp+4], eax
  0038e	8d 45 dc	 lea	 eax, DWORD PTR _sStickKeys$[ebp]
  00391	50		 push	 eax
  00392	6a 08		 push	 8
  00394	6a 3b		 push	 59			; 0000003bH
  00396	ff d6		 call	 esi

; 1168 : 
; 1169 : 	// SphereMap
; 1170 : 	CGrannyMaterial::CreateSphereMap(0, "d:/ymir work/special/spheremap.jpg");

  00398	68 00 00 00 00	 push	 OFFSET ??_C@_0CD@KIIBIHOG@d?3?1ymir?5work?1special?1spheremap?4@
  0039d	6a 00		 push	 0
  0039f	e8 00 00 00 00	 call	 ?CreateSphereMap@CGrannyMaterial@@SAXIPBD@Z ; CGrannyMaterial::CreateSphereMap

; 1171 : 	CGrannyMaterial::CreateSphereMap(1, "d:/ymir work/special/spheremap01.jpg");

  003a4	68 00 00 00 00	 push	 OFFSET ??_C@_0CF@CBFEMJII@d?3?1ymir?5work?1special?1spheremap0@
  003a9	6a 01		 push	 1
  003ab	e8 00 00 00 00	 call	 ?CreateSphereMap@CGrannyMaterial@@SAXIPBD@Z ; CGrannyMaterial::CreateSphereMap

; 1172 : 	return true;
; 1173 : }

  003b0	8b 4d fc	 mov	 ecx, DWORD PTR __$ArrayPad$[ebp]
  003b3	83 c4 10	 add	 esp, 16			; 00000010H
  003b6	33 cd		 xor	 ecx, ebp
  003b8	b0 01		 mov	 al, 1
  003ba	5f		 pop	 edi
  003bb	5e		 pop	 esi
  003bc	5b		 pop	 ebx
  003bd	e8 00 00 00 00	 call	 @__security_check_cookie@4
  003c2	8b e5		 mov	 esp, ebp
  003c4	5d		 pop	 ebp
  003c5	c2 14 00	 ret	 20			; 00000014H
?Create@CPythonApplication@@QAE_NPAU_object@@PBDHHH@Z ENDP ; CPythonApplication::Create
_TEXT	ENDS
; Function compile flags: /Ogtp
; File C:\Anka2Project\Anka2Project\Source\Binary\source\UserInterface\PythonApplication.cpp
; File C:\Anka2Project\Anka2Project\Source\Binary\source\eterBase\Singleton.h
; File C:\Anka2Project\Anka2Project\Source\Binary\source\UserInterface\PythonApplication.cpp
; File C:\Anka2Project\Anka2Project\Source\Binary\source\eterBase\Singleton.h
; File C:\Anka2Project\Anka2Project\Source\Binary\source\UserInterface\PythonApplication.cpp
; File C:\Anka2Project\Anka2Project\Source\Binary\source\UserInterface\PythonApplication.h
; File C:\Anka2Project\Anka2Project\Source\Binary\source\UserInterface\PythonApplication.cpp
; File C:\Anka2Project\Anka2Project\Source\Binary\source\UserInterface\PythonApplication.h
; File C:\Anka2Project\Anka2Project\Source\Binary\source\UserInterface\PythonApplication.cpp
;	COMDAT ?SetGlobalCenterPosition@CPythonApplication@@QAEXJJ@Z
_TEXT	SEGMENT
_z$ = -4						; size = 4
_x$ = 8							; size = 4
_y$ = 12						; size = 4
?SetGlobalCenterPosition@CPythonApplication@@QAEXJJ@Z PROC ; CPythonApplication::SetGlobalCenterPosition, COMDAT
; _this$dead$ = ecx

; 1176 : {

  00000	55		 push	 ebp
  00001	8b ec		 mov	 ebp, esp
  00003	51		 push	 ecx
  00004	56		 push	 esi
; File C:\Anka2Project\Anka2Project\Source\Binary\source\eterBase\Singleton.h

; 26   : 		assert(ms_singleton);

  00005	8b 35 00 00 00
	00		 mov	 esi, DWORD PTR ?ms_singleton@?$CSingleton@VCPythonBackground@@@@0PAVCPythonBackground@@A ; CSingleton<CPythonBackground>::ms_singleton
  0000b	85 f6		 test	 esi, esi
  0000d	75 1a		 jne	 SHORT $LN5@SetGlobalC
  0000f	6a 1a		 push	 26			; 0000001aH
  00011	68 00 00 00 00	 push	 OFFSET ??_C@_1IO@CAJLEEOI@?$AAC?$AA?3?$AA?2?$AAA?$AAn?$AAk?$AAa?$AA2?$AAP?$AAr?$AAo?$AAj?$AAe?$AAc?$AAt@
  00016	68 00 00 00 00	 push	 OFFSET ??_C@_1BK@FMEHPMFE@?$AAm?$AAs?$AA_?$AAs?$AAi?$AAn?$AAg?$AAl?$AAe?$AAt?$AAo?$AAn@
  0001b	e8 00 00 00 00	 call	 __wassert
  00020	8b 35 00 00 00
	00		 mov	 esi, DWORD PTR ?ms_singleton@?$CSingleton@VCPythonBackground@@@@0PAVCPythonBackground@@A ; CSingleton<CPythonBackground>::ms_singleton
  00026	83 c4 0c	 add	 esp, 12			; 0000000cH
$LN5@SetGlobalC:
; File C:\Anka2Project\Anka2Project\Source\Binary\source\UserInterface\PythonApplication.cpp

; 1178 : 	rkBG.GlobalPositionToLocalPosition(x, y);

  00029	8d 45 0c	 lea	 eax, DWORD PTR _y$[ebp]
  0002c	8b ce		 mov	 ecx, esi
  0002e	50		 push	 eax
  0002f	8d 45 08	 lea	 eax, DWORD PTR _x$[ebp]
  00032	50		 push	 eax
  00033	e8 00 00 00 00	 call	 ?GlobalPositionToLocalPosition@CPythonBackground@@QAEXAAJ0@Z ; CPythonBackground::GlobalPositionToLocalPosition
; File C:\Anka2Project\Anka2Project\Source\Binary\source\eterBase\Singleton.h

; 26   : 		assert(ms_singleton);

  00038	85 f6		 test	 esi, esi
  0003a	75 1a		 jne	 SHORT $LN8@SetGlobalC
  0003c	6a 1a		 push	 26			; 0000001aH
  0003e	68 00 00 00 00	 push	 OFFSET ??_C@_1IO@CAJLEEOI@?$AAC?$AA?3?$AA?2?$AAA?$AAn?$AAk?$AAa?$AA2?$AAP?$AAr?$AAo?$AAj?$AAe?$AAc?$AAt@
  00043	68 00 00 00 00	 push	 OFFSET ??_C@_1BK@FMEHPMFE@?$AAm?$AAs?$AA_?$AAs?$AAi?$AAn?$AAg?$AAl?$AAe?$AAt?$AAo?$AAn@
  00048	e8 00 00 00 00	 call	 __wassert
  0004d	8b 35 00 00 00
	00		 mov	 esi, DWORD PTR ?ms_singleton@?$CSingleton@VCPythonBackground@@@@0PAVCPythonBackground@@A ; CSingleton<CPythonBackground>::ms_singleton
  00053	83 c4 0c	 add	 esp, 12			; 0000000cH
$LN8@SetGlobalC:
  00056	66 0f 6e 45 0c	 movd	 xmm0, DWORD PTR _y$[ebp]
; File C:\Anka2Project\Anka2Project\Source\Binary\source\UserInterface\PythonApplication.cpp

; 1180 : 	float z = CPythonBackground::Instance().GetHeight(x, y);

  0005b	83 ec 08	 sub	 esp, 8
  0005e	66 0f 6e 4d 08	 movd	 xmm1, DWORD PTR _x$[ebp]
  00063	8b ce		 mov	 ecx, esi
  00065	0f 5b c0	 cvtdq2ps xmm0, xmm0
  00068	0f 5b c9	 cvtdq2ps xmm1, xmm1
  0006b	f3 0f 11 44 24
	04		 movss	 DWORD PTR [esp+4], xmm0
  00071	f3 0f 11 0c 24	 movss	 DWORD PTR [esp], xmm1
  00076	e8 00 00 00 00	 call	 ?GetHeight@CMapManager@@QAEMMM@Z ; CMapManager::GetHeight
; File C:\Anka2Project\Anka2Project\Source\Binary\source\UserInterface\PythonApplication.h

; 213  : 			assert(ms_pInstance != nullptr);

  0007b	8b 0d 00 00 00
	00		 mov	 ecx, DWORD PTR ?ms_pInstance@CPythonApplication@@1PAV1@A ; CPythonApplication::ms_pInstance
; File C:\Anka2Project\Anka2Project\Source\Binary\source\UserInterface\PythonApplication.cpp

; 1180 : 	float z = CPythonBackground::Instance().GetHeight(x, y);

  00081	d9 5d fc	 fstp	 DWORD PTR _z$[ebp]
; File C:\Anka2Project\Anka2Project\Source\Binary\source\UserInterface\PythonApplication.h

; 213  : 			assert(ms_pInstance != nullptr);

  00084	5e		 pop	 esi
  00085	85 c9		 test	 ecx, ecx
  00087	75 1d		 jne	 SHORT $LN11@SetGlobalC
  00089	68 d5 00 00 00	 push	 213			; 000000d5H
  0008e	68 00 00 00 00	 push	 OFFSET ??_C@_1KI@NDOHEKDB@?$AAC?$AA?3?$AA?2?$AAA?$AAn?$AAk?$AAa?$AA2?$AAP?$AAr?$AAo?$AAj?$AAe?$AAc?$AAt@
  00093	68 00 00 00 00	 push	 OFFSET ??_C@_1DA@IANAENLC@?$AAm?$AAs?$AA_?$AAp?$AAI?$AAn?$AAs?$AAt?$AAa?$AAn?$AAc?$AAe?$AA?5?$AA?$CB?$AA?$DN@
  00098	e8 00 00 00 00	 call	 __wassert
  0009d	8b 0d 00 00 00
	00		 mov	 ecx, DWORD PTR ?ms_pInstance@CPythonApplication@@1PAV1@A ; CPythonApplication::ms_pInstance
  000a3	83 c4 0c	 add	 esp, 12			; 0000000cH
$LN11@SetGlobalC:
; File C:\Anka2Project\Anka2Project\Source\Binary\source\UserInterface\PythonApplication.cpp

; 1182 : 	CPythonApplication::Instance().SetCenterPosition(x, y, z);

  000a6	f3 0f 10 45 fc	 movss	 xmm0, DWORD PTR _z$[ebp]
  000ab	83 ec 0c	 sub	 esp, 12			; 0000000cH
  000ae	8b 41 20	 mov	 eax, DWORD PTR [ecx+32]
  000b1	83 c1 20	 add	 ecx, 32			; 00000020H
  000b4	f3 0f 11 44 24
	08		 movss	 DWORD PTR [esp+8], xmm0
  000ba	66 0f 6e 45 0c	 movd	 xmm0, DWORD PTR _y$[ebp]
  000bf	0f 5b c0	 cvtdq2ps xmm0, xmm0
  000c2	f3 0f 11 44 24
	04		 movss	 DWORD PTR [esp+4], xmm0
  000c8	66 0f 6e 45 08	 movd	 xmm0, DWORD PTR _x$[ebp]
  000cd	0f 5b c0	 cvtdq2ps xmm0, xmm0
  000d0	f3 0f 11 04 24	 movss	 DWORD PTR [esp], xmm0
  000d5	ff 50 18	 call	 DWORD PTR [eax+24]

; 1183 : }

  000d8	8b e5		 mov	 esp, ebp
  000da	5d		 pop	 ebp
  000db	c2 08 00	 ret	 8
?SetGlobalCenterPosition@CPythonApplication@@QAEXJJ@Z ENDP ; CPythonApplication::SetGlobalCenterPosition
_TEXT	ENDS
; Function compile flags: /Ogtp
; File C:\Anka2Project\Anka2Project\Source\Binary\source\UserInterface\PythonApplication.cpp
;	COMDAT ?FlashApplication@CPythonApplication@@QAEXXZ
_TEXT	SEGMENT
_fi$ = -20						; size = 20
?FlashApplication@CPythonApplication@@QAEXXZ PROC	; CPythonApplication::FlashApplication, COMDAT
; _this$ = ecx

; 1278 : {

  00000	55		 push	 ebp
  00001	8b ec		 mov	 ebp, esp
  00003	83 ec 14	 sub	 esp, 20			; 00000014H

; 1279 : 	HWND hWnd = GetWindowHandle();

  00006	e8 00 00 00 00	 call	 ?GetWindowHandle@CMSWindow@@QAEPAUHWND__@@XZ ; CMSWindow::GetWindowHandle

; 1280 : 	FLASHWINFO fi;
; 1281 : 	fi.cbSize = sizeof(FLASHWINFO);
; 1282 : 	fi.hwnd = hWnd;

  0000b	89 45 f0	 mov	 DWORD PTR _fi$[ebp+4], eax

; 1283 : 	fi.dwFlags = FLASHW_ALL | FLASHW_TIMERNOFG;
; 1284 : 	fi.uCount = 0;
; 1285 : 	fi.dwTimeout = 0;
; 1286 : 	FlashWindowEx(&fi);

  0000e	8d 45 ec	 lea	 eax, DWORD PTR _fi$[ebp]
  00011	50		 push	 eax
  00012	c7 45 ec 14 00
	00 00		 mov	 DWORD PTR _fi$[ebp], 20	; 00000014H
  00019	c7 45 f4 0f 00
	00 00		 mov	 DWORD PTR _fi$[ebp+8], 15 ; 0000000fH
  00020	c7 45 f8 00 00
	00 00		 mov	 DWORD PTR _fi$[ebp+12], 0
  00027	c7 45 fc 00 00
	00 00		 mov	 DWORD PTR _fi$[ebp+16], 0
  0002e	ff 15 00 00 00
	00		 call	 DWORD PTR __imp__FlashWindowEx@4

; 1287 : }

  00034	8b e5		 mov	 esp, ebp
  00036	5d		 pop	 ebp
  00037	c3		 ret	 0
?FlashApplication@CPythonApplication@@QAEXXZ ENDP	; CPythonApplication::FlashApplication
_TEXT	ENDS
; Function compile flags: /Ogtp
; File C:\Anka2Project\Anka2Project\Source\Binary\source\UserInterface\PythonApplication.cpp
;	COMDAT ?MultiFarmBlockIcon@CPythonApplication@@QAEXE@Z
_TEXT	SEGMENT
_bStatus$ = 8						; size = 1
?MultiFarmBlockIcon@CPythonApplication@@QAEXE@Z PROC	; CPythonApplication::MultiFarmBlockIcon, COMDAT
; _this$ = ecx

; 1292 : {

  00000	55		 push	 ebp
  00001	8b ec		 mov	 ebp, esp

; 1293 : 	HICON exeIcon = bStatus ? LoadIcon(ms_hInstance, MAKEINTRESOURCE(IDI_METIN2)) : LoadIcon(ms_hInstance, MAKEINTRESOURCE(BLOCK_METIN2));

  00003	80 7d 08 00	 cmp	 BYTE PTR _bStatus$[ebp], 0
  00007	56		 push	 esi
  00008	8b f1		 mov	 esi, ecx
  0000a	74 04		 je	 SHORT $LN3@MultiFarmB
  0000c	6a 64		 push	 100			; 00000064H
  0000e	eb 05		 jmp	 SHORT $LN6@MultiFarmB
$LN3@MultiFarmB:
  00010	68 c7 00 00 00	 push	 199			; 000000c7H
$LN6@MultiFarmB:

; 1294 : 	SendMessage(GetWindowHandle(), WM_SETICON, ICON_BIG, (LPARAM)exeIcon);

  00015	ff 35 00 00 00
	00		 push	 DWORD PTR ?ms_hInstance@CMSWindow@@1PAUHINSTANCE__@@A ; CMSWindow::ms_hInstance
  0001b	ff 15 00 00 00
	00		 call	 DWORD PTR __imp__LoadIconA@8
  00021	50		 push	 eax
  00022	6a 01		 push	 1
  00024	68 80 00 00 00	 push	 128			; 00000080H
  00029	8b ce		 mov	 ecx, esi
  0002b	e8 00 00 00 00	 call	 ?GetWindowHandle@CMSWindow@@QAEPAUHWND__@@XZ ; CMSWindow::GetWindowHandle
  00030	50		 push	 eax
  00031	ff 15 00 00 00
	00		 call	 DWORD PTR __imp__SendMessageA@16
  00037	5e		 pop	 esi

; 1295 : }

  00038	5d		 pop	 ebp
  00039	c2 04 00	 ret	 4
?MultiFarmBlockIcon@CPythonApplication@@QAEXE@Z ENDP	; CPythonApplication::MultiFarmBlockIcon
_TEXT	ENDS
; Function compile flags: /Ogtp
; File C:\Anka2Project\Anka2Project\Source\Binary\source\UserInterface\PythonApplication.cpp
; File C:\Anka2Project\Anka2Project\Source\Binary\source\eterBase\Singleton.h
; File C:\Anka2Project\Anka2Project\Source\Binary\source\UserInterface\PythonApplication.cpp
;	COMDAT ?Destroy@CPythonApplication@@QAEXXZ
_TEXT	SEGMENT
_sStickKeys$ = -8					; size = 8
?Destroy@CPythonApplication@@QAEXXZ PROC		; CPythonApplication::Destroy, COMDAT
; _this$ = ecx

; 1299 : {

  00000	55		 push	 ebp
  00001	8b ec		 mov	 ebp, esp
  00003	83 ec 0c	 sub	 esp, 12			; 0000000cH
  00006	56		 push	 esi
  00007	8b f1		 mov	 esi, ecx

; 1300 : 	WebBrowser_Destroy();

  00009	e8 00 00 00 00	 call	 _WebBrowser_Destroy

; 1301 : 
; 1302 : 	CGrannyMaterial::DestroySphereMap();

  0000e	e8 00 00 00 00	 call	 ?DestroySphereMap@CGrannyMaterial@@SAXXZ ; CGrannyMaterial::DestroySphereMap

; 1303 : 
; 1304 : 	m_kWndMgr.Destroy();

  00013	8d 8e f8 01 00
	00		 lea	 ecx, DWORD PTR [esi+504]
  00019	e8 00 00 00 00	 call	 ?Destroy@CWindowManager@UI@@QAEXXZ ; UI::CWindowManager::Destroy
; File C:\Anka2Project\Anka2Project\Source\Binary\source\eterBase\Singleton.h

; 26   : 		assert(ms_singleton);

  0001e	8b 0d 00 00 00
	00		 mov	 ecx, DWORD PTR ?ms_singleton@?$CSingleton@VCPythonSystem@@@@0PAVCPythonSystem@@A ; CSingleton<CPythonSystem>::ms_singleton
  00024	85 c9		 test	 ecx, ecx
  00026	75 1a		 jne	 SHORT $LN5@Destroy
  00028	6a 1a		 push	 26			; 0000001aH
  0002a	68 00 00 00 00	 push	 OFFSET ??_C@_1IO@CAJLEEOI@?$AAC?$AA?3?$AA?2?$AAA?$AAn?$AAk?$AAa?$AA2?$AAP?$AAr?$AAo?$AAj?$AAe?$AAc?$AAt@
  0002f	68 00 00 00 00	 push	 OFFSET ??_C@_1BK@FMEHPMFE@?$AAm?$AAs?$AA_?$AAs?$AAi?$AAn?$AAg?$AAl?$AAe?$AAt?$AAo?$AAn@
  00034	e8 00 00 00 00	 call	 __wassert
  00039	8b 0d 00 00 00
	00		 mov	 ecx, DWORD PTR ?ms_singleton@?$CSingleton@VCPythonSystem@@@@0PAVCPythonSystem@@A ; CSingleton<CPythonSystem>::ms_singleton
  0003f	83 c4 0c	 add	 esp, 12			; 0000000cH
$LN5@Destroy:
; File C:\Anka2Project\Anka2Project\Source\Binary\source\UserInterface\PythonApplication.cpp

; 1306 : 	CPythonSystem::Instance().SaveConfig();

  00042	e8 00 00 00 00	 call	 ?SaveConfig@CPythonSystem@@QAE_NXZ ; CPythonSystem::SaveConfig

; 1307 : 
; 1308 : #ifdef ENABLE_RENDER_TARGET
; 1309 : 	m_kRenderTargetManager.Destroy();

  00047	8d 8e 50 d3 03
	00		 lea	 ecx, DWORD PTR [esi+250704]
  0004d	e8 00 00 00 00	 call	 ?Destroy@CRenderTargetManager@@QAEXXZ ; CRenderTargetManager::Destroy

; 1310 : #endif
; 1311 : 
; 1312 : 	DestroyCollisionInstanceSystem();

  00052	e8 00 00 00 00	 call	 ?DestroyCollisionInstanceSystem@@YAXXZ ; DestroyCollisionInstanceSystem

; 1313 : 
; 1314 : 	m_pySystem.SaveInterfaceStatus();

  00057	8d 8e d0 aa 03
	00		 lea	 ecx, DWORD PTR [esi+240336]
  0005d	e8 00 00 00 00	 call	 ?SaveInterfaceStatus@CPythonSystem@@QAEXXZ ; CPythonSystem::SaveInterfaceStatus

; 1315 : 
; 1316 : 	m_pyEventManager.Destroy();

  00062	8d 8e 38 8d 03
	00		 lea	 ecx, DWORD PTR [esi+232760]
  00068	e8 00 00 00 00	 call	 ?Destroy@CPythonEventManager@@QAEXXZ ; CPythonEventManager::Destroy

; 1317 : 	m_FlyingManager.Destroy();

  0006d	8d 8e 64 01 00
	00		 lea	 ecx, DWORD PTR [esi+356]
  00073	e8 00 00 00 00	 call	 ?Destroy@CFlyingManager@@QAEXXZ ; CFlyingManager::Destroy

; 1318 : 
; 1319 : 	m_pyMiniMap.Destroy();

  00078	8d 8e 2c 7f 03
	00		 lea	 ecx, DWORD PTR [esi+229164]
  0007e	e8 00 00 00 00	 call	 ?Destroy@CPythonMiniMap@@QAEXXZ ; CPythonMiniMap::Destroy

; 1320 : 
; 1321 : 	m_pyTextTail.Destroy();

  00083	8d 8e c0 7e 03
	00		 lea	 ecx, DWORD PTR [esi+229056]
  00089	e8 00 00 00 00	 call	 ?Destroy@CPythonTextTail@@QAEXXZ ; CPythonTextTail::Destroy

; 1322 : 	m_pyChat.Destroy();

  0008e	8d 8e 90 7d 03
	00		 lea	 ecx, DWORD PTR [esi+228752]
  00094	e8 00 00 00 00	 call	 ?Destroy@CPythonChat@@QAEXXZ ; CPythonChat::Destroy

; 1323 : 	m_kChrMgr.Destroy();

  00099	8b 86 c8 02 00
	00		 mov	 eax, DWORD PTR [esi+712]
  0009f	8d 8e c8 02 00
	00		 lea	 ecx, DWORD PTR [esi+712]
  000a5	ff 50 04	 call	 DWORD PTR [eax+4]

; 1324 : 	m_RaceManager.Destroy();

  000a8	8d 8e 88 01 00
	00		 lea	 ecx, DWORD PTR [esi+392]
  000ae	e8 00 00 00 00	 call	 ?Destroy@CRaceManager@@QAEXXZ ; CRaceManager::Destroy

; 1325 : 
; 1326 : 	m_pyItem.Destroy();

  000b3	8d 8e 34 3f 02
	00		 lea	 ecx, DWORD PTR [esi+147252]
  000b9	e8 00 00 00 00	 call	 ?Destroy@CPythonItem@@QAEXXZ ; CPythonItem::Destroy

; 1327 : 	m_kItemMgr.Destroy();

  000be	8d 8e dc 01 00
	00		 lea	 ecx, DWORD PTR [esi+476]
  000c4	e8 00 00 00 00	 call	 ?Destroy@CItemManager@@QAEXXZ ; CItemManager::Destroy

; 1328 : 
; 1329 : 	m_pyBackground.Destroy();

  000c9	8d 8e b8 8d 03
	00		 lea	 ecx, DWORD PTR [esi+232888]
  000cf	e8 00 00 00 00	 call	 ?Destroy@CPythonBackground@@QAEXXZ ; CPythonBackground::Destroy

; 1330 : 
; 1331 : 	m_kEftMgr.Destroy();

  000d4	8d 8e 9c 02 00
	00		 lea	 ecx, DWORD PTR [esi+668]
  000da	e8 00 00 00 00	 call	 ?Destroy@CEffectManager@@QAEXXZ ; CEffectManager::Destroy

; 1332 : 	m_LightManager.Destroy();

  000df	8d 8e 84 00 00
	00		 lea	 ecx, DWORD PTR [esi+132]
  000e5	e8 00 00 00 00	 call	 ?Destroy@CLightManager@@QAEXXZ ; CLightManager::Destroy

; 1333 : 
; 1334 : 	DefaultFont_Cleanup();

  000ea	e8 00 00 00 00	 call	 ?DefaultFont_Cleanup@@YAXXZ ; DefaultFont_Cleanup

; 1335 : 
; 1336 : 	GrannyDestroySharedDeformBuffer();

  000ef	e8 00 00 00 00	 call	 ?GrannyDestroySharedDeformBuffer@@YAXXZ ; GrannyDestroySharedDeformBuffer

; 1337 : 
; 1338 : 	m_pyGraphic.Destroy();

  000f4	8d 8e 84 07 00
	00		 lea	 ecx, DWORD PTR [esi+1924]
  000fa	e8 00 00 00 00	 call	 ?Destroy@CPythonGraphic@@QAEXXZ ; CPythonGraphic::Destroy

; 1339 : 
; 1340 : #ifdef ENABLE_DISCORD_RPC
; 1341 : 	m_pyNetworkStream.Discord_Close();

  000ff	e8 00 00 00 00	 call	 ?Discord_Close@CPythonNetworkStream@@QAEXXZ ; CPythonNetworkStream::Discord_Close

; 1342 : #endif
; 1343 : 
; 1344 : 	m_pyRes.Destroy();

  00104	8d 8e 14 a4 03
	00		 lea	 ecx, DWORD PTR [esi+238612]
  0010a	e8 00 00 00 00	 call	 ?Destroy@CPythonResource@@QAEXXZ ; CPythonResource::Destroy

; 1345 : 
; 1346 : 	m_kGuildMarkDownloader.Disconnect();

  0010f	8d 8e 88 a5 03
	00		 lea	 ecx, DWORD PTR [esi+238984]
  00115	e8 00 00 00 00	 call	 ?Disconnect@CNetworkStream@@QAEXXZ ; CNetworkStream::Disconnect

; 1347 : 
; 1348 : 	CGrannyModelInstance::DestroySystem();

  0011a	e8 00 00 00 00	 call	 ?DestroySystem@CGrannyModelInstance@@SAXXZ ; CGrannyModelInstance::DestroySystem

; 1349 : 	CGraphicImageInstance::DestroySystem();

  0011f	e8 00 00 00 00	 call	 ?DestroySystem@CGraphicImageInstance@@SAXXZ ; CGraphicImageInstance::DestroySystem

; 1350 : 
; 1351 : 	m_SoundManager.Destroy();

  00124	8d 8e f0 00 00
	00		 lea	 ecx, DWORD PTR [esi+240]
  0012a	e8 00 00 00 00	 call	 ?Destroy@CSoundManager@@QAEXXZ ; CSoundManager::Destroy

; 1352 : 	m_grpDevice.Destroy();

  0012f	8d 8e b4 aa 03
	00		 lea	 ecx, DWORD PTR [esi+240308]
  00135	e8 00 00 00 00	 call	 ?Destroy@CGraphicDevice@@QAEXXZ ; CGraphicDevice::Destroy

; 1353 : 
; 1354 : 	CAttributeInstance::DestroySystem();

  0013a	e8 00 00 00 00	 call	 ?DestroySystem@CAttributeInstance@@SAXXZ ; CAttributeInstance::DestroySystem

; 1355 : 	CTextFileLoader::DestroySystem();

  0013f	e8 00 00 00 00	 call	 ?DestroySystem@CTextFileLoader@@SAXXZ ; CTextFileLoader::DestroySystem

; 1356 : 	DestroyCursors();

  00144	8b ce		 mov	 ecx, esi
  00146	e8 00 00 00 00	 call	 ?DestroyCursors@CPythonApplication@@QAEXXZ ; CPythonApplication::DestroyCursors

; 1357 : 
; 1358 : 	CMSApplication::Destroy();

  0014b	8b ce		 mov	 ecx, esi
  0014d	e8 00 00 00 00	 call	 ?Destroy@CMSWindow@@QAEXXZ ; CMSWindow::Destroy

; 1359 : 
; 1360 : 	STICKYKEYS sStickKeys;
; 1361 : 	memset(&sStickKeys, 0, sizeof(sStickKeys));
; 1362 : 	sStickKeys.cbSize = sizeof(sStickKeys);
; 1363 : 	sStickKeys.dwFlags = m_dwStickyKeysFlag;

  00152	8b 86 f8 d7 03
	00		 mov	 eax, DWORD PTR [esi+251896]

; 1364 : 	SystemParametersInfo( SPI_SETSTICKYKEYS, sizeof(sStickKeys), &sStickKeys, 0 );

  00158	6a 00		 push	 0
  0015a	89 45 fc	 mov	 DWORD PTR _sStickKeys$[ebp+4], eax
  0015d	8d 45 f8	 lea	 eax, DWORD PTR _sStickKeys$[ebp]
  00160	50		 push	 eax
  00161	6a 08		 push	 8
  00163	6a 3b		 push	 59			; 0000003bH
  00165	c7 45 f8 08 00
	00 00		 mov	 DWORD PTR _sStickKeys$[ebp], 8
  0016c	ff 15 00 00 00
	00		 call	 DWORD PTR __imp__SystemParametersInfoA@16

; 1365 : }

  00172	5e		 pop	 esi
  00173	8b e5		 mov	 esp, ebp
  00175	5d		 pop	 ebp
  00176	c3		 ret	 0
?Destroy@CPythonApplication@@QAEXXZ ENDP		; CPythonApplication::Destroy
_TEXT	ENDS
END
