; Listing generated by Microsoft (R) Optimizing Compiler Version 19.44.35219.0 

	TITLE	c:\anka2project\anka2project\source\binary\vs_files\userinterface\release\pythonapplicationevent.obj
	.686P
	.XMM
	include listing.inc
	.model	flat

INCLUDELIB OLDNAMES

PUBLIC	??_C@_04INACLLOK@?$CIii?$CJ@			; `string'
PUBLIC	??_C@_06LMAGPFNF@Update@			; `string'
PUBLIC	??_C@_06EPLDPNDB@Render@			; `string'
EXTRN	?RunPressExitKey@CWindowManager@UI@@QAEXXZ:PROC	; UI::CWindowManager::RunPressExitKey
EXTRN	?RunCloseReading@CWindowManager@UI@@QAEXXZ:PROC	; UI::CWindowManager::RunCloseReading
EXTRN	?RunOpenReading@CWindowManager@UI@@QAEXXZ:PROC	; UI::CWindowManager::RunOpenReading
EXTRN	?RunCloseCandidate@CWindowManager@UI@@QAEXXZ:PROC ; UI::CWindowManager::RunCloseCandidate
EXTRN	?RunOpenCandidate@CWindowManager@UI@@QAEXXZ:PROC ; UI::CWindowManager::RunOpenCandidate
EXTRN	?RunChangeCodePage@CWindowManager@UI@@QAEXXZ:PROC ; UI::CWindowManager::RunChangeCodePage
EXTRN	?RunIMEKeyDown@CWindowManager@UI@@QAEXH@Z:PROC	; UI::CWindowManager::RunIMEKeyDown
EXTRN	?RunIMEReturnEvent@CWindowManager@UI@@QAEXXZ:PROC ; UI::CWindowManager::RunIMEReturnEvent
EXTRN	?RunIMETabEvent@CWindowManager@UI@@QAEXXZ:PROC	; UI::CWindowManager::RunIMETabEvent
EXTRN	?RunIMEUpdate@CWindowManager@UI@@QAEXXZ:PROC	; UI::CWindowManager::RunIMEUpdate
EXTRN	?RunKeyUp@CWindowManager@UI@@QAEXH@Z:PROC	; UI::CWindowManager::RunKeyUp
EXTRN	?RunKeyDown@CWindowManager@UI@@QAEXH@Z:PROC	; UI::CWindowManager::RunKeyDown
EXTRN	?RunPressEscapeKey@CWindowManager@UI@@QAEXXZ:PROC ; UI::CWindowManager::RunPressEscapeKey
EXTRN	?RunMouseRightButtonUp@CWindowManager@UI@@QAEXJJ@Z:PROC ; UI::CWindowManager::RunMouseRightButtonUp
EXTRN	?RunMouseRightButtonDown@CWindowManager@UI@@QAEXJJ@Z:PROC ; UI::CWindowManager::RunMouseRightButtonDown
EXTRN	?RunMouseLeftButtonDoubleClick@CWindowManager@UI@@QAEXJJ@Z:PROC ; UI::CWindowManager::RunMouseLeftButtonDoubleClick
EXTRN	?RunMouseLeftButtonUp@CWindowManager@UI@@QAEXJJ@Z:PROC ; UI::CWindowManager::RunMouseLeftButtonUp
EXTRN	?RunMouseLeftButtonDown@CWindowManager@UI@@QAEXJJ@Z:PROC ; UI::CWindowManager::RunMouseLeftButtonDown
EXTRN	?RunMouseMove@CWindowManager@UI@@QAEXJJ@Z:PROC	; UI::CWindowManager::RunMouseMove
EXTRN	?SetResolution@CWindowManager@UI@@QAEXHH@Z:PROC	; UI::CWindowManager::SetResolution
EXTRN	__imp__SetCursorPos@8:PROC
EXTRN	__imp__ClientToScreen@8:PROC
EXTRN	?Drag@CCamera@@QAE_NHHPAUtagPOINT@@@Z:PROC	; CCamera::Drag
EXTRN	?Wheel@CCamera@@QAEXH@Z:PROC			; CCamera::Wheel
EXTRN	?RunMouseWheelEvent@CWindowManager@UI@@QAE_NJ@Z:PROC ; UI::CWindowManager::RunMouseWheelEvent
EXTRN	?EndDrag@CCamera@@QAE_NXZ:PROC			; CCamera::EndDrag
EXTRN	?BeginDrag@CCamera@@QAEXHH@Z:PROC		; CCamera::BeginDrag
EXTRN	?Render@CWindowManager@UI@@QAEXXZ:PROC		; UI::CWindowManager::Render
EXTRN	?Update@CWindowManager@UI@@QAEXXZ:PROC		; UI::CWindowManager::Update
EXTRN	?IsMapReady@CMapManager@@QAE_NXZ:PROC		; CMapManager::IsMapReady
;	COMDAT ??_C@_06EPLDPNDB@Render@
CONST	SEGMENT
??_C@_06EPLDPNDB@Render@ DB 'Render', 00H		; `string'
CONST	ENDS
;	COMDAT ??_C@_06LMAGPFNF@Update@
CONST	SEGMENT
??_C@_06LMAGPFNF@Update@ DB 'Update', 00H		; `string'
CONST	ENDS
;	COMDAT ??_C@_04INACLLOK@?$CIii?$CJ@
CONST	SEGMENT
??_C@_04INACLLOK@?$CIii?$CJ@ DB '(ii)', 00H		; `string'
PUBLIC	?RunPressExitKey@CPythonApplication@@QAEXXZ	; CPythonApplication::RunPressExitKey
PUBLIC	?OnIMEKeyDown@CPythonApplication@@IAEXH@Z	; CPythonApplication::OnIMEKeyDown
PUBLIC	?OnMouseRightButtonUp@CPythonApplication@@IAEXHH@Z ; CPythonApplication::OnMouseRightButtonUp
PUBLIC	?OnMouseRightButtonDown@CPythonApplication@@IAEXHH@Z ; CPythonApplication::OnMouseRightButtonDown
PUBLIC	?OnMouseLeftButtonDoubleClick@CPythonApplication@@IAEXHH@Z ; CPythonApplication::OnMouseLeftButtonDoubleClick
PUBLIC	?OnMouseLeftButtonUp@CPythonApplication@@IAEXHH@Z ; CPythonApplication::OnMouseLeftButtonUp
PUBLIC	?OnMouseLeftButtonDown@CPythonApplication@@IAEXHH@Z ; CPythonApplication::OnMouseLeftButtonDown
PUBLIC	?OnMouseWheel@CPythonApplication@@IAEXH@Z	; CPythonApplication::OnMouseWheel
PUBLIC	?OnMouseMiddleButtonUp@CPythonApplication@@IAEXHH@Z ; CPythonApplication::OnMouseMiddleButtonUp
PUBLIC	?OnMouseMove@CPythonApplication@@IAEXHH@Z	; CPythonApplication::OnMouseMove
PUBLIC	?OnCameraUpdate@CPythonApplication@@IAEXXZ	; CPythonApplication::OnCameraUpdate
PUBLIC	?OnMouseUpdate@CPythonApplication@@IAEXXZ	; CPythonApplication::OnMouseUpdate
PUBLIC	?OnUIUpdate@CPythonApplication@@IAEXXZ		; CPythonApplication::OnUIUpdate
PUBLIC	?OnUIRender@CPythonApplication@@IAEXXZ		; CPythonApplication::OnUIRender
PUBLIC	?OnMouseRender@CPythonApplication@@IAEXXZ	; CPythonApplication::OnMouseRender
PUBLIC	?OnSizeChange@CPythonApplication@@IAEXHH@Z	; CPythonApplication::OnSizeChange
PUBLIC	?OnKeyDown@CPythonApplication@@MAEXH@Z		; CPythonApplication::OnKeyDown
PUBLIC	?OnKeyUp@CPythonApplication@@MAEXH@Z		; CPythonApplication::OnKeyUp
PUBLIC	?RunIMEUpdate@CPythonApplication@@UAEXXZ	; CPythonApplication::RunIMEUpdate
PUBLIC	?RunIMETabEvent@CPythonApplication@@UAEXXZ	; CPythonApplication::RunIMETabEvent
PUBLIC	?RunIMEReturnEvent@CPythonApplication@@UAEXXZ	; CPythonApplication::RunIMEReturnEvent
PUBLIC	?RunIMEChangeCodePage@CPythonApplication@@UAEXXZ ; CPythonApplication::RunIMEChangeCodePage
PUBLIC	?RunIMEOpenCandidateListEvent@CPythonApplication@@UAEXXZ ; CPythonApplication::RunIMEOpenCandidateListEvent
PUBLIC	?RunIMECloseCandidateListEvent@CPythonApplication@@UAEXXZ ; CPythonApplication::RunIMECloseCandidateListEvent
PUBLIC	?RunIMEOpenReadingWndEvent@CPythonApplication@@UAEXXZ ; CPythonApplication::RunIMEOpenReadingWndEvent
PUBLIC	?RunIMECloseReadingWndEvent@CPythonApplication@@UAEXXZ ; CPythonApplication::RunIMECloseReadingWndEvent
?vecDropSoundFileName@@3V?$array@U?$pair@KV?$basic_string@DU?$char_traits@D@std@@V?$allocator@D@2@@std@@@std@@$04@std@@B DB 08cH DUP (?) ; vecDropSoundFileName
?vecEffectList@@3V?$vector@V?$tuple@IPBDPBD_N@std@@V?$allocator@V?$tuple@IPBDPBD_N@std@@@2@@std@@B DB 0cH DUP (?) ; vecEffectList
?characterNameColors@@3V?$map@EV?$array@E$02@std@@U?$less@E@2@V?$allocator@U?$pair@$$CBEV?$array@E$02@std@@@std@@@2@@std@@B DQ 01H DUP (?) ; characterNameColors
?characterTitleColors@@3V?$map@EV?$array@E$02@std@@U?$less@E@2@V?$allocator@U?$pair@$$CBEV?$array@E$02@std@@@std@@@2@@std@@B DQ 01H DUP (?) ; characterTitleColors
?characterTitleSystemColors@@3V?$map@EV?$array@E$02@std@@U?$less@E@2@V?$allocator@U?$pair@$$CBEV?$array@E$02@std@@@std@@@2@@std@@B DQ 01H DUP (?) ; characterTitleSystemColors
?emotionIcons@@3V?$map@EPBDU?$less@E@std@@V?$allocator@U?$pair@$$CBEPBD@std@@@2@@std@@B DQ 01H DUP (?) ; emotionIcons
?skillIndexes@@3V?$map@EV?$map@EV?$vector@EV?$allocator@E@std@@@std@@U?$less@E@2@V?$allocator@U?$pair@$$CBEV?$vector@EV?$allocator@E@std@@@std@@@std@@@2@@std@@U?$less@E@2@V?$allocator@U?$pair@$$CBEV?$map@EV?$vector@EV?$allocator@E@std@@@std@@U?$less@E@2@V?$allocator@U?$pair@$$CBEV?$vector@EV?$allocator@E@std@@@std@@@std@@@2@@std@@@std@@@2@@std@@B DQ 01H DUP (?) ; skillIndexes
?guildSkills@@3V?$map@V?$basic_string@DU?$char_traits@D@std@@V?$allocator@D@2@@std@@V?$vector@EV?$allocator@E@std@@@2@U?$less@V?$basic_string@DU?$char_traits@D@std@@V?$allocator@D@2@@std@@@2@V?$allocator@U?$pair@$$CBV?$basic_string@DU?$char_traits@D@std@@V?$allocator@D@2@@std@@V?$vector@EV?$allocator@E@std@@@2@@std@@@2@@std@@B DQ 01H DUP (?) ; guildSkills
_BSS	ENDS
;	COMDAT xdata$x
xdata$x	SEGMENT
__ehfuncinfo$??__EvecUseSoundFileName@@YAXXZ DQ 00000000619930522r ; 1.2944e-313
	DD	FLAT:__unwindtable$??__EvecUseSoundFileName@@YAXXZ
	DQ	00000000000000000r		; 0
	DQ	00000000000000000r		; 0
	DQ	00000000100000000r		; 2.122e-314
__unwindtable$??__EvecUseSoundFileName@@YAXXZ DD 0ffffffffH
	DD	FLAT:__unwindfunclet$??__EvecUseSoundFileName@@YAXXZ$0
	DD	00H
	DD	FLAT:__unwindfunclet$??__EvecUseSoundFileName@@YAXXZ$1
	DD	01H
	DD	FLAT:__unwindfunclet$??__EvecUseSoundFileName@@YAXXZ$2
	DD	02H
	DD	FLAT:__unwindfunclet$??__EvecUseSoundFileName@@YAXXZ$3
	DD	03H
	DD	FLAT:__unwindfunclet$??__EvecUseSoundFileName@@YAXXZ$4
	DD	04H
	DD	FLAT:__unwindfunclet$??__EvecUseSoundFileName@@YAXXZ$5
xdata$x	ENDS
;	COMDAT xdata$x
xdata$x	SEGMENT
__ehfuncinfo$??__FvecUseSoundFileName@@YAXXZ DQ 00000000119930522r ; 2.33398e-314
	DD	FLAT:__unwindtable$??__FvecUseSoundFileName@@YAXXZ
	DQ	00000000000000000r		; 0
	DQ	00000000000000000r		; 0
	DQ	00000000100000000r		; 2.122e-314
__unwindtable$??__FvecUseSoundFileName@@YAXXZ DD 0ffffffffH
	DD	FLAT:___std_terminate
xdata$x	ENDS
;	COMDAT xdata$x
xdata$x	SEGMENT
__ehfuncinfo$??__EvecDropSoundFileName@@YAXXZ DQ 00000000419930522r ; 8.69997e-314
	DD	FLAT:__unwindtable$??__EvecDropSoundFileName@@YAXXZ
	DQ	00000000000000000r		; 0
	DQ	00000000000000000r		; 0
	DQ	00000000100000000r		; 2.122e-314
__unwindtable$??__EvecDropSoundFileName@@YAXXZ DD 0ffffffffH
	DD	FLAT:__unwindfunclet$??__EvecDropSoundFileName@@YAXXZ$0
	DD	00H
	DD	FLAT:__unwindfunclet$??__EvecDropSoundFileName@@YAXXZ$1
	DD	01H
	DD	FLAT:__unwindfunclet$??__EvecDropSoundFileName@@YAXXZ$2
	DD	02H
	DD	FLAT:__unwindfunclet$??__EvecDropSoundFileName@@YAXXZ$3
xdata$x	ENDS
;	COMDAT xdata$x
xdata$x	SEGMENT
__ehfuncinfo$??__FvecDropSoundFileName@@YAXXZ DQ 00000000119930522r ; 2.33398e-314
	DD	FLAT:__unwindtable$??__FvecDropSoundFileName@@YAXXZ
	DQ	00000000000000000r		; 0
	DQ	00000000000000000r		; 0
	DQ	00000000100000000r		; 2.122e-314
__unwindtable$??__FvecDropSoundFileName@@YAXXZ DD 0ffffffffH
	DD	FLAT:___std_terminate
xdata$x	ENDS
;	COMDAT xdata$x
xdata$x	SEGMENT
__ehfuncinfo$??__EskillIndexes@@YAXXZ DQ 00000002819930522r ; 8.50918e-313
	DD	FLAT:__unwindtable$??__EskillIndexes@@YAXXZ
	DQ	00000000000000000r		; 0
	DQ	00000000000000000r		; 0
	DQ	00000000100000000r		; 2.122e-314
	ORG $+4
__unwindtable$??__EskillIndexes@@YAXXZ DD 0ffffffffH
	DD	FLAT:__unwindfunclet$??__EskillIndexes@@YAXXZ$0
	DD	00H
	DD	FLAT:__unwindfunclet$??__EskillIndexes@@YAXXZ$1
	DD	01H
	DD	FLAT:__unwindfunclet$??__EskillIndexes@@YAXXZ$2
	DD	00H
	DD	FLAT:__unwindfunclet$??__EskillIndexes@@YAXXZ$2
	DD	03H
	DD	FLAT:__unwindfunclet$??__EskillIndexes@@YAXXZ$4
	DD	04H
	DD	FLAT:__unwindfunclet$??__EskillIndexes@@YAXXZ$5
	DD	05H
	DD	FLAT:__unwindfunclet$??__EskillIndexes@@YAXXZ$6
	DD	06H
	DD	FLAT:__unwindfunclet$??__EskillIndexes@@YAXXZ$7
	DD	07H
	DD	FLAT:__unwindfunclet$??__EskillIndexes@@YAXXZ$8
	DD	08H
	DD	FLAT:__unwindfunclet$??__EskillIndexes@@YAXXZ$9
	DD	07H
	DD	FLAT:__unwindfunclet$??__EskillIndexes@@YAXXZ$9
	DD	0aH
	DD	FLAT:__unwindfunclet$??__EskillIndexes@@YAXXZ$11
	DD	0bH
	DD	FLAT:__unwindfunclet$??__EskillIndexes@@YAXXZ$12
	DD	0cH
	DD	FLAT:__unwindfunclet$??__EskillIndexes@@YAXXZ$13
	DD	0dH
	DD	FLAT:__unwindfunclet$??__EskillIndexes@@YAXXZ$14
	DD	0eH
	DD	FLAT:__unwindfunclet$??__EskillIndexes@@YAXXZ$15
	DD	0fH
	DD	FLAT:__unwindfunclet$??__EskillIndexes@@YAXXZ$16
	DD	0eH
	DD	FLAT:__unwindfunclet$??__EskillIndexes@@YAXXZ$16
	DD	011H
	DD	FLAT:__unwindfunclet$??__EskillIndexes@@YAXXZ$18
	DD	012H
	DD	FLAT:__unwindfunclet$??__EskillIndexes@@YAXXZ$19
	DD	013H
	DD	FLAT:__unwindfunclet$??__EskillIndexes@@YAXXZ$20
	DD	014H
	DD	FLAT:__unwindfunclet$??__EskillIndexes@@YAXXZ$21
	DD	015H
	DD	FLAT:__unwindfunclet$??__EskillIndexes@@YAXXZ$22
	DD	016H
	DD	FLAT:__unwindfunclet$??__EskillIndexes@@YAXXZ$23
	DD	015H
	DD	FLAT:__unwindfunclet$??__EskillIndexes@@YAXXZ$23
	DD	018H
	DD	FLAT:__unwindfunclet$??__EskillIndexes@@YAXXZ$25
	DD	019H
	DD	FLAT:__unwindfunclet$??__EskillIndexes@@YAXXZ$26
	DD	05H
	DD	FLAT:__unwindfunclet$??__EskillIndexes@@YAXXZ$7
	DD	01bH
	DD	FLAT:__unwindfunclet$??__EskillIndexes@@YAXXZ$9
	DD	01cH
	DD	FLAT:__unwindfunclet$??__EskillIndexes@@YAXXZ$11
	DD	01dH
	DD	FLAT:__unwindfunclet$??__EskillIndexes@@YAXXZ$12
	DD	01eH
	DD	FLAT:__unwindfunclet$??__EskillIndexes@@YAXXZ$14
	DD	01fH
	DD	FLAT:__unwindfunclet$??__EskillIndexes@@YAXXZ$16
	DD	020H
	DD	FLAT:__unwindfunclet$??__EskillIndexes@@YAXXZ$18
	DD	021H
	DD	FLAT:__unwindfunclet$??__EskillIndexes@@YAXXZ$19
	DD	022H
	DD	FLAT:__unwindfunclet$??__EskillIndexes@@YAXXZ$21
	DD	023H
	DD	FLAT:__unwindfunclet$??__EskillIndexes@@YAXXZ$23
	DD	024H
	DD	FLAT:__unwindfunclet$??__EskillIndexes@@YAXXZ$25
	DD	025H
	DD	FLAT:__unwindfunclet$??__EskillIndexes@@YAXXZ$26
	DD	026H
	DD	FLAT:__unwindfunclet$??__EskillIndexes@@YAXXZ$28
xdata$x	ENDS
;	COMDAT xdata$x
xdata$x	SEGMENT
__ehfuncinfo$??__EguildSkills@@YAXXZ DQ 00000000a19930522r ; 2.14319e-313
	DD	FLAT:__unwindtable$??__EguildSkills@@YAXXZ
	DQ	00000000000000000r		; 0
	DQ	00000000000000000r		; 0
	DQ	00000000100000000r		; 2.122e-314
	ORG $+4
__unwindtable$??__EguildSkills@@YAXXZ DD 0ffffffffH
	DD	FLAT:__unwindfunclet$??__EguildSkills@@YAXXZ$0
	DD	00H
	DD	FLAT:__unwindfunclet$??__EguildSkills@@YAXXZ$1
	DD	01H
	DD	FLAT:__unwindfunclet$??__EguildSkills@@YAXXZ$10
	DD	01H
	DD	FLAT:__unwindfunclet$??__EguildSkills@@YAXXZ$2
	DD	03H
	DD	FLAT:__unwindfunclet$??__EguildSkills@@YAXXZ$3
	DD	04H
	DD	FLAT:__unwindfunclet$??__EguildSkills@@YAXXZ$4
	DD	05H
	DD	FLAT:__unwindfunclet$??__EguildSkills@@YAXXZ$16
	DD	01H
	DD	FLAT:__unwindfunclet$??__EguildSkills@@YAXXZ$3
	DD	07H
	DD	FLAT:__unwindfunclet$??__EguildSkills@@YAXXZ$4
	DD	08H
	DD	FLAT:__unwindfunclet$??__EguildSkills@@YAXXZ$6
	ORG $+4
?vecUseSoundFileName@@3V?$array@U?$pair@KV?$basic_string@DU?$char_traits@D@std@@V?$allocator@D@2@@std@@@std@@$06@std@@B DQ 00000000000000001r ; 4.94066e-324 ; vecUseSoundFileName
	DQ	00000000000000000r		; 0
	DQ	00000000000000000r		; 0
	DQ	00000000000000000r		; 0
	DQ	00000000000000000r		; 0
	DQ	00000000000000000r		; 0
	DQ	00000000000000000r		; 0
	DQ	00000000000000000r		; 0
	DQ	00000000000000000r		; 0
	DQ	00000000000000000r		; 0
	DQ	00000000000000000r		; 0
	DQ	00000000000000000r		; 0
	DQ	00000000000000000r		; 0
	DQ	00000000000000000r		; 0
	DQ	00000000000000000r		; 0
	DQ	00000000000000000r		; 0
	DQ	00000000000000000r		; 0
	DQ	00000000000000000r		; 0
	DQ	00000000000000000r		; 0
	DQ	00000000000000000r		; 0
	DQ	00000000000000000r		; 0
	DQ	00000000000000000r		; 0
	DQ	00000000000000000r		; 0
	DQ	00000000000000000r		; 0
	DD	00H
?vecUseSoundFileName$initializer$@@3P6AXXZA DD FLAT:??__EvecUseSoundFileName@@YAXXZ ; vecUseSoundFileName$initializer$
?vecDropSoundFileName$initializer$@@3P6AXXZA DD FLAT:??__EvecDropSoundFileName@@YAXXZ ; vecDropSoundFileName$initializer$
?vecEffectList$initializer$@@3P6AXXZA DD FLAT:??__EvecEffectList@@YAXXZ ; vecEffectList$initializer$
?characterNameColors$initializer$@@3P6AXXZA DD FLAT:??__EcharacterNameColors@@YAXXZ ; characterNameColors$initializer$
?characterTitleColors$initializer$@@3P6AXXZA DD FLAT:??__EcharacterTitleColors@@YAXXZ ; characterTitleColors$initializer$
?characterTitleSystemColors$initializer$@@3P6AXXZA DD FLAT:??__EcharacterTitleSystemColors@@YAXXZ ; characterTitleSystemColors$initializer$
?emotionIcons$initializer$@@3P6AXXZA DD FLAT:??__EemotionIcons@@YAXXZ ; emotionIcons$initializer$
?skillIndexes$initializer$@@3P6AXXZA DD FLAT:??__EskillIndexes@@YAXXZ ; skillIndexes$initializer$
?guildSkills$initializer$@@3P6AXXZA DD FLAT:??__EguildSkills@@YAXXZ ; guildSkills$initializer$
; Function compile flags: /Ogtp
; File C:\Anka2Project\Anka2Project\Source\Binary\source\UserInterface\PythonApplicationEvent.cpp
;	COMDAT ?OnMouseRender@CPythonApplication@@IAEXXZ
_TEXT	SEGMENT
?OnMouseRender@CPythonApplication@@IAEXXZ PROC		; CPythonApplication::OnMouseRender, COMDAT
; _this$ = ecx

; 217  : {

  00000	56		 push	 esi

; 218  : #ifdef _DEBUG
; 219  : 	if (!m_poMouseHandler)
; 220  : 	{
; 221  : 		return;
; 222  : 	}
; 223  : #endif _DEBUG
; 224  : 
; 225  : 	PyCallClassMemberFunc(m_poMouseHandler, "Render", Py_BuildValue("()"));

  00001	68 00 00 00 00	 push	 OFFSET ??_C@_02HCKGKOFO@?$CI?$CJ@
  00006	8b f1		 mov	 esi, ecx
  00008	ff 15 00 00 00
	00		 call	 DWORD PTR __imp__Py_BuildValue
  0000e	50		 push	 eax
  0000f	68 00 00 00 00	 push	 OFFSET ??_C@_06EPLDPNDB@Render@
  00014	ff b6 a0 d6 03
	00		 push	 DWORD PTR [esi+251552]
  0001a	e8 00 00 00 00	 call	 ?PyCallClassMemberFunc@@YA_NPAU_object@@PBD0@Z ; PyCallClassMemberFunc
  0001f	83 c4 10	 add	 esp, 16			; 00000010H
  00022	5e		 pop	 esi

; 226  : }

  00023	c3		 ret	 0
?OnMouseRender@CPythonApplication@@IAEXXZ ENDP		; CPythonApplication::OnMouseRender
_TEXT	ENDS
; Function compile flags: /Ogtp
; File C:\Anka2Project\Anka2Project\Source\Binary\source\UserInterface\PythonApplicationEvent.cpp
; File C:\Anka2Project\Anka2Project\Source\Binary\source\eterBase\Singleton.h
; File C:\Anka2Project\Anka2Project\Source\Binary\source\UserInterface\PythonApplicationEvent.cpp
;	COMDAT ?OnMouseUpdate@CPythonApplication@@IAEXXZ
_TEXT	SEGMENT
_lx$ = -8						; size = 4
_ly$ = -4						; size = 4
?OnMouseUpdate@CPythonApplication@@IAEXXZ PROC		; CPythonApplication::OnMouseUpdate, COMDAT
; _this$ = ecx

; 202  : {

  00000	55		 push	 ebp
  00001	8b ec		 mov	 ebp, esp
  00003	83 ec 08	 sub	 esp, 8
  00006	56		 push	 esi
  00007	8b f1		 mov	 esi, ecx
; File C:\Anka2Project\Anka2Project\Source\Binary\source\eterBase\Singleton.h

; 26   : 		assert(ms_singleton);

  00009	8b 0d 00 00 00
	00		 mov	 ecx, DWORD PTR ?ms_singleton@?$CSingleton@VCWindowManager@UI@@@@0PAVCWindowManager@UI@@A ; CSingleton<UI::CWindowManager>::ms_singleton
  0000f	85 c9		 test	 ecx, ecx
  00011	75 1a		 jne	 SHORT $LN5@OnMouseUpd
  00013	6a 1a		 push	 26			; 0000001aH
  00015	68 00 00 00 00	 push	 OFFSET ??_C@_1IO@CAJLEEOI@?$AAC?$AA?3?$AA?2?$AAA?$AAn?$AAk?$AAa?$AA2?$AAP?$AAr?$AAo?$AAj?$AAe?$AAc?$AAt@
  0001a	68 00 00 00 00	 push	 OFFSET ??_C@_1BK@FMEHPMFE@?$AAm?$AAs?$AA_?$AAs?$AAi?$AAn?$AAg?$AAl?$AAe?$AAt?$AAo?$AAn@
  0001f	e8 00 00 00 00	 call	 __wassert
  00024	8b 0d 00 00 00
	00		 mov	 ecx, DWORD PTR ?ms_singleton@?$CSingleton@VCWindowManager@UI@@@@0PAVCWindowManager@UI@@A ; CSingleton<UI::CWindowManager>::ms_singleton
  0002a	83 c4 0c	 add	 esp, 12			; 0000000cH
$LN5@OnMouseUpd:
; File C:\Anka2Project\Anka2Project\Source\Binary\source\UserInterface\PythonApplicationEvent.cpp

; 212  : 	rkWndMgr.GetMousePosition(lx, ly);

  0002d	8d 45 fc	 lea	 eax, DWORD PTR _ly$[ebp]
  00030	50		 push	 eax
  00031	8d 45 f8	 lea	 eax, DWORD PTR _lx$[ebp]
  00034	50		 push	 eax
  00035	e8 00 00 00 00	 call	 ?GetMousePosition@CWindowManager@UI@@QAEXAAJ0@Z ; UI::CWindowManager::GetMousePosition

; 213  : 	PyCallClassMemberFunc(m_poMouseHandler, "Update", Py_BuildValue("(ii)", lx, ly));

  0003a	ff 75 fc	 push	 DWORD PTR _ly$[ebp]
  0003d	ff 75 f8	 push	 DWORD PTR _lx$[ebp]
  00040	68 00 00 00 00	 push	 OFFSET ??_C@_04INACLLOK@?$CIii?$CJ@
  00045	ff 15 00 00 00
	00		 call	 DWORD PTR __imp__Py_BuildValue
  0004b	50		 push	 eax
  0004c	68 00 00 00 00	 push	 OFFSET ??_C@_06LMAGPFNF@Update@
  00051	ff b6 a0 d6 03
	00		 push	 DWORD PTR [esi+251552]
  00057	e8 00 00 00 00	 call	 ?PyCallClassMemberFunc@@YA_NPAU_object@@PBD0@Z ; PyCallClassMemberFunc
  0005c	83 c4 18	 add	 esp, 24			; 00000018H
  0005f	5e		 pop	 esi

; 214  : }

  00060	8b e5		 mov	 esp, ebp
  00062	5d		 pop	 ebp
  00063	c3		 ret	 0
?OnMouseUpdate@CPythonApplication@@IAEXXZ ENDP		; CPythonApplication::OnMouseUpdate
_TEXT	ENDS
; Function compile flags: /Ogtp
; File C:\Anka2Project\Anka2Project\Source\Binary\source\UserInterface\PythonApplicationEvent.cpp
; File C:\Anka2Project\Anka2Project\Source\Binary\source\eterBase\Singleton.h
; File C:\Anka2Project\Anka2Project\Source\Binary\source\UserInterface\PythonApplicationEvent.cpp
; File C:\Anka2Project\Anka2Project\Source\Binary\source\eterBase\Singleton.h
; File C:\Anka2Project\Anka2Project\Source\Binary\source\UserInterface\PythonApplicationEvent.cpp
; File C:\Anka2Project\Anka2Project\Source\Binary\source\eterBase\Singleton.h
; File C:\Anka2Project\Anka2Project\Source\Binary\source\UserInterface\PythonApplicationEvent.cpp
; File C:\Anka2Project\Anka2Project\Source\Binary\source\eterBase\Singleton.h
; File C:\Anka2Project\Anka2Project\Source\Binary\source\UserInterface\PythonApplicationEvent.cpp
;	COMDAT ?OnMouseMove@CPythonApplication@@IAEXHH@Z
_TEXT	SEGMENT
_Point$ = -32						; size = 8
_this$GSCopy$1$ = -24					; size = 4
_rcWnd$ = -20						; size = 16
__$ArrayPad$ = -4					; size = 4
_x$ = 8							; size = 4
_y$ = 12						; size = 4
?OnMouseMove@CPythonApplication@@IAEXHH@Z PROC		; CPythonApplication::OnMouseMove, COMDAT
; _this$ = ecx

; 74   : {

  00000	55		 push	 ebp
  00001	8b ec		 mov	 ebp, esp
  00003	83 ec 24	 sub	 esp, 36			; 00000024H
  00006	a1 00 00 00 00	 mov	 eax, DWORD PTR ___security_cookie
  0000b	33 c5		 xor	 eax, ebp
  0000d	89 45 fc	 mov	 DWORD PTR __$ArrayPad$[ebp], eax
  00010	53		 push	 ebx
  00011	89 4d e8	 mov	 DWORD PTR _this$GSCopy$1$[ebp], ecx
; File C:\Anka2Project\Anka2Project\Source\Binary\source\eterBase\Singleton.h

; 26   : 		assert(ms_singleton);

  00014	8b 0d 00 00 00
	00		 mov	 ecx, DWORD PTR ?ms_singleton@?$CSingleton@VCCameraManager@@@@0PAVCCameraManager@@A ; CSingleton<CCameraManager>::ms_singleton
; File C:\Anka2Project\Anka2Project\Source\Binary\source\UserInterface\PythonApplicationEvent.cpp

; 74   : {

  0001a	56		 push	 esi
  0001b	57		 push	 edi
; File C:\Anka2Project\Anka2Project\Source\Binary\source\eterBase\Singleton.h

; 26   : 		assert(ms_singleton);

  0001c	85 c9		 test	 ecx, ecx
  0001e	75 1a		 jne	 SHORT $LN7@OnMouseMov
  00020	6a 1a		 push	 26			; 0000001aH
  00022	68 00 00 00 00	 push	 OFFSET ??_C@_1IO@CAJLEEOI@?$AAC?$AA?3?$AA?2?$AAA?$AAn?$AAk?$AAa?$AA2?$AAP?$AAr?$AAo?$AAj?$AAe?$AAc?$AAt@
  00027	68 00 00 00 00	 push	 OFFSET ??_C@_1BK@FMEHPMFE@?$AAm?$AAs?$AA_?$AAs?$AAi?$AAn?$AAg?$AAl?$AAe?$AAt?$AAo?$AAn@
  0002c	e8 00 00 00 00	 call	 __wassert
  00031	8b 0d 00 00 00
	00		 mov	 ecx, DWORD PTR ?ms_singleton@?$CSingleton@VCCameraManager@@@@0PAVCCameraManager@@A ; CSingleton<CCameraManager>::ms_singleton
  00037	83 c4 0c	 add	 esp, 12			; 0000000cH
$LN7@OnMouseMov:
; File C:\Anka2Project\Anka2Project\Source\Binary\source\UserInterface\PythonApplicationEvent.cpp

; 76   : 	CCamera* pkCmrCur=rkCmrMgr.GetCurrentCamera();

  0003a	e8 00 00 00 00	 call	 ?GetCurrentCamera@CCameraManager@@QAEPAVCCamera@@XZ ; CCameraManager::GetCurrentCamera
  0003f	8b f0		 mov	 esi, eax

; 77   : 	
; 78   : 	POINT Point;
; 79   : 	if (pkCmrCur)

  00041	85 f6		 test	 esi, esi
  00043	74 68		 je	 SHORT $LN14@OnMouseMov
; File C:\Anka2Project\Anka2Project\Source\Binary\source\eterBase\Singleton.h

; 26   : 		assert(ms_singleton);

  00045	8b 0d 00 00 00
	00		 mov	 ecx, DWORD PTR ?ms_singleton@?$CSingleton@VCPythonBackground@@@@0PAVCPythonBackground@@A ; CSingleton<CPythonBackground>::ms_singleton
  0004b	85 c9		 test	 ecx, ecx
  0004d	75 1a		 jne	 SHORT $LN10@OnMouseMov
  0004f	6a 1a		 push	 26			; 0000001aH
  00051	68 00 00 00 00	 push	 OFFSET ??_C@_1IO@CAJLEEOI@?$AAC?$AA?3?$AA?2?$AAA?$AAn?$AAk?$AAa?$AA2?$AAP?$AAr?$AAo?$AAj?$AAe?$AAc?$AAt@
  00056	68 00 00 00 00	 push	 OFFSET ??_C@_1BK@FMEHPMFE@?$AAm?$AAs?$AA_?$AAs?$AAi?$AAn?$AAg?$AAl?$AAe?$AAt?$AAo?$AAn@
  0005b	e8 00 00 00 00	 call	 __wassert
  00060	8b 0d 00 00 00
	00		 mov	 ecx, DWORD PTR ?ms_singleton@?$CSingleton@VCPythonBackground@@@@0PAVCPythonBackground@@A ; CSingleton<CPythonBackground>::ms_singleton
  00066	83 c4 0c	 add	 esp, 12			; 0000000cH
$LN10@OnMouseMov:
; File C:\Anka2Project\Anka2Project\Source\Binary\source\UserInterface\PythonApplicationEvent.cpp

; 81   : 		if ( CPythonBackground::Instance().IsMapReady() && pkCmrCur->Drag(x, y, &Point) )

  00069	e8 00 00 00 00	 call	 ?IsMapReady@CMapManager@@QAE_NXZ ; CMapManager::IsMapReady
  0006e	84 c0		 test	 al, al
  00070	74 3b		 je	 SHORT $LN14@OnMouseMov
  00072	8b 7d 0c	 mov	 edi, DWORD PTR _y$[ebp]
  00075	8d 45 e0	 lea	 eax, DWORD PTR _Point$[ebp]
  00078	8b 5d 08	 mov	 ebx, DWORD PTR _x$[ebp]
  0007b	8b ce		 mov	 ecx, esi
  0007d	50		 push	 eax
  0007e	57		 push	 edi
  0007f	53		 push	 ebx
  00080	e8 00 00 00 00	 call	 ?Drag@CCamera@@QAE_NHHPAUtagPOINT@@@Z ; CCamera::Drag
  00085	8b 75 e8	 mov	 esi, DWORD PTR _this$GSCopy$1$[ebp]
  00088	84 c0		 test	 al, al
  0008a	74 2a		 je	 SHORT $LN3@OnMouseMov

; 82   : 		{
; 83   : 			x = Point.x;

  0008c	8b 5d e0	 mov	 ebx, DWORD PTR _Point$[ebp]

; 84   : 			y = Point.y;
; 85   : 			ClientToScreen(m_hWnd, &Point);

  0008f	8d 45 e0	 lea	 eax, DWORD PTR _Point$[ebp]
  00092	8b 7d e4	 mov	 edi, DWORD PTR _Point$[ebp+4]
  00095	50		 push	 eax
  00096	ff 76 04	 push	 DWORD PTR [esi+4]
  00099	ff 15 00 00 00
	00		 call	 DWORD PTR __imp__ClientToScreen@8

; 86   : 			SetCursorPos(Point.x, Point.y);

  0009f	ff 75 e4	 push	 DWORD PTR _Point$[ebp+4]
  000a2	ff 75 e0	 push	 DWORD PTR _Point$[ebp]
  000a5	ff 15 00 00 00
	00		 call	 DWORD PTR __imp__SetCursorPos@8
  000ab	eb 09		 jmp	 SHORT $LN3@OnMouseMov
$LN14@OnMouseMov:

; 81   : 		if ( CPythonBackground::Instance().IsMapReady() && pkCmrCur->Drag(x, y, &Point) )

  000ad	8b 7d 0c	 mov	 edi, DWORD PTR _y$[ebp]
  000b0	8b 5d 08	 mov	 ebx, DWORD PTR _x$[ebp]
  000b3	8b 75 e8	 mov	 esi, DWORD PTR _this$GSCopy$1$[ebp]
$LN3@OnMouseMov:

; 87   : 		}
; 88   : 	}
; 89   : 	
; 90   : 	RECT rcWnd;
; 91   : 	GetClientRect(&rcWnd);

  000b6	8d 45 ec	 lea	 eax, DWORD PTR _rcWnd$[ebp]
  000b9	8b ce		 mov	 ecx, esi
  000bb	50		 push	 eax
  000bc	e8 00 00 00 00	 call	 ?GetClientRect@CMSWindow@@QAEXPAUtagRECT@@@Z ; CMSWindow::GetClientRect
; File C:\Anka2Project\Anka2Project\Source\Binary\source\eterBase\Singleton.h

; 26   : 		assert(ms_singleton);

  000c1	8b 35 00 00 00
	00		 mov	 esi, DWORD PTR ?ms_singleton@?$CSingleton@VCWindowManager@UI@@@@0PAVCWindowManager@UI@@A ; CSingleton<UI::CWindowManager>::ms_singleton
  000c7	85 f6		 test	 esi, esi
  000c9	75 1a		 jne	 SHORT $LN13@OnMouseMov
  000cb	6a 1a		 push	 26			; 0000001aH
  000cd	68 00 00 00 00	 push	 OFFSET ??_C@_1IO@CAJLEEOI@?$AAC?$AA?3?$AA?2?$AAA?$AAn?$AAk?$AAa?$AA2?$AAP?$AAr?$AAo?$AAj?$AAe?$AAc?$AAt@
  000d2	68 00 00 00 00	 push	 OFFSET ??_C@_1BK@FMEHPMFE@?$AAm?$AAs?$AA_?$AAs?$AAi?$AAn?$AAg?$AAl?$AAe?$AAt?$AAo?$AAn@
  000d7	e8 00 00 00 00	 call	 __wassert
  000dc	8b 35 00 00 00
	00		 mov	 esi, DWORD PTR ?ms_singleton@?$CSingleton@VCWindowManager@UI@@@@0PAVCWindowManager@UI@@A ; CSingleton<UI::CWindowManager>::ms_singleton
  000e2	83 c4 0c	 add	 esp, 12			; 0000000cH
$LN13@OnMouseMov:
; File C:\Anka2Project\Anka2Project\Source\Binary\source\UserInterface\PythonApplicationEvent.cpp

; 94   : 	rkWndMgr.SetResolution(rcWnd.right-rcWnd.left, rcWnd.bottom-rcWnd.top);

  000e5	8b 45 f8	 mov	 eax, DWORD PTR _rcWnd$[ebp+12]
  000e8	8b ce		 mov	 ecx, esi
  000ea	2b 45 f0	 sub	 eax, DWORD PTR _rcWnd$[ebp+4]
  000ed	50		 push	 eax
  000ee	8b 45 f4	 mov	 eax, DWORD PTR _rcWnd$[ebp+8]
  000f1	2b 45 ec	 sub	 eax, DWORD PTR _rcWnd$[ebp]
  000f4	50		 push	 eax
  000f5	e8 00 00 00 00	 call	 ?SetResolution@CWindowManager@UI@@QAEXHH@Z ; UI::CWindowManager::SetResolution

; 95   : 
; 96   : 	rkWndMgr.RunMouseMove(x, y);

  000fa	57		 push	 edi
  000fb	53		 push	 ebx
  000fc	8b ce		 mov	 ecx, esi
  000fe	e8 00 00 00 00	 call	 ?RunMouseMove@CWindowManager@UI@@QAEXJJ@Z ; UI::CWindowManager::RunMouseMove

; 97   : }

  00103	8b 4d fc	 mov	 ecx, DWORD PTR __$ArrayPad$[ebp]
  00106	5f		 pop	 edi
  00107	5e		 pop	 esi
  00108	33 cd		 xor	 ecx, ebp
  0010a	5b		 pop	 ebx
  0010b	e8 00 00 00 00	 call	 @__security_check_cookie@4
  00110	8b e5		 mov	 esp, ebp
  00112	5d		 pop	 ebp
  00113	c2 08 00	 ret	 8
?OnMouseMove@CPythonApplication@@IAEXHH@Z ENDP		; CPythonApplication::OnMouseMove
_TEXT	ENDS
END
