; Listing generated by Microsoft (R) Optimizing Compiler Version 19.44.35219.0 

	TITLE	c:\anka2project\anka2project\source\binary\vs_files\userinterface\release\pythonapplication.obj
	.686P
	.XMM
	include listing.inc
	.model	flat

INCLUDELIB OLDNAMES

PUBLIC	??_C@_1KI@NDOHEKDB@?$AAC?$AA?3?$AA?2?$AAA?$AAn?$AAk?$AAa?$AA2?$AAP?$AAr?$AAo?$AAj?$AAe?$AAc?$AAt@ ; `string'
PUBLIC	??_C@_1DA@IANAENLC@?$AAm?$AAs?$AA_?$AAp?$AAI?$AAn?$AAs?$AAt?$AAa?$AAn?$AAc?$AAe?$AA?5?$AA?$CB?$AA?$DN@ ; `string'
PUBLIC	??_C@_0GN@LLBDNFAM@?$DN?$DN?$DN?$DN?$DN?$DN?$DN?$DN?$DN?$DN?$DN?$DN?$DN?$DN?$DN?$DN?$DN?$DN?$DN?$DN?$DN?$DN?$DN?$DN?$DN?$DN?$DN?$DN?$DN?$DN?$DN@ ; `string'
PUBLIC	??_C@_0M@EHJKIBDK@Abort?$CB?$CB?$CB?$CB?6?6@	; `string'
PUBLIC	??_C@_0BL@GHJOJKGG@FrameSkip?5Adjusting?4?4?4?5?$CFd?6@ ; `string'
PUBLIC	??_C@_0CF@LOPCCCAL@DEVICESTATE_NEEDS_RESET?5?9?5attem@ ; `string'
PUBLIC	??_C@_0BN@OAKBEJJN@CREATE_NO_APPROPRIATE_DEVICE@ ; `string'
PUBLIC	??_C@_0CD@GGLEAAKE@CreateDevice?3?5Enum?5?$CG?5Detect?5fai@ ; `string'
PUBLIC	??_C@_0BC@NKAKBNDM@CREATE_NO_DIRECTX@		; `string'
PUBLIC	??_C@_0DK@GACPAJMM@CreateDevice?3?5DirectX?58?41?5or?5gr@ ; `string'
PUBLIC	??_C@_0O@CMPMDOEH@CREATE_DEVICE@		; `string'
PUBLIC	??_C@_0CK@KMPBIDGP@CreateDevice?3?5GraphicDevice?5cre@ ; `string'
PUBLIC	??_C@_0O@DAEHMKOB@CREATE_FORMAT@		; `string'
PUBLIC	??_C@_0CH@DEBFNBPL@CreateDevice?3?5Change?5the?5screen@ ; `string'
PUBLIC	??_C@_0BC@IMJEDJEA@GetDevCaps?5failed@		; `string'
PUBLIC	??_C@_0CA@DLHDILBB@CreateDevice?3?5GetDevCaps?5failed@ ; `string'
PUBLIC	??_C@_0BD@IHNLMMLJ@GetDevCaps2?5failed@		; `string'
PUBLIC	??_C@_0CB@JLAAEKGJ@CreateDevice?3?5GetDevCaps2?5faile@ ; `string'
PUBLIC	??_C@_0O@BAEJJDKB@UNKNOWN_ERROR@		; `string'
PUBLIC	??_C@_0BN@JAHEKIGK@CreateDevice?3?5Unknown?5Error?$CB@ ; `string'
PUBLIC	??_C@_0O@MBOHINFJ@locale?1common@		; `string'
PUBLIC	??_C@_0BB@EOELDOLA@?$CFs?1item_list?4txt@	; `string'
PUBLIC	??_C@_0BC@NLEJCAEF@?$CFs?1SkillTable?4txt@	; `string'
PUBLIC	??_C@_0BB@JGLJKD@?$CFs?1mob_scale?4txt@		; `string'
PUBLIC	??_C@_0BC@PNKIJLFN@?$CFs?1item_scale?4txt@	; `string'
PUBLIC	??_C@_0BC@GDFAFLKP@?$CFs?1aura_scale?4txt@	; `string'
PUBLIC	??_C@_0BJ@LHDGEGED@?$CFs?1event_reward_list?4txt@ ; `string'
PUBLIC	??_C@_0BF@DDJEMEFH@?$CFs?1locale_string?4txt@	; `string'
PUBLIC	??_C@_0BE@CKCMBMKI@?$CFs?1monster_chat?4txt@	; `string'
PUBLIC	??_C@_0BD@CFBMHOFC@?$CFs?1locale_quiz?4txt@	; `string'
PUBLIC	??_C@_0BJ@CILNFEAO@?$CFs?1guildbuildinglist?4txt@ ; `string'
PUBLIC	??_C@_0BB@EHJGDDML@?$CFs?1pet_skill?4txt@	; `string'
PUBLIC	??_C@_0BA@EPHKNMDA@?$CFs?1npc_wear?4txt@	; `string'
PUBLIC	??_C@_0O@MEMEPBB@?$CFs?1item_proto@		; `string'
PUBLIC	??_C@_0BA@BIDKFLDM@?$CFs?1itemdesc?4txt@	; `string'
PUBLIC	??_C@_0N@KCBCHIHM@?$CFs?1mob_proto@		; `string'
PUBLIC	??_C@_0BB@JDMIHPNN@?$CFs?1SkillDesc?4txt@	; `string'
PUBLIC	??_C@_0O@JEIJHCCG@?$CFs?1insult?4txt@		; `string'
PUBLIC	??_C@_0CI@MGBDCDJE@LoadLocaleData?5?9?5LoadItemList?$CI?$CF@ ; `string'
PUBLIC	??_C@_0CJ@MIFDPICO@LoadLocaleData?5?9?5LoadItemProto?$CI@ ; `string'
PUBLIC	??_C@_0CI@FLOPHKEN@LoadLocaleData?5?9?5LoadItemDesc?$CI?$CF@ ; `string'
PUBLIC	??_C@_0CI@PNCAMHEJ@LoadLocaleData?5?9?5LoadMobProto?$CI?$CF@ ; `string'
PUBLIC	??_C@_0CN@NIKOAAJF@LoadLocaleData?5?9?5RegisterSkillD@ ; `string'
PUBLIC	??_C@_0CO@HCDPLHIO@LoadLocaleData?5?9?5RegisterSkillT@ ; `string'
PUBLIC	??_C@_0DO@PNDPPMDH@CPythonApplication?5?9?5CPythonNet@ ; `string'
PUBLIC	??_C@_0CG@PLPHALMN@LoadMobScale?5?9?5LoadMobScale?$CI?$CFs?$CJ@ ; `string'
PUBLIC	??_C@_0CI@NHMEBJOH@LoadLocaleData?3?5error?5while?5loa@ ; `string'
PUBLIC	??_C@_0CJ@MDAGKIOK@LoadLocaleData?5?9?5LoadAuraScale?$CI@ ; `string'
PUBLIC	??_C@_0CP@CBNIPEEN@LoadLocaleData?5?9?5LoadEventRewar@ ; `string'
PUBLIC	??_C@_0DA@DIGJHCGF@LoadLocaleData?5?9?5LoadLocaleStri@ ; `string'
PUBLIC	??_C@_0CO@PHJMHAHD@LoadLocaleData?5?9?5LoadLocaleChat@ ; `string'
PUBLIC	??_C@_0CO@ILPAGHEO@LoadLocaleData?5?9?5LoadLocaleQuiz@ ; `string'
PUBLIC	??_C@_0DF@HFNMNKEC@LoadLocaleData?5?9?5RegisterGuildB@ ; `string'
PUBLIC	??_C@_0DB@GEMLPGJM@LoadLocaleData?5?9?5RegisterPetSki@ ; `string'
PUBLIC	??_C@_0CL@IBCOJJMI@LoadLocaleData?5?9?5LoadNPCWearIte@ ; `string'
PUBLIC	??_C@_0BJ@DBNNLGNG@CMSWindow?3?3Create?5failed@	; `string'
PUBLIC	??_C@_0O@NOBMPFEG@CREATE_WINDOW@		; `string'
PUBLIC	??_C@_0CA@FFOMJBHN@CMSWindow?3?3Cursors?5Create?5Error@ ; `string'
PUBLIC	??_C@_0BA@GLLECKCO@?$CCCREATE_CURSOR?$CC@	; `string'
PUBLIC	??_C@_0BJ@CJEBNOLC@NetDevice?3?3Create?5failed@	; `string'
PUBLIC	??_C@_0BB@EJLMKODK@?$CCCREATE_NETWORK?$CC@	; `string'
PUBLIC	??_C@_0CD@KIIBIHOG@d?3?1ymir?5work?1special?1spheremap?4@ ; `string'
PUBLIC	??_C@_0CF@CBFEMJII@d?3?1ymir?5work?1special?1spheremap0@ ; `string'
PUBLIC	??_R2CPythonApplication@@8			; CPythonApplication::`RTTI Base Class Array'
PUBLIC	??_R2CInputKeyboard@@8				; CInputKeyboard::`RTTI Base Class Array'
PUBLIC	??_R2CInputDevice@@8				; CInputDevice::`RTTI Base Class Array'
PUBLIC	??_R2CMSApplication@@8				; CMSApplication::`RTTI Base Class Array'
PUBLIC	??_R2CMSWindow@@8				; CMSWindow::`RTTI Base Class Array'
PUBLIC	??_R2IAbstractApplication@@8			; IAbstractApplication::`RTTI Base Class Array'
PUBLIC	??_R2?$TAbstractSingleton@VIAbstractApplication@@@@8 ; TAbstractSingleton<IAbstractApplication>::`RTTI Base Class Array'
PUBLIC	??_R1CA@?0A@EA@?$TAbstractSingleton@VIAbstractApplication@@@@8 ; TAbstractSingleton<IAbstractApplication>::`RTTI Base Class Descriptor at (32,-1,0,64)'
PUBLIC	??_R1CA@?0A@EA@IAbstractApplication@@8		; IAbstractApplication::`RTTI Base Class Descriptor at (32,-1,0,64)'
PUBLIC	??_R1BM@?0A@EA@CInputDevice@@8			; CInputDevice::`RTTI Base Class Descriptor at (28,-1,0,64)'
PUBLIC	??_R1BM@?0A@EA@CInputKeyboard@@8		; CInputKeyboard::`RTTI Base Class Descriptor at (28,-1,0,64)'
PUBLIC	??_R1A@?0A@EA@CPythonApplication@@8		; CPythonApplication::`RTTI Base Class Descriptor at (0,-1,0,64)'
PUBLIC	??_R1A@?0A@EA@CInputKeyboard@@8			; CInputKeyboard::`RTTI Base Class Descriptor at (0,-1,0,64)'
PUBLIC	??_R1A@?0A@EA@CInputDevice@@8			; CInputDevice::`RTTI Base Class Descriptor at (0,-1,0,64)'
PUBLIC	??_R1A@?0A@EA@CMSApplication@@8			; CMSApplication::`RTTI Base Class Descriptor at (0,-1,0,64)'
PUBLIC	??_R1A@?0A@EA@CMSWindow@@8			; CMSWindow::`RTTI Base Class Descriptor at (0,-1,0,64)'
PUBLIC	??_R1A@?0A@EA@IAbstractApplication@@8		; IAbstractApplication::`RTTI Base Class Descriptor at (0,-1,0,64)'
PUBLIC	??_R1A@?0A@EA@?$TAbstractSingleton@VIAbstractApplication@@@@8 ; TAbstractSingleton<IAbstractApplication>::`RTTI Base Class Descriptor at (0,-1,0,64)'
PUBLIC	??_R3CInputDevice@@8				; CInputDevice::`RTTI Class Hierarchy Descriptor'
PUBLIC	??_R0?AVCInputDevice@@@8			; CInputDevice `RTTI Type Descriptor'
PUBLIC	??_R3CInputKeyboard@@8				; CInputKeyboard::`RTTI Class Hierarchy Descriptor'
PUBLIC	??_R0?AVCInputKeyboard@@@8			; CInputKeyboard `RTTI Type Descriptor'
PUBLIC	??_R3CMSApplication@@8				; CMSApplication::`RTTI Class Hierarchy Descriptor'
PUBLIC	??_R0?AVCMSApplication@@@8			; CMSApplication `RTTI Type Descriptor'
PUBLIC	??_R3CMSWindow@@8				; CMSWindow::`RTTI Class Hierarchy Descriptor'
PUBLIC	??_R0?AVCMSWindow@@@8				; CMSWindow `RTTI Type Descriptor'
PUBLIC	??_R3CPythonApplication@@8			; CPythonApplication::`RTTI Class Hierarchy Descriptor'
PUBLIC	??_R0?AVCPythonApplication@@@8			; CPythonApplication `RTTI Type Descriptor'
PUBLIC	??_R3?$TAbstractSingleton@VIAbstractApplication@@@@8 ; TAbstractSingleton<IAbstractApplication>::`RTTI Class Hierarchy Descriptor'
PUBLIC	??_R0?AV?$TAbstractSingleton@VIAbstractApplication@@@@@8 ; TAbstractSingleton<IAbstractApplication> `RTTI Type Descriptor'
PUBLIC	??_R3IAbstractApplication@@8			; IAbstractApplication::`RTTI Class Hierarchy Descriptor'
PUBLIC	??_R0?AVIAbstractApplication@@@8		; IAbstractApplication `RTTI Type Descriptor'
PUBLIC	??_R4CPythonApplication@@6BIAbstractApplication@@@ ; CPythonApplication::`RTTI Complete Object Locator'
PUBLIC	??_R4CPythonApplication@@6BCInputKeyboard@@@	; CPythonApplication::`RTTI Complete Object Locator'
PUBLIC	??_R4CPythonApplication@@6BCMSApplication@@@	; CPythonApplication::`RTTI Complete Object Locator'
PUBLIC	??_R4?$TAbstractSingleton@VIAbstractApplication@@@@6B@ ; TAbstractSingleton<IAbstractApplication>::`RTTI Complete Object Locator'
PUBLIC	??_R4IAbstractApplication@@6B@			; IAbstractApplication::`RTTI Complete Object Locator'
PUBLIC	?ms_singleton@?$CSingleton@VCTimer@@@@0PAVCTimer@@A ; CSingleton<CTimer>::ms_singleton
PUBLIC	?ms_singleton@?$CSingleton@VCWindowManager@UI@@@@0PAVCWindowManager@UI@@A ; CSingleton<UI::CWindowManager>::ms_singleton
PUBLIC	?ms_singleton@?$CSingleton@VCPythonIME@@@@0PAVCPythonIME@@A ; CSingleton<CPythonIME>::ms_singleton
PUBLIC	??_7?$TAbstractSingleton@VIAbstractApplication@@@@6B@ ; TAbstractSingleton<IAbstractApplication>::`vftable'
PUBLIC	?ms_singleton@?$CSingleton@VCPythonPlayerSettingsModule@@@@0PAVCPythonPlayerSettingsModule@@A ; CSingleton<CPythonPlayerSettingsModule>::ms_singleton
PUBLIC	?ms_singleton@?$CSingleton@VCRenderTargetManager@@@@0PAVCRenderTargetManager@@A ; CSingleton<CRenderTargetManager>::ms_singleton
PUBLIC	?ms_singleton@?$CSingleton@VInGameEventManager@@@@0PAVInGameEventManager@@A ; CSingleton<InGameEventManager>::ms_singleton
PUBLIC	?ms_singleton@?$CSingleton@VCPythonWiki@@@@0PAVCPythonWiki@@A ; CSingleton<CPythonWiki>::ms_singleton
PUBLIC	??_7CPythonApplication@@6BIAbstractApplication@@@ ; CPythonApplication::`vftable'
PUBLIC	??_7CPythonApplication@@6BCInputKeyboard@@@	; CPythonApplication::`vftable'
PUBLIC	??_7CPythonApplication@@6BCMSApplication@@@	; CPythonApplication::`vftable'
PUBLIC	?c_fDefaultCameraZoomSpeed@@3MA			; c_fDefaultCameraZoomSpeed
PUBLIC	?c_fDefaultCameraPitchSpeed@@3MA		; c_fDefaultCameraPitchSpeed
PUBLIC	?c_fDefaultCameraRotateSpeed@@3MA		; c_fDefaultCameraRotateSpeed
PUBLIC	?g_specularSpd@@3NA				; g_specularSpd
PUBLIC	?MIN_FOG@@3MA					; MIN_FOG
PUBLIC	?ms_pInstance@CPythonApplication@@1PAV1@A	; CPythonApplication::ms_pInstance
PUBLIC	??_7IAbstractApplication@@6B@			; IAbstractApplication::`vftable'
EXTRN	?OnSize@CMSWindow@@UAEXIJ@Z:PROC		; CMSWindow::OnSize
EXTRN	?Destroy@CMSWindow@@QAEXXZ:PROC			; CMSWindow::Destroy
EXTRN	?DestroySystem@CTextFileLoader@@SAXXZ:PROC	; CTextFileLoader::DestroySystem
EXTRN	?DestroySystem@CAttributeInstance@@SAXXZ:PROC	; CAttributeInstance::DestroySystem
EXTRN	?Destroy@CGraphicDevice@@QAEXXZ:PROC		; CGraphicDevice::Destroy
EXTRN	?Destroy@CSoundManager@@QAEXXZ:PROC		; CSoundManager::Destroy
EXTRN	?DestroySystem@CGraphicImageInstance@@SAXXZ:PROC ; CGraphicImageInstance::DestroySystem
EXTRN	?DestroySystem@CGrannyModelInstance@@SAXXZ:PROC	; CGrannyModelInstance::DestroySystem
EXTRN	?Destroy@CPythonResource@@QAEXXZ:PROC		; CPythonResource::Destroy
EXTRN	?Destroy@CPythonGraphic@@QAEXXZ:PROC		; CPythonGraphic::Destroy
EXTRN	?GrannyDestroySharedDeformBuffer@@YAXXZ:PROC	; GrannyDestroySharedDeformBuffer
EXTRN	?Destroy@CLightManager@@QAEXXZ:PROC		; CLightManager::Destroy
EXTRN	?Destroy@CEffectManager@@QAEXXZ:PROC		; CEffectManager::Destroy
EXTRN	?Destroy@CRaceManager@@QAEXXZ:PROC		; CRaceManager::Destroy
EXTRN	?Destroy@CFlyingManager@@QAEXXZ:PROC		; CFlyingManager::Destroy
EXTRN	?DestroyCollisionInstanceSystem@@YAXXZ:PROC	; DestroyCollisionInstanceSystem
EXTRN	?Destroy@CRenderTargetManager@@QAEXXZ:PROC	; CRenderTargetManager::Destroy
EXTRN	?Destroy@CWindowManager@UI@@QAEXXZ:PROC		; UI::CWindowManager::Destroy
EXTRN	?DestroySphereMap@CGrannyMaterial@@SAXXZ:PROC	; CGrannyMaterial::DestroySphereMap
EXTRN	_WebBrowser_Destroy:PROC
EXTRN	__imp__SendMessageA@16:PROC
EXTRN	?ms_hInstance@CMSWindow@@1PAUHINSTANCE__@@A:DWORD ; CMSWindow::ms_hInstance
EXTRN	__imp__FlashWindowEx@4:PROC
EXTRN	__time32:PROC
EXTRN	?CreateSphereMap@CGrannyMaterial@@SAXIPBD@Z:PROC ; CGrannyMaterial::CreateSphereMap
EXTRN	__imp__SystemParametersInfoA@16:PROC
EXTRN	?CreateSystem@CGraphicImageInstance@@SAXI@Z:PROC ; CGraphicImageInstance::CreateSystem
EXTRN	?Initialize@CLightManager@@QAEXXZ:PROC		; CLightManager::Initialize
EXTRN	?SetText@CIME@@QAEXPBDH@Z:PROC			; CIME::SetText
EXTRN	?IsFastTNL@CGraphicBase@@SA_NXZ:PROC		; CGraphicBase::IsFastTNL
EXTRN	?Create@CNetworkDevice@@QAE_NXZ:PROC		; CNetworkDevice::Create
EXTRN	?InitializeKeyboard@CInputKeyboard@@QAE_NPAUHWND__@@@Z:PROC ; CInputKeyboard::InitializeKeyboard
EXTRN	__imp__SetWindowPos@28:PROC
EXTRN	?SetVisibleMode@CMSWindow@@QAEX_N@Z:PROC	; CMSWindow::SetVisibleMode
EXTRN	?GrannyCreateSharedDeformBuffer@@YAXXZ:PROC	; GrannyCreateSharedDeformBuffer
EXTRN	?Create@CSoundManager@@QAEHXZ:PROC		; CSoundManager::Create
EXTRN	?GetScreenWidth@CMSWindow@@QAEHXZ:PROC		; CMSWindow::GetScreenWidth
EXTRN	?GetScreenHeight@CMSWindow@@QAEHXZ:PROC		; CMSWindow::GetScreenHeight
EXTRN	?SetPosition@CMSWindow@@QAEXHH@Z:PROC		; CMSWindow::SetPosition
EXTRN	?AdjustSize@CMSWindow@@QAEXHH@Z:PROC		; CMSWindow::AdjustSize
EXTRN	?UseDefaultIME@CIME@@QAEXXZ:PROC		; CIME::UseDefaultIME
EXTRN	?GetInstance@CMSWindow@@QAEPAUHINSTANCE__@@XZ:PROC ; CMSWindow::GetInstance
EXTRN	__imp__LoadIconA@8:PROC
EXTRN	?Create@CMSWindow@@QAE_NPBDHKKPAUHICON__@@H@Z:PROC ; CMSWindow::Create
EXTRN	__imp__FindWindowA@8:PROC
EXTRN	?LoadAuraScale@CItemManager@@QAE_NPBD@Z:PROC	; CItemManager::LoadAuraScale
EXTRN	?LoadItemScale@CItemManager@@QAE_NPBD@Z:PROC	; CItemManager::LoadItemScale
EXTRN	?LoadItemDesc@CItemManager@@QAE_NPBD@Z:PROC	; CItemManager::LoadItemDesc
EXTRN	?LoadItemTable@CItemManager@@QAE_NPBD@Z:PROC	; CItemManager::LoadItemTable
EXTRN	?LoadItemList@CItemManager@@QAE_NPBD@Z:PROC	; CItemManager::LoadItemList
EXTRN	?Destroy@CItemManager@@QAEXXZ:PROC		; CItemManager::Destroy
EXTRN	?MessageProcess@CMSApplication@@QAE_NXZ:PROC	; CMSApplication::MessageProcess
EXTRN	?IsMessage@CMSApplication@@QAE_NXZ:PROC		; CMSApplication::IsMessage
EXTRN	?SetMinLODMode@CGrannyLODController@@SAX_N@Z:PROC ; CGrannyLODController::SetMinLODMode
EXTRN	__imp__PyExc_RuntimeError:DWORD
EXTRN	__imp__PyErr_SetString:PROC
EXTRN	?GetWindowHandle@CMSWindow@@QAEPAUHWND__@@XZ:PROC ; CMSWindow::GetWindowHandle
EXTRN	?Create@CGraphicDevice@@QAEHPAUHWND__@@HH_NHH@Z:PROC ; CGraphicDevice::Create
EXTRN	?g_fGameFPS@@3MA:DWORD				; g_fGameFPS
EXTRN	?InitBackBufferCount@CGraphicDevice@@QAEXI@Z:PROC ; CGraphicDevice::InitBackBufferCount
EXTRN	?Reset@CGraphicDevice@@QAE_NXZ:PROC		; CGraphicDevice::Reset
EXTRN	?Trace@@YAXPBD@Z:PROC				; Trace
EXTRN	?GetDeviceState@CGraphicDevice@@QAE?AW4EDeviceState@1@XZ:PROC ; CGraphicDevice::GetDeviceState
EXTRN	?GetClientRect@CMSWindow@@QAEXPAUtagRECT@@@Z:PROC ; CMSWindow::GetClientRect
EXTRN	?ResetFaceCount@CGraphicBase@@QAEXXZ:PROC	; CGraphicBase::ResetFaceCount
EXTRN	?GetFaceCount@CGraphicBase@@QAEKXZ:PROC		; CGraphicBase::GetFaceCount
EXTRN	?Show@CScreen@@QAEXPAUHWND__@@@Z:PROC		; CScreen::Show
EXTRN	?End@CScreen@@QAEXXZ:PROC			; CScreen::End
EXTRN	?SetInterfaceRenderState@CPythonGraphic@@QAEXXZ:PROC ; CPythonGraphic::SetInterfaceRenderState
EXTRN	?ClearDepthBuffer@CScreen@@QAEXXZ:PROC		; CScreen::ClearDepthBuffer
EXTRN	?Begin@CScreen@@QAE_NXZ:PROC			; CScreen::Begin
EXTRN	?Update@CCullingManager@@QAEXXZ:PROC		; CCullingManager::Update
EXTRN	?IsActive@CMSWindow@@QAE_NXZ:PROC		; CMSWindow::IsActive
EXTRN	?CreateRenderTargetTextures@CRenderTargetManager@@QAEXXZ:PROC ; CRenderTargetManager::CreateRenderTargetTextures
EXTRN	?RestoreDevice@CScreen@@QAEHXZ:PROC		; CScreen::RestoreDevice
EXTRN	?ReleaseRenderTargetTextures@CRenderTargetManager@@QAEXXZ:PROC ; CRenderTargetManager::ReleaseRenderTargetTextures
EXTRN	?TranslateSpecularMatrix@CGrannyMaterial@@SAXMMM@Z:PROC ; CGrannyMaterial::TranslateSpecularMatrix
EXTRN	?Adjust@CTimer@@QAEXH@Z:PROC			; CTimer::Adjust
EXTRN	?Update@CResourceManager@@QAEXXZ:PROC		; CResourceManager::Update
EXTRN	__imp__ScreenToClient@8:PROC
EXTRN	__imp__GetCursorPos@4:PROC
EXTRN	?UpdateKeyboard@CInputKeyboard@@QAEXXZ:PROC	; CInputKeyboard::UpdateKeyboard
EXTRN	?GetElapsedMilliecond@CTimer@@QAEKXZ:PROC	; CTimer::GetElapsedMilliecond
EXTRN	?GetElapsedSecond@CTimer@@QAEMXZ:PROC		; CTimer::GetElapsedSecond
EXTRN	?GetCurrentSecond@CTimer@@QAEMXZ:PROC		; CTimer::GetCurrentSecond
EXTRN	?Advance@CTimer@@QAEXXZ:PROC			; CTimer::Advance
EXTRN	?ELTimer_SetFrameMSec@@YAXXZ:PROC		; ELTimer_SetFrameMSec
EXTRN	?Update@CFlyingManager@@QAEXXZ:PROC		; CFlyingManager::Update
EXTRN	?UpdateSound@CEffectManager@@QAEXXZ:PROC	; CEffectManager::UpdateSound
EXTRN	?Update@CEffectManager@@QAEXXZ:PROC		; CEffectManager::Update
EXTRN	?Update@CGameEventManager@@QAEXXZ:PROC		; CGameEventManager::Update
EXTRN	?SetCenterPosition@CGameEventManager@@QAEXMMM@Z:PROC ; CGameEventManager::SetCenterPosition
EXTRN	?UpdateModels@CRenderTargetManager@@QAEXXZ:PROC	; CRenderTargetManager::UpdateModels
EXTRN	?BuildViewFrustum@CScreen@@QAEXXZ:PROC		; CScreen::BuildViewFrustum
EXTRN	?Hyperlink_UpdateMousePos@CGraphicTextInstance@@SAXHH@Z:PROC ; CGraphicTextInstance::Hyperlink_UpdateMousePos
EXTRN	?Render@CFlyingManager@@QAEXXZ:PROC		; CFlyingManager::Render
EXTRN	?Render@CEffectManager@@QAEXXZ:PROC		; CEffectManager::Render
EXTRN	?EndEnvironment@CMapManager@@QAEXXZ:PROC	; CMapManager::EndEnvironment
EXTRN	?RenderModels@CRenderTargetManager@@QAEXXZ:PROC	; CRenderTargetManager::RenderModels
EXTRN	?BeginEnvironment@CMapManager@@QAEXXZ:PROC	; CMapManager::BeginEnvironment
EXTRN	?SetCursorPosition@CPythonGraphic@@QAEXHH@Z:PROC ; CPythonGraphic::SetCursorPosition
EXTRN	?GetMousePosition@CWindowManager@UI@@QAEXAAJ0@Z:PROC ; UI::CWindowManager::GetMousePosition
EXTRN	?PushState@CPythonGraphic@@QAEXXZ:PROC		; CPythonGraphic::PushState
EXTRN	?SetGameRenderState@CPythonGraphic@@QAEXXZ:PROC	; CPythonGraphic::SetGameRenderState
EXTRN	?DeformModels@CRenderTargetManager@@QAEXXZ:PROC	; CRenderTargetManager::DeformModels
EXTRN	?Process@CCullingManager@@QAEXXZ:PROC		; CCullingManager::Process
EXTRN	?SetPerspective@CGraphicBase@@QAEXMMMM@Z:PROC	; CGraphicBase::SetPerspective
EXTRN	?GetAspect@CWindowManager@UI@@QAEMXZ:PROC	; UI::CWindowManager::GetAspect
EXTRN	?RenderBackgrounds@CRenderTargetManager@@QAEXXZ:PROC ; CRenderTargetManager::RenderBackgrounds
EXTRN	__imp__PostQuitMessage@4:PROC
EXTRN	?GetInfo@CEffectManager@@QAEXPAV?$basic_string@DU?$char_traits@D@std@@V?$allocator@D@2@@std@@@Z:PROC ; CEffectManager::GetInfo
EXTRN	?GetMousePosition@CMSWindow@@QAEXPAUtagPOINT@@@Z:PROC ; CMSWindow::GetMousePosition
EXTRN	?AddCamera@CCameraManager@@QAE_NE@Z:PROC	; CCameraManager::AddCamera
EXTRN	?UseCustomTime@CTimer@@QAEXXZ:PROC		; CTimer::UseCustomTime
EXTRN	?SetEterExceptionHandler@@YAXXZ:PROC		; SetEterExceptionHandler
EXTRN	??1CRenderTargetManager@@UAE@XZ:PROC		; CRenderTargetManager::~CRenderTargetManager
EXTRN	??0CRenderTargetManager@@QAE@XZ:PROC		; CRenderTargetManager::CRenderTargetManager
EXTRN	??1CNetworkDevice@@UAE@XZ:PROC			; CNetworkDevice::~CNetworkDevice
EXTRN	??0CNetworkDevice@@QAE@XZ:PROC			; CNetworkDevice::CNetworkDevice
EXTRN	??1CGraphicDevice@@UAE@XZ:PROC			; CGraphicDevice::~CGraphicDevice
EXTRN	??0CGraphicDevice@@QAE@XZ:PROC			; CGraphicDevice::CGraphicDevice
EXTRN	??1CPythonResource@@UAE@XZ:PROC			; CPythonResource::~CPythonResource
EXTRN	??0CPythonResource@@QAE@XZ:PROC			; CPythonResource::CPythonResource
EXTRN	??1CPythonGraphic@@UAE@XZ:PROC			; CPythonGraphic::~CPythonGraphic
EXTRN	??0CPythonGraphic@@QAE@XZ:PROC			; CPythonGraphic::CPythonGraphic
EXTRN	??1CEffectManager@@UAE@XZ:PROC			; CEffectManager::~CEffectManager
EXTRN	??0CEffectManager@@QAE@XZ:PROC			; CEffectManager::CEffectManager
EXTRN	??1CWindowManager@UI@@UAE@XZ:PROC		; UI::CWindowManager::~CWindowManager
EXTRN	??0CWindowManager@UI@@QAE@XZ:PROC		; UI::CWindowManager::CWindowManager
EXTRN	??1CItemManager@@UAE@XZ:PROC			; CItemManager::~CItemManager
EXTRN	??0CItemManager@@QAE@XZ:PROC			; CItemManager::CItemManager
EXTRN	??1CGameEventManager@@UAE@XZ:PROC		; CGameEventManager::~CGameEventManager
EXTRN	??0CGameEventManager@@QAE@XZ:PROC		; CGameEventManager::CGameEventManager
EXTRN	??1CRaceManager@@UAE@XZ:PROC			; CRaceManager::~CRaceManager
EXTRN	??0CRaceManager@@QAE@XZ:PROC			; CRaceManager::CRaceManager
EXTRN	??1CFlyingManager@@UAE@XZ:PROC			; CFlyingManager::~CFlyingManager
EXTRN	??0CFlyingManager@@QAE@XZ:PROC			; CFlyingManager::CFlyingManager
EXTRN	??1CSoundManager@@UAE@XZ:PROC			; CSoundManager::~CSoundManager
EXTRN	??0CSoundManager@@QAE@XZ:PROC			; CSoundManager::CSoundManager
EXTRN	??1CLightManager@@UAE@XZ:PROC			; CLightManager::~CLightManager
EXTRN	??0CLightManager@@QAE@XZ:PROC			; CLightManager::CLightManager
EXTRN	??1CTimer@@UAE@XZ:PROC				; CTimer::~CTimer
EXTRN	??0CTimer@@QAE@XZ:PROC				; CTimer::CTimer
EXTRN	??1CInputKeyboard@@UAE@XZ:PROC			; CInputKeyboard::~CInputKeyboard
EXTRN	??0CInputKeyboard@@QAE@XZ:PROC			; CInputKeyboard::CInputKeyboard
EXTRN	??1CMSApplication@@UAE@XZ:PROC			; CMSApplication::~CMSApplication
EXTRN	??0CMSApplication@@QAE@XZ:PROC			; CMSApplication::CMSApplication
;	COMDAT ?ms_singleton@?$CSingleton@VCTimer@@@@0PAVCTimer@@A
_BSS	SEGMENT
?ms_singleton@?$CSingleton@VCTimer@@@@0PAVCTimer@@A DD 01H DUP (?) ; CSingleton<CTimer>::ms_singleton
_BSS	ENDS
;	COMDAT ?ms_singleton@?$CSingleton@VCWindowManager@UI@@@@0PAVCWindowManager@UI@@A
_BSS	SEGMENT
?ms_singleton@?$CSingleton@VCWindowManager@UI@@@@0PAVCWindowManager@UI@@A DD 01H DUP (?) ; CSingleton<UI::CWindowManager>::ms_singleton
_BSS	ENDS
;	COMDAT ?ms_singleton@?$CSingleton@VCPythonIME@@@@0PAVCPythonIME@@A
_BSS	SEGMENT
?ms_singleton@?$CSingleton@VCPythonIME@@@@0PAVCPythonIME@@A DD 01H DUP (?) ; CSingleton<CPythonIME>::ms_singleton
_BSS	ENDS
;	COMDAT ?ms_singleton@?$CSingleton@VCPythonPlayerSettingsModule@@@@0PAVCPythonPlayerSettingsModule@@A
_BSS	SEGMENT
?ms_singleton@?$CSingleton@VCPythonPlayerSettingsModule@@@@0PAVCPythonPlayerSettingsModule@@A DD 01H DUP (?) ; CSingleton<CPythonPlayerSettingsModule>::ms_singleton
_BSS	ENDS
;	COMDAT ?ms_singleton@?$CSingleton@VCRenderTargetManager@@@@0PAVCRenderTargetManager@@A
_BSS	SEGMENT
?ms_singleton@?$CSingleton@VCRenderTargetManager@@@@0PAVCRenderTargetManager@@A DD 01H DUP (?) ; CSingleton<CRenderTargetManager>::ms_singleton
_BSS	ENDS
;	COMDAT ?ms_singleton@?$CSingleton@VInGameEventManager@@@@0PAVInGameEventManager@@A
_BSS	SEGMENT
?ms_singleton@?$CSingleton@VInGameEventManager@@@@0PAVInGameEventManager@@A DD 01H DUP (?) ; CSingleton<InGameEventManager>::ms_singleton
_BSS	ENDS
;	COMDAT ?ms_singleton@?$CSingleton@VCPythonWiki@@@@0PAVCPythonWiki@@A
_BSS	SEGMENT
?ms_singleton@?$CSingleton@VCPythonWiki@@@@0PAVCPythonWiki@@A DD 01H DUP (?) ; CSingleton<CPythonWiki>::ms_singleton
_BSS	ENDS
;	COMDAT ?s_fBufRenderTime@?DE@??Process@CPythonApplication@@QAE_NXZ@4MA
_BSS	SEGMENT
?s_fBufRenderTime@?DE@??Process@CPythonApplication@@QAE_NXZ@4MA DD 01H DUP (?) ; `CPythonApplication::Process'::`52'::s_fBufRenderTime
_BSS	ENDS
;	COMDAT ?s_dwRenderRangeFrame@?CL@??Process@CPythonApplication@@QAE_NXZ@4KA
_BSS	SEGMENT
?s_dwRenderRangeFrame@?CL@??Process@CPythonApplication@@QAE_NXZ@4KA DD 01H DUP (?) ; `CPythonApplication::Process'::`43'::s_dwRenderRangeFrame
_BSS	ENDS
;	COMDAT ?s_dwRenderRangeTime@?CL@??Process@CPythonApplication@@QAE_NXZ@4KA
_BSS	SEGMENT
?s_dwRenderRangeTime@?CL@??Process@CPythonApplication@@QAE_NXZ@4KA DD 01H DUP (?) ; `CPythonApplication::Process'::`43'::s_dwRenderRangeTime
_BSS	ENDS
;	COMDAT ?s_bFrameSkip@?1??Process@CPythonApplication@@QAE_NXZ@4HA
_BSS	SEGMENT
?s_bFrameSkip@?1??Process@CPythonApplication@@QAE_NXZ@4HA DD 01H DUP (?) ; `CPythonApplication::Process'::`2'::s_bFrameSkip
_BSS	ENDS
;	COMDAT ?s_dwFaceCount@?1??Process@CPythonApplication@@QAE_NXZ@4KA
_BSS	SEGMENT
?s_dwFaceCount@?1??Process@CPythonApplication@@QAE_NXZ@4KA DD 01H DUP (?) ; `CPythonApplication::Process'::`2'::s_dwFaceCount
_BSS	ENDS
;	COMDAT ?s_uiLoad@?1??Process@CPythonApplication@@QAE_NXZ@4IA
_BSS	SEGMENT
?s_uiLoad@?1??Process@CPythonApplication@@QAE_NXZ@4IA DD 01H DUP (?) ; `CPythonApplication::Process'::`2'::s_uiLoad
_BSS	ENDS
;	COMDAT ?s_dwRenderFrameCount@?1??Process@CPythonApplication@@QAE_NXZ@4KA
_BSS	SEGMENT
?s_dwRenderFrameCount@?1??Process@CPythonApplication@@QAE_NXZ@4KA DD 01H DUP (?) ; `CPythonApplication::Process'::`2'::s_dwRenderFrameCount
_BSS	ENDS
;	COMDAT ?s_dwUpdateFrameCount@?1??Process@CPythonApplication@@QAE_NXZ@4KA
_BSS	SEGMENT
?s_dwUpdateFrameCount@?1??Process@CPythonApplication@@QAE_NXZ@4KA DD 01H DUP (?) ; `CPythonApplication::Process'::`2'::s_dwUpdateFrameCount
?ms_pInstance@CPythonApplication@@1PAV1@A DD 01H DUP (?) ; CPythonApplication::ms_pInstance
_BSS	ENDS
;	COMDAT ??_7IAbstractApplication@@6B@
CONST	SEGMENT
??_7IAbstractApplication@@6B@ DD FLAT:??_R4IAbstractApplication@@6B@ ; IAbstractApplication::`vftable'
	DD	FLAT:??_EIAbstractApplication@@UAEPAXI@Z
	DD	FLAT:__purecall
	DD	FLAT:__purecall
	DD	FLAT:__purecall
	DD	FLAT:__purecall
	DD	FLAT:__purecall
	DD	FLAT:__purecall
	DD	FLAT:__purecall
	DD	FLAT:__purecall
	DD	FLAT:__purecall
	DD	FLAT:__purecall
	DD	FLAT:__purecall
	DD	FLAT:__purecall
	DD	FLAT:__purecall
	DD	FLAT:__purecall
	DD	FLAT:__purecall
	DD	FLAT:__purecall
	DD	FLAT:__purecall
CONST	ENDS
;	COMDAT ??_7CPythonApplication@@6BCMSApplication@@@
CONST	SEGMENT
??_7CPythonApplication@@6BCMSApplication@@@ DD FLAT:??_R4CPythonApplication@@6BCMSApplication@@@ ; CPythonApplication::`vftable'
	DD	FLAT:??_ECPythonApplication@@UAEPAXI@Z
	DD	FLAT:?WindowProcedure@CPythonApplication@@MAEJPAUHWND__@@IIJ@Z
	DD	FLAT:?OnSize@CMSWindow@@UAEXIJ@Z
CONST	ENDS
;	COMDAT ??_7CPythonApplication@@6BCInputKeyboard@@@
CONST	SEGMENT
??_7CPythonApplication@@6BCInputKeyboard@@@ DD FLAT:??_R4CPythonApplication@@6BCInputKeyboard@@@ ; CPythonApplication::`vftable'
	DD	FLAT:??_ECPythonApplication@@WBM@AEPAXI@Z
	DD	FLAT:?OnKeyDown@CPythonApplication@@MAEXH@Z
	DD	FLAT:?OnKeyUp@CPythonApplication@@MAEXH@Z
CONST	ENDS
;	COMDAT ??_7CPythonApplication@@6BIAbstractApplication@@@
CONST	SEGMENT
??_7CPythonApplication@@6BIAbstractApplication@@@ DD FLAT:??_R4CPythonApplication@@6BIAbstractApplication@@@ ; CPythonApplication::`vftable'
	DD	FLAT:??_ECPythonApplication@@WCA@AEPAXI@Z
	DD	FLAT:?GetMousePosition@CPythonApplication@@UAEXPAUtagPOINT@@@Z
	DD	FLAT:?GetGlobalTime@CPythonApplication@@UAEMXZ
	DD	FLAT:?GetGlobalElapsedTime@CPythonApplication@@UAEMXZ
	DD	FLAT:?SkipRenderBuffering@CPythonApplication@@UAEXK@Z
	DD	FLAT:?SetServerTime@CPythonApplication@@UAEXJ@Z
	DD	FLAT:?SetCenterPosition@CPythonApplication@@UAEXMMM@Z
	DD	FLAT:?SetEventCamera@CPythonApplication@@UAEXABUSCameraSetting@IAbstractApplication@@@Z
	DD	FLAT:?BlendEventCamera@CPythonApplication@@UAEXABUSCameraSetting@IAbstractApplication@@M@Z
	DD	FLAT:?SetDefaultCamera@CPythonApplication@@UAEXXZ
	DD	FLAT:?RunIMEUpdate@CPythonApplication@@UAEXXZ
	DD	FLAT:?RunIMETabEvent@CPythonApplication@@UAEXXZ
	DD	FLAT:?RunIMEReturnEvent@CPythonApplication@@UAEXXZ
	DD	FLAT:?RunIMEChangeCodePage@CPythonApplication@@UAEXXZ
	DD	FLAT:?RunIMEOpenCandidateListEvent@CPythonApplication@@UAEXXZ
	DD	FLAT:?RunIMECloseCandidateListEvent@CPythonApplication@@UAEXXZ
	DD	FLAT:?RunIMEOpenReadingWndEvent@CPythonApplication@@UAEXXZ
	DD	FLAT:?RunIMECloseReadingWndEvent@CPythonApplication@@UAEXXZ
CONST	ENDS
;	COMDAT ?s_fAveRenderTime@?EN@??Process@CPythonApplication@@QAE_NXZ@4MA
_DATA	SEGMENT
?s_fAveRenderTime@?EN@??Process@CPythonApplication@@QAE_NXZ@4MA DD 041800000r ; 16 ; `CPythonApplication::Process'::`77'::s_fAveRenderTime
_DATA	ENDS
;	COMDAT ??_7?$TAbstractSingleton@VIAbstractApplication@@@@6B@
CONST	SEGMENT
??_7?$TAbstractSingleton@VIAbstractApplication@@@@6B@ DD FLAT:??_R4?$TAbstractSingleton@VIAbstractApplication@@@@6B@ ; TAbstractSingleton<IAbstractApplication>::`vftable'
	DD	FLAT:??_E?$TAbstractSingleton@VIAbstractApplication@@@@UAEPAXI@Z
CONST	ENDS
;	COMDAT ??_R4IAbstractApplication@@6B@
rdata$r	SEGMENT
??_R4IAbstractApplication@@6B@ DD 00H			; IAbstractApplication::`RTTI Complete Object Locator'
	DD	00H
	DD	00H
	DD	FLAT:??_R0?AVIAbstractApplication@@@8
	DD	FLAT:??_R3IAbstractApplication@@8
rdata$r	ENDS
;	COMDAT ??_R4?$TAbstractSingleton@VIAbstractApplication@@@@6B@
rdata$r	SEGMENT
??_R4?$TAbstractSingleton@VIAbstractApplication@@@@6B@ DD 00H ; TAbstractSingleton<IAbstractApplication>::`RTTI Complete Object Locator'
	DD	00H
	DD	00H
	DD	FLAT:??_R0?AV?$TAbstractSingleton@VIAbstractApplication@@@@@8
	DD	FLAT:??_R3?$TAbstractSingleton@VIAbstractApplication@@@@8
rdata$r	ENDS
;	COMDAT ??_R4CPythonApplication@@6BCMSApplication@@@
rdata$r	SEGMENT
??_R4CPythonApplication@@6BCMSApplication@@@ DD 00H	; CPythonApplication::`RTTI Complete Object Locator'
	DD	00H
	DD	00H
	DD	FLAT:??_R0?AVCPythonApplication@@@8
	DD	FLAT:??_R3CPythonApplication@@8
rdata$r	ENDS
;	COMDAT ??_R4CPythonApplication@@6BCInputKeyboard@@@
rdata$r	SEGMENT
??_R4CPythonApplication@@6BCInputKeyboard@@@ DD 00H	; CPythonApplication::`RTTI Complete Object Locator'
	DD	01cH
	DD	00H
	DD	FLAT:??_R0?AVCPythonApplication@@@8
	DD	FLAT:??_R3CPythonApplication@@8
rdata$r	ENDS
;	COMDAT ??_R4CPythonApplication@@6BIAbstractApplication@@@
rdata$r	SEGMENT
??_R4CPythonApplication@@6BIAbstractApplication@@@ DD 00H ; CPythonApplication::`RTTI Complete Object Locator'
	DD	020H
	DD	00H
	DD	FLAT:??_R0?AVCPythonApplication@@@8
	DD	FLAT:??_R3CPythonApplication@@8
rdata$r	ENDS
;	COMDAT ??_R0?AVIAbstractApplication@@@8
data$rs	SEGMENT
??_R0?AVIAbstractApplication@@@8 DD FLAT:??_7type_info@@6B@ ; IAbstractApplication `RTTI Type Descriptor'
	DD	00H
	DB	'.?AVIAbstractApplication@@', 00H
data$rs	ENDS
;	COMDAT ??_R3IAbstractApplication@@8
rdata$r	SEGMENT
??_R3IAbstractApplication@@8 DD 00H			; IAbstractApplication::`RTTI Class Hierarchy Descriptor'
	DD	00H
	DD	02H
	DD	FLAT:??_R2IAbstractApplication@@8
rdata$r	ENDS
;	COMDAT ??_R0?AV?$TAbstractSingleton@VIAbstractApplication@@@@@8
data$rs	SEGMENT
??_R0?AV?$TAbstractSingleton@VIAbstractApplication@@@@@8 DD FLAT:??_7type_info@@6B@ ; TAbstractSingleton<IAbstractApplication> `RTTI Type Descriptor'
	DD	00H
	DB	'.?AV?$TAbstractSingleton@VIAbstractApplication@@@@', 00H
data$rs	ENDS
;	COMDAT ??_R3?$TAbstractSingleton@VIAbstractApplication@@@@8
rdata$r	SEGMENT
??_R3?$TAbstractSingleton@VIAbstractApplication@@@@8 DD 00H ; TAbstractSingleton<IAbstractApplication>::`RTTI Class Hierarchy Descriptor'
	DD	00H
	DD	01H
	DD	FLAT:??_R2?$TAbstractSingleton@VIAbstractApplication@@@@8
rdata$r	ENDS
;	COMDAT ??_R0?AVCPythonApplication@@@8
data$rs	SEGMENT
??_R0?AVCPythonApplication@@@8 DD FLAT:??_7type_info@@6B@ ; CPythonApplication `RTTI Type Descriptor'
	DD	00H
	DB	'.?AVCPythonApplication@@', 00H
data$rs	ENDS
;	COMDAT ??_R3CPythonApplication@@8
rdata$r	SEGMENT
??_R3CPythonApplication@@8 DD 00H			; CPythonApplication::`RTTI Class Hierarchy Descriptor'
	DD	01H
	DD	07H
	DD	FLAT:??_R2CPythonApplication@@8
rdata$r	ENDS
;	COMDAT ??_R0?AVCMSWindow@@@8
data$rs	SEGMENT
??_R0?AVCMSWindow@@@8 DD FLAT:??_7type_info@@6B@	; CMSWindow `RTTI Type Descriptor'
	DD	00H
	DB	'.?AVCMSWindow@@', 00H
data$rs	ENDS
;	COMDAT ??_R3CMSWindow@@8
rdata$r	SEGMENT
??_R3CMSWindow@@8 DD 00H				; CMSWindow::`RTTI Class Hierarchy Descriptor'
	DD	00H
	DD	01H
	DD	FLAT:??_R2CMSWindow@@8
rdata$r	ENDS
;	COMDAT ??_R0?AVCMSApplication@@@8
data$rs	SEGMENT
??_R0?AVCMSApplication@@@8 DD FLAT:??_7type_info@@6B@	; CMSApplication `RTTI Type Descriptor'
	DD	00H
	DB	'.?AVCMSApplication@@', 00H
data$rs	ENDS
;	COMDAT ??_R3CMSApplication@@8
rdata$r	SEGMENT
??_R3CMSApplication@@8 DD 00H				; CMSApplication::`RTTI Class Hierarchy Descriptor'
	DD	00H
	DD	02H
	DD	FLAT:??_R2CMSApplication@@8
rdata$r	ENDS
;	COMDAT ??_R0?AVCInputKeyboard@@@8
data$rs	SEGMENT
??_R0?AVCInputKeyboard@@@8 DD FLAT:??_7type_info@@6B@	; CInputKeyboard `RTTI Type Descriptor'
	DD	00H
	DB	'.?AVCInputKeyboard@@', 00H
data$rs	ENDS
;	COMDAT ??_R3CInputKeyboard@@8
rdata$r	SEGMENT
??_R3CInputKeyboard@@8 DD 00H				; CInputKeyboard::`RTTI Class Hierarchy Descriptor'
	DD	00H
	DD	02H
	DD	FLAT:??_R2CInputKeyboard@@8
rdata$r	ENDS
;	COMDAT ??_R0?AVCInputDevice@@@8
data$rs	SEGMENT
??_R0?AVCInputDevice@@@8 DD FLAT:??_7type_info@@6B@	; CInputDevice `RTTI Type Descriptor'
	DD	00H
	DB	'.?AVCInputDevice@@', 00H
data$rs	ENDS
;	COMDAT ??_R3CInputDevice@@8
rdata$r	SEGMENT
??_R3CInputDevice@@8 DD 00H				; CInputDevice::`RTTI Class Hierarchy Descriptor'
	DD	00H
	DD	01H
	DD	FLAT:??_R2CInputDevice@@8
rdata$r	ENDS
;	COMDAT ??_R1A@?0A@EA@?$TAbstractSingleton@VIAbstractApplication@@@@8
rdata$r	SEGMENT
??_R1A@?0A@EA@?$TAbstractSingleton@VIAbstractApplication@@@@8 DD FLAT:??_R0?AV?$TAbstractSingleton@VIAbstractApplication@@@@@8 ; TAbstractSingleton<IAbstractApplication>::`RTTI Base Class Descriptor at (0,-1,0,64)'
	DD	00H
	DD	00H
	DD	0ffffffffH
	DD	00H
	DD	040H
	DD	FLAT:??_R3?$TAbstractSingleton@VIAbstractApplication@@@@8
rdata$r	ENDS
;	COMDAT ??_R1A@?0A@EA@IAbstractApplication@@8
rdata$r	SEGMENT
??_R1A@?0A@EA@IAbstractApplication@@8 DD FLAT:??_R0?AVIAbstractApplication@@@8 ; IAbstractApplication::`RTTI Base Class Descriptor at (0,-1,0,64)'
	DD	01H
	DD	00H
	DD	0ffffffffH
	DD	00H
	DD	040H
	DD	FLAT:??_R3IAbstractApplication@@8
rdata$r	ENDS
;	COMDAT ??_R1A@?0A@EA@CMSWindow@@8
rdata$r	SEGMENT
??_R1A@?0A@EA@CMSWindow@@8 DD FLAT:??_R0?AVCMSWindow@@@8 ; CMSWindow::`RTTI Base Class Descriptor at (0,-1,0,64)'
	DD	00H
	DD	00H
	DD	0ffffffffH
	DD	00H
	DD	040H
	DD	FLAT:??_R3CMSWindow@@8
rdata$r	ENDS
;	COMDAT ??_R1A@?0A@EA@CMSApplication@@8
rdata$r	SEGMENT
??_R1A@?0A@EA@CMSApplication@@8 DD FLAT:??_R0?AVCMSApplication@@@8 ; CMSApplication::`RTTI Base Class Descriptor at (0,-1,0,64)'
	DD	01H
	DD	00H
	DD	0ffffffffH
	DD	00H
	DD	040H
	DD	FLAT:??_R3CMSApplication@@8
rdata$r	ENDS
;	COMDAT ??_R1A@?0A@EA@CInputDevice@@8
rdata$r	SEGMENT
??_R1A@?0A@EA@CInputDevice@@8 DD FLAT:??_R0?AVCInputDevice@@@8 ; CInputDevice::`RTTI Base Class Descriptor at (0,-1,0,64)'
	DD	00H
	DD	00H
	DD	0ffffffffH
	DD	00H
	DD	040H
	DD	FLAT:??_R3CInputDevice@@8
rdata$r	ENDS
;	COMDAT ??_R1A@?0A@EA@CInputKeyboard@@8
rdata$r	SEGMENT
??_R1A@?0A@EA@CInputKeyboard@@8 DD FLAT:??_R0?AVCInputKeyboard@@@8 ; CInputKeyboard::`RTTI Base Class Descriptor at (0,-1,0,64)'
	DD	01H
	DD	00H
	DD	0ffffffffH
	DD	00H
	DD	040H
	DD	FLAT:??_R3CInputKeyboard@@8
rdata$r	ENDS
;	COMDAT ??_R1A@?0A@EA@CPythonApplication@@8
rdata$r	SEGMENT
??_R1A@?0A@EA@CPythonApplication@@8 DD FLAT:??_R0?AVCPythonApplication@@@8 ; CPythonApplication::`RTTI Base Class Descriptor at (0,-1,0,64)'
	DD	06H
	DD	00H
	DD	0ffffffffH
	DD	00H
	DD	040H
	DD	FLAT:??_R3CPythonApplication@@8
rdata$r	ENDS
;	COMDAT ??_R1BM@?0A@EA@CInputKeyboard@@8
rdata$r	SEGMENT
??_R1BM@?0A@EA@CInputKeyboard@@8 DD FLAT:??_R0?AVCInputKeyboard@@@8 ; CInputKeyboard::`RTTI Base Class Descriptor at (28,-1,0,64)'
	DD	01H
	DD	01cH
	DD	0ffffffffH
	DD	00H
	DD	040H
	DD	FLAT:??_R3CInputKeyboard@@8
rdata$r	ENDS
;	COMDAT ??_R1BM@?0A@EA@CInputDevice@@8
rdata$r	SEGMENT
??_R1BM@?0A@EA@CInputDevice@@8 DD FLAT:??_R0?AVCInputDevice@@@8 ; CInputDevice::`RTTI Base Class Descriptor at (28,-1,0,64)'
	DD	00H
	DD	01cH
	DD	0ffffffffH
	DD	00H
	DD	040H
	DD	FLAT:??_R3CInputDevice@@8
rdata$r	ENDS
;	COMDAT ??_R1CA@?0A@EA@IAbstractApplication@@8
rdata$r	SEGMENT
??_R1CA@?0A@EA@IAbstractApplication@@8 DD FLAT:??_R0?AVIAbstractApplication@@@8 ; IAbstractApplication::`RTTI Base Class Descriptor at (32,-1,0,64)'
	DD	01H
	DD	020H
	DD	0ffffffffH
	DD	00H
	DD	040H
	DD	FLAT:??_R3IAbstractApplication@@8
rdata$r	ENDS
;	COMDAT ??_R1CA@?0A@EA@?$TAbstractSingleton@VIAbstractApplication@@@@8
rdata$r	SEGMENT
??_R1CA@?0A@EA@?$TAbstractSingleton@VIAbstractApplication@@@@8 DD FLAT:??_R0?AV?$TAbstractSingleton@VIAbstractApplication@@@@@8 ; TAbstractSingleton<IAbstractApplication>::`RTTI Base Class Descriptor at (32,-1,0,64)'
	DD	00H
	DD	020H
	DD	0ffffffffH
	DD	00H
	DD	040H
	DD	FLAT:??_R3?$TAbstractSingleton@VIAbstractApplication@@@@8
rdata$r	ENDS
;	COMDAT ??_R2?$TAbstractSingleton@VIAbstractApplication@@@@8
rdata$r	SEGMENT
??_R2?$TAbstractSingleton@VIAbstractApplication@@@@8 DD FLAT:??_R1A@?0A@EA@?$TAbstractSingleton@VIAbstractApplication@@@@8 ; TAbstractSingleton<IAbstractApplication>::`RTTI Base Class Array'
rdata$r	ENDS
;	COMDAT ??_R2IAbstractApplication@@8
rdata$r	SEGMENT
??_R2IAbstractApplication@@8 DD FLAT:??_R1A@?0A@EA@IAbstractApplication@@8 ; IAbstractApplication::`RTTI Base Class Array'
	DD	FLAT:??_R1A@?0A@EA@?$TAbstractSingleton@VIAbstractApplication@@@@8
rdata$r	ENDS
;	COMDAT ??_R2CMSWindow@@8
rdata$r	SEGMENT
??_R2CMSWindow@@8 DD FLAT:??_R1A@?0A@EA@CMSWindow@@8	; CMSWindow::`RTTI Base Class Array'
rdata$r	ENDS
;	COMDAT ??_R2CMSApplication@@8
rdata$r	SEGMENT
??_R2CMSApplication@@8 DD FLAT:??_R1A@?0A@EA@CMSApplication@@8 ; CMSApplication::`RTTI Base Class Array'
	DD	FLAT:??_R1A@?0A@EA@CMSWindow@@8
rdata$r	ENDS
;	COMDAT ??_R2CInputDevice@@8
rdata$r	SEGMENT
??_R2CInputDevice@@8 DD FLAT:??_R1A@?0A@EA@CInputDevice@@8 ; CInputDevice::`RTTI Base Class Array'
rdata$r	ENDS
;	COMDAT ??_R2CInputKeyboard@@8
rdata$r	SEGMENT
??_R2CInputKeyboard@@8 DD FLAT:??_R1A@?0A@EA@CInputKeyboard@@8 ; CInputKeyboard::`RTTI Base Class Array'
	DD	FLAT:??_R1A@?0A@EA@CInputDevice@@8
rdata$r	ENDS
;	COMDAT ??_R2CPythonApplication@@8
rdata$r	SEGMENT
??_R2CPythonApplication@@8 DD FLAT:??_R1A@?0A@EA@CPythonApplication@@8 ; CPythonApplication::`RTTI Base Class Array'
	DD	FLAT:??_R1A@?0A@EA@CMSApplication@@8
	DD	FLAT:??_R1A@?0A@EA@CMSWindow@@8
	DD	FLAT:??_R1BM@?0A@EA@CInputKeyboard@@8
	DD	FLAT:??_R1BM@?0A@EA@CInputDevice@@8
	DD	FLAT:??_R1CA@?0A@EA@IAbstractApplication@@8
	DD	FLAT:??_R1CA@?0A@EA@?$TAbstractSingleton@VIAbstractApplication@@@@8
rdata$r	ENDS
;	COMDAT ??_C@_0CF@CBFEMJII@d?3?1ymir?5work?1special?1spheremap0@
CONST	SEGMENT
??_C@_0CF@CBFEMJII@d?3?1ymir?5work?1special?1spheremap0@ DB 'd:/ymir work'
	DB	'/special/spheremap01.jpg', 00H		; `string'
CONST	ENDS
;	COMDAT ??_C@_0CD@KIIBIHOG@d?3?1ymir?5work?1special?1spheremap?4@
CONST	SEGMENT
??_C@_0CD@KIIBIHOG@d?3?1ymir?5work?1special?1spheremap?4@ DB 'd:/ymir wor'
	DB	'k/special/spheremap.jpg', 00H		; `string'
CONST	ENDS
;	COMDAT ??_C@_0BB@EJLMKODK@?$CCCREATE_NETWORK?$CC@
CONST	SEGMENT
??_C@_0BB@EJLMKODK@?$CCCREATE_NETWORK?$CC@ DB '"CREATE_NETWORK"', 00H ; `string'
CONST	ENDS
;	COMDAT ??_C@_0BJ@CJEBNOLC@NetDevice?3?3Create?5failed@
CONST	SEGMENT
??_C@_0BJ@CJEBNOLC@NetDevice?3?3Create?5failed@ DB 'NetDevice::Create fai'
	DB	'led', 00H					; `string'
CONST	ENDS
;	COMDAT ??_C@_0BA@GLLECKCO@?$CCCREATE_CURSOR?$CC@
CONST	SEGMENT
??_C@_0BA@GLLECKCO@?$CCCREATE_CURSOR?$CC@ DB '"CREATE_CURSOR"', 00H ; `string'
CONST	ENDS
;	COMDAT ??_C@_0CA@FFOMJBHN@CMSWindow?3?3Cursors?5Create?5Error@
CONST	SEGMENT
??_C@_0CA@FFOMJBHN@CMSWindow?3?3Cursors?5Create?5Error@ DB 'CMSWindow::Cu'
	DB	'rsors Create Error', 00H			; `string'
CONST	ENDS
;	COMDAT ??_C@_0O@NOBMPFEG@CREATE_WINDOW@
CONST	SEGMENT
??_C@_0O@NOBMPFEG@CREATE_WINDOW@ DB 'CREATE_WINDOW', 00H ; `string'
CONST	ENDS
;	COMDAT ??_C@_0BJ@DBNNLGNG@CMSWindow?3?3Create?5failed@
CONST	SEGMENT
??_C@_0BJ@DBNNLGNG@CMSWindow?3?3Create?5failed@ DB 'CMSWindow::Create fai'
	DB	'led', 00H					; `string'
CONST	ENDS
;	COMDAT ??_C@_0CL@IBCOJJMI@LoadLocaleData?5?9?5LoadNPCWearIte@
CONST	SEGMENT
??_C@_0CL@IBCOJJMI@LoadLocaleData?5?9?5LoadNPCWearIte@ DB 'LoadLocaleData'
	DB	' - LoadNPCWearItem(%s) Error', 00H		; `string'
CONST	ENDS
;	COMDAT ??_C@_0DB@GEMLPGJM@LoadLocaleData?5?9?5RegisterPetSki@
CONST	SEGMENT
??_C@_0DB@GEMLPGJM@LoadLocaleData?5?9?5RegisterPetSki@ DB 'LoadLocaleData'
	DB	' - RegisterPetSkillTable(%s) Error', 00H	; `string'
CONST	ENDS
;	COMDAT ??_C@_0DF@HFNMNKEC@LoadLocaleData?5?9?5RegisterGuildB@
CONST	SEGMENT
??_C@_0DF@HFNMNKEC@LoadLocaleData?5?9?5RegisterGuildB@ DB 'LoadLocaleData'
	DB	' - RegisterGuildBuildingList(%s) Error', 00H ; `string'
CONST	ENDS
;	COMDAT ??_C@_0CO@ILPAGHEO@LoadLocaleData?5?9?5LoadLocaleQuiz@
CONST	SEGMENT
??_C@_0CO@ILPAGHEO@LoadLocaleData?5?9?5LoadLocaleQuiz@ DB 'LoadLocaleData'
	DB	' - LoadLocaleQuizVnum(%s) Error', 00H	; `string'
CONST	ENDS
;	COMDAT ??_C@_0CO@PHJMHAHD@LoadLocaleData?5?9?5LoadLocaleChat@
CONST	SEGMENT
??_C@_0CO@PHJMHAHD@LoadLocaleData?5?9?5LoadLocaleChat@ DB 'LoadLocaleData'
	DB	' - LoadLocaleChatVnum(%s) Error', 00H	; `string'
CONST	ENDS
;	COMDAT ??_C@_0DA@DIGJHCGF@LoadLocaleData?5?9?5LoadLocaleStri@
CONST	SEGMENT
??_C@_0DA@DIGJHCGF@LoadLocaleData?5?9?5LoadLocaleStri@ DB 'LoadLocaleData'
	DB	' - LoadLocaleStringVnum(%s) Error', 00H	; `string'
CONST	ENDS
;	COMDAT ??_C@_0CP@CBNIPEEN@LoadLocaleData?5?9?5LoadEventRewar@
CONST	SEGMENT
??_C@_0CP@CBNIPEEN@LoadLocaleData?5?9?5LoadEventRewar@ DB 'LoadLocaleData'
	DB	' - LoadEventRewardList(%s) Error', 00H	; `string'
CONST	ENDS
;	COMDAT ??_C@_0CJ@MDAGKIOK@LoadLocaleData?5?9?5LoadAuraScale?$CI@
CONST	SEGMENT
??_C@_0CJ@MDAGKIOK@LoadLocaleData?5?9?5LoadAuraScale?$CI@ DB 'LoadLocaleD'
	DB	'ata - LoadAuraScale(%s) Error', 00H		; `string'
CONST	ENDS
;	COMDAT ??_C@_0CI@NHMEBJOH@LoadLocaleData?3?5error?5while?5loa@
CONST	SEGMENT
??_C@_0CI@NHMEBJOH@LoadLocaleData?3?5error?5while?5loa@ DB 'LoadLocaleDat'
	DB	'a: error while loading %s.', 00H		; `string'
CONST	ENDS
;	COMDAT ??_C@_0CG@PLPHALMN@LoadMobScale?5?9?5LoadMobScale?$CI?$CFs?$CJ@
CONST	SEGMENT
??_C@_0CG@PLPHALMN@LoadMobScale?5?9?5LoadMobScale?$CI?$CFs?$CJ@ DB 'LoadM'
	DB	'obScale - LoadMobScale(%s) Error', 00H	; `string'
CONST	ENDS
;	COMDAT ??_C@_0DO@PNDPPMDH@CPythonApplication?5?9?5CPythonNet@
CONST	SEGMENT
??_C@_0DO@PNDPPMDH@CPythonApplication?5?9?5CPythonNet@ DB 'CPythonApplica'
	DB	'tion - CPythonNetworkStream::LoadInsultList(%s)', 00H ; `string'
CONST	ENDS
;	COMDAT ??_C@_0CO@HCDPLHIO@LoadLocaleData?5?9?5RegisterSkillT@
CONST	SEGMENT
??_C@_0CO@HCDPLHIO@LoadLocaleData?5?9?5RegisterSkillT@ DB 'LoadLocaleData'
	DB	' - RegisterSkillTable(%s) Error', 00H	; `string'
CONST	ENDS
;	COMDAT ??_C@_0CN@NIKOAAJF@LoadLocaleData?5?9?5RegisterSkillD@
CONST	SEGMENT
??_C@_0CN@NIKOAAJF@LoadLocaleData?5?9?5RegisterSkillD@ DB 'LoadLocaleData'
	DB	' - RegisterSkillDesc(%s) Error', 00H	; `string'
CONST	ENDS
;	COMDAT ??_C@_0CI@PNCAMHEJ@LoadLocaleData?5?9?5LoadMobProto?$CI?$CF@
CONST	SEGMENT
??_C@_0CI@PNCAMHEJ@LoadLocaleData?5?9?5LoadMobProto?$CI?$CF@ DB 'LoadLoca'
	DB	'leData - LoadMobProto(%s) Error', 00H	; `string'
CONST	ENDS
;	COMDAT ??_C@_0CI@FLOPHKEN@LoadLocaleData?5?9?5LoadItemDesc?$CI?$CF@
CONST	SEGMENT
??_C@_0CI@FLOPHKEN@LoadLocaleData?5?9?5LoadItemDesc?$CI?$CF@ DB 'LoadLoca'
	DB	'leData - LoadItemDesc(%s) Error', 00H	; `string'
CONST	ENDS
;	COMDAT ??_C@_0CJ@MIFDPICO@LoadLocaleData?5?9?5LoadItemProto?$CI@
CONST	SEGMENT
??_C@_0CJ@MIFDPICO@LoadLocaleData?5?9?5LoadItemProto?$CI@ DB 'LoadLocaleD'
	DB	'ata - LoadItemProto(%s) Error', 00H		; `string'
CONST	ENDS
;	COMDAT ??_C@_0CI@MGBDCDJE@LoadLocaleData?5?9?5LoadItemList?$CI?$CF@
CONST	SEGMENT
??_C@_0CI@MGBDCDJE@LoadLocaleData?5?9?5LoadItemList?$CI?$CF@ DB 'LoadLoca'
	DB	'leData - LoadItemList(%s) Error', 00H	; `string'
CONST	ENDS
;	COMDAT ??_C@_0O@JEIJHCCG@?$CFs?1insult?4txt@
CONST	SEGMENT
??_C@_0O@JEIJHCCG@?$CFs?1insult?4txt@ DB '%s/insult.txt', 00H ; `string'
CONST	ENDS
;	COMDAT ??_C@_0BB@JDMIHPNN@?$CFs?1SkillDesc?4txt@
CONST	SEGMENT
??_C@_0BB@JDMIHPNN@?$CFs?1SkillDesc?4txt@ DB '%s/SkillDesc.txt', 00H ; `string'
CONST	ENDS
;	COMDAT ??_C@_0N@KCBCHIHM@?$CFs?1mob_proto@
CONST	SEGMENT
??_C@_0N@KCBCHIHM@?$CFs?1mob_proto@ DB '%s/mob_proto', 00H ; `string'
CONST	ENDS
;	COMDAT ??_C@_0BA@BIDKFLDM@?$CFs?1itemdesc?4txt@
CONST	SEGMENT
??_C@_0BA@BIDKFLDM@?$CFs?1itemdesc?4txt@ DB '%s/itemdesc.txt', 00H ; `string'
CONST	ENDS
;	COMDAT ??_C@_0O@MEMEPBB@?$CFs?1item_proto@
CONST	SEGMENT
??_C@_0O@MEMEPBB@?$CFs?1item_proto@ DB '%s/item_proto', 00H ; `string'
CONST	ENDS
;	COMDAT ??_C@_0BA@EPHKNMDA@?$CFs?1npc_wear?4txt@
CONST	SEGMENT
??_C@_0BA@EPHKNMDA@?$CFs?1npc_wear?4txt@ DB '%s/npc_wear.txt', 00H ; `string'
CONST	ENDS
;	COMDAT ??_C@_0BB@EHJGDDML@?$CFs?1pet_skill?4txt@
CONST	SEGMENT
??_C@_0BB@EHJGDDML@?$CFs?1pet_skill?4txt@ DB '%s/pet_skill.txt', 00H ; `string'
CONST	ENDS
;	COMDAT ??_C@_0BJ@CILNFEAO@?$CFs?1guildbuildinglist?4txt@
CONST	SEGMENT
??_C@_0BJ@CILNFEAO@?$CFs?1guildbuildinglist?4txt@ DB '%s/guildbuildinglis'
	DB	't.txt', 00H					; `string'
CONST	ENDS
;	COMDAT ??_C@_0BD@CFBMHOFC@?$CFs?1locale_quiz?4txt@
CONST	SEGMENT
??_C@_0BD@CFBMHOFC@?$CFs?1locale_quiz?4txt@ DB '%s/locale_quiz.txt', 00H ; `string'
CONST	ENDS
;	COMDAT ??_C@_0BE@CKCMBMKI@?$CFs?1monster_chat?4txt@
CONST	SEGMENT
??_C@_0BE@CKCMBMKI@?$CFs?1monster_chat?4txt@ DB '%s/monster_chat.txt', 00H ; `string'
CONST	ENDS
;	COMDAT ??_C@_0BF@DDJEMEFH@?$CFs?1locale_string?4txt@
CONST	SEGMENT
??_C@_0BF@DDJEMEFH@?$CFs?1locale_string?4txt@ DB '%s/locale_string.txt', 00H ; `string'
CONST	ENDS
;	COMDAT ??_C@_0BJ@LHDGEGED@?$CFs?1event_reward_list?4txt@
CONST	SEGMENT
??_C@_0BJ@LHDGEGED@?$CFs?1event_reward_list?4txt@ DB '%s/event_reward_lis'
	DB	't.txt', 00H					; `string'
CONST	ENDS
;	COMDAT ??_C@_0BC@GDFAFLKP@?$CFs?1aura_scale?4txt@
CONST	SEGMENT
??_C@_0BC@GDFAFLKP@?$CFs?1aura_scale?4txt@ DB '%s/aura_scale.txt', 00H ; `string'
CONST	ENDS
;	COMDAT ??_C@_0BC@PNKIJLFN@?$CFs?1item_scale?4txt@
CONST	SEGMENT
??_C@_0BC@PNKIJLFN@?$CFs?1item_scale?4txt@ DB '%s/item_scale.txt', 00H ; `string'
CONST	ENDS
;	COMDAT ??_C@_0BB@JGLJKD@?$CFs?1mob_scale?4txt@
CONST	SEGMENT
??_C@_0BB@JGLJKD@?$CFs?1mob_scale?4txt@ DB '%s/mob_scale.txt', 00H ; `string'
CONST	ENDS
;	COMDAT ??_C@_0BC@NLEJCAEF@?$CFs?1SkillTable?4txt@
CONST	SEGMENT
??_C@_0BC@NLEJCAEF@?$CFs?1SkillTable?4txt@ DB '%s/SkillTable.txt', 00H ; `string'
CONST	ENDS
;	COMDAT ??_C@_0BB@EOELDOLA@?$CFs?1item_list?4txt@
CONST	SEGMENT
??_C@_0BB@EOELDOLA@?$CFs?1item_list?4txt@ DB '%s/item_list.txt', 00H ; `string'
CONST	ENDS
;	COMDAT ??_C@_0O@MBOHINFJ@locale?1common@
CONST	SEGMENT
??_C@_0O@MBOHINFJ@locale?1common@ DB 'locale/common', 00H ; `string'
CONST	ENDS
;	COMDAT ??_C@_0BN@JAHEKIGK@CreateDevice?3?5Unknown?5Error?$CB@
CONST	SEGMENT
??_C@_0BN@JAHEKIGK@CreateDevice?3?5Unknown?5Error?$CB@ DB 'CreateDevice: '
	DB	'Unknown Error!', 00H			; `string'
CONST	ENDS
;	COMDAT ??_C@_0O@BAEJJDKB@UNKNOWN_ERROR@
CONST	SEGMENT
??_C@_0O@BAEJJDKB@UNKNOWN_ERROR@ DB 'UNKNOWN_ERROR', 00H ; `string'
CONST	ENDS
;	COMDAT ??_C@_0CB@JLAAEKGJ@CreateDevice?3?5GetDevCaps2?5faile@
CONST	SEGMENT
??_C@_0CB@JLAAEKGJ@CreateDevice?3?5GetDevCaps2?5faile@ DB 'CreateDevice: '
	DB	'GetDevCaps2 failed', 00H			; `string'
CONST	ENDS
;	COMDAT ??_C@_0BD@IHNLMMLJ@GetDevCaps2?5failed@
CONST	SEGMENT
??_C@_0BD@IHNLMMLJ@GetDevCaps2?5failed@ DB 'GetDevCaps2 failed', 00H ; `string'
CONST	ENDS
;	COMDAT ??_C@_0CA@DLHDILBB@CreateDevice?3?5GetDevCaps?5failed@
CONST	SEGMENT
??_C@_0CA@DLHDILBB@CreateDevice?3?5GetDevCaps?5failed@ DB 'CreateDevice: '
	DB	'GetDevCaps failed', 00H			; `string'
CONST	ENDS
;	COMDAT ??_C@_0BC@IMJEDJEA@GetDevCaps?5failed@
CONST	SEGMENT
??_C@_0BC@IMJEDJEA@GetDevCaps?5failed@ DB 'GetDevCaps failed', 00H ; `string'
CONST	ENDS
;	COMDAT ??_C@_0CH@DEBFNBPL@CreateDevice?3?5Change?5the?5screen@
CONST	SEGMENT
??_C@_0CH@DEBFNBPL@CreateDevice?3?5Change?5the?5screen@ DB 'CreateDevice:'
	DB	' Change the screen format', 00H		; `string'
CONST	ENDS
;	COMDAT ??_C@_0O@DAEHMKOB@CREATE_FORMAT@
CONST	SEGMENT
??_C@_0O@DAEHMKOB@CREATE_FORMAT@ DB 'CREATE_FORMAT', 00H ; `string'
CONST	ENDS
;	COMDAT ??_C@_0CK@KMPBIDGP@CreateDevice?3?5GraphicDevice?5cre@
CONST	SEGMENT
??_C@_0CK@KMPBIDGP@CreateDevice?3?5GraphicDevice?5cre@ DB 'CreateDevice: '
	DB	'GraphicDevice create failed', 00H		; `string'
CONST	ENDS
;	COMDAT ??_C@_0O@CMPMDOEH@CREATE_DEVICE@
CONST	SEGMENT
??_C@_0O@CMPMDOEH@CREATE_DEVICE@ DB 'CREATE_DEVICE', 00H ; `string'
CONST	ENDS
;	COMDAT ??_C@_0DK@GACPAJMM@CreateDevice?3?5DirectX?58?41?5or?5gr@
CONST	SEGMENT
??_C@_0DK@GACPAJMM@CreateDevice?3?5DirectX?58?41?5or?5gr@ DB 'CreateDevic'
	DB	'e: DirectX 8.1 or greater required to run game', 00H ; `string'
CONST	ENDS
;	COMDAT ??_C@_0BC@NKAKBNDM@CREATE_NO_DIRECTX@
CONST	SEGMENT
??_C@_0BC@NKAKBNDM@CREATE_NO_DIRECTX@ DB 'CREATE_NO_DIRECTX', 00H ; `string'
CONST	ENDS
;	COMDAT ??_C@_0CD@GGLEAAKE@CreateDevice?3?5Enum?5?$CG?5Detect?5fai@
CONST	SEGMENT
??_C@_0CD@GGLEAAKE@CreateDevice?3?5Enum?5?$CG?5Detect?5fai@ DB 'CreateDev'
	DB	'ice: Enum & Detect failed', 00H		; `string'
CONST	ENDS
;	COMDAT ??_C@_0BN@OAKBEJJN@CREATE_NO_APPROPRIATE_DEVICE@
CONST	SEGMENT
??_C@_0BN@OAKBEJJN@CREATE_NO_APPROPRIATE_DEVICE@ DB 'CREATE_NO_APPROPRIAT'
	DB	'E_DEVICE', 00H				; `string'
CONST	ENDS
;	COMDAT ??_C@_0CF@LOPCCCAL@DEVICESTATE_NEEDS_RESET?5?9?5attem@
CONST	SEGMENT
??_C@_0CF@LOPCCCAL@DEVICESTATE_NEEDS_RESET?5?9?5attem@ DB 'DEVICESTATE_NE'
	DB	'EDS_RESET - attempting', 00H		; `string'
CONST	ENDS
;	COMDAT ??_C@_0BL@GHJOJKGG@FrameSkip?5Adjusting?4?4?4?5?$CFd?6@
CONST	SEGMENT
??_C@_0BL@GHJOJKGG@FrameSkip?5Adjusting?4?4?4?5?$CFd?6@ DB 'FrameSkip Adj'
	DB	'usting... %d', 0aH, 00H			; `string'
CONST	ENDS
;	COMDAT ??_C@_0M@EHJKIBDK@Abort?$CB?$CB?$CB?$CB?6?6@
CONST	SEGMENT
??_C@_0M@EHJKIBDK@Abort?$CB?$CB?$CB?$CB?6?6@ DB 'Abort!!!!', 0aH, 0aH, 00H ; `string'
CONST	ENDS
;	COMDAT ??_C@_0GN@LLBDNFAM@?$DN?$DN?$DN?$DN?$DN?$DN?$DN?$DN?$DN?$DN?$DN?$DN?$DN?$DN?$DN?$DN?$DN?$DN?$DN?$DN?$DN?$DN?$DN?$DN?$DN?$DN?$DN?$DN?$DN?$DN?$DN@
CONST	SEGMENT
??_C@_0GN@LLBDNFAM@?$DN?$DN?$DN?$DN?$DN?$DN?$DN?$DN?$DN?$DN?$DN?$DN?$DN?$DN?$DN?$DN?$DN?$DN?$DN?$DN?$DN?$DN?$DN?$DN?$DN?$DN?$DN?$DN?$DN?$DN?$DN@ DB '='
	DB	'============================================================='
	DB	'==============================================', 00H ; `string'
CONST	ENDS
;	COMDAT ??_C@_1DA@IANAENLC@?$AAm?$AAs?$AA_?$AAp?$AAI?$AAn?$AAs?$AAt?$AAa?$AAn?$AAc?$AAe?$AA?5?$AA?$CB?$AA?$DN@
CONST	SEGMENT
??_C@_1DA@IANAENLC@?$AAm?$AAs?$AA_?$AAp?$AAI?$AAn?$AAs?$AAt?$AAa?$AAn?$AAc?$AAe?$AA?5?$AA?$CB?$AA?$DN@ DB 'm'
	DB	00H, 's', 00H, '_', 00H, 'p', 00H, 'I', 00H, 'n', 00H, 's', 00H
	DB	't', 00H, 'a', 00H, 'n', 00H, 'c', 00H, 'e', 00H, ' ', 00H, '!'
	DB	00H, '=', 00H, ' ', 00H, 'n', 00H, 'u', 00H, 'l', 00H, 'l', 00H
	DB	'p', 00H, 't', 00H, 'r', 00H, 00H, 00H	; `string'
CONST	ENDS
;	COMDAT ??_C@_1KI@NDOHEKDB@?$AAC?$AA?3?$AA?2?$AAA?$AAn?$AAk?$AAa?$AA2?$AAP?$AAr?$AAo?$AAj?$AAe?$AAc?$AAt@
CONST	SEGMENT
??_C@_1KI@NDOHEKDB@?$AAC?$AA?3?$AA?2?$AAA?$AAn?$AAk?$AAa?$AA2?$AAP?$AAr?$AAo?$AAj?$AAe?$AAc?$AAt@ DB 'C'
	DB	00H, ':', 00H, '\', 00H, 'A', 00H, 'n', 00H, 'k', 00H, 'a', 00H
	DB	'2', 00H, 'P', 00H, 'r', 00H, 'o', 00H, 'j', 00H, 'e', 00H, 'c'
	DB	00H, 't', 00H, '\', 00H, 'A', 00H, 'n', 00H, 'k', 00H, 'a', 00H
	DB	'2', 00H, 'P', 00H, 'r', 00H, 'o', 00H, 'j', 00H, 'e', 00H, 'c'
	DB	00H, 't', 00H, '\', 00H, 'S', 00H, 'o', 00H, 'u', 00H, 'r', 00H
	DB	'c', 00H, 'e', 00H, '\', 00H, 'B', 00H, 'i', 00H, 'n', 00H, 'a'
	DB	00H, 'r', 00H, 'y', 00H, '\', 00H, 's', 00H, 'o', 00H, 'u', 00H
	DB	'r', 00H, 'c', 00H, 'e', 00H, '\', 00H, 'U', 00H, 's', 00H, 'e'
	DB	00H, 'r', 00H, 'I', 00H, 'n', 00H, 't', 00H, 'e', 00H, 'r', 00H
	DB	'f', 00H, 'a', 00H, 'c', 00H, 'e', 00H, '\', 00H, 'P', 00H, 'y'
	DB	00H, 't', 00H, 'h', 00H, 'o', 00H, 'n', 00H, 'A', 00H, 'p', 00H
	DB	'p', 00H, 'l', 00H, 'i', 00H, 'c', 00H, 'a', 00H, 't', 00H, 'i'
	DB	00H, 'o', 00H, 'n', 00H, '.', 00H, 'h', 00H, 00H, 00H ; `string'
?MIN_FOG@@3MA DD 045160000r			; 2400	; MIN_FOG
?g_specularSpd@@3NA DQ 03f7cac0840000000r	; 0.007	; g_specularSpd
?c_fDefaultCameraZoomSpeed@@3MA DD 03d4ccccdr	; 0.05	; c_fDefaultCameraZoomSpeed
?c_fDefaultCameraPitchSpeed@@3MA DD 03fc00000r	; 1.5	; c_fDefaultCameraPitchSpeed
?c_fDefaultCameraRotateSpeed@@3MA DD 03fc00000r	; 1.5	; c_fDefaultCameraRotateSpeed
PUBLIC	?SetUpdateTime@CTimer@@QAEXIEE@Z		; CTimer::SetUpdateTime
PUBLIC	??_ECPythonApplication@@WCA@AEPAXI@Z		; [thunk]:CPythonApplication::`vector deleting destructor'
PUBLIC	??_ECPythonApplication@@WBM@AEPAXI@Z		; [thunk]:CPythonApplication::`vector deleting destructor'
PUBLIC	??$construct_at@PAU?$_Tree_node@U?$pair@$$CBHPAX@std@@PAX@std@@ABQAU12@@std@@YAPAPAU?$_Tree_node@U?$pair@$$CBHPAX@std@@PAX@0@QAPAU10@ABQAU10@@Z ; std::construct_at<std::_Tree_node<std::pair<int const ,void *>,void *> *,std::_Tree_node<std::pair<int const ,void *>,void *> * const &>
PUBLIC	??$forward@ABQAU?$_Tree_node@U?$pair@$$CBHPAX@std@@PAX@std@@@std@@YAABQAU?$_Tree_node@U?$pair@$$CBHPAX@std@@PAX@0@ABQAU10@@Z ; std::forward<std::_Tree_node<std::pair<int const ,void *>,void *> * const &>
PUBLIC	??$addressof@PAU?$_Tree_node@U?$pair@$$CBHPAX@std@@PAX@std@@@std@@YAPAPAU?$_Tree_node@U?$pair@$$CBHPAX@std@@PAX@0@AAPAU10@@Z ; std::addressof<std::_Tree_node<std::pair<int const ,void *>,void *> *>
PUBLIC	??$destroy_at@U?$pair@$$CBHPAX@std@@@std@@YAXQAU?$pair@$$CBHPAX@0@@Z ; std::destroy_at<std::pair<int const ,void *> >
PUBLIC	??0?$allocator@U?$_Tree_node@U?$pair@$$CBHPAX@std@@PAX@std@@@std@@QAE@XZ ; std::allocator<std::_Tree_node<std::pair<int const ,void *>,void *> >::allocator<std::_Tree_node<std::pair<int const ,void *>,void *> >
PUBLIC	?deallocate@?$allocator@U?$_Tree_node@U?$pair@$$CBHPAX@std@@PAX@std@@@std@@QAEXQAU?$_Tree_node@U?$pair@$$CBHPAX@std@@PAX@2@I@Z ; std::allocator<std::_Tree_node<std::pair<int const ,void *>,void *> >::deallocate
PUBLIC	?allocate@?$allocator@U?$_Tree_node@U?$pair@$$CBHPAX@std@@PAX@std@@@std@@QAEPAU?$_Tree_node@U?$pair@$$CBHPAX@std@@PAX@2@I@Z ; std::allocator<std::_Tree_node<std::pair<int const ,void *>,void *> >::allocate
PUBLIC	??0?$_Tree_val@U?$_Tree_simple_types@U?$pair@$$CBHPAX@std@@@std@@@std@@QAE@XZ ; std::_Tree_val<std::_Tree_simple_types<std::pair<int const ,void *> > >::_Tree_val<std::_Tree_simple_types<std::pair<int const ,void *> > >
PUBLIC	??$_Construct_in_place@PAU?$_Tree_node@U?$pair@$$CBHPAX@std@@PAX@std@@ABQAU12@@std@@YAXAAPAU?$_Tree_node@U?$pair@$$CBHPAX@std@@PAX@0@ABQAU10@@Z ; std::_Construct_in_place<std::_Tree_node<std::pair<int const ,void *>,void *> *,std::_Tree_node<std::pair<int const ,void *>,void *> * const &>
PUBLIC	??$destroy@U?$pair@$$CBHPAX@std@@@?$_Default_allocator_traits@V?$allocator@U?$_Tree_node@U?$pair@$$CBHPAX@std@@PAX@std@@@std@@@std@@SAXAAV?$allocator@U?$_Tree_node@U?$pair@$$CBHPAX@std@@PAX@std@@@1@QAU?$pair@$$CBHPAX@1@@Z ; std::_Default_allocator_traits<std::allocator<std::_Tree_node<std::pair<int const ,void *>,void *> > >::destroy<std::pair<int const ,void *> >
PUBLIC	??$addressof@U?$pair@$$CBHPAX@std@@@std@@YAPAU?$pair@$$CBHPAX@0@AAU10@@Z ; std::addressof<std::pair<int const ,void *> >
PUBLIC	?deallocate@?$_Default_allocator_traits@V?$allocator@U?$_Tree_node@U?$pair@$$CBHPAX@std@@PAX@std@@@std@@@std@@SAXAAV?$allocator@U?$_Tree_node@U?$pair@$$CBHPAX@std@@PAX@std@@@2@QAU?$_Tree_node@U?$pair@$$CBHPAX@std@@PAX@2@I@Z ; std::_Default_allocator_traits<std::allocator<std::_Tree_node<std::pair<int const ,void *>,void *> > >::deallocate
PUBLIC	??$_Buyheadnode@V?$allocator@U?$_Tree_node@U?$pair@$$CBHPAX@std@@PAX@std@@@std@@@?$_Tree_node@U?$pair@$$CBHPAX@std@@PAX@std@@SAPAU01@AAV?$allocator@U?$_Tree_node@U?$pair@$$CBHPAX@std@@PAX@std@@@1@@Z ; std::_Tree_node<std::pair<int const ,void *>,void *>::_Buyheadnode<std::allocator<std::_Tree_node<std::pair<int const ,void *>,void *> > >
PUBLIC	??$_Destroy_in_place@PAU?$_Tree_node@U?$pair@$$CBHPAX@std@@PAX@std@@@std@@YAXAAPAU?$_Tree_node@U?$pair@$$CBHPAX@std@@PAX@0@@Z ; std::_Destroy_in_place<std::_Tree_node<std::pair<int const ,void *>,void *> *>
PUBLIC	??$_Freenode@V?$allocator@U?$_Tree_node@U?$pair@$$CBHPAX@std@@PAX@std@@@std@@@?$_Tree_node@U?$pair@$$CBHPAX@std@@PAX@std@@SAXAAV?$allocator@U?$_Tree_node@U?$pair@$$CBHPAX@std@@PAX@std@@@1@PAU01@@Z ; std::_Tree_node<std::pair<int const ,void *>,void *>::_Freenode<std::allocator<std::_Tree_node<std::pair<int const ,void *>,void *> > >
PUBLIC	??$exchange@PAU?$_Tree_node@U?$pair@$$CBHPAX@std@@PAX@std@@AAPAU12@@std@@YAPAU?$_Tree_node@U?$pair@$$CBHPAX@std@@PAX@0@AAPAU10@0@Z ; std::exchange<std::_Tree_node<std::pair<int const ,void *>,void *> *,std::_Tree_node<std::pair<int const ,void *>,void *> * &>
PUBLIC	??$?0$$V@?$_Compressed_pair@V?$allocator@U?$_Tree_node@U?$pair@$$CBHPAX@std@@PAX@std@@@std@@V?$_Tree_val@U?$_Tree_simple_types@U?$pair@$$CBHPAX@std@@@std@@@2@$00@std@@QAE@U_Zero_then_variadic_args_t@1@@Z ; std::_Compressed_pair<std::allocator<std::_Tree_node<std::pair<int const ,void *>,void *> >,std::_Tree_val<std::_Tree_simple_types<std::pair<int const ,void *> > >,1>::_Compressed_pair<std::allocator<std::_Tree_node<std::pair<int const ,void *>,void *> >,std::_Tree_val<std::_Tree_simple_types<std::pair<int const ,void *> > >,1><>
PUBLIC	?_Alloc_sentinel_and_proxy@?$_Tree@V?$_Tmap_traits@HPAXU?$less@H@std@@V?$allocator@U?$pair@$$CBHPAX@std@@@2@$0A@@std@@@std@@IAEXXZ ; std::_Tree<std::_Tmap_traits<int,void *,std::less<int>,std::allocator<std::pair<int const ,void *> >,0> >::_Alloc_sentinel_and_proxy
PUBLIC	?_Get_first@?$_Compressed_pair@V?$allocator@U?$_Tree_node@U?$pair@$$CBHPAX@std@@PAX@std@@@std@@V?$_Tree_val@U?$_Tree_simple_types@U?$pair@$$CBHPAX@std@@@std@@@2@$00@std@@QAEAAV?$allocator@U?$_Tree_node@U?$pair@$$CBHPAX@std@@PAX@std@@@2@XZ ; std::_Compressed_pair<std::allocator<std::_Tree_node<std::pair<int const ,void *>,void *> >,std::_Tree_val<std::_Tree_simple_types<std::pair<int const ,void *> > >,1>::_Get_first
PUBLIC	??$?0ABU?$less@H@std@@U_Zero_then_variadic_args_t@1@@?$_Compressed_pair@U?$less@H@std@@V?$_Compressed_pair@V?$allocator@U?$_Tree_node@U?$pair@$$CBHPAX@std@@PAX@std@@@std@@V?$_Tree_val@U?$_Tree_simple_types@U?$pair@$$CBHPAX@std@@@std@@@2@$00@2@$00@std@@QAE@U_One_then_variadic_args_t@1@ABU?$less@H@1@$$QAU_Zero_then_variadic_args_t@1@@Z ; std::_Compressed_pair<std::less<int>,std::_Compressed_pair<std::allocator<std::_Tree_node<std::pair<int const ,void *>,void *> >,std::_Tree_val<std::_Tree_simple_types<std::pair<int const ,void *> > >,1>,1>::_Compressed_pair<std::less<int>,std::_Compressed_pair<std::allocator<std::_Tree_node<std::pair<int const ,void *>,void *> >,std::_Tree_val<std::_Tree_simple_types<std::pair<int const ,void *> > >,1>,1><std::less<int> const &,std::_Zero_then_variadic_args_t>
PUBLIC	??$addressof@V?$_Tree_val@U?$_Tree_simple_types@U?$pair@$$CBHPAX@std@@@std@@@std@@@std@@YAPAV?$_Tree_val@U?$_Tree_simple_types@U?$pair@$$CBHPAX@std@@@std@@@0@AAV10@@Z ; std::addressof<std::_Tree_val<std::_Tree_simple_types<std::pair<int const ,void *> > > >
PUBLIC	??$_Freenode0@V?$allocator@U?$_Tree_node@U?$pair@$$CBHPAX@std@@PAX@std@@@std@@@?$_Tree_node@U?$pair@$$CBHPAX@std@@PAX@std@@SAXAAV?$allocator@U?$_Tree_node@U?$pair@$$CBHPAX@std@@PAX@std@@@1@PAU01@@Z ; std::_Tree_node<std::pair<int const ,void *>,void *>::_Freenode0<std::allocator<std::_Tree_node<std::pair<int const ,void *>,void *> > >
PUBLIC	??$_Erase_tree@V?$allocator@U?$_Tree_node@U?$pair@$$CBHPAX@std@@PAX@std@@@std@@@?$_Tree_val@U?$_Tree_simple_types@U?$pair@$$CBHPAX@std@@@std@@@std@@QAEXAAV?$allocator@U?$_Tree_node@U?$pair@$$CBHPAX@std@@PAX@std@@@1@PAU?$_Tree_node@U?$pair@$$CBHPAX@std@@PAX@1@@Z ; std::_Tree_val<std::_Tree_simple_types<std::pair<int const ,void *> > >::_Erase_tree<std::allocator<std::_Tree_node<std::pair<int const ,void *>,void *> > >
PUBLIC	??$?0H@?$_Tuple_val@H@std@@QAE@$$QAH@Z		; std::_Tuple_val<int>::_Tuple_val<int><int>
PUBLIC	??$?0U_Exact_args_t@std@@H$$V$0A@@?$tuple@H@std@@QAE@U_Exact_args_t@1@$$QAH@Z ; std::tuple<int>::tuple<int><std::_Exact_args_t,int,0>
PUBLIC	??0?$_Tree@V?$_Tmap_traits@HPAXU?$less@H@std@@V?$allocator@U?$pair@$$CBHPAX@std@@@2@$0A@@std@@@std@@QAE@ABU?$less@H@1@@Z ; std::_Tree<std::_Tmap_traits<int,void *,std::less<int>,std::allocator<std::pair<int const ,void *> >,0> >::_Tree<std::_Tmap_traits<int,void *,std::less<int>,std::allocator<std::pair<int const ,void *> >,0> >
PUBLIC	?_Getal@?$_Tree@V?$_Tmap_traits@HPAXU?$less@H@std@@V?$allocator@U?$pair@$$CBHPAX@std@@@2@$0A@@std@@@std@@IAEAAV?$allocator@U?$_Tree_node@U?$pair@$$CBHPAX@std@@PAX@std@@@2@XZ ; std::_Tree<std::_Tmap_traits<int,void *,std::less<int>,std::allocator<std::pair<int const ,void *> >,0> >::_Getal
PUBLIC	?_Get_scary@?$_Tree@V?$_Tmap_traits@HPAXU?$less@H@std@@V?$allocator@U?$pair@$$CBHPAX@std@@@2@$0A@@std@@@std@@IAEPAV?$_Tree_val@U?$_Tree_simple_types@U?$pair@$$CBHPAX@std@@@std@@@2@XZ ; std::_Tree<std::_Tmap_traits<int,void *,std::less<int>,std::allocator<std::pair<int const ,void *> >,0> >::_Get_scary
PUBLIC	??$_Erase_head@V?$allocator@U?$_Tree_node@U?$pair@$$CBHPAX@std@@PAX@std@@@std@@@?$_Tree_val@U?$_Tree_simple_types@U?$pair@$$CBHPAX@std@@@std@@@std@@QAEXAAV?$allocator@U?$_Tree_node@U?$pair@$$CBHPAX@std@@PAX@std@@@1@@Z ; std::_Tree_val<std::_Tree_simple_types<std::pair<int const ,void *> > >::_Erase_head<std::allocator<std::_Tree_node<std::pair<int const ,void *>,void *> > >
PUBLIC	??$?0U_Exact_args_t@std@@HH$0A@@?$tuple@HH@std@@QAE@U_Exact_args_t@1@$$QAH1@Z ; std::tuple<int,int>::tuple<int,int><std::_Exact_args_t,int,int,0>
PUBLIC	??_G?$TAbstractSingleton@VIAbstractApplication@@@@UAEPAXI@Z ; TAbstractSingleton<IAbstractApplication>::`scalar deleting destructor'
PUBLIC	?Instance@?$CSingleton@VCTimer@@@@SAAAVCTimer@@XZ ; CSingleton<CTimer>::Instance
PUBLIC	?Instance@?$CSingleton@VCWindowManager@UI@@@@SAAAVCWindowManager@UI@@XZ ; CSingleton<UI::CWindowManager>::Instance
PUBLIC	?Instance@?$CSingleton@VCPythonIME@@@@SAAAVCPythonIME@@XZ ; CSingleton<CPythonIME>::Instance
PUBLIC	??0?$TAbstractSingleton@VIAbstractApplication@@@@QAE@XZ ; TAbstractSingleton<IAbstractApplication>::TAbstractSingleton<IAbstractApplication>
PUBLIC	??1?$TAbstractSingleton@VIAbstractApplication@@@@UAE@XZ ; TAbstractSingleton<IAbstractApplication>::~TAbstractSingleton<IAbstractApplication>
PUBLIC	?Instance@?$CSingleton@VCPythonPlayerSettingsModule@@@@SAAAVCPythonPlayerSettingsModule@@XZ ; CSingleton<CPythonPlayerSettingsModule>::Instance
PUBLIC	?Instance@?$CSingleton@VCRenderTargetManager@@@@SAAAVCRenderTargetManager@@XZ ; CSingleton<CRenderTargetManager>::Instance
PUBLIC	?Instance@?$CSingleton@VInGameEventManager@@@@SAAAVInGameEventManager@@XZ ; CSingleton<InGameEventManager>::Instance
PUBLIC	?Instance@?$CSingleton@VCPythonWiki@@@@SAAAVCPythonWiki@@XZ ; CSingleton<CPythonWiki>::Instance
PUBLIC	??0?$map@HPAXU?$less@H@std@@V?$allocator@U?$pair@$$CBHPAX@std@@@2@@std@@QAE@XZ ; std::map<int,void *,std::less<int>,std::allocator<std::pair<int const ,void *> > >::map<int,void *,std::less<int>,std::allocator<std::pair<int const ,void *> > >
PUBLIC	??1?$_Tree@V?$_Tmap_traits@HPAXU?$less@H@std@@V?$allocator@U?$pair@$$CBHPAX@std@@@2@$0A@@std@@@std@@QAE@XZ ; std::_Tree<std::_Tmap_traits<int,void *,std::less<int>,std::allocator<std::pair<int const ,void *> >,0> >::~_Tree<std::_Tmap_traits<int,void *,std::less<int>,std::allocator<std::pair<int const ,void *> >,0> >
PUBLIC	??$get@$00HH@std@@YA$$QAH$$QAV?$tuple@HH@0@@Z	; std::get<1,int,int>
PUBLIC	??$get@$0A@HH@std@@YA$$QAH$$QAV?$tuple@HH@0@@Z	; std::get<0,int,int>
PUBLIC	??$<move>@AAV?$tuple@HH@std@@@@YA$$QAV?$tuple@HH@std@@AAV01@@Z ; <move><std::tuple<int,int> &>
PUBLIC	??$?0HH$0A@@?$tuple@HH@std@@QAE@$$QAH0@Z	; std::tuple<int,int>::tuple<int,int><int,int,0>
PUBLIC	?Destroy@CPythonApplication@@QAEXXZ		; CPythonApplication::Destroy
PUBLIC	?MultiFarmBlockIcon@CPythonApplication@@QAEXE@Z	; CPythonApplication::MultiFarmBlockIcon
PUBLIC	?FlashApplication@CPythonApplication@@QAEXXZ	; CPythonApplication::FlashApplication
PUBLIC	?Clear@CPythonApplication@@QAEXXZ		; CPythonApplication::Clear
PUBLIC	?SetForceSightRange@CPythonApplication@@QAEXH@Z	; CPythonApplication::SetForceSightRange
PUBLIC	?SetCameraSpeed@CPythonApplication@@QAEXH@Z	; CPythonApplication::SetCameraSpeed
PUBLIC	?EnableSpecialCameraMode@CPythonApplication@@QAEXXZ ; CPythonApplication::EnableSpecialCameraMode
PUBLIC	?GetConnectData@CPythonApplication@@QAEXAAV?$basic_string@DU?$char_traits@D@std@@V?$allocator@D@2@@std@@AAH@Z ; CPythonApplication::GetConnectData
PUBLIC	?SetConnectData@CPythonApplication@@QAEXPBDH@Z	; CPythonApplication::SetConnectData
PUBLIC	?GetHeight@CPythonApplication@@QAEHXZ		; CPythonApplication::GetHeight
PUBLIC	?GetWidth@CPythonApplication@@QAEHXZ		; CPythonApplication::GetWidth
PUBLIC	?SetFPS@CPythonApplication@@QAEXH@Z		; CPythonApplication::SetFPS
PUBLIC	?GetGlobalElapsedTime@CPythonApplication@@UAEMXZ ; CPythonApplication::GetGlobalElapsedTime
PUBLIC	?GetGlobalTime@CPythonApplication@@UAEMXZ	; CPythonApplication::GetGlobalTime
PUBLIC	?GetServerTimeStamp@CPythonApplication@@QAEJXZ	; CPythonApplication::GetServerTimeStamp
PUBLIC	?GetServerTime@CPythonApplication@@QAEJXZ	; CPythonApplication::GetServerTime
PUBLIC	?SetServerTime@CPythonApplication@@UAEXJ@Z	; CPythonApplication::SetServerTime
PUBLIC	?GetCenterPosition@CPythonApplication@@QAEXPAUD3DXVECTOR3@@@Z ; CPythonApplication::GetCenterPosition
PUBLIC	?SetCenterPosition@CPythonApplication@@UAEXMMM@Z ; CPythonApplication::SetCenterPosition
PUBLIC	?SetGlobalCenterPosition@CPythonApplication@@QAEXJJ@Z ; CPythonApplication::SetGlobalCenterPosition
PUBLIC	?Create@CPythonApplication@@QAE_NPAU_object@@PBDHHH@Z ; CPythonApplication::Create
PUBLIC	?__GetWindowMode@@YAI_N@Z			; __GetWindowMode
PUBLIC	?LoadLocaleData@@YA_NPBD@Z			; LoadLocaleData
PUBLIC	?Loop@CPythonApplication@@QAEXXZ		; CPythonApplication::Loop
PUBLIC	?CreateDevice@CPythonApplication@@QAE_NHHHHH@Z	; CPythonApplication::CreateDevice
PUBLIC	?GetTimer@@YA?AV?$tuple@HH@std@@H@Z		; GetTimer
PUBLIC	?CheckDeviceState@CPythonApplication@@IAEHXZ	; CPythonApplication::CheckDeviceState
PUBLIC	?SetMouseHandler@CPythonApplication@@QAEXPAU_object@@@Z ; CPythonApplication::SetMouseHandler
PUBLIC	?Process@CPythonApplication@@QAE_NXZ		; CPythonApplication::Process
PUBLIC	?SkipRenderBuffering@CPythonApplication@@UAEXK@Z ; CPythonApplication::SkipRenderBuffering
PUBLIC	?UpdateGame@CPythonApplication@@QAEXXZ		; CPythonApplication::UpdateGame
PUBLIC	?RenderGame@CPythonApplication@@QAEXXZ		; CPythonApplication::RenderGame
PUBLIC	?Exit@CPythonApplication@@QAEXXZ		; CPythonApplication::Exit
PUBLIC	?Abort@CPythonApplication@@QAEXXZ		; CPythonApplication::Abort
PUBLIC	?GetInfo@CPythonApplication@@QAEXIPAV?$basic_string@DU?$char_traits@D@std@@V?$allocator@D@2@@std@@@Z ; CPythonApplication::GetInfo
PUBLIC	?SetFrameSkip@CPythonApplication@@QAEX_N@Z	; CPythonApplication::SetFrameSkip
PUBLIC	?SetMinFog@CPythonApplication@@QAEXM@Z		; CPythonApplication::SetMinFog
PUBLIC	?GetMousePosition@CPythonApplication@@UAEXPAUtagPOINT@@@Z ; CPythonApplication::GetMousePosition
PUBLIC	??1CPythonApplication@@UAE@XZ			; CPythonApplication::~CPythonApplication
PUBLIC	??1?$map@HPAXU?$less@H@std@@V?$allocator@U?$pair@$$CBHPAX@std@@@2@@std@@QAE@XZ ; std::map<int,void *,std::less<int>,std::allocator<std::pair<int const ,void *> > >::~map<int,void *,std::less<int>,std::allocator<std::pair<int const ,void *> > >
PUBLIC	??_GCPythonApplication@@UAEPAXI@Z		; CPythonApplication::`scalar deleting destructor'
PUBLIC	??0CPythonApplication@@QAE@XZ			; CPythonApplication::CPythonApplication
PUBLIC	?Instance@CPythonApplication@@SAAAV1@XZ		; CPythonApplication::Instance
PUBLIC	??0SCameraSpeed@CPythonApplication@@QAE@XZ	; CPythonApplication::SCameraSpeed::SCameraSpeed
PUBLIC	??_GIAbstractApplication@@UAEPAXI@Z		; IAbstractApplication::`scalar deleting destructor'
PUBLIC	??1IAbstractApplication@@UAE@XZ			; IAbstractApplication::~IAbstractApplication
PUBLIC	??0IAbstractApplication@@QAE@XZ			; IAbstractApplication::IAbstractApplication
PUBLIC	??0SCameraSetting@IAbstractApplication@@QAE@XZ	; IAbstractApplication::SCameraSetting::SCameraSetting
PUBLIC	??0SCameraPos@IAbstractApplication@@QAE@XZ	; IAbstractApplication::SCameraPos::SCameraPos
PUBLIC	?SetMapManagerPtr@CFlyingManager@@QAEXPAVCMapManager@@@Z ; CFlyingManager::SetMapManagerPtr
EXTRN	??_EIAbstractApplication@@UAEPAXI@Z:PROC	; IAbstractApplication::`vector deleting destructor'
EXTRN	??_E?$TAbstractSingleton@VIAbstractApplication@@@@UAEPAXI@Z:PROC ; TAbstractSingleton<IAbstractApplication>::`vector deleting destructor'
EXTRN	??_ECPythonApplication@@UAEPAXI@Z:PROC		; CPythonApplication::`vector deleting destructor'
?vecDropSoundFileName@@3V?$array@U?$pair@KV?$basic_string@DU?$char_traits@D@std@@V?$allocator@D@2@@std@@@std@@$04@std@@B DB 08cH DUP (?) ; vecDropSoundFileName
?vecEffectList@@3V?$vector@V?$tuple@IPBDPBD_N@std@@V?$allocator@V?$tuple@IPBDPBD_N@std@@@2@@std@@B DB 0cH DUP (?) ; vecEffectList
?characterNameColors@@3V?$map@EV?$array@E$02@std@@U?$less@E@2@V?$allocator@U?$pair@$$CBEV?$array@E$02@std@@@std@@@2@@std@@B DQ 01H DUP (?) ; characterNameColors
?characterTitleColors@@3V?$map@EV?$array@E$02@std@@U?$less@E@2@V?$allocator@U?$pair@$$CBEV?$array@E$02@std@@@std@@@2@@std@@B DQ 01H DUP (?) ; characterTitleColors
?characterTitleSystemColors@@3V?$map@EV?$array@E$02@std@@U?$less@E@2@V?$allocator@U?$pair@$$CBEV?$array@E$02@std@@@std@@@2@@std@@B DQ 01H DUP (?) ; characterTitleSystemColors
?emotionIcons@@3V?$map@EPBDU?$less@E@std@@V?$allocator@U?$pair@$$CBEPBD@std@@@2@@std@@B DQ 01H DUP (?) ; emotionIcons
?skillIndexes@@3V?$map@EV?$map@EV?$vector@EV?$allocator@E@std@@@std@@U?$less@E@2@V?$allocator@U?$pair@$$CBEV?$vector@EV?$allocator@E@std@@@std@@@std@@@2@@std@@U?$less@E@2@V?$allocator@U?$pair@$$CBEV?$map@EV?$vector@EV?$allocator@E@std@@@std@@U?$less@E@2@V?$allocator@U?$pair@$$CBEV?$vector@EV?$allocator@E@std@@@std@@@std@@@2@@std@@@std@@@2@@std@@B DQ 01H DUP (?) ; skillIndexes
?guildSkills@@3V?$map@V?$basic_string@DU?$char_traits@D@std@@V?$allocator@D@2@@std@@V?$vector@EV?$allocator@E@std@@@2@U?$less@V?$basic_string@DU?$char_traits@D@std@@V?$allocator@D@2@@std@@@2@V?$allocator@U?$pair@$$CBV?$basic_string@DU?$char_traits@D@std@@V?$allocator@D@2@@std@@V?$vector@EV?$allocator@E@std@@@2@@std@@@2@@std@@B DQ 01H DUP (?) ; guildSkills
_BSS	ENDS
;	COMDAT ?$TSS0@?1??Process@CPythonApplication@@QAE_NXZ@4HA
_BSS	SEGMENT
?$TSS0@?1??Process@CPythonApplication@@QAE_NXZ@4HA DD 01H DUP (?) ; `CPythonApplication::Process'::`2'::$TSS0
_BSS	ENDS
;	COMDAT ?s_dwCheckTime@?1??Process@CPythonApplication@@QAE_NXZ@4KA
_BSS	SEGMENT
?s_dwCheckTime@?1??Process@CPythonApplication@@QAE_NXZ@4KA DD 01H DUP (?) ; `CPythonApplication::Process'::`2'::s_dwCheckTime
_BSS	ENDS
;	COMDAT ?$TSS1@?1??Process@CPythonApplication@@QAE_NXZ@4HA
_BSS	SEGMENT
?$TSS1@?1??Process@CPythonApplication@@QAE_NXZ@4HA DD 01H DUP (?) ; `CPythonApplication::Process'::`2'::$TSS1
_BSS	ENDS
;	COMDAT ?s_uiNextFrameTime@?1??Process@CPythonApplication@@QAE_NXZ@4IA
_BSS	SEGMENT
?s_uiNextFrameTime@?1??Process@CPythonApplication@@QAE_NXZ@4IA DD 01H DUP (?) ; `CPythonApplication::Process'::`2'::s_uiNextFrameTime
_BSS	ENDS
;	COMDAT ?$TSS2@?CL@??Process@CPythonApplication@@QAE_NXZ@4HA
_BSS	SEGMENT
?$TSS2@?CL@??Process@CPythonApplication@@QAE_NXZ@4HA DD 01H DUP (?) ; `CPythonApplication::Process'::`43'::$TSS2
_BSS	ENDS
;	COMDAT ?s_dwRenderCheckTime@?CL@??Process@CPythonApplication@@QAE_NXZ@4KA
_BSS	SEGMENT
?s_dwRenderCheckTime@?CL@??Process@CPythonApplication@@QAE_NXZ@4KA DD 01H DUP (?) ; `CPythonApplication::Process'::`43'::s_dwRenderCheckTime
_BSS	ENDS
;	COMDAT xdata$x
xdata$x	SEGMENT
__ehfuncinfo$??__EvecUseSoundFileName@@YAXXZ DQ 00000000619930522r ; 1.2944e-313
	DD	FLAT:__unwindtable$??__EvecUseSoundFileName@@YAXXZ
	DQ	00000000000000000r		; 0
	DQ	00000000000000000r		; 0
	DQ	00000000100000000r		; 2.122e-314
__unwindtable$??__EvecUseSoundFileName@@YAXXZ DD 0ffffffffH
	DD	FLAT:__unwindfunclet$??__EvecUseSoundFileName@@YAXXZ$0
	DD	00H
	DD	FLAT:__unwindfunclet$??__EvecUseSoundFileName@@YAXXZ$1
	DD	01H
	DD	FLAT:__unwindfunclet$??__EvecUseSoundFileName@@YAXXZ$2
	DD	02H
	DD	FLAT:__unwindfunclet$??__EvecUseSoundFileName@@YAXXZ$3
	DD	03H
	DD	FLAT:__unwindfunclet$??__EvecUseSoundFileName@@YAXXZ$4
	DD	04H
	DD	FLAT:__unwindfunclet$??__EvecUseSoundFileName@@YAXXZ$5
xdata$x	ENDS
;	COMDAT xdata$x
xdata$x	SEGMENT
__ehfuncinfo$??__FvecUseSoundFileName@@YAXXZ DQ 00000000119930522r ; 2.33398e-314
	DD	FLAT:__unwindtable$??__FvecUseSoundFileName@@YAXXZ
	DQ	00000000000000000r		; 0
	DQ	00000000000000000r		; 0
	DQ	00000000100000000r		; 2.122e-314
__unwindtable$??__FvecUseSoundFileName@@YAXXZ DD 0ffffffffH
	DD	FLAT:___std_terminate
xdata$x	ENDS
;	COMDAT xdata$x
xdata$x	SEGMENT
__ehfuncinfo$??__EvecDropSoundFileName@@YAXXZ DQ 00000000419930522r ; 8.69997e-314
	DD	FLAT:__unwindtable$??__EvecDropSoundFileName@@YAXXZ
	DQ	00000000000000000r		; 0
	DQ	00000000000000000r		; 0
	DQ	00000000100000000r		; 2.122e-314
__unwindtable$??__EvecDropSoundFileName@@YAXXZ DD 0ffffffffH
	DD	FLAT:__unwindfunclet$??__EvecDropSoundFileName@@YAXXZ$0
	DD	00H
	DD	FLAT:__unwindfunclet$??__EvecDropSoundFileName@@YAXXZ$1
	DD	01H
	DD	FLAT:__unwindfunclet$??__EvecDropSoundFileName@@YAXXZ$2
	DD	02H
	DD	FLAT:__unwindfunclet$??__EvecDropSoundFileName@@YAXXZ$3
xdata$x	ENDS
;	COMDAT xdata$x
xdata$x	SEGMENT
__ehfuncinfo$??__FvecDropSoundFileName@@YAXXZ DQ 00000000119930522r ; 2.33398e-314
	DD	FLAT:__unwindtable$??__FvecDropSoundFileName@@YAXXZ
	DQ	00000000000000000r		; 0
	DQ	00000000000000000r		; 0
	DQ	00000000100000000r		; 2.122e-314
__unwindtable$??__FvecDropSoundFileName@@YAXXZ DD 0ffffffffH
	DD	FLAT:___std_terminate
xdata$x	ENDS
;	COMDAT xdata$x
xdata$x	SEGMENT
__ehfuncinfo$??__EskillIndexes@@YAXXZ DQ 00000002819930522r ; 8.50918e-313
	DD	FLAT:__unwindtable$??__EskillIndexes@@YAXXZ
	DQ	00000000000000000r		; 0
	DQ	00000000000000000r		; 0
	DQ	00000000100000000r		; 2.122e-314
	ORG $+4
__unwindtable$??__EskillIndexes@@YAXXZ DD 0ffffffffH
	DD	FLAT:__unwindfunclet$??__EskillIndexes@@YAXXZ$0
	DD	00H
	DD	FLAT:__unwindfunclet$??__EskillIndexes@@YAXXZ$1
	DD	01H
	DD	FLAT:__unwindfunclet$??__EskillIndexes@@YAXXZ$2
	DD	00H
	DD	FLAT:__unwindfunclet$??__EskillIndexes@@YAXXZ$2
	DD	03H
	DD	FLAT:__unwindfunclet$??__EskillIndexes@@YAXXZ$4
	DD	04H
	DD	FLAT:__unwindfunclet$??__EskillIndexes@@YAXXZ$5
	DD	05H
	DD	FLAT:__unwindfunclet$??__EskillIndexes@@YAXXZ$6
	DD	06H
	DD	FLAT:__unwindfunclet$??__EskillIndexes@@YAXXZ$7
	DD	07H
	DD	FLAT:__unwindfunclet$??__EskillIndexes@@YAXXZ$8
	DD	08H
	DD	FLAT:__unwindfunclet$??__EskillIndexes@@YAXXZ$9
	DD	07H
	DD	FLAT:__unwindfunclet$??__EskillIndexes@@YAXXZ$9
	DD	0aH
	DD	FLAT:__unwindfunclet$??__EskillIndexes@@YAXXZ$11
	DD	0bH
	DD	FLAT:__unwindfunclet$??__EskillIndexes@@YAXXZ$12
	DD	0cH
	DD	FLAT:__unwindfunclet$??__EskillIndexes@@YAXXZ$13
	DD	0dH
	DD	FLAT:__unwindfunclet$??__EskillIndexes@@YAXXZ$14
	DD	0eH
	DD	FLAT:__unwindfunclet$??__EskillIndexes@@YAXXZ$15
	DD	0fH
	DD	FLAT:__unwindfunclet$??__EskillIndexes@@YAXXZ$16
	DD	0eH
	DD	FLAT:__unwindfunclet$??__EskillIndexes@@YAXXZ$16
	DD	011H
	DD	FLAT:__unwindfunclet$??__EskillIndexes@@YAXXZ$18
	DD	012H
	DD	FLAT:__unwindfunclet$??__EskillIndexes@@YAXXZ$19
	DD	013H
	DD	FLAT:__unwindfunclet$??__EskillIndexes@@YAXXZ$20
	DD	014H
	DD	FLAT:__unwindfunclet$??__EskillIndexes@@YAXXZ$21
	DD	015H
	DD	FLAT:__unwindfunclet$??__EskillIndexes@@YAXXZ$22
	DD	016H
	DD	FLAT:__unwindfunclet$??__EskillIndexes@@YAXXZ$23
	DD	015H
	DD	FLAT:__unwindfunclet$??__EskillIndexes@@YAXXZ$23
	DD	018H
	DD	FLAT:__unwindfunclet$??__EskillIndexes@@YAXXZ$25
	DD	019H
	DD	FLAT:__unwindfunclet$??__EskillIndexes@@YAXXZ$26
	DD	05H
	DD	FLAT:__unwindfunclet$??__EskillIndexes@@YAXXZ$7
	DD	01bH
	DD	FLAT:__unwindfunclet$??__EskillIndexes@@YAXXZ$9
	DD	01cH
	DD	FLAT:__unwindfunclet$??__EskillIndexes@@YAXXZ$11
	DD	01dH
	DD	FLAT:__unwindfunclet$??__EskillIndexes@@YAXXZ$12
	DD	01eH
	DD	FLAT:__unwindfunclet$??__EskillIndexes@@YAXXZ$14
	DD	01fH
	DD	FLAT:__unwindfunclet$??__EskillIndexes@@YAXXZ$16
	DD	020H
	DD	FLAT:__unwindfunclet$??__EskillIndexes@@YAXXZ$18
	DD	021H
	DD	FLAT:__unwindfunclet$??__EskillIndexes@@YAXXZ$19
	DD	022H
	DD	FLAT:__unwindfunclet$??__EskillIndexes@@YAXXZ$21
	DD	023H
	DD	FLAT:__unwindfunclet$??__EskillIndexes@@YAXXZ$23
	DD	024H
	DD	FLAT:__unwindfunclet$??__EskillIndexes@@YAXXZ$25
	DD	025H
	DD	FLAT:__unwindfunclet$??__EskillIndexes@@YAXXZ$26
	DD	026H
	DD	FLAT:__unwindfunclet$??__EskillIndexes@@YAXXZ$28
xdata$x	ENDS
;	COMDAT xdata$x
xdata$x	SEGMENT
__ehfuncinfo$??__EguildSkills@@YAXXZ DQ 00000000a19930522r ; 2.14319e-313
	DD	FLAT:__unwindtable$??__EguildSkills@@YAXXZ
	DQ	00000000000000000r		; 0
	DQ	00000000000000000r		; 0
	DQ	00000000100000000r		; 2.122e-314
	ORG $+4
__unwindtable$??__EguildSkills@@YAXXZ DD 0ffffffffH
	DD	FLAT:__unwindfunclet$??__EguildSkills@@YAXXZ$0
	DD	00H
	DD	FLAT:__unwindfunclet$??__EguildSkills@@YAXXZ$1
	DD	01H
	DD	FLAT:__unwindfunclet$??__EguildSkills@@YAXXZ$10
	DD	01H
	DD	FLAT:__unwindfunclet$??__EguildSkills@@YAXXZ$2
	DD	03H
	DD	FLAT:__unwindfunclet$??__EguildSkills@@YAXXZ$3
	DD	04H
	DD	FLAT:__unwindfunclet$??__EguildSkills@@YAXXZ$4
	DD	05H
	DD	FLAT:__unwindfunclet$??__EguildSkills@@YAXXZ$16
	DD	01H
	DD	FLAT:__unwindfunclet$??__EguildSkills@@YAXXZ$3
	DD	07H
	DD	FLAT:__unwindfunclet$??__EguildSkills@@YAXXZ$4
	DD	08H
	DD	FLAT:__unwindfunclet$??__EguildSkills@@YAXXZ$6
xdata$x	ENDS
;	COMDAT xdata$x
xdata$x	SEGMENT
__ehfuncinfo$??0CPythonApplication@@QAE@XZ DQ 00000003419930522r ; 1.10556e-312
	DD	FLAT:__unwindtable$??0CPythonApplication@@QAE@XZ
	DQ	00000000000000000r		; 0
	DQ	00000000000000000r		; 0
	DQ	00000000100000000r		; 2.122e-314
	ORG $+4
__unwindtable$??0CPythonApplication@@QAE@XZ DD 0ffffffffH
	DD	FLAT:__unwindfunclet$??0CPythonApplication@@QAE@XZ$0
	DD	00H
	DD	FLAT:__unwindfunclet$??0CPythonApplication@@QAE@XZ$1
	DD	01H
	DD	FLAT:__unwindfunclet$??0CPythonApplication@@QAE@XZ$2
	DD	02H
	DD	FLAT:__unwindfunclet$??0CPythonApplication@@QAE@XZ$3
	DD	03H
	DD	FLAT:__unwindfunclet$??0CPythonApplication@@QAE@XZ$4
	DD	04H
	DD	FLAT:__unwindfunclet$??0CPythonApplication@@QAE@XZ$5
	DD	05H
	DD	FLAT:__unwindfunclet$??0CPythonApplication@@QAE@XZ$6
	DD	06H
	DD	FLAT:__unwindfunclet$??0CPythonApplication@@QAE@XZ$7
	DD	07H
	DD	FLAT:__unwindfunclet$??0CPythonApplication@@QAE@XZ$8
	DD	08H
	DD	FLAT:__unwindfunclet$??0CPythonApplication@@QAE@XZ$9
	DD	09H
	DD	FLAT:__unwindfunclet$??0CPythonApplication@@QAE@XZ$10
	DD	0aH
	DD	FLAT:__unwindfunclet$??0CPythonApplication@@QAE@XZ$11
	DD	0bH
	DD	FLAT:__unwindfunclet$??0CPythonApplication@@QAE@XZ$12
	DD	0cH
	DD	FLAT:__unwindfunclet$??0CPythonApplication@@QAE@XZ$13
	DD	0dH
	DD	FLAT:__unwindfunclet$??0CPythonApplication@@QAE@XZ$14
	DD	0eH
	DD	FLAT:__unwindfunclet$??0CPythonApplication@@QAE@XZ$15
	DD	0fH
	DD	FLAT:__unwindfunclet$??0CPythonApplication@@QAE@XZ$16
	DD	010H
	DD	FLAT:__unwindfunclet$??0CPythonApplication@@QAE@XZ$17
	DD	011H
	DD	FLAT:__unwindfunclet$??0CPythonApplication@@QAE@XZ$18
	DD	012H
	DD	FLAT:__unwindfunclet$??0CPythonApplication@@QAE@XZ$19
	DD	013H
	DD	FLAT:__unwindfunclet$??0CPythonApplication@@QAE@XZ$20
	DD	014H
	DD	FLAT:__unwindfunclet$??0CPythonApplication@@QAE@XZ$21
	DD	015H
	DD	FLAT:__unwindfunclet$??0CPythonApplication@@QAE@XZ$22
	DD	016H
	DD	FLAT:__unwindfunclet$??0CPythonApplication@@QAE@XZ$23
	DD	017H
	DD	FLAT:__unwindfunclet$??0CPythonApplication@@QAE@XZ$24
	DD	018H
	DD	FLAT:__unwindfunclet$??0CPythonApplication@@QAE@XZ$25
	DD	019H
	DD	FLAT:__unwindfunclet$??0CPythonApplication@@QAE@XZ$26
	DD	01aH
	DD	FLAT:__unwindfunclet$??0CPythonApplication@@QAE@XZ$27
	DD	01bH
	DD	FLAT:__unwindfunclet$??0CPythonApplication@@QAE@XZ$28
	DD	01cH
	DD	FLAT:__unwindfunclet$??0CPythonApplication@@QAE@XZ$29
	DD	01dH
	DD	FLAT:__unwindfunclet$??0CPythonApplication@@QAE@XZ$30
	DD	01eH
	DD	FLAT:__unwindfunclet$??0CPythonApplication@@QAE@XZ$31
	DD	01fH
	DD	FLAT:__unwindfunclet$??0CPythonApplication@@QAE@XZ$32
	DD	020H
	DD	FLAT:__unwindfunclet$??0CPythonApplication@@QAE@XZ$33
	DD	021H
	DD	FLAT:__unwindfunclet$??0CPythonApplication@@QAE@XZ$34
	DD	022H
	DD	FLAT:__unwindfunclet$??0CPythonApplication@@QAE@XZ$35
	DD	023H
	DD	FLAT:__unwindfunclet$??0CPythonApplication@@QAE@XZ$36
	DD	024H
	DD	FLAT:__unwindfunclet$??0CPythonApplication@@QAE@XZ$37
	DD	025H
	DD	FLAT:__unwindfunclet$??0CPythonApplication@@QAE@XZ$38
	DD	026H
	DD	FLAT:__unwindfunclet$??0CPythonApplication@@QAE@XZ$39
	DD	027H
	DD	FLAT:__unwindfunclet$??0CPythonApplication@@QAE@XZ$40
	DD	028H
	DD	FLAT:__unwindfunclet$??0CPythonApplication@@QAE@XZ$41
	DD	029H
	DD	FLAT:__unwindfunclet$??0CPythonApplication@@QAE@XZ$42
	DD	02aH
	DD	FLAT:__unwindfunclet$??0CPythonApplication@@QAE@XZ$43
	DD	02bH
	DD	FLAT:__unwindfunclet$??0CPythonApplication@@QAE@XZ$44
	DD	02cH
	DD	FLAT:__unwindfunclet$??0CPythonApplication@@QAE@XZ$45
	DD	02dH
	DD	FLAT:__unwindfunclet$??0CPythonApplication@@QAE@XZ$46
	DD	02eH
	DD	FLAT:__unwindfunclet$??0CPythonApplication@@QAE@XZ$47
	DD	02fH
	DD	FLAT:__unwindfunclet$??0CPythonApplication@@QAE@XZ$48
	DD	030H
	DD	FLAT:__unwindfunclet$??0CPythonApplication@@QAE@XZ$49
	DD	031H
	DD	FLAT:__unwindfunclet$??0CPythonApplication@@QAE@XZ$50
	DD	032H
	DD	FLAT:__unwindfunclet$??0CPythonApplication@@QAE@XZ$51
xdata$x	ENDS
;	COMDAT xdata$x
xdata$x	SEGMENT
__ehfuncinfo$?UpdateGame@CPythonApplication@@QAEXXZ DQ 00000000119930522r ; 2.33398e-314
	DD	FLAT:__unwindtable$?UpdateGame@CPythonApplication@@QAEXXZ
	DQ	00000000000000000r		; 0
	DQ	00000000000000000r		; 0
	DQ	00000000100000000r		; 2.122e-314
__unwindtable$?UpdateGame@CPythonApplication@@QAEXXZ DD 0ffffffffH
	DD	FLAT:__unwindfunclet$?UpdateGame@CPythonApplication@@QAEXXZ$0
xdata$x	ENDS
;	COMDAT xdata$x
xdata$x	SEGMENT
__ehfuncinfo$?Process@CPythonApplication@@QAE_NXZ DQ 00000000219930522r ; 4.45598e-314
	DD	FLAT:__unwindtable$?Process@CPythonApplication@@QAE_NXZ
	DQ	00000000000000000r		; 0
	DQ	00000000000000000r		; 0
	DQ	00000000100000000r		; 2.122e-314
__unwindtable$?Process@CPythonApplication@@QAE_NXZ DD 0ffffffffH
	DD	FLAT:__unwindfunclet$?Process@CPythonApplication@@QAE_NXZ$0
	DD	0ffffffffH
	DD	FLAT:__unwindfunclet$?Process@CPythonApplication@@QAE_NXZ$1
	ORG $+4
?vecUseSoundFileName@@3V?$array@U?$pair@KV?$basic_string@DU?$char_traits@D@std@@V?$allocator@D@2@@std@@@std@@$06@std@@B DQ 00000000000000001r ; 4.94066e-324 ; vecUseSoundFileName
	DQ	00000000000000000r		; 0
	DQ	00000000000000000r		; 0
	DQ	00000000000000000r		; 0
	DQ	00000000000000000r		; 0
	DQ	00000000000000000r		; 0
	DQ	00000000000000000r		; 0
	DQ	00000000000000000r		; 0
	DQ	00000000000000000r		; 0
	DQ	00000000000000000r		; 0
	DQ	00000000000000000r		; 0
	DQ	00000000000000000r		; 0
	DQ	00000000000000000r		; 0
	DQ	00000000000000000r		; 0
	DQ	00000000000000000r		; 0
	DQ	00000000000000000r		; 0
	DQ	00000000000000000r		; 0
	DQ	00000000000000000r		; 0
	DQ	00000000000000000r		; 0
	DQ	00000000000000000r		; 0
	DQ	00000000000000000r		; 0
	DQ	00000000000000000r		; 0
	DQ	00000000000000000r		; 0
	DQ	00000000000000000r		; 0
	DD	00H
?vecUseSoundFileName$initializer$@@3P6AXXZA DD FLAT:??__EvecUseSoundFileName@@YAXXZ ; vecUseSoundFileName$initializer$
?vecDropSoundFileName$initializer$@@3P6AXXZA DD FLAT:??__EvecDropSoundFileName@@YAXXZ ; vecDropSoundFileName$initializer$
?vecEffectList$initializer$@@3P6AXXZA DD FLAT:??__EvecEffectList@@YAXXZ ; vecEffectList$initializer$
?characterNameColors$initializer$@@3P6AXXZA DD FLAT:??__EcharacterNameColors@@YAXXZ ; characterNameColors$initializer$
?characterTitleColors$initializer$@@3P6AXXZA DD FLAT:??__EcharacterTitleColors@@YAXXZ ; characterTitleColors$initializer$
?characterTitleSystemColors$initializer$@@3P6AXXZA DD FLAT:??__EcharacterTitleSystemColors@@YAXXZ ; characterTitleSystemColors$initializer$
?emotionIcons$initializer$@@3P6AXXZA DD FLAT:??__EemotionIcons@@YAXXZ ; emotionIcons$initializer$
?skillIndexes$initializer$@@3P6AXXZA DD FLAT:??__EskillIndexes@@YAXXZ ; skillIndexes$initializer$
?guildSkills$initializer$@@3P6AXXZA DD FLAT:??__EguildSkills@@YAXXZ ; guildSkills$initializer$
END
