; Listing generated by Microsoft (R) Optimizing Compiler Version 19.44.35219.0 

	TITLE	c:\anka2project\anka2project\source\binary\vs_files\userinterface\release\pythoncharactermanagermodule.obj
	.686P
	.XMM
	include listing.inc
	.model	flat

INCLUDELIB OLDNAMES

PUBLIC	??_C@_0N@DAOJGGNH@pos?$DN?$CI?$CFd?0?5?$CFd?$CJ@ ; `string'
PUBLIC	??_C@_0DD@OOILPMAD@VID?5?$CFd?5?$CIisRegistered?$DN?$CFd?0?5isAliv@ ; `string'
PUBLIC	??_C@_0BL@MNEPJNPF@RaceData?5has?5not?5selected?$CB@ ; `string'
PUBLIC	??_C@_0CA@PANOAEAA@Failed?5to?5SetMotionRandomWeight@ ; `string'
PUBLIC	??_C@_0BP@GOFKKANP@Failed?5to?5load?5race?5data?5?3?5?$CFs?6@ ; `string'
PUBLIC	??_C@_0BA@ONNGPENO@MovingSpeed?5?$DM?50@	; `string'
PUBLIC	??_C@_0CA@LHMBKIIP@MainCharacter?5has?5not?5selected?$CB@ ; `string'
PUBLIC	??_C@_0BC@BKLPPNOE@SetEmpireNameMode@		; `string'
PUBLIC	??_C@_0L@HLMOHPB@GetVIDInfo@			; `string'
PUBLIC	??_C@_0N@GBMNDJED@GetPickedVID@			; `string'
PUBLIC	??_C@_0O@MHKAJHDG@SetShapeModel@		; `string'
PUBLIC	??_C@_0BA@HPLHAKEG@AppendShapeSkin@		; `string'
PUBLIC	??_C@_0M@LPKBIHHH@SetPathName@			; `string'
PUBLIC	??_C@_0N@GHFJHKGH@LoadRaceData@			; `string'
PUBLIC	??_C@_0BC@DAGLOOBN@LoadLocalRaceData@		; `string'
PUBLIC	??_C@_0L@PAJHIMBB@CreateRace@			; `string'
PUBLIC	??_C@_0L@NJAJBJJE@SelectRace@			; `string'
PUBLIC	??_C@_0BK@DPJBIBKK@RegisterAttachingBoneName@	; `string'
PUBLIC	??_C@_0BD@JDOLIM@RegisterMotionMode@		; `string'
PUBLIC	??_C@_0BG@OCGHAGOD@SetMotionRandomWeight@	; `string'
PUBLIC	??_C@_0BF@PLDGGJNA@RegisterNormalAttack@	; `string'
PUBLIC	??_C@_0BD@DNKMMCHM@ReserveComboAttack@		; `string'
PUBLIC	??_C@_0BE@OMDLDMGO@RegisterComboAttack@		; `string'
PUBLIC	??_C@_0BG@COOOACPC@ReserveComboAttackNew@	; `string'
PUBLIC	??_C@_0BH@NFBILPOJ@RegisterComboAttackNew@	; `string'
PUBLIC	??_C@_0BD@JFBGJILK@RegisterMotionData@		; `string'
PUBLIC	??_C@_0BB@HNIEHNII@RegisterRaceName@		; `string'
PUBLIC	??_C@_0BE@HJOOIAPM@RegisterRaceSrcName@		; `string'
PUBLIC	??_C@_0BI@FCNOCDC@RegisterCacheMotionData@	; `string'
PUBLIC	??_C@_09FHCBCPJO@SetAffect@			; `string'
PUBLIC	??_C@_0M@CGAMKJOI@SetEmoticon@			; `string'
PUBLIC	??_C@_0BD@POCMNAMG@IsPossibleEmoticon@		; `string'
PUBLIC	??_C@_0P@HDADHLLI@RegisterEffect@		; `string'
PUBLIC	??_C@_0BE@EGCDGLCF@RegisterCacheEffect@		; `string'
PUBLIC	??_C@_0BE@LLPKKHNJ@RegisterPointEffect@		; `string'
PUBLIC	??_C@_0BA@NPGECIIB@ShowPointEffect@		; `string'
PUBLIC	??_C@_0BE@FHPGPJOE@ToggleDirectionLine@		; `string'
PUBLIC	??_C@_0P@BIEBGJOI@SetMovingSpeed@		; `string'
PUBLIC	??_C@_0L@BNCPBKEF@SetDustGap@			; `string'
PUBLIC	??_C@_0BA@JCKJBNGJ@SetHorseDustGap@		; `string'
PUBLIC	??_C@_0BC@MEILBMBD@RegisterTitleName@		; `string'
PUBLIC	??_C@_0BC@GAIKKIED@RegisterNameColor@		; `string'
PUBLIC	??_C@_0BD@CPPGJOLK@RegisterTitleColor@		; `string'
PUBLIC	??_C@_0O@LCDFPKLG@SetRaceHeight@		; `string'
PUBLIC	??_C@_0BI@FIJMCLIP@RegisterTitleSystemName@	; `string'
PUBLIC	??_C@_0BJ@NGNDFGOC@RegisterTitleSystemColor@	; `string'
PUBLIC	??_C@_0O@FOILFLOP@NAMECOLOR_MOB@		; `string'
PUBLIC	??_C@_0O@ECFPCBAN@NAMECOLOR_NPC@		; `string'
PUBLIC	??_C@_0N@HFDLLOOL@NAMECOLOR_PC@			; `string'
PUBLIC	??_C@_0BF@PFPMAJFA@NAMECOLOR_EMPIRE_MOB@	; `string'
PUBLIC	??_C@_0BF@OJCIHDLC@NAMECOLOR_EMPIRE_NPC@	; `string'
PUBLIC	??_C@_0BE@NDFEFIME@NAMECOLOR_EMPIRE_PC@		; `string'
PUBLIC	??_C@_0P@KKNBBHPK@NAMECOLOR_FUNC@		; `string'
PUBLIC	??_C@_0N@LNOCDEOD@NAMECOLOR_PK@			; `string'
PUBLIC	??_C@_0O@JHPLDMIB@NAMECOLOR_PVP@		; `string'
PUBLIC	??_C@_0BA@HFPCKBBO@NAMECOLOR_PARTY@		; `string'
PUBLIC	??_C@_0P@FMPJHCIG@NAMECOLOR_WARP@		; `string'
PUBLIC	??_C@_0BD@KCIPKGLN@NAMECOLOR_WAYPOINT@		; `string'
PUBLIC	??_C@_0BA@LCMPNPC@NAMECOLOR_METIN@		; `string'
PUBLIC	??_C@_0P@MAIPKLOP@NAMECOLOR_SHOP@		; `string'
PUBLIC	??_C@_0BA@OIOEHMPC@NAMECOLOR_EXTRA@		; `string'
PUBLIC	??_C@_0BH@CICELGM@EFFECT_SPAWN_DISAPPEAR@	; `string'
PUBLIC	??_C@_0BE@IMMEKAGC@EFFECT_SPAWN_APPEAR@		; `string'
PUBLIC	??_C@_0M@HJGLKAFL@EFFECT_DUST@			; `string'
PUBLIC	??_C@_0BC@IMCHDDJP@EFFECT_HORSE_DUST@		; `string'
PUBLIC	??_C@_0M@KHLHAKMF@EFFECT_STUN@			; `string'
PUBLIC	??_C@_0L@MLLFBJIP@EFFECT_HIT@			; `string'
PUBLIC	??_C@_0BE@OHNAJENN@EFFECT_FLAME_ATTACK@		; `string'
PUBLIC	??_C@_0BB@GKHDFHPF@EFFECT_FLAME_HIT@		; `string'
PUBLIC	??_C@_0BE@MMPNMHBO@EFFECT_FLAME_ATTACH@		; `string'
PUBLIC	??_C@_0BH@LIICDLOG@EFFECT_ELECTRIC_ATTACK@	; `string'
PUBLIC	??_C@_0BE@DDJNHBFG@EFFECT_ELECTRIC_HIT@		; `string'
PUBLIC	??_C@_0BH@JDKPGICF@EFFECT_ELECTRIC_ATTACH@	; `string'
PUBLIC	??_C@_0O@IICIGFKH@EFFECT_SELECT@		; `string'
PUBLIC	??_C@_0O@KHEKIEOF@EFFECT_TARGET@		; `string'
PUBLIC	??_C@_0BA@DGHICDHC@EFFECT_CRITICAL@		; `string'
PUBLIC	??_C@_0BF@CKINGCNE@EFFECT_DAMAGE_TARGET@	; `string'
PUBLIC	??_C@_0BJ@EHADMOLO@EFFECT_DAMAGE_NOT_TARGET@	; `string'
PUBLIC	??_C@_0BJ@LBPHCJON@EFFECT_DAMAGE_SELFDAMAGE@	; `string'
PUBLIC	??_C@_0BK@DDHKDNJN@EFFECT_DAMAGE_SELFDAMAGE2@	; `string'
PUBLIC	??_C@_0BF@JBDJDOOB@EFFECT_DAMAGE_POISON@	; `string'
PUBLIC	??_C@_0BD@HAKEDKPM@EFFECT_DAMAGE_MISS@		; `string'
PUBLIC	??_C@_0BJ@OOAALGB@EFFECT_DAMAGE_TARGETMISS@	; `string'
PUBLIC	??_C@_0BH@LJEMOOEK@EFFECT_DAMAGE_CRITICAL@	; `string'
PUBLIC	??_C@_0P@KMPGDLGB@EFFECT_LEVELUP@		; `string'
PUBLIC	??_C@_0P@KGMCLBIE@EFFECT_SKILLUP@		; `string'
PUBLIC	??_C@_0BA@FDCHOHC@EFFECT_HPUP_RED@		; `string'
PUBLIC	??_C@_0BB@OMECPCHO@EFFECT_SPUP_BLUE@		; `string'
PUBLIC	??_C@_0BF@KGBLOADC@EFFECT_SPEEDUP_GREEN@	; `string'
PUBLIC	??_C@_0BD@NFLNKENB@EFFECT_DXUP_PURPLE@		; `string'
PUBLIC	??_C@_0BB@MJKAFPM@EFFECT_PENETRATE@		; `string'
PUBLIC	??_C@_0N@FHECDOCO@EFFECT_BLOCK@			; `string'
PUBLIC	??_C@_0N@IIDAKFLA@EFFECT_DODGE@			; `string'
PUBLIC	??_C@_0BD@KGHDJJHH@EFFECT_FIRECRACKER@		; `string'
PUBLIC	??_C@_0BA@LEFHDKNA@EFFECT_SPIN_TOP@		; `string'
PUBLIC	??_C@_0O@FKAHCBBH@EFFECT_WEAPON@		; `string'
PUBLIC	??_C@_0O@LEENICEP@EFFECT_AFFECT@		; `string'
PUBLIC	??_C@_0BA@LLIBADMN@EFFECT_EMOTICON@		; `string'
PUBLIC	??_C@_0O@MBIOGBFC@EFFECT_EMPIRE@		; `string'
PUBLIC	??_C@_0P@JLGAELEM@EFFECT_REFINED@		; `string'
PUBLIC	??_C@_0P@OAEAICFL@EFFECT_SUCCESS@		; `string'
PUBLIC	??_C@_0M@EPHKINAM@EFFECT_FAIL@			; `string'
PUBLIC	??_C@_0BC@EDPMLGPA@EFFECT_FR_SUCCESS@		; `string'
PUBLIC	??_C@_0BH@KDDKMBMB@EFFECT_PERCENT_DAMAGE1@	; `string'
PUBLIC	??_C@_0BH@IIBHJCAC@EFFECT_PERCENT_DAMAGE2@	; `string'
PUBLIC	??_C@_0BH@JBAMKDED@EFFECT_PERCENT_DAMAGE3@	; `string'
PUBLIC	??_C@_0BB@LPHIBMMP@EFFECT_AUTO_HPUP@		; `string'
PUBLIC	??_C@_0BB@KIEILKFM@EFFECT_AUTO_SPUP@		; `string'
PUBLIC	??_C@_0BK@JCIOPIOG@EFFECT_RAMADAN_RING_EQUIP@	; `string'
PUBLIC	??_C@_0BN@NGBKKLJA@EFFECT_HALLOWEEN_CANDY_EQUIP@ ; `string'
PUBLIC	??_C@_0BM@DAACAMNP@EFFECT_HAPPINESS_RING_EQUIP@	; `string'
PUBLIC	??_C@_0BK@MMIJIEDM@EFFECT_LOVE_PENDANT_EQUIP@	; `string'
PUBLIC	??_C@_0BF@IIPPAKCH@EFFECT_ACCE_SUCCEDED@	; `string'
PUBLIC	??_C@_0BC@FAAHJKCH@EFFECT_ACCE_EQUIP@		; `string'
PUBLIC	??_C@_0M@ILAGKHAI@EFFECT_ACCE@			; `string'
PUBLIC	??_C@_0M@IGMOHEMH@EFFECT_BOSS@			; `string'
PUBLIC	??_C@_0CD@ENDEMKHE@EFFECT_BP_NORMAL_MISSION_COMPLE@ ; `string'
PUBLIC	??_C@_0CE@JJOCGBAD@EFFECT_BP_PREMIUM_MISSION_COMPL@ ; `string'
PUBLIC	??_C@_0CG@BINHAMPH@EFFECT_BP_NORMAL_BATTLEPASS_COM@ ; `string'
PUBLIC	??_C@_0CH@GLCKGADF@EFFECT_BP_PREMIUM_BATTLEPASS_CO@ ; `string'
PUBLIC	??_C@_0BH@PKDHJHLG@EFFECT_GYEONGGONG_BOOM@	; `string'
EXTRN	?SetRaceHeight@CRaceManager@@QAEXHM@Z:PROC	; CRaceManager::SetRaceHeight
EXTRN	?AppendShapeSkin@CRaceData@@QAEXIIPBD0@Z:PROC	; CRaceData::AppendShapeSkin
EXTRN	?ShowDirectionLine@CActorInstance@@SAX_N@Z:PROC	; CActorInstance::ShowDirectionLine
EXTRN	?RegisterRaceName@CRaceManager@@QAEXKPBD@Z:PROC	; CRaceManager::RegisterRaceName
EXTRN	?SetShapeModel@CRaceData@@QAEXIPBD@Z:PROC	; CRaceData::SetShapeModel
EXTRN	?RegisterRaceSrcName@CRaceManager@@QAEXABV?$basic_string@DU?$char_traits@D@std@@V?$allocator@D@2@@std@@0@Z:PROC ; CRaceManager::RegisterRaceSrcName
EXTRN	?LoadStaticCache@CResourceManager@@QAEXPBD@Z:PROC ; CResourceManager::LoadStaticCache
EXTRN	?MIN@@YAHHH@Z:PROC				; MIN
EXTRN	?RegisterMotionData@CRaceData@@QAEPAVCGraphicThing@@GGPBDE@Z:PROC ; CRaceData::RegisterMotionData
EXTRN	?GetFullPathFileName@CRaceManager@@QAEPBDPBD@Z:PROC ; CRaceManager::GetFullPathFileName
EXTRN	?LoadRaceData@CRaceData@@QAEHPBD@Z:PROC		; CRaceData::LoadRaceData
EXTRN	?ReserveComboAttack@CRaceData@@QAEXGGK@Z:PROC	; CRaceData::ReserveComboAttack
EXTRN	?RegisterComboAttack@CRaceData@@QAEXGGKG@Z:PROC	; CRaceData::RegisterComboAttack
EXTRN	?SetMotionRandomWeight@CRaceData@@QAE_NGGGE@Z:PROC ; CRaceData::SetMotionRandomWeight
EXTRN	?RegisterNormalAttack@CRaceData@@QAEXGG@Z:PROC	; CRaceData::RegisterNormalAttack
EXTRN	?RegisterAttachingBoneName@CRaceData@@QAEXKPBD@Z:PROC ; CRaceData::RegisterAttachingBoneName
EXTRN	?RegisterMotionMode@CRaceData@@QAEXG@Z:PROC	; CRaceData::RegisterMotionMode
EXTRN	?SelectRace@CRaceManager@@QAEXK@Z:PROC		; CRaceManager::SelectRace
EXTRN	?GetSelectedRaceDataPointer@CRaceManager@@QAEPAVCRaceData@@XZ:PROC ; CRaceManager::GetSelectedRaceDataPointer
EXTRN	?SetPathName@CRaceManager@@QAEXPBD@Z:PROC	; CRaceManager::SetPathName
EXTRN	?CreateRace@CRaceManager@@QAEXK@Z:PROC		; CRaceManager::CreateRace
;	COMDAT ?s_isVisible@?1??chrmgrToggleDirectionLine@@YAPAU_object@@PAU2@0@Z@4_NA
_DATA	SEGMENT
?s_isVisible@?1??chrmgrToggleDirectionLine@@YAPAU_object@@PAU2@0@Z@4_NA DB 01H ; `chrmgrToggleDirectionLine'::`2'::s_isVisible
_DATA	ENDS
;	COMDAT ?s_methods@?1??initchrmgr@@YAXXZ@4PAUPyMethodDef@@A
_DATA	SEGMENT
?s_methods@?1??initchrmgr@@YAXXZ@4PAUPyMethodDef@@A DD FLAT:??_C@_0BC@BKLPPNOE@SetEmpireNameMode@ ; `initchrmgr'::`2'::s_methods
	DD	FLAT:?chrmgrSetEmpireNameMode@@YAPAU_object@@PAU1@0@Z
	DD	01H
	ORG $+4
	DD	FLAT:??_C@_0L@HLMOHPB@GetVIDInfo@
	DD	FLAT:?chrmgrGetVIDInfo@@YAPAU_object@@PAU1@0@Z
	DD	01H
	ORG $+4
	DD	FLAT:??_C@_0N@GBMNDJED@GetPickedVID@
	DD	FLAT:?chrmgrGetPickedVID@@YAPAU_object@@PAU1@0@Z
	DD	01H
	ORG $+4
	DD	FLAT:??_C@_0O@MHKAJHDG@SetShapeModel@
	DD	FLAT:?chrmgrSetShapeModel@@YAPAU_object@@PAU1@0@Z
	DD	01H
	ORG $+4
	DD	FLAT:??_C@_0BA@HPLHAKEG@AppendShapeSkin@
	DD	FLAT:?chrmgrAppendShapeSkin@@YAPAU_object@@PAU1@0@Z
	DD	01H
	ORG $+4
	DD	FLAT:??_C@_0M@LPKBIHHH@SetPathName@
	DD	FLAT:?chrmgrSetPathName@@YAPAU_object@@PAU1@0@Z
	DD	01H
	ORG $+4
	DD	FLAT:??_C@_0N@GHFJHKGH@LoadRaceData@
	DD	FLAT:?chrmgrLoadRaceData@@YAPAU_object@@PAU1@0@Z
	DD	01H
	ORG $+4
	DD	FLAT:??_C@_0BC@DAGLOOBN@LoadLocalRaceData@
	DD	FLAT:?chrmgrLoadLocalRaceData@@YAPAU_object@@PAU1@0@Z
	DD	01H
	ORG $+4
	DD	FLAT:??_C@_0L@PAJHIMBB@CreateRace@
	DD	FLAT:?chrmgrCreateRace@@YAPAU_object@@PAU1@0@Z
	DD	01H
	ORG $+4
	DD	FLAT:??_C@_0L@NJAJBJJE@SelectRace@
	DD	FLAT:?chrmgrSelectRace@@YAPAU_object@@PAU1@0@Z
	DD	01H
	ORG $+4
	DD	FLAT:??_C@_0BK@DPJBIBKK@RegisterAttachingBoneName@
	DD	FLAT:?chrmgrRegisterAttachingBoneName@@YAPAU_object@@PAU1@0@Z
	DD	01H
	ORG $+4
	DD	FLAT:??_C@_0BD@JDOLIM@RegisterMotionMode@
	DD	FLAT:?chrmgrRegisterMotionMode@@YAPAU_object@@PAU1@0@Z
	DD	01H
	ORG $+4
	DD	FLAT:??_C@_0BG@OCGHAGOD@SetMotionRandomWeight@
	DD	FLAT:?chrmgrSetMotionRandomWeight@@YAPAU_object@@PAU1@0@Z
	DD	01H
	ORG $+4
	DD	FLAT:??_C@_0BF@PLDGGJNA@RegisterNormalAttack@
	DD	FLAT:?chrmgrRegisterNormalAttack@@YAPAU_object@@PAU1@0@Z
	DD	01H
	ORG $+4
	DD	FLAT:??_C@_0BD@DNKMMCHM@ReserveComboAttack@
	DD	FLAT:?chrmgrReserveComboAttack@@YAPAU_object@@PAU1@0@Z
	DD	01H
	ORG $+4
	DD	FLAT:??_C@_0BE@OMDLDMGO@RegisterComboAttack@
	DD	FLAT:?chrmgrRegisterComboAttack@@YAPAU_object@@PAU1@0@Z
	DD	01H
	ORG $+4
	DD	FLAT:??_C@_0BG@COOOACPC@ReserveComboAttackNew@
	DD	FLAT:?chrmgrReserveComboAttackNew@@YAPAU_object@@PAU1@0@Z
	DD	01H
	ORG $+4
	DD	FLAT:??_C@_0BH@NFBILPOJ@RegisterComboAttackNew@
	DD	FLAT:?chrmgrRegisterComboAttackNew@@YAPAU_object@@PAU1@0@Z
	DD	01H
	ORG $+4
	DD	FLAT:??_C@_0BD@JFBGJILK@RegisterMotionData@
	DD	FLAT:?chrmgrRegisterMotionData@@YAPAU_object@@PAU1@0@Z
	DD	01H
	ORG $+4
	DD	FLAT:??_C@_0BB@HNIEHNII@RegisterRaceName@
	DD	FLAT:?chrmgrRegisterRaceName@@YAPAU_object@@PAU1@0@Z
	DD	01H
	ORG $+4
	DD	FLAT:??_C@_0BE@HJOOIAPM@RegisterRaceSrcName@
	DD	FLAT:?chrmgrRegisterRaceSrcName@@YAPAU_object@@PAU1@0@Z
	DD	01H
	ORG $+4
	DD	FLAT:??_C@_0BI@FCNOCDC@RegisterCacheMotionData@
	DD	FLAT:?chrmgrRegisterCacheMotionData@@YAPAU_object@@PAU1@0@Z
	DD	01H
	ORG $+4
	DD	FLAT:??_C@_09FHCBCPJO@SetAffect@
	DD	FLAT:?chrmgrSetAffect@@YAPAU_object@@PAU1@0@Z
	DD	01H
	ORG $+4
	DD	FLAT:??_C@_0M@CGAMKJOI@SetEmoticon@
	DD	FLAT:?chrmgrSetEmoticon@@YAPAU_object@@PAU1@0@Z
	DD	01H
	ORG $+4
	DD	FLAT:??_C@_0BD@POCMNAMG@IsPossibleEmoticon@
	DD	FLAT:?chrmgrIsPossibleEmoticon@@YAPAU_object@@PAU1@0@Z
	DD	01H
	ORG $+4
	DD	FLAT:??_C@_0P@HDADHLLI@RegisterEffect@
	DD	FLAT:?chrmgrRegisterEffect@@YAPAU_object@@PAU1@0@Z
	DD	01H
	ORG $+4
	DD	FLAT:??_C@_0BE@EGCDGLCF@RegisterCacheEffect@
	DD	FLAT:?chrmgrRegisterCacheEffect@@YAPAU_object@@PAU1@0@Z
	DD	01H
	ORG $+4
	DD	FLAT:??_C@_0BE@LLPKKHNJ@RegisterPointEffect@
	DD	FLAT:?chrmgrRegisterPointEffect@@YAPAU_object@@PAU1@0@Z
	DD	01H
	ORG $+4
	DD	FLAT:??_C@_0BA@NPGECIIB@ShowPointEffect@
	DD	FLAT:?chrmgrShowPointEffect@@YAPAU_object@@PAU1@0@Z
	DD	01H
	ORG $+4
	DD	FLAT:??_C@_0BE@FHPGPJOE@ToggleDirectionLine@
	DD	FLAT:?chrmgrToggleDirectionLine@@YAPAU_object@@PAU1@0@Z
	DD	01H
	ORG $+4
	DD	FLAT:??_C@_0P@BIEBGJOI@SetMovingSpeed@
	DD	FLAT:?chrmgrSetMovingSpeed@@YAPAU_object@@PAU1@0@Z
	DD	01H
	ORG $+4
	DD	FLAT:??_C@_0L@BNCPBKEF@SetDustGap@
	DD	FLAT:?chrmgrSetDustGap@@YAPAU_object@@PAU1@0@Z
	DD	01H
	ORG $+4
	DD	FLAT:??_C@_0BA@JCKJBNGJ@SetHorseDustGap@
	DD	FLAT:?chrmgrSetHorseDustGap@@YAPAU_object@@PAU1@0@Z
	DD	01H
	ORG $+4
	DD	FLAT:??_C@_0BC@MEILBMBD@RegisterTitleName@
	DD	FLAT:?chrmgrRegisterTitleName@@YAPAU_object@@PAU1@0@Z
	DD	01H
	ORG $+4
	DD	FLAT:??_C@_0BC@GAIKKIED@RegisterNameColor@
	DD	FLAT:?chrmgrRegisterNameColor@@YAPAU_object@@PAU1@0@Z
	DD	01H
	ORG $+4
	DD	FLAT:??_C@_0BD@CPPGJOLK@RegisterTitleColor@
	DD	FLAT:?chrmgrRegisterTitleColor@@YAPAU_object@@PAU1@0@Z
	DD	01H
	ORG $+4
	DD	FLAT:??_C@_0O@LCDFPKLG@SetRaceHeight@
	DD	FLAT:?chrmgrSetRaceHeight@@YAPAU_object@@PAU1@0@Z
	DD	01H
	ORG $+4
	DD	FLAT:??_C@_0BI@FIJMCLIP@RegisterTitleSystemName@
	DD	FLAT:?chrmgrRegisterTitleSystemName@@YAPAU_object@@PAU1@0@Z
	DD	01H
	ORG $+4
	DD	FLAT:??_C@_0BJ@NGNDFGOC@RegisterTitleSystemColor@
	DD	FLAT:?chrmgrRegisterTitleSystemColor@@YAPAU_object@@PAU1@0@Z
	DD	01H
	ORG $+4
	DD	00H
	DD	00H
	ORG $+8
_DATA	ENDS
;	COMDAT ??_C@_0BH@PKDHJHLG@EFFECT_GYEONGGONG_BOOM@
CONST	SEGMENT
??_C@_0BH@PKDHJHLG@EFFECT_GYEONGGONG_BOOM@ DB 'EFFECT_GYEONGGONG_BOOM', 00H ; `string'
CONST	ENDS
;	COMDAT ??_C@_0CH@GLCKGADF@EFFECT_BP_PREMIUM_BATTLEPASS_CO@
CONST	SEGMENT
??_C@_0CH@GLCKGADF@EFFECT_BP_PREMIUM_BATTLEPASS_CO@ DB 'EFFECT_BP_PREMIUM'
	DB	'_BATTLEPASS_COMPLETED', 00H			; `string'
CONST	ENDS
;	COMDAT ??_C@_0CG@BINHAMPH@EFFECT_BP_NORMAL_BATTLEPASS_COM@
CONST	SEGMENT
??_C@_0CG@BINHAMPH@EFFECT_BP_NORMAL_BATTLEPASS_COM@ DB 'EFFECT_BP_NORMAL_'
	DB	'BATTLEPASS_COMPLETED', 00H			; `string'
CONST	ENDS
;	COMDAT ??_C@_0CE@JJOCGBAD@EFFECT_BP_PREMIUM_MISSION_COMPL@
CONST	SEGMENT
??_C@_0CE@JJOCGBAD@EFFECT_BP_PREMIUM_MISSION_COMPL@ DB 'EFFECT_BP_PREMIUM'
	DB	'_MISSION_COMPLETED', 00H			; `string'
CONST	ENDS
;	COMDAT ??_C@_0CD@ENDEMKHE@EFFECT_BP_NORMAL_MISSION_COMPLE@
CONST	SEGMENT
??_C@_0CD@ENDEMKHE@EFFECT_BP_NORMAL_MISSION_COMPLE@ DB 'EFFECT_BP_NORMAL_'
	DB	'MISSION_COMPLETED', 00H			; `string'
CONST	ENDS
;	COMDAT ??_C@_0M@IGMOHEMH@EFFECT_BOSS@
CONST	SEGMENT
??_C@_0M@IGMOHEMH@EFFECT_BOSS@ DB 'EFFECT_BOSS', 00H	; `string'
CONST	ENDS
;	COMDAT ??_C@_0M@ILAGKHAI@EFFECT_ACCE@
CONST	SEGMENT
??_C@_0M@ILAGKHAI@EFFECT_ACCE@ DB 'EFFECT_ACCE', 00H	; `string'
CONST	ENDS
;	COMDAT ??_C@_0BC@FAAHJKCH@EFFECT_ACCE_EQUIP@
CONST	SEGMENT
??_C@_0BC@FAAHJKCH@EFFECT_ACCE_EQUIP@ DB 'EFFECT_ACCE_EQUIP', 00H ; `string'
CONST	ENDS
;	COMDAT ??_C@_0BF@IIPPAKCH@EFFECT_ACCE_SUCCEDED@
CONST	SEGMENT
??_C@_0BF@IIPPAKCH@EFFECT_ACCE_SUCCEDED@ DB 'EFFECT_ACCE_SUCCEDED', 00H ; `string'
CONST	ENDS
;	COMDAT ??_C@_0BK@MMIJIEDM@EFFECT_LOVE_PENDANT_EQUIP@
CONST	SEGMENT
??_C@_0BK@MMIJIEDM@EFFECT_LOVE_PENDANT_EQUIP@ DB 'EFFECT_LOVE_PENDANT_EQU'
	DB	'IP', 00H					; `string'
CONST	ENDS
;	COMDAT ??_C@_0BM@DAACAMNP@EFFECT_HAPPINESS_RING_EQUIP@
CONST	SEGMENT
??_C@_0BM@DAACAMNP@EFFECT_HAPPINESS_RING_EQUIP@ DB 'EFFECT_HAPPINESS_RING'
	DB	'_EQUIP', 00H				; `string'
CONST	ENDS
;	COMDAT ??_C@_0BN@NGBKKLJA@EFFECT_HALLOWEEN_CANDY_EQUIP@
CONST	SEGMENT
??_C@_0BN@NGBKKLJA@EFFECT_HALLOWEEN_CANDY_EQUIP@ DB 'EFFECT_HALLOWEEN_CAN'
	DB	'DY_EQUIP', 00H				; `string'
CONST	ENDS
;	COMDAT ??_C@_0BK@JCIOPIOG@EFFECT_RAMADAN_RING_EQUIP@
CONST	SEGMENT
??_C@_0BK@JCIOPIOG@EFFECT_RAMADAN_RING_EQUIP@ DB 'EFFECT_RAMADAN_RING_EQU'
	DB	'IP', 00H					; `string'
CONST	ENDS
;	COMDAT ??_C@_0BB@KIEILKFM@EFFECT_AUTO_SPUP@
CONST	SEGMENT
??_C@_0BB@KIEILKFM@EFFECT_AUTO_SPUP@ DB 'EFFECT_AUTO_SPUP', 00H ; `string'
CONST	ENDS
;	COMDAT ??_C@_0BB@LPHIBMMP@EFFECT_AUTO_HPUP@
CONST	SEGMENT
??_C@_0BB@LPHIBMMP@EFFECT_AUTO_HPUP@ DB 'EFFECT_AUTO_HPUP', 00H ; `string'
CONST	ENDS
;	COMDAT ??_C@_0BH@JBAMKDED@EFFECT_PERCENT_DAMAGE3@
CONST	SEGMENT
??_C@_0BH@JBAMKDED@EFFECT_PERCENT_DAMAGE3@ DB 'EFFECT_PERCENT_DAMAGE3', 00H ; `string'
CONST	ENDS
;	COMDAT ??_C@_0BH@IIBHJCAC@EFFECT_PERCENT_DAMAGE2@
CONST	SEGMENT
??_C@_0BH@IIBHJCAC@EFFECT_PERCENT_DAMAGE2@ DB 'EFFECT_PERCENT_DAMAGE2', 00H ; `string'
CONST	ENDS
;	COMDAT ??_C@_0BH@KDDKMBMB@EFFECT_PERCENT_DAMAGE1@
CONST	SEGMENT
??_C@_0BH@KDDKMBMB@EFFECT_PERCENT_DAMAGE1@ DB 'EFFECT_PERCENT_DAMAGE1', 00H ; `string'
CONST	ENDS
;	COMDAT ??_C@_0BC@EDPMLGPA@EFFECT_FR_SUCCESS@
CONST	SEGMENT
??_C@_0BC@EDPMLGPA@EFFECT_FR_SUCCESS@ DB 'EFFECT_FR_SUCCESS', 00H ; `string'
CONST	ENDS
;	COMDAT ??_C@_0M@EPHKINAM@EFFECT_FAIL@
CONST	SEGMENT
??_C@_0M@EPHKINAM@EFFECT_FAIL@ DB 'EFFECT_FAIL', 00H	; `string'
CONST	ENDS
;	COMDAT ??_C@_0P@OAEAICFL@EFFECT_SUCCESS@
CONST	SEGMENT
??_C@_0P@OAEAICFL@EFFECT_SUCCESS@ DB 'EFFECT_SUCCESS', 00H ; `string'
CONST	ENDS
;	COMDAT ??_C@_0P@JLGAELEM@EFFECT_REFINED@
CONST	SEGMENT
??_C@_0P@JLGAELEM@EFFECT_REFINED@ DB 'EFFECT_REFINED', 00H ; `string'
CONST	ENDS
;	COMDAT ??_C@_0O@MBIOGBFC@EFFECT_EMPIRE@
CONST	SEGMENT
??_C@_0O@MBIOGBFC@EFFECT_EMPIRE@ DB 'EFFECT_EMPIRE', 00H ; `string'
CONST	ENDS
;	COMDAT ??_C@_0BA@LLIBADMN@EFFECT_EMOTICON@
CONST	SEGMENT
??_C@_0BA@LLIBADMN@EFFECT_EMOTICON@ DB 'EFFECT_EMOTICON', 00H ; `string'
CONST	ENDS
;	COMDAT ??_C@_0O@LEENICEP@EFFECT_AFFECT@
CONST	SEGMENT
??_C@_0O@LEENICEP@EFFECT_AFFECT@ DB 'EFFECT_AFFECT', 00H ; `string'
CONST	ENDS
;	COMDAT ??_C@_0O@FKAHCBBH@EFFECT_WEAPON@
CONST	SEGMENT
??_C@_0O@FKAHCBBH@EFFECT_WEAPON@ DB 'EFFECT_WEAPON', 00H ; `string'
CONST	ENDS
;	COMDAT ??_C@_0BA@LEFHDKNA@EFFECT_SPIN_TOP@
CONST	SEGMENT
??_C@_0BA@LEFHDKNA@EFFECT_SPIN_TOP@ DB 'EFFECT_SPIN_TOP', 00H ; `string'
CONST	ENDS
;	COMDAT ??_C@_0BD@KGHDJJHH@EFFECT_FIRECRACKER@
CONST	SEGMENT
??_C@_0BD@KGHDJJHH@EFFECT_FIRECRACKER@ DB 'EFFECT_FIRECRACKER', 00H ; `string'
CONST	ENDS
;	COMDAT ??_C@_0N@IIDAKFLA@EFFECT_DODGE@
CONST	SEGMENT
??_C@_0N@IIDAKFLA@EFFECT_DODGE@ DB 'EFFECT_DODGE', 00H	; `string'
CONST	ENDS
;	COMDAT ??_C@_0N@FHECDOCO@EFFECT_BLOCK@
CONST	SEGMENT
??_C@_0N@FHECDOCO@EFFECT_BLOCK@ DB 'EFFECT_BLOCK', 00H	; `string'
CONST	ENDS
;	COMDAT ??_C@_0BB@MJKAFPM@EFFECT_PENETRATE@
CONST	SEGMENT
??_C@_0BB@MJKAFPM@EFFECT_PENETRATE@ DB 'EFFECT_PENETRATE', 00H ; `string'
CONST	ENDS
;	COMDAT ??_C@_0BD@NFLNKENB@EFFECT_DXUP_PURPLE@
CONST	SEGMENT
??_C@_0BD@NFLNKENB@EFFECT_DXUP_PURPLE@ DB 'EFFECT_DXUP_PURPLE', 00H ; `string'
CONST	ENDS
;	COMDAT ??_C@_0BF@KGBLOADC@EFFECT_SPEEDUP_GREEN@
CONST	SEGMENT
??_C@_0BF@KGBLOADC@EFFECT_SPEEDUP_GREEN@ DB 'EFFECT_SPEEDUP_GREEN', 00H ; `string'
CONST	ENDS
;	COMDAT ??_C@_0BB@OMECPCHO@EFFECT_SPUP_BLUE@
CONST	SEGMENT
??_C@_0BB@OMECPCHO@EFFECT_SPUP_BLUE@ DB 'EFFECT_SPUP_BLUE', 00H ; `string'
CONST	ENDS
;	COMDAT ??_C@_0BA@FDCHOHC@EFFECT_HPUP_RED@
CONST	SEGMENT
??_C@_0BA@FDCHOHC@EFFECT_HPUP_RED@ DB 'EFFECT_HPUP_RED', 00H ; `string'
CONST	ENDS
;	COMDAT ??_C@_0P@KGMCLBIE@EFFECT_SKILLUP@
CONST	SEGMENT
??_C@_0P@KGMCLBIE@EFFECT_SKILLUP@ DB 'EFFECT_SKILLUP', 00H ; `string'
CONST	ENDS
;	COMDAT ??_C@_0P@KMPGDLGB@EFFECT_LEVELUP@
CONST	SEGMENT
??_C@_0P@KMPGDLGB@EFFECT_LEVELUP@ DB 'EFFECT_LEVELUP', 00H ; `string'
CONST	ENDS
;	COMDAT ??_C@_0BH@LJEMOOEK@EFFECT_DAMAGE_CRITICAL@
CONST	SEGMENT
??_C@_0BH@LJEMOOEK@EFFECT_DAMAGE_CRITICAL@ DB 'EFFECT_DAMAGE_CRITICAL', 00H ; `string'
CONST	ENDS
;	COMDAT ??_C@_0BJ@OOAALGB@EFFECT_DAMAGE_TARGETMISS@
CONST	SEGMENT
??_C@_0BJ@OOAALGB@EFFECT_DAMAGE_TARGETMISS@ DB 'EFFECT_DAMAGE_TARGETMISS', 00H ; `string'
CONST	ENDS
;	COMDAT ??_C@_0BD@HAKEDKPM@EFFECT_DAMAGE_MISS@
CONST	SEGMENT
??_C@_0BD@HAKEDKPM@EFFECT_DAMAGE_MISS@ DB 'EFFECT_DAMAGE_MISS', 00H ; `string'
CONST	ENDS
;	COMDAT ??_C@_0BF@JBDJDOOB@EFFECT_DAMAGE_POISON@
CONST	SEGMENT
??_C@_0BF@JBDJDOOB@EFFECT_DAMAGE_POISON@ DB 'EFFECT_DAMAGE_POISON', 00H ; `string'
CONST	ENDS
;	COMDAT ??_C@_0BK@DDHKDNJN@EFFECT_DAMAGE_SELFDAMAGE2@
CONST	SEGMENT
??_C@_0BK@DDHKDNJN@EFFECT_DAMAGE_SELFDAMAGE2@ DB 'EFFECT_DAMAGE_SELFDAMAG'
	DB	'E2', 00H					; `string'
CONST	ENDS
;	COMDAT ??_C@_0BJ@LBPHCJON@EFFECT_DAMAGE_SELFDAMAGE@
CONST	SEGMENT
??_C@_0BJ@LBPHCJON@EFFECT_DAMAGE_SELFDAMAGE@ DB 'EFFECT_DAMAGE_SELFDAMAGE'
	DB	00H						; `string'
CONST	ENDS
;	COMDAT ??_C@_0BJ@EHADMOLO@EFFECT_DAMAGE_NOT_TARGET@
CONST	SEGMENT
??_C@_0BJ@EHADMOLO@EFFECT_DAMAGE_NOT_TARGET@ DB 'EFFECT_DAMAGE_NOT_TARGET'
	DB	00H						; `string'
CONST	ENDS
;	COMDAT ??_C@_0BF@CKINGCNE@EFFECT_DAMAGE_TARGET@
CONST	SEGMENT
??_C@_0BF@CKINGCNE@EFFECT_DAMAGE_TARGET@ DB 'EFFECT_DAMAGE_TARGET', 00H ; `string'
CONST	ENDS
;	COMDAT ??_C@_0BA@DGHICDHC@EFFECT_CRITICAL@
CONST	SEGMENT
??_C@_0BA@DGHICDHC@EFFECT_CRITICAL@ DB 'EFFECT_CRITICAL', 00H ; `string'
CONST	ENDS
;	COMDAT ??_C@_0O@KHEKIEOF@EFFECT_TARGET@
CONST	SEGMENT
??_C@_0O@KHEKIEOF@EFFECT_TARGET@ DB 'EFFECT_TARGET', 00H ; `string'
CONST	ENDS
;	COMDAT ??_C@_0O@IICIGFKH@EFFECT_SELECT@
CONST	SEGMENT
??_C@_0O@IICIGFKH@EFFECT_SELECT@ DB 'EFFECT_SELECT', 00H ; `string'
CONST	ENDS
;	COMDAT ??_C@_0BH@JDKPGICF@EFFECT_ELECTRIC_ATTACH@
CONST	SEGMENT
??_C@_0BH@JDKPGICF@EFFECT_ELECTRIC_ATTACH@ DB 'EFFECT_ELECTRIC_ATTACH', 00H ; `string'
CONST	ENDS
;	COMDAT ??_C@_0BE@DDJNHBFG@EFFECT_ELECTRIC_HIT@
CONST	SEGMENT
??_C@_0BE@DDJNHBFG@EFFECT_ELECTRIC_HIT@ DB 'EFFECT_ELECTRIC_HIT', 00H ; `string'
CONST	ENDS
;	COMDAT ??_C@_0BH@LIICDLOG@EFFECT_ELECTRIC_ATTACK@
CONST	SEGMENT
??_C@_0BH@LIICDLOG@EFFECT_ELECTRIC_ATTACK@ DB 'EFFECT_ELECTRIC_ATTACK', 00H ; `string'
CONST	ENDS
;	COMDAT ??_C@_0BE@MMPNMHBO@EFFECT_FLAME_ATTACH@
CONST	SEGMENT
??_C@_0BE@MMPNMHBO@EFFECT_FLAME_ATTACH@ DB 'EFFECT_FLAME_ATTACH', 00H ; `string'
CONST	ENDS
;	COMDAT ??_C@_0BB@GKHDFHPF@EFFECT_FLAME_HIT@
CONST	SEGMENT
??_C@_0BB@GKHDFHPF@EFFECT_FLAME_HIT@ DB 'EFFECT_FLAME_HIT', 00H ; `string'
CONST	ENDS
;	COMDAT ??_C@_0BE@OHNAJENN@EFFECT_FLAME_ATTACK@
CONST	SEGMENT
??_C@_0BE@OHNAJENN@EFFECT_FLAME_ATTACK@ DB 'EFFECT_FLAME_ATTACK', 00H ; `string'
CONST	ENDS
;	COMDAT ??_C@_0L@MLLFBJIP@EFFECT_HIT@
CONST	SEGMENT
??_C@_0L@MLLFBJIP@EFFECT_HIT@ DB 'EFFECT_HIT', 00H	; `string'
CONST	ENDS
;	COMDAT ??_C@_0M@KHLHAKMF@EFFECT_STUN@
CONST	SEGMENT
??_C@_0M@KHLHAKMF@EFFECT_STUN@ DB 'EFFECT_STUN', 00H	; `string'
CONST	ENDS
;	COMDAT ??_C@_0BC@IMCHDDJP@EFFECT_HORSE_DUST@
CONST	SEGMENT
??_C@_0BC@IMCHDDJP@EFFECT_HORSE_DUST@ DB 'EFFECT_HORSE_DUST', 00H ; `string'
CONST	ENDS
;	COMDAT ??_C@_0M@HJGLKAFL@EFFECT_DUST@
CONST	SEGMENT
??_C@_0M@HJGLKAFL@EFFECT_DUST@ DB 'EFFECT_DUST', 00H	; `string'
CONST	ENDS
;	COMDAT ??_C@_0BE@IMMEKAGC@EFFECT_SPAWN_APPEAR@
CONST	SEGMENT
??_C@_0BE@IMMEKAGC@EFFECT_SPAWN_APPEAR@ DB 'EFFECT_SPAWN_APPEAR', 00H ; `string'
CONST	ENDS
;	COMDAT ??_C@_0BH@CICELGM@EFFECT_SPAWN_DISAPPEAR@
CONST	SEGMENT
??_C@_0BH@CICELGM@EFFECT_SPAWN_DISAPPEAR@ DB 'EFFECT_SPAWN_DISAPPEAR', 00H ; `string'
CONST	ENDS
;	COMDAT ??_C@_0BA@OIOEHMPC@NAMECOLOR_EXTRA@
CONST	SEGMENT
??_C@_0BA@OIOEHMPC@NAMECOLOR_EXTRA@ DB 'NAMECOLOR_EXTRA', 00H ; `string'
CONST	ENDS
;	COMDAT ??_C@_0P@MAIPKLOP@NAMECOLOR_SHOP@
CONST	SEGMENT
??_C@_0P@MAIPKLOP@NAMECOLOR_SHOP@ DB 'NAMECOLOR_SHOP', 00H ; `string'
CONST	ENDS
;	COMDAT ??_C@_0BA@LCMPNPC@NAMECOLOR_METIN@
CONST	SEGMENT
??_C@_0BA@LCMPNPC@NAMECOLOR_METIN@ DB 'NAMECOLOR_METIN', 00H ; `string'
CONST	ENDS
;	COMDAT ??_C@_0BD@KCIPKGLN@NAMECOLOR_WAYPOINT@
CONST	SEGMENT
??_C@_0BD@KCIPKGLN@NAMECOLOR_WAYPOINT@ DB 'NAMECOLOR_WAYPOINT', 00H ; `string'
CONST	ENDS
;	COMDAT ??_C@_0P@FMPJHCIG@NAMECOLOR_WARP@
CONST	SEGMENT
??_C@_0P@FMPJHCIG@NAMECOLOR_WARP@ DB 'NAMECOLOR_WARP', 00H ; `string'
CONST	ENDS
;	COMDAT ??_C@_0BA@HFPCKBBO@NAMECOLOR_PARTY@
CONST	SEGMENT
??_C@_0BA@HFPCKBBO@NAMECOLOR_PARTY@ DB 'NAMECOLOR_PARTY', 00H ; `string'
CONST	ENDS
;	COMDAT ??_C@_0O@JHPLDMIB@NAMECOLOR_PVP@
CONST	SEGMENT
??_C@_0O@JHPLDMIB@NAMECOLOR_PVP@ DB 'NAMECOLOR_PVP', 00H ; `string'
CONST	ENDS
;	COMDAT ??_C@_0N@LNOCDEOD@NAMECOLOR_PK@
CONST	SEGMENT
??_C@_0N@LNOCDEOD@NAMECOLOR_PK@ DB 'NAMECOLOR_PK', 00H	; `string'
CONST	ENDS
;	COMDAT ??_C@_0P@KKNBBHPK@NAMECOLOR_FUNC@
CONST	SEGMENT
??_C@_0P@KKNBBHPK@NAMECOLOR_FUNC@ DB 'NAMECOLOR_FUNC', 00H ; `string'
CONST	ENDS
;	COMDAT ??_C@_0BE@NDFEFIME@NAMECOLOR_EMPIRE_PC@
CONST	SEGMENT
??_C@_0BE@NDFEFIME@NAMECOLOR_EMPIRE_PC@ DB 'NAMECOLOR_EMPIRE_PC', 00H ; `string'
CONST	ENDS
;	COMDAT ??_C@_0BF@OJCIHDLC@NAMECOLOR_EMPIRE_NPC@
CONST	SEGMENT
??_C@_0BF@OJCIHDLC@NAMECOLOR_EMPIRE_NPC@ DB 'NAMECOLOR_EMPIRE_NPC', 00H ; `string'
CONST	ENDS
;	COMDAT ??_C@_0BF@PFPMAJFA@NAMECOLOR_EMPIRE_MOB@
CONST	SEGMENT
??_C@_0BF@PFPMAJFA@NAMECOLOR_EMPIRE_MOB@ DB 'NAMECOLOR_EMPIRE_MOB', 00H ; `string'
CONST	ENDS
;	COMDAT ??_C@_0N@HFDLLOOL@NAMECOLOR_PC@
CONST	SEGMENT
??_C@_0N@HFDLLOOL@NAMECOLOR_PC@ DB 'NAMECOLOR_PC', 00H	; `string'
CONST	ENDS
;	COMDAT ??_C@_0O@ECFPCBAN@NAMECOLOR_NPC@
CONST	SEGMENT
??_C@_0O@ECFPCBAN@NAMECOLOR_NPC@ DB 'NAMECOLOR_NPC', 00H ; `string'
CONST	ENDS
;	COMDAT ??_C@_0O@FOILFLOP@NAMECOLOR_MOB@
CONST	SEGMENT
??_C@_0O@FOILFLOP@NAMECOLOR_MOB@ DB 'NAMECOLOR_MOB', 00H ; `string'
CONST	ENDS
;	COMDAT ??_C@_0BJ@NGNDFGOC@RegisterTitleSystemColor@
CONST	SEGMENT
??_C@_0BJ@NGNDFGOC@RegisterTitleSystemColor@ DB 'RegisterTitleSystemColor'
	DB	00H						; `string'
CONST	ENDS
;	COMDAT ??_C@_0BI@FIJMCLIP@RegisterTitleSystemName@
CONST	SEGMENT
??_C@_0BI@FIJMCLIP@RegisterTitleSystemName@ DB 'RegisterTitleSystemName', 00H ; `string'
CONST	ENDS
;	COMDAT ??_C@_0O@LCDFPKLG@SetRaceHeight@
CONST	SEGMENT
??_C@_0O@LCDFPKLG@SetRaceHeight@ DB 'SetRaceHeight', 00H ; `string'
CONST	ENDS
;	COMDAT ??_C@_0BD@CPPGJOLK@RegisterTitleColor@
CONST	SEGMENT
??_C@_0BD@CPPGJOLK@RegisterTitleColor@ DB 'RegisterTitleColor', 00H ; `string'
CONST	ENDS
;	COMDAT ??_C@_0BC@GAIKKIED@RegisterNameColor@
CONST	SEGMENT
??_C@_0BC@GAIKKIED@RegisterNameColor@ DB 'RegisterNameColor', 00H ; `string'
CONST	ENDS
;	COMDAT ??_C@_0BC@MEILBMBD@RegisterTitleName@
CONST	SEGMENT
??_C@_0BC@MEILBMBD@RegisterTitleName@ DB 'RegisterTitleName', 00H ; `string'
CONST	ENDS
;	COMDAT ??_C@_0BA@JCKJBNGJ@SetHorseDustGap@
CONST	SEGMENT
??_C@_0BA@JCKJBNGJ@SetHorseDustGap@ DB 'SetHorseDustGap', 00H ; `string'
CONST	ENDS
;	COMDAT ??_C@_0L@BNCPBKEF@SetDustGap@
CONST	SEGMENT
??_C@_0L@BNCPBKEF@SetDustGap@ DB 'SetDustGap', 00H	; `string'
CONST	ENDS
;	COMDAT ??_C@_0P@BIEBGJOI@SetMovingSpeed@
CONST	SEGMENT
??_C@_0P@BIEBGJOI@SetMovingSpeed@ DB 'SetMovingSpeed', 00H ; `string'
CONST	ENDS
;	COMDAT ??_C@_0BE@FHPGPJOE@ToggleDirectionLine@
CONST	SEGMENT
??_C@_0BE@FHPGPJOE@ToggleDirectionLine@ DB 'ToggleDirectionLine', 00H ; `string'
CONST	ENDS
;	COMDAT ??_C@_0BA@NPGECIIB@ShowPointEffect@
CONST	SEGMENT
??_C@_0BA@NPGECIIB@ShowPointEffect@ DB 'ShowPointEffect', 00H ; `string'
CONST	ENDS
;	COMDAT ??_C@_0BE@LLPKKHNJ@RegisterPointEffect@
CONST	SEGMENT
??_C@_0BE@LLPKKHNJ@RegisterPointEffect@ DB 'RegisterPointEffect', 00H ; `string'
CONST	ENDS
;	COMDAT ??_C@_0BE@EGCDGLCF@RegisterCacheEffect@
CONST	SEGMENT
??_C@_0BE@EGCDGLCF@RegisterCacheEffect@ DB 'RegisterCacheEffect', 00H ; `string'
CONST	ENDS
;	COMDAT ??_C@_0P@HDADHLLI@RegisterEffect@
CONST	SEGMENT
??_C@_0P@HDADHLLI@RegisterEffect@ DB 'RegisterEffect', 00H ; `string'
CONST	ENDS
;	COMDAT ??_C@_0BD@POCMNAMG@IsPossibleEmoticon@
CONST	SEGMENT
??_C@_0BD@POCMNAMG@IsPossibleEmoticon@ DB 'IsPossibleEmoticon', 00H ; `string'
CONST	ENDS
;	COMDAT ??_C@_0M@CGAMKJOI@SetEmoticon@
CONST	SEGMENT
??_C@_0M@CGAMKJOI@SetEmoticon@ DB 'SetEmoticon', 00H	; `string'
CONST	ENDS
;	COMDAT ??_C@_09FHCBCPJO@SetAffect@
CONST	SEGMENT
??_C@_09FHCBCPJO@SetAffect@ DB 'SetAffect', 00H		; `string'
CONST	ENDS
;	COMDAT ??_C@_0BI@FCNOCDC@RegisterCacheMotionData@
CONST	SEGMENT
??_C@_0BI@FCNOCDC@RegisterCacheMotionData@ DB 'RegisterCacheMotionData', 00H ; `string'
CONST	ENDS
;	COMDAT ??_C@_0BE@HJOOIAPM@RegisterRaceSrcName@
CONST	SEGMENT
??_C@_0BE@HJOOIAPM@RegisterRaceSrcName@ DB 'RegisterRaceSrcName', 00H ; `string'
CONST	ENDS
;	COMDAT ??_C@_0BB@HNIEHNII@RegisterRaceName@
CONST	SEGMENT
??_C@_0BB@HNIEHNII@RegisterRaceName@ DB 'RegisterRaceName', 00H ; `string'
CONST	ENDS
;	COMDAT ??_C@_0BD@JFBGJILK@RegisterMotionData@
CONST	SEGMENT
??_C@_0BD@JFBGJILK@RegisterMotionData@ DB 'RegisterMotionData', 00H ; `string'
CONST	ENDS
;	COMDAT ??_C@_0BH@NFBILPOJ@RegisterComboAttackNew@
CONST	SEGMENT
??_C@_0BH@NFBILPOJ@RegisterComboAttackNew@ DB 'RegisterComboAttackNew', 00H ; `string'
CONST	ENDS
;	COMDAT ??_C@_0BG@COOOACPC@ReserveComboAttackNew@
CONST	SEGMENT
??_C@_0BG@COOOACPC@ReserveComboAttackNew@ DB 'ReserveComboAttackNew', 00H ; `string'
CONST	ENDS
;	COMDAT ??_C@_0BE@OMDLDMGO@RegisterComboAttack@
CONST	SEGMENT
??_C@_0BE@OMDLDMGO@RegisterComboAttack@ DB 'RegisterComboAttack', 00H ; `string'
CONST	ENDS
;	COMDAT ??_C@_0BD@DNKMMCHM@ReserveComboAttack@
CONST	SEGMENT
??_C@_0BD@DNKMMCHM@ReserveComboAttack@ DB 'ReserveComboAttack', 00H ; `string'
CONST	ENDS
;	COMDAT ??_C@_0BF@PLDGGJNA@RegisterNormalAttack@
CONST	SEGMENT
??_C@_0BF@PLDGGJNA@RegisterNormalAttack@ DB 'RegisterNormalAttack', 00H ; `string'
CONST	ENDS
;	COMDAT ??_C@_0BG@OCGHAGOD@SetMotionRandomWeight@
CONST	SEGMENT
??_C@_0BG@OCGHAGOD@SetMotionRandomWeight@ DB 'SetMotionRandomWeight', 00H ; `string'
CONST	ENDS
;	COMDAT ??_C@_0BD@JDOLIM@RegisterMotionMode@
CONST	SEGMENT
??_C@_0BD@JDOLIM@RegisterMotionMode@ DB 'RegisterMotionMode', 00H ; `string'
CONST	ENDS
;	COMDAT ??_C@_0BK@DPJBIBKK@RegisterAttachingBoneName@
CONST	SEGMENT
??_C@_0BK@DPJBIBKK@RegisterAttachingBoneName@ DB 'RegisterAttachingBoneNa'
	DB	'me', 00H					; `string'
CONST	ENDS
;	COMDAT ??_C@_0L@NJAJBJJE@SelectRace@
CONST	SEGMENT
??_C@_0L@NJAJBJJE@SelectRace@ DB 'SelectRace', 00H	; `string'
CONST	ENDS
;	COMDAT ??_C@_0L@PAJHIMBB@CreateRace@
CONST	SEGMENT
??_C@_0L@PAJHIMBB@CreateRace@ DB 'CreateRace', 00H	; `string'
CONST	ENDS
;	COMDAT ??_C@_0BC@DAGLOOBN@LoadLocalRaceData@
CONST	SEGMENT
??_C@_0BC@DAGLOOBN@LoadLocalRaceData@ DB 'LoadLocalRaceData', 00H ; `string'
CONST	ENDS
;	COMDAT ??_C@_0N@GHFJHKGH@LoadRaceData@
CONST	SEGMENT
??_C@_0N@GHFJHKGH@LoadRaceData@ DB 'LoadRaceData', 00H	; `string'
CONST	ENDS
;	COMDAT ??_C@_0M@LPKBIHHH@SetPathName@
CONST	SEGMENT
??_C@_0M@LPKBIHHH@SetPathName@ DB 'SetPathName', 00H	; `string'
CONST	ENDS
;	COMDAT ??_C@_0BA@HPLHAKEG@AppendShapeSkin@
CONST	SEGMENT
??_C@_0BA@HPLHAKEG@AppendShapeSkin@ DB 'AppendShapeSkin', 00H ; `string'
CONST	ENDS
;	COMDAT ??_C@_0O@MHKAJHDG@SetShapeModel@
CONST	SEGMENT
??_C@_0O@MHKAJHDG@SetShapeModel@ DB 'SetShapeModel', 00H ; `string'
CONST	ENDS
;	COMDAT ??_C@_0N@GBMNDJED@GetPickedVID@
CONST	SEGMENT
??_C@_0N@GBMNDJED@GetPickedVID@ DB 'GetPickedVID', 00H	; `string'
CONST	ENDS
;	COMDAT ??_C@_0L@HLMOHPB@GetVIDInfo@
CONST	SEGMENT
??_C@_0L@HLMOHPB@GetVIDInfo@ DB 'GetVIDInfo', 00H	; `string'
CONST	ENDS
;	COMDAT ??_C@_0BC@BKLPPNOE@SetEmpireNameMode@
CONST	SEGMENT
??_C@_0BC@BKLPPNOE@SetEmpireNameMode@ DB 'SetEmpireNameMode', 00H ; `string'
CONST	ENDS
;	COMDAT ??_C@_0CA@LHMBKIIP@MainCharacter?5has?5not?5selected?$CB@
CONST	SEGMENT
??_C@_0CA@LHMBKIIP@MainCharacter?5has?5not?5selected?$CB@ DB 'MainCharact'
	DB	'er has not selected!', 00H			; `string'
CONST	ENDS
;	COMDAT ??_C@_0BA@ONNGPENO@MovingSpeed?5?$DM?50@
CONST	SEGMENT
??_C@_0BA@ONNGPENO@MovingSpeed?5?$DM?50@ DB 'MovingSpeed < 0', 00H ; `string'
CONST	ENDS
;	COMDAT ??_C@_0BP@GOFKKANP@Failed?5to?5load?5race?5data?5?3?5?$CFs?6@
CONST	SEGMENT
??_C@_0BP@GOFKKANP@Failed?5to?5load?5race?5data?5?3?5?$CFs?6@ DB 'Failed '
	DB	'to load race data : %s', 0aH, 00H		; `string'
CONST	ENDS
;	COMDAT ??_C@_0CA@PANOAEAA@Failed?5to?5SetMotionRandomWeight@
CONST	SEGMENT
??_C@_0CA@PANOAEAA@Failed?5to?5SetMotionRandomWeight@ DB 'Failed to SetMo'
	DB	'tionRandomWeight', 00H			; `string'
CONST	ENDS
;	COMDAT ??_C@_0BL@MNEPJNPF@RaceData?5has?5not?5selected?$CB@
CONST	SEGMENT
??_C@_0BL@MNEPJNPF@RaceData?5has?5not?5selected?$CB@ DB 'RaceData has not'
	DB	' selected!', 00H				; `string'
CONST	ENDS
;	COMDAT ??_C@_0DD@OOILPMAD@VID?5?$CFd?5?$CIisRegistered?$DN?$CFd?0?5isAliv@
CONST	SEGMENT
??_C@_0DD@OOILPMAD@VID?5?$CFd?5?$CIisRegistered?$DN?$CFd?0?5isAliv@ DB 'V'
	DB	'ID %d (isRegistered=%d, isAlive=%d, isDead=%d) %s', 00H ; `string'
CONST	ENDS
;	COMDAT ??_C@_0N@DAOJGGNH@pos?$DN?$CI?$CFd?0?5?$CFd?$CJ@
CONST	SEGMENT
??_C@_0N@DAOJGGNH@pos?$DN?$CI?$CFd?0?5?$CFd?$CJ@ DB 'pos=(%d, %d)', 00H ; `string'
PUBLIC	?GetFileName@CResource@@QBEPBDXZ		; CResource::GetFileName
PUBLIC	?Instance@?$CSingleton@VCRaceManager@@@@SAAAVCRaceManager@@XZ ; CSingleton<CRaceManager>::Instance
PUBLIC	?initchrmgr@@YAXXZ				; initchrmgr
PUBLIC	?chrmgrSetRaceHeight@@YAPAU_object@@PAU1@0@Z	; chrmgrSetRaceHeight
PUBLIC	?chrmgrIsPossibleEmoticon@@YAPAU_object@@PAU1@0@Z ; chrmgrIsPossibleEmoticon
PUBLIC	?chrmgrSetEmoticon@@YAPAU_object@@PAU1@0@Z	; chrmgrSetEmoticon
PUBLIC	?IsPossibleEmoticon@CPythonCharacterManager@@QAE_NK@Z ; CPythonCharacterManager::IsPossibleEmoticon
PUBLIC	?SetEmoticon@CPythonCharacterManager@@QAEXKK@Z	; CPythonCharacterManager::SetEmoticon
PUBLIC	?chrmgrSetAffect@@YAPAU_object@@PAU1@0@Z	; chrmgrSetAffect
PUBLIC	?SCRIPT_SetAffect@CPythonCharacterManager@@QAEXKKH@Z ; CPythonCharacterManager::SCRIPT_SetAffect
PUBLIC	?chrmgrShowPointEffect@@YAPAU_object@@PAU1@0@Z	; chrmgrShowPointEffect
PUBLIC	?chrmgrRegisterPointEffect@@YAPAU_object@@PAU1@0@Z ; chrmgrRegisterPointEffect
PUBLIC	?chrmgrToggleDirectionLine@@YAPAU_object@@PAU1@0@Z ; chrmgrToggleDirectionLine
PUBLIC	?chrmgrSetHorseDustGap@@YAPAU_object@@PAU1@0@Z	; chrmgrSetHorseDustGap
PUBLIC	?chrmgrSetDustGap@@YAPAU_object@@PAU1@0@Z	; chrmgrSetDustGap
PUBLIC	?chrmgrRegisterCacheEffect@@YAPAU_object@@PAU1@0@Z ; chrmgrRegisterCacheEffect
PUBLIC	?chrmgrRegisterEffect@@YAPAU_object@@PAU1@0@Z	; chrmgrRegisterEffect
PUBLIC	?chrmgrSetMovingSpeed@@YAPAU_object@@PAU1@0@Z	; chrmgrSetMovingSpeed
PUBLIC	?chrmgrAppendShapeSkin@@YAPAU_object@@PAU1@0@Z	; chrmgrAppendShapeSkin
PUBLIC	?chrmgrSetShapeModel@@YAPAU_object@@PAU1@0@Z	; chrmgrSetShapeModel
PUBLIC	?chrmgrRegisterRaceName@@YAPAU_object@@PAU1@0@Z	; chrmgrRegisterRaceName
PUBLIC	?chrmgrRegisterRaceSrcName@@YAPAU_object@@PAU1@0@Z ; chrmgrRegisterRaceSrcName
PUBLIC	?chrmgrRegisterMotionData@@YAPAU_object@@PAU1@0@Z ; chrmgrRegisterMotionData
PUBLIC	?chrmgrRegisterCacheMotionData@@YAPAU_object@@PAU1@0@Z ; chrmgrRegisterCacheMotionData
PUBLIC	?chrmgrLoadLocalRaceData@@YAPAU_object@@PAU1@0@Z ; chrmgrLoadLocalRaceData
PUBLIC	?chrmgrLoadRaceData@@YAPAU_object@@PAU1@0@Z	; chrmgrLoadRaceData
PUBLIC	?chrmgrRegisterComboAttackNew@@YAPAU_object@@PAU1@0@Z ; chrmgrRegisterComboAttackNew
PUBLIC	?chrmgrReserveComboAttackNew@@YAPAU_object@@PAU1@0@Z ; chrmgrReserveComboAttackNew
PUBLIC	?chrmgrRegisterComboAttack@@YAPAU_object@@PAU1@0@Z ; chrmgrRegisterComboAttack
PUBLIC	?chrmgrReserveComboAttack@@YAPAU_object@@PAU1@0@Z ; chrmgrReserveComboAttack
PUBLIC	?chrmgrRegisterNormalAttack@@YAPAU_object@@PAU1@0@Z ; chrmgrRegisterNormalAttack
PUBLIC	?chrmgrSetMotionRandomWeight@@YAPAU_object@@PAU1@0@Z ; chrmgrSetMotionRandomWeight
PUBLIC	?chrmgrRegisterMotionMode@@YAPAU_object@@PAU1@0@Z ; chrmgrRegisterMotionMode
PUBLIC	?chrmgrRegisterAttachingBoneName@@YAPAU_object@@PAU1@0@Z ; chrmgrRegisterAttachingBoneName
PUBLIC	?chrmgrSelectRace@@YAPAU_object@@PAU1@0@Z	; chrmgrSelectRace
PUBLIC	?chrmgrCreateRace@@YAPAU_object@@PAU1@0@Z	; chrmgrCreateRace
PUBLIC	?chrmgrSetPathName@@YAPAU_object@@PAU1@0@Z	; chrmgrSetPathName
PUBLIC	?chrmgrGetVIDInfo@@YAPAU_object@@PAU1@0@Z	; chrmgrGetVIDInfo
PUBLIC	?chrmgrGetPickedVID@@YAPAU_object@@PAU1@0@Z	; chrmgrGetPickedVID
PUBLIC	?chrmgrRegisterTitleSystemColor@@YAPAU_object@@PAU1@0@Z ; chrmgrRegisterTitleSystemColor
PUBLIC	?chrmgrRegisterTitleSystemName@@YAPAU_object@@PAU1@0@Z ; chrmgrRegisterTitleSystemName
PUBLIC	?chrmgrRegisterTitleColor@@YAPAU_object@@PAU1@0@Z ; chrmgrRegisterTitleColor
PUBLIC	?chrmgrRegisterNameColor@@YAPAU_object@@PAU1@0@Z ; chrmgrRegisterNameColor
PUBLIC	?chrmgrRegisterTitleName@@YAPAU_object@@PAU1@0@Z ; chrmgrRegisterTitleName
PUBLIC	?chrmgrSetEmpireNameMode@@YAPAU_object@@PAU1@0@Z ; chrmgrSetEmpireNameMode
;	COMDAT xdata$x
xdata$x	SEGMENT
__ehfuncinfo$?chrmgrRegisterRaceSrcName@@YAPAU_object@@PAU1@0@Z DQ 00000000219930522r ; 4.45598e-314
	DD	FLAT:__unwindtable$?chrmgrRegisterRaceSrcName@@YAPAU_object@@PAU1@0@Z
	DQ	00000000000000000r		; 0
	DQ	00000000000000000r		; 0
	DQ	00000000100000000r		; 2.122e-314
__unwindtable$?chrmgrRegisterRaceSrcName@@YAPAU_object@@PAU1@0@Z DD 0ffffffffH
	DD	FLAT:__unwindfunclet$?chrmgrRegisterRaceSrcName@@YAPAU_object@@PAU1@0@Z$0
	DD	00H
	DD	FLAT:__unwindfunclet$?chrmgrRegisterRaceSrcName@@YAPAU_object@@PAU1@0@Z$1
; Function compile flags: /Ogtp
; File C:\Anka2Project\Anka2Project\Source\Binary\source\UserInterface\PythonCharacterManagerModule.cpp
; File C:\Anka2Project\Anka2Project\Source\Binary\source\eterBase\Singleton.h
; File C:\Anka2Project\Anka2Project\Source\Binary\source\UserInterface\PythonCharacterManagerModule.cpp
;	COMDAT ?chrmgrGetPickedVID@@YAPAU_object@@PAU1@0@Z
_TEXT	SEGMENT
_dwPickedActorID$ = -4					; size = 4
_poSelf$ = 8						; size = 4
_poArgs$ = 12						; size = 4
?chrmgrGetPickedVID@@YAPAU_object@@PAU1@0@Z PROC	; chrmgrGetPickedVID, COMDAT

; 115  : {

  00000	55		 push	 ebp
  00001	8b ec		 mov	 ebp, esp
  00003	51		 push	 ecx
; File C:\Anka2Project\Anka2Project\Source\Binary\source\eterBase\Singleton.h

; 26   : 		assert(ms_singleton);

  00004	8b 0d 00 00 00
	00		 mov	 ecx, DWORD PTR ?ms_singleton@?$CSingleton@VCPythonCharacterManager@@@@0PAVCPythonCharacterManager@@A ; CSingleton<CPythonCharacterManager>::ms_singleton
  0000a	85 c9		 test	 ecx, ecx
  0000c	75 1a		 jne	 SHORT $LN7@chrmgrGetP
  0000e	6a 1a		 push	 26			; 0000001aH
  00010	68 00 00 00 00	 push	 OFFSET ??_C@_1IO@CAJLEEOI@?$AAC?$AA?3?$AA?2?$AAA?$AAn?$AAk?$AAa?$AA2?$AAP?$AAr?$AAo?$AAj?$AAe?$AAc?$AAt@
  00015	68 00 00 00 00	 push	 OFFSET ??_C@_1BK@FMEHPMFE@?$AAm?$AAs?$AA_?$AAs?$AAi?$AAn?$AAg?$AAl?$AAe?$AAt?$AAo?$AAn@
  0001a	e8 00 00 00 00	 call	 __wassert
  0001f	8b 0d 00 00 00
	00		 mov	 ecx, DWORD PTR ?ms_singleton@?$CSingleton@VCPythonCharacterManager@@@@0PAVCPythonCharacterManager@@A ; CSingleton<CPythonCharacterManager>::ms_singleton
  00025	83 c4 0c	 add	 esp, 12			; 0000000cH
$LN7@chrmgrGetP:
; File C:\Anka2Project\Anka2Project\Source\Binary\source\UserInterface\PythonCharacterManagerModule.cpp

; 119  : 	if (rkChrMgr.OLD_GetPickedInstanceVID(&dwPickedActorID))

  00028	8d 45 fc	 lea	 eax, DWORD PTR _dwPickedActorID$[ebp]
  0002b	50		 push	 eax
  0002c	e8 00 00 00 00	 call	 ?OLD_GetPickedInstanceVID@CPythonCharacterManager@@QAE_NPAK@Z ; CPythonCharacterManager::OLD_GetPickedInstanceVID
  00031	84 c0		 test	 al, al
  00033	74 15		 je	 SHORT $LN2@chrmgrGetP

; 120  : 		return Py_BuildValue("i", dwPickedActorID);

  00035	ff 75 fc	 push	 DWORD PTR _dwPickedActorID$[ebp]

; 123  : }

  00038	68 00 00 00 00	 push	 OFFSET ??_C@_01KBJDNOO@i@
  0003d	ff 15 00 00 00
	00		 call	 DWORD PTR __imp__Py_BuildValue
  00043	83 c4 08	 add	 esp, 8
  00046	8b e5		 mov	 esp, ebp
  00048	5d		 pop	 ebp
  00049	c3		 ret	 0
$LN2@chrmgrGetP:

; 121  : 	else
; 122  : 		return Py_BuildValue("i", -1);

  0004a	6a ff		 push	 -1

; 123  : }

  0004c	68 00 00 00 00	 push	 OFFSET ??_C@_01KBJDNOO@i@
  00051	ff 15 00 00 00
	00		 call	 DWORD PTR __imp__Py_BuildValue
  00057	83 c4 08	 add	 esp, 8
  0005a	8b e5		 mov	 esp, ebp
  0005c	5d		 pop	 ebp
  0005d	c3		 ret	 0
?chrmgrGetPickedVID@@YAPAU_object@@PAU1@0@Z ENDP	; chrmgrGetPickedVID
_TEXT	ENDS
; Function compile flags: /Ogtp
; File C:\Anka2Project\Anka2Project\Source\Binary\source\UserInterface\PythonCharacterManagerModule.cpp
; File C:\Anka2Project\Anka2Project\Source\Binary\source\eterBase\Singleton.h
; File C:\Anka2Project\Anka2Project\Source\Binary\source\UserInterface\PythonCharacterManagerModule.cpp
; File C:\Anka2Project\Anka2Project\Source\Binary\source\eterBase\Singleton.h
; File C:\Anka2Project\Anka2Project\Source\Binary\source\UserInterface\PythonCharacterManagerModule.cpp
; File C:\Anka2Project\Anka2Project\Source\Binary\source\eterBase\Singleton.h
; File C:\Anka2Project\Anka2Project\Source\Binary\source\UserInterface\PythonCharacterManagerModule.cpp
;	COMDAT ?chrmgrGetVIDInfo@@YAPAU_object@@PAU1@0@Z
_TEXT	SEGMENT
_kPPosInst$3 = -1316					; size = 12
_rkChrMgr$1$ = -1304					; size = 4
_xInst$4 = -1300					; size = 4
_yInst$5 = -1296					; size = 4
_nVID$ = -1292						; size = 4
_szInfo$ = -1288					; size = 1024
_szDetail$ = -264					; size = 256
__$ArrayPad$ = -4					; size = 4
_poSelf$ = 8						; size = 4
_poArgs$ = 12						; size = 4
?chrmgrGetVIDInfo@@YAPAU_object@@PAU1@0@Z PROC		; chrmgrGetVIDInfo, COMDAT

; 126  : {

  00000	55		 push	 ebp
  00001	8b ec		 mov	 ebp, esp
  00003	81 ec 24 05 00
	00		 sub	 esp, 1316		; 00000524H
  00009	a1 00 00 00 00	 mov	 eax, DWORD PTR ___security_cookie
  0000e	33 c5		 xor	 eax, ebp
  00010	89 45 fc	 mov	 DWORD PTR __$ArrayPad$[ebp], eax
  00013	8b 45 0c	 mov	 eax, DWORD PTR _poArgs$[ebp]

; 127  : 	int	nVID;
; 128  : 	if (!PyTuple_GetInteger(poArgs, 0, &nVID))

  00016	8d 8d f4 fa ff
	ff		 lea	 ecx, DWORD PTR _nVID$[ebp]
  0001c	53		 push	 ebx
  0001d	56		 push	 esi
  0001e	57		 push	 edi
  0001f	51		 push	 ecx
  00020	6a 00		 push	 0
  00022	50		 push	 eax
  00023	e8 00 00 00 00	 call	 ?PyTuple_GetInteger@@YA_NPAU_object@@HPAH@Z ; PyTuple_GetInteger
  00028	83 c4 0c	 add	 esp, 12			; 0000000cH
  0002b	84 c0		 test	 al, al
  0002d	75 16		 jne	 SHORT $LN2@chrmgrGetV

; 129  : 		return Py_BadArgument();

  0002f	e8 00 00 00 00	 call	 ?Py_BadArgument@@YAPAU_object@@XZ ; Py_BadArgument

; 159  : }

  00034	5f		 pop	 edi
  00035	5e		 pop	 esi
  00036	5b		 pop	 ebx
  00037	8b 4d fc	 mov	 ecx, DWORD PTR __$ArrayPad$[ebp]
  0003a	33 cd		 xor	 ecx, ebp
  0003c	e8 00 00 00 00	 call	 @__security_check_cookie@4
  00041	8b e5		 mov	 esp, ebp
  00043	5d		 pop	 ebp
  00044	c3		 ret	 0
$LN2@chrmgrGetV:
; File C:\Anka2Project\Anka2Project\Source\Binary\source\eterBase\Singleton.h

; 26   : 		assert(ms_singleton);

  00045	8b 35 00 00 00
	00		 mov	 esi, DWORD PTR ?ms_singleton@?$CSingleton@VCPythonCharacterManager@@@@0PAVCPythonCharacterManager@@A ; CSingleton<CPythonCharacterManager>::ms_singleton
  0004b	89 b5 e8 fa ff
	ff		 mov	 DWORD PTR _rkChrMgr$1$[ebp], esi
  00051	85 f6		 test	 esi, esi
  00053	75 20		 jne	 SHORT $LN7@chrmgrGetV
  00055	6a 1a		 push	 26			; 0000001aH
  00057	68 00 00 00 00	 push	 OFFSET ??_C@_1IO@CAJLEEOI@?$AAC?$AA?3?$AA?2?$AAA?$AAn?$AAk?$AAa?$AA2?$AAP?$AAr?$AAo?$AAj?$AAe?$AAc?$AAt@
  0005c	68 00 00 00 00	 push	 OFFSET ??_C@_1BK@FMEHPMFE@?$AAm?$AAs?$AA_?$AAs?$AAi?$AAn?$AAg?$AAl?$AAe?$AAt?$AAo?$AAn@
  00061	e8 00 00 00 00	 call	 __wassert
  00066	8b 35 00 00 00
	00		 mov	 esi, DWORD PTR ?ms_singleton@?$CSingleton@VCPythonCharacterManager@@@@0PAVCPythonCharacterManager@@A ; CSingleton<CPythonCharacterManager>::ms_singleton
  0006c	83 c4 0c	 add	 esp, 12			; 0000000cH
  0006f	89 b5 e8 fa ff
	ff		 mov	 DWORD PTR _rkChrMgr$1$[ebp], esi
$LN7@chrmgrGetV:
; File C:\Anka2Project\Anka2Project\Source\Binary\source\UserInterface\PythonCharacterManagerModule.cpp

; 133  : 	char szDetail[256]="";

  00075	68 ff 00 00 00	 push	 255			; 000000ffH
  0007a	8d 85 f9 fe ff
	ff		 lea	 eax, DWORD PTR _szDetail$[ebp+1]
  00080	c6 85 f8 fe ff
	ff 00		 mov	 BYTE PTR _szDetail$[ebp], 0
  00087	6a 00		 push	 0
  00089	50		 push	 eax
  0008a	e8 00 00 00 00	 call	 _memset

; 134  : 	CInstanceBase* pkInstBase=rkChrMgr.GetInstancePtr(nVID);

  0008f	8b 46 04	 mov	 eax, DWORD PTR [esi+4]
  00092	8d 4e 04	 lea	 ecx, DWORD PTR [esi+4]
  00095	83 c4 0c	 add	 esp, 12			; 0000000cH
  00098	ff b5 f4 fa ff
	ff		 push	 DWORD PTR _nVID$[ebp]
  0009e	ff 50 08	 call	 DWORD PTR [eax+8]

; 135  : 	if (pkInstBase)

  000a1	85 c0		 test	 eax, eax
  000a3	0f 84 81 00 00
	00		 je	 $LN3@chrmgrGetV

; 136  : 	{
; 137  : 		TPixelPosition kPPosInst;
; 138  : 		pkInstBase->NEW_GetPixelPosition(&kPPosInst);

  000a9	8d 8d dc fa ff
	ff		 lea	 ecx, DWORD PTR _kPPosInst$3[ebp]
  000af	51		 push	 ecx
  000b0	8b c8		 mov	 ecx, eax
  000b2	e8 00 00 00 00	 call	 ?NEW_GetPixelPosition@CInstanceBase@@QAEXPAUD3DXVECTOR3@@@Z ; CInstanceBase::NEW_GetPixelPosition

; 140  : 		LONG xInst=kPPosInst.x;

  000b7	f3 0f 2c 85 dc
	fa ff ff	 cvttss2si eax, DWORD PTR _kPPosInst$3[ebp]
; File C:\Anka2Project\Anka2Project\Source\Binary\source\eterBase\Singleton.h

; 26   : 		assert(ms_singleton);

  000bf	8b 0d 00 00 00
	00		 mov	 ecx, DWORD PTR ?ms_singleton@?$CSingleton@VCPythonBackground@@@@0PAVCPythonBackground@@A ; CSingleton<CPythonBackground>::ms_singleton
; File C:\Anka2Project\Anka2Project\Source\Binary\source\UserInterface\PythonCharacterManagerModule.cpp

; 140  : 		LONG xInst=kPPosInst.x;

  000c5	89 85 ec fa ff
	ff		 mov	 DWORD PTR _xInst$4[ebp], eax

; 141  : 		LONG yInst=kPPosInst.y;

  000cb	f3 0f 2c 85 e0
	fa ff ff	 cvttss2si eax, DWORD PTR _kPPosInst$3[ebp+4]
  000d3	89 85 f0 fa ff
	ff		 mov	 DWORD PTR _yInst$5[ebp], eax
; File C:\Anka2Project\Anka2Project\Source\Binary\source\eterBase\Singleton.h

; 26   : 		assert(ms_singleton);

  000d9	85 c9		 test	 ecx, ecx
  000db	75 1a		 jne	 SHORT $LN10@chrmgrGetV
  000dd	6a 1a		 push	 26			; 0000001aH
  000df	68 00 00 00 00	 push	 OFFSET ??_C@_1IO@CAJLEEOI@?$AAC?$AA?3?$AA?2?$AAA?$AAn?$AAk?$AAa?$AA2?$AAP?$AAr?$AAo?$AAj?$AAe?$AAc?$AAt@
  000e4	68 00 00 00 00	 push	 OFFSET ??_C@_1BK@FMEHPMFE@?$AAm?$AAs?$AA_?$AAs?$AAi?$AAn?$AAg?$AAl?$AAe?$AAt?$AAo?$AAn@
  000e9	e8 00 00 00 00	 call	 __wassert
  000ee	8b 0d 00 00 00
	00		 mov	 ecx, DWORD PTR ?ms_singleton@?$CSingleton@VCPythonBackground@@@@0PAVCPythonBackground@@A ; CSingleton<CPythonBackground>::ms_singleton
  000f4	83 c4 0c	 add	 esp, 12			; 0000000cH
$LN10@chrmgrGetV:
; File C:\Anka2Project\Anka2Project\Source\Binary\source\UserInterface\PythonCharacterManagerModule.cpp

; 144  : 		rkBG.LocalPositionToGlobalPosition(xInst, yInst);

  000f7	8d 85 f0 fa ff
	ff		 lea	 eax, DWORD PTR _yInst$5[ebp]
  000fd	50		 push	 eax
  000fe	8d 85 ec fa ff
	ff		 lea	 eax, DWORD PTR _xInst$4[ebp]
  00104	50		 push	 eax
  00105	e8 00 00 00 00	 call	 ?LocalPositionToGlobalPosition@CPythonBackground@@QAEXAAJ0@Z ; CPythonBackground::LocalPositionToGlobalPosition

; 145  : 		sprintf(szDetail, "pos=(%d, %d)", xInst, yInst);

  0010a	ff b5 f0 fa ff
	ff		 push	 DWORD PTR _yInst$5[ebp]
  00110	8d 85 f8 fe ff
	ff		 lea	 eax, DWORD PTR _szDetail$[ebp]
  00116	ff b5 ec fa ff
	ff		 push	 DWORD PTR _xInst$4[ebp]
  0011c	68 00 00 00 00	 push	 OFFSET ??_C@_0N@DAOJGGNH@pos?$DN?$CI?$CFd?0?5?$CFd?$CJ@
  00121	50		 push	 eax
  00122	e8 00 00 00 00	 call	 _sprintf
  00127	83 c4 10	 add	 esp, 16			; 00000010H
$LN3@chrmgrGetV:

; 146  : 	}	
; 147  : 	
; 148  : 
; 149  : 	char szInfo[1024];	
; 150  : 	sprintf(szInfo, "VID %d (isRegistered=%d, isAlive=%d, isDead=%d) %s", 

  0012a	ff b5 f4 fa ff
	ff		 push	 DWORD PTR _nVID$[ebp]
  00130	8b ce		 mov	 ecx, esi
  00132	e8 00 00 00 00	 call	 ?IsDeadVID@CPythonCharacterManager@@QAE_NK@Z ; CPythonCharacterManager::IsDeadVID
  00137	8b 9d f4 fa ff
	ff		 mov	 ebx, DWORD PTR _nVID$[ebp]
  0013d	8b ce		 mov	 ecx, esi
  0013f	53		 push	 ebx
  00140	0f b6 f8	 movzx	 edi, al
  00143	e8 00 00 00 00	 call	 ?IsAliveVID@CPythonCharacterManager@@QAE_NK@Z ; CPythonCharacterManager::IsAliveVID
  00148	8b 8d e8 fa ff
	ff		 mov	 ecx, DWORD PTR _rkChrMgr$1$[ebp]
  0014e	53		 push	 ebx
  0014f	0f b6 f0	 movzx	 esi, al
  00152	e8 00 00 00 00	 call	 ?IsRegisteredVID@CPythonCharacterManager@@QAE_NK@Z ; CPythonCharacterManager::IsRegisteredVID
  00157	8d 8d f8 fe ff
	ff		 lea	 ecx, DWORD PTR _szDetail$[ebp]
  0015d	0f b6 c0	 movzx	 eax, al
  00160	51		 push	 ecx
  00161	57		 push	 edi
  00162	56		 push	 esi
  00163	50		 push	 eax
  00164	53		 push	 ebx
  00165	8d 85 f8 fa ff
	ff		 lea	 eax, DWORD PTR _szInfo$[ebp]
  0016b	68 00 00 00 00	 push	 OFFSET ??_C@_0DD@OOILPMAD@VID?5?$CFd?5?$CIisRegistered?$DN?$CFd?0?5isAliv@
  00170	50		 push	 eax
  00171	e8 00 00 00 00	 call	 _sprintf
  00176	83 c4 1c	 add	 esp, 28			; 0000001cH

; 151  : 		nVID,
; 152  : 		rkChrMgr.IsRegisteredVID(nVID),
; 153  : 		rkChrMgr.IsAliveVID(nVID),
; 154  : 		rkChrMgr.IsDeadVID(nVID),
; 155  : 		szDetail
; 156  : 	);
; 157  : 	
; 158  : 	return Py_BuildValue("s", szInfo);

  00179	8d 85 f8 fa ff
	ff		 lea	 eax, DWORD PTR _szInfo$[ebp]
  0017f	50		 push	 eax
  00180	68 00 00 00 00	 push	 OFFSET ??_C@_01LKDEMHDF@s@
  00185	ff 15 00 00 00
	00		 call	 DWORD PTR __imp__Py_BuildValue

; 159  : }

  0018b	8b 4d fc	 mov	 ecx, DWORD PTR __$ArrayPad$[ebp]
  0018e	83 c4 08	 add	 esp, 8
  00191	33 cd		 xor	 ecx, ebp
  00193	5f		 pop	 edi
  00194	5e		 pop	 esi
  00195	5b		 pop	 ebx
  00196	e8 00 00 00 00	 call	 @__security_check_cookie@4
  0019b	8b e5		 mov	 esp, ebp
  0019d	5d		 pop	 ebp
  0019e	c3		 ret	 0
?chrmgrGetVIDInfo@@YAPAU_object@@PAU1@0@Z ENDP		; chrmgrGetVIDInfo
_TEXT	ENDS
; Function compile flags: /Ogtp
; File C:\Anka2Project\Anka2Project\Source\Binary\source\UserInterface\PythonCharacterManagerModule.cpp
;	COMDAT ?SCRIPT_SetAffect@CPythonCharacterManager@@QAEXKKH@Z
_TEXT	SEGMENT
_dwVID$ = 8						; size = 4
_eState$ = 12						; size = 4
_isVisible$ = 16					; size = 4
?SCRIPT_SetAffect@CPythonCharacterManager@@QAEXKKH@Z PROC ; CPythonCharacterManager::SCRIPT_SetAffect, COMDAT
; _this$ = ecx

; 659  : {

  00000	55		 push	 ebp
  00001	8b ec		 mov	 ebp, esp
  00003	51		 push	 ecx

; 660  : 	CInstanceBase * pkInstSel = (dwVID == 0xffffffff) ? GetSelectedInstancePtr() : GetInstancePtr(dwVID);

  00004	8b 55 08	 mov	 edx, DWORD PTR _dwVID$[ebp]
  00007	83 fa ff	 cmp	 edx, -1
  0000a	75 07		 jne	 SHORT $LN4@SCRIPT_Set
  0000c	e8 00 00 00 00	 call	 ?GetSelectedInstancePtr@CPythonCharacterManager@@QAEPAVCInstanceBase@@XZ ; CPythonCharacterManager::GetSelectedInstancePtr
  00011	eb 0a		 jmp	 SHORT $LN6@SCRIPT_Set
$LN4@SCRIPT_Set:
  00013	8b 41 04	 mov	 eax, DWORD PTR [ecx+4]
  00016	83 c1 04	 add	 ecx, 4
  00019	52		 push	 edx
  0001a	ff 50 08	 call	 DWORD PTR [eax+8]
$LN6@SCRIPT_Set:

; 661  : 	if (!pkInstSel)

  0001d	8b c8		 mov	 ecx, eax
  0001f	85 c9		 test	 ecx, ecx
  00021	74 13		 je	 SHORT $LN1@SCRIPT_Set

; 662  : 		return;
; 663  : 
; 664  : 	pkInstSel->SCRIPT_SetAffect(eState, isVisible ? true : false);

  00023	83 7d 10 00	 cmp	 DWORD PTR _isVisible$[ebp], 0
  00027	0f 95 c0	 setne	 al
  0002a	0f b6 c0	 movzx	 eax, al
  0002d	50		 push	 eax
  0002e	ff 75 0c	 push	 DWORD PTR _eState$[ebp]
  00031	e8 00 00 00 00	 call	 ?SCRIPT_SetAffect@CInstanceBase@@QAEXI_N@Z ; CInstanceBase::SCRIPT_SetAffect
$LN1@SCRIPT_Set:

; 665  : }

  00036	59		 pop	 ecx
  00037	5d		 pop	 ebp
  00038	c2 0c 00	 ret	 12			; 0000000cH
?SCRIPT_SetAffect@CPythonCharacterManager@@QAEXKKH@Z ENDP ; CPythonCharacterManager::SCRIPT_SetAffect
_TEXT	ENDS
; Function compile flags: /Ogtp
; File C:\Anka2Project\Anka2Project\Source\Binary\source\UserInterface\PythonCharacterManagerModule.cpp
;	COMDAT ?SetEmoticon@CPythonCharacterManager@@QAEXKK@Z
_TEXT	SEGMENT
_dwVID$ = 8						; size = 4
_eState$ = 12						; size = 4
?SetEmoticon@CPythonCharacterManager@@QAEXKK@Z PROC	; CPythonCharacterManager::SetEmoticon, COMDAT
; _this$ = ecx

; 687  : {

  00000	55		 push	 ebp
  00001	8b ec		 mov	 ebp, esp

; 688  : 	CInstanceBase * pkInstSel = (dwVID == 0xffffffff) ? GetSelectedInstancePtr() : GetInstancePtr(dwVID);

  00003	8b 55 08	 mov	 edx, DWORD PTR _dwVID$[ebp]
  00006	83 fa ff	 cmp	 edx, -1
  00009	75 07		 jne	 SHORT $LN4@SetEmotico
  0000b	e8 00 00 00 00	 call	 ?GetSelectedInstancePtr@CPythonCharacterManager@@QAEPAVCInstanceBase@@XZ ; CPythonCharacterManager::GetSelectedInstancePtr
  00010	eb 0a		 jmp	 SHORT $LN5@SetEmotico
$LN4@SetEmotico:
  00012	8b 41 04	 mov	 eax, DWORD PTR [ecx+4]
  00015	83 c1 04	 add	 ecx, 4
  00018	52		 push	 edx
  00019	ff 50 08	 call	 DWORD PTR [eax+8]
$LN5@SetEmotico:

; 689  : 	if (!pkInstSel)

  0001c	85 c0		 test	 eax, eax
  0001e	74 0a		 je	 SHORT $LN1@SetEmotico

; 690  : 		return;
; 691  : 	
; 692  : 	pkInstSel->SetEmoticon(eState);

  00020	ff 75 0c	 push	 DWORD PTR _eState$[ebp]
  00023	8b c8		 mov	 ecx, eax
  00025	e8 00 00 00 00	 call	 ?SetEmoticon@CInstanceBase@@QAEXI@Z ; CInstanceBase::SetEmoticon
$LN1@SetEmotico:

; 693  : }

  0002a	5d		 pop	 ebp
  0002b	c2 08 00	 ret	 8
?SetEmoticon@CPythonCharacterManager@@QAEXKK@Z ENDP	; CPythonCharacterManager::SetEmoticon
_TEXT	ENDS
; Function compile flags: /Ogtp
; File C:\Anka2Project\Anka2Project\Source\Binary\source\UserInterface\PythonCharacterManagerModule.cpp
;	COMDAT ?IsPossibleEmoticon@CPythonCharacterManager@@QAE_NK@Z
_TEXT	SEGMENT
_dwVID$ = 8						; size = 4
?IsPossibleEmoticon@CPythonCharacterManager@@QAE_NK@Z PROC ; CPythonCharacterManager::IsPossibleEmoticon, COMDAT
; _this$ = ecx

; 696  : {

  00000	55		 push	 ebp
  00001	8b ec		 mov	 ebp, esp

; 697  : 	CInstanceBase * pkInstSel = (dwVID == 0xffffffff) ? GetSelectedInstancePtr() : GetInstancePtr(dwVID);

  00003	8b 55 08	 mov	 edx, DWORD PTR _dwVID$[ebp]
  00006	83 fa ff	 cmp	 edx, -1
  00009	75 07		 jne	 SHORT $LN4@IsPossible
  0000b	e8 00 00 00 00	 call	 ?GetSelectedInstancePtr@CPythonCharacterManager@@QAEPAVCInstanceBase@@XZ ; CPythonCharacterManager::GetSelectedInstancePtr
  00010	eb 0a		 jmp	 SHORT $LN5@IsPossible
$LN4@IsPossible:
  00012	8b 41 04	 mov	 eax, DWORD PTR [ecx+4]
  00015	83 c1 04	 add	 ecx, 4
  00018	52		 push	 edx
  00019	ff 50 08	 call	 DWORD PTR [eax+8]
$LN5@IsPossible:

; 698  : 	if (!pkInstSel)

  0001c	85 c0		 test	 eax, eax
  0001e	75 06		 jne	 SHORT $LN2@IsPossible

; 699  : 		return false;

  00020	32 c0		 xor	 al, al

; 702  : }

  00022	5d		 pop	 ebp
  00023	c2 04 00	 ret	 4
$LN2@IsPossible:

; 700  : 	
; 701  : 	return pkInstSel->IsPossibleEmoticon();

  00026	8b c8		 mov	 ecx, eax
  00028	e8 00 00 00 00	 call	 ?IsPossibleEmoticon@CInstanceBase@@QAE_NXZ ; CInstanceBase::IsPossibleEmoticon

; 702  : }

  0002d	5d		 pop	 ebp
  0002e	c2 04 00	 ret	 4
?IsPossibleEmoticon@CPythonCharacterManager@@QAE_NK@Z ENDP ; CPythonCharacterManager::IsPossibleEmoticon
_TEXT	ENDS
; Function compile flags: /Ogtp
; File C:\Anka2Project\Anka2Project\Source\Binary\source\UserInterface\PythonCharacterManagerModule.cpp
; File C:\Anka2Project\Anka2Project\Source\Binary\source\eterBase\Singleton.h
; File C:\Anka2Project\Anka2Project\Source\Binary\source\UserInterface\PythonCharacterManagerModule.cpp
;	COMDAT ?chrmgrIsPossibleEmoticon@@YAPAU_object@@PAU1@0@Z
_TEXT	SEGMENT
_nVID$ = -4						; size = 4
_poSelf$ = 8						; size = 4
_poArgs$ = 12						; size = 4
?chrmgrIsPossibleEmoticon@@YAPAU_object@@PAU1@0@Z PROC	; chrmgrIsPossibleEmoticon, COMDAT

; 720  : {	

  00000	55		 push	 ebp
  00001	8b ec		 mov	 ebp, esp
  00003	51		 push	 ecx

; 721  : 	int nVID;
; 722  : 	if (!PyTuple_GetInteger(poArgs, 0, &nVID))

  00004	8d 45 fc	 lea	 eax, DWORD PTR _nVID$[ebp]
  00007	50		 push	 eax
  00008	6a 00		 push	 0
  0000a	ff 75 0c	 push	 DWORD PTR _poArgs$[ebp]
  0000d	e8 00 00 00 00	 call	 ?PyTuple_GetInteger@@YA_NPAU_object@@HPAH@Z ; PyTuple_GetInteger
  00012	83 c4 0c	 add	 esp, 12			; 0000000cH
  00015	84 c0		 test	 al, al
  00017	75 09		 jne	 SHORT $LN2@chrmgrIsPo

; 723  : 		return Py_BadArgument();

  00019	e8 00 00 00 00	 call	 ?Py_BadArgument@@YAPAU_object@@XZ ; Py_BadArgument

; 729  : }

  0001e	8b e5		 mov	 esp, ebp
  00020	5d		 pop	 ebp
  00021	c3		 ret	 0
$LN2@chrmgrIsPo:
; File C:\Anka2Project\Anka2Project\Source\Binary\source\eterBase\Singleton.h

; 26   : 		assert(ms_singleton);

  00022	8b 0d 00 00 00
	00		 mov	 ecx, DWORD PTR ?ms_singleton@?$CSingleton@VCPythonCharacterManager@@@@0PAVCPythonCharacterManager@@A ; CSingleton<CPythonCharacterManager>::ms_singleton
  00028	85 c9		 test	 ecx, ecx
  0002a	75 1a		 jne	 SHORT $LN6@chrmgrIsPo
  0002c	6a 1a		 push	 26			; 0000001aH
  0002e	68 00 00 00 00	 push	 OFFSET ??_C@_1IO@CAJLEEOI@?$AAC?$AA?3?$AA?2?$AAA?$AAn?$AAk?$AAa?$AA2?$AAP?$AAr?$AAo?$AAj?$AAe?$AAc?$AAt@
  00033	68 00 00 00 00	 push	 OFFSET ??_C@_1BK@FMEHPMFE@?$AAm?$AAs?$AA_?$AAs?$AAi?$AAn?$AAg?$AAl?$AAe?$AAt?$AAo?$AAn@
  00038	e8 00 00 00 00	 call	 __wassert
  0003d	8b 0d 00 00 00
	00		 mov	 ecx, DWORD PTR ?ms_singleton@?$CSingleton@VCPythonCharacterManager@@@@0PAVCPythonCharacterManager@@A ; CSingleton<CPythonCharacterManager>::ms_singleton
  00043	83 c4 0c	 add	 esp, 12			; 0000000cH
$LN6@chrmgrIsPo:
; File C:\Anka2Project\Anka2Project\Source\Binary\source\UserInterface\PythonCharacterManagerModule.cpp

; 726  : 	int result = rkChrMgr.IsPossibleEmoticon(nVID >= 0 ? nVID : 0xffffffff);

  00046	8b 45 fc	 mov	 eax, DWORD PTR _nVID$[ebp]
  00049	83 ca ff	 or	 edx, -1
  0004c	85 c0		 test	 eax, eax
  0004e	0f 49 d0	 cmovns	 edx, eax
  00051	52		 push	 edx
  00052	e8 00 00 00 00	 call	 ?IsPossibleEmoticon@CPythonCharacterManager@@QAE_NK@Z ; CPythonCharacterManager::IsPossibleEmoticon
  00057	0f b6 c0	 movzx	 eax, al

; 727  : 
; 728  : 	return Py_BuildValue("i", result);

  0005a	50		 push	 eax
  0005b	68 00 00 00 00	 push	 OFFSET ??_C@_01KBJDNOO@i@
  00060	ff 15 00 00 00
	00		 call	 DWORD PTR __imp__Py_BuildValue
  00066	83 c4 08	 add	 esp, 8

; 729  : }

  00069	8b e5		 mov	 esp, ebp
  0006b	5d		 pop	 ebp
  0006c	c3		 ret	 0
?chrmgrIsPossibleEmoticon@@YAPAU_object@@PAU1@0@Z ENDP	; chrmgrIsPossibleEmoticon
_TEXT	ENDS
; Function compile flags: /Ogtp
; File C:\Anka2Project\Anka2Project\Source\Binary\source\UserInterface\PythonCharacterManagerModule.cpp
; File C:\Program Files\Microsoft Visual Studio\2022\Community\VC\Tools\MSVC\14.44.35207\include\xstring
; File C:\Anka2Project\Anka2Project\Source\Binary\source\UserInterface\PythonCharacterManagerModule.cpp
; File C:\Program Files\Microsoft Visual Studio\2022\Community\VC\Tools\MSVC\14.44.35207\include\xstring
; File C:\Anka2Project\Anka2Project\Source\Binary\source\UserInterface\PythonCharacterManagerModule.cpp
; File C:\Program Files\Microsoft Visual Studio\2022\Community\VC\Tools\MSVC\14.44.35207\include\xstring
; File C:\Anka2Project\Anka2Project\Source\Binary\source\UserInterface\PythonCharacterManagerModule.cpp
;	COMDAT ?initchrmgr@@YAXXZ
_TEXT	SEGMENT
$T1 = -28						; size = 24
__$ArrayPad$ = -4					; size = 4
?initchrmgr@@YAXXZ PROC					; initchrmgr, COMDAT

; 746  : {

  00000	55		 push	 ebp
  00001	8b ec		 mov	 ebp, esp
  00003	83 ec 20	 sub	 esp, 32			; 00000020H
  00006	a1 00 00 00 00	 mov	 eax, DWORD PTR ___security_cookie
  0000b	33 c5		 xor	 eax, ebp
  0000d	89 45 fc	 mov	 DWORD PTR __$ArrayPad$[ebp], eax
  00010	56		 push	 esi
  00011	57		 push	 edi

; 800  : 	PyObject *poModule = Py_InitModule(GetModuleName(CHRMGR_MODULE).c_str(), s_methods);

  00012	8d 45 e4	 lea	 eax, DWORD PTR $T1[ebp]
  00015	6a 02		 push	 2
  00017	50		 push	 eax
  00018	e8 00 00 00 00	 call	 ?GetModuleName@@YA?AV?$basic_string@DU?$char_traits@D@std@@V?$allocator@D@2@@std@@H@Z ; GetModuleName
  0001d	83 c4 08	 add	 esp, 8
; File C:\Program Files\Microsoft Visual Studio\2022\Community\VC\Tools\MSVC\14.44.35207\include\xstring

; 453  :         return _Myres > _Small_string_capacity;

  00020	83 78 14 0f	 cmp	 DWORD PTR [eax+20], 15	; 0000000fH

; 445  :         if (_Large_mode_engaged()) {

  00024	76 02		 jbe	 SHORT $LN8@initchrmgr

; 446  :             _Result = _Unfancy(_Bx._Ptr);

  00026	8b 00		 mov	 eax, DWORD PTR [eax]
$LN8@initchrmgr:
; File C:\Anka2Project\Anka2Project\Source\Binary\source\UserInterface\PythonCharacterManagerModule.cpp

; 800  : 	PyObject *poModule = Py_InitModule(GetModuleName(CHRMGR_MODULE).c_str(), s_methods);

  00028	68 f5 03 00 00	 push	 1013			; 000003f5H
  0002d	6a 00		 push	 0
  0002f	6a 00		 push	 0
  00031	68 00 00 00 00	 push	 OFFSET ?s_methods@?1??initchrmgr@@YAXXZ@4PAUPyMethodDef@@A
  00036	50		 push	 eax
  00037	ff 15 00 00 00
	00		 call	 DWORD PTR __imp__Py_InitModule4
  0003d	83 c4 14	 add	 esp, 20			; 00000014H
; File C:\Program Files\Microsoft Visual Studio\2022\Community\VC\Tools\MSVC\14.44.35207\include\xstring

; 1383 :         _Tidy_deallocate();

  00040	8d 4d e4	 lea	 ecx, DWORD PTR $T1[ebp]
; File C:\Anka2Project\Anka2Project\Source\Binary\source\UserInterface\PythonCharacterManagerModule.cpp

; 800  : 	PyObject *poModule = Py_InitModule(GetModuleName(CHRMGR_MODULE).c_str(), s_methods);

  00043	8b f8		 mov	 edi, eax
; File C:\Program Files\Microsoft Visual Studio\2022\Community\VC\Tools\MSVC\14.44.35207\include\xstring

; 1383 :         _Tidy_deallocate();

  00045	e8 00 00 00 00	 call	 ?_Tidy_deallocate@?$basic_string@DU?$char_traits@D@std@@V?$allocator@D@2@@std@@AAEXXZ ; std::basic_string<char,std::char_traits<char>,std::allocator<char> >::_Tidy_deallocate
; File C:\Anka2Project\Anka2Project\Source\Binary\source\UserInterface\PythonCharacterManagerModule.cpp

; 805  : 	PyModule_AddIntConstant(poModule, "NAMECOLOR_MOB", CInstanceBase::NAMECOLOR_NORMAL_MOB);

  0004a	8b 35 00 00 00
	00		 mov	 esi, DWORD PTR __imp__PyModule_AddIntConstant
  00050	6a 07		 push	 7
  00052	68 00 00 00 00	 push	 OFFSET ??_C@_0O@FOILFLOP@NAMECOLOR_MOB@
  00057	57		 push	 edi
  00058	ff d6		 call	 esi
  0005a	83 c4 0c	 add	 esp, 12			; 0000000cH

; 806  : 	PyModule_AddIntConstant(poModule, "NAMECOLOR_NPC", CInstanceBase::NAMECOLOR_NORMAL_NPC);

  0005d	6a 08		 push	 8
  0005f	68 00 00 00 00	 push	 OFFSET ??_C@_0O@ECFPCBAN@NAMECOLOR_NPC@
  00064	57		 push	 edi
  00065	ff d6		 call	 esi
  00067	83 c4 0c	 add	 esp, 12			; 0000000cH

; 807  : 	PyModule_AddIntConstant(poModule, "NAMECOLOR_PC", CInstanceBase::NAMECOLOR_NORMAL_PC);

  0006a	6a 09		 push	 9
  0006c	68 00 00 00 00	 push	 OFFSET ??_C@_0N@HFDLLOOL@NAMECOLOR_PC@
  00071	57		 push	 edi
  00072	ff d6		 call	 esi
  00074	83 c4 0c	 add	 esp, 12			; 0000000cH

; 808  : 	PyModule_AddIntConstant(poModule, "NAMECOLOR_EMPIRE_MOB", CInstanceBase::NAMECOLOR_EMPIRE_MOB);

  00077	6a 0e		 push	 14			; 0000000eH
  00079	68 00 00 00 00	 push	 OFFSET ??_C@_0BF@PFPMAJFA@NAMECOLOR_EMPIRE_MOB@
  0007e	57		 push	 edi
  0007f	ff d6		 call	 esi
  00081	83 c4 0c	 add	 esp, 12			; 0000000cH

; 809  : 	PyModule_AddIntConstant(poModule, "NAMECOLOR_EMPIRE_NPC", CInstanceBase::NAMECOLOR_EMPIRE_NPC);

  00084	6a 0f		 push	 15			; 0000000fH
  00086	68 00 00 00 00	 push	 OFFSET ??_C@_0BF@OJCIHDLC@NAMECOLOR_EMPIRE_NPC@
  0008b	57		 push	 edi
  0008c	ff d6		 call	 esi
  0008e	83 c4 0c	 add	 esp, 12			; 0000000cH

; 810  : 	PyModule_AddIntConstant(poModule, "NAMECOLOR_EMPIRE_PC", CInstanceBase::NAMECOLOR_EMPIRE_PC);

  00091	6a 10		 push	 16			; 00000010H
  00093	68 00 00 00 00	 push	 OFFSET ??_C@_0BE@NDFEFIME@NAMECOLOR_EMPIRE_PC@
  00098	57		 push	 edi
  00099	ff d6		 call	 esi
  0009b	83 c4 0c	 add	 esp, 12			; 0000000cH

; 811  : 	PyModule_AddIntConstant(poModule, "NAMECOLOR_FUNC", CInstanceBase::NAMECOLOR_FUNC);

  0009e	6a 15		 push	 21			; 00000015H
  000a0	68 00 00 00 00	 push	 OFFSET ??_C@_0P@KKNBBHPK@NAMECOLOR_FUNC@
  000a5	57		 push	 edi
  000a6	ff d6		 call	 esi
  000a8	83 c4 0c	 add	 esp, 12			; 0000000cH

; 812  : 	PyModule_AddIntConstant(poModule, "NAMECOLOR_PK", CInstanceBase::NAMECOLOR_PK);

  000ab	6a 16		 push	 22			; 00000016H
  000ad	68 00 00 00 00	 push	 OFFSET ??_C@_0N@LNOCDEOD@NAMECOLOR_PK@
  000b2	57		 push	 edi
  000b3	ff d6		 call	 esi
  000b5	83 c4 0c	 add	 esp, 12			; 0000000cH

; 813  : 	PyModule_AddIntConstant(poModule, "NAMECOLOR_PVP", CInstanceBase::NAMECOLOR_PVP);

  000b8	6a 17		 push	 23			; 00000017H
  000ba	68 00 00 00 00	 push	 OFFSET ??_C@_0O@JHPLDMIB@NAMECOLOR_PVP@
  000bf	57		 push	 edi
  000c0	ff d6		 call	 esi
  000c2	83 c4 0c	 add	 esp, 12			; 0000000cH

; 814  : 	PyModule_AddIntConstant(poModule, "NAMECOLOR_PARTY", CInstanceBase::NAMECOLOR_PARTY);

  000c5	6a 18		 push	 24			; 00000018H
  000c7	68 00 00 00 00	 push	 OFFSET ??_C@_0BA@HFPCKBBO@NAMECOLOR_PARTY@
  000cc	57		 push	 edi
  000cd	ff d6		 call	 esi
  000cf	83 c4 0c	 add	 esp, 12			; 0000000cH

; 815  : 	PyModule_AddIntConstant(poModule, "NAMECOLOR_WARP", CInstanceBase::NAMECOLOR_WARP);

  000d2	6a 19		 push	 25			; 00000019H
  000d4	68 00 00 00 00	 push	 OFFSET ??_C@_0P@FMPJHCIG@NAMECOLOR_WARP@
  000d9	57		 push	 edi
  000da	ff d6		 call	 esi
  000dc	83 c4 0c	 add	 esp, 12			; 0000000cH

; 816  : 	PyModule_AddIntConstant(poModule, "NAMECOLOR_WAYPOINT", CInstanceBase::NAMECOLOR_WAYPOINT);

  000df	6a 1a		 push	 26			; 0000001aH
  000e1	68 00 00 00 00	 push	 OFFSET ??_C@_0BD@KCIPKGLN@NAMECOLOR_WAYPOINT@
  000e6	57		 push	 edi
  000e7	ff d6		 call	 esi
  000e9	83 c4 0c	 add	 esp, 12			; 0000000cH

; 817  : #ifdef ENABLE_METIN_STONES_MINIMAP
; 818  : 	PyModule_AddIntConstant(poModule, "NAMECOLOR_METIN", CInstanceBase::NAMECOLOR_METIN);

  000ec	6a 1b		 push	 27			; 0000001bH
  000ee	68 00 00 00 00	 push	 OFFSET ??_C@_0BA@LCMPNPC@NAMECOLOR_METIN@
  000f3	57		 push	 edi
  000f4	ff d6		 call	 esi
  000f6	83 c4 0c	 add	 esp, 12			; 0000000cH

; 819  : #endif
; 820  : #ifdef ENABLE_RENEWAL_OFFLINESHOP
; 821  : 	PyModule_AddIntConstant(poModule, "NAMECOLOR_SHOP", CInstanceBase::NAMECOLOR_SHOP);

  000f9	6a 1c		 push	 28			; 0000001cH
  000fb	68 00 00 00 00	 push	 OFFSET ??_C@_0P@MAIPKLOP@NAMECOLOR_SHOP@
  00100	57		 push	 edi
  00101	ff d6		 call	 esi
  00103	83 c4 0c	 add	 esp, 12			; 0000000cH

; 822  : #endif
; 823  : 	PyModule_AddIntConstant(poModule, "NAMECOLOR_EXTRA", CInstanceBase::NAMECOLOR_EXTRA);

  00106	6a 1f		 push	 31			; 0000001fH
  00108	68 00 00 00 00	 push	 OFFSET ??_C@_0BA@OIOEHMPC@NAMECOLOR_EXTRA@
  0010d	57		 push	 edi
  0010e	ff d6		 call	 esi
  00110	83 c4 0c	 add	 esp, 12			; 0000000cH

; 824  : 
; 825  : 	PyModule_AddIntConstant(poModule, "EFFECT_SPAWN_DISAPPEAR", CInstanceBase::EFFECT_SPAWN_DISAPPEAR);

  00113	6a 0a		 push	 10			; 0000000aH
  00115	68 00 00 00 00	 push	 OFFSET ??_C@_0BH@CICELGM@EFFECT_SPAWN_DISAPPEAR@
  0011a	57		 push	 edi
  0011b	ff d6		 call	 esi
  0011d	83 c4 0c	 add	 esp, 12			; 0000000cH

; 826  : 	PyModule_AddIntConstant(poModule, "EFFECT_SPAWN_APPEAR", CInstanceBase::EFFECT_SPAWN_APPEAR);

  00120	6a 09		 push	 9
  00122	68 00 00 00 00	 push	 OFFSET ??_C@_0BE@IMMEKAGC@EFFECT_SPAWN_APPEAR@
  00127	57		 push	 edi
  00128	ff d6		 call	 esi
  0012a	83 c4 0c	 add	 esp, 12			; 0000000cH

; 827  : 	PyModule_AddIntConstant(poModule, "EFFECT_DUST", CInstanceBase::EFFECT_DUST);

  0012d	6a 00		 push	 0
  0012f	68 00 00 00 00	 push	 OFFSET ??_C@_0M@HJGLKAFL@EFFECT_DUST@
  00134	57		 push	 edi
  00135	ff d6		 call	 esi
  00137	83 c4 0c	 add	 esp, 12			; 0000000cH

; 828  : 	PyModule_AddIntConstant(poModule, "EFFECT_HORSE_DUST", CInstanceBase::EFFECT_HORSE_DUST);

  0013a	68 e4 00 00 00	 push	 228			; 000000e4H
  0013f	68 00 00 00 00	 push	 OFFSET ??_C@_0BC@IMCHDDJP@EFFECT_HORSE_DUST@
  00144	57		 push	 edi
  00145	ff d6		 call	 esi
  00147	83 c4 0c	 add	 esp, 12			; 0000000cH

; 829  : 	PyModule_AddIntConstant(poModule, "EFFECT_STUN", CInstanceBase::EFFECT_STUN);

  0014a	6a 01		 push	 1
  0014c	68 00 00 00 00	 push	 OFFSET ??_C@_0M@KHLHAKMF@EFFECT_STUN@
  00151	57		 push	 edi
  00152	ff d6		 call	 esi
  00154	83 c4 0c	 add	 esp, 12			; 0000000cH

; 830  : 	PyModule_AddIntConstant(poModule, "EFFECT_HIT", CInstanceBase::EFFECT_HIT);

  00157	6a 02		 push	 2
  00159	68 00 00 00 00	 push	 OFFSET ??_C@_0L@MLLFBJIP@EFFECT_HIT@
  0015e	57		 push	 edi
  0015f	ff d6		 call	 esi
  00161	83 c4 0c	 add	 esp, 12			; 0000000cH

; 831  : 	PyModule_AddIntConstant(poModule, "EFFECT_FLAME_ATTACK", CInstanceBase::EFFECT_FLAME_ATTACK);

  00164	6a 03		 push	 3
  00166	68 00 00 00 00	 push	 OFFSET ??_C@_0BE@OHNAJENN@EFFECT_FLAME_ATTACK@
  0016b	57		 push	 edi
  0016c	ff d6		 call	 esi
  0016e	83 c4 0c	 add	 esp, 12			; 0000000cH

; 832  : 	PyModule_AddIntConstant(poModule, "EFFECT_FLAME_HIT", CInstanceBase::EFFECT_FLAME_HIT);

  00171	6a 04		 push	 4
  00173	68 00 00 00 00	 push	 OFFSET ??_C@_0BB@GKHDFHPF@EFFECT_FLAME_HIT@
  00178	57		 push	 edi
  00179	ff d6		 call	 esi
  0017b	83 c4 0c	 add	 esp, 12			; 0000000cH

; 833  : 	PyModule_AddIntConstant(poModule, "EFFECT_FLAME_ATTACH", CInstanceBase::EFFECT_FLAME_ATTACH);

  0017e	6a 05		 push	 5
  00180	68 00 00 00 00	 push	 OFFSET ??_C@_0BE@MMPNMHBO@EFFECT_FLAME_ATTACH@
  00185	57		 push	 edi
  00186	ff d6		 call	 esi
  00188	83 c4 0c	 add	 esp, 12			; 0000000cH

; 834  : 	PyModule_AddIntConstant(poModule, "EFFECT_ELECTRIC_ATTACK", CInstanceBase::EFFECT_ELECTRIC_ATTACK);

  0018b	6a 06		 push	 6
  0018d	68 00 00 00 00	 push	 OFFSET ??_C@_0BH@LIICDLOG@EFFECT_ELECTRIC_ATTACK@
  00192	57		 push	 edi
  00193	ff d6		 call	 esi
  00195	83 c4 0c	 add	 esp, 12			; 0000000cH

; 835  : 	PyModule_AddIntConstant(poModule, "EFFECT_ELECTRIC_HIT", CInstanceBase::EFFECT_ELECTRIC_HIT);

  00198	6a 07		 push	 7
  0019a	68 00 00 00 00	 push	 OFFSET ??_C@_0BE@DDJNHBFG@EFFECT_ELECTRIC_HIT@
  0019f	57		 push	 edi
  001a0	ff d6		 call	 esi
  001a2	83 c4 0c	 add	 esp, 12			; 0000000cH

; 836  : 	PyModule_AddIntConstant(poModule, "EFFECT_ELECTRIC_ATTACH", CInstanceBase::EFFECT_ELECTRIC_ATTACH);

  001a5	6a 08		 push	 8
  001a7	68 00 00 00 00	 push	 OFFSET ??_C@_0BH@JDKPGICF@EFFECT_ELECTRIC_ATTACH@
  001ac	57		 push	 edi
  001ad	ff d6		 call	 esi
  001af	83 c4 0c	 add	 esp, 12			; 0000000cH

; 837  : 	PyModule_AddIntConstant(poModule, "EFFECT_SELECT", CInstanceBase::EFFECT_SELECT);

  001b2	68 dd 00 00 00	 push	 221			; 000000ddH
  001b7	68 00 00 00 00	 push	 OFFSET ??_C@_0O@IICIGFKH@EFFECT_SELECT@
  001bc	57		 push	 edi
  001bd	ff d6		 call	 esi
  001bf	83 c4 0c	 add	 esp, 12			; 0000000cH

; 838  : 	PyModule_AddIntConstant(poModule, "EFFECT_TARGET", CInstanceBase::EFFECT_TARGET);

  001c2	68 de 00 00 00	 push	 222			; 000000deH
  001c7	68 00 00 00 00	 push	 OFFSET ??_C@_0O@KHEKIEOF@EFFECT_TARGET@
  001cc	57		 push	 edi
  001cd	ff d6		 call	 esi
  001cf	83 c4 0c	 add	 esp, 12			; 0000000cH

; 839  : 	PyModule_AddIntConstant(poModule, "EFFECT_CRITICAL", CInstanceBase::EFFECT_CRITICAL);

  001d2	6a 11		 push	 17			; 00000011H
  001d4	68 00 00 00 00	 push	 OFFSET ??_C@_0BA@DGHICDHC@EFFECT_CRITICAL@
  001d9	57		 push	 edi
  001da	ff d6		 call	 esi
  001dc	83 c4 0c	 add	 esp, 12			; 0000000cH

; 840  : 
; 841  : 	PyModule_AddIntConstant(poModule, "EFFECT_DAMAGE_TARGET", CInstanceBase::EFFECT_DAMAGE_TARGET);

  001df	68 15 01 00 00	 push	 277			; 00000115H
  001e4	68 00 00 00 00	 push	 OFFSET ??_C@_0BF@CKINGCNE@EFFECT_DAMAGE_TARGET@
  001e9	57		 push	 edi
  001ea	ff d6		 call	 esi
  001ec	83 c4 0c	 add	 esp, 12			; 0000000cH

; 842  : 	PyModule_AddIntConstant(poModule, "EFFECT_DAMAGE_NOT_TARGET", CInstanceBase::EFFECT_DAMAGE_NOT_TARGET);

  001ef	68 16 01 00 00	 push	 278			; 00000116H
  001f4	68 00 00 00 00	 push	 OFFSET ??_C@_0BJ@EHADMOLO@EFFECT_DAMAGE_NOT_TARGET@
  001f9	57		 push	 edi
  001fa	ff d6		 call	 esi
  001fc	83 c4 0c	 add	 esp, 12			; 0000000cH

; 843  : 	PyModule_AddIntConstant(poModule, "EFFECT_DAMAGE_SELFDAMAGE", CInstanceBase::EFFECT_DAMAGE_SELFDAMAGE);

  001ff	68 17 01 00 00	 push	 279			; 00000117H
  00204	68 00 00 00 00	 push	 OFFSET ??_C@_0BJ@LBPHCJON@EFFECT_DAMAGE_SELFDAMAGE@
  00209	57		 push	 edi
  0020a	ff d6		 call	 esi
  0020c	83 c4 0c	 add	 esp, 12			; 0000000cH

; 844  : 	PyModule_AddIntConstant(poModule, "EFFECT_DAMAGE_SELFDAMAGE2", CInstanceBase::EFFECT_DAMAGE_SELFDAMAGE2);

  0020f	68 18 01 00 00	 push	 280			; 00000118H
  00214	68 00 00 00 00	 push	 OFFSET ??_C@_0BK@DDHKDNJN@EFFECT_DAMAGE_SELFDAMAGE2@
  00219	57		 push	 edi
  0021a	ff d6		 call	 esi
  0021c	83 c4 0c	 add	 esp, 12			; 0000000cH

; 845  : 	PyModule_AddIntConstant(poModule, "EFFECT_DAMAGE_POISON", CInstanceBase::EFFECT_DAMAGE_POISON);

  0021f	68 19 01 00 00	 push	 281			; 00000119H
  00224	68 00 00 00 00	 push	 OFFSET ??_C@_0BF@JBDJDOOB@EFFECT_DAMAGE_POISON@
  00229	57		 push	 edi
  0022a	ff d6		 call	 esi
  0022c	83 c4 0c	 add	 esp, 12			; 0000000cH

; 846  : 	PyModule_AddIntConstant(poModule, "EFFECT_DAMAGE_MISS", CInstanceBase::EFFECT_DAMAGE_MISS);

  0022f	68 1a 01 00 00	 push	 282			; 0000011aH
  00234	68 00 00 00 00	 push	 OFFSET ??_C@_0BD@HAKEDKPM@EFFECT_DAMAGE_MISS@
  00239	57		 push	 edi
  0023a	ff d6		 call	 esi
  0023c	83 c4 0c	 add	 esp, 12			; 0000000cH

; 847  : 	PyModule_AddIntConstant(poModule, "EFFECT_DAMAGE_TARGETMISS", CInstanceBase::EFFECT_DAMAGE_TARGETMISS);

  0023f	68 1b 01 00 00	 push	 283			; 0000011bH
  00244	68 00 00 00 00	 push	 OFFSET ??_C@_0BJ@OOAALGB@EFFECT_DAMAGE_TARGETMISS@
  00249	57		 push	 edi
  0024a	ff d6		 call	 esi
  0024c	83 c4 0c	 add	 esp, 12			; 0000000cH

; 848  : 	PyModule_AddIntConstant(poModule, "EFFECT_DAMAGE_CRITICAL", CInstanceBase::EFFECT_DAMAGE_CRITICAL);

  0024f	68 1c 01 00 00	 push	 284			; 0000011cH
  00254	68 00 00 00 00	 push	 OFFSET ??_C@_0BH@LJEMOOEK@EFFECT_DAMAGE_CRITICAL@
  00259	57		 push	 edi
  0025a	ff d6		 call	 esi
  0025c	83 c4 0c	 add	 esp, 12			; 0000000cH

; 849  : 
; 850  : 	PyModule_AddIntConstant(poModule, "EFFECT_LEVELUP", CInstanceBase::EFFECT_LEVELUP);

  0025f	6a 0b		 push	 11			; 0000000bH
  00261	68 00 00 00 00	 push	 OFFSET ??_C@_0P@KMPGDLGB@EFFECT_LEVELUP@
  00266	57		 push	 edi
  00267	ff d6		 call	 esi
  00269	83 c4 0c	 add	 esp, 12			; 0000000cH

; 851  : 	PyModule_AddIntConstant(poModule, "EFFECT_SKILLUP", CInstanceBase::EFFECT_SKILLUP);

  0026c	6a 0c		 push	 12			; 0000000cH
  0026e	68 00 00 00 00	 push	 OFFSET ??_C@_0P@KGMCLBIE@EFFECT_SKILLUP@
  00273	57		 push	 edi
  00274	ff d6		 call	 esi
  00276	83 c4 0c	 add	 esp, 12			; 0000000cH

; 852  : 	PyModule_AddIntConstant(poModule, "EFFECT_HPUP_RED", CInstanceBase::EFFECT_HPUP_RED);

  00279	6a 0d		 push	 13			; 0000000dH
  0027b	68 00 00 00 00	 push	 OFFSET ??_C@_0BA@FDCHOHC@EFFECT_HPUP_RED@
  00280	57		 push	 edi
  00281	ff d6		 call	 esi
  00283	83 c4 0c	 add	 esp, 12			; 0000000cH

; 853  : 	PyModule_AddIntConstant(poModule, "EFFECT_SPUP_BLUE", CInstanceBase::EFFECT_SPUP_BLUE);

  00286	6a 0e		 push	 14			; 0000000eH
  00288	68 00 00 00 00	 push	 OFFSET ??_C@_0BB@OMECPCHO@EFFECT_SPUP_BLUE@
  0028d	57		 push	 edi
  0028e	ff d6		 call	 esi
  00290	83 c4 0c	 add	 esp, 12			; 0000000cH

; 854  : 	PyModule_AddIntConstant(poModule, "EFFECT_SPEEDUP_GREEN", CInstanceBase::EFFECT_SPEEDUP_GREEN);

  00293	6a 0f		 push	 15			; 0000000fH
  00295	68 00 00 00 00	 push	 OFFSET ??_C@_0BF@KGBLOADC@EFFECT_SPEEDUP_GREEN@
  0029a	57		 push	 edi
  0029b	ff d6		 call	 esi
  0029d	83 c4 0c	 add	 esp, 12			; 0000000cH

; 855  : 	PyModule_AddIntConstant(poModule, "EFFECT_DXUP_PURPLE", CInstanceBase::EFFECT_DXUP_PURPLE);

  002a0	6a 10		 push	 16			; 00000010H
  002a2	68 00 00 00 00	 push	 OFFSET ??_C@_0BD@NFLNKENB@EFFECT_DXUP_PURPLE@
  002a7	57		 push	 edi
  002a8	ff d6		 call	 esi
  002aa	83 c4 0c	 add	 esp, 12			; 0000000cH

; 856  : 	PyModule_AddIntConstant(poModule, "EFFECT_PENETRATE", CInstanceBase::EFFECT_PENETRATE);

  002ad	6a 12		 push	 18			; 00000012H
  002af	68 00 00 00 00	 push	 OFFSET ??_C@_0BB@MJKAFPM@EFFECT_PENETRATE@
  002b4	57		 push	 edi
  002b5	ff d6		 call	 esi
  002b7	83 c4 0c	 add	 esp, 12			; 0000000cH

; 857  : 	PyModule_AddIntConstant(poModule, "EFFECT_BLOCK", CInstanceBase::EFFECT_BLOCK);

  002ba	6a 13		 push	 19			; 00000013H
  002bc	68 00 00 00 00	 push	 OFFSET ??_C@_0N@FHECDOCO@EFFECT_BLOCK@
  002c1	57		 push	 edi
  002c2	ff d6		 call	 esi
  002c4	83 c4 0c	 add	 esp, 12			; 0000000cH

; 858  : 	PyModule_AddIntConstant(poModule, "EFFECT_DODGE", CInstanceBase::EFFECT_DODGE);

  002c7	6a 14		 push	 20			; 00000014H
  002c9	68 00 00 00 00	 push	 OFFSET ??_C@_0N@IIDAKFLA@EFFECT_DODGE@
  002ce	57		 push	 edi
  002cf	ff d6		 call	 esi
  002d1	83 c4 0c	 add	 esp, 12			; 0000000cH

; 859  : 	PyModule_AddIntConstant(poModule, "EFFECT_FIRECRACKER", CInstanceBase::EFFECT_FIRECRACKER);

  002d4	6a 15		 push	 21			; 00000015H
  002d6	68 00 00 00 00	 push	 OFFSET ??_C@_0BD@KGHDJJHH@EFFECT_FIRECRACKER@
  002db	57		 push	 edi
  002dc	ff d6		 call	 esi
  002de	83 c4 0c	 add	 esp, 12			; 0000000cH

; 860  : 	PyModule_AddIntConstant(poModule, "EFFECT_SPIN_TOP", CInstanceBase::EFFECT_SPIN_TOP);

  002e1	6a 16		 push	 22			; 00000016H
  002e3	68 00 00 00 00	 push	 OFFSET ??_C@_0BA@LEFHDKNA@EFFECT_SPIN_TOP@
  002e8	57		 push	 edi
  002e9	ff d6		 call	 esi
  002eb	83 c4 0c	 add	 esp, 12			; 0000000cH

; 861  : 
; 862  : 	PyModule_AddIntConstant(poModule, "EFFECT_WEAPON", CInstanceBase::EFFECT_WEAPON);

  002ee	6a 17		 push	 23			; 00000017H
  002f0	68 00 00 00 00	 push	 OFFSET ??_C@_0O@FKAHCBBH@EFFECT_WEAPON@
  002f5	57		 push	 edi
  002f6	ff d6		 call	 esi
  002f8	83 c4 0c	 add	 esp, 12			; 0000000cH

; 863  : 
; 864  : 	PyModule_AddIntConstant(poModule, "EFFECT_AFFECT", CInstanceBase::EFFECT_AFFECT);

  002fb	6a 1b		 push	 27			; 0000001bH
  002fd	68 00 00 00 00	 push	 OFFSET ??_C@_0O@LEENICEP@EFFECT_AFFECT@
  00302	57		 push	 edi
  00303	ff d6		 call	 esi
  00305	83 c4 0c	 add	 esp, 12			; 0000000cH

; 865  : 	PyModule_AddIntConstant(poModule, "EFFECT_EMOTICON", CInstanceBase::EFFECT_EMOTICON);

  00308	6a 5c		 push	 92			; 0000005cH
  0030a	68 00 00 00 00	 push	 OFFSET ??_C@_0BA@LLIBADMN@EFFECT_EMOTICON@
  0030f	57		 push	 edi
  00310	ff d6		 call	 esi
  00312	83 c4 0c	 add	 esp, 12			; 0000000cH

; 866  : 	PyModule_AddIntConstant(poModule, "EFFECT_EMPIRE", CInstanceBase::EFFECT_EMPIRE);

  00315	68 df 00 00 00	 push	 223			; 000000dfH
  0031a	68 00 00 00 00	 push	 OFFSET ??_C@_0O@MBIOGBFC@EFFECT_EMPIRE@
  0031f	57		 push	 edi
  00320	ff d6		 call	 esi
  00322	83 c4 0c	 add	 esp, 12			; 0000000cH

; 867  : 
; 868  : 	PyModule_AddIntConstant(poModule, "EFFECT_REFINED", CInstanceBase::EFFECT_REFINED);

  00325	68 e5 00 00 00	 push	 229			; 000000e5H
  0032a	68 00 00 00 00	 push	 OFFSET ??_C@_0P@JLGAELEM@EFFECT_REFINED@
  0032f	57		 push	 edi
  00330	ff d6		 call	 esi
  00332	83 c4 0c	 add	 esp, 12			; 0000000cH

; 869  : 
; 870  : 	PyModule_AddIntConstant(poModule, "EFFECT_SUCCESS", CInstanceBase::EFFECT_SUCCESS) ;

  00335	68 1d 01 00 00	 push	 285			; 0000011dH
  0033a	68 00 00 00 00	 push	 OFFSET ??_C@_0P@OAEAICFL@EFFECT_SUCCESS@
  0033f	57		 push	 edi
  00340	ff d6		 call	 esi
  00342	83 c4 0c	 add	 esp, 12			; 0000000cH

; 871  : 	PyModule_AddIntConstant(poModule, "EFFECT_FAIL", CInstanceBase::EFFECT_FAIL) ;

  00345	68 1e 01 00 00	 push	 286			; 0000011eH
  0034a	68 00 00 00 00	 push	 OFFSET ??_C@_0M@EPHKINAM@EFFECT_FAIL@
  0034f	57		 push	 edi
  00350	ff d6		 call	 esi
  00352	83 c4 0c	 add	 esp, 12			; 0000000cH

; 872  : 	PyModule_AddIntConstant(poModule, "EFFECT_FR_SUCCESS", CInstanceBase::EFFECT_FR_SUCCESS) ;

  00355	68 1f 01 00 00	 push	 287			; 0000011fH
  0035a	68 00 00 00 00	 push	 OFFSET ??_C@_0BC@EDPMLGPA@EFFECT_FR_SUCCESS@
  0035f	57		 push	 edi
  00360	ff d6		 call	 esi
  00362	83 c4 0c	 add	 esp, 12			; 0000000cH

; 873  : 	PyModule_AddIntConstant(poModule, "EFFECT_PERCENT_DAMAGE1", CInstanceBase::EFFECT_PERCENT_DAMAGE1);	

  00365	68 20 01 00 00	 push	 288			; 00000120H
  0036a	68 00 00 00 00	 push	 OFFSET ??_C@_0BH@KDDKMBMB@EFFECT_PERCENT_DAMAGE1@
  0036f	57		 push	 edi
  00370	ff d6		 call	 esi
  00372	83 c4 0c	 add	 esp, 12			; 0000000cH

; 874  : 	PyModule_AddIntConstant(poModule, "EFFECT_PERCENT_DAMAGE2", CInstanceBase::EFFECT_PERCENT_DAMAGE2);	

  00375	68 21 01 00 00	 push	 289			; 00000121H
  0037a	68 00 00 00 00	 push	 OFFSET ??_C@_0BH@IIBHJCAC@EFFECT_PERCENT_DAMAGE2@
  0037f	57		 push	 edi
  00380	ff d6		 call	 esi
  00382	83 c4 0c	 add	 esp, 12			; 0000000cH

; 875  : 	PyModule_AddIntConstant(poModule, "EFFECT_PERCENT_DAMAGE3", CInstanceBase::EFFECT_PERCENT_DAMAGE3);

  00385	68 22 01 00 00	 push	 290			; 00000122H
  0038a	68 00 00 00 00	 push	 OFFSET ??_C@_0BH@JBAMKDED@EFFECT_PERCENT_DAMAGE3@
  0038f	57		 push	 edi
  00390	ff d6		 call	 esi
  00392	83 c4 0c	 add	 esp, 12			; 0000000cH

; 876  : 
; 877  : 	PyModule_AddIntConstant(poModule, "EFFECT_AUTO_HPUP", CInstanceBase::EFFECT_AUTO_HPUP);

  00395	68 23 01 00 00	 push	 291			; 00000123H
  0039a	68 00 00 00 00	 push	 OFFSET ??_C@_0BB@LPHIBMMP@EFFECT_AUTO_HPUP@
  0039f	57		 push	 edi
  003a0	ff d6		 call	 esi
  003a2	83 c4 0c	 add	 esp, 12			; 0000000cH

; 878  : 	PyModule_AddIntConstant(poModule, "EFFECT_AUTO_SPUP", CInstanceBase::EFFECT_AUTO_SPUP);

  003a5	68 24 01 00 00	 push	 292			; 00000124H
  003aa	68 00 00 00 00	 push	 OFFSET ??_C@_0BB@KIEILKFM@EFFECT_AUTO_SPUP@
  003af	57		 push	 edi
  003b0	ff d6		 call	 esi
  003b2	83 c4 0c	 add	 esp, 12			; 0000000cH

; 879  : 
; 880  : 	PyModule_AddIntConstant(poModule, "EFFECT_RAMADAN_RING_EQUIP", CInstanceBase::EFFECT_RAMADAN_RING_EQUIP);

  003b5	68 25 01 00 00	 push	 293			; 00000125H
  003ba	68 00 00 00 00	 push	 OFFSET ??_C@_0BK@JCIOPIOG@EFFECT_RAMADAN_RING_EQUIP@
  003bf	57		 push	 edi
  003c0	ff d6		 call	 esi
  003c2	83 c4 0c	 add	 esp, 12			; 0000000cH

; 881  : 	PyModule_AddIntConstant(poModule, "EFFECT_HALLOWEEN_CANDY_EQUIP", CInstanceBase::EFFECT_HALLOWEEN_CANDY_EQUIP);

  003c5	68 26 01 00 00	 push	 294			; 00000126H
  003ca	68 00 00 00 00	 push	 OFFSET ??_C@_0BN@NGBKKLJA@EFFECT_HALLOWEEN_CANDY_EQUIP@
  003cf	57		 push	 edi
  003d0	ff d6		 call	 esi
  003d2	83 c4 0c	 add	 esp, 12			; 0000000cH

; 882  : 	PyModule_AddIntConstant(poModule, "EFFECT_HAPPINESS_RING_EQUIP", CInstanceBase::EFFECT_HAPPINESS_RING_EQUIP);

  003d5	68 27 01 00 00	 push	 295			; 00000127H
  003da	68 00 00 00 00	 push	 OFFSET ??_C@_0BM@DAACAMNP@EFFECT_HAPPINESS_RING_EQUIP@
  003df	57		 push	 edi
  003e0	ff d6		 call	 esi
  003e2	83 c4 0c	 add	 esp, 12			; 0000000cH

; 883  : 	PyModule_AddIntConstant(poModule, "EFFECT_LOVE_PENDANT_EQUIP", CInstanceBase::EFFECT_LOVE_PENDANT_EQUIP);

  003e5	68 28 01 00 00	 push	 296			; 00000128H
  003ea	68 00 00 00 00	 push	 OFFSET ??_C@_0BK@MMIJIEDM@EFFECT_LOVE_PENDANT_EQUIP@
  003ef	57		 push	 edi
  003f0	ff d6		 call	 esi
  003f2	83 c4 0c	 add	 esp, 12			; 0000000cH

; 884  : 
; 885  : #ifdef ENABLE_ACCE_COSTUME_SYSTEM
; 886  : 	PyModule_AddIntConstant(poModule, "EFFECT_ACCE_SUCCEDED", CInstanceBase::EFFECT_ACCE_SUCCEDED);

  003f5	68 2a 01 00 00	 push	 298			; 0000012aH
  003fa	68 00 00 00 00	 push	 OFFSET ??_C@_0BF@IIPPAKCH@EFFECT_ACCE_SUCCEDED@
  003ff	57		 push	 edi
  00400	ff d6		 call	 esi
  00402	83 c4 0c	 add	 esp, 12			; 0000000cH

; 887  : 	PyModule_AddIntConstant(poModule, "EFFECT_ACCE_EQUIP", CInstanceBase::EFFECT_ACCE_EQUIP);

  00405	68 2b 01 00 00	 push	 299			; 0000012bH
  0040a	68 00 00 00 00	 push	 OFFSET ??_C@_0BC@FAAHJKCH@EFFECT_ACCE_EQUIP@
  0040f	57		 push	 edi
  00410	ff d6		 call	 esi
  00412	83 c4 0c	 add	 esp, 12			; 0000000cH

; 888  : 	PyModule_AddIntConstant(poModule, "EFFECT_ACCE", CInstanceBase::EFFECT_ACCE);

  00415	6a 15		 push	 21			; 00000015H
  00417	68 00 00 00 00	 push	 OFFSET ??_C@_0M@ILAGKHAI@EFFECT_ACCE@
  0041c	57		 push	 edi
  0041d	ff d6		 call	 esi
  0041f	83 c4 0c	 add	 esp, 12			; 0000000cH

; 889  : #endif
; 890  : 
; 891  : #ifdef ENABLE_BOSS_EFFECT_OVER_HEAD
; 892  : 	PyModule_AddIntConstant(poModule, "EFFECT_BOSS", CInstanceBase::EFFECT_BOSS);

  00422	68 2c 01 00 00	 push	 300			; 0000012cH
  00427	68 00 00 00 00	 push	 OFFSET ??_C@_0M@IGMOHEMH@EFFECT_BOSS@
  0042c	57		 push	 edi
  0042d	ff d6		 call	 esi
  0042f	83 c4 0c	 add	 esp, 12			; 0000000cH

; 893  : #endif
; 894  : 
; 895  : #ifdef ENABLE_RENEWAL_BATTLE_PASS
; 896  : 	PyModule_AddIntConstant(poModule, "EFFECT_BP_NORMAL_MISSION_COMPLETED", CInstanceBase::EFFECT_BP_NORMAL_MISSION_COMPLETED);

  00432	68 2d 01 00 00	 push	 301			; 0000012dH
  00437	68 00 00 00 00	 push	 OFFSET ??_C@_0CD@ENDEMKHE@EFFECT_BP_NORMAL_MISSION_COMPLE@
  0043c	57		 push	 edi
  0043d	ff d6		 call	 esi
  0043f	83 c4 0c	 add	 esp, 12			; 0000000cH

; 897  : 	PyModule_AddIntConstant(poModule, "EFFECT_BP_PREMIUM_MISSION_COMPLETED", CInstanceBase::EFFECT_BP_PREMIUM_MISSION_COMPLETED);

  00442	68 2e 01 00 00	 push	 302			; 0000012eH
  00447	68 00 00 00 00	 push	 OFFSET ??_C@_0CE@JJOCGBAD@EFFECT_BP_PREMIUM_MISSION_COMPL@
  0044c	57		 push	 edi
  0044d	ff d6		 call	 esi
  0044f	83 c4 0c	 add	 esp, 12			; 0000000cH

; 898  : 	PyModule_AddIntConstant(poModule, "EFFECT_BP_NORMAL_BATTLEPASS_COMPLETED", CInstanceBase::EFFECT_BP_NORMAL_BATTLEPASS_COMPLETED);

  00452	68 2f 01 00 00	 push	 303			; 0000012fH
  00457	68 00 00 00 00	 push	 OFFSET ??_C@_0CG@BINHAMPH@EFFECT_BP_NORMAL_BATTLEPASS_COM@
  0045c	57		 push	 edi
  0045d	ff d6		 call	 esi
  0045f	83 c4 0c	 add	 esp, 12			; 0000000cH

; 899  : 	PyModule_AddIntConstant(poModule, "EFFECT_BP_PREMIUM_BATTLEPASS_COMPLETED", CInstanceBase::EFFECT_BP_PREMIUM_BATTLEPASS_COMPLETED);

  00462	68 30 01 00 00	 push	 304			; 00000130H
  00467	68 00 00 00 00	 push	 OFFSET ??_C@_0CH@GLCKGADF@EFFECT_BP_PREMIUM_BATTLEPASS_CO@
  0046c	57		 push	 edi
  0046d	ff d6		 call	 esi
  0046f	83 c4 0c	 add	 esp, 12			; 0000000cH

; 900  : #endif
; 901  : 
; 902  : #ifdef ENABLE_GROWTH_PET_SYSTEM
; 903  : 	PyModule_AddIntConstant(poModule, "EFFECT_GYEONGGONG_BOOM", CInstanceBase::EFFECT_GYEONGGONG_BOOM);

  00472	68 31 01 00 00	 push	 305			; 00000131H
  00477	68 00 00 00 00	 push	 OFFSET ??_C@_0BH@PKDHJHLG@EFFECT_GYEONGGONG_BOOM@
  0047c	57		 push	 edi
  0047d	ff d6		 call	 esi

; 904  : #endif
; 905  : }

  0047f	8b 4d fc	 mov	 ecx, DWORD PTR __$ArrayPad$[ebp]
  00482	83 c4 0c	 add	 esp, 12			; 0000000cH
  00485	33 cd		 xor	 ecx, ebp
  00487	5f		 pop	 edi
  00488	5e		 pop	 esi
  00489	e8 00 00 00 00	 call	 @__security_check_cookie@4
  0048e	8b e5		 mov	 esp, ebp
  00490	5d		 pop	 ebp
  00491	c3		 ret	 0
?initchrmgr@@YAXXZ ENDP					; initchrmgr
_TEXT	ENDS
END
