; Listing generated by Microsoft (R) Optimizing Compiler Version 19.44.35219.0 

	TITLE	c:\anka2project\anka2project\source\binary\vs_files\userinterface\release\pythonnetworkstreammodule.obj
	.686P
	.XMM
	include listing.inc
	.model	flat

INCLUDELIB OLDNAMES

PUBLIC	??_C@_0EC@PJNHBNOL@netSendRequestRefineInfoPacket?5@ ; `string'
PUBLIC	??_C@_0EE@CPCFCFHF@netSendGuildRemoveMemberPacket?$CI@ ; `string'
PUBLIC	??_C@_1IK@MBMLBACD@?$AA?$CB?$AA?$CC?$AAn?$AAe?$AAt?$AAS?$AAe?$AAn?$AAd?$AAR?$AAe?$AAq?$AAu?$AAe?$AAs@ ; `string'
PUBLIC	??_C@_1LM@DEDABKEH@?$AAC?$AA?3?$AA?2?$AAA?$AAn?$AAk?$AAa?$AA2?$AAP?$AAr?$AAo?$AAj?$AAe?$AAc?$AAt@ ; `string'
PUBLIC	??_C@_0BI@HFMJEOAC@GetBettingGuildWarValue@	; `string'
PUBLIC	??_C@_03JELCABFN@iOO@				; `string'
PUBLIC	??_C@_0O@JMAHAJJH@SetServerInfo@		; `string'
PUBLIC	??_C@_0BH@LKCAJGCH@EnableChatInsultFilter@	; `string'
PUBLIC	??_C@_0BG@NJCKCHAI@PreserveServerCommand@	; `string'
PUBLIC	??_C@_0O@ODBJLKOA@GetServerInfo@		; `string'
PUBLIC	??_C@_09CFNAMFEF@StartGame@			; `string'
PUBLIC	??_C@_0BK@PJDKKIPH@GetPreservedServerCommand@	; `string'
PUBLIC	??_C@_0O@OFMEOEDD@SetMarkServer@		; `string'
PUBLIC	??_C@_04EIDOEOJH@Warp@				; `string'
PUBLIC	??_C@_0L@CJJGFLBC@IsInsultIn@			; `string'
PUBLIC	??_C@_0P@EPNPIBON@IsChatInsultIn@		; `string'
PUBLIC	??_C@_0L@JEGFHCJL@UploadMark@			; `string'
PUBLIC	??_C@_0P@NAIDDMMD@LoadInsultList@		; `string'
PUBLIC	??_C@_0M@GGDMINDM@GetEmpireID@			; `string'
PUBLIC	??_C@_0N@OBKBFHKO@UploadSymbol@			; `string'
PUBLIC	??_C@_0BB@ICEJKPHA@GetMainActorRace@		; `string'
PUBLIC	??_C@_0BA@BPHKBGOL@GetMainActorVID@		; `string'
PUBLIC	??_C@_0BH@GCCMJIJB@GetMainActorSkillGroup@	; `string'
PUBLIC	??_C@_0BD@JOIEFGML@GetMainActorEmpire@		; `string'
PUBLIC	??_C@_0CC@DLIFIOE@GetAccountCharacterSlotDataStri@ ; `string'
PUBLIC	??_C@_0CD@PJJNPONG@GetAccountCharacterSlotDataInte@ ; `string'
PUBLIC	??_C@_0BE@MHKBLINM@GetFieldMusicVolume@		; `string'
PUBLIC	??_C@_0BG@NAMIDKHD@GetFieldMusicFileName@	; `string'
PUBLIC	??_C@_0N@GLEGMFLM@SetLoginInfo@			; `string'
PUBLIC	??_C@_0BE@BCCLDKB@ToggleGameDebugInfo@		; `string'
PUBLIC	??_C@_0BB@NNDKGCIK@ClearPhaseWindow@		; `string'
PUBLIC	??_C@_0P@EKNNFAK@SetPhaseWindow@		; `string'
PUBLIC	??_C@_0BL@NJAILJBB@SetAccountConnectorHandler@	; `string'
PUBLIC	??_C@_0BN@KOOLAHFA@SetServerCommandParserWindow@ ; `string'
PUBLIC	??_C@_0BF@KAEIEPML@SetTCPRecvBufferSize@	; `string'
PUBLIC	??_C@_0L@EELFNDHB@SetHandler@			; `string'
PUBLIC	??_C@_0BF@GPIIIFGB@SetUDPRecvBufferSize@	; `string'
PUBLIC	??_C@_0BF@LOLMIHDO@SetTCPSendBufferSize@	; `string'
PUBLIC	??_C@_0L@LPFGMFBP@LogOutGame@			; `string'
PUBLIC	??_C@_0M@PAACKIAL@DirectEnter@			; `string'
PUBLIC	??_C@_0BA@ILFBLEPH@ExitApplication@		; `string'
PUBLIC	??_C@_08ENBHLCHD@ExitGame@			; `string'
PUBLIC	??_C@_0L@MALJFJNO@ConnectUDP@			; `string'
PUBLIC	??_C@_0L@HNEKCIDO@ConnectTCP@			; `string'
PUBLIC	??_C@_0BA@CNDIKGCL@SendLoginPacket@		; `string'
PUBLIC	??_C@_0BH@CIOLKAIG@ConnectToAccountServer@	; `string'
PUBLIC	??_C@_0BK@MIKAHKDI@SendSelectCharacterPacket@	; `string'
PUBLIC	??_C@_0BH@IIELEKKA@SendSelectEmpirePacket@	; `string'
PUBLIC	??_C@_0BK@NPKEAJJ@SendCreateCharacterPacket@	; `string'
PUBLIC	??_C@_0BF@ODLJDBF@SendChangeNamePacket@		; `string'
PUBLIC	??_C@_0BE@NBECPFPH@SendEnterGamePacket@		; `string'
PUBLIC	??_C@_0BL@PMHPNGGJ@SendDestroyCharacterPacket@	; `string'
PUBLIC	??_C@_0BI@OBDMDOIB@SendItemUseToItemPacket@	; `string'
PUBLIC	??_C@_0BC@NHAKBOCP@SendItemUsePacket@		; `string'
PUBLIC	??_C@_0BG@PNFNACGL@SendItemDropPacketNew@	; `string'
PUBLIC	??_C@_0BD@ICCAOJBA@SendItemDropPacket@		; `string'
PUBLIC	??_C@_0BG@ONKCIEDE@SendGoldDropPacketNew@	; `string'
PUBLIC	??_C@_0BC@NEDFAOHK@SendElkDropPacket@		; `string'
PUBLIC	??_C@_0BF@PJHEIMI@SendItemPickUpPacket@		; `string'
PUBLIC	??_C@_0BD@BPAFBGKI@SendItemMovePacket@		; `string'
PUBLIC	??_C@_0BA@NKMDDBDL@SetOfflinePhase@		; `string'
PUBLIC	??_C@_0BD@FMAJCJM@SendGiveItemPacket@		; `string'
PUBLIC	??_C@_09HENONEEN@IsConnect@			; `string'
PUBLIC	??_C@_0L@CMGJAGDM@Disconnect@			; `string'
PUBLIC	??_C@_0N@BJHGOHPC@SendEmoticon@			; `string'
PUBLIC	??_C@_0P@FJOINOIH@SendChatPacket@		; `string'
PUBLIC	??_C@_0BM@KAMAKIKL@SendCharacterPositionPacket@	; `string'
PUBLIC	??_C@_0BC@KNMEABPD@SendWhisperPacket@		; `string'
PUBLIC	??_C@_0BC@FPBLEBCL@SendShopBuyPacket@		; `string'
PUBLIC	??_C@_0BC@HEOMKCAE@SendShopEndPacket@		; `string'
PUBLIC	??_C@_0BG@BGJEIPGN@SendShopSellPacketNew@	; `string'
PUBLIC	??_C@_0BD@BFMEHPEE@SendShopSellPacket@		; `string'
PUBLIC	??_C@_0BK@IIFDLCNA@SendExchangeItemAddPacket@	; `string'
PUBLIC	??_C@_0BI@BGNKGFKO@SendExchangeStartPacket@	; `string'
PUBLIC	??_C@_0BJ@CGGGIOGM@SendExchangeElkAddPacket@	; `string'
PUBLIC	??_C@_0BK@KKOEHGGC@SendExchangeItemDelPacket@	; `string'
PUBLIC	??_C@_0BH@NCONKHHB@SendExchangeExitPacket@	; `string'
PUBLIC	??_C@_0BJ@OFKJBLDC@SendExchangeAcceptPacket@	; `string'
PUBLIC	??_C@_0BH@MCKLKDJM@RegisterEmoticonString@	; `string'
PUBLIC	??_C@_0BC@FMJHAGEI@SendOnClickPacket@		; `string'
PUBLIC	??_C@_0BN@MPMOLLL@SendMessengerAddByNamePacket@	; `string'
PUBLIC	??_C@_0BM@CFLPIFFM@SendMessengerAddByVIDPacket@	; `string'
PUBLIC	??_C@_0CB@KIPMMBOF@SendMessengerBlockAddByVIDPacke@ ; `string'
PUBLIC	??_C@_0BK@GIIDGGBB@SendMessengerRemovePacket@	; `string'
PUBLIC	??_C@_0CC@LOMMKDNH@SendMessengerBlockAddByNamePack@ ; `string'
PUBLIC	??_C@_0BP@CFBLDODE@SendMessengerBlockRemovePacket@ ; `string'
PUBLIC	??_C@_0BG@IFGKMOED@SendPartyInvitePacket@	; `string'
PUBLIC	??_C@_0CE@JAGCNDAI@SendMessengerBlockRemoveByVIDPa@ ; `string'
PUBLIC	??_C@_0BE@JHFPDGFP@SendPartyExitPacket@		; `string'
PUBLIC	??_C@_0BM@PFAFFBJO@SendPartyInviteAnswerPacket@	; `string'
PUBLIC	??_C@_0BI@LNEGCCFH@SendPartySetStatePacket@	; `string'
PUBLIC	??_C@_0BG@JAJGIHK@SendPartyRemovePacket@	; `string'
PUBLIC	??_C@_0BJ@JGBOMHFI@SendPartyParameterPacket@	; `string'
PUBLIC	??_C@_0BI@EONDHFJL@SendPartyUseSkillPacket@	; `string'
PUBLIC	??_C@_0BP@MLAJADAA@SendSafeboxWithdrawMoneyPacket@ ; `string'
PUBLIC	??_C@_0BL@CAAOLIHO@SendSafeboxSaveMoneyPacket@	; `string'
PUBLIC	??_C@_0BK@LJAMACPE@SendSafeboxCheckoutPacket@	; `string'
PUBLIC	??_C@_0BJ@HNJCKALG@SendSafeboxCheckinPacket@	; `string'
PUBLIC	??_C@_0BH@BDNDNKGE@SendMallCheckoutPacket@	; `string'
PUBLIC	??_C@_0BK@JMMAEJFJ@SendSafeboxItemMovePacket@	; `string'
PUBLIC	??_C@_0BH@HMDNFHNB@SendQuestConfirmPacket@	; `string'
PUBLIC	??_C@_0BL@BJLFPMAE@SendQuestInputStringPacket@	; `string'
PUBLIC	??_C@_0BM@GAJEHHNG@SendGuildRemoveMemberPacket@	; `string'
PUBLIC	??_C@_0BJ@MFJNIJIJ@SendGuildAddMemberPacket@	; `string'
PUBLIC	??_C@_0CE@EFLFPPCO@SendGuildChangeGradeAuthorityPa@ ; `string'
PUBLIC	??_C@_0BP@ODLEJFMG@SendGuildChangeGradeNamePacket@ ; `string'
PUBLIC	??_C@_0BL@JLEHIONL@SendGuildPostCommentPacket@	; `string'
PUBLIC	??_C@_0BF@OAFAHAKB@SendGuildOfferPacket@	; `string'
PUBLIC	??_C@_0BP@BKEOCNGM@SendGuildRefreshCommentsPacket@ ; `string'
PUBLIC	??_C@_0BN@MBNLMFLO@SendGuildDeleteCommentPacket@ ; `string'
PUBLIC	??_C@_0BI@HICDMLJH@SendGuildUseSkillPacket@	; `string'
PUBLIC	??_C@_0CB@KOIDGNFC@SendGuildChangeMemberGradePacke@ ; `string'
PUBLIC	??_C@_0BM@KLBFEJBI@SendGuildInviteAnswerPacket@	; `string'
PUBLIC	??_C@_0CD@BMLIKMKL@SendGuildChangeMemberGeneralPac@ ; `string'
PUBLIC	??_C@_0BM@HDHMFNNO@SendGuildDepositMoneyPacket@	; `string'
PUBLIC	??_C@_0BJ@LKJGDIEE@SendGuildChargeGSPPacket@	; `string'
PUBLIC	??_C@_0BM@NLIMKJKK@SendRequestRefineInfoPacket@	; `string'
PUBLIC	??_C@_0BN@BPJGBHPL@SendGuildWithdrawMoneyPacket@ ; `string'
PUBLIC	??_C@_0BF@HEJDCMFH@SendSelectItemPacket@	; `string'
PUBLIC	??_C@_0BB@MBCAEHJO@SendRefinePacket@		; `string'
PUBLIC	??_C@_0BG@KCIMJDEA@SetEmpireLanguageMode@	; `string'
PUBLIC	??_C@_0BG@HLIDKLKJ@SetPacketSequenceMode@	; `string'
PUBLIC	??_C@_0BB@CABIEEGM@RegisterErrorLog@		; `string'
PUBLIC	??_C@_0BC@NOAKHLIH@SetSkillGroupFake@		; `string'
PUBLIC	??_C@_0BG@LMAHKAGJ@SendItemDestroyPacket@	; `string'
PUBLIC	??_C@_0BL@HLJICMNL@SendItemNewAttributePacket@	; `string'
PUBLIC	??_C@_0BJ@JLPIJBCL@SendChangeLanguagePacket@	; `string'
PUBLIC	??_C@_0BD@NCAGLKGI@SendItemSellPacket@		; `string'
PUBLIC	??_C@_0M@BDNFJNIF@GetLanguage@			; `string'
PUBLIC	??_C@_0M@BMMLELAG@SetLanguage@			; `string'
PUBLIC	??_C@_0CF@DBCMLGOB@SendMessengerRequestWarpByNameP@ ; `string'
PUBLIC	??_C@_0BD@CADFDBKC@SendWhisperDetails@		; `string'
PUBLIC	??_C@_0BD@FJEJICMG@SendTargetInfoLoad@		; `string'
PUBLIC	??_C@_0CA@DMDCCOLJ@SendMessengerSummonByNamePacket@ ; `string'
PUBLIC	??_C@_0BG@FNGLKDCN@SendRequestEventQuest@	; `string'
PUBLIC	??_C@_0BC@MKMPHPEO@SendChestDropInfo@		; `string'
PUBLIC	??_C@_0BI@OCAOJHPJ@SendExtBattlePassAction@	; `string'
PUBLIC	??_C@_0BF@EGLLPLHB@SendRequestEventData@	; `string'
PUBLIC	??_C@_0BJ@KEBAFNIE@SendOfflineShopEndPacket@	; `string'
PUBLIC	??_C@_0BN@FGANJKPC@SendExtBattlePassPremiumItem@ ; `string'
PUBLIC	??_C@_0BH@OAFMCCNO@SendAddOfflineShopItem@	; `string'
PUBLIC	??_C@_0BJ@IPOHLOKL@SendOfflineShopBuyPacket@	; `string'
PUBLIC	??_C@_0BH@MIDGLPNJ@SendDestroyOfflineShop@	; `string'
PUBLIC	??_C@_0BK@MHCHACHJ@SendRemoveOfflineShopItem@	; `string'
PUBLIC	??_C@_0BL@IBEDKCND@SendOfflineShopChangeTitle@	; `string'
PUBLIC	??_C@_0BF@FGMFPANA@SendTakeOfflineMoney@	; `string'
PUBLIC	??_C@_0BG@BADFKLBC@SendOfflineShopButton@	; `string'
PUBLIC	??_C@_0BF@IDFHMEFI@SendOfflineShopCheck@	; `string'
PUBLIC	??_C@_0BB@DODFFFJG@SendOpenShopSlot@		; `string'
PUBLIC	??_C@_0BK@BHBMOPGA@SendOfflineShopRemoveLogs@	; `string'
PUBLIC	??_C@_0M@PKHOJOKH@SendAddTime@			; `string'
PUBLIC	??_C@_0BB@CCPJMAB@SendGetBackItems@		; `string'
PUBLIC	??_C@_0BK@MFBNGEKH@SendPrivateShopSearchInfo@	; `string'
PUBLIC	??_C@_0BA@GINOFKMH@SendOpenWithVID@		; `string'
PUBLIC	??_C@_0BF@IBLIMNKE@LoadResourcesInCache@	; `string'
PUBLIC	??_C@_0BP@EMBKKKAC@SendQuestInputStringLongPacket@ ; `string'
PUBLIC	??_C@_0BG@CAKEIGOC@SendAuraRefineCheckIn@	; `string'
PUBLIC	??_C@_0P@HANGMIDD@RegisterSkills@		; `string'
PUBLIC	??_C@_0BF@EMOBFCJD@SendAuraRefineAccept@	; `string'
PUBLIC	??_C@_0BH@DAGPIIGN@SendAuraRefineCheckOut@	; `string'
PUBLIC	??_C@_0BA@EKELKFID@CheckUsePetItem@		; `string'
PUBLIC	??_C@_0BF@NDLLIABO@SendAuraRefineCancel@	; `string'
PUBLIC	??_C@_0BG@CAPLAGOH@SendPetHatchingPacket@	; `string'
PUBLIC	??_C@_0BC@DPPMLCAB@SendPetFeedPacket@		; `string'
PUBLIC	??_C@_0BI@EBDKMLFG@SendPetNameChangePacket@	; `string'
PUBLIC	??_C@_0BM@GAONBPGD@SendPetHatchingWindowPacket@	; `string'
PUBLIC	??_C@_0BC@ODGMFKGN@SendPetWindowType@		; `string'
PUBLIC	??_C@_0BO@CHBKNLKN@SendPetNameChangeWindowPacket@ ; `string'
PUBLIC	??_C@_0BL@KHAOMOFC@SendPetSkillUpgradeRequest@	; `string'
PUBLIC	??_C@_0BC@JMDGNLBA@SendPetLearnSkill@		; `string'
PUBLIC	??_C@_0BG@PCKLFOPF@SendPetDeleteAllSkill@	; `string'
PUBLIC	??_C@_0BD@GMMPELPL@SendPetDeleteSkill@		; `string'
PUBLIC	??_C@_0BC@LDLOKAHN@SendPetAttrChange@		; `string'
PUBLIC	??_C@_0BF@IELOFHOB@SendPetAttrDetermine@	; `string'
PUBLIC	??_C@_0BG@KJDOPNFA@SendChangeLookCheckIn@	; `string'
PUBLIC	??_C@_0O@FEFPMGMH@SendPetRevive@		; `string'
PUBLIC	??_C@_0CC@KAHMBMII@SendChangeLookCheckInFreeYangIt@ ; `string'
PUBLIC	??_C@_0BH@BFIJMALG@SendChangeLookCheckOut@	; `string'
PUBLIC	??_C@_0BF@FLBAAAK@SendChangeLookAccept@		; `string'
PUBLIC	??_C@_0CD@CGFABPFC@SendChangeLookCheckOutFreeYangI@ ; `string'
PUBLIC	??_C@_0BC@BHMNHCBE@SendHuntingAction@		; `string'
PUBLIC	??_C@_0BF@OEMKPNHP@SendChangeLookCanCle@	; `string'
PUBLIC	??_C@_0BK@BILAANNF@ERROR_CONNECT_MARK_SERVER@	; `string'
PUBLIC	??_C@_0L@LILDODAP@ERROR_NONE@			; `string'
PUBLIC	??_C@_0BB@FEGLKDMB@ERROR_MARK_WIDTH@		; `string'
PUBLIC	??_C@_0BA@NEJKKBEJ@ERROR_LOAD_MARK@		; `string'
PUBLIC	??_C@_0CB@BOPIDGGI@ERROR_MARK_UPLOAD_NEED_RECONNEC@ ; `string'
PUBLIC	??_C@_0BC@GOIIBBEJ@ERROR_MARK_HEIGHT@		; `string'
PUBLIC	??_C@_0BD@JBLBGAIB@PHASE_WINDOW_LOGIN@		; `string'
PUBLIC	??_C@_0CA@JMHMMKLO@ERROR_MARK_CHECK_NEED_RECONNECT@ ; `string'
PUBLIC	??_C@_0BE@PAOFIFBD@PHASE_WINDOW_CREATE@		; `string'
PUBLIC	??_C@_0BE@EBCKEIDN@PHASE_WINDOW_SELECT@		; `string'
PUBLIC	??_C@_0BC@HCEFPGCB@PHASE_WINDOW_GAME@		; `string'
PUBLIC	??_C@_0BC@PFELHICG@PHASE_WINDOW_LOAD@		; `string'
PUBLIC	??_C@_0BC@BCDCNNFP@PHASE_WINDOW_LOGO@		; `string'
PUBLIC	??_C@_0BE@IIMEMMI@PHASE_WINDOW_EMPIRE@		; `string'
PUBLIC	??_C@_0BM@JCGOOLCL@ACCOUNT_CHARACTER_SLOT_NAME@	; `string'
PUBLIC	??_C@_0BK@HDGGAJBJ@ACCOUNT_CHARACTER_SLOT_ID@	; `string'
PUBLIC	??_C@_0BN@MPLCEAPH@ACCOUNT_CHARACTER_SLOT_LEVEL@ ; `string'
PUBLIC	??_C@_0BM@DNOALMKC@ACCOUNT_CHARACTER_SLOT_RACE@	; `string'
PUBLIC	??_C@_0BL@OFNCKLHP@ACCOUNT_CHARACTER_SLOT_DEX@	; `string'
PUBLIC	??_C@_0BL@MPBHOFJE@ACCOUNT_CHARACTER_SLOT_STR@	; `string'
PUBLIC	??_C@_0BL@PICCMPNB@ACCOUNT_CHARACTER_SLOT_HTH@	; `string'
PUBLIC	??_C@_0BL@LHFINDEP@ACCOUNT_CHARACTER_SLOT_INT@	; `string'
PUBLIC	??_C@_0BM@JNGCLJJM@ACCOUNT_CHARACTER_SLOT_FORM@	; `string'
PUBLIC	??_C@_0CA@KFILFMPG@ACCOUNT_CHARACTER_SLOT_PLAYTIME@ ; `string'
PUBLIC	??_C@_0BM@OJMCHCKG@ACCOUNT_CHARACTER_SLOT_PORT@	; `string'
PUBLIC	??_C@_0BM@CNLCDDNB@ACCOUNT_CHARACTER_SLOT_ADDR@	; `string'
PUBLIC	??_C@_0CC@HMBBCNEO@ACCOUNT_CHARACTER_SLOT_GUILD_NA@ ; `string'
PUBLIC	??_C@_0CA@GFKKICFN@ACCOUNT_CHARACTER_SLOT_GUILD_ID@ ; `string'
PUBLIC	??_C@_0BM@BPKEDCMB@ACCOUNT_CHARACTER_SLOT_HAIR@	; `string'
PUBLIC	??_C@_0CI@NIHCCHJE@ACCOUNT_CHARACTER_SLOT_CHANGE_N@ ; `string'
PUBLIC	??_C@_0BM@LMFDJNHL@ACCOUNT_CHARACTER_SLOT_AURA@	; `string'
PUBLIC	??_C@_0BM@LAKJJJHL@ACCOUNT_CHARACTER_SLOT_ACCE@	; `string'
PUBLIC	??_C@_0CA@IIDLBDLK@ACCOUNT_CHARACTER_SLOT_MAPINDEX@ ; `string'
PUBLIC	??_C@_0CF@GNEHPDHB@ACCOUNT_CHARACTER_SLOT_LAST_PLA@ ; `string'
PUBLIC	??_C@_0CK@IDBHOJE@SERVER_COMMAND_RETURN_TO_SELECT@ ; `string'
PUBLIC	??_C@_0BH@IJCJGIEO@SERVER_COMMAND_LOG_OUT@	; `string'
PUBLIC	??_C@_08FEHCOLFL@EMPIRE_A@			; `string'
PUBLIC	??_C@_0BE@FCDHFIHM@SERVER_COMMAND_QUIT@		; `string'
PUBLIC	??_C@_08GGEEIJNJ@EMPIRE_C@			; `string'
PUBLIC	??_C@_08HPFPLIJI@EMPIRE_B@			; `string'
PUBLIC	??_C@_0CF@NHMIOPGD@DS_SUB_HEADER_REFINE_FAIL_MAX_R@ ; `string'
PUBLIC	??_C@_0BK@IMPJEABP@DS_SUB_HEADER_REFINE_FAIL@	; `string'
PUBLIC	??_C@_0CL@DKLCPNME@DS_SUB_HEADER_REFINE_FAIL_NOT_E@ ; `string'
PUBLIC	??_C@_0CL@CHMHFOOJ@DS_SUB_HEADER_REFINE_FAIL_INVAL@ ; `string'
PUBLIC	??_C@_0CM@PJCLJBCJ@DS_SUB_HEADER_REFINE_FAIL_TOO_M@ ; `string'
PUBLIC	??_C@_0CO@HIKHGDBM@DS_SUB_HEADER_REFINE_FAIL_NOT_E@ ; `string'
PUBLIC	??_C@_0BE@KHDCNJCA@BIOLOG_MANAGER_OPEN@		; `string'
PUBLIC	??_C@_0BN@OJONLPHM@DS_SUB_HEADER_REFINE_SUCCEED@ ; `string'
PUBLIC	??_C@_0BF@HOEEONGC@BIOLOG_MANAGER_TIMER@	; `string'
PUBLIC	??_C@_0BE@JDFPADGF@BIOLOG_MANAGER_SEND@		; `string'
EXTRN	__Cnd_do_broadcast_at_thread_exit:PROC
EXTRN	__beginthreadex:PROC
EXTRN	__imp__PyList_Size:PROC
EXTRN	__imp__PyList_GetItem:PROC
EXTRN	__imp__PyArg_ParseTuple:PROC
EXTRN	?SetPacketSequenceMode@CNetworkStream@@QAEX_N@Z:PROC ; CNetworkStream::SetPacketSequenceMode
EXTRN	?PyTuple_GetLongLong@@YA_NPAU_object@@HPA_J@Z:PROC ; PyTuple_GetLongLong
EXTRN	?MAX@@YAHHH@Z:PROC				; MAX
EXTRN	?_Throw_Cpp_error@std@@YAXH@Z:PROC		; std::_Throw_Cpp_error
EXTRN	_terminate:PROC
;	COMDAT ?s_methods@?1??initnet@@YAXXZ@4PAUPyMethodDef@@A
_DATA	SEGMENT
?s_methods@?1??initnet@@YAXXZ@4PAUPyMethodDef@@A DD FLAT:??_C@_0BI@HFMJEOAC@GetBettingGuildWarValue@ ; `initnet'::`2'::s_methods
	DD	FLAT:?netGetBettingGuildWarValue@@YAPAU_object@@PAU1@0@Z
	DD	01H
	ORG $+4
	DD	FLAT:??_C@_0BH@LKCAJGCH@EnableChatInsultFilter@
	DD	FLAT:?netEnableChatInsultFilter@@YAPAU_object@@PAU1@0@Z
	DD	01H
	ORG $+4
	DD	FLAT:??_C@_0O@JMAHAJJH@SetServerInfo@
	DD	FLAT:?netSetServerInfo@@YAPAU_object@@PAU1@0@Z
	DD	01H
	ORG $+4
	DD	FLAT:??_C@_0O@ODBJLKOA@GetServerInfo@
	DD	FLAT:?netGetServerInfo@@YAPAU_object@@PAU1@0@Z
	DD	01H
	ORG $+4
	DD	FLAT:??_C@_0BG@NJCKCHAI@PreserveServerCommand@
	DD	FLAT:?netPreserveServerCommand@@YAPAU_object@@PAU1@0@Z
	DD	01H
	ORG $+4
	DD	FLAT:??_C@_0BK@PJDKKIPH@GetPreservedServerCommand@
	DD	FLAT:?netGetPreservedServerCommand@@YAPAU_object@@PAU1@0@Z
	DD	01H
	ORG $+4
	DD	FLAT:??_C@_09CFNAMFEF@StartGame@
	DD	FLAT:?netStartGame@@YAPAU_object@@PAU1@0@Z
	DD	01H
	ORG $+4
	DD	FLAT:??_C@_04EIDOEOJH@Warp@
	DD	FLAT:?netWarp@@YAPAU_object@@PAU1@0@Z
	DD	01H
	ORG $+4
	DD	FLAT:??_C@_0O@OFMEOEDD@SetMarkServer@
	DD	FLAT:?netSetMarkServer@@YAPAU_object@@PAU1@0@Z
	DD	01H
	ORG $+4
	DD	FLAT:??_C@_0P@EPNPIBON@IsChatInsultIn@
	DD	FLAT:?netIsChatInsultIn@@YAPAU_object@@PAU1@0@Z
	DD	01H
	ORG $+4
	DD	FLAT:??_C@_0L@CJJGFLBC@IsInsultIn@
	DD	FLAT:?netIsInsultIn@@YAPAU_object@@PAU1@0@Z
	DD	01H
	ORG $+4
	DD	FLAT:??_C@_0P@NAIDDMMD@LoadInsultList@
	DD	FLAT:?netLoadInsultList@@YAPAU_object@@PAU1@0@Z
	DD	01H
	ORG $+4
	DD	FLAT:??_C@_0L@JEGFHCJL@UploadMark@
	DD	FLAT:?netUploadMark@@YAPAU_object@@PAU1@0@Z
	DD	01H
	ORG $+4
	DD	FLAT:??_C@_0N@OBKBFHKO@UploadSymbol@
	DD	FLAT:?netUploadSymbol@@YAPAU_object@@PAU1@0@Z
	DD	01H
	ORG $+4
	DD	FLAT:??_C@_0L@EAKBLDCO@GetGuildID@
	DD	FLAT:?netGetGuildID@@YAPAU_object@@PAU1@0@Z
	DD	01H
	ORG $+4
	DD	FLAT:??_C@_0M@GGDMINDM@GetEmpireID@
	DD	FLAT:?netGetEmpireID@@YAPAU_object@@PAU1@0@Z
	DD	01H
	ORG $+4
	DD	FLAT:??_C@_0BA@BPHKBGOL@GetMainActorVID@
	DD	FLAT:?netGetMainActorVID@@YAPAU_object@@PAU1@0@Z
	DD	01H
	ORG $+4
	DD	FLAT:??_C@_0BB@ICEJKPHA@GetMainActorRace@
	DD	FLAT:?netGetMainActorRace@@YAPAU_object@@PAU1@0@Z
	DD	01H
	ORG $+4
	DD	FLAT:??_C@_0BD@JOIEFGML@GetMainActorEmpire@
	DD	FLAT:?netGetMainActorEmpire@@YAPAU_object@@PAU1@0@Z
	DD	01H
	ORG $+4
	DD	FLAT:??_C@_0BH@GCCMJIJB@GetMainActorSkillGroup@
	DD	FLAT:?netGetMainActorSkillGroup@@YAPAU_object@@PAU1@0@Z
	DD	01H
	ORG $+4
	DD	FLAT:??_C@_0CD@PJJNPONG@GetAccountCharacterSlotDataInte@
	DD	FLAT:?netGetAccountCharacterSlotDataInteger@@YAPAU_object@@PAU1@0@Z
	DD	01H
	ORG $+4
	DD	FLAT:??_C@_0CC@DLIFIOE@GetAccountCharacterSlotDataStri@
	DD	FLAT:?netGetAccountCharacterSlotDataString@@YAPAU_object@@PAU1@0@Z
	DD	01H
	ORG $+4
	DD	FLAT:??_C@_0BG@NAMIDKHD@GetFieldMusicFileName@
	DD	FLAT:?netGetFieldMusicFileName@@YAPAU_object@@PAU1@0@Z
	DD	01H
	ORG $+4
	DD	FLAT:??_C@_0BE@MHKBLINM@GetFieldMusicVolume@
	DD	FLAT:?netGetFieldMusicVolume@@YAPAU_object@@PAU1@0@Z
	DD	01H
	ORG $+4
	DD	FLAT:??_C@_0BE@BCCLDKB@ToggleGameDebugInfo@
	DD	FLAT:?netToggleGameDebugInfo@@YAPAU_object@@PAU1@0@Z
	DD	01H
	ORG $+4
	DD	FLAT:??_C@_0N@GLEGMFLM@SetLoginInfo@
	DD	FLAT:?netSetLoginInfo@@YAPAU_object@@PAU1@0@Z
	DD	01H
	ORG $+4
	DD	FLAT:??_C@_0P@EKNNFAK@SetPhaseWindow@
	DD	FLAT:?netSetPhaseWindow@@YAPAU_object@@PAU1@0@Z
	DD	01H
	ORG $+4
	DD	FLAT:??_C@_0BB@NNDKGCIK@ClearPhaseWindow@
	DD	FLAT:?netClearPhaseWindow@@YAPAU_object@@PAU1@0@Z
	DD	01H
	ORG $+4
	DD	FLAT:??_C@_0BN@KOOLAHFA@SetServerCommandParserWindow@
	DD	FLAT:?netSetServerCommandParserWindow@@YAPAU_object@@PAU1@0@Z
	DD	01H
	ORG $+4
	DD	FLAT:??_C@_0BL@NJAILJBB@SetAccountConnectorHandler@
	DD	FLAT:?netSetAccountConnectorHandler@@YAPAU_object@@PAU1@0@Z
	DD	01H
	ORG $+4
	DD	FLAT:??_C@_0L@EELFNDHB@SetHandler@
	DD	FLAT:?netSetHandler@@YAPAU_object@@PAU1@0@Z
	DD	01H
	ORG $+4
	DD	FLAT:??_C@_0BF@KAEIEPML@SetTCPRecvBufferSize@
	DD	FLAT:?netSetTCPRecvBufferSize@@YAPAU_object@@PAU1@0@Z
	DD	01H
	ORG $+4
	DD	FLAT:??_C@_0BF@LOLMIHDO@SetTCPSendBufferSize@
	DD	FLAT:?netSetTCPSendBufferSize@@YAPAU_object@@PAU1@0@Z
	DD	01H
	ORG $+4
	DD	FLAT:??_C@_0BF@GPIIIFGB@SetUDPRecvBufferSize@
	DD	FLAT:?netSetUDPRecvBufferSize@@YAPAU_object@@PAU1@0@Z
	DD	01H
	ORG $+4
	DD	FLAT:??_C@_0M@PAACKIAL@DirectEnter@
	DD	FLAT:?netDirectEnter@@YAPAU_object@@PAU1@0@Z
	DD	01H
	ORG $+4
	DD	FLAT:??_C@_0L@LPFGMFBP@LogOutGame@
	DD	FLAT:?netLogOutGame@@YAPAU_object@@PAU1@0@Z
	DD	01H
	ORG $+4
	DD	FLAT:??_C@_08ENBHLCHD@ExitGame@
	DD	FLAT:?netExitGame@@YAPAU_object@@PAU1@0@Z
	DD	01H
	ORG $+4
	DD	FLAT:??_C@_0BA@ILFBLEPH@ExitApplication@
	DD	FLAT:?netExitApplication@@YAPAU_object@@PAU1@0@Z
	DD	01H
	ORG $+4
	DD	FLAT:??_C@_0L@HNEKCIDO@ConnectTCP@
	DD	FLAT:?netConnectTCP@@YAPAU_object@@PAU1@0@Z
	DD	01H
	ORG $+4
	DD	FLAT:??_C@_0L@MALJFJNO@ConnectUDP@
	DD	FLAT:?netConnectUDP@@YAPAU_object@@PAU1@0@Z
	DD	01H
	ORG $+4
	DD	FLAT:??_C@_0BH@CIOLKAIG@ConnectToAccountServer@
	DD	FLAT:?netConnectToAccountServer@@YAPAU_object@@PAU1@0@Z
	DD	01H
	ORG $+4
	DD	FLAT:??_C@_0BA@CNDIKGCL@SendLoginPacket@
	DD	FLAT:?netSendLoginPacket@@YAPAU_object@@PAU1@0@Z
	DD	01H
	ORG $+4
	DD	FLAT:??_C@_0BH@IIELEKKA@SendSelectEmpirePacket@
	DD	FLAT:?netSendSelectEmpirePacket@@YAPAU_object@@PAU1@0@Z
	DD	01H
	ORG $+4
	DD	FLAT:??_C@_0BK@MIKAHKDI@SendSelectCharacterPacket@
	DD	FLAT:?netSendSelectCharacterPacket@@YAPAU_object@@PAU1@0@Z
	DD	01H
	ORG $+4
	DD	FLAT:??_C@_0BF@ODLJDBF@SendChangeNamePacket@
	DD	FLAT:?netSendChangeNamePacket@@YAPAU_object@@PAU1@0@Z
	DD	01H
	ORG $+4
	DD	FLAT:??_C@_0BK@NPKEAJJ@SendCreateCharacterPacket@
	DD	FLAT:?netSendCreateCharacterPacket@@YAPAU_object@@PAU1@0@Z
	DD	01H
	ORG $+4
	DD	FLAT:??_C@_0BL@PMHPNGGJ@SendDestroyCharacterPacket@
	DD	FLAT:?netSendDestroyCharacterPacket@@YAPAU_object@@PAU1@0@Z
	DD	01H
	ORG $+4
	DD	FLAT:??_C@_0BE@NBECPFPH@SendEnterGamePacket@
	DD	FLAT:?netSendEnterGamePacket@@YAPAU_object@@PAU1@0@Z
	DD	01H
	ORG $+4
	DD	FLAT:??_C@_0BC@NHAKBOCP@SendItemUsePacket@
	DD	FLAT:?netSendItemUsePacket@@YAPAU_object@@PAU1@0@Z
	DD	01H
	ORG $+4
	DD	FLAT:??_C@_0BI@OBDMDOIB@SendItemUseToItemPacket@
	DD	FLAT:?netSendItemUseToItemPacket@@YAPAU_object@@PAU1@0@Z
	DD	01H
	ORG $+4
	DD	FLAT:??_C@_0BD@ICCAOJBA@SendItemDropPacket@
	DD	FLAT:?netSendItemDropPacket@@YAPAU_object@@PAU1@0@Z
	DD	01H
	ORG $+4
	DD	FLAT:??_C@_0BG@PNFNACGL@SendItemDropPacketNew@
	DD	FLAT:?netSendItemDropPacketNew@@YAPAU_object@@PAU1@0@Z
	DD	01H
	ORG $+4
	DD	FLAT:??_C@_0BC@NEDFAOHK@SendElkDropPacket@
	DD	FLAT:?netSendElkDropPacket@@YAPAU_object@@PAU1@0@Z
	DD	01H
	ORG $+4
	DD	FLAT:??_C@_0BG@ONKCIEDE@SendGoldDropPacketNew@
	DD	FLAT:?netSendGoldDropPacketNew@@YAPAU_object@@PAU1@0@Z
	DD	01H
	ORG $+4
	DD	FLAT:??_C@_0BD@BPAFBGKI@SendItemMovePacket@
	DD	FLAT:?netSendItemMovePacket@@YAPAU_object@@PAU1@0@Z
	DD	01H
	ORG $+4
	DD	FLAT:??_C@_0BF@PJHEIMI@SendItemPickUpPacket@
	DD	FLAT:?netSendItemPickUpPacket@@YAPAU_object@@PAU1@0@Z
	DD	01H
	ORG $+4
	DD	FLAT:??_C@_0BD@FMAJCJM@SendGiveItemPacket@
	DD	FLAT:?netSendGiveItemPacket@@YAPAU_object@@PAU1@0@Z
	DD	01H
	ORG $+4
	DD	FLAT:??_C@_0BA@NKMDDBDL@SetOfflinePhase@
	DD	FLAT:?netSetOfflinePhase@@YAPAU_object@@PAU1@0@Z
	DD	01H
	ORG $+4
	DD	FLAT:??_C@_0L@CMGJAGDM@Disconnect@
	DD	FLAT:?netDisconnect@@YAPAU_object@@PAU1@0@Z
	DD	01H
	ORG $+4
	DD	FLAT:??_C@_09HENONEEN@IsConnect@
	DD	FLAT:?netIsConnect@@YAPAU_object@@PAU1@0@Z
	DD	01H
	ORG $+4
	DD	FLAT:??_C@_0P@FJOINOIH@SendChatPacket@
	DD	FLAT:?netSendChatPacket@@YAPAU_object@@PAU1@0@Z
	DD	01H
	ORG $+4
	DD	FLAT:??_C@_0N@BJHGOHPC@SendEmoticon@
	DD	FLAT:?netSendEmoticon@@YAPAU_object@@PAU1@0@Z
	DD	01H
	ORG $+4
	DD	FLAT:??_C@_0BC@KNMEABPD@SendWhisperPacket@
	DD	FLAT:?netSendWhisperPacket@@YAPAU_object@@PAU1@0@Z
	DD	01H
	ORG $+4
	DD	FLAT:??_C@_0BM@KAMAKIKL@SendCharacterPositionPacket@
	DD	FLAT:?netSendCharacterPositionPacket@@YAPAU_object@@PAU1@0@Z
	DD	01H
	ORG $+4
	DD	FLAT:??_C@_0BC@HEOMKCAE@SendShopEndPacket@
	DD	FLAT:?netSendShopEndPacket@@YAPAU_object@@PAU1@0@Z
	DD	01H
	ORG $+4
	DD	FLAT:??_C@_0BC@FPBLEBCL@SendShopBuyPacket@
	DD	FLAT:?netSendShopBuyPacket@@YAPAU_object@@PAU1@0@Z
	DD	01H
	ORG $+4
	DD	FLAT:??_C@_0BD@BFMEHPEE@SendShopSellPacket@
	DD	FLAT:?netSendShopSellPacket@@YAPAU_object@@PAU1@0@Z
	DD	01H
	ORG $+4
	DD	FLAT:??_C@_0BG@BGJEIPGN@SendShopSellPacketNew@
	DD	FLAT:?netSendShopSellPacketNew@@YAPAU_object@@PAU1@0@Z
	DD	01H
	ORG $+4
	DD	FLAT:??_C@_0BI@BGNKGFKO@SendExchangeStartPacket@
	DD	FLAT:?netSendExchangeStartPacket@@YAPAU_object@@PAU1@0@Z
	DD	01H
	ORG $+4
	DD	FLAT:??_C@_0BK@IIFDLCNA@SendExchangeItemAddPacket@
	DD	FLAT:?netSendExchangeItemAddPacket@@YAPAU_object@@PAU1@0@Z
	DD	01H
	ORG $+4
	DD	FLAT:??_C@_0BK@KKOEHGGC@SendExchangeItemDelPacket@
	DD	FLAT:?netSendExchangeItemDelPacket@@YAPAU_object@@PAU1@0@Z
	DD	01H
	ORG $+4
	DD	FLAT:??_C@_0BJ@CGGGIOGM@SendExchangeElkAddPacket@
	DD	FLAT:?netSendExchangeElkAddPacket@@YAPAU_object@@PAU1@0@Z
	DD	01H
	ORG $+4
	DD	FLAT:??_C@_0BJ@OFKJBLDC@SendExchangeAcceptPacket@
	DD	FLAT:?netSendExchangeAcceptPacket@@YAPAU_object@@PAU1@0@Z
	DD	01H
	ORG $+4
	DD	FLAT:??_C@_0BH@NCONKHHB@SendExchangeExitPacket@
	DD	FLAT:?netSendExchangeExitPacket@@YAPAU_object@@PAU1@0@Z
	DD	01H
	ORG $+4
	DD	FLAT:??_C@_0BC@FMJHAGEI@SendOnClickPacket@
	DD	FLAT:?netOnClickPacket@@YAPAU_object@@PAU1@0@Z
	DD	01H
	ORG $+4
	DD	FLAT:??_C@_0BH@MCKLKDJM@RegisterEmoticonString@
	DD	FLAT:?netRegisterEmoticonString@@YAPAU_object@@PAU1@0@Z
	DD	01H
	ORG $+4
	DD	FLAT:??_C@_0BM@CFLPIFFM@SendMessengerAddByVIDPacket@
	DD	FLAT:?netSendMessengerAddByVIDPacket@@YAPAU_object@@PAU1@0@Z
	DD	01H
	ORG $+4
	DD	FLAT:??_C@_0BN@MPMOLLL@SendMessengerAddByNamePacket@
	DD	FLAT:?netSendMessengerAddByNamePacket@@YAPAU_object@@PAU1@0@Z
	DD	01H
	ORG $+4
	DD	FLAT:??_C@_0BK@GIIDGGBB@SendMessengerRemovePacket@
	DD	FLAT:?netSendMessengerRemovePacket@@YAPAU_object@@PAU1@0@Z
	DD	01H
	ORG $+4
	DD	FLAT:??_C@_0CB@KIPMMBOF@SendMessengerBlockAddByVIDPacke@
	DD	FLAT:?netSendMessengerBlockAddByVIDPacket@@YAPAU_object@@PAU1@0@Z
	DD	01H
	ORG $+4
	DD	FLAT:??_C@_0BP@CFBLDODE@SendMessengerBlockRemovePacket@
	DD	FLAT:?netSendMessengerBlockRemovePacket@@YAPAU_object@@PAU1@0@Z
	DD	01H
	ORG $+4
	DD	FLAT:??_C@_0CC@LOMMKDNH@SendMessengerBlockAddByNamePack@
	DD	FLAT:?netSendMessengerBlockAddByNamePacket@@YAPAU_object@@PAU1@0@Z
	DD	01H
	ORG $+4
	DD	FLAT:??_C@_0CE@JAGCNDAI@SendMessengerBlockRemoveByVIDPa@
	DD	FLAT:?netSendMessengerBlockRemoveByVIDPacket@@YAPAU_object@@PAU1@0@Z
	DD	01H
	ORG $+4
	DD	FLAT:??_C@_0BG@IFGKMOED@SendPartyInvitePacket@
	DD	FLAT:?netSendPartyInvitePacket@@YAPAU_object@@PAU1@0@Z
	DD	01H
	ORG $+4
	DD	FLAT:??_C@_0BM@PFAFFBJO@SendPartyInviteAnswerPacket@
	DD	FLAT:?netSendPartyInviteAnswerPacket@@YAPAU_object@@PAU1@0@Z
	DD	01H
	ORG $+4
	DD	FLAT:??_C@_0BE@JHFPDGFP@SendPartyExitPacket@
	DD	FLAT:?netSendPartyExitPacket@@YAPAU_object@@PAU1@0@Z
	DD	01H
	ORG $+4
	DD	FLAT:??_C@_0BG@JAJGIHK@SendPartyRemovePacket@
	DD	FLAT:?netSendPartyRemovePacket@@YAPAU_object@@PAU1@0@Z
	DD	01H
	ORG $+4
	DD	FLAT:??_C@_0BI@LNEGCCFH@SendPartySetStatePacket@
	DD	FLAT:?netSendPartySetStatePacket@@YAPAU_object@@PAU1@0@Z
	DD	01H
	ORG $+4
	DD	FLAT:??_C@_0BI@EONDHFJL@SendPartyUseSkillPacket@
	DD	FLAT:?netSendPartyUseSkillPacket@@YAPAU_object@@PAU1@0@Z
	DD	01H
	ORG $+4
	DD	FLAT:??_C@_0BJ@JGBOMHFI@SendPartyParameterPacket@
	DD	FLAT:?netSendPartyParameterPacket@@YAPAU_object@@PAU1@0@Z
	DD	01H
	ORG $+4
	DD	FLAT:??_C@_0BL@CAAOLIHO@SendSafeboxSaveMoneyPacket@
	DD	FLAT:?netSendSafeboxSaveMoneyPacket@@YAPAU_object@@PAU1@0@Z
	DD	01H
	ORG $+4
	DD	FLAT:??_C@_0BP@MLAJADAA@SendSafeboxWithdrawMoneyPacket@
	DD	FLAT:?netSendSafeboxWithdrawMoneyPacket@@YAPAU_object@@PAU1@0@Z
	DD	01H
	ORG $+4
	DD	FLAT:??_C@_0BJ@HNJCKALG@SendSafeboxCheckinPacket@
	DD	FLAT:?netSendSafeboxCheckinPacket@@YAPAU_object@@PAU1@0@Z
	DD	01H
	ORG $+4
	DD	FLAT:??_C@_0BK@LJAMACPE@SendSafeboxCheckoutPacket@
	DD	FLAT:?netSendSafeboxCheckoutPacket@@YAPAU_object@@PAU1@0@Z
	DD	01H
	ORG $+4
	DD	FLAT:??_C@_0BK@JMMAEJFJ@SendSafeboxItemMovePacket@
	DD	FLAT:?netSendSafeboxItemMovePacket@@YAPAU_object@@PAU1@0@Z
	DD	01H
	ORG $+4
	DD	FLAT:??_C@_0BH@BDNDNKGE@SendMallCheckoutPacket@
	DD	FLAT:?netSendMallCheckoutPacket@@YAPAU_object@@PAU1@0@Z
	DD	01H
	ORG $+4
	DD	FLAT:??_C@_0BL@BJLFPMAE@SendQuestInputStringPacket@
	DD	FLAT:?netSendQuestInputStringPacket@@YAPAU_object@@PAU1@0@Z
	DD	01H
	ORG $+4
	DD	FLAT:??_C@_0BH@HMDNFHNB@SendQuestConfirmPacket@
	DD	FLAT:?netSendQuestConfirmPacket@@YAPAU_object@@PAU1@0@Z
	DD	01H
	ORG $+4
	DD	FLAT:??_C@_0BJ@MFJNIJIJ@SendGuildAddMemberPacket@
	DD	FLAT:?netSendGuildAddMemberPacket@@YAPAU_object@@PAU1@0@Z
	DD	01H
	ORG $+4
	DD	FLAT:??_C@_0BM@GAJEHHNG@SendGuildRemoveMemberPacket@
	DD	FLAT:?netSendGuildRemoveMemberPacket@@YAPAU_object@@PAU1@0@Z
	DD	01H
	ORG $+4
	DD	FLAT:??_C@_0BP@ODLEJFMG@SendGuildChangeGradeNamePacket@
	DD	FLAT:?netSendGuildChangeGradeNamePacket@@YAPAU_object@@PAU1@0@Z
	DD	01H
	ORG $+4
	DD	FLAT:??_C@_0CE@EFLFPPCO@SendGuildChangeGradeAuthorityPa@
	DD	FLAT:?netSendGuildChangeGradeAuthorityPacket@@YAPAU_object@@PAU1@0@Z
	DD	01H
	ORG $+4
	DD	FLAT:??_C@_0BF@OAFAHAKB@SendGuildOfferPacket@
	DD	FLAT:?netSendGuildOfferPacket@@YAPAU_object@@PAU1@0@Z
	DD	01H
	ORG $+4
	DD	FLAT:??_C@_0BL@JLEHIONL@SendGuildPostCommentPacket@
	DD	FLAT:?netSnedGuildPostCommentPacket@@YAPAU_object@@PAU1@0@Z
	DD	01H
	ORG $+4
	DD	FLAT:??_C@_0BN@MBNLMFLO@SendGuildDeleteCommentPacket@
	DD	FLAT:?netSnedGuildDeleteCommentPacket@@YAPAU_object@@PAU1@0@Z
	DD	01H
	ORG $+4
	DD	FLAT:??_C@_0BP@BKEOCNGM@SendGuildRefreshCommentsPacket@
	DD	FLAT:?netSendGuildRefreshCommentsPacket@@YAPAU_object@@PAU1@0@Z
	DD	01H
	ORG $+4
	DD	FLAT:??_C@_0CB@KOIDGNFC@SendGuildChangeMemberGradePacke@
	DD	FLAT:?netSendGuildChangeMemberGradePacket@@YAPAU_object@@PAU1@0@Z
	DD	01H
	ORG $+4
	DD	FLAT:??_C@_0BI@HICDMLJH@SendGuildUseSkillPacket@
	DD	FLAT:?netSendGuildUseSkillPacket@@YAPAU_object@@PAU1@0@Z
	DD	01H
	ORG $+4
	DD	FLAT:??_C@_0CD@BMLIKMKL@SendGuildChangeMemberGeneralPac@
	DD	FLAT:?netSendGuildChangeMemberGeneralPacket@@YAPAU_object@@PAU1@0@Z
	DD	01H
	ORG $+4
	DD	FLAT:??_C@_0BM@KLBFEJBI@SendGuildInviteAnswerPacket@
	DD	FLAT:?netSendGuildInviteAnswerPacket@@YAPAU_object@@PAU1@0@Z
	DD	01H
	ORG $+4
	DD	FLAT:??_C@_0BJ@LKJGDIEE@SendGuildChargeGSPPacket@
	DD	FLAT:?netSendGuildChargeGSPPacket@@YAPAU_object@@PAU1@0@Z
	DD	01H
	ORG $+4
	DD	FLAT:??_C@_0BM@HDHMFNNO@SendGuildDepositMoneyPacket@
	DD	FLAT:?netSendGuildDepositMoneyPacket@@YAPAU_object@@PAU1@0@Z
	DD	01H
	ORG $+4
	DD	FLAT:??_C@_0BN@BPJGBHPL@SendGuildWithdrawMoneyPacket@
	DD	FLAT:?netSendGuildWithdrawMoneyPacket@@YAPAU_object@@PAU1@0@Z
	DD	01H
	ORG $+4
	DD	FLAT:??_C@_0BM@NLIMKJKK@SendRequestRefineInfoPacket@
	DD	FLAT:?netSendRequestRefineInfoPacket@@YAPAU_object@@PAU1@0@Z
	DD	01H
	ORG $+4
	DD	FLAT:??_C@_0BB@MBCAEHJO@SendRefinePacket@
	DD	FLAT:?netSendRefinePacket@@YAPAU_object@@PAU1@0@Z
	DD	01H
	ORG $+4
	DD	FLAT:??_C@_0BF@HEJDCMFH@SendSelectItemPacket@
	DD	FLAT:?netSendSelectItemPacket@@YAPAU_object@@PAU1@0@Z
	DD	01H
	ORG $+4
	DD	FLAT:??_C@_0BG@HLIDKLKJ@SetPacketSequenceMode@
	DD	FLAT:?netSetPacketSequenceMode@@YAPAU_object@@PAU1@0@Z
	DD	01H
	ORG $+4
	DD	FLAT:??_C@_0BG@KCIMJDEA@SetEmpireLanguageMode@
	DD	FLAT:?netSetEmpireLanguageMode@@YAPAU_object@@PAU1@0@Z
	DD	01H
	ORG $+4
	DD	FLAT:??_C@_0BC@NOAKHLIH@SetSkillGroupFake@
	DD	FLAT:?netSetSkillGroupFake@@YAPAU_object@@PAU1@0@Z
	DD	01H
	ORG $+4
	DD	FLAT:??_C@_0BB@CABIEEGM@RegisterErrorLog@
	DD	FLAT:?netRegisterErrorLog@@YAPAU_object@@PAU1@0@Z
	DD	01H
	ORG $+4
	DD	FLAT:??_C@_0BL@HLJICMNL@SendItemNewAttributePacket@
	DD	FLAT:?netSendItemNewAttributePacket@@YAPAU_object@@PAU1@0@Z
	DD	01H
	ORG $+4
	DD	FLAT:??_C@_0BG@LMAHKAGJ@SendItemDestroyPacket@
	DD	FLAT:?netSendItemDestroyPacket@@YAPAU_object@@PAU1@0@Z
	DD	01H
	ORG $+4
	DD	FLAT:??_C@_0BD@NCAGLKGI@SendItemSellPacket@
	DD	FLAT:?netSendItemSellPacket@@YAPAU_object@@PAU1@0@Z
	DD	01H
	ORG $+4
	DD	FLAT:??_C@_0BJ@JLPIJBCL@SendChangeLanguagePacket@
	DD	FLAT:?netSendChangeLanguagePacket@@YAPAU_object@@PAU1@0@Z
	DD	01H
	ORG $+4
	DD	FLAT:??_C@_0M@BMMLELAG@SetLanguage@
	DD	FLAT:?netSetLanguage@@YAPAU_object@@PAU1@0@Z
	DD	01H
	ORG $+4
	DD	FLAT:??_C@_0M@BDNFJNIF@GetLanguage@
	DD	FLAT:?netGetLanguage@@YAPAU_object@@PAU1@0@Z
	DD	01H
	ORG $+4
	DD	FLAT:??_C@_0BD@CADFDBKC@SendWhisperDetails@
	DD	FLAT:?netSendWhisperDetails@@YAPAU_object@@PAU1@0@Z
	DD	01H
	ORG $+4
	DD	FLAT:??_C@_0CF@DBCMLGOB@SendMessengerRequestWarpByNameP@
	DD	FLAT:?netSendMessengerRequestWarpByNamePacket@@YAPAU_object@@PAU1@0@Z
	DD	01H
	ORG $+4
	DD	FLAT:??_C@_0CA@DMDCCOLJ@SendMessengerSummonByNamePacket@
	DD	FLAT:?netSendMessengerSummonByNamePacket@@YAPAU_object@@PAU1@0@Z
	DD	01H
	ORG $+4
	DD	FLAT:??_C@_0BD@FJEJICMG@SendTargetInfoLoad@
	DD	FLAT:?netTargetInfoLoad@@YAPAU_object@@PAU1@0@Z
	DD	01H
	ORG $+4
	DD	FLAT:??_C@_0BC@MKMPHPEO@SendChestDropInfo@
	DD	FLAT:?netSendChestDropInfo@@YAPAU_object@@PAU1@0@Z
	DD	01H
	ORG $+4
	DD	FLAT:??_C@_0BG@FNGLKDCN@SendRequestEventQuest@
	DD	FLAT:?netSendRequestEventQuest@@YAPAU_object@@PAU1@0@Z
	DD	01H
	ORG $+4
	DD	FLAT:??_C@_0BF@EGLLPLHB@SendRequestEventData@
	DD	FLAT:?netSendRequestEventData@@YAPAU_object@@PAU1@0@Z
	DD	01H
	ORG $+4
	DD	FLAT:??_C@_0BI@OCAOJHPJ@SendExtBattlePassAction@
	DD	FLAT:?netSendExtBattlePassAction@@YAPAU_object@@PAU1@0@Z
	DD	01H
	ORG $+4
	DD	FLAT:??_C@_0BN@FGANJKPC@SendExtBattlePassPremiumItem@
	DD	FLAT:?netSendExtBattlePassPremiumItem@@YAPAU_object@@PAU1@0@Z
	DD	01H
	ORG $+4
	DD	FLAT:??_C@_0BJ@KEBAFNIE@SendOfflineShopEndPacket@
	DD	FLAT:?netSendOfflineShopEndPacket@@YAPAU_object@@PAU1@0@Z
	DD	01H
	ORG $+4
	DD	FLAT:??_C@_0BJ@IPOHLOKL@SendOfflineShopBuyPacket@
	DD	FLAT:?netSendOfflineShopBuyPacket@@YAPAU_object@@PAU1@0@Z
	DD	01H
	ORG $+4
	DD	FLAT:??_C@_0BH@OAFMCCNO@SendAddOfflineShopItem@
	DD	FLAT:?netSendAddOfflineShopItem@@YAPAU_object@@PAU1@0@Z
	DD	01H
	ORG $+4
	DD	FLAT:??_C@_0BK@MHCHACHJ@SendRemoveOfflineShopItem@
	DD	FLAT:?netSendRemoveOfflineShopItem@@YAPAU_object@@PAU1@0@Z
	DD	01H
	ORG $+4
	DD	FLAT:??_C@_0BH@MIDGLPNJ@SendDestroyOfflineShop@
	DD	FLAT:?netSendDestroyOfflineShop@@YAPAU_object@@PAU1@0@Z
	DD	01H
	ORG $+4
	DD	FLAT:??_C@_0BF@FGMFPANA@SendTakeOfflineMoney@
	DD	FLAT:?netSendTakeOfflineMoney@@YAPAU_object@@PAU1@0@Z
	DD	01H
	ORG $+4
	DD	FLAT:??_C@_0BL@IBEDKCND@SendOfflineShopChangeTitle@
	DD	FLAT:?netSendOfflineShopChangeTitle@@YAPAU_object@@PAU1@0@Z
	DD	01H
	ORG $+4
	DD	FLAT:??_C@_0BF@IDFHMEFI@SendOfflineShopCheck@
	DD	FLAT:?netSendOfflineShopCheck@@YAPAU_object@@PAU1@0@Z
	DD	01H
	ORG $+4
	DD	FLAT:??_C@_0BG@BADFKLBC@SendOfflineShopButton@
	DD	FLAT:?netSendOfflineShopButton@@YAPAU_object@@PAU1@0@Z
	DD	01H
	ORG $+4
	DD	FLAT:??_C@_0BK@BHBMOPGA@SendOfflineShopRemoveLogs@
	DD	FLAT:?netSendOfflineShopRemoveLogs@@YAPAU_object@@PAU1@0@Z
	DD	01H
	ORG $+4
	DD	FLAT:??_C@_0BB@DODFFFJG@SendOpenShopSlot@
	DD	FLAT:?netSendOpenShopSlot@@YAPAU_object@@PAU1@0@Z
	DD	01H
	ORG $+4
	DD	FLAT:??_C@_0BB@CCPJMAB@SendGetBackItems@
	DD	FLAT:?netSendGetBackItems@@YAPAU_object@@PAU1@0@Z
	DD	01H
	ORG $+4
	DD	FLAT:??_C@_0M@PKHOJOKH@SendAddTime@
	DD	FLAT:?netSendAddTime@@YAPAU_object@@PAU1@0@Z
	DD	01H
	ORG $+4
	DD	FLAT:??_C@_0BA@GINOFKMH@SendOpenWithVID@
	DD	FLAT:?netSendOpenWithVID@@YAPAU_object@@PAU1@0@Z
	DD	01H
	ORG $+4
	DD	FLAT:??_C@_0BK@MFBNGEKH@SendPrivateShopSearchInfo@
	DD	FLAT:?netSendPrivateShopSearchInfo@@YAPAU_object@@PAU1@0@Z
	DD	01H
	ORG $+4
	DD	FLAT:??_C@_0BP@EMBKKKAC@SendQuestInputStringLongPacket@
	DD	FLAT:?netSendQuestInputStringLongPacket@@YAPAU_object@@PAU1@0@Z
	DD	01H
	ORG $+4
	DD	FLAT:??_C@_0BF@IBLIMNKE@LoadResourcesInCache@
	DD	FLAT:?netLoadResourcesInCache@@YAPAU_object@@PAU1@0@Z
	DD	01H
	ORG $+4
	DD	FLAT:??_C@_0P@HANGMIDD@RegisterSkills@
	DD	FLAT:?netRegisterSkills@@YAPAU_object@@PAU1@0@Z
	DD	01H
	ORG $+4
	DD	FLAT:??_C@_0BG@CAKEIGOC@SendAuraRefineCheckIn@
	DD	FLAT:?netSendAuraRefineCheckIn@@YAPAU_object@@PAU1@0@Z
	DD	01H
	ORG $+4
	DD	FLAT:??_C@_0BH@DAGPIIGN@SendAuraRefineCheckOut@
	DD	FLAT:?netSendAuraRefineCheckOut@@YAPAU_object@@PAU1@0@Z
	DD	01H
	ORG $+4
	DD	FLAT:??_C@_0BF@EMOBFCJD@SendAuraRefineAccept@
	DD	FLAT:?netSendAuraRefineAccept@@YAPAU_object@@PAU1@0@Z
	DD	01H
	ORG $+4
	DD	FLAT:??_C@_0BF@NDLLIABO@SendAuraRefineCancel@
	DD	FLAT:?netSendAuraRefineCancel@@YAPAU_object@@PAU1@0@Z
	DD	01H
	ORG $+4
	DD	FLAT:??_C@_0BA@EKELKFID@CheckUsePetItem@
	DD	FLAT:?netCheckUsePetItem@@YAPAU_object@@PAU1@0@Z
	DD	01H
	ORG $+4
	DD	FLAT:??_C@_0BC@DPPMLCAB@SendPetFeedPacket@
	DD	FLAT:?netSendPetFeedPacket@@YAPAU_object@@PAU1@0@Z
	DD	01H
	ORG $+4
	DD	FLAT:??_C@_0BG@CAPLAGOH@SendPetHatchingPacket@
	DD	FLAT:?netSendPetHatchingPacket@@YAPAU_object@@PAU1@0@Z
	DD	01H
	ORG $+4
	DD	FLAT:??_C@_0BM@GAONBPGD@SendPetHatchingWindowPacket@
	DD	FLAT:?netSendPetHatchingWindowPacket@@YAPAU_object@@PAU1@0@Z
	DD	01H
	ORG $+4
	DD	FLAT:??_C@_0BI@EBDKMLFG@SendPetNameChangePacket@
	DD	FLAT:?netSendPetNameChangePacket@@YAPAU_object@@PAU1@0@Z
	DD	01H
	ORG $+4
	DD	FLAT:??_C@_0BO@CHBKNLKN@SendPetNameChangeWindowPacket@
	DD	FLAT:?netSendPetNameChangeWindowPacket@@YAPAU_object@@PAU1@0@Z
	DD	01H
	ORG $+4
	DD	FLAT:??_C@_0BC@ODGMFKGN@SendPetWindowType@
	DD	FLAT:?netSendPetWindowType@@YAPAU_object@@PAU1@0@Z
	DD	01H
	ORG $+4
	DD	FLAT:??_C@_0BC@JMDGNLBA@SendPetLearnSkill@
	DD	FLAT:?netSendPetLearnSkill@@YAPAU_object@@PAU1@0@Z
	DD	01H
	ORG $+4
	DD	FLAT:??_C@_0BL@KHAOMOFC@SendPetSkillUpgradeRequest@
	DD	FLAT:?netSendPetSkillUpgradeRequest@@YAPAU_object@@PAU1@0@Z
	DD	01H
	ORG $+4
	DD	FLAT:??_C@_0BD@GMMPELPL@SendPetDeleteSkill@
	DD	FLAT:?netSendPetDeleteSkill@@YAPAU_object@@PAU1@0@Z
	DD	01H
	ORG $+4
	DD	FLAT:??_C@_0BG@PCKLFOPF@SendPetDeleteAllSkill@
	DD	FLAT:?netSendPetDeleteAllSkill@@YAPAU_object@@PAU1@0@Z
	DD	01H
	ORG $+4
	DD	FLAT:??_C@_0BF@IELOFHOB@SendPetAttrDetermine@
	DD	FLAT:?netSendPetAttrDetermine@@YAPAU_object@@PAU1@0@Z
	DD	01H
	ORG $+4
	DD	FLAT:??_C@_0BC@LDLOKAHN@SendPetAttrChange@
	DD	FLAT:?netSendPetAttrChange@@YAPAU_object@@PAU1@0@Z
	DD	01H
	ORG $+4
	DD	FLAT:??_C@_0O@FEFPMGMH@SendPetRevive@
	DD	FLAT:?netSendPetRevive@@YAPAU_object@@PAU1@0@Z
	DD	01H
	ORG $+4
	DD	FLAT:??_C@_0BG@KJDOPNFA@SendChangeLookCheckIn@
	DD	FLAT:?netSendChangeLookCheckIn@@YAPAU_object@@PAU1@0@Z
	DD	01H
	ORG $+4
	DD	FLAT:??_C@_0BH@BFIJMALG@SendChangeLookCheckOut@
	DD	FLAT:?netSendChangeLookCheckOut@@YAPAU_object@@PAU1@0@Z
	DD	01H
	ORG $+4
	DD	FLAT:??_C@_0CC@KAHMBMII@SendChangeLookCheckInFreeYangIt@
	DD	FLAT:?netSendChangeLookCheckInFreeYangItem@@YAPAU_object@@PAU1@0@Z
	DD	01H
	ORG $+4
	DD	FLAT:??_C@_0CD@CGFABPFC@SendChangeLookCheckOutFreeYangI@
	DD	FLAT:?netSendChangeLookCheckOutFreeYangItem@@YAPAU_object@@PAU1@0@Z
	DD	01H
	ORG $+4
	DD	FLAT:??_C@_0BH@BFIJMALG@SendChangeLookCheckOut@
	DD	FLAT:?netSendChangeLookCheckOut@@YAPAU_object@@PAU1@0@Z
	DD	01H
	ORG $+4
	DD	FLAT:??_C@_0BF@FLBAAAK@SendChangeLookAccept@
	DD	FLAT:?netSendChangeLookAccept@@YAPAU_object@@PAU1@0@Z
	DD	01H
	ORG $+4
	DD	FLAT:??_C@_0BF@OEMKPNHP@SendChangeLookCanCle@
	DD	FLAT:?netSendChangeLookCancel@@YAPAU_object@@PAU1@0@Z
	DD	01H
	ORG $+4
	DD	FLAT:??_C@_0BC@BHMNHCBE@SendHuntingAction@
	DD	FLAT:?netSendHuntingAction@@YAPAU_object@@PAU1@0@Z
	DD	01H
	ORG $+4
	DD	00H
	DD	00H
	ORG $+8
_DATA	ENDS
;	COMDAT ??_C@_0BE@JDFPADGF@BIOLOG_MANAGER_SEND@
CONST	SEGMENT
??_C@_0BE@JDFPADGF@BIOLOG_MANAGER_SEND@ DB 'BIOLOG_MANAGER_SEND', 00H ; `string'
CONST	ENDS
;	COMDAT ??_C@_0BF@HOEEONGC@BIOLOG_MANAGER_TIMER@
CONST	SEGMENT
??_C@_0BF@HOEEONGC@BIOLOG_MANAGER_TIMER@ DB 'BIOLOG_MANAGER_TIMER', 00H ; `string'
CONST	ENDS
;	COMDAT ??_C@_0BN@OJONLPHM@DS_SUB_HEADER_REFINE_SUCCEED@
CONST	SEGMENT
??_C@_0BN@OJONLPHM@DS_SUB_HEADER_REFINE_SUCCEED@ DB 'DS_SUB_HEADER_REFINE'
	DB	'_SUCCEED', 00H				; `string'
CONST	ENDS
;	COMDAT ??_C@_0BE@KHDCNJCA@BIOLOG_MANAGER_OPEN@
CONST	SEGMENT
??_C@_0BE@KHDCNJCA@BIOLOG_MANAGER_OPEN@ DB 'BIOLOG_MANAGER_OPEN', 00H ; `string'
CONST	ENDS
;	COMDAT ??_C@_0CO@HIKHGDBM@DS_SUB_HEADER_REFINE_FAIL_NOT_E@
CONST	SEGMENT
??_C@_0CO@HIKHGDBM@DS_SUB_HEADER_REFINE_FAIL_NOT_E@ DB 'DS_SUB_HEADER_REF'
	DB	'INE_FAIL_NOT_ENOUGH_MATERIAL', 00H		; `string'
CONST	ENDS
;	COMDAT ??_C@_0CM@PJCLJBCJ@DS_SUB_HEADER_REFINE_FAIL_TOO_M@
CONST	SEGMENT
??_C@_0CM@PJCLJBCJ@DS_SUB_HEADER_REFINE_FAIL_TOO_M@ DB 'DS_SUB_HEADER_REF'
	DB	'INE_FAIL_TOO_MUCH_MATERIAL', 00H		; `string'
CONST	ENDS
;	COMDAT ??_C@_0CL@CHMHFOOJ@DS_SUB_HEADER_REFINE_FAIL_INVAL@
CONST	SEGMENT
??_C@_0CL@CHMHFOOJ@DS_SUB_HEADER_REFINE_FAIL_INVAL@ DB 'DS_SUB_HEADER_REF'
	DB	'INE_FAIL_INVALID_MATERIAL', 00H		; `string'
CONST	ENDS
;	COMDAT ??_C@_0CL@DKLCPNME@DS_SUB_HEADER_REFINE_FAIL_NOT_E@
CONST	SEGMENT
??_C@_0CL@DKLCPNME@DS_SUB_HEADER_REFINE_FAIL_NOT_E@ DB 'DS_SUB_HEADER_REF'
	DB	'INE_FAIL_NOT_ENOUGH_MONEY', 00H		; `string'
CONST	ENDS
;	COMDAT ??_C@_0BK@IMPJEABP@DS_SUB_HEADER_REFINE_FAIL@
CONST	SEGMENT
??_C@_0BK@IMPJEABP@DS_SUB_HEADER_REFINE_FAIL@ DB 'DS_SUB_HEADER_REFINE_FA'
	DB	'IL', 00H					; `string'
CONST	ENDS
;	COMDAT ??_C@_0CF@NHMIOPGD@DS_SUB_HEADER_REFINE_FAIL_MAX_R@
CONST	SEGMENT
??_C@_0CF@NHMIOPGD@DS_SUB_HEADER_REFINE_FAIL_MAX_R@ DB 'DS_SUB_HEADER_REF'
	DB	'INE_FAIL_MAX_REFINE', 00H			; `string'
CONST	ENDS
;	COMDAT ??_C@_08HPFPLIJI@EMPIRE_B@
CONST	SEGMENT
??_C@_08HPFPLIJI@EMPIRE_B@ DB 'EMPIRE_B', 00H		; `string'
CONST	ENDS
;	COMDAT ??_C@_08GGEEIJNJ@EMPIRE_C@
CONST	SEGMENT
??_C@_08GGEEIJNJ@EMPIRE_C@ DB 'EMPIRE_C', 00H		; `string'
CONST	ENDS
;	COMDAT ??_C@_0BE@FCDHFIHM@SERVER_COMMAND_QUIT@
CONST	SEGMENT
??_C@_0BE@FCDHFIHM@SERVER_COMMAND_QUIT@ DB 'SERVER_COMMAND_QUIT', 00H ; `string'
CONST	ENDS
;	COMDAT ??_C@_08FEHCOLFL@EMPIRE_A@
CONST	SEGMENT
??_C@_08FEHCOLFL@EMPIRE_A@ DB 'EMPIRE_A', 00H		; `string'
CONST	ENDS
;	COMDAT ??_C@_0BH@IJCJGIEO@SERVER_COMMAND_LOG_OUT@
CONST	SEGMENT
??_C@_0BH@IJCJGIEO@SERVER_COMMAND_LOG_OUT@ DB 'SERVER_COMMAND_LOG_OUT', 00H ; `string'
CONST	ENDS
;	COMDAT ??_C@_0CK@IDBHOJE@SERVER_COMMAND_RETURN_TO_SELECT@
CONST	SEGMENT
??_C@_0CK@IDBHOJE@SERVER_COMMAND_RETURN_TO_SELECT@ DB 'SERVER_COMMAND_RET'
	DB	'URN_TO_SELECT_CHARACTER', 00H		; `string'
CONST	ENDS
;	COMDAT ??_C@_0CF@GNEHPDHB@ACCOUNT_CHARACTER_SLOT_LAST_PLA@
CONST	SEGMENT
??_C@_0CF@GNEHPDHB@ACCOUNT_CHARACTER_SLOT_LAST_PLA@ DB 'ACCOUNT_CHARACTER'
	DB	'_SLOT_LAST_PLAYTIME', 00H			; `string'
CONST	ENDS
;	COMDAT ??_C@_0CA@IIDLBDLK@ACCOUNT_CHARACTER_SLOT_MAPINDEX@
CONST	SEGMENT
??_C@_0CA@IIDLBDLK@ACCOUNT_CHARACTER_SLOT_MAPINDEX@ DB 'ACCOUNT_CHARACTER'
	DB	'_SLOT_MAPINDEX', 00H			; `string'
CONST	ENDS
;	COMDAT ??_C@_0BM@LAKJJJHL@ACCOUNT_CHARACTER_SLOT_ACCE@
CONST	SEGMENT
??_C@_0BM@LAKJJJHL@ACCOUNT_CHARACTER_SLOT_ACCE@ DB 'ACCOUNT_CHARACTER_SLO'
	DB	'T_ACCE', 00H				; `string'
CONST	ENDS
;	COMDAT ??_C@_0BM@LMFDJNHL@ACCOUNT_CHARACTER_SLOT_AURA@
CONST	SEGMENT
??_C@_0BM@LMFDJNHL@ACCOUNT_CHARACTER_SLOT_AURA@ DB 'ACCOUNT_CHARACTER_SLO'
	DB	'T_AURA', 00H				; `string'
CONST	ENDS
;	COMDAT ??_C@_0CI@NIHCCHJE@ACCOUNT_CHARACTER_SLOT_CHANGE_N@
CONST	SEGMENT
??_C@_0CI@NIHCCHJE@ACCOUNT_CHARACTER_SLOT_CHANGE_N@ DB 'ACCOUNT_CHARACTER'
	DB	'_SLOT_CHANGE_NAME_FLAG', 00H		; `string'
CONST	ENDS
;	COMDAT ??_C@_0BM@BPKEDCMB@ACCOUNT_CHARACTER_SLOT_HAIR@
CONST	SEGMENT
??_C@_0BM@BPKEDCMB@ACCOUNT_CHARACTER_SLOT_HAIR@ DB 'ACCOUNT_CHARACTER_SLO'
	DB	'T_HAIR', 00H				; `string'
CONST	ENDS
;	COMDAT ??_C@_0CA@GFKKICFN@ACCOUNT_CHARACTER_SLOT_GUILD_ID@
CONST	SEGMENT
??_C@_0CA@GFKKICFN@ACCOUNT_CHARACTER_SLOT_GUILD_ID@ DB 'ACCOUNT_CHARACTER'
	DB	'_SLOT_GUILD_ID', 00H			; `string'
CONST	ENDS
;	COMDAT ??_C@_0CC@HMBBCNEO@ACCOUNT_CHARACTER_SLOT_GUILD_NA@
CONST	SEGMENT
??_C@_0CC@HMBBCNEO@ACCOUNT_CHARACTER_SLOT_GUILD_NA@ DB 'ACCOUNT_CHARACTER'
	DB	'_SLOT_GUILD_NAME', 00H			; `string'
CONST	ENDS
;	COMDAT ??_C@_0BM@CNLCDDNB@ACCOUNT_CHARACTER_SLOT_ADDR@
CONST	SEGMENT
??_C@_0BM@CNLCDDNB@ACCOUNT_CHARACTER_SLOT_ADDR@ DB 'ACCOUNT_CHARACTER_SLO'
	DB	'T_ADDR', 00H				; `string'
CONST	ENDS
;	COMDAT ??_C@_0BM@OJMCHCKG@ACCOUNT_CHARACTER_SLOT_PORT@
CONST	SEGMENT
??_C@_0BM@OJMCHCKG@ACCOUNT_CHARACTER_SLOT_PORT@ DB 'ACCOUNT_CHARACTER_SLO'
	DB	'T_PORT', 00H				; `string'
CONST	ENDS
;	COMDAT ??_C@_0CA@KFILFMPG@ACCOUNT_CHARACTER_SLOT_PLAYTIME@
CONST	SEGMENT
??_C@_0CA@KFILFMPG@ACCOUNT_CHARACTER_SLOT_PLAYTIME@ DB 'ACCOUNT_CHARACTER'
	DB	'_SLOT_PLAYTIME', 00H			; `string'
CONST	ENDS
;	COMDAT ??_C@_0BM@JNGCLJJM@ACCOUNT_CHARACTER_SLOT_FORM@
CONST	SEGMENT
??_C@_0BM@JNGCLJJM@ACCOUNT_CHARACTER_SLOT_FORM@ DB 'ACCOUNT_CHARACTER_SLO'
	DB	'T_FORM', 00H				; `string'
CONST	ENDS
;	COMDAT ??_C@_0BL@LHFINDEP@ACCOUNT_CHARACTER_SLOT_INT@
CONST	SEGMENT
??_C@_0BL@LHFINDEP@ACCOUNT_CHARACTER_SLOT_INT@ DB 'ACCOUNT_CHARACTER_SLOT'
	DB	'_INT', 00H					; `string'
CONST	ENDS
;	COMDAT ??_C@_0BL@PICCMPNB@ACCOUNT_CHARACTER_SLOT_HTH@
CONST	SEGMENT
??_C@_0BL@PICCMPNB@ACCOUNT_CHARACTER_SLOT_HTH@ DB 'ACCOUNT_CHARACTER_SLOT'
	DB	'_HTH', 00H					; `string'
CONST	ENDS
;	COMDAT ??_C@_0BL@MPBHOFJE@ACCOUNT_CHARACTER_SLOT_STR@
CONST	SEGMENT
??_C@_0BL@MPBHOFJE@ACCOUNT_CHARACTER_SLOT_STR@ DB 'ACCOUNT_CHARACTER_SLOT'
	DB	'_STR', 00H					; `string'
CONST	ENDS
;	COMDAT ??_C@_0BL@OFNCKLHP@ACCOUNT_CHARACTER_SLOT_DEX@
CONST	SEGMENT
??_C@_0BL@OFNCKLHP@ACCOUNT_CHARACTER_SLOT_DEX@ DB 'ACCOUNT_CHARACTER_SLOT'
	DB	'_DEX', 00H					; `string'
CONST	ENDS
;	COMDAT ??_C@_0BM@DNOALMKC@ACCOUNT_CHARACTER_SLOT_RACE@
CONST	SEGMENT
??_C@_0BM@DNOALMKC@ACCOUNT_CHARACTER_SLOT_RACE@ DB 'ACCOUNT_CHARACTER_SLO'
	DB	'T_RACE', 00H				; `string'
CONST	ENDS
;	COMDAT ??_C@_0BN@MPLCEAPH@ACCOUNT_CHARACTER_SLOT_LEVEL@
CONST	SEGMENT
??_C@_0BN@MPLCEAPH@ACCOUNT_CHARACTER_SLOT_LEVEL@ DB 'ACCOUNT_CHARACTER_SL'
	DB	'OT_LEVEL', 00H				; `string'
CONST	ENDS
;	COMDAT ??_C@_0BK@HDGGAJBJ@ACCOUNT_CHARACTER_SLOT_ID@
CONST	SEGMENT
??_C@_0BK@HDGGAJBJ@ACCOUNT_CHARACTER_SLOT_ID@ DB 'ACCOUNT_CHARACTER_SLOT_'
	DB	'ID', 00H					; `string'
CONST	ENDS
;	COMDAT ??_C@_0BM@JCGOOLCL@ACCOUNT_CHARACTER_SLOT_NAME@
CONST	SEGMENT
??_C@_0BM@JCGOOLCL@ACCOUNT_CHARACTER_SLOT_NAME@ DB 'ACCOUNT_CHARACTER_SLO'
	DB	'T_NAME', 00H				; `string'
CONST	ENDS
;	COMDAT ??_C@_0BE@IIMEMMI@PHASE_WINDOW_EMPIRE@
CONST	SEGMENT
??_C@_0BE@IIMEMMI@PHASE_WINDOW_EMPIRE@ DB 'PHASE_WINDOW_EMPIRE', 00H ; `string'
CONST	ENDS
;	COMDAT ??_C@_0BC@BCDCNNFP@PHASE_WINDOW_LOGO@
CONST	SEGMENT
??_C@_0BC@BCDCNNFP@PHASE_WINDOW_LOGO@ DB 'PHASE_WINDOW_LOGO', 00H ; `string'
CONST	ENDS
;	COMDAT ??_C@_0BC@PFELHICG@PHASE_WINDOW_LOAD@
CONST	SEGMENT
??_C@_0BC@PFELHICG@PHASE_WINDOW_LOAD@ DB 'PHASE_WINDOW_LOAD', 00H ; `string'
CONST	ENDS
;	COMDAT ??_C@_0BC@HCEFPGCB@PHASE_WINDOW_GAME@
CONST	SEGMENT
??_C@_0BC@HCEFPGCB@PHASE_WINDOW_GAME@ DB 'PHASE_WINDOW_GAME', 00H ; `string'
CONST	ENDS
;	COMDAT ??_C@_0BE@EBCKEIDN@PHASE_WINDOW_SELECT@
CONST	SEGMENT
??_C@_0BE@EBCKEIDN@PHASE_WINDOW_SELECT@ DB 'PHASE_WINDOW_SELECT', 00H ; `string'
CONST	ENDS
;	COMDAT ??_C@_0BE@PAOFIFBD@PHASE_WINDOW_CREATE@
CONST	SEGMENT
??_C@_0BE@PAOFIFBD@PHASE_WINDOW_CREATE@ DB 'PHASE_WINDOW_CREATE', 00H ; `string'
CONST	ENDS
;	COMDAT ??_C@_0CA@JMHMMKLO@ERROR_MARK_CHECK_NEED_RECONNECT@
CONST	SEGMENT
??_C@_0CA@JMHMMKLO@ERROR_MARK_CHECK_NEED_RECONNECT@ DB 'ERROR_MARK_CHECK_'
	DB	'NEED_RECONNECT', 00H			; `string'
CONST	ENDS
;	COMDAT ??_C@_0BD@JBLBGAIB@PHASE_WINDOW_LOGIN@
CONST	SEGMENT
??_C@_0BD@JBLBGAIB@PHASE_WINDOW_LOGIN@ DB 'PHASE_WINDOW_LOGIN', 00H ; `string'
CONST	ENDS
;	COMDAT ??_C@_0BC@GOIIBBEJ@ERROR_MARK_HEIGHT@
CONST	SEGMENT
??_C@_0BC@GOIIBBEJ@ERROR_MARK_HEIGHT@ DB 'ERROR_MARK_HEIGHT', 00H ; `string'
CONST	ENDS
;	COMDAT ??_C@_0CB@BOPIDGGI@ERROR_MARK_UPLOAD_NEED_RECONNEC@
CONST	SEGMENT
??_C@_0CB@BOPIDGGI@ERROR_MARK_UPLOAD_NEED_RECONNEC@ DB 'ERROR_MARK_UPLOAD'
	DB	'_NEED_RECONNECT', 00H			; `string'
CONST	ENDS
;	COMDAT ??_C@_0BA@NEJKKBEJ@ERROR_LOAD_MARK@
CONST	SEGMENT
??_C@_0BA@NEJKKBEJ@ERROR_LOAD_MARK@ DB 'ERROR_LOAD_MARK', 00H ; `string'
CONST	ENDS
;	COMDAT ??_C@_0BB@FEGLKDMB@ERROR_MARK_WIDTH@
CONST	SEGMENT
??_C@_0BB@FEGLKDMB@ERROR_MARK_WIDTH@ DB 'ERROR_MARK_WIDTH', 00H ; `string'
CONST	ENDS
;	COMDAT ??_C@_0L@LILDODAP@ERROR_NONE@
CONST	SEGMENT
??_C@_0L@LILDODAP@ERROR_NONE@ DB 'ERROR_NONE', 00H	; `string'
CONST	ENDS
;	COMDAT ??_C@_0BK@BILAANNF@ERROR_CONNECT_MARK_SERVER@
CONST	SEGMENT
??_C@_0BK@BILAANNF@ERROR_CONNECT_MARK_SERVER@ DB 'ERROR_CONNECT_MARK_SERV'
	DB	'ER', 00H					; `string'
CONST	ENDS
;	COMDAT ??_C@_0BF@OEMKPNHP@SendChangeLookCanCle@
CONST	SEGMENT
??_C@_0BF@OEMKPNHP@SendChangeLookCanCle@ DB 'SendChangeLookCanCle', 00H ; `string'
CONST	ENDS
;	COMDAT ??_C@_0BC@BHMNHCBE@SendHuntingAction@
CONST	SEGMENT
??_C@_0BC@BHMNHCBE@SendHuntingAction@ DB 'SendHuntingAction', 00H ; `string'
CONST	ENDS
;	COMDAT ??_C@_0CD@CGFABPFC@SendChangeLookCheckOutFreeYangI@
CONST	SEGMENT
??_C@_0CD@CGFABPFC@SendChangeLookCheckOutFreeYangI@ DB 'SendChangeLookChe'
	DB	'ckOutFreeYangItem', 00H			; `string'
CONST	ENDS
;	COMDAT ??_C@_0BF@FLBAAAK@SendChangeLookAccept@
CONST	SEGMENT
??_C@_0BF@FLBAAAK@SendChangeLookAccept@ DB 'SendChangeLookAccept', 00H ; `string'
CONST	ENDS
;	COMDAT ??_C@_0BH@BFIJMALG@SendChangeLookCheckOut@
CONST	SEGMENT
??_C@_0BH@BFIJMALG@SendChangeLookCheckOut@ DB 'SendChangeLookCheckOut', 00H ; `string'
CONST	ENDS
;	COMDAT ??_C@_0CC@KAHMBMII@SendChangeLookCheckInFreeYangIt@
CONST	SEGMENT
??_C@_0CC@KAHMBMII@SendChangeLookCheckInFreeYangIt@ DB 'SendChangeLookChe'
	DB	'ckInFreeYangItem', 00H			; `string'
CONST	ENDS
;	COMDAT ??_C@_0O@FEFPMGMH@SendPetRevive@
CONST	SEGMENT
??_C@_0O@FEFPMGMH@SendPetRevive@ DB 'SendPetRevive', 00H ; `string'
CONST	ENDS
;	COMDAT ??_C@_0BG@KJDOPNFA@SendChangeLookCheckIn@
CONST	SEGMENT
??_C@_0BG@KJDOPNFA@SendChangeLookCheckIn@ DB 'SendChangeLookCheckIn', 00H ; `string'
CONST	ENDS
;	COMDAT ??_C@_0BF@IELOFHOB@SendPetAttrDetermine@
CONST	SEGMENT
??_C@_0BF@IELOFHOB@SendPetAttrDetermine@ DB 'SendPetAttrDetermine', 00H ; `string'
CONST	ENDS
;	COMDAT ??_C@_0BC@LDLOKAHN@SendPetAttrChange@
CONST	SEGMENT
??_C@_0BC@LDLOKAHN@SendPetAttrChange@ DB 'SendPetAttrChange', 00H ; `string'
CONST	ENDS
;	COMDAT ??_C@_0BD@GMMPELPL@SendPetDeleteSkill@
CONST	SEGMENT
??_C@_0BD@GMMPELPL@SendPetDeleteSkill@ DB 'SendPetDeleteSkill', 00H ; `string'
CONST	ENDS
;	COMDAT ??_C@_0BG@PCKLFOPF@SendPetDeleteAllSkill@
CONST	SEGMENT
??_C@_0BG@PCKLFOPF@SendPetDeleteAllSkill@ DB 'SendPetDeleteAllSkill', 00H ; `string'
CONST	ENDS
;	COMDAT ??_C@_0BC@JMDGNLBA@SendPetLearnSkill@
CONST	SEGMENT
??_C@_0BC@JMDGNLBA@SendPetLearnSkill@ DB 'SendPetLearnSkill', 00H ; `string'
CONST	ENDS
;	COMDAT ??_C@_0BL@KHAOMOFC@SendPetSkillUpgradeRequest@
CONST	SEGMENT
??_C@_0BL@KHAOMOFC@SendPetSkillUpgradeRequest@ DB 'SendPetSkillUpgradeReq'
	DB	'uest', 00H					; `string'
CONST	ENDS
;	COMDAT ??_C@_0BO@CHBKNLKN@SendPetNameChangeWindowPacket@
CONST	SEGMENT
??_C@_0BO@CHBKNLKN@SendPetNameChangeWindowPacket@ DB 'SendPetNameChangeWi'
	DB	'ndowPacket', 00H				; `string'
CONST	ENDS
;	COMDAT ??_C@_0BC@ODGMFKGN@SendPetWindowType@
CONST	SEGMENT
??_C@_0BC@ODGMFKGN@SendPetWindowType@ DB 'SendPetWindowType', 00H ; `string'
CONST	ENDS
;	COMDAT ??_C@_0BM@GAONBPGD@SendPetHatchingWindowPacket@
CONST	SEGMENT
??_C@_0BM@GAONBPGD@SendPetHatchingWindowPacket@ DB 'SendPetHatchingWindow'
	DB	'Packet', 00H				; `string'
CONST	ENDS
;	COMDAT ??_C@_0BI@EBDKMLFG@SendPetNameChangePacket@
CONST	SEGMENT
??_C@_0BI@EBDKMLFG@SendPetNameChangePacket@ DB 'SendPetNameChangePacket', 00H ; `string'
CONST	ENDS
;	COMDAT ??_C@_0BC@DPPMLCAB@SendPetFeedPacket@
CONST	SEGMENT
??_C@_0BC@DPPMLCAB@SendPetFeedPacket@ DB 'SendPetFeedPacket', 00H ; `string'
CONST	ENDS
;	COMDAT ??_C@_0BG@CAPLAGOH@SendPetHatchingPacket@
CONST	SEGMENT
??_C@_0BG@CAPLAGOH@SendPetHatchingPacket@ DB 'SendPetHatchingPacket', 00H ; `string'
CONST	ENDS
;	COMDAT ??_C@_0BF@NDLLIABO@SendAuraRefineCancel@
CONST	SEGMENT
??_C@_0BF@NDLLIABO@SendAuraRefineCancel@ DB 'SendAuraRefineCancel', 00H ; `string'
CONST	ENDS
;	COMDAT ??_C@_0BA@EKELKFID@CheckUsePetItem@
CONST	SEGMENT
??_C@_0BA@EKELKFID@CheckUsePetItem@ DB 'CheckUsePetItem', 00H ; `string'
CONST	ENDS
;	COMDAT ??_C@_0BH@DAGPIIGN@SendAuraRefineCheckOut@
CONST	SEGMENT
??_C@_0BH@DAGPIIGN@SendAuraRefineCheckOut@ DB 'SendAuraRefineCheckOut', 00H ; `string'
CONST	ENDS
;	COMDAT ??_C@_0BF@EMOBFCJD@SendAuraRefineAccept@
CONST	SEGMENT
??_C@_0BF@EMOBFCJD@SendAuraRefineAccept@ DB 'SendAuraRefineAccept', 00H ; `string'
CONST	ENDS
;	COMDAT ??_C@_0P@HANGMIDD@RegisterSkills@
CONST	SEGMENT
??_C@_0P@HANGMIDD@RegisterSkills@ DB 'RegisterSkills', 00H ; `string'
CONST	ENDS
;	COMDAT ??_C@_0BG@CAKEIGOC@SendAuraRefineCheckIn@
CONST	SEGMENT
??_C@_0BG@CAKEIGOC@SendAuraRefineCheckIn@ DB 'SendAuraRefineCheckIn', 00H ; `string'
CONST	ENDS
;	COMDAT ??_C@_0BP@EMBKKKAC@SendQuestInputStringLongPacket@
CONST	SEGMENT
??_C@_0BP@EMBKKKAC@SendQuestInputStringLongPacket@ DB 'SendQuestInputStri'
	DB	'ngLongPacket', 00H				; `string'
CONST	ENDS
;	COMDAT ??_C@_0BF@IBLIMNKE@LoadResourcesInCache@
CONST	SEGMENT
??_C@_0BF@IBLIMNKE@LoadResourcesInCache@ DB 'LoadResourcesInCache', 00H ; `string'
CONST	ENDS
;	COMDAT ??_C@_0BA@GINOFKMH@SendOpenWithVID@
CONST	SEGMENT
??_C@_0BA@GINOFKMH@SendOpenWithVID@ DB 'SendOpenWithVID', 00H ; `string'
CONST	ENDS
;	COMDAT ??_C@_0BK@MFBNGEKH@SendPrivateShopSearchInfo@
CONST	SEGMENT
??_C@_0BK@MFBNGEKH@SendPrivateShopSearchInfo@ DB 'SendPrivateShopSearchIn'
	DB	'fo', 00H					; `string'
CONST	ENDS
;	COMDAT ??_C@_0BB@CCPJMAB@SendGetBackItems@
CONST	SEGMENT
??_C@_0BB@CCPJMAB@SendGetBackItems@ DB 'SendGetBackItems', 00H ; `string'
CONST	ENDS
;	COMDAT ??_C@_0M@PKHOJOKH@SendAddTime@
CONST	SEGMENT
??_C@_0M@PKHOJOKH@SendAddTime@ DB 'SendAddTime', 00H	; `string'
CONST	ENDS
;	COMDAT ??_C@_0BK@BHBMOPGA@SendOfflineShopRemoveLogs@
CONST	SEGMENT
??_C@_0BK@BHBMOPGA@SendOfflineShopRemoveLogs@ DB 'SendOfflineShopRemoveLo'
	DB	'gs', 00H					; `string'
CONST	ENDS
;	COMDAT ??_C@_0BB@DODFFFJG@SendOpenShopSlot@
CONST	SEGMENT
??_C@_0BB@DODFFFJG@SendOpenShopSlot@ DB 'SendOpenShopSlot', 00H ; `string'
CONST	ENDS
;	COMDAT ??_C@_0BF@IDFHMEFI@SendOfflineShopCheck@
CONST	SEGMENT
??_C@_0BF@IDFHMEFI@SendOfflineShopCheck@ DB 'SendOfflineShopCheck', 00H ; `string'
CONST	ENDS
;	COMDAT ??_C@_0BG@BADFKLBC@SendOfflineShopButton@
CONST	SEGMENT
??_C@_0BG@BADFKLBC@SendOfflineShopButton@ DB 'SendOfflineShopButton', 00H ; `string'
CONST	ENDS
;	COMDAT ??_C@_0BF@FGMFPANA@SendTakeOfflineMoney@
CONST	SEGMENT
??_C@_0BF@FGMFPANA@SendTakeOfflineMoney@ DB 'SendTakeOfflineMoney', 00H ; `string'
CONST	ENDS
;	COMDAT ??_C@_0BL@IBEDKCND@SendOfflineShopChangeTitle@
CONST	SEGMENT
??_C@_0BL@IBEDKCND@SendOfflineShopChangeTitle@ DB 'SendOfflineShopChangeT'
	DB	'itle', 00H					; `string'
CONST	ENDS
;	COMDAT ??_C@_0BK@MHCHACHJ@SendRemoveOfflineShopItem@
CONST	SEGMENT
??_C@_0BK@MHCHACHJ@SendRemoveOfflineShopItem@ DB 'SendRemoveOfflineShopIt'
	DB	'em', 00H					; `string'
CONST	ENDS
;	COMDAT ??_C@_0BH@MIDGLPNJ@SendDestroyOfflineShop@
CONST	SEGMENT
??_C@_0BH@MIDGLPNJ@SendDestroyOfflineShop@ DB 'SendDestroyOfflineShop', 00H ; `string'
CONST	ENDS
;	COMDAT ??_C@_0BJ@IPOHLOKL@SendOfflineShopBuyPacket@
CONST	SEGMENT
??_C@_0BJ@IPOHLOKL@SendOfflineShopBuyPacket@ DB 'SendOfflineShopBuyPacket'
	DB	00H						; `string'
CONST	ENDS
;	COMDAT ??_C@_0BH@OAFMCCNO@SendAddOfflineShopItem@
CONST	SEGMENT
??_C@_0BH@OAFMCCNO@SendAddOfflineShopItem@ DB 'SendAddOfflineShopItem', 00H ; `string'
CONST	ENDS
;	COMDAT ??_C@_0BN@FGANJKPC@SendExtBattlePassPremiumItem@
CONST	SEGMENT
??_C@_0BN@FGANJKPC@SendExtBattlePassPremiumItem@ DB 'SendExtBattlePassPre'
	DB	'miumItem', 00H				; `string'
CONST	ENDS
;	COMDAT ??_C@_0BJ@KEBAFNIE@SendOfflineShopEndPacket@
CONST	SEGMENT
??_C@_0BJ@KEBAFNIE@SendOfflineShopEndPacket@ DB 'SendOfflineShopEndPacket'
	DB	00H						; `string'
CONST	ENDS
;	COMDAT ??_C@_0BF@EGLLPLHB@SendRequestEventData@
CONST	SEGMENT
??_C@_0BF@EGLLPLHB@SendRequestEventData@ DB 'SendRequestEventData', 00H ; `string'
CONST	ENDS
;	COMDAT ??_C@_0BI@OCAOJHPJ@SendExtBattlePassAction@
CONST	SEGMENT
??_C@_0BI@OCAOJHPJ@SendExtBattlePassAction@ DB 'SendExtBattlePassAction', 00H ; `string'
CONST	ENDS
;	COMDAT ??_C@_0BC@MKMPHPEO@SendChestDropInfo@
CONST	SEGMENT
??_C@_0BC@MKMPHPEO@SendChestDropInfo@ DB 'SendChestDropInfo', 00H ; `string'
CONST	ENDS
;	COMDAT ??_C@_0BG@FNGLKDCN@SendRequestEventQuest@
CONST	SEGMENT
??_C@_0BG@FNGLKDCN@SendRequestEventQuest@ DB 'SendRequestEventQuest', 00H ; `string'
CONST	ENDS
;	COMDAT ??_C@_0CA@DMDCCOLJ@SendMessengerSummonByNamePacket@
CONST	SEGMENT
??_C@_0CA@DMDCCOLJ@SendMessengerSummonByNamePacket@ DB 'SendMessengerSumm'
	DB	'onByNamePacket', 00H			; `string'
CONST	ENDS
;	COMDAT ??_C@_0BD@FJEJICMG@SendTargetInfoLoad@
CONST	SEGMENT
??_C@_0BD@FJEJICMG@SendTargetInfoLoad@ DB 'SendTargetInfoLoad', 00H ; `string'
CONST	ENDS
;	COMDAT ??_C@_0BD@CADFDBKC@SendWhisperDetails@
CONST	SEGMENT
??_C@_0BD@CADFDBKC@SendWhisperDetails@ DB 'SendWhisperDetails', 00H ; `string'
CONST	ENDS
;	COMDAT ??_C@_0CF@DBCMLGOB@SendMessengerRequestWarpByNameP@
CONST	SEGMENT
??_C@_0CF@DBCMLGOB@SendMessengerRequestWarpByNameP@ DB 'SendMessengerRequ'
	DB	'estWarpByNamePacket', 00H			; `string'
CONST	ENDS
;	COMDAT ??_C@_0M@BMMLELAG@SetLanguage@
CONST	SEGMENT
??_C@_0M@BMMLELAG@SetLanguage@ DB 'SetLanguage', 00H	; `string'
CONST	ENDS
;	COMDAT ??_C@_0M@BDNFJNIF@GetLanguage@
CONST	SEGMENT
??_C@_0M@BDNFJNIF@GetLanguage@ DB 'GetLanguage', 00H	; `string'
CONST	ENDS
;	COMDAT ??_C@_0BD@NCAGLKGI@SendItemSellPacket@
CONST	SEGMENT
??_C@_0BD@NCAGLKGI@SendItemSellPacket@ DB 'SendItemSellPacket', 00H ; `string'
CONST	ENDS
;	COMDAT ??_C@_0BJ@JLPIJBCL@SendChangeLanguagePacket@
CONST	SEGMENT
??_C@_0BJ@JLPIJBCL@SendChangeLanguagePacket@ DB 'SendChangeLanguagePacket'
	DB	00H						; `string'
CONST	ENDS
;	COMDAT ??_C@_0BL@HLJICMNL@SendItemNewAttributePacket@
CONST	SEGMENT
??_C@_0BL@HLJICMNL@SendItemNewAttributePacket@ DB 'SendItemNewAttributePa'
	DB	'cket', 00H					; `string'
CONST	ENDS
;	COMDAT ??_C@_0BG@LMAHKAGJ@SendItemDestroyPacket@
CONST	SEGMENT
??_C@_0BG@LMAHKAGJ@SendItemDestroyPacket@ DB 'SendItemDestroyPacket', 00H ; `string'
CONST	ENDS
;	COMDAT ??_C@_0BC@NOAKHLIH@SetSkillGroupFake@
CONST	SEGMENT
??_C@_0BC@NOAKHLIH@SetSkillGroupFake@ DB 'SetSkillGroupFake', 00H ; `string'
CONST	ENDS
;	COMDAT ??_C@_0BB@CABIEEGM@RegisterErrorLog@
CONST	SEGMENT
??_C@_0BB@CABIEEGM@RegisterErrorLog@ DB 'RegisterErrorLog', 00H ; `string'
CONST	ENDS
;	COMDAT ??_C@_0BG@HLIDKLKJ@SetPacketSequenceMode@
CONST	SEGMENT
??_C@_0BG@HLIDKLKJ@SetPacketSequenceMode@ DB 'SetPacketSequenceMode', 00H ; `string'
CONST	ENDS
;	COMDAT ??_C@_0BG@KCIMJDEA@SetEmpireLanguageMode@
CONST	SEGMENT
??_C@_0BG@KCIMJDEA@SetEmpireLanguageMode@ DB 'SetEmpireLanguageMode', 00H ; `string'
CONST	ENDS
;	COMDAT ??_C@_0BB@MBCAEHJO@SendRefinePacket@
CONST	SEGMENT
??_C@_0BB@MBCAEHJO@SendRefinePacket@ DB 'SendRefinePacket', 00H ; `string'
CONST	ENDS
;	COMDAT ??_C@_0BF@HEJDCMFH@SendSelectItemPacket@
CONST	SEGMENT
??_C@_0BF@HEJDCMFH@SendSelectItemPacket@ DB 'SendSelectItemPacket', 00H ; `string'
CONST	ENDS
;	COMDAT ??_C@_0BN@BPJGBHPL@SendGuildWithdrawMoneyPacket@
CONST	SEGMENT
??_C@_0BN@BPJGBHPL@SendGuildWithdrawMoneyPacket@ DB 'SendGuildWithdrawMon'
	DB	'eyPacket', 00H				; `string'
CONST	ENDS
;	COMDAT ??_C@_0BM@NLIMKJKK@SendRequestRefineInfoPacket@
CONST	SEGMENT
??_C@_0BM@NLIMKJKK@SendRequestRefineInfoPacket@ DB 'SendRequestRefineInfo'
	DB	'Packet', 00H				; `string'
CONST	ENDS
;	COMDAT ??_C@_0BJ@LKJGDIEE@SendGuildChargeGSPPacket@
CONST	SEGMENT
??_C@_0BJ@LKJGDIEE@SendGuildChargeGSPPacket@ DB 'SendGuildChargeGSPPacket'
	DB	00H						; `string'
CONST	ENDS
;	COMDAT ??_C@_0BM@HDHMFNNO@SendGuildDepositMoneyPacket@
CONST	SEGMENT
??_C@_0BM@HDHMFNNO@SendGuildDepositMoneyPacket@ DB 'SendGuildDepositMoney'
	DB	'Packet', 00H				; `string'
CONST	ENDS
;	COMDAT ??_C@_0CD@BMLIKMKL@SendGuildChangeMemberGeneralPac@
CONST	SEGMENT
??_C@_0CD@BMLIKMKL@SendGuildChangeMemberGeneralPac@ DB 'SendGuildChangeMe'
	DB	'mberGeneralPacket', 00H			; `string'
CONST	ENDS
;	COMDAT ??_C@_0BM@KLBFEJBI@SendGuildInviteAnswerPacket@
CONST	SEGMENT
??_C@_0BM@KLBFEJBI@SendGuildInviteAnswerPacket@ DB 'SendGuildInviteAnswer'
	DB	'Packet', 00H				; `string'
CONST	ENDS
;	COMDAT ??_C@_0CB@KOIDGNFC@SendGuildChangeMemberGradePacke@
CONST	SEGMENT
??_C@_0CB@KOIDGNFC@SendGuildChangeMemberGradePacke@ DB 'SendGuildChangeMe'
	DB	'mberGradePacket', 00H			; `string'
CONST	ENDS
;	COMDAT ??_C@_0BI@HICDMLJH@SendGuildUseSkillPacket@
CONST	SEGMENT
??_C@_0BI@HICDMLJH@SendGuildUseSkillPacket@ DB 'SendGuildUseSkillPacket', 00H ; `string'
CONST	ENDS
;	COMDAT ??_C@_0BN@MBNLMFLO@SendGuildDeleteCommentPacket@
CONST	SEGMENT
??_C@_0BN@MBNLMFLO@SendGuildDeleteCommentPacket@ DB 'SendGuildDeleteComme'
	DB	'ntPacket', 00H				; `string'
CONST	ENDS
;	COMDAT ??_C@_0BP@BKEOCNGM@SendGuildRefreshCommentsPacket@
CONST	SEGMENT
??_C@_0BP@BKEOCNGM@SendGuildRefreshCommentsPacket@ DB 'SendGuildRefreshCo'
	DB	'mmentsPacket', 00H				; `string'
CONST	ENDS
;	COMDAT ??_C@_0BF@OAFAHAKB@SendGuildOfferPacket@
CONST	SEGMENT
??_C@_0BF@OAFAHAKB@SendGuildOfferPacket@ DB 'SendGuildOfferPacket', 00H ; `string'
CONST	ENDS
;	COMDAT ??_C@_0BL@JLEHIONL@SendGuildPostCommentPacket@
CONST	SEGMENT
??_C@_0BL@JLEHIONL@SendGuildPostCommentPacket@ DB 'SendGuildPostCommentPa'
	DB	'cket', 00H					; `string'
CONST	ENDS
;	COMDAT ??_C@_0BP@ODLEJFMG@SendGuildChangeGradeNamePacket@
CONST	SEGMENT
??_C@_0BP@ODLEJFMG@SendGuildChangeGradeNamePacket@ DB 'SendGuildChangeGra'
	DB	'deNamePacket', 00H				; `string'
CONST	ENDS
;	COMDAT ??_C@_0CE@EFLFPPCO@SendGuildChangeGradeAuthorityPa@
CONST	SEGMENT
??_C@_0CE@EFLFPPCO@SendGuildChangeGradeAuthorityPa@ DB 'SendGuildChangeGr'
	DB	'adeAuthorityPacket', 00H			; `string'
CONST	ENDS
;	COMDAT ??_C@_0BJ@MFJNIJIJ@SendGuildAddMemberPacket@
CONST	SEGMENT
??_C@_0BJ@MFJNIJIJ@SendGuildAddMemberPacket@ DB 'SendGuildAddMemberPacket'
	DB	00H						; `string'
CONST	ENDS
;	COMDAT ??_C@_0BM@GAJEHHNG@SendGuildRemoveMemberPacket@
CONST	SEGMENT
??_C@_0BM@GAJEHHNG@SendGuildRemoveMemberPacket@ DB 'SendGuildRemoveMember'
	DB	'Packet', 00H				; `string'
CONST	ENDS
;	COMDAT ??_C@_0BL@BJLFPMAE@SendQuestInputStringPacket@
CONST	SEGMENT
??_C@_0BL@BJLFPMAE@SendQuestInputStringPacket@ DB 'SendQuestInputStringPa'
	DB	'cket', 00H					; `string'
CONST	ENDS
;	COMDAT ??_C@_0BH@HMDNFHNB@SendQuestConfirmPacket@
CONST	SEGMENT
??_C@_0BH@HMDNFHNB@SendQuestConfirmPacket@ DB 'SendQuestConfirmPacket', 00H ; `string'
CONST	ENDS
;	COMDAT ??_C@_0BK@JMMAEJFJ@SendSafeboxItemMovePacket@
CONST	SEGMENT
??_C@_0BK@JMMAEJFJ@SendSafeboxItemMovePacket@ DB 'SendSafeboxItemMovePack'
	DB	'et', 00H					; `string'
CONST	ENDS
;	COMDAT ??_C@_0BH@BDNDNKGE@SendMallCheckoutPacket@
CONST	SEGMENT
??_C@_0BH@BDNDNKGE@SendMallCheckoutPacket@ DB 'SendMallCheckoutPacket', 00H ; `string'
CONST	ENDS
;	COMDAT ??_C@_0BJ@HNJCKALG@SendSafeboxCheckinPacket@
CONST	SEGMENT
??_C@_0BJ@HNJCKALG@SendSafeboxCheckinPacket@ DB 'SendSafeboxCheckinPacket'
	DB	00H						; `string'
CONST	ENDS
;	COMDAT ??_C@_0BK@LJAMACPE@SendSafeboxCheckoutPacket@
CONST	SEGMENT
??_C@_0BK@LJAMACPE@SendSafeboxCheckoutPacket@ DB 'SendSafeboxCheckoutPack'
	DB	'et', 00H					; `string'
CONST	ENDS
;	COMDAT ??_C@_0BL@CAAOLIHO@SendSafeboxSaveMoneyPacket@
CONST	SEGMENT
??_C@_0BL@CAAOLIHO@SendSafeboxSaveMoneyPacket@ DB 'SendSafeboxSaveMoneyPa'
	DB	'cket', 00H					; `string'
CONST	ENDS
;	COMDAT ??_C@_0BP@MLAJADAA@SendSafeboxWithdrawMoneyPacket@
CONST	SEGMENT
??_C@_0BP@MLAJADAA@SendSafeboxWithdrawMoneyPacket@ DB 'SendSafeboxWithdra'
	DB	'wMoneyPacket', 00H				; `string'
CONST	ENDS
;	COMDAT ??_C@_0BI@EONDHFJL@SendPartyUseSkillPacket@
CONST	SEGMENT
??_C@_0BI@EONDHFJL@SendPartyUseSkillPacket@ DB 'SendPartyUseSkillPacket', 00H ; `string'
CONST	ENDS
;	COMDAT ??_C@_0BJ@JGBOMHFI@SendPartyParameterPacket@
CONST	SEGMENT
??_C@_0BJ@JGBOMHFI@SendPartyParameterPacket@ DB 'SendPartyParameterPacket'
	DB	00H						; `string'
CONST	ENDS
;	COMDAT ??_C@_0BG@JAJGIHK@SendPartyRemovePacket@
CONST	SEGMENT
??_C@_0BG@JAJGIHK@SendPartyRemovePacket@ DB 'SendPartyRemovePacket', 00H ; `string'
CONST	ENDS
;	COMDAT ??_C@_0BI@LNEGCCFH@SendPartySetStatePacket@
CONST	SEGMENT
??_C@_0BI@LNEGCCFH@SendPartySetStatePacket@ DB 'SendPartySetStatePacket', 00H ; `string'
CONST	ENDS
;	COMDAT ??_C@_0BM@PFAFFBJO@SendPartyInviteAnswerPacket@
CONST	SEGMENT
??_C@_0BM@PFAFFBJO@SendPartyInviteAnswerPacket@ DB 'SendPartyInviteAnswer'
	DB	'Packet', 00H				; `string'
CONST	ENDS
;	COMDAT ??_C@_0BE@JHFPDGFP@SendPartyExitPacket@
CONST	SEGMENT
??_C@_0BE@JHFPDGFP@SendPartyExitPacket@ DB 'SendPartyExitPacket', 00H ; `string'
CONST	ENDS
;	COMDAT ??_C@_0CE@JAGCNDAI@SendMessengerBlockRemoveByVIDPa@
CONST	SEGMENT
??_C@_0CE@JAGCNDAI@SendMessengerBlockRemoveByVIDPa@ DB 'SendMessengerBloc'
	DB	'kRemoveByVIDPacket', 00H			; `string'
CONST	ENDS
;	COMDAT ??_C@_0BG@IFGKMOED@SendPartyInvitePacket@
CONST	SEGMENT
??_C@_0BG@IFGKMOED@SendPartyInvitePacket@ DB 'SendPartyInvitePacket', 00H ; `string'
CONST	ENDS
;	COMDAT ??_C@_0BP@CFBLDODE@SendMessengerBlockRemovePacket@
CONST	SEGMENT
??_C@_0BP@CFBLDODE@SendMessengerBlockRemovePacket@ DB 'SendMessengerBlock'
	DB	'RemovePacket', 00H				; `string'
CONST	ENDS
;	COMDAT ??_C@_0CC@LOMMKDNH@SendMessengerBlockAddByNamePack@
CONST	SEGMENT
??_C@_0CC@LOMMKDNH@SendMessengerBlockAddByNamePack@ DB 'SendMessengerBloc'
	DB	'kAddByNamePacket', 00H			; `string'
CONST	ENDS
;	COMDAT ??_C@_0BK@GIIDGGBB@SendMessengerRemovePacket@
CONST	SEGMENT
??_C@_0BK@GIIDGGBB@SendMessengerRemovePacket@ DB 'SendMessengerRemovePack'
	DB	'et', 00H					; `string'
CONST	ENDS
;	COMDAT ??_C@_0CB@KIPMMBOF@SendMessengerBlockAddByVIDPacke@
CONST	SEGMENT
??_C@_0CB@KIPMMBOF@SendMessengerBlockAddByVIDPacke@ DB 'SendMessengerBloc'
	DB	'kAddByVIDPacket', 00H			; `string'
CONST	ENDS
;	COMDAT ??_C@_0BM@CFLPIFFM@SendMessengerAddByVIDPacket@
CONST	SEGMENT
??_C@_0BM@CFLPIFFM@SendMessengerAddByVIDPacket@ DB 'SendMessengerAddByVID'
	DB	'Packet', 00H				; `string'
CONST	ENDS
;	COMDAT ??_C@_0BN@MPMOLLL@SendMessengerAddByNamePacket@
CONST	SEGMENT
??_C@_0BN@MPMOLLL@SendMessengerAddByNamePacket@ DB 'SendMessengerAddByNam'
	DB	'ePacket', 00H				; `string'
CONST	ENDS
;	COMDAT ??_C@_0BC@FMJHAGEI@SendOnClickPacket@
CONST	SEGMENT
??_C@_0BC@FMJHAGEI@SendOnClickPacket@ DB 'SendOnClickPacket', 00H ; `string'
CONST	ENDS
;	COMDAT ??_C@_0BH@MCKLKDJM@RegisterEmoticonString@
CONST	SEGMENT
??_C@_0BH@MCKLKDJM@RegisterEmoticonString@ DB 'RegisterEmoticonString', 00H ; `string'
CONST	ENDS
;	COMDAT ??_C@_0BJ@OFKJBLDC@SendExchangeAcceptPacket@
CONST	SEGMENT
??_C@_0BJ@OFKJBLDC@SendExchangeAcceptPacket@ DB 'SendExchangeAcceptPacket'
	DB	00H						; `string'
CONST	ENDS
;	COMDAT ??_C@_0BH@NCONKHHB@SendExchangeExitPacket@
CONST	SEGMENT
??_C@_0BH@NCONKHHB@SendExchangeExitPacket@ DB 'SendExchangeExitPacket', 00H ; `string'
CONST	ENDS
;	COMDAT ??_C@_0BK@KKOEHGGC@SendExchangeItemDelPacket@
CONST	SEGMENT
??_C@_0BK@KKOEHGGC@SendExchangeItemDelPacket@ DB 'SendExchangeItemDelPack'
	DB	'et', 00H					; `string'
CONST	ENDS
;	COMDAT ??_C@_0BJ@CGGGIOGM@SendExchangeElkAddPacket@
CONST	SEGMENT
??_C@_0BJ@CGGGIOGM@SendExchangeElkAddPacket@ DB 'SendExchangeElkAddPacket'
	DB	00H						; `string'
CONST	ENDS
;	COMDAT ??_C@_0BI@BGNKGFKO@SendExchangeStartPacket@
CONST	SEGMENT
??_C@_0BI@BGNKGFKO@SendExchangeStartPacket@ DB 'SendExchangeStartPacket', 00H ; `string'
CONST	ENDS
;	COMDAT ??_C@_0BK@IIFDLCNA@SendExchangeItemAddPacket@
CONST	SEGMENT
??_C@_0BK@IIFDLCNA@SendExchangeItemAddPacket@ DB 'SendExchangeItemAddPack'
	DB	'et', 00H					; `string'
CONST	ENDS
;	COMDAT ??_C@_0BD@BFMEHPEE@SendShopSellPacket@
CONST	SEGMENT
??_C@_0BD@BFMEHPEE@SendShopSellPacket@ DB 'SendShopSellPacket', 00H ; `string'
CONST	ENDS
;	COMDAT ??_C@_0BG@BGJEIPGN@SendShopSellPacketNew@
CONST	SEGMENT
??_C@_0BG@BGJEIPGN@SendShopSellPacketNew@ DB 'SendShopSellPacketNew', 00H ; `string'
CONST	ENDS
;	COMDAT ??_C@_0BC@HEOMKCAE@SendShopEndPacket@
CONST	SEGMENT
??_C@_0BC@HEOMKCAE@SendShopEndPacket@ DB 'SendShopEndPacket', 00H ; `string'
CONST	ENDS
;	COMDAT ??_C@_0BC@FPBLEBCL@SendShopBuyPacket@
CONST	SEGMENT
??_C@_0BC@FPBLEBCL@SendShopBuyPacket@ DB 'SendShopBuyPacket', 00H ; `string'
CONST	ENDS
;	COMDAT ??_C@_0BC@KNMEABPD@SendWhisperPacket@
CONST	SEGMENT
??_C@_0BC@KNMEABPD@SendWhisperPacket@ DB 'SendWhisperPacket', 00H ; `string'
CONST	ENDS
;	COMDAT ??_C@_0BM@KAMAKIKL@SendCharacterPositionPacket@
CONST	SEGMENT
??_C@_0BM@KAMAKIKL@SendCharacterPositionPacket@ DB 'SendCharacterPosition'
	DB	'Packet', 00H				; `string'
CONST	ENDS
;	COMDAT ??_C@_0P@FJOINOIH@SendChatPacket@
CONST	SEGMENT
??_C@_0P@FJOINOIH@SendChatPacket@ DB 'SendChatPacket', 00H ; `string'
CONST	ENDS
;	COMDAT ??_C@_0N@BJHGOHPC@SendEmoticon@
CONST	SEGMENT
??_C@_0N@BJHGOHPC@SendEmoticon@ DB 'SendEmoticon', 00H	; `string'
CONST	ENDS
;	COMDAT ??_C@_0L@CMGJAGDM@Disconnect@
CONST	SEGMENT
??_C@_0L@CMGJAGDM@Disconnect@ DB 'Disconnect', 00H	; `string'
CONST	ENDS
;	COMDAT ??_C@_09HENONEEN@IsConnect@
CONST	SEGMENT
??_C@_09HENONEEN@IsConnect@ DB 'IsConnect', 00H		; `string'
CONST	ENDS
;	COMDAT ??_C@_0BD@FMAJCJM@SendGiveItemPacket@
CONST	SEGMENT
??_C@_0BD@FMAJCJM@SendGiveItemPacket@ DB 'SendGiveItemPacket', 00H ; `string'
CONST	ENDS
;	COMDAT ??_C@_0BA@NKMDDBDL@SetOfflinePhase@
CONST	SEGMENT
??_C@_0BA@NKMDDBDL@SetOfflinePhase@ DB 'SetOfflinePhase', 00H ; `string'
CONST	ENDS
;	COMDAT ??_C@_0BD@BPAFBGKI@SendItemMovePacket@
CONST	SEGMENT
??_C@_0BD@BPAFBGKI@SendItemMovePacket@ DB 'SendItemMovePacket', 00H ; `string'
CONST	ENDS
;	COMDAT ??_C@_0BF@PJHEIMI@SendItemPickUpPacket@
CONST	SEGMENT
??_C@_0BF@PJHEIMI@SendItemPickUpPacket@ DB 'SendItemPickUpPacket', 00H ; `string'
CONST	ENDS
;	COMDAT ??_C@_0BC@NEDFAOHK@SendElkDropPacket@
CONST	SEGMENT
??_C@_0BC@NEDFAOHK@SendElkDropPacket@ DB 'SendElkDropPacket', 00H ; `string'
CONST	ENDS
;	COMDAT ??_C@_0BG@ONKCIEDE@SendGoldDropPacketNew@
CONST	SEGMENT
??_C@_0BG@ONKCIEDE@SendGoldDropPacketNew@ DB 'SendGoldDropPacketNew', 00H ; `string'
CONST	ENDS
;	COMDAT ??_C@_0BD@ICCAOJBA@SendItemDropPacket@
CONST	SEGMENT
??_C@_0BD@ICCAOJBA@SendItemDropPacket@ DB 'SendItemDropPacket', 00H ; `string'
CONST	ENDS
;	COMDAT ??_C@_0BG@PNFNACGL@SendItemDropPacketNew@
CONST	SEGMENT
??_C@_0BG@PNFNACGL@SendItemDropPacketNew@ DB 'SendItemDropPacketNew', 00H ; `string'
CONST	ENDS
;	COMDAT ??_C@_0BC@NHAKBOCP@SendItemUsePacket@
CONST	SEGMENT
??_C@_0BC@NHAKBOCP@SendItemUsePacket@ DB 'SendItemUsePacket', 00H ; `string'
CONST	ENDS
;	COMDAT ??_C@_0BI@OBDMDOIB@SendItemUseToItemPacket@
CONST	SEGMENT
??_C@_0BI@OBDMDOIB@SendItemUseToItemPacket@ DB 'SendItemUseToItemPacket', 00H ; `string'
CONST	ENDS
;	COMDAT ??_C@_0BL@PMHPNGGJ@SendDestroyCharacterPacket@
CONST	SEGMENT
??_C@_0BL@PMHPNGGJ@SendDestroyCharacterPacket@ DB 'SendDestroyCharacterPa'
	DB	'cket', 00H					; `string'
CONST	ENDS
;	COMDAT ??_C@_0BE@NBECPFPH@SendEnterGamePacket@
CONST	SEGMENT
??_C@_0BE@NBECPFPH@SendEnterGamePacket@ DB 'SendEnterGamePacket', 00H ; `string'
CONST	ENDS
;	COMDAT ??_C@_0BF@ODLJDBF@SendChangeNamePacket@
CONST	SEGMENT
??_C@_0BF@ODLJDBF@SendChangeNamePacket@ DB 'SendChangeNamePacket', 00H ; `string'
CONST	ENDS
;	COMDAT ??_C@_0BK@NPKEAJJ@SendCreateCharacterPacket@
CONST	SEGMENT
??_C@_0BK@NPKEAJJ@SendCreateCharacterPacket@ DB 'SendCreateCharacterPacke'
	DB	't', 00H					; `string'
CONST	ENDS
;	COMDAT ??_C@_0BH@IIELEKKA@SendSelectEmpirePacket@
CONST	SEGMENT
??_C@_0BH@IIELEKKA@SendSelectEmpirePacket@ DB 'SendSelectEmpirePacket', 00H ; `string'
CONST	ENDS
;	COMDAT ??_C@_0BK@MIKAHKDI@SendSelectCharacterPacket@
CONST	SEGMENT
??_C@_0BK@MIKAHKDI@SendSelectCharacterPacket@ DB 'SendSelectCharacterPack'
	DB	'et', 00H					; `string'
CONST	ENDS
;	COMDAT ??_C@_0BH@CIOLKAIG@ConnectToAccountServer@
CONST	SEGMENT
??_C@_0BH@CIOLKAIG@ConnectToAccountServer@ DB 'ConnectToAccountServer', 00H ; `string'
CONST	ENDS
;	COMDAT ??_C@_0BA@CNDIKGCL@SendLoginPacket@
CONST	SEGMENT
??_C@_0BA@CNDIKGCL@SendLoginPacket@ DB 'SendLoginPacket', 00H ; `string'
CONST	ENDS
;	COMDAT ??_C@_0L@HNEKCIDO@ConnectTCP@
CONST	SEGMENT
??_C@_0L@HNEKCIDO@ConnectTCP@ DB 'ConnectTCP', 00H	; `string'
CONST	ENDS
;	COMDAT ??_C@_0L@MALJFJNO@ConnectUDP@
CONST	SEGMENT
??_C@_0L@MALJFJNO@ConnectUDP@ DB 'ConnectUDP', 00H	; `string'
CONST	ENDS
;	COMDAT ??_C@_08ENBHLCHD@ExitGame@
CONST	SEGMENT
??_C@_08ENBHLCHD@ExitGame@ DB 'ExitGame', 00H		; `string'
CONST	ENDS
;	COMDAT ??_C@_0BA@ILFBLEPH@ExitApplication@
CONST	SEGMENT
??_C@_0BA@ILFBLEPH@ExitApplication@ DB 'ExitApplication', 00H ; `string'
CONST	ENDS
;	COMDAT ??_C@_0M@PAACKIAL@DirectEnter@
CONST	SEGMENT
??_C@_0M@PAACKIAL@DirectEnter@ DB 'DirectEnter', 00H	; `string'
CONST	ENDS
;	COMDAT ??_C@_0L@LPFGMFBP@LogOutGame@
CONST	SEGMENT
??_C@_0L@LPFGMFBP@LogOutGame@ DB 'LogOutGame', 00H	; `string'
CONST	ENDS
;	COMDAT ??_C@_0BF@LOLMIHDO@SetTCPSendBufferSize@
CONST	SEGMENT
??_C@_0BF@LOLMIHDO@SetTCPSendBufferSize@ DB 'SetTCPSendBufferSize', 00H ; `string'
CONST	ENDS
;	COMDAT ??_C@_0BF@GPIIIFGB@SetUDPRecvBufferSize@
CONST	SEGMENT
??_C@_0BF@GPIIIFGB@SetUDPRecvBufferSize@ DB 'SetUDPRecvBufferSize', 00H ; `string'
CONST	ENDS
;	COMDAT ??_C@_0L@EELFNDHB@SetHandler@
CONST	SEGMENT
??_C@_0L@EELFNDHB@SetHandler@ DB 'SetHandler', 00H	; `string'
CONST	ENDS
;	COMDAT ??_C@_0BF@KAEIEPML@SetTCPRecvBufferSize@
CONST	SEGMENT
??_C@_0BF@KAEIEPML@SetTCPRecvBufferSize@ DB 'SetTCPRecvBufferSize', 00H ; `string'
CONST	ENDS
;	COMDAT ??_C@_0BN@KOOLAHFA@SetServerCommandParserWindow@
CONST	SEGMENT
??_C@_0BN@KOOLAHFA@SetServerCommandParserWindow@ DB 'SetServerCommandPars'
	DB	'erWindow', 00H				; `string'
CONST	ENDS
;	COMDAT ??_C@_0BL@NJAILJBB@SetAccountConnectorHandler@
CONST	SEGMENT
??_C@_0BL@NJAILJBB@SetAccountConnectorHandler@ DB 'SetAccountConnectorHan'
	DB	'dler', 00H					; `string'
CONST	ENDS
;	COMDAT ??_C@_0P@EKNNFAK@SetPhaseWindow@
CONST	SEGMENT
??_C@_0P@EKNNFAK@SetPhaseWindow@ DB 'SetPhaseWindow', 00H ; `string'
CONST	ENDS
;	COMDAT ??_C@_0BB@NNDKGCIK@ClearPhaseWindow@
CONST	SEGMENT
??_C@_0BB@NNDKGCIK@ClearPhaseWindow@ DB 'ClearPhaseWindow', 00H ; `string'
CONST	ENDS
;	COMDAT ??_C@_0BE@BCCLDKB@ToggleGameDebugInfo@
CONST	SEGMENT
??_C@_0BE@BCCLDKB@ToggleGameDebugInfo@ DB 'ToggleGameDebugInfo', 00H ; `string'
CONST	ENDS
;	COMDAT ??_C@_0N@GLEGMFLM@SetLoginInfo@
CONST	SEGMENT
??_C@_0N@GLEGMFLM@SetLoginInfo@ DB 'SetLoginInfo', 00H	; `string'
CONST	ENDS
;	COMDAT ??_C@_0BG@NAMIDKHD@GetFieldMusicFileName@
CONST	SEGMENT
??_C@_0BG@NAMIDKHD@GetFieldMusicFileName@ DB 'GetFieldMusicFileName', 00H ; `string'
CONST	ENDS
;	COMDAT ??_C@_0BE@MHKBLINM@GetFieldMusicVolume@
CONST	SEGMENT
??_C@_0BE@MHKBLINM@GetFieldMusicVolume@ DB 'GetFieldMusicVolume', 00H ; `string'
CONST	ENDS
;	COMDAT ??_C@_0CD@PJJNPONG@GetAccountCharacterSlotDataInte@
CONST	SEGMENT
??_C@_0CD@PJJNPONG@GetAccountCharacterSlotDataInte@ DB 'GetAccountCharact'
	DB	'erSlotDataInteger', 00H			; `string'
CONST	ENDS
;	COMDAT ??_C@_0CC@DLIFIOE@GetAccountCharacterSlotDataStri@
CONST	SEGMENT
??_C@_0CC@DLIFIOE@GetAccountCharacterSlotDataStri@ DB 'GetAccountCharacte'
	DB	'rSlotDataString', 00H			; `string'
CONST	ENDS
;	COMDAT ??_C@_0BD@JOIEFGML@GetMainActorEmpire@
CONST	SEGMENT
??_C@_0BD@JOIEFGML@GetMainActorEmpire@ DB 'GetMainActorEmpire', 00H ; `string'
CONST	ENDS
;	COMDAT ??_C@_0BH@GCCMJIJB@GetMainActorSkillGroup@
CONST	SEGMENT
??_C@_0BH@GCCMJIJB@GetMainActorSkillGroup@ DB 'GetMainActorSkillGroup', 00H ; `string'
CONST	ENDS
;	COMDAT ??_C@_0BA@BPHKBGOL@GetMainActorVID@
CONST	SEGMENT
??_C@_0BA@BPHKBGOL@GetMainActorVID@ DB 'GetMainActorVID', 00H ; `string'
CONST	ENDS
;	COMDAT ??_C@_0BB@ICEJKPHA@GetMainActorRace@
CONST	SEGMENT
??_C@_0BB@ICEJKPHA@GetMainActorRace@ DB 'GetMainActorRace', 00H ; `string'
CONST	ENDS
;	COMDAT ??_C@_0N@OBKBFHKO@UploadSymbol@
CONST	SEGMENT
??_C@_0N@OBKBFHKO@UploadSymbol@ DB 'UploadSymbol', 00H	; `string'
CONST	ENDS
;	COMDAT ??_C@_0M@GGDMINDM@GetEmpireID@
CONST	SEGMENT
??_C@_0M@GGDMINDM@GetEmpireID@ DB 'GetEmpireID', 00H	; `string'
CONST	ENDS
;	COMDAT ??_C@_0P@NAIDDMMD@LoadInsultList@
CONST	SEGMENT
??_C@_0P@NAIDDMMD@LoadInsultList@ DB 'LoadInsultList', 00H ; `string'
CONST	ENDS
;	COMDAT ??_C@_0L@JEGFHCJL@UploadMark@
CONST	SEGMENT
??_C@_0L@JEGFHCJL@UploadMark@ DB 'UploadMark', 00H	; `string'
CONST	ENDS
;	COMDAT ??_C@_0P@EPNPIBON@IsChatInsultIn@
CONST	SEGMENT
??_C@_0P@EPNPIBON@IsChatInsultIn@ DB 'IsChatInsultIn', 00H ; `string'
CONST	ENDS
;	COMDAT ??_C@_0L@CJJGFLBC@IsInsultIn@
CONST	SEGMENT
??_C@_0L@CJJGFLBC@IsInsultIn@ DB 'IsInsultIn', 00H	; `string'
CONST	ENDS
;	COMDAT ??_C@_04EIDOEOJH@Warp@
CONST	SEGMENT
??_C@_04EIDOEOJH@Warp@ DB 'Warp', 00H			; `string'
CONST	ENDS
;	COMDAT ??_C@_0O@OFMEOEDD@SetMarkServer@
CONST	SEGMENT
??_C@_0O@OFMEOEDD@SetMarkServer@ DB 'SetMarkServer', 00H ; `string'
CONST	ENDS
;	COMDAT ??_C@_0BK@PJDKKIPH@GetPreservedServerCommand@
CONST	SEGMENT
??_C@_0BK@PJDKKIPH@GetPreservedServerCommand@ DB 'GetPreservedServerComma'
	DB	'nd', 00H					; `string'
CONST	ENDS
;	COMDAT ??_C@_09CFNAMFEF@StartGame@
CONST	SEGMENT
??_C@_09CFNAMFEF@StartGame@ DB 'StartGame', 00H		; `string'
CONST	ENDS
;	COMDAT ??_C@_0O@ODBJLKOA@GetServerInfo@
CONST	SEGMENT
??_C@_0O@ODBJLKOA@GetServerInfo@ DB 'GetServerInfo', 00H ; `string'
CONST	ENDS
;	COMDAT ??_C@_0BG@NJCKCHAI@PreserveServerCommand@
CONST	SEGMENT
??_C@_0BG@NJCKCHAI@PreserveServerCommand@ DB 'PreserveServerCommand', 00H ; `string'
CONST	ENDS
;	COMDAT ??_C@_0BH@LKCAJGCH@EnableChatInsultFilter@
CONST	SEGMENT
??_C@_0BH@LKCAJGCH@EnableChatInsultFilter@ DB 'EnableChatInsultFilter', 00H ; `string'
CONST	ENDS
;	COMDAT ??_C@_0O@JMAHAJJH@SetServerInfo@
CONST	SEGMENT
??_C@_0O@JMAHAJJH@SetServerInfo@ DB 'SetServerInfo', 00H ; `string'
CONST	ENDS
;	COMDAT ??_C@_03JELCABFN@iOO@
CONST	SEGMENT
??_C@_03JELCABFN@iOO@ DB 'iOO', 00H			; `string'
CONST	ENDS
;	COMDAT ??_C@_0BI@HFMJEOAC@GetBettingGuildWarValue@
CONST	SEGMENT
??_C@_0BI@HFMJEOAC@GetBettingGuildWarValue@ DB 'GetBettingGuildWarValue', 00H ; `string'
CONST	ENDS
;	COMDAT ??_C@_1LM@DEDABKEH@?$AAC?$AA?3?$AA?2?$AAA?$AAn?$AAk?$AAa?$AA2?$AAP?$AAr?$AAo?$AAj?$AAe?$AAc?$AAt@
CONST	SEGMENT
??_C@_1LM@DEDABKEH@?$AAC?$AA?3?$AA?2?$AAA?$AAn?$AAk?$AAa?$AA2?$AAP?$AAr?$AAo?$AAj?$AAe?$AAc?$AAt@ DB 'C'
	DB	00H, ':', 00H, '\', 00H, 'A', 00H, 'n', 00H, 'k', 00H, 'a', 00H
	DB	'2', 00H, 'P', 00H, 'r', 00H, 'o', 00H, 'j', 00H, 'e', 00H, 'c'
	DB	00H, 't', 00H, '\', 00H, 'A', 00H, 'n', 00H, 'k', 00H, 'a', 00H
	DB	'2', 00H, 'P', 00H, 'r', 00H, 'o', 00H, 'j', 00H, 'e', 00H, 'c'
	DB	00H, 't', 00H, '\', 00H, 'S', 00H, 'o', 00H, 'u', 00H, 'r', 00H
	DB	'c', 00H, 'e', 00H, '\', 00H, 'B', 00H, 'i', 00H, 'n', 00H, 'a'
	DB	00H, 'r', 00H, 'y', 00H, '\', 00H, 's', 00H, 'o', 00H, 'u', 00H
	DB	'r', 00H, 'c', 00H, 'e', 00H, '\', 00H, 'U', 00H, 's', 00H, 'e'
	DB	00H, 'r', 00H, 'I', 00H, 'n', 00H, 't', 00H, 'e', 00H, 'r', 00H
	DB	'f', 00H, 'a', 00H, 'c', 00H, 'e', 00H, '\', 00H, 'P', 00H, 'y'
	DB	00H, 't', 00H, 'h', 00H, 'o', 00H, 'n', 00H, 'N', 00H, 'e', 00H
	DB	't', 00H, 'w', 00H, 'o', 00H, 'r', 00H, 'k', 00H, 'S', 00H, 't'
	DB	00H, 'r', 00H, 'e', 00H, 'a', 00H, 'm', 00H, 'M', 00H, 'o', 00H
	DB	'd', 00H, 'u', 00H, 'l', 00H, 'e', 00H, '.', 00H, 'c', 00H, 'p'
	DB	00H, 'p', 00H, 00H, 00H			; `string'
CONST	ENDS
;	COMDAT ??_C@_1IK@MBMLBACD@?$AA?$CB?$AA?$CC?$AAn?$AAe?$AAt?$AAS?$AAe?$AAn?$AAd?$AAR?$AAe?$AAq?$AAu?$AAe?$AAs@
CONST	SEGMENT
??_C@_1IK@MBMLBACD@?$AA?$CB?$AA?$CC?$AAn?$AAe?$AAt?$AAS?$AAe?$AAn?$AAd?$AAR?$AAe?$AAq?$AAu?$AAe?$AAs@ DB '!'
	DB	00H, '"', 00H, 'n', 00H, 'e', 00H, 't', 00H, 'S', 00H, 'e', 00H
	DB	'n', 00H, 'd', 00H, 'R', 00H, 'e', 00H, 'q', 00H, 'u', 00H, 'e'
	DB	00H, 's', 00H, 't', 00H, 'R', 00H, 'e', 00H, 'f', 00H, 'i', 00H
	DB	'n', 00H, 'e', 00H, 'I', 00H, 'n', 00H, 'f', 00H, 'o', 00H, 'P'
	DB	00H, 'a', 00H, 'c', 00H, 'k', 00H, 'e', 00H, 't', 00H, ' ', 00H
	DB	'-', 00H, ' ', 00H, 0b4H, 00H, 0f5H, 00H, 0c0H, 00H, 0ccH, 00H
	DB	0bbH, 00H, 0f3H, 00H, ' ', 00H, 0bbH, 00H, 0e7H, 00H, 0bfH, 00H
	DB	0ebH, 00H, 0c7H, 00H, 0cfH, 00H, 0c1H, 00H, 0f6H, 00H, ' ', 00H
	DB	0beH, 00H, 0caH, 00H, 0b4H, 00H, 0c2H, 00H, ' ', 00H, 0c7H, 00H
	DB	0d4H, 00H, 0bcH, 00H, 0f6H, 00H, ' ', 00H, 0c0H, 00H, 0d4H, 00H
	DB	0b4H, 00H, 0cfH, 00H, 0b4H, 00H, 0d9H, 00H, '"', 00H, 00H, 00H ; `string'
CONST	ENDS
;	COMDAT ??_C@_0EE@CPCFCFHF@netSendGuildRemoveMemberPacket?$CI@
CONST	SEGMENT
??_C@_0EE@CPCFCFHF@netSendGuildRemoveMemberPacket?$CI@ DB 'netSendGuildRe'
	DB	'moveMemberPacket(szKey=%s) - Can''t Find Guild Member', 0aH, 00H ; `string'
CONST	ENDS
;	COMDAT ??_C@_0EC@PJNHBNOL@netSendRequestRefineInfoPacket?5@
CONST	SEGMENT
??_C@_0EC@PJNHBNOL@netSendRequestRefineInfoPacket?5@ DB 'netSendRequestRe'
	DB	'fineInfoPacket - ', 0b4H, 0f5H, 0c0H, 0ccH, 0bbH, 0f3H, ' ', 0bbH
	DB	0e7H, 0bfH, 0ebH, 0c7H, 0cfH, 0c1H, 0f6H, ' ', 0beH, 0caH, 0b4H
	DB	0c2H, ' ', 0c7H, 0d4H, 0bcH, 0f6H, ' ', 0c0H, 0d4H, 0b4H, 0cfH
	DB	0b4H, 0d9H, 00H				; `string'
PUBLIC	??0SItemPos@@QAE@EG@Z				; SItemPos::SItemPos
PUBLIC	??$?0PAVCPythonPlayerSettingsModule@@@?$_Tuple_val@PAVCPythonPlayerSettingsModule@@@std@@QAE@$$QAPAVCPythonPlayerSettingsModule@@@Z ; std::_Tuple_val<CPythonPlayerSettingsModule *>::_Tuple_val<CPythonPlayerSettingsModule *><CPythonPlayerSettingsModule *>
PUBLIC	?_Get_first@?$_Compressed_pair@V?$allocator@U?$pair@GG@std@@@std@@V?$_Vector_val@U?$_Simple_types@U?$pair@GG@std@@@std@@@2@$00@std@@QBEABV?$allocator@U?$pair@GG@std@@@2@XZ ; std::_Compressed_pair<std::allocator<std::pair<unsigned short,unsigned short> >,std::_Vector_val<std::_Simple_types<std::pair<unsigned short,unsigned short> > >,1>::_Get_first
PUBLIC	??$_Copy_memmove_tail@PAU?$pair@GG@std@@@std@@YAPAU?$pair@GG@0@QBDQAU10@II@Z ; std::_Copy_memmove_tail<std::pair<unsigned short,unsigned short> *>
PUBLIC	??$move@AAPAU?$pair@GG@std@@@std@@YA$$QAPAU?$pair@GG@0@AAPAU10@@Z ; std::move<std::pair<unsigned short,unsigned short> * &>
PUBLIC	??$to_address@U?$pair@GG@std@@@std@@YAPAU?$pair@GG@0@QAU10@@Z ; std::to_address<std::pair<unsigned short,unsigned short> >
PUBLIC	??$forward@AAPAV?$tuple@P8CPythonPlayerSettingsModule@@AEXXZPAV1@@std@@@std@@YAAAPAV?$tuple@P8CPythonPlayerSettingsModule@@AEXXZPAV1@@0@AAPAV10@@Z ; std::forward<std::tuple<void (__thiscall CPythonPlayerSettingsModule::*)(void),CPythonPlayerSettingsModule *> * &>
PUBLIC	??$?0P8CPythonPlayerSettingsModule@@AEXXZ@?$_Tuple_val@P8CPythonPlayerSettingsModule@@AEXXZ@std@@QAE@$$QAP8CPythonPlayerSettingsModule@@AEXXZ@Z ; std::_Tuple_val<void (__thiscall CPythonPlayerSettingsModule::*)(void)>::_Tuple_val<void (__thiscall CPythonPlayerSettingsModule::*)(void)><void (__thiscall CPythonPlayerSettingsModule::*)(void)>
PUBLIC	??$?0U_Exact_args_t@std@@PAVCPythonPlayerSettingsModule@@$$V$0A@@?$tuple@PAVCPythonPlayerSettingsModule@@@std@@QAE@U_Exact_args_t@1@$$QAPAVCPythonPlayerSettingsModule@@@Z ; std::tuple<CPythonPlayerSettingsModule *>::tuple<CPythonPlayerSettingsModule *><std::_Exact_args_t,CPythonPlayerSettingsModule *,0>
PUBLIC	?allocate@?$allocator@U?$pair@GG@std@@@std@@QAEPAU?$pair@GG@2@I@Z ; std::allocator<std::pair<unsigned short,unsigned short> >::allocate
PUBLIC	?capacity@?$vector@U?$pair@GG@std@@V?$allocator@U?$pair@GG@std@@@2@@std@@QBEIXZ ; std::vector<std::pair<unsigned short,unsigned short>,std::allocator<std::pair<unsigned short,unsigned short> > >::capacity
PUBLIC	?_Getal@?$vector@U?$pair@GG@std@@V?$allocator@U?$pair@GG@std@@@2@@std@@ABEABV?$allocator@U?$pair@GG@std@@@2@XZ ; std::vector<std::pair<unsigned short,unsigned short>,std::allocator<std::pair<unsigned short,unsigned short> > >::_Getal
PUBLIC	?max_size@?$_Default_allocator_traits@V?$allocator@U?$pair@GG@std@@@std@@@std@@SAIABV?$allocator@U?$pair@GG@std@@@2@@Z ; std::_Default_allocator_traits<std::allocator<std::pair<unsigned short,unsigned short> > >::max_size
PUBLIC	??0?$_Uninitialized_backout_al@V?$allocator@U?$pair@GG@std@@@std@@@std@@QAE@PAU?$pair@GG@1@AAV?$allocator@U?$pair@GG@std@@@1@@Z ; std::_Uninitialized_backout_al<std::allocator<std::pair<unsigned short,unsigned short> > >::_Uninitialized_backout_al<std::allocator<std::pair<unsigned short,unsigned short> > >
PUBLIC	??1?$_Uninitialized_backout_al@V?$allocator@U?$pair@GG@std@@@std@@@std@@QAE@XZ ; std::_Uninitialized_backout_al<std::allocator<std::pair<unsigned short,unsigned short> > >::~_Uninitialized_backout_al<std::allocator<std::pair<unsigned short,unsigned short> > >
PUBLIC	?_Release@?$_Uninitialized_backout_al@V?$allocator@U?$pair@GG@std@@@std@@@std@@QAEPAU?$pair@GG@2@XZ ; std::_Uninitialized_backout_al<std::allocator<std::pair<unsigned short,unsigned short> > >::_Release
PUBLIC	??$_Emplace_back@U?$pair@GG@std@@@?$_Uninitialized_backout_al@V?$allocator@U?$pair@GG@std@@@std@@@std@@QAEX$$QAU?$pair@GG@1@@Z ; std::_Uninitialized_backout_al<std::allocator<std::pair<unsigned short,unsigned short> > >::_Emplace_back<std::pair<unsigned short,unsigned short> >
PUBLIC	??$_To_address@PAU?$pair@GG@std@@@std@@YA?A_PABQAU?$pair@GG@0@@Z ; std::_To_address<std::pair<unsigned short,unsigned short> *>
PUBLIC	??$_Copy_memmove@PAU?$pair@GG@std@@PAU12@@std@@YAPAU?$pair@GG@0@PAU10@00@Z ; std::_Copy_memmove<std::pair<unsigned short,unsigned short> *,std::pair<unsigned short,unsigned short> *>
PUBLIC	??$construct_at@U?$pair@GG@std@@U12@@std@@YAPAU?$pair@GG@0@QAU10@$$QAU10@@Z ; std::construct_at<std::pair<unsigned short,unsigned short>,std::pair<unsigned short,unsigned short> >
PUBLIC	??$addressof@U?$pair@GG@std@@@std@@YAPAU?$pair@GG@0@AAU10@@Z ; std::addressof<std::pair<unsigned short,unsigned short> >
PUBLIC	??$?0AAPAV?$tuple@P8CPythonPlayerSettingsModule@@AEXXZPAV1@@std@@@?$_Compressed_pair@U?$default_delete@V?$tuple@P8CPythonPlayerSettingsModule@@AEXXZPAV1@@std@@@std@@PAV?$tuple@P8CPythonPlayerSettingsModule@@AEXXZPAV1@@2@$00@std@@QAE@U_Zero_then_variadic_args_t@1@AAPAV?$tuple@P8CPythonPlayerSettingsModule@@AEXXZPAV1@@1@@Z ; std::_Compressed_pair<std::default_delete<std::tuple<void (__thiscall CPythonPlayerSettingsModule::*)(void),CPythonPlayerSettingsModule *> >,std::tuple<void (__thiscall CPythonPlayerSettingsModule::*)(void),CPythonPlayerSettingsModule *> *,1>::_Compressed_pair<std::default_delete<std::tuple<void (__thiscall CPythonPlayerSettingsModule::*)(void),CPythonPlayerSettingsModule *> >,std::tuple<void (__thiscall CPythonPlayerSettingsModule::*)(void),CPythonPlayerSettingsModule *> *,1><std::tuple<void (__thiscall CPythonPlayerSettingsModule::*)(void),CPythonPlayerSettingsModule *> * &>
PUBLIC	??$?0U_Exact_args_t@std@@P8CPythonPlayerSettingsModule@@AEXXZPAV2@$0A@@?$tuple@P8CPythonPlayerSettingsModule@@AEXXZPAV1@@std@@QAE@U_Exact_args_t@1@$$QAP8CPythonPlayerSettingsModule@@AEXXZ$$QAPAV3@@Z ; std::tuple<void (__thiscall CPythonPlayerSettingsModule::*)(void),CPythonPlayerSettingsModule *>::tuple<void (__thiscall CPythonPlayerSettingsModule::*)(void),CPythonPlayerSettingsModule *><std::_Exact_args_t,void (__thiscall CPythonPlayerSettingsModule::*)(void),CPythonPlayerSettingsModule *,0>
PUBLIC	?max_size@?$vector@U?$pair@GG@std@@V?$allocator@U?$pair@GG@std@@@2@@std@@QBEIXZ ; std::vector<std::pair<unsigned short,unsigned short>,std::allocator<std::pair<unsigned short,unsigned short> > >::max_size
PUBLIC	?_Calculate_growth@?$vector@U?$pair@GG@std@@V?$allocator@U?$pair@GG@std@@@2@@std@@ABEII@Z ; std::vector<std::pair<unsigned short,unsigned short>,std::allocator<std::pair<unsigned short,unsigned short> > >::_Calculate_growth
PUBLIC	?_Change_array@?$vector@U?$pair@GG@std@@V?$allocator@U?$pair@GG@std@@@2@@std@@AAEXQAU?$pair@GG@2@II@Z ; std::vector<std::pair<unsigned short,unsigned short>,std::allocator<std::pair<unsigned short,unsigned short> > >::_Change_array
PUBLIC	?_Xlength@?$vector@U?$pair@GG@std@@V?$allocator@U?$pair@GG@std@@@2@@std@@CAXXZ ; std::vector<std::pair<unsigned short,unsigned short>,std::allocator<std::pair<unsigned short,unsigned short> > >::_Xlength
PUBLIC	?_Orphan_range@?$vector@U?$pair@GG@std@@V?$allocator@U?$pair@GG@std@@@2@@std@@ABEXPAU?$pair@GG@2@0@Z ; std::vector<std::pair<unsigned short,unsigned short>,std::allocator<std::pair<unsigned short,unsigned short> > >::_Orphan_range
PUBLIC	??1_Reallocation_guard@?$vector@U?$pair@GG@std@@V?$allocator@U?$pair@GG@std@@@2@@std@@QAE@XZ ; std::vector<std::pair<unsigned short,unsigned short>,std::allocator<std::pair<unsigned short,unsigned short> > >::_Reallocation_guard::~_Reallocation_guard
PUBLIC	?_Get_first@?$_Compressed_pair@V?$allocator@U?$pair@GG@std@@@std@@V?$_Vector_val@U?$_Simple_types@U?$pair@GG@std@@@std@@@2@$00@std@@QAEAAV?$allocator@U?$pair@GG@std@@@2@XZ ; std::_Compressed_pair<std::allocator<std::pair<unsigned short,unsigned short> >,std::_Vector_val<std::_Simple_types<std::pair<unsigned short,unsigned short> > >,1>::_Get_first
PUBLIC	??R?$default_delete@V?$tuple@P8CPythonPlayerSettingsModule@@AEXXZPAV1@@std@@@std@@QBEXPAV?$tuple@P8CPythonPlayerSettingsModule@@AEXXZPAV1@@1@@Z ; std::default_delete<std::tuple<void (__thiscall CPythonPlayerSettingsModule::*)(void),CPythonPlayerSettingsModule *> >::operator()
PUBLIC	?_Get_first@?$_Compressed_pair@U?$default_delete@V?$tuple@P8CPythonPlayerSettingsModule@@AEXXZPAV1@@std@@@std@@PAV?$tuple@P8CPythonPlayerSettingsModule@@AEXXZPAV1@@2@$00@std@@QAEAAU?$default_delete@V?$tuple@P8CPythonPlayerSettingsModule@@AEXXZPAV1@@std@@@2@XZ ; std::_Compressed_pair<std::default_delete<std::tuple<void (__thiscall CPythonPlayerSettingsModule::*)(void),CPythonPlayerSettingsModule *> >,std::tuple<void (__thiscall CPythonPlayerSettingsModule::*)(void),CPythonPlayerSettingsModule *> *,1>::_Get_first
PUBLIC	??$exchange@PAV?$tuple@P8CPythonPlayerSettingsModule@@AEXXZPAV1@@std@@$$T@std@@YAPAV?$tuple@P8CPythonPlayerSettingsModule@@AEXXZPAV1@@0@AAPAV10@$$QA$$T@Z ; std::exchange<std::tuple<void (__thiscall CPythonPlayerSettingsModule::*)(void),CPythonPlayerSettingsModule *> *,std::nullptr_t>
PUBLIC	??$construct@V?$basic_string@DU?$char_traits@D@std@@V?$allocator@D@2@@std@@V12@@?$_Default_allocator_traits@V?$allocator@U?$_List_node@V?$basic_string@DU?$char_traits@D@std@@V?$allocator@D@2@@std@@PAX@std@@@std@@@std@@SAXAAV?$allocator@U?$_List_node@V?$basic_string@DU?$char_traits@D@std@@V?$allocator@D@2@@std@@PAX@std@@@1@QAV?$basic_string@DU?$char_traits@D@std@@V?$allocator@D@2@@1@$$QAV31@@Z ; std::_Default_allocator_traits<std::allocator<std::_List_node<std::basic_string<char,std::char_traits<char>,std::allocator<char> >,void *> > >::construct<std::basic_string<char,std::char_traits<char>,std::allocator<char> >,std::basic_string<char,std::char_traits<char>,std::allocator<char> > >
PUBLIC	??$_Uninitialized_move@PAU?$pair@GG@std@@V?$allocator@U?$pair@GG@std@@@2@@std@@YAPAU?$pair@GG@0@QAU10@0PAU10@AAV?$allocator@U?$pair@GG@std@@@0@@Z ; std::_Uninitialized_move<std::pair<unsigned short,unsigned short> *,std::allocator<std::pair<unsigned short,unsigned short> > >
PUBLIC	??$_Get_unwrapped@ABQAU?$pair@GG@std@@@std@@YA?A_TABQAU?$pair@GG@0@@Z ; std::_Get_unwrapped<std::pair<unsigned short,unsigned short> * const &>
PUBLIC	??$construct@U?$pair@GG@std@@U12@@?$_Default_allocator_traits@V?$allocator@U?$pair@GG@std@@@std@@@std@@SAXAAV?$allocator@U?$pair@GG@std@@@1@QAU?$pair@GG@1@$$QAU31@@Z ; std::_Default_allocator_traits<std::allocator<std::pair<unsigned short,unsigned short> > >::construct<std::pair<unsigned short,unsigned short>,std::pair<unsigned short,unsigned short> >
PUBLIC	??$_Unfancy@U?$pair@GG@std@@@std@@YAPAU?$pair@GG@0@PAU10@@Z ; std::_Unfancy<std::pair<unsigned short,unsigned short> >
PUBLIC	??$_Allocate_at_least_helper@V?$allocator@U?$pair@GG@std@@@std@@@std@@YAPAU?$pair@GG@0@AAV?$allocator@U?$pair@GG@std@@@0@AAI@Z ; std::_Allocate_at_least_helper<std::allocator<std::pair<unsigned short,unsigned short> > >
PUBLIC	??$_Construct_in_place@U?$pair@GG@std@@U12@@std@@YAXAAU?$pair@GG@0@$$QAU10@@Z ; std::_Construct_in_place<std::pair<unsigned short,unsigned short>,std::pair<unsigned short,unsigned short> >
PUBLIC	??$invoke@P8CPythonPlayerSettingsModule@@AEXXZPAV1@$$V@std@@YAX$$QAP8CPythonPlayerSettingsModule@@AEXXZ$$QAPAV1@@Z ; std::invoke<void (__thiscall CPythonPlayerSettingsModule::*)(void),CPythonPlayerSettingsModule *>
PUBLIC	??$move@AAPAVCPythonPlayerSettingsModule@@@std@@YA$$QAPAVCPythonPlayerSettingsModule@@AAPAV1@@Z ; std::move<CPythonPlayerSettingsModule * &>
PUBLIC	??$get@$00P8CPythonPlayerSettingsModule@@AEXXZPAV1@@std@@YAAAPAVCPythonPlayerSettingsModule@@AAV?$tuple@P8CPythonPlayerSettingsModule@@AEXXZPAV1@@0@@Z ; std::get<1,void (__thiscall CPythonPlayerSettingsModule::*)(void),CPythonPlayerSettingsModule *>
PUBLIC	??$move@AAP8CPythonPlayerSettingsModule@@AEXXZ@std@@YA$$QAP8CPythonPlayerSettingsModule@@AEXXZAAP81@AEXXZ@Z ; std::move<void (__thiscall CPythonPlayerSettingsModule::*&)(void)>
PUBLIC	??$get@$0A@P8CPythonPlayerSettingsModule@@AEXXZPAV1@@std@@YAAAP8CPythonPlayerSettingsModule@@AEXXZAAV?$tuple@P8CPythonPlayerSettingsModule@@AEXXZPAV1@@0@@Z ; std::get<0,void (__thiscall CPythonPlayerSettingsModule::*)(void),CPythonPlayerSettingsModule *>
PUBLIC	??$?0U?$default_delete@V?$tuple@P8CPythonPlayerSettingsModule@@AEXXZPAV1@@std@@@std@@$0A@@?$unique_ptr@V?$tuple@P8CPythonPlayerSettingsModule@@AEXXZPAV1@@std@@U?$default_delete@V?$tuple@P8CPythonPlayerSettingsModule@@AEXXZPAV1@@std@@@2@@std@@QAE@PAV?$tuple@P8CPythonPlayerSettingsModule@@AEXXZPAV1@@1@@Z ; std::unique_ptr<std::tuple<void (__thiscall CPythonPlayerSettingsModule::*)(void),CPythonPlayerSettingsModule *>,std::default_delete<std::tuple<void (__thiscall CPythonPlayerSettingsModule::*)(void),CPythonPlayerSettingsModule *> > >::unique_ptr<std::tuple<void (__thiscall CPythonPlayerSettingsModule::*)(void),CPythonPlayerSettingsModule *>,std::default_delete<std::tuple<void (__thiscall CPythonPlayerSettingsModule::*)(void),CPythonPlayerSettingsModule *> > ><std::default_delete<std::tuple<void (__thiscall CPythonPlayerSettingsModule::*)(void),CPythonPlayerSettingsModule *> >,0>
PUBLIC	??$?0P8CPythonPlayerSettingsModule@@AEXXZPAV0@$0A@@?$tuple@P8CPythonPlayerSettingsModule@@AEXXZPAV1@@std@@QAE@$$QAP8CPythonPlayerSettingsModule@@AEXXZ$$QAPAV2@@Z ; std::tuple<void (__thiscall CPythonPlayerSettingsModule::*)(void),CPythonPlayerSettingsModule *>::tuple<void (__thiscall CPythonPlayerSettingsModule::*)(void),CPythonPlayerSettingsModule *><void (__thiscall CPythonPlayerSettingsModule::*)(void),CPythonPlayerSettingsModule *,0>
PUBLIC	?_Orphan_ptr2@?$_List_val@U?$_List_simple_types@V?$basic_string@DU?$char_traits@D@std@@V?$allocator@D@2@@std@@@std@@@std@@QAEXPAU?$_List_node@V?$basic_string@DU?$char_traits@D@std@@V?$allocator@D@2@@std@@PAX@2@@Z ; std::_List_val<std::_List_simple_types<std::basic_string<char,std::char_traits<char>,std::allocator<char> > > >::_Orphan_ptr2
PUBLIC	??0?$allocator@U?$pair@GG@std@@@std@@QAE@XZ	; std::allocator<std::pair<unsigned short,unsigned short> >::allocator<std::pair<unsigned short,unsigned short> >
PUBLIC	?deallocate@?$allocator@U?$pair@GG@std@@@std@@QAEXQAU?$pair@GG@2@I@Z ; std::allocator<std::pair<unsigned short,unsigned short> >::deallocate
PUBLIC	?_Getal@?$vector@U?$pair@GG@std@@V?$allocator@U?$pair@GG@std@@@2@@std@@AAEAAV?$allocator@U?$pair@GG@std@@@2@XZ ; std::vector<std::pair<unsigned short,unsigned short>,std::allocator<std::pair<unsigned short,unsigned short> > >::_Getal
PUBLIC	??0?$_Vector_val@U?$_Simple_types@U?$pair@GG@std@@@std@@@std@@QAE@XZ ; std::_Vector_val<std::_Simple_types<std::pair<unsigned short,unsigned short> > >::_Vector_val<std::_Simple_types<std::pair<unsigned short,unsigned short> > >
PUBLIC	??1?$unique_ptr@V?$tuple@P8CPythonPlayerSettingsModule@@AEXXZPAV1@@std@@U?$default_delete@V?$tuple@P8CPythonPlayerSettingsModule@@AEXXZPAV1@@std@@@2@@std@@QAE@XZ ; std::unique_ptr<std::tuple<void (__thiscall CPythonPlayerSettingsModule::*)(void),CPythonPlayerSettingsModule *>,std::default_delete<std::tuple<void (__thiscall CPythonPlayerSettingsModule::*)(void),CPythonPlayerSettingsModule *> > >::~unique_ptr<std::tuple<void (__thiscall CPythonPlayerSettingsModule::*)(void),CPythonPlayerSettingsModule *>,std::default_delete<std::tuple<void (__thiscall CPythonPlayerSettingsModule::*)(void),CPythonPlayerSettingsModule *> > >
PUBLIC	?get@?$unique_ptr@V?$tuple@P8CPythonPlayerSettingsModule@@AEXXZPAV1@@std@@U?$default_delete@V?$tuple@P8CPythonPlayerSettingsModule@@AEXXZPAV1@@std@@@2@@std@@QBEPAV?$tuple@P8CPythonPlayerSettingsModule@@AEXXZPAV1@@2@XZ ; std::unique_ptr<std::tuple<void (__thiscall CPythonPlayerSettingsModule::*)(void),CPythonPlayerSettingsModule *>,std::default_delete<std::tuple<void (__thiscall CPythonPlayerSettingsModule::*)(void),CPythonPlayerSettingsModule *> > >::get
PUBLIC	?release@?$unique_ptr@V?$tuple@P8CPythonPlayerSettingsModule@@AEXXZPAV1@@std@@U?$default_delete@V?$tuple@P8CPythonPlayerSettingsModule@@AEXXZPAV1@@std@@@2@@std@@QAEPAV?$tuple@P8CPythonPlayerSettingsModule@@AEXXZPAV1@@2@XZ ; std::unique_ptr<std::tuple<void (__thiscall CPythonPlayerSettingsModule::*)(void),CPythonPlayerSettingsModule *>,std::default_delete<std::tuple<void (__thiscall CPythonPlayerSettingsModule::*)(void),CPythonPlayerSettingsModule *> > >::release
PUBLIC	??$_Destroy_range@V?$allocator@U?$pair@GG@std@@@std@@@std@@YAXPAU?$pair@GG@0@QAU10@AAV?$allocator@U?$pair@GG@std@@@0@@Z ; std::_Destroy_range<std::allocator<std::pair<unsigned short,unsigned short> > >
PUBLIC	??$?0V?$basic_string@DU?$char_traits@D@std@@V?$allocator@D@2@@std@@@?$_List_node_emplace_op2@V?$allocator@U?$_List_node@V?$basic_string@DU?$char_traits@D@std@@V?$allocator@D@2@@std@@PAX@std@@@std@@@std@@QAE@AAV?$allocator@U?$_List_node@V?$basic_string@DU?$char_traits@D@std@@V?$allocator@D@2@@std@@PAX@std@@@1@$$QAV?$basic_string@DU?$char_traits@D@std@@V?$allocator@D@2@@1@@Z ; std::_List_node_emplace_op2<std::allocator<std::_List_node<std::basic_string<char,std::char_traits<char>,std::allocator<char> >,void *> > >::_List_node_emplace_op2<std::allocator<std::_List_node<std::basic_string<char,std::char_traits<char>,std::allocator<char> >,void *> > ><std::basic_string<char,std::char_traits<char>,std::allocator<char> > >
PUBLIC	??$_Emplace_reallocate@U?$pair@GG@std@@@?$vector@U?$pair@GG@std@@V?$allocator@U?$pair@GG@std@@@2@@std@@AAEPAU?$pair@GG@1@QAU21@$$QAU21@@Z ; std::vector<std::pair<unsigned short,unsigned short>,std::allocator<std::pair<unsigned short,unsigned short> > >::_Emplace_reallocate<std::pair<unsigned short,unsigned short> >
PUBLIC	??$_Emplace_back_with_unused_capacity@U?$pair@GG@std@@@?$vector@U?$pair@GG@std@@V?$allocator@U?$pair@GG@std@@@2@@std@@AAEAAU?$pair@GG@1@$$QAU21@@Z ; std::vector<std::pair<unsigned short,unsigned short>,std::allocator<std::pair<unsigned short,unsigned short> > >::_Emplace_back_with_unused_capacity<std::pair<unsigned short,unsigned short> >
PUBLIC	??$forward@U?$pair@GG@std@@@std@@YA$$QAU?$pair@GG@0@AAU10@@Z ; std::forward<std::pair<unsigned short,unsigned short> >
PUBLIC	??$_Invoke@V?$tuple@P8CPythonPlayerSettingsModule@@AEXXZPAV1@@std@@$0A@$00@thread@std@@CGIPAX@Z ; std::thread::_Invoke<std::tuple<void (__thiscall CPythonPlayerSettingsModule::*)(void),CPythonPlayerSettingsModule *>,0,1>
PUBLIC	??$make_unique@V?$tuple@P8CPythonPlayerSettingsModule@@AEXXZPAV1@@std@@P8CPythonPlayerSettingsModule@@AEXXZPAV3@$0A@@std@@YA?AV?$unique_ptr@V?$tuple@P8CPythonPlayerSettingsModule@@AEXXZPAV1@@std@@U?$default_delete@V?$tuple@P8CPythonPlayerSettingsModule@@AEXXZPAV1@@std@@@2@@0@$$QAP8CPythonPlayerSettingsModule@@AEXXZ$$QAPAV2@@Z ; std::make_unique<std::tuple<void (__thiscall CPythonPlayerSettingsModule::*)(void),CPythonPlayerSettingsModule *>,void (__thiscall CPythonPlayerSettingsModule::*)(void),CPythonPlayerSettingsModule *,0>
PUBLIC	?_Unchecked_erase@?$list@V?$basic_string@DU?$char_traits@D@std@@V?$allocator@D@2@@std@@V?$allocator@V?$basic_string@DU?$char_traits@D@std@@V?$allocator@D@2@@std@@@2@@std@@AAEPAU?$_List_node@V?$basic_string@DU?$char_traits@D@std@@V?$allocator@D@2@@std@@PAX@2@QAU32@@Z ; std::list<std::basic_string<char,std::char_traits<char>,std::allocator<char> >,std::allocator<std::basic_string<char,std::char_traits<char>,std::allocator<char> > > >::_Unchecked_erase
PUBLIC	?_Tidy@?$vector@U?$pair@GG@std@@V?$allocator@U?$pair@GG@std@@@2@@std@@AAEXXZ ; std::vector<std::pair<unsigned short,unsigned short>,std::allocator<std::pair<unsigned short,unsigned short> > >::_Tidy
PUBLIC	??$_Emplace@V?$basic_string@DU?$char_traits@D@std@@V?$allocator@D@2@@std@@@?$list@V?$basic_string@DU?$char_traits@D@std@@V?$allocator@D@2@@std@@V?$allocator@V?$basic_string@DU?$char_traits@D@std@@V?$allocator@D@2@@std@@@2@@std@@QAEPAU?$_List_node@V?$basic_string@DU?$char_traits@D@std@@V?$allocator@D@2@@std@@PAX@1@QAU21@$$QAV?$basic_string@DU?$char_traits@D@std@@V?$allocator@D@2@@1@@Z ; std::list<std::basic_string<char,std::char_traits<char>,std::allocator<char> >,std::allocator<std::basic_string<char,std::char_traits<char>,std::allocator<char> > > >::_Emplace<std::basic_string<char,std::char_traits<char>,std::allocator<char> > >
PUBLIC	??$?0$$V@?$_Compressed_pair@V?$allocator@U?$pair@GG@std@@@std@@V?$_Vector_val@U?$_Simple_types@U?$pair@GG@std@@@std@@@2@$00@std@@QAE@U_Zero_then_variadic_args_t@1@@Z ; std::_Compressed_pair<std::allocator<std::pair<unsigned short,unsigned short> >,std::_Vector_val<std::_Simple_types<std::pair<unsigned short,unsigned short> > >,1>::_Compressed_pair<std::allocator<std::pair<unsigned short,unsigned short> >,std::_Vector_val<std::_Simple_types<std::pair<unsigned short,unsigned short> > >,1><>
PUBLIC	??$_Emplace_one_at_back@U?$pair@GG@std@@@?$vector@U?$pair@GG@std@@V?$allocator@U?$pair@GG@std@@@2@@std@@AAEAAU?$pair@GG@1@$$QAU21@@Z ; std::vector<std::pair<unsigned short,unsigned short>,std::allocator<std::pair<unsigned short,unsigned short> > >::_Emplace_one_at_back<std::pair<unsigned short,unsigned short> >
PUBLIC	??$move@AAU?$pair@GG@std@@@std@@YA$$QAU?$pair@GG@0@AAU10@@Z ; std::move<std::pair<unsigned short,unsigned short> &>
PUBLIC	??$?0AAGAAG$0A@@?$pair@GG@std@@QAE@AAG0@Z	; std::pair<unsigned short,unsigned short>::pair<unsigned short,unsigned short><unsigned short &,unsigned short &,0>
PUBLIC	??$forward@AAG@std@@YAAAGAAG@Z			; std::forward<unsigned short &>
PUBLIC	??$_Start@P8CPythonPlayerSettingsModule@@AEXXZPAV1@@thread@std@@AAEX$$QAP8CPythonPlayerSettingsModule@@AEXXZ$$QAPAV2@@Z ; std::thread::_Start<void (__thiscall CPythonPlayerSettingsModule::*)(void),CPythonPlayerSettingsModule *>
PUBLIC	??$forward@PAVCPythonPlayerSettingsModule@@@std@@YA$$QAPAVCPythonPlayerSettingsModule@@AAPAV1@@Z ; std::forward<CPythonPlayerSettingsModule *>
PUBLIC	??$forward@P8CPythonPlayerSettingsModule@@AEXXZ@std@@YA$$QAP8CPythonPlayerSettingsModule@@AEXXZAAP81@AEXXZ@Z ; std::forward<void (__thiscall CPythonPlayerSettingsModule::*)(void)>
PUBLIC	?push_back@?$list@V?$basic_string@DU?$char_traits@D@std@@V?$allocator@D@2@@std@@V?$allocator@V?$basic_string@DU?$char_traits@D@std@@V?$allocator@D@2@@std@@@2@@std@@QAEX$$QAV?$basic_string@DU?$char_traits@D@std@@V?$allocator@D@2@@2@@Z ; std::list<std::basic_string<char,std::char_traits<char>,std::allocator<char> >,std::allocator<std::basic_string<char,std::char_traits<char>,std::allocator<char> > > >::push_back
PUBLIC	?empty@?$list@V?$basic_string@DU?$char_traits@D@std@@V?$allocator@D@2@@std@@V?$allocator@V?$basic_string@DU?$char_traits@D@std@@V?$allocator@D@2@@std@@@2@@std@@QBE_NXZ ; std::list<std::basic_string<char,std::char_traits<char>,std::allocator<char> >,std::allocator<std::basic_string<char,std::char_traits<char>,std::allocator<char> > > >::empty
PUBLIC	?front@?$list@V?$basic_string@DU?$char_traits@D@std@@V?$allocator@D@2@@std@@V?$allocator@V?$basic_string@DU?$char_traits@D@std@@V?$allocator@D@2@@std@@@2@@std@@QAEAAV?$basic_string@DU?$char_traits@D@std@@V?$allocator@D@2@@2@XZ ; std::list<std::basic_string<char,std::char_traits<char>,std::allocator<char> >,std::allocator<std::basic_string<char,std::char_traits<char>,std::allocator<char> > > >::front
PUBLIC	?pop_front@?$list@V?$basic_string@DU?$char_traits@D@std@@V?$allocator@D@2@@std@@V?$allocator@V?$basic_string@DU?$char_traits@D@std@@V?$allocator@D@2@@std@@@2@@std@@QAEXXZ ; std::list<std::basic_string<char,std::char_traits<char>,std::allocator<char> >,std::allocator<std::basic_string<char,std::char_traits<char>,std::allocator<char> > > >::pop_front
PUBLIC	?instance@?$CSingleton@VCPythonNetworkStream@@@@SAAAVCPythonNetworkStream@@XZ ; CSingleton<CPythonNetworkStream>::instance
PUBLIC	??0?$vector@U?$pair@GG@std@@V?$allocator@U?$pair@GG@std@@@2@@std@@QAE@XZ ; std::vector<std::pair<unsigned short,unsigned short>,std::allocator<std::pair<unsigned short,unsigned short> > >::vector<std::pair<unsigned short,unsigned short>,std::allocator<std::pair<unsigned short,unsigned short> > >
PUBLIC	??1?$vector@U?$pair@GG@std@@V?$allocator@U?$pair@GG@std@@@2@@std@@QAE@XZ ; std::vector<std::pair<unsigned short,unsigned short>,std::allocator<std::pair<unsigned short,unsigned short> > >::~vector<std::pair<unsigned short,unsigned short>,std::allocator<std::pair<unsigned short,unsigned short> > >
PUBLIC	?push_back@?$vector@U?$pair@GG@std@@V?$allocator@U?$pair@GG@std@@@2@@std@@QAEX$$QAU?$pair@GG@2@@Z ; std::vector<std::pair<unsigned short,unsigned short>,std::allocator<std::pair<unsigned short,unsigned short> > >::push_back
PUBLIC	?Instance@?$CSingleton@VCAccountConnector@@@@SAAAVCAccountConnector@@XZ ; CSingleton<CAccountConnector>::Instance
PUBLIC	??$make_pair@AAGAAG@std@@YA?AU?$pair@GG@0@AAG0@Z ; std::make_pair<unsigned short &,unsigned short &>
PUBLIC	??$?0P8CPythonPlayerSettingsModule@@AEXXZPAV0@$0A@@thread@std@@QAE@$$QAP8CPythonPlayerSettingsModule@@AEXXZ$$QAPAV2@@Z ; std::thread::thread<void (__thiscall CPythonPlayerSettingsModule::*)(void),CPythonPlayerSettingsModule *,0>
PUBLIC	??$exchange@U_Thrd_t@@U1@@std@@YA?AU_Thrd_t@@AAU1@$$QAU1@@Z ; std::exchange<_Thrd_t,_Thrd_t>
PUBLIC	?initnet@@YAXXZ					; initnet
PUBLIC	?netSendHuntingAction@@YAPAU_object@@PAU1@0@Z	; netSendHuntingAction
PUBLIC	?netSendChangeLookCancel@@YAPAU_object@@PAU1@0@Z ; netSendChangeLookCancel
PUBLIC	?netSendChangeLookAccept@@YAPAU_object@@PAU1@0@Z ; netSendChangeLookAccept
PUBLIC	?netSendChangeLookCheckOutFreeYangItem@@YAPAU_object@@PAU1@0@Z ; netSendChangeLookCheckOutFreeYangItem
PUBLIC	?netSendChangeLookCheckInFreeYangItem@@YAPAU_object@@PAU1@0@Z ; netSendChangeLookCheckInFreeYangItem
PUBLIC	?netSendChangeLookCheckOut@@YAPAU_object@@PAU1@0@Z ; netSendChangeLookCheckOut
PUBLIC	?netSendChangeLookCheckIn@@YAPAU_object@@PAU1@0@Z ; netSendChangeLookCheckIn
PUBLIC	?netSendPetRevive@@YAPAU_object@@PAU1@0@Z	; netSendPetRevive
PUBLIC	?netSendPetAttrChange@@YAPAU_object@@PAU1@0@Z	; netSendPetAttrChange
PUBLIC	?netSendPetAttrDetermine@@YAPAU_object@@PAU1@0@Z ; netSendPetAttrDetermine
PUBLIC	?netSendPetWindowType@@YAPAU_object@@PAU1@0@Z	; netSendPetWindowType
PUBLIC	?netSendPetNameChangeWindowPacket@@YAPAU_object@@PAU1@0@Z ; netSendPetNameChangeWindowPacket
PUBLIC	?netSendPetNameChangePacket@@YAPAU_object@@PAU1@0@Z ; netSendPetNameChangePacket
PUBLIC	?netSendPetDeleteAllSkill@@YAPAU_object@@PAU1@0@Z ; netSendPetDeleteAllSkill
PUBLIC	?netSendPetDeleteSkill@@YAPAU_object@@PAU1@0@Z	; netSendPetDeleteSkill
PUBLIC	?netSendPetSkillUpgradeRequest@@YAPAU_object@@PAU1@0@Z ; netSendPetSkillUpgradeRequest
PUBLIC	?netSendPetLearnSkill@@YAPAU_object@@PAU1@0@Z	; netSendPetLearnSkill
PUBLIC	?netSendPetFeedPacket@@YAPAU_object@@PAU1@0@Z	; netSendPetFeedPacket
PUBLIC	?netSendPetHatchingWindowPacket@@YAPAU_object@@PAU1@0@Z ; netSendPetHatchingWindowPacket
PUBLIC	?netSendPetHatchingPacket@@YAPAU_object@@PAU1@0@Z ; netSendPetHatchingPacket
PUBLIC	?netCheckUsePetItem@@YAPAU_object@@PAU1@0@Z	; netCheckUsePetItem
PUBLIC	?netSendAuraRefineCancel@@YAPAU_object@@PAU1@0@Z ; netSendAuraRefineCancel
PUBLIC	?netSendAuraRefineAccept@@YAPAU_object@@PAU1@0@Z ; netSendAuraRefineAccept
PUBLIC	?netSendAuraRefineCheckOut@@YAPAU_object@@PAU1@0@Z ; netSendAuraRefineCheckOut
PUBLIC	?netSendAuraRefineCheckIn@@YAPAU_object@@PAU1@0@Z ; netSendAuraRefineCheckIn
PUBLIC	?netRegisterSkills@@YAPAU_object@@PAU1@0@Z	; netRegisterSkills
PUBLIC	?netLoadResourcesInCache@@YAPAU_object@@PAU1@0@Z ; netLoadResourcesInCache
PUBLIC	?netSendQuestInputStringLongPacket@@YAPAU_object@@PAU1@0@Z ; netSendQuestInputStringLongPacket
PUBLIC	?netSendPrivateShopSearchInfo@@YAPAU_object@@PAU1@0@Z ; netSendPrivateShopSearchInfo
PUBLIC	?netSendOpenWithVID@@YAPAU_object@@PAU1@0@Z	; netSendOpenWithVID
PUBLIC	?netSendAddTime@@YAPAU_object@@PAU1@0@Z		; netSendAddTime
PUBLIC	?netSendGetBackItems@@YAPAU_object@@PAU1@0@Z	; netSendGetBackItems
PUBLIC	?netSendOpenShopSlot@@YAPAU_object@@PAU1@0@Z	; netSendOpenShopSlot
PUBLIC	?netSendOfflineShopRemoveLogs@@YAPAU_object@@PAU1@0@Z ; netSendOfflineShopRemoveLogs
PUBLIC	?netSendOfflineShopButton@@YAPAU_object@@PAU1@0@Z ; netSendOfflineShopButton
PUBLIC	?netSendOfflineShopCheck@@YAPAU_object@@PAU1@0@Z ; netSendOfflineShopCheck
PUBLIC	?netSendOfflineShopChangeTitle@@YAPAU_object@@PAU1@0@Z ; netSendOfflineShopChangeTitle
PUBLIC	?netSendTakeOfflineMoney@@YAPAU_object@@PAU1@0@Z ; netSendTakeOfflineMoney
PUBLIC	?netSendDestroyOfflineShop@@YAPAU_object@@PAU1@0@Z ; netSendDestroyOfflineShop
PUBLIC	?netSendRemoveOfflineShopItem@@YAPAU_object@@PAU1@0@Z ; netSendRemoveOfflineShopItem
PUBLIC	?netSendAddOfflineShopItem@@YAPAU_object@@PAU1@0@Z ; netSendAddOfflineShopItem
PUBLIC	?netSendOfflineShopBuyPacket@@YAPAU_object@@PAU1@0@Z ; netSendOfflineShopBuyPacket
PUBLIC	?netSendOfflineShopEndPacket@@YAPAU_object@@PAU1@0@Z ; netSendOfflineShopEndPacket
PUBLIC	?netSendExtBattlePassPremiumItem@@YAPAU_object@@PAU1@0@Z ; netSendExtBattlePassPremiumItem
PUBLIC	?netSendExtBattlePassAction@@YAPAU_object@@PAU1@0@Z ; netSendExtBattlePassAction
PUBLIC	?netSendRequestEventData@@YAPAU_object@@PAU1@0@Z ; netSendRequestEventData
PUBLIC	?netSendRequestEventQuest@@YAPAU_object@@PAU1@0@Z ; netSendRequestEventQuest
PUBLIC	?netSendChestDropInfo@@YAPAU_object@@PAU1@0@Z	; netSendChestDropInfo
PUBLIC	?netTargetInfoLoad@@YAPAU_object@@PAU1@0@Z	; netTargetInfoLoad
PUBLIC	?netSendMessengerSummonByNamePacket@@YAPAU_object@@PAU1@0@Z ; netSendMessengerSummonByNamePacket
PUBLIC	?netSendMessengerRequestWarpByNamePacket@@YAPAU_object@@PAU1@0@Z ; netSendMessengerRequestWarpByNamePacket
PUBLIC	?netSendWhisperDetails@@YAPAU_object@@PAU1@0@Z	; netSendWhisperDetails
PUBLIC	?netSetLanguage@@YAPAU_object@@PAU1@0@Z		; netSetLanguage
PUBLIC	?netGetLanguage@@YAPAU_object@@PAU1@0@Z		; netGetLanguage
PUBLIC	?netSendChangeLanguagePacket@@YAPAU_object@@PAU1@0@Z ; netSendChangeLanguagePacket
PUBLIC	?netSendItemSellPacket@@YAPAU_object@@PAU1@0@Z	; netSendItemSellPacket
PUBLIC	?netSendItemDestroyPacket@@YAPAU_object@@PAU1@0@Z ; netSendItemDestroyPacket
PUBLIC	?netSendItemNewAttributePacket@@YAPAU_object@@PAU1@0@Z ; netSendItemNewAttributePacket
PUBLIC	?netRegisterErrorLog@@YAPAU_object@@PAU1@0@Z	; netRegisterErrorLog
PUBLIC	?netSetSkillGroupFake@@YAPAU_object@@PAU1@0@Z	; netSetSkillGroupFake
PUBLIC	?netSetEmpireLanguageMode@@YAPAU_object@@PAU1@0@Z ; netSetEmpireLanguageMode
PUBLIC	?netSetPacketSequenceMode@@YAPAU_object@@PAU1@0@Z ; netSetPacketSequenceMode
PUBLIC	?netSendSelectItemPacket@@YAPAU_object@@PAU1@0@Z ; netSendSelectItemPacket
PUBLIC	?netSendRefinePacket@@YAPAU_object@@PAU1@0@Z	; netSendRefinePacket
PUBLIC	?netSendRequestRefineInfoPacket@@YAPAU_object@@PAU1@0@Z ; netSendRequestRefineInfoPacket
PUBLIC	?netSendGuildWithdrawMoneyPacket@@YAPAU_object@@PAU1@0@Z ; netSendGuildWithdrawMoneyPacket
PUBLIC	?netSendGuildDepositMoneyPacket@@YAPAU_object@@PAU1@0@Z ; netSendGuildDepositMoneyPacket
PUBLIC	?netSendGuildChargeGSPPacket@@YAPAU_object@@PAU1@0@Z ; netSendGuildChargeGSPPacket
PUBLIC	?netSendGuildInviteAnswerPacket@@YAPAU_object@@PAU1@0@Z ; netSendGuildInviteAnswerPacket
PUBLIC	?netSendGuildChangeMemberGeneralPacket@@YAPAU_object@@PAU1@0@Z ; netSendGuildChangeMemberGeneralPacket
PUBLIC	?netSendGuildUseSkillPacket@@YAPAU_object@@PAU1@0@Z ; netSendGuildUseSkillPacket
PUBLIC	?netSendGuildChangeMemberGradePacket@@YAPAU_object@@PAU1@0@Z ; netSendGuildChangeMemberGradePacket
PUBLIC	?netSendGuildRefreshCommentsPacket@@YAPAU_object@@PAU1@0@Z ; netSendGuildRefreshCommentsPacket
PUBLIC	?netSnedGuildDeleteCommentPacket@@YAPAU_object@@PAU1@0@Z ; netSnedGuildDeleteCommentPacket
PUBLIC	?netSnedGuildPostCommentPacket@@YAPAU_object@@PAU1@0@Z ; netSnedGuildPostCommentPacket
PUBLIC	?netSendGuildOfferPacket@@YAPAU_object@@PAU1@0@Z ; netSendGuildOfferPacket
PUBLIC	?netSendGuildChangeGradeAuthorityPacket@@YAPAU_object@@PAU1@0@Z ; netSendGuildChangeGradeAuthorityPacket
PUBLIC	?netSendGuildChangeGradeNamePacket@@YAPAU_object@@PAU1@0@Z ; netSendGuildChangeGradeNamePacket
PUBLIC	?netSendGuildRemoveMemberPacket@@YAPAU_object@@PAU1@0@Z ; netSendGuildRemoveMemberPacket
PUBLIC	?netSendGuildAddMemberPacket@@YAPAU_object@@PAU1@0@Z ; netSendGuildAddMemberPacket
PUBLIC	?netSendQuestConfirmPacket@@YAPAU_object@@PAU1@0@Z ; netSendQuestConfirmPacket
PUBLIC	?netSendQuestInputStringPacket@@YAPAU_object@@PAU1@0@Z ; netSendQuestInputStringPacket
PUBLIC	?netSendMallCheckoutPacket@@YAPAU_object@@PAU1@0@Z ; netSendMallCheckoutPacket
PUBLIC	?netSendSafeboxItemMovePacket@@YAPAU_object@@PAU1@0@Z ; netSendSafeboxItemMovePacket
PUBLIC	?netSendSafeboxCheckoutPacket@@YAPAU_object@@PAU1@0@Z ; netSendSafeboxCheckoutPacket
PUBLIC	?netSendSafeboxCheckinPacket@@YAPAU_object@@PAU1@0@Z ; netSendSafeboxCheckinPacket
PUBLIC	?netSendSafeboxWithdrawMoneyPacket@@YAPAU_object@@PAU1@0@Z ; netSendSafeboxWithdrawMoneyPacket
PUBLIC	?netSendSafeboxSaveMoneyPacket@@YAPAU_object@@PAU1@0@Z ; netSendSafeboxSaveMoneyPacket
PUBLIC	?netSendPartyParameterPacket@@YAPAU_object@@PAU1@0@Z ; netSendPartyParameterPacket
PUBLIC	?netSendPartyUseSkillPacket@@YAPAU_object@@PAU1@0@Z ; netSendPartyUseSkillPacket
PUBLIC	?netSendPartySetStatePacket@@YAPAU_object@@PAU1@0@Z ; netSendPartySetStatePacket
PUBLIC	?netSendPartyRemovePacket@@YAPAU_object@@PAU1@0@Z ; netSendPartyRemovePacket
PUBLIC	?netSendPartyExitPacket@@YAPAU_object@@PAU1@0@Z	; netSendPartyExitPacket
PUBLIC	?netSendPartyInviteAnswerPacket@@YAPAU_object@@PAU1@0@Z ; netSendPartyInviteAnswerPacket
PUBLIC	?netSendPartyInvitePacket@@YAPAU_object@@PAU1@0@Z ; netSendPartyInvitePacket
PUBLIC	?netSendMessengerRemovePacket@@YAPAU_object@@PAU1@0@Z ; netSendMessengerRemovePacket
PUBLIC	?netSendMessengerAddByNamePacket@@YAPAU_object@@PAU1@0@Z ; netSendMessengerAddByNamePacket
PUBLIC	?netSendMessengerAddByVIDPacket@@YAPAU_object@@PAU1@0@Z ; netSendMessengerAddByVIDPacket
PUBLIC	?netSendMessengerBlockRemoveByVIDPacket@@YAPAU_object@@PAU1@0@Z ; netSendMessengerBlockRemoveByVIDPacket
PUBLIC	?netSendMessengerBlockRemovePacket@@YAPAU_object@@PAU1@0@Z ; netSendMessengerBlockRemovePacket
PUBLIC	?netSendMessengerBlockAddByNamePacket@@YAPAU_object@@PAU1@0@Z ; netSendMessengerBlockAddByNamePacket
PUBLIC	?netSendMessengerBlockAddByVIDPacket@@YAPAU_object@@PAU1@0@Z ; netSendMessengerBlockAddByVIDPacket
PUBLIC	?netRegisterEmoticonString@@YAPAU_object@@PAU1@0@Z ; netRegisterEmoticonString
PUBLIC	?netToggleGameDebugInfo@@YAPAU_object@@PAU1@0@Z	; netToggleGameDebugInfo
PUBLIC	?netIsConnect@@YAPAU_object@@PAU1@0@Z		; netIsConnect
PUBLIC	?netDisconnect@@YAPAU_object@@PAU1@0@Z		; netDisconnect
PUBLIC	?netLogOutGame@@YAPAU_object@@PAU1@0@Z		; netLogOutGame
PUBLIC	?netExitGame@@YAPAU_object@@PAU1@0@Z		; netExitGame
PUBLIC	?netExitApplication@@YAPAU_object@@PAU1@0@Z	; netExitApplication
PUBLIC	?netSendExchangeExitPacket@@YAPAU_object@@PAU1@0@Z ; netSendExchangeExitPacket
PUBLIC	?netSendExchangeAcceptPacket@@YAPAU_object@@PAU1@0@Z ; netSendExchangeAcceptPacket
PUBLIC	?netSendExchangeItemDelPacket@@YAPAU_object@@PAU1@0@Z ; netSendExchangeItemDelPacket
PUBLIC	?netSendExchangeItemAddPacket@@YAPAU_object@@PAU1@0@Z ; netSendExchangeItemAddPacket
PUBLIC	?netSendExchangeElkAddPacket@@YAPAU_object@@PAU1@0@Z ; netSendExchangeElkAddPacket
PUBLIC	?netSendExchangeStartPacket@@YAPAU_object@@PAU1@0@Z ; netSendExchangeStartPacket
PUBLIC	?netSendShopSellPacketNew@@YAPAU_object@@PAU1@0@Z ; netSendShopSellPacketNew
PUBLIC	?netSendShopSellPacket@@YAPAU_object@@PAU1@0@Z	; netSendShopSellPacket
PUBLIC	?netSendShopBuyPacket@@YAPAU_object@@PAU1@0@Z	; netSendShopBuyPacket
PUBLIC	?netSendShopEndPacket@@YAPAU_object@@PAU1@0@Z	; netSendShopEndPacket
PUBLIC	?netSendGiveItemPacket@@YAPAU_object@@PAU1@0@Z	; netSendGiveItemPacket
PUBLIC	?netSendItemPickUpPacket@@YAPAU_object@@PAU1@0@Z ; netSendItemPickUpPacket
PUBLIC	?netSendItemMovePacket@@YAPAU_object@@PAU1@0@Z	; netSendItemMovePacket
PUBLIC	?netSendGoldDropPacketNew@@YAPAU_object@@PAU1@0@Z ; netSendGoldDropPacketNew
PUBLIC	?netSendElkDropPacket@@YAPAU_object@@PAU1@0@Z	; netSendElkDropPacket
PUBLIC	?netSendItemDropPacketNew@@YAPAU_object@@PAU1@0@Z ; netSendItemDropPacketNew
PUBLIC	?netSendItemDropPacket@@YAPAU_object@@PAU1@0@Z	; netSendItemDropPacket
PUBLIC	?netSendItemUseToItemPacket@@YAPAU_object@@PAU1@0@Z ; netSendItemUseToItemPacket
PUBLIC	?netSendItemUsePacket@@YAPAU_object@@PAU1@0@Z	; netSendItemUsePacket
PUBLIC	?netOnClickPacket@@YAPAU_object@@PAU1@0@Z	; netOnClickPacket
PUBLIC	?netSendEnterGamePacket@@YAPAU_object@@PAU1@0@Z	; netSendEnterGamePacket
PUBLIC	?netSendDestroyCharacterPacket@@YAPAU_object@@PAU1@0@Z ; netSendDestroyCharacterPacket
PUBLIC	?netSendCreateCharacterPacket@@YAPAU_object@@PAU1@0@Z ; netSendCreateCharacterPacket
PUBLIC	?netSendEmoticon@@YAPAU_object@@PAU1@0@Z	; netSendEmoticon
PUBLIC	?netSendChatPacket@@YAPAU_object@@PAU1@0@Z	; netSendChatPacket
PUBLIC	?netSendCharacterPositionPacket@@YAPAU_object@@PAU1@0@Z ; netSendCharacterPositionPacket
PUBLIC	?netSendWhisperPacket@@YAPAU_object@@PAU1@0@Z	; netSendWhisperPacket
PUBLIC	?netIsInsultIn@@YAPAU_object@@PAU1@0@Z		; netIsInsultIn
PUBLIC	?netIsChatInsultIn@@YAPAU_object@@PAU1@0@Z	; netIsChatInsultIn
PUBLIC	?netEnableChatInsultFilter@@YAPAU_object@@PAU1@0@Z ; netEnableChatInsultFilter
PUBLIC	?netSendChangeNamePacket@@YAPAU_object@@PAU1@0@Z ; netSendChangeNamePacket
PUBLIC	?netSendSelectCharacterPacket@@YAPAU_object@@PAU1@0@Z ; netSendSelectCharacterPacket
PUBLIC	?netDirectEnter@@YAPAU_object@@PAU1@0@Z		; netDirectEnter
PUBLIC	?netSendLoginPacket@@YAPAU_object@@PAU1@0@Z	; netSendLoginPacket
PUBLIC	?netSendSelectEmpirePacket@@YAPAU_object@@PAU1@0@Z ; netSendSelectEmpirePacket
PUBLIC	?netSetOfflinePhase@@YAPAU_object@@PAU1@0@Z	; netSetOfflinePhase
PUBLIC	?netSetLoginInfo@@YAPAU_object@@PAU1@0@Z	; netSetLoginInfo
PUBLIC	?netConnectToAccountServer@@YAPAU_object@@PAU1@0@Z ; netConnectToAccountServer
PUBLIC	?netConnectUDP@@YAPAU_object@@PAU1@0@Z		; netConnectUDP
PUBLIC	?netConnectTCP@@YAPAU_object@@PAU1@0@Z		; netConnectTCP
PUBLIC	?netSetMarkServer@@YAPAU_object@@PAU1@0@Z	; netSetMarkServer
PUBLIC	?netSetUDPRecvBufferSize@@YAPAU_object@@PAU1@0@Z ; netSetUDPRecvBufferSize
PUBLIC	?netSetTCPSendBufferSize@@YAPAU_object@@PAU1@0@Z ; netSetTCPSendBufferSize
PUBLIC	?netSetTCPRecvBufferSize@@YAPAU_object@@PAU1@0@Z ; netSetTCPRecvBufferSize
PUBLIC	?netSetHandler@@YAPAU_object@@PAU1@0@Z		; netSetHandler
PUBLIC	?netSetAccountConnectorHandler@@YAPAU_object@@PAU1@0@Z ; netSetAccountConnectorHandler
PUBLIC	?netSetServerCommandParserWindow@@YAPAU_object@@PAU1@0@Z ; netSetServerCommandParserWindow
PUBLIC	?netClearPhaseWindow@@YAPAU_object@@PAU1@0@Z	; netClearPhaseWindow
PUBLIC	?netSetPhaseWindow@@YAPAU_object@@PAU1@0@Z	; netSetPhaseWindow
PUBLIC	?netGetFieldMusicVolume@@YAPAU_object@@PAU1@0@Z	; netGetFieldMusicVolume
PUBLIC	?netGetFieldMusicFileName@@YAPAU_object@@PAU1@0@Z ; netGetFieldMusicFileName
PUBLIC	?netGetAccountCharacterSlotDataString@@YAPAU_object@@PAU1@0@Z ; netGetAccountCharacterSlotDataString
PUBLIC	?netGetAccountCharacterSlotDataInteger@@YAPAU_object@@PAU1@0@Z ; netGetAccountCharacterSlotDataInteger
PUBLIC	?netGetMainActorSkillGroup@@YAPAU_object@@PAU1@0@Z ; netGetMainActorSkillGroup
PUBLIC	?netGetMainActorEmpire@@YAPAU_object@@PAU1@0@Z	; netGetMainActorEmpire
PUBLIC	?netGetMainActorRace@@YAPAU_object@@PAU1@0@Z	; netGetMainActorRace
PUBLIC	?netGetMainActorVID@@YAPAU_object@@PAU1@0@Z	; netGetMainActorVID
PUBLIC	?netGetEmpireID@@YAPAU_object@@PAU1@0@Z		; netGetEmpireID
PUBLIC	?netGetGuildID@@YAPAU_object@@PAU1@0@Z		; netGetGuildID
PUBLIC	?netUploadSymbol@@YAPAU_object@@PAU1@0@Z	; netUploadSymbol
PUBLIC	?netUploadMark@@YAPAU_object@@PAU1@0@Z		; netUploadMark
PUBLIC	?netLoadInsultList@@YAPAU_object@@PAU1@0@Z	; netLoadInsultList
PUBLIC	?netWarp@@YAPAU_object@@PAU1@0@Z		; netWarp
PUBLIC	?netStartGame@@YAPAU_object@@PAU1@0@Z		; netStartGame
PUBLIC	?netGetPreservedServerCommand@@YAPAU_object@@PAU1@0@Z ; netGetPreservedServerCommand
PUBLIC	?netPreserveServerCommand@@YAPAU_object@@PAU1@0@Z ; netPreserveServerCommand
PUBLIC	?netGetServerInfo@@YAPAU_object@@PAU1@0@Z	; netGetServerInfo
PUBLIC	?netSetServerInfo@@YAPAU_object@@PAU1@0@Z	; netSetServerInfo
PUBLIC	?netGetBettingGuildWarValue@@YAPAU_object@@PAU1@0@Z ; netGetBettingGuildWarValue
PUBLIC	?startLoadThread@CPythonPlayerSettingsModule@@QAEXXZ ; CPythonPlayerSettingsModule::startLoadThread
PUBLIC	?joinable@thread@std@@QBE_NXZ			; std::thread::joinable
PUBLIC	??4thread@std@@QAEAAV01@$$QAV01@@Z		; std::thread::operator=
PUBLIC	??1thread@std@@QAE@XZ				; std::thread::~thread
PUBLIC	?GetLanguage@CPythonNetworkStream@@QBEHXZ	; CPythonNetworkStream::GetLanguage
PUBLIC	?g_kList_strCommand@@3V?$list@V?$basic_string@DU?$char_traits@D@std@@V?$allocator@D@2@@std@@V?$allocator@V?$basic_string@DU?$char_traits@D@std@@V?$allocator@D@2@@std@@@2@@std@@A ; g_kList_strCommand
?vecDropSoundFileName@@3V?$array@U?$pair@KV?$basic_string@DU?$char_traits@D@std@@V?$allocator@D@2@@std@@@std@@$04@std@@B DB 08cH DUP (?) ; vecDropSoundFileName
?vecEffectList@@3V?$vector@V?$tuple@IPBDPBD_N@std@@V?$allocator@V?$tuple@IPBDPBD_N@std@@@2@@std@@B DB 0cH DUP (?) ; vecEffectList
	ALIGN	8

?characterNameColors@@3V?$map@EV?$array@E$02@std@@U?$less@E@2@V?$allocator@U?$pair@$$CBEV?$array@E$02@std@@@std@@@2@@std@@B DQ 01H DUP (?) ; characterNameColors
?characterTitleColors@@3V?$map@EV?$array@E$02@std@@U?$less@E@2@V?$allocator@U?$pair@$$CBEV?$array@E$02@std@@@std@@@2@@std@@B DQ 01H DUP (?) ; characterTitleColors
?characterTitleSystemColors@@3V?$map@EV?$array@E$02@std@@U?$less@E@2@V?$allocator@U?$pair@$$CBEV?$array@E$02@std@@@std@@@2@@std@@B DQ 01H DUP (?) ; characterTitleSystemColors
?emotionIcons@@3V?$map@EPBDU?$less@E@std@@V?$allocator@U?$pair@$$CBEPBD@std@@@2@@std@@B DQ 01H DUP (?) ; emotionIcons
?skillIndexes@@3V?$map@EV?$map@EV?$vector@EV?$allocator@E@std@@@std@@U?$less@E@2@V?$allocator@U?$pair@$$CBEV?$vector@EV?$allocator@E@std@@@std@@@std@@@2@@std@@U?$less@E@2@V?$allocator@U?$pair@$$CBEV?$map@EV?$vector@EV?$allocator@E@std@@@std@@U?$less@E@2@V?$allocator@U?$pair@$$CBEV?$vector@EV?$allocator@E@std@@@std@@@std@@@2@@std@@@std@@@2@@std@@B DQ 01H DUP (?) ; skillIndexes
?guildSkills@@3V?$map@V?$basic_string@DU?$char_traits@D@std@@V?$allocator@D@2@@std@@V?$vector@EV?$allocator@E@std@@@2@U?$less@V?$basic_string@DU?$char_traits@D@std@@V?$allocator@D@2@@std@@@2@V?$allocator@U?$pair@$$CBV?$basic_string@DU?$char_traits@D@std@@V?$allocator@D@2@@std@@V?$vector@EV?$allocator@E@std@@@2@@std@@@2@@std@@B DQ 01H DUP (?) ; guildSkills
?g_kList_strCommand@@3V?$list@V?$basic_string@DU?$char_traits@D@std@@V?$allocator@D@2@@std@@V?$allocator@V?$basic_string@DU?$char_traits@D@std@@V?$allocator@D@2@@std@@@2@@std@@A DQ 01H DUP (?) ; g_kList_strCommand
_BSS	ENDS
;	COMDAT xdata$x
xdata$x	SEGMENT
__ehfuncinfo$?startLoadThread@CPythonPlayerSettingsModule@@QAEXXZ DQ 00000000119930522r ; 2.33398e-314
	DD	FLAT:__unwindtable$?startLoadThread@CPythonPlayerSettingsModule@@QAEXXZ
	DQ	00000000000000000r		; 0
	DQ	00000000000000000r		; 0
	DQ	00000000100000000r		; 2.122e-314
__unwindtable$?startLoadThread@CPythonPlayerSettingsModule@@QAEXXZ DD 0ffffffffH
	DD	FLAT:__unwindfunclet$?startLoadThread@CPythonPlayerSettingsModule@@QAEXXZ$1
xdata$x	ENDS
;	COMDAT xdata$x
xdata$x	SEGMENT
__ehfuncinfo$??__EvecUseSoundFileName@@YAXXZ DQ 00000000619930522r ; 1.2944e-313
	DD	FLAT:__unwindtable$??__EvecUseSoundFileName@@YAXXZ
	DQ	00000000000000000r		; 0
	DQ	00000000000000000r		; 0
	DQ	00000000100000000r		; 2.122e-314
__unwindtable$??__EvecUseSoundFileName@@YAXXZ DD 0ffffffffH
	DD	FLAT:__unwindfunclet$??__EvecUseSoundFileName@@YAXXZ$0
	DD	00H
	DD	FLAT:__unwindfunclet$??__EvecUseSoundFileName@@YAXXZ$1
	DD	01H
	DD	FLAT:__unwindfunclet$??__EvecUseSoundFileName@@YAXXZ$2
	DD	02H
	DD	FLAT:__unwindfunclet$??__EvecUseSoundFileName@@YAXXZ$3
	DD	03H
	DD	FLAT:__unwindfunclet$??__EvecUseSoundFileName@@YAXXZ$4
	DD	04H
	DD	FLAT:__unwindfunclet$??__EvecUseSoundFileName@@YAXXZ$5
xdata$x	ENDS
;	COMDAT xdata$x
xdata$x	SEGMENT
__ehfuncinfo$??__FvecUseSoundFileName@@YAXXZ DQ 00000000119930522r ; 2.33398e-314
	DD	FLAT:__unwindtable$??__FvecUseSoundFileName@@YAXXZ
	DQ	00000000000000000r		; 0
	DQ	00000000000000000r		; 0
	DQ	00000000100000000r		; 2.122e-314
__unwindtable$??__FvecUseSoundFileName@@YAXXZ DD 0ffffffffH
	DD	FLAT:___std_terminate
xdata$x	ENDS
;	COMDAT xdata$x
xdata$x	SEGMENT
__ehfuncinfo$??__EvecDropSoundFileName@@YAXXZ DQ 00000000419930522r ; 8.69997e-314
	DD	FLAT:__unwindtable$??__EvecDropSoundFileName@@YAXXZ
	DQ	00000000000000000r		; 0
	DQ	00000000000000000r		; 0
	DQ	00000000100000000r		; 2.122e-314
__unwindtable$??__EvecDropSoundFileName@@YAXXZ DD 0ffffffffH
	DD	FLAT:__unwindfunclet$??__EvecDropSoundFileName@@YAXXZ$0
	DD	00H
	DD	FLAT:__unwindfunclet$??__EvecDropSoundFileName@@YAXXZ$1
	DD	01H
	DD	FLAT:__unwindfunclet$??__EvecDropSoundFileName@@YAXXZ$2
	DD	02H
	DD	FLAT:__unwindfunclet$??__EvecDropSoundFileName@@YAXXZ$3
xdata$x	ENDS
;	COMDAT xdata$x
xdata$x	SEGMENT
__ehfuncinfo$??__FvecDropSoundFileName@@YAXXZ DQ 00000000119930522r ; 2.33398e-314
	DD	FLAT:__unwindtable$??__FvecDropSoundFileName@@YAXXZ
	DQ	00000000000000000r		; 0
	DQ	00000000000000000r		; 0
	DQ	00000000100000000r		; 2.122e-314
__unwindtable$??__FvecDropSoundFileName@@YAXXZ DD 0ffffffffH
	DD	FLAT:___std_terminate
xdata$x	ENDS
;	COMDAT xdata$x
xdata$x	SEGMENT
__ehfuncinfo$??__EskillIndexes@@YAXXZ DQ 00000002819930522r ; 8.50918e-313
	DD	FLAT:__unwindtable$??__EskillIndexes@@YAXXZ
	DQ	00000000000000000r		; 0
	DQ	00000000000000000r		; 0
	DQ	00000000100000000r		; 2.122e-314
	ORG $+4
__unwindtable$??__EskillIndexes@@YAXXZ DD 0ffffffffH
	DD	FLAT:__unwindfunclet$??__EskillIndexes@@YAXXZ$0
	DD	00H
	DD	FLAT:__unwindfunclet$??__EskillIndexes@@YAXXZ$1
	DD	01H
	DD	FLAT:__unwindfunclet$??__EskillIndexes@@YAXXZ$2
	DD	00H
	DD	FLAT:__unwindfunclet$??__EskillIndexes@@YAXXZ$2
	DD	03H
	DD	FLAT:__unwindfunclet$??__EskillIndexes@@YAXXZ$4
	DD	04H
	DD	FLAT:__unwindfunclet$??__EskillIndexes@@YAXXZ$5
	DD	05H
	DD	FLAT:__unwindfunclet$??__EskillIndexes@@YAXXZ$6
	DD	06H
	DD	FLAT:__unwindfunclet$??__EskillIndexes@@YAXXZ$7
	DD	07H
	DD	FLAT:__unwindfunclet$??__EskillIndexes@@YAXXZ$8
	DD	08H
	DD	FLAT:__unwindfunclet$??__EskillIndexes@@YAXXZ$9
	DD	07H
	DD	FLAT:__unwindfunclet$??__EskillIndexes@@YAXXZ$9
	DD	0aH
	DD	FLAT:__unwindfunclet$??__EskillIndexes@@YAXXZ$11
	DD	0bH
	DD	FLAT:__unwindfunclet$??__EskillIndexes@@YAXXZ$12
	DD	0cH
	DD	FLAT:__unwindfunclet$??__EskillIndexes@@YAXXZ$13
	DD	0dH
	DD	FLAT:__unwindfunclet$??__EskillIndexes@@YAXXZ$14
	DD	0eH
	DD	FLAT:__unwindfunclet$??__EskillIndexes@@YAXXZ$15
	DD	0fH
	DD	FLAT:__unwindfunclet$??__EskillIndexes@@YAXXZ$16
	DD	0eH
	DD	FLAT:__unwindfunclet$??__EskillIndexes@@YAXXZ$16
	DD	011H
	DD	FLAT:__unwindfunclet$??__EskillIndexes@@YAXXZ$18
	DD	012H
	DD	FLAT:__unwindfunclet$??__EskillIndexes@@YAXXZ$19
	DD	013H
	DD	FLAT:__unwindfunclet$??__EskillIndexes@@YAXXZ$20
	DD	014H
	DD	FLAT:__unwindfunclet$??__EskillIndexes@@YAXXZ$21
	DD	015H
	DD	FLAT:__unwindfunclet$??__EskillIndexes@@YAXXZ$22
	DD	016H
	DD	FLAT:__unwindfunclet$??__EskillIndexes@@YAXXZ$23
	DD	015H
	DD	FLAT:__unwindfunclet$??__EskillIndexes@@YAXXZ$23
	DD	018H
	DD	FLAT:__unwindfunclet$??__EskillIndexes@@YAXXZ$25
	DD	019H
	DD	FLAT:__unwindfunclet$??__EskillIndexes@@YAXXZ$26
	DD	05H
	DD	FLAT:__unwindfunclet$??__EskillIndexes@@YAXXZ$7
	DD	01bH
	DD	FLAT:__unwindfunclet$??__EskillIndexes@@YAXXZ$9
	DD	01cH
	DD	FLAT:__unwindfunclet$??__EskillIndexes@@YAXXZ$11
	DD	01dH
	DD	FLAT:__unwindfunclet$??__EskillIndexes@@YAXXZ$12
	DD	01eH
	DD	FLAT:__unwindfunclet$??__EskillIndexes@@YAXXZ$14
	DD	01fH
	DD	FLAT:__unwindfunclet$??__EskillIndexes@@YAXXZ$16
	DD	020H
	DD	FLAT:__unwindfunclet$??__EskillIndexes@@YAXXZ$18
	DD	021H
	DD	FLAT:__unwindfunclet$??__EskillIndexes@@YAXXZ$19
	DD	022H
	DD	FLAT:__unwindfunclet$??__EskillIndexes@@YAXXZ$21
	DD	023H
	DD	FLAT:__unwindfunclet$??__EskillIndexes@@YAXXZ$23
	DD	024H
	DD	FLAT:__unwindfunclet$??__EskillIndexes@@YAXXZ$25
	DD	025H
	DD	FLAT:__unwindfunclet$??__EskillIndexes@@YAXXZ$26
	DD	026H
	DD	FLAT:__unwindfunclet$??__EskillIndexes@@YAXXZ$28
xdata$x	ENDS
;	COMDAT xdata$x
xdata$x	SEGMENT
__ehfuncinfo$??__EguildSkills@@YAXXZ DQ 00000000a19930522r ; 2.14319e-313
	DD	FLAT:__unwindtable$??__EguildSkills@@YAXXZ
	DQ	00000000000000000r		; 0
	DQ	00000000000000000r		; 0
	DQ	00000000100000000r		; 2.122e-314
	ORG $+4
__unwindtable$??__EguildSkills@@YAXXZ DD 0ffffffffH
	DD	FLAT:__unwindfunclet$??__EguildSkills@@YAXXZ$0
	DD	00H
	DD	FLAT:__unwindfunclet$??__EguildSkills@@YAXXZ$1
	DD	01H
	DD	FLAT:__unwindfunclet$??__EguildSkills@@YAXXZ$10
	DD	01H
	DD	FLAT:__unwindfunclet$??__EguildSkills@@YAXXZ$2
	DD	03H
	DD	FLAT:__unwindfunclet$??__EguildSkills@@YAXXZ$3
	DD	04H
	DD	FLAT:__unwindfunclet$??__EguildSkills@@YAXXZ$4
	DD	05H
	DD	FLAT:__unwindfunclet$??__EguildSkills@@YAXXZ$16
	DD	01H
	DD	FLAT:__unwindfunclet$??__EguildSkills@@YAXXZ$3
	DD	07H
	DD	FLAT:__unwindfunclet$??__EguildSkills@@YAXXZ$4
	DD	08H
	DD	FLAT:__unwindfunclet$??__EguildSkills@@YAXXZ$6
xdata$x	ENDS
;	COMDAT xdata$x
xdata$x	SEGMENT
__ehfuncinfo$?netPreserveServerCommand@@YAPAU_object@@PAU1@0@Z DQ 00000000219930522r ; 4.45598e-314
	DD	FLAT:__unwindtable$?netPreserveServerCommand@@YAPAU_object@@PAU1@0@Z
	DQ	00000000000000000r		; 0
	DQ	00000000000000000r		; 0
	DQ	00000000100000000r		; 2.122e-314
__unwindtable$?netPreserveServerCommand@@YAPAU_object@@PAU1@0@Z DD 0ffffffffH
	DD	FLAT:__unwindfunclet$?netPreserveServerCommand@@YAPAU_object@@PAU1@0@Z$0
	DD	00H
	DD	FLAT:__unwindfunclet$?netPreserveServerCommand@@YAPAU_object@@PAU1@0@Z$4
xdata$x	ENDS
;	COMDAT xdata$x
xdata$x	SEGMENT
__ehfuncinfo$?netSendPetFeedPacket@@YAPAU_object@@PAU1@0@Z DQ 00000000119930522r ; 2.33398e-314
	DD	FLAT:__unwindtable$?netSendPetFeedPacket@@YAPAU_object@@PAU1@0@Z
	DQ	00000000000000000r		; 0
	DQ	00000000000000000r		; 0
	DQ	00000000100000000r		; 2.122e-314
__unwindtable$?netSendPetFeedPacket@@YAPAU_object@@PAU1@0@Z DD 0ffffffffH
	DD	FLAT:__unwindfunclet$?netSendPetFeedPacket@@YAPAU_object@@PAU1@0@Z$0
xdata$x	ENDS
;	COMDAT xdata$x
xdata$x	SEGMENT
__ehfuncinfo$?netSendPetRevive@@YAPAU_object@@PAU1@0@Z DQ 00000000119930522r ; 2.33398e-314
	DD	FLAT:__unwindtable$?netSendPetRevive@@YAPAU_object@@PAU1@0@Z
	DQ	00000000000000000r		; 0
	DQ	00000000000000000r		; 0
	DQ	00000000100000000r		; 2.122e-314
__unwindtable$?netSendPetRevive@@YAPAU_object@@PAU1@0@Z DD 0ffffffffH
	DD	FLAT:__unwindfunclet$?netSendPetRevive@@YAPAU_object@@PAU1@0@Z$0
xdata$x	ENDS
;	COMDAT xdata$x
xdata$x	SEGMENT
__ehfuncinfo$??$?0P8CPythonPlayerSettingsModule@@AEXXZPAV0@$0A@@thread@std@@QAE@$$QAP8CPythonPlayerSettingsModule@@AEXXZ$$QAPAV2@@Z DQ 00000000119930522r ; 2.33398e-314
	DD	FLAT:__unwindtable$??$?0P8CPythonPlayerSettingsModule@@AEXXZPAV0@$0A@@thread@std@@QAE@$$QAP8CPythonPlayerSettingsModule@@AEXXZ$$QAPAV2@@Z
	DQ	00000000000000000r		; 0
	DQ	00000000000000000r		; 0
	DQ	00000000100000000r		; 2.122e-314
__unwindtable$??$?0P8CPythonPlayerSettingsModule@@AEXXZPAV0@$0A@@thread@std@@QAE@$$QAP8CPythonPlayerSettingsModule@@AEXXZ$$QAPAV2@@Z DD 0ffffffffH
	DD	FLAT:__unwindfunclet$??$?0P8CPythonPlayerSettingsModule@@AEXXZPAV0@$0A@@thread@std@@QAE@$$QAP8CPythonPlayerSettingsModule@@AEXXZ$$QAPAV2@@Z$0
xdata$x	ENDS
;	COMDAT xdata$x
xdata$x	SEGMENT
__ehfuncinfo$?push_back@?$list@V?$basic_string@DU?$char_traits@D@std@@V?$allocator@D@2@@std@@V?$allocator@V?$basic_string@DU?$char_traits@D@std@@V?$allocator@D@2@@std@@@2@@std@@QAEX$$QAV?$basic_string@DU?$char_traits@D@std@@V?$allocator@D@2@@2@@Z DQ 00000000119930522r ; 2.33398e-314
	DD	FLAT:__unwindtable$?push_back@?$list@V?$basic_string@DU?$char_traits@D@std@@V?$allocator@D@2@@std@@V?$allocator@V?$basic_string@DU?$char_traits@D@std@@V?$allocator@D@2@@std@@@2@@std@@QAEX$$QAV?$basic_string@DU?$char_traits@D@std@@V?$allocator@D@2@@2@@Z
	DQ	00000000000000000r		; 0
	DQ	00000000000000000r		; 0
	DQ	00000000100000000r		; 2.122e-314
__unwindtable$?push_back@?$list@V?$basic_string@DU?$char_traits@D@std@@V?$allocator@D@2@@std@@V?$allocator@V?$basic_string@DU?$char_traits@D@std@@V?$allocator@D@2@@std@@@2@@std@@QAEX$$QAV?$basic_string@DU?$char_traits@D@std@@V?$allocator@D@2@@2@@Z DD 0ffffffffH
	DD	FLAT:__unwindfunclet$?push_back@?$list@V?$basic_string@DU?$char_traits@D@std@@V?$allocator@D@2@@std@@V?$allocator@V?$basic_string@DU?$char_traits@D@std@@V?$allocator@D@2@@std@@@2@@std@@QAEX$$QAV?$basic_string@DU?$char_traits@D@std@@V?$allocator@D@2@@2@@Z$1
xdata$x	ENDS
;	COMDAT xdata$x
xdata$x	SEGMENT
__ehfuncinfo$??$_Start@P8CPythonPlayerSettingsModule@@AEXXZPAV1@@thread@std@@AAEX$$QAP8CPythonPlayerSettingsModule@@AEXXZ$$QAPAV2@@Z DQ 00000000119930522r ; 2.33398e-314
	DD	FLAT:__unwindtable$??$_Start@P8CPythonPlayerSettingsModule@@AEXXZPAV1@@thread@std@@AAEX$$QAP8CPythonPlayerSettingsModule@@AEXXZ$$QAPAV2@@Z
	DQ	00000000000000000r		; 0
	DQ	00000000000000000r		; 0
	DQ	00000000100000000r		; 2.122e-314
__unwindtable$??$_Start@P8CPythonPlayerSettingsModule@@AEXXZPAV1@@thread@std@@AAEX$$QAP8CPythonPlayerSettingsModule@@AEXXZ$$QAPAV2@@Z DD 0ffffffffH
	DD	FLAT:__unwindfunclet$??$_Start@P8CPythonPlayerSettingsModule@@AEXXZPAV1@@thread@std@@AAEX$$QAP8CPythonPlayerSettingsModule@@AEXXZ$$QAPAV2@@Z$0
xdata$x	ENDS
;	COMDAT xdata$x
xdata$x	SEGMENT
__ehfuncinfo$??$_Emplace@V?$basic_string@DU?$char_traits@D@std@@V?$allocator@D@2@@std@@@?$list@V?$basic_string@DU?$char_traits@D@std@@V?$allocator@D@2@@std@@V?$allocator@V?$basic_string@DU?$char_traits@D@std@@V?$allocator@D@2@@std@@@2@@std@@QAEPAU?$_List_node@V?$basic_string@DU?$char_traits@D@std@@V?$allocator@D@2@@std@@PAX@1@QAU21@$$QAV?$basic_string@DU?$char_traits@D@std@@V?$allocator@D@2@@1@@Z DQ 00000000119930522r ; 2.33398e-314
	DD	FLAT:__unwindtable$??$_Emplace@V?$basic_string@DU?$char_traits@D@std@@V?$allocator@D@2@@std@@@?$list@V?$basic_string@DU?$char_traits@D@std@@V?$allocator@D@2@@std@@V?$allocator@V?$basic_string@DU?$char_traits@D@std@@V?$allocator@D@2@@std@@@2@@std@@QAEPAU?$_List_node@V?$basic_string@DU?$char_traits@D@std@@V?$allocator@D@2@@std@@PAX@1@QAU21@$$QAV?$basic_string@DU?$char_traits@D@std@@V?$allocator@D@2@@1@@Z
	DQ	00000000000000000r		; 0
	DQ	00000000000000000r		; 0
	DQ	00000000100000000r		; 2.122e-314
__unwindtable$??$_Emplace@V?$basic_string@DU?$char_traits@D@std@@V?$allocator@D@2@@std@@@?$list@V?$basic_string@DU?$char_traits@D@std@@V?$allocator@D@2@@std@@V?$allocator@V?$basic_string@DU?$char_traits@D@std@@V?$allocator@D@2@@std@@@2@@std@@QAEPAU?$_List_node@V?$basic_string@DU?$char_traits@D@std@@V?$allocator@D@2@@std@@PAX@1@QAU21@$$QAV?$basic_string@DU?$char_traits@D@std@@V?$allocator@D@2@@1@@Z DD 0ffffffffH
	DD	FLAT:__unwindfunclet$??$_Emplace@V?$basic_string@DU?$char_traits@D@std@@V?$allocator@D@2@@std@@@?$list@V?$basic_string@DU?$char_traits@D@std@@V?$allocator@D@2@@std@@V?$allocator@V?$basic_string@DU?$char_traits@D@std@@V?$allocator@D@2@@std@@@2@@std@@QAEPAU?$_List_node@V?$basic_string@DU?$char_traits@D@std@@V?$allocator@D@2@@std@@PAX@1@QAU21@$$QAV?$basic_string@DU?$char_traits@D@std@@V?$allocator@D@2@@1@@Z$1
xdata$x	ENDS
;	COMDAT xdata$x
xdata$x	SEGMENT
__ehfuncinfo$??$_Invoke@V?$tuple@P8CPythonPlayerSettingsModule@@AEXXZPAV1@@std@@$0A@$00@thread@std@@CGIPAX@Z DQ 00000000019930522r ; 2.11987e-315
	DQ	00000000000000000r		; 0
	DQ	00000000000000000r		; 0
	DQ	00000000000000000r		; 0
	DD	05H
xdata$x	ENDS
;	COMDAT xdata$x
xdata$x	SEGMENT
__ehfuncinfo$??$?0V?$basic_string@DU?$char_traits@D@std@@V?$allocator@D@2@@std@@@?$_List_node_emplace_op2@V?$allocator@U?$_List_node@V?$basic_string@DU?$char_traits@D@std@@V?$allocator@D@2@@std@@PAX@std@@@std@@@std@@QAE@AAV?$allocator@U?$_List_node@V?$basic_string@DU?$char_traits@D@std@@V?$allocator@D@2@@std@@PAX@std@@@1@$$QAV?$basic_string@DU?$char_traits@D@std@@V?$allocator@D@2@@1@@Z DQ 00000000119930522r ; 2.33398e-314
	DD	FLAT:__unwindtable$??$?0V?$basic_string@DU?$char_traits@D@std@@V?$allocator@D@2@@std@@@?$_List_node_emplace_op2@V?$allocator@U?$_List_node@V?$basic_string@DU?$char_traits@D@std@@V?$allocator@D@2@@std@@PAX@std@@@std@@@std@@QAE@AAV?$allocator@U?$_List_node@V?$basic_string@DU?$char_traits@D@std@@V?$allocator@D@2@@std@@PAX@std@@@1@$$QAV?$basic_string@DU?$char_traits@D@std@@V?$allocator@D@2@@1@@Z
	DQ	00000000000000000r		; 0
	DQ	00000000000000000r		; 0
	DQ	00000000100000000r		; 2.122e-314
__unwindtable$??$?0V?$basic_string@DU?$char_traits@D@std@@V?$allocator@D@2@@std@@@?$_List_node_emplace_op2@V?$allocator@U?$_List_node@V?$basic_string@DU?$char_traits@D@std@@V?$allocator@D@2@@std@@PAX@std@@@std@@@std@@QAE@AAV?$allocator@U?$_List_node@V?$basic_string@DU?$char_traits@D@std@@V?$allocator@D@2@@std@@PAX@std@@@1@$$QAV?$basic_string@DU?$char_traits@D@std@@V?$allocator@D@2@@1@@Z DD 0ffffffffH
	DD	FLAT:__unwindfunclet$??$?0V?$basic_string@DU?$char_traits@D@std@@V?$allocator@D@2@@std@@@?$_List_node_emplace_op2@V?$allocator@U?$_List_node@V?$basic_string@DU?$char_traits@D@std@@V?$allocator@D@2@@std@@PAX@std@@@std@@@std@@QAE@AAV?$allocator@U?$_List_node@V?$basic_string@DU?$char_traits@D@std@@V?$allocator@D@2@@std@@PAX@std@@@1@$$QAV?$basic_string@DU?$char_traits@D@std@@V?$allocator@D@2@@1@@Z$0
	ORG $+4
?vecUseSoundFileName@@3V?$array@U?$pair@KV?$basic_string@DU?$char_traits@D@std@@V?$allocator@D@2@@std@@@std@@$06@std@@B DQ 00000000000000001r ; 4.94066e-324 ; vecUseSoundFileName
	DQ	00000000000000000r		; 0
	DQ	00000000000000000r		; 0
	DQ	00000000000000000r		; 0
	DQ	00000000000000000r		; 0
	DQ	00000000000000000r		; 0
	DQ	00000000000000000r		; 0
	DQ	00000000000000000r		; 0
	DQ	00000000000000000r		; 0
	DQ	00000000000000000r		; 0
	DQ	00000000000000000r		; 0
	DQ	00000000000000000r		; 0
	DQ	00000000000000000r		; 0
	DQ	00000000000000000r		; 0
	DQ	00000000000000000r		; 0
	DQ	00000000000000000r		; 0
	DQ	00000000000000000r		; 0
	DQ	00000000000000000r		; 0
	DQ	00000000000000000r		; 0
	DQ	00000000000000000r		; 0
	DQ	00000000000000000r		; 0
	DQ	00000000000000000r		; 0
	DQ	00000000000000000r		; 0
	DQ	00000000000000000r		; 0
	DD	00H
?gs_stServerInfo@@3V?$basic_string@DU?$char_traits@D@std@@V?$allocator@D@2@@std@@A DB 00H ; gs_stServerInfo
	DB	00H
	DB	00H
	DB	00H
	DB	00H
	DB	00H
	DB	00H
	DB	00H
	DB	00H
	DB	00H
	DB	00H
	DB	00H
	DB	00H
	DB	00H
	DB	00H
	DB	00H
	DD	00H
	DD	0fH
?vecUseSoundFileName$initializer$@@3P6AXXZA DD FLAT:??__EvecUseSoundFileName@@YAXXZ ; vecUseSoundFileName$initializer$
?vecDropSoundFileName$initializer$@@3P6AXXZA DD FLAT:??__EvecDropSoundFileName@@YAXXZ ; vecDropSoundFileName$initializer$
?vecEffectList$initializer$@@3P6AXXZA DD FLAT:??__EvecEffectList@@YAXXZ ; vecEffectList$initializer$
?characterNameColors$initializer$@@3P6AXXZA DD FLAT:??__EcharacterNameColors@@YAXXZ ; characterNameColors$initializer$
?characterTitleColors$initializer$@@3P6AXXZA DD FLAT:??__EcharacterTitleColors@@YAXXZ ; characterTitleColors$initializer$
?characterTitleSystemColors$initializer$@@3P6AXXZA DD FLAT:??__EcharacterTitleSystemColors@@YAXXZ ; characterTitleSystemColors$initializer$
?emotionIcons$initializer$@@3P6AXXZA DD FLAT:??__EemotionIcons@@YAXXZ ; emotionIcons$initializer$
?skillIndexes$initializer$@@3P6AXXZA DD FLAT:??__EskillIndexes@@YAXXZ ; skillIndexes$initializer$
?guildSkills$initializer$@@3P6AXXZA DD FLAT:??__EguildSkills@@YAXXZ ; guildSkills$initializer$
?gs_stServerInfo$initializer$@@3P6AXXZA DD FLAT:??__Egs_stServerInfo@@YAXXZ ; gs_stServerInfo$initializer$
?g_kList_strCommand$initializer$@@3P6AXXZA DD FLAT:??__Eg_kList_strCommand@@YAXXZ ; g_kList_strCommand$initializer$
END
