; Listing generated by Microsoft (R) Optimizing Compiler Version 19.44.35219.0 

	TITLE	c:\anka2project\anka2project\source\binary\vs_files\userinterface\release\pythonpackmodule.obj
	.686P
	.XMM
	include listing.inc
	.model	flat

INCLUDELIB OLDNAMES

PUBLIC	??_C@_04DJODFCKA@?4pyc@				; `string'
PUBLIC	??_C@_03DEFKFCAB@?4py@				; `string'
PUBLIC	??_C@_05IDMALMPP@Exist@				; `string'
PUBLIC	??_C@_04LCMACLFG@?4txt@				; `string'
PUBLIC	?g_adwDecryptKey@@3PAKA				; g_adwDecryptKey
PUBLIC	?g_adwEncryptKey@@3PAKA				; g_adwEncryptKey
?g_adwDecryptKey@@3PAKA DD 04H DUP (?)			; g_adwDecryptKey
?g_adwEncryptKey@@3PAKA DD 04H DUP (?)			; g_adwEncryptKey
_BSS	ENDS
;	COMDAT ?s_methods@?1??initpack@@YAXXZ@4PAUPyMethodDef@@A
_DATA	SEGMENT
?s_methods@?1??initpack@@YAXXZ@4PAUPyMethodDef@@A DD FLAT:??_C@_05IDMALMPP@Exist@ ; `initpack'::`2'::s_methods
	DD	FLAT:?packExist@@YAPAU_object@@PAU1@0@Z
	DD	01H
	ORG $+4
	DD	FLAT:??_C@_03NNDHPFFO@Get@
	DD	FLAT:?packGet@@YAPAU_object@@PAU1@0@Z
	DD	01H
	ORG $+4
	DD	00H
	DD	00H
	ORG $+8
_DATA	ENDS
;	COMDAT ??_C@_04LCMACLFG@?4txt@
CONST	SEGMENT
??_C@_04LCMACLFG@?4txt@ DB '.txt', 00H			; `string'
CONST	ENDS
;	COMDAT ??_C@_05IDMALMPP@Exist@
CONST	SEGMENT
??_C@_05IDMALMPP@Exist@ DB 'Exist', 00H			; `string'
CONST	ENDS
;	COMDAT ??_C@_03DEFKFCAB@?4py@
CONST	SEGMENT
??_C@_03DEFKFCAB@?4py@ DB '.py', 00H			; `string'
CONST	ENDS
;	COMDAT ??_C@_04DJODFCKA@?4pyc@
CONST	SEGMENT
??_C@_04DJODFCKA@?4pyc@ DB '.pyc', 00H			; `string'
PUBLIC	?strrchr@@YAPADQADH@Z				; strrchr
PUBLIC	?initpack@@YAXXZ				; initpack
PUBLIC	?packGet@@YAPAU_object@@PAU1@0@Z		; packGet
PUBLIC	?packExist@@YAPAU_object@@PAU1@0@Z		; packExist
PUBLIC	?GetKey_20050304Myevan@@YAPBEXZ			; GetKey_20050304Myevan
PUBLIC	?__BuildClientKey_20050304Myevan@CAccountConnector@@IAEXXZ ; CAccountConnector::__BuildClientKey_20050304Myevan
PUBLIC	?s_adwKey@?1??GetKey_20050304Myevan@@YAPBEXZ@4RCKC ; `GetKey_20050304Myevan'::`2'::s_adwKey
;	COMDAT ?s_adwKey@?1??GetKey_20050304Myevan@@YAPBEXZ@4RCKC
_BSS	SEGMENT
?s_adwKey@?1??GetKey_20050304Myevan@@YAPBEXZ@4RCKC DD 0792H DUP (?) ; `GetKey_20050304Myevan'::`2'::s_adwKey
_BSS	ENDS
;	COMDAT xdata$x
xdata$x	SEGMENT
__ehfuncinfo$?packGet@@YAPAU_object@@PAU1@0@Z DD 019930522H
	DD	01H
	DD	FLAT:__unwindtable$?packGet@@YAPAU_object@@PAU1@0@Z
	DD	2 DUP(00H)
	DD	2 DUP(00H)
	DD	00H
	DD	01H
__unwindtable$?packGet@@YAPAU_object@@PAU1@0@Z DD 0ffffffffH
	DD	FLAT:__unwindfunclet$?packGet@@YAPAU_object@@PAU1@0@Z$0
; Function compile flags: /Ogtp
; File C:\Anka2Project\Anka2Project\Source\Binary\source\UserInterface\PythonPackModule.cpp
; File C:\Anka2Project\Anka2Project\Source\Binary\source\eterBase\Singleton.h
; File C:\Anka2Project\Anka2Project\Source\Binary\source\UserInterface\PythonPackModule.cpp
;	COMDAT ?packExist@@YAPAU_object@@PAU1@0@Z
_TEXT	SEGMENT
_strFileName$ = -4					; size = 4
_poSelf$ = 8						; size = 4
_poArgs$ = 12						; size = 4
?packExist@@YAPAU_object@@PAU1@0@Z PROC			; packExist, COMDAT

; 41   : {

  00000	55		 push	 ebp
  00001	8b ec		 mov	 ebp, esp
  00003	51		 push	 ecx

; 42   : 	char *strFileName;
; 43   : 
; 44   : 	if (!PyTuple_GetString(poArgs, 0, &strFileName))

  00004	8d 45 fc	 lea	 eax, DWORD PTR _strFileName$[ebp]
  00007	50		 push	 eax
  00008	6a 00		 push	 0
  0000a	ff 75 0c	 push	 DWORD PTR _poArgs$[ebp]
  0000d	e8 00 00 00 00	 call	 ?PyTuple_GetString@@YA_NPAU_object@@HPAPAD@Z ; PyTuple_GetString
  00012	83 c4 0c	 add	 esp, 12			; 0000000cH
  00015	84 c0		 test	 al, al
  00017	75 0e		 jne	 SHORT $LN2@packExist

; 45   : 		return Py_BuildException();

  00019	6a 00		 push	 0
  0001b	e8 00 00 00 00	 call	 ?Py_BuildException@@YAPAU_object@@PBDZZ ; Py_BuildException
  00020	83 c4 04	 add	 esp, 4

; 48   : }

  00023	8b e5		 mov	 esp, ebp
  00025	5d		 pop	 ebp
  00026	c3		 ret	 0
$LN2@packExist:
; File C:\Anka2Project\Anka2Project\Source\Binary\source\eterBase\Singleton.h

; 26   : 		assert(ms_singleton);

  00027	8b 0d 00 00 00
	00		 mov	 ecx, DWORD PTR ?ms_singleton@?$CSingleton@VCEterPackManager@@@@0PAVCEterPackManager@@A ; CSingleton<CEterPackManager>::ms_singleton
  0002d	85 c9		 test	 ecx, ecx
  0002f	75 1a		 jne	 SHORT $LN6@packExist
  00031	6a 1a		 push	 26			; 0000001aH
  00033	68 00 00 00 00	 push	 OFFSET ??_C@_1IO@CAJLEEOI@?$AAC?$AA?3?$AA?2?$AAA?$AAn?$AAk?$AAa?$AA2?$AAP?$AAr?$AAo?$AAj?$AAe?$AAc?$AAt@
  00038	68 00 00 00 00	 push	 OFFSET ??_C@_1BK@FMEHPMFE@?$AAm?$AAs?$AA_?$AAs?$AAi?$AAn?$AAg?$AAl?$AAe?$AAt?$AAo?$AAn@
  0003d	e8 00 00 00 00	 call	 __wassert
  00042	8b 0d 00 00 00
	00		 mov	 ecx, DWORD PTR ?ms_singleton@?$CSingleton@VCEterPackManager@@@@0PAVCEterPackManager@@A ; CSingleton<CEterPackManager>::ms_singleton
  00048	83 c4 0c	 add	 esp, 12			; 0000000cH
$LN6@packExist:
; File C:\Anka2Project\Anka2Project\Source\Binary\source\UserInterface\PythonPackModule.cpp

; 47   : 	return Py_BuildValue("i", CEterPackManager::Instance().isExist(strFileName)?1:0);

  0004b	ff 75 fc	 push	 DWORD PTR _strFileName$[ebp]
  0004e	e8 00 00 00 00	 call	 ?isExist@CEterPackManager@@QAE_NPBD@Z ; CEterPackManager::isExist
  00053	0f b6 c0	 movzx	 eax, al
  00056	50		 push	 eax
  00057	68 00 00 00 00	 push	 OFFSET ??_C@_01KBJDNOO@i@
  0005c	ff 15 00 00 00
	00		 call	 DWORD PTR __imp__Py_BuildValue
  00062	83 c4 08	 add	 esp, 8

; 48   : }

  00065	8b e5		 mov	 esp, ebp
  00067	5d		 pop	 ebp
  00068	c3		 ret	 0
?packExist@@YAPAU_object@@PAU1@0@Z ENDP			; packExist
_TEXT	ENDS
; Function compile flags: /Ogtp
; File C:\Anka2Project\Anka2Project\Source\Binary\source\UserInterface\PythonPackModule.cpp
; File C:\Program Files (x86)\Windows Kits\10\Include\10.0.26100.0\ucrt\string.h
; File C:\Anka2Project\Anka2Project\Source\Binary\source\UserInterface\PythonPackModule.cpp
; File C:\Program Files (x86)\Windows Kits\10\Include\10.0.26100.0\ucrt\string.h
; File C:\Anka2Project\Anka2Project\Source\Binary\source\UserInterface\PythonPackModule.cpp
; File C:\Anka2Project\Anka2Project\Source\Binary\source\eterBase\Singleton.h
; File C:\Anka2Project\Anka2Project\Source\Binary\source\UserInterface\PythonPackModule.cpp
; File C:\Anka2Project\Anka2Project\Source\Binary\source\eterBase\Singleton.h
; File C:\Anka2Project\Anka2Project\Source\Binary\source\UserInterface\PythonPackModule.cpp
;	COMDAT ?packGet@@YAPAU_object@@PAU1@0@Z
_TEXT	SEGMENT
_pData$5 = -348						; size = 4
_strFileName$ = -344					; size = 4
_file$6 = -340						; size = 324
__$ArrayPad$ = -16					; size = 4
__$EHRec$ = -12						; size = 12
_poSelf$ = 8						; size = 4
_poArgs$ = 12						; size = 4
?packGet@@YAPAU_object@@PAU1@0@Z PROC			; packGet, COMDAT

; 51   : {

  00000	55		 push	 ebp
  00001	8b ec		 mov	 ebp, esp
  00003	6a ff		 push	 -1
  00005	68 00 00 00 00	 push	 __ehhandler$?packGet@@YAPAU_object@@PAU1@0@Z
  0000a	64 a1 00 00 00
	00		 mov	 eax, DWORD PTR fs:0
  00010	50		 push	 eax
  00011	81 ec 50 01 00
	00		 sub	 esp, 336		; 00000150H
  00017	a1 00 00 00 00	 mov	 eax, DWORD PTR ___security_cookie
  0001c	33 c5		 xor	 eax, ebp
  0001e	89 45 f0	 mov	 DWORD PTR __$ArrayPad$[ebp], eax
  00021	56		 push	 esi
  00022	50		 push	 eax
  00023	8d 45 f4	 lea	 eax, DWORD PTR __$EHRec$[ebp]
  00026	64 a3 00 00 00
	00		 mov	 DWORD PTR fs:0, eax
  0002c	8b 45 0c	 mov	 eax, DWORD PTR _poArgs$[ebp]

; 52   : 	char *strFileName;
; 53   : 
; 54   : 	if (!PyTuple_GetString(poArgs, 0, &strFileName))

  0002f	8d 8d a8 fe ff
	ff		 lea	 ecx, DWORD PTR _strFileName$[ebp]
  00035	51		 push	 ecx
  00036	6a 00		 push	 0
  00038	50		 push	 eax
  00039	e8 00 00 00 00	 call	 ?PyTuple_GetString@@YA_NPAU_object@@HPAPAD@Z ; PyTuple_GetString
  0003e	83 c4 0c	 add	 esp, 12			; 0000000cH
  00041	84 c0		 test	 al, al
  00043	0f 84 ee 00 00
	00		 je	 $LN4@packGet
; File C:\Program Files (x86)\Windows Kits\10\Include\10.0.26100.0\ucrt\string.h

; 514  :         return const_cast<char*>(strrchr(static_cast<char const*>(_String), _Ch));

  00049	6a 2e		 push	 46			; 0000002eH
  0004b	ff b5 a8 fe ff
	ff		 push	 DWORD PTR _strFileName$[ebp]
  00051	e8 00 00 00 00	 call	 _strrchr
; File C:\Anka2Project\Anka2Project\Source\Binary\source\UserInterface\PythonPackModule.cpp

; 57   : 	const char *pcExt = strrchr(strFileName, '.');

  00056	8b f0		 mov	 esi, eax
; File C:\Program Files (x86)\Windows Kits\10\Include\10.0.26100.0\ucrt\string.h

; 514  :         return const_cast<char*>(strrchr(static_cast<char const*>(_String), _Ch));

  00058	83 c4 08	 add	 esp, 8
; File C:\Anka2Project\Anka2Project\Source\Binary\source\UserInterface\PythonPackModule.cpp

; 58   : 	if (pcExt)

  0005b	85 f6		 test	 esi, esi
  0005d	0f 84 d4 00 00
	00		 je	 $LN4@packGet

; 59   : 	{
; 60   : 		if ((stricmp(pcExt, ".py") == 0) ||
; 61   : 			(stricmp(pcExt, ".pyc") == 0) ||

  00063	68 00 00 00 00	 push	 OFFSET ??_C@_03DEFKFCAB@?4py@
  00068	56		 push	 esi
  00069	e8 00 00 00 00	 call	 __stricmp
  0006e	83 c4 08	 add	 esp, 8
  00071	85 c0		 test	 eax, eax
  00073	74 28		 je	 SHORT $LN5@packGet
  00075	68 00 00 00 00	 push	 OFFSET ??_C@_04DJODFCKA@?4pyc@
  0007a	56		 push	 esi
  0007b	e8 00 00 00 00	 call	 __stricmp
  00080	83 c4 08	 add	 esp, 8
  00083	85 c0		 test	 eax, eax
  00085	74 16		 je	 SHORT $LN5@packGet
  00087	68 00 00 00 00	 push	 OFFSET ??_C@_04LCMACLFG@?4txt@
  0008c	56		 push	 esi
  0008d	e8 00 00 00 00	 call	 __stricmp
  00092	83 c4 08	 add	 esp, 8
  00095	85 c0		 test	 eax, eax
  00097	0f 85 9a 00 00
	00		 jne	 $LN4@packGet
$LN5@packGet:

; 62   : 			(stricmp(pcExt, ".txt") == 0))
; 63   : 		{
; 64   : 			CMappedFile file;

  0009d	8d 8d ac fe ff
	ff		 lea	 ecx, DWORD PTR _file$6[ebp]
  000a3	e8 00 00 00 00	 call	 ??0CMappedFile@@QAE@XZ	; CMappedFile::CMappedFile
  000a8	c7 45 fc 00 00
	00 00		 mov	 DWORD PTR __$EHRec$[ebp+8], 0
; File C:\Anka2Project\Anka2Project\Source\Binary\source\eterBase\Singleton.h

; 26   : 		assert(ms_singleton);

  000af	8b 0d 00 00 00
	00		 mov	 ecx, DWORD PTR ?ms_singleton@?$CSingleton@VCEterPackManager@@@@0PAVCEterPackManager@@A ; CSingleton<CEterPackManager>::ms_singleton
; File C:\Anka2Project\Anka2Project\Source\Binary\source\UserInterface\PythonPackModule.cpp

; 65   : 			const void * pData = nullptr;

  000b5	c7 85 a4 fe ff
	ff 00 00 00 00	 mov	 DWORD PTR _pData$5[ebp], 0
; File C:\Anka2Project\Anka2Project\Source\Binary\source\eterBase\Singleton.h

; 26   : 		assert(ms_singleton);

  000bf	85 c9		 test	 ecx, ecx
  000c1	75 1a		 jne	 SHORT $LN13@packGet
  000c3	6a 1a		 push	 26			; 0000001aH
  000c5	68 00 00 00 00	 push	 OFFSET ??_C@_1IO@CAJLEEOI@?$AAC?$AA?3?$AA?2?$AAA?$AAn?$AAk?$AAa?$AA2?$AAP?$AAr?$AAo?$AAj?$AAe?$AAc?$AAt@
  000ca	68 00 00 00 00	 push	 OFFSET ??_C@_1BK@FMEHPMFE@?$AAm?$AAs?$AA_?$AAs?$AAi?$AAn?$AAg?$AAl?$AAe?$AAt?$AAo?$AAn@
  000cf	e8 00 00 00 00	 call	 __wassert
  000d4	8b 0d 00 00 00
	00		 mov	 ecx, DWORD PTR ?ms_singleton@?$CSingleton@VCEterPackManager@@@@0PAVCEterPackManager@@A ; CSingleton<CEterPackManager>::ms_singleton
  000da	83 c4 0c	 add	 esp, 12			; 0000000cH
$LN13@packGet:
; File C:\Anka2Project\Anka2Project\Source\Binary\source\UserInterface\PythonPackModule.cpp

; 67   : 			if (CEterPackManager::Instance().Get(file,strFileName,&pData))

  000dd	8d 85 a4 fe ff
	ff		 lea	 eax, DWORD PTR _pData$5[ebp]
  000e3	50		 push	 eax
  000e4	ff b5 a8 fe ff
	ff		 push	 DWORD PTR _strFileName$[ebp]
  000ea	8d 85 ac fe ff
	ff		 lea	 eax, DWORD PTR _file$6[ebp]
  000f0	50		 push	 eax
  000f1	e8 00 00 00 00	 call	 ?Get@CEterPackManager@@QAE_NAAVCMappedFile@@PBDPAPBX@Z ; CEterPackManager::Get
  000f6	8d 8d ac fe ff
	ff		 lea	 ecx, DWORD PTR _file$6[ebp]
  000fc	84 c0		 test	 al, al
  000fe	74 2b		 je	 SHORT $LN6@packGet

; 68   : 				return Py_BuildValue("s#",pData, file.Size());

  00100	e8 00 00 00 00	 call	 ?Size@CMappedFile@@QAEKXZ ; CMappedFile::Size
  00105	50		 push	 eax
  00106	ff b5 a4 fe ff
	ff		 push	 DWORD PTR _pData$5[ebp]
  0010c	68 00 00 00 00	 push	 OFFSET ??_C@_02OIKAIHIF@s?$CD@
  00111	ff 15 00 00 00
	00		 call	 DWORD PTR __imp__Py_BuildValue
  00117	83 c4 0c	 add	 esp, 12			; 0000000cH
  0011a	8d 8d ac fe ff
	ff		 lea	 ecx, DWORD PTR _file$6[ebp]
  00120	8b f0		 mov	 esi, eax
  00122	e8 00 00 00 00	 call	 ??1CMappedFile@@UAE@XZ	; CMappedFile::~CMappedFile
  00127	8b c6		 mov	 eax, esi
  00129	eb 16		 jmp	 SHORT $LN1@packGet
$LN6@packGet:

; 69   : 		}

  0012b	c7 45 fc ff ff
	ff ff		 mov	 DWORD PTR __$EHRec$[ebp+8], -1
  00132	e8 00 00 00 00	 call	 ??1CMappedFile@@UAE@XZ	; CMappedFile::~CMappedFile
$LN4@packGet:

; 70   : 	}
; 71   : 
; 72   : 	return Py_BuildException();
; 73   : }

  00137	6a 00		 push	 0
  00139	e8 00 00 00 00	 call	 ?Py_BuildException@@YAPAU_object@@PBDZZ ; Py_BuildException
  0013e	83 c4 04	 add	 esp, 4
$LN1@packGet:
  00141	8b 4d f4	 mov	 ecx, DWORD PTR __$EHRec$[ebp]
  00144	64 89 0d 00 00
	00 00		 mov	 DWORD PTR fs:0, ecx
  0014b	59		 pop	 ecx
  0014c	5e		 pop	 esi
  0014d	8b 4d f0	 mov	 ecx, DWORD PTR __$ArrayPad$[ebp]
  00150	33 cd		 xor	 ecx, ebp
  00152	e8 00 00 00 00	 call	 @__security_check_cookie@4
  00157	8b e5		 mov	 esp, ebp
  00159	5d		 pop	 ebp
  0015a	c3		 ret	 0
_TEXT	ENDS
;	COMDAT text$x
text$x	SEGMENT
__unwindfunclet$?packGet@@YAPAU_object@@PAU1@0@Z$0:
  00000	8d 8d ac fe ff
	ff		 lea	 ecx, DWORD PTR _file$6[ebp]
  00006	e9 00 00 00 00	 jmp	 ??1CMappedFile@@UAE@XZ	; CMappedFile::~CMappedFile
  0000b	cc		 int	 3
  0000c	cc		 int	 3
  0000d	cc		 int	 3
  0000e	cc		 int	 3
  0000f	cc		 int	 3
__ehhandler$?packGet@@YAPAU_object@@PAU1@0@Z:
  00010	90		 npad	 1
  00011	90		 npad	 1
  00012	8b 54 24 08	 mov	 edx, DWORD PTR [esp+8]
  00016	8d 42 0c	 lea	 eax, DWORD PTR [edx+12]
  00019	8b 8a a8 fe ff
	ff		 mov	 ecx, DWORD PTR [edx-344]
  0001f	33 c8		 xor	 ecx, eax
  00021	e8 00 00 00 00	 call	 @__security_check_cookie@4
  00026	8b 4a fc	 mov	 ecx, DWORD PTR [edx-4]
  00029	33 c8		 xor	 ecx, eax
  0002b	e8 00 00 00 00	 call	 @__security_check_cookie@4
  00030	b8 00 00 00 00	 mov	 eax, OFFSET __ehfuncinfo$?packGet@@YAPAU_object@@PAU1@0@Z
  00035	e9 00 00 00 00	 jmp	 ___CxxFrameHandler3
text$x	ENDS
?packGet@@YAPAU_object@@PAU1@0@Z ENDP			; packGet
; Function compile flags: /Ogtp
; File C:\Anka2Project\Anka2Project\Source\Binary\source\UserInterface\PythonPackModule.cpp
; File C:\Program Files\Microsoft Visual Studio\2022\Community\VC\Tools\MSVC\14.44.35207\include\xstring
; File C:\Anka2Project\Anka2Project\Source\Binary\source\UserInterface\PythonPackModule.cpp
; File C:\Program Files\Microsoft Visual Studio\2022\Community\VC\Tools\MSVC\14.44.35207\include\xstring
; File C:\Anka2Project\Anka2Project\Source\Binary\source\UserInterface\PythonPackModule.cpp
;	COMDAT ?initpack@@YAXXZ
_TEXT	SEGMENT
$T1 = -28						; size = 24
__$ArrayPad$ = -4					; size = 4
?initpack@@YAXXZ PROC					; initpack, COMDAT

; 76   : {

  00000	55		 push	 ebp
  00001	8b ec		 mov	 ebp, esp
  00003	83 ec 20	 sub	 esp, 32			; 00000020H
  00006	a1 00 00 00 00	 mov	 eax, DWORD PTR ___security_cookie
  0000b	33 c5		 xor	 eax, ebp
  0000d	89 45 fc	 mov	 DWORD PTR __$ArrayPad$[ebp], eax

; 85   : 	Py_InitModule(GetModuleName(PACK_MODULE).c_str(), s_methods);

  00010	8d 45 e4	 lea	 eax, DWORD PTR $T1[ebp]
  00013	6a 04		 push	 4
  00015	50		 push	 eax
  00016	e8 00 00 00 00	 call	 ?GetModuleName@@YA?AV?$basic_string@DU?$char_traits@D@std@@V?$allocator@D@2@@std@@H@Z ; GetModuleName
  0001b	83 c4 08	 add	 esp, 8
; File C:\Program Files\Microsoft Visual Studio\2022\Community\VC\Tools\MSVC\14.44.35207\include\xstring

; 453  :         return _Myres > _Small_string_capacity;

  0001e	83 78 14 0f	 cmp	 DWORD PTR [eax+20], 15	; 0000000fH

; 445  :         if (_Large_mode_engaged()) {

  00022	76 02		 jbe	 SHORT $LN8@initpack

; 446  :             _Result = _Unfancy(_Bx._Ptr);

  00024	8b 00		 mov	 eax, DWORD PTR [eax]
$LN8@initpack:
; File C:\Anka2Project\Anka2Project\Source\Binary\source\UserInterface\PythonPackModule.cpp

; 85   : 	Py_InitModule(GetModuleName(PACK_MODULE).c_str(), s_methods);

  00026	68 f5 03 00 00	 push	 1013			; 000003f5H
  0002b	6a 00		 push	 0
  0002d	6a 00		 push	 0
  0002f	68 00 00 00 00	 push	 OFFSET ?s_methods@?1??initpack@@YAXXZ@4PAUPyMethodDef@@A
  00034	50		 push	 eax
  00035	ff 15 00 00 00
	00		 call	 DWORD PTR __imp__Py_InitModule4
  0003b	83 c4 14	 add	 esp, 20			; 00000014H
; File C:\Program Files\Microsoft Visual Studio\2022\Community\VC\Tools\MSVC\14.44.35207\include\xstring

; 1383 :         _Tidy_deallocate();

  0003e	8d 4d e4	 lea	 ecx, DWORD PTR $T1[ebp]
  00041	e8 00 00 00 00	 call	 ?_Tidy_deallocate@?$basic_string@DU?$char_traits@D@std@@V?$allocator@D@2@@std@@AAEXXZ ; std::basic_string<char,std::char_traits<char>,std::allocator<char> >::_Tidy_deallocate
; File C:\Anka2Project\Anka2Project\Source\Binary\source\UserInterface\PythonPackModule.cpp

; 89   : }

  00046	8b 4d fc	 mov	 ecx, DWORD PTR __$ArrayPad$[ebp]
  00049	33 cd		 xor	 ecx, ebp
  0004b	e8 00 00 00 00	 call	 @__security_check_cookie@4
  00050	8b e5		 mov	 esp, ebp
  00052	5d		 pop	 ebp
  00053	c3		 ret	 0
?initpack@@YAXXZ ENDP					; initpack
_TEXT	ENDS
END
