; Listing generated by Microsoft (R) Optimizing Compiler Version 19.44.35219.0 

	TITLE	c:\anka2project\anka2project\source\binary\vs_files\userinterface\release\pythonapplicationcursor.obj
	.686P
	.XMM
	include listing.inc
	.model	flat

INCLUDELIB OLDNAMES

PUBLIC	??_C@_03LIHNMIHG@?$CIi?$CJ@			; `string'
PUBLIC	??_C@_0N@KKPJLJEF@ChangeCursor@			; `string'
EXTRN	__imp__SetCursor@4:PROC
EXTRN	__imp__ShowCursor@4:PROC
EXTRN	__imp__DestroyCursor@4:PROC
EXTRN	__imp__LoadImageA@24:PROC
;	COMDAT ??_C@_0N@KKPJLJEF@ChangeCursor@
CONST	SEGMENT
??_C@_0N@KKPJLJEF@ChangeCursor@ DB 'ChangeCursor', 00H	; `string'
CONST	ENDS
;	COMDAT ??_C@_03LIHNMIHG@?$CIi?$CJ@
CONST	SEGMENT
??_C@_03LIHNMIHG@?$CIi?$CJ@ DB '(i)', 00H		; `string'
PUBLIC	?_Get_first@?$_Compressed_pair@V?$allocator@U?$_Tree_node@U?$pair@$$CBHPAX@std@@PAX@std@@@std@@V?$_Tree_val@U?$_Tree_simple_types@U?$pair@$$CBHPAX@std@@@std@@@2@$00@std@@QBEABV?$allocator@U?$_Tree_node@U?$pair@$$CBHPAX@std@@PAX@std@@@2@XZ ; std::_Compressed_pair<std::allocator<std::_Tree_node<std::pair<int const ,void *>,void *> >,std::_Tree_val<std::_Tree_simple_types<std::pair<int const ,void *> > >,1>::_Get_first
PUBLIC	?_Getal@?$_Tree@V?$_Tmap_traits@HPAXU?$less@H@std@@V?$allocator@U?$pair@$$CBHPAX@std@@@2@$0A@@std@@@std@@IBEABV?$allocator@U?$_Tree_node@U?$pair@$$CBHPAX@std@@PAX@std@@@2@XZ ; std::_Tree<std::_Tmap_traits<int,void *,std::less<int>,std::allocator<std::pair<int const ,void *> >,0> >::_Getal
PUBLIC	?max_size@?$_Default_allocator_traits@V?$allocator@U?$_Tree_node@U?$pair@$$CBHPAX@std@@PAX@std@@@std@@@std@@SAIABV?$allocator@U?$_Tree_node@U?$pair@$$CBHPAX@std@@PAX@std@@@2@@Z ; std::_Default_allocator_traits<std::allocator<std::_Tree_node<std::pair<int const ,void *>,void *> > >::max_size
PUBLIC	?_Get_first@?$_Compressed_pair@U?$less@H@std@@V?$_Compressed_pair@V?$allocator@U?$_Tree_node@U?$pair@$$CBHPAX@std@@PAX@std@@@std@@V?$_Tree_val@U?$_Tree_simple_types@U?$pair@$$CBHPAX@std@@@std@@@2@$00@2@$00@std@@QBEABU?$less@H@2@XZ ; std::_Compressed_pair<std::less<int>,std::_Compressed_pair<std::allocator<std::_Tree_node<std::pair<int const ,void *>,void *> >,std::_Tree_val<std::_Tree_simple_types<std::pair<int const ,void *> > >,1>,1>::_Get_first
PUBLIC	??0?$_Alloc_construct_ptr@V?$allocator@U?$_Tree_node@U?$pair@$$CBHPAX@std@@PAX@std@@@std@@@std@@QAE@AAV?$allocator@U?$_Tree_node@U?$pair@$$CBHPAX@std@@PAX@std@@@1@@Z ; std::_Alloc_construct_ptr<std::allocator<std::_Tree_node<std::pair<int const ,void *>,void *> > >::_Alloc_construct_ptr<std::allocator<std::_Tree_node<std::pair<int const ,void *>,void *> > >
PUBLIC	?_Allocate@?$_Alloc_construct_ptr@V?$allocator@U?$_Tree_node@U?$pair@$$CBHPAX@std@@PAX@std@@@std@@@std@@QAEXXZ ; std::_Alloc_construct_ptr<std::allocator<std::_Tree_node<std::pair<int const ,void *>,void *> > >::_Allocate
PUBLIC	??$construct_at@PAU?$_Tree_node@U?$pair@$$CBHPAX@std@@PAX@std@@AAPAU12@@std@@YAPAPAU?$_Tree_node@U?$pair@$$CBHPAX@std@@PAX@0@QAPAU10@AAPAU10@@Z ; std::construct_at<std::_Tree_node<std::pair<int const ,void *>,void *> *,std::_Tree_node<std::pair<int const ,void *>,void *> * &>
PUBLIC	??$construct_at@U?$pair@$$CBHPAX@std@@U12@@std@@YAPAU?$pair@$$CBHPAX@0@QAU10@$$QAU10@@Z ; std::construct_at<std::pair<int const ,void *>,std::pair<int const ,void *> >
PUBLIC	?max_size@?$_Tree@V?$_Tmap_traits@HPAXU?$less@H@std@@V?$allocator@U?$pair@$$CBHPAX@std@@@2@$0A@@std@@@std@@QBEIXZ ; std::_Tree<std::_Tmap_traits<int,void *,std::less<int>,std::allocator<std::pair<int const ,void *> >,0> >::max_size
PUBLIC	?_Getcomp@?$_Tree@V?$_Tmap_traits@HPAXU?$less@H@std@@V?$allocator@U?$pair@$$CBHPAX@std@@@2@$0A@@std@@@std@@IBEABU?$less@H@2@XZ ; std::_Tree<std::_Tmap_traits<int,void *,std::less<int>,std::allocator<std::pair<int const ,void *> >,0> >::_Getcomp
PUBLIC	?_Min@?$_Tree_val@U?$_Tree_simple_types@U?$pair@$$CBHPAX@std@@@std@@@std@@SAPAU?$_Tree_node@U?$pair@$$CBHPAX@std@@PAX@2@PAU32@@Z ; std::_Tree_val<std::_Tree_simple_types<std::pair<int const ,void *> > >::_Min
PUBLIC	?_Lrotate@?$_Tree_val@U?$_Tree_simple_types@U?$pair@$$CBHPAX@std@@@std@@@std@@QAEXPAU?$_Tree_node@U?$pair@$$CBHPAX@std@@PAX@2@@Z ; std::_Tree_val<std::_Tree_simple_types<std::pair<int const ,void *> > >::_Lrotate
PUBLIC	?_Rrotate@?$_Tree_val@U?$_Tree_simple_types@U?$pair@$$CBHPAX@std@@@std@@@std@@QAEXPAU?$_Tree_node@U?$pair@$$CBHPAX@std@@PAX@2@@Z ; std::_Tree_val<std::_Tree_simple_types<std::pair<int const ,void *> > >::_Rrotate
PUBLIC	??0?$_Tree_temp_node_alloc@V?$allocator@U?$_Tree_node@U?$pair@$$CBHPAX@std@@PAX@std@@@std@@@std@@QAE@AAV?$allocator@U?$_Tree_node@U?$pair@$$CBHPAX@std@@PAX@std@@@1@@Z ; std::_Tree_temp_node_alloc<std::allocator<std::_Tree_node<std::pair<int const ,void *>,void *> > >::_Tree_temp_node_alloc<std::allocator<std::_Tree_node<std::pair<int const ,void *>,void *> > >
PUBLIC	??1?$_Alloc_construct_ptr@V?$allocator@U?$_Tree_node@U?$pair@$$CBHPAX@std@@PAX@std@@@std@@@std@@QAE@XZ ; std::_Alloc_construct_ptr<std::allocator<std::_Tree_node<std::pair<int const ,void *>,void *> > >::~_Alloc_construct_ptr<std::allocator<std::_Tree_node<std::pair<int const ,void *>,void *> > >
PUBLIC	??$addressof@$$CBV?$_Tree_val@U?$_Tree_simple_types@U?$pair@$$CBHPAX@std@@@std@@@std@@@std@@YAPBV?$_Tree_val@U?$_Tree_simple_types@U?$pair@$$CBHPAX@std@@@std@@@0@ABV10@@Z ; std::addressof<std::_Tree_val<std::_Tree_simple_types<std::pair<int const ,void *> > > const >
PUBLIC	??$exchange@PAU?$_Tree_node@U?$pair@$$CBHPAX@std@@PAX@std@@$$T@std@@YAPAU?$_Tree_node@U?$pair@$$CBHPAX@std@@PAX@0@AAPAU10@$$QA$$T@Z ; std::exchange<std::_Tree_node<std::pair<int const ,void *>,void *> *,std::nullptr_t>
PUBLIC	??$forward@PAU?$_Tree_node@U?$pair@$$CBHPAX@std@@PAX@std@@@std@@YA$$QAPAU?$_Tree_node@U?$pair@$$CBHPAX@std@@PAX@0@AAPAU10@@Z ; std::forward<std::_Tree_node<std::pair<int const ,void *>,void *> *>
PUBLIC	??$forward@AAPAU?$_Tree_node@U?$pair@$$CBHPAX@std@@PAX@std@@@std@@YAAAPAU?$_Tree_node@U?$pair@$$CBHPAX@std@@PAX@0@AAPAU10@@Z ; std::forward<std::_Tree_node<std::pair<int const ,void *>,void *> * &>
PUBLIC	??$_Construct_in_place@PAU?$_Tree_node@U?$pair@$$CBHPAX@std@@PAX@std@@AAPAU12@@std@@YAXAAPAU?$_Tree_node@U?$pair@$$CBHPAX@std@@PAX@0@0@Z ; std::_Construct_in_place<std::_Tree_node<std::pair<int const ,void *>,void *> *,std::_Tree_node<std::pair<int const ,void *>,void *> * &>
PUBLIC	??$construct@U?$pair@$$CBHPAX@std@@U12@@?$_Default_allocator_traits@V?$allocator@U?$_Tree_node@U?$pair@$$CBHPAX@std@@PAX@std@@@std@@@std@@SAXAAV?$allocator@U?$_Tree_node@U?$pair@$$CBHPAX@std@@PAX@std@@@1@QAU?$pair@$$CBHPAX@1@$$QAU31@@Z ; std::_Default_allocator_traits<std::allocator<std::_Tree_node<std::pair<int const ,void *>,void *> > >::construct<std::pair<int const ,void *>,std::pair<int const ,void *> >
PUBLIC	??$_Kfn@$$CBHPAX@?$_Tmap_traits@HPAXU?$less@H@std@@V?$allocator@U?$pair@$$CBHPAX@std@@@2@$0A@@std@@SAABHABU?$pair@$$CBHPAX@1@@Z ; std::_Tmap_traits<int,void *,std::less<int>,std::allocator<std::pair<int const ,void *> >,0>::_Kfn<int const ,void *>
PUBLIC	??1?$_Tree_temp_node_alloc@V?$allocator@U?$_Tree_node@U?$pair@$$CBHPAX@std@@PAX@std@@@std@@@std@@QAE@XZ ; std::_Tree_temp_node_alloc<std::allocator<std::_Tree_node<std::pair<int const ,void *>,void *> > >::~_Tree_temp_node_alloc<std::allocator<std::_Tree_node<std::pair<int const ,void *>,void *> > >
PUBLIC	?_Check_grow_by_1@?$_Tree@V?$_Tmap_traits@HPAXU?$less@H@std@@V?$allocator@U?$pair@$$CBHPAX@std@@@2@$0A@@std@@@std@@IAEXXZ ; std::_Tree<std::_Tmap_traits<int,void *,std::less<int>,std::allocator<std::pair<int const ,void *> >,0> >::_Check_grow_by_1
PUBLIC	?_Get_scary@?$_Tree@V?$_Tmap_traits@HPAXU?$less@H@std@@V?$allocator@U?$pair@$$CBHPAX@std@@@2@$0A@@std@@@std@@IBEPBV?$_Tree_val@U?$_Tree_simple_types@U?$pair@$$CBHPAX@std@@@std@@@2@XZ ; std::_Tree<std::_Tmap_traits<int,void *,std::less<int>,std::allocator<std::pair<int const ,void *> >,0> >::_Get_scary
PUBLIC	?_Insert_node@?$_Tree_val@U?$_Tree_simple_types@U?$pair@$$CBHPAX@std@@@std@@@std@@QAEPAU?$_Tree_node@U?$pair@$$CBHPAX@std@@PAX@2@U?$_Tree_id@PAU?$_Tree_node@U?$pair@$$CBHPAX@std@@PAX@std@@@2@QAU32@@Z ; std::_Tree_val<std::_Tree_simple_types<std::pair<int const ,void *> > >::_Insert_node
PUBLIC	??D?$_Tree_const_iterator@V?$_Tree_val@U?$_Tree_simple_types@U?$pair@$$CBHPAX@std@@@std@@@std@@@std@@QBEABU?$pair@$$CBHPAX@1@XZ ; std::_Tree_const_iterator<std::_Tree_val<std::_Tree_simple_types<std::pair<int const ,void *> > > >::operator*
PUBLIC	??E?$_Tree_unchecked_const_iterator@V?$_Tree_val@U?$_Tree_simple_types@U?$pair@$$CBHPAX@std@@@std@@@std@@U_Iterator_base0@2@@std@@QAEAAV01@XZ ; std::_Tree_unchecked_const_iterator<std::_Tree_val<std::_Tree_simple_types<std::pair<int const ,void *> > >,std::_Iterator_base0>::operator++
PUBLIC	?_Extract@?$_In_place_key_extract_map_impl@HU?$pair@$$CBHPAX@std@@@std@@SAABHABU?$pair@$$CBHPAX@2@@Z ; std::_In_place_key_extract_map_impl<int,std::pair<int const ,void *> >::_Extract
PUBLIC	??1?$_Tree_temp_node@V?$allocator@U?$_Tree_node@U?$pair@$$CBHPAX@std@@PAX@std@@@std@@@std@@QAE@XZ ; std::_Tree_temp_node<std::allocator<std::_Tree_node<std::pair<int const ,void *>,void *> > >::~_Tree_temp_node<std::allocator<std::_Tree_node<std::pair<int const ,void *>,void *> > >
PUBLIC	?_Release@?$_Alloc_construct_ptr@V?$allocator@U?$_Tree_node@U?$pair@$$CBHPAX@std@@PAX@std@@@std@@@std@@QAEPAU?$_Tree_node@U?$pair@$$CBHPAX@std@@PAX@2@XZ ; std::_Alloc_construct_ptr<std::allocator<std::_Tree_node<std::pair<int const ,void *>,void *> > >::_Release
PUBLIC	??$forward@V?$_Tree_iterator@V?$_Tree_val@U?$_Tree_simple_types@U?$pair@$$CBHPAX@std@@@std@@@std@@@std@@@std@@YA$$QAV?$_Tree_iterator@V?$_Tree_val@U?$_Tree_simple_types@U?$pair@$$CBHPAX@std@@@std@@@std@@@0@AAV10@@Z ; std::forward<std::_Tree_iterator<std::_Tree_val<std::_Tree_simple_types<std::pair<int const ,void *> > > > >
PUBLIC	??$?0PAU?$_Tree_node@U?$pair@$$CBHPAX@std@@PAX@std@@_N$0A@@?$pair@PAU?$_Tree_node@U?$pair@$$CBHPAX@std@@PAX@std@@_N@std@@QAE@$$QAPAU?$_Tree_node@U?$pair@$$CBHPAX@std@@PAX@1@$$QA_N@Z ; std::pair<std::_Tree_node<std::pair<int const ,void *>,void *> *,bool>::pair<std::_Tree_node<std::pair<int const ,void *>,void *> *,bool><std::_Tree_node<std::pair<int const ,void *>,void *> *,bool,0>
PUBLIC	??$?0AAPAU?$_Tree_node@U?$pair@$$CBHPAX@std@@PAX@std@@_N$0A@@?$pair@PAU?$_Tree_node@U?$pair@$$CBHPAX@std@@PAX@std@@_N@std@@QAE@AAPAU?$_Tree_node@U?$pair@$$CBHPAX@std@@PAX@1@$$QA_N@Z ; std::pair<std::_Tree_node<std::pair<int const ,void *>,void *> *,bool>::pair<std::_Tree_node<std::pair<int const ,void *>,void *> *,bool><std::_Tree_node<std::pair<int const ,void *>,void *> * &,bool,0>
PUBLIC	??$?0U?$pair@$$CBHPAX@std@@@?$_Tree_temp_node@V?$allocator@U?$_Tree_node@U?$pair@$$CBHPAX@std@@PAX@std@@@std@@@std@@QAE@AAV?$allocator@U?$_Tree_node@U?$pair@$$CBHPAX@std@@PAX@std@@@1@PAU?$_Tree_node@U?$pair@$$CBHPAX@std@@PAX@1@$$QAU?$pair@$$CBHPAX@1@@Z ; std::_Tree_temp_node<std::allocator<std::_Tree_node<std::pair<int const ,void *>,void *> > >::_Tree_temp_node<std::allocator<std::_Tree_node<std::pair<int const ,void *>,void *> > ><std::pair<int const ,void *> >
PUBLIC	??$forward@U?$pair@$$CBHPAX@std@@@std@@YA$$QAU?$pair@$$CBHPAX@0@AAU10@@Z ; std::forward<std::pair<int const ,void *> >
PUBLIC	??$_Lower_bound_duplicate@H@?$_Tree@V?$_Tmap_traits@HPAXU?$less@H@std@@V?$allocator@U?$pair@$$CBHPAX@std@@@2@$0A@@std@@@std@@IBE_NQAU?$_Tree_node@U?$pair@$$CBHPAX@std@@PAX@1@ABH@Z ; std::_Tree<std::_Tmap_traits<int,void *,std::less<int>,std::allocator<std::pair<int const ,void *> >,0> >::_Lower_bound_duplicate<int>
PUBLIC	??$_Find_lower_bound@H@?$_Tree@V?$_Tmap_traits@HPAXU?$less@H@std@@V?$allocator@U?$pair@$$CBHPAX@std@@@2@$0A@@std@@@std@@IBE?AU?$_Tree_find_result@PAU?$_Tree_node@U?$pair@$$CBHPAX@std@@PAX@std@@@1@ABH@Z ; std::_Tree<std::_Tmap_traits<int,void *,std::less<int>,std::allocator<std::pair<int const ,void *> >,0> >::_Find_lower_bound<int>
PUBLIC	?_Orphan_ptr@?$_Tree_val@U?$_Tree_simple_types@U?$pair@$$CBHPAX@std@@@std@@@std@@QAEXQAU?$_Tree_node@U?$pair@$$CBHPAX@std@@PAX@2@@Z ; std::_Tree_val<std::_Tree_simple_types<std::pair<int const ,void *> > >::_Orphan_ptr
PUBLIC	??E?$_Tree_const_iterator@V?$_Tree_val@U?$_Tree_simple_types@U?$pair@$$CBHPAX@std@@@std@@@std@@@std@@QAEAAV01@XZ ; std::_Tree_const_iterator<std::_Tree_val<std::_Tree_simple_types<std::pair<int const ,void *> > > >::operator++
PUBLIC	??D?$_Tree_iterator@V?$_Tree_val@U?$_Tree_simple_types@U?$pair@$$CBHPAX@std@@@std@@@std@@@std@@QBEAAU?$pair@$$CBHPAX@1@XZ ; std::_Tree_iterator<std::_Tree_val<std::_Tree_simple_types<std::pair<int const ,void *> > > >::operator*
PUBLIC	??0?$_Tree_unchecked_const_iterator@V?$_Tree_val@U?$_Tree_simple_types@U?$pair@$$CBHPAX@std@@@std@@@std@@U_Iterator_base0@2@@std@@QAE@PAU?$_Tree_node@U?$pair@$$CBHPAX@std@@PAX@1@PBV?$_Tree_val@U?$_Tree_simple_types@U?$pair@$$CBHPAX@std@@@std@@@1@@Z ; std::_Tree_unchecked_const_iterator<std::_Tree_val<std::_Tree_simple_types<std::pair<int const ,void *> > >,std::_Iterator_base0>::_Tree_unchecked_const_iterator<std::_Tree_val<std::_Tree_simple_types<std::pair<int const ,void *> > >,std::_Iterator_base0>
PUBLIC	?pointer_to@?$pointer_traits@PAU?$pair@$$CBHPAX@std@@@std@@SAPAU?$pair@$$CBHPAX@2@AAU32@@Z ; std::pointer_traits<std::pair<int const ,void *> *>::pointer_to
PUBLIC	??$_Find@H@?$_Tree@V?$_Tmap_traits@HPAXU?$less@H@std@@V?$allocator@U?$pair@$$CBHPAX@std@@@2@$0A@@std@@@std@@ABEPAU?$_Tree_node@U?$pair@$$CBHPAX@std@@PAX@1@ABH@Z ; std::_Tree<std::_Tmap_traits<int,void *,std::less<int>,std::allocator<std::pair<int const ,void *> >,0> >::_Find<int>
PUBLIC	??$?0V?$_Tree_iterator@V?$_Tree_val@U?$_Tree_simple_types@U?$pair@$$CBHPAX@std@@@std@@@std@@@std@@AB_N$0A@@?$pair@V?$_Tree_iterator@V?$_Tree_val@U?$_Tree_simple_types@U?$pair@$$CBHPAX@std@@@std@@@std@@@std@@_N@std@@QAE@$$QAV?$_Tree_iterator@V?$_Tree_val@U?$_Tree_simple_types@U?$pair@$$CBHPAX@std@@@std@@@std@@@1@AB_N@Z ; std::pair<std::_Tree_iterator<std::_Tree_val<std::_Tree_simple_types<std::pair<int const ,void *> > > >,bool>::pair<std::_Tree_iterator<std::_Tree_val<std::_Tree_simple_types<std::pair<int const ,void *> > > >,bool><std::_Tree_iterator<std::_Tree_val<std::_Tree_simple_types<std::pair<int const ,void *> > > >,bool const &,0>
PUBLIC	??$_Emplace@U?$pair@$$CBHPAX@std@@@?$_Tree@V?$_Tmap_traits@HPAXU?$less@H@std@@V?$allocator@U?$pair@$$CBHPAX@std@@@2@$0A@@std@@@std@@IAE?AU?$pair@PAU?$_Tree_node@U?$pair@$$CBHPAX@std@@PAX@std@@_N@1@$$QAU?$pair@$$CBHPAX@1@@Z ; std::_Tree<std::_Tmap_traits<int,void *,std::less<int>,std::allocator<std::pair<int const ,void *> >,0> >::_Emplace<std::pair<int const ,void *> >
PUBLIC	??$move@AAU?$pair@$$CBHPAX@std@@@std@@YA$$QAU?$pair@$$CBHPAX@0@AAU10@@Z ; std::move<std::pair<int const ,void *> &>
PUBLIC	??$forward@AAPAX@std@@YAAAPAXAAPAX@Z		; std::forward<void * &>
PUBLIC	??0?$_Tree_const_iterator@V?$_Tree_val@U?$_Tree_simple_types@U?$pair@$$CBHPAX@std@@@std@@@std@@@std@@QAE@PAU?$_Tree_node@U?$pair@$$CBHPAX@std@@PAX@1@PBV?$_Tree_val@U?$_Tree_simple_types@U?$pair@$$CBHPAX@std@@@std@@@1@@Z ; std::_Tree_const_iterator<std::_Tree_val<std::_Tree_simple_types<std::pair<int const ,void *> > > >::_Tree_const_iterator<std::_Tree_val<std::_Tree_simple_types<std::pair<int const ,void *> > > >
PUBLIC	??0?$_Tree_iterator@V?$_Tree_val@U?$_Tree_simple_types@U?$pair@$$CBHPAX@std@@@std@@@std@@@std@@QAE@PAU?$_Tree_node@U?$pair@$$CBHPAX@std@@PAX@1@PBV?$_Tree_val@U?$_Tree_simple_types@U?$pair@$$CBHPAX@std@@@std@@@1@@Z ; std::_Tree_iterator<std::_Tree_val<std::_Tree_simple_types<std::pair<int const ,void *> > > >::_Tree_iterator<std::_Tree_val<std::_Tree_simple_types<std::pair<int const ,void *> > > >
PUBLIC	?begin@?$_Tree@V?$_Tmap_traits@HPAXU?$less@H@std@@V?$allocator@U?$pair@$$CBHPAX@std@@@2@$0A@@std@@@std@@QAE?AV?$_Tree_iterator@V?$_Tree_val@U?$_Tree_simple_types@U?$pair@$$CBHPAX@std@@@std@@@std@@@2@XZ ; std::_Tree<std::_Tmap_traits<int,void *,std::less<int>,std::allocator<std::pair<int const ,void *> >,0> >::begin
PUBLIC	?end@?$_Tree@V?$_Tmap_traits@HPAXU?$less@H@std@@V?$allocator@U?$pair@$$CBHPAX@std@@@2@$0A@@std@@@std@@QAE?AV?$_Tree_iterator@V?$_Tree_val@U?$_Tree_simple_types@U?$pair@$$CBHPAX@std@@@std@@@std@@@2@XZ ; std::_Tree<std::_Tmap_traits<int,void *,std::less<int>,std::allocator<std::pair<int const ,void *> >,0> >::end
PUBLIC	?clear@?$_Tree@V?$_Tmap_traits@HPAXU?$less@H@std@@V?$allocator@U?$pair@$$CBHPAX@std@@@2@$0A@@std@@@std@@QAEXXZ ; std::_Tree<std::_Tmap_traits<int,void *,std::less<int>,std::allocator<std::pair<int const ,void *> >,0> >::clear
PUBLIC	?find@?$_Tree@V?$_Tmap_traits@HPAXU?$less@H@std@@V?$allocator@U?$pair@$$CBHPAX@std@@@2@$0A@@std@@@std@@QAE?AV?$_Tree_iterator@V?$_Tree_val@U?$_Tree_simple_types@U?$pair@$$CBHPAX@std@@@std@@@std@@@2@ABH@Z ; std::_Tree<std::_Tmap_traits<int,void *,std::less<int>,std::allocator<std::pair<int const ,void *> >,0> >::find
PUBLIC	??8?$_Tree_const_iterator@V?$_Tree_val@U?$_Tree_simple_types@U?$pair@$$CBHPAX@std@@@std@@@std@@@std@@QBE_NABV01@@Z ; std::_Tree_const_iterator<std::_Tree_val<std::_Tree_simple_types<std::pair<int const ,void *> > > >::operator==
PUBLIC	??C?$_Tree_iterator@V?$_Tree_val@U?$_Tree_simple_types@U?$pair@$$CBHPAX@std@@@std@@@std@@@std@@QBEPAU?$pair@$$CBHPAX@1@XZ ; std::_Tree_iterator<std::_Tree_val<std::_Tree_simple_types<std::pair<int const ,void *> > > >::operator->
PUBLIC	??E?$_Tree_iterator@V?$_Tree_val@U?$_Tree_simple_types@U?$pair@$$CBHPAX@std@@@std@@@std@@@std@@QAEAAV01@XZ ; std::_Tree_iterator<std::_Tree_val<std::_Tree_simple_types<std::pair<int const ,void *> > > >::operator++
PUBLIC	??0?$_Tree_unchecked_const_iterator@V?$_Tree_val@U?$_Tree_simple_types@U?$pair@$$CBHPAX@std@@@std@@@std@@U_Iterator_base0@2@@std@@QAE@XZ ; std::_Tree_unchecked_const_iterator<std::_Tree_val<std::_Tree_simple_types<std::pair<int const ,void *> > >,std::_Iterator_base0>::_Tree_unchecked_const_iterator<std::_Tree_val<std::_Tree_simple_types<std::pair<int const ,void *> > >,std::_Iterator_base0>
PUBLIC	??$insert@$0A@$0A@@?$_Tree@V?$_Tmap_traits@HPAXU?$less@H@std@@V?$allocator@U?$pair@$$CBHPAX@std@@@2@$0A@@std@@@std@@QAE?AU?$pair@V?$_Tree_iterator@V?$_Tree_val@U?$_Tree_simple_types@U?$pair@$$CBHPAX@std@@@std@@@std@@@std@@_N@1@$$QAU?$pair@$$CBHPAX@1@@Z ; std::_Tree<std::_Tmap_traits<int,void *,std::less<int>,std::allocator<std::pair<int const ,void *> >,0> >::insert<0,0>
PUBLIC	??$?0AAHAAPAX$0A@@?$pair@$$CBHPAX@std@@QAE@AAHAAPAX@Z ; std::pair<int const ,void *>::pair<int const ,void *><int &,void * &,0>
PUBLIC	?SetCursorNum@CPythonApplication@@QAEHH@Z	; CPythonApplication::SetCursorNum
PUBLIC	?__IsContinuousChangeTypeCursor@CPythonApplication@@IAEHH@Z ; CPythonApplication::__IsContinuousChangeTypeCursor
PUBLIC	?GetCursorMode@CPythonApplication@@QAEHXZ	; CPythonApplication::GetCursorMode
PUBLIC	?GetLiarCursorOn@CPythonApplication@@QAE_NXZ	; CPythonApplication::GetLiarCursorOn
PUBLIC	?GetCursorVisible@CPythonApplication@@QAEHXZ	; CPythonApplication::GetCursorVisible
PUBLIC	?SetCursorVisible@CPythonApplication@@QAEXH_N@Z	; CPythonApplication::SetCursorVisible
PUBLIC	??0?$_Tree_const_iterator@V?$_Tree_val@U?$_Tree_simple_types@U?$pair@$$CBHPAX@std@@@std@@@std@@@std@@QAE@XZ ; std::_Tree_const_iterator<std::_Tree_val<std::_Tree_simple_types<std::pair<int const ,void *> > > >::_Tree_const_iterator<std::_Tree_val<std::_Tree_simple_types<std::pair<int const ,void *> > > >
PUBLIC	??0?$_Tree_iterator@V?$_Tree_val@U?$_Tree_simple_types@U?$pair@$$CBHPAX@std@@@std@@@std@@@std@@QAE@XZ ; std::_Tree_iterator<std::_Tree_val<std::_Tree_simple_types<std::pair<int const ,void *> > > >::_Tree_iterator<std::_Tree_val<std::_Tree_simple_types<std::pair<int const ,void *> > > >
PUBLIC	?CreateCursors@CPythonApplication@@QAE_NXZ	; CPythonApplication::CreateCursors
PUBLIC	?SetCursorMode@CPythonApplication@@QAEXH@Z	; CPythonApplication::SetCursorMode
PUBLIC	?DestroyCursors@CPythonApplication@@QAEXXZ	; CPythonApplication::DestroyCursors
?vecDropSoundFileName@@3V?$array@U?$pair@KV?$basic_string@DU?$char_traits@D@std@@V?$allocator@D@2@@std@@@std@@$04@std@@B DB 08cH DUP (?) ; vecDropSoundFileName
?vecEffectList@@3V?$vector@V?$tuple@IPBDPBD_N@std@@V?$allocator@V?$tuple@IPBDPBD_N@std@@@2@@std@@B DB 0cH DUP (?) ; vecEffectList
?characterNameColors@@3V?$map@EV?$array@E$02@std@@U?$less@E@2@V?$allocator@U?$pair@$$CBEV?$array@E$02@std@@@std@@@2@@std@@B DQ 01H DUP (?) ; characterNameColors
?characterTitleColors@@3V?$map@EV?$array@E$02@std@@U?$less@E@2@V?$allocator@U?$pair@$$CBEV?$array@E$02@std@@@std@@@2@@std@@B DQ 01H DUP (?) ; characterTitleColors
?characterTitleSystemColors@@3V?$map@EV?$array@E$02@std@@U?$less@E@2@V?$allocator@U?$pair@$$CBEV?$array@E$02@std@@@std@@@2@@std@@B DQ 01H DUP (?) ; characterTitleSystemColors
?emotionIcons@@3V?$map@EPBDU?$less@E@std@@V?$allocator@U?$pair@$$CBEPBD@std@@@2@@std@@B DQ 01H DUP (?) ; emotionIcons
?skillIndexes@@3V?$map@EV?$map@EV?$vector@EV?$allocator@E@std@@@std@@U?$less@E@2@V?$allocator@U?$pair@$$CBEV?$vector@EV?$allocator@E@std@@@std@@@std@@@2@@std@@U?$less@E@2@V?$allocator@U?$pair@$$CBEV?$map@EV?$vector@EV?$allocator@E@std@@@std@@U?$less@E@2@V?$allocator@U?$pair@$$CBEV?$vector@EV?$allocator@E@std@@@std@@@std@@@2@@std@@@std@@@2@@std@@B DQ 01H DUP (?) ; skillIndexes
?guildSkills@@3V?$map@V?$basic_string@DU?$char_traits@D@std@@V?$allocator@D@2@@std@@V?$vector@EV?$allocator@E@std@@@2@U?$less@V?$basic_string@DU?$char_traits@D@std@@V?$allocator@D@2@@std@@@2@V?$allocator@U?$pair@$$CBV?$basic_string@DU?$char_traits@D@std@@V?$allocator@D@2@@std@@V?$vector@EV?$allocator@E@std@@@2@@std@@@2@@std@@B DQ 01H DUP (?) ; guildSkills
_BSS	ENDS
;	COMDAT xdata$x
xdata$x	SEGMENT
__ehfuncinfo$?CreateCursors@CPythonApplication@@QAE_NXZ DD 019930522H
	DD	01H
	DD	FLAT:__unwindtable$?CreateCursors@CPythonApplication@@QAE_NXZ
	DD	2 DUP(00H)
	DD	2 DUP(00H)
	DD	00H
	DD	01H
__unwindtable$?CreateCursors@CPythonApplication@@QAE_NXZ DD 0ffffffffH
	DD	FLAT:__unwindfunclet$?CreateCursors@CPythonApplication@@QAE_NXZ$2
xdata$x	ENDS
;	COMDAT xdata$x
xdata$x	SEGMENT
__ehfuncinfo$??__EvecUseSoundFileName@@YAXXZ DQ 00000000619930522r ; 1.2944e-313
	DD	FLAT:__unwindtable$??__EvecUseSoundFileName@@YAXXZ
	DQ	00000000000000000r		; 0
	DQ	00000000000000000r		; 0
	DQ	00000000100000000r		; 2.122e-314
__unwindtable$??__EvecUseSoundFileName@@YAXXZ DD 0ffffffffH
	DD	FLAT:__unwindfunclet$??__EvecUseSoundFileName@@YAXXZ$0
	DD	00H
	DD	FLAT:__unwindfunclet$??__EvecUseSoundFileName@@YAXXZ$1
	DD	01H
	DD	FLAT:__unwindfunclet$??__EvecUseSoundFileName@@YAXXZ$2
	DD	02H
	DD	FLAT:__unwindfunclet$??__EvecUseSoundFileName@@YAXXZ$3
	DD	03H
	DD	FLAT:__unwindfunclet$??__EvecUseSoundFileName@@YAXXZ$4
	DD	04H
	DD	FLAT:__unwindfunclet$??__EvecUseSoundFileName@@YAXXZ$5
xdata$x	ENDS
;	COMDAT xdata$x
xdata$x	SEGMENT
__ehfuncinfo$??__FvecUseSoundFileName@@YAXXZ DQ 00000000119930522r ; 2.33398e-314
	DD	FLAT:__unwindtable$??__FvecUseSoundFileName@@YAXXZ
	DQ	00000000000000000r		; 0
	DQ	00000000000000000r		; 0
	DQ	00000000100000000r		; 2.122e-314
__unwindtable$??__FvecUseSoundFileName@@YAXXZ DD 0ffffffffH
	DD	FLAT:___std_terminate
xdata$x	ENDS
;	COMDAT xdata$x
xdata$x	SEGMENT
__ehfuncinfo$??__EvecDropSoundFileName@@YAXXZ DQ 00000000419930522r ; 8.69997e-314
	DD	FLAT:__unwindtable$??__EvecDropSoundFileName@@YAXXZ
	DQ	00000000000000000r		; 0
	DQ	00000000000000000r		; 0
	DQ	00000000100000000r		; 2.122e-314
__unwindtable$??__EvecDropSoundFileName@@YAXXZ DD 0ffffffffH
	DD	FLAT:__unwindfunclet$??__EvecDropSoundFileName@@YAXXZ$0
	DD	00H
	DD	FLAT:__unwindfunclet$??__EvecDropSoundFileName@@YAXXZ$1
	DD	01H
	DD	FLAT:__unwindfunclet$??__EvecDropSoundFileName@@YAXXZ$2
	DD	02H
	DD	FLAT:__unwindfunclet$??__EvecDropSoundFileName@@YAXXZ$3
xdata$x	ENDS
;	COMDAT xdata$x
xdata$x	SEGMENT
__ehfuncinfo$??__FvecDropSoundFileName@@YAXXZ DQ 00000000119930522r ; 2.33398e-314
	DD	FLAT:__unwindtable$??__FvecDropSoundFileName@@YAXXZ
	DQ	00000000000000000r		; 0
	DQ	00000000000000000r		; 0
	DQ	00000000100000000r		; 2.122e-314
__unwindtable$??__FvecDropSoundFileName@@YAXXZ DD 0ffffffffH
	DD	FLAT:___std_terminate
xdata$x	ENDS
;	COMDAT xdata$x
xdata$x	SEGMENT
__ehfuncinfo$??__EskillIndexes@@YAXXZ DQ 00000002819930522r ; 8.50918e-313
	DD	FLAT:__unwindtable$??__EskillIndexes@@YAXXZ
	DQ	00000000000000000r		; 0
	DQ	00000000000000000r		; 0
	DQ	00000000100000000r		; 2.122e-314
	ORG $+4
__unwindtable$??__EskillIndexes@@YAXXZ DD 0ffffffffH
	DD	FLAT:__unwindfunclet$??__EskillIndexes@@YAXXZ$0
	DD	00H
	DD	FLAT:__unwindfunclet$??__EskillIndexes@@YAXXZ$1
	DD	01H
	DD	FLAT:__unwindfunclet$??__EskillIndexes@@YAXXZ$2
	DD	00H
	DD	FLAT:__unwindfunclet$??__EskillIndexes@@YAXXZ$2
	DD	03H
	DD	FLAT:__unwindfunclet$??__EskillIndexes@@YAXXZ$4
	DD	04H
	DD	FLAT:__unwindfunclet$??__EskillIndexes@@YAXXZ$5
	DD	05H
	DD	FLAT:__unwindfunclet$??__EskillIndexes@@YAXXZ$6
	DD	06H
	DD	FLAT:__unwindfunclet$??__EskillIndexes@@YAXXZ$7
	DD	07H
	DD	FLAT:__unwindfunclet$??__EskillIndexes@@YAXXZ$8
	DD	08H
	DD	FLAT:__unwindfunclet$??__EskillIndexes@@YAXXZ$9
	DD	07H
	DD	FLAT:__unwindfunclet$??__EskillIndexes@@YAXXZ$9
	DD	0aH
	DD	FLAT:__unwindfunclet$??__EskillIndexes@@YAXXZ$11
	DD	0bH
	DD	FLAT:__unwindfunclet$??__EskillIndexes@@YAXXZ$12
	DD	0cH
	DD	FLAT:__unwindfunclet$??__EskillIndexes@@YAXXZ$13
	DD	0dH
	DD	FLAT:__unwindfunclet$??__EskillIndexes@@YAXXZ$14
	DD	0eH
	DD	FLAT:__unwindfunclet$??__EskillIndexes@@YAXXZ$15
	DD	0fH
	DD	FLAT:__unwindfunclet$??__EskillIndexes@@YAXXZ$16
	DD	0eH
	DD	FLAT:__unwindfunclet$??__EskillIndexes@@YAXXZ$16
	DD	011H
	DD	FLAT:__unwindfunclet$??__EskillIndexes@@YAXXZ$18
	DD	012H
	DD	FLAT:__unwindfunclet$??__EskillIndexes@@YAXXZ$19
	DD	013H
	DD	FLAT:__unwindfunclet$??__EskillIndexes@@YAXXZ$20
	DD	014H
	DD	FLAT:__unwindfunclet$??__EskillIndexes@@YAXXZ$21
	DD	015H
	DD	FLAT:__unwindfunclet$??__EskillIndexes@@YAXXZ$22
	DD	016H
	DD	FLAT:__unwindfunclet$??__EskillIndexes@@YAXXZ$23
	DD	015H
	DD	FLAT:__unwindfunclet$??__EskillIndexes@@YAXXZ$23
	DD	018H
	DD	FLAT:__unwindfunclet$??__EskillIndexes@@YAXXZ$25
	DD	019H
	DD	FLAT:__unwindfunclet$??__EskillIndexes@@YAXXZ$26
	DD	05H
	DD	FLAT:__unwindfunclet$??__EskillIndexes@@YAXXZ$7
	DD	01bH
	DD	FLAT:__unwindfunclet$??__EskillIndexes@@YAXXZ$9
	DD	01cH
	DD	FLAT:__unwindfunclet$??__EskillIndexes@@YAXXZ$11
	DD	01dH
	DD	FLAT:__unwindfunclet$??__EskillIndexes@@YAXXZ$12
	DD	01eH
	DD	FLAT:__unwindfunclet$??__EskillIndexes@@YAXXZ$14
	DD	01fH
	DD	FLAT:__unwindfunclet$??__EskillIndexes@@YAXXZ$16
	DD	020H
	DD	FLAT:__unwindfunclet$??__EskillIndexes@@YAXXZ$18
	DD	021H
	DD	FLAT:__unwindfunclet$??__EskillIndexes@@YAXXZ$19
	DD	022H
	DD	FLAT:__unwindfunclet$??__EskillIndexes@@YAXXZ$21
	DD	023H
	DD	FLAT:__unwindfunclet$??__EskillIndexes@@YAXXZ$23
	DD	024H
	DD	FLAT:__unwindfunclet$??__EskillIndexes@@YAXXZ$25
	DD	025H
	DD	FLAT:__unwindfunclet$??__EskillIndexes@@YAXXZ$26
	DD	026H
	DD	FLAT:__unwindfunclet$??__EskillIndexes@@YAXXZ$28
xdata$x	ENDS
;	COMDAT xdata$x
xdata$x	SEGMENT
__ehfuncinfo$??__EguildSkills@@YAXXZ DQ 00000000a19930522r ; 2.14319e-313
	DD	FLAT:__unwindtable$??__EguildSkills@@YAXXZ
	DQ	00000000000000000r		; 0
	DQ	00000000000000000r		; 0
	DQ	00000000100000000r		; 2.122e-314
	ORG $+4
__unwindtable$??__EguildSkills@@YAXXZ DD 0ffffffffH
	DD	FLAT:__unwindfunclet$??__EguildSkills@@YAXXZ$0
	DD	00H
	DD	FLAT:__unwindfunclet$??__EguildSkills@@YAXXZ$1
	DD	01H
	DD	FLAT:__unwindfunclet$??__EguildSkills@@YAXXZ$10
	DD	01H
	DD	FLAT:__unwindfunclet$??__EguildSkills@@YAXXZ$2
	DD	03H
	DD	FLAT:__unwindfunclet$??__EguildSkills@@YAXXZ$3
	DD	04H
	DD	FLAT:__unwindfunclet$??__EguildSkills@@YAXXZ$4
	DD	05H
	DD	FLAT:__unwindfunclet$??__EguildSkills@@YAXXZ$16
	DD	01H
	DD	FLAT:__unwindfunclet$??__EguildSkills@@YAXXZ$3
	DD	07H
	DD	FLAT:__unwindfunclet$??__EguildSkills@@YAXXZ$4
	DD	08H
	DD	FLAT:__unwindfunclet$??__EguildSkills@@YAXXZ$6
xdata$x	ENDS
;	COMDAT xdata$x
xdata$x	SEGMENT
__ehfuncinfo$??$insert@$0A@$0A@@?$_Tree@V?$_Tmap_traits@HPAXU?$less@H@std@@V?$allocator@U?$pair@$$CBHPAX@std@@@2@$0A@@std@@@std@@QAE?AU?$pair@V?$_Tree_iterator@V?$_Tree_val@U?$_Tree_simple_types@U?$pair@$$CBHPAX@std@@@std@@@std@@@std@@_N@1@$$QAU?$pair@$$CBHPAX@1@@Z DQ 00000000119930522r ; 2.33398e-314
	DD	FLAT:__unwindtable$??$insert@$0A@$0A@@?$_Tree@V?$_Tmap_traits@HPAXU?$less@H@std@@V?$allocator@U?$pair@$$CBHPAX@std@@@2@$0A@@std@@@std@@QAE?AU?$pair@V?$_Tree_iterator@V?$_Tree_val@U?$_Tree_simple_types@U?$pair@$$CBHPAX@std@@@std@@@std@@@std@@_N@1@$$QAU?$pair@$$CBHPAX@1@@Z
	DQ	00000000000000000r		; 0
	DQ	00000000000000000r		; 0
	DQ	00000000100000000r		; 2.122e-314
__unwindtable$??$insert@$0A@$0A@@?$_Tree@V?$_Tmap_traits@HPAXU?$less@H@std@@V?$allocator@U?$pair@$$CBHPAX@std@@@2@$0A@@std@@@std@@QAE?AU?$pair@V?$_Tree_iterator@V?$_Tree_val@U?$_Tree_simple_types@U?$pair@$$CBHPAX@std@@@std@@@std@@@std@@_N@1@$$QAU?$pair@$$CBHPAX@1@@Z DD 0ffffffffH
	DD	FLAT:__unwindfunclet$??$insert@$0A@$0A@@?$_Tree@V?$_Tmap_traits@HPAXU?$less@H@std@@V?$allocator@U?$pair@$$CBHPAX@std@@@2@$0A@@std@@@std@@QAE?AU?$pair@V?$_Tree_iterator@V?$_Tree_val@U?$_Tree_simple_types@U?$pair@$$CBHPAX@std@@@std@@@std@@@std@@_N@1@$$QAU?$pair@$$CBHPAX@1@@Z$2
xdata$x	ENDS
;	COMDAT xdata$x
xdata$x	SEGMENT
__ehfuncinfo$??$_Emplace@U?$pair@$$CBHPAX@std@@@?$_Tree@V?$_Tmap_traits@HPAXU?$less@H@std@@V?$allocator@U?$pair@$$CBHPAX@std@@@2@$0A@@std@@@std@@IAE?AU?$pair@PAU?$_Tree_node@U?$pair@$$CBHPAX@std@@PAX@std@@_N@1@$$QAU?$pair@$$CBHPAX@1@@Z DQ 00000000119930522r ; 2.33398e-314
	DD	FLAT:__unwindtable$??$_Emplace@U?$pair@$$CBHPAX@std@@@?$_Tree@V?$_Tmap_traits@HPAXU?$less@H@std@@V?$allocator@U?$pair@$$CBHPAX@std@@@2@$0A@@std@@@std@@IAE?AU?$pair@PAU?$_Tree_node@U?$pair@$$CBHPAX@std@@PAX@std@@_N@1@$$QAU?$pair@$$CBHPAX@1@@Z
	DQ	00000000000000000r		; 0
	DQ	00000000000000000r		; 0
	DQ	00000000100000000r		; 2.122e-314
__unwindtable$??$_Emplace@U?$pair@$$CBHPAX@std@@@?$_Tree@V?$_Tmap_traits@HPAXU?$less@H@std@@V?$allocator@U?$pair@$$CBHPAX@std@@@2@$0A@@std@@@std@@IAE?AU?$pair@PAU?$_Tree_node@U?$pair@$$CBHPAX@std@@PAX@std@@_N@1@$$QAU?$pair@$$CBHPAX@1@@Z DD 0ffffffffH
	DD	FLAT:__unwindfunclet$??$_Emplace@U?$pair@$$CBHPAX@std@@@?$_Tree@V?$_Tmap_traits@HPAXU?$less@H@std@@V?$allocator@U?$pair@$$CBHPAX@std@@@2@$0A@@std@@@std@@IAE?AU?$pair@PAU?$_Tree_node@U?$pair@$$CBHPAX@std@@PAX@std@@_N@1@$$QAU?$pair@$$CBHPAX@1@@Z$2
xdata$x	ENDS
;	COMDAT xdata$x
xdata$x	SEGMENT
__ehfuncinfo$??$?0U?$pair@$$CBHPAX@std@@@?$_Tree_temp_node@V?$allocator@U?$_Tree_node@U?$pair@$$CBHPAX@std@@PAX@std@@@std@@@std@@QAE@AAV?$allocator@U?$_Tree_node@U?$pair@$$CBHPAX@std@@PAX@std@@@1@PAU?$_Tree_node@U?$pair@$$CBHPAX@std@@PAX@1@$$QAU?$pair@$$CBHPAX@1@@Z DQ 00000000119930522r ; 2.33398e-314
	DD	FLAT:__unwindtable$??$?0U?$pair@$$CBHPAX@std@@@?$_Tree_temp_node@V?$allocator@U?$_Tree_node@U?$pair@$$CBHPAX@std@@PAX@std@@@std@@@std@@QAE@AAV?$allocator@U?$_Tree_node@U?$pair@$$CBHPAX@std@@PAX@std@@@1@PAU?$_Tree_node@U?$pair@$$CBHPAX@std@@PAX@1@$$QAU?$pair@$$CBHPAX@1@@Z
	DQ	00000000000000000r		; 0
	DQ	00000000000000000r		; 0
	DQ	00000000100000000r		; 2.122e-314
__unwindtable$??$?0U?$pair@$$CBHPAX@std@@@?$_Tree_temp_node@V?$allocator@U?$_Tree_node@U?$pair@$$CBHPAX@std@@PAX@std@@@std@@@std@@QAE@AAV?$allocator@U?$_Tree_node@U?$pair@$$CBHPAX@std@@PAX@std@@@1@PAU?$_Tree_node@U?$pair@$$CBHPAX@std@@PAX@1@$$QAU?$pair@$$CBHPAX@1@@Z DD 0ffffffffH
	DD	FLAT:__unwindfunclet$??$?0U?$pair@$$CBHPAX@std@@@?$_Tree_temp_node@V?$allocator@U?$_Tree_node@U?$pair@$$CBHPAX@std@@PAX@std@@@std@@@std@@QAE@AAV?$allocator@U?$_Tree_node@U?$pair@$$CBHPAX@std@@PAX@std@@@1@PAU?$_Tree_node@U?$pair@$$CBHPAX@std@@PAX@1@$$QAU?$pair@$$CBHPAX@1@@Z$1
xdata$x	ENDS
;	COMDAT xdata$x
xdata$x	SEGMENT
__ehfuncinfo$??0?$_Tree_temp_node_alloc@V?$allocator@U?$_Tree_node@U?$pair@$$CBHPAX@std@@PAX@std@@@std@@@std@@QAE@AAV?$allocator@U?$_Tree_node@U?$pair@$$CBHPAX@std@@PAX@std@@@1@@Z DQ 00000000119930522r ; 2.33398e-314
	DD	FLAT:__unwindtable$??0?$_Tree_temp_node_alloc@V?$allocator@U?$_Tree_node@U?$pair@$$CBHPAX@std@@PAX@std@@@std@@@std@@QAE@AAV?$allocator@U?$_Tree_node@U?$pair@$$CBHPAX@std@@PAX@std@@@1@@Z
	DQ	00000000000000000r		; 0
	DQ	00000000000000000r		; 0
	DQ	00000000100000000r		; 2.122e-314
__unwindtable$??0?$_Tree_temp_node_alloc@V?$allocator@U?$_Tree_node@U?$pair@$$CBHPAX@std@@PAX@std@@@std@@@std@@QAE@AAV?$allocator@U?$_Tree_node@U?$pair@$$CBHPAX@std@@PAX@std@@@1@@Z DD 0ffffffffH
	DD	FLAT:__unwindfunclet$??0?$_Tree_temp_node_alloc@V?$allocator@U?$_Tree_node@U?$pair@$$CBHPAX@std@@PAX@std@@@std@@@std@@QAE@AAV?$allocator@U?$_Tree_node@U?$pair@$$CBHPAX@std@@PAX@std@@@1@@Z$0
	ORG $+4
?vecUseSoundFileName@@3V?$array@U?$pair@KV?$basic_string@DU?$char_traits@D@std@@V?$allocator@D@2@@std@@@std@@$06@std@@B DQ 00000000000000001r ; 4.94066e-324 ; vecUseSoundFileName
	DQ	00000000000000000r		; 0
	DQ	00000000000000000r		; 0
	DQ	00000000000000000r		; 0
	DQ	00000000000000000r		; 0
	DQ	00000000000000000r		; 0
	DQ	00000000000000000r		; 0
	DQ	00000000000000000r		; 0
	DQ	00000000000000000r		; 0
	DQ	00000000000000000r		; 0
	DQ	00000000000000000r		; 0
	DQ	00000000000000000r		; 0
	DQ	00000000000000000r		; 0
	DQ	00000000000000000r		; 0
	DQ	00000000000000000r		; 0
	DQ	00000000000000000r		; 0
	DQ	00000000000000000r		; 0
	DQ	00000000000000000r		; 0
	DQ	00000000000000000r		; 0
	DQ	00000000000000000r		; 0
	DQ	00000000000000000r		; 0
	DQ	00000000000000000r		; 0
	DQ	00000000000000000r		; 0
	DQ	00000000000000000r		; 0
	DD	00H
?vecUseSoundFileName$initializer$@@3P6AXXZA DD FLAT:??__EvecUseSoundFileName@@YAXXZ ; vecUseSoundFileName$initializer$
?vecDropSoundFileName$initializer$@@3P6AXXZA DD FLAT:??__EvecDropSoundFileName@@YAXXZ ; vecDropSoundFileName$initializer$
?vecEffectList$initializer$@@3P6AXXZA DD FLAT:??__EvecEffectList@@YAXXZ ; vecEffectList$initializer$
?characterNameColors$initializer$@@3P6AXXZA DD FLAT:??__EcharacterNameColors@@YAXXZ ; characterNameColors$initializer$
?characterTitleColors$initializer$@@3P6AXXZA DD FLAT:??__EcharacterTitleColors@@YAXXZ ; characterTitleColors$initializer$
?characterTitleSystemColors$initializer$@@3P6AXXZA DD FLAT:??__EcharacterTitleSystemColors@@YAXXZ ; characterTitleSystemColors$initializer$
?emotionIcons$initializer$@@3P6AXXZA DD FLAT:??__EemotionIcons@@YAXXZ ; emotionIcons$initializer$
?skillIndexes$initializer$@@3P6AXXZA DD FLAT:??__EskillIndexes@@YAXXZ ; skillIndexes$initializer$
?guildSkills$initializer$@@3P6AXXZA DD FLAT:??__EguildSkills@@YAXXZ ; guildSkills$initializer$
; Function compile flags: /Ogtp
; File C:\Anka2Project\Anka2Project\Source\Binary\source\UserInterface\PythonApplicationCursor.cpp
; File C:\Program Files\Microsoft Visual Studio\2022\Community\VC\Tools\MSVC\14.44.35207\include\xtree
; File C:\Anka2Project\Anka2Project\Source\Binary\source\UserInterface\PythonApplicationCursor.cpp
; File C:\Program Files\Microsoft Visual Studio\2022\Community\VC\Tools\MSVC\14.44.35207\include\xtree
; File C:\Anka2Project\Anka2Project\Source\Binary\source\UserInterface\PythonApplicationCursor.cpp
;	COMDAT ?DestroyCursors@CPythonApplication@@QAEXXZ
_TEXT	SEGMENT
?DestroyCursors@CPythonApplication@@QAEXXZ PROC		; CPythonApplication::DestroyCursors, COMDAT
; _this$ = ecx

; 53   : {

  00000	56		 push	 esi
  00001	57		 push	 edi
  00002	8b f9		 mov	 edi, ecx
; File C:\Program Files\Microsoft Visual Studio\2022\Community\VC\Tools\MSVC\14.44.35207\include\xtree

; 1142 :         return iterator(_Scary->_Myhead->_Left, _Scary);

  00004	8b 87 b8 d7 03
	00		 mov	 eax, DWORD PTR [edi+251832]

; 37   :     _Tree_unchecked_const_iterator(_Nodeptr _Pnode, const _Mytree* _Plist) noexcept : _Ptr(_Pnode) {

  0000a	8b 30		 mov	 esi, DWORD PTR [eax]
  0000c	3b f0		 cmp	 esi, eax
; File C:\Anka2Project\Anka2Project\Source\Binary\source\UserInterface\PythonApplicationCursor.cpp

; 55   : 	for (itor = m_CursorHandleMap.begin(); itor != m_CursorHandleMap.end(); ++itor)

  0000e	74 55		 je	 SHORT $LN3@DestroyCur
  00010	53		 push	 ebx
  00011	8b 1d 00 00 00
	00		 mov	 ebx, DWORD PTR __imp__DestroyCursor@4
$LL4@DestroyCur:

; 56   : 	{
; 57   : 		DestroyCursor((HCURSOR) itor->second);

  00017	ff 76 14	 push	 DWORD PTR [esi+20]
  0001a	ff d3		 call	 ebx
; File C:\Program Files\Microsoft Visual Studio\2022\Community\VC\Tools\MSVC\14.44.35207\include\xtree

; 50   :         if (_Ptr->_Right->_Isnil) { // climb looking for right subtree

  0001c	8b 46 08	 mov	 eax, DWORD PTR [esi+8]
  0001f	80 78 0d 00	 cmp	 BYTE PTR [eax+13], 0
  00023	74 1f		 je	 SHORT $LN36@DestroyCur

; 51   :             _Nodeptr _Pnode;
; 52   :             while (!(_Pnode = _Ptr->_Parent)->_Isnil && _Ptr == _Pnode->_Right) {

  00025	8b 46 04	 mov	 eax, DWORD PTR [esi+4]
  00028	80 78 0d 00	 cmp	 BYTE PTR [eax+13], 0
  0002c	75 12		 jne	 SHORT $LN81@DestroyCur
  0002e	66 90		 npad	 2
$LL34@DestroyCur:
  00030	3b 70 08	 cmp	 esi, DWORD PTR [eax+8]
  00033	75 0b		 jne	 SHORT $LN81@DestroyCur

; 53   :                 _Ptr = _Pnode; // ==> parent while right subtree

  00035	8b f0		 mov	 esi, eax
  00037	8b 40 04	 mov	 eax, DWORD PTR [eax+4]
  0003a	80 78 0d 00	 cmp	 BYTE PTR [eax+13], 0
  0003e	74 f0		 je	 SHORT $LL34@DestroyCur
$LN81@DestroyCur:

; 54   :             }
; 55   : 
; 56   :             _Ptr = _Pnode; // ==> parent (head if end())

  00040	8b f0		 mov	 esi, eax

; 57   :         } else {

  00042	eb 18		 jmp	 SHORT $LN42@DestroyCur
$LN36@DestroyCur:

; 58   :             _Ptr = _Mytree::_Min(_Ptr->_Right); // ==> smallest of right subtree

  00044	8b f0		 mov	 esi, eax

; 476  :         while (!_Pnode->_Left->_Isnil) {

  00046	8b 0e		 mov	 ecx, DWORD PTR [esi]
  00048	80 79 0d 00	 cmp	 BYTE PTR [ecx+13], 0
  0004c	75 0e		 jne	 SHORT $LN42@DestroyCur
  0004e	66 90		 npad	 2
$LL41@DestroyCur:
  00050	8b 01		 mov	 eax, DWORD PTR [ecx]

; 477  :             _Pnode = _Pnode->_Left;

  00052	8b f1		 mov	 esi, ecx
  00054	8b c8		 mov	 ecx, eax
  00056	80 78 0d 00	 cmp	 BYTE PTR [eax+13], 0
  0005a	74 f4		 je	 SHORT $LL41@DestroyCur
$LN42@DestroyCur:

; 232  :         return this->_Ptr == _Right._Ptr;

  0005c	3b b7 b8 d7 03
	00		 cmp	 esi, DWORD PTR [edi+251832]
; File C:\Anka2Project\Anka2Project\Source\Binary\source\UserInterface\PythonApplicationCursor.cpp

; 55   : 	for (itor = m_CursorHandleMap.begin(); itor != m_CursorHandleMap.end(); ++itor)

  00062	75 b3		 jne	 SHORT $LL4@DestroyCur
  00064	5b		 pop	 ebx
$LN3@DestroyCur:
  00065	5f		 pop	 edi

; 58   : 	}
; 59   : }

  00066	5e		 pop	 esi
  00067	c3		 ret	 0
?DestroyCursors@CPythonApplication@@QAEXXZ ENDP		; CPythonApplication::DestroyCursors
_TEXT	ENDS
; Function compile flags: /Ogtp
; File C:\Anka2Project\Anka2Project\Source\Binary\source\UserInterface\PythonApplicationCursor.cpp
;	COMDAT ?SetCursorMode@CPythonApplication@@QAEXH@Z
_TEXT	SEGMENT
_iMode$ = 8						; size = 4
?SetCursorMode@CPythonApplication@@QAEXH@Z PROC		; CPythonApplication::SetCursorMode, COMDAT
; _this$ = ecx

; 155  : {

  00000	55		 push	 ebp
  00001	8b ec		 mov	 ebp, esp

; 156  : 	switch (iMode)

  00003	8b 45 08	 mov	 eax, DWORD PTR _iMode$[ebp]
  00006	83 e8 00	 sub	 eax, 0
  00009	74 24		 je	 SHORT $LN4@SetCursorM
  0000b	83 e8 01	 sub	 eax, 1
  0000e	75 37		 jne	 SHORT $LN2@SetCursorM

; 161  : 			break;
; 162  : 
; 163  : 		case CURSOR_MODE_SOFTWARE:
; 164  : 			m_iCursorMode = CURSOR_MODE_SOFTWARE;
; 165  : 			SetCursor(nullptr);

  00010	50		 push	 eax
  00011	c7 81 cc d7 03
	00 01 00 00 00	 mov	 DWORD PTR [ecx+251852], 1
  0001b	ff 15 00 00 00
	00		 call	 DWORD PTR __imp__SetCursor@4

; 166  : 			ShowCursor(false);

  00021	c7 45 08 00 00
	00 00		 mov	 DWORD PTR _iMode$[ebp], 0

; 167  : 			break;
; 168  : 	}
; 169  : }

  00028	5d		 pop	 ebp

; 166  : 			ShowCursor(false);

  00029	ff 25 00 00 00
	00		 jmp	 DWORD PTR __imp__ShowCursor@4
$LN4@SetCursorM:

; 157  : 	{
; 158  : 		case CURSOR_MODE_HARDWARE:
; 159  : 			m_iCursorMode = CURSOR_MODE_HARDWARE;

  0002f	c7 81 cc d7 03
	00 00 00 00 00	 mov	 DWORD PTR [ecx+251852], 0

; 160  : 			ShowCursor(true);

  00039	c7 45 08 01 00
	00 00		 mov	 DWORD PTR _iMode$[ebp], 1

; 167  : 			break;
; 168  : 	}
; 169  : }

  00040	5d		 pop	 ebp

; 160  : 			ShowCursor(true);

  00041	ff 25 00 00 00
	00		 jmp	 DWORD PTR __imp__ShowCursor@4
$LN2@SetCursorM:

; 167  : 			break;
; 168  : 	}
; 169  : }

  00047	5d		 pop	 ebp
  00048	c2 04 00	 ret	 4
?SetCursorMode@CPythonApplication@@QAEXH@Z ENDP		; CPythonApplication::SetCursorMode
_TEXT	ENDS
; Function compile flags: /Ogtp
; File C:\Anka2Project\Anka2Project\Source\Binary\source\UserInterface\PythonApplicationCursor.cpp
; File C:\Program Files\Microsoft Visual Studio\2022\Community\VC\Tools\MSVC\14.44.35207\include\xtree
; File C:\Anka2Project\Anka2Project\Source\Binary\source\UserInterface\PythonApplicationCursor.cpp
; File C:\Program Files\Microsoft Visual Studio\2022\Community\VC\Tools\MSVC\14.44.35207\include\xtree
; File C:\Anka2Project\Anka2Project\Source\Binary\source\UserInterface\PythonApplicationCursor.cpp
; File C:\Program Files\Microsoft Visual Studio\2022\Community\VC\Tools\MSVC\14.44.35207\include\xtree
; File C:\Anka2Project\Anka2Project\Source\Binary\source\UserInterface\PythonApplicationCursor.cpp
; File C:\Program Files\Microsoft Visual Studio\2022\Community\VC\Tools\MSVC\14.44.35207\include\xtree
; File C:\Program Files\Microsoft Visual Studio\2022\Community\VC\Tools\MSVC\14.44.35207\include\utility
; File C:\Program Files\Microsoft Visual Studio\2022\Community\VC\Tools\MSVC\14.44.35207\include\xmemory
; File C:\Program Files\Microsoft Visual Studio\2022\Community\VC\Tools\MSVC\14.44.35207\include\xtree
; File C:\Anka2Project\Anka2Project\Source\Binary\source\UserInterface\PythonApplicationCursor.cpp
; File C:\Program Files\Microsoft Visual Studio\2022\Community\VC\Tools\MSVC\14.44.35207\include\xtree
; File C:\Anka2Project\Anka2Project\Source\Binary\source\UserInterface\PythonApplicationCursor.cpp
; File C:\Program Files\Microsoft Visual Studio\2022\Community\VC\Tools\MSVC\14.44.35207\include\utility
; File C:\Program Files\Microsoft Visual Studio\2022\Community\VC\Tools\MSVC\14.44.35207\include\xtree
; File C:\Program Files\Microsoft Visual Studio\2022\Community\VC\Tools\MSVC\14.44.35207\include\utility
; File C:\Program Files\Microsoft Visual Studio\2022\Community\VC\Tools\MSVC\14.44.35207\include\xtree
; File C:\Program Files\Microsoft Visual Studio\2022\Community\VC\Tools\MSVC\14.44.35207\include\type_traits
; File C:\Program Files\Microsoft Visual Studio\2022\Community\VC\Tools\MSVC\14.44.35207\include\xtree
; File C:\Program Files\Microsoft Visual Studio\2022\Community\VC\Tools\MSVC\14.44.35207\include\xmemory
; File C:\Program Files\Microsoft Visual Studio\2022\Community\VC\Tools\MSVC\14.44.35207\include\xtree
; File C:\Program Files\Microsoft Visual Studio\2022\Community\VC\Tools\MSVC\14.44.35207\include\xmemory
; File C:\Program Files\Microsoft Visual Studio\2022\Community\VC\Tools\MSVC\14.44.35207\include\xtree
; File C:\Program Files\Microsoft Visual Studio\2022\Community\VC\Tools\MSVC\14.44.35207\include\xmemory
; File C:\Program Files\Microsoft Visual Studio\2022\Community\VC\Tools\MSVC\14.44.35207\include\xtree
; File C:\Program Files\Microsoft Visual Studio\2022\Community\VC\Tools\MSVC\14.44.35207\include\utility
; File C:\Program Files\Microsoft Visual Studio\2022\Community\VC\Tools\MSVC\14.44.35207\include\xtree
; File C:\Anka2Project\Anka2Project\Source\Binary\source\UserInterface\PythonApplicationCursor.cpp
; File C:\Program Files\Microsoft Visual Studio\2022\Community\VC\Tools\MSVC\14.44.35207\include\xtree
; File C:\Anka2Project\Anka2Project\Source\Binary\source\UserInterface\PythonApplicationCursor.cpp
;	COMDAT ?CreateCursors@CPythonApplication@@QAE_NXZ
_TEXT	SEGMENT
_ResourceID$ = -120					; size = 64
$T6 = -56						; size = 12
__Loc$30 = -44						; size = 12
$T12 = -32						; size = 8
$T4 = -24						; size = 8
_this$1$ = -16						; size = 4
$T31 = -16						; size = 4
__$EHRec$ = -12						; size = 12
?CreateCursors@CPythonApplication@@QAE_NXZ PROC		; CPythonApplication::CreateCursors, COMDAT
; _this$ = ecx

; 6    : {

  00000	55		 push	 ebp
  00001	8b ec		 mov	 ebp, esp
  00003	6a ff		 push	 -1
  00005	68 00 00 00 00	 push	 __ehhandler$?CreateCursors@CPythonApplication@@QAE_NXZ
  0000a	64 a1 00 00 00
	00		 mov	 eax, DWORD PTR fs:0
  00010	50		 push	 eax
  00011	83 ec 6c	 sub	 esp, 108		; 0000006cH
  00014	53		 push	 ebx
  00015	56		 push	 esi
  00016	57		 push	 edi
  00017	a1 00 00 00 00	 mov	 eax, DWORD PTR ___security_cookie
  0001c	33 c5		 xor	 eax, ebp
  0001e	50		 push	 eax
  0001f	8d 45 f4	 lea	 eax, DWORD PTR __$EHRec$[ebp]
  00022	64 a3 00 00 00
	00		 mov	 DWORD PTR fs:0, eax
  00028	89 4d f0	 mov	 DWORD PTR _this$1$[ebp], ecx

; 7    : 	NANOBEGIN

  0002b	eb		 DB	 -21			; ffffffebH
  0002c	03		 DB	 3
  0002d	d6		 DB	 -42			; ffffffd6H
  0002e	d7		 DB	 -41			; ffffffd7H
  0002f	01		 DB	 1
  00030	8b 45 f0	 mov	 eax, DWORD PTR _this$1$[ebp]
; File C:\Program Files\Microsoft Visual Studio\2022\Community\VC\Tools\MSVC\14.44.35207\include\xtree

; 1373 :         auto _Head = _Scary->_Myhead;

  00033	8b b8 b8 d7 03
	00		 mov	 edi, DWORD PTR [eax+251832]
; File C:\Anka2Project\Anka2Project\Source\Binary\source\UserInterface\PythonApplicationCursor.cpp

; 36   : 	m_CursorHandleMap.clear();

  00039	8d 98 b8 d7 03
	00		 lea	 ebx, DWORD PTR [eax+251832]
  0003f	0f 28 05 00 00
	00 00		 movaps	 xmm0, XMMWORD PTR __xmm@0000006d000000680000006800000066
  00046	0f 11 45 88	 movups	 XMMWORD PTR _ResourceID$[ebp], xmm0
  0004a	c7 80 c4 d7 03
	00 01 00 00 00	 mov	 DWORD PTR [eax+251844], 1
  00054	0f 28 05 00 00
	00 00		 movaps	 xmm0, XMMWORD PTR __xmm@000000690000006a0000006c0000006b
  0005b	c6 80 c8 d7 03
	00 00		 mov	 BYTE PTR [eax+251848], 0
; File C:\Program Files\Microsoft Visual Studio\2022\Community\VC\Tools\MSVC\14.44.35207\include\xtree

; 1374 :         _Scary->_Erase_tree(_Getal(), _Head->_Parent);

  00062	8b 77 04	 mov	 esi, DWORD PTR [edi+4]
; File C:\Anka2Project\Anka2Project\Source\Binary\source\UserInterface\PythonApplicationCursor.cpp

; 17   : 		IDC_CURSOR_NO,

  00065	0f 11 45 98	 movups	 XMMWORD PTR _ResourceID$[ebp+16], xmm0

; 18   : 		IDC_CURSOR_PICK,
; 19   : 
; 20   : 		IDC_CURSOR_DOOR,
; 21   : 		IDC_CURSOR_CHAIR,
; 22   : 		IDC_CURSOR_CHAIR,			// Magic

  00069	c7 45 a8 69 00
	00 00		 mov	 DWORD PTR _ResourceID$[ebp+32], 105 ; 00000069H

; 25   : 
; 26   : 		IDC_CURSOR_CAMERA_ROTATE,	// Camera Rotate

  00070	0f 28 05 00 00
	00 00		 movaps	 xmm0, XMMWORD PTR __xmm@0000008e0000008d0000008c0000008b
; File C:\Program Files\Microsoft Visual Studio\2022\Community\VC\Tools\MSVC\14.44.35207\include\xtree

; 768  :         while (!_Rootnode->_Isnil) { // free subtrees, then node

  00077	80 7e 0d 00	 cmp	 BYTE PTR [esi+13], 0
; File C:\Anka2Project\Anka2Project\Source\Binary\source\UserInterface\PythonApplicationCursor.cpp

; 23   : 		IDC_CURSOR_BUY,				// Buy

  0007b	c7 45 ac 6e 00
	00 00		 mov	 DWORD PTR _ResourceID$[ebp+36], 110 ; 0000006eH

; 24   : 		IDC_CURSOR_SELL,			// Sell

  00082	c7 45 b0 6f 00
	00 00		 mov	 DWORD PTR _ResourceID$[ebp+40], 111 ; 0000006fH

; 25   : 
; 26   : 		IDC_CURSOR_CAMERA_ROTATE,	// Camera Rotate

  00089	0f 11 45 b4	 movups	 XMMWORD PTR _ResourceID$[ebp+44], xmm0

; 27   : 		IDC_CURSOR_HSIZE,			// Horizontal Size
; 28   : 		IDC_CURSOR_VSIZE,			// Vertical Size
; 29   : 		IDC_CURSOR_HVSIZE,			// Horizontal & Vertical Size
; 30   : 
; 31   : #ifdef ENABLE_FISH_GAME
; 32   : 		IDC_CURSOR_FISH,

  0008d	c7 45 c4 90 00
	00 00		 mov	 DWORD PTR _ResourceID$[ebp+60], 144 ; 00000090H
; File C:\Program Files\Microsoft Visual Studio\2022\Community\VC\Tools\MSVC\14.44.35207\include\xtree

; 768  :         while (!_Rootnode->_Isnil) { // free subtrees, then node

  00094	75 20		 jne	 SHORT $LN184@CreateCurs
$LL11@CreateCurs:

; 769  :             _Erase_tree(_Al, _Rootnode->_Right);

  00096	ff 76 08	 push	 DWORD PTR [esi+8]
  00099	8b cb		 mov	 ecx, ebx
  0009b	53		 push	 ebx
  0009c	e8 00 00 00 00	 call	 ??$_Erase_tree@V?$allocator@U?$_Tree_node@U?$pair@$$CBHPAX@std@@PAX@std@@@std@@@?$_Tree_val@U?$_Tree_simple_types@U?$pair@$$CBHPAX@std@@@std@@@std@@QAEXAAV?$allocator@U?$_Tree_node@U?$pair@$$CBHPAX@std@@PAX@std@@@1@PAU?$_Tree_node@U?$pair@$$CBHPAX@std@@PAX@1@@Z ; std::_Tree_val<std::_Tree_simple_types<std::pair<int const ,void *> > >::_Erase_tree<std::allocator<std::_Tree_node<std::pair<int const ,void *>,void *> > >
; File C:\Program Files\Microsoft Visual Studio\2022\Community\VC\Tools\MSVC\14.44.35207\include\utility

; 773  :     _Ty _Old_val = static_cast<_Ty&&>(_Val);

  000a1	8b c6		 mov	 eax, esi

; 774  :     _Val         = static_cast<_Other&&>(_New_val);

  000a3	8b 36		 mov	 esi, DWORD PTR [esi]
; File C:\Program Files\Microsoft Visual Studio\2022\Community\VC\Tools\MSVC\14.44.35207\include\xmemory

; 289  :         ::operator delete(_Ptr, _Bytes);

  000a5	6a 18		 push	 24			; 00000018H
  000a7	50		 push	 eax
  000a8	e8 00 00 00 00	 call	 ??3@YAXPAXI@Z		; operator delete
  000ad	83 c4 08	 add	 esp, 8
; File C:\Program Files\Microsoft Visual Studio\2022\Community\VC\Tools\MSVC\14.44.35207\include\xtree

; 768  :         while (!_Rootnode->_Isnil) { // free subtrees, then node

  000b0	80 7e 0d 00	 cmp	 BYTE PTR [esi+13], 0
  000b4	74 e0		 je	 SHORT $LL11@CreateCurs
$LN184@CreateCurs:

; 1375 :         _Head->_Parent  = _Head;

  000b6	89 7f 04	 mov	 DWORD PTR [edi+4], edi

; 1376 :         _Head->_Left    = _Head;

  000b9	89 3f		 mov	 DWORD PTR [edi], edi

; 1377 :         _Head->_Right   = _Head;

  000bb	89 7f 08	 mov	 DWORD PTR [edi+8], edi
; File C:\Anka2Project\Anka2Project\Source\Binary\source\UserInterface\PythonApplicationCursor.cpp

; 38   : 	for (int i = 0; i < CURSOR_COUNT; ++i)

  000be	33 ff		 xor	 edi, edi
; File C:\Program Files\Microsoft Visual Studio\2022\Community\VC\Tools\MSVC\14.44.35207\include\xtree

; 1378 :         _Scary->_Mysize = 0;

  000c0	c7 43 04 00 00
	00 00		 mov	 DWORD PTR [ebx+4], 0
  000c7	66 0f 1f 84 00
	00 00 00 00	 npad	 9
$LL4@CreateCurs:
; File C:\Anka2Project\Anka2Project\Source\Binary\source\UserInterface\PythonApplicationCursor.cpp

; 40   : 		HANDLE hCursor = LoadImage(ms_hInstance, MAKEINTRESOURCE(ResourceID[i]), IMAGE_CURSOR, 32, 32, LR_VGACOLOR);

  000d0	0f b7 44 bd 88	 movzx	 eax, WORD PTR _ResourceID$[ebp+edi*4]
  000d5	68 80 00 00 00	 push	 128			; 00000080H
  000da	6a 20		 push	 32			; 00000020H
  000dc	6a 20		 push	 32			; 00000020H
  000de	6a 02		 push	 2
  000e0	50		 push	 eax
  000e1	ff 35 00 00 00
	00		 push	 DWORD PTR ?ms_hInstance@CMSWindow@@1PAUHINSTANCE__@@A ; CMSWindow::ms_hInstance
  000e7	ff 15 00 00 00
	00		 call	 DWORD PTR __imp__LoadImageA@24
  000ed	89 45 f0	 mov	 DWORD PTR $T31[ebp], eax

; 41   : 
; 42   : 		if (NULL == hCursor)

  000f0	85 c0		 test	 eax, eax
  000f2	0f 84 ac 00 00
	00		 je	 $LN168@CreateCurs
; File C:\Program Files\Microsoft Visual Studio\2022\Community\VC\Tools\MSVC\14.44.35207\include\utility

; 274  :         : first(_STD forward<_Other1>(_Val1)), second(_STD forward<_Other2>(_Val2)) {

  000f8	89 45 ec	 mov	 DWORD PTR $T4[ebp+4], eax
; File C:\Program Files\Microsoft Visual Studio\2022\Community\VC\Tools\MSVC\14.44.35207\include\xtree

; 1017 :             _Loc                = _Find_lower_bound(_Keyval);

  000fb	8b cb		 mov	 ecx, ebx
  000fd	8d 45 e8	 lea	 eax, DWORD PTR $T4[ebp]
; File C:\Program Files\Microsoft Visual Studio\2022\Community\VC\Tools\MSVC\14.44.35207\include\utility

; 274  :         : first(_STD forward<_Other1>(_Val1)), second(_STD forward<_Other2>(_Val2)) {

  00100	89 7d e8	 mov	 DWORD PTR $T4[ebp], edi
; File C:\Program Files\Microsoft Visual Studio\2022\Community\VC\Tools\MSVC\14.44.35207\include\xtree

; 1017 :             _Loc                = _Find_lower_bound(_Keyval);

  00103	50		 push	 eax
  00104	8d 45 c8	 lea	 eax, DWORD PTR $T6[ebp]
  00107	50		 push	 eax
  00108	e8 00 00 00 00	 call	 ??$_Find_lower_bound@H@?$_Tree@V?$_Tmap_traits@HPAXU?$less@H@std@@V?$allocator@U?$pair@$$CBHPAX@std@@@2@$0A@@std@@@std@@IBE?AU?$_Tree_find_result@PAU?$_Tree_node@U?$pair@$$CBHPAX@std@@PAX@std@@@1@ABH@Z ; std::_Tree<std::_Tmap_traits<int,void *,std::less<int>,std::allocator<std::pair<int const ,void *> >,0> >::_Find_lower_bound<int>
  0010d	f3 0f 7e 00	 movq	 xmm0, QWORD PTR [eax]
  00111	8b 40 08	 mov	 eax, DWORD PTR [eax+8]
  00114	66 0f d6 45 d4	 movq	 QWORD PTR __Loc$30[ebp], xmm0

; 1624 :         return !_Bound->_Isnil && !_DEBUG_LT_PRED(_Getcomp(), _Keyval, _Traits::_Kfn(_Bound->_Myval));

  00119	80 78 0d 00	 cmp	 BYTE PTR [eax+13], 0
  0011d	75 05		 jne	 SHORT $LN70@CreateCurs
; File C:\Program Files\Microsoft Visual Studio\2022\Community\VC\Tools\MSVC\14.44.35207\include\type_traits

; 2380 :         return _Left < _Right;

  0011f	3b 78 10	 cmp	 edi, DWORD PTR [eax+16]
; File C:\Program Files\Microsoft Visual Studio\2022\Community\VC\Tools\MSVC\14.44.35207\include\xtree

; 1624 :         return !_Bound->_Isnil && !_DEBUG_LT_PRED(_Getcomp(), _Keyval, _Traits::_Kfn(_Bound->_Myval));

  00122	7d 5d		 jge	 SHORT $LN149@CreateCurs
$LN70@CreateCurs:

; 1648 :         if (max_size() == _Get_scary()->_Mysize) {

  00124	81 7b 04 aa aa
	aa 0a		 cmp	 DWORD PTR [ebx+4], 178956970 ; 0aaaaaaaH
  0012b	0f 84 87 00 00
	00		 je	 $LN169@CreateCurs

; 1023 :             _Inserted = _Tree_temp_node<_Alnode>(_Getal(), _Scary->_Myhead, _STD forward<_Valtys>(_Vals)...)._Release();

  00131	8b 33		 mov	 esi, DWORD PTR [ebx]
; File C:\Program Files\Microsoft Visual Studio\2022\Community\VC\Tools\MSVC\14.44.35207\include\xmemory

; 1160 :     _CONSTEXPR20 explicit _Alloc_construct_ptr(_Alloc& _Al_) : _Al(_Al_), _Ptr(nullptr) {}

  00133	89 5d e0	 mov	 DWORD PTR $T12[ebp], ebx
; File C:\Program Files\Microsoft Visual Studio\2022\Community\VC\Tools\MSVC\14.44.35207\include\xtree

; 808  :     explicit _Tree_temp_node_alloc(_Alnode& _Al_) : _Alloc_construct_ptr<_Alnode>(_Al_) {

  00136	c7 45 fc 00 00
	00 00		 mov	 DWORD PTR __$EHRec$[ebp+8], 0
; File C:\Program Files\Microsoft Visual Studio\2022\Community\VC\Tools\MSVC\14.44.35207\include\xmemory

; 136  :         return ::operator new(_Bytes);

  0013d	6a 18		 push	 24			; 00000018H

; 1167 :         _Ptr = nullptr; // if allocate throws, prevents double-free

  0013f	c7 45 e4 00 00
	00 00		 mov	 DWORD PTR $T12[ebp+4], 0

; 136  :         return ::operator new(_Bytes);

  00146	e8 00 00 00 00	 call	 ??2@YAPAXI@Z		; operator new
; File C:\Program Files\Microsoft Visual Studio\2022\Community\VC\Tools\MSVC\14.44.35207\include\xtree

; 810  :     }

  0014b	c7 45 fc ff ff
	ff ff		 mov	 DWORD PTR __$EHRec$[ebp+8], -1
; File C:\Program Files\Microsoft Visual Studio\2022\Community\VC\Tools\MSVC\14.44.35207\include\xmemory

; 136  :         return ::operator new(_Bytes);

  00152	83 c4 04	 add	 esp, 4
; File C:\Program Files\Microsoft Visual Studio\2022\Community\VC\Tools\MSVC\14.44.35207\include\xtree

; 830  :         _Alnode_traits::construct(this->_Al, _STD addressof(this->_Ptr->_Myval), _STD forward<_Valtys>(_Vals)...);

  00155	8b 4d f0	 mov	 ecx, DWORD PTR $T31[ebp]
; File C:\Program Files\Microsoft Visual Studio\2022\Community\VC\Tools\MSVC\14.44.35207\include\utility

; 774  :     _Val         = static_cast<_Other&&>(_New_val);

  00158	c7 45 e4 00 00
	00 00		 mov	 DWORD PTR $T12[ebp+4], 0
; File C:\Program Files\Microsoft Visual Studio\2022\Community\VC\Tools\MSVC\14.44.35207\include\xtree

; 830  :         _Alnode_traits::construct(this->_Al, _STD addressof(this->_Ptr->_Myval), _STD forward<_Valtys>(_Vals)...);

  0015f	89 48 14	 mov	 DWORD PTR [eax+20], ecx

; 1042 :         return {_Scary->_Insert_node(_Loc._Location, _Inserted), true};

  00162	8b cb		 mov	 ecx, ebx
  00164	50		 push	 eax
  00165	ff 75 d8	 push	 DWORD PTR __Loc$30[ebp+4]

; 830  :         _Alnode_traits::construct(this->_Al, _STD addressof(this->_Ptr->_Myval), _STD forward<_Valtys>(_Vals)...);

  00168	89 78 10	 mov	 DWORD PTR [eax+16], edi

; 1042 :         return {_Scary->_Insert_node(_Loc._Location, _Inserted), true};

  0016b	ff 75 d4	 push	 DWORD PTR __Loc$30[ebp]

; 831  :         _Construct_in_place(this->_Ptr->_Left, _Myhead);

  0016e	89 30		 mov	 DWORD PTR [eax], esi

; 832  :         _Construct_in_place(this->_Ptr->_Parent, _Myhead);

  00170	89 70 04	 mov	 DWORD PTR [eax+4], esi

; 833  :         _Construct_in_place(this->_Ptr->_Right, _Myhead);

  00173	89 70 08	 mov	 DWORD PTR [eax+8], esi

; 834  :         this->_Ptr->_Color = _Red;

  00176	66 c7 40 0c 00
	00		 mov	 WORD PTR [eax+12], 0

; 1042 :         return {_Scary->_Insert_node(_Loc._Location, _Inserted), true};

  0017c	e8 00 00 00 00	 call	 ?_Insert_node@?$_Tree_val@U?$_Tree_simple_types@U?$pair@$$CBHPAX@std@@@std@@@std@@QAEPAU?$_Tree_node@U?$pair@$$CBHPAX@std@@PAX@2@U?$_Tree_id@PAU?$_Tree_node@U?$pair@$$CBHPAX@std@@PAX@std@@@2@QAU32@@Z ; std::_Tree_val<std::_Tree_simple_types<std::pair<int const ,void *> > >::_Insert_node
$LN149@CreateCurs:
; File C:\Anka2Project\Anka2Project\Source\Binary\source\UserInterface\PythonApplicationCursor.cpp

; 38   : 	for (int i = 0; i < CURSOR_COUNT; ++i)

  00181	47		 inc	 edi
  00182	83 ff 10	 cmp	 edi, 16			; 00000010H
  00185	0f 8c 45 ff ff
	ff		 jl	 $LL4@CreateCurs

; 44   : 
; 45   : 		m_CursorHandleMap.insert(TCursorHandleMap::value_type(i, hCursor));
; 46   : 	}
; 47   : 
; 48   : 	NANOEND

  0018b	eb		 DB	 -21			; ffffffebH
  0018c	03		 DB	 3
  0018d	d6		 DB	 -42			; ffffffd6H
  0018e	d7		 DB	 -41			; ffffffd7H
  0018f	00		 DB	 0
  00190	b0 01		 mov	 al, 1

; 50   : }

  00192	8b 4d f4	 mov	 ecx, DWORD PTR __$EHRec$[ebp]
  00195	64 89 0d 00 00
	00 00		 mov	 DWORD PTR fs:0, ecx
  0019c	59		 pop	 ecx
  0019d	5f		 pop	 edi
  0019e	5e		 pop	 esi
  0019f	5b		 pop	 ebx
  001a0	8b e5		 mov	 esp, ebp
  001a2	5d		 pop	 ebp
  001a3	c3		 ret	 0
$LN168@CreateCurs:

; 43   : 			return false;

  001a4	32 c0		 xor	 al, al

; 50   : }

  001a6	8b 4d f4	 mov	 ecx, DWORD PTR __$EHRec$[ebp]
  001a9	64 89 0d 00 00
	00 00		 mov	 DWORD PTR fs:0, ecx
  001b0	59		 pop	 ecx
  001b1	5f		 pop	 edi
  001b2	5e		 pop	 esi
  001b3	5b		 pop	 ebx
  001b4	8b e5		 mov	 esp, ebp
  001b6	5d		 pop	 ebp
  001b7	c3		 ret	 0
$LN169@CreateCurs:
; File C:\Program Files\Microsoft Visual Studio\2022\Community\VC\Tools\MSVC\14.44.35207\include\xtree

; 1649 :             _Throw_tree_length_error();

  001b8	e8 00 00 00 00	 call	 ?_Throw_tree_length_error@std@@YAXXZ ; std::_Throw_tree_length_error
$LN190@CreateCurs:
  001bd	cc		 int	 3
_TEXT	ENDS
;	COMDAT text$x
text$x	SEGMENT
__unwindfunclet$?CreateCursors@CPythonApplication@@QAE_NXZ$2:
  00000	8d 4d e0	 lea	 ecx, DWORD PTR $T12[ebp]
  00003	e9 00 00 00 00	 jmp	 ??1?$_Alloc_construct_ptr@V?$allocator@U?$_Tree_node@U?$pair@$$CBHPAX@std@@PAX@std@@@std@@@std@@QAE@XZ ; std::_Alloc_construct_ptr<std::allocator<std::_Tree_node<std::pair<int const ,void *>,void *> > >::~_Alloc_construct_ptr<std::allocator<std::_Tree_node<std::pair<int const ,void *>,void *> > >
  00008	cc		 int	 3
  00009	cc		 int	 3
  0000a	cc		 int	 3
  0000b	cc		 int	 3
  0000c	cc		 int	 3
__ehhandler$?CreateCursors@CPythonApplication@@QAE_NXZ:
  0000d	90		 npad	 1
  0000e	90		 npad	 1
  0000f	8b 54 24 08	 mov	 edx, DWORD PTR [esp+8]
  00013	8d 42 0c	 lea	 eax, DWORD PTR [edx+12]
  00016	8b 4a 84	 mov	 ecx, DWORD PTR [edx-124]
  00019	33 c8		 xor	 ecx, eax
  0001b	e8 00 00 00 00	 call	 @__security_check_cookie@4
  00020	b8 00 00 00 00	 mov	 eax, OFFSET __ehfuncinfo$?CreateCursors@CPythonApplication@@QAE_NXZ
  00025	e9 00 00 00 00	 jmp	 ___CxxFrameHandler3
text$x	ENDS
?CreateCursors@CPythonApplication@@QAE_NXZ ENDP		; CPythonApplication::CreateCursors
; Function compile flags: /Ogtp
; File C:\Anka2Project\Anka2Project\Source\Binary\source\UserInterface\PythonApplicationCursor.cpp
;	COMDAT ?SetCursorVisible@CPythonApplication@@QAEXH_N@Z
_TEXT	SEGMENT
_bFlag$ = 8						; size = 4
_bLiarCursorOn$ = 12					; size = 1
?SetCursorVisible@CPythonApplication@@QAEXH_N@Z PROC	; CPythonApplication::SetCursorVisible, COMDAT
; _this$ = ecx

; 62   : {

  00000	55		 push	 ebp
  00001	8b ec		 mov	 ebp, esp

; 63   : 	m_bCursorVisible = bFlag;
; 64   : 	m_bLiarCursorOn = bLiarCursorOn;

  00003	8a 45 0c	 mov	 al, BYTE PTR _bLiarCursorOn$[ebp]
  00006	56		 push	 esi
  00007	8b f1		 mov	 esi, ecx
  00009	8b 4d 08	 mov	 ecx, DWORD PTR _bFlag$[ebp]

; 65   : 	
; 66   : 	if (CURSOR_MODE_HARDWARE == m_iCursorMode)

  0000c	83 be cc d7 03
	00 00		 cmp	 DWORD PTR [esi+251852], 0
  00013	89 8e c4 d7 03
	00		 mov	 DWORD PTR [esi+251844], ecx
  00019	88 86 c8 d7 03
	00		 mov	 BYTE PTR [esi+251848], al
  0001f	75 2e		 jne	 SHORT $LN6@SetCursorV

; 67   : 	{
; 68   : 		int iShowNum;
; 69   : 		if (FALSE == m_bCursorVisible)

  00021	57		 push	 edi
  00022	8b 3d 00 00 00
	00		 mov	 edi, DWORD PTR __imp__ShowCursor@4
  00028	85 c9		 test	 ecx, ecx
  0002a	75 16		 jne	 SHORT $LL7@SetCursorV
  0002c	0f 1f 40 00	 npad	 4
$LL4@SetCursorV:

; 70   : 		{
; 71   : 			do
; 72   : 			{
; 73   : 				iShowNum = ShowCursor(m_bCursorVisible);

  00030	ff b6 c4 d7 03
	00		 push	 DWORD PTR [esi+251844]
  00036	ff d7		 call	 edi

; 74   : 			} while(iShowNum >= 0);

  00038	85 c0		 test	 eax, eax
  0003a	79 f4		 jns	 SHORT $LL4@SetCursorV
  0003c	5f		 pop	 edi
  0003d	5e		 pop	 esi

; 82   : 		}
; 83   : 	}
; 84   : }

  0003e	5d		 pop	 ebp
  0003f	c2 08 00	 ret	 8
$LL7@SetCursorV:

; 75   : 		}
; 76   : 		else
; 77   : 		{
; 78   : 			do
; 79   : 			{
; 80   : 				iShowNum = ShowCursor(m_bCursorVisible);

  00042	ff b6 c4 d7 03
	00		 push	 DWORD PTR [esi+251844]
  00048	ff d7		 call	 edi

; 81   : 			} while(iShowNum < 0);

  0004a	85 c0		 test	 eax, eax
  0004c	78 f4		 js	 SHORT $LL7@SetCursorV
  0004e	5f		 pop	 edi
$LN6@SetCursorV:
  0004f	5e		 pop	 esi

; 82   : 		}
; 83   : 	}
; 84   : }

  00050	5d		 pop	 ebp
  00051	c2 08 00	 ret	 8
?SetCursorVisible@CPythonApplication@@QAEXH_N@Z ENDP	; CPythonApplication::SetCursorVisible
_TEXT	ENDS
; Function compile flags: /Ogtp
; File C:\Anka2Project\Anka2Project\Source\Binary\source\UserInterface\PythonApplicationCursor.cpp
; File C:\Program Files\Microsoft Visual Studio\2022\Community\VC\Tools\MSVC\14.44.35207\include\xtree
; File C:\Program Files\Microsoft Visual Studio\2022\Community\VC\Tools\MSVC\14.44.35207\include\type_traits
; File C:\Program Files\Microsoft Visual Studio\2022\Community\VC\Tools\MSVC\14.44.35207\include\xtree
; File C:\Program Files\Microsoft Visual Studio\2022\Community\VC\Tools\MSVC\14.44.35207\include\type_traits
; File C:\Program Files\Microsoft Visual Studio\2022\Community\VC\Tools\MSVC\14.44.35207\include\xtree
; File C:\Anka2Project\Anka2Project\Source\Binary\source\UserInterface\PythonApplicationCursor.cpp
;	COMDAT ?SetCursorNum@CPythonApplication@@QAEHH@Z
_TEXT	SEGMENT
_iCursorNum$ = 8					; size = 4
?SetCursorNum@CPythonApplication@@QAEHH@Z PROC		; CPythonApplication::SetCursorNum, COMDAT
; _this$ = ecx

; 119  : {

  00000	55		 push	 ebp
  00001	8b ec		 mov	 ebp, esp
  00003	53		 push	 ebx
  00004	56		 push	 esi
  00005	8b d9		 mov	 ebx, ecx
  00007	57		 push	 edi

; 120  : 	if (CURSOR_SHAPE_NORMAL == iCursorNum)

  00008	8b 7d 08	 mov	 edi, DWORD PTR _iCursorNum$[ebp]
  0000b	8b 8b 04 d8 03
	00		 mov	 ecx, DWORD PTR [ebx+251908]
  00011	51		 push	 ecx
  00012	e8 00 00 00 00	 call	 ?__IsContinuousChangeTypeCursor@CPythonApplication@@IAEHH@Z ; CPythonApplication::__IsContinuousChangeTypeCursor
  00017	85 ff		 test	 edi, edi
  00019	75 0c		 jne	 SHORT $LN2@SetCursorN

; 121  : 	{
; 122  : 		if (!__IsContinuousChangeTypeCursor(m_iCursorNum))

  0001b	85 c0		 test	 eax, eax
  0001d	75 12		 jne	 SHORT $LN5@SetCursorN

; 123  : 		{
; 124  : 			iCursorNum = m_iContinuousCursorNum;

  0001f	8b bb 08 d8 03
	00		 mov	 edi, DWORD PTR [ebx+251912]

; 125  : 		}
; 126  : 	}

  00025	eb 0a		 jmp	 SHORT $LN5@SetCursorN
$LN2@SetCursorN:

; 127  : 	else
; 128  : 	{
; 129  : 		if (__IsContinuousChangeTypeCursor(m_iCursorNum))

  00027	85 c0		 test	 eax, eax
  00029	74 06		 je	 SHORT $LN5@SetCursorN

; 130  : 		{
; 131  : 			m_iContinuousCursorNum = m_iCursorNum;

  0002b	89 8b 08 d8 03
	00		 mov	 DWORD PTR [ebx+251912], ecx
$LN5@SetCursorN:

; 132  : 		}
; 133  : 	}
; 134  : 
; 135  : 	if (CURSOR_MODE_HARDWARE == m_iCursorMode)

  00031	83 bb cc d7 03
	00 00		 cmp	 DWORD PTR [ebx+251852], 0
  00038	75 49		 jne	 SHORT $LN6@SetCursorN
; File C:\Program Files\Microsoft Visual Studio\2022\Community\VC\Tools\MSVC\14.44.35207\include\xtree

; 1630 :         _Tree_find_result<_Nodeptr> _Result{{_Scary->_Myhead->_Parent, _Tree_child::_Right}, _Scary->_Myhead};

  0003a	8b b3 b8 d7 03
	00		 mov	 esi, DWORD PTR [ebx+251832]

; 1631 :         _Nodeptr _Trynode = _Result._Location._Parent;
; 1632 :         while (!_Trynode->_Isnil) {

  00040	8b ce		 mov	 ecx, esi
  00042	8b 46 04	 mov	 eax, DWORD PTR [esi+4]
  00045	80 78 0d 00	 cmp	 BYTE PTR [eax+13], 0
  00049	75 19		 jne	 SHORT $LN16@SetCursorN
  0004b	0f 1f 44 00 00	 npad	 5
$LL15@SetCursorN:
; File C:\Program Files\Microsoft Visual Studio\2022\Community\VC\Tools\MSVC\14.44.35207\include\type_traits

; 2380 :         return _Left < _Right;

  00050	39 78 10	 cmp	 DWORD PTR [eax+16], edi
; File C:\Program Files\Microsoft Visual Studio\2022\Community\VC\Tools\MSVC\14.44.35207\include\xtree

; 1634 :             if (_DEBUG_LT_PRED(_Getcomp(), _Traits::_Kfn(_Trynode->_Myval), _Keyval)) {

  00053	7d 05		 jge	 SHORT $LN17@SetCursorN

; 1635 :                 _Result._Location._Child = _Tree_child::_Right;
; 1636 :                 _Trynode                 = _Trynode->_Right;

  00055	8b 40 08	 mov	 eax, DWORD PTR [eax+8]

; 1637 :             } else {

  00058	eb 04		 jmp	 SHORT $LN18@SetCursorN
$LN17@SetCursorN:

; 1638 :                 _Result._Location._Child = _Tree_child::_Left;
; 1639 :                 _Result._Bound           = _Trynode;

  0005a	8b f0		 mov	 esi, eax

; 1640 :                 _Trynode                 = _Trynode->_Left;

  0005c	8b 00		 mov	 eax, DWORD PTR [eax]
$LN18@SetCursorN:

; 1631 :         _Nodeptr _Trynode = _Result._Location._Parent;
; 1632 :         while (!_Trynode->_Isnil) {

  0005e	80 78 0d 00	 cmp	 BYTE PTR [eax+13], 0
  00062	74 ec		 je	 SHORT $LL15@SetCursorN
$LN16@SetCursorN:

; 1624 :         return !_Bound->_Isnil && !_DEBUG_LT_PRED(_Getcomp(), _Keyval, _Traits::_Kfn(_Bound->_Myval));

  00064	80 7e 0d 00	 cmp	 BYTE PTR [esi+13], 0
  00068	75 4b		 jne	 SHORT $LN67@SetCursorN
; File C:\Program Files\Microsoft Visual Studio\2022\Community\VC\Tools\MSVC\14.44.35207\include\type_traits

; 2380 :         return _Left < _Right;

  0006a	3b 7e 10	 cmp	 edi, DWORD PTR [esi+16]
; File C:\Program Files\Microsoft Visual Studio\2022\Community\VC\Tools\MSVC\14.44.35207\include\xtree

; 1624 :         return !_Bound->_Isnil && !_DEBUG_LT_PRED(_Getcomp(), _Keyval, _Traits::_Kfn(_Bound->_Myval));

  0006d	7c 46		 jl	 SHORT $LN67@SetCursorN

; 37   :     _Tree_unchecked_const_iterator(_Nodeptr _Pnode, const _Mytree* _Plist) noexcept : _Ptr(_Pnode) {

  0006f	3b ce		 cmp	 ecx, esi
; File C:\Anka2Project\Anka2Project\Source\Binary\source\UserInterface\PythonApplicationCursor.cpp

; 138  : 		if (m_CursorHandleMap.end() == itor)

  00071	74 42		 je	 SHORT $LN67@SetCursorN

; 139  : 			return FALSE;
; 140  : 
; 141  : 		HCURSOR hCursor = (HCURSOR)itor->second;

  00073	8b 76 14	 mov	 esi, DWORD PTR [esi+20]

; 142  : 
; 143  : 		SetCursor(hCursor);

  00076	56		 push	 esi
  00077	ff 15 00 00 00
	00		 call	 DWORD PTR __imp__SetCursor@4

; 144  : 		m_hCurrentCursor = hCursor;

  0007d	89 b3 c0 d7 03
	00		 mov	 DWORD PTR [ebx+251840], esi
$LN6@SetCursorN:

; 145  : 	}
; 146  : 
; 147  : 	m_iCursorNum = iCursorNum;
; 148  : 
; 149  : 	PyCallClassMemberFunc(m_poMouseHandler, "ChangeCursor", Py_BuildValue("(i)", m_iCursorNum));

  00083	57		 push	 edi
  00084	68 00 00 00 00	 push	 OFFSET ??_C@_03LIHNMIHG@?$CIi?$CJ@
  00089	89 bb 04 d8 03
	00		 mov	 DWORD PTR [ebx+251908], edi
  0008f	ff 15 00 00 00
	00		 call	 DWORD PTR __imp__Py_BuildValue
  00095	50		 push	 eax
  00096	68 00 00 00 00	 push	 OFFSET ??_C@_0N@KKPJLJEF@ChangeCursor@
  0009b	ff b3 a0 d6 03
	00		 push	 DWORD PTR [ebx+251552]
  000a1	e8 00 00 00 00	 call	 ?PyCallClassMemberFunc@@YA_NPAU_object@@PBD0@Z ; PyCallClassMemberFunc
  000a6	83 c4 14	 add	 esp, 20			; 00000014H

; 150  : 
; 151  : 	return TRUE;

  000a9	b8 01 00 00 00	 mov	 eax, 1
  000ae	5f		 pop	 edi

; 152  : }

  000af	5e		 pop	 esi
  000b0	5b		 pop	 ebx
  000b1	5d		 pop	 ebp
  000b2	c2 04 00	 ret	 4
$LN67@SetCursorN:
  000b5	5f		 pop	 edi
  000b6	5e		 pop	 esi
  000b7	33 c0		 xor	 eax, eax
  000b9	5b		 pop	 ebx
  000ba	5d		 pop	 ebp
  000bb	c2 04 00	 ret	 4
?SetCursorNum@CPythonApplication@@QAEHH@Z ENDP		; CPythonApplication::SetCursorNum
_TEXT	ENDS
END
