; Listing generated by Microsoft (R) Optimizing Compiler Version 19.44.35219.0 

	TITLE	c:\anka2project\anka2project\source\binary\vs_files\userinterface\release\pythonswitchbot.obj
	.686P
	.XMM
	include listing.inc
	.model	flat

INCLUDELIB OLDNAMES

PUBLIC	??_C@_08CHIOLOMB@IsActive@			; `string'
PUBLIC	??_C@_0N@JKDPMBLH@GetAttribute@			; `string'
PUBLIC	??_C@_0L@LNDABNEO@IsFinished@			; `string'
PUBLIC	??_C@_0BE@GNKJFPMN@GetAttributesForSet@		; `string'
PUBLIC	??_C@_0N@OOIBANPL@SetAttribute@			; `string'
PUBLIC	??_C@_09CGBENBJB@ClearSlot@			; `string'
PUBLIC	??_C@_0BF@HBBNNDIE@GetAttributeMaxValue@	; `string'
PUBLIC	??_C@_04MOIHHPNJ@Stop@				; `string'
PUBLIC	??_C@_05FHMJPCKA@Start@				; `string'
PUBLIC	??_C@_0L@PPBHMKPM@SLOT_COUNT@			; `string'
PUBLIC	??_C@_09PMJPAGLJ@switchbot@			; `string'
PUBLIC	??_C@_0BC@NOLGEMIA@ALTERNATIVE_COUNT@		; `string'
PUBLIC	??_R2CPythonSwitchbot@@8			; CPythonSwitchbot::`RTTI Base Class Array'
PUBLIC	??_R2?$CSingleton@VCPythonSwitchbot@@@@8	; CSingleton<CPythonSwitchbot>::`RTTI Base Class Array'
PUBLIC	??_R1A@?0A@EA@?$CSingleton@VCPythonSwitchbot@@@@8 ; CSingleton<CPythonSwitchbot>::`RTTI Base Class Descriptor at (0,-1,0,64)'
PUBLIC	??_R1A@?0A@EA@CPythonSwitchbot@@8		; CPythonSwitchbot::`RTTI Base Class Descriptor at (0,-1,0,64)'
PUBLIC	??_R0?AV?$CSingleton@VCPythonSwitchbot@@@@@8	; CSingleton<CPythonSwitchbot> `RTTI Type Descriptor'
PUBLIC	??_R3?$CSingleton@VCPythonSwitchbot@@@@8	; CSingleton<CPythonSwitchbot>::`RTTI Class Hierarchy Descriptor'
PUBLIC	??_R0?AVCPythonSwitchbot@@@8			; CPythonSwitchbot `RTTI Type Descriptor'
PUBLIC	??_R3CPythonSwitchbot@@8			; CPythonSwitchbot::`RTTI Class Hierarchy Descriptor'
PUBLIC	??_R4?$CSingleton@VCPythonSwitchbot@@@@6B@	; CSingleton<CPythonSwitchbot>::`RTTI Complete Object Locator'
PUBLIC	??_R4CPythonSwitchbot@@6B@			; CPythonSwitchbot::`RTTI Complete Object Locator'
PUBLIC	??_7?$CSingleton@VCPythonSwitchbot@@@@6B@	; CSingleton<CPythonSwitchbot>::`vftable'
PUBLIC	??_7CPythonSwitchbot@@6B@			; CPythonSwitchbot::`vftable'
EXTRN	__invalid_parameter_noinfo:PROC
EXTRN	__errno:PROC
;	COMDAT ??_7CPythonSwitchbot@@6B@
CONST	SEGMENT
??_7CPythonSwitchbot@@6B@ DD FLAT:??_R4CPythonSwitchbot@@6B@ ; CPythonSwitchbot::`vftable'
	DD	FLAT:??_ECPythonSwitchbot@@UAEPAXI@Z
CONST	ENDS
;	COMDAT ?s_methods@?1??initSwitchbot@@YAXXZ@4PAUPyMethodDef@@A
_DATA	SEGMENT
?s_methods@?1??initSwitchbot@@YAXXZ@4PAUPyMethodDef@@A DD FLAT:??_C@_08CHIOLOMB@IsActive@ ; `initSwitchbot'::`2'::s_methods
	DD	FLAT:?switchbotIsActive@@YAPAU_object@@PAU1@0@Z
	DD	01H
	ORG $+4
	DD	FLAT:??_C@_0L@LNDABNEO@IsFinished@
	DD	FLAT:?switchbotIsFinished@@YAPAU_object@@PAU1@0@Z
	DD	01H
	ORG $+4
	DD	FLAT:??_C@_0N@JKDPMBLH@GetAttribute@
	DD	FLAT:?switchbotGetAttribute@@YAPAU_object@@PAU1@0@Z
	DD	01H
	ORG $+4
	DD	FLAT:??_C@_0N@OOIBANPL@SetAttribute@
	DD	FLAT:?switchbotSetAttribute@@YAPAU_object@@PAU1@0@Z
	DD	01H
	ORG $+4
	DD	FLAT:??_C@_0BE@GNKJFPMN@GetAttributesForSet@
	DD	FLAT:?switchbotGetAttributesForSet@@YAPAU_object@@PAU1@0@Z
	DD	01H
	ORG $+4
	DD	FLAT:??_C@_0BF@HBBNNDIE@GetAttributeMaxValue@
	DD	FLAT:?switchbotGetAttributeMaxValue@@YAPAU_object@@PAU1@0@Z
	DD	01H
	ORG $+4
	DD	FLAT:??_C@_09CGBENBJB@ClearSlot@
	DD	FLAT:?switchbotClearSlot@@YAPAU_object@@PAU1@0@Z
	DD	01H
	ORG $+4
	DD	FLAT:??_C@_05FHMJPCKA@Start@
	DD	FLAT:?switchbotStart@@YAPAU_object@@PAU1@0@Z
	DD	01H
	ORG $+4
	DD	FLAT:??_C@_04MOIHHPNJ@Stop@
	DD	FLAT:?switchbotStop@@YAPAU_object@@PAU1@0@Z
	DD	01H
	ORG $+4
	DD	00H
	DD	00H
	ORG $+8
_DATA	ENDS
;	COMDAT ??_7?$CSingleton@VCPythonSwitchbot@@@@6B@
CONST	SEGMENT
??_7?$CSingleton@VCPythonSwitchbot@@@@6B@ DD FLAT:??_R4?$CSingleton@VCPythonSwitchbot@@@@6B@ ; CSingleton<CPythonSwitchbot>::`vftable'
	DD	FLAT:??_E?$CSingleton@VCPythonSwitchbot@@@@UAEPAXI@Z
CONST	ENDS
;	COMDAT ??_R4CPythonSwitchbot@@6B@
rdata$r	SEGMENT
??_R4CPythonSwitchbot@@6B@ DD 00H			; CPythonSwitchbot::`RTTI Complete Object Locator'
	DD	00H
	DD	00H
	DD	FLAT:??_R0?AVCPythonSwitchbot@@@8
	DD	FLAT:??_R3CPythonSwitchbot@@8
rdata$r	ENDS
;	COMDAT ??_R4?$CSingleton@VCPythonSwitchbot@@@@6B@
rdata$r	SEGMENT
??_R4?$CSingleton@VCPythonSwitchbot@@@@6B@ DD 00H	; CSingleton<CPythonSwitchbot>::`RTTI Complete Object Locator'
	DD	00H
	DD	00H
	DD	FLAT:??_R0?AV?$CSingleton@VCPythonSwitchbot@@@@@8
	DD	FLAT:??_R3?$CSingleton@VCPythonSwitchbot@@@@8
rdata$r	ENDS
;	COMDAT ??_R3CPythonSwitchbot@@8
rdata$r	SEGMENT
??_R3CPythonSwitchbot@@8 DD 00H				; CPythonSwitchbot::`RTTI Class Hierarchy Descriptor'
	DD	00H
	DD	02H
	DD	FLAT:??_R2CPythonSwitchbot@@8
rdata$r	ENDS
;	COMDAT ??_R0?AVCPythonSwitchbot@@@8
data$rs	SEGMENT
??_R0?AVCPythonSwitchbot@@@8 DD FLAT:??_7type_info@@6B@	; CPythonSwitchbot `RTTI Type Descriptor'
	DD	00H
	DB	'.?AVCPythonSwitchbot@@', 00H
data$rs	ENDS
;	COMDAT ??_R3?$CSingleton@VCPythonSwitchbot@@@@8
rdata$r	SEGMENT
??_R3?$CSingleton@VCPythonSwitchbot@@@@8 DD 00H		; CSingleton<CPythonSwitchbot>::`RTTI Class Hierarchy Descriptor'
	DD	00H
	DD	01H
	DD	FLAT:??_R2?$CSingleton@VCPythonSwitchbot@@@@8
rdata$r	ENDS
;	COMDAT ??_R0?AV?$CSingleton@VCPythonSwitchbot@@@@@8
data$rs	SEGMENT
??_R0?AV?$CSingleton@VCPythonSwitchbot@@@@@8 DD FLAT:??_7type_info@@6B@ ; CSingleton<CPythonSwitchbot> `RTTI Type Descriptor'
	DD	00H
	DB	'.?AV?$CSingleton@VCPythonSwitchbot@@@@', 00H
data$rs	ENDS
;	COMDAT ??_R1A@?0A@EA@CPythonSwitchbot@@8
rdata$r	SEGMENT
??_R1A@?0A@EA@CPythonSwitchbot@@8 DD FLAT:??_R0?AVCPythonSwitchbot@@@8 ; CPythonSwitchbot::`RTTI Base Class Descriptor at (0,-1,0,64)'
	DD	01H
	DD	00H
	DD	0ffffffffH
	DD	00H
	DD	040H
	DD	FLAT:??_R3CPythonSwitchbot@@8
rdata$r	ENDS
;	COMDAT ??_R1A@?0A@EA@?$CSingleton@VCPythonSwitchbot@@@@8
rdata$r	SEGMENT
??_R1A@?0A@EA@?$CSingleton@VCPythonSwitchbot@@@@8 DD FLAT:??_R0?AV?$CSingleton@VCPythonSwitchbot@@@@@8 ; CSingleton<CPythonSwitchbot>::`RTTI Base Class Descriptor at (0,-1,0,64)'
	DD	00H
	DD	00H
	DD	0ffffffffH
	DD	00H
	DD	040H
	DD	FLAT:??_R3?$CSingleton@VCPythonSwitchbot@@@@8
rdata$r	ENDS
;	COMDAT ??_R2?$CSingleton@VCPythonSwitchbot@@@@8
rdata$r	SEGMENT
??_R2?$CSingleton@VCPythonSwitchbot@@@@8 DD FLAT:??_R1A@?0A@EA@?$CSingleton@VCPythonSwitchbot@@@@8 ; CSingleton<CPythonSwitchbot>::`RTTI Base Class Array'
rdata$r	ENDS
;	COMDAT ??_R2CPythonSwitchbot@@8
rdata$r	SEGMENT
??_R2CPythonSwitchbot@@8 DD FLAT:??_R1A@?0A@EA@CPythonSwitchbot@@8 ; CPythonSwitchbot::`RTTI Base Class Array'
	DD	FLAT:??_R1A@?0A@EA@?$CSingleton@VCPythonSwitchbot@@@@8
rdata$r	ENDS
;	COMDAT ??_C@_0BC@NOLGEMIA@ALTERNATIVE_COUNT@
CONST	SEGMENT
??_C@_0BC@NOLGEMIA@ALTERNATIVE_COUNT@ DB 'ALTERNATIVE_COUNT', 00H ; `string'
CONST	ENDS
;	COMDAT ??_C@_09PMJPAGLJ@switchbot@
CONST	SEGMENT
??_C@_09PMJPAGLJ@switchbot@ DB 'switchbot', 00H		; `string'
CONST	ENDS
;	COMDAT ??_C@_0L@PPBHMKPM@SLOT_COUNT@
CONST	SEGMENT
??_C@_0L@PPBHMKPM@SLOT_COUNT@ DB 'SLOT_COUNT', 00H	; `string'
CONST	ENDS
;	COMDAT ??_C@_05FHMJPCKA@Start@
CONST	SEGMENT
??_C@_05FHMJPCKA@Start@ DB 'Start', 00H			; `string'
CONST	ENDS
;	COMDAT ??_C@_04MOIHHPNJ@Stop@
CONST	SEGMENT
??_C@_04MOIHHPNJ@Stop@ DB 'Stop', 00H			; `string'
CONST	ENDS
;	COMDAT ??_C@_0BF@HBBNNDIE@GetAttributeMaxValue@
CONST	SEGMENT
??_C@_0BF@HBBNNDIE@GetAttributeMaxValue@ DB 'GetAttributeMaxValue', 00H ; `string'
CONST	ENDS
;	COMDAT ??_C@_09CGBENBJB@ClearSlot@
CONST	SEGMENT
??_C@_09CGBENBJB@ClearSlot@ DB 'ClearSlot', 00H		; `string'
CONST	ENDS
;	COMDAT ??_C@_0N@OOIBANPL@SetAttribute@
CONST	SEGMENT
??_C@_0N@OOIBANPL@SetAttribute@ DB 'SetAttribute', 00H	; `string'
CONST	ENDS
;	COMDAT ??_C@_0BE@GNKJFPMN@GetAttributesForSet@
CONST	SEGMENT
??_C@_0BE@GNKJFPMN@GetAttributesForSet@ DB 'GetAttributesForSet', 00H ; `string'
CONST	ENDS
;	COMDAT ??_C@_0L@LNDABNEO@IsFinished@
CONST	SEGMENT
??_C@_0L@LNDABNEO@IsFinished@ DB 'IsFinished', 00H	; `string'
CONST	ENDS
;	COMDAT ??_C@_0N@JKDPMBLH@GetAttribute@
CONST	SEGMENT
??_C@_0N@JKDPMBLH@GetAttribute@ DB 'GetAttribute', 00H	; `string'
CONST	ENDS
;	COMDAT ??_C@_08CHIOLOMB@IsActive@
CONST	SEGMENT
??_C@_08CHIOLOMB@IsActive@ DB 'IsActive', 00H		; `string'
PUBLIC	??$move@AAPAU?$_Tree_node@U?$pair@$$CBEJ@std@@PAX@std@@@std@@YA$$QAPAU?$_Tree_node@U?$pair@$$CBEJ@std@@PAX@0@AAPAU10@@Z ; std::move<std::_Tree_node<std::pair<unsigned char const ,long>,void *> * &>
PUBLIC	??$swap@PAU?$_Tree_node@U?$pair@$$CBEJ@std@@PAX@std@@$0A@@std@@YAXAAPAU?$_Tree_node@U?$pair@$$CBEJ@std@@PAX@0@0@Z ; std::swap<std::_Tree_node<std::pair<unsigned char const ,long>,void *> *,0>
PUBLIC	??$construct_at@U?$pair@$$CBEJ@std@@AAU12@@std@@YAPAU?$pair@$$CBEJ@0@QAU10@AAU10@@Z ; std::construct_at<std::pair<unsigned char const ,long>,std::pair<unsigned char const ,long> &>
PUBLIC	?_Swap_val_excluding_comp@?$_Tree@V?$_Tmap_traits@EJU?$less@E@std@@V?$allocator@U?$pair@$$CBEJ@std@@@2@$0A@@std@@@std@@AAEXAAV12@@Z ; std::_Tree<std::_Tmap_traits<unsigned char,long,std::less<unsigned char>,std::allocator<std::pair<unsigned char const ,long> >,0> >::_Swap_val_excluding_comp
PUBLIC	??$move@AAV?$allocator@U?$_Tree_node@U?$pair@$$CBEJ@std@@PAX@std@@@std@@@std@@YA$$QAV?$allocator@U?$_Tree_node@U?$pair@$$CBEJ@std@@PAX@std@@@0@AAV10@@Z ; std::move<std::allocator<std::_Tree_node<std::pair<unsigned char const ,long>,void *> > &>
PUBLIC	??$construct@U?$pair@$$CBEJ@std@@AAU12@@?$_Default_allocator_traits@V?$allocator@U?$_Tree_node@U?$pair@$$CBEJ@std@@PAX@std@@@std@@@std@@SAXAAV?$allocator@U?$_Tree_node@U?$pair@$$CBEJ@std@@PAX@std@@@1@QAU?$pair@$$CBEJ@1@AAU31@@Z ; std::_Default_allocator_traits<std::allocator<std::_Tree_node<std::pair<unsigned char const ,long>,void *> > >::construct<std::pair<unsigned char const ,long>,std::pair<unsigned char const ,long> &>
PUBLIC	??0?$_Tree@V?$_Tmap_traits@EJU?$less@E@std@@V?$allocator@U?$pair@$$CBEJ@std@@@2@$0A@@std@@@std@@QAE@$$QAV01@@Z ; std::_Tree<std::_Tmap_traits<unsigned char,long,std::less<unsigned char>,std::allocator<std::pair<unsigned char const ,long> >,0> >::_Tree<std::_Tmap_traits<unsigned char,long,std::less<unsigned char>,std::allocator<std::pair<unsigned char const ,long> >,0> >
PUBLIC	?_Orphan_ptr@?$_Tree_val@U?$_Tree_simple_types@U?$pair@$$CBEJ@std@@@std@@@std@@QAEXQAU?$_Tree_node@U?$pair@$$CBEJ@std@@PAX@2@@Z ; std::_Tree_val<std::_Tree_simple_types<std::pair<unsigned char const ,long> > >::_Orphan_ptr
PUBLIC	??$move@AAV?$map@EJU?$less@E@std@@V?$allocator@U?$pair@$$CBEJ@std@@@2@@std@@@std@@YA$$QAV?$map@EJU?$less@E@std@@V?$allocator@U?$pair@$$CBEJ@std@@@2@@0@AAV10@@Z ; std::move<std::map<unsigned char,long,std::less<unsigned char>,std::allocator<std::pair<unsigned char const ,long> > > &>
PUBLIC	??$_Buynode@V?$allocator@U?$_Tree_node@U?$pair@$$CBEJ@std@@PAX@std@@@std@@AAU?$pair@$$CBEJ@2@@?$_Tree_node@U?$pair@$$CBEJ@std@@PAX@std@@SAPAU01@AAV?$allocator@U?$_Tree_node@U?$pair@$$CBEJ@std@@PAX@std@@@1@PAU01@AAU?$pair@$$CBEJ@1@@Z ; std::_Tree_node<std::pair<unsigned char const ,long>,void *>::_Buynode<std::allocator<std::_Tree_node<std::pair<unsigned char const ,long>,void *> >,std::pair<unsigned char const ,long> &>
PUBLIC	??$forward@AAU?$pair@$$CBEJ@std@@@std@@YAAAU?$pair@$$CBEJ@0@AAU10@@Z ; std::forward<std::pair<unsigned char const ,long> &>
PUBLIC	??0?$map@EJU?$less@E@std@@V?$allocator@U?$pair@$$CBEJ@std@@@2@@std@@QAE@$$QAV01@@Z ; std::map<unsigned char,long,std::less<unsigned char>,std::allocator<std::pair<unsigned char const ,long> > >::map<unsigned char,long,std::less<unsigned char>,std::allocator<std::pair<unsigned char const ,long> > >
PUBLIC	??$_Erase_tree_and_orphan@V?$allocator@U?$_Tree_node@U?$pair@$$CBEJ@std@@PAX@std@@@std@@@?$_Tree_val@U?$_Tree_simple_types@U?$pair@$$CBEJ@std@@@std@@@std@@QAEXAAV?$allocator@U?$_Tree_node@U?$pair@$$CBEJ@std@@PAX@std@@@1@PAU?$_Tree_node@U?$pair@$$CBEJ@std@@PAX@1@@Z ; std::_Tree_val<std::_Tree_simple_types<std::pair<unsigned char const ,long> > >::_Erase_tree_and_orphan<std::allocator<std::_Tree_node<std::pair<unsigned char const ,long>,void *> > >
PUBLIC	??$_Buynode@AAU?$pair@$$CBEJ@std@@@?$_Tree@V?$_Tmap_traits@EJU?$less@E@std@@V?$allocator@U?$pair@$$CBEJ@std@@@2@$0A@@std@@@std@@IAEPAU?$_Tree_node@U?$pair@$$CBEJ@std@@PAX@1@AAU?$pair@$$CBEJ@1@@Z ; std::_Tree<std::_Tmap_traits<unsigned char,long,std::less<unsigned char>,std::allocator<std::pair<unsigned char const ,long> >,0> >::_Buynode<std::pair<unsigned char const ,long> &>
PUBLIC	??$forward@V?$map@EJU?$less@E@std@@V?$allocator@U?$pair@$$CBEJ@std@@@2@@std@@@std@@YA$$QAV?$map@EJU?$less@E@std@@V?$allocator@U?$pair@$$CBEJ@std@@@2@@0@AAV10@@Z ; std::forward<std::map<unsigned char,long,std::less<unsigned char>,std::allocator<std::pair<unsigned char const ,long> > > >
PUBLIC	??$forward@J@std@@YA$$QAJAAJ@Z			; std::forward<long>
PUBLIC	?_Get_first@?$_Compressed_pair@V?$allocator@U?$_Tree_node@U?$pair@$$CBEV?$map@EJU?$less@E@std@@V?$allocator@U?$pair@$$CBEJ@std@@@2@@std@@@std@@PAX@std@@@std@@V?$_Tree_val@U?$_Tree_simple_types@U?$pair@$$CBEV?$map@EJU?$less@E@std@@V?$allocator@U?$pair@$$CBEJ@std@@@2@@std@@@std@@@std@@@2@$00@std@@QBEABV?$allocator@U?$_Tree_node@U?$pair@$$CBEV?$map@EJU?$less@E@std@@V?$allocator@U?$pair@$$CBEJ@std@@@2@@std@@@std@@PAX@std@@@2@XZ ; std::_Compressed_pair<std::allocator<std::_Tree_node<std::pair<unsigned char const ,std::map<unsigned char,long,std::less<unsigned char>,std::allocator<std::pair<unsigned char const ,long> > > >,void *> >,std::_Tree_val<std::_Tree_simple_types<std::pair<unsigned char const ,std::map<unsigned char,long,std::less<unsigned char>,std::allocator<std::pair<unsigned char const ,long> > > > > >,1>::_Get_first
PUBLIC	??1?$_Erase_tree_and_orphan_guard@V?$allocator@U?$_Tree_node@U?$pair@$$CBEJ@std@@PAX@std@@@std@@@?$_Tree_val@U?$_Tree_simple_types@U?$pair@$$CBEJ@std@@@std@@@std@@QAE@XZ ; std::_Tree_val<std::_Tree_simple_types<std::pair<unsigned char const ,long> > >::_Erase_tree_and_orphan_guard<std::allocator<std::_Tree_node<std::pair<unsigned char const ,long>,void *> > >::~_Erase_tree_and_orphan_guard<std::allocator<std::_Tree_node<std::pair<unsigned char const ,long>,void *> > >
PUBLIC	??$_Copy_or_move@$0A@U?$pair@$$CBEJ@std@@@?$_Tree@V?$_Tmap_traits@EJU?$less@E@std@@V?$allocator@U?$pair@$$CBEJ@std@@@2@$0A@@std@@@std@@IAEPAU?$_Tree_node@U?$pair@$$CBEJ@std@@PAX@1@AAU?$pair@$$CBEJ@1@@Z ; std::_Tree<std::_Tmap_traits<unsigned char,long,std::less<unsigned char>,std::allocator<std::pair<unsigned char const ,long> >,0> >::_Copy_or_move<0,std::pair<unsigned char const ,long> >
PUBLIC	??$construct_at@UTPlayerItemAttribute@@U1@@std@@YAPAUTPlayerItemAttribute@@QAU1@$$QAU1@@Z ; std::construct_at<TPlayerItemAttribute,TPlayerItemAttribute>
PUBLIC	??$construct_at@UTSwitchbotAttributeAlternativeTable@CPythonSwitchbot@@U12@@std@@YAPAUTSwitchbotAttributeAlternativeTable@CPythonSwitchbot@@QAU12@$$QAU12@@Z ; std::construct_at<CPythonSwitchbot::TSwitchbotAttributeAlternativeTable,CPythonSwitchbot::TSwitchbotAttributeAlternativeTable>
PUBLIC	??$?0EV?$map@EJU?$less@E@std@@V?$allocator@U?$pair@$$CBEJ@std@@@2@@std@@$0A@@?$pair@$$CBEV?$map@EJU?$less@E@std@@V?$allocator@U?$pair@$$CBEJ@std@@@2@@std@@@std@@QAE@$$QAU?$pair@EV?$map@EJU?$less@E@std@@V?$allocator@U?$pair@$$CBEJ@std@@@2@@std@@@1@@Z ; std::pair<unsigned char const ,std::map<unsigned char,long,std::less<unsigned char>,std::allocator<std::pair<unsigned char const ,long> > > >::pair<unsigned char const ,std::map<unsigned char,long,std::less<unsigned char>,std::allocator<std::pair<unsigned char const ,long> > > ><unsigned char,std::map<unsigned char,long,std::less<unsigned char>,std::allocator<std::pair<unsigned char const ,long> > >,0>
PUBLIC	??$?0HJ$0A@@?$pair@$$CBEJ@std@@QAE@$$QAU?$pair@HJ@1@@Z ; std::pair<unsigned char const ,long>::pair<unsigned char const ,long><int,long,0>
PUBLIC	?_Getal@?$_Tree@V?$_Tmap_traits@EV?$map@EJU?$less@E@std@@V?$allocator@U?$pair@$$CBEJ@std@@@2@@std@@U?$less@E@2@V?$allocator@U?$pair@$$CBEV?$map@EJU?$less@E@std@@V?$allocator@U?$pair@$$CBEJ@std@@@2@@std@@@std@@@2@$0A@@std@@@std@@IBEABV?$allocator@U?$_Tree_node@U?$pair@$$CBEV?$map@EJU?$less@E@std@@V?$allocator@U?$pair@$$CBEJ@std@@@2@@std@@@std@@PAX@std@@@2@XZ ; std::_Tree<std::_Tmap_traits<unsigned char,std::map<unsigned char,long,std::less<unsigned char>,std::allocator<std::pair<unsigned char const ,long> > >,std::less<unsigned char>,std::allocator<std::pair<unsigned char const ,std::map<unsigned char,long,std::less<unsigned char>,std::allocator<std::pair<unsigned char const ,long> > > > >,0> >::_Getal
PUBLIC	?max_size@?$_Default_allocator_traits@V?$allocator@U?$_Tree_node@U?$pair@$$CBEV?$map@EJU?$less@E@std@@V?$allocator@U?$pair@$$CBEJ@std@@@2@@std@@@std@@PAX@std@@@std@@@std@@SAIABV?$allocator@U?$_Tree_node@U?$pair@$$CBEV?$map@EJU?$less@E@std@@V?$allocator@U?$pair@$$CBEJ@std@@@2@@std@@@std@@PAX@std@@@2@@Z ; std::_Default_allocator_traits<std::allocator<std::_Tree_node<std::pair<unsigned char const ,std::map<unsigned char,long,std::less<unsigned char>,std::allocator<std::pair<unsigned char const ,long> > > >,void *> > >::max_size
PUBLIC	?max_size@?$_Default_allocator_traits@V?$allocator@U?$_Tree_node@U?$pair@$$CBEJ@std@@PAX@std@@@std@@@std@@SAIABV?$allocator@U?$_Tree_node@U?$pair@$$CBEJ@std@@PAX@std@@@2@@Z ; std::_Default_allocator_traits<std::allocator<std::_Tree_node<std::pair<unsigned char const ,long>,void *> > >::max_size
PUBLIC	?_Max@?$_Tree_val@U?$_Tree_simple_types@U?$pair@$$CBEJ@std@@@std@@@std@@SAPAU?$_Tree_node@U?$pair@$$CBEJ@std@@PAX@2@PAU32@@Z ; std::_Tree_val<std::_Tree_simple_types<std::pair<unsigned char const ,long> > >::_Max
PUBLIC	?_Get_first@?$_Compressed_pair@V?$allocator@UTPlayerItemAttribute@@@std@@V?$_Vector_val@U?$_Simple_types@UTPlayerItemAttribute@@@std@@@2@$00@std@@QBEABV?$allocator@UTPlayerItemAttribute@@@2@XZ ; std::_Compressed_pair<std::allocator<TPlayerItemAttribute>,std::_Vector_val<std::_Simple_types<TPlayerItemAttribute> >,1>::_Get_first
PUBLIC	??0?$_Alloc_construct_ptr@V?$allocator@U?$_Tree_node@U?$pair@$$CBEJ@std@@PAX@std@@@std@@@std@@QAE@AAV?$allocator@U?$_Tree_node@U?$pair@$$CBEJ@std@@PAX@std@@@1@@Z ; std::_Alloc_construct_ptr<std::allocator<std::_Tree_node<std::pair<unsigned char const ,long>,void *> > >::_Alloc_construct_ptr<std::allocator<std::_Tree_node<std::pair<unsigned char const ,long>,void *> > >
PUBLIC	?_Allocate@?$_Alloc_construct_ptr@V?$allocator@U?$_Tree_node@U?$pair@$$CBEJ@std@@PAX@std@@@std@@@std@@QAEXXZ ; std::_Alloc_construct_ptr<std::allocator<std::_Tree_node<std::pair<unsigned char const ,long>,void *> > >::_Allocate
PUBLIC	??0?$_Alloc_construct_ptr@V?$allocator@U?$_Tree_node@U?$pair@$$CBEV?$map@EJU?$less@E@std@@V?$allocator@U?$pair@$$CBEJ@std@@@2@@std@@@std@@PAX@std@@@std@@@std@@QAE@AAV?$allocator@U?$_Tree_node@U?$pair@$$CBEV?$map@EJU?$less@E@std@@V?$allocator@U?$pair@$$CBEJ@std@@@2@@std@@@std@@PAX@std@@@1@@Z ; std::_Alloc_construct_ptr<std::allocator<std::_Tree_node<std::pair<unsigned char const ,std::map<unsigned char,long,std::less<unsigned char>,std::allocator<std::pair<unsigned char const ,long> > > >,void *> > >::_Alloc_construct_ptr<std::allocator<std::_Tree_node<std::pair<unsigned char const ,std::map<unsigned char,long,std::less<unsigned char>,std::allocator<std::pair<unsigned char const ,long> > > >,void *> > >
PUBLIC	?_Allocate@?$_Alloc_construct_ptr@V?$allocator@U?$_Tree_node@U?$pair@$$CBEV?$map@EJU?$less@E@std@@V?$allocator@U?$pair@$$CBEJ@std@@@2@@std@@@std@@PAX@std@@@std@@@std@@QAEXXZ ; std::_Alloc_construct_ptr<std::allocator<std::_Tree_node<std::pair<unsigned char const ,std::map<unsigned char,long,std::less<unsigned char>,std::allocator<std::pair<unsigned char const ,long> > > >,void *> > >::_Allocate
PUBLIC	??$_Get_size_of_n@$0P@@std@@YAII@Z		; std::_Get_size_of_n<15>
PUBLIC	??$_Copy_nodes@$0A@@?$_Tree@V?$_Tmap_traits@EJU?$less@E@std@@V?$allocator@U?$pair@$$CBEJ@std@@@2@$0A@@std@@@std@@IAEPAU?$_Tree_node@U?$pair@$$CBEJ@std@@PAX@1@PAU21@0@Z ; std::_Tree<std::_Tmap_traits<unsigned char,long,std::less<unsigned char>,std::allocator<std::pair<unsigned char const ,long> >,0> >::_Copy_nodes<0>
PUBLIC	??$construct_at@PAU?$_Tree_node@U?$pair@$$CBEV?$map@EJU?$less@E@std@@V?$allocator@U?$pair@$$CBEJ@std@@@2@@std@@@std@@PAX@std@@ABQAU12@@std@@YAPAPAU?$_Tree_node@U?$pair@$$CBEV?$map@EJU?$less@E@std@@V?$allocator@U?$pair@$$CBEJ@std@@@2@@std@@@std@@PAX@0@QAPAU10@ABQAU10@@Z ; std::construct_at<std::_Tree_node<std::pair<unsigned char const ,std::map<unsigned char,long,std::less<unsigned char>,std::allocator<std::pair<unsigned char const ,long> > > >,void *> *,std::_Tree_node<std::pair<unsigned char const ,std::map<unsigned char,long,std::less<unsigned char>,std::allocator<std::pair<unsigned char const ,long> > > >,void *> * const &>
PUBLIC	??$forward@ABQAU?$_Tree_node@U?$pair@$$CBEV?$map@EJU?$less@E@std@@V?$allocator@U?$pair@$$CBEJ@std@@@2@@std@@@std@@PAX@std@@@std@@YAABQAU?$_Tree_node@U?$pair@$$CBEV?$map@EJU?$less@E@std@@V?$allocator@U?$pair@$$CBEJ@std@@@2@@std@@@std@@PAX@0@ABQAU10@@Z ; std::forward<std::_Tree_node<std::pair<unsigned char const ,std::map<unsigned char,long,std::less<unsigned char>,std::allocator<std::pair<unsigned char const ,long> > > >,void *> * const &>
PUBLIC	??$construct_at@PAU?$_Tree_node@U?$pair@$$CBEJ@std@@PAX@std@@ABQAU12@@std@@YAPAPAU?$_Tree_node@U?$pair@$$CBEJ@std@@PAX@0@QAPAU10@ABQAU10@@Z ; std::construct_at<std::_Tree_node<std::pair<unsigned char const ,long>,void *> *,std::_Tree_node<std::pair<unsigned char const ,long>,void *> * const &>
PUBLIC	??$forward@ABQAU?$_Tree_node@U?$pair@$$CBEJ@std@@PAX@std@@@std@@YAABQAU?$_Tree_node@U?$pair@$$CBEJ@std@@PAX@0@ABQAU10@@Z ; std::forward<std::_Tree_node<std::pair<unsigned char const ,long>,void *> * const &>
PUBLIC	??$construct_at@UTSwitchbotAttributeAlternativeTable@CPythonSwitchbot@@AAU12@@std@@YAPAUTSwitchbotAttributeAlternativeTable@CPythonSwitchbot@@QAU12@AAU12@@Z ; std::construct_at<CPythonSwitchbot::TSwitchbotAttributeAlternativeTable,CPythonSwitchbot::TSwitchbotAttributeAlternativeTable &>
PUBLIC	??$destroy_at@U?$pair@$$CBEJ@std@@@std@@YAXQAU?$pair@$$CBEJ@0@@Z ; std::destroy_at<std::pair<unsigned char const ,long> >
PUBLIC	??$construct@UTPlayerItemAttribute@@U1@@?$_Default_allocator_traits@V?$allocator@UTPlayerItemAttribute@@@std@@@std@@SAXAAV?$allocator@UTPlayerItemAttribute@@@1@QAUTPlayerItemAttribute@@$$QAU3@@Z ; std::_Default_allocator_traits<std::allocator<TPlayerItemAttribute> >::construct<TPlayerItemAttribute,TPlayerItemAttribute>
PUBLIC	??$_Copy_memmove_tail@PAUTPlayerItemAttribute@@@std@@YAPAUTPlayerItemAttribute@@QBDQAU1@II@Z ; std::_Copy_memmove_tail<TPlayerItemAttribute *>
PUBLIC	??$move@AAPAUTPlayerItemAttribute@@@std@@YA$$QAPAUTPlayerItemAttribute@@AAPAU1@@Z ; std::move<TPlayerItemAttribute * &>
PUBLIC	??$to_address@UTPlayerItemAttribute@@@std@@YAPAUTPlayerItemAttribute@@QAU1@@Z ; std::to_address<TPlayerItemAttribute>
PUBLIC	??$construct_at@PAU?$_Tree_node@U?$pair@$$CBEV?$map@EJU?$less@E@std@@V?$allocator@U?$pair@$$CBEJ@std@@@2@@std@@@std@@PAX@std@@AAPAU12@@std@@YAPAPAU?$_Tree_node@U?$pair@$$CBEV?$map@EJU?$less@E@std@@V?$allocator@U?$pair@$$CBEJ@std@@@2@@std@@@std@@PAX@0@QAPAU10@AAPAU10@@Z ; std::construct_at<std::_Tree_node<std::pair<unsigned char const ,std::map<unsigned char,long,std::less<unsigned char>,std::allocator<std::pair<unsigned char const ,long> > > >,void *> *,std::_Tree_node<std::pair<unsigned char const ,std::map<unsigned char,long,std::less<unsigned char>,std::allocator<std::pair<unsigned char const ,long> > > >,void *> * &>
PUBLIC	??$addressof@PAU?$_Tree_node@U?$pair@$$CBEV?$map@EJU?$less@E@std@@V?$allocator@U?$pair@$$CBEJ@std@@@2@@std@@@std@@PAX@std@@@std@@YAPAPAU?$_Tree_node@U?$pair@$$CBEV?$map@EJU?$less@E@std@@V?$allocator@U?$pair@$$CBEJ@std@@@2@@std@@@std@@PAX@0@AAPAU10@@Z ; std::addressof<std::_Tree_node<std::pair<unsigned char const ,std::map<unsigned char,long,std::less<unsigned char>,std::allocator<std::pair<unsigned char const ,long> > > >,void *> *>
PUBLIC	??$construct_at@U?$pair@$$CBEV?$map@EJU?$less@E@std@@V?$allocator@U?$pair@$$CBEJ@std@@@2@@std@@@std@@U?$pair@EV?$map@EJU?$less@E@std@@V?$allocator@U?$pair@$$CBEJ@std@@@2@@std@@@2@@std@@YAPAU?$pair@$$CBEV?$map@EJU?$less@E@std@@V?$allocator@U?$pair@$$CBEJ@std@@@2@@std@@@0@QAU10@$$QAU?$pair@EV?$map@EJU?$less@E@std@@V?$allocator@U?$pair@$$CBEJ@std@@@2@@std@@@0@@Z ; std::construct_at<std::pair<unsigned char const ,std::map<unsigned char,long,std::less<unsigned char>,std::allocator<std::pair<unsigned char const ,long> > > >,std::pair<unsigned char,std::map<unsigned char,long,std::less<unsigned char>,std::allocator<std::pair<unsigned char const ,long> > > > >
PUBLIC	??$construct_at@PAU?$_Tree_node@U?$pair@$$CBEJ@std@@PAX@std@@AAPAU12@@std@@YAPAPAU?$_Tree_node@U?$pair@$$CBEJ@std@@PAX@0@QAPAU10@AAPAU10@@Z ; std::construct_at<std::_Tree_node<std::pair<unsigned char const ,long>,void *> *,std::_Tree_node<std::pair<unsigned char const ,long>,void *> * &>
PUBLIC	??$addressof@PAU?$_Tree_node@U?$pair@$$CBEJ@std@@PAX@std@@@std@@YAPAPAU?$_Tree_node@U?$pair@$$CBEJ@std@@PAX@0@AAPAU10@@Z ; std::addressof<std::_Tree_node<std::pair<unsigned char const ,long>,void *> *>
PUBLIC	??$construct_at@U?$pair@$$CBEJ@std@@U?$pair@HJ@2@@std@@YAPAU?$pair@$$CBEJ@0@QAU10@$$QAU?$pair@HJ@0@@Z ; std::construct_at<std::pair<unsigned char const ,long>,std::pair<int,long> >
PUBLIC	??$construct@UTSwitchbotAttributeAlternativeTable@CPythonSwitchbot@@U12@@?$_Default_allocator_traits@V?$allocator@UTSwitchbotAttributeAlternativeTable@CPythonSwitchbot@@@std@@@std@@SAXAAV?$allocator@UTSwitchbotAttributeAlternativeTable@CPythonSwitchbot@@@1@QAUTSwitchbotAttributeAlternativeTable@CPythonSwitchbot@@$$QAU34@@Z ; std::_Default_allocator_traits<std::allocator<CPythonSwitchbot::TSwitchbotAttributeAlternativeTable> >::construct<CPythonSwitchbot::TSwitchbotAttributeAlternativeTable,CPythonSwitchbot::TSwitchbotAttributeAlternativeTable>
PUBLIC	??$forward@UTSwitchbotAttributeAlternativeTable@CPythonSwitchbot@@@std@@YA$$QAUTSwitchbotAttributeAlternativeTable@CPythonSwitchbot@@AAU12@@Z ; std::forward<CPythonSwitchbot::TSwitchbotAttributeAlternativeTable>
PUBLIC	??$?0V?$allocator@U?$_Tree_node@U?$pair@$$CBEJ@std@@PAX@std@@@std@@$$V@?$_Compressed_pair@V?$allocator@U?$_Tree_node@U?$pair@$$CBEJ@std@@PAX@std@@@std@@V?$_Tree_val@U?$_Tree_simple_types@U?$pair@$$CBEJ@std@@@std@@@2@$00@std@@QAE@U_One_then_variadic_args_t@1@$$QAV?$allocator@U?$_Tree_node@U?$pair@$$CBEJ@std@@PAX@std@@@1@@Z ; std::_Compressed_pair<std::allocator<std::_Tree_node<std::pair<unsigned char const ,long>,void *> >,std::_Tree_val<std::_Tree_simple_types<std::pair<unsigned char const ,long> > >,1>::_Compressed_pair<std::allocator<std::_Tree_node<std::pair<unsigned char const ,long>,void *> >,std::_Tree_val<std::_Tree_simple_types<std::pair<unsigned char const ,long> > >,1><std::allocator<std::_Tree_node<std::pair<unsigned char const ,long>,void *> > >
PUBLIC	??_G?$pair@$$CBEV?$map@EJU?$less@E@std@@V?$allocator@U?$pair@$$CBEJ@std@@@2@@std@@@std@@QAEPAXI@Z ; std::pair<unsigned char const ,std::map<unsigned char,long,std::less<unsigned char>,std::allocator<std::pair<unsigned char const ,long> > > >::`scalar deleting destructor'
PUBLIC	?allocate@?$allocator@UTSwitchbotAttributeAlternativeTable@CPythonSwitchbot@@@std@@QAEPAUTSwitchbotAttributeAlternativeTable@CPythonSwitchbot@@I@Z ; std::allocator<CPythonSwitchbot::TSwitchbotAttributeAlternativeTable>::allocate
PUBLIC	?capacity@?$vector@UTSwitchbotAttributeAlternativeTable@CPythonSwitchbot@@V?$allocator@UTSwitchbotAttributeAlternativeTable@CPythonSwitchbot@@@std@@@std@@QBEIXZ ; std::vector<CPythonSwitchbot::TSwitchbotAttributeAlternativeTable,std::allocator<CPythonSwitchbot::TSwitchbotAttributeAlternativeTable> >::capacity
PUBLIC	?allocate@?$allocator@UTPlayerItemAttribute@@@std@@QAEPAUTPlayerItemAttribute@@I@Z ; std::allocator<TPlayerItemAttribute>::allocate
PUBLIC	?capacity@?$vector@UTPlayerItemAttribute@@V?$allocator@UTPlayerItemAttribute@@@std@@@std@@QBEIXZ ; std::vector<TPlayerItemAttribute,std::allocator<TPlayerItemAttribute> >::capacity
PUBLIC	?_Getal@?$vector@UTPlayerItemAttribute@@V?$allocator@UTPlayerItemAttribute@@@std@@@std@@ABEABV?$allocator@UTPlayerItemAttribute@@@2@XZ ; std::vector<TPlayerItemAttribute,std::allocator<TPlayerItemAttribute> >::_Getal
PUBLIC	?max_size@?$_Tree@V?$_Tmap_traits@EV?$map@EJU?$less@E@std@@V?$allocator@U?$pair@$$CBEJ@std@@@2@@std@@U?$less@E@2@V?$allocator@U?$pair@$$CBEV?$map@EJU?$less@E@std@@V?$allocator@U?$pair@$$CBEJ@std@@@2@@std@@@std@@@2@$0A@@std@@@std@@QBEIXZ ; std::_Tree<std::_Tmap_traits<unsigned char,std::map<unsigned char,long,std::less<unsigned char>,std::allocator<std::pair<unsigned char const ,long> > >,std::less<unsigned char>,std::allocator<std::pair<unsigned char const ,std::map<unsigned char,long,std::less<unsigned char>,std::allocator<std::pair<unsigned char const ,long> > > > >,0> >::max_size
PUBLIC	??0?$allocator@U?$_Tree_node@U?$pair@$$CBEV?$map@EJU?$less@E@std@@V?$allocator@U?$pair@$$CBEJ@std@@@2@@std@@@std@@PAX@std@@@std@@QAE@XZ ; std::allocator<std::_Tree_node<std::pair<unsigned char const ,std::map<unsigned char,long,std::less<unsigned char>,std::allocator<std::pair<unsigned char const ,long> > > >,void *> >::allocator<std::_Tree_node<std::pair<unsigned char const ,std::map<unsigned char,long,std::less<unsigned char>,std::allocator<std::pair<unsigned char const ,long> > > >,void *> >
PUBLIC	?deallocate@?$allocator@U?$_Tree_node@U?$pair@$$CBEV?$map@EJU?$less@E@std@@V?$allocator@U?$pair@$$CBEJ@std@@@2@@std@@@std@@PAX@std@@@std@@QAEXQAU?$_Tree_node@U?$pair@$$CBEV?$map@EJU?$less@E@std@@V?$allocator@U?$pair@$$CBEJ@std@@@2@@std@@@std@@PAX@2@I@Z ; std::allocator<std::_Tree_node<std::pair<unsigned char const ,std::map<unsigned char,long,std::less<unsigned char>,std::allocator<std::pair<unsigned char const ,long> > > >,void *> >::deallocate
PUBLIC	?allocate@?$allocator@U?$_Tree_node@U?$pair@$$CBEV?$map@EJU?$less@E@std@@V?$allocator@U?$pair@$$CBEJ@std@@@2@@std@@@std@@PAX@std@@@std@@QAEPAU?$_Tree_node@U?$pair@$$CBEV?$map@EJU?$less@E@std@@V?$allocator@U?$pair@$$CBEJ@std@@@2@@std@@@std@@PAX@2@I@Z ; std::allocator<std::_Tree_node<std::pair<unsigned char const ,std::map<unsigned char,long,std::less<unsigned char>,std::allocator<std::pair<unsigned char const ,long> > > >,void *> >::allocate
PUBLIC	??0?$_Tree_val@U?$_Tree_simple_types@U?$pair@$$CBEV?$map@EJU?$less@E@std@@V?$allocator@U?$pair@$$CBEJ@std@@@2@@std@@@std@@@std@@@std@@QAE@XZ ; std::_Tree_val<std::_Tree_simple_types<std::pair<unsigned char const ,std::map<unsigned char,long,std::less<unsigned char>,std::allocator<std::pair<unsigned char const ,long> > > > > >::_Tree_val<std::_Tree_simple_types<std::pair<unsigned char const ,std::map<unsigned char,long,std::less<unsigned char>,std::allocator<std::pair<unsigned char const ,long> > > > > >
PUBLIC	?_Lrotate@?$_Tree_val@U?$_Tree_simple_types@U?$pair@$$CBEV?$map@EJU?$less@E@std@@V?$allocator@U?$pair@$$CBEJ@std@@@2@@std@@@std@@@std@@@std@@QAEXPAU?$_Tree_node@U?$pair@$$CBEV?$map@EJU?$less@E@std@@V?$allocator@U?$pair@$$CBEJ@std@@@2@@std@@@std@@PAX@2@@Z ; std::_Tree_val<std::_Tree_simple_types<std::pair<unsigned char const ,std::map<unsigned char,long,std::less<unsigned char>,std::allocator<std::pair<unsigned char const ,long> > > > > >::_Lrotate
PUBLIC	?_Rrotate@?$_Tree_val@U?$_Tree_simple_types@U?$pair@$$CBEV?$map@EJU?$less@E@std@@V?$allocator@U?$pair@$$CBEJ@std@@@2@@std@@@std@@@std@@@std@@QAEXPAU?$_Tree_node@U?$pair@$$CBEV?$map@EJU?$less@E@std@@V?$allocator@U?$pair@$$CBEJ@std@@@2@@std@@@std@@PAX@2@@Z ; std::_Tree_val<std::_Tree_simple_types<std::pair<unsigned char const ,std::map<unsigned char,long,std::less<unsigned char>,std::allocator<std::pair<unsigned char const ,long> > > > > >::_Rrotate
PUBLIC	?_Get_first@?$_Compressed_pair@U?$less@E@std@@V?$_Compressed_pair@V?$allocator@U?$_Tree_node@U?$pair@$$CBEV?$map@EJU?$less@E@std@@V?$allocator@U?$pair@$$CBEJ@std@@@2@@std@@@std@@PAX@std@@@std@@V?$_Tree_val@U?$_Tree_simple_types@U?$pair@$$CBEV?$map@EJU?$less@E@std@@V?$allocator@U?$pair@$$CBEJ@std@@@2@@std@@@std@@@std@@@2@$00@2@$00@std@@QBEABU?$less@E@2@XZ ; std::_Compressed_pair<std::less<unsigned char>,std::_Compressed_pair<std::allocator<std::_Tree_node<std::pair<unsigned char const ,std::map<unsigned char,long,std::less<unsigned char>,std::allocator<std::pair<unsigned char const ,long> > > >,void *> >,std::_Tree_val<std::_Tree_simple_types<std::pair<unsigned char const ,std::map<unsigned char,long,std::less<unsigned char>,std::allocator<std::pair<unsigned char const ,long> > > > > >,1>,1>::_Get_first
PUBLIC	?max_size@?$_Default_allocator_traits@V?$allocator@UTSwitchbotAttributeAlternativeTable@CPythonSwitchbot@@@std@@@std@@SAIABV?$allocator@UTSwitchbotAttributeAlternativeTable@CPythonSwitchbot@@@2@@Z ; std::_Default_allocator_traits<std::allocator<CPythonSwitchbot::TSwitchbotAttributeAlternativeTable> >::max_size
PUBLIC	?max_size@?$_Tree@V?$_Tmap_traits@EJU?$less@E@std@@V?$allocator@U?$pair@$$CBEJ@std@@@2@$0A@@std@@@std@@QBEIXZ ; std::_Tree<std::_Tmap_traits<unsigned char,long,std::less<unsigned char>,std::allocator<std::pair<unsigned char const ,long> >,0> >::max_size
PUBLIC	?key_comp@?$_Tree@V?$_Tmap_traits@EJU?$less@E@std@@V?$allocator@U?$pair@$$CBEJ@std@@@2@$0A@@std@@@std@@QBE?AU?$less@E@2@XZ ; std::_Tree<std::_Tmap_traits<unsigned char,long,std::less<unsigned char>,std::allocator<std::pair<unsigned char const ,long> >,0> >::key_comp
PUBLIC	??0?$allocator@U?$_Tree_node@U?$pair@$$CBEJ@std@@PAX@std@@@std@@QAE@XZ ; std::allocator<std::_Tree_node<std::pair<unsigned char const ,long>,void *> >::allocator<std::_Tree_node<std::pair<unsigned char const ,long>,void *> >
PUBLIC	?deallocate@?$allocator@U?$_Tree_node@U?$pair@$$CBEJ@std@@PAX@std@@@std@@QAEXQAU?$_Tree_node@U?$pair@$$CBEJ@std@@PAX@2@I@Z ; std::allocator<std::_Tree_node<std::pair<unsigned char const ,long>,void *> >::deallocate
PUBLIC	?allocate@?$allocator@U?$_Tree_node@U?$pair@$$CBEJ@std@@PAX@std@@@std@@QAEPAU?$_Tree_node@U?$pair@$$CBEJ@std@@PAX@2@I@Z ; std::allocator<std::_Tree_node<std::pair<unsigned char const ,long>,void *> >::allocate
PUBLIC	??0?$_Tree_val@U?$_Tree_simple_types@U?$pair@$$CBEJ@std@@@std@@@std@@QAE@XZ ; std::_Tree_val<std::_Tree_simple_types<std::pair<unsigned char const ,long> > >::_Tree_val<std::_Tree_simple_types<std::pair<unsigned char const ,long> > >
PUBLIC	?_Lrotate@?$_Tree_val@U?$_Tree_simple_types@U?$pair@$$CBEJ@std@@@std@@@std@@QAEXPAU?$_Tree_node@U?$pair@$$CBEJ@std@@PAX@2@@Z ; std::_Tree_val<std::_Tree_simple_types<std::pair<unsigned char const ,long> > >::_Lrotate
PUBLIC	?_Rrotate@?$_Tree_val@U?$_Tree_simple_types@U?$pair@$$CBEJ@std@@@std@@@std@@QAEXPAU?$_Tree_node@U?$pair@$$CBEJ@std@@PAX@2@@Z ; std::_Tree_val<std::_Tree_simple_types<std::pair<unsigned char const ,long> > >::_Rrotate
PUBLIC	?_Get_first@?$_Compressed_pair@V?$allocator@U?$_Tree_node@U?$pair@$$CBEJ@std@@PAX@std@@@std@@V?$_Tree_val@U?$_Tree_simple_types@U?$pair@$$CBEJ@std@@@std@@@2@$00@std@@QBEABV?$allocator@U?$_Tree_node@U?$pair@$$CBEJ@std@@PAX@std@@@2@XZ ; std::_Compressed_pair<std::allocator<std::_Tree_node<std::pair<unsigned char const ,long>,void *> >,std::_Tree_val<std::_Tree_simple_types<std::pair<unsigned char const ,long> > >,1>::_Get_first
PUBLIC	?_Get_first@?$_Compressed_pair@U?$less@E@std@@V?$_Compressed_pair@V?$allocator@U?$_Tree_node@U?$pair@$$CBEJ@std@@PAX@std@@@std@@V?$_Tree_val@U?$_Tree_simple_types@U?$pair@$$CBEJ@std@@@std@@@2@$00@2@$00@std@@QBEABU?$less@E@2@XZ ; std::_Compressed_pair<std::less<unsigned char>,std::_Compressed_pair<std::allocator<std::_Tree_node<std::pair<unsigned char const ,long>,void *> >,std::_Tree_val<std::_Tree_simple_types<std::pair<unsigned char const ,long> > >,1>,1>::_Get_first
PUBLIC	?max_size@?$_Default_allocator_traits@V?$allocator@UTPlayerItemAttribute@@@std@@@std@@SAIABV?$allocator@UTPlayerItemAttribute@@@2@@Z ; std::_Default_allocator_traits<std::allocator<TPlayerItemAttribute> >::max_size
PUBLIC	??0?$_Tree_temp_node_alloc@V?$allocator@U?$_Tree_node@U?$pair@$$CBEJ@std@@PAX@std@@@std@@@std@@QAE@AAV?$allocator@U?$_Tree_node@U?$pair@$$CBEJ@std@@PAX@std@@@1@@Z ; std::_Tree_temp_node_alloc<std::allocator<std::_Tree_node<std::pair<unsigned char const ,long>,void *> > >::_Tree_temp_node_alloc<std::allocator<std::_Tree_node<std::pair<unsigned char const ,long>,void *> > >
PUBLIC	??1?$_Alloc_construct_ptr@V?$allocator@U?$_Tree_node@U?$pair@$$CBEJ@std@@PAX@std@@@std@@@std@@QAE@XZ ; std::_Alloc_construct_ptr<std::allocator<std::_Tree_node<std::pair<unsigned char const ,long>,void *> > >::~_Alloc_construct_ptr<std::allocator<std::_Tree_node<std::pair<unsigned char const ,long>,void *> > >
PUBLIC	??0?$_Tree_temp_node_alloc@V?$allocator@U?$_Tree_node@U?$pair@$$CBEV?$map@EJU?$less@E@std@@V?$allocator@U?$pair@$$CBEJ@std@@@2@@std@@@std@@PAX@std@@@std@@@std@@QAE@AAV?$allocator@U?$_Tree_node@U?$pair@$$CBEV?$map@EJU?$less@E@std@@V?$allocator@U?$pair@$$CBEJ@std@@@2@@std@@@std@@PAX@std@@@1@@Z ; std::_Tree_temp_node_alloc<std::allocator<std::_Tree_node<std::pair<unsigned char const ,std::map<unsigned char,long,std::less<unsigned char>,std::allocator<std::pair<unsigned char const ,long> > > >,void *> > >::_Tree_temp_node_alloc<std::allocator<std::_Tree_node<std::pair<unsigned char const ,std::map<unsigned char,long,std::less<unsigned char>,std::allocator<std::pair<unsigned char const ,long> > > >,void *> > >
PUBLIC	??1?$_Alloc_construct_ptr@V?$allocator@U?$_Tree_node@U?$pair@$$CBEV?$map@EJU?$less@E@std@@V?$allocator@U?$pair@$$CBEJ@std@@@2@@std@@@std@@PAX@std@@@std@@@std@@QAE@XZ ; std::_Alloc_construct_ptr<std::allocator<std::_Tree_node<std::pair<unsigned char const ,std::map<unsigned char,long,std::less<unsigned char>,std::allocator<std::pair<unsigned char const ,long> > > >,void *> > >::~_Alloc_construct_ptr<std::allocator<std::_Tree_node<std::pair<unsigned char const ,std::map<unsigned char,long,std::less<unsigned char>,std::allocator<std::pair<unsigned char const ,long> > > >,void *> > >
PUBLIC	??0?$_Uninitialized_backout_al@V?$allocator@UTPlayerItemAttribute@@@std@@@std@@QAE@PAUTPlayerItemAttribute@@AAV?$allocator@UTPlayerItemAttribute@@@1@@Z ; std::_Uninitialized_backout_al<std::allocator<TPlayerItemAttribute> >::_Uninitialized_backout_al<std::allocator<TPlayerItemAttribute> >
PUBLIC	??1?$_Uninitialized_backout_al@V?$allocator@UTPlayerItemAttribute@@@std@@@std@@QAE@XZ ; std::_Uninitialized_backout_al<std::allocator<TPlayerItemAttribute> >::~_Uninitialized_backout_al<std::allocator<TPlayerItemAttribute> >
PUBLIC	?_Release@?$_Uninitialized_backout_al@V?$allocator@UTPlayerItemAttribute@@@std@@@std@@QAEPAUTPlayerItemAttribute@@XZ ; std::_Uninitialized_backout_al<std::allocator<TPlayerItemAttribute> >::_Release
PUBLIC	??0?$_Tree_head_scoped_ptr@V?$allocator@U?$_Tree_node@U?$pair@$$CBEJ@std@@PAX@std@@@std@@V?$_Tree_val@U?$_Tree_simple_types@U?$pair@$$CBEJ@std@@@std@@@2@@std@@QAE@AAV?$allocator@U?$_Tree_node@U?$pair@$$CBEJ@std@@PAX@std@@@1@AAV?$_Tree_val@U?$_Tree_simple_types@U?$pair@$$CBEJ@std@@@std@@@1@@Z ; std::_Tree_head_scoped_ptr<std::allocator<std::_Tree_node<std::pair<unsigned char const ,long>,void *> >,std::_Tree_val<std::_Tree_simple_types<std::pair<unsigned char const ,long> > > >::_Tree_head_scoped_ptr<std::allocator<std::_Tree_node<std::pair<unsigned char const ,long>,void *> >,std::_Tree_val<std::_Tree_simple_types<std::pair<unsigned char const ,long> > > >
PUBLIC	?_Release@?$_Tree_head_scoped_ptr@V?$allocator@U?$_Tree_node@U?$pair@$$CBEJ@std@@PAX@std@@@std@@V?$_Tree_val@U?$_Tree_simple_types@U?$pair@$$CBEJ@std@@@std@@@2@@std@@QAEXXZ ; std::_Tree_head_scoped_ptr<std::allocator<std::_Tree_node<std::pair<unsigned char const ,long>,void *> >,std::_Tree_val<std::_Tree_simple_types<std::pair<unsigned char const ,long> > > >::_Release
PUBLIC	??1?$_Tree_head_scoped_ptr@V?$allocator@U?$_Tree_node@U?$pair@$$CBEJ@std@@PAX@std@@@std@@V?$_Tree_val@U?$_Tree_simple_types@U?$pair@$$CBEJ@std@@@std@@@2@@std@@QAE@XZ ; std::_Tree_head_scoped_ptr<std::allocator<std::_Tree_node<std::pair<unsigned char const ,long>,void *> >,std::_Tree_val<std::_Tree_simple_types<std::pair<unsigned char const ,long> > > >::~_Tree_head_scoped_ptr<std::allocator<std::_Tree_node<std::pair<unsigned char const ,long>,void *> >,std::_Tree_val<std::_Tree_simple_types<std::pair<unsigned char const ,long> > > >
PUBLIC	??$exchange@PAU?$_Tree_node@U?$pair@$$CBEJ@std@@PAX@std@@$$T@std@@YAPAU?$_Tree_node@U?$pair@$$CBEJ@std@@PAX@0@AAPAU10@$$QA$$T@Z ; std::exchange<std::_Tree_node<std::pair<unsigned char const ,long>,void *> *,std::nullptr_t>
PUBLIC	??$exchange@PAU?$_Tree_node@U?$pair@$$CBEV?$map@EJU?$less@E@std@@V?$allocator@U?$pair@$$CBEJ@std@@@2@@std@@@std@@PAX@std@@$$T@std@@YAPAU?$_Tree_node@U?$pair@$$CBEV?$map@EJU?$less@E@std@@V?$allocator@U?$pair@$$CBEJ@std@@@2@@std@@@std@@PAX@0@AAPAU10@$$QA$$T@Z ; std::exchange<std::_Tree_node<std::pair<unsigned char const ,std::map<unsigned char,long,std::less<unsigned char>,std::allocator<std::pair<unsigned char const ,long> > > >,void *> *,std::nullptr_t>
PUBLIC	??$_Copy@$0A@@?$_Tree@V?$_Tmap_traits@EJU?$less@E@std@@V?$allocator@U?$pair@$$CBEJ@std@@@2@$0A@@std@@@std@@IAEXABV01@@Z ; std::_Tree<std::_Tmap_traits<unsigned char,long,std::less<unsigned char>,std::allocator<std::pair<unsigned char const ,long> >,0> >::_Copy<0>
PUBLIC	??$?0U?$less@E@std@@U_One_then_variadic_args_t@1@V?$allocator@U?$_Tree_node@U?$pair@$$CBEJ@std@@PAX@std@@@1@@?$_Compressed_pair@U?$less@E@std@@V?$_Compressed_pair@V?$allocator@U?$_Tree_node@U?$pair@$$CBEJ@std@@PAX@std@@@std@@V?$_Tree_val@U?$_Tree_simple_types@U?$pair@$$CBEJ@std@@@std@@@2@$00@2@$00@std@@QAE@U_One_then_variadic_args_t@1@$$QAU?$less@E@1@$$QAU21@$$QAV?$allocator@U?$_Tree_node@U?$pair@$$CBEJ@std@@PAX@std@@@1@@Z ; std::_Compressed_pair<std::less<unsigned char>,std::_Compressed_pair<std::allocator<std::_Tree_node<std::pair<unsigned char const ,long>,void *> >,std::_Tree_val<std::_Tree_simple_types<std::pair<unsigned char const ,long> > >,1>,1>::_Compressed_pair<std::less<unsigned char>,std::_Compressed_pair<std::allocator<std::_Tree_node<std::pair<unsigned char const ,long>,void *> >,std::_Tree_val<std::_Tree_simple_types<std::pair<unsigned char const ,long> > >,1>,1><std::less<unsigned char>,std::_One_then_variadic_args_t,std::allocator<std::_Tree_node<std::pair<unsigned char const ,long>,void *> > >
PUBLIC	??$forward@V?$allocator@U?$_Tree_node@U?$pair@$$CBEJ@std@@PAX@std@@@std@@@std@@YA$$QAV?$allocator@U?$_Tree_node@U?$pair@$$CBEJ@std@@PAX@std@@@0@AAV10@@Z ; std::forward<std::allocator<std::_Tree_node<std::pair<unsigned char const ,long>,void *> > >
PUBLIC	??$_Construct_in_place@PAU?$_Tree_node@U?$pair@$$CBEV?$map@EJU?$less@E@std@@V?$allocator@U?$pair@$$CBEJ@std@@@2@@std@@@std@@PAX@std@@ABQAU12@@std@@YAXAAPAU?$_Tree_node@U?$pair@$$CBEV?$map@EJU?$less@E@std@@V?$allocator@U?$pair@$$CBEJ@std@@@2@@std@@@std@@PAX@0@ABQAU10@@Z ; std::_Construct_in_place<std::_Tree_node<std::pair<unsigned char const ,std::map<unsigned char,long,std::less<unsigned char>,std::allocator<std::pair<unsigned char const ,long> > > >,void *> *,std::_Tree_node<std::pair<unsigned char const ,std::map<unsigned char,long,std::less<unsigned char>,std::allocator<std::pair<unsigned char const ,long> > > >,void *> * const &>
PUBLIC	??$_Construct_in_place@PAU?$_Tree_node@U?$pair@$$CBEJ@std@@PAX@std@@ABQAU12@@std@@YAXAAPAU?$_Tree_node@U?$pair@$$CBEJ@std@@PAX@0@ABQAU10@@Z ; std::_Construct_in_place<std::_Tree_node<std::pair<unsigned char const ,long>,void *> *,std::_Tree_node<std::pair<unsigned char const ,long>,void *> * const &>
PUBLIC	??$construct@UTSwitchbotAttributeAlternativeTable@CPythonSwitchbot@@AAU12@@?$_Default_allocator_traits@V?$allocator@UTSwitchbotAttributeAlternativeTable@CPythonSwitchbot@@@std@@@std@@SAXAAV?$allocator@UTSwitchbotAttributeAlternativeTable@CPythonSwitchbot@@@1@QAUTSwitchbotAttributeAlternativeTable@CPythonSwitchbot@@AAU34@@Z ; std::_Default_allocator_traits<std::allocator<CPythonSwitchbot::TSwitchbotAttributeAlternativeTable> >::construct<CPythonSwitchbot::TSwitchbotAttributeAlternativeTable,CPythonSwitchbot::TSwitchbotAttributeAlternativeTable &>
PUBLIC	??$forward@AAUTSwitchbotAttributeAlternativeTable@CPythonSwitchbot@@@std@@YAAAUTSwitchbotAttributeAlternativeTable@CPythonSwitchbot@@AAU12@@Z ; std::forward<CPythonSwitchbot::TSwitchbotAttributeAlternativeTable &>
PUBLIC	??$_Copy_memmove_tail@PAUTSwitchbotAttributeAlternativeTable@CPythonSwitchbot@@@std@@YAPAUTSwitchbotAttributeAlternativeTable@CPythonSwitchbot@@QBDQAU12@II@Z ; std::_Copy_memmove_tail<CPythonSwitchbot::TSwitchbotAttributeAlternativeTable *>
PUBLIC	??1?$pair@$$CBEV?$map@EJU?$less@E@std@@V?$allocator@U?$pair@$$CBEJ@std@@@2@@std@@@std@@QAE@XZ ; std::pair<unsigned char const ,std::map<unsigned char,long,std::less<unsigned char>,std::allocator<std::pair<unsigned char const ,long> > > >::~pair<unsigned char const ,std::map<unsigned char,long,std::less<unsigned char>,std::allocator<std::pair<unsigned char const ,long> > > >
PUBLIC	??$destroy_at@U?$pair@$$CBEV?$map@EJU?$less@E@std@@V?$allocator@U?$pair@$$CBEJ@std@@@2@@std@@@std@@@std@@YAXQAU?$pair@$$CBEV?$map@EJU?$less@E@std@@V?$allocator@U?$pair@$$CBEJ@std@@@2@@std@@@0@@Z ; std::destroy_at<std::pair<unsigned char const ,std::map<unsigned char,long,std::less<unsigned char>,std::allocator<std::pair<unsigned char const ,long> > > > >
PUBLIC	??$destroy@U?$pair@$$CBEJ@std@@@?$_Default_allocator_traits@V?$allocator@U?$_Tree_node@U?$pair@$$CBEJ@std@@PAX@std@@@std@@@std@@SAXAAV?$allocator@U?$_Tree_node@U?$pair@$$CBEJ@std@@PAX@std@@@1@QAU?$pair@$$CBEJ@1@@Z ; std::_Default_allocator_traits<std::allocator<std::_Tree_node<std::pair<unsigned char const ,long>,void *> > >::destroy<std::pair<unsigned char const ,long> >
PUBLIC	??$forward@AAPAUTPlayerItemAttribute@@@std@@YAAAPAUTPlayerItemAttribute@@AAPAU1@@Z ; std::forward<TPlayerItemAttribute * &>
PUBLIC	??$forward@UTPlayerItemAttribute@@@std@@YA$$QAUTPlayerItemAttribute@@AAU1@@Z ; std::forward<TPlayerItemAttribute>
PUBLIC	??$_Copy_backward_memmove@PAUTPlayerItemAttribute@@PAU1@@std@@YAPAUTPlayerItemAttribute@@PAU1@00@Z ; std::_Copy_backward_memmove<TPlayerItemAttribute *,TPlayerItemAttribute *>
PUBLIC	??$_Emplace_back@UTPlayerItemAttribute@@@?$_Uninitialized_backout_al@V?$allocator@UTPlayerItemAttribute@@@std@@@std@@QAEX$$QAUTPlayerItemAttribute@@@Z ; std::_Uninitialized_backout_al<std::allocator<TPlayerItemAttribute> >::_Emplace_back<TPlayerItemAttribute>
PUBLIC	??$_To_address@PAUTPlayerItemAttribute@@@std@@YA?A_PABQAUTPlayerItemAttribute@@@Z ; std::_To_address<TPlayerItemAttribute *>
PUBLIC	??$_Copy_memmove@PAUTPlayerItemAttribute@@PAU1@@std@@YAPAUTPlayerItemAttribute@@PAU1@00@Z ; std::_Copy_memmove<TPlayerItemAttribute *,TPlayerItemAttribute *>
PUBLIC	??$construct_at@UTPlayerItemAttribute@@AAU1@@std@@YAPAUTPlayerItemAttribute@@QAU1@AAU1@@Z ; std::construct_at<TPlayerItemAttribute,TPlayerItemAttribute &>
PUBLIC	??$addressof@UTPlayerItemAttribute@@@std@@YAPAUTPlayerItemAttribute@@AAU1@@Z ; std::addressof<TPlayerItemAttribute>
PUBLIC	??$forward@PAU?$_Tree_node@U?$pair@$$CBEV?$map@EJU?$less@E@std@@V?$allocator@U?$pair@$$CBEJ@std@@@2@@std@@@std@@PAX@std@@@std@@YA$$QAPAU?$_Tree_node@U?$pair@$$CBEV?$map@EJU?$less@E@std@@V?$allocator@U?$pair@$$CBEJ@std@@@2@@std@@@std@@PAX@0@AAPAU10@@Z ; std::forward<std::_Tree_node<std::pair<unsigned char const ,std::map<unsigned char,long,std::less<unsigned char>,std::allocator<std::pair<unsigned char const ,long> > > >,void *> *>
PUBLIC	??$forward@AAPAU?$_Tree_node@U?$pair@$$CBEV?$map@EJU?$less@E@std@@V?$allocator@U?$pair@$$CBEJ@std@@@2@@std@@@std@@PAX@std@@@std@@YAAAPAU?$_Tree_node@U?$pair@$$CBEV?$map@EJU?$less@E@std@@V?$allocator@U?$pair@$$CBEJ@std@@@2@@std@@@std@@PAX@0@AAPAU10@@Z ; std::forward<std::_Tree_node<std::pair<unsigned char const ,std::map<unsigned char,long,std::less<unsigned char>,std::allocator<std::pair<unsigned char const ,long> > > >,void *> * &>
PUBLIC	??$_Construct_in_place@PAU?$_Tree_node@U?$pair@$$CBEV?$map@EJU?$less@E@std@@V?$allocator@U?$pair@$$CBEJ@std@@@2@@std@@@std@@PAX@std@@AAPAU12@@std@@YAXAAPAU?$_Tree_node@U?$pair@$$CBEV?$map@EJU?$less@E@std@@V?$allocator@U?$pair@$$CBEJ@std@@@2@@std@@@std@@PAX@0@0@Z ; std::_Construct_in_place<std::_Tree_node<std::pair<unsigned char const ,std::map<unsigned char,long,std::less<unsigned char>,std::allocator<std::pair<unsigned char const ,long> > > >,void *> *,std::_Tree_node<std::pair<unsigned char const ,std::map<unsigned char,long,std::less<unsigned char>,std::allocator<std::pair<unsigned char const ,long> > > >,void *> * &>
PUBLIC	??$construct@U?$pair@$$CBEV?$map@EJU?$less@E@std@@V?$allocator@U?$pair@$$CBEJ@std@@@2@@std@@@std@@U?$pair@EV?$map@EJU?$less@E@std@@V?$allocator@U?$pair@$$CBEJ@std@@@2@@std@@@2@@?$_Default_allocator_traits@V?$allocator@U?$_Tree_node@U?$pair@$$CBEV?$map@EJU?$less@E@std@@V?$allocator@U?$pair@$$CBEJ@std@@@2@@std@@@std@@PAX@std@@@std@@@std@@SAXAAV?$allocator@U?$_Tree_node@U?$pair@$$CBEV?$map@EJU?$less@E@std@@V?$allocator@U?$pair@$$CBEJ@std@@@2@@std@@@std@@PAX@std@@@1@QAU?$pair@$$CBEV?$map@EJU?$less@E@std@@V?$allocator@U?$pair@$$CBEJ@std@@@2@@std@@@1@$$QAU?$pair@EV?$map@EJU?$less@E@std@@V?$allocator@U?$pair@$$CBEJ@std@@@2@@std@@@1@@Z ; std::_Default_allocator_traits<std::allocator<std::_Tree_node<std::pair<unsigned char const ,std::map<unsigned char,long,std::less<unsigned char>,std::allocator<std::pair<unsigned char const ,long> > > >,void *> > >::construct<std::pair<unsigned char const ,std::map<unsigned char,long,std::less<unsigned char>,std::allocator<std::pair<unsigned char const ,long> > > >,std::pair<unsigned char,std::map<unsigned char,long,std::less<unsigned char>,std::allocator<std::pair<unsigned char const ,long> > > > >
PUBLIC	??$forward@PAU?$_Tree_node@U?$pair@$$CBEJ@std@@PAX@std@@@std@@YA$$QAPAU?$_Tree_node@U?$pair@$$CBEJ@std@@PAX@0@AAPAU10@@Z ; std::forward<std::_Tree_node<std::pair<unsigned char const ,long>,void *> *>
PUBLIC	??$forward@AAPAU?$_Tree_node@U?$pair@$$CBEJ@std@@PAX@std@@@std@@YAAAPAU?$_Tree_node@U?$pair@$$CBEJ@std@@PAX@0@AAPAU10@@Z ; std::forward<std::_Tree_node<std::pair<unsigned char const ,long>,void *> * &>
PUBLIC	??$_Construct_in_place@PAU?$_Tree_node@U?$pair@$$CBEJ@std@@PAX@std@@AAPAU12@@std@@YAXAAPAU?$_Tree_node@U?$pair@$$CBEJ@std@@PAX@0@0@Z ; std::_Construct_in_place<std::_Tree_node<std::pair<unsigned char const ,long>,void *> *,std::_Tree_node<std::pair<unsigned char const ,long>,void *> * &>
PUBLIC	??$construct@U?$pair@$$CBEJ@std@@U?$pair@HJ@2@@?$_Default_allocator_traits@V?$allocator@U?$_Tree_node@U?$pair@$$CBEJ@std@@PAX@std@@@std@@@std@@SAXAAV?$allocator@U?$_Tree_node@U?$pair@$$CBEJ@std@@PAX@std@@@1@QAU?$pair@$$CBEJ@1@$$QAU?$pair@HJ@1@@Z ; std::_Default_allocator_traits<std::allocator<std::_Tree_node<std::pair<unsigned char const ,long>,void *> > >::construct<std::pair<unsigned char const ,long>,std::pair<int,long> >
PUBLIC	??$_Emplace_back@UTSwitchbotAttributeAlternativeTable@CPythonSwitchbot@@@?$_Uninitialized_backout_al@V?$allocator@UTSwitchbotAttributeAlternativeTable@CPythonSwitchbot@@@std@@@std@@QAEX$$QAUTSwitchbotAttributeAlternativeTable@CPythonSwitchbot@@@Z ; std::_Uninitialized_backout_al<std::allocator<CPythonSwitchbot::TSwitchbotAttributeAlternativeTable> >::_Emplace_back<CPythonSwitchbot::TSwitchbotAttributeAlternativeTable>
PUBLIC	??$move@AAUTSwitchbotAttributeAlternativeTable@CPythonSwitchbot@@@std@@YA$$QAUTSwitchbotAttributeAlternativeTable@CPythonSwitchbot@@AAU12@@Z ; std::move<CPythonSwitchbot::TSwitchbotAttributeAlternativeTable &>
PUBLIC	??$construct_at@UTSwitchbotAttributeAlternativeTable@CPythonSwitchbot@@ABU12@@std@@YAPAUTSwitchbotAttributeAlternativeTable@CPythonSwitchbot@@QAU12@ABU12@@Z ; std::construct_at<CPythonSwitchbot::TSwitchbotAttributeAlternativeTable,CPythonSwitchbot::TSwitchbotAttributeAlternativeTable const &>
PUBLIC	??$addressof@UTSwitchbotAttributeAlternativeTable@CPythonSwitchbot@@@std@@YAPAUTSwitchbotAttributeAlternativeTable@CPythonSwitchbot@@AAU12@@Z ; std::addressof<CPythonSwitchbot::TSwitchbotAttributeAlternativeTable>
PUBLIC	??1?$_Tree_temp_node_alloc@V?$allocator@U?$_Tree_node@U?$pair@$$CBEV?$map@EJU?$less@E@std@@V?$allocator@U?$pair@$$CBEJ@std@@@2@@std@@@std@@PAX@std@@@std@@@std@@QAE@XZ ; std::_Tree_temp_node_alloc<std::allocator<std::_Tree_node<std::pair<unsigned char const ,std::map<unsigned char,long,std::less<unsigned char>,std::allocator<std::pair<unsigned char const ,long> > > >,void *> > >::~_Tree_temp_node_alloc<std::allocator<std::_Tree_node<std::pair<unsigned char const ,std::map<unsigned char,long,std::less<unsigned char>,std::allocator<std::pair<unsigned char const ,long> > > >,void *> > >
PUBLIC	??1?$_Tree_temp_node_alloc@V?$allocator@U?$_Tree_node@U?$pair@$$CBEJ@std@@PAX@std@@@std@@@std@@QAE@XZ ; std::_Tree_temp_node_alloc<std::allocator<std::_Tree_node<std::pair<unsigned char const ,long>,void *> > >::~_Tree_temp_node_alloc<std::allocator<std::_Tree_node<std::pair<unsigned char const ,long>,void *> > >
PUBLIC	?max_size@?$vector@UTSwitchbotAttributeAlternativeTable@CPythonSwitchbot@@V?$allocator@UTSwitchbotAttributeAlternativeTable@CPythonSwitchbot@@@std@@@std@@QBEIXZ ; std::vector<CPythonSwitchbot::TSwitchbotAttributeAlternativeTable,std::allocator<CPythonSwitchbot::TSwitchbotAttributeAlternativeTable> >::max_size
PUBLIC	?_Calculate_growth@?$vector@UTSwitchbotAttributeAlternativeTable@CPythonSwitchbot@@V?$allocator@UTSwitchbotAttributeAlternativeTable@CPythonSwitchbot@@@std@@@std@@ABEII@Z ; std::vector<CPythonSwitchbot::TSwitchbotAttributeAlternativeTable,std::allocator<CPythonSwitchbot::TSwitchbotAttributeAlternativeTable> >::_Calculate_growth
PUBLIC	?_Buy_raw@?$vector@UTSwitchbotAttributeAlternativeTable@CPythonSwitchbot@@V?$allocator@UTSwitchbotAttributeAlternativeTable@CPythonSwitchbot@@@std@@@std@@AAEXI@Z ; std::vector<CPythonSwitchbot::TSwitchbotAttributeAlternativeTable,std::allocator<CPythonSwitchbot::TSwitchbotAttributeAlternativeTable> >::_Buy_raw
PUBLIC	?_Change_array@?$vector@UTSwitchbotAttributeAlternativeTable@CPythonSwitchbot@@V?$allocator@UTSwitchbotAttributeAlternativeTable@CPythonSwitchbot@@@std@@@std@@AAEXQAUTSwitchbotAttributeAlternativeTable@CPythonSwitchbot@@II@Z ; std::vector<CPythonSwitchbot::TSwitchbotAttributeAlternativeTable,std::allocator<CPythonSwitchbot::TSwitchbotAttributeAlternativeTable> >::_Change_array
PUBLIC	?_Xlength@?$vector@UTSwitchbotAttributeAlternativeTable@CPythonSwitchbot@@V?$allocator@UTSwitchbotAttributeAlternativeTable@CPythonSwitchbot@@@std@@@std@@CAXXZ ; std::vector<CPythonSwitchbot::TSwitchbotAttributeAlternativeTable,std::allocator<CPythonSwitchbot::TSwitchbotAttributeAlternativeTable> >::_Xlength
PUBLIC	?_Orphan_range@?$vector@UTSwitchbotAttributeAlternativeTable@CPythonSwitchbot@@V?$allocator@UTSwitchbotAttributeAlternativeTable@CPythonSwitchbot@@@std@@@std@@ABEXPAUTSwitchbotAttributeAlternativeTable@CPythonSwitchbot@@0@Z ; std::vector<CPythonSwitchbot::TSwitchbotAttributeAlternativeTable,std::allocator<CPythonSwitchbot::TSwitchbotAttributeAlternativeTable> >::_Orphan_range
PUBLIC	?max_size@?$vector@UTPlayerItemAttribute@@V?$allocator@UTPlayerItemAttribute@@@std@@@std@@QBEIXZ ; std::vector<TPlayerItemAttribute,std::allocator<TPlayerItemAttribute> >::max_size
PUBLIC	?_Calculate_growth@?$vector@UTPlayerItemAttribute@@V?$allocator@UTPlayerItemAttribute@@@std@@@std@@ABEII@Z ; std::vector<TPlayerItemAttribute,std::allocator<TPlayerItemAttribute> >::_Calculate_growth
PUBLIC	?_Change_array@?$vector@UTPlayerItemAttribute@@V?$allocator@UTPlayerItemAttribute@@@std@@@std@@AAEXQAUTPlayerItemAttribute@@II@Z ; std::vector<TPlayerItemAttribute,std::allocator<TPlayerItemAttribute> >::_Change_array
PUBLIC	?_Xlength@?$vector@UTPlayerItemAttribute@@V?$allocator@UTPlayerItemAttribute@@@std@@@std@@CAXXZ ; std::vector<TPlayerItemAttribute,std::allocator<TPlayerItemAttribute> >::_Xlength
PUBLIC	?_Orphan_range@?$vector@UTPlayerItemAttribute@@V?$allocator@UTPlayerItemAttribute@@@std@@@std@@ABEXPAUTPlayerItemAttribute@@0@Z ; std::vector<TPlayerItemAttribute,std::allocator<TPlayerItemAttribute> >::_Orphan_range
PUBLIC	?_Check_grow_by_1@?$_Tree@V?$_Tmap_traits@EV?$map@EJU?$less@E@std@@V?$allocator@U?$pair@$$CBEJ@std@@@2@@std@@U?$less@E@2@V?$allocator@U?$pair@$$CBEV?$map@EJU?$less@E@std@@V?$allocator@U?$pair@$$CBEJ@std@@@2@@std@@@std@@@2@$0A@@std@@@std@@IAEXXZ ; std::_Tree<std::_Tmap_traits<unsigned char,std::map<unsigned char,long,std::less<unsigned char>,std::allocator<std::pair<unsigned char const ,long> > >,std::less<unsigned char>,std::allocator<std::pair<unsigned char const ,std::map<unsigned char,long,std::less<unsigned char>,std::allocator<std::pair<unsigned char const ,long> > > > >,0> >::_Check_grow_by_1
PUBLIC	?_Getcomp@?$_Tree@V?$_Tmap_traits@EV?$map@EJU?$less@E@std@@V?$allocator@U?$pair@$$CBEJ@std@@@2@@std@@U?$less@E@2@V?$allocator@U?$pair@$$CBEV?$map@EJU?$less@E@std@@V?$allocator@U?$pair@$$CBEJ@std@@@2@@std@@@std@@@2@$0A@@std@@@std@@IBEABU?$less@E@2@XZ ; std::_Tree<std::_Tmap_traits<unsigned char,std::map<unsigned char,long,std::less<unsigned char>,std::allocator<std::pair<unsigned char const ,long> > >,std::less<unsigned char>,std::allocator<std::pair<unsigned char const ,std::map<unsigned char,long,std::less<unsigned char>,std::allocator<std::pair<unsigned char const ,long> > > > >,0> >::_Getcomp
PUBLIC	?deallocate@?$_Default_allocator_traits@V?$allocator@U?$_Tree_node@U?$pair@$$CBEV?$map@EJU?$less@E@std@@V?$allocator@U?$pair@$$CBEJ@std@@@2@@std@@@std@@PAX@std@@@std@@@std@@SAXAAV?$allocator@U?$_Tree_node@U?$pair@$$CBEV?$map@EJU?$less@E@std@@V?$allocator@U?$pair@$$CBEJ@std@@@2@@std@@@std@@PAX@std@@@2@QAU?$_Tree_node@U?$pair@$$CBEV?$map@EJU?$less@E@std@@V?$allocator@U?$pair@$$CBEJ@std@@@2@@std@@@std@@PAX@2@I@Z ; std::_Default_allocator_traits<std::allocator<std::_Tree_node<std::pair<unsigned char const ,std::map<unsigned char,long,std::less<unsigned char>,std::allocator<std::pair<unsigned char const ,long> > > >,void *> > >::deallocate
PUBLIC	?_Insert_node@?$_Tree_val@U?$_Tree_simple_types@U?$pair@$$CBEV?$map@EJU?$less@E@std@@V?$allocator@U?$pair@$$CBEJ@std@@@2@@std@@@std@@@std@@@std@@QAEPAU?$_Tree_node@U?$pair@$$CBEV?$map@EJU?$less@E@std@@V?$allocator@U?$pair@$$CBEJ@std@@@2@@std@@@std@@PAX@2@U?$_Tree_id@PAU?$_Tree_node@U?$pair@$$CBEV?$map@EJU?$less@E@std@@V?$allocator@U?$pair@$$CBEJ@std@@@2@@std@@@std@@PAX@std@@@2@QAU32@@Z ; std::_Tree_val<std::_Tree_simple_types<std::pair<unsigned char const ,std::map<unsigned char,long,std::less<unsigned char>,std::allocator<std::pair<unsigned char const ,long> > > > > >::_Insert_node
PUBLIC	??1_Reallocation_guard@?$vector@UTSwitchbotAttributeAlternativeTable@CPythonSwitchbot@@V?$allocator@UTSwitchbotAttributeAlternativeTable@CPythonSwitchbot@@@std@@@std@@QAE@XZ ; std::vector<CPythonSwitchbot::TSwitchbotAttributeAlternativeTable,std::allocator<CPythonSwitchbot::TSwitchbotAttributeAlternativeTable> >::_Reallocation_guard::~_Reallocation_guard
PUBLIC	?_Check_grow_by_1@?$_Tree@V?$_Tmap_traits@EJU?$less@E@std@@V?$allocator@U?$pair@$$CBEJ@std@@@2@$0A@@std@@@std@@IAEXXZ ; std::_Tree<std::_Tmap_traits<unsigned char,long,std::less<unsigned char>,std::allocator<std::pair<unsigned char const ,long> >,0> >::_Check_grow_by_1
PUBLIC	?_Getcomp@?$_Tree@V?$_Tmap_traits@EJU?$less@E@std@@V?$allocator@U?$pair@$$CBEJ@std@@@2@$0A@@std@@@std@@IBEABU?$less@E@2@XZ ; std::_Tree<std::_Tmap_traits<unsigned char,long,std::less<unsigned char>,std::allocator<std::pair<unsigned char const ,long> >,0> >::_Getcomp
PUBLIC	?_Getal@?$_Tree@V?$_Tmap_traits@EJU?$less@E@std@@V?$allocator@U?$pair@$$CBEJ@std@@@2@$0A@@std@@@std@@IBEABV?$allocator@U?$_Tree_node@U?$pair@$$CBEJ@std@@PAX@std@@@2@XZ ; std::_Tree<std::_Tmap_traits<unsigned char,long,std::less<unsigned char>,std::allocator<std::pair<unsigned char const ,long> >,0> >::_Getal
PUBLIC	?deallocate@?$_Default_allocator_traits@V?$allocator@U?$_Tree_node@U?$pair@$$CBEJ@std@@PAX@std@@@std@@@std@@SAXAAV?$allocator@U?$_Tree_node@U?$pair@$$CBEJ@std@@PAX@std@@@2@QAU?$_Tree_node@U?$pair@$$CBEJ@std@@PAX@2@I@Z ; std::_Default_allocator_traits<std::allocator<std::_Tree_node<std::pair<unsigned char const ,long>,void *> > >::deallocate
PUBLIC	?select_on_container_copy_construction@?$_Default_allocator_traits@V?$allocator@U?$_Tree_node@U?$pair@$$CBEJ@std@@PAX@std@@@std@@@std@@SA?AV?$allocator@U?$_Tree_node@U?$pair@$$CBEJ@std@@PAX@std@@@2@ABV32@@Z ; std::_Default_allocator_traits<std::allocator<std::_Tree_node<std::pair<unsigned char const ,long>,void *> > >::select_on_container_copy_construction
PUBLIC	?_Insert_node@?$_Tree_val@U?$_Tree_simple_types@U?$pair@$$CBEJ@std@@@std@@@std@@QAEPAU?$_Tree_node@U?$pair@$$CBEJ@std@@PAX@2@U?$_Tree_id@PAU?$_Tree_node@U?$pair@$$CBEJ@std@@PAX@std@@@2@QAU32@@Z ; std::_Tree_val<std::_Tree_simple_types<std::pair<unsigned char const ,long> > >::_Insert_node
PUBLIC	??1_Reallocation_guard@?$vector@UTPlayerItemAttribute@@V?$allocator@UTPlayerItemAttribute@@@std@@@std@@QAE@XZ ; std::vector<TPlayerItemAttribute,std::allocator<TPlayerItemAttribute> >::_Reallocation_guard::~_Reallocation_guard
PUBLIC	?_Get_first@?$_Compressed_pair@V?$allocator@UTPlayerItemAttribute@@@std@@V?$_Vector_val@U?$_Simple_types@UTPlayerItemAttribute@@@std@@@2@$00@std@@QAEAAV?$allocator@UTPlayerItemAttribute@@@2@XZ ; std::_Compressed_pair<std::allocator<TPlayerItemAttribute>,std::_Vector_val<std::_Simple_types<TPlayerItemAttribute> >,1>::_Get_first
PUBLIC	??1?$_Tree_temp_node@V?$allocator@U?$_Tree_node@U?$pair@$$CBEJ@std@@PAX@std@@@std@@@std@@QAE@XZ ; std::_Tree_temp_node<std::allocator<std::_Tree_node<std::pair<unsigned char const ,long>,void *> > >::~_Tree_temp_node<std::allocator<std::_Tree_node<std::pair<unsigned char const ,long>,void *> > >
PUBLIC	?_Release@?$_Alloc_construct_ptr@V?$allocator@U?$_Tree_node@U?$pair@$$CBEJ@std@@PAX@std@@@std@@@std@@QAEPAU?$_Tree_node@U?$pair@$$CBEJ@std@@PAX@2@XZ ; std::_Alloc_construct_ptr<std::allocator<std::_Tree_node<std::pair<unsigned char const ,long>,void *> > >::_Release
PUBLIC	?_Extract@?$_In_place_key_extract_map_impl@EU?$pair@EV?$map@EJU?$less@E@std@@V?$allocator@U?$pair@$$CBEJ@std@@@2@@std@@@std@@@std@@SAABEABU?$pair@EV?$map@EJU?$less@E@std@@V?$allocator@U?$pair@$$CBEJ@std@@@2@@std@@@2@@Z ; std::_In_place_key_extract_map_impl<unsigned char,std::pair<unsigned char,std::map<unsigned char,long,std::less<unsigned char>,std::allocator<std::pair<unsigned char const ,long> > > > >::_Extract
PUBLIC	??1?$_Tree_temp_node@V?$allocator@U?$_Tree_node@U?$pair@$$CBEV?$map@EJU?$less@E@std@@V?$allocator@U?$pair@$$CBEJ@std@@@2@@std@@@std@@PAX@std@@@std@@@std@@QAE@XZ ; std::_Tree_temp_node<std::allocator<std::_Tree_node<std::pair<unsigned char const ,std::map<unsigned char,long,std::less<unsigned char>,std::allocator<std::pair<unsigned char const ,long> > > >,void *> > >::~_Tree_temp_node<std::allocator<std::_Tree_node<std::pair<unsigned char const ,std::map<unsigned char,long,std::less<unsigned char>,std::allocator<std::pair<unsigned char const ,long> > > >,void *> > >
PUBLIC	?_Release@?$_Alloc_construct_ptr@V?$allocator@U?$_Tree_node@U?$pair@$$CBEV?$map@EJU?$less@E@std@@V?$allocator@U?$pair@$$CBEJ@std@@@2@@std@@@std@@PAX@std@@@std@@@std@@QAEPAU?$_Tree_node@U?$pair@$$CBEV?$map@EJU?$less@E@std@@V?$allocator@U?$pair@$$CBEJ@std@@@2@@std@@@std@@PAX@2@XZ ; std::_Alloc_construct_ptr<std::allocator<std::_Tree_node<std::pair<unsigned char const ,std::map<unsigned char,long,std::less<unsigned char>,std::allocator<std::pair<unsigned char const ,long> > > >,void *> > >::_Release
PUBLIC	??0?$_Uninitialized_backout_al@V?$allocator@UTSwitchbotAttributeAlternativeTable@CPythonSwitchbot@@@std@@@std@@QAE@PAUTSwitchbotAttributeAlternativeTable@CPythonSwitchbot@@AAV?$allocator@UTSwitchbotAttributeAlternativeTable@CPythonSwitchbot@@@1@@Z ; std::_Uninitialized_backout_al<std::allocator<CPythonSwitchbot::TSwitchbotAttributeAlternativeTable> >::_Uninitialized_backout_al<std::allocator<CPythonSwitchbot::TSwitchbotAttributeAlternativeTable> >
PUBLIC	??1?$_Uninitialized_backout_al@V?$allocator@UTSwitchbotAttributeAlternativeTable@CPythonSwitchbot@@@std@@@std@@QAE@XZ ; std::_Uninitialized_backout_al<std::allocator<CPythonSwitchbot::TSwitchbotAttributeAlternativeTable> >::~_Uninitialized_backout_al<std::allocator<CPythonSwitchbot::TSwitchbotAttributeAlternativeTable> >
PUBLIC	?_Release@?$_Uninitialized_backout_al@V?$allocator@UTSwitchbotAttributeAlternativeTable@CPythonSwitchbot@@@std@@@std@@QAEPAUTSwitchbotAttributeAlternativeTable@CPythonSwitchbot@@XZ ; std::_Uninitialized_backout_al<std::allocator<CPythonSwitchbot::TSwitchbotAttributeAlternativeTable> >::_Release
PUBLIC	??$?0V?$allocator@U?$_Tree_node@U?$pair@$$CBEJ@std@@PAX@std@@@std@@@?$_Tree@V?$_Tmap_traits@EJU?$less@E@std@@V?$allocator@U?$pair@$$CBEJ@std@@@2@$0A@@std@@@std@@QAE@ABV01@$$QAV?$allocator@U?$_Tree_node@U?$pair@$$CBEJ@std@@PAX@std@@@1@@Z ; std::_Tree<std::_Tmap_traits<unsigned char,long,std::less<unsigned char>,std::allocator<std::pair<unsigned char const ,long> >,0> >::_Tree<std::_Tmap_traits<unsigned char,long,std::less<unsigned char>,std::allocator<std::pair<unsigned char const ,long> >,0> ><std::allocator<std::_Tree_node<std::pair<unsigned char const ,long>,void *> > >
PUBLIC	??$_Buyheadnode@V?$allocator@U?$_Tree_node@U?$pair@$$CBEV?$map@EJU?$less@E@std@@V?$allocator@U?$pair@$$CBEJ@std@@@2@@std@@@std@@PAX@std@@@std@@@?$_Tree_node@U?$pair@$$CBEV?$map@EJU?$less@E@std@@V?$allocator@U?$pair@$$CBEJ@std@@@2@@std@@@std@@PAX@std@@SAPAU01@AAV?$allocator@U?$_Tree_node@U?$pair@$$CBEV?$map@EJU?$less@E@std@@V?$allocator@U?$pair@$$CBEJ@std@@@2@@std@@@std@@PAX@std@@@1@@Z ; std::_Tree_node<std::pair<unsigned char const ,std::map<unsigned char,long,std::less<unsigned char>,std::allocator<std::pair<unsigned char const ,long> > > >,void *>::_Buyheadnode<std::allocator<std::_Tree_node<std::pair<unsigned char const ,std::map<unsigned char,long,std::less<unsigned char>,std::allocator<std::pair<unsigned char const ,long> > > >,void *> > >
PUBLIC	??$addressof@$$CBV?$_Tree_val@U?$_Tree_simple_types@U?$pair@$$CBEV?$map@EJU?$less@E@std@@V?$allocator@U?$pair@$$CBEJ@std@@@2@@std@@@std@@@std@@@std@@@std@@YAPBV?$_Tree_val@U?$_Tree_simple_types@U?$pair@$$CBEV?$map@EJU?$less@E@std@@V?$allocator@U?$pair@$$CBEJ@std@@@2@@std@@@std@@@std@@@0@ABV10@@Z ; std::addressof<std::_Tree_val<std::_Tree_simple_types<std::pair<unsigned char const ,std::map<unsigned char,long,std::less<unsigned char>,std::allocator<std::pair<unsigned char const ,long> > > > > > const >
PUBLIC	??$_Buyheadnode@V?$allocator@U?$_Tree_node@U?$pair@$$CBEJ@std@@PAX@std@@@std@@@?$_Tree_node@U?$pair@$$CBEJ@std@@PAX@std@@SAPAU01@AAV?$allocator@U?$_Tree_node@U?$pair@$$CBEJ@std@@PAX@std@@@1@@Z ; std::_Tree_node<std::pair<unsigned char const ,long>,void *>::_Buyheadnode<std::allocator<std::_Tree_node<std::pair<unsigned char const ,long>,void *> > >
PUBLIC	??$addressof@$$CBV?$_Tree_val@U?$_Tree_simple_types@U?$pair@$$CBEJ@std@@@std@@@std@@@std@@YAPBV?$_Tree_val@U?$_Tree_simple_types@U?$pair@$$CBEJ@std@@@std@@@0@ABV10@@Z ; std::addressof<std::_Tree_val<std::_Tree_simple_types<std::pair<unsigned char const ,long> > > const >
PUBLIC	??$_Emplace_back@AAUTSwitchbotAttributeAlternativeTable@CPythonSwitchbot@@@?$_Uninitialized_backout_al@V?$allocator@UTSwitchbotAttributeAlternativeTable@CPythonSwitchbot@@@std@@@std@@QAEXAAUTSwitchbotAttributeAlternativeTable@CPythonSwitchbot@@@Z ; std::_Uninitialized_backout_al<std::allocator<CPythonSwitchbot::TSwitchbotAttributeAlternativeTable> >::_Emplace_back<CPythonSwitchbot::TSwitchbotAttributeAlternativeTable &>
PUBLIC	??$_Copy_memmove@PAUTSwitchbotAttributeAlternativeTable@CPythonSwitchbot@@PAU12@@std@@YAPAUTSwitchbotAttributeAlternativeTable@CPythonSwitchbot@@PAU12@00@Z ; std::_Copy_memmove<CPythonSwitchbot::TSwitchbotAttributeAlternativeTable *,CPythonSwitchbot::TSwitchbotAttributeAlternativeTable *>
PUBLIC	??$to_address@UTSwitchbotAttributeAlternativeTable@CPythonSwitchbot@@@std@@YAPAUTSwitchbotAttributeAlternativeTable@CPythonSwitchbot@@QAU12@@Z ; std::to_address<CPythonSwitchbot::TSwitchbotAttributeAlternativeTable>
PUBLIC	??$move@AAPAUTSwitchbotAttributeAlternativeTable@CPythonSwitchbot@@@std@@YA$$QAPAUTSwitchbotAttributeAlternativeTable@CPythonSwitchbot@@AAPAU12@@Z ; std::move<CPythonSwitchbot::TSwitchbotAttributeAlternativeTable * &>
PUBLIC	??$_Destroy_in_place@PAU?$_Tree_node@U?$pair@$$CBEV?$map@EJU?$less@E@std@@V?$allocator@U?$pair@$$CBEJ@std@@@2@@std@@@std@@PAX@std@@@std@@YAXAAPAU?$_Tree_node@U?$pair@$$CBEV?$map@EJU?$less@E@std@@V?$allocator@U?$pair@$$CBEJ@std@@@2@@std@@@std@@PAX@0@@Z ; std::_Destroy_in_place<std::_Tree_node<std::pair<unsigned char const ,std::map<unsigned char,long,std::less<unsigned char>,std::allocator<std::pair<unsigned char const ,long> > > >,void *> *>
PUBLIC	??$destroy@U?$pair@$$CBEV?$map@EJU?$less@E@std@@V?$allocator@U?$pair@$$CBEJ@std@@@2@@std@@@std@@@?$_Default_allocator_traits@V?$allocator@U?$_Tree_node@U?$pair@$$CBEV?$map@EJU?$less@E@std@@V?$allocator@U?$pair@$$CBEJ@std@@@2@@std@@@std@@PAX@std@@@std@@@std@@SAXAAV?$allocator@U?$_Tree_node@U?$pair@$$CBEV?$map@EJU?$less@E@std@@V?$allocator@U?$pair@$$CBEJ@std@@@2@@std@@@std@@PAX@std@@@1@QAU?$pair@$$CBEV?$map@EJU?$less@E@std@@V?$allocator@U?$pair@$$CBEJ@std@@@2@@std@@@1@@Z ; std::_Default_allocator_traits<std::allocator<std::_Tree_node<std::pair<unsigned char const ,std::map<unsigned char,long,std::less<unsigned char>,std::allocator<std::pair<unsigned char const ,long> > > >,void *> > >::destroy<std::pair<unsigned char const ,std::map<unsigned char,long,std::less<unsigned char>,std::allocator<std::pair<unsigned char const ,long> > > > >
PUBLIC	??$_Kfn@$$CBEV?$map@EJU?$less@E@std@@V?$allocator@U?$pair@$$CBEJ@std@@@2@@std@@@?$_Tmap_traits@EV?$map@EJU?$less@E@std@@V?$allocator@U?$pair@$$CBEJ@std@@@2@@std@@U?$less@E@2@V?$allocator@U?$pair@$$CBEV?$map@EJU?$less@E@std@@V?$allocator@U?$pair@$$CBEJ@std@@@2@@std@@@std@@@2@$0A@@std@@SAABEABU?$pair@$$CBEV?$map@EJU?$less@E@std@@V?$allocator@U?$pair@$$CBEJ@std@@@2@@std@@@1@@Z ; std::_Tmap_traits<unsigned char,std::map<unsigned char,long,std::less<unsigned char>,std::allocator<std::pair<unsigned char const ,long> > >,std::less<unsigned char>,std::allocator<std::pair<unsigned char const ,std::map<unsigned char,long,std::less<unsigned char>,std::allocator<std::pair<unsigned char const ,long> > > > >,0>::_Kfn<unsigned char const ,std::map<unsigned char,long,std::less<unsigned char>,std::allocator<std::pair<unsigned char const ,long> > > >
PUBLIC	??$_Destroy_in_place@PAU?$_Tree_node@U?$pair@$$CBEJ@std@@PAX@std@@@std@@YAXAAPAU?$_Tree_node@U?$pair@$$CBEJ@std@@PAX@0@@Z ; std::_Destroy_in_place<std::_Tree_node<std::pair<unsigned char const ,long>,void *> *>
PUBLIC	??$_Freenode@V?$allocator@U?$_Tree_node@U?$pair@$$CBEJ@std@@PAX@std@@@std@@@?$_Tree_node@U?$pair@$$CBEJ@std@@PAX@std@@SAXAAV?$allocator@U?$_Tree_node@U?$pair@$$CBEJ@std@@PAX@std@@@1@PAU01@@Z ; std::_Tree_node<std::pair<unsigned char const ,long>,void *>::_Freenode<std::allocator<std::_Tree_node<std::pair<unsigned char const ,long>,void *> > >
PUBLIC	??$exchange@PAU?$_Tree_node@U?$pair@$$CBEJ@std@@PAX@std@@AAPAU12@@std@@YAPAU?$_Tree_node@U?$pair@$$CBEJ@std@@PAX@0@AAPAU10@0@Z ; std::exchange<std::_Tree_node<std::pair<unsigned char const ,long>,void *> *,std::_Tree_node<std::pair<unsigned char const ,long>,void *> * &>
PUBLIC	??$?0AAPAUTPlayerItemAttribute@@AAPAU0@$0A@@?$pair@PAUTPlayerItemAttribute@@PAU1@@std@@QAE@AAPAUTPlayerItemAttribute@@0@Z ; std::pair<TPlayerItemAttribute *,TPlayerItemAttribute *>::pair<TPlayerItemAttribute *,TPlayerItemAttribute *><TPlayerItemAttribute * &,TPlayerItemAttribute * &,0>
PUBLIC	??$swap@UTPlayerItemAttribute@@$0A@@std@@YAXAAUTPlayerItemAttribute@@0@Z ; std::swap<TPlayerItemAttribute,0>
PUBLIC	??$_Next_iter@PAUTPlayerItemAttribute@@@std@@YAPAUTPlayerItemAttribute@@PAU1@@Z ; std::_Next_iter<TPlayerItemAttribute *>
PUBLIC	??$_Prev_iter@PAUTPlayerItemAttribute@@@std@@YAPAUTPlayerItemAttribute@@PAU1@@Z ; std::_Prev_iter<TPlayerItemAttribute *>
PUBLIC	??$_Move_backward_unchecked@PAUTPlayerItemAttribute@@PAU1@@std@@YAPAUTPlayerItemAttribute@@PAU1@00@Z ; std::_Move_backward_unchecked<TPlayerItemAttribute *,TPlayerItemAttribute *>
PUBLIC	??$move@AAUTPlayerItemAttribute@@@std@@YA$$QAUTPlayerItemAttribute@@AAU1@@Z ; std::move<TPlayerItemAttribute &>
PUBLIC	??$_Uninitialized_move@PAUTPlayerItemAttribute@@V?$allocator@UTPlayerItemAttribute@@@std@@@std@@YAPAUTPlayerItemAttribute@@QAU1@0PAU1@AAV?$allocator@UTPlayerItemAttribute@@@0@@Z ; std::_Uninitialized_move<TPlayerItemAttribute *,std::allocator<TPlayerItemAttribute> >
PUBLIC	??$_Get_unwrapped@ABQAUTPlayerItemAttribute@@@std@@YA?A_TABQAUTPlayerItemAttribute@@@Z ; std::_Get_unwrapped<TPlayerItemAttribute * const &>
PUBLIC	??$construct@UTPlayerItemAttribute@@AAU1@@?$_Default_allocator_traits@V?$allocator@UTPlayerItemAttribute@@@std@@@std@@SAXAAV?$allocator@UTPlayerItemAttribute@@@1@QAUTPlayerItemAttribute@@AAU3@@Z ; std::_Default_allocator_traits<std::allocator<TPlayerItemAttribute> >::construct<TPlayerItemAttribute,TPlayerItemAttribute &>
PUBLIC	??$_Unfancy@UTPlayerItemAttribute@@@std@@YAPAUTPlayerItemAttribute@@PAU1@@Z ; std::_Unfancy<TPlayerItemAttribute>
PUBLIC	??$_Allocate_at_least_helper@V?$allocator@UTPlayerItemAttribute@@@std@@@std@@YAPAUTPlayerItemAttribute@@AAV?$allocator@UTPlayerItemAttribute@@@0@AAI@Z ; std::_Allocate_at_least_helper<std::allocator<TPlayerItemAttribute> >
PUBLIC	??$_Construct_in_place@UTPlayerItemAttribute@@AAU1@@std@@YAXAAUTPlayerItemAttribute@@0@Z ; std::_Construct_in_place<TPlayerItemAttribute,TPlayerItemAttribute &>
PUBLIC	??$forward@V?$_Tree_iterator@V?$_Tree_val@U?$_Tree_simple_types@U?$pair@$$CBEV?$map@EJU?$less@E@std@@V?$allocator@U?$pair@$$CBEJ@std@@@2@@std@@@std@@@std@@@std@@@std@@@std@@YA$$QAV?$_Tree_iterator@V?$_Tree_val@U?$_Tree_simple_types@U?$pair@$$CBEV?$map@EJU?$less@E@std@@V?$allocator@U?$pair@$$CBEJ@std@@@2@@std@@@std@@@std@@@std@@@0@AAV10@@Z ; std::forward<std::_Tree_iterator<std::_Tree_val<std::_Tree_simple_types<std::pair<unsigned char const ,std::map<unsigned char,long,std::less<unsigned char>,std::allocator<std::pair<unsigned char const ,long> > > > > > > >
PUBLIC	??$?0PAU?$_Tree_node@U?$pair@$$CBEV?$map@EJU?$less@E@std@@V?$allocator@U?$pair@$$CBEJ@std@@@2@@std@@@std@@PAX@std@@_N$0A@@?$pair@PAU?$_Tree_node@U?$pair@$$CBEV?$map@EJU?$less@E@std@@V?$allocator@U?$pair@$$CBEJ@std@@@2@@std@@@std@@PAX@std@@_N@std@@QAE@$$QAPAU?$_Tree_node@U?$pair@$$CBEV?$map@EJU?$less@E@std@@V?$allocator@U?$pair@$$CBEJ@std@@@2@@std@@@std@@PAX@1@$$QA_N@Z ; std::pair<std::_Tree_node<std::pair<unsigned char const ,std::map<unsigned char,long,std::less<unsigned char>,std::allocator<std::pair<unsigned char const ,long> > > >,void *> *,bool>::pair<std::_Tree_node<std::pair<unsigned char const ,std::map<unsigned char,long,std::less<unsigned char>,std::allocator<std::pair<unsigned char const ,long> > > >,void *> *,bool><std::_Tree_node<std::pair<unsigned char const ,std::map<unsigned char,long,std::less<unsigned char>,std::allocator<std::pair<unsigned char const ,long> > > >,void *> *,bool,0>
PUBLIC	??$?0AAPAU?$_Tree_node@U?$pair@$$CBEV?$map@EJU?$less@E@std@@V?$allocator@U?$pair@$$CBEJ@std@@@2@@std@@@std@@PAX@std@@_N$0A@@?$pair@PAU?$_Tree_node@U?$pair@$$CBEV?$map@EJU?$less@E@std@@V?$allocator@U?$pair@$$CBEJ@std@@@2@@std@@@std@@PAX@std@@_N@std@@QAE@AAPAU?$_Tree_node@U?$pair@$$CBEV?$map@EJU?$less@E@std@@V?$allocator@U?$pair@$$CBEJ@std@@@2@@std@@@std@@PAX@1@$$QA_N@Z ; std::pair<std::_Tree_node<std::pair<unsigned char const ,std::map<unsigned char,long,std::less<unsigned char>,std::allocator<std::pair<unsigned char const ,long> > > >,void *> *,bool>::pair<std::_Tree_node<std::pair<unsigned char const ,std::map<unsigned char,long,std::less<unsigned char>,std::allocator<std::pair<unsigned char const ,long> > > >,void *> *,bool><std::_Tree_node<std::pair<unsigned char const ,std::map<unsigned char,long,std::less<unsigned char>,std::allocator<std::pair<unsigned char const ,long> > > >,void *> * &,bool,0>
PUBLIC	??$?0U?$pair@EV?$map@EJU?$less@E@std@@V?$allocator@U?$pair@$$CBEJ@std@@@2@@std@@@std@@@?$_Tree_temp_node@V?$allocator@U?$_Tree_node@U?$pair@$$CBEV?$map@EJU?$less@E@std@@V?$allocator@U?$pair@$$CBEJ@std@@@2@@std@@@std@@PAX@std@@@std@@@std@@QAE@AAV?$allocator@U?$_Tree_node@U?$pair@$$CBEV?$map@EJU?$less@E@std@@V?$allocator@U?$pair@$$CBEJ@std@@@2@@std@@@std@@PAX@std@@@1@PAU?$_Tree_node@U?$pair@$$CBEV?$map@EJU?$less@E@std@@V?$allocator@U?$pair@$$CBEJ@std@@@2@@std@@@std@@PAX@1@$$QAU?$pair@EV?$map@EJU?$less@E@std@@V?$allocator@U?$pair@$$CBEJ@std@@@2@@std@@@1@@Z ; std::_Tree_temp_node<std::allocator<std::_Tree_node<std::pair<unsigned char const ,std::map<unsigned char,long,std::less<unsigned char>,std::allocator<std::pair<unsigned char const ,long> > > >,void *> > >::_Tree_temp_node<std::allocator<std::_Tree_node<std::pair<unsigned char const ,std::map<unsigned char,long,std::less<unsigned char>,std::allocator<std::pair<unsigned char const ,long> > > >,void *> > ><std::pair<unsigned char,std::map<unsigned char,long,std::less<unsigned char>,std::allocator<std::pair<unsigned char const ,long> > > > >
PUBLIC	??$forward@V?$_Tree_iterator@V?$_Tree_val@U?$_Tree_simple_types@U?$pair@$$CBEJ@std@@@std@@@std@@@std@@@std@@YA$$QAV?$_Tree_iterator@V?$_Tree_val@U?$_Tree_simple_types@U?$pair@$$CBEJ@std@@@std@@@std@@@0@AAV10@@Z ; std::forward<std::_Tree_iterator<std::_Tree_val<std::_Tree_simple_types<std::pair<unsigned char const ,long> > > > >
PUBLIC	??$?0PAU?$_Tree_node@U?$pair@$$CBEJ@std@@PAX@std@@_N$0A@@?$pair@PAU?$_Tree_node@U?$pair@$$CBEJ@std@@PAX@std@@_N@std@@QAE@$$QAPAU?$_Tree_node@U?$pair@$$CBEJ@std@@PAX@1@$$QA_N@Z ; std::pair<std::_Tree_node<std::pair<unsigned char const ,long>,void *> *,bool>::pair<std::_Tree_node<std::pair<unsigned char const ,long>,void *> *,bool><std::_Tree_node<std::pair<unsigned char const ,long>,void *> *,bool,0>
PUBLIC	??$?0AAPAU?$_Tree_node@U?$pair@$$CBEJ@std@@PAX@std@@_N$0A@@?$pair@PAU?$_Tree_node@U?$pair@$$CBEJ@std@@PAX@std@@_N@std@@QAE@AAPAU?$_Tree_node@U?$pair@$$CBEJ@std@@PAX@1@$$QA_N@Z ; std::pair<std::_Tree_node<std::pair<unsigned char const ,long>,void *> *,bool>::pair<std::_Tree_node<std::pair<unsigned char const ,long>,void *> *,bool><std::_Tree_node<std::pair<unsigned char const ,long>,void *> * &,bool,0>
PUBLIC	??$_Kfn@$$CBEJ@?$_Tmap_traits@EJU?$less@E@std@@V?$allocator@U?$pair@$$CBEJ@std@@@2@$0A@@std@@SAABEABU?$pair@$$CBEJ@1@@Z ; std::_Tmap_traits<unsigned char,long,std::less<unsigned char>,std::allocator<std::pair<unsigned char const ,long> >,0>::_Kfn<unsigned char const ,long>
PUBLIC	??$?0U?$pair@HJ@std@@@?$_Tree_temp_node@V?$allocator@U?$_Tree_node@U?$pair@$$CBEJ@std@@PAX@std@@@std@@@std@@QAE@AAV?$allocator@U?$_Tree_node@U?$pair@$$CBEJ@std@@PAX@std@@@1@PAU?$_Tree_node@U?$pair@$$CBEJ@std@@PAX@1@$$QAU?$pair@HJ@1@@Z ; std::_Tree_temp_node<std::allocator<std::_Tree_node<std::pair<unsigned char const ,long>,void *> > >::_Tree_temp_node<std::allocator<std::_Tree_node<std::pair<unsigned char const ,long>,void *> > ><std::pair<int,long> >
PUBLIC	??$_Uninitialized_move@PAUTSwitchbotAttributeAlternativeTable@CPythonSwitchbot@@V?$allocator@UTSwitchbotAttributeAlternativeTable@CPythonSwitchbot@@@std@@@std@@YAPAUTSwitchbotAttributeAlternativeTable@CPythonSwitchbot@@QAU12@0PAU12@AAV?$allocator@UTSwitchbotAttributeAlternativeTable@CPythonSwitchbot@@@0@@Z ; std::_Uninitialized_move<CPythonSwitchbot::TSwitchbotAttributeAlternativeTable *,std::allocator<CPythonSwitchbot::TSwitchbotAttributeAlternativeTable> >
PUBLIC	??$_Get_unwrapped@ABQAUTSwitchbotAttributeAlternativeTable@CPythonSwitchbot@@@std@@YA?A_TABQAUTSwitchbotAttributeAlternativeTable@CPythonSwitchbot@@@Z ; std::_Get_unwrapped<CPythonSwitchbot::TSwitchbotAttributeAlternativeTable * const &>
PUBLIC	??$construct@UTSwitchbotAttributeAlternativeTable@CPythonSwitchbot@@ABU12@@?$_Default_allocator_traits@V?$allocator@UTSwitchbotAttributeAlternativeTable@CPythonSwitchbot@@@std@@@std@@SAXAAV?$allocator@UTSwitchbotAttributeAlternativeTable@CPythonSwitchbot@@@1@QAUTSwitchbotAttributeAlternativeTable@CPythonSwitchbot@@ABU34@@Z ; std::_Default_allocator_traits<std::allocator<CPythonSwitchbot::TSwitchbotAttributeAlternativeTable> >::construct<CPythonSwitchbot::TSwitchbotAttributeAlternativeTable,CPythonSwitchbot::TSwitchbotAttributeAlternativeTable const &>
PUBLIC	??$_Unfancy@UTSwitchbotAttributeAlternativeTable@CPythonSwitchbot@@@std@@YAPAUTSwitchbotAttributeAlternativeTable@CPythonSwitchbot@@PAU12@@Z ; std::_Unfancy<CPythonSwitchbot::TSwitchbotAttributeAlternativeTable>
PUBLIC	??$_Allocate_at_least_helper@V?$allocator@UTSwitchbotAttributeAlternativeTable@CPythonSwitchbot@@@std@@@std@@YAPAUTSwitchbotAttributeAlternativeTable@CPythonSwitchbot@@AAV?$allocator@UTSwitchbotAttributeAlternativeTable@CPythonSwitchbot@@@0@AAI@Z ; std::_Allocate_at_least_helper<std::allocator<CPythonSwitchbot::TSwitchbotAttributeAlternativeTable> >
PUBLIC	??$_Construct_in_place@UTSwitchbotAttributeAlternativeTable@CPythonSwitchbot@@ABU12@@std@@YAXAAUTSwitchbotAttributeAlternativeTable@CPythonSwitchbot@@ABU12@@Z ; std::_Construct_in_place<CPythonSwitchbot::TSwitchbotAttributeAlternativeTable,CPythonSwitchbot::TSwitchbotAttributeAlternativeTable const &>
PUBLIC	??$?0$$V@?$_Compressed_pair@V?$allocator@U?$_Tree_node@U?$pair@$$CBEV?$map@EJU?$less@E@std@@V?$allocator@U?$pair@$$CBEJ@std@@@2@@std@@@std@@PAX@std@@@std@@V?$_Tree_val@U?$_Tree_simple_types@U?$pair@$$CBEV?$map@EJU?$less@E@std@@V?$allocator@U?$pair@$$CBEJ@std@@@2@@std@@@std@@@std@@@2@$00@std@@QAE@U_Zero_then_variadic_args_t@1@@Z ; std::_Compressed_pair<std::allocator<std::_Tree_node<std::pair<unsigned char const ,std::map<unsigned char,long,std::less<unsigned char>,std::allocator<std::pair<unsigned char const ,long> > > >,void *> >,std::_Tree_val<std::_Tree_simple_types<std::pair<unsigned char const ,std::map<unsigned char,long,std::less<unsigned char>,std::allocator<std::pair<unsigned char const ,long> > > > > >,1>::_Compressed_pair<std::allocator<std::_Tree_node<std::pair<unsigned char const ,std::map<unsigned char,long,std::less<unsigned char>,std::allocator<std::pair<unsigned char const ,long> > > >,void *> >,std::_Tree_val<std::_Tree_simple_types<std::pair<unsigned char const ,std::map<unsigned char,long,std::less<unsigned char>,std::allocator<std::pair<unsigned char const ,long> > > > > >,1><>
PUBLIC	??$?0$$V@?$_Compressed_pair@V?$allocator@U?$_Tree_node@U?$pair@$$CBEJ@std@@PAX@std@@@std@@V?$_Tree_val@U?$_Tree_simple_types@U?$pair@$$CBEJ@std@@@std@@@2@$00@std@@QAE@U_Zero_then_variadic_args_t@1@@Z ; std::_Compressed_pair<std::allocator<std::_Tree_node<std::pair<unsigned char const ,long>,void *> >,std::_Tree_val<std::_Tree_simple_types<std::pair<unsigned char const ,long> > >,1>::_Compressed_pair<std::allocator<std::_Tree_node<std::pair<unsigned char const ,long>,void *> >,std::_Tree_val<std::_Tree_simple_types<std::pair<unsigned char const ,long> > >,1><>
PUBLIC	??0?$allocator@UTSwitchbotAttributeAlternativeTable@CPythonSwitchbot@@@std@@QAE@XZ ; std::allocator<CPythonSwitchbot::TSwitchbotAttributeAlternativeTable>::allocator<CPythonSwitchbot::TSwitchbotAttributeAlternativeTable>
PUBLIC	?_Buy_nonzero@?$vector@UTSwitchbotAttributeAlternativeTable@CPythonSwitchbot@@V?$allocator@UTSwitchbotAttributeAlternativeTable@CPythonSwitchbot@@@std@@@std@@AAEXI@Z ; std::vector<CPythonSwitchbot::TSwitchbotAttributeAlternativeTable,std::allocator<CPythonSwitchbot::TSwitchbotAttributeAlternativeTable> >::_Buy_nonzero
PUBLIC	??0?$allocator@UTPlayerItemAttribute@@@std@@QAE@XZ ; std::allocator<TPlayerItemAttribute>::allocator<TPlayerItemAttribute>
PUBLIC	?deallocate@?$allocator@UTPlayerItemAttribute@@@std@@QAEXQAUTPlayerItemAttribute@@I@Z ; std::allocator<TPlayerItemAttribute>::deallocate
PUBLIC	?_Getal@?$vector@UTPlayerItemAttribute@@V?$allocator@UTPlayerItemAttribute@@@std@@@std@@AAEAAV?$allocator@UTPlayerItemAttribute@@@2@XZ ; std::vector<TPlayerItemAttribute,std::allocator<TPlayerItemAttribute> >::_Getal
PUBLIC	??0?$map@EJU?$less@E@std@@V?$allocator@U?$pair@$$CBEJ@std@@@2@@std@@QAE@ABV01@@Z ; std::map<unsigned char,long,std::less<unsigned char>,std::allocator<std::pair<unsigned char const ,long> > >::map<unsigned char,long,std::less<unsigned char>,std::allocator<std::pair<unsigned char const ,long> > >
PUBLIC	?_Alloc_sentinel_and_proxy@?$_Tree@V?$_Tmap_traits@EV?$map@EJU?$less@E@std@@V?$allocator@U?$pair@$$CBEJ@std@@@2@@std@@U?$less@E@2@V?$allocator@U?$pair@$$CBEV?$map@EJU?$less@E@std@@V?$allocator@U?$pair@$$CBEJ@std@@@2@@std@@@std@@@2@$0A@@std@@@std@@IAEXXZ ; std::_Tree<std::_Tmap_traits<unsigned char,std::map<unsigned char,long,std::less<unsigned char>,std::allocator<std::pair<unsigned char const ,long> > >,std::less<unsigned char>,std::allocator<std::pair<unsigned char const ,std::map<unsigned char,long,std::less<unsigned char>,std::allocator<std::pair<unsigned char const ,long> > > > >,0> >::_Alloc_sentinel_and_proxy
PUBLIC	?_Get_scary@?$_Tree@V?$_Tmap_traits@EV?$map@EJU?$less@E@std@@V?$allocator@U?$pair@$$CBEJ@std@@@2@@std@@U?$less@E@2@V?$allocator@U?$pair@$$CBEV?$map@EJU?$less@E@std@@V?$allocator@U?$pair@$$CBEJ@std@@@2@@std@@@std@@@2@$0A@@std@@@std@@IBEPBV?$_Tree_val@U?$_Tree_simple_types@U?$pair@$$CBEV?$map@EJU?$less@E@std@@V?$allocator@U?$pair@$$CBEJ@std@@@2@@std@@@std@@@std@@@2@XZ ; std::_Tree<std::_Tmap_traits<unsigned char,std::map<unsigned char,long,std::less<unsigned char>,std::allocator<std::pair<unsigned char const ,long> > >,std::less<unsigned char>,std::allocator<std::pair<unsigned char const ,std::map<unsigned char,long,std::less<unsigned char>,std::allocator<std::pair<unsigned char const ,long> > > > >,0> >::_Get_scary
PUBLIC	??D?$_Tree_const_iterator@V?$_Tree_val@U?$_Tree_simple_types@U?$pair@$$CBEV?$map@EJU?$less@E@std@@V?$allocator@U?$pair@$$CBEJ@std@@@2@@std@@@std@@@std@@@std@@@std@@QBEABU?$pair@$$CBEV?$map@EJU?$less@E@std@@V?$allocator@U?$pair@$$CBEJ@std@@@2@@std@@@1@XZ ; std::_Tree_const_iterator<std::_Tree_val<std::_Tree_simple_types<std::pair<unsigned char const ,std::map<unsigned char,long,std::less<unsigned char>,std::allocator<std::pair<unsigned char const ,long> > > > > > >::operator*
PUBLIC	?_Get_first@?$_Compressed_pair@V?$allocator@U?$_Tree_node@U?$pair@$$CBEV?$map@EJU?$less@E@std@@V?$allocator@U?$pair@$$CBEJ@std@@@2@@std@@@std@@PAX@std@@@std@@V?$_Tree_val@U?$_Tree_simple_types@U?$pair@$$CBEV?$map@EJU?$less@E@std@@V?$allocator@U?$pair@$$CBEJ@std@@@2@@std@@@std@@@std@@@2@$00@std@@QAEAAV?$allocator@U?$_Tree_node@U?$pair@$$CBEV?$map@EJU?$less@E@std@@V?$allocator@U?$pair@$$CBEJ@std@@@2@@std@@@std@@PAX@std@@@2@XZ ; std::_Compressed_pair<std::allocator<std::_Tree_node<std::pair<unsigned char const ,std::map<unsigned char,long,std::less<unsigned char>,std::allocator<std::pair<unsigned char const ,long> > > >,void *> >,std::_Tree_val<std::_Tree_simple_types<std::pair<unsigned char const ,std::map<unsigned char,long,std::less<unsigned char>,std::allocator<std::pair<unsigned char const ,long> > > > > >,1>::_Get_first
PUBLIC	??1?$_Tidy_guard@V?$vector@UTSwitchbotAttributeAlternativeTable@CPythonSwitchbot@@V?$allocator@UTSwitchbotAttributeAlternativeTable@CPythonSwitchbot@@@std@@@std@@@std@@QAE@XZ ; std::_Tidy_guard<std::vector<CPythonSwitchbot::TSwitchbotAttributeAlternativeTable,std::allocator<CPythonSwitchbot::TSwitchbotAttributeAlternativeTable> > >::~_Tidy_guard<std::vector<CPythonSwitchbot::TSwitchbotAttributeAlternativeTable,std::allocator<CPythonSwitchbot::TSwitchbotAttributeAlternativeTable> > >
PUBLIC	??0?$_Vector_val@U?$_Simple_types@UTSwitchbotAttributeAlternativeTable@CPythonSwitchbot@@@std@@@std@@QAE@XZ ; std::_Vector_val<std::_Simple_types<CPythonSwitchbot::TSwitchbotAttributeAlternativeTable> >::_Vector_val<std::_Simple_types<CPythonSwitchbot::TSwitchbotAttributeAlternativeTable> >
PUBLIC	?_Get_first@?$_Compressed_pair@V?$allocator@UTSwitchbotAttributeAlternativeTable@CPythonSwitchbot@@@std@@V?$_Vector_val@U?$_Simple_types@UTSwitchbotAttributeAlternativeTable@CPythonSwitchbot@@@std@@@2@$00@std@@QBEABV?$allocator@UTSwitchbotAttributeAlternativeTable@CPythonSwitchbot@@@2@XZ ; std::_Compressed_pair<std::allocator<CPythonSwitchbot::TSwitchbotAttributeAlternativeTable>,std::_Vector_val<std::_Simple_types<CPythonSwitchbot::TSwitchbotAttributeAlternativeTable> >,1>::_Get_first
PUBLIC	?_Alloc_sentinel_and_proxy@?$_Tree@V?$_Tmap_traits@EJU?$less@E@std@@V?$allocator@U?$pair@$$CBEJ@std@@@2@$0A@@std@@@std@@IAEXXZ ; std::_Tree<std::_Tmap_traits<unsigned char,long,std::less<unsigned char>,std::allocator<std::pair<unsigned char const ,long> >,0> >::_Alloc_sentinel_and_proxy
PUBLIC	?_Get_scary@?$_Tree@V?$_Tmap_traits@EJU?$less@E@std@@V?$allocator@U?$pair@$$CBEJ@std@@@2@$0A@@std@@@std@@IBEPBV?$_Tree_val@U?$_Tree_simple_types@U?$pair@$$CBEJ@std@@@std@@@2@XZ ; std::_Tree<std::_Tmap_traits<unsigned char,long,std::less<unsigned char>,std::allocator<std::pair<unsigned char const ,long> >,0> >::_Get_scary
PUBLIC	?_Min@?$_Tree_val@U?$_Tree_simple_types@U?$pair@$$CBEJ@std@@@std@@@std@@SAPAU?$_Tree_node@U?$pair@$$CBEJ@std@@PAX@2@PAU32@@Z ; std::_Tree_val<std::_Tree_simple_types<std::pair<unsigned char const ,long> > >::_Min
PUBLIC	??D?$_Tree_const_iterator@V?$_Tree_val@U?$_Tree_simple_types@U?$pair@$$CBEJ@std@@@std@@@std@@@std@@QBEABU?$pair@$$CBEJ@1@XZ ; std::_Tree_const_iterator<std::_Tree_val<std::_Tree_simple_types<std::pair<unsigned char const ,long> > > >::operator*
PUBLIC	?_Get_first@?$_Compressed_pair@V?$allocator@U?$_Tree_node@U?$pair@$$CBEJ@std@@PAX@std@@@std@@V?$_Tree_val@U?$_Tree_simple_types@U?$pair@$$CBEJ@std@@@std@@@2@$00@std@@QAEAAV?$allocator@U?$_Tree_node@U?$pair@$$CBEJ@std@@PAX@std@@@2@XZ ; std::_Compressed_pair<std::allocator<std::_Tree_node<std::pair<unsigned char const ,long>,void *> >,std::_Tree_val<std::_Tree_simple_types<std::pair<unsigned char const ,long> > >,1>::_Get_first
PUBLIC	??0?$_Vector_val@U?$_Simple_types@UTPlayerItemAttribute@@@std@@@std@@QAE@XZ ; std::_Vector_val<std::_Simple_types<TPlayerItemAttribute> >::_Vector_val<std::_Simple_types<TPlayerItemAttribute> >
PUBLIC	??$_Destroy_range@V?$allocator@UTPlayerItemAttribute@@@std@@@std@@YAXPAUTPlayerItemAttribute@@QAU1@AAV?$allocator@UTPlayerItemAttribute@@@0@@Z ; std::_Destroy_range<std::allocator<TPlayerItemAttribute> >
PUBLIC	??$?0ABU?$less@E@std@@U_Zero_then_variadic_args_t@1@@?$_Compressed_pair@U?$less@E@std@@V?$_Compressed_pair@V?$allocator@U?$_Tree_node@U?$pair@$$CBEV?$map@EJU?$less@E@std@@V?$allocator@U?$pair@$$CBEJ@std@@@2@@std@@@std@@PAX@std@@@std@@V?$_Tree_val@U?$_Tree_simple_types@U?$pair@$$CBEV?$map@EJU?$less@E@std@@V?$allocator@U?$pair@$$CBEJ@std@@@2@@std@@@std@@@std@@@2@$00@2@$00@std@@QAE@U_One_then_variadic_args_t@1@ABU?$less@E@1@$$QAU_Zero_then_variadic_args_t@1@@Z ; std::_Compressed_pair<std::less<unsigned char>,std::_Compressed_pair<std::allocator<std::_Tree_node<std::pair<unsigned char const ,std::map<unsigned char,long,std::less<unsigned char>,std::allocator<std::pair<unsigned char const ,long> > > >,void *> >,std::_Tree_val<std::_Tree_simple_types<std::pair<unsigned char const ,std::map<unsigned char,long,std::less<unsigned char>,std::allocator<std::pair<unsigned char const ,long> > > > > >,1>,1>::_Compressed_pair<std::less<unsigned char>,std::_Compressed_pair<std::allocator<std::_Tree_node<std::pair<unsigned char const ,std::map<unsigned char,long,std::less<unsigned char>,std::allocator<std::pair<unsigned char const ,long> > > >,void *> >,std::_Tree_val<std::_Tree_simple_types<std::pair<unsigned char const ,std::map<unsigned char,long,std::less<unsigned char>,std::allocator<std::pair<unsigned char const ,long> > > > > >,1>,1><std::less<unsigned char> const &,std::_Zero_then_variadic_args_t>
PUBLIC	??$addressof@V?$_Tree_val@U?$_Tree_simple_types@U?$pair@$$CBEV?$map@EJU?$less@E@std@@V?$allocator@U?$pair@$$CBEJ@std@@@2@@std@@@std@@@std@@@std@@@std@@YAPAV?$_Tree_val@U?$_Tree_simple_types@U?$pair@$$CBEV?$map@EJU?$less@E@std@@V?$allocator@U?$pair@$$CBEJ@std@@@2@@std@@@std@@@std@@@0@AAV10@@Z ; std::addressof<std::_Tree_val<std::_Tree_simple_types<std::pair<unsigned char const ,std::map<unsigned char,long,std::less<unsigned char>,std::allocator<std::pair<unsigned char const ,long> > > > > > >
PUBLIC	??$?0ABU?$less@E@std@@U_Zero_then_variadic_args_t@1@@?$_Compressed_pair@U?$less@E@std@@V?$_Compressed_pair@V?$allocator@U?$_Tree_node@U?$pair@$$CBEJ@std@@PAX@std@@@std@@V?$_Tree_val@U?$_Tree_simple_types@U?$pair@$$CBEJ@std@@@std@@@2@$00@2@$00@std@@QAE@U_One_then_variadic_args_t@1@ABU?$less@E@1@$$QAU_Zero_then_variadic_args_t@1@@Z ; std::_Compressed_pair<std::less<unsigned char>,std::_Compressed_pair<std::allocator<std::_Tree_node<std::pair<unsigned char const ,long>,void *> >,std::_Tree_val<std::_Tree_simple_types<std::pair<unsigned char const ,long> > >,1>,1>::_Compressed_pair<std::less<unsigned char>,std::_Compressed_pair<std::allocator<std::_Tree_node<std::pair<unsigned char const ,long>,void *> >,std::_Tree_val<std::_Tree_simple_types<std::pair<unsigned char const ,long> > >,1>,1><std::less<unsigned char> const &,std::_Zero_then_variadic_args_t>
PUBLIC	??$addressof@V?$_Tree_val@U?$_Tree_simple_types@U?$pair@$$CBEJ@std@@@std@@@std@@@std@@YAPAV?$_Tree_val@U?$_Tree_simple_types@U?$pair@$$CBEJ@std@@@std@@@0@AAV10@@Z ; std::addressof<std::_Tree_val<std::_Tree_simple_types<std::pair<unsigned char const ,long> > > >
PUBLIC	??$addressof@U?$pair@$$CBEJ@std@@@std@@YAPAU?$pair@$$CBEJ@0@AAU10@@Z ; std::addressof<std::pair<unsigned char const ,long> >
PUBLIC	??$addressof@U?$pair@$$CBEV?$map@EJU?$less@E@std@@V?$allocator@U?$pair@$$CBEJ@std@@@2@@std@@@std@@@std@@YAPAU?$pair@$$CBEV?$map@EJU?$less@E@std@@V?$allocator@U?$pair@$$CBEJ@std@@@2@@std@@@0@AAU10@@Z ; std::addressof<std::pair<unsigned char const ,std::map<unsigned char,long,std::less<unsigned char>,std::allocator<std::pair<unsigned char const ,long> > > > >
PUBLIC	??$_To_address@PAUTSwitchbotAttributeAlternativeTable@CPythonSwitchbot@@@std@@YA?A_PABQAUTSwitchbotAttributeAlternativeTable@CPythonSwitchbot@@@Z ; std::_To_address<CPythonSwitchbot::TSwitchbotAttributeAlternativeTable *>
PUBLIC	??$_Uninitialized_copy@PAUTSwitchbotAttributeAlternativeTable@CPythonSwitchbot@@PAU12@V?$allocator@UTSwitchbotAttributeAlternativeTable@CPythonSwitchbot@@@std@@@std@@YAPAUTSwitchbotAttributeAlternativeTable@CPythonSwitchbot@@PAU12@00AAV?$allocator@UTSwitchbotAttributeAlternativeTable@CPythonSwitchbot@@@0@@Z ; std::_Uninitialized_copy<CPythonSwitchbot::TSwitchbotAttributeAlternativeTable *,CPythonSwitchbot::TSwitchbotAttributeAlternativeTable *,std::allocator<CPythonSwitchbot::TSwitchbotAttributeAlternativeTable> >
PUBLIC	??$_Unwrap_sent@PAUTSwitchbotAttributeAlternativeTable@CPythonSwitchbot@@PAU12@@ranges@std@@YA?A_T$$QAPAUTSwitchbotAttributeAlternativeTable@CPythonSwitchbot@@@Z ; std::ranges::_Unwrap_sent<CPythonSwitchbot::TSwitchbotAttributeAlternativeTable *,CPythonSwitchbot::TSwitchbotAttributeAlternativeTable *>
PUBLIC	??$_Unwrap_iter@PAUTSwitchbotAttributeAlternativeTable@CPythonSwitchbot@@PAU12@@ranges@std@@YA?A_T$$QAPAUTSwitchbotAttributeAlternativeTable@CPythonSwitchbot@@@Z ; std::ranges::_Unwrap_iter<CPythonSwitchbot::TSwitchbotAttributeAlternativeTable *,CPythonSwitchbot::TSwitchbotAttributeAlternativeTable *>
PUBLIC	??$forward@ABQAUTSwitchbotAttributeAlternativeTable@CPythonSwitchbot@@@std@@YAABQAUTSwitchbotAttributeAlternativeTable@CPythonSwitchbot@@ABQAU12@@Z ; std::forward<CPythonSwitchbot::TSwitchbotAttributeAlternativeTable * const &>
PUBLIC	??$forward@V?$allocator@UTSwitchbotAttributeAlternativeTable@CPythonSwitchbot@@@std@@@std@@YA$$QAV?$allocator@UTSwitchbotAttributeAlternativeTable@CPythonSwitchbot@@@0@AAV10@@Z ; std::forward<std::allocator<CPythonSwitchbot::TSwitchbotAttributeAlternativeTable> >
PUBLIC	??$_Freenode0@V?$allocator@U?$_Tree_node@U?$pair@$$CBEV?$map@EJU?$less@E@std@@V?$allocator@U?$pair@$$CBEJ@std@@@2@@std@@@std@@PAX@std@@@std@@@?$_Tree_node@U?$pair@$$CBEV?$map@EJU?$less@E@std@@V?$allocator@U?$pair@$$CBEJ@std@@@2@@std@@@std@@PAX@std@@SAXAAV?$allocator@U?$_Tree_node@U?$pair@$$CBEV?$map@EJU?$less@E@std@@V?$allocator@U?$pair@$$CBEJ@std@@@2@@std@@@std@@PAX@std@@@1@PAU01@@Z ; std::_Tree_node<std::pair<unsigned char const ,std::map<unsigned char,long,std::less<unsigned char>,std::allocator<std::pair<unsigned char const ,long> > > >,void *>::_Freenode0<std::allocator<std::_Tree_node<std::pair<unsigned char const ,std::map<unsigned char,long,std::less<unsigned char>,std::allocator<std::pair<unsigned char const ,long> > > >,void *> > >
PUBLIC	??$_Freenode@V?$allocator@U?$_Tree_node@U?$pair@$$CBEV?$map@EJU?$less@E@std@@V?$allocator@U?$pair@$$CBEJ@std@@@2@@std@@@std@@PAX@std@@@std@@@?$_Tree_node@U?$pair@$$CBEV?$map@EJU?$less@E@std@@V?$allocator@U?$pair@$$CBEJ@std@@@2@@std@@@std@@PAX@std@@SAXAAV?$allocator@U?$_Tree_node@U?$pair@$$CBEV?$map@EJU?$less@E@std@@V?$allocator@U?$pair@$$CBEJ@std@@@2@@std@@@std@@PAX@std@@@1@PAU01@@Z ; std::_Tree_node<std::pair<unsigned char const ,std::map<unsigned char,long,std::less<unsigned char>,std::allocator<std::pair<unsigned char const ,long> > > >,void *>::_Freenode<std::allocator<std::_Tree_node<std::pair<unsigned char const ,std::map<unsigned char,long,std::less<unsigned char>,std::allocator<std::pair<unsigned char const ,long> > > >,void *> > >
PUBLIC	??$exchange@PAU?$_Tree_node@U?$pair@$$CBEV?$map@EJU?$less@E@std@@V?$allocator@U?$pair@$$CBEJ@std@@@2@@std@@@std@@PAX@std@@AAPAU12@@std@@YAPAU?$_Tree_node@U?$pair@$$CBEV?$map@EJU?$less@E@std@@V?$allocator@U?$pair@$$CBEJ@std@@@2@@std@@@std@@PAX@0@AAPAU10@0@Z ; std::exchange<std::_Tree_node<std::pair<unsigned char const ,std::map<unsigned char,long,std::less<unsigned char>,std::allocator<std::pair<unsigned char const ,long> > > >,void *> *,std::_Tree_node<std::pair<unsigned char const ,std::map<unsigned char,long,std::less<unsigned char>,std::allocator<std::pair<unsigned char const ,long> > > >,void *> * &>
PUBLIC	??$_Lower_bound_duplicate@E@?$_Tree@V?$_Tmap_traits@EV?$map@EJU?$less@E@std@@V?$allocator@U?$pair@$$CBEJ@std@@@2@@std@@U?$less@E@2@V?$allocator@U?$pair@$$CBEV?$map@EJU?$less@E@std@@V?$allocator@U?$pair@$$CBEJ@std@@@2@@std@@@std@@@2@$0A@@std@@@std@@IBE_NQAU?$_Tree_node@U?$pair@$$CBEV?$map@EJU?$less@E@std@@V?$allocator@U?$pair@$$CBEJ@std@@@2@@std@@@std@@PAX@1@ABE@Z ; std::_Tree<std::_Tmap_traits<unsigned char,std::map<unsigned char,long,std::less<unsigned char>,std::allocator<std::pair<unsigned char const ,long> > >,std::less<unsigned char>,std::allocator<std::pair<unsigned char const ,std::map<unsigned char,long,std::less<unsigned char>,std::allocator<std::pair<unsigned char const ,long> > > > >,0> >::_Lower_bound_duplicate<unsigned char>
PUBLIC	??$_Find_lower_bound@E@?$_Tree@V?$_Tmap_traits@EV?$map@EJU?$less@E@std@@V?$allocator@U?$pair@$$CBEJ@std@@@2@@std@@U?$less@E@2@V?$allocator@U?$pair@$$CBEV?$map@EJU?$less@E@std@@V?$allocator@U?$pair@$$CBEJ@std@@@2@@std@@@std@@@2@$0A@@std@@@std@@IBE?AU?$_Tree_find_result@PAU?$_Tree_node@U?$pair@$$CBEV?$map@EJU?$less@E@std@@V?$allocator@U?$pair@$$CBEJ@std@@@2@@std@@@std@@PAX@std@@@1@ABE@Z ; std::_Tree<std::_Tmap_traits<unsigned char,std::map<unsigned char,long,std::less<unsigned char>,std::allocator<std::pair<unsigned char const ,long> > >,std::less<unsigned char>,std::allocator<std::pair<unsigned char const ,std::map<unsigned char,long,std::less<unsigned char>,std::allocator<std::pair<unsigned char const ,long> > > > >,0> >::_Find_lower_bound<unsigned char>
PUBLIC	??$_Freenode0@V?$allocator@U?$_Tree_node@U?$pair@$$CBEJ@std@@PAX@std@@@std@@@?$_Tree_node@U?$pair@$$CBEJ@std@@PAX@std@@SAXAAV?$allocator@U?$_Tree_node@U?$pair@$$CBEJ@std@@PAX@std@@@1@PAU01@@Z ; std::_Tree_node<std::pair<unsigned char const ,long>,void *>::_Freenode0<std::allocator<std::_Tree_node<std::pair<unsigned char const ,long>,void *> > >
PUBLIC	??$_Erase_tree@V?$allocator@U?$_Tree_node@U?$pair@$$CBEJ@std@@PAX@std@@@std@@@?$_Tree_val@U?$_Tree_simple_types@U?$pair@$$CBEJ@std@@@std@@@std@@QAEXAAV?$allocator@U?$_Tree_node@U?$pair@$$CBEJ@std@@PAX@std@@@1@PAU?$_Tree_node@U?$pair@$$CBEJ@std@@PAX@1@@Z ; std::_Tree_val<std::_Tree_simple_types<std::pair<unsigned char const ,long> > >::_Erase_tree<std::allocator<std::_Tree_node<std::pair<unsigned char const ,long>,void *> > >
PUBLIC	??$_Lower_bound_duplicate@E@?$_Tree@V?$_Tmap_traits@EJU?$less@E@std@@V?$allocator@U?$pair@$$CBEJ@std@@@2@$0A@@std@@@std@@IBE_NQAU?$_Tree_node@U?$pair@$$CBEJ@std@@PAX@1@ABE@Z ; std::_Tree<std::_Tmap_traits<unsigned char,long,std::less<unsigned char>,std::allocator<std::pair<unsigned char const ,long> >,0> >::_Lower_bound_duplicate<unsigned char>
PUBLIC	??$_Find_lower_bound@E@?$_Tree@V?$_Tmap_traits@EJU?$less@E@std@@V?$allocator@U?$pair@$$CBEJ@std@@@2@$0A@@std@@@std@@IBE?AU?$_Tree_find_result@PAU?$_Tree_node@U?$pair@$$CBEJ@std@@PAX@std@@@1@ABE@Z ; std::_Tree<std::_Tmap_traits<unsigned char,long,std::less<unsigned char>,std::allocator<std::pair<unsigned char const ,long> >,0> >::_Find_lower_bound<unsigned char>
PUBLIC	??$_Emplace_reallocate@AAUTPlayerItemAttribute@@@?$vector@UTPlayerItemAttribute@@V?$allocator@UTPlayerItemAttribute@@@std@@@std@@AAEPAUTPlayerItemAttribute@@QAU2@AAU2@@Z ; std::vector<TPlayerItemAttribute,std::allocator<TPlayerItemAttribute> >::_Emplace_reallocate<TPlayerItemAttribute &>
PUBLIC	??$_Emplace_back_with_unused_capacity@AAUTPlayerItemAttribute@@@?$vector@UTPlayerItemAttribute@@V?$allocator@UTPlayerItemAttribute@@@std@@@std@@AAEAAUTPlayerItemAttribute@@AAU2@@Z ; std::vector<TPlayerItemAttribute,std::allocator<TPlayerItemAttribute> >::_Emplace_back_with_unused_capacity<TPlayerItemAttribute &>
PUBLIC	??$?0V?$_Tree_iterator@V?$_Tree_val@U?$_Tree_simple_types@U?$pair@$$CBEV?$map@EJU?$less@E@std@@V?$allocator@U?$pair@$$CBEJ@std@@@2@@std@@@std@@@std@@@std@@@std@@AB_N$0A@@?$pair@V?$_Tree_iterator@V?$_Tree_val@U?$_Tree_simple_types@U?$pair@$$CBEV?$map@EJU?$less@E@std@@V?$allocator@U?$pair@$$CBEJ@std@@@2@@std@@@std@@@std@@@std@@@std@@_N@std@@QAE@$$QAV?$_Tree_iterator@V?$_Tree_val@U?$_Tree_simple_types@U?$pair@$$CBEV?$map@EJU?$less@E@std@@V?$allocator@U?$pair@$$CBEJ@std@@@2@@std@@@std@@@std@@@std@@@1@AB_N@Z ; std::pair<std::_Tree_iterator<std::_Tree_val<std::_Tree_simple_types<std::pair<unsigned char const ,std::map<unsigned char,long,std::less<unsigned char>,std::allocator<std::pair<unsigned char const ,long> > > > > > >,bool>::pair<std::_Tree_iterator<std::_Tree_val<std::_Tree_simple_types<std::pair<unsigned char const ,std::map<unsigned char,long,std::less<unsigned char>,std::allocator<std::pair<unsigned char const ,long> > > > > > >,bool><std::_Tree_iterator<std::_Tree_val<std::_Tree_simple_types<std::pair<unsigned char const ,std::map<unsigned char,long,std::less<unsigned char>,std::allocator<std::pair<unsigned char const ,long> > > > > > >,bool const &,0>
PUBLIC	??$_Emplace@U?$pair@EV?$map@EJU?$less@E@std@@V?$allocator@U?$pair@$$CBEJ@std@@@2@@std@@@std@@@?$_Tree@V?$_Tmap_traits@EV?$map@EJU?$less@E@std@@V?$allocator@U?$pair@$$CBEJ@std@@@2@@std@@U?$less@E@2@V?$allocator@U?$pair@$$CBEV?$map@EJU?$less@E@std@@V?$allocator@U?$pair@$$CBEJ@std@@@2@@std@@@std@@@2@$0A@@std@@@std@@IAE?AU?$pair@PAU?$_Tree_node@U?$pair@$$CBEV?$map@EJU?$less@E@std@@V?$allocator@U?$pair@$$CBEJ@std@@@2@@std@@@std@@PAX@std@@_N@1@$$QAU?$pair@EV?$map@EJU?$less@E@std@@V?$allocator@U?$pair@$$CBEJ@std@@@2@@std@@@1@@Z ; std::_Tree<std::_Tmap_traits<unsigned char,std::map<unsigned char,long,std::less<unsigned char>,std::allocator<std::pair<unsigned char const ,long> > >,std::less<unsigned char>,std::allocator<std::pair<unsigned char const ,std::map<unsigned char,long,std::less<unsigned char>,std::allocator<std::pair<unsigned char const ,long> > > > >,0> >::_Emplace<std::pair<unsigned char,std::map<unsigned char,long,std::less<unsigned char>,std::allocator<std::pair<unsigned char const ,long> > > > >
PUBLIC	??$?0V?$_Tree_iterator@V?$_Tree_val@U?$_Tree_simple_types@U?$pair@$$CBEJ@std@@@std@@@std@@@std@@AB_N$0A@@?$pair@V?$_Tree_iterator@V?$_Tree_val@U?$_Tree_simple_types@U?$pair@$$CBEJ@std@@@std@@@std@@@std@@_N@std@@QAE@$$QAV?$_Tree_iterator@V?$_Tree_val@U?$_Tree_simple_types@U?$pair@$$CBEJ@std@@@std@@@std@@@1@AB_N@Z ; std::pair<std::_Tree_iterator<std::_Tree_val<std::_Tree_simple_types<std::pair<unsigned char const ,long> > > >,bool>::pair<std::_Tree_iterator<std::_Tree_val<std::_Tree_simple_types<std::pair<unsigned char const ,long> > > >,bool><std::_Tree_iterator<std::_Tree_val<std::_Tree_simple_types<std::pair<unsigned char const ,long> > > >,bool const &,0>
PUBLIC	??$_Emplace@U?$pair@HJ@std@@@?$_Tree@V?$_Tmap_traits@EJU?$less@E@std@@V?$allocator@U?$pair@$$CBEJ@std@@@2@$0A@@std@@@std@@IAE?AU?$pair@PAU?$_Tree_node@U?$pair@$$CBEJ@std@@PAX@std@@_N@1@$$QAU?$pair@HJ@1@@Z ; std::_Tree<std::_Tmap_traits<unsigned char,long,std::less<unsigned char>,std::allocator<std::pair<unsigned char const ,long> >,0> >::_Emplace<std::pair<int,long> >
PUBLIC	??$_Emplace_reallocate@ABUTSwitchbotAttributeAlternativeTable@CPythonSwitchbot@@@?$vector@UTSwitchbotAttributeAlternativeTable@CPythonSwitchbot@@V?$allocator@UTSwitchbotAttributeAlternativeTable@CPythonSwitchbot@@@std@@@std@@AAEPAUTSwitchbotAttributeAlternativeTable@CPythonSwitchbot@@QAU23@ABU23@@Z ; std::vector<CPythonSwitchbot::TSwitchbotAttributeAlternativeTable,std::allocator<CPythonSwitchbot::TSwitchbotAttributeAlternativeTable> >::_Emplace_reallocate<CPythonSwitchbot::TSwitchbotAttributeAlternativeTable const &>
PUBLIC	??$_Emplace_back_with_unused_capacity@ABUTSwitchbotAttributeAlternativeTable@CPythonSwitchbot@@@?$vector@UTSwitchbotAttributeAlternativeTable@CPythonSwitchbot@@V?$allocator@UTSwitchbotAttributeAlternativeTable@CPythonSwitchbot@@@std@@@std@@AAEAAUTSwitchbotAttributeAlternativeTable@CPythonSwitchbot@@ABU23@@Z ; std::vector<CPythonSwitchbot::TSwitchbotAttributeAlternativeTable,std::allocator<CPythonSwitchbot::TSwitchbotAttributeAlternativeTable> >::_Emplace_back_with_unused_capacity<CPythonSwitchbot::TSwitchbotAttributeAlternativeTable const &>
PUBLIC	?_Getal@?$vector@UTSwitchbotAttributeAlternativeTable@CPythonSwitchbot@@V?$allocator@UTSwitchbotAttributeAlternativeTable@CPythonSwitchbot@@@std@@@std@@ABEABV?$allocator@UTSwitchbotAttributeAlternativeTable@CPythonSwitchbot@@@2@XZ ; std::vector<CPythonSwitchbot::TSwitchbotAttributeAlternativeTable,std::allocator<CPythonSwitchbot::TSwitchbotAttributeAlternativeTable> >::_Getal
PUBLIC	?_Tidy@?$vector@UTPlayerItemAttribute@@V?$allocator@UTPlayerItemAttribute@@@std@@@std@@AAEXXZ ; std::vector<TPlayerItemAttribute,std::allocator<TPlayerItemAttribute> >::_Tidy
PUBLIC	??0?$_Tree@V?$_Tmap_traits@EV?$map@EJU?$less@E@std@@V?$allocator@U?$pair@$$CBEJ@std@@@2@@std@@U?$less@E@2@V?$allocator@U?$pair@$$CBEV?$map@EJU?$less@E@std@@V?$allocator@U?$pair@$$CBEJ@std@@@2@@std@@@std@@@2@$0A@@std@@@std@@QAE@ABU?$less@E@1@@Z ; std::_Tree<std::_Tmap_traits<unsigned char,std::map<unsigned char,long,std::less<unsigned char>,std::allocator<std::pair<unsigned char const ,long> > >,std::less<unsigned char>,std::allocator<std::pair<unsigned char const ,std::map<unsigned char,long,std::less<unsigned char>,std::allocator<std::pair<unsigned char const ,long> > > > >,0> >::_Tree<std::_Tmap_traits<unsigned char,std::map<unsigned char,long,std::less<unsigned char>,std::allocator<std::pair<unsigned char const ,long> > >,std::less<unsigned char>,std::allocator<std::pair<unsigned char const ,std::map<unsigned char,long,std::less<unsigned char>,std::allocator<std::pair<unsigned char const ,long> > > > >,0> >
PUBLIC	?_Getal@?$_Tree@V?$_Tmap_traits@EV?$map@EJU?$less@E@std@@V?$allocator@U?$pair@$$CBEJ@std@@@2@@std@@U?$less@E@2@V?$allocator@U?$pair@$$CBEV?$map@EJU?$less@E@std@@V?$allocator@U?$pair@$$CBEJ@std@@@2@@std@@@std@@@2@$0A@@std@@@std@@IAEAAV?$allocator@U?$_Tree_node@U?$pair@$$CBEV?$map@EJU?$less@E@std@@V?$allocator@U?$pair@$$CBEJ@std@@@2@@std@@@std@@PAX@std@@@2@XZ ; std::_Tree<std::_Tmap_traits<unsigned char,std::map<unsigned char,long,std::less<unsigned char>,std::allocator<std::pair<unsigned char const ,long> > >,std::less<unsigned char>,std::allocator<std::pair<unsigned char const ,std::map<unsigned char,long,std::less<unsigned char>,std::allocator<std::pair<unsigned char const ,long> > > > >,0> >::_Getal
PUBLIC	?_Get_scary@?$_Tree@V?$_Tmap_traits@EV?$map@EJU?$less@E@std@@V?$allocator@U?$pair@$$CBEJ@std@@@2@@std@@U?$less@E@2@V?$allocator@U?$pair@$$CBEV?$map@EJU?$less@E@std@@V?$allocator@U?$pair@$$CBEJ@std@@@2@@std@@@std@@@2@$0A@@std@@@std@@IAEPAV?$_Tree_val@U?$_Tree_simple_types@U?$pair@$$CBEV?$map@EJU?$less@E@std@@V?$allocator@U?$pair@$$CBEJ@std@@@2@@std@@@std@@@std@@@2@XZ ; std::_Tree<std::_Tmap_traits<unsigned char,std::map<unsigned char,long,std::less<unsigned char>,std::allocator<std::pair<unsigned char const ,long> > >,std::less<unsigned char>,std::allocator<std::pair<unsigned char const ,std::map<unsigned char,long,std::less<unsigned char>,std::allocator<std::pair<unsigned char const ,long> > > > >,0> >::_Get_scary
PUBLIC	?_Orphan_ptr@?$_Tree_val@U?$_Tree_simple_types@U?$pair@$$CBEV?$map@EJU?$less@E@std@@V?$allocator@U?$pair@$$CBEJ@std@@@2@@std@@@std@@@std@@@std@@QAEXQAU?$_Tree_node@U?$pair@$$CBEV?$map@EJU?$less@E@std@@V?$allocator@U?$pair@$$CBEJ@std@@@2@@std@@@std@@PAX@2@@Z ; std::_Tree_val<std::_Tree_simple_types<std::pair<unsigned char const ,std::map<unsigned char,long,std::less<unsigned char>,std::allocator<std::pair<unsigned char const ,long> > > > > >::_Orphan_ptr
PUBLIC	??D?$_Tree_iterator@V?$_Tree_val@U?$_Tree_simple_types@U?$pair@$$CBEV?$map@EJU?$less@E@std@@V?$allocator@U?$pair@$$CBEJ@std@@@2@@std@@@std@@@std@@@std@@@std@@QBEAAU?$pair@$$CBEV?$map@EJU?$less@E@std@@V?$allocator@U?$pair@$$CBEJ@std@@@2@@std@@@1@XZ ; std::_Tree_iterator<std::_Tree_val<std::_Tree_simple_types<std::pair<unsigned char const ,std::map<unsigned char,long,std::less<unsigned char>,std::allocator<std::pair<unsigned char const ,long> > > > > > >::operator*
PUBLIC	??0?$_Tree_unchecked_const_iterator@V?$_Tree_val@U?$_Tree_simple_types@U?$pair@$$CBEV?$map@EJU?$less@E@std@@V?$allocator@U?$pair@$$CBEJ@std@@@2@@std@@@std@@@std@@@std@@U_Iterator_base0@2@@std@@QAE@PAU?$_Tree_node@U?$pair@$$CBEV?$map@EJU?$less@E@std@@V?$allocator@U?$pair@$$CBEJ@std@@@2@@std@@@std@@PAX@1@PBV?$_Tree_val@U?$_Tree_simple_types@U?$pair@$$CBEV?$map@EJU?$less@E@std@@V?$allocator@U?$pair@$$CBEJ@std@@@2@@std@@@std@@@std@@@1@@Z ; std::_Tree_unchecked_const_iterator<std::_Tree_val<std::_Tree_simple_types<std::pair<unsigned char const ,std::map<unsigned char,long,std::less<unsigned char>,std::allocator<std::pair<unsigned char const ,long> > > > > >,std::_Iterator_base0>::_Tree_unchecked_const_iterator<std::_Tree_val<std::_Tree_simple_types<std::pair<unsigned char const ,std::map<unsigned char,long,std::less<unsigned char>,std::allocator<std::pair<unsigned char const ,long> > > > > >,std::_Iterator_base0>
PUBLIC	?select_on_container_copy_construction@?$_Default_allocator_traits@V?$allocator@UTSwitchbotAttributeAlternativeTable@CPythonSwitchbot@@@std@@@std@@SA?AV?$allocator@UTSwitchbotAttributeAlternativeTable@CPythonSwitchbot@@@2@ABV32@@Z ; std::_Default_allocator_traits<std::allocator<CPythonSwitchbot::TSwitchbotAttributeAlternativeTable> >::select_on_container_copy_construction
PUBLIC	??0?$_Tree@V?$_Tmap_traits@EJU?$less@E@std@@V?$allocator@U?$pair@$$CBEJ@std@@@2@$0A@@std@@@std@@QAE@ABU?$less@E@1@@Z ; std::_Tree<std::_Tmap_traits<unsigned char,long,std::less<unsigned char>,std::allocator<std::pair<unsigned char const ,long> >,0> >::_Tree<std::_Tmap_traits<unsigned char,long,std::less<unsigned char>,std::allocator<std::pair<unsigned char const ,long> >,0> >
PUBLIC	?_Getal@?$_Tree@V?$_Tmap_traits@EJU?$less@E@std@@V?$allocator@U?$pair@$$CBEJ@std@@@2@$0A@@std@@@std@@IAEAAV?$allocator@U?$_Tree_node@U?$pair@$$CBEJ@std@@PAX@std@@@2@XZ ; std::_Tree<std::_Tmap_traits<unsigned char,long,std::less<unsigned char>,std::allocator<std::pair<unsigned char const ,long> >,0> >::_Getal
PUBLIC	?_Get_scary@?$_Tree@V?$_Tmap_traits@EJU?$less@E@std@@V?$allocator@U?$pair@$$CBEJ@std@@@2@$0A@@std@@@std@@IAEPAV?$_Tree_val@U?$_Tree_simple_types@U?$pair@$$CBEJ@std@@@std@@@2@XZ ; std::_Tree<std::_Tmap_traits<unsigned char,long,std::less<unsigned char>,std::allocator<std::pair<unsigned char const ,long> >,0> >::_Get_scary
PUBLIC	??D?$_Tree_iterator@V?$_Tree_val@U?$_Tree_simple_types@U?$pair@$$CBEJ@std@@@std@@@std@@@std@@QBEAAU?$pair@$$CBEJ@1@XZ ; std::_Tree_iterator<std::_Tree_val<std::_Tree_simple_types<std::pair<unsigned char const ,long> > > >::operator*
PUBLIC	??0?$_Tree_unchecked_const_iterator@V?$_Tree_val@U?$_Tree_simple_types@U?$pair@$$CBEJ@std@@@std@@@std@@U_Iterator_base0@2@@std@@QAE@PAU?$_Tree_node@U?$pair@$$CBEJ@std@@PAX@1@PBV?$_Tree_val@U?$_Tree_simple_types@U?$pair@$$CBEJ@std@@@std@@@1@@Z ; std::_Tree_unchecked_const_iterator<std::_Tree_val<std::_Tree_simple_types<std::pair<unsigned char const ,long> > >,std::_Iterator_base0>::_Tree_unchecked_const_iterator<std::_Tree_val<std::_Tree_simple_types<std::pair<unsigned char const ,long> > >,std::_Iterator_base0>
PUBLIC	??D?$_Tree_unchecked_const_iterator@V?$_Tree_val@U?$_Tree_simple_types@U?$pair@$$CBEJ@std@@@std@@@std@@U_Iterator_base0@2@@std@@QBEABU?$pair@$$CBEJ@1@XZ ; std::_Tree_unchecked_const_iterator<std::_Tree_val<std::_Tree_simple_types<std::pair<unsigned char const ,long> > >,std::_Iterator_base0>::operator*
PUBLIC	??E?$_Tree_unchecked_const_iterator@V?$_Tree_val@U?$_Tree_simple_types@U?$pair@$$CBEJ@std@@@std@@@std@@U_Iterator_base0@2@@std@@QAEAAV01@XZ ; std::_Tree_unchecked_const_iterator<std::_Tree_val<std::_Tree_simple_types<std::pair<unsigned char const ,long> > >,std::_Iterator_base0>::operator++
PUBLIC	??0?$_Vector_const_iterator@V?$_Vector_val@U?$_Simple_types@UTPlayerItemAttribute@@@std@@@std@@@std@@QAE@PAUTPlayerItemAttribute@@PBU_Container_base0@1@@Z ; std::_Vector_const_iterator<std::_Vector_val<std::_Simple_types<TPlayerItemAttribute> > >::_Vector_const_iterator<std::_Vector_val<std::_Simple_types<TPlayerItemAttribute> > >
PUBLIC	?pointer_to@?$pointer_traits@PAU?$pair@$$CBEJ@std@@@std@@SAPAU?$pair@$$CBEJ@2@AAU32@@Z ; std::pointer_traits<std::pair<unsigned char const ,long> *>::pointer_to
PUBLIC	?pointer_to@?$pointer_traits@PAU?$pair@$$CBEV?$map@EJU?$less@E@std@@V?$allocator@U?$pair@$$CBEJ@std@@@2@@std@@@std@@@std@@SAPAU?$pair@$$CBEV?$map@EJU?$less@E@std@@V?$allocator@U?$pair@$$CBEJ@std@@@2@@std@@@2@AAU32@@Z ; std::pointer_traits<std::pair<unsigned char const ,std::map<unsigned char,long,std::less<unsigned char>,std::allocator<std::pair<unsigned char const ,long> > > > *>::pointer_to
PUBLIC	??$?0$$V@?$_Compressed_pair@V?$allocator@UTSwitchbotAttributeAlternativeTable@CPythonSwitchbot@@@std@@V?$_Vector_val@U?$_Simple_types@UTSwitchbotAttributeAlternativeTable@CPythonSwitchbot@@@std@@@2@$00@std@@QAE@U_Zero_then_variadic_args_t@1@@Z ; std::_Compressed_pair<std::allocator<CPythonSwitchbot::TSwitchbotAttributeAlternativeTable>,std::_Vector_val<std::_Simple_types<CPythonSwitchbot::TSwitchbotAttributeAlternativeTable> >,1>::_Compressed_pair<std::allocator<CPythonSwitchbot::TSwitchbotAttributeAlternativeTable>,std::_Vector_val<std::_Simple_types<CPythonSwitchbot::TSwitchbotAttributeAlternativeTable> >,1><>
PUBLIC	??$_Construct_n@ABQAUTSwitchbotAttributeAlternativeTable@CPythonSwitchbot@@ABQAU12@@?$vector@UTSwitchbotAttributeAlternativeTable@CPythonSwitchbot@@V?$allocator@UTSwitchbotAttributeAlternativeTable@CPythonSwitchbot@@@std@@@std@@AAEXIABQAUTSwitchbotAttributeAlternativeTable@CPythonSwitchbot@@0@Z ; std::vector<CPythonSwitchbot::TSwitchbotAttributeAlternativeTable,std::allocator<CPythonSwitchbot::TSwitchbotAttributeAlternativeTable> >::_Construct_n<CPythonSwitchbot::TSwitchbotAttributeAlternativeTable * const &,CPythonSwitchbot::TSwitchbotAttributeAlternativeTable * const &>
PUBLIC	??$?0V?$allocator@UTSwitchbotAttributeAlternativeTable@CPythonSwitchbot@@@std@@$$V@?$_Compressed_pair@V?$allocator@UTSwitchbotAttributeAlternativeTable@CPythonSwitchbot@@@std@@V?$_Vector_val@U?$_Simple_types@UTSwitchbotAttributeAlternativeTable@CPythonSwitchbot@@@std@@@2@$00@std@@QAE@U_One_then_variadic_args_t@1@$$QAV?$allocator@UTSwitchbotAttributeAlternativeTable@CPythonSwitchbot@@@1@@Z ; std::_Compressed_pair<std::allocator<CPythonSwitchbot::TSwitchbotAttributeAlternativeTable>,std::_Vector_val<std::_Simple_types<CPythonSwitchbot::TSwitchbotAttributeAlternativeTable> >,1>::_Compressed_pair<std::allocator<CPythonSwitchbot::TSwitchbotAttributeAlternativeTable>,std::_Vector_val<std::_Simple_types<CPythonSwitchbot::TSwitchbotAttributeAlternativeTable> >,1><std::allocator<CPythonSwitchbot::TSwitchbotAttributeAlternativeTable> >
PUBLIC	??$?0$$V@?$_Compressed_pair@V?$allocator@UTPlayerItemAttribute@@@std@@V?$_Vector_val@U?$_Simple_types@UTPlayerItemAttribute@@@std@@@2@$00@std@@QAE@U_Zero_then_variadic_args_t@1@@Z ; std::_Compressed_pair<std::allocator<TPlayerItemAttribute>,std::_Vector_val<std::_Simple_types<TPlayerItemAttribute> >,1>::_Compressed_pair<std::allocator<TPlayerItemAttribute>,std::_Vector_val<std::_Simple_types<TPlayerItemAttribute> >,1><>
PUBLIC	??$addressof@V?$_Vector_val@U?$_Simple_types@UTPlayerItemAttribute@@@std@@@std@@@std@@YAPAV?$_Vector_val@U?$_Simple_types@UTPlayerItemAttribute@@@std@@@0@AAV10@@Z ; std::addressof<std::_Vector_val<std::_Simple_types<TPlayerItemAttribute> > >
PUBLIC	??$_Erase_head@V?$allocator@U?$_Tree_node@U?$pair@$$CBEV?$map@EJU?$less@E@std@@V?$allocator@U?$pair@$$CBEJ@std@@@2@@std@@@std@@PAX@std@@@std@@@?$_Tree_val@U?$_Tree_simple_types@U?$pair@$$CBEV?$map@EJU?$less@E@std@@V?$allocator@U?$pair@$$CBEJ@std@@@2@@std@@@std@@@std@@@std@@QAEXAAV?$allocator@U?$_Tree_node@U?$pair@$$CBEV?$map@EJU?$less@E@std@@V?$allocator@U?$pair@$$CBEJ@std@@@2@@std@@@std@@PAX@std@@@1@@Z ; std::_Tree_val<std::_Tree_simple_types<std::pair<unsigned char const ,std::map<unsigned char,long,std::less<unsigned char>,std::allocator<std::pair<unsigned char const ,long> > > > > >::_Erase_head<std::allocator<std::_Tree_node<std::pair<unsigned char const ,std::map<unsigned char,long,std::less<unsigned char>,std::allocator<std::pair<unsigned char const ,long> > > >,void *> > >
PUBLIC	??$_Erase_tree@V?$allocator@U?$_Tree_node@U?$pair@$$CBEV?$map@EJU?$less@E@std@@V?$allocator@U?$pair@$$CBEJ@std@@@2@@std@@@std@@PAX@std@@@std@@@?$_Tree_val@U?$_Tree_simple_types@U?$pair@$$CBEV?$map@EJU?$less@E@std@@V?$allocator@U?$pair@$$CBEJ@std@@@2@@std@@@std@@@std@@@std@@QAEXAAV?$allocator@U?$_Tree_node@U?$pair@$$CBEV?$map@EJU?$less@E@std@@V?$allocator@U?$pair@$$CBEJ@std@@@2@@std@@@std@@PAX@std@@@1@PAU?$_Tree_node@U?$pair@$$CBEV?$map@EJU?$less@E@std@@V?$allocator@U?$pair@$$CBEJ@std@@@2@@std@@@std@@PAX@1@@Z ; std::_Tree_val<std::_Tree_simple_types<std::pair<unsigned char const ,std::map<unsigned char,long,std::less<unsigned char>,std::allocator<std::pair<unsigned char const ,long> > > > > >::_Erase_tree<std::allocator<std::_Tree_node<std::pair<unsigned char const ,std::map<unsigned char,long,std::less<unsigned char>,std::allocator<std::pair<unsigned char const ,long> > > >,void *> > >
PUBLIC	??$_Find@E@?$_Tree@V?$_Tmap_traits@EV?$map@EJU?$less@E@std@@V?$allocator@U?$pair@$$CBEJ@std@@@2@@std@@U?$less@E@2@V?$allocator@U?$pair@$$CBEV?$map@EJU?$less@E@std@@V?$allocator@U?$pair@$$CBEJ@std@@@2@@std@@@std@@@2@$0A@@std@@@std@@ABEPAU?$_Tree_node@U?$pair@$$CBEV?$map@EJU?$less@E@std@@V?$allocator@U?$pair@$$CBEJ@std@@@2@@std@@@std@@PAX@1@ABE@Z ; std::_Tree<std::_Tmap_traits<unsigned char,std::map<unsigned char,long,std::less<unsigned char>,std::allocator<std::pair<unsigned char const ,long> > >,std::less<unsigned char>,std::allocator<std::pair<unsigned char const ,std::map<unsigned char,long,std::less<unsigned char>,std::allocator<std::pair<unsigned char const ,long> > > > >,0> >::_Find<unsigned char>
PUBLIC	??$_Erase_head@V?$allocator@U?$_Tree_node@U?$pair@$$CBEJ@std@@PAX@std@@@std@@@?$_Tree_val@U?$_Tree_simple_types@U?$pair@$$CBEJ@std@@@std@@@std@@QAEXAAV?$allocator@U?$_Tree_node@U?$pair@$$CBEJ@std@@PAX@std@@@1@@Z ; std::_Tree_val<std::_Tree_simple_types<std::pair<unsigned char const ,long> > >::_Erase_head<std::allocator<std::_Tree_node<std::pair<unsigned char const ,long>,void *> > >
PUBLIC	??$_Find@E@?$_Tree@V?$_Tmap_traits@EJU?$less@E@std@@V?$allocator@U?$pair@$$CBEJ@std@@@2@$0A@@std@@@std@@ABEPAU?$_Tree_node@U?$pair@$$CBEJ@std@@PAX@1@ABE@Z ; std::_Tree<std::_Tmap_traits<unsigned char,long,std::less<unsigned char>,std::allocator<std::pair<unsigned char const ,long> >,0> >::_Find<unsigned char>
PUBLIC	??$_Unfancy_maybe_null@UTPlayerItemAttribute@@@std@@YAPAUTPlayerItemAttribute@@PAU1@@Z ; std::_Unfancy_maybe_null<TPlayerItemAttribute>
PUBLIC	??$_Adl_verify_range@V?$_Vector_iterator@V?$_Vector_val@U?$_Simple_types@UTPlayerItemAttribute@@@std@@@std@@@std@@V12@@std@@YAXABV?$_Vector_iterator@V?$_Vector_val@U?$_Simple_types@UTPlayerItemAttribute@@@std@@@std@@@0@0@Z ; std::_Adl_verify_range<std::_Vector_iterator<std::_Vector_val<std::_Simple_types<TPlayerItemAttribute> > >,std::_Vector_iterator<std::_Vector_val<std::_Simple_types<TPlayerItemAttribute> > > >
PUBLIC	??$_Emplace_one_at_back@AAUTPlayerItemAttribute@@@?$vector@UTPlayerItemAttribute@@V?$allocator@UTPlayerItemAttribute@@@std@@@std@@AAEAAUTPlayerItemAttribute@@AAU2@@Z ; std::vector<TPlayerItemAttribute,std::allocator<TPlayerItemAttribute> >::_Emplace_one_at_back<TPlayerItemAttribute &>
PUBLIC	??$forward@AAUTPlayerItemAttribute@@@std@@YAAAUTPlayerItemAttribute@@AAU1@@Z ; std::forward<TPlayerItemAttribute &>
PUBLIC	??$emplace@U?$pair@EV?$map@EJU?$less@E@std@@V?$allocator@U?$pair@$$CBEJ@std@@@2@@std@@@std@@@?$_Tree@V?$_Tmap_traits@EV?$map@EJU?$less@E@std@@V?$allocator@U?$pair@$$CBEJ@std@@@2@@std@@U?$less@E@2@V?$allocator@U?$pair@$$CBEV?$map@EJU?$less@E@std@@V?$allocator@U?$pair@$$CBEJ@std@@@2@@std@@@std@@@2@$0A@@std@@@std@@QAE?AU?$pair@V?$_Tree_iterator@V?$_Tree_val@U?$_Tree_simple_types@U?$pair@$$CBEV?$map@EJU?$less@E@std@@V?$allocator@U?$pair@$$CBEJ@std@@@2@@std@@@std@@@std@@@std@@@std@@_N@1@$$QAU?$pair@EV?$map@EJU?$less@E@std@@V?$allocator@U?$pair@$$CBEJ@std@@@2@@std@@@1@@Z ; std::_Tree<std::_Tmap_traits<unsigned char,std::map<unsigned char,long,std::less<unsigned char>,std::allocator<std::pair<unsigned char const ,long> > >,std::less<unsigned char>,std::allocator<std::pair<unsigned char const ,std::map<unsigned char,long,std::less<unsigned char>,std::allocator<std::pair<unsigned char const ,long> > > > >,0> >::emplace<std::pair<unsigned char,std::map<unsigned char,long,std::less<unsigned char>,std::allocator<std::pair<unsigned char const ,long> > > > >
PUBLIC	??$forward@U?$pair@EV?$map@EJU?$less@E@std@@V?$allocator@U?$pair@$$CBEJ@std@@@2@@std@@@std@@@std@@YA$$QAU?$pair@EV?$map@EJU?$less@E@std@@V?$allocator@U?$pair@$$CBEJ@std@@@2@@std@@@0@AAU10@@Z ; std::forward<std::pair<unsigned char,std::map<unsigned char,long,std::less<unsigned char>,std::allocator<std::pair<unsigned char const ,long> > > > >
PUBLIC	??$?0ABEAAV?$map@EJU?$less@E@std@@V?$allocator@U?$pair@$$CBEJ@std@@@2@@std@@$0A@@?$pair@EV?$map@EJU?$less@E@std@@V?$allocator@U?$pair@$$CBEJ@std@@@2@@std@@@std@@QAE@ABEAAV?$map@EJU?$less@E@std@@V?$allocator@U?$pair@$$CBEJ@std@@@2@@1@@Z ; std::pair<unsigned char,std::map<unsigned char,long,std::less<unsigned char>,std::allocator<std::pair<unsigned char const ,long> > > >::pair<unsigned char,std::map<unsigned char,long,std::less<unsigned char>,std::allocator<std::pair<unsigned char const ,long> > > ><unsigned char const &,std::map<unsigned char,long,std::less<unsigned char>,std::allocator<std::pair<unsigned char const ,long> > > &,0>
PUBLIC	??$forward@AAV?$map@EJU?$less@E@std@@V?$allocator@U?$pair@$$CBEJ@std@@@2@@std@@@std@@YAAAV?$map@EJU?$less@E@std@@V?$allocator@U?$pair@$$CBEJ@std@@@2@@0@AAV10@@Z ; std::forward<std::map<unsigned char,long,std::less<unsigned char>,std::allocator<std::pair<unsigned char const ,long> > > &>
PUBLIC	??$emplace@U?$pair@HJ@std@@@?$_Tree@V?$_Tmap_traits@EJU?$less@E@std@@V?$allocator@U?$pair@$$CBEJ@std@@@2@$0A@@std@@@std@@QAE?AU?$pair@V?$_Tree_iterator@V?$_Tree_val@U?$_Tree_simple_types@U?$pair@$$CBEJ@std@@@std@@@std@@@std@@_N@1@$$QAU?$pair@HJ@1@@Z ; std::_Tree<std::_Tmap_traits<unsigned char,long,std::less<unsigned char>,std::allocator<std::pair<unsigned char const ,long> >,0> >::emplace<std::pair<int,long> >
PUBLIC	??$forward@U?$pair@HJ@std@@@std@@YA$$QAU?$pair@HJ@0@AAU10@@Z ; std::forward<std::pair<int,long> >
PUBLIC	??$?0HJ$0A@@?$pair@HJ@std@@QAE@ABHABJ@Z		; std::pair<int,long>::pair<int,long><int,long,0>
PUBLIC	??$forward@ABJ@std@@YAABJABJ@Z			; std::forward<long const &>
PUBLIC	??$_Emplace_one_at_back@ABUTSwitchbotAttributeAlternativeTable@CPythonSwitchbot@@@?$vector@UTSwitchbotAttributeAlternativeTable@CPythonSwitchbot@@V?$allocator@UTSwitchbotAttributeAlternativeTable@CPythonSwitchbot@@@std@@@std@@AAEAAUTSwitchbotAttributeAlternativeTable@CPythonSwitchbot@@ABU23@@Z ; std::vector<CPythonSwitchbot::TSwitchbotAttributeAlternativeTable,std::allocator<CPythonSwitchbot::TSwitchbotAttributeAlternativeTable> >::_Emplace_one_at_back<CPythonSwitchbot::TSwitchbotAttributeAlternativeTable const &>
PUBLIC	??$forward@ABUTSwitchbotAttributeAlternativeTable@CPythonSwitchbot@@@std@@YAABUTSwitchbotAttributeAlternativeTable@CPythonSwitchbot@@ABU12@@Z ; std::forward<CPythonSwitchbot::TSwitchbotAttributeAlternativeTable const &>
PUBLIC	??0?$_Tree_const_iterator@V?$_Tree_val@U?$_Tree_simple_types@U?$pair@$$CBEV?$map@EJU?$less@E@std@@V?$allocator@U?$pair@$$CBEJ@std@@@2@@std@@@std@@@std@@@std@@@std@@QAE@PAU?$_Tree_node@U?$pair@$$CBEV?$map@EJU?$less@E@std@@V?$allocator@U?$pair@$$CBEJ@std@@@2@@std@@@std@@PAX@1@PBV?$_Tree_val@U?$_Tree_simple_types@U?$pair@$$CBEV?$map@EJU?$less@E@std@@V?$allocator@U?$pair@$$CBEJ@std@@@2@@std@@@std@@@std@@@1@@Z ; std::_Tree_const_iterator<std::_Tree_val<std::_Tree_simple_types<std::pair<unsigned char const ,std::map<unsigned char,long,std::less<unsigned char>,std::allocator<std::pair<unsigned char const ,long> > > > > > >::_Tree_const_iterator<std::_Tree_val<std::_Tree_simple_types<std::pair<unsigned char const ,std::map<unsigned char,long,std::less<unsigned char>,std::allocator<std::pair<unsigned char const ,long> > > > > > >
PUBLIC	??0?$_Tree_const_iterator@V?$_Tree_val@U?$_Tree_simple_types@U?$pair@$$CBEJ@std@@@std@@@std@@@std@@QAE@PAU?$_Tree_node@U?$pair@$$CBEJ@std@@PAX@1@PBV?$_Tree_val@U?$_Tree_simple_types@U?$pair@$$CBEJ@std@@@std@@@1@@Z ; std::_Tree_const_iterator<std::_Tree_val<std::_Tree_simple_types<std::pair<unsigned char const ,long> > > >::_Tree_const_iterator<std::_Tree_val<std::_Tree_simple_types<std::pair<unsigned char const ,long> > > >
PUBLIC	??_G?$CSingleton@VCPythonSwitchbot@@@@UAEPAXI@Z	; CSingleton<CPythonSwitchbot>::`scalar deleting destructor'
PUBLIC	??0?$_Tree_iterator@V?$_Tree_val@U?$_Tree_simple_types@U?$pair@$$CBEV?$map@EJU?$less@E@std@@V?$allocator@U?$pair@$$CBEJ@std@@@2@@std@@@std@@@std@@@std@@@std@@QAE@PAU?$_Tree_node@U?$pair@$$CBEV?$map@EJU?$less@E@std@@V?$allocator@U?$pair@$$CBEJ@std@@@2@@std@@@std@@PAX@1@PBV?$_Tree_val@U?$_Tree_simple_types@U?$pair@$$CBEV?$map@EJU?$less@E@std@@V?$allocator@U?$pair@$$CBEJ@std@@@2@@std@@@std@@@std@@@1@@Z ; std::_Tree_iterator<std::_Tree_val<std::_Tree_simple_types<std::pair<unsigned char const ,std::map<unsigned char,long,std::less<unsigned char>,std::allocator<std::pair<unsigned char const ,long> > > > > > >::_Tree_iterator<std::_Tree_val<std::_Tree_simple_types<std::pair<unsigned char const ,std::map<unsigned char,long,std::less<unsigned char>,std::allocator<std::pair<unsigned char const ,long> > > > > > >
PUBLIC	??0?$_Tree_unchecked_iterator@V?$_Tree_val@U?$_Tree_simple_types@U?$pair@$$CBEJ@std@@@std@@@std@@@std@@QAE@PAU?$_Tree_node@U?$pair@$$CBEJ@std@@PAX@1@PBV?$_Tree_val@U?$_Tree_simple_types@U?$pair@$$CBEJ@std@@@std@@@1@@Z ; std::_Tree_unchecked_iterator<std::_Tree_val<std::_Tree_simple_types<std::pair<unsigned char const ,long> > > >::_Tree_unchecked_iterator<std::_Tree_val<std::_Tree_simple_types<std::pair<unsigned char const ,long> > > >
PUBLIC	??0?$_Tree_iterator@V?$_Tree_val@U?$_Tree_simple_types@U?$pair@$$CBEJ@std@@@std@@@std@@@std@@QAE@PAU?$_Tree_node@U?$pair@$$CBEJ@std@@PAX@1@PBV?$_Tree_val@U?$_Tree_simple_types@U?$pair@$$CBEJ@std@@@std@@@1@@Z ; std::_Tree_iterator<std::_Tree_val<std::_Tree_simple_types<std::pair<unsigned char const ,long> > > >::_Tree_iterator<std::_Tree_val<std::_Tree_simple_types<std::pair<unsigned char const ,long> > > >
PUBLIC	??0?$CSingleton@VCPythonSwitchbot@@@@QAE@XZ	; CSingleton<CPythonSwitchbot>::CSingleton<CPythonSwitchbot>
PUBLIC	??1?$CSingleton@VCPythonSwitchbot@@@@UAE@XZ	; CSingleton<CPythonSwitchbot>::~CSingleton<CPythonSwitchbot>
PUBLIC	??0?$vector@UTSwitchbotAttributeAlternativeTable@CPythonSwitchbot@@V?$allocator@UTSwitchbotAttributeAlternativeTable@CPythonSwitchbot@@@std@@@std@@QAE@XZ ; std::vector<CPythonSwitchbot::TSwitchbotAttributeAlternativeTable,std::allocator<CPythonSwitchbot::TSwitchbotAttributeAlternativeTable> >::vector<CPythonSwitchbot::TSwitchbotAttributeAlternativeTable,std::allocator<CPythonSwitchbot::TSwitchbotAttributeAlternativeTable> >
PUBLIC	??0?$vector@UTSwitchbotAttributeAlternativeTable@CPythonSwitchbot@@V?$allocator@UTSwitchbotAttributeAlternativeTable@CPythonSwitchbot@@@std@@@std@@QAE@ABV01@@Z ; std::vector<CPythonSwitchbot::TSwitchbotAttributeAlternativeTable,std::allocator<CPythonSwitchbot::TSwitchbotAttributeAlternativeTable> >::vector<CPythonSwitchbot::TSwitchbotAttributeAlternativeTable,std::allocator<CPythonSwitchbot::TSwitchbotAttributeAlternativeTable> >
PUBLIC	??0?$vector@UTPlayerItemAttribute@@V?$allocator@UTPlayerItemAttribute@@@std@@@std@@QAE@XZ ; std::vector<TPlayerItemAttribute,std::allocator<TPlayerItemAttribute> >::vector<TPlayerItemAttribute,std::allocator<TPlayerItemAttribute> >
PUBLIC	??1?$vector@UTPlayerItemAttribute@@V?$allocator@UTPlayerItemAttribute@@@std@@@std@@QAE@XZ ; std::vector<TPlayerItemAttribute,std::allocator<TPlayerItemAttribute> >::~vector<TPlayerItemAttribute,std::allocator<TPlayerItemAttribute> >
PUBLIC	?begin@?$vector@UTPlayerItemAttribute@@V?$allocator@UTPlayerItemAttribute@@@std@@@std@@QAE?AV?$_Vector_iterator@V?$_Vector_val@U?$_Simple_types@UTPlayerItemAttribute@@@std@@@std@@@2@XZ ; std::vector<TPlayerItemAttribute,std::allocator<TPlayerItemAttribute> >::begin
PUBLIC	??0?$_Vector_iterator@V?$_Vector_val@U?$_Simple_types@UTPlayerItemAttribute@@@std@@@std@@@std@@QAE@PAUTPlayerItemAttribute@@PBU_Container_base0@1@@Z ; std::_Vector_iterator<std::_Vector_val<std::_Simple_types<TPlayerItemAttribute> > >::_Vector_iterator<std::_Vector_val<std::_Simple_types<TPlayerItemAttribute> > >
PUBLIC	?end@?$vector@UTPlayerItemAttribute@@V?$allocator@UTPlayerItemAttribute@@@std@@@std@@QAE?AV?$_Vector_iterator@V?$_Vector_val@U?$_Simple_types@UTPlayerItemAttribute@@@std@@@std@@@2@XZ ; std::vector<TPlayerItemAttribute,std::allocator<TPlayerItemAttribute> >::end
PUBLIC	?_Unchecked_begin@?$vector@UTPlayerItemAttribute@@V?$allocator@UTPlayerItemAttribute@@@std@@@std@@QAEPAUTPlayerItemAttribute@@XZ ; std::vector<TPlayerItemAttribute,std::allocator<TPlayerItemAttribute> >::_Unchecked_begin
PUBLIC	?_Unchecked_end@?$vector@UTPlayerItemAttribute@@V?$allocator@UTPlayerItemAttribute@@@std@@@std@@QAEPAUTPlayerItemAttribute@@XZ ; std::vector<TPlayerItemAttribute,std::allocator<TPlayerItemAttribute> >::_Unchecked_end
PUBLIC	??0?$map@EJU?$less@E@std@@V?$allocator@U?$pair@$$CBEJ@std@@@2@@std@@QAE@XZ ; std::map<unsigned char,long,std::less<unsigned char>,std::allocator<std::pair<unsigned char const ,long> > >::map<unsigned char,long,std::less<unsigned char>,std::allocator<std::pair<unsigned char const ,long> > >
PUBLIC	??0?$map@EV?$map@EJU?$less@E@std@@V?$allocator@U?$pair@$$CBEJ@std@@@2@@std@@U?$less@E@2@V?$allocator@U?$pair@$$CBEV?$map@EJU?$less@E@std@@V?$allocator@U?$pair@$$CBEJ@std@@@2@@std@@@std@@@2@@std@@QAE@XZ ; std::map<unsigned char,std::map<unsigned char,long,std::less<unsigned char>,std::allocator<std::pair<unsigned char const ,long> > >,std::less<unsigned char>,std::allocator<std::pair<unsigned char const ,std::map<unsigned char,long,std::less<unsigned char>,std::allocator<std::pair<unsigned char const ,long> > > > > >::map<unsigned char,std::map<unsigned char,long,std::less<unsigned char>,std::allocator<std::pair<unsigned char const ,long> > >,std::less<unsigned char>,std::allocator<std::pair<unsigned char const ,std::map<unsigned char,long,std::less<unsigned char>,std::allocator<std::pair<unsigned char const ,long> > > > > >
PUBLIC	??1?$_Tree@V?$_Tmap_traits@EV?$map@EJU?$less@E@std@@V?$allocator@U?$pair@$$CBEJ@std@@@2@@std@@U?$less@E@2@V?$allocator@U?$pair@$$CBEV?$map@EJU?$less@E@std@@V?$allocator@U?$pair@$$CBEJ@std@@@2@@std@@@std@@@2@$0A@@std@@@std@@QAE@XZ ; std::_Tree<std::_Tmap_traits<unsigned char,std::map<unsigned char,long,std::less<unsigned char>,std::allocator<std::pair<unsigned char const ,long> > >,std::less<unsigned char>,std::allocator<std::pair<unsigned char const ,std::map<unsigned char,long,std::less<unsigned char>,std::allocator<std::pair<unsigned char const ,long> > > > >,0> >::~_Tree<std::_Tmap_traits<unsigned char,std::map<unsigned char,long,std::less<unsigned char>,std::allocator<std::pair<unsigned char const ,long> > >,std::less<unsigned char>,std::allocator<std::pair<unsigned char const ,std::map<unsigned char,long,std::less<unsigned char>,std::allocator<std::pair<unsigned char const ,long> > > > >,0> >
PUBLIC	?end@?$_Tree@V?$_Tmap_traits@EV?$map@EJU?$less@E@std@@V?$allocator@U?$pair@$$CBEJ@std@@@2@@std@@U?$less@E@2@V?$allocator@U?$pair@$$CBEV?$map@EJU?$less@E@std@@V?$allocator@U?$pair@$$CBEJ@std@@@2@@std@@@std@@@2@$0A@@std@@@std@@QAE?AV?$_Tree_iterator@V?$_Tree_val@U?$_Tree_simple_types@U?$pair@$$CBEV?$map@EJU?$less@E@std@@V?$allocator@U?$pair@$$CBEJ@std@@@2@@std@@@std@@@std@@@std@@@2@XZ ; std::_Tree<std::_Tmap_traits<unsigned char,std::map<unsigned char,long,std::less<unsigned char>,std::allocator<std::pair<unsigned char const ,long> > >,std::less<unsigned char>,std::allocator<std::pair<unsigned char const ,std::map<unsigned char,long,std::less<unsigned char>,std::allocator<std::pair<unsigned char const ,long> > > > >,0> >::end
PUBLIC	?clear@?$_Tree@V?$_Tmap_traits@EV?$map@EJU?$less@E@std@@V?$allocator@U?$pair@$$CBEJ@std@@@2@@std@@U?$less@E@2@V?$allocator@U?$pair@$$CBEV?$map@EJU?$less@E@std@@V?$allocator@U?$pair@$$CBEJ@std@@@2@@std@@@std@@@2@$0A@@std@@@std@@QAEXXZ ; std::_Tree<std::_Tmap_traits<unsigned char,std::map<unsigned char,long,std::less<unsigned char>,std::allocator<std::pair<unsigned char const ,long> > >,std::less<unsigned char>,std::allocator<std::pair<unsigned char const ,std::map<unsigned char,long,std::less<unsigned char>,std::allocator<std::pair<unsigned char const ,long> > > > >,0> >::clear
PUBLIC	?find@?$_Tree@V?$_Tmap_traits@EV?$map@EJU?$less@E@std@@V?$allocator@U?$pair@$$CBEJ@std@@@2@@std@@U?$less@E@2@V?$allocator@U?$pair@$$CBEV?$map@EJU?$less@E@std@@V?$allocator@U?$pair@$$CBEJ@std@@@2@@std@@@std@@@2@$0A@@std@@@std@@QAE?AV?$_Tree_iterator@V?$_Tree_val@U?$_Tree_simple_types@U?$pair@$$CBEV?$map@EJU?$less@E@std@@V?$allocator@U?$pair@$$CBEJ@std@@@2@@std@@@std@@@std@@@std@@@2@ABE@Z ; std::_Tree<std::_Tmap_traits<unsigned char,std::map<unsigned char,long,std::less<unsigned char>,std::allocator<std::pair<unsigned char const ,long> > >,std::less<unsigned char>,std::allocator<std::pair<unsigned char const ,std::map<unsigned char,long,std::less<unsigned char>,std::allocator<std::pair<unsigned char const ,long> > > > >,0> >::find
PUBLIC	??8?$_Tree_const_iterator@V?$_Tree_val@U?$_Tree_simple_types@U?$pair@$$CBEV?$map@EJU?$less@E@std@@V?$allocator@U?$pair@$$CBEJ@std@@@2@@std@@@std@@@std@@@std@@@std@@QBE_NABV01@@Z ; std::_Tree_const_iterator<std::_Tree_val<std::_Tree_simple_types<std::pair<unsigned char const ,std::map<unsigned char,long,std::less<unsigned char>,std::allocator<std::pair<unsigned char const ,long> > > > > > >::operator==
PUBLIC	??C?$_Tree_iterator@V?$_Tree_val@U?$_Tree_simple_types@U?$pair@$$CBEV?$map@EJU?$less@E@std@@V?$allocator@U?$pair@$$CBEJ@std@@@2@@std@@@std@@@std@@@std@@@std@@QBEPAU?$pair@$$CBEV?$map@EJU?$less@E@std@@V?$allocator@U?$pair@$$CBEJ@std@@@2@@std@@@1@XZ ; std::_Tree_iterator<std::_Tree_val<std::_Tree_simple_types<std::pair<unsigned char const ,std::map<unsigned char,long,std::less<unsigned char>,std::allocator<std::pair<unsigned char const ,long> > > > > > >::operator->
PUBLIC	??1?$_Tree@V?$_Tmap_traits@EJU?$less@E@std@@V?$allocator@U?$pair@$$CBEJ@std@@@2@$0A@@std@@@std@@QAE@XZ ; std::_Tree<std::_Tmap_traits<unsigned char,long,std::less<unsigned char>,std::allocator<std::pair<unsigned char const ,long> >,0> >::~_Tree<std::_Tmap_traits<unsigned char,long,std::less<unsigned char>,std::allocator<std::pair<unsigned char const ,long> >,0> >
PUBLIC	?end@?$_Tree@V?$_Tmap_traits@EJU?$less@E@std@@V?$allocator@U?$pair@$$CBEJ@std@@@2@$0A@@std@@@std@@QAE?AV?$_Tree_iterator@V?$_Tree_val@U?$_Tree_simple_types@U?$pair@$$CBEJ@std@@@std@@@std@@@2@XZ ; std::_Tree<std::_Tmap_traits<unsigned char,long,std::less<unsigned char>,std::allocator<std::pair<unsigned char const ,long> >,0> >::end
PUBLIC	?_Unchecked_begin@?$_Tree@V?$_Tmap_traits@EJU?$less@E@std@@V?$allocator@U?$pair@$$CBEJ@std@@@2@$0A@@std@@@std@@QAE?AV?$_Tree_unchecked_iterator@V?$_Tree_val@U?$_Tree_simple_types@U?$pair@$$CBEJ@std@@@std@@@std@@@2@XZ ; std::_Tree<std::_Tmap_traits<unsigned char,long,std::less<unsigned char>,std::allocator<std::pair<unsigned char const ,long> >,0> >::_Unchecked_begin
PUBLIC	?_Unchecked_end@?$_Tree@V?$_Tmap_traits@EJU?$less@E@std@@V?$allocator@U?$pair@$$CBEJ@std@@@2@$0A@@std@@@std@@QBE?AU_Default_sentinel@2@XZ ; std::_Tree<std::_Tmap_traits<unsigned char,long,std::less<unsigned char>,std::allocator<std::pair<unsigned char const ,long> >,0> >::_Unchecked_end
PUBLIC	?find@?$_Tree@V?$_Tmap_traits@EJU?$less@E@std@@V?$allocator@U?$pair@$$CBEJ@std@@@2@$0A@@std@@@std@@QAE?AV?$_Tree_iterator@V?$_Tree_val@U?$_Tree_simple_types@U?$pair@$$CBEJ@std@@@std@@@std@@@2@ABE@Z ; std::_Tree<std::_Tmap_traits<unsigned char,long,std::less<unsigned char>,std::allocator<std::pair<unsigned char const ,long> >,0> >::find
PUBLIC	??8?$_Tree_const_iterator@V?$_Tree_val@U?$_Tree_simple_types@U?$pair@$$CBEJ@std@@@std@@@std@@@std@@QBE_NABV01@@Z ; std::_Tree_const_iterator<std::_Tree_val<std::_Tree_simple_types<std::pair<unsigned char const ,long> > > >::operator==
PUBLIC	??C?$_Tree_iterator@V?$_Tree_val@U?$_Tree_simple_types@U?$pair@$$CBEJ@std@@@std@@@std@@@std@@QBEPAU?$pair@$$CBEJ@1@XZ ; std::_Tree_iterator<std::_Tree_val<std::_Tree_simple_types<std::pair<unsigned char const ,long> > > >::operator->
PUBLIC	??8?$_Tree_unchecked_const_iterator@V?$_Tree_val@U?$_Tree_simple_types@U?$pair@$$CBEJ@std@@@std@@@std@@U_Iterator_base0@2@@std@@QBE_NU_Default_sentinel@1@@Z ; std::_Tree_unchecked_const_iterator<std::_Tree_val<std::_Tree_simple_types<std::pair<unsigned char const ,long> > >,std::_Iterator_base0>::operator==
PUBLIC	??D?$_Tree_unchecked_iterator@V?$_Tree_val@U?$_Tree_simple_types@U?$pair@$$CBEJ@std@@@std@@@std@@@std@@QBEAAU?$pair@$$CBEJ@1@XZ ; std::_Tree_unchecked_iterator<std::_Tree_val<std::_Tree_simple_types<std::pair<unsigned char const ,long> > > >::operator*
PUBLIC	??E?$_Tree_unchecked_iterator@V?$_Tree_val@U?$_Tree_simple_types@U?$pair@$$CBEJ@std@@@std@@@std@@@std@@QAEAAV01@XZ ; std::_Tree_unchecked_iterator<std::_Tree_val<std::_Tree_simple_types<std::pair<unsigned char const ,long> > > >::operator++
PUBLIC	?_Unwrapped@?$_Vector_iterator@V?$_Vector_val@U?$_Simple_types@UTPlayerItemAttribute@@@std@@@std@@@std@@QBEPAUTPlayerItemAttribute@@XZ ; std::_Vector_iterator<std::_Vector_val<std::_Simple_types<TPlayerItemAttribute> > >::_Unwrapped
PUBLIC	??$_Get_unwrapped@ABV?$_Vector_iterator@V?$_Vector_val@U?$_Simple_types@UTPlayerItemAttribute@@@std@@@std@@@std@@@std@@YA?A_TABV?$_Vector_iterator@V?$_Vector_val@U?$_Simple_types@UTPlayerItemAttribute@@@std@@@std@@@0@@Z ; std::_Get_unwrapped<std::_Vector_iterator<std::_Vector_val<std::_Simple_types<TPlayerItemAttribute> > > const &>
PUBLIC	??$emplace_back@AAUTPlayerItemAttribute@@@?$vector@UTPlayerItemAttribute@@V?$allocator@UTPlayerItemAttribute@@@std@@@std@@QAEAAUTPlayerItemAttribute@@AAU2@@Z ; std::vector<TPlayerItemAttribute,std::allocator<TPlayerItemAttribute> >::emplace_back<TPlayerItemAttribute &>
PUBLIC	??$insert@U?$pair@EV?$map@EJU?$less@E@std@@V?$allocator@U?$pair@$$CBEJ@std@@@2@@std@@@std@@$0A@@?$map@EV?$map@EJU?$less@E@std@@V?$allocator@U?$pair@$$CBEJ@std@@@2@@std@@U?$less@E@2@V?$allocator@U?$pair@$$CBEV?$map@EJU?$less@E@std@@V?$allocator@U?$pair@$$CBEJ@std@@@2@@std@@@std@@@2@@std@@QAE?AU?$pair@V?$_Tree_iterator@V?$_Tree_val@U?$_Tree_simple_types@U?$pair@$$CBEV?$map@EJU?$less@E@std@@V?$allocator@U?$pair@$$CBEJ@std@@@2@@std@@@std@@@std@@@std@@@std@@_N@1@$$QAU?$pair@EV?$map@EJU?$less@E@std@@V?$allocator@U?$pair@$$CBEJ@std@@@2@@std@@@1@@Z ; std::map<unsigned char,std::map<unsigned char,long,std::less<unsigned char>,std::allocator<std::pair<unsigned char const ,long> > >,std::less<unsigned char>,std::allocator<std::pair<unsigned char const ,std::map<unsigned char,long,std::less<unsigned char>,std::allocator<std::pair<unsigned char const ,long> > > > > >::insert<std::pair<unsigned char,std::map<unsigned char,long,std::less<unsigned char>,std::allocator<std::pair<unsigned char const ,long> > > >,0>
PUBLIC	??$make_pair@ABEAAV?$map@EJU?$less@E@std@@V?$allocator@U?$pair@$$CBEJ@std@@@2@@std@@@std@@YA?AU?$pair@EV?$map@EJU?$less@E@std@@V?$allocator@U?$pair@$$CBEJ@std@@@2@@std@@@0@ABEAAV?$map@EJU?$less@E@std@@V?$allocator@U?$pair@$$CBEJ@std@@@2@@0@@Z ; std::make_pair<unsigned char const &,std::map<unsigned char,long,std::less<unsigned char>,std::allocator<std::pair<unsigned char const ,long> > > &>
PUBLIC	??$insert@U?$pair@HJ@std@@$0A@@?$map@EJU?$less@E@std@@V?$allocator@U?$pair@$$CBEJ@std@@@2@@std@@QAE?AU?$pair@V?$_Tree_iterator@V?$_Tree_val@U?$_Tree_simple_types@U?$pair@$$CBEJ@std@@@std@@@std@@@std@@_N@1@$$QAU?$pair@HJ@1@@Z ; std::map<unsigned char,long,std::less<unsigned char>,std::allocator<std::pair<unsigned char const ,long> > >::insert<std::pair<int,long>,0>
PUBLIC	??$make_pair@ABHABJ@std@@YA?AU?$pair@HJ@0@ABHABJ@Z ; std::make_pair<int const &,long const &>
PUBLIC	??$emplace_back@ABUTSwitchbotAttributeAlternativeTable@CPythonSwitchbot@@@?$vector@UTSwitchbotAttributeAlternativeTable@CPythonSwitchbot@@V?$allocator@UTSwitchbotAttributeAlternativeTable@CPythonSwitchbot@@@std@@@std@@QAEAAUTSwitchbotAttributeAlternativeTable@CPythonSwitchbot@@ABU23@@Z ; std::vector<CPythonSwitchbot::TSwitchbotAttributeAlternativeTable,std::allocator<CPythonSwitchbot::TSwitchbotAttributeAlternativeTable> >::emplace_back<CPythonSwitchbot::TSwitchbotAttributeAlternativeTable const &>
PUBLIC	?initSwitchbot@@YAXXZ				; initSwitchbot
PUBLIC	?switchbotStop@@YAPAU_object@@PAU1@0@Z		; switchbotStop
PUBLIC	?switchbotStart@@YAPAU_object@@PAU1@0@Z		; switchbotStart
PUBLIC	?switchbotGetAttributeMaxValue@@YAPAU_object@@PAU1@0@Z ; switchbotGetAttributeMaxValue
PUBLIC	?switchbotGetAttributesForSet@@YAPAU_object@@PAU1@0@Z ; switchbotGetAttributesForSet
PUBLIC	?switchbotClearSlot@@YAPAU_object@@PAU1@0@Z	; switchbotClearSlot
PUBLIC	?switchbotSetAttribute@@YAPAU_object@@PAU1@0@Z	; switchbotSetAttribute
PUBLIC	?switchbotGetAttribute@@YAPAU_object@@PAU1@0@Z	; switchbotGetAttribute
PUBLIC	?switchbotIsFinished@@YAPAU_object@@PAU1@0@Z	; switchbotIsFinished
PUBLIC	?switchbotIsActive@@YAPAU_object@@PAU1@0@Z	; switchbotIsActive
PUBLIC	?GetAttributeMaxValue@CPythonSwitchbot@@QAEJHE@Z ; CPythonSwitchbot::GetAttributeMaxValue
PUBLIC	?GetAttributesBySet@CPythonSwitchbot@@QAEXHAAV?$vector@UTPlayerItemAttribute@@V?$allocator@UTPlayerItemAttribute@@@std@@@std@@@Z ; CPythonSwitchbot::GetAttributesBySet
PUBLIC	??1?$pair@EV?$map@EJU?$less@E@std@@V?$allocator@U?$pair@$$CBEJ@std@@@2@@std@@@std@@QAE@XZ ; std::pair<unsigned char,std::map<unsigned char,long,std::less<unsigned char>,std::allocator<std::pair<unsigned char const ,long> > > >::~pair<unsigned char,std::map<unsigned char,long,std::less<unsigned char>,std::allocator<std::pair<unsigned char const ,long> > > >
PUBLIC	??1?$map@EJU?$less@E@std@@V?$allocator@U?$pair@$$CBEJ@std@@@2@@std@@QAE@XZ ; std::map<unsigned char,long,std::less<unsigned char>,std::allocator<std::pair<unsigned char const ,long> > >::~map<unsigned char,long,std::less<unsigned char>,std::allocator<std::pair<unsigned char const ,long> > >
PUBLIC	?ClearSlot@CPythonSwitchbot@@QAEXE@Z		; CPythonSwitchbot::ClearSlot
PUBLIC	?IsFinished@CPythonSwitchbot@@QAE_NE@Z		; CPythonSwitchbot::IsFinished
PUBLIC	?IsActive@CPythonSwitchbot@@QAE_NE@Z		; CPythonSwitchbot::IsActive
PUBLIC	?GetAttibuteSet@CPythonSwitchbot@@QAEHE@Z	; CPythonSwitchbot::GetAttibuteSet
PUBLIC	?GetAlternatives@CPythonSwitchbot@@QAEXEAAV?$vector@UTSwitchbotAttributeAlternativeTable@CPythonSwitchbot@@V?$allocator@UTSwitchbotAttributeAlternativeTable@CPythonSwitchbot@@@std@@@std@@@Z ; CPythonSwitchbot::GetAlternatives
PUBLIC	?GetAttribute@CPythonSwitchbot@@QAE?AUTPlayerItemAttribute@@EEE@Z ; CPythonSwitchbot::GetAttribute
PUBLIC	?SetAttribute@CPythonSwitchbot@@QAEXEEEEH@Z	; CPythonSwitchbot::SetAttribute
PUBLIC	?Initialize@CPythonSwitchbot@@QAEXXZ		; CPythonSwitchbot::Initialize
PUBLIC	??1?$map@EV?$map@EJU?$less@E@std@@V?$allocator@U?$pair@$$CBEJ@std@@@2@@std@@U?$less@E@2@V?$allocator@U?$pair@$$CBEV?$map@EJU?$less@E@std@@V?$allocator@U?$pair@$$CBEJ@std@@@2@@std@@@std@@@2@@std@@QAE@XZ ; std::map<unsigned char,std::map<unsigned char,long,std::less<unsigned char>,std::allocator<std::pair<unsigned char const ,long> > >,std::less<unsigned char>,std::allocator<std::pair<unsigned char const ,std::map<unsigned char,long,std::less<unsigned char>,std::allocator<std::pair<unsigned char const ,long> > > > > >::~map<unsigned char,std::map<unsigned char,long,std::less<unsigned char>,std::allocator<std::pair<unsigned char const ,long> > >,std::less<unsigned char>,std::allocator<std::pair<unsigned char const ,std::map<unsigned char,long,std::less<unsigned char>,std::allocator<std::pair<unsigned char const ,long> > > > > >
PUBLIC	??_GCPythonSwitchbot@@UAEPAXI@Z			; CPythonSwitchbot::`scalar deleting destructor'
PUBLIC	?Update@CPythonSwitchbot@@QAEXABUTSwitchbotTable@1@@Z ; CPythonSwitchbot::Update
PUBLIC	?ClearAttributeMap@CPythonSwitchbot@@QAEXXZ	; CPythonSwitchbot::ClearAttributeMap
PUBLIC	?AddAttributeToMap@CPythonSwitchbot@@QAEXABUTSwitchbottAttributeTable@1@@Z ; CPythonSwitchbot::AddAttributeToMap
PUBLIC	??0CPythonSwitchbot@@QAE@XZ			; CPythonSwitchbot::CPythonSwitchbot
PUBLIC	??1CPythonSwitchbot@@UAE@XZ			; CPythonSwitchbot::~CPythonSwitchbot
EXTRN	??_ECPythonSwitchbot@@UAEPAXI@Z:PROC		; CPythonSwitchbot::`vector deleting destructor'
EXTRN	??_E?$CSingleton@VCPythonSwitchbot@@@@UAEPAXI@Z:PROC ; CSingleton<CPythonSwitchbot>::`vector deleting destructor'
;	COMDAT xdata$x
xdata$x	SEGMENT
__ehfuncinfo$??0CPythonSwitchbot@@QAE@XZ DQ 00000000119930522r ; 2.33398e-314
	DD	FLAT:__unwindtable$??0CPythonSwitchbot@@QAE@XZ
	DQ	00000000000000000r		; 0
	DQ	00000000000000000r		; 0
	DQ	00000000100000000r		; 2.122e-314
__unwindtable$??0CPythonSwitchbot@@QAE@XZ DD 0ffffffffH
	DD	FLAT:__unwindfunclet$??0CPythonSwitchbot@@QAE@XZ$0
xdata$x	ENDS
;	COMDAT xdata$x
xdata$x	SEGMENT
__ehfuncinfo$?AddAttributeToMap@CPythonSwitchbot@@QAEXABUTSwitchbottAttributeTable@1@@Z DQ 00000000519930522r ; 1.0822e-313
	DD	FLAT:__unwindtable$?AddAttributeToMap@CPythonSwitchbot@@QAEXABUTSwitchbottAttributeTable@1@@Z
	DQ	00000000000000000r		; 0
	DQ	00000000000000000r		; 0
	DQ	00000000100000000r		; 2.122e-314
__unwindtable$?AddAttributeToMap@CPythonSwitchbot@@QAEXABUTSwitchbottAttributeTable@1@@Z DD 0ffffffffH
	DD	FLAT:__unwindfunclet$?AddAttributeToMap@CPythonSwitchbot@@QAEXABUTSwitchbottAttributeTable@1@@Z$0
	DD	00H
	DD	FLAT:__unwindfunclet$?AddAttributeToMap@CPythonSwitchbot@@QAEXABUTSwitchbottAttributeTable@1@@Z$6
	DD	00H
	DD	FLAT:__unwindfunclet$?AddAttributeToMap@CPythonSwitchbot@@QAEXABUTSwitchbottAttributeTable@1@@Z$1
	DD	02H
	DD	FLAT:__unwindfunclet$?AddAttributeToMap@CPythonSwitchbot@@QAEXABUTSwitchbottAttributeTable@1@@Z$9
	DD	02H
	DD	FLAT:__unwindfunclet$?AddAttributeToMap@CPythonSwitchbot@@QAEXABUTSwitchbottAttributeTable@1@@Z$8
xdata$x	ENDS
;	COMDAT xdata$x
xdata$x	SEGMENT
__ehfuncinfo$?switchbotGetAttributesForSet@@YAPAU_object@@PAU1@0@Z DQ 00000000119930522r ; 2.33398e-314
	DD	FLAT:__unwindtable$?switchbotGetAttributesForSet@@YAPAU_object@@PAU1@0@Z
	DQ	00000000000000000r		; 0
	DQ	00000000000000000r		; 0
	DQ	00000000100000000r		; 2.122e-314
__unwindtable$?switchbotGetAttributesForSet@@YAPAU_object@@PAU1@0@Z DD 0ffffffffH
	DD	FLAT:__unwindfunclet$?switchbotGetAttributesForSet@@YAPAU_object@@PAU1@0@Z$0
xdata$x	ENDS
;	COMDAT xdata$x
xdata$x	SEGMENT
__ehfuncinfo$?switchbotStart@@YAPAU_object@@PAU1@0@Z DQ 00000000119930522r ; 2.33398e-314
	DD	FLAT:__unwindtable$?switchbotStart@@YAPAU_object@@PAU1@0@Z
	DQ	00000000000000000r		; 0
	DQ	00000000000000000r		; 0
	DQ	00000000100000000r		; 2.122e-314
__unwindtable$?switchbotStart@@YAPAU_object@@PAU1@0@Z DD 0ffffffffH
	DD	FLAT:__unwindfunclet$?switchbotStart@@YAPAU_object@@PAU1@0@Z$0
xdata$x	ENDS
;	COMDAT xdata$x
xdata$x	SEGMENT
__ehfuncinfo$??$insert@U?$pair@HJ@std@@$0A@@?$map@EJU?$less@E@std@@V?$allocator@U?$pair@$$CBEJ@std@@@2@@std@@QAE?AU?$pair@V?$_Tree_iterator@V?$_Tree_val@U?$_Tree_simple_types@U?$pair@$$CBEJ@std@@@std@@@std@@@std@@_N@1@$$QAU?$pair@HJ@1@@Z DQ 00000000219930522r ; 4.45598e-314
	DD	FLAT:__unwindtable$??$insert@U?$pair@HJ@std@@$0A@@?$map@EJU?$less@E@std@@V?$allocator@U?$pair@$$CBEJ@std@@@2@@std@@QAE?AU?$pair@V?$_Tree_iterator@V?$_Tree_val@U?$_Tree_simple_types@U?$pair@$$CBEJ@std@@@std@@@std@@@std@@_N@1@$$QAU?$pair@HJ@1@@Z
	DQ	00000000000000000r		; 0
	DQ	00000000000000000r		; 0
	DQ	00000000100000000r		; 2.122e-314
__unwindtable$??$insert@U?$pair@HJ@std@@$0A@@?$map@EJU?$less@E@std@@V?$allocator@U?$pair@$$CBEJ@std@@@2@@std@@QAE?AU?$pair@V?$_Tree_iterator@V?$_Tree_val@U?$_Tree_simple_types@U?$pair@$$CBEJ@std@@@std@@@std@@@std@@_N@1@$$QAU?$pair@HJ@1@@Z DD 0ffffffffH
	DD	FLAT:__unwindfunclet$??$insert@U?$pair@HJ@std@@$0A@@?$map@EJU?$less@E@std@@V?$allocator@U?$pair@$$CBEJ@std@@@2@@std@@QAE?AU?$pair@V?$_Tree_iterator@V?$_Tree_val@U?$_Tree_simple_types@U?$pair@$$CBEJ@std@@@std@@@std@@@std@@_N@1@$$QAU?$pair@HJ@1@@Z$2
	DD	0ffffffffH
	DD	FLAT:__unwindfunclet$??$insert@U?$pair@HJ@std@@$0A@@?$map@EJU?$less@E@std@@V?$allocator@U?$pair@$$CBEJ@std@@@2@@std@@QAE?AU?$pair@V?$_Tree_iterator@V?$_Tree_val@U?$_Tree_simple_types@U?$pair@$$CBEJ@std@@@std@@@std@@@std@@_N@1@$$QAU?$pair@HJ@1@@Z$0
xdata$x	ENDS
;	COMDAT xdata$x
xdata$x	SEGMENT
__ehfuncinfo$??$make_pair@ABEAAV?$map@EJU?$less@E@std@@V?$allocator@U?$pair@$$CBEJ@std@@@2@@std@@@std@@YA?AU?$pair@EV?$map@EJU?$less@E@std@@V?$allocator@U?$pair@$$CBEJ@std@@@2@@std@@@0@ABEAAV?$map@EJU?$less@E@std@@V?$allocator@U?$pair@$$CBEJ@std@@@2@@0@@Z DQ 00000000119930522r ; 2.33398e-314
	DD	FLAT:__unwindtable$??$make_pair@ABEAAV?$map@EJU?$less@E@std@@V?$allocator@U?$pair@$$CBEJ@std@@@2@@std@@@std@@YA?AU?$pair@EV?$map@EJU?$less@E@std@@V?$allocator@U?$pair@$$CBEJ@std@@@2@@std@@@0@ABEAAV?$map@EJU?$less@E@std@@V?$allocator@U?$pair@$$CBEJ@std@@@2@@0@@Z
	DQ	00000000000000000r		; 0
	DQ	00000000000000000r		; 0
	DQ	00000000100000000r		; 2.122e-314
__unwindtable$??$make_pair@ABEAAV?$map@EJU?$less@E@std@@V?$allocator@U?$pair@$$CBEJ@std@@@2@@std@@@std@@YA?AU?$pair@EV?$map@EJU?$less@E@std@@V?$allocator@U?$pair@$$CBEJ@std@@@2@@std@@@0@ABEAAV?$map@EJU?$less@E@std@@V?$allocator@U?$pair@$$CBEJ@std@@@2@@0@@Z DD 0ffffffffH
	DD	FLAT:__unwindfunclet$??$make_pair@ABEAAV?$map@EJU?$less@E@std@@V?$allocator@U?$pair@$$CBEJ@std@@@2@@std@@@std@@YA?AU?$pair@EV?$map@EJU?$less@E@std@@V?$allocator@U?$pair@$$CBEJ@std@@@2@@std@@@0@ABEAAV?$map@EJU?$less@E@std@@V?$allocator@U?$pair@$$CBEJ@std@@@2@@0@@Z$3
xdata$x	ENDS
;	COMDAT xdata$x
xdata$x	SEGMENT
__ehfuncinfo$??$insert@U?$pair@EV?$map@EJU?$less@E@std@@V?$allocator@U?$pair@$$CBEJ@std@@@2@@std@@@std@@$0A@@?$map@EV?$map@EJU?$less@E@std@@V?$allocator@U?$pair@$$CBEJ@std@@@2@@std@@U?$less@E@2@V?$allocator@U?$pair@$$CBEV?$map@EJU?$less@E@std@@V?$allocator@U?$pair@$$CBEJ@std@@@2@@std@@@std@@@2@@std@@QAE?AU?$pair@V?$_Tree_iterator@V?$_Tree_val@U?$_Tree_simple_types@U?$pair@$$CBEV?$map@EJU?$less@E@std@@V?$allocator@U?$pair@$$CBEJ@std@@@2@@std@@@std@@@std@@@std@@@std@@_N@1@$$QAU?$pair@EV?$map@EJU?$less@E@std@@V?$allocator@U?$pair@$$CBEJ@std@@@2@@std@@@1@@Z DQ 00000000219930522r ; 4.45598e-314
	DD	FLAT:__unwindtable$??$insert@U?$pair@EV?$map@EJU?$less@E@std@@V?$allocator@U?$pair@$$CBEJ@std@@@2@@std@@@std@@$0A@@?$map@EV?$map@EJU?$less@E@std@@V?$allocator@U?$pair@$$CBEJ@std@@@2@@std@@U?$less@E@2@V?$allocator@U?$pair@$$CBEV?$map@EJU?$less@E@std@@V?$allocator@U?$pair@$$CBEJ@std@@@2@@std@@@std@@@2@@std@@QAE?AU?$pair@V?$_Tree_iterator@V?$_Tree_val@U?$_Tree_simple_types@U?$pair@$$CBEV?$map@EJU?$less@E@std@@V?$allocator@U?$pair@$$CBEJ@std@@@2@@std@@@std@@@std@@@std@@@std@@_N@1@$$QAU?$pair@EV?$map@EJU?$less@E@std@@V?$allocator@U?$pair@$$CBEJ@std@@@2@@std@@@1@@Z
	DQ	00000000000000000r		; 0
	DQ	00000000000000000r		; 0
	DQ	00000000100000000r		; 2.122e-314
__unwindtable$??$insert@U?$pair@EV?$map@EJU?$less@E@std@@V?$allocator@U?$pair@$$CBEJ@std@@@2@@std@@@std@@$0A@@?$map@EV?$map@EJU?$less@E@std@@V?$allocator@U?$pair@$$CBEJ@std@@@2@@std@@U?$less@E@2@V?$allocator@U?$pair@$$CBEV?$map@EJU?$less@E@std@@V?$allocator@U?$pair@$$CBEJ@std@@@2@@std@@@std@@@2@@std@@QAE?AU?$pair@V?$_Tree_iterator@V?$_Tree_val@U?$_Tree_simple_types@U?$pair@$$CBEV?$map@EJU?$less@E@std@@V?$allocator@U?$pair@$$CBEJ@std@@@2@@std@@@std@@@std@@@std@@@std@@_N@1@$$QAU?$pair@EV?$map@EJU?$less@E@std@@V?$allocator@U?$pair@$$CBEJ@std@@@2@@std@@@1@@Z DD 0ffffffffH
	DD	FLAT:__unwindfunclet$??$insert@U?$pair@EV?$map@EJU?$less@E@std@@V?$allocator@U?$pair@$$CBEJ@std@@@2@@std@@@std@@$0A@@?$map@EV?$map@EJU?$less@E@std@@V?$allocator@U?$pair@$$CBEJ@std@@@2@@std@@U?$less@E@2@V?$allocator@U?$pair@$$CBEV?$map@EJU?$less@E@std@@V?$allocator@U?$pair@$$CBEJ@std@@@2@@std@@@std@@@2@@std@@QAE?AU?$pair@V?$_Tree_iterator@V?$_Tree_val@U?$_Tree_simple_types@U?$pair@$$CBEV?$map@EJU?$less@E@std@@V?$allocator@U?$pair@$$CBEJ@std@@@2@@std@@@std@@@std@@@std@@@std@@_N@1@$$QAU?$pair@EV?$map@EJU?$less@E@std@@V?$allocator@U?$pair@$$CBEJ@std@@@2@@std@@@1@@Z$2
	DD	0ffffffffH
	DD	FLAT:__unwindfunclet$??$insert@U?$pair@EV?$map@EJU?$less@E@std@@V?$allocator@U?$pair@$$CBEJ@std@@@2@@std@@@std@@$0A@@?$map@EV?$map@EJU?$less@E@std@@V?$allocator@U?$pair@$$CBEJ@std@@@2@@std@@U?$less@E@2@V?$allocator@U?$pair@$$CBEV?$map@EJU?$less@E@std@@V?$allocator@U?$pair@$$CBEJ@std@@@2@@std@@@std@@@2@@std@@QAE?AU?$pair@V?$_Tree_iterator@V?$_Tree_val@U?$_Tree_simple_types@U?$pair@$$CBEV?$map@EJU?$less@E@std@@V?$allocator@U?$pair@$$CBEJ@std@@@2@@std@@@std@@@std@@@std@@@std@@_N@1@$$QAU?$pair@EV?$map@EJU?$less@E@std@@V?$allocator@U?$pair@$$CBEJ@std@@@2@@std@@@1@@Z$1
xdata$x	ENDS
;	COMDAT xdata$x
xdata$x	SEGMENT
__ehfuncinfo$??$emplace@U?$pair@HJ@std@@@?$_Tree@V?$_Tmap_traits@EJU?$less@E@std@@V?$allocator@U?$pair@$$CBEJ@std@@@2@$0A@@std@@@std@@QAE?AU?$pair@V?$_Tree_iterator@V?$_Tree_val@U?$_Tree_simple_types@U?$pair@$$CBEJ@std@@@std@@@std@@@std@@_N@1@$$QAU?$pair@HJ@1@@Z DQ 00000000219930522r ; 4.45598e-314
	DD	FLAT:__unwindtable$??$emplace@U?$pair@HJ@std@@@?$_Tree@V?$_Tmap_traits@EJU?$less@E@std@@V?$allocator@U?$pair@$$CBEJ@std@@@2@$0A@@std@@@std@@QAE?AU?$pair@V?$_Tree_iterator@V?$_Tree_val@U?$_Tree_simple_types@U?$pair@$$CBEJ@std@@@std@@@std@@@std@@_N@1@$$QAU?$pair@HJ@1@@Z
	DQ	00000000000000000r		; 0
	DQ	00000000000000000r		; 0
	DQ	00000000100000000r		; 2.122e-314
__unwindtable$??$emplace@U?$pair@HJ@std@@@?$_Tree@V?$_Tmap_traits@EJU?$less@E@std@@V?$allocator@U?$pair@$$CBEJ@std@@@2@$0A@@std@@@std@@QAE?AU?$pair@V?$_Tree_iterator@V?$_Tree_val@U?$_Tree_simple_types@U?$pair@$$CBEJ@std@@@std@@@std@@@std@@_N@1@$$QAU?$pair@HJ@1@@Z DD 0ffffffffH
	DD	FLAT:__unwindfunclet$??$emplace@U?$pair@HJ@std@@@?$_Tree@V?$_Tmap_traits@EJU?$less@E@std@@V?$allocator@U?$pair@$$CBEJ@std@@@2@$0A@@std@@@std@@QAE?AU?$pair@V?$_Tree_iterator@V?$_Tree_val@U?$_Tree_simple_types@U?$pair@$$CBEJ@std@@@std@@@std@@@std@@_N@1@$$QAU?$pair@HJ@1@@Z$2
	DD	0ffffffffH
	DD	FLAT:__unwindfunclet$??$emplace@U?$pair@HJ@std@@@?$_Tree@V?$_Tmap_traits@EJU?$less@E@std@@V?$allocator@U?$pair@$$CBEJ@std@@@2@$0A@@std@@@std@@QAE?AU?$pair@V?$_Tree_iterator@V?$_Tree_val@U?$_Tree_simple_types@U?$pair@$$CBEJ@std@@@std@@@std@@@std@@_N@1@$$QAU?$pair@HJ@1@@Z$0
xdata$x	ENDS
;	COMDAT xdata$x
xdata$x	SEGMENT
__ehfuncinfo$??$?0ABEAAV?$map@EJU?$less@E@std@@V?$allocator@U?$pair@$$CBEJ@std@@@2@@std@@$0A@@?$pair@EV?$map@EJU?$less@E@std@@V?$allocator@U?$pair@$$CBEJ@std@@@2@@std@@@std@@QAE@ABEAAV?$map@EJU?$less@E@std@@V?$allocator@U?$pair@$$CBEJ@std@@@2@@1@@Z DQ 00000000119930522r ; 2.33398e-314
	DD	FLAT:__unwindtable$??$?0ABEAAV?$map@EJU?$less@E@std@@V?$allocator@U?$pair@$$CBEJ@std@@@2@@std@@$0A@@?$pair@EV?$map@EJU?$less@E@std@@V?$allocator@U?$pair@$$CBEJ@std@@@2@@std@@@std@@QAE@ABEAAV?$map@EJU?$less@E@std@@V?$allocator@U?$pair@$$CBEJ@std@@@2@@1@@Z
	DQ	00000000000000000r		; 0
	DQ	00000000000000000r		; 0
	DQ	00000000100000000r		; 2.122e-314
__unwindtable$??$?0ABEAAV?$map@EJU?$less@E@std@@V?$allocator@U?$pair@$$CBEJ@std@@@2@@std@@$0A@@?$pair@EV?$map@EJU?$less@E@std@@V?$allocator@U?$pair@$$CBEJ@std@@@2@@std@@@std@@QAE@ABEAAV?$map@EJU?$less@E@std@@V?$allocator@U?$pair@$$CBEJ@std@@@2@@1@@Z DD 0ffffffffH
	DD	FLAT:__unwindfunclet$??$?0ABEAAV?$map@EJU?$less@E@std@@V?$allocator@U?$pair@$$CBEJ@std@@@2@@std@@$0A@@?$pair@EV?$map@EJU?$less@E@std@@V?$allocator@U?$pair@$$CBEJ@std@@@2@@std@@@std@@QAE@ABEAAV?$map@EJU?$less@E@std@@V?$allocator@U?$pair@$$CBEJ@std@@@2@@1@@Z$2
xdata$x	ENDS
;	COMDAT xdata$x
xdata$x	SEGMENT
__ehfuncinfo$??$emplace@U?$pair@EV?$map@EJU?$less@E@std@@V?$allocator@U?$pair@$$CBEJ@std@@@2@@std@@@std@@@?$_Tree@V?$_Tmap_traits@EV?$map@EJU?$less@E@std@@V?$allocator@U?$pair@$$CBEJ@std@@@2@@std@@U?$less@E@2@V?$allocator@U?$pair@$$CBEV?$map@EJU?$less@E@std@@V?$allocator@U?$pair@$$CBEJ@std@@@2@@std@@@std@@@2@$0A@@std@@@std@@QAE?AU?$pair@V?$_Tree_iterator@V?$_Tree_val@U?$_Tree_simple_types@U?$pair@$$CBEV?$map@EJU?$less@E@std@@V?$allocator@U?$pair@$$CBEJ@std@@@2@@std@@@std@@@std@@@std@@@std@@_N@1@$$QAU?$pair@EV?$map@EJU?$less@E@std@@V?$allocator@U?$pair@$$CBEJ@std@@@2@@std@@@1@@Z DQ 00000000219930522r ; 4.45598e-314
	DD	FLAT:__unwindtable$??$emplace@U?$pair@EV?$map@EJU?$less@E@std@@V?$allocator@U?$pair@$$CBEJ@std@@@2@@std@@@std@@@?$_Tree@V?$_Tmap_traits@EV?$map@EJU?$less@E@std@@V?$allocator@U?$pair@$$CBEJ@std@@@2@@std@@U?$less@E@2@V?$allocator@U?$pair@$$CBEV?$map@EJU?$less@E@std@@V?$allocator@U?$pair@$$CBEJ@std@@@2@@std@@@std@@@2@$0A@@std@@@std@@QAE?AU?$pair@V?$_Tree_iterator@V?$_Tree_val@U?$_Tree_simple_types@U?$pair@$$CBEV?$map@EJU?$less@E@std@@V?$allocator@U?$pair@$$CBEJ@std@@@2@@std@@@std@@@std@@@std@@@std@@_N@1@$$QAU?$pair@EV?$map@EJU?$less@E@std@@V?$allocator@U?$pair@$$CBEJ@std@@@2@@std@@@1@@Z
	DQ	00000000000000000r		; 0
	DQ	00000000000000000r		; 0
	DQ	00000000100000000r		; 2.122e-314
__unwindtable$??$emplace@U?$pair@EV?$map@EJU?$less@E@std@@V?$allocator@U?$pair@$$CBEJ@std@@@2@@std@@@std@@@?$_Tree@V?$_Tmap_traits@EV?$map@EJU?$less@E@std@@V?$allocator@U?$pair@$$CBEJ@std@@@2@@std@@U?$less@E@2@V?$allocator@U?$pair@$$CBEV?$map@EJU?$less@E@std@@V?$allocator@U?$pair@$$CBEJ@std@@@2@@std@@@std@@@2@$0A@@std@@@std@@QAE?AU?$pair@V?$_Tree_iterator@V?$_Tree_val@U?$_Tree_simple_types@U?$pair@$$CBEV?$map@EJU?$less@E@std@@V?$allocator@U?$pair@$$CBEJ@std@@@2@@std@@@std@@@std@@@std@@@std@@_N@1@$$QAU?$pair@EV?$map@EJU?$less@E@std@@V?$allocator@U?$pair@$$CBEJ@std@@@2@@std@@@1@@Z DD 0ffffffffH
	DD	FLAT:__unwindfunclet$??$emplace@U?$pair@EV?$map@EJU?$less@E@std@@V?$allocator@U?$pair@$$CBEJ@std@@@2@@std@@@std@@@?$_Tree@V?$_Tmap_traits@EV?$map@EJU?$less@E@std@@V?$allocator@U?$pair@$$CBEJ@std@@@2@@std@@U?$less@E@2@V?$allocator@U?$pair@$$CBEV?$map@EJU?$less@E@std@@V?$allocator@U?$pair@$$CBEJ@std@@@2@@std@@@std@@@2@$0A@@std@@@std@@QAE?AU?$pair@V?$_Tree_iterator@V?$_Tree_val@U?$_Tree_simple_types@U?$pair@$$CBEV?$map@EJU?$less@E@std@@V?$allocator@U?$pair@$$CBEJ@std@@@2@@std@@@std@@@std@@@std@@@std@@_N@1@$$QAU?$pair@EV?$map@EJU?$less@E@std@@V?$allocator@U?$pair@$$CBEJ@std@@@2@@std@@@1@@Z$2
	DD	0ffffffffH
	DD	FLAT:__unwindfunclet$??$emplace@U?$pair@EV?$map@EJU?$less@E@std@@V?$allocator@U?$pair@$$CBEJ@std@@@2@@std@@@std@@@?$_Tree@V?$_Tmap_traits@EV?$map@EJU?$less@E@std@@V?$allocator@U?$pair@$$CBEJ@std@@@2@@std@@U?$less@E@2@V?$allocator@U?$pair@$$CBEV?$map@EJU?$less@E@std@@V?$allocator@U?$pair@$$CBEJ@std@@@2@@std@@@std@@@2@$0A@@std@@@std@@QAE?AU?$pair@V?$_Tree_iterator@V?$_Tree_val@U?$_Tree_simple_types@U?$pair@$$CBEV?$map@EJU?$less@E@std@@V?$allocator@U?$pair@$$CBEJ@std@@@2@@std@@@std@@@std@@@std@@@std@@_N@1@$$QAU?$pair@EV?$map@EJU?$less@E@std@@V?$allocator@U?$pair@$$CBEJ@std@@@2@@std@@@1@@Z$1
xdata$x	ENDS
;	COMDAT xdata$x
xdata$x	SEGMENT
__ehfuncinfo$??$_Emplace@U?$pair@HJ@std@@@?$_Tree@V?$_Tmap_traits@EJU?$less@E@std@@V?$allocator@U?$pair@$$CBEJ@std@@@2@$0A@@std@@@std@@IAE?AU?$pair@PAU?$_Tree_node@U?$pair@$$CBEJ@std@@PAX@std@@_N@1@$$QAU?$pair@HJ@1@@Z DQ 00000000219930522r ; 4.45598e-314
	DD	FLAT:__unwindtable$??$_Emplace@U?$pair@HJ@std@@@?$_Tree@V?$_Tmap_traits@EJU?$less@E@std@@V?$allocator@U?$pair@$$CBEJ@std@@@2@$0A@@std@@@std@@IAE?AU?$pair@PAU?$_Tree_node@U?$pair@$$CBEJ@std@@PAX@std@@_N@1@$$QAU?$pair@HJ@1@@Z
	DQ	00000000000000000r		; 0
	DQ	00000000000000000r		; 0
	DQ	00000000100000000r		; 2.122e-314
__unwindtable$??$_Emplace@U?$pair@HJ@std@@@?$_Tree@V?$_Tmap_traits@EJU?$less@E@std@@V?$allocator@U?$pair@$$CBEJ@std@@@2@$0A@@std@@@std@@IAE?AU?$pair@PAU?$_Tree_node@U?$pair@$$CBEJ@std@@PAX@std@@_N@1@$$QAU?$pair@HJ@1@@Z DD 0ffffffffH
	DD	FLAT:__unwindfunclet$??$_Emplace@U?$pair@HJ@std@@@?$_Tree@V?$_Tmap_traits@EJU?$less@E@std@@V?$allocator@U?$pair@$$CBEJ@std@@@2@$0A@@std@@@std@@IAE?AU?$pair@PAU?$_Tree_node@U?$pair@$$CBEJ@std@@PAX@std@@_N@1@$$QAU?$pair@HJ@1@@Z$2
	DD	0ffffffffH
	DD	FLAT:__unwindfunclet$??$_Emplace@U?$pair@HJ@std@@@?$_Tree@V?$_Tmap_traits@EJU?$less@E@std@@V?$allocator@U?$pair@$$CBEJ@std@@@2@$0A@@std@@@std@@IAE?AU?$pair@PAU?$_Tree_node@U?$pair@$$CBEJ@std@@PAX@std@@_N@1@$$QAU?$pair@HJ@1@@Z$0
xdata$x	ENDS
;	COMDAT xdata$x
xdata$x	SEGMENT
__ehfuncinfo$??$_Emplace@U?$pair@EV?$map@EJU?$less@E@std@@V?$allocator@U?$pair@$$CBEJ@std@@@2@@std@@@std@@@?$_Tree@V?$_Tmap_traits@EV?$map@EJU?$less@E@std@@V?$allocator@U?$pair@$$CBEJ@std@@@2@@std@@U?$less@E@2@V?$allocator@U?$pair@$$CBEV?$map@EJU?$less@E@std@@V?$allocator@U?$pair@$$CBEJ@std@@@2@@std@@@std@@@2@$0A@@std@@@std@@IAE?AU?$pair@PAU?$_Tree_node@U?$pair@$$CBEV?$map@EJU?$less@E@std@@V?$allocator@U?$pair@$$CBEJ@std@@@2@@std@@@std@@PAX@std@@_N@1@$$QAU?$pair@EV?$map@EJU?$less@E@std@@V?$allocator@U?$pair@$$CBEJ@std@@@2@@std@@@1@@Z DQ 00000000219930522r ; 4.45598e-314
	DD	FLAT:__unwindtable$??$_Emplace@U?$pair@EV?$map@EJU?$less@E@std@@V?$allocator@U?$pair@$$CBEJ@std@@@2@@std@@@std@@@?$_Tree@V?$_Tmap_traits@EV?$map@EJU?$less@E@std@@V?$allocator@U?$pair@$$CBEJ@std@@@2@@std@@U?$less@E@2@V?$allocator@U?$pair@$$CBEV?$map@EJU?$less@E@std@@V?$allocator@U?$pair@$$CBEJ@std@@@2@@std@@@std@@@2@$0A@@std@@@std@@IAE?AU?$pair@PAU?$_Tree_node@U?$pair@$$CBEV?$map@EJU?$less@E@std@@V?$allocator@U?$pair@$$CBEJ@std@@@2@@std@@@std@@PAX@std@@_N@1@$$QAU?$pair@EV?$map@EJU?$less@E@std@@V?$allocator@U?$pair@$$CBEJ@std@@@2@@std@@@1@@Z
	DQ	00000000000000000r		; 0
	DQ	00000000000000000r		; 0
	DQ	00000000100000000r		; 2.122e-314
__unwindtable$??$_Emplace@U?$pair@EV?$map@EJU?$less@E@std@@V?$allocator@U?$pair@$$CBEJ@std@@@2@@std@@@std@@@?$_Tree@V?$_Tmap_traits@EV?$map@EJU?$less@E@std@@V?$allocator@U?$pair@$$CBEJ@std@@@2@@std@@U?$less@E@2@V?$allocator@U?$pair@$$CBEV?$map@EJU?$less@E@std@@V?$allocator@U?$pair@$$CBEJ@std@@@2@@std@@@std@@@2@$0A@@std@@@std@@IAE?AU?$pair@PAU?$_Tree_node@U?$pair@$$CBEV?$map@EJU?$less@E@std@@V?$allocator@U?$pair@$$CBEJ@std@@@2@@std@@@std@@PAX@std@@_N@1@$$QAU?$pair@EV?$map@EJU?$less@E@std@@V?$allocator@U?$pair@$$CBEJ@std@@@2@@std@@@1@@Z DD 0ffffffffH
	DD	FLAT:__unwindfunclet$??$_Emplace@U?$pair@EV?$map@EJU?$less@E@std@@V?$allocator@U?$pair@$$CBEJ@std@@@2@@std@@@std@@@?$_Tree@V?$_Tmap_traits@EV?$map@EJU?$less@E@std@@V?$allocator@U?$pair@$$CBEJ@std@@@2@@std@@U?$less@E@2@V?$allocator@U?$pair@$$CBEV?$map@EJU?$less@E@std@@V?$allocator@U?$pair@$$CBEJ@std@@@2@@std@@@std@@@2@$0A@@std@@@std@@IAE?AU?$pair@PAU?$_Tree_node@U?$pair@$$CBEV?$map@EJU?$less@E@std@@V?$allocator@U?$pair@$$CBEJ@std@@@2@@std@@@std@@PAX@std@@_N@1@$$QAU?$pair@EV?$map@EJU?$less@E@std@@V?$allocator@U?$pair@$$CBEJ@std@@@2@@std@@@1@@Z$2
	DD	0ffffffffH
	DD	FLAT:__unwindfunclet$??$_Emplace@U?$pair@EV?$map@EJU?$less@E@std@@V?$allocator@U?$pair@$$CBEJ@std@@@2@@std@@@std@@@?$_Tree@V?$_Tmap_traits@EV?$map@EJU?$less@E@std@@V?$allocator@U?$pair@$$CBEJ@std@@@2@@std@@U?$less@E@2@V?$allocator@U?$pair@$$CBEV?$map@EJU?$less@E@std@@V?$allocator@U?$pair@$$CBEJ@std@@@2@@std@@@std@@@2@$0A@@std@@@std@@IAE?AU?$pair@PAU?$_Tree_node@U?$pair@$$CBEV?$map@EJU?$less@E@std@@V?$allocator@U?$pair@$$CBEJ@std@@@2@@std@@@std@@PAX@std@@_N@1@$$QAU?$pair@EV?$map@EJU?$less@E@std@@V?$allocator@U?$pair@$$CBEJ@std@@@2@@std@@@1@@Z$1
xdata$x	ENDS
;	COMDAT xdata$x
xdata$x	SEGMENT
__ehfuncinfo$??0?$map@EJU?$less@E@std@@V?$allocator@U?$pair@$$CBEJ@std@@@2@@std@@QAE@ABV01@@Z DQ 00000000119930522r ; 2.33398e-314
	DD	FLAT:__unwindtable$??0?$map@EJU?$less@E@std@@V?$allocator@U?$pair@$$CBEJ@std@@@2@@std@@QAE@ABV01@@Z
	DQ	00000000000000000r		; 0
	DQ	00000000000000000r		; 0
	DQ	00000000100000000r		; 2.122e-314
__unwindtable$??0?$map@EJU?$less@E@std@@V?$allocator@U?$pair@$$CBEJ@std@@@2@@std@@QAE@ABV01@@Z DD 0ffffffffH
	DD	FLAT:__unwindfunclet$??0?$map@EJU?$less@E@std@@V?$allocator@U?$pair@$$CBEJ@std@@@2@@std@@QAE@ABV01@@Z$1
xdata$x	ENDS
;	COMDAT xdata$x
xdata$x	SEGMENT
__ehfuncinfo$??$?0U?$pair@HJ@std@@@?$_Tree_temp_node@V?$allocator@U?$_Tree_node@U?$pair@$$CBEJ@std@@PAX@std@@@std@@@std@@QAE@AAV?$allocator@U?$_Tree_node@U?$pair@$$CBEJ@std@@PAX@std@@@1@PAU?$_Tree_node@U?$pair@$$CBEJ@std@@PAX@1@$$QAU?$pair@HJ@1@@Z DQ 00000000119930522r ; 2.33398e-314
	DD	FLAT:__unwindtable$??$?0U?$pair@HJ@std@@@?$_Tree_temp_node@V?$allocator@U?$_Tree_node@U?$pair@$$CBEJ@std@@PAX@std@@@std@@@std@@QAE@AAV?$allocator@U?$_Tree_node@U?$pair@$$CBEJ@std@@PAX@std@@@1@PAU?$_Tree_node@U?$pair@$$CBEJ@std@@PAX@1@$$QAU?$pair@HJ@1@@Z
	DQ	00000000000000000r		; 0
	DQ	00000000000000000r		; 0
	DQ	00000000100000000r		; 2.122e-314
__unwindtable$??$?0U?$pair@HJ@std@@@?$_Tree_temp_node@V?$allocator@U?$_Tree_node@U?$pair@$$CBEJ@std@@PAX@std@@@std@@@std@@QAE@AAV?$allocator@U?$_Tree_node@U?$pair@$$CBEJ@std@@PAX@std@@@1@PAU?$_Tree_node@U?$pair@$$CBEJ@std@@PAX@1@$$QAU?$pair@HJ@1@@Z DD 0ffffffffH
	DD	FLAT:__unwindfunclet$??$?0U?$pair@HJ@std@@@?$_Tree_temp_node@V?$allocator@U?$_Tree_node@U?$pair@$$CBEJ@std@@PAX@std@@@std@@@std@@QAE@AAV?$allocator@U?$_Tree_node@U?$pair@$$CBEJ@std@@PAX@std@@@1@PAU?$_Tree_node@U?$pair@$$CBEJ@std@@PAX@1@$$QAU?$pair@HJ@1@@Z$1
xdata$x	ENDS
;	COMDAT xdata$x
xdata$x	SEGMENT
__ehfuncinfo$??$?0U?$pair@EV?$map@EJU?$less@E@std@@V?$allocator@U?$pair@$$CBEJ@std@@@2@@std@@@std@@@?$_Tree_temp_node@V?$allocator@U?$_Tree_node@U?$pair@$$CBEV?$map@EJU?$less@E@std@@V?$allocator@U?$pair@$$CBEJ@std@@@2@@std@@@std@@PAX@std@@@std@@@std@@QAE@AAV?$allocator@U?$_Tree_node@U?$pair@$$CBEV?$map@EJU?$less@E@std@@V?$allocator@U?$pair@$$CBEJ@std@@@2@@std@@@std@@PAX@std@@@1@PAU?$_Tree_node@U?$pair@$$CBEV?$map@EJU?$less@E@std@@V?$allocator@U?$pair@$$CBEJ@std@@@2@@std@@@std@@PAX@1@$$QAU?$pair@EV?$map@EJU?$less@E@std@@V?$allocator@U?$pair@$$CBEJ@std@@@2@@std@@@1@@Z DQ 00000000219930522r ; 4.45598e-314
	DD	FLAT:__unwindtable$??$?0U?$pair@EV?$map@EJU?$less@E@std@@V?$allocator@U?$pair@$$CBEJ@std@@@2@@std@@@std@@@?$_Tree_temp_node@V?$allocator@U?$_Tree_node@U?$pair@$$CBEV?$map@EJU?$less@E@std@@V?$allocator@U?$pair@$$CBEJ@std@@@2@@std@@@std@@PAX@std@@@std@@@std@@QAE@AAV?$allocator@U?$_Tree_node@U?$pair@$$CBEV?$map@EJU?$less@E@std@@V?$allocator@U?$pair@$$CBEJ@std@@@2@@std@@@std@@PAX@std@@@1@PAU?$_Tree_node@U?$pair@$$CBEV?$map@EJU?$less@E@std@@V?$allocator@U?$pair@$$CBEJ@std@@@2@@std@@@std@@PAX@1@$$QAU?$pair@EV?$map@EJU?$less@E@std@@V?$allocator@U?$pair@$$CBEJ@std@@@2@@std@@@1@@Z
	DQ	00000000000000000r		; 0
	DQ	00000000000000000r		; 0
	DQ	00000000100000000r		; 2.122e-314
__unwindtable$??$?0U?$pair@EV?$map@EJU?$less@E@std@@V?$allocator@U?$pair@$$CBEJ@std@@@2@@std@@@std@@@?$_Tree_temp_node@V?$allocator@U?$_Tree_node@U?$pair@$$CBEV?$map@EJU?$less@E@std@@V?$allocator@U?$pair@$$CBEJ@std@@@2@@std@@@std@@PAX@std@@@std@@@std@@QAE@AAV?$allocator@U?$_Tree_node@U?$pair@$$CBEV?$map@EJU?$less@E@std@@V?$allocator@U?$pair@$$CBEJ@std@@@2@@std@@@std@@PAX@std@@@1@PAU?$_Tree_node@U?$pair@$$CBEV?$map@EJU?$less@E@std@@V?$allocator@U?$pair@$$CBEJ@std@@@2@@std@@@std@@PAX@1@$$QAU?$pair@EV?$map@EJU?$less@E@std@@V?$allocator@U?$pair@$$CBEJ@std@@@2@@std@@@1@@Z DD 0ffffffffH
	DD	FLAT:__unwindfunclet$??$?0U?$pair@EV?$map@EJU?$less@E@std@@V?$allocator@U?$pair@$$CBEJ@std@@@2@@std@@@std@@@?$_Tree_temp_node@V?$allocator@U?$_Tree_node@U?$pair@$$CBEV?$map@EJU?$less@E@std@@V?$allocator@U?$pair@$$CBEJ@std@@@2@@std@@@std@@PAX@std@@@std@@@std@@QAE@AAV?$allocator@U?$_Tree_node@U?$pair@$$CBEV?$map@EJU?$less@E@std@@V?$allocator@U?$pair@$$CBEJ@std@@@2@@std@@@std@@PAX@std@@@1@PAU?$_Tree_node@U?$pair@$$CBEV?$map@EJU?$less@E@std@@V?$allocator@U?$pair@$$CBEJ@std@@@2@@std@@@std@@PAX@1@$$QAU?$pair@EV?$map@EJU?$less@E@std@@V?$allocator@U?$pair@$$CBEJ@std@@@2@@std@@@1@@Z$1
	DD	0ffffffffH
	DD	FLAT:__unwindfunclet$??$?0U?$pair@EV?$map@EJU?$less@E@std@@V?$allocator@U?$pair@$$CBEJ@std@@@2@@std@@@std@@@?$_Tree_temp_node@V?$allocator@U?$_Tree_node@U?$pair@$$CBEV?$map@EJU?$less@E@std@@V?$allocator@U?$pair@$$CBEJ@std@@@2@@std@@@std@@PAX@std@@@std@@@std@@QAE@AAV?$allocator@U?$_Tree_node@U?$pair@$$CBEV?$map@EJU?$less@E@std@@V?$allocator@U?$pair@$$CBEJ@std@@@2@@std@@@std@@PAX@std@@@1@PAU?$_Tree_node@U?$pair@$$CBEV?$map@EJU?$less@E@std@@V?$allocator@U?$pair@$$CBEJ@std@@@2@@std@@@std@@PAX@1@$$QAU?$pair@EV?$map@EJU?$less@E@std@@V?$allocator@U?$pair@$$CBEJ@std@@@2@@std@@@1@@Z$0
xdata$x	ENDS
;	COMDAT xdata$x
xdata$x	SEGMENT
__ehfuncinfo$??$?0V?$allocator@U?$_Tree_node@U?$pair@$$CBEJ@std@@PAX@std@@@std@@@?$_Tree@V?$_Tmap_traits@EJU?$less@E@std@@V?$allocator@U?$pair@$$CBEJ@std@@@2@$0A@@std@@@std@@QAE@ABV01@$$QAV?$allocator@U?$_Tree_node@U?$pair@$$CBEJ@std@@PAX@std@@@1@@Z DQ 00000000119930522r ; 2.33398e-314
	DD	FLAT:__unwindtable$??$?0V?$allocator@U?$_Tree_node@U?$pair@$$CBEJ@std@@PAX@std@@@std@@@?$_Tree@V?$_Tmap_traits@EJU?$less@E@std@@V?$allocator@U?$pair@$$CBEJ@std@@@2@$0A@@std@@@std@@QAE@ABV01@$$QAV?$allocator@U?$_Tree_node@U?$pair@$$CBEJ@std@@PAX@std@@@1@@Z
	DQ	00000000000000000r		; 0
	DQ	00000000000000000r		; 0
	DQ	00000000100000000r		; 2.122e-314
__unwindtable$??$?0V?$allocator@U?$_Tree_node@U?$pair@$$CBEJ@std@@PAX@std@@@std@@@?$_Tree@V?$_Tmap_traits@EJU?$less@E@std@@V?$allocator@U?$pair@$$CBEJ@std@@@2@$0A@@std@@@std@@QAE@ABV01@$$QAV?$allocator@U?$_Tree_node@U?$pair@$$CBEJ@std@@PAX@std@@@1@@Z DD 0ffffffffH
	DD	FLAT:__unwindfunclet$??$?0V?$allocator@U?$_Tree_node@U?$pair@$$CBEJ@std@@PAX@std@@@std@@@?$_Tree@V?$_Tmap_traits@EJU?$less@E@std@@V?$allocator@U?$pair@$$CBEJ@std@@@2@$0A@@std@@@std@@QAE@ABV01@$$QAV?$allocator@U?$_Tree_node@U?$pair@$$CBEJ@std@@PAX@std@@@1@@Z$0
xdata$x	ENDS
;	COMDAT xdata$x
xdata$x	SEGMENT
__ehfuncinfo$??0?$_Tree_temp_node_alloc@V?$allocator@U?$_Tree_node@U?$pair@$$CBEV?$map@EJU?$less@E@std@@V?$allocator@U?$pair@$$CBEJ@std@@@2@@std@@@std@@PAX@std@@@std@@@std@@QAE@AAV?$allocator@U?$_Tree_node@U?$pair@$$CBEV?$map@EJU?$less@E@std@@V?$allocator@U?$pair@$$CBEJ@std@@@2@@std@@@std@@PAX@std@@@1@@Z DQ 00000000119930522r ; 2.33398e-314
	DD	FLAT:__unwindtable$??0?$_Tree_temp_node_alloc@V?$allocator@U?$_Tree_node@U?$pair@$$CBEV?$map@EJU?$less@E@std@@V?$allocator@U?$pair@$$CBEJ@std@@@2@@std@@@std@@PAX@std@@@std@@@std@@QAE@AAV?$allocator@U?$_Tree_node@U?$pair@$$CBEV?$map@EJU?$less@E@std@@V?$allocator@U?$pair@$$CBEJ@std@@@2@@std@@@std@@PAX@std@@@1@@Z
	DQ	00000000000000000r		; 0
	DQ	00000000000000000r		; 0
	DQ	00000000100000000r		; 2.122e-314
__unwindtable$??0?$_Tree_temp_node_alloc@V?$allocator@U?$_Tree_node@U?$pair@$$CBEV?$map@EJU?$less@E@std@@V?$allocator@U?$pair@$$CBEJ@std@@@2@@std@@@std@@PAX@std@@@std@@@std@@QAE@AAV?$allocator@U?$_Tree_node@U?$pair@$$CBEV?$map@EJU?$less@E@std@@V?$allocator@U?$pair@$$CBEJ@std@@@2@@std@@@std@@PAX@std@@@1@@Z DD 0ffffffffH
	DD	FLAT:__unwindfunclet$??0?$_Tree_temp_node_alloc@V?$allocator@U?$_Tree_node@U?$pair@$$CBEV?$map@EJU?$less@E@std@@V?$allocator@U?$pair@$$CBEJ@std@@@2@@std@@@std@@PAX@std@@@std@@@std@@QAE@AAV?$allocator@U?$_Tree_node@U?$pair@$$CBEV?$map@EJU?$less@E@std@@V?$allocator@U?$pair@$$CBEJ@std@@@2@@std@@@std@@PAX@std@@@1@@Z$0
xdata$x	ENDS
;	COMDAT xdata$x
xdata$x	SEGMENT
__ehfuncinfo$??0?$_Tree_temp_node_alloc@V?$allocator@U?$_Tree_node@U?$pair@$$CBEJ@std@@PAX@std@@@std@@@std@@QAE@AAV?$allocator@U?$_Tree_node@U?$pair@$$CBEJ@std@@PAX@std@@@1@@Z DQ 00000000119930522r ; 2.33398e-314
	DD	FLAT:__unwindtable$??0?$_Tree_temp_node_alloc@V?$allocator@U?$_Tree_node@U?$pair@$$CBEJ@std@@PAX@std@@@std@@@std@@QAE@AAV?$allocator@U?$_Tree_node@U?$pair@$$CBEJ@std@@PAX@std@@@1@@Z
	DQ	00000000000000000r		; 0
	DQ	00000000000000000r		; 0
	DQ	00000000100000000r		; 2.122e-314
__unwindtable$??0?$_Tree_temp_node_alloc@V?$allocator@U?$_Tree_node@U?$pair@$$CBEJ@std@@PAX@std@@@std@@@std@@QAE@AAV?$allocator@U?$_Tree_node@U?$pair@$$CBEJ@std@@PAX@std@@@1@@Z DD 0ffffffffH
	DD	FLAT:__unwindfunclet$??0?$_Tree_temp_node_alloc@V?$allocator@U?$_Tree_node@U?$pair@$$CBEJ@std@@PAX@std@@@std@@@std@@QAE@AAV?$allocator@U?$_Tree_node@U?$pair@$$CBEJ@std@@PAX@std@@@1@@Z$0
xdata$x	ENDS
;	COMDAT xdata$x
xdata$x	SEGMENT
__ehfuncinfo$??$_Copy_nodes@$0A@@?$_Tree@V?$_Tmap_traits@EJU?$less@E@std@@V?$allocator@U?$pair@$$CBEJ@std@@@2@$0A@@std@@@std@@IAEPAU?$_Tree_node@U?$pair@$$CBEJ@std@@PAX@1@PAU21@0@Z DQ 00000000219930522r ; 4.45598e-314
	DD	FLAT:__unwindtable$??$_Copy_nodes@$0A@@?$_Tree@V?$_Tmap_traits@EJU?$less@E@std@@V?$allocator@U?$pair@$$CBEJ@std@@@2@$0A@@std@@@std@@IAEPAU?$_Tree_node@U?$pair@$$CBEJ@std@@PAX@1@PAU21@0@Z
	DQ	00000000000000000r		; 0
	DQ	00000000000000000r		; 0
	DQ	00000000100000000r		; 2.122e-314
__unwindtable$??$_Copy_nodes@$0A@@?$_Tree@V?$_Tmap_traits@EJU?$less@E@std@@V?$allocator@U?$pair@$$CBEJ@std@@@2@$0A@@std@@@std@@IAEPAU?$_Tree_node@U?$pair@$$CBEJ@std@@PAX@1@PAU21@0@Z DD 0ffffffffH
	DD	FLAT:__unwindfunclet$??$_Copy_nodes@$0A@@?$_Tree@V?$_Tmap_traits@EJU?$less@E@std@@V?$allocator@U?$pair@$$CBEJ@std@@@2@$0A@@std@@@std@@IAEPAU?$_Tree_node@U?$pair@$$CBEJ@std@@PAX@1@PAU21@0@Z$1
	DD	0ffffffffH
	DD	FLAT:__unwindfunclet$??$_Copy_nodes@$0A@@?$_Tree@V?$_Tmap_traits@EJU?$less@E@std@@V?$allocator@U?$pair@$$CBEJ@std@@@2@$0A@@std@@@std@@IAEPAU?$_Tree_node@U?$pair@$$CBEJ@std@@PAX@1@PAU21@0@Z$0
xdata$x	ENDS
;	COMDAT xdata$x
xdata$x	SEGMENT
__ehfuncinfo$??$_Copy_or_move@$0A@U?$pair@$$CBEJ@std@@@?$_Tree@V?$_Tmap_traits@EJU?$less@E@std@@V?$allocator@U?$pair@$$CBEJ@std@@@2@$0A@@std@@@std@@IAEPAU?$_Tree_node@U?$pair@$$CBEJ@std@@PAX@1@AAU?$pair@$$CBEJ@1@@Z DQ 00000000119930522r ; 2.33398e-314
	DD	FLAT:__unwindtable$??$_Copy_or_move@$0A@U?$pair@$$CBEJ@std@@@?$_Tree@V?$_Tmap_traits@EJU?$less@E@std@@V?$allocator@U?$pair@$$CBEJ@std@@@2@$0A@@std@@@std@@IAEPAU?$_Tree_node@U?$pair@$$CBEJ@std@@PAX@1@AAU?$pair@$$CBEJ@1@@Z
	DQ	00000000000000000r		; 0
	DQ	00000000000000000r		; 0
	DQ	00000000100000000r		; 2.122e-314
__unwindtable$??$_Copy_or_move@$0A@U?$pair@$$CBEJ@std@@@?$_Tree@V?$_Tmap_traits@EJU?$less@E@std@@V?$allocator@U?$pair@$$CBEJ@std@@@2@$0A@@std@@@std@@IAEPAU?$_Tree_node@U?$pair@$$CBEJ@std@@PAX@1@AAU?$pair@$$CBEJ@1@@Z DD 0ffffffffH
	DD	FLAT:__unwindfunclet$??$_Copy_or_move@$0A@U?$pair@$$CBEJ@std@@@?$_Tree@V?$_Tmap_traits@EJU?$less@E@std@@V?$allocator@U?$pair@$$CBEJ@std@@@2@$0A@@std@@@std@@IAEPAU?$_Tree_node@U?$pair@$$CBEJ@std@@PAX@1@AAU?$pair@$$CBEJ@1@@Z$0
xdata$x	ENDS
;	COMDAT xdata$x
xdata$x	SEGMENT
__ehfuncinfo$??$_Buynode@AAU?$pair@$$CBEJ@std@@@?$_Tree@V?$_Tmap_traits@EJU?$less@E@std@@V?$allocator@U?$pair@$$CBEJ@std@@@2@$0A@@std@@@std@@IAEPAU?$_Tree_node@U?$pair@$$CBEJ@std@@PAX@1@AAU?$pair@$$CBEJ@1@@Z DQ 00000000119930522r ; 2.33398e-314
	DD	FLAT:__unwindtable$??$_Buynode@AAU?$pair@$$CBEJ@std@@@?$_Tree@V?$_Tmap_traits@EJU?$less@E@std@@V?$allocator@U?$pair@$$CBEJ@std@@@2@$0A@@std@@@std@@IAEPAU?$_Tree_node@U?$pair@$$CBEJ@std@@PAX@1@AAU?$pair@$$CBEJ@1@@Z
	DQ	00000000000000000r		; 0
	DQ	00000000000000000r		; 0
	DQ	00000000100000000r		; 2.122e-314
__unwindtable$??$_Buynode@AAU?$pair@$$CBEJ@std@@@?$_Tree@V?$_Tmap_traits@EJU?$less@E@std@@V?$allocator@U?$pair@$$CBEJ@std@@@2@$0A@@std@@@std@@IAEPAU?$_Tree_node@U?$pair@$$CBEJ@std@@PAX@1@AAU?$pair@$$CBEJ@1@@Z DD 0ffffffffH
	DD	FLAT:__unwindfunclet$??$_Buynode@AAU?$pair@$$CBEJ@std@@@?$_Tree@V?$_Tmap_traits@EJU?$less@E@std@@V?$allocator@U?$pair@$$CBEJ@std@@@2@$0A@@std@@@std@@IAEPAU?$_Tree_node@U?$pair@$$CBEJ@std@@PAX@1@AAU?$pair@$$CBEJ@1@@Z$0
xdata$x	ENDS
;	COMDAT xdata$x
xdata$x	SEGMENT
__ehfuncinfo$??$_Buynode@V?$allocator@U?$_Tree_node@U?$pair@$$CBEJ@std@@PAX@std@@@std@@AAU?$pair@$$CBEJ@2@@?$_Tree_node@U?$pair@$$CBEJ@std@@PAX@std@@SAPAU01@AAV?$allocator@U?$_Tree_node@U?$pair@$$CBEJ@std@@PAX@std@@@1@PAU01@AAU?$pair@$$CBEJ@1@@Z DQ 00000000119930522r ; 2.33398e-314
	DD	FLAT:__unwindtable$??$_Buynode@V?$allocator@U?$_Tree_node@U?$pair@$$CBEJ@std@@PAX@std@@@std@@AAU?$pair@$$CBEJ@2@@?$_Tree_node@U?$pair@$$CBEJ@std@@PAX@std@@SAPAU01@AAV?$allocator@U?$_Tree_node@U?$pair@$$CBEJ@std@@PAX@std@@@1@PAU01@AAU?$pair@$$CBEJ@1@@Z
	DQ	00000000000000000r		; 0
	DQ	00000000000000000r		; 0
	DQ	00000000100000000r		; 2.122e-314
__unwindtable$??$_Buynode@V?$allocator@U?$_Tree_node@U?$pair@$$CBEJ@std@@PAX@std@@@std@@AAU?$pair@$$CBEJ@2@@?$_Tree_node@U?$pair@$$CBEJ@std@@PAX@std@@SAPAU01@AAV?$allocator@U?$_Tree_node@U?$pair@$$CBEJ@std@@PAX@std@@@1@PAU01@AAU?$pair@$$CBEJ@1@@Z DD 0ffffffffH
	DD	FLAT:__unwindfunclet$??$_Buynode@V?$allocator@U?$_Tree_node@U?$pair@$$CBEJ@std@@PAX@std@@@std@@AAU?$pair@$$CBEJ@2@@?$_Tree_node@U?$pair@$$CBEJ@std@@PAX@std@@SAPAU01@AAV?$allocator@U?$_Tree_node@U?$pair@$$CBEJ@std@@PAX@std@@@1@PAU01@AAU?$pair@$$CBEJ@1@@Z$0
END
