; Listing generated by Microsoft (R) Optimizing Compiler Version 19.44.35219.0 

	TITLE	c:\anka2project\anka2project\source\binary\vs_files\userinterface\release\pythoneffectmodule.obj
	.686P
	.XMM
	include listing.inc
	.model	flat

INCLUDELIB OLDNAMES

PUBLIC	??_C@_0N@MBIJMIIP@CreateEffect@			; `string'
PUBLIC	??_C@_0N@LGNMFEFL@DeleteEffect@			; `string'
PUBLIC	??_C@_0BH@PGAJPGN@RegisterIndexedFlyData@	; `string'
PUBLIC	??_C@_06HOPIODND@effect@			; `string'
PUBLIC	??_C@_0BG@DHHMHMCC@INDEX_FLY_TYPE_NORMAL@	; `string'
PUBLIC	??_C@_0BM@LAJEFEPL@INDEX_FLY_TYPE_FIRE_CRACKER@	; `string'
PUBLIC	??_C@_0BJ@PKDDPPL@INDEX_FLY_TYPE_AUTO_FIRE@	; `string'
PUBLIC	??_C@_08FCGHOFPB@FLY_NONE@			; `string'
PUBLIC	??_C@_07BDJIHPIH@FLY_EXP@			; `string'
PUBLIC	??_C@_0O@JHCDAHFD@FLY_HP_MEDIUM@		; `string'
PUBLIC	??_C@_0L@EMLDPIBO@FLY_HP_BIG@			; `string'
PUBLIC	??_C@_0N@HEJPIJGB@FLY_SP_SMALL@			; `string'
PUBLIC	??_C@_0O@EIGNHNEM@FLY_SP_MEDIUM@		; `string'
PUBLIC	??_C@_0L@CJGKDACK@FLY_SP_BIG@			; `string'
PUBLIC	??_C@_0O@KIHGCOD@FLY_FIREWORK1@			; `string'
PUBLIC	??_C@_0O@CBKKDBCA@FLY_FIREWORK2@		; `string'
PUBLIC	??_C@_0O@DILBAAGB@FLY_FIREWORK3@		; `string'
PUBLIC	??_C@_0O@HHPAJGKG@FLY_FIREWORK4@		; `string'
PUBLIC	??_C@_0O@GOOLKHOH@FLY_FIREWORK5@		; `string'
PUBLIC	??_C@_0O@EFMGPECE@FLY_FIREWORK6@		; `string'
PUBLIC	??_C@_0BC@KIKDJFKK@FLY_FIREWORK_XMAS@		; `string'
PUBLIC	??_C@_0BE@CLABALOD@FLY_CHAIN_LIGHTNING@		; `string'
PUBLIC	??_C@_0N@FKAKFFMN@FLY_HP_SMALL@			; `string'
PUBLIC	??_C@_0BC@MAPBBCA@FLY_SKILL_MUYEONG@		; `string'
PUBLIC	?ms_singleton@?$CSingleton@VCFlyingManager@@@@0PAVCFlyingManager@@A ; CSingleton<CFlyingManager>::ms_singleton
EXTRN	?RegisterIndexedFlyData@CFlyingManager@@QAE_NKEPBD@Z:PROC ; CFlyingManager::RegisterIndexedFlyData
EXTRN	?DestroyEffectInstance@CEffectManager@@QAE_NK@Z:PROC ; CEffectManager::DestroyEffectInstance
EXTRN	?SetEffectInstancePosition@CEffectManager@@QAEXABUD3DXVECTOR3@@@Z:PROC ; CEffectManager::SetEffectInstancePosition
EXTRN	?CreateEffect@CEffectManager@@QAEHPBDABUD3DXVECTOR3@@1@Z:PROC ; CEffectManager::CreateEffect
EXTRN	?RegisterEffect@CEffectManager@@QAEHPBD_N10@Z:PROC ; CEffectManager::RegisterEffect
;	COMDAT ?ms_singleton@?$CSingleton@VCFlyingManager@@@@0PAVCFlyingManager@@A
_BSS	SEGMENT
?ms_singleton@?$CSingleton@VCFlyingManager@@@@0PAVCFlyingManager@@A DD 01H DUP (?) ; CSingleton<CFlyingManager>::ms_singleton
_BSS	ENDS
;	COMDAT ?s_methods@?1??initeffect@@YAXXZ@4PAUPyMethodDef@@A
_DATA	SEGMENT
?s_methods@?1??initeffect@@YAXXZ@4PAUPyMethodDef@@A DD FLAT:??_C@_0P@HDADHLLI@RegisterEffect@ ; `initeffect'::`2'::s_methods
	DD	FLAT:?effectRegisterEffect@@YAPAU_object@@PAU1@0@Z
	DD	01H
	ORG $+4
	DD	FLAT:??_C@_0N@MBIJMIIP@CreateEffect@
	DD	FLAT:?effectCreateEffect@@YAPAU_object@@PAU1@0@Z
	DD	01H
	ORG $+4
	DD	FLAT:??_C@_0N@LGNMFEFL@DeleteEffect@
	DD	FLAT:?effectDeleteEffect@@YAPAU_object@@PAU1@0@Z
	DD	01H
	ORG $+4
	DD	FLAT:??_C@_0M@GKIFPNAD@SetPosition@
	DD	FLAT:?effectSetPosition@@YAPAU_object@@PAU1@0@Z
	DD	01H
	ORG $+4
	DD	FLAT:??_C@_0BH@PGAJPGN@RegisterIndexedFlyData@
	DD	FLAT:?effectRegisterIndexedFlyData@@YAPAU_object@@PAU1@0@Z
	DD	01H
	ORG $+4
	DD	FLAT:??_C@_06LMAGPFNF@Update@
	DD	FLAT:?effectUpdate@@YAPAU_object@@PAU1@0@Z
	DD	01H
	ORG $+4
	DD	FLAT:??_C@_06EPLDPNDB@Render@
	DD	FLAT:?effectRender@@YAPAU_object@@PAU1@0@Z
	DD	01H
	ORG $+4
	DD	00H
	DD	00H
	DD	00H
	ORG $+4
_DATA	ENDS
;	COMDAT ??_C@_0BC@MAPBBCA@FLY_SKILL_MUYEONG@
CONST	SEGMENT
??_C@_0BC@MAPBBCA@FLY_SKILL_MUYEONG@ DB 'FLY_SKILL_MUYEONG', 00H ; `string'
CONST	ENDS
;	COMDAT ??_C@_0N@FKAKFFMN@FLY_HP_SMALL@
CONST	SEGMENT
??_C@_0N@FKAKFFMN@FLY_HP_SMALL@ DB 'FLY_HP_SMALL', 00H	; `string'
CONST	ENDS
;	COMDAT ??_C@_0BE@CLABALOD@FLY_CHAIN_LIGHTNING@
CONST	SEGMENT
??_C@_0BE@CLABALOD@FLY_CHAIN_LIGHTNING@ DB 'FLY_CHAIN_LIGHTNING', 00H ; `string'
CONST	ENDS
;	COMDAT ??_C@_0BC@KIKDJFKK@FLY_FIREWORK_XMAS@
CONST	SEGMENT
??_C@_0BC@KIKDJFKK@FLY_FIREWORK_XMAS@ DB 'FLY_FIREWORK_XMAS', 00H ; `string'
CONST	ENDS
;	COMDAT ??_C@_0O@EFMGPECE@FLY_FIREWORK6@
CONST	SEGMENT
??_C@_0O@EFMGPECE@FLY_FIREWORK6@ DB 'FLY_FIREWORK6', 00H ; `string'
CONST	ENDS
;	COMDAT ??_C@_0O@GOOLKHOH@FLY_FIREWORK5@
CONST	SEGMENT
??_C@_0O@GOOLKHOH@FLY_FIREWORK5@ DB 'FLY_FIREWORK5', 00H ; `string'
CONST	ENDS
;	COMDAT ??_C@_0O@HHPAJGKG@FLY_FIREWORK4@
CONST	SEGMENT
??_C@_0O@HHPAJGKG@FLY_FIREWORK4@ DB 'FLY_FIREWORK4', 00H ; `string'
CONST	ENDS
;	COMDAT ??_C@_0O@DILBAAGB@FLY_FIREWORK3@
CONST	SEGMENT
??_C@_0O@DILBAAGB@FLY_FIREWORK3@ DB 'FLY_FIREWORK3', 00H ; `string'
CONST	ENDS
;	COMDAT ??_C@_0O@CBKKDBCA@FLY_FIREWORK2@
CONST	SEGMENT
??_C@_0O@CBKKDBCA@FLY_FIREWORK2@ DB 'FLY_FIREWORK2', 00H ; `string'
CONST	ENDS
;	COMDAT ??_C@_0O@KIHGCOD@FLY_FIREWORK1@
CONST	SEGMENT
??_C@_0O@KIHGCOD@FLY_FIREWORK1@ DB 'FLY_FIREWORK1', 00H	; `string'
CONST	ENDS
;	COMDAT ??_C@_0L@CJGKDACK@FLY_SP_BIG@
CONST	SEGMENT
??_C@_0L@CJGKDACK@FLY_SP_BIG@ DB 'FLY_SP_BIG', 00H	; `string'
CONST	ENDS
;	COMDAT ??_C@_0O@EIGNHNEM@FLY_SP_MEDIUM@
CONST	SEGMENT
??_C@_0O@EIGNHNEM@FLY_SP_MEDIUM@ DB 'FLY_SP_MEDIUM', 00H ; `string'
CONST	ENDS
;	COMDAT ??_C@_0N@HEJPIJGB@FLY_SP_SMALL@
CONST	SEGMENT
??_C@_0N@HEJPIJGB@FLY_SP_SMALL@ DB 'FLY_SP_SMALL', 00H	; `string'
CONST	ENDS
;	COMDAT ??_C@_0L@EMLDPIBO@FLY_HP_BIG@
CONST	SEGMENT
??_C@_0L@EMLDPIBO@FLY_HP_BIG@ DB 'FLY_HP_BIG', 00H	; `string'
CONST	ENDS
;	COMDAT ??_C@_0O@JHCDAHFD@FLY_HP_MEDIUM@
CONST	SEGMENT
??_C@_0O@JHCDAHFD@FLY_HP_MEDIUM@ DB 'FLY_HP_MEDIUM', 00H ; `string'
CONST	ENDS
;	COMDAT ??_C@_07BDJIHPIH@FLY_EXP@
CONST	SEGMENT
??_C@_07BDJIHPIH@FLY_EXP@ DB 'FLY_EXP', 00H		; `string'
CONST	ENDS
;	COMDAT ??_C@_08FCGHOFPB@FLY_NONE@
CONST	SEGMENT
??_C@_08FCGHOFPB@FLY_NONE@ DB 'FLY_NONE', 00H		; `string'
CONST	ENDS
;	COMDAT ??_C@_0BJ@PKDDPPL@INDEX_FLY_TYPE_AUTO_FIRE@
CONST	SEGMENT
??_C@_0BJ@PKDDPPL@INDEX_FLY_TYPE_AUTO_FIRE@ DB 'INDEX_FLY_TYPE_AUTO_FIRE', 00H ; `string'
CONST	ENDS
;	COMDAT ??_C@_0BM@LAJEFEPL@INDEX_FLY_TYPE_FIRE_CRACKER@
CONST	SEGMENT
??_C@_0BM@LAJEFEPL@INDEX_FLY_TYPE_FIRE_CRACKER@ DB 'INDEX_FLY_TYPE_FIRE_C'
	DB	'RACKER', 00H				; `string'
CONST	ENDS
;	COMDAT ??_C@_0BG@DHHMHMCC@INDEX_FLY_TYPE_NORMAL@
CONST	SEGMENT
??_C@_0BG@DHHMHMCC@INDEX_FLY_TYPE_NORMAL@ DB 'INDEX_FLY_TYPE_NORMAL', 00H ; `string'
CONST	ENDS
;	COMDAT ??_C@_06HOPIODND@effect@
CONST	SEGMENT
??_C@_06HOPIODND@effect@ DB 'effect', 00H		; `string'
CONST	ENDS
;	COMDAT ??_C@_0BH@PGAJPGN@RegisterIndexedFlyData@
CONST	SEGMENT
??_C@_0BH@PGAJPGN@RegisterIndexedFlyData@ DB 'RegisterIndexedFlyData', 00H ; `string'
CONST	ENDS
;	COMDAT ??_C@_0N@LGNMFEFL@DeleteEffect@
CONST	SEGMENT
??_C@_0N@LGNMFEFL@DeleteEffect@ DB 'DeleteEffect', 00H	; `string'
CONST	ENDS
;	COMDAT ??_C@_0N@MBIJMIIP@CreateEffect@
CONST	SEGMENT
??_C@_0N@MBIJMIIP@CreateEffect@ DB 'CreateEffect', 00H	; `string'
PUBLIC	?Instance@?$CSingleton@VCFlyingManager@@@@SAAAVCFlyingManager@@XZ ; CSingleton<CFlyingManager>::Instance
PUBLIC	?initeffect@@YAXXZ				; initeffect
PUBLIC	?effectRegisterIndexedFlyData@@YAPAU_object@@PAU1@0@Z ; effectRegisterIndexedFlyData
PUBLIC	?effectSetPosition@@YAPAU_object@@PAU1@0@Z	; effectSetPosition
PUBLIC	?effectDeleteEffect@@YAPAU_object@@PAU1@0@Z	; effectDeleteEffect
PUBLIC	?effectCreateEffect@@YAPAU_object@@PAU1@0@Z	; effectCreateEffect
PUBLIC	?effectRender@@YAPAU_object@@PAU1@0@Z		; effectRender
PUBLIC	?effectUpdate@@YAPAU_object@@PAU1@0@Z		; effectUpdate
PUBLIC	?effectRegisterEffect@@YAPAU_object@@PAU1@0@Z	; effectRegisterEffect
; Function compile flags: /Ogtp
; File C:\Anka2Project\Anka2Project\Source\Binary\source\UserInterface\PythonEffectModule.cpp
; File C:\Anka2Project\Anka2Project\Source\Binary\source\eterBase\Singleton.h
; File C:\Anka2Project\Anka2Project\Source\Binary\source\UserInterface\PythonEffectModule.cpp
; File C:\Anka2Project\Anka2Project\Source\Binary\source\eterBase\Singleton.h
; File C:\Anka2Project\Anka2Project\Source\Binary\source\UserInterface\PythonEffectModule.cpp
; File C:\Anka2Project\Anka2Project\Source\Binary\extern\include\d3dx8math.inl
; File C:\Anka2Project\Anka2Project\Source\Binary\source\UserInterface\PythonEffectModule.cpp
; File C:\Anka2Project\Anka2Project\Source\Binary\extern\include\d3dx8math.inl
; File C:\Anka2Project\Anka2Project\Source\Binary\source\UserInterface\PythonEffectModule.cpp
; File C:\Anka2Project\Anka2Project\Source\Binary\extern\include\d3dx8math.inl
; File C:\Anka2Project\Anka2Project\Source\Binary\source\UserInterface\PythonEffectModule.cpp
;	COMDAT ?effectCreateEffect@@YAPAU_object@@PAU1@0@Z
_TEXT	SEGMENT
_szEffectName$ = -32					; size = 4
_PixelPosition$ = -28					; size = 12
$T3 = -16						; size = 12
__$ArrayPad$ = -4					; size = 4
_poSelf$ = 8						; size = 4
_poArgs$ = 12						; size = 4
?effectCreateEffect@@YAPAU_object@@PAU1@0@Z PROC	; effectCreateEffect, COMDAT

; 28   : {

  00000	55		 push	 ebp
  00001	8b ec		 mov	 ebp, esp
  00003	83 ec 20	 sub	 esp, 32			; 00000020H
  00006	a1 00 00 00 00	 mov	 eax, DWORD PTR ___security_cookie
  0000b	33 c5		 xor	 eax, ebp
  0000d	89 45 fc	 mov	 DWORD PTR __$ArrayPad$[ebp], eax
  00010	8b 45 0c	 mov	 eax, DWORD PTR _poArgs$[ebp]

; 29   : 	char *szEffectName;
; 30   : 	if (!PyTuple_GetString(poArgs, 0, &szEffectName))

  00013	8d 4d e0	 lea	 ecx, DWORD PTR _szEffectName$[ebp]
  00016	51		 push	 ecx
  00017	6a 00		 push	 0
  00019	50		 push	 eax
  0001a	e8 00 00 00 00	 call	 ?PyTuple_GetString@@YA_NPAU_object@@HPAPAD@Z ; PyTuple_GetString
  0001f	83 c4 0c	 add	 esp, 12			; 0000000cH
  00022	84 c0		 test	 al, al
  00024	75 18		 jne	 SHORT $LN2@effectCrea

; 31   : 		return Py_BuildException();

  00026	6a 00		 push	 0
  00028	e8 00 00 00 00	 call	 ?Py_BuildException@@YAPAU_object@@PBDZZ ; Py_BuildException
  0002d	83 c4 04	 add	 esp, 4

; 39   : }

  00030	8b 4d fc	 mov	 ecx, DWORD PTR __$ArrayPad$[ebp]
  00033	33 cd		 xor	 ecx, ebp
  00035	e8 00 00 00 00	 call	 @__security_check_cookie@4
  0003a	8b e5		 mov	 esp, ebp
  0003c	5d		 pop	 ebp
  0003d	c3		 ret	 0
$LN2@effectCrea:
; File C:\Anka2Project\Anka2Project\Source\Binary\source\eterBase\Singleton.h

; 26   : 		assert(ms_singleton);

  0003e	8b 0d 00 00 00
	00		 mov	 ecx, DWORD PTR ?ms_singleton@?$CSingleton@VCPythonCharacterManager@@@@0PAVCPythonCharacterManager@@A ; CSingleton<CPythonCharacterManager>::ms_singleton
  00044	85 c9		 test	 ecx, ecx
  00046	75 1a		 jne	 SHORT $LN6@effectCrea
  00048	6a 1a		 push	 26			; 0000001aH
  0004a	68 00 00 00 00	 push	 OFFSET ??_C@_1IO@CAJLEEOI@?$AAC?$AA?3?$AA?2?$AAA?$AAn?$AAk?$AAa?$AA2?$AAP?$AAr?$AAo?$AAj?$AAe?$AAc?$AAt@
  0004f	68 00 00 00 00	 push	 OFFSET ??_C@_1BK@FMEHPMFE@?$AAm?$AAs?$AA_?$AAs?$AAi?$AAn?$AAg?$AAl?$AAe?$AAt?$AAo?$AAn@
  00054	e8 00 00 00 00	 call	 __wassert
  00059	8b 0d 00 00 00
	00		 mov	 ecx, DWORD PTR ?ms_singleton@?$CSingleton@VCPythonCharacterManager@@@@0PAVCPythonCharacterManager@@A ; CSingleton<CPythonCharacterManager>::ms_singleton
  0005f	83 c4 0c	 add	 esp, 12			; 0000000cH
$LN6@effectCrea:
; File C:\Anka2Project\Anka2Project\Source\Binary\source\UserInterface\PythonEffectModule.cpp

; 33   : 	CInstanceBase * pInstance = CPythonCharacterManager::Instance().GetSelectedInstancePtr();

  00062	e8 00 00 00 00	 call	 ?GetSelectedInstancePtr@CPythonCharacterManager@@QAEPAVCInstanceBase@@XZ ; CPythonCharacterManager::GetSelectedInstancePtr

; 34   : 	TPixelPosition PixelPosition;
; 35   : 	pInstance->NEW_GetPixelPosition(&PixelPosition);

  00067	8d 4d e4	 lea	 ecx, DWORD PTR _PixelPosition$[ebp]
  0006a	51		 push	 ecx
  0006b	8b c8		 mov	 ecx, eax
  0006d	e8 00 00 00 00	 call	 ?NEW_GetPixelPosition@CInstanceBase@@QAEXPAUD3DXVECTOR3@@@Z ; CInstanceBase::NEW_GetPixelPosition
; File C:\Anka2Project\Anka2Project\Source\Binary\source\eterBase\Singleton.h

; 26   : 		assert(ms_singleton);

  00072	8b 0d 00 00 00
	00		 mov	 ecx, DWORD PTR ?ms_singleton@?$CSingleton@VCEffectManager@@@@0PAVCEffectManager@@A ; CSingleton<CEffectManager>::ms_singleton
  00078	85 c9		 test	 ecx, ecx
  0007a	75 1a		 jne	 SHORT $LN9@effectCrea
  0007c	6a 1a		 push	 26			; 0000001aH
  0007e	68 00 00 00 00	 push	 OFFSET ??_C@_1IO@CAJLEEOI@?$AAC?$AA?3?$AA?2?$AAA?$AAn?$AAk?$AAa?$AA2?$AAP?$AAr?$AAo?$AAj?$AAe?$AAc?$AAt@
  00083	68 00 00 00 00	 push	 OFFSET ??_C@_1BK@FMEHPMFE@?$AAm?$AAs?$AA_?$AAs?$AAi?$AAn?$AAg?$AAl?$AAe?$AAt?$AAo?$AAn@
  00088	e8 00 00 00 00	 call	 __wassert
  0008d	8b 0d 00 00 00
	00		 mov	 ecx, DWORD PTR ?ms_singleton@?$CSingleton@VCEffectManager@@@@0PAVCEffectManager@@A ; CSingleton<CEffectManager>::ms_singleton
  00093	83 c4 0c	 add	 esp, 12			; 0000000cH
$LN9@effectCrea:
; File C:\Anka2Project\Anka2Project\Source\Binary\source\UserInterface\PythonEffectModule.cpp

; 36   : 	int iIndex = CEffectManager::Instance().CreateEffect(szEffectName, PixelPosition, D3DXVECTOR3(0.0f, 0.0f, 0.0f));

  00096	8d 45 f0	 lea	 eax, DWORD PTR $T3[ebp]
; File C:\Anka2Project\Anka2Project\Source\Binary\extern\include\d3dx8math.inl

; 180  :     x = fx;

  00099	c7 45 f0 00 00
	00 00		 mov	 DWORD PTR $T3[ebp], 0
; File C:\Anka2Project\Anka2Project\Source\Binary\source\UserInterface\PythonEffectModule.cpp

; 36   : 	int iIndex = CEffectManager::Instance().CreateEffect(szEffectName, PixelPosition, D3DXVECTOR3(0.0f, 0.0f, 0.0f));

  000a0	50		 push	 eax
  000a1	8d 45 e4	 lea	 eax, DWORD PTR _PixelPosition$[ebp]
; File C:\Anka2Project\Anka2Project\Source\Binary\extern\include\d3dx8math.inl

; 181  :     y = fy;

  000a4	c7 45 f4 00 00
	00 00		 mov	 DWORD PTR $T3[ebp+4], 0
; File C:\Anka2Project\Anka2Project\Source\Binary\source\UserInterface\PythonEffectModule.cpp

; 36   : 	int iIndex = CEffectManager::Instance().CreateEffect(szEffectName, PixelPosition, D3DXVECTOR3(0.0f, 0.0f, 0.0f));

  000ab	50		 push	 eax
  000ac	ff 75 e0	 push	 DWORD PTR _szEffectName$[ebp]
; File C:\Anka2Project\Anka2Project\Source\Binary\extern\include\d3dx8math.inl

; 182  :     z = fz;

  000af	c7 45 f8 00 00
	00 00		 mov	 DWORD PTR $T3[ebp+8], 0
; File C:\Anka2Project\Anka2Project\Source\Binary\source\UserInterface\PythonEffectModule.cpp

; 36   : 	int iIndex = CEffectManager::Instance().CreateEffect(szEffectName, PixelPosition, D3DXVECTOR3(0.0f, 0.0f, 0.0f));

  000b6	e8 00 00 00 00	 call	 ?CreateEffect@CEffectManager@@QAEHPBDABUD3DXVECTOR3@@1@Z ; CEffectManager::CreateEffect

; 37   : 
; 38   : 	return Py_BuildValue("i", iIndex);

  000bb	50		 push	 eax
  000bc	68 00 00 00 00	 push	 OFFSET ??_C@_01KBJDNOO@i@
  000c1	ff 15 00 00 00
	00		 call	 DWORD PTR __imp__Py_BuildValue

; 39   : }

  000c7	8b 4d fc	 mov	 ecx, DWORD PTR __$ArrayPad$[ebp]
  000ca	83 c4 08	 add	 esp, 8
  000cd	33 cd		 xor	 ecx, ebp
  000cf	e8 00 00 00 00	 call	 @__security_check_cookie@4
  000d4	8b e5		 mov	 esp, ebp
  000d6	5d		 pop	 ebp
  000d7	c3		 ret	 0
?effectCreateEffect@@YAPAU_object@@PAU1@0@Z ENDP	; effectCreateEffect
_TEXT	ENDS
; Function compile flags: /Ogtp
; File C:\Anka2Project\Anka2Project\Source\Binary\source\UserInterface\PythonEffectModule.cpp
;	COMDAT ?initeffect@@YAXXZ
_TEXT	SEGMENT
?initeffect@@YAXXZ PROC					; initeffect, COMDAT

; 91   : {

  00000	56		 push	 esi
  00001	57		 push	 edi

; 92   : 	static PyMethodDef s_methods[] =
; 93   : 	{
; 94   : 		{ "RegisterEffect",				effectRegisterEffect,			METH_VARARGS },
; 95   : 		{ "CreateEffect",				effectCreateEffect,				METH_VARARGS },
; 96   : 		{ "DeleteEffect",				effectDeleteEffect,				METH_VARARGS },
; 97   : 		{ "SetPosition",				effectSetPosition,				METH_VARARGS },
; 98   : 
; 99   : 		{ "RegisterIndexedFlyData",		effectRegisterIndexedFlyData,	METH_VARARGS },
; 100  : 
; 101  : 		{ "Update",						effectUpdate,					METH_VARARGS },
; 102  : 		{ "Render",						effectRender,					METH_VARARGS },
; 103  : 
; 104  : 		{ nullptr,							nullptr,							NULL         },
; 105  : 	};
; 106  : 
; 107  : 	PyObject *poModule = Py_InitModule("effect", s_methods);

  00002	68 f5 03 00 00	 push	 1013			; 000003f5H
  00007	6a 00		 push	 0
  00009	6a 00		 push	 0
  0000b	68 00 00 00 00	 push	 OFFSET ?s_methods@?1??initeffect@@YAXXZ@4PAUPyMethodDef@@A
  00010	68 00 00 00 00	 push	 OFFSET ??_C@_06HOPIODND@effect@
  00015	ff 15 00 00 00
	00		 call	 DWORD PTR __imp__Py_InitModule4

; 108  : 	PyModule_AddIntConstant(poModule, "INDEX_FLY_TYPE_NORMAL",			CFlyingManager::INDEX_FLY_TYPE_NORMAL);

  0001b	8b 35 00 00 00
	00		 mov	 esi, DWORD PTR __imp__PyModule_AddIntConstant
  00021	8b f8		 mov	 edi, eax
  00023	6a 00		 push	 0
  00025	68 00 00 00 00	 push	 OFFSET ??_C@_0BG@DHHMHMCC@INDEX_FLY_TYPE_NORMAL@
  0002a	57		 push	 edi
  0002b	ff d6		 call	 esi

; 109  : 	PyModule_AddIntConstant(poModule, "INDEX_FLY_TYPE_FIRE_CRACKER",	CFlyingManager::INDEX_FLY_TYPE_FIRE_CRACKER);

  0002d	6a 01		 push	 1
  0002f	68 00 00 00 00	 push	 OFFSET ??_C@_0BM@LAJEFEPL@INDEX_FLY_TYPE_FIRE_CRACKER@
  00034	57		 push	 edi
  00035	ff d6		 call	 esi

; 110  : 	PyModule_AddIntConstant(poModule, "INDEX_FLY_TYPE_AUTO_FIRE",		CFlyingManager::INDEX_FLY_TYPE_AUTO_FIRE);

  00037	6a 02		 push	 2
  00039	68 00 00 00 00	 push	 OFFSET ??_C@_0BJ@PKDDPPL@INDEX_FLY_TYPE_AUTO_FIRE@
  0003e	57		 push	 edi
  0003f	ff d6		 call	 esi

; 111  : 
; 112  : 	enum
; 113  : 	{
; 114  : 		FLY_NONE,
; 115  : 		FLY_EXP,
; 116  : 		FLY_HP_MEDIUM,
; 117  : 		FLY_HP_BIG,
; 118  : 		FLY_SP_SMALL,
; 119  : 		FLY_SP_MEDIUM,
; 120  : 		FLY_SP_BIG,
; 121  : 		FLY_FIREWORK1,
; 122  : 		FLY_FIREWORK2,
; 123  : 		FLY_FIREWORK3,
; 124  : 		FLY_FIREWORK4,
; 125  : 		FLY_FIREWORK5,
; 126  : 		FLY_FIREWORK6,
; 127  : 		FLY_FIREWORK_XMAS,
; 128  : 		FLY_CHAIN_LIGHTNING,
; 129  : 		FLY_HP_SMALL,
; 130  : 		FLY_SKILL_MUYEONG,
; 131  : 	};
; 132  : 
; 133  : 	PyModule_AddIntConstant(poModule, "FLY_NONE",				FLY_NONE);

  00041	6a 00		 push	 0
  00043	68 00 00 00 00	 push	 OFFSET ??_C@_08FCGHOFPB@FLY_NONE@
  00048	57		 push	 edi
  00049	ff d6		 call	 esi
  0004b	83 c4 44	 add	 esp, 68			; 00000044H

; 134  : 	PyModule_AddIntConstant(poModule, "FLY_EXP",				FLY_EXP);

  0004e	6a 01		 push	 1
  00050	68 00 00 00 00	 push	 OFFSET ??_C@_07BDJIHPIH@FLY_EXP@
  00055	57		 push	 edi
  00056	ff d6		 call	 esi

; 135  : 	PyModule_AddIntConstant(poModule, "FLY_HP_MEDIUM",			FLY_HP_MEDIUM);

  00058	6a 02		 push	 2
  0005a	68 00 00 00 00	 push	 OFFSET ??_C@_0O@JHCDAHFD@FLY_HP_MEDIUM@
  0005f	57		 push	 edi
  00060	ff d6		 call	 esi

; 136  : 	PyModule_AddIntConstant(poModule, "FLY_HP_BIG",				FLY_HP_BIG);

  00062	6a 03		 push	 3
  00064	68 00 00 00 00	 push	 OFFSET ??_C@_0L@EMLDPIBO@FLY_HP_BIG@
  00069	57		 push	 edi
  0006a	ff d6		 call	 esi

; 137  : 	PyModule_AddIntConstant(poModule, "FLY_SP_SMALL",			FLY_SP_SMALL);

  0006c	6a 04		 push	 4
  0006e	68 00 00 00 00	 push	 OFFSET ??_C@_0N@HEJPIJGB@FLY_SP_SMALL@
  00073	57		 push	 edi
  00074	ff d6		 call	 esi

; 138  : 	PyModule_AddIntConstant(poModule, "FLY_SP_MEDIUM",			FLY_SP_MEDIUM);

  00076	6a 05		 push	 5
  00078	68 00 00 00 00	 push	 OFFSET ??_C@_0O@EIGNHNEM@FLY_SP_MEDIUM@
  0007d	57		 push	 edi
  0007e	ff d6		 call	 esi

; 139  : 	PyModule_AddIntConstant(poModule, "FLY_SP_BIG",				FLY_SP_BIG);

  00080	6a 06		 push	 6
  00082	68 00 00 00 00	 push	 OFFSET ??_C@_0L@CJGKDACK@FLY_SP_BIG@
  00087	57		 push	 edi
  00088	ff d6		 call	 esi
  0008a	83 c4 48	 add	 esp, 72			; 00000048H

; 140  : 	PyModule_AddIntConstant(poModule, "FLY_FIREWORK1",			FLY_FIREWORK1);

  0008d	6a 07		 push	 7
  0008f	68 00 00 00 00	 push	 OFFSET ??_C@_0O@KIHGCOD@FLY_FIREWORK1@
  00094	57		 push	 edi
  00095	ff d6		 call	 esi

; 141  : 	PyModule_AddIntConstant(poModule, "FLY_FIREWORK2",			FLY_FIREWORK2);

  00097	6a 08		 push	 8
  00099	68 00 00 00 00	 push	 OFFSET ??_C@_0O@CBKKDBCA@FLY_FIREWORK2@
  0009e	57		 push	 edi
  0009f	ff d6		 call	 esi

; 142  : 	PyModule_AddIntConstant(poModule, "FLY_FIREWORK3",			FLY_FIREWORK3);

  000a1	6a 09		 push	 9
  000a3	68 00 00 00 00	 push	 OFFSET ??_C@_0O@DILBAAGB@FLY_FIREWORK3@
  000a8	57		 push	 edi
  000a9	ff d6		 call	 esi

; 143  : 	PyModule_AddIntConstant(poModule, "FLY_FIREWORK4",			FLY_FIREWORK4);

  000ab	6a 0a		 push	 10			; 0000000aH
  000ad	68 00 00 00 00	 push	 OFFSET ??_C@_0O@HHPAJGKG@FLY_FIREWORK4@
  000b2	57		 push	 edi
  000b3	ff d6		 call	 esi

; 144  : 	PyModule_AddIntConstant(poModule, "FLY_FIREWORK5",			FLY_FIREWORK5);

  000b5	6a 0b		 push	 11			; 0000000bH
  000b7	68 00 00 00 00	 push	 OFFSET ??_C@_0O@GOOLKHOH@FLY_FIREWORK5@
  000bc	57		 push	 edi
  000bd	ff d6		 call	 esi

; 145  : 	PyModule_AddIntConstant(poModule, "FLY_FIREWORK6",			FLY_FIREWORK6);

  000bf	6a 0c		 push	 12			; 0000000cH
  000c1	68 00 00 00 00	 push	 OFFSET ??_C@_0O@EFMGPECE@FLY_FIREWORK6@
  000c6	57		 push	 edi
  000c7	ff d6		 call	 esi
  000c9	83 c4 48	 add	 esp, 72			; 00000048H

; 146  : 	PyModule_AddIntConstant(poModule, "FLY_FIREWORK_XMAS",		FLY_FIREWORK_XMAS);

  000cc	6a 0d		 push	 13			; 0000000dH
  000ce	68 00 00 00 00	 push	 OFFSET ??_C@_0BC@KIKDJFKK@FLY_FIREWORK_XMAS@
  000d3	57		 push	 edi
  000d4	ff d6		 call	 esi

; 147  : 	PyModule_AddIntConstant(poModule, "FLY_CHAIN_LIGHTNING",	FLY_CHAIN_LIGHTNING);

  000d6	6a 0e		 push	 14			; 0000000eH
  000d8	68 00 00 00 00	 push	 OFFSET ??_C@_0BE@CLABALOD@FLY_CHAIN_LIGHTNING@
  000dd	57		 push	 edi
  000de	ff d6		 call	 esi

; 148  : 	PyModule_AddIntConstant(poModule, "FLY_HP_SMALL",			FLY_HP_SMALL);

  000e0	6a 0f		 push	 15			; 0000000fH
  000e2	68 00 00 00 00	 push	 OFFSET ??_C@_0N@FKAKFFMN@FLY_HP_SMALL@
  000e7	57		 push	 edi
  000e8	ff d6		 call	 esi

; 149  : 	PyModule_AddIntConstant(poModule, "FLY_SKILL_MUYEONG",		FLY_SKILL_MUYEONG);

  000ea	6a 10		 push	 16			; 00000010H
  000ec	68 00 00 00 00	 push	 OFFSET ??_C@_0BC@MAPBBCA@FLY_SKILL_MUYEONG@
  000f1	57		 push	 edi
  000f2	ff d6		 call	 esi
  000f4	83 c4 30	 add	 esp, 48			; 00000030H
  000f7	5f		 pop	 edi
  000f8	5e		 pop	 esi

; 150  : }

  000f9	c3		 ret	 0
?initeffect@@YAXXZ ENDP					; initeffect
_TEXT	ENDS
END
