; Listing generated by Microsoft (R) Optimizing Compiler Version 19.44.35219.0 

	TITLE	c:\anka2project\anka2project\source\binary\vs_files\userinterface\release\pythonplayereventhandler.obj
	.686P
	.XMM
	include listing.inc
	.model	flat

INCLUDELIB OLDNAMES

PUBLIC	??_C@_1CG@KEIABLLO@?$AAw?$AAM?$AAo?$AAt?$AAi?$AAo?$AAn?$AAI?$AAn?$AAd?$AAe?$AAx?$AA?5?$AA?$DM?$AA?5@ ; `string'
PUBLIC	??_C@_1LK@PGLBBCJE@?$AAC?$AA?3?$AA?2?$AAA?$AAn?$AAk?$AAa?$AA2?$AAP?$AAr?$AAo?$AAj?$AAe?$AAc?$AAt@ ; `string'
PUBLIC	??_C@_0CL@BHCKMNDC@Shoot?5?3?5?$LE?Y?$LI?$KF?5target?$LP?$KB?5?$LI?B?$LO?R?$LN?$MA?$LE?O?$LE@ ; `string'
PUBLIC	??_R2CPythonPlayerEventHandler@@8		; CPythonPlayerEventHandler::`RTTI Base Class Array'
PUBLIC	??_R2CNormalBowAttack_FlyEventHandler_AutoClear@CPythonPlayerEventHandler@@8 ; CPythonPlayerEventHandler::CNormalBowAttack_FlyEventHandler_AutoClear::`RTTI Base Class Array'
PUBLIC	??_R2IEventHandler@CActorInstance@@8		; CActorInstance::IEventHandler::`RTTI Base Class Array'
PUBLIC	??_R2IFlyEventHandler@@8			; IFlyEventHandler::`RTTI Base Class Array'
PUBLIC	??_R1A@?0A@EA@CPythonPlayerEventHandler@@8	; CPythonPlayerEventHandler::`RTTI Base Class Descriptor at (0,-1,0,64)'
PUBLIC	??_R1A@?0A@EA@CNormalBowAttack_FlyEventHandler_AutoClear@CPythonPlayerEventHandler@@8 ; CPythonPlayerEventHandler::CNormalBowAttack_FlyEventHandler_AutoClear::`RTTI Base Class Descriptor at (0,-1,0,64)'
PUBLIC	??_R1A@?0A@EA@IEventHandler@CActorInstance@@8	; CActorInstance::IEventHandler::`RTTI Base Class Descriptor at (0,-1,0,64)'
PUBLIC	??_R1A@?0A@EA@IFlyEventHandler@@8		; IFlyEventHandler::`RTTI Base Class Descriptor at (0,-1,0,64)'
PUBLIC	??_R3CNormalBowAttack_FlyEventHandler_AutoClear@CPythonPlayerEventHandler@@8 ; CPythonPlayerEventHandler::CNormalBowAttack_FlyEventHandler_AutoClear::`RTTI Class Hierarchy Descriptor'
PUBLIC	??_R3CPythonPlayerEventHandler@@8		; CPythonPlayerEventHandler::`RTTI Class Hierarchy Descriptor'
PUBLIC	??_R0?AVCNormalBowAttack_FlyEventHandler_AutoClear@CPythonPlayerEventHandler@@@8 ; CPythonPlayerEventHandler::CNormalBowAttack_FlyEventHandler_AutoClear `RTTI Type Descriptor'
PUBLIC	??_R0?AVCPythonPlayerEventHandler@@@8		; CPythonPlayerEventHandler `RTTI Type Descriptor'
PUBLIC	??_R3IEventHandler@CActorInstance@@8		; CActorInstance::IEventHandler::`RTTI Class Hierarchy Descriptor'
PUBLIC	??_R0?AVIEventHandler@CActorInstance@@@8	; CActorInstance::IEventHandler `RTTI Type Descriptor'
PUBLIC	??_R3IFlyEventHandler@@8			; IFlyEventHandler::`RTTI Class Hierarchy Descriptor'
PUBLIC	??_R0?AVIFlyEventHandler@@@8			; IFlyEventHandler `RTTI Type Descriptor'
PUBLIC	??_R4CPythonPlayerEventHandler@@6B@		; CPythonPlayerEventHandler::`RTTI Complete Object Locator'
PUBLIC	??_R4CNormalBowAttack_FlyEventHandler_AutoClear@CPythonPlayerEventHandler@@6B@ ; CPythonPlayerEventHandler::CNormalBowAttack_FlyEventHandler_AutoClear::`RTTI Complete Object Locator'
PUBLIC	??_R4IEventHandler@CActorInstance@@6B@		; CActorInstance::IEventHandler::`RTTI Complete Object Locator'
PUBLIC	??_R4IFlyEventHandler@@6B@			; IFlyEventHandler::`RTTI Complete Object Locator'
PUBLIC	??_7CPythonPlayerEventHandler@@6B@		; CPythonPlayerEventHandler::`vftable'
PUBLIC	??_7CNormalBowAttack_FlyEventHandler_AutoClear@CPythonPlayerEventHandler@@6B@ ; CPythonPlayerEventHandler::CNormalBowAttack_FlyEventHandler_AutoClear::`vftable'
PUBLIC	??_7IEventHandler@CActorInstance@@6B@		; CActorInstance::IEventHandler::`vftable'
PUBLIC	??_7IFlyEventHandler@@6B@			; IFlyEventHandler::`vftable'
EXTRN	?IS_HUGE_RACE@@YA_NI@Z:PROC			; IS_HUGE_RACE
;	COMDAT ??_7IFlyEventHandler@@6B@
CONST	SEGMENT
??_7IFlyEventHandler@@6B@ DD FLAT:??_R4IFlyEventHandler@@6B@ ; IFlyEventHandler::`vftable'
	DD	FLAT:??_EIFlyEventHandler@@UAEPAXI@Z
	DD	FLAT:?OnSetFlyTarget@IFlyEventHandler@@UAEXXZ
	DD	FLAT:?OnShoot@IFlyEventHandler@@UAEXK@Z
	DD	FLAT:?OnNoTarget@IFlyEventHandler@@UAEXXZ
	DD	FLAT:?OnNoArrow@IFlyEventHandler@@UAEXXZ
	DD	FLAT:?OnExplodingOutOfRange@IFlyEventHandler@@UAEXXZ
	DD	FLAT:?OnExplodingAtBackground@IFlyEventHandler@@UAEXXZ
	DD	FLAT:?OnExplodingAtAnotherTarget@IFlyEventHandler@@UAEXKK@Z
	DD	FLAT:?OnExplodingAtTarget@IFlyEventHandler@@UAEXK@Z
CONST	ENDS
;	COMDAT ??_7IEventHandler@CActorInstance@@6B@
CONST	SEGMENT
??_7IEventHandler@CActorInstance@@6B@ DD FLAT:??_R4IEventHandler@CActorInstance@@6B@ ; CActorInstance::IEventHandler::`vftable'
	DD	FLAT:??_EIEventHandler@CActorInstance@@UAEPAXI@Z
	DD	FLAT:__purecall
	DD	FLAT:__purecall
	DD	FLAT:__purecall
	DD	FLAT:__purecall
	DD	FLAT:__purecall
	DD	FLAT:__purecall
	DD	FLAT:__purecall
	DD	FLAT:__purecall
	DD	FLAT:__purecall
	DD	FLAT:__purecall
	DD	FLAT:__purecall
	DD	FLAT:__purecall
	DD	FLAT:__purecall
CONST	ENDS
;	COMDAT ??_7CNormalBowAttack_FlyEventHandler_AutoClear@CPythonPlayerEventHandler@@6B@
CONST	SEGMENT
??_7CNormalBowAttack_FlyEventHandler_AutoClear@CPythonPlayerEventHandler@@6B@ DD FLAT:??_R4CNormalBowAttack_FlyEventHandler_AutoClear@CPythonPlayerEventHandler@@6B@ ; CPythonPlayerEventHandler::CNormalBowAttack_FlyEventHandler_AutoClear::`vftable'
	DD	FLAT:??_ECNormalBowAttack_FlyEventHandler_AutoClear@CPythonPlayerEventHandler@@UAEPAXI@Z
	DD	FLAT:?OnSetFlyTarget@CNormalBowAttack_FlyEventHandler_AutoClear@CPythonPlayerEventHandler@@UAEXXZ
	DD	FLAT:?OnShoot@CNormalBowAttack_FlyEventHandler_AutoClear@CPythonPlayerEventHandler@@UAEXK@Z
	DD	FLAT:?OnNoTarget@CNormalBowAttack_FlyEventHandler_AutoClear@CPythonPlayerEventHandler@@UAEXXZ
	DD	FLAT:?OnNoArrow@IFlyEventHandler@@UAEXXZ
	DD	FLAT:?OnExplodingOutOfRange@CNormalBowAttack_FlyEventHandler_AutoClear@CPythonPlayerEventHandler@@UAEXXZ
	DD	FLAT:?OnExplodingAtBackground@CNormalBowAttack_FlyEventHandler_AutoClear@CPythonPlayerEventHandler@@UAEXXZ
	DD	FLAT:?OnExplodingAtAnotherTarget@CNormalBowAttack_FlyEventHandler_AutoClear@CPythonPlayerEventHandler@@UAEXKK@Z
	DD	FLAT:?OnExplodingAtTarget@CNormalBowAttack_FlyEventHandler_AutoClear@CPythonPlayerEventHandler@@UAEXK@Z
CONST	ENDS
;	COMDAT ??_7CPythonPlayerEventHandler@@6B@
CONST	SEGMENT
??_7CPythonPlayerEventHandler@@6B@ DD FLAT:??_R4CPythonPlayerEventHandler@@6B@ ; CPythonPlayerEventHandler::`vftable'
	DD	FLAT:??_ECPythonPlayerEventHandler@@UAEPAXI@Z
	DD	FLAT:?OnSyncing@CPythonPlayerEventHandler@@UAEXABUSState@IEventHandler@CActorInstance@@@Z
	DD	FLAT:?OnWaiting@CPythonPlayerEventHandler@@UAEXABUSState@IEventHandler@CActorInstance@@@Z
	DD	FLAT:?OnMoving@CPythonPlayerEventHandler@@UAEXABUSState@IEventHandler@CActorInstance@@@Z
	DD	FLAT:?OnMove@CPythonPlayerEventHandler@@UAEXABUSState@IEventHandler@CActorInstance@@@Z
	DD	FLAT:?OnStop@CPythonPlayerEventHandler@@UAEXABUSState@IEventHandler@CActorInstance@@@Z
	DD	FLAT:?OnWarp@CPythonPlayerEventHandler@@UAEXABUSState@IEventHandler@CActorInstance@@@Z
	DD	FLAT:?OnSetAffect@CPythonPlayerEventHandler@@UAEXI@Z
	DD	FLAT:?OnResetAffect@CPythonPlayerEventHandler@@UAEXI@Z
	DD	FLAT:?OnClearAffects@CPythonPlayerEventHandler@@UAEXXZ
	DD	FLAT:?OnAttack@CPythonPlayerEventHandler@@UAEXABUSState@IEventHandler@CActorInstance@@G@Z
	DD	FLAT:?OnUseSkill@CPythonPlayerEventHandler@@UAEXABUSState@IEventHandler@CActorInstance@@II@Z
	DD	FLAT:?OnHit@CPythonPlayerEventHandler@@UAEXIAAVCActorInstance@@H@Z
	DD	FLAT:?OnChangeShape@CPythonPlayerEventHandler@@UAEXXZ
	DD	FLAT:?OnUpdate@CPythonPlayerEventHandler@@UAEXXZ
CONST	ENDS
;	COMDAT ??_R4IFlyEventHandler@@6B@
rdata$r	SEGMENT
??_R4IFlyEventHandler@@6B@ DD 00H			; IFlyEventHandler::`RTTI Complete Object Locator'
	DD	00H
	DD	00H
	DD	FLAT:??_R0?AVIFlyEventHandler@@@8
	DD	FLAT:??_R3IFlyEventHandler@@8
rdata$r	ENDS
;	COMDAT ??_R4IEventHandler@CActorInstance@@6B@
rdata$r	SEGMENT
??_R4IEventHandler@CActorInstance@@6B@ DD 00H		; CActorInstance::IEventHandler::`RTTI Complete Object Locator'
	DD	00H
	DD	00H
	DD	FLAT:??_R0?AVIEventHandler@CActorInstance@@@8
	DD	FLAT:??_R3IEventHandler@CActorInstance@@8
rdata$r	ENDS
;	COMDAT ??_R4CNormalBowAttack_FlyEventHandler_AutoClear@CPythonPlayerEventHandler@@6B@
rdata$r	SEGMENT
??_R4CNormalBowAttack_FlyEventHandler_AutoClear@CPythonPlayerEventHandler@@6B@ DD 00H ; CPythonPlayerEventHandler::CNormalBowAttack_FlyEventHandler_AutoClear::`RTTI Complete Object Locator'
	DD	00H
	DD	00H
	DD	FLAT:??_R0?AVCNormalBowAttack_FlyEventHandler_AutoClear@CPythonPlayerEventHandler@@@8
	DD	FLAT:??_R3CNormalBowAttack_FlyEventHandler_AutoClear@CPythonPlayerEventHandler@@8
rdata$r	ENDS
;	COMDAT ??_R4CPythonPlayerEventHandler@@6B@
rdata$r	SEGMENT
??_R4CPythonPlayerEventHandler@@6B@ DD 00H		; CPythonPlayerEventHandler::`RTTI Complete Object Locator'
	DD	00H
	DD	00H
	DD	FLAT:??_R0?AVCPythonPlayerEventHandler@@@8
	DD	FLAT:??_R3CPythonPlayerEventHandler@@8
rdata$r	ENDS
;	COMDAT ??_R0?AVIFlyEventHandler@@@8
data$rs	SEGMENT
??_R0?AVIFlyEventHandler@@@8 DD FLAT:??_7type_info@@6B@	; IFlyEventHandler `RTTI Type Descriptor'
	DD	00H
	DB	'.?AVIFlyEventHandler@@', 00H
data$rs	ENDS
;	COMDAT ??_R3IFlyEventHandler@@8
rdata$r	SEGMENT
??_R3IFlyEventHandler@@8 DD 00H				; IFlyEventHandler::`RTTI Class Hierarchy Descriptor'
	DD	00H
	DD	01H
	DD	FLAT:??_R2IFlyEventHandler@@8
rdata$r	ENDS
;	COMDAT ??_R0?AVIEventHandler@CActorInstance@@@8
data$rs	SEGMENT
??_R0?AVIEventHandler@CActorInstance@@@8 DD FLAT:??_7type_info@@6B@ ; CActorInstance::IEventHandler `RTTI Type Descriptor'
	DD	00H
	DB	'.?AVIEventHandler@CActorInstance@@', 00H
data$rs	ENDS
;	COMDAT ??_R3IEventHandler@CActorInstance@@8
rdata$r	SEGMENT
??_R3IEventHandler@CActorInstance@@8 DD 00H		; CActorInstance::IEventHandler::`RTTI Class Hierarchy Descriptor'
	DD	00H
	DD	01H
	DD	FLAT:??_R2IEventHandler@CActorInstance@@8
rdata$r	ENDS
;	COMDAT ??_R0?AVCPythonPlayerEventHandler@@@8
data$rs	SEGMENT
??_R0?AVCPythonPlayerEventHandler@@@8 DD FLAT:??_7type_info@@6B@ ; CPythonPlayerEventHandler `RTTI Type Descriptor'
	DD	00H
	DB	'.?AVCPythonPlayerEventHandler@@', 00H
data$rs	ENDS
;	COMDAT ??_R0?AVCNormalBowAttack_FlyEventHandler_AutoClear@CPythonPlayerEventHandler@@@8
data$rs	SEGMENT
??_R0?AVCNormalBowAttack_FlyEventHandler_AutoClear@CPythonPlayerEventHandler@@@8 DD FLAT:??_7type_info@@6B@ ; CPythonPlayerEventHandler::CNormalBowAttack_FlyEventHandler_AutoClear `RTTI Type Descriptor'
	DD	00H
	DB	'.?AVCNormalBowAttack_FlyEventHandler_AutoClear@CPythonPl'
	DB	'ayerEventHandler@@', 00H
data$rs	ENDS
;	COMDAT ??_R3CPythonPlayerEventHandler@@8
rdata$r	SEGMENT
??_R3CPythonPlayerEventHandler@@8 DD 00H		; CPythonPlayerEventHandler::`RTTI Class Hierarchy Descriptor'
	DD	00H
	DD	02H
	DD	FLAT:??_R2CPythonPlayerEventHandler@@8
rdata$r	ENDS
;	COMDAT ??_R3CNormalBowAttack_FlyEventHandler_AutoClear@CPythonPlayerEventHandler@@8
rdata$r	SEGMENT
??_R3CNormalBowAttack_FlyEventHandler_AutoClear@CPythonPlayerEventHandler@@8 DD 00H ; CPythonPlayerEventHandler::CNormalBowAttack_FlyEventHandler_AutoClear::`RTTI Class Hierarchy Descriptor'
	DD	00H
	DD	02H
	DD	FLAT:??_R2CNormalBowAttack_FlyEventHandler_AutoClear@CPythonPlayerEventHandler@@8
rdata$r	ENDS
;	COMDAT ??_R1A@?0A@EA@IFlyEventHandler@@8
rdata$r	SEGMENT
??_R1A@?0A@EA@IFlyEventHandler@@8 DD FLAT:??_R0?AVIFlyEventHandler@@@8 ; IFlyEventHandler::`RTTI Base Class Descriptor at (0,-1,0,64)'
	DD	00H
	DD	00H
	DD	0ffffffffH
	DD	00H
	DD	040H
	DD	FLAT:??_R3IFlyEventHandler@@8
rdata$r	ENDS
;	COMDAT ??_R1A@?0A@EA@IEventHandler@CActorInstance@@8
rdata$r	SEGMENT
??_R1A@?0A@EA@IEventHandler@CActorInstance@@8 DD FLAT:??_R0?AVIEventHandler@CActorInstance@@@8 ; CActorInstance::IEventHandler::`RTTI Base Class Descriptor at (0,-1,0,64)'
	DD	00H
	DD	00H
	DD	0ffffffffH
	DD	00H
	DD	040H
	DD	FLAT:??_R3IEventHandler@CActorInstance@@8
rdata$r	ENDS
;	COMDAT ??_R1A@?0A@EA@CNormalBowAttack_FlyEventHandler_AutoClear@CPythonPlayerEventHandler@@8
rdata$r	SEGMENT
??_R1A@?0A@EA@CNormalBowAttack_FlyEventHandler_AutoClear@CPythonPlayerEventHandler@@8 DD FLAT:??_R0?AVCNormalBowAttack_FlyEventHandler_AutoClear@CPythonPlayerEventHandler@@@8 ; CPythonPlayerEventHandler::CNormalBowAttack_FlyEventHandler_AutoClear::`RTTI Base Class Descriptor at (0,-1,0,64)'
	DD	01H
	DD	00H
	DD	0ffffffffH
	DD	00H
	DD	040H
	DD	FLAT:??_R3CNormalBowAttack_FlyEventHandler_AutoClear@CPythonPlayerEventHandler@@8
rdata$r	ENDS
;	COMDAT ??_R1A@?0A@EA@CPythonPlayerEventHandler@@8
rdata$r	SEGMENT
??_R1A@?0A@EA@CPythonPlayerEventHandler@@8 DD FLAT:??_R0?AVCPythonPlayerEventHandler@@@8 ; CPythonPlayerEventHandler::`RTTI Base Class Descriptor at (0,-1,0,64)'
	DD	01H
	DD	00H
	DD	0ffffffffH
	DD	00H
	DD	040H
	DD	FLAT:??_R3CPythonPlayerEventHandler@@8
rdata$r	ENDS
;	COMDAT ??_R2IFlyEventHandler@@8
rdata$r	SEGMENT
??_R2IFlyEventHandler@@8 DD FLAT:??_R1A@?0A@EA@IFlyEventHandler@@8 ; IFlyEventHandler::`RTTI Base Class Array'
rdata$r	ENDS
;	COMDAT ??_R2IEventHandler@CActorInstance@@8
rdata$r	SEGMENT
??_R2IEventHandler@CActorInstance@@8 DD FLAT:??_R1A@?0A@EA@IEventHandler@CActorInstance@@8 ; CActorInstance::IEventHandler::`RTTI Base Class Array'
rdata$r	ENDS
;	COMDAT ??_R2CNormalBowAttack_FlyEventHandler_AutoClear@CPythonPlayerEventHandler@@8
rdata$r	SEGMENT
??_R2CNormalBowAttack_FlyEventHandler_AutoClear@CPythonPlayerEventHandler@@8 DD FLAT:??_R1A@?0A@EA@CNormalBowAttack_FlyEventHandler_AutoClear@CPythonPlayerEventHandler@@8 ; CPythonPlayerEventHandler::CNormalBowAttack_FlyEventHandler_AutoClear::`RTTI Base Class Array'
	DD	FLAT:??_R1A@?0A@EA@IFlyEventHandler@@8
rdata$r	ENDS
;	COMDAT ??_R2CPythonPlayerEventHandler@@8
rdata$r	SEGMENT
??_R2CPythonPlayerEventHandler@@8 DD FLAT:??_R1A@?0A@EA@CPythonPlayerEventHandler@@8 ; CPythonPlayerEventHandler::`RTTI Base Class Array'
	DD	FLAT:??_R1A@?0A@EA@IEventHandler@CActorInstance@@8
rdata$r	ENDS
;	COMDAT ??_C@_0CL@BHCKMNDC@Shoot?5?3?5?$LE?Y?$LI?$KF?5target?$LP?$KB?5?$LI?B?$LO?R?$LN?$MA?$LE?O?$LE@
CONST	SEGMENT
??_C@_0CL@BHCKMNDC@Shoot?5?3?5?$LE?Y?$LI?$KF?5target?$LP?$KB?5?$LI?B?$LO?R?$LN?$MA?$LE?O?$LE@ DB 'S'
	DB	'hoot : ', 0b4H, 0d9H, 0b8H, 0a5H, ' target', 0bfH, 0a1H, ' ', 0b8H
	DB	0c2H, 0beH, 0d2H, 0bdH, 0c0H, 0b4H, 0cfH, 0b4H, 0d9H, ' : %d, '
	DB	'%d', 0aH, 00H				; `string'
CONST	ENDS
;	COMDAT ??_C@_1LK@PGLBBCJE@?$AAC?$AA?3?$AA?2?$AAA?$AAn?$AAk?$AAa?$AA2?$AAP?$AAr?$AAo?$AAj?$AAe?$AAc?$AAt@
CONST	SEGMENT
??_C@_1LK@PGLBBCJE@?$AAC?$AA?3?$AA?2?$AAA?$AAn?$AAk?$AAa?$AA2?$AAP?$AAr?$AAo?$AAj?$AAe?$AAc?$AAt@ DB 'C'
	DB	00H, ':', 00H, '\', 00H, 'A', 00H, 'n', 00H, 'k', 00H, 'a', 00H
	DB	'2', 00H, 'P', 00H, 'r', 00H, 'o', 00H, 'j', 00H, 'e', 00H, 'c'
	DB	00H, 't', 00H, '\', 00H, 'A', 00H, 'n', 00H, 'k', 00H, 'a', 00H
	DB	'2', 00H, 'P', 00H, 'r', 00H, 'o', 00H, 'j', 00H, 'e', 00H, 'c'
	DB	00H, 't', 00H, '\', 00H, 'S', 00H, 'o', 00H, 'u', 00H, 'r', 00H
	DB	'c', 00H, 'e', 00H, '\', 00H, 'B', 00H, 'i', 00H, 'n', 00H, 'a'
	DB	00H, 'r', 00H, 'y', 00H, '\', 00H, 's', 00H, 'o', 00H, 'u', 00H
	DB	'r', 00H, 'c', 00H, 'e', 00H, '\', 00H, 'U', 00H, 's', 00H, 'e'
	DB	00H, 'r', 00H, 'I', 00H, 'n', 00H, 't', 00H, 'e', 00H, 'r', 00H
	DB	'f', 00H, 'a', 00H, 'c', 00H, 'e', 00H, '\', 00H, 'P', 00H, 'y'
	DB	00H, 't', 00H, 'h', 00H, 'o', 00H, 'n', 00H, 'P', 00H, 'l', 00H
	DB	'a', 00H, 'y', 00H, 'e', 00H, 'r', 00H, 'E', 00H, 'v', 00H, 'e'
	DB	00H, 'n', 00H, 't', 00H, 'H', 00H, 'a', 00H, 'n', 00H, 'd', 00H
	DB	'l', 00H, 'e', 00H, 'r', 00H, '.', 00H, 'c', 00H, 'p', 00H, 'p'
	DB	00H, 00H, 00H				; `string'
CONST	ENDS
;	COMDAT ??_C@_1CG@KEIABLLO@?$AAw?$AAM?$AAo?$AAt?$AAi?$AAo?$AAn?$AAI?$AAn?$AAd?$AAe?$AAx?$AA?5?$AA?$DM?$AA?5@
CONST	SEGMENT
??_C@_1CG@KEIABLLO@?$AAw?$AAM?$AAo?$AAt?$AAi?$AAo?$AAn?$AAI?$AAn?$AAd?$AAe?$AAx?$AA?5?$AA?$DM?$AA?5@ DB 'w'
	DB	00H, 'M', 00H, 'o', 00H, 't', 00H, 'i', 00H, 'o', 00H, 'n', 00H
	DB	'I', 00H, 'n', 00H, 'd', 00H, 'e', 00H, 'x', 00H, ' ', 00H, '<'
	DB	00H, ' ', 00H, '2', 00H, '5', 00H, '5', 00H, 00H, 00H ; `string'
PUBLIC	??$construct_at@USVictim@CPythonPlayerEventHandler@@U12@@std@@YAPAUSVictim@CPythonPlayerEventHandler@@QAU12@$$QAU12@@Z ; std::construct_at<CPythonPlayerEventHandler::SVictim,CPythonPlayerEventHandler::SVictim>
PUBLIC	?_Get_first@?$_Compressed_pair@V?$allocator@USVictim@CPythonPlayerEventHandler@@@std@@V?$_Vector_val@U?$_Simple_types@USVictim@CPythonPlayerEventHandler@@@std@@@2@$00@std@@QBEABV?$allocator@USVictim@CPythonPlayerEventHandler@@@2@XZ ; std::_Compressed_pair<std::allocator<CPythonPlayerEventHandler::SVictim>,std::_Vector_val<std::_Simple_types<CPythonPlayerEventHandler::SVictim> >,1>::_Get_first
PUBLIC	??$construct@USVictim@CPythonPlayerEventHandler@@U12@@?$_Default_allocator_traits@V?$allocator@USVictim@CPythonPlayerEventHandler@@@std@@@std@@SAXAAV?$allocator@USVictim@CPythonPlayerEventHandler@@@1@QAUSVictim@CPythonPlayerEventHandler@@$$QAU34@@Z ; std::_Default_allocator_traits<std::allocator<CPythonPlayerEventHandler::SVictim> >::construct<CPythonPlayerEventHandler::SVictim,CPythonPlayerEventHandler::SVictim>
PUBLIC	??$forward@USVictim@CPythonPlayerEventHandler@@@std@@YA$$QAUSVictim@CPythonPlayerEventHandler@@AAU12@@Z ; std::forward<CPythonPlayerEventHandler::SVictim>
PUBLIC	??$_Copy_memmove_tail@PAUSVictim@CPythonPlayerEventHandler@@@std@@YAPAUSVictim@CPythonPlayerEventHandler@@QBDQAU12@II@Z ; std::_Copy_memmove_tail<CPythonPlayerEventHandler::SVictim *>
PUBLIC	??$move@AAPAUSVictim@CPythonPlayerEventHandler@@@std@@YA$$QAPAUSVictim@CPythonPlayerEventHandler@@AAPAU12@@Z ; std::move<CPythonPlayerEventHandler::SVictim * &>
PUBLIC	??$to_address@USVictim@CPythonPlayerEventHandler@@@std@@YAPAUSVictim@CPythonPlayerEventHandler@@QAU12@@Z ; std::to_address<CPythonPlayerEventHandler::SVictim>
PUBLIC	?allocate@?$allocator@USVictim@CPythonPlayerEventHandler@@@std@@QAEPAUSVictim@CPythonPlayerEventHandler@@I@Z ; std::allocator<CPythonPlayerEventHandler::SVictim>::allocate
PUBLIC	?capacity@?$vector@USVictim@CPythonPlayerEventHandler@@V?$allocator@USVictim@CPythonPlayerEventHandler@@@std@@@std@@QBEIXZ ; std::vector<CPythonPlayerEventHandler::SVictim,std::allocator<CPythonPlayerEventHandler::SVictim> >::capacity
PUBLIC	?_Getal@?$vector@USVictim@CPythonPlayerEventHandler@@V?$allocator@USVictim@CPythonPlayerEventHandler@@@std@@@std@@ABEABV?$allocator@USVictim@CPythonPlayerEventHandler@@@2@XZ ; std::vector<CPythonPlayerEventHandler::SVictim,std::allocator<CPythonPlayerEventHandler::SVictim> >::_Getal
PUBLIC	?max_size@?$_Default_allocator_traits@V?$allocator@USVictim@CPythonPlayerEventHandler@@@std@@@std@@SAIABV?$allocator@USVictim@CPythonPlayerEventHandler@@@2@@Z ; std::_Default_allocator_traits<std::allocator<CPythonPlayerEventHandler::SVictim> >::max_size
PUBLIC	??0?$_Uninitialized_backout_al@V?$allocator@USVictim@CPythonPlayerEventHandler@@@std@@@std@@QAE@PAUSVictim@CPythonPlayerEventHandler@@AAV?$allocator@USVictim@CPythonPlayerEventHandler@@@1@@Z ; std::_Uninitialized_backout_al<std::allocator<CPythonPlayerEventHandler::SVictim> >::_Uninitialized_backout_al<std::allocator<CPythonPlayerEventHandler::SVictim> >
PUBLIC	??1?$_Uninitialized_backout_al@V?$allocator@USVictim@CPythonPlayerEventHandler@@@std@@@std@@QAE@XZ ; std::_Uninitialized_backout_al<std::allocator<CPythonPlayerEventHandler::SVictim> >::~_Uninitialized_backout_al<std::allocator<CPythonPlayerEventHandler::SVictim> >
PUBLIC	?_Release@?$_Uninitialized_backout_al@V?$allocator@USVictim@CPythonPlayerEventHandler@@@std@@@std@@QAEPAUSVictim@CPythonPlayerEventHandler@@XZ ; std::_Uninitialized_backout_al<std::allocator<CPythonPlayerEventHandler::SVictim> >::_Release
PUBLIC	??$_Emplace_back@USVictim@CPythonPlayerEventHandler@@@?$_Uninitialized_backout_al@V?$allocator@USVictim@CPythonPlayerEventHandler@@@std@@@std@@QAEX$$QAUSVictim@CPythonPlayerEventHandler@@@Z ; std::_Uninitialized_backout_al<std::allocator<CPythonPlayerEventHandler::SVictim> >::_Emplace_back<CPythonPlayerEventHandler::SVictim>
PUBLIC	??$_To_address@PAUSVictim@CPythonPlayerEventHandler@@@std@@YA?A_PABQAUSVictim@CPythonPlayerEventHandler@@@Z ; std::_To_address<CPythonPlayerEventHandler::SVictim *>
PUBLIC	??$_Copy_memmove@PAUSVictim@CPythonPlayerEventHandler@@PAU12@@std@@YAPAUSVictim@CPythonPlayerEventHandler@@PAU12@00@Z ; std::_Copy_memmove<CPythonPlayerEventHandler::SVictim *,CPythonPlayerEventHandler::SVictim *>
PUBLIC	??$move@AAUSVictim@CPythonPlayerEventHandler@@@std@@YA$$QAUSVictim@CPythonPlayerEventHandler@@AAU12@@Z ; std::move<CPythonPlayerEventHandler::SVictim &>
PUBLIC	??$construct_at@USVictim@CPythonPlayerEventHandler@@ABU12@@std@@YAPAUSVictim@CPythonPlayerEventHandler@@QAU12@ABU12@@Z ; std::construct_at<CPythonPlayerEventHandler::SVictim,CPythonPlayerEventHandler::SVictim const &>
PUBLIC	??$addressof@USVictim@CPythonPlayerEventHandler@@@std@@YAPAUSVictim@CPythonPlayerEventHandler@@AAU12@@Z ; std::addressof<CPythonPlayerEventHandler::SVictim>
PUBLIC	?max_size@?$vector@USVictim@CPythonPlayerEventHandler@@V?$allocator@USVictim@CPythonPlayerEventHandler@@@std@@@std@@QBEIXZ ; std::vector<CPythonPlayerEventHandler::SVictim,std::allocator<CPythonPlayerEventHandler::SVictim> >::max_size
PUBLIC	?_Calculate_growth@?$vector@USVictim@CPythonPlayerEventHandler@@V?$allocator@USVictim@CPythonPlayerEventHandler@@@std@@@std@@ABEII@Z ; std::vector<CPythonPlayerEventHandler::SVictim,std::allocator<CPythonPlayerEventHandler::SVictim> >::_Calculate_growth
PUBLIC	?_Change_array@?$vector@USVictim@CPythonPlayerEventHandler@@V?$allocator@USVictim@CPythonPlayerEventHandler@@@std@@@std@@AAEXQAUSVictim@CPythonPlayerEventHandler@@II@Z ; std::vector<CPythonPlayerEventHandler::SVictim,std::allocator<CPythonPlayerEventHandler::SVictim> >::_Change_array
PUBLIC	?_Xlength@?$vector@USVictim@CPythonPlayerEventHandler@@V?$allocator@USVictim@CPythonPlayerEventHandler@@@std@@@std@@CAXXZ ; std::vector<CPythonPlayerEventHandler::SVictim,std::allocator<CPythonPlayerEventHandler::SVictim> >::_Xlength
PUBLIC	?_Orphan_range@?$vector@USVictim@CPythonPlayerEventHandler@@V?$allocator@USVictim@CPythonPlayerEventHandler@@@std@@@std@@ABEXPAUSVictim@CPythonPlayerEventHandler@@0@Z ; std::vector<CPythonPlayerEventHandler::SVictim,std::allocator<CPythonPlayerEventHandler::SVictim> >::_Orphan_range
PUBLIC	??1_Reallocation_guard@?$vector@USVictim@CPythonPlayerEventHandler@@V?$allocator@USVictim@CPythonPlayerEventHandler@@@std@@@std@@QAE@XZ ; std::vector<CPythonPlayerEventHandler::SVictim,std::allocator<CPythonPlayerEventHandler::SVictim> >::_Reallocation_guard::~_Reallocation_guard
PUBLIC	??$_Uninitialized_move@PAUSVictim@CPythonPlayerEventHandler@@V?$allocator@USVictim@CPythonPlayerEventHandler@@@std@@@std@@YAPAUSVictim@CPythonPlayerEventHandler@@QAU12@0PAU12@AAV?$allocator@USVictim@CPythonPlayerEventHandler@@@0@@Z ; std::_Uninitialized_move<CPythonPlayerEventHandler::SVictim *,std::allocator<CPythonPlayerEventHandler::SVictim> >
PUBLIC	??$_Get_unwrapped@ABQAUSVictim@CPythonPlayerEventHandler@@@std@@YA?A_TABQAUSVictim@CPythonPlayerEventHandler@@@Z ; std::_Get_unwrapped<CPythonPlayerEventHandler::SVictim * const &>
PUBLIC	??$construct@USVictim@CPythonPlayerEventHandler@@ABU12@@?$_Default_allocator_traits@V?$allocator@USVictim@CPythonPlayerEventHandler@@@std@@@std@@SAXAAV?$allocator@USVictim@CPythonPlayerEventHandler@@@1@QAUSVictim@CPythonPlayerEventHandler@@ABU34@@Z ; std::_Default_allocator_traits<std::allocator<CPythonPlayerEventHandler::SVictim> >::construct<CPythonPlayerEventHandler::SVictim,CPythonPlayerEventHandler::SVictim const &>
PUBLIC	??$_Unfancy@USVictim@CPythonPlayerEventHandler@@@std@@YAPAUSVictim@CPythonPlayerEventHandler@@PAU12@@Z ; std::_Unfancy<CPythonPlayerEventHandler::SVictim>
PUBLIC	??$_Allocate_at_least_helper@V?$allocator@USVictim@CPythonPlayerEventHandler@@@std@@@std@@YAPAUSVictim@CPythonPlayerEventHandler@@AAV?$allocator@USVictim@CPythonPlayerEventHandler@@@0@AAI@Z ; std::_Allocate_at_least_helper<std::allocator<CPythonPlayerEventHandler::SVictim> >
PUBLIC	??$_Construct_in_place@USVictim@CPythonPlayerEventHandler@@ABU12@@std@@YAXAAUSVictim@CPythonPlayerEventHandler@@ABU12@@Z ; std::_Construct_in_place<CPythonPlayerEventHandler::SVictim,CPythonPlayerEventHandler::SVictim const &>
PUBLIC	??0?$allocator@USVictim@CPythonPlayerEventHandler@@@std@@QAE@XZ ; std::allocator<CPythonPlayerEventHandler::SVictim>::allocator<CPythonPlayerEventHandler::SVictim>
PUBLIC	?deallocate@?$allocator@USVictim@CPythonPlayerEventHandler@@@std@@QAEXQAUSVictim@CPythonPlayerEventHandler@@I@Z ; std::allocator<CPythonPlayerEventHandler::SVictim>::deallocate
PUBLIC	??0?$_Vector_val@U?$_Simple_types@USVictim@CPythonPlayerEventHandler@@@std@@@std@@QAE@XZ ; std::_Vector_val<std::_Simple_types<CPythonPlayerEventHandler::SVictim> >::_Vector_val<std::_Simple_types<CPythonPlayerEventHandler::SVictim> >
PUBLIC	?_Get_first@?$_Compressed_pair@V?$allocator@USVictim@CPythonPlayerEventHandler@@@std@@V?$_Vector_val@U?$_Simple_types@USVictim@CPythonPlayerEventHandler@@@std@@@2@$00@std@@QAEAAV?$allocator@USVictim@CPythonPlayerEventHandler@@@2@XZ ; std::_Compressed_pair<std::allocator<CPythonPlayerEventHandler::SVictim>,std::_Vector_val<std::_Simple_types<CPythonPlayerEventHandler::SVictim> >,1>::_Get_first
PUBLIC	??$_Emplace_reallocate@ABUSVictim@CPythonPlayerEventHandler@@@?$vector@USVictim@CPythonPlayerEventHandler@@V?$allocator@USVictim@CPythonPlayerEventHandler@@@std@@@std@@AAEPAUSVictim@CPythonPlayerEventHandler@@QAU23@ABU23@@Z ; std::vector<CPythonPlayerEventHandler::SVictim,std::allocator<CPythonPlayerEventHandler::SVictim> >::_Emplace_reallocate<CPythonPlayerEventHandler::SVictim const &>
PUBLIC	??$_Emplace_back_with_unused_capacity@ABUSVictim@CPythonPlayerEventHandler@@@?$vector@USVictim@CPythonPlayerEventHandler@@V?$allocator@USVictim@CPythonPlayerEventHandler@@@std@@@std@@AAEAAUSVictim@CPythonPlayerEventHandler@@ABU23@@Z ; std::vector<CPythonPlayerEventHandler::SVictim,std::allocator<CPythonPlayerEventHandler::SVictim> >::_Emplace_back_with_unused_capacity<CPythonPlayerEventHandler::SVictim const &>
PUBLIC	??$forward@ABUSVictim@CPythonPlayerEventHandler@@@std@@YAABUSVictim@CPythonPlayerEventHandler@@ABU12@@Z ; std::forward<CPythonPlayerEventHandler::SVictim const &>
PUBLIC	?_Tidy@?$vector@USVictim@CPythonPlayerEventHandler@@V?$allocator@USVictim@CPythonPlayerEventHandler@@@std@@@std@@AAEXXZ ; std::vector<CPythonPlayerEventHandler::SVictim,std::allocator<CPythonPlayerEventHandler::SVictim> >::_Tidy
PUBLIC	?_Getal@?$vector@USVictim@CPythonPlayerEventHandler@@V?$allocator@USVictim@CPythonPlayerEventHandler@@@std@@@std@@AAEAAV?$allocator@USVictim@CPythonPlayerEventHandler@@@2@XZ ; std::vector<CPythonPlayerEventHandler::SVictim,std::allocator<CPythonPlayerEventHandler::SVictim> >::_Getal
PUBLIC	??$?0$$V@?$_Compressed_pair@V?$allocator@USVictim@CPythonPlayerEventHandler@@@std@@V?$_Vector_val@U?$_Simple_types@USVictim@CPythonPlayerEventHandler@@@std@@@2@$00@std@@QAE@U_Zero_then_variadic_args_t@1@@Z ; std::_Compressed_pair<std::allocator<CPythonPlayerEventHandler::SVictim>,std::_Vector_val<std::_Simple_types<CPythonPlayerEventHandler::SVictim> >,1>::_Compressed_pair<std::allocator<CPythonPlayerEventHandler::SVictim>,std::_Vector_val<std::_Simple_types<CPythonPlayerEventHandler::SVictim> >,1><>
PUBLIC	??$_Emplace_one_at_back@ABUSVictim@CPythonPlayerEventHandler@@@?$vector@USVictim@CPythonPlayerEventHandler@@V?$allocator@USVictim@CPythonPlayerEventHandler@@@std@@@std@@AAEAAUSVictim@CPythonPlayerEventHandler@@ABU23@@Z ; std::vector<CPythonPlayerEventHandler::SVictim,std::allocator<CPythonPlayerEventHandler::SVictim> >::_Emplace_one_at_back<CPythonPlayerEventHandler::SVictim const &>
PUBLIC	??$_Destroy_range@V?$allocator@USVictim@CPythonPlayerEventHandler@@@std@@@std@@YAXPAUSVictim@CPythonPlayerEventHandler@@QAU12@AAV?$allocator@USVictim@CPythonPlayerEventHandler@@@0@@Z ; std::_Destroy_range<std::allocator<CPythonPlayerEventHandler::SVictim> >
PUBLIC	??0?$vector@USVictim@CPythonPlayerEventHandler@@V?$allocator@USVictim@CPythonPlayerEventHandler@@@std@@@std@@QAE@XZ ; std::vector<CPythonPlayerEventHandler::SVictim,std::allocator<CPythonPlayerEventHandler::SVictim> >::vector<CPythonPlayerEventHandler::SVictim,std::allocator<CPythonPlayerEventHandler::SVictim> >
PUBLIC	??1?$vector@USVictim@CPythonPlayerEventHandler@@V?$allocator@USVictim@CPythonPlayerEventHandler@@@std@@@std@@QAE@XZ ; std::vector<CPythonPlayerEventHandler::SVictim,std::allocator<CPythonPlayerEventHandler::SVictim> >::~vector<CPythonPlayerEventHandler::SVictim,std::allocator<CPythonPlayerEventHandler::SVictim> >
PUBLIC	?push_back@?$vector@USVictim@CPythonPlayerEventHandler@@V?$allocator@USVictim@CPythonPlayerEventHandler@@@std@@@std@@QAEXABUSVictim@CPythonPlayerEventHandler@@@Z ; std::vector<CPythonPlayerEventHandler::SVictim,std::allocator<CPythonPlayerEventHandler::SVictim> >::push_back
PUBLIC	?clear@?$vector@USVictim@CPythonPlayerEventHandler@@V?$allocator@USVictim@CPythonPlayerEventHandler@@@std@@@std@@QAEXXZ ; std::vector<CPythonPlayerEventHandler::SVictim,std::allocator<CPythonPlayerEventHandler::SVictim> >::clear
PUBLIC	?empty@?$vector@USVictim@CPythonPlayerEventHandler@@V?$allocator@USVictim@CPythonPlayerEventHandler@@@std@@@std@@QBE_NXZ ; std::vector<CPythonPlayerEventHandler::SVictim,std::allocator<CPythonPlayerEventHandler::SVictim> >::empty
PUBLIC	?size@?$vector@USVictim@CPythonPlayerEventHandler@@V?$allocator@USVictim@CPythonPlayerEventHandler@@@std@@@std@@QBEIXZ ; std::vector<CPythonPlayerEventHandler::SVictim,std::allocator<CPythonPlayerEventHandler::SVictim> >::size
PUBLIC	??A?$vector@USVictim@CPythonPlayerEventHandler@@V?$allocator@USVictim@CPythonPlayerEventHandler@@@std@@@std@@QAEAAUSVictim@CPythonPlayerEventHandler@@I@Z ; std::vector<CPythonPlayerEventHandler::SVictim,std::allocator<CPythonPlayerEventHandler::SVictim> >::operator[]
PUBLIC	?OnExplodingAtTarget@CNormalBowAttack_FlyEventHandler_AutoClear@CPythonPlayerEventHandler@@UAEXK@Z ; CPythonPlayerEventHandler::CNormalBowAttack_FlyEventHandler_AutoClear::OnExplodingAtTarget
PUBLIC	?OnExplodingAtAnotherTarget@CNormalBowAttack_FlyEventHandler_AutoClear@CPythonPlayerEventHandler@@UAEXKK@Z ; CPythonPlayerEventHandler::CNormalBowAttack_FlyEventHandler_AutoClear::OnExplodingAtAnotherTarget
PUBLIC	?Set@CNormalBowAttack_FlyEventHandler_AutoClear@CPythonPlayerEventHandler@@QAEXPAV2@PAVCInstanceBase@@1@Z ; CPythonPlayerEventHandler::CNormalBowAttack_FlyEventHandler_AutoClear::Set
PUBLIC	?OnShoot@CNormalBowAttack_FlyEventHandler_AutoClear@CPythonPlayerEventHandler@@UAEXK@Z ; CPythonPlayerEventHandler::CNormalBowAttack_FlyEventHandler_AutoClear::OnShoot
PUBLIC	??0SState@IEventHandler@CActorInstance@@QAE@XZ	; CActorInstance::IEventHandler::SState::SState
PUBLIC	?OnSetFlyTarget@CNormalBowAttack_FlyEventHandler_AutoClear@CPythonPlayerEventHandler@@UAEXXZ ; CPythonPlayerEventHandler::CNormalBowAttack_FlyEventHandler_AutoClear::OnSetFlyTarget
PUBLIC	??0CPythonPlayerEventHandler@@IAE@XZ		; CPythonPlayerEventHandler::CPythonPlayerEventHandler
PUBLIC	?OnHit@CPythonPlayerEventHandler@@UAEXIAAVCActorInstance@@H@Z ; CPythonPlayerEventHandler::OnHit
PUBLIC	?OnChangeShape@CPythonPlayerEventHandler@@UAEXXZ ; CPythonPlayerEventHandler::OnChangeShape
PUBLIC	?OnUpdate@CPythonPlayerEventHandler@@UAEXXZ	; CPythonPlayerEventHandler::OnUpdate
PUBLIC	?OnUseSkill@CPythonPlayerEventHandler@@UAEXABUSState@IEventHandler@CActorInstance@@II@Z ; CPythonPlayerEventHandler::OnUseSkill
PUBLIC	?OnAttack@CPythonPlayerEventHandler@@UAEXABUSState@IEventHandler@CActorInstance@@G@Z ; CPythonPlayerEventHandler::OnAttack
PUBLIC	?OnWarp@CPythonPlayerEventHandler@@UAEXABUSState@IEventHandler@CActorInstance@@@Z ; CPythonPlayerEventHandler::OnWarp
PUBLIC	?OnStop@CPythonPlayerEventHandler@@UAEXABUSState@IEventHandler@CActorInstance@@@Z ; CPythonPlayerEventHandler::OnStop
PUBLIC	?OnMove@CPythonPlayerEventHandler@@UAEXABUSState@IEventHandler@CActorInstance@@@Z ; CPythonPlayerEventHandler::OnMove
PUBLIC	?OnMoving@CPythonPlayerEventHandler@@UAEXABUSState@IEventHandler@CActorInstance@@@Z ; CPythonPlayerEventHandler::OnMoving
PUBLIC	?OnWaiting@CPythonPlayerEventHandler@@UAEXABUSState@IEventHandler@CActorInstance@@@Z ; CPythonPlayerEventHandler::OnWaiting
PUBLIC	?OnSyncing@CPythonPlayerEventHandler@@UAEXABUSState@IEventHandler@CActorInstance@@@Z ; CPythonPlayerEventHandler::OnSyncing
PUBLIC	?OnResetAffect@CPythonPlayerEventHandler@@UAEXI@Z ; CPythonPlayerEventHandler::OnResetAffect
PUBLIC	?OnSetAffect@CPythonPlayerEventHandler@@UAEXI@Z	; CPythonPlayerEventHandler::OnSetAffect
PUBLIC	?OnClearAffects@CPythonPlayerEventHandler@@UAEXXZ ; CPythonPlayerEventHandler::OnClearAffects
PUBLIC	??_GCPythonPlayerEventHandler@@UAEPAXI@Z	; CPythonPlayerEventHandler::`scalar deleting destructor'
PUBLIC	??1CPythonPlayerEventHandler@@UAE@XZ		; CPythonPlayerEventHandler::~CPythonPlayerEventHandler
PUBLIC	??_GCNormalBowAttack_FlyEventHandler_AutoClear@CPythonPlayerEventHandler@@UAEPAXI@Z ; CPythonPlayerEventHandler::CNormalBowAttack_FlyEventHandler_AutoClear::`scalar deleting destructor'
PUBLIC	?OnExplodingAtBackground@CNormalBowAttack_FlyEventHandler_AutoClear@CPythonPlayerEventHandler@@UAEXXZ ; CPythonPlayerEventHandler::CNormalBowAttack_FlyEventHandler_AutoClear::OnExplodingAtBackground
PUBLIC	?OnExplodingOutOfRange@CNormalBowAttack_FlyEventHandler_AutoClear@CPythonPlayerEventHandler@@UAEXXZ ; CPythonPlayerEventHandler::CNormalBowAttack_FlyEventHandler_AutoClear::OnExplodingOutOfRange
PUBLIC	?OnNoTarget@CNormalBowAttack_FlyEventHandler_AutoClear@CPythonPlayerEventHandler@@UAEXXZ ; CPythonPlayerEventHandler::CNormalBowAttack_FlyEventHandler_AutoClear::OnNoTarget
PUBLIC	??1CNormalBowAttack_FlyEventHandler_AutoClear@CPythonPlayerEventHandler@@UAE@XZ ; CPythonPlayerEventHandler::CNormalBowAttack_FlyEventHandler_AutoClear::~CNormalBowAttack_FlyEventHandler_AutoClear
PUBLIC	??0CNormalBowAttack_FlyEventHandler_AutoClear@CPythonPlayerEventHandler@@QAE@XZ ; CPythonPlayerEventHandler::CNormalBowAttack_FlyEventHandler_AutoClear::CNormalBowAttack_FlyEventHandler_AutoClear
PUBLIC	??_GIFlyEventHandler@@UAEPAXI@Z			; IFlyEventHandler::`scalar deleting destructor'
PUBLIC	?OnExplodingAtTarget@IFlyEventHandler@@UAEXK@Z	; IFlyEventHandler::OnExplodingAtTarget
PUBLIC	?OnExplodingAtAnotherTarget@IFlyEventHandler@@UAEXKK@Z ; IFlyEventHandler::OnExplodingAtAnotherTarget
PUBLIC	?OnExplodingAtBackground@IFlyEventHandler@@UAEXXZ ; IFlyEventHandler::OnExplodingAtBackground
PUBLIC	?OnExplodingOutOfRange@IFlyEventHandler@@UAEXXZ	; IFlyEventHandler::OnExplodingOutOfRange
PUBLIC	?OnNoArrow@IFlyEventHandler@@UAEXXZ		; IFlyEventHandler::OnNoArrow
PUBLIC	?OnNoTarget@IFlyEventHandler@@UAEXXZ		; IFlyEventHandler::OnNoTarget
PUBLIC	?OnShoot@IFlyEventHandler@@UAEXK@Z		; IFlyEventHandler::OnShoot
PUBLIC	?OnSetFlyTarget@IFlyEventHandler@@UAEXXZ	; IFlyEventHandler::OnSetFlyTarget
PUBLIC	??1IFlyEventHandler@@UAE@XZ			; IFlyEventHandler::~IFlyEventHandler
PUBLIC	??0IFlyEventHandler@@QAE@XZ			; IFlyEventHandler::IFlyEventHandler
PUBLIC	??_GIEventHandler@CActorInstance@@UAEPAXI@Z	; CActorInstance::IEventHandler::`scalar deleting destructor'
PUBLIC	??1IEventHandler@CActorInstance@@UAE@XZ		; CActorInstance::IEventHandler::~IEventHandler
PUBLIC	??0IEventHandler@CActorInstance@@QAE@XZ		; CActorInstance::IEventHandler::IEventHandler
PUBLIC	?GetSingleton@CPythonPlayerEventHandler@@SAAAV1@XZ ; CPythonPlayerEventHandler::GetSingleton
PUBLIC	?FlushVictimList@CPythonPlayerEventHandler@@QAEXXZ ; CPythonPlayerEventHandler::FlushVictimList
EXTRN	??_EIFlyEventHandler@@UAEPAXI@Z:PROC		; IFlyEventHandler::`vector deleting destructor'
EXTRN	??_EIEventHandler@CActorInstance@@UAEPAXI@Z:PROC ; CActorInstance::IEventHandler::`vector deleting destructor'
EXTRN	??_ECPythonPlayerEventHandler@@UAEPAXI@Z:PROC	; CPythonPlayerEventHandler::`vector deleting destructor'
EXTRN	??_ECNormalBowAttack_FlyEventHandler_AutoClear@CPythonPlayerEventHandler@@UAEPAXI@Z:PROC ; CPythonPlayerEventHandler::CNormalBowAttack_FlyEventHandler_AutoClear::`vector deleting destructor'
;	COMDAT ?$TSS0@?1??GetSingleton@CPythonPlayerEventHandler@@SAAAV2@XZ@4HA
_BSS	SEGMENT
?$TSS0@?1??GetSingleton@CPythonPlayerEventHandler@@SAAAV2@XZ@4HA DD 01H DUP (?) ; `CPythonPlayerEventHandler::GetSingleton'::`2'::$TSS0
_BSS	ENDS
;	COMDAT ?s_kPlayerEventHandler@?1??GetSingleton@CPythonPlayerEventHandler@@SAAAV2@XZ@4V2@A
_BSS	SEGMENT
?s_kPlayerEventHandler@?1??GetSingleton@CPythonPlayerEventHandler@@SAAAV2@XZ@4V2@A DB 038H DUP (?) ; `CPythonPlayerEventHandler::GetSingleton'::`2'::s_kPlayerEventHandler
_BSS	ENDS
; Function compile flags: /Ogtp
;	COMDAT ??__Fs_kPlayerEventHandler@?1??GetSingleton@CPythonPlayerEventHandler@@SAAAV1@XZ@YAXXZ
text$yd	SEGMENT
??__Fs_kPlayerEventHandler@?1??GetSingleton@CPythonPlayerEventHandler@@SAAAV1@XZ@YAXXZ PROC ; `CPythonPlayerEventHandler::GetSingleton'::`2'::`dynamic atexit destructor for 's_kPlayerEventHandler'', COMDAT
  00000	b9 00 00 00 00	 mov	 ecx, OFFSET ?s_kPlayerEventHandler@?1??GetSingleton@CPythonPlayerEventHandler@@SAAAV2@XZ@4V2@A
  00005	e9 00 00 00 00	 jmp	 ??1CPythonPlayerEventHandler@@UAE@XZ ; CPythonPlayerEventHandler::~CPythonPlayerEventHandler
??__Fs_kPlayerEventHandler@?1??GetSingleton@CPythonPlayerEventHandler@@SAAAV1@XZ@YAXXZ ENDP ; `CPythonPlayerEventHandler::GetSingleton'::`2'::`dynamic atexit destructor for 's_kPlayerEventHandler''
text$yd	ENDS
; Function compile flags: /Ogtp
; File C:\Anka2Project\Anka2Project\Source\Binary\source\UserInterface\PythonPlayerEventHandler.cpp
; File C:\Anka2Project\Anka2Project\Source\Binary\source\eterBase\Singleton.h
; File C:\Anka2Project\Anka2Project\Source\Binary\source\UserInterface\PythonPlayerEventHandler.cpp
; File C:\Anka2Project\Anka2Project\Source\Binary\source\eterBase\Singleton.h
; File C:\Anka2Project\Anka2Project\Source\Binary\source\UserInterface\PythonPlayerEventHandler.cpp
; File C:\Anka2Project\Anka2Project\Source\Binary\source\eterBase\Singleton.h
; File C:\Anka2Project\Anka2Project\Source\Binary\source\UserInterface\PythonPlayerEventHandler.cpp
; File C:\Anka2Project\Anka2Project\Source\Binary\source\eterBase\Singleton.h
; File C:\Anka2Project\Anka2Project\Source\Binary\source\UserInterface\PythonPlayerEventHandler.cpp
; File C:\Program Files\Microsoft Visual Studio\2022\Community\VC\Tools\MSVC\14.44.35207\include\vector
; File C:\Anka2Project\Anka2Project\Source\Binary\source\UserInterface\PythonPlayerEventHandler.cpp
; File C:\Program Files\Microsoft Visual Studio\2022\Community\VC\Tools\MSVC\14.44.35207\include\vector
; File C:\Program Files\Microsoft Visual Studio\2022\Community\VC\Tools\MSVC\14.44.35207\include\xutility
; File C:\Program Files\Microsoft Visual Studio\2022\Community\VC\Tools\MSVC\14.44.35207\include\vector
; File C:\Anka2Project\Anka2Project\Source\Binary\source\UserInterface\PythonPlayerEventHandler.cpp
; File C:\Program Files\Microsoft Visual Studio\2022\Community\VC\Tools\MSVC\14.44.35207\include\vector
; File C:\Anka2Project\Anka2Project\Source\Binary\source\UserInterface\PythonPlayerEventHandler.cpp
;	COMDAT ?OnHit@CPythonPlayerEventHandler@@UAEXIAAVCActorInstance@@H@Z
_TEXT	SEGMENT
_kVictim$ = -12						; size = 12
_uSkill$ = 8						; size = 4
_rkActorVictim$ = 12					; size = 4
_kVictim$1$ = 12					; size = 4
_isSendPacket$ = 16					; size = 4
_kVictim$2$ = 16					; size = 4
?OnHit@CPythonPlayerEventHandler@@UAEXIAAVCActorInstance@@H@Z PROC ; CPythonPlayerEventHandler::OnHit, COMDAT
; _this$ = ecx

; 118  : {

  00000	55		 push	 ebp
  00001	8b ec		 mov	 ebp, esp
  00003	83 ec 0c	 sub	 esp, 12			; 0000000cH
  00006	53		 push	 ebx
  00007	56		 push	 esi

; 119  : 	DWORD dwVIDVictim=rkActorVictim.GetVirtualID();

  00008	8b 75 0c	 mov	 esi, DWORD PTR _rkActorVictim$[ebp]
  0000b	8b d9		 mov	 ebx, ecx
  0000d	57		 push	 edi
  0000e	8b ce		 mov	 ecx, esi
  00010	8b 06		 mov	 eax, DWORD PTR [esi]
  00012	ff 50 48	 call	 DWORD PTR [eax+72]
; File C:\Anka2Project\Anka2Project\Source\Binary\source\eterBase\Singleton.h

; 26   : 		assert(ms_singleton);

  00015	8b 0d 00 00 00
	00		 mov	 ecx, DWORD PTR ?ms_singleton@?$CSingleton@VCPythonPlayer@@@@0PAVCPythonPlayer@@A ; CSingleton<CPythonPlayer>::ms_singleton
; File C:\Anka2Project\Anka2Project\Source\Binary\source\UserInterface\PythonPlayerEventHandler.cpp

; 119  : 	DWORD dwVIDVictim=rkActorVictim.GetVirtualID();

  0001b	8b f8		 mov	 edi, eax
; File C:\Anka2Project\Anka2Project\Source\Binary\source\eterBase\Singleton.h

; 26   : 		assert(ms_singleton);

  0001d	85 c9		 test	 ecx, ecx
  0001f	75 1a		 jne	 SHORT $LN8@OnHit
  00021	6a 1a		 push	 26			; 0000001aH
  00023	68 00 00 00 00	 push	 OFFSET ??_C@_1IO@CAJLEEOI@?$AAC?$AA?3?$AA?2?$AAA?$AAn?$AAk?$AAa?$AA2?$AAP?$AAr?$AAo?$AAj?$AAe?$AAc?$AAt@
  00028	68 00 00 00 00	 push	 OFFSET ??_C@_1BK@FMEHPMFE@?$AAm?$AAs?$AA_?$AAs?$AAi?$AAn?$AAg?$AAl?$AAe?$AAt?$AAo?$AAn@
  0002d	e8 00 00 00 00	 call	 __wassert
  00032	8b 0d 00 00 00
	00		 mov	 ecx, DWORD PTR ?ms_singleton@?$CSingleton@VCPythonPlayer@@@@0PAVCPythonPlayer@@A ; CSingleton<CPythonPlayer>::ms_singleton
  00038	83 c4 0c	 add	 esp, 12			; 0000000cH
$LN8@OnHit:
; File C:\Anka2Project\Anka2Project\Source\Binary\source\UserInterface\PythonPlayerEventHandler.cpp

; 121  : 	CPythonPlayer::Instance().SetTarget(dwVIDVictim, FALSE);

  0003b	8b 41 04	 mov	 eax, DWORD PTR [ecx+4]
  0003e	83 c1 04	 add	 ecx, 4
  00041	6a 00		 push	 0
  00043	6a 00		 push	 0
  00045	57		 push	 edi
  00046	ff 50 68	 call	 DWORD PTR [eax+104]

; 122  : 
; 123  : 	if (isSendPacket)

  00049	83 7d 10 00	 cmp	 DWORD PTR _isSendPacket$[ebp], 0
  0004d	74 2d		 je	 SHORT $LN2@OnHit
; File C:\Anka2Project\Anka2Project\Source\Binary\source\eterBase\Singleton.h

; 26   : 		assert(ms_singleton);

  0004f	8b 0d 00 00 00
	00		 mov	 ecx, DWORD PTR ?ms_singleton@?$CSingleton@VCPythonNetworkStream@@@@0PAVCPythonNetworkStream@@A ; CSingleton<CPythonNetworkStream>::ms_singleton
  00055	85 c9		 test	 ecx, ecx
  00057	75 1a		 jne	 SHORT $LN11@OnHit
  00059	6a 1a		 push	 26			; 0000001aH
  0005b	68 00 00 00 00	 push	 OFFSET ??_C@_1IO@CAJLEEOI@?$AAC?$AA?3?$AA?2?$AAA?$AAn?$AAk?$AAa?$AA2?$AAP?$AAr?$AAo?$AAj?$AAe?$AAc?$AAt@
  00060	68 00 00 00 00	 push	 OFFSET ??_C@_1BK@FMEHPMFE@?$AAm?$AAs?$AA_?$AAs?$AAi?$AAn?$AAg?$AAl?$AAe?$AAt?$AAo?$AAn@
  00065	e8 00 00 00 00	 call	 __wassert
  0006a	8b 0d 00 00 00
	00		 mov	 ecx, DWORD PTR ?ms_singleton@?$CSingleton@VCPythonNetworkStream@@@@0PAVCPythonNetworkStream@@A ; CSingleton<CPythonNetworkStream>::ms_singleton
  00070	83 c4 0c	 add	 esp, 12			; 0000000cH
$LN11@OnHit:
; File C:\Anka2Project\Anka2Project\Source\Binary\source\UserInterface\PythonPlayerEventHandler.cpp

; 126  : 		rkStream.SendAttackPacket(uSkill, dwVIDVictim);

  00073	57		 push	 edi
  00074	ff 75 08	 push	 DWORD PTR _uSkill$[ebp]
  00077	e8 00 00 00 00	 call	 ?SendAttackPacket@CPythonNetworkStream@@QAE_NIK@Z ; CPythonNetworkStream::SendAttackPacket
$LN2@OnHit:

; 127  : 	}
; 128  : 
; 129  : 	if (!rkActorVictim.IsPushing())

  0007c	8b ce		 mov	 ecx, esi
  0007e	e8 00 00 00 00	 call	 ?IsPushing@CActorInstance@@QAE_NXZ ; CActorInstance::IsPushing
  00083	84 c0		 test	 al, al
  00085	0f 84 9e 00 00
	00		 je	 $LN17@OnHit

; 130  : 		return;
; 131  : 
; 132  : 	extern bool IS_HUGE_RACE(unsigned int vnum);
; 133  : 	if (IS_HUGE_RACE(rkActorVictim.GetRace()))

  0008b	8b ce		 mov	 ecx, esi
  0008d	e8 00 00 00 00	 call	 ?GetRace@CActorInstance@@QAEKXZ ; CActorInstance::GetRace
  00092	50		 push	 eax
  00093	e8 00 00 00 00	 call	 ?IS_HUGE_RACE@@YA_NI@Z	; IS_HUGE_RACE
  00098	83 c4 04	 add	 esp, 4
  0009b	84 c0		 test	 al, al
  0009d	0f 85 86 00 00
	00		 jne	 $LN17@OnHit
; File C:\Anka2Project\Anka2Project\Source\Binary\source\eterBase\Singleton.h

; 26   : 		assert(ms_singleton);

  000a3	8b 0d 00 00 00
	00		 mov	 ecx, DWORD PTR ?ms_singleton@?$CSingleton@VCPythonCharacterManager@@@@0PAVCPythonCharacterManager@@A ; CSingleton<CPythonCharacterManager>::ms_singleton
  000a9	85 c9		 test	 ecx, ecx
  000ab	75 1a		 jne	 SHORT $LN14@OnHit
  000ad	6a 1a		 push	 26			; 0000001aH
  000af	68 00 00 00 00	 push	 OFFSET ??_C@_1IO@CAJLEEOI@?$AAC?$AA?3?$AA?2?$AAA?$AAn?$AAk?$AAa?$AA2?$AAP?$AAr?$AAo?$AAj?$AAe?$AAc?$AAt@
  000b4	68 00 00 00 00	 push	 OFFSET ??_C@_1BK@FMEHPMFE@?$AAm?$AAs?$AA_?$AAs?$AAi?$AAn?$AAg?$AAl?$AAe?$AAt?$AAo?$AAn@
  000b9	e8 00 00 00 00	 call	 __wassert
  000be	8b 0d 00 00 00
	00		 mov	 ecx, DWORD PTR ?ms_singleton@?$CSingleton@VCPythonCharacterManager@@@@0PAVCPythonCharacterManager@@A ; CSingleton<CPythonCharacterManager>::ms_singleton
  000c4	83 c4 0c	 add	 esp, 12			; 0000000cH
$LN14@OnHit:
; File C:\Anka2Project\Anka2Project\Source\Binary\source\UserInterface\PythonPlayerEventHandler.cpp

; 137  : 	CPythonCharacterManager::Instance().AdjustCollisionWithOtherObjects(&rkActorVictim);

  000c7	8b 41 08	 mov	 eax, DWORD PTR [ecx+8]
  000ca	83 c1 08	 add	 ecx, 8
  000cd	56		 push	 esi
  000ce	ff 50 04	 call	 DWORD PTR [eax+4]

; 138  : 
; 139  : 	const TPixelPosition& kPPosLast=rkActorVictim.NEW_GetLastPixelPositionRef();

  000d1	8b ce		 mov	 ecx, esi
  000d3	e8 00 00 00 00	 call	 ?NEW_GetLastPixelPositionRef@CActorInstance@@QAEABUD3DXVECTOR3@@XZ ; CActorInstance::NEW_GetLastPixelPositionRef

; 140  : 
; 141  : 	SVictim kVictim;
; 142  : 	kVictim.m_dwVID=dwVIDVictim;

  000d8	89 7d f4	 mov	 DWORD PTR _kVictim$[ebp], edi

; 143  : 	kVictim.m_lPixelX=long(kPPosLast.x);

  000db	f3 0f 2c 08	 cvttss2si ecx, DWORD PTR [eax]

; 144  : 	kVictim.m_lPixelY=long(kPPosLast.y);

  000df	f3 0f 2c 40 04	 cvttss2si eax, DWORD PTR [eax+4]
  000e4	89 4d 0c	 mov	 DWORD PTR _kVictim$1$[ebp], ecx
  000e7	89 4d f8	 mov	 DWORD PTR _kVictim$[ebp+4], ecx

; 145  : 
; 146  : 	rkActorVictim.TEMP_Push(kVictim.m_lPixelX, kVictim.m_lPixelY);

  000ea	50		 push	 eax
  000eb	51		 push	 ecx
  000ec	8b ce		 mov	 ecx, esi
  000ee	89 45 10	 mov	 DWORD PTR _kVictim$2$[ebp], eax
  000f1	89 45 fc	 mov	 DWORD PTR _kVictim$[ebp+8], eax
  000f4	e8 00 00 00 00	 call	 ?TEMP_Push@CActorInstance@@QAEXHH@Z ; CActorInstance::TEMP_Push
; File C:\Program Files\Microsoft Visual Studio\2022\Community\VC\Tools\MSVC\14.44.35207\include\vector

; 844  :         if (_Mylast != _My_data._Myend) {

  000f9	8b 43 08	 mov	 eax, DWORD PTR [ebx+8]
; File C:\Anka2Project\Anka2Project\Source\Binary\source\UserInterface\PythonPlayerEventHandler.cpp

; 148  : 	m_kVctkVictim.push_back(kVictim);

  000fc	8d 4b 04	 lea	 ecx, DWORD PTR [ebx+4]
; File C:\Program Files\Microsoft Visual Studio\2022\Community\VC\Tools\MSVC\14.44.35207\include\vector

; 844  :         if (_Mylast != _My_data._Myend) {

  000ff	3b 43 0c	 cmp	 eax, DWORD PTR [ebx+12]
  00102	74 1b		 je	 SHORT $LN18@OnHit
; File C:\Program Files\Microsoft Visual Studio\2022\Community\VC\Tools\MSVC\14.44.35207\include\xutility

; 476  :         ::new (static_cast<void*>(_STD addressof(_Obj))) _Ty(_STD forward<_Types>(_Args)...);

  00104	89 38		 mov	 DWORD PTR [eax], edi
  00106	8b 4d 0c	 mov	 ecx, DWORD PTR _kVictim$1$[ebp]
  00109	89 48 04	 mov	 DWORD PTR [eax+4], ecx
  0010c	8b 4d 10	 mov	 ecx, DWORD PTR _kVictim$2$[ebp]
  0010f	5f		 pop	 edi
  00110	89 48 08	 mov	 DWORD PTR [eax+8], ecx
; File C:\Program Files\Microsoft Visual Studio\2022\Community\VC\Tools\MSVC\14.44.35207\include\vector

; 869  :         ++_Mylast;

  00113	83 43 08 0c	 add	 DWORD PTR [ebx+8], 12	; 0000000cH
; File C:\Anka2Project\Anka2Project\Source\Binary\source\UserInterface\PythonPlayerEventHandler.cpp

; 149  : }

  00117	5e		 pop	 esi
  00118	5b		 pop	 ebx
  00119	8b e5		 mov	 esp, ebp
  0011b	5d		 pop	 ebp
  0011c	c2 0c 00	 ret	 12			; 0000000cH
$LN18@OnHit:
; File C:\Program Files\Microsoft Visual Studio\2022\Community\VC\Tools\MSVC\14.44.35207\include\vector

; 848  :         return *_Emplace_reallocate(_Mylast, _STD forward<_Valty>(_Val)...);

  0011f	8d 55 f4	 lea	 edx, DWORD PTR _kVictim$[ebp]
  00122	52		 push	 edx
  00123	50		 push	 eax
  00124	e8 00 00 00 00	 call	 ??$_Emplace_reallocate@ABUSVictim@CPythonPlayerEventHandler@@@?$vector@USVictim@CPythonPlayerEventHandler@@V?$allocator@USVictim@CPythonPlayerEventHandler@@@std@@@std@@AAEPAUSVictim@CPythonPlayerEventHandler@@QAU23@ABU23@@Z ; std::vector<CPythonPlayerEventHandler::SVictim,std::allocator<CPythonPlayerEventHandler::SVictim> >::_Emplace_reallocate<CPythonPlayerEventHandler::SVictim const &>
$LN17@OnHit:
  00129	5f		 pop	 edi
; File C:\Anka2Project\Anka2Project\Source\Binary\source\UserInterface\PythonPlayerEventHandler.cpp

; 149  : }

  0012a	5e		 pop	 esi
  0012b	5b		 pop	 ebx
  0012c	8b e5		 mov	 esp, ebp
  0012e	5d		 pop	 ebp
  0012f	c2 0c 00	 ret	 12			; 0000000cH
?OnHit@CPythonPlayerEventHandler@@UAEXIAAVCActorInstance@@H@Z ENDP ; CPythonPlayerEventHandler::OnHit
_TEXT	ENDS
; Function compile flags: /Ogtp
; File C:\Anka2Project\Anka2Project\Source\Binary\source\UserInterface\PythonPlayerEventHandler.cpp
; File C:\Anka2Project\Anka2Project\Source\Binary\source\eterBase\Singleton.h
; File C:\Anka2Project\Anka2Project\Source\Binary\source\UserInterface\PythonPlayerEventHandler.cpp
; File C:\Anka2Project\Anka2Project\Source\Binary\source\eterBase\Singleton.h
; File C:\Anka2Project\Anka2Project\Source\Binary\source\UserInterface\PythonPlayerEventHandler.cpp
;	COMDAT ?OnSetFlyTarget@CNormalBowAttack_FlyEventHandler_AutoClear@CPythonPlayerEventHandler@@UAEXXZ
_TEXT	SEGMENT
_s$ = -20						; size = 16
$T2 = -16						; size = 12
__$ArrayPad$ = -4					; size = 4
?OnSetFlyTarget@CNormalBowAttack_FlyEventHandler_AutoClear@CPythonPlayerEventHandler@@UAEXXZ PROC ; CPythonPlayerEventHandler::CNormalBowAttack_FlyEventHandler_AutoClear::OnSetFlyTarget, COMDAT
; _this$ = ecx

; 189  : {

  00000	55		 push	 ebp
  00001	8b ec		 mov	 ebp, esp
  00003	83 ec 14	 sub	 esp, 20			; 00000014H
  00006	a1 00 00 00 00	 mov	 eax, DWORD PTR ___security_cookie
  0000b	33 c5		 xor	 eax, ebp
  0000d	89 45 fc	 mov	 DWORD PTR __$ArrayPad$[ebp], eax
  00010	53		 push	 ebx
  00011	56		 push	 esi
  00012	8b d9		 mov	 ebx, ecx

; 190  : 	SState s;
; 191  : 	m_pInstMain->NEW_GetPixelPosition(&s.kPPosSelf);

  00014	8d 45 ec	 lea	 eax, DWORD PTR _s$[ebp]
  00017	57		 push	 edi
  00018	50		 push	 eax
  00019	8b 4b 08	 mov	 ecx, DWORD PTR [ebx+8]
  0001c	e8 00 00 00 00	 call	 ?NEW_GetPixelPosition@CInstanceBase@@QAEXPAUD3DXVECTOR3@@@Z ; CInstanceBase::NEW_GetPixelPosition

; 192  : 	s.fAdvRotSelf=m_pInstMain->GetGraphicThingInstancePtr()->GetTargetRotation();

  00021	8b 4b 08	 mov	 ecx, DWORD PTR [ebx+8]
  00024	e8 00 00 00 00	 call	 ?GetGraphicThingInstancePtr@CInstanceBase@@QAEPAVCActorInstance@@XZ ; CInstanceBase::GetGraphicThingInstancePtr
  00029	8b c8		 mov	 ecx, eax
  0002b	e8 00 00 00 00	 call	 ?GetTargetRotation@CActorInstance@@QAEMXZ ; CActorInstance::GetTargetRotation
; File C:\Anka2Project\Anka2Project\Source\Binary\source\eterBase\Singleton.h

; 26   : 		assert(ms_singleton);

  00030	8b 3d 00 00 00
	00		 mov	 edi, DWORD PTR ?ms_singleton@?$CSingleton@VCPythonNetworkStream@@@@0PAVCPythonNetworkStream@@A ; CSingleton<CPythonNetworkStream>::ms_singleton
; File C:\Anka2Project\Anka2Project\Source\Binary\source\UserInterface\PythonPlayerEventHandler.cpp

; 192  : 	s.fAdvRotSelf=m_pInstMain->GetGraphicThingInstancePtr()->GetTargetRotation();

  00036	dd d8		 fstp	 ST(0)
; File C:\Anka2Project\Anka2Project\Source\Binary\source\eterBase\Singleton.h

; 26   : 		assert(ms_singleton);

  00038	85 ff		 test	 edi, edi
  0003a	75 1a		 jne	 SHORT $LN5@OnSetFlyTa
  0003c	6a 1a		 push	 26			; 0000001aH
  0003e	68 00 00 00 00	 push	 OFFSET ??_C@_1IO@CAJLEEOI@?$AAC?$AA?3?$AA?2?$AAA?$AAn?$AAk?$AAa?$AA2?$AAP?$AAr?$AAo?$AAj?$AAe?$AAc?$AAt@
  00043	68 00 00 00 00	 push	 OFFSET ??_C@_1BK@FMEHPMFE@?$AAm?$AAs?$AA_?$AAs?$AAi?$AAn?$AAg?$AAl?$AAe?$AAt?$AAo?$AAn@
  00048	e8 00 00 00 00	 call	 __wassert
  0004d	8b 3d 00 00 00
	00		 mov	 edi, DWORD PTR ?ms_singleton@?$CSingleton@VCPythonNetworkStream@@@@0PAVCPythonNetworkStream@@A ; CSingleton<CPythonNetworkStream>::ms_singleton
  00053	83 c4 0c	 add	 esp, 12			; 0000000cH
$LN5@OnSetFlyTa:
; File C:\Anka2Project\Anka2Project\Source\Binary\source\UserInterface\PythonPlayerEventHandler.cpp

; 195  : 	rpns.SendFlyTargetingPacket(m_pInstTarget->GetVirtualID(), m_pInstTarget->GetGraphicThingInstancePtr()->OnGetFlyTargetPosition());

  00056	8b 4b 0c	 mov	 ecx, DWORD PTR [ebx+12]
  00059	e8 00 00 00 00	 call	 ?GetGraphicThingInstancePtr@CInstanceBase@@QAEPAVCActorInstance@@XZ ; CInstanceBase::GetGraphicThingInstancePtr
  0005e	8d 55 f0	 lea	 edx, DWORD PTR $T2[ebp]
  00061	52		 push	 edx
  00062	8d 88 7c 03 00
	00		 lea	 ecx, DWORD PTR [eax+892]
  00068	8b 01		 mov	 eax, DWORD PTR [ecx]
  0006a	ff 50 04	 call	 DWORD PTR [eax+4]
  0006d	8b 4b 0c	 mov	 ecx, DWORD PTR [ebx+12]
  00070	8b f0		 mov	 esi, eax
  00072	e8 00 00 00 00	 call	 ?GetVirtualID@CInstanceBase@@QAEKXZ ; CInstanceBase::GetVirtualID
  00077	56		 push	 esi
  00078	50		 push	 eax
  00079	8b cf		 mov	 ecx, edi
  0007b	e8 00 00 00 00	 call	 ?SendFlyTargetingPacket@CPythonNetworkStream@@QAE_NKABUD3DXVECTOR3@@@Z ; CPythonNetworkStream::SendFlyTargetingPacket

; 196  : }

  00080	8b 4d fc	 mov	 ecx, DWORD PTR __$ArrayPad$[ebp]
  00083	5f		 pop	 edi
  00084	5e		 pop	 esi
  00085	33 cd		 xor	 ecx, ebp
  00087	5b		 pop	 ebx
  00088	e8 00 00 00 00	 call	 @__security_check_cookie@4
  0008d	8b e5		 mov	 esp, ebp
  0008f	5d		 pop	 ebp
  00090	c3		 ret	 0
?OnSetFlyTarget@CNormalBowAttack_FlyEventHandler_AutoClear@CPythonPlayerEventHandler@@UAEXXZ ENDP ; CPythonPlayerEventHandler::CNormalBowAttack_FlyEventHandler_AutoClear::OnSetFlyTarget
_TEXT	ENDS
; Function compile flags: /Ogtp
; File C:\Anka2Project\Anka2Project\Source\Binary\source\UserInterface\PythonPlayerEventHandler.cpp
;	COMDAT ?OnExplodingAtAnotherTarget@CNormalBowAttack_FlyEventHandler_AutoClear@CPythonPlayerEventHandler@@UAEXKK@Z
_TEXT	SEGMENT
_dwSkillIndex$ = 8					; size = 4
_dwVID$ = 12						; size = 4
?OnExplodingAtAnotherTarget@CNormalBowAttack_FlyEventHandler_AutoClear@CPythonPlayerEventHandler@@UAEXKK@Z PROC ; CPythonPlayerEventHandler::CNormalBowAttack_FlyEventHandler_AutoClear::OnExplodingAtAnotherTarget, COMDAT
; _this$ = ecx

; 217  : 	return;
; 218  : 
; 219  : 	Tracef("Shoot :  target  : %d, %d\n", dwSkillIndex, dwVID);
; 220  : 
; 221  : 	CPythonNetworkStream& rkStream=CPythonNetworkStream::Instance();
; 222  : 	rkStream.SendAttackPacket(dwSkillIndex, dwVID);
; 223  : 
; 224  : 	CPythonCharacterManager& rkChrMgr = CPythonCharacterManager::Instance();
; 225  : 	CInstanceBase * pInstance = rkChrMgr.GetInstancePtr(dwVID);
; 226  : 	if (pInstance)
; 227  : 	{
; 228  : 		pInstance->GetGraphicThingInstanceRef().OnShootDamage();
; 229  : 	}
; 230  : }

  00000	c2 08 00	 ret	 8
?OnExplodingAtAnotherTarget@CNormalBowAttack_FlyEventHandler_AutoClear@CPythonPlayerEventHandler@@UAEXKK@Z ENDP ; CPythonPlayerEventHandler::CNormalBowAttack_FlyEventHandler_AutoClear::OnExplodingAtAnotherTarget
_TEXT	ENDS
END
