; Listing generated by Microsoft (R) Optimizing Compiler Version 19.44.35219.0 

	TITLE	c:\anka2project\anka2project\source\binary\vs_files\userinterface\release\pythonprivateshopsearch.obj
	.686P
	.XMM
	include listing.inc
	.model	flat

INCLUDELIB OLDNAMES

PUBLIC	??_C@_0BD@KCBKFHHC@GetSearchItemCount@		; `string'
PUBLIC	??_C@_0BC@BBNPJJFC@GetSearchItemVnum@		; `string'
PUBLIC	??_C@_0BD@POOGCMBA@GetSearchItemPrice@		; `string'
PUBLIC	??_C@_0BB@BMKHMJBI@ClearSearchItems@		; `string'
PUBLIC	??_C@_0BF@MNOCCBHJ@GetSearchItemShopVID@	; `string'
PUBLIC	??_C@_0BH@CNKNKICA@GetSearchItemAttribute@	; `string'
PUBLIC	??_C@_0BJ@JIKCKHGJ@GetSearchItemMetinSocket@	; `string'
PUBLIC	??_C@_0BB@JPGCIBFD@GetSearchItemPos@		; `string'
PUBLIC	??_C@_0BL@NNKBNEFP@GetSearchItemTransmutation@	; `string'
PUBLIC	??_C@_0BA@HBOOLDFG@GetSearchItemID@		; `string'
PUBLIC	??_C@_0BE@LPPIFKKE@GetSearchItemSeller@		; `string'
PUBLIC	??_C@_0BC@DOMFPLKH@privateShopSearch@		; `string'
PUBLIC	??_R2CPythonPrivateShopSearch@@8		; CPythonPrivateShopSearch::`RTTI Base Class Array'
PUBLIC	??_R2?$CSingleton@VCPythonPrivateShopSearch@@@@8 ; CSingleton<CPythonPrivateShopSearch>::`RTTI Base Class Array'
PUBLIC	??_R1A@?0A@EA@?$CSingleton@VCPythonPrivateShopSearch@@@@8 ; CSingleton<CPythonPrivateShopSearch>::`RTTI Base Class Descriptor at (0,-1,0,64)'
PUBLIC	??_R1A@?0A@EA@CPythonPrivateShopSearch@@8	; CPythonPrivateShopSearch::`RTTI Base Class Descriptor at (0,-1,0,64)'
PUBLIC	??_R3?$CSingleton@VCPythonPrivateShopSearch@@@@8 ; CSingleton<CPythonPrivateShopSearch>::`RTTI Class Hierarchy Descriptor'
PUBLIC	??_R3CPythonPrivateShopSearch@@8		; CPythonPrivateShopSearch::`RTTI Class Hierarchy Descriptor'
PUBLIC	??_R0?AV?$CSingleton@VCPythonPrivateShopSearch@@@@@8 ; CSingleton<CPythonPrivateShopSearch> `RTTI Type Descriptor'
PUBLIC	??_R0?AVCPythonPrivateShopSearch@@@8		; CPythonPrivateShopSearch `RTTI Type Descriptor'
PUBLIC	??_R4?$CSingleton@VCPythonPrivateShopSearch@@@@6B@ ; CSingleton<CPythonPrivateShopSearch>::`RTTI Complete Object Locator'
PUBLIC	??_R4CPythonPrivateShopSearch@@6B@		; CPythonPrivateShopSearch::`RTTI Complete Object Locator'
PUBLIC	??_7?$CSingleton@VCPythonPrivateShopSearch@@@@6B@ ; CSingleton<CPythonPrivateShopSearch>::`vftable'
PUBLIC	??_7CPythonPrivateShopSearch@@6B@		; CPythonPrivateShopSearch::`vftable'
;	COMDAT ?s_methods@?1??initprivateShopSearch@@YAXXZ@4PAUPyMethodDef@@A
_DATA	SEGMENT
?s_methods@?1??initprivateShopSearch@@YAXXZ@4PAUPyMethodDef@@A DD FLAT:??_C@_0N@LEKALLIG@GetItemCount@ ; `initprivateShopSearch'::`2'::s_methods
	DD	FLAT:?privateShopSearchGetItemCount@@YAPAU_object@@PAU1@0@Z
	DD	01H
	ORG $+4
	DD	FLAT:??_C@_0BD@KCBKFHHC@GetSearchItemCount@
	DD	FLAT:?privateShopSearchGetSearchItemCount@@YAPAU_object@@PAU1@0@Z
	DD	01H
	ORG $+4
	DD	FLAT:??_C@_0BD@POOGCMBA@GetSearchItemPrice@
	DD	FLAT:?privateShopSearchGetSearchItemPrice@@YAPAU_object@@PAU1@0@Z
	DD	01H
	ORG $+4
	DD	FLAT:??_C@_0BC@BBNPJJFC@GetSearchItemVnum@
	DD	FLAT:?privateShopSearchGetSearchItemVnum@@YAPAU_object@@PAU1@0@Z
	DD	01H
	ORG $+4
	DD	FLAT:??_C@_0BF@MNOCCBHJ@GetSearchItemShopVID@
	DD	FLAT:?privateShopSearchGetSearchItemShopVID@@YAPAU_object@@PAU1@0@Z
	DD	01H
	ORG $+4
	DD	FLAT:??_C@_0BB@BMKHMJBI@ClearSearchItems@
	DD	FLAT:?privateShopSearchClearSearchItems@@YAPAU_object@@PAU1@0@Z
	DD	01H
	ORG $+4
	DD	FLAT:??_C@_0BJ@JIKCKHGJ@GetSearchItemMetinSocket@
	DD	FLAT:?privateShopSearchGetSearchItemMetinSocket@@YAPAU_object@@PAU1@0@Z
	DD	01H
	ORG $+4
	DD	FLAT:??_C@_0BH@CNKNKICA@GetSearchItemAttribute@
	DD	FLAT:?privateShopSearchGetSearchItemAttribute@@YAPAU_object@@PAU1@0@Z
	DD	01H
	ORG $+4
	DD	FLAT:??_C@_0BL@NNKBNEFP@GetSearchItemTransmutation@
	DD	FLAT:?privateShopSearchGetSearchItemTransmutation@@YAPAU_object@@PAU1@0@Z
	DD	01H
	ORG $+4
	DD	FLAT:??_C@_0BB@JPGCIBFD@GetSearchItemPos@
	DD	FLAT:?privateShopSearchGetSearchItemPos@@YAPAU_object@@PAU1@0@Z
	DD	01H
	ORG $+4
	DD	FLAT:??_C@_0BE@LPPIFKKE@GetSearchItemSeller@
	DD	FLAT:?privateShopSearchGetSearchItemBuyerName@@YAPAU_object@@PAU1@0@Z
	DD	01H
	ORG $+4
	DD	FLAT:??_C@_0BA@HBOOLDFG@GetSearchItemID@
	DD	FLAT:?privateShopSearchGetSearchItemID@@YAPAU_object@@PAU1@0@Z
	DD	01H
	ORG $+4
	DD	00H
	DD	00H
	ORG $+8
_DATA	ENDS
;	COMDAT ??_7CPythonPrivateShopSearch@@6B@
CONST	SEGMENT
??_7CPythonPrivateShopSearch@@6B@ DD FLAT:??_R4CPythonPrivateShopSearch@@6B@ ; CPythonPrivateShopSearch::`vftable'
	DD	FLAT:??_ECPythonPrivateShopSearch@@UAEPAXI@Z
CONST	ENDS
;	COMDAT ??_7?$CSingleton@VCPythonPrivateShopSearch@@@@6B@
CONST	SEGMENT
??_7?$CSingleton@VCPythonPrivateShopSearch@@@@6B@ DD FLAT:??_R4?$CSingleton@VCPythonPrivateShopSearch@@@@6B@ ; CSingleton<CPythonPrivateShopSearch>::`vftable'
	DD	FLAT:??_E?$CSingleton@VCPythonPrivateShopSearch@@@@UAEPAXI@Z
CONST	ENDS
;	COMDAT ??_R4CPythonPrivateShopSearch@@6B@
rdata$r	SEGMENT
??_R4CPythonPrivateShopSearch@@6B@ DD 00H		; CPythonPrivateShopSearch::`RTTI Complete Object Locator'
	DD	00H
	DD	00H
	DD	FLAT:??_R0?AVCPythonPrivateShopSearch@@@8
	DD	FLAT:??_R3CPythonPrivateShopSearch@@8
rdata$r	ENDS
;	COMDAT ??_R4?$CSingleton@VCPythonPrivateShopSearch@@@@6B@
rdata$r	SEGMENT
??_R4?$CSingleton@VCPythonPrivateShopSearch@@@@6B@ DD 00H ; CSingleton<CPythonPrivateShopSearch>::`RTTI Complete Object Locator'
	DD	00H
	DD	00H
	DD	FLAT:??_R0?AV?$CSingleton@VCPythonPrivateShopSearch@@@@@8
	DD	FLAT:??_R3?$CSingleton@VCPythonPrivateShopSearch@@@@8
rdata$r	ENDS
;	COMDAT ??_R0?AVCPythonPrivateShopSearch@@@8
data$rs	SEGMENT
??_R0?AVCPythonPrivateShopSearch@@@8 DD FLAT:??_7type_info@@6B@ ; CPythonPrivateShopSearch `RTTI Type Descriptor'
	DD	00H
	DB	'.?AVCPythonPrivateShopSearch@@', 00H
data$rs	ENDS
;	COMDAT ??_R0?AV?$CSingleton@VCPythonPrivateShopSearch@@@@@8
data$rs	SEGMENT
??_R0?AV?$CSingleton@VCPythonPrivateShopSearch@@@@@8 DD FLAT:??_7type_info@@6B@ ; CSingleton<CPythonPrivateShopSearch> `RTTI Type Descriptor'
	DD	00H
	DB	'.?AV?$CSingleton@VCPythonPrivateShopSearch@@@@', 00H
data$rs	ENDS
;	COMDAT ??_R3CPythonPrivateShopSearch@@8
rdata$r	SEGMENT
??_R3CPythonPrivateShopSearch@@8 DD 00H			; CPythonPrivateShopSearch::`RTTI Class Hierarchy Descriptor'
	DD	00H
	DD	02H
	DD	FLAT:??_R2CPythonPrivateShopSearch@@8
rdata$r	ENDS
;	COMDAT ??_R3?$CSingleton@VCPythonPrivateShopSearch@@@@8
rdata$r	SEGMENT
??_R3?$CSingleton@VCPythonPrivateShopSearch@@@@8 DD 00H	; CSingleton<CPythonPrivateShopSearch>::`RTTI Class Hierarchy Descriptor'
	DD	00H
	DD	01H
	DD	FLAT:??_R2?$CSingleton@VCPythonPrivateShopSearch@@@@8
rdata$r	ENDS
;	COMDAT ??_R1A@?0A@EA@CPythonPrivateShopSearch@@8
rdata$r	SEGMENT
??_R1A@?0A@EA@CPythonPrivateShopSearch@@8 DD FLAT:??_R0?AVCPythonPrivateShopSearch@@@8 ; CPythonPrivateShopSearch::`RTTI Base Class Descriptor at (0,-1,0,64)'
	DD	01H
	DD	00H
	DD	0ffffffffH
	DD	00H
	DD	040H
	DD	FLAT:??_R3CPythonPrivateShopSearch@@8
rdata$r	ENDS
;	COMDAT ??_R1A@?0A@EA@?$CSingleton@VCPythonPrivateShopSearch@@@@8
rdata$r	SEGMENT
??_R1A@?0A@EA@?$CSingleton@VCPythonPrivateShopSearch@@@@8 DD FLAT:??_R0?AV?$CSingleton@VCPythonPrivateShopSearch@@@@@8 ; CSingleton<CPythonPrivateShopSearch>::`RTTI Base Class Descriptor at (0,-1,0,64)'
	DD	00H
	DD	00H
	DD	0ffffffffH
	DD	00H
	DD	040H
	DD	FLAT:??_R3?$CSingleton@VCPythonPrivateShopSearch@@@@8
rdata$r	ENDS
;	COMDAT ??_R2?$CSingleton@VCPythonPrivateShopSearch@@@@8
rdata$r	SEGMENT
??_R2?$CSingleton@VCPythonPrivateShopSearch@@@@8 DD FLAT:??_R1A@?0A@EA@?$CSingleton@VCPythonPrivateShopSearch@@@@8 ; CSingleton<CPythonPrivateShopSearch>::`RTTI Base Class Array'
rdata$r	ENDS
;	COMDAT ??_R2CPythonPrivateShopSearch@@8
rdata$r	SEGMENT
??_R2CPythonPrivateShopSearch@@8 DD FLAT:??_R1A@?0A@EA@CPythonPrivateShopSearch@@8 ; CPythonPrivateShopSearch::`RTTI Base Class Array'
	DD	FLAT:??_R1A@?0A@EA@?$CSingleton@VCPythonPrivateShopSearch@@@@8
rdata$r	ENDS
;	COMDAT ??_C@_0BC@DOMFPLKH@privateShopSearch@
CONST	SEGMENT
??_C@_0BC@DOMFPLKH@privateShopSearch@ DB 'privateShopSearch', 00H ; `string'
CONST	ENDS
;	COMDAT ??_C@_0BE@LPPIFKKE@GetSearchItemSeller@
CONST	SEGMENT
??_C@_0BE@LPPIFKKE@GetSearchItemSeller@ DB 'GetSearchItemSeller', 00H ; `string'
CONST	ENDS
;	COMDAT ??_C@_0BA@HBOOLDFG@GetSearchItemID@
CONST	SEGMENT
??_C@_0BA@HBOOLDFG@GetSearchItemID@ DB 'GetSearchItemID', 00H ; `string'
CONST	ENDS
;	COMDAT ??_C@_0BL@NNKBNEFP@GetSearchItemTransmutation@
CONST	SEGMENT
??_C@_0BL@NNKBNEFP@GetSearchItemTransmutation@ DB 'GetSearchItemTransmuta'
	DB	'tion', 00H					; `string'
CONST	ENDS
;	COMDAT ??_C@_0BB@JPGCIBFD@GetSearchItemPos@
CONST	SEGMENT
??_C@_0BB@JPGCIBFD@GetSearchItemPos@ DB 'GetSearchItemPos', 00H ; `string'
CONST	ENDS
;	COMDAT ??_C@_0BJ@JIKCKHGJ@GetSearchItemMetinSocket@
CONST	SEGMENT
??_C@_0BJ@JIKCKHGJ@GetSearchItemMetinSocket@ DB 'GetSearchItemMetinSocket'
	DB	00H						; `string'
CONST	ENDS
;	COMDAT ??_C@_0BH@CNKNKICA@GetSearchItemAttribute@
CONST	SEGMENT
??_C@_0BH@CNKNKICA@GetSearchItemAttribute@ DB 'GetSearchItemAttribute', 00H ; `string'
CONST	ENDS
;	COMDAT ??_C@_0BF@MNOCCBHJ@GetSearchItemShopVID@
CONST	SEGMENT
??_C@_0BF@MNOCCBHJ@GetSearchItemShopVID@ DB 'GetSearchItemShopVID', 00H ; `string'
CONST	ENDS
;	COMDAT ??_C@_0BB@BMKHMJBI@ClearSearchItems@
CONST	SEGMENT
??_C@_0BB@BMKHMJBI@ClearSearchItems@ DB 'ClearSearchItems', 00H ; `string'
CONST	ENDS
;	COMDAT ??_C@_0BD@POOGCMBA@GetSearchItemPrice@
CONST	SEGMENT
??_C@_0BD@POOGCMBA@GetSearchItemPrice@ DB 'GetSearchItemPrice', 00H ; `string'
CONST	ENDS
;	COMDAT ??_C@_0BC@BBNPJJFC@GetSearchItemVnum@
CONST	SEGMENT
??_C@_0BC@BBNPJJFC@GetSearchItemVnum@ DB 'GetSearchItemVnum', 00H ; `string'
CONST	ENDS
;	COMDAT ??_C@_0BD@KCBKFHHC@GetSearchItemCount@
CONST	SEGMENT
??_C@_0BD@KCBKFHHC@GetSearchItemCount@ DB 'GetSearchItemCount', 00H ; `string'
PUBLIC	??$construct_at@Upacket_offline_shop_item@@ABU1@@std@@YAPAUpacket_offline_shop_item@@QAU1@ABU1@@Z ; std::construct_at<packet_offline_shop_item,packet_offline_shop_item const &>
PUBLIC	??$addressof@Upacket_offline_shop_item@@@std@@YAPAUpacket_offline_shop_item@@AAU1@@Z ; std::addressof<packet_offline_shop_item>
PUBLIC	??$construct@Upacket_offline_shop_item@@ABU1@@?$_Default_allocator_traits@V?$allocator@Upacket_offline_shop_item@@@std@@@std@@SAXAAV?$allocator@Upacket_offline_shop_item@@@1@QAUpacket_offline_shop_item@@ABU3@@Z ; std::_Default_allocator_traits<std::allocator<packet_offline_shop_item> >::construct<packet_offline_shop_item,packet_offline_shop_item const &>
PUBLIC	??$_Construct_in_place@Upacket_offline_shop_item@@ABU1@@std@@YAXAAUpacket_offline_shop_item@@ABU1@@Z ; std::_Construct_in_place<packet_offline_shop_item,packet_offline_shop_item const &>
PUBLIC	??$_Emplace_reallocate@ABUpacket_offline_shop_item@@@?$vector@Upacket_offline_shop_item@@V?$allocator@Upacket_offline_shop_item@@@std@@@std@@AAEPAUpacket_offline_shop_item@@QAU2@ABU2@@Z ; std::vector<packet_offline_shop_item,std::allocator<packet_offline_shop_item> >::_Emplace_reallocate<packet_offline_shop_item const &>
PUBLIC	??$_Emplace_back_with_unused_capacity@ABUpacket_offline_shop_item@@@?$vector@Upacket_offline_shop_item@@V?$allocator@Upacket_offline_shop_item@@@std@@@std@@AAEAAUpacket_offline_shop_item@@ABU2@@Z ; std::vector<packet_offline_shop_item,std::allocator<packet_offline_shop_item> >::_Emplace_back_with_unused_capacity<packet_offline_shop_item const &>
PUBLIC	??$forward@ABUpacket_offline_shop_item@@@std@@YAABUpacket_offline_shop_item@@ABU1@@Z ; std::forward<packet_offline_shop_item const &>
PUBLIC	?_Xrange@?$vector@Upacket_offline_shop_item@@V?$allocator@Upacket_offline_shop_item@@@std@@@std@@CAXXZ ; std::vector<packet_offline_shop_item,std::allocator<packet_offline_shop_item> >::_Xrange
PUBLIC	??$_Emplace_one_at_back@ABUpacket_offline_shop_item@@@?$vector@Upacket_offline_shop_item@@V?$allocator@Upacket_offline_shop_item@@@std@@@std@@AAEAAUpacket_offline_shop_item@@ABU2@@Z ; std::vector<packet_offline_shop_item,std::allocator<packet_offline_shop_item> >::_Emplace_one_at_back<packet_offline_shop_item const &>
PUBLIC	??_G?$CSingleton@VCPythonPrivateShopSearch@@@@UAEPAXI@Z ; CSingleton<CPythonPrivateShopSearch>::`scalar deleting destructor'
PUBLIC	??0?$CSingleton@VCPythonPrivateShopSearch@@@@QAE@XZ ; CSingleton<CPythonPrivateShopSearch>::CSingleton<CPythonPrivateShopSearch>
PUBLIC	??1?$CSingleton@VCPythonPrivateShopSearch@@@@UAE@XZ ; CSingleton<CPythonPrivateShopSearch>::~CSingleton<CPythonPrivateShopSearch>
PUBLIC	?push_back@?$vector@Upacket_offline_shop_item@@V?$allocator@Upacket_offline_shop_item@@@std@@@std@@QAEXABUpacket_offline_shop_item@@@Z ; std::vector<packet_offline_shop_item,std::allocator<packet_offline_shop_item> >::push_back
PUBLIC	?clear@?$vector@Upacket_offline_shop_item@@V?$allocator@Upacket_offline_shop_item@@@std@@@std@@QAEXXZ ; std::vector<packet_offline_shop_item,std::allocator<packet_offline_shop_item> >::clear
PUBLIC	?size@?$vector@Upacket_offline_shop_item@@V?$allocator@Upacket_offline_shop_item@@@std@@@std@@QBEIXZ ; std::vector<packet_offline_shop_item,std::allocator<packet_offline_shop_item> >::size
PUBLIC	?at@?$vector@Upacket_offline_shop_item@@V?$allocator@Upacket_offline_shop_item@@@std@@@std@@QAEAAUpacket_offline_shop_item@@I@Z ; std::vector<packet_offline_shop_item,std::allocator<packet_offline_shop_item> >::at
PUBLIC	?initprivateShopSearch@@YAXXZ			; initprivateShopSearch
PUBLIC	?privateShopSearchClearSearchItems@@YAPAU_object@@PAU1@0@Z ; privateShopSearchClearSearchItems
PUBLIC	?privateShopSearchGetSearchItemBuyerName@@YAPAU_object@@PAU1@0@Z ; privateShopSearchGetSearchItemBuyerName
PUBLIC	?privateShopSearchGetSearchItemTransmutation@@YAPAU_object@@PAU1@0@Z ; privateShopSearchGetSearchItemTransmutation
PUBLIC	?privateShopSearchGetSearchItemID@@YAPAU_object@@PAU1@0@Z ; privateShopSearchGetSearchItemID
PUBLIC	?privateShopSearchGetSearchItemVnum@@YAPAU_object@@PAU1@0@Z ; privateShopSearchGetSearchItemVnum
PUBLIC	?privateShopSearchGetSearchItemPos@@YAPAU_object@@PAU1@0@Z ; privateShopSearchGetSearchItemPos
PUBLIC	?privateShopSearchGetSearchItemShopVID@@YAPAU_object@@PAU1@0@Z ; privateShopSearchGetSearchItemShopVID
PUBLIC	?privateShopSearchGetSearchItemPrice@@YAPAU_object@@PAU1@0@Z ; privateShopSearchGetSearchItemPrice
PUBLIC	?privateShopSearchGetSearchItemCount@@YAPAU_object@@PAU1@0@Z ; privateShopSearchGetSearchItemCount
PUBLIC	?privateShopSearchGetItemCount@@YAPAU_object@@PAU1@0@Z ; privateShopSearchGetItemCount
PUBLIC	?privateShopSearchGetSearchItemAttribute@@YAPAU_object@@PAU1@0@Z ; privateShopSearchGetSearchItemAttribute
PUBLIC	?privateShopSearchGetSearchItemMetinSocket@@YAPAU_object@@PAU1@0@Z ; privateShopSearchGetSearchItemMetinSocket
PUBLIC	?GetItemDataPtr@CPythonPrivateShopSearch@@QAEKKPAPAUpacket_offline_shop_item@@@Z ; CPythonPrivateShopSearch::GetItemDataPtr
PUBLIC	?ClearItemData@CPythonPrivateShopSearch@@QAEXXZ	; CPythonPrivateShopSearch::ClearItemData
PUBLIC	??_GCPythonPrivateShopSearch@@UAEPAXI@Z		; CPythonPrivateShopSearch::`scalar deleting destructor'
PUBLIC	?GetItemDataCount@CPythonPrivateShopSearch@@QAEKXZ ; CPythonPrivateShopSearch::GetItemDataCount
PUBLIC	?AddItemData@CPythonPrivateShopSearch@@QAEXAAUpacket_offline_shop_item@@@Z ; CPythonPrivateShopSearch::AddItemData
PUBLIC	??0CPythonPrivateShopSearch@@QAE@XZ		; CPythonPrivateShopSearch::CPythonPrivateShopSearch
PUBLIC	??1CPythonPrivateShopSearch@@UAE@XZ		; CPythonPrivateShopSearch::~CPythonPrivateShopSearch
EXTRN	??_ECPythonPrivateShopSearch@@UAEPAXI@Z:PROC	; CPythonPrivateShopSearch::`vector deleting destructor'
EXTRN	??_E?$CSingleton@VCPythonPrivateShopSearch@@@@UAEPAXI@Z:PROC ; CSingleton<CPythonPrivateShopSearch>::`vector deleting destructor'
END
