; Listing generated by Microsoft (R) Optimizing Compiler Version 19.44.35219.0 

	TITLE	c:\anka2project\anka2project\source\binary\vs_files\userinterface\release\pythonnetworkstreamphaselogin.obj
	.686P
	.XMM
	include listing.inc
	.model	flat

INCLUDELIB OLDNAMES

PUBLIC	??_C@_05DHEMANOL@Login@				; `string'
PUBLIC	??_C@_0N@GCHAFKJJ@OnLoginStart@			; `string'
PUBLIC	??_C@_0BM@GIOJNFMI@?$CD?$CD?5Network?5?9?5Login?5Phase?5?$CD?$CD@ ; `string'
PUBLIC	??_C@_0BA@HGDBLFFH@SendLogin?5Error@		; `string'
PUBLIC	??_C@_0BA@HOEIMIKO@SendDirectEnter@		; `string'
EXTRN	?SetSecurityMode@CNetworkStream@@QAEX_NPBD1@Z:PROC ; CNetworkStream::SetSecurityMode
EXTRN	__Thrd_join:PROC
EXTRN	__Thrd_id:PROC
;	COMDAT ??_C@_0BA@HOEIMIKO@SendDirectEnter@
CONST	SEGMENT
??_C@_0BA@HOEIMIKO@SendDirectEnter@ DB 'SendDirectEnter', 00H ; `string'
CONST	ENDS
;	COMDAT ??_C@_0BA@HGDBLFFH@SendLogin?5Error@
CONST	SEGMENT
??_C@_0BA@HGDBLFFH@SendLogin?5Error@ DB 'SendLogin Error', 00H ; `string'
CONST	ENDS
;	COMDAT ??_C@_0BM@GIOJNFMI@?$CD?$CD?5Network?5?9?5Login?5Phase?5?$CD?$CD@
CONST	SEGMENT
??_C@_0BM@GIOJNFMI@?$CD?$CD?5Network?5?9?5Login?5Phase?5?$CD?$CD@ DB '## '
	DB	'Network - Login Phase ##', 00H		; `string'
CONST	ENDS
;	COMDAT ??_C@_0N@GCHAFKJJ@OnLoginStart@
CONST	SEGMENT
??_C@_0N@GCHAFKJJ@OnLoginStart@ DB 'OnLoginStart', 00H	; `string'
CONST	ENDS
;	COMDAT ??_C@_05DHEMANOL@Login@
CONST	SEGMENT
??_C@_05DHEMANOL@Login@ DB 'Login', 00H			; `string'
PUBLIC	?__RecvLoginKeyPacket@CPythonNetworkStream@@IAE_NXZ ; CPythonNetworkStream::__RecvLoginKeyPacket
PUBLIC	?SendLoginPacketNew@CPythonNetworkStream@@QAE_NPBD0@Z ; CPythonNetworkStream::SendLoginPacketNew
PUBLIC	?__RecvLoginFailurePacket@CPythonNetworkStream@@IAE_NXZ ; CPythonNetworkStream::__RecvLoginFailurePacket
PUBLIC	?__RecvLoginSuccessPacket4@CPythonNetworkStream@@IAE_NXZ ; CPythonNetworkStream::__RecvLoginSuccessPacket4
PUBLIC	?__RecvLoginSuccessPacket3@CPythonNetworkStream@@IAE_NXZ ; CPythonNetworkStream::__RecvLoginSuccessPacket3
PUBLIC	?__RecvEmpirePacket@CPythonNetworkStream@@IAE_NXZ ; CPythonNetworkStream::__RecvEmpirePacket
PUBLIC	?LoginPhase@CPythonNetworkStream@@IAEXXZ	; CPythonNetworkStream::LoginPhase
PUBLIC	?joinLoadThread@CPythonPlayerSettingsModule@@QAEXXZ ; CPythonPlayerSettingsModule::joinLoadThread
PUBLIC	?join@thread@std@@QAEXXZ			; std::thread::join
PUBLIC	?__LeaveLoginPhase@CPythonNetworkStream@@IAEXXZ	; CPythonNetworkStream::__LeaveLoginPhase
PUBLIC	?SendLoginPacket@CPythonNetworkStream@@QAE_NPBD0@Z ; CPythonNetworkStream::SendLoginPacket
PUBLIC	?SetLoginPhase@CPythonNetworkStream@@QAEXXZ	; CPythonNetworkStream::SetLoginPhase
PUBLIC	?OnConnectFailure@CPythonNetworkStream@@MAEXXZ	; CPythonNetworkStream::OnConnectFailure
?vecDropSoundFileName@@3V?$array@U?$pair@KV?$basic_string@DU?$char_traits@D@std@@V?$allocator@D@2@@std@@@std@@$04@std@@B DB 08cH DUP (?) ; vecDropSoundFileName
?vecEffectList@@3V?$vector@V?$tuple@IPBDPBD_N@std@@V?$allocator@V?$tuple@IPBDPBD_N@std@@@2@@std@@B DB 0cH DUP (?) ; vecEffectList
?characterNameColors@@3V?$map@EV?$array@E$02@std@@U?$less@E@2@V?$allocator@U?$pair@$$CBEV?$array@E$02@std@@@std@@@2@@std@@B DQ 01H DUP (?) ; characterNameColors
?characterTitleColors@@3V?$map@EV?$array@E$02@std@@U?$less@E@2@V?$allocator@U?$pair@$$CBEV?$array@E$02@std@@@std@@@2@@std@@B DQ 01H DUP (?) ; characterTitleColors
?characterTitleSystemColors@@3V?$map@EV?$array@E$02@std@@U?$less@E@2@V?$allocator@U?$pair@$$CBEV?$array@E$02@std@@@std@@@2@@std@@B DQ 01H DUP (?) ; characterTitleSystemColors
?emotionIcons@@3V?$map@EPBDU?$less@E@std@@V?$allocator@U?$pair@$$CBEPBD@std@@@2@@std@@B DQ 01H DUP (?) ; emotionIcons
?skillIndexes@@3V?$map@EV?$map@EV?$vector@EV?$allocator@E@std@@@std@@U?$less@E@2@V?$allocator@U?$pair@$$CBEV?$vector@EV?$allocator@E@std@@@std@@@std@@@2@@std@@U?$less@E@2@V?$allocator@U?$pair@$$CBEV?$map@EV?$vector@EV?$allocator@E@std@@@std@@U?$less@E@2@V?$allocator@U?$pair@$$CBEV?$vector@EV?$allocator@E@std@@@std@@@std@@@2@@std@@@std@@@2@@std@@B DQ 01H DUP (?) ; skillIndexes
?guildSkills@@3V?$map@V?$basic_string@DU?$char_traits@D@std@@V?$allocator@D@2@@std@@V?$vector@EV?$allocator@E@std@@@2@U?$less@V?$basic_string@DU?$char_traits@D@std@@V?$allocator@D@2@@std@@@2@V?$allocator@U?$pair@$$CBV?$basic_string@DU?$char_traits@D@std@@V?$allocator@D@2@@std@@V?$vector@EV?$allocator@E@std@@@2@@std@@@2@@std@@B DQ 01H DUP (?) ; guildSkills
_BSS	ENDS
;	COMDAT xdata$x
xdata$x	SEGMENT
__ehfuncinfo$??__EvecUseSoundFileName@@YAXXZ DQ 00000000619930522r ; 1.2944e-313
	DD	FLAT:__unwindtable$??__EvecUseSoundFileName@@YAXXZ
	DQ	00000000000000000r		; 0
	DQ	00000000000000000r		; 0
	DQ	00000000100000000r		; 2.122e-314
__unwindtable$??__EvecUseSoundFileName@@YAXXZ DD 0ffffffffH
	DD	FLAT:__unwindfunclet$??__EvecUseSoundFileName@@YAXXZ$0
	DD	00H
	DD	FLAT:__unwindfunclet$??__EvecUseSoundFileName@@YAXXZ$1
	DD	01H
	DD	FLAT:__unwindfunclet$??__EvecUseSoundFileName@@YAXXZ$2
	DD	02H
	DD	FLAT:__unwindfunclet$??__EvecUseSoundFileName@@YAXXZ$3
	DD	03H
	DD	FLAT:__unwindfunclet$??__EvecUseSoundFileName@@YAXXZ$4
	DD	04H
	DD	FLAT:__unwindfunclet$??__EvecUseSoundFileName@@YAXXZ$5
xdata$x	ENDS
;	COMDAT xdata$x
xdata$x	SEGMENT
__ehfuncinfo$??__FvecUseSoundFileName@@YAXXZ DQ 00000000119930522r ; 2.33398e-314
	DD	FLAT:__unwindtable$??__FvecUseSoundFileName@@YAXXZ
	DQ	00000000000000000r		; 0
	DQ	00000000000000000r		; 0
	DQ	00000000100000000r		; 2.122e-314
__unwindtable$??__FvecUseSoundFileName@@YAXXZ DD 0ffffffffH
	DD	FLAT:___std_terminate
xdata$x	ENDS
;	COMDAT xdata$x
xdata$x	SEGMENT
__ehfuncinfo$??__EvecDropSoundFileName@@YAXXZ DQ 00000000419930522r ; 8.69997e-314
	DD	FLAT:__unwindtable$??__EvecDropSoundFileName@@YAXXZ
	DQ	00000000000000000r		; 0
	DQ	00000000000000000r		; 0
	DQ	00000000100000000r		; 2.122e-314
__unwindtable$??__EvecDropSoundFileName@@YAXXZ DD 0ffffffffH
	DD	FLAT:__unwindfunclet$??__EvecDropSoundFileName@@YAXXZ$0
	DD	00H
	DD	FLAT:__unwindfunclet$??__EvecDropSoundFileName@@YAXXZ$1
	DD	01H
	DD	FLAT:__unwindfunclet$??__EvecDropSoundFileName@@YAXXZ$2
	DD	02H
	DD	FLAT:__unwindfunclet$??__EvecDropSoundFileName@@YAXXZ$3
xdata$x	ENDS
;	COMDAT xdata$x
xdata$x	SEGMENT
__ehfuncinfo$??__FvecDropSoundFileName@@YAXXZ DQ 00000000119930522r ; 2.33398e-314
	DD	FLAT:__unwindtable$??__FvecDropSoundFileName@@YAXXZ
	DQ	00000000000000000r		; 0
	DQ	00000000000000000r		; 0
	DQ	00000000100000000r		; 2.122e-314
__unwindtable$??__FvecDropSoundFileName@@YAXXZ DD 0ffffffffH
	DD	FLAT:___std_terminate
xdata$x	ENDS
;	COMDAT xdata$x
xdata$x	SEGMENT
__ehfuncinfo$??__EskillIndexes@@YAXXZ DQ 00000002819930522r ; 8.50918e-313
	DD	FLAT:__unwindtable$??__EskillIndexes@@YAXXZ
	DQ	00000000000000000r		; 0
	DQ	00000000000000000r		; 0
	DQ	00000000100000000r		; 2.122e-314
	ORG $+4
__unwindtable$??__EskillIndexes@@YAXXZ DD 0ffffffffH
	DD	FLAT:__unwindfunclet$??__EskillIndexes@@YAXXZ$0
	DD	00H
	DD	FLAT:__unwindfunclet$??__EskillIndexes@@YAXXZ$1
	DD	01H
	DD	FLAT:__unwindfunclet$??__EskillIndexes@@YAXXZ$2
	DD	00H
	DD	FLAT:__unwindfunclet$??__EskillIndexes@@YAXXZ$2
	DD	03H
	DD	FLAT:__unwindfunclet$??__EskillIndexes@@YAXXZ$4
	DD	04H
	DD	FLAT:__unwindfunclet$??__EskillIndexes@@YAXXZ$5
	DD	05H
	DD	FLAT:__unwindfunclet$??__EskillIndexes@@YAXXZ$6
	DD	06H
	DD	FLAT:__unwindfunclet$??__EskillIndexes@@YAXXZ$7
	DD	07H
	DD	FLAT:__unwindfunclet$??__EskillIndexes@@YAXXZ$8
	DD	08H
	DD	FLAT:__unwindfunclet$??__EskillIndexes@@YAXXZ$9
	DD	07H
	DD	FLAT:__unwindfunclet$??__EskillIndexes@@YAXXZ$9
	DD	0aH
	DD	FLAT:__unwindfunclet$??__EskillIndexes@@YAXXZ$11
	DD	0bH
	DD	FLAT:__unwindfunclet$??__EskillIndexes@@YAXXZ$12
	DD	0cH
	DD	FLAT:__unwindfunclet$??__EskillIndexes@@YAXXZ$13
	DD	0dH
	DD	FLAT:__unwindfunclet$??__EskillIndexes@@YAXXZ$14
	DD	0eH
	DD	FLAT:__unwindfunclet$??__EskillIndexes@@YAXXZ$15
	DD	0fH
	DD	FLAT:__unwindfunclet$??__EskillIndexes@@YAXXZ$16
	DD	0eH
	DD	FLAT:__unwindfunclet$??__EskillIndexes@@YAXXZ$16
	DD	011H
	DD	FLAT:__unwindfunclet$??__EskillIndexes@@YAXXZ$18
	DD	012H
	DD	FLAT:__unwindfunclet$??__EskillIndexes@@YAXXZ$19
	DD	013H
	DD	FLAT:__unwindfunclet$??__EskillIndexes@@YAXXZ$20
	DD	014H
	DD	FLAT:__unwindfunclet$??__EskillIndexes@@YAXXZ$21
	DD	015H
	DD	FLAT:__unwindfunclet$??__EskillIndexes@@YAXXZ$22
	DD	016H
	DD	FLAT:__unwindfunclet$??__EskillIndexes@@YAXXZ$23
	DD	015H
	DD	FLAT:__unwindfunclet$??__EskillIndexes@@YAXXZ$23
	DD	018H
	DD	FLAT:__unwindfunclet$??__EskillIndexes@@YAXXZ$25
	DD	019H
	DD	FLAT:__unwindfunclet$??__EskillIndexes@@YAXXZ$26
	DD	05H
	DD	FLAT:__unwindfunclet$??__EskillIndexes@@YAXXZ$7
	DD	01bH
	DD	FLAT:__unwindfunclet$??__EskillIndexes@@YAXXZ$9
	DD	01cH
	DD	FLAT:__unwindfunclet$??__EskillIndexes@@YAXXZ$11
	DD	01dH
	DD	FLAT:__unwindfunclet$??__EskillIndexes@@YAXXZ$12
	DD	01eH
	DD	FLAT:__unwindfunclet$??__EskillIndexes@@YAXXZ$14
	DD	01fH
	DD	FLAT:__unwindfunclet$??__EskillIndexes@@YAXXZ$16
	DD	020H
	DD	FLAT:__unwindfunclet$??__EskillIndexes@@YAXXZ$18
	DD	021H
	DD	FLAT:__unwindfunclet$??__EskillIndexes@@YAXXZ$19
	DD	022H
	DD	FLAT:__unwindfunclet$??__EskillIndexes@@YAXXZ$21
	DD	023H
	DD	FLAT:__unwindfunclet$??__EskillIndexes@@YAXXZ$23
	DD	024H
	DD	FLAT:__unwindfunclet$??__EskillIndexes@@YAXXZ$25
	DD	025H
	DD	FLAT:__unwindfunclet$??__EskillIndexes@@YAXXZ$26
	DD	026H
	DD	FLAT:__unwindfunclet$??__EskillIndexes@@YAXXZ$28
xdata$x	ENDS
;	COMDAT xdata$x
xdata$x	SEGMENT
__ehfuncinfo$??__EguildSkills@@YAXXZ DQ 00000000a19930522r ; 2.14319e-313
	DD	FLAT:__unwindtable$??__EguildSkills@@YAXXZ
	DQ	00000000000000000r		; 0
	DQ	00000000000000000r		; 0
	DQ	00000000100000000r		; 2.122e-314
	ORG $+4
__unwindtable$??__EguildSkills@@YAXXZ DD 0ffffffffH
	DD	FLAT:__unwindfunclet$??__EguildSkills@@YAXXZ$0
	DD	00H
	DD	FLAT:__unwindfunclet$??__EguildSkills@@YAXXZ$1
	DD	01H
	DD	FLAT:__unwindfunclet$??__EguildSkills@@YAXXZ$10
	DD	01H
	DD	FLAT:__unwindfunclet$??__EguildSkills@@YAXXZ$2
	DD	03H
	DD	FLAT:__unwindfunclet$??__EguildSkills@@YAXXZ$3
	DD	04H
	DD	FLAT:__unwindfunclet$??__EguildSkills@@YAXXZ$4
	DD	05H
	DD	FLAT:__unwindfunclet$??__EguildSkills@@YAXXZ$16
	DD	01H
	DD	FLAT:__unwindfunclet$??__EguildSkills@@YAXXZ$3
	DD	07H
	DD	FLAT:__unwindfunclet$??__EguildSkills@@YAXXZ$4
	DD	08H
	DD	FLAT:__unwindfunclet$??__EguildSkills@@YAXXZ$6
	ORG $+4
?vecUseSoundFileName@@3V?$array@U?$pair@KV?$basic_string@DU?$char_traits@D@std@@V?$allocator@D@2@@std@@@std@@$06@std@@B DQ 00000000000000001r ; 4.94066e-324 ; vecUseSoundFileName
	DQ	00000000000000000r		; 0
	DQ	00000000000000000r		; 0
	DQ	00000000000000000r		; 0
	DQ	00000000000000000r		; 0
	DQ	00000000000000000r		; 0
	DQ	00000000000000000r		; 0
	DQ	00000000000000000r		; 0
	DQ	00000000000000000r		; 0
	DQ	00000000000000000r		; 0
	DQ	00000000000000000r		; 0
	DQ	00000000000000000r		; 0
	DQ	00000000000000000r		; 0
	DQ	00000000000000000r		; 0
	DQ	00000000000000000r		; 0
	DQ	00000000000000000r		; 0
	DQ	00000000000000000r		; 0
	DQ	00000000000000000r		; 0
	DQ	00000000000000000r		; 0
	DQ	00000000000000000r		; 0
	DQ	00000000000000000r		; 0
	DQ	00000000000000000r		; 0
	DQ	00000000000000000r		; 0
	DQ	00000000000000000r		; 0
	DD	00H
?vecUseSoundFileName$initializer$@@3P6AXXZA DD FLAT:??__EvecUseSoundFileName@@YAXXZ ; vecUseSoundFileName$initializer$
?vecDropSoundFileName$initializer$@@3P6AXXZA DD FLAT:??__EvecDropSoundFileName@@YAXXZ ; vecDropSoundFileName$initializer$
?vecEffectList$initializer$@@3P6AXXZA DD FLAT:??__EvecEffectList@@YAXXZ ; vecEffectList$initializer$
?characterNameColors$initializer$@@3P6AXXZA DD FLAT:??__EcharacterNameColors@@YAXXZ ; characterNameColors$initializer$
?characterTitleColors$initializer$@@3P6AXXZA DD FLAT:??__EcharacterTitleColors@@YAXXZ ; characterTitleColors$initializer$
?characterTitleSystemColors$initializer$@@3P6AXXZA DD FLAT:??__EcharacterTitleSystemColors@@YAXXZ ; characterTitleSystemColors$initializer$
?emotionIcons$initializer$@@3P6AXXZA DD FLAT:??__EemotionIcons@@YAXXZ ; emotionIcons$initializer$
?skillIndexes$initializer$@@3P6AXXZA DD FLAT:??__EskillIndexes@@YAXXZ ; skillIndexes$initializer$
?guildSkills$initializer$@@3P6AXXZA DD FLAT:??__EguildSkills@@YAXXZ ; guildSkills$initializer$
; Function compile flags: /Ogtp
; File C:\Anka2Project\Anka2Project\Source\Binary\source\UserInterface\PythonNetworkStreamPhaseLogin.cpp
;	COMDAT ?OnConnectFailure@CPythonNetworkStream@@MAEXXZ
_TEXT	SEGMENT
?OnConnectFailure@CPythonNetworkStream@@MAEXXZ PROC	; CPythonNetworkStream::OnConnectFailure, COMDAT
; _this$ = ecx

; 182  : {

  00000	56		 push	 esi
  00001	8b f1		 mov	 esi, ecx

; 183  : 	if (__DirectEnterMode_IsSet())

  00003	e8 00 00 00 00	 call	 ?__DirectEnterMode_IsSet@CPythonNetworkStream@@AAE_NXZ ; CPythonNetworkStream::__DirectEnterMode_IsSet
  00008	84 c0		 test	 al, al
  0000a	74 06		 je	 SHORT $LN2@OnConnectF
  0000c	5e		 pop	 esi

; 184  : 	{
; 185  : 		ClosePhase();

  0000d	e9 00 00 00 00	 jmp	 ?ClosePhase@CPythonNetworkStream@@QAEXXZ ; CPythonNetworkStream::ClosePhase
$LN2@OnConnectF:

; 186  : 	}
; 187  : 	else
; 188  : 	{
; 189  : 		PyCallClassMemberFunc(m_apoPhaseWnd[PHASE_WINDOW_LOGIN], "OnConnectFailure", Py_BuildValue("()"));	

  00012	68 00 00 00 00	 push	 OFFSET ??_C@_02HCKGKOFO@?$CI?$CJ@
  00017	ff 15 00 00 00
	00		 call	 DWORD PTR __imp__Py_BuildValue
  0001d	50		 push	 eax
  0001e	68 00 00 00 00	 push	 OFFSET ??_C@_0BB@JEKGEMCL@OnConnectFailure@
  00023	ff b6 88 01 00
	00		 push	 DWORD PTR [esi+392]
  00029	e8 00 00 00 00	 call	 ?PyCallClassMemberFunc@@YA_NPAU_object@@PBD0@Z ; PyCallClassMemberFunc
  0002e	83 c4 10	 add	 esp, 16			; 00000010H
  00031	5e		 pop	 esi

; 190  : 	}
; 191  : }

  00032	c3		 ret	 0
?OnConnectFailure@CPythonNetworkStream@@MAEXXZ ENDP	; CPythonNetworkStream::OnConnectFailure
_TEXT	ENDS
; Function compile flags: /Ogtp
; File C:\Anka2Project\Anka2Project\Source\Binary\source\UserInterface\PythonNetworkStreamPhaseLogin.cpp
; File C:\Program Files\Microsoft Visual Studio\2022\Community\VC\Tools\MSVC\14.44.35207\include\xstring
; File C:\Anka2Project\Anka2Project\Source\Binary\source\UserInterface\PythonNetworkStreamPhaseLogin.cpp
; File C:\Anka2Project\Anka2Project\Source\Binary\source\EterLib\FuncObject.h
; File C:\Anka2Project\Anka2Project\Source\Binary\source\UserInterface\PythonNetworkStreamPhaseLogin.cpp
; File C:\Program Files\Microsoft Visual Studio\2022\Community\VC\Tools\MSVC\14.44.35207\include\xstring
; File C:\Anka2Project\Anka2Project\Source\Binary\source\EterLib\FuncObject.h
; File C:\Anka2Project\Anka2Project\Source\Binary\source\UserInterface\PythonNetworkStreamPhaseLogin.cpp
; File C:\Program Files\Microsoft Visual Studio\2022\Community\VC\Tools\MSVC\14.44.35207\include\xstring
; File C:\Anka2Project\Anka2Project\Source\Binary\source\UserInterface\PythonNetworkStreamPhaseLogin.cpp
; File C:\Program Files\Microsoft Visual Studio\2022\Community\VC\Tools\MSVC\14.44.35207\include\xstring
; File C:\Anka2Project\Anka2Project\Source\Binary\source\UserInterface\PythonNetworkStreamPhaseLogin.cpp
; File C:\Anka2Project\Anka2Project\Source\Binary\source\eterBase\Singleton.h
; File C:\Anka2Project\Anka2Project\Source\Binary\source\UserInterface\PythonNetworkStreamPhaseLogin.cpp
; File C:\Program Files\Microsoft Visual Studio\2022\Community\VC\Tools\MSVC\14.44.35207\include\xstring
; File C:\Anka2Project\Anka2Project\Source\Binary\source\UserInterface\PythonNetworkStreamPhaseLogin.cpp
; File C:\Program Files\Microsoft Visual Studio\2022\Community\VC\Tools\MSVC\14.44.35207\include\xstring
; File C:\Anka2Project\Anka2Project\Source\Binary\source\UserInterface\PythonNetworkStreamPhaseLogin.cpp
; File C:\Anka2Project\Anka2Project\Source\Binary\source\eterBase\Singleton.h
; File C:\Anka2Project\Anka2Project\Source\Binary\source\UserInterface\PythonNetworkStreamPhaseLogin.cpp
; File C:\Anka2Project\Anka2Project\Source\Binary\source\eterBase\Singleton.h
; File C:\Anka2Project\Anka2Project\Source\Binary\source\UserInterface\PythonNetworkStreamPhaseLogin.cpp
; File C:\Anka2Project\Anka2Project\Source\Binary\source\eterBase\Singleton.h
; File C:\Program Files\Microsoft Visual Studio\2022\Community\VC\Tools\MSVC\14.44.35207\include\thread
; File C:\Anka2Project\Anka2Project\Source\Binary\source\UserInterface\PythonPlayerSettingsModule.h
; File C:\Program Files\Microsoft Visual Studio\2022\Community\VC\Tools\MSVC\14.44.35207\include\thread
; File C:\Anka2Project\Anka2Project\Source\Binary\source\UserInterface\PythonNetworkStreamPhaseLogin.cpp
; File C:\Program Files\Microsoft Visual Studio\2022\Community\VC\Tools\MSVC\14.44.35207\include\thread
; File C:\Anka2Project\Anka2Project\Source\Binary\source\UserInterface\PythonNetworkStreamPhaseLogin.cpp
;	COMDAT ?SetLoginPhase@CPythonNetworkStream@@QAEXXZ
_TEXT	SEGMENT
?SetLoginPhase@CPythonNetworkStream@@QAEXXZ PROC	; CPythonNetworkStream::SetLoginPhase, COMDAT
; _this$ = ecx

; 64   : {

  00000	55		 push	 ebp
  00001	8b ec		 mov	 ebp, esp
  00003	83 e4 f8	 and	 esp, -8			; fffffff8H
  00006	51		 push	 ecx
  00007	53		 push	 ebx
  00008	56		 push	 esi
  00009	57		 push	 edi

; 65   : 	const char *key = LSS_SECURITY_KEY;
; 66   : 	SetSecurityMode(true, key);

  0000a	68 00 00 00 00	 push	 OFFSET ??_C@_0BB@JKKAAGON@1234abcd5678efgh@
  0000f	6a 01		 push	 1
  00011	8b f9		 mov	 edi, ecx
  00013	e8 00 00 00 00	 call	 ?SetSecurityMode@CNetworkStream@@QAEX_NPBD@Z ; CNetworkStream::SetSecurityMode
; File C:\Program Files\Microsoft Visual Studio\2022\Community\VC\Tools\MSVC\14.44.35207\include\xstring

; 453  :         return _Myres > _Small_string_capacity;

  00018	83 bf 28 01 00
	00 0f		 cmp	 DWORD PTR [edi+296], 15	; 0000000fH

; 444  :         const value_type* _Result = _Bx._Buf;

  0001f	8d 87 14 01 00
	00		 lea	 eax, DWORD PTR [edi+276]

; 445  :         if (_Large_mode_engaged()) {

  00025	76 06		 jbe	 SHORT $LN20@SetLoginPh

; 446  :             _Result = _Unfancy(_Bx._Ptr);

  00027	8b 87 14 01 00
	00		 mov	 eax, DWORD PTR [edi+276]
$LN20@SetLoginPh:

; 2854 :         return _Traits_equal<_Traits>(_Mypair._Myval2._Myptr(), _Mypair._Myval2._Mysize, _Ptr, _Traits::length(_Ptr));

  0002d	6a 05		 push	 5
  0002f	68 00 00 00 00	 push	 OFFSET ??_C@_05DHEMANOL@Login@
  00034	ff b7 24 01 00
	00		 push	 DWORD PTR [edi+292]
  0003a	50		 push	 eax
  0003b	e8 00 00 00 00	 call	 ??$_Traits_equal@U?$char_traits@D@std@@@std@@YA_NQBDI0I@Z ; std::_Traits_equal<std::char_traits<char> >
  00040	83 c4 10	 add	 esp, 16			; 00000010H
; File C:\Anka2Project\Anka2Project\Source\Binary\source\UserInterface\PythonNetworkStreamPhaseLogin.cpp

; 68   : 	if ("Login" != m_strPhase)

  00043	84 c0		 test	 al, al
  00045	75 1e		 jne	 SHORT $LN39@SetLoginPh
; File C:\Anka2Project\Anka2Project\Source\Binary\source\EterLib\FuncObject.h

; 41   : 			if (m_pSelfObject)

  00047	8b 87 70 01 00
	00		 mov	 eax, DWORD PTR [edi+368]
  0004d	85 c0		 test	 eax, eax
  0004f	74 14		 je	 SHORT $LN39@SetLoginPh

; 42   : 				if (m_pFuncObject)

  00051	8b 97 78 01 00
	00		 mov	 edx, DWORD PTR [edi+376]
  00057	85 d2		 test	 edx, edx
  00059	74 0a		 je	 SHORT $LN39@SetLoginPh

; 43   : 					(m_pSelfObject->*m_pFuncObject)();

  0005b	8b 8f 7c 01 00
	00		 mov	 ecx, DWORD PTR [edi+380]
  00061	03 c8		 add	 ecx, eax
  00063	ff d2		 call	 edx
$LN39@SetLoginPh:
; File C:\Anka2Project\Anka2Project\Source\Binary\source\UserInterface\PythonNetworkStreamPhaseLogin.cpp

; 71   : 	Tracen("");

  00065	68 00 00 00 00	 push	 OFFSET ??_C@_00CNPNBAHC@@
  0006a	e8 00 00 00 00	 call	 ?Tracen@@YAXPBD@Z	; Tracen
  0006f	83 c4 04	 add	 esp, 4

; 72   : 	Tracen("## Network - Login Phase ##");

  00072	68 00 00 00 00	 push	 OFFSET ??_C@_0BM@GIOJNFMI@?$CD?$CD?5Network?5?9?5Login?5Phase?5?$CD?$CD@
  00077	e8 00 00 00 00	 call	 ?Tracen@@YAXPBD@Z	; Tracen
  0007c	83 c4 04	 add	 esp, 4

; 73   : 	Tracen("");

  0007f	68 00 00 00 00	 push	 OFFSET ??_C@_00CNPNBAHC@@
  00084	e8 00 00 00 00	 call	 ?Tracen@@YAXPBD@Z	; Tracen
  00089	83 c4 04	 add	 esp, 4
; File C:\Program Files\Microsoft Visual Studio\2022\Community\VC\Tools\MSVC\14.44.35207\include\xstring

; 1638 :         return assign(_Ptr, _Convert_size<size_type>(_Traits::length(_Ptr)));

  0008c	8d 8f 14 01 00
	00		 lea	 ecx, DWORD PTR [edi+276]
  00092	6a 05		 push	 5
  00094	68 00 00 00 00	 push	 OFFSET ??_C@_05DHEMANOL@Login@
  00099	e8 00 00 00 00	 call	 ?assign@?$basic_string@DU?$char_traits@D@std@@V?$allocator@D@2@@std@@QAEAAV12@QBDI@Z ; std::basic_string<char,std::char_traits<char>,std::allocator<char> >::assign
; File C:\Anka2Project\Anka2Project\Source\Binary\source\EterLib\FuncObject.h

; 24   : 			m_pSelfObject = pSelfObject;

  0009e	89 bf 58 01 00
	00		 mov	 DWORD PTR [edi+344], edi

; 25   : 			m_pFuncObject = pFuncObject;

  000a4	c7 87 60 01 00
	00 00 00 00 00	 mov	 DWORD PTR [edi+352], OFFSET ?LoginPhase@CPythonNetworkStream@@IAEXXZ ; CPythonNetworkStream::LoginPhase
  000ae	c7 87 64 01 00
	00 00 00 00 00	 mov	 DWORD PTR [edi+356], 0

; 24   : 			m_pSelfObject = pSelfObject;

  000b8	89 bf 70 01 00
	00		 mov	 DWORD PTR [edi+368], edi

; 25   : 			m_pFuncObject = pFuncObject;

  000be	c7 87 78 01 00
	00 00 00 00 00	 mov	 DWORD PTR [edi+376], OFFSET ?__LeaveLoginPhase@CPythonNetworkStream@@IAEXXZ ; CPythonNetworkStream::__LeaveLoginPhase
  000c8	c7 87 7c 01 00
	00 00 00 00 00	 mov	 DWORD PTR [edi+380], 0
; File C:\Anka2Project\Anka2Project\Source\Binary\source\UserInterface\PythonNetworkStreamPhaseLogin.cpp

; 80   : 	m_dwChangingPhaseTime = ELTimer_GetMSec();

  000d2	e8 00 00 00 00	 call	 ?ELTimer_GetMSec@@YAKXZ	; ELTimer_GetMSec

; 81   : 
; 82   : 	if (__DirectEnterMode_IsSet())

  000d7	8b 97 2c 01 00
	00		 mov	 edx, DWORD PTR [edi+300]
  000dd	8b cf		 mov	 ecx, edi
  000df	89 87 8c 00 00
	00		 mov	 DWORD PTR [edi+140], eax
  000e5	e8 00 00 00 00	 call	 ?__DirectEnterMode_IsSet@CPythonNetworkStream@@AAE_NXZ ; CPythonNetworkStream::__DirectEnterMode_IsSet
  000ea	84 c0		 test	 al, al
  000ec	0f 84 80 00 00
	00		 je	 $LN3@SetLoginPh

; 83   : 	{
; 84   : 		if (0 != m_dwLoginKey)

  000f2	85 d2		 test	 edx, edx
  000f4	74 1a		 je	 SHORT $LN5@SetLoginPh
; File C:\Program Files\Microsoft Visual Studio\2022\Community\VC\Tools\MSVC\14.44.35207\include\xstring

; 453  :         return _Myres > _Small_string_capacity;

  000f6	83 bf e0 00 00
	00 0f		 cmp	 DWORD PTR [edi+224], 15	; 0000000fH

; 2356 :         return _Mypair._Myval2._Myptr();

  000fd	8d 87 cc 00 00
	00		 lea	 eax, DWORD PTR [edi+204]

; 445  :         if (_Large_mode_engaged()) {

  00103	76 02		 jbe	 SHORT $LN83@SetLoginPh

; 446  :             _Result = _Unfancy(_Bx._Ptr);

  00105	8b 00		 mov	 eax, DWORD PTR [eax]
$LN83@SetLoginPh:
; File C:\Anka2Project\Anka2Project\Source\Binary\source\UserInterface\PythonNetworkStreamPhaseLogin.cpp

; 85   : 			SendLoginPacketNew(m_stID.c_str(), m_stPassword.c_str());

  00107	51		 push	 ecx
  00108	50		 push	 eax
  00109	e8 00 00 00 00	 call	 ?SendLoginPacketNew@CPythonNetworkStream@@QAE_NPBD0@Z ; CPythonNetworkStream::SendLoginPacketNew
  0010e	eb 2b		 jmp	 SHORT $LN6@SetLoginPh
$LN5@SetLoginPh:
; File C:\Program Files\Microsoft Visual Studio\2022\Community\VC\Tools\MSVC\14.44.35207\include\xstring

; 453  :         return _Myres > _Small_string_capacity;

  00110	83 bf f8 00 00
	00 0f		 cmp	 DWORD PTR [edi+248], 15	; 0000000fH

; 2356 :         return _Mypair._Myval2._Myptr();

  00117	8d 87 e4 00 00
	00		 lea	 eax, DWORD PTR [edi+228]

; 445  :         if (_Large_mode_engaged()) {

  0011d	76 02		 jbe	 SHORT $LN93@SetLoginPh

; 446  :             _Result = _Unfancy(_Bx._Ptr);

  0011f	8b 00		 mov	 eax, DWORD PTR [eax]
$LN93@SetLoginPh:

; 453  :         return _Myres > _Small_string_capacity;

  00121	83 bf e0 00 00
	00 0f		 cmp	 DWORD PTR [edi+224], 15	; 0000000fH

; 2356 :         return _Mypair._Myval2._Myptr();

  00128	8d 8f cc 00 00
	00		 lea	 ecx, DWORD PTR [edi+204]

; 445  :         if (_Large_mode_engaged()) {

  0012e	76 02		 jbe	 SHORT $LN103@SetLoginPh

; 446  :             _Result = _Unfancy(_Bx._Ptr);

  00130	8b 09		 mov	 ecx, DWORD PTR [ecx]
$LN103@SetLoginPh:
; File C:\Anka2Project\Anka2Project\Source\Binary\source\UserInterface\PythonNetworkStreamPhaseLogin.cpp

; 87   : 			SendLoginPacket(m_stID.c_str(), m_stPassword.c_str());

  00132	50		 push	 eax
  00133	51		 push	 ecx
  00134	8b cf		 mov	 ecx, edi
  00136	e8 00 00 00 00	 call	 ?SendLoginPacket@CPythonNetworkStream@@QAE_NPBD0@Z ; CPythonNetworkStream::SendLoginPacket
$LN6@SetLoginPh:

; 88   : 
; 89   : 		ClearLoginInfo();

  0013b	8b cf		 mov	 ecx, edi
  0013d	e8 00 00 00 00	 call	 ?ClearLoginInfo@CPythonNetworkStream@@QAEXXZ ; CPythonNetworkStream::ClearLoginInfo
; File C:\Anka2Project\Anka2Project\Source\Binary\source\eterBase\Singleton.h

; 26   : 		assert(ms_singleton);

  00142	8b 0d 00 00 00
	00		 mov	 ecx, DWORD PTR ?ms_singleton@?$CSingleton@VCAccountConnector@@@@0PAVCAccountConnector@@A ; CSingleton<CAccountConnector>::ms_singleton
  00148	85 c9		 test	 ecx, ecx
  0014a	75 1a		 jne	 SHORT $LN46@SetLoginPh
  0014c	6a 1a		 push	 26			; 0000001aH
  0014e	68 00 00 00 00	 push	 OFFSET ??_C@_1IO@CAJLEEOI@?$AAC?$AA?3?$AA?2?$AAA?$AAn?$AAk?$AAa?$AA2?$AAP?$AAr?$AAo?$AAj?$AAe?$AAc?$AAt@
  00153	68 00 00 00 00	 push	 OFFSET ??_C@_1BK@FMEHPMFE@?$AAm?$AAs?$AA_?$AAs?$AAi?$AAn?$AAg?$AAl?$AAe?$AAt?$AAo?$AAn@
  00158	e8 00 00 00 00	 call	 __wassert
  0015d	8b 0d 00 00 00
	00		 mov	 ecx, DWORD PTR ?ms_singleton@?$CSingleton@VCAccountConnector@@@@0PAVCAccountConnector@@A ; CSingleton<CAccountConnector>::ms_singleton
  00163	83 c4 0c	 add	 esp, 12			; 0000000cH
$LN46@SetLoginPh:
; File C:\Anka2Project\Anka2Project\Source\Binary\source\UserInterface\PythonNetworkStreamPhaseLogin.cpp

; 91   : 		rkAccountConnector.ClearLoginInfo();

  00166	e8 00 00 00 00	 call	 ?ClearLoginInfo@CAccountConnector@@QAEXXZ ; CAccountConnector::ClearLoginInfo

; 112  : }

  0016b	5f		 pop	 edi
  0016c	5e		 pop	 esi
  0016d	5b		 pop	 ebx
  0016e	8b e5		 mov	 esp, ebp
  00170	5d		 pop	 ebp
  00171	c3		 ret	 0
$LN3@SetLoginPh:

; 92   : 	}
; 93   : 	else
; 94   : 	{
; 95   : 		if (0 != m_dwLoginKey)

  00172	85 d2		 test	 edx, edx
  00174	74 1a		 je	 SHORT $LN7@SetLoginPh
; File C:\Program Files\Microsoft Visual Studio\2022\Community\VC\Tools\MSVC\14.44.35207\include\xstring

; 453  :         return _Myres > _Small_string_capacity;

  00176	83 bf e0 00 00
	00 0f		 cmp	 DWORD PTR [edi+224], 15	; 0000000fH

; 2356 :         return _Mypair._Myval2._Myptr();

  0017d	8d 87 cc 00 00
	00		 lea	 eax, DWORD PTR [edi+204]

; 445  :         if (_Large_mode_engaged()) {

  00183	76 02		 jbe	 SHORT $LN123@SetLoginPh

; 446  :             _Result = _Unfancy(_Bx._Ptr);

  00185	8b 00		 mov	 eax, DWORD PTR [eax]
$LN123@SetLoginPh:
; File C:\Anka2Project\Anka2Project\Source\Binary\source\UserInterface\PythonNetworkStreamPhaseLogin.cpp

; 96   : 			SendLoginPacketNew(m_stID.c_str(), m_stPassword.c_str());

  00187	51		 push	 ecx
  00188	50		 push	 eax
  00189	e8 00 00 00 00	 call	 ?SendLoginPacketNew@CPythonNetworkStream@@QAE_NPBD0@Z ; CPythonNetworkStream::SendLoginPacketNew
  0018e	eb 2b		 jmp	 SHORT $LN8@SetLoginPh
$LN7@SetLoginPh:
; File C:\Program Files\Microsoft Visual Studio\2022\Community\VC\Tools\MSVC\14.44.35207\include\xstring

; 453  :         return _Myres > _Small_string_capacity;

  00190	83 bf f8 00 00
	00 0f		 cmp	 DWORD PTR [edi+248], 15	; 0000000fH

; 2356 :         return _Mypair._Myval2._Myptr();

  00197	8d 87 e4 00 00
	00		 lea	 eax, DWORD PTR [edi+228]

; 445  :         if (_Large_mode_engaged()) {

  0019d	76 02		 jbe	 SHORT $LN133@SetLoginPh

; 446  :             _Result = _Unfancy(_Bx._Ptr);

  0019f	8b 00		 mov	 eax, DWORD PTR [eax]
$LN133@SetLoginPh:

; 453  :         return _Myres > _Small_string_capacity;

  001a1	83 bf e0 00 00
	00 0f		 cmp	 DWORD PTR [edi+224], 15	; 0000000fH

; 2356 :         return _Mypair._Myval2._Myptr();

  001a8	8d 8f cc 00 00
	00		 lea	 ecx, DWORD PTR [edi+204]

; 445  :         if (_Large_mode_engaged()) {

  001ae	76 02		 jbe	 SHORT $LN143@SetLoginPh

; 446  :             _Result = _Unfancy(_Bx._Ptr);

  001b0	8b 09		 mov	 ecx, DWORD PTR [ecx]
$LN143@SetLoginPh:
; File C:\Anka2Project\Anka2Project\Source\Binary\source\UserInterface\PythonNetworkStreamPhaseLogin.cpp

; 98   : 			SendLoginPacket(m_stID.c_str(), m_stPassword.c_str());

  001b2	50		 push	 eax
  001b3	51		 push	 ecx
  001b4	8b cf		 mov	 ecx, edi
  001b6	e8 00 00 00 00	 call	 ?SendLoginPacket@CPythonNetworkStream@@QAE_NPBD0@Z ; CPythonNetworkStream::SendLoginPacket
$LN8@SetLoginPh:

; 99   : 
; 100  : 		ClearLoginInfo();

  001bb	8b cf		 mov	 ecx, edi
  001bd	e8 00 00 00 00	 call	 ?ClearLoginInfo@CPythonNetworkStream@@QAEXXZ ; CPythonNetworkStream::ClearLoginInfo
; File C:\Anka2Project\Anka2Project\Source\Binary\source\eterBase\Singleton.h

; 26   : 		assert(ms_singleton);

  001c2	8b 0d 00 00 00
	00		 mov	 ecx, DWORD PTR ?ms_singleton@?$CSingleton@VCAccountConnector@@@@0PAVCAccountConnector@@A ; CSingleton<CAccountConnector>::ms_singleton
  001c8	85 c9		 test	 ecx, ecx
  001ca	75 1a		 jne	 SHORT $LN49@SetLoginPh
  001cc	6a 1a		 push	 26			; 0000001aH
  001ce	68 00 00 00 00	 push	 OFFSET ??_C@_1IO@CAJLEEOI@?$AAC?$AA?3?$AA?2?$AAA?$AAn?$AAk?$AAa?$AA2?$AAP?$AAr?$AAo?$AAj?$AAe?$AAc?$AAt@
  001d3	68 00 00 00 00	 push	 OFFSET ??_C@_1BK@FMEHPMFE@?$AAm?$AAs?$AA_?$AAs?$AAi?$AAn?$AAg?$AAl?$AAe?$AAt?$AAo?$AAn@
  001d8	e8 00 00 00 00	 call	 __wassert
  001dd	8b 0d 00 00 00
	00		 mov	 ecx, DWORD PTR ?ms_singleton@?$CSingleton@VCAccountConnector@@@@0PAVCAccountConnector@@A ; CSingleton<CAccountConnector>::ms_singleton
  001e3	83 c4 0c	 add	 esp, 12			; 0000000cH
$LN49@SetLoginPh:
; File C:\Anka2Project\Anka2Project\Source\Binary\source\UserInterface\PythonNetworkStreamPhaseLogin.cpp

; 102  : 		rkAccountConnector.ClearLoginInfo();

  001e6	e8 00 00 00 00	 call	 ?ClearLoginInfo@CAccountConnector@@QAEXXZ ; CAccountConnector::ClearLoginInfo

; 104  : 		PyCallClassMemberFunc(m_apoPhaseWnd[PHASE_WINDOW_LOGIN], "OnLoginStart", Py_BuildValue("()"));

  001eb	68 00 00 00 00	 push	 OFFSET ??_C@_02HCKGKOFO@?$CI?$CJ@
  001f0	ff 15 00 00 00
	00		 call	 DWORD PTR __imp__Py_BuildValue
  001f6	83 c4 04	 add	 esp, 4
  001f9	50		 push	 eax
  001fa	68 00 00 00 00	 push	 OFFSET ??_C@_0N@GCHAFKJJ@OnLoginStart@
  001ff	ff b7 88 01 00
	00		 push	 DWORD PTR [edi+392]
  00205	e8 00 00 00 00	 call	 ?PyCallClassMemberFunc@@YA_NPAU_object@@PBD0@Z ; PyCallClassMemberFunc
; File C:\Anka2Project\Anka2Project\Source\Binary\source\eterBase\Singleton.h

; 26   : 		assert(ms_singleton);

  0020a	8b 1d 00 00 00
	00		 mov	 ebx, DWORD PTR ?ms_singleton@?$CSingleton@VCPythonPlayerSettingsModule@@@@0PAVCPythonPlayerSettingsModule@@A ; CSingleton<CPythonPlayerSettingsModule>::ms_singleton
; File C:\Anka2Project\Anka2Project\Source\Binary\source\UserInterface\PythonNetworkStreamPhaseLogin.cpp

; 104  : 		PyCallClassMemberFunc(m_apoPhaseWnd[PHASE_WINDOW_LOGIN], "OnLoginStart", Py_BuildValue("()"));

  00210	83 c4 0c	 add	 esp, 12			; 0000000cH
; File C:\Anka2Project\Anka2Project\Source\Binary\source\eterBase\Singleton.h

; 26   : 		assert(ms_singleton);

  00213	85 db		 test	 ebx, ebx
  00215	75 1a		 jne	 SHORT $LN52@SetLoginPh
  00217	6a 1a		 push	 26			; 0000001aH
  00219	68 00 00 00 00	 push	 OFFSET ??_C@_1IO@CAJLEEOI@?$AAC?$AA?3?$AA?2?$AAA?$AAn?$AAk?$AAa?$AA2?$AAP?$AAr?$AAo?$AAj?$AAe?$AAc?$AAt@
  0021e	68 00 00 00 00	 push	 OFFSET ??_C@_1BK@FMEHPMFE@?$AAm?$AAs?$AA_?$AAs?$AAi?$AAn?$AAg?$AAl?$AAe?$AAt?$AAo?$AAn@
  00223	e8 00 00 00 00	 call	 __wassert
  00228	8b 1d 00 00 00
	00		 mov	 ebx, DWORD PTR ?ms_singleton@?$CSingleton@VCPythonPlayerSettingsModule@@@@0PAVCPythonPlayerSettingsModule@@A ; CSingleton<CPythonPlayerSettingsModule>::ms_singleton
  0022e	83 c4 0c	 add	 esp, 12			; 0000000cH
$LN52@SetLoginPh:
; File C:\Program Files\Microsoft Visual Studio\2022\Community\VC\Tools\MSVC\14.44.35207\include\thread

; 121  :         return _Thr._Id != 0;

  00231	83 7b 14 00	 cmp	 DWORD PTR [ebx+20], 0
; File C:\Anka2Project\Anka2Project\Source\Binary\source\UserInterface\PythonPlayerSettingsModule.h

; 125  : 			if (m_loadThread.joinable())

  00235	74 26		 je	 SHORT $LN63@SetLoginPh
; File C:\Program Files\Microsoft Visual Studio\2022\Community\VC\Tools\MSVC\14.44.35207\include\thread

; 129  :         if (_Thr._Id == _Thrd_id()) {

  00237	8b 73 14	 mov	 esi, DWORD PTR [ebx+20]
  0023a	e8 00 00 00 00	 call	 __Thrd_id
  0023f	3b f0		 cmp	 esi, eax
  00241	74 28		 je	 SHORT $LN154@SetLoginPh

; 131  :         }
; 132  : 
; 133  :         if (_Thrd_join(_Thr, nullptr) != _Thrd_result::_Success) {

  00243	6a 00		 push	 0
  00245	ff 73 14	 push	 DWORD PTR [ebx+20]
  00248	ff 73 10	 push	 DWORD PTR [ebx+16]
  0024b	e8 00 00 00 00	 call	 __Thrd_join
  00250	83 c4 0c	 add	 esp, 12			; 0000000cH
  00253	85 c0		 test	 eax, eax
  00255	75 1b		 jne	 SHORT $LN155@SetLoginPh

; 135  :         }
; 136  : 
; 137  :         _Thr = {};

  00257	89 43 10	 mov	 DWORD PTR [ebx+16], eax
  0025a	89 43 14	 mov	 DWORD PTR [ebx+20], eax
$LN63@SetLoginPh:
; File C:\Anka2Project\Anka2Project\Source\Binary\source\UserInterface\PythonNetworkStreamPhaseLogin.cpp

; 110  : 		__ClearSelectCharacterData();

  0025d	8b cf		 mov	 ecx, edi
  0025f	e8 00 00 00 00	 call	 ?__ClearSelectCharacterData@CPythonNetworkStream@@IAEXXZ ; CPythonNetworkStream::__ClearSelectCharacterData

; 112  : }

  00264	5f		 pop	 edi
  00265	5e		 pop	 esi
  00266	5b		 pop	 ebx
  00267	8b e5		 mov	 esp, ebp
  00269	5d		 pop	 ebp
  0026a	c3		 ret	 0
$LN154@SetLoginPh:
; File C:\Program Files\Microsoft Visual Studio\2022\Community\VC\Tools\MSVC\14.44.35207\include\thread

; 130  :             _Throw_Cpp_error(_RESOURCE_DEADLOCK_WOULD_OCCUR);

  0026b	6a 05		 push	 5
  0026d	e8 00 00 00 00	 call	 ?_Throw_Cpp_error@std@@YAXH@Z ; std::_Throw_Cpp_error
$LN155@SetLoginPh:

; 134  :             _Throw_Cpp_error(_NO_SUCH_PROCESS);

  00272	6a 02		 push	 2
  00274	e8 00 00 00 00	 call	 ?_Throw_Cpp_error@std@@YAXH@Z ; std::_Throw_Cpp_error
$LN152@SetLoginPh:
  00279	cc		 int	 3
?SetLoginPhase@CPythonNetworkStream@@QAEXXZ ENDP	; CPythonNetworkStream::SetLoginPhase
_TEXT	ENDS
; Function compile flags: /Ogtp
; File C:\Anka2Project\Anka2Project\Source\Binary\source\UserInterface\PythonNetworkStreamPhaseLogin.cpp
; File C:\Program Files\Microsoft Visual Studio\2022\Community\VC\Tools\MSVC\14.44.35207\include\__msvc_string_view.hpp
; File C:\Program Files\Microsoft Visual Studio\2022\Community\VC\Tools\MSVC\14.44.35207\include\xstring
; File C:\Anka2Project\Anka2Project\Source\Binary\source\UserInterface\PythonNetworkStreamPhaseLogin.cpp
;	COMDAT ?__RecvLoginSuccessPacket3@CPythonNetworkStream@@IAE_NXZ
_TEXT	SEGMENT
tv319 = -392						; size = 4
tv323 = -388						; size = 4
tv320 = -384						; size = 4
tv324 = -380						; size = 4
tv321 = -376						; size = 4
_this$GSCopy$1$ = -372					; size = 4
_kPacketLoginSuccess$ = -368				; size = 360
__$ArrayPad$ = -4					; size = 4
?__RecvLoginSuccessPacket3@CPythonNetworkStream@@IAE_NXZ PROC ; CPythonNetworkStream::__RecvLoginSuccessPacket3, COMDAT
; _this$ = ecx

; 125  : {

  00000	55		 push	 ebp
  00001	8b ec		 mov	 ebp, esp
  00003	83 e4 f8	 and	 esp, -8			; fffffff8H
  00006	81 ec 8c 01 00
	00		 sub	 esp, 396		; 0000018cH
  0000c	a1 00 00 00 00	 mov	 eax, DWORD PTR ___security_cookie
  00011	33 c4		 xor	 eax, esp
  00013	89 84 24 88 01
	00 00		 mov	 DWORD PTR __$ArrayPad$[esp+396], eax
  0001a	53		 push	 ebx
  0001b	56		 push	 esi
  0001c	57		 push	 edi

; 126  : 	TPacketGCLoginSuccess3 kPacketLoginSuccess;
; 127  : 
; 128  : 	if (!Recv(sizeof(kPacketLoginSuccess), &kPacketLoginSuccess))

  0001d	8d 44 24 28	 lea	 eax, DWORD PTR _kPacketLoginSuccess$[esp+408]
  00021	8b d9		 mov	 ebx, ecx
  00023	50		 push	 eax
  00024	68 68 01 00 00	 push	 360			; 00000168H
  00029	89 5c 24 2c	 mov	 DWORD PTR _this$GSCopy$1$[esp+416], ebx
  0002d	e8 00 00 00 00	 call	 ?Recv@CNetworkStream@@QAE_NHPAX@Z ; CNetworkStream::Recv
  00032	84 c0		 test	 al, al
  00034	75 15		 jne	 SHORT $LN5@RecvLoginS

; 147  : 	}
; 148  : 
; 149  : 	return true;
; 150  : }

  00036	5f		 pop	 edi
  00037	5e		 pop	 esi
  00038	5b		 pop	 ebx
  00039	8b 8c 24 88 01
	00 00		 mov	 ecx, DWORD PTR __$ArrayPad$[esp+396]
  00040	33 cc		 xor	 ecx, esp
  00042	e8 00 00 00 00	 call	 @__security_check_cookie@4
  00047	8b e5		 mov	 esp, ebp
  00049	5d		 pop	 ebp
  0004a	c3		 ret	 0
$LN5@RecvLoginS:

; 131  : 	for (int i = 0; i<PLAYER_PER_ACCOUNT3; ++i)

  0004b	8d 8b ac 03 00
	00		 lea	 ecx, DWORD PTR [ebx+940]
  00051	89 4c 24 20	 mov	 DWORD PTR tv321[esp+408], ecx
  00055	8d bb a4 01 00
	00		 lea	 edi, DWORD PTR [ebx+420]
  0005b	8d 8b 98 03 00
	00		 lea	 ecx, DWORD PTR [ebx+920]
  00061	89 7c 24 10	 mov	 DWORD PTR tv319[esp+408], edi
  00065	8d 94 24 61 01
	00 00		 lea	 edx, DWORD PTR _kPacketLoginSuccess$[esp+721]
  0006c	89 4c 24 18	 mov	 DWORD PTR tv320[esp+408], ecx
  00070	8d 44 24 29	 lea	 eax, DWORD PTR _kPacketLoginSuccess$[esp+409]
  00074	89 54 24 1c	 mov	 DWORD PTR tv324[esp+408], edx
  00078	89 44 24 14	 mov	 DWORD PTR tv323[esp+408], eax
  0007c	33 db		 xor	 ebx, ebx
  0007e	66 90		 npad	 2
$LL4@RecvLoginS:

; 132  : 	{
; 133  : 		m_akSimplePlayerInfo[i]=kPacketLoginSuccess.akSimplePlayerInformation[i];

  00080	8b f0		 mov	 esi, eax
  00082	b9 19 00 00 00	 mov	 ecx, 25			; 00000019H

; 134  : 		m_adwGuildID[i]=kPacketLoginSuccess.guild_id[i];

  00087	8b 84 9c 55 01
	00 00		 mov	 eax, DWORD PTR _kPacketLoginSuccess$[esp+ebx*4+709]
  0008e	f3 a5		 rep movsd
  00090	8b 7c 24 18	 mov	 edi, DWORD PTR tv320[esp+408]
  00094	89 07		 mov	 DWORD PTR [edi], eax
; File C:\Program Files\Microsoft Visual Studio\2022\Community\VC\Tools\MSVC\14.44.35207\include\__msvc_string_view.hpp

; 456  :             return __builtin_strlen(_First);

  00096	8b c2		 mov	 eax, edx
  00098	8d 70 01	 lea	 esi, DWORD PTR [eax+1]
  0009b	0f 1f 44 00 00	 npad	 5
$LL20@RecvLoginS:
  000a0	8a 08		 mov	 cl, BYTE PTR [eax]
  000a2	40		 inc	 eax
  000a3	84 c9		 test	 cl, cl
  000a5	75 f9		 jne	 SHORT $LL20@RecvLoginS
  000a7	2b c6		 sub	 eax, esi
; File C:\Program Files\Microsoft Visual Studio\2022\Community\VC\Tools\MSVC\14.44.35207\include\xstring

; 1638 :         return assign(_Ptr, _Convert_size<size_type>(_Traits::length(_Ptr)));

  000a9	8b 74 24 20	 mov	 esi, DWORD PTR tv321[esp+408]
  000ad	50		 push	 eax
  000ae	52		 push	 edx
  000af	8b ce		 mov	 ecx, esi
  000b1	e8 00 00 00 00	 call	 ?assign@?$basic_string@DU?$char_traits@D@std@@V?$allocator@D@2@@std@@QAEAAV12@QBDI@Z ; std::basic_string<char,std::char_traits<char>,std::allocator<char> >::assign
; File C:\Anka2Project\Anka2Project\Source\Binary\source\UserInterface\PythonNetworkStreamPhaseLogin.cpp

; 131  : 	for (int i = 0; i<PLAYER_PER_ACCOUNT3; ++i)

  000b6	8b 44 24 14	 mov	 eax, DWORD PTR tv323[esp+408]
  000ba	83 c7 04	 add	 edi, 4
  000bd	8b 54 24 1c	 mov	 edx, DWORD PTR tv324[esp+408]
  000c1	43		 inc	 ebx
  000c2	83 44 24 10 64	 add	 DWORD PTR tv319[esp+408], 100 ; 00000064H
  000c7	83 c0 64	 add	 eax, 100		; 00000064H
  000ca	83 c2 0d	 add	 edx, 13			; 0000000dH
  000cd	89 7c 24 18	 mov	 DWORD PTR tv320[esp+408], edi
  000d1	8b 7c 24 10	 mov	 edi, DWORD PTR tv319[esp+408]
  000d5	83 c6 18	 add	 esi, 24			; 00000018H
  000d8	89 44 24 14	 mov	 DWORD PTR tv323[esp+408], eax
  000dc	89 54 24 1c	 mov	 DWORD PTR tv324[esp+408], edx
  000e0	89 74 24 20	 mov	 DWORD PTR tv321[esp+408], esi
  000e4	83 fb 03	 cmp	 ebx, 3
  000e7	7c 97		 jl	 SHORT $LL4@RecvLoginS

; 135  : 		m_astrGuildName[i]=kPacketLoginSuccess.guild_name[i];
; 136  : 	}
; 137  : 
; 138  : 	m_kMarkAuth.m_dwHandle=kPacketLoginSuccess.handle;

  000e9	8b 5c 24 24	 mov	 ebx, DWORD PTR _this$GSCopy$1$[esp+408]

; 139  : 	m_kMarkAuth.m_dwRandomKey=kPacketLoginSuccess.random_key;	
; 140  : 
; 141  : 	if (__DirectEnterMode_IsSet())

  000ed	8b cb		 mov	 ecx, ebx
  000ef	8b 84 24 88 01
	00 00		 mov	 eax, DWORD PTR _kPacketLoginSuccess$[esp+760]
  000f6	89 83 24 7a 00
	00		 mov	 DWORD PTR [ebx+31268], eax
  000fc	8b 84 24 8c 01
	00 00		 mov	 eax, DWORD PTR _kPacketLoginSuccess$[esp+764]
  00103	89 83 28 7a 00
	00		 mov	 DWORD PTR [ebx+31272], eax
  00109	e8 00 00 00 00	 call	 ?__DirectEnterMode_IsSet@CPythonNetworkStream@@AAE_NXZ ; CPythonNetworkStream::__DirectEnterMode_IsSet
  0010e	84 c0		 test	 al, al
  00110	75 1f		 jne	 SHORT $LN7@RecvLoginS

; 142  : 	{
; 143  : 	}
; 144  : 	else
; 145  : 	{
; 146  : 		PyCallClassMemberFunc(m_apoPhaseWnd[PHASE_WINDOW_SELECT], "Refresh", Py_BuildValue("()"));		

  00112	68 00 00 00 00	 push	 OFFSET ??_C@_02HCKGKOFO@?$CI?$CJ@
  00117	ff 15 00 00 00
	00		 call	 DWORD PTR __imp__Py_BuildValue
  0011d	50		 push	 eax
  0011e	68 00 00 00 00	 push	 OFFSET ??_C@_07POIENIBA@Refresh@
  00123	ff b3 8c 01 00
	00		 push	 DWORD PTR [ebx+396]
  00129	e8 00 00 00 00	 call	 ?PyCallClassMemberFunc@@YA_NPAU_object@@PBD0@Z ; PyCallClassMemberFunc
  0012e	83 c4 10	 add	 esp, 16			; 00000010H
$LN7@RecvLoginS:

; 147  : 	}
; 148  : 
; 149  : 	return true;
; 150  : }

  00131	8b 8c 24 94 01
	00 00		 mov	 ecx, DWORD PTR __$ArrayPad$[esp+408]
  00138	b0 01		 mov	 al, 1
  0013a	5f		 pop	 edi
  0013b	5e		 pop	 esi
  0013c	5b		 pop	 ebx
  0013d	33 cc		 xor	 ecx, esp
  0013f	e8 00 00 00 00	 call	 @__security_check_cookie@4
  00144	8b e5		 mov	 esp, ebp
  00146	5d		 pop	 ebp
  00147	c3		 ret	 0
?__RecvLoginSuccessPacket3@CPythonNetworkStream@@IAE_NXZ ENDP ; CPythonNetworkStream::__RecvLoginSuccessPacket3
_TEXT	ENDS
; Function compile flags: /Ogtp
; File C:\Anka2Project\Anka2Project\Source\Binary\source\UserInterface\PythonNetworkStreamPhaseLogin.cpp
; File C:\Program Files\Microsoft Visual Studio\2022\Community\VC\Tools\MSVC\14.44.35207\include\__msvc_string_view.hpp
; File C:\Program Files\Microsoft Visual Studio\2022\Community\VC\Tools\MSVC\14.44.35207\include\xstring
; File C:\Anka2Project\Anka2Project\Source\Binary\source\UserInterface\PythonNetworkStreamPhaseLogin.cpp
;	COMDAT ?__RecvLoginSuccessPacket4@CPythonNetworkStream@@IAE_NXZ
_TEXT	SEGMENT
_this$GSCopy$1$ = -624					; size = 4
tv321 = -620						; size = 4
tv324 = -616						; size = 4
tv320 = -612						; size = 4
tv323 = -608						; size = 4
tv319 = -604						; size = 4
_kPacketLoginSuccess$ = -600				; size = 594
__$ArrayPad$ = -4					; size = 4
?__RecvLoginSuccessPacket4@CPythonNetworkStream@@IAE_NXZ PROC ; CPythonNetworkStream::__RecvLoginSuccessPacket4, COMDAT
; _this$ = ecx

; 153  : {

  00000	55		 push	 ebp
  00001	8b ec		 mov	 ebp, esp
  00003	81 ec 70 02 00
	00		 sub	 esp, 624		; 00000270H
  00009	a1 00 00 00 00	 mov	 eax, DWORD PTR ___security_cookie
  0000e	33 c5		 xor	 eax, ebp
  00010	89 45 fc	 mov	 DWORD PTR __$ArrayPad$[ebp], eax
  00013	53		 push	 ebx

; 154  : 	TPacketGCLoginSuccess4 kPacketLoginSuccess;
; 155  : 
; 156  : 	if (!Recv(sizeof(kPacketLoginSuccess), &kPacketLoginSuccess))

  00014	8d 85 a8 fd ff
	ff		 lea	 eax, DWORD PTR _kPacketLoginSuccess$[ebp]
  0001a	8b d9		 mov	 ebx, ecx
  0001c	50		 push	 eax
  0001d	68 52 02 00 00	 push	 594			; 00000252H
  00022	89 9d 90 fd ff
	ff		 mov	 DWORD PTR _this$GSCopy$1$[ebp], ebx
  00028	e8 00 00 00 00	 call	 ?Recv@CNetworkStream@@QAE_NHPAX@Z ; CNetworkStream::Recv
  0002d	84 c0		 test	 al, al
  0002f	75 0f		 jne	 SHORT $LN5@RecvLoginS
  00031	5b		 pop	 ebx

; 175  : 	}
; 176  : 
; 177  : 	return true;
; 178  : }

  00032	8b 4d fc	 mov	 ecx, DWORD PTR __$ArrayPad$[ebp]
  00035	33 cd		 xor	 ecx, ebp
  00037	e8 00 00 00 00	 call	 @__security_check_cookie@4
  0003c	8b e5		 mov	 esp, ebp
  0003e	5d		 pop	 ebp
  0003f	c3		 ret	 0
$LN5@RecvLoginS:

; 159  : 	for (int i = 0; i<PLAYER_PER_ACCOUNT4; ++i)

  00040	8d 8b ac 03 00
	00		 lea	 ecx, DWORD PTR [ebx+940]
  00046	56		 push	 esi
  00047	57		 push	 edi
  00048	89 8d 94 fd ff
	ff		 mov	 DWORD PTR tv321[ebp], ecx
  0004e	8d bb a4 01 00
	00		 lea	 edi, DWORD PTR [ebx+420]
  00054	8d 8b 98 03 00
	00		 lea	 ecx, DWORD PTR [ebx+920]
  0005a	89 bd a4 fd ff
	ff		 mov	 DWORD PTR tv319[ebp], edi
  00060	8d 55 b1	 lea	 edx, DWORD PTR _kPacketLoginSuccess$[ebp+521]
  00063	89 8d 9c fd ff
	ff		 mov	 DWORD PTR tv320[ebp], ecx
  00069	8d 85 a9 fd ff
	ff		 lea	 eax, DWORD PTR _kPacketLoginSuccess$[ebp+1]
  0006f	89 95 98 fd ff
	ff		 mov	 DWORD PTR tv324[ebp], edx
  00075	89 85 a0 fd ff
	ff		 mov	 DWORD PTR tv323[ebp], eax
  0007b	33 db		 xor	 ebx, ebx
  0007d	0f 1f 00	 npad	 3
$LL4@RecvLoginS:

; 160  : 	{
; 161  : 		m_akSimplePlayerInfo[i]=kPacketLoginSuccess.akSimplePlayerInformation[i];

  00080	8b f0		 mov	 esi, eax
  00082	b9 19 00 00 00	 mov	 ecx, 25			; 00000019H

; 162  : 		m_adwGuildID[i]=kPacketLoginSuccess.guild_id[i];

  00087	8b 44 9d 9d	 mov	 eax, DWORD PTR _kPacketLoginSuccess$[ebp+ebx*4+501]
  0008b	f3 a5		 rep movsd
  0008d	8b bd 9c fd ff
	ff		 mov	 edi, DWORD PTR tv320[ebp]
  00093	89 07		 mov	 DWORD PTR [edi], eax
; File C:\Program Files\Microsoft Visual Studio\2022\Community\VC\Tools\MSVC\14.44.35207\include\__msvc_string_view.hpp

; 456  :             return __builtin_strlen(_First);

  00095	8b c2		 mov	 eax, edx
  00097	8d 70 01	 lea	 esi, DWORD PTR [eax+1]
  0009a	66 0f 1f 44 00
	00		 npad	 6
$LL20@RecvLoginS:
  000a0	8a 08		 mov	 cl, BYTE PTR [eax]
  000a2	40		 inc	 eax
  000a3	84 c9		 test	 cl, cl
  000a5	75 f9		 jne	 SHORT $LL20@RecvLoginS
  000a7	2b c6		 sub	 eax, esi
; File C:\Program Files\Microsoft Visual Studio\2022\Community\VC\Tools\MSVC\14.44.35207\include\xstring

; 1638 :         return assign(_Ptr, _Convert_size<size_type>(_Traits::length(_Ptr)));

  000a9	8b b5 94 fd ff
	ff		 mov	 esi, DWORD PTR tv321[ebp]
  000af	50		 push	 eax
  000b0	52		 push	 edx
  000b1	8b ce		 mov	 ecx, esi
  000b3	e8 00 00 00 00	 call	 ?assign@?$basic_string@DU?$char_traits@D@std@@V?$allocator@D@2@@std@@QAEAAV12@QBDI@Z ; std::basic_string<char,std::char_traits<char>,std::allocator<char> >::assign
; File C:\Anka2Project\Anka2Project\Source\Binary\source\UserInterface\PythonNetworkStreamPhaseLogin.cpp

; 159  : 	for (int i = 0; i<PLAYER_PER_ACCOUNT4; ++i)

  000b8	8b 85 a0 fd ff
	ff		 mov	 eax, DWORD PTR tv323[ebp]
  000be	83 c7 04	 add	 edi, 4
  000c1	8b 95 98 fd ff
	ff		 mov	 edx, DWORD PTR tv324[ebp]
  000c7	43		 inc	 ebx
  000c8	83 85 a4 fd ff
	ff 64		 add	 DWORD PTR tv319[ebp], 100 ; 00000064H
  000cf	83 c0 64	 add	 eax, 100		; 00000064H
  000d2	83 c2 0d	 add	 edx, 13			; 0000000dH
  000d5	89 bd 9c fd ff
	ff		 mov	 DWORD PTR tv320[ebp], edi
  000db	8b bd a4 fd ff
	ff		 mov	 edi, DWORD PTR tv319[ebp]
  000e1	83 c6 18	 add	 esi, 24			; 00000018H
  000e4	89 85 a0 fd ff
	ff		 mov	 DWORD PTR tv323[ebp], eax
  000ea	89 95 98 fd ff
	ff		 mov	 DWORD PTR tv324[ebp], edx
  000f0	89 b5 94 fd ff
	ff		 mov	 DWORD PTR tv321[ebp], esi
  000f6	83 fb 05	 cmp	 ebx, 5
  000f9	7c 85		 jl	 SHORT $LL4@RecvLoginS

; 163  : 		m_astrGuildName[i]=kPacketLoginSuccess.guild_name[i];
; 164  : 	}
; 165  : 
; 166  : 	m_kMarkAuth.m_dwHandle=kPacketLoginSuccess.handle;

  000fb	8b 9d 90 fd ff
	ff		 mov	 ebx, DWORD PTR _this$GSCopy$1$[ebp]

; 167  : 	m_kMarkAuth.m_dwRandomKey=kPacketLoginSuccess.random_key;	
; 168  : 
; 169  : 	if (__DirectEnterMode_IsSet())

  00101	8b cb		 mov	 ecx, ebx
  00103	8b 45 f2	 mov	 eax, DWORD PTR _kPacketLoginSuccess$[ebp+586]
  00106	5f		 pop	 edi
  00107	5e		 pop	 esi
  00108	89 83 24 7a 00
	00		 mov	 DWORD PTR [ebx+31268], eax
  0010e	8b 45 f6	 mov	 eax, DWORD PTR _kPacketLoginSuccess$[ebp+590]
  00111	89 83 28 7a 00
	00		 mov	 DWORD PTR [ebx+31272], eax
  00117	e8 00 00 00 00	 call	 ?__DirectEnterMode_IsSet@CPythonNetworkStream@@AAE_NXZ ; CPythonNetworkStream::__DirectEnterMode_IsSet
  0011c	84 c0		 test	 al, al
  0011e	75 1f		 jne	 SHORT $LN7@RecvLoginS

; 170  : 	{
; 171  : 	}
; 172  : 	else
; 173  : 	{
; 174  : 		PyCallClassMemberFunc(m_apoPhaseWnd[PHASE_WINDOW_SELECT], "Refresh", Py_BuildValue("()"));		

  00120	68 00 00 00 00	 push	 OFFSET ??_C@_02HCKGKOFO@?$CI?$CJ@
  00125	ff 15 00 00 00
	00		 call	 DWORD PTR __imp__Py_BuildValue
  0012b	50		 push	 eax
  0012c	68 00 00 00 00	 push	 OFFSET ??_C@_07POIENIBA@Refresh@
  00131	ff b3 8c 01 00
	00		 push	 DWORD PTR [ebx+396]
  00137	e8 00 00 00 00	 call	 ?PyCallClassMemberFunc@@YA_NPAU_object@@PBD0@Z ; PyCallClassMemberFunc
  0013c	83 c4 10	 add	 esp, 16			; 00000010H
$LN7@RecvLoginS:

; 175  : 	}
; 176  : 
; 177  : 	return true;
; 178  : }

  0013f	8b 4d fc	 mov	 ecx, DWORD PTR __$ArrayPad$[ebp]
  00142	b0 01		 mov	 al, 1
  00144	33 cd		 xor	 ecx, ebp
  00146	5b		 pop	 ebx
  00147	e8 00 00 00 00	 call	 @__security_check_cookie@4
  0014c	8b e5		 mov	 esp, ebp
  0014e	5d		 pop	 ebp
  0014f	c3		 ret	 0
?__RecvLoginSuccessPacket4@CPythonNetworkStream@@IAE_NXZ ENDP ; CPythonNetworkStream::__RecvLoginSuccessPacket4
_TEXT	ENDS
; Function compile flags: /Ogtp
; File C:\Anka2Project\Anka2Project\Source\Binary\source\UserInterface\PythonNetworkStreamPhaseLogin.cpp
;	COMDAT ?__RecvLoginFailurePacket@CPythonNetworkStream@@IAE_NXZ
_TEXT	SEGMENT
_packet_failure$ = -16					; size = 10
__$ArrayPad$ = -4					; size = 4
?__RecvLoginFailurePacket@CPythonNetworkStream@@IAE_NXZ PROC ; CPythonNetworkStream::__RecvLoginFailurePacket, COMDAT
; _this$ = ecx

; 195  : {

  00000	55		 push	 ebp
  00001	8b ec		 mov	 ebp, esp
  00003	83 ec 10	 sub	 esp, 16			; 00000010H
  00006	a1 00 00 00 00	 mov	 eax, DWORD PTR ___security_cookie
  0000b	33 c5		 xor	 eax, ebp
  0000d	89 45 fc	 mov	 DWORD PTR __$ArrayPad$[ebp], eax
  00010	56		 push	 esi

; 196  : 	TPacketGCLoginFailure packet_failure;
; 197  : 	if (!Recv(sizeof(TPacketGCLoginFailure), &packet_failure))

  00011	8d 45 f0	 lea	 eax, DWORD PTR _packet_failure$[ebp]
  00014	8b f1		 mov	 esi, ecx
  00016	50		 push	 eax
  00017	6a 0a		 push	 10			; 0000000aH
  00019	e8 00 00 00 00	 call	 ?Recv@CNetworkStream@@QAE_NHPAX@Z ; CNetworkStream::Recv
  0001e	84 c0		 test	 al, al
  00020	75 0f		 jne	 SHORT $LN2@RecvLoginF
  00022	5e		 pop	 esi

; 201  : #ifdef _DEBUG
; 202  : 	Tracef(" RecvLoginFailurePacket : [%s]\n", packet_failure.szStatus);
; 203  : #endif
; 204  : 	return true;
; 205  : }

  00023	8b 4d fc	 mov	 ecx, DWORD PTR __$ArrayPad$[ebp]
  00026	33 cd		 xor	 ecx, ebp
  00028	e8 00 00 00 00	 call	 @__security_check_cookie@4
  0002d	8b e5		 mov	 esp, ebp
  0002f	5d		 pop	 ebp
  00030	c3		 ret	 0
$LN2@RecvLoginF:

; 198  : 		return false;
; 199  : 
; 200  : 	PyCallClassMemberFunc(m_apoPhaseWnd[PHASE_WINDOW_LOGIN], "OnLoginFailure", Py_BuildValue("(s)", packet_failure.szStatus));

  00031	8d 45 f1	 lea	 eax, DWORD PTR _packet_failure$[ebp+1]
  00034	50		 push	 eax
  00035	68 00 00 00 00	 push	 OFFSET ??_C@_03KJMMOONA@?$CIs?$CJ@
  0003a	ff 15 00 00 00
	00		 call	 DWORD PTR __imp__Py_BuildValue
  00040	50		 push	 eax
  00041	68 00 00 00 00	 push	 OFFSET ??_C@_0P@OOEAIINI@OnLoginFailure@
  00046	ff b6 88 01 00
	00		 push	 DWORD PTR [esi+392]
  0004c	e8 00 00 00 00	 call	 ?PyCallClassMemberFunc@@YA_NPAU_object@@PBD0@Z ; PyCallClassMemberFunc

; 201  : #ifdef _DEBUG
; 202  : 	Tracef(" RecvLoginFailurePacket : [%s]\n", packet_failure.szStatus);
; 203  : #endif
; 204  : 	return true;
; 205  : }

  00051	8b 4d fc	 mov	 ecx, DWORD PTR __$ArrayPad$[ebp]
  00054	83 c4 14	 add	 esp, 20			; 00000014H
  00057	33 cd		 xor	 ecx, ebp
  00059	b0 01		 mov	 al, 1
  0005b	5e		 pop	 esi
  0005c	e8 00 00 00 00	 call	 @__security_check_cookie@4
  00061	8b e5		 mov	 esp, ebp
  00063	5d		 pop	 ebp
  00064	c3		 ret	 0
?__RecvLoginFailurePacket@CPythonNetworkStream@@IAE_NXZ ENDP ; CPythonNetworkStream::__RecvLoginFailurePacket
_TEXT	ENDS
END
