; Listing generated by Microsoft (R) Optimizing Compiler Version 19.44.35219.0 

	TITLE	c:\anka2project\anka2project\source\binary\vs_files\userinterface\release\pythontexttail.obj
	.686P
	.XMM
	include listing.inc
	.model	flat

INCLUDELIB OLDNAMES

PUBLIC	??_C@_1KG@EOMJEEJK@?$AAC?$AA?3?$AA?2?$AAA?$AAn?$AAk?$AAa?$AA2?$AAP?$AAr?$AAo?$AAj?$AAe?$AAc?$AAt@ ; `string'
PUBLIC	??_C@_0FG@PPLFOIJH@TextTail?3?5ChatTail?5?$CFd?0?5ChrTail?5@ ; `string'
PUBLIC	??_C@_1DI@JNPFFBHI@?$AAg?$AAs?$AA_?$AAT?$AAe?$AAx?$AAt?$AAT?$AAa?$AAi?$AAl?$AA_?$AAL?$AAi?$AAv@ ; `string'
PUBLIC	??_C@_0BC@IBMACGLG@?5?$HMcFFFF8C00?$FLL?$FN?$HMr?5@ ; `string'
PUBLIC	??_C@_0O@HLPIIHNN@Tahoma?312?4fnt@		; `string'
PUBLIC	??_C@_0CH@FJLHMJJF@d?3?1ymir?5work?1ui?1game?1emoji?1flag@ ; `string'
PUBLIC	??_C@_0BC@MKHCBNFN@?5?$HMcFF01796F?$FLG?$FN?$HMr?5@ ; `string'
PUBLIC	??_C@_0DM@EALAGA@?5CPythonTextTail?3?3DeleteItemTex@ ; `string'
PUBLIC	??_C@_0DO@PHLLOPOI@CPythonTextTail?3?3DeleteCharacte@ ; `string'
PUBLIC	??_C@_0DH@ONGBNPOP@CPythonTextTail?3?3Initialize?5?9?5C@ ; `string'
PUBLIC	??_R2STextTail@CPythonTextTail@@8		; CPythonTextTail::STextTail::`RTTI Base Class Array'
PUBLIC	??_R2?$CDynamicPool@USTextTail@CPythonTextTail@@@@8 ; CDynamicPool<CPythonTextTail::STextTail>::`RTTI Base Class Array'
PUBLIC	??_R2?$CSingleton@VCPythonTextTail@@@@8		; CSingleton<CPythonTextTail>::`RTTI Base Class Array'
PUBLIC	??_R2CPythonTextTail@@8				; CPythonTextTail::`RTTI Base Class Array'
PUBLIC	??_R1A@?0A@EA@STextTail@CPythonTextTail@@8	; CPythonTextTail::STextTail::`RTTI Base Class Descriptor at (0,-1,0,64)'
PUBLIC	??_R1A@?0A@EA@?$CDynamicPool@USTextTail@CPythonTextTail@@@@8 ; CDynamicPool<CPythonTextTail::STextTail>::`RTTI Base Class Descriptor at (0,-1,0,64)'
PUBLIC	??_R1A@?0A@EA@?$CSingleton@VCPythonTextTail@@@@8 ; CSingleton<CPythonTextTail>::`RTTI Base Class Descriptor at (0,-1,0,64)'
PUBLIC	??_R1A@?0A@EA@CPythonTextTail@@8		; CPythonTextTail::`RTTI Base Class Descriptor at (0,-1,0,64)'
PUBLIC	??_R0?AV?$CDynamicPool@USTextTail@CPythonTextTail@@@@@8 ; CDynamicPool<CPythonTextTail::STextTail> `RTTI Type Descriptor'
PUBLIC	??_R3?$CDynamicPool@USTextTail@CPythonTextTail@@@@8 ; CDynamicPool<CPythonTextTail::STextTail>::`RTTI Class Hierarchy Descriptor'
PUBLIC	??_R0?AUSTextTail@CPythonTextTail@@@8		; CPythonTextTail::STextTail `RTTI Type Descriptor'
PUBLIC	??_R3STextTail@CPythonTextTail@@8		; CPythonTextTail::STextTail::`RTTI Class Hierarchy Descriptor'
PUBLIC	??_R0?AV?$CSingleton@VCPythonTextTail@@@@@8	; CSingleton<CPythonTextTail> `RTTI Type Descriptor'
PUBLIC	??_R3?$CSingleton@VCPythonTextTail@@@@8		; CSingleton<CPythonTextTail>::`RTTI Class Hierarchy Descriptor'
PUBLIC	??_R0?AVCPythonTextTail@@@8			; CPythonTextTail `RTTI Type Descriptor'
PUBLIC	??_R3CPythonTextTail@@8				; CPythonTextTail::`RTTI Class Hierarchy Descriptor'
PUBLIC	??_R4?$CDynamicPool@USTextTail@CPythonTextTail@@@@6B@ ; CDynamicPool<CPythonTextTail::STextTail>::`RTTI Complete Object Locator'
PUBLIC	??_R4STextTail@CPythonTextTail@@6B@		; CPythonTextTail::STextTail::`RTTI Complete Object Locator'
PUBLIC	??_R4?$CSingleton@VCPythonTextTail@@@@6B@	; CSingleton<CPythonTextTail>::`RTTI Complete Object Locator'
PUBLIC	??_R4CPythonTextTail@@6B@			; CPythonTextTail::`RTTI Complete Object Locator'
PUBLIC	??_7?$CDynamicPool@USTextTail@CPythonTextTail@@@@6B@ ; CDynamicPool<CPythonTextTail::STextTail>::`vftable'
PUBLIC	??_7?$CSingleton@VCPythonTextTail@@@@6B@	; CSingleton<CPythonTextTail>::`vftable'
PUBLIC	??_7CPythonTextTail@@6B@			; CPythonTextTail::`vftable'
PUBLIC	??_C@_01NBENCBCI@?$CK@				; `string'
PUBLIC	?bPKTitleEnable@@3HA				; bPKTitleEnable
PUBLIC	?gs_TextTail_LivingTime@@3JA			; gs_TextTail_LivingTime
PUBLIC	?ms_pFont@@3PAVCGraphicText@@A			; ms_pFont
PUBLIC	??_7STextTail@CPythonTextTail@@6B@		; CPythonTextTail::STextTail::`vftable'
EXTRN	?Delete@CGraphicTextInstance@@SAXPAV1@@Z:PROC	; CGraphicTextInstance::Delete
EXTRN	?Delete@CGraphicMarkInstance@@SAXPAV1@@Z:PROC	; CGraphicMarkInstance::Delete
EXTRN	?SetIndex@CGraphicMarkInstance@@QAEXI@Z:PROC	; CGraphicMarkInstance::SetIndex
EXTRN	?New@CGraphicTextInstance@@SAPAV1@XZ:PROC	; CGraphicTextInstance::New
EXTRN	?IsFileExist@CResourceManager@@QAE_NPBD@Z:PROC	; CResourceManager::IsFileExist
EXTRN	?SetVerticalAlign@CGraphicTextInstance@@QAEXH@Z:PROC ; CGraphicTextInstance::SetVerticalAlign
EXTRN	?New@CGraphicMarkInstance@@SAPAV1@XZ:PROC	; CGraphicMarkInstance::New
EXTRN	?SetImageFileName@CGraphicMarkInstance@@QAEXPBD@Z:PROC ; CGraphicMarkInstance::SetImageFileName
EXTRN	?Load@CGraphicMarkInstance@@QAEXXZ:PROC		; CGraphicMarkInstance::Load
EXTRN	?SetOutline@CGraphicTextInstance@@QAEX_N@Z:PROC	; CGraphicTextInstance::SetOutline
EXTRN	?RenderBox2d@CScreen@@QAEXMMMMM@Z:PROC		; CScreen::RenderBox2d
EXTRN	?RenderBar2d@CScreen@@QAEXMMMMM@Z:PROC		; CScreen::RenderBar2d
EXTRN	?GetOrthoDepth@CPythonGraphic@@QAEMXZ:PROC	; CPythonGraphic::GetOrthoDepth
EXTRN	?GetWidth@CGraphicMarkInstance@@QAEHXZ:PROC	; CGraphicMarkInstance::GetWidth
EXTRN	?SetPosition@CGraphicMarkInstance@@QAEXMM@Z:PROC ; CGraphicMarkInstance::SetPosition
EXTRN	?Render@CGraphicMarkInstance@@QAEXXZ:PROC	; CGraphicMarkInstance::Render
EXTRN	?Identity@CScreen@@SAXXZ:PROC			; CScreen::Identity
?ms_pFont@@3PAVCGraphicText@@A DD 01H DUP (?)		; ms_pFont
_BSS	ENDS
;	COMDAT ??_7STextTail@CPythonTextTail@@6B@
CONST	SEGMENT
??_7STextTail@CPythonTextTail@@6B@ DD FLAT:??_R4STextTail@CPythonTextTail@@6B@ ; CPythonTextTail::STextTail::`vftable'
	DD	FLAT:??_ESTextTail@CPythonTextTail@@UAEPAXI@Z
CONST	ENDS
;	COMDAT ??_C@_01NBENCBCI@?$CK@
CONST	SEGMENT
??_C@_01NBENCBCI@?$CK@ DB '*', 00H			; `string'
CONST	ENDS
;	COMDAT ??_7CPythonTextTail@@6B@
CONST	SEGMENT
??_7CPythonTextTail@@6B@ DD FLAT:??_R4CPythonTextTail@@6B@ ; CPythonTextTail::`vftable'
	DD	FLAT:??_ECPythonTextTail@@UAEPAXI@Z
CONST	ENDS
;	COMDAT ??_7?$CSingleton@VCPythonTextTail@@@@6B@
CONST	SEGMENT
??_7?$CSingleton@VCPythonTextTail@@@@6B@ DD FLAT:??_R4?$CSingleton@VCPythonTextTail@@@@6B@ ; CSingleton<CPythonTextTail>::`vftable'
	DD	FLAT:??_E?$CSingleton@VCPythonTextTail@@@@UAEPAXI@Z
CONST	ENDS
;	COMDAT ??_7?$CDynamicPool@USTextTail@CPythonTextTail@@@@6B@
CONST	SEGMENT
??_7?$CDynamicPool@USTextTail@CPythonTextTail@@@@6B@ DD FLAT:??_R4?$CDynamicPool@USTextTail@CPythonTextTail@@@@6B@ ; CDynamicPool<CPythonTextTail::STextTail>::`vftable'
	DD	FLAT:??_E?$CDynamicPool@USTextTail@CPythonTextTail@@@@UAEPAXI@Z
CONST	ENDS
;	COMDAT ??_R4CPythonTextTail@@6B@
rdata$r	SEGMENT
??_R4CPythonTextTail@@6B@ DD 00H			; CPythonTextTail::`RTTI Complete Object Locator'
	DD	00H
	DD	00H
	DD	FLAT:??_R0?AVCPythonTextTail@@@8
	DD	FLAT:??_R3CPythonTextTail@@8
rdata$r	ENDS
;	COMDAT ??_R4?$CSingleton@VCPythonTextTail@@@@6B@
rdata$r	SEGMENT
??_R4?$CSingleton@VCPythonTextTail@@@@6B@ DD 00H	; CSingleton<CPythonTextTail>::`RTTI Complete Object Locator'
	DD	00H
	DD	00H
	DD	FLAT:??_R0?AV?$CSingleton@VCPythonTextTail@@@@@8
	DD	FLAT:??_R3?$CSingleton@VCPythonTextTail@@@@8
rdata$r	ENDS
;	COMDAT ??_R4STextTail@CPythonTextTail@@6B@
rdata$r	SEGMENT
??_R4STextTail@CPythonTextTail@@6B@ DD 00H		; CPythonTextTail::STextTail::`RTTI Complete Object Locator'
	DD	00H
	DD	00H
	DD	FLAT:??_R0?AUSTextTail@CPythonTextTail@@@8
	DD	FLAT:??_R3STextTail@CPythonTextTail@@8
rdata$r	ENDS
;	COMDAT ??_R4?$CDynamicPool@USTextTail@CPythonTextTail@@@@6B@
rdata$r	SEGMENT
??_R4?$CDynamicPool@USTextTail@CPythonTextTail@@@@6B@ DD 00H ; CDynamicPool<CPythonTextTail::STextTail>::`RTTI Complete Object Locator'
	DD	00H
	DD	00H
	DD	FLAT:??_R0?AV?$CDynamicPool@USTextTail@CPythonTextTail@@@@@8
	DD	FLAT:??_R3?$CDynamicPool@USTextTail@CPythonTextTail@@@@8
rdata$r	ENDS
;	COMDAT ??_R3CPythonTextTail@@8
rdata$r	SEGMENT
??_R3CPythonTextTail@@8 DD 00H				; CPythonTextTail::`RTTI Class Hierarchy Descriptor'
	DD	00H
	DD	02H
	DD	FLAT:??_R2CPythonTextTail@@8
rdata$r	ENDS
;	COMDAT ??_R0?AVCPythonTextTail@@@8
data$rs	SEGMENT
??_R0?AVCPythonTextTail@@@8 DD FLAT:??_7type_info@@6B@	; CPythonTextTail `RTTI Type Descriptor'
	DD	00H
	DB	'.?AVCPythonTextTail@@', 00H
data$rs	ENDS
;	COMDAT ??_R3?$CSingleton@VCPythonTextTail@@@@8
rdata$r	SEGMENT
??_R3?$CSingleton@VCPythonTextTail@@@@8 DD 00H		; CSingleton<CPythonTextTail>::`RTTI Class Hierarchy Descriptor'
	DD	00H
	DD	01H
	DD	FLAT:??_R2?$CSingleton@VCPythonTextTail@@@@8
rdata$r	ENDS
;	COMDAT ??_R0?AV?$CSingleton@VCPythonTextTail@@@@@8
data$rs	SEGMENT
??_R0?AV?$CSingleton@VCPythonTextTail@@@@@8 DD FLAT:??_7type_info@@6B@ ; CSingleton<CPythonTextTail> `RTTI Type Descriptor'
	DD	00H
	DB	'.?AV?$CSingleton@VCPythonTextTail@@@@', 00H
data$rs	ENDS
;	COMDAT ??_R3STextTail@CPythonTextTail@@8
rdata$r	SEGMENT
??_R3STextTail@CPythonTextTail@@8 DD 00H		; CPythonTextTail::STextTail::`RTTI Class Hierarchy Descriptor'
	DD	00H
	DD	01H
	DD	FLAT:??_R2STextTail@CPythonTextTail@@8
rdata$r	ENDS
;	COMDAT ??_R0?AUSTextTail@CPythonTextTail@@@8
data$rs	SEGMENT
??_R0?AUSTextTail@CPythonTextTail@@@8 DD FLAT:??_7type_info@@6B@ ; CPythonTextTail::STextTail `RTTI Type Descriptor'
	DD	00H
	DB	'.?AUSTextTail@CPythonTextTail@@', 00H
data$rs	ENDS
;	COMDAT ??_R3?$CDynamicPool@USTextTail@CPythonTextTail@@@@8
rdata$r	SEGMENT
??_R3?$CDynamicPool@USTextTail@CPythonTextTail@@@@8 DD 00H ; CDynamicPool<CPythonTextTail::STextTail>::`RTTI Class Hierarchy Descriptor'
	DD	00H
	DD	01H
	DD	FLAT:??_R2?$CDynamicPool@USTextTail@CPythonTextTail@@@@8
rdata$r	ENDS
;	COMDAT ??_R0?AV?$CDynamicPool@USTextTail@CPythonTextTail@@@@@8
data$rs	SEGMENT
??_R0?AV?$CDynamicPool@USTextTail@CPythonTextTail@@@@@8 DD FLAT:??_7type_info@@6B@ ; CDynamicPool<CPythonTextTail::STextTail> `RTTI Type Descriptor'
	DD	00H
	DB	'.?AV?$CDynamicPool@USTextTail@CPythonTextTail@@@@', 00H
data$rs	ENDS
;	COMDAT ??_R1A@?0A@EA@CPythonTextTail@@8
rdata$r	SEGMENT
??_R1A@?0A@EA@CPythonTextTail@@8 DD FLAT:??_R0?AVCPythonTextTail@@@8 ; CPythonTextTail::`RTTI Base Class Descriptor at (0,-1,0,64)'
	DD	01H
	DD	00H
	DD	0ffffffffH
	DD	00H
	DD	040H
	DD	FLAT:??_R3CPythonTextTail@@8
rdata$r	ENDS
;	COMDAT ??_R1A@?0A@EA@?$CSingleton@VCPythonTextTail@@@@8
rdata$r	SEGMENT
??_R1A@?0A@EA@?$CSingleton@VCPythonTextTail@@@@8 DD FLAT:??_R0?AV?$CSingleton@VCPythonTextTail@@@@@8 ; CSingleton<CPythonTextTail>::`RTTI Base Class Descriptor at (0,-1,0,64)'
	DD	00H
	DD	00H
	DD	0ffffffffH
	DD	00H
	DD	040H
	DD	FLAT:??_R3?$CSingleton@VCPythonTextTail@@@@8
rdata$r	ENDS
;	COMDAT ??_R1A@?0A@EA@?$CDynamicPool@USTextTail@CPythonTextTail@@@@8
rdata$r	SEGMENT
??_R1A@?0A@EA@?$CDynamicPool@USTextTail@CPythonTextTail@@@@8 DD FLAT:??_R0?AV?$CDynamicPool@USTextTail@CPythonTextTail@@@@@8 ; CDynamicPool<CPythonTextTail::STextTail>::`RTTI Base Class Descriptor at (0,-1,0,64)'
	DD	00H
	DD	00H
	DD	0ffffffffH
	DD	00H
	DD	040H
	DD	FLAT:??_R3?$CDynamicPool@USTextTail@CPythonTextTail@@@@8
rdata$r	ENDS
;	COMDAT ??_R1A@?0A@EA@STextTail@CPythonTextTail@@8
rdata$r	SEGMENT
??_R1A@?0A@EA@STextTail@CPythonTextTail@@8 DD FLAT:??_R0?AUSTextTail@CPythonTextTail@@@8 ; CPythonTextTail::STextTail::`RTTI Base Class Descriptor at (0,-1,0,64)'
	DD	00H
	DD	00H
	DD	0ffffffffH
	DD	00H
	DD	040H
	DD	FLAT:??_R3STextTail@CPythonTextTail@@8
rdata$r	ENDS
;	COMDAT ??_R2CPythonTextTail@@8
rdata$r	SEGMENT
??_R2CPythonTextTail@@8 DD FLAT:??_R1A@?0A@EA@CPythonTextTail@@8 ; CPythonTextTail::`RTTI Base Class Array'
	DD	FLAT:??_R1A@?0A@EA@?$CSingleton@VCPythonTextTail@@@@8
rdata$r	ENDS
;	COMDAT ??_R2?$CSingleton@VCPythonTextTail@@@@8
rdata$r	SEGMENT
??_R2?$CSingleton@VCPythonTextTail@@@@8 DD FLAT:??_R1A@?0A@EA@?$CSingleton@VCPythonTextTail@@@@8 ; CSingleton<CPythonTextTail>::`RTTI Base Class Array'
rdata$r	ENDS
;	COMDAT ??_R2?$CDynamicPool@USTextTail@CPythonTextTail@@@@8
rdata$r	SEGMENT
??_R2?$CDynamicPool@USTextTail@CPythonTextTail@@@@8 DD FLAT:??_R1A@?0A@EA@?$CDynamicPool@USTextTail@CPythonTextTail@@@@8 ; CDynamicPool<CPythonTextTail::STextTail>::`RTTI Base Class Array'
rdata$r	ENDS
;	COMDAT ??_R2STextTail@CPythonTextTail@@8
rdata$r	SEGMENT
??_R2STextTail@CPythonTextTail@@8 DD FLAT:??_R1A@?0A@EA@STextTail@CPythonTextTail@@8 ; CPythonTextTail::STextTail::`RTTI Base Class Array'
rdata$r	ENDS
;	COMDAT ??_C@_0DH@ONGBNPOP@CPythonTextTail?3?3Initialize?5?9?5C@
CONST	SEGMENT
??_C@_0DH@ONGBNPOP@CPythonTextTail?3?3Initialize?5?9?5C@ DB 'CPythonTextT'
	DB	'ail::Initialize - CANNOT_FIND_DEFAULT_FONT', 00H ; `string'
CONST	ENDS
;	COMDAT ??_C@_0DO@PHLLOPOI@CPythonTextTail?3?3DeleteCharacte@
CONST	SEGMENT
??_C@_0DO@PHLLOPOI@CPythonTextTail?3?3DeleteCharacte@ DB 'CPythonTextTail'
	DB	'::DeleteCharacterTextTail - Find VID[%d] Error', 00H ; `string'
CONST	ENDS
;	COMDAT ??_C@_0DM@EALAGA@?5CPythonTextTail?3?3DeleteItemTex@
CONST	SEGMENT
??_C@_0DM@EALAGA@?5CPythonTextTail?3?3DeleteItemTex@ DB ' CPythonTextTail'
	DB	'::DeleteItemTextTail - None Item Text Tail', 0aH, 00H ; `string'
CONST	ENDS
;	COMDAT ??_C@_0BC@MKHCBNFN@?5?$HMcFF01796F?$FLG?$FN?$HMr?5@
CONST	SEGMENT
??_C@_0BC@MKHCBNFN@?5?$HMcFF01796F?$FLG?$FN?$HMr?5@ DB ' |cFF01796F[G]|r '
	DB	00H						; `string'
CONST	ENDS
;	COMDAT ??_C@_0CH@FJLHMJJF@d?3?1ymir?5work?1ui?1game?1emoji?1flag@
CONST	SEGMENT
??_C@_0CH@FJLHMJJF@d?3?1ymir?5work?1ui?1game?1emoji?1flag@ DB 'd:/ymir wo'
	DB	'rk/ui/game/emoji/flag/%s.tga', 00H		; `string'
CONST	ENDS
;	COMDAT ??_C@_0O@HLPIIHNN@Tahoma?312?4fnt@
CONST	SEGMENT
??_C@_0O@HLPIIHNN@Tahoma?312?4fnt@ DB 'Tahoma:12.fnt', 00H ; `string'
CONST	ENDS
;	COMDAT ??_C@_0BC@IBMACGLG@?5?$HMcFFFF8C00?$FLL?$FN?$HMr?5@
CONST	SEGMENT
??_C@_0BC@IBMACGLG@?5?$HMcFFFF8C00?$FLL?$FN?$HMr?5@ DB ' |cFFFF8C00[L]|r '
	DB	00H						; `string'
CONST	ENDS
;	COMDAT ??_C@_1DI@JNPFFBHI@?$AAg?$AAs?$AA_?$AAT?$AAe?$AAx?$AAt?$AAT?$AAa?$AAi?$AAl?$AA_?$AAL?$AAi?$AAv@
CONST	SEGMENT
??_C@_1DI@JNPFFBHI@?$AAg?$AAs?$AA_?$AAT?$AAe?$AAx?$AAt?$AAT?$AAa?$AAi?$AAl?$AA_?$AAL?$AAi?$AAv@ DB 'g'
	DB	00H, 's', 00H, '_', 00H, 'T', 00H, 'e', 00H, 'x', 00H, 't', 00H
	DB	'T', 00H, 'a', 00H, 'i', 00H, 'l', 00H, '_', 00H, 'L', 00H, 'i'
	DB	00H, 'v', 00H, 'i', 00H, 'n', 00H, 'g', 00H, 'T', 00H, 'i', 00H
	DB	'm', 00H, 'e', 00H, '>', 00H, '1', 00H, '0', 00H, '0', 00H, '0'
	DB	00H, 00H, 00H				; `string'
CONST	ENDS
;	COMDAT ??_C@_0FG@PPLFOIJH@TextTail?3?5ChatTail?5?$CFd?0?5ChrTail?5@
CONST	SEGMENT
??_C@_0FG@PPLFOIJH@TextTail?3?5ChatTail?5?$CFd?0?5ChrTail?5@ DB 'TextTail'
	DB	': ChatTail %d, ChrTail (Map %d, List %d), ItemTail (Map %d, L'
	DB	'ist %d), Pool %d', 00H			; `string'
CONST	ENDS
;	COMDAT ??_C@_1KG@EOMJEEJK@?$AAC?$AA?3?$AA?2?$AAA?$AAn?$AAk?$AAa?$AA2?$AAP?$AAr?$AAo?$AAj?$AAe?$AAc?$AAt@
CONST	SEGMENT
??_C@_1KG@EOMJEEJK@?$AAC?$AA?3?$AA?2?$AAA?$AAn?$AAk?$AAa?$AA2?$AAP?$AAr?$AAo?$AAj?$AAe?$AAc?$AAt@ DB 'C'
	DB	00H, ':', 00H, '\', 00H, 'A', 00H, 'n', 00H, 'k', 00H, 'a', 00H
	DB	'2', 00H, 'P', 00H, 'r', 00H, 'o', 00H, 'j', 00H, 'e', 00H, 'c'
	DB	00H, 't', 00H, '\', 00H, 'A', 00H, 'n', 00H, 'k', 00H, 'a', 00H
	DB	'2', 00H, 'P', 00H, 'r', 00H, 'o', 00H, 'j', 00H, 'e', 00H, 'c'
	DB	00H, 't', 00H, '\', 00H, 'S', 00H, 'o', 00H, 'u', 00H, 'r', 00H
	DB	'c', 00H, 'e', 00H, '\', 00H, 'B', 00H, 'i', 00H, 'n', 00H, 'a'
	DB	00H, 'r', 00H, 'y', 00H, '\', 00H, 's', 00H, 'o', 00H, 'u', 00H
	DB	'r', 00H, 'c', 00H, 'e', 00H, '\', 00H, 'U', 00H, 's', 00H, 'e'
	DB	00H, 'r', 00H, 'I', 00H, 'n', 00H, 't', 00H, 'e', 00H, 'r', 00H
	DB	'f', 00H, 'a', 00H, 'c', 00H, 'e', 00H, '\', 00H, 'P', 00H, 'y'
	DB	00H, 't', 00H, 'h', 00H, 'o', 00H, 'n', 00H, 'T', 00H, 'e', 00H
	DB	'x', 00H, 't', 00H, 'T', 00H, 'a', 00H, 'i', 00H, 'l', 00H, '.'
	DB	00H, 'c', 00H, 'p', 00H, 'p', 00H, 00H, 00H	; `string'
?bPKTitleEnable@@3HA DD 01H				; bPKTitleEnable
?gs_TextTail_LivingTime@@3JA DD 01388H			; gs_TextTail_LivingTime
PUBLIC	?D3DXVec2Length@@YAMPBUD3DXVECTOR2@@@Z		; D3DXVec2Length
PUBLIC	??$construct_at@PAUSTextTail@CPythonTextTail@@PAU12@@std@@YAPAPAUSTextTail@CPythonTextTail@@QAPAU12@$$QAPAU12@@Z ; std::construct_at<CPythonTextTail::STextTail *,CPythonTextTail::STextTail *>
PUBLIC	?_Get_first@?$_Compressed_pair@V?$allocator@PAUSTextTail@CPythonTextTail@@@std@@V?$_Vector_val@U?$_Simple_types@PAUSTextTail@CPythonTextTail@@@std@@@2@$00@std@@QBEABV?$allocator@PAUSTextTail@CPythonTextTail@@@2@XZ ; std::_Compressed_pair<std::allocator<CPythonTextTail::STextTail *>,std::_Vector_val<std::_Simple_types<CPythonTextTail::STextTail *> >,1>::_Get_first
PUBLIC	??$construct@PAUSTextTail@CPythonTextTail@@PAU12@@?$_Default_allocator_traits@V?$allocator@PAUSTextTail@CPythonTextTail@@@std@@@std@@SAXAAV?$allocator@PAUSTextTail@CPythonTextTail@@@1@QAPAUSTextTail@CPythonTextTail@@$$QAPAU34@@Z ; std::_Default_allocator_traits<std::allocator<CPythonTextTail::STextTail *> >::construct<CPythonTextTail::STextTail *,CPythonTextTail::STextTail *>
PUBLIC	??$forward@PAUSTextTail@CPythonTextTail@@@std@@YA$$QAPAUSTextTail@CPythonTextTail@@AAPAU12@@Z ; std::forward<CPythonTextTail::STextTail *>
PUBLIC	??$_Copy_memmove_tail@PAPAUSTextTail@CPythonTextTail@@@std@@YAPAPAUSTextTail@CPythonTextTail@@QBDQAPAU12@II@Z ; std::_Copy_memmove_tail<CPythonTextTail::STextTail * *>
PUBLIC	??$move@AAPAPAUSTextTail@CPythonTextTail@@@std@@YA$$QAPAPAUSTextTail@CPythonTextTail@@AAPAPAU12@@Z ; std::move<CPythonTextTail::STextTail * * &>
PUBLIC	??$to_address@PAUSTextTail@CPythonTextTail@@@std@@YAPAPAUSTextTail@CPythonTextTail@@QAPAU12@@Z ; std::to_address<CPythonTextTail::STextTail *>
PUBLIC	?allocate@?$allocator@PAUSTextTail@CPythonTextTail@@@std@@QAEPAPAUSTextTail@CPythonTextTail@@I@Z ; std::allocator<CPythonTextTail::STextTail *>::allocate
PUBLIC	?_Get_first@?$_Compressed_pair@V?$allocator@U?$_Tree_node@U?$pair@$$CBKPAUSTextTail@CPythonTextTail@@@std@@PAX@std@@@std@@V?$_Tree_val@U?$_Tree_simple_types@U?$pair@$$CBKPAUSTextTail@CPythonTextTail@@@std@@@std@@@2@$00@std@@QBEABV?$allocator@U?$_Tree_node@U?$pair@$$CBKPAUSTextTail@CPythonTextTail@@@std@@PAX@std@@@2@XZ ; std::_Compressed_pair<std::allocator<std::_Tree_node<std::pair<unsigned long const ,CPythonTextTail::STextTail *>,void *> >,std::_Tree_val<std::_Tree_simple_types<std::pair<unsigned long const ,CPythonTextTail::STextTail *> > >,1>::_Get_first
PUBLIC	?max_size@?$_Default_allocator_traits@V?$allocator@PAUSTextTail@CPythonTextTail@@@std@@@std@@SAIABV?$allocator@PAUSTextTail@CPythonTextTail@@@2@@Z ; std::_Default_allocator_traits<std::allocator<CPythonTextTail::STextTail *> >::max_size
PUBLIC	?capacity@?$vector@PAUSTextTail@CPythonTextTail@@V?$allocator@PAUSTextTail@CPythonTextTail@@@std@@@std@@QBEIXZ ; std::vector<CPythonTextTail::STextTail *,std::allocator<CPythonTextTail::STextTail *> >::capacity
PUBLIC	?_Getal@?$vector@PAUSTextTail@CPythonTextTail@@V?$allocator@PAUSTextTail@CPythonTextTail@@@std@@@std@@ABEABV?$allocator@PAUSTextTail@CPythonTextTail@@@2@XZ ; std::vector<CPythonTextTail::STextTail *,std::allocator<CPythonTextTail::STextTail *> >::_Getal
PUBLIC	??0?$_Uninitialized_backout_al@V?$allocator@PAUSTextTail@CPythonTextTail@@@std@@@std@@QAE@PAPAUSTextTail@CPythonTextTail@@AAV?$allocator@PAUSTextTail@CPythonTextTail@@@1@@Z ; std::_Uninitialized_backout_al<std::allocator<CPythonTextTail::STextTail *> >::_Uninitialized_backout_al<std::allocator<CPythonTextTail::STextTail *> >
PUBLIC	??1?$_Uninitialized_backout_al@V?$allocator@PAUSTextTail@CPythonTextTail@@@std@@@std@@QAE@XZ ; std::_Uninitialized_backout_al<std::allocator<CPythonTextTail::STextTail *> >::~_Uninitialized_backout_al<std::allocator<CPythonTextTail::STextTail *> >
PUBLIC	?_Release@?$_Uninitialized_backout_al@V?$allocator@PAUSTextTail@CPythonTextTail@@@std@@@std@@QAEPAPAUSTextTail@CPythonTextTail@@XZ ; std::_Uninitialized_backout_al<std::allocator<CPythonTextTail::STextTail *> >::_Release
PUBLIC	??$construct_at@PAU?$_Tree_node@U?$pair@$$CBKPAUSTextTail@CPythonTextTail@@@std@@PAX@std@@ABQAU12@@std@@YAPAPAU?$_Tree_node@U?$pair@$$CBKPAUSTextTail@CPythonTextTail@@@std@@PAX@0@QAPAU10@ABQAU10@@Z ; std::construct_at<std::_Tree_node<std::pair<unsigned long const ,CPythonTextTail::STextTail *>,void *> *,std::_Tree_node<std::pair<unsigned long const ,CPythonTextTail::STextTail *>,void *> * const &>
PUBLIC	??$forward@ABQAU?$_Tree_node@U?$pair@$$CBKPAUSTextTail@CPythonTextTail@@@std@@PAX@std@@@std@@YAABQAU?$_Tree_node@U?$pair@$$CBKPAUSTextTail@CPythonTextTail@@@std@@PAX@0@ABQAU10@@Z ; std::forward<std::_Tree_node<std::pair<unsigned long const ,CPythonTextTail::STextTail *>,void *> * const &>
PUBLIC	??$_Emplace_back@PAUSTextTail@CPythonTextTail@@@?$_Uninitialized_backout_al@V?$allocator@PAUSTextTail@CPythonTextTail@@@std@@@std@@QAEX$$QAPAUSTextTail@CPythonTextTail@@@Z ; std::_Uninitialized_backout_al<std::allocator<CPythonTextTail::STextTail *> >::_Emplace_back<CPythonTextTail::STextTail *>
PUBLIC	??$_To_address@PAPAUSTextTail@CPythonTextTail@@@std@@YA?A_PABQAPAUSTextTail@CPythonTextTail@@@Z ; std::_To_address<CPythonTextTail::STextTail * *>
PUBLIC	??$_Copy_memmove@PAPAUSTextTail@CPythonTextTail@@PAPAU12@@std@@YAPAPAUSTextTail@CPythonTextTail@@PAPAU12@00@Z ; std::_Copy_memmove<CPythonTextTail::STextTail * *,CPythonTextTail::STextTail * *>
PUBLIC	?_Getal@?$_Tree@V?$_Tmap_traits@KPAUSTextTail@CPythonTextTail@@U?$less@K@std@@V?$allocator@U?$pair@$$CBKPAUSTextTail@CPythonTextTail@@@std@@@4@$0A@@std@@@std@@IBEABV?$allocator@U?$_Tree_node@U?$pair@$$CBKPAUSTextTail@CPythonTextTail@@@std@@PAX@std@@@2@XZ ; std::_Tree<std::_Tmap_traits<unsigned long,CPythonTextTail::STextTail *,std::less<unsigned long>,std::allocator<std::pair<unsigned long const ,CPythonTextTail::STextTail *> >,0> >::_Getal
PUBLIC	??0?$allocator@U?$_Tree_node@U?$pair@$$CBKPAUSTextTail@CPythonTextTail@@@std@@PAX@std@@@std@@QAE@XZ ; std::allocator<std::_Tree_node<std::pair<unsigned long const ,CPythonTextTail::STextTail *>,void *> >::allocator<std::_Tree_node<std::pair<unsigned long const ,CPythonTextTail::STextTail *>,void *> >
PUBLIC	?deallocate@?$allocator@U?$_Tree_node@U?$pair@$$CBKPAUSTextTail@CPythonTextTail@@@std@@PAX@std@@@std@@QAEXQAU?$_Tree_node@U?$pair@$$CBKPAUSTextTail@CPythonTextTail@@@std@@PAX@2@I@Z ; std::allocator<std::_Tree_node<std::pair<unsigned long const ,CPythonTextTail::STextTail *>,void *> >::deallocate
PUBLIC	?allocate@?$allocator@U?$_Tree_node@U?$pair@$$CBKPAUSTextTail@CPythonTextTail@@@std@@PAX@std@@@std@@QAEPAU?$_Tree_node@U?$pair@$$CBKPAUSTextTail@CPythonTextTail@@@std@@PAX@2@I@Z ; std::allocator<std::_Tree_node<std::pair<unsigned long const ,CPythonTextTail::STextTail *>,void *> >::allocate
PUBLIC	?max_size@?$_Default_allocator_traits@V?$allocator@U?$_Tree_node@U?$pair@$$CBKPAUSTextTail@CPythonTextTail@@@std@@PAX@std@@@std@@@std@@SAIABV?$allocator@U?$_Tree_node@U?$pair@$$CBKPAUSTextTail@CPythonTextTail@@@std@@PAX@std@@@2@@Z ; std::_Default_allocator_traits<std::allocator<std::_Tree_node<std::pair<unsigned long const ,CPythonTextTail::STextTail *>,void *> > >::max_size
PUBLIC	??0?$_Tree_val@U?$_Tree_simple_types@U?$pair@$$CBKPAUSTextTail@CPythonTextTail@@@std@@@std@@@std@@QAE@XZ ; std::_Tree_val<std::_Tree_simple_types<std::pair<unsigned long const ,CPythonTextTail::STextTail *> > >::_Tree_val<std::_Tree_simple_types<std::pair<unsigned long const ,CPythonTextTail::STextTail *> > >
PUBLIC	?_Get_first@?$_Compressed_pair@U?$less@K@std@@V?$_Compressed_pair@V?$allocator@U?$_Tree_node@U?$pair@$$CBKPAUSTextTail@CPythonTextTail@@@std@@PAX@std@@@std@@V?$_Tree_val@U?$_Tree_simple_types@U?$pair@$$CBKPAUSTextTail@CPythonTextTail@@@std@@@std@@@2@$00@2@$00@std@@QBEABU?$less@K@2@XZ ; std::_Compressed_pair<std::less<unsigned long>,std::_Compressed_pair<std::allocator<std::_Tree_node<std::pair<unsigned long const ,CPythonTextTail::STextTail *>,void *> >,std::_Tree_val<std::_Tree_simple_types<std::pair<unsigned long const ,CPythonTextTail::STextTail *> > >,1>,1>::_Get_first
PUBLIC	?deallocate@?$allocator@U?$_List_node@PAUSTextTail@CPythonTextTail@@PAX@std@@@std@@QAEXQAU?$_List_node@PAUSTextTail@CPythonTextTail@@PAX@2@I@Z ; std::allocator<std::_List_node<CPythonTextTail::STextTail *,void *> >::deallocate
PUBLIC	?_Get_first@?$_Compressed_pair@V?$allocator@U?$_List_node@PAUSTextTail@CPythonTextTail@@PAX@std@@@std@@V?$_List_val@U?$_List_simple_types@PAUSTextTail@CPythonTextTail@@@std@@@2@$00@std@@QBEABV?$allocator@U?$_List_node@PAUSTextTail@CPythonTextTail@@PAX@std@@@2@XZ ; std::_Compressed_pair<std::allocator<std::_List_node<CPythonTextTail::STextTail *,void *> >,std::_List_val<std::_List_simple_types<CPythonTextTail::STextTail *> >,1>::_Get_first
PUBLIC	?max_size@?$vector@PAUSTextTail@CPythonTextTail@@V?$allocator@PAUSTextTail@CPythonTextTail@@@std@@@std@@QBEIXZ ; std::vector<CPythonTextTail::STextTail *,std::allocator<CPythonTextTail::STextTail *> >::max_size
PUBLIC	?_Calculate_growth@?$vector@PAUSTextTail@CPythonTextTail@@V?$allocator@PAUSTextTail@CPythonTextTail@@@std@@@std@@ABEII@Z ; std::vector<CPythonTextTail::STextTail *,std::allocator<CPythonTextTail::STextTail *> >::_Calculate_growth
PUBLIC	?_Change_array@?$vector@PAUSTextTail@CPythonTextTail@@V?$allocator@PAUSTextTail@CPythonTextTail@@@std@@@std@@AAEXQAPAUSTextTail@CPythonTextTail@@II@Z ; std::vector<CPythonTextTail::STextTail *,std::allocator<CPythonTextTail::STextTail *> >::_Change_array
PUBLIC	?_Xlength@?$vector@PAUSTextTail@CPythonTextTail@@V?$allocator@PAUSTextTail@CPythonTextTail@@@std@@@std@@CAXXZ ; std::vector<CPythonTextTail::STextTail *,std::allocator<CPythonTextTail::STextTail *> >::_Xlength
PUBLIC	??1_Reallocation_guard@?$vector@PAUSTextTail@CPythonTextTail@@V?$allocator@PAUSTextTail@CPythonTextTail@@@std@@@std@@QAE@XZ ; std::vector<CPythonTextTail::STextTail *,std::allocator<CPythonTextTail::STextTail *> >::_Reallocation_guard::~_Reallocation_guard
PUBLIC	??0?$_Alloc_construct_ptr@V?$allocator@U?$_Tree_node@U?$pair@$$CBKPAUSTextTail@CPythonTextTail@@@std@@PAX@std@@@std@@@std@@QAE@AAV?$allocator@U?$_Tree_node@U?$pair@$$CBKPAUSTextTail@CPythonTextTail@@@std@@PAX@std@@@1@@Z ; std::_Alloc_construct_ptr<std::allocator<std::_Tree_node<std::pair<unsigned long const ,CPythonTextTail::STextTail *>,void *> > >::_Alloc_construct_ptr<std::allocator<std::_Tree_node<std::pair<unsigned long const ,CPythonTextTail::STextTail *>,void *> > >
PUBLIC	?_Allocate@?$_Alloc_construct_ptr@V?$allocator@U?$_Tree_node@U?$pair@$$CBKPAUSTextTail@CPythonTextTail@@@std@@PAX@std@@@std@@@std@@QAEXXZ ; std::_Alloc_construct_ptr<std::allocator<std::_Tree_node<std::pair<unsigned long const ,CPythonTextTail::STextTail *>,void *> > >::_Allocate
PUBLIC	??$_Construct_in_place@PAU?$_Tree_node@U?$pair@$$CBKPAUSTextTail@CPythonTextTail@@@std@@PAX@std@@ABQAU12@@std@@YAXAAPAU?$_Tree_node@U?$pair@$$CBKPAUSTextTail@CPythonTextTail@@@std@@PAX@0@ABQAU10@@Z ; std::_Construct_in_place<std::_Tree_node<std::pair<unsigned long const ,CPythonTextTail::STextTail *>,void *> *,std::_Tree_node<std::pair<unsigned long const ,CPythonTextTail::STextTail *>,void *> * const &>
PUBLIC	??$construct_at@PAU?$_List_node@PAUSTextTail@CPythonTextTail@@PAX@std@@ABQAU12@@std@@YAPAPAU?$_List_node@PAUSTextTail@CPythonTextTail@@PAX@0@QAPAU10@ABQAU10@@Z ; std::construct_at<std::_List_node<CPythonTextTail::STextTail *,void *> *,std::_List_node<CPythonTextTail::STextTail *,void *> * const &>
PUBLIC	??$forward@ABQAU?$_List_node@PAUSTextTail@CPythonTextTail@@PAX@std@@@std@@YAABQAU?$_List_node@PAUSTextTail@CPythonTextTail@@PAX@0@ABQAU10@@Z ; std::forward<std::_List_node<CPythonTextTail::STextTail *,void *> * const &>
PUBLIC	??$_Uninitialized_move@PAPAUSTextTail@CPythonTextTail@@V?$allocator@PAUSTextTail@CPythonTextTail@@@std@@@std@@YAPAPAUSTextTail@CPythonTextTail@@QAPAU12@0PAPAU12@AAV?$allocator@PAUSTextTail@CPythonTextTail@@@0@@Z ; std::_Uninitialized_move<CPythonTextTail::STextTail * *,std::allocator<CPythonTextTail::STextTail *> >
PUBLIC	??$_Get_unwrapped@ABQAPAUSTextTail@CPythonTextTail@@@std@@YA?A_TABQAPAUSTextTail@CPythonTextTail@@@Z ; std::_Get_unwrapped<CPythonTextTail::STextTail * * const &>
PUBLIC	??$construct@PAUSTextTail@CPythonTextTail@@ABQAU12@@?$_Default_allocator_traits@V?$allocator@PAUSTextTail@CPythonTextTail@@@std@@@std@@SAXAAV?$allocator@PAUSTextTail@CPythonTextTail@@@1@QAPAUSTextTail@CPythonTextTail@@ABQAU34@@Z ; std::_Default_allocator_traits<std::allocator<CPythonTextTail::STextTail *> >::construct<CPythonTextTail::STextTail *,CPythonTextTail::STextTail * const &>
PUBLIC	??$_Allocate_at_least_helper@V?$allocator@PAUSTextTail@CPythonTextTail@@@std@@@std@@YAPAPAUSTextTail@CPythonTextTail@@AAV?$allocator@PAUSTextTail@CPythonTextTail@@@0@AAI@Z ; std::_Allocate_at_least_helper<std::allocator<CPythonTextTail::STextTail *> >
PUBLIC	??$_Construct_in_place@PAUSTextTail@CPythonTextTail@@ABQAU12@@std@@YAXAAPAUSTextTail@CPythonTextTail@@ABQAU12@@Z ; std::_Construct_in_place<CPythonTextTail::STextTail *,CPythonTextTail::STextTail * const &>
PUBLIC	??$construct_at@PAUSTextTail@CPythonTextTail@@ABQAU12@@std@@YAPAPAUSTextTail@CPythonTextTail@@QAPAU12@ABQAU12@@Z ; std::construct_at<CPythonTextTail::STextTail *,CPythonTextTail::STextTail * const &>
PUBLIC	??$destroy_at@U?$pair@$$CBKPAUSTextTail@CPythonTextTail@@@std@@@std@@YAXQAU?$pair@$$CBKPAUSTextTail@CPythonTextTail@@@0@@Z ; std::destroy_at<std::pair<unsigned long const ,CPythonTextTail::STextTail *> >
PUBLIC	??$construct_at@PAU?$_Tree_node@U?$pair@$$CBKPAUSTextTail@CPythonTextTail@@@std@@PAX@std@@AAPAU12@@std@@YAPAPAU?$_Tree_node@U?$pair@$$CBKPAUSTextTail@CPythonTextTail@@@std@@PAX@0@QAPAU10@AAPAU10@@Z ; std::construct_at<std::_Tree_node<std::pair<unsigned long const ,CPythonTextTail::STextTail *>,void *> *,std::_Tree_node<std::pair<unsigned long const ,CPythonTextTail::STextTail *>,void *> * &>
PUBLIC	??$addressof@PAU?$_Tree_node@U?$pair@$$CBKPAUSTextTail@CPythonTextTail@@@std@@PAX@std@@@std@@YAPAPAU?$_Tree_node@U?$pair@$$CBKPAUSTextTail@CPythonTextTail@@@std@@PAX@0@AAPAU10@@Z ; std::addressof<std::_Tree_node<std::pair<unsigned long const ,CPythonTextTail::STextTail *>,void *> *>
PUBLIC	??$construct_at@U?$pair@$$CBKPAUSTextTail@CPythonTextTail@@@std@@U12@@std@@YAPAU?$pair@$$CBKPAUSTextTail@CPythonTextTail@@@0@QAU10@$$QAU10@@Z ; std::construct_at<std::pair<unsigned long const ,CPythonTextTail::STextTail *>,std::pair<unsigned long const ,CPythonTextTail::STextTail *> >
PUBLIC	??0?$allocator@PAUSTextTail@CPythonTextTail@@@std@@QAE@XZ ; std::allocator<CPythonTextTail::STextTail *>::allocator<CPythonTextTail::STextTail *>
PUBLIC	?deallocate@?$allocator@PAUSTextTail@CPythonTextTail@@@std@@QAEXQAPAUSTextTail@CPythonTextTail@@I@Z ; std::allocator<CPythonTextTail::STextTail *>::deallocate
PUBLIC	?_Getal@?$list@PAUSTextTail@CPythonTextTail@@V?$allocator@PAUSTextTail@CPythonTextTail@@@std@@@std@@ABEABV?$allocator@U?$_List_node@PAUSTextTail@CPythonTextTail@@PAX@std@@@2@XZ ; std::list<CPythonTextTail::STextTail *,std::allocator<CPythonTextTail::STextTail *> >::_Getal
PUBLIC	?max_size@?$_Tree@V?$_Tmap_traits@KPAUSTextTail@CPythonTextTail@@U?$less@K@std@@V?$allocator@U?$pair@$$CBKPAUSTextTail@CPythonTextTail@@@std@@@4@$0A@@std@@@std@@QBEIXZ ; std::_Tree<std::_Tmap_traits<unsigned long,CPythonTextTail::STextTail *,std::less<unsigned long>,std::allocator<std::pair<unsigned long const ,CPythonTextTail::STextTail *> >,0> >::max_size
PUBLIC	?_Getcomp@?$_Tree@V?$_Tmap_traits@KPAUSTextTail@CPythonTextTail@@U?$less@K@std@@V?$allocator@U?$pair@$$CBKPAUSTextTail@CPythonTextTail@@@std@@@4@$0A@@std@@@std@@IBEABU?$less@K@2@XZ ; std::_Tree<std::_Tmap_traits<unsigned long,CPythonTextTail::STextTail *,std::less<unsigned long>,std::allocator<std::pair<unsigned long const ,CPythonTextTail::STextTail *> >,0> >::_Getcomp
PUBLIC	?deallocate@?$_Default_allocator_traits@V?$allocator@U?$_Tree_node@U?$pair@$$CBKPAUSTextTail@CPythonTextTail@@@std@@PAX@std@@@std@@@std@@SAXAAV?$allocator@U?$_Tree_node@U?$pair@$$CBKPAUSTextTail@CPythonTextTail@@@std@@PAX@std@@@2@QAU?$_Tree_node@U?$pair@$$CBKPAUSTextTail@CPythonTextTail@@@std@@PAX@2@I@Z ; std::_Default_allocator_traits<std::allocator<std::_Tree_node<std::pair<unsigned long const ,CPythonTextTail::STextTail *>,void *> > >::deallocate
PUBLIC	?_Max@?$_Tree_val@U?$_Tree_simple_types@U?$pair@$$CBKPAUSTextTail@CPythonTextTail@@@std@@@std@@@std@@SAPAU?$_Tree_node@U?$pair@$$CBKPAUSTextTail@CPythonTextTail@@@std@@PAX@2@PAU32@@Z ; std::_Tree_val<std::_Tree_simple_types<std::pair<unsigned long const ,CPythonTextTail::STextTail *> > >::_Max
PUBLIC	?_Min@?$_Tree_val@U?$_Tree_simple_types@U?$pair@$$CBKPAUSTextTail@CPythonTextTail@@@std@@@std@@@std@@SAPAU?$_Tree_node@U?$pair@$$CBKPAUSTextTail@CPythonTextTail@@@std@@PAX@2@PAU32@@Z ; std::_Tree_val<std::_Tree_simple_types<std::pair<unsigned long const ,CPythonTextTail::STextTail *> > >::_Min
PUBLIC	?_Lrotate@?$_Tree_val@U?$_Tree_simple_types@U?$pair@$$CBKPAUSTextTail@CPythonTextTail@@@std@@@std@@@std@@QAEXPAU?$_Tree_node@U?$pair@$$CBKPAUSTextTail@CPythonTextTail@@@std@@PAX@2@@Z ; std::_Tree_val<std::_Tree_simple_types<std::pair<unsigned long const ,CPythonTextTail::STextTail *> > >::_Lrotate
PUBLIC	?_Rrotate@?$_Tree_val@U?$_Tree_simple_types@U?$pair@$$CBKPAUSTextTail@CPythonTextTail@@@std@@@std@@@std@@QAEXPAU?$_Tree_node@U?$pair@$$CBKPAUSTextTail@CPythonTextTail@@@std@@PAX@2@@Z ; std::_Tree_val<std::_Tree_simple_types<std::pair<unsigned long const ,CPythonTextTail::STextTail *> > >::_Rrotate
PUBLIC	?deallocate@?$_Default_allocator_traits@V?$allocator@U?$_List_node@PAUSTextTail@CPythonTextTail@@PAX@std@@@std@@@std@@SAXAAV?$allocator@U?$_List_node@PAUSTextTail@CPythonTextTail@@PAX@std@@@2@QAU?$_List_node@PAUSTextTail@CPythonTextTail@@PAX@2@I@Z ; std::_Default_allocator_traits<std::allocator<std::_List_node<CPythonTextTail::STextTail *,void *> > >::deallocate
PUBLIC	?max_size@?$_Default_allocator_traits@V?$allocator@U?$_List_node@PAUSTextTail@CPythonTextTail@@PAX@std@@@std@@@std@@SAIABV?$allocator@U?$_List_node@PAUSTextTail@CPythonTextTail@@PAX@std@@@2@@Z ; std::_Default_allocator_traits<std::allocator<std::_List_node<CPythonTextTail::STextTail *,void *> > >::max_size
PUBLIC	??D?$_List_unchecked_const_iterator@V?$_List_val@U?$_List_simple_types@PAUSTextTail@CPythonTextTail@@@std@@@std@@U_Iterator_base0@2@@std@@QBEABQAUSTextTail@CPythonTextTail@@XZ ; std::_List_unchecked_const_iterator<std::_List_val<std::_List_simple_types<CPythonTextTail::STextTail *> >,std::_Iterator_base0>::operator*
PUBLIC	??E?$_List_unchecked_const_iterator@V?$_List_val@U?$_List_simple_types@PAUSTextTail@CPythonTextTail@@@std@@@std@@U_Iterator_base0@2@@std@@QAEAAV01@XZ ; std::_List_unchecked_const_iterator<std::_List_val<std::_List_simple_types<CPythonTextTail::STextTail *> >,std::_Iterator_base0>::operator++
PUBLIC	??0?$_Vector_val@U?$_Simple_types@PAUSTextTail@CPythonTextTail@@@std@@@std@@QAE@XZ ; std::_Vector_val<std::_Simple_types<CPythonTextTail::STextTail *> >::_Vector_val<std::_Simple_types<CPythonTextTail::STextTail *> >
PUBLIC	?_Get_first@?$_Compressed_pair@V?$allocator@PAUSTextTail@CPythonTextTail@@@std@@V?$_Vector_val@U?$_Simple_types@PAUSTextTail@CPythonTextTail@@@std@@@2@$00@std@@QAEAAV?$allocator@PAUSTextTail@CPythonTextTail@@@2@XZ ; std::_Compressed_pair<std::allocator<CPythonTextTail::STextTail *>,std::_Vector_val<std::_Simple_types<CPythonTextTail::STextTail *> >,1>::_Get_first
PUBLIC	??0?$_Tree_temp_node_alloc@V?$allocator@U?$_Tree_node@U?$pair@$$CBKPAUSTextTail@CPythonTextTail@@@std@@PAX@std@@@std@@@std@@QAE@AAV?$allocator@U?$_Tree_node@U?$pair@$$CBKPAUSTextTail@CPythonTextTail@@@std@@PAX@std@@@1@@Z ; std::_Tree_temp_node_alloc<std::allocator<std::_Tree_node<std::pair<unsigned long const ,CPythonTextTail::STextTail *>,void *> > >::_Tree_temp_node_alloc<std::allocator<std::_Tree_node<std::pair<unsigned long const ,CPythonTextTail::STextTail *>,void *> > >
PUBLIC	??1?$_Alloc_construct_ptr@V?$allocator@U?$_Tree_node@U?$pair@$$CBKPAUSTextTail@CPythonTextTail@@@std@@PAX@std@@@std@@@std@@QAE@XZ ; std::_Alloc_construct_ptr<std::allocator<std::_Tree_node<std::pair<unsigned long const ,CPythonTextTail::STextTail *>,void *> > >::~_Alloc_construct_ptr<std::allocator<std::_Tree_node<std::pair<unsigned long const ,CPythonTextTail::STextTail *>,void *> > >
PUBLIC	??0?$_Alloc_construct_ptr@V?$allocator@U?$_List_node@PAUSTextTail@CPythonTextTail@@PAX@std@@@std@@@std@@QAE@AAV?$allocator@U?$_List_node@PAUSTextTail@CPythonTextTail@@PAX@std@@@1@@Z ; std::_Alloc_construct_ptr<std::allocator<std::_List_node<CPythonTextTail::STextTail *,void *> > >::_Alloc_construct_ptr<std::allocator<std::_List_node<CPythonTextTail::STextTail *,void *> > >
PUBLIC	?_Allocate@?$_Alloc_construct_ptr@V?$allocator@U?$_List_node@PAUSTextTail@CPythonTextTail@@PAX@std@@@std@@@std@@QAEXXZ ; std::_Alloc_construct_ptr<std::allocator<std::_List_node<CPythonTextTail::STextTail *,void *> > >::_Allocate
PUBLIC	??1?$_Alloc_construct_ptr@V?$allocator@U?$_List_node@PAUSTextTail@CPythonTextTail@@PAX@std@@@std@@@std@@QAE@XZ ; std::_Alloc_construct_ptr<std::allocator<std::_List_node<CPythonTextTail::STextTail *,void *> > >::~_Alloc_construct_ptr<std::allocator<std::_List_node<CPythonTextTail::STextTail *,void *> > >
PUBLIC	??$_Buyheadnode@V?$allocator@U?$_Tree_node@U?$pair@$$CBKPAUSTextTail@CPythonTextTail@@@std@@PAX@std@@@std@@@?$_Tree_node@U?$pair@$$CBKPAUSTextTail@CPythonTextTail@@@std@@PAX@std@@SAPAU01@AAV?$allocator@U?$_Tree_node@U?$pair@$$CBKPAUSTextTail@CPythonTextTail@@@std@@PAX@std@@@1@@Z ; std::_Tree_node<std::pair<unsigned long const ,CPythonTextTail::STextTail *>,void *>::_Buyheadnode<std::allocator<std::_Tree_node<std::pair<unsigned long const ,CPythonTextTail::STextTail *>,void *> > >
PUBLIC	??$_Unfancy_maybe_null@PAUSTextTail@CPythonTextTail@@@std@@YAPAPAUSTextTail@CPythonTextTail@@PAPAU12@@Z ; std::_Unfancy_maybe_null<CPythonTextTail::STextTail *>
PUBLIC	??$_Destroy_range@V?$allocator@PAUSTextTail@CPythonTextTail@@@std@@@std@@YAXPAPAUSTextTail@CPythonTextTail@@QAPAU12@AAV?$allocator@PAUSTextTail@CPythonTextTail@@@0@@Z ; std::_Destroy_range<std::allocator<CPythonTextTail::STextTail *> >
PUBLIC	??$exchange@PAU?$_Tree_node@U?$pair@$$CBKPAUSTextTail@CPythonTextTail@@@std@@PAX@std@@$$T@std@@YAPAU?$_Tree_node@U?$pair@$$CBKPAUSTextTail@CPythonTextTail@@@std@@PAX@0@AAPAU10@$$QA$$T@Z ; std::exchange<std::_Tree_node<std::pair<unsigned long const ,CPythonTextTail::STextTail *>,void *> *,std::nullptr_t>
PUBLIC	??$_Construct_in_place@PAU?$_List_node@PAUSTextTail@CPythonTextTail@@PAX@std@@ABQAU12@@std@@YAXAAPAU?$_List_node@PAUSTextTail@CPythonTextTail@@PAX@0@ABQAU10@@Z ; std::_Construct_in_place<std::_List_node<CPythonTextTail::STextTail *,void *> *,std::_List_node<CPythonTextTail::STextTail *,void *> * const &>
PUBLIC	??$_Destroy_in_place@PAU?$_List_node@PAUSTextTail@CPythonTextTail@@PAX@std@@@std@@YAXAAPAU?$_List_node@PAUSTextTail@CPythonTextTail@@PAX@0@@Z ; std::_Destroy_in_place<std::_List_node<CPythonTextTail::STextTail *,void *> *>
PUBLIC	??$construct_at@PAU?$_List_node@PAUSTextTail@CPythonTextTail@@PAX@std@@AAPAU12@@std@@YAPAPAU?$_List_node@PAUSTextTail@CPythonTextTail@@PAX@0@QAPAU10@AAPAU10@@Z ; std::construct_at<std::_List_node<CPythonTextTail::STextTail *,void *> *,std::_List_node<CPythonTextTail::STextTail *,void *> * &>
PUBLIC	??$forward@AAPAU?$_List_node@PAUSTextTail@CPythonTextTail@@PAX@std@@@std@@YAAAPAU?$_List_node@PAUSTextTail@CPythonTextTail@@PAX@0@AAPAU10@@Z ; std::forward<std::_List_node<CPythonTextTail::STextTail *,void *> * &>
PUBLIC	??$addressof@PAU?$_List_node@PAUSTextTail@CPythonTextTail@@PAX@std@@@std@@YAPAPAU?$_List_node@PAUSTextTail@CPythonTextTail@@PAX@0@AAPAU10@@Z ; std::addressof<std::_List_node<CPythonTextTail::STextTail *,void *> *>
PUBLIC	??$_Emplace_reallocate@ABQAUSTextTail@CPythonTextTail@@@?$vector@PAUSTextTail@CPythonTextTail@@V?$allocator@PAUSTextTail@CPythonTextTail@@@std@@@std@@AAEPAPAUSTextTail@CPythonTextTail@@QAPAU23@ABQAU23@@Z ; std::vector<CPythonTextTail::STextTail *,std::allocator<CPythonTextTail::STextTail *> >::_Emplace_reallocate<CPythonTextTail::STextTail * const &>
PUBLIC	??$_Emplace_back_with_unused_capacity@ABQAUSTextTail@CPythonTextTail@@@?$vector@PAUSTextTail@CPythonTextTail@@V?$allocator@PAUSTextTail@CPythonTextTail@@@std@@@std@@AAEAAPAUSTextTail@CPythonTextTail@@ABQAU23@@Z ; std::vector<CPythonTextTail::STextTail *,std::allocator<CPythonTextTail::STextTail *> >::_Emplace_back_with_unused_capacity<CPythonTextTail::STextTail * const &>
PUBLIC	??$destroy_at@PAUSTextTail@CPythonTextTail@@@std@@YAXQAPAUSTextTail@CPythonTextTail@@@Z ; std::destroy_at<CPythonTextTail::STextTail *>
PUBLIC	??$construct@PAUSTextTail@CPythonTextTail@@ABQAU12@@?$_Default_allocator_traits@V?$allocator@U?$_List_node@PAUSTextTail@CPythonTextTail@@PAX@std@@@std@@@std@@SAXAAV?$allocator@U?$_List_node@PAUSTextTail@CPythonTextTail@@PAX@std@@@1@QAPAUSTextTail@CPythonTextTail@@ABQAU34@@Z ; std::_Default_allocator_traits<std::allocator<std::_List_node<CPythonTextTail::STextTail *,void *> > >::construct<CPythonTextTail::STextTail *,CPythonTextTail::STextTail * const &>
PUBLIC	??$destroy@PAUSTextTail@CPythonTextTail@@@?$_Default_allocator_traits@V?$allocator@U?$_List_node@PAUSTextTail@CPythonTextTail@@PAX@std@@@std@@@std@@SAXAAV?$allocator@U?$_List_node@PAUSTextTail@CPythonTextTail@@PAX@std@@@1@QAPAUSTextTail@CPythonTextTail@@@Z ; std::_Default_allocator_traits<std::allocator<std::_List_node<CPythonTextTail::STextTail *,void *> > >::destroy<CPythonTextTail::STextTail *>
PUBLIC	??$addressof@PAUSTextTail@CPythonTextTail@@@std@@YAPAPAUSTextTail@CPythonTextTail@@AAPAU12@@Z ; std::addressof<CPythonTextTail::STextTail *>
PUBLIC	??$_Destroy_in_place@PAU?$_Tree_node@U?$pair@$$CBKPAUSTextTail@CPythonTextTail@@@std@@PAX@std@@@std@@YAXAAPAU?$_Tree_node@U?$pair@$$CBKPAUSTextTail@CPythonTextTail@@@std@@PAX@0@@Z ; std::_Destroy_in_place<std::_Tree_node<std::pair<unsigned long const ,CPythonTextTail::STextTail *>,void *> *>
PUBLIC	??$destroy@U?$pair@$$CBKPAUSTextTail@CPythonTextTail@@@std@@@?$_Default_allocator_traits@V?$allocator@U?$_Tree_node@U?$pair@$$CBKPAUSTextTail@CPythonTextTail@@@std@@PAX@std@@@std@@@std@@SAXAAV?$allocator@U?$_Tree_node@U?$pair@$$CBKPAUSTextTail@CPythonTextTail@@@std@@PAX@std@@@1@QAU?$pair@$$CBKPAUSTextTail@CPythonTextTail@@@1@@Z ; std::_Default_allocator_traits<std::allocator<std::_Tree_node<std::pair<unsigned long const ,CPythonTextTail::STextTail *>,void *> > >::destroy<std::pair<unsigned long const ,CPythonTextTail::STextTail *> >
PUBLIC	??$forward@PAU?$_Tree_node@U?$pair@$$CBKPAUSTextTail@CPythonTextTail@@@std@@PAX@std@@@std@@YA$$QAPAU?$_Tree_node@U?$pair@$$CBKPAUSTextTail@CPythonTextTail@@@std@@PAX@0@AAPAU10@@Z ; std::forward<std::_Tree_node<std::pair<unsigned long const ,CPythonTextTail::STextTail *>,void *> *>
PUBLIC	??$forward@AAPAU?$_Tree_node@U?$pair@$$CBKPAUSTextTail@CPythonTextTail@@@std@@PAX@std@@@std@@YAAAPAU?$_Tree_node@U?$pair@$$CBKPAUSTextTail@CPythonTextTail@@@std@@PAX@0@AAPAU10@@Z ; std::forward<std::_Tree_node<std::pair<unsigned long const ,CPythonTextTail::STextTail *>,void *> * &>
PUBLIC	??$_Construct_in_place@PAU?$_Tree_node@U?$pair@$$CBKPAUSTextTail@CPythonTextTail@@@std@@PAX@std@@AAPAU12@@std@@YAXAAPAU?$_Tree_node@U?$pair@$$CBKPAUSTextTail@CPythonTextTail@@@std@@PAX@0@0@Z ; std::_Construct_in_place<std::_Tree_node<std::pair<unsigned long const ,CPythonTextTail::STextTail *>,void *> *,std::_Tree_node<std::pair<unsigned long const ,CPythonTextTail::STextTail *>,void *> * &>
PUBLIC	??$construct@U?$pair@$$CBKPAUSTextTail@CPythonTextTail@@@std@@U12@@?$_Default_allocator_traits@V?$allocator@U?$_Tree_node@U?$pair@$$CBKPAUSTextTail@CPythonTextTail@@@std@@PAX@std@@@std@@@std@@SAXAAV?$allocator@U?$_Tree_node@U?$pair@$$CBKPAUSTextTail@CPythonTextTail@@@std@@PAX@std@@@1@QAU?$pair@$$CBKPAUSTextTail@CPythonTextTail@@@1@$$QAU31@@Z ; std::_Default_allocator_traits<std::allocator<std::_Tree_node<std::pair<unsigned long const ,CPythonTextTail::STextTail *>,void *> > >::construct<std::pair<unsigned long const ,CPythonTextTail::STextTail *>,std::pair<unsigned long const ,CPythonTextTail::STextTail *> >
PUBLIC	??$_Kfn@$$CBKPAUSTextTail@CPythonTextTail@@@?$_Tmap_traits@KPAUSTextTail@CPythonTextTail@@U?$less@K@std@@V?$allocator@U?$pair@$$CBKPAUSTextTail@CPythonTextTail@@@std@@@4@$0A@@std@@SAABKABU?$pair@$$CBKPAUSTextTail@CPythonTextTail@@@1@@Z ; std::_Tmap_traits<unsigned long,CPythonTextTail::STextTail *,std::less<unsigned long>,std::allocator<std::pair<unsigned long const ,CPythonTextTail::STextTail *> >,0>::_Kfn<unsigned long const ,CPythonTextTail::STextTail *>
PUBLIC	??$?0$$V@?$_Compressed_pair@V?$allocator@U?$_Tree_node@U?$pair@$$CBKPAUSTextTail@CPythonTextTail@@@std@@PAX@std@@@std@@V?$_Tree_val@U?$_Tree_simple_types@U?$pair@$$CBKPAUSTextTail@CPythonTextTail@@@std@@@std@@@2@$00@std@@QAE@U_Zero_then_variadic_args_t@1@@Z ; std::_Compressed_pair<std::allocator<std::_Tree_node<std::pair<unsigned long const ,CPythonTextTail::STextTail *>,void *> >,std::_Tree_val<std::_Tree_simple_types<std::pair<unsigned long const ,CPythonTextTail::STextTail *> > >,1>::_Compressed_pair<std::allocator<std::_Tree_node<std::pair<unsigned long const ,CPythonTextTail::STextTail *>,void *> >,std::_Tree_val<std::_Tree_simple_types<std::pair<unsigned long const ,CPythonTextTail::STextTail *> > >,1><>
PUBLIC	??1?$_Tree_temp_node_alloc@V?$allocator@U?$_Tree_node@U?$pair@$$CBKPAUSTextTail@CPythonTextTail@@@std@@PAX@std@@@std@@@std@@QAE@XZ ; std::_Tree_temp_node_alloc<std::allocator<std::_Tree_node<std::pair<unsigned long const ,CPythonTextTail::STextTail *>,void *> > >::~_Tree_temp_node_alloc<std::allocator<std::_Tree_node<std::pair<unsigned long const ,CPythonTextTail::STextTail *>,void *> > >
PUBLIC	?max_size@?$list@PAUSTextTail@CPythonTextTail@@V?$allocator@PAUSTextTail@CPythonTextTail@@@std@@@std@@QBEIXZ ; std::list<CPythonTextTail::STextTail *,std::allocator<CPythonTextTail::STextTail *> >::max_size
PUBLIC	?_Check_grow_by_1@?$_Tree@V?$_Tmap_traits@KPAUSTextTail@CPythonTextTail@@U?$less@K@std@@V?$allocator@U?$pair@$$CBKPAUSTextTail@CPythonTextTail@@@std@@@4@$0A@@std@@@std@@IAEXXZ ; std::_Tree<std::_Tmap_traits<unsigned long,CPythonTextTail::STextTail *,std::less<unsigned long>,std::allocator<std::pair<unsigned long const ,CPythonTextTail::STextTail *> >,0> >::_Check_grow_by_1
PUBLIC	?_Alloc_sentinel_and_proxy@?$_Tree@V?$_Tmap_traits@KPAUSTextTail@CPythonTextTail@@U?$less@K@std@@V?$allocator@U?$pair@$$CBKPAUSTextTail@CPythonTextTail@@@std@@@4@$0A@@std@@@std@@IAEXXZ ; std::_Tree<std::_Tmap_traits<unsigned long,CPythonTextTail::STextTail *,std::less<unsigned long>,std::allocator<std::pair<unsigned long const ,CPythonTextTail::STextTail *> >,0> >::_Alloc_sentinel_and_proxy
PUBLIC	?_Extract@?$_Tree_val@U?$_Tree_simple_types@U?$pair@$$CBKPAUSTextTail@CPythonTextTail@@@std@@@std@@@std@@QAEPAU?$_Tree_node@U?$pair@$$CBKPAUSTextTail@CPythonTextTail@@@std@@PAX@2@V?$_Tree_unchecked_const_iterator@V?$_Tree_val@U?$_Tree_simple_types@U?$pair@$$CBKPAUSTextTail@CPythonTextTail@@@std@@@std@@@std@@U_Iterator_base0@2@@2@@Z ; std::_Tree_val<std::_Tree_simple_types<std::pair<unsigned long const ,CPythonTextTail::STextTail *> > >::_Extract
PUBLIC	?_Insert_node@?$_Tree_val@U?$_Tree_simple_types@U?$pair@$$CBKPAUSTextTail@CPythonTextTail@@@std@@@std@@@std@@QAEPAU?$_Tree_node@U?$pair@$$CBKPAUSTextTail@CPythonTextTail@@@std@@PAX@2@U?$_Tree_id@PAU?$_Tree_node@U?$pair@$$CBKPAUSTextTail@CPythonTextTail@@@std@@PAX@std@@@2@QAU32@@Z ; std::_Tree_val<std::_Tree_simple_types<std::pair<unsigned long const ,CPythonTextTail::STextTail *> > >::_Insert_node
PUBLIC	??D?$_Tree_const_iterator@V?$_Tree_val@U?$_Tree_simple_types@U?$pair@$$CBKPAUSTextTail@CPythonTextTail@@@std@@@std@@@std@@@std@@QBEABU?$pair@$$CBKPAUSTextTail@CPythonTextTail@@@1@XZ ; std::_Tree_const_iterator<std::_Tree_val<std::_Tree_simple_types<std::pair<unsigned long const ,CPythonTextTail::STextTail *> > > >::operator*
PUBLIC	??E?$_Tree_unchecked_const_iterator@V?$_Tree_val@U?$_Tree_simple_types@U?$pair@$$CBKPAUSTextTail@CPythonTextTail@@@std@@@std@@@std@@U_Iterator_base0@2@@std@@QAEAAV01@XZ ; std::_Tree_unchecked_const_iterator<std::_Tree_val<std::_Tree_simple_types<std::pair<unsigned long const ,CPythonTextTail::STextTail *> > >,std::_Iterator_base0>::operator++
PUBLIC	?_Get_first@?$_Compressed_pair@V?$allocator@U?$_Tree_node@U?$pair@$$CBKPAUSTextTail@CPythonTextTail@@@std@@PAX@std@@@std@@V?$_Tree_val@U?$_Tree_simple_types@U?$pair@$$CBKPAUSTextTail@CPythonTextTail@@@std@@@std@@@2@$00@std@@QAEAAV?$allocator@U?$_Tree_node@U?$pair@$$CBKPAUSTextTail@CPythonTextTail@@@std@@PAX@std@@@2@XZ ; std::_Compressed_pair<std::allocator<std::_Tree_node<std::pair<unsigned long const ,CPythonTextTail::STextTail *>,void *> >,std::_Tree_val<std::_Tree_simple_types<std::pair<unsigned long const ,CPythonTextTail::STextTail *> > >,1>::_Get_first
PUBLIC	??0?$allocator@U?$_List_node@PAUSTextTail@CPythonTextTail@@PAX@std@@@std@@QAE@XZ ; std::allocator<std::_List_node<CPythonTextTail::STextTail *,void *> >::allocator<std::_List_node<CPythonTextTail::STextTail *,void *> >
PUBLIC	?allocate@?$allocator@U?$_List_node@PAUSTextTail@CPythonTextTail@@PAX@std@@@std@@QAEPAU?$_List_node@PAUSTextTail@CPythonTextTail@@PAX@2@I@Z ; std::allocator<std::_List_node<CPythonTextTail::STextTail *,void *> >::allocate
PUBLIC	??0?$_List_val@U?$_List_simple_types@PAUSTextTail@CPythonTextTail@@@std@@@std@@QAE@XZ ; std::_List_val<std::_List_simple_types<CPythonTextTail::STextTail *> >::_List_val<std::_List_simple_types<CPythonTextTail::STextTail *> >
PUBLIC	?_Seek_to@?$_List_const_iterator@V?$_List_val@U?$_List_simple_types@PAUSTextTail@CPythonTextTail@@@std@@@std@@@std@@QAEXV?$_List_unchecked_const_iterator@V?$_List_val@U?$_List_simple_types@PAUSTextTail@CPythonTextTail@@@std@@@std@@U_Iterator_base0@2@@2@@Z ; std::_List_const_iterator<std::_List_val<std::_List_simple_types<CPythonTextTail::STextTail *> > >::_Seek_to
PUBLIC	??D?$_List_unchecked_iterator@V?$_List_val@U?$_List_simple_types@PAUSTextTail@CPythonTextTail@@@std@@@std@@@std@@QBEAAPAUSTextTail@CPythonTextTail@@XZ ; std::_List_unchecked_iterator<std::_List_val<std::_List_simple_types<CPythonTextTail::STextTail *> > >::operator*
PUBLIC	??E?$_List_unchecked_iterator@V?$_List_val@U?$_List_simple_types@PAUSTextTail@CPythonTextTail@@@std@@@std@@@std@@QAEAAV01@XZ ; std::_List_unchecked_iterator<std::_List_val<std::_List_simple_types<CPythonTextTail::STextTail *> > >::operator++
PUBLIC	??8?$_List_unchecked_const_iterator@V?$_List_val@U?$_List_simple_types@PAUSTextTail@CPythonTextTail@@@std@@@std@@U_Iterator_base0@2@@std@@QBE_NABV01@@Z ; std::_List_unchecked_const_iterator<std::_List_val<std::_List_simple_types<CPythonTextTail::STextTail *> >,std::_Iterator_base0>::operator==
PUBLIC	?_Get_first@?$_Compressed_pair@V?$allocator@U?$_List_node@PAUSTextTail@CPythonTextTail@@PAX@std@@@std@@V?$_List_val@U?$_List_simple_types@PAUSTextTail@CPythonTextTail@@@std@@@2@$00@std@@QAEAAV?$allocator@U?$_List_node@PAUSTextTail@CPythonTextTail@@PAX@std@@@2@XZ ; std::_Compressed_pair<std::allocator<std::_List_node<CPythonTextTail::STextTail *,void *> >,std::_List_val<std::_List_simple_types<CPythonTextTail::STextTail *> >,1>::_Get_first
PUBLIC	?Delete@?$CDynamicPool@USTextTail@CPythonTextTail@@@@KAXPAUSTextTail@CPythonTextTail@@@Z ; CDynamicPool<CPythonTextTail::STextTail>::Delete
PUBLIC	?clear@?$vector@PAUSTextTail@CPythonTextTail@@V?$allocator@PAUSTextTail@CPythonTextTail@@@std@@@std@@QAEXXZ ; std::vector<CPythonTextTail::STextTail *,std::allocator<CPythonTextTail::STextTail *> >::clear
PUBLIC	?_Unchecked_begin@?$vector@PAUSTextTail@CPythonTextTail@@V?$allocator@PAUSTextTail@CPythonTextTail@@@std@@@std@@QAEPAPAUSTextTail@CPythonTextTail@@XZ ; std::vector<CPythonTextTail::STextTail *,std::allocator<CPythonTextTail::STextTail *> >::_Unchecked_begin
PUBLIC	?_Unchecked_end@?$vector@PAUSTextTail@CPythonTextTail@@V?$allocator@PAUSTextTail@CPythonTextTail@@@std@@@std@@QAEPAPAUSTextTail@CPythonTextTail@@XZ ; std::vector<CPythonTextTail::STextTail *,std::allocator<CPythonTextTail::STextTail *> >::_Unchecked_end
PUBLIC	?_Tidy@?$vector@PAUSTextTail@CPythonTextTail@@V?$allocator@PAUSTextTail@CPythonTextTail@@@std@@@std@@AAEXXZ ; std::vector<CPythonTextTail::STextTail *,std::allocator<CPythonTextTail::STextTail *> >::_Tidy
PUBLIC	?_Orphan_range@?$vector@PAUSTextTail@CPythonTextTail@@V?$allocator@PAUSTextTail@CPythonTextTail@@@std@@@std@@ABEXPAPAUSTextTail@CPythonTextTail@@0@Z ; std::vector<CPythonTextTail::STextTail *,std::allocator<CPythonTextTail::STextTail *> >::_Orphan_range
PUBLIC	?_Getal@?$vector@PAUSTextTail@CPythonTextTail@@V?$allocator@PAUSTextTail@CPythonTextTail@@@std@@@std@@AAEAAV?$allocator@PAUSTextTail@CPythonTextTail@@@2@XZ ; std::vector<CPythonTextTail::STextTail *,std::allocator<CPythonTextTail::STextTail *> >::_Getal
PUBLIC	?_Extract@?$_In_place_key_extract_map_impl@KU?$pair@$$CBKPAUSTextTail@CPythonTextTail@@@std@@@std@@SAABKABU?$pair@$$CBKPAUSTextTail@CPythonTextTail@@@2@@Z ; std::_In_place_key_extract_map_impl<unsigned long,std::pair<unsigned long const ,CPythonTextTail::STextTail *> >::_Extract
PUBLIC	??1?$_Tree_temp_node@V?$allocator@U?$_Tree_node@U?$pair@$$CBKPAUSTextTail@CPythonTextTail@@@std@@PAX@std@@@std@@@std@@QAE@XZ ; std::_Tree_temp_node<std::allocator<std::_Tree_node<std::pair<unsigned long const ,CPythonTextTail::STextTail *>,void *> > >::~_Tree_temp_node<std::allocator<std::_Tree_node<std::pair<unsigned long const ,CPythonTextTail::STextTail *>,void *> > >
PUBLIC	?_Release@?$_Alloc_construct_ptr@V?$allocator@U?$_Tree_node@U?$pair@$$CBKPAUSTextTail@CPythonTextTail@@@std@@PAX@std@@@std@@@std@@QAEPAU?$_Tree_node@U?$pair@$$CBKPAUSTextTail@CPythonTextTail@@@std@@PAX@2@XZ ; std::_Alloc_construct_ptr<std::allocator<std::_Tree_node<std::pair<unsigned long const ,CPythonTextTail::STextTail *>,void *> > >::_Release
PUBLIC	??1?$_List_node_emplace_op2@V?$allocator@U?$_List_node@PAUSTextTail@CPythonTextTail@@PAX@std@@@std@@@std@@QAE@XZ ; std::_List_node_emplace_op2<std::allocator<std::_List_node<CPythonTextTail::STextTail *,void *> > >::~_List_node_emplace_op2<std::allocator<std::_List_node<CPythonTextTail::STextTail *,void *> > >
PUBLIC	?_Transfer_before@?$_List_node_emplace_op2@V?$allocator@U?$_List_node@PAUSTextTail@CPythonTextTail@@PAX@std@@@std@@@std@@QAEPAU?$_List_node@PAUSTextTail@CPythonTextTail@@PAX@2@QAU32@@Z ; std::_List_node_emplace_op2<std::allocator<std::_List_node<CPythonTextTail::STextTail *,void *> > >::_Transfer_before
PUBLIC	??$_Freenode0@V?$allocator@U?$_List_node@PAUSTextTail@CPythonTextTail@@PAX@std@@@std@@@?$_List_node@PAUSTextTail@CPythonTextTail@@PAX@std@@SAXAAV?$allocator@U?$_List_node@PAUSTextTail@CPythonTextTail@@PAX@std@@@1@PAU01@@Z ; std::_List_node<CPythonTextTail::STextTail *,void *>::_Freenode0<std::allocator<std::_List_node<CPythonTextTail::STextTail *,void *> > >
PUBLIC	??$_Construct_in_place@PAU?$_List_node@PAUSTextTail@CPythonTextTail@@PAX@std@@AAPAU12@@std@@YAXAAPAU?$_List_node@PAUSTextTail@CPythonTextTail@@PAX@0@0@Z ; std::_Construct_in_place<std::_List_node<CPythonTextTail::STextTail *,void *> *,std::_List_node<CPythonTextTail::STextTail *,void *> * &>
PUBLIC	??$?0ABU?$less@K@std@@U_Zero_then_variadic_args_t@1@@?$_Compressed_pair@U?$less@K@std@@V?$_Compressed_pair@V?$allocator@U?$_Tree_node@U?$pair@$$CBKPAUSTextTail@CPythonTextTail@@@std@@PAX@std@@@std@@V?$_Tree_val@U?$_Tree_simple_types@U?$pair@$$CBKPAUSTextTail@CPythonTextTail@@@std@@@std@@@2@$00@2@$00@std@@QAE@U_One_then_variadic_args_t@1@ABU?$less@K@1@$$QAU_Zero_then_variadic_args_t@1@@Z ; std::_Compressed_pair<std::less<unsigned long>,std::_Compressed_pair<std::allocator<std::_Tree_node<std::pair<unsigned long const ,CPythonTextTail::STextTail *>,void *> >,std::_Tree_val<std::_Tree_simple_types<std::pair<unsigned long const ,CPythonTextTail::STextTail *> > >,1>,1>::_Compressed_pair<std::less<unsigned long>,std::_Compressed_pair<std::allocator<std::_Tree_node<std::pair<unsigned long const ,CPythonTextTail::STextTail *>,void *> >,std::_Tree_val<std::_Tree_simple_types<std::pair<unsigned long const ,CPythonTextTail::STextTail *> > >,1>,1><std::less<unsigned long> const &,std::_Zero_then_variadic_args_t>
PUBLIC	??$addressof@V?$_Tree_val@U?$_Tree_simple_types@U?$pair@$$CBKPAUSTextTail@CPythonTextTail@@@std@@@std@@@std@@@std@@YAPAV?$_Tree_val@U?$_Tree_simple_types@U?$pair@$$CBKPAUSTextTail@CPythonTextTail@@@std@@@std@@@0@AAV10@@Z ; std::addressof<std::_Tree_val<std::_Tree_simple_types<std::pair<unsigned long const ,CPythonTextTail::STextTail *> > > >
PUBLIC	??$addressof@$$CBV?$_Tree_val@U?$_Tree_simple_types@U?$pair@$$CBKPAUSTextTail@CPythonTextTail@@@std@@@std@@@std@@@std@@YAPBV?$_Tree_val@U?$_Tree_simple_types@U?$pair@$$CBKPAUSTextTail@CPythonTextTail@@@std@@@std@@@0@ABV10@@Z ; std::addressof<std::_Tree_val<std::_Tree_simple_types<std::pair<unsigned long const ,CPythonTextTail::STextTail *> > > const >
PUBLIC	??$?0$$V@?$_Compressed_pair@V?$allocator@PAUSTextTail@CPythonTextTail@@@std@@V?$_Vector_val@U?$_Simple_types@PAUSTextTail@CPythonTextTail@@@std@@@2@$00@std@@QAE@U_Zero_then_variadic_args_t@1@@Z ; std::_Compressed_pair<std::allocator<CPythonTextTail::STextTail *>,std::_Vector_val<std::_Simple_types<CPythonTextTail::STextTail *> >,1>::_Compressed_pair<std::allocator<CPythonTextTail::STextTail *>,std::_Vector_val<std::_Simple_types<CPythonTextTail::STextTail *> >,1><>
PUBLIC	??$_Emplace_one_at_back@ABQAUSTextTail@CPythonTextTail@@@?$vector@PAUSTextTail@CPythonTextTail@@V?$allocator@PAUSTextTail@CPythonTextTail@@@std@@@std@@AAEAAPAUSTextTail@CPythonTextTail@@ABQAU23@@Z ; std::vector<CPythonTextTail::STextTail *,std::allocator<CPythonTextTail::STextTail *> >::_Emplace_one_at_back<CPythonTextTail::STextTail * const &>
PUBLIC	??$destroy@PAUSTextTail@CPythonTextTail@@@?$_Default_allocator_traits@V?$allocator@PAUSTextTail@CPythonTextTail@@@std@@@std@@SAXAAV?$allocator@PAUSTextTail@CPythonTextTail@@@1@QAPAUSTextTail@CPythonTextTail@@@Z ; std::_Default_allocator_traits<std::allocator<CPythonTextTail::STextTail *> >::destroy<CPythonTextTail::STextTail *>
PUBLIC	??$_Unfancy@PAUSTextTail@CPythonTextTail@@@std@@YAPAPAUSTextTail@CPythonTextTail@@PAPAU12@@Z ; std::_Unfancy<CPythonTextTail::STextTail *>
PUBLIC	??$addressof@U?$pair@$$CBKPAUSTextTail@CPythonTextTail@@@std@@@std@@YAPAU?$pair@$$CBKPAUSTextTail@CPythonTextTail@@@0@AAU10@@Z ; std::addressof<std::pair<unsigned long const ,CPythonTextTail::STextTail *> >
PUBLIC	??$?0ABQAUSTextTail@CPythonTextTail@@@?$_List_node_emplace_op2@V?$allocator@U?$_List_node@PAUSTextTail@CPythonTextTail@@PAX@std@@@std@@@std@@QAE@AAV?$allocator@U?$_List_node@PAUSTextTail@CPythonTextTail@@PAX@std@@@1@ABQAUSTextTail@CPythonTextTail@@@Z ; std::_List_node_emplace_op2<std::allocator<std::_List_node<CPythonTextTail::STextTail *,void *> > >::_List_node_emplace_op2<std::allocator<std::_List_node<CPythonTextTail::STextTail *,void *> > ><CPythonTextTail::STextTail * const &>
PUBLIC	??$forward@ABQAUSTextTail@CPythonTextTail@@@std@@YAABQAUSTextTail@CPythonTextTail@@ABQAU12@@Z ; std::forward<CPythonTextTail::STextTail * const &>
PUBLIC	??$_Freenode@V?$allocator@U?$_List_node@PAUSTextTail@CPythonTextTail@@PAX@std@@@std@@@?$_List_node@PAUSTextTail@CPythonTextTail@@PAX@std@@SAXAAV?$allocator@U?$_List_node@PAUSTextTail@CPythonTextTail@@PAX@std@@@1@PAU01@@Z ; std::_List_node<CPythonTextTail::STextTail *,void *>::_Freenode<std::allocator<std::_List_node<CPythonTextTail::STextTail *,void *> > >
PUBLIC	??$_Freenode0@V?$allocator@U?$_Tree_node@U?$pair@$$CBKPAUSTextTail@CPythonTextTail@@@std@@PAX@std@@@std@@@?$_Tree_node@U?$pair@$$CBKPAUSTextTail@CPythonTextTail@@@std@@PAX@std@@SAXAAV?$allocator@U?$_Tree_node@U?$pair@$$CBKPAUSTextTail@CPythonTextTail@@@std@@PAX@std@@@1@PAU01@@Z ; std::_Tree_node<std::pair<unsigned long const ,CPythonTextTail::STextTail *>,void *>::_Freenode0<std::allocator<std::_Tree_node<std::pair<unsigned long const ,CPythonTextTail::STextTail *>,void *> > >
PUBLIC	??$_Freenode@V?$allocator@U?$_Tree_node@U?$pair@$$CBKPAUSTextTail@CPythonTextTail@@@std@@PAX@std@@@std@@@?$_Tree_node@U?$pair@$$CBKPAUSTextTail@CPythonTextTail@@@std@@PAX@std@@SAXAAV?$allocator@U?$_Tree_node@U?$pair@$$CBKPAUSTextTail@CPythonTextTail@@@std@@PAX@std@@@1@PAU01@@Z ; std::_Tree_node<std::pair<unsigned long const ,CPythonTextTail::STextTail *>,void *>::_Freenode<std::allocator<std::_Tree_node<std::pair<unsigned long const ,CPythonTextTail::STextTail *>,void *> > >
PUBLIC	??$exchange@PAU?$_Tree_node@U?$pair@$$CBKPAUSTextTail@CPythonTextTail@@@std@@PAX@std@@AAPAU12@@std@@YAPAU?$_Tree_node@U?$pair@$$CBKPAUSTextTail@CPythonTextTail@@@std@@PAX@0@AAPAU10@0@Z ; std::exchange<std::_Tree_node<std::pair<unsigned long const ,CPythonTextTail::STextTail *>,void *> *,std::_Tree_node<std::pair<unsigned long const ,CPythonTextTail::STextTail *>,void *> * &>
PUBLIC	??$forward@V?$_Tree_iterator@V?$_Tree_val@U?$_Tree_simple_types@U?$pair@$$CBKPAUSTextTail@CPythonTextTail@@@std@@@std@@@std@@@std@@@std@@YA$$QAV?$_Tree_iterator@V?$_Tree_val@U?$_Tree_simple_types@U?$pair@$$CBKPAUSTextTail@CPythonTextTail@@@std@@@std@@@std@@@0@AAV10@@Z ; std::forward<std::_Tree_iterator<std::_Tree_val<std::_Tree_simple_types<std::pair<unsigned long const ,CPythonTextTail::STextTail *> > > > >
PUBLIC	??$?0PAU?$_Tree_node@U?$pair@$$CBKPAUSTextTail@CPythonTextTail@@@std@@PAX@std@@_N$0A@@?$pair@PAU?$_Tree_node@U?$pair@$$CBKPAUSTextTail@CPythonTextTail@@@std@@PAX@std@@_N@std@@QAE@$$QAPAU?$_Tree_node@U?$pair@$$CBKPAUSTextTail@CPythonTextTail@@@std@@PAX@1@$$QA_N@Z ; std::pair<std::_Tree_node<std::pair<unsigned long const ,CPythonTextTail::STextTail *>,void *> *,bool>::pair<std::_Tree_node<std::pair<unsigned long const ,CPythonTextTail::STextTail *>,void *> *,bool><std::_Tree_node<std::pair<unsigned long const ,CPythonTextTail::STextTail *>,void *> *,bool,0>
PUBLIC	??$?0AAPAU?$_Tree_node@U?$pair@$$CBKPAUSTextTail@CPythonTextTail@@@std@@PAX@std@@_N$0A@@?$pair@PAU?$_Tree_node@U?$pair@$$CBKPAUSTextTail@CPythonTextTail@@@std@@PAX@std@@_N@std@@QAE@AAPAU?$_Tree_node@U?$pair@$$CBKPAUSTextTail@CPythonTextTail@@@std@@PAX@1@$$QA_N@Z ; std::pair<std::_Tree_node<std::pair<unsigned long const ,CPythonTextTail::STextTail *>,void *> *,bool>::pair<std::_Tree_node<std::pair<unsigned long const ,CPythonTextTail::STextTail *>,void *> *,bool><std::_Tree_node<std::pair<unsigned long const ,CPythonTextTail::STextTail *>,void *> * &,bool,0>
PUBLIC	??$?0U?$pair@$$CBKPAUSTextTail@CPythonTextTail@@@std@@@?$_Tree_temp_node@V?$allocator@U?$_Tree_node@U?$pair@$$CBKPAUSTextTail@CPythonTextTail@@@std@@PAX@std@@@std@@@std@@QAE@AAV?$allocator@U?$_Tree_node@U?$pair@$$CBKPAUSTextTail@CPythonTextTail@@@std@@PAX@std@@@1@PAU?$_Tree_node@U?$pair@$$CBKPAUSTextTail@CPythonTextTail@@@std@@PAX@1@$$QAU?$pair@$$CBKPAUSTextTail@CPythonTextTail@@@1@@Z ; std::_Tree_temp_node<std::allocator<std::_Tree_node<std::pair<unsigned long const ,CPythonTextTail::STextTail *>,void *> > >::_Tree_temp_node<std::allocator<std::_Tree_node<std::pair<unsigned long const ,CPythonTextTail::STextTail *>,void *> > ><std::pair<unsigned long const ,CPythonTextTail::STextTail *> >
PUBLIC	??$forward@U?$pair@$$CBKPAUSTextTail@CPythonTextTail@@@std@@@std@@YA$$QAU?$pair@$$CBKPAUSTextTail@CPythonTextTail@@@0@AAU10@@Z ; std::forward<std::pair<unsigned long const ,CPythonTextTail::STextTail *> >
PUBLIC	??$_Lower_bound_duplicate@K@?$_Tree@V?$_Tmap_traits@KPAUSTextTail@CPythonTextTail@@U?$less@K@std@@V?$allocator@U?$pair@$$CBKPAUSTextTail@CPythonTextTail@@@std@@@4@$0A@@std@@@std@@IBE_NQAU?$_Tree_node@U?$pair@$$CBKPAUSTextTail@CPythonTextTail@@@std@@PAX@1@ABK@Z ; std::_Tree<std::_Tmap_traits<unsigned long,CPythonTextTail::STextTail *,std::less<unsigned long>,std::allocator<std::pair<unsigned long const ,CPythonTextTail::STextTail *> >,0> >::_Lower_bound_duplicate<unsigned long>
PUBLIC	??$_Find_lower_bound@K@?$_Tree@V?$_Tmap_traits@KPAUSTextTail@CPythonTextTail@@U?$less@K@std@@V?$allocator@U?$pair@$$CBKPAUSTextTail@CPythonTextTail@@@std@@@4@$0A@@std@@@std@@IBE?AU?$_Tree_find_result@PAU?$_Tree_node@U?$pair@$$CBKPAUSTextTail@CPythonTextTail@@@std@@PAX@std@@@1@ABK@Z ; std::_Tree<std::_Tmap_traits<unsigned long,CPythonTextTail::STextTail *,std::less<unsigned long>,std::allocator<std::pair<unsigned long const ,CPythonTextTail::STextTail *> >,0> >::_Find_lower_bound<unsigned long>
PUBLIC	??$forward@V?$_List_unchecked_iterator@V?$_List_val@U?$_List_simple_types@PAUSTextTail@CPythonTextTail@@@std@@@std@@@std@@@std@@YA$$QAV?$_List_unchecked_iterator@V?$_List_val@U?$_List_simple_types@PAUSTextTail@CPythonTextTail@@@std@@@std@@@0@AAV10@@Z ; std::forward<std::_List_unchecked_iterator<std::_List_val<std::_List_simple_types<CPythonTextTail::STextTail *> > > >
PUBLIC	??$move@AAPAUSTextTail@CPythonTextTail@@@std@@YA$$QAPAUSTextTail@CPythonTextTail@@AAPAU12@@Z ; std::move<CPythonTextTail::STextTail * &>
PUBLIC	??0?$_Tree_unchecked_iterator@V?$_Tree_val@U?$_Tree_simple_types@U?$pair@$$CBKPAUSTextTail@CPythonTextTail@@@std@@@std@@@std@@@std@@QAE@PAU?$_Tree_node@U?$pair@$$CBKPAUSTextTail@CPythonTextTail@@@std@@PAX@1@PBV?$_Tree_val@U?$_Tree_simple_types@U?$pair@$$CBKPAUSTextTail@CPythonTextTail@@@std@@@std@@@1@@Z ; std::_Tree_unchecked_iterator<std::_Tree_val<std::_Tree_simple_types<std::pair<unsigned long const ,CPythonTextTail::STextTail *> > > >::_Tree_unchecked_iterator<std::_Tree_val<std::_Tree_simple_types<std::pair<unsigned long const ,CPythonTextTail::STextTail *> > > >
PUBLIC	??0?$_List_unchecked_iterator@V?$_List_val@U?$_List_simple_types@PAUSTextTail@CPythonTextTail@@@std@@@std@@@std@@QAE@PAU?$_List_node@PAUSTextTail@CPythonTextTail@@PAX@1@PBV?$_List_val@U?$_List_simple_types@PAUSTextTail@CPythonTextTail@@@std@@@1@@Z ; std::_List_unchecked_iterator<std::_List_val<std::_List_simple_types<CPythonTextTail::STextTail *> > >::_List_unchecked_iterator<std::_List_val<std::_List_simple_types<CPythonTextTail::STextTail *> > >
PUBLIC	?_Tidy@?$list@PAUSTextTail@CPythonTextTail@@V?$allocator@PAUSTextTail@CPythonTextTail@@@std@@@std@@AAEXXZ ; std::list<CPythonTextTail::STextTail *,std::allocator<CPythonTextTail::STextTail *> >::_Tidy
PUBLIC	?_Alloc_sentinel_and_proxy@?$list@PAUSTextTail@CPythonTextTail@@V?$allocator@PAUSTextTail@CPythonTextTail@@@std@@@std@@AAEXXZ ; std::list<CPythonTextTail::STextTail *,std::allocator<CPythonTextTail::STextTail *> >::_Alloc_sentinel_and_proxy
PUBLIC	?_Getal@?$list@PAUSTextTail@CPythonTextTail@@V?$allocator@PAUSTextTail@CPythonTextTail@@@std@@@std@@AAEAAV?$allocator@U?$_List_node@PAUSTextTail@CPythonTextTail@@PAX@std@@@2@XZ ; std::list<CPythonTextTail::STextTail *,std::allocator<CPythonTextTail::STextTail *> >::_Getal
PUBLIC	??0?$_Tree@V?$_Tmap_traits@KPAUSTextTail@CPythonTextTail@@U?$less@K@std@@V?$allocator@U?$pair@$$CBKPAUSTextTail@CPythonTextTail@@@std@@@4@$0A@@std@@@std@@QAE@ABU?$less@K@1@@Z ; std::_Tree<std::_Tmap_traits<unsigned long,CPythonTextTail::STextTail *,std::less<unsigned long>,std::allocator<std::pair<unsigned long const ,CPythonTextTail::STextTail *> >,0> >::_Tree<std::_Tmap_traits<unsigned long,CPythonTextTail::STextTail *,std::less<unsigned long>,std::allocator<std::pair<unsigned long const ,CPythonTextTail::STextTail *> >,0> >
PUBLIC	?_Erase_unchecked@?$_Tree@V?$_Tmap_traits@KPAUSTextTail@CPythonTextTail@@U?$less@K@std@@V?$allocator@U?$pair@$$CBKPAUSTextTail@CPythonTextTail@@@std@@@4@$0A@@std@@@std@@AAEPAU?$_Tree_node@U?$pair@$$CBKPAUSTextTail@CPythonTextTail@@@std@@PAX@2@V?$_Tree_unchecked_const_iterator@V?$_Tree_val@U?$_Tree_simple_types@U?$pair@$$CBKPAUSTextTail@CPythonTextTail@@@std@@@std@@@std@@U_Iterator_base0@2@@2@@Z ; std::_Tree<std::_Tmap_traits<unsigned long,CPythonTextTail::STextTail *,std::less<unsigned long>,std::allocator<std::pair<unsigned long const ,CPythonTextTail::STextTail *> >,0> >::_Erase_unchecked
PUBLIC	?_Getal@?$_Tree@V?$_Tmap_traits@KPAUSTextTail@CPythonTextTail@@U?$less@K@std@@V?$allocator@U?$pair@$$CBKPAUSTextTail@CPythonTextTail@@@std@@@4@$0A@@std@@@std@@IAEAAV?$allocator@U?$_Tree_node@U?$pair@$$CBKPAUSTextTail@CPythonTextTail@@@std@@PAX@std@@@2@XZ ; std::_Tree<std::_Tmap_traits<unsigned long,CPythonTextTail::STextTail *,std::less<unsigned long>,std::allocator<std::pair<unsigned long const ,CPythonTextTail::STextTail *> >,0> >::_Getal
PUBLIC	?_Get_scary@?$_Tree@V?$_Tmap_traits@KPAUSTextTail@CPythonTextTail@@U?$less@K@std@@V?$allocator@U?$pair@$$CBKPAUSTextTail@CPythonTextTail@@@std@@@4@$0A@@std@@@std@@IAEPAV?$_Tree_val@U?$_Tree_simple_types@U?$pair@$$CBKPAUSTextTail@CPythonTextTail@@@std@@@std@@@2@XZ ; std::_Tree<std::_Tmap_traits<unsigned long,CPythonTextTail::STextTail *,std::less<unsigned long>,std::allocator<std::pair<unsigned long const ,CPythonTextTail::STextTail *> >,0> >::_Get_scary
PUBLIC	?_Get_scary@?$_Tree@V?$_Tmap_traits@KPAUSTextTail@CPythonTextTail@@U?$less@K@std@@V?$allocator@U?$pair@$$CBKPAUSTextTail@CPythonTextTail@@@std@@@4@$0A@@std@@@std@@IBEPBV?$_Tree_val@U?$_Tree_simple_types@U?$pair@$$CBKPAUSTextTail@CPythonTextTail@@@std@@@std@@@2@XZ ; std::_Tree<std::_Tmap_traits<unsigned long,CPythonTextTail::STextTail *,std::less<unsigned long>,std::allocator<std::pair<unsigned long const ,CPythonTextTail::STextTail *> >,0> >::_Get_scary
PUBLIC	?_Orphan_ptr@?$_Tree_val@U?$_Tree_simple_types@U?$pair@$$CBKPAUSTextTail@CPythonTextTail@@@std@@@std@@@std@@QAEXQAU?$_Tree_node@U?$pair@$$CBKPAUSTextTail@CPythonTextTail@@@std@@PAX@2@@Z ; std::_Tree_val<std::_Tree_simple_types<std::pair<unsigned long const ,CPythonTextTail::STextTail *> > >::_Orphan_ptr
PUBLIC	??E?$_Tree_const_iterator@V?$_Tree_val@U?$_Tree_simple_types@U?$pair@$$CBKPAUSTextTail@CPythonTextTail@@@std@@@std@@@std@@@std@@QAEAAV01@XZ ; std::_Tree_const_iterator<std::_Tree_val<std::_Tree_simple_types<std::pair<unsigned long const ,CPythonTextTail::STextTail *> > > >::operator++
PUBLIC	??D?$_Tree_iterator@V?$_Tree_val@U?$_Tree_simple_types@U?$pair@$$CBKPAUSTextTail@CPythonTextTail@@@std@@@std@@@std@@@std@@QBEAAU?$pair@$$CBKPAUSTextTail@CPythonTextTail@@@1@XZ ; std::_Tree_iterator<std::_Tree_val<std::_Tree_simple_types<std::pair<unsigned long const ,CPythonTextTail::STextTail *> > > >::operator*
PUBLIC	?_Unwrapped@?$_Tree_iterator@V?$_Tree_val@U?$_Tree_simple_types@U?$pair@$$CBKPAUSTextTail@CPythonTextTail@@@std@@@std@@@std@@@std@@QBE?AV?$_Tree_unchecked_iterator@V?$_Tree_val@U?$_Tree_simple_types@U?$pair@$$CBKPAUSTextTail@CPythonTextTail@@@std@@@std@@@std@@@2@XZ ; std::_Tree_iterator<std::_Tree_val<std::_Tree_simple_types<std::pair<unsigned long const ,CPythonTextTail::STextTail *> > > >::_Unwrapped
PUBLIC	??0?$_Tree_unchecked_const_iterator@V?$_Tree_val@U?$_Tree_simple_types@U?$pair@$$CBKPAUSTextTail@CPythonTextTail@@@std@@@std@@@std@@U_Iterator_base0@2@@std@@QAE@PAU?$_Tree_node@U?$pair@$$CBKPAUSTextTail@CPythonTextTail@@@std@@PAX@1@PBV?$_Tree_val@U?$_Tree_simple_types@U?$pair@$$CBKPAUSTextTail@CPythonTextTail@@@std@@@std@@@1@@Z ; std::_Tree_unchecked_const_iterator<std::_Tree_val<std::_Tree_simple_types<std::pair<unsigned long const ,CPythonTextTail::STextTail *> > >,std::_Iterator_base0>::_Tree_unchecked_const_iterator<std::_Tree_val<std::_Tree_simple_types<std::pair<unsigned long const ,CPythonTextTail::STextTail *> > >,std::_Iterator_base0>
PUBLIC	?_Orphan_non_end@?$_List_val@U?$_List_simple_types@PAUSTextTail@CPythonTextTail@@@std@@@std@@QAEXXZ ; std::_List_val<std::_List_simple_types<CPythonTextTail::STextTail *> >::_Orphan_non_end
PUBLIC	?_Unwrapped@?$_List_iterator@V?$_List_val@U?$_List_simple_types@PAUSTextTail@CPythonTextTail@@@std@@@std@@@std@@QBE?AV?$_List_unchecked_iterator@V?$_List_val@U?$_List_simple_types@PAUSTextTail@CPythonTextTail@@@std@@@std@@@2@XZ ; std::_List_iterator<std::_List_val<std::_List_simple_types<CPythonTextTail::STextTail *> > >::_Unwrapped
PUBLIC	??D?$_List_const_iterator@V?$_List_val@U?$_List_simple_types@PAUSTextTail@CPythonTextTail@@@std@@@std@@@std@@QBEABQAUSTextTail@CPythonTextTail@@XZ ; std::_List_const_iterator<std::_List_val<std::_List_simple_types<CPythonTextTail::STextTail *> > >::operator*
PUBLIC	??E?$_List_const_iterator@V?$_List_val@U?$_List_simple_types@PAUSTextTail@CPythonTextTail@@@std@@@std@@@std@@QAEAAV01@XZ ; std::_List_const_iterator<std::_List_val<std::_List_simple_types<CPythonTextTail::STextTail *> > >::operator++
PUBLIC	??0?$_List_unchecked_const_iterator@V?$_List_val@U?$_List_simple_types@PAUSTextTail@CPythonTextTail@@@std@@@std@@U_Iterator_base0@2@@std@@QAE@PAU?$_List_node@PAUSTextTail@CPythonTextTail@@PAX@1@PBV?$_List_val@U?$_List_simple_types@PAUSTextTail@CPythonTextTail@@@std@@@1@@Z ; std::_List_unchecked_const_iterator<std::_List_val<std::_List_simple_types<CPythonTextTail::STextTail *> >,std::_Iterator_base0>::_List_unchecked_const_iterator<std::_List_val<std::_List_simple_types<CPythonTextTail::STextTail *> >,std::_Iterator_base0>
PUBLIC	?Destroy@?$CDynamicPool@USTextTail@CPythonTextTail@@@@QAEXXZ ; CDynamicPool<CPythonTextTail::STextTail>::Destroy
PUBLIC	??0?$vector@PAUSTextTail@CPythonTextTail@@V?$allocator@PAUSTextTail@CPythonTextTail@@@std@@@std@@QAE@XZ ; std::vector<CPythonTextTail::STextTail *,std::allocator<CPythonTextTail::STextTail *> >::vector<CPythonTextTail::STextTail *,std::allocator<CPythonTextTail::STextTail *> >
PUBLIC	??1?$vector@PAUSTextTail@CPythonTextTail@@V?$allocator@PAUSTextTail@CPythonTextTail@@@std@@@std@@QAE@XZ ; std::vector<CPythonTextTail::STextTail *,std::allocator<CPythonTextTail::STextTail *> >::~vector<CPythonTextTail::STextTail *,std::allocator<CPythonTextTail::STextTail *> >
PUBLIC	?push_back@?$vector@PAUSTextTail@CPythonTextTail@@V?$allocator@PAUSTextTail@CPythonTextTail@@@std@@@std@@QAEXABQAUSTextTail@CPythonTextTail@@@Z ; std::vector<CPythonTextTail::STextTail *,std::allocator<CPythonTextTail::STextTail *> >::push_back
PUBLIC	?pop_back@?$vector@PAUSTextTail@CPythonTextTail@@V?$allocator@PAUSTextTail@CPythonTextTail@@@std@@@std@@QAEXXZ ; std::vector<CPythonTextTail::STextTail *,std::allocator<CPythonTextTail::STextTail *> >::pop_back
PUBLIC	?empty@?$vector@PAUSTextTail@CPythonTextTail@@V?$allocator@PAUSTextTail@CPythonTextTail@@@std@@@std@@QBE_NXZ ; std::vector<CPythonTextTail::STextTail *,std::allocator<CPythonTextTail::STextTail *> >::empty
PUBLIC	?size@?$vector@PAUSTextTail@CPythonTextTail@@V?$allocator@PAUSTextTail@CPythonTextTail@@@std@@@std@@QBEIXZ ; std::vector<CPythonTextTail::STextTail *,std::allocator<CPythonTextTail::STextTail *> >::size
PUBLIC	?back@?$vector@PAUSTextTail@CPythonTextTail@@V?$allocator@PAUSTextTail@CPythonTextTail@@@std@@@std@@QAEAAPAUSTextTail@CPythonTextTail@@XZ ; std::vector<CPythonTextTail::STextTail *,std::allocator<CPythonTextTail::STextTail *> >::back
PUBLIC	?pointer_to@?$pointer_traits@PAU?$pair@$$CBKPAUSTextTail@CPythonTextTail@@@std@@@std@@SAPAU?$pair@$$CBKPAUSTextTail@CPythonTextTail@@@2@AAU32@@Z ; std::pointer_traits<std::pair<unsigned long const ,CPythonTextTail::STextTail *> *>::pointer_to
PUBLIC	??$?0$$V@?$_Compressed_pair@V?$allocator@U?$_List_node@PAUSTextTail@CPythonTextTail@@PAX@std@@@std@@V?$_List_val@U?$_List_simple_types@PAUSTextTail@CPythonTextTail@@@std@@@2@$00@std@@QAE@U_Zero_then_variadic_args_t@1@@Z ; std::_Compressed_pair<std::allocator<std::_List_node<CPythonTextTail::STextTail *,void *> >,std::_List_val<std::_List_simple_types<CPythonTextTail::STextTail *> >,1>::_Compressed_pair<std::allocator<std::_List_node<CPythonTextTail::STextTail *,void *> >,std::_List_val<std::_List_simple_types<CPythonTextTail::STextTail *> >,1><>
PUBLIC	??$addressof@V?$_List_val@U?$_List_simple_types@PAUSTextTail@CPythonTextTail@@@std@@@std@@@std@@YAPAV?$_List_val@U?$_List_simple_types@PAUSTextTail@CPythonTextTail@@@std@@@0@AAV10@@Z ; std::addressof<std::_List_val<std::_List_simple_types<CPythonTextTail::STextTail *> > >
PUBLIC	??$_Emplace@ABQAUSTextTail@CPythonTextTail@@@?$list@PAUSTextTail@CPythonTextTail@@V?$allocator@PAUSTextTail@CPythonTextTail@@@std@@@std@@QAEPAU?$_List_node@PAUSTextTail@CPythonTextTail@@PAX@1@QAU21@ABQAUSTextTail@CPythonTextTail@@@Z ; std::list<CPythonTextTail::STextTail *,std::allocator<CPythonTextTail::STextTail *> >::_Emplace<CPythonTextTail::STextTail * const &>
PUBLIC	??$_Free_non_head@V?$allocator@U?$_List_node@PAUSTextTail@CPythonTextTail@@PAX@std@@@std@@@?$_List_node@PAUSTextTail@CPythonTextTail@@PAX@std@@SAXAAV?$allocator@U?$_List_node@PAUSTextTail@CPythonTextTail@@PAX@std@@@1@PAU01@@Z ; std::_List_node<CPythonTextTail::STextTail *,void *>::_Free_non_head<std::allocator<std::_List_node<CPythonTextTail::STextTail *,void *> > >
PUBLIC	??$_Erase_head@V?$allocator@U?$_Tree_node@U?$pair@$$CBKPAUSTextTail@CPythonTextTail@@@std@@PAX@std@@@std@@@?$_Tree_val@U?$_Tree_simple_types@U?$pair@$$CBKPAUSTextTail@CPythonTextTail@@@std@@@std@@@std@@QAEXAAV?$allocator@U?$_Tree_node@U?$pair@$$CBKPAUSTextTail@CPythonTextTail@@@std@@PAX@std@@@1@@Z ; std::_Tree_val<std::_Tree_simple_types<std::pair<unsigned long const ,CPythonTextTail::STextTail *> > >::_Erase_head<std::allocator<std::_Tree_node<std::pair<unsigned long const ,CPythonTextTail::STextTail *>,void *> > >
PUBLIC	??$_Erase_tree@V?$allocator@U?$_Tree_node@U?$pair@$$CBKPAUSTextTail@CPythonTextTail@@@std@@PAX@std@@@std@@@?$_Tree_val@U?$_Tree_simple_types@U?$pair@$$CBKPAUSTextTail@CPythonTextTail@@@std@@@std@@@std@@QAEXAAV?$allocator@U?$_Tree_node@U?$pair@$$CBKPAUSTextTail@CPythonTextTail@@@std@@PAX@std@@@1@PAU?$_Tree_node@U?$pair@$$CBKPAUSTextTail@CPythonTextTail@@@std@@PAX@1@@Z ; std::_Tree_val<std::_Tree_simple_types<std::pair<unsigned long const ,CPythonTextTail::STextTail *> > >::_Erase_tree<std::allocator<std::_Tree_node<std::pair<unsigned long const ,CPythonTextTail::STextTail *>,void *> > >
PUBLIC	??$_Find@K@?$_Tree@V?$_Tmap_traits@KPAUSTextTail@CPythonTextTail@@U?$less@K@std@@V?$allocator@U?$pair@$$CBKPAUSTextTail@CPythonTextTail@@@std@@@4@$0A@@std@@@std@@ABEPAU?$_Tree_node@U?$pair@$$CBKPAUSTextTail@CPythonTextTail@@@std@@PAX@1@ABK@Z ; std::_Tree<std::_Tmap_traits<unsigned long,CPythonTextTail::STextTail *,std::less<unsigned long>,std::allocator<std::pair<unsigned long const ,CPythonTextTail::STextTail *> >,0> >::_Find<unsigned long>
PUBLIC	??$?0V?$_Tree_iterator@V?$_Tree_val@U?$_Tree_simple_types@U?$pair@$$CBKPAUSTextTail@CPythonTextTail@@@std@@@std@@@std@@@std@@AB_N$0A@@?$pair@V?$_Tree_iterator@V?$_Tree_val@U?$_Tree_simple_types@U?$pair@$$CBKPAUSTextTail@CPythonTextTail@@@std@@@std@@@std@@@std@@_N@std@@QAE@$$QAV?$_Tree_iterator@V?$_Tree_val@U?$_Tree_simple_types@U?$pair@$$CBKPAUSTextTail@CPythonTextTail@@@std@@@std@@@std@@@1@AB_N@Z ; std::pair<std::_Tree_iterator<std::_Tree_val<std::_Tree_simple_types<std::pair<unsigned long const ,CPythonTextTail::STextTail *> > > >,bool>::pair<std::_Tree_iterator<std::_Tree_val<std::_Tree_simple_types<std::pair<unsigned long const ,CPythonTextTail::STextTail *> > > >,bool><std::_Tree_iterator<std::_Tree_val<std::_Tree_simple_types<std::pair<unsigned long const ,CPythonTextTail::STextTail *> > > >,bool const &,0>
PUBLIC	??$_Emplace@U?$pair@$$CBKPAUSTextTail@CPythonTextTail@@@std@@@?$_Tree@V?$_Tmap_traits@KPAUSTextTail@CPythonTextTail@@U?$less@K@std@@V?$allocator@U?$pair@$$CBKPAUSTextTail@CPythonTextTail@@@std@@@4@$0A@@std@@@std@@IAE?AU?$pair@PAU?$_Tree_node@U?$pair@$$CBKPAUSTextTail@CPythonTextTail@@@std@@PAX@std@@_N@1@$$QAU?$pair@$$CBKPAUSTextTail@CPythonTextTail@@@1@@Z ; std::_Tree<std::_Tmap_traits<unsigned long,CPythonTextTail::STextTail *,std::less<unsigned long>,std::allocator<std::pair<unsigned long const ,CPythonTextTail::STextTail *> >,0> >::_Emplace<std::pair<unsigned long const ,CPythonTextTail::STextTail *> >
PUBLIC	??$move@AAU?$pair@$$CBKPAUSTextTail@CPythonTextTail@@@std@@@std@@YA$$QAU?$pair@$$CBKPAUSTextTail@CPythonTextTail@@@0@AAU10@@Z ; std::move<std::pair<unsigned long const ,CPythonTextTail::STextTail *> &>
PUBLIC	??$forward@AAPAUSTextTail@CPythonTextTail@@@std@@YAAAPAUSTextTail@CPythonTextTail@@AAPAU12@@Z ; std::forward<CPythonTextTail::STextTail * &>
PUBLIC	??$_Seek_wrapped@V?$_List_iterator@V?$_List_val@U?$_List_simple_types@PAUSTextTail@CPythonTextTail@@@std@@@std@@@std@@V?$_List_unchecked_iterator@V?$_List_val@U?$_List_simple_types@PAUSTextTail@CPythonTextTail@@@std@@@std@@@2@@std@@YAXAAV?$_List_iterator@V?$_List_val@U?$_List_simple_types@PAUSTextTail@CPythonTextTail@@@std@@@std@@@0@$$QAV?$_List_unchecked_iterator@V?$_List_val@U?$_List_simple_types@PAUSTextTail@CPythonTextTail@@@std@@@std@@@0@@Z ; std::_Seek_wrapped<std::_List_iterator<std::_List_val<std::_List_simple_types<CPythonTextTail::STextTail *> > >,std::_List_unchecked_iterator<std::_List_val<std::_List_simple_types<CPythonTextTail::STextTail *> > > >
PUBLIC	??$_Find_unchecked@V?$_List_unchecked_iterator@V?$_List_val@U?$_List_simple_types@PAUSTextTail@CPythonTextTail@@@std@@@std@@@std@@PAUSTextTail@CPythonTextTail@@@std@@YA?AV?$_List_unchecked_iterator@V?$_List_val@U?$_List_simple_types@PAUSTextTail@CPythonTextTail@@@std@@@std@@@0@V10@V10@ABQAUSTextTail@CPythonTextTail@@@Z ; std::_Find_unchecked<std::_List_unchecked_iterator<std::_List_val<std::_List_simple_types<CPythonTextTail::STextTail *> > >,CPythonTextTail::STextTail *>
PUBLIC	??$_Adl_verify_range@V?$_List_iterator@V?$_List_val@U?$_List_simple_types@PAUSTextTail@CPythonTextTail@@@std@@@std@@@std@@V12@@std@@YAXABV?$_List_iterator@V?$_List_val@U?$_List_simple_types@PAUSTextTail@CPythonTextTail@@@std@@@std@@@0@0@Z ; std::_Adl_verify_range<std::_List_iterator<std::_List_val<std::_List_simple_types<CPythonTextTail::STextTail *> > >,std::_List_iterator<std::_List_val<std::_List_simple_types<CPythonTextTail::STextTail *> > > >
PUBLIC	??0?$_List_const_iterator@V?$_List_val@U?$_List_simple_types@PAUSTextTail@CPythonTextTail@@@std@@@std@@@std@@QAE@PAU?$_List_node@PAUSTextTail@CPythonTextTail@@PAX@1@PBV?$_List_val@U?$_List_simple_types@PAUSTextTail@CPythonTextTail@@@std@@@1@@Z ; std::_List_const_iterator<std::_List_val<std::_List_simple_types<CPythonTextTail::STextTail *> > >::_List_const_iterator<std::_List_val<std::_List_simple_types<CPythonTextTail::STextTail *> > >
PUBLIC	??0?$_Tree_const_iterator@V?$_Tree_val@U?$_Tree_simple_types@U?$pair@$$CBKPAUSTextTail@CPythonTextTail@@@std@@@std@@@std@@@std@@QAE@PAU?$_Tree_node@U?$pair@$$CBKPAUSTextTail@CPythonTextTail@@@std@@PAX@1@PBV?$_Tree_val@U?$_Tree_simple_types@U?$pair@$$CBKPAUSTextTail@CPythonTextTail@@@std@@@std@@@1@@Z ; std::_Tree_const_iterator<std::_Tree_val<std::_Tree_simple_types<std::pair<unsigned long const ,CPythonTextTail::STextTail *> > > >::_Tree_const_iterator<std::_Tree_val<std::_Tree_simple_types<std::pair<unsigned long const ,CPythonTextTail::STextTail *> > > >
PUBLIC	??_G?$CSingleton@VCPythonTextTail@@@@UAEPAXI@Z	; CSingleton<CPythonTextTail>::`scalar deleting destructor'
PUBLIC	??0?$_List_iterator@V?$_List_val@U?$_List_simple_types@PAUSTextTail@CPythonTextTail@@@std@@@std@@@std@@QAE@PAU?$_List_node@PAUSTextTail@CPythonTextTail@@PAX@1@PBV?$_List_val@U?$_List_simple_types@PAUSTextTail@CPythonTextTail@@@std@@@1@@Z ; std::_List_iterator<std::_List_val<std::_List_simple_types<CPythonTextTail::STextTail *> > >::_List_iterator<std::_List_val<std::_List_simple_types<CPythonTextTail::STextTail *> > >
PUBLIC	??_G?$CDynamicPool@USTextTail@CPythonTextTail@@@@UAEPAXI@Z ; CDynamicPool<CPythonTextTail::STextTail>::`scalar deleting destructor'
PUBLIC	??0?$_Tree_iterator@V?$_Tree_val@U?$_Tree_simple_types@U?$pair@$$CBKPAUSTextTail@CPythonTextTail@@@std@@@std@@@std@@@std@@QAE@PAU?$_Tree_node@U?$pair@$$CBKPAUSTextTail@CPythonTextTail@@@std@@PAX@1@PBV?$_Tree_val@U?$_Tree_simple_types@U?$pair@$$CBKPAUSTextTail@CPythonTextTail@@@std@@@std@@@1@@Z ; std::_Tree_iterator<std::_Tree_val<std::_Tree_simple_types<std::pair<unsigned long const ,CPythonTextTail::STextTail *> > > >::_Tree_iterator<std::_Tree_val<std::_Tree_simple_types<std::pair<unsigned long const ,CPythonTextTail::STextTail *> > > >
PUBLIC	??0?$CSingleton@VCPythonTextTail@@@@QAE@XZ	; CSingleton<CPythonTextTail>::CSingleton<CPythonTextTail>
PUBLIC	??1?$CSingleton@VCPythonTextTail@@@@UAE@XZ	; CSingleton<CPythonTextTail>::~CSingleton<CPythonTextTail>
PUBLIC	??0?$map@KPAUSTextTail@CPythonTextTail@@U?$less@K@std@@V?$allocator@U?$pair@$$CBKPAUSTextTail@CPythonTextTail@@@std@@@4@@std@@QAE@XZ ; std::map<unsigned long,CPythonTextTail::STextTail *,std::less<unsigned long>,std::allocator<std::pair<unsigned long const ,CPythonTextTail::STextTail *> > >::map<unsigned long,CPythonTextTail::STextTail *,std::less<unsigned long>,std::allocator<std::pair<unsigned long const ,CPythonTextTail::STextTail *> > >
PUBLIC	??0?$list@PAUSTextTail@CPythonTextTail@@V?$allocator@PAUSTextTail@CPythonTextTail@@@std@@@std@@QAE@XZ ; std::list<CPythonTextTail::STextTail *,std::allocator<CPythonTextTail::STextTail *> >::list<CPythonTextTail::STextTail *,std::allocator<CPythonTextTail::STextTail *> >
PUBLIC	??1?$list@PAUSTextTail@CPythonTextTail@@V?$allocator@PAUSTextTail@CPythonTextTail@@@std@@@std@@QAE@XZ ; std::list<CPythonTextTail::STextTail *,std::allocator<CPythonTextTail::STextTail *> >::~list<CPythonTextTail::STextTail *,std::allocator<CPythonTextTail::STextTail *> >
PUBLIC	?begin@?$list@PAUSTextTail@CPythonTextTail@@V?$allocator@PAUSTextTail@CPythonTextTail@@@std@@@std@@QAE?AV?$_List_iterator@V?$_List_val@U?$_List_simple_types@PAUSTextTail@CPythonTextTail@@@std@@@std@@@2@XZ ; std::list<CPythonTextTail::STextTail *,std::allocator<CPythonTextTail::STextTail *> >::begin
PUBLIC	?end@?$list@PAUSTextTail@CPythonTextTail@@V?$allocator@PAUSTextTail@CPythonTextTail@@@std@@@std@@QAE?AV?$_List_iterator@V?$_List_val@U?$_List_simple_types@PAUSTextTail@CPythonTextTail@@@std@@@std@@@2@XZ ; std::list<CPythonTextTail::STextTail *,std::allocator<CPythonTextTail::STextTail *> >::end
PUBLIC	?size@?$list@PAUSTextTail@CPythonTextTail@@V?$allocator@PAUSTextTail@CPythonTextTail@@@std@@@std@@QBEIXZ ; std::list<CPythonTextTail::STextTail *,std::allocator<CPythonTextTail::STextTail *> >::size
PUBLIC	?push_back@?$list@PAUSTextTail@CPythonTextTail@@V?$allocator@PAUSTextTail@CPythonTextTail@@@std@@@std@@QAEXABQAUSTextTail@CPythonTextTail@@@Z ; std::list<CPythonTextTail::STextTail *,std::allocator<CPythonTextTail::STextTail *> >::push_back
PUBLIC	?clear@?$list@PAUSTextTail@CPythonTextTail@@V?$allocator@PAUSTextTail@CPythonTextTail@@@std@@@std@@QAEXXZ ; std::list<CPythonTextTail::STextTail *,std::allocator<CPythonTextTail::STextTail *> >::clear
PUBLIC	??1?$_Tree@V?$_Tmap_traits@KPAUSTextTail@CPythonTextTail@@U?$less@K@std@@V?$allocator@U?$pair@$$CBKPAUSTextTail@CPythonTextTail@@@std@@@4@$0A@@std@@@std@@QAE@XZ ; std::_Tree<std::_Tmap_traits<unsigned long,CPythonTextTail::STextTail *,std::less<unsigned long>,std::allocator<std::pair<unsigned long const ,CPythonTextTail::STextTail *> >,0> >::~_Tree<std::_Tmap_traits<unsigned long,CPythonTextTail::STextTail *,std::less<unsigned long>,std::allocator<std::pair<unsigned long const ,CPythonTextTail::STextTail *> >,0> >
PUBLIC	?begin@?$_Tree@V?$_Tmap_traits@KPAUSTextTail@CPythonTextTail@@U?$less@K@std@@V?$allocator@U?$pair@$$CBKPAUSTextTail@CPythonTextTail@@@std@@@4@$0A@@std@@@std@@QAE?AV?$_Tree_iterator@V?$_Tree_val@U?$_Tree_simple_types@U?$pair@$$CBKPAUSTextTail@CPythonTextTail@@@std@@@std@@@std@@@2@XZ ; std::_Tree<std::_Tmap_traits<unsigned long,CPythonTextTail::STextTail *,std::less<unsigned long>,std::allocator<std::pair<unsigned long const ,CPythonTextTail::STextTail *> >,0> >::begin
PUBLIC	?end@?$_Tree@V?$_Tmap_traits@KPAUSTextTail@CPythonTextTail@@U?$less@K@std@@V?$allocator@U?$pair@$$CBKPAUSTextTail@CPythonTextTail@@@std@@@4@$0A@@std@@@std@@QAE?AV?$_Tree_iterator@V?$_Tree_val@U?$_Tree_simple_types@U?$pair@$$CBKPAUSTextTail@CPythonTextTail@@@std@@@std@@@std@@@2@XZ ; std::_Tree<std::_Tmap_traits<unsigned long,CPythonTextTail::STextTail *,std::less<unsigned long>,std::allocator<std::pair<unsigned long const ,CPythonTextTail::STextTail *> >,0> >::end
PUBLIC	?size@?$_Tree@V?$_Tmap_traits@KPAUSTextTail@CPythonTextTail@@U?$less@K@std@@V?$allocator@U?$pair@$$CBKPAUSTextTail@CPythonTextTail@@@std@@@4@$0A@@std@@@std@@QBEIXZ ; std::_Tree<std::_Tmap_traits<unsigned long,CPythonTextTail::STextTail *,std::less<unsigned long>,std::allocator<std::pair<unsigned long const ,CPythonTextTail::STextTail *> >,0> >::size
PUBLIC	?clear@?$_Tree@V?$_Tmap_traits@KPAUSTextTail@CPythonTextTail@@U?$less@K@std@@V?$allocator@U?$pair@$$CBKPAUSTextTail@CPythonTextTail@@@std@@@4@$0A@@std@@@std@@QAEXXZ ; std::_Tree<std::_Tmap_traits<unsigned long,CPythonTextTail::STextTail *,std::less<unsigned long>,std::allocator<std::pair<unsigned long const ,CPythonTextTail::STextTail *> >,0> >::clear
PUBLIC	?find@?$_Tree@V?$_Tmap_traits@KPAUSTextTail@CPythonTextTail@@U?$less@K@std@@V?$allocator@U?$pair@$$CBKPAUSTextTail@CPythonTextTail@@@std@@@4@$0A@@std@@@std@@QAE?AV?$_Tree_iterator@V?$_Tree_val@U?$_Tree_simple_types@U?$pair@$$CBKPAUSTextTail@CPythonTextTail@@@std@@@std@@@std@@@2@ABK@Z ; std::_Tree<std::_Tmap_traits<unsigned long,CPythonTextTail::STextTail *,std::less<unsigned long>,std::allocator<std::pair<unsigned long const ,CPythonTextTail::STextTail *> >,0> >::find
PUBLIC	??8?$_Tree_const_iterator@V?$_Tree_val@U?$_Tree_simple_types@U?$pair@$$CBKPAUSTextTail@CPythonTextTail@@@std@@@std@@@std@@@std@@QBE_NABV01@@Z ; std::_Tree_const_iterator<std::_Tree_val<std::_Tree_simple_types<std::pair<unsigned long const ,CPythonTextTail::STextTail *> > > >::operator==
PUBLIC	??C?$_Tree_iterator@V?$_Tree_val@U?$_Tree_simple_types@U?$pair@$$CBKPAUSTextTail@CPythonTextTail@@@std@@@std@@@std@@@std@@QBEPAU?$pair@$$CBKPAUSTextTail@CPythonTextTail@@@1@XZ ; std::_Tree_iterator<std::_Tree_val<std::_Tree_simple_types<std::pair<unsigned long const ,CPythonTextTail::STextTail *> > > >::operator->
PUBLIC	??E?$_Tree_iterator@V?$_Tree_val@U?$_Tree_simple_types@U?$pair@$$CBKPAUSTextTail@CPythonTextTail@@@std@@@std@@@std@@@std@@QAEAAV01@XZ ; std::_Tree_iterator<std::_Tree_val<std::_Tree_simple_types<std::pair<unsigned long const ,CPythonTextTail::STextTail *> > > >::operator++
PUBLIC	??0?$_Tree_unchecked_const_iterator@V?$_Tree_val@U?$_Tree_simple_types@U?$pair@$$CBKPAUSTextTail@CPythonTextTail@@@std@@@std@@@std@@U_Iterator_base0@2@@std@@QAE@XZ ; std::_Tree_unchecked_const_iterator<std::_Tree_val<std::_Tree_simple_types<std::pair<unsigned long const ,CPythonTextTail::STextTail *> > >,std::_Iterator_base0>::_Tree_unchecked_const_iterator<std::_Tree_val<std::_Tree_simple_types<std::pair<unsigned long const ,CPythonTextTail::STextTail *> > >,std::_Iterator_base0>
PUBLIC	??D?$_List_iterator@V?$_List_val@U?$_List_simple_types@PAUSTextTail@CPythonTextTail@@@std@@@std@@@std@@QBEAAPAUSTextTail@CPythonTextTail@@XZ ; std::_List_iterator<std::_List_val<std::_List_simple_types<CPythonTextTail::STextTail *> > >::operator*
PUBLIC	??E?$_List_iterator@V?$_List_val@U?$_List_simple_types@PAUSTextTail@CPythonTextTail@@@std@@@std@@@std@@QAEAAV01@XZ ; std::_List_iterator<std::_List_val<std::_List_simple_types<CPythonTextTail::STextTail *> > >::operator++
PUBLIC	??8?$_List_const_iterator@V?$_List_val@U?$_List_simple_types@PAUSTextTail@CPythonTextTail@@@std@@@std@@@std@@QBE_NABV01@@Z ; std::_List_const_iterator<std::_List_val<std::_List_simple_types<CPythonTextTail::STextTail *> > >::operator==
PUBLIC	??0?$_List_unchecked_const_iterator@V?$_List_val@U?$_List_simple_types@PAUSTextTail@CPythonTextTail@@@std@@@std@@U_Iterator_base0@2@@std@@QAE@XZ ; std::_List_unchecked_const_iterator<std::_List_val<std::_List_simple_types<CPythonTextTail::STextTail *> >,std::_Iterator_base0>::_List_unchecked_const_iterator<std::_List_val<std::_List_simple_types<CPythonTextTail::STextTail *> >,std::_Iterator_base0>
PUBLIC	??0?$CDynamicPool@USTextTail@CPythonTextTail@@@@QAE@XZ ; CDynamicPool<CPythonTextTail::STextTail>::CDynamicPool<CPythonTextTail::STextTail>
PUBLIC	??1?$CDynamicPool@USTextTail@CPythonTextTail@@@@UAE@XZ ; CDynamicPool<CPythonTextTail::STextTail>::~CDynamicPool<CPythonTextTail::STextTail>
PUBLIC	?Clear@?$CDynamicPool@USTextTail@CPythonTextTail@@@@QAEXXZ ; CDynamicPool<CPythonTextTail::STextTail>::Clear
PUBLIC	?Alloc@?$CDynamicPool@USTextTail@CPythonTextTail@@@@QAEPAUSTextTail@CPythonTextTail@@XZ ; CDynamicPool<CPythonTextTail::STextTail>::Alloc
PUBLIC	?Free@?$CDynamicPool@USTextTail@CPythonTextTail@@@@QAEXPAUSTextTail@CPythonTextTail@@@Z ; CDynamicPool<CPythonTextTail::STextTail>::Free
PUBLIC	?GetCapacity@?$CDynamicPool@USTextTail@CPythonTextTail@@@@QAEKXZ ; CDynamicPool<CPythonTextTail::STextTail>::GetCapacity
PUBLIC	??$insert@$0A@$0A@@?$_Tree@V?$_Tmap_traits@KPAUSTextTail@CPythonTextTail@@U?$less@K@std@@V?$allocator@U?$pair@$$CBKPAUSTextTail@CPythonTextTail@@@std@@@4@$0A@@std@@@std@@QAE?AU?$pair@V?$_Tree_iterator@V?$_Tree_val@U?$_Tree_simple_types@U?$pair@$$CBKPAUSTextTail@CPythonTextTail@@@std@@@std@@@std@@@std@@_N@1@$$QAU?$pair@$$CBKPAUSTextTail@CPythonTextTail@@@1@@Z ; std::_Tree<std::_Tmap_traits<unsigned long,CPythonTextTail::STextTail *,std::less<unsigned long>,std::allocator<std::pair<unsigned long const ,CPythonTextTail::STextTail *> >,0> >::insert<0,0>
PUBLIC	??$?0AAKAAPAUSTextTail@CPythonTextTail@@$0A@@?$pair@$$CBKPAUSTextTail@CPythonTextTail@@@std@@QAE@AAKAAPAUSTextTail@CPythonTextTail@@@Z ; std::pair<unsigned long const ,CPythonTextTail::STextTail *>::pair<unsigned long const ,CPythonTextTail::STextTail *><unsigned long &,CPythonTextTail::STextTail * &,0>
PUBLIC	??$_Get_unwrapped@ABV?$_List_iterator@V?$_List_val@U?$_List_simple_types@PAUSTextTail@CPythonTextTail@@@std@@@std@@@std@@@std@@YA?A_TABV?$_List_iterator@V?$_List_val@U?$_List_simple_types@PAUSTextTail@CPythonTextTail@@@std@@@std@@@0@@Z ; std::_Get_unwrapped<std::_List_iterator<std::_List_val<std::_List_simple_types<CPythonTextTail::STextTail *> > > const &>
PUBLIC	??$_Get_unwrapped@AAV?$_List_iterator@V?$_List_val@U?$_List_simple_types@PAUSTextTail@CPythonTextTail@@@std@@@std@@@std@@@std@@YA?A_TAAV?$_List_iterator@V?$_List_val@U?$_List_simple_types@PAUSTextTail@CPythonTextTail@@@std@@@std@@@0@@Z ; std::_Get_unwrapped<std::_List_iterator<std::_List_val<std::_List_simple_types<CPythonTextTail::STextTail *> > > &>
PUBLIC	??$find@V?$_List_iterator@V?$_List_val@U?$_List_simple_types@PAUSTextTail@CPythonTextTail@@@std@@@std@@@std@@PAUSTextTail@CPythonTextTail@@@std@@YA?AV?$_List_iterator@V?$_List_val@U?$_List_simple_types@PAUSTextTail@CPythonTextTail@@@std@@@std@@@0@V10@V10@ABQAUSTextTail@CPythonTextTail@@@Z ; std::find<std::_List_iterator<std::_List_val<std::_List_simple_types<CPythonTextTail::STextTail *> > >,CPythonTextTail::STextTail *>
PUBLIC	??$erase@V?$_Tree_iterator@V?$_Tree_val@U?$_Tree_simple_types@U?$pair@$$CBKPAUSTextTail@CPythonTextTail@@@std@@@std@@@std@@@std@@$0A@@?$_Tree@V?$_Tmap_traits@KPAUSTextTail@CPythonTextTail@@U?$less@K@std@@V?$allocator@U?$pair@$$CBKPAUSTextTail@CPythonTextTail@@@std@@@4@$0A@@std@@@std@@QAE?AV?$_Tree_iterator@V?$_Tree_val@U?$_Tree_simple_types@U?$pair@$$CBKPAUSTextTail@CPythonTextTail@@@std@@@std@@@std@@@1@V21@@Z ; std::_Tree<std::_Tmap_traits<unsigned long,CPythonTextTail::STextTail *,std::less<unsigned long>,std::allocator<std::pair<unsigned long const ,CPythonTextTail::STextTail *> >,0> >::erase<std::_Tree_iterator<std::_Tree_val<std::_Tree_simple_types<std::pair<unsigned long const ,CPythonTextTail::STextTail *> > > >,0>
PUBLIC	??1?$map@KPAUSTextTail@CPythonTextTail@@U?$less@K@std@@V?$allocator@U?$pair@$$CBKPAUSTextTail@CPythonTextTail@@@std@@@4@@std@@QAE@XZ ; std::map<unsigned long,CPythonTextTail::STextTail *,std::less<unsigned long>,std::allocator<std::pair<unsigned long const ,CPythonTextTail::STextTail *> > >::~map<unsigned long,CPythonTextTail::STextTail *,std::less<unsigned long>,std::allocator<std::pair<unsigned long const ,CPythonTextTail::STextTail *> > >
PUBLIC	??_GCPythonTextTail@@UAEPAXI@Z			; CPythonTextTail::`scalar deleting destructor'
PUBLIC	?Clear@CPythonTextTail@@QAEXXZ			; CPythonTextTail::Clear
PUBLIC	?EnablePKTitle@CPythonTextTail@@QAEXH@Z		; CPythonTextTail::EnablePKTitle
PUBLIC	?SelectItemName@CPythonTextTail@@QAEXK@Z	; CPythonTextTail::SelectItemName
PUBLIC	?DeleteTextTail@CPythonTextTail@@IAEXPAUSTextTail@1@@Z ; CPythonTextTail::DeleteTextTail
PUBLIC	?RegisterTextTail@CPythonTextTail@@IAEPAUSTextTail@1@KPBDPAVCGraphicObjectInstance@@MABUD3DXCOLOR@@V?$basic_string@DU?$char_traits@D@std@@V?$allocator@D@2@@std@@@Z ; CPythonTextTail::RegisterTextTail
PUBLIC	?IsChatTextTail@CPythonTextTail@@QAE_NK@Z	; CPythonTextTail::IsChatTextTail
PUBLIC	?GetTextTailPosition@CPythonTextTail@@QAE_NKPAM00@Z ; CPythonTextTail::GetTextTailPosition
PUBLIC	?RegisterInfoTail@CPythonTextTail@@QAEXKPBD@Z	; CPythonTextTail::RegisterInfoTail
PUBLIC	?isIn@CPythonTextTail@@IAE_NPAUSTextTail@1@0@Z	; CPythonTextTail::isIn
PUBLIC	?ShowItemTextTail@CPythonTextTail@@QAEXK@Z	; CPythonTextTail::ShowItemTextTail
PUBLIC	?ShowCharacterTextTail@CPythonTextTail@@QAEXK@Z	; CPythonTextTail::ShowCharacterTextTail
PUBLIC	?ShowAllTextTail@CPythonTextTail@@QAEXXZ	; CPythonTextTail::ShowAllTextTail
PUBLIC	?UpdateDistance@CPythonTextTail@@IAEXABUD3DXVECTOR3@@PAUSTextTail@1@@Z ; CPythonTextTail::UpdateDistance
PUBLIC	?HideAllTextTail@CPythonTextTail@@QAEXXZ	; CPythonTextTail::HideAllTextTail
PUBLIC	?RenderTextTailName@CPythonTextTail@@IAEXPAUSTextTail@1@@Z ; CPythonTextTail::RenderTextTailName
PUBLIC	?RenderTextTailBox@CPythonTextTail@@IAEXPAUSTextTail@1@@Z ; CPythonTextTail::RenderTextTailBox
PUBLIC	?Render@CPythonTextTail@@QAEXXZ			; CPythonTextTail::Render
PUBLIC	?ArrangeTextTail@CPythonTextTail@@QAEXXZ	; CPythonTextTail::ArrangeTextTail
PUBLIC	?UpdateTextTail@CPythonTextTail@@IAEXPAUSTextTail@1@@Z ; CPythonTextTail::UpdateTextTail
PUBLIC	??0?$_List_const_iterator@V?$_List_val@U?$_List_simple_types@PAUSTextTail@CPythonTextTail@@@std@@@std@@@std@@QAE@XZ ; std::_List_const_iterator<std::_List_val<std::_List_simple_types<CPythonTextTail::STextTail *> > >::_List_const_iterator<std::_List_val<std::_List_simple_types<CPythonTextTail::STextTail *> > >
PUBLIC	??0?$_List_iterator@V?$_List_val@U?$_List_simple_types@PAUSTextTail@CPythonTextTail@@@std@@@std@@@std@@QAE@XZ ; std::_List_iterator<std::_List_val<std::_List_simple_types<CPythonTextTail::STextTail *> > >::_List_iterator<std::_List_val<std::_List_simple_types<CPythonTextTail::STextTail *> > >
PUBLIC	?UpdateShowingTextTail@CPythonTextTail@@QAEXXZ	; CPythonTextTail::UpdateShowingTextTail
PUBLIC	??0?$_Tree_const_iterator@V?$_Tree_val@U?$_Tree_simple_types@U?$pair@$$CBKPAUSTextTail@CPythonTextTail@@@std@@@std@@@std@@@std@@QAE@XZ ; std::_Tree_const_iterator<std::_Tree_val<std::_Tree_simple_types<std::pair<unsigned long const ,CPythonTextTail::STextTail *> > > >::_Tree_const_iterator<std::_Tree_val<std::_Tree_simple_types<std::pair<unsigned long const ,CPythonTextTail::STextTail *> > > >
PUBLIC	??0?$_Tree_iterator@V?$_Tree_val@U?$_Tree_simple_types@U?$pair@$$CBKPAUSTextTail@CPythonTextTail@@@std@@@std@@@std@@@std@@QAE@XZ ; std::_Tree_iterator<std::_Tree_val<std::_Tree_simple_types<std::pair<unsigned long const ,CPythonTextTail::STextTail *> > > >::_Tree_iterator<std::_Tree_val<std::_Tree_simple_types<std::pair<unsigned long const ,CPythonTextTail::STextTail *> > > >
PUBLIC	?UpdateAllTextTail@CPythonTextTail@@QAEXXZ	; CPythonTextTail::UpdateAllTextTail
PUBLIC	?TextTail_GetLivingTime@@YAJXZ			; TextTail_GetLivingTime
PUBLIC	??_GSTextTail@CPythonTextTail@@UAEPAXI@Z	; CPythonTextTail::STextTail::`scalar deleting destructor'
PUBLIC	??1STextTail@CPythonTextTail@@UAE@XZ		; CPythonTextTail::STextTail::~STextTail
PUBLIC	??0STextTail@CPythonTextTail@@QAE@XZ		; CPythonTextTail::STextTail::STextTail
PUBLIC	?GetLanguage2@CInstanceBase@@QAEEXZ		; CInstanceBase::GetLanguage2
PUBLIC	?GetLanguage@CInstanceBase@@QAEEXZ		; CInstanceBase::GetLanguage
PUBLIC	?RegisterChatTail@CPythonTextTail@@QAEXKPBD@Z	; CPythonTextTail::RegisterChatTail
PUBLIC	?RegisterItemTextTail@CPythonTextTail@@QAEXKPBDPAVCGraphicObjectInstance@@@Z ; CPythonTextTail::RegisterItemTextTail
PUBLIC	?SetItemTextTailOwner@CPythonTextTail@@QAEXKPBD@Z ; CPythonTextTail::SetItemTextTailOwner
PUBLIC	?DeleteItemTextTail@CPythonTextTail@@QAEXK@Z	; CPythonTextTail::DeleteItemTextTail
PUBLIC	?Pick@CPythonTextTail@@QAEHHH@Z			; CPythonTextTail::Pick
PUBLIC	?TextTail_SetLivingTime@@YAXJ@Z			; TextTail_SetLivingTime
PUBLIC	??0CPythonTextTail@@QAE@XZ			; CPythonTextTail::CPythonTextTail
PUBLIC	??1CPythonTextTail@@UAE@XZ			; CPythonTextTail::~CPythonTextTail
PUBLIC	?GetInfo@CPythonTextTail@@QAEXPAV?$basic_string@DU?$char_traits@D@std@@V?$allocator@D@2@@std@@@Z ; CPythonTextTail::GetInfo
PUBLIC	?Initialize@CPythonTextTail@@QAEXXZ		; CPythonTextTail::Initialize
PUBLIC	?Destroy@CPythonTextTail@@QAEXXZ		; CPythonTextTail::Destroy
PUBLIC	?RegisterCharacterTextTail@CPythonTextTail@@QAEXKEKABUD3DXCOLOR@@M@Z ; CPythonTextTail::RegisterCharacterTextTail
PUBLIC	?DeleteCharacterTextTail@CPythonTextTail@@QAEXK@Z ; CPythonTextTail::DeleteCharacterTextTail
PUBLIC	?AttachLevel@CPythonTextTail@@QAEXKPBDABUD3DXCOLOR@@@Z ; CPythonTextTail::AttachLevel
PUBLIC	?DetachLevel@CPythonTextTail@@QAEXK@Z		; CPythonTextTail::DetachLevel
PUBLIC	?SetCharacterTextTailColor@CPythonTextTail@@QAEXKABUD3DXCOLOR@@@Z ; CPythonTextTail::SetCharacterTextTailColor
PUBLIC	?DetachTitle@CPythonTextTail@@QAEXK@Z		; CPythonTextTail::DetachTitle
PUBLIC	?AttachTitle@CPythonTextTail@@QAEXKPBDABUD3DXCOLOR@@@Z ; CPythonTextTail::AttachTitle
PUBLIC	?DetachTitleSystem@CPythonTextTail@@QAEXK@Z	; CPythonTextTail::DetachTitleSystem
PUBLIC	?AttachTitleSystem@CPythonTextTail@@QAEXKPBDABUD3DXCOLOR@@@Z ; CPythonTextTail::AttachTitleSystem
EXTRN	??_ECPythonTextTail@@UAEPAXI@Z:PROC		; CPythonTextTail::`vector deleting destructor'
EXTRN	??_E?$CSingleton@VCPythonTextTail@@@@UAEPAXI@Z:PROC ; CSingleton<CPythonTextTail>::`vector deleting destructor'
EXTRN	??_ESTextTail@CPythonTextTail@@UAEPAXI@Z:PROC	; CPythonTextTail::STextTail::`vector deleting destructor'
EXTRN	??_E?$CDynamicPool@USTextTail@CPythonTextTail@@@@UAEPAXI@Z:PROC ; CDynamicPool<CPythonTextTail::STextTail>::`vector deleting destructor'
?vecDropSoundFileName@@3V?$array@U?$pair@KV?$basic_string@DU?$char_traits@D@std@@V?$allocator@D@2@@std@@@std@@$04@std@@B DB 08cH DUP (?) ; vecDropSoundFileName
?vecEffectList@@3V?$vector@V?$tuple@IPBDPBD_N@std@@V?$allocator@V?$tuple@IPBDPBD_N@std@@@2@@std@@B DB 0cH DUP (?) ; vecEffectList
?characterNameColors@@3V?$map@EV?$array@E$02@std@@U?$less@E@2@V?$allocator@U?$pair@$$CBEV?$array@E$02@std@@@std@@@2@@std@@B DQ 01H DUP (?) ; characterNameColors
?characterTitleColors@@3V?$map@EV?$array@E$02@std@@U?$less@E@2@V?$allocator@U?$pair@$$CBEV?$array@E$02@std@@@std@@@2@@std@@B DQ 01H DUP (?) ; characterTitleColors
?characterTitleSystemColors@@3V?$map@EV?$array@E$02@std@@U?$less@E@2@V?$allocator@U?$pair@$$CBEV?$array@E$02@std@@@std@@@2@@std@@B DQ 01H DUP (?) ; characterTitleSystemColors
?emotionIcons@@3V?$map@EPBDU?$less@E@std@@V?$allocator@U?$pair@$$CBEPBD@std@@@2@@std@@B DQ 01H DUP (?) ; emotionIcons
?skillIndexes@@3V?$map@EV?$map@EV?$vector@EV?$allocator@E@std@@@std@@U?$less@E@2@V?$allocator@U?$pair@$$CBEV?$vector@EV?$allocator@E@std@@@std@@@std@@@2@@std@@U?$less@E@2@V?$allocator@U?$pair@$$CBEV?$map@EV?$vector@EV?$allocator@E@std@@@std@@U?$less@E@2@V?$allocator@U?$pair@$$CBEV?$vector@EV?$allocator@E@std@@@std@@@std@@@2@@std@@@std@@@2@@std@@B DQ 01H DUP (?) ; skillIndexes
?guildSkills@@3V?$map@V?$basic_string@DU?$char_traits@D@std@@V?$allocator@D@2@@std@@V?$vector@EV?$allocator@E@std@@@2@U?$less@V?$basic_string@DU?$char_traits@D@std@@V?$allocator@D@2@@std@@@2@V?$allocator@U?$pair@$$CBV?$basic_string@DU?$char_traits@D@std@@V?$allocator@D@2@@std@@V?$vector@EV?$allocator@E@std@@@2@@std@@@2@@std@@B DQ 01H DUP (?) ; guildSkills
_BSS	ENDS
;	COMDAT ?$TSS0@?1??ShowCharacterTextTail@CPythonTextTail@@QAEXK@Z@4HA
_BSS	SEGMENT
?$TSS0@?1??ShowCharacterTextTail@CPythonTextTail@@QAEXK@Z@4HA DD 01H DUP (?) ; `CPythonTextTail::ShowCharacterTextTail'::`2'::$TSS0
_BSS	ENDS
;	COMDAT ?system@?1??ShowCharacterTextTail@CPythonTextTail@@QAEXK@Z@4AAVCPythonSystem@@A
_BSS	SEGMENT
?system@?1??ShowCharacterTextTail@CPythonTextTail@@QAEXK@Z@4AAVCPythonSystem@@A DD 01H DUP (?) ; `CPythonTextTail::ShowCharacterTextTail'::`2'::system
_BSS	ENDS
;	COMDAT ?$TSS0@?M@??ShowItemTextTail@CPythonTextTail@@QAEXK@Z@4HA
_BSS	SEGMENT
?$TSS0@?M@??ShowItemTextTail@CPythonTextTail@@QAEXK@Z@4HA DD 01H DUP (?) ; `CPythonTextTail::ShowItemTextTail'::`12'::$TSS0
_BSS	ENDS
;	COMDAT ?system@?M@??ShowItemTextTail@CPythonTextTail@@QAEXK@Z@4AAVCPythonSystem@@A
_BSS	SEGMENT
?system@?M@??ShowItemTextTail@CPythonTextTail@@QAEXK@Z@4AAVCPythonSystem@@A DD 01H DUP (?) ; `CPythonTextTail::ShowItemTextTail'::`12'::system
_BSS	ENDS
;	COMDAT xdata$x
xdata$x	SEGMENT
__ehfuncinfo$?RegisterCharacterTextTail@CPythonTextTail@@QAEXKEKABUD3DXCOLOR@@M@Z DQ 00000000419930522r ; 8.69997e-314
	DD	FLAT:__unwindtable$?RegisterCharacterTextTail@CPythonTextTail@@QAEXKEKABUD3DXCOLOR@@M@Z
	DQ	00000000000000000r		; 0
	DQ	00000000000000000r		; 0
	DQ	00000000100000000r		; 2.122e-314
__unwindtable$?RegisterCharacterTextTail@CPythonTextTail@@QAEXKEKABUD3DXCOLOR@@M@Z DD 0ffffffffH
	DD	FLAT:__unwindfunclet$?RegisterCharacterTextTail@CPythonTextTail@@QAEXKEKABUD3DXCOLOR@@M@Z$1
	DD	0ffffffffH
	DD	FLAT:__unwindfunclet$?RegisterCharacterTextTail@CPythonTextTail@@QAEXKEKABUD3DXCOLOR@@M@Z$2
	DD	0ffffffffH
	DD	FLAT:__unwindfunclet$?RegisterCharacterTextTail@CPythonTextTail@@QAEXKEKABUD3DXCOLOR@@M@Z$3
	DD	0ffffffffH
	DD	FLAT:__unwindfunclet$?RegisterCharacterTextTail@CPythonTextTail@@QAEXKEKABUD3DXCOLOR@@M@Z$4
xdata$x	ENDS
;	COMDAT xdata$x
xdata$x	SEGMENT
__ehfuncinfo$??0CPythonTextTail@@QAE@XZ DQ 00000000519930522r ; 1.0822e-313
	DD	FLAT:__unwindtable$??0CPythonTextTail@@QAE@XZ
	DQ	00000000000000000r		; 0
	DQ	00000000000000000r		; 0
	DQ	00000000100000000r		; 2.122e-314
__unwindtable$??0CPythonTextTail@@QAE@XZ DD 0ffffffffH
	DD	FLAT:__unwindfunclet$??0CPythonTextTail@@QAE@XZ$0
	DD	00H
	DD	FLAT:__unwindfunclet$??0CPythonTextTail@@QAE@XZ$1
	DD	01H
	DD	FLAT:__unwindfunclet$??0CPythonTextTail@@QAE@XZ$2
	DD	02H
	DD	FLAT:__unwindfunclet$??0CPythonTextTail@@QAE@XZ$3
	DD	03H
	DD	FLAT:__unwindfunclet$??0CPythonTextTail@@QAE@XZ$4
xdata$x	ENDS
;	COMDAT xdata$x
xdata$x	SEGMENT
__ehfuncinfo$?SetItemTextTailOwner@CPythonTextTail@@QAEXKPBD@Z DQ 00000000119930522r ; 2.33398e-314
	DD	FLAT:__unwindtable$?SetItemTextTailOwner@CPythonTextTail@@QAEXKPBD@Z
	DQ	00000000000000000r		; 0
	DQ	00000000000000000r		; 0
	DQ	00000000100000000r		; 2.122e-314
__unwindtable$?SetItemTextTailOwner@CPythonTextTail@@QAEXKPBD@Z DD 0ffffffffH
	DD	FLAT:__unwindfunclet$?SetItemTextTailOwner@CPythonTextTail@@QAEXKPBD@Z$0
xdata$x	ENDS
;	COMDAT xdata$x
xdata$x	SEGMENT
__ehfuncinfo$??__EvecUseSoundFileName@@YAXXZ DQ 00000000619930522r ; 1.2944e-313
	DD	FLAT:__unwindtable$??__EvecUseSoundFileName@@YAXXZ
	DQ	00000000000000000r		; 0
	DQ	00000000000000000r		; 0
	DQ	00000000100000000r		; 2.122e-314
__unwindtable$??__EvecUseSoundFileName@@YAXXZ DD 0ffffffffH
	DD	FLAT:__unwindfunclet$??__EvecUseSoundFileName@@YAXXZ$0
	DD	00H
	DD	FLAT:__unwindfunclet$??__EvecUseSoundFileName@@YAXXZ$1
	DD	01H
	DD	FLAT:__unwindfunclet$??__EvecUseSoundFileName@@YAXXZ$2
	DD	02H
	DD	FLAT:__unwindfunclet$??__EvecUseSoundFileName@@YAXXZ$3
	DD	03H
	DD	FLAT:__unwindfunclet$??__EvecUseSoundFileName@@YAXXZ$4
	DD	04H
	DD	FLAT:__unwindfunclet$??__EvecUseSoundFileName@@YAXXZ$5
xdata$x	ENDS
;	COMDAT xdata$x
xdata$x	SEGMENT
__ehfuncinfo$??__FvecUseSoundFileName@@YAXXZ DQ 00000000119930522r ; 2.33398e-314
	DD	FLAT:__unwindtable$??__FvecUseSoundFileName@@YAXXZ
	DQ	00000000000000000r		; 0
	DQ	00000000000000000r		; 0
	DQ	00000000100000000r		; 2.122e-314
__unwindtable$??__FvecUseSoundFileName@@YAXXZ DD 0ffffffffH
	DD	FLAT:___std_terminate
xdata$x	ENDS
;	COMDAT xdata$x
xdata$x	SEGMENT
__ehfuncinfo$??__EvecDropSoundFileName@@YAXXZ DQ 00000000419930522r ; 8.69997e-314
	DD	FLAT:__unwindtable$??__EvecDropSoundFileName@@YAXXZ
	DQ	00000000000000000r		; 0
	DQ	00000000000000000r		; 0
	DQ	00000000100000000r		; 2.122e-314
__unwindtable$??__EvecDropSoundFileName@@YAXXZ DD 0ffffffffH
	DD	FLAT:__unwindfunclet$??__EvecDropSoundFileName@@YAXXZ$0
	DD	00H
	DD	FLAT:__unwindfunclet$??__EvecDropSoundFileName@@YAXXZ$1
	DD	01H
	DD	FLAT:__unwindfunclet$??__EvecDropSoundFileName@@YAXXZ$2
	DD	02H
	DD	FLAT:__unwindfunclet$??__EvecDropSoundFileName@@YAXXZ$3
xdata$x	ENDS
;	COMDAT xdata$x
xdata$x	SEGMENT
__ehfuncinfo$??__FvecDropSoundFileName@@YAXXZ DQ 00000000119930522r ; 2.33398e-314
	DD	FLAT:__unwindtable$??__FvecDropSoundFileName@@YAXXZ
	DQ	00000000000000000r		; 0
	DQ	00000000000000000r		; 0
	DQ	00000000100000000r		; 2.122e-314
__unwindtable$??__FvecDropSoundFileName@@YAXXZ DD 0ffffffffH
	DD	FLAT:___std_terminate
xdata$x	ENDS
;	COMDAT xdata$x
xdata$x	SEGMENT
__ehfuncinfo$??__EskillIndexes@@YAXXZ DQ 00000002819930522r ; 8.50918e-313
	DD	FLAT:__unwindtable$??__EskillIndexes@@YAXXZ
	DQ	00000000000000000r		; 0
	DQ	00000000000000000r		; 0
	DQ	00000000100000000r		; 2.122e-314
	ORG $+4
__unwindtable$??__EskillIndexes@@YAXXZ DD 0ffffffffH
	DD	FLAT:__unwindfunclet$??__EskillIndexes@@YAXXZ$0
	DD	00H
	DD	FLAT:__unwindfunclet$??__EskillIndexes@@YAXXZ$1
	DD	01H
	DD	FLAT:__unwindfunclet$??__EskillIndexes@@YAXXZ$2
	DD	00H
	DD	FLAT:__unwindfunclet$??__EskillIndexes@@YAXXZ$2
	DD	03H
	DD	FLAT:__unwindfunclet$??__EskillIndexes@@YAXXZ$4
	DD	04H
	DD	FLAT:__unwindfunclet$??__EskillIndexes@@YAXXZ$5
	DD	05H
	DD	FLAT:__unwindfunclet$??__EskillIndexes@@YAXXZ$6
	DD	06H
	DD	FLAT:__unwindfunclet$??__EskillIndexes@@YAXXZ$7
	DD	07H
	DD	FLAT:__unwindfunclet$??__EskillIndexes@@YAXXZ$8
	DD	08H
	DD	FLAT:__unwindfunclet$??__EskillIndexes@@YAXXZ$9
	DD	07H
	DD	FLAT:__unwindfunclet$??__EskillIndexes@@YAXXZ$9
	DD	0aH
	DD	FLAT:__unwindfunclet$??__EskillIndexes@@YAXXZ$11
	DD	0bH
	DD	FLAT:__unwindfunclet$??__EskillIndexes@@YAXXZ$12
	DD	0cH
	DD	FLAT:__unwindfunclet$??__EskillIndexes@@YAXXZ$13
	DD	0dH
	DD	FLAT:__unwindfunclet$??__EskillIndexes@@YAXXZ$14
	DD	0eH
	DD	FLAT:__unwindfunclet$??__EskillIndexes@@YAXXZ$15
	DD	0fH
	DD	FLAT:__unwindfunclet$??__EskillIndexes@@YAXXZ$16
	DD	0eH
	DD	FLAT:__unwindfunclet$??__EskillIndexes@@YAXXZ$16
	DD	011H
	DD	FLAT:__unwindfunclet$??__EskillIndexes@@YAXXZ$18
	DD	012H
	DD	FLAT:__unwindfunclet$??__EskillIndexes@@YAXXZ$19
	DD	013H
	DD	FLAT:__unwindfunclet$??__EskillIndexes@@YAXXZ$20
	DD	014H
	DD	FLAT:__unwindfunclet$??__EskillIndexes@@YAXXZ$21
	DD	015H
	DD	FLAT:__unwindfunclet$??__EskillIndexes@@YAXXZ$22
	DD	016H
	DD	FLAT:__unwindfunclet$??__EskillIndexes@@YAXXZ$23
	DD	015H
	DD	FLAT:__unwindfunclet$??__EskillIndexes@@YAXXZ$23
	DD	018H
	DD	FLAT:__unwindfunclet$??__EskillIndexes@@YAXXZ$25
	DD	019H
	DD	FLAT:__unwindfunclet$??__EskillIndexes@@YAXXZ$26
	DD	05H
	DD	FLAT:__unwindfunclet$??__EskillIndexes@@YAXXZ$7
	DD	01bH
	DD	FLAT:__unwindfunclet$??__EskillIndexes@@YAXXZ$9
	DD	01cH
	DD	FLAT:__unwindfunclet$??__EskillIndexes@@YAXXZ$11
	DD	01dH
	DD	FLAT:__unwindfunclet$??__EskillIndexes@@YAXXZ$12
	DD	01eH
	DD	FLAT:__unwindfunclet$??__EskillIndexes@@YAXXZ$14
	DD	01fH
	DD	FLAT:__unwindfunclet$??__EskillIndexes@@YAXXZ$16
	DD	020H
	DD	FLAT:__unwindfunclet$??__EskillIndexes@@YAXXZ$18
	DD	021H
	DD	FLAT:__unwindfunclet$??__EskillIndexes@@YAXXZ$19
	DD	022H
	DD	FLAT:__unwindfunclet$??__EskillIndexes@@YAXXZ$21
	DD	023H
	DD	FLAT:__unwindfunclet$??__EskillIndexes@@YAXXZ$23
	DD	024H
	DD	FLAT:__unwindfunclet$??__EskillIndexes@@YAXXZ$25
	DD	025H
	DD	FLAT:__unwindfunclet$??__EskillIndexes@@YAXXZ$26
	DD	026H
	DD	FLAT:__unwindfunclet$??__EskillIndexes@@YAXXZ$28
xdata$x	ENDS
;	COMDAT xdata$x
xdata$x	SEGMENT
__ehfuncinfo$??__EguildSkills@@YAXXZ DQ 00000000a19930522r ; 2.14319e-313
	DD	FLAT:__unwindtable$??__EguildSkills@@YAXXZ
	DQ	00000000000000000r		; 0
	DQ	00000000000000000r		; 0
	DQ	00000000100000000r		; 2.122e-314
	ORG $+4
__unwindtable$??__EguildSkills@@YAXXZ DD 0ffffffffH
	DD	FLAT:__unwindfunclet$??__EguildSkills@@YAXXZ$0
	DD	00H
	DD	FLAT:__unwindfunclet$??__EguildSkills@@YAXXZ$1
	DD	01H
	DD	FLAT:__unwindfunclet$??__EguildSkills@@YAXXZ$10
	DD	01H
	DD	FLAT:__unwindfunclet$??__EguildSkills@@YAXXZ$2
	DD	03H
	DD	FLAT:__unwindfunclet$??__EguildSkills@@YAXXZ$3
	DD	04H
	DD	FLAT:__unwindfunclet$??__EguildSkills@@YAXXZ$4
	DD	05H
	DD	FLAT:__unwindfunclet$??__EguildSkills@@YAXXZ$16
	DD	01H
	DD	FLAT:__unwindfunclet$??__EguildSkills@@YAXXZ$3
	DD	07H
	DD	FLAT:__unwindfunclet$??__EguildSkills@@YAXXZ$4
	DD	08H
	DD	FLAT:__unwindfunclet$??__EguildSkills@@YAXXZ$6
xdata$x	ENDS
;	COMDAT xdata$x
xdata$x	SEGMENT
__ehfuncinfo$?ShowCharacterTextTail@CPythonTextTail@@QAEXK@Z DQ 00000000119930522r ; 2.33398e-314
	DD	FLAT:__unwindtable$?ShowCharacterTextTail@CPythonTextTail@@QAEXK@Z
	DQ	00000000000000000r		; 0
	DQ	00000000000000000r		; 0
	DQ	00000000100000000r		; 2.122e-314
__unwindtable$?ShowCharacterTextTail@CPythonTextTail@@QAEXK@Z DD 0ffffffffH
	DD	FLAT:__unwindfunclet$?ShowCharacterTextTail@CPythonTextTail@@QAEXK@Z$2
xdata$x	ENDS
;	COMDAT xdata$x
xdata$x	SEGMENT
__ehfuncinfo$?ShowItemTextTail@CPythonTextTail@@QAEXK@Z DQ 00000000119930522r ; 2.33398e-314
	DD	FLAT:__unwindtable$?ShowItemTextTail@CPythonTextTail@@QAEXK@Z
	DQ	00000000000000000r		; 0
	DQ	00000000000000000r		; 0
	DQ	00000000100000000r		; 2.122e-314
__unwindtable$?ShowItemTextTail@CPythonTextTail@@QAEXK@Z DD 0ffffffffH
	DD	FLAT:__unwindfunclet$?ShowItemTextTail@CPythonTextTail@@QAEXK@Z$2
xdata$x	ENDS
;	COMDAT xdata$x
xdata$x	SEGMENT
__ehfuncinfo$?RegisterTextTail@CPythonTextTail@@IAEPAUSTextTail@1@KPBDPAVCGraphicObjectInstance@@MABUD3DXCOLOR@@V?$basic_string@DU?$char_traits@D@std@@V?$allocator@D@2@@std@@@Z DQ 00000000119930522r ; 2.33398e-314
	DD	FLAT:__unwindtable$?RegisterTextTail@CPythonTextTail@@IAEPAUSTextTail@1@KPBDPAVCGraphicObjectInstance@@MABUD3DXCOLOR@@V?$basic_string@DU?$char_traits@D@std@@V?$allocator@D@2@@std@@@Z
	DQ	00000000000000000r		; 0
	DQ	00000000000000000r		; 0
	DQ	00000000100000000r		; 2.122e-314
__unwindtable$?RegisterTextTail@CPythonTextTail@@IAEPAUSTextTail@1@KPBDPAVCGraphicObjectInstance@@MABUD3DXCOLOR@@V?$basic_string@DU?$char_traits@D@std@@V?$allocator@D@2@@std@@@Z DD 0ffffffffH
	DD	FLAT:__unwindfunclet$?RegisterTextTail@CPythonTextTail@@IAEPAUSTextTail@1@KPBDPAVCGraphicObjectInstance@@MABUD3DXCOLOR@@V?$basic_string@DU?$char_traits@D@std@@V?$allocator@D@2@@std@@@Z$0
xdata$x	ENDS
;	COMDAT xdata$x
xdata$x	SEGMENT
__ehfuncinfo$??$insert@$0A@$0A@@?$_Tree@V?$_Tmap_traits@KPAUSTextTail@CPythonTextTail@@U?$less@K@std@@V?$allocator@U?$pair@$$CBKPAUSTextTail@CPythonTextTail@@@std@@@4@$0A@@std@@@std@@QAE?AU?$pair@V?$_Tree_iterator@V?$_Tree_val@U?$_Tree_simple_types@U?$pair@$$CBKPAUSTextTail@CPythonTextTail@@@std@@@std@@@std@@@std@@_N@1@$$QAU?$pair@$$CBKPAUSTextTail@CPythonTextTail@@@1@@Z DQ 00000000119930522r ; 2.33398e-314
	DD	FLAT:__unwindtable$??$insert@$0A@$0A@@?$_Tree@V?$_Tmap_traits@KPAUSTextTail@CPythonTextTail@@U?$less@K@std@@V?$allocator@U?$pair@$$CBKPAUSTextTail@CPythonTextTail@@@std@@@4@$0A@@std@@@std@@QAE?AU?$pair@V?$_Tree_iterator@V?$_Tree_val@U?$_Tree_simple_types@U?$pair@$$CBKPAUSTextTail@CPythonTextTail@@@std@@@std@@@std@@@std@@_N@1@$$QAU?$pair@$$CBKPAUSTextTail@CPythonTextTail@@@1@@Z
	DQ	00000000000000000r		; 0
	DQ	00000000000000000r		; 0
	DQ	00000000100000000r		; 2.122e-314
__unwindtable$??$insert@$0A@$0A@@?$_Tree@V?$_Tmap_traits@KPAUSTextTail@CPythonTextTail@@U?$less@K@std@@V?$allocator@U?$pair@$$CBKPAUSTextTail@CPythonTextTail@@@std@@@4@$0A@@std@@@std@@QAE?AU?$pair@V?$_Tree_iterator@V?$_Tree_val@U?$_Tree_simple_types@U?$pair@$$CBKPAUSTextTail@CPythonTextTail@@@std@@@std@@@std@@@std@@_N@1@$$QAU?$pair@$$CBKPAUSTextTail@CPythonTextTail@@@1@@Z DD 0ffffffffH
	DD	FLAT:__unwindfunclet$??$insert@$0A@$0A@@?$_Tree@V?$_Tmap_traits@KPAUSTextTail@CPythonTextTail@@U?$less@K@std@@V?$allocator@U?$pair@$$CBKPAUSTextTail@CPythonTextTail@@@std@@@4@$0A@@std@@@std@@QAE?AU?$pair@V?$_Tree_iterator@V?$_Tree_val@U?$_Tree_simple_types@U?$pair@$$CBKPAUSTextTail@CPythonTextTail@@@std@@@std@@@std@@@std@@_N@1@$$QAU?$pair@$$CBKPAUSTextTail@CPythonTextTail@@@1@@Z$2
xdata$x	ENDS
;	COMDAT xdata$x
xdata$x	SEGMENT
__ehfuncinfo$?push_back@?$list@PAUSTextTail@CPythonTextTail@@V?$allocator@PAUSTextTail@CPythonTextTail@@@std@@@std@@QAEXABQAUSTextTail@CPythonTextTail@@@Z DQ 00000000119930522r ; 2.33398e-314
	DD	FLAT:__unwindtable$?push_back@?$list@PAUSTextTail@CPythonTextTail@@V?$allocator@PAUSTextTail@CPythonTextTail@@@std@@@std@@QAEXABQAUSTextTail@CPythonTextTail@@@Z
	DQ	00000000000000000r		; 0
	DQ	00000000000000000r		; 0
	DQ	00000000100000000r		; 2.122e-314
__unwindtable$?push_back@?$list@PAUSTextTail@CPythonTextTail@@V?$allocator@PAUSTextTail@CPythonTextTail@@@std@@@std@@QAEXABQAUSTextTail@CPythonTextTail@@@Z DD 0ffffffffH
	DD	FLAT:__unwindfunclet$?push_back@?$list@PAUSTextTail@CPythonTextTail@@V?$allocator@PAUSTextTail@CPythonTextTail@@@std@@@std@@QAEXABQAUSTextTail@CPythonTextTail@@@Z$1
xdata$x	ENDS
;	COMDAT xdata$x
xdata$x	SEGMENT
__ehfuncinfo$??$_Emplace@U?$pair@$$CBKPAUSTextTail@CPythonTextTail@@@std@@@?$_Tree@V?$_Tmap_traits@KPAUSTextTail@CPythonTextTail@@U?$less@K@std@@V?$allocator@U?$pair@$$CBKPAUSTextTail@CPythonTextTail@@@std@@@4@$0A@@std@@@std@@IAE?AU?$pair@PAU?$_Tree_node@U?$pair@$$CBKPAUSTextTail@CPythonTextTail@@@std@@PAX@std@@_N@1@$$QAU?$pair@$$CBKPAUSTextTail@CPythonTextTail@@@1@@Z DQ 00000000119930522r ; 2.33398e-314
	DD	FLAT:__unwindtable$??$_Emplace@U?$pair@$$CBKPAUSTextTail@CPythonTextTail@@@std@@@?$_Tree@V?$_Tmap_traits@KPAUSTextTail@CPythonTextTail@@U?$less@K@std@@V?$allocator@U?$pair@$$CBKPAUSTextTail@CPythonTextTail@@@std@@@4@$0A@@std@@@std@@IAE?AU?$pair@PAU?$_Tree_node@U?$pair@$$CBKPAUSTextTail@CPythonTextTail@@@std@@PAX@std@@_N@1@$$QAU?$pair@$$CBKPAUSTextTail@CPythonTextTail@@@1@@Z
	DQ	00000000000000000r		; 0
	DQ	00000000000000000r		; 0
	DQ	00000000100000000r		; 2.122e-314
__unwindtable$??$_Emplace@U?$pair@$$CBKPAUSTextTail@CPythonTextTail@@@std@@@?$_Tree@V?$_Tmap_traits@KPAUSTextTail@CPythonTextTail@@U?$less@K@std@@V?$allocator@U?$pair@$$CBKPAUSTextTail@CPythonTextTail@@@std@@@4@$0A@@std@@@std@@IAE?AU?$pair@PAU?$_Tree_node@U?$pair@$$CBKPAUSTextTail@CPythonTextTail@@@std@@PAX@std@@_N@1@$$QAU?$pair@$$CBKPAUSTextTail@CPythonTextTail@@@1@@Z DD 0ffffffffH
	DD	FLAT:__unwindfunclet$??$_Emplace@U?$pair@$$CBKPAUSTextTail@CPythonTextTail@@@std@@@?$_Tree@V?$_Tmap_traits@KPAUSTextTail@CPythonTextTail@@U?$less@K@std@@V?$allocator@U?$pair@$$CBKPAUSTextTail@CPythonTextTail@@@std@@@4@$0A@@std@@@std@@IAE?AU?$pair@PAU?$_Tree_node@U?$pair@$$CBKPAUSTextTail@CPythonTextTail@@@std@@PAX@std@@_N@1@$$QAU?$pair@$$CBKPAUSTextTail@CPythonTextTail@@@1@@Z$2
xdata$x	ENDS
;	COMDAT xdata$x
xdata$x	SEGMENT
__ehfuncinfo$??$_Emplace@ABQAUSTextTail@CPythonTextTail@@@?$list@PAUSTextTail@CPythonTextTail@@V?$allocator@PAUSTextTail@CPythonTextTail@@@std@@@std@@QAEPAU?$_List_node@PAUSTextTail@CPythonTextTail@@PAX@1@QAU21@ABQAUSTextTail@CPythonTextTail@@@Z DQ 00000000119930522r ; 2.33398e-314
	DD	FLAT:__unwindtable$??$_Emplace@ABQAUSTextTail@CPythonTextTail@@@?$list@PAUSTextTail@CPythonTextTail@@V?$allocator@PAUSTextTail@CPythonTextTail@@@std@@@std@@QAEPAU?$_List_node@PAUSTextTail@CPythonTextTail@@PAX@1@QAU21@ABQAUSTextTail@CPythonTextTail@@@Z
	DQ	00000000000000000r		; 0
	DQ	00000000000000000r		; 0
	DQ	00000000100000000r		; 2.122e-314
__unwindtable$??$_Emplace@ABQAUSTextTail@CPythonTextTail@@@?$list@PAUSTextTail@CPythonTextTail@@V?$allocator@PAUSTextTail@CPythonTextTail@@@std@@@std@@QAEPAU?$_List_node@PAUSTextTail@CPythonTextTail@@PAX@1@QAU21@ABQAUSTextTail@CPythonTextTail@@@Z DD 0ffffffffH
	DD	FLAT:__unwindfunclet$??$_Emplace@ABQAUSTextTail@CPythonTextTail@@@?$list@PAUSTextTail@CPythonTextTail@@V?$allocator@PAUSTextTail@CPythonTextTail@@@std@@@std@@QAEPAU?$_List_node@PAUSTextTail@CPythonTextTail@@PAX@1@QAU21@ABQAUSTextTail@CPythonTextTail@@@Z$1
xdata$x	ENDS
;	COMDAT xdata$x
xdata$x	SEGMENT
__ehfuncinfo$??$?0U?$pair@$$CBKPAUSTextTail@CPythonTextTail@@@std@@@?$_Tree_temp_node@V?$allocator@U?$_Tree_node@U?$pair@$$CBKPAUSTextTail@CPythonTextTail@@@std@@PAX@std@@@std@@@std@@QAE@AAV?$allocator@U?$_Tree_node@U?$pair@$$CBKPAUSTextTail@CPythonTextTail@@@std@@PAX@std@@@1@PAU?$_Tree_node@U?$pair@$$CBKPAUSTextTail@CPythonTextTail@@@std@@PAX@1@$$QAU?$pair@$$CBKPAUSTextTail@CPythonTextTail@@@1@@Z DQ 00000000119930522r ; 2.33398e-314
	DD	FLAT:__unwindtable$??$?0U?$pair@$$CBKPAUSTextTail@CPythonTextTail@@@std@@@?$_Tree_temp_node@V?$allocator@U?$_Tree_node@U?$pair@$$CBKPAUSTextTail@CPythonTextTail@@@std@@PAX@std@@@std@@@std@@QAE@AAV?$allocator@U?$_Tree_node@U?$pair@$$CBKPAUSTextTail@CPythonTextTail@@@std@@PAX@std@@@1@PAU?$_Tree_node@U?$pair@$$CBKPAUSTextTail@CPythonTextTail@@@std@@PAX@1@$$QAU?$pair@$$CBKPAUSTextTail@CPythonTextTail@@@1@@Z
	DQ	00000000000000000r		; 0
	DQ	00000000000000000r		; 0
	DQ	00000000100000000r		; 2.122e-314
__unwindtable$??$?0U?$pair@$$CBKPAUSTextTail@CPythonTextTail@@@std@@@?$_Tree_temp_node@V?$allocator@U?$_Tree_node@U?$pair@$$CBKPAUSTextTail@CPythonTextTail@@@std@@PAX@std@@@std@@@std@@QAE@AAV?$allocator@U?$_Tree_node@U?$pair@$$CBKPAUSTextTail@CPythonTextTail@@@std@@PAX@std@@@1@PAU?$_Tree_node@U?$pair@$$CBKPAUSTextTail@CPythonTextTail@@@std@@PAX@1@$$QAU?$pair@$$CBKPAUSTextTail@CPythonTextTail@@@1@@Z DD 0ffffffffH
	DD	FLAT:__unwindfunclet$??$?0U?$pair@$$CBKPAUSTextTail@CPythonTextTail@@@std@@@?$_Tree_temp_node@V?$allocator@U?$_Tree_node@U?$pair@$$CBKPAUSTextTail@CPythonTextTail@@@std@@PAX@std@@@std@@@std@@QAE@AAV?$allocator@U?$_Tree_node@U?$pair@$$CBKPAUSTextTail@CPythonTextTail@@@std@@PAX@std@@@1@PAU?$_Tree_node@U?$pair@$$CBKPAUSTextTail@CPythonTextTail@@@std@@PAX@1@$$QAU?$pair@$$CBKPAUSTextTail@CPythonTextTail@@@1@@Z$1
xdata$x	ENDS
;	COMDAT xdata$x
xdata$x	SEGMENT
__ehfuncinfo$??$?0ABQAUSTextTail@CPythonTextTail@@@?$_List_node_emplace_op2@V?$allocator@U?$_List_node@PAUSTextTail@CPythonTextTail@@PAX@std@@@std@@@std@@QAE@AAV?$allocator@U?$_List_node@PAUSTextTail@CPythonTextTail@@PAX@std@@@1@ABQAUSTextTail@CPythonTextTail@@@Z DQ 00000000119930522r ; 2.33398e-314
	DD	FLAT:__unwindtable$??$?0ABQAUSTextTail@CPythonTextTail@@@?$_List_node_emplace_op2@V?$allocator@U?$_List_node@PAUSTextTail@CPythonTextTail@@PAX@std@@@std@@@std@@QAE@AAV?$allocator@U?$_List_node@PAUSTextTail@CPythonTextTail@@PAX@std@@@1@ABQAUSTextTail@CPythonTextTail@@@Z
	DQ	00000000000000000r		; 0
	DQ	00000000000000000r		; 0
	DQ	00000000100000000r		; 2.122e-314
__unwindtable$??$?0ABQAUSTextTail@CPythonTextTail@@@?$_List_node_emplace_op2@V?$allocator@U?$_List_node@PAUSTextTail@CPythonTextTail@@PAX@std@@@std@@@std@@QAE@AAV?$allocator@U?$_List_node@PAUSTextTail@CPythonTextTail@@PAX@std@@@1@ABQAUSTextTail@CPythonTextTail@@@Z DD 0ffffffffH
	DD	FLAT:__unwindfunclet$??$?0ABQAUSTextTail@CPythonTextTail@@@?$_List_node_emplace_op2@V?$allocator@U?$_List_node@PAUSTextTail@CPythonTextTail@@PAX@std@@@std@@@std@@QAE@AAV?$allocator@U?$_List_node@PAUSTextTail@CPythonTextTail@@PAX@std@@@1@ABQAUSTextTail@CPythonTextTail@@@Z$0
xdata$x	ENDS
;	COMDAT xdata$x
xdata$x	SEGMENT
__ehfuncinfo$??0?$_Tree_temp_node_alloc@V?$allocator@U?$_Tree_node@U?$pair@$$CBKPAUSTextTail@CPythonTextTail@@@std@@PAX@std@@@std@@@std@@QAE@AAV?$allocator@U?$_Tree_node@U?$pair@$$CBKPAUSTextTail@CPythonTextTail@@@std@@PAX@std@@@1@@Z DQ 00000000119930522r ; 2.33398e-314
	DD	FLAT:__unwindtable$??0?$_Tree_temp_node_alloc@V?$allocator@U?$_Tree_node@U?$pair@$$CBKPAUSTextTail@CPythonTextTail@@@std@@PAX@std@@@std@@@std@@QAE@AAV?$allocator@U?$_Tree_node@U?$pair@$$CBKPAUSTextTail@CPythonTextTail@@@std@@PAX@std@@@1@@Z
	DQ	00000000000000000r		; 0
	DQ	00000000000000000r		; 0
	DQ	00000000100000000r		; 2.122e-314
__unwindtable$??0?$_Tree_temp_node_alloc@V?$allocator@U?$_Tree_node@U?$pair@$$CBKPAUSTextTail@CPythonTextTail@@@std@@PAX@std@@@std@@@std@@QAE@AAV?$allocator@U?$_Tree_node@U?$pair@$$CBKPAUSTextTail@CPythonTextTail@@@std@@PAX@std@@@1@@Z DD 0ffffffffH
	DD	FLAT:__unwindfunclet$??0?$_Tree_temp_node_alloc@V?$allocator@U?$_Tree_node@U?$pair@$$CBKPAUSTextTail@CPythonTextTail@@@std@@PAX@std@@@std@@@std@@QAE@AAV?$allocator@U?$_Tree_node@U?$pair@$$CBKPAUSTextTail@CPythonTextTail@@@std@@PAX@std@@@1@@Z$0
	ORG $+1
?c_TextTail_Player_Color@@3UD3DXCOLOR@@B DQ 03f8000003f800000r ; 0.0078125 ; c_TextTail_Player_Color
	DQ	03f8000003f800000r		; 0.0078125
?c_TextTail_Monster_Color@@3UD3DXCOLOR@@B DQ 0000000003f800000r ; 5.26354e-315 ; c_TextTail_Monster_Color
	DQ	03f80000000000000r		; 0.0078125
?c_TextTail_Guild_Name_Color@@3UD3DXCOLOR@@B DQ 03f53d3d53f6feff1r ; 0.00121017 ; c_TextTail_Guild_Name_Color
	DQ	03f8000003f800000r		; 0.0078125
	ORG $+4
?vecUseSoundFileName@@3V?$array@U?$pair@KV?$basic_string@DU?$char_traits@D@std@@V?$allocator@D@2@@std@@@std@@$06@std@@B DQ 00000000000000001r ; 4.94066e-324 ; vecUseSoundFileName
	DQ	00000000000000000r		; 0
	DQ	00000000000000000r		; 0
	DQ	00000000000000000r		; 0
	DQ	00000000000000000r		; 0
	DQ	00000000000000000r		; 0
	DQ	00000000000000000r		; 0
	DQ	00000000000000000r		; 0
	DQ	00000000000000000r		; 0
	DQ	00000000000000000r		; 0
	DQ	00000000000000000r		; 0
	DQ	00000000000000000r		; 0
	DQ	00000000000000000r		; 0
	DQ	00000000000000000r		; 0
	DQ	00000000000000000r		; 0
	DQ	00000000000000000r		; 0
	DQ	00000000000000000r		; 0
	DQ	00000000000000000r		; 0
	DQ	00000000000000000r		; 0
	DQ	00000000000000000r		; 0
	DQ	00000000000000000r		; 0
	DQ	00000000000000000r		; 0
	DQ	00000000000000000r		; 0
	DQ	00000000000000000r		; 0
	DD	00H
?c_TextTail_Item_Color@@3UD3DXCOLOR@@B DQ 03f8000003f800000r ; 0.0078125 ; c_TextTail_Item_Color
	DQ	03f8000003f800000r		; 0.0078125
?c_TextTail_Chat_Color@@3UD3DXCOLOR@@B DQ 03f8000003f800000r ; 0.0078125 ; c_TextTail_Chat_Color
	DQ	03f8000003f800000r		; 0.0078125
?c_TextTail_Info_Color@@3UD3DXCOLOR@@B DQ 03f48f5c33f800000r ; 0.000761719 ; c_TextTail_Info_Color
	DQ	03f8000003f48f5c3r		; 0.0078125
?vecUseSoundFileName$initializer$@@3P6AXXZA DD FLAT:??__EvecUseSoundFileName@@YAXXZ ; vecUseSoundFileName$initializer$
?vecDropSoundFileName$initializer$@@3P6AXXZA DD FLAT:??__EvecDropSoundFileName@@YAXXZ ; vecDropSoundFileName$initializer$
?vecEffectList$initializer$@@3P6AXXZA DD FLAT:??__EvecEffectList@@YAXXZ ; vecEffectList$initializer$
?characterNameColors$initializer$@@3P6AXXZA DD FLAT:??__EcharacterNameColors@@YAXXZ ; characterNameColors$initializer$
?characterTitleColors$initializer$@@3P6AXXZA DD FLAT:??__EcharacterTitleColors@@YAXXZ ; characterTitleColors$initializer$
?characterTitleSystemColors$initializer$@@3P6AXXZA DD FLAT:??__EcharacterTitleSystemColors@@YAXXZ ; characterTitleSystemColors$initializer$
?emotionIcons$initializer$@@3P6AXXZA DD FLAT:??__EemotionIcons@@YAXXZ ; emotionIcons$initializer$
?skillIndexes$initializer$@@3P6AXXZA DD FLAT:??__EskillIndexes@@YAXXZ ; skillIndexes$initializer$
?guildSkills$initializer$@@3P6AXXZA DD FLAT:??__EguildSkills@@YAXXZ ; guildSkills$initializer$
END
