; Listing generated by Microsoft (R) Optimizing Compiler Version 19.44.35219.0 

	TITLE	c:\anka2project\anka2project\source\binary\vs_files\userinterface\release\pythonexchangemodule.obj
	.686P
	.XMM
	include listing.inc
	.model	flat

INCLUDELIB OLDNAMES

PUBLIC	??_C@_01JPJNBJEM@I@				; `string'
PUBLIC	??_C@_0M@IAKFCGCD@InitTrading@			; `string'
PUBLIC	??_C@_09NDPDNFKM@isTrading@			; `string'
PUBLIC	??_C@_0P@FLKEMEBG@GetElkFromSelf@		; `string'
PUBLIC	??_C@_0BB@LMIEGPPN@GetElkFromTarget@		; `string'
PUBLIC	??_C@_0BE@IGEBIKPO@GetItemVnumFromSelf@		; `string'
PUBLIC	??_C@_0BG@LLEHKHGL@GetItemVnumFromTarget@	; `string'
PUBLIC	??_C@_0BF@MADFKIJK@GetItemCountFromSelf@	; `string'
PUBLIC	??_C@_0BH@GPLGAOFI@GetItemCountFromTarget@	; `string'
PUBLIC	??_C@_0BC@EFOHFOPD@GetAcceptFromSelf@		; `string'
PUBLIC	??_C@_0BE@IPFHAMEN@GetAcceptFromTarget@		; `string'
PUBLIC	??_C@_0BA@JBODFEMD@GetNameFromSelf@		; `string'
PUBLIC	??_C@_0BC@LAMEAHKE@GetNameFromTarget@		; `string'
PUBLIC	??_C@_0BA@ONCIGAOE@GetRaceFromSelf@		; `string'
PUBLIC	??_C@_0BC@ELLFDNLP@GetRaceFromTarget@		; `string'
PUBLIC	??_C@_0BB@FGALINAF@GetLevelFromSelf@		; `string'
PUBLIC	??_C@_0BD@NCGLNKPE@GetLevelFromTarget@		; `string'
PUBLIC	??_C@_0BN@FJAFLLEI@GetItemMetinSocketFromTarget@ ; `string'
PUBLIC	??_C@_0BL@OPELCAOA@GetItemMetinSocketFromSelf@	; `string'
PUBLIC	??_C@_0BL@CDOBAGEH@GetItemAttributeFromTarget@	; `string'
PUBLIC	??_C@_0BJ@LGADFCHN@GetItemAttributeFromSelf@	; `string'
PUBLIC	??_C@_0L@CKKAINKA@GetElkMode@			; `string'
PUBLIC	??_C@_0L@DEIPDKOJ@SetElkMode@			; `string'
PUBLIC	??_C@_0BK@FFOHJLHP@GetChangeLookVnumFromSelf@	; `string'
PUBLIC	??_C@_0BM@PDGPPNDF@GetChangeLookVnumFromTarget@	; `string'
PUBLIC	??_C@_08EPHOCFK@exchange@			; `string'
PUBLIC	??_C@_0BG@LKADPLLF@EXCHANGE_ITEM_MAX_NUM@	; `string'
;	COMDAT ?s_methods@?1??initTrade@@YAXXZ@4PAUPyMethodDef@@A
_DATA	SEGMENT
?s_methods@?1??initTrade@@YAXXZ@4PAUPyMethodDef@@A DD FLAT:??_C@_0M@IAKFCGCD@InitTrading@ ; `initTrade'::`2'::s_methods
	DD	FLAT:?exchangeInitTrading@@YAPAU_object@@PAU1@0@Z
	DD	01H
	ORG $+4
	DD	FLAT:??_C@_09NDPDNFKM@isTrading@
	DD	FLAT:?exchangeisTrading@@YAPAU_object@@PAU1@0@Z
	DD	01H
	ORG $+4
	DD	FLAT:??_C@_0P@FLKEMEBG@GetElkFromSelf@
	DD	FLAT:?exchangeGetElkFromSelf@@YAPAU_object@@PAU1@0@Z
	DD	01H
	ORG $+4
	DD	FLAT:??_C@_0BB@LMIEGPPN@GetElkFromTarget@
	DD	FLAT:?exchangeGetElkFromTarget@@YAPAU_object@@PAU1@0@Z
	DD	01H
	ORG $+4
	DD	FLAT:??_C@_0BE@IGEBIKPO@GetItemVnumFromSelf@
	DD	FLAT:?exchangeGetItemVnumFromSelf@@YAPAU_object@@PAU1@0@Z
	DD	01H
	ORG $+4
	DD	FLAT:??_C@_0BG@LLEHKHGL@GetItemVnumFromTarget@
	DD	FLAT:?exchangeGetItemVnumFromTarget@@YAPAU_object@@PAU1@0@Z
	DD	01H
	ORG $+4
	DD	FLAT:??_C@_0BF@MADFKIJK@GetItemCountFromSelf@
	DD	FLAT:?exchangeGetItemCountFromSelf@@YAPAU_object@@PAU1@0@Z
	DD	01H
	ORG $+4
	DD	FLAT:??_C@_0BH@GPLGAOFI@GetItemCountFromTarget@
	DD	FLAT:?exchangeGetItemCountFromTarget@@YAPAU_object@@PAU1@0@Z
	DD	01H
	ORG $+4
	DD	FLAT:??_C@_0BC@EFOHFOPD@GetAcceptFromSelf@
	DD	FLAT:?exchangeGetAcceptFromSelf@@YAPAU_object@@PAU1@0@Z
	DD	01H
	ORG $+4
	DD	FLAT:??_C@_0BE@IPFHAMEN@GetAcceptFromTarget@
	DD	FLAT:?exchangeGetAcceptFromTarget@@YAPAU_object@@PAU1@0@Z
	DD	01H
	ORG $+4
	DD	FLAT:??_C@_0BA@JBODFEMD@GetNameFromSelf@
	DD	FLAT:?exchangeGetNameFromSelf@@YAPAU_object@@PAU1@0@Z
	DD	01H
	ORG $+4
	DD	FLAT:??_C@_0BC@LAMEAHKE@GetNameFromTarget@
	DD	FLAT:?exchangeGetNameFromTarget@@YAPAU_object@@PAU1@0@Z
	DD	01H
	ORG $+4
	DD	FLAT:??_C@_0BA@ONCIGAOE@GetRaceFromSelf@
	DD	FLAT:?exchangeGetRaceFromSelf@@YAPAU_object@@PAU1@0@Z
	DD	01H
	ORG $+4
	DD	FLAT:??_C@_0BC@ELLFDNLP@GetRaceFromTarget@
	DD	FLAT:?exchangeGetRaceFromTarget@@YAPAU_object@@PAU1@0@Z
	DD	01H
	ORG $+4
	DD	FLAT:??_C@_0BB@FGALINAF@GetLevelFromSelf@
	DD	FLAT:?exchangeGetLevelFromSelf@@YAPAU_object@@PAU1@0@Z
	DD	01H
	ORG $+4
	DD	FLAT:??_C@_0BD@NCGLNKPE@GetLevelFromTarget@
	DD	FLAT:?exchangeGetLevelFromTarget@@YAPAU_object@@PAU1@0@Z
	DD	01H
	ORG $+4
	DD	FLAT:??_C@_0BN@FJAFLLEI@GetItemMetinSocketFromTarget@
	DD	FLAT:?exchangeGetItemMetinSocketFromTarget@@YAPAU_object@@PAU1@0@Z
	DD	01H
	ORG $+4
	DD	FLAT:??_C@_0BL@OPELCAOA@GetItemMetinSocketFromSelf@
	DD	FLAT:?exchangeGetItemMetinSocketFromSelf@@YAPAU_object@@PAU1@0@Z
	DD	01H
	ORG $+4
	DD	FLAT:??_C@_0BL@CDOBAGEH@GetItemAttributeFromTarget@
	DD	FLAT:?exchangeGetItemAttributeFromTarget@@YAPAU_object@@PAU1@0@Z
	DD	01H
	ORG $+4
	DD	FLAT:??_C@_0BJ@LGADFCHN@GetItemAttributeFromSelf@
	DD	FLAT:?exchangeGetItemAttributeFromSelf@@YAPAU_object@@PAU1@0@Z
	DD	01H
	ORG $+4
	DD	FLAT:??_C@_0L@CKKAINKA@GetElkMode@
	DD	FLAT:?exchangeGetElkMode@@YAPAU_object@@PAU1@0@Z
	DD	01H
	ORG $+4
	DD	FLAT:??_C@_0L@DEIPDKOJ@SetElkMode@
	DD	FLAT:?exchangeSetElkMode@@YAPAU_object@@PAU1@0@Z
	DD	01H
	ORG $+4
	DD	FLAT:??_C@_0BK@FFOHJLHP@GetChangeLookVnumFromSelf@
	DD	FLAT:?exchangeGetChangeLookVnumFromSelf@@YAPAU_object@@PAU1@0@Z
	DD	01H
	ORG $+4
	DD	FLAT:??_C@_0BM@PDGPPNDF@GetChangeLookVnumFromTarget@
	DD	FLAT:?exchangeGetChangeLookVnumFromTarget@@YAPAU_object@@PAU1@0@Z
	DD	01H
	ORG $+4
	DD	00H
	DD	00H
	ORG $+8
_DATA	ENDS
;	COMDAT ??_C@_0BG@LKADPLLF@EXCHANGE_ITEM_MAX_NUM@
CONST	SEGMENT
??_C@_0BG@LKADPLLF@EXCHANGE_ITEM_MAX_NUM@ DB 'EXCHANGE_ITEM_MAX_NUM', 00H ; `string'
CONST	ENDS
;	COMDAT ??_C@_08EPHOCFK@exchange@
CONST	SEGMENT
??_C@_08EPHOCFK@exchange@ DB 'exchange', 00H		; `string'
CONST	ENDS
;	COMDAT ??_C@_0BM@PDGPPNDF@GetChangeLookVnumFromTarget@
CONST	SEGMENT
??_C@_0BM@PDGPPNDF@GetChangeLookVnumFromTarget@ DB 'GetChangeLookVnumFrom'
	DB	'Target', 00H				; `string'
CONST	ENDS
;	COMDAT ??_C@_0BK@FFOHJLHP@GetChangeLookVnumFromSelf@
CONST	SEGMENT
??_C@_0BK@FFOHJLHP@GetChangeLookVnumFromSelf@ DB 'GetChangeLookVnumFromSe'
	DB	'lf', 00H					; `string'
CONST	ENDS
;	COMDAT ??_C@_0L@DEIPDKOJ@SetElkMode@
CONST	SEGMENT
??_C@_0L@DEIPDKOJ@SetElkMode@ DB 'SetElkMode', 00H	; `string'
CONST	ENDS
;	COMDAT ??_C@_0L@CKKAINKA@GetElkMode@
CONST	SEGMENT
??_C@_0L@CKKAINKA@GetElkMode@ DB 'GetElkMode', 00H	; `string'
CONST	ENDS
;	COMDAT ??_C@_0BJ@LGADFCHN@GetItemAttributeFromSelf@
CONST	SEGMENT
??_C@_0BJ@LGADFCHN@GetItemAttributeFromSelf@ DB 'GetItemAttributeFromSelf'
	DB	00H						; `string'
CONST	ENDS
;	COMDAT ??_C@_0BL@CDOBAGEH@GetItemAttributeFromTarget@
CONST	SEGMENT
??_C@_0BL@CDOBAGEH@GetItemAttributeFromTarget@ DB 'GetItemAttributeFromTa'
	DB	'rget', 00H					; `string'
CONST	ENDS
;	COMDAT ??_C@_0BL@OPELCAOA@GetItemMetinSocketFromSelf@
CONST	SEGMENT
??_C@_0BL@OPELCAOA@GetItemMetinSocketFromSelf@ DB 'GetItemMetinSocketFrom'
	DB	'Self', 00H					; `string'
CONST	ENDS
;	COMDAT ??_C@_0BN@FJAFLLEI@GetItemMetinSocketFromTarget@
CONST	SEGMENT
??_C@_0BN@FJAFLLEI@GetItemMetinSocketFromTarget@ DB 'GetItemMetinSocketFr'
	DB	'omTarget', 00H				; `string'
CONST	ENDS
;	COMDAT ??_C@_0BD@NCGLNKPE@GetLevelFromTarget@
CONST	SEGMENT
??_C@_0BD@NCGLNKPE@GetLevelFromTarget@ DB 'GetLevelFromTarget', 00H ; `string'
CONST	ENDS
;	COMDAT ??_C@_0BB@FGALINAF@GetLevelFromSelf@
CONST	SEGMENT
??_C@_0BB@FGALINAF@GetLevelFromSelf@ DB 'GetLevelFromSelf', 00H ; `string'
CONST	ENDS
;	COMDAT ??_C@_0BC@ELLFDNLP@GetRaceFromTarget@
CONST	SEGMENT
??_C@_0BC@ELLFDNLP@GetRaceFromTarget@ DB 'GetRaceFromTarget', 00H ; `string'
CONST	ENDS
;	COMDAT ??_C@_0BA@ONCIGAOE@GetRaceFromSelf@
CONST	SEGMENT
??_C@_0BA@ONCIGAOE@GetRaceFromSelf@ DB 'GetRaceFromSelf', 00H ; `string'
CONST	ENDS
;	COMDAT ??_C@_0BC@LAMEAHKE@GetNameFromTarget@
CONST	SEGMENT
??_C@_0BC@LAMEAHKE@GetNameFromTarget@ DB 'GetNameFromTarget', 00H ; `string'
CONST	ENDS
;	COMDAT ??_C@_0BA@JBODFEMD@GetNameFromSelf@
CONST	SEGMENT
??_C@_0BA@JBODFEMD@GetNameFromSelf@ DB 'GetNameFromSelf', 00H ; `string'
CONST	ENDS
;	COMDAT ??_C@_0BE@IPFHAMEN@GetAcceptFromTarget@
CONST	SEGMENT
??_C@_0BE@IPFHAMEN@GetAcceptFromTarget@ DB 'GetAcceptFromTarget', 00H ; `string'
CONST	ENDS
;	COMDAT ??_C@_0BC@EFOHFOPD@GetAcceptFromSelf@
CONST	SEGMENT
??_C@_0BC@EFOHFOPD@GetAcceptFromSelf@ DB 'GetAcceptFromSelf', 00H ; `string'
CONST	ENDS
;	COMDAT ??_C@_0BH@GPLGAOFI@GetItemCountFromTarget@
CONST	SEGMENT
??_C@_0BH@GPLGAOFI@GetItemCountFromTarget@ DB 'GetItemCountFromTarget', 00H ; `string'
CONST	ENDS
;	COMDAT ??_C@_0BF@MADFKIJK@GetItemCountFromSelf@
CONST	SEGMENT
??_C@_0BF@MADFKIJK@GetItemCountFromSelf@ DB 'GetItemCountFromSelf', 00H ; `string'
CONST	ENDS
;	COMDAT ??_C@_0BG@LLEHKHGL@GetItemVnumFromTarget@
CONST	SEGMENT
??_C@_0BG@LLEHKHGL@GetItemVnumFromTarget@ DB 'GetItemVnumFromTarget', 00H ; `string'
CONST	ENDS
;	COMDAT ??_C@_0BE@IGEBIKPO@GetItemVnumFromSelf@
CONST	SEGMENT
??_C@_0BE@IGEBIKPO@GetItemVnumFromSelf@ DB 'GetItemVnumFromSelf', 00H ; `string'
CONST	ENDS
;	COMDAT ??_C@_0BB@LMIEGPPN@GetElkFromTarget@
CONST	SEGMENT
??_C@_0BB@LMIEGPPN@GetElkFromTarget@ DB 'GetElkFromTarget', 00H ; `string'
CONST	ENDS
;	COMDAT ??_C@_0P@FLKEMEBG@GetElkFromSelf@
CONST	SEGMENT
??_C@_0P@FLKEMEBG@GetElkFromSelf@ DB 'GetElkFromSelf', 00H ; `string'
CONST	ENDS
;	COMDAT ??_C@_09NDPDNFKM@isTrading@
CONST	SEGMENT
??_C@_09NDPDNFKM@isTrading@ DB 'isTrading', 00H		; `string'
CONST	ENDS
;	COMDAT ??_C@_0M@IAKFCGCD@InitTrading@
CONST	SEGMENT
??_C@_0M@IAKFCGCD@InitTrading@ DB 'InitTrading', 00H	; `string'
CONST	ENDS
;	COMDAT ??_C@_01JPJNBJEM@I@
CONST	SEGMENT
??_C@_01JPJNBJEM@I@ DB 'I', 00H				; `string'
PUBLIC	?Instance@?$CSingleton@VCPythonExchange@@@@SAAAVCPythonExchange@@XZ ; CSingleton<CPythonExchange>::Instance
PUBLIC	?initTrade@@YAXXZ				; initTrade
PUBLIC	?exchangeGetChangeLookVnumFromTarget@@YAPAU_object@@PAU1@0@Z ; exchangeGetChangeLookVnumFromTarget
PUBLIC	?exchangeGetChangeLookVnumFromSelf@@YAPAU_object@@PAU1@0@Z ; exchangeGetChangeLookVnumFromSelf
PUBLIC	?exchangeSetElkMode@@YAPAU_object@@PAU1@0@Z	; exchangeSetElkMode
PUBLIC	?exchangeGetElkMode@@YAPAU_object@@PAU1@0@Z	; exchangeGetElkMode
PUBLIC	?exchangeGetItemAttributeFromSelf@@YAPAU_object@@PAU1@0@Z ; exchangeGetItemAttributeFromSelf
PUBLIC	?exchangeGetItemAttributeFromTarget@@YAPAU_object@@PAU1@0@Z ; exchangeGetItemAttributeFromTarget
PUBLIC	?exchangeGetItemMetinSocketFromSelf@@YAPAU_object@@PAU1@0@Z ; exchangeGetItemMetinSocketFromSelf
PUBLIC	?exchangeGetItemMetinSocketFromTarget@@YAPAU_object@@PAU1@0@Z ; exchangeGetItemMetinSocketFromTarget
PUBLIC	?exchangeGetLevelFromTarget@@YAPAU_object@@PAU1@0@Z ; exchangeGetLevelFromTarget
PUBLIC	?exchangeGetLevelFromSelf@@YAPAU_object@@PAU1@0@Z ; exchangeGetLevelFromSelf
PUBLIC	?exchangeGetRaceFromTarget@@YAPAU_object@@PAU1@0@Z ; exchangeGetRaceFromTarget
PUBLIC	?exchangeGetRaceFromSelf@@YAPAU_object@@PAU1@0@Z ; exchangeGetRaceFromSelf
PUBLIC	?exchangeGetNameFromTarget@@YAPAU_object@@PAU1@0@Z ; exchangeGetNameFromTarget
PUBLIC	?exchangeGetNameFromSelf@@YAPAU_object@@PAU1@0@Z ; exchangeGetNameFromSelf
PUBLIC	?exchangeGetItemCountFromTarget@@YAPAU_object@@PAU1@0@Z ; exchangeGetItemCountFromTarget
PUBLIC	?exchangeGetItemCountFromSelf@@YAPAU_object@@PAU1@0@Z ; exchangeGetItemCountFromSelf
PUBLIC	?exchangeGetItemVnumFromTarget@@YAPAU_object@@PAU1@0@Z ; exchangeGetItemVnumFromTarget
PUBLIC	?exchangeGetItemVnumFromSelf@@YAPAU_object@@PAU1@0@Z ; exchangeGetItemVnumFromSelf
PUBLIC	?exchangeGetAcceptFromTarget@@YAPAU_object@@PAU1@0@Z ; exchangeGetAcceptFromTarget
PUBLIC	?exchangeGetAcceptFromSelf@@YAPAU_object@@PAU1@0@Z ; exchangeGetAcceptFromSelf
PUBLIC	?exchangeGetElkFromTarget@@YAPAU_object@@PAU1@0@Z ; exchangeGetElkFromTarget
PUBLIC	?exchangeGetElkFromSelf@@YAPAU_object@@PAU1@0@Z	; exchangeGetElkFromSelf
PUBLIC	?exchangeisTrading@@YAPAU_object@@PAU1@0@Z	; exchangeisTrading
PUBLIC	?exchangeInitTrading@@YAPAU_object@@PAU1@0@Z	; exchangeInitTrading
; Function compile flags: /Ogtp
; File C:\Anka2Project\Anka2Project\Source\Binary\source\UserInterface\PythonExchangeModule.cpp
; File C:\Anka2Project\Anka2Project\Source\Binary\source\eterBase\Singleton.h
; File C:\Anka2Project\Anka2Project\Source\Binary\source\UserInterface\PythonExchangeModule.cpp
;	COMDAT ?exchangeisTrading@@YAPAU_object@@PAU1@0@Z
_TEXT	SEGMENT
_poSelf$ = 8						; size = 4
_poArgs$ = 12						; size = 4
?exchangeisTrading@@YAPAU_object@@PAU1@0@Z PROC		; exchangeisTrading, COMDAT
; File C:\Anka2Project\Anka2Project\Source\Binary\source\eterBase\Singleton.h

; 26   : 		assert(ms_singleton);

  00000	8b 0d 00 00 00
	00		 mov	 ecx, DWORD PTR ?ms_singleton@?$CSingleton@VCPythonExchange@@@@0PAVCPythonExchange@@A ; CSingleton<CPythonExchange>::ms_singleton
  00006	85 c9		 test	 ecx, ecx
  00008	75 1a		 jne	 SHORT $LN5@exchangeis
  0000a	6a 1a		 push	 26			; 0000001aH
  0000c	68 00 00 00 00	 push	 OFFSET ??_C@_1IO@CAJLEEOI@?$AAC?$AA?3?$AA?2?$AAA?$AAn?$AAk?$AAa?$AA2?$AAP?$AAr?$AAo?$AAj?$AAe?$AAc?$AAt@
  00011	68 00 00 00 00	 push	 OFFSET ??_C@_1BK@FMEHPMFE@?$AAm?$AAs?$AA_?$AAs?$AAi?$AAn?$AAg?$AAl?$AAe?$AAt?$AAo?$AAn@
  00016	e8 00 00 00 00	 call	 __wassert
  0001b	8b 0d 00 00 00
	00		 mov	 ecx, DWORD PTR ?ms_singleton@?$CSingleton@VCPythonExchange@@@@0PAVCPythonExchange@@A ; CSingleton<CPythonExchange>::ms_singleton
  00021	83 c4 0c	 add	 esp, 12			; 0000000cH
$LN5@exchangeis:
; File C:\Anka2Project\Anka2Project\Source\Binary\source\UserInterface\PythonExchangeModule.cpp

; 12   : 	return Py_BuildValue("i", CPythonExchange::Instance().isTrading());

  00024	e8 00 00 00 00	 call	 ?isTrading@CPythonExchange@@QAE_NXZ ; CPythonExchange::isTrading
  00029	0f b6 c0	 movzx	 eax, al
  0002c	50		 push	 eax
  0002d	68 00 00 00 00	 push	 OFFSET ??_C@_01KBJDNOO@i@
  00032	ff 15 00 00 00
	00		 call	 DWORD PTR __imp__Py_BuildValue
  00038	83 c4 08	 add	 esp, 8

; 13   : }

  0003b	c3		 ret	 0
?exchangeisTrading@@YAPAU_object@@PAU1@0@Z ENDP		; exchangeisTrading
_TEXT	ENDS
; Function compile flags: /Ogtp
; File C:\Anka2Project\Anka2Project\Source\Binary\source\UserInterface\PythonExchangeModule.cpp
; File C:\Anka2Project\Anka2Project\Source\Binary\source\eterBase\Singleton.h
; File C:\Anka2Project\Anka2Project\Source\Binary\source\UserInterface\PythonExchangeModule.cpp
;	COMDAT ?exchangeGetElkFromSelf@@YAPAU_object@@PAU1@0@Z
_TEXT	SEGMENT
_poSelf$ = 8						; size = 4
_poArgs$ = 12						; size = 4
?exchangeGetElkFromSelf@@YAPAU_object@@PAU1@0@Z PROC	; exchangeGetElkFromSelf, COMDAT
; File C:\Anka2Project\Anka2Project\Source\Binary\source\eterBase\Singleton.h

; 26   : 		assert(ms_singleton);

  00000	8b 0d 00 00 00
	00		 mov	 ecx, DWORD PTR ?ms_singleton@?$CSingleton@VCPythonExchange@@@@0PAVCPythonExchange@@A ; CSingleton<CPythonExchange>::ms_singleton
  00006	85 c9		 test	 ecx, ecx
  00008	75 1a		 jne	 SHORT $LN5@exchangeGe
  0000a	6a 1a		 push	 26			; 0000001aH
  0000c	68 00 00 00 00	 push	 OFFSET ??_C@_1IO@CAJLEEOI@?$AAC?$AA?3?$AA?2?$AAA?$AAn?$AAk?$AAa?$AA2?$AAP?$AAr?$AAo?$AAj?$AAe?$AAc?$AAt@
  00011	68 00 00 00 00	 push	 OFFSET ??_C@_1BK@FMEHPMFE@?$AAm?$AAs?$AA_?$AAs?$AAi?$AAn?$AAg?$AAl?$AAe?$AAt?$AAo?$AAn@
  00016	e8 00 00 00 00	 call	 __wassert
  0001b	8b 0d 00 00 00
	00		 mov	 ecx, DWORD PTR ?ms_singleton@?$CSingleton@VCPythonExchange@@@@0PAVCPythonExchange@@A ; CSingleton<CPythonExchange>::ms_singleton
  00021	83 c4 0c	 add	 esp, 12			; 0000000cH
$LN5@exchangeGe:
; File C:\Anka2Project\Anka2Project\Source\Binary\source\UserInterface\PythonExchangeModule.cpp

; 18   : 	return PyLong_FromLongLong(CPythonExchange::Instance().GetElkFromSelf());

  00024	e8 00 00 00 00	 call	 ?GetElkFromSelf@CPythonExchange@@QAE_JXZ ; CPythonExchange::GetElkFromSelf
  00029	52		 push	 edx
  0002a	50		 push	 eax
  0002b	ff 15 00 00 00
	00		 call	 DWORD PTR __imp__PyLong_FromLongLong
  00031	83 c4 08	 add	 esp, 8

; 19   : #else
; 20   : 	return Py_BuildValue("i", CPythonExchange::Instance().GetElkFromSelf());
; 21   : #endif
; 22   : }

  00034	c3		 ret	 0
?exchangeGetElkFromSelf@@YAPAU_object@@PAU1@0@Z ENDP	; exchangeGetElkFromSelf
_TEXT	ENDS
; Function compile flags: /Ogtp
; File C:\Anka2Project\Anka2Project\Source\Binary\source\UserInterface\PythonExchangeModule.cpp
; File C:\Anka2Project\Anka2Project\Source\Binary\source\eterBase\Singleton.h
; File C:\Anka2Project\Anka2Project\Source\Binary\source\UserInterface\PythonExchangeModule.cpp
;	COMDAT ?exchangeGetElkFromTarget@@YAPAU_object@@PAU1@0@Z
_TEXT	SEGMENT
_poSelf$ = 8						; size = 4
_poArgs$ = 12						; size = 4
?exchangeGetElkFromTarget@@YAPAU_object@@PAU1@0@Z PROC	; exchangeGetElkFromTarget, COMDAT
; File C:\Anka2Project\Anka2Project\Source\Binary\source\eterBase\Singleton.h

; 26   : 		assert(ms_singleton);

  00000	8b 0d 00 00 00
	00		 mov	 ecx, DWORD PTR ?ms_singleton@?$CSingleton@VCPythonExchange@@@@0PAVCPythonExchange@@A ; CSingleton<CPythonExchange>::ms_singleton
  00006	85 c9		 test	 ecx, ecx
  00008	75 1a		 jne	 SHORT $LN5@exchangeGe
  0000a	6a 1a		 push	 26			; 0000001aH
  0000c	68 00 00 00 00	 push	 OFFSET ??_C@_1IO@CAJLEEOI@?$AAC?$AA?3?$AA?2?$AAA?$AAn?$AAk?$AAa?$AA2?$AAP?$AAr?$AAo?$AAj?$AAe?$AAc?$AAt@
  00011	68 00 00 00 00	 push	 OFFSET ??_C@_1BK@FMEHPMFE@?$AAm?$AAs?$AA_?$AAs?$AAi?$AAn?$AAg?$AAl?$AAe?$AAt?$AAo?$AAn@
  00016	e8 00 00 00 00	 call	 __wassert
  0001b	8b 0d 00 00 00
	00		 mov	 ecx, DWORD PTR ?ms_singleton@?$CSingleton@VCPythonExchange@@@@0PAVCPythonExchange@@A ; CSingleton<CPythonExchange>::ms_singleton
  00021	83 c4 0c	 add	 esp, 12			; 0000000cH
$LN5@exchangeGe:
; File C:\Anka2Project\Anka2Project\Source\Binary\source\UserInterface\PythonExchangeModule.cpp

; 27   : 	return PyLong_FromLongLong(CPythonExchange::Instance().GetElkFromTarget());

  00024	e8 00 00 00 00	 call	 ?GetElkFromTarget@CPythonExchange@@QAE_JXZ ; CPythonExchange::GetElkFromTarget
  00029	52		 push	 edx
  0002a	50		 push	 eax
  0002b	ff 15 00 00 00
	00		 call	 DWORD PTR __imp__PyLong_FromLongLong
  00031	83 c4 08	 add	 esp, 8

; 28   : #else
; 29   : 	return Py_BuildValue("i", CPythonExchange::Instance().GetElkFromTarget());
; 30   : #endif
; 31   : }

  00034	c3		 ret	 0
?exchangeGetElkFromTarget@@YAPAU_object@@PAU1@0@Z ENDP	; exchangeGetElkFromTarget
_TEXT	ENDS
; Function compile flags: /Ogtp
; File C:\Anka2Project\Anka2Project\Source\Binary\source\UserInterface\PythonExchangeModule.cpp
; File C:\Anka2Project\Anka2Project\Source\Binary\source\eterBase\Singleton.h
; File C:\Anka2Project\Anka2Project\Source\Binary\source\UserInterface\PythonExchangeModule.cpp
;	COMDAT ?exchangeGetAcceptFromSelf@@YAPAU_object@@PAU1@0@Z
_TEXT	SEGMENT
_poSelf$ = 8						; size = 4
_poArgs$ = 12						; size = 4
?exchangeGetAcceptFromSelf@@YAPAU_object@@PAU1@0@Z PROC	; exchangeGetAcceptFromSelf, COMDAT
; File C:\Anka2Project\Anka2Project\Source\Binary\source\eterBase\Singleton.h

; 26   : 		assert(ms_singleton);

  00000	8b 0d 00 00 00
	00		 mov	 ecx, DWORD PTR ?ms_singleton@?$CSingleton@VCPythonExchange@@@@0PAVCPythonExchange@@A ; CSingleton<CPythonExchange>::ms_singleton
  00006	85 c9		 test	 ecx, ecx
  00008	75 1a		 jne	 SHORT $LN5@exchangeGe
  0000a	6a 1a		 push	 26			; 0000001aH
  0000c	68 00 00 00 00	 push	 OFFSET ??_C@_1IO@CAJLEEOI@?$AAC?$AA?3?$AA?2?$AAA?$AAn?$AAk?$AAa?$AA2?$AAP?$AAr?$AAo?$AAj?$AAe?$AAc?$AAt@
  00011	68 00 00 00 00	 push	 OFFSET ??_C@_1BK@FMEHPMFE@?$AAm?$AAs?$AA_?$AAs?$AAi?$AAn?$AAg?$AAl?$AAe?$AAt?$AAo?$AAn@
  00016	e8 00 00 00 00	 call	 __wassert
  0001b	8b 0d 00 00 00
	00		 mov	 ecx, DWORD PTR ?ms_singleton@?$CSingleton@VCPythonExchange@@@@0PAVCPythonExchange@@A ; CSingleton<CPythonExchange>::ms_singleton
  00021	83 c4 0c	 add	 esp, 12			; 0000000cH
$LN5@exchangeGe:
; File C:\Anka2Project\Anka2Project\Source\Binary\source\UserInterface\PythonExchangeModule.cpp

; 35   : 	return Py_BuildValue("i", CPythonExchange::Instance().GetAcceptFromSelf());

  00024	e8 00 00 00 00	 call	 ?GetAcceptFromSelf@CPythonExchange@@QAE_NXZ ; CPythonExchange::GetAcceptFromSelf
  00029	0f b6 c0	 movzx	 eax, al
  0002c	50		 push	 eax
  0002d	68 00 00 00 00	 push	 OFFSET ??_C@_01KBJDNOO@i@
  00032	ff 15 00 00 00
	00		 call	 DWORD PTR __imp__Py_BuildValue
  00038	83 c4 08	 add	 esp, 8

; 36   : }

  0003b	c3		 ret	 0
?exchangeGetAcceptFromSelf@@YAPAU_object@@PAU1@0@Z ENDP	; exchangeGetAcceptFromSelf
_TEXT	ENDS
; Function compile flags: /Ogtp
; File C:\Anka2Project\Anka2Project\Source\Binary\source\UserInterface\PythonExchangeModule.cpp
; File C:\Anka2Project\Anka2Project\Source\Binary\source\eterBase\Singleton.h
; File C:\Anka2Project\Anka2Project\Source\Binary\source\UserInterface\PythonExchangeModule.cpp
;	COMDAT ?exchangeGetAcceptFromTarget@@YAPAU_object@@PAU1@0@Z
_TEXT	SEGMENT
_poSelf$ = 8						; size = 4
_poArgs$ = 12						; size = 4
?exchangeGetAcceptFromTarget@@YAPAU_object@@PAU1@0@Z PROC ; exchangeGetAcceptFromTarget, COMDAT
; File C:\Anka2Project\Anka2Project\Source\Binary\source\eterBase\Singleton.h

; 26   : 		assert(ms_singleton);

  00000	8b 0d 00 00 00
	00		 mov	 ecx, DWORD PTR ?ms_singleton@?$CSingleton@VCPythonExchange@@@@0PAVCPythonExchange@@A ; CSingleton<CPythonExchange>::ms_singleton
  00006	85 c9		 test	 ecx, ecx
  00008	75 1a		 jne	 SHORT $LN5@exchangeGe
  0000a	6a 1a		 push	 26			; 0000001aH
  0000c	68 00 00 00 00	 push	 OFFSET ??_C@_1IO@CAJLEEOI@?$AAC?$AA?3?$AA?2?$AAA?$AAn?$AAk?$AAa?$AA2?$AAP?$AAr?$AAo?$AAj?$AAe?$AAc?$AAt@
  00011	68 00 00 00 00	 push	 OFFSET ??_C@_1BK@FMEHPMFE@?$AAm?$AAs?$AA_?$AAs?$AAi?$AAn?$AAg?$AAl?$AAe?$AAt?$AAo?$AAn@
  00016	e8 00 00 00 00	 call	 __wassert
  0001b	8b 0d 00 00 00
	00		 mov	 ecx, DWORD PTR ?ms_singleton@?$CSingleton@VCPythonExchange@@@@0PAVCPythonExchange@@A ; CSingleton<CPythonExchange>::ms_singleton
  00021	83 c4 0c	 add	 esp, 12			; 0000000cH
$LN5@exchangeGe:
; File C:\Anka2Project\Anka2Project\Source\Binary\source\UserInterface\PythonExchangeModule.cpp

; 40   : 	return Py_BuildValue("i", CPythonExchange::Instance().GetAcceptFromTarget());

  00024	e8 00 00 00 00	 call	 ?GetAcceptFromTarget@CPythonExchange@@QAE_NXZ ; CPythonExchange::GetAcceptFromTarget
  00029	0f b6 c0	 movzx	 eax, al
  0002c	50		 push	 eax
  0002d	68 00 00 00 00	 push	 OFFSET ??_C@_01KBJDNOO@i@
  00032	ff 15 00 00 00
	00		 call	 DWORD PTR __imp__Py_BuildValue
  00038	83 c4 08	 add	 esp, 8

; 41   : }

  0003b	c3		 ret	 0
?exchangeGetAcceptFromTarget@@YAPAU_object@@PAU1@0@Z ENDP ; exchangeGetAcceptFromTarget
_TEXT	ENDS
; Function compile flags: /Ogtp
; File C:\Anka2Project\Anka2Project\Source\Binary\source\UserInterface\PythonExchangeModule.cpp
; File C:\Anka2Project\Anka2Project\Source\Binary\source\eterBase\Singleton.h
; File C:\Anka2Project\Anka2Project\Source\Binary\source\UserInterface\PythonExchangeModule.cpp
;	COMDAT ?exchangeGetItemVnumFromSelf@@YAPAU_object@@PAU1@0@Z
_TEXT	SEGMENT
_pos$ = -4						; size = 4
_poSelf$ = 8						; size = 4
_poArgs$ = 12						; size = 4
?exchangeGetItemVnumFromSelf@@YAPAU_object@@PAU1@0@Z PROC ; exchangeGetItemVnumFromSelf, COMDAT

; 44   : {

  00000	55		 push	 ebp
  00001	8b ec		 mov	 ebp, esp
  00003	51		 push	 ecx

; 45   : 	int pos;
; 46   : 
; 47   : 	if (!PyTuple_GetInteger(poArgs, 0, &pos))

  00004	8d 45 fc	 lea	 eax, DWORD PTR _pos$[ebp]
  00007	50		 push	 eax
  00008	6a 00		 push	 0
  0000a	ff 75 0c	 push	 DWORD PTR _poArgs$[ebp]
  0000d	e8 00 00 00 00	 call	 ?PyTuple_GetInteger@@YA_NPAU_object@@HPAH@Z ; PyTuple_GetInteger
  00012	83 c4 0c	 add	 esp, 12			; 0000000cH
  00015	84 c0		 test	 al, al
  00017	75 0e		 jne	 SHORT $LN2@exchangeGe

; 48   : 		return Py_BuildException();

  00019	6a 00		 push	 0
  0001b	e8 00 00 00 00	 call	 ?Py_BuildException@@YAPAU_object@@PBDZZ ; Py_BuildException
  00020	83 c4 04	 add	 esp, 4

; 51   : }

  00023	8b e5		 mov	 esp, ebp
  00025	5d		 pop	 ebp
  00026	c3		 ret	 0
$LN2@exchangeGe:
; File C:\Anka2Project\Anka2Project\Source\Binary\source\eterBase\Singleton.h

; 26   : 		assert(ms_singleton);

  00027	8b 0d 00 00 00
	00		 mov	 ecx, DWORD PTR ?ms_singleton@?$CSingleton@VCPythonExchange@@@@0PAVCPythonExchange@@A ; CSingleton<CPythonExchange>::ms_singleton
  0002d	85 c9		 test	 ecx, ecx
  0002f	75 1a		 jne	 SHORT $LN6@exchangeGe
  00031	6a 1a		 push	 26			; 0000001aH
  00033	68 00 00 00 00	 push	 OFFSET ??_C@_1IO@CAJLEEOI@?$AAC?$AA?3?$AA?2?$AAA?$AAn?$AAk?$AAa?$AA2?$AAP?$AAr?$AAo?$AAj?$AAe?$AAc?$AAt@
  00038	68 00 00 00 00	 push	 OFFSET ??_C@_1BK@FMEHPMFE@?$AAm?$AAs?$AA_?$AAs?$AAi?$AAn?$AAg?$AAl?$AAe?$AAt?$AAo?$AAn@
  0003d	e8 00 00 00 00	 call	 __wassert
  00042	8b 0d 00 00 00
	00		 mov	 ecx, DWORD PTR ?ms_singleton@?$CSingleton@VCPythonExchange@@@@0PAVCPythonExchange@@A ; CSingleton<CPythonExchange>::ms_singleton
  00048	83 c4 0c	 add	 esp, 12			; 0000000cH
$LN6@exchangeGe:
; File C:\Anka2Project\Anka2Project\Source\Binary\source\UserInterface\PythonExchangeModule.cpp

; 50   : 	return Py_BuildValue("i", CPythonExchange::Instance().GetItemVnumFromSelf((char) pos));

  0004b	ff 75 fc	 push	 DWORD PTR _pos$[ebp]
  0004e	e8 00 00 00 00	 call	 ?GetItemVnumFromSelf@CPythonExchange@@QAEKE@Z ; CPythonExchange::GetItemVnumFromSelf
  00053	50		 push	 eax
  00054	68 00 00 00 00	 push	 OFFSET ??_C@_01KBJDNOO@i@
  00059	ff 15 00 00 00
	00		 call	 DWORD PTR __imp__Py_BuildValue
  0005f	83 c4 08	 add	 esp, 8

; 51   : }

  00062	8b e5		 mov	 esp, ebp
  00064	5d		 pop	 ebp
  00065	c3		 ret	 0
?exchangeGetItemVnumFromSelf@@YAPAU_object@@PAU1@0@Z ENDP ; exchangeGetItemVnumFromSelf
_TEXT	ENDS
; Function compile flags: /Ogtp
; File C:\Anka2Project\Anka2Project\Source\Binary\source\UserInterface\PythonExchangeModule.cpp
; File C:\Anka2Project\Anka2Project\Source\Binary\source\eterBase\Singleton.h
; File C:\Anka2Project\Anka2Project\Source\Binary\source\UserInterface\PythonExchangeModule.cpp
;	COMDAT ?exchangeGetItemVnumFromTarget@@YAPAU_object@@PAU1@0@Z
_TEXT	SEGMENT
_pos$ = -4						; size = 4
_poTarget$ = 8						; size = 4
_poArgs$ = 12						; size = 4
?exchangeGetItemVnumFromTarget@@YAPAU_object@@PAU1@0@Z PROC ; exchangeGetItemVnumFromTarget, COMDAT

; 54   : {

  00000	55		 push	 ebp
  00001	8b ec		 mov	 ebp, esp
  00003	51		 push	 ecx

; 55   : 	int pos;
; 56   : 
; 57   : 	if (!PyTuple_GetInteger(poArgs, 0, &pos))

  00004	8d 45 fc	 lea	 eax, DWORD PTR _pos$[ebp]
  00007	50		 push	 eax
  00008	6a 00		 push	 0
  0000a	ff 75 0c	 push	 DWORD PTR _poArgs$[ebp]
  0000d	e8 00 00 00 00	 call	 ?PyTuple_GetInteger@@YA_NPAU_object@@HPAH@Z ; PyTuple_GetInteger
  00012	83 c4 0c	 add	 esp, 12			; 0000000cH
  00015	84 c0		 test	 al, al
  00017	75 0e		 jne	 SHORT $LN2@exchangeGe

; 58   : 		return Py_BuildException();

  00019	6a 00		 push	 0
  0001b	e8 00 00 00 00	 call	 ?Py_BuildException@@YAPAU_object@@PBDZZ ; Py_BuildException
  00020	83 c4 04	 add	 esp, 4

; 61   : }

  00023	8b e5		 mov	 esp, ebp
  00025	5d		 pop	 ebp
  00026	c3		 ret	 0
$LN2@exchangeGe:
; File C:\Anka2Project\Anka2Project\Source\Binary\source\eterBase\Singleton.h

; 26   : 		assert(ms_singleton);

  00027	8b 0d 00 00 00
	00		 mov	 ecx, DWORD PTR ?ms_singleton@?$CSingleton@VCPythonExchange@@@@0PAVCPythonExchange@@A ; CSingleton<CPythonExchange>::ms_singleton
  0002d	85 c9		 test	 ecx, ecx
  0002f	75 1a		 jne	 SHORT $LN6@exchangeGe
  00031	6a 1a		 push	 26			; 0000001aH
  00033	68 00 00 00 00	 push	 OFFSET ??_C@_1IO@CAJLEEOI@?$AAC?$AA?3?$AA?2?$AAA?$AAn?$AAk?$AAa?$AA2?$AAP?$AAr?$AAo?$AAj?$AAe?$AAc?$AAt@
  00038	68 00 00 00 00	 push	 OFFSET ??_C@_1BK@FMEHPMFE@?$AAm?$AAs?$AA_?$AAs?$AAi?$AAn?$AAg?$AAl?$AAe?$AAt?$AAo?$AAn@
  0003d	e8 00 00 00 00	 call	 __wassert
  00042	8b 0d 00 00 00
	00		 mov	 ecx, DWORD PTR ?ms_singleton@?$CSingleton@VCPythonExchange@@@@0PAVCPythonExchange@@A ; CSingleton<CPythonExchange>::ms_singleton
  00048	83 c4 0c	 add	 esp, 12			; 0000000cH
$LN6@exchangeGe:
; File C:\Anka2Project\Anka2Project\Source\Binary\source\UserInterface\PythonExchangeModule.cpp

; 60   : 	return Py_BuildValue("i", CPythonExchange::Instance().GetItemVnumFromTarget((char) pos));

  0004b	ff 75 fc	 push	 DWORD PTR _pos$[ebp]
  0004e	e8 00 00 00 00	 call	 ?GetItemVnumFromTarget@CPythonExchange@@QAEKE@Z ; CPythonExchange::GetItemVnumFromTarget
  00053	50		 push	 eax
  00054	68 00 00 00 00	 push	 OFFSET ??_C@_01KBJDNOO@i@
  00059	ff 15 00 00 00
	00		 call	 DWORD PTR __imp__Py_BuildValue
  0005f	83 c4 08	 add	 esp, 8

; 61   : }

  00062	8b e5		 mov	 esp, ebp
  00064	5d		 pop	 ebp
  00065	c3		 ret	 0
?exchangeGetItemVnumFromTarget@@YAPAU_object@@PAU1@0@Z ENDP ; exchangeGetItemVnumFromTarget
_TEXT	ENDS
; Function compile flags: /Ogtp
; File C:\Anka2Project\Anka2Project\Source\Binary\source\UserInterface\PythonExchangeModule.cpp
; File C:\Anka2Project\Anka2Project\Source\Binary\source\eterBase\Singleton.h
; File C:\Anka2Project\Anka2Project\Source\Binary\source\UserInterface\PythonExchangeModule.cpp
;	COMDAT ?exchangeGetItemCountFromSelf@@YAPAU_object@@PAU1@0@Z
_TEXT	SEGMENT
_pos$ = -4						; size = 4
_poSelf$ = 8						; size = 4
_poArgs$ = 12						; size = 4
?exchangeGetItemCountFromSelf@@YAPAU_object@@PAU1@0@Z PROC ; exchangeGetItemCountFromSelf, COMDAT

; 64   : {

  00000	55		 push	 ebp
  00001	8b ec		 mov	 ebp, esp
  00003	51		 push	 ecx

; 65   : 	int pos;
; 66   : 
; 67   : 	if (!PyTuple_GetInteger(poArgs, 0, &pos))

  00004	8d 45 fc	 lea	 eax, DWORD PTR _pos$[ebp]
  00007	50		 push	 eax
  00008	6a 00		 push	 0
  0000a	ff 75 0c	 push	 DWORD PTR _poArgs$[ebp]
  0000d	e8 00 00 00 00	 call	 ?PyTuple_GetInteger@@YA_NPAU_object@@HPAH@Z ; PyTuple_GetInteger
  00012	83 c4 0c	 add	 esp, 12			; 0000000cH
  00015	84 c0		 test	 al, al
  00017	75 0e		 jne	 SHORT $LN2@exchangeGe

; 68   : 		return Py_BuildException();

  00019	6a 00		 push	 0
  0001b	e8 00 00 00 00	 call	 ?Py_BuildException@@YAPAU_object@@PBDZZ ; Py_BuildException
  00020	83 c4 04	 add	 esp, 4

; 71   : }

  00023	8b e5		 mov	 esp, ebp
  00025	5d		 pop	 ebp
  00026	c3		 ret	 0
$LN2@exchangeGe:
; File C:\Anka2Project\Anka2Project\Source\Binary\source\eterBase\Singleton.h

; 26   : 		assert(ms_singleton);

  00027	8b 0d 00 00 00
	00		 mov	 ecx, DWORD PTR ?ms_singleton@?$CSingleton@VCPythonExchange@@@@0PAVCPythonExchange@@A ; CSingleton<CPythonExchange>::ms_singleton
  0002d	85 c9		 test	 ecx, ecx
  0002f	75 1a		 jne	 SHORT $LN6@exchangeGe
  00031	6a 1a		 push	 26			; 0000001aH
  00033	68 00 00 00 00	 push	 OFFSET ??_C@_1IO@CAJLEEOI@?$AAC?$AA?3?$AA?2?$AAA?$AAn?$AAk?$AAa?$AA2?$AAP?$AAr?$AAo?$AAj?$AAe?$AAc?$AAt@
  00038	68 00 00 00 00	 push	 OFFSET ??_C@_1BK@FMEHPMFE@?$AAm?$AAs?$AA_?$AAs?$AAi?$AAn?$AAg?$AAl?$AAe?$AAt?$AAo?$AAn@
  0003d	e8 00 00 00 00	 call	 __wassert
  00042	8b 0d 00 00 00
	00		 mov	 ecx, DWORD PTR ?ms_singleton@?$CSingleton@VCPythonExchange@@@@0PAVCPythonExchange@@A ; CSingleton<CPythonExchange>::ms_singleton
  00048	83 c4 0c	 add	 esp, 12			; 0000000cH
$LN6@exchangeGe:
; File C:\Anka2Project\Anka2Project\Source\Binary\source\UserInterface\PythonExchangeModule.cpp

; 70   : 	return Py_BuildValue("i", CPythonExchange::Instance().GetItemCountFromSelf((char) pos));

  0004b	ff 75 fc	 push	 DWORD PTR _pos$[ebp]
  0004e	e8 00 00 00 00	 call	 ?GetItemCountFromSelf@CPythonExchange@@QAEGE@Z ; CPythonExchange::GetItemCountFromSelf
  00053	0f b7 c0	 movzx	 eax, ax
  00056	50		 push	 eax
  00057	68 00 00 00 00	 push	 OFFSET ??_C@_01KBJDNOO@i@
  0005c	ff 15 00 00 00
	00		 call	 DWORD PTR __imp__Py_BuildValue
  00062	83 c4 08	 add	 esp, 8

; 71   : }

  00065	8b e5		 mov	 esp, ebp
  00067	5d		 pop	 ebp
  00068	c3		 ret	 0
?exchangeGetItemCountFromSelf@@YAPAU_object@@PAU1@0@Z ENDP ; exchangeGetItemCountFromSelf
_TEXT	ENDS
; Function compile flags: /Ogtp
; File C:\Anka2Project\Anka2Project\Source\Binary\source\UserInterface\PythonExchangeModule.cpp
; File C:\Anka2Project\Anka2Project\Source\Binary\source\eterBase\Singleton.h
; File C:\Anka2Project\Anka2Project\Source\Binary\source\UserInterface\PythonExchangeModule.cpp
;	COMDAT ?exchangeGetItemCountFromTarget@@YAPAU_object@@PAU1@0@Z
_TEXT	SEGMENT
_pos$ = -4						; size = 4
_poTarget$ = 8						; size = 4
_poArgs$ = 12						; size = 4
?exchangeGetItemCountFromTarget@@YAPAU_object@@PAU1@0@Z PROC ; exchangeGetItemCountFromTarget, COMDAT

; 74   : {

  00000	55		 push	 ebp
  00001	8b ec		 mov	 ebp, esp
  00003	51		 push	 ecx

; 75   : 	int pos;
; 76   : 
; 77   : 	if (!PyTuple_GetInteger(poArgs, 0, &pos))

  00004	8d 45 fc	 lea	 eax, DWORD PTR _pos$[ebp]
  00007	50		 push	 eax
  00008	6a 00		 push	 0
  0000a	ff 75 0c	 push	 DWORD PTR _poArgs$[ebp]
  0000d	e8 00 00 00 00	 call	 ?PyTuple_GetInteger@@YA_NPAU_object@@HPAH@Z ; PyTuple_GetInteger
  00012	83 c4 0c	 add	 esp, 12			; 0000000cH
  00015	84 c0		 test	 al, al
  00017	75 0e		 jne	 SHORT $LN2@exchangeGe

; 78   : 		return Py_BuildException();

  00019	6a 00		 push	 0
  0001b	e8 00 00 00 00	 call	 ?Py_BuildException@@YAPAU_object@@PBDZZ ; Py_BuildException
  00020	83 c4 04	 add	 esp, 4

; 81   : }

  00023	8b e5		 mov	 esp, ebp
  00025	5d		 pop	 ebp
  00026	c3		 ret	 0
$LN2@exchangeGe:
; File C:\Anka2Project\Anka2Project\Source\Binary\source\eterBase\Singleton.h

; 26   : 		assert(ms_singleton);

  00027	8b 0d 00 00 00
	00		 mov	 ecx, DWORD PTR ?ms_singleton@?$CSingleton@VCPythonExchange@@@@0PAVCPythonExchange@@A ; CSingleton<CPythonExchange>::ms_singleton
  0002d	85 c9		 test	 ecx, ecx
  0002f	75 1a		 jne	 SHORT $LN6@exchangeGe
  00031	6a 1a		 push	 26			; 0000001aH
  00033	68 00 00 00 00	 push	 OFFSET ??_C@_1IO@CAJLEEOI@?$AAC?$AA?3?$AA?2?$AAA?$AAn?$AAk?$AAa?$AA2?$AAP?$AAr?$AAo?$AAj?$AAe?$AAc?$AAt@
  00038	68 00 00 00 00	 push	 OFFSET ??_C@_1BK@FMEHPMFE@?$AAm?$AAs?$AA_?$AAs?$AAi?$AAn?$AAg?$AAl?$AAe?$AAt?$AAo?$AAn@
  0003d	e8 00 00 00 00	 call	 __wassert
  00042	8b 0d 00 00 00
	00		 mov	 ecx, DWORD PTR ?ms_singleton@?$CSingleton@VCPythonExchange@@@@0PAVCPythonExchange@@A ; CSingleton<CPythonExchange>::ms_singleton
  00048	83 c4 0c	 add	 esp, 12			; 0000000cH
$LN6@exchangeGe:
; File C:\Anka2Project\Anka2Project\Source\Binary\source\UserInterface\PythonExchangeModule.cpp

; 80   : 	return Py_BuildValue("i", CPythonExchange::Instance().GetItemCountFromTarget((char) pos));

  0004b	ff 75 fc	 push	 DWORD PTR _pos$[ebp]
  0004e	e8 00 00 00 00	 call	 ?GetItemCountFromTarget@CPythonExchange@@QAEGE@Z ; CPythonExchange::GetItemCountFromTarget
  00053	0f b7 c0	 movzx	 eax, ax
  00056	50		 push	 eax
  00057	68 00 00 00 00	 push	 OFFSET ??_C@_01KBJDNOO@i@
  0005c	ff 15 00 00 00
	00		 call	 DWORD PTR __imp__Py_BuildValue
  00062	83 c4 08	 add	 esp, 8

; 81   : }

  00065	8b e5		 mov	 esp, ebp
  00067	5d		 pop	 ebp
  00068	c3		 ret	 0
?exchangeGetItemCountFromTarget@@YAPAU_object@@PAU1@0@Z ENDP ; exchangeGetItemCountFromTarget
_TEXT	ENDS
; Function compile flags: /Ogtp
; File C:\Anka2Project\Anka2Project\Source\Binary\source\UserInterface\PythonExchangeModule.cpp
; File C:\Anka2Project\Anka2Project\Source\Binary\source\eterBase\Singleton.h
; File C:\Anka2Project\Anka2Project\Source\Binary\source\UserInterface\PythonExchangeModule.cpp
;	COMDAT ?exchangeGetNameFromSelf@@YAPAU_object@@PAU1@0@Z
_TEXT	SEGMENT
_poTarget$ = 8						; size = 4
_poArgs$ = 12						; size = 4
?exchangeGetNameFromSelf@@YAPAU_object@@PAU1@0@Z PROC	; exchangeGetNameFromSelf, COMDAT
; File C:\Anka2Project\Anka2Project\Source\Binary\source\eterBase\Singleton.h

; 26   : 		assert(ms_singleton);

  00000	8b 0d 00 00 00
	00		 mov	 ecx, DWORD PTR ?ms_singleton@?$CSingleton@VCPythonExchange@@@@0PAVCPythonExchange@@A ; CSingleton<CPythonExchange>::ms_singleton
  00006	85 c9		 test	 ecx, ecx
  00008	75 1a		 jne	 SHORT $LN5@exchangeGe
  0000a	6a 1a		 push	 26			; 0000001aH
  0000c	68 00 00 00 00	 push	 OFFSET ??_C@_1IO@CAJLEEOI@?$AAC?$AA?3?$AA?2?$AAA?$AAn?$AAk?$AAa?$AA2?$AAP?$AAr?$AAo?$AAj?$AAe?$AAc?$AAt@
  00011	68 00 00 00 00	 push	 OFFSET ??_C@_1BK@FMEHPMFE@?$AAm?$AAs?$AA_?$AAs?$AAi?$AAn?$AAg?$AAl?$AAe?$AAt?$AAo?$AAn@
  00016	e8 00 00 00 00	 call	 __wassert
  0001b	8b 0d 00 00 00
	00		 mov	 ecx, DWORD PTR ?ms_singleton@?$CSingleton@VCPythonExchange@@@@0PAVCPythonExchange@@A ; CSingleton<CPythonExchange>::ms_singleton
  00021	83 c4 0c	 add	 esp, 12			; 0000000cH
$LN5@exchangeGe:
; File C:\Anka2Project\Anka2Project\Source\Binary\source\UserInterface\PythonExchangeModule.cpp

; 85   : 	return Py_BuildValue("s", CPythonExchange::Instance().GetNameFromSelf());

  00024	e8 00 00 00 00	 call	 ?GetNameFromSelf@CPythonExchange@@QAEPADXZ ; CPythonExchange::GetNameFromSelf
  00029	50		 push	 eax
  0002a	68 00 00 00 00	 push	 OFFSET ??_C@_01LKDEMHDF@s@
  0002f	ff 15 00 00 00
	00		 call	 DWORD PTR __imp__Py_BuildValue
  00035	83 c4 08	 add	 esp, 8

; 86   : }

  00038	c3		 ret	 0
?exchangeGetNameFromSelf@@YAPAU_object@@PAU1@0@Z ENDP	; exchangeGetNameFromSelf
_TEXT	ENDS
; Function compile flags: /Ogtp
; File C:\Anka2Project\Anka2Project\Source\Binary\source\UserInterface\PythonExchangeModule.cpp
; File C:\Anka2Project\Anka2Project\Source\Binary\source\eterBase\Singleton.h
; File C:\Anka2Project\Anka2Project\Source\Binary\source\UserInterface\PythonExchangeModule.cpp
;	COMDAT ?exchangeGetNameFromTarget@@YAPAU_object@@PAU1@0@Z
_TEXT	SEGMENT
_poTarget$ = 8						; size = 4
_poArgs$ = 12						; size = 4
?exchangeGetNameFromTarget@@YAPAU_object@@PAU1@0@Z PROC	; exchangeGetNameFromTarget, COMDAT
; File C:\Anka2Project\Anka2Project\Source\Binary\source\eterBase\Singleton.h

; 26   : 		assert(ms_singleton);

  00000	8b 0d 00 00 00
	00		 mov	 ecx, DWORD PTR ?ms_singleton@?$CSingleton@VCPythonExchange@@@@0PAVCPythonExchange@@A ; CSingleton<CPythonExchange>::ms_singleton
  00006	85 c9		 test	 ecx, ecx
  00008	75 1a		 jne	 SHORT $LN5@exchangeGe
  0000a	6a 1a		 push	 26			; 0000001aH
  0000c	68 00 00 00 00	 push	 OFFSET ??_C@_1IO@CAJLEEOI@?$AAC?$AA?3?$AA?2?$AAA?$AAn?$AAk?$AAa?$AA2?$AAP?$AAr?$AAo?$AAj?$AAe?$AAc?$AAt@
  00011	68 00 00 00 00	 push	 OFFSET ??_C@_1BK@FMEHPMFE@?$AAm?$AAs?$AA_?$AAs?$AAi?$AAn?$AAg?$AAl?$AAe?$AAt?$AAo?$AAn@
  00016	e8 00 00 00 00	 call	 __wassert
  0001b	8b 0d 00 00 00
	00		 mov	 ecx, DWORD PTR ?ms_singleton@?$CSingleton@VCPythonExchange@@@@0PAVCPythonExchange@@A ; CSingleton<CPythonExchange>::ms_singleton
  00021	83 c4 0c	 add	 esp, 12			; 0000000cH
$LN5@exchangeGe:
; File C:\Anka2Project\Anka2Project\Source\Binary\source\UserInterface\PythonExchangeModule.cpp

; 90   : 	return Py_BuildValue("s", CPythonExchange::Instance().GetNameFromTarget());

  00024	e8 00 00 00 00	 call	 ?GetNameFromTarget@CPythonExchange@@QAEPADXZ ; CPythonExchange::GetNameFromTarget
  00029	50		 push	 eax
  0002a	68 00 00 00 00	 push	 OFFSET ??_C@_01LKDEMHDF@s@
  0002f	ff 15 00 00 00
	00		 call	 DWORD PTR __imp__Py_BuildValue
  00035	83 c4 08	 add	 esp, 8

; 91   : }

  00038	c3		 ret	 0
?exchangeGetNameFromTarget@@YAPAU_object@@PAU1@0@Z ENDP	; exchangeGetNameFromTarget
_TEXT	ENDS
; Function compile flags: /Ogtp
; File C:\Anka2Project\Anka2Project\Source\Binary\source\UserInterface\PythonExchangeModule.cpp
; File C:\Anka2Project\Anka2Project\Source\Binary\source\eterBase\Singleton.h
; File C:\Anka2Project\Anka2Project\Source\Binary\source\UserInterface\PythonExchangeModule.cpp
;	COMDAT ?exchangeGetRaceFromSelf@@YAPAU_object@@PAU1@0@Z
_TEXT	SEGMENT
_poTarget$ = 8						; size = 4
_poArgs$ = 12						; size = 4
?exchangeGetRaceFromSelf@@YAPAU_object@@PAU1@0@Z PROC	; exchangeGetRaceFromSelf, COMDAT
; File C:\Anka2Project\Anka2Project\Source\Binary\source\eterBase\Singleton.h

; 26   : 		assert(ms_singleton);

  00000	8b 0d 00 00 00
	00		 mov	 ecx, DWORD PTR ?ms_singleton@?$CSingleton@VCPythonExchange@@@@0PAVCPythonExchange@@A ; CSingleton<CPythonExchange>::ms_singleton
  00006	85 c9		 test	 ecx, ecx
  00008	75 1a		 jne	 SHORT $LN5@exchangeGe
  0000a	6a 1a		 push	 26			; 0000001aH
  0000c	68 00 00 00 00	 push	 OFFSET ??_C@_1IO@CAJLEEOI@?$AAC?$AA?3?$AA?2?$AAA?$AAn?$AAk?$AAa?$AA2?$AAP?$AAr?$AAo?$AAj?$AAe?$AAc?$AAt@
  00011	68 00 00 00 00	 push	 OFFSET ??_C@_1BK@FMEHPMFE@?$AAm?$AAs?$AA_?$AAs?$AAi?$AAn?$AAg?$AAl?$AAe?$AAt?$AAo?$AAn@
  00016	e8 00 00 00 00	 call	 __wassert
  0001b	8b 0d 00 00 00
	00		 mov	 ecx, DWORD PTR ?ms_singleton@?$CSingleton@VCPythonExchange@@@@0PAVCPythonExchange@@A ; CSingleton<CPythonExchange>::ms_singleton
  00021	83 c4 0c	 add	 esp, 12			; 0000000cH
$LN5@exchangeGe:
; File C:\Anka2Project\Anka2Project\Source\Binary\source\UserInterface\PythonExchangeModule.cpp

; 95   : 	return Py_BuildValue("I", CPythonExchange::Instance().GetRaceFromSelf());

  00024	e8 00 00 00 00	 call	 ?GetRaceFromSelf@CPythonExchange@@QAEKXZ ; CPythonExchange::GetRaceFromSelf
  00029	50		 push	 eax
  0002a	68 00 00 00 00	 push	 OFFSET ??_C@_01JPJNBJEM@I@
  0002f	ff 15 00 00 00
	00		 call	 DWORD PTR __imp__Py_BuildValue
  00035	83 c4 08	 add	 esp, 8

; 96   : }

  00038	c3		 ret	 0
?exchangeGetRaceFromSelf@@YAPAU_object@@PAU1@0@Z ENDP	; exchangeGetRaceFromSelf
_TEXT	ENDS
; Function compile flags: /Ogtp
; File C:\Anka2Project\Anka2Project\Source\Binary\source\UserInterface\PythonExchangeModule.cpp
; File C:\Anka2Project\Anka2Project\Source\Binary\source\eterBase\Singleton.h
; File C:\Anka2Project\Anka2Project\Source\Binary\source\UserInterface\PythonExchangeModule.cpp
;	COMDAT ?exchangeGetRaceFromTarget@@YAPAU_object@@PAU1@0@Z
_TEXT	SEGMENT
_poTarget$ = 8						; size = 4
_poArgs$ = 12						; size = 4
?exchangeGetRaceFromTarget@@YAPAU_object@@PAU1@0@Z PROC	; exchangeGetRaceFromTarget, COMDAT
; File C:\Anka2Project\Anka2Project\Source\Binary\source\eterBase\Singleton.h

; 26   : 		assert(ms_singleton);

  00000	8b 0d 00 00 00
	00		 mov	 ecx, DWORD PTR ?ms_singleton@?$CSingleton@VCPythonExchange@@@@0PAVCPythonExchange@@A ; CSingleton<CPythonExchange>::ms_singleton
  00006	85 c9		 test	 ecx, ecx
  00008	75 1a		 jne	 SHORT $LN5@exchangeGe
  0000a	6a 1a		 push	 26			; 0000001aH
  0000c	68 00 00 00 00	 push	 OFFSET ??_C@_1IO@CAJLEEOI@?$AAC?$AA?3?$AA?2?$AAA?$AAn?$AAk?$AAa?$AA2?$AAP?$AAr?$AAo?$AAj?$AAe?$AAc?$AAt@
  00011	68 00 00 00 00	 push	 OFFSET ??_C@_1BK@FMEHPMFE@?$AAm?$AAs?$AA_?$AAs?$AAi?$AAn?$AAg?$AAl?$AAe?$AAt?$AAo?$AAn@
  00016	e8 00 00 00 00	 call	 __wassert
  0001b	8b 0d 00 00 00
	00		 mov	 ecx, DWORD PTR ?ms_singleton@?$CSingleton@VCPythonExchange@@@@0PAVCPythonExchange@@A ; CSingleton<CPythonExchange>::ms_singleton
  00021	83 c4 0c	 add	 esp, 12			; 0000000cH
$LN5@exchangeGe:
; File C:\Anka2Project\Anka2Project\Source\Binary\source\UserInterface\PythonExchangeModule.cpp

; 100  : 	return Py_BuildValue("I", CPythonExchange::Instance().GetRaceFromTarget());

  00024	e8 00 00 00 00	 call	 ?GetRaceFromTarget@CPythonExchange@@QAEKXZ ; CPythonExchange::GetRaceFromTarget
  00029	50		 push	 eax
  0002a	68 00 00 00 00	 push	 OFFSET ??_C@_01JPJNBJEM@I@
  0002f	ff 15 00 00 00
	00		 call	 DWORD PTR __imp__Py_BuildValue
  00035	83 c4 08	 add	 esp, 8

; 101  : }

  00038	c3		 ret	 0
?exchangeGetRaceFromTarget@@YAPAU_object@@PAU1@0@Z ENDP	; exchangeGetRaceFromTarget
_TEXT	ENDS
; Function compile flags: /Ogtp
; File C:\Anka2Project\Anka2Project\Source\Binary\source\UserInterface\PythonExchangeModule.cpp
; File C:\Anka2Project\Anka2Project\Source\Binary\source\eterBase\Singleton.h
; File C:\Anka2Project\Anka2Project\Source\Binary\source\UserInterface\PythonExchangeModule.cpp
;	COMDAT ?exchangeGetLevelFromSelf@@YAPAU_object@@PAU1@0@Z
_TEXT	SEGMENT
_poTarget$ = 8						; size = 4
_poArgs$ = 12						; size = 4
?exchangeGetLevelFromSelf@@YAPAU_object@@PAU1@0@Z PROC	; exchangeGetLevelFromSelf, COMDAT
; File C:\Anka2Project\Anka2Project\Source\Binary\source\eterBase\Singleton.h

; 26   : 		assert(ms_singleton);

  00000	8b 0d 00 00 00
	00		 mov	 ecx, DWORD PTR ?ms_singleton@?$CSingleton@VCPythonExchange@@@@0PAVCPythonExchange@@A ; CSingleton<CPythonExchange>::ms_singleton
  00006	85 c9		 test	 ecx, ecx
  00008	75 1a		 jne	 SHORT $LN5@exchangeGe
  0000a	6a 1a		 push	 26			; 0000001aH
  0000c	68 00 00 00 00	 push	 OFFSET ??_C@_1IO@CAJLEEOI@?$AAC?$AA?3?$AA?2?$AAA?$AAn?$AAk?$AAa?$AA2?$AAP?$AAr?$AAo?$AAj?$AAe?$AAc?$AAt@
  00011	68 00 00 00 00	 push	 OFFSET ??_C@_1BK@FMEHPMFE@?$AAm?$AAs?$AA_?$AAs?$AAi?$AAn?$AAg?$AAl?$AAe?$AAt?$AAo?$AAn@
  00016	e8 00 00 00 00	 call	 __wassert
  0001b	8b 0d 00 00 00
	00		 mov	 ecx, DWORD PTR ?ms_singleton@?$CSingleton@VCPythonExchange@@@@0PAVCPythonExchange@@A ; CSingleton<CPythonExchange>::ms_singleton
  00021	83 c4 0c	 add	 esp, 12			; 0000000cH
$LN5@exchangeGe:
; File C:\Anka2Project\Anka2Project\Source\Binary\source\UserInterface\PythonExchangeModule.cpp

; 105  : 	return Py_BuildValue("I", CPythonExchange::Instance().GetLevelFromSelf());

  00024	e8 00 00 00 00	 call	 ?GetLevelFromSelf@CPythonExchange@@QAEKXZ ; CPythonExchange::GetLevelFromSelf
  00029	50		 push	 eax
  0002a	68 00 00 00 00	 push	 OFFSET ??_C@_01JPJNBJEM@I@
  0002f	ff 15 00 00 00
	00		 call	 DWORD PTR __imp__Py_BuildValue
  00035	83 c4 08	 add	 esp, 8

; 106  : }

  00038	c3		 ret	 0
?exchangeGetLevelFromSelf@@YAPAU_object@@PAU1@0@Z ENDP	; exchangeGetLevelFromSelf
_TEXT	ENDS
; Function compile flags: /Ogtp
; File C:\Anka2Project\Anka2Project\Source\Binary\source\UserInterface\PythonExchangeModule.cpp
; File C:\Anka2Project\Anka2Project\Source\Binary\source\eterBase\Singleton.h
; File C:\Anka2Project\Anka2Project\Source\Binary\source\UserInterface\PythonExchangeModule.cpp
;	COMDAT ?exchangeGetLevelFromTarget@@YAPAU_object@@PAU1@0@Z
_TEXT	SEGMENT
_poTarget$ = 8						; size = 4
_poArgs$ = 12						; size = 4
?exchangeGetLevelFromTarget@@YAPAU_object@@PAU1@0@Z PROC ; exchangeGetLevelFromTarget, COMDAT
; File C:\Anka2Project\Anka2Project\Source\Binary\source\eterBase\Singleton.h

; 26   : 		assert(ms_singleton);

  00000	8b 0d 00 00 00
	00		 mov	 ecx, DWORD PTR ?ms_singleton@?$CSingleton@VCPythonExchange@@@@0PAVCPythonExchange@@A ; CSingleton<CPythonExchange>::ms_singleton
  00006	85 c9		 test	 ecx, ecx
  00008	75 1a		 jne	 SHORT $LN5@exchangeGe
  0000a	6a 1a		 push	 26			; 0000001aH
  0000c	68 00 00 00 00	 push	 OFFSET ??_C@_1IO@CAJLEEOI@?$AAC?$AA?3?$AA?2?$AAA?$AAn?$AAk?$AAa?$AA2?$AAP?$AAr?$AAo?$AAj?$AAe?$AAc?$AAt@
  00011	68 00 00 00 00	 push	 OFFSET ??_C@_1BK@FMEHPMFE@?$AAm?$AAs?$AA_?$AAs?$AAi?$AAn?$AAg?$AAl?$AAe?$AAt?$AAo?$AAn@
  00016	e8 00 00 00 00	 call	 __wassert
  0001b	8b 0d 00 00 00
	00		 mov	 ecx, DWORD PTR ?ms_singleton@?$CSingleton@VCPythonExchange@@@@0PAVCPythonExchange@@A ; CSingleton<CPythonExchange>::ms_singleton
  00021	83 c4 0c	 add	 esp, 12			; 0000000cH
$LN5@exchangeGe:
; File C:\Anka2Project\Anka2Project\Source\Binary\source\UserInterface\PythonExchangeModule.cpp

; 110  : 	return Py_BuildValue("I", CPythonExchange::Instance().GetLevelFromTarget());

  00024	e8 00 00 00 00	 call	 ?GetLevelFromTarget@CPythonExchange@@QAEKXZ ; CPythonExchange::GetLevelFromTarget
  00029	50		 push	 eax
  0002a	68 00 00 00 00	 push	 OFFSET ??_C@_01JPJNBJEM@I@
  0002f	ff 15 00 00 00
	00		 call	 DWORD PTR __imp__Py_BuildValue
  00035	83 c4 08	 add	 esp, 8

; 111  : }

  00038	c3		 ret	 0
?exchangeGetLevelFromTarget@@YAPAU_object@@PAU1@0@Z ENDP ; exchangeGetLevelFromTarget
_TEXT	ENDS
; Function compile flags: /Ogtp
; File C:\Anka2Project\Anka2Project\Source\Binary\source\UserInterface\PythonExchangeModule.cpp
; File C:\Anka2Project\Anka2Project\Source\Binary\source\eterBase\Singleton.h
; File C:\Anka2Project\Anka2Project\Source\Binary\source\UserInterface\PythonExchangeModule.cpp
;	COMDAT ?exchangeGetItemMetinSocketFromTarget@@YAPAU_object@@PAU1@0@Z
_TEXT	SEGMENT
_pos$ = -8						; size = 4
_iMetinSocketPos$ = -4					; size = 4
_poTarget$ = 8						; size = 4
_poArgs$ = 12						; size = 4
?exchangeGetItemMetinSocketFromTarget@@YAPAU_object@@PAU1@0@Z PROC ; exchangeGetItemMetinSocketFromTarget, COMDAT

; 114  : {

  00000	55		 push	 ebp
  00001	8b ec		 mov	 ebp, esp
  00003	83 ec 08	 sub	 esp, 8

; 115  : 	int pos;
; 116  : 	if (!PyTuple_GetInteger(poArgs, 0, &pos))

  00006	8d 45 f8	 lea	 eax, DWORD PTR _pos$[ebp]
  00009	50		 push	 eax
  0000a	6a 00		 push	 0
  0000c	ff 75 0c	 push	 DWORD PTR _poArgs$[ebp]
  0000f	e8 00 00 00 00	 call	 ?PyTuple_GetInteger@@YA_NPAU_object@@HPAH@Z ; PyTuple_GetInteger
  00014	83 c4 0c	 add	 esp, 12			; 0000000cH
  00017	84 c0		 test	 al, al
  00019	75 0e		 jne	 SHORT $LN2@exchangeGe
$LN8@exchangeGe:

; 122  : }

  0001b	6a 00		 push	 0
  0001d	e8 00 00 00 00	 call	 ?Py_BuildException@@YAPAU_object@@PBDZZ ; Py_BuildException
  00022	83 c4 04	 add	 esp, 4
  00025	8b e5		 mov	 esp, ebp
  00027	5d		 pop	 ebp
  00028	c3		 ret	 0
$LN2@exchangeGe:

; 117  : 		return Py_BuildException();
; 118  : 	int iMetinSocketPos;
; 119  : 	if (!PyTuple_GetInteger(poArgs, 1, &iMetinSocketPos))

  00029	8d 45 fc	 lea	 eax, DWORD PTR _iMetinSocketPos$[ebp]
  0002c	50		 push	 eax
  0002d	6a 01		 push	 1
  0002f	ff 75 0c	 push	 DWORD PTR _poArgs$[ebp]
  00032	e8 00 00 00 00	 call	 ?PyTuple_GetInteger@@YA_NPAU_object@@HPAH@Z ; PyTuple_GetInteger
  00037	83 c4 0c	 add	 esp, 12			; 0000000cH
  0003a	84 c0		 test	 al, al
  0003c	74 dd		 je	 SHORT $LN8@exchangeGe
; File C:\Anka2Project\Anka2Project\Source\Binary\source\eterBase\Singleton.h

; 26   : 		assert(ms_singleton);

  0003e	8b 0d 00 00 00
	00		 mov	 ecx, DWORD PTR ?ms_singleton@?$CSingleton@VCPythonExchange@@@@0PAVCPythonExchange@@A ; CSingleton<CPythonExchange>::ms_singleton
  00044	85 c9		 test	 ecx, ecx
  00046	75 1a		 jne	 SHORT $LN7@exchangeGe
  00048	6a 1a		 push	 26			; 0000001aH
  0004a	68 00 00 00 00	 push	 OFFSET ??_C@_1IO@CAJLEEOI@?$AAC?$AA?3?$AA?2?$AAA?$AAn?$AAk?$AAa?$AA2?$AAP?$AAr?$AAo?$AAj?$AAe?$AAc?$AAt@
  0004f	68 00 00 00 00	 push	 OFFSET ??_C@_1BK@FMEHPMFE@?$AAm?$AAs?$AA_?$AAs?$AAi?$AAn?$AAg?$AAl?$AAe?$AAt?$AAo?$AAn@
  00054	e8 00 00 00 00	 call	 __wassert
  00059	8b 0d 00 00 00
	00		 mov	 ecx, DWORD PTR ?ms_singleton@?$CSingleton@VCPythonExchange@@@@0PAVCPythonExchange@@A ; CSingleton<CPythonExchange>::ms_singleton
  0005f	83 c4 0c	 add	 esp, 12			; 0000000cH
$LN7@exchangeGe:
; File C:\Anka2Project\Anka2Project\Source\Binary\source\UserInterface\PythonExchangeModule.cpp

; 121  : 	return Py_BuildValue("i", CPythonExchange::Instance().GetItemMetinSocketFromTarget(pos, iMetinSocketPos));

  00062	ff 75 fc	 push	 DWORD PTR _iMetinSocketPos$[ebp]
  00065	ff 75 f8	 push	 DWORD PTR _pos$[ebp]
  00068	e8 00 00 00 00	 call	 ?GetItemMetinSocketFromTarget@CPythonExchange@@QAEKEH@Z ; CPythonExchange::GetItemMetinSocketFromTarget
  0006d	50		 push	 eax
  0006e	68 00 00 00 00	 push	 OFFSET ??_C@_01KBJDNOO@i@
  00073	ff 15 00 00 00
	00		 call	 DWORD PTR __imp__Py_BuildValue
  00079	83 c4 08	 add	 esp, 8

; 122  : }

  0007c	8b e5		 mov	 esp, ebp
  0007e	5d		 pop	 ebp
  0007f	c3		 ret	 0
?exchangeGetItemMetinSocketFromTarget@@YAPAU_object@@PAU1@0@Z ENDP ; exchangeGetItemMetinSocketFromTarget
_TEXT	ENDS
; Function compile flags: /Ogtp
; File C:\Anka2Project\Anka2Project\Source\Binary\source\UserInterface\PythonExchangeModule.cpp
; File C:\Anka2Project\Anka2Project\Source\Binary\source\eterBase\Singleton.h
; File C:\Anka2Project\Anka2Project\Source\Binary\source\UserInterface\PythonExchangeModule.cpp
;	COMDAT ?exchangeGetItemMetinSocketFromSelf@@YAPAU_object@@PAU1@0@Z
_TEXT	SEGMENT
_pos$ = -8						; size = 4
_iMetinSocketPos$ = -4					; size = 4
_poTarget$ = 8						; size = 4
_poArgs$ = 12						; size = 4
?exchangeGetItemMetinSocketFromSelf@@YAPAU_object@@PAU1@0@Z PROC ; exchangeGetItemMetinSocketFromSelf, COMDAT

; 125  : {

  00000	55		 push	 ebp
  00001	8b ec		 mov	 ebp, esp
  00003	83 ec 08	 sub	 esp, 8

; 126  : 	int pos;
; 127  : 	if (!PyTuple_GetInteger(poArgs, 0, &pos))

  00006	8d 45 f8	 lea	 eax, DWORD PTR _pos$[ebp]
  00009	50		 push	 eax
  0000a	6a 00		 push	 0
  0000c	ff 75 0c	 push	 DWORD PTR _poArgs$[ebp]
  0000f	e8 00 00 00 00	 call	 ?PyTuple_GetInteger@@YA_NPAU_object@@HPAH@Z ; PyTuple_GetInteger
  00014	83 c4 0c	 add	 esp, 12			; 0000000cH
  00017	84 c0		 test	 al, al
  00019	75 0e		 jne	 SHORT $LN2@exchangeGe
$LN8@exchangeGe:

; 133  : }

  0001b	6a 00		 push	 0
  0001d	e8 00 00 00 00	 call	 ?Py_BuildException@@YAPAU_object@@PBDZZ ; Py_BuildException
  00022	83 c4 04	 add	 esp, 4
  00025	8b e5		 mov	 esp, ebp
  00027	5d		 pop	 ebp
  00028	c3		 ret	 0
$LN2@exchangeGe:

; 128  : 		return Py_BuildException();
; 129  : 	int iMetinSocketPos;
; 130  : 	if (!PyTuple_GetInteger(poArgs, 1, &iMetinSocketPos))

  00029	8d 45 fc	 lea	 eax, DWORD PTR _iMetinSocketPos$[ebp]
  0002c	50		 push	 eax
  0002d	6a 01		 push	 1
  0002f	ff 75 0c	 push	 DWORD PTR _poArgs$[ebp]
  00032	e8 00 00 00 00	 call	 ?PyTuple_GetInteger@@YA_NPAU_object@@HPAH@Z ; PyTuple_GetInteger
  00037	83 c4 0c	 add	 esp, 12			; 0000000cH
  0003a	84 c0		 test	 al, al
  0003c	74 dd		 je	 SHORT $LN8@exchangeGe
; File C:\Anka2Project\Anka2Project\Source\Binary\source\eterBase\Singleton.h

; 26   : 		assert(ms_singleton);

  0003e	8b 0d 00 00 00
	00		 mov	 ecx, DWORD PTR ?ms_singleton@?$CSingleton@VCPythonExchange@@@@0PAVCPythonExchange@@A ; CSingleton<CPythonExchange>::ms_singleton
  00044	85 c9		 test	 ecx, ecx
  00046	75 1a		 jne	 SHORT $LN7@exchangeGe
  00048	6a 1a		 push	 26			; 0000001aH
  0004a	68 00 00 00 00	 push	 OFFSET ??_C@_1IO@CAJLEEOI@?$AAC?$AA?3?$AA?2?$AAA?$AAn?$AAk?$AAa?$AA2?$AAP?$AAr?$AAo?$AAj?$AAe?$AAc?$AAt@
  0004f	68 00 00 00 00	 push	 OFFSET ??_C@_1BK@FMEHPMFE@?$AAm?$AAs?$AA_?$AAs?$AAi?$AAn?$AAg?$AAl?$AAe?$AAt?$AAo?$AAn@
  00054	e8 00 00 00 00	 call	 __wassert
  00059	8b 0d 00 00 00
	00		 mov	 ecx, DWORD PTR ?ms_singleton@?$CSingleton@VCPythonExchange@@@@0PAVCPythonExchange@@A ; CSingleton<CPythonExchange>::ms_singleton
  0005f	83 c4 0c	 add	 esp, 12			; 0000000cH
$LN7@exchangeGe:
; File C:\Anka2Project\Anka2Project\Source\Binary\source\UserInterface\PythonExchangeModule.cpp

; 132  : 	return Py_BuildValue("i", CPythonExchange::Instance().GetItemMetinSocketFromSelf(pos, iMetinSocketPos));

  00062	ff 75 fc	 push	 DWORD PTR _iMetinSocketPos$[ebp]
  00065	ff 75 f8	 push	 DWORD PTR _pos$[ebp]
  00068	e8 00 00 00 00	 call	 ?GetItemMetinSocketFromSelf@CPythonExchange@@QAEKEH@Z ; CPythonExchange::GetItemMetinSocketFromSelf
  0006d	50		 push	 eax
  0006e	68 00 00 00 00	 push	 OFFSET ??_C@_01KBJDNOO@i@
  00073	ff 15 00 00 00
	00		 call	 DWORD PTR __imp__Py_BuildValue
  00079	83 c4 08	 add	 esp, 8

; 133  : }

  0007c	8b e5		 mov	 esp, ebp
  0007e	5d		 pop	 ebp
  0007f	c3		 ret	 0
?exchangeGetItemMetinSocketFromSelf@@YAPAU_object@@PAU1@0@Z ENDP ; exchangeGetItemMetinSocketFromSelf
_TEXT	ENDS
; Function compile flags: /Ogtp
; File C:\Anka2Project\Anka2Project\Source\Binary\source\UserInterface\PythonExchangeModule.cpp
; File C:\Anka2Project\Anka2Project\Source\Binary\source\eterBase\Singleton.h
; File C:\Anka2Project\Anka2Project\Source\Binary\source\UserInterface\PythonExchangeModule.cpp
;	COMDAT ?exchangeGetItemAttributeFromTarget@@YAPAU_object@@PAU1@0@Z
_TEXT	SEGMENT
_pos$ = -16						; size = 4
_iAttrSlotPos$ = -12					; size = 4
_sValue$ = -8						; size = 2
_byType$ = -1						; size = 1
_poTarget$ = 8						; size = 4
_poArgs$ = 12						; size = 4
?exchangeGetItemAttributeFromTarget@@YAPAU_object@@PAU1@0@Z PROC ; exchangeGetItemAttributeFromTarget, COMDAT

; 136  : {

  00000	55		 push	 ebp
  00001	8b ec		 mov	 ebp, esp
  00003	83 ec 10	 sub	 esp, 16			; 00000010H

; 137  : 	int pos;
; 138  : 	if (!PyTuple_GetInteger(poArgs, 0, &pos))

  00006	8d 45 f0	 lea	 eax, DWORD PTR _pos$[ebp]
  00009	50		 push	 eax
  0000a	6a 00		 push	 0
  0000c	ff 75 0c	 push	 DWORD PTR _poArgs$[ebp]
  0000f	e8 00 00 00 00	 call	 ?PyTuple_GetInteger@@YA_NPAU_object@@HPAH@Z ; PyTuple_GetInteger
  00014	83 c4 0c	 add	 esp, 12			; 0000000cH
  00017	84 c0		 test	 al, al
  00019	75 0e		 jne	 SHORT $LN2@exchangeGe
$LN8@exchangeGe:

; 149  : }

  0001b	6a 00		 push	 0
  0001d	e8 00 00 00 00	 call	 ?Py_BuildException@@YAPAU_object@@PBDZZ ; Py_BuildException
  00022	83 c4 04	 add	 esp, 4
  00025	8b e5		 mov	 esp, ebp
  00027	5d		 pop	 ebp
  00028	c3		 ret	 0
$LN2@exchangeGe:

; 139  : 		return Py_BuildException();
; 140  : 	int iAttrSlotPos;
; 141  : 	if (!PyTuple_GetInteger(poArgs, 1, &iAttrSlotPos))

  00029	8d 45 f4	 lea	 eax, DWORD PTR _iAttrSlotPos$[ebp]
  0002c	50		 push	 eax
  0002d	6a 01		 push	 1
  0002f	ff 75 0c	 push	 DWORD PTR _poArgs$[ebp]
  00032	e8 00 00 00 00	 call	 ?PyTuple_GetInteger@@YA_NPAU_object@@HPAH@Z ; PyTuple_GetInteger
  00037	83 c4 0c	 add	 esp, 12			; 0000000cH
  0003a	84 c0		 test	 al, al
  0003c	74 dd		 je	 SHORT $LN8@exchangeGe
; File C:\Anka2Project\Anka2Project\Source\Binary\source\eterBase\Singleton.h

; 26   : 		assert(ms_singleton);

  0003e	8b 0d 00 00 00
	00		 mov	 ecx, DWORD PTR ?ms_singleton@?$CSingleton@VCPythonExchange@@@@0PAVCPythonExchange@@A ; CSingleton<CPythonExchange>::ms_singleton
  00044	85 c9		 test	 ecx, ecx
  00046	75 1a		 jne	 SHORT $LN7@exchangeGe
  00048	6a 1a		 push	 26			; 0000001aH
  0004a	68 00 00 00 00	 push	 OFFSET ??_C@_1IO@CAJLEEOI@?$AAC?$AA?3?$AA?2?$AAA?$AAn?$AAk?$AAa?$AA2?$AAP?$AAr?$AAo?$AAj?$AAe?$AAc?$AAt@
  0004f	68 00 00 00 00	 push	 OFFSET ??_C@_1BK@FMEHPMFE@?$AAm?$AAs?$AA_?$AAs?$AAi?$AAn?$AAg?$AAl?$AAe?$AAt?$AAo?$AAn@
  00054	e8 00 00 00 00	 call	 __wassert
  00059	8b 0d 00 00 00
	00		 mov	 ecx, DWORD PTR ?ms_singleton@?$CSingleton@VCPythonExchange@@@@0PAVCPythonExchange@@A ; CSingleton<CPythonExchange>::ms_singleton
  0005f	83 c4 0c	 add	 esp, 12			; 0000000cH
$LN7@exchangeGe:
; File C:\Anka2Project\Anka2Project\Source\Binary\source\UserInterface\PythonExchangeModule.cpp

; 146  : 	CPythonExchange::Instance().GetItemAttributeFromTarget(pos, iAttrSlotPos, &byType, &sValue);

  00062	8d 45 f8	 lea	 eax, DWORD PTR _sValue$[ebp]
  00065	50		 push	 eax
  00066	8d 45 ff	 lea	 eax, DWORD PTR _byType$[ebp]
  00069	50		 push	 eax
  0006a	ff 75 f4	 push	 DWORD PTR _iAttrSlotPos$[ebp]
  0006d	ff 75 f0	 push	 DWORD PTR _pos$[ebp]
  00070	e8 00 00 00 00	 call	 ?GetItemAttributeFromTarget@CPythonExchange@@QAEXEHPAEPAF@Z ; CPythonExchange::GetItemAttributeFromTarget

; 147  : 
; 148  : 	return Py_BuildValue("ii", byType, sValue);

  00075	0f bf 45 f8	 movsx	 eax, WORD PTR _sValue$[ebp]
  00079	50		 push	 eax
  0007a	0f b6 45 ff	 movzx	 eax, BYTE PTR _byType$[ebp]
  0007e	50		 push	 eax
  0007f	68 00 00 00 00	 push	 OFFSET ??_C@_02PDIHAGKM@ii@
  00084	ff 15 00 00 00
	00		 call	 DWORD PTR __imp__Py_BuildValue
  0008a	83 c4 0c	 add	 esp, 12			; 0000000cH

; 149  : }

  0008d	8b e5		 mov	 esp, ebp
  0008f	5d		 pop	 ebp
  00090	c3		 ret	 0
?exchangeGetItemAttributeFromTarget@@YAPAU_object@@PAU1@0@Z ENDP ; exchangeGetItemAttributeFromTarget
_TEXT	ENDS
; Function compile flags: /Ogtp
; File C:\Anka2Project\Anka2Project\Source\Binary\source\UserInterface\PythonExchangeModule.cpp
; File C:\Anka2Project\Anka2Project\Source\Binary\source\eterBase\Singleton.h
; File C:\Anka2Project\Anka2Project\Source\Binary\source\UserInterface\PythonExchangeModule.cpp
;	COMDAT ?exchangeGetItemAttributeFromSelf@@YAPAU_object@@PAU1@0@Z
_TEXT	SEGMENT
_pos$ = -16						; size = 4
_iAttrSlotPos$ = -12					; size = 4
_sValue$ = -8						; size = 2
_byType$ = -1						; size = 1
_poTarget$ = 8						; size = 4
_poArgs$ = 12						; size = 4
?exchangeGetItemAttributeFromSelf@@YAPAU_object@@PAU1@0@Z PROC ; exchangeGetItemAttributeFromSelf, COMDAT

; 152  : {

  00000	55		 push	 ebp
  00001	8b ec		 mov	 ebp, esp
  00003	83 ec 10	 sub	 esp, 16			; 00000010H

; 153  : 	int pos;
; 154  : 	if (!PyTuple_GetInteger(poArgs, 0, &pos))

  00006	8d 45 f0	 lea	 eax, DWORD PTR _pos$[ebp]
  00009	50		 push	 eax
  0000a	6a 00		 push	 0
  0000c	ff 75 0c	 push	 DWORD PTR _poArgs$[ebp]
  0000f	e8 00 00 00 00	 call	 ?PyTuple_GetInteger@@YA_NPAU_object@@HPAH@Z ; PyTuple_GetInteger
  00014	83 c4 0c	 add	 esp, 12			; 0000000cH
  00017	84 c0		 test	 al, al
  00019	75 0e		 jne	 SHORT $LN2@exchangeGe
$LN8@exchangeGe:

; 165  : }

  0001b	6a 00		 push	 0
  0001d	e8 00 00 00 00	 call	 ?Py_BuildException@@YAPAU_object@@PBDZZ ; Py_BuildException
  00022	83 c4 04	 add	 esp, 4
  00025	8b e5		 mov	 esp, ebp
  00027	5d		 pop	 ebp
  00028	c3		 ret	 0
$LN2@exchangeGe:

; 155  : 		return Py_BuildException();
; 156  : 	int iAttrSlotPos;
; 157  : 	if (!PyTuple_GetInteger(poArgs, 1, &iAttrSlotPos))

  00029	8d 45 f4	 lea	 eax, DWORD PTR _iAttrSlotPos$[ebp]
  0002c	50		 push	 eax
  0002d	6a 01		 push	 1
  0002f	ff 75 0c	 push	 DWORD PTR _poArgs$[ebp]
  00032	e8 00 00 00 00	 call	 ?PyTuple_GetInteger@@YA_NPAU_object@@HPAH@Z ; PyTuple_GetInteger
  00037	83 c4 0c	 add	 esp, 12			; 0000000cH
  0003a	84 c0		 test	 al, al
  0003c	74 dd		 je	 SHORT $LN8@exchangeGe
; File C:\Anka2Project\Anka2Project\Source\Binary\source\eterBase\Singleton.h

; 26   : 		assert(ms_singleton);

  0003e	8b 0d 00 00 00
	00		 mov	 ecx, DWORD PTR ?ms_singleton@?$CSingleton@VCPythonExchange@@@@0PAVCPythonExchange@@A ; CSingleton<CPythonExchange>::ms_singleton
  00044	85 c9		 test	 ecx, ecx
  00046	75 1a		 jne	 SHORT $LN7@exchangeGe
  00048	6a 1a		 push	 26			; 0000001aH
  0004a	68 00 00 00 00	 push	 OFFSET ??_C@_1IO@CAJLEEOI@?$AAC?$AA?3?$AA?2?$AAA?$AAn?$AAk?$AAa?$AA2?$AAP?$AAr?$AAo?$AAj?$AAe?$AAc?$AAt@
  0004f	68 00 00 00 00	 push	 OFFSET ??_C@_1BK@FMEHPMFE@?$AAm?$AAs?$AA_?$AAs?$AAi?$AAn?$AAg?$AAl?$AAe?$AAt?$AAo?$AAn@
  00054	e8 00 00 00 00	 call	 __wassert
  00059	8b 0d 00 00 00
	00		 mov	 ecx, DWORD PTR ?ms_singleton@?$CSingleton@VCPythonExchange@@@@0PAVCPythonExchange@@A ; CSingleton<CPythonExchange>::ms_singleton
  0005f	83 c4 0c	 add	 esp, 12			; 0000000cH
$LN7@exchangeGe:
; File C:\Anka2Project\Anka2Project\Source\Binary\source\UserInterface\PythonExchangeModule.cpp

; 162  : 	CPythonExchange::Instance().GetItemAttributeFromSelf(pos, iAttrSlotPos, &byType, &sValue);

  00062	8d 45 f8	 lea	 eax, DWORD PTR _sValue$[ebp]
  00065	50		 push	 eax
  00066	8d 45 ff	 lea	 eax, DWORD PTR _byType$[ebp]
  00069	50		 push	 eax
  0006a	ff 75 f4	 push	 DWORD PTR _iAttrSlotPos$[ebp]
  0006d	ff 75 f0	 push	 DWORD PTR _pos$[ebp]
  00070	e8 00 00 00 00	 call	 ?GetItemAttributeFromSelf@CPythonExchange@@QAEXEHPAEPAF@Z ; CPythonExchange::GetItemAttributeFromSelf

; 163  : 
; 164  : 	return Py_BuildValue("ii", byType, sValue);

  00075	0f bf 45 f8	 movsx	 eax, WORD PTR _sValue$[ebp]
  00079	50		 push	 eax
  0007a	0f b6 45 ff	 movzx	 eax, BYTE PTR _byType$[ebp]
  0007e	50		 push	 eax
  0007f	68 00 00 00 00	 push	 OFFSET ??_C@_02PDIHAGKM@ii@
  00084	ff 15 00 00 00
	00		 call	 DWORD PTR __imp__Py_BuildValue
  0008a	83 c4 0c	 add	 esp, 12			; 0000000cH

; 165  : }

  0008d	8b e5		 mov	 esp, ebp
  0008f	5d		 pop	 ebp
  00090	c3		 ret	 0
?exchangeGetItemAttributeFromSelf@@YAPAU_object@@PAU1@0@Z ENDP ; exchangeGetItemAttributeFromSelf
_TEXT	ENDS
; Function compile flags: /Ogtp
; File C:\Anka2Project\Anka2Project\Source\Binary\source\UserInterface\PythonExchangeModule.cpp
; File C:\Anka2Project\Anka2Project\Source\Binary\source\eterBase\Singleton.h
; File C:\Anka2Project\Anka2Project\Source\Binary\source\UserInterface\PythonExchangeModule.cpp
;	COMDAT ?exchangeGetElkMode@@YAPAU_object@@PAU1@0@Z
_TEXT	SEGMENT
_poTarget$ = 8						; size = 4
_poArgs$ = 12						; size = 4
?exchangeGetElkMode@@YAPAU_object@@PAU1@0@Z PROC	; exchangeGetElkMode, COMDAT
; File C:\Anka2Project\Anka2Project\Source\Binary\source\eterBase\Singleton.h

; 26   : 		assert(ms_singleton);

  00000	8b 0d 00 00 00
	00		 mov	 ecx, DWORD PTR ?ms_singleton@?$CSingleton@VCPythonExchange@@@@0PAVCPythonExchange@@A ; CSingleton<CPythonExchange>::ms_singleton
  00006	85 c9		 test	 ecx, ecx
  00008	75 1a		 jne	 SHORT $LN5@exchangeGe
  0000a	6a 1a		 push	 26			; 0000001aH
  0000c	68 00 00 00 00	 push	 OFFSET ??_C@_1IO@CAJLEEOI@?$AAC?$AA?3?$AA?2?$AAA?$AAn?$AAk?$AAa?$AA2?$AAP?$AAr?$AAo?$AAj?$AAe?$AAc?$AAt@
  00011	68 00 00 00 00	 push	 OFFSET ??_C@_1BK@FMEHPMFE@?$AAm?$AAs?$AA_?$AAs?$AAi?$AAn?$AAg?$AAl?$AAe?$AAt?$AAo?$AAn@
  00016	e8 00 00 00 00	 call	 __wassert
  0001b	8b 0d 00 00 00
	00		 mov	 ecx, DWORD PTR ?ms_singleton@?$CSingleton@VCPythonExchange@@@@0PAVCPythonExchange@@A ; CSingleton<CPythonExchange>::ms_singleton
  00021	83 c4 0c	 add	 esp, 12			; 0000000cH
$LN5@exchangeGe:
; File C:\Anka2Project\Anka2Project\Source\Binary\source\UserInterface\PythonExchangeModule.cpp

; 169  : 	return Py_BuildValue("b", CPythonExchange::Instance().GetElkMode());

  00024	e8 00 00 00 00	 call	 ?GetElkMode@CPythonExchange@@QAE_NXZ ; CPythonExchange::GetElkMode
  00029	0f b6 c0	 movzx	 eax, al
  0002c	50		 push	 eax
  0002d	68 00 00 00 00	 push	 OFFSET ??_C@_01OJONOECF@b@
  00032	ff 15 00 00 00
	00		 call	 DWORD PTR __imp__Py_BuildValue
  00038	83 c4 08	 add	 esp, 8

; 170  : }

  0003b	c3		 ret	 0
?exchangeGetElkMode@@YAPAU_object@@PAU1@0@Z ENDP	; exchangeGetElkMode
_TEXT	ENDS
; Function compile flags: /Ogtp
; File C:\Anka2Project\Anka2Project\Source\Binary\source\UserInterface\PythonExchangeModule.cpp
; File C:\Anka2Project\Anka2Project\Source\Binary\source\eterBase\Singleton.h
; File C:\Anka2Project\Anka2Project\Source\Binary\source\UserInterface\PythonExchangeModule.cpp
;	COMDAT ?exchangeGetChangeLookVnumFromSelf@@YAPAU_object@@PAU1@0@Z
_TEXT	SEGMENT
_pos$ = -4						; size = 4
_poSelf$ = 8						; size = 4
_poArgs$ = 12						; size = 4
?exchangeGetChangeLookVnumFromSelf@@YAPAU_object@@PAU1@0@Z PROC ; exchangeGetChangeLookVnumFromSelf, COMDAT

; 185  : {

  00000	55		 push	 ebp
  00001	8b ec		 mov	 ebp, esp
  00003	51		 push	 ecx

; 186  : 	int pos;
; 187  : 	if (!PyTuple_GetInteger(poArgs, 0, &pos))

  00004	8d 45 fc	 lea	 eax, DWORD PTR _pos$[ebp]
  00007	50		 push	 eax
  00008	6a 00		 push	 0
  0000a	ff 75 0c	 push	 DWORD PTR _poArgs$[ebp]
  0000d	e8 00 00 00 00	 call	 ?PyTuple_GetInteger@@YA_NPAU_object@@HPAH@Z ; PyTuple_GetInteger
  00012	83 c4 0c	 add	 esp, 12			; 0000000cH
  00015	84 c0		 test	 al, al
  00017	75 0e		 jne	 SHORT $LN2@exchangeGe

; 188  : 		return Py_BuildException();

  00019	6a 00		 push	 0
  0001b	e8 00 00 00 00	 call	 ?Py_BuildException@@YAPAU_object@@PBDZZ ; Py_BuildException
  00020	83 c4 04	 add	 esp, 4

; 192  : }

  00023	8b e5		 mov	 esp, ebp
  00025	5d		 pop	 ebp
  00026	c3		 ret	 0
$LN2@exchangeGe:
; File C:\Anka2Project\Anka2Project\Source\Binary\source\eterBase\Singleton.h

; 26   : 		assert(ms_singleton);

  00027	8b 0d 00 00 00
	00		 mov	 ecx, DWORD PTR ?ms_singleton@?$CSingleton@VCPythonExchange@@@@0PAVCPythonExchange@@A ; CSingleton<CPythonExchange>::ms_singleton
  0002d	85 c9		 test	 ecx, ecx
  0002f	75 1a		 jne	 SHORT $LN6@exchangeGe
  00031	6a 1a		 push	 26			; 0000001aH
  00033	68 00 00 00 00	 push	 OFFSET ??_C@_1IO@CAJLEEOI@?$AAC?$AA?3?$AA?2?$AAA?$AAn?$AAk?$AAa?$AA2?$AAP?$AAr?$AAo?$AAj?$AAe?$AAc?$AAt@
  00038	68 00 00 00 00	 push	 OFFSET ??_C@_1BK@FMEHPMFE@?$AAm?$AAs?$AA_?$AAs?$AAi?$AAn?$AAg?$AAl?$AAe?$AAt?$AAo?$AAn@
  0003d	e8 00 00 00 00	 call	 __wassert
  00042	8b 0d 00 00 00
	00		 mov	 ecx, DWORD PTR ?ms_singleton@?$CSingleton@VCPythonExchange@@@@0PAVCPythonExchange@@A ; CSingleton<CPythonExchange>::ms_singleton
  00048	83 c4 0c	 add	 esp, 12			; 0000000cH
$LN6@exchangeGe:
; File C:\Anka2Project\Anka2Project\Source\Binary\source\UserInterface\PythonExchangeModule.cpp

; 190  : 	const DWORD dwTransmutationVnum = CPythonExchange::Instance().GetItemChangeLookVnumToSelf(pos);

  0004b	ff 75 fc	 push	 DWORD PTR _pos$[ebp]
  0004e	e8 00 00 00 00	 call	 ?GetItemChangeLookVnumToSelf@CPythonExchange@@QBEKE@Z ; CPythonExchange::GetItemChangeLookVnumToSelf

; 191  : 	return Py_BuildValue("i", dwTransmutationVnum);

  00053	50		 push	 eax
  00054	68 00 00 00 00	 push	 OFFSET ??_C@_01KBJDNOO@i@
  00059	ff 15 00 00 00
	00		 call	 DWORD PTR __imp__Py_BuildValue
  0005f	83 c4 08	 add	 esp, 8

; 192  : }

  00062	8b e5		 mov	 esp, ebp
  00064	5d		 pop	 ebp
  00065	c3		 ret	 0
?exchangeGetChangeLookVnumFromSelf@@YAPAU_object@@PAU1@0@Z ENDP ; exchangeGetChangeLookVnumFromSelf
_TEXT	ENDS
; Function compile flags: /Ogtp
; File C:\Anka2Project\Anka2Project\Source\Binary\source\UserInterface\PythonExchangeModule.cpp
; File C:\Anka2Project\Anka2Project\Source\Binary\source\eterBase\Singleton.h
; File C:\Anka2Project\Anka2Project\Source\Binary\source\UserInterface\PythonExchangeModule.cpp
;	COMDAT ?exchangeGetChangeLookVnumFromTarget@@YAPAU_object@@PAU1@0@Z
_TEXT	SEGMENT
_pos$ = -4						; size = 4
_poSelf$ = 8						; size = 4
_poArgs$ = 12						; size = 4
?exchangeGetChangeLookVnumFromTarget@@YAPAU_object@@PAU1@0@Z PROC ; exchangeGetChangeLookVnumFromTarget, COMDAT

; 195  : {

  00000	55		 push	 ebp
  00001	8b ec		 mov	 ebp, esp
  00003	51		 push	 ecx

; 196  : 	int pos;
; 197  : 	if (!PyTuple_GetInteger(poArgs, 0, &pos))

  00004	8d 45 fc	 lea	 eax, DWORD PTR _pos$[ebp]
  00007	50		 push	 eax
  00008	6a 00		 push	 0
  0000a	ff 75 0c	 push	 DWORD PTR _poArgs$[ebp]
  0000d	e8 00 00 00 00	 call	 ?PyTuple_GetInteger@@YA_NPAU_object@@HPAH@Z ; PyTuple_GetInteger
  00012	83 c4 0c	 add	 esp, 12			; 0000000cH
  00015	84 c0		 test	 al, al
  00017	75 0e		 jne	 SHORT $LN2@exchangeGe

; 198  : 		return Py_BuildException();

  00019	6a 00		 push	 0
  0001b	e8 00 00 00 00	 call	 ?Py_BuildException@@YAPAU_object@@PBDZZ ; Py_BuildException
  00020	83 c4 04	 add	 esp, 4

; 202  : }

  00023	8b e5		 mov	 esp, ebp
  00025	5d		 pop	 ebp
  00026	c3		 ret	 0
$LN2@exchangeGe:
; File C:\Anka2Project\Anka2Project\Source\Binary\source\eterBase\Singleton.h

; 26   : 		assert(ms_singleton);

  00027	8b 0d 00 00 00
	00		 mov	 ecx, DWORD PTR ?ms_singleton@?$CSingleton@VCPythonExchange@@@@0PAVCPythonExchange@@A ; CSingleton<CPythonExchange>::ms_singleton
  0002d	85 c9		 test	 ecx, ecx
  0002f	75 1a		 jne	 SHORT $LN6@exchangeGe
  00031	6a 1a		 push	 26			; 0000001aH
  00033	68 00 00 00 00	 push	 OFFSET ??_C@_1IO@CAJLEEOI@?$AAC?$AA?3?$AA?2?$AAA?$AAn?$AAk?$AAa?$AA2?$AAP?$AAr?$AAo?$AAj?$AAe?$AAc?$AAt@
  00038	68 00 00 00 00	 push	 OFFSET ??_C@_1BK@FMEHPMFE@?$AAm?$AAs?$AA_?$AAs?$AAi?$AAn?$AAg?$AAl?$AAe?$AAt?$AAo?$AAn@
  0003d	e8 00 00 00 00	 call	 __wassert
  00042	8b 0d 00 00 00
	00		 mov	 ecx, DWORD PTR ?ms_singleton@?$CSingleton@VCPythonExchange@@@@0PAVCPythonExchange@@A ; CSingleton<CPythonExchange>::ms_singleton
  00048	83 c4 0c	 add	 esp, 12			; 0000000cH
$LN6@exchangeGe:
; File C:\Anka2Project\Anka2Project\Source\Binary\source\UserInterface\PythonExchangeModule.cpp

; 200  : 	const DWORD dwTransmutationVnum = CPythonExchange::Instance().GetItemChangeLookVnumToTarget(pos);

  0004b	ff 75 fc	 push	 DWORD PTR _pos$[ebp]
  0004e	e8 00 00 00 00	 call	 ?GetItemChangeLookVnumToTarget@CPythonExchange@@QBEKE@Z ; CPythonExchange::GetItemChangeLookVnumToTarget

; 201  : 	return Py_BuildValue("i", dwTransmutationVnum);

  00053	50		 push	 eax
  00054	68 00 00 00 00	 push	 OFFSET ??_C@_01KBJDNOO@i@
  00059	ff 15 00 00 00
	00		 call	 DWORD PTR __imp__Py_BuildValue
  0005f	83 c4 08	 add	 esp, 8

; 202  : }

  00062	8b e5		 mov	 esp, ebp
  00064	5d		 pop	 ebp
  00065	c3		 ret	 0
?exchangeGetChangeLookVnumFromTarget@@YAPAU_object@@PAU1@0@Z ENDP ; exchangeGetChangeLookVnumFromTarget
_TEXT	ENDS
; Function compile flags: /Ogtp
; File C:\Anka2Project\Anka2Project\Source\Binary\source\UserInterface\PythonExchangeModule.cpp
;	COMDAT ?initTrade@@YAXXZ
_TEXT	SEGMENT
?initTrade@@YAXXZ PROC					; initTrade, COMDAT

; 207  : 	static PyMethodDef s_methods[] = 
; 208  : 	{
; 209  : 		{"InitTrading", exchangeInitTrading, METH_VARARGS},
; 210  : 		{"isTrading", exchangeisTrading, METH_VARARGS},
; 211  : 
; 212  : 		{"GetElkFromSelf", exchangeGetElkFromSelf, METH_VARARGS},
; 213  : 		{"GetElkFromTarget", exchangeGetElkFromTarget, METH_VARARGS},
; 214  : 
; 215  : 		{"GetItemVnumFromSelf", exchangeGetItemVnumFromSelf, METH_VARARGS},
; 216  : 		{"GetItemVnumFromTarget", exchangeGetItemVnumFromTarget, METH_VARARGS},
; 217  : 
; 218  : 		{"GetItemCountFromSelf", exchangeGetItemCountFromSelf, METH_VARARGS},
; 219  : 		{"GetItemCountFromTarget", exchangeGetItemCountFromTarget, METH_VARARGS},
; 220  : 
; 221  : 		{"GetAcceptFromSelf", exchangeGetAcceptFromSelf, METH_VARARGS},
; 222  : 		{"GetAcceptFromTarget", exchangeGetAcceptFromTarget, METH_VARARGS},
; 223  : 
; 224  : 		{"GetNameFromSelf", exchangeGetNameFromSelf, METH_VARARGS},
; 225  : 		{"GetNameFromTarget", exchangeGetNameFromTarget, METH_VARARGS},
; 226  : 
; 227  : 		{"GetRaceFromSelf", exchangeGetRaceFromSelf, METH_VARARGS},
; 228  : 		{"GetRaceFromTarget", exchangeGetRaceFromTarget, METH_VARARGS},
; 229  : 
; 230  : 		{"GetLevelFromSelf", exchangeGetLevelFromSelf, METH_VARARGS},
; 231  : 		{"GetLevelFromTarget", exchangeGetLevelFromTarget, METH_VARARGS},
; 232  : 
; 233  : 		{"GetItemMetinSocketFromTarget", exchangeGetItemMetinSocketFromTarget, METH_VARARGS},
; 234  : 		{"GetItemMetinSocketFromSelf", exchangeGetItemMetinSocketFromSelf, METH_VARARGS},
; 235  : 
; 236  : 		{"GetItemAttributeFromTarget", exchangeGetItemAttributeFromTarget, METH_VARARGS},
; 237  : 		{"GetItemAttributeFromSelf", exchangeGetItemAttributeFromSelf, METH_VARARGS},
; 238  : 
; 239  : 		{"GetElkMode", exchangeGetElkMode, METH_VARARGS},
; 240  : 		{"SetElkMode", exchangeSetElkMode, METH_VARARGS},
; 241  : 
; 242  : #ifdef ENABLE_CHANGE_LOOK_SYSTEM
; 243  : 		{"GetChangeLookVnumFromSelf", exchangeGetChangeLookVnumFromSelf, METH_VARARGS},
; 244  : 		{"GetChangeLookVnumFromTarget", exchangeGetChangeLookVnumFromTarget, METH_VARARGS},
; 245  : #endif
; 246  : 
; 247  : 		{nullptr, NULL},
; 248  : 	};
; 249  : 
; 250  : 	PyObject *poModule = Py_InitModule("exchange", s_methods);

  00000	68 f5 03 00 00	 push	 1013			; 000003f5H
  00005	6a 00		 push	 0
  00007	6a 00		 push	 0
  00009	68 00 00 00 00	 push	 OFFSET ?s_methods@?1??initTrade@@YAXXZ@4PAUPyMethodDef@@A
  0000e	68 00 00 00 00	 push	 OFFSET ??_C@_08EPHOCFK@exchange@
  00013	ff 15 00 00 00
	00		 call	 DWORD PTR __imp__Py_InitModule4

; 251  : 	PyModule_AddIntConstant(poModule, "EXCHANGE_ITEM_MAX_NUM", CPythonExchange::EXCHANGE_ITEM_MAX_NUM);

  00019	6a 18		 push	 24			; 00000018H
  0001b	68 00 00 00 00	 push	 OFFSET ??_C@_0BG@LKADPLLF@EXCHANGE_ITEM_MAX_NUM@
  00020	50		 push	 eax
  00021	ff 15 00 00 00
	00		 call	 DWORD PTR __imp__PyModule_AddIntConstant
  00027	83 c4 20	 add	 esp, 32			; 00000020H

; 252  : }

  0002a	c3		 ret	 0
?initTrade@@YAXXZ ENDP					; initTrade
_TEXT	ENDS
END
