; Listing generated by Microsoft (R) Optimizing Compiler Version 19.44.35219.0 

	TITLE	c:\anka2project\anka2project\source\binary\vs_files\userinterface\release\pythonplayermodule.obj
	.686P
	.XMM
	include listing.inc
	.model	flat

INCLUDELIB OLDNAMES

PUBLIC	??_C@_0DF@ILFGGFEI@CPythonPlayer?3?3RegisterEffect?$CIe@ ; `string'
PUBLIC	??_C@_0EJ@BNKMOLIP@playerSetSingleDIKKeyState?$CIeDIK@ ; `string'
PUBLIC	??_C@_0EA@OHLDKNFC@playerSetAttackKeyState?$CIisPress@ ; `string'
PUBLIC	??_C@_02HPEDFNFO@ff@				; `string'
PUBLIC	??_C@_0EK@IDBGKDBN@playerSetSingleDIKKeyState?$CIeDIK@ ; `string'
PUBLIC	??_C@_0BK@MCOKCAKI@?5?$HMh?$HMr?$FL?$CFs?$FN?$HMcffffc700?$HMH?$CFs?$HMh@ ; `string'
PUBLIC	??_C@_01HHGOMJKL@l@				; `string'
PUBLIC	??_C@_0BK@MGKBEPOF@?5?$HMh?$HMr?$FL?$CFs?$FN?$HMcfff1e6c0?$HMH?$CFs?$HMh@ ; `string'
PUBLIC	??_C@_06FAMCNHHL@?3?$CFx?3?$CFd@		; `string'
PUBLIC	??_C@_0BF@IBGKLIMC@can?8t?5find?5item?5data@	; `string'
PUBLIC	??_C@_0BF@BGKCJNBK@Can?8t?5find?5item?5data@	; `string'
PUBLIC	??_C@_04GPDILEAH@biii@				; `string'
PUBLIC	??_C@_07EFJJEBFG@iiiiiii@			; `string'
PUBLIC	??_C@_0L@LNJHJPCL@iiiiiiiiii@			; `string'
PUBLIC	??_C@_05EAPDINDK@iiiii@				; `string'
PUBLIC	??_C@_07LLGOIFNB@iiisfff@			; `string'
PUBLIC	??_C@_09BOADOOAM@iiiiiiiii@			; `string'
PUBLIC	??_C@_0BC@CILJOCG@SetAutoPotionInfo@		; `string'
PUBLIC	??_C@_0BC@CHIABFDI@GetAutoPotionInfo@		; `string'
PUBLIC	??_C@_0BE@EFMODMFG@PickCloseItemVector@		; `string'
PUBLIC	??_C@_0O@MAEJALBO@PickCloseItem@		; `string'
PUBLIC	??_C@_0O@MNPFFDEJ@SetGameWindow@		; `string'
PUBLIC	??_C@_0BI@JOKOCOKN@PickCloseItemAutoVector@	; `string'
PUBLIC	??_C@_0N@LEJNPCGM@SetMouseFunc@			; `string'
PUBLIC	??_C@_0O@HDELDAFI@SetMouseState@		; `string'
PUBLIC	??_C@_0BK@JBJLNCBH@SetMouseMiddleButtonState@	; `string'
PUBLIC	??_C@_0N@MACDDOCA@GetMouseFunc@			; `string'
PUBLIC	??_C@_0BG@GHIKDJGB@GetMainCharacterIndex@	; `string'
PUBLIC	??_C@_0BG@JCNMOACA@SetMainCharacterIndex@	; `string'
PUBLIC	??_C@_0BJ@GIKFEPMH@GetMainCharacterPosition@	; `string'
PUBLIC	??_C@_0BF@OMDPKDFM@GetMainCharacterName@	; `string'
PUBLIC	??_C@_0BC@FLPEGJDD@CanAttackInstance@		; `string'
PUBLIC	??_C@_0BF@GALHNOAL@IsMainCharacterIndex@	; `string'
PUBLIC	??_C@_0O@ECCODAC@IsPVPInstance@			; `string'
PUBLIC	??_C@_0BA@ODCBPOEF@IsActingEmotion@		; `string'
PUBLIC	??_C@_0BE@FOIPHJLO@IsChallengeInstance@		; `string'
PUBLIC	??_C@_0N@CBEDFALN@IsSameEmpire@			; `string'
PUBLIC	??_C@_0BE@HJOMPGKI@IsCantFightInstance@		; `string'
PUBLIC	??_C@_0BC@IKOEAPGC@IsRevengeInstance@		; `string'
PUBLIC	??_C@_0N@IKPCBCPA@IsInSafeArea@			; `string'
PUBLIC	??_C@_0BF@DABJOKIF@GetCharacterDistance@	; `string'
PUBLIC	??_C@_0P@LDENHACE@IsObserverMode@		; `string'
PUBLIC	??_C@_0BA@GFJLKENO@IsMountingHorse@		; `string'
PUBLIC	??_C@_0L@CPMIOCIM@ShowPlayer@			; `string'
PUBLIC	??_C@_0L@JEBGMNAH@ActEmotion@			; `string'
PUBLIC	??_C@_0M@GOCDIKPN@ComboAttack@			; `string'
PUBLIC	??_C@_0L@PBBGGCLG@HidePlayer@			; `string'
PUBLIC	??_C@_0BC@DAIEHFBH@SetAttackKeyState@		; `string'
PUBLIC	??_C@_0BL@IEKDAKHC@SetAutoCameraRotationSpeed@	; `string'
PUBLIC	??_C@_0BJ@HGLJKHIH@EndKeyWalkingImmediately@	; `string'
PUBLIC	??_C@_0BF@PNJNANBI@SetSingleDIKKeyState@	; `string'
PUBLIC	??_C@_0BA@JEOKFDLP@EndMouseWalking@		; `string'
PUBLIC	??_C@_0BC@NCHFPCDM@StartMouseWalking@		; `string'
PUBLIC	??_C@_0BD@DPHLFGPP@SetQuickCameraMode@		; `string'
PUBLIC	??_C@_0BE@MCFGJOPA@ResetCameraRotation@		; `string'
PUBLIC	??_C@_0BC@HNJMANI@GetSkillSlotIndex@		; `string'
PUBLIC	??_C@_08HIFGFOGG@SetSkill@			; `string'
PUBLIC	??_C@_0CD@EFGGIKHI@GetSkillCurrentEfficientPercent@ ; `string'
PUBLIC	??_C@_0O@IIOIANPE@GetSkillGrade@		; `string'
PUBLIC	??_C@_0P@IGNHDBHH@ClickSkillSlot@		; `string'
PUBLIC	??_C@_0CA@JHGONPGM@GetSkillNextEfficientPercentage@ ; `string'
PUBLIC	??_C@_0P@MJOJKOJJ@ClearSkillDict@		; `string'
PUBLIC	??_C@_0BN@BPJDEKED@ChangeCurrentSkillNumberOnly@ ; `string'
PUBLIC	??_C@_0N@GABOCBEH@GetItemIndex@			; `string'
PUBLIC	??_C@_0BD@GCOFLJAB@DisableToggleSkill@		; `string'
PUBLIC	??_C@_0N@LEKALLIG@GetItemCount@			; `string'
PUBLIC	??_C@_0N@DMCGDNGF@GetItemFlags@			; `string'
PUBLIC	??_C@_0BD@JBOBKHIE@GetItemMetinSocket@		; `string'
PUBLIC	??_C@_0BD@DBLILMFK@GetItemCountByVnum@		; `string'
PUBLIC	??_C@_08MHJANHDM@MoveItem@			; `string'
PUBLIC	??_C@_0BB@GOKPPDHH@GetItemAttribute@		; `string'
PUBLIC	??_C@_06FHLNIOPB@GetJob@			; `string'
PUBLIC	??_C@_0BE@DBIFLBAC@SendClickItemPacket@		; `string'
PUBLIC	??_C@_0M@DGCMFHDN@SetPlayTime@			; `string'
PUBLIC	??_C@_0M@DJDCIBLO@GetPlayTime@			; `string'
PUBLIC	??_C@_0BB@CNGGKNGL@GetSkillCoolTime@		; `string'
PUBLIC	??_C@_0BA@FOPKKJJD@IsSkillCoolTime@		; `string'
PUBLIC	??_C@_0O@HHBOBCLE@UseGuildSkill@		; `string'
PUBLIC	??_C@_0O@IAPCJJAC@IsSkillActive@		; `string'
PUBLIC	??_C@_06MDIKDJMD@GetEXP@			; `string'
PUBLIC	??_C@_0BI@JIGEMOFF@AffectIndexToSkillIndex@	; `string'
PUBLIC	??_C@_09MKFEIFJE@GetStatus@			; `string'
PUBLIC	??_C@_08MDGBDPHC@GetLevel@			; `string'
PUBLIC	??_C@_06NMFKJLLH@GetElk@			; `string'
PUBLIC	??_C@_09OEBBKEAG@SetStatus@			; `string'
PUBLIC	??_C@_08LBPCDDLA@GetCoins@			; `string'
PUBLIC	??_C@_08OAJFGNBC@GetMoney@			; `string'
PUBLIC	??_C@_0BJ@DNLGAMEO@RequestAddLocalQuickSlot@	; `string'
PUBLIC	??_C@_0BB@LANDCIKG@GetAlignmentData@		; `string'
PUBLIC	??_C@_0BN@NACLJDMA@RequestDeleteGlobalQuickSlot@ ; `string'
PUBLIC	??_C@_0CA@JMFCJJPL@RequestAddToEmptyLocalQuickSlot@ ; `string'
PUBLIC	??_C@_0BJ@IBBGPDPH@RequestUseLocalQuickSlot@	; `string'
PUBLIC	??_C@_0CL@IEMBKGLN@RequestMoveGlobalQuickSlotToLoc@ ; `string'
PUBLIC	??_C@_0BB@JKIMCMDG@IsAntiFlagBySlot@		; `string'
PUBLIC	??_C@_0CK@GNGKFIDB@LocalQuickSlotIndexToGlobalQuic@ ; `string'
PUBLIC	??_C@_0BF@HFKGNAOK@GetItemSubTypeBySlot@	; `string'
PUBLIC	??_C@_0BC@PGIBMCKF@GetItemTypeBySlot@		; `string'
PUBLIC	??_C@_0N@NLMPHAJA@GetQuickPage@			; `string'
PUBLIC	??_C@_0P@HAJODJLN@IsSameItemVnum@		; `string'
PUBLIC	??_C@_0BC@LNKMMBDG@GetLocalQuickSlot@		; `string'
PUBLIC	??_C@_0N@KPHBLMNM@SetQuickPage@			; `string'
PUBLIC	??_C@_0BH@JNCIKJMC@RemoveQuickSlotByValue@	; `string'
PUBLIC	??_C@_0BD@ECGPDHPA@GetGlobalQuickSlot@		; `string'
PUBLIC	??_C@_0BA@EMKHGGAL@IsEquipmentSlot@		; `string'
PUBLIC	??_C@_06NOPKEHAK@isItem@			; `string'
PUBLIC	??_C@_0O@KCAGNEAI@IsCostumeSlot@		; `string'
PUBLIC	??_C@_0BC@DDCIGDKO@IsDSEquipmentSlot@		; `string'
PUBLIC	??_C@_0BC@DCFDMADN@IsOpenPrivateShop@		; `string'
PUBLIC	??_C@_0P@LAJFBPPH@IsValuableItem@		; `string'
PUBLIC	??_C@_0BA@OBALOJLG@IsEquippingBelt@		; `string'
PUBLIC	??_C@_0BE@HECMLJG@IsBeltInventorySlot@		; `string'
PUBLIC	??_C@_0BJ@CPJJHAGD@IsSkillBookInventorySlot@	; `string'
PUBLIC	??_C@_0BN@DKGNHJIB@IsAvailableBeltInventoryCell@ ; `string'
PUBLIC	??_C@_0BF@LJHNJJLN@IsStoneInventorySlot@	; `string'
PUBLIC	??_C@_0BM@FCEMHHI@IsUpgradeItemsInventorySlot@	; `string'
PUBLIC	??_C@_0BI@FMKBEPGC@IsChangersInventorySlot@	; `string'
PUBLIC	??_C@_0BH@IDMOLEIA@IsGiftBoxInventorySlot@	; `string'
PUBLIC	??_C@_09BGNCJJP@CanRefine@			; `string'
PUBLIC	??_C@_0N@DGHEMMKN@GetItemGrade@			; `string'
PUBLIC	??_C@_09FHINBOHC@CanUnlock@			; `string'
PUBLIC	??_C@_09GHIBIBHI@CanDetach@			; `string'
PUBLIC	??_C@_0BE@ELNKJPMC@IsRefineGradeScroll@		; `string'
PUBLIC	??_C@_0P@BLOGPKFO@CanAttachMetin@		; `string'
PUBLIC	??_C@_09EECGCJDE@SetTarget@			; `string'
PUBLIC	??_C@_0M@DPCEEMCG@ClearTarget@			; `string'
PUBLIC	??_C@_0O@BPMJGNAC@IsPartyLeader@		; `string'
PUBLIC	??_C@_0BC@HAEJEFBP@OpenCharacterMenu@		; `string'
PUBLIC	??_C@_0BL@EPAFEFHI@GetPartyMemberHPPercentage@	; `string'
PUBLIC	??_C@_0BD@HGKJMFNK@IsPartyLeaderByPID@		; `string'
PUBLIC	??_C@_0BG@EEFAFMJC@GetPartyMemberAffects@	; `string'
PUBLIC	??_C@_0BE@HKIJMBKK@GetPartyMemberState@		; `string'
PUBLIC	??_C@_09IMMFEEHK@GetPKMode@			; `string'
PUBLIC	??_C@_09DMPBEJCG@ExitParty@			; `string'
PUBLIC	??_C@_0BE@FELKHKJF@GetEmotionIconImage@		; `string'
PUBLIC	??_C@_0BE@PMDABIKP@RegisterEmotionIcon@		; `string'
PUBLIC	??_C@_0P@ILOOLMDH@ToggleCoolTime@		; `string'
PUBLIC	??_C@_0BJ@CFCMHNHB@SetWeaponAttackBonusFlag@	; `string'
PUBLIC	??_C@_0N@MEKPPHGC@GetTargetVID@			; `string'
PUBLIC	??_C@_0BB@DJKKOCLB@ToggleLevelLimit@		; `string'
PUBLIC	??_C@_0BD@GLMLJBGM@SetItemMetinSocket@		; `string'
PUBLIC	??_C@_0M@CHNGAPIB@SetItemData@			; `string'
PUBLIC	??_C@_0N@MABOHHMK@SetItemCount@			; `string'
PUBLIC	??_C@_0BB@KPGENMF@SetItemAttribute@		; `string'
PUBLIC	??_C@_0BE@IOMKCPHN@SlotTypeToInvenType@		; `string'
PUBLIC	??_C@_0M@DGFCHEAA@GetItemLink@			; `string'
PUBLIC	??_C@_0BN@OIIJKMFD@ClearAutoAttackTargetActorID@ ; `string'
PUBLIC	??_C@_0BF@PLGNHJMH@SendDragonSoulRefine@	; `string'
PUBLIC	??_C@_0BF@HHEMENOC@GetMainCharacterPart@	; `string'
PUBLIC	??_C@_04PPEDCFAC@NPOS@				; `string'
PUBLIC	??_C@_0M@GLKHKGON@CanInteract@			; `string'
PUBLIC	??_C@_0BB@NAJMCHBK@GetItemSlotIndex@		; `string'
PUBLIC	??_C@_0O@PKLBMAM@SetSkillColor@			; `string'
PUBLIC	??_C@_0BH@KNFAMLNM@GetPremiumBattlePassID@	; `string'
PUBLIC	??_C@_0O@MJPCFPJK@GetAuraItemID@		; `string'
PUBLIC	??_C@_0O@HALFKPHL@GetSkillColor@		; `string'
PUBLIC	??_C@_0BH@EEMJAALJ@GetAuraItemMetinSocket@	; `string'
PUBLIC	??_C@_0BB@NMGFNIEB@GetAuraItemCount@		; `string'
PUBLIC	??_C@_0BI@PBPNGBAE@IsAuraRefineWindowEmpty@	; `string'
PUBLIC	??_C@_0BF@DKEAJKNA@GetAuraItemAttribute@	; `string'
PUBLIC	??_C@_0BH@ECFJIDOK@IsAuraRefineWindowOpen@	; `string'
PUBLIC	??_C@_0BM@BKGGJDBO@GetAuraCurrentItemSlotCount@	; `string'
PUBLIC	??_C@_0BF@DGBJCLPP@FineMoveAuraItemSlot@	; `string'
PUBLIC	??_C@_0BI@HAAECBGI@GetAuraRefineWindowType@	; `string'
PUBLIC	??_C@_0BG@EEFNBJPF@FindActivatedAuraSlot@	; `string'
PUBLIC	??_C@_0BJ@FDMBJLDG@SetAuraActivatedItemSlot@	; `string'
PUBLIC	??_C@_0BC@GPJMKBHD@GetAuraRefineInfo@		; `string'
PUBLIC	??_C@_0BC@FMKOGNDO@FindUsingAuraSlot@		; `string'
PUBLIC	??_C@_0BH@LNIBDCIJ@GetAuraRefineInfoLevel@	; `string'
PUBLIC	??_C@_0BI@OEGEDDOI@GetAuraRefineInfoExpPer@	; `string'
PUBLIC	??_C@_0BL@CJGAAMKA@SetOpenPetNameChangeWindow@	; `string'
PUBLIC	??_C@_0BJ@OLOKCKBJ@SetOpenPetHatchingWindow@	; `string'
PUBLIC	??_C@_0BI@EEFHCAEH@IsOpenPetHatchingWindow@	; `string'
PUBLIC	??_C@_0BF@LBMFBLG@SetOpenPetFeedWindow@		; `string'
PUBLIC	??_C@_0BK@ONINDKNJ@IsOpenPetNameChangeWindow@	; `string'
PUBLIC	??_C@_0BE@CCCDEOF@IsOpenPetFeedWindow@		; `string'
PUBLIC	??_C@_0P@DGCGCCCO@SetOpenSafeBox@		; `string'
PUBLIC	??_C@_0M@PMJJOEKL@SetOpenMall@			; `string'
PUBLIC	??_C@_0BD@FFNGMGDE@GetActivePetItemId@		; `string'
PUBLIC	??_C@_0L@MJHEBNLN@IsOpenMall@			; `string'
PUBLIC	??_C@_0M@EGNNPBIF@GetPetSkill@			; `string'
PUBLIC	??_C@_0BE@HIAGDJGO@GetPetItemVNumInBag@		; `string'
PUBLIC	??_C@_0BF@GGHLDBPM@GetActivePetItemVNum@	; `string'
PUBLIC	??_C@_0BD@MKFJOLGB@GetPetSkillByIndex@		; `string'
PUBLIC	??_C@_0L@MCGANBBD@GetPetItem@			; `string'
PUBLIC	??_C@_0BA@OIMHGHDP@GetPetExpPoints@		; `string'
PUBLIC	??_C@_0BJ@DBAIPPKB@CanUseGrowthPetQuickSlot@	; `string'
PUBLIC	??_C@_0P@HNNKIABL@GetPetLifeTime@		; `string'
PUBLIC	??_C@_0BC@LHBNPKGI@GetChangeLookVnum@		; `string'
PUBLIC	??_C@_0N@GALPMGNA@LoadNewRegen@			; `string'
PUBLIC	??_C@_0BI@PJOOIALB@GetChangeLookWindowOpen@	; `string'
PUBLIC	??_C@_0BE@KMNILMPF@SetChangeLookWindow@		; `string'
PUBLIC	??_C@_0BE@EICJCLKG@GetChangeLookItemID@		; `string'
PUBLIC	??_C@_0BI@HMKCDAJK@SetChangeLookWindowType@	; `string'
PUBLIC	??_C@_0BM@DIBDFBNF@GetChangeLookFreeYangItemID@	; `string'
PUBLIC	??_C@_0BL@ELGKHOAL@GetChangeLookItemInvenSlot@	; `string'
PUBLIC	??_C@_0BH@BELNGOAK@CanChangeLookClearItem@	; `string'
PUBLIC	??_C@_0CC@EICEGDNO@GetChangeLookFreeYangInvenSlotP@ ; `string'
PUBLIC	??_C@_0BJ@NKLEKMEH@GetChangeChangeLookPrice@	; `string'
PUBLIC	??_C@_0BO@IEIPICAI@GetChangeWIndowChangeLookVnum@ ; `string'
PUBLIC	??_C@_05FHIHOFEA@VOICE@				; `string'
PUBLIC	??_C@_05GCEPFMCO@LEVEL@				; `string'
PUBLIC	??_C@_08CHGDMADF@NEXT_EXP@			; `string'
PUBLIC	??_C@_03KKGFKKLA@EXP@				; `string'
PUBLIC	??_C@_06NMHEPHCD@MAX_HP@			; `string'
PUBLIC	??_C@_02MEIMKHMB@HP@				; `string'
PUBLIC	??_C@_06MMAHLLLC@MAX_SP@			; `string'
PUBLIC	??_C@_02NEPPOLFA@SP@				; `string'
PUBLIC	??_C@_0M@CHCGLEDD@MAX_STAMINA@			; `string'
PUBLIC	??_C@_07IHPDJFBP@STAMINA@			; `string'
PUBLIC	??_C@_02LAJDCOFE@ST@				; `string'
PUBLIC	??_C@_03BIHMGKIG@ELK@				; `string'
PUBLIC	??_C@_02FEPNEKN@DX@				; `string'
PUBLIC	??_C@_02KAOAGCMF@HT@				; `string'
PUBLIC	??_C@_09DIGJAPIG@ATT_POWER@			; `string'
PUBLIC	??_C@_02NMFFPMLH@IQ@				; `string'
PUBLIC	??_C@_07OPGIINPB@ATT_MAX@			; `string'
PUBLIC	??_C@_07PNODGJJO@ATT_MIN@			; `string'
PUBLIC	??_C@_0O@JAPECJBK@MAX_MAGIC_WEP@		; `string'
PUBLIC	??_C@_0O@CJNCLCGL@MIN_MAGIC_WEP@		; `string'
PUBLIC	??_C@_09FOFLCGDC@ATT_BONUS@			; `string'
PUBLIC	??_C@_09LKMFFHLI@ATT_SPEED@			; `string'
PUBLIC	??_C@_0N@KGGLAJKM@MOVING_SPEED@			; `string'
PUBLIC	??_C@_0L@IPHIKIMB@EVADE_RATE@			; `string'
PUBLIC	??_C@_09DNFHINBC@DEF_BONUS@			; `string'
PUBLIC	??_C@_09KMPFCDFE@DEF_GRADE@			; `string'
PUBLIC	??_C@_07PEONMKMN@MAG_ATT@			; `string'
PUBLIC	??_C@_0O@IOLIEEIE@CASTING_SPEED@		; `string'
PUBLIC	??_C@_0N@JIFCAIPA@EMPIRE_POINT@			; `string'
PUBLIC	??_C@_07KGCDIDGL@MAG_DEF@			; `string'
PUBLIC	??_C@_0O@DGEPJFAK@SKILL_PASSIVE@		; `string'
PUBLIC	??_C@_04KNIOFKKL@STAT@				; `string'
PUBLIC	??_C@_0N@DNBJLBPA@SKILL_ACTIVE@			; `string'
PUBLIC	??_C@_0O@JLNOPGFK@SKILL_SUPPORT@		; `string'
PUBLIC	??_C@_08CKIIBBI@PLAYTIME@			; `string'
PUBLIC	??_C@_0M@HAFIBGFL@SKILL_HORSE@			; `string'
PUBLIC	??_C@_0M@CLAIAEPM@HP_RECOVERY@			; `string'
PUBLIC	??_C@_0N@KHDDEEFG@BOW_DISTANCE@			; `string'
PUBLIC	??_C@_0P@GAAMLPFK@ATTACKER_BONUS@		; `string'
PUBLIC	??_C@_0M@FGICENAO@SP_RECOVERY@			; `string'
PUBLIC	??_C@_0BD@CPEECKKP@POINT_CRITICAL_PCT@		; `string'
PUBLIC	??_C@_07MEMMKJPK@MAX_NUM@			; `string'
PUBLIC	??_C@_0BE@FDGMKOPN@POINT_MALL_ATTBONUS@		; `string'
PUBLIC	??_C@_0BE@BGNEFMNJ@POINT_PENETRATE_PCT@		; `string'
PUBLIC	??_C@_0BE@KNGAMOKN@POINT_MALL_EXPBONUS@		; `string'
PUBLIC	??_C@_0BE@FJKLFHOA@POINT_MALL_DEFBONUS@		; `string'
PUBLIC	??_C@_0BF@LPKHMJJF@POINT_MALL_GOLDBONUS@	; `string'
PUBLIC	??_C@_0BF@FCMHLHC@POINT_MALL_ITEMBONUS@		; `string'
PUBLIC	??_C@_0BB@IHDKAICM@POINT_MAX_SP_PCT@		; `string'
PUBLIC	??_C@_0BB@OCODMABI@POINT_MAX_HP_PCT@		; `string'
PUBLIC	??_C@_0BJ@PGEFOCDG@POINT_SKILL_DAMAGE_BONUS@	; `string'
PUBLIC	??_C@_0BA@HLPPKIKO@POINT_ATT_BONUS@		; `string'
PUBLIC	??_C@_0BJ@LPIAEILC@POINT_SKILL_DEFEND_BONUS@	; `string'
PUBLIC	??_C@_0BO@GNDIKOOF@POINT_NORMAL_HIT_DAMAGE_BONUS@ ; `string'
PUBLIC	??_C@_0N@IJMJNHHP@RESIST_MAGIC@			; `string'
PUBLIC	??_C@_0BO@CEPNAEGB@POINT_NORMAL_HIT_DEFEND_BONUS@ ; `string'
PUBLIC	??_C@_06KOEJHMAL@ENERGY@			; `string'
PUBLIC	??_C@_0BH@PDEJPPI@POINT_ATTBONUS_MONSTER@	; `string'
PUBLIC	??_C@_0BJ@PLDLOAKE@POINT_COSTUME_ATTR_BONUS@	; `string'
PUBLIC	??_C@_0BA@PIHNCBED@ENERGY_END_TIME@		; `string'
PUBLIC	??_C@_0CA@GOGOBLID@POINT_MELEE_MAGIC_ATT_BONUS_PER@ ; `string'
PUBLIC	??_C@_0BK@IHLHEPKN@POINT_MAGIC_ATT_BONUS_PER@	; `string'
PUBLIC	??_C@_0BD@HIHOAICI@SKILL_GRADE_MASTER@		; `string'
PUBLIC	??_C@_0BD@LAKFNFGD@SKILL_GRADE_NORMAL@		; `string'
PUBLIC	??_C@_0BL@DCIPLDCA@SKILL_GRADE_PERFECT_MASTER@	; `string'
PUBLIC	??_C@_0BJ@CFOEIGCN@SKILL_GRADE_GRAND_MASTER@	; `string'
PUBLIC	??_C@_0BB@HCMEALJK@CATEGORY_PASSIVE@		; `string'
PUBLIC	??_C@_0BA@LCKKFCJM@CATEGORY_ACTIVE@		; `string'
PUBLIC	??_C@_0BF@NFIFHHOM@INVENTORY_PAGE_COUNT@	; `string'
PUBLIC	??_C@_0BE@CEBDMLGH@INVENTORY_PAGE_SIZE@		; `string'
PUBLIC	??_C@_0BF@HJEBPPMM@EQUIPMENT_SLOT_START@	; `string'
PUBLIC	??_C@_0BF@LCFAAJPA@INVENTORY_SLOT_COUNT@	; `string'
PUBLIC	??_C@_0BJ@COKKCHPJ@NEW_EQUIPMENT_SLOT_START@	; `string'
PUBLIC	??_C@_0BF@MADFLPAE@EQUIPMENT_PAGE_COUNT@	; `string'
PUBLIC	??_C@_0BM@JDPNNKAI@SPECIAL_INVENTORY_PAGE_SIZE@	; `string'
PUBLIC	??_C@_0BJ@PAALBJCN@NEW_EQUIPMENT_SLOT_COUNT@	; `string'
PUBLIC	??_C@_0CA@LILLGBFC@SKILL_BOOK_INVENTORY_SLOT_COUNT@ ; `string'
PUBLIC	??_C@_0BN@IDPOFDE@SPECIAL_INVENTORY_PAGE_COUNT@	; `string'
PUBLIC	??_C@_0BL@NOCNFKMC@STONE_INVENTORY_SLOT_COUNT@	; `string'
PUBLIC	??_C@_0CD@PILBODE@UPGRADE_ITEMS_INVENTORY_SLOT_CO@ ; `string'
PUBLIC	??_C@_0BO@HDBPIDOG@CHANGERS_INVENTORY_SLOT_COUNT@ ; `string'
PUBLIC	??_C@_0BO@KGEOCGGA@GIFT_BOX_INVENTORY_SLOT_COUNT@ ; `string'
PUBLIC	??_C@_0L@MIGMJBKJ@MBF_ATTACK@			; `string'
PUBLIC	??_C@_09NLFDBCDH@MBF_SKILL@			; `string'
PUBLIC	??_C@_09FAENJFL@MBF_SMART@			; `string'
PUBLIC	??_C@_0L@JHBFAMB@MBF_CAMERA@			; `string'
PUBLIC	??_C@_08CIEGLDP@MBF_AUTO@			; `string'
PUBLIC	??_C@_08BLLANCB@MBF_MOVE@			; `string'
PUBLIC	??_C@_09BKODCCAJ@MBS_CLICK@			; `string'
PUBLIC	??_C@_09JEJKPPEO@MBS_PRESS@			; `string'
PUBLIC	??_C@_08OMNIMJHC@MBT_LEFT@			; `string'
PUBLIC	??_C@_09DBJMODBC@MBT_RIGHT@			; `string'
PUBLIC	??_C@_0BE@BNOEBHPE@SLOT_TYPE_INVENTORY@		; `string'
PUBLIC	??_C@_0P@JBDPGPGM@SLOT_TYPE_NONE@		; `string'
PUBLIC	??_C@_0P@KCOPIIMF@SLOT_TYPE_SHOP@		; `string'
PUBLIC	??_C@_0BA@MAJHKGKG@SLOT_TYPE_SKILL@		; `string'
PUBLIC	??_C@_0BK@KJHLAGBH@SLOT_TYPE_EXCHANGE_TARGET@	; `string'
PUBLIC	??_C@_0BJ@DBNHPJKE@SLOT_TYPE_EXCHANGE_OWNER@	; `string'
PUBLIC	??_C@_0BC@HGKFDIFN@SLOT_TYPE_SAFEBOX@		; `string'
PUBLIC	??_C@_0BF@CPPFMLHN@SLOT_TYPE_QUICK_SLOT@	; `string'
PUBLIC	??_C@_0P@OEAGANKI@SLOT_TYPE_MALL@		; `string'
PUBLIC	??_C@_0BH@MJAEADNE@SLOT_TYPE_PRIVATE_SHOP@	; `string'
PUBLIC	??_C@_0CA@FHKIPOOP@SLOT_TYPE_DRAGON_SOUL_INVENTORY@ ; `string'
PUBLIC	??_C@_0BC@LKMHLHKJ@SLOT_TYPE_EMOTION@		; `string'
PUBLIC	??_C@_0BP@KGAMMBDG@SLOT_TYPE_SKILL_BOOK_INVENTORY@ ; `string'
PUBLIC	??_C@_0BJ@BIEENKEI@SLOT_TYPE_BELT_INVENTORY@	; `string'
PUBLIC	??_C@_0BK@OKEJBABA@SLOT_TYPE_STONE_INVENTORY@	; `string'
PUBLIC	??_C@_0CC@PPMGELGN@SLOT_TYPE_UPGRADE_ITEMS_INVENTO@ ; `string'
PUBLIC	??_C@_0BN@CIDENILN@SLOT_TYPE_CHANGERS_INVENTORY@ ; `string'
PUBLIC	??_C@_0BN@HAJHAAOF@SLOT_TYPE_GIFT_BOX_INVENTORY@ ; `string'
PUBLIC	??_C@_09NCAHJFFG@INVENTORY@			; `string'
PUBLIC	??_C@_0BA@NKAFFIGF@RESERVED_WINDOW@		; `string'
PUBLIC	??_C@_07NCKDBJCB@SAFEBOX@			; `string'
PUBLIC	??_C@_09GJGOMHMK@EQUIPMENT@			; `string'
PUBLIC	??_C@_0BG@FHEDCCNN@DRAGON_SOUL_INVENTORY@	; `string'
PUBLIC	??_C@_04JPFKNPOP@MALL@				; `string'
PUBLIC	??_C@_06GKBINIEJ@GROUND@			; `string'
PUBLIC	??_C@_0P@LCDFMNHG@BELT_INVENTORY@		; `string'
PUBLIC	??_C@_0BE@DINLJOM@SLOT_TYPE_SWITCHBOT@		; `string'
PUBLIC	??_C@_09MMGODLEO@SWITCHBOT@			; `string'
PUBLIC	??_C@_0BA@POJPOEAE@ITEM_SLOT_COUNT@		; `string'
PUBLIC	??_C@_0BG@KJHPGJKN@SLOT_TYPE_CHANGE_LOOK@	; `string'
PUBLIC	??_C@_0BI@HKKDBHO@TRANSMUTATION_TYPE_ITEM@	; `string'
PUBLIC	??_C@_0BJ@LHJDGDBJ@TRANSMUTATION_TYPE_MOUNT@	; `string'
PUBLIC	??_C@_0BB@IOEKBHAE@SKILL_SLOT_COUNT@		; `string'
PUBLIC	??_C@_0L@HFAEBHHD@ITEM_MONEY@			; `string'
PUBLIC	??_C@_0BH@FCKCIMBH@METIN_SOCKET_TYPE_NONE@	; `string'
PUBLIC	??_C@_0M@CHLINENA@EFFECT_PICK@			; `string'
PUBLIC	??_C@_0BH@EFCNALEJ@METIN_SOCKET_TYPE_GOLD@	; `string'
PUBLIC	??_C@_0BJ@PHGNNMMA@METIN_SOCKET_TYPE_SILVER@	; `string'
PUBLIC	??_C@_0BI@BJGENDOO@ATTRIBUTE_SLOT_NORM_NUM@	; `string'
PUBLIC	??_C@_0BF@HOKBLOCN@METIN_SOCKET_MAX_NUM@	; `string'
PUBLIC	??_C@_0BK@KGDGKBKL@ATTRIBUTE_SLOT_NORM_START@	; `string'
PUBLIC	??_C@_0BI@KKEJPCNE@ATTRIBUTE_SLOT_RARE_NUM@	; `string'
PUBLIC	??_C@_0BK@MPPGNMKB@ATTRIBUTE_SLOT_RARE_START@	; `string'
PUBLIC	??_C@_0BI@PNEKDDH@ATTRIBUTE_SLOT_NORM_END@	; `string'
PUBLIC	??_C@_0BH@BPEONNLD@ATTRIBUTE_SLOT_MAX_NUM@	; `string'
PUBLIC	??_C@_0BI@LMPJICAN@ATTRIBUTE_SLOT_RARE_END@	; `string'
PUBLIC	??_C@_0M@FNDEJPGN@REFINE_CANT@			; `string'
PUBLIC	??_C@_0BK@MOFNOJPN@COSTUME_ATTRIBUTE_MAX_NUM@	; `string'
PUBLIC	??_C@_0CA@CPLGFHBD@REFINE_ALREADY_MAX_SOCKET_COUNT@ ; `string'
PUBLIC	??_C@_09FFJEIDJG@REFINE_OK@			; `string'
PUBLIC	??_C@_0BN@JPDLJDPD@REFINE_CANT_MAKE_SOCKET_ITEM@ ; `string'
PUBLIC	??_C@_0BN@FMBLMMOD@REFINE_NEED_MORE_GOOD_SCROLL@ ; `string'
PUBLIC	??_C@_0CG@LFLLDFCE@REFINE_CANT_REFINE_METIN_TO_EQU@ ; `string'
PUBLIC	??_C@_0BL@EILCCEPE@REFINE_NOT_NEXT_GRADE_ITEM@	; `string'
PUBLIC	??_C@_0BC@CBCJMHP@ATTACH_METIN_CANT@		; `string'
PUBLIC	??_C@_0BH@OENPPLJB@REFINE_CANT_REFINE_ROD@	; `string'
PUBLIC	??_C@_0CA@OFAKGLFM@ATTACH_METIN_NOT_MATCHABLE_ITEM@ ; `string'
PUBLIC	??_C@_0BA@HOJAFGB@ATTACH_METIN_OK@		; `string'
PUBLIC	??_C@_0CD@JNOPKOFJ@ATTACH_METIN_NOT_EXIST_GOLD_SOC@ ; `string'
PUBLIC	??_C@_0CB@MAILDNNI@ATTACH_METIN_NO_MATCHABLE_SOCKE@ ; `string'
PUBLIC	??_C@_0BC@HGBPKPKG@DETACH_METIN_CANT@		; `string'
PUBLIC	??_C@_0CG@BCIFDNEM@ATTACH_METIN_CANT_ATTACH_TO_EQU@ ; `string'
PUBLIC	??_C@_0BD@PNFBHDHD@PARTY_STATE_NORMAL@		; `string'
PUBLIC	??_C@_0BA@IACJJMNA@DETACH_METIN_OK@		; `string'
PUBLIC	??_C@_0BF@DOKPPLCL@PARTY_STATE_ATTACKER@	; `string'
PUBLIC	??_C@_0BD@ECFFHEOH@PARTY_STATE_LEADER@		; `string'
PUBLIC	??_C@_0BD@JJFBJLK@PARTY_STATE_BUFFER@		; `string'
PUBLIC	??_C@_0BD@FHMGGDNP@PARTY_STATE_TANKER@		; `string'
PUBLIC	??_C@_0BG@LCNEBE@PARTY_STATE_BERSERKER@		; `string'
PUBLIC	??_C@_0BJ@EIPCPJKC@PARTY_STATE_SKILL_MASTER@	; `string'
PUBLIC	??_C@_0BE@KCLJFDCO@PARTY_STATE_MAX_NUM@		; `string'
PUBLIC	??_C@_0BF@PAKJEMH@PARTY_STATE_DEFENDER@		; `string'
PUBLIC	??_C@_0BE@HANBCKAH@SKILL_INDEX_FISHING@		; `string'
PUBLIC	??_C@_0BE@MNBFKLPI@SKILL_INDEX_TONGSOL@		; `string'
PUBLIC	??_C@_0BD@IBJDJMEL@SKILL_INDEX_MAKING@		; `string'
PUBLIC	??_C@_0BD@KFCAJBFG@SKILL_INDEX_MINING@		; `string'
PUBLIC	??_C@_0BG@GPLOFEKK@SKILL_INDEX_LANGUAGE1@	; `string'
PUBLIC	??_C@_0BC@HACNAMIK@SKILL_INDEX_COMBO@		; `string'
PUBLIC	??_C@_0BG@FNIIDGCI@SKILL_INDEX_LANGUAGE3@	; `string'
PUBLIC	??_C@_0BG@EEJDAHGJ@SKILL_INDEX_LANGUAGE2@	; `string'
PUBLIC	??_C@_0BD@HOAGGFNA@SKILL_INDEX_RIDING@		; `string'
PUBLIC	??_C@_0BG@DMEIDEKO@SKILL_INDEX_POLYMORPH@	; `string'
PUBLIC	??_C@_0O@BIPAMBIG@PK_MODE_PEACE@		; `string'
PUBLIC	??_C@_0BD@POBHIINM@SKILL_INDEX_SUMMON@		; `string'
PUBLIC	??_C@_0N@DCANEGJG@PK_MODE_FREE@			; `string'
PUBLIC	??_C@_0BA@HNNGLCOB@PK_MODE_REVENGE@		; `string'
PUBLIC	??_C@_0O@LBDADKLE@PK_MODE_GUILD@		; `string'
PUBLIC	??_C@_0BA@GHACPGHA@PK_MODE_PROTECT@		; `string'
PUBLIC	??_C@_0P@CDMGAFPE@BLOCK_EXCHANGE@		; `string'
PUBLIC	??_C@_0BA@OLCDKGDA@PK_MODE_MAX_NUM@		; `string'
PUBLIC	??_C@_0M@EEMDCMKA@BLOCK_GUILD@			; `string'
PUBLIC	??_C@_0M@KFDBGBIL@BLOCK_PARTY@			; `string'
PUBLIC	??_C@_0N@IJGKBLJF@BLOCK_FRIEND@			; `string'
PUBLIC	??_C@_0O@CFHKOIIK@BLOCK_WHISPER@		; `string'
PUBLIC	??_C@_0BD@ICDJFAGE@BLOCK_WARP_REQUEST@		; `string'
PUBLIC	??_C@_0BE@NDGMABKO@BLOCK_PARTY_REQUEST@		; `string'
PUBLIC	??_C@_0BO@CBJBDFJC@PARTY_EXP_DISTRIBUTION_PARITY@ ; `string'
PUBLIC	??_C@_0BL@OELLICOI@PARTY_EXP_NON_DISTRIBUTION@	; `string'
PUBLIC	??_C@_0BB@MCMBOGFC@EMOTION_CHEERS_1@		; `string'
PUBLIC	??_C@_0N@GFLIEIGE@EMOTION_CLAP@			; `string'
PUBLIC	??_C@_0BA@CLHGMEE@EMOTION_DANCE_1@		; `string'
PUBLIC	??_C@_0BB@OJOMLFJB@EMOTION_CHEERS_2@		; `string'
PUBLIC	??_C@_0BA@DAIBAOMG@EMOTION_DANCE_3@		; `string'
PUBLIC	??_C@_0BA@CJJKDPIH@EMOTION_DANCE_2@		; `string'
PUBLIC	??_C@_0BA@GGNLKJEA@EMOTION_DANCE_5@		; `string'
PUBLIC	??_C@_0BA@HPMAJIAB@EMOTION_DANCE_4@		; `string'
PUBLIC	??_C@_0BH@FIIEKKHF@EMOTION_CONGRATULATION@	; `string'
PUBLIC	??_C@_0BA@ENPGPKID@EMOTION_DANCE_6@		; `string'
PUBLIC	??_C@_0BA@FEONMLMC@EMOTION_DANCE_7@		; `string'
PUBLIC	??_C@_0P@EGOAAOEC@EMOTION_SELFIE@		; `string'
PUBLIC	??_C@_0BB@PDNONAIP@EMOTION_EXERCISE@		; `string'
PUBLIC	??_C@_0N@OCOLJBBP@EMOTION_DOZE@			; `string'
PUBLIC	??_C@_0BC@DCPHBGDN@EMOTION_EMOTION_1@		; `string'
PUBLIC	??_C@_0P@FEDINNCE@EMOTION_PUSHUP@		; `string'
PUBLIC	??_C@_0BC@MBHELP@EMOTION_EMOTION_3@		; `string'
PUBLIC	??_C@_0BC@BJNKEFPO@EMOTION_EMOTION_2@		; `string'
PUBLIC	??_C@_0BC@FGJLNDDJ@EMOTION_EMOTION_5@		; `string'
PUBLIC	??_C@_0BC@EPIAOCHI@EMOTION_EMOTION_4@		; `string'
PUBLIC	??_C@_0BC@GEKNLBLL@EMOTION_EMOTION_7@		; `string'
PUBLIC	??_C@_0BC@HNLGIAPK@EMOTION_EMOTION_6@		; `string'
PUBLIC	??_C@_0BC@PKCOJMDF@EMOTION_EMOTION_9@		; `string'
PUBLIC	??_C@_0BC@ODDFKNHE@EMOTION_EMOTION_8@		; `string'
PUBLIC	??_C@_0BD@JOAHLMLF@EMOTION_EMOTION_11@		; `string'
PUBLIC	??_C@_0BD@IHBMINPE@EMOTION_EMOTION_10@		; `string'
PUBLIC	??_C@_0BD@KMDBNODH@EMOTION_EMOTION_13@		; `string'
PUBLIC	??_C@_0BD@LFCKOPHG@EMOTION_EMOTION_12@		; `string'
PUBLIC	??_C@_0BD@PKGLHJLB@EMOTION_EMOTION_15@		; `string'
PUBLIC	??_C@_0BD@ODHAEIPA@EMOTION_EMOTION_14@		; `string'
PUBLIC	??_C@_0BD@MIFNBLDD@EMOTION_EMOTION_17@		; `string'
PUBLIC	??_C@_0BD@NBEGCKHC@EMOTION_EMOTION_16@		; `string'
PUBLIC	??_C@_0BD@FGNODGLN@EMOTION_EMOTION_19@		; `string'
PUBLIC	??_C@_0BD@EPMFAHPM@EMOTION_EMOTION_18@		; `string'
PUBLIC	??_C@_0BD@JMEBACOM@EMOTION_EMOTION_21@		; `string'
PUBLIC	??_C@_0BD@IFFKDDKN@EMOTION_EMOTION_20@		; `string'
PUBLIC	??_C@_0O@DACEICMN@EMOTION_ANGRY@		; `string'
PUBLIC	??_C@_0BA@JPGNEMIB@EMOTION_FORGIVE@		; `string'
PUBLIC	??_C@_0M@EGEMMDCF@EMOTION_SAD@			; `string'
PUBLIC	??_C@_0BD@FLNIBF@EMOTION_ATTRACTIVE@		; `string'
PUBLIC	??_C@_0BA@MENCJFPL@EMOTION_CHEERUP@		; `string'
PUBLIC	??_C@_0M@LGPBJELG@EMOTION_SHY@			; `string'
PUBLIC	??_C@_0M@JOKPJKCG@EMOTION_JOY@			; `string'
PUBLIC	??_C@_0P@JAJBGKKI@EMOTION_BANTER@		; `string'
PUBLIC	??_C@_0BE@KCAKKBPE@EMOTION_FRENCH_KISS@		; `string'
PUBLIC	??_C@_0N@FGJJNHEK@EMOTION_KISS@			; `string'
PUBLIC	??_C@_0BE@LLABJENL@AUTO_POTION_TYPE_HP@		; `string'
PUBLIC	??_C@_0N@FFINPOG@EMOTION_SLAP@			; `string'
PUBLIC	??_C@_0BG@FEPFCIIM@DRAGON_SOUL_PAGE_SIZE@	; `string'
PUBLIC	??_C@_0BE@KLHCNIEK@AUTO_POTION_TYPE_SP@		; `string'
PUBLIC	??_C@_0BH@IFPINEOD@DRAGON_SOUL_SLOT_COUNT@	; `string'
PUBLIC	??_C@_0BH@OCCNKKPP@DRAGON_SOUL_PAGE_COUNT@	; `string'
PUBLIC	??_C@_0CB@GAHKEECK@DRAGON_SOUL_EQUIPMENT_PAGE_COUN@ ; `string'
PUBLIC	??_C@_0CB@NJAOAEOC@DRAGON_SOUL_EQUIPMENT_SLOT_STAR@ ; `string'
PUBLIC	??_C@_0BJ@MMGGGOHJ@DRAGON_SOUL_REFINE_CLOSE@	; `string'
PUBLIC	??_C@_0CB@OIFHBJMG@DRAGON_SOUL_EQUIPMENT_FIRST_SIZ@ ; `string'
PUBLIC	??_C@_0BN@PCPINHKH@DS_SUB_HEADER_DO_IMPROVEMENT@ ; `string'
PUBLIC	??_C@_0BJ@JKFAJIJN@DS_SUB_HEADER_DO_UPGRADE@	; `string'
PUBLIC	??_C@_0BB@KDMFEIAD@REVIVE_TYPE_HERE@		; `string'
PUBLIC	??_C@_0BI@NHBOLMGK@DS_SUB_HEADER_DO_REFINE@	; `string'
PUBLIC	??_C@_0BG@MNLBEPAN@REVIVE_TYPE_AUTO_TOWN@	; `string'
PUBLIC	??_C@_0BB@IMFHMJME@REVIVE_TYPE_TOWN@		; `string'
PUBLIC	??_C@_05BANMFAOM@COINS@				; `string'
PUBLIC	??_C@_0BA@LFMGHCBJ@REVIVE_TYPE_MAX@		; `string'
PUBLIC	??_C@_0BA@DMHIDAHJ@HORSE_MAX_LEVEL@		; `string'
PUBLIC	??_C@_0BL@MNIINOMA@AUTOMATIC_PICK_UP_ACTIVATE@	; `string'
PUBLIC	??_C@_0BA@NJHEAJMG@ON_TOP_WND_SHOP@		; `string'
PUBLIC	??_C@_0BA@OKKEOOGP@ON_TOP_WND_NONE@		; `string'
PUBLIC	??_C@_0BD@DBKGGFLJ@ON_TOP_WND_SAFEBOX@		; `string'
PUBLIC	??_C@_0BE@IFGMMCHH@ON_TOP_WND_EXCHANGE@		; `string'
PUBLIC	??_C@_0BF@GOBPEOGN@ON_TOP_WND_ITEM_COMB@	; `string'
PUBLIC	??_C@_0BI@JAEJNCCP@ON_TOP_WND_PRIVATE_SHOP@	; `string'
PUBLIC	??_C@_0BI@GLAKGGPH@ON_TOP_WND_ACCE_COMBINE@	; `string'
PUBLIC	??_C@_0BE@EHJBMPOO@ON_TOP_WND_PET_FEED@		; `string'
PUBLIC	??_C@_0BL@KJLPEENL@ON_TOP_WND_PET_ATTR_CHANGE@	; `string'
PUBLIC	??_C@_0BH@NNPMEGBL@ON_TOP_WND_ACCE_ABSORB@	; `string'
PUBLIC	??_C@_0BN@ELAPKHPA@REFINE_CANT_REFINE_AURA_ITEM@ ; `string'
PUBLIC	??_C@_0CB@NFMKANIJ@ON_TOP_WND_PET_PRIMIUM_FEEDSTUF@ ; `string'
PUBLIC	??_C@_0M@PDHBNBKH@AURA_REFINE@			; `string'
PUBLIC	??_C@_0P@FNJLNAFG@SLOT_TYPE_AURA@		; `string'
PUBLIC	??_C@_0P@PDNCLEMB@AURA_SLOT_MAIN@		; `string'
PUBLIC	??_C@_0P@MFDEBDB@AURA_MAX_LEVEL@		; `string'
PUBLIC	??_C@_0BB@BOPFHPDA@AURA_SLOT_RESULT@		; `string'
PUBLIC	??_C@_0O@LCLMBHEO@AURA_SLOT_SUB@		; `string'
PUBLIC	??_C@_0BI@IFHNBPDE@AURA_WINDOW_TYPE_ABSORB@	; `string'
PUBLIC	??_C@_0O@KJHIMGJF@AURA_SLOT_MAX@		; `string'
PUBLIC	??_C@_0BI@BGJIJANM@AURA_WINDOW_TYPE_EVOLVE@	; `string'
PUBLIC	??_C@_0BI@CLKELJFO@AURA_WINDOW_TYPE_GROWTH@	; `string'
PUBLIC	??_C@_0BO@JIFCGECJ@AURA_REFINE_INFO_SLOT_CURRENT@ ; `string'
PUBLIC	??_C@_0BF@DEACKNDL@AURA_WINDOW_TYPE_MAX@	; `string'
PUBLIC	??_C@_0BO@LHGEKFE@AURA_REFINE_INFO_SLOT_EVOLVED@ ; `string'
PUBLIC	??_C@_0BL@LDIPHABL@AURA_REFINE_INFO_SLOT_NEXT@	; `string'
PUBLIC	??_C@_0BL@NLGLHECL@AURA_REFINE_INFO_LEVEL_MIN@	; `string'
PUBLIC	??_C@_0BG@LFHCGDMM@AURA_REFINE_INFO_STEP@	; `string'
PUBLIC	??_C@_0BK@GLEMHOOH@AURA_REFINE_INFO_NEED_EXP@	; `string'
PUBLIC	??_C@_0BL@MJOAJAEE@AURA_REFINE_INFO_LEVEL_MAX@	; `string'
PUBLIC	??_C@_0CA@GCLPEEL@AURA_REFINE_INFO_MATERIAL_COUNT@ ; `string'
PUBLIC	??_C@_0BP@MKNGONPM@AURA_REFINE_INFO_MATERIAL_VNUM@ ; `string'
PUBLIC	??_C@_0BM@IEECEMNC@AURA_REFINE_INFO_EVOLVE_PCT@	; `string'
PUBLIC	??_C@_0BL@ICCNHPG@AURA_REFINE_INFO_NEED_GOLD@	; `string'
PUBLIC	??_C@_0BP@EMKIFIGK@ITEM_SOCKET_AURA_CURRENT_LEVEL@ ; `string'
PUBLIC	??_C@_0CB@DCOODGCM@ITEM_SOCKET_AURA_DRAIN_ITEM_VNU@ ; `string'
PUBLIC	??_C@_0BN@NPMDAJNF@ITEM_VALUE_AURA_MATERIAL_EXP@ ; `string'
PUBLIC	??_C@_0BH@LAHGBIBJ@ITEM_SOCKET_AURA_BOOST@	; `string'
PUBLIC	??_C@_0BL@BAPFGKOD@ITEM_VALUE_AURA_BOOST_TIME@	; `string'
PUBLIC	??_C@_0BO@MPFCFKKC@ITEM_VALUE_AURA_BOOST_PERCENT@ ; `string'
PUBLIC	??_C@_08LJKGNBOE@PET_FEED@			; `string'
PUBLIC	??_C@_0CA@CIFBLEK@ITEM_VALUE_AURA_BOOST_UNLIMITED@ ; `string'
PUBLIC	??_C@_0BE@NFLCMMDA@PET_GROWTH_EVOL_MAX@		; `string'
PUBLIC	??_C@_0BC@DMHKNCHI@PET_FEED_SLOT_MAX@		; `string'
PUBLIC	??_C@_0CB@OBCGFKLG@PET_GROWTH_SKILL_OPEN_EVOL_LEVE@ ; `string'
PUBLIC	??_C@_0BL@EIFGHGIE@PET_GROWTH_SKILL_LEVEL_MAX@	; `string'
PUBLIC	??_C@_0BE@JMKAEJNF@PET_SKILL_COUNT_MAX@		; `string'
PUBLIC	??_C@_0BN@BPMCNOMH@PET_REVIVE_MATERIAL_SLOT_MAX@ ; `string'
PUBLIC	??_C@_0BF@OGHAJJKA@SPECIAL_EVOL_MIN_AGE@	; `string'
PUBLIC	??_C@_0BJ@JJGKAJLE@LIFE_TIME_FLASH_MIN_TIME@	; `string'
PUBLIC	??_C@_0P@KMMLDJON@FEED_EXP_EVENT@		; `string'
PUBLIC	??_C@_0BF@FPKOBLCK@FEED_LIFE_TIME_EVENT@	; `string'
PUBLIC	??_C@_0BA@BJMLMPCH@FEED_BUTTON_MAX@		; `string'
PUBLIC	??_C@_0BA@DIFILJDH@FEED_EVOL_EVENT@		; `string'
PUBLIC	??_C@_0BH@DNHCPKPA@PET_WINDOW_ATTR_CHANGE@	; `string'
PUBLIC	??_C@_0BA@BCBOOENP@PET_WINDOW_INFO@		; `string'
PUBLIC	??_C@_0BJ@NBIJKGHG@PET_WND_SLOT_ATTR_CHANGE@	; `string'
PUBLIC	??_C@_0BN@GJGLGIPO@PET_WINDOW_PRIMIUM_FEEDSTUFF@ ; `string'
PUBLIC	??_C@_0CA@CBANDPKJ@PET_WND_SLOT_ATTR_CHANGE_RESULT@ ; `string'
PUBLIC	??_C@_0BO@LHIHOBGL@PET_WND_SLOT_ATTR_CHANGE_ITEM@ ; `string'
PUBLIC	??_C@_0BI@NPPIBKMK@PET_ATTR_DETERMINE_ITEM@	; `string'
PUBLIC	??_C@_0BN@FIDDPHID@PET_WND_SLOT_ATTR_CHANGE_MAX@ ; `string'
PUBLIC	??_C@_0BF@IOMDMJJH@QUICK_SLOT_POS_ERROR@	; `string'
PUBLIC	??_C@_0BF@EGOKNPMG@PET_ATTR_CHANGE_ITEM@	; `string'
PUBLIC	??_C@_0BH@JPEBDBOE@QUICK_SLOT_IS_NOT_ITEM@	; `string'
PUBLIC	??_C@_0BM@CGLKDAAA@QUICK_SLOT_ITEM_USE_SUCCESS@	; `string'
PUBLIC	??_C@_0BP@DJAPKJMJ@QUICK_SLOT_PET_ITEM_USE_FAILED@ ; `string'
PUBLIC	??_C@_0CA@OOHPPNPK@QUICK_SLOT_PET_ITEM_USE_SUCCESS@ ; `string'
PUBLIC	??_C@_0BJ@MEMDNOBC@POINT_BLUE_PLAYER_KILLED@	; `string'
PUBLIC	??_C@_0CA@GCEIFJNM@QUICK_SLOT_CAN_NOT_USE_PET_ITEM@ ; `string'
PUBLIC	??_C@_0BI@GLOEPCDD@POINT_RED_PLAYER_KILLED@	; `string'
PUBLIC	??_C@_0BL@DJJNJMIM@POINT_YELLOW_PLAYER_KILLED@	; `string'
PUBLIC	??_C@_0BD@CPMCNAMN@POINT_KILL_DUELWON@		; `string'
PUBLIC	??_C@_0BI@LNGEGINL@POINT_ALL_PLAYER_KILLED@	; `string'
PUBLIC	??_C@_0BF@IKAAIKND@POINT_MONSTER_KILLED@	; `string'
PUBLIC	??_C@_0BE@DIODHCDN@POINT_KILL_DUELLOST@		; `string'
PUBLIC	??_C@_0BC@JPBCPPBB@POINT_BOSS_KILLED@		; `string'
PUBLIC	??_C@_0BD@OGBKIAOM@POINT_STONE_KILLED@		; `string'
PUBLIC	?availableRuleByGrade@?1??GetAvailableRuleTableByGrade@CBeltInventoryHelper@@SAPBEXZ@4PAEA ; `CBeltInventoryHelper::GetAvailableRuleTableByGrade'::`2'::availableRuleByGrade
EXTRN	__imp__PyDict_Size:PROC
EXTRN	__imp__PyDict_Next:PROC
EXTRN	?PyTuple_GetLong@@YA_NPAU_object@@HPAJ@Z:PROC	; PyTuple_GetLong
EXTRN	?GetWearFlags@CItemData@@QBEKXZ:PROC		; CItemData::GetWearFlags
EXTRN	?HasNextGrade@CItemData@@QBEHXZ:PROC		; CItemData::HasNextGrade
;	COMDAT ?availableRuleByGrade@?1??GetAvailableRuleTableByGrade@CBeltInventoryHelper@@SAPBEXZ@4PAEA
_DATA	SEGMENT
?availableRuleByGrade@?1??GetAvailableRuleTableByGrade@CBeltInventoryHelper@@SAPBEXZ@4PAEA DB 01H ; `CBeltInventoryHelper::GetAvailableRuleTableByGrade'::`2'::availableRuleByGrade
	DB	02H
	DB	04H
	DB	06H
	DB	03H
	DB	03H
	DB	04H
	DB	06H
	DB	05H
	DB	05H
	DB	05H
	DB	06H
	DB	07H
	DB	07H
	DB	07H
	DB	07H
	ORG $+9
_DATA	ENDS
;	COMDAT ?s_methods@?1??initPlayer@@YAXXZ@4PAUPyMethodDef@@A
_DATA	SEGMENT
?s_methods@?1??initPlayer@@YAXXZ@4PAUPyMethodDef@@A DD FLAT:??_C@_0BC@CHIABFDI@GetAutoPotionInfo@ ; `initPlayer'::`2'::s_methods
	DD	FLAT:?playerGetAutoPotionInfo@@YAPAU_object@@PAU1@0@Z
	DD	01H
	ORG $+4
	DD	FLAT:??_C@_0BC@CILJOCG@SetAutoPotionInfo@
	DD	FLAT:?playerSetAutoPotionInfo@@YAPAU_object@@PAU1@0@Z
	DD	01H
	ORG $+4
	DD	FLAT:??_C@_0O@MAEJALBO@PickCloseItem@
	DD	FLAT:?playerPickCloseItem@@YAPAU_object@@PAU1@0@Z
	DD	01H
	ORG $+4
	DD	FLAT:??_C@_0BE@EFMODMFG@PickCloseItemVector@
	DD	FLAT:?playerPickCloseItemVector@@YAPAU_object@@PAU1@0@Z
	DD	01H
	ORG $+4
	DD	FLAT:??_C@_0BI@JOKOCOKN@PickCloseItemAutoVector@
	DD	FLAT:?playerPickCloseItemAutoVector@@YAPAU_object@@PAU1@0@Z
	DD	01H
	ORG $+4
	DD	FLAT:??_C@_0O@MNPFFDEJ@SetGameWindow@
	DD	FLAT:?playerSetGameWindow@@YAPAU_object@@PAU1@0@Z
	DD	01H
	ORG $+4
	DD	FLAT:??_C@_0P@HDADHLLI@RegisterEffect@
	DD	FLAT:?playerRegisterEffect@@YAPAU_object@@PAU1@0@Z
	DD	01H
	ORG $+4
	DD	FLAT:??_C@_0BE@EGCDGLCF@RegisterCacheEffect@
	DD	FLAT:?playerRegisterCacheEffect@@YAPAU_object@@PAU1@0@Z
	DD	01H
	ORG $+4
	DD	FLAT:??_C@_0O@HDELDAFI@SetMouseState@
	DD	FLAT:?playerSetMouseState@@YAPAU_object@@PAU1@0@Z
	DD	01H
	ORG $+4
	DD	FLAT:??_C@_0N@LEJNPCGM@SetMouseFunc@
	DD	FLAT:?playerSetMouseFunc@@YAPAU_object@@PAU1@0@Z
	DD	01H
	ORG $+4
	DD	FLAT:??_C@_0N@MACDDOCA@GetMouseFunc@
	DD	FLAT:?playerGetMouseFunc@@YAPAU_object@@PAU1@0@Z
	DD	01H
	ORG $+4
	DD	FLAT:??_C@_0BK@JBJLNCBH@SetMouseMiddleButtonState@
	DD	FLAT:?playerSetMouseMiddleButtonState@@YAPAU_object@@PAU1@0@Z
	DD	01H
	ORG $+4
	DD	FLAT:??_C@_0BG@JCNMOACA@SetMainCharacterIndex@
	DD	FLAT:?playerSetMainCharacterIndex@@YAPAU_object@@PAU1@0@Z
	DD	01H
	ORG $+4
	DD	FLAT:??_C@_0BG@GHIKDJGB@GetMainCharacterIndex@
	DD	FLAT:?playerGetMainCharacterIndex@@YAPAU_object@@PAU1@0@Z
	DD	01H
	ORG $+4
	DD	FLAT:??_C@_0BF@OMDPKDFM@GetMainCharacterName@
	DD	FLAT:?playerGetMainCharacterName@@YAPAU_object@@PAU1@0@Z
	DD	01H
	ORG $+4
	DD	FLAT:??_C@_0BJ@GIKFEPMH@GetMainCharacterPosition@
	DD	FLAT:?playerGetMainCharacterPosition@@YAPAU_object@@PAU1@0@Z
	DD	01H
	ORG $+4
	DD	FLAT:??_C@_0BF@GALHNOAL@IsMainCharacterIndex@
	DD	FLAT:?playerIsMainCharacterIndex@@YAPAU_object@@PAU1@0@Z
	DD	01H
	ORG $+4
	DD	FLAT:??_C@_0BC@FLPEGJDD@CanAttackInstance@
	DD	FLAT:?playerCanAttackInstance@@YAPAU_object@@PAU1@0@Z
	DD	01H
	ORG $+4
	DD	FLAT:??_C@_0BA@ODCBPOEF@IsActingEmotion@
	DD	FLAT:?playerIsActingEmotion@@YAPAU_object@@PAU1@0@Z
	DD	01H
	ORG $+4
	DD	FLAT:??_C@_0O@ECCODAC@IsPVPInstance@
	DD	FLAT:?playerIsPVPInstance@@YAPAU_object@@PAU1@0@Z
	DD	01H
	ORG $+4
	DD	FLAT:??_C@_0N@CBEDFALN@IsSameEmpire@
	DD	FLAT:?playerIsSameEmpire@@YAPAU_object@@PAU1@0@Z
	DD	01H
	ORG $+4
	DD	FLAT:??_C@_0BE@FOIPHJLO@IsChallengeInstance@
	DD	FLAT:?playerIsChallengeInstance@@YAPAU_object@@PAU1@0@Z
	DD	01H
	ORG $+4
	DD	FLAT:??_C@_0BC@IKOEAPGC@IsRevengeInstance@
	DD	FLAT:?playerIsRevengeInstance@@YAPAU_object@@PAU1@0@Z
	DD	01H
	ORG $+4
	DD	FLAT:??_C@_0BE@HJOMPGKI@IsCantFightInstance@
	DD	FLAT:?playerIsCantFightInstance@@YAPAU_object@@PAU1@0@Z
	DD	01H
	ORG $+4
	DD	FLAT:??_C@_0BF@DABJOKIF@GetCharacterDistance@
	DD	FLAT:?playerGetCharacterDistance@@YAPAU_object@@PAU1@0@Z
	DD	01H
	ORG $+4
	DD	FLAT:??_C@_0N@IKPCBCPA@IsInSafeArea@
	DD	FLAT:?playerIsInSafeArea@@YAPAU_object@@PAU1@0@Z
	DD	01H
	ORG $+4
	DD	FLAT:??_C@_0BA@GFJLKENO@IsMountingHorse@
	DD	FLAT:?playerIsMountingHorse@@YAPAU_object@@PAU1@0@Z
	DD	01H
	ORG $+4
	DD	FLAT:??_C@_0P@LDENHACE@IsObserverMode@
	DD	FLAT:?playerIsObserverMode@@YAPAU_object@@PAU1@0@Z
	DD	01H
	ORG $+4
	DD	FLAT:??_C@_0L@JEBGMNAH@ActEmotion@
	DD	FLAT:?playerActEmotion@@YAPAU_object@@PAU1@0@Z
	DD	01H
	ORG $+4
	DD	FLAT:??_C@_0L@CPMIOCIM@ShowPlayer@
	DD	FLAT:?playerShowPlayer@@YAPAU_object@@PAU1@0@Z
	DD	01H
	ORG $+4
	DD	FLAT:??_C@_0L@PBBGGCLG@HidePlayer@
	DD	FLAT:?playerHidePlayer@@YAPAU_object@@PAU1@0@Z
	DD	01H
	ORG $+4
	DD	FLAT:??_C@_0M@GOCDIKPN@ComboAttack@
	DD	FLAT:?playerComboAttack@@YAPAU_object@@PAU1@0@Z
	DD	01H
	ORG $+4
	DD	FLAT:??_C@_0BL@IEKDAKHC@SetAutoCameraRotationSpeed@
	DD	FLAT:?playerSetAutoCameraRotationSpeed@@YAPAU_object@@PAU1@0@Z
	DD	01H
	ORG $+4
	DD	FLAT:??_C@_0BC@DAIEHFBH@SetAttackKeyState@
	DD	FLAT:?playerSetAttackKeyState@@YAPAU_object@@PAU1@0@Z
	DD	01H
	ORG $+4
	DD	FLAT:??_C@_0BF@PNJNANBI@SetSingleDIKKeyState@
	DD	FLAT:?playerSetSingleDIKKeyState@@YAPAU_object@@PAU1@0@Z
	DD	01H
	ORG $+4
	DD	FLAT:??_C@_0BJ@HGLJKHIH@EndKeyWalkingImmediately@
	DD	FLAT:?playerEndKeyWalkingImmediately@@YAPAU_object@@PAU1@0@Z
	DD	01H
	ORG $+4
	DD	FLAT:??_C@_0BC@NCHFPCDM@StartMouseWalking@
	DD	FLAT:?playerStartMouseWalking@@YAPAU_object@@PAU1@0@Z
	DD	01H
	ORG $+4
	DD	FLAT:??_C@_0BA@JEOKFDLP@EndMouseWalking@
	DD	FLAT:?playerEndMouseWalking@@YAPAU_object@@PAU1@0@Z
	DD	01H
	ORG $+4
	DD	FLAT:??_C@_0BE@MCFGJOPA@ResetCameraRotation@
	DD	FLAT:?playerResetCameraRotation@@YAPAU_object@@PAU1@0@Z
	DD	01H
	ORG $+4
	DD	FLAT:??_C@_0BD@DPHLFGPP@SetQuickCameraMode@
	DD	FLAT:?playerSetQuickCameraMode@@YAPAU_object@@PAU1@0@Z
	DD	01H
	ORG $+4
	DD	FLAT:??_C@_08HIFGFOGG@SetSkill@
	DD	FLAT:?playerSetSkill@@YAPAU_object@@PAU1@0@Z
	DD	01H
	ORG $+4
	DD	FLAT:??_C@_0O@NOICOABO@GetSkillIndex@
	DD	FLAT:?playerGetSkillIndex@@YAPAU_object@@PAU1@0@Z
	DD	01H
	ORG $+4
	DD	FLAT:??_C@_0BC@HNJMANI@GetSkillSlotIndex@
	DD	FLAT:?playerGetSkillSlotIndex@@YAPAU_object@@PAU1@0@Z
	DD	01H
	ORG $+4
	DD	FLAT:??_C@_0O@IIOIANPE@GetSkillGrade@
	DD	FLAT:?playerGetSkillGrade@@YAPAU_object@@PAU1@0@Z
	DD	01H
	ORG $+4
	DD	FLAT:??_C@_0O@CNCBAIPN@GetSkillLevel@
	DD	FLAT:?playerGetSkillLevel@@YAPAU_object@@PAU1@0@Z
	DD	01H
	ORG $+4
	DD	FLAT:??_C@_0CD@EFGGIKHI@GetSkillCurrentEfficientPercent@
	DD	FLAT:?playerGetSkillCurrentEfficientPercentage@@YAPAU_object@@PAU1@0@Z
	DD	01H
	ORG $+4
	DD	FLAT:??_C@_0CA@JHGONPGM@GetSkillNextEfficientPercentage@
	DD	FLAT:?playerGetSkillNextEfficientPercentage@@YAPAU_object@@PAU1@0@Z
	DD	01H
	ORG $+4
	DD	FLAT:??_C@_0P@IGNHDBHH@ClickSkillSlot@
	DD	FLAT:?playerClickSkillSlot@@YAPAU_object@@PAU1@0@Z
	DD	01H
	ORG $+4
	DD	FLAT:??_C@_0BN@BPJDEKED@ChangeCurrentSkillNumberOnly@
	DD	FLAT:?playerChangeCurrentSkillNumberOnly@@YAPAU_object@@PAU1@0@Z
	DD	01H
	ORG $+4
	DD	FLAT:??_C@_0P@MJOJKOJJ@ClearSkillDict@
	DD	FLAT:?playerClearSkillDict@@YAPAU_object@@PAU1@0@Z
	DD	01H
	ORG $+4
	DD	FLAT:??_C@_0BD@GCOFLJAB@DisableToggleSkill@
	DD	FLAT:?playerDisableToggleSkill@@YAPAU_object@@PAU1@0@Z
	DD	01H
	ORG $+4
	DD	FLAT:??_C@_0N@GABOCBEH@GetItemIndex@
	DD	FLAT:?playerGetItemIndex@@YAPAU_object@@PAU1@0@Z
	DD	01H
	ORG $+4
	DD	FLAT:??_C@_0N@DMCGDNGF@GetItemFlags@
	DD	FLAT:?playerGetItemFlags@@YAPAU_object@@PAU1@0@Z
	DD	01H
	ORG $+4
	DD	FLAT:??_C@_0N@LEKALLIG@GetItemCount@
	DD	FLAT:?playerGetItemCount@@YAPAU_object@@PAU1@0@Z
	DD	01H
	ORG $+4
	DD	FLAT:??_C@_0BD@DBLILMFK@GetItemCountByVnum@
	DD	FLAT:?playerGetItemCountByVnum@@YAPAU_object@@PAU1@0@Z
	DD	01H
	ORG $+4
	DD	FLAT:??_C@_0BD@JBOBKHIE@GetItemMetinSocket@
	DD	FLAT:?playerGetItemMetinSocket@@YAPAU_object@@PAU1@0@Z
	DD	01H
	ORG $+4
	DD	FLAT:??_C@_0BB@GOKPPDHH@GetItemAttribute@
	DD	FLAT:?playerGetItemAttribute@@YAPAU_object@@PAU1@0@Z
	DD	01H
	ORG $+4
	DD	FLAT:??_C@_0BC@OKNBBEMG@GetISellItemPrice@
	DD	FLAT:?playerGetISellItemPrice@@YAPAU_object@@PAU1@0@Z
	DD	01H
	ORG $+4
	DD	FLAT:??_C@_08MHJANHDM@MoveItem@
	DD	FLAT:?playerMoveItem@@YAPAU_object@@PAU1@0@Z
	DD	01H
	ORG $+4
	DD	FLAT:??_C@_0BE@DBIFLBAC@SendClickItemPacket@
	DD	FLAT:?playerSendClickItemPacket@@YAPAU_object@@PAU1@0@Z
	DD	01H
	ORG $+4
	DD	FLAT:??_C@_07MMGEHGCI@GetName@
	DD	FLAT:?playerGetName@@YAPAU_object@@PAU1@0@Z
	DD	01H
	ORG $+4
	DD	FLAT:??_C@_06FHLNIOPB@GetJob@
	DD	FLAT:?playerGetJob@@YAPAU_object@@PAU1@0@Z
	DD	01H
	ORG $+4
	DD	FLAT:??_C@_07GDOKCBKB@GetRace@
	DD	FLAT:?playerGetRace@@YAPAU_object@@PAU1@0@Z
	DD	01H
	ORG $+4
	DD	FLAT:??_C@_0M@DJDCIBLO@GetPlayTime@
	DD	FLAT:?playerGetPlayTime@@YAPAU_object@@PAU1@0@Z
	DD	01H
	ORG $+4
	DD	FLAT:??_C@_0M@DGCMFHDN@SetPlayTime@
	DD	FLAT:?playerSetPlayTime@@YAPAU_object@@PAU1@0@Z
	DD	01H
	ORG $+4
	DD	FLAT:??_C@_0BA@FOPKKJJD@IsSkillCoolTime@
	DD	FLAT:?playerIsSkillCoolTime@@YAPAU_object@@PAU1@0@Z
	DD	01H
	ORG $+4
	DD	FLAT:??_C@_0BB@CNGGKNGL@GetSkillCoolTime@
	DD	FLAT:?playerGetSkillCoolTime@@YAPAU_object@@PAU1@0@Z
	DD	01H
	ORG $+4
	DD	FLAT:??_C@_0O@IAPCJJAC@IsSkillActive@
	DD	FLAT:?playerIsSkillActive@@YAPAU_object@@PAU1@0@Z
	DD	01H
	ORG $+4
	DD	FLAT:??_C@_0O@HHBOBCLE@UseGuildSkill@
	DD	FLAT:?playerUseGuildSkill@@YAPAU_object@@PAU1@0@Z
	DD	01H
	ORG $+4
	DD	FLAT:??_C@_0BI@JIGEMOFF@AffectIndexToSkillIndex@
	DD	FLAT:?playerAffectIndexToSkillIndex@@YAPAU_object@@PAU1@0@Z
	DD	01H
	ORG $+4
	DD	FLAT:??_C@_06MDIKDJMD@GetEXP@
	DD	FLAT:?playerGetEXP@@YAPAU_object@@PAU1@0@Z
	DD	01H
	ORG $+4
	DD	FLAT:??_C@_08MDGBDPHC@GetLevel@
	DD	FLAT:?playerGetLevel@@YAPAU_object@@PAU1@0@Z
	DD	01H
	ORG $+4
	DD	FLAT:??_C@_09MKFEIFJE@GetStatus@
	DD	FLAT:?playerGetStatus@@YAPAU_object@@PAU1@0@Z
	DD	01H
	ORG $+4
	DD	FLAT:??_C@_09OEBBKEAG@SetStatus@
	DD	FLAT:?playerSetStatus@@YAPAU_object@@PAU1@0@Z
	DD	01H
	ORG $+4
	DD	FLAT:??_C@_06NMFKJLLH@GetElk@
	DD	FLAT:?playerGetElk@@YAPAU_object@@PAU1@0@Z
	DD	01H
	ORG $+4
	DD	FLAT:??_C@_08OAJFGNBC@GetMoney@
	DD	FLAT:?playerGetElk@@YAPAU_object@@PAU1@0@Z
	DD	01H
	ORG $+4
	DD	FLAT:??_C@_08LBPCDDLA@GetCoins@
	DD	FLAT:?playerGetCoins@@YAPAU_object@@PAU1@0@Z
	DD	01H
	ORG $+4
	DD	FLAT:??_C@_0L@EAKBLDCO@GetGuildID@
	DD	FLAT:?playerGetGuildID@@YAPAU_object@@PAU1@0@Z
	DD	01H
	ORG $+4
	DD	FLAT:??_C@_0N@CECGOPDG@GetGuildName@
	DD	FLAT:?playerGetGuildName@@YAPAU_object@@PAU1@0@Z
	DD	01H
	ORG $+4
	DD	FLAT:??_C@_0BB@LANDCIKG@GetAlignmentData@
	DD	FLAT:?playerGetAlignmentData@@YAPAU_object@@PAU1@0@Z
	DD	01H
	ORG $+4
	DD	FLAT:??_C@_0BJ@DNLGAMEO@RequestAddLocalQuickSlot@
	DD	FLAT:?playerRequestAddLocalQuickSlot@@YAPAU_object@@PAU1@0@Z
	DD	01H
	ORG $+4
	DD	FLAT:??_C@_0CA@JMFCJJPL@RequestAddToEmptyLocalQuickSlot@
	DD	FLAT:?playerRequestAddToEmptyLocalQuickSlot@@YAPAU_object@@PAU1@0@Z
	DD	01H
	ORG $+4
	DD	FLAT:??_C@_0BN@NACLJDMA@RequestDeleteGlobalQuickSlot@
	DD	FLAT:?playerRequestDeleteGlobalQuickSlot@@YAPAU_object@@PAU1@0@Z
	DD	01H
	ORG $+4
	DD	FLAT:??_C@_0CL@IEMBKGLN@RequestMoveGlobalQuickSlotToLoc@
	DD	FLAT:?playerRequestMoveGlobalQuickSlotToLocalQuickSlot@@YAPAU_object@@PAU1@0@Z
	DD	01H
	ORG $+4
	DD	FLAT:??_C@_0BJ@IBBGPDPH@RequestUseLocalQuickSlot@
	DD	FLAT:?playerRequestUseLocalQuickSlot@@YAPAU_object@@PAU1@0@Z
	DD	01H
	ORG $+4
	DD	FLAT:??_C@_0CK@GNGKFIDB@LocalQuickSlotIndexToGlobalQuic@
	DD	FLAT:?playerLocalQuickSlotIndexToGlobalQuickSlotIndex@@YAPAU_object@@PAU1@0@Z
	DD	01H
	ORG $+4
	DD	FLAT:??_C@_0BB@JKIMCMDG@IsAntiFlagBySlot@
	DD	FLAT:?playerIsAntiFlagBySlot@@YAPAU_object@@PAU1@0@Z
	DD	01H
	ORG $+4
	DD	FLAT:??_C@_0BC@PGIBMCKF@GetItemTypeBySlot@
	DD	FLAT:?playerGetItemTypeBySlot@@YAPAU_object@@PAU1@0@Z
	DD	01H
	ORG $+4
	DD	FLAT:??_C@_0BF@HFKGNAOK@GetItemSubTypeBySlot@
	DD	FLAT:?playerGetItemSubTypeBySlot@@YAPAU_object@@PAU1@0@Z
	DD	01H
	ORG $+4
	DD	FLAT:??_C@_0P@HAJODJLN@IsSameItemVnum@
	DD	FLAT:?playerIsSameItemVnum@@YAPAU_object@@PAU1@0@Z
	DD	01H
	ORG $+4
	DD	FLAT:??_C@_0N@NLMPHAJA@GetQuickPage@
	DD	FLAT:?playerGetQuickPage@@YAPAU_object@@PAU1@0@Z
	DD	01H
	ORG $+4
	DD	FLAT:??_C@_0N@KPHBLMNM@SetQuickPage@
	DD	FLAT:?playerSetQuickPage@@YAPAU_object@@PAU1@0@Z
	DD	01H
	ORG $+4
	DD	FLAT:??_C@_0BC@LNKMMBDG@GetLocalQuickSlot@
	DD	FLAT:?playerGetLocalQuickSlot@@YAPAU_object@@PAU1@0@Z
	DD	01H
	ORG $+4
	DD	FLAT:??_C@_0BD@ECGPDHPA@GetGlobalQuickSlot@
	DD	FLAT:?playerGetGlobalQuickSlot@@YAPAU_object@@PAU1@0@Z
	DD	01H
	ORG $+4
	DD	FLAT:??_C@_0BH@JNCIKJMC@RemoveQuickSlotByValue@
	DD	FLAT:?playerRemoveQuickSlotByValue@@YAPAU_object@@PAU1@0@Z
	DD	01H
	ORG $+4
	DD	FLAT:??_C@_06NOPKEHAK@isItem@
	DD	FLAT:?playerisItem@@YAPAU_object@@PAU1@0@Z
	DD	01H
	ORG $+4
	DD	FLAT:??_C@_0BA@EMKHGGAL@IsEquipmentSlot@
	DD	FLAT:?playerIsEquipmentSlot@@YAPAU_object@@PAU1@0@Z
	DD	01H
	ORG $+4
	DD	FLAT:??_C@_0BC@DDCIGDKO@IsDSEquipmentSlot@
	DD	FLAT:?playerIsDSEquipmentSlot@@YAPAU_object@@PAU1@0@Z
	DD	01H
	ORG $+4
	DD	FLAT:??_C@_0O@KCAGNEAI@IsCostumeSlot@
	DD	FLAT:?playerIsCostumeSlot@@YAPAU_object@@PAU1@0@Z
	DD	01H
	ORG $+4
	DD	FLAT:??_C@_0P@LAJFBPPH@IsValuableItem@
	DD	FLAT:?playerIsValuableItem@@YAPAU_object@@PAU1@0@Z
	DD	01H
	ORG $+4
	DD	FLAT:??_C@_0BC@DCFDMADN@IsOpenPrivateShop@
	DD	FLAT:?playerIsOpenPrivateShop@@YAPAU_object@@PAU1@0@Z
	DD	01H
	ORG $+4
	DD	FLAT:??_C@_0BE@HECMLJG@IsBeltInventorySlot@
	DD	FLAT:?playerIsBeltInventorySlot@@YAPAU_object@@PAU1@0@Z
	DD	01H
	ORG $+4
	DD	FLAT:??_C@_0BA@OBALOJLG@IsEquippingBelt@
	DD	FLAT:?playerIsEquippingBelt@@YAPAU_object@@PAU1@0@Z
	DD	01H
	ORG $+4
	DD	FLAT:??_C@_0BN@DKGNHJIB@IsAvailableBeltInventoryCell@
	DD	FLAT:?playerIsAvailableBeltInventoryCell@@YAPAU_object@@PAU1@0@Z
	DD	01H
	ORG $+4
	DD	FLAT:??_C@_0BJ@CPJJHAGD@IsSkillBookInventorySlot@
	DD	FLAT:?playerIsSkillBookInventorySlot@@YAPAU_object@@PAU1@0@Z
	DD	01H
	ORG $+4
	DD	FLAT:??_C@_0BM@FCEMHHI@IsUpgradeItemsInventorySlot@
	DD	FLAT:?playerIsUpgradeItemsInventorySlot@@YAPAU_object@@PAU1@0@Z
	DD	01H
	ORG $+4
	DD	FLAT:??_C@_0BF@LJHNJJLN@IsStoneInventorySlot@
	DD	FLAT:?playerIsStoneInventorySlot@@YAPAU_object@@PAU1@0@Z
	DD	01H
	ORG $+4
	DD	FLAT:??_C@_0BH@IDMOLEIA@IsGiftBoxInventorySlot@
	DD	FLAT:?playerIsGiftBoxInventorySlot@@YAPAU_object@@PAU1@0@Z
	DD	01H
	ORG $+4
	DD	FLAT:??_C@_0BI@FMKBEPGC@IsChangersInventorySlot@
	DD	FLAT:?playerIsChangersInventorySlot@@YAPAU_object@@PAU1@0@Z
	DD	01H
	ORG $+4
	DD	FLAT:??_C@_0N@DGHEMMKN@GetItemGrade@
	DD	FLAT:?playerGetItemGrade@@YAPAU_object@@PAU1@0@Z
	DD	01H
	ORG $+4
	DD	FLAT:??_C@_09BGNCJJP@CanRefine@
	DD	FLAT:?playerCanRefine@@YAPAU_object@@PAU1@0@Z
	DD	01H
	ORG $+4
	DD	FLAT:??_C@_09GHIBIBHI@CanDetach@
	DD	FLAT:?playerCanDetach@@YAPAU_object@@PAU1@0@Z
	DD	01H
	ORG $+4
	DD	FLAT:??_C@_09FHINBOHC@CanUnlock@
	DD	FLAT:?playerCanUnlock@@YAPAU_object@@PAU1@0@Z
	DD	01H
	ORG $+4
	DD	FLAT:??_C@_0P@BLOGPKFO@CanAttachMetin@
	DD	FLAT:?playerCanAttachMetin@@YAPAU_object@@PAU1@0@Z
	DD	01H
	ORG $+4
	DD	FLAT:??_C@_0BE@ELNKJPMC@IsRefineGradeScroll@
	DD	FLAT:?playerIsRefineGradeScroll@@YAPAU_object@@PAU1@0@Z
	DD	01H
	ORG $+4
	DD	FLAT:??_C@_0M@DPCEEMCG@ClearTarget@
	DD	FLAT:?playerClearTarget@@YAPAU_object@@PAU1@0@Z
	DD	01H
	ORG $+4
	DD	FLAT:??_C@_09EECGCJDE@SetTarget@
	DD	FLAT:?playerSetTarget@@YAPAU_object@@PAU1@0@Z
	DD	01H
	ORG $+4
	DD	FLAT:??_C@_0BC@HAEJEFBP@OpenCharacterMenu@
	DD	FLAT:?playerOpenCharacterMenu@@YAPAU_object@@PAU1@0@Z
	DD	01H
	ORG $+4
	DD	FLAT:??_C@_06LMAGPFNF@Update@
	DD	FLAT:?playerUpdate@@YAPAU_object@@PAU1@0@Z
	DD	01H
	ORG $+4
	DD	FLAT:??_C@_06EPLDPNDB@Render@
	DD	FLAT:?playerRender@@YAPAU_object@@PAU1@0@Z
	DD	01H
	ORG $+4
	DD	FLAT:??_C@_05MDNHABIA@Clear@
	DD	FLAT:?playerClear@@YAPAU_object@@PAU1@0@Z
	DD	01H
	ORG $+4
	DD	FLAT:??_C@_0O@FJCFNEGL@IsPartyMember@
	DD	FLAT:?playerIsPartyMember@@YAPAU_object@@PAU1@0@Z
	DD	01H
	ORG $+4
	DD	FLAT:??_C@_0O@BPMJGNAC@IsPartyLeader@
	DD	FLAT:?playerIsPartyLeader@@YAPAU_object@@PAU1@0@Z
	DD	01H
	ORG $+4
	DD	FLAT:??_C@_0BD@HGKJMFNK@IsPartyLeaderByPID@
	DD	FLAT:?playerIsPartyLeaderByPID@@YAPAU_object@@PAU1@0@Z
	DD	01H
	ORG $+4
	DD	FLAT:??_C@_0BL@EPAFEFHI@GetPartyMemberHPPercentage@
	DD	FLAT:?playerGetPartyMemberHPPercentage@@YAPAU_object@@PAU1@0@Z
	DD	01H
	ORG $+4
	DD	FLAT:??_C@_0BE@HKIJMBKK@GetPartyMemberState@
	DD	FLAT:?playerGetPartyMemberState@@YAPAU_object@@PAU1@0@Z
	DD	01H
	ORG $+4
	DD	FLAT:??_C@_0BG@EEFAFMJC@GetPartyMemberAffects@
	DD	FLAT:?playerGetPartyMemberAffects@@YAPAU_object@@PAU1@0@Z
	DD	01H
	ORG $+4
	DD	FLAT:??_C@_0BC@DGCJFOHN@RemovePartyMember@
	DD	FLAT:?playerRemovePartyMember@@YAPAU_object@@PAU1@0@Z
	DD	01H
	ORG $+4
	DD	FLAT:??_C@_09DMPBEJCG@ExitParty@
	DD	FLAT:?playerExitParty@@YAPAU_object@@PAU1@0@Z
	DD	01H
	ORG $+4
	DD	FLAT:??_C@_09IMMFEEHK@GetPKMode@
	DD	FLAT:?playerGetPKMode@@YAPAU_object@@PAU1@0@Z
	DD	01H
	ORG $+4
	DD	FLAT:??_C@_0BE@PMDABIKP@RegisterEmotionIcon@
	DD	FLAT:?playerRegisterEmotionIcon@@YAPAU_object@@PAU1@0@Z
	DD	01H
	ORG $+4
	DD	FLAT:??_C@_0BE@FELKHKJF@GetEmotionIconImage@
	DD	FLAT:?playerGetEmotionIconImage@@YAPAU_object@@PAU1@0@Z
	DD	01H
	ORG $+4
	DD	FLAT:??_C@_0BJ@CFCMHNHB@SetWeaponAttackBonusFlag@
	DD	FLAT:?playerSetWeaponAttackBonusFlag@@YAPAU_object@@PAU1@0@Z
	DD	01H
	ORG $+4
	DD	FLAT:??_C@_0P@ILOOLMDH@ToggleCoolTime@
	DD	FLAT:?playerToggleCoolTime@@YAPAU_object@@PAU1@0@Z
	DD	01H
	ORG $+4
	DD	FLAT:??_C@_0BB@DJKKOCLB@ToggleLevelLimit@
	DD	FLAT:?playerToggleLevelLimit@@YAPAU_object@@PAU1@0@Z
	DD	01H
	ORG $+4
	DD	FLAT:??_C@_0N@MEKPPHGC@GetTargetVID@
	DD	FLAT:?playerGetTargetVID@@YAPAU_object@@PAU1@0@Z
	DD	01H
	ORG $+4
	DD	FLAT:??_C@_0M@CHNGAPIB@SetItemData@
	DD	FLAT:?playerSetItemData@@YAPAU_object@@PAU1@0@Z
	DD	01H
	ORG $+4
	DD	FLAT:??_C@_0BD@GLMLJBGM@SetItemMetinSocket@
	DD	FLAT:?playerSetItemMetinSocket@@YAPAU_object@@PAU1@0@Z
	DD	01H
	ORG $+4
	DD	FLAT:??_C@_0BB@KPGENMF@SetItemAttribute@
	DD	FLAT:?playerSetItemAttribute@@YAPAU_object@@PAU1@0@Z
	DD	01H
	ORG $+4
	DD	FLAT:??_C@_0N@MABOHHMK@SetItemCount@
	DD	FLAT:?playerSetItemCount@@YAPAU_object@@PAU1@0@Z
	DD	01H
	ORG $+4
	DD	FLAT:??_C@_0M@DGFCHEAA@GetItemLink@
	DD	FLAT:?playerGetItemLink@@YAPAU_object@@PAU1@0@Z
	DD	01H
	ORG $+4
	DD	FLAT:??_C@_0BE@IOMKCPHN@SlotTypeToInvenType@
	DD	FLAT:?playerSlotTypeToInvenType@@YAPAU_object@@PAU1@0@Z
	DD	01H
	ORG $+4
	DD	FLAT:??_C@_0BF@PLGNHJMH@SendDragonSoulRefine@
	DD	FLAT:?playerSendDragonSoulRefine@@YAPAU_object@@PAU1@0@Z
	DD	01H
	ORG $+4
	DD	FLAT:??_C@_0BN@OIIJKMFD@ClearAutoAttackTargetActorID@
	DD	FLAT:?playerClearAutoAttackTargetActorID@@YAPAU_object@@PAU1@0@Z
	DD	01H
	ORG $+4
	DD	FLAT:??_C@_04PPEDCFAC@NPOS@
	DD	FLAT:?playerNPOS@@YAPAU_object@@PAU1@0@Z
	DD	01H
	ORG $+4
	DD	FLAT:??_C@_0BF@HHEMENOC@GetMainCharacterPart@
	DD	FLAT:?playerGetMainCharacterPart@@YAPAU_object@@PAU1@0@Z
	DD	01H
	ORG $+4
	DD	FLAT:??_C@_0BB@NAJMCHBK@GetItemSlotIndex@
	DD	FLAT:?playerGetItemSlotIndex@@YAPAU_object@@PAU1@0@Z
	DD	01H
	ORG $+4
	DD	FLAT:??_C@_0M@GLKHKGON@CanInteract@
	DD	FLAT:?playerCanInteract@@YAPAU_object@@PAU1@0@Z
	DD	01H
	ORG $+4
	DD	FLAT:??_C@_0BH@KNFAMLNM@GetPremiumBattlePassID@
	DD	FLAT:?playerGetPremiumBattlePassID@@YAPAU_object@@PAU1@0@Z
	DD	01H
	ORG $+4
	DD	FLAT:??_C@_0O@PKLBMAM@SetSkillColor@
	DD	FLAT:?playerSetSkillColor@@YAPAU_object@@PAU1@0@Z
	DD	01H
	ORG $+4
	DD	FLAT:??_C@_0O@HALFKPHL@GetSkillColor@
	DD	FLAT:?playerGetSkillColor@@YAPAU_object@@PAU1@0@Z
	DD	01H
	ORG $+4
	DD	FLAT:??_C@_0O@MJPCFPJK@GetAuraItemID@
	DD	FLAT:?playerGetAuraItemID@@YAPAU_object@@PAU1@0@Z
	DD	01H
	ORG $+4
	DD	FLAT:??_C@_0BB@NMGFNIEB@GetAuraItemCount@
	DD	FLAT:?playerGetAuraItemCount@@YAPAU_object@@PAU1@0@Z
	DD	01H
	ORG $+4
	DD	FLAT:??_C@_0BH@EEMJAALJ@GetAuraItemMetinSocket@
	DD	FLAT:?playerGetAuraItemMetinSocket@@YAPAU_object@@PAU1@0@Z
	DD	01H
	ORG $+4
	DD	FLAT:??_C@_0BF@DKEAJKNA@GetAuraItemAttribute@
	DD	FLAT:?playerGetAuraItemAttribute@@YAPAU_object@@PAU1@0@Z
	DD	01H
	ORG $+4
	DD	FLAT:??_C@_0BI@PBPNGBAE@IsAuraRefineWindowEmpty@
	DD	FLAT:?playerIsAuraRefineWindowEmpty@@YAPAU_object@@PAU1@0@Z
	DD	01H
	ORG $+4
	DD	FLAT:??_C@_0BM@BKGGJDBO@GetAuraCurrentItemSlotCount@
	DD	FLAT:?playerGetAuraCurrentItemSlotCount@@YAPAU_object@@PAU1@0@Z
	DD	01H
	ORG $+4
	DD	FLAT:??_C@_0BH@ECFJIDOK@IsAuraRefineWindowOpen@
	DD	FLAT:?playerIsAuraRefineWindowOpen@@YAPAU_object@@PAU1@0@Z
	DD	01H
	ORG $+4
	DD	FLAT:??_C@_0BI@HAAECBGI@GetAuraRefineWindowType@
	DD	FLAT:?playerGetAuraRefineWindowType@@YAPAU_object@@PAU1@0@Z
	DD	01H
	ORG $+4
	DD	FLAT:??_C@_0BF@DGBJCLPP@FineMoveAuraItemSlot@
	DD	FLAT:?playerFineMoveAuraItemSlot@@YAPAU_object@@PAU1@0@Z
	DD	01H
	ORG $+4
	DD	FLAT:??_C@_0BJ@FDMBJLDG@SetAuraActivatedItemSlot@
	DD	FLAT:?playerSetAuraActivatedItemSlot@@YAPAU_object@@PAU1@0@Z
	DD	01H
	ORG $+4
	DD	FLAT:??_C@_0BG@EEFNBJPF@FindActivatedAuraSlot@
	DD	FLAT:?playerFindActivatedAuraSlot@@YAPAU_object@@PAU1@0@Z
	DD	01H
	ORG $+4
	DD	FLAT:??_C@_0BC@FMKOGNDO@FindUsingAuraSlot@
	DD	FLAT:?playerFindUsingAuraSlot@@YAPAU_object@@PAU1@0@Z
	DD	01H
	ORG $+4
	DD	FLAT:??_C@_0BC@GPJMKBHD@GetAuraRefineInfo@
	DD	FLAT:?playerGetAuraRefineInfo@@YAPAU_object@@PAU1@0@Z
	DD	01H
	ORG $+4
	DD	FLAT:??_C@_0BI@OEGEDDOI@GetAuraRefineInfoExpPer@
	DD	FLAT:?playerGetAuraRefineInfoExpPer@@YAPAU_object@@PAU1@0@Z
	DD	01H
	ORG $+4
	DD	FLAT:??_C@_0BH@LNIBDCIJ@GetAuraRefineInfoLevel@
	DD	FLAT:?playerGetAuraRefineInfoLevel@@YAPAU_object@@PAU1@0@Z
	DD	01H
	ORG $+4
	DD	FLAT:??_C@_0BJ@OLOKCKBJ@SetOpenPetHatchingWindow@
	DD	FLAT:?playerSetOpenPetHatchingWindow@@YAPAU_object@@PAU1@0@Z
	DD	01H
	ORG $+4
	DD	FLAT:??_C@_0BL@CJGAAMKA@SetOpenPetNameChangeWindow@
	DD	FLAT:?playerSetOpenPetNameChangeWindow@@YAPAU_object@@PAU1@0@Z
	DD	01H
	ORG $+4
	DD	FLAT:??_C@_0BF@LBMFBLG@SetOpenPetFeedWindow@
	DD	FLAT:?playerSetOpenPetFeedWindow@@YAPAU_object@@PAU1@0@Z
	DD	01H
	ORG $+4
	DD	FLAT:??_C@_0BI@EEFHCAEH@IsOpenPetHatchingWindow@
	DD	FLAT:?playerIsOpenPetHatchingWindow@@YAPAU_object@@PAU1@0@Z
	DD	01H
	ORG $+4
	DD	FLAT:??_C@_0BE@CCCDEOF@IsOpenPetFeedWindow@
	DD	FLAT:?playerIsOpenPetFeedWindow@@YAPAU_object@@PAU1@0@Z
	DD	01H
	ORG $+4
	DD	FLAT:??_C@_0BK@ONINDKNJ@IsOpenPetNameChangeWindow@
	DD	FLAT:?playerIsOpenPetNameChangeWindow@@YAPAU_object@@PAU1@0@Z
	DD	01H
	ORG $+4
	DD	FLAT:??_C@_0M@PMJJOEKL@SetOpenMall@
	DD	FLAT:?playerSetOpenMall@@YAPAU_object@@PAU1@0@Z
	DD	01H
	ORG $+4
	DD	FLAT:??_C@_0P@DGCGCCCO@SetOpenSafeBox@
	DD	FLAT:?playerSetOpenSafeBox@@YAPAU_object@@PAU1@0@Z
	DD	01H
	ORG $+4
	DD	FLAT:??_C@_0L@MJHEBNLN@IsOpenMall@
	DD	FLAT:?playerIsOpenMall@@YAPAU_object@@PAU1@0@Z
	DD	01H
	ORG $+4
	DD	FLAT:??_C@_0BD@FFNGMGDE@GetActivePetItemId@
	DD	FLAT:?playerGetActivePetItemId@@YAPAU_object@@PAU1@0@Z
	DD	01H
	ORG $+4
	DD	FLAT:??_C@_0BE@HIAGDJGO@GetPetItemVNumInBag@
	DD	FLAT:?playerGetPetItemVNumInBag@@YAPAU_object@@PAU1@0@Z
	DD	01H
	ORG $+4
	DD	FLAT:??_C@_0M@EGNNPBIF@GetPetSkill@
	DD	FLAT:?playerGetPetSkill@@YAPAU_object@@PAU1@0@Z
	DD	01H
	ORG $+4
	DD	FLAT:??_C@_0BD@MKFJOLGB@GetPetSkillByIndex@
	DD	FLAT:?playerGetPetSkillByIndex@@YAPAU_object@@PAU1@0@Z
	DD	01H
	ORG $+4
	DD	FLAT:??_C@_0BF@GGHLDBPM@GetActivePetItemVNum@
	DD	FLAT:?playerGetActivePetItemVNum@@YAPAU_object@@PAU1@0@Z
	DD	01H
	ORG $+4
	DD	FLAT:??_C@_0BA@OIMHGHDP@GetPetExpPoints@
	DD	FLAT:?playerGetPetExpPoints@@YAPAU_object@@PAU1@0@Z
	DD	01H
	ORG $+4
	DD	FLAT:??_C@_0L@MCGANBBD@GetPetItem@
	DD	FLAT:?playerGetPetItem@@YAPAU_object@@PAU1@0@Z
	DD	01H
	ORG $+4
	DD	FLAT:??_C@_0P@HNNKIABL@GetPetLifeTime@
	DD	FLAT:?playerGetPetLifeTime@@YAPAU_object@@PAU1@0@Z
	DD	01H
	ORG $+4
	DD	FLAT:??_C@_0BJ@DBAIPPKB@CanUseGrowthPetQuickSlot@
	DD	FLAT:?playerCanUseGrowthPetQuickSlot@@YAPAU_object@@PAU1@0@Z
	DD	01H
	ORG $+4
	DD	FLAT:??_C@_0N@GALPMGNA@LoadNewRegen@
	DD	FLAT:?playerLoadNewRegen@@YAPAU_object@@PAU1@0@Z
	DD	01H
	ORG $+4
	DD	FLAT:??_C@_0BC@LHBNPKGI@GetChangeLookVnum@
	DD	FLAT:?playerGetChangeLookVnum@@YAPAU_object@@PAU1@0@Z
	DD	01H
	ORG $+4
	DD	FLAT:??_C@_0BE@KMNILMPF@SetChangeLookWindow@
	DD	FLAT:?playerSetChangeLookWindow@@YAPAU_object@@PAU1@0@Z
	DD	01H
	ORG $+4
	DD	FLAT:??_C@_0BI@PJOOIALB@GetChangeLookWindowOpen@
	DD	FLAT:?playerGetChangeLookWindowOpen@@YAPAU_object@@PAU1@0@Z
	DD	01H
	ORG $+4
	DD	FLAT:??_C@_0BI@HMKCDAJK@SetChangeLookWindowType@
	DD	FLAT:?playerSetChangeLookWindowType@@YAPAU_object@@PAU1@0@Z
	DD	01H
	ORG $+4
	DD	FLAT:??_C@_0BE@EICJCLKG@GetChangeLookItemID@
	DD	FLAT:?playerGetChangeLookItemID@@YAPAU_object@@PAU1@0@Z
	DD	01H
	ORG $+4
	DD	FLAT:??_C@_0BL@ELGKHOAL@GetChangeLookItemInvenSlot@
	DD	FLAT:?playerGetChangeLookItemInvenSlot@@YAPAU_object@@PAU1@0@Z
	DD	01H
	ORG $+4
	DD	FLAT:??_C@_0BM@DIBDFBNF@GetChangeLookFreeYangItemID@
	DD	FLAT:?playerGetChangeLookFreeYangItemID@@YAPAU_object@@PAU1@0@Z
	DD	01H
	ORG $+4
	DD	FLAT:??_C@_0CC@EICEGDNO@GetChangeLookFreeYangInvenSlotP@
	DD	FLAT:?playerGetChangeLookFreeYangInvenSlotPos@@YAPAU_object@@PAU1@0@Z
	DD	01H
	ORG $+4
	DD	FLAT:??_C@_0BH@BELNGOAK@CanChangeLookClearItem@
	DD	FLAT:?playerCanChangeLookClearItem@@YAPAU_object@@PAU1@0@Z
	DD	01H
	ORG $+4
	DD	FLAT:??_C@_0BO@IEIPICAI@GetChangeWIndowChangeLookVnum@
	DD	FLAT:?playerGetChangeWIndowChangeLookVnum@@YAPAU_object@@PAU1@0@Z
	DD	01H
	ORG $+4
	DD	FLAT:??_C@_0BJ@NKLEKMEH@GetChangeChangeLookPrice@
	DD	FLAT:?playerGetChangeChangeLookPrice@@YAPAU_object@@PAU1@0@Z
	DD	01H
	ORG $+4
	DD	00H
	DD	00H
	ORG $+8
_DATA	ENDS
;	COMDAT ??_C@_0BD@OGBKIAOM@POINT_STONE_KILLED@
CONST	SEGMENT
??_C@_0BD@OGBKIAOM@POINT_STONE_KILLED@ DB 'POINT_STONE_KILLED', 00H ; `string'
CONST	ENDS
;	COMDAT ??_C@_0BC@JPBCPPBB@POINT_BOSS_KILLED@
CONST	SEGMENT
??_C@_0BC@JPBCPPBB@POINT_BOSS_KILLED@ DB 'POINT_BOSS_KILLED', 00H ; `string'
CONST	ENDS
;	COMDAT ??_C@_0BE@DIODHCDN@POINT_KILL_DUELLOST@
CONST	SEGMENT
??_C@_0BE@DIODHCDN@POINT_KILL_DUELLOST@ DB 'POINT_KILL_DUELLOST', 00H ; `string'
CONST	ENDS
;	COMDAT ??_C@_0BF@IKAAIKND@POINT_MONSTER_KILLED@
CONST	SEGMENT
??_C@_0BF@IKAAIKND@POINT_MONSTER_KILLED@ DB 'POINT_MONSTER_KILLED', 00H ; `string'
CONST	ENDS
;	COMDAT ??_C@_0BI@LNGEGINL@POINT_ALL_PLAYER_KILLED@
CONST	SEGMENT
??_C@_0BI@LNGEGINL@POINT_ALL_PLAYER_KILLED@ DB 'POINT_ALL_PLAYER_KILLED', 00H ; `string'
CONST	ENDS
;	COMDAT ??_C@_0BD@CPMCNAMN@POINT_KILL_DUELWON@
CONST	SEGMENT
??_C@_0BD@CPMCNAMN@POINT_KILL_DUELWON@ DB 'POINT_KILL_DUELWON', 00H ; `string'
CONST	ENDS
;	COMDAT ??_C@_0BL@DJJNJMIM@POINT_YELLOW_PLAYER_KILLED@
CONST	SEGMENT
??_C@_0BL@DJJNJMIM@POINT_YELLOW_PLAYER_KILLED@ DB 'POINT_YELLOW_PLAYER_KI'
	DB	'LLED', 00H					; `string'
CONST	ENDS
;	COMDAT ??_C@_0BI@GLOEPCDD@POINT_RED_PLAYER_KILLED@
CONST	SEGMENT
??_C@_0BI@GLOEPCDD@POINT_RED_PLAYER_KILLED@ DB 'POINT_RED_PLAYER_KILLED', 00H ; `string'
CONST	ENDS
;	COMDAT ??_C@_0CA@GCEIFJNM@QUICK_SLOT_CAN_NOT_USE_PET_ITEM@
CONST	SEGMENT
??_C@_0CA@GCEIFJNM@QUICK_SLOT_CAN_NOT_USE_PET_ITEM@ DB 'QUICK_SLOT_CAN_NO'
	DB	'T_USE_PET_ITEM', 00H			; `string'
CONST	ENDS
;	COMDAT ??_C@_0BJ@MEMDNOBC@POINT_BLUE_PLAYER_KILLED@
CONST	SEGMENT
??_C@_0BJ@MEMDNOBC@POINT_BLUE_PLAYER_KILLED@ DB 'POINT_BLUE_PLAYER_KILLED'
	DB	00H						; `string'
CONST	ENDS
;	COMDAT ??_C@_0CA@OOHPPNPK@QUICK_SLOT_PET_ITEM_USE_SUCCESS@
CONST	SEGMENT
??_C@_0CA@OOHPPNPK@QUICK_SLOT_PET_ITEM_USE_SUCCESS@ DB 'QUICK_SLOT_PET_IT'
	DB	'EM_USE_SUCCESS', 00H			; `string'
CONST	ENDS
;	COMDAT ??_C@_0BP@DJAPKJMJ@QUICK_SLOT_PET_ITEM_USE_FAILED@
CONST	SEGMENT
??_C@_0BP@DJAPKJMJ@QUICK_SLOT_PET_ITEM_USE_FAILED@ DB 'QUICK_SLOT_PET_ITE'
	DB	'M_USE_FAILED', 00H				; `string'
CONST	ENDS
;	COMDAT ??_C@_0BM@CGLKDAAA@QUICK_SLOT_ITEM_USE_SUCCESS@
CONST	SEGMENT
??_C@_0BM@CGLKDAAA@QUICK_SLOT_ITEM_USE_SUCCESS@ DB 'QUICK_SLOT_ITEM_USE_S'
	DB	'UCCESS', 00H				; `string'
CONST	ENDS
;	COMDAT ??_C@_0BH@JPEBDBOE@QUICK_SLOT_IS_NOT_ITEM@
CONST	SEGMENT
??_C@_0BH@JPEBDBOE@QUICK_SLOT_IS_NOT_ITEM@ DB 'QUICK_SLOT_IS_NOT_ITEM', 00H ; `string'
CONST	ENDS
;	COMDAT ??_C@_0BF@EGOKNPMG@PET_ATTR_CHANGE_ITEM@
CONST	SEGMENT
??_C@_0BF@EGOKNPMG@PET_ATTR_CHANGE_ITEM@ DB 'PET_ATTR_CHANGE_ITEM', 00H ; `string'
CONST	ENDS
;	COMDAT ??_C@_0BF@IOMDMJJH@QUICK_SLOT_POS_ERROR@
CONST	SEGMENT
??_C@_0BF@IOMDMJJH@QUICK_SLOT_POS_ERROR@ DB 'QUICK_SLOT_POS_ERROR', 00H ; `string'
CONST	ENDS
;	COMDAT ??_C@_0BN@FIDDPHID@PET_WND_SLOT_ATTR_CHANGE_MAX@
CONST	SEGMENT
??_C@_0BN@FIDDPHID@PET_WND_SLOT_ATTR_CHANGE_MAX@ DB 'PET_WND_SLOT_ATTR_CH'
	DB	'ANGE_MAX', 00H				; `string'
CONST	ENDS
;	COMDAT ??_C@_0BI@NPPIBKMK@PET_ATTR_DETERMINE_ITEM@
CONST	SEGMENT
??_C@_0BI@NPPIBKMK@PET_ATTR_DETERMINE_ITEM@ DB 'PET_ATTR_DETERMINE_ITEM', 00H ; `string'
CONST	ENDS
;	COMDAT ??_C@_0BO@LHIHOBGL@PET_WND_SLOT_ATTR_CHANGE_ITEM@
CONST	SEGMENT
??_C@_0BO@LHIHOBGL@PET_WND_SLOT_ATTR_CHANGE_ITEM@ DB 'PET_WND_SLOT_ATTR_C'
	DB	'HANGE_ITEM', 00H				; `string'
CONST	ENDS
;	COMDAT ??_C@_0CA@CBANDPKJ@PET_WND_SLOT_ATTR_CHANGE_RESULT@
CONST	SEGMENT
??_C@_0CA@CBANDPKJ@PET_WND_SLOT_ATTR_CHANGE_RESULT@ DB 'PET_WND_SLOT_ATTR'
	DB	'_CHANGE_RESULT', 00H			; `string'
CONST	ENDS
;	COMDAT ??_C@_0BN@GJGLGIPO@PET_WINDOW_PRIMIUM_FEEDSTUFF@
CONST	SEGMENT
??_C@_0BN@GJGLGIPO@PET_WINDOW_PRIMIUM_FEEDSTUFF@ DB 'PET_WINDOW_PRIMIUM_F'
	DB	'EEDSTUFF', 00H				; `string'
CONST	ENDS
;	COMDAT ??_C@_0BJ@NBIJKGHG@PET_WND_SLOT_ATTR_CHANGE@
CONST	SEGMENT
??_C@_0BJ@NBIJKGHG@PET_WND_SLOT_ATTR_CHANGE@ DB 'PET_WND_SLOT_ATTR_CHANGE'
	DB	00H						; `string'
CONST	ENDS
;	COMDAT ??_C@_0BA@BCBOOENP@PET_WINDOW_INFO@
CONST	SEGMENT
??_C@_0BA@BCBOOENP@PET_WINDOW_INFO@ DB 'PET_WINDOW_INFO', 00H ; `string'
CONST	ENDS
;	COMDAT ??_C@_0BH@DNHCPKPA@PET_WINDOW_ATTR_CHANGE@
CONST	SEGMENT
??_C@_0BH@DNHCPKPA@PET_WINDOW_ATTR_CHANGE@ DB 'PET_WINDOW_ATTR_CHANGE', 00H ; `string'
CONST	ENDS
;	COMDAT ??_C@_0BA@DIFILJDH@FEED_EVOL_EVENT@
CONST	SEGMENT
??_C@_0BA@DIFILJDH@FEED_EVOL_EVENT@ DB 'FEED_EVOL_EVENT', 00H ; `string'
CONST	ENDS
;	COMDAT ??_C@_0BA@BJMLMPCH@FEED_BUTTON_MAX@
CONST	SEGMENT
??_C@_0BA@BJMLMPCH@FEED_BUTTON_MAX@ DB 'FEED_BUTTON_MAX', 00H ; `string'
CONST	ENDS
;	COMDAT ??_C@_0BF@FPKOBLCK@FEED_LIFE_TIME_EVENT@
CONST	SEGMENT
??_C@_0BF@FPKOBLCK@FEED_LIFE_TIME_EVENT@ DB 'FEED_LIFE_TIME_EVENT', 00H ; `string'
CONST	ENDS
;	COMDAT ??_C@_0P@KMMLDJON@FEED_EXP_EVENT@
CONST	SEGMENT
??_C@_0P@KMMLDJON@FEED_EXP_EVENT@ DB 'FEED_EXP_EVENT', 00H ; `string'
CONST	ENDS
;	COMDAT ??_C@_0BJ@JJGKAJLE@LIFE_TIME_FLASH_MIN_TIME@
CONST	SEGMENT
??_C@_0BJ@JJGKAJLE@LIFE_TIME_FLASH_MIN_TIME@ DB 'LIFE_TIME_FLASH_MIN_TIME'
	DB	00H						; `string'
CONST	ENDS
;	COMDAT ??_C@_0BF@OGHAJJKA@SPECIAL_EVOL_MIN_AGE@
CONST	SEGMENT
??_C@_0BF@OGHAJJKA@SPECIAL_EVOL_MIN_AGE@ DB 'SPECIAL_EVOL_MIN_AGE', 00H ; `string'
CONST	ENDS
;	COMDAT ??_C@_0BN@BPMCNOMH@PET_REVIVE_MATERIAL_SLOT_MAX@
CONST	SEGMENT
??_C@_0BN@BPMCNOMH@PET_REVIVE_MATERIAL_SLOT_MAX@ DB 'PET_REVIVE_MATERIAL_'
	DB	'SLOT_MAX', 00H				; `string'
CONST	ENDS
;	COMDAT ??_C@_0BE@JMKAEJNF@PET_SKILL_COUNT_MAX@
CONST	SEGMENT
??_C@_0BE@JMKAEJNF@PET_SKILL_COUNT_MAX@ DB 'PET_SKILL_COUNT_MAX', 00H ; `string'
CONST	ENDS
;	COMDAT ??_C@_0BL@EIFGHGIE@PET_GROWTH_SKILL_LEVEL_MAX@
CONST	SEGMENT
??_C@_0BL@EIFGHGIE@PET_GROWTH_SKILL_LEVEL_MAX@ DB 'PET_GROWTH_SKILL_LEVEL'
	DB	'_MAX', 00H					; `string'
CONST	ENDS
;	COMDAT ??_C@_0CB@OBCGFKLG@PET_GROWTH_SKILL_OPEN_EVOL_LEVE@
CONST	SEGMENT
??_C@_0CB@OBCGFKLG@PET_GROWTH_SKILL_OPEN_EVOL_LEVE@ DB 'PET_GROWTH_SKILL_'
	DB	'OPEN_EVOL_LEVEL', 00H			; `string'
CONST	ENDS
;	COMDAT ??_C@_0BC@DMHKNCHI@PET_FEED_SLOT_MAX@
CONST	SEGMENT
??_C@_0BC@DMHKNCHI@PET_FEED_SLOT_MAX@ DB 'PET_FEED_SLOT_MAX', 00H ; `string'
CONST	ENDS
;	COMDAT ??_C@_0BE@NFLCMMDA@PET_GROWTH_EVOL_MAX@
CONST	SEGMENT
??_C@_0BE@NFLCMMDA@PET_GROWTH_EVOL_MAX@ DB 'PET_GROWTH_EVOL_MAX', 00H ; `string'
CONST	ENDS
;	COMDAT ??_C@_0CA@CIFBLEK@ITEM_VALUE_AURA_BOOST_UNLIMITED@
CONST	SEGMENT
??_C@_0CA@CIFBLEK@ITEM_VALUE_AURA_BOOST_UNLIMITED@ DB 'ITEM_VALUE_AURA_BO'
	DB	'OST_UNLIMITED', 00H				; `string'
CONST	ENDS
;	COMDAT ??_C@_08LJKGNBOE@PET_FEED@
CONST	SEGMENT
??_C@_08LJKGNBOE@PET_FEED@ DB 'PET_FEED', 00H		; `string'
CONST	ENDS
;	COMDAT ??_C@_0BO@MPFCFKKC@ITEM_VALUE_AURA_BOOST_PERCENT@
CONST	SEGMENT
??_C@_0BO@MPFCFKKC@ITEM_VALUE_AURA_BOOST_PERCENT@ DB 'ITEM_VALUE_AURA_BOO'
	DB	'ST_PERCENT', 00H				; `string'
CONST	ENDS
;	COMDAT ??_C@_0BL@BAPFGKOD@ITEM_VALUE_AURA_BOOST_TIME@
CONST	SEGMENT
??_C@_0BL@BAPFGKOD@ITEM_VALUE_AURA_BOOST_TIME@ DB 'ITEM_VALUE_AURA_BOOST_'
	DB	'TIME', 00H					; `string'
CONST	ENDS
;	COMDAT ??_C@_0BH@LAHGBIBJ@ITEM_SOCKET_AURA_BOOST@
CONST	SEGMENT
??_C@_0BH@LAHGBIBJ@ITEM_SOCKET_AURA_BOOST@ DB 'ITEM_SOCKET_AURA_BOOST', 00H ; `string'
CONST	ENDS
;	COMDAT ??_C@_0BN@NPMDAJNF@ITEM_VALUE_AURA_MATERIAL_EXP@
CONST	SEGMENT
??_C@_0BN@NPMDAJNF@ITEM_VALUE_AURA_MATERIAL_EXP@ DB 'ITEM_VALUE_AURA_MATE'
	DB	'RIAL_EXP', 00H				; `string'
CONST	ENDS
;	COMDAT ??_C@_0CB@DCOODGCM@ITEM_SOCKET_AURA_DRAIN_ITEM_VNU@
CONST	SEGMENT
??_C@_0CB@DCOODGCM@ITEM_SOCKET_AURA_DRAIN_ITEM_VNU@ DB 'ITEM_SOCKET_AURA_'
	DB	'DRAIN_ITEM_VNUM', 00H			; `string'
CONST	ENDS
;	COMDAT ??_C@_0BP@EMKIFIGK@ITEM_SOCKET_AURA_CURRENT_LEVEL@
CONST	SEGMENT
??_C@_0BP@EMKIFIGK@ITEM_SOCKET_AURA_CURRENT_LEVEL@ DB 'ITEM_SOCKET_AURA_C'
	DB	'URRENT_LEVEL', 00H				; `string'
CONST	ENDS
;	COMDAT ??_C@_0BL@ICCNHPG@AURA_REFINE_INFO_NEED_GOLD@
CONST	SEGMENT
??_C@_0BL@ICCNHPG@AURA_REFINE_INFO_NEED_GOLD@ DB 'AURA_REFINE_INFO_NEED_G'
	DB	'OLD', 00H					; `string'
CONST	ENDS
;	COMDAT ??_C@_0BM@IEECEMNC@AURA_REFINE_INFO_EVOLVE_PCT@
CONST	SEGMENT
??_C@_0BM@IEECEMNC@AURA_REFINE_INFO_EVOLVE_PCT@ DB 'AURA_REFINE_INFO_EVOL'
	DB	'VE_PCT', 00H				; `string'
CONST	ENDS
;	COMDAT ??_C@_0BP@MKNGONPM@AURA_REFINE_INFO_MATERIAL_VNUM@
CONST	SEGMENT
??_C@_0BP@MKNGONPM@AURA_REFINE_INFO_MATERIAL_VNUM@ DB 'AURA_REFINE_INFO_M'
	DB	'ATERIAL_VNUM', 00H				; `string'
CONST	ENDS
;	COMDAT ??_C@_0CA@GCLPEEL@AURA_REFINE_INFO_MATERIAL_COUNT@
CONST	SEGMENT
??_C@_0CA@GCLPEEL@AURA_REFINE_INFO_MATERIAL_COUNT@ DB 'AURA_REFINE_INFO_M'
	DB	'ATERIAL_COUNT', 00H				; `string'
CONST	ENDS
;	COMDAT ??_C@_0BL@MJOAJAEE@AURA_REFINE_INFO_LEVEL_MAX@
CONST	SEGMENT
??_C@_0BL@MJOAJAEE@AURA_REFINE_INFO_LEVEL_MAX@ DB 'AURA_REFINE_INFO_LEVEL'
	DB	'_MAX', 00H					; `string'
CONST	ENDS
;	COMDAT ??_C@_0BK@GLEMHOOH@AURA_REFINE_INFO_NEED_EXP@
CONST	SEGMENT
??_C@_0BK@GLEMHOOH@AURA_REFINE_INFO_NEED_EXP@ DB 'AURA_REFINE_INFO_NEED_E'
	DB	'XP', 00H					; `string'
CONST	ENDS
;	COMDAT ??_C@_0BG@LFHCGDMM@AURA_REFINE_INFO_STEP@
CONST	SEGMENT
??_C@_0BG@LFHCGDMM@AURA_REFINE_INFO_STEP@ DB 'AURA_REFINE_INFO_STEP', 00H ; `string'
CONST	ENDS
;	COMDAT ??_C@_0BL@NLGLHECL@AURA_REFINE_INFO_LEVEL_MIN@
CONST	SEGMENT
??_C@_0BL@NLGLHECL@AURA_REFINE_INFO_LEVEL_MIN@ DB 'AURA_REFINE_INFO_LEVEL'
	DB	'_MIN', 00H					; `string'
CONST	ENDS
;	COMDAT ??_C@_0BL@LDIPHABL@AURA_REFINE_INFO_SLOT_NEXT@
CONST	SEGMENT
??_C@_0BL@LDIPHABL@AURA_REFINE_INFO_SLOT_NEXT@ DB 'AURA_REFINE_INFO_SLOT_'
	DB	'NEXT', 00H					; `string'
CONST	ENDS
;	COMDAT ??_C@_0BO@LHGEKFE@AURA_REFINE_INFO_SLOT_EVOLVED@
CONST	SEGMENT
??_C@_0BO@LHGEKFE@AURA_REFINE_INFO_SLOT_EVOLVED@ DB 'AURA_REFINE_INFO_SLO'
	DB	'T_EVOLVED', 00H				; `string'
CONST	ENDS
;	COMDAT ??_C@_0BF@DEACKNDL@AURA_WINDOW_TYPE_MAX@
CONST	SEGMENT
??_C@_0BF@DEACKNDL@AURA_WINDOW_TYPE_MAX@ DB 'AURA_WINDOW_TYPE_MAX', 00H ; `string'
CONST	ENDS
;	COMDAT ??_C@_0BO@JIFCGECJ@AURA_REFINE_INFO_SLOT_CURRENT@
CONST	SEGMENT
??_C@_0BO@JIFCGECJ@AURA_REFINE_INFO_SLOT_CURRENT@ DB 'AURA_REFINE_INFO_SL'
	DB	'OT_CURRENT', 00H				; `string'
CONST	ENDS
;	COMDAT ??_C@_0BI@CLKELJFO@AURA_WINDOW_TYPE_GROWTH@
CONST	SEGMENT
??_C@_0BI@CLKELJFO@AURA_WINDOW_TYPE_GROWTH@ DB 'AURA_WINDOW_TYPE_GROWTH', 00H ; `string'
CONST	ENDS
;	COMDAT ??_C@_0BI@BGJIJANM@AURA_WINDOW_TYPE_EVOLVE@
CONST	SEGMENT
??_C@_0BI@BGJIJANM@AURA_WINDOW_TYPE_EVOLVE@ DB 'AURA_WINDOW_TYPE_EVOLVE', 00H ; `string'
CONST	ENDS
;	COMDAT ??_C@_0O@KJHIMGJF@AURA_SLOT_MAX@
CONST	SEGMENT
??_C@_0O@KJHIMGJF@AURA_SLOT_MAX@ DB 'AURA_SLOT_MAX', 00H ; `string'
CONST	ENDS
;	COMDAT ??_C@_0BI@IFHNBPDE@AURA_WINDOW_TYPE_ABSORB@
CONST	SEGMENT
??_C@_0BI@IFHNBPDE@AURA_WINDOW_TYPE_ABSORB@ DB 'AURA_WINDOW_TYPE_ABSORB', 00H ; `string'
CONST	ENDS
;	COMDAT ??_C@_0O@LCLMBHEO@AURA_SLOT_SUB@
CONST	SEGMENT
??_C@_0O@LCLMBHEO@AURA_SLOT_SUB@ DB 'AURA_SLOT_SUB', 00H ; `string'
CONST	ENDS
;	COMDAT ??_C@_0BB@BOPFHPDA@AURA_SLOT_RESULT@
CONST	SEGMENT
??_C@_0BB@BOPFHPDA@AURA_SLOT_RESULT@ DB 'AURA_SLOT_RESULT', 00H ; `string'
CONST	ENDS
;	COMDAT ??_C@_0P@MFDEBDB@AURA_MAX_LEVEL@
CONST	SEGMENT
??_C@_0P@MFDEBDB@AURA_MAX_LEVEL@ DB 'AURA_MAX_LEVEL', 00H ; `string'
CONST	ENDS
;	COMDAT ??_C@_0P@PDNCLEMB@AURA_SLOT_MAIN@
CONST	SEGMENT
??_C@_0P@PDNCLEMB@AURA_SLOT_MAIN@ DB 'AURA_SLOT_MAIN', 00H ; `string'
CONST	ENDS
;	COMDAT ??_C@_0P@FNJLNAFG@SLOT_TYPE_AURA@
CONST	SEGMENT
??_C@_0P@FNJLNAFG@SLOT_TYPE_AURA@ DB 'SLOT_TYPE_AURA', 00H ; `string'
CONST	ENDS
;	COMDAT ??_C@_0M@PDHBNBKH@AURA_REFINE@
CONST	SEGMENT
??_C@_0M@PDHBNBKH@AURA_REFINE@ DB 'AURA_REFINE', 00H	; `string'
CONST	ENDS
;	COMDAT ??_C@_0CB@NFMKANIJ@ON_TOP_WND_PET_PRIMIUM_FEEDSTUF@
CONST	SEGMENT
??_C@_0CB@NFMKANIJ@ON_TOP_WND_PET_PRIMIUM_FEEDSTUF@ DB 'ON_TOP_WND_PET_PR'
	DB	'IMIUM_FEEDSTUFF', 00H			; `string'
CONST	ENDS
;	COMDAT ??_C@_0BN@ELAPKHPA@REFINE_CANT_REFINE_AURA_ITEM@
CONST	SEGMENT
??_C@_0BN@ELAPKHPA@REFINE_CANT_REFINE_AURA_ITEM@ DB 'REFINE_CANT_REFINE_A'
	DB	'URA_ITEM', 00H				; `string'
CONST	ENDS
;	COMDAT ??_C@_0BH@NNPMEGBL@ON_TOP_WND_ACCE_ABSORB@
CONST	SEGMENT
??_C@_0BH@NNPMEGBL@ON_TOP_WND_ACCE_ABSORB@ DB 'ON_TOP_WND_ACCE_ABSORB', 00H ; `string'
CONST	ENDS
;	COMDAT ??_C@_0BL@KJLPEENL@ON_TOP_WND_PET_ATTR_CHANGE@
CONST	SEGMENT
??_C@_0BL@KJLPEENL@ON_TOP_WND_PET_ATTR_CHANGE@ DB 'ON_TOP_WND_PET_ATTR_CH'
	DB	'ANGE', 00H					; `string'
CONST	ENDS
;	COMDAT ??_C@_0BE@EHJBMPOO@ON_TOP_WND_PET_FEED@
CONST	SEGMENT
??_C@_0BE@EHJBMPOO@ON_TOP_WND_PET_FEED@ DB 'ON_TOP_WND_PET_FEED', 00H ; `string'
CONST	ENDS
;	COMDAT ??_C@_0BI@GLAKGGPH@ON_TOP_WND_ACCE_COMBINE@
CONST	SEGMENT
??_C@_0BI@GLAKGGPH@ON_TOP_WND_ACCE_COMBINE@ DB 'ON_TOP_WND_ACCE_COMBINE', 00H ; `string'
CONST	ENDS
;	COMDAT ??_C@_0BI@JAEJNCCP@ON_TOP_WND_PRIVATE_SHOP@
CONST	SEGMENT
??_C@_0BI@JAEJNCCP@ON_TOP_WND_PRIVATE_SHOP@ DB 'ON_TOP_WND_PRIVATE_SHOP', 00H ; `string'
CONST	ENDS
;	COMDAT ??_C@_0BF@GOBPEOGN@ON_TOP_WND_ITEM_COMB@
CONST	SEGMENT
??_C@_0BF@GOBPEOGN@ON_TOP_WND_ITEM_COMB@ DB 'ON_TOP_WND_ITEM_COMB', 00H ; `string'
CONST	ENDS
;	COMDAT ??_C@_0BE@IFGMMCHH@ON_TOP_WND_EXCHANGE@
CONST	SEGMENT
??_C@_0BE@IFGMMCHH@ON_TOP_WND_EXCHANGE@ DB 'ON_TOP_WND_EXCHANGE', 00H ; `string'
CONST	ENDS
;	COMDAT ??_C@_0BD@DBKGGFLJ@ON_TOP_WND_SAFEBOX@
CONST	SEGMENT
??_C@_0BD@DBKGGFLJ@ON_TOP_WND_SAFEBOX@ DB 'ON_TOP_WND_SAFEBOX', 00H ; `string'
CONST	ENDS
;	COMDAT ??_C@_0BA@OKKEOOGP@ON_TOP_WND_NONE@
CONST	SEGMENT
??_C@_0BA@OKKEOOGP@ON_TOP_WND_NONE@ DB 'ON_TOP_WND_NONE', 00H ; `string'
CONST	ENDS
;	COMDAT ??_C@_0BA@NJHEAJMG@ON_TOP_WND_SHOP@
CONST	SEGMENT
??_C@_0BA@NJHEAJMG@ON_TOP_WND_SHOP@ DB 'ON_TOP_WND_SHOP', 00H ; `string'
CONST	ENDS
;	COMDAT ??_C@_0BL@MNIINOMA@AUTOMATIC_PICK_UP_ACTIVATE@
CONST	SEGMENT
??_C@_0BL@MNIINOMA@AUTOMATIC_PICK_UP_ACTIVATE@ DB 'AUTOMATIC_PICK_UP_ACTI'
	DB	'VATE', 00H					; `string'
CONST	ENDS
;	COMDAT ??_C@_0BA@DMHIDAHJ@HORSE_MAX_LEVEL@
CONST	SEGMENT
??_C@_0BA@DMHIDAHJ@HORSE_MAX_LEVEL@ DB 'HORSE_MAX_LEVEL', 00H ; `string'
CONST	ENDS
;	COMDAT ??_C@_0BA@LFMGHCBJ@REVIVE_TYPE_MAX@
CONST	SEGMENT
??_C@_0BA@LFMGHCBJ@REVIVE_TYPE_MAX@ DB 'REVIVE_TYPE_MAX', 00H ; `string'
CONST	ENDS
;	COMDAT ??_C@_05BANMFAOM@COINS@
CONST	SEGMENT
??_C@_05BANMFAOM@COINS@ DB 'COINS', 00H			; `string'
CONST	ENDS
;	COMDAT ??_C@_0BB@IMFHMJME@REVIVE_TYPE_TOWN@
CONST	SEGMENT
??_C@_0BB@IMFHMJME@REVIVE_TYPE_TOWN@ DB 'REVIVE_TYPE_TOWN', 00H ; `string'
CONST	ENDS
;	COMDAT ??_C@_0BG@MNLBEPAN@REVIVE_TYPE_AUTO_TOWN@
CONST	SEGMENT
??_C@_0BG@MNLBEPAN@REVIVE_TYPE_AUTO_TOWN@ DB 'REVIVE_TYPE_AUTO_TOWN', 00H ; `string'
CONST	ENDS
;	COMDAT ??_C@_0BI@NHBOLMGK@DS_SUB_HEADER_DO_REFINE@
CONST	SEGMENT
??_C@_0BI@NHBOLMGK@DS_SUB_HEADER_DO_REFINE@ DB 'DS_SUB_HEADER_DO_REFINE', 00H ; `string'
CONST	ENDS
;	COMDAT ??_C@_0BB@KDMFEIAD@REVIVE_TYPE_HERE@
CONST	SEGMENT
??_C@_0BB@KDMFEIAD@REVIVE_TYPE_HERE@ DB 'REVIVE_TYPE_HERE', 00H ; `string'
CONST	ENDS
;	COMDAT ??_C@_0BJ@JKFAJIJN@DS_SUB_HEADER_DO_UPGRADE@
CONST	SEGMENT
??_C@_0BJ@JKFAJIJN@DS_SUB_HEADER_DO_UPGRADE@ DB 'DS_SUB_HEADER_DO_UPGRADE'
	DB	00H						; `string'
CONST	ENDS
;	COMDAT ??_C@_0BN@PCPINHKH@DS_SUB_HEADER_DO_IMPROVEMENT@
CONST	SEGMENT
??_C@_0BN@PCPINHKH@DS_SUB_HEADER_DO_IMPROVEMENT@ DB 'DS_SUB_HEADER_DO_IMP'
	DB	'ROVEMENT', 00H				; `string'
CONST	ENDS
;	COMDAT ??_C@_0CB@OIFHBJMG@DRAGON_SOUL_EQUIPMENT_FIRST_SIZ@
CONST	SEGMENT
??_C@_0CB@OIFHBJMG@DRAGON_SOUL_EQUIPMENT_FIRST_SIZ@ DB 'DRAGON_SOUL_EQUIP'
	DB	'MENT_FIRST_SIZE', 00H			; `string'
CONST	ENDS
;	COMDAT ??_C@_0BJ@MMGGGOHJ@DRAGON_SOUL_REFINE_CLOSE@
CONST	SEGMENT
??_C@_0BJ@MMGGGOHJ@DRAGON_SOUL_REFINE_CLOSE@ DB 'DRAGON_SOUL_REFINE_CLOSE'
	DB	00H						; `string'
CONST	ENDS
;	COMDAT ??_C@_0CB@NJAOAEOC@DRAGON_SOUL_EQUIPMENT_SLOT_STAR@
CONST	SEGMENT
??_C@_0CB@NJAOAEOC@DRAGON_SOUL_EQUIPMENT_SLOT_STAR@ DB 'DRAGON_SOUL_EQUIP'
	DB	'MENT_SLOT_START', 00H			; `string'
CONST	ENDS
;	COMDAT ??_C@_0CB@GAHKEECK@DRAGON_SOUL_EQUIPMENT_PAGE_COUN@
CONST	SEGMENT
??_C@_0CB@GAHKEECK@DRAGON_SOUL_EQUIPMENT_PAGE_COUN@ DB 'DRAGON_SOUL_EQUIP'
	DB	'MENT_PAGE_COUNT', 00H			; `string'
CONST	ENDS
;	COMDAT ??_C@_0BH@OCCNKKPP@DRAGON_SOUL_PAGE_COUNT@
CONST	SEGMENT
??_C@_0BH@OCCNKKPP@DRAGON_SOUL_PAGE_COUNT@ DB 'DRAGON_SOUL_PAGE_COUNT', 00H ; `string'
CONST	ENDS
;	COMDAT ??_C@_0BH@IFPINEOD@DRAGON_SOUL_SLOT_COUNT@
CONST	SEGMENT
??_C@_0BH@IFPINEOD@DRAGON_SOUL_SLOT_COUNT@ DB 'DRAGON_SOUL_SLOT_COUNT', 00H ; `string'
CONST	ENDS
;	COMDAT ??_C@_0BE@KLHCNIEK@AUTO_POTION_TYPE_SP@
CONST	SEGMENT
??_C@_0BE@KLHCNIEK@AUTO_POTION_TYPE_SP@ DB 'AUTO_POTION_TYPE_SP', 00H ; `string'
CONST	ENDS
;	COMDAT ??_C@_0BG@FEPFCIIM@DRAGON_SOUL_PAGE_SIZE@
CONST	SEGMENT
??_C@_0BG@FEPFCIIM@DRAGON_SOUL_PAGE_SIZE@ DB 'DRAGON_SOUL_PAGE_SIZE', 00H ; `string'
CONST	ENDS
;	COMDAT ??_C@_0N@FFINPOG@EMOTION_SLAP@
CONST	SEGMENT
??_C@_0N@FFINPOG@EMOTION_SLAP@ DB 'EMOTION_SLAP', 00H	; `string'
CONST	ENDS
;	COMDAT ??_C@_0BE@LLABJENL@AUTO_POTION_TYPE_HP@
CONST	SEGMENT
??_C@_0BE@LLABJENL@AUTO_POTION_TYPE_HP@ DB 'AUTO_POTION_TYPE_HP', 00H ; `string'
CONST	ENDS
;	COMDAT ??_C@_0N@FGJJNHEK@EMOTION_KISS@
CONST	SEGMENT
??_C@_0N@FGJJNHEK@EMOTION_KISS@ DB 'EMOTION_KISS', 00H	; `string'
CONST	ENDS
;	COMDAT ??_C@_0BE@KCAKKBPE@EMOTION_FRENCH_KISS@
CONST	SEGMENT
??_C@_0BE@KCAKKBPE@EMOTION_FRENCH_KISS@ DB 'EMOTION_FRENCH_KISS', 00H ; `string'
CONST	ENDS
;	COMDAT ??_C@_0P@JAJBGKKI@EMOTION_BANTER@
CONST	SEGMENT
??_C@_0P@JAJBGKKI@EMOTION_BANTER@ DB 'EMOTION_BANTER', 00H ; `string'
CONST	ENDS
;	COMDAT ??_C@_0M@JOKPJKCG@EMOTION_JOY@
CONST	SEGMENT
??_C@_0M@JOKPJKCG@EMOTION_JOY@ DB 'EMOTION_JOY', 00H	; `string'
CONST	ENDS
;	COMDAT ??_C@_0M@LGPBJELG@EMOTION_SHY@
CONST	SEGMENT
??_C@_0M@LGPBJELG@EMOTION_SHY@ DB 'EMOTION_SHY', 00H	; `string'
CONST	ENDS
;	COMDAT ??_C@_0BA@MENCJFPL@EMOTION_CHEERUP@
CONST	SEGMENT
??_C@_0BA@MENCJFPL@EMOTION_CHEERUP@ DB 'EMOTION_CHEERUP', 00H ; `string'
CONST	ENDS
;	COMDAT ??_C@_0BD@FLNIBF@EMOTION_ATTRACTIVE@
CONST	SEGMENT
??_C@_0BD@FLNIBF@EMOTION_ATTRACTIVE@ DB 'EMOTION_ATTRACTIVE', 00H ; `string'
CONST	ENDS
;	COMDAT ??_C@_0M@EGEMMDCF@EMOTION_SAD@
CONST	SEGMENT
??_C@_0M@EGEMMDCF@EMOTION_SAD@ DB 'EMOTION_SAD', 00H	; `string'
CONST	ENDS
;	COMDAT ??_C@_0BA@JPGNEMIB@EMOTION_FORGIVE@
CONST	SEGMENT
??_C@_0BA@JPGNEMIB@EMOTION_FORGIVE@ DB 'EMOTION_FORGIVE', 00H ; `string'
CONST	ENDS
;	COMDAT ??_C@_0O@DACEICMN@EMOTION_ANGRY@
CONST	SEGMENT
??_C@_0O@DACEICMN@EMOTION_ANGRY@ DB 'EMOTION_ANGRY', 00H ; `string'
CONST	ENDS
;	COMDAT ??_C@_0BD@IFFKDDKN@EMOTION_EMOTION_20@
CONST	SEGMENT
??_C@_0BD@IFFKDDKN@EMOTION_EMOTION_20@ DB 'EMOTION_EMOTION_20', 00H ; `string'
CONST	ENDS
;	COMDAT ??_C@_0BD@JMEBACOM@EMOTION_EMOTION_21@
CONST	SEGMENT
??_C@_0BD@JMEBACOM@EMOTION_EMOTION_21@ DB 'EMOTION_EMOTION_21', 00H ; `string'
CONST	ENDS
;	COMDAT ??_C@_0BD@EPMFAHPM@EMOTION_EMOTION_18@
CONST	SEGMENT
??_C@_0BD@EPMFAHPM@EMOTION_EMOTION_18@ DB 'EMOTION_EMOTION_18', 00H ; `string'
CONST	ENDS
;	COMDAT ??_C@_0BD@FGNODGLN@EMOTION_EMOTION_19@
CONST	SEGMENT
??_C@_0BD@FGNODGLN@EMOTION_EMOTION_19@ DB 'EMOTION_EMOTION_19', 00H ; `string'
CONST	ENDS
;	COMDAT ??_C@_0BD@NBEGCKHC@EMOTION_EMOTION_16@
CONST	SEGMENT
??_C@_0BD@NBEGCKHC@EMOTION_EMOTION_16@ DB 'EMOTION_EMOTION_16', 00H ; `string'
CONST	ENDS
;	COMDAT ??_C@_0BD@MIFNBLDD@EMOTION_EMOTION_17@
CONST	SEGMENT
??_C@_0BD@MIFNBLDD@EMOTION_EMOTION_17@ DB 'EMOTION_EMOTION_17', 00H ; `string'
CONST	ENDS
;	COMDAT ??_C@_0BD@ODHAEIPA@EMOTION_EMOTION_14@
CONST	SEGMENT
??_C@_0BD@ODHAEIPA@EMOTION_EMOTION_14@ DB 'EMOTION_EMOTION_14', 00H ; `string'
CONST	ENDS
;	COMDAT ??_C@_0BD@PKGLHJLB@EMOTION_EMOTION_15@
CONST	SEGMENT
??_C@_0BD@PKGLHJLB@EMOTION_EMOTION_15@ DB 'EMOTION_EMOTION_15', 00H ; `string'
CONST	ENDS
;	COMDAT ??_C@_0BD@LFCKOPHG@EMOTION_EMOTION_12@
CONST	SEGMENT
??_C@_0BD@LFCKOPHG@EMOTION_EMOTION_12@ DB 'EMOTION_EMOTION_12', 00H ; `string'
CONST	ENDS
;	COMDAT ??_C@_0BD@KMDBNODH@EMOTION_EMOTION_13@
CONST	SEGMENT
??_C@_0BD@KMDBNODH@EMOTION_EMOTION_13@ DB 'EMOTION_EMOTION_13', 00H ; `string'
CONST	ENDS
;	COMDAT ??_C@_0BD@IHBMINPE@EMOTION_EMOTION_10@
CONST	SEGMENT
??_C@_0BD@IHBMINPE@EMOTION_EMOTION_10@ DB 'EMOTION_EMOTION_10', 00H ; `string'
CONST	ENDS
;	COMDAT ??_C@_0BD@JOAHLMLF@EMOTION_EMOTION_11@
CONST	SEGMENT
??_C@_0BD@JOAHLMLF@EMOTION_EMOTION_11@ DB 'EMOTION_EMOTION_11', 00H ; `string'
CONST	ENDS
;	COMDAT ??_C@_0BC@ODDFKNHE@EMOTION_EMOTION_8@
CONST	SEGMENT
??_C@_0BC@ODDFKNHE@EMOTION_EMOTION_8@ DB 'EMOTION_EMOTION_8', 00H ; `string'
CONST	ENDS
;	COMDAT ??_C@_0BC@PKCOJMDF@EMOTION_EMOTION_9@
CONST	SEGMENT
??_C@_0BC@PKCOJMDF@EMOTION_EMOTION_9@ DB 'EMOTION_EMOTION_9', 00H ; `string'
CONST	ENDS
;	COMDAT ??_C@_0BC@HNLGIAPK@EMOTION_EMOTION_6@
CONST	SEGMENT
??_C@_0BC@HNLGIAPK@EMOTION_EMOTION_6@ DB 'EMOTION_EMOTION_6', 00H ; `string'
CONST	ENDS
;	COMDAT ??_C@_0BC@GEKNLBLL@EMOTION_EMOTION_7@
CONST	SEGMENT
??_C@_0BC@GEKNLBLL@EMOTION_EMOTION_7@ DB 'EMOTION_EMOTION_7', 00H ; `string'
CONST	ENDS
;	COMDAT ??_C@_0BC@EPIAOCHI@EMOTION_EMOTION_4@
CONST	SEGMENT
??_C@_0BC@EPIAOCHI@EMOTION_EMOTION_4@ DB 'EMOTION_EMOTION_4', 00H ; `string'
CONST	ENDS
;	COMDAT ??_C@_0BC@FGJLNDDJ@EMOTION_EMOTION_5@
CONST	SEGMENT
??_C@_0BC@FGJLNDDJ@EMOTION_EMOTION_5@ DB 'EMOTION_EMOTION_5', 00H ; `string'
CONST	ENDS
;	COMDAT ??_C@_0BC@BJNKEFPO@EMOTION_EMOTION_2@
CONST	SEGMENT
??_C@_0BC@BJNKEFPO@EMOTION_EMOTION_2@ DB 'EMOTION_EMOTION_2', 00H ; `string'
CONST	ENDS
;	COMDAT ??_C@_0BC@MBHELP@EMOTION_EMOTION_3@
CONST	SEGMENT
??_C@_0BC@MBHELP@EMOTION_EMOTION_3@ DB 'EMOTION_EMOTION_3', 00H ; `string'
CONST	ENDS
;	COMDAT ??_C@_0P@FEDINNCE@EMOTION_PUSHUP@
CONST	SEGMENT
??_C@_0P@FEDINNCE@EMOTION_PUSHUP@ DB 'EMOTION_PUSHUP', 00H ; `string'
CONST	ENDS
;	COMDAT ??_C@_0BC@DCPHBGDN@EMOTION_EMOTION_1@
CONST	SEGMENT
??_C@_0BC@DCPHBGDN@EMOTION_EMOTION_1@ DB 'EMOTION_EMOTION_1', 00H ; `string'
CONST	ENDS
;	COMDAT ??_C@_0N@OCOLJBBP@EMOTION_DOZE@
CONST	SEGMENT
??_C@_0N@OCOLJBBP@EMOTION_DOZE@ DB 'EMOTION_DOZE', 00H	; `string'
CONST	ENDS
;	COMDAT ??_C@_0BB@PDNONAIP@EMOTION_EXERCISE@
CONST	SEGMENT
??_C@_0BB@PDNONAIP@EMOTION_EXERCISE@ DB 'EMOTION_EXERCISE', 00H ; `string'
CONST	ENDS
;	COMDAT ??_C@_0P@EGOAAOEC@EMOTION_SELFIE@
CONST	SEGMENT
??_C@_0P@EGOAAOEC@EMOTION_SELFIE@ DB 'EMOTION_SELFIE', 00H ; `string'
CONST	ENDS
;	COMDAT ??_C@_0BA@FEONMLMC@EMOTION_DANCE_7@
CONST	SEGMENT
??_C@_0BA@FEONMLMC@EMOTION_DANCE_7@ DB 'EMOTION_DANCE_7', 00H ; `string'
CONST	ENDS
;	COMDAT ??_C@_0BA@ENPGPKID@EMOTION_DANCE_6@
CONST	SEGMENT
??_C@_0BA@ENPGPKID@EMOTION_DANCE_6@ DB 'EMOTION_DANCE_6', 00H ; `string'
CONST	ENDS
;	COMDAT ??_C@_0BH@FIIEKKHF@EMOTION_CONGRATULATION@
CONST	SEGMENT
??_C@_0BH@FIIEKKHF@EMOTION_CONGRATULATION@ DB 'EMOTION_CONGRATULATION', 00H ; `string'
CONST	ENDS
;	COMDAT ??_C@_0BA@HPMAJIAB@EMOTION_DANCE_4@
CONST	SEGMENT
??_C@_0BA@HPMAJIAB@EMOTION_DANCE_4@ DB 'EMOTION_DANCE_4', 00H ; `string'
CONST	ENDS
;	COMDAT ??_C@_0BA@GGNLKJEA@EMOTION_DANCE_5@
CONST	SEGMENT
??_C@_0BA@GGNLKJEA@EMOTION_DANCE_5@ DB 'EMOTION_DANCE_5', 00H ; `string'
CONST	ENDS
;	COMDAT ??_C@_0BA@CJJKDPIH@EMOTION_DANCE_2@
CONST	SEGMENT
??_C@_0BA@CJJKDPIH@EMOTION_DANCE_2@ DB 'EMOTION_DANCE_2', 00H ; `string'
CONST	ENDS
;	COMDAT ??_C@_0BA@DAIBAOMG@EMOTION_DANCE_3@
CONST	SEGMENT
??_C@_0BA@DAIBAOMG@EMOTION_DANCE_3@ DB 'EMOTION_DANCE_3', 00H ; `string'
CONST	ENDS
;	COMDAT ??_C@_0BB@OJOMLFJB@EMOTION_CHEERS_2@
CONST	SEGMENT
??_C@_0BB@OJOMLFJB@EMOTION_CHEERS_2@ DB 'EMOTION_CHEERS_2', 00H ; `string'
CONST	ENDS
;	COMDAT ??_C@_0BA@CLHGMEE@EMOTION_DANCE_1@
CONST	SEGMENT
??_C@_0BA@CLHGMEE@EMOTION_DANCE_1@ DB 'EMOTION_DANCE_1', 00H ; `string'
CONST	ENDS
;	COMDAT ??_C@_0N@GFLIEIGE@EMOTION_CLAP@
CONST	SEGMENT
??_C@_0N@GFLIEIGE@EMOTION_CLAP@ DB 'EMOTION_CLAP', 00H	; `string'
CONST	ENDS
;	COMDAT ??_C@_0BB@MCMBOGFC@EMOTION_CHEERS_1@
CONST	SEGMENT
??_C@_0BB@MCMBOGFC@EMOTION_CHEERS_1@ DB 'EMOTION_CHEERS_1', 00H ; `string'
CONST	ENDS
;	COMDAT ??_C@_0BL@OELLICOI@PARTY_EXP_NON_DISTRIBUTION@
CONST	SEGMENT
??_C@_0BL@OELLICOI@PARTY_EXP_NON_DISTRIBUTION@ DB 'PARTY_EXP_NON_DISTRIBU'
	DB	'TION', 00H					; `string'
CONST	ENDS
;	COMDAT ??_C@_0BO@CBJBDFJC@PARTY_EXP_DISTRIBUTION_PARITY@
CONST	SEGMENT
??_C@_0BO@CBJBDFJC@PARTY_EXP_DISTRIBUTION_PARITY@ DB 'PARTY_EXP_DISTRIBUT'
	DB	'ION_PARITY', 00H				; `string'
CONST	ENDS
;	COMDAT ??_C@_0BE@NDGMABKO@BLOCK_PARTY_REQUEST@
CONST	SEGMENT
??_C@_0BE@NDGMABKO@BLOCK_PARTY_REQUEST@ DB 'BLOCK_PARTY_REQUEST', 00H ; `string'
CONST	ENDS
;	COMDAT ??_C@_0BD@ICDJFAGE@BLOCK_WARP_REQUEST@
CONST	SEGMENT
??_C@_0BD@ICDJFAGE@BLOCK_WARP_REQUEST@ DB 'BLOCK_WARP_REQUEST', 00H ; `string'
CONST	ENDS
;	COMDAT ??_C@_0O@CFHKOIIK@BLOCK_WHISPER@
CONST	SEGMENT
??_C@_0O@CFHKOIIK@BLOCK_WHISPER@ DB 'BLOCK_WHISPER', 00H ; `string'
CONST	ENDS
;	COMDAT ??_C@_0N@IJGKBLJF@BLOCK_FRIEND@
CONST	SEGMENT
??_C@_0N@IJGKBLJF@BLOCK_FRIEND@ DB 'BLOCK_FRIEND', 00H	; `string'
CONST	ENDS
;	COMDAT ??_C@_0M@KFDBGBIL@BLOCK_PARTY@
CONST	SEGMENT
??_C@_0M@KFDBGBIL@BLOCK_PARTY@ DB 'BLOCK_PARTY', 00H	; `string'
CONST	ENDS
;	COMDAT ??_C@_0M@EEMDCMKA@BLOCK_GUILD@
CONST	SEGMENT
??_C@_0M@EEMDCMKA@BLOCK_GUILD@ DB 'BLOCK_GUILD', 00H	; `string'
CONST	ENDS
;	COMDAT ??_C@_0BA@OLCDKGDA@PK_MODE_MAX_NUM@
CONST	SEGMENT
??_C@_0BA@OLCDKGDA@PK_MODE_MAX_NUM@ DB 'PK_MODE_MAX_NUM', 00H ; `string'
CONST	ENDS
;	COMDAT ??_C@_0P@CDMGAFPE@BLOCK_EXCHANGE@
CONST	SEGMENT
??_C@_0P@CDMGAFPE@BLOCK_EXCHANGE@ DB 'BLOCK_EXCHANGE', 00H ; `string'
CONST	ENDS
;	COMDAT ??_C@_0BA@GHACPGHA@PK_MODE_PROTECT@
CONST	SEGMENT
??_C@_0BA@GHACPGHA@PK_MODE_PROTECT@ DB 'PK_MODE_PROTECT', 00H ; `string'
CONST	ENDS
;	COMDAT ??_C@_0O@LBDADKLE@PK_MODE_GUILD@
CONST	SEGMENT
??_C@_0O@LBDADKLE@PK_MODE_GUILD@ DB 'PK_MODE_GUILD', 00H ; `string'
CONST	ENDS
;	COMDAT ??_C@_0BA@HNNGLCOB@PK_MODE_REVENGE@
CONST	SEGMENT
??_C@_0BA@HNNGLCOB@PK_MODE_REVENGE@ DB 'PK_MODE_REVENGE', 00H ; `string'
CONST	ENDS
;	COMDAT ??_C@_0N@DCANEGJG@PK_MODE_FREE@
CONST	SEGMENT
??_C@_0N@DCANEGJG@PK_MODE_FREE@ DB 'PK_MODE_FREE', 00H	; `string'
CONST	ENDS
;	COMDAT ??_C@_0BD@POBHIINM@SKILL_INDEX_SUMMON@
CONST	SEGMENT
??_C@_0BD@POBHIINM@SKILL_INDEX_SUMMON@ DB 'SKILL_INDEX_SUMMON', 00H ; `string'
CONST	ENDS
;	COMDAT ??_C@_0O@BIPAMBIG@PK_MODE_PEACE@
CONST	SEGMENT
??_C@_0O@BIPAMBIG@PK_MODE_PEACE@ DB 'PK_MODE_PEACE', 00H ; `string'
CONST	ENDS
;	COMDAT ??_C@_0BG@DMEIDEKO@SKILL_INDEX_POLYMORPH@
CONST	SEGMENT
??_C@_0BG@DMEIDEKO@SKILL_INDEX_POLYMORPH@ DB 'SKILL_INDEX_POLYMORPH', 00H ; `string'
CONST	ENDS
;	COMDAT ??_C@_0BD@HOAGGFNA@SKILL_INDEX_RIDING@
CONST	SEGMENT
??_C@_0BD@HOAGGFNA@SKILL_INDEX_RIDING@ DB 'SKILL_INDEX_RIDING', 00H ; `string'
CONST	ENDS
;	COMDAT ??_C@_0BG@EEJDAHGJ@SKILL_INDEX_LANGUAGE2@
CONST	SEGMENT
??_C@_0BG@EEJDAHGJ@SKILL_INDEX_LANGUAGE2@ DB 'SKILL_INDEX_LANGUAGE2', 00H ; `string'
CONST	ENDS
;	COMDAT ??_C@_0BG@FNIIDGCI@SKILL_INDEX_LANGUAGE3@
CONST	SEGMENT
??_C@_0BG@FNIIDGCI@SKILL_INDEX_LANGUAGE3@ DB 'SKILL_INDEX_LANGUAGE3', 00H ; `string'
CONST	ENDS
;	COMDAT ??_C@_0BC@HACNAMIK@SKILL_INDEX_COMBO@
CONST	SEGMENT
??_C@_0BC@HACNAMIK@SKILL_INDEX_COMBO@ DB 'SKILL_INDEX_COMBO', 00H ; `string'
CONST	ENDS
;	COMDAT ??_C@_0BG@GPLOFEKK@SKILL_INDEX_LANGUAGE1@
CONST	SEGMENT
??_C@_0BG@GPLOFEKK@SKILL_INDEX_LANGUAGE1@ DB 'SKILL_INDEX_LANGUAGE1', 00H ; `string'
CONST	ENDS
;	COMDAT ??_C@_0BD@KFCAJBFG@SKILL_INDEX_MINING@
CONST	SEGMENT
??_C@_0BD@KFCAJBFG@SKILL_INDEX_MINING@ DB 'SKILL_INDEX_MINING', 00H ; `string'
CONST	ENDS
;	COMDAT ??_C@_0BD@IBJDJMEL@SKILL_INDEX_MAKING@
CONST	SEGMENT
??_C@_0BD@IBJDJMEL@SKILL_INDEX_MAKING@ DB 'SKILL_INDEX_MAKING', 00H ; `string'
CONST	ENDS
;	COMDAT ??_C@_0BE@MNBFKLPI@SKILL_INDEX_TONGSOL@
CONST	SEGMENT
??_C@_0BE@MNBFKLPI@SKILL_INDEX_TONGSOL@ DB 'SKILL_INDEX_TONGSOL', 00H ; `string'
CONST	ENDS
;	COMDAT ??_C@_0BE@HANBCKAH@SKILL_INDEX_FISHING@
CONST	SEGMENT
??_C@_0BE@HANBCKAH@SKILL_INDEX_FISHING@ DB 'SKILL_INDEX_FISHING', 00H ; `string'
CONST	ENDS
;	COMDAT ??_C@_0BF@PAKJEMH@PARTY_STATE_DEFENDER@
CONST	SEGMENT
??_C@_0BF@PAKJEMH@PARTY_STATE_DEFENDER@ DB 'PARTY_STATE_DEFENDER', 00H ; `string'
CONST	ENDS
;	COMDAT ??_C@_0BE@KCLJFDCO@PARTY_STATE_MAX_NUM@
CONST	SEGMENT
??_C@_0BE@KCLJFDCO@PARTY_STATE_MAX_NUM@ DB 'PARTY_STATE_MAX_NUM', 00H ; `string'
CONST	ENDS
;	COMDAT ??_C@_0BJ@EIPCPJKC@PARTY_STATE_SKILL_MASTER@
CONST	SEGMENT
??_C@_0BJ@EIPCPJKC@PARTY_STATE_SKILL_MASTER@ DB 'PARTY_STATE_SKILL_MASTER'
	DB	00H						; `string'
CONST	ENDS
;	COMDAT ??_C@_0BG@LCNEBE@PARTY_STATE_BERSERKER@
CONST	SEGMENT
??_C@_0BG@LCNEBE@PARTY_STATE_BERSERKER@ DB 'PARTY_STATE_BERSERKER', 00H ; `string'
CONST	ENDS
;	COMDAT ??_C@_0BD@FHMGGDNP@PARTY_STATE_TANKER@
CONST	SEGMENT
??_C@_0BD@FHMGGDNP@PARTY_STATE_TANKER@ DB 'PARTY_STATE_TANKER', 00H ; `string'
CONST	ENDS
;	COMDAT ??_C@_0BD@JJFBJLK@PARTY_STATE_BUFFER@
CONST	SEGMENT
??_C@_0BD@JJFBJLK@PARTY_STATE_BUFFER@ DB 'PARTY_STATE_BUFFER', 00H ; `string'
CONST	ENDS
;	COMDAT ??_C@_0BD@ECFFHEOH@PARTY_STATE_LEADER@
CONST	SEGMENT
??_C@_0BD@ECFFHEOH@PARTY_STATE_LEADER@ DB 'PARTY_STATE_LEADER', 00H ; `string'
CONST	ENDS
;	COMDAT ??_C@_0BF@DOKPPLCL@PARTY_STATE_ATTACKER@
CONST	SEGMENT
??_C@_0BF@DOKPPLCL@PARTY_STATE_ATTACKER@ DB 'PARTY_STATE_ATTACKER', 00H ; `string'
CONST	ENDS
;	COMDAT ??_C@_0BA@IACJJMNA@DETACH_METIN_OK@
CONST	SEGMENT
??_C@_0BA@IACJJMNA@DETACH_METIN_OK@ DB 'DETACH_METIN_OK', 00H ; `string'
CONST	ENDS
;	COMDAT ??_C@_0BD@PNFBHDHD@PARTY_STATE_NORMAL@
CONST	SEGMENT
??_C@_0BD@PNFBHDHD@PARTY_STATE_NORMAL@ DB 'PARTY_STATE_NORMAL', 00H ; `string'
CONST	ENDS
;	COMDAT ??_C@_0CG@BCIFDNEM@ATTACH_METIN_CANT_ATTACH_TO_EQU@
CONST	SEGMENT
??_C@_0CG@BCIFDNEM@ATTACH_METIN_CANT_ATTACH_TO_EQU@ DB 'ATTACH_METIN_CANT'
	DB	'_ATTACH_TO_EQUIPMENT', 00H			; `string'
CONST	ENDS
;	COMDAT ??_C@_0BC@HGBPKPKG@DETACH_METIN_CANT@
CONST	SEGMENT
??_C@_0BC@HGBPKPKG@DETACH_METIN_CANT@ DB 'DETACH_METIN_CANT', 00H ; `string'
CONST	ENDS
;	COMDAT ??_C@_0CB@MAILDNNI@ATTACH_METIN_NO_MATCHABLE_SOCKE@
CONST	SEGMENT
??_C@_0CB@MAILDNNI@ATTACH_METIN_NO_MATCHABLE_SOCKE@ DB 'ATTACH_METIN_NO_M'
	DB	'ATCHABLE_SOCKET', 00H			; `string'
CONST	ENDS
;	COMDAT ??_C@_0CD@JNOPKOFJ@ATTACH_METIN_NOT_EXIST_GOLD_SOC@
CONST	SEGMENT
??_C@_0CD@JNOPKOFJ@ATTACH_METIN_NOT_EXIST_GOLD_SOC@ DB 'ATTACH_METIN_NOT_'
	DB	'EXIST_GOLD_SOCKET', 00H			; `string'
CONST	ENDS
;	COMDAT ??_C@_0BA@HOJAFGB@ATTACH_METIN_OK@
CONST	SEGMENT
??_C@_0BA@HOJAFGB@ATTACH_METIN_OK@ DB 'ATTACH_METIN_OK', 00H ; `string'
CONST	ENDS
;	COMDAT ??_C@_0CA@OFAKGLFM@ATTACH_METIN_NOT_MATCHABLE_ITEM@
CONST	SEGMENT
??_C@_0CA@OFAKGLFM@ATTACH_METIN_NOT_MATCHABLE_ITEM@ DB 'ATTACH_METIN_NOT_'
	DB	'MATCHABLE_ITEM', 00H			; `string'
CONST	ENDS
;	COMDAT ??_C@_0BH@OENPPLJB@REFINE_CANT_REFINE_ROD@
CONST	SEGMENT
??_C@_0BH@OENPPLJB@REFINE_CANT_REFINE_ROD@ DB 'REFINE_CANT_REFINE_ROD', 00H ; `string'
CONST	ENDS
;	COMDAT ??_C@_0BC@CBCJMHP@ATTACH_METIN_CANT@
CONST	SEGMENT
??_C@_0BC@CBCJMHP@ATTACH_METIN_CANT@ DB 'ATTACH_METIN_CANT', 00H ; `string'
CONST	ENDS
;	COMDAT ??_C@_0BL@EILCCEPE@REFINE_NOT_NEXT_GRADE_ITEM@
CONST	SEGMENT
??_C@_0BL@EILCCEPE@REFINE_NOT_NEXT_GRADE_ITEM@ DB 'REFINE_NOT_NEXT_GRADE_'
	DB	'ITEM', 00H					; `string'
CONST	ENDS
;	COMDAT ??_C@_0CG@LFLLDFCE@REFINE_CANT_REFINE_METIN_TO_EQU@
CONST	SEGMENT
??_C@_0CG@LFLLDFCE@REFINE_CANT_REFINE_METIN_TO_EQU@ DB 'REFINE_CANT_REFIN'
	DB	'E_METIN_TO_EQUIPMENT', 00H			; `string'
CONST	ENDS
;	COMDAT ??_C@_0BN@FMBLMMOD@REFINE_NEED_MORE_GOOD_SCROLL@
CONST	SEGMENT
??_C@_0BN@FMBLMMOD@REFINE_NEED_MORE_GOOD_SCROLL@ DB 'REFINE_NEED_MORE_GOO'
	DB	'D_SCROLL', 00H				; `string'
CONST	ENDS
;	COMDAT ??_C@_0BN@JPDLJDPD@REFINE_CANT_MAKE_SOCKET_ITEM@
CONST	SEGMENT
??_C@_0BN@JPDLJDPD@REFINE_CANT_MAKE_SOCKET_ITEM@ DB 'REFINE_CANT_MAKE_SOC'
	DB	'KET_ITEM', 00H				; `string'
CONST	ENDS
;	COMDAT ??_C@_09FFJEIDJG@REFINE_OK@
CONST	SEGMENT
??_C@_09FFJEIDJG@REFINE_OK@ DB 'REFINE_OK', 00H		; `string'
CONST	ENDS
;	COMDAT ??_C@_0CA@CPLGFHBD@REFINE_ALREADY_MAX_SOCKET_COUNT@
CONST	SEGMENT
??_C@_0CA@CPLGFHBD@REFINE_ALREADY_MAX_SOCKET_COUNT@ DB 'REFINE_ALREADY_MA'
	DB	'X_SOCKET_COUNT', 00H			; `string'
CONST	ENDS
;	COMDAT ??_C@_0BK@MOFNOJPN@COSTUME_ATTRIBUTE_MAX_NUM@
CONST	SEGMENT
??_C@_0BK@MOFNOJPN@COSTUME_ATTRIBUTE_MAX_NUM@ DB 'COSTUME_ATTRIBUTE_MAX_N'
	DB	'UM', 00H					; `string'
CONST	ENDS
;	COMDAT ??_C@_0M@FNDEJPGN@REFINE_CANT@
CONST	SEGMENT
??_C@_0M@FNDEJPGN@REFINE_CANT@ DB 'REFINE_CANT', 00H	; `string'
CONST	ENDS
;	COMDAT ??_C@_0BI@LMPJICAN@ATTRIBUTE_SLOT_RARE_END@
CONST	SEGMENT
??_C@_0BI@LMPJICAN@ATTRIBUTE_SLOT_RARE_END@ DB 'ATTRIBUTE_SLOT_RARE_END', 00H ; `string'
CONST	ENDS
;	COMDAT ??_C@_0BH@BPEONNLD@ATTRIBUTE_SLOT_MAX_NUM@
CONST	SEGMENT
??_C@_0BH@BPEONNLD@ATTRIBUTE_SLOT_MAX_NUM@ DB 'ATTRIBUTE_SLOT_MAX_NUM', 00H ; `string'
CONST	ENDS
;	COMDAT ??_C@_0BI@PNEKDDH@ATTRIBUTE_SLOT_NORM_END@
CONST	SEGMENT
??_C@_0BI@PNEKDDH@ATTRIBUTE_SLOT_NORM_END@ DB 'ATTRIBUTE_SLOT_NORM_END', 00H ; `string'
CONST	ENDS
;	COMDAT ??_C@_0BK@MPPGNMKB@ATTRIBUTE_SLOT_RARE_START@
CONST	SEGMENT
??_C@_0BK@MPPGNMKB@ATTRIBUTE_SLOT_RARE_START@ DB 'ATTRIBUTE_SLOT_RARE_STA'
	DB	'RT', 00H					; `string'
CONST	ENDS
;	COMDAT ??_C@_0BI@KKEJPCNE@ATTRIBUTE_SLOT_RARE_NUM@
CONST	SEGMENT
??_C@_0BI@KKEJPCNE@ATTRIBUTE_SLOT_RARE_NUM@ DB 'ATTRIBUTE_SLOT_RARE_NUM', 00H ; `string'
CONST	ENDS
;	COMDAT ??_C@_0BK@KGDGKBKL@ATTRIBUTE_SLOT_NORM_START@
CONST	SEGMENT
??_C@_0BK@KGDGKBKL@ATTRIBUTE_SLOT_NORM_START@ DB 'ATTRIBUTE_SLOT_NORM_STA'
	DB	'RT', 00H					; `string'
CONST	ENDS
;	COMDAT ??_C@_0BF@HOKBLOCN@METIN_SOCKET_MAX_NUM@
CONST	SEGMENT
??_C@_0BF@HOKBLOCN@METIN_SOCKET_MAX_NUM@ DB 'METIN_SOCKET_MAX_NUM', 00H ; `string'
CONST	ENDS
;	COMDAT ??_C@_0BI@BJGENDOO@ATTRIBUTE_SLOT_NORM_NUM@
CONST	SEGMENT
??_C@_0BI@BJGENDOO@ATTRIBUTE_SLOT_NORM_NUM@ DB 'ATTRIBUTE_SLOT_NORM_NUM', 00H ; `string'
CONST	ENDS
;	COMDAT ??_C@_0BJ@PHGNNMMA@METIN_SOCKET_TYPE_SILVER@
CONST	SEGMENT
??_C@_0BJ@PHGNNMMA@METIN_SOCKET_TYPE_SILVER@ DB 'METIN_SOCKET_TYPE_SILVER'
	DB	00H						; `string'
CONST	ENDS
;	COMDAT ??_C@_0BH@EFCNALEJ@METIN_SOCKET_TYPE_GOLD@
CONST	SEGMENT
??_C@_0BH@EFCNALEJ@METIN_SOCKET_TYPE_GOLD@ DB 'METIN_SOCKET_TYPE_GOLD', 00H ; `string'
CONST	ENDS
;	COMDAT ??_C@_0M@CHLINENA@EFFECT_PICK@
CONST	SEGMENT
??_C@_0M@CHLINENA@EFFECT_PICK@ DB 'EFFECT_PICK', 00H	; `string'
CONST	ENDS
;	COMDAT ??_C@_0BH@FCKCIMBH@METIN_SOCKET_TYPE_NONE@
CONST	SEGMENT
??_C@_0BH@FCKCIMBH@METIN_SOCKET_TYPE_NONE@ DB 'METIN_SOCKET_TYPE_NONE', 00H ; `string'
CONST	ENDS
;	COMDAT ??_C@_0L@HFAEBHHD@ITEM_MONEY@
CONST	SEGMENT
??_C@_0L@HFAEBHHD@ITEM_MONEY@ DB 'ITEM_MONEY', 00H	; `string'
CONST	ENDS
;	COMDAT ??_C@_0BB@IOEKBHAE@SKILL_SLOT_COUNT@
CONST	SEGMENT
??_C@_0BB@IOEKBHAE@SKILL_SLOT_COUNT@ DB 'SKILL_SLOT_COUNT', 00H ; `string'
CONST	ENDS
;	COMDAT ??_C@_0BJ@LHJDGDBJ@TRANSMUTATION_TYPE_MOUNT@
CONST	SEGMENT
??_C@_0BJ@LHJDGDBJ@TRANSMUTATION_TYPE_MOUNT@ DB 'TRANSMUTATION_TYPE_MOUNT'
	DB	00H						; `string'
CONST	ENDS
;	COMDAT ??_C@_0BI@HKKDBHO@TRANSMUTATION_TYPE_ITEM@
CONST	SEGMENT
??_C@_0BI@HKKDBHO@TRANSMUTATION_TYPE_ITEM@ DB 'TRANSMUTATION_TYPE_ITEM', 00H ; `string'
CONST	ENDS
;	COMDAT ??_C@_0BG@KJHPGJKN@SLOT_TYPE_CHANGE_LOOK@
CONST	SEGMENT
??_C@_0BG@KJHPGJKN@SLOT_TYPE_CHANGE_LOOK@ DB 'SLOT_TYPE_CHANGE_LOOK', 00H ; `string'
CONST	ENDS
;	COMDAT ??_C@_0BA@POJPOEAE@ITEM_SLOT_COUNT@
CONST	SEGMENT
??_C@_0BA@POJPOEAE@ITEM_SLOT_COUNT@ DB 'ITEM_SLOT_COUNT', 00H ; `string'
CONST	ENDS
;	COMDAT ??_C@_09MMGODLEO@SWITCHBOT@
CONST	SEGMENT
??_C@_09MMGODLEO@SWITCHBOT@ DB 'SWITCHBOT', 00H		; `string'
CONST	ENDS
;	COMDAT ??_C@_0BE@DINLJOM@SLOT_TYPE_SWITCHBOT@
CONST	SEGMENT
??_C@_0BE@DINLJOM@SLOT_TYPE_SWITCHBOT@ DB 'SLOT_TYPE_SWITCHBOT', 00H ; `string'
CONST	ENDS
;	COMDAT ??_C@_0P@LCDFMNHG@BELT_INVENTORY@
CONST	SEGMENT
??_C@_0P@LCDFMNHG@BELT_INVENTORY@ DB 'BELT_INVENTORY', 00H ; `string'
CONST	ENDS
;	COMDAT ??_C@_06GKBINIEJ@GROUND@
CONST	SEGMENT
??_C@_06GKBINIEJ@GROUND@ DB 'GROUND', 00H		; `string'
CONST	ENDS
;	COMDAT ??_C@_04JPFKNPOP@MALL@
CONST	SEGMENT
??_C@_04JPFKNPOP@MALL@ DB 'MALL', 00H			; `string'
CONST	ENDS
;	COMDAT ??_C@_0BG@FHEDCCNN@DRAGON_SOUL_INVENTORY@
CONST	SEGMENT
??_C@_0BG@FHEDCCNN@DRAGON_SOUL_INVENTORY@ DB 'DRAGON_SOUL_INVENTORY', 00H ; `string'
CONST	ENDS
;	COMDAT ??_C@_09GJGOMHMK@EQUIPMENT@
CONST	SEGMENT
??_C@_09GJGOMHMK@EQUIPMENT@ DB 'EQUIPMENT', 00H		; `string'
CONST	ENDS
;	COMDAT ??_C@_07NCKDBJCB@SAFEBOX@
CONST	SEGMENT
??_C@_07NCKDBJCB@SAFEBOX@ DB 'SAFEBOX', 00H		; `string'
CONST	ENDS
;	COMDAT ??_C@_0BA@NKAFFIGF@RESERVED_WINDOW@
CONST	SEGMENT
??_C@_0BA@NKAFFIGF@RESERVED_WINDOW@ DB 'RESERVED_WINDOW', 00H ; `string'
CONST	ENDS
;	COMDAT ??_C@_09NCAHJFFG@INVENTORY@
CONST	SEGMENT
??_C@_09NCAHJFFG@INVENTORY@ DB 'INVENTORY', 00H		; `string'
CONST	ENDS
;	COMDAT ??_C@_0BN@HAJHAAOF@SLOT_TYPE_GIFT_BOX_INVENTORY@
CONST	SEGMENT
??_C@_0BN@HAJHAAOF@SLOT_TYPE_GIFT_BOX_INVENTORY@ DB 'SLOT_TYPE_GIFT_BOX_I'
	DB	'NVENTORY', 00H				; `string'
CONST	ENDS
;	COMDAT ??_C@_0BN@CIDENILN@SLOT_TYPE_CHANGERS_INVENTORY@
CONST	SEGMENT
??_C@_0BN@CIDENILN@SLOT_TYPE_CHANGERS_INVENTORY@ DB 'SLOT_TYPE_CHANGERS_I'
	DB	'NVENTORY', 00H				; `string'
CONST	ENDS
;	COMDAT ??_C@_0CC@PPMGELGN@SLOT_TYPE_UPGRADE_ITEMS_INVENTO@
CONST	SEGMENT
??_C@_0CC@PPMGELGN@SLOT_TYPE_UPGRADE_ITEMS_INVENTO@ DB 'SLOT_TYPE_UPGRADE'
	DB	'_ITEMS_INVENTORY', 00H			; `string'
CONST	ENDS
;	COMDAT ??_C@_0BK@OKEJBABA@SLOT_TYPE_STONE_INVENTORY@
CONST	SEGMENT
??_C@_0BK@OKEJBABA@SLOT_TYPE_STONE_INVENTORY@ DB 'SLOT_TYPE_STONE_INVENTO'
	DB	'RY', 00H					; `string'
CONST	ENDS
;	COMDAT ??_C@_0BJ@BIEENKEI@SLOT_TYPE_BELT_INVENTORY@
CONST	SEGMENT
??_C@_0BJ@BIEENKEI@SLOT_TYPE_BELT_INVENTORY@ DB 'SLOT_TYPE_BELT_INVENTORY'
	DB	00H						; `string'
CONST	ENDS
;	COMDAT ??_C@_0BP@KGAMMBDG@SLOT_TYPE_SKILL_BOOK_INVENTORY@
CONST	SEGMENT
??_C@_0BP@KGAMMBDG@SLOT_TYPE_SKILL_BOOK_INVENTORY@ DB 'SLOT_TYPE_SKILL_BO'
	DB	'OK_INVENTORY', 00H				; `string'
CONST	ENDS
;	COMDAT ??_C@_0BC@LKMHLHKJ@SLOT_TYPE_EMOTION@
CONST	SEGMENT
??_C@_0BC@LKMHLHKJ@SLOT_TYPE_EMOTION@ DB 'SLOT_TYPE_EMOTION', 00H ; `string'
CONST	ENDS
;	COMDAT ??_C@_0CA@FHKIPOOP@SLOT_TYPE_DRAGON_SOUL_INVENTORY@
CONST	SEGMENT
??_C@_0CA@FHKIPOOP@SLOT_TYPE_DRAGON_SOUL_INVENTORY@ DB 'SLOT_TYPE_DRAGON_'
	DB	'SOUL_INVENTORY', 00H			; `string'
CONST	ENDS
;	COMDAT ??_C@_0BH@MJAEADNE@SLOT_TYPE_PRIVATE_SHOP@
CONST	SEGMENT
??_C@_0BH@MJAEADNE@SLOT_TYPE_PRIVATE_SHOP@ DB 'SLOT_TYPE_PRIVATE_SHOP', 00H ; `string'
CONST	ENDS
;	COMDAT ??_C@_0P@OEAGANKI@SLOT_TYPE_MALL@
CONST	SEGMENT
??_C@_0P@OEAGANKI@SLOT_TYPE_MALL@ DB 'SLOT_TYPE_MALL', 00H ; `string'
CONST	ENDS
;	COMDAT ??_C@_0BF@CPPFMLHN@SLOT_TYPE_QUICK_SLOT@
CONST	SEGMENT
??_C@_0BF@CPPFMLHN@SLOT_TYPE_QUICK_SLOT@ DB 'SLOT_TYPE_QUICK_SLOT', 00H ; `string'
CONST	ENDS
;	COMDAT ??_C@_0BC@HGKFDIFN@SLOT_TYPE_SAFEBOX@
CONST	SEGMENT
??_C@_0BC@HGKFDIFN@SLOT_TYPE_SAFEBOX@ DB 'SLOT_TYPE_SAFEBOX', 00H ; `string'
CONST	ENDS
;	COMDAT ??_C@_0BJ@DBNHPJKE@SLOT_TYPE_EXCHANGE_OWNER@
CONST	SEGMENT
??_C@_0BJ@DBNHPJKE@SLOT_TYPE_EXCHANGE_OWNER@ DB 'SLOT_TYPE_EXCHANGE_OWNER'
	DB	00H						; `string'
CONST	ENDS
;	COMDAT ??_C@_0BK@KJHLAGBH@SLOT_TYPE_EXCHANGE_TARGET@
CONST	SEGMENT
??_C@_0BK@KJHLAGBH@SLOT_TYPE_EXCHANGE_TARGET@ DB 'SLOT_TYPE_EXCHANGE_TARG'
	DB	'ET', 00H					; `string'
CONST	ENDS
;	COMDAT ??_C@_0BA@MAJHKGKG@SLOT_TYPE_SKILL@
CONST	SEGMENT
??_C@_0BA@MAJHKGKG@SLOT_TYPE_SKILL@ DB 'SLOT_TYPE_SKILL', 00H ; `string'
CONST	ENDS
;	COMDAT ??_C@_0P@KCOPIIMF@SLOT_TYPE_SHOP@
CONST	SEGMENT
??_C@_0P@KCOPIIMF@SLOT_TYPE_SHOP@ DB 'SLOT_TYPE_SHOP', 00H ; `string'
CONST	ENDS
;	COMDAT ??_C@_0P@JBDPGPGM@SLOT_TYPE_NONE@
CONST	SEGMENT
??_C@_0P@JBDPGPGM@SLOT_TYPE_NONE@ DB 'SLOT_TYPE_NONE', 00H ; `string'
CONST	ENDS
;	COMDAT ??_C@_0BE@BNOEBHPE@SLOT_TYPE_INVENTORY@
CONST	SEGMENT
??_C@_0BE@BNOEBHPE@SLOT_TYPE_INVENTORY@ DB 'SLOT_TYPE_INVENTORY', 00H ; `string'
CONST	ENDS
;	COMDAT ??_C@_09DBJMODBC@MBT_RIGHT@
CONST	SEGMENT
??_C@_09DBJMODBC@MBT_RIGHT@ DB 'MBT_RIGHT', 00H		; `string'
CONST	ENDS
;	COMDAT ??_C@_08OMNIMJHC@MBT_LEFT@
CONST	SEGMENT
??_C@_08OMNIMJHC@MBT_LEFT@ DB 'MBT_LEFT', 00H		; `string'
CONST	ENDS
;	COMDAT ??_C@_09JEJKPPEO@MBS_PRESS@
CONST	SEGMENT
??_C@_09JEJKPPEO@MBS_PRESS@ DB 'MBS_PRESS', 00H		; `string'
CONST	ENDS
;	COMDAT ??_C@_09BKODCCAJ@MBS_CLICK@
CONST	SEGMENT
??_C@_09BKODCCAJ@MBS_CLICK@ DB 'MBS_CLICK', 00H		; `string'
CONST	ENDS
;	COMDAT ??_C@_08BLLANCB@MBF_MOVE@
CONST	SEGMENT
??_C@_08BLLANCB@MBF_MOVE@ DB 'MBF_MOVE', 00H		; `string'
CONST	ENDS
;	COMDAT ??_C@_08CIEGLDP@MBF_AUTO@
CONST	SEGMENT
??_C@_08CIEGLDP@MBF_AUTO@ DB 'MBF_AUTO', 00H		; `string'
CONST	ENDS
;	COMDAT ??_C@_0L@JHBFAMB@MBF_CAMERA@
CONST	SEGMENT
??_C@_0L@JHBFAMB@MBF_CAMERA@ DB 'MBF_CAMERA', 00H	; `string'
CONST	ENDS
;	COMDAT ??_C@_09FAENJFL@MBF_SMART@
CONST	SEGMENT
??_C@_09FAENJFL@MBF_SMART@ DB 'MBF_SMART', 00H		; `string'
CONST	ENDS
;	COMDAT ??_C@_09NLFDBCDH@MBF_SKILL@
CONST	SEGMENT
??_C@_09NLFDBCDH@MBF_SKILL@ DB 'MBF_SKILL', 00H		; `string'
CONST	ENDS
;	COMDAT ??_C@_0L@MIGMJBKJ@MBF_ATTACK@
CONST	SEGMENT
??_C@_0L@MIGMJBKJ@MBF_ATTACK@ DB 'MBF_ATTACK', 00H	; `string'
CONST	ENDS
;	COMDAT ??_C@_0BO@KGEOCGGA@GIFT_BOX_INVENTORY_SLOT_COUNT@
CONST	SEGMENT
??_C@_0BO@KGEOCGGA@GIFT_BOX_INVENTORY_SLOT_COUNT@ DB 'GIFT_BOX_INVENTORY_'
	DB	'SLOT_COUNT', 00H				; `string'
CONST	ENDS
;	COMDAT ??_C@_0BO@HDBPIDOG@CHANGERS_INVENTORY_SLOT_COUNT@
CONST	SEGMENT
??_C@_0BO@HDBPIDOG@CHANGERS_INVENTORY_SLOT_COUNT@ DB 'CHANGERS_INVENTORY_'
	DB	'SLOT_COUNT', 00H				; `string'
CONST	ENDS
;	COMDAT ??_C@_0CD@PILBODE@UPGRADE_ITEMS_INVENTORY_SLOT_CO@
CONST	SEGMENT
??_C@_0CD@PILBODE@UPGRADE_ITEMS_INVENTORY_SLOT_CO@ DB 'UPGRADE_ITEMS_INVE'
	DB	'NTORY_SLOT_COUNT', 00H			; `string'
CONST	ENDS
;	COMDAT ??_C@_0BL@NOCNFKMC@STONE_INVENTORY_SLOT_COUNT@
CONST	SEGMENT
??_C@_0BL@NOCNFKMC@STONE_INVENTORY_SLOT_COUNT@ DB 'STONE_INVENTORY_SLOT_C'
	DB	'OUNT', 00H					; `string'
CONST	ENDS
;	COMDAT ??_C@_0BN@IDPOFDE@SPECIAL_INVENTORY_PAGE_COUNT@
CONST	SEGMENT
??_C@_0BN@IDPOFDE@SPECIAL_INVENTORY_PAGE_COUNT@ DB 'SPECIAL_INVENTORY_PAG'
	DB	'E_COUNT', 00H				; `string'
CONST	ENDS
;	COMDAT ??_C@_0CA@LILLGBFC@SKILL_BOOK_INVENTORY_SLOT_COUNT@
CONST	SEGMENT
??_C@_0CA@LILLGBFC@SKILL_BOOK_INVENTORY_SLOT_COUNT@ DB 'SKILL_BOOK_INVENT'
	DB	'ORY_SLOT_COUNT', 00H			; `string'
CONST	ENDS
;	COMDAT ??_C@_0BJ@PAALBJCN@NEW_EQUIPMENT_SLOT_COUNT@
CONST	SEGMENT
??_C@_0BJ@PAALBJCN@NEW_EQUIPMENT_SLOT_COUNT@ DB 'NEW_EQUIPMENT_SLOT_COUNT'
	DB	00H						; `string'
CONST	ENDS
;	COMDAT ??_C@_0BM@JDPNNKAI@SPECIAL_INVENTORY_PAGE_SIZE@
CONST	SEGMENT
??_C@_0BM@JDPNNKAI@SPECIAL_INVENTORY_PAGE_SIZE@ DB 'SPECIAL_INVENTORY_PAG'
	DB	'E_SIZE', 00H				; `string'
CONST	ENDS
;	COMDAT ??_C@_0BF@MADFLPAE@EQUIPMENT_PAGE_COUNT@
CONST	SEGMENT
??_C@_0BF@MADFLPAE@EQUIPMENT_PAGE_COUNT@ DB 'EQUIPMENT_PAGE_COUNT', 00H ; `string'
CONST	ENDS
;	COMDAT ??_C@_0BJ@COKKCHPJ@NEW_EQUIPMENT_SLOT_START@
CONST	SEGMENT
??_C@_0BJ@COKKCHPJ@NEW_EQUIPMENT_SLOT_START@ DB 'NEW_EQUIPMENT_SLOT_START'
	DB	00H						; `string'
CONST	ENDS
;	COMDAT ??_C@_0BF@LCFAAJPA@INVENTORY_SLOT_COUNT@
CONST	SEGMENT
??_C@_0BF@LCFAAJPA@INVENTORY_SLOT_COUNT@ DB 'INVENTORY_SLOT_COUNT', 00H ; `string'
CONST	ENDS
;	COMDAT ??_C@_0BF@HJEBPPMM@EQUIPMENT_SLOT_START@
CONST	SEGMENT
??_C@_0BF@HJEBPPMM@EQUIPMENT_SLOT_START@ DB 'EQUIPMENT_SLOT_START', 00H ; `string'
CONST	ENDS
;	COMDAT ??_C@_0BE@CEBDMLGH@INVENTORY_PAGE_SIZE@
CONST	SEGMENT
??_C@_0BE@CEBDMLGH@INVENTORY_PAGE_SIZE@ DB 'INVENTORY_PAGE_SIZE', 00H ; `string'
CONST	ENDS
;	COMDAT ??_C@_0BF@NFIFHHOM@INVENTORY_PAGE_COUNT@
CONST	SEGMENT
??_C@_0BF@NFIFHHOM@INVENTORY_PAGE_COUNT@ DB 'INVENTORY_PAGE_COUNT', 00H ; `string'
CONST	ENDS
;	COMDAT ??_C@_0BA@LCKKFCJM@CATEGORY_ACTIVE@
CONST	SEGMENT
??_C@_0BA@LCKKFCJM@CATEGORY_ACTIVE@ DB 'CATEGORY_ACTIVE', 00H ; `string'
CONST	ENDS
;	COMDAT ??_C@_0BB@HCMEALJK@CATEGORY_PASSIVE@
CONST	SEGMENT
??_C@_0BB@HCMEALJK@CATEGORY_PASSIVE@ DB 'CATEGORY_PASSIVE', 00H ; `string'
CONST	ENDS
;	COMDAT ??_C@_0BJ@CFOEIGCN@SKILL_GRADE_GRAND_MASTER@
CONST	SEGMENT
??_C@_0BJ@CFOEIGCN@SKILL_GRADE_GRAND_MASTER@ DB 'SKILL_GRADE_GRAND_MASTER'
	DB	00H						; `string'
CONST	ENDS
;	COMDAT ??_C@_0BL@DCIPLDCA@SKILL_GRADE_PERFECT_MASTER@
CONST	SEGMENT
??_C@_0BL@DCIPLDCA@SKILL_GRADE_PERFECT_MASTER@ DB 'SKILL_GRADE_PERFECT_MA'
	DB	'STER', 00H					; `string'
CONST	ENDS
;	COMDAT ??_C@_0BD@LAKFNFGD@SKILL_GRADE_NORMAL@
CONST	SEGMENT
??_C@_0BD@LAKFNFGD@SKILL_GRADE_NORMAL@ DB 'SKILL_GRADE_NORMAL', 00H ; `string'
CONST	ENDS
;	COMDAT ??_C@_0BD@HIHOAICI@SKILL_GRADE_MASTER@
CONST	SEGMENT
??_C@_0BD@HIHOAICI@SKILL_GRADE_MASTER@ DB 'SKILL_GRADE_MASTER', 00H ; `string'
CONST	ENDS
;	COMDAT ??_C@_0BK@IHLHEPKN@POINT_MAGIC_ATT_BONUS_PER@
CONST	SEGMENT
??_C@_0BK@IHLHEPKN@POINT_MAGIC_ATT_BONUS_PER@ DB 'POINT_MAGIC_ATT_BONUS_P'
	DB	'ER', 00H					; `string'
CONST	ENDS
;	COMDAT ??_C@_0CA@GOGOBLID@POINT_MELEE_MAGIC_ATT_BONUS_PER@
CONST	SEGMENT
??_C@_0CA@GOGOBLID@POINT_MELEE_MAGIC_ATT_BONUS_PER@ DB 'POINT_MELEE_MAGIC'
	DB	'_ATT_BONUS_PER', 00H			; `string'
CONST	ENDS
;	COMDAT ??_C@_0BA@PIHNCBED@ENERGY_END_TIME@
CONST	SEGMENT
??_C@_0BA@PIHNCBED@ENERGY_END_TIME@ DB 'ENERGY_END_TIME', 00H ; `string'
CONST	ENDS
;	COMDAT ??_C@_0BJ@PLDLOAKE@POINT_COSTUME_ATTR_BONUS@
CONST	SEGMENT
??_C@_0BJ@PLDLOAKE@POINT_COSTUME_ATTR_BONUS@ DB 'POINT_COSTUME_ATTR_BONUS'
	DB	00H						; `string'
CONST	ENDS
;	COMDAT ??_C@_0BH@PDEJPPI@POINT_ATTBONUS_MONSTER@
CONST	SEGMENT
??_C@_0BH@PDEJPPI@POINT_ATTBONUS_MONSTER@ DB 'POINT_ATTBONUS_MONSTER', 00H ; `string'
CONST	ENDS
;	COMDAT ??_C@_06KOEJHMAL@ENERGY@
CONST	SEGMENT
??_C@_06KOEJHMAL@ENERGY@ DB 'ENERGY', 00H		; `string'
CONST	ENDS
;	COMDAT ??_C@_0BO@CEPNAEGB@POINT_NORMAL_HIT_DEFEND_BONUS@
CONST	SEGMENT
??_C@_0BO@CEPNAEGB@POINT_NORMAL_HIT_DEFEND_BONUS@ DB 'POINT_NORMAL_HIT_DE'
	DB	'FEND_BONUS', 00H				; `string'
CONST	ENDS
;	COMDAT ??_C@_0N@IJMJNHHP@RESIST_MAGIC@
CONST	SEGMENT
??_C@_0N@IJMJNHHP@RESIST_MAGIC@ DB 'RESIST_MAGIC', 00H	; `string'
CONST	ENDS
;	COMDAT ??_C@_0BO@GNDIKOOF@POINT_NORMAL_HIT_DAMAGE_BONUS@
CONST	SEGMENT
??_C@_0BO@GNDIKOOF@POINT_NORMAL_HIT_DAMAGE_BONUS@ DB 'POINT_NORMAL_HIT_DA'
	DB	'MAGE_BONUS', 00H				; `string'
CONST	ENDS
;	COMDAT ??_C@_0BJ@LPIAEILC@POINT_SKILL_DEFEND_BONUS@
CONST	SEGMENT
??_C@_0BJ@LPIAEILC@POINT_SKILL_DEFEND_BONUS@ DB 'POINT_SKILL_DEFEND_BONUS'
	DB	00H						; `string'
CONST	ENDS
;	COMDAT ??_C@_0BA@HLPPKIKO@POINT_ATT_BONUS@
CONST	SEGMENT
??_C@_0BA@HLPPKIKO@POINT_ATT_BONUS@ DB 'POINT_ATT_BONUS', 00H ; `string'
CONST	ENDS
;	COMDAT ??_C@_0BJ@PGEFOCDG@POINT_SKILL_DAMAGE_BONUS@
CONST	SEGMENT
??_C@_0BJ@PGEFOCDG@POINT_SKILL_DAMAGE_BONUS@ DB 'POINT_SKILL_DAMAGE_BONUS'
	DB	00H						; `string'
CONST	ENDS
;	COMDAT ??_C@_0BB@OCODMABI@POINT_MAX_HP_PCT@
CONST	SEGMENT
??_C@_0BB@OCODMABI@POINT_MAX_HP_PCT@ DB 'POINT_MAX_HP_PCT', 00H ; `string'
CONST	ENDS
;	COMDAT ??_C@_0BB@IHDKAICM@POINT_MAX_SP_PCT@
CONST	SEGMENT
??_C@_0BB@IHDKAICM@POINT_MAX_SP_PCT@ DB 'POINT_MAX_SP_PCT', 00H ; `string'
CONST	ENDS
;	COMDAT ??_C@_0BF@FCMHLHC@POINT_MALL_ITEMBONUS@
CONST	SEGMENT
??_C@_0BF@FCMHLHC@POINT_MALL_ITEMBONUS@ DB 'POINT_MALL_ITEMBONUS', 00H ; `string'
CONST	ENDS
;	COMDAT ??_C@_0BF@LPKHMJJF@POINT_MALL_GOLDBONUS@
CONST	SEGMENT
??_C@_0BF@LPKHMJJF@POINT_MALL_GOLDBONUS@ DB 'POINT_MALL_GOLDBONUS', 00H ; `string'
CONST	ENDS
;	COMDAT ??_C@_0BE@FJKLFHOA@POINT_MALL_DEFBONUS@
CONST	SEGMENT
??_C@_0BE@FJKLFHOA@POINT_MALL_DEFBONUS@ DB 'POINT_MALL_DEFBONUS', 00H ; `string'
CONST	ENDS
;	COMDAT ??_C@_0BE@KNGAMOKN@POINT_MALL_EXPBONUS@
CONST	SEGMENT
??_C@_0BE@KNGAMOKN@POINT_MALL_EXPBONUS@ DB 'POINT_MALL_EXPBONUS', 00H ; `string'
CONST	ENDS
;	COMDAT ??_C@_0BE@BGNEFMNJ@POINT_PENETRATE_PCT@
CONST	SEGMENT
??_C@_0BE@BGNEFMNJ@POINT_PENETRATE_PCT@ DB 'POINT_PENETRATE_PCT', 00H ; `string'
CONST	ENDS
;	COMDAT ??_C@_0BE@FDGMKOPN@POINT_MALL_ATTBONUS@
CONST	SEGMENT
??_C@_0BE@FDGMKOPN@POINT_MALL_ATTBONUS@ DB 'POINT_MALL_ATTBONUS', 00H ; `string'
CONST	ENDS
;	COMDAT ??_C@_07MEMMKJPK@MAX_NUM@
CONST	SEGMENT
??_C@_07MEMMKJPK@MAX_NUM@ DB 'MAX_NUM', 00H		; `string'
CONST	ENDS
;	COMDAT ??_C@_0BD@CPEECKKP@POINT_CRITICAL_PCT@
CONST	SEGMENT
??_C@_0BD@CPEECKKP@POINT_CRITICAL_PCT@ DB 'POINT_CRITICAL_PCT', 00H ; `string'
CONST	ENDS
;	COMDAT ??_C@_0M@FGICENAO@SP_RECOVERY@
CONST	SEGMENT
??_C@_0M@FGICENAO@SP_RECOVERY@ DB 'SP_RECOVERY', 00H	; `string'
CONST	ENDS
;	COMDAT ??_C@_0P@GAAMLPFK@ATTACKER_BONUS@
CONST	SEGMENT
??_C@_0P@GAAMLPFK@ATTACKER_BONUS@ DB 'ATTACKER_BONUS', 00H ; `string'
CONST	ENDS
;	COMDAT ??_C@_0N@KHDDEEFG@BOW_DISTANCE@
CONST	SEGMENT
??_C@_0N@KHDDEEFG@BOW_DISTANCE@ DB 'BOW_DISTANCE', 00H	; `string'
CONST	ENDS
;	COMDAT ??_C@_0M@CLAIAEPM@HP_RECOVERY@
CONST	SEGMENT
??_C@_0M@CLAIAEPM@HP_RECOVERY@ DB 'HP_RECOVERY', 00H	; `string'
CONST	ENDS
;	COMDAT ??_C@_0M@HAFIBGFL@SKILL_HORSE@
CONST	SEGMENT
??_C@_0M@HAFIBGFL@SKILL_HORSE@ DB 'SKILL_HORSE', 00H	; `string'
CONST	ENDS
;	COMDAT ??_C@_08CKIIBBI@PLAYTIME@
CONST	SEGMENT
??_C@_08CKIIBBI@PLAYTIME@ DB 'PLAYTIME', 00H		; `string'
CONST	ENDS
;	COMDAT ??_C@_0O@JLNOPGFK@SKILL_SUPPORT@
CONST	SEGMENT
??_C@_0O@JLNOPGFK@SKILL_SUPPORT@ DB 'SKILL_SUPPORT', 00H ; `string'
CONST	ENDS
;	COMDAT ??_C@_0N@DNBJLBPA@SKILL_ACTIVE@
CONST	SEGMENT
??_C@_0N@DNBJLBPA@SKILL_ACTIVE@ DB 'SKILL_ACTIVE', 00H	; `string'
CONST	ENDS
;	COMDAT ??_C@_04KNIOFKKL@STAT@
CONST	SEGMENT
??_C@_04KNIOFKKL@STAT@ DB 'STAT', 00H			; `string'
CONST	ENDS
;	COMDAT ??_C@_0O@DGEPJFAK@SKILL_PASSIVE@
CONST	SEGMENT
??_C@_0O@DGEPJFAK@SKILL_PASSIVE@ DB 'SKILL_PASSIVE', 00H ; `string'
CONST	ENDS
;	COMDAT ??_C@_07KGCDIDGL@MAG_DEF@
CONST	SEGMENT
??_C@_07KGCDIDGL@MAG_DEF@ DB 'MAG_DEF', 00H		; `string'
CONST	ENDS
;	COMDAT ??_C@_0N@JIFCAIPA@EMPIRE_POINT@
CONST	SEGMENT
??_C@_0N@JIFCAIPA@EMPIRE_POINT@ DB 'EMPIRE_POINT', 00H	; `string'
CONST	ENDS
;	COMDAT ??_C@_0O@IOLIEEIE@CASTING_SPEED@
CONST	SEGMENT
??_C@_0O@IOLIEEIE@CASTING_SPEED@ DB 'CASTING_SPEED', 00H ; `string'
CONST	ENDS
;	COMDAT ??_C@_07PEONMKMN@MAG_ATT@
CONST	SEGMENT
??_C@_07PEONMKMN@MAG_ATT@ DB 'MAG_ATT', 00H		; `string'
CONST	ENDS
;	COMDAT ??_C@_09KMPFCDFE@DEF_GRADE@
CONST	SEGMENT
??_C@_09KMPFCDFE@DEF_GRADE@ DB 'DEF_GRADE', 00H		; `string'
CONST	ENDS
;	COMDAT ??_C@_09DNFHINBC@DEF_BONUS@
CONST	SEGMENT
??_C@_09DNFHINBC@DEF_BONUS@ DB 'DEF_BONUS', 00H		; `string'
CONST	ENDS
;	COMDAT ??_C@_0L@IPHIKIMB@EVADE_RATE@
CONST	SEGMENT
??_C@_0L@IPHIKIMB@EVADE_RATE@ DB 'EVADE_RATE', 00H	; `string'
CONST	ENDS
;	COMDAT ??_C@_0N@KGGLAJKM@MOVING_SPEED@
CONST	SEGMENT
??_C@_0N@KGGLAJKM@MOVING_SPEED@ DB 'MOVING_SPEED', 00H	; `string'
CONST	ENDS
;	COMDAT ??_C@_09LKMFFHLI@ATT_SPEED@
CONST	SEGMENT
??_C@_09LKMFFHLI@ATT_SPEED@ DB 'ATT_SPEED', 00H		; `string'
CONST	ENDS
;	COMDAT ??_C@_09FOFLCGDC@ATT_BONUS@
CONST	SEGMENT
??_C@_09FOFLCGDC@ATT_BONUS@ DB 'ATT_BONUS', 00H		; `string'
CONST	ENDS
;	COMDAT ??_C@_0O@CJNCLCGL@MIN_MAGIC_WEP@
CONST	SEGMENT
??_C@_0O@CJNCLCGL@MIN_MAGIC_WEP@ DB 'MIN_MAGIC_WEP', 00H ; `string'
CONST	ENDS
;	COMDAT ??_C@_0O@JAPECJBK@MAX_MAGIC_WEP@
CONST	SEGMENT
??_C@_0O@JAPECJBK@MAX_MAGIC_WEP@ DB 'MAX_MAGIC_WEP', 00H ; `string'
CONST	ENDS
;	COMDAT ??_C@_07PNODGJJO@ATT_MIN@
CONST	SEGMENT
??_C@_07PNODGJJO@ATT_MIN@ DB 'ATT_MIN', 00H		; `string'
CONST	ENDS
;	COMDAT ??_C@_07OPGIINPB@ATT_MAX@
CONST	SEGMENT
??_C@_07OPGIINPB@ATT_MAX@ DB 'ATT_MAX', 00H		; `string'
CONST	ENDS
;	COMDAT ??_C@_02NMFFPMLH@IQ@
CONST	SEGMENT
??_C@_02NMFFPMLH@IQ@ DB 'IQ', 00H			; `string'
CONST	ENDS
;	COMDAT ??_C@_09DIGJAPIG@ATT_POWER@
CONST	SEGMENT
??_C@_09DIGJAPIG@ATT_POWER@ DB 'ATT_POWER', 00H		; `string'
CONST	ENDS
;	COMDAT ??_C@_02KAOAGCMF@HT@
CONST	SEGMENT
??_C@_02KAOAGCMF@HT@ DB 'HT', 00H			; `string'
CONST	ENDS
;	COMDAT ??_C@_02FEPNEKN@DX@
CONST	SEGMENT
??_C@_02FEPNEKN@DX@ DB 'DX', 00H			; `string'
CONST	ENDS
;	COMDAT ??_C@_03BIHMGKIG@ELK@
CONST	SEGMENT
??_C@_03BIHMGKIG@ELK@ DB 'ELK', 00H			; `string'
CONST	ENDS
;	COMDAT ??_C@_02LAJDCOFE@ST@
CONST	SEGMENT
??_C@_02LAJDCOFE@ST@ DB 'ST', 00H			; `string'
CONST	ENDS
;	COMDAT ??_C@_07IHPDJFBP@STAMINA@
CONST	SEGMENT
??_C@_07IHPDJFBP@STAMINA@ DB 'STAMINA', 00H		; `string'
CONST	ENDS
;	COMDAT ??_C@_0M@CHCGLEDD@MAX_STAMINA@
CONST	SEGMENT
??_C@_0M@CHCGLEDD@MAX_STAMINA@ DB 'MAX_STAMINA', 00H	; `string'
CONST	ENDS
;	COMDAT ??_C@_02NEPPOLFA@SP@
CONST	SEGMENT
??_C@_02NEPPOLFA@SP@ DB 'SP', 00H			; `string'
CONST	ENDS
;	COMDAT ??_C@_06MMAHLLLC@MAX_SP@
CONST	SEGMENT
??_C@_06MMAHLLLC@MAX_SP@ DB 'MAX_SP', 00H		; `string'
CONST	ENDS
;	COMDAT ??_C@_02MEIMKHMB@HP@
CONST	SEGMENT
??_C@_02MEIMKHMB@HP@ DB 'HP', 00H			; `string'
CONST	ENDS
;	COMDAT ??_C@_06NMHEPHCD@MAX_HP@
CONST	SEGMENT
??_C@_06NMHEPHCD@MAX_HP@ DB 'MAX_HP', 00H		; `string'
CONST	ENDS
;	COMDAT ??_C@_03KKGFKKLA@EXP@
CONST	SEGMENT
??_C@_03KKGFKKLA@EXP@ DB 'EXP', 00H			; `string'
CONST	ENDS
;	COMDAT ??_C@_08CHGDMADF@NEXT_EXP@
CONST	SEGMENT
??_C@_08CHGDMADF@NEXT_EXP@ DB 'NEXT_EXP', 00H		; `string'
CONST	ENDS
;	COMDAT ??_C@_05GCEPFMCO@LEVEL@
CONST	SEGMENT
??_C@_05GCEPFMCO@LEVEL@ DB 'LEVEL', 00H			; `string'
CONST	ENDS
;	COMDAT ??_C@_05FHIHOFEA@VOICE@
CONST	SEGMENT
??_C@_05FHIHOFEA@VOICE@ DB 'VOICE', 00H			; `string'
CONST	ENDS
;	COMDAT ??_C@_0BO@IEIPICAI@GetChangeWIndowChangeLookVnum@
CONST	SEGMENT
??_C@_0BO@IEIPICAI@GetChangeWIndowChangeLookVnum@ DB 'GetChangeWIndowChan'
	DB	'geLookVnum', 00H				; `string'
CONST	ENDS
;	COMDAT ??_C@_0BJ@NKLEKMEH@GetChangeChangeLookPrice@
CONST	SEGMENT
??_C@_0BJ@NKLEKMEH@GetChangeChangeLookPrice@ DB 'GetChangeChangeLookPrice'
	DB	00H						; `string'
CONST	ENDS
;	COMDAT ??_C@_0CC@EICEGDNO@GetChangeLookFreeYangInvenSlotP@
CONST	SEGMENT
??_C@_0CC@EICEGDNO@GetChangeLookFreeYangInvenSlotP@ DB 'GetChangeLookFree'
	DB	'YangInvenSlotPos', 00H			; `string'
CONST	ENDS
;	COMDAT ??_C@_0BH@BELNGOAK@CanChangeLookClearItem@
CONST	SEGMENT
??_C@_0BH@BELNGOAK@CanChangeLookClearItem@ DB 'CanChangeLookClearItem', 00H ; `string'
CONST	ENDS
;	COMDAT ??_C@_0BL@ELGKHOAL@GetChangeLookItemInvenSlot@
CONST	SEGMENT
??_C@_0BL@ELGKHOAL@GetChangeLookItemInvenSlot@ DB 'GetChangeLookItemInven'
	DB	'Slot', 00H					; `string'
CONST	ENDS
;	COMDAT ??_C@_0BM@DIBDFBNF@GetChangeLookFreeYangItemID@
CONST	SEGMENT
??_C@_0BM@DIBDFBNF@GetChangeLookFreeYangItemID@ DB 'GetChangeLookFreeYang'
	DB	'ItemID', 00H				; `string'
CONST	ENDS
;	COMDAT ??_C@_0BI@HMKCDAJK@SetChangeLookWindowType@
CONST	SEGMENT
??_C@_0BI@HMKCDAJK@SetChangeLookWindowType@ DB 'SetChangeLookWindowType', 00H ; `string'
CONST	ENDS
;	COMDAT ??_C@_0BE@EICJCLKG@GetChangeLookItemID@
CONST	SEGMENT
??_C@_0BE@EICJCLKG@GetChangeLookItemID@ DB 'GetChangeLookItemID', 00H ; `string'
CONST	ENDS
;	COMDAT ??_C@_0BE@KMNILMPF@SetChangeLookWindow@
CONST	SEGMENT
??_C@_0BE@KMNILMPF@SetChangeLookWindow@ DB 'SetChangeLookWindow', 00H ; `string'
CONST	ENDS
;	COMDAT ??_C@_0BI@PJOOIALB@GetChangeLookWindowOpen@
CONST	SEGMENT
??_C@_0BI@PJOOIALB@GetChangeLookWindowOpen@ DB 'GetChangeLookWindowOpen', 00H ; `string'
CONST	ENDS
;	COMDAT ??_C@_0N@GALPMGNA@LoadNewRegen@
CONST	SEGMENT
??_C@_0N@GALPMGNA@LoadNewRegen@ DB 'LoadNewRegen', 00H	; `string'
CONST	ENDS
;	COMDAT ??_C@_0BC@LHBNPKGI@GetChangeLookVnum@
CONST	SEGMENT
??_C@_0BC@LHBNPKGI@GetChangeLookVnum@ DB 'GetChangeLookVnum', 00H ; `string'
CONST	ENDS
;	COMDAT ??_C@_0P@HNNKIABL@GetPetLifeTime@
CONST	SEGMENT
??_C@_0P@HNNKIABL@GetPetLifeTime@ DB 'GetPetLifeTime', 00H ; `string'
CONST	ENDS
;	COMDAT ??_C@_0BJ@DBAIPPKB@CanUseGrowthPetQuickSlot@
CONST	SEGMENT
??_C@_0BJ@DBAIPPKB@CanUseGrowthPetQuickSlot@ DB 'CanUseGrowthPetQuickSlot'
	DB	00H						; `string'
CONST	ENDS
;	COMDAT ??_C@_0BA@OIMHGHDP@GetPetExpPoints@
CONST	SEGMENT
??_C@_0BA@OIMHGHDP@GetPetExpPoints@ DB 'GetPetExpPoints', 00H ; `string'
CONST	ENDS
;	COMDAT ??_C@_0L@MCGANBBD@GetPetItem@
CONST	SEGMENT
??_C@_0L@MCGANBBD@GetPetItem@ DB 'GetPetItem', 00H	; `string'
CONST	ENDS
;	COMDAT ??_C@_0BD@MKFJOLGB@GetPetSkillByIndex@
CONST	SEGMENT
??_C@_0BD@MKFJOLGB@GetPetSkillByIndex@ DB 'GetPetSkillByIndex', 00H ; `string'
CONST	ENDS
;	COMDAT ??_C@_0BF@GGHLDBPM@GetActivePetItemVNum@
CONST	SEGMENT
??_C@_0BF@GGHLDBPM@GetActivePetItemVNum@ DB 'GetActivePetItemVNum', 00H ; `string'
CONST	ENDS
;	COMDAT ??_C@_0BE@HIAGDJGO@GetPetItemVNumInBag@
CONST	SEGMENT
??_C@_0BE@HIAGDJGO@GetPetItemVNumInBag@ DB 'GetPetItemVNumInBag', 00H ; `string'
CONST	ENDS
;	COMDAT ??_C@_0M@EGNNPBIF@GetPetSkill@
CONST	SEGMENT
??_C@_0M@EGNNPBIF@GetPetSkill@ DB 'GetPetSkill', 00H	; `string'
CONST	ENDS
;	COMDAT ??_C@_0L@MJHEBNLN@IsOpenMall@
CONST	SEGMENT
??_C@_0L@MJHEBNLN@IsOpenMall@ DB 'IsOpenMall', 00H	; `string'
CONST	ENDS
;	COMDAT ??_C@_0BD@FFNGMGDE@GetActivePetItemId@
CONST	SEGMENT
??_C@_0BD@FFNGMGDE@GetActivePetItemId@ DB 'GetActivePetItemId', 00H ; `string'
CONST	ENDS
;	COMDAT ??_C@_0M@PMJJOEKL@SetOpenMall@
CONST	SEGMENT
??_C@_0M@PMJJOEKL@SetOpenMall@ DB 'SetOpenMall', 00H	; `string'
CONST	ENDS
;	COMDAT ??_C@_0P@DGCGCCCO@SetOpenSafeBox@
CONST	SEGMENT
??_C@_0P@DGCGCCCO@SetOpenSafeBox@ DB 'SetOpenSafeBox', 00H ; `string'
CONST	ENDS
;	COMDAT ??_C@_0BE@CCCDEOF@IsOpenPetFeedWindow@
CONST	SEGMENT
??_C@_0BE@CCCDEOF@IsOpenPetFeedWindow@ DB 'IsOpenPetFeedWindow', 00H ; `string'
CONST	ENDS
;	COMDAT ??_C@_0BK@ONINDKNJ@IsOpenPetNameChangeWindow@
CONST	SEGMENT
??_C@_0BK@ONINDKNJ@IsOpenPetNameChangeWindow@ DB 'IsOpenPetNameChangeWind'
	DB	'ow', 00H					; `string'
CONST	ENDS
;	COMDAT ??_C@_0BF@LBMFBLG@SetOpenPetFeedWindow@
CONST	SEGMENT
??_C@_0BF@LBMFBLG@SetOpenPetFeedWindow@ DB 'SetOpenPetFeedWindow', 00H ; `string'
CONST	ENDS
;	COMDAT ??_C@_0BI@EEFHCAEH@IsOpenPetHatchingWindow@
CONST	SEGMENT
??_C@_0BI@EEFHCAEH@IsOpenPetHatchingWindow@ DB 'IsOpenPetHatchingWindow', 00H ; `string'
CONST	ENDS
;	COMDAT ??_C@_0BJ@OLOKCKBJ@SetOpenPetHatchingWindow@
CONST	SEGMENT
??_C@_0BJ@OLOKCKBJ@SetOpenPetHatchingWindow@ DB 'SetOpenPetHatchingWindow'
	DB	00H						; `string'
CONST	ENDS
;	COMDAT ??_C@_0BL@CJGAAMKA@SetOpenPetNameChangeWindow@
CONST	SEGMENT
??_C@_0BL@CJGAAMKA@SetOpenPetNameChangeWindow@ DB 'SetOpenPetNameChangeWi'
	DB	'ndow', 00H					; `string'
CONST	ENDS
;	COMDAT ??_C@_0BI@OEGEDDOI@GetAuraRefineInfoExpPer@
CONST	SEGMENT
??_C@_0BI@OEGEDDOI@GetAuraRefineInfoExpPer@ DB 'GetAuraRefineInfoExpPer', 00H ; `string'
CONST	ENDS
;	COMDAT ??_C@_0BH@LNIBDCIJ@GetAuraRefineInfoLevel@
CONST	SEGMENT
??_C@_0BH@LNIBDCIJ@GetAuraRefineInfoLevel@ DB 'GetAuraRefineInfoLevel', 00H ; `string'
CONST	ENDS
;	COMDAT ??_C@_0BC@FMKOGNDO@FindUsingAuraSlot@
CONST	SEGMENT
??_C@_0BC@FMKOGNDO@FindUsingAuraSlot@ DB 'FindUsingAuraSlot', 00H ; `string'
CONST	ENDS
;	COMDAT ??_C@_0BC@GPJMKBHD@GetAuraRefineInfo@
CONST	SEGMENT
??_C@_0BC@GPJMKBHD@GetAuraRefineInfo@ DB 'GetAuraRefineInfo', 00H ; `string'
CONST	ENDS
;	COMDAT ??_C@_0BJ@FDMBJLDG@SetAuraActivatedItemSlot@
CONST	SEGMENT
??_C@_0BJ@FDMBJLDG@SetAuraActivatedItemSlot@ DB 'SetAuraActivatedItemSlot'
	DB	00H						; `string'
CONST	ENDS
;	COMDAT ??_C@_0BG@EEFNBJPF@FindActivatedAuraSlot@
CONST	SEGMENT
??_C@_0BG@EEFNBJPF@FindActivatedAuraSlot@ DB 'FindActivatedAuraSlot', 00H ; `string'
CONST	ENDS
;	COMDAT ??_C@_0BI@HAAECBGI@GetAuraRefineWindowType@
CONST	SEGMENT
??_C@_0BI@HAAECBGI@GetAuraRefineWindowType@ DB 'GetAuraRefineWindowType', 00H ; `string'
CONST	ENDS
;	COMDAT ??_C@_0BF@DGBJCLPP@FineMoveAuraItemSlot@
CONST	SEGMENT
??_C@_0BF@DGBJCLPP@FineMoveAuraItemSlot@ DB 'FineMoveAuraItemSlot', 00H ; `string'
CONST	ENDS
;	COMDAT ??_C@_0BM@BKGGJDBO@GetAuraCurrentItemSlotCount@
CONST	SEGMENT
??_C@_0BM@BKGGJDBO@GetAuraCurrentItemSlotCount@ DB 'GetAuraCurrentItemSlo'
	DB	'tCount', 00H				; `string'
CONST	ENDS
;	COMDAT ??_C@_0BH@ECFJIDOK@IsAuraRefineWindowOpen@
CONST	SEGMENT
??_C@_0BH@ECFJIDOK@IsAuraRefineWindowOpen@ DB 'IsAuraRefineWindowOpen', 00H ; `string'
CONST	ENDS
;	COMDAT ??_C@_0BF@DKEAJKNA@GetAuraItemAttribute@
CONST	SEGMENT
??_C@_0BF@DKEAJKNA@GetAuraItemAttribute@ DB 'GetAuraItemAttribute', 00H ; `string'
CONST	ENDS
;	COMDAT ??_C@_0BI@PBPNGBAE@IsAuraRefineWindowEmpty@
CONST	SEGMENT
??_C@_0BI@PBPNGBAE@IsAuraRefineWindowEmpty@ DB 'IsAuraRefineWindowEmpty', 00H ; `string'
CONST	ENDS
;	COMDAT ??_C@_0BB@NMGFNIEB@GetAuraItemCount@
CONST	SEGMENT
??_C@_0BB@NMGFNIEB@GetAuraItemCount@ DB 'GetAuraItemCount', 00H ; `string'
CONST	ENDS
;	COMDAT ??_C@_0BH@EEMJAALJ@GetAuraItemMetinSocket@
CONST	SEGMENT
??_C@_0BH@EEMJAALJ@GetAuraItemMetinSocket@ DB 'GetAuraItemMetinSocket', 00H ; `string'
CONST	ENDS
;	COMDAT ??_C@_0O@HALFKPHL@GetSkillColor@
CONST	SEGMENT
??_C@_0O@HALFKPHL@GetSkillColor@ DB 'GetSkillColor', 00H ; `string'
CONST	ENDS
;	COMDAT ??_C@_0O@MJPCFPJK@GetAuraItemID@
CONST	SEGMENT
??_C@_0O@MJPCFPJK@GetAuraItemID@ DB 'GetAuraItemID', 00H ; `string'
CONST	ENDS
;	COMDAT ??_C@_0BH@KNFAMLNM@GetPremiumBattlePassID@
CONST	SEGMENT
??_C@_0BH@KNFAMLNM@GetPremiumBattlePassID@ DB 'GetPremiumBattlePassID', 00H ; `string'
CONST	ENDS
;	COMDAT ??_C@_0O@PKLBMAM@SetSkillColor@
CONST	SEGMENT
??_C@_0O@PKLBMAM@SetSkillColor@ DB 'SetSkillColor', 00H	; `string'
CONST	ENDS
;	COMDAT ??_C@_0BB@NAJMCHBK@GetItemSlotIndex@
CONST	SEGMENT
??_C@_0BB@NAJMCHBK@GetItemSlotIndex@ DB 'GetItemSlotIndex', 00H ; `string'
CONST	ENDS
;	COMDAT ??_C@_0M@GLKHKGON@CanInteract@
CONST	SEGMENT
??_C@_0M@GLKHKGON@CanInteract@ DB 'CanInteract', 00H	; `string'
CONST	ENDS
;	COMDAT ??_C@_04PPEDCFAC@NPOS@
CONST	SEGMENT
??_C@_04PPEDCFAC@NPOS@ DB 'NPOS', 00H			; `string'
CONST	ENDS
;	COMDAT ??_C@_0BF@HHEMENOC@GetMainCharacterPart@
CONST	SEGMENT
??_C@_0BF@HHEMENOC@GetMainCharacterPart@ DB 'GetMainCharacterPart', 00H ; `string'
CONST	ENDS
;	COMDAT ??_C@_0BF@PLGNHJMH@SendDragonSoulRefine@
CONST	SEGMENT
??_C@_0BF@PLGNHJMH@SendDragonSoulRefine@ DB 'SendDragonSoulRefine', 00H ; `string'
CONST	ENDS
;	COMDAT ??_C@_0BN@OIIJKMFD@ClearAutoAttackTargetActorID@
CONST	SEGMENT
??_C@_0BN@OIIJKMFD@ClearAutoAttackTargetActorID@ DB 'ClearAutoAttackTarge'
	DB	'tActorID', 00H				; `string'
CONST	ENDS
;	COMDAT ??_C@_0M@DGFCHEAA@GetItemLink@
CONST	SEGMENT
??_C@_0M@DGFCHEAA@GetItemLink@ DB 'GetItemLink', 00H	; `string'
CONST	ENDS
;	COMDAT ??_C@_0BE@IOMKCPHN@SlotTypeToInvenType@
CONST	SEGMENT
??_C@_0BE@IOMKCPHN@SlotTypeToInvenType@ DB 'SlotTypeToInvenType', 00H ; `string'
CONST	ENDS
;	COMDAT ??_C@_0BB@KPGENMF@SetItemAttribute@
CONST	SEGMENT
??_C@_0BB@KPGENMF@SetItemAttribute@ DB 'SetItemAttribute', 00H ; `string'
CONST	ENDS
;	COMDAT ??_C@_0N@MABOHHMK@SetItemCount@
CONST	SEGMENT
??_C@_0N@MABOHHMK@SetItemCount@ DB 'SetItemCount', 00H	; `string'
CONST	ENDS
;	COMDAT ??_C@_0M@CHNGAPIB@SetItemData@
CONST	SEGMENT
??_C@_0M@CHNGAPIB@SetItemData@ DB 'SetItemData', 00H	; `string'
CONST	ENDS
;	COMDAT ??_C@_0BD@GLMLJBGM@SetItemMetinSocket@
CONST	SEGMENT
??_C@_0BD@GLMLJBGM@SetItemMetinSocket@ DB 'SetItemMetinSocket', 00H ; `string'
CONST	ENDS
;	COMDAT ??_C@_0BB@DJKKOCLB@ToggleLevelLimit@
CONST	SEGMENT
??_C@_0BB@DJKKOCLB@ToggleLevelLimit@ DB 'ToggleLevelLimit', 00H ; `string'
CONST	ENDS
;	COMDAT ??_C@_0N@MEKPPHGC@GetTargetVID@
CONST	SEGMENT
??_C@_0N@MEKPPHGC@GetTargetVID@ DB 'GetTargetVID', 00H	; `string'
CONST	ENDS
;	COMDAT ??_C@_0BJ@CFCMHNHB@SetWeaponAttackBonusFlag@
CONST	SEGMENT
??_C@_0BJ@CFCMHNHB@SetWeaponAttackBonusFlag@ DB 'SetWeaponAttackBonusFlag'
	DB	00H						; `string'
CONST	ENDS
;	COMDAT ??_C@_0P@ILOOLMDH@ToggleCoolTime@
CONST	SEGMENT
??_C@_0P@ILOOLMDH@ToggleCoolTime@ DB 'ToggleCoolTime', 00H ; `string'
CONST	ENDS
;	COMDAT ??_C@_0BE@PMDABIKP@RegisterEmotionIcon@
CONST	SEGMENT
??_C@_0BE@PMDABIKP@RegisterEmotionIcon@ DB 'RegisterEmotionIcon', 00H ; `string'
CONST	ENDS
;	COMDAT ??_C@_0BE@FELKHKJF@GetEmotionIconImage@
CONST	SEGMENT
??_C@_0BE@FELKHKJF@GetEmotionIconImage@ DB 'GetEmotionIconImage', 00H ; `string'
CONST	ENDS
;	COMDAT ??_C@_09DMPBEJCG@ExitParty@
CONST	SEGMENT
??_C@_09DMPBEJCG@ExitParty@ DB 'ExitParty', 00H		; `string'
CONST	ENDS
;	COMDAT ??_C@_09IMMFEEHK@GetPKMode@
CONST	SEGMENT
??_C@_09IMMFEEHK@GetPKMode@ DB 'GetPKMode', 00H		; `string'
CONST	ENDS
;	COMDAT ??_C@_0BE@HKIJMBKK@GetPartyMemberState@
CONST	SEGMENT
??_C@_0BE@HKIJMBKK@GetPartyMemberState@ DB 'GetPartyMemberState', 00H ; `string'
CONST	ENDS
;	COMDAT ??_C@_0BG@EEFAFMJC@GetPartyMemberAffects@
CONST	SEGMENT
??_C@_0BG@EEFAFMJC@GetPartyMemberAffects@ DB 'GetPartyMemberAffects', 00H ; `string'
CONST	ENDS
;	COMDAT ??_C@_0BD@HGKJMFNK@IsPartyLeaderByPID@
CONST	SEGMENT
??_C@_0BD@HGKJMFNK@IsPartyLeaderByPID@ DB 'IsPartyLeaderByPID', 00H ; `string'
CONST	ENDS
;	COMDAT ??_C@_0BL@EPAFEFHI@GetPartyMemberHPPercentage@
CONST	SEGMENT
??_C@_0BL@EPAFEFHI@GetPartyMemberHPPercentage@ DB 'GetPartyMemberHPPercen'
	DB	'tage', 00H					; `string'
CONST	ENDS
;	COMDAT ??_C@_0BC@HAEJEFBP@OpenCharacterMenu@
CONST	SEGMENT
??_C@_0BC@HAEJEFBP@OpenCharacterMenu@ DB 'OpenCharacterMenu', 00H ; `string'
CONST	ENDS
;	COMDAT ??_C@_0O@BPMJGNAC@IsPartyLeader@
CONST	SEGMENT
??_C@_0O@BPMJGNAC@IsPartyLeader@ DB 'IsPartyLeader', 00H ; `string'
CONST	ENDS
;	COMDAT ??_C@_0M@DPCEEMCG@ClearTarget@
CONST	SEGMENT
??_C@_0M@DPCEEMCG@ClearTarget@ DB 'ClearTarget', 00H	; `string'
CONST	ENDS
;	COMDAT ??_C@_09EECGCJDE@SetTarget@
CONST	SEGMENT
??_C@_09EECGCJDE@SetTarget@ DB 'SetTarget', 00H		; `string'
CONST	ENDS
;	COMDAT ??_C@_0P@BLOGPKFO@CanAttachMetin@
CONST	SEGMENT
??_C@_0P@BLOGPKFO@CanAttachMetin@ DB 'CanAttachMetin', 00H ; `string'
CONST	ENDS
;	COMDAT ??_C@_0BE@ELNKJPMC@IsRefineGradeScroll@
CONST	SEGMENT
??_C@_0BE@ELNKJPMC@IsRefineGradeScroll@ DB 'IsRefineGradeScroll', 00H ; `string'
CONST	ENDS
;	COMDAT ??_C@_09GHIBIBHI@CanDetach@
CONST	SEGMENT
??_C@_09GHIBIBHI@CanDetach@ DB 'CanDetach', 00H		; `string'
CONST	ENDS
;	COMDAT ??_C@_09FHINBOHC@CanUnlock@
CONST	SEGMENT
??_C@_09FHINBOHC@CanUnlock@ DB 'CanUnlock', 00H		; `string'
CONST	ENDS
;	COMDAT ??_C@_0N@DGHEMMKN@GetItemGrade@
CONST	SEGMENT
??_C@_0N@DGHEMMKN@GetItemGrade@ DB 'GetItemGrade', 00H	; `string'
CONST	ENDS
;	COMDAT ??_C@_09BGNCJJP@CanRefine@
CONST	SEGMENT
??_C@_09BGNCJJP@CanRefine@ DB 'CanRefine', 00H		; `string'
CONST	ENDS
;	COMDAT ??_C@_0BH@IDMOLEIA@IsGiftBoxInventorySlot@
CONST	SEGMENT
??_C@_0BH@IDMOLEIA@IsGiftBoxInventorySlot@ DB 'IsGiftBoxInventorySlot', 00H ; `string'
CONST	ENDS
;	COMDAT ??_C@_0BI@FMKBEPGC@IsChangersInventorySlot@
CONST	SEGMENT
??_C@_0BI@FMKBEPGC@IsChangersInventorySlot@ DB 'IsChangersInventorySlot', 00H ; `string'
CONST	ENDS
;	COMDAT ??_C@_0BM@FCEMHHI@IsUpgradeItemsInventorySlot@
CONST	SEGMENT
??_C@_0BM@FCEMHHI@IsUpgradeItemsInventorySlot@ DB 'IsUpgradeItemsInventor'
	DB	'ySlot', 00H					; `string'
CONST	ENDS
;	COMDAT ??_C@_0BF@LJHNJJLN@IsStoneInventorySlot@
CONST	SEGMENT
??_C@_0BF@LJHNJJLN@IsStoneInventorySlot@ DB 'IsStoneInventorySlot', 00H ; `string'
CONST	ENDS
;	COMDAT ??_C@_0BN@DKGNHJIB@IsAvailableBeltInventoryCell@
CONST	SEGMENT
??_C@_0BN@DKGNHJIB@IsAvailableBeltInventoryCell@ DB 'IsAvailableBeltInven'
	DB	'toryCell', 00H				; `string'
CONST	ENDS
;	COMDAT ??_C@_0BJ@CPJJHAGD@IsSkillBookInventorySlot@
CONST	SEGMENT
??_C@_0BJ@CPJJHAGD@IsSkillBookInventorySlot@ DB 'IsSkillBookInventorySlot'
	DB	00H						; `string'
CONST	ENDS
;	COMDAT ??_C@_0BE@HECMLJG@IsBeltInventorySlot@
CONST	SEGMENT
??_C@_0BE@HECMLJG@IsBeltInventorySlot@ DB 'IsBeltInventorySlot', 00H ; `string'
CONST	ENDS
;	COMDAT ??_C@_0BA@OBALOJLG@IsEquippingBelt@
CONST	SEGMENT
??_C@_0BA@OBALOJLG@IsEquippingBelt@ DB 'IsEquippingBelt', 00H ; `string'
CONST	ENDS
;	COMDAT ??_C@_0P@LAJFBPPH@IsValuableItem@
CONST	SEGMENT
??_C@_0P@LAJFBPPH@IsValuableItem@ DB 'IsValuableItem', 00H ; `string'
CONST	ENDS
;	COMDAT ??_C@_0BC@DCFDMADN@IsOpenPrivateShop@
CONST	SEGMENT
??_C@_0BC@DCFDMADN@IsOpenPrivateShop@ DB 'IsOpenPrivateShop', 00H ; `string'
CONST	ENDS
;	COMDAT ??_C@_0BC@DDCIGDKO@IsDSEquipmentSlot@
CONST	SEGMENT
??_C@_0BC@DDCIGDKO@IsDSEquipmentSlot@ DB 'IsDSEquipmentSlot', 00H ; `string'
CONST	ENDS
;	COMDAT ??_C@_0O@KCAGNEAI@IsCostumeSlot@
CONST	SEGMENT
??_C@_0O@KCAGNEAI@IsCostumeSlot@ DB 'IsCostumeSlot', 00H ; `string'
CONST	ENDS
;	COMDAT ??_C@_06NOPKEHAK@isItem@
CONST	SEGMENT
??_C@_06NOPKEHAK@isItem@ DB 'isItem', 00H		; `string'
CONST	ENDS
;	COMDAT ??_C@_0BA@EMKHGGAL@IsEquipmentSlot@
CONST	SEGMENT
??_C@_0BA@EMKHGGAL@IsEquipmentSlot@ DB 'IsEquipmentSlot', 00H ; `string'
CONST	ENDS
;	COMDAT ??_C@_0BD@ECGPDHPA@GetGlobalQuickSlot@
CONST	SEGMENT
??_C@_0BD@ECGPDHPA@GetGlobalQuickSlot@ DB 'GetGlobalQuickSlot', 00H ; `string'
CONST	ENDS
;	COMDAT ??_C@_0BH@JNCIKJMC@RemoveQuickSlotByValue@
CONST	SEGMENT
??_C@_0BH@JNCIKJMC@RemoveQuickSlotByValue@ DB 'RemoveQuickSlotByValue', 00H ; `string'
CONST	ENDS
;	COMDAT ??_C@_0N@KPHBLMNM@SetQuickPage@
CONST	SEGMENT
??_C@_0N@KPHBLMNM@SetQuickPage@ DB 'SetQuickPage', 00H	; `string'
CONST	ENDS
;	COMDAT ??_C@_0BC@LNKMMBDG@GetLocalQuickSlot@
CONST	SEGMENT
??_C@_0BC@LNKMMBDG@GetLocalQuickSlot@ DB 'GetLocalQuickSlot', 00H ; `string'
CONST	ENDS
;	COMDAT ??_C@_0P@HAJODJLN@IsSameItemVnum@
CONST	SEGMENT
??_C@_0P@HAJODJLN@IsSameItemVnum@ DB 'IsSameItemVnum', 00H ; `string'
CONST	ENDS
;	COMDAT ??_C@_0N@NLMPHAJA@GetQuickPage@
CONST	SEGMENT
??_C@_0N@NLMPHAJA@GetQuickPage@ DB 'GetQuickPage', 00H	; `string'
CONST	ENDS
;	COMDAT ??_C@_0BC@PGIBMCKF@GetItemTypeBySlot@
CONST	SEGMENT
??_C@_0BC@PGIBMCKF@GetItemTypeBySlot@ DB 'GetItemTypeBySlot', 00H ; `string'
CONST	ENDS
;	COMDAT ??_C@_0BF@HFKGNAOK@GetItemSubTypeBySlot@
CONST	SEGMENT
??_C@_0BF@HFKGNAOK@GetItemSubTypeBySlot@ DB 'GetItemSubTypeBySlot', 00H ; `string'
CONST	ENDS
;	COMDAT ??_C@_0CK@GNGKFIDB@LocalQuickSlotIndexToGlobalQuic@
CONST	SEGMENT
??_C@_0CK@GNGKFIDB@LocalQuickSlotIndexToGlobalQuic@ DB 'LocalQuickSlotInd'
	DB	'exToGlobalQuickSlotIndex', 00H		; `string'
CONST	ENDS
;	COMDAT ??_C@_0BB@JKIMCMDG@IsAntiFlagBySlot@
CONST	SEGMENT
??_C@_0BB@JKIMCMDG@IsAntiFlagBySlot@ DB 'IsAntiFlagBySlot', 00H ; `string'
CONST	ENDS
;	COMDAT ??_C@_0CL@IEMBKGLN@RequestMoveGlobalQuickSlotToLoc@
CONST	SEGMENT
??_C@_0CL@IEMBKGLN@RequestMoveGlobalQuickSlotToLoc@ DB 'RequestMoveGlobal'
	DB	'QuickSlotToLocalQuickSlot', 00H		; `string'
CONST	ENDS
;	COMDAT ??_C@_0BJ@IBBGPDPH@RequestUseLocalQuickSlot@
CONST	SEGMENT
??_C@_0BJ@IBBGPDPH@RequestUseLocalQuickSlot@ DB 'RequestUseLocalQuickSlot'
	DB	00H						; `string'
CONST	ENDS
;	COMDAT ??_C@_0CA@JMFCJJPL@RequestAddToEmptyLocalQuickSlot@
CONST	SEGMENT
??_C@_0CA@JMFCJJPL@RequestAddToEmptyLocalQuickSlot@ DB 'RequestAddToEmpty'
	DB	'LocalQuickSlot', 00H			; `string'
CONST	ENDS
;	COMDAT ??_C@_0BN@NACLJDMA@RequestDeleteGlobalQuickSlot@
CONST	SEGMENT
??_C@_0BN@NACLJDMA@RequestDeleteGlobalQuickSlot@ DB 'RequestDeleteGlobalQ'
	DB	'uickSlot', 00H				; `string'
CONST	ENDS
;	COMDAT ??_C@_0BB@LANDCIKG@GetAlignmentData@
CONST	SEGMENT
??_C@_0BB@LANDCIKG@GetAlignmentData@ DB 'GetAlignmentData', 00H ; `string'
CONST	ENDS
;	COMDAT ??_C@_0BJ@DNLGAMEO@RequestAddLocalQuickSlot@
CONST	SEGMENT
??_C@_0BJ@DNLGAMEO@RequestAddLocalQuickSlot@ DB 'RequestAddLocalQuickSlot'
	DB	00H						; `string'
CONST	ENDS
;	COMDAT ??_C@_08OAJFGNBC@GetMoney@
CONST	SEGMENT
??_C@_08OAJFGNBC@GetMoney@ DB 'GetMoney', 00H		; `string'
CONST	ENDS
;	COMDAT ??_C@_08LBPCDDLA@GetCoins@
CONST	SEGMENT
??_C@_08LBPCDDLA@GetCoins@ DB 'GetCoins', 00H		; `string'
CONST	ENDS
;	COMDAT ??_C@_09OEBBKEAG@SetStatus@
CONST	SEGMENT
??_C@_09OEBBKEAG@SetStatus@ DB 'SetStatus', 00H		; `string'
CONST	ENDS
;	COMDAT ??_C@_06NMFKJLLH@GetElk@
CONST	SEGMENT
??_C@_06NMFKJLLH@GetElk@ DB 'GetElk', 00H		; `string'
CONST	ENDS
;	COMDAT ??_C@_08MDGBDPHC@GetLevel@
CONST	SEGMENT
??_C@_08MDGBDPHC@GetLevel@ DB 'GetLevel', 00H		; `string'
CONST	ENDS
;	COMDAT ??_C@_09MKFEIFJE@GetStatus@
CONST	SEGMENT
??_C@_09MKFEIFJE@GetStatus@ DB 'GetStatus', 00H		; `string'
CONST	ENDS
;	COMDAT ??_C@_0BI@JIGEMOFF@AffectIndexToSkillIndex@
CONST	SEGMENT
??_C@_0BI@JIGEMOFF@AffectIndexToSkillIndex@ DB 'AffectIndexToSkillIndex', 00H ; `string'
CONST	ENDS
;	COMDAT ??_C@_06MDIKDJMD@GetEXP@
CONST	SEGMENT
??_C@_06MDIKDJMD@GetEXP@ DB 'GetEXP', 00H		; `string'
CONST	ENDS
;	COMDAT ??_C@_0O@IAPCJJAC@IsSkillActive@
CONST	SEGMENT
??_C@_0O@IAPCJJAC@IsSkillActive@ DB 'IsSkillActive', 00H ; `string'
CONST	ENDS
;	COMDAT ??_C@_0O@HHBOBCLE@UseGuildSkill@
CONST	SEGMENT
??_C@_0O@HHBOBCLE@UseGuildSkill@ DB 'UseGuildSkill', 00H ; `string'
CONST	ENDS
;	COMDAT ??_C@_0BA@FOPKKJJD@IsSkillCoolTime@
CONST	SEGMENT
??_C@_0BA@FOPKKJJD@IsSkillCoolTime@ DB 'IsSkillCoolTime', 00H ; `string'
CONST	ENDS
;	COMDAT ??_C@_0BB@CNGGKNGL@GetSkillCoolTime@
CONST	SEGMENT
??_C@_0BB@CNGGKNGL@GetSkillCoolTime@ DB 'GetSkillCoolTime', 00H ; `string'
CONST	ENDS
;	COMDAT ??_C@_0M@DJDCIBLO@GetPlayTime@
CONST	SEGMENT
??_C@_0M@DJDCIBLO@GetPlayTime@ DB 'GetPlayTime', 00H	; `string'
CONST	ENDS
;	COMDAT ??_C@_0M@DGCMFHDN@SetPlayTime@
CONST	SEGMENT
??_C@_0M@DGCMFHDN@SetPlayTime@ DB 'SetPlayTime', 00H	; `string'
CONST	ENDS
;	COMDAT ??_C@_0BE@DBIFLBAC@SendClickItemPacket@
CONST	SEGMENT
??_C@_0BE@DBIFLBAC@SendClickItemPacket@ DB 'SendClickItemPacket', 00H ; `string'
CONST	ENDS
;	COMDAT ??_C@_06FHLNIOPB@GetJob@
CONST	SEGMENT
??_C@_06FHLNIOPB@GetJob@ DB 'GetJob', 00H		; `string'
CONST	ENDS
;	COMDAT ??_C@_0BB@GOKPPDHH@GetItemAttribute@
CONST	SEGMENT
??_C@_0BB@GOKPPDHH@GetItemAttribute@ DB 'GetItemAttribute', 00H ; `string'
CONST	ENDS
;	COMDAT ??_C@_08MHJANHDM@MoveItem@
CONST	SEGMENT
??_C@_08MHJANHDM@MoveItem@ DB 'MoveItem', 00H		; `string'
CONST	ENDS
;	COMDAT ??_C@_0BD@DBLILMFK@GetItemCountByVnum@
CONST	SEGMENT
??_C@_0BD@DBLILMFK@GetItemCountByVnum@ DB 'GetItemCountByVnum', 00H ; `string'
CONST	ENDS
;	COMDAT ??_C@_0BD@JBOBKHIE@GetItemMetinSocket@
CONST	SEGMENT
??_C@_0BD@JBOBKHIE@GetItemMetinSocket@ DB 'GetItemMetinSocket', 00H ; `string'
CONST	ENDS
;	COMDAT ??_C@_0N@DMCGDNGF@GetItemFlags@
CONST	SEGMENT
??_C@_0N@DMCGDNGF@GetItemFlags@ DB 'GetItemFlags', 00H	; `string'
CONST	ENDS
;	COMDAT ??_C@_0N@LEKALLIG@GetItemCount@
CONST	SEGMENT
??_C@_0N@LEKALLIG@GetItemCount@ DB 'GetItemCount', 00H	; `string'
CONST	ENDS
;	COMDAT ??_C@_0BD@GCOFLJAB@DisableToggleSkill@
CONST	SEGMENT
??_C@_0BD@GCOFLJAB@DisableToggleSkill@ DB 'DisableToggleSkill', 00H ; `string'
CONST	ENDS
;	COMDAT ??_C@_0N@GABOCBEH@GetItemIndex@
CONST	SEGMENT
??_C@_0N@GABOCBEH@GetItemIndex@ DB 'GetItemIndex', 00H	; `string'
CONST	ENDS
;	COMDAT ??_C@_0BN@BPJDEKED@ChangeCurrentSkillNumberOnly@
CONST	SEGMENT
??_C@_0BN@BPJDEKED@ChangeCurrentSkillNumberOnly@ DB 'ChangeCurrentSkillNu'
	DB	'mberOnly', 00H				; `string'
CONST	ENDS
;	COMDAT ??_C@_0P@MJOJKOJJ@ClearSkillDict@
CONST	SEGMENT
??_C@_0P@MJOJKOJJ@ClearSkillDict@ DB 'ClearSkillDict', 00H ; `string'
CONST	ENDS
;	COMDAT ??_C@_0CA@JHGONPGM@GetSkillNextEfficientPercentage@
CONST	SEGMENT
??_C@_0CA@JHGONPGM@GetSkillNextEfficientPercentage@ DB 'GetSkillNextEffic'
	DB	'ientPercentage', 00H			; `string'
CONST	ENDS
;	COMDAT ??_C@_0P@IGNHDBHH@ClickSkillSlot@
CONST	SEGMENT
??_C@_0P@IGNHDBHH@ClickSkillSlot@ DB 'ClickSkillSlot', 00H ; `string'
CONST	ENDS
;	COMDAT ??_C@_0O@IIOIANPE@GetSkillGrade@
CONST	SEGMENT
??_C@_0O@IIOIANPE@GetSkillGrade@ DB 'GetSkillGrade', 00H ; `string'
CONST	ENDS
;	COMDAT ??_C@_0CD@EFGGIKHI@GetSkillCurrentEfficientPercent@
CONST	SEGMENT
??_C@_0CD@EFGGIKHI@GetSkillCurrentEfficientPercent@ DB 'GetSkillCurrentEf'
	DB	'ficientPercentage', 00H			; `string'
CONST	ENDS
;	COMDAT ??_C@_08HIFGFOGG@SetSkill@
CONST	SEGMENT
??_C@_08HIFGFOGG@SetSkill@ DB 'SetSkill', 00H		; `string'
CONST	ENDS
;	COMDAT ??_C@_0BC@HNJMANI@GetSkillSlotIndex@
CONST	SEGMENT
??_C@_0BC@HNJMANI@GetSkillSlotIndex@ DB 'GetSkillSlotIndex', 00H ; `string'
CONST	ENDS
;	COMDAT ??_C@_0BE@MCFGJOPA@ResetCameraRotation@
CONST	SEGMENT
??_C@_0BE@MCFGJOPA@ResetCameraRotation@ DB 'ResetCameraRotation', 00H ; `string'
CONST	ENDS
;	COMDAT ??_C@_0BD@DPHLFGPP@SetQuickCameraMode@
CONST	SEGMENT
??_C@_0BD@DPHLFGPP@SetQuickCameraMode@ DB 'SetQuickCameraMode', 00H ; `string'
CONST	ENDS
;	COMDAT ??_C@_0BC@NCHFPCDM@StartMouseWalking@
CONST	SEGMENT
??_C@_0BC@NCHFPCDM@StartMouseWalking@ DB 'StartMouseWalking', 00H ; `string'
CONST	ENDS
;	COMDAT ??_C@_0BA@JEOKFDLP@EndMouseWalking@
CONST	SEGMENT
??_C@_0BA@JEOKFDLP@EndMouseWalking@ DB 'EndMouseWalking', 00H ; `string'
CONST	ENDS
;	COMDAT ??_C@_0BF@PNJNANBI@SetSingleDIKKeyState@
CONST	SEGMENT
??_C@_0BF@PNJNANBI@SetSingleDIKKeyState@ DB 'SetSingleDIKKeyState', 00H ; `string'
CONST	ENDS
;	COMDAT ??_C@_0BJ@HGLJKHIH@EndKeyWalkingImmediately@
CONST	SEGMENT
??_C@_0BJ@HGLJKHIH@EndKeyWalkingImmediately@ DB 'EndKeyWalkingImmediately'
	DB	00H						; `string'
CONST	ENDS
;	COMDAT ??_C@_0BL@IEKDAKHC@SetAutoCameraRotationSpeed@
CONST	SEGMENT
??_C@_0BL@IEKDAKHC@SetAutoCameraRotationSpeed@ DB 'SetAutoCameraRotationS'
	DB	'peed', 00H					; `string'
CONST	ENDS
;	COMDAT ??_C@_0BC@DAIEHFBH@SetAttackKeyState@
CONST	SEGMENT
??_C@_0BC@DAIEHFBH@SetAttackKeyState@ DB 'SetAttackKeyState', 00H ; `string'
CONST	ENDS
;	COMDAT ??_C@_0L@PBBGGCLG@HidePlayer@
CONST	SEGMENT
??_C@_0L@PBBGGCLG@HidePlayer@ DB 'HidePlayer', 00H	; `string'
CONST	ENDS
;	COMDAT ??_C@_0M@GOCDIKPN@ComboAttack@
CONST	SEGMENT
??_C@_0M@GOCDIKPN@ComboAttack@ DB 'ComboAttack', 00H	; `string'
CONST	ENDS
;	COMDAT ??_C@_0L@JEBGMNAH@ActEmotion@
CONST	SEGMENT
??_C@_0L@JEBGMNAH@ActEmotion@ DB 'ActEmotion', 00H	; `string'
CONST	ENDS
;	COMDAT ??_C@_0L@CPMIOCIM@ShowPlayer@
CONST	SEGMENT
??_C@_0L@CPMIOCIM@ShowPlayer@ DB 'ShowPlayer', 00H	; `string'
CONST	ENDS
;	COMDAT ??_C@_0BA@GFJLKENO@IsMountingHorse@
CONST	SEGMENT
??_C@_0BA@GFJLKENO@IsMountingHorse@ DB 'IsMountingHorse', 00H ; `string'
CONST	ENDS
;	COMDAT ??_C@_0P@LDENHACE@IsObserverMode@
CONST	SEGMENT
??_C@_0P@LDENHACE@IsObserverMode@ DB 'IsObserverMode', 00H ; `string'
CONST	ENDS
;	COMDAT ??_C@_0BF@DABJOKIF@GetCharacterDistance@
CONST	SEGMENT
??_C@_0BF@DABJOKIF@GetCharacterDistance@ DB 'GetCharacterDistance', 00H ; `string'
CONST	ENDS
;	COMDAT ??_C@_0N@IKPCBCPA@IsInSafeArea@
CONST	SEGMENT
??_C@_0N@IKPCBCPA@IsInSafeArea@ DB 'IsInSafeArea', 00H	; `string'
CONST	ENDS
;	COMDAT ??_C@_0BC@IKOEAPGC@IsRevengeInstance@
CONST	SEGMENT
??_C@_0BC@IKOEAPGC@IsRevengeInstance@ DB 'IsRevengeInstance', 00H ; `string'
CONST	ENDS
;	COMDAT ??_C@_0BE@HJOMPGKI@IsCantFightInstance@
CONST	SEGMENT
??_C@_0BE@HJOMPGKI@IsCantFightInstance@ DB 'IsCantFightInstance', 00H ; `string'
CONST	ENDS
;	COMDAT ??_C@_0N@CBEDFALN@IsSameEmpire@
CONST	SEGMENT
??_C@_0N@CBEDFALN@IsSameEmpire@ DB 'IsSameEmpire', 00H	; `string'
CONST	ENDS
;	COMDAT ??_C@_0BE@FOIPHJLO@IsChallengeInstance@
CONST	SEGMENT
??_C@_0BE@FOIPHJLO@IsChallengeInstance@ DB 'IsChallengeInstance', 00H ; `string'
CONST	ENDS
;	COMDAT ??_C@_0BA@ODCBPOEF@IsActingEmotion@
CONST	SEGMENT
??_C@_0BA@ODCBPOEF@IsActingEmotion@ DB 'IsActingEmotion', 00H ; `string'
CONST	ENDS
;	COMDAT ??_C@_0O@ECCODAC@IsPVPInstance@
CONST	SEGMENT
??_C@_0O@ECCODAC@IsPVPInstance@ DB 'IsPVPInstance', 00H	; `string'
CONST	ENDS
;	COMDAT ??_C@_0BF@GALHNOAL@IsMainCharacterIndex@
CONST	SEGMENT
??_C@_0BF@GALHNOAL@IsMainCharacterIndex@ DB 'IsMainCharacterIndex', 00H ; `string'
CONST	ENDS
;	COMDAT ??_C@_0BC@FLPEGJDD@CanAttackInstance@
CONST	SEGMENT
??_C@_0BC@FLPEGJDD@CanAttackInstance@ DB 'CanAttackInstance', 00H ; `string'
CONST	ENDS
;	COMDAT ??_C@_0BF@OMDPKDFM@GetMainCharacterName@
CONST	SEGMENT
??_C@_0BF@OMDPKDFM@GetMainCharacterName@ DB 'GetMainCharacterName', 00H ; `string'
CONST	ENDS
;	COMDAT ??_C@_0BJ@GIKFEPMH@GetMainCharacterPosition@
CONST	SEGMENT
??_C@_0BJ@GIKFEPMH@GetMainCharacterPosition@ DB 'GetMainCharacterPosition'
	DB	00H						; `string'
CONST	ENDS
;	COMDAT ??_C@_0BG@JCNMOACA@SetMainCharacterIndex@
CONST	SEGMENT
??_C@_0BG@JCNMOACA@SetMainCharacterIndex@ DB 'SetMainCharacterIndex', 00H ; `string'
CONST	ENDS
;	COMDAT ??_C@_0BG@GHIKDJGB@GetMainCharacterIndex@
CONST	SEGMENT
??_C@_0BG@GHIKDJGB@GetMainCharacterIndex@ DB 'GetMainCharacterIndex', 00H ; `string'
CONST	ENDS
;	COMDAT ??_C@_0N@MACDDOCA@GetMouseFunc@
CONST	SEGMENT
??_C@_0N@MACDDOCA@GetMouseFunc@ DB 'GetMouseFunc', 00H	; `string'
CONST	ENDS
;	COMDAT ??_C@_0BK@JBJLNCBH@SetMouseMiddleButtonState@
CONST	SEGMENT
??_C@_0BK@JBJLNCBH@SetMouseMiddleButtonState@ DB 'SetMouseMiddleButtonSta'
	DB	'te', 00H					; `string'
CONST	ENDS
;	COMDAT ??_C@_0O@HDELDAFI@SetMouseState@
CONST	SEGMENT
??_C@_0O@HDELDAFI@SetMouseState@ DB 'SetMouseState', 00H ; `string'
CONST	ENDS
;	COMDAT ??_C@_0N@LEJNPCGM@SetMouseFunc@
CONST	SEGMENT
??_C@_0N@LEJNPCGM@SetMouseFunc@ DB 'SetMouseFunc', 00H	; `string'
CONST	ENDS
;	COMDAT ??_C@_0BI@JOKOCOKN@PickCloseItemAutoVector@
CONST	SEGMENT
??_C@_0BI@JOKOCOKN@PickCloseItemAutoVector@ DB 'PickCloseItemAutoVector', 00H ; `string'
CONST	ENDS
;	COMDAT ??_C@_0O@MNPFFDEJ@SetGameWindow@
CONST	SEGMENT
??_C@_0O@MNPFFDEJ@SetGameWindow@ DB 'SetGameWindow', 00H ; `string'
CONST	ENDS
;	COMDAT ??_C@_0O@MAEJALBO@PickCloseItem@
CONST	SEGMENT
??_C@_0O@MAEJALBO@PickCloseItem@ DB 'PickCloseItem', 00H ; `string'
CONST	ENDS
;	COMDAT ??_C@_0BE@EFMODMFG@PickCloseItemVector@
CONST	SEGMENT
??_C@_0BE@EFMODMFG@PickCloseItemVector@ DB 'PickCloseItemVector', 00H ; `string'
CONST	ENDS
;	COMDAT ??_C@_0BC@CHIABFDI@GetAutoPotionInfo@
CONST	SEGMENT
??_C@_0BC@CHIABFDI@GetAutoPotionInfo@ DB 'GetAutoPotionInfo', 00H ; `string'
CONST	ENDS
;	COMDAT ??_C@_0BC@CILJOCG@SetAutoPotionInfo@
CONST	SEGMENT
??_C@_0BC@CILJOCG@SetAutoPotionInfo@ DB 'SetAutoPotionInfo', 00H ; `string'
CONST	ENDS
;	COMDAT ??_C@_09BOADOOAM@iiiiiiiii@
CONST	SEGMENT
??_C@_09BOADOOAM@iiiiiiiii@ DB 'iiiiiiiii', 00H		; `string'
CONST	ENDS
;	COMDAT ??_C@_07LLGOIFNB@iiisfff@
CONST	SEGMENT
??_C@_07LLGOIFNB@iiisfff@ DB 'iiisfff', 00H		; `string'
CONST	ENDS
;	COMDAT ??_C@_05EAPDINDK@iiiii@
CONST	SEGMENT
??_C@_05EAPDINDK@iiiii@ DB 'iiiii', 00H			; `string'
CONST	ENDS
;	COMDAT ??_C@_0L@LNJHJPCL@iiiiiiiiii@
CONST	SEGMENT
??_C@_0L@LNJHJPCL@iiiiiiiiii@ DB 'iiiiiiiiii', 00H	; `string'
CONST	ENDS
;	COMDAT ??_C@_07EFJJEBFG@iiiiiii@
CONST	SEGMENT
??_C@_07EFJJEBFG@iiiiiii@ DB 'iiiiiii', 00H		; `string'
CONST	ENDS
;	COMDAT ??_C@_04GPDILEAH@biii@
CONST	SEGMENT
??_C@_04GPDILEAH@biii@ DB 'biii', 00H			; `string'
CONST	ENDS
;	COMDAT ??_C@_0BF@BGKCJNBK@Can?8t?5find?5item?5data@
CONST	SEGMENT
??_C@_0BF@BGKCJNBK@Can?8t?5find?5item?5data@ DB 'Can''t find item data', 00H ; `string'
CONST	ENDS
;	COMDAT ??_C@_0BF@IBGKLIMC@can?8t?5find?5item?5data@
CONST	SEGMENT
??_C@_0BF@IBGKLIMC@can?8t?5find?5item?5data@ DB 'can''t find item data', 00H ; `string'
CONST	ENDS
;	COMDAT ??_C@_06FAMCNHHL@?3?$CFx?3?$CFd@
CONST	SEGMENT
??_C@_06FAMCNHHL@?3?$CFx?3?$CFd@ DB ':%x:%d', 00H	; `string'
CONST	ENDS
;	COMDAT ??_C@_0BK@MGKBEPOF@?5?$HMh?$HMr?$FL?$CFs?$FN?$HMcfff1e6c0?$HMH?$CFs?$HMh@
CONST	SEGMENT
??_C@_0BK@MGKBEPOF@?5?$HMh?$HMr?$FL?$CFs?$FN?$HMcfff1e6c0?$HMH?$CFs?$HMh@ DB ' '
	DB	'|h|r[%s]|cfff1e6c0|H%s|h', 00H		; `string'
CONST	ENDS
;	COMDAT ??_C@_01HHGOMJKL@l@
CONST	SEGMENT
??_C@_01HHGOMJKL@l@ DB 'l', 00H				; `string'
CONST	ENDS
;	COMDAT ??_C@_0BK@MCOKCAKI@?5?$HMh?$HMr?$FL?$CFs?$FN?$HMcffffc700?$HMH?$CFs?$HMh@
CONST	SEGMENT
??_C@_0BK@MCOKCAKI@?5?$HMh?$HMr?$FL?$CFs?$FN?$HMcffffc700?$HMH?$CFs?$HMh@ DB ' '
	DB	'|h|r[%s]|cffffc700|H%s|h', 00H		; `string'
CONST	ENDS
;	COMDAT ??_C@_0EK@IDBGKDBN@playerSetSingleDIKKeyState?$CIeDIK@
CONST	SEGMENT
??_C@_0EK@IDBGKDBN@playerSetSingleDIKKeyState?$CIeDIK@ DB 'playerSetSingl'
	DB	'eDIKKeyState(eDIK, isPressed) - There is no second argument', 00H ; `string'
CONST	ENDS
;	COMDAT ??_C@_02HPEDFNFO@ff@
CONST	SEGMENT
??_C@_02HPEDFNFO@ff@ DB 'ff', 00H			; `string'
CONST	ENDS
;	COMDAT ??_C@_0EA@OHLDKNFC@playerSetAttackKeyState?$CIisPress@
CONST	SEGMENT
??_C@_0EA@OHLDKNFC@playerSetAttackKeyState?$CIisPress@ DB 'playerSetAttac'
	DB	'kKeyState(isPressed) - There is no first argument', 00H ; `string'
CONST	ENDS
;	COMDAT ??_C@_0EJ@BNKMOLIP@playerSetSingleDIKKeyState?$CIeDIK@
CONST	SEGMENT
??_C@_0EJ@BNKMOLIP@playerSetSingleDIKKeyState?$CIeDIK@ DB 'playerSetSingl'
	DB	'eDIKKeyState(eDIK, isPressed) - There is no first argument', 00H ; `string'
CONST	ENDS
;	COMDAT ??_C@_0DF@ILFGGFEI@CPythonPlayer?3?3RegisterEffect?$CIe@
CONST	SEGMENT
??_C@_0DF@ILFGGFEI@CPythonPlayer?3?3RegisterEffect?$CIe@ DB 'CPythonPlaye'
	DB	'r::RegisterEffect(eEft=%d, szFileName=%s', 00H ; `string'
PUBLIC	??$forward@PAVCGraphicImage@@@std@@YA$$QAPAVCGraphicImage@@AAPAV1@@Z ; std::forward<CGraphicImage *>
PUBLIC	??$?0V?$tuple@ABH@std@@V?$tuple@$$V@1@$0A@$$Z$S@?$pair@$$CBHPAVCGraphicImage@@@std@@AAE@AAV?$tuple@ABH@1@AAV?$tuple@$$V@1@U?$integer_sequence@I$0A@@1@U?$integer_sequence@I$S@1@@Z ; std::pair<int const ,CGraphicImage *>::pair<int const ,CGraphicImage *><std::tuple<int const &>,std::tuple<>,0>
PUBLIC	??$?0HPAVCGraphicImage@@$0A@@?$pair@$$CBHPAVCGraphicImage@@@std@@QAE@$$QAU?$pair@HPAVCGraphicImage@@@1@@Z ; std::pair<int const ,CGraphicImage *>::pair<int const ,CGraphicImage *><int,CGraphicImage *,0>
PUBLIC	?_Get_first@?$_Compressed_pair@V?$allocator@U?$_Tree_node@U?$pair@$$CBHPAVCGraphicImage@@@std@@PAX@std@@@std@@V?$_Tree_val@U?$_Tree_simple_types@U?$pair@$$CBHPAVCGraphicImage@@@std@@@std@@@2@$00@std@@QBEABV?$allocator@U?$_Tree_node@U?$pair@$$CBHPAVCGraphicImage@@@std@@PAX@std@@@2@XZ ; std::_Compressed_pair<std::allocator<std::_Tree_node<std::pair<int const ,CGraphicImage *>,void *> >,std::_Tree_val<std::_Tree_simple_types<std::pair<int const ,CGraphicImage *> > >,1>::_Get_first
PUBLIC	??$construct_at@U?$pair@$$CBHPAVCGraphicImage@@@std@@U?$pair@HPAVCGraphicImage@@@2@@std@@YAPAU?$pair@$$CBHPAVCGraphicImage@@@0@QAU10@$$QAU?$pair@HPAVCGraphicImage@@@0@@Z ; std::construct_at<std::pair<int const ,CGraphicImage *>,std::pair<int,CGraphicImage *> >
PUBLIC	??$?0ABH$$Z$$V@?$pair@$$CBHPAVCGraphicImage@@@std@@QAE@Upiecewise_construct_t@1@V?$tuple@ABH@1@V?$tuple@$$V@1@@Z ; std::pair<int const ,CGraphicImage *>::pair<int const ,CGraphicImage *><int const &>
PUBLIC	?_Getal@?$_Tree@V?$_Tmap_traits@HPAVCGraphicImage@@U?$less@H@std@@V?$allocator@U?$pair@$$CBHPAVCGraphicImage@@@std@@@3@$0A@@std@@@std@@IBEABV?$allocator@U?$_Tree_node@U?$pair@$$CBHPAVCGraphicImage@@@std@@PAX@std@@@2@XZ ; std::_Tree<std::_Tmap_traits<int,CGraphicImage *,std::less<int>,std::allocator<std::pair<int const ,CGraphicImage *> >,0> >::_Getal
PUBLIC	?max_size@?$_Default_allocator_traits@V?$allocator@U?$_Tree_node@U?$pair@$$CBHPAVCGraphicImage@@@std@@PAX@std@@@std@@@std@@SAIABV?$allocator@U?$_Tree_node@U?$pair@$$CBHPAVCGraphicImage@@@std@@PAX@std@@@2@@Z ; std::_Default_allocator_traits<std::allocator<std::_Tree_node<std::pair<int const ,CGraphicImage *>,void *> > >::max_size
PUBLIC	?_Get_first@?$_Compressed_pair@U?$less@H@std@@V?$_Compressed_pair@V?$allocator@U?$_Tree_node@U?$pair@$$CBHPAVCGraphicImage@@@std@@PAX@std@@@std@@V?$_Tree_val@U?$_Tree_simple_types@U?$pair@$$CBHPAVCGraphicImage@@@std@@@std@@@2@$00@2@$00@std@@QBEABU?$less@H@2@XZ ; std::_Compressed_pair<std::less<int>,std::_Compressed_pair<std::allocator<std::_Tree_node<std::pair<int const ,CGraphicImage *>,void *> >,std::_Tree_val<std::_Tree_simple_types<std::pair<int const ,CGraphicImage *> > >,1>,1>::_Get_first
PUBLIC	??0?$_Alloc_construct_ptr@V?$allocator@U?$_Tree_node@U?$pair@$$CBHPAVCGraphicImage@@@std@@PAX@std@@@std@@@std@@QAE@AAV?$allocator@U?$_Tree_node@U?$pair@$$CBHPAVCGraphicImage@@@std@@PAX@std@@@1@@Z ; std::_Alloc_construct_ptr<std::allocator<std::_Tree_node<std::pair<int const ,CGraphicImage *>,void *> > >::_Alloc_construct_ptr<std::allocator<std::_Tree_node<std::pair<int const ,CGraphicImage *>,void *> > >
PUBLIC	?_Allocate@?$_Alloc_construct_ptr@V?$allocator@U?$_Tree_node@U?$pair@$$CBHPAVCGraphicImage@@@std@@PAX@std@@@std@@@std@@QAEXXZ ; std::_Alloc_construct_ptr<std::allocator<std::_Tree_node<std::pair<int const ,CGraphicImage *>,void *> > >::_Allocate
PUBLIC	??$construct_at@PAU?$_Tree_node@U?$pair@$$CBHPAVCGraphicImage@@@std@@PAX@std@@AAPAU12@@std@@YAPAPAU?$_Tree_node@U?$pair@$$CBHPAVCGraphicImage@@@std@@PAX@0@QAPAU10@AAPAU10@@Z ; std::construct_at<std::_Tree_node<std::pair<int const ,CGraphicImage *>,void *> *,std::_Tree_node<std::pair<int const ,CGraphicImage *>,void *> * &>
PUBLIC	??$construct_at@U?$pair@$$CBHPAVCGraphicImage@@@std@@ABUpiecewise_construct_t@2@V?$tuple@ABH@2@V?$tuple@$$V@2@@std@@YAPAU?$pair@$$CBHPAVCGraphicImage@@@0@QAU10@ABUpiecewise_construct_t@0@$$QAV?$tuple@ABH@0@$$QAV?$tuple@$$V@0@@Z ; std::construct_at<std::pair<int const ,CGraphicImage *>,std::piecewise_construct_t const &,std::tuple<int const &>,std::tuple<> >
PUBLIC	??$forward@AAPAU?$_Tree_node@U?$pair@$$CBHPAVCGraphicImage@@@std@@PAX@std@@@std@@YAAAPAU?$_Tree_node@U?$pair@$$CBHPAVCGraphicImage@@@std@@PAX@0@AAPAU10@@Z ; std::forward<std::_Tree_node<std::pair<int const ,CGraphicImage *>,void *> * &>
PUBLIC	??$construct@U?$pair@$$CBHPAVCGraphicImage@@@std@@U?$pair@HPAVCGraphicImage@@@2@@?$_Default_allocator_traits@V?$allocator@U?$_Tree_node@U?$pair@$$CBHPAVCGraphicImage@@@std@@PAX@std@@@std@@@std@@SAXAAV?$allocator@U?$_Tree_node@U?$pair@$$CBHPAVCGraphicImage@@@std@@PAX@std@@@1@QAU?$pair@$$CBHPAVCGraphicImage@@@1@$$QAU?$pair@HPAVCGraphicImage@@@1@@Z ; std::_Default_allocator_traits<std::allocator<std::_Tree_node<std::pair<int const ,CGraphicImage *>,void *> > >::construct<std::pair<int const ,CGraphicImage *>,std::pair<int,CGraphicImage *> >
PUBLIC	?max_size@?$_Tree@V?$_Tmap_traits@HPAVCGraphicImage@@U?$less@H@std@@V?$allocator@U?$pair@$$CBHPAVCGraphicImage@@@std@@@3@$0A@@std@@@std@@QBEIXZ ; std::_Tree<std::_Tmap_traits<int,CGraphicImage *,std::less<int>,std::allocator<std::pair<int const ,CGraphicImage *> >,0> >::max_size
PUBLIC	?_Getcomp@?$_Tree@V?$_Tmap_traits@HPAVCGraphicImage@@U?$less@H@std@@V?$allocator@U?$pair@$$CBHPAVCGraphicImage@@@std@@@3@$0A@@std@@@std@@IBEABU?$less@H@2@XZ ; std::_Tree<std::_Tmap_traits<int,CGraphicImage *,std::less<int>,std::allocator<std::pair<int const ,CGraphicImage *> >,0> >::_Getcomp
PUBLIC	?_Lrotate@?$_Tree_val@U?$_Tree_simple_types@U?$pair@$$CBHPAVCGraphicImage@@@std@@@std@@@std@@QAEXPAU?$_Tree_node@U?$pair@$$CBHPAVCGraphicImage@@@std@@PAX@2@@Z ; std::_Tree_val<std::_Tree_simple_types<std::pair<int const ,CGraphicImage *> > >::_Lrotate
PUBLIC	?_Rrotate@?$_Tree_val@U?$_Tree_simple_types@U?$pair@$$CBHPAVCGraphicImage@@@std@@@std@@@std@@QAEXPAU?$_Tree_node@U?$pair@$$CBHPAVCGraphicImage@@@std@@PAX@2@@Z ; std::_Tree_val<std::_Tree_simple_types<std::pair<int const ,CGraphicImage *> > >::_Rrotate
PUBLIC	??0?$_Tree_temp_node_alloc@V?$allocator@U?$_Tree_node@U?$pair@$$CBHPAVCGraphicImage@@@std@@PAX@std@@@std@@@std@@QAE@AAV?$allocator@U?$_Tree_node@U?$pair@$$CBHPAVCGraphicImage@@@std@@PAX@std@@@1@@Z ; std::_Tree_temp_node_alloc<std::allocator<std::_Tree_node<std::pair<int const ,CGraphicImage *>,void *> > >::_Tree_temp_node_alloc<std::allocator<std::_Tree_node<std::pair<int const ,CGraphicImage *>,void *> > >
PUBLIC	??1?$_Alloc_construct_ptr@V?$allocator@U?$_Tree_node@U?$pair@$$CBHPAVCGraphicImage@@@std@@PAX@std@@@std@@@std@@QAE@XZ ; std::_Alloc_construct_ptr<std::allocator<std::_Tree_node<std::pair<int const ,CGraphicImage *>,void *> > >::~_Alloc_construct_ptr<std::allocator<std::_Tree_node<std::pair<int const ,CGraphicImage *>,void *> > >
PUBLIC	?_Extract@?$_In_place_key_extract_map_impl@HU?$pair@HPAVCGraphicImage@@@std@@@std@@SAABHABU?$pair@HPAVCGraphicImage@@@2@@Z ; std::_In_place_key_extract_map_impl<int,std::pair<int,CGraphicImage *> >::_Extract
PUBLIC	??$addressof@$$CBV?$_Tree_val@U?$_Tree_simple_types@U?$pair@$$CBHPAVCGraphicImage@@@std@@@std@@@std@@@std@@YAPBV?$_Tree_val@U?$_Tree_simple_types@U?$pair@$$CBHPAVCGraphicImage@@@std@@@std@@@0@ABV10@@Z ; std::addressof<std::_Tree_val<std::_Tree_simple_types<std::pair<int const ,CGraphicImage *> > > const >
PUBLIC	??$exchange@PAU?$_Tree_node@U?$pair@$$CBHPAVCGraphicImage@@@std@@PAX@std@@$$T@std@@YAPAU?$_Tree_node@U?$pair@$$CBHPAVCGraphicImage@@@std@@PAX@0@AAPAU10@$$QA$$T@Z ; std::exchange<std::_Tree_node<std::pair<int const ,CGraphicImage *>,void *> *,std::nullptr_t>
PUBLIC	??$forward@PAU?$_Tree_node@U?$pair@$$CBHPAVCGraphicImage@@@std@@PAX@std@@@std@@YA$$QAPAU?$_Tree_node@U?$pair@$$CBHPAVCGraphicImage@@@std@@PAX@0@AAPAU10@@Z ; std::forward<std::_Tree_node<std::pair<int const ,CGraphicImage *>,void *> *>
PUBLIC	??$_Construct_in_place@PAU?$_Tree_node@U?$pair@$$CBHPAVCGraphicImage@@@std@@PAX@std@@AAPAU12@@std@@YAXAAPAU?$_Tree_node@U?$pair@$$CBHPAVCGraphicImage@@@std@@PAX@0@0@Z ; std::_Construct_in_place<std::_Tree_node<std::pair<int const ,CGraphicImage *>,void *> *,std::_Tree_node<std::pair<int const ,CGraphicImage *>,void *> * &>
PUBLIC	??$construct@U?$pair@$$CBHPAVCGraphicImage@@@std@@ABUpiecewise_construct_t@2@V?$tuple@ABH@2@V?$tuple@$$V@2@@?$_Default_allocator_traits@V?$allocator@U?$_Tree_node@U?$pair@$$CBHPAVCGraphicImage@@@std@@PAX@std@@@std@@@std@@SAXAAV?$allocator@U?$_Tree_node@U?$pair@$$CBHPAVCGraphicImage@@@std@@PAX@std@@@1@QAU?$pair@$$CBHPAVCGraphicImage@@@1@ABUpiecewise_construct_t@1@$$QAV?$tuple@ABH@1@$$QAV?$tuple@$$V@1@@Z ; std::_Default_allocator_traits<std::allocator<std::_Tree_node<std::pair<int const ,CGraphicImage *>,void *> > >::construct<std::pair<int const ,CGraphicImage *>,std::piecewise_construct_t const &,std::tuple<int const &>,std::tuple<> >
PUBLIC	??$_Kfn@$$CBHPAVCGraphicImage@@@?$_Tmap_traits@HPAVCGraphicImage@@U?$less@H@std@@V?$allocator@U?$pair@$$CBHPAVCGraphicImage@@@std@@@3@$0A@@std@@SAABHABU?$pair@$$CBHPAVCGraphicImage@@@1@@Z ; std::_Tmap_traits<int,CGraphicImage *,std::less<int>,std::allocator<std::pair<int const ,CGraphicImage *> >,0>::_Kfn<int const ,CGraphicImage *>
PUBLIC	??$forward@V?$_Tree_iterator@V?$_Tree_val@U?$_Tree_simple_types@U?$pair@$$CBHPAVCGraphicImage@@@std@@@std@@@std@@@std@@@std@@YA$$QAV?$_Tree_iterator@V?$_Tree_val@U?$_Tree_simple_types@U?$pair@$$CBHPAVCGraphicImage@@@std@@@std@@@std@@@0@AAV10@@Z ; std::forward<std::_Tree_iterator<std::_Tree_val<std::_Tree_simple_types<std::pair<int const ,CGraphicImage *> > > > >
PUBLIC	??$?0AAPAU?$_Tree_node@U?$pair@$$CBHPAVCGraphicImage@@@std@@PAX@std@@_N$0A@@?$pair@PAU?$_Tree_node@U?$pair@$$CBHPAVCGraphicImage@@@std@@PAX@std@@_N@std@@QAE@AAPAU?$_Tree_node@U?$pair@$$CBHPAVCGraphicImage@@@std@@PAX@1@$$QA_N@Z ; std::pair<std::_Tree_node<std::pair<int const ,CGraphicImage *>,void *> *,bool>::pair<std::_Tree_node<std::pair<int const ,CGraphicImage *>,void *> *,bool><std::_Tree_node<std::pair<int const ,CGraphicImage *>,void *> * &,bool,0>
PUBLIC	??$?0U?$pair@HPAVCGraphicImage@@@std@@@?$_Tree_temp_node@V?$allocator@U?$_Tree_node@U?$pair@$$CBHPAVCGraphicImage@@@std@@PAX@std@@@std@@@std@@QAE@AAV?$allocator@U?$_Tree_node@U?$pair@$$CBHPAVCGraphicImage@@@std@@PAX@std@@@1@PAU?$_Tree_node@U?$pair@$$CBHPAVCGraphicImage@@@std@@PAX@1@$$QAU?$pair@HPAVCGraphicImage@@@1@@Z ; std::_Tree_temp_node<std::allocator<std::_Tree_node<std::pair<int const ,CGraphicImage *>,void *> > >::_Tree_temp_node<std::allocator<std::_Tree_node<std::pair<int const ,CGraphicImage *>,void *> > ><std::pair<int,CGraphicImage *> >
PUBLIC	??1?$_Tree_temp_node_alloc@V?$allocator@U?$_Tree_node@U?$pair@$$CBHPAVCGraphicImage@@@std@@PAX@std@@@std@@@std@@QAE@XZ ; std::_Tree_temp_node_alloc<std::allocator<std::_Tree_node<std::pair<int const ,CGraphicImage *>,void *> > >::~_Tree_temp_node_alloc<std::allocator<std::_Tree_node<std::pair<int const ,CGraphicImage *>,void *> > >
PUBLIC	?_Check_grow_by_1@?$_Tree@V?$_Tmap_traits@HPAVCGraphicImage@@U?$less@H@std@@V?$allocator@U?$pair@$$CBHPAVCGraphicImage@@@std@@@3@$0A@@std@@@std@@IAEXXZ ; std::_Tree<std::_Tmap_traits<int,CGraphicImage *,std::less<int>,std::allocator<std::pair<int const ,CGraphicImage *> >,0> >::_Check_grow_by_1
PUBLIC	?_Get_scary@?$_Tree@V?$_Tmap_traits@HPAVCGraphicImage@@U?$less@H@std@@V?$allocator@U?$pair@$$CBHPAVCGraphicImage@@@std@@@3@$0A@@std@@@std@@IBEPBV?$_Tree_val@U?$_Tree_simple_types@U?$pair@$$CBHPAVCGraphicImage@@@std@@@std@@@2@XZ ; std::_Tree<std::_Tmap_traits<int,CGraphicImage *,std::less<int>,std::allocator<std::pair<int const ,CGraphicImage *> >,0> >::_Get_scary
PUBLIC	?_Insert_node@?$_Tree_val@U?$_Tree_simple_types@U?$pair@$$CBHPAVCGraphicImage@@@std@@@std@@@std@@QAEPAU?$_Tree_node@U?$pair@$$CBHPAVCGraphicImage@@@std@@PAX@2@U?$_Tree_id@PAU?$_Tree_node@U?$pair@$$CBHPAVCGraphicImage@@@std@@PAX@std@@@2@QAU32@@Z ; std::_Tree_val<std::_Tree_simple_types<std::pair<int const ,CGraphicImage *> > >::_Insert_node
PUBLIC	??1?$_Tree_temp_node@V?$allocator@U?$_Tree_node@U?$pair@$$CBHPAVCGraphicImage@@@std@@PAX@std@@@std@@@std@@QAE@XZ ; std::_Tree_temp_node<std::allocator<std::_Tree_node<std::pair<int const ,CGraphicImage *>,void *> > >::~_Tree_temp_node<std::allocator<std::_Tree_node<std::pair<int const ,CGraphicImage *>,void *> > >
PUBLIC	?_Release@?$_Alloc_construct_ptr@V?$allocator@U?$_Tree_node@U?$pair@$$CBHPAVCGraphicImage@@@std@@PAX@std@@@std@@@std@@QAEPAU?$_Tree_node@U?$pair@$$CBHPAVCGraphicImage@@@std@@PAX@2@XZ ; std::_Alloc_construct_ptr<std::allocator<std::_Tree_node<std::pair<int const ,CGraphicImage *>,void *> > >::_Release
PUBLIC	??$?0PAU?$_Tree_node@U?$pair@$$CBHPAVCGraphicImage@@@std@@PAX@std@@_N$0A@@?$pair@PAU?$_Tree_node@U?$pair@$$CBHPAVCGraphicImage@@@std@@PAX@std@@_N@std@@QAE@$$QAPAU?$_Tree_node@U?$pair@$$CBHPAVCGraphicImage@@@std@@PAX@1@$$QA_N@Z ; std::pair<std::_Tree_node<std::pair<int const ,CGraphicImage *>,void *> *,bool>::pair<std::_Tree_node<std::pair<int const ,CGraphicImage *>,void *> *,bool><std::_Tree_node<std::pair<int const ,CGraphicImage *>,void *> *,bool,0>
PUBLIC	??$?0ABQAU?$_Tree_node@U?$pair@$$CBHPAVCGraphicImage@@@std@@PAX@std@@_N$0A@@?$pair@PAU?$_Tree_node@U?$pair@$$CBHPAVCGraphicImage@@@std@@PAX@std@@_N@std@@QAE@ABQAU?$_Tree_node@U?$pair@$$CBHPAVCGraphicImage@@@std@@PAX@1@$$QA_N@Z ; std::pair<std::_Tree_node<std::pair<int const ,CGraphicImage *>,void *> *,bool>::pair<std::_Tree_node<std::pair<int const ,CGraphicImage *>,void *> *,bool><std::_Tree_node<std::pair<int const ,CGraphicImage *>,void *> * const &,bool,0>
PUBLIC	??$?0ABUpiecewise_construct_t@std@@V?$tuple@ABH@1@V?$tuple@$$V@1@@?$_Tree_temp_node@V?$allocator@U?$_Tree_node@U?$pair@$$CBHPAVCGraphicImage@@@std@@PAX@std@@@std@@@std@@QAE@AAV?$allocator@U?$_Tree_node@U?$pair@$$CBHPAVCGraphicImage@@@std@@PAX@std@@@1@PAU?$_Tree_node@U?$pair@$$CBHPAVCGraphicImage@@@std@@PAX@1@ABUpiecewise_construct_t@1@$$QAV?$tuple@ABH@1@$$QAV?$tuple@$$V@1@@Z ; std::_Tree_temp_node<std::allocator<std::_Tree_node<std::pair<int const ,CGraphicImage *>,void *> > >::_Tree_temp_node<std::allocator<std::_Tree_node<std::pair<int const ,CGraphicImage *>,void *> > ><std::piecewise_construct_t const &,std::tuple<int const &>,std::tuple<> >
PUBLIC	??$_Lower_bound_duplicate@H@?$_Tree@V?$_Tmap_traits@HPAVCGraphicImage@@U?$less@H@std@@V?$allocator@U?$pair@$$CBHPAVCGraphicImage@@@std@@@3@$0A@@std@@@std@@IBE_NQAU?$_Tree_node@U?$pair@$$CBHPAVCGraphicImage@@@std@@PAX@1@ABH@Z ; std::_Tree<std::_Tmap_traits<int,CGraphicImage *,std::less<int>,std::allocator<std::pair<int const ,CGraphicImage *> >,0> >::_Lower_bound_duplicate<int>
PUBLIC	??$_Find_lower_bound@H@?$_Tree@V?$_Tmap_traits@HPAVCGraphicImage@@U?$less@H@std@@V?$allocator@U?$pair@$$CBHPAVCGraphicImage@@@std@@@3@$0A@@std@@@std@@IBE?AU?$_Tree_find_result@PAU?$_Tree_node@U?$pair@$$CBHPAVCGraphicImage@@@std@@PAX@std@@@1@ABH@Z ; std::_Tree<std::_Tmap_traits<int,CGraphicImage *,std::less<int>,std::allocator<std::pair<int const ,CGraphicImage *> >,0> >::_Find_lower_bound<int>
PUBLIC	??$?0V?$_Tree_iterator@V?$_Tree_val@U?$_Tree_simple_types@U?$pair@$$CBHPAVCGraphicImage@@@std@@@std@@@std@@@std@@AB_N$0A@@?$pair@V?$_Tree_iterator@V?$_Tree_val@U?$_Tree_simple_types@U?$pair@$$CBHPAVCGraphicImage@@@std@@@std@@@std@@@std@@_N@std@@QAE@$$QAV?$_Tree_iterator@V?$_Tree_val@U?$_Tree_simple_types@U?$pair@$$CBHPAVCGraphicImage@@@std@@@std@@@std@@@1@AB_N@Z ; std::pair<std::_Tree_iterator<std::_Tree_val<std::_Tree_simple_types<std::pair<int const ,CGraphicImage *> > > >,bool>::pair<std::_Tree_iterator<std::_Tree_val<std::_Tree_simple_types<std::pair<int const ,CGraphicImage *> > > >,bool><std::_Tree_iterator<std::_Tree_val<std::_Tree_simple_types<std::pair<int const ,CGraphicImage *> > > >,bool const &,0>
PUBLIC	??$_Emplace@U?$pair@HPAVCGraphicImage@@@std@@@?$_Tree@V?$_Tmap_traits@HPAVCGraphicImage@@U?$less@H@std@@V?$allocator@U?$pair@$$CBHPAVCGraphicImage@@@std@@@3@$0A@@std@@@std@@IAE?AU?$pair@PAU?$_Tree_node@U?$pair@$$CBHPAVCGraphicImage@@@std@@PAX@std@@_N@1@$$QAU?$pair@HPAVCGraphicImage@@@1@@Z ; std::_Tree<std::_Tmap_traits<int,CGraphicImage *,std::less<int>,std::allocator<std::pair<int const ,CGraphicImage *> >,0> >::_Emplace<std::pair<int,CGraphicImage *> >
PUBLIC	??0?$_Tree_unchecked_const_iterator@V?$_Tree_val@U?$_Tree_simple_types@U?$pair@$$CBHPAVCGraphicImage@@@std@@@std@@@std@@U_Iterator_base0@2@@std@@QAE@PAU?$_Tree_node@U?$pair@$$CBHPAVCGraphicImage@@@std@@PAX@1@PBV?$_Tree_val@U?$_Tree_simple_types@U?$pair@$$CBHPAVCGraphicImage@@@std@@@std@@@1@@Z ; std::_Tree_unchecked_const_iterator<std::_Tree_val<std::_Tree_simple_types<std::pair<int const ,CGraphicImage *> > >,std::_Iterator_base0>::_Tree_unchecked_const_iterator<std::_Tree_val<std::_Tree_simple_types<std::pair<int const ,CGraphicImage *> > >,std::_Iterator_base0>
PUBLIC	??$_Try_emplace@ABH$$V@?$map@HPAVCGraphicImage@@U?$less@H@std@@V?$allocator@U?$pair@$$CBHPAVCGraphicImage@@@std@@@3@@std@@AAE?AU?$pair@PAU?$_Tree_node@U?$pair@$$CBHPAVCGraphicImage@@@std@@PAX@std@@_N@1@ABH@Z ; std::map<int,CGraphicImage *,std::less<int>,std::allocator<std::pair<int const ,CGraphicImage *> > >::_Try_emplace<int const &>
PUBLIC	??$_Find@H@?$_Tree@V?$_Tmap_traits@HPAVCGraphicImage@@U?$less@H@std@@V?$allocator@U?$pair@$$CBHPAVCGraphicImage@@@std@@@3@$0A@@std@@@std@@ABEPAU?$_Tree_node@U?$pair@$$CBHPAVCGraphicImage@@@std@@PAX@1@ABH@Z ; std::_Tree<std::_Tmap_traits<int,CGraphicImage *,std::less<int>,std::allocator<std::pair<int const ,CGraphicImage *> >,0> >::_Find<int>
PUBLIC	??$emplace@U?$pair@HPAVCGraphicImage@@@std@@@?$_Tree@V?$_Tmap_traits@HPAVCGraphicImage@@U?$less@H@std@@V?$allocator@U?$pair@$$CBHPAVCGraphicImage@@@std@@@3@$0A@@std@@@std@@QAE?AU?$pair@V?$_Tree_iterator@V?$_Tree_val@U?$_Tree_simple_types@U?$pair@$$CBHPAVCGraphicImage@@@std@@@std@@@std@@@std@@_N@1@$$QAU?$pair@HPAVCGraphicImage@@@1@@Z ; std::_Tree<std::_Tmap_traits<int,CGraphicImage *,std::less<int>,std::allocator<std::pair<int const ,CGraphicImage *> >,0> >::emplace<std::pair<int,CGraphicImage *> >
PUBLIC	??$forward@U?$pair@HPAVCGraphicImage@@@std@@@std@@YA$$QAU?$pair@HPAVCGraphicImage@@@0@AAU10@@Z ; std::forward<std::pair<int,CGraphicImage *> >
PUBLIC	??$?0AAHAAPAVCGraphicImage@@$0A@@?$pair@HPAVCGraphicImage@@@std@@QAE@AAHAAPAVCGraphicImage@@@Z ; std::pair<int,CGraphicImage *>::pair<int,CGraphicImage *><int &,CGraphicImage * &,0>
PUBLIC	??$forward@AAPAVCGraphicImage@@@std@@YAAAPAVCGraphicImage@@AAPAV1@@Z ; std::forward<CGraphicImage * &>
PUBLIC	??0?$_Tree_const_iterator@V?$_Tree_val@U?$_Tree_simple_types@U?$pair@$$CBHPAVCGraphicImage@@@std@@@std@@@std@@@std@@QAE@PAU?$_Tree_node@U?$pair@$$CBHPAVCGraphicImage@@@std@@PAX@1@PBV?$_Tree_val@U?$_Tree_simple_types@U?$pair@$$CBHPAVCGraphicImage@@@std@@@std@@@1@@Z ; std::_Tree_const_iterator<std::_Tree_val<std::_Tree_simple_types<std::pair<int const ,CGraphicImage *> > > >::_Tree_const_iterator<std::_Tree_val<std::_Tree_simple_types<std::pair<int const ,CGraphicImage *> > > >
PUBLIC	??0?$_Tree_iterator@V?$_Tree_val@U?$_Tree_simple_types@U?$pair@$$CBHPAVCGraphicImage@@@std@@@std@@@std@@@std@@QAE@PAU?$_Tree_node@U?$pair@$$CBHPAVCGraphicImage@@@std@@PAX@1@PBV?$_Tree_val@U?$_Tree_simple_types@U?$pair@$$CBHPAVCGraphicImage@@@std@@@std@@@1@@Z ; std::_Tree_iterator<std::_Tree_val<std::_Tree_simple_types<std::pair<int const ,CGraphicImage *> > > >::_Tree_iterator<std::_Tree_val<std::_Tree_simple_types<std::pair<int const ,CGraphicImage *> > > >
PUBLIC	??A?$map@HPAVCGraphicImage@@U?$less@H@std@@V?$allocator@U?$pair@$$CBHPAVCGraphicImage@@@std@@@3@@std@@QAEAAPAVCGraphicImage@@ABH@Z ; std::map<int,CGraphicImage *,std::less<int>,std::allocator<std::pair<int const ,CGraphicImage *> > >::operator[]
PUBLIC	?InstancePtr@?$CSingleton@VCPythonPlayer@@@@SAPAVCPythonPlayer@@XZ ; CSingleton<CPythonPlayer>::InstancePtr
PUBLIC	?end@?$_Tree@V?$_Tmap_traits@HPAVCGraphicImage@@U?$less@H@std@@V?$allocator@U?$pair@$$CBHPAVCGraphicImage@@@std@@@3@$0A@@std@@@std@@QAE?AV?$_Tree_iterator@V?$_Tree_val@U?$_Tree_simple_types@U?$pair@$$CBHPAVCGraphicImage@@@std@@@std@@@std@@@2@XZ ; std::_Tree<std::_Tmap_traits<int,CGraphicImage *,std::less<int>,std::allocator<std::pair<int const ,CGraphicImage *> >,0> >::end
PUBLIC	?find@?$_Tree@V?$_Tmap_traits@HPAVCGraphicImage@@U?$less@H@std@@V?$allocator@U?$pair@$$CBHPAVCGraphicImage@@@std@@@3@$0A@@std@@@std@@QAE?AV?$_Tree_iterator@V?$_Tree_val@U?$_Tree_simple_types@U?$pair@$$CBHPAVCGraphicImage@@@std@@@std@@@std@@@2@ABH@Z ; std::_Tree<std::_Tmap_traits<int,CGraphicImage *,std::less<int>,std::allocator<std::pair<int const ,CGraphicImage *> >,0> >::find
PUBLIC	??8?$_Tree_const_iterator@V?$_Tree_val@U?$_Tree_simple_types@U?$pair@$$CBHPAVCGraphicImage@@@std@@@std@@@std@@@std@@QBE_NABV01@@Z ; std::_Tree_const_iterator<std::_Tree_val<std::_Tree_simple_types<std::pair<int const ,CGraphicImage *> > > >::operator==
PUBLIC	??$insert@U?$pair@HPAVCGraphicImage@@@std@@$0A@@?$map@HPAVCGraphicImage@@U?$less@H@std@@V?$allocator@U?$pair@$$CBHPAVCGraphicImage@@@std@@@3@@std@@QAE?AU?$pair@V?$_Tree_iterator@V?$_Tree_val@U?$_Tree_simple_types@U?$pair@$$CBHPAVCGraphicImage@@@std@@@std@@@std@@@std@@_N@1@$$QAU?$pair@HPAVCGraphicImage@@@1@@Z ; std::map<int,CGraphicImage *,std::less<int>,std::allocator<std::pair<int const ,CGraphicImage *> > >::insert<std::pair<int,CGraphicImage *>,0>
PUBLIC	??$make_pair@AAHAAPAVCGraphicImage@@@std@@YA?AU?$pair@HPAVCGraphicImage@@@0@AAHAAPAVCGraphicImage@@@Z ; std::make_pair<int &,CGraphicImage * &>
PUBLIC	?initPlayer@@YAXXZ				; initPlayer
PUBLIC	?playerGetChangeChangeLookPrice@@YAPAU_object@@PAU1@0@Z ; playerGetChangeChangeLookPrice
PUBLIC	?playerGetChangeWIndowChangeLookVnum@@YAPAU_object@@PAU1@0@Z ; playerGetChangeWIndowChangeLookVnum
PUBLIC	?playerCanChangeLookClearItem@@YAPAU_object@@PAU1@0@Z ; playerCanChangeLookClearItem
PUBLIC	?playerGetChangeLookFreeYangInvenSlotPos@@YAPAU_object@@PAU1@0@Z ; playerGetChangeLookFreeYangInvenSlotPos
PUBLIC	?playerGetChangeLookFreeYangItemID@@YAPAU_object@@PAU1@0@Z ; playerGetChangeLookFreeYangItemID
PUBLIC	?playerGetChangeLookItemInvenSlot@@YAPAU_object@@PAU1@0@Z ; playerGetChangeLookItemInvenSlot
PUBLIC	?playerGetChangeLookItemID@@YAPAU_object@@PAU1@0@Z ; playerGetChangeLookItemID
PUBLIC	?playerSetChangeLookWindowType@@YAPAU_object@@PAU1@0@Z ; playerSetChangeLookWindowType
PUBLIC	?playerGetChangeLookWindowOpen@@YAPAU_object@@PAU1@0@Z ; playerGetChangeLookWindowOpen
PUBLIC	?playerSetChangeLookWindow@@YAPAU_object@@PAU1@0@Z ; playerSetChangeLookWindow
PUBLIC	?playerGetChangeLookVnum@@YAPAU_object@@PAU1@0@Z ; playerGetChangeLookVnum
PUBLIC	?playerLoadNewRegen@@YAPAU_object@@PAU1@0@Z	; playerLoadNewRegen
PUBLIC	?playerCanUseGrowthPetQuickSlot@@YAPAU_object@@PAU1@0@Z ; playerCanUseGrowthPetQuickSlot
PUBLIC	?playerGetPetLifeTime@@YAPAU_object@@PAU1@0@Z	; playerGetPetLifeTime
PUBLIC	?playerGetPetItem@@YAPAU_object@@PAU1@0@Z	; playerGetPetItem
PUBLIC	?playerGetPetExpPoints@@YAPAU_object@@PAU1@0@Z	; playerGetPetExpPoints
PUBLIC	?playerGetActivePetItemVNum@@YAPAU_object@@PAU1@0@Z ; playerGetActivePetItemVNum
PUBLIC	?playerGetPetSkillByIndex@@YAPAU_object@@PAU1@0@Z ; playerGetPetSkillByIndex
PUBLIC	?playerGetPetSkill@@YAPAU_object@@PAU1@0@Z	; playerGetPetSkill
PUBLIC	?playerGetPetItemVNumInBag@@YAPAU_object@@PAU1@0@Z ; playerGetPetItemVNumInBag
PUBLIC	?playerGetActivePetItemId@@YAPAU_object@@PAU1@0@Z ; playerGetActivePetItemId
PUBLIC	?playerIsOpenMall@@YAPAU_object@@PAU1@0@Z	; playerIsOpenMall
PUBLIC	?playerSetOpenSafeBox@@YAPAU_object@@PAU1@0@Z	; playerSetOpenSafeBox
PUBLIC	?playerSetOpenMall@@YAPAU_object@@PAU1@0@Z	; playerSetOpenMall
PUBLIC	?playerIsOpenPetFeedWindow@@YAPAU_object@@PAU1@0@Z ; playerIsOpenPetFeedWindow
PUBLIC	?playerIsOpenPetNameChangeWindow@@YAPAU_object@@PAU1@0@Z ; playerIsOpenPetNameChangeWindow
PUBLIC	?playerIsOpenPetHatchingWindow@@YAPAU_object@@PAU1@0@Z ; playerIsOpenPetHatchingWindow
PUBLIC	?playerSetOpenPetFeedWindow@@YAPAU_object@@PAU1@0@Z ; playerSetOpenPetFeedWindow
PUBLIC	?playerSetOpenPetNameChangeWindow@@YAPAU_object@@PAU1@0@Z ; playerSetOpenPetNameChangeWindow
PUBLIC	?playerSetOpenPetHatchingWindow@@YAPAU_object@@PAU1@0@Z ; playerSetOpenPetHatchingWindow
PUBLIC	?playerGetAuraRefineInfoLevel@@YAPAU_object@@PAU1@0@Z ; playerGetAuraRefineInfoLevel
PUBLIC	?playerGetAuraRefineInfoExpPer@@YAPAU_object@@PAU1@0@Z ; playerGetAuraRefineInfoExpPer
PUBLIC	?playerGetAuraRefineInfo@@YAPAU_object@@PAU1@0@Z ; playerGetAuraRefineInfo
PUBLIC	?playerFindUsingAuraSlot@@YAPAU_object@@PAU1@0@Z ; playerFindUsingAuraSlot
PUBLIC	?playerFindActivatedAuraSlot@@YAPAU_object@@PAU1@0@Z ; playerFindActivatedAuraSlot
PUBLIC	?playerSetAuraActivatedItemSlot@@YAPAU_object@@PAU1@0@Z ; playerSetAuraActivatedItemSlot
PUBLIC	?playerFineMoveAuraItemSlot@@YAPAU_object@@PAU1@0@Z ; playerFineMoveAuraItemSlot
PUBLIC	?playerGetAuraRefineWindowType@@YAPAU_object@@PAU1@0@Z ; playerGetAuraRefineWindowType
PUBLIC	?playerIsAuraRefineWindowOpen@@YAPAU_object@@PAU1@0@Z ; playerIsAuraRefineWindowOpen
PUBLIC	?playerGetAuraCurrentItemSlotCount@@YAPAU_object@@PAU1@0@Z ; playerGetAuraCurrentItemSlotCount
PUBLIC	?playerIsAuraRefineWindowEmpty@@YAPAU_object@@PAU1@0@Z ; playerIsAuraRefineWindowEmpty
PUBLIC	?playerGetAuraItemAttribute@@YAPAU_object@@PAU1@0@Z ; playerGetAuraItemAttribute
PUBLIC	?playerGetAuraItemMetinSocket@@YAPAU_object@@PAU1@0@Z ; playerGetAuraItemMetinSocket
PUBLIC	?playerGetAuraItemCount@@YAPAU_object@@PAU1@0@Z	; playerGetAuraItemCount
PUBLIC	?playerGetAuraItemID@@YAPAU_object@@PAU1@0@Z	; playerGetAuraItemID
PUBLIC	?playerGetSkillColor@@YAPAU_object@@PAU1@0@Z	; playerGetSkillColor
PUBLIC	?playerSetSkillColor@@YAPAU_object@@PAU1@0@Z	; playerSetSkillColor
PUBLIC	?playerGetPremiumBattlePassID@@YAPAU_object@@PAU1@0@Z ; playerGetPremiumBattlePassID
PUBLIC	?playerCanInteract@@YAPAU_object@@PAU1@0@Z	; playerCanInteract
PUBLIC	?playerGetItemSlotIndex@@YAPAU_object@@PAU1@0@Z	; playerGetItemSlotIndex
PUBLIC	?playerGetMainCharacterPart@@YAPAU_object@@PAU1@0@Z ; playerGetMainCharacterPart
PUBLIC	?playerNPOS@@YAPAU_object@@PAU1@0@Z		; playerNPOS
PUBLIC	?playerClearAutoAttackTargetActorID@@YAPAU_object@@PAU1@0@Z ; playerClearAutoAttackTargetActorID
PUBLIC	?playerSendDragonSoulRefine@@YAPAU_object@@PAU1@0@Z ; playerSendDragonSoulRefine
PUBLIC	?playerIsAvailableBeltInventoryCell@@YAPAU_object@@PAU1@0@Z ; playerIsAvailableBeltInventoryCell
PUBLIC	?playerIsEquippingBelt@@YAPAU_object@@PAU1@0@Z	; playerIsEquippingBelt
PUBLIC	?playerSlotTypeToInvenType@@YAPAU_object@@PAU1@0@Z ; playerSlotTypeToInvenType
PUBLIC	?playerGetAutoPotionInfo@@YAPAU_object@@PAU1@0@Z ; playerGetAutoPotionInfo
PUBLIC	?playerSetAutoPotionInfo@@YAPAU_object@@PAU1@0@Z ; playerSetAutoPotionInfo
PUBLIC	?playerSetItemAttribute@@YAPAU_object@@PAU1@0@Z	; playerSetItemAttribute
PUBLIC	?playerSetItemMetinSocket@@YAPAU_object@@PAU1@0@Z ; playerSetItemMetinSocket
PUBLIC	?playerSetItemData@@YAPAU_object@@PAU1@0@Z	; playerSetItemData
PUBLIC	?playerGetEmotionIconImage@@YAPAU_object@@PAU1@0@Z ; playerGetEmotionIconImage
PUBLIC	?playerRegisterEmotionIcon@@YAPAU_object@@PAU1@0@Z ; playerRegisterEmotionIcon
PUBLIC	?playerGetTargetVID@@YAPAU_object@@PAU1@0@Z	; playerGetTargetVID
PUBLIC	?playerToggleLevelLimit@@YAPAU_object@@PAU1@0@Z	; playerToggleLevelLimit
PUBLIC	?playerToggleCoolTime@@YAPAU_object@@PAU1@0@Z	; playerToggleCoolTime
PUBLIC	?playerSetWeaponAttackBonusFlag@@YAPAU_object@@PAU1@0@Z ; playerSetWeaponAttackBonusFlag
PUBLIC	?playerGetPKMode@@YAPAU_object@@PAU1@0@Z	; playerGetPKMode
PUBLIC	?playerExitParty@@YAPAU_object@@PAU1@0@Z	; playerExitParty
PUBLIC	?playerRemovePartyMember@@YAPAU_object@@PAU1@0@Z ; playerRemovePartyMember
PUBLIC	?playerGetPartyMemberAffects@@YAPAU_object@@PAU1@0@Z ; playerGetPartyMemberAffects
PUBLIC	?playerGetPartyMemberState@@YAPAU_object@@PAU1@0@Z ; playerGetPartyMemberState
PUBLIC	?playerGetPartyMemberHPPercentage@@YAPAU_object@@PAU1@0@Z ; playerGetPartyMemberHPPercentage
PUBLIC	?playerIsPartyLeaderByPID@@YAPAU_object@@PAU1@0@Z ; playerIsPartyLeaderByPID
PUBLIC	?playerIsPartyLeader@@YAPAU_object@@PAU1@0@Z	; playerIsPartyLeader
PUBLIC	?playerIsPartyMember@@YAPAU_object@@PAU1@0@Z	; playerIsPartyMember
PUBLIC	?playerOpenCharacterMenu@@YAPAU_object@@PAU1@0@Z ; playerOpenCharacterMenu
PUBLIC	?playerSetTarget@@YAPAU_object@@PAU1@0@Z	; playerSetTarget
PUBLIC	?playerClearTarget@@YAPAU_object@@PAU1@0@Z	; playerClearTarget
PUBLIC	?playerClear@@YAPAU_object@@PAU1@0@Z		; playerClear
PUBLIC	?playerRender@@YAPAU_object@@PAU1@0@Z		; playerRender
PUBLIC	?playerUpdate@@YAPAU_object@@PAU1@0@Z		; playerUpdate
PUBLIC	?playerIsRefineGradeScroll@@YAPAU_object@@PAU1@0@Z ; playerIsRefineGradeScroll
PUBLIC	?playerCanUnlock@@YAPAU_object@@PAU1@0@Z	; playerCanUnlock
PUBLIC	?playerCanDetach@@YAPAU_object@@PAU1@0@Z	; playerCanDetach
PUBLIC	?playerCanAttachMetin@@YAPAU_object@@PAU1@0@Z	; playerCanAttachMetin
PUBLIC	?playerCanRefine@@YAPAU_object@@PAU1@0@Z	; playerCanRefine
PUBLIC	?playerGetItemGrade@@YAPAU_object@@PAU1@0@Z	; playerGetItemGrade
PUBLIC	?GetItemGrade@@YAHPBD@Z				; GetItemGrade
PUBLIC	?playerIsValuableItem@@YAPAU_object@@PAU1@0@Z	; playerIsValuableItem
PUBLIC	?playerIsOpenPrivateShop@@YAPAU_object@@PAU1@0@Z ; playerIsOpenPrivateShop
PUBLIC	?playerIsCostumeSlot@@YAPAU_object@@PAU1@0@Z	; playerIsCostumeSlot
PUBLIC	?playerIsDSEquipmentSlot@@YAPAU_object@@PAU1@0@Z ; playerIsDSEquipmentSlot
PUBLIC	?playerIsEquipmentSlot@@YAPAU_object@@PAU1@0@Z	; playerIsEquipmentSlot
PUBLIC	?playerIsChangersInventorySlot@@YAPAU_object@@PAU1@0@Z ; playerIsChangersInventorySlot
PUBLIC	?playerIsGiftBoxInventorySlot@@YAPAU_object@@PAU1@0@Z ; playerIsGiftBoxInventorySlot
PUBLIC	?playerIsStoneInventorySlot@@YAPAU_object@@PAU1@0@Z ; playerIsStoneInventorySlot
PUBLIC	?playerIsUpgradeItemsInventorySlot@@YAPAU_object@@PAU1@0@Z ; playerIsUpgradeItemsInventorySlot
PUBLIC	?playerIsSkillBookInventorySlot@@YAPAU_object@@PAU1@0@Z ; playerIsSkillBookInventorySlot
PUBLIC	?playerIsBeltInventorySlot@@YAPAU_object@@PAU1@0@Z ; playerIsBeltInventorySlot
PUBLIC	?playerisItem@@YAPAU_object@@PAU1@0@Z		; playerisItem
PUBLIC	?playerRemoveQuickSlotByValue@@YAPAU_object@@PAU1@0@Z ; playerRemoveQuickSlotByValue
PUBLIC	?playerRequestUseLocalQuickSlot@@YAPAU_object@@PAU1@0@Z ; playerRequestUseLocalQuickSlot
PUBLIC	?playerRequestMoveGlobalQuickSlotToLocalQuickSlot@@YAPAU_object@@PAU1@0@Z ; playerRequestMoveGlobalQuickSlotToLocalQuickSlot
PUBLIC	?playerRequestDeleteGlobalQuickSlot@@YAPAU_object@@PAU1@0@Z ; playerRequestDeleteGlobalQuickSlot
PUBLIC	?playerRequestAddToEmptyLocalQuickSlot@@YAPAU_object@@PAU1@0@Z ; playerRequestAddToEmptyLocalQuickSlot
PUBLIC	?playerRequestAddLocalQuickSlot@@YAPAU_object@@PAU1@0@Z ; playerRequestAddLocalQuickSlot
PUBLIC	?playerGetGlobalQuickSlot@@YAPAU_object@@PAU1@0@Z ; playerGetGlobalQuickSlot
PUBLIC	?playerGetLocalQuickSlot@@YAPAU_object@@PAU1@0@Z ; playerGetLocalQuickSlot
PUBLIC	?playerLocalQuickSlotIndexToGlobalQuickSlotIndex@@YAPAU_object@@PAU1@0@Z ; playerLocalQuickSlotIndexToGlobalQuickSlotIndex
PUBLIC	?playerSetQuickPage@@YAPAU_object@@PAU1@0@Z	; playerSetQuickPage
PUBLIC	?playerGetQuickPage@@YAPAU_object@@PAU1@0@Z	; playerGetQuickPage
PUBLIC	?playerGetISellItemPrice@@YAPAU_object@@PAU1@0@Z ; playerGetISellItemPrice
PUBLIC	?playerGetItemLink@@YAPAU_object@@PAU1@0@Z	; playerGetItemLink
PUBLIC	?playerGetItemAttribute@@YAPAU_object@@PAU1@0@Z	; playerGetItemAttribute
PUBLIC	?playerGetItemMetinSocket@@YAPAU_object@@PAU1@0@Z ; playerGetItemMetinSocket
PUBLIC	?playerGetItemCountByVnum@@YAPAU_object@@PAU1@0@Z ; playerGetItemCountByVnum
PUBLIC	?playerSetItemCount@@YAPAU_object@@PAU1@0@Z	; playerSetItemCount
PUBLIC	?playerGetItemCount@@YAPAU_object@@PAU1@0@Z	; playerGetItemCount
PUBLIC	?playerGetItemFlags@@YAPAU_object@@PAU1@0@Z	; playerGetItemFlags
PUBLIC	?playerGetItemIndex@@YAPAU_object@@PAU1@0@Z	; playerGetItemIndex
PUBLIC	?playerSendClickItemPacket@@YAPAU_object@@PAU1@0@Z ; playerSendClickItemPacket
PUBLIC	?playerMoveItem@@YAPAU_object@@PAU1@0@Z		; playerMoveItem
PUBLIC	?playerDisableToggleSkill@@YAPAU_object@@PAU1@0@Z ; playerDisableToggleSkill
PUBLIC	?playerClearSkillDict@@YAPAU_object@@PAU1@0@Z	; playerClearSkillDict
PUBLIC	?playerChangeCurrentSkillNumberOnly@@YAPAU_object@@PAU1@0@Z ; playerChangeCurrentSkillNumberOnly
PUBLIC	?playerClickSkillSlot@@YAPAU_object@@PAU1@0@Z	; playerClickSkillSlot
PUBLIC	?playerGetSkillNextEfficientPercentage@@YAPAU_object@@PAU1@0@Z ; playerGetSkillNextEfficientPercentage
PUBLIC	?playerGetSkillCurrentEfficientPercentage@@YAPAU_object@@PAU1@0@Z ; playerGetSkillCurrentEfficientPercentage
PUBLIC	?playerGetSkillLevel@@YAPAU_object@@PAU1@0@Z	; playerGetSkillLevel
PUBLIC	?playerGetSkillGrade@@YAPAU_object@@PAU1@0@Z	; playerGetSkillGrade
PUBLIC	?playerGetSkillSlotIndex@@YAPAU_object@@PAU1@0@Z ; playerGetSkillSlotIndex
PUBLIC	?playerGetSkillIndex@@YAPAU_object@@PAU1@0@Z	; playerGetSkillIndex
PUBLIC	?playerSetSkill@@YAPAU_object@@PAU1@0@Z		; playerSetSkill
PUBLIC	?playerGetAlignmentData@@YAPAU_object@@PAU1@0@Z	; playerGetAlignmentData
PUBLIC	?playerGetGuildName@@YAPAU_object@@PAU1@0@Z	; playerGetGuildName
PUBLIC	?playerGetGuildID@@YAPAU_object@@PAU1@0@Z	; playerGetGuildID
PUBLIC	?playerGetCoins@@YAPAU_object@@PAU1@0@Z		; playerGetCoins
PUBLIC	?playerGetElk@@YAPAU_object@@PAU1@0@Z		; playerGetElk
PUBLIC	?playerSetStatus@@YAPAU_object@@PAU1@0@Z	; playerSetStatus
PUBLIC	?playerGetStatus@@YAPAU_object@@PAU1@0@Z	; playerGetStatus
PUBLIC	?playerGetLevel@@YAPAU_object@@PAU1@0@Z		; playerGetLevel
PUBLIC	?playerGetEXP@@YAPAU_object@@PAU1@0@Z		; playerGetEXP
PUBLIC	?playerAffectIndexToSkillIndex@@YAPAU_object@@PAU1@0@Z ; playerAffectIndexToSkillIndex
PUBLIC	?playerUseGuildSkill@@YAPAU_object@@PAU1@0@Z	; playerUseGuildSkill
PUBLIC	?playerIsSkillActive@@YAPAU_object@@PAU1@0@Z	; playerIsSkillActive
PUBLIC	?playerGetSkillCoolTime@@YAPAU_object@@PAU1@0@Z	; playerGetSkillCoolTime
PUBLIC	?playerIsSameItemVnum@@YAPAU_object@@PAU1@0@Z	; playerIsSameItemVnum
PUBLIC	?playerGetItemSubTypeBySlot@@YAPAU_object@@PAU1@0@Z ; playerGetItemSubTypeBySlot
PUBLIC	?playerGetItemTypeBySlot@@YAPAU_object@@PAU1@0@Z ; playerGetItemTypeBySlot
PUBLIC	?playerIsAntiFlagBySlot@@YAPAU_object@@PAU1@0@Z	; playerIsAntiFlagBySlot
PUBLIC	?playerIsSkillCoolTime@@YAPAU_object@@PAU1@0@Z	; playerIsSkillCoolTime
PUBLIC	?playerSetPlayTime@@YAPAU_object@@PAU1@0@Z	; playerSetPlayTime
PUBLIC	?playerGetPlayTime@@YAPAU_object@@PAU1@0@Z	; playerGetPlayTime
PUBLIC	?playerGetJob@@YAPAU_object@@PAU1@0@Z		; playerGetJob
PUBLIC	?playerGetRace@@YAPAU_object@@PAU1@0@Z		; playerGetRace
PUBLIC	?playerGetName@@YAPAU_object@@PAU1@0@Z		; playerGetName
PUBLIC	?playerSetMouseMiddleButtonState@@YAPAU_object@@PAU1@0@Z ; playerSetMouseMiddleButtonState
PUBLIC	?playerGetMouseFunc@@YAPAU_object@@PAU1@0@Z	; playerGetMouseFunc
PUBLIC	?playerSetMouseFunc@@YAPAU_object@@PAU1@0@Z	; playerSetMouseFunc
PUBLIC	?playerSetMouseState@@YAPAU_object@@PAU1@0@Z	; playerSetMouseState
PUBLIC	?playerSetAutoCameraRotationSpeed@@YAPAU_object@@PAU1@0@Z ; playerSetAutoCameraRotationSpeed
PUBLIC	?playerResetCameraRotation@@YAPAU_object@@PAU1@0@Z ; playerResetCameraRotation
PUBLIC	?playerEndMouseWalking@@YAPAU_object@@PAU1@0@Z	; playerEndMouseWalking
PUBLIC	?playerStartMouseWalking@@YAPAU_object@@PAU1@0@Z ; playerStartMouseWalking
PUBLIC	?playerEndKeyWalkingImmediately@@YAPAU_object@@PAU1@0@Z ; playerEndKeyWalkingImmediately
PUBLIC	?playerSetSingleDIKKeyState@@YAPAU_object@@PAU1@0@Z ; playerSetSingleDIKKeyState
PUBLIC	?playerSetAttackKeyState@@YAPAU_object@@PAU1@0@Z ; playerSetAttackKeyState
PUBLIC	?playerRegisterCacheEffect@@YAPAU_object@@PAU1@0@Z ; playerRegisterCacheEffect
PUBLIC	?playerRegisterEffect@@YAPAU_object@@PAU1@0@Z	; playerRegisterEffect
PUBLIC	?playerComboAttack@@YAPAU_object@@PAU1@0@Z	; playerComboAttack
PUBLIC	?playerHidePlayer@@YAPAU_object@@PAU1@0@Z	; playerHidePlayer
PUBLIC	?playerShowPlayer@@YAPAU_object@@PAU1@0@Z	; playerShowPlayer
PUBLIC	?playerActEmotion@@YAPAU_object@@PAU1@0@Z	; playerActEmotion
PUBLIC	?playerIsObserverMode@@YAPAU_object@@PAU1@0@Z	; playerIsObserverMode
PUBLIC	?playerIsMountingHorse@@YAPAU_object@@PAU1@0@Z	; playerIsMountingHorse
PUBLIC	?playerIsInSafeArea@@YAPAU_object@@PAU1@0@Z	; playerIsInSafeArea
PUBLIC	?playerGetCharacterDistance@@YAPAU_object@@PAU1@0@Z ; playerGetCharacterDistance
PUBLIC	?playerIsCantFightInstance@@YAPAU_object@@PAU1@0@Z ; playerIsCantFightInstance
PUBLIC	?playerIsRevengeInstance@@YAPAU_object@@PAU1@0@Z ; playerIsRevengeInstance
PUBLIC	?playerIsChallengeInstance@@YAPAU_object@@PAU1@0@Z ; playerIsChallengeInstance
PUBLIC	?playerIsSameEmpire@@YAPAU_object@@PAU1@0@Z	; playerIsSameEmpire
PUBLIC	?playerIsPVPInstance@@YAPAU_object@@PAU1@0@Z	; playerIsPVPInstance
PUBLIC	?playerIsActingEmotion@@YAPAU_object@@PAU1@0@Z	; playerIsActingEmotion
PUBLIC	?playerCanAttackInstance@@YAPAU_object@@PAU1@0@Z ; playerCanAttackInstance
PUBLIC	?playerIsMainCharacterIndex@@YAPAU_object@@PAU1@0@Z ; playerIsMainCharacterIndex
PUBLIC	?playerGetMainCharacterPosition@@YAPAU_object@@PAU1@0@Z ; playerGetMainCharacterPosition
PUBLIC	?playerGetMainCharacterName@@YAPAU_object@@PAU1@0@Z ; playerGetMainCharacterName
PUBLIC	?playerGetMainCharacterIndex@@YAPAU_object@@PAU1@0@Z ; playerGetMainCharacterIndex
PUBLIC	?playerSetMainCharacterIndex@@YAPAU_object@@PAU1@0@Z ; playerSetMainCharacterIndex
PUBLIC	?playerSetQuickCameraMode@@YAPAU_object@@PAU1@0@Z ; playerSetQuickCameraMode
PUBLIC	?playerSetGameWindow@@YAPAU_object@@PAU1@0@Z	; playerSetGameWindow
PUBLIC	?playerPickCloseItemAutoVector@@YAPAU_object@@PAU1@0@Z ; playerPickCloseItemAutoVector
PUBLIC	?playerPickCloseItemVector@@YAPAU_object@@PAU1@0@Z ; playerPickCloseItemVector
PUBLIC	?playerPickCloseItem@@YAPAU_object@@PAU1@0@Z	; playerPickCloseItem
PUBLIC	?IsAvailableCell@CBeltInventoryHelper@@SA_NGH@Z	; CBeltInventoryHelper::IsAvailableCell
PUBLIC	?GetAvailableRuleTableByGrade@CBeltInventoryHelper@@SAPBEXZ ; CBeltInventoryHelper::GetAvailableRuleTableByGrade
PUBLIC	?IsOpenMall@CPythonPlayer@@QAE_NXZ		; CPythonPlayer::IsOpenMall
PUBLIC	?IsOpenPetFeedWindow@CPythonPlayer@@QAE_NXZ	; CPythonPlayer::IsOpenPetFeedWindow
PUBLIC	?IsOpenPetNameChangeWindow@CPythonPlayer@@QAE_NXZ ; CPythonPlayer::IsOpenPetNameChangeWindow
PUBLIC	?IsOpenPetHatchingWindow@CPythonPlayer@@QAE_NXZ	; CPythonPlayer::IsOpenPetHatchingWindow
PUBLIC	?SetOpenMall@CPythonPlayer@@QAEX_N@Z		; CPythonPlayer::SetOpenMall
PUBLIC	?SetOpenSafeBox@CPythonPlayer@@QAEX_N@Z		; CPythonPlayer::SetOpenSafeBox
PUBLIC	?SetOpenPetFeedWindow@CPythonPlayer@@QAEX_N@Z	; CPythonPlayer::SetOpenPetFeedWindow
PUBLIC	?SetOpenPetNameChangeWindow@CPythonPlayer@@QAEX_N@Z ; CPythonPlayer::SetOpenPetNameChangeWindow
PUBLIC	?SetOpenPetHatchingWindow@CPythonPlayer@@QAEX_N@Z ; CPythonPlayer::SetOpenPetHatchingWindow
PUBLIC	?GetMaxDuration@SPetData@CPythonPlayer@@QAEKXZ	; CPythonPlayer::SPetData::GetMaxDuration
PUBLIC	?GetSkillCount@SPetData@CPythonPlayer@@QAEKXZ	; CPythonPlayer::SPetData::GetSkillCount
PUBLIC	?GetDef@SPetData@CPythonPlayer@@QAEKXZ		; CPythonPlayer::SPetData::GetDef
PUBLIC	?GetSP@SPetData@CPythonPlayer@@QAEKXZ		; CPythonPlayer::SPetData::GetSP
PUBLIC	?GetHP@SPetData@CPythonPlayer@@QAEKXZ		; CPythonPlayer::SPetData::GetHP
PUBLIC	?GetEvolution@SPetData@CPythonPlayer@@QAEKXZ	; CPythonPlayer::SPetData::GetEvolution
PUBLIC	?GetNextEXP@SPetData@CPythonPlayer@@QAEKXZ	; CPythonPlayer::SPetData::GetNextEXP
PUBLIC	?GetItemEXP@SPetData@CPythonPlayer@@QAEKXZ	; CPythonPlayer::SPetData::GetItemEXP
PUBLIC	?GetEXP@SPetData@CPythonPlayer@@QAEKXZ		; CPythonPlayer::SPetData::GetEXP
PUBLIC	?GetLevel@SPetData@CPythonPlayer@@QAEKXZ	; CPythonPlayer::SPetData::GetLevel
PUBLIC	?GetBirthday@SPetData@CPythonPlayer@@QAEJXZ	; CPythonPlayer::SPetData::GetBirthday
PUBLIC	?GetName@SPetData@CPythonPlayer@@QAE?AV?$basic_string@DU?$char_traits@D@std@@V?$allocator@D@2@@std@@XZ ; CPythonPlayer::SPetData::GetName
PUBLIC	?GetSummonItemVnum@SPetData@CPythonPlayer@@QAEKXZ ; CPythonPlayer::SPetData::GetSummonItemVnum
PUBLIC	?IsAuraRefineWindowOpen@CPythonPlayer@@QBE_NXZ	; CPythonPlayer::IsAuraRefineWindowOpen
PUBLIC	?GetAuraRefineWindowType@CPythonPlayer@@QBEEXZ	; CPythonPlayer::GetAuraRefineWindowType
PUBLIC	?GetAutoPotionInfo@CPythonPlayer@@QAEAAUSAutoPotionInfo@1@H@Z ; CPythonPlayer::GetAutoPotionInfo
?vecDropSoundFileName@@3V?$array@U?$pair@KV?$basic_string@DU?$char_traits@D@std@@V?$allocator@D@2@@std@@@std@@$04@std@@B DB 08cH DUP (?) ; vecDropSoundFileName
?vecEffectList@@3V?$vector@V?$tuple@IPBDPBD_N@std@@V?$allocator@V?$tuple@IPBDPBD_N@std@@@2@@std@@B DB 0cH DUP (?) ; vecEffectList
?characterNameColors@@3V?$map@EV?$array@E$02@std@@U?$less@E@2@V?$allocator@U?$pair@$$CBEV?$array@E$02@std@@@std@@@2@@std@@B DQ 01H DUP (?) ; characterNameColors
?characterTitleColors@@3V?$map@EV?$array@E$02@std@@U?$less@E@2@V?$allocator@U?$pair@$$CBEV?$array@E$02@std@@@std@@@2@@std@@B DQ 01H DUP (?) ; characterTitleColors
?characterTitleSystemColors@@3V?$map@EV?$array@E$02@std@@U?$less@E@2@V?$allocator@U?$pair@$$CBEV?$array@E$02@std@@@std@@@2@@std@@B DQ 01H DUP (?) ; characterTitleSystemColors
?emotionIcons@@3V?$map@EPBDU?$less@E@std@@V?$allocator@U?$pair@$$CBEPBD@std@@@2@@std@@B DQ 01H DUP (?) ; emotionIcons
?skillIndexes@@3V?$map@EV?$map@EV?$vector@EV?$allocator@E@std@@@std@@U?$less@E@2@V?$allocator@U?$pair@$$CBEV?$vector@EV?$allocator@E@std@@@std@@@std@@@2@@std@@U?$less@E@2@V?$allocator@U?$pair@$$CBEV?$map@EV?$vector@EV?$allocator@E@std@@@std@@U?$less@E@2@V?$allocator@U?$pair@$$CBEV?$vector@EV?$allocator@E@std@@@std@@@std@@@2@@std@@@std@@@2@@std@@B DQ 01H DUP (?) ; skillIndexes
?guildSkills@@3V?$map@V?$basic_string@DU?$char_traits@D@std@@V?$allocator@D@2@@std@@V?$vector@EV?$allocator@E@std@@@2@U?$less@V?$basic_string@DU?$char_traits@D@std@@V?$allocator@D@2@@std@@@2@V?$allocator@U?$pair@$$CBV?$basic_string@DU?$char_traits@D@std@@V?$allocator@D@2@@std@@V?$vector@EV?$allocator@E@std@@@2@@std@@@2@@std@@B DQ 01H DUP (?) ; guildSkills
_BSS	ENDS
;	COMDAT xdata$x
xdata$x	SEGMENT
__ehfuncinfo$??__EvecUseSoundFileName@@YAXXZ DQ 00000000619930522r ; 1.2944e-313
	DD	FLAT:__unwindtable$??__EvecUseSoundFileName@@YAXXZ
	DQ	00000000000000000r		; 0
	DQ	00000000000000000r		; 0
	DQ	00000000100000000r		; 2.122e-314
__unwindtable$??__EvecUseSoundFileName@@YAXXZ DD 0ffffffffH
	DD	FLAT:__unwindfunclet$??__EvecUseSoundFileName@@YAXXZ$0
	DD	00H
	DD	FLAT:__unwindfunclet$??__EvecUseSoundFileName@@YAXXZ$1
	DD	01H
	DD	FLAT:__unwindfunclet$??__EvecUseSoundFileName@@YAXXZ$2
	DD	02H
	DD	FLAT:__unwindfunclet$??__EvecUseSoundFileName@@YAXXZ$3
	DD	03H
	DD	FLAT:__unwindfunclet$??__EvecUseSoundFileName@@YAXXZ$4
	DD	04H
	DD	FLAT:__unwindfunclet$??__EvecUseSoundFileName@@YAXXZ$5
xdata$x	ENDS
;	COMDAT xdata$x
xdata$x	SEGMENT
__ehfuncinfo$??__FvecUseSoundFileName@@YAXXZ DQ 00000000119930522r ; 2.33398e-314
	DD	FLAT:__unwindtable$??__FvecUseSoundFileName@@YAXXZ
	DQ	00000000000000000r		; 0
	DQ	00000000000000000r		; 0
	DQ	00000000100000000r		; 2.122e-314
__unwindtable$??__FvecUseSoundFileName@@YAXXZ DD 0ffffffffH
	DD	FLAT:___std_terminate
xdata$x	ENDS
;	COMDAT xdata$x
xdata$x	SEGMENT
__ehfuncinfo$??__EvecDropSoundFileName@@YAXXZ DQ 00000000419930522r ; 8.69997e-314
	DD	FLAT:__unwindtable$??__EvecDropSoundFileName@@YAXXZ
	DQ	00000000000000000r		; 0
	DQ	00000000000000000r		; 0
	DQ	00000000100000000r		; 2.122e-314
__unwindtable$??__EvecDropSoundFileName@@YAXXZ DD 0ffffffffH
	DD	FLAT:__unwindfunclet$??__EvecDropSoundFileName@@YAXXZ$0
	DD	00H
	DD	FLAT:__unwindfunclet$??__EvecDropSoundFileName@@YAXXZ$1
	DD	01H
	DD	FLAT:__unwindfunclet$??__EvecDropSoundFileName@@YAXXZ$2
	DD	02H
	DD	FLAT:__unwindfunclet$??__EvecDropSoundFileName@@YAXXZ$3
xdata$x	ENDS
;	COMDAT xdata$x
xdata$x	SEGMENT
__ehfuncinfo$??__FvecDropSoundFileName@@YAXXZ DQ 00000000119930522r ; 2.33398e-314
	DD	FLAT:__unwindtable$??__FvecDropSoundFileName@@YAXXZ
	DQ	00000000000000000r		; 0
	DQ	00000000000000000r		; 0
	DQ	00000000100000000r		; 2.122e-314
__unwindtable$??__FvecDropSoundFileName@@YAXXZ DD 0ffffffffH
	DD	FLAT:___std_terminate
xdata$x	ENDS
;	COMDAT xdata$x
xdata$x	SEGMENT
__ehfuncinfo$??__EskillIndexes@@YAXXZ DQ 00000002819930522r ; 8.50918e-313
	DD	FLAT:__unwindtable$??__EskillIndexes@@YAXXZ
	DQ	00000000000000000r		; 0
	DQ	00000000000000000r		; 0
	DQ	00000000100000000r		; 2.122e-314
	ORG $+4
__unwindtable$??__EskillIndexes@@YAXXZ DD 0ffffffffH
	DD	FLAT:__unwindfunclet$??__EskillIndexes@@YAXXZ$0
	DD	00H
	DD	FLAT:__unwindfunclet$??__EskillIndexes@@YAXXZ$1
	DD	01H
	DD	FLAT:__unwindfunclet$??__EskillIndexes@@YAXXZ$2
	DD	00H
	DD	FLAT:__unwindfunclet$??__EskillIndexes@@YAXXZ$2
	DD	03H
	DD	FLAT:__unwindfunclet$??__EskillIndexes@@YAXXZ$4
	DD	04H
	DD	FLAT:__unwindfunclet$??__EskillIndexes@@YAXXZ$5
	DD	05H
	DD	FLAT:__unwindfunclet$??__EskillIndexes@@YAXXZ$6
	DD	06H
	DD	FLAT:__unwindfunclet$??__EskillIndexes@@YAXXZ$7
	DD	07H
	DD	FLAT:__unwindfunclet$??__EskillIndexes@@YAXXZ$8
	DD	08H
	DD	FLAT:__unwindfunclet$??__EskillIndexes@@YAXXZ$9
	DD	07H
	DD	FLAT:__unwindfunclet$??__EskillIndexes@@YAXXZ$9
	DD	0aH
	DD	FLAT:__unwindfunclet$??__EskillIndexes@@YAXXZ$11
	DD	0bH
	DD	FLAT:__unwindfunclet$??__EskillIndexes@@YAXXZ$12
	DD	0cH
	DD	FLAT:__unwindfunclet$??__EskillIndexes@@YAXXZ$13
	DD	0dH
	DD	FLAT:__unwindfunclet$??__EskillIndexes@@YAXXZ$14
	DD	0eH
	DD	FLAT:__unwindfunclet$??__EskillIndexes@@YAXXZ$15
	DD	0fH
	DD	FLAT:__unwindfunclet$??__EskillIndexes@@YAXXZ$16
	DD	0eH
	DD	FLAT:__unwindfunclet$??__EskillIndexes@@YAXXZ$16
	DD	011H
	DD	FLAT:__unwindfunclet$??__EskillIndexes@@YAXXZ$18
	DD	012H
	DD	FLAT:__unwindfunclet$??__EskillIndexes@@YAXXZ$19
	DD	013H
	DD	FLAT:__unwindfunclet$??__EskillIndexes@@YAXXZ$20
	DD	014H
	DD	FLAT:__unwindfunclet$??__EskillIndexes@@YAXXZ$21
	DD	015H
	DD	FLAT:__unwindfunclet$??__EskillIndexes@@YAXXZ$22
	DD	016H
	DD	FLAT:__unwindfunclet$??__EskillIndexes@@YAXXZ$23
	DD	015H
	DD	FLAT:__unwindfunclet$??__EskillIndexes@@YAXXZ$23
	DD	018H
	DD	FLAT:__unwindfunclet$??__EskillIndexes@@YAXXZ$25
	DD	019H
	DD	FLAT:__unwindfunclet$??__EskillIndexes@@YAXXZ$26
	DD	05H
	DD	FLAT:__unwindfunclet$??__EskillIndexes@@YAXXZ$7
	DD	01bH
	DD	FLAT:__unwindfunclet$??__EskillIndexes@@YAXXZ$9
	DD	01cH
	DD	FLAT:__unwindfunclet$??__EskillIndexes@@YAXXZ$11
	DD	01dH
	DD	FLAT:__unwindfunclet$??__EskillIndexes@@YAXXZ$12
	DD	01eH
	DD	FLAT:__unwindfunclet$??__EskillIndexes@@YAXXZ$14
	DD	01fH
	DD	FLAT:__unwindfunclet$??__EskillIndexes@@YAXXZ$16
	DD	020H
	DD	FLAT:__unwindfunclet$??__EskillIndexes@@YAXXZ$18
	DD	021H
	DD	FLAT:__unwindfunclet$??__EskillIndexes@@YAXXZ$19
	DD	022H
	DD	FLAT:__unwindfunclet$??__EskillIndexes@@YAXXZ$21
	DD	023H
	DD	FLAT:__unwindfunclet$??__EskillIndexes@@YAXXZ$23
	DD	024H
	DD	FLAT:__unwindfunclet$??__EskillIndexes@@YAXXZ$25
	DD	025H
	DD	FLAT:__unwindfunclet$??__EskillIndexes@@YAXXZ$26
	DD	026H
	DD	FLAT:__unwindfunclet$??__EskillIndexes@@YAXXZ$28
xdata$x	ENDS
;	COMDAT xdata$x
xdata$x	SEGMENT
__ehfuncinfo$??__EguildSkills@@YAXXZ DQ 00000000a19930522r ; 2.14319e-313
	DD	FLAT:__unwindtable$??__EguildSkills@@YAXXZ
	DQ	00000000000000000r		; 0
	DQ	00000000000000000r		; 0
	DQ	00000000100000000r		; 2.122e-314
	ORG $+4
__unwindtable$??__EguildSkills@@YAXXZ DD 0ffffffffH
	DD	FLAT:__unwindfunclet$??__EguildSkills@@YAXXZ$0
	DD	00H
	DD	FLAT:__unwindfunclet$??__EguildSkills@@YAXXZ$1
	DD	01H
	DD	FLAT:__unwindfunclet$??__EguildSkills@@YAXXZ$10
	DD	01H
	DD	FLAT:__unwindfunclet$??__EguildSkills@@YAXXZ$2
	DD	03H
	DD	FLAT:__unwindfunclet$??__EguildSkills@@YAXXZ$3
	DD	04H
	DD	FLAT:__unwindfunclet$??__EguildSkills@@YAXXZ$4
	DD	05H
	DD	FLAT:__unwindfunclet$??__EguildSkills@@YAXXZ$16
	DD	01H
	DD	FLAT:__unwindfunclet$??__EguildSkills@@YAXXZ$3
	DD	07H
	DD	FLAT:__unwindfunclet$??__EguildSkills@@YAXXZ$4
	DD	08H
	DD	FLAT:__unwindfunclet$??__EguildSkills@@YAXXZ$6
xdata$x	ENDS
;	COMDAT xdata$x
xdata$x	SEGMENT
__ehfuncinfo$?playerGetGuildName@@YAPAU_object@@PAU1@0@Z DQ 00000000119930522r ; 2.33398e-314
	DD	FLAT:__unwindtable$?playerGetGuildName@@YAPAU_object@@PAU1@0@Z
	DQ	00000000000000000r		; 0
	DQ	00000000000000000r		; 0
	DQ	00000000100000000r		; 2.122e-314
__unwindtable$?playerGetGuildName@@YAPAU_object@@PAU1@0@Z DD 0ffffffffH
	DD	FLAT:__unwindfunclet$?playerGetGuildName@@YAPAU_object@@PAU1@0@Z$0
xdata$x	ENDS
;	COMDAT xdata$x
xdata$x	SEGMENT
__ehfuncinfo$?playerRegisterEmotionIcon@@YAPAU_object@@PAU1@0@Z DQ 00000000119930522r ; 2.33398e-314
	DD	FLAT:__unwindtable$?playerRegisterEmotionIcon@@YAPAU_object@@PAU1@0@Z
	DQ	00000000000000000r		; 0
	DQ	00000000000000000r		; 0
	DQ	00000000100000000r		; 2.122e-314
__unwindtable$?playerRegisterEmotionIcon@@YAPAU_object@@PAU1@0@Z DD 0ffffffffH
	DD	FLAT:__unwindfunclet$?playerRegisterEmotionIcon@@YAPAU_object@@PAU1@0@Z$2
xdata$x	ENDS
;	COMDAT xdata$x
xdata$x	SEGMENT
__ehfuncinfo$??$insert@U?$pair@HPAVCGraphicImage@@@std@@$0A@@?$map@HPAVCGraphicImage@@U?$less@H@std@@V?$allocator@U?$pair@$$CBHPAVCGraphicImage@@@std@@@3@@std@@QAE?AU?$pair@V?$_Tree_iterator@V?$_Tree_val@U?$_Tree_simple_types@U?$pair@$$CBHPAVCGraphicImage@@@std@@@std@@@std@@@std@@_N@1@$$QAU?$pair@HPAVCGraphicImage@@@1@@Z DQ 00000000119930522r ; 2.33398e-314
	DD	FLAT:__unwindtable$??$insert@U?$pair@HPAVCGraphicImage@@@std@@$0A@@?$map@HPAVCGraphicImage@@U?$less@H@std@@V?$allocator@U?$pair@$$CBHPAVCGraphicImage@@@std@@@3@@std@@QAE?AU?$pair@V?$_Tree_iterator@V?$_Tree_val@U?$_Tree_simple_types@U?$pair@$$CBHPAVCGraphicImage@@@std@@@std@@@std@@@std@@_N@1@$$QAU?$pair@HPAVCGraphicImage@@@1@@Z
	DQ	00000000000000000r		; 0
	DQ	00000000000000000r		; 0
	DQ	00000000100000000r		; 2.122e-314
__unwindtable$??$insert@U?$pair@HPAVCGraphicImage@@@std@@$0A@@?$map@HPAVCGraphicImage@@U?$less@H@std@@V?$allocator@U?$pair@$$CBHPAVCGraphicImage@@@std@@@3@@std@@QAE?AU?$pair@V?$_Tree_iterator@V?$_Tree_val@U?$_Tree_simple_types@U?$pair@$$CBHPAVCGraphicImage@@@std@@@std@@@std@@@std@@_N@1@$$QAU?$pair@HPAVCGraphicImage@@@1@@Z DD 0ffffffffH
	DD	FLAT:__unwindfunclet$??$insert@U?$pair@HPAVCGraphicImage@@@std@@$0A@@?$map@HPAVCGraphicImage@@U?$less@H@std@@V?$allocator@U?$pair@$$CBHPAVCGraphicImage@@@std@@@3@@std@@QAE?AU?$pair@V?$_Tree_iterator@V?$_Tree_val@U?$_Tree_simple_types@U?$pair@$$CBHPAVCGraphicImage@@@std@@@std@@@std@@@std@@_N@1@$$QAU?$pair@HPAVCGraphicImage@@@1@@Z$2
xdata$x	ENDS
;	COMDAT xdata$x
xdata$x	SEGMENT
__ehfuncinfo$??A?$map@HPAVCGraphicImage@@U?$less@H@std@@V?$allocator@U?$pair@$$CBHPAVCGraphicImage@@@std@@@3@@std@@QAEAAPAVCGraphicImage@@ABH@Z DQ 00000000119930522r ; 2.33398e-314
	DD	FLAT:__unwindtable$??A?$map@HPAVCGraphicImage@@U?$less@H@std@@V?$allocator@U?$pair@$$CBHPAVCGraphicImage@@@std@@@3@@std@@QAEAAPAVCGraphicImage@@ABH@Z
	DQ	00000000000000000r		; 0
	DQ	00000000000000000r		; 0
	DQ	00000000100000000r		; 2.122e-314
__unwindtable$??A?$map@HPAVCGraphicImage@@U?$less@H@std@@V?$allocator@U?$pair@$$CBHPAVCGraphicImage@@@std@@@3@@std@@QAEAAPAVCGraphicImage@@ABH@Z DD 0ffffffffH
	DD	FLAT:__unwindfunclet$??A?$map@HPAVCGraphicImage@@U?$less@H@std@@V?$allocator@U?$pair@$$CBHPAVCGraphicImage@@@std@@@3@@std@@QAEAAPAVCGraphicImage@@ABH@Z$2
xdata$x	ENDS
;	COMDAT xdata$x
xdata$x	SEGMENT
__ehfuncinfo$??$emplace@U?$pair@HPAVCGraphicImage@@@std@@@?$_Tree@V?$_Tmap_traits@HPAVCGraphicImage@@U?$less@H@std@@V?$allocator@U?$pair@$$CBHPAVCGraphicImage@@@std@@@3@$0A@@std@@@std@@QAE?AU?$pair@V?$_Tree_iterator@V?$_Tree_val@U?$_Tree_simple_types@U?$pair@$$CBHPAVCGraphicImage@@@std@@@std@@@std@@@std@@_N@1@$$QAU?$pair@HPAVCGraphicImage@@@1@@Z DQ 00000000119930522r ; 2.33398e-314
	DD	FLAT:__unwindtable$??$emplace@U?$pair@HPAVCGraphicImage@@@std@@@?$_Tree@V?$_Tmap_traits@HPAVCGraphicImage@@U?$less@H@std@@V?$allocator@U?$pair@$$CBHPAVCGraphicImage@@@std@@@3@$0A@@std@@@std@@QAE?AU?$pair@V?$_Tree_iterator@V?$_Tree_val@U?$_Tree_simple_types@U?$pair@$$CBHPAVCGraphicImage@@@std@@@std@@@std@@@std@@_N@1@$$QAU?$pair@HPAVCGraphicImage@@@1@@Z
	DQ	00000000000000000r		; 0
	DQ	00000000000000000r		; 0
	DQ	00000000100000000r		; 2.122e-314
__unwindtable$??$emplace@U?$pair@HPAVCGraphicImage@@@std@@@?$_Tree@V?$_Tmap_traits@HPAVCGraphicImage@@U?$less@H@std@@V?$allocator@U?$pair@$$CBHPAVCGraphicImage@@@std@@@3@$0A@@std@@@std@@QAE?AU?$pair@V?$_Tree_iterator@V?$_Tree_val@U?$_Tree_simple_types@U?$pair@$$CBHPAVCGraphicImage@@@std@@@std@@@std@@@std@@_N@1@$$QAU?$pair@HPAVCGraphicImage@@@1@@Z DD 0ffffffffH
	DD	FLAT:__unwindfunclet$??$emplace@U?$pair@HPAVCGraphicImage@@@std@@@?$_Tree@V?$_Tmap_traits@HPAVCGraphicImage@@U?$less@H@std@@V?$allocator@U?$pair@$$CBHPAVCGraphicImage@@@std@@@3@$0A@@std@@@std@@QAE?AU?$pair@V?$_Tree_iterator@V?$_Tree_val@U?$_Tree_simple_types@U?$pair@$$CBHPAVCGraphicImage@@@std@@@std@@@std@@@std@@_N@1@$$QAU?$pair@HPAVCGraphicImage@@@1@@Z$2
xdata$x	ENDS
;	COMDAT xdata$x
xdata$x	SEGMENT
__ehfuncinfo$??$_Try_emplace@ABH$$V@?$map@HPAVCGraphicImage@@U?$less@H@std@@V?$allocator@U?$pair@$$CBHPAVCGraphicImage@@@std@@@3@@std@@AAE?AU?$pair@PAU?$_Tree_node@U?$pair@$$CBHPAVCGraphicImage@@@std@@PAX@std@@_N@1@ABH@Z DQ 00000000119930522r ; 2.33398e-314
	DD	FLAT:__unwindtable$??$_Try_emplace@ABH$$V@?$map@HPAVCGraphicImage@@U?$less@H@std@@V?$allocator@U?$pair@$$CBHPAVCGraphicImage@@@std@@@3@@std@@AAE?AU?$pair@PAU?$_Tree_node@U?$pair@$$CBHPAVCGraphicImage@@@std@@PAX@std@@_N@1@ABH@Z
	DQ	00000000000000000r		; 0
	DQ	00000000000000000r		; 0
	DQ	00000000100000000r		; 2.122e-314
__unwindtable$??$_Try_emplace@ABH$$V@?$map@HPAVCGraphicImage@@U?$less@H@std@@V?$allocator@U?$pair@$$CBHPAVCGraphicImage@@@std@@@3@@std@@AAE?AU?$pair@PAU?$_Tree_node@U?$pair@$$CBHPAVCGraphicImage@@@std@@PAX@std@@_N@1@ABH@Z DD 0ffffffffH
	DD	FLAT:__unwindfunclet$??$_Try_emplace@ABH$$V@?$map@HPAVCGraphicImage@@U?$less@H@std@@V?$allocator@U?$pair@$$CBHPAVCGraphicImage@@@std@@@3@@std@@AAE?AU?$pair@PAU?$_Tree_node@U?$pair@$$CBHPAVCGraphicImage@@@std@@PAX@std@@_N@1@ABH@Z$2
xdata$x	ENDS
;	COMDAT xdata$x
xdata$x	SEGMENT
__ehfuncinfo$??$_Emplace@U?$pair@HPAVCGraphicImage@@@std@@@?$_Tree@V?$_Tmap_traits@HPAVCGraphicImage@@U?$less@H@std@@V?$allocator@U?$pair@$$CBHPAVCGraphicImage@@@std@@@3@$0A@@std@@@std@@IAE?AU?$pair@PAU?$_Tree_node@U?$pair@$$CBHPAVCGraphicImage@@@std@@PAX@std@@_N@1@$$QAU?$pair@HPAVCGraphicImage@@@1@@Z DQ 00000000119930522r ; 2.33398e-314
	DD	FLAT:__unwindtable$??$_Emplace@U?$pair@HPAVCGraphicImage@@@std@@@?$_Tree@V?$_Tmap_traits@HPAVCGraphicImage@@U?$less@H@std@@V?$allocator@U?$pair@$$CBHPAVCGraphicImage@@@std@@@3@$0A@@std@@@std@@IAE?AU?$pair@PAU?$_Tree_node@U?$pair@$$CBHPAVCGraphicImage@@@std@@PAX@std@@_N@1@$$QAU?$pair@HPAVCGraphicImage@@@1@@Z
	DQ	00000000000000000r		; 0
	DQ	00000000000000000r		; 0
	DQ	00000000100000000r		; 2.122e-314
__unwindtable$??$_Emplace@U?$pair@HPAVCGraphicImage@@@std@@@?$_Tree@V?$_Tmap_traits@HPAVCGraphicImage@@U?$less@H@std@@V?$allocator@U?$pair@$$CBHPAVCGraphicImage@@@std@@@3@$0A@@std@@@std@@IAE?AU?$pair@PAU?$_Tree_node@U?$pair@$$CBHPAVCGraphicImage@@@std@@PAX@std@@_N@1@$$QAU?$pair@HPAVCGraphicImage@@@1@@Z DD 0ffffffffH
	DD	FLAT:__unwindfunclet$??$_Emplace@U?$pair@HPAVCGraphicImage@@@std@@@?$_Tree@V?$_Tmap_traits@HPAVCGraphicImage@@U?$less@H@std@@V?$allocator@U?$pair@$$CBHPAVCGraphicImage@@@std@@@3@$0A@@std@@@std@@IAE?AU?$pair@PAU?$_Tree_node@U?$pair@$$CBHPAVCGraphicImage@@@std@@PAX@std@@_N@1@$$QAU?$pair@HPAVCGraphicImage@@@1@@Z$2
xdata$x	ENDS
;	COMDAT xdata$x
xdata$x	SEGMENT
__ehfuncinfo$??$?0ABUpiecewise_construct_t@std@@V?$tuple@ABH@1@V?$tuple@$$V@1@@?$_Tree_temp_node@V?$allocator@U?$_Tree_node@U?$pair@$$CBHPAVCGraphicImage@@@std@@PAX@std@@@std@@@std@@QAE@AAV?$allocator@U?$_Tree_node@U?$pair@$$CBHPAVCGraphicImage@@@std@@PAX@std@@@1@PAU?$_Tree_node@U?$pair@$$CBHPAVCGraphicImage@@@std@@PAX@1@ABUpiecewise_construct_t@1@$$QAV?$tuple@ABH@1@$$QAV?$tuple@$$V@1@@Z DQ 00000000119930522r ; 2.33398e-314
	DD	FLAT:__unwindtable$??$?0ABUpiecewise_construct_t@std@@V?$tuple@ABH@1@V?$tuple@$$V@1@@?$_Tree_temp_node@V?$allocator@U?$_Tree_node@U?$pair@$$CBHPAVCGraphicImage@@@std@@PAX@std@@@std@@@std@@QAE@AAV?$allocator@U?$_Tree_node@U?$pair@$$CBHPAVCGraphicImage@@@std@@PAX@std@@@1@PAU?$_Tree_node@U?$pair@$$CBHPAVCGraphicImage@@@std@@PAX@1@ABUpiecewise_construct_t@1@$$QAV?$tuple@ABH@1@$$QAV?$tuple@$$V@1@@Z
	DQ	00000000000000000r		; 0
	DQ	00000000000000000r		; 0
	DQ	00000000100000000r		; 2.122e-314
__unwindtable$??$?0ABUpiecewise_construct_t@std@@V?$tuple@ABH@1@V?$tuple@$$V@1@@?$_Tree_temp_node@V?$allocator@U?$_Tree_node@U?$pair@$$CBHPAVCGraphicImage@@@std@@PAX@std@@@std@@@std@@QAE@AAV?$allocator@U?$_Tree_node@U?$pair@$$CBHPAVCGraphicImage@@@std@@PAX@std@@@1@PAU?$_Tree_node@U?$pair@$$CBHPAVCGraphicImage@@@std@@PAX@1@ABUpiecewise_construct_t@1@$$QAV?$tuple@ABH@1@$$QAV?$tuple@$$V@1@@Z DD 0ffffffffH
	DD	FLAT:__unwindfunclet$??$?0ABUpiecewise_construct_t@std@@V?$tuple@ABH@1@V?$tuple@$$V@1@@?$_Tree_temp_node@V?$allocator@U?$_Tree_node@U?$pair@$$CBHPAVCGraphicImage@@@std@@PAX@std@@@std@@@std@@QAE@AAV?$allocator@U?$_Tree_node@U?$pair@$$CBHPAVCGraphicImage@@@std@@PAX@std@@@1@PAU?$_Tree_node@U?$pair@$$CBHPAVCGraphicImage@@@std@@PAX@1@ABUpiecewise_construct_t@1@$$QAV?$tuple@ABH@1@$$QAV?$tuple@$$V@1@@Z$1
xdata$x	ENDS
;	COMDAT xdata$x
xdata$x	SEGMENT
__ehfuncinfo$??$?0U?$pair@HPAVCGraphicImage@@@std@@@?$_Tree_temp_node@V?$allocator@U?$_Tree_node@U?$pair@$$CBHPAVCGraphicImage@@@std@@PAX@std@@@std@@@std@@QAE@AAV?$allocator@U?$_Tree_node@U?$pair@$$CBHPAVCGraphicImage@@@std@@PAX@std@@@1@PAU?$_Tree_node@U?$pair@$$CBHPAVCGraphicImage@@@std@@PAX@1@$$QAU?$pair@HPAVCGraphicImage@@@1@@Z DQ 00000000119930522r ; 2.33398e-314
	DD	FLAT:__unwindtable$??$?0U?$pair@HPAVCGraphicImage@@@std@@@?$_Tree_temp_node@V?$allocator@U?$_Tree_node@U?$pair@$$CBHPAVCGraphicImage@@@std@@PAX@std@@@std@@@std@@QAE@AAV?$allocator@U?$_Tree_node@U?$pair@$$CBHPAVCGraphicImage@@@std@@PAX@std@@@1@PAU?$_Tree_node@U?$pair@$$CBHPAVCGraphicImage@@@std@@PAX@1@$$QAU?$pair@HPAVCGraphicImage@@@1@@Z
	DQ	00000000000000000r		; 0
	DQ	00000000000000000r		; 0
	DQ	00000000100000000r		; 2.122e-314
__unwindtable$??$?0U?$pair@HPAVCGraphicImage@@@std@@@?$_Tree_temp_node@V?$allocator@U?$_Tree_node@U?$pair@$$CBHPAVCGraphicImage@@@std@@PAX@std@@@std@@@std@@QAE@AAV?$allocator@U?$_Tree_node@U?$pair@$$CBHPAVCGraphicImage@@@std@@PAX@std@@@1@PAU?$_Tree_node@U?$pair@$$CBHPAVCGraphicImage@@@std@@PAX@1@$$QAU?$pair@HPAVCGraphicImage@@@1@@Z DD 0ffffffffH
	DD	FLAT:__unwindfunclet$??$?0U?$pair@HPAVCGraphicImage@@@std@@@?$_Tree_temp_node@V?$allocator@U?$_Tree_node@U?$pair@$$CBHPAVCGraphicImage@@@std@@PAX@std@@@std@@@std@@QAE@AAV?$allocator@U?$_Tree_node@U?$pair@$$CBHPAVCGraphicImage@@@std@@PAX@std@@@1@PAU?$_Tree_node@U?$pair@$$CBHPAVCGraphicImage@@@std@@PAX@1@$$QAU?$pair@HPAVCGraphicImage@@@1@@Z$1
xdata$x	ENDS
;	COMDAT xdata$x
xdata$x	SEGMENT
__ehfuncinfo$??0?$_Tree_temp_node_alloc@V?$allocator@U?$_Tree_node@U?$pair@$$CBHPAVCGraphicImage@@@std@@PAX@std@@@std@@@std@@QAE@AAV?$allocator@U?$_Tree_node@U?$pair@$$CBHPAVCGraphicImage@@@std@@PAX@std@@@1@@Z DQ 00000000119930522r ; 2.33398e-314
	DD	FLAT:__unwindtable$??0?$_Tree_temp_node_alloc@V?$allocator@U?$_Tree_node@U?$pair@$$CBHPAVCGraphicImage@@@std@@PAX@std@@@std@@@std@@QAE@AAV?$allocator@U?$_Tree_node@U?$pair@$$CBHPAVCGraphicImage@@@std@@PAX@std@@@1@@Z
	DQ	00000000000000000r		; 0
	DQ	00000000000000000r		; 0
	DQ	00000000100000000r		; 2.122e-314
__unwindtable$??0?$_Tree_temp_node_alloc@V?$allocator@U?$_Tree_node@U?$pair@$$CBHPAVCGraphicImage@@@std@@PAX@std@@@std@@@std@@QAE@AAV?$allocator@U?$_Tree_node@U?$pair@$$CBHPAVCGraphicImage@@@std@@PAX@std@@@1@@Z DD 0ffffffffH
	DD	FLAT:__unwindfunclet$??0?$_Tree_temp_node_alloc@V?$allocator@U?$_Tree_node@U?$pair@$$CBHPAVCGraphicImage@@@std@@PAX@std@@@std@@@std@@QAE@AAV?$allocator@U?$_Tree_node@U?$pair@$$CBHPAVCGraphicImage@@@std@@PAX@std@@@1@@Z$0
	ORG $+1
?NPOS@@3USItemPos@@B DW 0ff00H				; NPOS
	DB	0ffH
	ORG $+4
?vecUseSoundFileName@@3V?$array@U?$pair@KV?$basic_string@DU?$char_traits@D@std@@V?$allocator@D@2@@std@@@std@@$06@std@@B DQ 00000000000000001r ; 4.94066e-324 ; vecUseSoundFileName
	DQ	00000000000000000r		; 0
	DQ	00000000000000000r		; 0
	DQ	00000000000000000r		; 0
	DQ	00000000000000000r		; 0
	DQ	00000000000000000r		; 0
	DQ	00000000000000000r		; 0
	DQ	00000000000000000r		; 0
	DQ	00000000000000000r		; 0
	DQ	00000000000000000r		; 0
	DQ	00000000000000000r		; 0
	DQ	00000000000000000r		; 0
	DQ	00000000000000000r		; 0
	DQ	00000000000000000r		; 0
	DQ	00000000000000000r		; 0
	DQ	00000000000000000r		; 0
	DQ	00000000000000000r		; 0
	DQ	00000000000000000r		; 0
	DQ	00000000000000000r		; 0
	DQ	00000000000000000r		; 0
	DQ	00000000000000000r		; 0
	DQ	00000000000000000r		; 0
	DQ	00000000000000000r		; 0
	DQ	00000000000000000r		; 0
	DD	00H
?vecUseSoundFileName$initializer$@@3P6AXXZA DD FLAT:??__EvecUseSoundFileName@@YAXXZ ; vecUseSoundFileName$initializer$
?vecDropSoundFileName$initializer$@@3P6AXXZA DD FLAT:??__EvecDropSoundFileName@@YAXXZ ; vecDropSoundFileName$initializer$
?vecEffectList$initializer$@@3P6AXXZA DD FLAT:??__EvecEffectList@@YAXXZ ; vecEffectList$initializer$
?characterNameColors$initializer$@@3P6AXXZA DD FLAT:??__EcharacterNameColors@@YAXXZ ; characterNameColors$initializer$
?characterTitleColors$initializer$@@3P6AXXZA DD FLAT:??__EcharacterTitleColors@@YAXXZ ; characterTitleColors$initializer$
?characterTitleSystemColors$initializer$@@3P6AXXZA DD FLAT:??__EcharacterTitleSystemColors@@YAXXZ ; characterTitleSystemColors$initializer$
?emotionIcons$initializer$@@3P6AXXZA DD FLAT:??__EemotionIcons@@YAXXZ ; emotionIcons$initializer$
?skillIndexes$initializer$@@3P6AXXZA DD FLAT:??__EskillIndexes@@YAXXZ ; skillIndexes$initializer$
?guildSkills$initializer$@@3P6AXXZA DD FLAT:??__EguildSkills@@YAXXZ ; guildSkills$initializer$
END
