; Listing generated by Microsoft (R) Optimizing Compiler Version 19.44.35219.0 

	TITLE	c:\anka2project\anka2project\source\binary\vs_files\userinterface\release\pythonbackground.obj
	.686P
	.XMM
	include listing.inc
	.model	flat

INCLUDELIB OLDNAMES

PUBLIC	??_C@_0DF@GEMPMAOP@d?3?1ymir?5work?1effect?1etc?1directi@ ; `string'
PUBLIC	??_C@_0FF@DMIGEFGG@CPythonBackground?3?3SelectViewDi@ ; `string'
PUBLIC	??_C@_0BI@FJAIMBEC@CPythonBackground?5Clear@	; `string'
PUBLIC	??_C@_0O@EEKDAHG@AtlasInfo?4txt@		; `string'
PUBLIC	??_C@_08EMBNBNLN@property@			; `string'
PUBLIC	??_C@_08MOOMJPBO@Property@			; `string'
PUBLIC	??_C@_03EMIMMIHL@?$CK?4?$CK@			; `string'
PUBLIC	??_C@_0O@NAMKDHJD@pack?1property@		; `string'
PUBLIC	??_C@_0CC@FDBLKFI@NOT_FOUND_GLOBAL_POSITION?$CI?$CFd?0?5?$CF@ ; `string'
PUBLIC	??_C@_1KK@CCJDGFDK@?$AAC?$AA?3?$AA?2?$AAA?$AAn?$AAk?$AAa?$AA2?$AAP?$AAr?$AAo?$AAj?$AAe?$AAc?$AAt@ ; `string'
PUBLIC	??_C@_1HG@OJBJJMHC@?$AA?$CI?$AAd?$AAw?$AAX?$AA?5?$AA?$DO?$AA?$DN?$AA?5?$AAr?$AAM?$AAa?$AAp?$AAI?$AAn?$AAf@ ; `string'
PUBLIC	??_C@_0CL@JOLELNDN@d?3?1ymir?5work?1environment?1moonli@ ; `string'
PUBLIC	??_C@_1DG@LANFOGBA@?$AAi?$AAG?$AAr?$AAa?$AAd?$AAe?$AA?5?$AA?$DO?$AA?$DN?$AA?5?$AA0?$AA?5?$AA?$CG?$AA?$CG?$AA?5@ ; `string'
PUBLIC	??_C@_0P@EOAEHOGM@map_n_snowm_01@		; `string'
PUBLIC	??_C@_0CF@PCFPEOFC@d?3?1ymir?5work?1tree?1christmastree@ ; `string'
PUBLIC	??_C@_0CF@HEMLDMPM@d?3?1ymir?5work?1tree?1christmastree@ ; `string'
PUBLIC	??_C@_0CF@LPJHOPFJ@d?3?1ymir?5work?1tree?1christmastree@ ; `string'
PUBLIC	??_C@_0DD@NHFFJCJH@d?3?1ymir?5work?1effect?1etc?1christm@ ; `string'
PUBLIC	??_C@_0DD@OGLNIIAK@d?3?1ymir?5work?1effect?1etc?1christm@ ; `string'
PUBLIC	??_C@_0DD@EAMKIDLO@d?3?1ymir?5work?1effect?1etc?1christm@ ; `string'
PUBLIC	??_C@_0BH@EGLMCDHE@metin2_map_empirewar03@	; `string'
PUBLIC	??_C@_0BK@EILMEKBD@metin2_map_devilsCatacomb@	; `string'
PUBLIC	??_C@_0BG@IPFJPPHP@metin2_map_Mt_Thunder@	; `string'
PUBLIC	??_C@_0BO@LLDNLMOD@metin2_map_n_flame_dungeon_01@ ; `string'
PUBLIC	??_C@_0BN@DJOCBOB@metin2_map_n_snow_dungeon_01@	; `string'
PUBLIC	??_C@_0BM@FNBPDKAK@metin2_map_spiderdungeon_01@	; `string'
PUBLIC	??_C@_0BM@HGDCGJMJ@metin2_map_spiderdungeon_02@	; `string'
PUBLIC	??_C@_0BM@GPCJFIII@metin2_map_spiderdungeon_03@	; `string'
PUBLIC	??_C@_0BH@EOJPPMKE@metin2_map_deviltower1@	; `string'
PUBLIC	??_C@_0BP@FBPOOPOE@metin2_map_dawnmist_dungeon_01@ ; `string'
PUBLIC	??_C@_0BM@HFMBKOGD@metin2_map_Mt_Th_dungeon_01@	; `string'
PUBLIC	??_C@_0BC@PHGCCADE@metin2_12zi_stage@		; `string'
PUBLIC	??_C@_0BK@BLHADCMM@metin2_map_n_flame_dragon@	; `string'
PUBLIC	??_C@_0BH@PPKADDBG@metin2_map_defensewave@	; `string'
PUBLIC	??_C@_0BM@DMALCIAL@metin2_map_defensewave_port@	; `string'
PUBLIC	??_C@_0BL@DJCCLDDO@metin2_map_mists_of_island@	; `string'
PUBLIC	??_C@_0BH@PABKGKKD@metin2_map_miniboss_01@	; `string'
PUBLIC	??_C@_0BH@NLDHDJGA@metin2_map_miniboss_02@	; `string'
PUBLIC	??_C@_0BF@NKNFGHKP@metin2_map_labyrinth@	; `string'
PUBLIC	??_C@_0BN@IMGPNMFK@metin2_map_boss_crack_skipia@ ; `string'
PUBLIC	??_C@_0BM@BKNBOAGI@metin2_map_boss_crack_flame@	; `string'
PUBLIC	??_C@_0BL@IOFGIHGL@metin2_map_boss_crack_snow@	; `string'
PUBLIC	??_C@_0BP@LFLNPEJC@metin2_map_boss_crack_dawnmist@ ; `string'
PUBLIC	??_C@_0BO@GPAHEHOM@metin2_map_boss_awaken_skipia@ ; `string'
PUBLIC	??_C@_0BN@BBEBEEOA@metin2_map_boss_awaken_flame@ ; `string'
PUBLIC	??_C@_0BM@MFCNCOKE@metin2_map_boss_awaken_snow@	; `string'
PUBLIC	??_C@_0CA@GAPPFEAI@metin2_map_boss_awaken_dawnmist@ ; `string'
PUBLIC	??_C@_0BI@MGGMNDLE@metin2_map_elemental_01@	; `string'
PUBLIC	??_C@_0BI@ONEBIAHH@metin2_map_elemental_02@	; `string'
PUBLIC	??_C@_0BI@PEFKLBDG@metin2_map_elemental_03@	; `string'
PUBLIC	??_C@_0BI@LLBLCHPB@metin2_map_elemental_04@	; `string'
PUBLIC	??_C@_0BJ@PFBEHAAJ@metin2_map_smhdungeon_01@	; `string'
PUBLIC	??_C@_0BJ@NODJCDMK@metin2_map_smhdungeon_02@	; `string'
PUBLIC	??_C@_0BL@CFMCNICB@metin2_map_snake_temple_02@	; `string'
PUBLIC	??_C@_0BO@CNGFIGEM@metin2_map_whitedragoncave_01@ ; `string'
PUBLIC	??_C@_0BO@GEINFIP@metin2_map_whitedragoncave_02@ ; `string'
PUBLIC	??_C@_0CA@GDLDBDHP@metin2_map_whitedragoncave_boss@ ; `string'
PUBLIC	??_C@_0BN@HJBMAFG@metin2_map_anglar_dungeon_01@	; `string'
PUBLIC	??_C@_0BJ@BEEIJCBD@metin2_map_otherworld_01@	; `string'
PUBLIC	??_C@_0BJ@DPGFMBNA@metin2_map_otherworld_02@	; `string'
PUBLIC	??_C@_0BJ@CGHOPAJB@metin2_map_otherworld_03@	; `string'
PUBLIC	??_C@_0BJ@GJDPGGFG@metin2_map_otherworld_04@	; `string'
PUBLIC	??_C@_0BG@LNIPKABP@metin2_map_smhgate_a1@	; `string'
PUBLIC	??_C@_0BG@LPMJBOEG@metin2_map_smhgate_b1@	; `string'
PUBLIC	??_C@_0BG@LOALHEHB@metin2_map_smhgate_c1@	; `string'
PUBLIC	??_C@_0BM@GFDJFHHO@metin2_map_smhgate_threeway@	; `string'
PUBLIC	??_C@_0BK@LDECKJLI@metin2_map_smhgate_desert@	; `string'
PUBLIC	??_C@_0BJ@MCODKKJN@metin2_map_smhgate_flame@	; `string'
PUBLIC	??_C@_0BI@LBDHKIMD@metin2_map_smhgate_snow@	; `string'
PUBLIC	??_C@_0BK@GIINIBMN@metin2_map_smhgate_devils@	; `string'
PUBLIC	??_C@_0BM@MEPDLDHO@metin2_map_smhgate_dawnmist@	; `string'
PUBLIC	??_R2?$RangeTester@UCollisionChecker@@@@8	; RangeTester<CollisionChecker>::`RTTI Base Class Array'
PUBLIC	??_R2?$RangeTester@UCollisionAdjustChecker@@@@8	; RangeTester<CollisionAdjustChecker>::`RTTI Base Class Array'
PUBLIC	??_R2?$RangeTester@UFGetPortalID@@@@8		; RangeTester<FGetPortalID>::`RTTI Base Class Array'
PUBLIC	??_R2CPythonBackground@@8			; CPythonBackground::`RTTI Base Class Array'
PUBLIC	??_R2?$CSingleton@VCPythonBackground@@@@8	; CSingleton<CPythonBackground>::`RTTI Base Class Array'
PUBLIC	??_R2CMapManager@@8				; CMapManager::`RTTI Base Class Array'
PUBLIC	??_R2IPhysicsWorld@@8				; IPhysicsWorld::`RTTI Base Class Array'
PUBLIC	??_R2CScreen@@8					; CScreen::`RTTI Base Class Array'
PUBLIC	??_R2CGraphicCollisionObject@@8			; CGraphicCollisionObject::`RTTI Base Class Array'
PUBLIC	??_R2CGraphicBase@@8				; CGraphicBase::`RTTI Base Class Array'
PUBLIC	??_R1A@?0A@EA@?$RangeTester@UCollisionChecker@@@@8 ; RangeTester<CollisionChecker>::`RTTI Base Class Descriptor at (0,-1,0,64)'
PUBLIC	??_R1A@?0A@EA@?$RangeTester@UCollisionAdjustChecker@@@@8 ; RangeTester<CollisionAdjustChecker>::`RTTI Base Class Descriptor at (0,-1,0,64)'
PUBLIC	??_R1A@?0A@EA@?$RangeTester@UFGetPortalID@@@@8	; RangeTester<FGetPortalID>::`RTTI Base Class Descriptor at (0,-1,0,64)'
PUBLIC	??_R1BENI@?0A@EA@?$CSingleton@VCPythonBackground@@@@8 ; CSingleton<CPythonBackground>::`RTTI Base Class Descriptor at (5336,-1,0,64)'
PUBLIC	??_R1A@?0A@EA@CPythonBackground@@8		; CPythonBackground::`RTTI Base Class Descriptor at (0,-1,0,64)'
PUBLIC	??_R1A@?0A@EA@?$CSingleton@VCPythonBackground@@@@8 ; CSingleton<CPythonBackground>::`RTTI Base Class Descriptor at (0,-1,0,64)'
PUBLIC	??_R13?0A@EA@IPhysicsWorld@@8			; IPhysicsWorld::`RTTI Base Class Descriptor at (4,-1,0,64)'
PUBLIC	??_R1A@?0A@EA@CMapManager@@8			; CMapManager::`RTTI Base Class Descriptor at (0,-1,0,64)'
PUBLIC	??_R1A@?0A@EA@IPhysicsWorld@@8			; IPhysicsWorld::`RTTI Base Class Descriptor at (0,-1,0,64)'
PUBLIC	??_R1A@?0A@EA@CScreen@@8			; CScreen::`RTTI Base Class Descriptor at (0,-1,0,64)'
PUBLIC	??_R1A@?0A@EA@CGraphicCollisionObject@@8	; CGraphicCollisionObject::`RTTI Base Class Descriptor at (0,-1,0,64)'
PUBLIC	??_R1A@?0A@EA@CGraphicBase@@8			; CGraphicBase::`RTTI Base Class Descriptor at (0,-1,0,64)'
PUBLIC	??_R3?$RangeTester@UCollisionChecker@@@@8	; RangeTester<CollisionChecker>::`RTTI Class Hierarchy Descriptor'
PUBLIC	??_R0?AU?$RangeTester@UCollisionChecker@@@@@8	; RangeTester<CollisionChecker> `RTTI Type Descriptor'
PUBLIC	??_R3?$RangeTester@UCollisionAdjustChecker@@@@8	; RangeTester<CollisionAdjustChecker>::`RTTI Class Hierarchy Descriptor'
PUBLIC	??_R0?AU?$RangeTester@UCollisionAdjustChecker@@@@@8 ; RangeTester<CollisionAdjustChecker> `RTTI Type Descriptor'
PUBLIC	??_R3?$RangeTester@UFGetPortalID@@@@8		; RangeTester<FGetPortalID>::`RTTI Class Hierarchy Descriptor'
PUBLIC	??_R0?AU?$RangeTester@UFGetPortalID@@@@@8	; RangeTester<FGetPortalID> `RTTI Type Descriptor'
PUBLIC	??_R3?$CSingleton@VCPythonBackground@@@@8	; CSingleton<CPythonBackground>::`RTTI Class Hierarchy Descriptor'
PUBLIC	??_R0?AV?$CSingleton@VCPythonBackground@@@@@8	; CSingleton<CPythonBackground> `RTTI Type Descriptor'
PUBLIC	??_R3CMapManager@@8				; CMapManager::`RTTI Class Hierarchy Descriptor'
PUBLIC	??_R0?AVCMapManager@@@8				; CMapManager `RTTI Type Descriptor'
PUBLIC	??_R3CPythonBackground@@8			; CPythonBackground::`RTTI Class Hierarchy Descriptor'
PUBLIC	??_R0?AVCPythonBackground@@@8			; CPythonBackground `RTTI Type Descriptor'
PUBLIC	??_R3IPhysicsWorld@@8				; IPhysicsWorld::`RTTI Class Hierarchy Descriptor'
PUBLIC	??_R0?AVIPhysicsWorld@@@8			; IPhysicsWorld `RTTI Type Descriptor'
PUBLIC	??_R3CScreen@@8					; CScreen::`RTTI Class Hierarchy Descriptor'
PUBLIC	??_R0?AVCScreen@@@8				; CScreen `RTTI Type Descriptor'
PUBLIC	??_R3CGraphicCollisionObject@@8			; CGraphicCollisionObject::`RTTI Class Hierarchy Descriptor'
PUBLIC	??_R0?AVCGraphicCollisionObject@@@8		; CGraphicCollisionObject `RTTI Type Descriptor'
PUBLIC	??_R3CGraphicBase@@8				; CGraphicBase::`RTTI Class Hierarchy Descriptor'
PUBLIC	??_R0?AVCGraphicBase@@@8			; CGraphicBase `RTTI Type Descriptor'
PUBLIC	??_R4?$RangeTester@UCollisionChecker@@@@6B@	; RangeTester<CollisionChecker>::`RTTI Complete Object Locator'
PUBLIC	??_R4?$RangeTester@UCollisionAdjustChecker@@@@6B@ ; RangeTester<CollisionAdjustChecker>::`RTTI Complete Object Locator'
PUBLIC	??_R4?$RangeTester@UFGetPortalID@@@@6B@		; RangeTester<FGetPortalID>::`RTTI Complete Object Locator'
PUBLIC	??_R4?$CSingleton@VCPythonBackground@@@@6B@	; CSingleton<CPythonBackground>::`RTTI Complete Object Locator'
PUBLIC	??_R4CPythonBackground@@6B@			; CPythonBackground::`RTTI Complete Object Locator'
PUBLIC	??_R4CPythonBackground@@6BIPhysicsWorld@@@	; CPythonBackground::`RTTI Complete Object Locator'
PUBLIC	??_R4CPythonBackground@@6BCScreen@@@		; CPythonBackground::`RTTI Complete Object Locator'
PUBLIC	??_7?$RangeTester@UFGetPortalID@@@@6B@		; RangeTester<FGetPortalID>::`vftable'
PUBLIC	??_7?$RangeTester@UCollisionAdjustChecker@@@@6B@ ; RangeTester<CollisionAdjustChecker>::`vftable'
PUBLIC	??_7?$RangeTester@UCollisionChecker@@@@6B@	; RangeTester<CollisionChecker>::`vftable'
PUBLIC	??_7?$CSingleton@VCPythonBackground@@@@6B@	; CSingleton<CPythonBackground>::`vftable'
PUBLIC	?ms_singleton@?$CSingleton@VCPythonMiniMap@@@@0PAVCPythonMiniMap@@A ; CSingleton<CPythonMiniMap>::ms_singleton
PUBLIC	??_7CPythonBackground@@6B@			; CPythonBackground::`vftable'
PUBLIC	??_7CPythonBackground@@6BIPhysicsWorld@@@	; CPythonBackground::`vftable'
PUBLIC	??_7CPythonBackground@@6BCScreen@@@		; CPythonBackground::`vftable'
EXTRN	?GRAPHICS_CAPS_CAN_NOT_DRAW_SHADOW@@3_NA:BYTE	; GRAPHICS_CAPS_CAN_NOT_DRAW_SHADOW
EXTRN	?isPhysicalCollision@CMapManager@@UAE_NABUD3DXVECTOR3@@@Z:PROC ; CMapManager::isPhysicalCollision
EXTRN	?AllocMap@CMapManager@@UAEPAVCMapBase@@XZ:PROC	; CMapManager::AllocMap
EXTRN	?Clear@CMapManager@@UAEXXZ:PROC			; CMapManager::Clear
EXTRN	?RayTrace@SpherePackFactory@@QAEXABVVector3d@@0PAVSpherePackCallback@@@Z:PROC ; SpherePackFactory::RayTrace
EXTRN	?SpecialShopPosEffect_Create@CMapOutdoor@@QAEXKMMMPBD@Z:PROC ; CMapOutdoor::SpecialShopPosEffect_Create
EXTRN	?SpecialShopPosEffect_Delete@CMapOutdoor@@QAEXXZ:PROC ; CMapOutdoor::SpecialShopPosEffect_Delete
EXTRN	?SpecialEffect_Delete@CMapOutdoor@@QAEXK@Z:PROC	; CMapOutdoor::SpecialEffect_Delete
EXTRN	?GetBaseXY@CMapOutdoor@@QAEXPAK0@Z:PROC		; CMapOutdoor::GetBaseXY
EXTRN	?SpecialEffect_Create@CMapOutdoor@@QAEXKMMMPBD@Z:PROC ; CMapOutdoor::SpecialEffect_Create
EXTRN	?XMasTree_Set@CMapOutdoor@@QAEXMMMPBD0@Z:PROC	; CMapOutdoor::XMasTree_Set
EXTRN	?XMasTree_Destroy@CMapOutdoor@@QAEXXZ:PROC	; CMapOutdoor::XMasTree_Destroy
EXTRN	?Disable@CSnowEnvironment@@QAEXXZ:PROC		; CSnowEnvironment::Disable
EXTRN	?DisableMarkedArea@CMapOutdoor@@QAEXXZ:PROC	; CMapOutdoor::DisableMarkedArea
EXTRN	?Enable@CSnowEnvironment@@QAEXXZ:PROC		; CSnowEnvironment::Enable
EXTRN	?ResetEnvironmentDataPtr@CMapManager@@QAEXPBUSEnvironmentData@@@Z:PROC ; CMapManager::ResetEnvironmentDataPtr
EXTRN	?VisibleMarkedArea@CMapOutdoor@@QAEXXZ:PROC	; CMapOutdoor::VisibleMarkedArea
EXTRN	?RegisterEnvironmentData@CMapManager@@QAE_NKPBD@Z:PROC ; CMapManager::RegisterEnvironmentData
EXTRN	?GetEnvironmentData@CMapManager@@QAE_NKPAPBUSEnvironmentData@@@Z:PROC ; CMapManager::GetEnvironmentData
EXTRN	?EnablePortal@CMapOutdoor@@QAEX_N@Z:PROC	; CMapOutdoor::EnablePortal
EXTRN	?LoadMap@CMapManager@@UAE_NABV?$basic_string@DU?$char_traits@D@std@@V?$allocator@D@2@@std@@MMM@Z:PROC ; CMapManager::LoadMap
EXTRN	?SetLight@CStateManager@@QAEXKPBU_D3DLIGHT8@@@Z:PROC ; CStateManager::SetLight
EXTRN	?ClearGuildArea@CMapOutdoor@@QAEXXZ:PROC	; CMapOutdoor::ClearGuildArea
EXTRN	?RegisterGuildArea@CMapOutdoor@@QAEXHHHH@Z:PROC	; CMapOutdoor::RegisterGuildArea
EXTRN	?RenderBeforeLensFlare@CMapOutdoor@@QAEXXZ:PROC	; CMapOutdoor::RenderBeforeLensFlare
EXTRN	?RenderAfterLensFlare@CMapOutdoor@@QAEXXZ:PROC	; CMapOutdoor::RenderAfterLensFlare
EXTRN	?RenderWater@CMapOutdoor@@QAEXXZ:PROC		; CMapOutdoor::RenderWater
EXTRN	?RenderEffect@CMapOutdoor@@QAEXXZ:PROC		; CMapOutdoor::RenderEffect
EXTRN	?RenderSky@CMapOutdoor@@QAEXXZ:PROC		; CMapOutdoor::RenderSky
EXTRN	?RenderCloud@CMapOutdoor@@QAEXXZ:PROC		; CMapOutdoor::RenderCloud
EXTRN	?SetTransform@CStateManager@@QAEXW4_D3DTRANSFORMSTATETYPE@@PBU_D3DMATRIX@@@Z:PROC ; CStateManager::SetTransform
EXTRN	?EndRenderCharacterShadowToTexture@CMapOutdoor@@QAEXXZ:PROC ; CMapOutdoor::EndRenderCharacterShadowToTexture
EXTRN	?BeginRenderCharacterShadowToTexture@CMapOutdoor@@QAE_NXZ:PROC ; CMapOutdoor::BeginRenderCharacterShadowToTexture
EXTRN	?RenderCollision@CMapOutdoor@@QAEXXZ:PROC	; CMapOutdoor::RenderCollision
EXTRN	?GetTransform@CStateManager@@QAEXW4_D3DTRANSFORMSTATETYPE@@PAU_D3DMATRIX@@@Z:PROC ; CStateManager::GetTransform
EXTRN	?Render@CSnowEnvironment@@QAEXXZ:PROC		; CSnowEnvironment::Render
EXTRN	?RenderPCBlocker@CMapOutdoor@@QAEXXZ:PROC	; CMapOutdoor::RenderPCBlocker
EXTRN	?Render@CMapBase@@QAEXXZ:PROC			; CMapBase::Render
EXTRN	?RenderMarkedArea@CMapOutdoor@@QAEXXZ:PROC	; CMapOutdoor::RenderMarkedArea
EXTRN	?Deform@CSnowEnvironment@@QAEXXZ:PROC		; CSnowEnvironment::Deform
EXTRN	?RefreshPortal@CMapManager@@QAEXXZ:PROC		; CMapManager::RefreshPortal
EXTRN	?ClearPortal@CMapManager@@QAEXXZ:PROC		; CMapManager::ClearPortal
EXTRN	?AddShowingPortalID@CMapManager@@QAEXH@Z:PROC	; CMapManager::AddShowingPortalID
EXTRN	?UpdateAroundAmbience@CMapManager@@QAEXMMM@Z:PROC ; CMapManager::UpdateAroundAmbience
EXTRN	?Update@CSnowEnvironment@@QAEXABUD3DXVECTOR3@@@Z:PROC ; CSnowEnvironment::Update
EXTRN	?GetPortal@CGraphicObjectInstance@@QAEHK@Z:PROC	; CGraphicObjectInstance::GetPortal
EXTRN	?UpdateMap@CMapManager@@QAE_NMMM@Z:PROC		; CMapManager::UpdateMap
EXTRN	?Create@CMapManager@@QAEXXZ:PROC		; CMapManager::Create
EXTRN	?Create@CSnowEnvironment@@QAE_NXZ:PROC		; CSnowEnvironment::Create
EXTRN	?Destroy@CMapManager@@QAEXXZ:PROC		; CMapManager::Destroy
EXTRN	?Destroy@CSnowEnvironment@@QAEXXZ:PROC		; CSnowEnvironment::Destroy
EXTRN	?GetPickingPointWithRayOnlyTerrain@CMapOutdoor@@QAE_NABVCRay@@PAUD3DXVECTOR3@@@Z:PROC ; CMapOutdoor::GetPickingPointWithRayOnlyTerrain
EXTRN	?GetPickingPoint@CMapOutdoor@@QAE_NPAUD3DXVECTOR3@@@Z:PROC ; CMapOutdoor::GetPickingPoint
EXTRN	?GetPickingPointWithRay@CMapOutdoor@@QAE_NABVCRay@@PAUD3DXVECTOR3@@@Z:PROC ; CMapOutdoor::GetPickingPointWithRay
EXTRN	?SetPropertyManager@CPropertyLoader@@QAEXPAVCPropertyManager@@@Z:PROC ; CPropertyLoader::SetPropertyManager
EXTRN	?Create@CDir@@QAE_NPBD0H@Z:PROC			; CDir::Create
EXTRN	??0CPropertyLoader@@QAE@XZ:PROC			; CPropertyLoader::CPropertyLoader
EXTRN	??1CPropertyLoader@@UAE@XZ:PROC			; CPropertyLoader::~CPropertyLoader
EXTRN	?GetSearchMode@CEterPackManager@@QAEHXZ:PROC	; CEterPackManager::GetSearchMode
EXTRN	?Initialize@CPropertyManager@@QAE_NPBD@Z:PROC	; CPropertyManager::Initialize
EXTRN	?Initialize@CMapManager@@QAEXXZ:PROC		; CMapManager::Initialize
EXTRN	??0CSnowEnvironment@@QAE@XZ:PROC		; CSnowEnvironment::CSnowEnvironment
EXTRN	??1CSnowEnvironment@@UAE@XZ:PROC		; CSnowEnvironment::~CSnowEnvironment
EXTRN	??0CMapManager@@QAE@XZ:PROC			; CMapManager::CMapManager
EXTRN	??1CMapManager@@UAE@XZ:PROC			; CMapManager::~CMapManager
EXTRN	?SetEnvironmentSkyBox@CMapOutdoor@@QAEXXZ:PROC	; CMapOutdoor::SetEnvironmentSkyBox
EXTRN	?SetShadowTextureSize@CMapOutdoor@@QAEXG@Z:PROC	; CMapOutdoor::SetShadowTextureSize
EXTRN	?SetDrawCharacterShadow@CMapOutdoor@@QAEX_N@Z:PROC ; CMapOutdoor::SetDrawCharacterShadow
EXTRN	?SetDrawShadow@CMapOutdoor@@QAEX_N@Z:PROC	; CMapOutdoor::SetDrawShadow
EXTRN	?CreateCharacterShadowTexture@CMapOutdoor@@QAEXXZ:PROC ; CMapOutdoor::CreateCharacterShadowTexture
EXTRN	?ReleaseCharacterShadowTexture@CMapOutdoor@@QAEXXZ:PROC ; CMapOutdoor::ReleaseCharacterShadowTexture
EXTRN	?SetVisiblePart@CMapOutdoor@@QAEXH_N@Z:PROC	; CMapOutdoor::SetVisiblePart
EXTRN	?SetSplatLimit@CMapOutdoor@@QAEXH@Z:PROC	; CMapOutdoor::SetSplatLimit
EXTRN	?GetMapOutdoorRef@CMapManager@@QAEAAVCMapOutdoor@@XZ:PROC ; CMapManager::GetMapOutdoorRef
;	COMDAT ?ms_singleton@?$CSingleton@VCPythonMiniMap@@@@0PAVCPythonMiniMap@@A
_BSS	SEGMENT
?ms_singleton@?$CSingleton@VCPythonMiniMap@@@@0PAVCPythonMiniMap@@A DD 01H DUP (?) ; CSingleton<CPythonMiniMap>::ms_singleton
_BSS	ENDS
;	COMDAT ?s_isCreateProperty@?1??Create@CPythonBackground@@QAEXXZ@4HA
_BSS	SEGMENT
?s_isCreateProperty@?1??Create@CPythonBackground@@QAEXXZ@4HA DD 01H DUP (?) ; `CPythonBackground::Create'::`2'::s_isCreateProperty
_BSS	ENDS
;	COMDAT ??_7CPythonBackground@@6BCScreen@@@
CONST	SEGMENT
??_7CPythonBackground@@6BCScreen@@@ DD FLAT:??_R4CPythonBackground@@6BCScreen@@@ ; CPythonBackground::`vftable'
	DD	FLAT:??_ECPythonBackground@@UAEPAXI@Z
	DD	FLAT:?Clear@CMapManager@@UAEXXZ
	DD	FLAT:?AllocMap@CMapManager@@UAEPAVCMapBase@@XZ
	DD	FLAT:?LoadMap@CMapManager@@UAE_NABV?$basic_string@DU?$char_traits@D@std@@V?$allocator@D@2@@std@@MMM@Z
CONST	ENDS
;	COMDAT ??_7CPythonBackground@@6BIPhysicsWorld@@@
CONST	SEGMENT
??_7CPythonBackground@@6BIPhysicsWorld@@@ DD FLAT:??_R4CPythonBackground@@6BIPhysicsWorld@@@ ; CPythonBackground::`vftable'
	DD	FLAT:??_ECPythonBackground@@W3AEPAXI@Z
	DD	FLAT:?isPhysicalCollision@CMapManager@@UAE_NABUD3DXVECTOR3@@@Z
CONST	ENDS
;	COMDAT ??_7CPythonBackground@@6B@
CONST	SEGMENT
??_7CPythonBackground@@6B@ DD FLAT:??_R4CPythonBackground@@6B@ ; CPythonBackground::`vftable'
	DD	FLAT:??_ECPythonBackground@@WBENI@AEPAXI@Z
CONST	ENDS
;	COMDAT ??_7?$CSingleton@VCPythonBackground@@@@6B@
CONST	SEGMENT
??_7?$CSingleton@VCPythonBackground@@@@6B@ DD FLAT:??_R4?$CSingleton@VCPythonBackground@@@@6B@ ; CSingleton<CPythonBackground>::`vftable'
	DD	FLAT:??_E?$CSingleton@VCPythonBackground@@@@UAEPAXI@Z
CONST	ENDS
;	COMDAT ??_7?$RangeTester@UCollisionChecker@@@@6B@
CONST	SEGMENT
??_7?$RangeTester@UCollisionChecker@@@@6B@ DD FLAT:??_R4?$RangeTester@UCollisionChecker@@@@6B@ ; RangeTester<CollisionChecker>::`vftable'
	DD	FLAT:??_E?$RangeTester@UCollisionChecker@@@@UAEPAXI@Z
	DD	FLAT:?VisibilityCallback@?$RangeTester@UCollisionChecker@@@@UAEXABVFrustum@@PAVSpherePack@@W4ViewState@@@Z
	DD	FLAT:?RayTraceCallback@?$RangeTester@UCollisionChecker@@@@UAEXABVVector3d@@0M0PAVSpherePack@@@Z
	DD	FLAT:?RangeTestCallback@?$RangeTester@UCollisionChecker@@@@UAEXABVVector3d@@MPAVSpherePack@@W4ViewState@@@Z
	DD	FLAT:?PointTest2dCallback@?$RangeTester@UCollisionChecker@@@@UAEXABVVector3d@@PAVSpherePack@@W4ViewState@@@Z
CONST	ENDS
;	COMDAT ??_7?$RangeTester@UCollisionAdjustChecker@@@@6B@
CONST	SEGMENT
??_7?$RangeTester@UCollisionAdjustChecker@@@@6B@ DD FLAT:??_R4?$RangeTester@UCollisionAdjustChecker@@@@6B@ ; RangeTester<CollisionAdjustChecker>::`vftable'
	DD	FLAT:??_E?$RangeTester@UCollisionAdjustChecker@@@@UAEPAXI@Z
	DD	FLAT:?VisibilityCallback@?$RangeTester@UCollisionAdjustChecker@@@@UAEXABVFrustum@@PAVSpherePack@@W4ViewState@@@Z
	DD	FLAT:?RayTraceCallback@?$RangeTester@UCollisionAdjustChecker@@@@UAEXABVVector3d@@0M0PAVSpherePack@@@Z
	DD	FLAT:?RangeTestCallback@?$RangeTester@UCollisionAdjustChecker@@@@UAEXABVVector3d@@MPAVSpherePack@@W4ViewState@@@Z
	DD	FLAT:?PointTest2dCallback@?$RangeTester@UCollisionAdjustChecker@@@@UAEXABVVector3d@@PAVSpherePack@@W4ViewState@@@Z
CONST	ENDS
;	COMDAT ??_7?$RangeTester@UFGetPortalID@@@@6B@
CONST	SEGMENT
??_7?$RangeTester@UFGetPortalID@@@@6B@ DD FLAT:??_R4?$RangeTester@UFGetPortalID@@@@6B@ ; RangeTester<FGetPortalID>::`vftable'
	DD	FLAT:??_E?$RangeTester@UFGetPortalID@@@@UAEPAXI@Z
	DD	FLAT:?VisibilityCallback@?$RangeTester@UFGetPortalID@@@@UAEXABVFrustum@@PAVSpherePack@@W4ViewState@@@Z
	DD	FLAT:?RayTraceCallback@?$RangeTester@UFGetPortalID@@@@UAEXABVVector3d@@0M0PAVSpherePack@@@Z
	DD	FLAT:?RangeTestCallback@?$RangeTester@UFGetPortalID@@@@UAEXABVVector3d@@MPAVSpherePack@@W4ViewState@@@Z
	DD	FLAT:?PointTest2dCallback@?$RangeTester@UFGetPortalID@@@@UAEXABVVector3d@@PAVSpherePack@@W4ViewState@@@Z
CONST	ENDS
;	COMDAT ??_R4CPythonBackground@@6BCScreen@@@
rdata$r	SEGMENT
??_R4CPythonBackground@@6BCScreen@@@ DD 00H		; CPythonBackground::`RTTI Complete Object Locator'
	DD	00H
	DD	00H
	DD	FLAT:??_R0?AVCPythonBackground@@@8
	DD	FLAT:??_R3CPythonBackground@@8
rdata$r	ENDS
;	COMDAT ??_R4CPythonBackground@@6BIPhysicsWorld@@@
rdata$r	SEGMENT
??_R4CPythonBackground@@6BIPhysicsWorld@@@ DD 00H	; CPythonBackground::`RTTI Complete Object Locator'
	DD	04H
	DD	00H
	DD	FLAT:??_R0?AVCPythonBackground@@@8
	DD	FLAT:??_R3CPythonBackground@@8
rdata$r	ENDS
;	COMDAT ??_R4CPythonBackground@@6B@
rdata$r	SEGMENT
??_R4CPythonBackground@@6B@ DD 00H			; CPythonBackground::`RTTI Complete Object Locator'
	DD	014d8H
	DD	00H
	DD	FLAT:??_R0?AVCPythonBackground@@@8
	DD	FLAT:??_R3CPythonBackground@@8
rdata$r	ENDS
;	COMDAT ??_R4?$CSingleton@VCPythonBackground@@@@6B@
rdata$r	SEGMENT
??_R4?$CSingleton@VCPythonBackground@@@@6B@ DD 00H	; CSingleton<CPythonBackground>::`RTTI Complete Object Locator'
	DD	00H
	DD	00H
	DD	FLAT:??_R0?AV?$CSingleton@VCPythonBackground@@@@@8
	DD	FLAT:??_R3?$CSingleton@VCPythonBackground@@@@8
rdata$r	ENDS
;	COMDAT ??_R4?$RangeTester@UFGetPortalID@@@@6B@
rdata$r	SEGMENT
??_R4?$RangeTester@UFGetPortalID@@@@6B@ DD 00H		; RangeTester<FGetPortalID>::`RTTI Complete Object Locator'
	DD	00H
	DD	00H
	DD	FLAT:??_R0?AU?$RangeTester@UFGetPortalID@@@@@8
	DD	FLAT:??_R3?$RangeTester@UFGetPortalID@@@@8
rdata$r	ENDS
;	COMDAT ??_R4?$RangeTester@UCollisionAdjustChecker@@@@6B@
rdata$r	SEGMENT
??_R4?$RangeTester@UCollisionAdjustChecker@@@@6B@ DD 00H ; RangeTester<CollisionAdjustChecker>::`RTTI Complete Object Locator'
	DD	00H
	DD	00H
	DD	FLAT:??_R0?AU?$RangeTester@UCollisionAdjustChecker@@@@@8
	DD	FLAT:??_R3?$RangeTester@UCollisionAdjustChecker@@@@8
rdata$r	ENDS
;	COMDAT ??_R4?$RangeTester@UCollisionChecker@@@@6B@
rdata$r	SEGMENT
??_R4?$RangeTester@UCollisionChecker@@@@6B@ DD 00H	; RangeTester<CollisionChecker>::`RTTI Complete Object Locator'
	DD	00H
	DD	00H
	DD	FLAT:??_R0?AU?$RangeTester@UCollisionChecker@@@@@8
	DD	FLAT:??_R3?$RangeTester@UCollisionChecker@@@@8
rdata$r	ENDS
;	COMDAT ??_R0?AVCGraphicBase@@@8
data$rs	SEGMENT
??_R0?AVCGraphicBase@@@8 DD FLAT:??_7type_info@@6B@	; CGraphicBase `RTTI Type Descriptor'
	DD	00H
	DB	'.?AVCGraphicBase@@', 00H
data$rs	ENDS
;	COMDAT ??_R3CGraphicBase@@8
rdata$r	SEGMENT
??_R3CGraphicBase@@8 DD 00H				; CGraphicBase::`RTTI Class Hierarchy Descriptor'
	DD	00H
	DD	01H
	DD	FLAT:??_R2CGraphicBase@@8
rdata$r	ENDS
;	COMDAT ??_R0?AVCGraphicCollisionObject@@@8
data$rs	SEGMENT
??_R0?AVCGraphicCollisionObject@@@8 DD FLAT:??_7type_info@@6B@ ; CGraphicCollisionObject `RTTI Type Descriptor'
	DD	00H
	DB	'.?AVCGraphicCollisionObject@@', 00H
data$rs	ENDS
;	COMDAT ??_R3CGraphicCollisionObject@@8
rdata$r	SEGMENT
??_R3CGraphicCollisionObject@@8 DD 00H			; CGraphicCollisionObject::`RTTI Class Hierarchy Descriptor'
	DD	00H
	DD	02H
	DD	FLAT:??_R2CGraphicCollisionObject@@8
rdata$r	ENDS
;	COMDAT ??_R0?AVCScreen@@@8
data$rs	SEGMENT
??_R0?AVCScreen@@@8 DD FLAT:??_7type_info@@6B@		; CScreen `RTTI Type Descriptor'
	DD	00H
	DB	'.?AVCScreen@@', 00H
data$rs	ENDS
;	COMDAT ??_R3CScreen@@8
rdata$r	SEGMENT
??_R3CScreen@@8 DD 00H					; CScreen::`RTTI Class Hierarchy Descriptor'
	DD	00H
	DD	03H
	DD	FLAT:??_R2CScreen@@8
rdata$r	ENDS
;	COMDAT ??_R0?AVIPhysicsWorld@@@8
data$rs	SEGMENT
??_R0?AVIPhysicsWorld@@@8 DD FLAT:??_7type_info@@6B@	; IPhysicsWorld `RTTI Type Descriptor'
	DD	00H
	DB	'.?AVIPhysicsWorld@@', 00H
data$rs	ENDS
;	COMDAT ??_R3IPhysicsWorld@@8
rdata$r	SEGMENT
??_R3IPhysicsWorld@@8 DD 00H				; IPhysicsWorld::`RTTI Class Hierarchy Descriptor'
	DD	00H
	DD	01H
	DD	FLAT:??_R2IPhysicsWorld@@8
rdata$r	ENDS
;	COMDAT ??_R0?AVCPythonBackground@@@8
data$rs	SEGMENT
??_R0?AVCPythonBackground@@@8 DD FLAT:??_7type_info@@6B@ ; CPythonBackground `RTTI Type Descriptor'
	DD	00H
	DB	'.?AVCPythonBackground@@', 00H
data$rs	ENDS
;	COMDAT ??_R3CPythonBackground@@8
rdata$r	SEGMENT
??_R3CPythonBackground@@8 DD 00H			; CPythonBackground::`RTTI Class Hierarchy Descriptor'
	DD	01H
	DD	07H
	DD	FLAT:??_R2CPythonBackground@@8
rdata$r	ENDS
;	COMDAT ??_R0?AVCMapManager@@@8
data$rs	SEGMENT
??_R0?AVCMapManager@@@8 DD FLAT:??_7type_info@@6B@	; CMapManager `RTTI Type Descriptor'
	DD	00H
	DB	'.?AVCMapManager@@', 00H
data$rs	ENDS
;	COMDAT ??_R3CMapManager@@8
rdata$r	SEGMENT
??_R3CMapManager@@8 DD 00H				; CMapManager::`RTTI Class Hierarchy Descriptor'
	DD	01H
	DD	05H
	DD	FLAT:??_R2CMapManager@@8
rdata$r	ENDS
;	COMDAT ??_R0?AV?$CSingleton@VCPythonBackground@@@@@8
data$rs	SEGMENT
??_R0?AV?$CSingleton@VCPythonBackground@@@@@8 DD FLAT:??_7type_info@@6B@ ; CSingleton<CPythonBackground> `RTTI Type Descriptor'
	DD	00H
	DB	'.?AV?$CSingleton@VCPythonBackground@@@@', 00H
data$rs	ENDS
;	COMDAT ??_R3?$CSingleton@VCPythonBackground@@@@8
rdata$r	SEGMENT
??_R3?$CSingleton@VCPythonBackground@@@@8 DD 00H	; CSingleton<CPythonBackground>::`RTTI Class Hierarchy Descriptor'
	DD	00H
	DD	01H
	DD	FLAT:??_R2?$CSingleton@VCPythonBackground@@@@8
rdata$r	ENDS
;	COMDAT ??_R0?AU?$RangeTester@UFGetPortalID@@@@@8
data$rs	SEGMENT
??_R0?AU?$RangeTester@UFGetPortalID@@@@@8 DD FLAT:??_7type_info@@6B@ ; RangeTester<FGetPortalID> `RTTI Type Descriptor'
	DD	00H
	DB	'.?AU?$RangeTester@UFGetPortalID@@@@', 00H
data$rs	ENDS
;	COMDAT ??_R3?$RangeTester@UFGetPortalID@@@@8
rdata$r	SEGMENT
??_R3?$RangeTester@UFGetPortalID@@@@8 DD 00H		; RangeTester<FGetPortalID>::`RTTI Class Hierarchy Descriptor'
	DD	00H
	DD	02H
	DD	FLAT:??_R2?$RangeTester@UFGetPortalID@@@@8
rdata$r	ENDS
;	COMDAT ??_R0?AU?$RangeTester@UCollisionAdjustChecker@@@@@8
data$rs	SEGMENT
??_R0?AU?$RangeTester@UCollisionAdjustChecker@@@@@8 DD FLAT:??_7type_info@@6B@ ; RangeTester<CollisionAdjustChecker> `RTTI Type Descriptor'
	DD	00H
	DB	'.?AU?$RangeTester@UCollisionAdjustChecker@@@@', 00H
data$rs	ENDS
;	COMDAT ??_R3?$RangeTester@UCollisionAdjustChecker@@@@8
rdata$r	SEGMENT
??_R3?$RangeTester@UCollisionAdjustChecker@@@@8 DD 00H	; RangeTester<CollisionAdjustChecker>::`RTTI Class Hierarchy Descriptor'
	DD	00H
	DD	02H
	DD	FLAT:??_R2?$RangeTester@UCollisionAdjustChecker@@@@8
rdata$r	ENDS
;	COMDAT ??_R0?AU?$RangeTester@UCollisionChecker@@@@@8
data$rs	SEGMENT
??_R0?AU?$RangeTester@UCollisionChecker@@@@@8 DD FLAT:??_7type_info@@6B@ ; RangeTester<CollisionChecker> `RTTI Type Descriptor'
	DD	00H
	DB	'.?AU?$RangeTester@UCollisionChecker@@@@', 00H
data$rs	ENDS
;	COMDAT ??_R3?$RangeTester@UCollisionChecker@@@@8
rdata$r	SEGMENT
??_R3?$RangeTester@UCollisionChecker@@@@8 DD 00H	; RangeTester<CollisionChecker>::`RTTI Class Hierarchy Descriptor'
	DD	00H
	DD	02H
	DD	FLAT:??_R2?$RangeTester@UCollisionChecker@@@@8
rdata$r	ENDS
;	COMDAT ??_R1A@?0A@EA@CGraphicBase@@8
rdata$r	SEGMENT
??_R1A@?0A@EA@CGraphicBase@@8 DD FLAT:??_R0?AVCGraphicBase@@@8 ; CGraphicBase::`RTTI Base Class Descriptor at (0,-1,0,64)'
	DD	00H
	DD	00H
	DD	0ffffffffH
	DD	00H
	DD	040H
	DD	FLAT:??_R3CGraphicBase@@8
rdata$r	ENDS
;	COMDAT ??_R1A@?0A@EA@CGraphicCollisionObject@@8
rdata$r	SEGMENT
??_R1A@?0A@EA@CGraphicCollisionObject@@8 DD FLAT:??_R0?AVCGraphicCollisionObject@@@8 ; CGraphicCollisionObject::`RTTI Base Class Descriptor at (0,-1,0,64)'
	DD	01H
	DD	00H
	DD	0ffffffffH
	DD	00H
	DD	040H
	DD	FLAT:??_R3CGraphicCollisionObject@@8
rdata$r	ENDS
;	COMDAT ??_R1A@?0A@EA@CScreen@@8
rdata$r	SEGMENT
??_R1A@?0A@EA@CScreen@@8 DD FLAT:??_R0?AVCScreen@@@8	; CScreen::`RTTI Base Class Descriptor at (0,-1,0,64)'
	DD	02H
	DD	00H
	DD	0ffffffffH
	DD	00H
	DD	040H
	DD	FLAT:??_R3CScreen@@8
rdata$r	ENDS
;	COMDAT ??_R1A@?0A@EA@IPhysicsWorld@@8
rdata$r	SEGMENT
??_R1A@?0A@EA@IPhysicsWorld@@8 DD FLAT:??_R0?AVIPhysicsWorld@@@8 ; IPhysicsWorld::`RTTI Base Class Descriptor at (0,-1,0,64)'
	DD	00H
	DD	00H
	DD	0ffffffffH
	DD	00H
	DD	040H
	DD	FLAT:??_R3IPhysicsWorld@@8
rdata$r	ENDS
;	COMDAT ??_R1A@?0A@EA@CMapManager@@8
rdata$r	SEGMENT
??_R1A@?0A@EA@CMapManager@@8 DD FLAT:??_R0?AVCMapManager@@@8 ; CMapManager::`RTTI Base Class Descriptor at (0,-1,0,64)'
	DD	04H
	DD	00H
	DD	0ffffffffH
	DD	00H
	DD	040H
	DD	FLAT:??_R3CMapManager@@8
rdata$r	ENDS
;	COMDAT ??_R13?0A@EA@IPhysicsWorld@@8
rdata$r	SEGMENT
??_R13?0A@EA@IPhysicsWorld@@8 DD FLAT:??_R0?AVIPhysicsWorld@@@8 ; IPhysicsWorld::`RTTI Base Class Descriptor at (4,-1,0,64)'
	DD	00H
	DD	04H
	DD	0ffffffffH
	DD	00H
	DD	040H
	DD	FLAT:??_R3IPhysicsWorld@@8
rdata$r	ENDS
;	COMDAT ??_R1A@?0A@EA@?$CSingleton@VCPythonBackground@@@@8
rdata$r	SEGMENT
??_R1A@?0A@EA@?$CSingleton@VCPythonBackground@@@@8 DD FLAT:??_R0?AV?$CSingleton@VCPythonBackground@@@@@8 ; CSingleton<CPythonBackground>::`RTTI Base Class Descriptor at (0,-1,0,64)'
	DD	00H
	DD	00H
	DD	0ffffffffH
	DD	00H
	DD	040H
	DD	FLAT:??_R3?$CSingleton@VCPythonBackground@@@@8
rdata$r	ENDS
;	COMDAT ??_R1A@?0A@EA@CPythonBackground@@8
rdata$r	SEGMENT
??_R1A@?0A@EA@CPythonBackground@@8 DD FLAT:??_R0?AVCPythonBackground@@@8 ; CPythonBackground::`RTTI Base Class Descriptor at (0,-1,0,64)'
	DD	06H
	DD	00H
	DD	0ffffffffH
	DD	00H
	DD	040H
	DD	FLAT:??_R3CPythonBackground@@8
rdata$r	ENDS
;	COMDAT ??_R1BENI@?0A@EA@?$CSingleton@VCPythonBackground@@@@8
rdata$r	SEGMENT
??_R1BENI@?0A@EA@?$CSingleton@VCPythonBackground@@@@8 DD FLAT:??_R0?AV?$CSingleton@VCPythonBackground@@@@@8 ; CSingleton<CPythonBackground>::`RTTI Base Class Descriptor at (5336,-1,0,64)'
	DD	00H
	DD	014d8H
	DD	0ffffffffH
	DD	00H
	DD	040H
	DD	FLAT:??_R3?$CSingleton@VCPythonBackground@@@@8
rdata$r	ENDS
;	COMDAT ??_R1A@?0A@EA@?$RangeTester@UFGetPortalID@@@@8
rdata$r	SEGMENT
??_R1A@?0A@EA@?$RangeTester@UFGetPortalID@@@@8 DD FLAT:??_R0?AU?$RangeTester@UFGetPortalID@@@@@8 ; RangeTester<FGetPortalID>::`RTTI Base Class Descriptor at (0,-1,0,64)'
	DD	01H
	DD	00H
	DD	0ffffffffH
	DD	00H
	DD	040H
	DD	FLAT:??_R3?$RangeTester@UFGetPortalID@@@@8
rdata$r	ENDS
;	COMDAT ??_R1A@?0A@EA@?$RangeTester@UCollisionAdjustChecker@@@@8
rdata$r	SEGMENT
??_R1A@?0A@EA@?$RangeTester@UCollisionAdjustChecker@@@@8 DD FLAT:??_R0?AU?$RangeTester@UCollisionAdjustChecker@@@@@8 ; RangeTester<CollisionAdjustChecker>::`RTTI Base Class Descriptor at (0,-1,0,64)'
	DD	01H
	DD	00H
	DD	0ffffffffH
	DD	00H
	DD	040H
	DD	FLAT:??_R3?$RangeTester@UCollisionAdjustChecker@@@@8
rdata$r	ENDS
;	COMDAT ??_R1A@?0A@EA@?$RangeTester@UCollisionChecker@@@@8
rdata$r	SEGMENT
??_R1A@?0A@EA@?$RangeTester@UCollisionChecker@@@@8 DD FLAT:??_R0?AU?$RangeTester@UCollisionChecker@@@@@8 ; RangeTester<CollisionChecker>::`RTTI Base Class Descriptor at (0,-1,0,64)'
	DD	01H
	DD	00H
	DD	0ffffffffH
	DD	00H
	DD	040H
	DD	FLAT:??_R3?$RangeTester@UCollisionChecker@@@@8
rdata$r	ENDS
;	COMDAT ??_R2CGraphicBase@@8
rdata$r	SEGMENT
??_R2CGraphicBase@@8 DD FLAT:??_R1A@?0A@EA@CGraphicBase@@8 ; CGraphicBase::`RTTI Base Class Array'
rdata$r	ENDS
;	COMDAT ??_R2CGraphicCollisionObject@@8
rdata$r	SEGMENT
??_R2CGraphicCollisionObject@@8 DD FLAT:??_R1A@?0A@EA@CGraphicCollisionObject@@8 ; CGraphicCollisionObject::`RTTI Base Class Array'
	DD	FLAT:??_R1A@?0A@EA@CGraphicBase@@8
rdata$r	ENDS
;	COMDAT ??_R2CScreen@@8
rdata$r	SEGMENT
??_R2CScreen@@8 DD FLAT:??_R1A@?0A@EA@CScreen@@8	; CScreen::`RTTI Base Class Array'
	DD	FLAT:??_R1A@?0A@EA@CGraphicCollisionObject@@8
	DD	FLAT:??_R1A@?0A@EA@CGraphicBase@@8
rdata$r	ENDS
;	COMDAT ??_R2IPhysicsWorld@@8
rdata$r	SEGMENT
??_R2IPhysicsWorld@@8 DD FLAT:??_R1A@?0A@EA@IPhysicsWorld@@8 ; IPhysicsWorld::`RTTI Base Class Array'
rdata$r	ENDS
;	COMDAT ??_R2CMapManager@@8
rdata$r	SEGMENT
??_R2CMapManager@@8 DD FLAT:??_R1A@?0A@EA@CMapManager@@8 ; CMapManager::`RTTI Base Class Array'
	DD	FLAT:??_R1A@?0A@EA@CScreen@@8
	DD	FLAT:??_R1A@?0A@EA@CGraphicCollisionObject@@8
	DD	FLAT:??_R1A@?0A@EA@CGraphicBase@@8
	DD	FLAT:??_R13?0A@EA@IPhysicsWorld@@8
rdata$r	ENDS
;	COMDAT ??_R2?$CSingleton@VCPythonBackground@@@@8
rdata$r	SEGMENT
??_R2?$CSingleton@VCPythonBackground@@@@8 DD FLAT:??_R1A@?0A@EA@?$CSingleton@VCPythonBackground@@@@8 ; CSingleton<CPythonBackground>::`RTTI Base Class Array'
rdata$r	ENDS
;	COMDAT ??_R2CPythonBackground@@8
rdata$r	SEGMENT
??_R2CPythonBackground@@8 DD FLAT:??_R1A@?0A@EA@CPythonBackground@@8 ; CPythonBackground::`RTTI Base Class Array'
	DD	FLAT:??_R1A@?0A@EA@CMapManager@@8
	DD	FLAT:??_R1A@?0A@EA@CScreen@@8
	DD	FLAT:??_R1A@?0A@EA@CGraphicCollisionObject@@8
	DD	FLAT:??_R1A@?0A@EA@CGraphicBase@@8
	DD	FLAT:??_R13?0A@EA@IPhysicsWorld@@8
	DD	FLAT:??_R1BENI@?0A@EA@?$CSingleton@VCPythonBackground@@@@8
rdata$r	ENDS
;	COMDAT ??_R2?$RangeTester@UFGetPortalID@@@@8
rdata$r	SEGMENT
??_R2?$RangeTester@UFGetPortalID@@@@8 DD FLAT:??_R1A@?0A@EA@?$RangeTester@UFGetPortalID@@@@8 ; RangeTester<FGetPortalID>::`RTTI Base Class Array'
	DD	FLAT:??_R1A@?0A@EA@SpherePackCallback@@8
rdata$r	ENDS
;	COMDAT ??_R2?$RangeTester@UCollisionAdjustChecker@@@@8
rdata$r	SEGMENT
??_R2?$RangeTester@UCollisionAdjustChecker@@@@8 DD FLAT:??_R1A@?0A@EA@?$RangeTester@UCollisionAdjustChecker@@@@8 ; RangeTester<CollisionAdjustChecker>::`RTTI Base Class Array'
	DD	FLAT:??_R1A@?0A@EA@SpherePackCallback@@8
rdata$r	ENDS
;	COMDAT ??_R2?$RangeTester@UCollisionChecker@@@@8
rdata$r	SEGMENT
??_R2?$RangeTester@UCollisionChecker@@@@8 DD FLAT:??_R1A@?0A@EA@?$RangeTester@UCollisionChecker@@@@8 ; RangeTester<CollisionChecker>::`RTTI Base Class Array'
	DD	FLAT:??_R1A@?0A@EA@SpherePackCallback@@8
rdata$r	ENDS
;	COMDAT ??_C@_0BM@MEPDLDHO@metin2_map_smhgate_dawnmist@
CONST	SEGMENT
??_C@_0BM@MEPDLDHO@metin2_map_smhgate_dawnmist@ DB 'metin2_map_smhgate_da'
	DB	'wnmist', 00H				; `string'
CONST	ENDS
;	COMDAT ??_C@_0BK@GIINIBMN@metin2_map_smhgate_devils@
CONST	SEGMENT
??_C@_0BK@GIINIBMN@metin2_map_smhgate_devils@ DB 'metin2_map_smhgate_devi'
	DB	'ls', 00H					; `string'
CONST	ENDS
;	COMDAT ??_C@_0BI@LBDHKIMD@metin2_map_smhgate_snow@
CONST	SEGMENT
??_C@_0BI@LBDHKIMD@metin2_map_smhgate_snow@ DB 'metin2_map_smhgate_snow', 00H ; `string'
CONST	ENDS
;	COMDAT ??_C@_0BJ@MCODKKJN@metin2_map_smhgate_flame@
CONST	SEGMENT
??_C@_0BJ@MCODKKJN@metin2_map_smhgate_flame@ DB 'metin2_map_smhgate_flame'
	DB	00H						; `string'
CONST	ENDS
;	COMDAT ??_C@_0BK@LDECKJLI@metin2_map_smhgate_desert@
CONST	SEGMENT
??_C@_0BK@LDECKJLI@metin2_map_smhgate_desert@ DB 'metin2_map_smhgate_dese'
	DB	'rt', 00H					; `string'
CONST	ENDS
;	COMDAT ??_C@_0BM@GFDJFHHO@metin2_map_smhgate_threeway@
CONST	SEGMENT
??_C@_0BM@GFDJFHHO@metin2_map_smhgate_threeway@ DB 'metin2_map_smhgate_th'
	DB	'reeway', 00H				; `string'
CONST	ENDS
;	COMDAT ??_C@_0BG@LOALHEHB@metin2_map_smhgate_c1@
CONST	SEGMENT
??_C@_0BG@LOALHEHB@metin2_map_smhgate_c1@ DB 'metin2_map_smhgate_c1', 00H ; `string'
CONST	ENDS
;	COMDAT ??_C@_0BG@LPMJBOEG@metin2_map_smhgate_b1@
CONST	SEGMENT
??_C@_0BG@LPMJBOEG@metin2_map_smhgate_b1@ DB 'metin2_map_smhgate_b1', 00H ; `string'
CONST	ENDS
;	COMDAT ??_C@_0BG@LNIPKABP@metin2_map_smhgate_a1@
CONST	SEGMENT
??_C@_0BG@LNIPKABP@metin2_map_smhgate_a1@ DB 'metin2_map_smhgate_a1', 00H ; `string'
CONST	ENDS
;	COMDAT ??_C@_0BJ@GJDPGGFG@metin2_map_otherworld_04@
CONST	SEGMENT
??_C@_0BJ@GJDPGGFG@metin2_map_otherworld_04@ DB 'metin2_map_otherworld_04'
	DB	00H						; `string'
CONST	ENDS
;	COMDAT ??_C@_0BJ@CGHOPAJB@metin2_map_otherworld_03@
CONST	SEGMENT
??_C@_0BJ@CGHOPAJB@metin2_map_otherworld_03@ DB 'metin2_map_otherworld_03'
	DB	00H						; `string'
CONST	ENDS
;	COMDAT ??_C@_0BJ@DPGFMBNA@metin2_map_otherworld_02@
CONST	SEGMENT
??_C@_0BJ@DPGFMBNA@metin2_map_otherworld_02@ DB 'metin2_map_otherworld_02'
	DB	00H						; `string'
CONST	ENDS
;	COMDAT ??_C@_0BJ@BEEIJCBD@metin2_map_otherworld_01@
CONST	SEGMENT
??_C@_0BJ@BEEIJCBD@metin2_map_otherworld_01@ DB 'metin2_map_otherworld_01'
	DB	00H						; `string'
CONST	ENDS
;	COMDAT ??_C@_0BN@HJBMAFG@metin2_map_anglar_dungeon_01@
CONST	SEGMENT
??_C@_0BN@HJBMAFG@metin2_map_anglar_dungeon_01@ DB 'metin2_map_anglar_dun'
	DB	'geon_01', 00H				; `string'
CONST	ENDS
;	COMDAT ??_C@_0CA@GDLDBDHP@metin2_map_whitedragoncave_boss@
CONST	SEGMENT
??_C@_0CA@GDLDBDHP@metin2_map_whitedragoncave_boss@ DB 'metin2_map_whited'
	DB	'ragoncave_boss', 00H			; `string'
CONST	ENDS
;	COMDAT ??_C@_0BO@GEINFIP@metin2_map_whitedragoncave_02@
CONST	SEGMENT
??_C@_0BO@GEINFIP@metin2_map_whitedragoncave_02@ DB 'metin2_map_whitedrag'
	DB	'oncave_02', 00H				; `string'
CONST	ENDS
;	COMDAT ??_C@_0BO@CNGFIGEM@metin2_map_whitedragoncave_01@
CONST	SEGMENT
??_C@_0BO@CNGFIGEM@metin2_map_whitedragoncave_01@ DB 'metin2_map_whitedra'
	DB	'goncave_01', 00H				; `string'
CONST	ENDS
;	COMDAT ??_C@_0BL@CFMCNICB@metin2_map_snake_temple_02@
CONST	SEGMENT
??_C@_0BL@CFMCNICB@metin2_map_snake_temple_02@ DB 'metin2_map_snake_templ'
	DB	'e_02', 00H					; `string'
CONST	ENDS
;	COMDAT ??_C@_0BJ@NODJCDMK@metin2_map_smhdungeon_02@
CONST	SEGMENT
??_C@_0BJ@NODJCDMK@metin2_map_smhdungeon_02@ DB 'metin2_map_smhdungeon_02'
	DB	00H						; `string'
CONST	ENDS
;	COMDAT ??_C@_0BJ@PFBEHAAJ@metin2_map_smhdungeon_01@
CONST	SEGMENT
??_C@_0BJ@PFBEHAAJ@metin2_map_smhdungeon_01@ DB 'metin2_map_smhdungeon_01'
	DB	00H						; `string'
CONST	ENDS
;	COMDAT ??_C@_0BI@LLBLCHPB@metin2_map_elemental_04@
CONST	SEGMENT
??_C@_0BI@LLBLCHPB@metin2_map_elemental_04@ DB 'metin2_map_elemental_04', 00H ; `string'
CONST	ENDS
;	COMDAT ??_C@_0BI@PEFKLBDG@metin2_map_elemental_03@
CONST	SEGMENT
??_C@_0BI@PEFKLBDG@metin2_map_elemental_03@ DB 'metin2_map_elemental_03', 00H ; `string'
CONST	ENDS
;	COMDAT ??_C@_0BI@ONEBIAHH@metin2_map_elemental_02@
CONST	SEGMENT
??_C@_0BI@ONEBIAHH@metin2_map_elemental_02@ DB 'metin2_map_elemental_02', 00H ; `string'
CONST	ENDS
;	COMDAT ??_C@_0BI@MGGMNDLE@metin2_map_elemental_01@
CONST	SEGMENT
??_C@_0BI@MGGMNDLE@metin2_map_elemental_01@ DB 'metin2_map_elemental_01', 00H ; `string'
CONST	ENDS
;	COMDAT ??_C@_0CA@GAPPFEAI@metin2_map_boss_awaken_dawnmist@
CONST	SEGMENT
??_C@_0CA@GAPPFEAI@metin2_map_boss_awaken_dawnmist@ DB 'metin2_map_boss_a'
	DB	'waken_dawnmist', 00H			; `string'
CONST	ENDS
;	COMDAT ??_C@_0BM@MFCNCOKE@metin2_map_boss_awaken_snow@
CONST	SEGMENT
??_C@_0BM@MFCNCOKE@metin2_map_boss_awaken_snow@ DB 'metin2_map_boss_awake'
	DB	'n_snow', 00H				; `string'
CONST	ENDS
;	COMDAT ??_C@_0BN@BBEBEEOA@metin2_map_boss_awaken_flame@
CONST	SEGMENT
??_C@_0BN@BBEBEEOA@metin2_map_boss_awaken_flame@ DB 'metin2_map_boss_awak'
	DB	'en_flame', 00H				; `string'
CONST	ENDS
;	COMDAT ??_C@_0BO@GPAHEHOM@metin2_map_boss_awaken_skipia@
CONST	SEGMENT
??_C@_0BO@GPAHEHOM@metin2_map_boss_awaken_skipia@ DB 'metin2_map_boss_awa'
	DB	'ken_skipia', 00H				; `string'
CONST	ENDS
;	COMDAT ??_C@_0BP@LFLNPEJC@metin2_map_boss_crack_dawnmist@
CONST	SEGMENT
??_C@_0BP@LFLNPEJC@metin2_map_boss_crack_dawnmist@ DB 'metin2_map_boss_cr'
	DB	'ack_dawnmist', 00H				; `string'
CONST	ENDS
;	COMDAT ??_C@_0BL@IOFGIHGL@metin2_map_boss_crack_snow@
CONST	SEGMENT
??_C@_0BL@IOFGIHGL@metin2_map_boss_crack_snow@ DB 'metin2_map_boss_crack_'
	DB	'snow', 00H					; `string'
CONST	ENDS
;	COMDAT ??_C@_0BM@BKNBOAGI@metin2_map_boss_crack_flame@
CONST	SEGMENT
??_C@_0BM@BKNBOAGI@metin2_map_boss_crack_flame@ DB 'metin2_map_boss_crack'
	DB	'_flame', 00H				; `string'
CONST	ENDS
;	COMDAT ??_C@_0BN@IMGPNMFK@metin2_map_boss_crack_skipia@
CONST	SEGMENT
??_C@_0BN@IMGPNMFK@metin2_map_boss_crack_skipia@ DB 'metin2_map_boss_crac'
	DB	'k_skipia', 00H				; `string'
CONST	ENDS
;	COMDAT ??_C@_0BF@NKNFGHKP@metin2_map_labyrinth@
CONST	SEGMENT
??_C@_0BF@NKNFGHKP@metin2_map_labyrinth@ DB 'metin2_map_labyrinth', 00H ; `string'
CONST	ENDS
;	COMDAT ??_C@_0BH@NLDHDJGA@metin2_map_miniboss_02@
CONST	SEGMENT
??_C@_0BH@NLDHDJGA@metin2_map_miniboss_02@ DB 'metin2_map_miniboss_02', 00H ; `string'
CONST	ENDS
;	COMDAT ??_C@_0BH@PABKGKKD@metin2_map_miniboss_01@
CONST	SEGMENT
??_C@_0BH@PABKGKKD@metin2_map_miniboss_01@ DB 'metin2_map_miniboss_01', 00H ; `string'
CONST	ENDS
;	COMDAT ??_C@_0BL@DJCCLDDO@metin2_map_mists_of_island@
CONST	SEGMENT
??_C@_0BL@DJCCLDDO@metin2_map_mists_of_island@ DB 'metin2_map_mists_of_is'
	DB	'land', 00H					; `string'
CONST	ENDS
;	COMDAT ??_C@_0BM@DMALCIAL@metin2_map_defensewave_port@
CONST	SEGMENT
??_C@_0BM@DMALCIAL@metin2_map_defensewave_port@ DB 'metin2_map_defensewav'
	DB	'e_port', 00H				; `string'
CONST	ENDS
;	COMDAT ??_C@_0BH@PPKADDBG@metin2_map_defensewave@
CONST	SEGMENT
??_C@_0BH@PPKADDBG@metin2_map_defensewave@ DB 'metin2_map_defensewave', 00H ; `string'
CONST	ENDS
;	COMDAT ??_C@_0BK@BLHADCMM@metin2_map_n_flame_dragon@
CONST	SEGMENT
??_C@_0BK@BLHADCMM@metin2_map_n_flame_dragon@ DB 'metin2_map_n_flame_drag'
	DB	'on', 00H					; `string'
CONST	ENDS
;	COMDAT ??_C@_0BC@PHGCCADE@metin2_12zi_stage@
CONST	SEGMENT
??_C@_0BC@PHGCCADE@metin2_12zi_stage@ DB 'metin2_12zi_stage', 00H ; `string'
CONST	ENDS
;	COMDAT ??_C@_0BM@HFMBKOGD@metin2_map_Mt_Th_dungeon_01@
CONST	SEGMENT
??_C@_0BM@HFMBKOGD@metin2_map_Mt_Th_dungeon_01@ DB 'metin2_map_Mt_Th_dung'
	DB	'eon_01', 00H				; `string'
CONST	ENDS
;	COMDAT ??_C@_0BP@FBPOOPOE@metin2_map_dawnmist_dungeon_01@
CONST	SEGMENT
??_C@_0BP@FBPOOPOE@metin2_map_dawnmist_dungeon_01@ DB 'metin2_map_dawnmis'
	DB	't_dungeon_01', 00H				; `string'
CONST	ENDS
;	COMDAT ??_C@_0BH@EOJPPMKE@metin2_map_deviltower1@
CONST	SEGMENT
??_C@_0BH@EOJPPMKE@metin2_map_deviltower1@ DB 'metin2_map_deviltower1', 00H ; `string'
CONST	ENDS
;	COMDAT ??_C@_0BM@GPCJFIII@metin2_map_spiderdungeon_03@
CONST	SEGMENT
??_C@_0BM@GPCJFIII@metin2_map_spiderdungeon_03@ DB 'metin2_map_spiderdung'
	DB	'eon_03', 00H				; `string'
CONST	ENDS
;	COMDAT ??_C@_0BM@HGDCGJMJ@metin2_map_spiderdungeon_02@
CONST	SEGMENT
??_C@_0BM@HGDCGJMJ@metin2_map_spiderdungeon_02@ DB 'metin2_map_spiderdung'
	DB	'eon_02', 00H				; `string'
CONST	ENDS
;	COMDAT ??_C@_0BM@FNBPDKAK@metin2_map_spiderdungeon_01@
CONST	SEGMENT
??_C@_0BM@FNBPDKAK@metin2_map_spiderdungeon_01@ DB 'metin2_map_spiderdung'
	DB	'eon_01', 00H				; `string'
CONST	ENDS
;	COMDAT ??_C@_0BN@DJOCBOB@metin2_map_n_snow_dungeon_01@
CONST	SEGMENT
??_C@_0BN@DJOCBOB@metin2_map_n_snow_dungeon_01@ DB 'metin2_map_n_snow_dun'
	DB	'geon_01', 00H				; `string'
CONST	ENDS
;	COMDAT ??_C@_0BO@LLDNLMOD@metin2_map_n_flame_dungeon_01@
CONST	SEGMENT
??_C@_0BO@LLDNLMOD@metin2_map_n_flame_dungeon_01@ DB 'metin2_map_n_flame_'
	DB	'dungeon_01', 00H				; `string'
CONST	ENDS
;	COMDAT ??_C@_0BG@IPFJPPHP@metin2_map_Mt_Thunder@
CONST	SEGMENT
??_C@_0BG@IPFJPPHP@metin2_map_Mt_Thunder@ DB 'metin2_map_Mt_Thunder', 00H ; `string'
CONST	ENDS
;	COMDAT ??_C@_0BK@EILMEKBD@metin2_map_devilsCatacomb@
CONST	SEGMENT
??_C@_0BK@EILMEKBD@metin2_map_devilsCatacomb@ DB 'metin2_map_devilsCataco'
	DB	'mb', 00H					; `string'
CONST	ENDS
;	COMDAT ??_C@_0BH@EGLMCDHE@metin2_map_empirewar03@
CONST	SEGMENT
??_C@_0BH@EGLMCDHE@metin2_map_empirewar03@ DB 'metin2_map_empirewar03', 00H ; `string'
CONST	ENDS
;	COMDAT ??_C@_0DD@EAMKIDLO@d?3?1ymir?5work?1effect?1etc?1christm@
CONST	SEGMENT
??_C@_0DD@EAMKIDLO@d?3?1ymir?5work?1effect?1etc?1christm@ DB 'd:/ymir wor'
	DB	'k/effect/etc/christmas_tree/tree_3s.mse', 00H ; `string'
CONST	ENDS
;	COMDAT ??_C@_0DD@OGLNIIAK@d?3?1ymir?5work?1effect?1etc?1christm@
CONST	SEGMENT
??_C@_0DD@OGLNIIAK@d?3?1ymir?5work?1effect?1etc?1christm@ DB 'd:/ymir wor'
	DB	'k/effect/etc/christmas_tree/tree_2s.mse', 00H ; `string'
CONST	ENDS
;	COMDAT ??_C@_0DD@NHFFJCJH@d?3?1ymir?5work?1effect?1etc?1christm@
CONST	SEGMENT
??_C@_0DD@NHFFJCJH@d?3?1ymir?5work?1effect?1etc?1christm@ DB 'd:/ymir wor'
	DB	'k/effect/etc/christmas_tree/tree_1s.mse', 00H ; `string'
CONST	ENDS
;	COMDAT ??_C@_0CF@LPJHOPFJ@d?3?1ymir?5work?1tree?1christmastree@
CONST	SEGMENT
??_C@_0CF@LPJHOPFJ@d?3?1ymir?5work?1tree?1christmastree@ DB 'd:/ymir work'
	DB	'/tree/christmastree3.spt', 00H		; `string'
CONST	ENDS
;	COMDAT ??_C@_0CF@HEMLDMPM@d?3?1ymir?5work?1tree?1christmastree@
CONST	SEGMENT
??_C@_0CF@HEMLDMPM@d?3?1ymir?5work?1tree?1christmastree@ DB 'd:/ymir work'
	DB	'/tree/christmastree2.spt', 00H		; `string'
CONST	ENDS
;	COMDAT ??_C@_0CF@PCFPEOFC@d?3?1ymir?5work?1tree?1christmastree@
CONST	SEGMENT
??_C@_0CF@PCFPEOFC@d?3?1ymir?5work?1tree?1christmastree@ DB 'd:/ymir work'
	DB	'/tree/christmastree1.spt', 00H		; `string'
CONST	ENDS
;	COMDAT ??_C@_0P@EOAEHOGM@map_n_snowm_01@
CONST	SEGMENT
??_C@_0P@EOAEHOGM@map_n_snowm_01@ DB 'map_n_snowm_01', 00H ; `string'
CONST	ENDS
;	COMDAT ??_C@_1DG@LANFOGBA@?$AAi?$AAG?$AAr?$AAa?$AAd?$AAe?$AA?5?$AA?$DO?$AA?$DN?$AA?5?$AA0?$AA?5?$AA?$CG?$AA?$CG?$AA?5@
CONST	SEGMENT
??_C@_1DG@LANFOGBA@?$AAi?$AAG?$AAr?$AAa?$AAd?$AAe?$AA?5?$AA?$DO?$AA?$DN?$AA?5?$AA0?$AA?5?$AA?$CG?$AA?$CG?$AA?5@ DB 'i'
	DB	00H, 'G', 00H, 'r', 00H, 'a', 00H, 'd', 00H, 'e', 00H, ' ', 00H
	DB	'>', 00H, '=', 00H, ' ', 00H, '0', 00H, ' ', 00H, '&', 00H, '&'
	DB	00H, ' ', 00H, 'i', 00H, 'G', 00H, 'r', 00H, 'a', 00H, 'd', 00H
	DB	'e', 00H, ' ', 00H, '<', 00H, '=', 00H, ' ', 00H, '3', 00H, 00H
	DB	00H						; `string'
CONST	ENDS
;	COMDAT ??_C@_0CL@JOLELNDN@d?3?1ymir?5work?1environment?1moonli@
CONST	SEGMENT
??_C@_0CL@JOLELNDN@d?3?1ymir?5work?1environment?1moonli@ DB 'd:/ymir work'
	DB	'/environment/moonlight04.msenv', 00H	; `string'
CONST	ENDS
;	COMDAT ??_C@_1HG@OJBJJMHC@?$AA?$CI?$AAd?$AAw?$AAX?$AA?5?$AA?$DO?$AA?$DN?$AA?5?$AAr?$AAM?$AAa?$AAp?$AAI?$AAn?$AAf@
CONST	SEGMENT
??_C@_1HG@OJBJJMHC@?$AA?$CI?$AAd?$AAw?$AAX?$AA?5?$AA?$DO?$AA?$DN?$AA?5?$AAr?$AAM?$AAa?$AAp?$AAI?$AAn?$AAf@ DB '('
	DB	00H, 'd', 00H, 'w', 00H, 'X', 00H, ' ', 00H, '>', 00H, '=', 00H
	DB	' ', 00H, 'r', 00H, 'M', 00H, 'a', 00H, 'p', 00H, 'I', 00H, 'n'
	DB	00H, 'f', 00H, 'o', 00H, '.', 00H, 'm', 00H, '_', 00H, 'd', 00H
	DB	'w', 00H, 'B', 00H, 'a', 00H, 's', 00H, 'e', 00H, 'X', 00H, ')'
	DB	00H, ' ', 00H, '&', 00H, '&', 00H, ' ', 00H, '(', 00H, 'd', 00H
	DB	'w', 00H, 'Y', 00H, ' ', 00H, '>', 00H, '=', 00H, ' ', 00H, 'r'
	DB	00H, 'M', 00H, 'a', 00H, 'p', 00H, 'I', 00H, 'n', 00H, 'f', 00H
	DB	'o', 00H, '.', 00H, 'm', 00H, '_', 00H, 'd', 00H, 'w', 00H, 'B'
	DB	00H, 'a', 00H, 's', 00H, 'e', 00H, 'Y', 00H, ')', 00H, 00H, 00H ; `string'
CONST	ENDS
;	COMDAT ??_C@_1KK@CCJDGFDK@?$AAC?$AA?3?$AA?2?$AAA?$AAn?$AAk?$AAa?$AA2?$AAP?$AAr?$AAo?$AAj?$AAe?$AAc?$AAt@
CONST	SEGMENT
??_C@_1KK@CCJDGFDK@?$AAC?$AA?3?$AA?2?$AAA?$AAn?$AAk?$AAa?$AA2?$AAP?$AAr?$AAo?$AAj?$AAe?$AAc?$AAt@ DB 'C'
	DB	00H, ':', 00H, '\', 00H, 'A', 00H, 'n', 00H, 'k', 00H, 'a', 00H
	DB	'2', 00H, 'P', 00H, 'r', 00H, 'o', 00H, 'j', 00H, 'e', 00H, 'c'
	DB	00H, 't', 00H, '\', 00H, 'A', 00H, 'n', 00H, 'k', 00H, 'a', 00H
	DB	'2', 00H, 'P', 00H, 'r', 00H, 'o', 00H, 'j', 00H, 'e', 00H, 'c'
	DB	00H, 't', 00H, '\', 00H, 'S', 00H, 'o', 00H, 'u', 00H, 'r', 00H
	DB	'c', 00H, 'e', 00H, '\', 00H, 'B', 00H, 'i', 00H, 'n', 00H, 'a'
	DB	00H, 'r', 00H, 'y', 00H, '\', 00H, 's', 00H, 'o', 00H, 'u', 00H
	DB	'r', 00H, 'c', 00H, 'e', 00H, '\', 00H, 'U', 00H, 's', 00H, 'e'
	DB	00H, 'r', 00H, 'I', 00H, 'n', 00H, 't', 00H, 'e', 00H, 'r', 00H
	DB	'f', 00H, 'a', 00H, 'c', 00H, 'e', 00H, '\', 00H, 'P', 00H, 'y'
	DB	00H, 't', 00H, 'h', 00H, 'o', 00H, 'n', 00H, 'B', 00H, 'a', 00H
	DB	'c', 00H, 'k', 00H, 'g', 00H, 'r', 00H, 'o', 00H, 'u', 00H, 'n'
	DB	00H, 'd', 00H, '.', 00H, 'c', 00H, 'p', 00H, 'p', 00H, 00H, 00H ; `string'
CONST	ENDS
;	COMDAT ??_C@_0CC@FDBLKFI@NOT_FOUND_GLOBAL_POSITION?$CI?$CFd?0?5?$CF@
CONST	SEGMENT
??_C@_0CC@FDBLKFI@NOT_FOUND_GLOBAL_POSITION?$CI?$CFd?0?5?$CF@ DB 'NOT_FOU'
	DB	'ND_GLOBAL_POSITION(%d, %d)', 00H		; `string'
CONST	ENDS
;	COMDAT ??_C@_0O@NAMKDHJD@pack?1property@
CONST	SEGMENT
??_C@_0O@NAMKDHJD@pack?1property@ DB 'pack/property', 00H ; `string'
CONST	ENDS
;	COMDAT ??_C@_03EMIMMIHL@?$CK?4?$CK@
CONST	SEGMENT
??_C@_03EMIMMIHL@?$CK?4?$CK@ DB '*.*', 00H		; `string'
CONST	ENDS
;	COMDAT ??_C@_08MOOMJPBO@Property@
CONST	SEGMENT
??_C@_08MOOMJPBO@Property@ DB 'Property', 00H		; `string'
CONST	ENDS
;	COMDAT ??_C@_08EMBNBNLN@property@
CONST	SEGMENT
??_C@_08EMBNBNLN@property@ DB 'property', 00H		; `string'
CONST	ENDS
;	COMDAT ??_C@_0O@EEKDAHG@AtlasInfo?4txt@
CONST	SEGMENT
??_C@_0O@EEKDAHG@AtlasInfo?4txt@ DB 'AtlasInfo.txt', 00H ; `string'
CONST	ENDS
;	COMDAT ??_C@_0BI@FJAIMBEC@CPythonBackground?5Clear@
CONST	SEGMENT
??_C@_0BI@FJAIMBEC@CPythonBackground?5Clear@ DB 'CPythonBackground Clear', 00H ; `string'
CONST	ENDS
;	COMDAT ??_C@_0FF@DMIGEFGG@CPythonBackground?3?3SelectViewDi@
CONST	SEGMENT
??_C@_0FF@DMIGEFGG@CPythonBackground?3?3SelectViewDi@ DB 'CPythonBackgrou'
	DB	'nd::SelectViewDistanceNum(int eNum=%d) mc_pcurEnvironmentData'
	DB	' is NULL', 00H				; `string'
CONST	ENDS
;	COMDAT ??_C@_0DF@GEMPMAOP@d?3?1ymir?5work?1effect?1etc?1directi@
CONST	SEGMENT
??_C@_0DF@GEMPMAOP@d?3?1ymir?5work?1effect?1etc?1directi@ DB 'd:/ymir wor'
	DB	'k/effect/etc/direction/direction_land.mse', 00H ; `string'
PUBLIC	??$?8DU?$char_traits@D@std@@V?$allocator@D@1@@std@@YA_NABV?$basic_string@DU?$char_traits@D@std@@V?$allocator@D@2@@0@0@Z ; std::operator==<char,std::char_traits<char>,std::allocator<char> >
PUBLIC	?_Equal@?$basic_string@DU?$char_traits@D@std@@V?$allocator@D@2@@std@@QBE_NABV12@@Z ; std::basic_string<char,std::char_traits<char>,std::allocator<char> >::_Equal
PUBLIC	??$_Traits_equal@U?$char_traits@D@std@@@std@@YA_NQBDI0I@Z ; std::_Traits_equal<std::char_traits<char> >
PUBLIC	??_ECPythonBackground@@W3AEPAXI@Z		; [thunk]:CPythonBackground::`vector deleting destructor'
PUBLIC	??_ECPythonBackground@@WBENI@AEPAXI@Z		; [thunk]:CPythonBackground::`vector deleting destructor'
PUBLIC	??$construct_at@HAAH@std@@YAPAHQAHAAH@Z		; std::construct_at<int,int &>
PUBLIC	??$construct@HAAH@?$_Default_allocator_traits@V?$allocator@U?$_Tree_node@HPAX@std@@@std@@@std@@SAXAAV?$allocator@U?$_Tree_node@HPAX@std@@@1@QAHAAH@Z ; std::_Default_allocator_traits<std::allocator<std::_Tree_node<int,void *> > >::construct<int,int &>
PUBLIC	??$forward@USReserveTargetEffect@CPythonBackground@@@std@@YA$$QAUSReserveTargetEffect@CPythonBackground@@AAU12@@Z ; std::forward<CPythonBackground::SReserveTargetEffect>
PUBLIC	?_Get_first@?$_Compressed_pair@V?$allocator@U?$_Tree_node@U?$pair@$$CBKUSReserveTargetEffect@CPythonBackground@@@std@@PAX@std@@@std@@V?$_Tree_val@U?$_Tree_simple_types@U?$pair@$$CBKUSReserveTargetEffect@CPythonBackground@@@std@@@std@@@2@$00@std@@QBEABV?$allocator@U?$_Tree_node@U?$pair@$$CBKUSReserveTargetEffect@CPythonBackground@@@std@@PAX@std@@@2@XZ ; std::_Compressed_pair<std::allocator<std::_Tree_node<std::pair<unsigned long const ,CPythonBackground::SReserveTargetEffect>,void *> >,std::_Tree_val<std::_Tree_simple_types<std::pair<unsigned long const ,CPythonBackground::SReserveTargetEffect> > >,1>::_Get_first
PUBLIC	??$_Buynode@V?$allocator@U?$_Tree_node@HPAX@std@@@std@@AAH@?$_Tree_node@HPAX@std@@SAPAU01@AAV?$allocator@U?$_Tree_node@HPAX@std@@@1@PAU01@AAH@Z ; std::_Tree_node<int,void *>::_Buynode<std::allocator<std::_Tree_node<int,void *> >,int &>
PUBLIC	??$?0KUSReserveTargetEffect@CPythonBackground@@$0A@@?$pair@$$CBKUSReserveTargetEffect@CPythonBackground@@@std@@QAE@$$QAU?$pair@KUSReserveTargetEffect@CPythonBackground@@@1@@Z ; std::pair<unsigned long const ,CPythonBackground::SReserveTargetEffect>::pair<unsigned long const ,CPythonBackground::SReserveTargetEffect><unsigned long,CPythonBackground::SReserveTargetEffect,0>
PUBLIC	?_Get_first@?$_Compressed_pair@V?$allocator@U?$_Tree_node@V?$basic_string@DU?$char_traits@D@std@@V?$allocator@D@2@@std@@PAX@std@@@std@@V?$_Tree_val@U?$_Tree_simple_types@V?$basic_string@DU?$char_traits@D@std@@V?$allocator@D@2@@std@@@std@@@2@$00@std@@QBEABV?$allocator@U?$_Tree_node@V?$basic_string@DU?$char_traits@D@std@@V?$allocator@D@2@@std@@PAX@std@@@2@XZ ; std::_Compressed_pair<std::allocator<std::_Tree_node<std::basic_string<char,std::char_traits<char>,std::allocator<char> >,void *> >,std::_Tree_val<std::_Tree_simple_types<std::basic_string<char,std::char_traits<char>,std::allocator<char> > > >,1>::_Get_first
PUBLIC	?_Getal@?$_Tree@V?$_Tmap_traits@KUSReserveTargetEffect@CPythonBackground@@U?$less@K@std@@V?$allocator@U?$pair@$$CBKUSReserveTargetEffect@CPythonBackground@@@std@@@4@$0A@@std@@@std@@IBEABV?$allocator@U?$_Tree_node@U?$pair@$$CBKUSReserveTargetEffect@CPythonBackground@@@std@@PAX@std@@@2@XZ ; std::_Tree<std::_Tmap_traits<unsigned long,CPythonBackground::SReserveTargetEffect,std::less<unsigned long>,std::allocator<std::pair<unsigned long const ,CPythonBackground::SReserveTargetEffect> >,0> >::_Getal
PUBLIC	?max_size@?$_Default_allocator_traits@V?$allocator@U?$_Tree_node@U?$pair@$$CBKUSReserveTargetEffect@CPythonBackground@@@std@@PAX@std@@@std@@@std@@SAIABV?$allocator@U?$_Tree_node@U?$pair@$$CBKUSReserveTargetEffect@CPythonBackground@@@std@@PAX@std@@@2@@Z ; std::_Default_allocator_traits<std::allocator<std::_Tree_node<std::pair<unsigned long const ,CPythonBackground::SReserveTargetEffect>,void *> > >::max_size
PUBLIC	??0?$_Alloc_construct_ptr@V?$allocator@U?$_Tree_node@U?$pair@$$CBKUSReserveTargetEffect@CPythonBackground@@@std@@PAX@std@@@std@@@std@@QAE@AAV?$allocator@U?$_Tree_node@U?$pair@$$CBKUSReserveTargetEffect@CPythonBackground@@@std@@PAX@std@@@1@@Z ; std::_Alloc_construct_ptr<std::allocator<std::_Tree_node<std::pair<unsigned long const ,CPythonBackground::SReserveTargetEffect>,void *> > >::_Alloc_construct_ptr<std::allocator<std::_Tree_node<std::pair<unsigned long const ,CPythonBackground::SReserveTargetEffect>,void *> > >
PUBLIC	?_Allocate@?$_Alloc_construct_ptr@V?$allocator@U?$_Tree_node@U?$pair@$$CBKUSReserveTargetEffect@CPythonBackground@@@std@@PAX@std@@@std@@@std@@QAEXXZ ; std::_Alloc_construct_ptr<std::allocator<std::_Tree_node<std::pair<unsigned long const ,CPythonBackground::SReserveTargetEffect>,void *> > >::_Allocate
PUBLIC	??$_Get_size_of_n@$0CI@@std@@YAII@Z		; std::_Get_size_of_n<40>
PUBLIC	??$_Erase_tree_and_orphan@V?$allocator@U?$_Tree_node@HPAX@std@@@std@@@?$_Tree_val@U?$_Tree_simple_types@H@std@@@std@@QAEXAAV?$allocator@U?$_Tree_node@HPAX@std@@@1@PAU?$_Tree_node@HPAX@1@@Z ; std::_Tree_val<std::_Tree_simple_types<int> >::_Erase_tree_and_orphan<std::allocator<std::_Tree_node<int,void *> > >
PUBLIC	??$construct_at@PAU?$_Tree_node@HPAX@std@@ABQAU12@@std@@YAPAPAU?$_Tree_node@HPAX@0@QAPAU10@ABQAU10@@Z ; std::construct_at<std::_Tree_node<int,void *> *,std::_Tree_node<int,void *> * const &>
PUBLIC	??$forward@ABQAU?$_Tree_node@HPAX@std@@@std@@YAABQAU?$_Tree_node@HPAX@0@ABQAU10@@Z ; std::forward<std::_Tree_node<int,void *> * const &>
PUBLIC	??$construct_at@PAU?$_Tree_node@V?$basic_string@DU?$char_traits@D@std@@V?$allocator@D@2@@std@@PAX@std@@ABQAU12@@std@@YAPAPAU?$_Tree_node@V?$basic_string@DU?$char_traits@D@std@@V?$allocator@D@2@@std@@PAX@0@QAPAU10@ABQAU10@@Z ; std::construct_at<std::_Tree_node<std::basic_string<char,std::char_traits<char>,std::allocator<char> >,void *> *,std::_Tree_node<std::basic_string<char,std::char_traits<char>,std::allocator<char> >,void *> * const &>
PUBLIC	??$forward@ABQAU?$_Tree_node@V?$basic_string@DU?$char_traits@D@std@@V?$allocator@D@2@@std@@PAX@std@@@std@@YAABQAU?$_Tree_node@V?$basic_string@DU?$char_traits@D@std@@V?$allocator@D@2@@std@@PAX@0@ABQAU10@@Z ; std::forward<std::_Tree_node<std::basic_string<char,std::char_traits<char>,std::allocator<char> >,void *> * const &>
PUBLIC	??$construct_at@PAU?$_Tree_node@U?$pair@$$CBKUSReserveTargetEffect@CPythonBackground@@@std@@PAX@std@@ABQAU12@@std@@YAPAPAU?$_Tree_node@U?$pair@$$CBKUSReserveTargetEffect@CPythonBackground@@@std@@PAX@0@QAPAU10@ABQAU10@@Z ; std::construct_at<std::_Tree_node<std::pair<unsigned long const ,CPythonBackground::SReserveTargetEffect>,void *> *,std::_Tree_node<std::pair<unsigned long const ,CPythonBackground::SReserveTargetEffect>,void *> * const &>
PUBLIC	??$forward@ABQAU?$_Tree_node@U?$pair@$$CBKUSReserveTargetEffect@CPythonBackground@@@std@@PAX@std@@@std@@YAABQAU?$_Tree_node@U?$pair@$$CBKUSReserveTargetEffect@CPythonBackground@@@std@@PAX@0@ABQAU10@@Z ; std::forward<std::_Tree_node<std::pair<unsigned long const ,CPythonBackground::SReserveTargetEffect>,void *> * const &>
PUBLIC	??$_Buynode@AAH@?$_Tree@V?$_Tset_traits@HU?$less@H@std@@V?$allocator@H@2@$0A@@std@@@std@@IAEPAU?$_Tree_node@HPAX@1@AAH@Z ; std::_Tree<std::_Tset_traits<int,std::less<int>,std::allocator<int>,0> >::_Buynode<int &>
PUBLIC	??$construct_at@PAU?$_Tree_node@U?$pair@$$CBKUSReserveTargetEffect@CPythonBackground@@@std@@PAX@std@@AAPAU12@@std@@YAPAPAU?$_Tree_node@U?$pair@$$CBKUSReserveTargetEffect@CPythonBackground@@@std@@PAX@0@QAPAU10@AAPAU10@@Z ; std::construct_at<std::_Tree_node<std::pair<unsigned long const ,CPythonBackground::SReserveTargetEffect>,void *> *,std::_Tree_node<std::pair<unsigned long const ,CPythonBackground::SReserveTargetEffect>,void *> * &>
PUBLIC	??$addressof@PAU?$_Tree_node@U?$pair@$$CBKUSReserveTargetEffect@CPythonBackground@@@std@@PAX@std@@@std@@YAPAPAU?$_Tree_node@U?$pair@$$CBKUSReserveTargetEffect@CPythonBackground@@@std@@PAX@0@AAPAU10@@Z ; std::addressof<std::_Tree_node<std::pair<unsigned long const ,CPythonBackground::SReserveTargetEffect>,void *> *>
PUBLIC	??$construct_at@U?$pair@$$CBKUSReserveTargetEffect@CPythonBackground@@@std@@U?$pair@KUSReserveTargetEffect@CPythonBackground@@@2@@std@@YAPAU?$pair@$$CBKUSReserveTargetEffect@CPythonBackground@@@0@QAU10@$$QAU?$pair@KUSReserveTargetEffect@CPythonBackground@@@0@@Z ; std::construct_at<std::pair<unsigned long const ,CPythonBackground::SReserveTargetEffect>,std::pair<unsigned long,CPythonBackground::SReserveTargetEffect> >
PUBLIC	??0?$allocator@U?$_Tree_node@HPAX@std@@@std@@QAE@XZ ; std::allocator<std::_Tree_node<int,void *> >::allocator<std::_Tree_node<int,void *> >
PUBLIC	?deallocate@?$allocator@U?$_Tree_node@HPAX@std@@@std@@QAEXQAU?$_Tree_node@HPAX@2@I@Z ; std::allocator<std::_Tree_node<int,void *> >::deallocate
PUBLIC	?allocate@?$allocator@U?$_Tree_node@HPAX@std@@@std@@QAEPAU?$_Tree_node@HPAX@2@I@Z ; std::allocator<std::_Tree_node<int,void *> >::allocate
PUBLIC	?max_size@?$_Default_allocator_traits@V?$allocator@U?$_Tree_node@HPAX@std@@@std@@@std@@SAIABV?$allocator@U?$_Tree_node@HPAX@std@@@2@@Z ; std::_Default_allocator_traits<std::allocator<std::_Tree_node<int,void *> > >::max_size
PUBLIC	??0?$_Tree_val@U?$_Tree_simple_types@H@std@@@std@@QAE@XZ ; std::_Tree_val<std::_Tree_simple_types<int> >::_Tree_val<std::_Tree_simple_types<int> >
PUBLIC	?_Getal@?$_Tree@V?$_Tset_traits@V?$basic_string@DU?$char_traits@D@std@@V?$allocator@D@2@@std@@U?$less@V?$basic_string@DU?$char_traits@D@std@@V?$allocator@D@2@@std@@@2@V?$allocator@V?$basic_string@DU?$char_traits@D@std@@V?$allocator@D@2@@std@@@2@$0A@@std@@@std@@IBEABV?$allocator@U?$_Tree_node@V?$basic_string@DU?$char_traits@D@std@@V?$allocator@D@2@@std@@PAX@std@@@2@XZ ; std::_Tree<std::_Tset_traits<std::basic_string<char,std::char_traits<char>,std::allocator<char> >,std::less<std::basic_string<char,std::char_traits<char>,std::allocator<char> > >,std::allocator<std::basic_string<char,std::char_traits<char>,std::allocator<char> > >,0> >::_Getal
PUBLIC	??0?$allocator@U?$_Tree_node@V?$basic_string@DU?$char_traits@D@std@@V?$allocator@D@2@@std@@PAX@std@@@std@@QAE@XZ ; std::allocator<std::_Tree_node<std::basic_string<char,std::char_traits<char>,std::allocator<char> >,void *> >::allocator<std::_Tree_node<std::basic_string<char,std::char_traits<char>,std::allocator<char> >,void *> >
PUBLIC	?deallocate@?$allocator@U?$_Tree_node@V?$basic_string@DU?$char_traits@D@std@@V?$allocator@D@2@@std@@PAX@std@@@std@@QAEXQAU?$_Tree_node@V?$basic_string@DU?$char_traits@D@std@@V?$allocator@D@2@@std@@PAX@2@I@Z ; std::allocator<std::_Tree_node<std::basic_string<char,std::char_traits<char>,std::allocator<char> >,void *> >::deallocate
PUBLIC	?allocate@?$allocator@U?$_Tree_node@V?$basic_string@DU?$char_traits@D@std@@V?$allocator@D@2@@std@@PAX@std@@@std@@QAEPAU?$_Tree_node@V?$basic_string@DU?$char_traits@D@std@@V?$allocator@D@2@@std@@PAX@2@I@Z ; std::allocator<std::_Tree_node<std::basic_string<char,std::char_traits<char>,std::allocator<char> >,void *> >::allocate
PUBLIC	?max_size@?$_Default_allocator_traits@V?$allocator@U?$_Tree_node@V?$basic_string@DU?$char_traits@D@std@@V?$allocator@D@2@@std@@PAX@std@@@std@@@std@@SAIABV?$allocator@U?$_Tree_node@V?$basic_string@DU?$char_traits@D@std@@V?$allocator@D@2@@std@@PAX@std@@@2@@Z ; std::_Default_allocator_traits<std::allocator<std::_Tree_node<std::basic_string<char,std::char_traits<char>,std::allocator<char> >,void *> > >::max_size
PUBLIC	??0?$_Tree_val@U?$_Tree_simple_types@V?$basic_string@DU?$char_traits@D@std@@V?$allocator@D@2@@std@@@std@@@std@@QAE@XZ ; std::_Tree_val<std::_Tree_simple_types<std::basic_string<char,std::char_traits<char>,std::allocator<char> > > >::_Tree_val<std::_Tree_simple_types<std::basic_string<char,std::char_traits<char>,std::allocator<char> > > >
PUBLIC	?_Get_first@?$_Compressed_pair@U?$less@V?$basic_string@DU?$char_traits@D@std@@V?$allocator@D@2@@std@@@std@@V?$_Compressed_pair@V?$allocator@U?$_Tree_node@V?$basic_string@DU?$char_traits@D@std@@V?$allocator@D@2@@std@@PAX@std@@@std@@V?$_Tree_val@U?$_Tree_simple_types@V?$basic_string@DU?$char_traits@D@std@@V?$allocator@D@2@@std@@@std@@@2@$00@2@$00@std@@QBEABU?$less@V?$basic_string@DU?$char_traits@D@std@@V?$allocator@D@2@@std@@@2@XZ ; std::_Compressed_pair<std::less<std::basic_string<char,std::char_traits<char>,std::allocator<char> > >,std::_Compressed_pair<std::allocator<std::_Tree_node<std::basic_string<char,std::char_traits<char>,std::allocator<char> >,void *> >,std::_Tree_val<std::_Tree_simple_types<std::basic_string<char,std::char_traits<char>,std::allocator<char> > > >,1>,1>::_Get_first
PUBLIC	?max_size@?$_Tree@V?$_Tmap_traits@KUSReserveTargetEffect@CPythonBackground@@U?$less@K@std@@V?$allocator@U?$pair@$$CBKUSReserveTargetEffect@CPythonBackground@@@std@@@4@$0A@@std@@@std@@QBEIXZ ; std::_Tree<std::_Tmap_traits<unsigned long,CPythonBackground::SReserveTargetEffect,std::less<unsigned long>,std::allocator<std::pair<unsigned long const ,CPythonBackground::SReserveTargetEffect> >,0> >::max_size
PUBLIC	??0?$allocator@U?$_Tree_node@U?$pair@$$CBKUSReserveTargetEffect@CPythonBackground@@@std@@PAX@std@@@std@@QAE@XZ ; std::allocator<std::_Tree_node<std::pair<unsigned long const ,CPythonBackground::SReserveTargetEffect>,void *> >::allocator<std::_Tree_node<std::pair<unsigned long const ,CPythonBackground::SReserveTargetEffect>,void *> >
PUBLIC	?deallocate@?$allocator@U?$_Tree_node@U?$pair@$$CBKUSReserveTargetEffect@CPythonBackground@@@std@@PAX@std@@@std@@QAEXQAU?$_Tree_node@U?$pair@$$CBKUSReserveTargetEffect@CPythonBackground@@@std@@PAX@2@I@Z ; std::allocator<std::_Tree_node<std::pair<unsigned long const ,CPythonBackground::SReserveTargetEffect>,void *> >::deallocate
PUBLIC	?allocate@?$allocator@U?$_Tree_node@U?$pair@$$CBKUSReserveTargetEffect@CPythonBackground@@@std@@PAX@std@@@std@@QAEPAU?$_Tree_node@U?$pair@$$CBKUSReserveTargetEffect@CPythonBackground@@@std@@PAX@2@I@Z ; std::allocator<std::_Tree_node<std::pair<unsigned long const ,CPythonBackground::SReserveTargetEffect>,void *> >::allocate
PUBLIC	??0?$_Tree_val@U?$_Tree_simple_types@U?$pair@$$CBKUSReserveTargetEffect@CPythonBackground@@@std@@@std@@@std@@QAE@XZ ; std::_Tree_val<std::_Tree_simple_types<std::pair<unsigned long const ,CPythonBackground::SReserveTargetEffect> > >::_Tree_val<std::_Tree_simple_types<std::pair<unsigned long const ,CPythonBackground::SReserveTargetEffect> > >
PUBLIC	??0?$_Alloc_construct_ptr@V?$allocator@U?$_Tree_node@HPAX@std@@@std@@@std@@QAE@AAV?$allocator@U?$_Tree_node@HPAX@std@@@1@@Z ; std::_Alloc_construct_ptr<std::allocator<std::_Tree_node<int,void *> > >::_Alloc_construct_ptr<std::allocator<std::_Tree_node<int,void *> > >
PUBLIC	?_Allocate@?$_Alloc_construct_ptr@V?$allocator@U?$_Tree_node@HPAX@std@@@std@@@std@@QAEXXZ ; std::_Alloc_construct_ptr<std::allocator<std::_Tree_node<int,void *> > >::_Allocate
PUBLIC	??0?$_Alloc_construct_ptr@V?$allocator@U?$_Tree_node@V?$basic_string@DU?$char_traits@D@std@@V?$allocator@D@2@@std@@PAX@std@@@std@@@std@@QAE@AAV?$allocator@U?$_Tree_node@V?$basic_string@DU?$char_traits@D@std@@V?$allocator@D@2@@std@@PAX@std@@@1@@Z ; std::_Alloc_construct_ptr<std::allocator<std::_Tree_node<std::basic_string<char,std::char_traits<char>,std::allocator<char> >,void *> > >::_Alloc_construct_ptr<std::allocator<std::_Tree_node<std::basic_string<char,std::char_traits<char>,std::allocator<char> >,void *> > >
PUBLIC	?_Allocate@?$_Alloc_construct_ptr@V?$allocator@U?$_Tree_node@V?$basic_string@DU?$char_traits@D@std@@V?$allocator@D@2@@std@@PAX@std@@@std@@@std@@QAEXXZ ; std::_Alloc_construct_ptr<std::allocator<std::_Tree_node<std::basic_string<char,std::char_traits<char>,std::allocator<char> >,void *> > >::_Allocate
PUBLIC	??0?$_Tree_temp_node_alloc@V?$allocator@U?$_Tree_node@U?$pair@$$CBKUSReserveTargetEffect@CPythonBackground@@@std@@PAX@std@@@std@@@std@@QAE@AAV?$allocator@U?$_Tree_node@U?$pair@$$CBKUSReserveTargetEffect@CPythonBackground@@@std@@PAX@std@@@1@@Z ; std::_Tree_temp_node_alloc<std::allocator<std::_Tree_node<std::pair<unsigned long const ,CPythonBackground::SReserveTargetEffect>,void *> > >::_Tree_temp_node_alloc<std::allocator<std::_Tree_node<std::pair<unsigned long const ,CPythonBackground::SReserveTargetEffect>,void *> > >
PUBLIC	??1?$_Alloc_construct_ptr@V?$allocator@U?$_Tree_node@U?$pair@$$CBKUSReserveTargetEffect@CPythonBackground@@@std@@PAX@std@@@std@@@std@@QAE@XZ ; std::_Alloc_construct_ptr<std::allocator<std::_Tree_node<std::pair<unsigned long const ,CPythonBackground::SReserveTargetEffect>,void *> > >::~_Alloc_construct_ptr<std::allocator<std::_Tree_node<std::pair<unsigned long const ,CPythonBackground::SReserveTargetEffect>,void *> > >
PUBLIC	??1?$_Erase_tree_and_orphan_guard@V?$allocator@U?$_Tree_node@HPAX@std@@@std@@@?$_Tree_val@U?$_Tree_simple_types@H@std@@@std@@QAE@XZ ; std::_Tree_val<std::_Tree_simple_types<int> >::_Erase_tree_and_orphan_guard<std::allocator<std::_Tree_node<int,void *> > >::~_Erase_tree_and_orphan_guard<std::allocator<std::_Tree_node<int,void *> > >
PUBLIC	??$exchange@PAU?$_Tree_node@U?$pair@$$CBKUSReserveTargetEffect@CPythonBackground@@@std@@PAX@std@@$$T@std@@YAPAU?$_Tree_node@U?$pair@$$CBKUSReserveTargetEffect@CPythonBackground@@@std@@PAX@0@AAPAU10@$$QA$$T@Z ; std::exchange<std::_Tree_node<std::pair<unsigned long const ,CPythonBackground::SReserveTargetEffect>,void *> *,std::nullptr_t>
PUBLIC	??$_Construct_in_place@PAU?$_Tree_node@HPAX@std@@ABQAU12@@std@@YAXAAPAU?$_Tree_node@HPAX@0@ABQAU10@@Z ; std::_Construct_in_place<std::_Tree_node<int,void *> *,std::_Tree_node<int,void *> * const &>
PUBLIC	??$_Construct_in_place@PAU?$_Tree_node@V?$basic_string@DU?$char_traits@D@std@@V?$allocator@D@2@@std@@PAX@std@@ABQAU12@@std@@YAXAAPAU?$_Tree_node@V?$basic_string@DU?$char_traits@D@std@@V?$allocator@D@2@@std@@PAX@0@ABQAU10@@Z ; std::_Construct_in_place<std::_Tree_node<std::basic_string<char,std::char_traits<char>,std::allocator<char> >,void *> *,std::_Tree_node<std::basic_string<char,std::char_traits<char>,std::allocator<char> >,void *> * const &>
PUBLIC	??$_Construct_in_place@PAU?$_Tree_node@U?$pair@$$CBKUSReserveTargetEffect@CPythonBackground@@@std@@PAX@std@@ABQAU12@@std@@YAXAAPAU?$_Tree_node@U?$pair@$$CBKUSReserveTargetEffect@CPythonBackground@@@std@@PAX@0@ABQAU10@@Z ; std::_Construct_in_place<std::_Tree_node<std::pair<unsigned long const ,CPythonBackground::SReserveTargetEffect>,void *> *,std::_Tree_node<std::pair<unsigned long const ,CPythonBackground::SReserveTargetEffect>,void *> * const &>
PUBLIC	??$_Copy_or_move@$0A@H@?$_Tree@V?$_Tset_traits@HU?$less@H@std@@V?$allocator@H@2@$0A@@std@@@std@@IAEPAU?$_Tree_node@HPAX@1@AAH@Z ; std::_Tree<std::_Tset_traits<int,std::less<int>,std::allocator<int>,0> >::_Copy_or_move<0,int>
PUBLIC	??$destroy_at@H@std@@YAXQAH@Z			; std::destroy_at<int>
PUBLIC	??$destroy_at@U?$pair@$$CBKUSReserveTargetEffect@CPythonBackground@@@std@@@std@@YAXQAU?$pair@$$CBKUSReserveTargetEffect@CPythonBackground@@@0@@Z ; std::destroy_at<std::pair<unsigned long const ,CPythonBackground::SReserveTargetEffect> >
PUBLIC	??$forward@PAU?$_Tree_node@U?$pair@$$CBKUSReserveTargetEffect@CPythonBackground@@@std@@PAX@std@@@std@@YA$$QAPAU?$_Tree_node@U?$pair@$$CBKUSReserveTargetEffect@CPythonBackground@@@std@@PAX@0@AAPAU10@@Z ; std::forward<std::_Tree_node<std::pair<unsigned long const ,CPythonBackground::SReserveTargetEffect>,void *> *>
PUBLIC	??$_Construct_in_place@PAU?$_Tree_node@U?$pair@$$CBKUSReserveTargetEffect@CPythonBackground@@@std@@PAX@std@@AAPAU12@@std@@YAXAAPAU?$_Tree_node@U?$pair@$$CBKUSReserveTargetEffect@CPythonBackground@@@std@@PAX@0@0@Z ; std::_Construct_in_place<std::_Tree_node<std::pair<unsigned long const ,CPythonBackground::SReserveTargetEffect>,void *> *,std::_Tree_node<std::pair<unsigned long const ,CPythonBackground::SReserveTargetEffect>,void *> * &>
PUBLIC	??$construct@U?$pair@$$CBKUSReserveTargetEffect@CPythonBackground@@@std@@U?$pair@KUSReserveTargetEffect@CPythonBackground@@@2@@?$_Default_allocator_traits@V?$allocator@U?$_Tree_node@U?$pair@$$CBKUSReserveTargetEffect@CPythonBackground@@@std@@PAX@std@@@std@@@std@@SAXAAV?$allocator@U?$_Tree_node@U?$pair@$$CBKUSReserveTargetEffect@CPythonBackground@@@std@@PAX@std@@@1@QAU?$pair@$$CBKUSReserveTargetEffect@CPythonBackground@@@1@$$QAU?$pair@KUSReserveTargetEffect@CPythonBackground@@@1@@Z ; std::_Default_allocator_traits<std::allocator<std::_Tree_node<std::pair<unsigned long const ,CPythonBackground::SReserveTargetEffect>,void *> > >::construct<std::pair<unsigned long const ,CPythonBackground::SReserveTargetEffect>,std::pair<unsigned long,CPythonBackground::SReserveTargetEffect> >
PUBLIC	??$construct_at@PAU?$_Tree_node@V?$basic_string@DU?$char_traits@D@std@@V?$allocator@D@2@@std@@PAX@std@@AAPAU12@@std@@YAPAPAU?$_Tree_node@V?$basic_string@DU?$char_traits@D@std@@V?$allocator@D@2@@std@@PAX@0@QAPAU10@AAPAU10@@Z ; std::construct_at<std::_Tree_node<std::basic_string<char,std::char_traits<char>,std::allocator<char> >,void *> *,std::_Tree_node<std::basic_string<char,std::char_traits<char>,std::allocator<char> >,void *> * &>
PUBLIC	??$addressof@PAU?$_Tree_node@V?$basic_string@DU?$char_traits@D@std@@V?$allocator@D@2@@std@@PAX@std@@@std@@YAPAPAU?$_Tree_node@V?$basic_string@DU?$char_traits@D@std@@V?$allocator@D@2@@std@@PAX@0@AAPAU10@@Z ; std::addressof<std::_Tree_node<std::basic_string<char,std::char_traits<char>,std::allocator<char> >,void *> *>
PUBLIC	??$construct_at@PAU?$_Tree_node@HPAX@std@@AAPAU12@@std@@YAPAPAU?$_Tree_node@HPAX@0@QAPAU10@AAPAU10@@Z ; std::construct_at<std::_Tree_node<int,void *> *,std::_Tree_node<int,void *> * &>
PUBLIC	??$addressof@PAU?$_Tree_node@HPAX@std@@@std@@YAPAPAU?$_Tree_node@HPAX@0@AAPAU10@@Z ; std::addressof<std::_Tree_node<int,void *> *>
PUBLIC	??$construct_at@HABH@std@@YAPAHQAHABH@Z		; std::construct_at<int,int const &>
PUBLIC	??1?$_Tree_temp_node_alloc@V?$allocator@U?$_Tree_node@U?$pair@$$CBKUSReserveTargetEffect@CPythonBackground@@@std@@PAX@std@@@std@@@std@@QAE@XZ ; std::_Tree_temp_node_alloc<std::allocator<std::_Tree_node<std::pair<unsigned long const ,CPythonBackground::SReserveTargetEffect>,void *> > >::~_Tree_temp_node_alloc<std::allocator<std::_Tree_node<std::pair<unsigned long const ,CPythonBackground::SReserveTargetEffect>,void *> > >
PUBLIC	?_Kfn@?$_Tset_traits@HU?$less@H@std@@V?$allocator@H@2@$0A@@std@@SAABHABH@Z ; std::_Tset_traits<int,std::less<int>,std::allocator<int>,0>::_Kfn
PUBLIC	?max_size@?$_Tree@V?$_Tset_traits@HU?$less@H@std@@V?$allocator@H@2@$0A@@std@@@std@@QBEIXZ ; std::_Tree<std::_Tset_traits<int,std::less<int>,std::allocator<int>,0> >::max_size
PUBLIC	?deallocate@?$_Default_allocator_traits@V?$allocator@U?$_Tree_node@HPAX@std@@@std@@@std@@SAXAAV?$allocator@U?$_Tree_node@HPAX@std@@@2@QAU?$_Tree_node@HPAX@2@I@Z ; std::_Default_allocator_traits<std::allocator<std::_Tree_node<int,void *> > >::deallocate
PUBLIC	?_Max@?$_Tree_val@U?$_Tree_simple_types@H@std@@@std@@SAPAU?$_Tree_node@HPAX@2@PAU32@@Z ; std::_Tree_val<std::_Tree_simple_types<int> >::_Max
PUBLIC	?_Lrotate@?$_Tree_val@U?$_Tree_simple_types@H@std@@@std@@QAEXPAU?$_Tree_node@HPAX@2@@Z ; std::_Tree_val<std::_Tree_simple_types<int> >::_Lrotate
PUBLIC	?_Rrotate@?$_Tree_val@U?$_Tree_simple_types@H@std@@@std@@QAEXPAU?$_Tree_node@HPAX@2@@Z ; std::_Tree_val<std::_Tree_simple_types<int> >::_Rrotate
PUBLIC	?_Get_first@?$_Compressed_pair@V?$allocator@U?$_Tree_node@HPAX@std@@@std@@V?$_Tree_val@U?$_Tree_simple_types@H@std@@@2@$00@std@@QBEABV?$allocator@U?$_Tree_node@HPAX@std@@@2@XZ ; std::_Compressed_pair<std::allocator<std::_Tree_node<int,void *> >,std::_Tree_val<std::_Tree_simple_types<int> >,1>::_Get_first
PUBLIC	?_Get_first@?$_Compressed_pair@U?$less@H@std@@V?$_Compressed_pair@V?$allocator@U?$_Tree_node@HPAX@std@@@std@@V?$_Tree_val@U?$_Tree_simple_types@H@std@@@2@$00@2@$00@std@@QAEAAU?$less@H@2@XZ ; std::_Compressed_pair<std::less<int>,std::_Compressed_pair<std::allocator<std::_Tree_node<int,void *> >,std::_Tree_val<std::_Tree_simple_types<int> >,1>,1>::_Get_first
PUBLIC	?_Get_first@?$_Compressed_pair@U?$less@H@std@@V?$_Compressed_pair@V?$allocator@U?$_Tree_node@HPAX@std@@@std@@V?$_Tree_val@U?$_Tree_simple_types@H@std@@@2@$00@2@$00@std@@QBEABU?$less@H@2@XZ ; std::_Compressed_pair<std::less<int>,std::_Compressed_pair<std::allocator<std::_Tree_node<int,void *> >,std::_Tree_val<std::_Tree_simple_types<int> >,1>,1>::_Get_first
PUBLIC	?_Kfn@?$_Tset_traits@V?$basic_string@DU?$char_traits@D@std@@V?$allocator@D@2@@std@@U?$less@V?$basic_string@DU?$char_traits@D@std@@V?$allocator@D@2@@std@@@2@V?$allocator@V?$basic_string@DU?$char_traits@D@std@@V?$allocator@D@2@@std@@@2@$0A@@std@@SAABV?$basic_string@DU?$char_traits@D@std@@V?$allocator@D@2@@2@ABV32@@Z ; std::_Tset_traits<std::basic_string<char,std::char_traits<char>,std::allocator<char> >,std::less<std::basic_string<char,std::char_traits<char>,std::allocator<char> > >,std::allocator<std::basic_string<char,std::char_traits<char>,std::allocator<char> > >,0>::_Kfn
PUBLIC	?max_size@?$_Tree@V?$_Tset_traits@V?$basic_string@DU?$char_traits@D@std@@V?$allocator@D@2@@std@@U?$less@V?$basic_string@DU?$char_traits@D@std@@V?$allocator@D@2@@std@@@2@V?$allocator@V?$basic_string@DU?$char_traits@D@std@@V?$allocator@D@2@@std@@@2@$0A@@std@@@std@@QBEIXZ ; std::_Tree<std::_Tset_traits<std::basic_string<char,std::char_traits<char>,std::allocator<char> >,std::less<std::basic_string<char,std::char_traits<char>,std::allocator<char> > >,std::allocator<std::basic_string<char,std::char_traits<char>,std::allocator<char> > >,0> >::max_size
PUBLIC	?_Getcomp@?$_Tree@V?$_Tset_traits@V?$basic_string@DU?$char_traits@D@std@@V?$allocator@D@2@@std@@U?$less@V?$basic_string@DU?$char_traits@D@std@@V?$allocator@D@2@@std@@@2@V?$allocator@V?$basic_string@DU?$char_traits@D@std@@V?$allocator@D@2@@std@@@2@$0A@@std@@@std@@IBEABU?$less@V?$basic_string@DU?$char_traits@D@std@@V?$allocator@D@2@@std@@@2@XZ ; std::_Tree<std::_Tset_traits<std::basic_string<char,std::char_traits<char>,std::allocator<char> >,std::less<std::basic_string<char,std::char_traits<char>,std::allocator<char> > >,std::allocator<std::basic_string<char,std::char_traits<char>,std::allocator<char> > >,0> >::_Getcomp
PUBLIC	?deallocate@?$_Default_allocator_traits@V?$allocator@U?$_Tree_node@V?$basic_string@DU?$char_traits@D@std@@V?$allocator@D@2@@std@@PAX@std@@@std@@@std@@SAXAAV?$allocator@U?$_Tree_node@V?$basic_string@DU?$char_traits@D@std@@V?$allocator@D@2@@std@@PAX@std@@@2@QAU?$_Tree_node@V?$basic_string@DU?$char_traits@D@std@@V?$allocator@D@2@@std@@PAX@2@I@Z ; std::_Default_allocator_traits<std::allocator<std::_Tree_node<std::basic_string<char,std::char_traits<char>,std::allocator<char> >,void *> > >::deallocate
PUBLIC	?_Lrotate@?$_Tree_val@U?$_Tree_simple_types@V?$basic_string@DU?$char_traits@D@std@@V?$allocator@D@2@@std@@@std@@@std@@QAEXPAU?$_Tree_node@V?$basic_string@DU?$char_traits@D@std@@V?$allocator@D@2@@std@@PAX@2@@Z ; std::_Tree_val<std::_Tree_simple_types<std::basic_string<char,std::char_traits<char>,std::allocator<char> > > >::_Lrotate
PUBLIC	?_Rrotate@?$_Tree_val@U?$_Tree_simple_types@V?$basic_string@DU?$char_traits@D@std@@V?$allocator@D@2@@std@@@std@@@std@@QAEXPAU?$_Tree_node@V?$basic_string@DU?$char_traits@D@std@@V?$allocator@D@2@@std@@PAX@2@@Z ; std::_Tree_val<std::_Tree_simple_types<std::basic_string<char,std::char_traits<char>,std::allocator<char> > > >::_Rrotate
PUBLIC	?_Unchecked_begin@?$_Tree@V?$_Tmap_traits@KKU?$less@K@std@@V?$allocator@U?$pair@$$CBKK@std@@@2@$0A@@std@@@std@@QAE?AV?$_Tree_unchecked_iterator@V?$_Tree_val@U?$_Tree_simple_types@U?$pair@$$CBKK@std@@@std@@@std@@@2@XZ ; std::_Tree<std::_Tmap_traits<unsigned long,unsigned long,std::less<unsigned long>,std::allocator<std::pair<unsigned long const ,unsigned long> >,0> >::_Unchecked_begin
PUBLIC	??E?$_Tree_unchecked_const_iterator@V?$_Tree_val@U?$_Tree_simple_types@U?$pair@$$CBKK@std@@@std@@@std@@U_Iterator_base0@2@@std@@QAE?AV01@H@Z ; std::_Tree_unchecked_const_iterator<std::_Tree_val<std::_Tree_simple_types<std::pair<unsigned long const ,unsigned long> > >,std::_Iterator_base0>::operator++
PUBLIC	??8?$_Tree_unchecked_const_iterator@V?$_Tree_val@U?$_Tree_simple_types@U?$pair@$$CBKK@std@@@std@@@std@@U_Iterator_base0@2@@std@@QBE_NABV01@@Z ; std::_Tree_unchecked_const_iterator<std::_Tree_val<std::_Tree_simple_types<std::pair<unsigned long const ,unsigned long> > >,std::_Iterator_base0>::operator==
PUBLIC	?_Unchecked_begin@?$_Tree@V?$_Tmap_traits@KUSReserveTargetEffect@CPythonBackground@@U?$less@K@std@@V?$allocator@U?$pair@$$CBKUSReserveTargetEffect@CPythonBackground@@@std@@@4@$0A@@std@@@std@@QAE?AV?$_Tree_unchecked_iterator@V?$_Tree_val@U?$_Tree_simple_types@U?$pair@$$CBKUSReserveTargetEffect@CPythonBackground@@@std@@@std@@@std@@@2@XZ ; std::_Tree<std::_Tmap_traits<unsigned long,CPythonBackground::SReserveTargetEffect,std::less<unsigned long>,std::allocator<std::pair<unsigned long const ,CPythonBackground::SReserveTargetEffect> >,0> >::_Unchecked_begin
PUBLIC	?_Check_grow_by_1@?$_Tree@V?$_Tmap_traits@KUSReserveTargetEffect@CPythonBackground@@U?$less@K@std@@V?$allocator@U?$pair@$$CBKUSReserveTargetEffect@CPythonBackground@@@std@@@4@$0A@@std@@@std@@IAEXXZ ; std::_Tree<std::_Tmap_traits<unsigned long,CPythonBackground::SReserveTargetEffect,std::less<unsigned long>,std::allocator<std::pair<unsigned long const ,CPythonBackground::SReserveTargetEffect> >,0> >::_Check_grow_by_1
PUBLIC	?deallocate@?$_Default_allocator_traits@V?$allocator@U?$_Tree_node@U?$pair@$$CBKUSReserveTargetEffect@CPythonBackground@@@std@@PAX@std@@@std@@@std@@SAXAAV?$allocator@U?$_Tree_node@U?$pair@$$CBKUSReserveTargetEffect@CPythonBackground@@@std@@PAX@std@@@2@QAU?$_Tree_node@U?$pair@$$CBKUSReserveTargetEffect@CPythonBackground@@@std@@PAX@2@I@Z ; std::_Default_allocator_traits<std::allocator<std::_Tree_node<std::pair<unsigned long const ,CPythonBackground::SReserveTargetEffect>,void *> > >::deallocate
PUBLIC	?_Max@?$_Tree_val@U?$_Tree_simple_types@U?$pair@$$CBKUSReserveTargetEffect@CPythonBackground@@@std@@@std@@@std@@SAPAU?$_Tree_node@U?$pair@$$CBKUSReserveTargetEffect@CPythonBackground@@@std@@PAX@2@PAU32@@Z ; std::_Tree_val<std::_Tree_simple_types<std::pair<unsigned long const ,CPythonBackground::SReserveTargetEffect> > >::_Max
PUBLIC	?_Min@?$_Tree_val@U?$_Tree_simple_types@U?$pair@$$CBKUSReserveTargetEffect@CPythonBackground@@@std@@@std@@@std@@SAPAU?$_Tree_node@U?$pair@$$CBKUSReserveTargetEffect@CPythonBackground@@@std@@PAX@2@PAU32@@Z ; std::_Tree_val<std::_Tree_simple_types<std::pair<unsigned long const ,CPythonBackground::SReserveTargetEffect> > >::_Min
PUBLIC	?_Lrotate@?$_Tree_val@U?$_Tree_simple_types@U?$pair@$$CBKUSReserveTargetEffect@CPythonBackground@@@std@@@std@@@std@@QAEXPAU?$_Tree_node@U?$pair@$$CBKUSReserveTargetEffect@CPythonBackground@@@std@@PAX@2@@Z ; std::_Tree_val<std::_Tree_simple_types<std::pair<unsigned long const ,CPythonBackground::SReserveTargetEffect> > >::_Lrotate
PUBLIC	?_Rrotate@?$_Tree_val@U?$_Tree_simple_types@U?$pair@$$CBKUSReserveTargetEffect@CPythonBackground@@@std@@@std@@@std@@QAEXPAU?$_Tree_node@U?$pair@$$CBKUSReserveTargetEffect@CPythonBackground@@@std@@PAX@2@@Z ; std::_Tree_val<std::_Tree_simple_types<std::pair<unsigned long const ,CPythonBackground::SReserveTargetEffect> > >::_Rrotate
PUBLIC	?_Insert_node@?$_Tree_val@U?$_Tree_simple_types@U?$pair@$$CBKUSReserveTargetEffect@CPythonBackground@@@std@@@std@@@std@@QAEPAU?$_Tree_node@U?$pair@$$CBKUSReserveTargetEffect@CPythonBackground@@@std@@PAX@2@U?$_Tree_id@PAU?$_Tree_node@U?$pair@$$CBKUSReserveTargetEffect@CPythonBackground@@@std@@PAX@std@@@2@QAU32@@Z ; std::_Tree_val<std::_Tree_simple_types<std::pair<unsigned long const ,CPythonBackground::SReserveTargetEffect> > >::_Insert_node
PUBLIC	??E?$_Tree_unchecked_const_iterator@V?$_Tree_val@U?$_Tree_simple_types@U?$pair@$$CBKUSReserveTargetEffect@CPythonBackground@@@std@@@std@@@std@@U_Iterator_base0@2@@std@@QAE?AV01@H@Z ; std::_Tree_unchecked_const_iterator<std::_Tree_val<std::_Tree_simple_types<std::pair<unsigned long const ,CPythonBackground::SReserveTargetEffect> > >,std::_Iterator_base0>::operator++
PUBLIC	??8?$_Tree_unchecked_const_iterator@V?$_Tree_val@U?$_Tree_simple_types@U?$pair@$$CBKUSReserveTargetEffect@CPythonBackground@@@std@@@std@@@std@@U_Iterator_base0@2@@std@@QBE_NABV01@@Z ; std::_Tree_unchecked_const_iterator<std::_Tree_val<std::_Tree_simple_types<std::pair<unsigned long const ,CPythonBackground::SReserveTargetEffect> > >,std::_Iterator_base0>::operator==
PUBLIC	?_Get_first@?$_Compressed_pair@U?$less@K@std@@V?$_Compressed_pair@V?$allocator@U?$_Tree_node@U?$pair@$$CBKUSReserveTargetEffect@CPythonBackground@@@std@@PAX@std@@@std@@V?$_Tree_val@U?$_Tree_simple_types@U?$pair@$$CBKUSReserveTargetEffect@CPythonBackground@@@std@@@std@@@2@$00@2@$00@std@@QBEABU?$less@K@2@XZ ; std::_Compressed_pair<std::less<unsigned long>,std::_Compressed_pair<std::allocator<std::_Tree_node<std::pair<unsigned long const ,CPythonBackground::SReserveTargetEffect>,void *> >,std::_Tree_val<std::_Tree_simple_types<std::pair<unsigned long const ,CPythonBackground::SReserveTargetEffect> > >,1>,1>::_Get_first
PUBLIC	??0?$_Tree_temp_node_alloc@V?$allocator@U?$_Tree_node@HPAX@std@@@std@@@std@@QAE@AAV?$allocator@U?$_Tree_node@HPAX@std@@@1@@Z ; std::_Tree_temp_node_alloc<std::allocator<std::_Tree_node<int,void *> > >::_Tree_temp_node_alloc<std::allocator<std::_Tree_node<int,void *> > >
PUBLIC	??1?$_Alloc_construct_ptr@V?$allocator@U?$_Tree_node@HPAX@std@@@std@@@std@@QAE@XZ ; std::_Alloc_construct_ptr<std::allocator<std::_Tree_node<int,void *> > >::~_Alloc_construct_ptr<std::allocator<std::_Tree_node<int,void *> > >
PUBLIC	??0?$_Tree_temp_node_alloc@V?$allocator@U?$_Tree_node@V?$basic_string@DU?$char_traits@D@std@@V?$allocator@D@2@@std@@PAX@std@@@std@@@std@@QAE@AAV?$allocator@U?$_Tree_node@V?$basic_string@DU?$char_traits@D@std@@V?$allocator@D@2@@std@@PAX@std@@@1@@Z ; std::_Tree_temp_node_alloc<std::allocator<std::_Tree_node<std::basic_string<char,std::char_traits<char>,std::allocator<char> >,void *> > >::_Tree_temp_node_alloc<std::allocator<std::_Tree_node<std::basic_string<char,std::char_traits<char>,std::allocator<char> >,void *> > >
PUBLIC	??1?$_Alloc_construct_ptr@V?$allocator@U?$_Tree_node@V?$basic_string@DU?$char_traits@D@std@@V?$allocator@D@2@@std@@PAX@std@@@std@@@std@@QAE@XZ ; std::_Alloc_construct_ptr<std::allocator<std::_Tree_node<std::basic_string<char,std::char_traits<char>,std::allocator<char> >,void *> > >::~_Alloc_construct_ptr<std::allocator<std::_Tree_node<std::basic_string<char,std::char_traits<char>,std::allocator<char> >,void *> > >
PUBLIC	?_Extract@?$_In_place_key_extract_map_impl@KU?$pair@KUSReserveTargetEffect@CPythonBackground@@@std@@@std@@SAABKABU?$pair@KUSReserveTargetEffect@CPythonBackground@@@2@@Z ; std::_In_place_key_extract_map_impl<unsigned long,std::pair<unsigned long,CPythonBackground::SReserveTargetEffect> >::_Extract
PUBLIC	??1?$_Tree_temp_node@V?$allocator@U?$_Tree_node@U?$pair@$$CBKUSReserveTargetEffect@CPythonBackground@@@std@@PAX@std@@@std@@@std@@QAE@XZ ; std::_Tree_temp_node<std::allocator<std::_Tree_node<std::pair<unsigned long const ,CPythonBackground::SReserveTargetEffect>,void *> > >::~_Tree_temp_node<std::allocator<std::_Tree_node<std::pair<unsigned long const ,CPythonBackground::SReserveTargetEffect>,void *> > >
PUBLIC	?_Release@?$_Alloc_construct_ptr@V?$allocator@U?$_Tree_node@U?$pair@$$CBKUSReserveTargetEffect@CPythonBackground@@@std@@PAX@std@@@std@@@std@@QAEPAU?$_Tree_node@U?$pair@$$CBKUSReserveTargetEffect@CPythonBackground@@@std@@PAX@2@XZ ; std::_Alloc_construct_ptr<std::allocator<std::_Tree_node<std::pair<unsigned long const ,CPythonBackground::SReserveTargetEffect>,void *> > >::_Release
PUBLIC	??$_Refancy_maybe_null@PAV?$basic_string@DU?$char_traits@D@std@@V?$allocator@D@2@@std@@$0A@@std@@YAPAV?$basic_string@DU?$char_traits@D@std@@V?$allocator@D@2@@0@PAV10@@Z ; std::_Refancy_maybe_null<std::basic_string<char,std::char_traits<char>,std::allocator<char> > *,0>
PUBLIC	??$_Buyheadnode@V?$allocator@U?$_Tree_node@HPAX@std@@@std@@@?$_Tree_node@HPAX@std@@SAPAU01@AAV?$allocator@U?$_Tree_node@HPAX@std@@@1@@Z ; std::_Tree_node<int,void *>::_Buyheadnode<std::allocator<std::_Tree_node<int,void *> > >
PUBLIC	??$addressof@$$CBV?$_Tree_val@U?$_Tree_simple_types@H@std@@@std@@@std@@YAPBV?$_Tree_val@U?$_Tree_simple_types@H@std@@@0@ABV10@@Z ; std::addressof<std::_Tree_val<std::_Tree_simple_types<int> > const >
PUBLIC	??$_Refancy_maybe_null@PAUTMapInfo@CMapManager@@$0A@@std@@YAPAUTMapInfo@CMapManager@@PAU12@@Z ; std::_Refancy_maybe_null<CMapManager::TMapInfo *,0>
PUBLIC	??$_Buyheadnode@V?$allocator@U?$_Tree_node@V?$basic_string@DU?$char_traits@D@std@@V?$allocator@D@2@@std@@PAX@std@@@std@@@?$_Tree_node@V?$basic_string@DU?$char_traits@D@std@@V?$allocator@D@2@@std@@PAX@std@@SAPAU01@AAV?$allocator@U?$_Tree_node@V?$basic_string@DU?$char_traits@D@std@@V?$allocator@D@2@@std@@PAX@std@@@1@@Z ; std::_Tree_node<std::basic_string<char,std::char_traits<char>,std::allocator<char> >,void *>::_Buyheadnode<std::allocator<std::_Tree_node<std::basic_string<char,std::char_traits<char>,std::allocator<char> >,void *> > >
PUBLIC	??$addressof@$$CBV?$_Tree_val@U?$_Tree_simple_types@V?$basic_string@DU?$char_traits@D@std@@V?$allocator@D@2@@std@@@std@@@std@@@std@@YAPBV?$_Tree_val@U?$_Tree_simple_types@V?$basic_string@DU?$char_traits@D@std@@V?$allocator@D@2@@std@@@std@@@0@ABV10@@Z ; std::addressof<std::_Tree_val<std::_Tree_simple_types<std::basic_string<char,std::char_traits<char>,std::allocator<char> > > > const >
PUBLIC	??$_Buyheadnode@V?$allocator@U?$_Tree_node@U?$pair@$$CBKUSReserveTargetEffect@CPythonBackground@@@std@@PAX@std@@@std@@@?$_Tree_node@U?$pair@$$CBKUSReserveTargetEffect@CPythonBackground@@@std@@PAX@std@@SAPAU01@AAV?$allocator@U?$_Tree_node@U?$pair@$$CBKUSReserveTargetEffect@CPythonBackground@@@std@@PAX@std@@@1@@Z ; std::_Tree_node<std::pair<unsigned long const ,CPythonBackground::SReserveTargetEffect>,void *>::_Buyheadnode<std::allocator<std::_Tree_node<std::pair<unsigned long const ,CPythonBackground::SReserveTargetEffect>,void *> > >
PUBLIC	??$addressof@$$CBV?$_Tree_val@U?$_Tree_simple_types@U?$pair@$$CBKUSReserveTargetEffect@CPythonBackground@@@std@@@std@@@std@@@std@@YAPBV?$_Tree_val@U?$_Tree_simple_types@U?$pair@$$CBKUSReserveTargetEffect@CPythonBackground@@@std@@@std@@@0@ABV10@@Z ; std::addressof<std::_Tree_val<std::_Tree_simple_types<std::pair<unsigned long const ,CPythonBackground::SReserveTargetEffect> > > const >
PUBLIC	??$exchange@PAU?$_Tree_node@HPAX@std@@$$T@std@@YAPAU?$_Tree_node@HPAX@0@AAPAU10@$$QA$$T@Z ; std::exchange<std::_Tree_node<int,void *> *,std::nullptr_t>
PUBLIC	??$destroy@V?$basic_string@DU?$char_traits@D@std@@V?$allocator@D@2@@std@@@?$_Default_allocator_traits@V?$allocator@U?$_Tree_node@V?$basic_string@DU?$char_traits@D@std@@V?$allocator@D@2@@std@@PAX@std@@@std@@@std@@SAXAAV?$allocator@U?$_Tree_node@V?$basic_string@DU?$char_traits@D@std@@V?$allocator@D@2@@std@@PAX@std@@@1@QAV?$basic_string@DU?$char_traits@D@std@@V?$allocator@D@2@@1@@Z ; std::_Default_allocator_traits<std::allocator<std::_Tree_node<std::basic_string<char,std::char_traits<char>,std::allocator<char> >,void *> > >::destroy<std::basic_string<char,std::char_traits<char>,std::allocator<char> > >
PUBLIC	??$exchange@PAU?$_Tree_node@V?$basic_string@DU?$char_traits@D@std@@V?$allocator@D@2@@std@@PAX@std@@$$T@std@@YAPAU?$_Tree_node@V?$basic_string@DU?$char_traits@D@std@@V?$allocator@D@2@@std@@PAX@0@AAPAU10@$$QA$$T@Z ; std::exchange<std::_Tree_node<std::basic_string<char,std::char_traits<char>,std::allocator<char> >,void *> *,std::nullptr_t>
PUBLIC	??$_Copy_nodes@$0A@@?$_Tree@V?$_Tset_traits@HU?$less@H@std@@V?$allocator@H@2@$0A@@std@@@std@@IAEPAU?$_Tree_node@HPAX@1@PAU21@0@Z ; std::_Tree<std::_Tset_traits<int,std::less<int>,std::allocator<int>,0> >::_Copy_nodes<0>
PUBLIC	??$_Adl_verify_range@V?$_Tree_unchecked_const_iterator@V?$_Tree_val@U?$_Tree_simple_types@U?$pair@$$CBKK@std@@@std@@@std@@U_Iterator_base0@2@@std@@V12@@std@@YAXABV?$_Tree_unchecked_const_iterator@V?$_Tree_val@U?$_Tree_simple_types@U?$pair@$$CBKK@std@@@std@@@std@@U_Iterator_base0@2@@0@0@Z ; std::_Adl_verify_range<std::_Tree_unchecked_const_iterator<std::_Tree_val<std::_Tree_simple_types<std::pair<unsigned long const ,unsigned long> > >,std::_Iterator_base0>,std::_Tree_unchecked_const_iterator<std::_Tree_val<std::_Tree_simple_types<std::pair<unsigned long const ,unsigned long> > >,std::_Iterator_base0> >
PUBLIC	??$_Adl_verify_range@V?$_Tree_unchecked_const_iterator@V?$_Tree_val@U?$_Tree_simple_types@U?$pair@$$CBKUSReserveTargetEffect@CPythonBackground@@@std@@@std@@@std@@U_Iterator_base0@2@@std@@V12@@std@@YAXABV?$_Tree_unchecked_const_iterator@V?$_Tree_val@U?$_Tree_simple_types@U?$pair@$$CBKUSReserveTargetEffect@CPythonBackground@@@std@@@std@@@std@@U_Iterator_base0@2@@0@0@Z ; std::_Adl_verify_range<std::_Tree_unchecked_const_iterator<std::_Tree_val<std::_Tree_simple_types<std::pair<unsigned long const ,CPythonBackground::SReserveTargetEffect> > >,std::_Iterator_base0>,std::_Tree_unchecked_const_iterator<std::_Tree_val<std::_Tree_simple_types<std::pair<unsigned long const ,CPythonBackground::SReserveTargetEffect> > >,std::_Iterator_base0> >
PUBLIC	??$_Destroy_in_place@PAU?$_Tree_node@HPAX@std@@@std@@YAXAAPAU?$_Tree_node@HPAX@0@@Z ; std::_Destroy_in_place<std::_Tree_node<int,void *> *>
PUBLIC	??$destroy@H@?$_Default_allocator_traits@V?$allocator@U?$_Tree_node@HPAX@std@@@std@@@std@@SAXAAV?$allocator@U?$_Tree_node@HPAX@std@@@1@QAH@Z ; std::_Default_allocator_traits<std::allocator<std::_Tree_node<int,void *> > >::destroy<int>
PUBLIC	??$_Destroy_in_place@PAU?$_Tree_node@V?$basic_string@DU?$char_traits@D@std@@V?$allocator@D@2@@std@@PAX@std@@@std@@YAXAAPAU?$_Tree_node@V?$basic_string@DU?$char_traits@D@std@@V?$allocator@D@2@@std@@PAX@0@@Z ; std::_Destroy_in_place<std::_Tree_node<std::basic_string<char,std::char_traits<char>,std::allocator<char> >,void *> *>
PUBLIC	??$_Freenode@V?$allocator@U?$_Tree_node@V?$basic_string@DU?$char_traits@D@std@@V?$allocator@D@2@@std@@PAX@std@@@std@@@?$_Tree_node@V?$basic_string@DU?$char_traits@D@std@@V?$allocator@D@2@@std@@PAX@std@@SAXAAV?$allocator@U?$_Tree_node@V?$basic_string@DU?$char_traits@D@std@@V?$allocator@D@2@@std@@PAX@std@@@1@PAU01@@Z ; std::_Tree_node<std::basic_string<char,std::char_traits<char>,std::allocator<char> >,void *>::_Freenode<std::allocator<std::_Tree_node<std::basic_string<char,std::char_traits<char>,std::allocator<char> >,void *> > >
PUBLIC	??$exchange@PAU?$_Tree_node@V?$basic_string@DU?$char_traits@D@std@@V?$allocator@D@2@@std@@PAX@std@@AAPAU12@@std@@YAPAU?$_Tree_node@V?$basic_string@DU?$char_traits@D@std@@V?$allocator@D@2@@std@@PAX@0@AAPAU10@0@Z ; std::exchange<std::_Tree_node<std::basic_string<char,std::char_traits<char>,std::allocator<char> >,void *> *,std::_Tree_node<std::basic_string<char,std::char_traits<char>,std::allocator<char> >,void *> * &>
PUBLIC	??$_Destroy_in_place@PAU?$_Tree_node@U?$pair@$$CBKUSReserveTargetEffect@CPythonBackground@@@std@@PAX@std@@@std@@YAXAAPAU?$_Tree_node@U?$pair@$$CBKUSReserveTargetEffect@CPythonBackground@@@std@@PAX@0@@Z ; std::_Destroy_in_place<std::_Tree_node<std::pair<unsigned long const ,CPythonBackground::SReserveTargetEffect>,void *> *>
PUBLIC	??$destroy@U?$pair@$$CBKUSReserveTargetEffect@CPythonBackground@@@std@@@?$_Default_allocator_traits@V?$allocator@U?$_Tree_node@U?$pair@$$CBKUSReserveTargetEffect@CPythonBackground@@@std@@PAX@std@@@std@@@std@@SAXAAV?$allocator@U?$_Tree_node@U?$pair@$$CBKUSReserveTargetEffect@CPythonBackground@@@std@@PAX@std@@@1@QAU?$pair@$$CBKUSReserveTargetEffect@CPythonBackground@@@1@@Z ; std::_Default_allocator_traits<std::allocator<std::_Tree_node<std::pair<unsigned long const ,CPythonBackground::SReserveTargetEffect>,void *> > >::destroy<std::pair<unsigned long const ,CPythonBackground::SReserveTargetEffect> >
PUBLIC	??$forward@V?$_Tree_iterator@V?$_Tree_val@U?$_Tree_simple_types@U?$pair@$$CBKUSReserveTargetEffect@CPythonBackground@@@std@@@std@@@std@@@std@@@std@@YA$$QAV?$_Tree_iterator@V?$_Tree_val@U?$_Tree_simple_types@U?$pair@$$CBKUSReserveTargetEffect@CPythonBackground@@@std@@@std@@@std@@@0@AAV10@@Z ; std::forward<std::_Tree_iterator<std::_Tree_val<std::_Tree_simple_types<std::pair<unsigned long const ,CPythonBackground::SReserveTargetEffect> > > > >
PUBLIC	??$?0PAU?$_Tree_node@U?$pair@$$CBKUSReserveTargetEffect@CPythonBackground@@@std@@PAX@std@@_N$0A@@?$pair@PAU?$_Tree_node@U?$pair@$$CBKUSReserveTargetEffect@CPythonBackground@@@std@@PAX@std@@_N@std@@QAE@$$QAPAU?$_Tree_node@U?$pair@$$CBKUSReserveTargetEffect@CPythonBackground@@@std@@PAX@1@$$QA_N@Z ; std::pair<std::_Tree_node<std::pair<unsigned long const ,CPythonBackground::SReserveTargetEffect>,void *> *,bool>::pair<std::_Tree_node<std::pair<unsigned long const ,CPythonBackground::SReserveTargetEffect>,void *> *,bool><std::_Tree_node<std::pair<unsigned long const ,CPythonBackground::SReserveTargetEffect>,void *> *,bool,0>
PUBLIC	??$?0AAPAU?$_Tree_node@U?$pair@$$CBKUSReserveTargetEffect@CPythonBackground@@@std@@PAX@std@@_N$0A@@?$pair@PAU?$_Tree_node@U?$pair@$$CBKUSReserveTargetEffect@CPythonBackground@@@std@@PAX@std@@_N@std@@QAE@AAPAU?$_Tree_node@U?$pair@$$CBKUSReserveTargetEffect@CPythonBackground@@@std@@PAX@1@$$QA_N@Z ; std::pair<std::_Tree_node<std::pair<unsigned long const ,CPythonBackground::SReserveTargetEffect>,void *> *,bool>::pair<std::_Tree_node<std::pair<unsigned long const ,CPythonBackground::SReserveTargetEffect>,void *> *,bool><std::_Tree_node<std::pair<unsigned long const ,CPythonBackground::SReserveTargetEffect>,void *> * &,bool,0>
PUBLIC	??$?0U?$pair@KUSReserveTargetEffect@CPythonBackground@@@std@@@?$_Tree_temp_node@V?$allocator@U?$_Tree_node@U?$pair@$$CBKUSReserveTargetEffect@CPythonBackground@@@std@@PAX@std@@@std@@@std@@QAE@AAV?$allocator@U?$_Tree_node@U?$pair@$$CBKUSReserveTargetEffect@CPythonBackground@@@std@@PAX@std@@@1@PAU?$_Tree_node@U?$pair@$$CBKUSReserveTargetEffect@CPythonBackground@@@std@@PAX@1@$$QAU?$pair@KUSReserveTargetEffect@CPythonBackground@@@1@@Z ; std::_Tree_temp_node<std::allocator<std::_Tree_node<std::pair<unsigned long const ,CPythonBackground::SReserveTargetEffect>,void *> > >::_Tree_temp_node<std::allocator<std::_Tree_node<std::pair<unsigned long const ,CPythonBackground::SReserveTargetEffect>,void *> > ><std::pair<unsigned long,CPythonBackground::SReserveTargetEffect> >
PUBLIC	??$forward@PAU?$_Tree_node@V?$basic_string@DU?$char_traits@D@std@@V?$allocator@D@2@@std@@PAX@std@@@std@@YA$$QAPAU?$_Tree_node@V?$basic_string@DU?$char_traits@D@std@@V?$allocator@D@2@@std@@PAX@0@AAPAU10@@Z ; std::forward<std::_Tree_node<std::basic_string<char,std::char_traits<char>,std::allocator<char> >,void *> *>
PUBLIC	??$forward@AAPAU?$_Tree_node@V?$basic_string@DU?$char_traits@D@std@@V?$allocator@D@2@@std@@PAX@std@@@std@@YAAAPAU?$_Tree_node@V?$basic_string@DU?$char_traits@D@std@@V?$allocator@D@2@@std@@PAX@0@AAPAU10@@Z ; std::forward<std::_Tree_node<std::basic_string<char,std::char_traits<char>,std::allocator<char> >,void *> * &>
PUBLIC	??$_Construct_in_place@PAU?$_Tree_node@V?$basic_string@DU?$char_traits@D@std@@V?$allocator@D@2@@std@@PAX@std@@AAPAU12@@std@@YAXAAPAU?$_Tree_node@V?$basic_string@DU?$char_traits@D@std@@V?$allocator@D@2@@std@@PAX@0@0@Z ; std::_Construct_in_place<std::_Tree_node<std::basic_string<char,std::char_traits<char>,std::allocator<char> >,void *> *,std::_Tree_node<std::basic_string<char,std::char_traits<char>,std::allocator<char> >,void *> * &>
PUBLIC	??$construct@V?$basic_string@DU?$char_traits@D@std@@V?$allocator@D@2@@std@@V12@@?$_Default_allocator_traits@V?$allocator@U?$_Tree_node@V?$basic_string@DU?$char_traits@D@std@@V?$allocator@D@2@@std@@PAX@std@@@std@@@std@@SAXAAV?$allocator@U?$_Tree_node@V?$basic_string@DU?$char_traits@D@std@@V?$allocator@D@2@@std@@PAX@std@@@1@QAV?$basic_string@DU?$char_traits@D@std@@V?$allocator@D@2@@1@$$QAV31@@Z ; std::_Default_allocator_traits<std::allocator<std::_Tree_node<std::basic_string<char,std::char_traits<char>,std::allocator<char> >,void *> > >::construct<std::basic_string<char,std::char_traits<char>,std::allocator<char> >,std::basic_string<char,std::char_traits<char>,std::allocator<char> > >
PUBLIC	??$forward@PAU?$_Tree_node@HPAX@std@@@std@@YA$$QAPAU?$_Tree_node@HPAX@0@AAPAU10@@Z ; std::forward<std::_Tree_node<int,void *> *>
PUBLIC	??$forward@AAPAU?$_Tree_node@HPAX@std@@@std@@YAAAPAU?$_Tree_node@HPAX@0@AAPAU10@@Z ; std::forward<std::_Tree_node<int,void *> * &>
PUBLIC	??$_Construct_in_place@PAU?$_Tree_node@HPAX@std@@AAPAU12@@std@@YAXAAPAU?$_Tree_node@HPAX@0@0@Z ; std::_Construct_in_place<std::_Tree_node<int,void *> *,std::_Tree_node<int,void *> * &>
PUBLIC	??$construct@HABH@?$_Default_allocator_traits@V?$allocator@U?$_Tree_node@HPAX@std@@@std@@@std@@SAXAAV?$allocator@U?$_Tree_node@HPAX@std@@@1@QAHABH@Z ; std::_Default_allocator_traits<std::allocator<std::_Tree_node<int,void *> > >::construct<int,int const &>
PUBLIC	??$addressof@H@std@@YAPAHAAH@Z			; std::addressof<int>
PUBLIC	??$forward@AAPAU?$_Tree_node@U?$pair@$$CBKUSReserveTargetEffect@CPythonBackground@@@std@@PAX@std@@@std@@YAAAPAU?$_Tree_node@U?$pair@$$CBKUSReserveTargetEffect@CPythonBackground@@@std@@PAX@0@AAPAU10@@Z ; std::forward<std::_Tree_node<std::pair<unsigned long const ,CPythonBackground::SReserveTargetEffect>,void *> * &>
PUBLIC	??$?0$$V@?$_Compressed_pair@V?$allocator@U?$_Tree_node@HPAX@std@@@std@@V?$_Tree_val@U?$_Tree_simple_types@H@std@@@2@$00@std@@QAE@U_Zero_then_variadic_args_t@1@@Z ; std::_Compressed_pair<std::allocator<std::_Tree_node<int,void *> >,std::_Tree_val<std::_Tree_simple_types<int> >,1>::_Compressed_pair<std::allocator<std::_Tree_node<int,void *> >,std::_Tree_val<std::_Tree_simple_types<int> >,1><>
PUBLIC	??$?0$$V@?$_Compressed_pair@V?$allocator@U?$_Tree_node@V?$basic_string@DU?$char_traits@D@std@@V?$allocator@D@2@@std@@PAX@std@@@std@@V?$_Tree_val@U?$_Tree_simple_types@V?$basic_string@DU?$char_traits@D@std@@V?$allocator@D@2@@std@@@std@@@2@$00@std@@QAE@U_Zero_then_variadic_args_t@1@@Z ; std::_Compressed_pair<std::allocator<std::_Tree_node<std::basic_string<char,std::char_traits<char>,std::allocator<char> >,void *> >,std::_Tree_val<std::_Tree_simple_types<std::basic_string<char,std::char_traits<char>,std::allocator<char> > > >,1>::_Compressed_pair<std::allocator<std::_Tree_node<std::basic_string<char,std::char_traits<char>,std::allocator<char> >,void *> >,std::_Tree_val<std::_Tree_simple_types<std::basic_string<char,std::char_traits<char>,std::allocator<char> > > >,1><>
PUBLIC	??$?0$$V@?$_Compressed_pair@V?$allocator@U?$_Tree_node@U?$pair@$$CBKUSReserveTargetEffect@CPythonBackground@@@std@@PAX@std@@@std@@V?$_Tree_val@U?$_Tree_simple_types@U?$pair@$$CBKUSReserveTargetEffect@CPythonBackground@@@std@@@std@@@2@$00@std@@QAE@U_Zero_then_variadic_args_t@1@@Z ; std::_Compressed_pair<std::allocator<std::_Tree_node<std::pair<unsigned long const ,CPythonBackground::SReserveTargetEffect>,void *> >,std::_Tree_val<std::_Tree_simple_types<std::pair<unsigned long const ,CPythonBackground::SReserveTargetEffect> > >,1>::_Compressed_pair<std::allocator<std::_Tree_node<std::pair<unsigned long const ,CPythonBackground::SReserveTargetEffect>,void *> >,std::_Tree_val<std::_Tree_simple_types<std::pair<unsigned long const ,CPythonBackground::SReserveTargetEffect> > >,1><>
PUBLIC	??1?$_Tree_temp_node_alloc@V?$allocator@U?$_Tree_node@V?$basic_string@DU?$char_traits@D@std@@V?$allocator@D@2@@std@@PAX@std@@@std@@@std@@QAE@XZ ; std::_Tree_temp_node_alloc<std::allocator<std::_Tree_node<std::basic_string<char,std::char_traits<char>,std::allocator<char> >,void *> > >::~_Tree_temp_node_alloc<std::allocator<std::_Tree_node<std::basic_string<char,std::char_traits<char>,std::allocator<char> >,void *> > >
PUBLIC	??1?$_Tree_temp_node_alloc@V?$allocator@U?$_Tree_node@HPAX@std@@@std@@@std@@QAE@XZ ; std::_Tree_temp_node_alloc<std::allocator<std::_Tree_node<int,void *> > >::~_Tree_temp_node_alloc<std::allocator<std::_Tree_node<int,void *> > >
PUBLIC	?_Seek_to@?$_Vector_const_iterator@V?$_Vector_val@U?$_Simple_types@V?$basic_string@DU?$char_traits@D@std@@V?$allocator@D@2@@std@@@std@@@std@@@std@@QAEXPBV?$basic_string@DU?$char_traits@D@std@@V?$allocator@D@2@@2@@Z ; std::_Vector_const_iterator<std::_Vector_val<std::_Simple_types<std::basic_string<char,std::char_traits<char>,std::allocator<char> > > > >::_Seek_to
PUBLIC	?_Check_grow_by_1@?$_Tree@V?$_Tset_traits@HU?$less@H@std@@V?$allocator@H@2@$0A@@std@@@std@@IAEXXZ ; std::_Tree<std::_Tset_traits<int,std::less<int>,std::allocator<int>,0> >::_Check_grow_by_1
PUBLIC	?_Alloc_sentinel_and_proxy@?$_Tree@V?$_Tset_traits@HU?$less@H@std@@V?$allocator@H@2@$0A@@std@@@std@@IAEXXZ ; std::_Tree<std::_Tset_traits<int,std::less<int>,std::allocator<int>,0> >::_Alloc_sentinel_and_proxy
PUBLIC	?_Getcomp@?$_Tree@V?$_Tset_traits@HU?$less@H@std@@V?$allocator@H@2@$0A@@std@@@std@@IAEAAU?$less@H@2@XZ ; std::_Tree<std::_Tset_traits<int,std::less<int>,std::allocator<int>,0> >::_Getcomp
PUBLIC	?_Getcomp@?$_Tree@V?$_Tset_traits@HU?$less@H@std@@V?$allocator@H@2@$0A@@std@@@std@@IBEABU?$less@H@2@XZ ; std::_Tree<std::_Tset_traits<int,std::less<int>,std::allocator<int>,0> >::_Getcomp
PUBLIC	?_Getal@?$_Tree@V?$_Tset_traits@HU?$less@H@std@@V?$allocator@H@2@$0A@@std@@@std@@IBEABV?$allocator@U?$_Tree_node@HPAX@std@@@2@XZ ; std::_Tree<std::_Tset_traits<int,std::less<int>,std::allocator<int>,0> >::_Getal
PUBLIC	?_Get_scary@?$_Tree@V?$_Tset_traits@HU?$less@H@std@@V?$allocator@H@2@$0A@@std@@@std@@IBEPBV?$_Tree_val@U?$_Tree_simple_types@H@std@@@2@XZ ; std::_Tree<std::_Tset_traits<int,std::less<int>,std::allocator<int>,0> >::_Get_scary
PUBLIC	?_Min@?$_Tree_val@U?$_Tree_simple_types@H@std@@@std@@SAPAU?$_Tree_node@HPAX@2@PAU32@@Z ; std::_Tree_val<std::_Tree_simple_types<int> >::_Min
PUBLIC	?_Insert_node@?$_Tree_val@U?$_Tree_simple_types@H@std@@@std@@QAEPAU?$_Tree_node@HPAX@2@U?$_Tree_id@PAU?$_Tree_node@HPAX@std@@@2@QAU32@@Z ; std::_Tree_val<std::_Tree_simple_types<int> >::_Insert_node
PUBLIC	?_Get_first@?$_Compressed_pair@V?$allocator@U?$_Tree_node@HPAX@std@@@std@@V?$_Tree_val@U?$_Tree_simple_types@H@std@@@2@$00@std@@QAEAAV?$allocator@U?$_Tree_node@HPAX@std@@@2@XZ ; std::_Compressed_pair<std::allocator<std::_Tree_node<int,void *> >,std::_Tree_val<std::_Tree_simple_types<int> >,1>::_Get_first
PUBLIC	?_Seek_to@?$_Vector_const_iterator@V?$_Vector_val@U?$_Simple_types@UTMapInfo@CMapManager@@@std@@@std@@@std@@QAEXPBUTMapInfo@CMapManager@@@Z ; std::_Vector_const_iterator<std::_Vector_val<std::_Simple_types<CMapManager::TMapInfo> > >::_Seek_to
PUBLIC	?_Check_grow_by_1@?$_Tree@V?$_Tset_traits@V?$basic_string@DU?$char_traits@D@std@@V?$allocator@D@2@@std@@U?$less@V?$basic_string@DU?$char_traits@D@std@@V?$allocator@D@2@@std@@@2@V?$allocator@V?$basic_string@DU?$char_traits@D@std@@V?$allocator@D@2@@std@@@2@$0A@@std@@@std@@IAEXXZ ; std::_Tree<std::_Tset_traits<std::basic_string<char,std::char_traits<char>,std::allocator<char> >,std::less<std::basic_string<char,std::char_traits<char>,std::allocator<char> > >,std::allocator<std::basic_string<char,std::char_traits<char>,std::allocator<char> > >,0> >::_Check_grow_by_1
PUBLIC	?_Alloc_sentinel_and_proxy@?$_Tree@V?$_Tset_traits@V?$basic_string@DU?$char_traits@D@std@@V?$allocator@D@2@@std@@U?$less@V?$basic_string@DU?$char_traits@D@std@@V?$allocator@D@2@@std@@@2@V?$allocator@V?$basic_string@DU?$char_traits@D@std@@V?$allocator@D@2@@std@@@2@$0A@@std@@@std@@IAEXXZ ; std::_Tree<std::_Tset_traits<std::basic_string<char,std::char_traits<char>,std::allocator<char> >,std::less<std::basic_string<char,std::char_traits<char>,std::allocator<char> > >,std::allocator<std::basic_string<char,std::char_traits<char>,std::allocator<char> > >,0> >::_Alloc_sentinel_and_proxy
PUBLIC	?_Get_scary@?$_Tree@V?$_Tset_traits@V?$basic_string@DU?$char_traits@D@std@@V?$allocator@D@2@@std@@U?$less@V?$basic_string@DU?$char_traits@D@std@@V?$allocator@D@2@@std@@@2@V?$allocator@V?$basic_string@DU?$char_traits@D@std@@V?$allocator@D@2@@std@@@2@$0A@@std@@@std@@IBEPBV?$_Tree_val@U?$_Tree_simple_types@V?$basic_string@DU?$char_traits@D@std@@V?$allocator@D@2@@std@@@std@@@2@XZ ; std::_Tree<std::_Tset_traits<std::basic_string<char,std::char_traits<char>,std::allocator<char> >,std::less<std::basic_string<char,std::char_traits<char>,std::allocator<char> > >,std::allocator<std::basic_string<char,std::char_traits<char>,std::allocator<char> > >,0> >::_Get_scary
PUBLIC	?_Insert_node@?$_Tree_val@U?$_Tree_simple_types@V?$basic_string@DU?$char_traits@D@std@@V?$allocator@D@2@@std@@@std@@@std@@QAEPAU?$_Tree_node@V?$basic_string@DU?$char_traits@D@std@@V?$allocator@D@2@@std@@PAX@2@U?$_Tree_id@PAU?$_Tree_node@V?$basic_string@DU?$char_traits@D@std@@V?$allocator@D@2@@std@@PAX@std@@@2@QAU32@@Z ; std::_Tree_val<std::_Tree_simple_types<std::basic_string<char,std::char_traits<char>,std::allocator<char> > > >::_Insert_node
PUBLIC	?_Get_first@?$_Compressed_pair@V?$allocator@U?$_Tree_node@V?$basic_string@DU?$char_traits@D@std@@V?$allocator@D@2@@std@@PAX@std@@@std@@V?$_Tree_val@U?$_Tree_simple_types@V?$basic_string@DU?$char_traits@D@std@@V?$allocator@D@2@@std@@@std@@@2@$00@std@@QAEAAV?$allocator@U?$_Tree_node@V?$basic_string@DU?$char_traits@D@std@@V?$allocator@D@2@@std@@PAX@std@@@2@XZ ; std::_Compressed_pair<std::allocator<std::_Tree_node<std::basic_string<char,std::char_traits<char>,std::allocator<char> >,void *> >,std::_Tree_val<std::_Tree_simple_types<std::basic_string<char,std::char_traits<char>,std::allocator<char> > > >,1>::_Get_first
PUBLIC	?_Erase_unchecked@?$_Tree@V?$_Tmap_traits@KKU?$less@K@std@@V?$allocator@U?$pair@$$CBKK@std@@@2@$0A@@std@@@std@@AAEPAU?$_Tree_node@U?$pair@$$CBKK@std@@PAX@2@V?$_Tree_unchecked_const_iterator@V?$_Tree_val@U?$_Tree_simple_types@U?$pair@$$CBKK@std@@@std@@@std@@U_Iterator_base0@2@@2@0@Z ; std::_Tree<std::_Tmap_traits<unsigned long,unsigned long,std::less<unsigned long>,std::allocator<std::pair<unsigned long const ,unsigned long> >,0> >::_Erase_unchecked
PUBLIC	?_Erase_unchecked@?$_Tree@V?$_Tmap_traits@KUSReserveTargetEffect@CPythonBackground@@U?$less@K@std@@V?$allocator@U?$pair@$$CBKUSReserveTargetEffect@CPythonBackground@@@std@@@4@$0A@@std@@@std@@AAEPAU?$_Tree_node@U?$pair@$$CBKUSReserveTargetEffect@CPythonBackground@@@std@@PAX@2@V?$_Tree_unchecked_const_iterator@V?$_Tree_val@U?$_Tree_simple_types@U?$pair@$$CBKUSReserveTargetEffect@CPythonBackground@@@std@@@std@@@std@@U_Iterator_base0@2@@2@0@Z ; std::_Tree<std::_Tmap_traits<unsigned long,CPythonBackground::SReserveTargetEffect,std::less<unsigned long>,std::allocator<std::pair<unsigned long const ,CPythonBackground::SReserveTargetEffect> >,0> >::_Erase_unchecked
PUBLIC	?_Alloc_sentinel_and_proxy@?$_Tree@V?$_Tmap_traits@KUSReserveTargetEffect@CPythonBackground@@U?$less@K@std@@V?$allocator@U?$pair@$$CBKUSReserveTargetEffect@CPythonBackground@@@std@@@4@$0A@@std@@@std@@IAEXXZ ; std::_Tree<std::_Tmap_traits<unsigned long,CPythonBackground::SReserveTargetEffect,std::less<unsigned long>,std::allocator<std::pair<unsigned long const ,CPythonBackground::SReserveTargetEffect> >,0> >::_Alloc_sentinel_and_proxy
PUBLIC	?_Getcomp@?$_Tree@V?$_Tmap_traits@KUSReserveTargetEffect@CPythonBackground@@U?$less@K@std@@V?$allocator@U?$pair@$$CBKUSReserveTargetEffect@CPythonBackground@@@std@@@4@$0A@@std@@@std@@IBEABU?$less@K@2@XZ ; std::_Tree<std::_Tmap_traits<unsigned long,CPythonBackground::SReserveTargetEffect,std::less<unsigned long>,std::allocator<std::pair<unsigned long const ,CPythonBackground::SReserveTargetEffect> >,0> >::_Getcomp
PUBLIC	?_Get_scary@?$_Tree@V?$_Tmap_traits@KUSReserveTargetEffect@CPythonBackground@@U?$less@K@std@@V?$allocator@U?$pair@$$CBKUSReserveTargetEffect@CPythonBackground@@@std@@@4@$0A@@std@@@std@@IBEPBV?$_Tree_val@U?$_Tree_simple_types@U?$pair@$$CBKUSReserveTargetEffect@CPythonBackground@@@std@@@std@@@2@XZ ; std::_Tree<std::_Tmap_traits<unsigned long,CPythonBackground::SReserveTargetEffect,std::less<unsigned long>,std::allocator<std::pair<unsigned long const ,CPythonBackground::SReserveTargetEffect> >,0> >::_Get_scary
PUBLIC	?_Extract@?$_Tree_val@U?$_Tree_simple_types@U?$pair@$$CBKUSReserveTargetEffect@CPythonBackground@@@std@@@std@@@std@@QAEPAU?$_Tree_node@U?$pair@$$CBKUSReserveTargetEffect@CPythonBackground@@@std@@PAX@2@V?$_Tree_unchecked_const_iterator@V?$_Tree_val@U?$_Tree_simple_types@U?$pair@$$CBKUSReserveTargetEffect@CPythonBackground@@@std@@@std@@@std@@U_Iterator_base0@2@@2@@Z ; std::_Tree_val<std::_Tree_simple_types<std::pair<unsigned long const ,CPythonBackground::SReserveTargetEffect> > >::_Extract
PUBLIC	??D?$_Tree_const_iterator@V?$_Tree_val@U?$_Tree_simple_types@U?$pair@$$CBKUSReserveTargetEffect@CPythonBackground@@@std@@@std@@@std@@@std@@QBEABU?$pair@$$CBKUSReserveTargetEffect@CPythonBackground@@@1@XZ ; std::_Tree_const_iterator<std::_Tree_val<std::_Tree_simple_types<std::pair<unsigned long const ,CPythonBackground::SReserveTargetEffect> > > >::operator*
PUBLIC	??E?$_Tree_unchecked_const_iterator@V?$_Tree_val@U?$_Tree_simple_types@U?$pair@$$CBKUSReserveTargetEffect@CPythonBackground@@@std@@@std@@@std@@U_Iterator_base0@2@@std@@QAEAAV01@XZ ; std::_Tree_unchecked_const_iterator<std::_Tree_val<std::_Tree_simple_types<std::pair<unsigned long const ,CPythonBackground::SReserveTargetEffect> > >,std::_Iterator_base0>::operator++
PUBLIC	?_Get_first@?$_Compressed_pair@V?$allocator@U?$_Tree_node@U?$pair@$$CBKUSReserveTargetEffect@CPythonBackground@@@std@@PAX@std@@@std@@V?$_Tree_val@U?$_Tree_simple_types@U?$pair@$$CBKUSReserveTargetEffect@CPythonBackground@@@std@@@std@@@2@$00@std@@QAEAAV?$allocator@U?$_Tree_node@U?$pair@$$CBKUSReserveTargetEffect@CPythonBackground@@@std@@PAX@std@@@2@XZ ; std::_Compressed_pair<std::allocator<std::_Tree_node<std::pair<unsigned long const ,CPythonBackground::SReserveTargetEffect>,void *> >,std::_Tree_val<std::_Tree_simple_types<std::pair<unsigned long const ,CPythonBackground::SReserveTargetEffect> > >,1>::_Get_first
PUBLIC	?_Extract@?$_In_place_key_extract_set_impl@HH@std@@SAABHABH@Z ; std::_In_place_key_extract_set_impl<int,int>::_Extract
PUBLIC	??1?$_Tree_temp_node@V?$allocator@U?$_Tree_node@HPAX@std@@@std@@@std@@QAE@XZ ; std::_Tree_temp_node<std::allocator<std::_Tree_node<int,void *> > >::~_Tree_temp_node<std::allocator<std::_Tree_node<int,void *> > >
PUBLIC	?_Release@?$_Alloc_construct_ptr@V?$allocator@U?$_Tree_node@HPAX@std@@@std@@@std@@QAEPAU?$_Tree_node@HPAX@2@XZ ; std::_Alloc_construct_ptr<std::allocator<std::_Tree_node<int,void *> > >::_Release
PUBLIC	?_Extract@?$_In_place_key_extract_set_impl@V?$basic_string@DU?$char_traits@D@std@@V?$allocator@D@2@@std@@V12@@std@@SAABV?$basic_string@DU?$char_traits@D@std@@V?$allocator@D@2@@2@ABV32@@Z ; std::_In_place_key_extract_set_impl<std::basic_string<char,std::char_traits<char>,std::allocator<char> >,std::basic_string<char,std::char_traits<char>,std::allocator<char> > >::_Extract
PUBLIC	??1?$_Tree_temp_node@V?$allocator@U?$_Tree_node@V?$basic_string@DU?$char_traits@D@std@@V?$allocator@D@2@@std@@PAX@std@@@std@@@std@@QAE@XZ ; std::_Tree_temp_node<std::allocator<std::_Tree_node<std::basic_string<char,std::char_traits<char>,std::allocator<char> >,void *> > >::~_Tree_temp_node<std::allocator<std::_Tree_node<std::basic_string<char,std::char_traits<char>,std::allocator<char> >,void *> > >
PUBLIC	?_Release@?$_Alloc_construct_ptr@V?$allocator@U?$_Tree_node@V?$basic_string@DU?$char_traits@D@std@@V?$allocator@D@2@@std@@PAX@std@@@std@@@std@@QAEPAU?$_Tree_node@V?$basic_string@DU?$char_traits@D@std@@V?$allocator@D@2@@std@@PAX@2@XZ ; std::_Alloc_construct_ptr<std::allocator<std::_Tree_node<std::basic_string<char,std::char_traits<char>,std::allocator<char> >,void *> > >::_Release
PUBLIC	??$_Unfancy_maybe_null@V?$basic_string@DU?$char_traits@D@std@@V?$allocator@D@2@@std@@@std@@YAPAV?$basic_string@DU?$char_traits@D@std@@V?$allocator@D@2@@0@PAV10@@Z ; std::_Unfancy_maybe_null<std::basic_string<char,std::char_traits<char>,std::allocator<char> > >
PUBLIC	??$?0ABU?$less@H@std@@U_Zero_then_variadic_args_t@1@@?$_Compressed_pair@U?$less@H@std@@V?$_Compressed_pair@V?$allocator@U?$_Tree_node@HPAX@std@@@std@@V?$_Tree_val@U?$_Tree_simple_types@H@std@@@2@$00@2@$00@std@@QAE@U_One_then_variadic_args_t@1@ABU?$less@H@1@$$QAU_Zero_then_variadic_args_t@1@@Z ; std::_Compressed_pair<std::less<int>,std::_Compressed_pair<std::allocator<std::_Tree_node<int,void *> >,std::_Tree_val<std::_Tree_simple_types<int> >,1>,1>::_Compressed_pair<std::less<int>,std::_Compressed_pair<std::allocator<std::_Tree_node<int,void *> >,std::_Tree_val<std::_Tree_simple_types<int> >,1>,1><std::less<int> const &,std::_Zero_then_variadic_args_t>
PUBLIC	??$_Copy@$0A@@?$_Tree@V?$_Tset_traits@HU?$less@H@std@@V?$allocator@H@2@$0A@@std@@@std@@IAEXABV01@@Z ; std::_Tree<std::_Tset_traits<int,std::less<int>,std::allocator<int>,0> >::_Copy<0>
PUBLIC	??$_Pocca@V?$allocator@U?$_Tree_node@HPAX@std@@@std@@@std@@YAXAAV?$allocator@U?$_Tree_node@HPAX@std@@@0@ABV10@@Z ; std::_Pocca<std::allocator<std::_Tree_node<int,void *> > >
PUBLIC	??$addressof@$$CBV?$_Tree@V?$_Tset_traits@HU?$less@H@std@@V?$allocator@H@2@$0A@@std@@@std@@@std@@YAPBV?$_Tree@V?$_Tset_traits@HU?$less@H@std@@V?$allocator@H@2@$0A@@std@@@0@ABV10@@Z ; std::addressof<std::_Tree<std::_Tset_traits<int,std::less<int>,std::allocator<int>,0> > const >
PUBLIC	??$addressof@V?$_Tree_val@U?$_Tree_simple_types@H@std@@@std@@@std@@YAPAV?$_Tree_val@U?$_Tree_simple_types@H@std@@@0@AAV10@@Z ; std::addressof<std::_Tree_val<std::_Tree_simple_types<int> > >
PUBLIC	??$?0ABU?$less@V?$basic_string@DU?$char_traits@D@std@@V?$allocator@D@2@@std@@@std@@U_Zero_then_variadic_args_t@1@@?$_Compressed_pair@U?$less@V?$basic_string@DU?$char_traits@D@std@@V?$allocator@D@2@@std@@@std@@V?$_Compressed_pair@V?$allocator@U?$_Tree_node@V?$basic_string@DU?$char_traits@D@std@@V?$allocator@D@2@@std@@PAX@std@@@std@@V?$_Tree_val@U?$_Tree_simple_types@V?$basic_string@DU?$char_traits@D@std@@V?$allocator@D@2@@std@@@std@@@2@$00@2@$00@std@@QAE@U_One_then_variadic_args_t@1@ABU?$less@V?$basic_string@DU?$char_traits@D@std@@V?$allocator@D@2@@std@@@1@$$QAU_Zero_then_variadic_args_t@1@@Z ; std::_Compressed_pair<std::less<std::basic_string<char,std::char_traits<char>,std::allocator<char> > >,std::_Compressed_pair<std::allocator<std::_Tree_node<std::basic_string<char,std::char_traits<char>,std::allocator<char> >,void *> >,std::_Tree_val<std::_Tree_simple_types<std::basic_string<char,std::char_traits<char>,std::allocator<char> > > >,1>,1>::_Compressed_pair<std::less<std::basic_string<char,std::char_traits<char>,std::allocator<char> > >,std::_Compressed_pair<std::allocator<std::_Tree_node<std::basic_string<char,std::char_traits<char>,std::allocator<char> >,void *> >,std::_Tree_val<std::_Tree_simple_types<std::basic_string<char,std::char_traits<char>,std::allocator<char> > > >,1>,1><std::less<std::basic_string<char,std::char_traits<char>,std::allocator<char> > > const &,std::_Zero_then_variadic_args_t>
PUBLIC	??$addressof@V?$_Tree_val@U?$_Tree_simple_types@V?$basic_string@DU?$char_traits@D@std@@V?$allocator@D@2@@std@@@std@@@std@@@std@@YAPAV?$_Tree_val@U?$_Tree_simple_types@V?$basic_string@DU?$char_traits@D@std@@V?$allocator@D@2@@std@@@std@@@0@AAV10@@Z ; std::addressof<std::_Tree_val<std::_Tree_simple_types<std::basic_string<char,std::char_traits<char>,std::allocator<char> > > > >
PUBLIC	??$_Get_unwrapped@AAV?$_Tree_unchecked_const_iterator@V?$_Tree_val@U?$_Tree_simple_types@U?$pair@$$CBKK@std@@@std@@@std@@U_Iterator_base0@2@@std@@@std@@YA?A_TAAV?$_Tree_unchecked_const_iterator@V?$_Tree_val@U?$_Tree_simple_types@U?$pair@$$CBKK@std@@@std@@@std@@U_Iterator_base0@2@@0@@Z ; std::_Get_unwrapped<std::_Tree_unchecked_const_iterator<std::_Tree_val<std::_Tree_simple_types<std::pair<unsigned long const ,unsigned long> > >,std::_Iterator_base0> &>
PUBLIC	??$distance@V?$_Tree_unchecked_const_iterator@V?$_Tree_val@U?$_Tree_simple_types@U?$pair@$$CBKK@std@@@std@@@std@@U_Iterator_base0@2@@std@@@std@@YAHV?$_Tree_unchecked_const_iterator@V?$_Tree_val@U?$_Tree_simple_types@U?$pair@$$CBKK@std@@@std@@@std@@U_Iterator_base0@2@@0@0@Z ; std::distance<std::_Tree_unchecked_const_iterator<std::_Tree_val<std::_Tree_simple_types<std::pair<unsigned long const ,unsigned long> > >,std::_Iterator_base0> >
PUBLIC	??$?0ABU?$less@K@std@@U_Zero_then_variadic_args_t@1@@?$_Compressed_pair@U?$less@K@std@@V?$_Compressed_pair@V?$allocator@U?$_Tree_node@U?$pair@$$CBKUSReserveTargetEffect@CPythonBackground@@@std@@PAX@std@@@std@@V?$_Tree_val@U?$_Tree_simple_types@U?$pair@$$CBKUSReserveTargetEffect@CPythonBackground@@@std@@@std@@@2@$00@2@$00@std@@QAE@U_One_then_variadic_args_t@1@ABU?$less@K@1@$$QAU_Zero_then_variadic_args_t@1@@Z ; std::_Compressed_pair<std::less<unsigned long>,std::_Compressed_pair<std::allocator<std::_Tree_node<std::pair<unsigned long const ,CPythonBackground::SReserveTargetEffect>,void *> >,std::_Tree_val<std::_Tree_simple_types<std::pair<unsigned long const ,CPythonBackground::SReserveTargetEffect> > >,1>,1>::_Compressed_pair<std::less<unsigned long>,std::_Compressed_pair<std::allocator<std::_Tree_node<std::pair<unsigned long const ,CPythonBackground::SReserveTargetEffect>,void *> >,std::_Tree_val<std::_Tree_simple_types<std::pair<unsigned long const ,CPythonBackground::SReserveTargetEffect> > >,1>,1><std::less<unsigned long> const &,std::_Zero_then_variadic_args_t>
PUBLIC	??$_Get_unwrapped@AAV?$_Tree_unchecked_const_iterator@V?$_Tree_val@U?$_Tree_simple_types@U?$pair@$$CBKUSReserveTargetEffect@CPythonBackground@@@std@@@std@@@std@@U_Iterator_base0@2@@std@@@std@@YA?A_TAAV?$_Tree_unchecked_const_iterator@V?$_Tree_val@U?$_Tree_simple_types@U?$pair@$$CBKUSReserveTargetEffect@CPythonBackground@@@std@@@std@@@std@@U_Iterator_base0@2@@0@@Z ; std::_Get_unwrapped<std::_Tree_unchecked_const_iterator<std::_Tree_val<std::_Tree_simple_types<std::pair<unsigned long const ,CPythonBackground::SReserveTargetEffect> > >,std::_Iterator_base0> &>
PUBLIC	??$distance@V?$_Tree_unchecked_const_iterator@V?$_Tree_val@U?$_Tree_simple_types@U?$pair@$$CBKUSReserveTargetEffect@CPythonBackground@@@std@@@std@@@std@@U_Iterator_base0@2@@std@@@std@@YAHV?$_Tree_unchecked_const_iterator@V?$_Tree_val@U?$_Tree_simple_types@U?$pair@$$CBKUSReserveTargetEffect@CPythonBackground@@@std@@@std@@@std@@U_Iterator_base0@2@@0@0@Z ; std::distance<std::_Tree_unchecked_const_iterator<std::_Tree_val<std::_Tree_simple_types<std::pair<unsigned long const ,CPythonBackground::SReserveTargetEffect> > >,std::_Iterator_base0> >
PUBLIC	??$addressof@V?$_Tree_val@U?$_Tree_simple_types@U?$pair@$$CBKUSReserveTargetEffect@CPythonBackground@@@std@@@std@@@std@@@std@@YAPAV?$_Tree_val@U?$_Tree_simple_types@U?$pair@$$CBKUSReserveTargetEffect@CPythonBackground@@@std@@@std@@@0@AAV10@@Z ; std::addressof<std::_Tree_val<std::_Tree_simple_types<std::pair<unsigned long const ,CPythonBackground::SReserveTargetEffect> > > >
PUBLIC	??$addressof@U?$pair@$$CBKUSReserveTargetEffect@CPythonBackground@@@std@@@std@@YAPAU?$pair@$$CBKUSReserveTargetEffect@CPythonBackground@@@0@AAU10@@Z ; std::addressof<std::pair<unsigned long const ,CPythonBackground::SReserveTargetEffect> >
PUBLIC	??$_Freenode0@V?$allocator@U?$_Tree_node@HPAX@std@@@std@@@?$_Tree_node@HPAX@std@@SAXAAV?$allocator@U?$_Tree_node@HPAX@std@@@1@PAU01@@Z ; std::_Tree_node<int,void *>::_Freenode0<std::allocator<std::_Tree_node<int,void *> > >
PUBLIC	??$_Freenode@V?$allocator@U?$_Tree_node@HPAX@std@@@std@@@?$_Tree_node@HPAX@std@@SAXAAV?$allocator@U?$_Tree_node@HPAX@std@@@1@PAU01@@Z ; std::_Tree_node<int,void *>::_Freenode<std::allocator<std::_Tree_node<int,void *> > >
PUBLIC	??$exchange@PAU?$_Tree_node@HPAX@std@@AAPAU12@@std@@YAPAU?$_Tree_node@HPAX@0@AAPAU10@0@Z ; std::exchange<std::_Tree_node<int,void *> *,std::_Tree_node<int,void *> * &>
PUBLIC	??$_Freenode0@V?$allocator@U?$_Tree_node@V?$basic_string@DU?$char_traits@D@std@@V?$allocator@D@2@@std@@PAX@std@@@std@@@?$_Tree_node@V?$basic_string@DU?$char_traits@D@std@@V?$allocator@D@2@@std@@PAX@std@@SAXAAV?$allocator@U?$_Tree_node@V?$basic_string@DU?$char_traits@D@std@@V?$allocator@D@2@@std@@PAX@std@@@1@PAU01@@Z ; std::_Tree_node<std::basic_string<char,std::char_traits<char>,std::allocator<char> >,void *>::_Freenode0<std::allocator<std::_Tree_node<std::basic_string<char,std::char_traits<char>,std::allocator<char> >,void *> > >
PUBLIC	??$_Erase_tree@V?$allocator@U?$_Tree_node@V?$basic_string@DU?$char_traits@D@std@@V?$allocator@D@2@@std@@PAX@std@@@std@@@?$_Tree_val@U?$_Tree_simple_types@V?$basic_string@DU?$char_traits@D@std@@V?$allocator@D@2@@std@@@std@@@std@@QAEXAAV?$allocator@U?$_Tree_node@V?$basic_string@DU?$char_traits@D@std@@V?$allocator@D@2@@std@@PAX@std@@@1@PAU?$_Tree_node@V?$basic_string@DU?$char_traits@D@std@@V?$allocator@D@2@@std@@PAX@1@@Z ; std::_Tree_val<std::_Tree_simple_types<std::basic_string<char,std::char_traits<char>,std::allocator<char> > > >::_Erase_tree<std::allocator<std::_Tree_node<std::basic_string<char,std::char_traits<char>,std::allocator<char> >,void *> > >
PUBLIC	??$_Freenode0@V?$allocator@U?$_Tree_node@U?$pair@$$CBKUSReserveTargetEffect@CPythonBackground@@@std@@PAX@std@@@std@@@?$_Tree_node@U?$pair@$$CBKUSReserveTargetEffect@CPythonBackground@@@std@@PAX@std@@SAXAAV?$allocator@U?$_Tree_node@U?$pair@$$CBKUSReserveTargetEffect@CPythonBackground@@@std@@PAX@std@@@1@PAU01@@Z ; std::_Tree_node<std::pair<unsigned long const ,CPythonBackground::SReserveTargetEffect>,void *>::_Freenode0<std::allocator<std::_Tree_node<std::pair<unsigned long const ,CPythonBackground::SReserveTargetEffect>,void *> > >
PUBLIC	??$_Freenode@V?$allocator@U?$_Tree_node@U?$pair@$$CBKUSReserveTargetEffect@CPythonBackground@@@std@@PAX@std@@@std@@@?$_Tree_node@U?$pair@$$CBKUSReserveTargetEffect@CPythonBackground@@@std@@PAX@std@@SAXAAV?$allocator@U?$_Tree_node@U?$pair@$$CBKUSReserveTargetEffect@CPythonBackground@@@std@@PAX@std@@@1@PAU01@@Z ; std::_Tree_node<std::pair<unsigned long const ,CPythonBackground::SReserveTargetEffect>,void *>::_Freenode<std::allocator<std::_Tree_node<std::pair<unsigned long const ,CPythonBackground::SReserveTargetEffect>,void *> > >
PUBLIC	??$exchange@PAU?$_Tree_node@U?$pair@$$CBKUSReserveTargetEffect@CPythonBackground@@@std@@PAX@std@@AAPAU12@@std@@YAPAU?$_Tree_node@U?$pair@$$CBKUSReserveTargetEffect@CPythonBackground@@@std@@PAX@0@AAPAU10@0@Z ; std::exchange<std::_Tree_node<std::pair<unsigned long const ,CPythonBackground::SReserveTargetEffect>,void *> *,std::_Tree_node<std::pair<unsigned long const ,CPythonBackground::SReserveTargetEffect>,void *> * &>
PUBLIC	??$_Lower_bound_duplicate@K@?$_Tree@V?$_Tmap_traits@KUSReserveTargetEffect@CPythonBackground@@U?$less@K@std@@V?$allocator@U?$pair@$$CBKUSReserveTargetEffect@CPythonBackground@@@std@@@4@$0A@@std@@@std@@IBE_NQAU?$_Tree_node@U?$pair@$$CBKUSReserveTargetEffect@CPythonBackground@@@std@@PAX@1@ABK@Z ; std::_Tree<std::_Tmap_traits<unsigned long,CPythonBackground::SReserveTargetEffect,std::less<unsigned long>,std::allocator<std::pair<unsigned long const ,CPythonBackground::SReserveTargetEffect> >,0> >::_Lower_bound_duplicate<unsigned long>
PUBLIC	??$_Find_lower_bound@K@?$_Tree@V?$_Tmap_traits@KUSReserveTargetEffect@CPythonBackground@@U?$less@K@std@@V?$allocator@U?$pair@$$CBKUSReserveTargetEffect@CPythonBackground@@@std@@@4@$0A@@std@@@std@@IBE?AU?$_Tree_find_result@PAU?$_Tree_node@U?$pair@$$CBKUSReserveTargetEffect@CPythonBackground@@@std@@PAX@std@@@1@ABK@Z ; std::_Tree<std::_Tmap_traits<unsigned long,CPythonBackground::SReserveTargetEffect,std::less<unsigned long>,std::allocator<std::pair<unsigned long const ,CPythonBackground::SReserveTargetEffect> >,0> >::_Find_lower_bound<unsigned long>
PUBLIC	??$?0V?$_Tree_iterator@V?$_Tree_val@U?$_Tree_simple_types@U?$pair@$$CBKUSReserveTargetEffect@CPythonBackground@@@std@@@std@@@std@@@std@@AB_N$0A@@?$pair@V?$_Tree_iterator@V?$_Tree_val@U?$_Tree_simple_types@U?$pair@$$CBKUSReserveTargetEffect@CPythonBackground@@@std@@@std@@@std@@@std@@_N@std@@QAE@$$QAV?$_Tree_iterator@V?$_Tree_val@U?$_Tree_simple_types@U?$pair@$$CBKUSReserveTargetEffect@CPythonBackground@@@std@@@std@@@std@@@1@AB_N@Z ; std::pair<std::_Tree_iterator<std::_Tree_val<std::_Tree_simple_types<std::pair<unsigned long const ,CPythonBackground::SReserveTargetEffect> > > >,bool>::pair<std::_Tree_iterator<std::_Tree_val<std::_Tree_simple_types<std::pair<unsigned long const ,CPythonBackground::SReserveTargetEffect> > > >,bool><std::_Tree_iterator<std::_Tree_val<std::_Tree_simple_types<std::pair<unsigned long const ,CPythonBackground::SReserveTargetEffect> > > >,bool const &,0>
PUBLIC	??$_Emplace@U?$pair@KUSReserveTargetEffect@CPythonBackground@@@std@@@?$_Tree@V?$_Tmap_traits@KUSReserveTargetEffect@CPythonBackground@@U?$less@K@std@@V?$allocator@U?$pair@$$CBKUSReserveTargetEffect@CPythonBackground@@@std@@@4@$0A@@std@@@std@@IAE?AU?$pair@PAU?$_Tree_node@U?$pair@$$CBKUSReserveTargetEffect@CPythonBackground@@@std@@PAX@std@@_N@1@$$QAU?$pair@KUSReserveTargetEffect@CPythonBackground@@@1@@Z ; std::_Tree<std::_Tmap_traits<unsigned long,CPythonBackground::SReserveTargetEffect,std::less<unsigned long>,std::allocator<std::pair<unsigned long const ,CPythonBackground::SReserveTargetEffect> >,0> >::_Emplace<std::pair<unsigned long,CPythonBackground::SReserveTargetEffect> >
PUBLIC	??$forward@AAPAUTMapInfo@CMapManager@@@std@@YAAAPAUTMapInfo@CMapManager@@AAPAU12@@Z ; std::forward<CMapManager::TMapInfo * &>
PUBLIC	??$forward@V?$_Tree_const_iterator@V?$_Tree_val@U?$_Tree_simple_types@V?$basic_string@DU?$char_traits@D@std@@V?$allocator@D@2@@std@@@std@@@std@@@std@@@std@@YA$$QAV?$_Tree_const_iterator@V?$_Tree_val@U?$_Tree_simple_types@V?$basic_string@DU?$char_traits@D@std@@V?$allocator@D@2@@std@@@std@@@std@@@0@AAV10@@Z ; std::forward<std::_Tree_const_iterator<std::_Tree_val<std::_Tree_simple_types<std::basic_string<char,std::char_traits<char>,std::allocator<char> > > > > >
PUBLIC	??$?0PAU?$_Tree_node@V?$basic_string@DU?$char_traits@D@std@@V?$allocator@D@2@@std@@PAX@std@@_N$0A@@?$pair@PAU?$_Tree_node@V?$basic_string@DU?$char_traits@D@std@@V?$allocator@D@2@@std@@PAX@std@@_N@std@@QAE@$$QAPAU?$_Tree_node@V?$basic_string@DU?$char_traits@D@std@@V?$allocator@D@2@@std@@PAX@1@$$QA_N@Z ; std::pair<std::_Tree_node<std::basic_string<char,std::char_traits<char>,std::allocator<char> >,void *> *,bool>::pair<std::_Tree_node<std::basic_string<char,std::char_traits<char>,std::allocator<char> >,void *> *,bool><std::_Tree_node<std::basic_string<char,std::char_traits<char>,std::allocator<char> >,void *> *,bool,0>
PUBLIC	??$?0AAPAU?$_Tree_node@V?$basic_string@DU?$char_traits@D@std@@V?$allocator@D@2@@std@@PAX@std@@_N$0A@@?$pair@PAU?$_Tree_node@V?$basic_string@DU?$char_traits@D@std@@V?$allocator@D@2@@std@@PAX@std@@_N@std@@QAE@AAPAU?$_Tree_node@V?$basic_string@DU?$char_traits@D@std@@V?$allocator@D@2@@std@@PAX@1@$$QA_N@Z ; std::pair<std::_Tree_node<std::basic_string<char,std::char_traits<char>,std::allocator<char> >,void *> *,bool>::pair<std::_Tree_node<std::basic_string<char,std::char_traits<char>,std::allocator<char> >,void *> *,bool><std::_Tree_node<std::basic_string<char,std::char_traits<char>,std::allocator<char> >,void *> * &,bool,0>
PUBLIC	??$?0V?$basic_string@DU?$char_traits@D@std@@V?$allocator@D@2@@std@@@?$_Tree_temp_node@V?$allocator@U?$_Tree_node@V?$basic_string@DU?$char_traits@D@std@@V?$allocator@D@2@@std@@PAX@std@@@std@@@std@@QAE@AAV?$allocator@U?$_Tree_node@V?$basic_string@DU?$char_traits@D@std@@V?$allocator@D@2@@std@@PAX@std@@@1@PAU?$_Tree_node@V?$basic_string@DU?$char_traits@D@std@@V?$allocator@D@2@@std@@PAX@1@$$QAV?$basic_string@DU?$char_traits@D@std@@V?$allocator@D@2@@1@@Z ; std::_Tree_temp_node<std::allocator<std::_Tree_node<std::basic_string<char,std::char_traits<char>,std::allocator<char> >,void *> > >::_Tree_temp_node<std::allocator<std::_Tree_node<std::basic_string<char,std::char_traits<char>,std::allocator<char> >,void *> > ><std::basic_string<char,std::char_traits<char>,std::allocator<char> > >
PUBLIC	??$_Lower_bound_duplicate@V?$basic_string@DU?$char_traits@D@std@@V?$allocator@D@2@@std@@@?$_Tree@V?$_Tset_traits@V?$basic_string@DU?$char_traits@D@std@@V?$allocator@D@2@@std@@U?$less@V?$basic_string@DU?$char_traits@D@std@@V?$allocator@D@2@@std@@@2@V?$allocator@V?$basic_string@DU?$char_traits@D@std@@V?$allocator@D@2@@std@@@2@$0A@@std@@@std@@IBE_NQAU?$_Tree_node@V?$basic_string@DU?$char_traits@D@std@@V?$allocator@D@2@@std@@PAX@1@ABV?$basic_string@DU?$char_traits@D@std@@V?$allocator@D@2@@1@@Z ; std::_Tree<std::_Tset_traits<std::basic_string<char,std::char_traits<char>,std::allocator<char> >,std::less<std::basic_string<char,std::char_traits<char>,std::allocator<char> > >,std::allocator<std::basic_string<char,std::char_traits<char>,std::allocator<char> > >,0> >::_Lower_bound_duplicate<std::basic_string<char,std::char_traits<char>,std::allocator<char> > >
PUBLIC	??$_Find_lower_bound@V?$basic_string@DU?$char_traits@D@std@@V?$allocator@D@2@@std@@@?$_Tree@V?$_Tset_traits@V?$basic_string@DU?$char_traits@D@std@@V?$allocator@D@2@@std@@U?$less@V?$basic_string@DU?$char_traits@D@std@@V?$allocator@D@2@@std@@@2@V?$allocator@V?$basic_string@DU?$char_traits@D@std@@V?$allocator@D@2@@std@@@2@$0A@@std@@@std@@IBE?AU?$_Tree_find_result@PAU?$_Tree_node@V?$basic_string@DU?$char_traits@D@std@@V?$allocator@D@2@@std@@PAX@std@@@1@ABV?$basic_string@DU?$char_traits@D@std@@V?$allocator@D@2@@1@@Z ; std::_Tree<std::_Tset_traits<std::basic_string<char,std::char_traits<char>,std::allocator<char> >,std::less<std::basic_string<char,std::char_traits<char>,std::allocator<char> > >,std::allocator<std::basic_string<char,std::char_traits<char>,std::allocator<char> > >,0> >::_Find_lower_bound<std::basic_string<char,std::char_traits<char>,std::allocator<char> > >
PUBLIC	??$forward@V?$_Tree_const_iterator@V?$_Tree_val@U?$_Tree_simple_types@H@std@@@std@@@std@@@std@@YA$$QAV?$_Tree_const_iterator@V?$_Tree_val@U?$_Tree_simple_types@H@std@@@std@@@0@AAV10@@Z ; std::forward<std::_Tree_const_iterator<std::_Tree_val<std::_Tree_simple_types<int> > > >
PUBLIC	??$?0PAU?$_Tree_node@HPAX@std@@_N$0A@@?$pair@PAU?$_Tree_node@HPAX@std@@_N@std@@QAE@$$QAPAU?$_Tree_node@HPAX@1@$$QA_N@Z ; std::pair<std::_Tree_node<int,void *> *,bool>::pair<std::_Tree_node<int,void *> *,bool><std::_Tree_node<int,void *> *,bool,0>
PUBLIC	??$?0AAPAU?$_Tree_node@HPAX@std@@_N$0A@@?$pair@PAU?$_Tree_node@HPAX@std@@_N@std@@QAE@AAPAU?$_Tree_node@HPAX@1@$$QA_N@Z ; std::pair<std::_Tree_node<int,void *> *,bool>::pair<std::_Tree_node<int,void *> *,bool><std::_Tree_node<int,void *> * &,bool,0>
PUBLIC	??$?0ABH@?$_Tree_temp_node@V?$allocator@U?$_Tree_node@HPAX@std@@@std@@@std@@QAE@AAV?$allocator@U?$_Tree_node@HPAX@std@@@1@PAU?$_Tree_node@HPAX@1@ABH@Z ; std::_Tree_temp_node<std::allocator<std::_Tree_node<int,void *> > >::_Tree_temp_node<std::allocator<std::_Tree_node<int,void *> > ><int const &>
PUBLIC	??$forward@ABH@std@@YAABHABH@Z			; std::forward<int const &>
PUBLIC	??$_Lower_bound_duplicate@H@?$_Tree@V?$_Tset_traits@HU?$less@H@std@@V?$allocator@H@2@$0A@@std@@@std@@IBE_NQAU?$_Tree_node@HPAX@1@ABH@Z ; std::_Tree<std::_Tset_traits<int,std::less<int>,std::allocator<int>,0> >::_Lower_bound_duplicate<int>
PUBLIC	??$_Find_lower_bound@H@?$_Tree@V?$_Tset_traits@HU?$less@H@std@@V?$allocator@H@2@$0A@@std@@@std@@IBE?AU?$_Tree_find_result@PAU?$_Tree_node@HPAX@std@@@1@ABH@Z ; std::_Tree<std::_Tset_traits<int,std::less<int>,std::allocator<int>,0> >::_Find_lower_bound<int>
PUBLIC	??$?0AAPAU?$_Tree_node@U?$pair@$$CBKK@std@@PAX@std@@AAPAU01@$0A@@?$pair@PAU?$_Tree_node@U?$pair@$$CBKK@std@@PAX@std@@PAU12@@std@@QAE@AAPAU?$_Tree_node@U?$pair@$$CBKK@std@@PAX@1@0@Z ; std::pair<std::_Tree_node<std::pair<unsigned long const ,unsigned long>,void *> *,std::_Tree_node<std::pair<unsigned long const ,unsigned long>,void *> *>::pair<std::_Tree_node<std::pair<unsigned long const ,unsigned long>,void *> *,std::_Tree_node<std::pair<unsigned long const ,unsigned long>,void *> *><std::_Tree_node<std::pair<unsigned long const ,unsigned long>,void *> * &,std::_Tree_node<std::pair<unsigned long const ,unsigned long>,void *> * &,0>
PUBLIC	??$?0AAPAU?$_Tree_node@U?$pair@$$CBKUSReserveTargetEffect@CPythonBackground@@@std@@PAX@std@@AAPAU01@$0A@@?$pair@PAU?$_Tree_node@U?$pair@$$CBKUSReserveTargetEffect@CPythonBackground@@@std@@PAX@std@@PAU12@@std@@QAE@AAPAU?$_Tree_node@U?$pair@$$CBKUSReserveTargetEffect@CPythonBackground@@@std@@PAX@1@0@Z ; std::pair<std::_Tree_node<std::pair<unsigned long const ,CPythonBackground::SReserveTargetEffect>,void *> *,std::_Tree_node<std::pair<unsigned long const ,CPythonBackground::SReserveTargetEffect>,void *> *>::pair<std::_Tree_node<std::pair<unsigned long const ,CPythonBackground::SReserveTargetEffect>,void *> *,std::_Tree_node<std::pair<unsigned long const ,CPythonBackground::SReserveTargetEffect>,void *> *><std::_Tree_node<std::pair<unsigned long const ,CPythonBackground::SReserveTargetEffect>,void *> * &,std::_Tree_node<std::pair<unsigned long const ,CPythonBackground::SReserveTargetEffect>,void *> * &,0>
PUBLIC	??$_Kfn@$$CBKUSReserveTargetEffect@CPythonBackground@@@?$_Tmap_traits@KUSReserveTargetEffect@CPythonBackground@@U?$less@K@std@@V?$allocator@U?$pair@$$CBKUSReserveTargetEffect@CPythonBackground@@@std@@@4@$0A@@std@@SAABKABU?$pair@$$CBKUSReserveTargetEffect@CPythonBackground@@@1@@Z ; std::_Tmap_traits<unsigned long,CPythonBackground::SReserveTargetEffect,std::less<unsigned long>,std::allocator<std::pair<unsigned long const ,CPythonBackground::SReserveTargetEffect> >,0>::_Kfn<unsigned long const ,CPythonBackground::SReserveTargetEffect>
PUBLIC	??0?$_Tree_unchecked_iterator@V?$_Tree_val@U?$_Tree_simple_types@U?$pair@$$CBKUSReserveTargetEffect@CPythonBackground@@@std@@@std@@@std@@@std@@QAE@PAU?$_Tree_node@U?$pair@$$CBKUSReserveTargetEffect@CPythonBackground@@@std@@PAX@1@PBV?$_Tree_val@U?$_Tree_simple_types@U?$pair@$$CBKUSReserveTargetEffect@CPythonBackground@@@std@@@std@@@1@@Z ; std::_Tree_unchecked_iterator<std::_Tree_val<std::_Tree_simple_types<std::pair<unsigned long const ,CPythonBackground::SReserveTargetEffect> > > >::_Tree_unchecked_iterator<std::_Tree_val<std::_Tree_simple_types<std::pair<unsigned long const ,CPythonBackground::SReserveTargetEffect> > > >
PUBLIC	??_G?$RangeTester@UFGetPortalID@@@@UAEPAXI@Z	; RangeTester<FGetPortalID>::`scalar deleting destructor'
PUBLIC	??_G?$RangeTester@UCollisionAdjustChecker@@@@UAEPAXI@Z ; RangeTester<CollisionAdjustChecker>::`scalar deleting destructor'
PUBLIC	??_G?$RangeTester@UCollisionChecker@@@@UAEPAXI@Z ; RangeTester<CollisionChecker>::`scalar deleting destructor'
PUBLIC	?_Equal@?$basic_string@DU?$char_traits@D@std@@V?$allocator@D@2@@std@@QBE_NQBD@Z ; std::basic_string<char,std::char_traits<char>,std::allocator<char> >::_Equal
PUBLIC	??0?$_Vector_const_iterator@V?$_Vector_val@U?$_Simple_types@V?$basic_string@DU?$char_traits@D@std@@V?$allocator@D@2@@std@@@std@@@std@@@std@@QAE@PAV?$basic_string@DU?$char_traits@D@std@@V?$allocator@D@2@@1@PBU_Container_base0@1@@Z ; std::_Vector_const_iterator<std::_Vector_val<std::_Simple_types<std::basic_string<char,std::char_traits<char>,std::allocator<char> > > > >::_Vector_const_iterator<std::_Vector_val<std::_Simple_types<std::basic_string<char,std::char_traits<char>,std::allocator<char> > > > >
PUBLIC	?_Compat@?$_Vector_const_iterator@V?$_Vector_val@U?$_Simple_types@V?$basic_string@DU?$char_traits@D@std@@V?$allocator@D@2@@std@@@std@@@std@@@std@@QBEXABV12@@Z ; std::_Vector_const_iterator<std::_Vector_val<std::_Simple_types<std::basic_string<char,std::char_traits<char>,std::allocator<char> > > > >::_Compat
PUBLIC	?_Unwrapped@?$_Vector_const_iterator@V?$_Vector_val@U?$_Simple_types@V?$basic_string@DU?$char_traits@D@std@@V?$allocator@D@2@@std@@@std@@@std@@@std@@QBEPBV?$basic_string@DU?$char_traits@D@std@@V?$allocator@D@2@@2@XZ ; std::_Vector_const_iterator<std::_Vector_val<std::_Simple_types<std::basic_string<char,std::char_traits<char>,std::allocator<char> > > > >::_Unwrapped
PUBLIC	??0?$_Tree@V?$_Tset_traits@HU?$less@H@std@@V?$allocator@H@2@$0A@@std@@@std@@QAE@ABU?$less@H@1@@Z ; std::_Tree<std::_Tset_traits<int,std::less<int>,std::allocator<int>,0> >::_Tree<std::_Tset_traits<int,std::less<int>,std::allocator<int>,0> >
PUBLIC	??4?$_Tree@V?$_Tset_traits@HU?$less@H@std@@V?$allocator@H@2@$0A@@std@@@std@@QAEAAV01@ABV01@@Z ; std::_Tree<std::_Tset_traits<int,std::less<int>,std::allocator<int>,0> >::operator=
PUBLIC	?_Getal@?$_Tree@V?$_Tset_traits@HU?$less@H@std@@V?$allocator@H@2@$0A@@std@@@std@@IAEAAV?$allocator@U?$_Tree_node@HPAX@std@@@2@XZ ; std::_Tree<std::_Tset_traits<int,std::less<int>,std::allocator<int>,0> >::_Getal
PUBLIC	?_Get_scary@?$_Tree@V?$_Tset_traits@HU?$less@H@std@@V?$allocator@H@2@$0A@@std@@@std@@IAEPAV?$_Tree_val@U?$_Tree_simple_types@H@std@@@2@XZ ; std::_Tree<std::_Tset_traits<int,std::less<int>,std::allocator<int>,0> >::_Get_scary
PUBLIC	?_Orphan_ptr@?$_Tree_val@U?$_Tree_simple_types@H@std@@@std@@QAEXQAU?$_Tree_node@HPAX@2@@Z ; std::_Tree_val<std::_Tree_simple_types<int> >::_Orphan_ptr
PUBLIC	??0?$_Tree_unchecked_const_iterator@V?$_Tree_val@U?$_Tree_simple_types@H@std@@@std@@U_Iterator_base0@2@@std@@QAE@PAU?$_Tree_node@HPAX@1@PBV?$_Tree_val@U?$_Tree_simple_types@H@std@@@1@@Z ; std::_Tree_unchecked_const_iterator<std::_Tree_val<std::_Tree_simple_types<int> >,std::_Iterator_base0>::_Tree_unchecked_const_iterator<std::_Tree_val<std::_Tree_simple_types<int> >,std::_Iterator_base0>
PUBLIC	??E?$_Tree_unchecked_const_iterator@V?$_Tree_val@U?$_Tree_simple_types@H@std@@@std@@U_Iterator_base0@2@@std@@QAEAAV01@XZ ; std::_Tree_unchecked_const_iterator<std::_Tree_val<std::_Tree_simple_types<int> >,std::_Iterator_base0>::operator++
PUBLIC	??0?$_Vector_const_iterator@V?$_Vector_val@U?$_Simple_types@UTMapInfo@CMapManager@@@std@@@std@@@std@@QAE@PAUTMapInfo@CMapManager@@PBU_Container_base0@1@@Z ; std::_Vector_const_iterator<std::_Vector_val<std::_Simple_types<CMapManager::TMapInfo> > >::_Vector_const_iterator<std::_Vector_val<std::_Simple_types<CMapManager::TMapInfo> > >
PUBLIC	??D?$_Vector_const_iterator@V?$_Vector_val@U?$_Simple_types@UTMapInfo@CMapManager@@@std@@@std@@@std@@QBEABUTMapInfo@CMapManager@@XZ ; std::_Vector_const_iterator<std::_Vector_val<std::_Simple_types<CMapManager::TMapInfo> > >::operator*
PUBLIC	?_Compat@?$_Vector_const_iterator@V?$_Vector_val@U?$_Simple_types@UTMapInfo@CMapManager@@@std@@@std@@@std@@QBEXABV12@@Z ; std::_Vector_const_iterator<std::_Vector_val<std::_Simple_types<CMapManager::TMapInfo> > >::_Compat
PUBLIC	??0?$_Tree@V?$_Tset_traits@V?$basic_string@DU?$char_traits@D@std@@V?$allocator@D@2@@std@@U?$less@V?$basic_string@DU?$char_traits@D@std@@V?$allocator@D@2@@std@@@2@V?$allocator@V?$basic_string@DU?$char_traits@D@std@@V?$allocator@D@2@@std@@@2@$0A@@std@@@std@@QAE@ABU?$less@V?$basic_string@DU?$char_traits@D@std@@V?$allocator@D@2@@std@@@1@@Z ; std::_Tree<std::_Tset_traits<std::basic_string<char,std::char_traits<char>,std::allocator<char> >,std::less<std::basic_string<char,std::char_traits<char>,std::allocator<char> > >,std::allocator<std::basic_string<char,std::char_traits<char>,std::allocator<char> > >,0> >::_Tree<std::_Tset_traits<std::basic_string<char,std::char_traits<char>,std::allocator<char> >,std::less<std::basic_string<char,std::char_traits<char>,std::allocator<char> > >,std::allocator<std::basic_string<char,std::char_traits<char>,std::allocator<char> > >,0> >
PUBLIC	?_Getal@?$_Tree@V?$_Tset_traits@V?$basic_string@DU?$char_traits@D@std@@V?$allocator@D@2@@std@@U?$less@V?$basic_string@DU?$char_traits@D@std@@V?$allocator@D@2@@std@@@2@V?$allocator@V?$basic_string@DU?$char_traits@D@std@@V?$allocator@D@2@@std@@@2@$0A@@std@@@std@@IAEAAV?$allocator@U?$_Tree_node@V?$basic_string@DU?$char_traits@D@std@@V?$allocator@D@2@@std@@PAX@std@@@2@XZ ; std::_Tree<std::_Tset_traits<std::basic_string<char,std::char_traits<char>,std::allocator<char> >,std::less<std::basic_string<char,std::char_traits<char>,std::allocator<char> > >,std::allocator<std::basic_string<char,std::char_traits<char>,std::allocator<char> > >,0> >::_Getal
PUBLIC	?_Get_scary@?$_Tree@V?$_Tset_traits@V?$basic_string@DU?$char_traits@D@std@@V?$allocator@D@2@@std@@U?$less@V?$basic_string@DU?$char_traits@D@std@@V?$allocator@D@2@@std@@@2@V?$allocator@V?$basic_string@DU?$char_traits@D@std@@V?$allocator@D@2@@std@@@2@$0A@@std@@@std@@IAEPAV?$_Tree_val@U?$_Tree_simple_types@V?$basic_string@DU?$char_traits@D@std@@V?$allocator@D@2@@std@@@std@@@2@XZ ; std::_Tree<std::_Tset_traits<std::basic_string<char,std::char_traits<char>,std::allocator<char> >,std::less<std::basic_string<char,std::char_traits<char>,std::allocator<char> > >,std::allocator<std::basic_string<char,std::char_traits<char>,std::allocator<char> > >,0> >::_Get_scary
PUBLIC	??0?$_Tree_unchecked_const_iterator@V?$_Tree_val@U?$_Tree_simple_types@V?$basic_string@DU?$char_traits@D@std@@V?$allocator@D@2@@std@@@std@@@std@@U_Iterator_base0@2@@std@@QAE@PAU?$_Tree_node@V?$basic_string@DU?$char_traits@D@std@@V?$allocator@D@2@@std@@PAX@1@PBV?$_Tree_val@U?$_Tree_simple_types@V?$basic_string@DU?$char_traits@D@std@@V?$allocator@D@2@@std@@@std@@@1@@Z ; std::_Tree_unchecked_const_iterator<std::_Tree_val<std::_Tree_simple_types<std::basic_string<char,std::char_traits<char>,std::allocator<char> > > >,std::_Iterator_base0>::_Tree_unchecked_const_iterator<std::_Tree_val<std::_Tree_simple_types<std::basic_string<char,std::char_traits<char>,std::allocator<char> > > >,std::_Iterator_base0>
PUBLIC	?_Erase@?$_Tree@V?$_Tmap_traits@KKU?$less@K@std@@V?$allocator@U?$pair@$$CBKK@std@@@2@$0A@@std@@@std@@AAEIU?$pair@PAU?$_Tree_node@U?$pair@$$CBKK@std@@PAX@std@@PAU12@@2@@Z ; std::_Tree<std::_Tmap_traits<unsigned long,unsigned long,std::less<unsigned long>,std::allocator<std::pair<unsigned long const ,unsigned long> >,0> >::_Erase
PUBLIC	??0?$_Tree@V?$_Tmap_traits@KUSReserveTargetEffect@CPythonBackground@@U?$less@K@std@@V?$allocator@U?$pair@$$CBKUSReserveTargetEffect@CPythonBackground@@@std@@@4@$0A@@std@@@std@@QAE@ABU?$less@K@1@@Z ; std::_Tree<std::_Tmap_traits<unsigned long,CPythonBackground::SReserveTargetEffect,std::less<unsigned long>,std::allocator<std::pair<unsigned long const ,CPythonBackground::SReserveTargetEffect> >,0> >::_Tree<std::_Tmap_traits<unsigned long,CPythonBackground::SReserveTargetEffect,std::less<unsigned long>,std::allocator<std::pair<unsigned long const ,CPythonBackground::SReserveTargetEffect> >,0> >
PUBLIC	?_Erase_unchecked@?$_Tree@V?$_Tmap_traits@KUSReserveTargetEffect@CPythonBackground@@U?$less@K@std@@V?$allocator@U?$pair@$$CBKUSReserveTargetEffect@CPythonBackground@@@std@@@4@$0A@@std@@@std@@AAEPAU?$_Tree_node@U?$pair@$$CBKUSReserveTargetEffect@CPythonBackground@@@std@@PAX@2@V?$_Tree_unchecked_const_iterator@V?$_Tree_val@U?$_Tree_simple_types@U?$pair@$$CBKUSReserveTargetEffect@CPythonBackground@@@std@@@std@@@std@@U_Iterator_base0@2@@2@@Z ; std::_Tree<std::_Tmap_traits<unsigned long,CPythonBackground::SReserveTargetEffect,std::less<unsigned long>,std::allocator<std::pair<unsigned long const ,CPythonBackground::SReserveTargetEffect> >,0> >::_Erase_unchecked
PUBLIC	?_Erase@?$_Tree@V?$_Tmap_traits@KUSReserveTargetEffect@CPythonBackground@@U?$less@K@std@@V?$allocator@U?$pair@$$CBKUSReserveTargetEffect@CPythonBackground@@@std@@@4@$0A@@std@@@std@@AAEIU?$pair@PAU?$_Tree_node@U?$pair@$$CBKUSReserveTargetEffect@CPythonBackground@@@std@@PAX@std@@PAU12@@2@@Z ; std::_Tree<std::_Tmap_traits<unsigned long,CPythonBackground::SReserveTargetEffect,std::less<unsigned long>,std::allocator<std::pair<unsigned long const ,CPythonBackground::SReserveTargetEffect> >,0> >::_Erase
PUBLIC	?_Getal@?$_Tree@V?$_Tmap_traits@KUSReserveTargetEffect@CPythonBackground@@U?$less@K@std@@V?$allocator@U?$pair@$$CBKUSReserveTargetEffect@CPythonBackground@@@std@@@4@$0A@@std@@@std@@IAEAAV?$allocator@U?$_Tree_node@U?$pair@$$CBKUSReserveTargetEffect@CPythonBackground@@@std@@PAX@std@@@2@XZ ; std::_Tree<std::_Tmap_traits<unsigned long,CPythonBackground::SReserveTargetEffect,std::less<unsigned long>,std::allocator<std::pair<unsigned long const ,CPythonBackground::SReserveTargetEffect> >,0> >::_Getal
PUBLIC	?_Get_scary@?$_Tree@V?$_Tmap_traits@KUSReserveTargetEffect@CPythonBackground@@U?$less@K@std@@V?$allocator@U?$pair@$$CBKUSReserveTargetEffect@CPythonBackground@@@std@@@4@$0A@@std@@@std@@IAEPAV?$_Tree_val@U?$_Tree_simple_types@U?$pair@$$CBKUSReserveTargetEffect@CPythonBackground@@@std@@@std@@@2@XZ ; std::_Tree<std::_Tmap_traits<unsigned long,CPythonBackground::SReserveTargetEffect,std::less<unsigned long>,std::allocator<std::pair<unsigned long const ,CPythonBackground::SReserveTargetEffect> >,0> >::_Get_scary
PUBLIC	?_Orphan_ptr@?$_Tree_val@U?$_Tree_simple_types@U?$pair@$$CBKUSReserveTargetEffect@CPythonBackground@@@std@@@std@@@std@@QAEXQAU?$_Tree_node@U?$pair@$$CBKUSReserveTargetEffect@CPythonBackground@@@std@@PAX@2@@Z ; std::_Tree_val<std::_Tree_simple_types<std::pair<unsigned long const ,CPythonBackground::SReserveTargetEffect> > >::_Orphan_ptr
PUBLIC	??E?$_Tree_const_iterator@V?$_Tree_val@U?$_Tree_simple_types@U?$pair@$$CBKUSReserveTargetEffect@CPythonBackground@@@std@@@std@@@std@@@std@@QAEAAV01@XZ ; std::_Tree_const_iterator<std::_Tree_val<std::_Tree_simple_types<std::pair<unsigned long const ,CPythonBackground::SReserveTargetEffect> > > >::operator++
PUBLIC	??D?$_Tree_iterator@V?$_Tree_val@U?$_Tree_simple_types@U?$pair@$$CBKUSReserveTargetEffect@CPythonBackground@@@std@@@std@@@std@@@std@@QBEAAU?$pair@$$CBKUSReserveTargetEffect@CPythonBackground@@@1@XZ ; std::_Tree_iterator<std::_Tree_val<std::_Tree_simple_types<std::pair<unsigned long const ,CPythonBackground::SReserveTargetEffect> > > >::operator*
PUBLIC	?_Unwrapped@?$_Tree_iterator@V?$_Tree_val@U?$_Tree_simple_types@U?$pair@$$CBKUSReserveTargetEffect@CPythonBackground@@@std@@@std@@@std@@@std@@QBE?AV?$_Tree_unchecked_iterator@V?$_Tree_val@U?$_Tree_simple_types@U?$pair@$$CBKUSReserveTargetEffect@CPythonBackground@@@std@@@std@@@std@@@2@XZ ; std::_Tree_iterator<std::_Tree_val<std::_Tree_simple_types<std::pair<unsigned long const ,CPythonBackground::SReserveTargetEffect> > > >::_Unwrapped
PUBLIC	??0?$_Tree_unchecked_const_iterator@V?$_Tree_val@U?$_Tree_simple_types@U?$pair@$$CBKUSReserveTargetEffect@CPythonBackground@@@std@@@std@@@std@@U_Iterator_base0@2@@std@@QAE@PAU?$_Tree_node@U?$pair@$$CBKUSReserveTargetEffect@CPythonBackground@@@std@@PAX@1@PBV?$_Tree_val@U?$_Tree_simple_types@U?$pair@$$CBKUSReserveTargetEffect@CPythonBackground@@@std@@@std@@@1@@Z ; std::_Tree_unchecked_const_iterator<std::_Tree_val<std::_Tree_simple_types<std::pair<unsigned long const ,CPythonBackground::SReserveTargetEffect> > >,std::_Iterator_base0>::_Tree_unchecked_const_iterator<std::_Tree_val<std::_Tree_simple_types<std::pair<unsigned long const ,CPythonBackground::SReserveTargetEffect> > >,std::_Iterator_base0>
PUBLIC	??0?$RangeTester@UFGetPortalID@@@@QAE@PAUFGetPortalID@@M@Z ; RangeTester<FGetPortalID>::RangeTester<FGetPortalID>
PUBLIC	??1?$RangeTester@UFGetPortalID@@@@UAE@XZ	; RangeTester<FGetPortalID>::~RangeTester<FGetPortalID>
PUBLIC	?RayTraceCallback@?$RangeTester@UFGetPortalID@@@@UAEXABVVector3d@@0M0PAVSpherePack@@@Z ; RangeTester<FGetPortalID>::RayTraceCallback
PUBLIC	?VisibilityCallback@?$RangeTester@UFGetPortalID@@@@UAEXABVFrustum@@PAVSpherePack@@W4ViewState@@@Z ; RangeTester<FGetPortalID>::VisibilityCallback
PUBLIC	?RangeTestCallback@?$RangeTester@UFGetPortalID@@@@UAEXABVVector3d@@MPAVSpherePack@@W4ViewState@@@Z ; RangeTester<FGetPortalID>::RangeTestCallback
PUBLIC	?PointTest2dCallback@?$RangeTester@UFGetPortalID@@@@UAEXABVVector3d@@PAVSpherePack@@W4ViewState@@@Z ; RangeTester<FGetPortalID>::PointTest2dCallback
PUBLIC	??0?$RangeTester@UCollisionAdjustChecker@@@@QAE@PAUCollisionAdjustChecker@@M@Z ; RangeTester<CollisionAdjustChecker>::RangeTester<CollisionAdjustChecker>
PUBLIC	??1?$RangeTester@UCollisionAdjustChecker@@@@UAE@XZ ; RangeTester<CollisionAdjustChecker>::~RangeTester<CollisionAdjustChecker>
PUBLIC	?RayTraceCallback@?$RangeTester@UCollisionAdjustChecker@@@@UAEXABVVector3d@@0M0PAVSpherePack@@@Z ; RangeTester<CollisionAdjustChecker>::RayTraceCallback
PUBLIC	?VisibilityCallback@?$RangeTester@UCollisionAdjustChecker@@@@UAEXABVFrustum@@PAVSpherePack@@W4ViewState@@@Z ; RangeTester<CollisionAdjustChecker>::VisibilityCallback
PUBLIC	?RangeTestCallback@?$RangeTester@UCollisionAdjustChecker@@@@UAEXABVVector3d@@MPAVSpherePack@@W4ViewState@@@Z ; RangeTester<CollisionAdjustChecker>::RangeTestCallback
PUBLIC	?PointTest2dCallback@?$RangeTester@UCollisionAdjustChecker@@@@UAEXABVVector3d@@PAVSpherePack@@W4ViewState@@@Z ; RangeTester<CollisionAdjustChecker>::PointTest2dCallback
PUBLIC	??0?$RangeTester@UCollisionChecker@@@@QAE@PAUCollisionChecker@@M@Z ; RangeTester<CollisionChecker>::RangeTester<CollisionChecker>
PUBLIC	??1?$RangeTester@UCollisionChecker@@@@UAE@XZ	; RangeTester<CollisionChecker>::~RangeTester<CollisionChecker>
PUBLIC	?RayTraceCallback@?$RangeTester@UCollisionChecker@@@@UAEXABVVector3d@@0M0PAVSpherePack@@@Z ; RangeTester<CollisionChecker>::RayTraceCallback
PUBLIC	?VisibilityCallback@?$RangeTester@UCollisionChecker@@@@UAEXABVFrustum@@PAVSpherePack@@W4ViewState@@@Z ; RangeTester<CollisionChecker>::VisibilityCallback
PUBLIC	?RangeTestCallback@?$RangeTester@UCollisionChecker@@@@UAEXABVVector3d@@MPAVSpherePack@@W4ViewState@@@Z ; RangeTester<CollisionChecker>::RangeTestCallback
PUBLIC	?PointTest2dCallback@?$RangeTester@UCollisionChecker@@@@UAEXABVVector3d@@PAVSpherePack@@W4ViewState@@@Z ; RangeTester<CollisionChecker>::PointTest2dCallback
PUBLIC	?pointer_to@?$pointer_traits@PAU?$pair@$$CBKUSReserveTargetEffect@CPythonBackground@@@std@@@std@@SAPAU?$pair@$$CBKUSReserveTargetEffect@CPythonBackground@@@2@AAU32@@Z ; std::pointer_traits<std::pair<unsigned long const ,CPythonBackground::SReserveTargetEffect> *>::pointer_to
PUBLIC	??$addressof@$$CBV?$_Vector_val@U?$_Simple_types@V?$basic_string@DU?$char_traits@D@std@@V?$allocator@D@2@@std@@@std@@@std@@@std@@YAPBV?$_Vector_val@U?$_Simple_types@V?$basic_string@DU?$char_traits@D@std@@V?$allocator@D@2@@std@@@std@@@0@ABV10@@Z ; std::addressof<std::_Vector_val<std::_Simple_types<std::basic_string<char,std::char_traits<char>,std::allocator<char> > > > const >
PUBLIC	??$_Erase_head@V?$allocator@U?$_Tree_node@HPAX@std@@@std@@@?$_Tree_val@U?$_Tree_simple_types@H@std@@@std@@QAEXAAV?$allocator@U?$_Tree_node@HPAX@std@@@1@@Z ; std::_Tree_val<std::_Tree_simple_types<int> >::_Erase_head<std::allocator<std::_Tree_node<int,void *> > >
PUBLIC	??$_Erase_tree@V?$allocator@U?$_Tree_node@HPAX@std@@@std@@@?$_Tree_val@U?$_Tree_simple_types@H@std@@@std@@QAEXAAV?$allocator@U?$_Tree_node@HPAX@std@@@1@PAU?$_Tree_node@HPAX@1@@Z ; std::_Tree_val<std::_Tree_simple_types<int> >::_Erase_tree<std::allocator<std::_Tree_node<int,void *> > >
PUBLIC	??$_Find@H@?$_Tree@V?$_Tset_traits@HU?$less@H@std@@V?$allocator@H@2@$0A@@std@@@std@@ABEPAU?$_Tree_node@HPAX@1@ABH@Z ; std::_Tree<std::_Tset_traits<int,std::less<int>,std::allocator<int>,0> >::_Find<int>
PUBLIC	??$addressof@V?$_Vector_val@U?$_Simple_types@UTMapInfo@CMapManager@@@std@@@std@@@std@@YAPAV?$_Vector_val@U?$_Simple_types@UTMapInfo@CMapManager@@@std@@@0@AAV10@@Z ; std::addressof<std::_Vector_val<std::_Simple_types<CMapManager::TMapInfo> > >
PUBLIC	??$_Erase_head@V?$allocator@U?$_Tree_node@V?$basic_string@DU?$char_traits@D@std@@V?$allocator@D@2@@std@@PAX@std@@@std@@@?$_Tree_val@U?$_Tree_simple_types@V?$basic_string@DU?$char_traits@D@std@@V?$allocator@D@2@@std@@@std@@@std@@QAEXAAV?$allocator@U?$_Tree_node@V?$basic_string@DU?$char_traits@D@std@@V?$allocator@D@2@@std@@PAX@std@@@1@@Z ; std::_Tree_val<std::_Tree_simple_types<std::basic_string<char,std::char_traits<char>,std::allocator<char> > > >::_Erase_head<std::allocator<std::_Tree_node<std::basic_string<char,std::char_traits<char>,std::allocator<char> >,void *> > >
PUBLIC	??$_Find@V?$basic_string@DU?$char_traits@D@std@@V?$allocator@D@2@@std@@@?$_Tree@V?$_Tset_traits@V?$basic_string@DU?$char_traits@D@std@@V?$allocator@D@2@@std@@U?$less@V?$basic_string@DU?$char_traits@D@std@@V?$allocator@D@2@@std@@@2@V?$allocator@V?$basic_string@DU?$char_traits@D@std@@V?$allocator@D@2@@std@@@2@$0A@@std@@@std@@ABEPAU?$_Tree_node@V?$basic_string@DU?$char_traits@D@std@@V?$allocator@D@2@@std@@PAX@1@ABV?$basic_string@DU?$char_traits@D@std@@V?$allocator@D@2@@1@@Z ; std::_Tree<std::_Tset_traits<std::basic_string<char,std::char_traits<char>,std::allocator<char> >,std::less<std::basic_string<char,std::char_traits<char>,std::allocator<char> > >,std::allocator<std::basic_string<char,std::char_traits<char>,std::allocator<char> > >,0> >::_Find<std::basic_string<char,std::char_traits<char>,std::allocator<char> > >
PUBLIC	??$_Erase_head@V?$allocator@U?$_Tree_node@U?$pair@$$CBKUSReserveTargetEffect@CPythonBackground@@@std@@PAX@std@@@std@@@?$_Tree_val@U?$_Tree_simple_types@U?$pair@$$CBKUSReserveTargetEffect@CPythonBackground@@@std@@@std@@@std@@QAEXAAV?$allocator@U?$_Tree_node@U?$pair@$$CBKUSReserveTargetEffect@CPythonBackground@@@std@@PAX@std@@@1@@Z ; std::_Tree_val<std::_Tree_simple_types<std::pair<unsigned long const ,CPythonBackground::SReserveTargetEffect> > >::_Erase_head<std::allocator<std::_Tree_node<std::pair<unsigned long const ,CPythonBackground::SReserveTargetEffect>,void *> > >
PUBLIC	??$_Erase_tree@V?$allocator@U?$_Tree_node@U?$pair@$$CBKUSReserveTargetEffect@CPythonBackground@@@std@@PAX@std@@@std@@@?$_Tree_val@U?$_Tree_simple_types@U?$pair@$$CBKUSReserveTargetEffect@CPythonBackground@@@std@@@std@@@std@@QAEXAAV?$allocator@U?$_Tree_node@U?$pair@$$CBKUSReserveTargetEffect@CPythonBackground@@@std@@PAX@std@@@1@PAU?$_Tree_node@U?$pair@$$CBKUSReserveTargetEffect@CPythonBackground@@@std@@PAX@1@@Z ; std::_Tree_val<std::_Tree_simple_types<std::pair<unsigned long const ,CPythonBackground::SReserveTargetEffect> > >::_Erase_tree<std::allocator<std::_Tree_node<std::pair<unsigned long const ,CPythonBackground::SReserveTargetEffect>,void *> > >
PUBLIC	??$_Find@K@?$_Tree@V?$_Tmap_traits@KUSReserveTargetEffect@CPythonBackground@@U?$less@K@std@@V?$allocator@U?$pair@$$CBKUSReserveTargetEffect@CPythonBackground@@@std@@@4@$0A@@std@@@std@@ABEPAU?$_Tree_node@U?$pair@$$CBKUSReserveTargetEffect@CPythonBackground@@@std@@PAX@1@ABK@Z ; std::_Tree<std::_Tmap_traits<unsigned long,CPythonBackground::SReserveTargetEffect,std::less<unsigned long>,std::allocator<std::pair<unsigned long const ,CPythonBackground::SReserveTargetEffect> >,0> >::_Find<unsigned long>
PUBLIC	??$_Seek_wrapped@V?$_Vector_const_iterator@V?$_Vector_val@U?$_Simple_types@V?$basic_string@DU?$char_traits@D@std@@V?$allocator@D@2@@std@@@std@@@std@@@std@@PBV?$basic_string@DU?$char_traits@D@std@@V?$allocator@D@2@@2@@std@@YAXAAV?$_Vector_const_iterator@V?$_Vector_val@U?$_Simple_types@V?$basic_string@DU?$char_traits@D@std@@V?$allocator@D@2@@std@@@std@@@std@@@0@$$QAPBV?$basic_string@DU?$char_traits@D@std@@V?$allocator@D@2@@0@@Z ; std::_Seek_wrapped<std::_Vector_const_iterator<std::_Vector_val<std::_Simple_types<std::basic_string<char,std::char_traits<char>,std::allocator<char> > > > >,std::basic_string<char,std::char_traits<char>,std::allocator<char> > const *>
PUBLIC	??$_Find_unchecked@PBV?$basic_string@DU?$char_traits@D@std@@V?$allocator@D@2@@std@@V12@@std@@YAPBV?$basic_string@DU?$char_traits@D@std@@V?$allocator@D@2@@0@PBV10@QBV10@ABV10@@Z ; std::_Find_unchecked<std::basic_string<char,std::char_traits<char>,std::allocator<char> > const *,std::basic_string<char,std::char_traits<char>,std::allocator<char> > >
PUBLIC	??$_Adl_verify_range@V?$_Vector_const_iterator@V?$_Vector_val@U?$_Simple_types@V?$basic_string@DU?$char_traits@D@std@@V?$allocator@D@2@@std@@@std@@@std@@@std@@V12@@std@@YAXABV?$_Vector_const_iterator@V?$_Vector_val@U?$_Simple_types@V?$basic_string@DU?$char_traits@D@std@@V?$allocator@D@2@@std@@@std@@@std@@@0@0@Z ; std::_Adl_verify_range<std::_Vector_const_iterator<std::_Vector_val<std::_Simple_types<std::basic_string<char,std::char_traits<char>,std::allocator<char> > > > >,std::_Vector_const_iterator<std::_Vector_val<std::_Simple_types<std::basic_string<char,std::char_traits<char>,std::allocator<char> > > > > >
PUBLIC	??$emplace@U?$pair@KUSReserveTargetEffect@CPythonBackground@@@std@@@?$_Tree@V?$_Tmap_traits@KUSReserveTargetEffect@CPythonBackground@@U?$less@K@std@@V?$allocator@U?$pair@$$CBKUSReserveTargetEffect@CPythonBackground@@@std@@@4@$0A@@std@@@std@@QAE?AU?$pair@V?$_Tree_iterator@V?$_Tree_val@U?$_Tree_simple_types@U?$pair@$$CBKUSReserveTargetEffect@CPythonBackground@@@std@@@std@@@std@@@std@@_N@1@$$QAU?$pair@KUSReserveTargetEffect@CPythonBackground@@@1@@Z ; std::_Tree<std::_Tmap_traits<unsigned long,CPythonBackground::SReserveTargetEffect,std::less<unsigned long>,std::allocator<std::pair<unsigned long const ,CPythonBackground::SReserveTargetEffect> >,0> >::emplace<std::pair<unsigned long,CPythonBackground::SReserveTargetEffect> >
PUBLIC	??$forward@U?$pair@KUSReserveTargetEffect@CPythonBackground@@@std@@@std@@YA$$QAU?$pair@KUSReserveTargetEffect@CPythonBackground@@@0@AAU10@@Z ; std::forward<std::pair<unsigned long,CPythonBackground::SReserveTargetEffect> >
PUBLIC	??$?0AAKAAUSReserveTargetEffect@CPythonBackground@@$0A@@?$pair@KUSReserveTargetEffect@CPythonBackground@@@std@@QAE@AAKAAUSReserveTargetEffect@CPythonBackground@@@Z ; std::pair<unsigned long,CPythonBackground::SReserveTargetEffect>::pair<unsigned long,CPythonBackground::SReserveTargetEffect><unsigned long &,CPythonBackground::SReserveTargetEffect &,0>
PUBLIC	??$forward@AAUSReserveTargetEffect@CPythonBackground@@@std@@YAAAUSReserveTargetEffect@CPythonBackground@@AAU12@@Z ; std::forward<CPythonBackground::SReserveTargetEffect &>
PUBLIC	??$_Seek_wrapped@V?$_Vector_iterator@V?$_Vector_val@U?$_Simple_types@UTMapInfo@CMapManager@@@std@@@std@@@std@@AAPAUTMapInfo@CMapManager@@@std@@YAXAAV?$_Vector_iterator@V?$_Vector_val@U?$_Simple_types@UTMapInfo@CMapManager@@@std@@@std@@@0@AAPAUTMapInfo@CMapManager@@@Z ; std::_Seek_wrapped<std::_Vector_iterator<std::_Vector_val<std::_Simple_types<CMapManager::TMapInfo> > >,CMapManager::TMapInfo * &>
PUBLIC	??$_Unfancy_maybe_null@UTMapInfo@CMapManager@@@std@@YAPAUTMapInfo@CMapManager@@PAU12@@Z ; std::_Unfancy_maybe_null<CMapManager::TMapInfo>
PUBLIC	??$_Adl_verify_range@V?$_Vector_iterator@V?$_Vector_val@U?$_Simple_types@UTMapInfo@CMapManager@@@std@@@std@@@std@@V12@@std@@YAXABV?$_Vector_iterator@V?$_Vector_val@U?$_Simple_types@UTMapInfo@CMapManager@@@std@@@std@@@0@0@Z ; std::_Adl_verify_range<std::_Vector_iterator<std::_Vector_val<std::_Simple_types<CMapManager::TMapInfo> > >,std::_Vector_iterator<std::_Vector_val<std::_Simple_types<CMapManager::TMapInfo> > > >
PUBLIC	??$?0V?$_Tree_const_iterator@V?$_Tree_val@U?$_Tree_simple_types@V?$basic_string@DU?$char_traits@D@std@@V?$allocator@D@2@@std@@@std@@@std@@@std@@AB_N$0A@@?$pair@V?$_Tree_const_iterator@V?$_Tree_val@U?$_Tree_simple_types@V?$basic_string@DU?$char_traits@D@std@@V?$allocator@D@2@@std@@@std@@@std@@@std@@_N@std@@QAE@$$QAV?$_Tree_const_iterator@V?$_Tree_val@U?$_Tree_simple_types@V?$basic_string@DU?$char_traits@D@std@@V?$allocator@D@2@@std@@@std@@@std@@@1@AB_N@Z ; std::pair<std::_Tree_const_iterator<std::_Tree_val<std::_Tree_simple_types<std::basic_string<char,std::char_traits<char>,std::allocator<char> > > > >,bool>::pair<std::_Tree_const_iterator<std::_Tree_val<std::_Tree_simple_types<std::basic_string<char,std::char_traits<char>,std::allocator<char> > > > >,bool><std::_Tree_const_iterator<std::_Tree_val<std::_Tree_simple_types<std::basic_string<char,std::char_traits<char>,std::allocator<char> > > > >,bool const &,0>
PUBLIC	??$_Emplace@V?$basic_string@DU?$char_traits@D@std@@V?$allocator@D@2@@std@@@?$_Tree@V?$_Tset_traits@V?$basic_string@DU?$char_traits@D@std@@V?$allocator@D@2@@std@@U?$less@V?$basic_string@DU?$char_traits@D@std@@V?$allocator@D@2@@std@@@2@V?$allocator@V?$basic_string@DU?$char_traits@D@std@@V?$allocator@D@2@@std@@@2@$0A@@std@@@std@@IAE?AU?$pair@PAU?$_Tree_node@V?$basic_string@DU?$char_traits@D@std@@V?$allocator@D@2@@std@@PAX@std@@_N@1@$$QAV?$basic_string@DU?$char_traits@D@std@@V?$allocator@D@2@@1@@Z ; std::_Tree<std::_Tset_traits<std::basic_string<char,std::char_traits<char>,std::allocator<char> >,std::less<std::basic_string<char,std::char_traits<char>,std::allocator<char> > >,std::allocator<std::basic_string<char,std::char_traits<char>,std::allocator<char> > >,0> >::_Emplace<std::basic_string<char,std::char_traits<char>,std::allocator<char> > >
PUBLIC	??$?0V?$_Tree_const_iterator@V?$_Tree_val@U?$_Tree_simple_types@H@std@@@std@@@std@@AB_N$0A@@?$pair@V?$_Tree_const_iterator@V?$_Tree_val@U?$_Tree_simple_types@H@std@@@std@@@std@@_N@std@@QAE@$$QAV?$_Tree_const_iterator@V?$_Tree_val@U?$_Tree_simple_types@H@std@@@std@@@1@AB_N@Z ; std::pair<std::_Tree_const_iterator<std::_Tree_val<std::_Tree_simple_types<int> > >,bool>::pair<std::_Tree_const_iterator<std::_Tree_val<std::_Tree_simple_types<int> > >,bool><std::_Tree_const_iterator<std::_Tree_val<std::_Tree_simple_types<int> > >,bool const &,0>
PUBLIC	??$_Emplace@ABH@?$_Tree@V?$_Tset_traits@HU?$less@H@std@@V?$allocator@H@2@$0A@@std@@@std@@IAE?AU?$pair@PAU?$_Tree_node@HPAX@std@@_N@1@ABH@Z ; std::_Tree<std::_Tset_traits<int,std::less<int>,std::allocator<int>,0> >::_Emplace<int const &>
PUBLIC	??$_Eqrange@K@?$_Tree@V?$_Tmap_traits@KKU?$less@K@std@@V?$allocator@U?$pair@$$CBKK@std@@@2@$0A@@std@@@std@@IBE?AU?$pair@PAU?$_Tree_node@U?$pair@$$CBKK@std@@PAX@std@@PAU12@@1@ABK@Z ; std::_Tree<std::_Tmap_traits<unsigned long,unsigned long,std::less<unsigned long>,std::allocator<std::pair<unsigned long const ,unsigned long> >,0> >::_Eqrange<unsigned long>
PUBLIC	??$_Eqrange@K@?$_Tree@V?$_Tmap_traits@KUSReserveTargetEffect@CPythonBackground@@U?$less@K@std@@V?$allocator@U?$pair@$$CBKUSReserveTargetEffect@CPythonBackground@@@std@@@4@$0A@@std@@@std@@IBE?AU?$pair@PAU?$_Tree_node@U?$pair@$$CBKUSReserveTargetEffect@CPythonBackground@@@std@@PAX@std@@PAU12@@1@ABK@Z ; std::_Tree<std::_Tmap_traits<unsigned long,CPythonBackground::SReserveTargetEffect,std::less<unsigned long>,std::allocator<std::pair<unsigned long const ,CPythonBackground::SReserveTargetEffect> >,0> >::_Eqrange<unsigned long>
PUBLIC	??0?$_Tree_const_iterator@V?$_Tree_val@U?$_Tree_simple_types@U?$pair@$$CBKUSReserveTargetEffect@CPythonBackground@@@std@@@std@@@std@@@std@@QAE@PAU?$_Tree_node@U?$pair@$$CBKUSReserveTargetEffect@CPythonBackground@@@std@@PAX@1@PBV?$_Tree_val@U?$_Tree_simple_types@U?$pair@$$CBKUSReserveTargetEffect@CPythonBackground@@@std@@@std@@@1@@Z ; std::_Tree_const_iterator<std::_Tree_val<std::_Tree_simple_types<std::pair<unsigned long const ,CPythonBackground::SReserveTargetEffect> > > >::_Tree_const_iterator<std::_Tree_val<std::_Tree_simple_types<std::pair<unsigned long const ,CPythonBackground::SReserveTargetEffect> > > >
PUBLIC	??_G?$CSingleton@VCPythonBackground@@@@UAEPAXI@Z ; CSingleton<CPythonBackground>::`scalar deleting destructor'
PUBLIC	??0?$_Tree_const_iterator@V?$_Tree_val@U?$_Tree_simple_types@V?$basic_string@DU?$char_traits@D@std@@V?$allocator@D@2@@std@@@std@@@std@@@std@@QAE@PAU?$_Tree_node@V?$basic_string@DU?$char_traits@D@std@@V?$allocator@D@2@@std@@PAX@1@PBV?$_Tree_val@U?$_Tree_simple_types@V?$basic_string@DU?$char_traits@D@std@@V?$allocator@D@2@@std@@@std@@@1@@Z ; std::_Tree_const_iterator<std::_Tree_val<std::_Tree_simple_types<std::basic_string<char,std::char_traits<char>,std::allocator<char> > > > >::_Tree_const_iterator<std::_Tree_val<std::_Tree_simple_types<std::basic_string<char,std::char_traits<char>,std::allocator<char> > > > >
PUBLIC	??0?$_Tree_iterator@V?$_Tree_val@U?$_Tree_simple_types@U?$pair@$$CBKUSReserveTargetEffect@CPythonBackground@@@std@@@std@@@std@@@std@@QAE@PAU?$_Tree_node@U?$pair@$$CBKUSReserveTargetEffect@CPythonBackground@@@std@@PAX@1@PBV?$_Tree_val@U?$_Tree_simple_types@U?$pair@$$CBKUSReserveTargetEffect@CPythonBackground@@@std@@@std@@@1@@Z ; std::_Tree_iterator<std::_Tree_val<std::_Tree_simple_types<std::pair<unsigned long const ,CPythonBackground::SReserveTargetEffect> > > >::_Tree_iterator<std::_Tree_val<std::_Tree_simple_types<std::pair<unsigned long const ,CPythonBackground::SReserveTargetEffect> > > >
PUBLIC	??0?$_Tree_const_iterator@V?$_Tree_val@U?$_Tree_simple_types@H@std@@@std@@@std@@QAE@PAU?$_Tree_node@HPAX@1@PBV?$_Tree_val@U?$_Tree_simple_types@H@std@@@1@@Z ; std::_Tree_const_iterator<std::_Tree_val<std::_Tree_simple_types<int> > >::_Tree_const_iterator<std::_Tree_val<std::_Tree_simple_types<int> > >
PUBLIC	?begin@?$vector@V?$basic_string@DU?$char_traits@D@std@@V?$allocator@D@2@@std@@V?$allocator@V?$basic_string@DU?$char_traits@D@std@@V?$allocator@D@2@@std@@@2@@std@@QBE?AV?$_Vector_const_iterator@V?$_Vector_val@U?$_Simple_types@V?$basic_string@DU?$char_traits@D@std@@V?$allocator@D@2@@std@@@std@@@std@@@2@XZ ; std::vector<std::basic_string<char,std::char_traits<char>,std::allocator<char> >,std::allocator<std::basic_string<char,std::char_traits<char>,std::allocator<char> > > >::begin
PUBLIC	?end@?$vector@V?$basic_string@DU?$char_traits@D@std@@V?$allocator@D@2@@std@@V?$allocator@V?$basic_string@DU?$char_traits@D@std@@V?$allocator@D@2@@std@@@2@@std@@QBE?AV?$_Vector_const_iterator@V?$_Vector_val@U?$_Simple_types@V?$basic_string@DU?$char_traits@D@std@@V?$allocator@D@2@@std@@@std@@@std@@@2@XZ ; std::vector<std::basic_string<char,std::char_traits<char>,std::allocator<char> >,std::allocator<std::basic_string<char,std::char_traits<char>,std::allocator<char> > > >::end
PUBLIC	??8?$_Vector_const_iterator@V?$_Vector_val@U?$_Simple_types@V?$basic_string@DU?$char_traits@D@std@@V?$allocator@D@2@@std@@@std@@@std@@@std@@QBE_NABV01@@Z ; std::_Vector_const_iterator<std::_Vector_val<std::_Simple_types<std::basic_string<char,std::char_traits<char>,std::allocator<char> > > > >::operator==
PUBLIC	??0?$set@V?$basic_string@DU?$char_traits@D@std@@V?$allocator@D@2@@std@@U?$less@V?$basic_string@DU?$char_traits@D@std@@V?$allocator@D@2@@std@@@2@V?$allocator@V?$basic_string@DU?$char_traits@D@std@@V?$allocator@D@2@@std@@@2@@std@@QAE@XZ ; std::set<std::basic_string<char,std::char_traits<char>,std::allocator<char> >,std::less<std::basic_string<char,std::char_traits<char>,std::allocator<char> > >,std::allocator<std::basic_string<char,std::char_traits<char>,std::allocator<char> > > >::set<std::basic_string<char,std::char_traits<char>,std::allocator<char> >,std::less<std::basic_string<char,std::char_traits<char>,std::allocator<char> > >,std::allocator<std::basic_string<char,std::char_traits<char>,std::allocator<char> > > >
PUBLIC	??0?$set@HU?$less@H@std@@V?$allocator@H@2@@std@@QAE@XZ ; std::set<int,std::less<int>,std::allocator<int> >::set<int,std::less<int>,std::allocator<int> >
PUBLIC	??4?$set@HU?$less@H@std@@V?$allocator@H@2@@std@@QAEAAV01@ABV01@@Z ; std::set<int,std::less<int>,std::allocator<int> >::operator=
PUBLIC	??1?$_Tree@V?$_Tset_traits@HU?$less@H@std@@V?$allocator@H@2@$0A@@std@@@std@@QAE@XZ ; std::_Tree<std::_Tset_traits<int,std::less<int>,std::allocator<int>,0> >::~_Tree<std::_Tset_traits<int,std::less<int>,std::allocator<int>,0> >
PUBLIC	?begin@?$_Tree@V?$_Tset_traits@HU?$less@H@std@@V?$allocator@H@2@$0A@@std@@@std@@QAE?AV?$_Tree_const_iterator@V?$_Tree_val@U?$_Tree_simple_types@H@std@@@std@@@2@XZ ; std::_Tree<std::_Tset_traits<int,std::less<int>,std::allocator<int>,0> >::begin
PUBLIC	?end@?$_Tree@V?$_Tset_traits@HU?$less@H@std@@V?$allocator@H@2@$0A@@std@@@std@@QAE?AV?$_Tree_const_iterator@V?$_Tree_val@U?$_Tree_simple_types@H@std@@@std@@@2@XZ ; std::_Tree<std::_Tset_traits<int,std::less<int>,std::allocator<int>,0> >::end
PUBLIC	?clear@?$_Tree@V?$_Tset_traits@HU?$less@H@std@@V?$allocator@H@2@$0A@@std@@@std@@QAEXXZ ; std::_Tree<std::_Tset_traits<int,std::less<int>,std::allocator<int>,0> >::clear
PUBLIC	?find@?$_Tree@V?$_Tset_traits@HU?$less@H@std@@V?$allocator@H@2@$0A@@std@@@std@@QAE?AV?$_Tree_const_iterator@V?$_Tree_val@U?$_Tree_simple_types@H@std@@@std@@@2@ABH@Z ; std::_Tree<std::_Tset_traits<int,std::less<int>,std::allocator<int>,0> >::find
PUBLIC	??D?$_Tree_const_iterator@V?$_Tree_val@U?$_Tree_simple_types@H@std@@@std@@@std@@QBEABHXZ ; std::_Tree_const_iterator<std::_Tree_val<std::_Tree_simple_types<int> > >::operator*
PUBLIC	??E?$_Tree_const_iterator@V?$_Tree_val@U?$_Tree_simple_types@H@std@@@std@@@std@@QAEAAV01@XZ ; std::_Tree_const_iterator<std::_Tree_val<std::_Tree_simple_types<int> > >::operator++
PUBLIC	??8?$_Tree_const_iterator@V?$_Tree_val@U?$_Tree_simple_types@H@std@@@std@@@std@@QBE_NABV01@@Z ; std::_Tree_const_iterator<std::_Tree_val<std::_Tree_simple_types<int> > >::operator==
PUBLIC	??0?$_Tree_unchecked_const_iterator@V?$_Tree_val@U?$_Tree_simple_types@H@std@@@std@@U_Iterator_base0@2@@std@@QAE@XZ ; std::_Tree_unchecked_const_iterator<std::_Tree_val<std::_Tree_simple_types<int> >,std::_Iterator_base0>::_Tree_unchecked_const_iterator<std::_Tree_val<std::_Tree_simple_types<int> >,std::_Iterator_base0>
PUBLIC	?begin@?$vector@UTMapInfo@CMapManager@@V?$allocator@UTMapInfo@CMapManager@@@std@@@std@@QAE?AV?$_Vector_iterator@V?$_Vector_val@U?$_Simple_types@UTMapInfo@CMapManager@@@std@@@std@@@2@XZ ; std::vector<CMapManager::TMapInfo,std::allocator<CMapManager::TMapInfo> >::begin
PUBLIC	??0?$_Vector_iterator@V?$_Vector_val@U?$_Simple_types@UTMapInfo@CMapManager@@@std@@@std@@@std@@QAE@PAUTMapInfo@CMapManager@@PBU_Container_base0@1@@Z ; std::_Vector_iterator<std::_Vector_val<std::_Simple_types<CMapManager::TMapInfo> > >::_Vector_iterator<std::_Vector_val<std::_Simple_types<CMapManager::TMapInfo> > >
PUBLIC	?end@?$vector@UTMapInfo@CMapManager@@V?$allocator@UTMapInfo@CMapManager@@@std@@@std@@QAE?AV?$_Vector_iterator@V?$_Vector_val@U?$_Simple_types@UTMapInfo@CMapManager@@@std@@@std@@@2@XZ ; std::vector<CMapManager::TMapInfo,std::allocator<CMapManager::TMapInfo> >::end
PUBLIC	??D?$_Vector_iterator@V?$_Vector_val@U?$_Simple_types@UTMapInfo@CMapManager@@@std@@@std@@@std@@QBEAAUTMapInfo@CMapManager@@XZ ; std::_Vector_iterator<std::_Vector_val<std::_Simple_types<CMapManager::TMapInfo> > >::operator*
PUBLIC	??8?$_Vector_const_iterator@V?$_Vector_val@U?$_Simple_types@UTMapInfo@CMapManager@@@std@@@std@@@std@@QBE_NABV01@@Z ; std::_Vector_const_iterator<std::_Vector_val<std::_Simple_types<CMapManager::TMapInfo> > >::operator==
PUBLIC	??0?$CSingleton@VCPythonBackground@@@@QAE@XZ	; CSingleton<CPythonBackground>::CSingleton<CPythonBackground>
PUBLIC	??1?$CSingleton@VCPythonBackground@@@@UAE@XZ	; CSingleton<CPythonBackground>::~CSingleton<CPythonBackground>
PUBLIC	??1?$_Tree@V?$_Tset_traits@V?$basic_string@DU?$char_traits@D@std@@V?$allocator@D@2@@std@@U?$less@V?$basic_string@DU?$char_traits@D@std@@V?$allocator@D@2@@std@@@2@V?$allocator@V?$basic_string@DU?$char_traits@D@std@@V?$allocator@D@2@@std@@@2@$0A@@std@@@std@@QAE@XZ ; std::_Tree<std::_Tset_traits<std::basic_string<char,std::char_traits<char>,std::allocator<char> >,std::less<std::basic_string<char,std::char_traits<char>,std::allocator<char> > >,std::allocator<std::basic_string<char,std::char_traits<char>,std::allocator<char> > >,0> >::~_Tree<std::_Tset_traits<std::basic_string<char,std::char_traits<char>,std::allocator<char> >,std::less<std::basic_string<char,std::char_traits<char>,std::allocator<char> > >,std::allocator<std::basic_string<char,std::char_traits<char>,std::allocator<char> > >,0> >
PUBLIC	?end@?$_Tree@V?$_Tset_traits@V?$basic_string@DU?$char_traits@D@std@@V?$allocator@D@2@@std@@U?$less@V?$basic_string@DU?$char_traits@D@std@@V?$allocator@D@2@@std@@@2@V?$allocator@V?$basic_string@DU?$char_traits@D@std@@V?$allocator@D@2@@std@@@2@$0A@@std@@@std@@QAE?AV?$_Tree_const_iterator@V?$_Tree_val@U?$_Tree_simple_types@V?$basic_string@DU?$char_traits@D@std@@V?$allocator@D@2@@std@@@std@@@std@@@2@XZ ; std::_Tree<std::_Tset_traits<std::basic_string<char,std::char_traits<char>,std::allocator<char> >,std::less<std::basic_string<char,std::char_traits<char>,std::allocator<char> > >,std::allocator<std::basic_string<char,std::char_traits<char>,std::allocator<char> > >,0> >::end
PUBLIC	?find@?$_Tree@V?$_Tset_traits@V?$basic_string@DU?$char_traits@D@std@@V?$allocator@D@2@@std@@U?$less@V?$basic_string@DU?$char_traits@D@std@@V?$allocator@D@2@@std@@@2@V?$allocator@V?$basic_string@DU?$char_traits@D@std@@V?$allocator@D@2@@std@@@2@$0A@@std@@@std@@QAE?AV?$_Tree_const_iterator@V?$_Tree_val@U?$_Tree_simple_types@V?$basic_string@DU?$char_traits@D@std@@V?$allocator@D@2@@std@@@std@@@std@@@2@ABV?$basic_string@DU?$char_traits@D@std@@V?$allocator@D@2@@2@@Z ; std::_Tree<std::_Tset_traits<std::basic_string<char,std::char_traits<char>,std::allocator<char> >,std::less<std::basic_string<char,std::char_traits<char>,std::allocator<char> > >,std::allocator<std::basic_string<char,std::char_traits<char>,std::allocator<char> > >,0> >::find
PUBLIC	??8?$_Tree_const_iterator@V?$_Tree_val@U?$_Tree_simple_types@V?$basic_string@DU?$char_traits@D@std@@V?$allocator@D@2@@std@@@std@@@std@@@std@@QBE_NABV01@@Z ; std::_Tree_const_iterator<std::_Tree_val<std::_Tree_simple_types<std::basic_string<char,std::char_traits<char>,std::allocator<char> > > > >::operator==
PUBLIC	?erase@?$_Tree@V?$_Tmap_traits@KKU?$less@K@std@@V?$allocator@U?$pair@$$CBKK@std@@@2@$0A@@std@@@std@@QAEIABK@Z ; std::_Tree<std::_Tmap_traits<unsigned long,unsigned long,std::less<unsigned long>,std::allocator<std::pair<unsigned long const ,unsigned long> >,0> >::erase
PUBLIC	??0?$map@KUSReserveTargetEffect@CPythonBackground@@U?$less@K@std@@V?$allocator@U?$pair@$$CBKUSReserveTargetEffect@CPythonBackground@@@std@@@4@@std@@QAE@XZ ; std::map<unsigned long,CPythonBackground::SReserveTargetEffect,std::less<unsigned long>,std::allocator<std::pair<unsigned long const ,CPythonBackground::SReserveTargetEffect> > >::map<unsigned long,CPythonBackground::SReserveTargetEffect,std::less<unsigned long>,std::allocator<std::pair<unsigned long const ,CPythonBackground::SReserveTargetEffect> > >
PUBLIC	??1?$_Tree@V?$_Tmap_traits@KUSReserveTargetEffect@CPythonBackground@@U?$less@K@std@@V?$allocator@U?$pair@$$CBKUSReserveTargetEffect@CPythonBackground@@@std@@@4@$0A@@std@@@std@@QAE@XZ ; std::_Tree<std::_Tmap_traits<unsigned long,CPythonBackground::SReserveTargetEffect,std::less<unsigned long>,std::allocator<std::pair<unsigned long const ,CPythonBackground::SReserveTargetEffect> >,0> >::~_Tree<std::_Tmap_traits<unsigned long,CPythonBackground::SReserveTargetEffect,std::less<unsigned long>,std::allocator<std::pair<unsigned long const ,CPythonBackground::SReserveTargetEffect> >,0> >
PUBLIC	?begin@?$_Tree@V?$_Tmap_traits@KUSReserveTargetEffect@CPythonBackground@@U?$less@K@std@@V?$allocator@U?$pair@$$CBKUSReserveTargetEffect@CPythonBackground@@@std@@@4@$0A@@std@@@std@@QAE?AV?$_Tree_iterator@V?$_Tree_val@U?$_Tree_simple_types@U?$pair@$$CBKUSReserveTargetEffect@CPythonBackground@@@std@@@std@@@std@@@2@XZ ; std::_Tree<std::_Tmap_traits<unsigned long,CPythonBackground::SReserveTargetEffect,std::less<unsigned long>,std::allocator<std::pair<unsigned long const ,CPythonBackground::SReserveTargetEffect> >,0> >::begin
PUBLIC	?end@?$_Tree@V?$_Tmap_traits@KUSReserveTargetEffect@CPythonBackground@@U?$less@K@std@@V?$allocator@U?$pair@$$CBKUSReserveTargetEffect@CPythonBackground@@@std@@@4@$0A@@std@@@std@@QAE?AV?$_Tree_iterator@V?$_Tree_val@U?$_Tree_simple_types@U?$pair@$$CBKUSReserveTargetEffect@CPythonBackground@@@std@@@std@@@std@@@2@XZ ; std::_Tree<std::_Tmap_traits<unsigned long,CPythonBackground::SReserveTargetEffect,std::less<unsigned long>,std::allocator<std::pair<unsigned long const ,CPythonBackground::SReserveTargetEffect> >,0> >::end
PUBLIC	?erase@?$_Tree@V?$_Tmap_traits@KUSReserveTargetEffect@CPythonBackground@@U?$less@K@std@@V?$allocator@U?$pair@$$CBKUSReserveTargetEffect@CPythonBackground@@@std@@@4@$0A@@std@@@std@@QAEIABK@Z ; std::_Tree<std::_Tmap_traits<unsigned long,CPythonBackground::SReserveTargetEffect,std::less<unsigned long>,std::allocator<std::pair<unsigned long const ,CPythonBackground::SReserveTargetEffect> >,0> >::erase
PUBLIC	?clear@?$_Tree@V?$_Tmap_traits@KUSReserveTargetEffect@CPythonBackground@@U?$less@K@std@@V?$allocator@U?$pair@$$CBKUSReserveTargetEffect@CPythonBackground@@@std@@@4@$0A@@std@@@std@@QAEXXZ ; std::_Tree<std::_Tmap_traits<unsigned long,CPythonBackground::SReserveTargetEffect,std::less<unsigned long>,std::allocator<std::pair<unsigned long const ,CPythonBackground::SReserveTargetEffect> >,0> >::clear
PUBLIC	?find@?$_Tree@V?$_Tmap_traits@KUSReserveTargetEffect@CPythonBackground@@U?$less@K@std@@V?$allocator@U?$pair@$$CBKUSReserveTargetEffect@CPythonBackground@@@std@@@4@$0A@@std@@@std@@QAE?AV?$_Tree_iterator@V?$_Tree_val@U?$_Tree_simple_types@U?$pair@$$CBKUSReserveTargetEffect@CPythonBackground@@@std@@@std@@@std@@@2@ABK@Z ; std::_Tree<std::_Tmap_traits<unsigned long,CPythonBackground::SReserveTargetEffect,std::less<unsigned long>,std::allocator<std::pair<unsigned long const ,CPythonBackground::SReserveTargetEffect> >,0> >::find
PUBLIC	??8?$_Tree_const_iterator@V?$_Tree_val@U?$_Tree_simple_types@U?$pair@$$CBKUSReserveTargetEffect@CPythonBackground@@@std@@@std@@@std@@@std@@QBE_NABV01@@Z ; std::_Tree_const_iterator<std::_Tree_val<std::_Tree_simple_types<std::pair<unsigned long const ,CPythonBackground::SReserveTargetEffect> > > >::operator==
PUBLIC	??C?$_Tree_iterator@V?$_Tree_val@U?$_Tree_simple_types@U?$pair@$$CBKUSReserveTargetEffect@CPythonBackground@@@std@@@std@@@std@@@std@@QBEPAU?$pair@$$CBKUSReserveTargetEffect@CPythonBackground@@@1@XZ ; std::_Tree_iterator<std::_Tree_val<std::_Tree_simple_types<std::pair<unsigned long const ,CPythonBackground::SReserveTargetEffect> > > >::operator->
PUBLIC	??E?$_Tree_iterator@V?$_Tree_val@U?$_Tree_simple_types@U?$pair@$$CBKUSReserveTargetEffect@CPythonBackground@@@std@@@std@@@std@@@std@@QAEAAV01@XZ ; std::_Tree_iterator<std::_Tree_val<std::_Tree_simple_types<std::pair<unsigned long const ,CPythonBackground::SReserveTargetEffect> > > >::operator++
PUBLIC	?Instance@?$CSingleton@VCPythonMiniMap@@@@SAAAVCPythonMiniMap@@XZ ; CSingleton<CPythonMiniMap>::Instance
PUBLIC	??$_Get_unwrapped@ABV?$_Vector_const_iterator@V?$_Vector_val@U?$_Simple_types@V?$basic_string@DU?$char_traits@D@std@@V?$allocator@D@2@@std@@@std@@@std@@@std@@@std@@YA?A_TABV?$_Vector_const_iterator@V?$_Vector_val@U?$_Simple_types@V?$basic_string@DU?$char_traits@D@std@@V?$allocator@D@2@@std@@@std@@@std@@@0@@Z ; std::_Get_unwrapped<std::_Vector_const_iterator<std::_Vector_val<std::_Simple_types<std::basic_string<char,std::char_traits<char>,std::allocator<char> > > > > const &>
PUBLIC	??$_Get_unwrapped@AAV?$_Vector_const_iterator@V?$_Vector_val@U?$_Simple_types@V?$basic_string@DU?$char_traits@D@std@@V?$allocator@D@2@@std@@@std@@@std@@@std@@@std@@YA?A_TAAV?$_Vector_const_iterator@V?$_Vector_val@U?$_Simple_types@V?$basic_string@DU?$char_traits@D@std@@V?$allocator@D@2@@std@@@std@@@std@@@0@@Z ; std::_Get_unwrapped<std::_Vector_const_iterator<std::_Vector_val<std::_Simple_types<std::basic_string<char,std::char_traits<char>,std::allocator<char> > > > > &>
PUBLIC	??$find@V?$_Vector_const_iterator@V?$_Vector_val@U?$_Simple_types@V?$basic_string@DU?$char_traits@D@std@@V?$allocator@D@2@@std@@@std@@@std@@@std@@V?$basic_string@DU?$char_traits@D@std@@V?$allocator@D@2@@2@@std@@YA?AV?$_Vector_const_iterator@V?$_Vector_val@U?$_Simple_types@V?$basic_string@DU?$char_traits@D@std@@V?$allocator@D@2@@std@@@std@@@std@@@0@V10@V10@ABV?$basic_string@DU?$char_traits@D@std@@V?$allocator@D@2@@0@@Z ; std::find<std::_Vector_const_iterator<std::_Vector_val<std::_Simple_types<std::basic_string<char,std::char_traits<char>,std::allocator<char> > > > >,std::basic_string<char,std::char_traits<char>,std::allocator<char> > >
PUBLIC	??$insert@U?$pair@KUSReserveTargetEffect@CPythonBackground@@@std@@$0A@@?$map@KUSReserveTargetEffect@CPythonBackground@@U?$less@K@std@@V?$allocator@U?$pair@$$CBKUSReserveTargetEffect@CPythonBackground@@@std@@@4@@std@@QAE?AU?$pair@V?$_Tree_iterator@V?$_Tree_val@U?$_Tree_simple_types@U?$pair@$$CBKUSReserveTargetEffect@CPythonBackground@@@std@@@std@@@std@@@std@@_N@1@$$QAU?$pair@KUSReserveTargetEffect@CPythonBackground@@@1@@Z ; std::map<unsigned long,CPythonBackground::SReserveTargetEffect,std::less<unsigned long>,std::allocator<std::pair<unsigned long const ,CPythonBackground::SReserveTargetEffect> > >::insert<std::pair<unsigned long,CPythonBackground::SReserveTargetEffect>,0>
PUBLIC	??$make_pair@AAKAAUSReserveTargetEffect@CPythonBackground@@@std@@YA?AU?$pair@KUSReserveTargetEffect@CPythonBackground@@@0@AAKAAUSReserveTargetEffect@CPythonBackground@@@Z ; std::make_pair<unsigned long &,CPythonBackground::SReserveTargetEffect &>
PUBLIC	??$?8DU?$char_traits@D@std@@V?$allocator@D@1@@std@@YA_NABV?$basic_string@DU?$char_traits@D@std@@V?$allocator@D@2@@0@QBD@Z ; std::operator==<char,std::char_traits<char>,std::allocator<char> >
PUBLIC	?_Unwrapped@?$_Vector_iterator@V?$_Vector_val@U?$_Simple_types@UTMapInfo@CMapManager@@@std@@@std@@@std@@QBEPAUTMapInfo@CMapManager@@XZ ; std::_Vector_iterator<std::_Vector_val<std::_Simple_types<CMapManager::TMapInfo> > >::_Unwrapped
PUBLIC	??$_Get_unwrapped@ABV?$_Vector_iterator@V?$_Vector_val@U?$_Simple_types@UTMapInfo@CMapManager@@@std@@@std@@@std@@@std@@YA?A_TABV?$_Vector_iterator@V?$_Vector_val@U?$_Simple_types@UTMapInfo@CMapManager@@@std@@@std@@@0@@Z ; std::_Get_unwrapped<std::_Vector_iterator<std::_Vector_val<std::_Simple_types<CMapManager::TMapInfo> > > const &>
PUBLIC	??$_Get_unwrapped@AAV?$_Vector_iterator@V?$_Vector_val@U?$_Simple_types@UTMapInfo@CMapManager@@@std@@@std@@@std@@@std@@YA?A_TAAV?$_Vector_iterator@V?$_Vector_val@U?$_Simple_types@UTMapInfo@CMapManager@@@std@@@std@@@0@@Z ; std::_Get_unwrapped<std::_Vector_iterator<std::_Vector_val<std::_Simple_types<CMapManager::TMapInfo> > > &>
PUBLIC	??$find_if@V?$_Vector_iterator@V?$_Vector_val@U?$_Simple_types@UTMapInfo@CMapManager@@@std@@@std@@@std@@UFFindWarpMapName@CPythonBackground@@@std@@YA?AV?$_Vector_iterator@V?$_Vector_val@U?$_Simple_types@UTMapInfo@CMapManager@@@std@@@std@@@0@V10@V10@UFFindWarpMapName@CPythonBackground@@@Z ; std::find_if<std::_Vector_iterator<std::_Vector_val<std::_Simple_types<CMapManager::TMapInfo> > >,CPythonBackground::FFindWarpMapName>
PUBLIC	??$insert@$0A@$0A@@?$_Tree@V?$_Tset_traits@V?$basic_string@DU?$char_traits@D@std@@V?$allocator@D@2@@std@@U?$less@V?$basic_string@DU?$char_traits@D@std@@V?$allocator@D@2@@std@@@2@V?$allocator@V?$basic_string@DU?$char_traits@D@std@@V?$allocator@D@2@@std@@@2@$0A@@std@@@std@@QAE?AU?$pair@V?$_Tree_const_iterator@V?$_Tree_val@U?$_Tree_simple_types@V?$basic_string@DU?$char_traits@D@std@@V?$allocator@D@2@@std@@@std@@@std@@@std@@_N@1@$$QAV?$basic_string@DU?$char_traits@D@std@@V?$allocator@D@2@@1@@Z ; std::_Tree<std::_Tset_traits<std::basic_string<char,std::char_traits<char>,std::allocator<char> >,std::less<std::basic_string<char,std::char_traits<char>,std::allocator<char> > >,std::allocator<std::basic_string<char,std::char_traits<char>,std::allocator<char> > >,0> >::insert<0,0>
PUBLIC	??$ForInRange@UCollisionChecker@@@CCullingManager@@QAEXABVVector3d@@MPAUCollisionChecker@@@Z ; CCullingManager::ForInRange<CollisionChecker>
PUBLIC	??$ForInRange@UCollisionAdjustChecker@@@CCullingManager@@QAEXABVVector3d@@MPAUCollisionAdjustChecker@@@Z ; CCullingManager::ForInRange<CollisionAdjustChecker>
PUBLIC	??$erase@V?$_Tree_iterator@V?$_Tree_val@U?$_Tree_simple_types@U?$pair@$$CBKUSReserveTargetEffect@CPythonBackground@@@std@@@std@@@std@@@std@@$0A@@?$_Tree@V?$_Tmap_traits@KUSReserveTargetEffect@CPythonBackground@@U?$less@K@std@@V?$allocator@U?$pair@$$CBKUSReserveTargetEffect@CPythonBackground@@@std@@@4@$0A@@std@@@std@@QAE?AV?$_Tree_iterator@V?$_Tree_val@U?$_Tree_simple_types@U?$pair@$$CBKUSReserveTargetEffect@CPythonBackground@@@std@@@std@@@std@@@1@V21@@Z ; std::_Tree<std::_Tmap_traits<unsigned long,CPythonBackground::SReserveTargetEffect,std::less<unsigned long>,std::allocator<std::pair<unsigned long const ,CPythonBackground::SReserveTargetEffect> >,0> >::erase<std::_Tree_iterator<std::_Tree_val<std::_Tree_simple_types<std::pair<unsigned long const ,CPythonBackground::SReserveTargetEffect> > > >,0>
PUBLIC	??$ForInRay@UFGetPortalID@@@CCullingManager@@QAEXABVVector3d@@0PAUFGetPortalID@@@Z ; CCullingManager::ForInRay<FGetPortalID>
PUBLIC	??$insert@$0A@$0A@@?$_Tree@V?$_Tset_traits@HU?$less@H@std@@V?$allocator@H@2@$0A@@std@@@std@@QAE?AU?$pair@V?$_Tree_const_iterator@V?$_Tree_val@U?$_Tree_simple_types@H@std@@@std@@@std@@_N@1@ABH@Z ; std::_Tree<std::_Tset_traits<int,std::less<int>,std::allocator<int>,0> >::insert<0,0>
PUBLIC	?DeleteSpecialShopPosEffect@CPythonBackground@@QAEXXZ ; CPythonBackground::DeleteSpecialShopPosEffect
PUBLIC	?CreateSpecialShopPosEffect@CPythonBackground@@QAEXKMMMPBD@Z ; CPythonBackground::CreateSpecialShopPosEffect
PUBLIC	?GetNightModeOption@CPythonBackground@@QBE_NXZ	; CPythonBackground::GetNightModeOption
PUBLIC	?SetNightModeOption@CPythonBackground@@QAEX_N@Z	; CPythonBackground::SetNightModeOption
PUBLIC	??$construct@V?$basic_string@DU?$char_traits@D@std@@V?$allocator@D@2@@std@@ABV12@@?$_Default_allocator_traits@V?$allocator@V?$basic_string@DU?$char_traits@D@std@@V?$allocator@D@2@@std@@@std@@@std@@SAXAAV?$allocator@V?$basic_string@DU?$char_traits@D@std@@V?$allocator@D@2@@std@@@1@QAV?$basic_string@DU?$char_traits@D@std@@V?$allocator@D@2@@1@ABV31@@Z ; std::_Default_allocator_traits<std::allocator<std::basic_string<char,std::char_traits<char>,std::allocator<char> > > >::construct<std::basic_string<char,std::char_traits<char>,std::allocator<char> >,std::basic_string<char,std::char_traits<char>,std::allocator<char> > const &>
PUBLIC	??$_Emplace_back@ABV?$basic_string@DU?$char_traits@D@std@@V?$allocator@D@2@@std@@@?$_Uninitialized_backout_al@V?$allocator@V?$basic_string@DU?$char_traits@D@std@@V?$allocator@D@2@@std@@@std@@@std@@QAEXABV?$basic_string@DU?$char_traits@D@std@@V?$allocator@D@2@@1@@Z ; std::_Uninitialized_backout_al<std::allocator<std::basic_string<char,std::char_traits<char>,std::allocator<char> > > >::_Emplace_back<std::basic_string<char,std::char_traits<char>,std::allocator<char> > const &>
PUBLIC	??$move@AAPBV?$basic_string@DU?$char_traits@D@std@@V?$allocator@D@2@@std@@@std@@YA$$QAPBV?$basic_string@DU?$char_traits@D@std@@V?$allocator@D@2@@0@AAPBV10@@Z ; std::move<std::basic_string<char,std::char_traits<char>,std::allocator<char> > const * &>
PUBLIC	??$_Uninitialized_copy@PBV?$basic_string@DU?$char_traits@D@std@@V?$allocator@D@2@@std@@PBV12@V?$allocator@V?$basic_string@DU?$char_traits@D@std@@V?$allocator@D@2@@std@@@2@@std@@YAPAV?$basic_string@DU?$char_traits@D@std@@V?$allocator@D@2@@0@PBV10@0PAV10@AAV?$allocator@V?$basic_string@DU?$char_traits@D@std@@V?$allocator@D@2@@std@@@0@@Z ; std::_Uninitialized_copy<std::basic_string<char,std::char_traits<char>,std::allocator<char> > const *,std::basic_string<char,std::char_traits<char>,std::allocator<char> > const *,std::allocator<std::basic_string<char,std::char_traits<char>,std::allocator<char> > > >
PUBLIC	??$_Unwrap_sent@PBV?$basic_string@DU?$char_traits@D@std@@V?$allocator@D@2@@std@@PBV12@@ranges@std@@YA?A_T$$QAPBV?$basic_string@DU?$char_traits@D@std@@V?$allocator@D@2@@1@@Z ; std::ranges::_Unwrap_sent<std::basic_string<char,std::char_traits<char>,std::allocator<char> > const *,std::basic_string<char,std::char_traits<char>,std::allocator<char> > const *>
PUBLIC	??$_Unwrap_iter@PBV?$basic_string@DU?$char_traits@D@std@@V?$allocator@D@2@@std@@PBV12@@ranges@std@@YA?A_T$$QAPBV?$basic_string@DU?$char_traits@D@std@@V?$allocator@D@2@@1@@Z ; std::ranges::_Unwrap_iter<std::basic_string<char,std::char_traits<char>,std::allocator<char> > const *,std::basic_string<char,std::char_traits<char>,std::allocator<char> > const *>
PUBLIC	??$forward@PBV?$basic_string@DU?$char_traits@D@std@@V?$allocator@D@2@@std@@@std@@YA$$QAPBV?$basic_string@DU?$char_traits@D@std@@V?$allocator@D@2@@0@AAPBV10@@Z ; std::forward<std::basic_string<char,std::char_traits<char>,std::allocator<char> > const *>
PUBLIC	??$_Construct_n@PBV?$basic_string@DU?$char_traits@D@std@@V?$allocator@D@2@@std@@PBV12@@?$vector@V?$basic_string@DU?$char_traits@D@std@@V?$allocator@D@2@@std@@V?$allocator@V?$basic_string@DU?$char_traits@D@std@@V?$allocator@D@2@@std@@@2@@std@@AAEXI$$QAPBV?$basic_string@DU?$char_traits@D@std@@V?$allocator@D@2@@1@0@Z ; std::vector<std::basic_string<char,std::char_traits<char>,std::allocator<char> >,std::allocator<std::basic_string<char,std::char_traits<char>,std::allocator<char> > > >::_Construct_n<std::basic_string<char,std::char_traits<char>,std::allocator<char> > const *,std::basic_string<char,std::char_traits<char>,std::allocator<char> > const *>
PUBLIC	?end@?$initializer_list@V?$basic_string@DU?$char_traits@D@std@@V?$allocator@D@2@@std@@@std@@QBEPBV?$basic_string@DU?$char_traits@D@std@@V?$allocator@D@2@@2@XZ ; std::initializer_list<std::basic_string<char,std::char_traits<char>,std::allocator<char> > >::end
PUBLIC	?begin@?$initializer_list@V?$basic_string@DU?$char_traits@D@std@@V?$allocator@D@2@@std@@@std@@QBEPBV?$basic_string@DU?$char_traits@D@std@@V?$allocator@D@2@@2@XZ ; std::initializer_list<std::basic_string<char,std::char_traits<char>,std::allocator<char> > >::begin
PUBLIC	?size@?$initializer_list@V?$basic_string@DU?$char_traits@D@std@@V?$allocator@D@2@@std@@@std@@QBEIXZ ; std::initializer_list<std::basic_string<char,std::char_traits<char>,std::allocator<char> > >::size
PUBLIC	??$forward@ABV?$allocator@V?$basic_string@DU?$char_traits@D@std@@V?$allocator@D@2@@std@@@std@@@std@@YAABV?$allocator@V?$basic_string@DU?$char_traits@D@std@@V?$allocator@D@2@@std@@@0@ABV10@@Z ; std::forward<std::allocator<std::basic_string<char,std::char_traits<char>,std::allocator<char> > > const &>
PUBLIC	??$?0ABV?$allocator@V?$basic_string@DU?$char_traits@D@std@@V?$allocator@D@2@@std@@@std@@$$V@?$_Compressed_pair@V?$allocator@V?$basic_string@DU?$char_traits@D@std@@V?$allocator@D@2@@std@@@std@@V?$_Vector_val@U?$_Simple_types@V?$basic_string@DU?$char_traits@D@std@@V?$allocator@D@2@@std@@@std@@@2@$00@std@@QAE@U_One_then_variadic_args_t@1@ABV?$allocator@V?$basic_string@DU?$char_traits@D@std@@V?$allocator@D@2@@std@@@1@@Z ; std::_Compressed_pair<std::allocator<std::basic_string<char,std::char_traits<char>,std::allocator<char> > >,std::_Vector_val<std::_Simple_types<std::basic_string<char,std::char_traits<char>,std::allocator<char> > > >,1>::_Compressed_pair<std::allocator<std::basic_string<char,std::char_traits<char>,std::allocator<char> > >,std::_Vector_val<std::_Simple_types<std::basic_string<char,std::char_traits<char>,std::allocator<char> > > >,1><std::allocator<std::basic_string<char,std::char_traits<char>,std::allocator<char> > > const &>
PUBLIC	??0?$vector@V?$basic_string@DU?$char_traits@D@std@@V?$allocator@D@2@@std@@V?$allocator@V?$basic_string@DU?$char_traits@D@std@@V?$allocator@D@2@@std@@@2@@std@@QAE@V?$initializer_list@V?$basic_string@DU?$char_traits@D@std@@V?$allocator@D@2@@std@@@1@ABV?$allocator@V?$basic_string@DU?$char_traits@D@std@@V?$allocator@D@2@@std@@@1@@Z ; std::vector<std::basic_string<char,std::char_traits<char>,std::allocator<char> >,std::allocator<std::basic_string<char,std::char_traits<char>,std::allocator<char> > > >::vector<std::basic_string<char,std::char_traits<char>,std::allocator<char> >,std::allocator<std::basic_string<char,std::char_traits<char>,std::allocator<char> > > >
PUBLIC	??0?$initializer_list@V?$basic_string@DU?$char_traits@D@std@@V?$allocator@D@2@@std@@@std@@QAE@PBV?$basic_string@DU?$char_traits@D@std@@V?$allocator@D@2@@1@0@Z ; std::initializer_list<std::basic_string<char,std::char_traits<char>,std::allocator<char> > >::initializer_list<std::basic_string<char,std::char_traits<char>,std::allocator<char> > >
PUBLIC	?IsBoomMap@CPythonBackground@@QBE_NABV?$basic_string@DU?$char_traits@D@std@@V?$allocator@D@2@@std@@@Z ; CPythonBackground::IsBoomMap
PUBLIC	?DeleteSpecialEffect@CPythonBackground@@QAEXK@Z	; CPythonBackground::DeleteSpecialEffect
PUBLIC	?CreateSpecialEffect@CPythonBackground@@QAEXKMMMPBD@Z ; CPythonBackground::CreateSpecialEffect
PUBLIC	?DeleteTargetEffect@CPythonBackground@@QAEXK@Z	; CPythonBackground::DeleteTargetEffect
PUBLIC	?CreateTargetEffect@CPythonBackground@@QAEXKJJ@Z ; CPythonBackground::CreateTargetEffect
PUBLIC	?CreateTargetEffect@CPythonBackground@@QAEXKK@Z	; CPythonBackground::CreateTargetEffect
PUBLIC	?SetXMaxTree@CPythonBackground@@QAEXH@Z		; CPythonBackground::SetXMaxTree
PUBLIC	?DisableSnowEnvironment@CPythonBackground@@QAEXXZ ; CPythonBackground::DisableSnowEnvironment
PUBLIC	?EnableSnowEnvironment@CPythonBackground@@QAEXXZ ; CPythonBackground::EnableSnowEnvironment
PUBLIC	?ChangeToNight@CPythonBackground@@QAEXXZ	; CPythonBackground::ChangeToNight
PUBLIC	?ChangeToDay@CPythonBackground@@QAEXXZ		; CPythonBackground::ChangeToDay
PUBLIC	?GetWarpMapName@CPythonBackground@@QAEPBDXZ	; CPythonBackground::GetWarpMapName
PUBLIC	?DisableGuildArea@CPythonBackground@@QAEXXZ	; CPythonBackground::DisableGuildArea
PUBLIC	?VisibleGuildArea@CPythonBackground@@QAEXXZ	; CPythonBackground::VisibleGuildArea
PUBLIC	?Warp@CPythonBackground@@QAEXKK@Z		; CPythonBackground::Warp
PUBLIC	?GlobalPositionToMapInfo@CPythonBackground@@QAEPAUTMapInfo@CMapManager@@KK@Z ; CPythonBackground::GlobalPositionToMapInfo
PUBLIC	?RegisterDungeonMapName@CPythonBackground@@QAEXPBD@Z ; CPythonBackground::RegisterDungeonMapName
PUBLIC	?LocalPositionToGlobalPosition@CPythonBackground@@QAEXAAJ0@Z ; CPythonBackground::LocalPositionToGlobalPosition
PUBLIC	?RegisterGuildArea@CPythonBackground@@QAEXHHHH@Z ; CPythonBackground::RegisterGuildArea
PUBLIC	?ClearGuildArea@CPythonBackground@@QAEXXZ	; CPythonBackground::ClearGuildArea
PUBLIC	?CheckAdvancing@CPythonBackground@@QAE_NPAVCInstanceBase@@@Z ; CPythonBackground::CheckAdvancing
PUBLIC	??RCollisionAdjustChecker@@QAEXPAVCGraphicObjectInstance@@@Z ; CollisionAdjustChecker::operator()
PUBLIC	??0CollisionAdjustChecker@@QAE@PAVCInstanceBase@@@Z ; CollisionAdjustChecker::CollisionAdjustChecker
PUBLIC	??RCollisionChecker@@QAEXPAVCGraphicObjectInstance@@@Z ; CollisionChecker::operator()
PUBLIC	??0CollisionChecker@@QAE@PAVCInstanceBase@@@Z	; CollisionChecker::CollisionChecker
PUBLIC	?RenderCollision@CPythonBackground@@QAEXXZ	; CPythonBackground::RenderCollision
PUBLIC	??0?$_Tree_const_iterator@V?$_Tree_val@U?$_Tree_simple_types@H@std@@@std@@@std@@QAE@XZ ; std::_Tree_const_iterator<std::_Tree_val<std::_Tree_simple_types<int> > >::_Tree_const_iterator<std::_Tree_val<std::_Tree_simple_types<int> > >
PUBLIC	?__IsSame@CPythonBackground@@IAE_NAAV?$set@HU?$less@H@std@@V?$allocator@H@2@@std@@0@Z ; CPythonBackground::__IsSame
PUBLIC	??1FGetPortalID@@QAE@XZ				; FGetPortalID::~FGetPortalID
PUBLIC	??RFGetPortalID@@QAEXPAVCGraphicObjectInstance@@@Z ; FGetPortalID::operator()
PUBLIC	??0FGetPortalID@@QAE@MM@Z			; FGetPortalID::FGetPortalID
PUBLIC	?Create@CPythonBackground@@QAEXXZ		; CPythonBackground::Create
PUBLIC	?GetPickingPoint@CPythonBackground@@QAE_NPAUD3DXVECTOR3@@@Z ; CPythonBackground::GetPickingPoint
PUBLIC	?__CreateProperty@CPythonBackground@@IAEXXZ	; CPythonBackground::__CreateProperty
PUBLIC	?Initialize@CPythonBackground@@QAEXXZ		; CPythonBackground::Initialize
PUBLIC	??1?$map@KUSReserveTargetEffect@CPythonBackground@@U?$less@K@std@@V?$allocator@U?$pair@$$CBKUSReserveTargetEffect@CPythonBackground@@@std@@@4@@std@@QAE@XZ ; std::map<unsigned long,CPythonBackground::SReserveTargetEffect,std::less<unsigned long>,std::allocator<std::pair<unsigned long const ,CPythonBackground::SReserveTargetEffect> > >::~map<unsigned long,CPythonBackground::SReserveTargetEffect,std::less<unsigned long>,std::allocator<std::pair<unsigned long const ,CPythonBackground::SReserveTargetEffect> > >
PUBLIC	??1?$set@V?$basic_string@DU?$char_traits@D@std@@V?$allocator@D@2@@std@@U?$less@V?$basic_string@DU?$char_traits@D@std@@V?$allocator@D@2@@std@@@2@V?$allocator@V?$basic_string@DU?$char_traits@D@std@@V?$allocator@D@2@@std@@@2@@std@@QAE@XZ ; std::set<std::basic_string<char,std::char_traits<char>,std::allocator<char> >,std::less<std::basic_string<char,std::char_traits<char>,std::allocator<char> > >,std::allocator<std::basic_string<char,std::char_traits<char>,std::allocator<char> > > >::~set<std::basic_string<char,std::char_traits<char>,std::allocator<char> >,std::less<std::basic_string<char,std::char_traits<char>,std::allocator<char> > >,std::allocator<std::basic_string<char,std::char_traits<char>,std::allocator<char> > > >
PUBLIC	??1?$set@HU?$less@H@std@@V?$allocator@H@2@@std@@QAE@XZ ; std::set<int,std::less<int>,std::allocator<int> >::~set<int,std::less<int>,std::allocator<int> >
PUBLIC	??0SVIEWDISTANCESET@CPythonBackground@@QAE@XZ	; CPythonBackground::SVIEWDISTANCESET::SVIEWDISTANCESET
PUBLIC	??_GCPythonBackground@@UAEPAXI@Z		; CPythonBackground::`scalar deleting destructor'
PUBLIC	?GetDistanceSetInfo@CPythonBackground@@QAEXPAHPAM11@Z ; CPythonBackground::GetDistanceSetInfo
PUBLIC	?SelectViewDistanceNum@CPythonBackground@@QAEXH@Z ; CPythonBackground::SelectViewDistanceNum
PUBLIC	?SetShadowLevel@CPythonBackground@@QAE_NH@Z	; CPythonBackground::SetShadowLevel
PUBLIC	?RefreshShadowLevel@CPythonBackground@@QAEXXZ	; CPythonBackground::RefreshShadowLevel
PUBLIC	?SetSplatLimit@CPythonBackground@@QAE_NH@Z	; CPythonBackground::SetSplatLimit
PUBLIC	?EnableTerrainOnlyForHeight@CPythonBackground@@QAEXXZ ; CPythonBackground::EnableTerrainOnlyForHeight
PUBLIC	?SetVisiblePart@CPythonBackground@@QAE_NH_N@Z	; CPythonBackground::SetVisiblePart
PUBLIC	?GetRenderShadowTime@CPythonBackground@@QAEKXZ	; CPythonBackground::GetRenderShadowTime
PUBLIC	??RFFindWarpMapName@CPythonBackground@@QAE_NAAUTMapInfo@CMapManager@@@Z ; CPythonBackground::FFindWarpMapName::operator()
PUBLIC	??0FFindWarpMapName@CPythonBackground@@QAE@KK@Z	; CPythonBackground::FFindWarpMapName::FFindWarpMapName
PUBLIC	?GetDayMode@CPythonBackground@@QAEHXZ		; CPythonBackground::GetDayMode
PUBLIC	?SetAtlasInfoFileName@CMapManager@@QAEXPBD@Z	; CMapManager::SetAtlasInfoFileName
PUBLIC	?IsEnablePortal@CMapOutdoor@@QAE_NXZ		; CMapOutdoor::IsEnablePortal
PUBLIC	?EnableTerrainOnlyForHeight@CMapOutdoor@@QAEX_N@Z ; CMapOutdoor::EnableTerrainOnlyForHeight
PUBLIC	??0CPythonBackground@@QAE@XZ			; CPythonBackground::CPythonBackground
PUBLIC	??1CPythonBackground@@UAE@XZ			; CPythonBackground::~CPythonBackground
PUBLIC	?GetFarClip@CPythonBackground@@QAEMXZ		; CPythonBackground::GetFarClip
PUBLIC	?RenderCharacterShadowToTexture@CPythonBackground@@QAEXXZ ; CPythonBackground::RenderCharacterShadowToTexture
PUBLIC	?RenderSky@CPythonBackground@@QAEXXZ		; CPythonBackground::RenderSky
PUBLIC	?RenderBeforeLensFlare@CPythonBackground@@QAEXXZ ; CPythonBackground::RenderBeforeLensFlare
PUBLIC	?RenderCloud@CPythonBackground@@QAEXXZ		; CPythonBackground::RenderCloud
PUBLIC	?Render@CPythonBackground@@QAEXXZ		; CPythonBackground::Render
PUBLIC	?SetCharacterDirLight@CPythonBackground@@QAEXXZ	; CPythonBackground::SetCharacterDirLight
PUBLIC	?SetBackgroundDirLight@CPythonBackground@@QAEXXZ ; CPythonBackground::SetBackgroundDirLight
PUBLIC	?RenderWater@CPythonBackground@@QAEXXZ		; CPythonBackground::RenderWater
PUBLIC	?RenderSnow@CPythonBackground@@QAEXXZ		; CPythonBackground::RenderSnow
PUBLIC	?RenderEffect@CPythonBackground@@QAEXXZ		; CPythonBackground::RenderEffect
PUBLIC	?RenderPCBlocker@CPythonBackground@@QAEXXZ	; CPythonBackground::RenderPCBlocker
PUBLIC	?RenderAfterLensFlare@CPythonBackground@@QAEXXZ	; CPythonBackground::RenderAfterLensFlare
PUBLIC	?Update@CPythonBackground@@QAEXMMM@Z		; CPythonBackground::Update
PUBLIC	?CreateCharacterShadowTexture@CPythonBackground@@QAEXXZ ; CPythonBackground::CreateCharacterShadowTexture
PUBLIC	?SetViewDistanceSet@CPythonBackground@@QAEXHM@Z	; CPythonBackground::SetViewDistanceSet
PUBLIC	?ReleaseCharacterShadowTexture@CPythonBackground@@QAEXXZ ; CPythonBackground::ReleaseCharacterShadowTexture
PUBLIC	?GlobalPositionToLocalPosition@CPythonBackground@@QAEXAAJ0@Z ; CPythonBackground::GlobalPositionToLocalPosition
PUBLIC	?Destroy@CPythonBackground@@QAEXXZ		; CPythonBackground::Destroy
PUBLIC	?GetPickingPointWithRayOnlyTerrain@CPythonBackground@@QAE_NABVCRay@@PAUD3DXVECTOR3@@@Z ; CPythonBackground::GetPickingPointWithRayOnlyTerrain
PUBLIC	?g_strEffectName@@3V?$basic_string@DU?$char_traits@D@std@@V?$allocator@D@2@@std@@A ; g_strEffectName
EXTRN	??_ECPythonBackground@@UAEPAXI@Z:PROC		; CPythonBackground::`vector deleting destructor'
EXTRN	??_E?$CSingleton@VCPythonBackground@@@@UAEPAXI@Z:PROC ; CSingleton<CPythonBackground>::`vector deleting destructor'
EXTRN	??_E?$RangeTester@UFGetPortalID@@@@UAEPAXI@Z:PROC ; RangeTester<FGetPortalID>::`vector deleting destructor'
EXTRN	??_E?$RangeTester@UCollisionAdjustChecker@@@@UAEPAXI@Z:PROC ; RangeTester<CollisionAdjustChecker>::`vector deleting destructor'
EXTRN	??_E?$RangeTester@UCollisionChecker@@@@UAEPAXI@Z:PROC ; RangeTester<CollisionChecker>::`vector deleting destructor'
?g_strEffectName@@3V?$basic_string@DU?$char_traits@D@std@@V?$allocator@D@2@@std@@A DB 018H DUP (?) ; g_strEffectName
_BSS	ENDS
;	COMDAT ?$TSS0@?1??SetXMaxTree@CPythonBackground@@QAEXH@Z@4HA
_BSS	SEGMENT
?$TSS0@?1??SetXMaxTree@CPythonBackground@@QAEXH@Z@4HA DD 01H DUP (?) ; `CPythonBackground::SetXMaxTree'::`2'::$TSS0
_BSS	ENDS
;	COMDAT ?s_strTreeName@?1??SetXMaxTree@CPythonBackground@@QAEXH@Z@4PAV?$basic_string@DU?$char_traits@D@std@@V?$allocator@D@2@@std@@A
_BSS	SEGMENT
?s_strTreeName@?1??SetXMaxTree@CPythonBackground@@QAEXH@Z@4PAV?$basic_string@DU?$char_traits@D@std@@V?$allocator@D@2@@std@@A DB 048H DUP (?) ; `CPythonBackground::SetXMaxTree'::`2'::s_strTreeName
_BSS	ENDS
;	COMDAT ?$TSS1@?1??SetXMaxTree@CPythonBackground@@QAEXH@Z@4HA
_BSS	SEGMENT
?$TSS1@?1??SetXMaxTree@CPythonBackground@@QAEXH@Z@4HA DD 01H DUP (?) ; `CPythonBackground::SetXMaxTree'::`2'::$TSS1
_BSS	ENDS
;	COMDAT ?s_strEffectName@?1??SetXMaxTree@CPythonBackground@@QAEXH@Z@4PAV?$basic_string@DU?$char_traits@D@std@@V?$allocator@D@2@@std@@A
_BSS	SEGMENT
?s_strEffectName@?1??SetXMaxTree@CPythonBackground@@QAEXH@Z@4PAV?$basic_string@DU?$char_traits@D@std@@V?$allocator@D@2@@std@@A DB 048H DUP (?) ; `CPythonBackground::SetXMaxTree'::`2'::s_strEffectName
_BSS	ENDS
;	COMDAT ?$TSS0@?1??IsBoomMap@CPythonBackground@@QBE_NABV?$basic_string@DU?$char_traits@D@std@@V?$allocator@D@2@@std@@@Z@4HA
_BSS	SEGMENT
?$TSS0@?1??IsBoomMap@CPythonBackground@@QBE_NABV?$basic_string@DU?$char_traits@D@std@@V?$allocator@D@2@@std@@@Z@4HA DD 01H DUP (?) ; `CPythonBackground::IsBoomMap'::`2'::$TSS0
_BSS	ENDS
;	COMDAT ?vMapName@?1??IsBoomMap@CPythonBackground@@QBE_NABV?$basic_string@DU?$char_traits@D@std@@V?$allocator@D@2@@std@@@Z@4V?$vector@V?$basic_string@DU?$char_traits@D@std@@V?$allocator@D@2@@std@@V?$allocator@V?$basic_string@DU?$char_traits@D@std@@V?$allocator@D@2@@std@@@2@@4@B
_BSS	SEGMENT
?vMapName@?1??IsBoomMap@CPythonBackground@@QBE_NABV?$basic_string@DU?$char_traits@D@std@@V?$allocator@D@2@@std@@@Z@4V?$vector@V?$basic_string@DU?$char_traits@D@std@@V?$allocator@D@2@@std@@V?$allocator@V?$basic_string@DU?$char_traits@D@std@@V?$allocator@D@2@@std@@@2@@4@B DB 0cH DUP (?) ; `CPythonBackground::IsBoomMap'::`2'::vMapName
_BSS	ENDS
	ORG $+4740
?c_v3TreePos@@3UD3DXVECTOR3@@B DQ 0c76de40047956a00r ; -1.24161e+36 ; c_v3TreePos
	DD	0469dee00H
CONST	ENDS
;	COMDAT xdata$x
xdata$x	SEGMENT
__ehfuncinfo$?Update@CPythonBackground@@QAEXMMM@Z DQ 00000000219930522r ; 4.45598e-314
	DD	FLAT:__unwindtable$?Update@CPythonBackground@@QAEXMMM@Z
	DQ	00000000000000000r		; 0
	DQ	00000000000000000r		; 0
	DQ	00000000100000000r		; 2.122e-314
__unwindtable$?Update@CPythonBackground@@QAEXMMM@Z DD 0ffffffffH
	DD	FLAT:__unwindfunclet$?Update@CPythonBackground@@QAEXMMM@Z$0
	DD	00H
	DD	FLAT:__unwindfunclet$?Update@CPythonBackground@@QAEXMMM@Z$5
xdata$x	ENDS
;	COMDAT xdata$x
xdata$x	SEGMENT
__ehfuncinfo$??1CPythonBackground@@UAE@XZ DQ 00000000019930522r ; 2.11987e-315
	DQ	00000000000000000r		; 0
	DQ	00000000000000000r		; 0
	DQ	00000000000000000r		; 0
	DD	05H
xdata$x	ENDS
;	COMDAT xdata$x
xdata$x	SEGMENT
__ehfuncinfo$??0CPythonBackground@@QAE@XZ DQ 00000000819930522r ; 1.7188e-313
	DD	FLAT:__unwindtable$??0CPythonBackground@@QAE@XZ
	DQ	00000000000000000r		; 0
	DQ	00000000000000000r		; 0
	DQ	00000000100000000r		; 2.122e-314
	ORG $+4
__unwindtable$??0CPythonBackground@@QAE@XZ DD 0ffffffffH
	DD	FLAT:__unwindfunclet$??0CPythonBackground@@QAE@XZ$0
	DD	00H
	DD	FLAT:__unwindfunclet$??0CPythonBackground@@QAE@XZ$1
	DD	01H
	DD	FLAT:__unwindfunclet$??0CPythonBackground@@QAE@XZ$2
	DD	02H
	DD	FLAT:__unwindfunclet$??0CPythonBackground@@QAE@XZ$3
	DD	03H
	DD	FLAT:__unwindfunclet$??0CPythonBackground@@QAE@XZ$4
	DD	04H
	DD	FLAT:__unwindfunclet$??0CPythonBackground@@QAE@XZ$5
	DD	05H
	DD	FLAT:__unwindfunclet$??0CPythonBackground@@QAE@XZ$6
	DD	06H
	DD	FLAT:__unwindfunclet$??0CPythonBackground@@QAE@XZ$7
xdata$x	ENDS
;	COMDAT xdata$x
xdata$x	SEGMENT
__ehfuncinfo$?Initialize@CPythonBackground@@QAEXXZ DQ 00000000119930522r ; 2.33398e-314
	DD	FLAT:__unwindtable$?Initialize@CPythonBackground@@QAEXXZ
	DQ	00000000000000000r		; 0
	DQ	00000000000000000r		; 0
	DQ	00000000100000000r		; 2.122e-314
__unwindtable$?Initialize@CPythonBackground@@QAEXXZ DD 0ffffffffH
	DD	FLAT:__unwindfunclet$?Initialize@CPythonBackground@@QAEXXZ$0
xdata$x	ENDS
;	COMDAT xdata$x
xdata$x	SEGMENT
__ehfuncinfo$?__CreateProperty@CPythonBackground@@IAEXXZ DQ 00000000119930522r ; 2.33398e-314
	DD	FLAT:__unwindtable$?__CreateProperty@CPythonBackground@@IAEXXZ
	DQ	00000000000000000r		; 0
	DQ	00000000000000000r		; 0
	DQ	00000000100000000r		; 2.122e-314
__unwindtable$?__CreateProperty@CPythonBackground@@IAEXXZ DD 0ffffffffH
	DD	FLAT:__unwindfunclet$?__CreateProperty@CPythonBackground@@IAEXXZ$0
xdata$x	ENDS
;	COMDAT xdata$x
xdata$x	SEGMENT
__ehfuncinfo$??RFGetPortalID@@QAEXPAVCGraphicObjectInstance@@@Z DQ 00000000119930522r ; 2.33398e-314
	DD	FLAT:__unwindtable$??RFGetPortalID@@QAEXPAVCGraphicObjectInstance@@@Z
	DQ	00000000000000000r		; 0
	DQ	00000000000000000r		; 0
	DQ	00000000100000000r		; 2.122e-314
__unwindtable$??RFGetPortalID@@QAEXPAVCGraphicObjectInstance@@@Z DD 0ffffffffH
	DD	FLAT:__unwindfunclet$??RFGetPortalID@@QAEXPAVCGraphicObjectInstance@@@Z$2
xdata$x	ENDS
;	COMDAT xdata$x
xdata$x	SEGMENT
__ehfuncinfo$?CheckAdvancing@CPythonBackground@@QAE_NPAVCInstanceBase@@@Z DQ 00000000219930522r ; 4.45598e-314
	DD	FLAT:__unwindtable$?CheckAdvancing@CPythonBackground@@QAE_NPAVCInstanceBase@@@Z
	DQ	00000000000000000r		; 0
	DQ	00000000000000000r		; 0
	DQ	00000000100000000r		; 2.122e-314
__unwindtable$?CheckAdvancing@CPythonBackground@@QAE_NPAVCInstanceBase@@@Z DD 0ffffffffH
	DD	FLAT:__unwindfunclet$?CheckAdvancing@CPythonBackground@@QAE_NPAVCInstanceBase@@@Z$0
	DD	0ffffffffH
	DD	FLAT:__unwindfunclet$?CheckAdvancing@CPythonBackground@@QAE_NPAVCInstanceBase@@@Z$1
xdata$x	ENDS
;	COMDAT xdata$x
xdata$x	SEGMENT
__ehfuncinfo$?RegisterDungeonMapName@CPythonBackground@@QAEXPBD@Z DQ 00000000119930522r ; 2.33398e-314
	DD	FLAT:__unwindtable$?RegisterDungeonMapName@CPythonBackground@@QAEXPBD@Z
	DQ	00000000000000000r		; 0
	DQ	00000000000000000r		; 0
	DQ	00000000100000000r		; 2.122e-314
__unwindtable$?RegisterDungeonMapName@CPythonBackground@@QAEXPBD@Z DD 0ffffffffH
	DD	FLAT:__unwindfunclet$?RegisterDungeonMapName@CPythonBackground@@QAEXPBD@Z$0
xdata$x	ENDS
;	COMDAT xdata$x
xdata$x	SEGMENT
__ehfuncinfo$?SetXMaxTree@CPythonBackground@@QAEXH@Z DQ 00000000419930522r ; 8.69997e-314
	DD	FLAT:__unwindtable$?SetXMaxTree@CPythonBackground@@QAEXH@Z
	DQ	00000000000000000r		; 0
	DQ	00000000000000000r		; 0
	DQ	00000000100000000r		; 2.122e-314
__unwindtable$?SetXMaxTree@CPythonBackground@@QAEXH@Z DD 0ffffffffH
	DD	FLAT:__unwindfunclet$?SetXMaxTree@CPythonBackground@@QAEXH@Z$0
	DD	00H
	DD	FLAT:__unwindfunclet$?SetXMaxTree@CPythonBackground@@QAEXH@Z$1
	DD	0ffffffffH
	DD	FLAT:__unwindfunclet$?SetXMaxTree@CPythonBackground@@QAEXH@Z$3
	DD	02H
	DD	FLAT:__unwindfunclet$?SetXMaxTree@CPythonBackground@@QAEXH@Z$4
xdata$x	ENDS
;	COMDAT xdata$x
xdata$x	SEGMENT
__ehfuncinfo$?CreateTargetEffect@CPythonBackground@@QAEXKJJ@Z DQ 00000000119930522r ; 2.33398e-314
	DD	FLAT:__unwindtable$?CreateTargetEffect@CPythonBackground@@QAEXKJJ@Z
	DQ	00000000000000000r		; 0
	DQ	00000000000000000r		; 0
	DQ	00000000100000000r		; 2.122e-314
__unwindtable$?CreateTargetEffect@CPythonBackground@@QAEXKJJ@Z DD 0ffffffffH
	DD	FLAT:__unwindfunclet$?CreateTargetEffect@CPythonBackground@@QAEXKJJ@Z$2
xdata$x	ENDS
;	COMDAT xdata$x
xdata$x	SEGMENT
__ehfuncinfo$?IsBoomMap@CPythonBackground@@QBE_NABV?$basic_string@DU?$char_traits@D@std@@V?$allocator@D@2@@std@@@Z DQ 00000003419930522r ; 1.10556e-312
	DD	FLAT:__unwindtable$?IsBoomMap@CPythonBackground@@QBE_NABV?$basic_string@DU?$char_traits@D@std@@V?$allocator@D@2@@std@@@Z
	DQ	00000000000000000r		; 0
	DQ	00000000000000000r		; 0
	DQ	00000000100000000r		; 2.122e-314
	ORG $+4
__unwindtable$?IsBoomMap@CPythonBackground@@QBE_NABV?$basic_string@DU?$char_traits@D@std@@V?$allocator@D@2@@std@@@Z DD 0ffffffffH
	DD	FLAT:__unwindfunclet$?IsBoomMap@CPythonBackground@@QBE_NABV?$basic_string@DU?$char_traits@D@std@@V?$allocator@D@2@@std@@@Z$0
	DD	00H
	DD	FLAT:__unwindfunclet$?IsBoomMap@CPythonBackground@@QBE_NABV?$basic_string@DU?$char_traits@D@std@@V?$allocator@D@2@@std@@@Z$1
	DD	01H
	DD	FLAT:__unwindfunclet$?IsBoomMap@CPythonBackground@@QBE_NABV?$basic_string@DU?$char_traits@D@std@@V?$allocator@D@2@@std@@@Z$2
	DD	02H
	DD	FLAT:__unwindfunclet$?IsBoomMap@CPythonBackground@@QBE_NABV?$basic_string@DU?$char_traits@D@std@@V?$allocator@D@2@@std@@@Z$3
	DD	03H
	DD	FLAT:__unwindfunclet$?IsBoomMap@CPythonBackground@@QBE_NABV?$basic_string@DU?$char_traits@D@std@@V?$allocator@D@2@@std@@@Z$4
	DD	04H
	DD	FLAT:__unwindfunclet$?IsBoomMap@CPythonBackground@@QBE_NABV?$basic_string@DU?$char_traits@D@std@@V?$allocator@D@2@@std@@@Z$5
	DD	05H
	DD	FLAT:__unwindfunclet$?IsBoomMap@CPythonBackground@@QBE_NABV?$basic_string@DU?$char_traits@D@std@@V?$allocator@D@2@@std@@@Z$6
	DD	06H
	DD	FLAT:__unwindfunclet$?IsBoomMap@CPythonBackground@@QBE_NABV?$basic_string@DU?$char_traits@D@std@@V?$allocator@D@2@@std@@@Z$7
	DD	07H
	DD	FLAT:__unwindfunclet$?IsBoomMap@CPythonBackground@@QBE_NABV?$basic_string@DU?$char_traits@D@std@@V?$allocator@D@2@@std@@@Z$8
	DD	08H
	DD	FLAT:__unwindfunclet$?IsBoomMap@CPythonBackground@@QBE_NABV?$basic_string@DU?$char_traits@D@std@@V?$allocator@D@2@@std@@@Z$9
	DD	09H
	DD	FLAT:__unwindfunclet$?IsBoomMap@CPythonBackground@@QBE_NABV?$basic_string@DU?$char_traits@D@std@@V?$allocator@D@2@@std@@@Z$10
	DD	0aH
	DD	FLAT:__unwindfunclet$?IsBoomMap@CPythonBackground@@QBE_NABV?$basic_string@DU?$char_traits@D@std@@V?$allocator@D@2@@std@@@Z$11
	DD	0bH
	DD	FLAT:__unwindfunclet$?IsBoomMap@CPythonBackground@@QBE_NABV?$basic_string@DU?$char_traits@D@std@@V?$allocator@D@2@@std@@@Z$12
	DD	0cH
	DD	FLAT:__unwindfunclet$?IsBoomMap@CPythonBackground@@QBE_NABV?$basic_string@DU?$char_traits@D@std@@V?$allocator@D@2@@std@@@Z$13
	DD	0dH
	DD	FLAT:__unwindfunclet$?IsBoomMap@CPythonBackground@@QBE_NABV?$basic_string@DU?$char_traits@D@std@@V?$allocator@D@2@@std@@@Z$14
	DD	0eH
	DD	FLAT:__unwindfunclet$?IsBoomMap@CPythonBackground@@QBE_NABV?$basic_string@DU?$char_traits@D@std@@V?$allocator@D@2@@std@@@Z$15
	DD	0fH
	DD	FLAT:__unwindfunclet$?IsBoomMap@CPythonBackground@@QBE_NABV?$basic_string@DU?$char_traits@D@std@@V?$allocator@D@2@@std@@@Z$16
	DD	010H
	DD	FLAT:__unwindfunclet$?IsBoomMap@CPythonBackground@@QBE_NABV?$basic_string@DU?$char_traits@D@std@@V?$allocator@D@2@@std@@@Z$17
	DD	011H
	DD	FLAT:__unwindfunclet$?IsBoomMap@CPythonBackground@@QBE_NABV?$basic_string@DU?$char_traits@D@std@@V?$allocator@D@2@@std@@@Z$18
	DD	012H
	DD	FLAT:__unwindfunclet$?IsBoomMap@CPythonBackground@@QBE_NABV?$basic_string@DU?$char_traits@D@std@@V?$allocator@D@2@@std@@@Z$19
	DD	013H
	DD	FLAT:__unwindfunclet$?IsBoomMap@CPythonBackground@@QBE_NABV?$basic_string@DU?$char_traits@D@std@@V?$allocator@D@2@@std@@@Z$20
	DD	014H
	DD	FLAT:__unwindfunclet$?IsBoomMap@CPythonBackground@@QBE_NABV?$basic_string@DU?$char_traits@D@std@@V?$allocator@D@2@@std@@@Z$21
	DD	015H
	DD	FLAT:__unwindfunclet$?IsBoomMap@CPythonBackground@@QBE_NABV?$basic_string@DU?$char_traits@D@std@@V?$allocator@D@2@@std@@@Z$22
	DD	016H
	DD	FLAT:__unwindfunclet$?IsBoomMap@CPythonBackground@@QBE_NABV?$basic_string@DU?$char_traits@D@std@@V?$allocator@D@2@@std@@@Z$23
	DD	017H
	DD	FLAT:__unwindfunclet$?IsBoomMap@CPythonBackground@@QBE_NABV?$basic_string@DU?$char_traits@D@std@@V?$allocator@D@2@@std@@@Z$24
	DD	018H
	DD	FLAT:__unwindfunclet$?IsBoomMap@CPythonBackground@@QBE_NABV?$basic_string@DU?$char_traits@D@std@@V?$allocator@D@2@@std@@@Z$25
	DD	019H
	DD	FLAT:__unwindfunclet$?IsBoomMap@CPythonBackground@@QBE_NABV?$basic_string@DU?$char_traits@D@std@@V?$allocator@D@2@@std@@@Z$26
	DD	01aH
	DD	FLAT:__unwindfunclet$?IsBoomMap@CPythonBackground@@QBE_NABV?$basic_string@DU?$char_traits@D@std@@V?$allocator@D@2@@std@@@Z$27
	DD	01bH
	DD	FLAT:__unwindfunclet$?IsBoomMap@CPythonBackground@@QBE_NABV?$basic_string@DU?$char_traits@D@std@@V?$allocator@D@2@@std@@@Z$28
	DD	01cH
	DD	FLAT:__unwindfunclet$?IsBoomMap@CPythonBackground@@QBE_NABV?$basic_string@DU?$char_traits@D@std@@V?$allocator@D@2@@std@@@Z$29
	DD	01dH
	DD	FLAT:__unwindfunclet$?IsBoomMap@CPythonBackground@@QBE_NABV?$basic_string@DU?$char_traits@D@std@@V?$allocator@D@2@@std@@@Z$30
	DD	01eH
	DD	FLAT:__unwindfunclet$?IsBoomMap@CPythonBackground@@QBE_NABV?$basic_string@DU?$char_traits@D@std@@V?$allocator@D@2@@std@@@Z$31
	DD	01fH
	DD	FLAT:__unwindfunclet$?IsBoomMap@CPythonBackground@@QBE_NABV?$basic_string@DU?$char_traits@D@std@@V?$allocator@D@2@@std@@@Z$32
	DD	020H
	DD	FLAT:__unwindfunclet$?IsBoomMap@CPythonBackground@@QBE_NABV?$basic_string@DU?$char_traits@D@std@@V?$allocator@D@2@@std@@@Z$33
	DD	021H
	DD	FLAT:__unwindfunclet$?IsBoomMap@CPythonBackground@@QBE_NABV?$basic_string@DU?$char_traits@D@std@@V?$allocator@D@2@@std@@@Z$34
	DD	022H
	DD	FLAT:__unwindfunclet$?IsBoomMap@CPythonBackground@@QBE_NABV?$basic_string@DU?$char_traits@D@std@@V?$allocator@D@2@@std@@@Z$35
	DD	023H
	DD	FLAT:__unwindfunclet$?IsBoomMap@CPythonBackground@@QBE_NABV?$basic_string@DU?$char_traits@D@std@@V?$allocator@D@2@@std@@@Z$36
	DD	024H
	DD	FLAT:__unwindfunclet$?IsBoomMap@CPythonBackground@@QBE_NABV?$basic_string@DU?$char_traits@D@std@@V?$allocator@D@2@@std@@@Z$37
	DD	025H
	DD	FLAT:__unwindfunclet$?IsBoomMap@CPythonBackground@@QBE_NABV?$basic_string@DU?$char_traits@D@std@@V?$allocator@D@2@@std@@@Z$38
	DD	026H
	DD	FLAT:__unwindfunclet$?IsBoomMap@CPythonBackground@@QBE_NABV?$basic_string@DU?$char_traits@D@std@@V?$allocator@D@2@@std@@@Z$39
	DD	027H
	DD	FLAT:__unwindfunclet$?IsBoomMap@CPythonBackground@@QBE_NABV?$basic_string@DU?$char_traits@D@std@@V?$allocator@D@2@@std@@@Z$40
	DD	028H
	DD	FLAT:__unwindfunclet$?IsBoomMap@CPythonBackground@@QBE_NABV?$basic_string@DU?$char_traits@D@std@@V?$allocator@D@2@@std@@@Z$41
	DD	029H
	DD	FLAT:__unwindfunclet$?IsBoomMap@CPythonBackground@@QBE_NABV?$basic_string@DU?$char_traits@D@std@@V?$allocator@D@2@@std@@@Z$42
	DD	02aH
	DD	FLAT:__unwindfunclet$?IsBoomMap@CPythonBackground@@QBE_NABV?$basic_string@DU?$char_traits@D@std@@V?$allocator@D@2@@std@@@Z$43
	DD	02bH
	DD	FLAT:__unwindfunclet$?IsBoomMap@CPythonBackground@@QBE_NABV?$basic_string@DU?$char_traits@D@std@@V?$allocator@D@2@@std@@@Z$44
	DD	02cH
	DD	FLAT:__unwindfunclet$?IsBoomMap@CPythonBackground@@QBE_NABV?$basic_string@DU?$char_traits@D@std@@V?$allocator@D@2@@std@@@Z$45
	DD	02dH
	DD	FLAT:__unwindfunclet$?IsBoomMap@CPythonBackground@@QBE_NABV?$basic_string@DU?$char_traits@D@std@@V?$allocator@D@2@@std@@@Z$46
	DD	02eH
	DD	FLAT:__unwindfunclet$?IsBoomMap@CPythonBackground@@QBE_NABV?$basic_string@DU?$char_traits@D@std@@V?$allocator@D@2@@std@@@Z$47
	DD	02fH
	DD	FLAT:__unwindfunclet$?IsBoomMap@CPythonBackground@@QBE_NABV?$basic_string@DU?$char_traits@D@std@@V?$allocator@D@2@@std@@@Z$48
	DD	030H
	DD	FLAT:__unwindfunclet$?IsBoomMap@CPythonBackground@@QBE_NABV?$basic_string@DU?$char_traits@D@std@@V?$allocator@D@2@@std@@@Z$49
	DD	031H
	DD	FLAT:__unwindfunclet$?IsBoomMap@CPythonBackground@@QBE_NABV?$basic_string@DU?$char_traits@D@std@@V?$allocator@D@2@@std@@@Z$50
	DD	00H
	DD	FLAT:__unwindfunclet$?IsBoomMap@CPythonBackground@@QBE_NABV?$basic_string@DU?$char_traits@D@std@@V?$allocator@D@2@@std@@@Z$52
xdata$x	ENDS
;	COMDAT xdata$x
xdata$x	SEGMENT
__ehfuncinfo$??0?$vector@V?$basic_string@DU?$char_traits@D@std@@V?$allocator@D@2@@std@@V?$allocator@V?$basic_string@DU?$char_traits@D@std@@V?$allocator@D@2@@std@@@2@@std@@QAE@V?$initializer_list@V?$basic_string@DU?$char_traits@D@std@@V?$allocator@D@2@@std@@@1@ABV?$allocator@V?$basic_string@DU?$char_traits@D@std@@V?$allocator@D@2@@std@@@1@@Z DQ 00000000219930522r ; 4.45598e-314
	DD	FLAT:__unwindtable$??0?$vector@V?$basic_string@DU?$char_traits@D@std@@V?$allocator@D@2@@std@@V?$allocator@V?$basic_string@DU?$char_traits@D@std@@V?$allocator@D@2@@std@@@2@@std@@QAE@V?$initializer_list@V?$basic_string@DU?$char_traits@D@std@@V?$allocator@D@2@@std@@@1@ABV?$allocator@V?$basic_string@DU?$char_traits@D@std@@V?$allocator@D@2@@std@@@1@@Z
	DQ	00000000000000000r		; 0
	DQ	00000000000000000r		; 0
	DQ	00000000100000000r		; 2.122e-314
__unwindtable$??0?$vector@V?$basic_string@DU?$char_traits@D@std@@V?$allocator@D@2@@std@@V?$allocator@V?$basic_string@DU?$char_traits@D@std@@V?$allocator@D@2@@std@@@2@@std@@QAE@V?$initializer_list@V?$basic_string@DU?$char_traits@D@std@@V?$allocator@D@2@@std@@@1@ABV?$allocator@V?$basic_string@DU?$char_traits@D@std@@V?$allocator@D@2@@std@@@1@@Z DD 0ffffffffH
	DD	FLAT:__unwindfunclet$??0?$vector@V?$basic_string@DU?$char_traits@D@std@@V?$allocator@D@2@@std@@V?$allocator@V?$basic_string@DU?$char_traits@D@std@@V?$allocator@D@2@@std@@@2@@std@@QAE@V?$initializer_list@V?$basic_string@DU?$char_traits@D@std@@V?$allocator@D@2@@std@@@1@ABV?$allocator@V?$basic_string@DU?$char_traits@D@std@@V?$allocator@D@2@@std@@@1@@Z$0
	DD	00H
	DD	FLAT:__unwindfunclet$??0?$vector@V?$basic_string@DU?$char_traits@D@std@@V?$allocator@D@2@@std@@V?$allocator@V?$basic_string@DU?$char_traits@D@std@@V?$allocator@D@2@@std@@@2@@std@@QAE@V?$initializer_list@V?$basic_string@DU?$char_traits@D@std@@V?$allocator@D@2@@std@@@1@ABV?$allocator@V?$basic_string@DU?$char_traits@D@std@@V?$allocator@D@2@@std@@@1@@Z$1
xdata$x	ENDS
;	COMDAT xdata$x
xdata$x	SEGMENT
__ehfuncinfo$??$_Construct_n@PBV?$basic_string@DU?$char_traits@D@std@@V?$allocator@D@2@@std@@PBV12@@?$vector@V?$basic_string@DU?$char_traits@D@std@@V?$allocator@D@2@@std@@V?$allocator@V?$basic_string@DU?$char_traits@D@std@@V?$allocator@D@2@@std@@@2@@std@@AAEXI$$QAPBV?$basic_string@DU?$char_traits@D@std@@V?$allocator@D@2@@1@0@Z DQ 00000000219930522r ; 4.45598e-314
	DD	FLAT:__unwindtable$??$_Construct_n@PBV?$basic_string@DU?$char_traits@D@std@@V?$allocator@D@2@@std@@PBV12@@?$vector@V?$basic_string@DU?$char_traits@D@std@@V?$allocator@D@2@@std@@V?$allocator@V?$basic_string@DU?$char_traits@D@std@@V?$allocator@D@2@@std@@@2@@std@@AAEXI$$QAPBV?$basic_string@DU?$char_traits@D@std@@V?$allocator@D@2@@1@0@Z
	DQ	00000000000000000r		; 0
	DQ	00000000000000000r		; 0
	DQ	00000000100000000r		; 2.122e-314
__unwindtable$??$_Construct_n@PBV?$basic_string@DU?$char_traits@D@std@@V?$allocator@D@2@@std@@PBV12@@?$vector@V?$basic_string@DU?$char_traits@D@std@@V?$allocator@D@2@@std@@V?$allocator@V?$basic_string@DU?$char_traits@D@std@@V?$allocator@D@2@@std@@@2@@std@@AAEXI$$QAPBV?$basic_string@DU?$char_traits@D@std@@V?$allocator@D@2@@1@0@Z DD 0ffffffffH
	DD	FLAT:__unwindfunclet$??$_Construct_n@PBV?$basic_string@DU?$char_traits@D@std@@V?$allocator@D@2@@std@@PBV12@@?$vector@V?$basic_string@DU?$char_traits@D@std@@V?$allocator@D@2@@std@@V?$allocator@V?$basic_string@DU?$char_traits@D@std@@V?$allocator@D@2@@std@@@2@@std@@AAEXI$$QAPBV?$basic_string@DU?$char_traits@D@std@@V?$allocator@D@2@@1@0@Z$0
	DD	00H
	DD	FLAT:__unwindfunclet$??$_Construct_n@PBV?$basic_string@DU?$char_traits@D@std@@V?$allocator@D@2@@std@@PBV12@@?$vector@V?$basic_string@DU?$char_traits@D@std@@V?$allocator@D@2@@std@@V?$allocator@V?$basic_string@DU?$char_traits@D@std@@V?$allocator@D@2@@std@@@2@@std@@AAEXI$$QAPBV?$basic_string@DU?$char_traits@D@std@@V?$allocator@D@2@@1@0@Z$1
xdata$x	ENDS
;	COMDAT xdata$x
xdata$x	SEGMENT
__ehfuncinfo$??$_Uninitialized_copy@PBV?$basic_string@DU?$char_traits@D@std@@V?$allocator@D@2@@std@@PBV12@V?$allocator@V?$basic_string@DU?$char_traits@D@std@@V?$allocator@D@2@@std@@@2@@std@@YAPAV?$basic_string@DU?$char_traits@D@std@@V?$allocator@D@2@@0@PBV10@0PAV10@AAV?$allocator@V?$basic_string@DU?$char_traits@D@std@@V?$allocator@D@2@@std@@@0@@Z DQ 00000000119930522r ; 2.33398e-314
	DD	FLAT:__unwindtable$??$_Uninitialized_copy@PBV?$basic_string@DU?$char_traits@D@std@@V?$allocator@D@2@@std@@PBV12@V?$allocator@V?$basic_string@DU?$char_traits@D@std@@V?$allocator@D@2@@std@@@2@@std@@YAPAV?$basic_string@DU?$char_traits@D@std@@V?$allocator@D@2@@0@PBV10@0PAV10@AAV?$allocator@V?$basic_string@DU?$char_traits@D@std@@V?$allocator@D@2@@std@@@0@@Z
	DQ	00000000000000000r		; 0
	DQ	00000000000000000r		; 0
	DQ	00000000100000000r		; 2.122e-314
__unwindtable$??$_Uninitialized_copy@PBV?$basic_string@DU?$char_traits@D@std@@V?$allocator@D@2@@std@@PBV12@V?$allocator@V?$basic_string@DU?$char_traits@D@std@@V?$allocator@D@2@@std@@@2@@std@@YAPAV?$basic_string@DU?$char_traits@D@std@@V?$allocator@D@2@@0@PBV10@0PAV10@AAV?$allocator@V?$basic_string@DU?$char_traits@D@std@@V?$allocator@D@2@@std@@@0@@Z DD 0ffffffffH
	DD	FLAT:__unwindfunclet$??$_Uninitialized_copy@PBV?$basic_string@DU?$char_traits@D@std@@V?$allocator@D@2@@std@@PBV12@V?$allocator@V?$basic_string@DU?$char_traits@D@std@@V?$allocator@D@2@@std@@@2@@std@@YAPAV?$basic_string@DU?$char_traits@D@std@@V?$allocator@D@2@@0@PBV10@0PAV10@AAV?$allocator@V?$basic_string@DU?$char_traits@D@std@@V?$allocator@D@2@@std@@@0@@Z$0
xdata$x	ENDS
;	COMDAT xdata$x
xdata$x	SEGMENT
__ehfuncinfo$??$insert@$0A@$0A@@?$_Tree@V?$_Tset_traits@HU?$less@H@std@@V?$allocator@H@2@$0A@@std@@@std@@QAE?AU?$pair@V?$_Tree_const_iterator@V?$_Tree_val@U?$_Tree_simple_types@H@std@@@std@@@std@@_N@1@ABH@Z DQ 00000000119930522r ; 2.33398e-314
	DD	FLAT:__unwindtable$??$insert@$0A@$0A@@?$_Tree@V?$_Tset_traits@HU?$less@H@std@@V?$allocator@H@2@$0A@@std@@@std@@QAE?AU?$pair@V?$_Tree_const_iterator@V?$_Tree_val@U?$_Tree_simple_types@H@std@@@std@@@std@@_N@1@ABH@Z
	DQ	00000000000000000r		; 0
	DQ	00000000000000000r		; 0
	DQ	00000000100000000r		; 2.122e-314
__unwindtable$??$insert@$0A@$0A@@?$_Tree@V?$_Tset_traits@HU?$less@H@std@@V?$allocator@H@2@$0A@@std@@@std@@QAE?AU?$pair@V?$_Tree_const_iterator@V?$_Tree_val@U?$_Tree_simple_types@H@std@@@std@@@std@@_N@1@ABH@Z DD 0ffffffffH
	DD	FLAT:__unwindfunclet$??$insert@$0A@$0A@@?$_Tree@V?$_Tset_traits@HU?$less@H@std@@V?$allocator@H@2@$0A@@std@@@std@@QAE?AU?$pair@V?$_Tree_const_iterator@V?$_Tree_val@U?$_Tree_simple_types@H@std@@@std@@@std@@_N@1@ABH@Z$2
xdata$x	ENDS
;	COMDAT xdata$x
xdata$x	SEGMENT
__ehfuncinfo$??$ForInRay@UFGetPortalID@@@CCullingManager@@QAEXABVVector3d@@0PAUFGetPortalID@@@Z DQ 00000000119930522r ; 2.33398e-314
	DD	FLAT:__unwindtable$??$ForInRay@UFGetPortalID@@@CCullingManager@@QAEXABVVector3d@@0PAUFGetPortalID@@@Z
	DQ	00000000000000000r		; 0
	DQ	00000000000000000r		; 0
	DQ	00000000100000000r		; 2.122e-314
__unwindtable$??$ForInRay@UFGetPortalID@@@CCullingManager@@QAEXABVVector3d@@0PAUFGetPortalID@@@Z DD 0ffffffffH
	DD	FLAT:__unwindfunclet$??$ForInRay@UFGetPortalID@@@CCullingManager@@QAEXABVVector3d@@0PAUFGetPortalID@@@Z$0
xdata$x	ENDS
;	COMDAT xdata$x
xdata$x	SEGMENT
__ehfuncinfo$??$ForInRange@UCollisionAdjustChecker@@@CCullingManager@@QAEXABVVector3d@@MPAUCollisionAdjustChecker@@@Z DQ 00000000119930522r ; 2.33398e-314
	DD	FLAT:__unwindtable$??$ForInRange@UCollisionAdjustChecker@@@CCullingManager@@QAEXABVVector3d@@MPAUCollisionAdjustChecker@@@Z
	DQ	00000000000000000r		; 0
	DQ	00000000000000000r		; 0
	DQ	00000000100000000r		; 2.122e-314
__unwindtable$??$ForInRange@UCollisionAdjustChecker@@@CCullingManager@@QAEXABVVector3d@@MPAUCollisionAdjustChecker@@@Z DD 0ffffffffH
	DD	FLAT:__unwindfunclet$??$ForInRange@UCollisionAdjustChecker@@@CCullingManager@@QAEXABVVector3d@@MPAUCollisionAdjustChecker@@@Z$0
xdata$x	ENDS
;	COMDAT xdata$x
xdata$x	SEGMENT
__ehfuncinfo$??$ForInRange@UCollisionChecker@@@CCullingManager@@QAEXABVVector3d@@MPAUCollisionChecker@@@Z DQ 00000000119930522r ; 2.33398e-314
	DD	FLAT:__unwindtable$??$ForInRange@UCollisionChecker@@@CCullingManager@@QAEXABVVector3d@@MPAUCollisionChecker@@@Z
	DQ	00000000000000000r		; 0
	DQ	00000000000000000r		; 0
	DQ	00000000100000000r		; 2.122e-314
__unwindtable$??$ForInRange@UCollisionChecker@@@CCullingManager@@QAEXABVVector3d@@MPAUCollisionChecker@@@Z DD 0ffffffffH
	DD	FLAT:__unwindfunclet$??$ForInRange@UCollisionChecker@@@CCullingManager@@QAEXABVVector3d@@MPAUCollisionChecker@@@Z$0
xdata$x	ENDS
;	COMDAT xdata$x
xdata$x	SEGMENT
__ehfuncinfo$??$insert@$0A@$0A@@?$_Tree@V?$_Tset_traits@V?$basic_string@DU?$char_traits@D@std@@V?$allocator@D@2@@std@@U?$less@V?$basic_string@DU?$char_traits@D@std@@V?$allocator@D@2@@std@@@2@V?$allocator@V?$basic_string@DU?$char_traits@D@std@@V?$allocator@D@2@@std@@@2@$0A@@std@@@std@@QAE?AU?$pair@V?$_Tree_const_iterator@V?$_Tree_val@U?$_Tree_simple_types@V?$basic_string@DU?$char_traits@D@std@@V?$allocator@D@2@@std@@@std@@@std@@@std@@_N@1@$$QAV?$basic_string@DU?$char_traits@D@std@@V?$allocator@D@2@@1@@Z DQ 00000000119930522r ; 2.33398e-314
	DD	FLAT:__unwindtable$??$insert@$0A@$0A@@?$_Tree@V?$_Tset_traits@V?$basic_string@DU?$char_traits@D@std@@V?$allocator@D@2@@std@@U?$less@V?$basic_string@DU?$char_traits@D@std@@V?$allocator@D@2@@std@@@2@V?$allocator@V?$basic_string@DU?$char_traits@D@std@@V?$allocator@D@2@@std@@@2@$0A@@std@@@std@@QAE?AU?$pair@V?$_Tree_const_iterator@V?$_Tree_val@U?$_Tree_simple_types@V?$basic_string@DU?$char_traits@D@std@@V?$allocator@D@2@@std@@@std@@@std@@@std@@_N@1@$$QAV?$basic_string@DU?$char_traits@D@std@@V?$allocator@D@2@@1@@Z
	DQ	00000000000000000r		; 0
	DQ	00000000000000000r		; 0
	DQ	00000000100000000r		; 2.122e-314
__unwindtable$??$insert@$0A@$0A@@?$_Tree@V?$_Tset_traits@V?$basic_string@DU?$char_traits@D@std@@V?$allocator@D@2@@std@@U?$less@V?$basic_string@DU?$char_traits@D@std@@V?$allocator@D@2@@std@@@2@V?$allocator@V?$basic_string@DU?$char_traits@D@std@@V?$allocator@D@2@@std@@@2@$0A@@std@@@std@@QAE?AU?$pair@V?$_Tree_const_iterator@V?$_Tree_val@U?$_Tree_simple_types@V?$basic_string@DU?$char_traits@D@std@@V?$allocator@D@2@@std@@@std@@@std@@@std@@_N@1@$$QAV?$basic_string@DU?$char_traits@D@std@@V?$allocator@D@2@@1@@Z DD 0ffffffffH
	DD	FLAT:__unwindfunclet$??$insert@$0A@$0A@@?$_Tree@V?$_Tset_traits@V?$basic_string@DU?$char_traits@D@std@@V?$allocator@D@2@@std@@U?$less@V?$basic_string@DU?$char_traits@D@std@@V?$allocator@D@2@@std@@@2@V?$allocator@V?$basic_string@DU?$char_traits@D@std@@V?$allocator@D@2@@std@@@2@$0A@@std@@@std@@QAE?AU?$pair@V?$_Tree_const_iterator@V?$_Tree_val@U?$_Tree_simple_types@V?$basic_string@DU?$char_traits@D@std@@V?$allocator@D@2@@std@@@std@@@std@@@std@@_N@1@$$QAV?$basic_string@DU?$char_traits@D@std@@V?$allocator@D@2@@1@@Z$2
xdata$x	ENDS
;	COMDAT xdata$x
xdata$x	SEGMENT
__ehfuncinfo$??$insert@U?$pair@KUSReserveTargetEffect@CPythonBackground@@@std@@$0A@@?$map@KUSReserveTargetEffect@CPythonBackground@@U?$less@K@std@@V?$allocator@U?$pair@$$CBKUSReserveTargetEffect@CPythonBackground@@@std@@@4@@std@@QAE?AU?$pair@V?$_Tree_iterator@V?$_Tree_val@U?$_Tree_simple_types@U?$pair@$$CBKUSReserveTargetEffect@CPythonBackground@@@std@@@std@@@std@@@std@@_N@1@$$QAU?$pair@KUSReserveTargetEffect@CPythonBackground@@@1@@Z DQ 00000000119930522r ; 2.33398e-314
	DD	FLAT:__unwindtable$??$insert@U?$pair@KUSReserveTargetEffect@CPythonBackground@@@std@@$0A@@?$map@KUSReserveTargetEffect@CPythonBackground@@U?$less@K@std@@V?$allocator@U?$pair@$$CBKUSReserveTargetEffect@CPythonBackground@@@std@@@4@@std@@QAE?AU?$pair@V?$_Tree_iterator@V?$_Tree_val@U?$_Tree_simple_types@U?$pair@$$CBKUSReserveTargetEffect@CPythonBackground@@@std@@@std@@@std@@@std@@_N@1@$$QAU?$pair@KUSReserveTargetEffect@CPythonBackground@@@1@@Z
	DQ	00000000000000000r		; 0
	DQ	00000000000000000r		; 0
	DQ	00000000100000000r		; 2.122e-314
__unwindtable$??$insert@U?$pair@KUSReserveTargetEffect@CPythonBackground@@@std@@$0A@@?$map@KUSReserveTargetEffect@CPythonBackground@@U?$less@K@std@@V?$allocator@U?$pair@$$CBKUSReserveTargetEffect@CPythonBackground@@@std@@@4@@std@@QAE?AU?$pair@V?$_Tree_iterator@V?$_Tree_val@U?$_Tree_simple_types@U?$pair@$$CBKUSReserveTargetEffect@CPythonBackground@@@std@@@std@@@std@@@std@@_N@1@$$QAU?$pair@KUSReserveTargetEffect@CPythonBackground@@@1@@Z DD 0ffffffffH
	DD	FLAT:__unwindfunclet$??$insert@U?$pair@KUSReserveTargetEffect@CPythonBackground@@@std@@$0A@@?$map@KUSReserveTargetEffect@CPythonBackground@@U?$less@K@std@@V?$allocator@U?$pair@$$CBKUSReserveTargetEffect@CPythonBackground@@@std@@@4@@std@@QAE?AU?$pair@V?$_Tree_iterator@V?$_Tree_val@U?$_Tree_simple_types@U?$pair@$$CBKUSReserveTargetEffect@CPythonBackground@@@std@@@std@@@std@@@std@@_N@1@$$QAU?$pair@KUSReserveTargetEffect@CPythonBackground@@@1@@Z$2
xdata$x	ENDS
;	COMDAT xdata$x
xdata$x	SEGMENT
__ehfuncinfo$??$_Emplace@ABH@?$_Tree@V?$_Tset_traits@HU?$less@H@std@@V?$allocator@H@2@$0A@@std@@@std@@IAE?AU?$pair@PAU?$_Tree_node@HPAX@std@@_N@1@ABH@Z DQ 00000000119930522r ; 2.33398e-314
	DD	FLAT:__unwindtable$??$_Emplace@ABH@?$_Tree@V?$_Tset_traits@HU?$less@H@std@@V?$allocator@H@2@$0A@@std@@@std@@IAE?AU?$pair@PAU?$_Tree_node@HPAX@std@@_N@1@ABH@Z
	DQ	00000000000000000r		; 0
	DQ	00000000000000000r		; 0
	DQ	00000000100000000r		; 2.122e-314
__unwindtable$??$_Emplace@ABH@?$_Tree@V?$_Tset_traits@HU?$less@H@std@@V?$allocator@H@2@$0A@@std@@@std@@IAE?AU?$pair@PAU?$_Tree_node@HPAX@std@@_N@1@ABH@Z DD 0ffffffffH
	DD	FLAT:__unwindfunclet$??$_Emplace@ABH@?$_Tree@V?$_Tset_traits@HU?$less@H@std@@V?$allocator@H@2@$0A@@std@@@std@@IAE?AU?$pair@PAU?$_Tree_node@HPAX@std@@_N@1@ABH@Z$2
xdata$x	ENDS
;	COMDAT xdata$x
xdata$x	SEGMENT
__ehfuncinfo$??$_Emplace@V?$basic_string@DU?$char_traits@D@std@@V?$allocator@D@2@@std@@@?$_Tree@V?$_Tset_traits@V?$basic_string@DU?$char_traits@D@std@@V?$allocator@D@2@@std@@U?$less@V?$basic_string@DU?$char_traits@D@std@@V?$allocator@D@2@@std@@@2@V?$allocator@V?$basic_string@DU?$char_traits@D@std@@V?$allocator@D@2@@std@@@2@$0A@@std@@@std@@IAE?AU?$pair@PAU?$_Tree_node@V?$basic_string@DU?$char_traits@D@std@@V?$allocator@D@2@@std@@PAX@std@@_N@1@$$QAV?$basic_string@DU?$char_traits@D@std@@V?$allocator@D@2@@1@@Z DQ 00000000119930522r ; 2.33398e-314
	DD	FLAT:__unwindtable$??$_Emplace@V?$basic_string@DU?$char_traits@D@std@@V?$allocator@D@2@@std@@@?$_Tree@V?$_Tset_traits@V?$basic_string@DU?$char_traits@D@std@@V?$allocator@D@2@@std@@U?$less@V?$basic_string@DU?$char_traits@D@std@@V?$allocator@D@2@@std@@@2@V?$allocator@V?$basic_string@DU?$char_traits@D@std@@V?$allocator@D@2@@std@@@2@$0A@@std@@@std@@IAE?AU?$pair@PAU?$_Tree_node@V?$basic_string@DU?$char_traits@D@std@@V?$allocator@D@2@@std@@PAX@std@@_N@1@$$QAV?$basic_string@DU?$char_traits@D@std@@V?$allocator@D@2@@1@@Z
	DQ	00000000000000000r		; 0
	DQ	00000000000000000r		; 0
	DQ	00000000100000000r		; 2.122e-314
__unwindtable$??$_Emplace@V?$basic_string@DU?$char_traits@D@std@@V?$allocator@D@2@@std@@@?$_Tree@V?$_Tset_traits@V?$basic_string@DU?$char_traits@D@std@@V?$allocator@D@2@@std@@U?$less@V?$basic_string@DU?$char_traits@D@std@@V?$allocator@D@2@@std@@@2@V?$allocator@V?$basic_string@DU?$char_traits@D@std@@V?$allocator@D@2@@std@@@2@$0A@@std@@@std@@IAE?AU?$pair@PAU?$_Tree_node@V?$basic_string@DU?$char_traits@D@std@@V?$allocator@D@2@@std@@PAX@std@@_N@1@$$QAV?$basic_string@DU?$char_traits@D@std@@V?$allocator@D@2@@1@@Z DD 0ffffffffH
	DD	FLAT:__unwindfunclet$??$_Emplace@V?$basic_string@DU?$char_traits@D@std@@V?$allocator@D@2@@std@@@?$_Tree@V?$_Tset_traits@V?$basic_string@DU?$char_traits@D@std@@V?$allocator@D@2@@std@@U?$less@V?$basic_string@DU?$char_traits@D@std@@V?$allocator@D@2@@std@@@2@V?$allocator@V?$basic_string@DU?$char_traits@D@std@@V?$allocator@D@2@@std@@@2@$0A@@std@@@std@@IAE?AU?$pair@PAU?$_Tree_node@V?$basic_string@DU?$char_traits@D@std@@V?$allocator@D@2@@std@@PAX@std@@_N@1@$$QAV?$basic_string@DU?$char_traits@D@std@@V?$allocator@D@2@@1@@Z$2
xdata$x	ENDS
;	COMDAT xdata$x
xdata$x	SEGMENT
__ehfuncinfo$??$emplace@U?$pair@KUSReserveTargetEffect@CPythonBackground@@@std@@@?$_Tree@V?$_Tmap_traits@KUSReserveTargetEffect@CPythonBackground@@U?$less@K@std@@V?$allocator@U?$pair@$$CBKUSReserveTargetEffect@CPythonBackground@@@std@@@4@$0A@@std@@@std@@QAE?AU?$pair@V?$_Tree_iterator@V?$_Tree_val@U?$_Tree_simple_types@U?$pair@$$CBKUSReserveTargetEffect@CPythonBackground@@@std@@@std@@@std@@@std@@_N@1@$$QAU?$pair@KUSReserveTargetEffect@CPythonBackground@@@1@@Z DQ 00000000119930522r ; 2.33398e-314
	DD	FLAT:__unwindtable$??$emplace@U?$pair@KUSReserveTargetEffect@CPythonBackground@@@std@@@?$_Tree@V?$_Tmap_traits@KUSReserveTargetEffect@CPythonBackground@@U?$less@K@std@@V?$allocator@U?$pair@$$CBKUSReserveTargetEffect@CPythonBackground@@@std@@@4@$0A@@std@@@std@@QAE?AU?$pair@V?$_Tree_iterator@V?$_Tree_val@U?$_Tree_simple_types@U?$pair@$$CBKUSReserveTargetEffect@CPythonBackground@@@std@@@std@@@std@@@std@@_N@1@$$QAU?$pair@KUSReserveTargetEffect@CPythonBackground@@@1@@Z
	DQ	00000000000000000r		; 0
	DQ	00000000000000000r		; 0
	DQ	00000000100000000r		; 2.122e-314
__unwindtable$??$emplace@U?$pair@KUSReserveTargetEffect@CPythonBackground@@@std@@@?$_Tree@V?$_Tmap_traits@KUSReserveTargetEffect@CPythonBackground@@U?$less@K@std@@V?$allocator@U?$pair@$$CBKUSReserveTargetEffect@CPythonBackground@@@std@@@4@$0A@@std@@@std@@QAE?AU?$pair@V?$_Tree_iterator@V?$_Tree_val@U?$_Tree_simple_types@U?$pair@$$CBKUSReserveTargetEffect@CPythonBackground@@@std@@@std@@@std@@@std@@_N@1@$$QAU?$pair@KUSReserveTargetEffect@CPythonBackground@@@1@@Z DD 0ffffffffH
	DD	FLAT:__unwindfunclet$??$emplace@U?$pair@KUSReserveTargetEffect@CPythonBackground@@@std@@@?$_Tree@V?$_Tmap_traits@KUSReserveTargetEffect@CPythonBackground@@U?$less@K@std@@V?$allocator@U?$pair@$$CBKUSReserveTargetEffect@CPythonBackground@@@std@@@4@$0A@@std@@@std@@QAE?AU?$pair@V?$_Tree_iterator@V?$_Tree_val@U?$_Tree_simple_types@U?$pair@$$CBKUSReserveTargetEffect@CPythonBackground@@@std@@@std@@@std@@@std@@_N@1@$$QAU?$pair@KUSReserveTargetEffect@CPythonBackground@@@1@@Z$2
xdata$x	ENDS
;	COMDAT xdata$x
xdata$x	SEGMENT
__ehfuncinfo$??$?0ABH@?$_Tree_temp_node@V?$allocator@U?$_Tree_node@HPAX@std@@@std@@@std@@QAE@AAV?$allocator@U?$_Tree_node@HPAX@std@@@1@PAU?$_Tree_node@HPAX@1@ABH@Z DQ 00000000119930522r ; 2.33398e-314
	DD	FLAT:__unwindtable$??$?0ABH@?$_Tree_temp_node@V?$allocator@U?$_Tree_node@HPAX@std@@@std@@@std@@QAE@AAV?$allocator@U?$_Tree_node@HPAX@std@@@1@PAU?$_Tree_node@HPAX@1@ABH@Z
	DQ	00000000000000000r		; 0
	DQ	00000000000000000r		; 0
	DQ	00000000100000000r		; 2.122e-314
__unwindtable$??$?0ABH@?$_Tree_temp_node@V?$allocator@U?$_Tree_node@HPAX@std@@@std@@@std@@QAE@AAV?$allocator@U?$_Tree_node@HPAX@std@@@1@PAU?$_Tree_node@HPAX@1@ABH@Z DD 0ffffffffH
	DD	FLAT:__unwindfunclet$??$?0ABH@?$_Tree_temp_node@V?$allocator@U?$_Tree_node@HPAX@std@@@std@@@std@@QAE@AAV?$allocator@U?$_Tree_node@HPAX@std@@@1@PAU?$_Tree_node@HPAX@1@ABH@Z$1
xdata$x	ENDS
;	COMDAT xdata$x
xdata$x	SEGMENT
__ehfuncinfo$??$?0V?$basic_string@DU?$char_traits@D@std@@V?$allocator@D@2@@std@@@?$_Tree_temp_node@V?$allocator@U?$_Tree_node@V?$basic_string@DU?$char_traits@D@std@@V?$allocator@D@2@@std@@PAX@std@@@std@@@std@@QAE@AAV?$allocator@U?$_Tree_node@V?$basic_string@DU?$char_traits@D@std@@V?$allocator@D@2@@std@@PAX@std@@@1@PAU?$_Tree_node@V?$basic_string@DU?$char_traits@D@std@@V?$allocator@D@2@@std@@PAX@1@$$QAV?$basic_string@DU?$char_traits@D@std@@V?$allocator@D@2@@1@@Z DQ 00000000119930522r ; 2.33398e-314
	DD	FLAT:__unwindtable$??$?0V?$basic_string@DU?$char_traits@D@std@@V?$allocator@D@2@@std@@@?$_Tree_temp_node@V?$allocator@U?$_Tree_node@V?$basic_string@DU?$char_traits@D@std@@V?$allocator@D@2@@std@@PAX@std@@@std@@@std@@QAE@AAV?$allocator@U?$_Tree_node@V?$basic_string@DU?$char_traits@D@std@@V?$allocator@D@2@@std@@PAX@std@@@1@PAU?$_Tree_node@V?$basic_string@DU?$char_traits@D@std@@V?$allocator@D@2@@std@@PAX@1@$$QAV?$basic_string@DU?$char_traits@D@std@@V?$allocator@D@2@@1@@Z
	DQ	00000000000000000r		; 0
	DQ	00000000000000000r		; 0
	DQ	00000000100000000r		; 2.122e-314
__unwindtable$??$?0V?$basic_string@DU?$char_traits@D@std@@V?$allocator@D@2@@std@@@?$_Tree_temp_node@V?$allocator@U?$_Tree_node@V?$basic_string@DU?$char_traits@D@std@@V?$allocator@D@2@@std@@PAX@std@@@std@@@std@@QAE@AAV?$allocator@U?$_Tree_node@V?$basic_string@DU?$char_traits@D@std@@V?$allocator@D@2@@std@@PAX@std@@@1@PAU?$_Tree_node@V?$basic_string@DU?$char_traits@D@std@@V?$allocator@D@2@@std@@PAX@1@$$QAV?$basic_string@DU?$char_traits@D@std@@V?$allocator@D@2@@1@@Z DD 0ffffffffH
	DD	FLAT:__unwindfunclet$??$?0V?$basic_string@DU?$char_traits@D@std@@V?$allocator@D@2@@std@@@?$_Tree_temp_node@V?$allocator@U?$_Tree_node@V?$basic_string@DU?$char_traits@D@std@@V?$allocator@D@2@@std@@PAX@std@@@std@@@std@@QAE@AAV?$allocator@U?$_Tree_node@V?$basic_string@DU?$char_traits@D@std@@V?$allocator@D@2@@std@@PAX@std@@@1@PAU?$_Tree_node@V?$basic_string@DU?$char_traits@D@std@@V?$allocator@D@2@@std@@PAX@1@$$QAV?$basic_string@DU?$char_traits@D@std@@V?$allocator@D@2@@1@@Z$1
xdata$x	ENDS
;	COMDAT xdata$x
xdata$x	SEGMENT
__ehfuncinfo$??$_Emplace@U?$pair@KUSReserveTargetEffect@CPythonBackground@@@std@@@?$_Tree@V?$_Tmap_traits@KUSReserveTargetEffect@CPythonBackground@@U?$less@K@std@@V?$allocator@U?$pair@$$CBKUSReserveTargetEffect@CPythonBackground@@@std@@@4@$0A@@std@@@std@@IAE?AU?$pair@PAU?$_Tree_node@U?$pair@$$CBKUSReserveTargetEffect@CPythonBackground@@@std@@PAX@std@@_N@1@$$QAU?$pair@KUSReserveTargetEffect@CPythonBackground@@@1@@Z DQ 00000000119930522r ; 2.33398e-314
	DD	FLAT:__unwindtable$??$_Emplace@U?$pair@KUSReserveTargetEffect@CPythonBackground@@@std@@@?$_Tree@V?$_Tmap_traits@KUSReserveTargetEffect@CPythonBackground@@U?$less@K@std@@V?$allocator@U?$pair@$$CBKUSReserveTargetEffect@CPythonBackground@@@std@@@4@$0A@@std@@@std@@IAE?AU?$pair@PAU?$_Tree_node@U?$pair@$$CBKUSReserveTargetEffect@CPythonBackground@@@std@@PAX@std@@_N@1@$$QAU?$pair@KUSReserveTargetEffect@CPythonBackground@@@1@@Z
	DQ	00000000000000000r		; 0
	DQ	00000000000000000r		; 0
	DQ	00000000100000000r		; 2.122e-314
__unwindtable$??$_Emplace@U?$pair@KUSReserveTargetEffect@CPythonBackground@@@std@@@?$_Tree@V?$_Tmap_traits@KUSReserveTargetEffect@CPythonBackground@@U?$less@K@std@@V?$allocator@U?$pair@$$CBKUSReserveTargetEffect@CPythonBackground@@@std@@@4@$0A@@std@@@std@@IAE?AU?$pair@PAU?$_Tree_node@U?$pair@$$CBKUSReserveTargetEffect@CPythonBackground@@@std@@PAX@std@@_N@1@$$QAU?$pair@KUSReserveTargetEffect@CPythonBackground@@@1@@Z DD 0ffffffffH
	DD	FLAT:__unwindfunclet$??$_Emplace@U?$pair@KUSReserveTargetEffect@CPythonBackground@@@std@@@?$_Tree@V?$_Tmap_traits@KUSReserveTargetEffect@CPythonBackground@@U?$less@K@std@@V?$allocator@U?$pair@$$CBKUSReserveTargetEffect@CPythonBackground@@@std@@@4@$0A@@std@@@std@@IAE?AU?$pair@PAU?$_Tree_node@U?$pair@$$CBKUSReserveTargetEffect@CPythonBackground@@@std@@PAX@std@@_N@1@$$QAU?$pair@KUSReserveTargetEffect@CPythonBackground@@@1@@Z$2
xdata$x	ENDS
;	COMDAT xdata$x
xdata$x	SEGMENT
__ehfuncinfo$??$?0U?$pair@KUSReserveTargetEffect@CPythonBackground@@@std@@@?$_Tree_temp_node@V?$allocator@U?$_Tree_node@U?$pair@$$CBKUSReserveTargetEffect@CPythonBackground@@@std@@PAX@std@@@std@@@std@@QAE@AAV?$allocator@U?$_Tree_node@U?$pair@$$CBKUSReserveTargetEffect@CPythonBackground@@@std@@PAX@std@@@1@PAU?$_Tree_node@U?$pair@$$CBKUSReserveTargetEffect@CPythonBackground@@@std@@PAX@1@$$QAU?$pair@KUSReserveTargetEffect@CPythonBackground@@@1@@Z DQ 00000000119930522r ; 2.33398e-314
	DD	FLAT:__unwindtable$??$?0U?$pair@KUSReserveTargetEffect@CPythonBackground@@@std@@@?$_Tree_temp_node@V?$allocator@U?$_Tree_node@U?$pair@$$CBKUSReserveTargetEffect@CPythonBackground@@@std@@PAX@std@@@std@@@std@@QAE@AAV?$allocator@U?$_Tree_node@U?$pair@$$CBKUSReserveTargetEffect@CPythonBackground@@@std@@PAX@std@@@1@PAU?$_Tree_node@U?$pair@$$CBKUSReserveTargetEffect@CPythonBackground@@@std@@PAX@1@$$QAU?$pair@KUSReserveTargetEffect@CPythonBackground@@@1@@Z
	DQ	00000000000000000r		; 0
	DQ	00000000000000000r		; 0
	DQ	00000000100000000r		; 2.122e-314
__unwindtable$??$?0U?$pair@KUSReserveTargetEffect@CPythonBackground@@@std@@@?$_Tree_temp_node@V?$allocator@U?$_Tree_node@U?$pair@$$CBKUSReserveTargetEffect@CPythonBackground@@@std@@PAX@std@@@std@@@std@@QAE@AAV?$allocator@U?$_Tree_node@U?$pair@$$CBKUSReserveTargetEffect@CPythonBackground@@@std@@PAX@std@@@1@PAU?$_Tree_node@U?$pair@$$CBKUSReserveTargetEffect@CPythonBackground@@@std@@PAX@1@$$QAU?$pair@KUSReserveTargetEffect@CPythonBackground@@@1@@Z DD 0ffffffffH
	DD	FLAT:__unwindfunclet$??$?0U?$pair@KUSReserveTargetEffect@CPythonBackground@@@std@@@?$_Tree_temp_node@V?$allocator@U?$_Tree_node@U?$pair@$$CBKUSReserveTargetEffect@CPythonBackground@@@std@@PAX@std@@@std@@@std@@QAE@AAV?$allocator@U?$_Tree_node@U?$pair@$$CBKUSReserveTargetEffect@CPythonBackground@@@std@@PAX@std@@@1@PAU?$_Tree_node@U?$pair@$$CBKUSReserveTargetEffect@CPythonBackground@@@std@@PAX@1@$$QAU?$pair@KUSReserveTargetEffect@CPythonBackground@@@1@@Z$1
xdata$x	ENDS
;	COMDAT xdata$x
xdata$x	SEGMENT
__ehfuncinfo$??$_Copy_nodes@$0A@@?$_Tree@V?$_Tset_traits@HU?$less@H@std@@V?$allocator@H@2@$0A@@std@@@std@@IAEPAU?$_Tree_node@HPAX@1@PAU21@0@Z DQ 00000000219930522r ; 4.45598e-314
	DD	FLAT:__unwindtable$??$_Copy_nodes@$0A@@?$_Tree@V?$_Tset_traits@HU?$less@H@std@@V?$allocator@H@2@$0A@@std@@@std@@IAEPAU?$_Tree_node@HPAX@1@PAU21@0@Z
	DQ	00000000000000000r		; 0
	DQ	00000000000000000r		; 0
	DQ	00000000100000000r		; 2.122e-314
__unwindtable$??$_Copy_nodes@$0A@@?$_Tree@V?$_Tset_traits@HU?$less@H@std@@V?$allocator@H@2@$0A@@std@@@std@@IAEPAU?$_Tree_node@HPAX@1@PAU21@0@Z DD 0ffffffffH
	DD	FLAT:__unwindfunclet$??$_Copy_nodes@$0A@@?$_Tree@V?$_Tset_traits@HU?$less@H@std@@V?$allocator@H@2@$0A@@std@@@std@@IAEPAU?$_Tree_node@HPAX@1@PAU21@0@Z$1
	DD	0ffffffffH
	DD	FLAT:__unwindfunclet$??$_Copy_nodes@$0A@@?$_Tree@V?$_Tset_traits@HU?$less@H@std@@V?$allocator@H@2@$0A@@std@@@std@@IAEPAU?$_Tree_node@HPAX@1@PAU21@0@Z$0
xdata$x	ENDS
;	COMDAT xdata$x
xdata$x	SEGMENT
__ehfuncinfo$??0?$_Tree_temp_node_alloc@V?$allocator@U?$_Tree_node@V?$basic_string@DU?$char_traits@D@std@@V?$allocator@D@2@@std@@PAX@std@@@std@@@std@@QAE@AAV?$allocator@U?$_Tree_node@V?$basic_string@DU?$char_traits@D@std@@V?$allocator@D@2@@std@@PAX@std@@@1@@Z DQ 00000000119930522r ; 2.33398e-314
	DD	FLAT:__unwindtable$??0?$_Tree_temp_node_alloc@V?$allocator@U?$_Tree_node@V?$basic_string@DU?$char_traits@D@std@@V?$allocator@D@2@@std@@PAX@std@@@std@@@std@@QAE@AAV?$allocator@U?$_Tree_node@V?$basic_string@DU?$char_traits@D@std@@V?$allocator@D@2@@std@@PAX@std@@@1@@Z
	DQ	00000000000000000r		; 0
	DQ	00000000000000000r		; 0
	DQ	00000000100000000r		; 2.122e-314
__unwindtable$??0?$_Tree_temp_node_alloc@V?$allocator@U?$_Tree_node@V?$basic_string@DU?$char_traits@D@std@@V?$allocator@D@2@@std@@PAX@std@@@std@@@std@@QAE@AAV?$allocator@U?$_Tree_node@V?$basic_string@DU?$char_traits@D@std@@V?$allocator@D@2@@std@@PAX@std@@@1@@Z DD 0ffffffffH
	DD	FLAT:__unwindfunclet$??0?$_Tree_temp_node_alloc@V?$allocator@U?$_Tree_node@V?$basic_string@DU?$char_traits@D@std@@V?$allocator@D@2@@std@@PAX@std@@@std@@@std@@QAE@AAV?$allocator@U?$_Tree_node@V?$basic_string@DU?$char_traits@D@std@@V?$allocator@D@2@@std@@PAX@std@@@1@@Z$0
xdata$x	ENDS
;	COMDAT xdata$x
xdata$x	SEGMENT
__ehfuncinfo$??0?$_Tree_temp_node_alloc@V?$allocator@U?$_Tree_node@HPAX@std@@@std@@@std@@QAE@AAV?$allocator@U?$_Tree_node@HPAX@std@@@1@@Z DQ 00000000119930522r ; 2.33398e-314
	DD	FLAT:__unwindtable$??0?$_Tree_temp_node_alloc@V?$allocator@U?$_Tree_node@HPAX@std@@@std@@@std@@QAE@AAV?$allocator@U?$_Tree_node@HPAX@std@@@1@@Z
	DQ	00000000000000000r		; 0
	DQ	00000000000000000r		; 0
	DQ	00000000100000000r		; 2.122e-314
__unwindtable$??0?$_Tree_temp_node_alloc@V?$allocator@U?$_Tree_node@HPAX@std@@@std@@@std@@QAE@AAV?$allocator@U?$_Tree_node@HPAX@std@@@1@@Z DD 0ffffffffH
	DD	FLAT:__unwindfunclet$??0?$_Tree_temp_node_alloc@V?$allocator@U?$_Tree_node@HPAX@std@@@std@@@std@@QAE@AAV?$allocator@U?$_Tree_node@HPAX@std@@@1@@Z$0
xdata$x	ENDS
;	COMDAT xdata$x
xdata$x	SEGMENT
__ehfuncinfo$??$_Copy_or_move@$0A@H@?$_Tree@V?$_Tset_traits@HU?$less@H@std@@V?$allocator@H@2@$0A@@std@@@std@@IAEPAU?$_Tree_node@HPAX@1@AAH@Z DQ 00000000119930522r ; 2.33398e-314
	DD	FLAT:__unwindtable$??$_Copy_or_move@$0A@H@?$_Tree@V?$_Tset_traits@HU?$less@H@std@@V?$allocator@H@2@$0A@@std@@@std@@IAEPAU?$_Tree_node@HPAX@1@AAH@Z
	DQ	00000000000000000r		; 0
	DQ	00000000000000000r		; 0
	DQ	00000000100000000r		; 2.122e-314
__unwindtable$??$_Copy_or_move@$0A@H@?$_Tree@V?$_Tset_traits@HU?$less@H@std@@V?$allocator@H@2@$0A@@std@@@std@@IAEPAU?$_Tree_node@HPAX@1@AAH@Z DD 0ffffffffH
	DD	FLAT:__unwindfunclet$??$_Copy_or_move@$0A@H@?$_Tree@V?$_Tset_traits@HU?$less@H@std@@V?$allocator@H@2@$0A@@std@@@std@@IAEPAU?$_Tree_node@HPAX@1@AAH@Z$0
xdata$x	ENDS
;	COMDAT xdata$x
xdata$x	SEGMENT
__ehfuncinfo$??0?$_Tree_temp_node_alloc@V?$allocator@U?$_Tree_node@U?$pair@$$CBKUSReserveTargetEffect@CPythonBackground@@@std@@PAX@std@@@std@@@std@@QAE@AAV?$allocator@U?$_Tree_node@U?$pair@$$CBKUSReserveTargetEffect@CPythonBackground@@@std@@PAX@std@@@1@@Z DQ 00000000119930522r ; 2.33398e-314
	DD	FLAT:__unwindtable$??0?$_Tree_temp_node_alloc@V?$allocator@U?$_Tree_node@U?$pair@$$CBKUSReserveTargetEffect@CPythonBackground@@@std@@PAX@std@@@std@@@std@@QAE@AAV?$allocator@U?$_Tree_node@U?$pair@$$CBKUSReserveTargetEffect@CPythonBackground@@@std@@PAX@std@@@1@@Z
	DQ	00000000000000000r		; 0
	DQ	00000000000000000r		; 0
	DQ	00000000100000000r		; 2.122e-314
__unwindtable$??0?$_Tree_temp_node_alloc@V?$allocator@U?$_Tree_node@U?$pair@$$CBKUSReserveTargetEffect@CPythonBackground@@@std@@PAX@std@@@std@@@std@@QAE@AAV?$allocator@U?$_Tree_node@U?$pair@$$CBKUSReserveTargetEffect@CPythonBackground@@@std@@PAX@std@@@1@@Z DD 0ffffffffH
	DD	FLAT:__unwindfunclet$??0?$_Tree_temp_node_alloc@V?$allocator@U?$_Tree_node@U?$pair@$$CBKUSReserveTargetEffect@CPythonBackground@@@std@@PAX@std@@@std@@@std@@QAE@AAV?$allocator@U?$_Tree_node@U?$pair@$$CBKUSReserveTargetEffect@CPythonBackground@@@std@@PAX@std@@@1@@Z$0
xdata$x	ENDS
;	COMDAT xdata$x
xdata$x	SEGMENT
__ehfuncinfo$??$_Buynode@AAH@?$_Tree@V?$_Tset_traits@HU?$less@H@std@@V?$allocator@H@2@$0A@@std@@@std@@IAEPAU?$_Tree_node@HPAX@1@AAH@Z DQ 00000000119930522r ; 2.33398e-314
	DD	FLAT:__unwindtable$??$_Buynode@AAH@?$_Tree@V?$_Tset_traits@HU?$less@H@std@@V?$allocator@H@2@$0A@@std@@@std@@IAEPAU?$_Tree_node@HPAX@1@AAH@Z
	DQ	00000000000000000r		; 0
	DQ	00000000000000000r		; 0
	DQ	00000000100000000r		; 2.122e-314
__unwindtable$??$_Buynode@AAH@?$_Tree@V?$_Tset_traits@HU?$less@H@std@@V?$allocator@H@2@$0A@@std@@@std@@IAEPAU?$_Tree_node@HPAX@1@AAH@Z DD 0ffffffffH
	DD	FLAT:__unwindfunclet$??$_Buynode@AAH@?$_Tree@V?$_Tset_traits@HU?$less@H@std@@V?$allocator@H@2@$0A@@std@@@std@@IAEPAU?$_Tree_node@HPAX@1@AAH@Z$0
xdata$x	ENDS
;	COMDAT xdata$x
xdata$x	SEGMENT
__ehfuncinfo$??$_Buynode@V?$allocator@U?$_Tree_node@HPAX@std@@@std@@AAH@?$_Tree_node@HPAX@std@@SAPAU01@AAV?$allocator@U?$_Tree_node@HPAX@std@@@1@PAU01@AAH@Z DQ 00000000119930522r ; 2.33398e-314
	DD	FLAT:__unwindtable$??$_Buynode@V?$allocator@U?$_Tree_node@HPAX@std@@@std@@AAH@?$_Tree_node@HPAX@std@@SAPAU01@AAV?$allocator@U?$_Tree_node@HPAX@std@@@1@PAU01@AAH@Z
	DQ	00000000000000000r		; 0
	DQ	00000000000000000r		; 0
	DQ	00000000100000000r		; 2.122e-314
__unwindtable$??$_Buynode@V?$allocator@U?$_Tree_node@HPAX@std@@@std@@AAH@?$_Tree_node@HPAX@std@@SAPAU01@AAV?$allocator@U?$_Tree_node@HPAX@std@@@1@PAU01@AAH@Z DD 0ffffffffH
	DD	FLAT:__unwindfunclet$??$_Buynode@V?$allocator@U?$_Tree_node@HPAX@std@@@std@@AAH@?$_Tree_node@HPAX@std@@SAPAU01@AAV?$allocator@U?$_Tree_node@HPAX@std@@@1@PAU01@AAH@Z$0
?g_strEffectName$initializer$@@3P6AXXZA DD FLAT:??__Eg_strEffectName@@YAXXZ ; g_strEffectName$initializer$
END
