; Listing generated by Microsoft (R) Optimizing Compiler Version 19.44.35219.0 

	TITLE	c:\anka2project\anka2project\source\binary\vs_files\userinterface\release\pythonnetworkstreamphaseselect.obj
	.686P
	.XMM
	include listing.inc
	.model	flat

INCLUDELIB OLDNAMES

PUBLIC	??_C@_0BN@HMHBDFBF@?$CD?$CD?5Network?5?9?5Select?5Phase?5?$CD?$CD@ ; `string'
PUBLIC	??_C@_0BI@OHJNHIAD@SetSelectCharacterPhase@	; `string'
PUBLIC	??_C@_0BA@FHNDCDDK@SetLoadingPhase@		; `string'
PUBLIC	??_C@_0BP@MCDDNHPB@SendSelectEmpirePacket?5?9?5Error@ ; `string'
PUBLIC	??_C@_0BF@BJJJIJOC@SetSelectEmpirePhase@	; `string'
PUBLIC	??_C@_0CE@MAKBOJI@Failed?5to?5SendCreateCharacterPa@ ; `string'
PUBLIC	??_C@_0CC@LCEFGOOP@SendSelectCharacterPacket?5?9?5Err@ ; `string'
PUBLIC	??_C@_0GF@HIGNNGB@CPythonNetworkStream?3?3RecvPlaye@ ; `string'
PUBLIC	??_C@_0BP@NACAEM@Failed?5to?5SendChangeNamePacket@ ; `string'
PUBLIC	??_C@_0BA@JBAEOLGH@OnCreateFailure@		; `string'
PUBLIC	??_C@_0BA@FIEGFADN@OnCreateSuccess@		; `string'
PUBLIC	??_C@_0BA@BAMNKIDG@OnDeleteFailure@		; `string'
PUBLIC	??_C@_0BA@NJIPBDGM@OnDeleteSuccess@		; `string'
PUBLIC	??_C@_0N@ICACADKM@OnChangeName@			; `string'
;	COMDAT ??_C@_0N@ICACADKM@OnChangeName@
CONST	SEGMENT
??_C@_0N@ICACADKM@OnChangeName@ DB 'OnChangeName', 00H	; `string'
CONST	ENDS
;	COMDAT ??_C@_0BA@NJIPBDGM@OnDeleteSuccess@
CONST	SEGMENT
??_C@_0BA@NJIPBDGM@OnDeleteSuccess@ DB 'OnDeleteSuccess', 00H ; `string'
CONST	ENDS
;	COMDAT ??_C@_0BA@BAMNKIDG@OnDeleteFailure@
CONST	SEGMENT
??_C@_0BA@BAMNKIDG@OnDeleteFailure@ DB 'OnDeleteFailure', 00H ; `string'
CONST	ENDS
;	COMDAT ??_C@_0BA@FIEGFADN@OnCreateSuccess@
CONST	SEGMENT
??_C@_0BA@FIEGFADN@OnCreateSuccess@ DB 'OnCreateSuccess', 00H ; `string'
CONST	ENDS
;	COMDAT ??_C@_0BA@JBAEOLGH@OnCreateFailure@
CONST	SEGMENT
??_C@_0BA@JBAEOLGH@OnCreateFailure@ DB 'OnCreateFailure', 00H ; `string'
CONST	ENDS
;	COMDAT ??_C@_0BP@NACAEM@Failed?5to?5SendChangeNamePacket@
CONST	SEGMENT
??_C@_0BP@NACAEM@Failed?5to?5SendChangeNamePacket@ DB 'Failed to SendChan'
	DB	'geNamePacket', 00H				; `string'
CONST	ENDS
;	COMDAT ??_C@_0GF@HIGNNGB@CPythonNetworkStream?3?3RecvPlaye@
CONST	SEGMENT
??_C@_0GF@HIGNNGB@CPythonNetworkStream?3?3RecvPlaye@ DB 'CPythonNetworkSt'
	DB	'ream::RecvPlayerCreateSuccessPacket - OUT OF RANGE SLOT(%d) >'
	DB	' PLATER_PER_ACCOUNT(%d)', 00H		; `string'
CONST	ENDS
;	COMDAT ??_C@_0CC@LCEFGOOP@SendSelectCharacterPacket?5?9?5Err@
CONST	SEGMENT
??_C@_0CC@LCEFGOOP@SendSelectCharacterPacket?5?9?5Err@ DB 'SendSelectChar'
	DB	'acterPacket - Error', 00H			; `string'
CONST	ENDS
;	COMDAT ??_C@_0CE@MAKBOJI@Failed?5to?5SendCreateCharacterPa@
CONST	SEGMENT
??_C@_0CE@MAKBOJI@Failed?5to?5SendCreateCharacterPa@ DB 'Failed to SendCr'
	DB	'eateCharacterPacket', 00H			; `string'
CONST	ENDS
;	COMDAT ??_C@_0BF@BJJJIJOC@SetSelectEmpirePhase@
CONST	SEGMENT
??_C@_0BF@BJJJIJOC@SetSelectEmpirePhase@ DB 'SetSelectEmpirePhase', 00H ; `string'
CONST	ENDS
;	COMDAT ??_C@_0BP@MCDDNHPB@SendSelectEmpirePacket?5?9?5Error@
CONST	SEGMENT
??_C@_0BP@MCDDNHPB@SendSelectEmpirePacket?5?9?5Error@ DB 'SendSelectEmpir'
	DB	'ePacket - Error', 00H			; `string'
CONST	ENDS
;	COMDAT ??_C@_0BA@FHNDCDDK@SetLoadingPhase@
CONST	SEGMENT
??_C@_0BA@FHNDCDDK@SetLoadingPhase@ DB 'SetLoadingPhase', 00H ; `string'
CONST	ENDS
;	COMDAT ??_C@_0BI@OHJNHIAD@SetSelectCharacterPhase@
CONST	SEGMENT
??_C@_0BI@OHJNHIAD@SetSelectCharacterPhase@ DB 'SetSelectCharacterPhase', 00H ; `string'
CONST	ENDS
;	COMDAT ??_C@_0BN@HMHBDFBF@?$CD?$CD?5Network?5?9?5Select?5Phase?5?$CD?$CD@
CONST	SEGMENT
??_C@_0BN@HMHBDFBF@?$CD?$CD?5Network?5?9?5Select?5Phase?5?$CD?$CD@ DB '##'
	DB	' Network - Select Phase ##', 00H		; `string'
PUBLIC	?__RecvChangeName@CPythonNetworkStream@@IAE_NXZ	; CPythonNetworkStream::__RecvChangeName
PUBLIC	?__RecvPlayerDestroyFailurePacket@CPythonNetworkStream@@IAE_NXZ ; CPythonNetworkStream::__RecvPlayerDestroyFailurePacket
PUBLIC	?__RecvPlayerDestroySuccessPacket@CPythonNetworkStream@@IAE_NXZ ; CPythonNetworkStream::__RecvPlayerDestroySuccessPacket
PUBLIC	?__RecvPlayerCreateFailurePacket@CPythonNetworkStream@@IAE_NXZ ; CPythonNetworkStream::__RecvPlayerCreateFailurePacket
PUBLIC	?__RecvPlayerCreateSuccessPacket@CPythonNetworkStream@@IAE_NXZ ; CPythonNetworkStream::__RecvPlayerCreateSuccessPacket
PUBLIC	?SelectPhase@CPythonNetworkStream@@IAEXXZ	; CPythonNetworkStream::SelectPhase
PUBLIC	?__LeaveSelectPhase@CPythonNetworkStream@@IAEXXZ ; CPythonNetworkStream::__LeaveSelectPhase
PUBLIC	?SendSelectEmpirePacket@CPythonNetworkStream@@QAE_NK@Z ; CPythonNetworkStream::SendSelectEmpirePacket
PUBLIC	?SendSelectCharacterPacket@CPythonNetworkStream@@QAE_NE@Z ; CPythonNetworkStream::SendSelectCharacterPacket
PUBLIC	?SendChangeNamePacket@CPythonNetworkStream@@QAE_NEPBD@Z ; CPythonNetworkStream::SendChangeNamePacket
PUBLIC	?SendCreateCharacterPacket@CPythonNetworkStream@@QAE_NEPBDEEEEEE@Z ; CPythonNetworkStream::SendCreateCharacterPacket
PUBLIC	?SendDestroyCharacterPacket@CPythonNetworkStream@@QAE_NEPBD@Z ; CPythonNetworkStream::SendDestroyCharacterPacket
PUBLIC	?SetSelectPhase@CPythonNetworkStream@@QAEXXZ	; CPythonNetworkStream::SetSelectPhase
; Function compile flags: /Ogtp
; File C:\Anka2Project\Anka2Project\Source\Binary\source\UserInterface\PythonNetworkStreamPhaseSelect.cpp
; File C:\Program Files\Microsoft Visual Studio\2022\Community\VC\Tools\MSVC\14.44.35207\include\xstring
; File C:\Anka2Project\Anka2Project\Source\Binary\source\UserInterface\PythonNetworkStreamPhaseSelect.cpp
; File C:\Anka2Project\Anka2Project\Source\Binary\source\EterLib\FuncObject.h
; File C:\Anka2Project\Anka2Project\Source\Binary\source\UserInterface\PythonNetworkStreamPhaseSelect.cpp
; File C:\Program Files\Microsoft Visual Studio\2022\Community\VC\Tools\MSVC\14.44.35207\include\xstring
; File C:\Anka2Project\Anka2Project\Source\Binary\source\UserInterface\PythonNetworkStreamPhaseSelect.cpp
; File C:\Anka2Project\Anka2Project\Source\Binary\source\EterLib\FuncObject.h
; File C:\Anka2Project\Anka2Project\Source\Binary\source\UserInterface\PythonNetworkStreamPhaseSelect.cpp
;	COMDAT ?SetSelectPhase@CPythonNetworkStream@@QAEXXZ
_TEXT	SEGMENT
?SetSelectPhase@CPythonNetworkStream@@QAEXXZ PROC	; CPythonNetworkStream::SetSelectPhase, COMDAT
; _this$ = ecx

; 10   : {

  00000	51		 push	 ecx
  00001	56		 push	 esi
  00002	8b f1		 mov	 esi, ecx
  00004	57		 push	 edi
; File C:\Program Files\Microsoft Visual Studio\2022\Community\VC\Tools\MSVC\14.44.35207\include\xstring

; 453  :         return _Myres > _Small_string_capacity;

  00005	83 be 28 01 00
	00 0f		 cmp	 DWORD PTR [esi+296], 15	; 0000000fH

; 444  :         const value_type* _Result = _Bx._Buf;

  0000c	8d 86 14 01 00
	00		 lea	 eax, DWORD PTR [esi+276]

; 445  :         if (_Large_mode_engaged()) {

  00012	76 06		 jbe	 SHORT $LN20@SetSelectP

; 446  :             _Result = _Unfancy(_Bx._Ptr);

  00014	8b 86 14 01 00
	00		 mov	 eax, DWORD PTR [esi+276]
$LN20@SetSelectP:

; 2854 :         return _Traits_equal<_Traits>(_Mypair._Myval2._Myptr(), _Mypair._Myval2._Mysize, _Ptr, _Traits::length(_Ptr));

  0001a	6a 06		 push	 6
  0001c	68 00 00 00 00	 push	 OFFSET ??_C@_06HJGPBJLE@Select@
  00021	ff b6 24 01 00
	00		 push	 DWORD PTR [esi+292]
  00027	50		 push	 eax
  00028	e8 00 00 00 00	 call	 ??$_Traits_equal@U?$char_traits@D@std@@@std@@YA_NQBDI0I@Z ; std::_Traits_equal<std::char_traits<char> >
  0002d	83 c4 10	 add	 esp, 16			; 00000010H
; File C:\Anka2Project\Anka2Project\Source\Binary\source\UserInterface\PythonNetworkStreamPhaseSelect.cpp

; 11   : 	if ("Select" != m_strPhase)

  00030	84 c0		 test	 al, al
  00032	75 1e		 jne	 SHORT $LN28@SetSelectP
; File C:\Anka2Project\Anka2Project\Source\Binary\source\EterLib\FuncObject.h

; 41   : 			if (m_pSelfObject)

  00034	8b 86 70 01 00
	00		 mov	 eax, DWORD PTR [esi+368]
  0003a	85 c0		 test	 eax, eax
  0003c	74 14		 je	 SHORT $LN28@SetSelectP

; 42   : 				if (m_pFuncObject)

  0003e	8b 96 78 01 00
	00		 mov	 edx, DWORD PTR [esi+376]
  00044	85 d2		 test	 edx, edx
  00046	74 0a		 je	 SHORT $LN28@SetSelectP

; 43   : 					(m_pSelfObject->*m_pFuncObject)();

  00048	8b 8e 7c 01 00
	00		 mov	 ecx, DWORD PTR [esi+380]
  0004e	03 c8		 add	 ecx, eax
  00050	ff d2		 call	 edx
$LN28@SetSelectP:
; File C:\Anka2Project\Anka2Project\Source\Binary\source\UserInterface\PythonNetworkStreamPhaseSelect.cpp

; 14   : 	Tracen("");

  00052	68 00 00 00 00	 push	 OFFSET ??_C@_00CNPNBAHC@@
  00057	e8 00 00 00 00	 call	 ?Tracen@@YAXPBD@Z	; Tracen
  0005c	83 c4 04	 add	 esp, 4

; 15   : 	Tracen("## Network - Select Phase ##");

  0005f	68 00 00 00 00	 push	 OFFSET ??_C@_0BN@HMHBDFBF@?$CD?$CD?5Network?5?9?5Select?5Phase?5?$CD?$CD@
  00064	e8 00 00 00 00	 call	 ?Tracen@@YAXPBD@Z	; Tracen
  00069	83 c4 04	 add	 esp, 4

; 16   : 	Tracen("");

  0006c	68 00 00 00 00	 push	 OFFSET ??_C@_00CNPNBAHC@@
  00071	e8 00 00 00 00	 call	 ?Tracen@@YAXPBD@Z	; Tracen
  00076	83 c4 04	 add	 esp, 4
; File C:\Program Files\Microsoft Visual Studio\2022\Community\VC\Tools\MSVC\14.44.35207\include\xstring

; 1638 :         return assign(_Ptr, _Convert_size<size_type>(_Traits::length(_Ptr)));

  00079	8d 8e 14 01 00
	00		 lea	 ecx, DWORD PTR [esi+276]
  0007f	6a 06		 push	 6
  00081	68 00 00 00 00	 push	 OFFSET ??_C@_06HJGPBJLE@Select@
  00086	e8 00 00 00 00	 call	 ?assign@?$basic_string@DU?$char_traits@D@std@@V?$allocator@D@2@@std@@QAEAAV12@QBDI@Z ; std::basic_string<char,std::char_traits<char>,std::allocator<char> >::assign
; File C:\Anka2Project\Anka2Project\Source\Binary\source\UserInterface\PythonNetworkStreamPhaseSelect.cpp

; 20   : 	SetSecurityMode(true, (const char *) g_adwEncryptKey, (const char *) g_adwDecryptKey);

  0008b	68 00 00 00 00	 push	 OFFSET ?g_adwDecryptKey@@3PAKA ; g_adwDecryptKey
  00090	68 00 00 00 00	 push	 OFFSET ?g_adwEncryptKey@@3PAKA ; g_adwEncryptKey
  00095	6a 01		 push	 1
  00097	8b ce		 mov	 ecx, esi
  00099	e8 00 00 00 00	 call	 ?SetSecurityMode@CNetworkStream@@QAEX_NPBD1@Z ; CNetworkStream::SetSecurityMode

; 21   : 
; 22   : 	m_dwChangingPhaseTime = ELTimer_GetMSec();

  0009e	e8 00 00 00 00	 call	 ?ELTimer_GetMSec@@YAKXZ	; ELTimer_GetMSec
  000a3	89 86 8c 00 00
	00		 mov	 DWORD PTR [esi+140], eax

; 26   : 	if (__DirectEnterMode_IsSet())

  000a9	8b ce		 mov	 ecx, esi
; File C:\Anka2Project\Anka2Project\Source\Binary\source\EterLib\FuncObject.h

; 24   : 			m_pSelfObject = pSelfObject;

  000ab	89 b6 58 01 00
	00		 mov	 DWORD PTR [esi+344], esi

; 25   : 			m_pFuncObject = pFuncObject;

  000b1	c7 86 60 01 00
	00 00 00 00 00	 mov	 DWORD PTR [esi+352], OFFSET ?SelectPhase@CPythonNetworkStream@@IAEXXZ ; CPythonNetworkStream::SelectPhase
  000bb	c7 86 64 01 00
	00 00 00 00 00	 mov	 DWORD PTR [esi+356], 0

; 24   : 			m_pSelfObject = pSelfObject;

  000c5	89 b6 70 01 00
	00		 mov	 DWORD PTR [esi+368], esi

; 25   : 			m_pFuncObject = pFuncObject;

  000cb	c7 86 78 01 00
	00 00 00 00 00	 mov	 DWORD PTR [esi+376], OFFSET ?__LeaveSelectPhase@CPythonNetworkStream@@IAEXXZ ; CPythonNetworkStream::__LeaveSelectPhase
  000d5	c7 86 7c 01 00
	00 00 00 00 00	 mov	 DWORD PTR [esi+380], 0
; File C:\Anka2Project\Anka2Project\Source\Binary\source\UserInterface\PythonNetworkStreamPhaseSelect.cpp

; 26   : 	if (__DirectEnterMode_IsSet())

  000df	e8 00 00 00 00	 call	 ?__DirectEnterMode_IsSet@CPythonNetworkStream@@AAE_NXZ ; CPythonNetworkStream::__DirectEnterMode_IsSet
  000e4	84 c0		 test	 al, al
  000e6	74 59		 je	 SHORT $LN3@SetSelectP

; 27   : 	{
; 28   : #ifdef ENABLE_CLIENT_PERFORMANCE
; 29   : 		if (__DirectEnterMode_IsWarp())

  000e8	e8 00 00 00 00	 call	 ?__DirectEnterMode_IsWarp@CPythonNetworkStream@@AAE_NXZ ; CPythonNetworkStream::__DirectEnterMode_IsWarp
  000ed	84 c0		 test	 al, al
  000ef	74 29		 je	 SHORT $LN5@SetSelectP

; 30   : 			PyCallClassMemberFunc(m_poHandler, "SetLoadingPhase", Py_BuildValue("(i)", 1));

  000f1	6a 01		 push	 1
  000f3	68 00 00 00 00	 push	 OFFSET ??_C@_03LIHNMIHG@?$CIi?$CJ@
  000f8	ff 15 00 00 00
	00		 call	 DWORD PTR __imp__Py_BuildValue
  000fe	83 c4 08	 add	 esp, 8

; 34   : 	}

  00101	bf 00 00 00 00	 mov	 edi, OFFSET ??_C@_0BA@FHNDCDDK@SetLoadingPhase@

; 41   : 	}
; 42   : }

  00106	50		 push	 eax
  00107	57		 push	 edi
  00108	ff b6 80 01 00
	00		 push	 DWORD PTR [esi+384]
  0010e	e8 00 00 00 00	 call	 ?PyCallClassMemberFunc@@YA_NPAU_object@@PBD0@Z ; PyCallClassMemberFunc
  00113	83 c4 0c	 add	 esp, 12			; 0000000cH
  00116	5f		 pop	 edi
  00117	5e		 pop	 esi
  00118	59		 pop	 ecx
  00119	c3		 ret	 0
$LN5@SetSelectP:

; 31   : 		else
; 32   : #endif
; 33   : 			PyCallClassMemberFunc(m_poHandler, "SetLoadingPhase", Py_BuildValue("()"));

  0011a	68 00 00 00 00	 push	 OFFSET ??_C@_02HCKGKOFO@?$CI?$CJ@
  0011f	ff 15 00 00 00
	00		 call	 DWORD PTR __imp__Py_BuildValue
  00125	83 c4 04	 add	 esp, 4

; 34   : 	}

  00128	bf 00 00 00 00	 mov	 edi, OFFSET ??_C@_0BA@FHNDCDDK@SetLoadingPhase@

; 41   : 	}
; 42   : }

  0012d	50		 push	 eax
  0012e	57		 push	 edi
  0012f	ff b6 80 01 00
	00		 push	 DWORD PTR [esi+384]
  00135	e8 00 00 00 00	 call	 ?PyCallClassMemberFunc@@YA_NPAU_object@@PBD0@Z ; PyCallClassMemberFunc
  0013a	83 c4 0c	 add	 esp, 12			; 0000000cH
  0013d	5f		 pop	 edi
  0013e	5e		 pop	 esi
  0013f	59		 pop	 ecx
  00140	c3		 ret	 0
$LN3@SetSelectP:

; 35   : 	else
; 36   : 	{
; 37   : 		if (IsSelectedEmpire())

  00141	e8 00 00 00 00	 call	 ?IsSelectedEmpire@CPythonNetworkStream@@QAE_NXZ ; CPythonNetworkStream::IsSelectedEmpire

; 38   : 			PyCallClassMemberFunc(m_poHandler, "SetSelectCharacterPhase", Py_BuildValue("()"));

  00146	bf 00 00 00 00	 mov	 edi, OFFSET ??_C@_0BI@OHJNHIAD@SetSelectCharacterPhase@
  0014b	68 00 00 00 00	 push	 OFFSET ??_C@_02HCKGKOFO@?$CI?$CJ@
  00150	84 c0		 test	 al, al
  00152	75 05		 jne	 SHORT $LN47@SetSelectP

; 39   : 		else
; 40   : 			PyCallClassMemberFunc(m_poHandler, "SetSelectEmpirePhase", Py_BuildValue("()"));

  00154	bf 00 00 00 00	 mov	 edi, OFFSET ??_C@_0BF@BJJJIJOC@SetSelectEmpirePhase@
$LN47@SetSelectP:

; 41   : 	}
; 42   : }

  00159	ff 15 00 00 00
	00		 call	 DWORD PTR __imp__Py_BuildValue
  0015f	83 c4 04	 add	 esp, 4
  00162	50		 push	 eax
  00163	57		 push	 edi
  00164	ff b6 80 01 00
	00		 push	 DWORD PTR [esi+384]
  0016a	e8 00 00 00 00	 call	 ?PyCallClassMemberFunc@@YA_NPAU_object@@PBD0@Z ; PyCallClassMemberFunc
  0016f	83 c4 0c	 add	 esp, 12			; 0000000cH
  00172	5f		 pop	 edi
  00173	5e		 pop	 esi
  00174	59		 pop	 ecx
  00175	c3		 ret	 0
?SetSelectPhase@CPythonNetworkStream@@QAEXXZ ENDP	; CPythonNetworkStream::SetSelectPhase
_TEXT	ENDS
; Function compile flags: /Ogtp
; File C:\Anka2Project\Anka2Project\Source\Binary\source\UserInterface\PythonNetworkStreamPhaseSelect.cpp
;	COMDAT ?__RecvPlayerCreateSuccessPacket@CPythonNetworkStream@@IAE_NXZ
_TEXT	SEGMENT
_kCreateSuccessPacket$ = -108				; size = 102
__$ArrayPad$ = -4					; size = 4
?__RecvPlayerCreateSuccessPacket@CPythonNetworkStream@@IAE_NXZ PROC ; CPythonNetworkStream::__RecvPlayerCreateSuccessPacket, COMDAT
; _this$ = ecx

; 214  : {

  00000	55		 push	 ebp
  00001	8b ec		 mov	 ebp, esp
  00003	83 ec 6c	 sub	 esp, 108		; 0000006cH
  00006	a1 00 00 00 00	 mov	 eax, DWORD PTR ___security_cookie
  0000b	33 c5		 xor	 eax, ebp
  0000d	89 45 fc	 mov	 DWORD PTR __$ArrayPad$[ebp], eax
  00010	53		 push	 ebx

; 215  : 	TPacketGCPlayerCreateSuccess kCreateSuccessPacket;
; 216  : 
; 217  : 	if (!Recv(sizeof(kCreateSuccessPacket), &kCreateSuccessPacket))

  00011	8d 45 94	 lea	 eax, DWORD PTR _kCreateSuccessPacket$[ebp]
  00014	8b d9		 mov	 ebx, ecx
  00016	50		 push	 eax
  00017	6a 66		 push	 102			; 00000066H
  00019	e8 00 00 00 00	 call	 ?Recv@CNetworkStream@@QAE_NHPAX@Z ; CNetworkStream::Recv
  0001e	84 c0		 test	 al, al
  00020	75 0f		 jne	 SHORT $LN2@RecvPlayer
  00022	5b		 pop	 ebx

; 229  : 	return true;
; 230  : }

  00023	8b 4d fc	 mov	 ecx, DWORD PTR __$ArrayPad$[ebp]
  00026	33 cd		 xor	 ecx, ebp
  00028	e8 00 00 00 00	 call	 @__security_check_cookie@4
  0002d	8b e5		 mov	 esp, ebp
  0002f	5d		 pop	 ebp
  00030	c3		 ret	 0
$LN2@RecvPlayer:

; 218  : 		return false;
; 219  : 
; 220  : 	if (kCreateSuccessPacket.bAccountCharacterSlot>=PLAYER_PER_ACCOUNT4)

  00031	8a 45 95	 mov	 al, BYTE PTR _kCreateSuccessPacket$[ebp+1]
  00034	3c 05		 cmp	 al, 5
  00036	0f b6 c0	 movzx	 eax, al
  00039	72 21		 jb	 SHORT $LN3@RecvPlayer

; 221  : 	{
; 222  : 		TraceError("CPythonNetworkStream::RecvPlayerCreateSuccessPacket - OUT OF RANGE SLOT(%d) > PLATER_PER_ACCOUNT(%d)",

  0003b	6a 05		 push	 5
  0003d	50		 push	 eax
  0003e	68 00 00 00 00	 push	 OFFSET ??_C@_0GF@HIGNNGB@CPythonNetworkStream?3?3RecvPlaye@
  00043	e8 00 00 00 00	 call	 ?TraceError@@YAXPBDZZ	; TraceError
  00048	83 c4 0c	 add	 esp, 12			; 0000000cH

; 229  : 	return true;
; 230  : }

  0004b	b0 01		 mov	 al, 1
  0004d	5b		 pop	 ebx
  0004e	8b 4d fc	 mov	 ecx, DWORD PTR __$ArrayPad$[ebp]
  00051	33 cd		 xor	 ecx, ebp
  00053	e8 00 00 00 00	 call	 @__security_check_cookie@4
  00058	8b e5		 mov	 esp, ebp
  0005a	5d		 pop	 ebp
  0005b	c3		 ret	 0
$LN3@RecvPlayer:
  0005c	56		 push	 esi
  0005d	57		 push	 edi

; 223  : 			kCreateSuccessPacket.bAccountCharacterSlot, PLAYER_PER_ACCOUNT4);
; 224  : 		return true;
; 225  : 	}
; 226  : 
; 227  : 	m_akSimplePlayerInfo[kCreateSuccessPacket.bAccountCharacterSlot]=kCreateSuccessPacket.kSimplePlayerInfomation;

  0005e	6b f8 64	 imul	 edi, eax, 100
  00061	8d 75 96	 lea	 esi, DWORD PTR _kCreateSuccessPacket$[ebp+2]
  00064	b9 19 00 00 00	 mov	 ecx, 25			; 00000019H

; 228  : 	PyCallClassMemberFunc(m_apoPhaseWnd[PHASE_WINDOW_CREATE], "OnCreateSuccess", Py_BuildValue("()"));

  00069	68 00 00 00 00	 push	 OFFSET ??_C@_02HCKGKOFO@?$CI?$CJ@
  0006e	81 c7 a4 01 00
	00		 add	 edi, 420		; 000001a4H
  00074	03 fb		 add	 edi, ebx
  00076	f3 a5		 rep movsd
  00078	ff 15 00 00 00
	00		 call	 DWORD PTR __imp__Py_BuildValue
  0007e	50		 push	 eax
  0007f	68 00 00 00 00	 push	 OFFSET ??_C@_0BA@FIEGFADN@OnCreateSuccess@
  00084	ff b3 90 01 00
	00		 push	 DWORD PTR [ebx+400]
  0008a	e8 00 00 00 00	 call	 ?PyCallClassMemberFunc@@YA_NPAU_object@@PBD0@Z ; PyCallClassMemberFunc

; 229  : 	return true;
; 230  : }

  0008f	8b 4d fc	 mov	 ecx, DWORD PTR __$ArrayPad$[ebp]
  00092	83 c4 10	 add	 esp, 16			; 00000010H
  00095	33 cd		 xor	 ecx, ebp
  00097	b0 01		 mov	 al, 1
  00099	5f		 pop	 edi
  0009a	5e		 pop	 esi
  0009b	5b		 pop	 ebx
  0009c	e8 00 00 00 00	 call	 @__security_check_cookie@4
  000a1	8b e5		 mov	 esp, ebp
  000a3	5d		 pop	 ebp
  000a4	c3		 ret	 0
?__RecvPlayerCreateSuccessPacket@CPythonNetworkStream@@IAE_NXZ ENDP ; CPythonNetworkStream::__RecvPlayerCreateSuccessPacket
_TEXT	ENDS
; Function compile flags: /Ogtp
; File C:\Anka2Project\Anka2Project\Source\Binary\source\UserInterface\PythonNetworkStreamPhaseSelect.cpp
;	COMDAT ?__RecvPlayerCreateFailurePacket@CPythonNetworkStream@@IAE_NXZ
_TEXT	SEGMENT
_packet$ = -4						; size = 2
?__RecvPlayerCreateFailurePacket@CPythonNetworkStream@@IAE_NXZ PROC ; CPythonNetworkStream::__RecvPlayerCreateFailurePacket, COMDAT
; _this$ = ecx

; 233  : {

  00000	55		 push	 ebp
  00001	8b ec		 mov	 ebp, esp
  00003	51		 push	 ecx
  00004	57		 push	 edi

; 234  : 	TPacketGCCreateFailure packet;
; 235  : 
; 236  : 	if (!Recv(sizeof(TPacketGCCreateFailure), &packet))

  00005	8d 45 fc	 lea	 eax, DWORD PTR _packet$[ebp]
  00008	8b f9		 mov	 edi, ecx
  0000a	50		 push	 eax
  0000b	6a 02		 push	 2
  0000d	e8 00 00 00 00	 call	 ?Recv@CNetworkStream@@QAE_NHPAX@Z ; CNetworkStream::Recv
  00012	84 c0		 test	 al, al
  00014	75 05		 jne	 SHORT $LN2@RecvPlayer
  00016	5f		 pop	 edi

; 242  : }

  00017	8b e5		 mov	 esp, ebp
  00019	5d		 pop	 ebp
  0001a	c3		 ret	 0
$LN2@RecvPlayer:

; 237  : 		return false;
; 238  : 
; 239  : 	PyCallClassMemberFunc(m_apoPhaseWnd[PHASE_WINDOW_CREATE], "OnCreateFailure", Py_BuildValue("(i)", packet.bType));

  0001b	0f b6 45 fd	 movzx	 eax, BYTE PTR _packet$[ebp+1]
  0001f	50		 push	 eax
  00020	68 00 00 00 00	 push	 OFFSET ??_C@_03LIHNMIHG@?$CIi?$CJ@
  00025	ff 15 00 00 00
	00		 call	 DWORD PTR __imp__Py_BuildValue
  0002b	50		 push	 eax
  0002c	68 00 00 00 00	 push	 OFFSET ??_C@_0BA@JBAEOLGH@OnCreateFailure@
  00031	ff b7 90 01 00
	00		 push	 DWORD PTR [edi+400]
  00037	e8 00 00 00 00	 call	 ?PyCallClassMemberFunc@@YA_NPAU_object@@PBD0@Z ; PyCallClassMemberFunc

; 240  : 	PyCallClassMemberFunc(m_apoPhaseWnd[PHASE_WINDOW_SELECT], "OnCreateFailure", Py_BuildValue("(i)", packet.bType));

  0003c	0f b6 45 fd	 movzx	 eax, BYTE PTR _packet$[ebp+1]
  00040	50		 push	 eax
  00041	68 00 00 00 00	 push	 OFFSET ??_C@_03LIHNMIHG@?$CIi?$CJ@
  00046	ff 15 00 00 00
	00		 call	 DWORD PTR __imp__Py_BuildValue
  0004c	50		 push	 eax
  0004d	68 00 00 00 00	 push	 OFFSET ??_C@_0BA@JBAEOLGH@OnCreateFailure@
  00052	ff b7 8c 01 00
	00		 push	 DWORD PTR [edi+396]
  00058	e8 00 00 00 00	 call	 ?PyCallClassMemberFunc@@YA_NPAU_object@@PBD0@Z ; PyCallClassMemberFunc
  0005d	83 c4 28	 add	 esp, 40			; 00000028H

; 241  : 	return true;

  00060	b0 01		 mov	 al, 1
  00062	5f		 pop	 edi

; 242  : }

  00063	8b e5		 mov	 esp, ebp
  00065	5d		 pop	 ebp
  00066	c3		 ret	 0
?__RecvPlayerCreateFailurePacket@CPythonNetworkStream@@IAE_NXZ ENDP ; CPythonNetworkStream::__RecvPlayerCreateFailurePacket
_TEXT	ENDS
; Function compile flags: /Ogtp
; File C:\Anka2Project\Anka2Project\Source\Binary\source\UserInterface\PythonNetworkStreamPhaseSelect.cpp
; File C:\Program Files\Microsoft Visual Studio\2022\Community\VC\Tools\MSVC\14.44.35207\include\xstring
; File C:\Anka2Project\Anka2Project\Source\Binary\source\UserInterface\PythonNetworkStreamPhaseSelect.cpp
; File C:\Program Files\Microsoft Visual Studio\2022\Community\VC\Tools\MSVC\14.44.35207\include\xstring
; File C:\Anka2Project\Anka2Project\Source\Binary\source\UserInterface\PythonNetworkStreamPhaseSelect.cpp
;	COMDAT ?__RecvPlayerDestroySuccessPacket@CPythonNetworkStream@@IAE_NXZ
_TEXT	SEGMENT
_packet$ = -4						; size = 2
?__RecvPlayerDestroySuccessPacket@CPythonNetworkStream@@IAE_NXZ PROC ; CPythonNetworkStream::__RecvPlayerDestroySuccessPacket, COMDAT
; _this$ = ecx

; 245  : {

  00000	55		 push	 ebp
  00001	8b ec		 mov	 ebp, esp
  00003	51		 push	 ecx
  00004	56		 push	 esi

; 246  : 	TPacketGCDestroyCharacterSuccess packet;
; 247  : 	if (!Recv(sizeof(TPacketGCDestroyCharacterSuccess), &packet))

  00005	8d 45 fc	 lea	 eax, DWORD PTR _packet$[ebp]
  00008	8b f1		 mov	 esi, ecx
  0000a	50		 push	 eax
  0000b	6a 02		 push	 2
  0000d	e8 00 00 00 00	 call	 ?Recv@CNetworkStream@@QAE_NHPAX@Z ; CNetworkStream::Recv
  00012	84 c0		 test	 al, al
  00014	75 05		 jne	 SHORT $LN2@RecvPlayer
  00016	5e		 pop	 esi

; 256  : }

  00017	8b e5		 mov	 esp, ebp
  00019	5d		 pop	 ebp
  0001a	c3		 ret	 0
$LN2@RecvPlayer:

; 248  : 		return false;
; 249  : 
; 250  : 	memset(&m_akSimplePlayerInfo[packet.account_index], 0, sizeof(m_akSimplePlayerInfo[packet.account_index]));

  0001b	0f b6 45 fd	 movzx	 eax, BYTE PTR _packet$[ebp+1]
  0001f	6b c0 64	 imul	 eax, eax, 100
  00022	6a 64		 push	 100			; 00000064H
  00024	6a 00		 push	 0
  00026	05 a4 01 00 00	 add	 eax, 420		; 000001a4H
  0002b	03 c6		 add	 eax, esi
  0002d	50		 push	 eax
  0002e	e8 00 00 00 00	 call	 _memset

; 251  : 	m_adwGuildID[packet.account_index] = 0;

  00033	0f b6 45 fd	 movzx	 eax, BYTE PTR _packet$[ebp+1]
  00037	83 c4 0c	 add	 esp, 12			; 0000000cH
  0003a	c7 84 86 98 03
	00 00 00 00 00
	00		 mov	 DWORD PTR [esi+eax*4+920], 0

; 252  : 	m_astrGuildName[packet.account_index] = "";

  00045	0f b6 45 fd	 movzx	 eax, BYTE PTR _packet$[ebp+1]
; File C:\Program Files\Microsoft Visual Studio\2022\Community\VC\Tools\MSVC\14.44.35207\include\xstring

; 1638 :         return assign(_Ptr, _Convert_size<size_type>(_Traits::length(_Ptr)));

  00049	6a 00		 push	 0
  0004b	68 00 00 00 00	 push	 OFFSET ??_C@_00CNPNBAHC@@
; File C:\Anka2Project\Anka2Project\Source\Binary\source\UserInterface\PythonNetworkStreamPhaseSelect.cpp

; 252  : 	m_astrGuildName[packet.account_index] = "";

  00050	8d 04 40	 lea	 eax, DWORD PTR [eax+eax*2]
  00053	8d 0c c5 ac 03
	00 00		 lea	 ecx, DWORD PTR [eax*8+940]
  0005a	03 ce		 add	 ecx, esi
; File C:\Program Files\Microsoft Visual Studio\2022\Community\VC\Tools\MSVC\14.44.35207\include\xstring

; 1638 :         return assign(_Ptr, _Convert_size<size_type>(_Traits::length(_Ptr)));

  0005c	e8 00 00 00 00	 call	 ?assign@?$basic_string@DU?$char_traits@D@std@@V?$allocator@D@2@@std@@QAEAAV12@QBDI@Z ; std::basic_string<char,std::char_traits<char>,std::allocator<char> >::assign
; File C:\Anka2Project\Anka2Project\Source\Binary\source\UserInterface\PythonNetworkStreamPhaseSelect.cpp

; 254  : 	PyCallClassMemberFunc(m_apoPhaseWnd[PHASE_WINDOW_SELECT], "OnDeleteSuccess", Py_BuildValue("(i)", packet.account_index));

  00061	0f b6 45 fd	 movzx	 eax, BYTE PTR _packet$[ebp+1]
  00065	50		 push	 eax
  00066	68 00 00 00 00	 push	 OFFSET ??_C@_03LIHNMIHG@?$CIi?$CJ@
  0006b	ff 15 00 00 00
	00		 call	 DWORD PTR __imp__Py_BuildValue
  00071	50		 push	 eax
  00072	68 00 00 00 00	 push	 OFFSET ??_C@_0BA@NJIPBDGM@OnDeleteSuccess@
  00077	ff b6 8c 01 00
	00		 push	 DWORD PTR [esi+396]
  0007d	e8 00 00 00 00	 call	 ?PyCallClassMemberFunc@@YA_NPAU_object@@PBD0@Z ; PyCallClassMemberFunc
  00082	83 c4 14	 add	 esp, 20			; 00000014H

; 255  : 	return true;

  00085	b0 01		 mov	 al, 1
  00087	5e		 pop	 esi

; 256  : }

  00088	8b e5		 mov	 esp, ebp
  0008a	5d		 pop	 ebp
  0008b	c3		 ret	 0
?__RecvPlayerDestroySuccessPacket@CPythonNetworkStream@@IAE_NXZ ENDP ; CPythonNetworkStream::__RecvPlayerDestroySuccessPacket
_TEXT	ENDS
; Function compile flags: /Ogtp
; File C:\Anka2Project\Anka2Project\Source\Binary\source\UserInterface\PythonNetworkStreamPhaseSelect.cpp
;	COMDAT ?__RecvPlayerDestroyFailurePacket@CPythonNetworkStream@@IAE_NXZ
_TEXT	SEGMENT
_packet_blank$ = -1					; size = 1
?__RecvPlayerDestroyFailurePacket@CPythonNetworkStream@@IAE_NXZ PROC ; CPythonNetworkStream::__RecvPlayerDestroyFailurePacket, COMDAT
; _this$ = ecx

; 259  : {

  00000	55		 push	 ebp
  00001	8b ec		 mov	 ebp, esp
  00003	51		 push	 ecx
  00004	56		 push	 esi

; 260  : 	TPacketGCBlank packet_blank;
; 261  : 	if (!Recv(sizeof(TPacketGCBlank), &packet_blank))

  00005	8d 45 ff	 lea	 eax, DWORD PTR _packet_blank$[ebp]
  00008	8b f1		 mov	 esi, ecx
  0000a	50		 push	 eax
  0000b	6a 01		 push	 1
  0000d	e8 00 00 00 00	 call	 ?Recv@CNetworkStream@@QAE_NHPAX@Z ; CNetworkStream::Recv
  00012	84 c0		 test	 al, al
  00014	75 05		 jne	 SHORT $LN2@RecvPlayer
  00016	5e		 pop	 esi

; 266  : }

  00017	8b e5		 mov	 esp, ebp
  00019	5d		 pop	 ebp
  0001a	c3		 ret	 0
$LN2@RecvPlayer:

; 262  : 		return false;
; 263  : 
; 264  : 	PyCallClassMemberFunc(m_apoPhaseWnd[PHASE_WINDOW_SELECT], "OnDeleteFailure", Py_BuildValue("()"));

  0001b	68 00 00 00 00	 push	 OFFSET ??_C@_02HCKGKOFO@?$CI?$CJ@
  00020	ff 15 00 00 00
	00		 call	 DWORD PTR __imp__Py_BuildValue
  00026	50		 push	 eax
  00027	68 00 00 00 00	 push	 OFFSET ??_C@_0BA@BAMNKIDG@OnDeleteFailure@
  0002c	ff b6 8c 01 00
	00		 push	 DWORD PTR [esi+396]
  00032	e8 00 00 00 00	 call	 ?PyCallClassMemberFunc@@YA_NPAU_object@@PBD0@Z ; PyCallClassMemberFunc
  00037	83 c4 10	 add	 esp, 16			; 00000010H

; 265  : 	return true;

  0003a	b0 01		 mov	 al, 1
  0003c	5e		 pop	 esi

; 266  : }

  0003d	8b e5		 mov	 esp, ebp
  0003f	5d		 pop	 ebp
  00040	c3		 ret	 0
?__RecvPlayerDestroyFailurePacket@CPythonNetworkStream@@IAE_NXZ ENDP ; CPythonNetworkStream::__RecvPlayerDestroyFailurePacket
_TEXT	ENDS
; Function compile flags: /Ogtp
; File C:\Anka2Project\Anka2Project\Source\Binary\source\UserInterface\PythonNetworkStreamPhaseSelect.cpp
;	COMDAT ?__RecvChangeName@CPythonNetworkStream@@IAE_NXZ
_TEXT	SEGMENT
_ChangeNamePacket$ = -60				; size = 54
__$ArrayPad$ = -4					; size = 4
?__RecvChangeName@CPythonNetworkStream@@IAE_NXZ PROC	; CPythonNetworkStream::__RecvChangeName, COMDAT
; _this$ = ecx

; 269  : {

  00000	55		 push	 ebp
  00001	8b ec		 mov	 ebp, esp
  00003	83 ec 3c	 sub	 esp, 60			; 0000003cH
  00006	a1 00 00 00 00	 mov	 eax, DWORD PTR ___security_cookie
  0000b	33 c5		 xor	 eax, ebp
  0000d	89 45 fc	 mov	 DWORD PTR __$ArrayPad$[ebp], eax
  00010	57		 push	 edi

; 270  : 	TPacketGCChangeName ChangeNamePacket;
; 271  : 	if (!Recv(sizeof(TPacketGCChangeName), &ChangeNamePacket))

  00011	8d 45 c4	 lea	 eax, DWORD PTR _ChangeNamePacket$[ebp]
  00014	8b f9		 mov	 edi, ecx
  00016	50		 push	 eax
  00017	6a 36		 push	 54			; 00000036H
  00019	e8 00 00 00 00	 call	 ?Recv@CNetworkStream@@QAE_NHPAX@Z ; CNetworkStream::Recv
  0001e	84 c0		 test	 al, al
  00020	75 0f		 jne	 SHORT $LN5@RecvChange
  00022	5f		 pop	 edi

; 287  : 	return true;
; 288  : }

  00023	8b 4d fc	 mov	 ecx, DWORD PTR __$ArrayPad$[ebp]
  00026	33 cd		 xor	 ecx, ebp
  00028	e8 00 00 00 00	 call	 @__security_check_cookie@4
  0002d	8b e5		 mov	 esp, ebp
  0002f	5d		 pop	 ebp
  00030	c3		 ret	 0
$LN5@RecvChange:

; 272  : 		return false;
; 273  : 
; 274  : 	for (int i = 0; i < PLAYER_PER_ACCOUNT4; ++i)

  00031	8b 45 c5	 mov	 eax, DWORD PTR _ChangeNamePacket$[ebp+1]
  00034	8b cf		 mov	 ecx, edi
  00036	56		 push	 esi
  00037	33 f6		 xor	 esi, esi
  00039	0f 1f 80 00 00
	00 00		 npad	 7
$LL4@RecvChange:

; 275  : 	{
; 276  : 		if (ChangeNamePacket.pid == m_akSimplePlayerInfo[i].dwID)

  00040	3b 81 a4 01 00
	00		 cmp	 eax, DWORD PTR [ecx+420]
  00046	74 3c		 je	 SHORT $LN9@RecvChange

; 272  : 		return false;
; 273  : 
; 274  : 	for (int i = 0; i < PLAYER_PER_ACCOUNT4; ++i)

  00048	46		 inc	 esi
  00049	83 c1 64	 add	 ecx, 100		; 00000064H
  0004c	83 fe 05	 cmp	 esi, 5
  0004f	7c ef		 jl	 SHORT $LL4@RecvChange

; 282  : 			return true;
; 283  : 		}
; 284  : 	}
; 285  : 
; 286  : 	PyCallClassMemberFunc(m_apoPhaseWnd[PHASE_WINDOW_SELECT], "OnCreateFailure", Py_BuildValue("(i)", 100));

  00051	6a 64		 push	 100			; 00000064H
  00053	68 00 00 00 00	 push	 OFFSET ??_C@_03LIHNMIHG@?$CIi?$CJ@
  00058	ff 15 00 00 00
	00		 call	 DWORD PTR __imp__Py_BuildValue
  0005e	50		 push	 eax
  0005f	68 00 00 00 00	 push	 OFFSET ??_C@_0BA@JBAEOLGH@OnCreateFailure@
  00064	ff b7 8c 01 00
	00		 push	 DWORD PTR [edi+396]
  0006a	e8 00 00 00 00	 call	 ?PyCallClassMemberFunc@@YA_NPAU_object@@PBD0@Z ; PyCallClassMemberFunc
  0006f	83 c4 14	 add	 esp, 20			; 00000014H
  00072	b0 01		 mov	 al, 1
  00074	5e		 pop	 esi
  00075	5f		 pop	 edi

; 287  : 	return true;
; 288  : }

  00076	8b 4d fc	 mov	 ecx, DWORD PTR __$ArrayPad$[ebp]
  00079	33 cd		 xor	 ecx, ebp
  0007b	e8 00 00 00 00	 call	 @__security_check_cookie@4
  00080	8b e5		 mov	 esp, ebp
  00082	5d		 pop	 ebp
  00083	c3		 ret	 0
$LN9@RecvChange:

; 277  : 		{
; 278  : 			m_akSimplePlayerInfo[i].bChangeName = FALSE;

  00084	6b c6 64	 imul	 eax, esi, 100

; 279  : 			strncpy(m_akSimplePlayerInfo[i].szName, ChangeNamePacket.name, CHARACTER_NAME_MAX_LEN);

  00087	6a 30		 push	 48			; 00000030H
  00089	c6 84 38 e8 01
	00 00 00	 mov	 BYTE PTR [eax+edi+488], 0
  00091	8d 45 c9	 lea	 eax, DWORD PTR _ChangeNamePacket$[ebp+5]
  00094	50		 push	 eax
  00095	8d 81 a8 01 00
	00		 lea	 eax, DWORD PTR [ecx+424]
  0009b	50		 push	 eax
  0009c	e8 00 00 00 00	 call	 _strncpy

; 280  : 
; 281  : 			PyCallClassMemberFunc(m_apoPhaseWnd[PHASE_WINDOW_SELECT], "OnChangeName", Py_BuildValue("(is)", i, ChangeNamePacket.name));

  000a1	8d 45 c9	 lea	 eax, DWORD PTR _ChangeNamePacket$[ebp+5]
  000a4	50		 push	 eax
  000a5	56		 push	 esi
  000a6	68 00 00 00 00	 push	 OFFSET ??_C@_04JMLDJNEM@?$CIis?$CJ@
  000ab	ff 15 00 00 00
	00		 call	 DWORD PTR __imp__Py_BuildValue
  000b1	50		 push	 eax
  000b2	68 00 00 00 00	 push	 OFFSET ??_C@_0N@ICACADKM@OnChangeName@
  000b7	ff b7 8c 01 00
	00		 push	 DWORD PTR [edi+396]
  000bd	e8 00 00 00 00	 call	 ?PyCallClassMemberFunc@@YA_NPAU_object@@PBD0@Z ; PyCallClassMemberFunc

; 287  : 	return true;
; 288  : }

  000c2	8b 4d fc	 mov	 ecx, DWORD PTR __$ArrayPad$[ebp]
  000c5	83 c4 24	 add	 esp, 36			; 00000024H
  000c8	33 cd		 xor	 ecx, ebp
  000ca	b0 01		 mov	 al, 1
  000cc	5e		 pop	 esi
  000cd	5f		 pop	 edi
  000ce	e8 00 00 00 00	 call	 @__security_check_cookie@4
  000d3	8b e5		 mov	 esp, ebp
  000d5	5d		 pop	 ebp
  000d6	c3		 ret	 0
?__RecvChangeName@CPythonNetworkStream@@IAE_NXZ ENDP	; CPythonNetworkStream::__RecvChangeName
_TEXT	ENDS
END
