; Listing generated by Microsoft (R) Optimizing Compiler Version 19.44.35219.0 

	TITLE	c:\anka2project\anka2project\source\binary\vs_files\userinterface\release\pythonchatmodule.obj
	.686P
	.XMM
	include listing.inc
	.model	flat

INCLUDELIB OLDNAMES

PUBLIC	??_C@_01JLIPDDHJ@?3@				; `string'
PUBLIC	??_C@_04NHONDGDE@item@				; `string'
PUBLIC	??_C@_0BE@FGPADLIF@item?3?$CFx?3?$CFx?3?$CFx?3?$CFx?3?$CFx@ ; `string'
PUBLIC	??_C@_03JIENEPND@?3?$CFx@			; `string'
PUBLIC	??_C@_09CNFFNIIC@?3?$CFx?3?$CFI64d@		; `string'
PUBLIC	??_C@_0BJ@DABMGIOF@?$HMcffffc700?$HMH?$CFs?$HMh?$FL?$CFs?$FN?$HMh?$HMr@ ; `string'
PUBLIC	??_C@_0BJ@GPGFNPLK@?$HMcfff1e6c0?$HMH?$CFs?$HMh?$FL?$CFs?$FN?$HMh?$HMr@ ; `string'
PUBLIC	??_C@_07JBIAKDEF@petitem@			; `string'
PUBLIC	??_C@_0BI@NGAOBLBO@petitem?3?$CFx?3?$CFx?3?$CFx?3?$CFx?3?$CFx?3@ ; `string'
PUBLIC	??_C@_0DD@IEBFDDBJ@?$CFx?3?$CFx?3?$CFx?3?$CFx?3?$CFx?3?$CFx?3?$CFx?3?$CFx?3?$CFx?3?$CFx?3?$CF@ ; `string'
PUBLIC	??_C@_04OHHBHOGB@link@				; `string'
PUBLIC	??_C@_0BF@BFMJHLLJ@?$HMcffc9c0f1?$HMH?$HMh?$CFs?$HMh?$HMr@ ; `string'
PUBLIC	??_C@_0N@JBENFECF@SetChatColor@			; `string'
PUBLIC	??_C@_05LGELBCGM@Close@				; `string'
PUBLIC	??_C@_0O@NIPGGDN@CreateChatSet@			; `string'
PUBLIC	??_C@_0O@HLECNMMJ@SetBoardState@		; `string'
PUBLIC	??_C@_0M@GKIFPNAD@SetPosition@			; `string'
PUBLIC	??_C@_09GACBKIFI@SetHeight@			; `string'
PUBLIC	??_C@_07PCIEAKML@SetStep@			; `string'
PUBLIC	??_C@_0P@HJNLNPCF@ToggleChatMode@		; `string'
PUBLIC	??_C@_0P@CBALNCDJ@EnableChatMode@		; `string'
PUBLIC	??_C@_0BA@PMFEPLLL@DisableChatMode@		; `string'
PUBLIC	??_C@_09LEFDLNLA@SetEndPos@			; `string'
PUBLIC	??_C@_0N@GBIDIHNF@GetLineCount@			; `string'
PUBLIC	??_C@_0BE@ECGLNJIP@GetVisibleLineCount@		; `string'
PUBLIC	??_C@_0M@JAIPGIEI@GetLineStep@			; `string'
PUBLIC	??_C@_0L@LGDEPKMK@AppendChat@			; `string'
PUBLIC	??_C@_0BE@OLLFFMAP@AppendChatWithDelay@		; `string'
PUBLIC	??_C@_0BD@PGAGKLIB@ArrangeShowingChat@		; `string'
PUBLIC	??_C@_0BA@BCMJCJOO@AppendChatStack@		; `string'
PUBLIC	??_C@_0N@JBGFLEMA@GetChatStack@			; `string'
PUBLIC	??_C@_0BB@FDOJPLAM@GetChatStackSize@		; `string'
PUBLIC	??_C@_0BA@OBLLPMIK@IgnoreCharacter@		; `string'
PUBLIC	??_C@_0BC@BPLLIFOI@IsIgnoreCharacter@		; `string'
PUBLIC	??_C@_0O@EPNAKAMH@CreateWhisper@		; `string'
PUBLIC	??_C@_0O@MNHHDNCN@AppendWhisper@		; `string'
PUBLIC	??_C@_0O@HNBBBAHN@RenderWhisper@		; `string'
PUBLIC	??_C@_0BC@IEABADGD@SetWhisperBoxSize@		; `string'
PUBLIC	??_C@_0BD@NNNKEDJK@SetWhisperPosition@		; `string'
PUBLIC	??_C@_0N@FCHOFFAF@ClearWhisper@			; `string'
PUBLIC	??_C@_0M@OFOGDKFP@InitWhisper@			; `string'
PUBLIC	??_C@_0BF@BJFLHIAM@GetLinkFromHyperlink@	; `string'
PUBLIC	??_C@_0BA@JBMPABDF@SetFontNameChat@		; `string'
PUBLIC	??_C@_0P@DNBCPKOP@SaveEmojisChat@		; `string'
PUBLIC	??_C@_04BLJLMHHG@chat@				; `string'
PUBLIC	??_C@_0BC@EHLMCJH@CHAT_TYPE_TALKING@		; `string'
PUBLIC	??_C@_0P@MIHHHBMP@CHAT_TYPE_INFO@		; `string'
PUBLIC	??_C@_0BB@KFACLMJA@CHAT_TYPE_NOTICE@		; `string'
PUBLIC	??_C@_0BA@JOLAGJG@CHAT_TYPE_PARTY@		; `string'
PUBLIC	??_C@_0BA@OIBJELLN@CHAT_TYPE_GUILD@		; `string'
PUBLIC	??_C@_0BC@IILPNMNB@CHAT_TYPE_COMMAND@		; `string'
PUBLIC	??_C@_0BA@JEHAINHB@CHAT_TYPE_SHOUT@		; `string'
PUBLIC	??_C@_0BC@JMANMLH@CHAT_TYPE_WHISPER@		; `string'
PUBLIC	??_C@_0BF@NJACMDGO@CHAT_TYPE_BIG_NOTICE@	; `string'
PUBLIC	??_C@_0BE@EHFCCBJP@CHAT_TYPE_DICE_INFO@		; `string'
PUBLIC	??_C@_0BJ@CPCGKEGJ@CHAT_TYPE_CONTROL_NOTICE@	; `string'
PUBLIC	??_C@_0BC@LIEDKBDG@WHISPER_TYPE_CHAT@		; `string'
PUBLIC	??_C@_0BE@KODPENDJ@WHISPER_TYPE_SYSTEM@		; `string'
PUBLIC	??_C@_0BA@KLIHGMFD@WHISPER_TYPE_GM@		; `string'
PUBLIC	??_C@_0BB@OJGJMFKD@BOARD_STATE_VIEW@		; `string'
PUBLIC	??_C@_0BB@BOHEFKIL@BOARD_STATE_EDIT@		; `string'
PUBLIC	??_C@_0BA@PGHAPLJK@BOARD_STATE_LOG@		; `string'
PUBLIC	??_C@_0BF@FCHEGAKH@CHAT_SET_CHAT_WINDOW@	; `string'
PUBLIC	??_C@_0BE@OPDJLJMH@CHAT_SET_LOG_WINDOW@		; `string'
EXTRN	?GetName@CItemData@@QBEPBDXZ:PROC		; CItemData::GetName
EXTRN	__atoi64:PROC
EXTRN	?split_string@@YAHABV?$basic_string@DU?$char_traits@D@std@@V?$allocator@D@2@@std@@0AAV?$vector@V?$basic_string@DU?$char_traits@D@std@@V?$allocator@D@2@@std@@V?$allocator@V?$basic_string@DU?$char_traits@D@std@@V?$allocator@D@2@@std@@@2@@2@_N@Z:PROC ; split_string
;	COMDAT ?s_methods@?1??initChat@@YAXXZ@4PAUPyMethodDef@@A
_DATA	SEGMENT
?s_methods@?1??initChat@@YAXXZ@4PAUPyMethodDef@@A DD FLAT:??_C@_0N@JBENFECF@SetChatColor@ ; `initChat'::`2'::s_methods
	DD	FLAT:?chatSetChatColor@@YAPAU_object@@PAU1@0@Z
	DD	01H
	ORG $+4
	DD	FLAT:??_C@_05MDNHABIA@Clear@
	DD	FLAT:?chatClear@@YAPAU_object@@PAU1@0@Z
	DD	01H
	ORG $+4
	DD	FLAT:??_C@_05LGELBCGM@Close@
	DD	FLAT:?chatClose@@YAPAU_object@@PAU1@0@Z
	DD	01H
	ORG $+4
	DD	FLAT:??_C@_0O@NIPGGDN@CreateChatSet@
	DD	FLAT:?chatCreateChatSet@@YAPAU_object@@PAU1@0@Z
	DD	01H
	ORG $+4
	DD	FLAT:??_C@_06LMAGPFNF@Update@
	DD	FLAT:?chatUpdate@@YAPAU_object@@PAU1@0@Z
	DD	01H
	ORG $+4
	DD	FLAT:??_C@_06EPLDPNDB@Render@
	DD	FLAT:?chatRender@@YAPAU_object@@PAU1@0@Z
	DD	01H
	ORG $+4
	DD	FLAT:??_C@_0O@HLECNMMJ@SetBoardState@
	DD	FLAT:?chatSetBoardState@@YAPAU_object@@PAU1@0@Z
	DD	01H
	ORG $+4
	DD	FLAT:??_C@_0M@GKIFPNAD@SetPosition@
	DD	FLAT:?chatSetPosition@@YAPAU_object@@PAU1@0@Z
	DD	01H
	ORG $+4
	DD	FLAT:??_C@_09GACBKIFI@SetHeight@
	DD	FLAT:?chatSetHeight@@YAPAU_object@@PAU1@0@Z
	DD	01H
	ORG $+4
	DD	FLAT:??_C@_07PCIEAKML@SetStep@
	DD	FLAT:?chatSetStep@@YAPAU_object@@PAU1@0@Z
	DD	01H
	ORG $+4
	DD	FLAT:??_C@_0P@HJNLNPCF@ToggleChatMode@
	DD	FLAT:?chatToggleChatMode@@YAPAU_object@@PAU1@0@Z
	DD	01H
	ORG $+4
	DD	FLAT:??_C@_0P@CBALNCDJ@EnableChatMode@
	DD	FLAT:?chatEnableChatMode@@YAPAU_object@@PAU1@0@Z
	DD	01H
	ORG $+4
	DD	FLAT:??_C@_0BA@PMFEPLLL@DisableChatMode@
	DD	FLAT:?chatDisableChatMode@@YAPAU_object@@PAU1@0@Z
	DD	01H
	ORG $+4
	DD	FLAT:??_C@_09LEFDLNLA@SetEndPos@
	DD	FLAT:?chatSetEndPos@@YAPAU_object@@PAU1@0@Z
	DD	01H
	ORG $+4
	DD	FLAT:??_C@_0N@GBIDIHNF@GetLineCount@
	DD	FLAT:?chatGetLineCount@@YAPAU_object@@PAU1@0@Z
	DD	01H
	ORG $+4
	DD	FLAT:??_C@_0BE@ECGLNJIP@GetVisibleLineCount@
	DD	FLAT:?chatGetVisibleLineCount@@YAPAU_object@@PAU1@0@Z
	DD	01H
	ORG $+4
	DD	FLAT:??_C@_0M@JAIPGIEI@GetLineStep@
	DD	FLAT:?chatGetLineStep@@YAPAU_object@@PAU1@0@Z
	DD	01H
	ORG $+4
	DD	FLAT:??_C@_0L@LGDEPKMK@AppendChat@
	DD	FLAT:?chatAppendChat@@YAPAU_object@@PAU1@0@Z
	DD	01H
	ORG $+4
	DD	FLAT:??_C@_0BE@OLLFFMAP@AppendChatWithDelay@
	DD	FLAT:?chatAppendChatWithDelay@@YAPAU_object@@PAU1@0@Z
	DD	01H
	ORG $+4
	DD	FLAT:??_C@_0BD@PGAGKLIB@ArrangeShowingChat@
	DD	FLAT:?chatArrangeShowingChat@@YAPAU_object@@PAU1@0@Z
	DD	01H
	ORG $+4
	DD	FLAT:??_C@_0BA@BCMJCJOO@AppendChatStack@
	DD	FLAT:?chatAppendChatStack@@YAPAU_object@@PAU1@0@Z
	DD	01H
	ORG $+4
	DD	FLAT:??_C@_0N@JBGFLEMA@GetChatStack@
	DD	FLAT:?chatGetChatStack@@YAPAU_object@@PAU1@0@Z
	DD	01H
	ORG $+4
	DD	FLAT:??_C@_0BB@FDOJPLAM@GetChatStackSize@
	DD	FLAT:?chatGetChatStackSize@@YAPAU_object@@PAU1@0@Z
	DD	01H
	ORG $+4
	DD	FLAT:??_C@_0BA@OBLLPMIK@IgnoreCharacter@
	DD	FLAT:?chatIgnoreCharacter@@YAPAU_object@@PAU1@0@Z
	DD	01H
	ORG $+4
	DD	FLAT:??_C@_0BC@BPLLIFOI@IsIgnoreCharacter@
	DD	FLAT:?chatIsIgnoreCharacter@@YAPAU_object@@PAU1@0@Z
	DD	01H
	ORG $+4
	DD	FLAT:??_C@_0O@EPNAKAMH@CreateWhisper@
	DD	FLAT:?chatCreateWhisper@@YAPAU_object@@PAU1@0@Z
	DD	01H
	ORG $+4
	DD	FLAT:??_C@_0O@MNHHDNCN@AppendWhisper@
	DD	FLAT:?chatAppendWhisper@@YAPAU_object@@PAU1@0@Z
	DD	01H
	ORG $+4
	DD	FLAT:??_C@_0O@HNBBBAHN@RenderWhisper@
	DD	FLAT:?chatRenderWhisper@@YAPAU_object@@PAU1@0@Z
	DD	01H
	ORG $+4
	DD	FLAT:??_C@_0BC@IEABADGD@SetWhisperBoxSize@
	DD	FLAT:?chatSetWhisperBoxSize@@YAPAU_object@@PAU1@0@Z
	DD	01H
	ORG $+4
	DD	FLAT:??_C@_0BD@NNNKEDJK@SetWhisperPosition@
	DD	FLAT:?chatSetWhisperPosition@@YAPAU_object@@PAU1@0@Z
	DD	01H
	ORG $+4
	DD	FLAT:??_C@_0N@FCHOFFAF@ClearWhisper@
	DD	FLAT:?chatClearWhisper@@YAPAU_object@@PAU1@0@Z
	DD	01H
	ORG $+4
	DD	FLAT:??_C@_0M@OFOGDKFP@InitWhisper@
	DD	FLAT:?chatInitWhisper@@YAPAU_object@@PAU1@0@Z
	DD	01H
	ORG $+4
	DD	FLAT:??_C@_0BF@BJFLHIAM@GetLinkFromHyperlink@
	DD	FLAT:?chatGetLinkFromHyperlink@@YAPAU_object@@PAU1@0@Z
	DD	01H
	ORG $+4
	DD	FLAT:??_C@_0BA@JBMPABDF@SetFontNameChat@
	DD	FLAT:?chatSetFontNameChat@@YAPAU_object@@PAU1@0@Z
	DD	01H
	ORG $+4
	DD	FLAT:??_C@_0P@DNBCPKOP@SaveEmojisChat@
	DD	FLAT:?chatSaveEmojisChat@@YAPAU_object@@PAU1@0@Z
	DD	01H
	ORG $+4
	DD	00H
	DD	00H
	ORG $+8
_DATA	ENDS
;	COMDAT ??_C@_0BE@OPDJLJMH@CHAT_SET_LOG_WINDOW@
CONST	SEGMENT
??_C@_0BE@OPDJLJMH@CHAT_SET_LOG_WINDOW@ DB 'CHAT_SET_LOG_WINDOW', 00H ; `string'
CONST	ENDS
;	COMDAT ??_C@_0BF@FCHEGAKH@CHAT_SET_CHAT_WINDOW@
CONST	SEGMENT
??_C@_0BF@FCHEGAKH@CHAT_SET_CHAT_WINDOW@ DB 'CHAT_SET_CHAT_WINDOW', 00H ; `string'
CONST	ENDS
;	COMDAT ??_C@_0BA@PGHAPLJK@BOARD_STATE_LOG@
CONST	SEGMENT
??_C@_0BA@PGHAPLJK@BOARD_STATE_LOG@ DB 'BOARD_STATE_LOG', 00H ; `string'
CONST	ENDS
;	COMDAT ??_C@_0BB@BOHEFKIL@BOARD_STATE_EDIT@
CONST	SEGMENT
??_C@_0BB@BOHEFKIL@BOARD_STATE_EDIT@ DB 'BOARD_STATE_EDIT', 00H ; `string'
CONST	ENDS
;	COMDAT ??_C@_0BB@OJGJMFKD@BOARD_STATE_VIEW@
CONST	SEGMENT
??_C@_0BB@OJGJMFKD@BOARD_STATE_VIEW@ DB 'BOARD_STATE_VIEW', 00H ; `string'
CONST	ENDS
;	COMDAT ??_C@_0BA@KLIHGMFD@WHISPER_TYPE_GM@
CONST	SEGMENT
??_C@_0BA@KLIHGMFD@WHISPER_TYPE_GM@ DB 'WHISPER_TYPE_GM', 00H ; `string'
CONST	ENDS
;	COMDAT ??_C@_0BE@KODPENDJ@WHISPER_TYPE_SYSTEM@
CONST	SEGMENT
??_C@_0BE@KODPENDJ@WHISPER_TYPE_SYSTEM@ DB 'WHISPER_TYPE_SYSTEM', 00H ; `string'
CONST	ENDS
;	COMDAT ??_C@_0BC@LIEDKBDG@WHISPER_TYPE_CHAT@
CONST	SEGMENT
??_C@_0BC@LIEDKBDG@WHISPER_TYPE_CHAT@ DB 'WHISPER_TYPE_CHAT', 00H ; `string'
CONST	ENDS
;	COMDAT ??_C@_0BJ@CPCGKEGJ@CHAT_TYPE_CONTROL_NOTICE@
CONST	SEGMENT
??_C@_0BJ@CPCGKEGJ@CHAT_TYPE_CONTROL_NOTICE@ DB 'CHAT_TYPE_CONTROL_NOTICE'
	DB	00H						; `string'
CONST	ENDS
;	COMDAT ??_C@_0BE@EHFCCBJP@CHAT_TYPE_DICE_INFO@
CONST	SEGMENT
??_C@_0BE@EHFCCBJP@CHAT_TYPE_DICE_INFO@ DB 'CHAT_TYPE_DICE_INFO', 00H ; `string'
CONST	ENDS
;	COMDAT ??_C@_0BF@NJACMDGO@CHAT_TYPE_BIG_NOTICE@
CONST	SEGMENT
??_C@_0BF@NJACMDGO@CHAT_TYPE_BIG_NOTICE@ DB 'CHAT_TYPE_BIG_NOTICE', 00H ; `string'
CONST	ENDS
;	COMDAT ??_C@_0BC@JMANMLH@CHAT_TYPE_WHISPER@
CONST	SEGMENT
??_C@_0BC@JMANMLH@CHAT_TYPE_WHISPER@ DB 'CHAT_TYPE_WHISPER', 00H ; `string'
CONST	ENDS
;	COMDAT ??_C@_0BA@JEHAINHB@CHAT_TYPE_SHOUT@
CONST	SEGMENT
??_C@_0BA@JEHAINHB@CHAT_TYPE_SHOUT@ DB 'CHAT_TYPE_SHOUT', 00H ; `string'
CONST	ENDS
;	COMDAT ??_C@_0BC@IILPNMNB@CHAT_TYPE_COMMAND@
CONST	SEGMENT
??_C@_0BC@IILPNMNB@CHAT_TYPE_COMMAND@ DB 'CHAT_TYPE_COMMAND', 00H ; `string'
CONST	ENDS
;	COMDAT ??_C@_0BA@OIBJELLN@CHAT_TYPE_GUILD@
CONST	SEGMENT
??_C@_0BA@OIBJELLN@CHAT_TYPE_GUILD@ DB 'CHAT_TYPE_GUILD', 00H ; `string'
CONST	ENDS
;	COMDAT ??_C@_0BA@JOLAGJG@CHAT_TYPE_PARTY@
CONST	SEGMENT
??_C@_0BA@JOLAGJG@CHAT_TYPE_PARTY@ DB 'CHAT_TYPE_PARTY', 00H ; `string'
CONST	ENDS
;	COMDAT ??_C@_0BB@KFACLMJA@CHAT_TYPE_NOTICE@
CONST	SEGMENT
??_C@_0BB@KFACLMJA@CHAT_TYPE_NOTICE@ DB 'CHAT_TYPE_NOTICE', 00H ; `string'
CONST	ENDS
;	COMDAT ??_C@_0P@MIHHHBMP@CHAT_TYPE_INFO@
CONST	SEGMENT
??_C@_0P@MIHHHBMP@CHAT_TYPE_INFO@ DB 'CHAT_TYPE_INFO', 00H ; `string'
CONST	ENDS
;	COMDAT ??_C@_0BC@EHLMCJH@CHAT_TYPE_TALKING@
CONST	SEGMENT
??_C@_0BC@EHLMCJH@CHAT_TYPE_TALKING@ DB 'CHAT_TYPE_TALKING', 00H ; `string'
CONST	ENDS
;	COMDAT ??_C@_04BLJLMHHG@chat@
CONST	SEGMENT
??_C@_04BLJLMHHG@chat@ DB 'chat', 00H			; `string'
CONST	ENDS
;	COMDAT ??_C@_0P@DNBCPKOP@SaveEmojisChat@
CONST	SEGMENT
??_C@_0P@DNBCPKOP@SaveEmojisChat@ DB 'SaveEmojisChat', 00H ; `string'
CONST	ENDS
;	COMDAT ??_C@_0BA@JBMPABDF@SetFontNameChat@
CONST	SEGMENT
??_C@_0BA@JBMPABDF@SetFontNameChat@ DB 'SetFontNameChat', 00H ; `string'
CONST	ENDS
;	COMDAT ??_C@_0BF@BJFLHIAM@GetLinkFromHyperlink@
CONST	SEGMENT
??_C@_0BF@BJFLHIAM@GetLinkFromHyperlink@ DB 'GetLinkFromHyperlink', 00H ; `string'
CONST	ENDS
;	COMDAT ??_C@_0M@OFOGDKFP@InitWhisper@
CONST	SEGMENT
??_C@_0M@OFOGDKFP@InitWhisper@ DB 'InitWhisper', 00H	; `string'
CONST	ENDS
;	COMDAT ??_C@_0N@FCHOFFAF@ClearWhisper@
CONST	SEGMENT
??_C@_0N@FCHOFFAF@ClearWhisper@ DB 'ClearWhisper', 00H	; `string'
CONST	ENDS
;	COMDAT ??_C@_0BD@NNNKEDJK@SetWhisperPosition@
CONST	SEGMENT
??_C@_0BD@NNNKEDJK@SetWhisperPosition@ DB 'SetWhisperPosition', 00H ; `string'
CONST	ENDS
;	COMDAT ??_C@_0BC@IEABADGD@SetWhisperBoxSize@
CONST	SEGMENT
??_C@_0BC@IEABADGD@SetWhisperBoxSize@ DB 'SetWhisperBoxSize', 00H ; `string'
CONST	ENDS
;	COMDAT ??_C@_0O@HNBBBAHN@RenderWhisper@
CONST	SEGMENT
??_C@_0O@HNBBBAHN@RenderWhisper@ DB 'RenderWhisper', 00H ; `string'
CONST	ENDS
;	COMDAT ??_C@_0O@MNHHDNCN@AppendWhisper@
CONST	SEGMENT
??_C@_0O@MNHHDNCN@AppendWhisper@ DB 'AppendWhisper', 00H ; `string'
CONST	ENDS
;	COMDAT ??_C@_0O@EPNAKAMH@CreateWhisper@
CONST	SEGMENT
??_C@_0O@EPNAKAMH@CreateWhisper@ DB 'CreateWhisper', 00H ; `string'
CONST	ENDS
;	COMDAT ??_C@_0BC@BPLLIFOI@IsIgnoreCharacter@
CONST	SEGMENT
??_C@_0BC@BPLLIFOI@IsIgnoreCharacter@ DB 'IsIgnoreCharacter', 00H ; `string'
CONST	ENDS
;	COMDAT ??_C@_0BA@OBLLPMIK@IgnoreCharacter@
CONST	SEGMENT
??_C@_0BA@OBLLPMIK@IgnoreCharacter@ DB 'IgnoreCharacter', 00H ; `string'
CONST	ENDS
;	COMDAT ??_C@_0BB@FDOJPLAM@GetChatStackSize@
CONST	SEGMENT
??_C@_0BB@FDOJPLAM@GetChatStackSize@ DB 'GetChatStackSize', 00H ; `string'
CONST	ENDS
;	COMDAT ??_C@_0N@JBGFLEMA@GetChatStack@
CONST	SEGMENT
??_C@_0N@JBGFLEMA@GetChatStack@ DB 'GetChatStack', 00H	; `string'
CONST	ENDS
;	COMDAT ??_C@_0BA@BCMJCJOO@AppendChatStack@
CONST	SEGMENT
??_C@_0BA@BCMJCJOO@AppendChatStack@ DB 'AppendChatStack', 00H ; `string'
CONST	ENDS
;	COMDAT ??_C@_0BD@PGAGKLIB@ArrangeShowingChat@
CONST	SEGMENT
??_C@_0BD@PGAGKLIB@ArrangeShowingChat@ DB 'ArrangeShowingChat', 00H ; `string'
CONST	ENDS
;	COMDAT ??_C@_0BE@OLLFFMAP@AppendChatWithDelay@
CONST	SEGMENT
??_C@_0BE@OLLFFMAP@AppendChatWithDelay@ DB 'AppendChatWithDelay', 00H ; `string'
CONST	ENDS
;	COMDAT ??_C@_0L@LGDEPKMK@AppendChat@
CONST	SEGMENT
??_C@_0L@LGDEPKMK@AppendChat@ DB 'AppendChat', 00H	; `string'
CONST	ENDS
;	COMDAT ??_C@_0M@JAIPGIEI@GetLineStep@
CONST	SEGMENT
??_C@_0M@JAIPGIEI@GetLineStep@ DB 'GetLineStep', 00H	; `string'
CONST	ENDS
;	COMDAT ??_C@_0BE@ECGLNJIP@GetVisibleLineCount@
CONST	SEGMENT
??_C@_0BE@ECGLNJIP@GetVisibleLineCount@ DB 'GetVisibleLineCount', 00H ; `string'
CONST	ENDS
;	COMDAT ??_C@_0N@GBIDIHNF@GetLineCount@
CONST	SEGMENT
??_C@_0N@GBIDIHNF@GetLineCount@ DB 'GetLineCount', 00H	; `string'
CONST	ENDS
;	COMDAT ??_C@_09LEFDLNLA@SetEndPos@
CONST	SEGMENT
??_C@_09LEFDLNLA@SetEndPos@ DB 'SetEndPos', 00H		; `string'
CONST	ENDS
;	COMDAT ??_C@_0BA@PMFEPLLL@DisableChatMode@
CONST	SEGMENT
??_C@_0BA@PMFEPLLL@DisableChatMode@ DB 'DisableChatMode', 00H ; `string'
CONST	ENDS
;	COMDAT ??_C@_0P@CBALNCDJ@EnableChatMode@
CONST	SEGMENT
??_C@_0P@CBALNCDJ@EnableChatMode@ DB 'EnableChatMode', 00H ; `string'
CONST	ENDS
;	COMDAT ??_C@_0P@HJNLNPCF@ToggleChatMode@
CONST	SEGMENT
??_C@_0P@HJNLNPCF@ToggleChatMode@ DB 'ToggleChatMode', 00H ; `string'
CONST	ENDS
;	COMDAT ??_C@_07PCIEAKML@SetStep@
CONST	SEGMENT
??_C@_07PCIEAKML@SetStep@ DB 'SetStep', 00H		; `string'
CONST	ENDS
;	COMDAT ??_C@_09GACBKIFI@SetHeight@
CONST	SEGMENT
??_C@_09GACBKIFI@SetHeight@ DB 'SetHeight', 00H		; `string'
CONST	ENDS
;	COMDAT ??_C@_0M@GKIFPNAD@SetPosition@
CONST	SEGMENT
??_C@_0M@GKIFPNAD@SetPosition@ DB 'SetPosition', 00H	; `string'
CONST	ENDS
;	COMDAT ??_C@_0O@HLECNMMJ@SetBoardState@
CONST	SEGMENT
??_C@_0O@HLECNMMJ@SetBoardState@ DB 'SetBoardState', 00H ; `string'
CONST	ENDS
;	COMDAT ??_C@_0O@NIPGGDN@CreateChatSet@
CONST	SEGMENT
??_C@_0O@NIPGGDN@CreateChatSet@ DB 'CreateChatSet', 00H	; `string'
CONST	ENDS
;	COMDAT ??_C@_05LGELBCGM@Close@
CONST	SEGMENT
??_C@_05LGELBCGM@Close@ DB 'Close', 00H			; `string'
CONST	ENDS
;	COMDAT ??_C@_0N@JBENFECF@SetChatColor@
CONST	SEGMENT
??_C@_0N@JBENFECF@SetChatColor@ DB 'SetChatColor', 00H	; `string'
CONST	ENDS
;	COMDAT ??_C@_0BF@BFMJHLLJ@?$HMcffc9c0f1?$HMH?$HMh?$CFs?$HMh?$HMr@
CONST	SEGMENT
??_C@_0BF@BFMJHLLJ@?$HMcffc9c0f1?$HMH?$HMh?$CFs?$HMh?$HMr@ DB '|cffc9c0f1'
	DB	'|H|h%s|h|r', 00H				; `string'
CONST	ENDS
;	COMDAT ??_C@_04OHHBHOGB@link@
CONST	SEGMENT
??_C@_04OHHBHOGB@link@ DB 'link', 00H			; `string'
CONST	ENDS
;	COMDAT ??_C@_0DD@IEBFDDBJ@?$CFx?3?$CFx?3?$CFx?3?$CFx?3?$CFx?3?$CFx?3?$CFx?3?$CFx?3?$CFx?3?$CFx?3?$CF@
CONST	SEGMENT
??_C@_0DD@IEBFDDBJ@?$CFx?3?$CFx?3?$CFx?3?$CFx?3?$CFx?3?$CFx?3?$CFx?3?$CFx?3?$CFx?3?$CFx?3?$CF@ DB '%'
	DB	'x:%x:%x:%x:%x:%x:%x:%x:%x:%x:%s:%x:%x:%x:%x:%x:%x', 00H ; `string'
CONST	ENDS
;	COMDAT ??_C@_0BI@NGAOBLBO@petitem?3?$CFx?3?$CFx?3?$CFx?3?$CFx?3?$CFx?3@
CONST	SEGMENT
??_C@_0BI@NGAOBLBO@petitem?3?$CFx?3?$CFx?3?$CFx?3?$CFx?3?$CFx?3@ DB 'peti'
	DB	'tem:%x:%x:%x:%x:%x:', 00H			; `string'
CONST	ENDS
;	COMDAT ??_C@_07JBIAKDEF@petitem@
CONST	SEGMENT
??_C@_07JBIAKDEF@petitem@ DB 'petitem', 00H		; `string'
CONST	ENDS
;	COMDAT ??_C@_0BJ@GPGFNPLK@?$HMcfff1e6c0?$HMH?$CFs?$HMh?$FL?$CFs?$FN?$HMh?$HMr@
CONST	SEGMENT
??_C@_0BJ@GPGFNPLK@?$HMcfff1e6c0?$HMH?$CFs?$HMh?$FL?$CFs?$FN?$HMh?$HMr@ DB '|'
	DB	'cfff1e6c0|H%s|h[%s]|h|r', 00H		; `string'
CONST	ENDS
;	COMDAT ??_C@_0BJ@DABMGIOF@?$HMcffffc700?$HMH?$CFs?$HMh?$FL?$CFs?$FN?$HMh?$HMr@
CONST	SEGMENT
??_C@_0BJ@DABMGIOF@?$HMcffffc700?$HMH?$CFs?$HMh?$FL?$CFs?$FN?$HMh?$HMr@ DB '|'
	DB	'cffffc700|H%s|h[%s]|h|r', 00H		; `string'
CONST	ENDS
;	COMDAT ??_C@_09CNFFNIIC@?3?$CFx?3?$CFI64d@
CONST	SEGMENT
??_C@_09CNFFNIIC@?3?$CFx?3?$CFI64d@ DB ':%x:%I64d', 00H	; `string'
CONST	ENDS
;	COMDAT ??_C@_03JIENEPND@?3?$CFx@
CONST	SEGMENT
??_C@_03JIENEPND@?3?$CFx@ DB ':%x', 00H			; `string'
CONST	ENDS
;	COMDAT ??_C@_0BE@FGPADLIF@item?3?$CFx?3?$CFx?3?$CFx?3?$CFx?3?$CFx@
CONST	SEGMENT
??_C@_0BE@FGPADLIF@item?3?$CFx?3?$CFx?3?$CFx?3?$CFx?3?$CFx@ DB 'item:%x:%'
	DB	'x:%x:%x:%x', 00H				; `string'
CONST	ENDS
;	COMDAT ??_C@_04NHONDGDE@item@
CONST	SEGMENT
??_C@_04NHONDGDE@item@ DB 'item', 00H			; `string'
CONST	ENDS
;	COMDAT ??_C@_01JLIPDDHJ@?3@
CONST	SEGMENT
??_C@_01JLIPDDHJ@?3@ DB ':', 00H			; `string'
PUBLIC	?htoi@@YAHPBD@Z					; htoi
PUBLIC	?Instance@?$CSingleton@VCPythonChat@@@@SAAAVCPythonChat@@XZ ; CSingleton<CPythonChat>::Instance
PUBLIC	?initChat@@YAXXZ				; initChat
PUBLIC	?chatSaveEmojisChat@@YAPAU_object@@PAU1@0@Z	; chatSaveEmojisChat
PUBLIC	?chatSetFontNameChat@@YAPAU_object@@PAU1@0@Z	; chatSetFontNameChat
PUBLIC	?chatGetLinkFromHyperlink@@YAPAU_object@@PAU1@0@Z ; chatGetLinkFromHyperlink
PUBLIC	?chatInitWhisper@@YAPAU_object@@PAU1@0@Z	; chatInitWhisper
PUBLIC	?chatClearWhisper@@YAPAU_object@@PAU1@0@Z	; chatClearWhisper
PUBLIC	?chatSetWhisperPosition@@YAPAU_object@@PAU1@0@Z	; chatSetWhisperPosition
PUBLIC	?chatSetWhisperBoxSize@@YAPAU_object@@PAU1@0@Z	; chatSetWhisperBoxSize
PUBLIC	?chatRenderWhisper@@YAPAU_object@@PAU1@0@Z	; chatRenderWhisper
PUBLIC	?chatAppendWhisper@@YAPAU_object@@PAU1@0@Z	; chatAppendWhisper
PUBLIC	?chatCreateWhisper@@YAPAU_object@@PAU1@0@Z	; chatCreateWhisper
PUBLIC	?chatIsIgnoreCharacter@@YAPAU_object@@PAU1@0@Z	; chatIsIgnoreCharacter
PUBLIC	?chatIgnoreCharacter@@YAPAU_object@@PAU1@0@Z	; chatIgnoreCharacter
PUBLIC	?chatArrangeShowingChat@@YAPAU_object@@PAU1@0@Z	; chatArrangeShowingChat
PUBLIC	?chatGetChatStackSize@@YAPAU_object@@PAU1@0@Z	; chatGetChatStackSize
PUBLIC	?chatGetChatStack@@YAPAU_object@@PAU1@0@Z	; chatGetChatStack
PUBLIC	?chatAppendChatStack@@YAPAU_object@@PAU1@0@Z	; chatAppendChatStack
PUBLIC	?chatAppendChatWithDelay@@YAPAU_object@@PAU1@0@Z ; chatAppendChatWithDelay
PUBLIC	?chatAppendChat@@YAPAU_object@@PAU1@0@Z		; chatAppendChat
PUBLIC	?chatGetLineStep@@YAPAU_object@@PAU1@0@Z	; chatGetLineStep
PUBLIC	?chatGetVisibleLineCount@@YAPAU_object@@PAU1@0@Z ; chatGetVisibleLineCount
PUBLIC	?chatGetLineCount@@YAPAU_object@@PAU1@0@Z	; chatGetLineCount
PUBLIC	?chatSetEndPos@@YAPAU_object@@PAU1@0@Z		; chatSetEndPos
PUBLIC	?chatDisableChatMode@@YAPAU_object@@PAU1@0@Z	; chatDisableChatMode
PUBLIC	?chatEnableChatMode@@YAPAU_object@@PAU1@0@Z	; chatEnableChatMode
PUBLIC	?chatToggleChatMode@@YAPAU_object@@PAU1@0@Z	; chatToggleChatMode
PUBLIC	?chatSetStep@@YAPAU_object@@PAU1@0@Z		; chatSetStep
PUBLIC	?chatSetHeight@@YAPAU_object@@PAU1@0@Z		; chatSetHeight
PUBLIC	?chatSetPosition@@YAPAU_object@@PAU1@0@Z	; chatSetPosition
PUBLIC	?chatSetBoardState@@YAPAU_object@@PAU1@0@Z	; chatSetBoardState
PUBLIC	?chatRender@@YAPAU_object@@PAU1@0@Z		; chatRender
PUBLIC	?chatUpdate@@YAPAU_object@@PAU1@0@Z		; chatUpdate
PUBLIC	?chatCreateChatSet@@YAPAU_object@@PAU1@0@Z	; chatCreateChatSet
PUBLIC	?chatClose@@YAPAU_object@@PAU1@0@Z		; chatClose
PUBLIC	?chatClear@@YAPAU_object@@PAU1@0@Z		; chatClear
PUBLIC	?chatSetChatColor@@YAPAU_object@@PAU1@0@Z	; chatSetChatColor
;	COMDAT xdata$x
xdata$x	SEGMENT
__ehfuncinfo$?chatGetLinkFromHyperlink@@YAPAU_object@@PAU1@0@Z DD 019930522H
	DD	03H
	DD	FLAT:__unwindtable$?chatGetLinkFromHyperlink@@YAPAU_object@@PAU1@0@Z
	DD	2 DUP(00H)
	DD	2 DUP(00H)
	DD	00H
	DD	01H
__unwindtable$?chatGetLinkFromHyperlink@@YAPAU_object@@PAU1@0@Z DD 0ffffffffH
	DD	FLAT:__unwindfunclet$?chatGetLinkFromHyperlink@@YAPAU_object@@PAU1@0@Z$0
	DD	00H
	DD	FLAT:__unwindfunclet$?chatGetLinkFromHyperlink@@YAPAU_object@@PAU1@0@Z$1
	DD	01H
	DD	FLAT:__unwindfunclet$?chatGetLinkFromHyperlink@@YAPAU_object@@PAU1@0@Z$2
; Function compile flags: /Ogtp
; File C:\Anka2Project\Anka2Project\Source\Binary\source\UserInterface\PythonChatModule.cpp
; File C:\Anka2Project\Anka2Project\Source\Binary\source\eterBase\Singleton.h
; File C:\Anka2Project\Anka2Project\Source\Binary\source\UserInterface\PythonChatModule.cpp
;	COMDAT ?chatCreateChatSet@@YAPAU_object@@PAU1@0@Z
_TEXT	SEGMENT
_iID$ = -4						; size = 4
_poSelf$ = 8						; size = 4
_poArgs$ = 12						; size = 4
?chatCreateChatSet@@YAPAU_object@@PAU1@0@Z PROC		; chatCreateChatSet, COMDAT

; 46   : {

  00000	55		 push	 ebp
  00001	8b ec		 mov	 ebp, esp
  00003	51		 push	 ecx

; 47   : 	int iID;
; 48   : 	if (!PyTuple_GetInteger(poArgs, 0, &iID))

  00004	8d 45 fc	 lea	 eax, DWORD PTR _iID$[ebp]
  00007	50		 push	 eax
  00008	6a 00		 push	 0
  0000a	ff 75 0c	 push	 DWORD PTR _poArgs$[ebp]
  0000d	e8 00 00 00 00	 call	 ?PyTuple_GetInteger@@YA_NPAU_object@@HPAH@Z ; PyTuple_GetInteger
  00012	83 c4 0c	 add	 esp, 12			; 0000000cH
  00015	84 c0		 test	 al, al
  00017	75 0e		 jne	 SHORT $LN2@chatCreate

; 49   : 		return Py_BuildException();

  00019	6a 00		 push	 0
  0001b	e8 00 00 00 00	 call	 ?Py_BuildException@@YAPAU_object@@PBDZZ ; Py_BuildException
  00020	83 c4 04	 add	 esp, 4

; 52   : }

  00023	8b e5		 mov	 esp, ebp
  00025	5d		 pop	 ebp
  00026	c3		 ret	 0
$LN2@chatCreate:
; File C:\Anka2Project\Anka2Project\Source\Binary\source\eterBase\Singleton.h

; 26   : 		assert(ms_singleton);

  00027	8b 0d 00 00 00
	00		 mov	 ecx, DWORD PTR ?ms_singleton@?$CSingleton@VCPythonChat@@@@0PAVCPythonChat@@A ; CSingleton<CPythonChat>::ms_singleton
  0002d	85 c9		 test	 ecx, ecx
  0002f	75 1a		 jne	 SHORT $LN6@chatCreate
  00031	6a 1a		 push	 26			; 0000001aH
  00033	68 00 00 00 00	 push	 OFFSET ??_C@_1IO@CAJLEEOI@?$AAC?$AA?3?$AA?2?$AAA?$AAn?$AAk?$AAa?$AA2?$AAP?$AAr?$AAo?$AAj?$AAe?$AAc?$AAt@
  00038	68 00 00 00 00	 push	 OFFSET ??_C@_1BK@FMEHPMFE@?$AAm?$AAs?$AA_?$AAs?$AAi?$AAn?$AAg?$AAl?$AAe?$AAt?$AAo?$AAn@
  0003d	e8 00 00 00 00	 call	 __wassert
  00042	8b 0d 00 00 00
	00		 mov	 ecx, DWORD PTR ?ms_singleton@?$CSingleton@VCPythonChat@@@@0PAVCPythonChat@@A ; CSingleton<CPythonChat>::ms_singleton
  00048	83 c4 0c	 add	 esp, 12			; 0000000cH
$LN6@chatCreate:
; File C:\Anka2Project\Anka2Project\Source\Binary\source\UserInterface\PythonChatModule.cpp

; 51   : 	return Py_BuildValue("i", CPythonChat::Instance().CreateChatSet(iID));

  0004b	ff 75 fc	 push	 DWORD PTR _iID$[ebp]
  0004e	e8 00 00 00 00	 call	 ?CreateChatSet@CPythonChat@@QAEHK@Z ; CPythonChat::CreateChatSet
  00053	50		 push	 eax
  00054	68 00 00 00 00	 push	 OFFSET ??_C@_01KBJDNOO@i@
  00059	ff 15 00 00 00
	00		 call	 DWORD PTR __imp__Py_BuildValue
  0005f	83 c4 08	 add	 esp, 8

; 52   : }

  00062	8b e5		 mov	 esp, ebp
  00064	5d		 pop	 ebp
  00065	c3		 ret	 0
?chatCreateChatSet@@YAPAU_object@@PAU1@0@Z ENDP		; chatCreateChatSet
_TEXT	ENDS
; Function compile flags: /Ogtp
; File C:\Anka2Project\Anka2Project\Source\Binary\source\UserInterface\PythonChatModule.cpp
; File C:\Anka2Project\Anka2Project\Source\Binary\source\eterBase\Singleton.h
; File C:\Anka2Project\Anka2Project\Source\Binary\source\UserInterface\PythonChatModule.cpp
;	COMDAT ?chatGetLineCount@@YAPAU_object@@PAU1@0@Z
_TEXT	SEGMENT
_iID$ = -4						; size = 4
_poSelf$ = 8						; size = 4
_poArgs$ = 12						; size = 4
?chatGetLineCount@@YAPAU_object@@PAU1@0@Z PROC		; chatGetLineCount, COMDAT

; 190  : {

  00000	55		 push	 ebp
  00001	8b ec		 mov	 ebp, esp
  00003	51		 push	 ecx

; 191  : 	int iID;
; 192  : 	if (!PyTuple_GetInteger(poArgs, 0, &iID))

  00004	8d 45 fc	 lea	 eax, DWORD PTR _iID$[ebp]
  00007	50		 push	 eax
  00008	6a 00		 push	 0
  0000a	ff 75 0c	 push	 DWORD PTR _poArgs$[ebp]
  0000d	e8 00 00 00 00	 call	 ?PyTuple_GetInteger@@YA_NPAU_object@@HPAH@Z ; PyTuple_GetInteger
  00012	83 c4 0c	 add	 esp, 12			; 0000000cH
  00015	84 c0		 test	 al, al
  00017	75 0e		 jne	 SHORT $LN2@chatGetLin

; 193  : 		return Py_BuildException();

  00019	6a 00		 push	 0
  0001b	e8 00 00 00 00	 call	 ?Py_BuildException@@YAPAU_object@@PBDZZ ; Py_BuildException
  00020	83 c4 04	 add	 esp, 4

; 196  : }

  00023	8b e5		 mov	 esp, ebp
  00025	5d		 pop	 ebp
  00026	c3		 ret	 0
$LN2@chatGetLin:
; File C:\Anka2Project\Anka2Project\Source\Binary\source\eterBase\Singleton.h

; 26   : 		assert(ms_singleton);

  00027	8b 0d 00 00 00
	00		 mov	 ecx, DWORD PTR ?ms_singleton@?$CSingleton@VCPythonChat@@@@0PAVCPythonChat@@A ; CSingleton<CPythonChat>::ms_singleton
  0002d	85 c9		 test	 ecx, ecx
  0002f	75 1a		 jne	 SHORT $LN6@chatGetLin
  00031	6a 1a		 push	 26			; 0000001aH
  00033	68 00 00 00 00	 push	 OFFSET ??_C@_1IO@CAJLEEOI@?$AAC?$AA?3?$AA?2?$AAA?$AAn?$AAk?$AAa?$AA2?$AAP?$AAr?$AAo?$AAj?$AAe?$AAc?$AAt@
  00038	68 00 00 00 00	 push	 OFFSET ??_C@_1BK@FMEHPMFE@?$AAm?$AAs?$AA_?$AAs?$AAi?$AAn?$AAg?$AAl?$AAe?$AAt?$AAo?$AAn@
  0003d	e8 00 00 00 00	 call	 __wassert
  00042	8b 0d 00 00 00
	00		 mov	 ecx, DWORD PTR ?ms_singleton@?$CSingleton@VCPythonChat@@@@0PAVCPythonChat@@A ; CSingleton<CPythonChat>::ms_singleton
  00048	83 c4 0c	 add	 esp, 12			; 0000000cH
$LN6@chatGetLin:
; File C:\Anka2Project\Anka2Project\Source\Binary\source\UserInterface\PythonChatModule.cpp

; 195  : 	return Py_BuildValue("i", CPythonChat::Instance().GetLineCount(iID));

  0004b	ff 75 fc	 push	 DWORD PTR _iID$[ebp]
  0004e	e8 00 00 00 00	 call	 ?GetLineCount@CPythonChat@@QAEHK@Z ; CPythonChat::GetLineCount
  00053	50		 push	 eax
  00054	68 00 00 00 00	 push	 OFFSET ??_C@_01KBJDNOO@i@
  00059	ff 15 00 00 00
	00		 call	 DWORD PTR __imp__Py_BuildValue
  0005f	83 c4 08	 add	 esp, 8

; 196  : }

  00062	8b e5		 mov	 esp, ebp
  00064	5d		 pop	 ebp
  00065	c3		 ret	 0
?chatGetLineCount@@YAPAU_object@@PAU1@0@Z ENDP		; chatGetLineCount
_TEXT	ENDS
; Function compile flags: /Ogtp
; File C:\Anka2Project\Anka2Project\Source\Binary\source\UserInterface\PythonChatModule.cpp
; File C:\Anka2Project\Anka2Project\Source\Binary\source\eterBase\Singleton.h
; File C:\Anka2Project\Anka2Project\Source\Binary\source\UserInterface\PythonChatModule.cpp
;	COMDAT ?chatGetVisibleLineCount@@YAPAU_object@@PAU1@0@Z
_TEXT	SEGMENT
_iID$ = -4						; size = 4
_poSelf$ = 8						; size = 4
_poArgs$ = 12						; size = 4
?chatGetVisibleLineCount@@YAPAU_object@@PAU1@0@Z PROC	; chatGetVisibleLineCount, COMDAT

; 199  : {

  00000	55		 push	 ebp
  00001	8b ec		 mov	 ebp, esp
  00003	51		 push	 ecx

; 200  : 	int iID;
; 201  : 	if (!PyTuple_GetInteger(poArgs, 0, &iID))

  00004	8d 45 fc	 lea	 eax, DWORD PTR _iID$[ebp]
  00007	50		 push	 eax
  00008	6a 00		 push	 0
  0000a	ff 75 0c	 push	 DWORD PTR _poArgs$[ebp]
  0000d	e8 00 00 00 00	 call	 ?PyTuple_GetInteger@@YA_NPAU_object@@HPAH@Z ; PyTuple_GetInteger
  00012	83 c4 0c	 add	 esp, 12			; 0000000cH
  00015	84 c0		 test	 al, al
  00017	75 0e		 jne	 SHORT $LN2@chatGetVis

; 202  : 		return Py_BuildException();

  00019	6a 00		 push	 0
  0001b	e8 00 00 00 00	 call	 ?Py_BuildException@@YAPAU_object@@PBDZZ ; Py_BuildException
  00020	83 c4 04	 add	 esp, 4

; 205  : }

  00023	8b e5		 mov	 esp, ebp
  00025	5d		 pop	 ebp
  00026	c3		 ret	 0
$LN2@chatGetVis:
; File C:\Anka2Project\Anka2Project\Source\Binary\source\eterBase\Singleton.h

; 26   : 		assert(ms_singleton);

  00027	8b 0d 00 00 00
	00		 mov	 ecx, DWORD PTR ?ms_singleton@?$CSingleton@VCPythonChat@@@@0PAVCPythonChat@@A ; CSingleton<CPythonChat>::ms_singleton
  0002d	85 c9		 test	 ecx, ecx
  0002f	75 1a		 jne	 SHORT $LN6@chatGetVis
  00031	6a 1a		 push	 26			; 0000001aH
  00033	68 00 00 00 00	 push	 OFFSET ??_C@_1IO@CAJLEEOI@?$AAC?$AA?3?$AA?2?$AAA?$AAn?$AAk?$AAa?$AA2?$AAP?$AAr?$AAo?$AAj?$AAe?$AAc?$AAt@
  00038	68 00 00 00 00	 push	 OFFSET ??_C@_1BK@FMEHPMFE@?$AAm?$AAs?$AA_?$AAs?$AAi?$AAn?$AAg?$AAl?$AAe?$AAt?$AAo?$AAn@
  0003d	e8 00 00 00 00	 call	 __wassert
  00042	8b 0d 00 00 00
	00		 mov	 ecx, DWORD PTR ?ms_singleton@?$CSingleton@VCPythonChat@@@@0PAVCPythonChat@@A ; CSingleton<CPythonChat>::ms_singleton
  00048	83 c4 0c	 add	 esp, 12			; 0000000cH
$LN6@chatGetVis:
; File C:\Anka2Project\Anka2Project\Source\Binary\source\UserInterface\PythonChatModule.cpp

; 204  : 	return Py_BuildValue("i", CPythonChat::Instance().GetVisibleLineCount(iID));

  0004b	ff 75 fc	 push	 DWORD PTR _iID$[ebp]
  0004e	e8 00 00 00 00	 call	 ?GetVisibleLineCount@CPythonChat@@QAEHK@Z ; CPythonChat::GetVisibleLineCount
  00053	50		 push	 eax
  00054	68 00 00 00 00	 push	 OFFSET ??_C@_01KBJDNOO@i@
  00059	ff 15 00 00 00
	00		 call	 DWORD PTR __imp__Py_BuildValue
  0005f	83 c4 08	 add	 esp, 8

; 205  : }

  00062	8b e5		 mov	 esp, ebp
  00064	5d		 pop	 ebp
  00065	c3		 ret	 0
?chatGetVisibleLineCount@@YAPAU_object@@PAU1@0@Z ENDP	; chatGetVisibleLineCount
_TEXT	ENDS
; Function compile flags: /Ogtp
; File C:\Anka2Project\Anka2Project\Source\Binary\source\UserInterface\PythonChatModule.cpp
; File C:\Anka2Project\Anka2Project\Source\Binary\source\eterBase\Singleton.h
; File C:\Anka2Project\Anka2Project\Source\Binary\source\UserInterface\PythonChatModule.cpp
;	COMDAT ?chatGetLineStep@@YAPAU_object@@PAU1@0@Z
_TEXT	SEGMENT
_iID$ = -4						; size = 4
_poSelf$ = 8						; size = 4
_poArgs$ = 12						; size = 4
?chatGetLineStep@@YAPAU_object@@PAU1@0@Z PROC		; chatGetLineStep, COMDAT

; 208  : {

  00000	55		 push	 ebp
  00001	8b ec		 mov	 ebp, esp
  00003	51		 push	 ecx

; 209  : 	int iID;
; 210  : 	if (!PyTuple_GetInteger(poArgs, 0, &iID))

  00004	8d 45 fc	 lea	 eax, DWORD PTR _iID$[ebp]
  00007	50		 push	 eax
  00008	6a 00		 push	 0
  0000a	ff 75 0c	 push	 DWORD PTR _poArgs$[ebp]
  0000d	e8 00 00 00 00	 call	 ?PyTuple_GetInteger@@YA_NPAU_object@@HPAH@Z ; PyTuple_GetInteger
  00012	83 c4 0c	 add	 esp, 12			; 0000000cH
  00015	84 c0		 test	 al, al
  00017	75 0e		 jne	 SHORT $LN2@chatGetLin

; 211  : 		return Py_BuildException();

  00019	6a 00		 push	 0
  0001b	e8 00 00 00 00	 call	 ?Py_BuildException@@YAPAU_object@@PBDZZ ; Py_BuildException
  00020	83 c4 04	 add	 esp, 4

; 214  : }

  00023	8b e5		 mov	 esp, ebp
  00025	5d		 pop	 ebp
  00026	c3		 ret	 0
$LN2@chatGetLin:
; File C:\Anka2Project\Anka2Project\Source\Binary\source\eterBase\Singleton.h

; 26   : 		assert(ms_singleton);

  00027	8b 0d 00 00 00
	00		 mov	 ecx, DWORD PTR ?ms_singleton@?$CSingleton@VCPythonChat@@@@0PAVCPythonChat@@A ; CSingleton<CPythonChat>::ms_singleton
  0002d	85 c9		 test	 ecx, ecx
  0002f	75 1a		 jne	 SHORT $LN6@chatGetLin
  00031	6a 1a		 push	 26			; 0000001aH
  00033	68 00 00 00 00	 push	 OFFSET ??_C@_1IO@CAJLEEOI@?$AAC?$AA?3?$AA?2?$AAA?$AAn?$AAk?$AAa?$AA2?$AAP?$AAr?$AAo?$AAj?$AAe?$AAc?$AAt@
  00038	68 00 00 00 00	 push	 OFFSET ??_C@_1BK@FMEHPMFE@?$AAm?$AAs?$AA_?$AAs?$AAi?$AAn?$AAg?$AAl?$AAe?$AAt?$AAo?$AAn@
  0003d	e8 00 00 00 00	 call	 __wassert
  00042	8b 0d 00 00 00
	00		 mov	 ecx, DWORD PTR ?ms_singleton@?$CSingleton@VCPythonChat@@@@0PAVCPythonChat@@A ; CSingleton<CPythonChat>::ms_singleton
  00048	83 c4 0c	 add	 esp, 12			; 0000000cH
$LN6@chatGetLin:
; File C:\Anka2Project\Anka2Project\Source\Binary\source\UserInterface\PythonChatModule.cpp

; 213  : 	return Py_BuildValue("i", CPythonChat::Instance().GetLineStep(iID));

  0004b	ff 75 fc	 push	 DWORD PTR _iID$[ebp]
  0004e	e8 00 00 00 00	 call	 ?GetLineStep@CPythonChat@@QAEHK@Z ; CPythonChat::GetLineStep
  00053	50		 push	 eax
  00054	68 00 00 00 00	 push	 OFFSET ??_C@_01KBJDNOO@i@
  00059	ff 15 00 00 00
	00		 call	 DWORD PTR __imp__Py_BuildValue
  0005f	83 c4 08	 add	 esp, 8

; 214  : }

  00062	8b e5		 mov	 esp, ebp
  00064	5d		 pop	 ebp
  00065	c3		 ret	 0
?chatGetLineStep@@YAPAU_object@@PAU1@0@Z ENDP		; chatGetLineStep
_TEXT	ENDS
; Function compile flags: /Ogtp
; File C:\Anka2Project\Anka2Project\Source\Binary\source\UserInterface\PythonChatModule.cpp
; File C:\Anka2Project\Anka2Project\Source\Binary\source\eterBase\Singleton.h
; File C:\Anka2Project\Anka2Project\Source\Binary\source\UserInterface\PythonChatModule.cpp
;	COMDAT ?chatAppendChat@@YAPAU_object@@PAU1@0@Z
_TEXT	SEGMENT
_iType$ = -8						; size = 4
_szChat$ = -4						; size = 4
_poSelf$ = 8						; size = 4
_poArgs$ = 12						; size = 4
?chatAppendChat@@YAPAU_object@@PAU1@0@Z PROC		; chatAppendChat, COMDAT

; 217  : {

  00000	55		 push	 ebp
  00001	8b ec		 mov	 ebp, esp
  00003	83 ec 08	 sub	 esp, 8

; 218  : 	int iType;
; 219  : 	if (!PyTuple_GetInteger(poArgs, 0, &iType))

  00006	8d 45 f8	 lea	 eax, DWORD PTR _iType$[ebp]
  00009	50		 push	 eax
  0000a	6a 00		 push	 0
  0000c	ff 75 0c	 push	 DWORD PTR _poArgs$[ebp]
  0000f	e8 00 00 00 00	 call	 ?PyTuple_GetInteger@@YA_NPAU_object@@HPAH@Z ; PyTuple_GetInteger
  00014	83 c4 0c	 add	 esp, 12			; 0000000cH
  00017	84 c0		 test	 al, al
  00019	75 0e		 jne	 SHORT $LN2@chatAppend
$LN8@chatAppend:

; 229  : }

  0001b	6a 00		 push	 0
  0001d	e8 00 00 00 00	 call	 ?Py_BuildException@@YAPAU_object@@PBDZZ ; Py_BuildException
  00022	83 c4 04	 add	 esp, 4
  00025	8b e5		 mov	 esp, ebp
  00027	5d		 pop	 ebp
  00028	c3		 ret	 0
$LN2@chatAppend:

; 220  : 		return Py_BuildException();
; 221  : 
; 222  : 	char *szChat;
; 223  : 	if (!PyTuple_GetString(poArgs, 1, &szChat))

  00029	8d 45 fc	 lea	 eax, DWORD PTR _szChat$[ebp]
  0002c	50		 push	 eax
  0002d	6a 01		 push	 1
  0002f	ff 75 0c	 push	 DWORD PTR _poArgs$[ebp]
  00032	e8 00 00 00 00	 call	 ?PyTuple_GetString@@YA_NPAU_object@@HPAPAD@Z ; PyTuple_GetString
  00037	83 c4 0c	 add	 esp, 12			; 0000000cH
  0003a	84 c0		 test	 al, al
  0003c	74 dd		 je	 SHORT $LN8@chatAppend
; File C:\Anka2Project\Anka2Project\Source\Binary\source\eterBase\Singleton.h

; 26   : 		assert(ms_singleton);

  0003e	8b 0d 00 00 00
	00		 mov	 ecx, DWORD PTR ?ms_singleton@?$CSingleton@VCPythonChat@@@@0PAVCPythonChat@@A ; CSingleton<CPythonChat>::ms_singleton
  00044	85 c9		 test	 ecx, ecx
  00046	75 1a		 jne	 SHORT $LN7@chatAppend
  00048	6a 1a		 push	 26			; 0000001aH
  0004a	68 00 00 00 00	 push	 OFFSET ??_C@_1IO@CAJLEEOI@?$AAC?$AA?3?$AA?2?$AAA?$AAn?$AAk?$AAa?$AA2?$AAP?$AAr?$AAo?$AAj?$AAe?$AAc?$AAt@
  0004f	68 00 00 00 00	 push	 OFFSET ??_C@_1BK@FMEHPMFE@?$AAm?$AAs?$AA_?$AAs?$AAi?$AAn?$AAg?$AAl?$AAe?$AAt?$AAo?$AAn@
  00054	e8 00 00 00 00	 call	 __wassert
  00059	8b 0d 00 00 00
	00		 mov	 ecx, DWORD PTR ?ms_singleton@?$CSingleton@VCPythonChat@@@@0PAVCPythonChat@@A ; CSingleton<CPythonChat>::ms_singleton
  0005f	83 c4 0c	 add	 esp, 12			; 0000000cH
$LN7@chatAppend:
; File C:\Anka2Project\Anka2Project\Source\Binary\source\UserInterface\PythonChatModule.cpp

; 226  : 	CPythonChat::Instance().AppendChat(iType, szChat);

  00062	ff 75 fc	 push	 DWORD PTR _szChat$[ebp]
  00065	8b 41 04	 mov	 eax, DWORD PTR [ecx+4]
  00068	83 c1 04	 add	 ecx, 4
  0006b	ff 75 f8	 push	 DWORD PTR _iType$[ebp]
  0006e	ff 50 04	 call	 DWORD PTR [eax+4]

; 227  : 
; 228  : 	return Py_BuildNone();

  00071	e8 00 00 00 00	 call	 ?Py_BuildNone@@YAPAU_object@@XZ ; Py_BuildNone

; 229  : }

  00076	8b e5		 mov	 esp, ebp
  00078	5d		 pop	 ebp
  00079	c3		 ret	 0
?chatAppendChat@@YAPAU_object@@PAU1@0@Z ENDP		; chatAppendChat
_TEXT	ENDS
; Function compile flags: /Ogtp
; File C:\Anka2Project\Anka2Project\Source\Binary\source\UserInterface\PythonChatModule.cpp
; File C:\Anka2Project\Anka2Project\Source\Binary\source\eterBase\Singleton.h
; File C:\Anka2Project\Anka2Project\Source\Binary\source\UserInterface\PythonChatModule.cpp
;	COMDAT ?chatGetChatStack@@YAPAU_object@@PAU1@0@Z
_TEXT	SEGMENT
_index$ = -4						; size = 1
_poSelf$ = 8						; size = 4
_poArgs$ = 12						; size = 4
?chatGetChatStack@@YAPAU_object@@PAU1@0@Z PROC		; chatGetChatStack, COMDAT

; 262  : {

  00000	55		 push	 ebp
  00001	8b ec		 mov	 ebp, esp
  00003	51		 push	 ecx

; 263  : 	BYTE index;
; 264  : 	if (!PyTuple_GetInteger(poArgs, 0, &index))

  00004	8d 45 fc	 lea	 eax, DWORD PTR _index$[ebp]
  00007	50		 push	 eax
  00008	6a 00		 push	 0
  0000a	ff 75 0c	 push	 DWORD PTR _poArgs$[ebp]
  0000d	e8 00 00 00 00	 call	 ?PyTuple_GetInteger@@YA_NPAU_object@@HPAE@Z ; PyTuple_GetInteger
  00012	83 c4 0c	 add	 esp, 12			; 0000000cH
  00015	84 c0		 test	 al, al
  00017	75 0e		 jne	 SHORT $LN2@chatGetCha

; 265  : 		return Py_BuildException();

  00019	6a 00		 push	 0
  0001b	e8 00 00 00 00	 call	 ?Py_BuildException@@YAPAU_object@@PBDZZ ; Py_BuildException
  00020	83 c4 04	 add	 esp, 4

; 272  : }

  00023	8b e5		 mov	 esp, ebp
  00025	5d		 pop	 ebp
  00026	c3		 ret	 0
$LN2@chatGetCha:
; File C:\Anka2Project\Anka2Project\Source\Binary\source\eterBase\Singleton.h

; 26   : 		assert(ms_singleton);

  00027	8b 0d 00 00 00
	00		 mov	 ecx, DWORD PTR ?ms_singleton@?$CSingleton@VCPythonChat@@@@0PAVCPythonChat@@A ; CSingleton<CPythonChat>::ms_singleton
  0002d	85 c9		 test	 ecx, ecx
  0002f	75 1a		 jne	 SHORT $LN7@chatGetCha
  00031	6a 1a		 push	 26			; 0000001aH
  00033	68 00 00 00 00	 push	 OFFSET ??_C@_1IO@CAJLEEOI@?$AAC?$AA?3?$AA?2?$AAA?$AAn?$AAk?$AAa?$AA2?$AAP?$AAr?$AAo?$AAj?$AAe?$AAc?$AAt@
  00038	68 00 00 00 00	 push	 OFFSET ??_C@_1BK@FMEHPMFE@?$AAm?$AAs?$AA_?$AAs?$AAi?$AAn?$AAg?$AAl?$AAe?$AAt?$AAo?$AAn@
  0003d	e8 00 00 00 00	 call	 __wassert
  00042	8b 0d 00 00 00
	00		 mov	 ecx, DWORD PTR ?ms_singleton@?$CSingleton@VCPythonChat@@@@0PAVCPythonChat@@A ; CSingleton<CPythonChat>::ms_singleton
  00048	83 c4 0c	 add	 esp, 12			; 0000000cH
$LN7@chatGetCha:
  0004b	56		 push	 esi
; File C:\Anka2Project\Anka2Project\Source\Binary\source\UserInterface\PythonChatModule.cpp

; 267  : 	const char *stack = CPythonChat::Instance().GetChatStack(index);

  0004c	ff 75 fc	 push	 DWORD PTR _index$[ebp]
  0004f	e8 00 00 00 00	 call	 ?GetChatStack@CPythonChat@@QAEPBDE@Z ; CPythonChat::GetChatStack
  00054	8b f0		 mov	 esi, eax

; 268  : 	if (strcmp(stack, "") == 0)

  00056	ba 00 00 00 00	 mov	 edx, OFFSET ??_C@_00CNPNBAHC@@
  0005b	8b ce		 mov	 ecx, esi
  0005d	53		 push	 ebx
  0005e	66 90		 npad	 2
$LL8@chatGetCha:
  00060	8a 19		 mov	 bl, BYTE PTR [ecx]
  00062	3a 1a		 cmp	 bl, BYTE PTR [edx]
  00064	75 1a		 jne	 SHORT $LN9@chatGetCha
  00066	84 db		 test	 bl, bl
  00068	74 12		 je	 SHORT $LN10@chatGetCha
  0006a	8a 41 01	 mov	 al, BYTE PTR [ecx+1]
  0006d	3a 42 01	 cmp	 al, BYTE PTR [edx+1]
  00070	75 0e		 jne	 SHORT $LN9@chatGetCha
  00072	83 c1 02	 add	 ecx, 2
  00075	83 c2 02	 add	 edx, 2
  00078	84 c0		 test	 al, al
  0007a	75 e4		 jne	 SHORT $LL8@chatGetCha
$LN10@chatGetCha:
  0007c	33 c0		 xor	 eax, eax
  0007e	eb 05		 jmp	 SHORT $LN11@chatGetCha
$LN9@chatGetCha:
  00080	1b c0		 sbb	 eax, eax
  00082	83 c8 01	 or	 eax, 1
$LN11@chatGetCha:
  00085	5b		 pop	 ebx
  00086	85 c0		 test	 eax, eax
  00088	75 0a		 jne	 SHORT $LN3@chatGetCha

; 269  : 		return Py_BuildNone();

  0008a	e8 00 00 00 00	 call	 ?Py_BuildNone@@YAPAU_object@@XZ ; Py_BuildNone
  0008f	5e		 pop	 esi

; 272  : }

  00090	8b e5		 mov	 esp, ebp
  00092	5d		 pop	 ebp
  00093	c3		 ret	 0
$LN3@chatGetCha:

; 270  : 
; 271  : 	return Py_BuildValue("s", stack);

  00094	56		 push	 esi
  00095	68 00 00 00 00	 push	 OFFSET ??_C@_01LKDEMHDF@s@
  0009a	ff 15 00 00 00
	00		 call	 DWORD PTR __imp__Py_BuildValue
  000a0	83 c4 08	 add	 esp, 8
  000a3	5e		 pop	 esi

; 272  : }

  000a4	8b e5		 mov	 esp, ebp
  000a6	5d		 pop	 ebp
  000a7	c3		 ret	 0
?chatGetChatStack@@YAPAU_object@@PAU1@0@Z ENDP		; chatGetChatStack
_TEXT	ENDS
; Function compile flags: /Ogtp
; File C:\Anka2Project\Anka2Project\Source\Binary\source\UserInterface\PythonChatModule.cpp
; File C:\Anka2Project\Anka2Project\Source\Binary\source\eterBase\Singleton.h
; File C:\Anka2Project\Anka2Project\Source\Binary\source\UserInterface\PythonChatModule.cpp
;	COMDAT ?chatGetChatStackSize@@YAPAU_object@@PAU1@0@Z
_TEXT	SEGMENT
_poSelf$ = 8						; size = 4
_poArgs$ = 12						; size = 4
?chatGetChatStackSize@@YAPAU_object@@PAU1@0@Z PROC	; chatGetChatStackSize, COMDAT
; File C:\Anka2Project\Anka2Project\Source\Binary\source\eterBase\Singleton.h

; 26   : 		assert(ms_singleton);

  00000	8b 0d 00 00 00
	00		 mov	 ecx, DWORD PTR ?ms_singleton@?$CSingleton@VCPythonChat@@@@0PAVCPythonChat@@A ; CSingleton<CPythonChat>::ms_singleton
  00006	85 c9		 test	 ecx, ecx
  00008	75 1a		 jne	 SHORT $LN5@chatGetCha
  0000a	6a 1a		 push	 26			; 0000001aH
  0000c	68 00 00 00 00	 push	 OFFSET ??_C@_1IO@CAJLEEOI@?$AAC?$AA?3?$AA?2?$AAA?$AAn?$AAk?$AAa?$AA2?$AAP?$AAr?$AAo?$AAj?$AAe?$AAc?$AAt@
  00011	68 00 00 00 00	 push	 OFFSET ??_C@_1BK@FMEHPMFE@?$AAm?$AAs?$AA_?$AAs?$AAi?$AAn?$AAg?$AAl?$AAe?$AAt?$AAo?$AAn@
  00016	e8 00 00 00 00	 call	 __wassert
  0001b	8b 0d 00 00 00
	00		 mov	 ecx, DWORD PTR ?ms_singleton@?$CSingleton@VCPythonChat@@@@0PAVCPythonChat@@A ; CSingleton<CPythonChat>::ms_singleton
  00021	83 c4 0c	 add	 esp, 12			; 0000000cH
$LN5@chatGetCha:
; File C:\Anka2Project\Anka2Project\Source\Binary\source\UserInterface\PythonChatModule.cpp

; 276  : 	return Py_BuildValue("i", CPythonChat::Instance().GetChatStackSize());

  00024	e8 00 00 00 00	 call	 ?GetChatStackSize@CPythonChat@@QAEEXZ ; CPythonChat::GetChatStackSize
  00029	0f b6 c0	 movzx	 eax, al
  0002c	50		 push	 eax
  0002d	68 00 00 00 00	 push	 OFFSET ??_C@_01KBJDNOO@i@
  00032	ff 15 00 00 00
	00		 call	 DWORD PTR __imp__Py_BuildValue
  00038	83 c4 08	 add	 esp, 8

; 277  : }

  0003b	c3		 ret	 0
?chatGetChatStackSize@@YAPAU_object@@PAU1@0@Z ENDP	; chatGetChatStackSize
_TEXT	ENDS
; Function compile flags: /Ogtp
; File C:\Anka2Project\Anka2Project\Source\Binary\source\UserInterface\PythonChatModule.cpp
; File C:\Program Files\Microsoft Visual Studio\2022\Community\VC\Tools\MSVC\14.44.35207\include\__msvc_string_view.hpp
; File C:\Program Files\Microsoft Visual Studio\2022\Community\VC\Tools\MSVC\14.44.35207\include\xstring
; File C:\Program Files\Microsoft Visual Studio\2022\Community\VC\Tools\MSVC\14.44.35207\include\__msvc_string_view.hpp
; File C:\Program Files\Microsoft Visual Studio\2022\Community\VC\Tools\MSVC\14.44.35207\include\xstring
; File C:\Anka2Project\Anka2Project\Source\Binary\source\UserInterface\PythonChatModule.cpp
; File C:\Program Files\Microsoft Visual Studio\2022\Community\VC\Tools\MSVC\14.44.35207\include\vector
; File C:\Anka2Project\Anka2Project\Source\Binary\source\UserInterface\PythonChatModule.cpp
; File C:\Program Files\Microsoft Visual Studio\2022\Community\VC\Tools\MSVC\14.44.35207\include\xstring
; File C:\Program Files\Microsoft Visual Studio\2022\Community\VC\Tools\MSVC\14.44.35207\include\__msvc_string_view.hpp
; File C:\Anka2Project\Anka2Project\Source\Binary\source\UserInterface\PythonChatModule.cpp
; File C:\Program Files\Microsoft Visual Studio\2022\Community\VC\Tools\MSVC\14.44.35207\include\xstring
; File C:\Program Files\Microsoft Visual Studio\2022\Community\VC\Tools\MSVC\14.44.35207\include\xmemory
; File C:\Program Files\Microsoft Visual Studio\2022\Community\VC\Tools\MSVC\14.44.35207\include\xstring
; File C:\Program Files\Microsoft Visual Studio\2022\Community\VC\Tools\MSVC\14.44.35207\include\xmemory
; File C:\Program Files\Microsoft Visual Studio\2022\Community\VC\Tools\MSVC\14.44.35207\include\xstring
; File C:\Anka2Project\Anka2Project\Source\Binary\source\UserInterface\PythonChatModule.cpp
; File C:\Program Files\Microsoft Visual Studio\2022\Community\VC\Tools\MSVC\14.44.35207\include\vector
; File C:\Anka2Project\Anka2Project\Source\Binary\source\UserInterface\PythonChatModule.cpp
; File C:\Anka2Project\Anka2Project\Source\Binary\source\eterBase\Singleton.h
; File C:\Anka2Project\Anka2Project\Source\Binary\source\UserInterface\PythonChatModule.cpp
; File C:\Anka2Project\Anka2Project\Source\Binary\source\eterBase\Singleton.h
; File C:\Program Files\Microsoft Visual Studio\2022\Community\VC\Tools\MSVC\14.44.35207\include\xstring
; File C:\Program Files\Microsoft Visual Studio\2022\Community\VC\Tools\MSVC\14.44.35207\include\vector
; File C:\Program Files\Microsoft Visual Studio\2022\Community\VC\Tools\MSVC\14.44.35207\include\xstring
; File C:\Anka2Project\Anka2Project\Source\Binary\source\eterBase\Utils.h
; File C:\Program Files\Microsoft Visual Studio\2022\Community\VC\Tools\MSVC\14.44.35207\include\__msvc_string_view.hpp
; File C:\Anka2Project\Anka2Project\Source\Binary\source\eterBase\Utils.h
; File C:\Anka2Project\Anka2Project\Source\Binary\source\UserInterface\PythonChatModule.cpp
; File C:\Program Files\Microsoft Visual Studio\2022\Community\VC\Tools\MSVC\14.44.35207\include\vector
; File C:\Anka2Project\Anka2Project\Source\Binary\source\UserInterface\PythonChatModule.cpp
; File C:\Program Files\Microsoft Visual Studio\2022\Community\VC\Tools\MSVC\14.44.35207\include\vector
; File C:\Program Files\Microsoft Visual Studio\2022\Community\VC\Tools\MSVC\14.44.35207\include\xstring
; File C:\Anka2Project\Anka2Project\Source\Binary\source\eterBase\Utils.h
; File C:\Program Files\Microsoft Visual Studio\2022\Community\VC\Tools\MSVC\14.44.35207\include\__msvc_string_view.hpp
; File C:\Anka2Project\Anka2Project\Source\Binary\source\eterBase\Utils.h
; File C:\Program Files\Microsoft Visual Studio\2022\Community\VC\Tools\MSVC\14.44.35207\include\vector
; File C:\Program Files\Microsoft Visual Studio\2022\Community\VC\Tools\MSVC\14.44.35207\include\xstring
; File C:\Anka2Project\Anka2Project\Source\Binary\source\eterBase\Utils.h
; File C:\Program Files\Microsoft Visual Studio\2022\Community\VC\Tools\MSVC\14.44.35207\include\__msvc_string_view.hpp
; File C:\Anka2Project\Anka2Project\Source\Binary\source\eterBase\Utils.h
; File C:\Program Files\Microsoft Visual Studio\2022\Community\VC\Tools\MSVC\14.44.35207\include\vector
; File C:\Program Files\Microsoft Visual Studio\2022\Community\VC\Tools\MSVC\14.44.35207\include\xstring
; File C:\Anka2Project\Anka2Project\Source\Binary\source\eterBase\Utils.h
; File C:\Program Files\Microsoft Visual Studio\2022\Community\VC\Tools\MSVC\14.44.35207\include\__msvc_string_view.hpp
; File C:\Anka2Project\Anka2Project\Source\Binary\source\eterBase\Utils.h
; File C:\Program Files\Microsoft Visual Studio\2022\Community\VC\Tools\MSVC\14.44.35207\include\vector
; File C:\Program Files\Microsoft Visual Studio\2022\Community\VC\Tools\MSVC\14.44.35207\include\xstring
; File C:\Anka2Project\Anka2Project\Source\Binary\source\eterBase\Utils.h
; File C:\Program Files\Microsoft Visual Studio\2022\Community\VC\Tools\MSVC\14.44.35207\include\__msvc_string_view.hpp
; File C:\Anka2Project\Anka2Project\Source\Binary\source\eterBase\Utils.h
; File C:\Program Files\Microsoft Visual Studio\2022\Community\VC\Tools\MSVC\14.44.35207\include\vector
; File C:\Program Files\Microsoft Visual Studio\2022\Community\VC\Tools\MSVC\14.44.35207\include\xstring
; File C:\Anka2Project\Anka2Project\Source\Binary\source\eterBase\Utils.h
; File C:\Program Files\Microsoft Visual Studio\2022\Community\VC\Tools\MSVC\14.44.35207\include\__msvc_string_view.hpp
; File C:\Anka2Project\Anka2Project\Source\Binary\source\eterBase\Utils.h
; File C:\Anka2Project\Anka2Project\Source\Binary\source\UserInterface\PythonChatModule.cpp
; File C:\Program Files\Microsoft Visual Studio\2022\Community\VC\Tools\MSVC\14.44.35207\include\vector
; File C:\Anka2Project\Anka2Project\Source\Binary\source\UserInterface\PythonChatModule.cpp
; File C:\Program Files\Microsoft Visual Studio\2022\Community\VC\Tools\MSVC\14.44.35207\include\vector
; File C:\Anka2Project\Anka2Project\Source\Binary\source\UserInterface\PythonChatModule.cpp
; File C:\Program Files\Microsoft Visual Studio\2022\Community\VC\Tools\MSVC\14.44.35207\include\vector
; File C:\Program Files\Microsoft Visual Studio\2022\Community\VC\Tools\MSVC\14.44.35207\include\xstring
; File C:\Anka2Project\Anka2Project\Source\Binary\source\eterBase\Utils.h
; File C:\Program Files\Microsoft Visual Studio\2022\Community\VC\Tools\MSVC\14.44.35207\include\__msvc_string_view.hpp
; File C:\Anka2Project\Anka2Project\Source\Binary\source\eterBase\Utils.h
; File C:\Anka2Project\Anka2Project\Source\Binary\source\UserInterface\PythonChatModule.cpp
; File C:\Program Files\Microsoft Visual Studio\2022\Community\VC\Tools\MSVC\14.44.35207\include\vector
; File C:\Anka2Project\Anka2Project\Source\Binary\source\UserInterface\PythonChatModule.cpp
; File C:\Program Files\Microsoft Visual Studio\2022\Community\VC\Tools\MSVC\14.44.35207\include\vector
; File C:\Anka2Project\Anka2Project\Source\Binary\source\UserInterface\PythonChatModule.cpp
; File C:\Program Files\Microsoft Visual Studio\2022\Community\VC\Tools\MSVC\14.44.35207\include\vector
; File C:\Anka2Project\Anka2Project\Source\Binary\source\UserInterface\PythonChatModule.cpp
; File C:\Program Files\Microsoft Visual Studio\2022\Community\VC\Tools\MSVC\14.44.35207\include\vector
; File C:\Program Files\Microsoft Visual Studio\2022\Community\VC\Tools\MSVC\14.44.35207\include\xstring
; File C:\Anka2Project\Anka2Project\Source\Binary\source\UserInterface\PythonChatModule.cpp
; File C:\Program Files\Microsoft Visual Studio\2022\Community\VC\Tools\MSVC\14.44.35207\include\vector
; File C:\Anka2Project\Anka2Project\Source\Binary\source\UserInterface\PythonChatModule.cpp
; File C:\Program Files\Microsoft Visual Studio\2022\Community\VC\Tools\MSVC\14.44.35207\include\vector
; File C:\Program Files\Microsoft Visual Studio\2022\Community\VC\Tools\MSVC\14.44.35207\include\xstring
; File C:\Anka2Project\Anka2Project\Source\Binary\source\eterBase\Utils.h
; File C:\Program Files\Microsoft Visual Studio\2022\Community\VC\Tools\MSVC\14.44.35207\include\__msvc_string_view.hpp
; File C:\Anka2Project\Anka2Project\Source\Binary\source\eterBase\Utils.h
; File C:\Anka2Project\Anka2Project\Source\Binary\source\UserInterface\PythonChatModule.cpp
; File C:\Program Files\Microsoft Visual Studio\2022\Community\VC\Tools\MSVC\14.44.35207\include\vector
; File C:\Anka2Project\Anka2Project\Source\Binary\source\UserInterface\PythonChatModule.cpp
; File C:\Program Files\Microsoft Visual Studio\2022\Community\VC\Tools\MSVC\14.44.35207\include\vector
; File C:\Anka2Project\Anka2Project\Source\Binary\source\UserInterface\PythonChatModule.cpp
; File C:\Program Files\Microsoft Visual Studio\2022\Community\VC\Tools\MSVC\14.44.35207\include\vector
; File C:\Anka2Project\Anka2Project\Source\Binary\source\UserInterface\PythonChatModule.cpp
; File C:\Program Files\Microsoft Visual Studio\2022\Community\VC\Tools\MSVC\14.44.35207\include\vector
; File C:\Anka2Project\Anka2Project\Source\Binary\source\UserInterface\PythonChatModule.cpp
; File C:\Program Files\Microsoft Visual Studio\2022\Community\VC\Tools\MSVC\14.44.35207\include\vector
; File C:\Program Files\Microsoft Visual Studio\2022\Community\VC\Tools\MSVC\14.44.35207\include\xstring
; File C:\Anka2Project\Anka2Project\Source\Binary\source\UserInterface\PythonChatModule.cpp
; File C:\Program Files\Microsoft Visual Studio\2022\Community\VC\Tools\MSVC\14.44.35207\include\vector
; File C:\Anka2Project\Anka2Project\Source\Binary\source\UserInterface\PythonChatModule.cpp
; File C:\Anka2Project\Anka2Project\Source\Binary\source\eterBase\Singleton.h
; File C:\Anka2Project\Anka2Project\Source\Binary\source\UserInterface\PythonChatModule.cpp
; File C:\Anka2Project\Anka2Project\Source\Binary\source\eterBase\Singleton.h
; File C:\Program Files\Microsoft Visual Studio\2022\Community\VC\Tools\MSVC\14.44.35207\include\xstring
; File C:\Program Files\Microsoft Visual Studio\2022\Community\VC\Tools\MSVC\14.44.35207\include\vector
; File C:\Program Files\Microsoft Visual Studio\2022\Community\VC\Tools\MSVC\14.44.35207\include\xstring
; File C:\Anka2Project\Anka2Project\Source\Binary\source\eterBase\Utils.h
; File C:\Program Files\Microsoft Visual Studio\2022\Community\VC\Tools\MSVC\14.44.35207\include\__msvc_string_view.hpp
; File C:\Anka2Project\Anka2Project\Source\Binary\source\eterBase\Utils.h
; File C:\Anka2Project\Anka2Project\Source\Binary\source\UserInterface\PythonChatModule.cpp
; File C:\Anka2Project\Anka2Project\Source\Binary\source\eterBase\Singleton.h
; File C:\Program Files\Microsoft Visual Studio\2022\Community\VC\Tools\MSVC\14.44.35207\include\vector
; File C:\Program Files\Microsoft Visual Studio\2022\Community\VC\Tools\MSVC\14.44.35207\include\xstring
; File C:\Anka2Project\Anka2Project\Source\Binary\source\eterBase\Utils.h
; File C:\Program Files\Microsoft Visual Studio\2022\Community\VC\Tools\MSVC\14.44.35207\include\__msvc_string_view.hpp
; File C:\Anka2Project\Anka2Project\Source\Binary\source\eterBase\Utils.h
; File C:\Anka2Project\Anka2Project\Source\Binary\source\UserInterface\PythonChatModule.cpp
; File C:\Program Files\Microsoft Visual Studio\2022\Community\VC\Tools\MSVC\14.44.35207\include\vector
; File C:\Program Files\Microsoft Visual Studio\2022\Community\VC\Tools\MSVC\14.44.35207\include\xstring
; File C:\Anka2Project\Anka2Project\Source\Binary\source\eterBase\Utils.h
; File C:\Program Files\Microsoft Visual Studio\2022\Community\VC\Tools\MSVC\14.44.35207\include\__msvc_string_view.hpp
; File C:\Anka2Project\Anka2Project\Source\Binary\source\eterBase\Utils.h
; File C:\Program Files\Microsoft Visual Studio\2022\Community\VC\Tools\MSVC\14.44.35207\include\vector
; File C:\Program Files\Microsoft Visual Studio\2022\Community\VC\Tools\MSVC\14.44.35207\include\xstring
; File C:\Anka2Project\Anka2Project\Source\Binary\source\eterBase\Utils.h
; File C:\Program Files\Microsoft Visual Studio\2022\Community\VC\Tools\MSVC\14.44.35207\include\__msvc_string_view.hpp
; File C:\Anka2Project\Anka2Project\Source\Binary\source\eterBase\Utils.h
; File C:\Program Files\Microsoft Visual Studio\2022\Community\VC\Tools\MSVC\14.44.35207\include\vector
; File C:\Program Files\Microsoft Visual Studio\2022\Community\VC\Tools\MSVC\14.44.35207\include\xstring
; File C:\Anka2Project\Anka2Project\Source\Binary\source\eterBase\Utils.h
; File C:\Program Files\Microsoft Visual Studio\2022\Community\VC\Tools\MSVC\14.44.35207\include\__msvc_string_view.hpp
; File C:\Anka2Project\Anka2Project\Source\Binary\source\eterBase\Utils.h
; File C:\Program Files\Microsoft Visual Studio\2022\Community\VC\Tools\MSVC\14.44.35207\include\vector
; File C:\Program Files\Microsoft Visual Studio\2022\Community\VC\Tools\MSVC\14.44.35207\include\xstring
; File C:\Anka2Project\Anka2Project\Source\Binary\source\eterBase\Utils.h
; File C:\Program Files\Microsoft Visual Studio\2022\Community\VC\Tools\MSVC\14.44.35207\include\__msvc_string_view.hpp
; File C:\Anka2Project\Anka2Project\Source\Binary\source\eterBase\Utils.h
; File C:\Program Files\Microsoft Visual Studio\2022\Community\VC\Tools\MSVC\14.44.35207\include\vector
; File C:\Program Files\Microsoft Visual Studio\2022\Community\VC\Tools\MSVC\14.44.35207\include\xstring
; File C:\Anka2Project\Anka2Project\Source\Binary\source\eterBase\Utils.h
; File C:\Program Files\Microsoft Visual Studio\2022\Community\VC\Tools\MSVC\14.44.35207\include\__msvc_string_view.hpp
; File C:\Anka2Project\Anka2Project\Source\Binary\source\eterBase\Utils.h
; File C:\Anka2Project\Anka2Project\Source\Binary\source\UserInterface\PythonChatModule.cpp
; File C:\Program Files\Microsoft Visual Studio\2022\Community\VC\Tools\MSVC\14.44.35207\include\vector
; File C:\Program Files\Microsoft Visual Studio\2022\Community\VC\Tools\MSVC\14.44.35207\include\xstring
; File C:\Anka2Project\Anka2Project\Source\Binary\source\eterBase\Utils.h
; File C:\Program Files\Microsoft Visual Studio\2022\Community\VC\Tools\MSVC\14.44.35207\include\__msvc_string_view.hpp
; File C:\Anka2Project\Anka2Project\Source\Binary\source\eterBase\Utils.h
; File C:\Program Files\Microsoft Visual Studio\2022\Community\VC\Tools\MSVC\14.44.35207\include\vector
; File C:\Program Files\Microsoft Visual Studio\2022\Community\VC\Tools\MSVC\14.44.35207\include\xstring
; File C:\Anka2Project\Anka2Project\Source\Binary\source\eterBase\Utils.h
; File C:\Program Files\Microsoft Visual Studio\2022\Community\VC\Tools\MSVC\14.44.35207\include\__msvc_string_view.hpp
; File C:\Anka2Project\Anka2Project\Source\Binary\source\eterBase\Utils.h
; File C:\Program Files\Microsoft Visual Studio\2022\Community\VC\Tools\MSVC\14.44.35207\include\vector
; File C:\Program Files\Microsoft Visual Studio\2022\Community\VC\Tools\MSVC\14.44.35207\include\xstring
; File C:\Anka2Project\Anka2Project\Source\Binary\source\eterBase\Utils.h
; File C:\Program Files\Microsoft Visual Studio\2022\Community\VC\Tools\MSVC\14.44.35207\include\__msvc_string_view.hpp
; File C:\Anka2Project\Anka2Project\Source\Binary\source\eterBase\Utils.h
; File C:\Program Files\Microsoft Visual Studio\2022\Community\VC\Tools\MSVC\14.44.35207\include\vector
; File C:\Program Files\Microsoft Visual Studio\2022\Community\VC\Tools\MSVC\14.44.35207\include\xstring
; File C:\Anka2Project\Anka2Project\Source\Binary\source\eterBase\Utils.h
; File C:\Program Files\Microsoft Visual Studio\2022\Community\VC\Tools\MSVC\14.44.35207\include\__msvc_string_view.hpp
; File C:\Anka2Project\Anka2Project\Source\Binary\source\eterBase\Utils.h
; File C:\Program Files\Microsoft Visual Studio\2022\Community\VC\Tools\MSVC\14.44.35207\include\vector
; File C:\Program Files\Microsoft Visual Studio\2022\Community\VC\Tools\MSVC\14.44.35207\include\xstring
; File C:\Anka2Project\Anka2Project\Source\Binary\source\eterBase\Utils.h
; File C:\Program Files\Microsoft Visual Studio\2022\Community\VC\Tools\MSVC\14.44.35207\include\__msvc_string_view.hpp
; File C:\Anka2Project\Anka2Project\Source\Binary\source\eterBase\Utils.h
; File C:\Program Files\Microsoft Visual Studio\2022\Community\VC\Tools\MSVC\14.44.35207\include\vector
; File C:\Program Files\Microsoft Visual Studio\2022\Community\VC\Tools\MSVC\14.44.35207\include\xstring
; File C:\Anka2Project\Anka2Project\Source\Binary\source\eterBase\Utils.h
; File C:\Program Files\Microsoft Visual Studio\2022\Community\VC\Tools\MSVC\14.44.35207\include\__msvc_string_view.hpp
; File C:\Anka2Project\Anka2Project\Source\Binary\source\eterBase\Utils.h
; File C:\Anka2Project\Anka2Project\Source\Binary\source\UserInterface\PythonChatModule.cpp
; File C:\Program Files\Microsoft Visual Studio\2022\Community\VC\Tools\MSVC\14.44.35207\include\xstring
; File C:\Program Files\Microsoft Visual Studio\2022\Community\VC\Tools\MSVC\14.44.35207\include\vector
; File C:\Anka2Project\Anka2Project\Source\Binary\source\UserInterface\PythonChatModule.cpp
; File C:\Program Files\Microsoft Visual Studio\2022\Community\VC\Tools\MSVC\14.44.35207\include\xstring
; File C:\Anka2Project\Anka2Project\Source\Binary\source\eterBase\Utils.h
; File C:\Program Files\Microsoft Visual Studio\2022\Community\VC\Tools\MSVC\14.44.35207\include\__msvc_string_view.hpp
; File C:\Anka2Project\Anka2Project\Source\Binary\source\eterBase\Utils.h
; File C:\Program Files\Microsoft Visual Studio\2022\Community\VC\Tools\MSVC\14.44.35207\include\vector
; File C:\Program Files\Microsoft Visual Studio\2022\Community\VC\Tools\MSVC\14.44.35207\include\xstring
; File C:\Anka2Project\Anka2Project\Source\Binary\source\eterBase\Utils.h
; File C:\Program Files\Microsoft Visual Studio\2022\Community\VC\Tools\MSVC\14.44.35207\include\__msvc_string_view.hpp
; File C:\Anka2Project\Anka2Project\Source\Binary\source\eterBase\Utils.h
; File C:\Program Files\Microsoft Visual Studio\2022\Community\VC\Tools\MSVC\14.44.35207\include\vector
; File C:\Program Files\Microsoft Visual Studio\2022\Community\VC\Tools\MSVC\14.44.35207\include\xstring
; File C:\Anka2Project\Anka2Project\Source\Binary\source\eterBase\Utils.h
; File C:\Program Files\Microsoft Visual Studio\2022\Community\VC\Tools\MSVC\14.44.35207\include\__msvc_string_view.hpp
; File C:\Anka2Project\Anka2Project\Source\Binary\source\eterBase\Utils.h
; File C:\Program Files\Microsoft Visual Studio\2022\Community\VC\Tools\MSVC\14.44.35207\include\vector
; File C:\Program Files\Microsoft Visual Studio\2022\Community\VC\Tools\MSVC\14.44.35207\include\xstring
; File C:\Anka2Project\Anka2Project\Source\Binary\source\UserInterface\PythonChatModule.cpp
; File C:\Program Files\Microsoft Visual Studio\2022\Community\VC\Tools\MSVC\14.44.35207\include\vector
; File C:\Anka2Project\Anka2Project\Source\Binary\source\UserInterface\PythonChatModule.cpp
; File C:\Program Files\Microsoft Visual Studio\2022\Community\VC\Tools\MSVC\14.44.35207\include\vector
; File C:\Anka2Project\Anka2Project\Source\Binary\source\UserInterface\PythonChatModule.cpp
; File C:\Program Files\Microsoft Visual Studio\2022\Community\VC\Tools\MSVC\14.44.35207\include\xstring
; File C:\Anka2Project\Anka2Project\Source\Binary\source\eterBase\Utils.h
; File C:\Program Files\Microsoft Visual Studio\2022\Community\VC\Tools\MSVC\14.44.35207\include\__msvc_string_view.hpp
; File C:\Anka2Project\Anka2Project\Source\Binary\source\eterBase\Utils.h
; File C:\Program Files\Microsoft Visual Studio\2022\Community\VC\Tools\MSVC\14.44.35207\include\vector
; File C:\Program Files\Microsoft Visual Studio\2022\Community\VC\Tools\MSVC\14.44.35207\include\xstring
; File C:\Anka2Project\Anka2Project\Source\Binary\source\eterBase\Utils.h
; File C:\Program Files\Microsoft Visual Studio\2022\Community\VC\Tools\MSVC\14.44.35207\include\__msvc_string_view.hpp
; File C:\Anka2Project\Anka2Project\Source\Binary\source\eterBase\Utils.h
; File C:\Program Files\Microsoft Visual Studio\2022\Community\VC\Tools\MSVC\14.44.35207\include\vector
; File C:\Program Files\Microsoft Visual Studio\2022\Community\VC\Tools\MSVC\14.44.35207\include\xstring
; File C:\Anka2Project\Anka2Project\Source\Binary\source\eterBase\Utils.h
; File C:\Program Files\Microsoft Visual Studio\2022\Community\VC\Tools\MSVC\14.44.35207\include\__msvc_string_view.hpp
; File C:\Anka2Project\Anka2Project\Source\Binary\source\eterBase\Utils.h
; File C:\Program Files\Microsoft Visual Studio\2022\Community\VC\Tools\MSVC\14.44.35207\include\vector
; File C:\Program Files\Microsoft Visual Studio\2022\Community\VC\Tools\MSVC\14.44.35207\include\xstring
; File C:\Anka2Project\Anka2Project\Source\Binary\source\eterBase\Utils.h
; File C:\Program Files\Microsoft Visual Studio\2022\Community\VC\Tools\MSVC\14.44.35207\include\__msvc_string_view.hpp
; File C:\Anka2Project\Anka2Project\Source\Binary\source\eterBase\Utils.h
; File C:\Program Files\Microsoft Visual Studio\2022\Community\VC\Tools\MSVC\14.44.35207\include\vector
; File C:\Program Files\Microsoft Visual Studio\2022\Community\VC\Tools\MSVC\14.44.35207\include\xstring
; File C:\Anka2Project\Anka2Project\Source\Binary\source\UserInterface\PythonChatModule.cpp
; File C:\Program Files\Microsoft Visual Studio\2022\Community\VC\Tools\MSVC\14.44.35207\include\vector
; File C:\Anka2Project\Anka2Project\Source\Binary\source\UserInterface\PythonChatModule.cpp
; File C:\Program Files\Microsoft Visual Studio\2022\Community\VC\Tools\MSVC\14.44.35207\include\vector
; File C:\Anka2Project\Anka2Project\Source\Binary\source\UserInterface\PythonChatModule.cpp
; File C:\Program Files\Microsoft Visual Studio\2022\Community\VC\Tools\MSVC\14.44.35207\include\vector
; File C:\Program Files\Microsoft Visual Studio\2022\Community\VC\Tools\MSVC\14.44.35207\include\xstring
; File C:\Anka2Project\Anka2Project\Source\Binary\source\eterBase\Utils.h
; File C:\Program Files\Microsoft Visual Studio\2022\Community\VC\Tools\MSVC\14.44.35207\include\__msvc_string_view.hpp
; File C:\Anka2Project\Anka2Project\Source\Binary\source\eterBase\Utils.h
; File C:\Anka2Project\Anka2Project\Source\Binary\source\UserInterface\PythonChatModule.cpp
; File C:\Program Files\Microsoft Visual Studio\2022\Community\VC\Tools\MSVC\14.44.35207\include\xstring
; File C:\Anka2Project\Anka2Project\Source\Binary\source\UserInterface\PythonChatModule.cpp
; File C:\Program Files\Microsoft Visual Studio\2022\Community\VC\Tools\MSVC\14.44.35207\include\xstring
; File C:\Anka2Project\Anka2Project\Source\Binary\source\UserInterface\PythonChatModule.cpp
; File C:\Program Files\Microsoft Visual Studio\2022\Community\VC\Tools\MSVC\14.44.35207\include\vector
; File C:\Program Files\Microsoft Visual Studio\2022\Community\VC\Tools\MSVC\14.44.35207\include\xstring
; File C:\Anka2Project\Anka2Project\Source\Binary\source\UserInterface\PythonChatModule.cpp
; File C:\Program Files\Microsoft Visual Studio\2022\Community\VC\Tools\MSVC\14.44.35207\include\xmemory
; File C:\Anka2Project\Anka2Project\Source\Binary\source\UserInterface\PythonChatModule.cpp
;	COMDAT ?chatGetLinkFromHyperlink@@YAPAU_object@@PAU1@0@Z
_TEXT	SEGMENT
$T247 = -1464						; size = 8
_len$1$ = -1452						; size = 4
tv6527 = -1448						; size = 4
tv6526 = -1444						; size = 4
tv6525 = -1440						; size = 4
tv6524 = -1436						; size = 4
_szHyperlink$ = -1432					; size = 4
tv6643 = -1428						; size = 4
tv6638 = -1428						; size = 4
$T248 = -1424						; size = 4
$T249 = -1420						; size = 4
$T250 = -1416						; size = 4
$T251 = -1412						; size = 4
$T252 = -1408						; size = 4
$T253 = -1404						; size = 4
$T254 = -1400						; size = 4
tv6222 = -1396						; size = 4
$T255 = -1396						; size = 4
_results$ = -1392					; size = 12
_pItemData$256 = -1380					; size = 4
_pPet$257 = -1380					; size = 4
$T258 = -1380						; size = 4
tv6567 = -1376						; size = 4
tv6575 = -1376						; size = 4
_pItemData$259 = -1376					; size = 4
tv6570 = -1376						; size = 4
tv6552 = -1376						; size = 4
tv6555 = -1376						; size = 4
tv6558 = -1376						; size = 4
tv6561 = -1376						; size = 4
tv6564 = -1376						; size = 4
tv6221 = -1372						; size = 4
$T260 = -1372						; size = 4
$T261 = -1372						; size = 4
$T262 = -1372						; size = 4
$T263 = -1368						; size = 4
$T264 = -1368						; size = 4
$T265 = -1368						; size = 4
_i$1$ = -1368						; size = 4
_y$1$ = -1364						; size = 4
__Result$1$ = -1364					; size = 4
__Result$1$ = -1364					; size = 4
_y$1$ = -1364						; size = 4
$T266 = -1364						; size = 4
tv6581 = -1360						; size = 4
_s$1$ = -1360						; size = 4
tv6593 = -1360						; size = 4
tv6590 = -1360						; size = 4
tv6587 = -1360						; size = 4
tv6596 = -1360						; size = 4
tv6584 = -1360						; size = 4
tv6578 = -1360						; size = 4
tv6537 = -1360						; size = 4
__Result$1$ = -1360					; size = 4
__Result$1$ = -1360					; size = 4
_s$1$ = -1360						; size = 4
_s$1$ = -1360						; size = 4
_s$1$ = -1360						; size = 4
_len$1$ = -1356						; size = 4
__Result$1$ = -1356					; size = 4
__Result$1$ = -1356					; size = 4
__Result$1$ = -1356					; size = 4
__Result$1$ = -1356					; size = 4
__Result$1$ = -1356					; size = 4
__Result$1$ = -1356					; size = 4
__Result$1$ = -1356					; size = 4
__Result$1$ = -1356					; size = 4
__Result$1$ = -1356					; size = 4
__Result$1$ = -1356					; size = 4
__Result$1$ = -1356					; size = 4
$T267 = -1356						; size = 4
__Result$1$ = -1356					; size = 4
__Result$1$ = -1356					; size = 4
_stHyperlink$ = -1352					; size = 24
$T7 = -1328						; size = 24
$T268 = -1320						; size = 16
_buf$269 = -1304					; size = 1024
_buf$270 = -1304					; size = 1024
_buf$271 = -1304					; size = 1024
_itemlink$272 = -280					; size = 256
_itemlink$273 = -280					; size = 256
__$ArrayPad$ = -20					; size = 4
__$EHRec$ = -12						; size = 12
_poSelf$ = 8						; size = 4
_poArgs$ = 12						; size = 4
?chatGetLinkFromHyperlink@@YAPAU_object@@PAU1@0@Z PROC	; chatGetLinkFromHyperlink, COMDAT

; 428  : {

  00000	53		 push	 ebx
  00001	8b dc		 mov	 ebx, esp
  00003	83 ec 08	 sub	 esp, 8
  00006	83 e4 f8	 and	 esp, -8			; fffffff8H
  00009	83 c4 04	 add	 esp, 4
  0000c	55		 push	 ebp
  0000d	8b 6b 04	 mov	 ebp, DWORD PTR [ebx+4]
  00010	89 6c 24 04	 mov	 DWORD PTR [esp+4], ebp
  00014	8b ec		 mov	 ebp, esp
  00016	6a ff		 push	 -1
  00018	68 00 00 00 00	 push	 __ehhandler$?chatGetLinkFromHyperlink@@YAPAU_object@@PAU1@0@Z
  0001d	64 a1 00 00 00
	00		 mov	 eax, DWORD PTR fs:0
  00023	50		 push	 eax
  00024	53		 push	 ebx
  00025	81 ec a8 05 00
	00		 sub	 esp, 1448		; 000005a8H
  0002b	a1 00 00 00 00	 mov	 eax, DWORD PTR ___security_cookie
  00030	33 c5		 xor	 eax, ebp
  00032	89 45 ec	 mov	 DWORD PTR __$ArrayPad$[ebp], eax
  00035	56		 push	 esi
  00036	57		 push	 edi
  00037	50		 push	 eax
  00038	8d 45 f4	 lea	 eax, DWORD PTR __$EHRec$[ebp]
  0003b	64 a3 00 00 00
	00		 mov	 DWORD PTR fs:0, eax
  00041	8b 43 0c	 mov	 eax, DWORD PTR _poArgs$[ebx]

; 429  : 	char *szHyperlink;
; 430  : 	
; 431  : 	if (!PyTuple_GetString(poArgs, 0, &szHyperlink))

  00044	8d 8d 68 fa ff
	ff		 lea	 ecx, DWORD PTR _szHyperlink$[ebp]
  0004a	51		 push	 ecx
  0004b	6a 00		 push	 0
  0004d	50		 push	 eax
  0004e	e8 00 00 00 00	 call	 ?PyTuple_GetString@@YA_NPAU_object@@HPAPAD@Z ; PyTuple_GetString
  00053	83 c4 0c	 add	 esp, 12			; 0000000cH
  00056	84 c0		 test	 al, al
  00058	75 0f		 jne	 SHORT $LN5@chatGetLin

; 432  : 		return Py_BuildException();

  0005a	6a 00		 push	 0
  0005c	e8 00 00 00 00	 call	 ?Py_BuildException@@YAPAU_object@@PBDZZ ; Py_BuildException
  00061	83 c4 04	 add	 esp, 4
  00064	e9 c7 16 00 00	 jmp	 $LN1@chatGetLin
$LN5@chatGetLin:
; File C:\Program Files\Microsoft Visual Studio\2022\Community\VC\Tools\MSVC\14.44.35207\include\__msvc_string_view.hpp

; 456  :             return __builtin_strlen(_First);

  00069	8b 95 68 fa ff
	ff		 mov	 edx, DWORD PTR _szHyperlink$[ebp]
  0006f	0f 57 c0	 xorps	 xmm0, xmm0
  00072	8b ca		 mov	 ecx, edx
; File C:\Program Files\Microsoft Visual Studio\2022\Community\VC\Tools\MSVC\14.44.35207\include\xstring

; 517  :     size_type _Mysize = 0; // current length of string (size)

  00074	c7 85 c8 fa ff
	ff 00 00 00 00	 mov	 DWORD PTR _stHyperlink$[ebp+16], 0

; 493  :         _CONSTEXPR20 _Bxty() noexcept : _Buf() {} // user-provided, for fancy pointers

  0007e	0f 11 85 b8 fa
	ff ff		 movups	 XMMWORD PTR _stHyperlink$[ebp], xmm0

; 518  :     size_type _Myres  = 0; // current storage reserved for string (capacity)

  00085	c7 85 cc fa ff
	ff 00 00 00 00	 mov	 DWORD PTR _stHyperlink$[ebp+20], 0
; File C:\Program Files\Microsoft Visual Studio\2022\Community\VC\Tools\MSVC\14.44.35207\include\__msvc_string_view.hpp

; 456  :             return __builtin_strlen(_First);

  0008f	8d 71 01	 lea	 esi, DWORD PTR [ecx+1]
$LL1324@chatGetLin:
  00092	8a 01		 mov	 al, BYTE PTR [ecx]
  00094	41		 inc	 ecx
  00095	84 c0		 test	 al, al
  00097	75 f9		 jne	 SHORT $LL1324@chatGetLin
  00099	2b ce		 sub	 ecx, esi
; File C:\Program Files\Microsoft Visual Studio\2022\Community\VC\Tools\MSVC\14.44.35207\include\xstring

; 769  :         _Construct<_Construct_strategy::_From_ptr>(_Ptr, _Convert_size<size_type>(_Traits::length(_Ptr)));

  0009b	51		 push	 ecx
  0009c	52		 push	 edx
  0009d	8d 8d b8 fa ff
	ff		 lea	 ecx, DWORD PTR _stHyperlink$[ebp]
  000a3	e8 00 00 00 00	 call	 ??$_Construct@$00PBD@?$basic_string@DU?$char_traits@D@std@@V?$allocator@D@2@@std@@AAEXQBDI@Z ; std::basic_string<char,std::char_traits<char>,std::allocator<char> >::_Construct<1,char const *>
; File C:\Anka2Project\Anka2Project\Source\Binary\source\UserInterface\PythonChatModule.cpp

; 434  : 	std::string stHyperlink(szHyperlink);

  000a8	c7 45 fc 00 00
	00 00		 mov	 DWORD PTR __$EHRec$[ebp+8], 0
; File C:\Program Files\Microsoft Visual Studio\2022\Community\VC\Tools\MSVC\14.44.35207\include\vector

; 400  :     _CONSTEXPR20 _Vector_val() noexcept : _Myfirst(), _Mylast(), _Myend() {}

  000af	c7 85 90 fa ff
	ff 00 00 00 00	 mov	 DWORD PTR _results$[ebp], 0
  000b9	c7 85 94 fa ff
	ff 00 00 00 00	 mov	 DWORD PTR _results$[ebp+4], 0
  000c3	c7 85 98 fa ff
	ff 00 00 00 00	 mov	 DWORD PTR _results$[ebp+8], 0
; File C:\Anka2Project\Anka2Project\Source\Binary\source\UserInterface\PythonChatModule.cpp

; 435  : 	std::vector<std::string> results;

  000cd	0f 57 c0	 xorps	 xmm0, xmm0
; File C:\Program Files\Microsoft Visual Studio\2022\Community\VC\Tools\MSVC\14.44.35207\include\xstring

; 890  :             _My_data._Mysize = _Count;

  000d0	c7 85 e0 fa ff
	ff 01 00 00 00	 mov	 DWORD PTR $T7[ebp+16], 1

; 493  :         _CONSTEXPR20 _Bxty() noexcept : _Buf() {} // user-provided, for fancy pointers

  000da	0f 11 85 d0 fa
	ff ff		 movups	 XMMWORD PTR $T7[ebp], xmm0

; 891  :             _My_data._Myres  = _Small_string_capacity;

  000e1	c7 85 e4 fa ff
	ff 0f 00 00 00	 mov	 DWORD PTR $T7[ebp+20], 15 ; 0000000fH
; File C:\Program Files\Microsoft Visual Studio\2022\Community\VC\Tools\MSVC\14.44.35207\include\__msvc_string_view.hpp

; 121  :         _CSTD memcpy(_First1, _First2, _Count * sizeof(_Elem));

  000eb	66 c7 85 d0 fa
	ff ff 3a 00	 mov	 WORD PTR $T7[ebp], 58	; 0000003aH
; File C:\Anka2Project\Anka2Project\Source\Binary\source\UserInterface\PythonChatModule.cpp

; 437  : 	split_string(stHyperlink, ":", results, false);

  000f4	6a 00		 push	 0
  000f6	8d 85 90 fa ff
	ff		 lea	 eax, DWORD PTR _results$[ebp]
  000fc	c6 45 fc 02	 mov	 BYTE PTR __$EHRec$[ebp+8], 2
  00100	50		 push	 eax
  00101	8d 85 d0 fa ff
	ff		 lea	 eax, DWORD PTR $T7[ebp]
  00107	50		 push	 eax
  00108	8d 85 b8 fa ff
	ff		 lea	 eax, DWORD PTR _stHyperlink$[ebp]
  0010e	50		 push	 eax
  0010f	e8 00 00 00 00	 call	 ?split_string@@YAHABV?$basic_string@DU?$char_traits@D@std@@V?$allocator@D@2@@std@@0AAV?$vector@V?$basic_string@DU?$char_traits@D@std@@V?$allocator@D@2@@std@@V?$allocator@V?$basic_string@DU?$char_traits@D@std@@V?$allocator@D@2@@std@@@2@@2@_N@Z ; split_string
  00114	c6 45 fc 01	 mov	 BYTE PTR __$EHRec$[ebp+8], 1
  00118	83 c4 10	 add	 esp, 16			; 00000010H
; File C:\Program Files\Microsoft Visual Studio\2022\Community\VC\Tools\MSVC\14.44.35207\include\xstring

; 453  :         return _Myres > _Small_string_capacity;

  0011b	8b 8d e4 fa ff
	ff		 mov	 ecx, DWORD PTR $T7[ebp+20]
  00121	83 f9 0f	 cmp	 ecx, 15			; 0000000fH

; 3083 :         if (_My_data._Large_mode_engaged()) {

  00124	76 2f		 jbe	 SHORT $LN149@chatGetLin
; File C:\Program Files\Microsoft Visual Studio\2022\Community\VC\Tools\MSVC\14.44.35207\include\xmemory

; 985  :         _STD _Deallocate<_New_alignof<_Ty>>(_Ptr, sizeof(_Ty) * _Count);

  00126	8b 95 d0 fa ff
	ff		 mov	 edx, DWORD PTR $T7[ebp]
; File C:\Program Files\Microsoft Visual Studio\2022\Community\VC\Tools\MSVC\14.44.35207\include\xstring

; 852  :         _Al.deallocate(_Old_ptr, _Capacity + 1); // +1 for null terminator

  0012c	41		 inc	 ecx
; File C:\Program Files\Microsoft Visual Studio\2022\Community\VC\Tools\MSVC\14.44.35207\include\xmemory

; 985  :         _STD _Deallocate<_New_alignof<_Ty>>(_Ptr, sizeof(_Ty) * _Count);

  0012d	8b c2		 mov	 eax, edx

; 284  :         if (_Bytes >= _Big_allocation_threshold) {

  0012f	81 f9 00 10 00
	00		 cmp	 ecx, 4096		; 00001000H
  00135	72 14		 jb	 SHORT $LN157@chatGetLin

; 205  :     const uintptr_t _Ptr_container   = _Ptr_user[-1];

  00137	8b 50 fc	 mov	 edx, DWORD PTR [eax-4]
  0013a	83 c1 23	 add	 ecx, 35			; 00000023H
  0013d	2b c2		 sub	 eax, edx

; 219  :     _STL_VERIFY(_Back_shift >= _Min_back_shift && _Back_shift <= _Non_user_size, "invalid argument");

  0013f	83 c0 fc	 add	 eax, -4			; fffffffcH
  00142	83 f8 1f	 cmp	 eax, 31			; 0000001fH
  00145	0f 87 03 16 00
	00		 ja	 $LN1389@chatGetLin
$LN157@chatGetLin:

; 289  :         ::operator delete(_Ptr, _Bytes);

  0014b	51		 push	 ecx
  0014c	52		 push	 edx
  0014d	e8 00 00 00 00	 call	 ??3@YAXPAXI@Z		; operator delete
  00152	83 c4 08	 add	 esp, 8
$LN149@chatGetLin:
; File C:\Program Files\Microsoft Visual Studio\2022\Community\VC\Tools\MSVC\14.44.35207\include\xstring

; 2912 :         return _Traits_compare<_Traits>(_Mypair._Myval2._Myptr(), _Mypair._Myval2._Mysize, _Ptr, _Traits::length(_Ptr));

  00155	8b b5 90 fa ff
	ff		 mov	 esi, DWORD PTR _results$[ebp]

; 444  :         const value_type* _Result = _Bx._Buf;

  0015b	8b c6		 mov	 eax, esi
  0015d	8b f8		 mov	 edi, eax

; 453  :         return _Myres > _Small_string_capacity;

  0015f	83 7f 14 0f	 cmp	 DWORD PTR [edi+20], 15	; 0000000fH

; 445  :         if (_Large_mode_engaged()) {

  00163	76 02		 jbe	 SHORT $LN1321@chatGetLin

; 446  :             _Result = _Unfancy(_Bx._Ptr);

  00165	8b 06		 mov	 eax, DWORD PTR [esi]
$LN1321@chatGetLin:

; 2912 :         return _Traits_compare<_Traits>(_Mypair._Myval2._Myptr(), _Mypair._Myval2._Mysize, _Ptr, _Traits::length(_Ptr));

  00167	6a 04		 push	 4
  00169	68 00 00 00 00	 push	 OFFSET ??_C@_04NHONDGDE@item@
  0016e	ff 76 10	 push	 DWORD PTR [esi+16]
  00171	50		 push	 eax
  00172	e8 00 00 00 00	 call	 ??$_Traits_compare@U?$char_traits@D@std@@@std@@YAHQBDI0I@Z ; std::_Traits_compare<std::char_traits<char> >
  00177	83 c4 10	 add	 esp, 16			; 00000010H
; File C:\Anka2Project\Anka2Project\Source\Binary\source\UserInterface\PythonChatModule.cpp

; 439  : 	if (0 == results[0].compare("item"))

  0017a	85 c0		 test	 eax, eax
  0017c	0f 85 d1 06 00
	00		 jne	 $LN6@chatGetLin
; File C:\Program Files\Microsoft Visual Studio\2022\Community\VC\Tools\MSVC\14.44.35207\include\vector

; 1915 :         return static_cast<size_type>(_My_data._Mylast - _My_data._Myfirst);

  00182	8b 8d 94 fa ff
	ff		 mov	 ecx, DWORD PTR _results$[ebp+4]
  00188	b8 ab aa aa 2a	 mov	 eax, 715827883		; 2aaaaaabH
  0018d	2b cf		 sub	 ecx, edi
  0018f	f7 e9		 imul	 ecx
  00191	c1 fa 02	 sar	 edx, 2
  00194	8b c2		 mov	 eax, edx
  00196	c1 e8 1f	 shr	 eax, 31			; 0000001fH
  00199	03 c2		 add	 eax, edx
; File C:\Anka2Project\Anka2Project\Source\Binary\source\UserInterface\PythonChatModule.cpp

; 441  : 		if (results.size() < 6)

  0019b	83 f8 06	 cmp	 eax, 6
  0019e	0f 82 5f 15 00
	00		 jb	 $LN18@chatGetLin
; File C:\Anka2Project\Anka2Project\Source\Binary\source\eterBase\Singleton.h

; 26   : 		assert(ms_singleton);

  001a4	83 3d 00 00 00
	00 00		 cmp	 DWORD PTR ?ms_singleton@?$CSingleton@VCItemManager@@@@0PAVCItemManager@@A, 0 ; CSingleton<CItemManager>::ms_singleton
; File C:\Anka2Project\Anka2Project\Source\Binary\source\UserInterface\PythonChatModule.cpp

; 444  : 		CItemData * pItemData = nullptr;

  001ab	c7 85 9c fa ff
	ff 00 00 00 00	 mov	 DWORD PTR _pItemData$256[ebp], 0
; File C:\Anka2Project\Anka2Project\Source\Binary\source\eterBase\Singleton.h

; 26   : 		assert(ms_singleton);

  001b5	75 1a		 jne	 SHORT $LN239@chatGetLin
  001b7	6a 1a		 push	 26			; 0000001aH
  001b9	68 00 00 00 00	 push	 OFFSET ??_C@_1IO@CAJLEEOI@?$AAC?$AA?3?$AA?2?$AAA?$AAn?$AAk?$AAa?$AA2?$AAP?$AAr?$AAo?$AAj?$AAe?$AAc?$AAt@
  001be	68 00 00 00 00	 push	 OFFSET ??_C@_1BK@FMEHPMFE@?$AAm?$AAs?$AA_?$AAs?$AAi?$AAn?$AAg?$AAl?$AAe?$AAt?$AAo?$AAn@
  001c3	e8 00 00 00 00	 call	 __wassert
  001c8	8b b5 90 fa ff
	ff		 mov	 esi, DWORD PTR _results$[ebp]
  001ce	83 c4 0c	 add	 esp, 12			; 0000000cH
$LN239@chatGetLin:
; File C:\Program Files\Microsoft Visual Studio\2022\Community\VC\Tools\MSVC\14.44.35207\include\xstring

; 453  :         return _Myres > _Small_string_capacity;

  001d1	83 7e 2c 0f	 cmp	 DWORD PTR [esi+44], 15	; 0000000fH
; File C:\Program Files\Microsoft Visual Studio\2022\Community\VC\Tools\MSVC\14.44.35207\include\vector

; 1934 :         return _My_data._Myfirst[_Pos];

  001d5	8d 7e 18	 lea	 edi, DWORD PTR [esi+24]
  001d8	89 bd b4 fa ff
	ff		 mov	 DWORD PTR __Result$1$[ebp], edi
; File C:\Program Files\Microsoft Visual Studio\2022\Community\VC\Tools\MSVC\14.44.35207\include\xstring

; 445  :         if (_Large_mode_engaged()) {

  001de	76 08		 jbe	 SHORT $LN247@chatGetLin

; 446  :             _Result = _Unfancy(_Bx._Ptr);

  001e0	8b 3f		 mov	 edi, DWORD PTR [edi]
  001e2	89 bd b4 fa ff
	ff		 mov	 DWORD PTR __Result$1$[ebp], edi
$LN247@chatGetLin:
; File C:\Anka2Project\Anka2Project\Source\Binary\source\eterBase\Utils.h

; 208  :     s += strlen(s);

  001e8	8b cf		 mov	 ecx, edi
  001ea	33 d2		 xor	 edx, edx
  001ec	8d 41 01	 lea	 eax, DWORD PTR [ecx+1]
  001ef	8d 72 01	 lea	 esi, DWORD PTR [edx+1]
  001f2	89 85 a0 fa ff
	ff		 mov	 DWORD PTR tv6552[ebp], eax
$LL1325@chatGetLin:
  001f8	8a 01		 mov	 al, BYTE PTR [ecx]
  001fa	41		 inc	 ecx
  001fb	84 c0		 test	 al, al
  001fd	75 f9		 jne	 SHORT $LL1325@chatGetLin
  001ff	2b 8d a0 fa ff
	ff		 sub	 ecx, DWORD PTR tv6552[ebp]

; 209  : 
; 210  :     while (t <= --s)

  00205	4f		 dec	 edi
  00206	03 f9		 add	 edi, ecx
  00208	39 bd b4 fa ff
	ff		 cmp	 DWORD PTR __Result$1$[ebp], edi
  0020e	77 46		 ja	 SHORT $LN253@chatGetLin
$LL254@chatGetLin:

; 211  :     {
; 212  : 		if ('0' <= *s && *s <= '9')

  00210	8a 0f		 mov	 cl, BYTE PTR [edi]
  00212	8a c1		 mov	 al, cl
  00214	2c 30		 sub	 al, 48			; 00000030H
  00216	3c 09		 cmp	 al, 9
  00218	77 08		 ja	 SHORT $LN256@chatGetLin

; 213  :             x += y * (*s - '0');

  0021a	0f be c1	 movsx	 eax, cl
  0021d	83 e8 30	 sub	 eax, 48			; 00000030H
  00220	eb 1e		 jmp	 SHORT $LN1356@chatGetLin
$LN256@chatGetLin:

; 214  :         else if ('a' <= *s && *s <= 'f')

  00222	8a c1		 mov	 al, cl
  00224	2c 61		 sub	 al, 97			; 00000061H
  00226	3c 05		 cmp	 al, 5
  00228	77 08		 ja	 SHORT $LN258@chatGetLin

; 215  :             x += y * (*s - 'a' + 10);

  0022a	0f be c1	 movsx	 eax, cl
  0022d	83 e8 57	 sub	 eax, 87			; 00000057H
  00230	eb 0e		 jmp	 SHORT $LN1356@chatGetLin
$LN258@chatGetLin:

; 216  :         else if ('A' <= *s && *s <= 'F')

  00232	8a c1		 mov	 al, cl
  00234	2c 41		 sub	 al, 65			; 00000041H
  00236	3c 05		 cmp	 al, 5
  00238	77 19		 ja	 SHORT $LN260@chatGetLin

; 217  :             x += y * (10 + *s - 'A');

  0023a	0f be c1	 movsx	 eax, cl
  0023d	83 e8 37	 sub	 eax, 55			; 00000037H
$LN1356@chatGetLin:

; 220  :         y <<= 4;

  00240	0f af c6	 imul	 eax, esi
  00243	4f		 dec	 edi
  00244	c1 e6 04	 shl	 esi, 4
  00247	03 d0		 add	 edx, eax
  00249	39 bd b4 fa ff
	ff		 cmp	 DWORD PTR __Result$1$[ebp], edi
  0024f	76 bf		 jbe	 SHORT $LL254@chatGetLin
; File C:\Program Files\Microsoft Visual Studio\2022\Community\VC\Tools\MSVC\14.44.35207\include\__msvc_string_view.hpp

; 113  :             for (size_t _Idx = 0; _Idx != _Count; ++_Idx) {

  00251	eb 03		 jmp	 SHORT $LN253@chatGetLin
$LN260@chatGetLin:
; File C:\Anka2Project\Anka2Project\Source\Binary\source\eterBase\Utils.h

; 219  :             return -1; /* invalid input! */

  00253	83 ca ff	 or	 edx, -1
$LN253@chatGetLin:
; File C:\Anka2Project\Anka2Project\Source\Binary\source\UserInterface\PythonChatModule.cpp

; 446  : 		if (CItemManager::Instance().GetItemDataPointer(htoi(results[1].c_str()), &pItemData))

  00256	8b 0d 00 00 00
	00		 mov	 ecx, DWORD PTR ?ms_singleton@?$CSingleton@VCItemManager@@@@0PAVCItemManager@@A ; CSingleton<CItemManager>::ms_singleton
  0025c	8d 85 9c fa ff
	ff		 lea	 eax, DWORD PTR _pItemData$256[ebp]
  00262	50		 push	 eax
  00263	52		 push	 edx
  00264	e8 00 00 00 00	 call	 ?GetItemDataPointer@CItemManager@@QAEHKPAPAVCItemData@@@Z ; CItemManager::GetItemDataPointer
  00269	85 c0		 test	 eax, eax
  0026b	0f 84 92 14 00
	00		 je	 $LN18@chatGetLin

; 448  : 			char buf[1024] = { 0 };

  00271	68 00 04 00 00	 push	 1024			; 00000400H
  00276	8d 85 e8 fa ff
	ff		 lea	 eax, DWORD PTR _buf$269[ebp]
  0027c	6a 00		 push	 0
  0027e	50		 push	 eax
  0027f	e8 00 00 00 00	 call	 _memset
; File C:\Program Files\Microsoft Visual Studio\2022\Community\VC\Tools\MSVC\14.44.35207\include\vector

; 1934 :         return _My_data._Myfirst[_Pos];

  00284	8b bd 90 fa ff
	ff		 mov	 edi, DWORD PTR _results$[ebp]
; File C:\Anka2Project\Anka2Project\Source\Binary\source\UserInterface\PythonChatModule.cpp

; 448  : 			char buf[1024] = { 0 };

  0028a	83 c4 0c	 add	 esp, 12			; 0000000cH
; File C:\Program Files\Microsoft Visual Studio\2022\Community\VC\Tools\MSVC\14.44.35207\include\vector

; 1934 :         return _My_data._Myfirst[_Pos];

  0028d	83 c7 78	 add	 edi, 120		; 00000078H
  00290	89 bd b4 fa ff
	ff		 mov	 DWORD PTR __Result$1$[ebp], edi
; File C:\Program Files\Microsoft Visual Studio\2022\Community\VC\Tools\MSVC\14.44.35207\include\xstring

; 453  :         return _Myres > _Small_string_capacity;

  00296	83 7f 14 0f	 cmp	 DWORD PTR [edi+20], 15	; 0000000fH

; 445  :         if (_Large_mode_engaged()) {

  0029a	76 08		 jbe	 SHORT $LN365@chatGetLin

; 446  :             _Result = _Unfancy(_Bx._Ptr);

  0029c	8b 3f		 mov	 edi, DWORD PTR [edi]
  0029e	89 bd b4 fa ff
	ff		 mov	 DWORD PTR __Result$1$[ebp], edi
$LN365@chatGetLin:
; File C:\Anka2Project\Anka2Project\Source\Binary\source\eterBase\Utils.h

; 208  :     s += strlen(s);

  002a4	8b cf		 mov	 ecx, edi
  002a6	33 f6		 xor	 esi, esi
  002a8	89 b5 a8 fa ff
	ff		 mov	 DWORD PTR $T264[ebp], esi
  002ae	8d 41 01	 lea	 eax, DWORD PTR [ecx+1]
  002b1	8d 56 01	 lea	 edx, DWORD PTR [esi+1]
  002b4	89 85 a0 fa ff
	ff		 mov	 DWORD PTR tv6555[ebp], eax
  002ba	66 0f 1f 44 00
	00		 npad	 6
$LL1326@chatGetLin:
  002c0	8a 01		 mov	 al, BYTE PTR [ecx]
  002c2	41		 inc	 ecx
  002c3	84 c0		 test	 al, al
  002c5	75 f9		 jne	 SHORT $LL1326@chatGetLin
  002c7	2b 8d a0 fa ff
	ff		 sub	 ecx, DWORD PTR tv6555[ebp]

; 209  : 
; 210  :     while (t <= --s)

  002cd	4f		 dec	 edi
  002ce	03 f9		 add	 edi, ecx
  002d0	39 bd b4 fa ff
	ff		 cmp	 DWORD PTR __Result$1$[ebp], edi
  002d6	77 53		 ja	 SHORT $LN371@chatGetLin
$LL372@chatGetLin:

; 211  :     {
; 212  : 		if ('0' <= *s && *s <= '9')

  002d8	8a 0f		 mov	 cl, BYTE PTR [edi]
  002da	8a c1		 mov	 al, cl
  002dc	2c 30		 sub	 al, 48			; 00000030H
  002de	3c 09		 cmp	 al, 9
  002e0	77 08		 ja	 SHORT $LN374@chatGetLin

; 213  :             x += y * (*s - '0');

  002e2	0f be c1	 movsx	 eax, cl
  002e5	83 e8 30	 sub	 eax, 48			; 00000030H
  002e8	eb 1e		 jmp	 SHORT $LN1357@chatGetLin
$LN374@chatGetLin:

; 214  :         else if ('a' <= *s && *s <= 'f')

  002ea	8a c1		 mov	 al, cl
  002ec	2c 61		 sub	 al, 97			; 00000061H
  002ee	3c 05		 cmp	 al, 5
  002f0	77 08		 ja	 SHORT $LN376@chatGetLin

; 215  :             x += y * (*s - 'a' + 10);

  002f2	0f be c1	 movsx	 eax, cl
  002f5	83 e8 57	 sub	 eax, 87			; 00000057H
  002f8	eb 0e		 jmp	 SHORT $LN1357@chatGetLin
$LN376@chatGetLin:

; 216  :         else if ('A' <= *s && *s <= 'F')

  002fa	8a c1		 mov	 al, cl
  002fc	2c 41		 sub	 al, 65			; 00000041H
  002fe	3c 05		 cmp	 al, 5
  00300	77 1f		 ja	 SHORT $LN378@chatGetLin

; 217  :             x += y * (10 + *s - 'A');

  00302	0f be c1	 movsx	 eax, cl
  00305	83 e8 37	 sub	 eax, 55			; 00000037H
$LN1357@chatGetLin:

; 220  :         y <<= 4;

  00308	0f af c2	 imul	 eax, edx
  0030b	4f		 dec	 edi
  0030c	c1 e2 04	 shl	 edx, 4
  0030f	03 f0		 add	 esi, eax
  00311	89 b5 a8 fa ff
	ff		 mov	 DWORD PTR $T264[ebp], esi
  00317	39 bd b4 fa ff
	ff		 cmp	 DWORD PTR __Result$1$[ebp], edi
  0031d	76 b9		 jbe	 SHORT $LL372@chatGetLin
; File C:\Program Files\Microsoft Visual Studio\2022\Community\VC\Tools\MSVC\14.44.35207\include\__msvc_string_view.hpp

; 113  :             for (size_t _Idx = 0; _Idx != _Count; ++_Idx) {

  0031f	eb 0a		 jmp	 SHORT $LN371@chatGetLin
$LN378@chatGetLin:
; File C:\Anka2Project\Anka2Project\Source\Binary\source\eterBase\Utils.h

; 219  :             return -1; /* invalid input! */

  00321	c7 85 a8 fa ff
	ff ff ff ff ff	 mov	 DWORD PTR $T264[ebp], -1
$LN371@chatGetLin:
; File C:\Program Files\Microsoft Visual Studio\2022\Community\VC\Tools\MSVC\14.44.35207\include\vector

; 1934 :         return _My_data._Myfirst[_Pos];

  0032b	8b bd 90 fa ff
	ff		 mov	 edi, DWORD PTR _results$[ebp]
  00331	83 c7 60	 add	 edi, 96			; 00000060H
  00334	89 bd b4 fa ff
	ff		 mov	 DWORD PTR __Result$1$[ebp], edi
; File C:\Program Files\Microsoft Visual Studio\2022\Community\VC\Tools\MSVC\14.44.35207\include\xstring

; 453  :         return _Myres > _Small_string_capacity;

  0033a	83 7f 14 0f	 cmp	 DWORD PTR [edi+20], 15	; 0000000fH

; 445  :         if (_Large_mode_engaged()) {

  0033e	76 08		 jbe	 SHORT $LN404@chatGetLin

; 446  :             _Result = _Unfancy(_Bx._Ptr);

  00340	8b 3f		 mov	 edi, DWORD PTR [edi]
  00342	89 bd b4 fa ff
	ff		 mov	 DWORD PTR __Result$1$[ebp], edi
$LN404@chatGetLin:
; File C:\Anka2Project\Anka2Project\Source\Binary\source\eterBase\Utils.h

; 208  :     s += strlen(s);

  00348	8b cf		 mov	 ecx, edi
  0034a	33 f6		 xor	 esi, esi
  0034c	89 b5 a4 fa ff
	ff		 mov	 DWORD PTR $T262[ebp], esi
  00352	8d 41 01	 lea	 eax, DWORD PTR [ecx+1]
  00355	8d 56 01	 lea	 edx, DWORD PTR [esi+1]
  00358	89 85 a0 fa ff
	ff		 mov	 DWORD PTR tv6558[ebp], eax
  0035e	66 90		 npad	 2
$LL1327@chatGetLin:
  00360	8a 01		 mov	 al, BYTE PTR [ecx]
  00362	41		 inc	 ecx
  00363	84 c0		 test	 al, al
  00365	75 f9		 jne	 SHORT $LL1327@chatGetLin
  00367	2b 8d a0 fa ff
	ff		 sub	 ecx, DWORD PTR tv6558[ebp]

; 209  : 
; 210  :     while (t <= --s)

  0036d	4f		 dec	 edi
  0036e	03 f9		 add	 edi, ecx
  00370	39 bd b4 fa ff
	ff		 cmp	 DWORD PTR __Result$1$[ebp], edi
  00376	77 53		 ja	 SHORT $LN410@chatGetLin
$LL411@chatGetLin:

; 211  :     {
; 212  : 		if ('0' <= *s && *s <= '9')

  00378	8a 0f		 mov	 cl, BYTE PTR [edi]
  0037a	8a c1		 mov	 al, cl
  0037c	2c 30		 sub	 al, 48			; 00000030H
  0037e	3c 09		 cmp	 al, 9
  00380	77 08		 ja	 SHORT $LN413@chatGetLin

; 213  :             x += y * (*s - '0');

  00382	0f be c1	 movsx	 eax, cl
  00385	83 e8 30	 sub	 eax, 48			; 00000030H
  00388	eb 1e		 jmp	 SHORT $LN1358@chatGetLin
$LN413@chatGetLin:

; 214  :         else if ('a' <= *s && *s <= 'f')

  0038a	8a c1		 mov	 al, cl
  0038c	2c 61		 sub	 al, 97			; 00000061H
  0038e	3c 05		 cmp	 al, 5
  00390	77 08		 ja	 SHORT $LN415@chatGetLin

; 215  :             x += y * (*s - 'a' + 10);

  00392	0f be c1	 movsx	 eax, cl
  00395	83 e8 57	 sub	 eax, 87			; 00000057H
  00398	eb 0e		 jmp	 SHORT $LN1358@chatGetLin
$LN415@chatGetLin:

; 216  :         else if ('A' <= *s && *s <= 'F')

  0039a	8a c1		 mov	 al, cl
  0039c	2c 41		 sub	 al, 65			; 00000041H
  0039e	3c 05		 cmp	 al, 5
  003a0	77 1f		 ja	 SHORT $LN417@chatGetLin

; 217  :             x += y * (10 + *s - 'A');

  003a2	0f be c1	 movsx	 eax, cl
  003a5	83 e8 37	 sub	 eax, 55			; 00000037H
$LN1358@chatGetLin:

; 220  :         y <<= 4;

  003a8	0f af c2	 imul	 eax, edx
  003ab	4f		 dec	 edi
  003ac	c1 e2 04	 shl	 edx, 4
  003af	03 f0		 add	 esi, eax
  003b1	89 b5 a4 fa ff
	ff		 mov	 DWORD PTR $T262[ebp], esi
  003b7	39 bd b4 fa ff
	ff		 cmp	 DWORD PTR __Result$1$[ebp], edi
  003bd	76 b9		 jbe	 SHORT $LL411@chatGetLin
; File C:\Program Files\Microsoft Visual Studio\2022\Community\VC\Tools\MSVC\14.44.35207\include\__msvc_string_view.hpp

; 113  :             for (size_t _Idx = 0; _Idx != _Count; ++_Idx) {

  003bf	eb 0a		 jmp	 SHORT $LN410@chatGetLin
$LN417@chatGetLin:
; File C:\Anka2Project\Anka2Project\Source\Binary\source\eterBase\Utils.h

; 219  :             return -1; /* invalid input! */

  003c1	c7 85 a4 fa ff
	ff ff ff ff ff	 mov	 DWORD PTR $T262[ebp], -1
$LN410@chatGetLin:
; File C:\Program Files\Microsoft Visual Studio\2022\Community\VC\Tools\MSVC\14.44.35207\include\vector

; 1934 :         return _My_data._Myfirst[_Pos];

  003cb	8b b5 90 fa ff
	ff		 mov	 esi, DWORD PTR _results$[ebp]
  003d1	83 c6 48	 add	 esi, 72			; 00000048H
  003d4	89 b5 b4 fa ff
	ff		 mov	 DWORD PTR __Result$1$[ebp], esi
; File C:\Program Files\Microsoft Visual Studio\2022\Community\VC\Tools\MSVC\14.44.35207\include\xstring

; 453  :         return _Myres > _Small_string_capacity;

  003da	83 7e 14 0f	 cmp	 DWORD PTR [esi+20], 15	; 0000000fH

; 445  :         if (_Large_mode_engaged()) {

  003de	76 08		 jbe	 SHORT $LN424@chatGetLin

; 446  :             _Result = _Unfancy(_Bx._Ptr);

  003e0	8b 36		 mov	 esi, DWORD PTR [esi]
  003e2	89 b5 b4 fa ff
	ff		 mov	 DWORD PTR __Result$1$[ebp], esi
$LN424@chatGetLin:
; File C:\Anka2Project\Anka2Project\Source\Binary\source\eterBase\Utils.h

; 208  :     s += strlen(s);

  003e8	8b ce		 mov	 ecx, esi
  003ea	33 ff		 xor	 edi, edi
  003ec	8d 41 01	 lea	 eax, DWORD PTR [ecx+1]
  003ef	8d 57 01	 lea	 edx, DWORD PTR [edi+1]
  003f2	89 85 a0 fa ff
	ff		 mov	 DWORD PTR tv6561[ebp], eax
$LL1328@chatGetLin:
  003f8	8a 01		 mov	 al, BYTE PTR [ecx]
  003fa	41		 inc	 ecx
  003fb	84 c0		 test	 al, al
  003fd	75 f9		 jne	 SHORT $LL1328@chatGetLin
  003ff	2b 8d a0 fa ff
	ff		 sub	 ecx, DWORD PTR tv6561[ebp]

; 209  : 
; 210  :     while (t <= --s)

  00405	4e		 dec	 esi
  00406	03 f1		 add	 esi, ecx
  00408	39 b5 b4 fa ff
	ff		 cmp	 DWORD PTR __Result$1$[ebp], esi
  0040e	77 46		 ja	 SHORT $LN282@chatGetLin
$LL283@chatGetLin:

; 211  :     {
; 212  : 		if ('0' <= *s && *s <= '9')

  00410	8a 0e		 mov	 cl, BYTE PTR [esi]
  00412	8a c1		 mov	 al, cl
  00414	2c 30		 sub	 al, 48			; 00000030H
  00416	3c 09		 cmp	 al, 9
  00418	77 08		 ja	 SHORT $LN285@chatGetLin

; 213  :             x += y * (*s - '0');

  0041a	0f be c1	 movsx	 eax, cl
  0041d	83 e8 30	 sub	 eax, 48			; 00000030H
  00420	eb 1e		 jmp	 SHORT $LN1359@chatGetLin
$LN285@chatGetLin:

; 214  :         else if ('a' <= *s && *s <= 'f')

  00422	8a c1		 mov	 al, cl
  00424	2c 61		 sub	 al, 97			; 00000061H
  00426	3c 05		 cmp	 al, 5
  00428	77 08		 ja	 SHORT $LN287@chatGetLin

; 215  :             x += y * (*s - 'a' + 10);

  0042a	0f be c1	 movsx	 eax, cl
  0042d	83 e8 57	 sub	 eax, 87			; 00000057H
  00430	eb 0e		 jmp	 SHORT $LN1359@chatGetLin
$LN287@chatGetLin:

; 216  :         else if ('A' <= *s && *s <= 'F')

  00432	8a c1		 mov	 al, cl
  00434	2c 41		 sub	 al, 65			; 00000041H
  00436	3c 05		 cmp	 al, 5
  00438	77 19		 ja	 SHORT $LN289@chatGetLin

; 217  :             x += y * (10 + *s - 'A');

  0043a	0f be c1	 movsx	 eax, cl
  0043d	83 e8 37	 sub	 eax, 55			; 00000037H
$LN1359@chatGetLin:

; 220  :         y <<= 4;

  00440	0f af c2	 imul	 eax, edx
  00443	4e		 dec	 esi
  00444	c1 e2 04	 shl	 edx, 4
  00447	03 f8		 add	 edi, eax
  00449	39 b5 b4 fa ff
	ff		 cmp	 DWORD PTR __Result$1$[ebp], esi
  0044f	76 bf		 jbe	 SHORT $LL283@chatGetLin
; File C:\Program Files\Microsoft Visual Studio\2022\Community\VC\Tools\MSVC\14.44.35207\include\__msvc_string_view.hpp

; 113  :             for (size_t _Idx = 0; _Idx != _Count; ++_Idx) {

  00451	eb 03		 jmp	 SHORT $LN282@chatGetLin
$LN289@chatGetLin:
; File C:\Anka2Project\Anka2Project\Source\Binary\source\eterBase\Utils.h

; 219  :             return -1; /* invalid input! */

  00453	83 cf ff	 or	 edi, -1
$LN282@chatGetLin:
; File C:\Program Files\Microsoft Visual Studio\2022\Community\VC\Tools\MSVC\14.44.35207\include\vector

; 1934 :         return _My_data._Myfirst[_Pos];

  00456	8b 85 90 fa ff
	ff		 mov	 eax, DWORD PTR _results$[ebp]
  0045c	83 c0 30	 add	 eax, 48			; 00000030H
  0045f	89 85 b4 fa ff
	ff		 mov	 DWORD PTR __Result$1$[ebp], eax
; File C:\Program Files\Microsoft Visual Studio\2022\Community\VC\Tools\MSVC\14.44.35207\include\xstring

; 453  :         return _Myres > _Small_string_capacity;

  00465	83 78 14 0f	 cmp	 DWORD PTR [eax+20], 15	; 0000000fH

; 445  :         if (_Large_mode_engaged()) {

  00469	76 08		 jbe	 SHORT $LN296@chatGetLin

; 446  :             _Result = _Unfancy(_Bx._Ptr);

  0046b	8b 00		 mov	 eax, DWORD PTR [eax]
  0046d	89 85 b4 fa ff
	ff		 mov	 DWORD PTR __Result$1$[ebp], eax
$LN296@chatGetLin:
; File C:\Anka2Project\Anka2Project\Source\Binary\source\eterBase\Utils.h

; 208  :     s += strlen(s);

  00473	8b c8		 mov	 ecx, eax
  00475	33 f6		 xor	 esi, esi
  00477	8d 41 01	 lea	 eax, DWORD PTR [ecx+1]
  0047a	8d 56 01	 lea	 edx, DWORD PTR [esi+1]
  0047d	89 85 a0 fa ff
	ff		 mov	 DWORD PTR tv6564[ebp], eax
$LL1329@chatGetLin:
  00483	8a 01		 mov	 al, BYTE PTR [ecx]
  00485	41		 inc	 ecx
  00486	84 c0		 test	 al, al
  00488	75 f9		 jne	 SHORT $LL1329@chatGetLin

; 209  : 
; 210  :     while (t <= --s)

  0048a	8b 85 b4 fa ff
	ff		 mov	 eax, DWORD PTR __Result$1$[ebp]
  00490	2b 8d a0 fa ff
	ff		 sub	 ecx, DWORD PTR tv6564[ebp]
  00496	48		 dec	 eax
  00497	03 c1		 add	 eax, ecx
  00499	89 85 b0 fa ff
	ff		 mov	 DWORD PTR _s$1$[ebp], eax
  0049f	39 85 b4 fa ff
	ff		 cmp	 DWORD PTR __Result$1$[ebp], eax
  004a5	77 52		 ja	 SHORT $LN302@chatGetLin
$LL303@chatGetLin:

; 211  :     {
; 212  : 		if ('0' <= *s && *s <= '9')

  004a7	8a 08		 mov	 cl, BYTE PTR [eax]
  004a9	8a c1		 mov	 al, cl
  004ab	2c 30		 sub	 al, 48			; 00000030H
  004ad	3c 09		 cmp	 al, 9
  004af	77 08		 ja	 SHORT $LN305@chatGetLin

; 213  :             x += y * (*s - '0');

  004b1	0f be c1	 movsx	 eax, cl
  004b4	83 e8 30	 sub	 eax, 48			; 00000030H
  004b7	eb 1e		 jmp	 SHORT $LN1360@chatGetLin
$LN305@chatGetLin:

; 214  :         else if ('a' <= *s && *s <= 'f')

  004b9	8a c1		 mov	 al, cl
  004bb	2c 61		 sub	 al, 97			; 00000061H
  004bd	3c 05		 cmp	 al, 5
  004bf	77 08		 ja	 SHORT $LN307@chatGetLin

; 215  :             x += y * (*s - 'a' + 10);

  004c1	0f be c1	 movsx	 eax, cl
  004c4	83 e8 57	 sub	 eax, 87			; 00000057H
  004c7	eb 0e		 jmp	 SHORT $LN1360@chatGetLin
$LN307@chatGetLin:

; 216  :         else if ('A' <= *s && *s <= 'F')

  004c9	8a c1		 mov	 al, cl
  004cb	2c 41		 sub	 al, 65			; 00000041H
  004cd	3c 05		 cmp	 al, 5
  004cf	77 25		 ja	 SHORT $LN309@chatGetLin

; 217  :             x += y * (10 + *s - 'A');

  004d1	0f be c1	 movsx	 eax, cl
  004d4	83 e8 37	 sub	 eax, 55			; 00000037H
$LN1360@chatGetLin:

; 220  :         y <<= 4;

  004d7	0f af c2	 imul	 eax, edx
  004da	c1 e2 04	 shl	 edx, 4
  004dd	03 f0		 add	 esi, eax
  004df	8b 85 b0 fa ff
	ff		 mov	 eax, DWORD PTR _s$1$[ebp]
  004e5	48		 dec	 eax
  004e6	89 85 b0 fa ff
	ff		 mov	 DWORD PTR _s$1$[ebp], eax
  004ec	39 85 b4 fa ff
	ff		 cmp	 DWORD PTR __Result$1$[ebp], eax
  004f2	76 b3		 jbe	 SHORT $LL303@chatGetLin
; File C:\Program Files\Microsoft Visual Studio\2022\Community\VC\Tools\MSVC\14.44.35207\include\__msvc_string_view.hpp

; 113  :             for (size_t _Idx = 0; _Idx != _Count; ++_Idx) {

  004f4	eb 03		 jmp	 SHORT $LN302@chatGetLin
$LN309@chatGetLin:
; File C:\Anka2Project\Anka2Project\Source\Binary\source\eterBase\Utils.h

; 219  :             return -1; /* invalid input! */

  004f6	83 ce ff	 or	 esi, -1
$LN302@chatGetLin:
; File C:\Program Files\Microsoft Visual Studio\2022\Community\VC\Tools\MSVC\14.44.35207\include\vector

; 1934 :         return _My_data._Myfirst[_Pos];

  004f9	8b 85 90 fa ff
	ff		 mov	 eax, DWORD PTR _results$[ebp]
  004ff	83 c0 18	 add	 eax, 24			; 00000018H
  00502	89 85 b4 fa ff
	ff		 mov	 DWORD PTR __Result$1$[ebp], eax
; File C:\Program Files\Microsoft Visual Studio\2022\Community\VC\Tools\MSVC\14.44.35207\include\xstring

; 453  :         return _Myres > _Small_string_capacity;

  00508	83 78 14 0f	 cmp	 DWORD PTR [eax+20], 15	; 0000000fH

; 445  :         if (_Large_mode_engaged()) {

  0050c	76 08		 jbe	 SHORT $LN339@chatGetLin

; 446  :             _Result = _Unfancy(_Bx._Ptr);

  0050e	8b 00		 mov	 eax, DWORD PTR [eax]
  00510	89 85 b4 fa ff
	ff		 mov	 DWORD PTR __Result$1$[ebp], eax
$LN339@chatGetLin:
; File C:\Anka2Project\Anka2Project\Source\Binary\source\eterBase\Utils.h

; 208  :     s += strlen(s);

  00516	8b c8		 mov	 ecx, eax
  00518	c7 85 ac fa ff
	ff 01 00 00 00	 mov	 DWORD PTR _y$1$[ebp], 1
  00522	33 d2		 xor	 edx, edx
  00524	8d 41 01	 lea	 eax, DWORD PTR [ecx+1]
  00527	89 85 a0 fa ff
	ff		 mov	 DWORD PTR tv6567[ebp], eax
  0052d	0f 1f 00	 npad	 3
$LL1330@chatGetLin:
  00530	8a 01		 mov	 al, BYTE PTR [ecx]
  00532	41		 inc	 ecx
  00533	84 c0		 test	 al, al
  00535	75 f9		 jne	 SHORT $LL1330@chatGetLin

; 209  : 
; 210  :     while (t <= --s)

  00537	8b 85 b4 fa ff
	ff		 mov	 eax, DWORD PTR __Result$1$[ebp]
  0053d	2b 8d a0 fa ff
	ff		 sub	 ecx, DWORD PTR tv6567[ebp]
  00543	48		 dec	 eax
  00544	03 c1		 add	 eax, ecx
  00546	89 85 b0 fa ff
	ff		 mov	 DWORD PTR _s$1$[ebp], eax
  0054c	39 85 b4 fa ff
	ff		 cmp	 DWORD PTR __Result$1$[ebp], eax
  00552	77 5a		 ja	 SHORT $LN387@chatGetLin
$LL388@chatGetLin:

; 211  :     {
; 212  : 		if ('0' <= *s && *s <= '9')

  00554	8a 08		 mov	 cl, BYTE PTR [eax]
  00556	8a c1		 mov	 al, cl
  00558	2c 30		 sub	 al, 48			; 00000030H
  0055a	3c 09		 cmp	 al, 9
  0055c	77 08		 ja	 SHORT $LN390@chatGetLin

; 213  :             x += y * (*s - '0');

  0055e	0f be c1	 movsx	 eax, cl
  00561	83 e8 30	 sub	 eax, 48			; 00000030H
  00564	eb 1e		 jmp	 SHORT $LN1361@chatGetLin
$LN390@chatGetLin:

; 214  :         else if ('a' <= *s && *s <= 'f')

  00566	8a c1		 mov	 al, cl
  00568	2c 61		 sub	 al, 97			; 00000061H
  0056a	3c 05		 cmp	 al, 5
  0056c	77 08		 ja	 SHORT $LN392@chatGetLin

; 215  :             x += y * (*s - 'a' + 10);

  0056e	0f be c1	 movsx	 eax, cl
  00571	83 e8 57	 sub	 eax, 87			; 00000057H
  00574	eb 0e		 jmp	 SHORT $LN1361@chatGetLin
$LN392@chatGetLin:

; 216  :         else if ('A' <= *s && *s <= 'F')

  00576	8a c1		 mov	 al, cl
  00578	2c 41		 sub	 al, 65			; 00000041H
  0057a	3c 05		 cmp	 al, 5
  0057c	77 2d		 ja	 SHORT $LN394@chatGetLin

; 217  :             x += y * (10 + *s - 'A');

  0057e	0f be c1	 movsx	 eax, cl
  00581	83 e8 37	 sub	 eax, 55			; 00000037H
$LN1361@chatGetLin:

; 220  :         y <<= 4;

  00584	0f af 85 ac fa
	ff ff		 imul	 eax, DWORD PTR _y$1$[ebp]
  0058b	c1 a5 ac fa ff
	ff 04		 shl	 DWORD PTR _y$1$[ebp], 4
  00592	03 d0		 add	 edx, eax
  00594	8b 85 b0 fa ff
	ff		 mov	 eax, DWORD PTR _s$1$[ebp]
  0059a	48		 dec	 eax
  0059b	89 85 b0 fa ff
	ff		 mov	 DWORD PTR _s$1$[ebp], eax
  005a1	39 85 b4 fa ff
	ff		 cmp	 DWORD PTR __Result$1$[ebp], eax
  005a7	76 ab		 jbe	 SHORT $LL388@chatGetLin
; File C:\Program Files\Microsoft Visual Studio\2022\Community\VC\Tools\MSVC\14.44.35207\include\__msvc_string_view.hpp

; 113  :             for (size_t _Idx = 0; _Idx != _Count; ++_Idx) {

  005a9	eb 03		 jmp	 SHORT $LN387@chatGetLin
$LN394@chatGetLin:
; File C:\Anka2Project\Anka2Project\Source\Binary\source\eterBase\Utils.h

; 219  :             return -1; /* invalid input! */

  005ab	83 ca ff	 or	 edx, -1
$LN387@chatGetLin:
; File C:\Anka2Project\Anka2Project\Source\Binary\source\UserInterface\PythonChatModule.cpp

; 453  : 			len = snprintf(itemlink, sizeof(itemlink), "item:%x:%x:%x:%x:%x", 

  005ae	ff b5 a8 fa ff
	ff		 push	 DWORD PTR $T264[ebp]
  005b4	8d 85 e8 fe ff
	ff		 lea	 eax, DWORD PTR _itemlink$272[ebp]
  005ba	ff b5 a4 fa ff
	ff		 push	 DWORD PTR $T262[ebp]
  005c0	57		 push	 edi
  005c1	56		 push	 esi
  005c2	52		 push	 edx
  005c3	68 00 00 00 00	 push	 OFFSET ??_C@_0BE@FGPADLIF@item?3?$CFx?3?$CFx?3?$CFx?3?$CFx?3?$CFx@
  005c8	68 00 01 00 00	 push	 256			; 00000100H
  005cd	50		 push	 eax
  005ce	e8 00 00 00 00	 call	 __snprintf
; File C:\Program Files\Microsoft Visual Studio\2022\Community\VC\Tools\MSVC\14.44.35207\include\vector

; 1934 :         return _My_data._Myfirst[_Pos];

  005d3	8b bd 90 fa ff
	ff		 mov	 edi, DWORD PTR _results$[ebp]
; File C:\Anka2Project\Anka2Project\Source\Binary\source\UserInterface\PythonChatModule.cpp

; 453  : 			len = snprintf(itemlink, sizeof(itemlink), "item:%x:%x:%x:%x:%x", 

  005d9	83 c4 20	 add	 esp, 32			; 00000020H
; File C:\Program Files\Microsoft Visual Studio\2022\Community\VC\Tools\MSVC\14.44.35207\include\vector

; 1934 :         return _My_data._Myfirst[_Pos];

  005dc	81 c7 90 00 00
	00		 add	 edi, 144		; 00000090H
; File C:\Anka2Project\Anka2Project\Source\Binary\source\UserInterface\PythonChatModule.cpp

; 453  : 			len = snprintf(itemlink, sizeof(itemlink), "item:%x:%x:%x:%x:%x", 

  005e2	89 85 b4 fa ff
	ff		 mov	 DWORD PTR _len$1$[ebp], eax
; File C:\Program Files\Microsoft Visual Studio\2022\Community\VC\Tools\MSVC\14.44.35207\include\vector

; 1934 :         return _My_data._Myfirst[_Pos];

  005e8	89 bd ac fa ff
	ff		 mov	 DWORD PTR __Result$1$[ebp], edi
; File C:\Program Files\Microsoft Visual Studio\2022\Community\VC\Tools\MSVC\14.44.35207\include\xstring

; 453  :         return _Myres > _Small_string_capacity;

  005ee	83 7f 14 0f	 cmp	 DWORD PTR [edi+20], 15	; 0000000fH

; 445  :         if (_Large_mode_engaged()) {

  005f2	76 08		 jbe	 SHORT $LN316@chatGetLin

; 446  :             _Result = _Unfancy(_Bx._Ptr);

  005f4	8b 3f		 mov	 edi, DWORD PTR [edi]
  005f6	89 bd ac fa ff
	ff		 mov	 DWORD PTR __Result$1$[ebp], edi
$LN316@chatGetLin:
; File C:\Anka2Project\Anka2Project\Source\Binary\source\eterBase\Utils.h

; 208  :     s += strlen(s);

  005fc	8b cf		 mov	 ecx, edi
  005fe	33 d2		 xor	 edx, edx
  00600	8d 41 01	 lea	 eax, DWORD PTR [ecx+1]
  00603	8d 72 01	 lea	 esi, DWORD PTR [edx+1]
  00606	89 85 a0 fa ff
	ff		 mov	 DWORD PTR tv6570[ebp], eax
  0060c	0f 1f 40 00	 npad	 4
$LL1331@chatGetLin:
  00610	8a 01		 mov	 al, BYTE PTR [ecx]
  00612	41		 inc	 ecx
  00613	84 c0		 test	 al, al
  00615	75 f9		 jne	 SHORT $LL1331@chatGetLin
  00617	2b 8d a0 fa ff
	ff		 sub	 ecx, DWORD PTR tv6570[ebp]

; 209  : 
; 210  :     while (t <= --s)

  0061d	4f		 dec	 edi
  0061e	03 f9		 add	 edi, ecx
  00620	39 bd ac fa ff
	ff		 cmp	 DWORD PTR __Result$1$[ebp], edi
  00626	77 46		 ja	 SHORT $LN322@chatGetLin
$LL323@chatGetLin:

; 211  :     {
; 212  : 		if ('0' <= *s && *s <= '9')

  00628	8a 0f		 mov	 cl, BYTE PTR [edi]
  0062a	8a c1		 mov	 al, cl
  0062c	2c 30		 sub	 al, 48			; 00000030H
  0062e	3c 09		 cmp	 al, 9
  00630	77 08		 ja	 SHORT $LN325@chatGetLin

; 213  :             x += y * (*s - '0');

  00632	0f be c1	 movsx	 eax, cl
  00635	83 e8 30	 sub	 eax, 48			; 00000030H
  00638	eb 1e		 jmp	 SHORT $LN1362@chatGetLin
$LN325@chatGetLin:

; 214  :         else if ('a' <= *s && *s <= 'f')

  0063a	8a c1		 mov	 al, cl
  0063c	2c 61		 sub	 al, 97			; 00000061H
  0063e	3c 05		 cmp	 al, 5
  00640	77 08		 ja	 SHORT $LN327@chatGetLin

; 215  :             x += y * (*s - 'a' + 10);

  00642	0f be c1	 movsx	 eax, cl
  00645	83 e8 57	 sub	 eax, 87			; 00000057H
  00648	eb 0e		 jmp	 SHORT $LN1362@chatGetLin
$LN327@chatGetLin:

; 216  :         else if ('A' <= *s && *s <= 'F')

  0064a	8a c1		 mov	 al, cl
  0064c	2c 41		 sub	 al, 65			; 00000041H
  0064e	3c 05		 cmp	 al, 5
  00650	77 19		 ja	 SHORT $LN329@chatGetLin

; 217  :             x += y * (10 + *s - 'A');

  00652	0f be c1	 movsx	 eax, cl
  00655	83 e8 37	 sub	 eax, 55			; 00000037H
$LN1362@chatGetLin:

; 220  :         y <<= 4;

  00658	0f af c6	 imul	 eax, esi
  0065b	4f		 dec	 edi
  0065c	c1 e6 04	 shl	 esi, 4
  0065f	03 d0		 add	 edx, eax
  00661	39 bd ac fa ff
	ff		 cmp	 DWORD PTR __Result$1$[ebp], edi
  00667	76 bf		 jbe	 SHORT $LL323@chatGetLin
; File C:\Program Files\Microsoft Visual Studio\2022\Community\VC\Tools\MSVC\14.44.35207\include\__msvc_string_view.hpp

; 113  :             for (size_t _Idx = 0; _Idx != _Count; ++_Idx) {

  00669	eb 03		 jmp	 SHORT $LN322@chatGetLin
$LN329@chatGetLin:
; File C:\Anka2Project\Anka2Project\Source\Binary\source\eterBase\Utils.h

; 219  :             return -1; /* invalid input! */

  0066b	83 ca ff	 or	 edx, -1
$LN322@chatGetLin:
; File C:\Anka2Project\Anka2Project\Source\Binary\source\UserInterface\PythonChatModule.cpp

; 461  : 			len += snprintf(itemlink + len, sizeof(itemlink) - len, ":%x",

  0066e	8b b5 b4 fa ff
	ff		 mov	 esi, DWORD PTR _len$1$[ebp]
  00674	b8 00 01 00 00	 mov	 eax, 256		; 00000100H
  00679	52		 push	 edx
  0067a	2b c6		 sub	 eax, esi
  0067c	68 00 00 00 00	 push	 OFFSET ??_C@_03JIENEPND@?3?$CFx@
  00681	50		 push	 eax
  00682	8d 85 e8 fe ff
	ff		 lea	 eax, DWORD PTR _itemlink$272[ebp]
  00688	03 c6		 add	 eax, esi
  0068a	50		 push	 eax
  0068b	e8 00 00 00 00	 call	 __snprintf
; File C:\Program Files\Microsoft Visual Studio\2022\Community\VC\Tools\MSVC\14.44.35207\include\vector

; 1915 :         return static_cast<size_type>(_My_data._Mylast - _My_data._Myfirst);

  00690	8b 8d 94 fa ff
	ff		 mov	 ecx, DWORD PTR _results$[ebp+4]
; File C:\Anka2Project\Anka2Project\Source\Binary\source\UserInterface\PythonChatModule.cpp

; 461  : 			len += snprintf(itemlink + len, sizeof(itemlink) - len, ":%x",

  00696	03 f0		 add	 esi, eax
  00698	89 b5 b4 fa ff
	ff		 mov	 DWORD PTR _len$1$[ebp], esi
; File C:\Program Files\Microsoft Visual Studio\2022\Community\VC\Tools\MSVC\14.44.35207\include\vector

; 1915 :         return static_cast<size_type>(_My_data._Mylast - _My_data._Myfirst);

  0069e	b8 ab aa aa 2a	 mov	 eax, 715827883		; 2aaaaaabH
  006a3	8b b5 90 fa ff
	ff		 mov	 esi, DWORD PTR _results$[ebp]
; File C:\Anka2Project\Anka2Project\Source\Binary\source\UserInterface\PythonChatModule.cpp

; 461  : 			len += snprintf(itemlink + len, sizeof(itemlink) - len, ":%x",

  006a9	83 c4 10	 add	 esp, 16			; 00000010H
; File C:\Program Files\Microsoft Visual Studio\2022\Community\VC\Tools\MSVC\14.44.35207\include\vector

; 1915 :         return static_cast<size_type>(_My_data._Mylast - _My_data._Myfirst);

  006ac	2b ce		 sub	 ecx, esi
  006ae	f7 e9		 imul	 ecx
  006b0	c1 fa 02	 sar	 edx, 2
  006b3	8b c2		 mov	 eax, edx
  006b5	c1 e8 1f	 shr	 eax, 31			; 0000001fH
  006b8	03 c2		 add	 eax, edx
; File C:\Anka2Project\Anka2Project\Source\Binary\source\UserInterface\PythonChatModule.cpp

; 466  : 			if (results.size() >= 8 + 1)

  006ba	83 f8 09	 cmp	 eax, 9
  006bd	0f 82 4c 01 00
	00		 jb	 $LN11@chatGetLin

; 472  : 				for (int i = 6 + 1; i < results.size(); i += 2)

  006c3	bf a8 00 00 00	 mov	 edi, 168		; 000000a8H
  006c8	c7 85 a8 fa ff
	ff 07 00 00 00	 mov	 DWORD PTR _i$1$[ebp], 7
  006d2	89 bd b0 fa ff
	ff		 mov	 DWORD PTR tv6537[ebp], edi
  006d8	0f 1f 84 00 00
	00 00 00	 npad	 8
$LL4@chatGetLin:
; File C:\Program Files\Microsoft Visual Studio\2022\Community\VC\Tools\MSVC\14.44.35207\include\vector

; 1934 :         return _My_data._Myfirst[_Pos];

  006e0	8d 47 18	 lea	 eax, DWORD PTR [edi+24]
  006e3	03 c6		 add	 eax, esi
; File C:\Program Files\Microsoft Visual Studio\2022\Community\VC\Tools\MSVC\14.44.35207\include\xstring

; 453  :         return _Myres > _Small_string_capacity;

  006e5	83 78 14 0f	 cmp	 DWORD PTR [eax+20], 15	; 0000000fH

; 445  :         if (_Large_mode_engaged()) {

  006e9	76 02		 jbe	 SHORT $LN218@chatGetLin

; 446  :             _Result = _Unfancy(_Bx._Ptr);

  006eb	8b 00		 mov	 eax, DWORD PTR [eax]
$LN218@chatGetLin:
; File C:\Anka2Project\Anka2Project\Source\Binary\source\UserInterface\PythonChatModule.cpp

; 477  : 					len += snprintf(itemlink + len, sizeof(itemlink) - len, ":%x:%I64d", 

  006ed	50		 push	 eax
  006ee	e8 00 00 00 00	 call	 __atoi64
; File C:\Program Files\Microsoft Visual Studio\2022\Community\VC\Tools\MSVC\14.44.35207\include\vector

; 1934 :         return _My_data._Myfirst[_Pos];

  006f3	03 bd 90 fa ff
	ff		 add	 edi, DWORD PTR _results$[ebp]
; File C:\Anka2Project\Anka2Project\Source\Binary\source\UserInterface\PythonChatModule.cpp

; 477  : 					len += snprintf(itemlink + len, sizeof(itemlink) - len, ":%x:%I64d", 

  006f9	83 c4 04	 add	 esp, 4
  006fc	89 85 8c fa ff
	ff		 mov	 DWORD PTR tv6222[ebp], eax
  00702	89 95 a4 fa ff
	ff		 mov	 DWORD PTR tv6221[ebp], edx
; File C:\Program Files\Microsoft Visual Studio\2022\Community\VC\Tools\MSVC\14.44.35207\include\vector

; 1934 :         return _My_data._Myfirst[_Pos];

  00708	89 bd ac fa ff
	ff		 mov	 DWORD PTR __Result$1$[ebp], edi
; File C:\Program Files\Microsoft Visual Studio\2022\Community\VC\Tools\MSVC\14.44.35207\include\xstring

; 453  :         return _Myres > _Small_string_capacity;

  0070e	83 7f 14 0f	 cmp	 DWORD PTR [edi+20], 15	; 0000000fH

; 445  :         if (_Large_mode_engaged()) {

  00712	76 08		 jbe	 SHORT $LN205@chatGetLin

; 446  :             _Result = _Unfancy(_Bx._Ptr);

  00714	8b 3f		 mov	 edi, DWORD PTR [edi]
  00716	89 bd ac fa ff
	ff		 mov	 DWORD PTR __Result$1$[ebp], edi
$LN205@chatGetLin:
; File C:\Anka2Project\Anka2Project\Source\Binary\source\eterBase\Utils.h

; 208  :     s += strlen(s);

  0071c	8b cf		 mov	 ecx, edi
  0071e	33 d2		 xor	 edx, edx
  00720	8d 41 01	 lea	 eax, DWORD PTR [ecx+1]
  00723	8d 72 01	 lea	 esi, DWORD PTR [edx+1]
  00726	89 85 a0 fa ff
	ff		 mov	 DWORD PTR tv6575[ebp], eax
  0072c	0f 1f 40 00	 npad	 4
$LL1332@chatGetLin:
  00730	8a 01		 mov	 al, BYTE PTR [ecx]
  00732	41		 inc	 ecx
  00733	84 c0		 test	 al, al
  00735	75 f9		 jne	 SHORT $LL1332@chatGetLin
  00737	2b 8d a0 fa ff
	ff		 sub	 ecx, DWORD PTR tv6575[ebp]

; 209  : 
; 210  :     while (t <= --s)

  0073d	4f		 dec	 edi
  0073e	03 f9		 add	 edi, ecx
  00740	39 bd ac fa ff
	ff		 cmp	 DWORD PTR __Result$1$[ebp], edi
  00746	77 46		 ja	 SHORT $LN227@chatGetLin
$LL228@chatGetLin:

; 211  :     {
; 212  : 		if ('0' <= *s && *s <= '9')

  00748	8a 0f		 mov	 cl, BYTE PTR [edi]
  0074a	8a c1		 mov	 al, cl
  0074c	2c 30		 sub	 al, 48			; 00000030H
  0074e	3c 09		 cmp	 al, 9
  00750	77 08		 ja	 SHORT $LN230@chatGetLin

; 213  :             x += y * (*s - '0');

  00752	0f be c1	 movsx	 eax, cl
  00755	83 e8 30	 sub	 eax, 48			; 00000030H
  00758	eb 1e		 jmp	 SHORT $LN1363@chatGetLin
$LN230@chatGetLin:

; 214  :         else if ('a' <= *s && *s <= 'f')

  0075a	8a c1		 mov	 al, cl
  0075c	2c 61		 sub	 al, 97			; 00000061H
  0075e	3c 05		 cmp	 al, 5
  00760	77 08		 ja	 SHORT $LN232@chatGetLin

; 215  :             x += y * (*s - 'a' + 10);

  00762	0f be c1	 movsx	 eax, cl
  00765	83 e8 57	 sub	 eax, 87			; 00000057H
  00768	eb 0e		 jmp	 SHORT $LN1363@chatGetLin
$LN232@chatGetLin:

; 216  :         else if ('A' <= *s && *s <= 'F')

  0076a	8a c1		 mov	 al, cl
  0076c	2c 41		 sub	 al, 65			; 00000041H
  0076e	3c 05		 cmp	 al, 5
  00770	77 19		 ja	 SHORT $LN234@chatGetLin

; 217  :             x += y * (10 + *s - 'A');

  00772	0f be c1	 movsx	 eax, cl
  00775	83 e8 37	 sub	 eax, 55			; 00000037H
$LN1363@chatGetLin:

; 220  :         y <<= 4;

  00778	0f af c6	 imul	 eax, esi
  0077b	4f		 dec	 edi
  0077c	c1 e6 04	 shl	 esi, 4
  0077f	03 d0		 add	 edx, eax
  00781	39 bd ac fa ff
	ff		 cmp	 DWORD PTR __Result$1$[ebp], edi
  00787	76 bf		 jbe	 SHORT $LL228@chatGetLin
; File C:\Program Files\Microsoft Visual Studio\2022\Community\VC\Tools\MSVC\14.44.35207\include\__msvc_string_view.hpp

; 113  :             for (size_t _Idx = 0; _Idx != _Count; ++_Idx) {

  00789	eb 03		 jmp	 SHORT $LN227@chatGetLin
$LN234@chatGetLin:
; File C:\Anka2Project\Anka2Project\Source\Binary\source\eterBase\Utils.h

; 219  :             return -1; /* invalid input! */

  0078b	83 ca ff	 or	 edx, -1
$LN227@chatGetLin:
; File C:\Anka2Project\Anka2Project\Source\Binary\source\UserInterface\PythonChatModule.cpp

; 477  : 					len += snprintf(itemlink + len, sizeof(itemlink) - len, ":%x:%I64d", 

  0078e	ff b5 a4 fa ff
	ff		 push	 DWORD PTR tv6221[ebp]
  00794	8b b5 b4 fa ff
	ff		 mov	 esi, DWORD PTR _len$1$[ebp]
  0079a	b8 00 01 00 00	 mov	 eax, 256		; 00000100H
  0079f	ff b5 8c fa ff
	ff		 push	 DWORD PTR tv6222[ebp]
  007a5	2b c6		 sub	 eax, esi
  007a7	52		 push	 edx
  007a8	68 00 00 00 00	 push	 OFFSET ??_C@_09CNFFNIIC@?3?$CFx?3?$CFI64d@
  007ad	50		 push	 eax
  007ae	8d 85 e8 fe ff
	ff		 lea	 eax, DWORD PTR _itemlink$272[ebp]
  007b4	03 c6		 add	 eax, esi
  007b6	50		 push	 eax
  007b7	e8 00 00 00 00	 call	 __snprintf
; File C:\Program Files\Microsoft Visual Studio\2022\Community\VC\Tools\MSVC\14.44.35207\include\vector

; 1915 :         return static_cast<size_type>(_My_data._Mylast - _My_data._Myfirst);

  007bc	8b 8d 94 fa ff
	ff		 mov	 ecx, DWORD PTR _results$[ebp+4]
; File C:\Anka2Project\Anka2Project\Source\Binary\source\UserInterface\PythonChatModule.cpp

; 477  : 					len += snprintf(itemlink + len, sizeof(itemlink) - len, ":%x:%I64d", 

  007c2	03 f0		 add	 esi, eax
  007c4	8b bd b0 fa ff
	ff		 mov	 edi, DWORD PTR tv6537[ebp]
; File C:\Program Files\Microsoft Visual Studio\2022\Community\VC\Tools\MSVC\14.44.35207\include\vector

; 1915 :         return static_cast<size_type>(_My_data._Mylast - _My_data._Myfirst);

  007ca	b8 ab aa aa 2a	 mov	 eax, 715827883		; 2aaaaaabH
; File C:\Anka2Project\Anka2Project\Source\Binary\source\UserInterface\PythonChatModule.cpp

; 472  : 				for (int i = 6 + 1; i < results.size(); i += 2)

  007cf	83 85 a8 fa ff
	ff 02		 add	 DWORD PTR _i$1$[ebp], 2
  007d6	83 c7 30	 add	 edi, 48			; 00000030H

; 477  : 					len += snprintf(itemlink + len, sizeof(itemlink) - len, ":%x:%I64d", 

  007d9	89 b5 b4 fa ff
	ff		 mov	 DWORD PTR _len$1$[ebp], esi
  007df	83 c4 18	 add	 esp, 24			; 00000018H
; File C:\Program Files\Microsoft Visual Studio\2022\Community\VC\Tools\MSVC\14.44.35207\include\vector

; 1915 :         return static_cast<size_type>(_My_data._Mylast - _My_data._Myfirst);

  007e2	8b b5 90 fa ff
	ff		 mov	 esi, DWORD PTR _results$[ebp]
  007e8	2b ce		 sub	 ecx, esi
  007ea	f7 e9		 imul	 ecx
; File C:\Anka2Project\Anka2Project\Source\Binary\source\UserInterface\PythonChatModule.cpp

; 472  : 				for (int i = 6 + 1; i < results.size(); i += 2)

  007ec	89 bd b0 fa ff
	ff		 mov	 DWORD PTR tv6537[ebp], edi
; File C:\Program Files\Microsoft Visual Studio\2022\Community\VC\Tools\MSVC\14.44.35207\include\vector

; 1915 :         return static_cast<size_type>(_My_data._Mylast - _My_data._Myfirst);

  007f2	c1 fa 02	 sar	 edx, 2
  007f5	8b c2		 mov	 eax, edx
  007f7	c1 e8 1f	 shr	 eax, 31			; 0000001fH
  007fa	03 c2		 add	 eax, edx
; File C:\Anka2Project\Anka2Project\Source\Binary\source\UserInterface\PythonChatModule.cpp

; 472  : 				for (int i = 6 + 1; i < results.size(); i += 2)

  007fc	39 85 a8 fa ff
	ff		 cmp	 DWORD PTR _i$1$[ebp], eax
  00802	0f 82 d8 fe ff
	ff		 jb	 $LL4@chatGetLin

; 478  : 							htoi(results[i].c_str()),
; 479  : 							atoi(results[i+1].c_str()));
; 480  : 					isAttr = true;
; 481  : 				}
; 482  : 			}
; 483  : 
; 484  : 			if (isAttr)
; 485  : 				snprintf(buf, sizeof(buf), "|cffffc700|H%s|h[%s]|h|r", itemlink, pItemData->GetName());

  00808	be 00 00 00 00	 mov	 esi, OFFSET ??_C@_0BJ@DABMGIOF@?$HMcffffc700?$HMH?$CFs?$HMh?$FL?$CFs?$FN?$HMh?$HMr@
  0080d	eb 05		 jmp	 SHORT $LN1364@chatGetLin
$LN11@chatGetLin:

; 486  : 			else
; 487  : 				snprintf(buf, sizeof(buf), "|cfff1e6c0|H%s|h[%s]|h|r", itemlink, pItemData->GetName());

  0080f	be 00 00 00 00	 mov	 esi, OFFSET ??_C@_0BJ@GPGFNPLK@?$HMcfff1e6c0?$HMH?$CFs?$HMh?$FL?$CFs?$FN?$HMh?$HMr@
$LN1364@chatGetLin:

; 488  : 
; 489  : 			return Py_BuildValue("s", buf);

  00814	8b 8d 9c fa ff
	ff		 mov	 ecx, DWORD PTR _pItemData$256[ebp]
  0081a	e8 00 00 00 00	 call	 ?GetName@CItemData@@QBEPBDXZ ; CItemData::GetName
  0081f	50		 push	 eax
  00820	8d 85 e8 fe ff
	ff		 lea	 eax, DWORD PTR _itemlink$272[ebp]
  00826	50		 push	 eax
  00827	56		 push	 esi
$LN1387@chatGetLin:
; File C:\Program Files\Microsoft Visual Studio\2022\Community\VC\Tools\MSVC\14.44.35207\include\vector

; 830  :         _Tidy();

  00828	8d 85 e8 fa ff
	ff		 lea	 eax, DWORD PTR _buf$269[ebp]
  0082e	68 00 04 00 00	 push	 1024			; 00000400H
  00833	50		 push	 eax
  00834	e8 00 00 00 00	 call	 __snprintf
  00839	8d 85 e8 fa ff
	ff		 lea	 eax, DWORD PTR _buf$269[ebp]
  0083f	50		 push	 eax
  00840	68 00 00 00 00	 push	 OFFSET ??_C@_01LKDEMHDF@s@
  00845	ff 15 00 00 00
	00		 call	 DWORD PTR __imp__Py_BuildValue
  0084b	83 c4 1c	 add	 esp, 28			; 0000001cH
  0084e	e9 c3 0e 00 00	 jmp	 $LN1365@chatGetLin
$LN6@chatGetLin:
; File C:\Program Files\Microsoft Visual Studio\2022\Community\VC\Tools\MSVC\14.44.35207\include\xstring

; 453  :         return _Myres > _Small_string_capacity;

  00853	83 7f 14 0f	 cmp	 DWORD PTR [edi+20], 15	; 0000000fH

; 444  :         const value_type* _Result = _Bx._Buf;

  00857	8b c7		 mov	 eax, edi

; 445  :         if (_Large_mode_engaged()) {

  00859	76 02		 jbe	 SHORT $LN1323@chatGetLin

; 446  :             _Result = _Unfancy(_Bx._Ptr);

  0085b	8b 06		 mov	 eax, DWORD PTR [esi]
$LN1323@chatGetLin:

; 2912 :         return _Traits_compare<_Traits>(_Mypair._Myval2._Myptr(), _Mypair._Myval2._Mysize, _Ptr, _Traits::length(_Ptr));

  0085d	6a 07		 push	 7
  0085f	68 00 00 00 00	 push	 OFFSET ??_C@_07JBIAKDEF@petitem@
  00864	ff 76 10	 push	 DWORD PTR [esi+16]
  00867	50		 push	 eax
  00868	e8 00 00 00 00	 call	 ??$_Traits_compare@U?$char_traits@D@std@@@std@@YAHQBDI0I@Z ; std::_Traits_compare<std::char_traits<char> >
  0086d	83 c4 10	 add	 esp, 16			; 00000010H
; File C:\Anka2Project\Anka2Project\Source\Binary\source\UserInterface\PythonChatModule.cpp

; 493  : 	else if (0 == results[0].compare("petitem"))

  00870	85 c0		 test	 eax, eax
  00872	0f 85 1c 0e 00
	00		 jne	 $LN13@chatGetLin
; File C:\Program Files\Microsoft Visual Studio\2022\Community\VC\Tools\MSVC\14.44.35207\include\vector

; 1915 :         return static_cast<size_type>(_My_data._Mylast - _My_data._Myfirst);

  00878	8b 8d 94 fa ff
	ff		 mov	 ecx, DWORD PTR _results$[ebp+4]
  0087e	b8 ab aa aa 2a	 mov	 eax, 715827883		; 2aaaaaabH
  00883	2b cf		 sub	 ecx, edi
  00885	f7 e9		 imul	 ecx
  00887	c1 fa 02	 sar	 edx, 2
  0088a	8b c2		 mov	 eax, edx
  0088c	c1 e8 1f	 shr	 eax, 31			; 0000001fH
  0088f	03 c2		 add	 eax, edx
; File C:\Anka2Project\Anka2Project\Source\Binary\source\UserInterface\PythonChatModule.cpp

; 495  : 		if (results.size() < 21)

  00891	83 f8 15	 cmp	 eax, 21			; 00000015H
  00894	0f 82 69 0e 00
	00		 jb	 $LN18@chatGetLin
; File C:\Anka2Project\Anka2Project\Source\Binary\source\eterBase\Singleton.h

; 26   : 		assert(ms_singleton);

  0089a	83 3d 00 00 00
	00 00		 cmp	 DWORD PTR ?ms_singleton@?$CSingleton@VCItemManager@@@@0PAVCItemManager@@A, 0 ; CSingleton<CItemManager>::ms_singleton
; File C:\Anka2Project\Anka2Project\Source\Binary\source\UserInterface\PythonChatModule.cpp

; 498  : 		CItemData* pItemData = nullptr;

  008a1	c7 85 a0 fa ff
	ff 00 00 00 00	 mov	 DWORD PTR _pItemData$259[ebp], 0
; File C:\Anka2Project\Anka2Project\Source\Binary\source\eterBase\Singleton.h

; 26   : 		assert(ms_singleton);

  008ab	75 1a		 jne	 SHORT $LN461@chatGetLin
  008ad	6a 1a		 push	 26			; 0000001aH
  008af	68 00 00 00 00	 push	 OFFSET ??_C@_1IO@CAJLEEOI@?$AAC?$AA?3?$AA?2?$AAA?$AAn?$AAk?$AAa?$AA2?$AAP?$AAr?$AAo?$AAj?$AAe?$AAc?$AAt@
  008b4	68 00 00 00 00	 push	 OFFSET ??_C@_1BK@FMEHPMFE@?$AAm?$AAs?$AA_?$AAs?$AAi?$AAn?$AAg?$AAl?$AAe?$AAt?$AAo?$AAn@
  008b9	e8 00 00 00 00	 call	 __wassert
  008be	8b b5 90 fa ff
	ff		 mov	 esi, DWORD PTR _results$[ebp]
  008c4	83 c4 0c	 add	 esp, 12			; 0000000cH
$LN461@chatGetLin:
; File C:\Program Files\Microsoft Visual Studio\2022\Community\VC\Tools\MSVC\14.44.35207\include\xstring

; 453  :         return _Myres > _Small_string_capacity;

  008c7	83 7e 2c 0f	 cmp	 DWORD PTR [esi+44], 15	; 0000000fH
; File C:\Program Files\Microsoft Visual Studio\2022\Community\VC\Tools\MSVC\14.44.35207\include\vector

; 1934 :         return _My_data._Myfirst[_Pos];

  008cb	8d 7e 18	 lea	 edi, DWORD PTR [esi+24]
  008ce	89 bd b4 fa ff
	ff		 mov	 DWORD PTR __Result$1$[ebp], edi
; File C:\Program Files\Microsoft Visual Studio\2022\Community\VC\Tools\MSVC\14.44.35207\include\xstring

; 445  :         if (_Large_mode_engaged()) {

  008d4	76 08		 jbe	 SHORT $LN440@chatGetLin

; 446  :             _Result = _Unfancy(_Bx._Ptr);

  008d6	8b 3f		 mov	 edi, DWORD PTR [edi]
  008d8	89 bd b4 fa ff
	ff		 mov	 DWORD PTR __Result$1$[ebp], edi
$LN440@chatGetLin:
; File C:\Anka2Project\Anka2Project\Source\Binary\source\eterBase\Utils.h

; 208  :     s += strlen(s);

  008de	8b cf		 mov	 ecx, edi
  008e0	33 d2		 xor	 edx, edx
  008e2	8d 41 01	 lea	 eax, DWORD PTR [ecx+1]
  008e5	8d 72 01	 lea	 esi, DWORD PTR [edx+1]
  008e8	89 85 b0 fa ff
	ff		 mov	 DWORD PTR tv6578[ebp], eax
  008ee	66 90		 npad	 2
$LL1333@chatGetLin:
  008f0	8a 01		 mov	 al, BYTE PTR [ecx]
  008f2	41		 inc	 ecx
  008f3	84 c0		 test	 al, al
  008f5	75 f9		 jne	 SHORT $LL1333@chatGetLin
  008f7	2b 8d b0 fa ff
	ff		 sub	 ecx, DWORD PTR tv6578[ebp]

; 209  : 
; 210  :     while (t <= --s)

  008fd	4f		 dec	 edi
  008fe	03 f9		 add	 edi, ecx
  00900	39 bd b4 fa ff
	ff		 cmp	 DWORD PTR __Result$1$[ebp], edi
  00906	77 46		 ja	 SHORT $LN446@chatGetLin
$LL447@chatGetLin:

; 211  :     {
; 212  : 		if ('0' <= *s && *s <= '9')

  00908	8a 0f		 mov	 cl, BYTE PTR [edi]
  0090a	8a c1		 mov	 al, cl
  0090c	2c 30		 sub	 al, 48			; 00000030H
  0090e	3c 09		 cmp	 al, 9
  00910	77 08		 ja	 SHORT $LN449@chatGetLin

; 213  :             x += y * (*s - '0');

  00912	0f be c1	 movsx	 eax, cl
  00915	83 e8 30	 sub	 eax, 48			; 00000030H
  00918	eb 1e		 jmp	 SHORT $LN1366@chatGetLin
$LN449@chatGetLin:

; 214  :         else if ('a' <= *s && *s <= 'f')

  0091a	8a c1		 mov	 al, cl
  0091c	2c 61		 sub	 al, 97			; 00000061H
  0091e	3c 05		 cmp	 al, 5
  00920	77 08		 ja	 SHORT $LN451@chatGetLin

; 215  :             x += y * (*s - 'a' + 10);

  00922	0f be c1	 movsx	 eax, cl
  00925	83 e8 57	 sub	 eax, 87			; 00000057H
  00928	eb 0e		 jmp	 SHORT $LN1366@chatGetLin
$LN451@chatGetLin:

; 216  :         else if ('A' <= *s && *s <= 'F')

  0092a	8a c1		 mov	 al, cl
  0092c	2c 41		 sub	 al, 65			; 00000041H
  0092e	3c 05		 cmp	 al, 5
  00930	77 19		 ja	 SHORT $LN453@chatGetLin

; 217  :             x += y * (10 + *s - 'A');

  00932	0f be c1	 movsx	 eax, cl
  00935	83 e8 37	 sub	 eax, 55			; 00000037H
$LN1366@chatGetLin:

; 220  :         y <<= 4;

  00938	0f af c6	 imul	 eax, esi
  0093b	4f		 dec	 edi
  0093c	c1 e6 04	 shl	 esi, 4
  0093f	03 d0		 add	 edx, eax
  00941	39 bd b4 fa ff
	ff		 cmp	 DWORD PTR __Result$1$[ebp], edi
  00947	76 bf		 jbe	 SHORT $LL447@chatGetLin
; File C:\Program Files\Microsoft Visual Studio\2022\Community\VC\Tools\MSVC\14.44.35207\include\__msvc_string_view.hpp

; 113  :             for (size_t _Idx = 0; _Idx != _Count; ++_Idx) {

  00949	eb 03		 jmp	 SHORT $LN446@chatGetLin
$LN453@chatGetLin:
; File C:\Anka2Project\Anka2Project\Source\Binary\source\eterBase\Utils.h

; 219  :             return -1; /* invalid input! */

  0094b	83 ca ff	 or	 edx, -1
$LN446@chatGetLin:
; File C:\Anka2Project\Anka2Project\Source\Binary\source\UserInterface\PythonChatModule.cpp

; 500  : 		if (CItemManager::Instance().GetItemDataPointer(htoi(results[1].c_str()), &pItemData))

  0094e	8b 0d 00 00 00
	00		 mov	 ecx, DWORD PTR ?ms_singleton@?$CSingleton@VCItemManager@@@@0PAVCItemManager@@A ; CSingleton<CItemManager>::ms_singleton
  00954	8d 85 a0 fa ff
	ff		 lea	 eax, DWORD PTR _pItemData$259[ebp]
  0095a	50		 push	 eax
  0095b	52		 push	 edx
  0095c	e8 00 00 00 00	 call	 ?GetItemDataPointer@CItemManager@@QAEHKPAPAVCItemData@@@Z ; CItemManager::GetItemDataPointer
  00961	85 c0		 test	 eax, eax
  00963	0f 84 9a 0d 00
	00		 je	 $LN18@chatGetLin

; 501  : 		{
; 502  : 			char buf[1024] = { 0 };

  00969	68 00 04 00 00	 push	 1024			; 00000400H
  0096e	8d 85 e8 fa ff
	ff		 lea	 eax, DWORD PTR _buf$271[ebp]
  00974	6a 00		 push	 0
  00976	50		 push	 eax
  00977	e8 00 00 00 00	 call	 _memset
  0097c	83 c4 0c	 add	 esp, 12			; 0000000cH

; 503  : 			char itemlink[256];
; 504  : 			int len;
; 505  : 
; 506  : 			CPythonPlayer::TPetData* pPet = nullptr;

  0097f	c7 85 9c fa ff
	ff 00 00 00 00	 mov	 DWORD PTR _pPet$257[ebp], 0
; File C:\Anka2Project\Anka2Project\Source\Binary\source\eterBase\Singleton.h

; 26   : 		assert(ms_singleton);

  00989	83 3d 00 00 00
	00 00		 cmp	 DWORD PTR ?ms_singleton@?$CSingleton@VCPythonPlayer@@@@0PAVCPythonPlayer@@A, 0 ; CSingleton<CPythonPlayer>::ms_singleton
  00990	75 14		 jne	 SHORT $LN599@chatGetLin
  00992	6a 1a		 push	 26			; 0000001aH
  00994	68 00 00 00 00	 push	 OFFSET ??_C@_1IO@CAJLEEOI@?$AAC?$AA?3?$AA?2?$AAA?$AAn?$AAk?$AAa?$AA2?$AAP?$AAr?$AAo?$AAj?$AAe?$AAc?$AAt@
  00999	68 00 00 00 00	 push	 OFFSET ??_C@_1BK@FMEHPMFE@?$AAm?$AAs?$AA_?$AAs?$AAi?$AAn?$AAg?$AAl?$AAe?$AAt?$AAo?$AAn@
  0099e	e8 00 00 00 00	 call	 __wassert
  009a3	83 c4 0c	 add	 esp, 12			; 0000000cH
$LN599@chatGetLin:
; File C:\Program Files\Microsoft Visual Studio\2022\Community\VC\Tools\MSVC\14.44.35207\include\vector

; 1934 :         return _My_data._Myfirst[_Pos];

  009a6	8b bd 90 fa ff
	ff		 mov	 edi, DWORD PTR _results$[ebp]
  009ac	83 c7 60	 add	 edi, 96			; 00000060H
  009af	89 bd b4 fa ff
	ff		 mov	 DWORD PTR __Result$1$[ebp], edi
; File C:\Program Files\Microsoft Visual Studio\2022\Community\VC\Tools\MSVC\14.44.35207\include\xstring

; 453  :         return _Myres > _Small_string_capacity;

  009b5	83 7f 14 0f	 cmp	 DWORD PTR [edi+20], 15	; 0000000fH

; 445  :         if (_Large_mode_engaged()) {

  009b9	76 08		 jbe	 SHORT $LN466@chatGetLin

; 446  :             _Result = _Unfancy(_Bx._Ptr);

  009bb	8b 3f		 mov	 edi, DWORD PTR [edi]
  009bd	89 bd b4 fa ff
	ff		 mov	 DWORD PTR __Result$1$[ebp], edi
$LN466@chatGetLin:
; File C:\Anka2Project\Anka2Project\Source\Binary\source\eterBase\Utils.h

; 208  :     s += strlen(s);

  009c3	8b cf		 mov	 ecx, edi
  009c5	33 d2		 xor	 edx, edx
  009c7	8d 41 01	 lea	 eax, DWORD PTR [ecx+1]
  009ca	8d 72 01	 lea	 esi, DWORD PTR [edx+1]
  009cd	89 85 b0 fa ff
	ff		 mov	 DWORD PTR tv6581[ebp], eax
$LL1334@chatGetLin:
  009d3	8a 01		 mov	 al, BYTE PTR [ecx]
  009d5	41		 inc	 ecx
  009d6	84 c0		 test	 al, al
  009d8	75 f9		 jne	 SHORT $LL1334@chatGetLin
  009da	2b 8d b0 fa ff
	ff		 sub	 ecx, DWORD PTR tv6581[ebp]

; 209  : 
; 210  :     while (t <= --s)

  009e0	4f		 dec	 edi
  009e1	03 f9		 add	 edi, ecx
  009e3	39 bd b4 fa ff
	ff		 cmp	 DWORD PTR __Result$1$[ebp], edi
  009e9	77 4b		 ja	 SHORT $LN472@chatGetLin
  009eb	0f 1f 44 00 00	 npad	 5
$LL473@chatGetLin:

; 211  :     {
; 212  : 		if ('0' <= *s && *s <= '9')

  009f0	8a 0f		 mov	 cl, BYTE PTR [edi]
  009f2	8a c1		 mov	 al, cl
  009f4	2c 30		 sub	 al, 48			; 00000030H
  009f6	3c 09		 cmp	 al, 9
  009f8	77 08		 ja	 SHORT $LN475@chatGetLin

; 213  :             x += y * (*s - '0');

  009fa	0f be c1	 movsx	 eax, cl
  009fd	83 e8 30	 sub	 eax, 48			; 00000030H
  00a00	eb 1e		 jmp	 SHORT $LN1367@chatGetLin
$LN475@chatGetLin:

; 214  :         else if ('a' <= *s && *s <= 'f')

  00a02	8a c1		 mov	 al, cl
  00a04	2c 61		 sub	 al, 97			; 00000061H
  00a06	3c 05		 cmp	 al, 5
  00a08	77 08		 ja	 SHORT $LN477@chatGetLin

; 215  :             x += y * (*s - 'a' + 10);

  00a0a	0f be c1	 movsx	 eax, cl
  00a0d	83 e8 57	 sub	 eax, 87			; 00000057H
  00a10	eb 0e		 jmp	 SHORT $LN1367@chatGetLin
$LN477@chatGetLin:

; 216  :         else if ('A' <= *s && *s <= 'F')

  00a12	8a c1		 mov	 al, cl
  00a14	2c 41		 sub	 al, 65			; 00000041H
  00a16	3c 05		 cmp	 al, 5
  00a18	77 19		 ja	 SHORT $LN479@chatGetLin

; 217  :             x += y * (10 + *s - 'A');

  00a1a	0f be c1	 movsx	 eax, cl
  00a1d	83 e8 37	 sub	 eax, 55			; 00000037H
$LN1367@chatGetLin:

; 220  :         y <<= 4;

  00a20	0f af c6	 imul	 eax, esi
  00a23	4f		 dec	 edi
  00a24	c1 e6 04	 shl	 esi, 4
  00a27	03 d0		 add	 edx, eax
  00a29	39 bd b4 fa ff
	ff		 cmp	 DWORD PTR __Result$1$[ebp], edi
  00a2f	76 bf		 jbe	 SHORT $LL473@chatGetLin
; File C:\Program Files\Microsoft Visual Studio\2022\Community\VC\Tools\MSVC\14.44.35207\include\__msvc_string_view.hpp

; 113  :             for (size_t _Idx = 0; _Idx != _Count; ++_Idx) {

  00a31	eb 03		 jmp	 SHORT $LN472@chatGetLin
$LN479@chatGetLin:
; File C:\Anka2Project\Anka2Project\Source\Binary\source\eterBase\Utils.h

; 219  :             return -1; /* invalid input! */

  00a33	83 ca ff	 or	 edx, -1
$LN472@chatGetLin:
; File C:\Anka2Project\Anka2Project\Source\Binary\source\UserInterface\PythonChatModule.cpp

; 507  : 			CPythonPlayer::Instance().GetPetInfo(htoi(results[4].c_str()), &pPet);

  00a36	8b 0d 00 00 00
	00		 mov	 ecx, DWORD PTR ?ms_singleton@?$CSingleton@VCPythonPlayer@@@@0PAVCPythonPlayer@@A ; CSingleton<CPythonPlayer>::ms_singleton
  00a3c	8d 85 9c fa ff
	ff		 lea	 eax, DWORD PTR _pPet$257[ebp]
  00a42	50		 push	 eax
  00a43	52		 push	 edx
  00a44	e8 00 00 00 00	 call	 ?GetPetInfo@CPythonPlayer@@QAE_NKPAPAUSPetData@1@@Z ; CPythonPlayer::GetPetInfo
; File C:\Program Files\Microsoft Visual Studio\2022\Community\VC\Tools\MSVC\14.44.35207\include\vector

; 1934 :         return _My_data._Myfirst[_Pos];

  00a49	8b bd 90 fa ff
	ff		 mov	 edi, DWORD PTR _results$[ebp]
  00a4f	83 c7 78	 add	 edi, 120		; 00000078H
  00a52	89 bd b4 fa ff
	ff		 mov	 DWORD PTR __Result$1$[ebp], edi
; File C:\Program Files\Microsoft Visual Studio\2022\Community\VC\Tools\MSVC\14.44.35207\include\xstring

; 453  :         return _Myres > _Small_string_capacity;

  00a58	83 7f 14 0f	 cmp	 DWORD PTR [edi+20], 15	; 0000000fH

; 445  :         if (_Large_mode_engaged()) {

  00a5c	76 08		 jbe	 SHORT $LN489@chatGetLin

; 446  :             _Result = _Unfancy(_Bx._Ptr);

  00a5e	8b 3f		 mov	 edi, DWORD PTR [edi]
  00a60	89 bd b4 fa ff
	ff		 mov	 DWORD PTR __Result$1$[ebp], edi
$LN489@chatGetLin:
; File C:\Anka2Project\Anka2Project\Source\Binary\source\eterBase\Utils.h

; 208  :     s += strlen(s);

  00a66	8b cf		 mov	 ecx, edi
  00a68	33 f6		 xor	 esi, esi
  00a6a	89 b5 a8 fa ff
	ff		 mov	 DWORD PTR $T265[ebp], esi
  00a70	8d 41 01	 lea	 eax, DWORD PTR [ecx+1]
  00a73	8d 56 01	 lea	 edx, DWORD PTR [esi+1]
  00a76	89 85 b0 fa ff
	ff		 mov	 DWORD PTR tv6584[ebp], eax
  00a7c	0f 1f 40 00	 npad	 4
$LL1335@chatGetLin:
  00a80	8a 01		 mov	 al, BYTE PTR [ecx]
  00a82	41		 inc	 ecx
  00a83	84 c0		 test	 al, al
  00a85	75 f9		 jne	 SHORT $LL1335@chatGetLin
  00a87	2b 8d b0 fa ff
	ff		 sub	 ecx, DWORD PTR tv6584[ebp]

; 209  : 
; 210  :     while (t <= --s)

  00a8d	4f		 dec	 edi
  00a8e	03 f9		 add	 edi, ecx
  00a90	39 bd b4 fa ff
	ff		 cmp	 DWORD PTR __Result$1$[ebp], edi
  00a96	77 53		 ja	 SHORT $LN495@chatGetLin
$LL496@chatGetLin:

; 211  :     {
; 212  : 		if ('0' <= *s && *s <= '9')

  00a98	8a 0f		 mov	 cl, BYTE PTR [edi]
  00a9a	8a c1		 mov	 al, cl
  00a9c	2c 30		 sub	 al, 48			; 00000030H
  00a9e	3c 09		 cmp	 al, 9
  00aa0	77 08		 ja	 SHORT $LN498@chatGetLin

; 213  :             x += y * (*s - '0');

  00aa2	0f be c1	 movsx	 eax, cl
  00aa5	83 e8 30	 sub	 eax, 48			; 00000030H
  00aa8	eb 1e		 jmp	 SHORT $LN1368@chatGetLin
$LN498@chatGetLin:

; 214  :         else if ('a' <= *s && *s <= 'f')

  00aaa	8a c1		 mov	 al, cl
  00aac	2c 61		 sub	 al, 97			; 00000061H
  00aae	3c 05		 cmp	 al, 5
  00ab0	77 08		 ja	 SHORT $LN500@chatGetLin

; 215  :             x += y * (*s - 'a' + 10);

  00ab2	0f be c1	 movsx	 eax, cl
  00ab5	83 e8 57	 sub	 eax, 87			; 00000057H
  00ab8	eb 0e		 jmp	 SHORT $LN1368@chatGetLin
$LN500@chatGetLin:

; 216  :         else if ('A' <= *s && *s <= 'F')

  00aba	8a c1		 mov	 al, cl
  00abc	2c 41		 sub	 al, 65			; 00000041H
  00abe	3c 05		 cmp	 al, 5
  00ac0	77 1f		 ja	 SHORT $LN502@chatGetLin

; 217  :             x += y * (10 + *s - 'A');

  00ac2	0f be c1	 movsx	 eax, cl
  00ac5	83 e8 37	 sub	 eax, 55			; 00000037H
$LN1368@chatGetLin:

; 220  :         y <<= 4;

  00ac8	0f af c2	 imul	 eax, edx
  00acb	4f		 dec	 edi
  00acc	c1 e2 04	 shl	 edx, 4
  00acf	03 f0		 add	 esi, eax
  00ad1	89 b5 a8 fa ff
	ff		 mov	 DWORD PTR $T265[ebp], esi
  00ad7	39 bd b4 fa ff
	ff		 cmp	 DWORD PTR __Result$1$[ebp], edi
  00add	76 b9		 jbe	 SHORT $LL496@chatGetLin
; File C:\Program Files\Microsoft Visual Studio\2022\Community\VC\Tools\MSVC\14.44.35207\include\__msvc_string_view.hpp

; 113  :             for (size_t _Idx = 0; _Idx != _Count; ++_Idx) {

  00adf	eb 0a		 jmp	 SHORT $LN495@chatGetLin
$LN502@chatGetLin:
; File C:\Anka2Project\Anka2Project\Source\Binary\source\eterBase\Utils.h

; 219  :             return -1; /* invalid input! */

  00ae1	c7 85 a8 fa ff
	ff ff ff ff ff	 mov	 DWORD PTR $T265[ebp], -1
$LN495@chatGetLin:
; File C:\Program Files\Microsoft Visual Studio\2022\Community\VC\Tools\MSVC\14.44.35207\include\vector

; 1934 :         return _My_data._Myfirst[_Pos];

  00aeb	8b bd 90 fa ff
	ff		 mov	 edi, DWORD PTR _results$[ebp]
  00af1	83 c7 60	 add	 edi, 96			; 00000060H
  00af4	89 bd b4 fa ff
	ff		 mov	 DWORD PTR __Result$1$[ebp], edi
; File C:\Program Files\Microsoft Visual Studio\2022\Community\VC\Tools\MSVC\14.44.35207\include\xstring

; 453  :         return _Myres > _Small_string_capacity;

  00afa	83 7f 14 0f	 cmp	 DWORD PTR [edi+20], 15	; 0000000fH

; 445  :         if (_Large_mode_engaged()) {

  00afe	76 08		 jbe	 SHORT $LN512@chatGetLin

; 446  :             _Result = _Unfancy(_Bx._Ptr);

  00b00	8b 3f		 mov	 edi, DWORD PTR [edi]
  00b02	89 bd b4 fa ff
	ff		 mov	 DWORD PTR __Result$1$[ebp], edi
$LN512@chatGetLin:
; File C:\Anka2Project\Anka2Project\Source\Binary\source\eterBase\Utils.h

; 208  :     s += strlen(s);

  00b08	8b cf		 mov	 ecx, edi
  00b0a	33 d2		 xor	 edx, edx
  00b0c	89 95 a4 fa ff
	ff		 mov	 DWORD PTR $T260[ebp], edx
  00b12	8d 41 01	 lea	 eax, DWORD PTR [ecx+1]
  00b15	8d 72 01	 lea	 esi, DWORD PTR [edx+1]
  00b18	89 85 b0 fa ff
	ff		 mov	 DWORD PTR tv6587[ebp], eax
  00b1e	66 90		 npad	 2
$LL1336@chatGetLin:
  00b20	8a 01		 mov	 al, BYTE PTR [ecx]
  00b22	41		 inc	 ecx
  00b23	84 c0		 test	 al, al
  00b25	75 f9		 jne	 SHORT $LL1336@chatGetLin
  00b27	2b 8d b0 fa ff
	ff		 sub	 ecx, DWORD PTR tv6587[ebp]

; 209  : 
; 210  :     while (t <= --s)

  00b2d	4f		 dec	 edi
  00b2e	03 f9		 add	 edi, ecx
  00b30	39 bd b4 fa ff
	ff		 cmp	 DWORD PTR __Result$1$[ebp], edi
  00b36	77 53		 ja	 SHORT $LN518@chatGetLin
$LL519@chatGetLin:

; 211  :     {
; 212  : 		if ('0' <= *s && *s <= '9')

  00b38	8a 0f		 mov	 cl, BYTE PTR [edi]
  00b3a	8a c1		 mov	 al, cl
  00b3c	2c 30		 sub	 al, 48			; 00000030H
  00b3e	3c 09		 cmp	 al, 9
  00b40	77 08		 ja	 SHORT $LN521@chatGetLin

; 213  :             x += y * (*s - '0');

  00b42	0f be c1	 movsx	 eax, cl
  00b45	83 e8 30	 sub	 eax, 48			; 00000030H
  00b48	eb 1e		 jmp	 SHORT $LN1369@chatGetLin
$LN521@chatGetLin:

; 214  :         else if ('a' <= *s && *s <= 'f')

  00b4a	8a c1		 mov	 al, cl
  00b4c	2c 61		 sub	 al, 97			; 00000061H
  00b4e	3c 05		 cmp	 al, 5
  00b50	77 08		 ja	 SHORT $LN523@chatGetLin

; 215  :             x += y * (*s - 'a' + 10);

  00b52	0f be c1	 movsx	 eax, cl
  00b55	83 e8 57	 sub	 eax, 87			; 00000057H
  00b58	eb 0e		 jmp	 SHORT $LN1369@chatGetLin
$LN523@chatGetLin:

; 216  :         else if ('A' <= *s && *s <= 'F')

  00b5a	8a c1		 mov	 al, cl
  00b5c	2c 41		 sub	 al, 65			; 00000041H
  00b5e	3c 05		 cmp	 al, 5
  00b60	77 1f		 ja	 SHORT $LN525@chatGetLin

; 217  :             x += y * (10 + *s - 'A');

  00b62	0f be c1	 movsx	 eax, cl
  00b65	83 e8 37	 sub	 eax, 55			; 00000037H
$LN1369@chatGetLin:

; 220  :         y <<= 4;

  00b68	0f af c6	 imul	 eax, esi
  00b6b	4f		 dec	 edi
  00b6c	c1 e6 04	 shl	 esi, 4
  00b6f	03 d0		 add	 edx, eax
  00b71	89 95 a4 fa ff
	ff		 mov	 DWORD PTR $T260[ebp], edx
  00b77	39 bd b4 fa ff
	ff		 cmp	 DWORD PTR __Result$1$[ebp], edi
  00b7d	76 b9		 jbe	 SHORT $LL519@chatGetLin
; File C:\Program Files\Microsoft Visual Studio\2022\Community\VC\Tools\MSVC\14.44.35207\include\__msvc_string_view.hpp

; 113  :             for (size_t _Idx = 0; _Idx != _Count; ++_Idx) {

  00b7f	eb 0a		 jmp	 SHORT $LN518@chatGetLin
$LN525@chatGetLin:
; File C:\Anka2Project\Anka2Project\Source\Binary\source\eterBase\Utils.h

; 219  :             return -1; /* invalid input! */

  00b81	c7 85 a4 fa ff
	ff ff ff ff ff	 mov	 DWORD PTR $T260[ebp], -1
$LN518@chatGetLin:
; File C:\Program Files\Microsoft Visual Studio\2022\Community\VC\Tools\MSVC\14.44.35207\include\vector

; 1934 :         return _My_data._Myfirst[_Pos];

  00b8b	8b b5 90 fa ff
	ff		 mov	 esi, DWORD PTR _results$[ebp]
  00b91	83 c6 48	 add	 esi, 72			; 00000048H
  00b94	89 b5 b4 fa ff
	ff		 mov	 DWORD PTR __Result$1$[ebp], esi
; File C:\Program Files\Microsoft Visual Studio\2022\Community\VC\Tools\MSVC\14.44.35207\include\xstring

; 453  :         return _Myres > _Small_string_capacity;

  00b9a	83 7e 14 0f	 cmp	 DWORD PTR [esi+20], 15	; 0000000fH

; 445  :         if (_Large_mode_engaged()) {

  00b9e	76 08		 jbe	 SHORT $LN535@chatGetLin

; 446  :             _Result = _Unfancy(_Bx._Ptr);

  00ba0	8b 36		 mov	 esi, DWORD PTR [esi]
  00ba2	89 b5 b4 fa ff
	ff		 mov	 DWORD PTR __Result$1$[ebp], esi
$LN535@chatGetLin:
; File C:\Anka2Project\Anka2Project\Source\Binary\source\eterBase\Utils.h

; 208  :     s += strlen(s);

  00ba8	8b ce		 mov	 ecx, esi
  00baa	33 ff		 xor	 edi, edi
  00bac	8d 41 01	 lea	 eax, DWORD PTR [ecx+1]
  00baf	8d 57 01	 lea	 edx, DWORD PTR [edi+1]
  00bb2	89 85 b0 fa ff
	ff		 mov	 DWORD PTR tv6590[ebp], eax
$LL1337@chatGetLin:
  00bb8	8a 01		 mov	 al, BYTE PTR [ecx]
  00bba	41		 inc	 ecx
  00bbb	84 c0		 test	 al, al
  00bbd	75 f9		 jne	 SHORT $LL1337@chatGetLin
  00bbf	2b 8d b0 fa ff
	ff		 sub	 ecx, DWORD PTR tv6590[ebp]

; 209  : 
; 210  :     while (t <= --s)

  00bc5	4e		 dec	 esi
  00bc6	03 f1		 add	 esi, ecx
  00bc8	39 b5 b4 fa ff
	ff		 cmp	 DWORD PTR __Result$1$[ebp], esi
  00bce	77 46		 ja	 SHORT $LN541@chatGetLin
$LL542@chatGetLin:

; 211  :     {
; 212  : 		if ('0' <= *s && *s <= '9')

  00bd0	8a 0e		 mov	 cl, BYTE PTR [esi]
  00bd2	8a c1		 mov	 al, cl
  00bd4	2c 30		 sub	 al, 48			; 00000030H
  00bd6	3c 09		 cmp	 al, 9
  00bd8	77 08		 ja	 SHORT $LN544@chatGetLin

; 213  :             x += y * (*s - '0');

  00bda	0f be c1	 movsx	 eax, cl
  00bdd	83 e8 30	 sub	 eax, 48			; 00000030H
  00be0	eb 1e		 jmp	 SHORT $LN1370@chatGetLin
$LN544@chatGetLin:

; 214  :         else if ('a' <= *s && *s <= 'f')

  00be2	8a c1		 mov	 al, cl
  00be4	2c 61		 sub	 al, 97			; 00000061H
  00be6	3c 05		 cmp	 al, 5
  00be8	77 08		 ja	 SHORT $LN546@chatGetLin

; 215  :             x += y * (*s - 'a' + 10);

  00bea	0f be c1	 movsx	 eax, cl
  00bed	83 e8 57	 sub	 eax, 87			; 00000057H
  00bf0	eb 0e		 jmp	 SHORT $LN1370@chatGetLin
$LN546@chatGetLin:

; 216  :         else if ('A' <= *s && *s <= 'F')

  00bf2	8a c1		 mov	 al, cl
  00bf4	2c 41		 sub	 al, 65			; 00000041H
  00bf6	3c 05		 cmp	 al, 5
  00bf8	77 19		 ja	 SHORT $LN548@chatGetLin

; 217  :             x += y * (10 + *s - 'A');

  00bfa	0f be c1	 movsx	 eax, cl
  00bfd	83 e8 37	 sub	 eax, 55			; 00000037H
$LN1370@chatGetLin:

; 220  :         y <<= 4;

  00c00	0f af c2	 imul	 eax, edx
  00c03	4e		 dec	 esi
  00c04	c1 e2 04	 shl	 edx, 4
  00c07	03 f8		 add	 edi, eax
  00c09	39 b5 b4 fa ff
	ff		 cmp	 DWORD PTR __Result$1$[ebp], esi
  00c0f	76 bf		 jbe	 SHORT $LL542@chatGetLin
; File C:\Program Files\Microsoft Visual Studio\2022\Community\VC\Tools\MSVC\14.44.35207\include\__msvc_string_view.hpp

; 113  :             for (size_t _Idx = 0; _Idx != _Count; ++_Idx) {

  00c11	eb 03		 jmp	 SHORT $LN541@chatGetLin
$LN548@chatGetLin:
; File C:\Anka2Project\Anka2Project\Source\Binary\source\eterBase\Utils.h

; 219  :             return -1; /* invalid input! */

  00c13	83 cf ff	 or	 edi, -1
$LN541@chatGetLin:
; File C:\Program Files\Microsoft Visual Studio\2022\Community\VC\Tools\MSVC\14.44.35207\include\vector

; 1934 :         return _My_data._Myfirst[_Pos];

  00c16	8b 85 90 fa ff
	ff		 mov	 eax, DWORD PTR _results$[ebp]
  00c1c	83 c0 30	 add	 eax, 48			; 00000030H
  00c1f	89 85 b4 fa ff
	ff		 mov	 DWORD PTR __Result$1$[ebp], eax
; File C:\Program Files\Microsoft Visual Studio\2022\Community\VC\Tools\MSVC\14.44.35207\include\xstring

; 453  :         return _Myres > _Small_string_capacity;

  00c25	83 78 14 0f	 cmp	 DWORD PTR [eax+20], 15	; 0000000fH

; 445  :         if (_Large_mode_engaged()) {

  00c29	76 08		 jbe	 SHORT $LN558@chatGetLin

; 446  :             _Result = _Unfancy(_Bx._Ptr);

  00c2b	8b 00		 mov	 eax, DWORD PTR [eax]
  00c2d	89 85 b4 fa ff
	ff		 mov	 DWORD PTR __Result$1$[ebp], eax
$LN558@chatGetLin:
; File C:\Anka2Project\Anka2Project\Source\Binary\source\eterBase\Utils.h

; 208  :     s += strlen(s);

  00c33	8b c8		 mov	 ecx, eax
  00c35	33 f6		 xor	 esi, esi
  00c37	8d 41 01	 lea	 eax, DWORD PTR [ecx+1]
  00c3a	8d 56 01	 lea	 edx, DWORD PTR [esi+1]
  00c3d	89 85 b0 fa ff
	ff		 mov	 DWORD PTR tv6593[ebp], eax
$LL1338@chatGetLin:
  00c43	8a 01		 mov	 al, BYTE PTR [ecx]
  00c45	41		 inc	 ecx
  00c46	84 c0		 test	 al, al
  00c48	75 f9		 jne	 SHORT $LL1338@chatGetLin
  00c4a	2b 8d b0 fa ff
	ff		 sub	 ecx, DWORD PTR tv6593[ebp]

; 209  : 
; 210  :     while (t <= --s)

  00c50	8b 85 b4 fa ff
	ff		 mov	 eax, DWORD PTR __Result$1$[ebp]
  00c56	48		 dec	 eax
  00c57	03 c1		 add	 eax, ecx
  00c59	89 85 b0 fa ff
	ff		 mov	 DWORD PTR _s$1$[ebp], eax
  00c5f	39 85 b4 fa ff
	ff		 cmp	 DWORD PTR __Result$1$[ebp], eax
  00c65	77 52		 ja	 SHORT $LN564@chatGetLin
$LL565@chatGetLin:

; 211  :     {
; 212  : 		if ('0' <= *s && *s <= '9')

  00c67	8a 08		 mov	 cl, BYTE PTR [eax]
  00c69	8a c1		 mov	 al, cl
  00c6b	2c 30		 sub	 al, 48			; 00000030H
  00c6d	3c 09		 cmp	 al, 9
  00c6f	77 08		 ja	 SHORT $LN567@chatGetLin

; 213  :             x += y * (*s - '0');

  00c71	0f be c1	 movsx	 eax, cl
  00c74	83 e8 30	 sub	 eax, 48			; 00000030H
  00c77	eb 1e		 jmp	 SHORT $LN1371@chatGetLin
$LN567@chatGetLin:

; 214  :         else if ('a' <= *s && *s <= 'f')

  00c79	8a c1		 mov	 al, cl
  00c7b	2c 61		 sub	 al, 97			; 00000061H
  00c7d	3c 05		 cmp	 al, 5
  00c7f	77 08		 ja	 SHORT $LN569@chatGetLin

; 215  :             x += y * (*s - 'a' + 10);

  00c81	0f be c1	 movsx	 eax, cl
  00c84	83 e8 57	 sub	 eax, 87			; 00000057H
  00c87	eb 0e		 jmp	 SHORT $LN1371@chatGetLin
$LN569@chatGetLin:

; 216  :         else if ('A' <= *s && *s <= 'F')

  00c89	8a c1		 mov	 al, cl
  00c8b	2c 41		 sub	 al, 65			; 00000041H
  00c8d	3c 05		 cmp	 al, 5
  00c8f	77 25		 ja	 SHORT $LN571@chatGetLin

; 217  :             x += y * (10 + *s - 'A');

  00c91	0f be c1	 movsx	 eax, cl
  00c94	83 e8 37	 sub	 eax, 55			; 00000037H
$LN1371@chatGetLin:

; 220  :         y <<= 4;

  00c97	0f af c2	 imul	 eax, edx
  00c9a	c1 e2 04	 shl	 edx, 4
  00c9d	03 f0		 add	 esi, eax
  00c9f	8b 85 b0 fa ff
	ff		 mov	 eax, DWORD PTR _s$1$[ebp]
  00ca5	48		 dec	 eax
  00ca6	89 85 b0 fa ff
	ff		 mov	 DWORD PTR _s$1$[ebp], eax
  00cac	39 85 b4 fa ff
	ff		 cmp	 DWORD PTR __Result$1$[ebp], eax
  00cb2	76 b3		 jbe	 SHORT $LL565@chatGetLin
; File C:\Program Files\Microsoft Visual Studio\2022\Community\VC\Tools\MSVC\14.44.35207\include\__msvc_string_view.hpp

; 113  :             for (size_t _Idx = 0; _Idx != _Count; ++_Idx) {

  00cb4	eb 03		 jmp	 SHORT $LN564@chatGetLin
$LN571@chatGetLin:
; File C:\Anka2Project\Anka2Project\Source\Binary\source\eterBase\Utils.h

; 219  :             return -1; /* invalid input! */

  00cb6	83 ce ff	 or	 esi, -1
$LN564@chatGetLin:
; File C:\Program Files\Microsoft Visual Studio\2022\Community\VC\Tools\MSVC\14.44.35207\include\vector

; 1934 :         return _My_data._Myfirst[_Pos];

  00cb9	8b 85 90 fa ff
	ff		 mov	 eax, DWORD PTR _results$[ebp]
  00cbf	83 c0 18	 add	 eax, 24			; 00000018H
  00cc2	89 85 b4 fa ff
	ff		 mov	 DWORD PTR __Result$1$[ebp], eax
; File C:\Program Files\Microsoft Visual Studio\2022\Community\VC\Tools\MSVC\14.44.35207\include\xstring

; 453  :         return _Myres > _Small_string_capacity;

  00cc8	83 78 14 0f	 cmp	 DWORD PTR [eax+20], 15	; 0000000fH

; 445  :         if (_Large_mode_engaged()) {

  00ccc	76 08		 jbe	 SHORT $LN581@chatGetLin

; 446  :             _Result = _Unfancy(_Bx._Ptr);

  00cce	8b 00		 mov	 eax, DWORD PTR [eax]
  00cd0	89 85 b4 fa ff
	ff		 mov	 DWORD PTR __Result$1$[ebp], eax
$LN581@chatGetLin:
; File C:\Anka2Project\Anka2Project\Source\Binary\source\eterBase\Utils.h

; 208  :     s += strlen(s);

  00cd6	8b c8		 mov	 ecx, eax
  00cd8	c7 85 ac fa ff
	ff 01 00 00 00	 mov	 DWORD PTR _y$1$[ebp], 1
  00ce2	33 d2		 xor	 edx, edx
  00ce4	8d 41 01	 lea	 eax, DWORD PTR [ecx+1]
  00ce7	89 85 b0 fa ff
	ff		 mov	 DWORD PTR tv6596[ebp], eax
  00ced	0f 1f 00	 npad	 3
$LL1339@chatGetLin:
  00cf0	8a 01		 mov	 al, BYTE PTR [ecx]
  00cf2	41		 inc	 ecx
  00cf3	84 c0		 test	 al, al
  00cf5	75 f9		 jne	 SHORT $LL1339@chatGetLin
  00cf7	2b 8d b0 fa ff
	ff		 sub	 ecx, DWORD PTR tv6596[ebp]

; 209  : 
; 210  :     while (t <= --s)

  00cfd	8b 85 b4 fa ff
	ff		 mov	 eax, DWORD PTR __Result$1$[ebp]
  00d03	48		 dec	 eax
  00d04	03 c1		 add	 eax, ecx
  00d06	89 85 b0 fa ff
	ff		 mov	 DWORD PTR _s$1$[ebp], eax
  00d0c	39 85 b4 fa ff
	ff		 cmp	 DWORD PTR __Result$1$[ebp], eax
  00d12	77 5a		 ja	 SHORT $LN587@chatGetLin
$LL588@chatGetLin:

; 211  :     {
; 212  : 		if ('0' <= *s && *s <= '9')

  00d14	8a 08		 mov	 cl, BYTE PTR [eax]
  00d16	8a c1		 mov	 al, cl
  00d18	2c 30		 sub	 al, 48			; 00000030H
  00d1a	3c 09		 cmp	 al, 9
  00d1c	77 08		 ja	 SHORT $LN590@chatGetLin

; 213  :             x += y * (*s - '0');

  00d1e	0f be c1	 movsx	 eax, cl
  00d21	83 e8 30	 sub	 eax, 48			; 00000030H
  00d24	eb 1e		 jmp	 SHORT $LN1372@chatGetLin
$LN590@chatGetLin:

; 214  :         else if ('a' <= *s && *s <= 'f')

  00d26	8a c1		 mov	 al, cl
  00d28	2c 61		 sub	 al, 97			; 00000061H
  00d2a	3c 05		 cmp	 al, 5
  00d2c	77 08		 ja	 SHORT $LN592@chatGetLin

; 215  :             x += y * (*s - 'a' + 10);

  00d2e	0f be c1	 movsx	 eax, cl
  00d31	83 e8 57	 sub	 eax, 87			; 00000057H
  00d34	eb 0e		 jmp	 SHORT $LN1372@chatGetLin
$LN592@chatGetLin:

; 216  :         else if ('A' <= *s && *s <= 'F')

  00d36	8a c1		 mov	 al, cl
  00d38	2c 41		 sub	 al, 65			; 00000041H
  00d3a	3c 05		 cmp	 al, 5
  00d3c	77 2d		 ja	 SHORT $LN594@chatGetLin

; 217  :             x += y * (10 + *s - 'A');

  00d3e	0f be c1	 movsx	 eax, cl
  00d41	83 e8 37	 sub	 eax, 55			; 00000037H
$LN1372@chatGetLin:

; 220  :         y <<= 4;

  00d44	0f af 85 ac fa
	ff ff		 imul	 eax, DWORD PTR _y$1$[ebp]
  00d4b	c1 a5 ac fa ff
	ff 04		 shl	 DWORD PTR _y$1$[ebp], 4
  00d52	03 d0		 add	 edx, eax
  00d54	8b 85 b0 fa ff
	ff		 mov	 eax, DWORD PTR _s$1$[ebp]
  00d5a	48		 dec	 eax
  00d5b	89 85 b0 fa ff
	ff		 mov	 DWORD PTR _s$1$[ebp], eax
  00d61	39 85 b4 fa ff
	ff		 cmp	 DWORD PTR __Result$1$[ebp], eax
  00d67	76 ab		 jbe	 SHORT $LL588@chatGetLin
; File C:\Program Files\Microsoft Visual Studio\2022\Community\VC\Tools\MSVC\14.44.35207\include\__msvc_string_view.hpp

; 113  :             for (size_t _Idx = 0; _Idx != _Count; ++_Idx) {

  00d69	eb 03		 jmp	 SHORT $LN587@chatGetLin
$LN594@chatGetLin:
; File C:\Anka2Project\Anka2Project\Source\Binary\source\eterBase\Utils.h

; 219  :             return -1; /* invalid input! */

  00d6b	83 ca ff	 or	 edx, -1
$LN587@chatGetLin:
; File C:\Anka2Project\Anka2Project\Source\Binary\source\UserInterface\PythonChatModule.cpp

; 509  : 			len = snprintf(itemlink, sizeof(itemlink), "petitem:%x:%x:%x:%x:%x:",

  00d6e	ff b5 a8 fa ff
	ff		 push	 DWORD PTR $T265[ebp]
  00d74	8d 85 e8 fe ff
	ff		 lea	 eax, DWORD PTR _itemlink$273[ebp]
  00d7a	ff b5 a4 fa ff
	ff		 push	 DWORD PTR $T260[ebp]
  00d80	57		 push	 edi
  00d81	56		 push	 esi
  00d82	52		 push	 edx
  00d83	68 00 00 00 00	 push	 OFFSET ??_C@_0BI@NGAOBLBO@petitem?3?$CFx?3?$CFx?3?$CFx?3?$CFx?3?$CFx?3@
  00d88	68 00 01 00 00	 push	 256			; 00000100H
  00d8d	50		 push	 eax
  00d8e	e8 00 00 00 00	 call	 __snprintf
  00d93	83 c4 20	 add	 esp, 32			; 00000020H
  00d96	89 85 54 fa ff
	ff		 mov	 DWORD PTR _len$1$[ebp], eax

; 510  : 				htoi(results[1].c_str()),
; 511  : 				htoi(results[2].c_str()),
; 512  : 				htoi(results[3].c_str()),
; 513  : 				htoi(results[4].c_str()),
; 514  : 				htoi(results[5].c_str()));
; 515  : 
; 516  : 			if (pPet)

  00d9c	83 bd 9c fa ff
	ff 00		 cmp	 DWORD PTR _pPet$257[ebp], 0
  00da3	0f 84 ce 08 00
	00		 je	 $LN17@chatGetLin
; File C:\Program Files\Microsoft Visual Studio\2022\Community\VC\Tools\MSVC\14.44.35207\include\vector

; 1934 :         return _My_data._Myfirst[_Pos];

  00da9	8b bd 90 fa ff
	ff		 mov	 edi, DWORD PTR _results$[ebp]
  00daf	81 c7 e0 01 00
	00		 add	 edi, 480		; 000001e0H
; File C:\Program Files\Microsoft Visual Studio\2022\Community\VC\Tools\MSVC\14.44.35207\include\xstring

; 453  :         return _Myres > _Small_string_capacity;

  00db5	83 7f 14 0f	 cmp	 DWORD PTR [edi+20], 15	; 0000000fH

; 445  :         if (_Large_mode_engaged()) {

  00db9	76 02		 jbe	 SHORT $LN948@chatGetLin

; 446  :             _Result = _Unfancy(_Bx._Ptr);

  00dbb	8b 3f		 mov	 edi, DWORD PTR [edi]
$LN948@chatGetLin:
; File C:\Anka2Project\Anka2Project\Source\Binary\source\eterBase\Utils.h

; 208  :     s += strlen(s);

  00dbd	8b cf		 mov	 ecx, edi
  00dbf	c7 85 88 fa ff
	ff 00 00 00 00	 mov	 DWORD PTR $T254[ebp], 0
  00dc9	ba 01 00 00 00	 mov	 edx, 1
  00dce	8d 71 01	 lea	 esi, DWORD PTR [ecx+1]
$LL1340@chatGetLin:
  00dd1	8a 01		 mov	 al, BYTE PTR [ecx]
  00dd3	41		 inc	 ecx
  00dd4	84 c0		 test	 al, al
  00dd6	75 f9		 jne	 SHORT $LL1340@chatGetLin
  00dd8	2b ce		 sub	 ecx, esi

; 209  : 
; 210  :     while (t <= --s)

  00dda	8d 71 ff	 lea	 esi, DWORD PTR [ecx-1]
  00ddd	03 f7		 add	 esi, edi
  00ddf	3b fe		 cmp	 edi, esi
  00de1	77 4d		 ja	 SHORT $LN780@chatGetLin
$LL781@chatGetLin:

; 211  :     {
; 212  : 		if ('0' <= *s && *s <= '9')

  00de3	8a 0e		 mov	 cl, BYTE PTR [esi]
  00de5	8a c1		 mov	 al, cl
  00de7	2c 30		 sub	 al, 48			; 00000030H
  00de9	3c 09		 cmp	 al, 9
  00deb	77 08		 ja	 SHORT $LN783@chatGetLin

; 213  :             x += y * (*s - '0');

  00ded	0f be c1	 movsx	 eax, cl
  00df0	83 e8 30	 sub	 eax, 48			; 00000030H
  00df3	eb 1e		 jmp	 SHORT $LN1373@chatGetLin
$LN783@chatGetLin:

; 214  :         else if ('a' <= *s && *s <= 'f')

  00df5	8a c1		 mov	 al, cl
  00df7	2c 61		 sub	 al, 97			; 00000061H
  00df9	3c 05		 cmp	 al, 5
  00dfb	77 08		 ja	 SHORT $LN785@chatGetLin

; 215  :             x += y * (*s - 'a' + 10);

  00dfd	0f be c1	 movsx	 eax, cl
  00e00	83 e8 57	 sub	 eax, 87			; 00000057H
  00e03	eb 0e		 jmp	 SHORT $LN1373@chatGetLin
$LN785@chatGetLin:

; 216  :         else if ('A' <= *s && *s <= 'F')

  00e05	8a c1		 mov	 al, cl
  00e07	2c 41		 sub	 al, 65			; 00000041H
  00e09	3c 05		 cmp	 al, 5
  00e0b	77 19		 ja	 SHORT $LN787@chatGetLin

; 217  :             x += y * (10 + *s - 'A');

  00e0d	0f be c1	 movsx	 eax, cl
  00e10	83 e8 37	 sub	 eax, 55			; 00000037H
$LN1373@chatGetLin:

; 220  :         y <<= 4;

  00e13	0f af c2	 imul	 eax, edx
  00e16	4e		 dec	 esi
  00e17	c1 e2 04	 shl	 edx, 4
  00e1a	01 85 88 fa ff
	ff		 add	 DWORD PTR $T254[ebp], eax
  00e20	3b fe		 cmp	 edi, esi
  00e22	76 bf		 jbe	 SHORT $LL781@chatGetLin
; File C:\Program Files\Microsoft Visual Studio\2022\Community\VC\Tools\MSVC\14.44.35207\include\__msvc_string_view.hpp

; 113  :             for (size_t _Idx = 0; _Idx != _Count; ++_Idx) {

  00e24	eb 0a		 jmp	 SHORT $LN780@chatGetLin
$LN787@chatGetLin:
; File C:\Anka2Project\Anka2Project\Source\Binary\source\eterBase\Utils.h

; 219  :             return -1; /* invalid input! */

  00e26	c7 85 88 fa ff
	ff ff ff ff ff	 mov	 DWORD PTR $T254[ebp], -1
$LN780@chatGetLin:
; File C:\Program Files\Microsoft Visual Studio\2022\Community\VC\Tools\MSVC\14.44.35207\include\vector

; 1934 :         return _My_data._Myfirst[_Pos];

  00e30	8b bd 90 fa ff
	ff		 mov	 edi, DWORD PTR _results$[ebp]
  00e36	81 c7 c8 01 00
	00		 add	 edi, 456		; 000001c8H
; File C:\Program Files\Microsoft Visual Studio\2022\Community\VC\Tools\MSVC\14.44.35207\include\xstring

; 453  :         return _Myres > _Small_string_capacity;

  00e3c	83 7f 14 0f	 cmp	 DWORD PTR [edi+20], 15	; 0000000fH

; 445  :         if (_Large_mode_engaged()) {

  00e40	76 02		 jbe	 SHORT $LN610@chatGetLin

; 446  :             _Result = _Unfancy(_Bx._Ptr);

  00e42	8b 3f		 mov	 edi, DWORD PTR [edi]
$LN610@chatGetLin:
; File C:\Anka2Project\Anka2Project\Source\Binary\source\eterBase\Utils.h

; 208  :     s += strlen(s);

  00e44	8b cf		 mov	 ecx, edi
  00e46	c7 85 84 fa ff
	ff 00 00 00 00	 mov	 DWORD PTR $T253[ebp], 0
  00e50	ba 01 00 00 00	 mov	 edx, 1
  00e55	8d 71 01	 lea	 esi, DWORD PTR [ecx+1]
$LL1341@chatGetLin:
  00e58	8a 01		 mov	 al, BYTE PTR [ecx]
  00e5a	41		 inc	 ecx
  00e5b	84 c0		 test	 al, al
  00e5d	75 f9		 jne	 SHORT $LL1341@chatGetLin
  00e5f	2b ce		 sub	 ecx, esi

; 209  : 
; 210  :     while (t <= --s)

  00e61	8d 71 ff	 lea	 esi, DWORD PTR [ecx-1]
  00e64	03 f7		 add	 esi, edi
  00e66	3b fe		 cmp	 edi, esi
  00e68	77 53		 ja	 SHORT $LN616@chatGetLin
  00e6a	66 0f 1f 44 00
	00		 npad	 6
$LL617@chatGetLin:

; 211  :     {
; 212  : 		if ('0' <= *s && *s <= '9')

  00e70	8a 0e		 mov	 cl, BYTE PTR [esi]
  00e72	8a c1		 mov	 al, cl
  00e74	2c 30		 sub	 al, 48			; 00000030H
  00e76	3c 09		 cmp	 al, 9
  00e78	77 08		 ja	 SHORT $LN619@chatGetLin

; 213  :             x += y * (*s - '0');

  00e7a	0f be c1	 movsx	 eax, cl
  00e7d	83 e8 30	 sub	 eax, 48			; 00000030H
  00e80	eb 1e		 jmp	 SHORT $LN1374@chatGetLin
$LN619@chatGetLin:

; 214  :         else if ('a' <= *s && *s <= 'f')

  00e82	8a c1		 mov	 al, cl
  00e84	2c 61		 sub	 al, 97			; 00000061H
  00e86	3c 05		 cmp	 al, 5
  00e88	77 08		 ja	 SHORT $LN621@chatGetLin

; 215  :             x += y * (*s - 'a' + 10);

  00e8a	0f be c1	 movsx	 eax, cl
  00e8d	83 e8 57	 sub	 eax, 87			; 00000057H
  00e90	eb 0e		 jmp	 SHORT $LN1374@chatGetLin
$LN621@chatGetLin:

; 216  :         else if ('A' <= *s && *s <= 'F')

  00e92	8a c1		 mov	 al, cl
  00e94	2c 41		 sub	 al, 65			; 00000041H
  00e96	3c 05		 cmp	 al, 5
  00e98	77 19		 ja	 SHORT $LN623@chatGetLin

; 217  :             x += y * (10 + *s - 'A');

  00e9a	0f be c1	 movsx	 eax, cl
  00e9d	83 e8 37	 sub	 eax, 55			; 00000037H
$LN1374@chatGetLin:

; 220  :         y <<= 4;

  00ea0	0f af c2	 imul	 eax, edx
  00ea3	4e		 dec	 esi
  00ea4	c1 e2 04	 shl	 edx, 4
  00ea7	01 85 84 fa ff
	ff		 add	 DWORD PTR $T253[ebp], eax
  00ead	3b fe		 cmp	 edi, esi
  00eaf	76 bf		 jbe	 SHORT $LL617@chatGetLin
; File C:\Program Files\Microsoft Visual Studio\2022\Community\VC\Tools\MSVC\14.44.35207\include\__msvc_string_view.hpp

; 113  :             for (size_t _Idx = 0; _Idx != _Count; ++_Idx) {

  00eb1	eb 0a		 jmp	 SHORT $LN616@chatGetLin
$LN623@chatGetLin:
; File C:\Anka2Project\Anka2Project\Source\Binary\source\eterBase\Utils.h

; 219  :             return -1; /* invalid input! */

  00eb3	c7 85 84 fa ff
	ff ff ff ff ff	 mov	 DWORD PTR $T253[ebp], -1
$LN616@chatGetLin:
; File C:\Program Files\Microsoft Visual Studio\2022\Community\VC\Tools\MSVC\14.44.35207\include\vector

; 1934 :         return _My_data._Myfirst[_Pos];

  00ebd	8b bd 90 fa ff
	ff		 mov	 edi, DWORD PTR _results$[ebp]
  00ec3	81 c7 b0 01 00
	00		 add	 edi, 432		; 000001b0H
; File C:\Program Files\Microsoft Visual Studio\2022\Community\VC\Tools\MSVC\14.44.35207\include\xstring

; 453  :         return _Myres > _Small_string_capacity;

  00ec9	83 7f 14 0f	 cmp	 DWORD PTR [edi+20], 15	; 0000000fH

; 445  :         if (_Large_mode_engaged()) {

  00ecd	76 02		 jbe	 SHORT $LN633@chatGetLin

; 446  :             _Result = _Unfancy(_Bx._Ptr);

  00ecf	8b 3f		 mov	 edi, DWORD PTR [edi]
$LN633@chatGetLin:
; File C:\Anka2Project\Anka2Project\Source\Binary\source\eterBase\Utils.h

; 208  :     s += strlen(s);

  00ed1	8b cf		 mov	 ecx, edi
  00ed3	c7 85 80 fa ff
	ff 00 00 00 00	 mov	 DWORD PTR $T252[ebp], 0
  00edd	ba 01 00 00 00	 mov	 edx, 1
  00ee2	8d 71 01	 lea	 esi, DWORD PTR [ecx+1]
$LL1342@chatGetLin:
  00ee5	8a 01		 mov	 al, BYTE PTR [ecx]
  00ee7	41		 inc	 ecx
  00ee8	84 c0		 test	 al, al
  00eea	75 f9		 jne	 SHORT $LL1342@chatGetLin
  00eec	2b ce		 sub	 ecx, esi

; 209  : 
; 210  :     while (t <= --s)

  00eee	8d 71 ff	 lea	 esi, DWORD PTR [ecx-1]
  00ef1	03 f7		 add	 esi, edi
  00ef3	3b fe		 cmp	 edi, esi
  00ef5	77 4d		 ja	 SHORT $LN639@chatGetLin
$LL640@chatGetLin:

; 211  :     {
; 212  : 		if ('0' <= *s && *s <= '9')

  00ef7	8a 0e		 mov	 cl, BYTE PTR [esi]
  00ef9	8a c1		 mov	 al, cl
  00efb	2c 30		 sub	 al, 48			; 00000030H
  00efd	3c 09		 cmp	 al, 9
  00eff	77 08		 ja	 SHORT $LN642@chatGetLin

; 213  :             x += y * (*s - '0');

  00f01	0f be c1	 movsx	 eax, cl
  00f04	83 e8 30	 sub	 eax, 48			; 00000030H
  00f07	eb 1e		 jmp	 SHORT $LN1375@chatGetLin
$LN642@chatGetLin:

; 214  :         else if ('a' <= *s && *s <= 'f')

  00f09	8a c1		 mov	 al, cl
  00f0b	2c 61		 sub	 al, 97			; 00000061H
  00f0d	3c 05		 cmp	 al, 5
  00f0f	77 08		 ja	 SHORT $LN644@chatGetLin

; 215  :             x += y * (*s - 'a' + 10);

  00f11	0f be c1	 movsx	 eax, cl
  00f14	83 e8 57	 sub	 eax, 87			; 00000057H
  00f17	eb 0e		 jmp	 SHORT $LN1375@chatGetLin
$LN644@chatGetLin:

; 216  :         else if ('A' <= *s && *s <= 'F')

  00f19	8a c1		 mov	 al, cl
  00f1b	2c 41		 sub	 al, 65			; 00000041H
  00f1d	3c 05		 cmp	 al, 5
  00f1f	77 19		 ja	 SHORT $LN646@chatGetLin

; 217  :             x += y * (10 + *s - 'A');

  00f21	0f be c1	 movsx	 eax, cl
  00f24	83 e8 37	 sub	 eax, 55			; 00000037H
$LN1375@chatGetLin:

; 220  :         y <<= 4;

  00f27	0f af c2	 imul	 eax, edx
  00f2a	4e		 dec	 esi
  00f2b	c1 e2 04	 shl	 edx, 4
  00f2e	01 85 80 fa ff
	ff		 add	 DWORD PTR $T252[ebp], eax
  00f34	3b fe		 cmp	 edi, esi
  00f36	76 bf		 jbe	 SHORT $LL640@chatGetLin
; File C:\Program Files\Microsoft Visual Studio\2022\Community\VC\Tools\MSVC\14.44.35207\include\__msvc_string_view.hpp

; 113  :             for (size_t _Idx = 0; _Idx != _Count; ++_Idx) {

  00f38	eb 0a		 jmp	 SHORT $LN639@chatGetLin
$LN646@chatGetLin:
; File C:\Anka2Project\Anka2Project\Source\Binary\source\eterBase\Utils.h

; 219  :             return -1; /* invalid input! */

  00f3a	c7 85 80 fa ff
	ff ff ff ff ff	 mov	 DWORD PTR $T252[ebp], -1
$LN639@chatGetLin:
; File C:\Program Files\Microsoft Visual Studio\2022\Community\VC\Tools\MSVC\14.44.35207\include\vector

; 1934 :         return _My_data._Myfirst[_Pos];

  00f44	8b bd 90 fa ff
	ff		 mov	 edi, DWORD PTR _results$[ebp]
  00f4a	81 c7 98 01 00
	00		 add	 edi, 408		; 00000198H
; File C:\Program Files\Microsoft Visual Studio\2022\Community\VC\Tools\MSVC\14.44.35207\include\xstring

; 453  :         return _Myres > _Small_string_capacity;

  00f50	83 7f 14 0f	 cmp	 DWORD PTR [edi+20], 15	; 0000000fH

; 445  :         if (_Large_mode_engaged()) {

  00f54	76 02		 jbe	 SHORT $LN656@chatGetLin

; 446  :             _Result = _Unfancy(_Bx._Ptr);

  00f56	8b 3f		 mov	 edi, DWORD PTR [edi]
$LN656@chatGetLin:
; File C:\Anka2Project\Anka2Project\Source\Binary\source\eterBase\Utils.h

; 208  :     s += strlen(s);

  00f58	8b cf		 mov	 ecx, edi
  00f5a	c7 85 7c fa ff
	ff 00 00 00 00	 mov	 DWORD PTR $T251[ebp], 0
  00f64	ba 01 00 00 00	 mov	 edx, 1
  00f69	8d 71 01	 lea	 esi, DWORD PTR [ecx+1]
  00f6c	0f 1f 40 00	 npad	 4
$LL1343@chatGetLin:
  00f70	8a 01		 mov	 al, BYTE PTR [ecx]
  00f72	41		 inc	 ecx
  00f73	84 c0		 test	 al, al
  00f75	75 f9		 jne	 SHORT $LL1343@chatGetLin
  00f77	2b ce		 sub	 ecx, esi

; 209  : 
; 210  :     while (t <= --s)

  00f79	8d 71 ff	 lea	 esi, DWORD PTR [ecx-1]
  00f7c	03 f7		 add	 esi, edi
  00f7e	3b fe		 cmp	 edi, esi
  00f80	77 4d		 ja	 SHORT $LN662@chatGetLin
$LL663@chatGetLin:

; 211  :     {
; 212  : 		if ('0' <= *s && *s <= '9')

  00f82	8a 0e		 mov	 cl, BYTE PTR [esi]
  00f84	8a c1		 mov	 al, cl
  00f86	2c 30		 sub	 al, 48			; 00000030H
  00f88	3c 09		 cmp	 al, 9
  00f8a	77 08		 ja	 SHORT $LN665@chatGetLin

; 213  :             x += y * (*s - '0');

  00f8c	0f be c1	 movsx	 eax, cl
  00f8f	83 e8 30	 sub	 eax, 48			; 00000030H
  00f92	eb 1e		 jmp	 SHORT $LN1376@chatGetLin
$LN665@chatGetLin:

; 214  :         else if ('a' <= *s && *s <= 'f')

  00f94	8a c1		 mov	 al, cl
  00f96	2c 61		 sub	 al, 97			; 00000061H
  00f98	3c 05		 cmp	 al, 5
  00f9a	77 08		 ja	 SHORT $LN667@chatGetLin

; 215  :             x += y * (*s - 'a' + 10);

  00f9c	0f be c1	 movsx	 eax, cl
  00f9f	83 e8 57	 sub	 eax, 87			; 00000057H
  00fa2	eb 0e		 jmp	 SHORT $LN1376@chatGetLin
$LN667@chatGetLin:

; 216  :         else if ('A' <= *s && *s <= 'F')

  00fa4	8a c1		 mov	 al, cl
  00fa6	2c 41		 sub	 al, 65			; 00000041H
  00fa8	3c 05		 cmp	 al, 5
  00faa	77 19		 ja	 SHORT $LN669@chatGetLin

; 217  :             x += y * (10 + *s - 'A');

  00fac	0f be c1	 movsx	 eax, cl
  00faf	83 e8 37	 sub	 eax, 55			; 00000037H
$LN1376@chatGetLin:

; 220  :         y <<= 4;

  00fb2	0f af c2	 imul	 eax, edx
  00fb5	4e		 dec	 esi
  00fb6	c1 e2 04	 shl	 edx, 4
  00fb9	01 85 7c fa ff
	ff		 add	 DWORD PTR $T251[ebp], eax
  00fbf	3b fe		 cmp	 edi, esi
  00fc1	76 bf		 jbe	 SHORT $LL663@chatGetLin
; File C:\Program Files\Microsoft Visual Studio\2022\Community\VC\Tools\MSVC\14.44.35207\include\__msvc_string_view.hpp

; 113  :             for (size_t _Idx = 0; _Idx != _Count; ++_Idx) {

  00fc3	eb 0a		 jmp	 SHORT $LN662@chatGetLin
$LN669@chatGetLin:
; File C:\Anka2Project\Anka2Project\Source\Binary\source\eterBase\Utils.h

; 219  :             return -1; /* invalid input! */

  00fc5	c7 85 7c fa ff
	ff ff ff ff ff	 mov	 DWORD PTR $T251[ebp], -1
$LN662@chatGetLin:
; File C:\Program Files\Microsoft Visual Studio\2022\Community\VC\Tools\MSVC\14.44.35207\include\vector

; 1934 :         return _My_data._Myfirst[_Pos];

  00fcf	8b bd 90 fa ff
	ff		 mov	 edi, DWORD PTR _results$[ebp]
  00fd5	81 c7 80 01 00
	00		 add	 edi, 384		; 00000180H
; File C:\Program Files\Microsoft Visual Studio\2022\Community\VC\Tools\MSVC\14.44.35207\include\xstring

; 453  :         return _Myres > _Small_string_capacity;

  00fdb	83 7f 14 0f	 cmp	 DWORD PTR [edi+20], 15	; 0000000fH

; 445  :         if (_Large_mode_engaged()) {

  00fdf	76 02		 jbe	 SHORT $LN679@chatGetLin

; 446  :             _Result = _Unfancy(_Bx._Ptr);

  00fe1	8b 3f		 mov	 edi, DWORD PTR [edi]
$LN679@chatGetLin:
; File C:\Anka2Project\Anka2Project\Source\Binary\source\eterBase\Utils.h

; 208  :     s += strlen(s);

  00fe3	8b cf		 mov	 ecx, edi
  00fe5	c7 85 78 fa ff
	ff 00 00 00 00	 mov	 DWORD PTR $T250[ebp], 0
  00fef	ba 01 00 00 00	 mov	 edx, 1
  00ff4	8d 71 01	 lea	 esi, DWORD PTR [ecx+1]
$LL1344@chatGetLin:
  00ff7	8a 01		 mov	 al, BYTE PTR [ecx]
  00ff9	41		 inc	 ecx
  00ffa	84 c0		 test	 al, al
  00ffc	75 f9		 jne	 SHORT $LL1344@chatGetLin
  00ffe	2b ce		 sub	 ecx, esi

; 209  : 
; 210  :     while (t <= --s)

  01000	8d 71 ff	 lea	 esi, DWORD PTR [ecx-1]
  01003	03 f7		 add	 esi, edi
  01005	3b fe		 cmp	 edi, esi
  01007	77 54		 ja	 SHORT $LN685@chatGetLin
  01009	0f 1f 80 00 00
	00 00		 npad	 7
$LL686@chatGetLin:

; 211  :     {
; 212  : 		if ('0' <= *s && *s <= '9')

  01010	8a 0e		 mov	 cl, BYTE PTR [esi]
  01012	8a c1		 mov	 al, cl
  01014	2c 30		 sub	 al, 48			; 00000030H
  01016	3c 09		 cmp	 al, 9
  01018	77 08		 ja	 SHORT $LN688@chatGetLin

; 213  :             x += y * (*s - '0');

  0101a	0f be c1	 movsx	 eax, cl
  0101d	83 e8 30	 sub	 eax, 48			; 00000030H
  01020	eb 1e		 jmp	 SHORT $LN1377@chatGetLin
$LN688@chatGetLin:

; 214  :         else if ('a' <= *s && *s <= 'f')

  01022	8a c1		 mov	 al, cl
  01024	2c 61		 sub	 al, 97			; 00000061H
  01026	3c 05		 cmp	 al, 5
  01028	77 08		 ja	 SHORT $LN690@chatGetLin

; 215  :             x += y * (*s - 'a' + 10);

  0102a	0f be c1	 movsx	 eax, cl
  0102d	83 e8 57	 sub	 eax, 87			; 00000057H
  01030	eb 0e		 jmp	 SHORT $LN1377@chatGetLin
$LN690@chatGetLin:

; 216  :         else if ('A' <= *s && *s <= 'F')

  01032	8a c1		 mov	 al, cl
  01034	2c 41		 sub	 al, 65			; 00000041H
  01036	3c 05		 cmp	 al, 5
  01038	77 19		 ja	 SHORT $LN692@chatGetLin

; 217  :             x += y * (10 + *s - 'A');

  0103a	0f be c1	 movsx	 eax, cl
  0103d	83 e8 37	 sub	 eax, 55			; 00000037H
$LN1377@chatGetLin:

; 220  :         y <<= 4;

  01040	0f af c2	 imul	 eax, edx
  01043	4e		 dec	 esi
  01044	c1 e2 04	 shl	 edx, 4
  01047	01 85 78 fa ff
	ff		 add	 DWORD PTR $T250[ebp], eax
  0104d	3b fe		 cmp	 edi, esi
  0104f	76 bf		 jbe	 SHORT $LL686@chatGetLin
; File C:\Program Files\Microsoft Visual Studio\2022\Community\VC\Tools\MSVC\14.44.35207\include\__msvc_string_view.hpp

; 113  :             for (size_t _Idx = 0; _Idx != _Count; ++_Idx) {

  01051	eb 0a		 jmp	 SHORT $LN685@chatGetLin
$LN692@chatGetLin:
; File C:\Anka2Project\Anka2Project\Source\Binary\source\eterBase\Utils.h

; 219  :             return -1; /* invalid input! */

  01053	c7 85 78 fa ff
	ff ff ff ff ff	 mov	 DWORD PTR $T250[ebp], -1
$LN685@chatGetLin:
; File C:\Program Files\Microsoft Visual Studio\2022\Community\VC\Tools\MSVC\14.44.35207\include\vector

; 1934 :         return _My_data._Myfirst[_Pos];

  0105d	8b bd 90 fa ff
	ff		 mov	 edi, DWORD PTR _results$[ebp]
  01063	81 c7 68 01 00
	00		 add	 edi, 360		; 00000168H
; File C:\Program Files\Microsoft Visual Studio\2022\Community\VC\Tools\MSVC\14.44.35207\include\xstring

; 453  :         return _Myres > _Small_string_capacity;

  01069	83 7f 14 0f	 cmp	 DWORD PTR [edi+20], 15	; 0000000fH

; 445  :         if (_Large_mode_engaged()) {

  0106d	76 02		 jbe	 SHORT $LN1322@chatGetLin

; 446  :             _Result = _Unfancy(_Bx._Ptr);

  0106f	8b 3f		 mov	 edi, DWORD PTR [edi]
$LN1322@chatGetLin:
; File C:\Anka2Project\Anka2Project\Source\Binary\source\eterBase\Utils.h

; 208  :     s += strlen(s);

  01071	8b cf		 mov	 ecx, edi
  01073	c7 85 74 fa ff
	ff 00 00 00 00	 mov	 DWORD PTR $T249[ebp], 0
  0107d	ba 01 00 00 00	 mov	 edx, 1
  01082	8d 71 01	 lea	 esi, DWORD PTR [ecx+1]
$LL1345@chatGetLin:
  01085	8a 01		 mov	 al, BYTE PTR [ecx]
  01087	41		 inc	 ecx
  01088	84 c0		 test	 al, al
  0108a	75 f9		 jne	 SHORT $LL1345@chatGetLin
  0108c	2b ce		 sub	 ecx, esi

; 209  : 
; 210  :     while (t <= --s)

  0108e	8d 71 ff	 lea	 esi, DWORD PTR [ecx-1]
  01091	03 f7		 add	 esi, edi
  01093	3b fe		 cmp	 edi, esi
  01095	77 4d		 ja	 SHORT $LN708@chatGetLin
$LL709@chatGetLin:

; 211  :     {
; 212  : 		if ('0' <= *s && *s <= '9')

  01097	8a 0e		 mov	 cl, BYTE PTR [esi]
  01099	8a c1		 mov	 al, cl
  0109b	2c 30		 sub	 al, 48			; 00000030H
  0109d	3c 09		 cmp	 al, 9
  0109f	77 08		 ja	 SHORT $LN711@chatGetLin

; 213  :             x += y * (*s - '0');

  010a1	0f be c1	 movsx	 eax, cl
  010a4	83 e8 30	 sub	 eax, 48			; 00000030H
  010a7	eb 1e		 jmp	 SHORT $LN1378@chatGetLin
$LN711@chatGetLin:

; 214  :         else if ('a' <= *s && *s <= 'f')

  010a9	8a c1		 mov	 al, cl
  010ab	2c 61		 sub	 al, 97			; 00000061H
  010ad	3c 05		 cmp	 al, 5
  010af	77 08		 ja	 SHORT $LN713@chatGetLin

; 215  :             x += y * (*s - 'a' + 10);

  010b1	0f be c1	 movsx	 eax, cl
  010b4	83 e8 57	 sub	 eax, 87			; 00000057H
  010b7	eb 0e		 jmp	 SHORT $LN1378@chatGetLin
$LN713@chatGetLin:

; 216  :         else if ('A' <= *s && *s <= 'F')

  010b9	8a c1		 mov	 al, cl
  010bb	2c 41		 sub	 al, 65			; 00000041H
  010bd	3c 05		 cmp	 al, 5
  010bf	77 19		 ja	 SHORT $LN715@chatGetLin

; 217  :             x += y * (10 + *s - 'A');

  010c1	0f be c1	 movsx	 eax, cl
  010c4	83 e8 37	 sub	 eax, 55			; 00000037H
$LN1378@chatGetLin:

; 220  :         y <<= 4;

  010c7	0f af c2	 imul	 eax, edx
  010ca	4e		 dec	 esi
  010cb	c1 e2 04	 shl	 edx, 4
  010ce	01 85 74 fa ff
	ff		 add	 DWORD PTR $T249[ebp], eax
  010d4	3b fe		 cmp	 edi, esi
  010d6	76 bf		 jbe	 SHORT $LL709@chatGetLin
; File C:\Program Files\Microsoft Visual Studio\2022\Community\VC\Tools\MSVC\14.44.35207\include\__msvc_string_view.hpp

; 113  :             for (size_t _Idx = 0; _Idx != _Count; ++_Idx) {

  010d8	eb 0a		 jmp	 SHORT $LN708@chatGetLin
$LN715@chatGetLin:
; File C:\Anka2Project\Anka2Project\Source\Binary\source\eterBase\Utils.h

; 219  :             return -1; /* invalid input! */

  010da	c7 85 74 fa ff
	ff ff ff ff ff	 mov	 DWORD PTR $T249[ebp], -1
$LN708@chatGetLin:
; File C:\Anka2Project\Anka2Project\Source\Binary\source\UserInterface\PythonChatModule.cpp

; 518  : 				len += snprintf(itemlink + len, sizeof(itemlink) - len, "%x:%x:%x:%x:%x:%x:%x:%x:%x:%x:%s:%x:%x:%x:%x:%x:%x",

  010e4	8b 85 90 fa ff
	ff		 mov	 eax, DWORD PTR _results$[ebp]
; File C:\Program Files\Microsoft Visual Studio\2022\Community\VC\Tools\MSVC\14.44.35207\include\xstring

; 453  :         return _Myres > _Small_string_capacity;

  010ea	83 b8 7c 01 00
	00 0f		 cmp	 DWORD PTR [eax+380], 15	; 0000000fH
; File C:\Program Files\Microsoft Visual Studio\2022\Community\VC\Tools\MSVC\14.44.35207\include\vector

; 1934 :         return _My_data._Myfirst[_Pos];

  010f1	8d b8 68 01 00
	00		 lea	 edi, DWORD PTR [eax+360]
; File C:\Anka2Project\Anka2Project\Source\Binary\source\UserInterface\PythonChatModule.cpp

; 518  : 				len += snprintf(itemlink + len, sizeof(itemlink) - len, "%x:%x:%x:%x:%x:%x:%x:%x:%x:%x:%s:%x:%x:%x:%x:%x:%x",

  010f7	0f 10 80 80 01
	00 00		 movups	 xmm0, XMMWORD PTR [eax+384]
  010fe	0f 11 85 d8 fa
	ff ff		 movups	 XMMWORD PTR $T268[ebp], xmm0
  01105	f3 0f 7e 80 90
	01 00 00	 movq	 xmm0, QWORD PTR [eax+400]
  0110d	66 0f d6 85 48
	fa ff ff	 movq	 QWORD PTR $T247[ebp], xmm0
; File C:\Program Files\Microsoft Visual Studio\2022\Community\VC\Tools\MSVC\14.44.35207\include\xstring

; 445  :         if (_Large_mode_engaged()) {

  01115	76 02		 jbe	 SHORT $LN728@chatGetLin

; 446  :             _Result = _Unfancy(_Bx._Ptr);

  01117	8b 3f		 mov	 edi, DWORD PTR [edi]
$LN728@chatGetLin:
; File C:\Anka2Project\Anka2Project\Source\Binary\source\eterBase\Utils.h

; 208  :     s += strlen(s);

  01119	8b cf		 mov	 ecx, edi
  0111b	c7 85 70 fa ff
	ff 00 00 00 00	 mov	 DWORD PTR $T248[ebp], 0
  01125	ba 01 00 00 00	 mov	 edx, 1
  0112a	8d 71 01	 lea	 esi, DWORD PTR [ecx+1]
  0112d	0f 1f 00	 npad	 3
$LL1346@chatGetLin:
  01130	8a 01		 mov	 al, BYTE PTR [ecx]
  01132	41		 inc	 ecx
  01133	84 c0		 test	 al, al
  01135	75 f9		 jne	 SHORT $LL1346@chatGetLin
  01137	2b ce		 sub	 ecx, esi

; 209  : 
; 210  :     while (t <= --s)

  01139	8d 71 ff	 lea	 esi, DWORD PTR [ecx-1]
  0113c	03 f7		 add	 esi, edi
  0113e	3b fe		 cmp	 edi, esi
  01140	77 4d		 ja	 SHORT $LN734@chatGetLin
$LL735@chatGetLin:

; 211  :     {
; 212  : 		if ('0' <= *s && *s <= '9')

  01142	8a 0e		 mov	 cl, BYTE PTR [esi]
  01144	8a c1		 mov	 al, cl
  01146	2c 30		 sub	 al, 48			; 00000030H
  01148	3c 09		 cmp	 al, 9
  0114a	77 08		 ja	 SHORT $LN737@chatGetLin

; 213  :             x += y * (*s - '0');

  0114c	0f be c1	 movsx	 eax, cl
  0114f	83 e8 30	 sub	 eax, 48			; 00000030H
  01152	eb 1e		 jmp	 SHORT $LN1379@chatGetLin
$LN737@chatGetLin:

; 214  :         else if ('a' <= *s && *s <= 'f')

  01154	8a c1		 mov	 al, cl
  01156	2c 61		 sub	 al, 97			; 00000061H
  01158	3c 05		 cmp	 al, 5
  0115a	77 08		 ja	 SHORT $LN739@chatGetLin

; 215  :             x += y * (*s - 'a' + 10);

  0115c	0f be c1	 movsx	 eax, cl
  0115f	83 e8 57	 sub	 eax, 87			; 00000057H
  01162	eb 0e		 jmp	 SHORT $LN1379@chatGetLin
$LN739@chatGetLin:

; 216  :         else if ('A' <= *s && *s <= 'F')

  01164	8a c1		 mov	 al, cl
  01166	2c 41		 sub	 al, 65			; 00000041H
  01168	3c 05		 cmp	 al, 5
  0116a	77 19		 ja	 SHORT $LN741@chatGetLin

; 217  :             x += y * (10 + *s - 'A');

  0116c	0f be c1	 movsx	 eax, cl
  0116f	83 e8 37	 sub	 eax, 55			; 00000037H
$LN1379@chatGetLin:

; 220  :         y <<= 4;

  01172	0f af c2	 imul	 eax, edx
  01175	4e		 dec	 esi
  01176	c1 e2 04	 shl	 edx, 4
  01179	01 85 70 fa ff
	ff		 add	 DWORD PTR $T248[ebp], eax
  0117f	3b fe		 cmp	 edi, esi
  01181	76 bf		 jbe	 SHORT $LL735@chatGetLin
; File C:\Program Files\Microsoft Visual Studio\2022\Community\VC\Tools\MSVC\14.44.35207\include\__msvc_string_view.hpp

; 113  :             for (size_t _Idx = 0; _Idx != _Count; ++_Idx) {

  01183	eb 0a		 jmp	 SHORT $LN734@chatGetLin
$LN741@chatGetLin:
; File C:\Anka2Project\Anka2Project\Source\Binary\source\eterBase\Utils.h

; 219  :             return -1; /* invalid input! */

  01185	c7 85 70 fa ff
	ff ff ff ff ff	 mov	 DWORD PTR $T248[ebp], -1
$LN734@chatGetLin:
; File C:\Program Files\Microsoft Visual Studio\2022\Community\VC\Tools\MSVC\14.44.35207\include\vector

; 1934 :         return _My_data._Myfirst[_Pos];

  0118f	8b bd 90 fa ff
	ff		 mov	 edi, DWORD PTR _results$[ebp]
  01195	81 c7 50 01 00
	00		 add	 edi, 336		; 00000150H
; File C:\Program Files\Microsoft Visual Studio\2022\Community\VC\Tools\MSVC\14.44.35207\include\xstring

; 453  :         return _Myres > _Small_string_capacity;

  0119b	83 7f 14 0f	 cmp	 DWORD PTR [edi+20], 15	; 0000000fH

; 445  :         if (_Large_mode_engaged()) {

  0119f	76 02		 jbe	 SHORT $LN751@chatGetLin

; 446  :             _Result = _Unfancy(_Bx._Ptr);

  011a1	8b 3f		 mov	 edi, DWORD PTR [edi]
$LN751@chatGetLin:
; File C:\Anka2Project\Anka2Project\Source\Binary\source\eterBase\Utils.h

; 208  :     s += strlen(s);

  011a3	8b cf		 mov	 ecx, edi
  011a5	c7 85 8c fa ff
	ff 00 00 00 00	 mov	 DWORD PTR $T255[ebp], 0
  011af	ba 01 00 00 00	 mov	 edx, 1
  011b4	8d 71 01	 lea	 esi, DWORD PTR [ecx+1]
$LL1347@chatGetLin:
  011b7	8a 01		 mov	 al, BYTE PTR [ecx]
  011b9	41		 inc	 ecx
  011ba	84 c0		 test	 al, al
  011bc	75 f9		 jne	 SHORT $LL1347@chatGetLin
  011be	2b ce		 sub	 ecx, esi

; 209  : 
; 210  :     while (t <= --s)

  011c0	8d 71 ff	 lea	 esi, DWORD PTR [ecx-1]
  011c3	03 f7		 add	 esi, edi
  011c5	3b fe		 cmp	 edi, esi
  011c7	77 54		 ja	 SHORT $LN757@chatGetLin
  011c9	0f 1f 80 00 00
	00 00		 npad	 7
$LL758@chatGetLin:

; 211  :     {
; 212  : 		if ('0' <= *s && *s <= '9')

  011d0	8a 0e		 mov	 cl, BYTE PTR [esi]
  011d2	8a c1		 mov	 al, cl
  011d4	2c 30		 sub	 al, 48			; 00000030H
  011d6	3c 09		 cmp	 al, 9
  011d8	77 08		 ja	 SHORT $LN760@chatGetLin

; 213  :             x += y * (*s - '0');

  011da	0f be c1	 movsx	 eax, cl
  011dd	83 e8 30	 sub	 eax, 48			; 00000030H
  011e0	eb 1e		 jmp	 SHORT $LN1380@chatGetLin
$LN760@chatGetLin:

; 214  :         else if ('a' <= *s && *s <= 'f')

  011e2	8a c1		 mov	 al, cl
  011e4	2c 61		 sub	 al, 97			; 00000061H
  011e6	3c 05		 cmp	 al, 5
  011e8	77 08		 ja	 SHORT $LN762@chatGetLin

; 215  :             x += y * (*s - 'a' + 10);

  011ea	0f be c1	 movsx	 eax, cl
  011ed	83 e8 57	 sub	 eax, 87			; 00000057H
  011f0	eb 0e		 jmp	 SHORT $LN1380@chatGetLin
$LN762@chatGetLin:

; 216  :         else if ('A' <= *s && *s <= 'F')

  011f2	8a c1		 mov	 al, cl
  011f4	2c 41		 sub	 al, 65			; 00000041H
  011f6	3c 05		 cmp	 al, 5
  011f8	77 19		 ja	 SHORT $LN764@chatGetLin

; 217  :             x += y * (10 + *s - 'A');

  011fa	0f be c1	 movsx	 eax, cl
  011fd	83 e8 37	 sub	 eax, 55			; 00000037H
$LN1380@chatGetLin:

; 220  :         y <<= 4;

  01200	0f af c2	 imul	 eax, edx
  01203	4e		 dec	 esi
  01204	c1 e2 04	 shl	 edx, 4
  01207	01 85 8c fa ff
	ff		 add	 DWORD PTR $T255[ebp], eax
  0120d	3b fe		 cmp	 edi, esi
  0120f	76 bf		 jbe	 SHORT $LL758@chatGetLin
; File C:\Program Files\Microsoft Visual Studio\2022\Community\VC\Tools\MSVC\14.44.35207\include\__msvc_string_view.hpp

; 113  :             for (size_t _Idx = 0; _Idx != _Count; ++_Idx) {

  01211	eb 0a		 jmp	 SHORT $LN757@chatGetLin
$LN764@chatGetLin:
; File C:\Anka2Project\Anka2Project\Source\Binary\source\eterBase\Utils.h

; 219  :             return -1; /* invalid input! */

  01213	c7 85 8c fa ff
	ff ff ff ff ff	 mov	 DWORD PTR $T255[ebp], -1
$LN757@chatGetLin:
; File C:\Program Files\Microsoft Visual Studio\2022\Community\VC\Tools\MSVC\14.44.35207\include\vector

; 1934 :         return _My_data._Myfirst[_Pos];

  0121d	8b bd 90 fa ff
	ff		 mov	 edi, DWORD PTR _results$[ebp]
  01223	81 c7 38 01 00
	00		 add	 edi, 312		; 00000138H
; File C:\Program Files\Microsoft Visual Studio\2022\Community\VC\Tools\MSVC\14.44.35207\include\xstring

; 453  :         return _Myres > _Small_string_capacity;

  01229	83 7f 14 0f	 cmp	 DWORD PTR [edi+20], 15	; 0000000fH

; 445  :         if (_Large_mode_engaged()) {

  0122d	76 02		 jbe	 SHORT $LN774@chatGetLin

; 446  :             _Result = _Unfancy(_Bx._Ptr);

  0122f	8b 3f		 mov	 edi, DWORD PTR [edi]
$LN774@chatGetLin:
; File C:\Anka2Project\Anka2Project\Source\Binary\source\eterBase\Utils.h

; 208  :     s += strlen(s);

  01231	8b cf		 mov	 ecx, edi
  01233	c7 85 9c fa ff
	ff 00 00 00 00	 mov	 DWORD PTR $T258[ebp], 0
  0123d	ba 01 00 00 00	 mov	 edx, 1
  01242	8d 71 01	 lea	 esi, DWORD PTR [ecx+1]
$LL1348@chatGetLin:
  01245	8a 01		 mov	 al, BYTE PTR [ecx]
  01247	41		 inc	 ecx
  01248	84 c0		 test	 al, al
  0124a	75 f9		 jne	 SHORT $LL1348@chatGetLin
  0124c	2b ce		 sub	 ecx, esi

; 209  : 
; 210  :     while (t <= --s)

  0124e	8d 71 ff	 lea	 esi, DWORD PTR [ecx-1]
  01251	03 f7		 add	 esi, edi
  01253	3b fe		 cmp	 edi, esi
  01255	77 4d		 ja	 SHORT $LN898@chatGetLin
$LL899@chatGetLin:

; 211  :     {
; 212  : 		if ('0' <= *s && *s <= '9')

  01257	8a 0e		 mov	 cl, BYTE PTR [esi]
  01259	8a c1		 mov	 al, cl
  0125b	2c 30		 sub	 al, 48			; 00000030H
  0125d	3c 09		 cmp	 al, 9
  0125f	77 08		 ja	 SHORT $LN901@chatGetLin

; 213  :             x += y * (*s - '0');

  01261	0f be c1	 movsx	 eax, cl
  01264	83 e8 30	 sub	 eax, 48			; 00000030H
  01267	eb 1e		 jmp	 SHORT $LN1381@chatGetLin
$LN901@chatGetLin:

; 214  :         else if ('a' <= *s && *s <= 'f')

  01269	8a c1		 mov	 al, cl
  0126b	2c 61		 sub	 al, 97			; 00000061H
  0126d	3c 05		 cmp	 al, 5
  0126f	77 08		 ja	 SHORT $LN903@chatGetLin

; 215  :             x += y * (*s - 'a' + 10);

  01271	0f be c1	 movsx	 eax, cl
  01274	83 e8 57	 sub	 eax, 87			; 00000057H
  01277	eb 0e		 jmp	 SHORT $LN1381@chatGetLin
$LN903@chatGetLin:

; 216  :         else if ('A' <= *s && *s <= 'F')

  01279	8a c1		 mov	 al, cl
  0127b	2c 41		 sub	 al, 65			; 00000041H
  0127d	3c 05		 cmp	 al, 5
  0127f	77 19		 ja	 SHORT $LN905@chatGetLin

; 217  :             x += y * (10 + *s - 'A');

  01281	0f be c1	 movsx	 eax, cl
  01284	83 e8 37	 sub	 eax, 55			; 00000037H
$LN1381@chatGetLin:

; 220  :         y <<= 4;

  01287	0f af c2	 imul	 eax, edx
  0128a	4e		 dec	 esi
  0128b	c1 e2 04	 shl	 edx, 4
  0128e	01 85 9c fa ff
	ff		 add	 DWORD PTR $T258[ebp], eax
  01294	3b fe		 cmp	 edi, esi
  01296	76 bf		 jbe	 SHORT $LL899@chatGetLin
; File C:\Program Files\Microsoft Visual Studio\2022\Community\VC\Tools\MSVC\14.44.35207\include\__msvc_string_view.hpp

; 113  :             for (size_t _Idx = 0; _Idx != _Count; ++_Idx) {

  01298	eb 0a		 jmp	 SHORT $LN898@chatGetLin
$LN905@chatGetLin:
; File C:\Anka2Project\Anka2Project\Source\Binary\source\eterBase\Utils.h

; 219  :             return -1; /* invalid input! */

  0129a	c7 85 9c fa ff
	ff ff ff ff ff	 mov	 DWORD PTR $T258[ebp], -1
$LN898@chatGetLin:
; File C:\Program Files\Microsoft Visual Studio\2022\Community\VC\Tools\MSVC\14.44.35207\include\vector

; 1934 :         return _My_data._Myfirst[_Pos];

  012a4	8b 85 90 fa ff
	ff		 mov	 eax, DWORD PTR _results$[ebp]
  012aa	05 20 01 00 00	 add	 eax, 288		; 00000120H
; File C:\Program Files\Microsoft Visual Studio\2022\Community\VC\Tools\MSVC\14.44.35207\include\xstring

; 453  :         return _Myres > _Small_string_capacity;

  012af	83 78 14 0f	 cmp	 DWORD PTR [eax+20], 15	; 0000000fH

; 445  :         if (_Large_mode_engaged()) {

  012b3	76 02		 jbe	 SHORT $LN797@chatGetLin

; 446  :             _Result = _Unfancy(_Bx._Ptr);

  012b5	8b 00		 mov	 eax, DWORD PTR [eax]
$LN797@chatGetLin:
; File C:\Anka2Project\Anka2Project\Source\Binary\source\UserInterface\PythonChatModule.cpp

; 518  : 				len += snprintf(itemlink + len, sizeof(itemlink) - len, "%x:%x:%x:%x:%x:%x:%x:%x:%x:%x:%s:%x:%x:%x:%x:%x:%x",

  012b7	50		 push	 eax
  012b8	e8 00 00 00 00	 call	 __atoi64
; File C:\Program Files\Microsoft Visual Studio\2022\Community\VC\Tools\MSVC\14.44.35207\include\vector

; 1934 :         return _My_data._Myfirst[_Pos];

  012bd	8b bd 90 fa ff
	ff		 mov	 edi, DWORD PTR _results$[ebp]
; File C:\Anka2Project\Anka2Project\Source\Binary\source\UserInterface\PythonChatModule.cpp

; 518  : 				len += snprintf(itemlink + len, sizeof(itemlink) - len, "%x:%x:%x:%x:%x:%x:%x:%x:%x:%x:%s:%x:%x:%x:%x:%x:%x",

  012c3	83 c4 04	 add	 esp, 4
; File C:\Program Files\Microsoft Visual Studio\2022\Community\VC\Tools\MSVC\14.44.35207\include\vector

; 1934 :         return _My_data._Myfirst[_Pos];

  012c6	81 c7 08 01 00
	00		 add	 edi, 264		; 00000108H
; File C:\Anka2Project\Anka2Project\Source\Binary\source\UserInterface\PythonChatModule.cpp

; 518  : 				len += snprintf(itemlink + len, sizeof(itemlink) - len, "%x:%x:%x:%x:%x:%x:%x:%x:%x:%x:%s:%x:%x:%x:%x:%x:%x",

  012cc	89 85 60 fa ff
	ff		 mov	 DWORD PTR tv6525[ebp], eax
  012d2	89 95 64 fa ff
	ff		 mov	 DWORD PTR tv6524[ebp], edx
; File C:\Program Files\Microsoft Visual Studio\2022\Community\VC\Tools\MSVC\14.44.35207\include\xstring

; 453  :         return _Myres > _Small_string_capacity;

  012d8	83 7f 14 0f	 cmp	 DWORD PTR [edi+20], 15	; 0000000fH

; 445  :         if (_Large_mode_engaged()) {

  012dc	76 02		 jbe	 SHORT $LN810@chatGetLin

; 446  :             _Result = _Unfancy(_Bx._Ptr);

  012de	8b 3f		 mov	 edi, DWORD PTR [edi]
$LN810@chatGetLin:
; File C:\Anka2Project\Anka2Project\Source\Binary\source\eterBase\Utils.h

; 208  :     s += strlen(s);

  012e0	8b cf		 mov	 ecx, edi
  012e2	c7 85 a4 fa ff
	ff 00 00 00 00	 mov	 DWORD PTR $T261[ebp], 0
  012ec	ba 01 00 00 00	 mov	 edx, 1
  012f1	8d 71 01	 lea	 esi, DWORD PTR [ecx+1]
$LL1349@chatGetLin:
  012f4	8a 01		 mov	 al, BYTE PTR [ecx]
  012f6	41		 inc	 ecx
  012f7	84 c0		 test	 al, al
  012f9	75 f9		 jne	 SHORT $LL1349@chatGetLin
  012fb	2b ce		 sub	 ecx, esi

; 209  : 
; 210  :     while (t <= --s)

  012fd	8d 71 ff	 lea	 esi, DWORD PTR [ecx-1]
  01300	03 f7		 add	 esi, edi
  01302	3b fe		 cmp	 edi, esi
  01304	77 4d		 ja	 SHORT $LN816@chatGetLin
$LL817@chatGetLin:

; 211  :     {
; 212  : 		if ('0' <= *s && *s <= '9')

  01306	8a 0e		 mov	 cl, BYTE PTR [esi]
  01308	8a c1		 mov	 al, cl
  0130a	2c 30		 sub	 al, 48			; 00000030H
  0130c	3c 09		 cmp	 al, 9
  0130e	77 08		 ja	 SHORT $LN819@chatGetLin

; 213  :             x += y * (*s - '0');

  01310	0f be c1	 movsx	 eax, cl
  01313	83 e8 30	 sub	 eax, 48			; 00000030H
  01316	eb 1e		 jmp	 SHORT $LN1382@chatGetLin
$LN819@chatGetLin:

; 214  :         else if ('a' <= *s && *s <= 'f')

  01318	8a c1		 mov	 al, cl
  0131a	2c 61		 sub	 al, 97			; 00000061H
  0131c	3c 05		 cmp	 al, 5
  0131e	77 08		 ja	 SHORT $LN821@chatGetLin

; 215  :             x += y * (*s - 'a' + 10);

  01320	0f be c1	 movsx	 eax, cl
  01323	83 e8 57	 sub	 eax, 87			; 00000057H
  01326	eb 0e		 jmp	 SHORT $LN1382@chatGetLin
$LN821@chatGetLin:

; 216  :         else if ('A' <= *s && *s <= 'F')

  01328	8a c1		 mov	 al, cl
  0132a	2c 41		 sub	 al, 65			; 00000041H
  0132c	3c 05		 cmp	 al, 5
  0132e	77 19		 ja	 SHORT $LN823@chatGetLin

; 217  :             x += y * (10 + *s - 'A');

  01330	0f be c1	 movsx	 eax, cl
  01333	83 e8 37	 sub	 eax, 55			; 00000037H
$LN1382@chatGetLin:

; 220  :         y <<= 4;

  01336	0f af c2	 imul	 eax, edx
  01339	4e		 dec	 esi
  0133a	c1 e2 04	 shl	 edx, 4
  0133d	01 85 a4 fa ff
	ff		 add	 DWORD PTR $T261[ebp], eax
  01343	3b fe		 cmp	 edi, esi
  01345	76 bf		 jbe	 SHORT $LL817@chatGetLin
; File C:\Program Files\Microsoft Visual Studio\2022\Community\VC\Tools\MSVC\14.44.35207\include\__msvc_string_view.hpp

; 113  :             for (size_t _Idx = 0; _Idx != _Count; ++_Idx) {

  01347	eb 0a		 jmp	 SHORT $LN816@chatGetLin
$LN823@chatGetLin:
; File C:\Anka2Project\Anka2Project\Source\Binary\source\eterBase\Utils.h

; 219  :             return -1; /* invalid input! */

  01349	c7 85 a4 fa ff
	ff ff ff ff ff	 mov	 DWORD PTR $T261[ebp], -1
$LN816@chatGetLin:
; File C:\Program Files\Microsoft Visual Studio\2022\Community\VC\Tools\MSVC\14.44.35207\include\vector

; 1934 :         return _My_data._Myfirst[_Pos];

  01353	8b bd 90 fa ff
	ff		 mov	 edi, DWORD PTR _results$[ebp]
  01359	81 c7 f0 00 00
	00		 add	 edi, 240		; 000000f0H
; File C:\Program Files\Microsoft Visual Studio\2022\Community\VC\Tools\MSVC\14.44.35207\include\xstring

; 453  :         return _Myres > _Small_string_capacity;

  0135f	83 7f 14 0f	 cmp	 DWORD PTR [edi+20], 15	; 0000000fH

; 445  :         if (_Large_mode_engaged()) {

  01363	76 02		 jbe	 SHORT $LN833@chatGetLin

; 446  :             _Result = _Unfancy(_Bx._Ptr);

  01365	8b 3f		 mov	 edi, DWORD PTR [edi]
$LN833@chatGetLin:
; File C:\Anka2Project\Anka2Project\Source\Binary\source\eterBase\Utils.h

; 208  :     s += strlen(s);

  01367	8b cf		 mov	 ecx, edi
  01369	c7 85 a8 fa ff
	ff 00 00 00 00	 mov	 DWORD PTR $T263[ebp], 0
  01373	ba 01 00 00 00	 mov	 edx, 1
  01378	8d 71 01	 lea	 esi, DWORD PTR [ecx+1]
  0137b	0f 1f 44 00 00	 npad	 5
$LL1350@chatGetLin:
  01380	8a 01		 mov	 al, BYTE PTR [ecx]
  01382	41		 inc	 ecx
  01383	84 c0		 test	 al, al
  01385	75 f9		 jne	 SHORT $LL1350@chatGetLin
  01387	2b ce		 sub	 ecx, esi

; 209  : 
; 210  :     while (t <= --s)

  01389	8d 71 ff	 lea	 esi, DWORD PTR [ecx-1]
  0138c	03 f7		 add	 esi, edi
  0138e	3b fe		 cmp	 edi, esi
  01390	77 4d		 ja	 SHORT $LN839@chatGetLin
$LL840@chatGetLin:

; 211  :     {
; 212  : 		if ('0' <= *s && *s <= '9')

  01392	8a 0e		 mov	 cl, BYTE PTR [esi]
  01394	8a c1		 mov	 al, cl
  01396	2c 30		 sub	 al, 48			; 00000030H
  01398	3c 09		 cmp	 al, 9
  0139a	77 08		 ja	 SHORT $LN842@chatGetLin

; 213  :             x += y * (*s - '0');

  0139c	0f be c1	 movsx	 eax, cl
  0139f	83 e8 30	 sub	 eax, 48			; 00000030H
  013a2	eb 1e		 jmp	 SHORT $LN1383@chatGetLin
$LN842@chatGetLin:

; 214  :         else if ('a' <= *s && *s <= 'f')

  013a4	8a c1		 mov	 al, cl
  013a6	2c 61		 sub	 al, 97			; 00000061H
  013a8	3c 05		 cmp	 al, 5
  013aa	77 08		 ja	 SHORT $LN844@chatGetLin

; 215  :             x += y * (*s - 'a' + 10);

  013ac	0f be c1	 movsx	 eax, cl
  013af	83 e8 57	 sub	 eax, 87			; 00000057H
  013b2	eb 0e		 jmp	 SHORT $LN1383@chatGetLin
$LN844@chatGetLin:

; 216  :         else if ('A' <= *s && *s <= 'F')

  013b4	8a c1		 mov	 al, cl
  013b6	2c 41		 sub	 al, 65			; 00000041H
  013b8	3c 05		 cmp	 al, 5
  013ba	77 19		 ja	 SHORT $LN846@chatGetLin

; 217  :             x += y * (10 + *s - 'A');

  013bc	0f be c1	 movsx	 eax, cl
  013bf	83 e8 37	 sub	 eax, 55			; 00000037H
$LN1383@chatGetLin:

; 220  :         y <<= 4;

  013c2	0f af c2	 imul	 eax, edx
  013c5	4e		 dec	 esi
  013c6	c1 e2 04	 shl	 edx, 4
  013c9	01 85 a8 fa ff
	ff		 add	 DWORD PTR $T263[ebp], eax
  013cf	3b fe		 cmp	 edi, esi
  013d1	76 bf		 jbe	 SHORT $LL840@chatGetLin
; File C:\Program Files\Microsoft Visual Studio\2022\Community\VC\Tools\MSVC\14.44.35207\include\__msvc_string_view.hpp

; 113  :             for (size_t _Idx = 0; _Idx != _Count; ++_Idx) {

  013d3	eb 0a		 jmp	 SHORT $LN839@chatGetLin
$LN846@chatGetLin:
; File C:\Anka2Project\Anka2Project\Source\Binary\source\eterBase\Utils.h

; 219  :             return -1; /* invalid input! */

  013d5	c7 85 a8 fa ff
	ff ff ff ff ff	 mov	 DWORD PTR $T263[ebp], -1
$LN839@chatGetLin:
; File C:\Program Files\Microsoft Visual Studio\2022\Community\VC\Tools\MSVC\14.44.35207\include\vector

; 1934 :         return _My_data._Myfirst[_Pos];

  013df	8b bd 90 fa ff
	ff		 mov	 edi, DWORD PTR _results$[ebp]
  013e5	81 c7 d8 00 00
	00		 add	 edi, 216		; 000000d8H
; File C:\Program Files\Microsoft Visual Studio\2022\Community\VC\Tools\MSVC\14.44.35207\include\xstring

; 453  :         return _Myres > _Small_string_capacity;

  013eb	83 7f 14 0f	 cmp	 DWORD PTR [edi+20], 15	; 0000000fH

; 445  :         if (_Large_mode_engaged()) {

  013ef	76 02		 jbe	 SHORT $LN856@chatGetLin

; 446  :             _Result = _Unfancy(_Bx._Ptr);

  013f1	8b 3f		 mov	 edi, DWORD PTR [edi]
$LN856@chatGetLin:
; File C:\Anka2Project\Anka2Project\Source\Binary\source\eterBase\Utils.h

; 208  :     s += strlen(s);

  013f3	8b cf		 mov	 ecx, edi
  013f5	c7 85 ac fa ff
	ff 00 00 00 00	 mov	 DWORD PTR $T266[ebp], 0
  013ff	ba 01 00 00 00	 mov	 edx, 1
  01404	8d 71 01	 lea	 esi, DWORD PTR [ecx+1]
$LL1351@chatGetLin:
  01407	8a 01		 mov	 al, BYTE PTR [ecx]
  01409	41		 inc	 ecx
  0140a	84 c0		 test	 al, al
  0140c	75 f9		 jne	 SHORT $LL1351@chatGetLin
  0140e	2b ce		 sub	 ecx, esi

; 209  : 
; 210  :     while (t <= --s)

  01410	8d 71 ff	 lea	 esi, DWORD PTR [ecx-1]
  01413	03 f7		 add	 esi, edi
  01415	3b fe		 cmp	 edi, esi
  01417	77 54		 ja	 SHORT $LN862@chatGetLin
  01419	0f 1f 80 00 00
	00 00		 npad	 7
$LL863@chatGetLin:

; 211  :     {
; 212  : 		if ('0' <= *s && *s <= '9')

  01420	8a 0e		 mov	 cl, BYTE PTR [esi]
  01422	8a c1		 mov	 al, cl
  01424	2c 30		 sub	 al, 48			; 00000030H
  01426	3c 09		 cmp	 al, 9
  01428	77 08		 ja	 SHORT $LN865@chatGetLin

; 213  :             x += y * (*s - '0');

  0142a	0f be c1	 movsx	 eax, cl
  0142d	83 e8 30	 sub	 eax, 48			; 00000030H
  01430	eb 1e		 jmp	 SHORT $LN1384@chatGetLin
$LN865@chatGetLin:

; 214  :         else if ('a' <= *s && *s <= 'f')

  01432	8a c1		 mov	 al, cl
  01434	2c 61		 sub	 al, 97			; 00000061H
  01436	3c 05		 cmp	 al, 5
  01438	77 08		 ja	 SHORT $LN867@chatGetLin

; 215  :             x += y * (*s - 'a' + 10);

  0143a	0f be c1	 movsx	 eax, cl
  0143d	83 e8 57	 sub	 eax, 87			; 00000057H
  01440	eb 0e		 jmp	 SHORT $LN1384@chatGetLin
$LN867@chatGetLin:

; 216  :         else if ('A' <= *s && *s <= 'F')

  01442	8a c1		 mov	 al, cl
  01444	2c 41		 sub	 al, 65			; 00000041H
  01446	3c 05		 cmp	 al, 5
  01448	77 19		 ja	 SHORT $LN869@chatGetLin

; 217  :             x += y * (10 + *s - 'A');

  0144a	0f be c1	 movsx	 eax, cl
  0144d	83 e8 37	 sub	 eax, 55			; 00000037H
$LN1384@chatGetLin:

; 220  :         y <<= 4;

  01450	0f af c2	 imul	 eax, edx
  01453	4e		 dec	 esi
  01454	c1 e2 04	 shl	 edx, 4
  01457	01 85 ac fa ff
	ff		 add	 DWORD PTR $T266[ebp], eax
  0145d	3b fe		 cmp	 edi, esi
  0145f	76 bf		 jbe	 SHORT $LL863@chatGetLin
; File C:\Program Files\Microsoft Visual Studio\2022\Community\VC\Tools\MSVC\14.44.35207\include\__msvc_string_view.hpp

; 113  :             for (size_t _Idx = 0; _Idx != _Count; ++_Idx) {

  01461	eb 0a		 jmp	 SHORT $LN862@chatGetLin
$LN869@chatGetLin:
; File C:\Anka2Project\Anka2Project\Source\Binary\source\eterBase\Utils.h

; 219  :             return -1; /* invalid input! */

  01463	c7 85 ac fa ff
	ff ff ff ff ff	 mov	 DWORD PTR $T266[ebp], -1
$LN862@chatGetLin:
; File C:\Program Files\Microsoft Visual Studio\2022\Community\VC\Tools\MSVC\14.44.35207\include\vector

; 1934 :         return _My_data._Myfirst[_Pos];

  0146d	8b b5 90 fa ff
	ff		 mov	 esi, DWORD PTR _results$[ebp]
  01473	81 c6 c0 00 00
	00		 add	 esi, 192		; 000000c0H
  01479	89 b5 b0 fa ff
	ff		 mov	 DWORD PTR __Result$1$[ebp], esi
; File C:\Program Files\Microsoft Visual Studio\2022\Community\VC\Tools\MSVC\14.44.35207\include\xstring

; 453  :         return _Myres > _Small_string_capacity;

  0147f	83 7e 14 0f	 cmp	 DWORD PTR [esi+20], 15	; 0000000fH

; 445  :         if (_Large_mode_engaged()) {

  01483	76 08		 jbe	 SHORT $LN879@chatGetLin

; 446  :             _Result = _Unfancy(_Bx._Ptr);

  01485	8b 36		 mov	 esi, DWORD PTR [esi]
  01487	89 b5 b0 fa ff
	ff		 mov	 DWORD PTR __Result$1$[ebp], esi
$LN879@chatGetLin:
; File C:\Anka2Project\Anka2Project\Source\Binary\source\eterBase\Utils.h

; 208  :     s += strlen(s);

  0148d	8b ce		 mov	 ecx, esi
  0148f	33 ff		 xor	 edi, edi
  01491	89 bd b4 fa ff
	ff		 mov	 DWORD PTR $T267[ebp], edi
  01497	8d 41 01	 lea	 eax, DWORD PTR [ecx+1]
  0149a	8d 57 01	 lea	 edx, DWORD PTR [edi+1]
  0149d	89 85 6c fa ff
	ff		 mov	 DWORD PTR tv6638[ebp], eax
$LL1352@chatGetLin:
  014a3	8a 01		 mov	 al, BYTE PTR [ecx]
  014a5	41		 inc	 ecx
  014a6	84 c0		 test	 al, al
  014a8	75 f9		 jne	 SHORT $LL1352@chatGetLin
  014aa	2b 8d 6c fa ff
	ff		 sub	 ecx, DWORD PTR tv6638[ebp]

; 209  : 
; 210  :     while (t <= --s)

  014b0	4e		 dec	 esi
  014b1	03 f1		 add	 esi, ecx
  014b3	39 b5 b0 fa ff
	ff		 cmp	 DWORD PTR __Result$1$[ebp], esi
  014b9	77 58		 ja	 SHORT $LN885@chatGetLin
  014bb	0f 1f 44 00 00	 npad	 5
$LL886@chatGetLin:

; 211  :     {
; 212  : 		if ('0' <= *s && *s <= '9')

  014c0	8a 0e		 mov	 cl, BYTE PTR [esi]
  014c2	8a c1		 mov	 al, cl
  014c4	2c 30		 sub	 al, 48			; 00000030H
  014c6	3c 09		 cmp	 al, 9
  014c8	77 08		 ja	 SHORT $LN888@chatGetLin

; 213  :             x += y * (*s - '0');

  014ca	0f be c1	 movsx	 eax, cl
  014cd	83 e8 30	 sub	 eax, 48			; 00000030H
  014d0	eb 1e		 jmp	 SHORT $LN1385@chatGetLin
$LN888@chatGetLin:

; 214  :         else if ('a' <= *s && *s <= 'f')

  014d2	8a c1		 mov	 al, cl
  014d4	2c 61		 sub	 al, 97			; 00000061H
  014d6	3c 05		 cmp	 al, 5
  014d8	77 08		 ja	 SHORT $LN890@chatGetLin

; 215  :             x += y * (*s - 'a' + 10);

  014da	0f be c1	 movsx	 eax, cl
  014dd	83 e8 57	 sub	 eax, 87			; 00000057H
  014e0	eb 0e		 jmp	 SHORT $LN1385@chatGetLin
$LN890@chatGetLin:

; 216  :         else if ('A' <= *s && *s <= 'F')

  014e2	8a c1		 mov	 al, cl
  014e4	2c 41		 sub	 al, 65			; 00000041H
  014e6	3c 05		 cmp	 al, 5
  014e8	77 1f		 ja	 SHORT $LN892@chatGetLin

; 217  :             x += y * (10 + *s - 'A');

  014ea	0f be c1	 movsx	 eax, cl
  014ed	83 e8 37	 sub	 eax, 55			; 00000037H
$LN1385@chatGetLin:

; 220  :         y <<= 4;

  014f0	0f af c2	 imul	 eax, edx
  014f3	4e		 dec	 esi
  014f4	c1 e2 04	 shl	 edx, 4
  014f7	03 f8		 add	 edi, eax
  014f9	89 bd b4 fa ff
	ff		 mov	 DWORD PTR $T267[ebp], edi
  014ff	39 b5 b0 fa ff
	ff		 cmp	 DWORD PTR __Result$1$[ebp], esi
  01505	76 b9		 jbe	 SHORT $LL886@chatGetLin
; File C:\Program Files\Microsoft Visual Studio\2022\Community\VC\Tools\MSVC\14.44.35207\include\__msvc_string_view.hpp

; 113  :             for (size_t _Idx = 0; _Idx != _Count; ++_Idx) {

  01507	eb 0a		 jmp	 SHORT $LN885@chatGetLin
$LN892@chatGetLin:
; File C:\Anka2Project\Anka2Project\Source\Binary\source\eterBase\Utils.h

; 219  :             return -1; /* invalid input! */

  01509	c7 85 b4 fa ff
	ff ff ff ff ff	 mov	 DWORD PTR $T267[ebp], -1
$LN885@chatGetLin:
; File C:\Program Files\Microsoft Visual Studio\2022\Community\VC\Tools\MSVC\14.44.35207\include\vector

; 1934 :         return _My_data._Myfirst[_Pos];

  01513	8b 85 90 fa ff
	ff		 mov	 eax, DWORD PTR _results$[ebp]
  01519	05 a8 00 00 00	 add	 eax, 168		; 000000a8H
; File C:\Program Files\Microsoft Visual Studio\2022\Community\VC\Tools\MSVC\14.44.35207\include\xstring

; 453  :         return _Myres > _Small_string_capacity;

  0151e	83 78 14 0f	 cmp	 DWORD PTR [eax+20], 15	; 0000000fH

; 445  :         if (_Large_mode_engaged()) {

  01522	76 02		 jbe	 SHORT $LN938@chatGetLin

; 446  :             _Result = _Unfancy(_Bx._Ptr);

  01524	8b 00		 mov	 eax, DWORD PTR [eax]
$LN938@chatGetLin:
; File C:\Anka2Project\Anka2Project\Source\Binary\source\UserInterface\PythonChatModule.cpp

; 518  : 				len += snprintf(itemlink + len, sizeof(itemlink) - len, "%x:%x:%x:%x:%x:%x:%x:%x:%x:%x:%s:%x:%x:%x:%x:%x:%x",

  01526	50		 push	 eax
  01527	e8 00 00 00 00	 call	 __atoi64
; File C:\Program Files\Microsoft Visual Studio\2022\Community\VC\Tools\MSVC\14.44.35207\include\vector

; 1934 :         return _My_data._Myfirst[_Pos];

  0152c	8b bd 90 fa ff
	ff		 mov	 edi, DWORD PTR _results$[ebp]
; File C:\Anka2Project\Anka2Project\Source\Binary\source\UserInterface\PythonChatModule.cpp

; 518  : 				len += snprintf(itemlink + len, sizeof(itemlink) - len, "%x:%x:%x:%x:%x:%x:%x:%x:%x:%x:%s:%x:%x:%x:%x:%x:%x",

  01532	83 c4 04	 add	 esp, 4
; File C:\Program Files\Microsoft Visual Studio\2022\Community\VC\Tools\MSVC\14.44.35207\include\vector

; 1934 :         return _My_data._Myfirst[_Pos];

  01535	81 c7 90 00 00
	00		 add	 edi, 144		; 00000090H
; File C:\Anka2Project\Anka2Project\Source\Binary\source\UserInterface\PythonChatModule.cpp

; 518  : 				len += snprintf(itemlink + len, sizeof(itemlink) - len, "%x:%x:%x:%x:%x:%x:%x:%x:%x:%x:%s:%x:%x:%x:%x:%x:%x",

  0153b	89 85 58 fa ff
	ff		 mov	 DWORD PTR tv6527[ebp], eax
  01541	89 95 5c fa ff
	ff		 mov	 DWORD PTR tv6526[ebp], edx
; File C:\Program Files\Microsoft Visual Studio\2022\Community\VC\Tools\MSVC\14.44.35207\include\vector

; 1934 :         return _My_data._Myfirst[_Pos];

  01547	89 bd b0 fa ff
	ff		 mov	 DWORD PTR __Result$1$[ebp], edi
; File C:\Program Files\Microsoft Visual Studio\2022\Community\VC\Tools\MSVC\14.44.35207\include\xstring

; 453  :         return _Myres > _Small_string_capacity;

  0154d	83 7f 14 0f	 cmp	 DWORD PTR [edi+20], 15	; 0000000fH

; 445  :         if (_Large_mode_engaged()) {

  01551	76 08		 jbe	 SHORT $LN915@chatGetLin

; 446  :             _Result = _Unfancy(_Bx._Ptr);

  01553	8b 3f		 mov	 edi, DWORD PTR [edi]
  01555	89 bd b0 fa ff
	ff		 mov	 DWORD PTR __Result$1$[ebp], edi
$LN915@chatGetLin:
; File C:\Anka2Project\Anka2Project\Source\Binary\source\eterBase\Utils.h

; 208  :     s += strlen(s);

  0155b	8b cf		 mov	 ecx, edi
  0155d	33 d2		 xor	 edx, edx
  0155f	8d 41 01	 lea	 eax, DWORD PTR [ecx+1]
  01562	8d 72 01	 lea	 esi, DWORD PTR [edx+1]
  01565	89 85 6c fa ff
	ff		 mov	 DWORD PTR tv6643[ebp], eax
  0156b	0f 1f 44 00 00	 npad	 5
$LL1353@chatGetLin:
  01570	8a 01		 mov	 al, BYTE PTR [ecx]
  01572	41		 inc	 ecx
  01573	84 c0		 test	 al, al
  01575	75 f9		 jne	 SHORT $LL1353@chatGetLin
  01577	2b 8d 6c fa ff
	ff		 sub	 ecx, DWORD PTR tv6643[ebp]

; 209  : 
; 210  :     while (t <= --s)

  0157d	4f		 dec	 edi
  0157e	03 f9		 add	 edi, ecx
  01580	39 bd b0 fa ff
	ff		 cmp	 DWORD PTR __Result$1$[ebp], edi
  01586	77 46		 ja	 SHORT $LN921@chatGetLin
$LL922@chatGetLin:

; 211  :     {
; 212  : 		if ('0' <= *s && *s <= '9')

  01588	8a 0f		 mov	 cl, BYTE PTR [edi]
  0158a	8a c1		 mov	 al, cl
  0158c	2c 30		 sub	 al, 48			; 00000030H
  0158e	3c 09		 cmp	 al, 9
  01590	77 08		 ja	 SHORT $LN924@chatGetLin

; 213  :             x += y * (*s - '0');

  01592	0f be c1	 movsx	 eax, cl
  01595	83 e8 30	 sub	 eax, 48			; 00000030H
  01598	eb 1e		 jmp	 SHORT $LN1386@chatGetLin
$LN924@chatGetLin:

; 214  :         else if ('a' <= *s && *s <= 'f')

  0159a	8a c1		 mov	 al, cl
  0159c	2c 61		 sub	 al, 97			; 00000061H
  0159e	3c 05		 cmp	 al, 5
  015a0	77 08		 ja	 SHORT $LN926@chatGetLin

; 215  :             x += y * (*s - 'a' + 10);

  015a2	0f be c1	 movsx	 eax, cl
  015a5	83 e8 57	 sub	 eax, 87			; 00000057H
  015a8	eb 0e		 jmp	 SHORT $LN1386@chatGetLin
$LN926@chatGetLin:

; 216  :         else if ('A' <= *s && *s <= 'F')

  015aa	8a c1		 mov	 al, cl
  015ac	2c 41		 sub	 al, 65			; 00000041H
  015ae	3c 05		 cmp	 al, 5
  015b0	77 19		 ja	 SHORT $LN928@chatGetLin

; 217  :             x += y * (10 + *s - 'A');

  015b2	0f be c1	 movsx	 eax, cl
  015b5	83 e8 37	 sub	 eax, 55			; 00000037H
$LN1386@chatGetLin:

; 220  :         y <<= 4;

  015b8	0f af c6	 imul	 eax, esi
  015bb	4f		 dec	 edi
  015bc	c1 e6 04	 shl	 esi, 4
  015bf	03 d0		 add	 edx, eax
  015c1	39 bd b0 fa ff
	ff		 cmp	 DWORD PTR __Result$1$[ebp], edi
  015c7	76 bf		 jbe	 SHORT $LL922@chatGetLin
; File C:\Program Files\Microsoft Visual Studio\2022\Community\VC\Tools\MSVC\14.44.35207\include\__msvc_string_view.hpp

; 113  :             for (size_t _Idx = 0; _Idx != _Count; ++_Idx) {

  015c9	eb 03		 jmp	 SHORT $LN921@chatGetLin
$LN928@chatGetLin:
; File C:\Anka2Project\Anka2Project\Source\Binary\source\eterBase\Utils.h

; 219  :             return -1; /* invalid input! */

  015cb	83 ca ff	 or	 edx, -1
$LN921@chatGetLin:
; File C:\Anka2Project\Anka2Project\Source\Binary\source\UserInterface\PythonChatModule.cpp

; 518  : 				len += snprintf(itemlink + len, sizeof(itemlink) - len, "%x:%x:%x:%x:%x:%x:%x:%x:%x:%x:%s:%x:%x:%x:%x:%x:%x",

  015ce	ff b5 88 fa ff
	ff		 push	 DWORD PTR $T254[ebp]
  015d4	0f 10 85 d8 fa
	ff ff		 movups	 xmm0, XMMWORD PTR $T268[ebp]
  015db	ff b5 84 fa ff
	ff		 push	 DWORD PTR $T253[ebp]
  015e1	ff b5 80 fa ff
	ff		 push	 DWORD PTR $T252[ebp]
  015e7	ff b5 7c fa ff
	ff		 push	 DWORD PTR $T251[ebp]
  015ed	ff b5 78 fa ff
	ff		 push	 DWORD PTR $T250[ebp]
  015f3	ff b5 74 fa ff
	ff		 push	 DWORD PTR $T249[ebp]
  015f9	83 ec 18	 sub	 esp, 24			; 00000018H
  015fc	8b c4		 mov	 eax, esp
  015fe	ff b5 70 fa ff
	ff		 push	 DWORD PTR $T248[ebp]
  01604	0f 11 00	 movups	 XMMWORD PTR [eax], xmm0
  01607	ff b5 8c fa ff
	ff		 push	 DWORD PTR $T255[ebp]
  0160d	f3 0f 7e 85 48
	fa ff ff	 movq	 xmm0, QWORD PTR $T247[ebp]
  01615	ff b5 9c fa ff
	ff		 push	 DWORD PTR $T258[ebp]
  0161b	66 0f d6 40 10	 movq	 QWORD PTR [eax+16], xmm0
  01620	b8 00 01 00 00	 mov	 eax, 256		; 00000100H
  01625	ff b5 64 fa ff
	ff		 push	 DWORD PTR tv6524[ebp]
  0162b	2b 85 54 fa ff
	ff		 sub	 eax, DWORD PTR _len$1$[ebp]
  01631	ff b5 60 fa ff
	ff		 push	 DWORD PTR tv6525[ebp]
  01637	ff b5 a4 fa ff
	ff		 push	 DWORD PTR $T261[ebp]
  0163d	ff b5 a8 fa ff
	ff		 push	 DWORD PTR $T263[ebp]
  01643	ff b5 ac fa ff
	ff		 push	 DWORD PTR $T266[ebp]
  01649	ff b5 b4 fa ff
	ff		 push	 DWORD PTR $T267[ebp]
  0164f	ff b5 5c fa ff
	ff		 push	 DWORD PTR tv6526[ebp]
  01655	ff b5 58 fa ff
	ff		 push	 DWORD PTR tv6527[ebp]
  0165b	52		 push	 edx
  0165c	68 00 00 00 00	 push	 OFFSET ??_C@_0DD@IEBFDDBJ@?$CFx?3?$CFx?3?$CFx?3?$CFx?3?$CFx?3?$CFx?3?$CFx?3?$CFx?3?$CFx?3?$CFx?3?$CF@
  01661	50		 push	 eax
  01662	8d 85 e8 fe ff
	ff		 lea	 eax, DWORD PTR _itemlink$273[ebp]
  01668	03 85 54 fa ff
	ff		 add	 eax, DWORD PTR _len$1$[ebp]
  0166e	50		 push	 eax
  0166f	e8 00 00 00 00	 call	 __snprintf
  01674	83 c4 6c	 add	 esp, 108		; 0000006cH
$LN17@chatGetLin:

; 519  : 					htoi(results[6].c_str()),
; 520  : 					atoi(results[7].c_str()),
; 521  : 					htoi(results[8].c_str()),
; 522  : 					htoi(results[9].c_str()),
; 523  : 					htoi(results[10].c_str()),
; 524  : 					htoi(results[11].c_str()),
; 525  : 					atoi(results[12].c_str()),
; 526  : 					htoi(results[13].c_str()),
; 527  : 					htoi(results[14].c_str()),
; 528  : 					htoi(results[15].c_str()),
; 529  : 					results[16],
; 530  : 					htoi(results[15].c_str()),
; 531  : 					htoi(results[16].c_str()),
; 532  : 					htoi(results[17].c_str()),
; 533  : 					htoi(results[18].c_str()),
; 534  : 					htoi(results[19].c_str()),
; 535  : 					htoi(results[20].c_str())
; 536  : 				);
; 537  : 			}
; 538  : 
; 539  : 			snprintf(buf, sizeof(buf), "|cffffc700|H%s|h[%s]|h|r", itemlink, pItemData->GetName());

  01677	8b 8d a0 fa ff
	ff		 mov	 ecx, DWORD PTR _pItemData$259[ebp]
  0167d	e8 00 00 00 00	 call	 ?GetName@CItemData@@QBEPBDXZ ; CItemData::GetName
  01682	50		 push	 eax
  01683	8d 85 e8 fe ff
	ff		 lea	 eax, DWORD PTR _itemlink$273[ebp]
  01689	50		 push	 eax
  0168a	68 00 00 00 00	 push	 OFFSET ??_C@_0BJ@DABMGIOF@?$HMcffffc700?$HMH?$CFs?$HMh?$FL?$CFs?$FN?$HMh?$HMr@
  0168f	e9 94 f1 ff ff	 jmp	 $LN1387@chatGetLin
$LN13@chatGetLin:
; File C:\Program Files\Microsoft Visual Studio\2022\Community\VC\Tools\MSVC\14.44.35207\include\xstring

; 453  :         return _Myres > _Small_string_capacity;

  01694	83 7f 14 0f	 cmp	 DWORD PTR [edi+20], 15	; 0000000fH

; 444  :         const value_type* _Result = _Bx._Buf;

  01698	8b c7		 mov	 eax, edi

; 445  :         if (_Large_mode_engaged()) {

  0169a	76 02		 jbe	 SHORT $LN270@chatGetLin

; 446  :             _Result = _Unfancy(_Bx._Ptr);

  0169c	8b 06		 mov	 eax, DWORD PTR [esi]
$LN270@chatGetLin:

; 2912 :         return _Traits_compare<_Traits>(_Mypair._Myval2._Myptr(), _Mypair._Myval2._Mysize, _Ptr, _Traits::length(_Ptr));

  0169e	6a 04		 push	 4
  016a0	68 00 00 00 00	 push	 OFFSET ??_C@_04OHHBHOGB@link@
  016a5	ff 76 10	 push	 DWORD PTR [esi+16]
  016a8	50		 push	 eax
  016a9	e8 00 00 00 00	 call	 ??$_Traits_compare@U?$char_traits@D@std@@@std@@YAHQBDI0I@Z ; std::_Traits_compare<std::char_traits<char> >
  016ae	83 c4 10	 add	 esp, 16			; 00000010H
; File C:\Anka2Project\Anka2Project\Source\Binary\source\UserInterface\PythonChatModule.cpp

; 546  : 	else if (0 == results[0].compare("link"))

  016b1	85 c0		 test	 eax, eax
  016b3	75 4e		 jne	 SHORT $LN18@chatGetLin

; 547  : 	{
; 548  : 		char buf[1024] = { 0 };

  016b5	68 00 04 00 00	 push	 1024			; 00000400H
  016ba	50		 push	 eax
  016bb	8d 85 e8 fa ff
	ff		 lea	 eax, DWORD PTR _buf$270[ebp]
  016c1	50		 push	 eax
  016c2	e8 00 00 00 00	 call	 _memset
  016c7	83 c7 18	 add	 edi, 24			; 00000018H
  016ca	83 c4 0c	 add	 esp, 12			; 0000000cH
; File C:\Program Files\Microsoft Visual Studio\2022\Community\VC\Tools\MSVC\14.44.35207\include\xstring

; 453  :         return _Myres > _Small_string_capacity;

  016cd	83 7f 14 0f	 cmp	 DWORD PTR [edi+20], 15	; 0000000fH

; 445  :         if (_Large_mode_engaged()) {

  016d1	76 02		 jbe	 SHORT $LN349@chatGetLin

; 446  :             _Result = _Unfancy(_Bx._Ptr);

  016d3	8b 3f		 mov	 edi, DWORD PTR [edi]
$LN349@chatGetLin:
; File C:\Anka2Project\Anka2Project\Source\Binary\source\UserInterface\PythonChatModule.cpp

; 549  : 		snprintf(buf, sizeof(buf), "|cffc9c0f1|H|h%s|h|r", results[1].c_str());

  016d5	57		 push	 edi
  016d6	68 00 00 00 00	 push	 OFFSET ??_C@_0BF@BFMJHLLJ@?$HMcffc9c0f1?$HMH?$HMh?$CFs?$HMh?$HMr@
  016db	8d 85 e8 fa ff
	ff		 lea	 eax, DWORD PTR _buf$270[ebp]
  016e1	68 00 04 00 00	 push	 1024			; 00000400H
  016e6	50		 push	 eax
  016e7	e8 00 00 00 00	 call	 __snprintf

; 550  : 		return Py_BuildValue("s", buf);

  016ec	8d 85 e8 fa ff
	ff		 lea	 eax, DWORD PTR _buf$270[ebp]
  016f2	50		 push	 eax
  016f3	68 00 00 00 00	 push	 OFFSET ??_C@_01LKDEMHDF@s@
  016f8	ff 15 00 00 00
	00		 call	 DWORD PTR __imp__Py_BuildValue
  016fe	83 c4 18	 add	 esp, 24			; 00000018H
  01701	eb 13		 jmp	 SHORT $LN1365@chatGetLin
$LN18@chatGetLin:
; File C:\Program Files\Microsoft Visual Studio\2022\Community\VC\Tools\MSVC\14.44.35207\include\vector

; 830  :         _Tidy();

  01703	68 00 00 00 00	 push	 OFFSET ??_C@_00CNPNBAHC@@
  01708	68 00 00 00 00	 push	 OFFSET ??_C@_01LKDEMHDF@s@
  0170d	ff 15 00 00 00
	00		 call	 DWORD PTR __imp__Py_BuildValue
  01713	83 c4 08	 add	 esp, 8
$LN1365@chatGetLin:
  01716	8d 8d 90 fa ff
	ff		 lea	 ecx, DWORD PTR _results$[ebp]
  0171c	8b f0		 mov	 esi, eax
  0171e	e8 00 00 00 00	 call	 ?_Tidy@?$vector@V?$basic_string@DU?$char_traits@D@std@@V?$allocator@D@2@@std@@V?$allocator@V?$basic_string@DU?$char_traits@D@std@@V?$allocator@D@2@@std@@@2@@std@@AAEXXZ ; std::vector<std::basic_string<char,std::char_traits<char>,std::allocator<char> >,std::allocator<std::basic_string<char,std::char_traits<char>,std::allocator<char> > > >::_Tidy
; File C:\Program Files\Microsoft Visual Studio\2022\Community\VC\Tools\MSVC\14.44.35207\include\xstring

; 1383 :         _Tidy_deallocate();

  01723	8d 8d b8 fa ff
	ff		 lea	 ecx, DWORD PTR _stHyperlink$[ebp]
  01729	e8 00 00 00 00	 call	 ?_Tidy_deallocate@?$basic_string@DU?$char_traits@D@std@@V?$allocator@D@2@@std@@AAEXXZ ; std::basic_string<char,std::char_traits<char>,std::allocator<char> >::_Tidy_deallocate
; File C:\Anka2Project\Anka2Project\Source\Binary\source\UserInterface\PythonChatModule.cpp

; 553  : 	return Py_BuildValue("s", "");

  0172e	8b c6		 mov	 eax, esi
$LN1@chatGetLin:

; 554  : }

  01730	8b 4d f4	 mov	 ecx, DWORD PTR __$EHRec$[ebp]
  01733	64 89 0d 00 00
	00 00		 mov	 DWORD PTR fs:0, ecx
  0173a	59		 pop	 ecx
  0173b	5f		 pop	 edi
  0173c	5e		 pop	 esi
  0173d	8b 4d ec	 mov	 ecx, DWORD PTR __$ArrayPad$[ebp]
  01740	33 cd		 xor	 ecx, ebp
  01742	e8 00 00 00 00	 call	 @__security_check_cookie@4
  01747	8b e5		 mov	 esp, ebp
  01749	5d		 pop	 ebp
  0174a	8b e3		 mov	 esp, ebx
  0174c	5b		 pop	 ebx
  0174d	c3		 ret	 0
$LN1389@chatGetLin:
; File C:\Program Files\Microsoft Visual Studio\2022\Community\VC\Tools\MSVC\14.44.35207\include\xmemory

; 219  :     _STL_VERIFY(_Back_shift >= _Min_back_shift && _Back_shift <= _Non_user_size, "invalid argument");

  0174e	6a 00		 push	 0
  01750	6a 00		 push	 0
  01752	6a 00		 push	 0
  01754	6a 00		 push	 0
  01756	6a 00		 push	 0
  01758	e8 00 00 00 00	 call	 __invoke_watson
$LN1355@chatGetLin:
  0175d	cc		 int	 3
_TEXT	ENDS
;	COMDAT text$x
text$x	SEGMENT
__unwindfunclet$?chatGetLinkFromHyperlink@@YAPAU_object@@PAU1@0@Z$0:
  00000	8d 8d b8 fa ff
	ff		 lea	 ecx, DWORD PTR _stHyperlink$[ebp]
  00006	e9 00 00 00 00	 jmp	 ??1?$basic_string@DU?$char_traits@D@std@@V?$allocator@D@2@@std@@QAE@XZ ; std::basic_string<char,std::char_traits<char>,std::allocator<char> >::~basic_string<char,std::char_traits<char>,std::allocator<char> >
__unwindfunclet$?chatGetLinkFromHyperlink@@YAPAU_object@@PAU1@0@Z$1:
  0000b	8d 8d 90 fa ff
	ff		 lea	 ecx, DWORD PTR _results$[ebp]
  00011	e9 00 00 00 00	 jmp	 ??1?$vector@V?$basic_string@DU?$char_traits@D@std@@V?$allocator@D@2@@std@@V?$allocator@V?$basic_string@DU?$char_traits@D@std@@V?$allocator@D@2@@std@@@2@@std@@QAE@XZ ; std::vector<std::basic_string<char,std::char_traits<char>,std::allocator<char> >,std::allocator<std::basic_string<char,std::char_traits<char>,std::allocator<char> > > >::~vector<std::basic_string<char,std::char_traits<char>,std::allocator<char> >,std::allocator<std::basic_string<char,std::char_traits<char>,std::allocator<char> > > >
__unwindfunclet$?chatGetLinkFromHyperlink@@YAPAU_object@@PAU1@0@Z$2:
  00016	8d 8d d0 fa ff
	ff		 lea	 ecx, DWORD PTR $T7[ebp]
  0001c	e9 00 00 00 00	 jmp	 ??1?$basic_string@DU?$char_traits@D@std@@V?$allocator@D@2@@std@@QAE@XZ ; std::basic_string<char,std::char_traits<char>,std::allocator<char> >::~basic_string<char,std::char_traits<char>,std::allocator<char> >
  00021	cc		 int	 3
  00022	cc		 int	 3
  00023	cc		 int	 3
  00024	cc		 int	 3
  00025	cc		 int	 3
__ehhandler$?chatGetLinkFromHyperlink@@YAPAU_object@@PAU1@0@Z:
  00026	90		 npad	 1
  00027	90		 npad	 1
  00028	8b 54 24 08	 mov	 edx, DWORD PTR [esp+8]
  0002c	8d 42 0c	 lea	 eax, DWORD PTR [edx+12]
  0002f	8b 8a 48 fa ff
	ff		 mov	 ecx, DWORD PTR [edx-1464]
  00035	33 c8		 xor	 ecx, eax
  00037	e8 00 00 00 00	 call	 @__security_check_cookie@4
  0003c	8b 4a f8	 mov	 ecx, DWORD PTR [edx-8]
  0003f	33 c8		 xor	 ecx, eax
  00041	e8 00 00 00 00	 call	 @__security_check_cookie@4
  00046	b8 00 00 00 00	 mov	 eax, OFFSET __ehfuncinfo$?chatGetLinkFromHyperlink@@YAPAU_object@@PAU1@0@Z
  0004b	e9 00 00 00 00	 jmp	 ___CxxFrameHandler3
text$x	ENDS
?chatGetLinkFromHyperlink@@YAPAU_object@@PAU1@0@Z ENDP	; chatGetLinkFromHyperlink
; Function compile flags: /Ogtp
; File C:\Anka2Project\Anka2Project\Source\Binary\source\UserInterface\PythonChatModule.cpp
;	COMDAT ?initChat@@YAXXZ
_TEXT	SEGMENT
?initChat@@YAXXZ PROC					; initChat, COMDAT

; 583  : {

  00000	56		 push	 esi
  00001	57		 push	 edi

; 584  : 	static PyMethodDef s_methods[] = 
; 585  : 	{
; 586  : 		{ "SetChatColor",			chatSetChatColor,			METH_VARARGS },
; 587  : 		{ "Clear",					chatClear,					METH_VARARGS },
; 588  : 		{ "Close",					chatClose,					METH_VARARGS },
; 589  : 
; 590  : 		{ "CreateChatSet",			chatCreateChatSet,			METH_VARARGS },
; 591  : 		{ "Update",					chatUpdate,					METH_VARARGS },
; 592  : 		{ "Render",					chatRender,					METH_VARARGS },
; 593  : 
; 594  : 		{ "SetBoardState",			chatSetBoardState,			METH_VARARGS },
; 595  : 		{ "SetPosition",			chatSetPosition,			METH_VARARGS },
; 596  : 		{ "SetHeight",				chatSetHeight,				METH_VARARGS },
; 597  : 		{ "SetStep",				chatSetStep,				METH_VARARGS },
; 598  : 		{ "ToggleChatMode",			chatToggleChatMode,			METH_VARARGS },
; 599  : 		{ "EnableChatMode",			chatEnableChatMode,			METH_VARARGS },
; 600  : 		{ "DisableChatMode",		chatDisableChatMode,		METH_VARARGS },
; 601  : 		{ "SetEndPos",				chatSetEndPos,				METH_VARARGS },
; 602  : 
; 603  : 		{ "GetLineCount",			chatGetLineCount,			METH_VARARGS },
; 604  : 		{ "GetVisibleLineCount",	chatGetVisibleLineCount,	METH_VARARGS },
; 605  : 		{ "GetLineStep",			chatGetLineStep,			METH_VARARGS },
; 606  : 
; 607  : 		// Chat
; 608  : 		{ "AppendChat",				chatAppendChat,				METH_VARARGS },
; 609  : 		{ "AppendChatWithDelay",	chatAppendChatWithDelay,	METH_VARARGS },
; 610  : 		{ "ArrangeShowingChat",		chatArrangeShowingChat,		METH_VARARGS },
; 611  : 
; 612  : 		{ "AppendChatStack",		chatAppendChatStack,		METH_VARARGS },
; 613  : 		{ "GetChatStack",			chatGetChatStack,			METH_VARARGS },
; 614  : 		{ "GetChatStackSize",		chatGetChatStackSize,		METH_VARARGS },
; 615  : 
; 616  : 		// Ignore
; 617  : 		{ "IgnoreCharacter",		chatIgnoreCharacter,		METH_VARARGS },
; 618  : 		{ "IsIgnoreCharacter",		chatIsIgnoreCharacter,		METH_VARARGS },
; 619  : 
; 620  : 		// Whisper
; 621  : 		{ "CreateWhisper",			chatCreateWhisper,			METH_VARARGS },
; 622  : 		{ "AppendWhisper",			chatAppendWhisper,			METH_VARARGS },
; 623  : 		{ "RenderWhisper",			chatRenderWhisper,			METH_VARARGS },
; 624  : 		{ "SetWhisperBoxSize",		chatSetWhisperBoxSize,		METH_VARARGS },
; 625  : 		{ "SetWhisperPosition",		chatSetWhisperPosition,		METH_VARARGS },
; 626  : 		{ "ClearWhisper",			chatClearWhisper,			METH_VARARGS },
; 627  : 		{ "InitWhisper",			chatInitWhisper,			METH_VARARGS },
; 628  : 
; 629  : 		// Link
; 630  : 		{ "GetLinkFromHyperlink",	chatGetLinkFromHyperlink,	METH_VARARGS },
; 631  : 
; 632  : #ifdef ENABLE_EMOTICONS_SYSTEM
; 633  : 		{ "SetFontNameChat",		chatSetFontNameChat,		METH_VARARGS },
; 634  : 		{ "SaveEmojisChat",			chatSaveEmojisChat,			METH_VARARGS },
; 635  : #endif
; 636  : 
; 637  : 		{ nullptr, nullptr },
; 638  : 	};
; 639  : 
; 640  : 	PyObject *poModule = Py_InitModule("chat", s_methods);

  00002	68 f5 03 00 00	 push	 1013			; 000003f5H
  00007	6a 00		 push	 0
  00009	6a 00		 push	 0
  0000b	68 00 00 00 00	 push	 OFFSET ?s_methods@?1??initChat@@YAXXZ@4PAUPyMethodDef@@A
  00010	68 00 00 00 00	 push	 OFFSET ??_C@_04BLJLMHHG@chat@
  00015	ff 15 00 00 00
	00		 call	 DWORD PTR __imp__Py_InitModule4

; 641  : 
; 642  : 	PyModule_AddIntConstant(poModule, "CHAT_TYPE_TALKING", CHAT_TYPE_TALKING);

  0001b	8b 35 00 00 00
	00		 mov	 esi, DWORD PTR __imp__PyModule_AddIntConstant
  00021	8b f8		 mov	 edi, eax
  00023	6a 00		 push	 0
  00025	68 00 00 00 00	 push	 OFFSET ??_C@_0BC@EHLMCJH@CHAT_TYPE_TALKING@
  0002a	57		 push	 edi
  0002b	ff d6		 call	 esi

; 643  : 	PyModule_AddIntConstant(poModule, "CHAT_TYPE_INFO", CHAT_TYPE_INFO);

  0002d	6a 01		 push	 1
  0002f	68 00 00 00 00	 push	 OFFSET ??_C@_0P@MIHHHBMP@CHAT_TYPE_INFO@
  00034	57		 push	 edi
  00035	ff d6		 call	 esi

; 644  : 	PyModule_AddIntConstant(poModule, "CHAT_TYPE_NOTICE", CHAT_TYPE_NOTICE);

  00037	6a 02		 push	 2
  00039	68 00 00 00 00	 push	 OFFSET ??_C@_0BB@KFACLMJA@CHAT_TYPE_NOTICE@
  0003e	57		 push	 edi
  0003f	ff d6		 call	 esi

; 645  : 	PyModule_AddIntConstant(poModule, "CHAT_TYPE_PARTY", CHAT_TYPE_PARTY);

  00041	6a 03		 push	 3
  00043	68 00 00 00 00	 push	 OFFSET ??_C@_0BA@JOLAGJG@CHAT_TYPE_PARTY@
  00048	57		 push	 edi
  00049	ff d6		 call	 esi
  0004b	83 c4 44	 add	 esp, 68			; 00000044H

; 646  : 	PyModule_AddIntConstant(poModule, "CHAT_TYPE_GUILD", CHAT_TYPE_GUILD);

  0004e	6a 04		 push	 4
  00050	68 00 00 00 00	 push	 OFFSET ??_C@_0BA@OIBJELLN@CHAT_TYPE_GUILD@
  00055	57		 push	 edi
  00056	ff d6		 call	 esi

; 647  : 	PyModule_AddIntConstant(poModule, "CHAT_TYPE_COMMAND", CHAT_TYPE_COMMAND);

  00058	6a 05		 push	 5
  0005a	68 00 00 00 00	 push	 OFFSET ??_C@_0BC@IILPNMNB@CHAT_TYPE_COMMAND@
  0005f	57		 push	 edi
  00060	ff d6		 call	 esi

; 648  : 	PyModule_AddIntConstant(poModule, "CHAT_TYPE_SHOUT", CHAT_TYPE_SHOUT);

  00062	6a 06		 push	 6
  00064	68 00 00 00 00	 push	 OFFSET ??_C@_0BA@JEHAINHB@CHAT_TYPE_SHOUT@
  00069	57		 push	 edi
  0006a	ff d6		 call	 esi

; 649  : 	PyModule_AddIntConstant(poModule, "CHAT_TYPE_WHISPER", CHAT_TYPE_WHISPER);

  0006c	6a 07		 push	 7
  0006e	68 00 00 00 00	 push	 OFFSET ??_C@_0BC@JMANMLH@CHAT_TYPE_WHISPER@
  00073	57		 push	 edi
  00074	ff d6		 call	 esi

; 650  : 	PyModule_AddIntConstant(poModule, "CHAT_TYPE_BIG_NOTICE", CHAT_TYPE_BIG_NOTICE);

  00076	6a 08		 push	 8
  00078	68 00 00 00 00	 push	 OFFSET ??_C@_0BF@NJACMDGO@CHAT_TYPE_BIG_NOTICE@
  0007d	57		 push	 edi
  0007e	ff d6		 call	 esi

; 651  : #ifdef ENABLE_DICE_SYSTEM
; 652  : 	PyModule_AddIntConstant(poModule, "CHAT_TYPE_DICE_INFO", CHAT_TYPE_DICE_INFO);

  00080	6a 09		 push	 9
  00082	68 00 00 00 00	 push	 OFFSET ??_C@_0BE@EHFCCBJP@CHAT_TYPE_DICE_INFO@
  00087	57		 push	 edi
  00088	ff d6		 call	 esi
  0008a	83 c4 48	 add	 esp, 72			; 00000048H

; 653  : #endif
; 654  : #ifdef ENABLE_RENEWAL_OX_EVENT
; 655  : 	PyModule_AddIntConstant(poModule, "CHAT_TYPE_CONTROL_NOTICE", CHAT_TYPE_CONTROL_NOTICE);

  0008d	6a 0a		 push	 10			; 0000000aH
  0008f	68 00 00 00 00	 push	 OFFSET ??_C@_0BJ@CPCGKEGJ@CHAT_TYPE_CONTROL_NOTICE@
  00094	57		 push	 edi
  00095	ff d6		 call	 esi

; 656  : #endif
; 657  : 	PyModule_AddIntConstant(poModule, "WHISPER_TYPE_CHAT", CPythonChat::WHISPER_TYPE_CHAT);

  00097	6a 00		 push	 0
  00099	68 00 00 00 00	 push	 OFFSET ??_C@_0BC@LIEDKBDG@WHISPER_TYPE_CHAT@
  0009e	57		 push	 edi
  0009f	ff d6		 call	 esi

; 658  : 	PyModule_AddIntConstant(poModule, "WHISPER_TYPE_SYSTEM", CPythonChat::WHISPER_TYPE_SYSTEM);

  000a1	68 ff 00 00 00	 push	 255			; 000000ffH
  000a6	68 00 00 00 00	 push	 OFFSET ??_C@_0BE@KODPENDJ@WHISPER_TYPE_SYSTEM@
  000ab	57		 push	 edi
  000ac	ff d6		 call	 esi

; 659  : 	PyModule_AddIntConstant(poModule, "WHISPER_TYPE_GM", CPythonChat::WHISPER_TYPE_GM);

  000ae	6a 05		 push	 5
  000b0	68 00 00 00 00	 push	 OFFSET ??_C@_0BA@KLIHGMFD@WHISPER_TYPE_GM@
  000b5	57		 push	 edi
  000b6	ff d6		 call	 esi

; 660  : 
; 661  : 	PyModule_AddIntConstant(poModule, "BOARD_STATE_VIEW", CPythonChat::BOARD_STATE_VIEW);

  000b8	6a 00		 push	 0
  000ba	68 00 00 00 00	 push	 OFFSET ??_C@_0BB@OJGJMFKD@BOARD_STATE_VIEW@
  000bf	57		 push	 edi
  000c0	ff d6		 call	 esi

; 662  : 	PyModule_AddIntConstant(poModule, "BOARD_STATE_EDIT", CPythonChat::BOARD_STATE_EDIT);

  000c2	6a 01		 push	 1
  000c4	68 00 00 00 00	 push	 OFFSET ??_C@_0BB@BOHEFKIL@BOARD_STATE_EDIT@
  000c9	57		 push	 edi
  000ca	ff d6		 call	 esi
  000cc	83 c4 48	 add	 esp, 72			; 00000048H

; 663  : 	PyModule_AddIntConstant(poModule, "BOARD_STATE_LOG", CPythonChat::BOARD_STATE_LOG);

  000cf	6a 02		 push	 2
  000d1	68 00 00 00 00	 push	 OFFSET ??_C@_0BA@PGHAPLJK@BOARD_STATE_LOG@
  000d6	57		 push	 edi
  000d7	ff d6		 call	 esi

; 664  : 
; 665  : 	PyModule_AddIntConstant(poModule, "CHAT_SET_CHAT_WINDOW", 0);

  000d9	6a 00		 push	 0
  000db	68 00 00 00 00	 push	 OFFSET ??_C@_0BF@FCHEGAKH@CHAT_SET_CHAT_WINDOW@
  000e0	57		 push	 edi
  000e1	ff d6		 call	 esi

; 666  : 	PyModule_AddIntConstant(poModule, "CHAT_SET_LOG_WINDOW", 1);

  000e3	6a 01		 push	 1
  000e5	68 00 00 00 00	 push	 OFFSET ??_C@_0BE@OPDJLJMH@CHAT_SET_LOG_WINDOW@
  000ea	57		 push	 edi
  000eb	ff d6		 call	 esi
  000ed	83 c4 24	 add	 esp, 36			; 00000024H
  000f0	5f		 pop	 edi
  000f1	5e		 pop	 esi

; 667  : }

  000f2	c3		 ret	 0
?initChat@@YAXXZ ENDP					; initChat
_TEXT	ENDS
END
