; Listing generated by Microsoft (R) Optimizing Compiler Version 19.44.35219.0 

	TITLE	c:\anka2project\anka2project\source\binary\vs_files\userinterface\release\pythonbackgroundmodule.obj
	.686P
	.XMM
	include listing.inc
	.model	flat

INCLUDELIB OLDNAMES

PUBLIC	??_C@_0EI@HLELLDPI@background?4RegisterEnvironmentD@ ; `string'
PUBLIC	??_C@_03LPALPDIP@fff@				; `string'
PUBLIC	??_C@_0EC@CPGNPFK@background?4RenderDungeon?$CI?$CJ?5?9?5?$LL?g@ ; `string'
PUBLIC	??_C@_1LG@NHPPDGAN@?$AAC?$AA?3?$AA?2?$AAA?$AAn?$AAk?$AAa?$AA2?$AAP?$AAr?$AAo?$AAj?$AAe?$AAc?$AAt@ ; `string'
PUBLIC	??_C@_1IK@HKMGEBNG@?$AA?$CB?$AA?$CC?$AAb?$AAa?$AAc?$AAk?$AAg?$AAr?$AAo?$AAu?$AAn?$AAd?$AA?4?$AAR?$AAe@ ; `string'
PUBLIC	??_C@_03JDANDILB@?$CFd?5@			; `string'
PUBLIC	??_C@_04KDJJDIPA@iifs@				; `string'
PUBLIC	??_C@_0CC@JHPGFABG@ePart?$CI?$CFd?$CJ?$DMbackground?4PART_NUM?$CI?$CF@ ; `string'
PUBLIC	??_C@_0CL@HHHOJMJN@background?4SetSplatLimit?$CIiSplat@ ; `string'
PUBLIC	??_C@_04MMEPMOLC@ifff@				; `string'
PUBLIC	??_C@_03FEAIAPNA@sii@				; `string'
PUBLIC	??_C@_0DG@OLHBLANM@d?3?1ymir?5work?1effect?1etc?1directi@ ; `string'
PUBLIC	??_C@_0L@LGAPBDCD@EnableSnow@			; `string'
PUBLIC	??_C@_0BO@OIANPCLB@GlobalPositionToLocalPosition@ ; `string'
PUBLIC	??_C@_0BI@NCKBLOGC@GlobalPositionToMapInfo@	; `string'
PUBLIC	??_C@_0BE@LMGPCAD@GetRenderShadowTime@		; `string'
PUBLIC	??_C@_07DJFPJOEL@LoadMap@			; `string'
PUBLIC	??_C@_07BDCAJABG@Destroy@			; `string'
PUBLIC	??_C@_0BI@CHPHFBLI@RegisterEnvironmentData@	; `string'
PUBLIC	??_C@_0BD@BHFOHELP@SetEnvironmentData@		; `string'
PUBLIC	??_C@_0BC@DINKEDB@GetCurrentMapName@		; `string'
PUBLIC	??_C@_0BA@DNJBOOGC@GetPickingPoint@		; `string'
PUBLIC	??_C@_0BB@JHBDNCLO@BeginEnvironment@		; `string'
PUBLIC	??_C@_0P@DMJMMGKP@EndEnvironment@		; `string'
PUBLIC	??_C@_0BF@DFKOLKBM@SetCharacterDirLight@	; `string'
PUBLIC	??_C@_0BG@PNPLCIKE@SetBackgroundDirLight@	; `string'
PUBLIC	??_C@_0L@KIAPHAEH@Initialize@			; `string'
PUBLIC	??_C@_0BA@FDBALAKK@RenderPCBlocker@		; `string'
PUBLIC	??_C@_0BA@OAOAOPAN@RenderCollision@		; `string'
PUBLIC	??_C@_09LFBELEBM@RenderSky@			; `string'
PUBLIC	??_C@_0M@LNFEENAM@RenderCloud@			; `string'
PUBLIC	??_C@_0M@FKCFAPAJ@RenderWater@			; `string'
PUBLIC	??_C@_0N@NIFFJBKD@RenderEffect@			; `string'
PUBLIC	??_C@_0BG@FMKIIHNL@RenderBeforeLensFlare@	; `string'
PUBLIC	??_C@_0BF@IFHDODFN@RenderAfterLensFlare@	; `string'
PUBLIC	??_C@_0BP@HPJLNAG@RenderCharacterShadowToTexture@ ; `string'
PUBLIC	??_C@_0O@INGOKFGH@RenderDungeon@		; `string'
PUBLIC	??_C@_09EOGEIJMK@GetHeight@			; `string'
PUBLIC	??_C@_0P@JLOPHJNK@SetShadowLevel@		; `string'
PUBLIC	??_C@_0P@PBNEJLOP@SetVisiblePart@		; `string'
PUBLIC	??_C@_0BC@CCJLGKJP@GetShadowMapColor@		; `string'
PUBLIC	??_C@_0O@MBDLBPAA@SetSplatLimit@		; `string'
PUBLIC	??_C@_0BE@OLLMHPAP@GetRenderedSplatNum@		; `string'
PUBLIC	??_C@_0CD@KCFKJMJJ@GetRenderedGraphicThingInstance@ ; `string'
PUBLIC	??_C@_0BG@HJLACBME@SelectViewDistanceNum@	; `string'
PUBLIC	??_C@_0BD@MAFLMANF@SetViewDistanceSet@		; `string'
PUBLIC	??_C@_0L@HDMJNMBI@GetFarClip@			; `string'
PUBLIC	??_C@_0BD@DLMMDNAG@GetDistanceSetInfo@		; `string'
PUBLIC	??_C@_0N@BIHACEOH@SetBGLoading@			; `string'
PUBLIC	??_C@_0O@JBGHJBE@SetRenderSort@			; `string'
PUBLIC	??_C@_0BD@FPJHLEBA@SetTransparentTree@		; `string'
PUBLIC	??_C@_0M@JALIDFKN@SetXMasTree@			; `string'
PUBLIC	??_C@_0BH@MNHHOIMG@RegisterDungeonMapName@	; `string'
PUBLIC	??_C@_0BB@CIANHCAN@VisibleGuildArea@		; `string'
PUBLIC	??_C@_0BB@NIDJGFIB@DisableGuildArea@		; `string'
PUBLIC	??_C@_08LPNOKPMJ@WarpTest@			; `string'
PUBLIC	??_C@_0BC@BCAHAJED@SetEnvironmentFog@		; `string'
PUBLIC	??_C@_09DGOGOLBN@IsBoomMap@			; `string'
PUBLIC	??_C@_0M@IJJMNJBM@SnowTexture@			; `string'
PUBLIC	??_C@_0BD@IDCGKKBN@SetNightModeOption@		; `string'
PUBLIC	??_C@_0L@MJMDEPGO@GetDayMode@			; `string'
PUBLIC	??_C@_0BG@NDPMMCP@ChangeEnvironmentData@	; `string'
PUBLIC	??_C@_0BF@GNKCMFCM@CreatePrivateShopPos@	; `string'
PUBLIC	??_C@_0BF@NACMAEBJ@DeletePrivateShopPos@	; `string'
PUBLIC	??_C@_0L@EGCKCJDC@background@			; `string'
PUBLIC	??_C@_08NJILKGEB@PART_SKY@			; `string'
PUBLIC	??_C@_09GABNPPB@PART_TREE@			; `string'
PUBLIC	??_C@_0L@OMDBBBIA@PART_CLOUD@			; `string'
PUBLIC	??_C@_0L@LEAFDIF@PART_WATER@			; `string'
PUBLIC	??_C@_0M@FDJPOPAP@PART_OBJECT@			; `string'
PUBLIC	??_C@_0N@JJNCMAMK@PART_TERRAIN@			; `string'
PUBLIC	??_C@_0BI@KFLFFAKF@SKY_RENDER_MODE_DEFAULT@	; `string'
PUBLIC	??_C@_0BI@JEJGCBJM@SKY_RENDER_MODE_DIFFUSE@	; `string'
PUBLIC	??_C@_0BI@NLDLHPN@SKY_RENDER_MODE_TEXTURE@	; `string'
PUBLIC	??_C@_0BJ@IGDGIPGO@SKY_RENDER_MODE_MODULATE@	; `string'
PUBLIC	??_C@_0BL@NDPELIAM@SKY_RENDER_MODE_MODULATE2X@	; `string'
PUBLIC	??_C@_0BL@NHHJMELO@SKY_RENDER_MODE_MODULATE4X@	; `string'
PUBLIC	??_C@_0M@GJOLHPMA@SHADOW_NONE@			; `string'
PUBLIC	??_C@_0O@KCPINCHK@SHADOW_GROUND@		; `string'
PUBLIC	??_C@_0BH@GACINHHJ@SHADOW_GROUND_AND_SOLO@	; `string'
PUBLIC	??_C@_0L@IDBIEHAB@SHADOW_ALL@			; `string'
PUBLIC	??_C@_0BA@HAKJACB@SHADOW_ALL_HIGH@		; `string'
PUBLIC	??_C@_0P@OLMEFOLC@SHADOW_ALL_MAX@		; `string'
PUBLIC	??_C@_09PGFHANGE@DISTANCE0@			; `string'
PUBLIC	??_C@_09OPEMDMCF@DISTANCE1@			; `string'
PUBLIC	??_C@_09MEGBGPOG@DISTANCE2@			; `string'
PUBLIC	??_C@_09NNHKFOKH@DISTANCE3@			; `string'
PUBLIC	??_C@_09JCDLMIGA@DISTANCE4@			; `string'
PUBLIC	??_C@_0P@LKPKNHPP@DAY_MODE_LIGHT@		; `string'
PUBLIC	??_C@_0O@ICODDOGP@DAY_MODE_DARK@		; `string'
PUBLIC	??_C@_0O@OJDBENMM@DISTANCE_SORT@		; `string'
PUBLIC	??_C@_0N@CKPMLBKJ@TEXTURE_SORT@			; `string'
EXTRN	?SetEnvironmentFog@CMapManager@@QAEX_N@Z:PROC	; CMapManager::SetEnvironmentFog
EXTRN	?SnowTexture@CMapOutdoor@@QAEXPBD@Z:PROC	; CMapOutdoor::SnowTexture
EXTRN	?SetTerrainRenderSort@CMapManager@@QAEXW4ETerrainRenderSort@CMapOutdoor@@@Z:PROC ; CMapManager::SetTerrainRenderSort
EXTRN	?SetTransparentTree@CMapManager@@QAEX_N@Z:PROC	; CMapManager::SetTransparentTree
EXTRN	?PyTuple_GetBoolean@@YA_NPAU_object@@HPA_N@Z:PROC ; PyTuple_GetBoolean
EXTRN	?GetRenderedSplatNum@CMapManager@@QAEAAV?$vector@HV?$allocator@H@std@@@std@@PAH0PAM@Z:PROC ; CMapManager::GetRenderedSplatNum
EXTRN	?GetRenderedGraphicThingInstanceNum@CMapManager@@QAEAAV?$vector@USCRCWithNumber@CArea@@V?$allocator@USCRCWithNumber@CArea@@@std@@@std@@PAK0@Z:PROC ; CMapManager::GetRenderedGraphicThingInstanceNum
EXTRN	?Py_BadArgument@@YAPAU_object@@XZ:PROC		; Py_BadArgument
;	COMDAT ?s_methods@?1??initBackground@@YAXXZ@4PAUPyMethodDef@@A
_DATA	SEGMENT
?s_methods@?1??initBackground@@YAXXZ@4PAUPyMethodDef@@A DD FLAT:??_C@_0L@LGAPBDCD@EnableSnow@ ; `initBackground'::`2'::s_methods
	DD	FLAT:?backgroundEnableSnow@@YAPAU_object@@PAU1@0@Z
	DD	01H
	ORG $+4
	DD	FLAT:??_C@_0BO@OIANPCLB@GlobalPositionToLocalPosition@
	DD	FLAT:?backgroundGlobalPositionToLocalPosition@@YAPAU_object@@PAU1@0@Z
	DD	01H
	ORG $+4
	DD	FLAT:??_C@_0BI@NCKBLOGC@GlobalPositionToMapInfo@
	DD	FLAT:?backgroundGlobalPositionToMapInfo@@YAPAU_object@@PAU1@0@Z
	DD	01H
	ORG $+4
	DD	FLAT:??_C@_0BE@LMGPCAD@GetRenderShadowTime@
	DD	FLAT:?backgroundGetRenderShadowTime@@YAPAU_object@@PAU1@0@Z
	DD	01H
	ORG $+4
	DD	FLAT:??_C@_07DJFPJOEL@LoadMap@
	DD	FLAT:?backgroundLoadMap@@YAPAU_object@@PAU1@0@Z
	DD	01H
	ORG $+4
	DD	FLAT:??_C@_07BDCAJABG@Destroy@
	DD	FLAT:?backgroundDestroy@@YAPAU_object@@PAU1@0@Z
	DD	01H
	ORG $+4
	DD	FLAT:??_C@_0BI@CHPHFBLI@RegisterEnvironmentData@
	DD	FLAT:?backgroundRegisterEnvironmentData@@YAPAU_object@@PAU1@0@Z
	DD	01H
	ORG $+4
	DD	FLAT:??_C@_0BD@BHFOHELP@SetEnvironmentData@
	DD	FLAT:?backgroundSetEnvironmentData@@YAPAU_object@@PAU1@0@Z
	DD	01H
	ORG $+4
	DD	FLAT:??_C@_0BC@DINKEDB@GetCurrentMapName@
	DD	FLAT:?backgroundGetCurrentMapName@@YAPAU_object@@PAU1@0@Z
	DD	01H
	ORG $+4
	DD	FLAT:??_C@_0BA@DNJBOOGC@GetPickingPoint@
	DD	FLAT:?backgroundGetPickingPoint@@YAPAU_object@@PAU1@0@Z
	DD	01H
	ORG $+4
	DD	FLAT:??_C@_0BB@JHBDNCLO@BeginEnvironment@
	DD	FLAT:?backgroundBeginEnvironment@@YAPAU_object@@PAU1@0@Z
	DD	01H
	ORG $+4
	DD	FLAT:??_C@_0P@DMJMMGKP@EndEnvironment@
	DD	FLAT:?backgroundEndEnvironemt@@YAPAU_object@@PAU1@0@Z
	DD	01H
	ORG $+4
	DD	FLAT:??_C@_0BF@DFKOLKBM@SetCharacterDirLight@
	DD	FLAT:?backgroundSetCharacterDirLight@@YAPAU_object@@PAU1@0@Z
	DD	01H
	ORG $+4
	DD	FLAT:??_C@_0BG@PNPLCIKE@SetBackgroundDirLight@
	DD	FLAT:?backgroundSetBackgroundDirLight@@YAPAU_object@@PAU1@0@Z
	DD	01H
	ORG $+4
	DD	FLAT:??_C@_0L@KIAPHAEH@Initialize@
	DD	FLAT:?backgroundInitialize@@YAPAU_object@@PAU1@0@Z
	DD	01H
	ORG $+4
	DD	FLAT:??_C@_06LMAGPFNF@Update@
	DD	FLAT:?backgroundUpdate@@YAPAU_object@@PAU1@0@Z
	DD	01H
	ORG $+4
	DD	FLAT:??_C@_06EPLDPNDB@Render@
	DD	FLAT:?backgroundRender@@YAPAU_object@@PAU1@0@Z
	DD	01H
	ORG $+4
	DD	FLAT:??_C@_0BA@FDBALAKK@RenderPCBlocker@
	DD	FLAT:?backgroundRenderPCBlocker@@YAPAU_object@@PAU1@0@Z
	DD	01H
	ORG $+4
	DD	FLAT:??_C@_0BA@OAOAOPAN@RenderCollision@
	DD	FLAT:?backgroundRenderCollision@@YAPAU_object@@PAU1@0@Z
	DD	01H
	ORG $+4
	DD	FLAT:??_C@_09LFBELEBM@RenderSky@
	DD	FLAT:?backgroundRenderSky@@YAPAU_object@@PAU1@0@Z
	DD	01H
	ORG $+4
	DD	FLAT:??_C@_0M@LNFEENAM@RenderCloud@
	DD	FLAT:?backgroundRenderCloud@@YAPAU_object@@PAU1@0@Z
	DD	01H
	ORG $+4
	DD	FLAT:??_C@_0M@FKCFAPAJ@RenderWater@
	DD	FLAT:?backgroundRenderWater@@YAPAU_object@@PAU1@0@Z
	DD	01H
	ORG $+4
	DD	FLAT:??_C@_0N@NIFFJBKD@RenderEffect@
	DD	FLAT:?backgroundRenderEffect@@YAPAU_object@@PAU1@0@Z
	DD	01H
	ORG $+4
	DD	FLAT:??_C@_0BG@FMKIIHNL@RenderBeforeLensFlare@
	DD	FLAT:?backgroundRenderBeforeLensFlare@@YAPAU_object@@PAU1@0@Z
	DD	01H
	ORG $+4
	DD	FLAT:??_C@_0BF@IFHDODFN@RenderAfterLensFlare@
	DD	FLAT:?backgroundRenderAfterLensFlare@@YAPAU_object@@PAU1@0@Z
	DD	01H
	ORG $+4
	DD	FLAT:??_C@_0BP@HPJLNAG@RenderCharacterShadowToTexture@
	DD	FLAT:?backgroundRenderCharacterShadowToTexture@@YAPAU_object@@PAU1@0@Z
	DD	01H
	ORG $+4
	DD	FLAT:??_C@_0O@INGOKFGH@RenderDungeon@
	DD	FLAT:?backgroundRenderDungeon@@YAPAU_object@@PAU1@0@Z
	DD	01H
	ORG $+4
	DD	FLAT:??_C@_09EOGEIJMK@GetHeight@
	DD	FLAT:?backgroundGetHeight@@YAPAU_object@@PAU1@0@Z
	DD	01H
	ORG $+4
	DD	FLAT:??_C@_0P@JLOPHJNK@SetShadowLevel@
	DD	FLAT:?backgroundSetShadowLevel@@YAPAU_object@@PAU1@0@Z
	DD	01H
	ORG $+4
	DD	FLAT:??_C@_0P@PBNEJLOP@SetVisiblePart@
	DD	FLAT:?backgroundSetVisiblePart@@YAPAU_object@@PAU1@0@Z
	DD	01H
	ORG $+4
	DD	FLAT:??_C@_0BC@CCJLGKJP@GetShadowMapColor@
	DD	FLAT:?backgroundGetShadowMapcolor@@YAPAU_object@@PAU1@0@Z
	DD	01H
	ORG $+4
	DD	FLAT:??_C@_0O@MBDLBPAA@SetSplatLimit@
	DD	FLAT:?backgroundSetSpaltLimit@@YAPAU_object@@PAU1@0@Z
	DD	01H
	ORG $+4
	DD	FLAT:??_C@_0BE@OLLMHPAP@GetRenderedSplatNum@
	DD	FLAT:?backgroundGetRenderedSplatNum@@YAPAU_object@@PAU1@0@Z
	DD	01H
	ORG $+4
	DD	FLAT:??_C@_0CD@KCFKJMJJ@GetRenderedGraphicThingInstance@
	DD	FLAT:?backgroundGetRenderedGTINum@@YAPAU_object@@PAU1@0@Z
	DD	01H
	ORG $+4
	DD	FLAT:??_C@_0BG@HJLACBME@SelectViewDistanceNum@
	DD	FLAT:?backgroundSelectViewDistanceNum@@YAPAU_object@@PAU1@0@Z
	DD	01H
	ORG $+4
	DD	FLAT:??_C@_0BD@MAFLMANF@SetViewDistanceSet@
	DD	FLAT:?backgroundSetViewDistanceSet@@YAPAU_object@@PAU1@0@Z
	DD	01H
	ORG $+4
	DD	FLAT:??_C@_0L@HDMJNMBI@GetFarClip@
	DD	FLAT:?backgroundGetFarClip@@YAPAU_object@@PAU1@0@Z
	DD	01H
	ORG $+4
	DD	FLAT:??_C@_0BD@DLMMDNAG@GetDistanceSetInfo@
	DD	FLAT:?backgroundGetDistanceSetInfo@@YAPAU_object@@PAU1@0@Z
	DD	01H
	ORG $+4
	DD	FLAT:??_C@_0N@BIHACEOH@SetBGLoading@
	DD	FLAT:?backgroundSetBGLoading@@YAPAU_object@@PAU1@0@Z
	DD	01H
	ORG $+4
	DD	FLAT:??_C@_0O@JBGHJBE@SetRenderSort@
	DD	FLAT:?backgroundSetRenderSort@@YAPAU_object@@PAU1@0@Z
	DD	01H
	ORG $+4
	DD	FLAT:??_C@_0BD@FPJHLEBA@SetTransparentTree@
	DD	FLAT:?backgroundSetTransparentTree@@YAPAU_object@@PAU1@0@Z
	DD	01H
	ORG $+4
	DD	FLAT:??_C@_0M@JALIDFKN@SetXMasTree@
	DD	FLAT:?backgroundSetXMasTree@@YAPAU_object@@PAU1@0@Z
	DD	01H
	ORG $+4
	DD	FLAT:??_C@_0BH@MNHHOIMG@RegisterDungeonMapName@
	DD	FLAT:?backgroundRegisterDungeonMapName@@YAPAU_object@@PAU1@0@Z
	DD	01H
	ORG $+4
	DD	FLAT:??_C@_0BB@CIANHCAN@VisibleGuildArea@
	DD	FLAT:?backgroundVisibleGuildArea@@YAPAU_object@@PAU1@0@Z
	DD	01H
	ORG $+4
	DD	FLAT:??_C@_0BB@NIDJGFIB@DisableGuildArea@
	DD	FLAT:?backgroundDisableGuildArea@@YAPAU_object@@PAU1@0@Z
	DD	01H
	ORG $+4
	DD	FLAT:??_C@_08LPNOKPMJ@WarpTest@
	DD	FLAT:?backgroundWarpTest@@YAPAU_object@@PAU1@0@Z
	DD	01H
	ORG $+4
	DD	FLAT:??_C@_0BC@BCAHAJED@SetEnvironmentFog@
	DD	FLAT:?backgroundSetEnvironmentFog@@YAPAU_object@@PAU1@0@Z
	DD	01H
	ORG $+4
	DD	FLAT:??_C@_09DGOGOLBN@IsBoomMap@
	DD	FLAT:?backgroundIsBoomMap@@YAPAU_object@@PAU1@0@Z
	DD	01H
	ORG $+4
	DD	FLAT:??_C@_0M@IJJMNJBM@SnowTexture@
	DD	FLAT:?backgroundSnowTexture@@YAPAU_object@@PAU1@0@Z
	DD	01H
	ORG $+4
	DD	FLAT:??_C@_0BD@IDCGKKBN@SetNightModeOption@
	DD	FLAT:?backgroundSetNightModeOption@@YAPAU_object@@PAU1@0@Z
	DD	01H
	ORG $+4
	DD	FLAT:??_C@_0L@MJMDEPGO@GetDayMode@
	DD	FLAT:?backgroundGetDayMode@@YAPAU_object@@PAU1@0@Z
	DD	01H
	ORG $+4
	DD	FLAT:??_C@_0BG@NDPMMCP@ChangeEnvironmentData@
	DD	FLAT:?backgroundChangeEnvironmentData@@YAPAU_object@@PAU1@0@Z
	DD	01H
	ORG $+4
	DD	FLAT:??_C@_0BF@GNKCMFCM@CreatePrivateShopPos@
	DD	FLAT:?backgroundCreatePrivateShopPos@@YAPAU_object@@PAU1@0@Z
	DD	01H
	ORG $+4
	DD	FLAT:??_C@_0BF@NACMAEBJ@DeletePrivateShopPos@
	DD	FLAT:?backgroundDeletePrivateShopPos@@YAPAU_object@@PAU1@0@Z
	DD	01H
	ORG $+4
	DD	00H
	DD	00H
	ORG $+8
_DATA	ENDS
;	COMDAT ??_C@_0N@CKPMLBKJ@TEXTURE_SORT@
CONST	SEGMENT
??_C@_0N@CKPMLBKJ@TEXTURE_SORT@ DB 'TEXTURE_SORT', 00H	; `string'
CONST	ENDS
;	COMDAT ??_C@_0O@OJDBENMM@DISTANCE_SORT@
CONST	SEGMENT
??_C@_0O@OJDBENMM@DISTANCE_SORT@ DB 'DISTANCE_SORT', 00H ; `string'
CONST	ENDS
;	COMDAT ??_C@_0O@ICODDOGP@DAY_MODE_DARK@
CONST	SEGMENT
??_C@_0O@ICODDOGP@DAY_MODE_DARK@ DB 'DAY_MODE_DARK', 00H ; `string'
CONST	ENDS
;	COMDAT ??_C@_0P@LKPKNHPP@DAY_MODE_LIGHT@
CONST	SEGMENT
??_C@_0P@LKPKNHPP@DAY_MODE_LIGHT@ DB 'DAY_MODE_LIGHT', 00H ; `string'
CONST	ENDS
;	COMDAT ??_C@_09JCDLMIGA@DISTANCE4@
CONST	SEGMENT
??_C@_09JCDLMIGA@DISTANCE4@ DB 'DISTANCE4', 00H		; `string'
CONST	ENDS
;	COMDAT ??_C@_09NNHKFOKH@DISTANCE3@
CONST	SEGMENT
??_C@_09NNHKFOKH@DISTANCE3@ DB 'DISTANCE3', 00H		; `string'
CONST	ENDS
;	COMDAT ??_C@_09MEGBGPOG@DISTANCE2@
CONST	SEGMENT
??_C@_09MEGBGPOG@DISTANCE2@ DB 'DISTANCE2', 00H		; `string'
CONST	ENDS
;	COMDAT ??_C@_09OPEMDMCF@DISTANCE1@
CONST	SEGMENT
??_C@_09OPEMDMCF@DISTANCE1@ DB 'DISTANCE1', 00H		; `string'
CONST	ENDS
;	COMDAT ??_C@_09PGFHANGE@DISTANCE0@
CONST	SEGMENT
??_C@_09PGFHANGE@DISTANCE0@ DB 'DISTANCE0', 00H		; `string'
CONST	ENDS
;	COMDAT ??_C@_0P@OLMEFOLC@SHADOW_ALL_MAX@
CONST	SEGMENT
??_C@_0P@OLMEFOLC@SHADOW_ALL_MAX@ DB 'SHADOW_ALL_MAX', 00H ; `string'
CONST	ENDS
;	COMDAT ??_C@_0BA@HAKJACB@SHADOW_ALL_HIGH@
CONST	SEGMENT
??_C@_0BA@HAKJACB@SHADOW_ALL_HIGH@ DB 'SHADOW_ALL_HIGH', 00H ; `string'
CONST	ENDS
;	COMDAT ??_C@_0L@IDBIEHAB@SHADOW_ALL@
CONST	SEGMENT
??_C@_0L@IDBIEHAB@SHADOW_ALL@ DB 'SHADOW_ALL', 00H	; `string'
CONST	ENDS
;	COMDAT ??_C@_0BH@GACINHHJ@SHADOW_GROUND_AND_SOLO@
CONST	SEGMENT
??_C@_0BH@GACINHHJ@SHADOW_GROUND_AND_SOLO@ DB 'SHADOW_GROUND_AND_SOLO', 00H ; `string'
CONST	ENDS
;	COMDAT ??_C@_0O@KCPINCHK@SHADOW_GROUND@
CONST	SEGMENT
??_C@_0O@KCPINCHK@SHADOW_GROUND@ DB 'SHADOW_GROUND', 00H ; `string'
CONST	ENDS
;	COMDAT ??_C@_0M@GJOLHPMA@SHADOW_NONE@
CONST	SEGMENT
??_C@_0M@GJOLHPMA@SHADOW_NONE@ DB 'SHADOW_NONE', 00H	; `string'
CONST	ENDS
;	COMDAT ??_C@_0BL@NHHJMELO@SKY_RENDER_MODE_MODULATE4X@
CONST	SEGMENT
??_C@_0BL@NHHJMELO@SKY_RENDER_MODE_MODULATE4X@ DB 'SKY_RENDER_MODE_MODULA'
	DB	'TE4X', 00H					; `string'
CONST	ENDS
;	COMDAT ??_C@_0BL@NDPELIAM@SKY_RENDER_MODE_MODULATE2X@
CONST	SEGMENT
??_C@_0BL@NDPELIAM@SKY_RENDER_MODE_MODULATE2X@ DB 'SKY_RENDER_MODE_MODULA'
	DB	'TE2X', 00H					; `string'
CONST	ENDS
;	COMDAT ??_C@_0BJ@IGDGIPGO@SKY_RENDER_MODE_MODULATE@
CONST	SEGMENT
??_C@_0BJ@IGDGIPGO@SKY_RENDER_MODE_MODULATE@ DB 'SKY_RENDER_MODE_MODULATE'
	DB	00H						; `string'
CONST	ENDS
;	COMDAT ??_C@_0BI@NLDLHPN@SKY_RENDER_MODE_TEXTURE@
CONST	SEGMENT
??_C@_0BI@NLDLHPN@SKY_RENDER_MODE_TEXTURE@ DB 'SKY_RENDER_MODE_TEXTURE', 00H ; `string'
CONST	ENDS
;	COMDAT ??_C@_0BI@JEJGCBJM@SKY_RENDER_MODE_DIFFUSE@
CONST	SEGMENT
??_C@_0BI@JEJGCBJM@SKY_RENDER_MODE_DIFFUSE@ DB 'SKY_RENDER_MODE_DIFFUSE', 00H ; `string'
CONST	ENDS
;	COMDAT ??_C@_0BI@KFLFFAKF@SKY_RENDER_MODE_DEFAULT@
CONST	SEGMENT
??_C@_0BI@KFLFFAKF@SKY_RENDER_MODE_DEFAULT@ DB 'SKY_RENDER_MODE_DEFAULT', 00H ; `string'
CONST	ENDS
;	COMDAT ??_C@_0N@JJNCMAMK@PART_TERRAIN@
CONST	SEGMENT
??_C@_0N@JJNCMAMK@PART_TERRAIN@ DB 'PART_TERRAIN', 00H	; `string'
CONST	ENDS
;	COMDAT ??_C@_0M@FDJPOPAP@PART_OBJECT@
CONST	SEGMENT
??_C@_0M@FDJPOPAP@PART_OBJECT@ DB 'PART_OBJECT', 00H	; `string'
CONST	ENDS
;	COMDAT ??_C@_0L@LEAFDIF@PART_WATER@
CONST	SEGMENT
??_C@_0L@LEAFDIF@PART_WATER@ DB 'PART_WATER', 00H	; `string'
CONST	ENDS
;	COMDAT ??_C@_0L@OMDBBBIA@PART_CLOUD@
CONST	SEGMENT
??_C@_0L@OMDBBBIA@PART_CLOUD@ DB 'PART_CLOUD', 00H	; `string'
CONST	ENDS
;	COMDAT ??_C@_09GABNPPB@PART_TREE@
CONST	SEGMENT
??_C@_09GABNPPB@PART_TREE@ DB 'PART_TREE', 00H		; `string'
CONST	ENDS
;	COMDAT ??_C@_08NJILKGEB@PART_SKY@
CONST	SEGMENT
??_C@_08NJILKGEB@PART_SKY@ DB 'PART_SKY', 00H		; `string'
CONST	ENDS
;	COMDAT ??_C@_0L@EGCKCJDC@background@
CONST	SEGMENT
??_C@_0L@EGCKCJDC@background@ DB 'background', 00H	; `string'
CONST	ENDS
;	COMDAT ??_C@_0BF@NACMAEBJ@DeletePrivateShopPos@
CONST	SEGMENT
??_C@_0BF@NACMAEBJ@DeletePrivateShopPos@ DB 'DeletePrivateShopPos', 00H ; `string'
CONST	ENDS
;	COMDAT ??_C@_0BF@GNKCMFCM@CreatePrivateShopPos@
CONST	SEGMENT
??_C@_0BF@GNKCMFCM@CreatePrivateShopPos@ DB 'CreatePrivateShopPos', 00H ; `string'
CONST	ENDS
;	COMDAT ??_C@_0BG@NDPMMCP@ChangeEnvironmentData@
CONST	SEGMENT
??_C@_0BG@NDPMMCP@ChangeEnvironmentData@ DB 'ChangeEnvironmentData', 00H ; `string'
CONST	ENDS
;	COMDAT ??_C@_0L@MJMDEPGO@GetDayMode@
CONST	SEGMENT
??_C@_0L@MJMDEPGO@GetDayMode@ DB 'GetDayMode', 00H	; `string'
CONST	ENDS
;	COMDAT ??_C@_0BD@IDCGKKBN@SetNightModeOption@
CONST	SEGMENT
??_C@_0BD@IDCGKKBN@SetNightModeOption@ DB 'SetNightModeOption', 00H ; `string'
CONST	ENDS
;	COMDAT ??_C@_0M@IJJMNJBM@SnowTexture@
CONST	SEGMENT
??_C@_0M@IJJMNJBM@SnowTexture@ DB 'SnowTexture', 00H	; `string'
CONST	ENDS
;	COMDAT ??_C@_09DGOGOLBN@IsBoomMap@
CONST	SEGMENT
??_C@_09DGOGOLBN@IsBoomMap@ DB 'IsBoomMap', 00H		; `string'
CONST	ENDS
;	COMDAT ??_C@_0BC@BCAHAJED@SetEnvironmentFog@
CONST	SEGMENT
??_C@_0BC@BCAHAJED@SetEnvironmentFog@ DB 'SetEnvironmentFog', 00H ; `string'
CONST	ENDS
;	COMDAT ??_C@_08LPNOKPMJ@WarpTest@
CONST	SEGMENT
??_C@_08LPNOKPMJ@WarpTest@ DB 'WarpTest', 00H		; `string'
CONST	ENDS
;	COMDAT ??_C@_0BB@NIDJGFIB@DisableGuildArea@
CONST	SEGMENT
??_C@_0BB@NIDJGFIB@DisableGuildArea@ DB 'DisableGuildArea', 00H ; `string'
CONST	ENDS
;	COMDAT ??_C@_0BB@CIANHCAN@VisibleGuildArea@
CONST	SEGMENT
??_C@_0BB@CIANHCAN@VisibleGuildArea@ DB 'VisibleGuildArea', 00H ; `string'
CONST	ENDS
;	COMDAT ??_C@_0BH@MNHHOIMG@RegisterDungeonMapName@
CONST	SEGMENT
??_C@_0BH@MNHHOIMG@RegisterDungeonMapName@ DB 'RegisterDungeonMapName', 00H ; `string'
CONST	ENDS
;	COMDAT ??_C@_0M@JALIDFKN@SetXMasTree@
CONST	SEGMENT
??_C@_0M@JALIDFKN@SetXMasTree@ DB 'SetXMasTree', 00H	; `string'
CONST	ENDS
;	COMDAT ??_C@_0BD@FPJHLEBA@SetTransparentTree@
CONST	SEGMENT
??_C@_0BD@FPJHLEBA@SetTransparentTree@ DB 'SetTransparentTree', 00H ; `string'
CONST	ENDS
;	COMDAT ??_C@_0O@JBGHJBE@SetRenderSort@
CONST	SEGMENT
??_C@_0O@JBGHJBE@SetRenderSort@ DB 'SetRenderSort', 00H	; `string'
CONST	ENDS
;	COMDAT ??_C@_0N@BIHACEOH@SetBGLoading@
CONST	SEGMENT
??_C@_0N@BIHACEOH@SetBGLoading@ DB 'SetBGLoading', 00H	; `string'
CONST	ENDS
;	COMDAT ??_C@_0BD@DLMMDNAG@GetDistanceSetInfo@
CONST	SEGMENT
??_C@_0BD@DLMMDNAG@GetDistanceSetInfo@ DB 'GetDistanceSetInfo', 00H ; `string'
CONST	ENDS
;	COMDAT ??_C@_0L@HDMJNMBI@GetFarClip@
CONST	SEGMENT
??_C@_0L@HDMJNMBI@GetFarClip@ DB 'GetFarClip', 00H	; `string'
CONST	ENDS
;	COMDAT ??_C@_0BD@MAFLMANF@SetViewDistanceSet@
CONST	SEGMENT
??_C@_0BD@MAFLMANF@SetViewDistanceSet@ DB 'SetViewDistanceSet', 00H ; `string'
CONST	ENDS
;	COMDAT ??_C@_0BG@HJLACBME@SelectViewDistanceNum@
CONST	SEGMENT
??_C@_0BG@HJLACBME@SelectViewDistanceNum@ DB 'SelectViewDistanceNum', 00H ; `string'
CONST	ENDS
;	COMDAT ??_C@_0CD@KCFKJMJJ@GetRenderedGraphicThingInstance@
CONST	SEGMENT
??_C@_0CD@KCFKJMJJ@GetRenderedGraphicThingInstance@ DB 'GetRenderedGraphi'
	DB	'cThingInstanceNum', 00H			; `string'
CONST	ENDS
;	COMDAT ??_C@_0BE@OLLMHPAP@GetRenderedSplatNum@
CONST	SEGMENT
??_C@_0BE@OLLMHPAP@GetRenderedSplatNum@ DB 'GetRenderedSplatNum', 00H ; `string'
CONST	ENDS
;	COMDAT ??_C@_0O@MBDLBPAA@SetSplatLimit@
CONST	SEGMENT
??_C@_0O@MBDLBPAA@SetSplatLimit@ DB 'SetSplatLimit', 00H ; `string'
CONST	ENDS
;	COMDAT ??_C@_0BC@CCJLGKJP@GetShadowMapColor@
CONST	SEGMENT
??_C@_0BC@CCJLGKJP@GetShadowMapColor@ DB 'GetShadowMapColor', 00H ; `string'
CONST	ENDS
;	COMDAT ??_C@_0P@PBNEJLOP@SetVisiblePart@
CONST	SEGMENT
??_C@_0P@PBNEJLOP@SetVisiblePart@ DB 'SetVisiblePart', 00H ; `string'
CONST	ENDS
;	COMDAT ??_C@_0P@JLOPHJNK@SetShadowLevel@
CONST	SEGMENT
??_C@_0P@JLOPHJNK@SetShadowLevel@ DB 'SetShadowLevel', 00H ; `string'
CONST	ENDS
;	COMDAT ??_C@_09EOGEIJMK@GetHeight@
CONST	SEGMENT
??_C@_09EOGEIJMK@GetHeight@ DB 'GetHeight', 00H		; `string'
CONST	ENDS
;	COMDAT ??_C@_0O@INGOKFGH@RenderDungeon@
CONST	SEGMENT
??_C@_0O@INGOKFGH@RenderDungeon@ DB 'RenderDungeon', 00H ; `string'
CONST	ENDS
;	COMDAT ??_C@_0BP@HPJLNAG@RenderCharacterShadowToTexture@
CONST	SEGMENT
??_C@_0BP@HPJLNAG@RenderCharacterShadowToTexture@ DB 'RenderCharacterShad'
	DB	'owToTexture', 00H				; `string'
CONST	ENDS
;	COMDAT ??_C@_0BF@IFHDODFN@RenderAfterLensFlare@
CONST	SEGMENT
??_C@_0BF@IFHDODFN@RenderAfterLensFlare@ DB 'RenderAfterLensFlare', 00H ; `string'
CONST	ENDS
;	COMDAT ??_C@_0BG@FMKIIHNL@RenderBeforeLensFlare@
CONST	SEGMENT
??_C@_0BG@FMKIIHNL@RenderBeforeLensFlare@ DB 'RenderBeforeLensFlare', 00H ; `string'
CONST	ENDS
;	COMDAT ??_C@_0N@NIFFJBKD@RenderEffect@
CONST	SEGMENT
??_C@_0N@NIFFJBKD@RenderEffect@ DB 'RenderEffect', 00H	; `string'
CONST	ENDS
;	COMDAT ??_C@_0M@FKCFAPAJ@RenderWater@
CONST	SEGMENT
??_C@_0M@FKCFAPAJ@RenderWater@ DB 'RenderWater', 00H	; `string'
CONST	ENDS
;	COMDAT ??_C@_0M@LNFEENAM@RenderCloud@
CONST	SEGMENT
??_C@_0M@LNFEENAM@RenderCloud@ DB 'RenderCloud', 00H	; `string'
CONST	ENDS
;	COMDAT ??_C@_09LFBELEBM@RenderSky@
CONST	SEGMENT
??_C@_09LFBELEBM@RenderSky@ DB 'RenderSky', 00H		; `string'
CONST	ENDS
;	COMDAT ??_C@_0BA@OAOAOPAN@RenderCollision@
CONST	SEGMENT
??_C@_0BA@OAOAOPAN@RenderCollision@ DB 'RenderCollision', 00H ; `string'
CONST	ENDS
;	COMDAT ??_C@_0BA@FDBALAKK@RenderPCBlocker@
CONST	SEGMENT
??_C@_0BA@FDBALAKK@RenderPCBlocker@ DB 'RenderPCBlocker', 00H ; `string'
CONST	ENDS
;	COMDAT ??_C@_0L@KIAPHAEH@Initialize@
CONST	SEGMENT
??_C@_0L@KIAPHAEH@Initialize@ DB 'Initialize', 00H	; `string'
CONST	ENDS
;	COMDAT ??_C@_0BG@PNPLCIKE@SetBackgroundDirLight@
CONST	SEGMENT
??_C@_0BG@PNPLCIKE@SetBackgroundDirLight@ DB 'SetBackgroundDirLight', 00H ; `string'
CONST	ENDS
;	COMDAT ??_C@_0BF@DFKOLKBM@SetCharacterDirLight@
CONST	SEGMENT
??_C@_0BF@DFKOLKBM@SetCharacterDirLight@ DB 'SetCharacterDirLight', 00H ; `string'
CONST	ENDS
;	COMDAT ??_C@_0P@DMJMMGKP@EndEnvironment@
CONST	SEGMENT
??_C@_0P@DMJMMGKP@EndEnvironment@ DB 'EndEnvironment', 00H ; `string'
CONST	ENDS
;	COMDAT ??_C@_0BB@JHBDNCLO@BeginEnvironment@
CONST	SEGMENT
??_C@_0BB@JHBDNCLO@BeginEnvironment@ DB 'BeginEnvironment', 00H ; `string'
CONST	ENDS
;	COMDAT ??_C@_0BA@DNJBOOGC@GetPickingPoint@
CONST	SEGMENT
??_C@_0BA@DNJBOOGC@GetPickingPoint@ DB 'GetPickingPoint', 00H ; `string'
CONST	ENDS
;	COMDAT ??_C@_0BC@DINKEDB@GetCurrentMapName@
CONST	SEGMENT
??_C@_0BC@DINKEDB@GetCurrentMapName@ DB 'GetCurrentMapName', 00H ; `string'
CONST	ENDS
;	COMDAT ??_C@_0BD@BHFOHELP@SetEnvironmentData@
CONST	SEGMENT
??_C@_0BD@BHFOHELP@SetEnvironmentData@ DB 'SetEnvironmentData', 00H ; `string'
CONST	ENDS
;	COMDAT ??_C@_0BI@CHPHFBLI@RegisterEnvironmentData@
CONST	SEGMENT
??_C@_0BI@CHPHFBLI@RegisterEnvironmentData@ DB 'RegisterEnvironmentData', 00H ; `string'
CONST	ENDS
;	COMDAT ??_C@_07BDCAJABG@Destroy@
CONST	SEGMENT
??_C@_07BDCAJABG@Destroy@ DB 'Destroy', 00H		; `string'
CONST	ENDS
;	COMDAT ??_C@_07DJFPJOEL@LoadMap@
CONST	SEGMENT
??_C@_07DJFPJOEL@LoadMap@ DB 'LoadMap', 00H		; `string'
CONST	ENDS
;	COMDAT ??_C@_0BE@LMGPCAD@GetRenderShadowTime@
CONST	SEGMENT
??_C@_0BE@LMGPCAD@GetRenderShadowTime@ DB 'GetRenderShadowTime', 00H ; `string'
CONST	ENDS
;	COMDAT ??_C@_0BI@NCKBLOGC@GlobalPositionToMapInfo@
CONST	SEGMENT
??_C@_0BI@NCKBLOGC@GlobalPositionToMapInfo@ DB 'GlobalPositionToMapInfo', 00H ; `string'
CONST	ENDS
;	COMDAT ??_C@_0BO@OIANPCLB@GlobalPositionToLocalPosition@
CONST	SEGMENT
??_C@_0BO@OIANPCLB@GlobalPositionToLocalPosition@ DB 'GlobalPositionToLoc'
	DB	'alPosition', 00H				; `string'
CONST	ENDS
;	COMDAT ??_C@_0L@LGAPBDCD@EnableSnow@
CONST	SEGMENT
??_C@_0L@LGAPBDCD@EnableSnow@ DB 'EnableSnow', 00H	; `string'
CONST	ENDS
;	COMDAT ??_C@_0DG@OLHBLANM@d?3?1ymir?5work?1effect?1etc?1directi@
CONST	SEGMENT
??_C@_0DG@OLHBLANM@d?3?1ymir?5work?1effect?1etc?1directi@ DB 'd:/ymir wor'
	DB	'k/effect/etc/direction/direction_land2.mse', 00H ; `string'
CONST	ENDS
;	COMDAT ??_C@_03FEAIAPNA@sii@
CONST	SEGMENT
??_C@_03FEAIAPNA@sii@ DB 'sii', 00H			; `string'
CONST	ENDS
;	COMDAT ??_C@_04MMEPMOLC@ifff@
CONST	SEGMENT
??_C@_04MMEPMOLC@ifff@ DB 'ifff', 00H			; `string'
CONST	ENDS
;	COMDAT ??_C@_0CL@HHHOJMJN@background?4SetSplatLimit?$CIiSplat@
CONST	SEGMENT
??_C@_0CL@HHHOJMJN@background?4SetSplatLimit?$CIiSplat@ DB 'background.Se'
	DB	'tSplatLimit(iSplatNum(%d)>=0)', 00H		; `string'
CONST	ENDS
;	COMDAT ??_C@_0CC@JHPGFABG@ePart?$CI?$CFd?$CJ?$DMbackground?4PART_NUM?$CI?$CF@
CONST	SEGMENT
??_C@_0CC@JHPGFABG@ePart?$CI?$CFd?$CJ?$DMbackground?4PART_NUM?$CI?$CF@ DB 'e'
	DB	'Part(%d)<background.PART_NUM(%d)', 00H	; `string'
CONST	ENDS
;	COMDAT ??_C@_04KDJJDIPA@iifs@
CONST	SEGMENT
??_C@_04KDJJDIPA@iifs@ DB 'iifs', 00H			; `string'
CONST	ENDS
;	COMDAT ??_C@_03JDANDILB@?$CFd?5@
CONST	SEGMENT
??_C@_03JDANDILB@?$CFd?5@ DB '%d ', 00H			; `string'
CONST	ENDS
;	COMDAT ??_C@_1IK@HKMGEBNG@?$AA?$CB?$AA?$CC?$AAb?$AAa?$AAc?$AAk?$AAg?$AAr?$AAo?$AAu?$AAn?$AAd?$AA?4?$AAR?$AAe@
CONST	SEGMENT
??_C@_1IK@HKMGEBNG@?$AA?$CB?$AA?$CC?$AAb?$AAa?$AAc?$AAk?$AAg?$AAr?$AAo?$AAu?$AAn?$AAd?$AA?4?$AAR?$AAe@ DB '!'
	DB	00H, '"', 00H, 'b', 00H, 'a', 00H, 'c', 00H, 'k', 00H, 'g', 00H
	DB	'r', 00H, 'o', 00H, 'u', 00H, 'n', 00H, 'd', 00H, '.', 00H, 'R'
	DB	00H, 'e', 00H, 'n', 00H, 'd', 00H, 'e', 00H, 'r', 00H, 'D', 00H
	DB	'u', 00H, 'n', 00H, 'g', 00H, 'e', 00H, 'o', 00H, 'n', 00H, '('
	DB	00H, ')', 00H, ' ', 00H, '-', 00H, ' ', 00H, 0bbH, 00H, 0e7H, 00H
	DB	0bfH, 00H, 0ebH, 00H, 0c7H, 00H, 0cfH, 00H, 0c1H, 00H, 0f6H, 00H
	DB	' ', 00H, 0beH, 00H, 0caH, 00H, 0b4H, 00H, 0c2H, 00H, ' ', 00H
	DB	0c7H, 00H, 0d4H, 00H, 0bcH, 00H, 0f6H, 00H, 0c0H, 00H, 0d4H, 00H
	DB	0b4H, 00H, 0cfH, 00H, 0b4H, 00H, 0d9H, 00H, ' ', 00H, '-', 00H
	DB	' ', 00H, '[', 00H, 'l', 00H, 'e', 00H, 'v', 00H, 'i', 00H, 't'
	DB	00H, 'e', 00H, 's', 00H, ']', 00H, '"', 00H, 00H, 00H ; `string'
CONST	ENDS
;	COMDAT ??_C@_1LG@NHPPDGAN@?$AAC?$AA?3?$AA?2?$AAA?$AAn?$AAk?$AAa?$AA2?$AAP?$AAr?$AAo?$AAj?$AAe?$AAc?$AAt@
CONST	SEGMENT
??_C@_1LG@NHPPDGAN@?$AAC?$AA?3?$AA?2?$AAA?$AAn?$AAk?$AAa?$AA2?$AAP?$AAr?$AAo?$AAj?$AAe?$AAc?$AAt@ DB 'C'
	DB	00H, ':', 00H, '\', 00H, 'A', 00H, 'n', 00H, 'k', 00H, 'a', 00H
	DB	'2', 00H, 'P', 00H, 'r', 00H, 'o', 00H, 'j', 00H, 'e', 00H, 'c'
	DB	00H, 't', 00H, '\', 00H, 'A', 00H, 'n', 00H, 'k', 00H, 'a', 00H
	DB	'2', 00H, 'P', 00H, 'r', 00H, 'o', 00H, 'j', 00H, 'e', 00H, 'c'
	DB	00H, 't', 00H, '\', 00H, 'S', 00H, 'o', 00H, 'u', 00H, 'r', 00H
	DB	'c', 00H, 'e', 00H, '\', 00H, 'B', 00H, 'i', 00H, 'n', 00H, 'a'
	DB	00H, 'r', 00H, 'y', 00H, '\', 00H, 's', 00H, 'o', 00H, 'u', 00H
	DB	'r', 00H, 'c', 00H, 'e', 00H, '\', 00H, 'U', 00H, 's', 00H, 'e'
	DB	00H, 'r', 00H, 'I', 00H, 'n', 00H, 't', 00H, 'e', 00H, 'r', 00H
	DB	'f', 00H, 'a', 00H, 'c', 00H, 'e', 00H, '\', 00H, 'P', 00H, 'y'
	DB	00H, 't', 00H, 'h', 00H, 'o', 00H, 'n', 00H, 'B', 00H, 'a', 00H
	DB	'c', 00H, 'k', 00H, 'g', 00H, 'r', 00H, 'o', 00H, 'u', 00H, 'n'
	DB	00H, 'd', 00H, 'M', 00H, 'o', 00H, 'd', 00H, 'u', 00H, 'l', 00H
	DB	'e', 00H, '.', 00H, 'c', 00H, 'p', 00H, 'p', 00H, 00H, 00H ; `string'
CONST	ENDS
;	COMDAT ??_C@_0EC@CPGNPFK@background?4RenderDungeon?$CI?$CJ?5?9?5?$LL?g@
CONST	SEGMENT
??_C@_0EC@CPGNPFK@background?4RenderDungeon?$CI?$CJ?5?9?5?$LL?g@ DB 'back'
	DB	'ground.RenderDungeon() - ', 0bbH, 0e7H, 0bfH, 0ebH, 0c7H, 0cfH
	DB	0c1H, 0f6H, ' ', 0beH, 0caH, 0b4H, 0c2H, ' ', 0c7H, 0d4H, 0bcH
	DB	0f6H, 0c0H, 0d4H, 0b4H, 0cfH, 0b4H, 0d9H, ' - [levites]', 00H ; `string'
CONST	ENDS
;	COMDAT ??_C@_03LPALPDIP@fff@
CONST	SEGMENT
??_C@_03LPALPDIP@fff@ DB 'fff', 00H			; `string'
CONST	ENDS
;	COMDAT ??_C@_0EI@HLELLDPI@background?4RegisterEnvironmentD@
CONST	SEGMENT
??_C@_0EI@HLELLDPI@background?4RegisterEnvironmentD@ DB 'background.Regis'
	DB	'terEnvironmentData(iIndex=%d, szEnvironmentFileName=%s)', 00H ; `string'
PUBLIC	??0?$_Vector_const_iterator@V?$_Vector_val@U?$_Simple_types@H@std@@@std@@@std@@QAE@PAHPBU_Container_base0@1@@Z ; std::_Vector_const_iterator<std::_Vector_val<std::_Simple_types<int> > >::_Vector_const_iterator<std::_Vector_val<std::_Simple_types<int> > >
PUBLIC	??D?$_Vector_const_iterator@V?$_Vector_val@U?$_Simple_types@H@std@@@std@@@std@@QBEABHXZ ; std::_Vector_const_iterator<std::_Vector_val<std::_Simple_types<int> > >::operator*
PUBLIC	??E?$_Vector_const_iterator@V?$_Vector_val@U?$_Simple_types@H@std@@@std@@@std@@QAEAAV01@XZ ; std::_Vector_const_iterator<std::_Vector_val<std::_Simple_types<int> > >::operator++
PUBLIC	?_Compat@?$_Vector_const_iterator@V?$_Vector_val@U?$_Simple_types@H@std@@@std@@@std@@QBEXABV12@@Z ; std::_Vector_const_iterator<std::_Vector_val<std::_Simple_types<int> > >::_Compat
PUBLIC	??$addressof@V?$_Vector_val@U?$_Simple_types@H@std@@@std@@@std@@YAPAV?$_Vector_val@U?$_Simple_types@H@std@@@0@AAV10@@Z ; std::addressof<std::_Vector_val<std::_Simple_types<int> > >
PUBLIC	?begin@?$vector@HV?$allocator@H@std@@@std@@QAE?AV?$_Vector_iterator@V?$_Vector_val@U?$_Simple_types@H@std@@@std@@@2@XZ ; std::vector<int,std::allocator<int> >::begin
PUBLIC	??0?$_Vector_iterator@V?$_Vector_val@U?$_Simple_types@H@std@@@std@@@std@@QAE@PAHPBU_Container_base0@1@@Z ; std::_Vector_iterator<std::_Vector_val<std::_Simple_types<int> > >::_Vector_iterator<std::_Vector_val<std::_Simple_types<int> > >
PUBLIC	?end@?$vector@HV?$allocator@H@std@@@std@@QAE?AV?$_Vector_iterator@V?$_Vector_val@U?$_Simple_types@H@std@@@std@@@2@XZ ; std::vector<int,std::allocator<int> >::end
PUBLIC	??D?$_Vector_iterator@V?$_Vector_val@U?$_Simple_types@H@std@@@std@@@std@@QBEAAHXZ ; std::_Vector_iterator<std::_Vector_val<std::_Simple_types<int> > >::operator*
PUBLIC	??E?$_Vector_iterator@V?$_Vector_val@U?$_Simple_types@H@std@@@std@@@std@@QAE?AV01@H@Z ; std::_Vector_iterator<std::_Vector_val<std::_Simple_types<int> > >::operator++
PUBLIC	??8?$_Vector_const_iterator@V?$_Vector_val@U?$_Simple_types@H@std@@@std@@@std@@QBE_NABV01@@Z ; std::_Vector_const_iterator<std::_Vector_val<std::_Simple_types<int> > >::operator==
PUBLIC	?initBackground@@YAXXZ				; initBackground
PUBLIC	?backgroundDeletePrivateShopPos@@YAPAU_object@@PAU1@0@Z ; backgroundDeletePrivateShopPos
PUBLIC	?backgroundCreatePrivateShopPos@@YAPAU_object@@PAU1@0@Z ; backgroundCreatePrivateShopPos
PUBLIC	?backgroundChangeEnvironmentData@@YAPAU_object@@PAU1@0@Z ; backgroundChangeEnvironmentData
PUBLIC	?backgroundGetDayMode@@YAPAU_object@@PAU1@0@Z	; backgroundGetDayMode
PUBLIC	?backgroundSnowTexture@@YAPAU_object@@PAU1@0@Z	; backgroundSnowTexture
PUBLIC	?backgroundSetNightModeOption@@YAPAU_object@@PAU1@0@Z ; backgroundSetNightModeOption
PUBLIC	?backgroundIsBoomMap@@YAPAU_object@@PAU1@0@Z	; backgroundIsBoomMap
PUBLIC	?backgroundSetEnvironmentFog@@YAPAU_object@@PAU1@0@Z ; backgroundSetEnvironmentFog
PUBLIC	?backgroundDisableGuildArea@@YAPAU_object@@PAU1@0@Z ; backgroundDisableGuildArea
PUBLIC	?backgroundVisibleGuildArea@@YAPAU_object@@PAU1@0@Z ; backgroundVisibleGuildArea
PUBLIC	?backgroundRegisterDungeonMapName@@YAPAU_object@@PAU1@0@Z ; backgroundRegisterDungeonMapName
PUBLIC	?backgroundSetXMasTree@@YAPAU_object@@PAU1@0@Z	; backgroundSetXMasTree
PUBLIC	?backgroundWarpTest@@YAPAU_object@@PAU1@0@Z	; backgroundWarpTest
PUBLIC	?backgroundGlobalPositionToMapInfo@@YAPAU_object@@PAU1@0@Z ; backgroundGlobalPositionToMapInfo
PUBLIC	?backgroundGlobalPositionToLocalPosition@@YAPAU_object@@PAU1@0@Z ; backgroundGlobalPositionToLocalPosition
PUBLIC	?backgroundSetTransparentTree@@YAPAU_object@@PAU1@0@Z ; backgroundSetTransparentTree
PUBLIC	?backgroundSetRenderSort@@YAPAU_object@@PAU1@0@Z ; backgroundSetRenderSort
PUBLIC	?backgroundSetBGLoading@@YAPAU_object@@PAU1@0@Z	; backgroundSetBGLoading
PUBLIC	?backgroundGetDistanceSetInfo@@YAPAU_object@@PAU1@0@Z ; backgroundGetDistanceSetInfo
PUBLIC	?backgroundGetFarClip@@YAPAU_object@@PAU1@0@Z	; backgroundGetFarClip
PUBLIC	?backgroundSetViewDistanceSet@@YAPAU_object@@PAU1@0@Z ; backgroundSetViewDistanceSet
PUBLIC	?backgroundSelectViewDistanceNum@@YAPAU_object@@PAU1@0@Z ; backgroundSelectViewDistanceNum
PUBLIC	?backgroundSetSpaltLimit@@YAPAU_object@@PAU1@0@Z ; backgroundSetSpaltLimit
PUBLIC	?backgroundSetVisiblePart@@YAPAU_object@@PAU1@0@Z ; backgroundSetVisiblePart
PUBLIC	?backgroundSetShadowLevel@@YAPAU_object@@PAU1@0@Z ; backgroundSetShadowLevel
PUBLIC	?backgroundGetShadowMapcolor@@YAPAU_object@@PAU1@0@Z ; backgroundGetShadowMapcolor
PUBLIC	?backgroundGetRenderShadowTime@@YAPAU_object@@PAU1@0@Z ; backgroundGetRenderShadowTime
PUBLIC	?backgroundGetRenderedGTINum@@YAPAU_object@@PAU1@0@Z ; backgroundGetRenderedGTINum
PUBLIC	?backgroundGetRenderedSplatNum@@YAPAU_object@@PAU1@0@Z ; backgroundGetRenderedSplatNum
PUBLIC	?backgroundGetHeight@@YAPAU_object@@PAU1@0@Z	; backgroundGetHeight
PUBLIC	?backgroundRenderDungeon@@YAPAU_object@@PAU1@0@Z ; backgroundRenderDungeon
PUBLIC	?backgroundRenderCharacterShadowToTexture@@YAPAU_object@@PAU1@0@Z ; backgroundRenderCharacterShadowToTexture
PUBLIC	?backgroundRenderAfterLensFlare@@YAPAU_object@@PAU1@0@Z ; backgroundRenderAfterLensFlare
PUBLIC	?backgroundRenderBeforeLensFlare@@YAPAU_object@@PAU1@0@Z ; backgroundRenderBeforeLensFlare
PUBLIC	?backgroundRenderEffect@@YAPAU_object@@PAU1@0@Z	; backgroundRenderEffect
PUBLIC	?backgroundRenderWater@@YAPAU_object@@PAU1@0@Z	; backgroundRenderWater
PUBLIC	?backgroundRenderCloud@@YAPAU_object@@PAU1@0@Z	; backgroundRenderCloud
PUBLIC	?backgroundRenderSky@@YAPAU_object@@PAU1@0@Z	; backgroundRenderSky
PUBLIC	?backgroundRenderCollision@@YAPAU_object@@PAU1@0@Z ; backgroundRenderCollision
PUBLIC	?backgroundRenderPCBlocker@@YAPAU_object@@PAU1@0@Z ; backgroundRenderPCBlocker
PUBLIC	?backgroundRender@@YAPAU_object@@PAU1@0@Z	; backgroundRender
PUBLIC	?backgroundUpdate@@YAPAU_object@@PAU1@0@Z	; backgroundUpdate
PUBLIC	?backgroundInitialize@@YAPAU_object@@PAU1@0@Z	; backgroundInitialize
PUBLIC	?backgroundSetBackgroundDirLight@@YAPAU_object@@PAU1@0@Z ; backgroundSetBackgroundDirLight
PUBLIC	?backgroundSetCharacterDirLight@@YAPAU_object@@PAU1@0@Z ; backgroundSetCharacterDirLight
PUBLIC	?backgroundEndEnvironemt@@YAPAU_object@@PAU1@0@Z ; backgroundEndEnvironemt
PUBLIC	?backgroundBeginEnvironment@@YAPAU_object@@PAU1@0@Z ; backgroundBeginEnvironment
PUBLIC	?backgroundGetPickingPoint@@YAPAU_object@@PAU1@0@Z ; backgroundGetPickingPoint
PUBLIC	?backgroundGetCurrentMapName@@YAPAU_object@@PAU1@0@Z ; backgroundGetCurrentMapName
PUBLIC	?backgroundSetEnvironmentData@@YAPAU_object@@PAU1@0@Z ; backgroundSetEnvironmentData
PUBLIC	?backgroundRegisterEnvironmentData@@YAPAU_object@@PAU1@0@Z ; backgroundRegisterEnvironmentData
PUBLIC	?backgroundDestroy@@YAPAU_object@@PAU1@0@Z	; backgroundDestroy
PUBLIC	?backgroundLoadMap@@YAPAU_object@@PAU1@0@Z	; backgroundLoadMap
PUBLIC	?backgroundEnableSnow@@YAPAU_object@@PAU1@0@Z	; backgroundEnableSnow
;	COMDAT xdata$x
xdata$x	SEGMENT
__ehfuncinfo$?backgroundLoadMap@@YAPAU_object@@PAU1@0@Z DD 019930522H
	DD	01H
	DD	FLAT:__unwindtable$?backgroundLoadMap@@YAPAU_object@@PAU1@0@Z
	DD	2 DUP(00H)
	DD	2 DUP(00H)
	DD	00H
	DD	01H
__unwindtable$?backgroundLoadMap@@YAPAU_object@@PAU1@0@Z DD 0ffffffffH
	DD	FLAT:__unwindfunclet$?backgroundLoadMap@@YAPAU_object@@PAU1@0@Z$0
xdata$x	ENDS
;	COMDAT xdata$x
xdata$x	SEGMENT
__ehfuncinfo$?backgroundSetEnvironmentData@@YAPAU_object@@PAU1@0@Z DQ 00000000119930522r ; 2.33398e-314
	DD	FLAT:__unwindtable$?backgroundSetEnvironmentData@@YAPAU_object@@PAU1@0@Z
	DQ	00000000000000000r		; 0
	DQ	00000000000000000r		; 0
	DQ	00000000100000000r		; 2.122e-314
__unwindtable$?backgroundSetEnvironmentData@@YAPAU_object@@PAU1@0@Z DD 0ffffffffH
	DD	FLAT:__unwindfunclet$?backgroundSetEnvironmentData@@YAPAU_object@@PAU1@0@Z$0
xdata$x	ENDS
;	COMDAT xdata$x
xdata$x	SEGMENT
__ehfuncinfo$?backgroundIsBoomMap@@YAPAU_object@@PAU1@0@Z DD 019930522H
	DD	01H
	DD	FLAT:__unwindtable$?backgroundIsBoomMap@@YAPAU_object@@PAU1@0@Z
	DD	2 DUP(00H)
	DD	2 DUP(00H)
	DD	00H
	DD	01H
__unwindtable$?backgroundIsBoomMap@@YAPAU_object@@PAU1@0@Z DD 0ffffffffH
	DD	FLAT:__unwindfunclet$?backgroundIsBoomMap@@YAPAU_object@@PAU1@0@Z$0
xdata$x	ENDS
;	COMDAT xdata$x
xdata$x	SEGMENT
__ehfuncinfo$?backgroundCreatePrivateShopPos@@YAPAU_object@@PAU1@0@Z DD 019930522H
	DD	01H
	DD	FLAT:__unwindtable$?backgroundCreatePrivateShopPos@@YAPAU_object@@PAU1@0@Z
	DD	2 DUP(00H)
	DD	2 DUP(00H)
	DD	00H
	DD	01H
__unwindtable$?backgroundCreatePrivateShopPos@@YAPAU_object@@PAU1@0@Z DD 0ffffffffH
	DD	FLAT:__unwindfunclet$?backgroundCreatePrivateShopPos@@YAPAU_object@@PAU1@0@Z$0
; Function compile flags: /Ogtp
; File C:\Anka2Project\Anka2Project\Source\Binary\source\UserInterface\PythonBackgroundModule.cpp
; File C:\Anka2Project\Anka2Project\Source\Binary\source\eterBase\Singleton.h
; File C:\Anka2Project\Anka2Project\Source\Binary\source\UserInterface\PythonBackgroundModule.cpp
; File C:\Program Files\Microsoft Visual Studio\2022\Community\VC\Tools\MSVC\14.44.35207\include\__msvc_string_view.hpp
; File C:\Anka2Project\Anka2Project\Source\Binary\source\UserInterface\PythonBackgroundModule.cpp
; File C:\Program Files\Microsoft Visual Studio\2022\Community\VC\Tools\MSVC\14.44.35207\include\__msvc_string_view.hpp
; File C:\Anka2Project\Anka2Project\Source\Binary\source\UserInterface\PythonBackgroundModule.cpp
; File C:\Program Files\Microsoft Visual Studio\2022\Community\VC\Tools\MSVC\14.44.35207\include\xstring
; File C:\Program Files\Microsoft Visual Studio\2022\Community\VC\Tools\MSVC\14.44.35207\include\__msvc_string_view.hpp
; File C:\Program Files\Microsoft Visual Studio\2022\Community\VC\Tools\MSVC\14.44.35207\include\xstring
; File C:\Anka2Project\Anka2Project\Source\Binary\source\UserInterface\PythonBackgroundModule.cpp
; File C:\Program Files\Microsoft Visual Studio\2022\Community\VC\Tools\MSVC\14.44.35207\include\xstring
; File C:\Program Files\Microsoft Visual Studio\2022\Community\VC\Tools\MSVC\14.44.35207\include\xmemory
; File C:\Program Files\Microsoft Visual Studio\2022\Community\VC\Tools\MSVC\14.44.35207\include\xstring
; File C:\Program Files\Microsoft Visual Studio\2022\Community\VC\Tools\MSVC\14.44.35207\include\xmemory
; File C:\Program Files\Microsoft Visual Studio\2022\Community\VC\Tools\MSVC\14.44.35207\include\xstring
; File C:\Anka2Project\Anka2Project\Source\Binary\source\UserInterface\PythonBackgroundModule.cpp
; File C:\Program Files\Microsoft Visual Studio\2022\Community\VC\Tools\MSVC\14.44.35207\include\xmemory
; File C:\Anka2Project\Anka2Project\Source\Binary\source\UserInterface\PythonBackgroundModule.cpp
;	COMDAT ?backgroundLoadMap@@YAPAU_object@@PAU1@0@Z
_TEXT	SEGMENT
tv298 = -72						; size = 4
tv297 = -68						; size = 4
tv296 = -64						; size = 4
tv308 = -60						; size = 4
_pszMapPathName$ = -56					; size = 4
_x$ = -52						; size = 4
_y$ = -48						; size = 4
_z$ = -44						; size = 4
$T2 = -40						; size = 24
__$ArrayPad$ = -16					; size = 4
__$EHRec$ = -12						; size = 12
_poSelf$ = 8						; size = 4
_poArgs$ = 12						; size = 4
?backgroundLoadMap@@YAPAU_object@@PAU1@0@Z PROC		; backgroundLoadMap, COMDAT

; 33   : {

  00000	55		 push	 ebp
  00001	8b ec		 mov	 ebp, esp
  00003	6a ff		 push	 -1
  00005	68 00 00 00 00	 push	 __ehhandler$?backgroundLoadMap@@YAPAU_object@@PAU1@0@Z
  0000a	64 a1 00 00 00
	00		 mov	 eax, DWORD PTR fs:0
  00010	50		 push	 eax
  00011	83 ec 3c	 sub	 esp, 60			; 0000003cH
  00014	a1 00 00 00 00	 mov	 eax, DWORD PTR ___security_cookie
  00019	33 c5		 xor	 eax, ebp
  0001b	89 45 f0	 mov	 DWORD PTR __$ArrayPad$[ebp], eax
  0001e	56		 push	 esi
  0001f	57		 push	 edi
  00020	50		 push	 eax
  00021	8d 45 f4	 lea	 eax, DWORD PTR __$EHRec$[ebp]
  00024	64 a3 00 00 00
	00		 mov	 DWORD PTR fs:0, eax
  0002a	8b 75 0c	 mov	 esi, DWORD PTR _poArgs$[ebp]

; 34   : 	char *pszMapPathName;
; 35   : 
; 36   : 	if (!PyTuple_GetString(poArgs, 0, &pszMapPathName))

  0002d	8d 45 c8	 lea	 eax, DWORD PTR _pszMapPathName$[ebp]
  00030	50		 push	 eax
  00031	6a 00		 push	 0
  00033	56		 push	 esi
  00034	e8 00 00 00 00	 call	 ?PyTuple_GetString@@YA_NPAU_object@@HPAPAD@Z ; PyTuple_GetString
  00039	83 c4 0c	 add	 esp, 12			; 0000000cH
  0003c	84 c0		 test	 al, al
  0003e	75 0a		 jne	 SHORT $LN2@background
$LN65@background:

; 54   : }

  00040	e8 00 00 00 00	 call	 ?Py_BadArgument@@YAPAU_object@@XZ ; Py_BadArgument
  00045	e9 3a 01 00 00	 jmp	 $LN1@background
$LN2@background:

; 37   : 		return Py_BadArgument();
; 38   : 
; 39   : 	float x, y, z;
; 40   : 
; 41   : 	if (!PyTuple_GetFloat(poArgs, 1, &x))

  0004a	8d 45 cc	 lea	 eax, DWORD PTR _x$[ebp]
  0004d	50		 push	 eax
  0004e	6a 01		 push	 1
  00050	56		 push	 esi
  00051	e8 00 00 00 00	 call	 ?PyTuple_GetFloat@@YA_NPAU_object@@HPAM@Z ; PyTuple_GetFloat
  00056	83 c4 0c	 add	 esp, 12			; 0000000cH
  00059	84 c0		 test	 al, al
  0005b	74 e3		 je	 SHORT $LN65@background

; 42   : 		return Py_BadArgument();
; 43   : 
; 44   : 	if (!PyTuple_GetFloat(poArgs, 2, &y))

  0005d	8d 45 d0	 lea	 eax, DWORD PTR _y$[ebp]
  00060	50		 push	 eax
  00061	6a 02		 push	 2
  00063	56		 push	 esi
  00064	e8 00 00 00 00	 call	 ?PyTuple_GetFloat@@YA_NPAU_object@@HPAM@Z ; PyTuple_GetFloat
  00069	83 c4 0c	 add	 esp, 12			; 0000000cH
  0006c	84 c0		 test	 al, al
  0006e	74 d0		 je	 SHORT $LN65@background

; 45   : 		return Py_BadArgument();
; 46   : 
; 47   : 	if (!PyTuple_GetFloat(poArgs, 3, &z))

  00070	8d 45 d4	 lea	 eax, DWORD PTR _z$[ebp]
  00073	50		 push	 eax
  00074	6a 03		 push	 3
  00076	56		 push	 esi
  00077	e8 00 00 00 00	 call	 ?PyTuple_GetFloat@@YA_NPAU_object@@HPAM@Z ; PyTuple_GetFloat
  0007c	83 c4 0c	 add	 esp, 12			; 0000000cH
  0007f	84 c0		 test	 al, al
  00081	74 bd		 je	 SHORT $LN65@background
; File C:\Anka2Project\Anka2Project\Source\Binary\source\eterBase\Singleton.h

; 26   : 		assert(ms_singleton);

  00083	8b 35 00 00 00
	00		 mov	 esi, DWORD PTR ?ms_singleton@?$CSingleton@VCPythonBackground@@@@0PAVCPythonBackground@@A ; CSingleton<CPythonBackground>::ms_singleton
  00089	85 f6		 test	 esi, esi
  0008b	75 1a		 jne	 SHORT $LN10@background
  0008d	6a 1a		 push	 26			; 0000001aH
  0008f	68 00 00 00 00	 push	 OFFSET ??_C@_1IO@CAJLEEOI@?$AAC?$AA?3?$AA?2?$AAA?$AAn?$AAk?$AAa?$AA2?$AAP?$AAr?$AAo?$AAj?$AAe?$AAc?$AAt@
  00094	68 00 00 00 00	 push	 OFFSET ??_C@_1BK@FMEHPMFE@?$AAm?$AAs?$AA_?$AAs?$AAi?$AAn?$AAg?$AAl?$AAe?$AAt?$AAo?$AAn@
  00099	e8 00 00 00 00	 call	 __wassert
  0009e	8b 35 00 00 00
	00		 mov	 esi, DWORD PTR ?ms_singleton@?$CSingleton@VCPythonBackground@@@@0PAVCPythonBackground@@A ; CSingleton<CPythonBackground>::ms_singleton
  000a4	83 c4 0c	 add	 esp, 12			; 0000000cH
$LN10@background:
; File C:\Anka2Project\Anka2Project\Source\Binary\source\UserInterface\PythonBackgroundModule.cpp

; 51   : 	rkBG.LoadMap(pszMapPathName, x, y, z);

  000a7	f3 0f 10 45 d4	 movss	 xmm0, DWORD PTR _z$[ebp]
  000ac	8b 06		 mov	 eax, DWORD PTR [esi]
; File C:\Program Files\Microsoft Visual Studio\2022\Community\VC\Tools\MSVC\14.44.35207\include\__msvc_string_view.hpp

; 456  :             return __builtin_strlen(_First);

  000ae	8b 55 c8	 mov	 edx, DWORD PTR _pszMapPathName$[ebp]
  000b1	8b ca		 mov	 ecx, edx
; File C:\Anka2Project\Anka2Project\Source\Binary\source\UserInterface\PythonBackgroundModule.cpp

; 51   : 	rkBG.LoadMap(pszMapPathName, x, y, z);

  000b3	f3 0f 11 45 c0	 movss	 DWORD PTR tv296[ebp], xmm0
  000b8	f3 0f 10 45 d0	 movss	 xmm0, DWORD PTR _y$[ebp]
  000bd	8b 78 0c	 mov	 edi, DWORD PTR [eax+12]
  000c0	f3 0f 11 45 bc	 movss	 DWORD PTR tv297[ebp], xmm0
; File C:\Program Files\Microsoft Visual Studio\2022\Community\VC\Tools\MSVC\14.44.35207\include\__msvc_string_view.hpp

; 456  :             return __builtin_strlen(_First);

  000c5	8d 41 01	 lea	 eax, DWORD PTR [ecx+1]
; File C:\Anka2Project\Anka2Project\Source\Binary\source\UserInterface\PythonBackgroundModule.cpp

; 51   : 	rkBG.LoadMap(pszMapPathName, x, y, z);

  000c8	f3 0f 10 45 cc	 movss	 xmm0, DWORD PTR _x$[ebp]
  000cd	f3 0f 11 45 b8	 movss	 DWORD PTR tv298[ebp], xmm0
  000d2	0f 57 c0	 xorps	 xmm0, xmm0
; File C:\Program Files\Microsoft Visual Studio\2022\Community\VC\Tools\MSVC\14.44.35207\include\xstring

; 493  :         _CONSTEXPR20 _Bxty() noexcept : _Buf() {} // user-provided, for fancy pointers

  000d5	0f 11 45 d8	 movups	 XMMWORD PTR $T2[ebp], xmm0

; 517  :     size_type _Mysize = 0; // current length of string (size)

  000d9	c7 45 e8 00 00
	00 00		 mov	 DWORD PTR $T2[ebp+16], 0

; 518  :     size_type _Myres  = 0; // current storage reserved for string (capacity)

  000e0	c7 45 ec 00 00
	00 00		 mov	 DWORD PTR $T2[ebp+20], 0
; File C:\Program Files\Microsoft Visual Studio\2022\Community\VC\Tools\MSVC\14.44.35207\include\__msvc_string_view.hpp

; 456  :             return __builtin_strlen(_First);

  000e7	89 45 c4	 mov	 DWORD PTR tv308[ebp], eax
  000ea	66 0f 1f 44 00
	00		 npad	 6
$LL62@background:
  000f0	8a 01		 mov	 al, BYTE PTR [ecx]
  000f2	41		 inc	 ecx
  000f3	84 c0		 test	 al, al
  000f5	75 f9		 jne	 SHORT $LL62@background
  000f7	2b 4d c4	 sub	 ecx, DWORD PTR tv308[ebp]
; File C:\Program Files\Microsoft Visual Studio\2022\Community\VC\Tools\MSVC\14.44.35207\include\xstring

; 769  :         _Construct<_Construct_strategy::_From_ptr>(_Ptr, _Convert_size<size_type>(_Traits::length(_Ptr)));

  000fa	51		 push	 ecx
  000fb	52		 push	 edx
  000fc	8d 4d d8	 lea	 ecx, DWORD PTR $T2[ebp]
  000ff	e8 00 00 00 00	 call	 ??$_Construct@$00PBD@?$basic_string@DU?$char_traits@D@std@@V?$allocator@D@2@@std@@AAEXQBDI@Z ; std::basic_string<char,std::char_traits<char>,std::allocator<char> >::_Construct<1,char const *>
; File C:\Anka2Project\Anka2Project\Source\Binary\source\UserInterface\PythonBackgroundModule.cpp

; 51   : 	rkBG.LoadMap(pszMapPathName, x, y, z);

  00104	f3 0f 10 45 c0	 movss	 xmm0, DWORD PTR tv296[ebp]
  00109	8d 45 d8	 lea	 eax, DWORD PTR $T2[ebp]
  0010c	83 ec 0c	 sub	 esp, 12			; 0000000cH
  0010f	c7 45 fc 00 00
	00 00		 mov	 DWORD PTR __$EHRec$[ebp+8], 0
  00116	8b ce		 mov	 ecx, esi
  00118	f3 0f 11 44 24
	08		 movss	 DWORD PTR [esp+8], xmm0
  0011e	f3 0f 10 45 bc	 movss	 xmm0, DWORD PTR tv297[ebp]
  00123	f3 0f 11 44 24
	04		 movss	 DWORD PTR [esp+4], xmm0
  00129	f3 0f 10 45 b8	 movss	 xmm0, DWORD PTR tv298[ebp]
  0012e	f3 0f 11 04 24	 movss	 DWORD PTR [esp], xmm0
  00133	50		 push	 eax
  00134	ff d7		 call	 edi
  00136	c7 45 fc ff ff
	ff ff		 mov	 DWORD PTR __$EHRec$[ebp+8], -1
; File C:\Program Files\Microsoft Visual Studio\2022\Community\VC\Tools\MSVC\14.44.35207\include\xstring

; 453  :         return _Myres > _Small_string_capacity;

  0013d	8b 4d ec	 mov	 ecx, DWORD PTR $T2[ebp+20]
  00140	83 f9 0f	 cmp	 ecx, 15			; 0000000fH

; 3083 :         if (_My_data._Large_mode_engaged()) {

  00143	76 28		 jbe	 SHORT $LN47@background
; File C:\Program Files\Microsoft Visual Studio\2022\Community\VC\Tools\MSVC\14.44.35207\include\xmemory

; 985  :         _STD _Deallocate<_New_alignof<_Ty>>(_Ptr, sizeof(_Ty) * _Count);

  00145	8b 55 d8	 mov	 edx, DWORD PTR $T2[ebp]
; File C:\Program Files\Microsoft Visual Studio\2022\Community\VC\Tools\MSVC\14.44.35207\include\xstring

; 852  :         _Al.deallocate(_Old_ptr, _Capacity + 1); // +1 for null terminator

  00148	41		 inc	 ecx
; File C:\Program Files\Microsoft Visual Studio\2022\Community\VC\Tools\MSVC\14.44.35207\include\xmemory

; 985  :         _STD _Deallocate<_New_alignof<_Ty>>(_Ptr, sizeof(_Ty) * _Count);

  00149	8b c2		 mov	 eax, edx

; 284  :         if (_Bytes >= _Big_allocation_threshold) {

  0014b	81 f9 00 10 00
	00		 cmp	 ecx, 4096		; 00001000H
  00151	72 10		 jb	 SHORT $LN55@background

; 205  :     const uintptr_t _Ptr_container   = _Ptr_user[-1];

  00153	8b 50 fc	 mov	 edx, DWORD PTR [eax-4]
  00156	83 c1 23	 add	 ecx, 35			; 00000023H
  00159	2b c2		 sub	 eax, edx

; 219  :     _STL_VERIFY(_Back_shift >= _Min_back_shift && _Back_shift <= _Non_user_size, "invalid argument");

  0015b	83 c0 fc	 add	 eax, -4			; fffffffcH
  0015e	83 f8 1f	 cmp	 eax, 31			; 0000001fH
  00161	77 3c		 ja	 SHORT $LN67@background
$LN55@background:

; 289  :         ::operator delete(_Ptr, _Bytes);

  00163	51		 push	 ecx
  00164	52		 push	 edx
  00165	e8 00 00 00 00	 call	 ??3@YAXPAXI@Z		; operator delete
  0016a	83 c4 08	 add	 esp, 8
$LN47@background:
; File C:\Program Files\Microsoft Visual Studio\2022\Community\VC\Tools\MSVC\14.44.35207\include\xstring

; 3090 :         _My_data._Mysize = 0;

  0016d	c7 45 e8 00 00
	00 00		 mov	 DWORD PTR $T2[ebp+16], 0

; 3091 :         _My_data._Myres  = _Small_string_capacity;

  00174	c7 45 ec 0f 00
	00 00		 mov	 DWORD PTR $T2[ebp+20], 15 ; 0000000fH

; 3092 :         // the _Traits::assign is last so the codegen doesn't think the char write can alias this
; 3093 :         _Traits::assign(_My_data._Bx._Buf[0], _Elem());

  0017b	c6 45 d8 00	 mov	 BYTE PTR $T2[ebp], 0
; File C:\Anka2Project\Anka2Project\Source\Binary\source\UserInterface\PythonBackgroundModule.cpp

; 53   : 	return Py_BuildNone();

  0017f	e8 00 00 00 00	 call	 ?Py_BuildNone@@YAPAU_object@@XZ ; Py_BuildNone
$LN1@background:

; 54   : }

  00184	8b 4d f4	 mov	 ecx, DWORD PTR __$EHRec$[ebp]
  00187	64 89 0d 00 00
	00 00		 mov	 DWORD PTR fs:0, ecx
  0018e	59		 pop	 ecx
  0018f	5f		 pop	 edi
  00190	5e		 pop	 esi
  00191	8b 4d f0	 mov	 ecx, DWORD PTR __$ArrayPad$[ebp]
  00194	33 cd		 xor	 ecx, ebp
  00196	e8 00 00 00 00	 call	 @__security_check_cookie@4
  0019b	8b e5		 mov	 esp, ebp
  0019d	5d		 pop	 ebp
  0019e	c3		 ret	 0
$LN67@background:
; File C:\Program Files\Microsoft Visual Studio\2022\Community\VC\Tools\MSVC\14.44.35207\include\xmemory

; 219  :     _STL_VERIFY(_Back_shift >= _Min_back_shift && _Back_shift <= _Non_user_size, "invalid argument");

  0019f	6a 00		 push	 0
  001a1	6a 00		 push	 0
  001a3	6a 00		 push	 0
  001a5	6a 00		 push	 0
  001a7	6a 00		 push	 0
  001a9	e8 00 00 00 00	 call	 __invoke_watson
$LN64@background:
  001ae	cc		 int	 3
_TEXT	ENDS
;	COMDAT text$x
text$x	SEGMENT
__unwindfunclet$?backgroundLoadMap@@YAPAU_object@@PAU1@0@Z$0:
  00000	8d 4d d8	 lea	 ecx, DWORD PTR $T2[ebp]
  00003	e9 00 00 00 00	 jmp	 ??1?$basic_string@DU?$char_traits@D@std@@V?$allocator@D@2@@std@@QAE@XZ ; std::basic_string<char,std::char_traits<char>,std::allocator<char> >::~basic_string<char,std::char_traits<char>,std::allocator<char> >
  00008	cc		 int	 3
  00009	cc		 int	 3
  0000a	cc		 int	 3
  0000b	cc		 int	 3
  0000c	cc		 int	 3
__ehhandler$?backgroundLoadMap@@YAPAU_object@@PAU1@0@Z:
  0000d	90		 npad	 1
  0000e	90		 npad	 1
  0000f	8b 54 24 08	 mov	 edx, DWORD PTR [esp+8]
  00013	8d 42 0c	 lea	 eax, DWORD PTR [edx+12]
  00016	8b 4a b8	 mov	 ecx, DWORD PTR [edx-72]
  00019	33 c8		 xor	 ecx, eax
  0001b	e8 00 00 00 00	 call	 @__security_check_cookie@4
  00020	8b 4a fc	 mov	 ecx, DWORD PTR [edx-4]
  00023	33 c8		 xor	 ecx, eax
  00025	e8 00 00 00 00	 call	 @__security_check_cookie@4
  0002a	b8 00 00 00 00	 mov	 eax, OFFSET __ehfuncinfo$?backgroundLoadMap@@YAPAU_object@@PAU1@0@Z
  0002f	e9 00 00 00 00	 jmp	 ___CxxFrameHandler3
text$x	ENDS
?backgroundLoadMap@@YAPAU_object@@PAU1@0@Z ENDP		; backgroundLoadMap
; Function compile flags: /Ogtp
; File C:\Anka2Project\Anka2Project\Source\Binary\source\UserInterface\PythonBackgroundModule.cpp
; File C:\Anka2Project\Anka2Project\Source\Binary\source\eterBase\Singleton.h
; File C:\Anka2Project\Anka2Project\Source\Binary\source\UserInterface\PythonBackgroundModule.cpp
;	COMDAT ?backgroundGetCurrentMapName@@YAPAU_object@@PAU1@0@Z
_TEXT	SEGMENT
_poSelf$ = 8						; size = 4
_poArgs$ = 12						; size = 4
?backgroundGetCurrentMapName@@YAPAU_object@@PAU1@0@Z PROC ; backgroundGetCurrentMapName, COMDAT
; File C:\Anka2Project\Anka2Project\Source\Binary\source\eterBase\Singleton.h

; 26   : 		assert(ms_singleton);

  00000	8b 0d 00 00 00
	00		 mov	 ecx, DWORD PTR ?ms_singleton@?$CSingleton@VCPythonBackground@@@@0PAVCPythonBackground@@A ; CSingleton<CPythonBackground>::ms_singleton
  00006	85 c9		 test	 ecx, ecx
  00008	75 1a		 jne	 SHORT $LN5@background
  0000a	6a 1a		 push	 26			; 0000001aH
  0000c	68 00 00 00 00	 push	 OFFSET ??_C@_1IO@CAJLEEOI@?$AAC?$AA?3?$AA?2?$AAA?$AAn?$AAk?$AAa?$AA2?$AAP?$AAr?$AAo?$AAj?$AAe?$AAc?$AAt@
  00011	68 00 00 00 00	 push	 OFFSET ??_C@_1BK@FMEHPMFE@?$AAm?$AAs?$AA_?$AAs?$AAi?$AAn?$AAg?$AAl?$AAe?$AAt?$AAo?$AAn@
  00016	e8 00 00 00 00	 call	 __wassert
  0001b	8b 0d 00 00 00
	00		 mov	 ecx, DWORD PTR ?ms_singleton@?$CSingleton@VCPythonBackground@@@@0PAVCPythonBackground@@A ; CSingleton<CPythonBackground>::ms_singleton
  00021	83 c4 0c	 add	 esp, 12			; 0000000cH
$LN5@background:
; File C:\Anka2Project\Anka2Project\Source\Binary\source\UserInterface\PythonBackgroundModule.cpp

; 112  : 	return Py_BuildValue("s", rkBG.GetWarpMapName());

  00024	e8 00 00 00 00	 call	 ?GetWarpMapName@CPythonBackground@@QAEPBDXZ ; CPythonBackground::GetWarpMapName
  00029	50		 push	 eax
  0002a	68 00 00 00 00	 push	 OFFSET ??_C@_01LKDEMHDF@s@
  0002f	ff 15 00 00 00
	00		 call	 DWORD PTR __imp__Py_BuildValue
  00035	83 c4 08	 add	 esp, 8

; 113  : }

  00038	c3		 ret	 0
?backgroundGetCurrentMapName@@YAPAU_object@@PAU1@0@Z ENDP ; backgroundGetCurrentMapName
_TEXT	ENDS
; Function compile flags: /Ogtp
; File C:\Anka2Project\Anka2Project\Source\Binary\source\UserInterface\PythonBackgroundModule.cpp
; File C:\Anka2Project\Anka2Project\Source\Binary\source\eterBase\Singleton.h
; File C:\Anka2Project\Anka2Project\Source\Binary\source\UserInterface\PythonBackgroundModule.cpp
; File C:\Anka2Project\Anka2Project\Source\Binary\extern\include\d3dx8math.inl
; File C:\Anka2Project\Anka2Project\Source\Binary\source\UserInterface\PythonBackgroundModule.cpp
; File C:\Anka2Project\Anka2Project\Source\Binary\extern\include\d3dx8math.inl
; File C:\Anka2Project\Anka2Project\Source\Binary\source\UserInterface\PythonBackgroundModule.cpp
;	COMDAT ?backgroundGetPickingPoint@@YAPAU_object@@PAU1@0@Z
_TEXT	SEGMENT
_kPPosPicked$ = -16					; size = 12
__$ArrayPad$ = -4					; size = 4
_poSelf$ = 8						; size = 4
_poArgs$ = 12						; size = 4
?backgroundGetPickingPoint@@YAPAU_object@@PAU1@0@Z PROC	; backgroundGetPickingPoint, COMDAT

; 116  : {

  00000	55		 push	 ebp
  00001	8b ec		 mov	 ebp, esp
  00003	83 e4 f8	 and	 esp, -8			; fffffff8H
  00006	83 ec 10	 sub	 esp, 16			; 00000010H
  00009	a1 00 00 00 00	 mov	 eax, DWORD PTR ___security_cookie
  0000e	33 c4		 xor	 eax, esp
  00010	89 44 24 0c	 mov	 DWORD PTR __$ArrayPad$[esp+16], eax
; File C:\Anka2Project\Anka2Project\Source\Binary\source\eterBase\Singleton.h

; 26   : 		assert(ms_singleton);

  00014	8b 0d 00 00 00
	00		 mov	 ecx, DWORD PTR ?ms_singleton@?$CSingleton@VCPythonBackground@@@@0PAVCPythonBackground@@A ; CSingleton<CPythonBackground>::ms_singleton
  0001a	85 c9		 test	 ecx, ecx
  0001c	75 1a		 jne	 SHORT $LN6@background
  0001e	6a 1a		 push	 26			; 0000001aH
  00020	68 00 00 00 00	 push	 OFFSET ??_C@_1IO@CAJLEEOI@?$AAC?$AA?3?$AA?2?$AAA?$AAn?$AAk?$AAa?$AA2?$AAP?$AAr?$AAo?$AAj?$AAe?$AAc?$AAt@
  00025	68 00 00 00 00	 push	 OFFSET ??_C@_1BK@FMEHPMFE@?$AAm?$AAs?$AA_?$AAs?$AAi?$AAn?$AAg?$AAl?$AAe?$AAt?$AAo?$AAn@
  0002a	e8 00 00 00 00	 call	 __wassert
  0002f	8b 0d 00 00 00
	00		 mov	 ecx, DWORD PTR ?ms_singleton@?$CSingleton@VCPythonBackground@@@@0PAVCPythonBackground@@A ; CSingleton<CPythonBackground>::ms_singleton
  00035	83 c4 0c	 add	 esp, 12			; 0000000cH
$LN6@background:
; File C:\Anka2Project\Anka2Project\Source\Binary\source\UserInterface\PythonBackgroundModule.cpp

; 119  : 	if (rkBG.GetPickingPoint(&kPPosPicked))

  00038	8d 04 24	 lea	 eax, DWORD PTR _kPPosPicked$[esp+16]
; File C:\Anka2Project\Anka2Project\Source\Binary\extern\include\d3dx8math.inl

; 180  :     x = fx;

  0003b	c7 04 24 00 00
	00 00		 mov	 DWORD PTR _kPPosPicked$[esp+16], 0
; File C:\Anka2Project\Anka2Project\Source\Binary\source\UserInterface\PythonBackgroundModule.cpp

; 119  : 	if (rkBG.GetPickingPoint(&kPPosPicked))

  00042	50		 push	 eax
; File C:\Anka2Project\Anka2Project\Source\Binary\extern\include\d3dx8math.inl

; 181  :     y = fy;

  00043	c7 44 24 08 00
	00 00 00	 mov	 DWORD PTR _kPPosPicked$[esp+24], 0

; 182  :     z = fz;

  0004b	c7 44 24 0c 00
	00 00 00	 mov	 DWORD PTR _kPPosPicked$[esp+28], 0
; File C:\Anka2Project\Anka2Project\Source\Binary\source\UserInterface\PythonBackgroundModule.cpp

; 119  : 	if (rkBG.GetPickingPoint(&kPPosPicked))

  00053	e8 00 00 00 00	 call	 ?GetPickingPoint@CPythonBackground@@QAE_NPAUD3DXVECTOR3@@@Z ; CPythonBackground::GetPickingPoint
  00058	f3 0f 10 4c 24
	04		 movss	 xmm1, DWORD PTR _kPPosPicked$[esp+20]
  0005e	84 c0		 test	 al, al
  00060	74 0d		 je	 SHORT $LN2@background

; 120  : 	{
; 121  : 		kPPosPicked.y=-kPPosPicked.y;

  00062	0f 57 0d 00 00
	00 00		 xorps	 xmm1, DWORD PTR __xmm@80000000800000008000000080000000
  00069	f3 0f 11 4c 24
	04		 movss	 DWORD PTR _kPPosPicked$[esp+20], xmm1
$LN2@background:

; 122  : 	}
; 123  : 	return Py_BuildValue("fff", kPPosPicked.x, kPPosPicked.y, kPPosPicked.z);

  0006f	f3 0f 10 44 24
	08		 movss	 xmm0, DWORD PTR _kPPosPicked$[esp+24]
  00075	83 ec 18	 sub	 esp, 24			; 00000018H
  00078	0f 5a c0	 cvtps2pd xmm0, xmm0
  0007b	f2 0f 11 44 24
	10		 movsd	 QWORD PTR [esp+16], xmm0
  00081	0f 57 c0	 xorps	 xmm0, xmm0
  00084	f3 0f 5a c1	 cvtss2sd xmm0, xmm1
  00088	f2 0f 11 44 24
	08		 movsd	 QWORD PTR [esp+8], xmm0
  0008e	f3 0f 10 44 24
	18		 movss	 xmm0, DWORD PTR _kPPosPicked$[esp+40]
  00094	0f 5a c0	 cvtps2pd xmm0, xmm0
  00097	f2 0f 11 04 24	 movsd	 QWORD PTR [esp], xmm0
  0009c	68 00 00 00 00	 push	 OFFSET ??_C@_03LPALPDIP@fff@
  000a1	ff 15 00 00 00
	00		 call	 DWORD PTR __imp__Py_BuildValue

; 124  : }

  000a7	8b 4c 24 28	 mov	 ecx, DWORD PTR __$ArrayPad$[esp+44]
  000ab	83 c4 1c	 add	 esp, 28			; 0000001cH
  000ae	33 cc		 xor	 ecx, esp
  000b0	e8 00 00 00 00	 call	 @__security_check_cookie@4
  000b5	8b e5		 mov	 esp, ebp
  000b7	5d		 pop	 ebp
  000b8	c3		 ret	 0
?backgroundGetPickingPoint@@YAPAU_object@@PAU1@0@Z ENDP	; backgroundGetPickingPoint
_TEXT	ENDS
; Function compile flags: /Ogtp
; File C:\Anka2Project\Anka2Project\Source\Binary\source\UserInterface\PythonBackgroundModule.cpp
; File C:\Anka2Project\Anka2Project\Source\Binary\source\eterBase\Singleton.h
; File C:\Anka2Project\Anka2Project\Source\Binary\source\UserInterface\PythonBackgroundModule.cpp
;	COMDAT ?backgroundGetHeight@@YAPAU_object@@PAU1@0@Z
_TEXT	SEGMENT
_fz$ = -12						; size = 4
_fx$ = -8						; size = 4
_fy$ = -4						; size = 4
_poSelf$ = 8						; size = 4
_poArgs$ = 12						; size = 4
?backgroundGetHeight@@YAPAU_object@@PAU1@0@Z PROC	; backgroundGetHeight, COMDAT

; 246  : {

  00000	55		 push	 ebp
  00001	8b ec		 mov	 ebp, esp
  00003	83 ec 0c	 sub	 esp, 12			; 0000000cH

; 247  : 	float fx;
; 248  : 	if (!PyTuple_GetFloat(poArgs, 0, &fx))

  00006	8d 45 f8	 lea	 eax, DWORD PTR _fx$[ebp]
  00009	50		 push	 eax
  0000a	6a 00		 push	 0
  0000c	ff 75 0c	 push	 DWORD PTR _poArgs$[ebp]
  0000f	e8 00 00 00 00	 call	 ?PyTuple_GetFloat@@YA_NPAU_object@@HPAM@Z ; PyTuple_GetFloat
  00014	83 c4 0c	 add	 esp, 12			; 0000000cH
  00017	84 c0		 test	 al, al
  00019	75 09		 jne	 SHORT $LN2@background
$LN8@background:

; 257  : }

  0001b	e8 00 00 00 00	 call	 ?Py_BadArgument@@YAPAU_object@@XZ ; Py_BadArgument
  00020	8b e5		 mov	 esp, ebp
  00022	5d		 pop	 ebp
  00023	c3		 ret	 0
$LN2@background:

; 249  : 		return Py_BadArgument();
; 250  : 
; 251  : 	float fy;
; 252  : 	if (!PyTuple_GetFloat(poArgs, 1, &fy))

  00024	8d 45 fc	 lea	 eax, DWORD PTR _fy$[ebp]
  00027	50		 push	 eax
  00028	6a 01		 push	 1
  0002a	ff 75 0c	 push	 DWORD PTR _poArgs$[ebp]
  0002d	e8 00 00 00 00	 call	 ?PyTuple_GetFloat@@YA_NPAU_object@@HPAM@Z ; PyTuple_GetFloat
  00032	83 c4 0c	 add	 esp, 12			; 0000000cH
  00035	84 c0		 test	 al, al
  00037	74 e2		 je	 SHORT $LN8@background
; File C:\Anka2Project\Anka2Project\Source\Binary\source\eterBase\Singleton.h

; 26   : 		assert(ms_singleton);

  00039	8b 0d 00 00 00
	00		 mov	 ecx, DWORD PTR ?ms_singleton@?$CSingleton@VCPythonBackground@@@@0PAVCPythonBackground@@A ; CSingleton<CPythonBackground>::ms_singleton
  0003f	85 c9		 test	 ecx, ecx
  00041	75 1a		 jne	 SHORT $LN7@background
  00043	6a 1a		 push	 26			; 0000001aH
  00045	68 00 00 00 00	 push	 OFFSET ??_C@_1IO@CAJLEEOI@?$AAC?$AA?3?$AA?2?$AAA?$AAn?$AAk?$AAa?$AA2?$AAP?$AAr?$AAo?$AAj?$AAe?$AAc?$AAt@
  0004a	68 00 00 00 00	 push	 OFFSET ??_C@_1BK@FMEHPMFE@?$AAm?$AAs?$AA_?$AAs?$AAi?$AAn?$AAg?$AAl?$AAe?$AAt?$AAo?$AAn@
  0004f	e8 00 00 00 00	 call	 __wassert
  00054	8b 0d 00 00 00
	00		 mov	 ecx, DWORD PTR ?ms_singleton@?$CSingleton@VCPythonBackground@@@@0PAVCPythonBackground@@A ; CSingleton<CPythonBackground>::ms_singleton
  0005a	83 c4 0c	 add	 esp, 12			; 0000000cH
$LN7@background:
; File C:\Anka2Project\Anka2Project\Source\Binary\source\UserInterface\PythonBackgroundModule.cpp

; 255  : 	float fz = CPythonBackground::Instance().GetHeight(fx, fy);

  0005d	f3 0f 10 45 fc	 movss	 xmm0, DWORD PTR _fy$[ebp]
  00062	83 ec 08	 sub	 esp, 8
  00065	f3 0f 10 4d f8	 movss	 xmm1, DWORD PTR _fx$[ebp]
  0006a	f3 0f 11 44 24
	04		 movss	 DWORD PTR [esp+4], xmm0
  00070	f3 0f 11 0c 24	 movss	 DWORD PTR [esp], xmm1
  00075	e8 00 00 00 00	 call	 ?GetHeight@CMapManager@@QAEMMM@Z ; CMapManager::GetHeight
  0007a	d9 5d f4	 fstp	 DWORD PTR _fz$[ebp]
  0007d	f3 0f 10 45 f4	 movss	 xmm0, DWORD PTR _fz$[ebp]

; 256  : 	return Py_BuildValue("f", fz);

  00082	83 ec 08	 sub	 esp, 8
  00085	0f 5a c0	 cvtps2pd xmm0, xmm0
  00088	f2 0f 11 04 24	 movsd	 QWORD PTR [esp], xmm0
  0008d	68 00 00 00 00	 push	 OFFSET ??_C@_01INIBCBCB@f@
  00092	ff 15 00 00 00
	00		 call	 DWORD PTR __imp__Py_BuildValue
  00098	83 c4 0c	 add	 esp, 12			; 0000000cH

; 257  : }

  0009b	8b e5		 mov	 esp, ebp
  0009d	5d		 pop	 ebp
  0009e	c3		 ret	 0
?backgroundGetHeight@@YAPAU_object@@PAU1@0@Z ENDP	; backgroundGetHeight
_TEXT	ENDS
; Function compile flags: /Ogtp
; File C:\Anka2Project\Anka2Project\Source\Binary\source\UserInterface\PythonBackgroundModule.cpp
; File C:\Anka2Project\Anka2Project\Source\Binary\source\eterBase\Singleton.h
; File C:\Anka2Project\Anka2Project\Source\Binary\source\UserInterface\PythonBackgroundModule.cpp
; File C:\Program Files\Microsoft Visual Studio\2022\Community\VC\Tools\MSVC\14.44.35207\include\vector
; File C:\Anka2Project\Anka2Project\Source\Binary\source\UserInterface\PythonBackgroundModule.cpp
; File C:\Program Files\Microsoft Visual Studio\2022\Community\VC\Tools\MSVC\14.44.35207\include\vector
; File C:\Anka2Project\Anka2Project\Source\Binary\source\UserInterface\PythonBackgroundModule.cpp
; File C:\Program Files\Microsoft Visual Studio\2022\Community\VC\Tools\MSVC\14.44.35207\include\vector
; File C:\Anka2Project\Anka2Project\Source\Binary\source\UserInterface\PythonBackgroundModule.cpp
; File C:\Program Files\Microsoft Visual Studio\2022\Community\VC\Tools\MSVC\14.44.35207\include\vector
; File C:\Anka2Project\Anka2Project\Source\Binary\source\UserInterface\PythonBackgroundModule.cpp
;	COMDAT ?backgroundGetRenderedSplatNum@@YAPAU_object@@PAU1@0@Z
_TEXT	SEGMENT
_iPatch$ = -276						; size = 4
_iSplat$ = -272						; size = 4
_fSplatRatio$ = -268					; size = 4
_szOutput$ = -264					; size = 260
__$ArrayPad$ = -4					; size = 4
_poSelf$ = 8						; size = 4
_poArgs$ = 12						; size = 4
?backgroundGetRenderedSplatNum@@YAPAU_object@@PAU1@0@Z PROC ; backgroundGetRenderedSplatNum, COMDAT

; 260  : {

  00000	55		 push	 ebp
  00001	8b ec		 mov	 ebp, esp
  00003	81 ec 14 01 00
	00		 sub	 esp, 276		; 00000114H
  00009	a1 00 00 00 00	 mov	 eax, DWORD PTR ___security_cookie
  0000e	33 c5		 xor	 eax, ebp
  00010	89 45 fc	 mov	 DWORD PTR __$ArrayPad$[ebp], eax
; File C:\Anka2Project\Anka2Project\Source\Binary\source\eterBase\Singleton.h

; 26   : 		assert(ms_singleton);

  00013	8b 0d 00 00 00
	00		 mov	 ecx, DWORD PTR ?ms_singleton@?$CSingleton@VCPythonBackground@@@@0PAVCPythonBackground@@A ; CSingleton<CPythonBackground>::ms_singleton
  00019	85 c9		 test	 ecx, ecx
  0001b	75 1a		 jne	 SHORT $LN8@background
  0001d	6a 1a		 push	 26			; 0000001aH
  0001f	68 00 00 00 00	 push	 OFFSET ??_C@_1IO@CAJLEEOI@?$AAC?$AA?3?$AA?2?$AAA?$AAn?$AAk?$AAa?$AA2?$AAP?$AAr?$AAo?$AAj?$AAe?$AAc?$AAt@
  00024	68 00 00 00 00	 push	 OFFSET ??_C@_1BK@FMEHPMFE@?$AAm?$AAs?$AA_?$AAs?$AAi?$AAn?$AAg?$AAl?$AAe?$AAt?$AAo?$AAn@
  00029	e8 00 00 00 00	 call	 __wassert
  0002e	8b 0d 00 00 00
	00		 mov	 ecx, DWORD PTR ?ms_singleton@?$CSingleton@VCPythonBackground@@@@0PAVCPythonBackground@@A ; CSingleton<CPythonBackground>::ms_singleton
  00034	83 c4 0c	 add	 esp, 12			; 0000000cH
$LN8@background:
  00037	53		 push	 ebx
  00038	56		 push	 esi
  00039	57		 push	 edi
; File C:\Anka2Project\Anka2Project\Source\Binary\source\UserInterface\PythonBackgroundModule.cpp

; 265  : 	std::vector<int> & aTextureNumVector = CPythonBackground::Instance().GetRenderedSplatNum(&iPatch, &iSplat, &fSplatRatio);

  0003a	8d 85 f4 fe ff
	ff		 lea	 eax, DWORD PTR _fSplatRatio$[ebp]
  00040	50		 push	 eax
  00041	8d 85 f0 fe ff
	ff		 lea	 eax, DWORD PTR _iSplat$[ebp]
  00047	50		 push	 eax
  00048	8d 85 ec fe ff
	ff		 lea	 eax, DWORD PTR _iPatch$[ebp]
  0004e	50		 push	 eax
  0004f	e8 00 00 00 00	 call	 ?GetRenderedSplatNum@CMapManager@@QAEAAV?$vector@HV?$allocator@H@std@@@std@@PAH0PAM@Z ; CMapManager::GetRenderedSplatNum

; 267  : 	char szOutput[MAX_PATH] = "";

  00054	68 03 01 00 00	 push	 259			; 00000103H
  00059	8b d8		 mov	 ebx, eax
  0005b	c6 85 f8 fe ff
	ff 00		 mov	 BYTE PTR _szOutput$[ebp], 0
  00062	8d 85 f9 fe ff
	ff		 lea	 eax, DWORD PTR _szOutput$[ebp+1]
  00068	6a 00		 push	 0
  0006a	50		 push	 eax
  0006b	e8 00 00 00 00	 call	 _memset
; File C:\Program Files\Microsoft Visual Studio\2022\Community\VC\Tools\MSVC\14.44.35207\include\vector

; 46   :     _CONSTEXPR20 _Vector_const_iterator(_Tptr _Parg, const _Container_base* _Pvector) noexcept : _Ptr(_Parg) {

  00070	8b 33		 mov	 esi, DWORD PTR [ebx]
; File C:\Anka2Project\Anka2Project\Source\Binary\source\UserInterface\PythonBackgroundModule.cpp

; 267  : 	char szOutput[MAX_PATH] = "";

  00072	83 c4 0c	 add	 esp, 12			; 0000000cH

; 268  : 	int iOutput = 0;

  00075	33 ff		 xor	 edi, edi
; File C:\Program Files\Microsoft Visual Studio\2022\Community\VC\Tools\MSVC\14.44.35207\include\vector

; 46   :     _CONSTEXPR20 _Vector_const_iterator(_Tptr _Parg, const _Container_base* _Pvector) noexcept : _Ptr(_Parg) {

  00077	3b 73 04	 cmp	 esi, DWORD PTR [ebx+4]
; File C:\Anka2Project\Anka2Project\Source\Binary\source\UserInterface\PythonBackgroundModule.cpp

; 269  : 	for( std::vector<int>::iterator it = aTextureNumVector.begin(); it != aTextureNumVector.end(); it++ )

  0007a	74 2e		 je	 SHORT $LN3@background
  0007c	0f 1f 40 00	 npad	 4
$LL4@background:

; 271  : 		iOutput += snprintf(szOutput + iOutput, sizeof(szOutput) - iOutput, "%d ", *it);

  00080	ff 36		 push	 DWORD PTR [esi]
  00082	b8 04 01 00 00	 mov	 eax, 260		; 00000104H
  00087	2b c7		 sub	 eax, edi
  00089	68 00 00 00 00	 push	 OFFSET ??_C@_03JDANDILB@?$CFd?5@
  0008e	50		 push	 eax
  0008f	8d 85 f8 fe ff
	ff		 lea	 eax, DWORD PTR _szOutput$[ebp]
  00095	03 c7		 add	 eax, edi
  00097	50		 push	 eax
  00098	e8 00 00 00 00	 call	 __snprintf
; File C:\Program Files\Microsoft Visual Studio\2022\Community\VC\Tools\MSVC\14.44.35207\include\vector

; 82   :         ++_Ptr;

  0009d	83 c6 04	 add	 esi, 4
; File C:\Anka2Project\Anka2Project\Source\Binary\source\UserInterface\PythonBackgroundModule.cpp

; 271  : 		iOutput += snprintf(szOutput + iOutput, sizeof(szOutput) - iOutput, "%d ", *it);

  000a0	83 c4 10	 add	 esp, 16			; 00000010H
  000a3	03 f8		 add	 edi, eax
; File C:\Program Files\Microsoft Visual Studio\2022\Community\VC\Tools\MSVC\14.44.35207\include\vector

; 166  :         return _Ptr == _Right._Ptr;

  000a5	3b 73 04	 cmp	 esi, DWORD PTR [ebx+4]
; File C:\Anka2Project\Anka2Project\Source\Binary\source\UserInterface\PythonBackgroundModule.cpp

; 269  : 	for( std::vector<int>::iterator it = aTextureNumVector.begin(); it != aTextureNumVector.end(); it++ )

  000a8	75 d6		 jne	 SHORT $LL4@background
$LN3@background:
  000aa	f3 0f 10 85 f4
	fe ff ff	 movss	 xmm0, DWORD PTR _fSplatRatio$[ebp]

; 272  : 	}
; 273  : 
; 274  : 	return Py_BuildValue("iifs", iPatch, iSplat, fSplatRatio, szOutput);

  000b2	8d 85 f8 fe ff
	ff		 lea	 eax, DWORD PTR _szOutput$[ebp]
  000b8	50		 push	 eax
  000b9	0f 5a c0	 cvtps2pd xmm0, xmm0
  000bc	83 ec 08	 sub	 esp, 8
  000bf	f2 0f 11 04 24	 movsd	 QWORD PTR [esp], xmm0
  000c4	ff b5 f0 fe ff
	ff		 push	 DWORD PTR _iSplat$[ebp]
  000ca	ff b5 ec fe ff
	ff		 push	 DWORD PTR _iPatch$[ebp]
  000d0	68 00 00 00 00	 push	 OFFSET ??_C@_04KDJJDIPA@iifs@
  000d5	ff 15 00 00 00
	00		 call	 DWORD PTR __imp__Py_BuildValue

; 275  : }

  000db	8b 4d fc	 mov	 ecx, DWORD PTR __$ArrayPad$[ebp]
  000de	83 c4 18	 add	 esp, 24			; 00000018H
  000e1	33 cd		 xor	 ecx, ebp
  000e3	5f		 pop	 edi
  000e4	5e		 pop	 esi
  000e5	5b		 pop	 ebx
  000e6	e8 00 00 00 00	 call	 @__security_check_cookie@4
  000eb	8b e5		 mov	 esp, ebp
  000ed	5d		 pop	 ebp
  000ee	c3		 ret	 0
?backgroundGetRenderedSplatNum@@YAPAU_object@@PAU1@0@Z ENDP ; backgroundGetRenderedSplatNum
_TEXT	ENDS
; Function compile flags: /Ogtp
; File C:\Anka2Project\Anka2Project\Source\Binary\source\UserInterface\PythonBackgroundModule.cpp
; File C:\Anka2Project\Anka2Project\Source\Binary\source\eterBase\Singleton.h
; File C:\Anka2Project\Anka2Project\Source\Binary\source\UserInterface\PythonBackgroundModule.cpp
; File C:\Anka2Project\Anka2Project\Source\Binary\source\eterBase\Singleton.h
; File C:\Anka2Project\Anka2Project\Source\Binary\source\UserInterface\PythonBackgroundModule.cpp
;	COMDAT ?backgroundGetRenderedGTINum@@YAPAU_object@@PAU1@0@Z
_TEXT	SEGMENT
_dwGraphicThingInstanceNum$ = -8			; size = 4
_dwCRCNum$ = -4						; size = 4
_poSelf$ = 8						; size = 4
_poArgs$ = 12						; size = 4
?backgroundGetRenderedGTINum@@YAPAU_object@@PAU1@0@Z PROC ; backgroundGetRenderedGTINum, COMDAT

; 278  : {

  00000	55		 push	 ebp
  00001	8b ec		 mov	 ebp, esp
; File C:\Anka2Project\Anka2Project\Source\Binary\source\eterBase\Singleton.h

; 26   : 		assert(ms_singleton);

  00003	8b 0d 00 00 00
	00		 mov	 ecx, DWORD PTR ?ms_singleton@?$CSingleton@VCPythonBackground@@@@0PAVCPythonBackground@@A ; CSingleton<CPythonBackground>::ms_singleton
; File C:\Anka2Project\Anka2Project\Source\Binary\source\UserInterface\PythonBackgroundModule.cpp

; 278  : {

  00009	83 ec 08	 sub	 esp, 8
; File C:\Anka2Project\Anka2Project\Source\Binary\source\eterBase\Singleton.h

; 26   : 		assert(ms_singleton);

  0000c	85 c9		 test	 ecx, ecx
  0000e	75 1a		 jne	 SHORT $LN5@background
  00010	6a 1a		 push	 26			; 0000001aH
  00012	68 00 00 00 00	 push	 OFFSET ??_C@_1IO@CAJLEEOI@?$AAC?$AA?3?$AA?2?$AAA?$AAn?$AAk?$AAa?$AA2?$AAP?$AAr?$AAo?$AAj?$AAe?$AAc?$AAt@
  00017	68 00 00 00 00	 push	 OFFSET ??_C@_1BK@FMEHPMFE@?$AAm?$AAs?$AA_?$AAs?$AAi?$AAn?$AAg?$AAl?$AAe?$AAt?$AAo?$AAn@
  0001c	e8 00 00 00 00	 call	 __wassert
  00021	8b 0d 00 00 00
	00		 mov	 ecx, DWORD PTR ?ms_singleton@?$CSingleton@VCPythonBackground@@@@0PAVCPythonBackground@@A ; CSingleton<CPythonBackground>::ms_singleton
  00027	83 c4 0c	 add	 esp, 12			; 0000000cH
$LN5@background:
; File C:\Anka2Project\Anka2Project\Source\Binary\source\UserInterface\PythonBackgroundModule.cpp

; 282  : 	CPythonBackground::Instance().GetRenderedGraphicThingInstanceNum(&dwGraphicThingInstanceNum, &dwCRCNum);

  0002a	8d 45 fc	 lea	 eax, DWORD PTR _dwCRCNum$[ebp]
  0002d	50		 push	 eax
  0002e	8d 45 f8	 lea	 eax, DWORD PTR _dwGraphicThingInstanceNum$[ebp]
  00031	50		 push	 eax
  00032	e8 00 00 00 00	 call	 ?GetRenderedGraphicThingInstanceNum@CMapManager@@QAEAAV?$vector@USCRCWithNumber@CArea@@V?$allocator@USCRCWithNumber@CArea@@@std@@@std@@PAK0@Z ; CMapManager::GetRenderedGraphicThingInstanceNum

; 283  : 
; 284  : 	return Py_BuildValue("ii", dwGraphicThingInstanceNum, dwCRCNum);

  00037	ff 75 fc	 push	 DWORD PTR _dwCRCNum$[ebp]
  0003a	ff 75 f8	 push	 DWORD PTR _dwGraphicThingInstanceNum$[ebp]
  0003d	68 00 00 00 00	 push	 OFFSET ??_C@_02PDIHAGKM@ii@
  00042	ff 15 00 00 00
	00		 call	 DWORD PTR __imp__Py_BuildValue
  00048	83 c4 0c	 add	 esp, 12			; 0000000cH

; 285  : }

  0004b	8b e5		 mov	 esp, ebp
  0004d	5d		 pop	 ebp
  0004e	c3		 ret	 0
?backgroundGetRenderedGTINum@@YAPAU_object@@PAU1@0@Z ENDP ; backgroundGetRenderedGTINum
_TEXT	ENDS
; Function compile flags: /Ogtp
; File C:\Anka2Project\Anka2Project\Source\Binary\source\UserInterface\PythonBackgroundModule.cpp
; File C:\Anka2Project\Anka2Project\Source\Binary\source\eterBase\Singleton.h
; File C:\Anka2Project\Anka2Project\Source\Binary\source\UserInterface\PythonBackgroundModule.cpp
;	COMDAT ?backgroundGetRenderShadowTime@@YAPAU_object@@PAU1@0@Z
_TEXT	SEGMENT
_poSelf$ = 8						; size = 4
_poArgs$ = 12						; size = 4
?backgroundGetRenderShadowTime@@YAPAU_object@@PAU1@0@Z PROC ; backgroundGetRenderShadowTime, COMDAT
; File C:\Anka2Project\Anka2Project\Source\Binary\source\eterBase\Singleton.h

; 26   : 		assert(ms_singleton);

  00000	8b 0d 00 00 00
	00		 mov	 ecx, DWORD PTR ?ms_singleton@?$CSingleton@VCPythonBackground@@@@0PAVCPythonBackground@@A ; CSingleton<CPythonBackground>::ms_singleton
  00006	85 c9		 test	 ecx, ecx
  00008	75 1a		 jne	 SHORT $LN5@background
  0000a	6a 1a		 push	 26			; 0000001aH
  0000c	68 00 00 00 00	 push	 OFFSET ??_C@_1IO@CAJLEEOI@?$AAC?$AA?3?$AA?2?$AAA?$AAn?$AAk?$AAa?$AA2?$AAP?$AAr?$AAo?$AAj?$AAe?$AAc?$AAt@
  00011	68 00 00 00 00	 push	 OFFSET ??_C@_1BK@FMEHPMFE@?$AAm?$AAs?$AA_?$AAs?$AAi?$AAn?$AAg?$AAl?$AAe?$AAt?$AAo?$AAn@
  00016	e8 00 00 00 00	 call	 __wassert
  0001b	8b 0d 00 00 00
	00		 mov	 ecx, DWORD PTR ?ms_singleton@?$CSingleton@VCPythonBackground@@@@0PAVCPythonBackground@@A ; CSingleton<CPythonBackground>::ms_singleton
  00021	83 c4 0c	 add	 esp, 12			; 0000000cH
$LN5@background:
; File C:\Anka2Project\Anka2Project\Source\Binary\source\UserInterface\PythonBackgroundModule.cpp

; 290  : 	return Py_BuildValue("i", rkBG.GetRenderShadowTime());

  00024	e8 00 00 00 00	 call	 ?GetRenderShadowTime@CPythonBackground@@QAEKXZ ; CPythonBackground::GetRenderShadowTime
  00029	50		 push	 eax
  0002a	68 00 00 00 00	 push	 OFFSET ??_C@_01KBJDNOO@i@
  0002f	ff 15 00 00 00
	00		 call	 DWORD PTR __imp__Py_BuildValue
  00035	83 c4 08	 add	 esp, 8

; 291  : }

  00038	c3		 ret	 0
?backgroundGetRenderShadowTime@@YAPAU_object@@PAU1@0@Z ENDP ; backgroundGetRenderShadowTime
_TEXT	ENDS
; Function compile flags: /Ogtp
; File C:\Anka2Project\Anka2Project\Source\Binary\source\UserInterface\PythonBackgroundModule.cpp
; File C:\Anka2Project\Anka2Project\Source\Binary\source\eterBase\Singleton.h
; File C:\Anka2Project\Anka2Project\Source\Binary\source\UserInterface\PythonBackgroundModule.cpp
;	COMDAT ?backgroundGetShadowMapcolor@@YAPAU_object@@PAU1@0@Z
_TEXT	SEGMENT
_fx$ = -8						; size = 4
_fy$ = -4						; size = 4
_poSelf$ = 8						; size = 4
_poArgs$ = 12						; size = 4
?backgroundGetShadowMapcolor@@YAPAU_object@@PAU1@0@Z PROC ; backgroundGetShadowMapcolor, COMDAT

; 294  : {

  00000	55		 push	 ebp
  00001	8b ec		 mov	 ebp, esp
  00003	83 ec 08	 sub	 esp, 8

; 295  : 	float fx;
; 296  : 	if (!PyTuple_GetFloat(poArgs, 0, &fx))

  00006	8d 45 f8	 lea	 eax, DWORD PTR _fx$[ebp]
  00009	50		 push	 eax
  0000a	6a 00		 push	 0
  0000c	ff 75 0c	 push	 DWORD PTR _poArgs$[ebp]
  0000f	e8 00 00 00 00	 call	 ?PyTuple_GetFloat@@YA_NPAU_object@@HPAM@Z ; PyTuple_GetFloat
  00014	83 c4 0c	 add	 esp, 12			; 0000000cH
  00017	84 c0		 test	 al, al
  00019	75 09		 jne	 SHORT $LN2@background
$LN8@background:

; 305  : }

  0001b	e8 00 00 00 00	 call	 ?Py_BadArgument@@YAPAU_object@@XZ ; Py_BadArgument
  00020	8b e5		 mov	 esp, ebp
  00022	5d		 pop	 ebp
  00023	c3		 ret	 0
$LN2@background:

; 297  : 		return Py_BadArgument();
; 298  : 
; 299  : 	float fy;
; 300  : 	if (!PyTuple_GetFloat(poArgs, 1, &fy))

  00024	8d 45 fc	 lea	 eax, DWORD PTR _fy$[ebp]
  00027	50		 push	 eax
  00028	6a 01		 push	 1
  0002a	ff 75 0c	 push	 DWORD PTR _poArgs$[ebp]
  0002d	e8 00 00 00 00	 call	 ?PyTuple_GetFloat@@YA_NPAU_object@@HPAM@Z ; PyTuple_GetFloat
  00032	83 c4 0c	 add	 esp, 12			; 0000000cH
  00035	84 c0		 test	 al, al
  00037	74 e2		 je	 SHORT $LN8@background
; File C:\Anka2Project\Anka2Project\Source\Binary\source\eterBase\Singleton.h

; 26   : 		assert(ms_singleton);

  00039	8b 0d 00 00 00
	00		 mov	 ecx, DWORD PTR ?ms_singleton@?$CSingleton@VCPythonBackground@@@@0PAVCPythonBackground@@A ; CSingleton<CPythonBackground>::ms_singleton
  0003f	85 c9		 test	 ecx, ecx
  00041	75 1a		 jne	 SHORT $LN7@background
  00043	6a 1a		 push	 26			; 0000001aH
  00045	68 00 00 00 00	 push	 OFFSET ??_C@_1IO@CAJLEEOI@?$AAC?$AA?3?$AA?2?$AAA?$AAn?$AAk?$AAa?$AA2?$AAP?$AAr?$AAo?$AAj?$AAe?$AAc?$AAt@
  0004a	68 00 00 00 00	 push	 OFFSET ??_C@_1BK@FMEHPMFE@?$AAm?$AAs?$AA_?$AAs?$AAi?$AAn?$AAg?$AAl?$AAe?$AAt?$AAo?$AAn@
  0004f	e8 00 00 00 00	 call	 __wassert
  00054	8b 0d 00 00 00
	00		 mov	 ecx, DWORD PTR ?ms_singleton@?$CSingleton@VCPythonBackground@@@@0PAVCPythonBackground@@A ; CSingleton<CPythonBackground>::ms_singleton
  0005a	83 c4 0c	 add	 esp, 12			; 0000000cH
$LN7@background:
; File C:\Anka2Project\Anka2Project\Source\Binary\source\UserInterface\PythonBackgroundModule.cpp

; 303  : 	DWORD dwColor = CPythonBackground::Instance().GetShadowMapColor(fx, fy);

  0005d	f3 0f 10 45 fc	 movss	 xmm0, DWORD PTR _fy$[ebp]
  00062	83 ec 08	 sub	 esp, 8
  00065	f3 0f 10 4d f8	 movss	 xmm1, DWORD PTR _fx$[ebp]
  0006a	f3 0f 11 44 24
	04		 movss	 DWORD PTR [esp+4], xmm0
  00070	f3 0f 11 0c 24	 movss	 DWORD PTR [esp], xmm1
  00075	e8 00 00 00 00	 call	 ?GetShadowMapColor@CMapManager@@QAEKMM@Z ; CMapManager::GetShadowMapColor

; 304  : 	return Py_BuildValue("i", dwColor);

  0007a	50		 push	 eax
  0007b	68 00 00 00 00	 push	 OFFSET ??_C@_01KBJDNOO@i@
  00080	ff 15 00 00 00
	00		 call	 DWORD PTR __imp__Py_BuildValue
  00086	83 c4 08	 add	 esp, 8

; 305  : }

  00089	8b e5		 mov	 esp, ebp
  0008b	5d		 pop	 ebp
  0008c	c3		 ret	 0
?backgroundGetShadowMapcolor@@YAPAU_object@@PAU1@0@Z ENDP ; backgroundGetShadowMapcolor
_TEXT	ENDS
; Function compile flags: /Ogtp
; File C:\Anka2Project\Anka2Project\Source\Binary\source\UserInterface\PythonBackgroundModule.cpp
; File C:\Anka2Project\Anka2Project\Source\Binary\source\eterBase\Singleton.h
; File C:\Anka2Project\Anka2Project\Source\Binary\source\UserInterface\PythonBackgroundModule.cpp
;	COMDAT ?backgroundGetFarClip@@YAPAU_object@@PAU1@0@Z
_TEXT	SEGMENT
_poSelf$ = 8						; size = 4
_poArgs$ = 12						; size = 4
?backgroundGetFarClip@@YAPAU_object@@PAU1@0@Z PROC	; backgroundGetFarClip, COMDAT
; File C:\Anka2Project\Anka2Project\Source\Binary\source\eterBase\Singleton.h

; 26   : 		assert(ms_singleton);

  00000	8b 0d 00 00 00
	00		 mov	 ecx, DWORD PTR ?ms_singleton@?$CSingleton@VCPythonBackground@@@@0PAVCPythonBackground@@A ; CSingleton<CPythonBackground>::ms_singleton
  00006	85 c9		 test	 ecx, ecx
  00008	75 1a		 jne	 SHORT $LN5@background
  0000a	6a 1a		 push	 26			; 0000001aH
  0000c	68 00 00 00 00	 push	 OFFSET ??_C@_1IO@CAJLEEOI@?$AAC?$AA?3?$AA?2?$AAA?$AAn?$AAk?$AAa?$AA2?$AAP?$AAr?$AAo?$AAj?$AAe?$AAc?$AAt@
  00011	68 00 00 00 00	 push	 OFFSET ??_C@_1BK@FMEHPMFE@?$AAm?$AAs?$AA_?$AAs?$AAi?$AAn?$AAg?$AAl?$AAe?$AAt?$AAo?$AAn@
  00016	e8 00 00 00 00	 call	 __wassert
  0001b	8b 0d 00 00 00
	00		 mov	 ecx, DWORD PTR ?ms_singleton@?$CSingleton@VCPythonBackground@@@@0PAVCPythonBackground@@A ; CSingleton<CPythonBackground>::ms_singleton
  00021	83 c4 0c	 add	 esp, 12			; 0000000cH
$LN5@background:
; File C:\Anka2Project\Anka2Project\Source\Binary\source\UserInterface\PythonBackgroundModule.cpp

; 383  : 	float fFarClip = CPythonBackground::Instance().GetFarClip();

  00024	e8 00 00 00 00	 call	 ?GetFarClip@CPythonBackground@@QAEMXZ ; CPythonBackground::GetFarClip

; 384  : 	return Py_BuildValue("f", fFarClip);

  00029	f3 0f 5a c0	 cvtss2sd xmm0, xmm0
  0002d	83 ec 08	 sub	 esp, 8
  00030	f2 0f 11 04 24	 movsd	 QWORD PTR [esp], xmm0
  00035	68 00 00 00 00	 push	 OFFSET ??_C@_01INIBCBCB@f@
  0003a	ff 15 00 00 00
	00		 call	 DWORD PTR __imp__Py_BuildValue
  00040	83 c4 0c	 add	 esp, 12			; 0000000cH

; 385  : }

  00043	c3		 ret	 0
?backgroundGetFarClip@@YAPAU_object@@PAU1@0@Z ENDP	; backgroundGetFarClip
_TEXT	ENDS
; Function compile flags: /Ogtp
; File C:\Anka2Project\Anka2Project\Source\Binary\source\UserInterface\PythonBackgroundModule.cpp
; File C:\Anka2Project\Anka2Project\Source\Binary\source\eterBase\Singleton.h
; File C:\Anka2Project\Anka2Project\Source\Binary\source\UserInterface\PythonBackgroundModule.cpp
; File C:\Anka2Project\Anka2Project\Source\Binary\source\eterBase\Singleton.h
; File C:\Anka2Project\Anka2Project\Source\Binary\source\UserInterface\PythonBackgroundModule.cpp
;	COMDAT ?backgroundGetDistanceSetInfo@@YAPAU_object@@PAU1@0@Z
_TEXT	SEGMENT
_fFarClip$ = -16					; size = 4
_fEnd$ = -12						; size = 4
_fStart$ = -8						; size = 4
_iNum$ = -4						; size = 4
_poSelf$ = 8						; size = 4
_poArgs$ = 12						; size = 4
?backgroundGetDistanceSetInfo@@YAPAU_object@@PAU1@0@Z PROC ; backgroundGetDistanceSetInfo, COMDAT

; 388  : {

  00000	55		 push	 ebp
  00001	8b ec		 mov	 ebp, esp
  00003	83 e4 c0	 and	 esp, -64		; ffffffc0H
; File C:\Anka2Project\Anka2Project\Source\Binary\source\eterBase\Singleton.h

; 26   : 		assert(ms_singleton);

  00006	8b 0d 00 00 00
	00		 mov	 ecx, DWORD PTR ?ms_singleton@?$CSingleton@VCPythonBackground@@@@0PAVCPythonBackground@@A ; CSingleton<CPythonBackground>::ms_singleton
; File C:\Anka2Project\Anka2Project\Source\Binary\source\UserInterface\PythonBackgroundModule.cpp

; 388  : {

  0000c	83 ec 40	 sub	 esp, 64			; 00000040H
; File C:\Anka2Project\Anka2Project\Source\Binary\source\eterBase\Singleton.h

; 26   : 		assert(ms_singleton);

  0000f	85 c9		 test	 ecx, ecx
  00011	75 1a		 jne	 SHORT $LN5@background
  00013	6a 1a		 push	 26			; 0000001aH
  00015	68 00 00 00 00	 push	 OFFSET ??_C@_1IO@CAJLEEOI@?$AAC?$AA?3?$AA?2?$AAA?$AAn?$AAk?$AAa?$AA2?$AAP?$AAr?$AAo?$AAj?$AAe?$AAc?$AAt@
  0001a	68 00 00 00 00	 push	 OFFSET ??_C@_1BK@FMEHPMFE@?$AAm?$AAs?$AA_?$AAs?$AAi?$AAn?$AAg?$AAl?$AAe?$AAt?$AAo?$AAn@
  0001f	e8 00 00 00 00	 call	 __wassert
  00024	8b 0d 00 00 00
	00		 mov	 ecx, DWORD PTR ?ms_singleton@?$CSingleton@VCPythonBackground@@@@0PAVCPythonBackground@@A ; CSingleton<CPythonBackground>::ms_singleton
  0002a	83 c4 0c	 add	 esp, 12			; 0000000cH
$LN5@background:
; File C:\Anka2Project\Anka2Project\Source\Binary\source\UserInterface\PythonBackgroundModule.cpp

; 391  : 	CPythonBackground::Instance().GetDistanceSetInfo(&iNum, &fStart, &fEnd, &fFarClip);

  0002d	8d 44 24 30	 lea	 eax, DWORD PTR _fFarClip$[esp+64]
  00031	50		 push	 eax
  00032	8d 44 24 38	 lea	 eax, DWORD PTR _fEnd$[esp+68]
  00036	50		 push	 eax
  00037	8d 44 24 40	 lea	 eax, DWORD PTR _fStart$[esp+72]
  0003b	50		 push	 eax
  0003c	8d 44 24 48	 lea	 eax, DWORD PTR _iNum$[esp+76]
  00040	50		 push	 eax
  00041	e8 00 00 00 00	 call	 ?GetDistanceSetInfo@CPythonBackground@@QAEXPAHPAM11@Z ; CPythonBackground::GetDistanceSetInfo
  00046	f3 0f 10 44 24
	30		 movss	 xmm0, DWORD PTR _fFarClip$[esp+64]

; 392  : 	return Py_BuildValue("ifff", iNum, fStart, fEnd, fFarClip);

  0004c	83 ec 18	 sub	 esp, 24			; 00000018H
  0004f	0f 5a c0	 cvtps2pd xmm0, xmm0
  00052	f2 0f 11 44 24
	10		 movsd	 QWORD PTR [esp+16], xmm0
  00058	f3 0f 10 44 24
	4c		 movss	 xmm0, DWORD PTR _fEnd$[esp+88]
  0005e	0f 5a c0	 cvtps2pd xmm0, xmm0
  00061	f2 0f 11 44 24
	08		 movsd	 QWORD PTR [esp+8], xmm0
  00067	f3 0f 10 44 24
	50		 movss	 xmm0, DWORD PTR _fStart$[esp+88]
  0006d	0f 5a c0	 cvtps2pd xmm0, xmm0
  00070	f2 0f 11 04 24	 movsd	 QWORD PTR [esp], xmm0
  00075	ff 74 24 54	 push	 DWORD PTR _iNum$[esp+88]
  00079	68 00 00 00 00	 push	 OFFSET ??_C@_04MMEPMOLC@ifff@
  0007e	ff 15 00 00 00
	00		 call	 DWORD PTR __imp__Py_BuildValue
  00084	83 c4 20	 add	 esp, 32			; 00000020H

; 393  : }

  00087	8b e5		 mov	 esp, ebp
  00089	5d		 pop	 ebp
  0008a	c3		 ret	 0
?backgroundGetDistanceSetInfo@@YAPAU_object@@PAU1@0@Z ENDP ; backgroundGetDistanceSetInfo
_TEXT	ENDS
; Function compile flags: /Ogtp
; File C:\Anka2Project\Anka2Project\Source\Binary\source\UserInterface\PythonBackgroundModule.cpp
; File C:\Anka2Project\Anka2Project\Source\Binary\source\eterBase\Singleton.h
; File C:\Anka2Project\Anka2Project\Source\Binary\source\UserInterface\PythonBackgroundModule.cpp
; File C:\Anka2Project\Anka2Project\Source\Binary\source\eterBase\Singleton.h
; File C:\Anka2Project\Anka2Project\Source\Binary\source\UserInterface\PythonBackgroundModule.cpp
;	COMDAT ?backgroundGlobalPositionToLocalPosition@@YAPAU_object@@PAU1@0@Z
_TEXT	SEGMENT
_iY$ = -16						; size = 4
_iX$ = -12						; size = 4
_lX$ = -8						; size = 4
_lY$ = -4						; size = 4
_poSelf$ = 8						; size = 4
_poArgs$ = 12						; size = 4
?backgroundGlobalPositionToLocalPosition@@YAPAU_object@@PAU1@0@Z PROC ; backgroundGlobalPositionToLocalPosition, COMDAT

; 425  : {

  00000	55		 push	 ebp
  00001	8b ec		 mov	 ebp, esp
  00003	83 ec 10	 sub	 esp, 16			; 00000010H

; 426  : 	int iX;
; 427  : 	if (!PyTuple_GetInteger(poArgs, 0, &iX))

  00006	8d 45 f4	 lea	 eax, DWORD PTR _iX$[ebp]
  00009	50		 push	 eax
  0000a	6a 00		 push	 0
  0000c	ff 75 0c	 push	 DWORD PTR _poArgs$[ebp]
  0000f	e8 00 00 00 00	 call	 ?PyTuple_GetInteger@@YA_NPAU_object@@HPAH@Z ; PyTuple_GetInteger
  00014	83 c4 0c	 add	 esp, 12			; 0000000cH
  00017	84 c0		 test	 al, al
  00019	75 09		 jne	 SHORT $LN2@background
$LN8@background:

; 440  : }

  0001b	e8 00 00 00 00	 call	 ?Py_BadArgument@@YAPAU_object@@XZ ; Py_BadArgument
  00020	8b e5		 mov	 esp, ebp
  00022	5d		 pop	 ebp
  00023	c3		 ret	 0
$LN2@background:

; 428  : 		return Py_BadArgument();
; 429  : 
; 430  : 	int iY;
; 431  : 	if (!PyTuple_GetInteger(poArgs, 1, &iY))

  00024	8d 45 f0	 lea	 eax, DWORD PTR _iY$[ebp]
  00027	50		 push	 eax
  00028	6a 01		 push	 1
  0002a	ff 75 0c	 push	 DWORD PTR _poArgs$[ebp]
  0002d	e8 00 00 00 00	 call	 ?PyTuple_GetInteger@@YA_NPAU_object@@HPAH@Z ; PyTuple_GetInteger
  00032	83 c4 0c	 add	 esp, 12			; 0000000cH
  00035	84 c0		 test	 al, al
  00037	74 e2		 je	 SHORT $LN8@background

; 434  : 	LONG lX=iX;

  00039	8b 45 f4	 mov	 eax, DWORD PTR _iX$[ebp]
; File C:\Anka2Project\Anka2Project\Source\Binary\source\eterBase\Singleton.h

; 26   : 		assert(ms_singleton);

  0003c	8b 0d 00 00 00
	00		 mov	 ecx, DWORD PTR ?ms_singleton@?$CSingleton@VCPythonBackground@@@@0PAVCPythonBackground@@A ; CSingleton<CPythonBackground>::ms_singleton
; File C:\Anka2Project\Anka2Project\Source\Binary\source\UserInterface\PythonBackgroundModule.cpp

; 434  : 	LONG lX=iX;

  00042	89 45 f8	 mov	 DWORD PTR _lX$[ebp], eax

; 435  : 	LONG lY=iY;	

  00045	8b 45 f0	 mov	 eax, DWORD PTR _iY$[ebp]
  00048	89 45 fc	 mov	 DWORD PTR _lY$[ebp], eax
; File C:\Anka2Project\Anka2Project\Source\Binary\source\eterBase\Singleton.h

; 26   : 		assert(ms_singleton);

  0004b	85 c9		 test	 ecx, ecx
  0004d	75 1a		 jne	 SHORT $LN7@background
  0004f	6a 1a		 push	 26			; 0000001aH
  00051	68 00 00 00 00	 push	 OFFSET ??_C@_1IO@CAJLEEOI@?$AAC?$AA?3?$AA?2?$AAA?$AAn?$AAk?$AAa?$AA2?$AAP?$AAr?$AAo?$AAj?$AAe?$AAc?$AAt@
  00056	68 00 00 00 00	 push	 OFFSET ??_C@_1BK@FMEHPMFE@?$AAm?$AAs?$AA_?$AAs?$AAi?$AAn?$AAg?$AAl?$AAe?$AAt?$AAo?$AAn@
  0005b	e8 00 00 00 00	 call	 __wassert
  00060	8b 0d 00 00 00
	00		 mov	 ecx, DWORD PTR ?ms_singleton@?$CSingleton@VCPythonBackground@@@@0PAVCPythonBackground@@A ; CSingleton<CPythonBackground>::ms_singleton
  00066	83 c4 0c	 add	 esp, 12			; 0000000cH
$LN7@background:
; File C:\Anka2Project\Anka2Project\Source\Binary\source\UserInterface\PythonBackgroundModule.cpp

; 437  : 	rkBG.GlobalPositionToLocalPosition(lX, lY);

  00069	8d 45 fc	 lea	 eax, DWORD PTR _lY$[ebp]
  0006c	50		 push	 eax
  0006d	8d 45 f8	 lea	 eax, DWORD PTR _lX$[ebp]
  00070	50		 push	 eax
  00071	e8 00 00 00 00	 call	 ?GlobalPositionToLocalPosition@CPythonBackground@@QAEXAAJ0@Z ; CPythonBackground::GlobalPositionToLocalPosition

; 438  : 
; 439  : 	return Py_BuildValue("ii", lX, lY);

  00076	ff 75 fc	 push	 DWORD PTR _lY$[ebp]
  00079	ff 75 f8	 push	 DWORD PTR _lX$[ebp]
  0007c	68 00 00 00 00	 push	 OFFSET ??_C@_02PDIHAGKM@ii@
  00081	ff 15 00 00 00
	00		 call	 DWORD PTR __imp__Py_BuildValue
  00087	83 c4 0c	 add	 esp, 12			; 0000000cH

; 440  : }

  0008a	8b e5		 mov	 esp, ebp
  0008c	5d		 pop	 ebp
  0008d	c3		 ret	 0
?backgroundGlobalPositionToLocalPosition@@YAPAU_object@@PAU1@0@Z ENDP ; backgroundGlobalPositionToLocalPosition
_TEXT	ENDS
; Function compile flags: /Ogtp
; File C:\Anka2Project\Anka2Project\Source\Binary\source\UserInterface\PythonBackgroundModule.cpp
; File C:\Anka2Project\Anka2Project\Source\Binary\source\eterBase\Singleton.h
; File C:\Anka2Project\Anka2Project\Source\Binary\source\UserInterface\PythonBackgroundModule.cpp
; File C:\Program Files\Microsoft Visual Studio\2022\Community\VC\Tools\MSVC\14.44.35207\include\xstring
; File C:\Anka2Project\Anka2Project\Source\Binary\source\UserInterface\PythonBackgroundModule.cpp
; File C:\Program Files\Microsoft Visual Studio\2022\Community\VC\Tools\MSVC\14.44.35207\include\xstring
; File C:\Anka2Project\Anka2Project\Source\Binary\source\UserInterface\PythonBackgroundModule.cpp
;	COMDAT ?backgroundGlobalPositionToMapInfo@@YAPAU_object@@PAU1@0@Z
_TEXT	SEGMENT
_iX$ = -8						; size = 4
_iY$ = -4						; size = 4
_poSelf$ = 8						; size = 4
_poArgs$ = 12						; size = 4
?backgroundGlobalPositionToMapInfo@@YAPAU_object@@PAU1@0@Z PROC ; backgroundGlobalPositionToMapInfo, COMDAT

; 443  : {

  00000	55		 push	 ebp
  00001	8b ec		 mov	 ebp, esp
  00003	83 ec 08	 sub	 esp, 8

; 444  : 	int iX;
; 445  : 	if (!PyTuple_GetInteger(poArgs, 0, &iX))

  00006	8d 45 f8	 lea	 eax, DWORD PTR _iX$[ebp]
  00009	50		 push	 eax
  0000a	6a 00		 push	 0
  0000c	ff 75 0c	 push	 DWORD PTR _poArgs$[ebp]
  0000f	e8 00 00 00 00	 call	 ?PyTuple_GetInteger@@YA_NPAU_object@@HPAH@Z ; PyTuple_GetInteger
  00014	83 c4 0c	 add	 esp, 12			; 0000000cH
  00017	84 c0		 test	 al, al
  00019	75 09		 jne	 SHORT $LN2@background
$LN21@background:

; 459  : }

  0001b	e8 00 00 00 00	 call	 ?Py_BadArgument@@YAPAU_object@@XZ ; Py_BadArgument
  00020	8b e5		 mov	 esp, ebp
  00022	5d		 pop	 ebp
  00023	c3		 ret	 0
$LN2@background:

; 446  : 		return Py_BadArgument();
; 447  : 
; 448  : 	int iY;
; 449  : 	if (!PyTuple_GetInteger(poArgs, 1, &iY))

  00024	8d 45 fc	 lea	 eax, DWORD PTR _iY$[ebp]
  00027	50		 push	 eax
  00028	6a 01		 push	 1
  0002a	ff 75 0c	 push	 DWORD PTR _poArgs$[ebp]
  0002d	e8 00 00 00 00	 call	 ?PyTuple_GetInteger@@YA_NPAU_object@@HPAH@Z ; PyTuple_GetInteger
  00032	83 c4 0c	 add	 esp, 12			; 0000000cH
  00035	84 c0		 test	 al, al
  00037	74 e2		 je	 SHORT $LN21@background
; File C:\Anka2Project\Anka2Project\Source\Binary\source\eterBase\Singleton.h

; 26   : 		assert(ms_singleton);

  00039	8b 0d 00 00 00
	00		 mov	 ecx, DWORD PTR ?ms_singleton@?$CSingleton@VCPythonBackground@@@@0PAVCPythonBackground@@A ; CSingleton<CPythonBackground>::ms_singleton
  0003f	85 c9		 test	 ecx, ecx
  00041	75 1a		 jne	 SHORT $LN9@background
  00043	6a 1a		 push	 26			; 0000001aH
  00045	68 00 00 00 00	 push	 OFFSET ??_C@_1IO@CAJLEEOI@?$AAC?$AA?3?$AA?2?$AAA?$AAn?$AAk?$AAa?$AA2?$AAP?$AAr?$AAo?$AAj?$AAe?$AAc?$AAt@
  0004a	68 00 00 00 00	 push	 OFFSET ??_C@_1BK@FMEHPMFE@?$AAm?$AAs?$AA_?$AAs?$AAi?$AAn?$AAg?$AAl?$AAe?$AAt?$AAo?$AAn@
  0004f	e8 00 00 00 00	 call	 __wassert
  00054	8b 0d 00 00 00
	00		 mov	 ecx, DWORD PTR ?ms_singleton@?$CSingleton@VCPythonBackground@@@@0PAVCPythonBackground@@A ; CSingleton<CPythonBackground>::ms_singleton
  0005a	83 c4 0c	 add	 esp, 12			; 0000000cH
$LN9@background:
; File C:\Anka2Project\Anka2Project\Source\Binary\source\UserInterface\PythonBackgroundModule.cpp

; 453  : 	CPythonBackground::TMapInfo* pkMapInfo=rkBG.GlobalPositionToMapInfo(iX, iY);

  0005d	ff 75 fc	 push	 DWORD PTR _iY$[ebp]
  00060	ff 75 f8	 push	 DWORD PTR _iX$[ebp]
  00063	e8 00 00 00 00	 call	 ?GlobalPositionToMapInfo@CPythonBackground@@QAEPAUTMapInfo@CMapManager@@KK@Z ; CPythonBackground::GlobalPositionToMapInfo

; 454  : 	
; 455  : 	if (pkMapInfo)

  00068	85 c0		 test	 eax, eax
  0006a	74 23		 je	 SHORT $LN4@background
; File C:\Program Files\Microsoft Visual Studio\2022\Community\VC\Tools\MSVC\14.44.35207\include\xstring

; 453  :         return _Myres > _Small_string_capacity;

  0006c	83 78 14 0f	 cmp	 DWORD PTR [eax+20], 15	; 0000000fH
; File C:\Anka2Project\Anka2Project\Source\Binary\source\UserInterface\PythonBackgroundModule.cpp

; 456  : 		return Py_BuildValue("sii", pkMapInfo->m_strName.c_str(), pkMapInfo->m_dwBaseX, pkMapInfo->m_dwBaseY);

  00070	8b 48 1c	 mov	 ecx, DWORD PTR [eax+28]
  00073	8b 50 18	 mov	 edx, DWORD PTR [eax+24]
; File C:\Program Files\Microsoft Visual Studio\2022\Community\VC\Tools\MSVC\14.44.35207\include\xstring

; 445  :         if (_Large_mode_engaged()) {

  00076	76 02		 jbe	 SHORT $LN14@background

; 446  :             _Result = _Unfancy(_Bx._Ptr);

  00078	8b 00		 mov	 eax, DWORD PTR [eax]
$LN14@background:
; File C:\Anka2Project\Anka2Project\Source\Binary\source\UserInterface\PythonBackgroundModule.cpp

; 456  : 		return Py_BuildValue("sii", pkMapInfo->m_strName.c_str(), pkMapInfo->m_dwBaseX, pkMapInfo->m_dwBaseY);

  0007a	51		 push	 ecx
  0007b	52		 push	 edx
  0007c	50		 push	 eax

; 459  : }

  0007d	68 00 00 00 00	 push	 OFFSET ??_C@_03FEAIAPNA@sii@
  00082	ff 15 00 00 00
	00		 call	 DWORD PTR __imp__Py_BuildValue
  00088	83 c4 10	 add	 esp, 16			; 00000010H
  0008b	8b e5		 mov	 esp, ebp
  0008d	5d		 pop	 ebp
  0008e	c3		 ret	 0
$LN4@background:

; 457  : 	else
; 458  : 		return Py_BuildValue("sii", "", 0, 0);

  0008f	6a 00		 push	 0
  00091	6a 00		 push	 0
  00093	68 00 00 00 00	 push	 OFFSET ??_C@_00CNPNBAHC@@

; 459  : }

  00098	68 00 00 00 00	 push	 OFFSET ??_C@_03FEAIAPNA@sii@
  0009d	ff 15 00 00 00
	00		 call	 DWORD PTR __imp__Py_BuildValue
  000a3	83 c4 10	 add	 esp, 16			; 00000010H
  000a6	8b e5		 mov	 esp, ebp
  000a8	5d		 pop	 ebp
  000a9	c3		 ret	 0
?backgroundGlobalPositionToMapInfo@@YAPAU_object@@PAU1@0@Z ENDP ; backgroundGlobalPositionToMapInfo
_TEXT	ENDS
; Function compile flags: /Ogtp
; File C:\Anka2Project\Anka2Project\Source\Binary\source\UserInterface\PythonBackgroundModule.cpp
; File C:\Anka2Project\Anka2Project\Source\Binary\source\eterBase\Singleton.h
; File C:\Anka2Project\Anka2Project\Source\Binary\source\UserInterface\PythonBackgroundModule.cpp
; File C:\Program Files\Microsoft Visual Studio\2022\Community\VC\Tools\MSVC\14.44.35207\include\xstring
; File C:\Program Files\Microsoft Visual Studio\2022\Community\VC\Tools\MSVC\14.44.35207\include\__msvc_string_view.hpp
; File C:\Program Files\Microsoft Visual Studio\2022\Community\VC\Tools\MSVC\14.44.35207\include\xstring
; File C:\Program Files\Microsoft Visual Studio\2022\Community\VC\Tools\MSVC\14.44.35207\include\__msvc_string_view.hpp
; File C:\Program Files\Microsoft Visual Studio\2022\Community\VC\Tools\MSVC\14.44.35207\include\xstring
; File C:\Anka2Project\Anka2Project\Source\Binary\source\UserInterface\PythonBackgroundModule.cpp
; File C:\Program Files\Microsoft Visual Studio\2022\Community\VC\Tools\MSVC\14.44.35207\include\xstring
; File C:\Anka2Project\Anka2Project\Source\Binary\source\UserInterface\PythonBackgroundModule.cpp
; File C:\Program Files\Microsoft Visual Studio\2022\Community\VC\Tools\MSVC\14.44.35207\include\xstring
; File C:\Program Files\Microsoft Visual Studio\2022\Community\VC\Tools\MSVC\14.44.35207\include\xmemory
; File C:\Program Files\Microsoft Visual Studio\2022\Community\VC\Tools\MSVC\14.44.35207\include\xstring
; File C:\Program Files\Microsoft Visual Studio\2022\Community\VC\Tools\MSVC\14.44.35207\include\xmemory
; File C:\Anka2Project\Anka2Project\Source\Binary\source\UserInterface\PythonBackgroundModule.cpp
; File C:\Program Files\Microsoft Visual Studio\2022\Community\VC\Tools\MSVC\14.44.35207\include\xmemory
; File C:\Anka2Project\Anka2Project\Source\Binary\source\UserInterface\PythonBackgroundModule.cpp
;	COMDAT ?backgroundIsBoomMap@@YAPAU_object@@PAU1@0@Z
_TEXT	SEGMENT
$T2 = -40						; size = 24
__$ArrayPad$ = -16					; size = 4
__$EHRec$ = -12						; size = 12
_poSelf$ = 8						; size = 4
_poArgs$ = 12						; size = 4
?backgroundIsBoomMap@@YAPAU_object@@PAU1@0@Z PROC	; backgroundIsBoomMap, COMDAT

; 524  : {

  00000	55		 push	 ebp
  00001	8b ec		 mov	 ebp, esp
  00003	6a ff		 push	 -1
  00005	68 00 00 00 00	 push	 __ehhandler$?backgroundIsBoomMap@@YAPAU_object@@PAU1@0@Z
  0000a	64 a1 00 00 00
	00		 mov	 eax, DWORD PTR fs:0
  00010	50		 push	 eax
  00011	83 ec 1c	 sub	 esp, 28			; 0000001cH
  00014	a1 00 00 00 00	 mov	 eax, DWORD PTR ___security_cookie
  00019	33 c5		 xor	 eax, ebp
  0001b	89 45 f0	 mov	 DWORD PTR __$ArrayPad$[ebp], eax
  0001e	56		 push	 esi
  0001f	50		 push	 eax
  00020	8d 45 f4	 lea	 eax, DWORD PTR __$EHRec$[ebp]
  00023	64 a3 00 00 00
	00		 mov	 DWORD PTR fs:0, eax
; File C:\Anka2Project\Anka2Project\Source\Binary\source\eterBase\Singleton.h

; 26   : 		assert(ms_singleton);

  00029	8b 0d 00 00 00
	00		 mov	 ecx, DWORD PTR ?ms_singleton@?$CSingleton@VCPythonBackground@@@@0PAVCPythonBackground@@A ; CSingleton<CPythonBackground>::ms_singleton
  0002f	85 c9		 test	 ecx, ecx
  00031	75 1a		 jne	 SHORT $LN6@background
  00033	6a 1a		 push	 26			; 0000001aH
  00035	68 00 00 00 00	 push	 OFFSET ??_C@_1IO@CAJLEEOI@?$AAC?$AA?3?$AA?2?$AAA?$AAn?$AAk?$AAa?$AA2?$AAP?$AAr?$AAo?$AAj?$AAe?$AAc?$AAt@
  0003a	68 00 00 00 00	 push	 OFFSET ??_C@_1BK@FMEHPMFE@?$AAm?$AAs?$AA_?$AAs?$AAi?$AAn?$AAg?$AAl?$AAe?$AAt?$AAo?$AAn@
  0003f	e8 00 00 00 00	 call	 __wassert
  00044	8b 0d 00 00 00
	00		 mov	 ecx, DWORD PTR ?ms_singleton@?$CSingleton@VCPythonBackground@@@@0PAVCPythonBackground@@A ; CSingleton<CPythonBackground>::ms_singleton
  0004a	83 c4 0c	 add	 esp, 12			; 0000000cH
$LN6@background:
; File C:\Anka2Project\Anka2Project\Source\Binary\source\UserInterface\PythonBackgroundModule.cpp

; 526  : 	return Py_BuildValue("i", rkBG.IsBoomMap(rkBG.GetWarpMapName()));

  0004d	e8 00 00 00 00	 call	 ?GetWarpMapName@CPythonBackground@@QAEPBDXZ ; CPythonBackground::GetWarpMapName
  00052	8b d0		 mov	 edx, eax
; File C:\Program Files\Microsoft Visual Studio\2022\Community\VC\Tools\MSVC\14.44.35207\include\xstring

; 517  :     size_type _Mysize = 0; // current length of string (size)

  00054	c7 45 e8 00 00
	00 00		 mov	 DWORD PTR $T2[ebp+16], 0
; File C:\Program Files\Microsoft Visual Studio\2022\Community\VC\Tools\MSVC\14.44.35207\include\__msvc_string_view.hpp

; 456  :             return __builtin_strlen(_First);

  0005b	8b ca		 mov	 ecx, edx
; File C:\Program Files\Microsoft Visual Studio\2022\Community\VC\Tools\MSVC\14.44.35207\include\xstring

; 518  :     size_type _Myres  = 0; // current storage reserved for string (capacity)

  0005d	c7 45 ec 00 00
	00 00		 mov	 DWORD PTR $T2[ebp+20], 0
  00064	0f 57 c0	 xorps	 xmm0, xmm0

; 493  :         _CONSTEXPR20 _Bxty() noexcept : _Buf() {} // user-provided, for fancy pointers

  00067	0f 11 45 d8	 movups	 XMMWORD PTR $T2[ebp], xmm0
; File C:\Program Files\Microsoft Visual Studio\2022\Community\VC\Tools\MSVC\14.44.35207\include\__msvc_string_view.hpp

; 456  :             return __builtin_strlen(_First);

  0006b	8d 71 01	 lea	 esi, DWORD PTR [ecx+1]
  0006e	66 90		 npad	 2
$LL58@background:
  00070	8a 01		 mov	 al, BYTE PTR [ecx]
  00072	41		 inc	 ecx
  00073	84 c0		 test	 al, al
  00075	75 f9		 jne	 SHORT $LL58@background
  00077	2b ce		 sub	 ecx, esi
; File C:\Program Files\Microsoft Visual Studio\2022\Community\VC\Tools\MSVC\14.44.35207\include\xstring

; 769  :         _Construct<_Construct_strategy::_From_ptr>(_Ptr, _Convert_size<size_type>(_Traits::length(_Ptr)));

  00079	51		 push	 ecx
  0007a	52		 push	 edx
  0007b	8d 4d d8	 lea	 ecx, DWORD PTR $T2[ebp]
  0007e	e8 00 00 00 00	 call	 ??$_Construct@$00PBD@?$basic_string@DU?$char_traits@D@std@@V?$allocator@D@2@@std@@AAEXQBDI@Z ; std::basic_string<char,std::char_traits<char>,std::allocator<char> >::_Construct<1,char const *>
; File C:\Anka2Project\Anka2Project\Source\Binary\source\UserInterface\PythonBackgroundModule.cpp

; 526  : 	return Py_BuildValue("i", rkBG.IsBoomMap(rkBG.GetWarpMapName()));

  00083	8d 45 d8	 lea	 eax, DWORD PTR $T2[ebp]
  00086	c7 45 fc 00 00
	00 00		 mov	 DWORD PTR __$EHRec$[ebp+8], 0
  0008d	50		 push	 eax
  0008e	e8 00 00 00 00	 call	 ?IsBoomMap@CPythonBackground@@QBE_NABV?$basic_string@DU?$char_traits@D@std@@V?$allocator@D@2@@std@@@Z ; CPythonBackground::IsBoomMap
  00093	0f b6 c0	 movzx	 eax, al
  00096	50		 push	 eax
  00097	68 00 00 00 00	 push	 OFFSET ??_C@_01KBJDNOO@i@
  0009c	ff 15 00 00 00
	00		 call	 DWORD PTR __imp__Py_BuildValue
; File C:\Program Files\Microsoft Visual Studio\2022\Community\VC\Tools\MSVC\14.44.35207\include\xstring

; 453  :         return _Myres > _Small_string_capacity;

  000a2	8b 4d ec	 mov	 ecx, DWORD PTR $T2[ebp+20]
; File C:\Anka2Project\Anka2Project\Source\Binary\source\UserInterface\PythonBackgroundModule.cpp

; 526  : 	return Py_BuildValue("i", rkBG.IsBoomMap(rkBG.GetWarpMapName()));

  000a5	83 c4 08	 add	 esp, 8
  000a8	8b f0		 mov	 esi, eax
; File C:\Program Files\Microsoft Visual Studio\2022\Community\VC\Tools\MSVC\14.44.35207\include\xstring

; 453  :         return _Myres > _Small_string_capacity;

  000aa	83 f9 0f	 cmp	 ecx, 15			; 0000000fH

; 3083 :         if (_My_data._Large_mode_engaged()) {

  000ad	76 28		 jbe	 SHORT $LN43@background
; File C:\Program Files\Microsoft Visual Studio\2022\Community\VC\Tools\MSVC\14.44.35207\include\xmemory

; 985  :         _STD _Deallocate<_New_alignof<_Ty>>(_Ptr, sizeof(_Ty) * _Count);

  000af	8b 55 d8	 mov	 edx, DWORD PTR $T2[ebp]
; File C:\Program Files\Microsoft Visual Studio\2022\Community\VC\Tools\MSVC\14.44.35207\include\xstring

; 852  :         _Al.deallocate(_Old_ptr, _Capacity + 1); // +1 for null terminator

  000b2	41		 inc	 ecx
; File C:\Program Files\Microsoft Visual Studio\2022\Community\VC\Tools\MSVC\14.44.35207\include\xmemory

; 985  :         _STD _Deallocate<_New_alignof<_Ty>>(_Ptr, sizeof(_Ty) * _Count);

  000b3	8b c2		 mov	 eax, edx

; 284  :         if (_Bytes >= _Big_allocation_threshold) {

  000b5	81 f9 00 10 00
	00		 cmp	 ecx, 4096		; 00001000H
  000bb	72 10		 jb	 SHORT $LN51@background

; 205  :     const uintptr_t _Ptr_container   = _Ptr_user[-1];

  000bd	8b 50 fc	 mov	 edx, DWORD PTR [eax-4]
  000c0	83 c1 23	 add	 ecx, 35			; 00000023H
  000c3	2b c2		 sub	 eax, edx

; 219  :     _STL_VERIFY(_Back_shift >= _Min_back_shift && _Back_shift <= _Non_user_size, "invalid argument");

  000c5	83 c0 fc	 add	 eax, -4			; fffffffcH
  000c8	83 f8 1f	 cmp	 eax, 31			; 0000001fH
  000cb	77 26		 ja	 SHORT $LN62@background
$LN51@background:

; 289  :         ::operator delete(_Ptr, _Bytes);

  000cd	51		 push	 ecx
  000ce	52		 push	 edx
  000cf	e8 00 00 00 00	 call	 ??3@YAXPAXI@Z		; operator delete
  000d4	83 c4 08	 add	 esp, 8
$LN43@background:
; File C:\Anka2Project\Anka2Project\Source\Binary\source\UserInterface\PythonBackgroundModule.cpp

; 526  : 	return Py_BuildValue("i", rkBG.IsBoomMap(rkBG.GetWarpMapName()));

  000d7	8b c6		 mov	 eax, esi

; 527  : }

  000d9	8b 4d f4	 mov	 ecx, DWORD PTR __$EHRec$[ebp]
  000dc	64 89 0d 00 00
	00 00		 mov	 DWORD PTR fs:0, ecx
  000e3	59		 pop	 ecx
  000e4	5e		 pop	 esi
  000e5	8b 4d f0	 mov	 ecx, DWORD PTR __$ArrayPad$[ebp]
  000e8	33 cd		 xor	 ecx, ebp
  000ea	e8 00 00 00 00	 call	 @__security_check_cookie@4
  000ef	8b e5		 mov	 esp, ebp
  000f1	5d		 pop	 ebp
  000f2	c3		 ret	 0
$LN62@background:
; File C:\Program Files\Microsoft Visual Studio\2022\Community\VC\Tools\MSVC\14.44.35207\include\xmemory

; 219  :     _STL_VERIFY(_Back_shift >= _Min_back_shift && _Back_shift <= _Non_user_size, "invalid argument");

  000f3	6a 00		 push	 0
  000f5	6a 00		 push	 0
  000f7	6a 00		 push	 0
  000f9	6a 00		 push	 0
  000fb	6a 00		 push	 0
  000fd	e8 00 00 00 00	 call	 __invoke_watson
$LN60@background:
  00102	cc		 int	 3
_TEXT	ENDS
;	COMDAT text$x
text$x	SEGMENT
__unwindfunclet$?backgroundIsBoomMap@@YAPAU_object@@PAU1@0@Z$0:
  00000	8d 4d d8	 lea	 ecx, DWORD PTR $T2[ebp]
  00003	e9 00 00 00 00	 jmp	 ??1?$basic_string@DU?$char_traits@D@std@@V?$allocator@D@2@@std@@QAE@XZ ; std::basic_string<char,std::char_traits<char>,std::allocator<char> >::~basic_string<char,std::char_traits<char>,std::allocator<char> >
  00008	cc		 int	 3
  00009	cc		 int	 3
  0000a	cc		 int	 3
  0000b	cc		 int	 3
  0000c	cc		 int	 3
__ehhandler$?backgroundIsBoomMap@@YAPAU_object@@PAU1@0@Z:
  0000d	90		 npad	 1
  0000e	90		 npad	 1
  0000f	8b 54 24 08	 mov	 edx, DWORD PTR [esp+8]
  00013	8d 42 0c	 lea	 eax, DWORD PTR [edx+12]
  00016	8b 4a dc	 mov	 ecx, DWORD PTR [edx-36]
  00019	33 c8		 xor	 ecx, eax
  0001b	e8 00 00 00 00	 call	 @__security_check_cookie@4
  00020	8b 4a fc	 mov	 ecx, DWORD PTR [edx-4]
  00023	33 c8		 xor	 ecx, eax
  00025	e8 00 00 00 00	 call	 @__security_check_cookie@4
  0002a	b8 00 00 00 00	 mov	 eax, OFFSET __ehfuncinfo$?backgroundIsBoomMap@@YAPAU_object@@PAU1@0@Z
  0002f	e9 00 00 00 00	 jmp	 ___CxxFrameHandler3
text$x	ENDS
?backgroundIsBoomMap@@YAPAU_object@@PAU1@0@Z ENDP	; backgroundIsBoomMap
; Function compile flags: /Ogtp
; File C:\Anka2Project\Anka2Project\Source\Binary\source\UserInterface\PythonBackgroundModule.cpp
; File C:\Anka2Project\Anka2Project\Source\Binary\source\eterBase\Singleton.h
; File C:\Anka2Project\Anka2Project\Source\Binary\source\UserInterface\PythonBackgroundModule.cpp
;	COMDAT ?backgroundGetDayMode@@YAPAU_object@@PAU1@0@Z
_TEXT	SEGMENT
_poSelf$ = 8						; size = 4
_poArgs$ = 12						; size = 4
?backgroundGetDayMode@@YAPAU_object@@PAU1@0@Z PROC	; backgroundGetDayMode, COMDAT
; File C:\Anka2Project\Anka2Project\Source\Binary\source\eterBase\Singleton.h

; 26   : 		assert(ms_singleton);

  00000	a1 00 00 00 00	 mov	 eax, DWORD PTR ?ms_singleton@?$CSingleton@VCPythonBackground@@@@0PAVCPythonBackground@@A ; CSingleton<CPythonBackground>::ms_singleton
  00005	85 c0		 test	 eax, eax
  00007	75 19		 jne	 SHORT $LN5@background
  00009	6a 1a		 push	 26			; 0000001aH
  0000b	68 00 00 00 00	 push	 OFFSET ??_C@_1IO@CAJLEEOI@?$AAC?$AA?3?$AA?2?$AAA?$AAn?$AAk?$AAa?$AA2?$AAP?$AAr?$AAo?$AAj?$AAe?$AAc?$AAt@
  00010	68 00 00 00 00	 push	 OFFSET ??_C@_1BK@FMEHPMFE@?$AAm?$AAs?$AA_?$AAs?$AAi?$AAn?$AAg?$AAl?$AAe?$AAt?$AAo?$AAn@
  00015	e8 00 00 00 00	 call	 __wassert
  0001a	a1 00 00 00 00	 mov	 eax, DWORD PTR ?ms_singleton@?$CSingleton@VCPythonBackground@@@@0PAVCPythonBackground@@A ; CSingleton<CPythonBackground>::ms_singleton
  0001f	83 c4 0c	 add	 esp, 12			; 0000000cH
$LN5@background:
; File C:\Anka2Project\Anka2Project\Source\Binary\source\UserInterface\PythonBackgroundModule.cpp

; 553  : 	return Py_BuildValue("i", CPythonBackground::Instance().GetDayMode());

  00022	ff b0 4c 15 00
	00		 push	 DWORD PTR [eax+5452]
  00028	68 00 00 00 00	 push	 OFFSET ??_C@_01KBJDNOO@i@
  0002d	ff 15 00 00 00
	00		 call	 DWORD PTR __imp__Py_BuildValue
  00033	83 c4 08	 add	 esp, 8

; 554  : }

  00036	c3		 ret	 0
?backgroundGetDayMode@@YAPAU_object@@PAU1@0@Z ENDP	; backgroundGetDayMode
_TEXT	ENDS
; Function compile flags: /Ogtp
; File C:\Anka2Project\Anka2Project\Source\Binary\source\UserInterface\PythonBackgroundModule.cpp
; File C:\Program Files\Microsoft Visual Studio\2022\Community\VC\Tools\MSVC\14.44.35207\include\xstring
; File C:\Program Files\Microsoft Visual Studio\2022\Community\VC\Tools\MSVC\14.44.35207\include\xmemory
; File C:\Program Files\Microsoft Visual Studio\2022\Community\VC\Tools\MSVC\14.44.35207\include\xstring
; File C:\Program Files\Microsoft Visual Studio\2022\Community\VC\Tools\MSVC\14.44.35207\include\xmemory
; File C:\Program Files\Microsoft Visual Studio\2022\Community\VC\Tools\MSVC\14.44.35207\include\__msvc_string_view.hpp
; File C:\Program Files\Microsoft Visual Studio\2022\Community\VC\Tools\MSVC\14.44.35207\include\xmemory
; File C:\Program Files\Microsoft Visual Studio\2022\Community\VC\Tools\MSVC\14.44.35207\include\xstring
; File C:\Program Files\Microsoft Visual Studio\2022\Community\VC\Tools\MSVC\14.44.35207\include\xmemory
; File C:\Program Files\Microsoft Visual Studio\2022\Community\VC\Tools\MSVC\14.44.35207\include\xstring
; File C:\Program Files\Microsoft Visual Studio\2022\Community\VC\Tools\MSVC\14.44.35207\include\__msvc_string_view.hpp
; File C:\Program Files\Microsoft Visual Studio\2022\Community\VC\Tools\MSVC\14.44.35207\include\xstring
; File C:\Anka2Project\Anka2Project\Source\Binary\source\UserInterface\PythonBackgroundModule.cpp
; File C:\Anka2Project\Anka2Project\Source\Binary\source\eterBase\Singleton.h
; File C:\Anka2Project\Anka2Project\Source\Binary\source\UserInterface\PythonBackgroundModule.cpp
; File C:\Anka2Project\Anka2Project\Source\Binary\source\eterBase\Singleton.h
; File C:\Program Files\Microsoft Visual Studio\2022\Community\VC\Tools\MSVC\14.44.35207\include\xstring
; File C:\Anka2Project\Anka2Project\Source\Binary\source\UserInterface\PythonBackgroundModule.cpp
; File C:\Program Files\Microsoft Visual Studio\2022\Community\VC\Tools\MSVC\14.44.35207\include\xstring
; File C:\Anka2Project\Anka2Project\Source\Binary\source\UserInterface\PythonBackgroundModule.cpp
; File C:\Program Files\Microsoft Visual Studio\2022\Community\VC\Tools\MSVC\14.44.35207\include\xstring
; File C:\Program Files\Microsoft Visual Studio\2022\Community\VC\Tools\MSVC\14.44.35207\include\xmemory
; File C:\Program Files\Microsoft Visual Studio\2022\Community\VC\Tools\MSVC\14.44.35207\include\xstring
; File C:\Program Files\Microsoft Visual Studio\2022\Community\VC\Tools\MSVC\14.44.35207\include\xmemory
; File C:\Anka2Project\Anka2Project\Source\Binary\source\UserInterface\PythonBackgroundModule.cpp
; File C:\Program Files\Microsoft Visual Studio\2022\Community\VC\Tools\MSVC\14.44.35207\include\xmemory
; File C:\Anka2Project\Anka2Project\Source\Binary\source\UserInterface\PythonBackgroundModule.cpp
;	COMDAT ?backgroundCreatePrivateShopPos@@YAPAU_object@@PAU1@0@Z
_TEXT	SEGMENT
_kPixelPosition$ = -56					; size = 12
_iVID$ = -44						; size = 4
_g_strEffectShopPos$ = -40				; size = 24
__$ArrayPad$ = -16					; size = 4
__$EHRec$ = -12						; size = 12
_poSelf$ = 8						; size = 4
_poArgs$ = 12						; size = 4
?backgroundCreatePrivateShopPos@@YAPAU_object@@PAU1@0@Z PROC ; backgroundCreatePrivateShopPos, COMDAT

; 574  : {

  00000	55		 push	 ebp
  00001	8b ec		 mov	 ebp, esp
  00003	6a ff		 push	 -1
  00005	68 00 00 00 00	 push	 __ehhandler$?backgroundCreatePrivateShopPos@@YAPAU_object@@PAU1@0@Z
  0000a	64 a1 00 00 00
	00		 mov	 eax, DWORD PTR fs:0
  00010	50		 push	 eax
  00011	83 ec 2c	 sub	 esp, 44			; 0000002cH
  00014	a1 00 00 00 00	 mov	 eax, DWORD PTR ___security_cookie
  00019	33 c5		 xor	 eax, ebp
  0001b	89 45 f0	 mov	 DWORD PTR __$ArrayPad$[ebp], eax
  0001e	56		 push	 esi
  0001f	50		 push	 eax
  00020	8d 45 f4	 lea	 eax, DWORD PTR __$EHRec$[ebp]
  00023	64 a3 00 00 00
	00		 mov	 DWORD PTR fs:0, eax
  00029	8b 45 0c	 mov	 eax, DWORD PTR _poArgs$[ebp]

; 575  : 	int iVID;
; 576  : 	if (!PyTuple_GetInteger(poArgs, 0, &iVID))

  0002c	8d 4d d4	 lea	 ecx, DWORD PTR _iVID$[ebp]
  0002f	51		 push	 ecx
  00030	6a 00		 push	 0
  00032	50		 push	 eax
  00033	e8 00 00 00 00	 call	 ?PyTuple_GetInteger@@YA_NPAU_object@@HPAH@Z ; PyTuple_GetInteger
  00038	83 c4 0c	 add	 esp, 12			; 0000000cH
  0003b	84 c0		 test	 al, al
  0003d	75 0a		 jne	 SHORT $LN2@background

; 577  : 		return Py_BadArgument();

  0003f	e8 00 00 00 00	 call	 ?Py_BadArgument@@YAPAU_object@@XZ ; Py_BadArgument
  00044	e9 3b 01 00 00	 jmp	 $LN1@background
$LN2@background:
  00049	0f 57 c0	 xorps	 xmm0, xmm0
; File C:\Program Files\Microsoft Visual Studio\2022\Community\VC\Tools\MSVC\14.44.35207\include\xstring

; 517  :     size_type _Mysize = 0; // current length of string (size)

  0004c	c7 45 e8 00 00
	00 00		 mov	 DWORD PTR _g_strEffectShopPos$[ebp+16], 0
; File C:\Program Files\Microsoft Visual Studio\2022\Community\VC\Tools\MSVC\14.44.35207\include\xmemory

; 136  :         return ::operator new(_Bytes);

  00053	6a 40		 push	 64			; 00000040H
; File C:\Program Files\Microsoft Visual Studio\2022\Community\VC\Tools\MSVC\14.44.35207\include\xstring

; 493  :         _CONSTEXPR20 _Bxty() noexcept : _Buf() {} // user-provided, for fancy pointers

  00055	0f 11 45 d8	 movups	 XMMWORD PTR _g_strEffectShopPos$[ebp], xmm0

; 518  :     size_type _Myres  = 0; // current storage reserved for string (capacity)

  00059	c7 45 ec 00 00
	00 00		 mov	 DWORD PTR _g_strEffectShopPos$[ebp+20], 0
; File C:\Program Files\Microsoft Visual Studio\2022\Community\VC\Tools\MSVC\14.44.35207\include\xmemory

; 136  :         return ::operator new(_Bytes);

  00060	e8 00 00 00 00	 call	 ??2@YAPAXI@Z		; operator new
; File C:\Program Files\Microsoft Visual Studio\2022\Community\VC\Tools\MSVC\14.44.35207\include\__msvc_string_view.hpp

; 121  :         _CSTD memcpy(_First1, _First2, _Count * sizeof(_Elem));

  00065	0f 10 05 00 00
	00 00		 movups	 xmm0, XMMWORD PTR ??_C@_0DG@OLHBLANM@d?3?1ymir?5work?1effect?1etc?1directi@
; File C:\Program Files\Microsoft Visual Studio\2022\Community\VC\Tools\MSVC\14.44.35207\include\xmemory

; 256  :         return _Traits::_Allocate(_Bytes);

  0006c	8b c8		 mov	 ecx, eax
; File C:\Program Files\Microsoft Visual Studio\2022\Community\VC\Tools\MSVC\14.44.35207\include\xstring

; 915  :         _My_data._Mysize = _Count;

  0006e	c7 45 e8 35 00
	00 00		 mov	 DWORD PTR _g_strEffectShopPos$[ebp+16], 53 ; 00000035H
  00075	89 4d d8	 mov	 DWORD PTR _g_strEffectShopPos$[ebp], ecx
; File C:\Program Files\Microsoft Visual Studio\2022\Community\VC\Tools\MSVC\14.44.35207\include\xmemory

; 136  :         return ::operator new(_Bytes);

  00078	83 c4 04	 add	 esp, 4
; File C:\Program Files\Microsoft Visual Studio\2022\Community\VC\Tools\MSVC\14.44.35207\include\xstring

; 916  :         _My_data._Myres  = _New_capacity;

  0007b	c7 45 ec 3f 00
	00 00		 mov	 DWORD PTR _g_strEffectShopPos$[ebp+20], 63 ; 0000003fH
; File C:\Program Files\Microsoft Visual Studio\2022\Community\VC\Tools\MSVC\14.44.35207\include\__msvc_string_view.hpp

; 121  :         _CSTD memcpy(_First1, _First2, _Count * sizeof(_Elem));

  00082	0f 11 01	 movups	 XMMWORD PTR [ecx], xmm0
  00085	0f 10 05 10 00
	00 00		 movups	 xmm0, XMMWORD PTR ??_C@_0DG@OLHBLANM@d?3?1ymir?5work?1effect?1etc?1directi@+16
  0008c	0f 11 41 10	 movups	 XMMWORD PTR [ecx+16], xmm0
  00090	0f 10 05 20 00
	00 00		 movups	 xmm0, XMMWORD PTR ??_C@_0DG@OLHBLANM@d?3?1ymir?5work?1effect?1etc?1directi@+32
  00097	0f 11 41 20	 movups	 XMMWORD PTR [ecx+32], xmm0
  0009b	a1 30 00 00 00	 mov	 eax, DWORD PTR ??_C@_0DG@OLHBLANM@d?3?1ymir?5work?1effect?1etc?1directi@+48
  000a0	89 41 30	 mov	 DWORD PTR [ecx+48], eax
  000a3	a0 34 00 00 00	 mov	 al, BYTE PTR ??_C@_0DG@OLHBLANM@d?3?1ymir?5work?1effect?1etc?1directi@+52
  000a8	88 41 34	 mov	 BYTE PTR [ecx+52], al
; File C:\Program Files\Microsoft Visual Studio\2022\Community\VC\Tools\MSVC\14.44.35207\include\xstring

; 922  :             _Traits::assign(_Unfancy(_New_ptr)[_Count], _Elem());

  000ab	c6 41 35 00	 mov	 BYTE PTR [ecx+53], 0
; File C:\Anka2Project\Anka2Project\Source\Binary\source\UserInterface\PythonBackgroundModule.cpp

; 579  : 	std::string g_strEffectShopPos = "d:/ymir work/effect/etc/direction/direction_land2.mse";

  000af	c7 45 fc 00 00
	00 00		 mov	 DWORD PTR __$EHRec$[ebp+8], 0
; File C:\Anka2Project\Anka2Project\Source\Binary\source\eterBase\Singleton.h

; 26   : 		assert(ms_singleton);

  000b6	8b 0d 00 00 00
	00		 mov	 ecx, DWORD PTR ?ms_singleton@?$CSingleton@VCPythonCharacterManager@@@@0PAVCPythonCharacterManager@@A ; CSingleton<CPythonCharacterManager>::ms_singleton
  000bc	85 c9		 test	 ecx, ecx
  000be	75 1a		 jne	 SHORT $LN77@background
  000c0	6a 1a		 push	 26			; 0000001aH
  000c2	68 00 00 00 00	 push	 OFFSET ??_C@_1IO@CAJLEEOI@?$AAC?$AA?3?$AA?2?$AAA?$AAn?$AAk?$AAa?$AA2?$AAP?$AAr?$AAo?$AAj?$AAe?$AAc?$AAt@
  000c7	68 00 00 00 00	 push	 OFFSET ??_C@_1BK@FMEHPMFE@?$AAm?$AAs?$AA_?$AAs?$AAi?$AAn?$AAg?$AAl?$AAe?$AAt?$AAo?$AAn@
  000cc	e8 00 00 00 00	 call	 __wassert
  000d1	8b 0d 00 00 00
	00		 mov	 ecx, DWORD PTR ?ms_singleton@?$CSingleton@VCPythonCharacterManager@@@@0PAVCPythonCharacterManager@@A ; CSingleton<CPythonCharacterManager>::ms_singleton
  000d7	83 c4 0c	 add	 esp, 12			; 0000000cH
$LN77@background:
; File C:\Anka2Project\Anka2Project\Source\Binary\source\UserInterface\PythonBackgroundModule.cpp

; 581  : 	CInstanceBase * pCharacterInstance = CPythonCharacterManager::Instance().GetInstancePtr(iVID);

  000da	8b 41 04	 mov	 eax, DWORD PTR [ecx+4]
  000dd	83 c1 04	 add	 ecx, 4
  000e0	ff 75 d4	 push	 DWORD PTR _iVID$[ebp]
  000e3	8b 40 08	 mov	 eax, DWORD PTR [eax+8]
  000e6	ff d0		 call	 eax

; 582  : 	if (!pCharacterInstance)

  000e8	85 c0		 test	 eax, eax
  000ea	74 5f		 je	 SHORT $LN6@background

; 583  : 		return Py_BuildNone();
; 584  : 
; 585  : 	TPixelPosition kPixelPosition;
; 586  : 	pCharacterInstance->NEW_GetPixelPosition(&kPixelPosition);

  000ec	8d 4d c8	 lea	 ecx, DWORD PTR _kPixelPosition$[ebp]
  000ef	51		 push	 ecx
  000f0	8b c8		 mov	 ecx, eax
  000f2	e8 00 00 00 00	 call	 ?NEW_GetPixelPosition@CInstanceBase@@QAEXPAUD3DXVECTOR3@@@Z ; CInstanceBase::NEW_GetPixelPosition
; File C:\Anka2Project\Anka2Project\Source\Binary\source\eterBase\Singleton.h

; 26   : 		assert(ms_singleton);

  000f7	8b 0d 00 00 00
	00		 mov	 ecx, DWORD PTR ?ms_singleton@?$CSingleton@VCPythonBackground@@@@0PAVCPythonBackground@@A ; CSingleton<CPythonBackground>::ms_singleton
  000fd	85 c9		 test	 ecx, ecx
  000ff	75 1a		 jne	 SHORT $LN99@background
  00101	6a 1a		 push	 26			; 0000001aH
  00103	68 00 00 00 00	 push	 OFFSET ??_C@_1IO@CAJLEEOI@?$AAC?$AA?3?$AA?2?$AAA?$AAn?$AAk?$AAa?$AA2?$AAP?$AAr?$AAo?$AAj?$AAe?$AAc?$AAt@
  00108	68 00 00 00 00	 push	 OFFSET ??_C@_1BK@FMEHPMFE@?$AAm?$AAs?$AA_?$AAs?$AAi?$AAn?$AAg?$AAl?$AAe?$AAt?$AAo?$AAn@
  0010d	e8 00 00 00 00	 call	 __wassert
  00112	8b 0d 00 00 00
	00		 mov	 ecx, DWORD PTR ?ms_singleton@?$CSingleton@VCPythonBackground@@@@0PAVCPythonBackground@@A ; CSingleton<CPythonBackground>::ms_singleton
  00118	83 c4 0c	 add	 esp, 12			; 0000000cH
$LN99@background:
; File C:\Program Files\Microsoft Visual Studio\2022\Community\VC\Tools\MSVC\14.44.35207\include\xstring

; 453  :         return _Myres > _Small_string_capacity;

  0011b	83 7d ec 0f	 cmp	 DWORD PTR _g_strEffectShopPos$[ebp+20], 15 ; 0000000fH

; 444  :         const value_type* _Result = _Bx._Buf;

  0011f	8d 45 d8	 lea	 eax, DWORD PTR _g_strEffectShopPos$[ebp]
; File C:\Anka2Project\Anka2Project\Source\Binary\source\UserInterface\PythonBackgroundModule.cpp

; 588  : 	CPythonBackground::Instance().CreateSpecialShopPosEffect(iVID, +kPixelPosition.x, -kPixelPosition.y, +kPixelPosition.z, g_strEffectShopPos.c_str());

  00122	f3 0f 10 45 d0	 movss	 xmm0, DWORD PTR _kPixelPosition$[ebp+8]
; File C:\Program Files\Microsoft Visual Studio\2022\Community\VC\Tools\MSVC\14.44.35207\include\xstring

; 445  :         if (_Large_mode_engaged()) {

  00127	0f 47 45 d8	 cmova	 eax, DWORD PTR _g_strEffectShopPos$[ebp]
; File C:\Anka2Project\Anka2Project\Source\Binary\source\UserInterface\PythonBackgroundModule.cpp

; 588  : 	CPythonBackground::Instance().CreateSpecialShopPosEffect(iVID, +kPixelPosition.x, -kPixelPosition.y, +kPixelPosition.z, g_strEffectShopPos.c_str());

  0012b	f3 0f 10 5d cc	 movss	 xmm3, DWORD PTR _kPixelPosition$[ebp+4]
  00130	0f 57 1d 00 00
	00 00		 xorps	 xmm3, DWORD PTR __xmm@80000000800000008000000080000000
  00137	f3 0f 10 55 c8	 movss	 xmm2, DWORD PTR _kPixelPosition$[ebp]
  0013c	50		 push	 eax
  0013d	51		 push	 ecx
  0013e	f3 0f 11 04 24	 movss	 DWORD PTR [esp], xmm0
  00143	ff 75 d4	 push	 DWORD PTR _iVID$[ebp]
  00146	e8 00 00 00 00	 call	 ?CreateSpecialShopPosEffect@CPythonBackground@@QAEXKMMMPBD@Z ; CPythonBackground::CreateSpecialShopPosEffect
$LN6@background:
; File C:\Program Files\Microsoft Visual Studio\2022\Community\VC\Tools\MSVC\14.44.35207\include\xstring

; 453  :         return _Myres > _Small_string_capacity;

  0014b	e8 00 00 00 00	 call	 ?Py_BuildNone@@YAPAU_object@@XZ ; Py_BuildNone
  00150	8b 4d ec	 mov	 ecx, DWORD PTR _g_strEffectShopPos$[ebp+20]
  00153	8b f0		 mov	 esi, eax
  00155	83 f9 0f	 cmp	 ecx, 15			; 0000000fH

; 3083 :         if (_My_data._Large_mode_engaged()) {

  00158	76 28		 jbe	 SHORT $LN128@background
; File C:\Program Files\Microsoft Visual Studio\2022\Community\VC\Tools\MSVC\14.44.35207\include\xmemory

; 985  :         _STD _Deallocate<_New_alignof<_Ty>>(_Ptr, sizeof(_Ty) * _Count);

  0015a	8b 55 d8	 mov	 edx, DWORD PTR _g_strEffectShopPos$[ebp]
; File C:\Program Files\Microsoft Visual Studio\2022\Community\VC\Tools\MSVC\14.44.35207\include\xstring

; 852  :         _Al.deallocate(_Old_ptr, _Capacity + 1); // +1 for null terminator

  0015d	41		 inc	 ecx
; File C:\Program Files\Microsoft Visual Studio\2022\Community\VC\Tools\MSVC\14.44.35207\include\xmemory

; 985  :         _STD _Deallocate<_New_alignof<_Ty>>(_Ptr, sizeof(_Ty) * _Count);

  0015e	8b c2		 mov	 eax, edx

; 284  :         if (_Bytes >= _Big_allocation_threshold) {

  00160	81 f9 00 10 00
	00		 cmp	 ecx, 4096		; 00001000H
  00166	72 10		 jb	 SHORT $LN136@background

; 205  :     const uintptr_t _Ptr_container   = _Ptr_user[-1];

  00168	8b 50 fc	 mov	 edx, DWORD PTR [eax-4]
  0016b	83 c1 23	 add	 ecx, 35			; 00000023H
  0016e	2b c2		 sub	 eax, edx

; 219  :     _STL_VERIFY(_Back_shift >= _Min_back_shift && _Back_shift <= _Non_user_size, "invalid argument");

  00170	83 c0 fc	 add	 eax, -4			; fffffffcH
  00173	83 f8 1f	 cmp	 eax, 31			; 0000001fH
  00176	77 26		 ja	 SHORT $LN167@background
$LN136@background:

; 289  :         ::operator delete(_Ptr, _Bytes);

  00178	51		 push	 ecx
  00179	52		 push	 edx
  0017a	e8 00 00 00 00	 call	 ??3@YAXPAXI@Z		; operator delete
  0017f	83 c4 08	 add	 esp, 8
$LN128@background:
; File C:\Anka2Project\Anka2Project\Source\Binary\source\UserInterface\PythonBackgroundModule.cpp

; 590  : 	return Py_BuildNone();

  00182	8b c6		 mov	 eax, esi
$LN1@background:

; 591  : }

  00184	8b 4d f4	 mov	 ecx, DWORD PTR __$EHRec$[ebp]
  00187	64 89 0d 00 00
	00 00		 mov	 DWORD PTR fs:0, ecx
  0018e	59		 pop	 ecx
  0018f	5e		 pop	 esi
  00190	8b 4d f0	 mov	 ecx, DWORD PTR __$ArrayPad$[ebp]
  00193	33 cd		 xor	 ecx, ebp
  00195	e8 00 00 00 00	 call	 @__security_check_cookie@4
  0019a	8b e5		 mov	 esp, ebp
  0019c	5d		 pop	 ebp
  0019d	c3		 ret	 0
$LN167@background:
; File C:\Program Files\Microsoft Visual Studio\2022\Community\VC\Tools\MSVC\14.44.35207\include\xmemory

; 219  :     _STL_VERIFY(_Back_shift >= _Min_back_shift && _Back_shift <= _Non_user_size, "invalid argument");

  0019e	6a 00		 push	 0
  001a0	6a 00		 push	 0
  001a2	6a 00		 push	 0
  001a4	6a 00		 push	 0
  001a6	6a 00		 push	 0
  001a8	e8 00 00 00 00	 call	 __invoke_watson
$LN165@background:
  001ad	cc		 int	 3
_TEXT	ENDS
;	COMDAT text$x
text$x	SEGMENT
__unwindfunclet$?backgroundCreatePrivateShopPos@@YAPAU_object@@PAU1@0@Z$0:
  00000	8d 4d d8	 lea	 ecx, DWORD PTR _g_strEffectShopPos$[ebp]
  00003	e9 00 00 00 00	 jmp	 ??1?$basic_string@DU?$char_traits@D@std@@V?$allocator@D@2@@std@@QAE@XZ ; std::basic_string<char,std::char_traits<char>,std::allocator<char> >::~basic_string<char,std::char_traits<char>,std::allocator<char> >
  00008	cc		 int	 3
  00009	cc		 int	 3
  0000a	cc		 int	 3
  0000b	cc		 int	 3
  0000c	cc		 int	 3
__ehhandler$?backgroundCreatePrivateShopPos@@YAPAU_object@@PAU1@0@Z:
  0000d	90		 npad	 1
  0000e	90		 npad	 1
  0000f	8b 54 24 08	 mov	 edx, DWORD PTR [esp+8]
  00013	8d 42 0c	 lea	 eax, DWORD PTR [edx+12]
  00016	8b 4a cc	 mov	 ecx, DWORD PTR [edx-52]
  00019	33 c8		 xor	 ecx, eax
  0001b	e8 00 00 00 00	 call	 @__security_check_cookie@4
  00020	8b 4a fc	 mov	 ecx, DWORD PTR [edx-4]
  00023	33 c8		 xor	 ecx, eax
  00025	e8 00 00 00 00	 call	 @__security_check_cookie@4
  0002a	b8 00 00 00 00	 mov	 eax, OFFSET __ehfuncinfo$?backgroundCreatePrivateShopPos@@YAPAU_object@@PAU1@0@Z
  0002f	e9 00 00 00 00	 jmp	 ___CxxFrameHandler3
text$x	ENDS
?backgroundCreatePrivateShopPos@@YAPAU_object@@PAU1@0@Z ENDP ; backgroundCreatePrivateShopPos
; Function compile flags: /Ogtp
; File C:\Anka2Project\Anka2Project\Source\Binary\source\UserInterface\PythonBackgroundModule.cpp
;	COMDAT ?initBackground@@YAXXZ
_TEXT	SEGMENT
?initBackground@@YAXXZ PROC				; initBackground, COMDAT

; 601  : {

  00000	56		 push	 esi
  00001	57		 push	 edi

; 602  : 	static PyMethodDef s_methods[] =
; 603  : 	{
; 604  : 		{ "EnableSnow",							backgroundEnableSnow,						METH_VARARGS }, 
; 605  : 		{ "GlobalPositionToLocalPosition",		backgroundGlobalPositionToLocalPosition,	METH_VARARGS }, 
; 606  : 		{ "GlobalPositionToMapInfo",			backgroundGlobalPositionToMapInfo,			METH_VARARGS }, 
; 607  : 		{ "GetRenderShadowTime",				backgroundGetRenderShadowTime,				METH_VARARGS },
; 608  : 		{ "LoadMap",							backgroundLoadMap,							METH_VARARGS },
; 609  : 		{ "Destroy",							backgroundDestroy,							METH_VARARGS },
; 610  : 		{ "RegisterEnvironmentData",			backgroundRegisterEnvironmentData,			METH_VARARGS },
; 611  : 		{ "SetEnvironmentData",					backgroundSetEnvironmentData,				METH_VARARGS },
; 612  : 		{ "GetCurrentMapName",					backgroundGetCurrentMapName,				METH_VARARGS },
; 613  : 		{ "GetPickingPoint",					backgroundGetPickingPoint,					METH_VARARGS },
; 614  : 
; 615  : 		{ "BeginEnvironment",					backgroundBeginEnvironment,					METH_VARARGS },
; 616  : 		{ "EndEnvironment",						backgroundEndEnvironemt,					METH_VARARGS },
; 617  : 		{ "SetCharacterDirLight",				backgroundSetCharacterDirLight,				METH_VARARGS },
; 618  : 		{ "SetBackgroundDirLight",				backgroundSetBackgroundDirLight,			METH_VARARGS },
; 619  : 
; 620  : 		{ "Initialize",							backgroundInitialize,						METH_VARARGS },
; 621  : 		{ "Update",								backgroundUpdate,							METH_VARARGS },
; 622  : 		{ "Render",								backgroundRender,							METH_VARARGS },
; 623  : 		{ "RenderPCBlocker",					backgroundRenderPCBlocker,					METH_VARARGS },
; 624  : 		{ "RenderCollision",					backgroundRenderCollision,					METH_VARARGS },
; 625  : 		{ "RenderSky",							backgroundRenderSky,						METH_VARARGS },
; 626  : 		{ "RenderCloud",						backgroundRenderCloud,						METH_VARARGS },
; 627  : 		{ "RenderWater",						backgroundRenderWater,						METH_VARARGS },
; 628  : 		{ "RenderEffect",						backgroundRenderEffect,						METH_VARARGS },
; 629  : 		{ "RenderBeforeLensFlare",				backgroundRenderBeforeLensFlare,			METH_VARARGS },
; 630  : 		{ "RenderAfterLensFlare",				backgroundRenderAfterLensFlare,				METH_VARARGS },
; 631  : 		{ "RenderCharacterShadowToTexture",		backgroundRenderCharacterShadowToTexture,	METH_VARARGS },
; 632  : 		{ "RenderDungeon",						backgroundRenderDungeon,					METH_VARARGS },
; 633  : 		{ "GetHeight",							backgroundGetHeight,						METH_VARARGS },
; 634  : 		
; 635  : 		{ "SetShadowLevel",						backgroundSetShadowLevel,					METH_VARARGS },
; 636  : 
; 637  : 		{ "SetVisiblePart",						backgroundSetVisiblePart,					METH_VARARGS },
; 638  : 		{ "GetShadowMapColor",					backgroundGetShadowMapcolor,				METH_VARARGS },
; 639  : 		{ "SetSplatLimit",						backgroundSetSpaltLimit,					METH_VARARGS },
; 640  : 		{ "GetRenderedSplatNum",				backgroundGetRenderedSplatNum,				METH_VARARGS },
; 641  : 		{ "GetRenderedGraphicThingInstanceNum",	backgroundGetRenderedGTINum,				METH_VARARGS },
; 642  : 		{ "SelectViewDistanceNum",				backgroundSelectViewDistanceNum,			METH_VARARGS },
; 643  : 		{ "SetViewDistanceSet",					backgroundSetViewDistanceSet,				METH_VARARGS },
; 644  : 		{ "GetFarClip",							backgroundGetFarClip,						METH_VARARGS },
; 645  : 		{ "GetDistanceSetInfo",					backgroundGetDistanceSetInfo,				METH_VARARGS },
; 646  : 		{ "SetBGLoading",						backgroundSetBGLoading,						METH_VARARGS },
; 647  : 		{ "SetRenderSort",						backgroundSetRenderSort,					METH_VARARGS },
; 648  : 		{ "SetTransparentTree",					backgroundSetTransparentTree,				METH_VARARGS },
; 649  : 		{ "SetXMasTree",						backgroundSetXMasTree,						METH_VARARGS },
; 650  : 		{ "RegisterDungeonMapName",				backgroundRegisterDungeonMapName,			METH_VARARGS },
; 651  : 
; 652  : 		{ "VisibleGuildArea",					backgroundVisibleGuildArea,					METH_VARARGS },
; 653  : 		{ "DisableGuildArea",					backgroundDisableGuildArea,					METH_VARARGS },
; 654  : 
; 655  : 		{ "WarpTest",							backgroundWarpTest,							METH_VARARGS },
; 656  : 
; 657  : #ifdef ENABLE_FOG_FIX
; 658  : 		{ "SetEnvironmentFog",					backgroundSetEnvironmentFog,				METH_VARARGS },
; 659  : #endif
; 660  : 
; 661  : #ifdef ENABLE_ENVIRONMENT_EFFECT_OPTION
; 662  : 		{ "IsBoomMap",							backgroundIsBoomMap,						METH_VARARGS },
; 663  : 		{ "SnowTexture",						backgroundSnowTexture,						METH_VARARGS },
; 664  : 		{ "SetNightModeOption",					backgroundSetNightModeOption,				METH_VARARGS },
; 665  : 		{ "GetDayMode",							backgroundGetDayMode,						METH_VARARGS },
; 666  : 		{ "ChangeEnvironmentData",				backgroundChangeEnvironmentData,			METH_VARARGS },
; 667  : #endif
; 668  : 
; 669  : #ifdef ENABLE_OFFLINESHOP_SEARCH_SYSTEM
; 670  : 		{ "CreatePrivateShopPos",				backgroundCreatePrivateShopPos,				METH_VARARGS },
; 671  : 		{ "DeletePrivateShopPos",				backgroundDeletePrivateShopPos,				METH_VARARGS },
; 672  : #endif
; 673  : 
; 674  : 		{ nullptr, nullptr },
; 675  : 	};
; 676  : 
; 677  : 	PyObject *poModule = Py_InitModule("background", s_methods);

  00002	68 f5 03 00 00	 push	 1013			; 000003f5H
  00007	6a 00		 push	 0
  00009	6a 00		 push	 0
  0000b	68 00 00 00 00	 push	 OFFSET ?s_methods@?1??initBackground@@YAXXZ@4PAUPyMethodDef@@A
  00010	68 00 00 00 00	 push	 OFFSET ??_C@_0L@EGCKCJDC@background@
  00015	ff 15 00 00 00
	00		 call	 DWORD PTR __imp__Py_InitModule4

; 678  : 
; 679  : 	PyModule_AddIntConstant(poModule, "PART_SKY", CMapOutdoor::PART_SKY);

  0001b	8b 35 00 00 00
	00		 mov	 esi, DWORD PTR __imp__PyModule_AddIntConstant
  00021	8b f8		 mov	 edi, eax
  00023	6a 05		 push	 5
  00025	68 00 00 00 00	 push	 OFFSET ??_C@_08NJILKGEB@PART_SKY@
  0002a	57		 push	 edi
  0002b	ff d6		 call	 esi

; 680  : 	PyModule_AddIntConstant(poModule, "PART_TREE", CMapOutdoor::PART_TREE);

  0002d	6a 04		 push	 4
  0002f	68 00 00 00 00	 push	 OFFSET ??_C@_09GABNPPB@PART_TREE@
  00034	57		 push	 edi
  00035	ff d6		 call	 esi

; 681  : 	PyModule_AddIntConstant(poModule, "PART_CLOUD", CMapOutdoor::PART_CLOUD);

  00037	6a 02		 push	 2
  00039	68 00 00 00 00	 push	 OFFSET ??_C@_0L@OMDBBBIA@PART_CLOUD@
  0003e	57		 push	 edi
  0003f	ff d6		 call	 esi

; 682  : 	PyModule_AddIntConstant(poModule, "PART_WATER", CMapOutdoor::PART_WATER);

  00041	6a 03		 push	 3
  00043	68 00 00 00 00	 push	 OFFSET ??_C@_0L@LEAFDIF@PART_WATER@
  00048	57		 push	 edi
  00049	ff d6		 call	 esi
  0004b	83 c4 44	 add	 esp, 68			; 00000044H

; 683  : 	PyModule_AddIntConstant(poModule, "PART_OBJECT", CMapOutdoor::PART_OBJECT);

  0004e	6a 01		 push	 1
  00050	68 00 00 00 00	 push	 OFFSET ??_C@_0M@FDJPOPAP@PART_OBJECT@
  00055	57		 push	 edi
  00056	ff d6		 call	 esi

; 684  : 	PyModule_AddIntConstant(poModule, "PART_TERRAIN", CMapOutdoor::PART_TERRAIN);

  00058	6a 00		 push	 0
  0005a	68 00 00 00 00	 push	 OFFSET ??_C@_0N@JJNCMAMK@PART_TERRAIN@
  0005f	57		 push	 edi
  00060	ff d6		 call	 esi

; 685  : 
; 686  : 	PyModule_AddIntConstant(poModule, "SKY_RENDER_MODE_DEFAULT", CSkyObject::SKY_RENDER_MODE_DEFAULT);

  00062	6a 00		 push	 0
  00064	68 00 00 00 00	 push	 OFFSET ??_C@_0BI@KFLFFAKF@SKY_RENDER_MODE_DEFAULT@
  00069	57		 push	 edi
  0006a	ff d6		 call	 esi

; 687  : 	PyModule_AddIntConstant(poModule, "SKY_RENDER_MODE_DIFFUSE", CSkyObject::SKY_RENDER_MODE_DIFFUSE);

  0006c	6a 01		 push	 1
  0006e	68 00 00 00 00	 push	 OFFSET ??_C@_0BI@JEJGCBJM@SKY_RENDER_MODE_DIFFUSE@
  00073	57		 push	 edi
  00074	ff d6		 call	 esi

; 688  : 	PyModule_AddIntConstant(poModule, "SKY_RENDER_MODE_TEXTURE", CSkyObject::SKY_RENDER_MODE_TEXTURE);

  00076	6a 02		 push	 2
  00078	68 00 00 00 00	 push	 OFFSET ??_C@_0BI@NLDLHPN@SKY_RENDER_MODE_TEXTURE@
  0007d	57		 push	 edi
  0007e	ff d6		 call	 esi

; 689  : 	PyModule_AddIntConstant(poModule, "SKY_RENDER_MODE_MODULATE", CSkyObject::SKY_RENDER_MODE_MODULATE);

  00080	6a 03		 push	 3
  00082	68 00 00 00 00	 push	 OFFSET ??_C@_0BJ@IGDGIPGO@SKY_RENDER_MODE_MODULATE@
  00087	57		 push	 edi
  00088	ff d6		 call	 esi
  0008a	83 c4 48	 add	 esp, 72			; 00000048H

; 690  : 	PyModule_AddIntConstant(poModule, "SKY_RENDER_MODE_MODULATE2X", CSkyObject::SKY_RENDER_MODE_MODULATE2X);

  0008d	6a 04		 push	 4
  0008f	68 00 00 00 00	 push	 OFFSET ??_C@_0BL@NDPELIAM@SKY_RENDER_MODE_MODULATE2X@
  00094	57		 push	 edi
  00095	ff d6		 call	 esi

; 691  : 	PyModule_AddIntConstant(poModule, "SKY_RENDER_MODE_MODULATE4X", CSkyObject::SKY_RENDER_MODE_MODULATE4X);

  00097	6a 05		 push	 5
  00099	68 00 00 00 00	 push	 OFFSET ??_C@_0BL@NHHJMELO@SKY_RENDER_MODE_MODULATE4X@
  0009e	57		 push	 edi
  0009f	ff d6		 call	 esi

; 692  : 
; 693  : 	PyModule_AddIntConstant(poModule, "SHADOW_NONE", CPythonBackground::SHADOW_NONE);

  000a1	6a 00		 push	 0
  000a3	68 00 00 00 00	 push	 OFFSET ??_C@_0M@GJOLHPMA@SHADOW_NONE@
  000a8	57		 push	 edi
  000a9	ff d6		 call	 esi

; 694  : 	PyModule_AddIntConstant(poModule, "SHADOW_GROUND", CPythonBackground::SHADOW_GROUND);

  000ab	6a 01		 push	 1
  000ad	68 00 00 00 00	 push	 OFFSET ??_C@_0O@KCPINCHK@SHADOW_GROUND@
  000b2	57		 push	 edi
  000b3	ff d6		 call	 esi

; 695  : 	PyModule_AddIntConstant(poModule, "SHADOW_GROUND_AND_SOLO", CPythonBackground::SHADOW_GROUND_AND_SOLO);

  000b5	6a 02		 push	 2
  000b7	68 00 00 00 00	 push	 OFFSET ??_C@_0BH@GACINHHJ@SHADOW_GROUND_AND_SOLO@
  000bc	57		 push	 edi
  000bd	ff d6		 call	 esi

; 696  : 	PyModule_AddIntConstant(poModule, "SHADOW_ALL", CPythonBackground::SHADOW_ALL);

  000bf	6a 03		 push	 3
  000c1	68 00 00 00 00	 push	 OFFSET ??_C@_0L@IDBIEHAB@SHADOW_ALL@
  000c6	57		 push	 edi
  000c7	ff d6		 call	 esi
  000c9	83 c4 48	 add	 esp, 72			; 00000048H

; 697  : 	PyModule_AddIntConstant(poModule, "SHADOW_ALL_HIGH", CPythonBackground::SHADOW_ALL_HIGH);

  000cc	6a 04		 push	 4
  000ce	68 00 00 00 00	 push	 OFFSET ??_C@_0BA@HAKJACB@SHADOW_ALL_HIGH@
  000d3	57		 push	 edi
  000d4	ff d6		 call	 esi

; 698  : 	PyModule_AddIntConstant(poModule, "SHADOW_ALL_MAX", CPythonBackground::SHADOW_ALL_MAX);

  000d6	6a 05		 push	 5
  000d8	68 00 00 00 00	 push	 OFFSET ??_C@_0P@OLMEFOLC@SHADOW_ALL_MAX@
  000dd	57		 push	 edi
  000de	ff d6		 call	 esi

; 699  : 
; 700  : 	PyModule_AddIntConstant(poModule, "DISTANCE0", CPythonBackground::DISTANCE0);

  000e0	6a 00		 push	 0
  000e2	68 00 00 00 00	 push	 OFFSET ??_C@_09PGFHANGE@DISTANCE0@
  000e7	57		 push	 edi
  000e8	ff d6		 call	 esi

; 701  : 	PyModule_AddIntConstant(poModule, "DISTANCE1", CPythonBackground::DISTANCE1);

  000ea	6a 01		 push	 1
  000ec	68 00 00 00 00	 push	 OFFSET ??_C@_09OPEMDMCF@DISTANCE1@
  000f1	57		 push	 edi
  000f2	ff d6		 call	 esi

; 702  : 	PyModule_AddIntConstant(poModule, "DISTANCE2", CPythonBackground::DISTANCE2);

  000f4	6a 02		 push	 2
  000f6	68 00 00 00 00	 push	 OFFSET ??_C@_09MEGBGPOG@DISTANCE2@
  000fb	57		 push	 edi
  000fc	ff d6		 call	 esi

; 703  : 	PyModule_AddIntConstant(poModule, "DISTANCE3", CPythonBackground::DISTANCE3);

  000fe	6a 03		 push	 3
  00100	68 00 00 00 00	 push	 OFFSET ??_C@_09NNHKFOKH@DISTANCE3@
  00105	57		 push	 edi
  00106	ff d6		 call	 esi
  00108	83 c4 48	 add	 esp, 72			; 00000048H

; 704  : 	PyModule_AddIntConstant(poModule, "DISTANCE4", CPythonBackground::DISTANCE4);

  0010b	6a 04		 push	 4
  0010d	68 00 00 00 00	 push	 OFFSET ??_C@_09JCDLMIGA@DISTANCE4@
  00112	57		 push	 edi
  00113	ff d6		 call	 esi

; 705  : 
; 706  : 	PyModule_AddIntConstant(poModule, "DAY_MODE_LIGHT", CPythonBackground::DAY_MODE_LIGHT);

  00115	6a 00		 push	 0
  00117	68 00 00 00 00	 push	 OFFSET ??_C@_0P@LKPKNHPP@DAY_MODE_LIGHT@
  0011c	57		 push	 edi
  0011d	ff d6		 call	 esi

; 707  : 	PyModule_AddIntConstant(poModule, "DAY_MODE_DARK", CPythonBackground::DAY_MODE_DARK);

  0011f	6a 01		 push	 1
  00121	68 00 00 00 00	 push	 OFFSET ??_C@_0O@ICODDOGP@DAY_MODE_DARK@
  00126	57		 push	 edi
  00127	ff d6		 call	 esi

; 708  : 
; 709  : 	PyModule_AddIntConstant(poModule, "DISTANCE_SORT", CMapOutdoor::DISTANCE_SORT);

  00129	6a 00		 push	 0
  0012b	68 00 00 00 00	 push	 OFFSET ??_C@_0O@OJDBENMM@DISTANCE_SORT@
  00130	57		 push	 edi
  00131	ff d6		 call	 esi

; 710  : 	PyModule_AddIntConstant(poModule, "TEXTURE_SORT", CMapOutdoor::TEXTURE_SORT);

  00133	6a 01		 push	 1
  00135	68 00 00 00 00	 push	 OFFSET ??_C@_0N@CKPMLBKJ@TEXTURE_SORT@
  0013a	57		 push	 edi
  0013b	ff d6		 call	 esi
  0013d	83 c4 3c	 add	 esp, 60			; 0000003cH
  00140	5f		 pop	 edi
  00141	5e		 pop	 esi

; 711  : }

  00142	c3		 ret	 0
?initBackground@@YAXXZ ENDP				; initBackground
_TEXT	ENDS
END
