; Listing generated by Microsoft (R) Optimizing Compiler Version 19.44.35219.0 

	TITLE	c:\anka2project\anka2project\source\binary\vs_files\userinterface\release\pythonminimapmodule.obj
	.686P
	.XMM
	include listing.inc
	.model	flat

INCLUDELIB OLDNAMES

PUBLIC	??_C@_0CO@JOBACLFH@CPythonMiniMap?3?3Instance?$CI?$CJ?4Load@ ; `string'
PUBLIC	??_C@_05BHNEPGFM@isiil@				; `string'
PUBLIC	??_C@_03LMKNDPCK@bii@				; `string'
PUBLIC	??_C@_07LBOJHCOE@isiilii@			; `string'
PUBLIC	??_C@_07CNPAFGOE@ScaleUp@			; `string'
PUBLIC	??_C@_08FMFAIGAB@SetScale@			; `string'
PUBLIC	??_C@_0P@JDEKHKMA@SetMiniMapSize@		; `string'
PUBLIC	??_C@_09EHCACONO@ScaleDown@			; `string'
PUBLIC	??_C@_09IMDAKKFO@LoadAtlas@			; `string'
PUBLIC	??_C@_06FDNPFPAD@isShow@			; `string'
PUBLIC	??_C@_0M@KMBFBAJA@RenderAtlas@			; `string'
PUBLIC	??_C@_0M@EIPBNHOF@UpdateAtlas@			; `string'
PUBLIC	??_C@_09BIFGHGHO@HideAtlas@			; `string'
PUBLIC	??_C@_09HNEIIJJD@ShowAtlas@			; `string'
PUBLIC	??_C@_07IFCOGPLJ@IsAtlas@			; `string'
PUBLIC	??_C@_0M@DHCMEFOB@isShowAtlas@			; `string'
PUBLIC	??_C@_0N@ENAKBIJM@GetAtlasSize@			; `string'
PUBLIC	??_C@_0N@BFFOBNJI@GetAtlasInfo@			; `string'
PUBLIC	??_C@_0P@BPFHEFHK@RemoveWayPoint@		; `string'
PUBLIC	??_C@_0M@DMLHJAOH@AddWayPoint@			; `string'
PUBLIC	??_C@_0BG@BMPPHBMB@UnregisterAtlasWindow@	; `string'
PUBLIC	??_C@_0BE@DJCJPBHI@RegisterAtlasWindow@		; `string'
PUBLIC	??_C@_0O@FMBJAKFC@SetAtlasScale@		; `string'
PUBLIC	??_C@_0P@JOOPKKLO@GetGuildAreaID@		; `string'
PUBLIC	??_C@_0BB@POEIPFHN@SetAutoHuntRange@		; `string'
PUBLIC	??_C@_0BH@ECDLLKHP@SetAutoHuntRangeStatus@	; `string'
PUBLIC	??_C@_08MOLNEDKJ@TYPE_OPC@			; `string'
PUBLIC	??_C@_07GGJFLPNN@miniMap@			; `string'
PUBLIC	??_C@_0BA@DAENBNGA@TYPE_OPCPVPSELF@		; `string'
PUBLIC	??_C@_0M@KBKKLFCC@TYPE_OPCPVP@			; `string'
PUBLIC	??_C@_0N@MFCFPPMD@TYPE_MONSTER@			; `string'
PUBLIC	??_C@_08HGABCEMM@TYPE_NPC@			; `string'
PUBLIC	??_C@_0O@JMCMGHKJ@TYPE_WAYPOINT@		; `string'
PUBLIC	??_C@_09LAKONOKF@TYPE_WARP@			; `string'
PUBLIC	??_C@_0M@IAHPEAKG@TYPE_EMPIRE@			; `string'
PUBLIC	??_C@_0L@NHHJIHMA@TYPE_PARTY@			; `string'
EXTRN	?PR_ICNV@@3JA:DWORD				; PR_ICNV
EXTRN	?PR_FCNV@@3MA:DWORD				; PR_FCNV
;	COMDAT ?s_methods@?1??initMiniMap@@YAXXZ@4PAUPyMethodDef@@A
_DATA	SEGMENT
?s_methods@?1??initMiniMap@@YAXXZ@4PAUPyMethodDef@@A DD FLAT:??_C@_08FMFAIGAB@SetScale@ ; `initMiniMap'::`2'::s_methods
	DD	FLAT:?miniMapSetScale@@YAPAU_object@@PAU1@0@Z
	DD	01H
	ORG $+4
	DD	FLAT:??_C@_07CNPAFGOE@ScaleUp@
	DD	FLAT:?miniMapScaleUp@@YAPAU_object@@PAU1@0@Z
	DD	01H
	ORG $+4
	DD	FLAT:??_C@_09EHCACONO@ScaleDown@
	DD	FLAT:?miniMapScaleDown@@YAPAU_object@@PAU1@0@Z
	DD	01H
	ORG $+4
	DD	FLAT:??_C@_0P@JDEKHKMA@SetMiniMapSize@
	DD	FLAT:?miniMapSetMiniMapSize@@YAPAU_object@@PAU1@0@Z
	DD	01H
	ORG $+4
	DD	FLAT:??_C@_0BC@MCKFCFLJ@SetCenterPosition@
	DD	FLAT:?miniMapSetCenterPosition@@YAPAU_object@@PAU1@0@Z
	DD	01H
	ORG $+4
	DD	FLAT:??_C@_07BDCAJABG@Destroy@
	DD	FLAT:?miniMapDestroy@@YAPAU_object@@PAU1@0@Z
	DD	01H
	ORG $+4
	DD	FLAT:??_C@_06MIKANEJK@Create@
	DD	FLAT:?miniMapCreate@@YAPAU_object@@PAU1@0@Z
	DD	01H
	ORG $+4
	DD	FLAT:??_C@_06LMAGPFNF@Update@
	DD	FLAT:?miniMapUpdate@@YAPAU_object@@PAU1@0@Z
	DD	01H
	ORG $+4
	DD	FLAT:??_C@_06EPLDPNDB@Render@
	DD	FLAT:?miniMapRender@@YAPAU_object@@PAU1@0@Z
	DD	01H
	ORG $+4
	DD	FLAT:??_C@_04JLAJABDJ@Show@
	DD	FLAT:?miniMapShow@@YAPAU_object@@PAU1@0@Z
	DD	01H
	ORG $+4
	DD	FLAT:??_C@_04EACEFPPN@Hide@
	DD	FLAT:?miniMapHide@@YAPAU_object@@PAU1@0@Z
	DD	01H
	ORG $+4
	DD	FLAT:??_C@_06FDNPFPAD@isShow@
	DD	FLAT:?miniMapisShow@@YAPAU_object@@PAU1@0@Z
	DD	01H
	ORG $+4
	DD	FLAT:??_C@_07NAJNLNAF@GetInfo@
	DD	FLAT:?miniMapGetInfo@@YAPAU_object@@PAU1@0@Z
	DD	01H
	ORG $+4
	DD	FLAT:??_C@_09IMDAKKFO@LoadAtlas@
	DD	FLAT:?miniMapLoadAtlas@@YAPAU_object@@PAU1@0@Z
	DD	01H
	ORG $+4
	DD	FLAT:??_C@_0M@EIPBNHOF@UpdateAtlas@
	DD	FLAT:?miniMapUpdateAtlas@@YAPAU_object@@PAU1@0@Z
	DD	01H
	ORG $+4
	DD	FLAT:??_C@_0M@KMBFBAJA@RenderAtlas@
	DD	FLAT:?miniMapRenderAtlas@@YAPAU_object@@PAU1@0@Z
	DD	01H
	ORG $+4
	DD	FLAT:??_C@_09HNEIIJJD@ShowAtlas@
	DD	FLAT:?miniMapShowAtlas@@YAPAU_object@@PAU1@0@Z
	DD	01H
	ORG $+4
	DD	FLAT:??_C@_09BIFGHGHO@HideAtlas@
	DD	FLAT:?miniMapHideAtlas@@YAPAU_object@@PAU1@0@Z
	DD	01H
	ORG $+4
	DD	FLAT:??_C@_0M@DHCMEFOB@isShowAtlas@
	DD	FLAT:?miniMapisShowAtlas@@YAPAU_object@@PAU1@0@Z
	DD	01H
	ORG $+4
	DD	FLAT:??_C@_07IFCOGPLJ@IsAtlas@
	DD	FLAT:?miniMapIsAtlas@@YAPAU_object@@PAU1@0@Z
	DD	01H
	ORG $+4
	DD	FLAT:??_C@_0N@BFFOBNJI@GetAtlasInfo@
	DD	FLAT:?miniMapGetAtlasInfo@@YAPAU_object@@PAU1@0@Z
	DD	01H
	ORG $+4
	DD	FLAT:??_C@_0N@ENAKBIJM@GetAtlasSize@
	DD	FLAT:?miniMapGetAtlasSize@@YAPAU_object@@PAU1@0@Z
	DD	01H
	ORG $+4
	DD	FLAT:??_C@_0M@DMLHJAOH@AddWayPoint@
	DD	FLAT:?miniMapAddWayPoint@@YAPAU_object@@PAU1@0@Z
	DD	01H
	ORG $+4
	DD	FLAT:??_C@_0P@BPFHEFHK@RemoveWayPoint@
	DD	FLAT:?miniMapRemoveWayPoint@@YAPAU_object@@PAU1@0@Z
	DD	01H
	ORG $+4
	DD	FLAT:??_C@_0BE@DJCJPBHI@RegisterAtlasWindow@
	DD	FLAT:?miniMapRegisterAtlasWindow@@YAPAU_object@@PAU1@0@Z
	DD	01H
	ORG $+4
	DD	FLAT:??_C@_0BG@BMPPHBMB@UnregisterAtlasWindow@
	DD	FLAT:?miniMapUnregisterAtlasWindow@@YAPAU_object@@PAU1@0@Z
	DD	01H
	ORG $+4
	DD	FLAT:??_C@_0P@JOOPKKLO@GetGuildAreaID@
	DD	FLAT:?miniMapGetGuildAreaID@@YAPAU_object@@PAU1@0@Z
	DD	01H
	ORG $+4
	DD	FLAT:??_C@_0O@FMBJAKFC@SetAtlasScale@
	DD	FLAT:?miniMapSetAtlasScale@@YAPAU_object@@PAU1@0@Z
	DD	01H
	ORG $+4
	DD	FLAT:??_C@_0BH@ECDLLKHP@SetAutoHuntRangeStatus@
	DD	FLAT:?miniMapSetAutoHuntRangeStatus@@YAPAU_object@@PAU1@0@Z
	DD	01H
	ORG $+4
	DD	FLAT:??_C@_0BB@POEIPFHN@SetAutoHuntRange@
	DD	FLAT:?miniMapSetAutoHuntRange@@YAPAU_object@@PAU1@0@Z
	DD	01H
	ORG $+4
	DD	00H
	DD	00H
	ORG $+8
_DATA	ENDS
;	COMDAT ??_C@_0L@NHHJIHMA@TYPE_PARTY@
CONST	SEGMENT
??_C@_0L@NHHJIHMA@TYPE_PARTY@ DB 'TYPE_PARTY', 00H	; `string'
CONST	ENDS
;	COMDAT ??_C@_0M@IAHPEAKG@TYPE_EMPIRE@
CONST	SEGMENT
??_C@_0M@IAHPEAKG@TYPE_EMPIRE@ DB 'TYPE_EMPIRE', 00H	; `string'
CONST	ENDS
;	COMDAT ??_C@_09LAKONOKF@TYPE_WARP@
CONST	SEGMENT
??_C@_09LAKONOKF@TYPE_WARP@ DB 'TYPE_WARP', 00H		; `string'
CONST	ENDS
;	COMDAT ??_C@_0O@JMCMGHKJ@TYPE_WAYPOINT@
CONST	SEGMENT
??_C@_0O@JMCMGHKJ@TYPE_WAYPOINT@ DB 'TYPE_WAYPOINT', 00H ; `string'
CONST	ENDS
;	COMDAT ??_C@_08HGABCEMM@TYPE_NPC@
CONST	SEGMENT
??_C@_08HGABCEMM@TYPE_NPC@ DB 'TYPE_NPC', 00H		; `string'
CONST	ENDS
;	COMDAT ??_C@_0N@MFCFPPMD@TYPE_MONSTER@
CONST	SEGMENT
??_C@_0N@MFCFPPMD@TYPE_MONSTER@ DB 'TYPE_MONSTER', 00H	; `string'
CONST	ENDS
;	COMDAT ??_C@_0M@KBKKLFCC@TYPE_OPCPVP@
CONST	SEGMENT
??_C@_0M@KBKKLFCC@TYPE_OPCPVP@ DB 'TYPE_OPCPVP', 00H	; `string'
CONST	ENDS
;	COMDAT ??_C@_0BA@DAENBNGA@TYPE_OPCPVPSELF@
CONST	SEGMENT
??_C@_0BA@DAENBNGA@TYPE_OPCPVPSELF@ DB 'TYPE_OPCPVPSELF', 00H ; `string'
CONST	ENDS
;	COMDAT ??_C@_07GGJFLPNN@miniMap@
CONST	SEGMENT
??_C@_07GGJFLPNN@miniMap@ DB 'miniMap', 00H		; `string'
CONST	ENDS
;	COMDAT ??_C@_08MOLNEDKJ@TYPE_OPC@
CONST	SEGMENT
??_C@_08MOLNEDKJ@TYPE_OPC@ DB 'TYPE_OPC', 00H		; `string'
CONST	ENDS
;	COMDAT ??_C@_0BH@ECDLLKHP@SetAutoHuntRangeStatus@
CONST	SEGMENT
??_C@_0BH@ECDLLKHP@SetAutoHuntRangeStatus@ DB 'SetAutoHuntRangeStatus', 00H ; `string'
CONST	ENDS
;	COMDAT ??_C@_0BB@POEIPFHN@SetAutoHuntRange@
CONST	SEGMENT
??_C@_0BB@POEIPFHN@SetAutoHuntRange@ DB 'SetAutoHuntRange', 00H ; `string'
CONST	ENDS
;	COMDAT ??_C@_0P@JOOPKKLO@GetGuildAreaID@
CONST	SEGMENT
??_C@_0P@JOOPKKLO@GetGuildAreaID@ DB 'GetGuildAreaID', 00H ; `string'
CONST	ENDS
;	COMDAT ??_C@_0O@FMBJAKFC@SetAtlasScale@
CONST	SEGMENT
??_C@_0O@FMBJAKFC@SetAtlasScale@ DB 'SetAtlasScale', 00H ; `string'
CONST	ENDS
;	COMDAT ??_C@_0BE@DJCJPBHI@RegisterAtlasWindow@
CONST	SEGMENT
??_C@_0BE@DJCJPBHI@RegisterAtlasWindow@ DB 'RegisterAtlasWindow', 00H ; `string'
CONST	ENDS
;	COMDAT ??_C@_0BG@BMPPHBMB@UnregisterAtlasWindow@
CONST	SEGMENT
??_C@_0BG@BMPPHBMB@UnregisterAtlasWindow@ DB 'UnregisterAtlasWindow', 00H ; `string'
CONST	ENDS
;	COMDAT ??_C@_0M@DMLHJAOH@AddWayPoint@
CONST	SEGMENT
??_C@_0M@DMLHJAOH@AddWayPoint@ DB 'AddWayPoint', 00H	; `string'
CONST	ENDS
;	COMDAT ??_C@_0P@BPFHEFHK@RemoveWayPoint@
CONST	SEGMENT
??_C@_0P@BPFHEFHK@RemoveWayPoint@ DB 'RemoveWayPoint', 00H ; `string'
CONST	ENDS
;	COMDAT ??_C@_0N@BFFOBNJI@GetAtlasInfo@
CONST	SEGMENT
??_C@_0N@BFFOBNJI@GetAtlasInfo@ DB 'GetAtlasInfo', 00H	; `string'
CONST	ENDS
;	COMDAT ??_C@_0N@ENAKBIJM@GetAtlasSize@
CONST	SEGMENT
??_C@_0N@ENAKBIJM@GetAtlasSize@ DB 'GetAtlasSize', 00H	; `string'
CONST	ENDS
;	COMDAT ??_C@_0M@DHCMEFOB@isShowAtlas@
CONST	SEGMENT
??_C@_0M@DHCMEFOB@isShowAtlas@ DB 'isShowAtlas', 00H	; `string'
CONST	ENDS
;	COMDAT ??_C@_07IFCOGPLJ@IsAtlas@
CONST	SEGMENT
??_C@_07IFCOGPLJ@IsAtlas@ DB 'IsAtlas', 00H		; `string'
CONST	ENDS
;	COMDAT ??_C@_09HNEIIJJD@ShowAtlas@
CONST	SEGMENT
??_C@_09HNEIIJJD@ShowAtlas@ DB 'ShowAtlas', 00H		; `string'
CONST	ENDS
;	COMDAT ??_C@_09BIFGHGHO@HideAtlas@
CONST	SEGMENT
??_C@_09BIFGHGHO@HideAtlas@ DB 'HideAtlas', 00H		; `string'
CONST	ENDS
;	COMDAT ??_C@_0M@EIPBNHOF@UpdateAtlas@
CONST	SEGMENT
??_C@_0M@EIPBNHOF@UpdateAtlas@ DB 'UpdateAtlas', 00H	; `string'
CONST	ENDS
;	COMDAT ??_C@_0M@KMBFBAJA@RenderAtlas@
CONST	SEGMENT
??_C@_0M@KMBFBAJA@RenderAtlas@ DB 'RenderAtlas', 00H	; `string'
CONST	ENDS
;	COMDAT ??_C@_06FDNPFPAD@isShow@
CONST	SEGMENT
??_C@_06FDNPFPAD@isShow@ DB 'isShow', 00H		; `string'
CONST	ENDS
;	COMDAT ??_C@_09IMDAKKFO@LoadAtlas@
CONST	SEGMENT
??_C@_09IMDAKKFO@LoadAtlas@ DB 'LoadAtlas', 00H		; `string'
CONST	ENDS
;	COMDAT ??_C@_09EHCACONO@ScaleDown@
CONST	SEGMENT
??_C@_09EHCACONO@ScaleDown@ DB 'ScaleDown', 00H		; `string'
CONST	ENDS
;	COMDAT ??_C@_0P@JDEKHKMA@SetMiniMapSize@
CONST	SEGMENT
??_C@_0P@JDEKHKMA@SetMiniMapSize@ DB 'SetMiniMapSize', 00H ; `string'
CONST	ENDS
;	COMDAT ??_C@_08FMFAIGAB@SetScale@
CONST	SEGMENT
??_C@_08FMFAIGAB@SetScale@ DB 'SetScale', 00H		; `string'
CONST	ENDS
;	COMDAT ??_C@_07CNPAFGOE@ScaleUp@
CONST	SEGMENT
??_C@_07CNPAFGOE@ScaleUp@ DB 'ScaleUp', 00H		; `string'
CONST	ENDS
;	COMDAT ??_C@_07LBOJHCOE@isiilii@
CONST	SEGMENT
??_C@_07LBOJHCOE@isiilii@ DB 'isiilii', 00H		; `string'
CONST	ENDS
;	COMDAT ??_C@_03LMKNDPCK@bii@
CONST	SEGMENT
??_C@_03LMKNDPCK@bii@ DB 'bii', 00H			; `string'
CONST	ENDS
;	COMDAT ??_C@_05BHNEPGFM@isiil@
CONST	SEGMENT
??_C@_05BHNEPGFM@isiil@ DB 'isiil', 00H			; `string'
CONST	ENDS
;	COMDAT ??_C@_0CO@JOBACLFH@CPythonMiniMap?3?3Instance?$CI?$CJ?4Load@
CONST	SEGMENT
??_C@_0CO@JOBACLFH@CPythonMiniMap?3?3Instance?$CI?$CJ?4Load@ DB 'CPythonM'
	DB	'iniMap::Instance().LoadAtlas() Failed', 00H	; `string'
PUBLIC	?initMiniMap@@YAXXZ				; initMiniMap
PUBLIC	?miniMapSetAutoHuntRange@@YAPAU_object@@PAU1@0@Z ; miniMapSetAutoHuntRange
PUBLIC	?miniMapSetAutoHuntRangeStatus@@YAPAU_object@@PAU1@0@Z ; miniMapSetAutoHuntRangeStatus
PUBLIC	?miniMapSetAtlasScale@@YAPAU_object@@PAU1@0@Z	; miniMapSetAtlasScale
PUBLIC	?miniMapGetGuildAreaID@@YAPAU_object@@PAU1@0@Z	; miniMapGetGuildAreaID
PUBLIC	?miniMapUnregisterAtlasWindow@@YAPAU_object@@PAU1@0@Z ; miniMapUnregisterAtlasWindow
PUBLIC	?miniMapRegisterAtlasWindow@@YAPAU_object@@PAU1@0@Z ; miniMapRegisterAtlasWindow
PUBLIC	?miniMapRemoveWayPoint@@YAPAU_object@@PAU1@0@Z	; miniMapRemoveWayPoint
PUBLIC	?miniMapAddWayPoint@@YAPAU_object@@PAU1@0@Z	; miniMapAddWayPoint
PUBLIC	?miniMapGetAtlasSize@@YAPAU_object@@PAU1@0@Z	; miniMapGetAtlasSize
PUBLIC	?miniMapGetAtlasInfo@@YAPAU_object@@PAU1@0@Z	; miniMapGetAtlasInfo
PUBLIC	?miniMapIsAtlas@@YAPAU_object@@PAU1@0@Z		; miniMapIsAtlas
PUBLIC	?miniMapisShowAtlas@@YAPAU_object@@PAU1@0@Z	; miniMapisShowAtlas
PUBLIC	?miniMapHideAtlas@@YAPAU_object@@PAU1@0@Z	; miniMapHideAtlas
PUBLIC	?miniMapShowAtlas@@YAPAU_object@@PAU1@0@Z	; miniMapShowAtlas
PUBLIC	?miniMapRenderAtlas@@YAPAU_object@@PAU1@0@Z	; miniMapRenderAtlas
PUBLIC	?miniMapUpdateAtlas@@YAPAU_object@@PAU1@0@Z	; miniMapUpdateAtlas
PUBLIC	?miniMapLoadAtlas@@YAPAU_object@@PAU1@0@Z	; miniMapLoadAtlas
PUBLIC	?miniMapGetInfo@@YAPAU_object@@PAU1@0@Z		; miniMapGetInfo
PUBLIC	?miniMapScaleDown@@YAPAU_object@@PAU1@0@Z	; miniMapScaleDown
PUBLIC	?miniMapScaleUp@@YAPAU_object@@PAU1@0@Z		; miniMapScaleUp
PUBLIC	?miniMapisShow@@YAPAU_object@@PAU1@0@Z		; miniMapisShow
PUBLIC	?miniMapHide@@YAPAU_object@@PAU1@0@Z		; miniMapHide
PUBLIC	?miniMapShow@@YAPAU_object@@PAU1@0@Z		; miniMapShow
PUBLIC	?miniMapRender@@YAPAU_object@@PAU1@0@Z		; miniMapRender
PUBLIC	?miniMapUpdate@@YAPAU_object@@PAU1@0@Z		; miniMapUpdate
PUBLIC	?miniMapCreate@@YAPAU_object@@PAU1@0@Z		; miniMapCreate
PUBLIC	?miniMapDestroy@@YAPAU_object@@PAU1@0@Z		; miniMapDestroy
PUBLIC	?miniMapSetMiniMapSize@@YAPAU_object@@PAU1@0@Z	; miniMapSetMiniMapSize
PUBLIC	?miniMapSetCenterPosition@@YAPAU_object@@PAU1@0@Z ; miniMapSetCenterPosition
PUBLIC	?miniMapSetScale@@YAPAU_object@@PAU1@0@Z	; miniMapSetScale
PUBLIC	?SetAutoHuntRange@CPythonMiniMap@@QAEX_N@Z	; CPythonMiniMap::SetAutoHuntRange
;	COMDAT xdata$x
xdata$x	SEGMENT
__ehfuncinfo$?miniMapGetInfo@@YAPAU_object@@PAU1@0@Z DD 019930522H
	DD	01H
	DD	FLAT:__unwindtable$?miniMapGetInfo@@YAPAU_object@@PAU1@0@Z
	DD	2 DUP(00H)
	DD	2 DUP(00H)
	DD	00H
	DD	01H
__unwindtable$?miniMapGetInfo@@YAPAU_object@@PAU1@0@Z DD 0ffffffffH
	DD	FLAT:__unwindfunclet$?miniMapGetInfo@@YAPAU_object@@PAU1@0@Z$0
xdata$x	ENDS
;	COMDAT xdata$x
xdata$x	SEGMENT
__ehfuncinfo$?miniMapGetAtlasInfo@@YAPAU_object@@PAU1@0@Z DD 019930522H
	DD	01H
	DD	FLAT:__unwindtable$?miniMapGetAtlasInfo@@YAPAU_object@@PAU1@0@Z
	DD	2 DUP(00H)
	DD	2 DUP(00H)
	DD	00H
	DD	01H
__unwindtable$?miniMapGetAtlasInfo@@YAPAU_object@@PAU1@0@Z DD 0ffffffffH
	DD	FLAT:__unwindfunclet$?miniMapGetAtlasInfo@@YAPAU_object@@PAU1@0@Z$0
; Function compile flags: /Ogtp
; File C:\Anka2Project\Anka2Project\Source\Binary\source\UserInterface\PythonMiniMapModule.cpp
; File C:\Anka2Project\Anka2Project\Source\Binary\source\eterBase\Singleton.h
; File C:\Anka2Project\Anka2Project\Source\Binary\source\UserInterface\PythonMiniMapModule.cpp
;	COMDAT ?miniMapisShow@@YAPAU_object@@PAU1@0@Z
_TEXT	SEGMENT
_poSelf$ = 8						; size = 4
_poArgs$ = 12						; size = 4
?miniMapisShow@@YAPAU_object@@PAU1@0@Z PROC		; miniMapisShow, COMDAT
; File C:\Anka2Project\Anka2Project\Source\Binary\source\eterBase\Singleton.h

; 26   : 		assert(ms_singleton);

  00000	8b 0d 00 00 00
	00		 mov	 ecx, DWORD PTR ?ms_singleton@?$CSingleton@VCPythonMiniMap@@@@0PAVCPythonMiniMap@@A ; CSingleton<CPythonMiniMap>::ms_singleton
  00006	85 c9		 test	 ecx, ecx
  00008	75 1a		 jne	 SHORT $LN5@miniMapisS
  0000a	6a 1a		 push	 26			; 0000001aH
  0000c	68 00 00 00 00	 push	 OFFSET ??_C@_1IO@CAJLEEOI@?$AAC?$AA?3?$AA?2?$AAA?$AAn?$AAk?$AAa?$AA2?$AAP?$AAr?$AAo?$AAj?$AAe?$AAc?$AAt@
  00011	68 00 00 00 00	 push	 OFFSET ??_C@_1BK@FMEHPMFE@?$AAm?$AAs?$AA_?$AAs?$AAi?$AAn?$AAg?$AAl?$AAe?$AAt?$AAo?$AAn@
  00016	e8 00 00 00 00	 call	 __wassert
  0001b	8b 0d 00 00 00
	00		 mov	 ecx, DWORD PTR ?ms_singleton@?$CSingleton@VCPythonMiniMap@@@@0PAVCPythonMiniMap@@A ; CSingleton<CPythonMiniMap>::ms_singleton
  00021	83 c4 0c	 add	 esp, 12			; 0000000cH
$LN5@miniMapisS:
; File C:\Anka2Project\Anka2Project\Source\Binary\source\UserInterface\PythonMiniMapModule.cpp

; 96   : 	bool bShow = CPythonMiniMap::Instance().CanShow();

  00024	e8 00 00 00 00	 call	 ?CanShow@CPythonMiniMap@@QAE_NXZ ; CPythonMiniMap::CanShow

; 97   : 	return Py_BuildValue("b", bShow);

  00029	0f b6 c0	 movzx	 eax, al
  0002c	50		 push	 eax
  0002d	68 00 00 00 00	 push	 OFFSET ??_C@_01OJONOECF@b@
  00032	ff 15 00 00 00
	00		 call	 DWORD PTR __imp__Py_BuildValue
  00038	83 c4 08	 add	 esp, 8

; 98   : }

  0003b	c3		 ret	 0
?miniMapisShow@@YAPAU_object@@PAU1@0@Z ENDP		; miniMapisShow
_TEXT	ENDS
; Function compile flags: /Ogtp
; File C:\Anka2Project\Anka2Project\Source\Binary\source\UserInterface\PythonMiniMapModule.cpp
; File C:\Program Files\Microsoft Visual Studio\2022\Community\VC\Tools\MSVC\14.44.35207\include\xstring
; File C:\Anka2Project\Anka2Project\Source\Binary\source\UserInterface\PythonMiniMapModule.cpp
; File C:\Anka2Project\Anka2Project\Source\Binary\source\eterBase\Singleton.h
; File C:\Anka2Project\Anka2Project\Source\Binary\source\UserInterface\PythonMiniMapModule.cpp
; File C:\Program Files\Microsoft Visual Studio\2022\Community\VC\Tools\MSVC\14.44.35207\include\xstring
; File C:\Anka2Project\Anka2Project\Source\Binary\source\UserInterface\PythonMiniMapModule.cpp
; File C:\Program Files\Microsoft Visual Studio\2022\Community\VC\Tools\MSVC\14.44.35207\include\xstring
; File C:\Anka2Project\Anka2Project\Source\Binary\source\UserInterface\PythonMiniMapModule.cpp
; File C:\Program Files\Microsoft Visual Studio\2022\Community\VC\Tools\MSVC\14.44.35207\include\xstring
; File C:\Anka2Project\Anka2Project\Source\Binary\source\UserInterface\PythonMiniMapModule.cpp
; File C:\Program Files\Microsoft Visual Studio\2022\Community\VC\Tools\MSVC\14.44.35207\include\xstring
; File C:\Anka2Project\Anka2Project\Source\Binary\source\UserInterface\PythonMiniMapModule.cpp
; File C:\Program Files\Microsoft Visual Studio\2022\Community\VC\Tools\MSVC\14.44.35207\include\xstring
; File C:\Program Files\Microsoft Visual Studio\2022\Community\VC\Tools\MSVC\14.44.35207\include\xmemory
; File C:\Program Files\Microsoft Visual Studio\2022\Community\VC\Tools\MSVC\14.44.35207\include\xstring
; File C:\Program Files\Microsoft Visual Studio\2022\Community\VC\Tools\MSVC\14.44.35207\include\xmemory
; File C:\Anka2Project\Anka2Project\Source\Binary\source\UserInterface\PythonMiniMapModule.cpp
; File C:\Program Files\Microsoft Visual Studio\2022\Community\VC\Tools\MSVC\14.44.35207\include\xmemory
; File C:\Anka2Project\Anka2Project\Source\Binary\source\UserInterface\PythonMiniMapModule.cpp
;	COMDAT ?miniMapGetInfo@@YAPAU_object@@PAU1@0@Z
_TEXT	SEGMENT
_dwTextColor$ = -64					; size = 4
_fPosY$ = -60						; size = 4
_fPosX$ = -56						; size = 4
_fScrrenX$ = -52					; size = 4
_fScrrenY$ = -48					; size = 4
_bFind$1$ = -41						; size = 1
_aString$ = -40						; size = 24
__$ArrayPad$ = -16					; size = 4
__$EHRec$ = -12						; size = 12
_poSelf$ = 8						; size = 4
_poArgs$ = 12						; size = 4
?miniMapGetInfo@@YAPAU_object@@PAU1@0@Z PROC		; miniMapGetInfo, COMDAT

; 113  : {

  00000	55		 push	 ebp
  00001	8b ec		 mov	 ebp, esp
  00003	6a ff		 push	 -1
  00005	68 00 00 00 00	 push	 __ehhandler$?miniMapGetInfo@@YAPAU_object@@PAU1@0@Z
  0000a	64 a1 00 00 00
	00		 mov	 eax, DWORD PTR fs:0
  00010	50		 push	 eax
  00011	83 ec 34	 sub	 esp, 52			; 00000034H
  00014	a1 00 00 00 00	 mov	 eax, DWORD PTR ___security_cookie
  00019	33 c5		 xor	 eax, ebp
  0001b	89 45 f0	 mov	 DWORD PTR __$ArrayPad$[ebp], eax
  0001e	56		 push	 esi
  0001f	50		 push	 eax
  00020	8d 45 f4	 lea	 eax, DWORD PTR __$EHRec$[ebp]
  00023	64 a3 00 00 00
	00		 mov	 DWORD PTR fs:0, eax
  00029	8b 75 0c	 mov	 esi, DWORD PTR _poArgs$[ebp]

; 114  : 	float fScrrenX;
; 115  : 	if (!PyTuple_GetFloat(poArgs, 0, &fScrrenX))

  0002c	8d 45 cc	 lea	 eax, DWORD PTR _fScrrenX$[ebp]
  0002f	50		 push	 eax
  00030	6a 00		 push	 0
  00032	56		 push	 esi
  00033	e8 00 00 00 00	 call	 ?PyTuple_GetFloat@@YA_NPAU_object@@HPAM@Z ; PyTuple_GetFloat
  00038	83 c4 0c	 add	 esp, 12			; 0000000cH
  0003b	84 c0		 test	 al, al
  0003d	75 0f		 jne	 SHORT $LN2@miniMapGet
$LN78@miniMapGet:

; 132  : }

  0003f	6a 00		 push	 0
  00041	e8 00 00 00 00	 call	 ?Py_BuildException@@YAPAU_object@@PBDZZ ; Py_BuildException
  00046	83 c4 04	 add	 esp, 4
  00049	e9 53 01 00 00	 jmp	 $LN1@miniMapGet
$LN2@miniMapGet:

; 116  : 		return Py_BuildException();
; 117  : 
; 118  : 	float fScrrenY;
; 119  : 	if (!PyTuple_GetFloat(poArgs, 1, &fScrrenY))

  0004e	8d 45 d0	 lea	 eax, DWORD PTR _fScrrenY$[ebp]
  00051	50		 push	 eax
  00052	6a 01		 push	 1
  00054	56		 push	 esi
  00055	e8 00 00 00 00	 call	 ?PyTuple_GetFloat@@YA_NPAU_object@@HPAM@Z ; PyTuple_GetFloat
  0005a	83 c4 0c	 add	 esp, 12			; 0000000cH
  0005d	84 c0		 test	 al, al
  0005f	74 de		 je	 SHORT $LN78@miniMapGet
  00061	0f 57 c0	 xorps	 xmm0, xmm0
; File C:\Program Files\Microsoft Visual Studio\2022\Community\VC\Tools\MSVC\14.44.35207\include\xstring

; 860  :         _My_data._Mysize = 0;

  00064	c7 45 e8 00 00
	00 00		 mov	 DWORD PTR _aString$[ebp+16], 0

; 493  :         _CONSTEXPR20 _Bxty() noexcept : _Buf() {} // user-provided, for fancy pointers

  0006b	0f 11 45 d8	 movups	 XMMWORD PTR _aString$[ebp], xmm0

; 861  :         _My_data._Myres  = _Small_string_capacity;

  0006f	c7 45 ec 0f 00
	00 00		 mov	 DWORD PTR _aString$[ebp+20], 15 ; 0000000fH

; 862  :         _My_data._Activate_SSO_buffer();
; 863  : 
; 864  :         // the _Traits::assign is last so the codegen doesn't think the char write can alias this
; 865  :         _Traits::assign(_My_data._Bx._Buf[0], _Elem());

  00076	c6 45 d8 00	 mov	 BYTE PTR _aString$[ebp], 0
; File C:\Anka2Project\Anka2Project\Source\Binary\source\UserInterface\PythonMiniMapModule.cpp

; 122  : 	std::string aString;

  0007a	c7 45 fc 00 00
	00 00		 mov	 DWORD PTR __$EHRec$[ebp+8], 0
; File C:\Anka2Project\Anka2Project\Source\Binary\source\eterBase\Singleton.h

; 26   : 		assert(ms_singleton);

  00081	8b 0d 00 00 00
	00		 mov	 ecx, DWORD PTR ?ms_singleton@?$CSingleton@VCPythonMiniMap@@@@0PAVCPythonMiniMap@@A ; CSingleton<CPythonMiniMap>::ms_singleton
  00087	85 c9		 test	 ecx, ecx
  00089	75 1a		 jne	 SHORT $LN32@miniMapGet
  0008b	6a 1a		 push	 26			; 0000001aH
  0008d	68 00 00 00 00	 push	 OFFSET ??_C@_1IO@CAJLEEOI@?$AAC?$AA?3?$AA?2?$AAA?$AAn?$AAk?$AAa?$AA2?$AAP?$AAr?$AAo?$AAj?$AAe?$AAc?$AAt@
  00092	68 00 00 00 00	 push	 OFFSET ??_C@_1BK@FMEHPMFE@?$AAm?$AAs?$AA_?$AAs?$AAi?$AAn?$AAg?$AAl?$AAe?$AAt?$AAo?$AAn@
  00097	e8 00 00 00 00	 call	 __wassert
  0009c	8b 0d 00 00 00
	00		 mov	 ecx, DWORD PTR ?ms_singleton@?$CSingleton@VCPythonMiniMap@@@@0PAVCPythonMiniMap@@A ; CSingleton<CPythonMiniMap>::ms_singleton
  000a2	83 c4 0c	 add	 esp, 12			; 0000000cH
$LN32@miniMapGet:
; File C:\Anka2Project\Anka2Project\Source\Binary\source\UserInterface\PythonMiniMapModule.cpp

; 125  : 	bool bFind = CPythonMiniMap::Instance().GetPickedInstanceInfo(fScrrenX, fScrrenY, aString, &fPosX, &fPosY, &dwTextColor);

  000a5	f3 0f 10 55 d0	 movss	 xmm2, DWORD PTR _fScrrenY$[ebp]
  000aa	8d 45 c0	 lea	 eax, DWORD PTR _dwTextColor$[ebp]
  000ad	f3 0f 10 4d cc	 movss	 xmm1, DWORD PTR _fScrrenX$[ebp]
  000b2	50		 push	 eax
  000b3	8d 45 c4	 lea	 eax, DWORD PTR _fPosY$[ebp]
  000b6	50		 push	 eax
  000b7	8d 45 c8	 lea	 eax, DWORD PTR _fPosX$[ebp]
  000ba	50		 push	 eax
  000bb	8d 45 d8	 lea	 eax, DWORD PTR _aString$[ebp]
  000be	50		 push	 eax
  000bf	e8 00 00 00 00	 call	 ?GetPickedInstanceInfo@CPythonMiniMap@@QAE_NMMAAV?$basic_string@DU?$char_traits@D@std@@V?$allocator@D@2@@std@@PAM1PAK@Z ; CPythonMiniMap::GetPickedInstanceInfo

; 126  : 	int iPosX, iPosY;
; 127  : 	PR_FLOAT_TO_INT(fPosX, iPosX);

  000c4	f3 0f 10 45 c8	 movss	 xmm0, DWORD PTR _fPosX$[ebp]
  000c9	88 45 d7	 mov	 BYTE PTR _bFind$1$[ebp], al
  000cc	f3 0f 11 05 00
	00 00 00	 movss	 DWORD PTR ?PR_FCNV@@3MA, xmm0
  000d4	d9 05 00 00 00
	00		 fld	 DWORD PTR ?PR_FCNV@@3MA	; PR_FCNV
  000da	db 1d 00 00 00
	00		 fistp	 DWORD PTR ?PR_ICNV@@3JA
  000e0	8b 15 00 00 00
	00		 mov	 edx, DWORD PTR ?PR_ICNV@@3JA ; PR_ICNV
  000e6	66 0f 6e c2	 movd	 xmm0, edx
  000ea	0f 5b c0	 cvtdq2ps xmm0, xmm0
  000ed	0f 2f 05 00 00
	00 00		 comiss	 xmm0, DWORD PTR ?PR_FCNV@@3MA
  000f4	76 01		 jbe	 SHORT $LN5@miniMapGet
  000f6	4a		 dec	 edx
$LN5@miniMapGet:

; 128  : 	PR_FLOAT_TO_INT(fPosY, iPosY);

  000f7	f3 0f 10 45 c4	 movss	 xmm0, DWORD PTR _fPosY$[ebp]
  000fc	f3 0f 11 05 00
	00 00 00	 movss	 DWORD PTR ?PR_FCNV@@3MA, xmm0
  00104	d9 05 00 00 00
	00		 fld	 DWORD PTR ?PR_FCNV@@3MA	; PR_FCNV
  0010a	db 1d 00 00 00
	00		 fistp	 DWORD PTR ?PR_ICNV@@3JA
  00110	8b 0d 00 00 00
	00		 mov	 ecx, DWORD PTR ?PR_ICNV@@3JA ; PR_ICNV
  00116	66 0f 6e c1	 movd	 xmm0, ecx
  0011a	0f 5b c0	 cvtdq2ps xmm0, xmm0
  0011d	0f 2f 05 00 00
	00 00		 comiss	 xmm0, DWORD PTR ?PR_FCNV@@3MA
  00124	76 01		 jbe	 SHORT $LN7@miniMapGet
  00126	49		 dec	 ecx
$LN7@miniMapGet:

; 131  : 	return Py_BuildValue("isiil", (int)bFind, aString.c_str(), iPosX, iPosY, (signed) dwTextColor);

  00127	ff 75 c0	 push	 DWORD PTR _dwTextColor$[ebp]
  0012a	b8 1f 85 eb 51	 mov	 eax, 1374389535		; 51eb851fH
  0012f	f7 ea		 imul	 edx
  00131	b8 1f 85 eb 51	 mov	 eax, 1374389535		; 51eb851fH
  00136	c1 fa 05	 sar	 edx, 5
  00139	8b f2		 mov	 esi, edx
  0013b	c1 ee 1f	 shr	 esi, 31			; 0000001fH
  0013e	03 f2		 add	 esi, edx
  00140	f7 e9		 imul	 ecx
; File C:\Program Files\Microsoft Visual Studio\2022\Community\VC\Tools\MSVC\14.44.35207\include\xstring

; 444  :         const value_type* _Result = _Bx._Buf;

  00142	8d 45 d8	 lea	 eax, DWORD PTR _aString$[ebp]
; File C:\Anka2Project\Anka2Project\Source\Binary\source\UserInterface\PythonMiniMapModule.cpp

; 130  : 	iPosY /= 100;

  00145	c1 fa 05	 sar	 edx, 5
  00148	8b ca		 mov	 ecx, edx
  0014a	c1 e9 1f	 shr	 ecx, 31			; 0000001fH
  0014d	03 ca		 add	 ecx, edx
; File C:\Program Files\Microsoft Visual Studio\2022\Community\VC\Tools\MSVC\14.44.35207\include\xstring

; 453  :         return _Myres > _Small_string_capacity;

  0014f	83 7d ec 0f	 cmp	 DWORD PTR _aString$[ebp+20], 15 ; 0000000fH
; File C:\Anka2Project\Anka2Project\Source\Binary\source\UserInterface\PythonMiniMapModule.cpp

; 131  : 	return Py_BuildValue("isiil", (int)bFind, aString.c_str(), iPosX, iPosY, (signed) dwTextColor);

  00153	51		 push	 ecx
; File C:\Program Files\Microsoft Visual Studio\2022\Community\VC\Tools\MSVC\14.44.35207\include\xstring

; 445  :         if (_Large_mode_engaged()) {

  00154	0f 47 45 d8	 cmova	 eax, DWORD PTR _aString$[ebp]
; File C:\Anka2Project\Anka2Project\Source\Binary\source\UserInterface\PythonMiniMapModule.cpp

; 131  : 	return Py_BuildValue("isiil", (int)bFind, aString.c_str(), iPosX, iPosY, (signed) dwTextColor);

  00158	56		 push	 esi
  00159	50		 push	 eax
  0015a	0f b6 45 d7	 movzx	 eax, BYTE PTR _bFind$1$[ebp]
  0015e	50		 push	 eax
  0015f	68 00 00 00 00	 push	 OFFSET ??_C@_05BHNEPGFM@isiil@
  00164	ff 15 00 00 00
	00		 call	 DWORD PTR __imp__Py_BuildValue
; File C:\Program Files\Microsoft Visual Studio\2022\Community\VC\Tools\MSVC\14.44.35207\include\xstring

; 453  :         return _Myres > _Small_string_capacity;

  0016a	8b 4d ec	 mov	 ecx, DWORD PTR _aString$[ebp+20]
; File C:\Anka2Project\Anka2Project\Source\Binary\source\UserInterface\PythonMiniMapModule.cpp

; 131  : 	return Py_BuildValue("isiil", (int)bFind, aString.c_str(), iPosX, iPosY, (signed) dwTextColor);

  0016d	83 c4 18	 add	 esp, 24			; 00000018H
  00170	8b f0		 mov	 esi, eax
; File C:\Program Files\Microsoft Visual Studio\2022\Community\VC\Tools\MSVC\14.44.35207\include\xstring

; 453  :         return _Myres > _Small_string_capacity;

  00172	83 f9 0f	 cmp	 ecx, 15			; 0000000fH

; 3083 :         if (_My_data._Large_mode_engaged()) {

  00175	76 28		 jbe	 SHORT $LN61@miniMapGet
; File C:\Program Files\Microsoft Visual Studio\2022\Community\VC\Tools\MSVC\14.44.35207\include\xmemory

; 985  :         _STD _Deallocate<_New_alignof<_Ty>>(_Ptr, sizeof(_Ty) * _Count);

  00177	8b 55 d8	 mov	 edx, DWORD PTR _aString$[ebp]
; File C:\Program Files\Microsoft Visual Studio\2022\Community\VC\Tools\MSVC\14.44.35207\include\xstring

; 852  :         _Al.deallocate(_Old_ptr, _Capacity + 1); // +1 for null terminator

  0017a	41		 inc	 ecx
; File C:\Program Files\Microsoft Visual Studio\2022\Community\VC\Tools\MSVC\14.44.35207\include\xmemory

; 985  :         _STD _Deallocate<_New_alignof<_Ty>>(_Ptr, sizeof(_Ty) * _Count);

  0017b	8b c2		 mov	 eax, edx

; 284  :         if (_Bytes >= _Big_allocation_threshold) {

  0017d	81 f9 00 10 00
	00		 cmp	 ecx, 4096		; 00001000H
  00183	72 10		 jb	 SHORT $LN69@miniMapGet

; 205  :     const uintptr_t _Ptr_container   = _Ptr_user[-1];

  00185	8b 50 fc	 mov	 edx, DWORD PTR [eax-4]
  00188	83 c1 23	 add	 ecx, 35			; 00000023H
  0018b	2b c2		 sub	 eax, edx

; 219  :     _STL_VERIFY(_Back_shift >= _Min_back_shift && _Back_shift <= _Non_user_size, "invalid argument");

  0018d	83 c0 fc	 add	 eax, -4			; fffffffcH
  00190	83 f8 1f	 cmp	 eax, 31			; 0000001fH
  00193	77 26		 ja	 SHORT $LN80@miniMapGet
$LN69@miniMapGet:

; 289  :         ::operator delete(_Ptr, _Bytes);

  00195	51		 push	 ecx
  00196	52		 push	 edx
  00197	e8 00 00 00 00	 call	 ??3@YAXPAXI@Z		; operator delete
  0019c	83 c4 08	 add	 esp, 8
$LN61@miniMapGet:
; File C:\Anka2Project\Anka2Project\Source\Binary\source\UserInterface\PythonMiniMapModule.cpp

; 131  : 	return Py_BuildValue("isiil", (int)bFind, aString.c_str(), iPosX, iPosY, (signed) dwTextColor);

  0019f	8b c6		 mov	 eax, esi
$LN1@miniMapGet:

; 132  : }

  001a1	8b 4d f4	 mov	 ecx, DWORD PTR __$EHRec$[ebp]
  001a4	64 89 0d 00 00
	00 00		 mov	 DWORD PTR fs:0, ecx
  001ab	59		 pop	 ecx
  001ac	5e		 pop	 esi
  001ad	8b 4d f0	 mov	 ecx, DWORD PTR __$ArrayPad$[ebp]
  001b0	33 cd		 xor	 ecx, ebp
  001b2	e8 00 00 00 00	 call	 @__security_check_cookie@4
  001b7	8b e5		 mov	 esp, ebp
  001b9	5d		 pop	 ebp
  001ba	c3		 ret	 0
$LN80@miniMapGet:
; File C:\Program Files\Microsoft Visual Studio\2022\Community\VC\Tools\MSVC\14.44.35207\include\xmemory

; 219  :     _STL_VERIFY(_Back_shift >= _Min_back_shift && _Back_shift <= _Non_user_size, "invalid argument");

  001bb	6a 00		 push	 0
  001bd	6a 00		 push	 0
  001bf	6a 00		 push	 0
  001c1	6a 00		 push	 0
  001c3	6a 00		 push	 0
  001c5	e8 00 00 00 00	 call	 __invoke_watson
$LN77@miniMapGet:
  001ca	cc		 int	 3
_TEXT	ENDS
;	COMDAT text$x
text$x	SEGMENT
__unwindfunclet$?miniMapGetInfo@@YAPAU_object@@PAU1@0@Z$0:
  00000	8d 4d d8	 lea	 ecx, DWORD PTR _aString$[ebp]
  00003	e9 00 00 00 00	 jmp	 ??1?$basic_string@DU?$char_traits@D@std@@V?$allocator@D@2@@std@@QAE@XZ ; std::basic_string<char,std::char_traits<char>,std::allocator<char> >::~basic_string<char,std::char_traits<char>,std::allocator<char> >
  00008	cc		 int	 3
  00009	cc		 int	 3
  0000a	cc		 int	 3
  0000b	cc		 int	 3
  0000c	cc		 int	 3
__ehhandler$?miniMapGetInfo@@YAPAU_object@@PAU1@0@Z:
  0000d	90		 npad	 1
  0000e	90		 npad	 1
  0000f	8b 54 24 08	 mov	 edx, DWORD PTR [esp+8]
  00013	8d 42 0c	 lea	 eax, DWORD PTR [edx+12]
  00016	8b 4a c4	 mov	 ecx, DWORD PTR [edx-60]
  00019	33 c8		 xor	 ecx, eax
  0001b	e8 00 00 00 00	 call	 @__security_check_cookie@4
  00020	8b 4a fc	 mov	 ecx, DWORD PTR [edx-4]
  00023	33 c8		 xor	 ecx, eax
  00025	e8 00 00 00 00	 call	 @__security_check_cookie@4
  0002a	b8 00 00 00 00	 mov	 eax, OFFSET __ehfuncinfo$?miniMapGetInfo@@YAPAU_object@@PAU1@0@Z
  0002f	e9 00 00 00 00	 jmp	 ___CxxFrameHandler3
text$x	ENDS
?miniMapGetInfo@@YAPAU_object@@PAU1@0@Z ENDP		; miniMapGetInfo
; Function compile flags: /Ogtp
; File C:\Anka2Project\Anka2Project\Source\Binary\source\UserInterface\PythonMiniMapModule.cpp
; File C:\Anka2Project\Anka2Project\Source\Binary\source\eterBase\Singleton.h
; File C:\Anka2Project\Anka2Project\Source\Binary\source\UserInterface\PythonMiniMapModule.cpp
;	COMDAT ?miniMapisShowAtlas@@YAPAU_object@@PAU1@0@Z
_TEXT	SEGMENT
_poSelf$ = 8						; size = 4
_poArgs$ = 12						; size = 4
?miniMapisShowAtlas@@YAPAU_object@@PAU1@0@Z PROC	; miniMapisShowAtlas, COMDAT
; File C:\Anka2Project\Anka2Project\Source\Binary\source\eterBase\Singleton.h

; 26   : 		assert(ms_singleton);

  00000	8b 0d 00 00 00
	00		 mov	 ecx, DWORD PTR ?ms_singleton@?$CSingleton@VCPythonMiniMap@@@@0PAVCPythonMiniMap@@A ; CSingleton<CPythonMiniMap>::ms_singleton
  00006	85 c9		 test	 ecx, ecx
  00008	75 1a		 jne	 SHORT $LN5@miniMapisS
  0000a	6a 1a		 push	 26			; 0000001aH
  0000c	68 00 00 00 00	 push	 OFFSET ??_C@_1IO@CAJLEEOI@?$AAC?$AA?3?$AA?2?$AAA?$AAn?$AAk?$AAa?$AA2?$AAP?$AAr?$AAo?$AAj?$AAe?$AAc?$AAt@
  00011	68 00 00 00 00	 push	 OFFSET ??_C@_1BK@FMEHPMFE@?$AAm?$AAs?$AA_?$AAs?$AAi?$AAn?$AAg?$AAl?$AAe?$AAt?$AAo?$AAn@
  00016	e8 00 00 00 00	 call	 __wassert
  0001b	8b 0d 00 00 00
	00		 mov	 ecx, DWORD PTR ?ms_singleton@?$CSingleton@VCPythonMiniMap@@@@0PAVCPythonMiniMap@@A ; CSingleton<CPythonMiniMap>::ms_singleton
  00021	83 c4 0c	 add	 esp, 12			; 0000000cH
$LN5@miniMapisS:
; File C:\Anka2Project\Anka2Project\Source\Binary\source\UserInterface\PythonMiniMapModule.cpp

; 177  : 	bool bShow = CPythonMiniMap::Instance().CanShowAtlas();

  00024	e8 00 00 00 00	 call	 ?CanShowAtlas@CPythonMiniMap@@QAE_NXZ ; CPythonMiniMap::CanShowAtlas

; 178  : 	return Py_BuildValue("b", bShow);

  00029	0f b6 c0	 movzx	 eax, al
  0002c	50		 push	 eax
  0002d	68 00 00 00 00	 push	 OFFSET ??_C@_01OJONOECF@b@
  00032	ff 15 00 00 00
	00		 call	 DWORD PTR __imp__Py_BuildValue
  00038	83 c4 08	 add	 esp, 8

; 179  : }

  0003b	c3		 ret	 0
?miniMapisShowAtlas@@YAPAU_object@@PAU1@0@Z ENDP	; miniMapisShowAtlas
_TEXT	ENDS
; Function compile flags: /Ogtp
; File C:\Anka2Project\Anka2Project\Source\Binary\source\UserInterface\PythonMiniMapModule.cpp
; File C:\Anka2Project\Anka2Project\Source\Binary\source\eterBase\Singleton.h
; File C:\Anka2Project\Anka2Project\Source\Binary\source\UserInterface\PythonMiniMapModule.cpp
;	COMDAT ?miniMapIsAtlas@@YAPAU_object@@PAU1@0@Z
_TEXT	SEGMENT
_poSelf$ = 8						; size = 4
_poArgs$ = 12						; size = 4
?miniMapIsAtlas@@YAPAU_object@@PAU1@0@Z PROC		; miniMapIsAtlas, COMDAT
; File C:\Anka2Project\Anka2Project\Source\Binary\source\eterBase\Singleton.h

; 26   : 		assert(ms_singleton);

  00000	8b 0d 00 00 00
	00		 mov	 ecx, DWORD PTR ?ms_singleton@?$CSingleton@VCPythonMiniMap@@@@0PAVCPythonMiniMap@@A ; CSingleton<CPythonMiniMap>::ms_singleton
  00006	85 c9		 test	 ecx, ecx
  00008	75 1a		 jne	 SHORT $LN5@miniMapIsA
  0000a	6a 1a		 push	 26			; 0000001aH
  0000c	68 00 00 00 00	 push	 OFFSET ??_C@_1IO@CAJLEEOI@?$AAC?$AA?3?$AA?2?$AAA?$AAn?$AAk?$AAa?$AA2?$AAP?$AAr?$AAo?$AAj?$AAe?$AAc?$AAt@
  00011	68 00 00 00 00	 push	 OFFSET ??_C@_1BK@FMEHPMFE@?$AAm?$AAs?$AA_?$AAs?$AAi?$AAn?$AAg?$AAl?$AAe?$AAt?$AAo?$AAn@
  00016	e8 00 00 00 00	 call	 __wassert
  0001b	8b 0d 00 00 00
	00		 mov	 ecx, DWORD PTR ?ms_singleton@?$CSingleton@VCPythonMiniMap@@@@0PAVCPythonMiniMap@@A ; CSingleton<CPythonMiniMap>::ms_singleton
  00021	83 c4 0c	 add	 esp, 12			; 0000000cH
$LN5@miniMapIsA:
; File C:\Anka2Project\Anka2Project\Source\Binary\source\UserInterface\PythonMiniMapModule.cpp

; 183  : 	bool isData = CPythonMiniMap::Instance().IsAtlas();

  00024	e8 00 00 00 00	 call	 ?IsAtlas@CPythonMiniMap@@QAE_NXZ ; CPythonMiniMap::IsAtlas

; 184  : 	return Py_BuildValue("b", isData);

  00029	0f b6 c0	 movzx	 eax, al
  0002c	50		 push	 eax
  0002d	68 00 00 00 00	 push	 OFFSET ??_C@_01OJONOECF@b@
  00032	ff 15 00 00 00
	00		 call	 DWORD PTR __imp__Py_BuildValue
  00038	83 c4 08	 add	 esp, 8

; 185  : }

  0003b	c3		 ret	 0
?miniMapIsAtlas@@YAPAU_object@@PAU1@0@Z ENDP		; miniMapIsAtlas
_TEXT	ENDS
; Function compile flags: /Ogtp
; File C:\Anka2Project\Anka2Project\Source\Binary\source\UserInterface\PythonMiniMapModule.cpp
; File C:\Program Files\Microsoft Visual Studio\2022\Community\VC\Tools\MSVC\14.44.35207\include\xstring
; File C:\Anka2Project\Anka2Project\Source\Binary\source\UserInterface\PythonMiniMapModule.cpp
; File C:\Anka2Project\Anka2Project\Source\Binary\source\eterBase\Singleton.h
; File C:\Anka2Project\Anka2Project\Source\Binary\source\UserInterface\PythonMiniMapModule.cpp
; File C:\Anka2Project\Anka2Project\Source\Binary\source\eterBase\Singleton.h
; File C:\Anka2Project\Anka2Project\Source\Binary\source\UserInterface\PythonMiniMapModule.cpp
; File C:\Program Files\Microsoft Visual Studio\2022\Community\VC\Tools\MSVC\14.44.35207\include\xstring
; File C:\Anka2Project\Anka2Project\Source\Binary\source\UserInterface\PythonMiniMapModule.cpp
; File C:\Program Files\Microsoft Visual Studio\2022\Community\VC\Tools\MSVC\14.44.35207\include\xstring
; File C:\Anka2Project\Anka2Project\Source\Binary\source\UserInterface\PythonMiniMapModule.cpp
; File C:\Program Files\Microsoft Visual Studio\2022\Community\VC\Tools\MSVC\14.44.35207\include\xstring
; File C:\Anka2Project\Anka2Project\Source\Binary\source\UserInterface\PythonMiniMapModule.cpp
; File C:\Program Files\Microsoft Visual Studio\2022\Community\VC\Tools\MSVC\14.44.35207\include\xstring
; File C:\Anka2Project\Anka2Project\Source\Binary\source\UserInterface\PythonMiniMapModule.cpp
; File C:\Program Files\Microsoft Visual Studio\2022\Community\VC\Tools\MSVC\14.44.35207\include\xstring
; File C:\Program Files\Microsoft Visual Studio\2022\Community\VC\Tools\MSVC\14.44.35207\include\xmemory
; File C:\Program Files\Microsoft Visual Studio\2022\Community\VC\Tools\MSVC\14.44.35207\include\xstring
; File C:\Program Files\Microsoft Visual Studio\2022\Community\VC\Tools\MSVC\14.44.35207\include\xmemory
; File C:\Anka2Project\Anka2Project\Source\Binary\source\UserInterface\PythonMiniMapModule.cpp
; File C:\Program Files\Microsoft Visual Studio\2022\Community\VC\Tools\MSVC\14.44.35207\include\xmemory
; File C:\Anka2Project\Anka2Project\Source\Binary\source\UserInterface\PythonMiniMapModule.cpp
;	COMDAT ?miniMapGetAtlasInfo@@YAPAU_object@@PAU1@0@Z
_TEXT	SEGMENT
_fScrrenX$ = -72					; size = 4
_fScrrenY$ = -68					; size = 4
_dwTextColor$ = -64					; size = 4
_dwGuildID$ = -60					; size = 4
_diRegenTime$ = -56					; size = 4
_fPosY$ = -52						; size = 4
_fPosX$ = -48						; size = 4
_bFind$1$ = -41						; size = 1
_aString$ = -40						; size = 24
__$ArrayPad$ = -16					; size = 4
__$EHRec$ = -12						; size = 12
_poSelf$ = 8						; size = 4
_poArgs$ = 12						; size = 4
?miniMapGetAtlasInfo@@YAPAU_object@@PAU1@0@Z PROC	; miniMapGetAtlasInfo, COMDAT

; 188  : {

  00000	55		 push	 ebp
  00001	8b ec		 mov	 ebp, esp
  00003	6a ff		 push	 -1
  00005	68 00 00 00 00	 push	 __ehhandler$?miniMapGetAtlasInfo@@YAPAU_object@@PAU1@0@Z
  0000a	64 a1 00 00 00
	00		 mov	 eax, DWORD PTR fs:0
  00010	50		 push	 eax
  00011	83 ec 3c	 sub	 esp, 60			; 0000003cH
  00014	a1 00 00 00 00	 mov	 eax, DWORD PTR ___security_cookie
  00019	33 c5		 xor	 eax, ebp
  0001b	89 45 f0	 mov	 DWORD PTR __$ArrayPad$[ebp], eax
  0001e	56		 push	 esi
  0001f	50		 push	 eax
  00020	8d 45 f4	 lea	 eax, DWORD PTR __$EHRec$[ebp]
  00023	64 a3 00 00 00
	00		 mov	 DWORD PTR fs:0, eax
  00029	8b 75 0c	 mov	 esi, DWORD PTR _poArgs$[ebp]

; 189  : 	float fScrrenX;
; 190  : 	if (!PyTuple_GetFloat(poArgs, 0, &fScrrenX))

  0002c	8d 45 b8	 lea	 eax, DWORD PTR _fScrrenX$[ebp]
  0002f	50		 push	 eax
  00030	6a 00		 push	 0
  00032	56		 push	 esi
  00033	e8 00 00 00 00	 call	 ?PyTuple_GetFloat@@YA_NPAU_object@@HPAM@Z ; PyTuple_GetFloat
  00038	83 c4 0c	 add	 esp, 12			; 0000000cH
  0003b	84 c0		 test	 al, al
  0003d	75 0f		 jne	 SHORT $LN2@miniMapGet
$LN138@miniMapGet:

; 220  : }

  0003f	6a 00		 push	 0
  00041	e8 00 00 00 00	 call	 ?Py_BuildException@@YAPAU_object@@PBDZZ ; Py_BuildException
  00046	83 c4 04	 add	 esp, 4
  00049	e9 84 01 00 00	 jmp	 $LN1@miniMapGet
$LN2@miniMapGet:

; 191  : 		return Py_BuildException();
; 192  : 	float fScrrenY;
; 193  : 	if (!PyTuple_GetFloat(poArgs, 1, &fScrrenY))

  0004e	8d 45 bc	 lea	 eax, DWORD PTR _fScrrenY$[ebp]
  00051	50		 push	 eax
  00052	6a 01		 push	 1
  00054	56		 push	 esi
  00055	e8 00 00 00 00	 call	 ?PyTuple_GetFloat@@YA_NPAU_object@@HPAM@Z ; PyTuple_GetFloat
  0005a	83 c4 0c	 add	 esp, 12			; 0000000cH
  0005d	84 c0		 test	 al, al
  0005f	74 de		 je	 SHORT $LN138@miniMapGet
  00061	0f 57 c0	 xorps	 xmm0, xmm0
; File C:\Program Files\Microsoft Visual Studio\2022\Community\VC\Tools\MSVC\14.44.35207\include\xstring

; 890  :             _My_data._Mysize = _Count;

  00064	c7 45 e8 00 00
	00 00		 mov	 DWORD PTR _aString$[ebp+16], 0

; 493  :         _CONSTEXPR20 _Bxty() noexcept : _Buf() {} // user-provided, for fancy pointers

  0006b	0f 11 45 d8	 movups	 XMMWORD PTR _aString$[ebp], xmm0

; 891  :             _My_data._Myres  = _Small_string_capacity;

  0006f	c7 45 ec 0f 00
	00 00		 mov	 DWORD PTR _aString$[ebp+20], 15 ; 0000000fH

; 892  : 
; 893  :             if constexpr (_Strat == _Construct_strategy::_From_char) {
; 894  :                 _Traits::assign(_My_data._Bx._Buf, _Count, _Arg);
; 895  :                 _Traits::assign(_My_data._Bx._Buf[_Count], _Elem());
; 896  :             } else if constexpr (_Strat == _Construct_strategy::_From_ptr) {
; 897  :                 _Traits::copy(_My_data._Bx._Buf, _Arg, _Count);
; 898  :                 _Traits::assign(_My_data._Bx._Buf[_Count], _Elem());

  00076	c6 45 d8 00	 mov	 BYTE PTR _aString$[ebp], 0
; File C:\Anka2Project\Anka2Project\Source\Binary\source\UserInterface\PythonMiniMapModule.cpp

; 196  : 	std::string aString = "";

  0007a	c7 45 fc 00 00
	00 00		 mov	 DWORD PTR __$EHRec$[ebp+8], 0
; File C:\Anka2Project\Anka2Project\Source\Binary\source\eterBase\Singleton.h

; 26   : 		assert(ms_singleton);

  00081	8b 0d 00 00 00
	00		 mov	 ecx, DWORD PTR ?ms_singleton@?$CSingleton@VCPythonMiniMap@@@@0PAVCPythonMiniMap@@A ; CSingleton<CPythonMiniMap>::ms_singleton
; File C:\Anka2Project\Anka2Project\Source\Binary\source\UserInterface\PythonMiniMapModule.cpp

; 197  : 	float fPosX = 0.0f;

  00087	c7 45 d0 00 00
	00 00		 mov	 DWORD PTR _fPosX$[ebp], 0

; 198  : 	float fPosY = 0.0f;

  0008e	c7 45 cc 00 00
	00 00		 mov	 DWORD PTR _fPosY$[ebp], 0

; 199  : 	DWORD dwTextColor = 0;

  00095	c7 45 c0 00 00
	00 00		 mov	 DWORD PTR _dwTextColor$[ebp], 0

; 200  : 	DWORD dwGuildID = 0;

  0009c	c7 45 c4 00 00
	00 00		 mov	 DWORD PTR _dwGuildID$[ebp], 0

; 201  : 
; 202  : #ifdef ENABLE_RENEWAL_REGEN
; 203  : 	int diRegenTime = 0;

  000a3	c7 45 c8 00 00
	00 00		 mov	 DWORD PTR _diRegenTime$[ebp], 0
; File C:\Anka2Project\Anka2Project\Source\Binary\source\eterBase\Singleton.h

; 26   : 		assert(ms_singleton);

  000aa	85 c9		 test	 ecx, ecx
  000ac	75 1a		 jne	 SHORT $LN80@miniMapGet
  000ae	6a 1a		 push	 26			; 0000001aH
  000b0	68 00 00 00 00	 push	 OFFSET ??_C@_1IO@CAJLEEOI@?$AAC?$AA?3?$AA?2?$AAA?$AAn?$AAk?$AAa?$AA2?$AAP?$AAr?$AAo?$AAj?$AAe?$AAc?$AAt@
  000b5	68 00 00 00 00	 push	 OFFSET ??_C@_1BK@FMEHPMFE@?$AAm?$AAs?$AA_?$AAs?$AAi?$AAn?$AAg?$AAl?$AAe?$AAt?$AAo?$AAn@
  000ba	e8 00 00 00 00	 call	 __wassert
  000bf	8b 0d 00 00 00
	00		 mov	 ecx, DWORD PTR ?ms_singleton@?$CSingleton@VCPythonMiniMap@@@@0PAVCPythonMiniMap@@A ; CSingleton<CPythonMiniMap>::ms_singleton
  000c5	83 c4 0c	 add	 esp, 12			; 0000000cH
$LN80@miniMapGet:
; File C:\Anka2Project\Anka2Project\Source\Binary\source\UserInterface\PythonMiniMapModule.cpp

; 204  : 	bool bFind = CPythonMiniMap::Instance().GetAtlasInfo(fScrrenX, fScrrenY, aString, &fPosX, &fPosY, &dwTextColor, &dwGuildID, &diRegenTime);

  000c8	f3 0f 10 55 bc	 movss	 xmm2, DWORD PTR _fScrrenY$[ebp]
  000cd	8d 45 c8	 lea	 eax, DWORD PTR _diRegenTime$[ebp]
  000d0	f3 0f 10 4d b8	 movss	 xmm1, DWORD PTR _fScrrenX$[ebp]
  000d5	50		 push	 eax
  000d6	8d 45 c4	 lea	 eax, DWORD PTR _dwGuildID$[ebp]
  000d9	50		 push	 eax
  000da	8d 45 c0	 lea	 eax, DWORD PTR _dwTextColor$[ebp]
  000dd	50		 push	 eax
  000de	8d 45 cc	 lea	 eax, DWORD PTR _fPosY$[ebp]
  000e1	50		 push	 eax
  000e2	8d 45 d0	 lea	 eax, DWORD PTR _fPosX$[ebp]
  000e5	50		 push	 eax
  000e6	8d 45 d8	 lea	 eax, DWORD PTR _aString$[ebp]
  000e9	50		 push	 eax
  000ea	e8 00 00 00 00	 call	 ?GetAtlasInfo@CPythonMiniMap@@QAE_NMMAAV?$basic_string@DU?$char_traits@D@std@@V?$allocator@D@2@@std@@PAM1PAK2PAH@Z ; CPythonMiniMap::GetAtlasInfo

; 205  : #else
; 206  : 	bool bFind = CPythonMiniMap::Instance().GetAtlasInfo(fScrrenX, fScrrenY, aString, &fPosX, &fPosY, &dwTextColor, &dwGuildID);
; 207  : #endif
; 208  : 
; 209  : 	int iPosX, iPosY;
; 210  : 	PR_FLOAT_TO_INT(fPosX, iPosX);

  000ef	f3 0f 10 45 d0	 movss	 xmm0, DWORD PTR _fPosX$[ebp]
  000f4	88 45 d7	 mov	 BYTE PTR _bFind$1$[ebp], al
  000f7	f3 0f 11 05 00
	00 00 00	 movss	 DWORD PTR ?PR_FCNV@@3MA, xmm0
  000ff	d9 05 00 00 00
	00		 fld	 DWORD PTR ?PR_FCNV@@3MA	; PR_FCNV
  00105	db 1d 00 00 00
	00		 fistp	 DWORD PTR ?PR_ICNV@@3JA
  0010b	8b 15 00 00 00
	00		 mov	 edx, DWORD PTR ?PR_ICNV@@3JA ; PR_ICNV
  00111	66 0f 6e c2	 movd	 xmm0, edx
  00115	0f 5b c0	 cvtdq2ps xmm0, xmm0
  00118	0f 2f 05 00 00
	00 00		 comiss	 xmm0, DWORD PTR ?PR_FCNV@@3MA
  0011f	76 01		 jbe	 SHORT $LN5@miniMapGet
  00121	4a		 dec	 edx
$LN5@miniMapGet:

; 211  : 	PR_FLOAT_TO_INT(fPosY, iPosY);

  00122	f3 0f 10 45 cc	 movss	 xmm0, DWORD PTR _fPosY$[ebp]
  00127	f3 0f 11 05 00
	00 00 00	 movss	 DWORD PTR ?PR_FCNV@@3MA, xmm0
  0012f	d9 05 00 00 00
	00		 fld	 DWORD PTR ?PR_FCNV@@3MA	; PR_FCNV
  00135	db 1d 00 00 00
	00		 fistp	 DWORD PTR ?PR_ICNV@@3JA
  0013b	8b 0d 00 00 00
	00		 mov	 ecx, DWORD PTR ?PR_ICNV@@3JA ; PR_ICNV
  00141	66 0f 6e c1	 movd	 xmm0, ecx
  00145	0f 5b c0	 cvtdq2ps xmm0, xmm0
  00148	0f 2f 05 00 00
	00 00		 comiss	 xmm0, DWORD PTR ?PR_FCNV@@3MA
  0014f	76 01		 jbe	 SHORT $LN7@miniMapGet
  00151	49		 dec	 ecx
$LN7@miniMapGet:

; 216  : 	return Py_BuildValue("isiilii", (int)bFind, aString.c_str(), iPosX, iPosY, (signed) dwTextColor, dwGuildID, diRegenTime);

  00152	ff 75 c8	 push	 DWORD PTR _diRegenTime$[ebp]
  00155	b8 1f 85 eb 51	 mov	 eax, 1374389535		; 51eb851fH
  0015a	ff 75 c4	 push	 DWORD PTR _dwGuildID$[ebp]
  0015d	f7 ea		 imul	 edx
  0015f	ff 75 c0	 push	 DWORD PTR _dwTextColor$[ebp]
  00162	c1 fa 05	 sar	 edx, 5
  00165	b8 1f 85 eb 51	 mov	 eax, 1374389535		; 51eb851fH
  0016a	8b f2		 mov	 esi, edx
  0016c	c1 ee 1f	 shr	 esi, 31			; 0000001fH
  0016f	03 f2		 add	 esi, edx
  00171	f7 e9		 imul	 ecx
; File C:\Program Files\Microsoft Visual Studio\2022\Community\VC\Tools\MSVC\14.44.35207\include\xstring

; 444  :         const value_type* _Result = _Bx._Buf;

  00173	8d 45 d8	 lea	 eax, DWORD PTR _aString$[ebp]
; File C:\Anka2Project\Anka2Project\Source\Binary\source\UserInterface\PythonMiniMapModule.cpp

; 213  : 	iPosY /= 100;

  00176	c1 fa 05	 sar	 edx, 5
  00179	8b ca		 mov	 ecx, edx
  0017b	c1 e9 1f	 shr	 ecx, 31			; 0000001fH
  0017e	03 ca		 add	 ecx, edx
; File C:\Program Files\Microsoft Visual Studio\2022\Community\VC\Tools\MSVC\14.44.35207\include\xstring

; 453  :         return _Myres > _Small_string_capacity;

  00180	83 7d ec 0f	 cmp	 DWORD PTR _aString$[ebp+20], 15 ; 0000000fH
; File C:\Anka2Project\Anka2Project\Source\Binary\source\UserInterface\PythonMiniMapModule.cpp

; 216  : 	return Py_BuildValue("isiilii", (int)bFind, aString.c_str(), iPosX, iPosY, (signed) dwTextColor, dwGuildID, diRegenTime);

  00184	51		 push	 ecx
; File C:\Program Files\Microsoft Visual Studio\2022\Community\VC\Tools\MSVC\14.44.35207\include\xstring

; 445  :         if (_Large_mode_engaged()) {

  00185	0f 47 45 d8	 cmova	 eax, DWORD PTR _aString$[ebp]
; File C:\Anka2Project\Anka2Project\Source\Binary\source\UserInterface\PythonMiniMapModule.cpp

; 216  : 	return Py_BuildValue("isiilii", (int)bFind, aString.c_str(), iPosX, iPosY, (signed) dwTextColor, dwGuildID, diRegenTime);

  00189	56		 push	 esi
  0018a	50		 push	 eax
  0018b	0f b6 45 d7	 movzx	 eax, BYTE PTR _bFind$1$[ebp]
  0018f	50		 push	 eax
  00190	68 00 00 00 00	 push	 OFFSET ??_C@_07LBOJHCOE@isiilii@
  00195	ff 15 00 00 00
	00		 call	 DWORD PTR __imp__Py_BuildValue
; File C:\Program Files\Microsoft Visual Studio\2022\Community\VC\Tools\MSVC\14.44.35207\include\xstring

; 453  :         return _Myres > _Small_string_capacity;

  0019b	8b 4d ec	 mov	 ecx, DWORD PTR _aString$[ebp+20]
; File C:\Anka2Project\Anka2Project\Source\Binary\source\UserInterface\PythonMiniMapModule.cpp

; 216  : 	return Py_BuildValue("isiilii", (int)bFind, aString.c_str(), iPosX, iPosY, (signed) dwTextColor, dwGuildID, diRegenTime);

  0019e	83 c4 20	 add	 esp, 32			; 00000020H
  001a1	8b f0		 mov	 esi, eax
; File C:\Program Files\Microsoft Visual Studio\2022\Community\VC\Tools\MSVC\14.44.35207\include\xstring

; 453  :         return _Myres > _Small_string_capacity;

  001a3	83 f9 0f	 cmp	 ecx, 15			; 0000000fH

; 3083 :         if (_My_data._Large_mode_engaged()) {

  001a6	76 28		 jbe	 SHORT $LN109@miniMapGet
; File C:\Program Files\Microsoft Visual Studio\2022\Community\VC\Tools\MSVC\14.44.35207\include\xmemory

; 985  :         _STD _Deallocate<_New_alignof<_Ty>>(_Ptr, sizeof(_Ty) * _Count);

  001a8	8b 55 d8	 mov	 edx, DWORD PTR _aString$[ebp]
; File C:\Program Files\Microsoft Visual Studio\2022\Community\VC\Tools\MSVC\14.44.35207\include\xstring

; 852  :         _Al.deallocate(_Old_ptr, _Capacity + 1); // +1 for null terminator

  001ab	41		 inc	 ecx
; File C:\Program Files\Microsoft Visual Studio\2022\Community\VC\Tools\MSVC\14.44.35207\include\xmemory

; 985  :         _STD _Deallocate<_New_alignof<_Ty>>(_Ptr, sizeof(_Ty) * _Count);

  001ac	8b c2		 mov	 eax, edx

; 284  :         if (_Bytes >= _Big_allocation_threshold) {

  001ae	81 f9 00 10 00
	00		 cmp	 ecx, 4096		; 00001000H
  001b4	72 10		 jb	 SHORT $LN117@miniMapGet

; 205  :     const uintptr_t _Ptr_container   = _Ptr_user[-1];

  001b6	8b 50 fc	 mov	 edx, DWORD PTR [eax-4]
  001b9	83 c1 23	 add	 ecx, 35			; 00000023H
  001bc	2b c2		 sub	 eax, edx

; 219  :     _STL_VERIFY(_Back_shift >= _Min_back_shift && _Back_shift <= _Non_user_size, "invalid argument");

  001be	83 c0 fc	 add	 eax, -4			; fffffffcH
  001c1	83 f8 1f	 cmp	 eax, 31			; 0000001fH
  001c4	77 26		 ja	 SHORT $LN140@miniMapGet
$LN117@miniMapGet:

; 289  :         ::operator delete(_Ptr, _Bytes);

  001c6	51		 push	 ecx
  001c7	52		 push	 edx
  001c8	e8 00 00 00 00	 call	 ??3@YAXPAXI@Z		; operator delete
  001cd	83 c4 08	 add	 esp, 8
$LN109@miniMapGet:
; File C:\Anka2Project\Anka2Project\Source\Binary\source\UserInterface\PythonMiniMapModule.cpp

; 216  : 	return Py_BuildValue("isiilii", (int)bFind, aString.c_str(), iPosX, iPosY, (signed) dwTextColor, dwGuildID, diRegenTime);

  001d0	8b c6		 mov	 eax, esi
$LN1@miniMapGet:

; 220  : }

  001d2	8b 4d f4	 mov	 ecx, DWORD PTR __$EHRec$[ebp]
  001d5	64 89 0d 00 00
	00 00		 mov	 DWORD PTR fs:0, ecx
  001dc	59		 pop	 ecx
  001dd	5e		 pop	 esi
  001de	8b 4d f0	 mov	 ecx, DWORD PTR __$ArrayPad$[ebp]
  001e1	33 cd		 xor	 ecx, ebp
  001e3	e8 00 00 00 00	 call	 @__security_check_cookie@4
  001e8	8b e5		 mov	 esp, ebp
  001ea	5d		 pop	 ebp
  001eb	c3		 ret	 0
$LN140@miniMapGet:
; File C:\Program Files\Microsoft Visual Studio\2022\Community\VC\Tools\MSVC\14.44.35207\include\xmemory

; 219  :     _STL_VERIFY(_Back_shift >= _Min_back_shift && _Back_shift <= _Non_user_size, "invalid argument");

  001ec	6a 00		 push	 0
  001ee	6a 00		 push	 0
  001f0	6a 00		 push	 0
  001f2	6a 00		 push	 0
  001f4	6a 00		 push	 0
  001f6	e8 00 00 00 00	 call	 __invoke_watson
$LN137@miniMapGet:
  001fb	cc		 int	 3
_TEXT	ENDS
;	COMDAT text$x
text$x	SEGMENT
__unwindfunclet$?miniMapGetAtlasInfo@@YAPAU_object@@PAU1@0@Z$0:
  00000	8d 4d d8	 lea	 ecx, DWORD PTR _aString$[ebp]
  00003	e9 00 00 00 00	 jmp	 ??1?$basic_string@DU?$char_traits@D@std@@V?$allocator@D@2@@std@@QAE@XZ ; std::basic_string<char,std::char_traits<char>,std::allocator<char> >::~basic_string<char,std::char_traits<char>,std::allocator<char> >
  00008	cc		 int	 3
  00009	cc		 int	 3
  0000a	cc		 int	 3
  0000b	cc		 int	 3
  0000c	cc		 int	 3
__ehhandler$?miniMapGetAtlasInfo@@YAPAU_object@@PAU1@0@Z:
  0000d	90		 npad	 1
  0000e	90		 npad	 1
  0000f	8b 54 24 08	 mov	 edx, DWORD PTR [esp+8]
  00013	8d 42 0c	 lea	 eax, DWORD PTR [edx+12]
  00016	8b 4a bc	 mov	 ecx, DWORD PTR [edx-68]
  00019	33 c8		 xor	 ecx, eax
  0001b	e8 00 00 00 00	 call	 @__security_check_cookie@4
  00020	8b 4a fc	 mov	 ecx, DWORD PTR [edx-4]
  00023	33 c8		 xor	 ecx, eax
  00025	e8 00 00 00 00	 call	 @__security_check_cookie@4
  0002a	b8 00 00 00 00	 mov	 eax, OFFSET __ehfuncinfo$?miniMapGetAtlasInfo@@YAPAU_object@@PAU1@0@Z
  0002f	e9 00 00 00 00	 jmp	 ___CxxFrameHandler3
text$x	ENDS
?miniMapGetAtlasInfo@@YAPAU_object@@PAU1@0@Z ENDP	; miniMapGetAtlasInfo
; Function compile flags: /Ogtp
; File C:\Anka2Project\Anka2Project\Source\Binary\source\UserInterface\PythonMiniMapModule.cpp
; File C:\Anka2Project\Anka2Project\Source\Binary\source\eterBase\Singleton.h
; File C:\Anka2Project\Anka2Project\Source\Binary\source\UserInterface\PythonMiniMapModule.cpp
; File C:\Anka2Project\Anka2Project\Source\Binary\source\eterBase\Singleton.h
; File C:\Anka2Project\Anka2Project\Source\Binary\source\UserInterface\PythonMiniMapModule.cpp
;	COMDAT ?miniMapGetAtlasSize@@YAPAU_object@@PAU1@0@Z
_TEXT	SEGMENT
_fSizeY$ = -8						; size = 4
_fSizeX$ = -4						; size = 4
_poSelf$ = 8						; size = 4
_poArgs$ = 12						; size = 4
?miniMapGetAtlasSize@@YAPAU_object@@PAU1@0@Z PROC	; miniMapGetAtlasSize, COMDAT

; 223  : {

  00000	55		 push	 ebp
  00001	8b ec		 mov	 ebp, esp
; File C:\Anka2Project\Anka2Project\Source\Binary\source\eterBase\Singleton.h

; 26   : 		assert(ms_singleton);

  00003	8b 0d 00 00 00
	00		 mov	 ecx, DWORD PTR ?ms_singleton@?$CSingleton@VCPythonMiniMap@@@@0PAVCPythonMiniMap@@A ; CSingleton<CPythonMiniMap>::ms_singleton
; File C:\Anka2Project\Anka2Project\Source\Binary\source\UserInterface\PythonMiniMapModule.cpp

; 223  : {

  00009	83 ec 08	 sub	 esp, 8
; File C:\Anka2Project\Anka2Project\Source\Binary\source\eterBase\Singleton.h

; 26   : 		assert(ms_singleton);

  0000c	85 c9		 test	 ecx, ecx
  0000e	75 1a		 jne	 SHORT $LN9@miniMapGet
  00010	6a 1a		 push	 26			; 0000001aH
  00012	68 00 00 00 00	 push	 OFFSET ??_C@_1IO@CAJLEEOI@?$AAC?$AA?3?$AA?2?$AAA?$AAn?$AAk?$AAa?$AA2?$AAP?$AAr?$AAo?$AAj?$AAe?$AAc?$AAt@
  00017	68 00 00 00 00	 push	 OFFSET ??_C@_1BK@FMEHPMFE@?$AAm?$AAs?$AA_?$AAs?$AAi?$AAn?$AAg?$AAl?$AAe?$AAt?$AAo?$AAn@
  0001c	e8 00 00 00 00	 call	 __wassert
  00021	8b 0d 00 00 00
	00		 mov	 ecx, DWORD PTR ?ms_singleton@?$CSingleton@VCPythonMiniMap@@@@0PAVCPythonMiniMap@@A ; CSingleton<CPythonMiniMap>::ms_singleton
  00027	83 c4 0c	 add	 esp, 12			; 0000000cH
$LN9@miniMapGet:
; File C:\Anka2Project\Anka2Project\Source\Binary\source\UserInterface\PythonMiniMapModule.cpp

; 225  : 	bool bGet = CPythonMiniMap::Instance().GetAtlasSize(&fSizeX, &fSizeY);

  0002a	8d 45 f8	 lea	 eax, DWORD PTR _fSizeY$[ebp]
  0002d	50		 push	 eax
  0002e	8d 45 fc	 lea	 eax, DWORD PTR _fSizeX$[ebp]
  00031	50		 push	 eax
  00032	e8 00 00 00 00	 call	 ?GetAtlasSize@CPythonMiniMap@@QAE_NPAM0@Z ; CPythonMiniMap::GetAtlasSize

; 226  : 
; 227  : 	int iSizeX, iSizeY;
; 228  : 	PR_FLOAT_TO_INT(fSizeX, iSizeX);

  00037	f3 0f 10 45 fc	 movss	 xmm0, DWORD PTR _fSizeX$[ebp]
  0003c	8a d0		 mov	 dl, al
  0003e	f3 0f 11 05 00
	00 00 00	 movss	 DWORD PTR ?PR_FCNV@@3MA, xmm0
  00046	d9 05 00 00 00
	00		 fld	 DWORD PTR ?PR_FCNV@@3MA	; PR_FCNV
  0004c	db 1d 00 00 00
	00		 fistp	 DWORD PTR ?PR_ICNV@@3JA
  00052	8b 0d 00 00 00
	00		 mov	 ecx, DWORD PTR ?PR_ICNV@@3JA ; PR_ICNV
  00058	66 0f 6e c1	 movd	 xmm0, ecx
  0005c	0f 5b c0	 cvtdq2ps xmm0, xmm0
  0005f	0f 2f 05 00 00
	00 00		 comiss	 xmm0, DWORD PTR ?PR_FCNV@@3MA
  00066	76 01		 jbe	 SHORT $LN3@miniMapGet
  00068	49		 dec	 ecx
$LN3@miniMapGet:

; 229  : 	PR_FLOAT_TO_INT(fSizeY, iSizeY);

  00069	f3 0f 10 45 f8	 movss	 xmm0, DWORD PTR _fSizeY$[ebp]
  0006e	f3 0f 11 05 00
	00 00 00	 movss	 DWORD PTR ?PR_FCNV@@3MA, xmm0
  00076	d9 05 00 00 00
	00		 fld	 DWORD PTR ?PR_FCNV@@3MA	; PR_FCNV
  0007c	db 1d 00 00 00
	00		 fistp	 DWORD PTR ?PR_ICNV@@3JA
  00082	a1 00 00 00 00	 mov	 eax, DWORD PTR ?PR_ICNV@@3JA ; PR_ICNV
  00087	66 0f 6e c0	 movd	 xmm0, eax
  0008b	0f 5b c0	 cvtdq2ps xmm0, xmm0
  0008e	0f 2f 05 00 00
	00 00		 comiss	 xmm0, DWORD PTR ?PR_FCNV@@3MA
  00095	76 01		 jbe	 SHORT $LN5@miniMapGet
  00097	48		 dec	 eax
$LN5@miniMapGet:

; 230  : 
; 231  : 	return Py_BuildValue("bii", (int)bGet, iSizeX, iSizeY);

  00098	50		 push	 eax
  00099	51		 push	 ecx
  0009a	0f b6 c2	 movzx	 eax, dl
  0009d	50		 push	 eax
  0009e	68 00 00 00 00	 push	 OFFSET ??_C@_03LMKNDPCK@bii@
  000a3	ff 15 00 00 00
	00		 call	 DWORD PTR __imp__Py_BuildValue
  000a9	83 c4 10	 add	 esp, 16			; 00000010H

; 232  : }

  000ac	8b e5		 mov	 esp, ebp
  000ae	5d		 pop	 ebp
  000af	c3		 ret	 0
?miniMapGetAtlasSize@@YAPAU_object@@PAU1@0@Z ENDP	; miniMapGetAtlasSize
_TEXT	ENDS
; Function compile flags: /Ogtp
; File C:\Anka2Project\Anka2Project\Source\Binary\source\UserInterface\PythonMiniMapModule.cpp
; File C:\Anka2Project\Anka2Project\Source\Binary\source\eterBase\Singleton.h
; File C:\Anka2Project\Anka2Project\Source\Binary\source\UserInterface\PythonMiniMapModule.cpp
;	COMDAT ?miniMapGetGuildAreaID@@YAPAU_object@@PAU1@0@Z
_TEXT	SEGMENT
_fx$ = -8						; size = 4
_fy$ = -4						; size = 4
_poSelf$ = 8						; size = 4
_poArgs$ = 12						; size = 4
?miniMapGetGuildAreaID@@YAPAU_object@@PAU1@0@Z PROC	; miniMapGetGuildAreaID, COMDAT

; 284  : {

  00000	55		 push	 ebp
  00001	8b ec		 mov	 ebp, esp
  00003	83 ec 08	 sub	 esp, 8

; 285  : 	float fx;
; 286  : 	if (!PyTuple_GetFloat(poArgs, 0, &fx))

  00006	8d 45 f8	 lea	 eax, DWORD PTR _fx$[ebp]
  00009	56		 push	 esi
  0000a	8b 75 0c	 mov	 esi, DWORD PTR _poArgs$[ebp]
  0000d	50		 push	 eax
  0000e	6a 00		 push	 0
  00010	56		 push	 esi
  00011	e8 00 00 00 00	 call	 ?PyTuple_GetFloat@@YA_NPAU_object@@HPAM@Z ; PyTuple_GetFloat
  00016	83 c4 0c	 add	 esp, 12			; 0000000cH
  00019	84 c0		 test	 al, al
  0001b	75 0f		 jne	 SHORT $LN2@miniMapGet
$LN11@miniMapGet:

; 294  : }

  0001d	6a 00		 push	 0
  0001f	e8 00 00 00 00	 call	 ?Py_BuildException@@YAPAU_object@@PBDZZ ; Py_BuildException
  00024	83 c4 04	 add	 esp, 4
  00027	5e		 pop	 esi
  00028	8b e5		 mov	 esp, ebp
  0002a	5d		 pop	 ebp
  0002b	c3		 ret	 0
$LN2@miniMapGet:

; 287  : 		return Py_BuildException();
; 288  : 	float fy;
; 289  : 	if (!PyTuple_GetFloat(poArgs, 1, &fy))

  0002c	8d 45 fc	 lea	 eax, DWORD PTR _fy$[ebp]
  0002f	50		 push	 eax
  00030	6a 01		 push	 1
  00032	56		 push	 esi
  00033	e8 00 00 00 00	 call	 ?PyTuple_GetFloat@@YA_NPAU_object@@HPAM@Z ; PyTuple_GetFloat
  00038	83 c4 0c	 add	 esp, 12			; 0000000cH
  0003b	84 c0		 test	 al, al
  0003d	74 de		 je	 SHORT $LN11@miniMapGet
; File C:\Anka2Project\Anka2Project\Source\Binary\source\eterBase\Singleton.h

; 26   : 		assert(ms_singleton);

  0003f	8b 35 00 00 00
	00		 mov	 esi, DWORD PTR ?ms_singleton@?$CSingleton@VCPythonMiniMap@@@@0PAVCPythonMiniMap@@A ; CSingleton<CPythonMiniMap>::ms_singleton
  00045	85 f6		 test	 esi, esi
  00047	75 1a		 jne	 SHORT $LN7@miniMapGet
  00049	6a 1a		 push	 26			; 0000001aH
  0004b	68 00 00 00 00	 push	 OFFSET ??_C@_1IO@CAJLEEOI@?$AAC?$AA?3?$AA?2?$AAA?$AAn?$AAk?$AAa?$AA2?$AAP?$AAr?$AAo?$AAj?$AAe?$AAc?$AAt@
  00050	68 00 00 00 00	 push	 OFFSET ??_C@_1BK@FMEHPMFE@?$AAm?$AAs?$AA_?$AAs?$AAi?$AAn?$AAg?$AAl?$AAe?$AAt?$AAo?$AAn@
  00055	e8 00 00 00 00	 call	 __wassert
  0005a	8b 35 00 00 00
	00		 mov	 esi, DWORD PTR ?ms_singleton@?$CSingleton@VCPythonMiniMap@@@@0PAVCPythonMiniMap@@A ; CSingleton<CPythonMiniMap>::ms_singleton
  00060	83 c4 0c	 add	 esp, 12			; 0000000cH
$LN7@miniMapGet:
; File C:\Anka2Project\Anka2Project\Source\Binary\source\UserInterface\PythonMiniMapModule.cpp

; 292  : 	DWORD dwGuildID = CPythonMiniMap::Instance().GetGuildAreaID(fx, fy);

  00063	f3 0f 10 45 fc	 movss	 xmm0, DWORD PTR _fy$[ebp]
  00068	e8 00 00 00 00	 call	 __ftol3
  0006d	f3 0f 10 45 f8	 movss	 xmm0, DWORD PTR _fx$[ebp]
  00072	50		 push	 eax
  00073	e8 00 00 00 00	 call	 __ftol3
  00078	50		 push	 eax
  00079	8b ce		 mov	 ecx, esi
  0007b	e8 00 00 00 00	 call	 ?GetGuildAreaID@CPythonMiniMap@@QAEKKK@Z ; CPythonMiniMap::GetGuildAreaID

; 293  : 	return Py_BuildValue("i", dwGuildID);

  00080	50		 push	 eax
  00081	68 00 00 00 00	 push	 OFFSET ??_C@_01KBJDNOO@i@
  00086	ff 15 00 00 00
	00		 call	 DWORD PTR __imp__Py_BuildValue
  0008c	83 c4 08	 add	 esp, 8
  0008f	5e		 pop	 esi

; 294  : }

  00090	8b e5		 mov	 esp, ebp
  00092	5d		 pop	 ebp
  00093	c3		 ret	 0
?miniMapGetGuildAreaID@@YAPAU_object@@PAU1@0@Z ENDP	; miniMapGetGuildAreaID
_TEXT	ENDS
; Function compile flags: /Ogtp
; File C:\Anka2Project\Anka2Project\Source\Binary\source\UserInterface\PythonMiniMapModule.cpp
;	COMDAT ?initMiniMap@@YAXXZ
_TEXT	SEGMENT
?initMiniMap@@YAXXZ PROC				; initMiniMap, COMDAT

; 332  : {

  00000	56		 push	 esi
  00001	57		 push	 edi

; 333  : 	static PyMethodDef s_methods[] = 
; 334  : 	{
; 335  : 		{ "SetScale",						miniMapSetScale,								METH_VARARGS },
; 336  : 		{ "ScaleUp",						miniMapScaleUp,									METH_VARARGS },
; 337  : 		{ "ScaleDown",						miniMapScaleDown,								METH_VARARGS },
; 338  : 		{ "SetMiniMapSize",					miniMapSetMiniMapSize,							METH_VARARGS },
; 339  : 
; 340  : 		{ "SetCenterPosition",				miniMapSetCenterPosition,						METH_VARARGS },
; 341  : 
; 342  : 		{ "Destroy",						miniMapDestroy,									METH_VARARGS },
; 343  : 		{ "Create",							miniMapCreate,									METH_VARARGS },
; 344  : 		{ "Update",							miniMapUpdate,									METH_VARARGS },
; 345  : 		{ "Render",							miniMapRender,									METH_VARARGS },
; 346  : 
; 347  : 		{ "Show",							miniMapShow,									METH_VARARGS },
; 348  : 		{ "Hide",							miniMapHide,									METH_VARARGS },
; 349  : 
; 350  : 		{ "isShow",							miniMapisShow,									METH_VARARGS },
; 351  : 
; 352  : 		{ "GetInfo",						miniMapGetInfo,									METH_VARARGS },
; 353  : 
; 354  : 		{ "LoadAtlas",						miniMapLoadAtlas,								METH_VARARGS },
; 355  : 		{ "UpdateAtlas",					miniMapUpdateAtlas,								METH_VARARGS },
; 356  : 		{ "RenderAtlas",					miniMapRenderAtlas,								METH_VARARGS },
; 357  : 		{ "ShowAtlas",						miniMapShowAtlas,								METH_VARARGS },
; 358  : 		{ "HideAtlas",						miniMapHideAtlas,								METH_VARARGS },
; 359  : 		{ "isShowAtlas",					miniMapisShowAtlas,								METH_VARARGS },
; 360  : 		{ "IsAtlas",						miniMapIsAtlas,									METH_VARARGS },
; 361  : 		{ "GetAtlasInfo",					miniMapGetAtlasInfo,							METH_VARARGS },
; 362  : 		{ "GetAtlasSize",					miniMapGetAtlasSize,							METH_VARARGS },
; 363  : 
; 364  : 		{ "AddWayPoint",					miniMapAddWayPoint,								METH_VARARGS },
; 365  : 		{ "RemoveWayPoint",					miniMapRemoveWayPoint,							METH_VARARGS },
; 366  : 
; 367  : 		{ "RegisterAtlasWindow",			miniMapRegisterAtlasWindow,						METH_VARARGS },
; 368  : 		{ "UnregisterAtlasWindow",			miniMapUnregisterAtlasWindow,					METH_VARARGS },
; 369  : 
; 370  : 		{ "GetGuildAreaID",					miniMapGetGuildAreaID,							METH_VARARGS },
; 371  : #ifdef ENABLE_ATLAS_SCALE
; 372  : 		{ "SetAtlasScale",					miniMapSetAtlasScale,							METH_VARARGS },
; 373  : #endif
; 374  : #ifdef __AUTO_HUNT__
; 375  : 		{ "SetAutoHuntRangeStatus",			miniMapSetAutoHuntRangeStatus,					METH_VARARGS },
; 376  : 		{ "SetAutoHuntRange",				miniMapSetAutoHuntRange,						METH_VARARGS },
; 377  : #endif
; 378  : 
; 379  : 		{ nullptr, nullptr },
; 380  : 	};
; 381  : 
; 382  : 	PyObject *poModule = Py_InitModule("miniMap", s_methods);

  00002	68 f5 03 00 00	 push	 1013			; 000003f5H
  00007	6a 00		 push	 0
  00009	6a 00		 push	 0
  0000b	68 00 00 00 00	 push	 OFFSET ?s_methods@?1??initMiniMap@@YAXXZ@4PAUPyMethodDef@@A
  00010	68 00 00 00 00	 push	 OFFSET ??_C@_07GGJFLPNN@miniMap@
  00015	ff 15 00 00 00
	00		 call	 DWORD PTR __imp__Py_InitModule4

; 383  : 	
; 384  : 	PyModule_AddIntConstant(poModule, "TYPE_OPC",			CPythonMiniMap::TYPE_OPC);

  0001b	8b 35 00 00 00
	00		 mov	 esi, DWORD PTR __imp__PyModule_AddIntConstant
  00021	8b f8		 mov	 edi, eax
  00023	6a 00		 push	 0
  00025	68 00 00 00 00	 push	 OFFSET ??_C@_08MOLNEDKJ@TYPE_OPC@
  0002a	57		 push	 edi
  0002b	ff d6		 call	 esi

; 385  : 	PyModule_AddIntConstant(poModule, "TYPE_OPCPVP",		CPythonMiniMap::TYPE_OPCPVP);

  0002d	6a 01		 push	 1
  0002f	68 00 00 00 00	 push	 OFFSET ??_C@_0M@KBKKLFCC@TYPE_OPCPVP@
  00034	57		 push	 edi
  00035	ff d6		 call	 esi

; 386  : 	PyModule_AddIntConstant(poModule, "TYPE_OPCPVPSELF",	CPythonMiniMap::TYPE_OPCPVPSELF);

  00037	6a 02		 push	 2
  00039	68 00 00 00 00	 push	 OFFSET ??_C@_0BA@DAENBNGA@TYPE_OPCPVPSELF@
  0003e	57		 push	 edi
  0003f	ff d6		 call	 esi

; 387  : 	PyModule_AddIntConstant(poModule, "TYPE_NPC",			CPythonMiniMap::TYPE_NPC);

  00041	6a 03		 push	 3
  00043	68 00 00 00 00	 push	 OFFSET ??_C@_08HGABCEMM@TYPE_NPC@
  00048	57		 push	 edi
  00049	ff d6		 call	 esi
  0004b	83 c4 44	 add	 esp, 68			; 00000044H

; 388  : 	PyModule_AddIntConstant(poModule, "TYPE_MONSTER",		CPythonMiniMap::TYPE_MONSTER);

  0004e	6a 04		 push	 4
  00050	68 00 00 00 00	 push	 OFFSET ??_C@_0N@MFCFPPMD@TYPE_MONSTER@
  00055	57		 push	 edi
  00056	ff d6		 call	 esi

; 389  : 	PyModule_AddIntConstant(poModule, "TYPE_WARP",			CPythonMiniMap::TYPE_WARP);

  00058	6a 05		 push	 5
  0005a	68 00 00 00 00	 push	 OFFSET ??_C@_09LAKONOKF@TYPE_WARP@
  0005f	57		 push	 edi
  00060	ff d6		 call	 esi

; 390  : 	PyModule_AddIntConstant(poModule, "TYPE_WAYPOINT",		CPythonMiniMap::TYPE_WAYPOINT);

  00062	6a 06		 push	 6
  00064	68 00 00 00 00	 push	 OFFSET ??_C@_0O@JMCMGHKJ@TYPE_WAYPOINT@
  00069	57		 push	 edi
  0006a	ff d6		 call	 esi

; 391  : 	PyModule_AddIntConstant(poModule, "TYPE_PARTY",		CPythonMiniMap::TYPE_PARTY);

  0006c	6a 07		 push	 7
  0006e	68 00 00 00 00	 push	 OFFSET ??_C@_0L@NHHJIHMA@TYPE_PARTY@
  00073	57		 push	 edi
  00074	ff d6		 call	 esi

; 392  : 	PyModule_AddIntConstant(poModule, "TYPE_EMPIRE",		CPythonMiniMap::TYPE_EMPIRE);

  00076	6a 08		 push	 8
  00078	68 00 00 00 00	 push	 OFFSET ??_C@_0M@IAHPEAKG@TYPE_EMPIRE@
  0007d	57		 push	 edi
  0007e	ff d6		 call	 esi
  00080	83 c4 3c	 add	 esp, 60			; 0000003cH
  00083	5f		 pop	 edi
  00084	5e		 pop	 esi

; 393  : }

  00085	c3		 ret	 0
?initMiniMap@@YAXXZ ENDP				; initMiniMap
_TEXT	ENDS
END
