; Listing generated by Microsoft (R) Optimizing Compiler Version 19.44.35219.0 

	TITLE	c:\anka2project\anka2project\source\binary\vs_files\userinterface\release\pythoneventmanager.obj
	.686P
	.XMM
	include listing.inc
	.model	flat

INCLUDELIB OLDNAMES

PUBLIC	??_C@_01GLPGHMHM@z@				; `string'
PUBLIC	??_C@_02HNLLPFKA@up@				; `string'
PUBLIC	??_C@_04CHADEDPO@view@				; `string'
PUBLIC	??_C@_05HCKPILGO@cross@				; `string'
PUBLIC	??_C@_08LHFODBFO@distance@			; `string'
PUBLIC	??_C@_03BHFFHIBL@rot@				; `string'
PUBLIC	??_C@_05NCNFOFLM@pitch@				; `string'
PUBLIC	??_C@_05MFEJDJP@value@				; `string'
PUBLIC	??_C@_0EK@NAEFMGNK@CPythonEventManager?3?3SetRestric@ ; `string'
PUBLIC	??_C@_0EH@KHNDFHCA@CPythonEventManager?3?3SetEventHa@ ; `string'
PUBLIC	??_C@_01JEJKBAGA@g@				; `string'
PUBLIC	??_C@_09DIPEHMLE@DoneEvent@			; `string'
PUBLIC	??_C@_03LOJEKLML@src@				; `string'
PUBLIC	??_C@_0M@MHNDOIJH@OnLeftImage@			; `string'
PUBLIC	??_C@_0L@ELIGNPMG@OnTopImage@			; `string'
PUBLIC	??_C@_0BC@OIPDJOGL@OnBackgroundImage@		; `string'
PUBLIC	??_C@_05GFDPDNFA@?$CIiis?$CJ@			; `string'
PUBLIC	??_C@_07COJEPNBG@OnImage@			; `string'
PUBLIC	??_C@_0L@NDIFBCJA@image_name@			; `string'
PUBLIC	??_C@_05PHLGJONK@title@				; `string'
PUBLIC	??_C@_04EBPADADD@desc@				; `string'
PUBLIC	??_C@_05FKHKFDID@index@				; `string'
PUBLIC	??_C@_05KBOMEDGA@total@				; `string'
PUBLIC	??_C@_0L@HIIGNCOA@image_type@			; `string'
PUBLIC	??_C@_03DAKNAIGI@idx@				; `string'
PUBLIC	??_C@_08GKIEGGBC@?$CIsissii?$CJ@		; `string'
PUBLIC	??_C@_0BB@FCLBKNGH@OnInsertItemIcon@		; `string'
PUBLIC	??_C@_08KJCKKFJC@?$CIssssii?$CJ@		; `string'
PUBLIC	??_C@_0O@LBIBFC@OnInsertImage@			; `string'
PUBLIC	??_C@_0BC@HCOLHKJD@BINARY_ClearQuest@		; `string'
PUBLIC	??_C@_09CNONGEHE@icon_type@			; `string'
PUBLIC	??_C@_09IGOOKEAE@icon_name@			; `string'
PUBLIC	??_C@_04MEMAJGDJ@name@				; `string'
PUBLIC	??_C@_0BD@MDDAOGBD@?A?$LG?$LA?$KC?$LD?$KN?5?$LP?k?H?$KF?$LM?$KO?$DP?4?4?4?4@ ; `string'
PUBLIC	??_C@_09MIAHMBP@highlight@			; `string'
PUBLIC	??_C@_06GEDDNFGH@?$CIisss?$CJ@			; `string'
PUBLIC	??_C@_0BB@JCGLEGP@BINARY_RecvQuest@		; `string'
PUBLIC	??_C@_04JMLDJNEM@?$CIis?$CJ@			; `string'
PUBLIC	??_C@_09IBEAJOHJ@RecvQuest@			; `string'
PUBLIC	??_C@_09LBCONMEI@blendtime@			; `string'
PUBLIC	??_C@_05HJCMGBKF@speed@				; `string'
PUBLIC	??_C@_03LDCBIPEL@?$CIf?$CJ@			; `string'
PUBLIC	??_C@_07EAEHEHPO@FadeOut@			; `string'
PUBLIC	??_C@_06GCJPJKOH@FadeIn@			; `string'
PUBLIC	??_C@_08JJKJMBO@WhiteOut@			; `string'
PUBLIC	??_C@_07NGADDHAB@WhiteIn@			; `string'
PUBLIC	??_C@_0N@CCHILNPP@OnTitleImage@			; `string'
PUBLIC	??_C@_0BA@FCPOOKJM@killstone_count@		; `string'
PUBLIC	??_C@_0O@DDDIKPAP@killmob_count@		; `string'
PUBLIC	??_C@_0M@NAENPPOP@find_hidden@			; `string'
PUBLIC	??_C@_0N@MAFIFFGH@hidden_total@			; `string'
PUBLIC	??_C@_0L@HLMCPCKO@use_potion@			; `string'
PUBLIC	??_C@_0L@HAAPAAPF@is_revived@			; `string'
PUBLIC	??_C@_0L@CEFFAPEL@killallmob@			; `string'
PUBLIC	??_C@_0L@OIFGKHMH@total_time@			; `string'
PUBLIC	??_C@_09HPFMCAOO@bonus_exp@			; `string'
PUBLIC	??_C@_0M@EDIBAKKL@?$CIiiiiiiiii?$CJ@		; `string'
PUBLIC	??_C@_0BC@GLAGHMFL@ShowDungeonResult@		; `string'
PUBLIC	??_C@_05IGKADHGO@width@				; `string'
PUBLIC	??_C@_06LNLHEAAG@height@			; `string'
PUBLIC	??_C@_06JKFPDEMN@OnSize@			; `string'
PUBLIC	??_C@_07MNOKODDC@OnInput@			; `string'
PUBLIC	??_C@_07DDHNKDGP@timeout@			; `string'
PUBLIC	??_C@_09FOPMPDJN@CloseSelf@			; `string'
PUBLIC	??_C@_0BM@GFGEFDCO@BINARY_OpenSelectItemWindow@	; `string'
PUBLIC	??_C@_0P@FONAKFHL@MakeNextButton@		; `string'
PUBLIC	??_C@_0N@NKMOFENJ@MakeQuestion@			; `string'
PUBLIC	??_C@_04LCKGAMBB@?$CIsi?$CJ@			; `string'
PUBLIC	??_C@_0P@EGMAHDDO@AppendQuestion@		; `string'
PUBLIC	??_C@_0DL@PFMMJDKG@CPythonEventManager?3?3InsertLine@ ; `string'
PUBLIC	??_C@_0DD@ENOBDFJN@CPythonEventManager?3?3InsertLine@ ; `string'
PUBLIC	??_C@_0CK@JOIMEHF@?5?$CB?$CB?5PARSING?5ERROR?5?9?5Strange?5Com@ ; `string'
PUBLIC	??_C@_0BB@GNKEGEMJ@?$LD?$LC?$MA?$LK?5?$LN?C?$LA?$KD?5?3?5?$CFd?C?J@ ; `string'
PUBLIC	??_C@_06MJINCFFA@LETTER@			; `string'
PUBLIC	??_C@_05DPNLPLKI@COLOR@				; `string'
PUBLIC	??_C@_05IBAECHHA@DELAY@				; `string'
PUBLIC	??_C@_05EMNIMLKD@ENTER@				; `string'
PUBLIC	??_C@_04DBNKAKHO@WAIT@				; `string'
PUBLIC	??_C@_05PONODPI@CLEAR@				; `string'
PUBLIC	??_C@_08MDIDLFIL@QUESTION@			; `string'
PUBLIC	??_C@_04MOKMKBJN@NEXT@				; `string'
PUBLIC	??_C@_04KANDKFIK@DONE@				; `string'
PUBLIC	??_C@_09GHNJOICA@LEFTIMAGE@			; `string'
PUBLIC	??_C@_08LGGHBKNM@TOPIMAGE@			; `string'
PUBLIC	??_C@_07CDIOHGPA@BGIMAGE@			; `string'
PUBLIC	??_C@_05BNHKIGFN@IMAGE@				; `string'
PUBLIC	??_C@_0N@LEAJJLAE@ADDMAPSIGNAL@			; `string'
PUBLIC	??_C@_0P@MCDNLKLH@CLEARMAPSIGNAL@		; `string'
PUBLIC	??_C@_09GPHHDAMH@SETMSGPOS@			; `string'
PUBLIC	??_C@_09DCGGFGEI@ADJMSGPOS@			; `string'
PUBLIC	??_C@_0L@HNINCFNF@SETCMAPPOS@			; `string'
PUBLIC	??_C@_0M@NLCKLGGC@QUESTBUTTON@			; `string'
PUBLIC	??_C@_0BC@HFDJPBHI@QUESTBUTTON_CLOSE@		; `string'
PUBLIC	??_C@_05DJAECLDN@SLEEP@				; `string'
PUBLIC	??_C@_0L@JFBLMOIC@SET_CAMERA@			; `string'
PUBLIC	??_C@_0N@LDDFAHD@BLEND_CAMERA@			; `string'
PUBLIC	??_C@_0P@JLFCBANF@RESTORE_CAMERA@		; `string'
PUBLIC	??_C@_08HDAMPNGA@FADE_OUT@			; `string'
PUBLIC	??_C@_07BBFGMBEC@FADE_IN@			; `string'
PUBLIC	??_C@_09FBLOEAGA@WHITE_OUT@			; `string'
PUBLIC	??_C@_08KBPNHIPE@WHITE_IN@			; `string'
PUBLIC	??_C@_0L@LKNFDGAI@CLEAR_TEXT@			; `string'
PUBLIC	??_C@_0BN@MHHHIBEN@TEXT_HORIZONTAL_ALIGN_CENTER@ ; `string'
PUBLIC	??_C@_0M@HJKMCEHO@TITLE_IMAGE@			; `string'
PUBLIC	??_C@_0L@PGFMEELF@RUN_CINEMA@			; `string'
PUBLIC	??_C@_0P@FFIDJBND@DUNGEON_RESULT@		; `string'
PUBLIC	??_C@_04BLNHNEEM@ITEM@				; `string'
PUBLIC	??_C@_03OEMEHHJ@MOB@				; `string'
PUBLIC	??_C@_08MALMLJOJ@COLOR256@			; `string'
PUBLIC	??_C@_0M@PMFMMHLB@WINDOW_SIZE@			; `string'
PUBLIC	??_C@_05POAEJIHJ@INPUT@				; `string'
PUBLIC	??_C@_0N@BAJAMEHH@CONFIRM_WAIT@			; `string'
PUBLIC	??_C@_0BB@EAAHJLBE@END_CONFIRM_WAIT@		; `string'
PUBLIC	??_C@_0N@IBBMOEIC@INSERT_IMAGE@			; `string'
PUBLIC	??_C@_0M@NHAJMLIB@SELECT_ITEM@			; `string'
PUBLIC	??_R2?$CDynamicPool@USEventSet@CPythonEventManager@@@@8 ; CDynamicPool<CPythonEventManager::SEventSet>::`RTTI Base Class Array'
PUBLIC	??_R2SEventSet@CPythonEventManager@@8		; CPythonEventManager::SEventSet::`RTTI Base Class Array'
PUBLIC	??_R2CPythonEventManager@@8			; CPythonEventManager::`RTTI Base Class Array'
PUBLIC	??_R2?$CSingleton@VCPythonEventManager@@@@8	; CSingleton<CPythonEventManager>::`RTTI Base Class Array'
PUBLIC	??_R2?$CDynamicPool@VCGraphicTextInstance@@@@8	; CDynamicPool<CGraphicTextInstance>::`RTTI Base Class Array'
PUBLIC	??_R1A@?0A@EA@?$CDynamicPool@USEventSet@CPythonEventManager@@@@8 ; CDynamicPool<CPythonEventManager::SEventSet>::`RTTI Base Class Descriptor at (0,-1,0,64)'
PUBLIC	??_R1A@?0A@EA@SEventSet@CPythonEventManager@@8	; CPythonEventManager::SEventSet::`RTTI Base Class Descriptor at (0,-1,0,64)'
PUBLIC	??_R1A@?0A@EA@CPythonEventManager@@8		; CPythonEventManager::`RTTI Base Class Descriptor at (0,-1,0,64)'
PUBLIC	??_R1A@?0A@EA@?$CSingleton@VCPythonEventManager@@@@8 ; CSingleton<CPythonEventManager>::`RTTI Base Class Descriptor at (0,-1,0,64)'
PUBLIC	??_R1A@?0A@EA@?$CDynamicPool@VCGraphicTextInstance@@@@8 ; CDynamicPool<CGraphicTextInstance>::`RTTI Base Class Descriptor at (0,-1,0,64)'
PUBLIC	??_R3?$CDynamicPool@USEventSet@CPythonEventManager@@@@8 ; CDynamicPool<CPythonEventManager::SEventSet>::`RTTI Class Hierarchy Descriptor'
PUBLIC	??_R0?AV?$CDynamicPool@USEventSet@CPythonEventManager@@@@@8 ; CDynamicPool<CPythonEventManager::SEventSet> `RTTI Type Descriptor'
PUBLIC	??_R3SEventSet@CPythonEventManager@@8		; CPythonEventManager::SEventSet::`RTTI Class Hierarchy Descriptor'
PUBLIC	??_R0?AUSEventSet@CPythonEventManager@@@8	; CPythonEventManager::SEventSet `RTTI Type Descriptor'
PUBLIC	??_R3?$CSingleton@VCPythonEventManager@@@@8	; CSingleton<CPythonEventManager>::`RTTI Class Hierarchy Descriptor'
PUBLIC	??_R0?AV?$CSingleton@VCPythonEventManager@@@@@8	; CSingleton<CPythonEventManager> `RTTI Type Descriptor'
PUBLIC	??_R3CPythonEventManager@@8			; CPythonEventManager::`RTTI Class Hierarchy Descriptor'
PUBLIC	??_R0?AVCPythonEventManager@@@8			; CPythonEventManager `RTTI Type Descriptor'
PUBLIC	??_R3?$CDynamicPool@VCGraphicTextInstance@@@@8	; CDynamicPool<CGraphicTextInstance>::`RTTI Class Hierarchy Descriptor'
PUBLIC	??_R0?AV?$CDynamicPool@VCGraphicTextInstance@@@@@8 ; CDynamicPool<CGraphicTextInstance> `RTTI Type Descriptor'
PUBLIC	??_R4?$CDynamicPool@USEventSet@CPythonEventManager@@@@6B@ ; CDynamicPool<CPythonEventManager::SEventSet>::`RTTI Complete Object Locator'
PUBLIC	??_R4SEventSet@CPythonEventManager@@6B@		; CPythonEventManager::SEventSet::`RTTI Complete Object Locator'
PUBLIC	??_R4?$CSingleton@VCPythonEventManager@@@@6B@	; CSingleton<CPythonEventManager>::`RTTI Complete Object Locator'
PUBLIC	??_R4CPythonEventManager@@6B@			; CPythonEventManager::`RTTI Complete Object Locator'
PUBLIC	??_R4?$CDynamicPool@VCGraphicTextInstance@@@@6B@ ; CDynamicPool<CGraphicTextInstance>::`RTTI Complete Object Locator'
PUBLIC	??_7?$CDynamicPool@VCGraphicTextInstance@@@@6B@	; CDynamicPool<CGraphicTextInstance>::`vftable'
PUBLIC	?ms_singleton@?$CSingleton@VCPythonEventManager@@@@0PAVCPythonEventManager@@A ; CSingleton<CPythonEventManager>::ms_singleton
PUBLIC	??_7?$CSingleton@VCPythonEventManager@@@@6B@	; CSingleton<CPythonEventManager>::`vftable'
PUBLIC	??_7?$CDynamicPool@USEventSet@CPythonEventManager@@@@6B@ ; CDynamicPool<CPythonEventManager::SEventSet>::`vftable'
PUBLIC	??_7CPythonEventManager@@6B@			; CPythonEventManager::`vftable'
PUBLIC	??_7SEventSet@CPythonEventManager@@6B@		; CPythonEventManager::SEventSet::`vftable'
EXTRN	?GetLineHeight@CGraphicTextInstance@@QAEGXZ:PROC ; CGraphicTextInstance::GetLineHeight
EXTRN	?GetTextSize@CGraphicTextInstance@@QAEXPAH0@Z:PROC ; CGraphicTextInstance::GetTextSize
EXTRN	?GetHorizontalAlign@CGraphicTextInstance@@QAEHXZ:PROC ; CGraphicTextInstance::GetHorizontalAlign
EXTRN	?SetColor@CGraphicTextInstance@@QAEXMMMM@Z:PROC	; CGraphicTextInstance::SetColor
EXTRN	?SetValueString@CGraphicTextInstance@@QAEXABV?$basic_string@DU?$char_traits@D@std@@V?$allocator@D@2@@std@@@Z:PROC ; CGraphicTextInstance::SetValueString
EXTRN	?GetCmd@Group@script@@QAE_NAAUSCmd@2@@Z:PROC	; script::Group::GetCmd
EXTRN	?SetHorizonalAlign@CGraphicTextInstance@@QAEXH@Z:PROC ; CGraphicTextInstance::SetHorizonalAlign
EXTRN	__imp__timeGetTime@0:PROC
EXTRN	?ReadCmd@Group@script@@QAE_NAAUSCmd@2@@Z:PROC	; script::Group::ReadCmd
EXTRN	?Create@Group@script@@QAEHABV?$basic_string@DU?$char_traits@D@std@@V?$allocator@D@2@@std@@@Z:PROC ; script::Group::Create
EXTRN	?Read@CMappedFile@@QAEHPAXH@Z:PROC		; CMappedFile::Read
EXTRN	??0Group@script@@QAE@XZ:PROC			; script::Group::Group
EXTRN	??1Group@script@@QAE@XZ:PROC			; script::Group::~Group
;	COMDAT ?ms_singleton@?$CSingleton@VCPythonEventManager@@@@0PAVCPythonEventManager@@A
_BSS	SEGMENT
?ms_singleton@?$CSingleton@VCPythonEventManager@@@@0PAVCPythonEventManager@@A DD 01H DUP (?) ; CSingleton<CPythonEventManager>::ms_singleton
_BSS	ENDS
;	COMDAT ??_7SEventSet@CPythonEventManager@@6B@
CONST	SEGMENT
??_7SEventSet@CPythonEventManager@@6B@ DD FLAT:??_R4SEventSet@CPythonEventManager@@6B@ ; CPythonEventManager::SEventSet::`vftable'
	DD	FLAT:??_ESEventSet@CPythonEventManager@@UAEPAXI@Z
CONST	ENDS
;	COMDAT ?strEmptyValue@?1??GetArgumentString@@YAABV?$basic_string@DU?$char_traits@D@std@@V?$allocator@D@2@@std@@PBDAAV?$list@USArgumet@script@@V?$allocator@USArgumet@script@@@std@@@3@@Z@4V23@A
_DATA	SEGMENT
?strEmptyValue@?1??GetArgumentString@@YAABV?$basic_string@DU?$char_traits@D@std@@V?$allocator@D@2@@std@@PBDAAV?$list@USArgumet@script@@V?$allocator@USArgumet@script@@@std@@@3@@Z@4V23@A DB 00H ; `GetArgumentString'::`2'::strEmptyValue
	DB	00H
	DB	00H
	DB	00H
	DB	00H
	DB	00H
	DB	00H
	DB	00H
	DB	00H
	DB	00H
	DB	00H
	DB	00H
	DB	00H
	DB	00H
	DB	00H
	DB	00H
	DD	00H
	DD	0fH
_DATA	ENDS
;	COMDAT ??_7CPythonEventManager@@6B@
CONST	SEGMENT
??_7CPythonEventManager@@6B@ DD FLAT:??_R4CPythonEventManager@@6B@ ; CPythonEventManager::`vftable'
	DD	FLAT:??_ECPythonEventManager@@UAEPAXI@Z
CONST	ENDS
;	COMDAT ??_7?$CDynamicPool@USEventSet@CPythonEventManager@@@@6B@
CONST	SEGMENT
??_7?$CDynamicPool@USEventSet@CPythonEventManager@@@@6B@ DD FLAT:??_R4?$CDynamicPool@USEventSet@CPythonEventManager@@@@6B@ ; CDynamicPool<CPythonEventManager::SEventSet>::`vftable'
	DD	FLAT:??_E?$CDynamicPool@USEventSet@CPythonEventManager@@@@UAEPAXI@Z
CONST	ENDS
;	COMDAT ??_7?$CSingleton@VCPythonEventManager@@@@6B@
CONST	SEGMENT
??_7?$CSingleton@VCPythonEventManager@@@@6B@ DD FLAT:??_R4?$CSingleton@VCPythonEventManager@@@@6B@ ; CSingleton<CPythonEventManager>::`vftable'
	DD	FLAT:??_E?$CSingleton@VCPythonEventManager@@@@UAEPAXI@Z
CONST	ENDS
;	COMDAT ??_7?$CDynamicPool@VCGraphicTextInstance@@@@6B@
CONST	SEGMENT
??_7?$CDynamicPool@VCGraphicTextInstance@@@@6B@ DD FLAT:??_R4?$CDynamicPool@VCGraphicTextInstance@@@@6B@ ; CDynamicPool<CGraphicTextInstance>::`vftable'
	DD	FLAT:??_E?$CDynamicPool@VCGraphicTextInstance@@@@UAEPAXI@Z
CONST	ENDS
;	COMDAT ??_R4?$CDynamicPool@VCGraphicTextInstance@@@@6B@
rdata$r	SEGMENT
??_R4?$CDynamicPool@VCGraphicTextInstance@@@@6B@ DD 00H	; CDynamicPool<CGraphicTextInstance>::`RTTI Complete Object Locator'
	DD	00H
	DD	00H
	DD	FLAT:??_R0?AV?$CDynamicPool@VCGraphicTextInstance@@@@@8
	DD	FLAT:??_R3?$CDynamicPool@VCGraphicTextInstance@@@@8
rdata$r	ENDS
;	COMDAT ??_R4CPythonEventManager@@6B@
rdata$r	SEGMENT
??_R4CPythonEventManager@@6B@ DD 00H			; CPythonEventManager::`RTTI Complete Object Locator'
	DD	00H
	DD	00H
	DD	FLAT:??_R0?AVCPythonEventManager@@@8
	DD	FLAT:??_R3CPythonEventManager@@8
rdata$r	ENDS
;	COMDAT ??_R4?$CSingleton@VCPythonEventManager@@@@6B@
rdata$r	SEGMENT
??_R4?$CSingleton@VCPythonEventManager@@@@6B@ DD 00H	; CSingleton<CPythonEventManager>::`RTTI Complete Object Locator'
	DD	00H
	DD	00H
	DD	FLAT:??_R0?AV?$CSingleton@VCPythonEventManager@@@@@8
	DD	FLAT:??_R3?$CSingleton@VCPythonEventManager@@@@8
rdata$r	ENDS
;	COMDAT ??_R4SEventSet@CPythonEventManager@@6B@
rdata$r	SEGMENT
??_R4SEventSet@CPythonEventManager@@6B@ DD 00H		; CPythonEventManager::SEventSet::`RTTI Complete Object Locator'
	DD	00H
	DD	00H
	DD	FLAT:??_R0?AUSEventSet@CPythonEventManager@@@8
	DD	FLAT:??_R3SEventSet@CPythonEventManager@@8
rdata$r	ENDS
;	COMDAT ??_R4?$CDynamicPool@USEventSet@CPythonEventManager@@@@6B@
rdata$r	SEGMENT
??_R4?$CDynamicPool@USEventSet@CPythonEventManager@@@@6B@ DD 00H ; CDynamicPool<CPythonEventManager::SEventSet>::`RTTI Complete Object Locator'
	DD	00H
	DD	00H
	DD	FLAT:??_R0?AV?$CDynamicPool@USEventSet@CPythonEventManager@@@@@8
	DD	FLAT:??_R3?$CDynamicPool@USEventSet@CPythonEventManager@@@@8
rdata$r	ENDS
;	COMDAT ??_R0?AV?$CDynamicPool@VCGraphicTextInstance@@@@@8
data$rs	SEGMENT
??_R0?AV?$CDynamicPool@VCGraphicTextInstance@@@@@8 DD FLAT:??_7type_info@@6B@ ; CDynamicPool<CGraphicTextInstance> `RTTI Type Descriptor'
	DD	00H
	DB	'.?AV?$CDynamicPool@VCGraphicTextInstance@@@@', 00H
data$rs	ENDS
;	COMDAT ??_R3?$CDynamicPool@VCGraphicTextInstance@@@@8
rdata$r	SEGMENT
??_R3?$CDynamicPool@VCGraphicTextInstance@@@@8 DD 00H	; CDynamicPool<CGraphicTextInstance>::`RTTI Class Hierarchy Descriptor'
	DD	00H
	DD	01H
	DD	FLAT:??_R2?$CDynamicPool@VCGraphicTextInstance@@@@8
rdata$r	ENDS
;	COMDAT ??_R0?AVCPythonEventManager@@@8
data$rs	SEGMENT
??_R0?AVCPythonEventManager@@@8 DD FLAT:??_7type_info@@6B@ ; CPythonEventManager `RTTI Type Descriptor'
	DD	00H
	DB	'.?AVCPythonEventManager@@', 00H
data$rs	ENDS
;	COMDAT ??_R3CPythonEventManager@@8
rdata$r	SEGMENT
??_R3CPythonEventManager@@8 DD 00H			; CPythonEventManager::`RTTI Class Hierarchy Descriptor'
	DD	00H
	DD	02H
	DD	FLAT:??_R2CPythonEventManager@@8
rdata$r	ENDS
;	COMDAT ??_R0?AV?$CSingleton@VCPythonEventManager@@@@@8
data$rs	SEGMENT
??_R0?AV?$CSingleton@VCPythonEventManager@@@@@8 DD FLAT:??_7type_info@@6B@ ; CSingleton<CPythonEventManager> `RTTI Type Descriptor'
	DD	00H
	DB	'.?AV?$CSingleton@VCPythonEventManager@@@@', 00H
data$rs	ENDS
;	COMDAT ??_R3?$CSingleton@VCPythonEventManager@@@@8
rdata$r	SEGMENT
??_R3?$CSingleton@VCPythonEventManager@@@@8 DD 00H	; CSingleton<CPythonEventManager>::`RTTI Class Hierarchy Descriptor'
	DD	00H
	DD	01H
	DD	FLAT:??_R2?$CSingleton@VCPythonEventManager@@@@8
rdata$r	ENDS
;	COMDAT ??_R0?AUSEventSet@CPythonEventManager@@@8
data$rs	SEGMENT
??_R0?AUSEventSet@CPythonEventManager@@@8 DD FLAT:??_7type_info@@6B@ ; CPythonEventManager::SEventSet `RTTI Type Descriptor'
	DD	00H
	DB	'.?AUSEventSet@CPythonEventManager@@', 00H
data$rs	ENDS
;	COMDAT ??_R3SEventSet@CPythonEventManager@@8
rdata$r	SEGMENT
??_R3SEventSet@CPythonEventManager@@8 DD 00H		; CPythonEventManager::SEventSet::`RTTI Class Hierarchy Descriptor'
	DD	00H
	DD	01H
	DD	FLAT:??_R2SEventSet@CPythonEventManager@@8
rdata$r	ENDS
;	COMDAT ??_R0?AV?$CDynamicPool@USEventSet@CPythonEventManager@@@@@8
data$rs	SEGMENT
??_R0?AV?$CDynamicPool@USEventSet@CPythonEventManager@@@@@8 DD FLAT:??_7type_info@@6B@ ; CDynamicPool<CPythonEventManager::SEventSet> `RTTI Type Descriptor'
	DD	00H
	DB	'.?AV?$CDynamicPool@USEventSet@CPythonEventManager@@@@', 00H
data$rs	ENDS
;	COMDAT ??_R3?$CDynamicPool@USEventSet@CPythonEventManager@@@@8
rdata$r	SEGMENT
??_R3?$CDynamicPool@USEventSet@CPythonEventManager@@@@8 DD 00H ; CDynamicPool<CPythonEventManager::SEventSet>::`RTTI Class Hierarchy Descriptor'
	DD	00H
	DD	01H
	DD	FLAT:??_R2?$CDynamicPool@USEventSet@CPythonEventManager@@@@8
rdata$r	ENDS
;	COMDAT ??_R1A@?0A@EA@?$CDynamicPool@VCGraphicTextInstance@@@@8
rdata$r	SEGMENT
??_R1A@?0A@EA@?$CDynamicPool@VCGraphicTextInstance@@@@8 DD FLAT:??_R0?AV?$CDynamicPool@VCGraphicTextInstance@@@@@8 ; CDynamicPool<CGraphicTextInstance>::`RTTI Base Class Descriptor at (0,-1,0,64)'
	DD	00H
	DD	00H
	DD	0ffffffffH
	DD	00H
	DD	040H
	DD	FLAT:??_R3?$CDynamicPool@VCGraphicTextInstance@@@@8
rdata$r	ENDS
;	COMDAT ??_R1A@?0A@EA@?$CSingleton@VCPythonEventManager@@@@8
rdata$r	SEGMENT
??_R1A@?0A@EA@?$CSingleton@VCPythonEventManager@@@@8 DD FLAT:??_R0?AV?$CSingleton@VCPythonEventManager@@@@@8 ; CSingleton<CPythonEventManager>::`RTTI Base Class Descriptor at (0,-1,0,64)'
	DD	00H
	DD	00H
	DD	0ffffffffH
	DD	00H
	DD	040H
	DD	FLAT:??_R3?$CSingleton@VCPythonEventManager@@@@8
rdata$r	ENDS
;	COMDAT ??_R1A@?0A@EA@CPythonEventManager@@8
rdata$r	SEGMENT
??_R1A@?0A@EA@CPythonEventManager@@8 DD FLAT:??_R0?AVCPythonEventManager@@@8 ; CPythonEventManager::`RTTI Base Class Descriptor at (0,-1,0,64)'
	DD	01H
	DD	00H
	DD	0ffffffffH
	DD	00H
	DD	040H
	DD	FLAT:??_R3CPythonEventManager@@8
rdata$r	ENDS
;	COMDAT ??_R1A@?0A@EA@SEventSet@CPythonEventManager@@8
rdata$r	SEGMENT
??_R1A@?0A@EA@SEventSet@CPythonEventManager@@8 DD FLAT:??_R0?AUSEventSet@CPythonEventManager@@@8 ; CPythonEventManager::SEventSet::`RTTI Base Class Descriptor at (0,-1,0,64)'
	DD	00H
	DD	00H
	DD	0ffffffffH
	DD	00H
	DD	040H
	DD	FLAT:??_R3SEventSet@CPythonEventManager@@8
rdata$r	ENDS
;	COMDAT ??_R1A@?0A@EA@?$CDynamicPool@USEventSet@CPythonEventManager@@@@8
rdata$r	SEGMENT
??_R1A@?0A@EA@?$CDynamicPool@USEventSet@CPythonEventManager@@@@8 DD FLAT:??_R0?AV?$CDynamicPool@USEventSet@CPythonEventManager@@@@@8 ; CDynamicPool<CPythonEventManager::SEventSet>::`RTTI Base Class Descriptor at (0,-1,0,64)'
	DD	00H
	DD	00H
	DD	0ffffffffH
	DD	00H
	DD	040H
	DD	FLAT:??_R3?$CDynamicPool@USEventSet@CPythonEventManager@@@@8
rdata$r	ENDS
;	COMDAT ??_R2?$CDynamicPool@VCGraphicTextInstance@@@@8
rdata$r	SEGMENT
??_R2?$CDynamicPool@VCGraphicTextInstance@@@@8 DD FLAT:??_R1A@?0A@EA@?$CDynamicPool@VCGraphicTextInstance@@@@8 ; CDynamicPool<CGraphicTextInstance>::`RTTI Base Class Array'
rdata$r	ENDS
;	COMDAT ??_R2?$CSingleton@VCPythonEventManager@@@@8
rdata$r	SEGMENT
??_R2?$CSingleton@VCPythonEventManager@@@@8 DD FLAT:??_R1A@?0A@EA@?$CSingleton@VCPythonEventManager@@@@8 ; CSingleton<CPythonEventManager>::`RTTI Base Class Array'
rdata$r	ENDS
;	COMDAT ??_R2CPythonEventManager@@8
rdata$r	SEGMENT
??_R2CPythonEventManager@@8 DD FLAT:??_R1A@?0A@EA@CPythonEventManager@@8 ; CPythonEventManager::`RTTI Base Class Array'
	DD	FLAT:??_R1A@?0A@EA@?$CSingleton@VCPythonEventManager@@@@8
rdata$r	ENDS
;	COMDAT ??_R2SEventSet@CPythonEventManager@@8
rdata$r	SEGMENT
??_R2SEventSet@CPythonEventManager@@8 DD FLAT:??_R1A@?0A@EA@SEventSet@CPythonEventManager@@8 ; CPythonEventManager::SEventSet::`RTTI Base Class Array'
rdata$r	ENDS
;	COMDAT ??_R2?$CDynamicPool@USEventSet@CPythonEventManager@@@@8
rdata$r	SEGMENT
??_R2?$CDynamicPool@USEventSet@CPythonEventManager@@@@8 DD FLAT:??_R1A@?0A@EA@?$CDynamicPool@USEventSet@CPythonEventManager@@@@8 ; CDynamicPool<CPythonEventManager::SEventSet>::`RTTI Base Class Array'
rdata$r	ENDS
;	COMDAT ??_C@_0M@NHAJMLIB@SELECT_ITEM@
CONST	SEGMENT
??_C@_0M@NHAJMLIB@SELECT_ITEM@ DB 'SELECT_ITEM', 00H	; `string'
CONST	ENDS
;	COMDAT ??_C@_0N@IBBMOEIC@INSERT_IMAGE@
CONST	SEGMENT
??_C@_0N@IBBMOEIC@INSERT_IMAGE@ DB 'INSERT_IMAGE', 00H	; `string'
CONST	ENDS
;	COMDAT ??_C@_0BB@EAAHJLBE@END_CONFIRM_WAIT@
CONST	SEGMENT
??_C@_0BB@EAAHJLBE@END_CONFIRM_WAIT@ DB 'END_CONFIRM_WAIT', 00H ; `string'
CONST	ENDS
;	COMDAT ??_C@_0N@BAJAMEHH@CONFIRM_WAIT@
CONST	SEGMENT
??_C@_0N@BAJAMEHH@CONFIRM_WAIT@ DB 'CONFIRM_WAIT', 00H	; `string'
CONST	ENDS
;	COMDAT ??_C@_05POAEJIHJ@INPUT@
CONST	SEGMENT
??_C@_05POAEJIHJ@INPUT@ DB 'INPUT', 00H			; `string'
CONST	ENDS
;	COMDAT ??_C@_0M@PMFMMHLB@WINDOW_SIZE@
CONST	SEGMENT
??_C@_0M@PMFMMHLB@WINDOW_SIZE@ DB 'WINDOW_SIZE', 00H	; `string'
CONST	ENDS
;	COMDAT ??_C@_08MALMLJOJ@COLOR256@
CONST	SEGMENT
??_C@_08MALMLJOJ@COLOR256@ DB 'COLOR256', 00H		; `string'
CONST	ENDS
;	COMDAT ??_C@_03OEMEHHJ@MOB@
CONST	SEGMENT
??_C@_03OEMEHHJ@MOB@ DB 'MOB', 00H			; `string'
CONST	ENDS
;	COMDAT ??_C@_04BLNHNEEM@ITEM@
CONST	SEGMENT
??_C@_04BLNHNEEM@ITEM@ DB 'ITEM', 00H			; `string'
CONST	ENDS
;	COMDAT ??_C@_0P@FFIDJBND@DUNGEON_RESULT@
CONST	SEGMENT
??_C@_0P@FFIDJBND@DUNGEON_RESULT@ DB 'DUNGEON_RESULT', 00H ; `string'
CONST	ENDS
;	COMDAT ??_C@_0L@PGFMEELF@RUN_CINEMA@
CONST	SEGMENT
??_C@_0L@PGFMEELF@RUN_CINEMA@ DB 'RUN_CINEMA', 00H	; `string'
CONST	ENDS
;	COMDAT ??_C@_0M@HJKMCEHO@TITLE_IMAGE@
CONST	SEGMENT
??_C@_0M@HJKMCEHO@TITLE_IMAGE@ DB 'TITLE_IMAGE', 00H	; `string'
CONST	ENDS
;	COMDAT ??_C@_0BN@MHHHIBEN@TEXT_HORIZONTAL_ALIGN_CENTER@
CONST	SEGMENT
??_C@_0BN@MHHHIBEN@TEXT_HORIZONTAL_ALIGN_CENTER@ DB 'TEXT_HORIZONTAL_ALIG'
	DB	'N_CENTER', 00H				; `string'
CONST	ENDS
;	COMDAT ??_C@_0L@LKNFDGAI@CLEAR_TEXT@
CONST	SEGMENT
??_C@_0L@LKNFDGAI@CLEAR_TEXT@ DB 'CLEAR_TEXT', 00H	; `string'
CONST	ENDS
;	COMDAT ??_C@_08KBPNHIPE@WHITE_IN@
CONST	SEGMENT
??_C@_08KBPNHIPE@WHITE_IN@ DB 'WHITE_IN', 00H		; `string'
CONST	ENDS
;	COMDAT ??_C@_09FBLOEAGA@WHITE_OUT@
CONST	SEGMENT
??_C@_09FBLOEAGA@WHITE_OUT@ DB 'WHITE_OUT', 00H		; `string'
CONST	ENDS
;	COMDAT ??_C@_07BBFGMBEC@FADE_IN@
CONST	SEGMENT
??_C@_07BBFGMBEC@FADE_IN@ DB 'FADE_IN', 00H		; `string'
CONST	ENDS
;	COMDAT ??_C@_08HDAMPNGA@FADE_OUT@
CONST	SEGMENT
??_C@_08HDAMPNGA@FADE_OUT@ DB 'FADE_OUT', 00H		; `string'
CONST	ENDS
;	COMDAT ??_C@_0P@JLFCBANF@RESTORE_CAMERA@
CONST	SEGMENT
??_C@_0P@JLFCBANF@RESTORE_CAMERA@ DB 'RESTORE_CAMERA', 00H ; `string'
CONST	ENDS
;	COMDAT ??_C@_0N@LDDFAHD@BLEND_CAMERA@
CONST	SEGMENT
??_C@_0N@LDDFAHD@BLEND_CAMERA@ DB 'BLEND_CAMERA', 00H	; `string'
CONST	ENDS
;	COMDAT ??_C@_0L@JFBLMOIC@SET_CAMERA@
CONST	SEGMENT
??_C@_0L@JFBLMOIC@SET_CAMERA@ DB 'SET_CAMERA', 00H	; `string'
CONST	ENDS
;	COMDAT ??_C@_05DJAECLDN@SLEEP@
CONST	SEGMENT
??_C@_05DJAECLDN@SLEEP@ DB 'SLEEP', 00H			; `string'
CONST	ENDS
;	COMDAT ??_C@_0BC@HFDJPBHI@QUESTBUTTON_CLOSE@
CONST	SEGMENT
??_C@_0BC@HFDJPBHI@QUESTBUTTON_CLOSE@ DB 'QUESTBUTTON_CLOSE', 00H ; `string'
CONST	ENDS
;	COMDAT ??_C@_0M@NLCKLGGC@QUESTBUTTON@
CONST	SEGMENT
??_C@_0M@NLCKLGGC@QUESTBUTTON@ DB 'QUESTBUTTON', 00H	; `string'
CONST	ENDS
;	COMDAT ??_C@_0L@HNINCFNF@SETCMAPPOS@
CONST	SEGMENT
??_C@_0L@HNINCFNF@SETCMAPPOS@ DB 'SETCMAPPOS', 00H	; `string'
CONST	ENDS
;	COMDAT ??_C@_09DCGGFGEI@ADJMSGPOS@
CONST	SEGMENT
??_C@_09DCGGFGEI@ADJMSGPOS@ DB 'ADJMSGPOS', 00H		; `string'
CONST	ENDS
;	COMDAT ??_C@_09GPHHDAMH@SETMSGPOS@
CONST	SEGMENT
??_C@_09GPHHDAMH@SETMSGPOS@ DB 'SETMSGPOS', 00H		; `string'
CONST	ENDS
;	COMDAT ??_C@_0P@MCDNLKLH@CLEARMAPSIGNAL@
CONST	SEGMENT
??_C@_0P@MCDNLKLH@CLEARMAPSIGNAL@ DB 'CLEARMAPSIGNAL', 00H ; `string'
CONST	ENDS
;	COMDAT ??_C@_0N@LEAJJLAE@ADDMAPSIGNAL@
CONST	SEGMENT
??_C@_0N@LEAJJLAE@ADDMAPSIGNAL@ DB 'ADDMAPSIGNAL', 00H	; `string'
CONST	ENDS
;	COMDAT ??_C@_05BNHKIGFN@IMAGE@
CONST	SEGMENT
??_C@_05BNHKIGFN@IMAGE@ DB 'IMAGE', 00H			; `string'
CONST	ENDS
;	COMDAT ??_C@_07CDIOHGPA@BGIMAGE@
CONST	SEGMENT
??_C@_07CDIOHGPA@BGIMAGE@ DB 'BGIMAGE', 00H		; `string'
CONST	ENDS
;	COMDAT ??_C@_08LGGHBKNM@TOPIMAGE@
CONST	SEGMENT
??_C@_08LGGHBKNM@TOPIMAGE@ DB 'TOPIMAGE', 00H		; `string'
CONST	ENDS
;	COMDAT ??_C@_09GHNJOICA@LEFTIMAGE@
CONST	SEGMENT
??_C@_09GHNJOICA@LEFTIMAGE@ DB 'LEFTIMAGE', 00H		; `string'
CONST	ENDS
;	COMDAT ??_C@_04KANDKFIK@DONE@
CONST	SEGMENT
??_C@_04KANDKFIK@DONE@ DB 'DONE', 00H			; `string'
CONST	ENDS
;	COMDAT ??_C@_04MOKMKBJN@NEXT@
CONST	SEGMENT
??_C@_04MOKMKBJN@NEXT@ DB 'NEXT', 00H			; `string'
CONST	ENDS
;	COMDAT ??_C@_08MDIDLFIL@QUESTION@
CONST	SEGMENT
??_C@_08MDIDLFIL@QUESTION@ DB 'QUESTION', 00H		; `string'
CONST	ENDS
;	COMDAT ??_C@_05PONODPI@CLEAR@
CONST	SEGMENT
??_C@_05PONODPI@CLEAR@ DB 'CLEAR', 00H			; `string'
CONST	ENDS
;	COMDAT ??_C@_04DBNKAKHO@WAIT@
CONST	SEGMENT
??_C@_04DBNKAKHO@WAIT@ DB 'WAIT', 00H			; `string'
CONST	ENDS
;	COMDAT ??_C@_05EMNIMLKD@ENTER@
CONST	SEGMENT
??_C@_05EMNIMLKD@ENTER@ DB 'ENTER', 00H			; `string'
CONST	ENDS
;	COMDAT ??_C@_05IBAECHHA@DELAY@
CONST	SEGMENT
??_C@_05IBAECHHA@DELAY@ DB 'DELAY', 00H			; `string'
CONST	ENDS
;	COMDAT ??_C@_05DPNLPLKI@COLOR@
CONST	SEGMENT
??_C@_05DPNLPLKI@COLOR@ DB 'COLOR', 00H			; `string'
CONST	ENDS
;	COMDAT ??_C@_06MJINCFFA@LETTER@
CONST	SEGMENT
??_C@_06MJINCFFA@LETTER@ DB 'LETTER', 00H		; `string'
CONST	ENDS
;	COMDAT ??_C@_0BB@GNKEGEMJ@?$LD?$LC?$MA?$LK?5?$LN?C?$LA?$KD?5?3?5?$CFd?C?J@
CONST	SEGMENT
??_C@_0BB@GNKEGEMJ@?$LD?$LC?$MA?$LK?5?$LN?C?$LA?$KD?5?3?5?$CFd?C?J@ DB 0b3H
	DB	0b2H, 0c0H, 0baH, ' ', 0bdH, 0c3H, 0b0H, 0a3H, ' : %d', 0c3H, 0caH
	DB	00H						; `string'
CONST	ENDS
;	COMDAT ??_C@_0CK@JOIMEHF@?5?$CB?$CB?5PARSING?5ERROR?5?9?5Strange?5Com@
CONST	SEGMENT
??_C@_0CK@JOIMEHF@?5?$CB?$CB?5PARSING?5ERROR?5?9?5Strange?5Com@ DB ' !! P'
	DB	'ARSING ERROR - Strange Command : %s', 0aH, 00H ; `string'
CONST	ENDS
;	COMDAT ??_C@_0DD@ENOBDFJN@CPythonEventManager?3?3InsertLine@
CONST	SEGMENT
??_C@_0DD@ENOBDFJN@CPythonEventManager?3?3InsertLine@ DB 'CPythonEventMan'
	DB	'ager::InsertLine - OUT_OF_TEXT_LINE', 00H	; `string'
CONST	ENDS
;	COMDAT ??_C@_0DL@PFMMJDKG@CPythonEventManager?3?3InsertLine@
CONST	SEGMENT
??_C@_0DL@PFMMJDKG@CPythonEventManager?3?3InsertLine@ DB 'CPythonEventMan'
	DB	'ager::InsertLine - CANNOT_FIND_DEFAULT_FONT', 00H ; `string'
CONST	ENDS
;	COMDAT ??_C@_0P@EGMAHDDO@AppendQuestion@
CONST	SEGMENT
??_C@_0P@EGMAHDDO@AppendQuestion@ DB 'AppendQuestion', 00H ; `string'
CONST	ENDS
;	COMDAT ??_C@_04LCKGAMBB@?$CIsi?$CJ@
CONST	SEGMENT
??_C@_04LCKGAMBB@?$CIsi?$CJ@ DB '(si)', 00H		; `string'
CONST	ENDS
;	COMDAT ??_C@_0N@NKMOFENJ@MakeQuestion@
CONST	SEGMENT
??_C@_0N@NKMOFENJ@MakeQuestion@ DB 'MakeQuestion', 00H	; `string'
CONST	ENDS
;	COMDAT ??_C@_0P@FONAKFHL@MakeNextButton@
CONST	SEGMENT
??_C@_0P@FONAKFHL@MakeNextButton@ DB 'MakeNextButton', 00H ; `string'
CONST	ENDS
;	COMDAT ??_C@_0BM@GFGEFDCO@BINARY_OpenSelectItemWindow@
CONST	SEGMENT
??_C@_0BM@GFGEFDCO@BINARY_OpenSelectItemWindow@ DB 'BINARY_OpenSelectItem'
	DB	'Window', 00H				; `string'
CONST	ENDS
;	COMDAT ??_C@_09FOPMPDJN@CloseSelf@
CONST	SEGMENT
??_C@_09FOPMPDJN@CloseSelf@ DB 'CloseSelf', 00H		; `string'
CONST	ENDS
;	COMDAT ??_C@_07DDHNKDGP@timeout@
CONST	SEGMENT
??_C@_07DDHNKDGP@timeout@ DB 'timeout', 00H		; `string'
CONST	ENDS
;	COMDAT ??_C@_07MNOKODDC@OnInput@
CONST	SEGMENT
??_C@_07MNOKODDC@OnInput@ DB 'OnInput', 00H		; `string'
CONST	ENDS
;	COMDAT ??_C@_06JKFPDEMN@OnSize@
CONST	SEGMENT
??_C@_06JKFPDEMN@OnSize@ DB 'OnSize', 00H		; `string'
CONST	ENDS
;	COMDAT ??_C@_06LNLHEAAG@height@
CONST	SEGMENT
??_C@_06LNLHEAAG@height@ DB 'height', 00H		; `string'
CONST	ENDS
;	COMDAT ??_C@_05IGKADHGO@width@
CONST	SEGMENT
??_C@_05IGKADHGO@width@ DB 'width', 00H			; `string'
CONST	ENDS
;	COMDAT ??_C@_0BC@GLAGHMFL@ShowDungeonResult@
CONST	SEGMENT
??_C@_0BC@GLAGHMFL@ShowDungeonResult@ DB 'ShowDungeonResult', 00H ; `string'
CONST	ENDS
;	COMDAT ??_C@_0M@EDIBAKKL@?$CIiiiiiiiii?$CJ@
CONST	SEGMENT
??_C@_0M@EDIBAKKL@?$CIiiiiiiiii?$CJ@ DB '(iiiiiiiii)', 00H ; `string'
CONST	ENDS
;	COMDAT ??_C@_09HPFMCAOO@bonus_exp@
CONST	SEGMENT
??_C@_09HPFMCAOO@bonus_exp@ DB 'bonus_exp', 00H		; `string'
CONST	ENDS
;	COMDAT ??_C@_0L@OIFGKHMH@total_time@
CONST	SEGMENT
??_C@_0L@OIFGKHMH@total_time@ DB 'total_time', 00H	; `string'
CONST	ENDS
;	COMDAT ??_C@_0L@CEFFAPEL@killallmob@
CONST	SEGMENT
??_C@_0L@CEFFAPEL@killallmob@ DB 'killallmob', 00H	; `string'
CONST	ENDS
;	COMDAT ??_C@_0L@HAAPAAPF@is_revived@
CONST	SEGMENT
??_C@_0L@HAAPAAPF@is_revived@ DB 'is_revived', 00H	; `string'
CONST	ENDS
;	COMDAT ??_C@_0L@HLMCPCKO@use_potion@
CONST	SEGMENT
??_C@_0L@HLMCPCKO@use_potion@ DB 'use_potion', 00H	; `string'
CONST	ENDS
;	COMDAT ??_C@_0N@MAFIFFGH@hidden_total@
CONST	SEGMENT
??_C@_0N@MAFIFFGH@hidden_total@ DB 'hidden_total', 00H	; `string'
CONST	ENDS
;	COMDAT ??_C@_0M@NAENPPOP@find_hidden@
CONST	SEGMENT
??_C@_0M@NAENPPOP@find_hidden@ DB 'find_hidden', 00H	; `string'
CONST	ENDS
;	COMDAT ??_C@_0O@DDDIKPAP@killmob_count@
CONST	SEGMENT
??_C@_0O@DDDIKPAP@killmob_count@ DB 'killmob_count', 00H ; `string'
CONST	ENDS
;	COMDAT ??_C@_0BA@FCPOOKJM@killstone_count@
CONST	SEGMENT
??_C@_0BA@FCPOOKJM@killstone_count@ DB 'killstone_count', 00H ; `string'
CONST	ENDS
;	COMDAT ??_C@_0N@CCHILNPP@OnTitleImage@
CONST	SEGMENT
??_C@_0N@CCHILNPP@OnTitleImage@ DB 'OnTitleImage', 00H	; `string'
CONST	ENDS
;	COMDAT ??_C@_07NGADDHAB@WhiteIn@
CONST	SEGMENT
??_C@_07NGADDHAB@WhiteIn@ DB 'WhiteIn', 00H		; `string'
CONST	ENDS
;	COMDAT ??_C@_08JJKJMBO@WhiteOut@
CONST	SEGMENT
??_C@_08JJKJMBO@WhiteOut@ DB 'WhiteOut', 00H		; `string'
CONST	ENDS
;	COMDAT ??_C@_06GCJPJKOH@FadeIn@
CONST	SEGMENT
??_C@_06GCJPJKOH@FadeIn@ DB 'FadeIn', 00H		; `string'
CONST	ENDS
;	COMDAT ??_C@_07EAEHEHPO@FadeOut@
CONST	SEGMENT
??_C@_07EAEHEHPO@FadeOut@ DB 'FadeOut', 00H		; `string'
CONST	ENDS
;	COMDAT ??_C@_03LDCBIPEL@?$CIf?$CJ@
CONST	SEGMENT
??_C@_03LDCBIPEL@?$CIf?$CJ@ DB '(f)', 00H		; `string'
CONST	ENDS
;	COMDAT ??_C@_05HJCMGBKF@speed@
CONST	SEGMENT
??_C@_05HJCMGBKF@speed@ DB 'speed', 00H			; `string'
CONST	ENDS
;	COMDAT ??_C@_09LBCONMEI@blendtime@
CONST	SEGMENT
??_C@_09LBCONMEI@blendtime@ DB 'blendtime', 00H		; `string'
CONST	ENDS
;	COMDAT ??_C@_09IBEAJOHJ@RecvQuest@
CONST	SEGMENT
??_C@_09IBEAJOHJ@RecvQuest@ DB 'RecvQuest', 00H		; `string'
CONST	ENDS
;	COMDAT ??_C@_04JMLDJNEM@?$CIis?$CJ@
CONST	SEGMENT
??_C@_04JMLDJNEM@?$CIis?$CJ@ DB '(is)', 00H		; `string'
CONST	ENDS
;	COMDAT ??_C@_0BB@JCGLEGP@BINARY_RecvQuest@
CONST	SEGMENT
??_C@_0BB@JCGLEGP@BINARY_RecvQuest@ DB 'BINARY_RecvQuest', 00H ; `string'
CONST	ENDS
;	COMDAT ??_C@_06GEDDNFGH@?$CIisss?$CJ@
CONST	SEGMENT
??_C@_06GEDDNFGH@?$CIisss?$CJ@ DB '(isss)', 00H		; `string'
CONST	ENDS
;	COMDAT ??_C@_09MIAHMBP@highlight@
CONST	SEGMENT
??_C@_09MIAHMBP@highlight@ DB 'highlight', 00H		; `string'
CONST	ENDS
;	COMDAT ??_C@_0BD@MDDAOGBD@?A?$LG?$LA?$KC?$LD?$KN?5?$LP?k?H?$KF?$LM?$KO?$DP?4?4?4?4@
CONST	SEGMENT
??_C@_0BD@MDDAOGBD@?A?$LG?$LA?$KC?$LD?$KN?5?$LP?k?H?$KF?$LM?$KO?$DP?4?4?4?4@ DB 0c1H
	DB	0b6H, 0b0H, 0a2H, 0b3H, 0adH, ' ', 0bfH, 0ebH, 0c8H, 0a5H, 0bcH
	DB	0aeH, '?....', 00H				; `string'
CONST	ENDS
;	COMDAT ??_C@_04MEMAJGDJ@name@
CONST	SEGMENT
??_C@_04MEMAJGDJ@name@ DB 'name', 00H			; `string'
CONST	ENDS
;	COMDAT ??_C@_09IGOOKEAE@icon_name@
CONST	SEGMENT
??_C@_09IGOOKEAE@icon_name@ DB 'icon_name', 00H		; `string'
CONST	ENDS
;	COMDAT ??_C@_09CNONGEHE@icon_type@
CONST	SEGMENT
??_C@_09CNONGEHE@icon_type@ DB 'icon_type', 00H		; `string'
CONST	ENDS
;	COMDAT ??_C@_0BC@HCOLHKJD@BINARY_ClearQuest@
CONST	SEGMENT
??_C@_0BC@HCOLHKJD@BINARY_ClearQuest@ DB 'BINARY_ClearQuest', 00H ; `string'
CONST	ENDS
;	COMDAT ??_C@_0O@LBIBFC@OnInsertImage@
CONST	SEGMENT
??_C@_0O@LBIBFC@OnInsertImage@ DB 'OnInsertImage', 00H	; `string'
CONST	ENDS
;	COMDAT ??_C@_08KJCKKFJC@?$CIssssii?$CJ@
CONST	SEGMENT
??_C@_08KJCKKFJC@?$CIssssii?$CJ@ DB '(ssssii)', 00H	; `string'
CONST	ENDS
;	COMDAT ??_C@_0BB@FCLBKNGH@OnInsertItemIcon@
CONST	SEGMENT
??_C@_0BB@FCLBKNGH@OnInsertItemIcon@ DB 'OnInsertItemIcon', 00H ; `string'
CONST	ENDS
;	COMDAT ??_C@_08GKIEGGBC@?$CIsissii?$CJ@
CONST	SEGMENT
??_C@_08GKIEGGBC@?$CIsissii?$CJ@ DB '(sissii)', 00H	; `string'
CONST	ENDS
;	COMDAT ??_C@_03DAKNAIGI@idx@
CONST	SEGMENT
??_C@_03DAKNAIGI@idx@ DB 'idx', 00H			; `string'
CONST	ENDS
;	COMDAT ??_C@_0L@HIIGNCOA@image_type@
CONST	SEGMENT
??_C@_0L@HIIGNCOA@image_type@ DB 'image_type', 00H	; `string'
CONST	ENDS
;	COMDAT ??_C@_05KBOMEDGA@total@
CONST	SEGMENT
??_C@_05KBOMEDGA@total@ DB 'total', 00H			; `string'
CONST	ENDS
;	COMDAT ??_C@_05FKHKFDID@index@
CONST	SEGMENT
??_C@_05FKHKFDID@index@ DB 'index', 00H			; `string'
CONST	ENDS
;	COMDAT ??_C@_04EBPADADD@desc@
CONST	SEGMENT
??_C@_04EBPADADD@desc@ DB 'desc', 00H			; `string'
CONST	ENDS
;	COMDAT ??_C@_05PHLGJONK@title@
CONST	SEGMENT
??_C@_05PHLGJONK@title@ DB 'title', 00H			; `string'
CONST	ENDS
;	COMDAT ??_C@_0L@NDIFBCJA@image_name@
CONST	SEGMENT
??_C@_0L@NDIFBCJA@image_name@ DB 'image_name', 00H	; `string'
CONST	ENDS
;	COMDAT ??_C@_07COJEPNBG@OnImage@
CONST	SEGMENT
??_C@_07COJEPNBG@OnImage@ DB 'OnImage', 00H		; `string'
CONST	ENDS
;	COMDAT ??_C@_05GFDPDNFA@?$CIiis?$CJ@
CONST	SEGMENT
??_C@_05GFDPDNFA@?$CIiis?$CJ@ DB '(iis)', 00H		; `string'
CONST	ENDS
;	COMDAT ??_C@_0BC@OIPDJOGL@OnBackgroundImage@
CONST	SEGMENT
??_C@_0BC@OIPDJOGL@OnBackgroundImage@ DB 'OnBackgroundImage', 00H ; `string'
CONST	ENDS
;	COMDAT ??_C@_0L@ELIGNPMG@OnTopImage@
CONST	SEGMENT
??_C@_0L@ELIGNPMG@OnTopImage@ DB 'OnTopImage', 00H	; `string'
CONST	ENDS
;	COMDAT ??_C@_0M@MHNDOIJH@OnLeftImage@
CONST	SEGMENT
??_C@_0M@MHNDOIJH@OnLeftImage@ DB 'OnLeftImage', 00H	; `string'
CONST	ENDS
;	COMDAT ??_C@_03LOJEKLML@src@
CONST	SEGMENT
??_C@_03LOJEKLML@src@ DB 'src', 00H			; `string'
CONST	ENDS
;	COMDAT ??_C@_09DIPEHMLE@DoneEvent@
CONST	SEGMENT
??_C@_09DIPEHMLE@DoneEvent@ DB 'DoneEvent', 00H		; `string'
CONST	ENDS
;	COMDAT ??_C@_01JEJKBAGA@g@
CONST	SEGMENT
??_C@_01JEJKBAGA@g@ DB 'g', 00H				; `string'
CONST	ENDS
;	COMDAT ??_C@_0EH@KHNDFHCA@CPythonEventManager?3?3SetEventHa@
CONST	SEGMENT
??_C@_0EH@KHNDFHCA@CPythonEventManager?3?3SetEventHa@ DB 'CPythonEventMan'
	DB	'ager::SetEventHandler m_EventSetVector[iIndex=%d]==NULL', 00H ; `string'
CONST	ENDS
;	COMDAT ??_C@_0EK@NAEFMGNK@CPythonEventManager?3?3SetRestric@
CONST	SEGMENT
??_C@_0EK@NAEFMGNK@CPythonEventManager?3?3SetRestric@ DB 'CPythonEventMan'
	DB	'ager::SetRestrictedCount m_EventSetVector[iIndex=%d]==NULL', 00H ; `string'
CONST	ENDS
;	COMDAT ??_C@_05MFEJDJP@value@
CONST	SEGMENT
??_C@_05MFEJDJP@value@ DB 'value', 00H			; `string'
CONST	ENDS
;	COMDAT ??_C@_05NCNFOFLM@pitch@
CONST	SEGMENT
??_C@_05NCNFOFLM@pitch@ DB 'pitch', 00H			; `string'
CONST	ENDS
;	COMDAT ??_C@_03BHFFHIBL@rot@
CONST	SEGMENT
??_C@_03BHFFHIBL@rot@ DB 'rot', 00H			; `string'
CONST	ENDS
;	COMDAT ??_C@_08LHFODBFO@distance@
CONST	SEGMENT
??_C@_08LHFODBFO@distance@ DB 'distance', 00H		; `string'
CONST	ENDS
;	COMDAT ??_C@_05HCKPILGO@cross@
CONST	SEGMENT
??_C@_05HCKPILGO@cross@ DB 'cross', 00H			; `string'
CONST	ENDS
;	COMDAT ??_C@_04CHADEDPO@view@
CONST	SEGMENT
??_C@_04CHADEDPO@view@ DB 'view', 00H			; `string'
CONST	ENDS
;	COMDAT ??_C@_02HNLLPFKA@up@
CONST	SEGMENT
??_C@_02HNLLPFKA@up@ DB 'up', 00H			; `string'
CONST	ENDS
;	COMDAT ??_C@_01GLPGHMHM@z@
CONST	SEGMENT
??_C@_01GLPGHMHM@z@ DB 'z', 00H				; `string'
PUBLIC	?append@?$basic_string@DU?$char_traits@D@std@@V?$allocator@D@2@@std@@QAEAAV12@ABV12@@Z ; std::basic_string<char,std::char_traits<char>,std::allocator<char> >::append
PUBLIC	??$construct_at@PAVCGraphicTextInstance@@PAV1@@std@@YAPAPAVCGraphicTextInstance@@QAPAV1@$$QAPAV1@@Z ; std::construct_at<CGraphicTextInstance *,CGraphicTextInstance *>
PUBLIC	??$move@AAV?$tuple@$$QAV?$basic_string@DU?$char_traits@D@std@@V?$allocator@D@2@@std@@@std@@@std@@YA$$QAV?$tuple@$$QAV?$basic_string@DU?$char_traits@D@std@@V?$allocator@D@2@@std@@@0@AAV10@@Z ; std::move<std::tuple<std::basic_string<char,std::char_traits<char>,std::allocator<char> > &&> &>
PUBLIC	?_Get_first@?$_Compressed_pair@V?$allocator@PAVCGraphicTextInstance@@@std@@V?$_Vector_val@U?$_Simple_types@PAVCGraphicTextInstance@@@std@@@2@$00@std@@QBEABV?$allocator@PAVCGraphicTextInstance@@@2@XZ ; std::_Compressed_pair<std::allocator<CGraphicTextInstance *>,std::_Vector_val<std::_Simple_types<CGraphicTextInstance *> >,1>::_Get_first
PUBLIC	??$construct@PAVCGraphicTextInstance@@PAV1@@?$_Default_allocator_traits@V?$allocator@PAVCGraphicTextInstance@@@std@@@std@@SAXAAV?$allocator@PAVCGraphicTextInstance@@@1@QAPAVCGraphicTextInstance@@$$QAPAV3@@Z ; std::_Default_allocator_traits<std::allocator<CGraphicTextInstance *> >::construct<CGraphicTextInstance *,CGraphicTextInstance *>
PUBLIC	??$forward@PAVCGraphicTextInstance@@@std@@YA$$QAPAVCGraphicTextInstance@@AAPAV1@@Z ; std::forward<CGraphicTextInstance *>
PUBLIC	??$_Copy_memmove_tail@PAPAVCGraphicTextInstance@@@std@@YAPAPAVCGraphicTextInstance@@QBDQAPAV1@II@Z ; std::_Copy_memmove_tail<CGraphicTextInstance * *>
PUBLIC	??$move@AAPAPAVCGraphicTextInstance@@@std@@YA$$QAPAPAVCGraphicTextInstance@@AAPAPAV1@@Z ; std::move<CGraphicTextInstance * * &>
PUBLIC	??$to_address@PAVCGraphicTextInstance@@@std@@YAPAPAVCGraphicTextInstance@@QAPAV1@@Z ; std::to_address<CGraphicTextInstance *>
PUBLIC	??$_Tuple_get@$0A@$$QAV?$basic_string@DU?$char_traits@D@std@@V?$allocator@D@2@@std@@@std@@YA$$QA_P$$QAV?$tuple@$$QAV?$basic_string@DU?$char_traits@D@std@@V?$allocator@D@2@@std@@@0@@Z ; std::_Tuple_get<0,std::basic_string<char,std::char_traits<char>,std::allocator<char> > &&>
PUBLIC	??$?0V?$tuple@$$QAV?$basic_string@DU?$char_traits@D@std@@V?$allocator@D@2@@std@@@std@@V?$tuple@$$V@1@$0A@$$Z$S@?$pair@$$CBV?$basic_string@DU?$char_traits@D@std@@V?$allocator@D@2@@std@@H@std@@AAE@AAV?$tuple@$$QAV?$basic_string@DU?$char_traits@D@std@@V?$allocator@D@2@@std@@@1@AAV?$tuple@$$V@1@U?$integer_sequence@I$0A@@1@U?$integer_sequence@I$S@1@@Z ; std::pair<std::basic_string<char,std::char_traits<char>,std::allocator<char> > const ,int>::pair<std::basic_string<char,std::char_traits<char>,std::allocator<char> > const ,int><std::tuple<std::basic_string<char,std::char_traits<char>,std::allocator<char> > &&>,std::tuple<>,0>
PUBLIC	??_GSArgumet@script@@QAEPAXI@Z			; script::SArgumet::`scalar deleting destructor'
PUBLIC	?_Get_first@?$_Compressed_pair@V?$allocator@U?$_Tree_node@U?$pair@$$CBV?$basic_string@DU?$char_traits@D@std@@V?$allocator@D@2@@std@@H@std@@PAX@std@@@std@@V?$_Tree_val@U?$_Tree_simple_types@U?$pair@$$CBV?$basic_string@DU?$char_traits@D@std@@V?$allocator@D@2@@std@@H@std@@@std@@@2@$00@std@@QBEABV?$allocator@U?$_Tree_node@U?$pair@$$CBV?$basic_string@DU?$char_traits@D@std@@V?$allocator@D@2@@std@@H@std@@PAX@std@@@2@XZ ; std::_Compressed_pair<std::allocator<std::_Tree_node<std::pair<std::basic_string<char,std::char_traits<char>,std::allocator<char> > const ,int>,void *> >,std::_Tree_val<std::_Tree_simple_types<std::pair<std::basic_string<char,std::char_traits<char>,std::allocator<char> > const ,int> > >,1>::_Get_first
PUBLIC	?_Get_first@?$_Compressed_pair@V?$allocator@PAUSEventSet@CPythonEventManager@@@std@@V?$_Vector_val@U?$_Simple_types@PAUSEventSet@CPythonEventManager@@@std@@@2@$00@std@@QBEABV?$allocator@PAUSEventSet@CPythonEventManager@@@2@XZ ; std::_Compressed_pair<std::allocator<CPythonEventManager::SEventSet *>,std::_Vector_val<std::_Simple_types<CPythonEventManager::SEventSet *> >,1>::_Get_first
PUBLIC	?allocate@?$allocator@PAVCGraphicTextInstance@@@std@@QAEPAPAVCGraphicTextInstance@@I@Z ; std::allocator<CGraphicTextInstance *>::allocate
PUBLIC	?capacity@?$vector@PAVCGraphicTextInstance@@V?$allocator@PAVCGraphicTextInstance@@@std@@@std@@QBEIXZ ; std::vector<CGraphicTextInstance *,std::allocator<CGraphicTextInstance *> >::capacity
PUBLIC	?_Getal@?$vector@PAVCGraphicTextInstance@@V?$allocator@PAVCGraphicTextInstance@@@std@@@std@@ABEABV?$allocator@PAVCGraphicTextInstance@@@2@XZ ; std::vector<CGraphicTextInstance *,std::allocator<CGraphicTextInstance *> >::_Getal
PUBLIC	?max_size@?$_Default_allocator_traits@V?$allocator@PAVCGraphicTextInstance@@@std@@@std@@SAIABV?$allocator@PAVCGraphicTextInstance@@@2@@Z ; std::_Default_allocator_traits<std::allocator<CGraphicTextInstance *> >::max_size
PUBLIC	??0?$_Uninitialized_backout_al@V?$allocator@PAVCGraphicTextInstance@@@std@@@std@@QAE@PAPAVCGraphicTextInstance@@AAV?$allocator@PAVCGraphicTextInstance@@@1@@Z ; std::_Uninitialized_backout_al<std::allocator<CGraphicTextInstance *> >::_Uninitialized_backout_al<std::allocator<CGraphicTextInstance *> >
PUBLIC	??1?$_Uninitialized_backout_al@V?$allocator@PAVCGraphicTextInstance@@@std@@@std@@QAE@XZ ; std::_Uninitialized_backout_al<std::allocator<CGraphicTextInstance *> >::~_Uninitialized_backout_al<std::allocator<CGraphicTextInstance *> >
PUBLIC	?_Release@?$_Uninitialized_backout_al@V?$allocator@PAVCGraphicTextInstance@@@std@@@std@@QAEPAPAVCGraphicTextInstance@@XZ ; std::_Uninitialized_backout_al<std::allocator<CGraphicTextInstance *> >::_Release
PUBLIC	??$construct_at@PAU?$_Tree_node@U?$pair@$$CBV?$basic_string@DU?$char_traits@D@std@@V?$allocator@D@2@@std@@H@std@@PAX@std@@ABQAU12@@std@@YAPAPAU?$_Tree_node@U?$pair@$$CBV?$basic_string@DU?$char_traits@D@std@@V?$allocator@D@2@@std@@H@std@@PAX@0@QAPAU10@ABQAU10@@Z ; std::construct_at<std::_Tree_node<std::pair<std::basic_string<char,std::char_traits<char>,std::allocator<char> > const ,int>,void *> *,std::_Tree_node<std::pair<std::basic_string<char,std::char_traits<char>,std::allocator<char> > const ,int>,void *> * const &>
PUBLIC	??1SArgumet@script@@QAE@XZ			; script::SArgumet::~SArgumet
PUBLIC	??$destroy_at@USArgumet@script@@@std@@YAXQAUSArgumet@script@@@Z ; std::destroy_at<script::SArgumet>
PUBLIC	??$construct_at@PAUSEventSet@CPythonEventManager@@ABQAU12@@std@@YAPAPAUSEventSet@CPythonEventManager@@QAPAU12@ABQAU12@@Z ; std::construct_at<CPythonEventManager::SEventSet *,CPythonEventManager::SEventSet * const &>
PUBLIC	??$_Emplace_back@PAVCGraphicTextInstance@@@?$_Uninitialized_backout_al@V?$allocator@PAVCGraphicTextInstance@@@std@@@std@@QAEX$$QAPAVCGraphicTextInstance@@@Z ; std::_Uninitialized_backout_al<std::allocator<CGraphicTextInstance *> >::_Emplace_back<CGraphicTextInstance *>
PUBLIC	??$_To_address@PAPAVCGraphicTextInstance@@@std@@YA?A_PABQAPAVCGraphicTextInstance@@@Z ; std::_To_address<CGraphicTextInstance * *>
PUBLIC	??$_Copy_memmove@PAPAVCGraphicTextInstance@@PAPAV1@@std@@YAPAPAVCGraphicTextInstance@@PAPAV1@00@Z ; std::_Copy_memmove<CGraphicTextInstance * *,CGraphicTextInstance * *>
PUBLIC	??$move@AAPAVCGraphicTextInstance@@@std@@YA$$QAPAVCGraphicTextInstance@@AAPAV1@@Z ; std::move<CGraphicTextInstance * &>
PUBLIC	??$construct_at@PAVCGraphicTextInstance@@ABQAV1@@std@@YAPAPAVCGraphicTextInstance@@QAPAV1@ABQAV1@@Z ; std::construct_at<CGraphicTextInstance *,CGraphicTextInstance * const &>
PUBLIC	??$addressof@PAVCGraphicTextInstance@@@std@@YAPAPAVCGraphicTextInstance@@AAPAV1@@Z ; std::addressof<CGraphicTextInstance *>
PUBLIC	??$?0V?$basic_string@DU?$char_traits@D@std@@V?$allocator@D@2@@std@@@?$_Tuple_val@$$QAV?$basic_string@DU?$char_traits@D@std@@V?$allocator@D@2@@std@@@std@@QAE@$$QAV?$basic_string@DU?$char_traits@D@std@@V?$allocator@D@2@@1@@Z ; std::_Tuple_val<std::basic_string<char,std::char_traits<char>,std::allocator<char> > &&>::_Tuple_val<std::basic_string<char,std::char_traits<char>,std::allocator<char> > &&><std::basic_string<char,std::char_traits<char>,std::allocator<char> > >
PUBLIC	??$_Copy_memmove_tail@PAPAUSEventSet@CPythonEventManager@@@std@@YAPAPAUSEventSet@CPythonEventManager@@QBDQAPAU12@II@Z ; std::_Copy_memmove_tail<CPythonEventManager::SEventSet * *>
PUBLIC	??$move@AAPAPAUSEventSet@CPythonEventManager@@@std@@YA$$QAPAPAUSEventSet@CPythonEventManager@@AAPAPAU12@@Z ; std::move<CPythonEventManager::SEventSet * * &>
PUBLIC	??$to_address@PAUSEventSet@CPythonEventManager@@@std@@YAPAPAUSEventSet@CPythonEventManager@@QAPAU12@@Z ; std::to_address<CPythonEventManager::SEventSet *>
PUBLIC	??$?0$$QAV?$basic_string@DU?$char_traits@D@std@@V?$allocator@D@2@@std@@$$Z$$V@?$pair@$$CBV?$basic_string@DU?$char_traits@D@std@@V?$allocator@D@2@@std@@H@std@@QAE@Upiecewise_construct_t@1@V?$tuple@$$QAV?$basic_string@DU?$char_traits@D@std@@V?$allocator@D@2@@std@@@1@V?$tuple@$$V@1@@Z ; std::pair<std::basic_string<char,std::char_traits<char>,std::allocator<char> > const ,int>::pair<std::basic_string<char,std::char_traits<char>,std::allocator<char> > const ,int><std::basic_string<char,std::char_traits<char>,std::allocator<char> > &&>
PUBLIC	??_G?$pair@$$CBV?$basic_string@DU?$char_traits@D@std@@V?$allocator@D@2@@std@@H@std@@QAEPAXI@Z ; std::pair<std::basic_string<char,std::char_traits<char>,std::allocator<char> > const ,int>::`scalar deleting destructor'
PUBLIC	??0?$tuple@$$QAV?$basic_string@DU?$char_traits@D@std@@V?$allocator@D@2@@std@@@std@@QAE@$$QAV01@@Z ; std::tuple<std::basic_string<char,std::char_traits<char>,std::allocator<char> > &&>::tuple<std::basic_string<char,std::char_traits<char>,std::allocator<char> > &&>
PUBLIC	?deallocate@?$allocator@U?$_List_node@USArgumet@script@@PAX@std@@@std@@QAEXQAU?$_List_node@USArgumet@script@@PAX@2@I@Z ; std::allocator<std::_List_node<script::SArgumet,void *> >::deallocate
PUBLIC	?_Getal@?$_Tree@V?$_Tmap_traits@V?$basic_string@DU?$char_traits@D@std@@V?$allocator@D@2@@std@@HU?$less@V?$basic_string@DU?$char_traits@D@std@@V?$allocator@D@2@@std@@@2@V?$allocator@U?$pair@$$CBV?$basic_string@DU?$char_traits@D@std@@V?$allocator@D@2@@std@@H@std@@@2@$0A@@std@@@std@@IBEABV?$allocator@U?$_Tree_node@U?$pair@$$CBV?$basic_string@DU?$char_traits@D@std@@V?$allocator@D@2@@std@@H@std@@PAX@std@@@2@XZ ; std::_Tree<std::_Tmap_traits<std::basic_string<char,std::char_traits<char>,std::allocator<char> >,int,std::less<std::basic_string<char,std::char_traits<char>,std::allocator<char> > >,std::allocator<std::pair<std::basic_string<char,std::char_traits<char>,std::allocator<char> > const ,int> >,0> >::_Getal
PUBLIC	??0?$allocator@U?$_Tree_node@U?$pair@$$CBV?$basic_string@DU?$char_traits@D@std@@V?$allocator@D@2@@std@@H@std@@PAX@std@@@std@@QAE@XZ ; std::allocator<std::_Tree_node<std::pair<std::basic_string<char,std::char_traits<char>,std::allocator<char> > const ,int>,void *> >::allocator<std::_Tree_node<std::pair<std::basic_string<char,std::char_traits<char>,std::allocator<char> > const ,int>,void *> >
PUBLIC	?deallocate@?$allocator@U?$_Tree_node@U?$pair@$$CBV?$basic_string@DU?$char_traits@D@std@@V?$allocator@D@2@@std@@H@std@@PAX@std@@@std@@QAEXQAU?$_Tree_node@U?$pair@$$CBV?$basic_string@DU?$char_traits@D@std@@V?$allocator@D@2@@std@@H@std@@PAX@2@I@Z ; std::allocator<std::_Tree_node<std::pair<std::basic_string<char,std::char_traits<char>,std::allocator<char> > const ,int>,void *> >::deallocate
PUBLIC	?allocate@?$allocator@U?$_Tree_node@U?$pair@$$CBV?$basic_string@DU?$char_traits@D@std@@V?$allocator@D@2@@std@@H@std@@PAX@std@@@std@@QAEPAU?$_Tree_node@U?$pair@$$CBV?$basic_string@DU?$char_traits@D@std@@V?$allocator@D@2@@std@@H@std@@PAX@2@I@Z ; std::allocator<std::_Tree_node<std::pair<std::basic_string<char,std::char_traits<char>,std::allocator<char> > const ,int>,void *> >::allocate
PUBLIC	?max_size@?$_Default_allocator_traits@V?$allocator@U?$_Tree_node@U?$pair@$$CBV?$basic_string@DU?$char_traits@D@std@@V?$allocator@D@2@@std@@H@std@@PAX@std@@@std@@@std@@SAIABV?$allocator@U?$_Tree_node@U?$pair@$$CBV?$basic_string@DU?$char_traits@D@std@@V?$allocator@D@2@@std@@H@std@@PAX@std@@@2@@Z ; std::_Default_allocator_traits<std::allocator<std::_Tree_node<std::pair<std::basic_string<char,std::char_traits<char>,std::allocator<char> > const ,int>,void *> > >::max_size
PUBLIC	??0?$_Tree_val@U?$_Tree_simple_types@U?$pair@$$CBV?$basic_string@DU?$char_traits@D@std@@V?$allocator@D@2@@std@@H@std@@@std@@@std@@QAE@XZ ; std::_Tree_val<std::_Tree_simple_types<std::pair<std::basic_string<char,std::char_traits<char>,std::allocator<char> > const ,int> > >::_Tree_val<std::_Tree_simple_types<std::pair<std::basic_string<char,std::char_traits<char>,std::allocator<char> > const ,int> > >
PUBLIC	?_Get_first@?$_Compressed_pair@U?$less@V?$basic_string@DU?$char_traits@D@std@@V?$allocator@D@2@@std@@@std@@V?$_Compressed_pair@V?$allocator@U?$_Tree_node@U?$pair@$$CBV?$basic_string@DU?$char_traits@D@std@@V?$allocator@D@2@@std@@H@std@@PAX@std@@@std@@V?$_Tree_val@U?$_Tree_simple_types@U?$pair@$$CBV?$basic_string@DU?$char_traits@D@std@@V?$allocator@D@2@@std@@H@std@@@std@@@2@$00@2@$00@std@@QBEABU?$less@V?$basic_string@DU?$char_traits@D@std@@V?$allocator@D@2@@std@@@2@XZ ; std::_Compressed_pair<std::less<std::basic_string<char,std::char_traits<char>,std::allocator<char> > >,std::_Compressed_pair<std::allocator<std::_Tree_node<std::pair<std::basic_string<char,std::char_traits<char>,std::allocator<char> > const ,int>,void *> >,std::_Tree_val<std::_Tree_simple_types<std::pair<std::basic_string<char,std::char_traits<char>,std::allocator<char> > const ,int> > >,1>,1>::_Get_first
PUBLIC	?deallocate@?$allocator@U?$_List_node@USTextLine@CPythonEventManager@@PAX@std@@@std@@QAEXQAU?$_List_node@USTextLine@CPythonEventManager@@PAX@2@I@Z ; std::allocator<std::_List_node<CPythonEventManager::STextLine,void *> >::deallocate
PUBLIC	?_Get_first@?$_Compressed_pair@V?$allocator@U?$_List_node@USTextLine@CPythonEventManager@@PAX@std@@@std@@V?$_List_val@U?$_List_simple_types@USTextLine@CPythonEventManager@@@std@@@2@$00@std@@QBEABV?$allocator@U?$_List_node@USTextLine@CPythonEventManager@@PAX@std@@@2@XZ ; std::_Compressed_pair<std::allocator<std::_List_node<CPythonEventManager::STextLine,void *> >,std::_List_val<std::_List_simple_types<CPythonEventManager::STextLine> >,1>::_Get_first
PUBLIC	?allocate@?$allocator@PAUSEventSet@CPythonEventManager@@@std@@QAEPAPAUSEventSet@CPythonEventManager@@I@Z ; std::allocator<CPythonEventManager::SEventSet *>::allocate
PUBLIC	?capacity@?$vector@PAUSEventSet@CPythonEventManager@@V?$allocator@PAUSEventSet@CPythonEventManager@@@std@@@std@@QBEIXZ ; std::vector<CPythonEventManager::SEventSet *,std::allocator<CPythonEventManager::SEventSet *> >::capacity
PUBLIC	?_Getal@?$vector@PAUSEventSet@CPythonEventManager@@V?$allocator@PAUSEventSet@CPythonEventManager@@@std@@@std@@ABEABV?$allocator@PAUSEventSet@CPythonEventManager@@@2@XZ ; std::vector<CPythonEventManager::SEventSet *,std::allocator<CPythonEventManager::SEventSet *> >::_Getal
PUBLIC	?max_size@?$_Default_allocator_traits@V?$allocator@PAUSEventSet@CPythonEventManager@@@std@@@std@@SAIABV?$allocator@PAUSEventSet@CPythonEventManager@@@2@@Z ; std::_Default_allocator_traits<std::allocator<CPythonEventManager::SEventSet *> >::max_size
PUBLIC	?max_size@?$vector@PAVCGraphicTextInstance@@V?$allocator@PAVCGraphicTextInstance@@@std@@@std@@QBEIXZ ; std::vector<CGraphicTextInstance *,std::allocator<CGraphicTextInstance *> >::max_size
PUBLIC	?_Calculate_growth@?$vector@PAVCGraphicTextInstance@@V?$allocator@PAVCGraphicTextInstance@@@std@@@std@@ABEII@Z ; std::vector<CGraphicTextInstance *,std::allocator<CGraphicTextInstance *> >::_Calculate_growth
PUBLIC	?_Change_array@?$vector@PAVCGraphicTextInstance@@V?$allocator@PAVCGraphicTextInstance@@@std@@@std@@AAEXQAPAVCGraphicTextInstance@@II@Z ; std::vector<CGraphicTextInstance *,std::allocator<CGraphicTextInstance *> >::_Change_array
PUBLIC	?_Xlength@?$vector@PAVCGraphicTextInstance@@V?$allocator@PAVCGraphicTextInstance@@@std@@@std@@CAXXZ ; std::vector<CGraphicTextInstance *,std::allocator<CGraphicTextInstance *> >::_Xlength
PUBLIC	??1_Reallocation_guard@?$vector@PAVCGraphicTextInstance@@V?$allocator@PAVCGraphicTextInstance@@@std@@@std@@QAE@XZ ; std::vector<CGraphicTextInstance *,std::allocator<CGraphicTextInstance *> >::_Reallocation_guard::~_Reallocation_guard
PUBLIC	??0?$_Alloc_construct_ptr@V?$allocator@U?$_Tree_node@U?$pair@$$CBV?$basic_string@DU?$char_traits@D@std@@V?$allocator@D@2@@std@@H@std@@PAX@std@@@std@@@std@@QAE@AAV?$allocator@U?$_Tree_node@U?$pair@$$CBV?$basic_string@DU?$char_traits@D@std@@V?$allocator@D@2@@std@@H@std@@PAX@std@@@1@@Z ; std::_Alloc_construct_ptr<std::allocator<std::_Tree_node<std::pair<std::basic_string<char,std::char_traits<char>,std::allocator<char> > const ,int>,void *> > >::_Alloc_construct_ptr<std::allocator<std::_Tree_node<std::pair<std::basic_string<char,std::char_traits<char>,std::allocator<char> > const ,int>,void *> > >
PUBLIC	?_Allocate@?$_Alloc_construct_ptr@V?$allocator@U?$_Tree_node@U?$pair@$$CBV?$basic_string@DU?$char_traits@D@std@@V?$allocator@D@2@@std@@H@std@@PAX@std@@@std@@@std@@QAEXXZ ; std::_Alloc_construct_ptr<std::allocator<std::_Tree_node<std::pair<std::basic_string<char,std::char_traits<char>,std::allocator<char> > const ,int>,void *> > >::_Allocate
PUBLIC	??0?$_Uninitialized_backout_al@V?$allocator@PAUSEventSet@CPythonEventManager@@@std@@@std@@QAE@PAPAUSEventSet@CPythonEventManager@@AAV?$allocator@PAUSEventSet@CPythonEventManager@@@1@@Z ; std::_Uninitialized_backout_al<std::allocator<CPythonEventManager::SEventSet *> >::_Uninitialized_backout_al<std::allocator<CPythonEventManager::SEventSet *> >
PUBLIC	??1?$_Uninitialized_backout_al@V?$allocator@PAUSEventSet@CPythonEventManager@@@std@@@std@@QAE@XZ ; std::_Uninitialized_backout_al<std::allocator<CPythonEventManager::SEventSet *> >::~_Uninitialized_backout_al<std::allocator<CPythonEventManager::SEventSet *> >
PUBLIC	?_Release@?$_Uninitialized_backout_al@V?$allocator@PAUSEventSet@CPythonEventManager@@@std@@@std@@QAEPAPAUSEventSet@CPythonEventManager@@XZ ; std::_Uninitialized_backout_al<std::allocator<CPythonEventManager::SEventSet *> >::_Release
PUBLIC	??$_Construct_in_place@PAU?$_Tree_node@U?$pair@$$CBV?$basic_string@DU?$char_traits@D@std@@V?$allocator@D@2@@std@@H@std@@PAX@std@@ABQAU12@@std@@YAXAAPAU?$_Tree_node@U?$pair@$$CBV?$basic_string@DU?$char_traits@D@std@@V?$allocator@D@2@@std@@H@std@@PAX@0@ABQAU10@@Z ; std::_Construct_in_place<std::_Tree_node<std::pair<std::basic_string<char,std::char_traits<char>,std::allocator<char> > const ,int>,void *> *,std::_Tree_node<std::pair<std::basic_string<char,std::char_traits<char>,std::allocator<char> > const ,int>,void *> * const &>
PUBLIC	??1?$pair@$$CBV?$basic_string@DU?$char_traits@D@std@@V?$allocator@D@2@@std@@H@std@@QAE@XZ ; std::pair<std::basic_string<char,std::char_traits<char>,std::allocator<char> > const ,int>::~pair<std::basic_string<char,std::char_traits<char>,std::allocator<char> > const ,int>
PUBLIC	??$destroy_at@U?$pair@$$CBV?$basic_string@DU?$char_traits@D@std@@V?$allocator@D@2@@std@@H@std@@@std@@YAXQAU?$pair@$$CBV?$basic_string@DU?$char_traits@D@std@@V?$allocator@D@2@@std@@H@0@@Z ; std::destroy_at<std::pair<std::basic_string<char,std::char_traits<char>,std::allocator<char> > const ,int> >
PUBLIC	??$construct_at@PAU?$_List_node@USTextLine@CPythonEventManager@@PAX@std@@ABQAU12@@std@@YAPAPAU?$_List_node@USTextLine@CPythonEventManager@@PAX@0@QAPAU10@ABQAU10@@Z ; std::construct_at<std::_List_node<CPythonEventManager::STextLine,void *> *,std::_List_node<CPythonEventManager::STextLine,void *> * const &>
PUBLIC	??$forward@ABQAU?$_List_node@USTextLine@CPythonEventManager@@PAX@std@@@std@@YAABQAU?$_List_node@USTextLine@CPythonEventManager@@PAX@0@ABQAU10@@Z ; std::forward<std::_List_node<CPythonEventManager::STextLine,void *> * const &>
PUBLIC	??$destroy@USArgumet@script@@@?$_Default_allocator_traits@V?$allocator@U?$_List_node@USArgumet@script@@PAX@std@@@std@@@std@@SAXAAV?$allocator@U?$_List_node@USArgumet@script@@PAX@std@@@1@QAUSArgumet@script@@@Z ; std::_Default_allocator_traits<std::allocator<std::_List_node<script::SArgumet,void *> > >::destroy<script::SArgumet>
PUBLIC	??$construct@PAUSEventSet@CPythonEventManager@@ABQAU12@@?$_Default_allocator_traits@V?$allocator@PAUSEventSet@CPythonEventManager@@@std@@@std@@SAXAAV?$allocator@PAUSEventSet@CPythonEventManager@@@1@QAPAUSEventSet@CPythonEventManager@@ABQAU34@@Z ; std::_Default_allocator_traits<std::allocator<CPythonEventManager::SEventSet *> >::construct<CPythonEventManager::SEventSet *,CPythonEventManager::SEventSet * const &>
PUBLIC	??$_Construct_in_place@PAUSEventSet@CPythonEventManager@@ABQAU12@@std@@YAXAAPAUSEventSet@CPythonEventManager@@ABQAU12@@Z ; std::_Construct_in_place<CPythonEventManager::SEventSet *,CPythonEventManager::SEventSet * const &>
PUBLIC	??$_Uninitialized_move@PAPAVCGraphicTextInstance@@V?$allocator@PAVCGraphicTextInstance@@@std@@@std@@YAPAPAVCGraphicTextInstance@@QAPAV1@0PAPAV1@AAV?$allocator@PAVCGraphicTextInstance@@@0@@Z ; std::_Uninitialized_move<CGraphicTextInstance * *,std::allocator<CGraphicTextInstance *> >
PUBLIC	??$_Get_unwrapped@ABQAPAVCGraphicTextInstance@@@std@@YA?A_TABQAPAVCGraphicTextInstance@@@Z ; std::_Get_unwrapped<CGraphicTextInstance * * const &>
PUBLIC	??$construct@PAVCGraphicTextInstance@@ABQAV1@@?$_Default_allocator_traits@V?$allocator@PAVCGraphicTextInstance@@@std@@@std@@SAXAAV?$allocator@PAVCGraphicTextInstance@@@1@QAPAVCGraphicTextInstance@@ABQAV3@@Z ; std::_Default_allocator_traits<std::allocator<CGraphicTextInstance *> >::construct<CGraphicTextInstance *,CGraphicTextInstance * const &>
PUBLIC	??$_Allocate_at_least_helper@V?$allocator@PAVCGraphicTextInstance@@@std@@@std@@YAPAPAVCGraphicTextInstance@@AAV?$allocator@PAVCGraphicTextInstance@@@0@AAI@Z ; std::_Allocate_at_least_helper<std::allocator<CGraphicTextInstance *> >
PUBLIC	??$_Construct_in_place@PAVCGraphicTextInstance@@ABQAV1@@std@@YAXAAPAVCGraphicTextInstance@@ABQAV1@@Z ; std::_Construct_in_place<CGraphicTextInstance *,CGraphicTextInstance * const &>
PUBLIC	??$addressof@USArgumet@script@@@std@@YAPAUSArgumet@script@@AAU12@@Z ; std::addressof<script::SArgumet>
PUBLIC	??$construct_at@USTextLine@CPythonEventManager@@ABU12@@std@@YAPAUSTextLine@CPythonEventManager@@QAU12@ABU12@@Z ; std::construct_at<CPythonEventManager::STextLine,CPythonEventManager::STextLine const &>
PUBLIC	??$destroy_at@USTextLine@CPythonEventManager@@@std@@YAXQAUSTextLine@CPythonEventManager@@@Z ; std::destroy_at<CPythonEventManager::STextLine>
PUBLIC	??$construct_at@PAU?$_Tree_node@U?$pair@$$CBV?$basic_string@DU?$char_traits@D@std@@V?$allocator@D@2@@std@@H@std@@PAX@std@@AAPAU12@@std@@YAPAPAU?$_Tree_node@U?$pair@$$CBV?$basic_string@DU?$char_traits@D@std@@V?$allocator@D@2@@std@@H@std@@PAX@0@QAPAU10@AAPAU10@@Z ; std::construct_at<std::_Tree_node<std::pair<std::basic_string<char,std::char_traits<char>,std::allocator<char> > const ,int>,void *> *,std::_Tree_node<std::pair<std::basic_string<char,std::char_traits<char>,std::allocator<char> > const ,int>,void *> * &>
PUBLIC	??$forward@AAPAU?$_Tree_node@U?$pair@$$CBV?$basic_string@DU?$char_traits@D@std@@V?$allocator@D@2@@std@@H@std@@PAX@std@@@std@@YAAAPAU?$_Tree_node@U?$pair@$$CBV?$basic_string@DU?$char_traits@D@std@@V?$allocator@D@2@@std@@H@std@@PAX@0@AAPAU10@@Z ; std::forward<std::_Tree_node<std::pair<std::basic_string<char,std::char_traits<char>,std::allocator<char> > const ,int>,void *> * &>
PUBLIC	??$addressof@PAU?$_Tree_node@U?$pair@$$CBV?$basic_string@DU?$char_traits@D@std@@V?$allocator@D@2@@std@@H@std@@PAX@std@@@std@@YAPAPAU?$_Tree_node@U?$pair@$$CBV?$basic_string@DU?$char_traits@D@std@@V?$allocator@D@2@@std@@H@std@@PAX@0@AAPAU10@@Z ; std::addressof<std::_Tree_node<std::pair<std::basic_string<char,std::char_traits<char>,std::allocator<char> > const ,int>,void *> *>
PUBLIC	??$construct_at@U?$pair@$$CBV?$basic_string@DU?$char_traits@D@std@@V?$allocator@D@2@@std@@H@std@@ABUpiecewise_construct_t@2@V?$tuple@$$QAV?$basic_string@DU?$char_traits@D@std@@V?$allocator@D@2@@std@@@2@V?$tuple@$$V@2@@std@@YAPAU?$pair@$$CBV?$basic_string@DU?$char_traits@D@std@@V?$allocator@D@2@@std@@H@0@QAU10@ABUpiecewise_construct_t@0@$$QAV?$tuple@$$QAV?$basic_string@DU?$char_traits@D@std@@V?$allocator@D@2@@std@@@0@$$QAV?$tuple@$$V@0@@Z ; std::construct_at<std::pair<std::basic_string<char,std::char_traits<char>,std::allocator<char> > const ,int>,std::piecewise_construct_t const &,std::tuple<std::basic_string<char,std::char_traits<char>,std::allocator<char> > &&>,std::tuple<> >
PUBLIC	??$?0U_Exact_args_t@std@@V?$basic_string@DU?$char_traits@D@std@@V?$allocator@D@2@@1@$$V$0A@@?$tuple@$$QAV?$basic_string@DU?$char_traits@D@std@@V?$allocator@D@2@@std@@@std@@QAE@U_Exact_args_t@1@$$QAV?$basic_string@DU?$char_traits@D@std@@V?$allocator@D@2@@1@@Z ; std::tuple<std::basic_string<char,std::char_traits<char>,std::allocator<char> > &&>::tuple<std::basic_string<char,std::char_traits<char>,std::allocator<char> > &&><std::_Exact_args_t,std::basic_string<char,std::char_traits<char>,std::allocator<char> >,0>
PUBLIC	??$_Emplace_back@PAUSEventSet@CPythonEventManager@@@?$_Uninitialized_backout_al@V?$allocator@PAUSEventSet@CPythonEventManager@@@std@@@std@@QAEX$$QAPAUSEventSet@CPythonEventManager@@@Z ; std::_Uninitialized_backout_al<std::allocator<CPythonEventManager::SEventSet *> >::_Emplace_back<CPythonEventManager::SEventSet *>
PUBLIC	??$_To_address@PAPAUSEventSet@CPythonEventManager@@@std@@YA?A_PABQAPAUSEventSet@CPythonEventManager@@@Z ; std::_To_address<CPythonEventManager::SEventSet * *>
PUBLIC	??$_Copy_memmove@PAPAUSEventSet@CPythonEventManager@@PAPAU12@@std@@YAPAPAUSEventSet@CPythonEventManager@@PAPAU12@00@Z ; std::_Copy_memmove<CPythonEventManager::SEventSet * *,CPythonEventManager::SEventSet * *>
PUBLIC	??$construct_at@PAUSEventSet@CPythonEventManager@@PAU12@@std@@YAPAPAUSEventSet@CPythonEventManager@@QAPAU12@$$QAPAU12@@Z ; std::construct_at<CPythonEventManager::SEventSet *,CPythonEventManager::SEventSet *>
PUBLIC	??$addressof@PAUSEventSet@CPythonEventManager@@@std@@YAPAPAUSEventSet@CPythonEventManager@@AAPAU12@@Z ; std::addressof<CPythonEventManager::SEventSet *>
PUBLIC	?deallocate@?$_Default_allocator_traits@V?$allocator@U?$_List_node@USArgumet@script@@PAX@std@@@std@@@std@@SAXAAV?$allocator@U?$_List_node@USArgumet@script@@PAX@std@@@2@QAU?$_List_node@USArgumet@script@@PAX@2@I@Z ; std::_Default_allocator_traits<std::allocator<std::_List_node<script::SArgumet,void *> > >::deallocate
PUBLIC	?_Getal@?$list@USTextLine@CPythonEventManager@@V?$allocator@USTextLine@CPythonEventManager@@@std@@@std@@ABEABV?$allocator@U?$_List_node@USTextLine@CPythonEventManager@@PAX@std@@@2@XZ ; std::list<CPythonEventManager::STextLine,std::allocator<CPythonEventManager::STextLine> >::_Getal
PUBLIC	?max_size@?$_Tree@V?$_Tmap_traits@V?$basic_string@DU?$char_traits@D@std@@V?$allocator@D@2@@std@@HU?$less@V?$basic_string@DU?$char_traits@D@std@@V?$allocator@D@2@@std@@@2@V?$allocator@U?$pair@$$CBV?$basic_string@DU?$char_traits@D@std@@V?$allocator@D@2@@std@@H@std@@@2@$0A@@std@@@std@@QBEIXZ ; std::_Tree<std::_Tmap_traits<std::basic_string<char,std::char_traits<char>,std::allocator<char> >,int,std::less<std::basic_string<char,std::char_traits<char>,std::allocator<char> > >,std::allocator<std::pair<std::basic_string<char,std::char_traits<char>,std::allocator<char> > const ,int> >,0> >::max_size
PUBLIC	?_Getcomp@?$_Tree@V?$_Tmap_traits@V?$basic_string@DU?$char_traits@D@std@@V?$allocator@D@2@@std@@HU?$less@V?$basic_string@DU?$char_traits@D@std@@V?$allocator@D@2@@std@@@2@V?$allocator@U?$pair@$$CBV?$basic_string@DU?$char_traits@D@std@@V?$allocator@D@2@@std@@H@std@@@2@$0A@@std@@@std@@IBEABU?$less@V?$basic_string@DU?$char_traits@D@std@@V?$allocator@D@2@@std@@@2@XZ ; std::_Tree<std::_Tmap_traits<std::basic_string<char,std::char_traits<char>,std::allocator<char> >,int,std::less<std::basic_string<char,std::char_traits<char>,std::allocator<char> > >,std::allocator<std::pair<std::basic_string<char,std::char_traits<char>,std::allocator<char> > const ,int> >,0> >::_Getcomp
PUBLIC	?deallocate@?$_Default_allocator_traits@V?$allocator@U?$_Tree_node@U?$pair@$$CBV?$basic_string@DU?$char_traits@D@std@@V?$allocator@D@2@@std@@H@std@@PAX@std@@@std@@@std@@SAXAAV?$allocator@U?$_Tree_node@U?$pair@$$CBV?$basic_string@DU?$char_traits@D@std@@V?$allocator@D@2@@std@@H@std@@PAX@std@@@2@QAU?$_Tree_node@U?$pair@$$CBV?$basic_string@DU?$char_traits@D@std@@V?$allocator@D@2@@std@@H@std@@PAX@2@I@Z ; std::_Default_allocator_traits<std::allocator<std::_Tree_node<std::pair<std::basic_string<char,std::char_traits<char>,std::allocator<char> > const ,int>,void *> > >::deallocate
PUBLIC	?_Lrotate@?$_Tree_val@U?$_Tree_simple_types@U?$pair@$$CBV?$basic_string@DU?$char_traits@D@std@@V?$allocator@D@2@@std@@H@std@@@std@@@std@@QAEXPAU?$_Tree_node@U?$pair@$$CBV?$basic_string@DU?$char_traits@D@std@@V?$allocator@D@2@@std@@H@std@@PAX@2@@Z ; std::_Tree_val<std::_Tree_simple_types<std::pair<std::basic_string<char,std::char_traits<char>,std::allocator<char> > const ,int> > >::_Lrotate
PUBLIC	?_Rrotate@?$_Tree_val@U?$_Tree_simple_types@U?$pair@$$CBV?$basic_string@DU?$char_traits@D@std@@V?$allocator@D@2@@std@@H@std@@@std@@@std@@QAEXPAU?$_Tree_node@U?$pair@$$CBV?$basic_string@DU?$char_traits@D@std@@V?$allocator@D@2@@std@@H@std@@PAX@2@@Z ; std::_Tree_val<std::_Tree_simple_types<std::pair<std::basic_string<char,std::char_traits<char>,std::allocator<char> > const ,int> > >::_Rrotate
PUBLIC	?deallocate@?$_Default_allocator_traits@V?$allocator@U?$_List_node@USTextLine@CPythonEventManager@@PAX@std@@@std@@@std@@SAXAAV?$allocator@U?$_List_node@USTextLine@CPythonEventManager@@PAX@std@@@2@QAU?$_List_node@USTextLine@CPythonEventManager@@PAX@2@I@Z ; std::_Default_allocator_traits<std::allocator<std::_List_node<CPythonEventManager::STextLine,void *> > >::deallocate
PUBLIC	?max_size@?$_Default_allocator_traits@V?$allocator@U?$_List_node@USTextLine@CPythonEventManager@@PAX@std@@@std@@@std@@SAIABV?$allocator@U?$_List_node@USTextLine@CPythonEventManager@@PAX@std@@@2@@Z ; std::_Default_allocator_traits<std::allocator<std::_List_node<CPythonEventManager::STextLine,void *> > >::max_size
PUBLIC	?max_size@?$vector@PAUSEventSet@CPythonEventManager@@V?$allocator@PAUSEventSet@CPythonEventManager@@@std@@@std@@QBEIXZ ; std::vector<CPythonEventManager::SEventSet *,std::allocator<CPythonEventManager::SEventSet *> >::max_size
PUBLIC	?_Calculate_growth@?$vector@PAUSEventSet@CPythonEventManager@@V?$allocator@PAUSEventSet@CPythonEventManager@@@std@@@std@@ABEII@Z ; std::vector<CPythonEventManager::SEventSet *,std::allocator<CPythonEventManager::SEventSet *> >::_Calculate_growth
PUBLIC	?_Change_array@?$vector@PAUSEventSet@CPythonEventManager@@V?$allocator@PAUSEventSet@CPythonEventManager@@@std@@@std@@AAEXQAPAUSEventSet@CPythonEventManager@@II@Z ; std::vector<CPythonEventManager::SEventSet *,std::allocator<CPythonEventManager::SEventSet *> >::_Change_array
PUBLIC	?_Xlength@?$vector@PAUSEventSet@CPythonEventManager@@V?$allocator@PAUSEventSet@CPythonEventManager@@@std@@@std@@CAXXZ ; std::vector<CPythonEventManager::SEventSet *,std::allocator<CPythonEventManager::SEventSet *> >::_Xlength
PUBLIC	??1_Reallocation_guard@?$vector@PAUSEventSet@CPythonEventManager@@V?$allocator@PAUSEventSet@CPythonEventManager@@@std@@@std@@QAE@XZ ; std::vector<CPythonEventManager::SEventSet *,std::allocator<CPythonEventManager::SEventSet *> >::_Reallocation_guard::~_Reallocation_guard
PUBLIC	??0?$allocator@PAVCGraphicTextInstance@@@std@@QAE@XZ ; std::allocator<CGraphicTextInstance *>::allocator<CGraphicTextInstance *>
PUBLIC	?deallocate@?$allocator@PAVCGraphicTextInstance@@@std@@QAEXQAPAVCGraphicTextInstance@@I@Z ; std::allocator<CGraphicTextInstance *>::deallocate
PUBLIC	??0?$_Vector_val@U?$_Simple_types@PAVCGraphicTextInstance@@@std@@@std@@QAE@XZ ; std::_Vector_val<std::_Simple_types<CGraphicTextInstance *> >::_Vector_val<std::_Simple_types<CGraphicTextInstance *> >
PUBLIC	?_Get_first@?$_Compressed_pair@V?$allocator@PAVCGraphicTextInstance@@@std@@V?$_Vector_val@U?$_Simple_types@PAVCGraphicTextInstance@@@std@@@2@$00@std@@QAEAAV?$allocator@PAVCGraphicTextInstance@@@2@XZ ; std::_Compressed_pair<std::allocator<CGraphicTextInstance *>,std::_Vector_val<std::_Simple_types<CGraphicTextInstance *> >,1>::_Get_first
PUBLIC	??0?$_Tree_temp_node_alloc@V?$allocator@U?$_Tree_node@U?$pair@$$CBV?$basic_string@DU?$char_traits@D@std@@V?$allocator@D@2@@std@@H@std@@PAX@std@@@std@@@std@@QAE@AAV?$allocator@U?$_Tree_node@U?$pair@$$CBV?$basic_string@DU?$char_traits@D@std@@V?$allocator@D@2@@std@@H@std@@PAX@std@@@1@@Z ; std::_Tree_temp_node_alloc<std::allocator<std::_Tree_node<std::pair<std::basic_string<char,std::char_traits<char>,std::allocator<char> > const ,int>,void *> > >::_Tree_temp_node_alloc<std::allocator<std::_Tree_node<std::pair<std::basic_string<char,std::char_traits<char>,std::allocator<char> > const ,int>,void *> > >
PUBLIC	??1?$_Alloc_construct_ptr@V?$allocator@U?$_Tree_node@U?$pair@$$CBV?$basic_string@DU?$char_traits@D@std@@V?$allocator@D@2@@std@@H@std@@PAX@std@@@std@@@std@@QAE@XZ ; std::_Alloc_construct_ptr<std::allocator<std::_Tree_node<std::pair<std::basic_string<char,std::char_traits<char>,std::allocator<char> > const ,int>,void *> > >::~_Alloc_construct_ptr<std::allocator<std::_Tree_node<std::pair<std::basic_string<char,std::char_traits<char>,std::allocator<char> > const ,int>,void *> > >
PUBLIC	??0?$_Alloc_construct_ptr@V?$allocator@U?$_List_node@USTextLine@CPythonEventManager@@PAX@std@@@std@@@std@@QAE@AAV?$allocator@U?$_List_node@USTextLine@CPythonEventManager@@PAX@std@@@1@@Z ; std::_Alloc_construct_ptr<std::allocator<std::_List_node<CPythonEventManager::STextLine,void *> > >::_Alloc_construct_ptr<std::allocator<std::_List_node<CPythonEventManager::STextLine,void *> > >
PUBLIC	?_Allocate@?$_Alloc_construct_ptr@V?$allocator@U?$_List_node@USTextLine@CPythonEventManager@@PAX@std@@@std@@@std@@QAEXXZ ; std::_Alloc_construct_ptr<std::allocator<std::_List_node<CPythonEventManager::STextLine,void *> > >::_Allocate
PUBLIC	??1?$_Alloc_construct_ptr@V?$allocator@U?$_List_node@USTextLine@CPythonEventManager@@PAX@std@@@std@@@std@@QAE@XZ ; std::_Alloc_construct_ptr<std::allocator<std::_List_node<CPythonEventManager::STextLine,void *> > >::~_Alloc_construct_ptr<std::allocator<std::_List_node<CPythonEventManager::STextLine,void *> > >
PUBLIC	??$_Get_size_of_n@$0DI@@std@@YAII@Z		; std::_Get_size_of_n<56>
PUBLIC	??$_Buyheadnode@V?$allocator@U?$_Tree_node@U?$pair@$$CBV?$basic_string@DU?$char_traits@D@std@@V?$allocator@D@2@@std@@H@std@@PAX@std@@@std@@@?$_Tree_node@U?$pair@$$CBV?$basic_string@DU?$char_traits@D@std@@V?$allocator@D@2@@std@@H@std@@PAX@std@@SAPAU01@AAV?$allocator@U?$_Tree_node@U?$pair@$$CBV?$basic_string@DU?$char_traits@D@std@@V?$allocator@D@2@@std@@H@std@@PAX@std@@@1@@Z ; std::_Tree_node<std::pair<std::basic_string<char,std::char_traits<char>,std::allocator<char> > const ,int>,void *>::_Buyheadnode<std::allocator<std::_Tree_node<std::pair<std::basic_string<char,std::char_traits<char>,std::allocator<char> > const ,int>,void *> > >
PUBLIC	??$addressof@$$CBV?$_Tree_val@U?$_Tree_simple_types@U?$pair@$$CBV?$basic_string@DU?$char_traits@D@std@@V?$allocator@D@2@@std@@H@std@@@std@@@std@@@std@@YAPBV?$_Tree_val@U?$_Tree_simple_types@U?$pair@$$CBV?$basic_string@DU?$char_traits@D@std@@V?$allocator@D@2@@std@@H@std@@@std@@@0@ABV10@@Z ; std::addressof<std::_Tree_val<std::_Tree_simple_types<std::pair<std::basic_string<char,std::char_traits<char>,std::allocator<char> > const ,int> > > const >
PUBLIC	??$_Unfancy_maybe_null@PAUSEventSet@CPythonEventManager@@@std@@YAPAPAUSEventSet@CPythonEventManager@@PAPAU12@@Z ; std::_Unfancy_maybe_null<CPythonEventManager::SEventSet *>
PUBLIC	??$_Unfancy_maybe_null@PAVCGraphicTextInstance@@@std@@YAPAPAVCGraphicTextInstance@@PAPAV1@@Z ; std::_Unfancy_maybe_null<CGraphicTextInstance *>
PUBLIC	??$_Destroy_range@V?$allocator@PAVCGraphicTextInstance@@@std@@@std@@YAXPAPAVCGraphicTextInstance@@QAPAV1@AAV?$allocator@PAVCGraphicTextInstance@@@0@@Z ; std::_Destroy_range<std::allocator<CGraphicTextInstance *> >
PUBLIC	??$destroy@U?$pair@$$CBV?$basic_string@DU?$char_traits@D@std@@V?$allocator@D@2@@std@@H@std@@@?$_Default_allocator_traits@V?$allocator@U?$_Tree_node@U?$pair@$$CBV?$basic_string@DU?$char_traits@D@std@@V?$allocator@D@2@@std@@H@std@@PAX@std@@@std@@@std@@SAXAAV?$allocator@U?$_Tree_node@U?$pair@$$CBV?$basic_string@DU?$char_traits@D@std@@V?$allocator@D@2@@std@@H@std@@PAX@std@@@1@QAU?$pair@$$CBV?$basic_string@DU?$char_traits@D@std@@V?$allocator@D@2@@std@@H@1@@Z ; std::_Default_allocator_traits<std::allocator<std::_Tree_node<std::pair<std::basic_string<char,std::char_traits<char>,std::allocator<char> > const ,int>,void *> > >::destroy<std::pair<std::basic_string<char,std::char_traits<char>,std::allocator<char> > const ,int> >
PUBLIC	??$exchange@PAU?$_Tree_node@U?$pair@$$CBV?$basic_string@DU?$char_traits@D@std@@V?$allocator@D@2@@std@@H@std@@PAX@std@@$$T@std@@YAPAU?$_Tree_node@U?$pair@$$CBV?$basic_string@DU?$char_traits@D@std@@V?$allocator@D@2@@std@@H@std@@PAX@0@AAPAU10@$$QA$$T@Z ; std::exchange<std::_Tree_node<std::pair<std::basic_string<char,std::char_traits<char>,std::allocator<char> > const ,int>,void *> *,std::nullptr_t>
PUBLIC	??$_Construct_in_place@PAU?$_List_node@USTextLine@CPythonEventManager@@PAX@std@@ABQAU12@@std@@YAXAAPAU?$_List_node@USTextLine@CPythonEventManager@@PAX@0@ABQAU10@@Z ; std::_Construct_in_place<std::_List_node<CPythonEventManager::STextLine,void *> *,std::_List_node<CPythonEventManager::STextLine,void *> * const &>
PUBLIC	??$_Destroy_in_place@PAU?$_List_node@USArgumet@script@@PAX@std@@@std@@YAXAAPAU?$_List_node@USArgumet@script@@PAX@0@@Z ; std::_Destroy_in_place<std::_List_node<script::SArgumet,void *> *>
PUBLIC	??$_Freenode@V?$allocator@U?$_List_node@USArgumet@script@@PAX@std@@@std@@@?$_List_node@USArgumet@script@@PAX@std@@SAXAAV?$allocator@U?$_List_node@USArgumet@script@@PAX@std@@@1@PAU01@@Z ; std::_List_node<script::SArgumet,void *>::_Freenode<std::allocator<std::_List_node<script::SArgumet,void *> > >
PUBLIC	??$construct_at@PAU?$_List_node@USArgumet@script@@PAX@std@@AAPAU12@@std@@YAPAPAU?$_List_node@USArgumet@script@@PAX@0@QAPAU10@AAPAU10@@Z ; std::construct_at<std::_List_node<script::SArgumet,void *> *,std::_List_node<script::SArgumet,void *> * &>
PUBLIC	??$forward@AAPAU?$_List_node@USArgumet@script@@PAX@std@@@std@@YAAAPAU?$_List_node@USArgumet@script@@PAX@0@AAPAU10@@Z ; std::forward<std::_List_node<script::SArgumet,void *> * &>
PUBLIC	??$addressof@PAU?$_List_node@USArgumet@script@@PAX@std@@@std@@YAPAPAU?$_List_node@USArgumet@script@@PAX@0@AAPAU10@@Z ; std::addressof<std::_List_node<script::SArgumet,void *> *>
PUBLIC	??$_Destroy_in_place@PAU?$_List_node@USTextLine@CPythonEventManager@@PAX@std@@@std@@YAXAAPAU?$_List_node@USTextLine@CPythonEventManager@@PAX@0@@Z ; std::_Destroy_in_place<std::_List_node<CPythonEventManager::STextLine,void *> *>
PUBLIC	??$construct_at@PAU?$_List_node@USTextLine@CPythonEventManager@@PAX@std@@AAPAU12@@std@@YAPAPAU?$_List_node@USTextLine@CPythonEventManager@@PAX@0@QAPAU10@AAPAU10@@Z ; std::construct_at<std::_List_node<CPythonEventManager::STextLine,void *> *,std::_List_node<CPythonEventManager::STextLine,void *> * &>
PUBLIC	??$forward@AAPAU?$_List_node@USTextLine@CPythonEventManager@@PAX@std@@@std@@YAAAPAU?$_List_node@USTextLine@CPythonEventManager@@PAX@0@AAPAU10@@Z ; std::forward<std::_List_node<CPythonEventManager::STextLine,void *> * &>
PUBLIC	??$addressof@PAU?$_List_node@USTextLine@CPythonEventManager@@PAX@std@@@std@@YAPAPAU?$_List_node@USTextLine@CPythonEventManager@@PAX@0@AAPAU10@@Z ; std::addressof<std::_List_node<CPythonEventManager::STextLine,void *> *>
PUBLIC	??$_Emplace_reallocate@ABQAUSEventSet@CPythonEventManager@@@?$vector@PAUSEventSet@CPythonEventManager@@V?$allocator@PAUSEventSet@CPythonEventManager@@@std@@@std@@AAEPAPAUSEventSet@CPythonEventManager@@QAPAU23@ABQAU23@@Z ; std::vector<CPythonEventManager::SEventSet *,std::allocator<CPythonEventManager::SEventSet *> >::_Emplace_reallocate<CPythonEventManager::SEventSet * const &>
PUBLIC	??$_Emplace_back_with_unused_capacity@ABQAUSEventSet@CPythonEventManager@@@?$vector@PAUSEventSet@CPythonEventManager@@V?$allocator@PAUSEventSet@CPythonEventManager@@@std@@@std@@AAEAAPAUSEventSet@CPythonEventManager@@ABQAU23@@Z ; std::vector<CPythonEventManager::SEventSet *,std::allocator<CPythonEventManager::SEventSet *> >::_Emplace_back_with_unused_capacity<CPythonEventManager::SEventSet * const &>
PUBLIC	??$forward@ABQAUSEventSet@CPythonEventManager@@@std@@YAABQAUSEventSet@CPythonEventManager@@ABQAU12@@Z ; std::forward<CPythonEventManager::SEventSet * const &>
PUBLIC	??$destroy_at@PAUSEventSet@CPythonEventManager@@@std@@YAXQAPAUSEventSet@CPythonEventManager@@@Z ; std::destroy_at<CPythonEventManager::SEventSet *>
PUBLIC	??$_Emplace_reallocate@ABQAVCGraphicTextInstance@@@?$vector@PAVCGraphicTextInstance@@V?$allocator@PAVCGraphicTextInstance@@@std@@@std@@AAEPAPAVCGraphicTextInstance@@QAPAV2@ABQAV2@@Z ; std::vector<CGraphicTextInstance *,std::allocator<CGraphicTextInstance *> >::_Emplace_reallocate<CGraphicTextInstance * const &>
PUBLIC	??$_Emplace_back_with_unused_capacity@ABQAVCGraphicTextInstance@@@?$vector@PAVCGraphicTextInstance@@V?$allocator@PAVCGraphicTextInstance@@@std@@@std@@AAEAAPAVCGraphicTextInstance@@ABQAV2@@Z ; std::vector<CGraphicTextInstance *,std::allocator<CGraphicTextInstance *> >::_Emplace_back_with_unused_capacity<CGraphicTextInstance * const &>
PUBLIC	??$forward@ABQAVCGraphicTextInstance@@@std@@YAABQAVCGraphicTextInstance@@ABQAV1@@Z ; std::forward<CGraphicTextInstance * const &>
PUBLIC	??$destroy_at@PAVCGraphicTextInstance@@@std@@YAXQAPAVCGraphicTextInstance@@@Z ; std::destroy_at<CGraphicTextInstance *>
PUBLIC	??$construct@USTextLine@CPythonEventManager@@ABU12@@?$_Default_allocator_traits@V?$allocator@U?$_List_node@USTextLine@CPythonEventManager@@PAX@std@@@std@@@std@@SAXAAV?$allocator@U?$_List_node@USTextLine@CPythonEventManager@@PAX@std@@@1@QAUSTextLine@CPythonEventManager@@ABU34@@Z ; std::_Default_allocator_traits<std::allocator<std::_List_node<CPythonEventManager::STextLine,void *> > >::construct<CPythonEventManager::STextLine,CPythonEventManager::STextLine const &>
PUBLIC	??$destroy@USTextLine@CPythonEventManager@@@?$_Default_allocator_traits@V?$allocator@U?$_List_node@USTextLine@CPythonEventManager@@PAX@std@@@std@@@std@@SAXAAV?$allocator@U?$_List_node@USTextLine@CPythonEventManager@@PAX@std@@@1@QAUSTextLine@CPythonEventManager@@@Z ; std::_Default_allocator_traits<std::allocator<std::_List_node<CPythonEventManager::STextLine,void *> > >::destroy<CPythonEventManager::STextLine>
PUBLIC	??$addressof@USTextLine@CPythonEventManager@@@std@@YAPAUSTextLine@CPythonEventManager@@AAU12@@Z ; std::addressof<CPythonEventManager::STextLine>
PUBLIC	??$forward@PAU?$_Tree_node@U?$pair@$$CBV?$basic_string@DU?$char_traits@D@std@@V?$allocator@D@2@@std@@H@std@@PAX@std@@@std@@YA$$QAPAU?$_Tree_node@U?$pair@$$CBV?$basic_string@DU?$char_traits@D@std@@V?$allocator@D@2@@std@@H@std@@PAX@0@AAPAU10@@Z ; std::forward<std::_Tree_node<std::pair<std::basic_string<char,std::char_traits<char>,std::allocator<char> > const ,int>,void *> *>
PUBLIC	??$forward@ABQAU?$_Tree_node@U?$pair@$$CBV?$basic_string@DU?$char_traits@D@std@@V?$allocator@D@2@@std@@H@std@@PAX@std@@@std@@YAABQAU?$_Tree_node@U?$pair@$$CBV?$basic_string@DU?$char_traits@D@std@@V?$allocator@D@2@@std@@H@std@@PAX@0@ABQAU10@@Z ; std::forward<std::_Tree_node<std::pair<std::basic_string<char,std::char_traits<char>,std::allocator<char> > const ,int>,void *> * const &>
PUBLIC	??$_Construct_in_place@PAU?$_Tree_node@U?$pair@$$CBV?$basic_string@DU?$char_traits@D@std@@V?$allocator@D@2@@std@@H@std@@PAX@std@@AAPAU12@@std@@YAXAAPAU?$_Tree_node@U?$pair@$$CBV?$basic_string@DU?$char_traits@D@std@@V?$allocator@D@2@@std@@H@std@@PAX@0@0@Z ; std::_Construct_in_place<std::_Tree_node<std::pair<std::basic_string<char,std::char_traits<char>,std::allocator<char> > const ,int>,void *> *,std::_Tree_node<std::pair<std::basic_string<char,std::char_traits<char>,std::allocator<char> > const ,int>,void *> * &>
PUBLIC	??$construct@U?$pair@$$CBV?$basic_string@DU?$char_traits@D@std@@V?$allocator@D@2@@std@@H@std@@ABUpiecewise_construct_t@2@V?$tuple@$$QAV?$basic_string@DU?$char_traits@D@std@@V?$allocator@D@2@@std@@@2@V?$tuple@$$V@2@@?$_Default_allocator_traits@V?$allocator@U?$_Tree_node@U?$pair@$$CBV?$basic_string@DU?$char_traits@D@std@@V?$allocator@D@2@@std@@H@std@@PAX@std@@@std@@@std@@SAXAAV?$allocator@U?$_Tree_node@U?$pair@$$CBV?$basic_string@DU?$char_traits@D@std@@V?$allocator@D@2@@std@@H@std@@PAX@std@@@1@QAU?$pair@$$CBV?$basic_string@DU?$char_traits@D@std@@V?$allocator@D@2@@std@@H@1@ABUpiecewise_construct_t@1@$$QAV?$tuple@$$QAV?$basic_string@DU?$char_traits@D@std@@V?$allocator@D@2@@std@@@1@$$QAV?$tuple@$$V@1@@Z ; std::_Default_allocator_traits<std::allocator<std::_Tree_node<std::pair<std::basic_string<char,std::char_traits<char>,std::allocator<char> > const ,int>,void *> > >::construct<std::pair<std::basic_string<char,std::char_traits<char>,std::allocator<char> > const ,int>,std::piecewise_construct_t const &,std::tuple<std::basic_string<char,std::char_traits<char>,std::allocator<char> > &&>,std::tuple<> >
PUBLIC	??$forward@V?$tuple@$$QAV?$basic_string@DU?$char_traits@D@std@@V?$allocator@D@2@@std@@@std@@@std@@YA$$QAV?$tuple@$$QAV?$basic_string@DU?$char_traits@D@std@@V?$allocator@D@2@@std@@@0@AAV10@@Z ; std::forward<std::tuple<std::basic_string<char,std::char_traits<char>,std::allocator<char> > &&> >
PUBLIC	??$?0V?$basic_string@DU?$char_traits@D@std@@V?$allocator@D@2@@std@@$$V$0A@@?$tuple@$$QAV?$basic_string@DU?$char_traits@D@std@@V?$allocator@D@2@@std@@@std@@QAE@$$QAV?$basic_string@DU?$char_traits@D@std@@V?$allocator@D@2@@1@@Z ; std::tuple<std::basic_string<char,std::char_traits<char>,std::allocator<char> > &&>::tuple<std::basic_string<char,std::char_traits<char>,std::allocator<char> > &&><std::basic_string<char,std::char_traits<char>,std::allocator<char> >,0>
PUBLIC	??$_Destroy_in_place@PAU?$_Tree_node@U?$pair@$$CBV?$basic_string@DU?$char_traits@D@std@@V?$allocator@D@2@@std@@H@std@@PAX@std@@@std@@YAXAAPAU?$_Tree_node@U?$pair@$$CBV?$basic_string@DU?$char_traits@D@std@@V?$allocator@D@2@@std@@H@std@@PAX@0@@Z ; std::_Destroy_in_place<std::_Tree_node<std::pair<std::basic_string<char,std::char_traits<char>,std::allocator<char> > const ,int>,void *> *>
PUBLIC	??$_Freenode@V?$allocator@U?$_Tree_node@U?$pair@$$CBV?$basic_string@DU?$char_traits@D@std@@V?$allocator@D@2@@std@@H@std@@PAX@std@@@std@@@?$_Tree_node@U?$pair@$$CBV?$basic_string@DU?$char_traits@D@std@@V?$allocator@D@2@@std@@H@std@@PAX@std@@SAXAAV?$allocator@U?$_Tree_node@U?$pair@$$CBV?$basic_string@DU?$char_traits@D@std@@V?$allocator@D@2@@std@@H@std@@PAX@std@@@1@PAU01@@Z ; std::_Tree_node<std::pair<std::basic_string<char,std::char_traits<char>,std::allocator<char> > const ,int>,void *>::_Freenode<std::allocator<std::_Tree_node<std::pair<std::basic_string<char,std::char_traits<char>,std::allocator<char> > const ,int>,void *> > >
PUBLIC	??$exchange@PAU?$_Tree_node@U?$pair@$$CBV?$basic_string@DU?$char_traits@D@std@@V?$allocator@D@2@@std@@H@std@@PAX@std@@AAPAU12@@std@@YAPAU?$_Tree_node@U?$pair@$$CBV?$basic_string@DU?$char_traits@D@std@@V?$allocator@D@2@@std@@H@std@@PAX@0@AAPAU10@0@Z ; std::exchange<std::_Tree_node<std::pair<std::basic_string<char,std::char_traits<char>,std::allocator<char> > const ,int>,void *> *,std::_Tree_node<std::pair<std::basic_string<char,std::char_traits<char>,std::allocator<char> > const ,int>,void *> * &>
PUBLIC	??$_Kfn@$$CBV?$basic_string@DU?$char_traits@D@std@@V?$allocator@D@2@@std@@H@?$_Tmap_traits@V?$basic_string@DU?$char_traits@D@std@@V?$allocator@D@2@@std@@HU?$less@V?$basic_string@DU?$char_traits@D@std@@V?$allocator@D@2@@std@@@2@V?$allocator@U?$pair@$$CBV?$basic_string@DU?$char_traits@D@std@@V?$allocator@D@2@@std@@H@std@@@2@$0A@@std@@SAABV?$basic_string@DU?$char_traits@D@std@@V?$allocator@D@2@@1@ABU?$pair@$$CBV?$basic_string@DU?$char_traits@D@std@@V?$allocator@D@2@@std@@H@1@@Z ; std::_Tmap_traits<std::basic_string<char,std::char_traits<char>,std::allocator<char> >,int,std::less<std::basic_string<char,std::char_traits<char>,std::allocator<char> > >,std::allocator<std::pair<std::basic_string<char,std::char_traits<char>,std::allocator<char> > const ,int> >,0>::_Kfn<std::basic_string<char,std::char_traits<char>,std::allocator<char> > const ,int>
PUBLIC	??$_Uninitialized_move@PAPAUSEventSet@CPythonEventManager@@V?$allocator@PAUSEventSet@CPythonEventManager@@@std@@@std@@YAPAPAUSEventSet@CPythonEventManager@@QAPAU12@0PAPAU12@AAV?$allocator@PAUSEventSet@CPythonEventManager@@@0@@Z ; std::_Uninitialized_move<CPythonEventManager::SEventSet * *,std::allocator<CPythonEventManager::SEventSet *> >
PUBLIC	??$_Get_unwrapped@ABQAPAUSEventSet@CPythonEventManager@@@std@@YA?A_TABQAPAUSEventSet@CPythonEventManager@@@Z ; std::_Get_unwrapped<CPythonEventManager::SEventSet * * const &>
PUBLIC	??$construct@PAUSEventSet@CPythonEventManager@@PAU12@@?$_Default_allocator_traits@V?$allocator@PAUSEventSet@CPythonEventManager@@@std@@@std@@SAXAAV?$allocator@PAUSEventSet@CPythonEventManager@@@1@QAPAUSEventSet@CPythonEventManager@@$$QAPAU34@@Z ; std::_Default_allocator_traits<std::allocator<CPythonEventManager::SEventSet *> >::construct<CPythonEventManager::SEventSet *,CPythonEventManager::SEventSet *>
PUBLIC	??$_Allocate_at_least_helper@V?$allocator@PAUSEventSet@CPythonEventManager@@@std@@@std@@YAPAPAUSEventSet@CPythonEventManager@@AAV?$allocator@PAUSEventSet@CPythonEventManager@@@0@AAI@Z ; std::_Allocate_at_least_helper<std::allocator<CPythonEventManager::SEventSet *> >
PUBLIC	??$_Construct_in_place@PAUSEventSet@CPythonEventManager@@PAU12@@std@@YAXAAPAUSEventSet@CPythonEventManager@@$$QAPAU12@@Z ; std::_Construct_in_place<CPythonEventManager::SEventSet *,CPythonEventManager::SEventSet *>
PUBLIC	??$?0$$V@?$_Compressed_pair@V?$allocator@U?$_Tree_node@U?$pair@$$CBV?$basic_string@DU?$char_traits@D@std@@V?$allocator@D@2@@std@@H@std@@PAX@std@@@std@@V?$_Tree_val@U?$_Tree_simple_types@U?$pair@$$CBV?$basic_string@DU?$char_traits@D@std@@V?$allocator@D@2@@std@@H@std@@@std@@@2@$00@std@@QAE@U_Zero_then_variadic_args_t@1@@Z ; std::_Compressed_pair<std::allocator<std::_Tree_node<std::pair<std::basic_string<char,std::char_traits<char>,std::allocator<char> > const ,int>,void *> >,std::_Tree_val<std::_Tree_simple_types<std::pair<std::basic_string<char,std::char_traits<char>,std::allocator<char> > const ,int> > >,1>::_Compressed_pair<std::allocator<std::_Tree_node<std::pair<std::basic_string<char,std::char_traits<char>,std::allocator<char> > const ,int>,void *> >,std::_Tree_val<std::_Tree_simple_types<std::pair<std::basic_string<char,std::char_traits<char>,std::allocator<char> > const ,int> > >,1><>
PUBLIC	??1?$_Tree_temp_node_alloc@V?$allocator@U?$_Tree_node@U?$pair@$$CBV?$basic_string@DU?$char_traits@D@std@@V?$allocator@D@2@@std@@H@std@@PAX@std@@@std@@@std@@QAE@XZ ; std::_Tree_temp_node_alloc<std::allocator<std::_Tree_node<std::pair<std::basic_string<char,std::char_traits<char>,std::allocator<char> > const ,int>,void *> > >::~_Tree_temp_node_alloc<std::allocator<std::_Tree_node<std::pair<std::basic_string<char,std::char_traits<char>,std::allocator<char> > const ,int>,void *> > >
PUBLIC	?Delete@?$CDynamicPool@VCGraphicTextInstance@@@@KAXPAVCGraphicTextInstance@@@Z ; CDynamicPool<CGraphicTextInstance>::Delete
PUBLIC	??0?$allocator@U?$_List_node@USArgumet@script@@PAX@std@@@std@@QAE@XZ ; std::allocator<std::_List_node<script::SArgumet,void *> >::allocator<std::_List_node<script::SArgumet,void *> >
PUBLIC	?allocate@?$allocator@U?$_List_node@USArgumet@script@@PAX@std@@@std@@QAEPAU?$_List_node@USArgumet@script@@PAX@2@I@Z ; std::allocator<std::_List_node<script::SArgumet,void *> >::allocate
PUBLIC	??0?$_List_val@U?$_List_simple_types@USArgumet@script@@@std@@@std@@QAE@XZ ; std::_List_val<std::_List_simple_types<script::SArgumet> >::_List_val<std::_List_simple_types<script::SArgumet> >
PUBLIC	?_Get_first@?$_Compressed_pair@V?$allocator@U?$_List_node@USArgumet@script@@PAX@std@@@std@@V?$_List_val@U?$_List_simple_types@USArgumet@script@@@std@@@2@$00@std@@QAEAAV?$allocator@U?$_List_node@USArgumet@script@@PAX@std@@@2@XZ ; std::_Compressed_pair<std::allocator<std::_List_node<script::SArgumet,void *> >,std::_List_val<std::_List_simple_types<script::SArgumet> >,1>::_Get_first
PUBLIC	?max_size@?$list@USTextLine@CPythonEventManager@@V?$allocator@USTextLine@CPythonEventManager@@@std@@@std@@QBEIXZ ; std::list<CPythonEventManager::STextLine,std::allocator<CPythonEventManager::STextLine> >::max_size
PUBLIC	?_Check_grow_by_1@?$_Tree@V?$_Tmap_traits@V?$basic_string@DU?$char_traits@D@std@@V?$allocator@D@2@@std@@HU?$less@V?$basic_string@DU?$char_traits@D@std@@V?$allocator@D@2@@std@@@2@V?$allocator@U?$pair@$$CBV?$basic_string@DU?$char_traits@D@std@@V?$allocator@D@2@@std@@H@std@@@2@$0A@@std@@@std@@IAEXXZ ; std::_Tree<std::_Tmap_traits<std::basic_string<char,std::char_traits<char>,std::allocator<char> >,int,std::less<std::basic_string<char,std::char_traits<char>,std::allocator<char> > >,std::allocator<std::pair<std::basic_string<char,std::char_traits<char>,std::allocator<char> > const ,int> >,0> >::_Check_grow_by_1
PUBLIC	?_Alloc_sentinel_and_proxy@?$_Tree@V?$_Tmap_traits@V?$basic_string@DU?$char_traits@D@std@@V?$allocator@D@2@@std@@HU?$less@V?$basic_string@DU?$char_traits@D@std@@V?$allocator@D@2@@std@@@2@V?$allocator@U?$pair@$$CBV?$basic_string@DU?$char_traits@D@std@@V?$allocator@D@2@@std@@H@std@@@2@$0A@@std@@@std@@IAEXXZ ; std::_Tree<std::_Tmap_traits<std::basic_string<char,std::char_traits<char>,std::allocator<char> >,int,std::less<std::basic_string<char,std::char_traits<char>,std::allocator<char> > >,std::allocator<std::pair<std::basic_string<char,std::char_traits<char>,std::allocator<char> > const ,int> >,0> >::_Alloc_sentinel_and_proxy
PUBLIC	?_Get_scary@?$_Tree@V?$_Tmap_traits@V?$basic_string@DU?$char_traits@D@std@@V?$allocator@D@2@@std@@HU?$less@V?$basic_string@DU?$char_traits@D@std@@V?$allocator@D@2@@std@@@2@V?$allocator@U?$pair@$$CBV?$basic_string@DU?$char_traits@D@std@@V?$allocator@D@2@@std@@H@std@@@2@$0A@@std@@@std@@IBEPBV?$_Tree_val@U?$_Tree_simple_types@U?$pair@$$CBV?$basic_string@DU?$char_traits@D@std@@V?$allocator@D@2@@std@@H@std@@@std@@@2@XZ ; std::_Tree<std::_Tmap_traits<std::basic_string<char,std::char_traits<char>,std::allocator<char> >,int,std::less<std::basic_string<char,std::char_traits<char>,std::allocator<char> > >,std::allocator<std::pair<std::basic_string<char,std::char_traits<char>,std::allocator<char> > const ,int> >,0> >::_Get_scary
PUBLIC	?_Insert_node@?$_Tree_val@U?$_Tree_simple_types@U?$pair@$$CBV?$basic_string@DU?$char_traits@D@std@@V?$allocator@D@2@@std@@H@std@@@std@@@std@@QAEPAU?$_Tree_node@U?$pair@$$CBV?$basic_string@DU?$char_traits@D@std@@V?$allocator@D@2@@std@@H@std@@PAX@2@U?$_Tree_id@PAU?$_Tree_node@U?$pair@$$CBV?$basic_string@DU?$char_traits@D@std@@V?$allocator@D@2@@std@@H@std@@PAX@std@@@2@QAU32@@Z ; std::_Tree_val<std::_Tree_simple_types<std::pair<std::basic_string<char,std::char_traits<char>,std::allocator<char> > const ,int> > >::_Insert_node
PUBLIC	??D?$_Tree_const_iterator@V?$_Tree_val@U?$_Tree_simple_types@U?$pair@$$CBV?$basic_string@DU?$char_traits@D@std@@V?$allocator@D@2@@std@@H@std@@@std@@@std@@@std@@QBEABU?$pair@$$CBV?$basic_string@DU?$char_traits@D@std@@V?$allocator@D@2@@std@@H@1@XZ ; std::_Tree_const_iterator<std::_Tree_val<std::_Tree_simple_types<std::pair<std::basic_string<char,std::char_traits<char>,std::allocator<char> > const ,int> > > >::operator*
PUBLIC	?_Get_first@?$_Compressed_pair@V?$allocator@U?$_Tree_node@U?$pair@$$CBV?$basic_string@DU?$char_traits@D@std@@V?$allocator@D@2@@std@@H@std@@PAX@std@@@std@@V?$_Tree_val@U?$_Tree_simple_types@U?$pair@$$CBV?$basic_string@DU?$char_traits@D@std@@V?$allocator@D@2@@std@@H@std@@@std@@@2@$00@std@@QAEAAV?$allocator@U?$_Tree_node@U?$pair@$$CBV?$basic_string@DU?$char_traits@D@std@@V?$allocator@D@2@@std@@H@std@@PAX@std@@@2@XZ ; std::_Compressed_pair<std::allocator<std::_Tree_node<std::pair<std::basic_string<char,std::char_traits<char>,std::allocator<char> > const ,int>,void *> >,std::_Tree_val<std::_Tree_simple_types<std::pair<std::basic_string<char,std::char_traits<char>,std::allocator<char> > const ,int> > >,1>::_Get_first
PUBLIC	??0?$allocator@U?$_List_node@USTextLine@CPythonEventManager@@PAX@std@@@std@@QAE@XZ ; std::allocator<std::_List_node<CPythonEventManager::STextLine,void *> >::allocator<std::_List_node<CPythonEventManager::STextLine,void *> >
PUBLIC	?allocate@?$allocator@U?$_List_node@USTextLine@CPythonEventManager@@PAX@std@@@std@@QAEPAU?$_List_node@USTextLine@CPythonEventManager@@PAX@2@I@Z ; std::allocator<std::_List_node<CPythonEventManager::STextLine,void *> >::allocate
PUBLIC	??0?$_List_val@U?$_List_simple_types@USTextLine@CPythonEventManager@@@std@@@std@@QAE@XZ ; std::_List_val<std::_List_simple_types<CPythonEventManager::STextLine> >::_List_val<std::_List_simple_types<CPythonEventManager::STextLine> >
PUBLIC	?_Get_first@?$_Compressed_pair@V?$allocator@U?$_List_node@USTextLine@CPythonEventManager@@PAX@std@@@std@@V?$_List_val@U?$_List_simple_types@USTextLine@CPythonEventManager@@@std@@@2@$00@std@@QAEAAV?$allocator@U?$_List_node@USTextLine@CPythonEventManager@@PAX@std@@@2@XZ ; std::_Compressed_pair<std::allocator<std::_List_node<CPythonEventManager::STextLine,void *> >,std::_List_val<std::_List_simple_types<CPythonEventManager::STextLine> >,1>::_Get_first
PUBLIC	??0?$allocator@PAUSEventSet@CPythonEventManager@@@std@@QAE@XZ ; std::allocator<CPythonEventManager::SEventSet *>::allocator<CPythonEventManager::SEventSet *>
PUBLIC	?deallocate@?$allocator@PAUSEventSet@CPythonEventManager@@@std@@QAEXQAPAUSEventSet@CPythonEventManager@@I@Z ; std::allocator<CPythonEventManager::SEventSet *>::deallocate
PUBLIC	?_Unchecked_begin@?$vector@PAUSEventSet@CPythonEventManager@@V?$allocator@PAUSEventSet@CPythonEventManager@@@std@@@std@@QAEPAPAUSEventSet@CPythonEventManager@@XZ ; std::vector<CPythonEventManager::SEventSet *,std::allocator<CPythonEventManager::SEventSet *> >::_Unchecked_begin
PUBLIC	?_Unchecked_end@?$vector@PAUSEventSet@CPythonEventManager@@V?$allocator@PAUSEventSet@CPythonEventManager@@@std@@@std@@QAEPAPAUSEventSet@CPythonEventManager@@XZ ; std::vector<CPythonEventManager::SEventSet *,std::allocator<CPythonEventManager::SEventSet *> >::_Unchecked_end
PUBLIC	?_Orphan_range@?$vector@PAUSEventSet@CPythonEventManager@@V?$allocator@PAUSEventSet@CPythonEventManager@@@std@@@std@@ABEXPAPAUSEventSet@CPythonEventManager@@0@Z ; std::vector<CPythonEventManager::SEventSet *,std::allocator<CPythonEventManager::SEventSet *> >::_Orphan_range
PUBLIC	??0?$_Vector_val@U?$_Simple_types@PAUSEventSet@CPythonEventManager@@@std@@@std@@QAE@XZ ; std::_Vector_val<std::_Simple_types<CPythonEventManager::SEventSet *> >::_Vector_val<std::_Simple_types<CPythonEventManager::SEventSet *> >
PUBLIC	?_Get_first@?$_Compressed_pair@V?$allocator@PAUSEventSet@CPythonEventManager@@@std@@V?$_Vector_val@U?$_Simple_types@PAUSEventSet@CPythonEventManager@@@std@@@2@$00@std@@QAEAAV?$allocator@PAUSEventSet@CPythonEventManager@@@2@XZ ; std::_Compressed_pair<std::allocator<CPythonEventManager::SEventSet *>,std::_Vector_val<std::_Simple_types<CPythonEventManager::SEventSet *> >,1>::_Get_first
PUBLIC	?Delete@?$CDynamicPool@USEventSet@CPythonEventManager@@@@KAXPAUSEventSet@CPythonEventManager@@@Z ; CDynamicPool<CPythonEventManager::SEventSet>::Delete
PUBLIC	?clear@?$vector@PAVCGraphicTextInstance@@V?$allocator@PAVCGraphicTextInstance@@@std@@@std@@QAEXXZ ; std::vector<CGraphicTextInstance *,std::allocator<CGraphicTextInstance *> >::clear
PUBLIC	?_Unchecked_begin@?$vector@PAVCGraphicTextInstance@@V?$allocator@PAVCGraphicTextInstance@@@std@@@std@@QAEPAPAVCGraphicTextInstance@@XZ ; std::vector<CGraphicTextInstance *,std::allocator<CGraphicTextInstance *> >::_Unchecked_begin
PUBLIC	?_Unchecked_end@?$vector@PAVCGraphicTextInstance@@V?$allocator@PAVCGraphicTextInstance@@@std@@@std@@QAEPAPAVCGraphicTextInstance@@XZ ; std::vector<CGraphicTextInstance *,std::allocator<CGraphicTextInstance *> >::_Unchecked_end
PUBLIC	?_Tidy@?$vector@PAVCGraphicTextInstance@@V?$allocator@PAVCGraphicTextInstance@@@std@@@std@@AAEXXZ ; std::vector<CGraphicTextInstance *,std::allocator<CGraphicTextInstance *> >::_Tidy
PUBLIC	?_Orphan_range@?$vector@PAVCGraphicTextInstance@@V?$allocator@PAVCGraphicTextInstance@@@std@@@std@@ABEXPAPAVCGraphicTextInstance@@0@Z ; std::vector<CGraphicTextInstance *,std::allocator<CGraphicTextInstance *> >::_Orphan_range
PUBLIC	?_Getal@?$vector@PAVCGraphicTextInstance@@V?$allocator@PAVCGraphicTextInstance@@@std@@@std@@AAEAAV?$allocator@PAVCGraphicTextInstance@@@2@XZ ; std::vector<CGraphicTextInstance *,std::allocator<CGraphicTextInstance *> >::_Getal
PUBLIC	??1?$_Tree_temp_node@V?$allocator@U?$_Tree_node@U?$pair@$$CBV?$basic_string@DU?$char_traits@D@std@@V?$allocator@D@2@@std@@H@std@@PAX@std@@@std@@@std@@QAE@XZ ; std::_Tree_temp_node<std::allocator<std::_Tree_node<std::pair<std::basic_string<char,std::char_traits<char>,std::allocator<char> > const ,int>,void *> > >::~_Tree_temp_node<std::allocator<std::_Tree_node<std::pair<std::basic_string<char,std::char_traits<char>,std::allocator<char> > const ,int>,void *> > >
PUBLIC	?_Release@?$_Alloc_construct_ptr@V?$allocator@U?$_Tree_node@U?$pair@$$CBV?$basic_string@DU?$char_traits@D@std@@V?$allocator@D@2@@std@@H@std@@PAX@std@@@std@@@std@@QAEPAU?$_Tree_node@U?$pair@$$CBV?$basic_string@DU?$char_traits@D@std@@V?$allocator@D@2@@std@@H@std@@PAX@2@XZ ; std::_Alloc_construct_ptr<std::allocator<std::_Tree_node<std::pair<std::basic_string<char,std::char_traits<char>,std::allocator<char> > const ,int>,void *> > >::_Release
PUBLIC	??1?$_List_node_emplace_op2@V?$allocator@U?$_List_node@USTextLine@CPythonEventManager@@PAX@std@@@std@@@std@@QAE@XZ ; std::_List_node_emplace_op2<std::allocator<std::_List_node<CPythonEventManager::STextLine,void *> > >::~_List_node_emplace_op2<std::allocator<std::_List_node<CPythonEventManager::STextLine,void *> > >
PUBLIC	?_Transfer_before@?$_List_node_emplace_op2@V?$allocator@U?$_List_node@USTextLine@CPythonEventManager@@PAX@std@@@std@@@std@@QAEPAU?$_List_node@USTextLine@CPythonEventManager@@PAX@2@QAU32@@Z ; std::_List_node_emplace_op2<std::allocator<std::_List_node<CPythonEventManager::STextLine,void *> > >::_Transfer_before
PUBLIC	??$_Freenode0@V?$allocator@U?$_List_node@USArgumet@script@@PAX@std@@@std@@@?$_List_node@USArgumet@script@@PAX@std@@SAXAAV?$allocator@U?$_List_node@USArgumet@script@@PAX@std@@@1@PAU01@@Z ; std::_List_node<script::SArgumet,void *>::_Freenode0<std::allocator<std::_List_node<script::SArgumet,void *> > >
PUBLIC	??$_Free_non_head@V?$allocator@U?$_List_node@USArgumet@script@@PAX@std@@@std@@@?$_List_node@USArgumet@script@@PAX@std@@SAXAAV?$allocator@U?$_List_node@USArgumet@script@@PAX@std@@@1@PAU01@@Z ; std::_List_node<script::SArgumet,void *>::_Free_non_head<std::allocator<std::_List_node<script::SArgumet,void *> > >
PUBLIC	??$_Construct_in_place@PAU?$_List_node@USArgumet@script@@PAX@std@@AAPAU12@@std@@YAXAAPAU?$_List_node@USArgumet@script@@PAX@0@0@Z ; std::_Construct_in_place<std::_List_node<script::SArgumet,void *> *,std::_List_node<script::SArgumet,void *> * &>
PUBLIC	??$_Freenode0@V?$allocator@U?$_List_node@USTextLine@CPythonEventManager@@PAX@std@@@std@@@?$_List_node@USTextLine@CPythonEventManager@@PAX@std@@SAXAAV?$allocator@U?$_List_node@USTextLine@CPythonEventManager@@PAX@std@@@1@PAU01@@Z ; std::_List_node<CPythonEventManager::STextLine,void *>::_Freenode0<std::allocator<std::_List_node<CPythonEventManager::STextLine,void *> > >
PUBLIC	??$_Construct_in_place@PAU?$_List_node@USTextLine@CPythonEventManager@@PAX@std@@AAPAU12@@std@@YAXAAPAU?$_List_node@USTextLine@CPythonEventManager@@PAX@0@0@Z ; std::_Construct_in_place<std::_List_node<CPythonEventManager::STextLine,void *> *,std::_List_node<CPythonEventManager::STextLine,void *> * &>
PUBLIC	??$?0ABU?$less@V?$basic_string@DU?$char_traits@D@std@@V?$allocator@D@2@@std@@@std@@U_Zero_then_variadic_args_t@1@@?$_Compressed_pair@U?$less@V?$basic_string@DU?$char_traits@D@std@@V?$allocator@D@2@@std@@@std@@V?$_Compressed_pair@V?$allocator@U?$_Tree_node@U?$pair@$$CBV?$basic_string@DU?$char_traits@D@std@@V?$allocator@D@2@@std@@H@std@@PAX@std@@@std@@V?$_Tree_val@U?$_Tree_simple_types@U?$pair@$$CBV?$basic_string@DU?$char_traits@D@std@@V?$allocator@D@2@@std@@H@std@@@std@@@2@$00@2@$00@std@@QAE@U_One_then_variadic_args_t@1@ABU?$less@V?$basic_string@DU?$char_traits@D@std@@V?$allocator@D@2@@std@@@1@$$QAU_Zero_then_variadic_args_t@1@@Z ; std::_Compressed_pair<std::less<std::basic_string<char,std::char_traits<char>,std::allocator<char> > >,std::_Compressed_pair<std::allocator<std::_Tree_node<std::pair<std::basic_string<char,std::char_traits<char>,std::allocator<char> > const ,int>,void *> >,std::_Tree_val<std::_Tree_simple_types<std::pair<std::basic_string<char,std::char_traits<char>,std::allocator<char> > const ,int> > >,1>,1>::_Compressed_pair<std::less<std::basic_string<char,std::char_traits<char>,std::allocator<char> > >,std::_Compressed_pair<std::allocator<std::_Tree_node<std::pair<std::basic_string<char,std::char_traits<char>,std::allocator<char> > const ,int>,void *> >,std::_Tree_val<std::_Tree_simple_types<std::pair<std::basic_string<char,std::char_traits<char>,std::allocator<char> > const ,int> > >,1>,1><std::less<std::basic_string<char,std::char_traits<char>,std::allocator<char> > > const &,std::_Zero_then_variadic_args_t>
PUBLIC	??$addressof@V?$_Tree_val@U?$_Tree_simple_types@U?$pair@$$CBV?$basic_string@DU?$char_traits@D@std@@V?$allocator@D@2@@std@@H@std@@@std@@@std@@@std@@YAPAV?$_Tree_val@U?$_Tree_simple_types@U?$pair@$$CBV?$basic_string@DU?$char_traits@D@std@@V?$allocator@D@2@@std@@H@std@@@std@@@0@AAV10@@Z ; std::addressof<std::_Tree_val<std::_Tree_simple_types<std::pair<std::basic_string<char,std::char_traits<char>,std::allocator<char> > const ,int> > > >
PUBLIC	??$_Emplace_one_at_back@ABQAUSEventSet@CPythonEventManager@@@?$vector@PAUSEventSet@CPythonEventManager@@V?$allocator@PAUSEventSet@CPythonEventManager@@@std@@@std@@AAEAAPAUSEventSet@CPythonEventManager@@ABQAU23@@Z ; std::vector<CPythonEventManager::SEventSet *,std::allocator<CPythonEventManager::SEventSet *> >::_Emplace_one_at_back<CPythonEventManager::SEventSet * const &>
PUBLIC	??$destroy@PAUSEventSet@CPythonEventManager@@@?$_Default_allocator_traits@V?$allocator@PAUSEventSet@CPythonEventManager@@@std@@@std@@SAXAAV?$allocator@PAUSEventSet@CPythonEventManager@@@1@QAPAUSEventSet@CPythonEventManager@@@Z ; std::_Default_allocator_traits<std::allocator<CPythonEventManager::SEventSet *> >::destroy<CPythonEventManager::SEventSet *>
PUBLIC	??$_Unfancy@PAUSEventSet@CPythonEventManager@@@std@@YAPAPAUSEventSet@CPythonEventManager@@PAPAU12@@Z ; std::_Unfancy<CPythonEventManager::SEventSet *>
PUBLIC	??$?0$$V@?$_Compressed_pair@V?$allocator@PAVCGraphicTextInstance@@@std@@V?$_Vector_val@U?$_Simple_types@PAVCGraphicTextInstance@@@std@@@2@$00@std@@QAE@U_Zero_then_variadic_args_t@1@@Z ; std::_Compressed_pair<std::allocator<CGraphicTextInstance *>,std::_Vector_val<std::_Simple_types<CGraphicTextInstance *> >,1>::_Compressed_pair<std::allocator<CGraphicTextInstance *>,std::_Vector_val<std::_Simple_types<CGraphicTextInstance *> >,1><>
PUBLIC	??$_Emplace_one_at_back@ABQAVCGraphicTextInstance@@@?$vector@PAVCGraphicTextInstance@@V?$allocator@PAVCGraphicTextInstance@@@std@@@std@@AAEAAPAVCGraphicTextInstance@@ABQAV2@@Z ; std::vector<CGraphicTextInstance *,std::allocator<CGraphicTextInstance *> >::_Emplace_one_at_back<CGraphicTextInstance * const &>
PUBLIC	??$destroy@PAVCGraphicTextInstance@@@?$_Default_allocator_traits@V?$allocator@PAVCGraphicTextInstance@@@std@@@std@@SAXAAV?$allocator@PAVCGraphicTextInstance@@@1@QAPAVCGraphicTextInstance@@@Z ; std::_Default_allocator_traits<std::allocator<CGraphicTextInstance *> >::destroy<CGraphicTextInstance *>
PUBLIC	??$_Unfancy@PAVCGraphicTextInstance@@@std@@YAPAPAVCGraphicTextInstance@@PAPAV1@@Z ; std::_Unfancy<CGraphicTextInstance *>
PUBLIC	??$addressof@U?$pair@$$CBV?$basic_string@DU?$char_traits@D@std@@V?$allocator@D@2@@std@@H@std@@@std@@YAPAU?$pair@$$CBV?$basic_string@DU?$char_traits@D@std@@V?$allocator@D@2@@std@@H@0@AAU10@@Z ; std::addressof<std::pair<std::basic_string<char,std::char_traits<char>,std::allocator<char> > const ,int> >
PUBLIC	??$?0ABUSTextLine@CPythonEventManager@@@?$_List_node_emplace_op2@V?$allocator@U?$_List_node@USTextLine@CPythonEventManager@@PAX@std@@@std@@@std@@QAE@AAV?$allocator@U?$_List_node@USTextLine@CPythonEventManager@@PAX@std@@@1@ABUSTextLine@CPythonEventManager@@@Z ; std::_List_node_emplace_op2<std::allocator<std::_List_node<CPythonEventManager::STextLine,void *> > >::_List_node_emplace_op2<std::allocator<std::_List_node<CPythonEventManager::STextLine,void *> > ><CPythonEventManager::STextLine const &>
PUBLIC	??$forward@ABUSTextLine@CPythonEventManager@@@std@@YAABUSTextLine@CPythonEventManager@@ABU12@@Z ; std::forward<CPythonEventManager::STextLine const &>
PUBLIC	??$_Freenode@V?$allocator@U?$_List_node@USTextLine@CPythonEventManager@@PAX@std@@@std@@@?$_List_node@USTextLine@CPythonEventManager@@PAX@std@@SAXAAV?$allocator@U?$_List_node@USTextLine@CPythonEventManager@@PAX@std@@@1@PAU01@@Z ; std::_List_node<CPythonEventManager::STextLine,void *>::_Freenode<std::allocator<std::_List_node<CPythonEventManager::STextLine,void *> > >
PUBLIC	??$?0PAU?$_Tree_node@U?$pair@$$CBV?$basic_string@DU?$char_traits@D@std@@V?$allocator@D@2@@std@@H@std@@PAX@std@@_N$0A@@?$pair@PAU?$_Tree_node@U?$pair@$$CBV?$basic_string@DU?$char_traits@D@std@@V?$allocator@D@2@@std@@H@std@@PAX@std@@_N@std@@QAE@$$QAPAU?$_Tree_node@U?$pair@$$CBV?$basic_string@DU?$char_traits@D@std@@V?$allocator@D@2@@std@@H@std@@PAX@1@$$QA_N@Z ; std::pair<std::_Tree_node<std::pair<std::basic_string<char,std::char_traits<char>,std::allocator<char> > const ,int>,void *> *,bool>::pair<std::_Tree_node<std::pair<std::basic_string<char,std::char_traits<char>,std::allocator<char> > const ,int>,void *> *,bool><std::_Tree_node<std::pair<std::basic_string<char,std::char_traits<char>,std::allocator<char> > const ,int>,void *> *,bool,0>
PUBLIC	??$?0ABQAU?$_Tree_node@U?$pair@$$CBV?$basic_string@DU?$char_traits@D@std@@V?$allocator@D@2@@std@@H@std@@PAX@std@@_N$0A@@?$pair@PAU?$_Tree_node@U?$pair@$$CBV?$basic_string@DU?$char_traits@D@std@@V?$allocator@D@2@@std@@H@std@@PAX@std@@_N@std@@QAE@ABQAU?$_Tree_node@U?$pair@$$CBV?$basic_string@DU?$char_traits@D@std@@V?$allocator@D@2@@std@@H@std@@PAX@1@$$QA_N@Z ; std::pair<std::_Tree_node<std::pair<std::basic_string<char,std::char_traits<char>,std::allocator<char> > const ,int>,void *> *,bool>::pair<std::_Tree_node<std::pair<std::basic_string<char,std::char_traits<char>,std::allocator<char> > const ,int>,void *> *,bool><std::_Tree_node<std::pair<std::basic_string<char,std::char_traits<char>,std::allocator<char> > const ,int>,void *> * const &,bool,0>
PUBLIC	??$?0ABUpiecewise_construct_t@std@@V?$tuple@$$QAV?$basic_string@DU?$char_traits@D@std@@V?$allocator@D@2@@std@@@1@V?$tuple@$$V@1@@?$_Tree_temp_node@V?$allocator@U?$_Tree_node@U?$pair@$$CBV?$basic_string@DU?$char_traits@D@std@@V?$allocator@D@2@@std@@H@std@@PAX@std@@@std@@@std@@QAE@AAV?$allocator@U?$_Tree_node@U?$pair@$$CBV?$basic_string@DU?$char_traits@D@std@@V?$allocator@D@2@@std@@H@std@@PAX@std@@@1@PAU?$_Tree_node@U?$pair@$$CBV?$basic_string@DU?$char_traits@D@std@@V?$allocator@D@2@@std@@H@std@@PAX@1@ABUpiecewise_construct_t@1@$$QAV?$tuple@$$QAV?$basic_string@DU?$char_traits@D@std@@V?$allocator@D@2@@std@@@1@$$QAV?$tuple@$$V@1@@Z ; std::_Tree_temp_node<std::allocator<std::_Tree_node<std::pair<std::basic_string<char,std::char_traits<char>,std::allocator<char> > const ,int>,void *> > >::_Tree_temp_node<std::allocator<std::_Tree_node<std::pair<std::basic_string<char,std::char_traits<char>,std::allocator<char> > const ,int>,void *> > ><std::piecewise_construct_t const &,std::tuple<std::basic_string<char,std::char_traits<char>,std::allocator<char> > &&>,std::tuple<> >
PUBLIC	??$forward_as_tuple@V?$basic_string@DU?$char_traits@D@std@@V?$allocator@D@2@@std@@@std@@YA?AV?$tuple@$$QAV?$basic_string@DU?$char_traits@D@std@@V?$allocator@D@2@@std@@@0@$$QAV?$basic_string@DU?$char_traits@D@std@@V?$allocator@D@2@@0@@Z ; std::forward_as_tuple<std::basic_string<char,std::char_traits<char>,std::allocator<char> > >
PUBLIC	??$_Freenode0@V?$allocator@U?$_Tree_node@U?$pair@$$CBV?$basic_string@DU?$char_traits@D@std@@V?$allocator@D@2@@std@@H@std@@PAX@std@@@std@@@?$_Tree_node@U?$pair@$$CBV?$basic_string@DU?$char_traits@D@std@@V?$allocator@D@2@@std@@H@std@@PAX@std@@SAXAAV?$allocator@U?$_Tree_node@U?$pair@$$CBV?$basic_string@DU?$char_traits@D@std@@V?$allocator@D@2@@std@@H@std@@PAX@std@@@1@PAU01@@Z ; std::_Tree_node<std::pair<std::basic_string<char,std::char_traits<char>,std::allocator<char> > const ,int>,void *>::_Freenode0<std::allocator<std::_Tree_node<std::pair<std::basic_string<char,std::char_traits<char>,std::allocator<char> > const ,int>,void *> > >
PUBLIC	??$_Erase_tree@V?$allocator@U?$_Tree_node@U?$pair@$$CBV?$basic_string@DU?$char_traits@D@std@@V?$allocator@D@2@@std@@H@std@@PAX@std@@@std@@@?$_Tree_val@U?$_Tree_simple_types@U?$pair@$$CBV?$basic_string@DU?$char_traits@D@std@@V?$allocator@D@2@@std@@H@std@@@std@@@std@@QAEXAAV?$allocator@U?$_Tree_node@U?$pair@$$CBV?$basic_string@DU?$char_traits@D@std@@V?$allocator@D@2@@std@@H@std@@PAX@std@@@1@PAU?$_Tree_node@U?$pair@$$CBV?$basic_string@DU?$char_traits@D@std@@V?$allocator@D@2@@std@@H@std@@PAX@1@@Z ; std::_Tree_val<std::_Tree_simple_types<std::pair<std::basic_string<char,std::char_traits<char>,std::allocator<char> > const ,int> > >::_Erase_tree<std::allocator<std::_Tree_node<std::pair<std::basic_string<char,std::char_traits<char>,std::allocator<char> > const ,int>,void *> > >
PUBLIC	??$_Lower_bound_duplicate@V?$basic_string@DU?$char_traits@D@std@@V?$allocator@D@2@@std@@@?$_Tree@V?$_Tmap_traits@V?$basic_string@DU?$char_traits@D@std@@V?$allocator@D@2@@std@@HU?$less@V?$basic_string@DU?$char_traits@D@std@@V?$allocator@D@2@@std@@@2@V?$allocator@U?$pair@$$CBV?$basic_string@DU?$char_traits@D@std@@V?$allocator@D@2@@std@@H@std@@@2@$0A@@std@@@std@@IBE_NQAU?$_Tree_node@U?$pair@$$CBV?$basic_string@DU?$char_traits@D@std@@V?$allocator@D@2@@std@@H@std@@PAX@1@ABV?$basic_string@DU?$char_traits@D@std@@V?$allocator@D@2@@1@@Z ; std::_Tree<std::_Tmap_traits<std::basic_string<char,std::char_traits<char>,std::allocator<char> >,int,std::less<std::basic_string<char,std::char_traits<char>,std::allocator<char> > >,std::allocator<std::pair<std::basic_string<char,std::char_traits<char>,std::allocator<char> > const ,int> >,0> >::_Lower_bound_duplicate<std::basic_string<char,std::char_traits<char>,std::allocator<char> > >
PUBLIC	??$_Find_lower_bound@V?$basic_string@DU?$char_traits@D@std@@V?$allocator@D@2@@std@@@?$_Tree@V?$_Tmap_traits@V?$basic_string@DU?$char_traits@D@std@@V?$allocator@D@2@@std@@HU?$less@V?$basic_string@DU?$char_traits@D@std@@V?$allocator@D@2@@std@@@2@V?$allocator@U?$pair@$$CBV?$basic_string@DU?$char_traits@D@std@@V?$allocator@D@2@@std@@H@std@@@2@$0A@@std@@@std@@IBE?AU?$_Tree_find_result@PAU?$_Tree_node@U?$pair@$$CBV?$basic_string@DU?$char_traits@D@std@@V?$allocator@D@2@@std@@H@std@@PAX@std@@@1@ABV?$basic_string@DU?$char_traits@D@std@@V?$allocator@D@2@@1@@Z ; std::_Tree<std::_Tmap_traits<std::basic_string<char,std::char_traits<char>,std::allocator<char> >,int,std::less<std::basic_string<char,std::char_traits<char>,std::allocator<char> > >,std::allocator<std::pair<std::basic_string<char,std::char_traits<char>,std::allocator<char> > const ,int> >,0> >::_Find_lower_bound<std::basic_string<char,std::char_traits<char>,std::allocator<char> > >
PUBLIC	??$_Emplace_reallocate@PAUSEventSet@CPythonEventManager@@@?$vector@PAUSEventSet@CPythonEventManager@@V?$allocator@PAUSEventSet@CPythonEventManager@@@std@@@std@@AAEPAPAUSEventSet@CPythonEventManager@@QAPAU23@$$QAPAU23@@Z ; std::vector<CPythonEventManager::SEventSet *,std::allocator<CPythonEventManager::SEventSet *> >::_Emplace_reallocate<CPythonEventManager::SEventSet *>
PUBLIC	??$_Emplace_back_with_unused_capacity@PAUSEventSet@CPythonEventManager@@@?$vector@PAUSEventSet@CPythonEventManager@@V?$allocator@PAUSEventSet@CPythonEventManager@@@std@@@std@@AAEAAPAUSEventSet@CPythonEventManager@@$$QAPAU23@@Z ; std::vector<CPythonEventManager::SEventSet *,std::allocator<CPythonEventManager::SEventSet *> >::_Emplace_back_with_unused_capacity<CPythonEventManager::SEventSet *>
PUBLIC	??$forward@PAUSEventSet@CPythonEventManager@@@std@@YA$$QAPAUSEventSet@CPythonEventManager@@AAPAU12@@Z ; std::forward<CPythonEventManager::SEventSet *>
PUBLIC	?Destroy@?$CDynamicPool@VCGraphicTextInstance@@@@QAEXXZ ; CDynamicPool<CGraphicTextInstance>::Destroy
PUBLIC	?_Tidy@?$list@USArgumet@script@@V?$allocator@USArgumet@script@@@std@@@std@@AAEXXZ ; std::list<script::SArgumet,std::allocator<script::SArgumet> >::_Tidy
PUBLIC	?_Alloc_sentinel_and_proxy@?$list@USArgumet@script@@V?$allocator@USArgumet@script@@@std@@@std@@AAEXXZ ; std::list<script::SArgumet,std::allocator<script::SArgumet> >::_Alloc_sentinel_and_proxy
PUBLIC	?_Getal@?$list@USArgumet@script@@V?$allocator@USArgumet@script@@@std@@@std@@AAEAAV?$allocator@U?$_List_node@USArgumet@script@@PAX@std@@@2@XZ ; std::list<script::SArgumet,std::allocator<script::SArgumet> >::_Getal
PUBLIC	??D?$_List_const_iterator@V?$_List_val@U?$_List_simple_types@USArgumet@script@@@std@@@std@@@std@@QBEABUSArgumet@script@@XZ ; std::_List_const_iterator<std::_List_val<std::_List_simple_types<script::SArgumet> > >::operator*
PUBLIC	??E?$_List_const_iterator@V?$_List_val@U?$_List_simple_types@USArgumet@script@@@std@@@std@@@std@@QAEAAV01@XZ ; std::_List_const_iterator<std::_List_val<std::_List_simple_types<script::SArgumet> > >::operator++
PUBLIC	??0?$_List_unchecked_const_iterator@V?$_List_val@U?$_List_simple_types@USArgumet@script@@@std@@@std@@U_Iterator_base0@2@@std@@QAE@PAU?$_List_node@USArgumet@script@@PAX@1@PBV?$_List_val@U?$_List_simple_types@USArgumet@script@@@std@@@1@@Z ; std::_List_unchecked_const_iterator<std::_List_val<std::_List_simple_types<script::SArgumet> >,std::_Iterator_base0>::_List_unchecked_const_iterator<std::_List_val<std::_List_simple_types<script::SArgumet> >,std::_Iterator_base0>
PUBLIC	?_Tidy@?$list@USTextLine@CPythonEventManager@@V?$allocator@USTextLine@CPythonEventManager@@@std@@@std@@AAEXXZ ; std::list<CPythonEventManager::STextLine,std::allocator<CPythonEventManager::STextLine> >::_Tidy
PUBLIC	?_Alloc_sentinel_and_proxy@?$list@USTextLine@CPythonEventManager@@V?$allocator@USTextLine@CPythonEventManager@@@std@@@std@@AAEXXZ ; std::list<CPythonEventManager::STextLine,std::allocator<CPythonEventManager::STextLine> >::_Alloc_sentinel_and_proxy
PUBLIC	?_Getal@?$list@USTextLine@CPythonEventManager@@V?$allocator@USTextLine@CPythonEventManager@@@std@@@std@@AAEAAV?$allocator@U?$_List_node@USTextLine@CPythonEventManager@@PAX@std@@@2@XZ ; std::list<CPythonEventManager::STextLine,std::allocator<CPythonEventManager::STextLine> >::_Getal
PUBLIC	??0?$_Tree@V?$_Tmap_traits@V?$basic_string@DU?$char_traits@D@std@@V?$allocator@D@2@@std@@HU?$less@V?$basic_string@DU?$char_traits@D@std@@V?$allocator@D@2@@std@@@2@V?$allocator@U?$pair@$$CBV?$basic_string@DU?$char_traits@D@std@@V?$allocator@D@2@@std@@H@std@@@2@$0A@@std@@@std@@QAE@ABU?$less@V?$basic_string@DU?$char_traits@D@std@@V?$allocator@D@2@@std@@@1@@Z ; std::_Tree<std::_Tmap_traits<std::basic_string<char,std::char_traits<char>,std::allocator<char> >,int,std::less<std::basic_string<char,std::char_traits<char>,std::allocator<char> > >,std::allocator<std::pair<std::basic_string<char,std::char_traits<char>,std::allocator<char> > const ,int> >,0> >::_Tree<std::_Tmap_traits<std::basic_string<char,std::char_traits<char>,std::allocator<char> >,int,std::less<std::basic_string<char,std::char_traits<char>,std::allocator<char> > >,std::allocator<std::pair<std::basic_string<char,std::char_traits<char>,std::allocator<char> > const ,int> >,0> >
PUBLIC	?_Getal@?$_Tree@V?$_Tmap_traits@V?$basic_string@DU?$char_traits@D@std@@V?$allocator@D@2@@std@@HU?$less@V?$basic_string@DU?$char_traits@D@std@@V?$allocator@D@2@@std@@@2@V?$allocator@U?$pair@$$CBV?$basic_string@DU?$char_traits@D@std@@V?$allocator@D@2@@std@@H@std@@@2@$0A@@std@@@std@@IAEAAV?$allocator@U?$_Tree_node@U?$pair@$$CBV?$basic_string@DU?$char_traits@D@std@@V?$allocator@D@2@@std@@H@std@@PAX@std@@@2@XZ ; std::_Tree<std::_Tmap_traits<std::basic_string<char,std::char_traits<char>,std::allocator<char> >,int,std::less<std::basic_string<char,std::char_traits<char>,std::allocator<char> > >,std::allocator<std::pair<std::basic_string<char,std::char_traits<char>,std::allocator<char> > const ,int> >,0> >::_Getal
PUBLIC	?_Get_scary@?$_Tree@V?$_Tmap_traits@V?$basic_string@DU?$char_traits@D@std@@V?$allocator@D@2@@std@@HU?$less@V?$basic_string@DU?$char_traits@D@std@@V?$allocator@D@2@@std@@@2@V?$allocator@U?$pair@$$CBV?$basic_string@DU?$char_traits@D@std@@V?$allocator@D@2@@std@@H@std@@@2@$0A@@std@@@std@@IAEPAV?$_Tree_val@U?$_Tree_simple_types@U?$pair@$$CBV?$basic_string@DU?$char_traits@D@std@@V?$allocator@D@2@@std@@H@std@@@std@@@2@XZ ; std::_Tree<std::_Tmap_traits<std::basic_string<char,std::char_traits<char>,std::allocator<char> >,int,std::less<std::basic_string<char,std::char_traits<char>,std::allocator<char> > >,std::allocator<std::pair<std::basic_string<char,std::char_traits<char>,std::allocator<char> > const ,int> >,0> >::_Get_scary
PUBLIC	??D?$_Tree_iterator@V?$_Tree_val@U?$_Tree_simple_types@U?$pair@$$CBV?$basic_string@DU?$char_traits@D@std@@V?$allocator@D@2@@std@@H@std@@@std@@@std@@@std@@QBEAAU?$pair@$$CBV?$basic_string@DU?$char_traits@D@std@@V?$allocator@D@2@@std@@H@1@XZ ; std::_Tree_iterator<std::_Tree_val<std::_Tree_simple_types<std::pair<std::basic_string<char,std::char_traits<char>,std::allocator<char> > const ,int> > > >::operator*
PUBLIC	??0?$_Tree_unchecked_const_iterator@V?$_Tree_val@U?$_Tree_simple_types@U?$pair@$$CBV?$basic_string@DU?$char_traits@D@std@@V?$allocator@D@2@@std@@H@std@@@std@@@std@@U_Iterator_base0@2@@std@@QAE@PAU?$_Tree_node@U?$pair@$$CBV?$basic_string@DU?$char_traits@D@std@@V?$allocator@D@2@@std@@H@std@@PAX@1@PBV?$_Tree_val@U?$_Tree_simple_types@U?$pair@$$CBV?$basic_string@DU?$char_traits@D@std@@V?$allocator@D@2@@std@@H@std@@@std@@@1@@Z ; std::_Tree_unchecked_const_iterator<std::_Tree_val<std::_Tree_simple_types<std::pair<std::basic_string<char,std::char_traits<char>,std::allocator<char> > const ,int> > >,std::_Iterator_base0>::_Tree_unchecked_const_iterator<std::_Tree_val<std::_Tree_simple_types<std::pair<std::basic_string<char,std::char_traits<char>,std::allocator<char> > const ,int> > >,std::_Iterator_base0>
PUBLIC	?_Orphan_non_end@?$_List_val@U?$_List_simple_types@USTextLine@CPythonEventManager@@@std@@@std@@QAEXXZ ; std::_List_val<std::_List_simple_types<CPythonEventManager::STextLine> >::_Orphan_non_end
PUBLIC	??D?$_List_const_iterator@V?$_List_val@U?$_List_simple_types@USTextLine@CPythonEventManager@@@std@@@std@@@std@@QBEABUSTextLine@CPythonEventManager@@XZ ; std::_List_const_iterator<std::_List_val<std::_List_simple_types<CPythonEventManager::STextLine> > >::operator*
PUBLIC	??E?$_List_const_iterator@V?$_List_val@U?$_List_simple_types@USTextLine@CPythonEventManager@@@std@@@std@@@std@@QAEAAV01@XZ ; std::_List_const_iterator<std::_List_val<std::_List_simple_types<CPythonEventManager::STextLine> > >::operator++
PUBLIC	??0?$_List_unchecked_const_iterator@V?$_List_val@U?$_List_simple_types@USTextLine@CPythonEventManager@@@std@@@std@@U_Iterator_base0@2@@std@@QAE@PAU?$_List_node@USTextLine@CPythonEventManager@@PAX@1@PBV?$_List_val@U?$_List_simple_types@USTextLine@CPythonEventManager@@@std@@@1@@Z ; std::_List_unchecked_const_iterator<std::_List_val<std::_List_simple_types<CPythonEventManager::STextLine> >,std::_Iterator_base0>::_List_unchecked_const_iterator<std::_List_val<std::_List_simple_types<CPythonEventManager::STextLine> >,std::_Iterator_base0>
PUBLIC	?push_back@?$vector@PAUSEventSet@CPythonEventManager@@V?$allocator@PAUSEventSet@CPythonEventManager@@@std@@@std@@QAEXABQAUSEventSet@CPythonEventManager@@@Z ; std::vector<CPythonEventManager::SEventSet *,std::allocator<CPythonEventManager::SEventSet *> >::push_back
PUBLIC	?pop_back@?$vector@PAUSEventSet@CPythonEventManager@@V?$allocator@PAUSEventSet@CPythonEventManager@@@std@@@std@@QAEXXZ ; std::vector<CPythonEventManager::SEventSet *,std::allocator<CPythonEventManager::SEventSet *> >::pop_back
PUBLIC	?empty@?$vector@PAUSEventSet@CPythonEventManager@@V?$allocator@PAUSEventSet@CPythonEventManager@@@std@@@std@@QBE_NXZ ; std::vector<CPythonEventManager::SEventSet *,std::allocator<CPythonEventManager::SEventSet *> >::empty
PUBLIC	?back@?$vector@PAUSEventSet@CPythonEventManager@@V?$allocator@PAUSEventSet@CPythonEventManager@@@std@@@std@@QAEAAPAUSEventSet@CPythonEventManager@@XZ ; std::vector<CPythonEventManager::SEventSet *,std::allocator<CPythonEventManager::SEventSet *> >::back
PUBLIC	?_Tidy@?$vector@PAUSEventSet@CPythonEventManager@@V?$allocator@PAUSEventSet@CPythonEventManager@@@std@@@std@@AAEXXZ ; std::vector<CPythonEventManager::SEventSet *,std::allocator<CPythonEventManager::SEventSet *> >::_Tidy
PUBLIC	?_Getal@?$vector@PAUSEventSet@CPythonEventManager@@V?$allocator@PAUSEventSet@CPythonEventManager@@@std@@@std@@AAEAAV?$allocator@PAUSEventSet@CPythonEventManager@@@2@XZ ; std::vector<CPythonEventManager::SEventSet *,std::allocator<CPythonEventManager::SEventSet *> >::_Getal
PUBLIC	?Destroy@?$CDynamicPool@USEventSet@CPythonEventManager@@@@QAEXXZ ; CDynamicPool<CPythonEventManager::SEventSet>::Destroy
PUBLIC	??0?$vector@PAVCGraphicTextInstance@@V?$allocator@PAVCGraphicTextInstance@@@std@@@std@@QAE@XZ ; std::vector<CGraphicTextInstance *,std::allocator<CGraphicTextInstance *> >::vector<CGraphicTextInstance *,std::allocator<CGraphicTextInstance *> >
PUBLIC	??1?$vector@PAVCGraphicTextInstance@@V?$allocator@PAVCGraphicTextInstance@@@std@@@std@@QAE@XZ ; std::vector<CGraphicTextInstance *,std::allocator<CGraphicTextInstance *> >::~vector<CGraphicTextInstance *,std::allocator<CGraphicTextInstance *> >
PUBLIC	?push_back@?$vector@PAVCGraphicTextInstance@@V?$allocator@PAVCGraphicTextInstance@@@std@@@std@@QAEXABQAVCGraphicTextInstance@@@Z ; std::vector<CGraphicTextInstance *,std::allocator<CGraphicTextInstance *> >::push_back
PUBLIC	?pop_back@?$vector@PAVCGraphicTextInstance@@V?$allocator@PAVCGraphicTextInstance@@@std@@@std@@QAEXXZ ; std::vector<CGraphicTextInstance *,std::allocator<CGraphicTextInstance *> >::pop_back
PUBLIC	?empty@?$vector@PAVCGraphicTextInstance@@V?$allocator@PAVCGraphicTextInstance@@@std@@@std@@QBE_NXZ ; std::vector<CGraphicTextInstance *,std::allocator<CGraphicTextInstance *> >::empty
PUBLIC	?back@?$vector@PAVCGraphicTextInstance@@V?$allocator@PAVCGraphicTextInstance@@@std@@@std@@QAEAAPAVCGraphicTextInstance@@XZ ; std::vector<CGraphicTextInstance *,std::allocator<CGraphicTextInstance *> >::back
PUBLIC	?pointer_to@?$pointer_traits@PAU?$pair@$$CBV?$basic_string@DU?$char_traits@D@std@@V?$allocator@D@2@@std@@H@std@@@std@@SAPAU?$pair@$$CBV?$basic_string@DU?$char_traits@D@std@@V?$allocator@D@2@@std@@H@2@AAU32@@Z ; std::pointer_traits<std::pair<std::basic_string<char,std::char_traits<char>,std::allocator<char> > const ,int> *>::pointer_to
PUBLIC	??$?0$$V@?$_Compressed_pair@V?$allocator@U?$_List_node@USArgumet@script@@PAX@std@@@std@@V?$_List_val@U?$_List_simple_types@USArgumet@script@@@std@@@2@$00@std@@QAE@U_Zero_then_variadic_args_t@1@@Z ; std::_Compressed_pair<std::allocator<std::_List_node<script::SArgumet,void *> >,std::_List_val<std::_List_simple_types<script::SArgumet> >,1>::_Compressed_pair<std::allocator<std::_List_node<script::SArgumet,void *> >,std::_List_val<std::_List_simple_types<script::SArgumet> >,1><>
PUBLIC	??$addressof@V?$_List_val@U?$_List_simple_types@USArgumet@script@@@std@@@std@@@std@@YAPAV?$_List_val@U?$_List_simple_types@USArgumet@script@@@std@@@0@AAV10@@Z ; std::addressof<std::_List_val<std::_List_simple_types<script::SArgumet> > >
PUBLIC	??$?0$$V@?$_Compressed_pair@V?$allocator@U?$_List_node@USTextLine@CPythonEventManager@@PAX@std@@@std@@V?$_List_val@U?$_List_simple_types@USTextLine@CPythonEventManager@@@std@@@2@$00@std@@QAE@U_Zero_then_variadic_args_t@1@@Z ; std::_Compressed_pair<std::allocator<std::_List_node<CPythonEventManager::STextLine,void *> >,std::_List_val<std::_List_simple_types<CPythonEventManager::STextLine> >,1>::_Compressed_pair<std::allocator<std::_List_node<CPythonEventManager::STextLine,void *> >,std::_List_val<std::_List_simple_types<CPythonEventManager::STextLine> >,1><>
PUBLIC	??$addressof@V?$_List_val@U?$_List_simple_types@USTextLine@CPythonEventManager@@@std@@@std@@@std@@YAPAV?$_List_val@U?$_List_simple_types@USTextLine@CPythonEventManager@@@std@@@0@AAV10@@Z ; std::addressof<std::_List_val<std::_List_simple_types<CPythonEventManager::STextLine> > >
PUBLIC	??$_Emplace@ABUSTextLine@CPythonEventManager@@@?$list@USTextLine@CPythonEventManager@@V?$allocator@USTextLine@CPythonEventManager@@@std@@@std@@QAEPAU?$_List_node@USTextLine@CPythonEventManager@@PAX@1@QAU21@ABUSTextLine@CPythonEventManager@@@Z ; std::list<CPythonEventManager::STextLine,std::allocator<CPythonEventManager::STextLine> >::_Emplace<CPythonEventManager::STextLine const &>
PUBLIC	??$_Free_non_head@V?$allocator@U?$_List_node@USTextLine@CPythonEventManager@@PAX@std@@@std@@@?$_List_node@USTextLine@CPythonEventManager@@PAX@std@@SAXAAV?$allocator@U?$_List_node@USTextLine@CPythonEventManager@@PAX@std@@@1@PAU01@@Z ; std::_List_node<CPythonEventManager::STextLine,void *>::_Free_non_head<std::allocator<std::_List_node<CPythonEventManager::STextLine,void *> > >
PUBLIC	??$_Try_emplace@V?$basic_string@DU?$char_traits@D@std@@V?$allocator@D@2@@std@@$$V@?$map@V?$basic_string@DU?$char_traits@D@std@@V?$allocator@D@2@@std@@HU?$less@V?$basic_string@DU?$char_traits@D@std@@V?$allocator@D@2@@std@@@2@V?$allocator@U?$pair@$$CBV?$basic_string@DU?$char_traits@D@std@@V?$allocator@D@2@@std@@H@std@@@2@@std@@AAE?AU?$pair@PAU?$_Tree_node@U?$pair@$$CBV?$basic_string@DU?$char_traits@D@std@@V?$allocator@D@2@@std@@H@std@@PAX@std@@_N@1@$$QAV?$basic_string@DU?$char_traits@D@std@@V?$allocator@D@2@@1@@Z ; std::map<std::basic_string<char,std::char_traits<char>,std::allocator<char> >,int,std::less<std::basic_string<char,std::char_traits<char>,std::allocator<char> > >,std::allocator<std::pair<std::basic_string<char,std::char_traits<char>,std::allocator<char> > const ,int> > >::_Try_emplace<std::basic_string<char,std::char_traits<char>,std::allocator<char> > >
PUBLIC	??$_Erase_head@V?$allocator@U?$_Tree_node@U?$pair@$$CBV?$basic_string@DU?$char_traits@D@std@@V?$allocator@D@2@@std@@H@std@@PAX@std@@@std@@@?$_Tree_val@U?$_Tree_simple_types@U?$pair@$$CBV?$basic_string@DU?$char_traits@D@std@@V?$allocator@D@2@@std@@H@std@@@std@@@std@@QAEXAAV?$allocator@U?$_Tree_node@U?$pair@$$CBV?$basic_string@DU?$char_traits@D@std@@V?$allocator@D@2@@std@@H@std@@PAX@std@@@1@@Z ; std::_Tree_val<std::_Tree_simple_types<std::pair<std::basic_string<char,std::char_traits<char>,std::allocator<char> > const ,int> > >::_Erase_head<std::allocator<std::_Tree_node<std::pair<std::basic_string<char,std::char_traits<char>,std::allocator<char> > const ,int>,void *> > >
PUBLIC	??$_Find@V?$basic_string@DU?$char_traits@D@std@@V?$allocator@D@2@@std@@@?$_Tree@V?$_Tmap_traits@V?$basic_string@DU?$char_traits@D@std@@V?$allocator@D@2@@std@@HU?$less@V?$basic_string@DU?$char_traits@D@std@@V?$allocator@D@2@@std@@@2@V?$allocator@U?$pair@$$CBV?$basic_string@DU?$char_traits@D@std@@V?$allocator@D@2@@std@@H@std@@@2@$0A@@std@@@std@@ABEPAU?$_Tree_node@U?$pair@$$CBV?$basic_string@DU?$char_traits@D@std@@V?$allocator@D@2@@std@@H@std@@PAX@1@ABV?$basic_string@DU?$char_traits@D@std@@V?$allocator@D@2@@1@@Z ; std::_Tree<std::_Tmap_traits<std::basic_string<char,std::char_traits<char>,std::allocator<char> >,int,std::less<std::basic_string<char,std::char_traits<char>,std::allocator<char> > >,std::allocator<std::pair<std::basic_string<char,std::char_traits<char>,std::allocator<char> > const ,int> >,0> >::_Find<std::basic_string<char,std::char_traits<char>,std::allocator<char> > >
PUBLIC	??$?0$$V@?$_Compressed_pair@V?$allocator@PAUSEventSet@CPythonEventManager@@@std@@V?$_Vector_val@U?$_Simple_types@PAUSEventSet@CPythonEventManager@@@std@@@2@$00@std@@QAE@U_Zero_then_variadic_args_t@1@@Z ; std::_Compressed_pair<std::allocator<CPythonEventManager::SEventSet *>,std::_Vector_val<std::_Simple_types<CPythonEventManager::SEventSet *> >,1>::_Compressed_pair<std::allocator<CPythonEventManager::SEventSet *>,std::_Vector_val<std::_Simple_types<CPythonEventManager::SEventSet *> >,1><>
PUBLIC	??$_Emplace_one_at_back@PAUSEventSet@CPythonEventManager@@@?$vector@PAUSEventSet@CPythonEventManager@@V?$allocator@PAUSEventSet@CPythonEventManager@@@std@@@std@@AAEAAPAUSEventSet@CPythonEventManager@@$$QAPAU23@@Z ; std::vector<CPythonEventManager::SEventSet *,std::allocator<CPythonEventManager::SEventSet *> >::_Emplace_one_at_back<CPythonEventManager::SEventSet *>
PUBLIC	??$move@AAPAUSEventSet@CPythonEventManager@@@std@@YA$$QAPAUSEventSet@CPythonEventManager@@AAPAU12@@Z ; std::move<CPythonEventManager::SEventSet * &>
PUBLIC	??$_Destroy_range@V?$allocator@PAUSEventSet@CPythonEventManager@@@std@@@std@@YAXPAPAUSEventSet@CPythonEventManager@@QAPAU12@AAV?$allocator@PAUSEventSet@CPythonEventManager@@@0@@Z ; std::_Destroy_range<std::allocator<CPythonEventManager::SEventSet *> >
PUBLIC	??0?$_List_const_iterator@V?$_List_val@U?$_List_simple_types@USArgumet@script@@@std@@@std@@@std@@QAE@PAU?$_List_node@USArgumet@script@@PAX@1@PBV?$_List_val@U?$_List_simple_types@USArgumet@script@@@std@@@1@@Z ; std::_List_const_iterator<std::_List_val<std::_List_simple_types<script::SArgumet> > >::_List_const_iterator<std::_List_val<std::_List_simple_types<script::SArgumet> > >
PUBLIC	??0?$_List_const_iterator@V?$_List_val@U?$_List_simple_types@USTextLine@CPythonEventManager@@@std@@@std@@@std@@QAE@PAU?$_List_node@USTextLine@CPythonEventManager@@PAX@1@PBV?$_List_val@U?$_List_simple_types@USTextLine@CPythonEventManager@@@std@@@1@@Z ; std::_List_const_iterator<std::_List_val<std::_List_simple_types<CPythonEventManager::STextLine> > >::_List_const_iterator<std::_List_val<std::_List_simple_types<CPythonEventManager::STextLine> > >
PUBLIC	??0?$_Tree_const_iterator@V?$_Tree_val@U?$_Tree_simple_types@U?$pair@$$CBV?$basic_string@DU?$char_traits@D@std@@V?$allocator@D@2@@std@@H@std@@@std@@@std@@@std@@QAE@PAU?$_Tree_node@U?$pair@$$CBV?$basic_string@DU?$char_traits@D@std@@V?$allocator@D@2@@std@@H@std@@PAX@1@PBV?$_Tree_val@U?$_Tree_simple_types@U?$pair@$$CBV?$basic_string@DU?$char_traits@D@std@@V?$allocator@D@2@@std@@H@std@@@std@@@1@@Z ; std::_Tree_const_iterator<std::_Tree_val<std::_Tree_simple_types<std::pair<std::basic_string<char,std::char_traits<char>,std::allocator<char> > const ,int> > > >::_Tree_const_iterator<std::_Tree_val<std::_Tree_simple_types<std::pair<std::basic_string<char,std::char_traits<char>,std::allocator<char> > const ,int> > > >
PUBLIC	??_G?$CDynamicPool@VCGraphicTextInstance@@@@UAEPAXI@Z ; CDynamicPool<CGraphicTextInstance>::`scalar deleting destructor'
PUBLIC	??0?$_List_iterator@V?$_List_val@U?$_List_simple_types@USArgumet@script@@@std@@@std@@@std@@QAE@PAU?$_List_node@USArgumet@script@@PAX@1@PBV?$_List_val@U?$_List_simple_types@USArgumet@script@@@std@@@1@@Z ; std::_List_iterator<std::_List_val<std::_List_simple_types<script::SArgumet> > >::_List_iterator<std::_List_val<std::_List_simple_types<script::SArgumet> > >
PUBLIC	??_G?$CSingleton@VCPythonEventManager@@@@UAEPAXI@Z ; CSingleton<CPythonEventManager>::`scalar deleting destructor'
PUBLIC	??0?$_List_iterator@V?$_List_val@U?$_List_simple_types@USTextLine@CPythonEventManager@@@std@@@std@@@std@@QAE@PAU?$_List_node@USTextLine@CPythonEventManager@@PAX@1@PBV?$_List_val@U?$_List_simple_types@USTextLine@CPythonEventManager@@@std@@@1@@Z ; std::_List_iterator<std::_List_val<std::_List_simple_types<CPythonEventManager::STextLine> > >::_List_iterator<std::_List_val<std::_List_simple_types<CPythonEventManager::STextLine> > >
PUBLIC	??0?$_Tree_iterator@V?$_Tree_val@U?$_Tree_simple_types@U?$pair@$$CBV?$basic_string@DU?$char_traits@D@std@@V?$allocator@D@2@@std@@H@std@@@std@@@std@@@std@@QAE@PAU?$_Tree_node@U?$pair@$$CBV?$basic_string@DU?$char_traits@D@std@@V?$allocator@D@2@@std@@H@std@@PAX@1@PBV?$_Tree_val@U?$_Tree_simple_types@U?$pair@$$CBV?$basic_string@DU?$char_traits@D@std@@V?$allocator@D@2@@std@@H@std@@@std@@@1@@Z ; std::_Tree_iterator<std::_Tree_val<std::_Tree_simple_types<std::pair<std::basic_string<char,std::char_traits<char>,std::allocator<char> > const ,int> > > >::_Tree_iterator<std::_Tree_val<std::_Tree_simple_types<std::pair<std::basic_string<char,std::char_traits<char>,std::allocator<char> > const ,int> > > >
PUBLIC	??_G?$CDynamicPool@USEventSet@CPythonEventManager@@@@UAEPAXI@Z ; CDynamicPool<CPythonEventManager::SEventSet>::`scalar deleting destructor'
PUBLIC	??0?$CDynamicPool@VCGraphicTextInstance@@@@QAE@XZ ; CDynamicPool<CGraphicTextInstance>::CDynamicPool<CGraphicTextInstance>
PUBLIC	??1?$CDynamicPool@VCGraphicTextInstance@@@@UAE@XZ ; CDynamicPool<CGraphicTextInstance>::~CDynamicPool<CGraphicTextInstance>
PUBLIC	?Clear@?$CDynamicPool@VCGraphicTextInstance@@@@QAEXXZ ; CDynamicPool<CGraphicTextInstance>::Clear
PUBLIC	?Alloc@?$CDynamicPool@VCGraphicTextInstance@@@@QAEPAVCGraphicTextInstance@@XZ ; CDynamicPool<CGraphicTextInstance>::Alloc
PUBLIC	?Free@?$CDynamicPool@VCGraphicTextInstance@@@@QAEXPAVCGraphicTextInstance@@@Z ; CDynamicPool<CGraphicTextInstance>::Free
PUBLIC	??0?$list@USArgumet@script@@V?$allocator@USArgumet@script@@@std@@@std@@QAE@XZ ; std::list<script::SArgumet,std::allocator<script::SArgumet> >::list<script::SArgumet,std::allocator<script::SArgumet> >
PUBLIC	??1?$list@USArgumet@script@@V?$allocator@USArgumet@script@@@std@@@std@@QAE@XZ ; std::list<script::SArgumet,std::allocator<script::SArgumet> >::~list<script::SArgumet,std::allocator<script::SArgumet> >
PUBLIC	?begin@?$list@USArgumet@script@@V?$allocator@USArgumet@script@@@std@@@std@@QAE?AV?$_List_iterator@V?$_List_val@U?$_List_simple_types@USArgumet@script@@@std@@@std@@@2@XZ ; std::list<script::SArgumet,std::allocator<script::SArgumet> >::begin
PUBLIC	?end@?$list@USArgumet@script@@V?$allocator@USArgumet@script@@@std@@@std@@QAE?AV?$_List_iterator@V?$_List_val@U?$_List_simple_types@USArgumet@script@@@std@@@std@@@2@XZ ; std::list<script::SArgumet,std::allocator<script::SArgumet> >::end
PUBLIC	?size@?$list@USArgumet@script@@V?$allocator@USArgumet@script@@@std@@@std@@QBEIXZ ; std::list<script::SArgumet,std::allocator<script::SArgumet> >::size
PUBLIC	?empty@?$list@USArgumet@script@@V?$allocator@USArgumet@script@@@std@@@std@@QBE_NXZ ; std::list<script::SArgumet,std::allocator<script::SArgumet> >::empty
PUBLIC	??D?$_List_iterator@V?$_List_val@U?$_List_simple_types@USArgumet@script@@@std@@@std@@@std@@QBEAAUSArgumet@script@@XZ ; std::_List_iterator<std::_List_val<std::_List_simple_types<script::SArgumet> > >::operator*
PUBLIC	??E?$_List_iterator@V?$_List_val@U?$_List_simple_types@USArgumet@script@@@std@@@std@@@std@@QAEAAV01@XZ ; std::_List_iterator<std::_List_val<std::_List_simple_types<script::SArgumet> > >::operator++
PUBLIC	??8?$_List_const_iterator@V?$_List_val@U?$_List_simple_types@USArgumet@script@@@std@@@std@@@std@@QBE_NABV01@@Z ; std::_List_const_iterator<std::_List_val<std::_List_simple_types<script::SArgumet> > >::operator==
PUBLIC	??0?$CSingleton@VCPythonEventManager@@@@QAE@XZ	; CSingleton<CPythonEventManager>::CSingleton<CPythonEventManager>
PUBLIC	??1?$CSingleton@VCPythonEventManager@@@@UAE@XZ	; CSingleton<CPythonEventManager>::~CSingleton<CPythonEventManager>
PUBLIC	??0?$list@USTextLine@CPythonEventManager@@V?$allocator@USTextLine@CPythonEventManager@@@std@@@std@@QAE@XZ ; std::list<CPythonEventManager::STextLine,std::allocator<CPythonEventManager::STextLine> >::list<CPythonEventManager::STextLine,std::allocator<CPythonEventManager::STextLine> >
PUBLIC	??1?$list@USTextLine@CPythonEventManager@@V?$allocator@USTextLine@CPythonEventManager@@@std@@@std@@QAE@XZ ; std::list<CPythonEventManager::STextLine,std::allocator<CPythonEventManager::STextLine> >::~list<CPythonEventManager::STextLine,std::allocator<CPythonEventManager::STextLine> >
PUBLIC	?begin@?$list@USTextLine@CPythonEventManager@@V?$allocator@USTextLine@CPythonEventManager@@@std@@@std@@QAE?AV?$_List_iterator@V?$_List_val@U?$_List_simple_types@USTextLine@CPythonEventManager@@@std@@@std@@@2@XZ ; std::list<CPythonEventManager::STextLine,std::allocator<CPythonEventManager::STextLine> >::begin
PUBLIC	?end@?$list@USTextLine@CPythonEventManager@@V?$allocator@USTextLine@CPythonEventManager@@@std@@@std@@QAE?AV?$_List_iterator@V?$_List_val@U?$_List_simple_types@USTextLine@CPythonEventManager@@@std@@@std@@@2@XZ ; std::list<CPythonEventManager::STextLine,std::allocator<CPythonEventManager::STextLine> >::end
PUBLIC	?size@?$list@USTextLine@CPythonEventManager@@V?$allocator@USTextLine@CPythonEventManager@@@std@@@std@@QBEIXZ ; std::list<CPythonEventManager::STextLine,std::allocator<CPythonEventManager::STextLine> >::size
PUBLIC	?front@?$list@USTextLine@CPythonEventManager@@V?$allocator@USTextLine@CPythonEventManager@@@std@@@std@@QAEAAUSTextLine@CPythonEventManager@@XZ ; std::list<CPythonEventManager::STextLine,std::allocator<CPythonEventManager::STextLine> >::front
PUBLIC	?push_back@?$list@USTextLine@CPythonEventManager@@V?$allocator@USTextLine@CPythonEventManager@@@std@@@std@@QAEXABUSTextLine@CPythonEventManager@@@Z ; std::list<CPythonEventManager::STextLine,std::allocator<CPythonEventManager::STextLine> >::push_back
PUBLIC	?clear@?$list@USTextLine@CPythonEventManager@@V?$allocator@USTextLine@CPythonEventManager@@@std@@@std@@QAEXXZ ; std::list<CPythonEventManager::STextLine,std::allocator<CPythonEventManager::STextLine> >::clear
PUBLIC	??0?$map@V?$basic_string@DU?$char_traits@D@std@@V?$allocator@D@2@@std@@HU?$less@V?$basic_string@DU?$char_traits@D@std@@V?$allocator@D@2@@std@@@2@V?$allocator@U?$pair@$$CBV?$basic_string@DU?$char_traits@D@std@@V?$allocator@D@2@@std@@H@std@@@2@@std@@QAE@XZ ; std::map<std::basic_string<char,std::char_traits<char>,std::allocator<char> >,int,std::less<std::basic_string<char,std::char_traits<char>,std::allocator<char> > >,std::allocator<std::pair<std::basic_string<char,std::char_traits<char>,std::allocator<char> > const ,int> > >::map<std::basic_string<char,std::char_traits<char>,std::allocator<char> >,int,std::less<std::basic_string<char,std::char_traits<char>,std::allocator<char> > >,std::allocator<std::pair<std::basic_string<char,std::char_traits<char>,std::allocator<char> > const ,int> > >
PUBLIC	??A?$map@V?$basic_string@DU?$char_traits@D@std@@V?$allocator@D@2@@std@@HU?$less@V?$basic_string@DU?$char_traits@D@std@@V?$allocator@D@2@@std@@@2@V?$allocator@U?$pair@$$CBV?$basic_string@DU?$char_traits@D@std@@V?$allocator@D@2@@std@@H@std@@@2@@std@@QAEAAH$$QAV?$basic_string@DU?$char_traits@D@std@@V?$allocator@D@2@@1@@Z ; std::map<std::basic_string<char,std::char_traits<char>,std::allocator<char> >,int,std::less<std::basic_string<char,std::char_traits<char>,std::allocator<char> > >,std::allocator<std::pair<std::basic_string<char,std::char_traits<char>,std::allocator<char> > const ,int> > >::operator[]
PUBLIC	??1?$_Tree@V?$_Tmap_traits@V?$basic_string@DU?$char_traits@D@std@@V?$allocator@D@2@@std@@HU?$less@V?$basic_string@DU?$char_traits@D@std@@V?$allocator@D@2@@std@@@2@V?$allocator@U?$pair@$$CBV?$basic_string@DU?$char_traits@D@std@@V?$allocator@D@2@@std@@H@std@@@2@$0A@@std@@@std@@QAE@XZ ; std::_Tree<std::_Tmap_traits<std::basic_string<char,std::char_traits<char>,std::allocator<char> >,int,std::less<std::basic_string<char,std::char_traits<char>,std::allocator<char> > >,std::allocator<std::pair<std::basic_string<char,std::char_traits<char>,std::allocator<char> > const ,int> >,0> >::~_Tree<std::_Tmap_traits<std::basic_string<char,std::char_traits<char>,std::allocator<char> >,int,std::less<std::basic_string<char,std::char_traits<char>,std::allocator<char> > >,std::allocator<std::pair<std::basic_string<char,std::char_traits<char>,std::allocator<char> > const ,int> >,0> >
PUBLIC	?end@?$_Tree@V?$_Tmap_traits@V?$basic_string@DU?$char_traits@D@std@@V?$allocator@D@2@@std@@HU?$less@V?$basic_string@DU?$char_traits@D@std@@V?$allocator@D@2@@std@@@2@V?$allocator@U?$pair@$$CBV?$basic_string@DU?$char_traits@D@std@@V?$allocator@D@2@@std@@H@std@@@2@$0A@@std@@@std@@QAE?AV?$_Tree_iterator@V?$_Tree_val@U?$_Tree_simple_types@U?$pair@$$CBV?$basic_string@DU?$char_traits@D@std@@V?$allocator@D@2@@std@@H@std@@@std@@@std@@@2@XZ ; std::_Tree<std::_Tmap_traits<std::basic_string<char,std::char_traits<char>,std::allocator<char> >,int,std::less<std::basic_string<char,std::char_traits<char>,std::allocator<char> > >,std::allocator<std::pair<std::basic_string<char,std::char_traits<char>,std::allocator<char> > const ,int> >,0> >::end
PUBLIC	?find@?$_Tree@V?$_Tmap_traits@V?$basic_string@DU?$char_traits@D@std@@V?$allocator@D@2@@std@@HU?$less@V?$basic_string@DU?$char_traits@D@std@@V?$allocator@D@2@@std@@@2@V?$allocator@U?$pair@$$CBV?$basic_string@DU?$char_traits@D@std@@V?$allocator@D@2@@std@@H@std@@@2@$0A@@std@@@std@@QAE?AV?$_Tree_iterator@V?$_Tree_val@U?$_Tree_simple_types@U?$pair@$$CBV?$basic_string@DU?$char_traits@D@std@@V?$allocator@D@2@@std@@H@std@@@std@@@std@@@2@ABV?$basic_string@DU?$char_traits@D@std@@V?$allocator@D@2@@2@@Z ; std::_Tree<std::_Tmap_traits<std::basic_string<char,std::char_traits<char>,std::allocator<char> >,int,std::less<std::basic_string<char,std::char_traits<char>,std::allocator<char> > >,std::allocator<std::pair<std::basic_string<char,std::char_traits<char>,std::allocator<char> > const ,int> >,0> >::find
PUBLIC	??8?$_Tree_const_iterator@V?$_Tree_val@U?$_Tree_simple_types@U?$pair@$$CBV?$basic_string@DU?$char_traits@D@std@@V?$allocator@D@2@@std@@H@std@@@std@@@std@@@std@@QBE_NABV01@@Z ; std::_Tree_const_iterator<std::_Tree_val<std::_Tree_simple_types<std::pair<std::basic_string<char,std::char_traits<char>,std::allocator<char> > const ,int> > > >::operator==
PUBLIC	??C?$_Tree_iterator@V?$_Tree_val@U?$_Tree_simple_types@U?$pair@$$CBV?$basic_string@DU?$char_traits@D@std@@V?$allocator@D@2@@std@@H@std@@@std@@@std@@@std@@QBEPAU?$pair@$$CBV?$basic_string@DU?$char_traits@D@std@@V?$allocator@D@2@@std@@H@1@XZ ; std::_Tree_iterator<std::_Tree_val<std::_Tree_simple_types<std::pair<std::basic_string<char,std::char_traits<char>,std::allocator<char> > const ,int> > > >::operator->
PUBLIC	??D?$_List_iterator@V?$_List_val@U?$_List_simple_types@USTextLine@CPythonEventManager@@@std@@@std@@@std@@QBEAAUSTextLine@CPythonEventManager@@XZ ; std::_List_iterator<std::_List_val<std::_List_simple_types<CPythonEventManager::STextLine> > >::operator*
PUBLIC	??E?$_List_iterator@V?$_List_val@U?$_List_simple_types@USTextLine@CPythonEventManager@@@std@@@std@@@std@@QAEAAV01@XZ ; std::_List_iterator<std::_List_val<std::_List_simple_types<CPythonEventManager::STextLine> > >::operator++
PUBLIC	??8?$_List_const_iterator@V?$_List_val@U?$_List_simple_types@USTextLine@CPythonEventManager@@@std@@@std@@@std@@QBE_NABV01@@Z ; std::_List_const_iterator<std::_List_val<std::_List_simple_types<CPythonEventManager::STextLine> > >::operator==
PUBLIC	??0?$vector@PAUSEventSet@CPythonEventManager@@V?$allocator@PAUSEventSet@CPythonEventManager@@@std@@@std@@QAE@XZ ; std::vector<CPythonEventManager::SEventSet *,std::allocator<CPythonEventManager::SEventSet *> >::vector<CPythonEventManager::SEventSet *,std::allocator<CPythonEventManager::SEventSet *> >
PUBLIC	??1?$vector@PAUSEventSet@CPythonEventManager@@V?$allocator@PAUSEventSet@CPythonEventManager@@@std@@@std@@QAE@XZ ; std::vector<CPythonEventManager::SEventSet *,std::allocator<CPythonEventManager::SEventSet *> >::~vector<CPythonEventManager::SEventSet *,std::allocator<CPythonEventManager::SEventSet *> >
PUBLIC	?push_back@?$vector@PAUSEventSet@CPythonEventManager@@V?$allocator@PAUSEventSet@CPythonEventManager@@@std@@@std@@QAEX$$QAPAUSEventSet@CPythonEventManager@@@Z ; std::vector<CPythonEventManager::SEventSet *,std::allocator<CPythonEventManager::SEventSet *> >::push_back
PUBLIC	?clear@?$vector@PAUSEventSet@CPythonEventManager@@V?$allocator@PAUSEventSet@CPythonEventManager@@@std@@@std@@QAEXXZ ; std::vector<CPythonEventManager::SEventSet *,std::allocator<CPythonEventManager::SEventSet *> >::clear
PUBLIC	?size@?$vector@PAUSEventSet@CPythonEventManager@@V?$allocator@PAUSEventSet@CPythonEventManager@@@std@@@std@@QBEIXZ ; std::vector<CPythonEventManager::SEventSet *,std::allocator<CPythonEventManager::SEventSet *> >::size
PUBLIC	??A?$vector@PAUSEventSet@CPythonEventManager@@V?$allocator@PAUSEventSet@CPythonEventManager@@@std@@@std@@QAEAAPAUSEventSet@CPythonEventManager@@I@Z ; std::vector<CPythonEventManager::SEventSet *,std::allocator<CPythonEventManager::SEventSet *> >::operator[]
PUBLIC	??0?$CDynamicPool@USEventSet@CPythonEventManager@@@@QAE@XZ ; CDynamicPool<CPythonEventManager::SEventSet>::CDynamicPool<CPythonEventManager::SEventSet>
PUBLIC	??1?$CDynamicPool@USEventSet@CPythonEventManager@@@@UAE@XZ ; CDynamicPool<CPythonEventManager::SEventSet>::~CDynamicPool<CPythonEventManager::SEventSet>
PUBLIC	?Clear@?$CDynamicPool@USEventSet@CPythonEventManager@@@@QAEXXZ ; CDynamicPool<CPythonEventManager::SEventSet>::Clear
PUBLIC	?Alloc@?$CDynamicPool@USEventSet@CPythonEventManager@@@@QAEPAUSEventSet@CPythonEventManager@@XZ ; CDynamicPool<CPythonEventManager::SEventSet>::Alloc
PUBLIC	?Free@?$CDynamicPool@USEventSet@CPythonEventManager@@@@QAEXPAUSEventSet@CPythonEventManager@@@Z ; CDynamicPool<CPythonEventManager::SEventSet>::Free
PUBLIC	??1?$map@V?$basic_string@DU?$char_traits@D@std@@V?$allocator@D@2@@std@@HU?$less@V?$basic_string@DU?$char_traits@D@std@@V?$allocator@D@2@@std@@@2@V?$allocator@U?$pair@$$CBV?$basic_string@DU?$char_traits@D@std@@V?$allocator@D@2@@std@@H@std@@@2@@std@@QAE@XZ ; std::map<std::basic_string<char,std::char_traits<char>,std::allocator<char> >,int,std::less<std::basic_string<char,std::char_traits<char>,std::allocator<char> > >,std::allocator<std::pair<std::basic_string<char,std::char_traits<char>,std::allocator<char> > const ,int> > >::~map<std::basic_string<char,std::char_traits<char>,std::allocator<char> >,int,std::less<std::basic_string<char,std::char_traits<char>,std::allocator<char> > >,std::allocator<std::pair<std::basic_string<char,std::char_traits<char>,std::allocator<char> > const ,int> > >
PUBLIC	??_GCPythonEventManager@@UAEPAXI@Z		; CPythonEventManager::`scalar deleting destructor'
PUBLIC	?GetTotalLineCount@CPythonEventManager@@QAEHH@Z	; CPythonEventManager::GetTotalLineCount
PUBLIC	?AllProcessEventSet@CPythonEventManager@@QAEXH@Z ; CPythonEventManager::AllProcessEventSet
PUBLIC	?GetProcessedLineCount@CPythonEventManager@@QAEHH@Z ; CPythonEventManager::GetProcessedLineCount
PUBLIC	?SetYPosition@CPythonEventManager@@QAEXHH@Z	; CPythonEventManager::SetYPosition
PUBLIC	?GetLineHeight@CPythonEventManager@@QAEHH@Z	; CPythonEventManager::GetLineHeight
PUBLIC	?SetLeftTimeString@CPythonEventManager@@QAEXPBD@Z ; CPythonEventManager::SetLeftTimeString
PUBLIC	?SetInterfaceWindow@CPythonEventManager@@QAEXPAU_object@@@Z ; CPythonEventManager::SetInterfaceWindow
PUBLIC	?CheckEventSetIndex@CPythonEventManager@@IAE_NH@Z ; CPythonEventManager::CheckEventSetIndex
PUBLIC	?GetScriptEventIndex@CPythonEventManager@@IAE_NPBDPAH1@Z ; CPythonEventManager::GetScriptEventIndex
PUBLIC	?__AddSpace@CPythonEventManager@@IAEXAAUSEventSet@1@H@Z ; CPythonEventManager::__AddSpace
PUBLIC	?RefreshLinePosition@CPythonEventManager@@IAEXPAUSEventSet@1@@Z ; CPythonEventManager::RefreshLinePosition
PUBLIC	?__InsertLine@CPythonEventManager@@IAEXAAUSEventSet@1@HH@Z ; CPythonEventManager::__InsertLine
PUBLIC	?ClearLine@CPythonEventManager@@IAEXPAUSEventSet@1@@Z ; CPythonEventManager::ClearLine
PUBLIC	?GetLineCount@CPythonEventManager@@QAEHH@Z	; CPythonEventManager::GetLineCount
PUBLIC	?GetVisibleStartLine@CPythonEventManager@@QAEHH@Z ; CPythonEventManager::GetVisibleStartLine
PUBLIC	?SetVisibleLineCount@CPythonEventManager@@QAEXHH@Z ; CPythonEventManager::SetVisibleLineCount
PUBLIC	?SetVisibleStartLine@CPythonEventManager@@QAEXHH@Z ; CPythonEventManager::SetVisibleStartLine
PUBLIC	?SelectAnswer@CPythonEventManager@@QAEXHH@Z	; CPythonEventManager::SelectAnswer
PUBLIC	?MakeQuestion@CPythonEventManager@@IAEXPAUSEventSet@1@AAV?$list@USArgumet@script@@V?$allocator@USArgumet@script@@@std@@@std@@@Z ; CPythonEventManager::MakeQuestion
PUBLIC	?MakeNextButton@CPythonEventManager@@IAEXPAUSEventSet@1@H@Z ; CPythonEventManager::MakeNextButton
PUBLIC	?EndEventProcess@CPythonEventManager@@QAEXH@Z	; CPythonEventManager::EndEventProcess
PUBLIC	?IsWait@CPythonEventManager@@QAE_NH@Z		; CPythonEventManager::IsWait
PUBLIC	?Skip@CPythonEventManager@@QAEXH@Z		; CPythonEventManager::Skip
PUBLIC	?RenderEventSet@CPythonEventManager@@QAEXH@Z	; CPythonEventManager::RenderEventSet
PUBLIC	?ProcessEventSet@CPythonEventManager@@IAE_NPAUSEventSet@1@@Z ; CPythonEventManager::ProcessEventSet
PUBLIC	?SetEventSetWidth@CPythonEventManager@@QAEXHH@Z	; CPythonEventManager::SetEventSetWidth
PUBLIC	?UpdateEventSet@CPythonEventManager@@QAEXHHH@Z	; CPythonEventManager::UpdateEventSet
PUBLIC	?InsertText@CPythonEventManager@@QAEXHPBDH@Z	; CPythonEventManager::InsertText
PUBLIC	?AddEventSetLocalYPosition@CPythonEventManager@@QAEXHH@Z ; CPythonEventManager::AddEventSetLocalYPosition
PUBLIC	?GetEventSetLocalYPosition@CPythonEventManager@@QAEHH@Z ; CPythonEventManager::GetEventSetLocalYPosition
PUBLIC	?SetEventHandler@CPythonEventManager@@QAEXHPAU_object@@@Z ; CPythonEventManager::SetEventHandler
PUBLIC	?SetRestrictedCount@CPythonEventManager@@QAEXHH@Z ; CPythonEventManager::SetRestrictedCount
PUBLIC	?GetEmptyEventSetSlot@CPythonEventManager@@IAEKXZ ; CPythonEventManager::GetEmptyEventSetSlot
PUBLIC	?__ClearEventSetp@CPythonEventManager@@QAEXPAUSEventSet@1@@Z ; CPythonEventManager::__ClearEventSetp
PUBLIC	?ClearEventSeti@CPythonEventManager@@QAEXH@Z	; CPythonEventManager::ClearEventSeti
PUBLIC	??1SCmd@script@@QAE@XZ				; script::SCmd::~SCmd
PUBLIC	?RegisterEventSetFromString@CPythonEventManager@@QAEHABV?$basic_string@DU?$char_traits@D@std@@V?$allocator@D@2@@std@@@Z ; CPythonEventManager::RegisterEventSetFromString
PUBLIC	?RegisterEventSet@CPythonEventManager@@QAEHPBD@Z ; CPythonEventManager::RegisterEventSet
PUBLIC	?__InitEventSet@CPythonEventManager@@IAEXAAUSEventSet@1@@Z ; CPythonEventManager::__InitEventSet
PUBLIC	?GetCameraSettingFromArgList@@YAXAAV?$list@USArgumet@script@@V?$allocator@USArgumet@script@@@std@@@std@@PAUSCameraSetting@IAbstractApplication@@@Z ; GetCameraSettingFromArgList
PUBLIC	?GetArgument@@YAPBDPBDAAV?$list@USArgumet@script@@V?$allocator@USArgumet@script@@@std@@@std@@@Z ; GetArgument
PUBLIC	?GetArgumentString@@YAABV?$basic_string@DU?$char_traits@D@std@@V?$allocator@D@2@@std@@PBDAAV?$list@USArgumet@script@@V?$allocator@USArgumet@script@@@std@@@2@@Z ; GetArgumentString
PUBLIC	??_GSEventSet@CPythonEventManager@@UAEPAXI@Z	; CPythonEventManager::SEventSet::`scalar deleting destructor'
PUBLIC	??1SEventSet@CPythonEventManager@@UAE@XZ	; CPythonEventManager::SEventSet::~SEventSet
PUBLIC	??0SEventSet@CPythonEventManager@@QAE@XZ	; CPythonEventManager::SEventSet::SEventSet
PUBLIC	??0SCmd@script@@QAE@XZ				; script::SCmd::SCmd
PUBLIC	??0CPythonEventManager@@QAE@XZ			; CPythonEventManager::CPythonEventManager
PUBLIC	??1CPythonEventManager@@UAE@XZ			; CPythonEventManager::~CPythonEventManager
PUBLIC	?Destroy@CPythonEventManager@@QAEXXZ		; CPythonEventManager::Destroy
EXTRN	??_E?$CDynamicPool@VCGraphicTextInstance@@@@UAEPAXI@Z:PROC ; CDynamicPool<CGraphicTextInstance>::`vector deleting destructor'
EXTRN	??_ECPythonEventManager@@UAEPAXI@Z:PROC		; CPythonEventManager::`vector deleting destructor'
EXTRN	??_E?$CSingleton@VCPythonEventManager@@@@UAEPAXI@Z:PROC ; CSingleton<CPythonEventManager>::`vector deleting destructor'
EXTRN	??_ESEventSet@CPythonEventManager@@UAEPAXI@Z:PROC ; CPythonEventManager::SEventSet::`vector deleting destructor'
EXTRN	??_E?$CDynamicPool@USEventSet@CPythonEventManager@@@@UAEPAXI@Z:PROC ; CDynamicPool<CPythonEventManager::SEventSet>::`vector deleting destructor'
;	COMDAT ?$TSS0@?1??GetArgumentString@@YAABV?$basic_string@DU?$char_traits@D@std@@V?$allocator@D@2@@std@@PBDAAV?$list@USArgumet@script@@V?$allocator@USArgumet@script@@@std@@@3@@Z@4HA
_BSS	SEGMENT
?$TSS0@?1??GetArgumentString@@YAABV?$basic_string@DU?$char_traits@D@std@@V?$allocator@D@2@@std@@PBDAAV?$list@USArgumet@script@@V?$allocator@USArgumet@script@@@std@@@3@@Z@4HA DD 01H DUP (?) ; `GetArgumentString'::`2'::$TSS0
_BSS	ENDS
;	COMDAT xdata$x
xdata$x	SEGMENT
__ehfuncinfo$??0CPythonEventManager@@QAE@XZ DQ 00000003019930522r ; 1.02068e-312
	DD	FLAT:__unwindtable$??0CPythonEventManager@@QAE@XZ
	DQ	00000000000000000r		; 0
	DQ	00000000000000000r		; 0
	DQ	00000000100000000r		; 2.122e-314
	ORG $+4
__unwindtable$??0CPythonEventManager@@QAE@XZ DD 0ffffffffH
	DD	FLAT:__unwindfunclet$??0CPythonEventManager@@QAE@XZ$0
	DD	00H
	DD	FLAT:__unwindfunclet$??0CPythonEventManager@@QAE@XZ$1
	DD	01H
	DD	FLAT:__unwindfunclet$??0CPythonEventManager@@QAE@XZ$2
	DD	02H
	DD	FLAT:__unwindfunclet$??0CPythonEventManager@@QAE@XZ$3
	DD	03H
	DD	FLAT:__unwindfunclet$??0CPythonEventManager@@QAE@XZ$4
	DD	04H
	DD	FLAT:__unwindfunclet$??0CPythonEventManager@@QAE@XZ$5
	DD	05H
	DD	FLAT:__unwindfunclet$??0CPythonEventManager@@QAE@XZ$6
	DD	05H
	DD	FLAT:__unwindfunclet$??0CPythonEventManager@@QAE@XZ$7
	DD	05H
	DD	FLAT:__unwindfunclet$??0CPythonEventManager@@QAE@XZ$8
	DD	05H
	DD	FLAT:__unwindfunclet$??0CPythonEventManager@@QAE@XZ$9
	DD	05H
	DD	FLAT:__unwindfunclet$??0CPythonEventManager@@QAE@XZ$10
	DD	05H
	DD	FLAT:__unwindfunclet$??0CPythonEventManager@@QAE@XZ$11
	DD	05H
	DD	FLAT:__unwindfunclet$??0CPythonEventManager@@QAE@XZ$12
	DD	05H
	DD	FLAT:__unwindfunclet$??0CPythonEventManager@@QAE@XZ$13
	DD	05H
	DD	FLAT:__unwindfunclet$??0CPythonEventManager@@QAE@XZ$14
	DD	05H
	DD	FLAT:__unwindfunclet$??0CPythonEventManager@@QAE@XZ$15
	DD	05H
	DD	FLAT:__unwindfunclet$??0CPythonEventManager@@QAE@XZ$16
	DD	05H
	DD	FLAT:__unwindfunclet$??0CPythonEventManager@@QAE@XZ$17
	DD	05H
	DD	FLAT:__unwindfunclet$??0CPythonEventManager@@QAE@XZ$18
	DD	05H
	DD	FLAT:__unwindfunclet$??0CPythonEventManager@@QAE@XZ$19
	DD	05H
	DD	FLAT:__unwindfunclet$??0CPythonEventManager@@QAE@XZ$20
	DD	05H
	DD	FLAT:__unwindfunclet$??0CPythonEventManager@@QAE@XZ$21
	DD	05H
	DD	FLAT:__unwindfunclet$??0CPythonEventManager@@QAE@XZ$22
	DD	05H
	DD	FLAT:__unwindfunclet$??0CPythonEventManager@@QAE@XZ$23
	DD	05H
	DD	FLAT:__unwindfunclet$??0CPythonEventManager@@QAE@XZ$24
	DD	05H
	DD	FLAT:__unwindfunclet$??0CPythonEventManager@@QAE@XZ$25
	DD	05H
	DD	FLAT:__unwindfunclet$??0CPythonEventManager@@QAE@XZ$26
	DD	05H
	DD	FLAT:__unwindfunclet$??0CPythonEventManager@@QAE@XZ$27
	DD	05H
	DD	FLAT:__unwindfunclet$??0CPythonEventManager@@QAE@XZ$28
	DD	05H
	DD	FLAT:__unwindfunclet$??0CPythonEventManager@@QAE@XZ$29
	DD	05H
	DD	FLAT:__unwindfunclet$??0CPythonEventManager@@QAE@XZ$30
	DD	05H
	DD	FLAT:__unwindfunclet$??0CPythonEventManager@@QAE@XZ$31
	DD	05H
	DD	FLAT:__unwindfunclet$??0CPythonEventManager@@QAE@XZ$32
	DD	05H
	DD	FLAT:__unwindfunclet$??0CPythonEventManager@@QAE@XZ$33
	DD	05H
	DD	FLAT:__unwindfunclet$??0CPythonEventManager@@QAE@XZ$34
	DD	05H
	DD	FLAT:__unwindfunclet$??0CPythonEventManager@@QAE@XZ$35
	DD	05H
	DD	FLAT:__unwindfunclet$??0CPythonEventManager@@QAE@XZ$36
	DD	05H
	DD	FLAT:__unwindfunclet$??0CPythonEventManager@@QAE@XZ$37
	DD	05H
	DD	FLAT:__unwindfunclet$??0CPythonEventManager@@QAE@XZ$38
	DD	05H
	DD	FLAT:__unwindfunclet$??0CPythonEventManager@@QAE@XZ$39
	DD	05H
	DD	FLAT:__unwindfunclet$??0CPythonEventManager@@QAE@XZ$40
	DD	05H
	DD	FLAT:__unwindfunclet$??0CPythonEventManager@@QAE@XZ$41
	DD	05H
	DD	FLAT:__unwindfunclet$??0CPythonEventManager@@QAE@XZ$42
	DD	05H
	DD	FLAT:__unwindfunclet$??0CPythonEventManager@@QAE@XZ$43
	DD	05H
	DD	FLAT:__unwindfunclet$??0CPythonEventManager@@QAE@XZ$44
	DD	05H
	DD	FLAT:__unwindfunclet$??0CPythonEventManager@@QAE@XZ$45
	DD	05H
	DD	FLAT:__unwindfunclet$??0CPythonEventManager@@QAE@XZ$46
	DD	05H
	DD	FLAT:__unwindfunclet$??0CPythonEventManager@@QAE@XZ$47
xdata$x	ENDS
;	COMDAT xdata$x
xdata$x	SEGMENT
__ehfuncinfo$??0SCmd@script@@QAE@XZ DQ 00000000119930522r ; 2.33398e-314
	DD	FLAT:__unwindtable$??0SCmd@script@@QAE@XZ
	DQ	00000000000000000r		; 0
	DQ	00000000000000000r		; 0
	DQ	00000000100000000r		; 2.122e-314
__unwindtable$??0SCmd@script@@QAE@XZ DD 0ffffffffH
	DD	FLAT:__unwindfunclet$??0SCmd@script@@QAE@XZ$0
xdata$x	ENDS
;	COMDAT xdata$x
xdata$x	SEGMENT
__ehfuncinfo$??0SEventSet@CPythonEventManager@@QAE@XZ DQ 00000000219930522r ; 4.45598e-314
	DD	FLAT:__unwindtable$??0SEventSet@CPythonEventManager@@QAE@XZ
	DQ	00000000000000000r		; 0
	DQ	00000000000000000r		; 0
	DQ	00000000100000000r		; 2.122e-314
__unwindtable$??0SEventSet@CPythonEventManager@@QAE@XZ DD 0ffffffffH
	DD	FLAT:__unwindfunclet$??0SEventSet@CPythonEventManager@@QAE@XZ$0
	DD	00H
	DD	FLAT:__unwindfunclet$??0SEventSet@CPythonEventManager@@QAE@XZ$1
xdata$x	ENDS
;	COMDAT xdata$x
xdata$x	SEGMENT
__ehfuncinfo$?RegisterEventSet@CPythonEventManager@@QAEHPBD@Z DQ 00000000219930522r ; 4.45598e-314
	DD	FLAT:__unwindtable$?RegisterEventSet@CPythonEventManager@@QAEHPBD@Z
	DQ	00000000000000000r		; 0
	DQ	00000000000000000r		; 0
	DQ	00000000100000000r		; 2.122e-314
__unwindtable$?RegisterEventSet@CPythonEventManager@@QAEHPBD@Z DD 0ffffffffH
	DD	FLAT:__unwindfunclet$?RegisterEventSet@CPythonEventManager@@QAEHPBD@Z$0
	DD	00H
	DD	FLAT:__unwindfunclet$?RegisterEventSet@CPythonEventManager@@QAEHPBD@Z$1
xdata$x	ENDS
;	COMDAT xdata$x
xdata$x	SEGMENT
__ehfuncinfo$?RegisterEventSetFromString@CPythonEventManager@@QAEHABV?$basic_string@DU?$char_traits@D@std@@V?$allocator@D@2@@std@@@Z DQ 00000000319930522r ; 6.57797e-314
	DD	FLAT:__unwindtable$?RegisterEventSetFromString@CPythonEventManager@@QAEHABV?$basic_string@DU?$char_traits@D@std@@V?$allocator@D@2@@std@@@Z
	DQ	00000000000000000r		; 0
	DQ	00000000000000000r		; 0
	DQ	00000000100000000r		; 2.122e-314
__unwindtable$?RegisterEventSetFromString@CPythonEventManager@@QAEHABV?$basic_string@DU?$char_traits@D@std@@V?$allocator@D@2@@std@@@Z DD 0ffffffffH
	DD	FLAT:__unwindfunclet$?RegisterEventSetFromString@CPythonEventManager@@QAEHABV?$basic_string@DU?$char_traits@D@std@@V?$allocator@D@2@@std@@@Z$2
	DD	0ffffffffH
	DD	FLAT:__unwindfunclet$?RegisterEventSetFromString@CPythonEventManager@@QAEHABV?$basic_string@DU?$char_traits@D@std@@V?$allocator@D@2@@std@@@Z$0
	DD	01H
	DD	FLAT:__unwindfunclet$?RegisterEventSetFromString@CPythonEventManager@@QAEHABV?$basic_string@DU?$char_traits@D@std@@V?$allocator@D@2@@std@@@Z$1
xdata$x	ENDS
;	COMDAT xdata$x
xdata$x	SEGMENT
__ehfuncinfo$?ProcessEventSet@CPythonEventManager@@IAE_NPAUSEventSet@1@@Z DQ 00000000219930522r ; 4.45598e-314
	DD	FLAT:__unwindtable$?ProcessEventSet@CPythonEventManager@@IAE_NPAUSEventSet@1@@Z
	DQ	00000000000000000r		; 0
	DQ	00000000000000000r		; 0
	DQ	00000000100000000r		; 2.122e-314
__unwindtable$?ProcessEventSet@CPythonEventManager@@IAE_NPAUSEventSet@1@@Z DD 0ffffffffH
	DD	FLAT:__unwindfunclet$?ProcessEventSet@CPythonEventManager@@IAE_NPAUSEventSet@1@@Z$3
	DD	0ffffffffH
	DD	FLAT:__unwindfunclet$?ProcessEventSet@CPythonEventManager@@IAE_NPAUSEventSet@1@@Z$0
xdata$x	ENDS
;	COMDAT xdata$x
xdata$x	SEGMENT
__ehfuncinfo$?__InsertLine@CPythonEventManager@@IAEXAAUSEventSet@1@HH@Z DQ 00000000219930522r ; 4.45598e-314
	DD	FLAT:__unwindtable$?__InsertLine@CPythonEventManager@@IAEXAAUSEventSet@1@HH@Z
	DQ	00000000000000000r		; 0
	DQ	00000000000000000r		; 0
	DQ	00000000100000000r		; 2.122e-314
__unwindtable$?__InsertLine@CPythonEventManager@@IAEXAAUSEventSet@1@HH@Z DD 0ffffffffH
	DD	FLAT:__unwindfunclet$?__InsertLine@CPythonEventManager@@IAEXAAUSEventSet@1@HH@Z$1
	DD	0ffffffffH
	DD	FLAT:__unwindfunclet$?__InsertLine@CPythonEventManager@@IAEXAAUSEventSet@1@HH@Z$3
xdata$x	ENDS
;	COMDAT xdata$x
xdata$x	SEGMENT
__ehfuncinfo$?Alloc@?$CDynamicPool@USEventSet@CPythonEventManager@@@@QAEPAUSEventSet@CPythonEventManager@@XZ DQ 00000000319930522r ; 6.57797e-314
	DD	FLAT:__unwindtable$?Alloc@?$CDynamicPool@USEventSet@CPythonEventManager@@@@QAEPAUSEventSet@CPythonEventManager@@XZ
	DQ	00000000000000000r		; 0
	DQ	00000000000000000r		; 0
	DQ	00000000100000000r		; 2.122e-314
__unwindtable$?Alloc@?$CDynamicPool@USEventSet@CPythonEventManager@@@@QAEPAUSEventSet@CPythonEventManager@@XZ DD 0ffffffffH
	DD	FLAT:__unwindfunclet$?Alloc@?$CDynamicPool@USEventSet@CPythonEventManager@@@@QAEPAUSEventSet@CPythonEventManager@@XZ$0
	DD	00H
	DD	FLAT:__unwindfunclet$?Alloc@?$CDynamicPool@USEventSet@CPythonEventManager@@@@QAEPAUSEventSet@CPythonEventManager@@XZ$1
	DD	01H
	DD	FLAT:__unwindfunclet$?Alloc@?$CDynamicPool@USEventSet@CPythonEventManager@@@@QAEPAUSEventSet@CPythonEventManager@@XZ$2
xdata$x	ENDS
;	COMDAT xdata$x
xdata$x	SEGMENT
__ehfuncinfo$??A?$map@V?$basic_string@DU?$char_traits@D@std@@V?$allocator@D@2@@std@@HU?$less@V?$basic_string@DU?$char_traits@D@std@@V?$allocator@D@2@@std@@@2@V?$allocator@U?$pair@$$CBV?$basic_string@DU?$char_traits@D@std@@V?$allocator@D@2@@std@@H@std@@@2@@std@@QAEAAH$$QAV?$basic_string@DU?$char_traits@D@std@@V?$allocator@D@2@@1@@Z DQ 00000000119930522r ; 2.33398e-314
	DD	FLAT:__unwindtable$??A?$map@V?$basic_string@DU?$char_traits@D@std@@V?$allocator@D@2@@std@@HU?$less@V?$basic_string@DU?$char_traits@D@std@@V?$allocator@D@2@@std@@@2@V?$allocator@U?$pair@$$CBV?$basic_string@DU?$char_traits@D@std@@V?$allocator@D@2@@std@@H@std@@@2@@std@@QAEAAH$$QAV?$basic_string@DU?$char_traits@D@std@@V?$allocator@D@2@@1@@Z
	DQ	00000000000000000r		; 0
	DQ	00000000000000000r		; 0
	DQ	00000000100000000r		; 2.122e-314
__unwindtable$??A?$map@V?$basic_string@DU?$char_traits@D@std@@V?$allocator@D@2@@std@@HU?$less@V?$basic_string@DU?$char_traits@D@std@@V?$allocator@D@2@@std@@@2@V?$allocator@U?$pair@$$CBV?$basic_string@DU?$char_traits@D@std@@V?$allocator@D@2@@std@@H@std@@@2@@std@@QAEAAH$$QAV?$basic_string@DU?$char_traits@D@std@@V?$allocator@D@2@@1@@Z DD 0ffffffffH
	DD	FLAT:__unwindfunclet$??A?$map@V?$basic_string@DU?$char_traits@D@std@@V?$allocator@D@2@@std@@HU?$less@V?$basic_string@DU?$char_traits@D@std@@V?$allocator@D@2@@std@@@2@V?$allocator@U?$pair@$$CBV?$basic_string@DU?$char_traits@D@std@@V?$allocator@D@2@@std@@H@std@@@2@@std@@QAEAAH$$QAV?$basic_string@DU?$char_traits@D@std@@V?$allocator@D@2@@1@@Z$2
xdata$x	ENDS
;	COMDAT xdata$x
xdata$x	SEGMENT
__ehfuncinfo$?push_back@?$list@USTextLine@CPythonEventManager@@V?$allocator@USTextLine@CPythonEventManager@@@std@@@std@@QAEXABUSTextLine@CPythonEventManager@@@Z DQ 00000000119930522r ; 2.33398e-314
	DD	FLAT:__unwindtable$?push_back@?$list@USTextLine@CPythonEventManager@@V?$allocator@USTextLine@CPythonEventManager@@@std@@@std@@QAEXABUSTextLine@CPythonEventManager@@@Z
	DQ	00000000000000000r		; 0
	DQ	00000000000000000r		; 0
	DQ	00000000100000000r		; 2.122e-314
__unwindtable$?push_back@?$list@USTextLine@CPythonEventManager@@V?$allocator@USTextLine@CPythonEventManager@@@std@@@std@@QAEXABUSTextLine@CPythonEventManager@@@Z DD 0ffffffffH
	DD	FLAT:__unwindfunclet$?push_back@?$list@USTextLine@CPythonEventManager@@V?$allocator@USTextLine@CPythonEventManager@@@std@@@std@@QAEXABUSTextLine@CPythonEventManager@@@Z$1
xdata$x	ENDS
;	COMDAT xdata$x
xdata$x	SEGMENT
__ehfuncinfo$?Alloc@?$CDynamicPool@VCGraphicTextInstance@@@@QAEPAVCGraphicTextInstance@@XZ DQ 00000000119930522r ; 2.33398e-314
	DD	FLAT:__unwindtable$?Alloc@?$CDynamicPool@VCGraphicTextInstance@@@@QAEPAVCGraphicTextInstance@@XZ
	DQ	00000000000000000r		; 0
	DQ	00000000000000000r		; 0
	DQ	00000000100000000r		; 2.122e-314
__unwindtable$?Alloc@?$CDynamicPool@VCGraphicTextInstance@@@@QAEPAVCGraphicTextInstance@@XZ DD 0ffffffffH
	DD	FLAT:__unwindfunclet$?Alloc@?$CDynamicPool@VCGraphicTextInstance@@@@QAEPAVCGraphicTextInstance@@XZ$0
xdata$x	ENDS
;	COMDAT xdata$x
xdata$x	SEGMENT
__ehfuncinfo$??$_Try_emplace@V?$basic_string@DU?$char_traits@D@std@@V?$allocator@D@2@@std@@$$V@?$map@V?$basic_string@DU?$char_traits@D@std@@V?$allocator@D@2@@std@@HU?$less@V?$basic_string@DU?$char_traits@D@std@@V?$allocator@D@2@@std@@@2@V?$allocator@U?$pair@$$CBV?$basic_string@DU?$char_traits@D@std@@V?$allocator@D@2@@std@@H@std@@@2@@std@@AAE?AU?$pair@PAU?$_Tree_node@U?$pair@$$CBV?$basic_string@DU?$char_traits@D@std@@V?$allocator@D@2@@std@@H@std@@PAX@std@@_N@1@$$QAV?$basic_string@DU?$char_traits@D@std@@V?$allocator@D@2@@1@@Z DQ 00000000119930522r ; 2.33398e-314
	DD	FLAT:__unwindtable$??$_Try_emplace@V?$basic_string@DU?$char_traits@D@std@@V?$allocator@D@2@@std@@$$V@?$map@V?$basic_string@DU?$char_traits@D@std@@V?$allocator@D@2@@std@@HU?$less@V?$basic_string@DU?$char_traits@D@std@@V?$allocator@D@2@@std@@@2@V?$allocator@U?$pair@$$CBV?$basic_string@DU?$char_traits@D@std@@V?$allocator@D@2@@std@@H@std@@@2@@std@@AAE?AU?$pair@PAU?$_Tree_node@U?$pair@$$CBV?$basic_string@DU?$char_traits@D@std@@V?$allocator@D@2@@std@@H@std@@PAX@std@@_N@1@$$QAV?$basic_string@DU?$char_traits@D@std@@V?$allocator@D@2@@1@@Z
	DQ	00000000000000000r		; 0
	DQ	00000000000000000r		; 0
	DQ	00000000100000000r		; 2.122e-314
__unwindtable$??$_Try_emplace@V?$basic_string@DU?$char_traits@D@std@@V?$allocator@D@2@@std@@$$V@?$map@V?$basic_string@DU?$char_traits@D@std@@V?$allocator@D@2@@std@@HU?$less@V?$basic_string@DU?$char_traits@D@std@@V?$allocator@D@2@@std@@@2@V?$allocator@U?$pair@$$CBV?$basic_string@DU?$char_traits@D@std@@V?$allocator@D@2@@std@@H@std@@@2@@std@@AAE?AU?$pair@PAU?$_Tree_node@U?$pair@$$CBV?$basic_string@DU?$char_traits@D@std@@V?$allocator@D@2@@std@@H@std@@PAX@std@@_N@1@$$QAV?$basic_string@DU?$char_traits@D@std@@V?$allocator@D@2@@1@@Z DD 0ffffffffH
	DD	FLAT:__unwindfunclet$??$_Try_emplace@V?$basic_string@DU?$char_traits@D@std@@V?$allocator@D@2@@std@@$$V@?$map@V?$basic_string@DU?$char_traits@D@std@@V?$allocator@D@2@@std@@HU?$less@V?$basic_string@DU?$char_traits@D@std@@V?$allocator@D@2@@std@@@2@V?$allocator@U?$pair@$$CBV?$basic_string@DU?$char_traits@D@std@@V?$allocator@D@2@@std@@H@std@@@2@@std@@AAE?AU?$pair@PAU?$_Tree_node@U?$pair@$$CBV?$basic_string@DU?$char_traits@D@std@@V?$allocator@D@2@@std@@H@std@@PAX@std@@_N@1@$$QAV?$basic_string@DU?$char_traits@D@std@@V?$allocator@D@2@@1@@Z$2
xdata$x	ENDS
;	COMDAT xdata$x
xdata$x	SEGMENT
__ehfuncinfo$??$_Emplace@ABUSTextLine@CPythonEventManager@@@?$list@USTextLine@CPythonEventManager@@V?$allocator@USTextLine@CPythonEventManager@@@std@@@std@@QAEPAU?$_List_node@USTextLine@CPythonEventManager@@PAX@1@QAU21@ABUSTextLine@CPythonEventManager@@@Z DQ 00000000119930522r ; 2.33398e-314
	DD	FLAT:__unwindtable$??$_Emplace@ABUSTextLine@CPythonEventManager@@@?$list@USTextLine@CPythonEventManager@@V?$allocator@USTextLine@CPythonEventManager@@@std@@@std@@QAEPAU?$_List_node@USTextLine@CPythonEventManager@@PAX@1@QAU21@ABUSTextLine@CPythonEventManager@@@Z
	DQ	00000000000000000r		; 0
	DQ	00000000000000000r		; 0
	DQ	00000000100000000r		; 2.122e-314
__unwindtable$??$_Emplace@ABUSTextLine@CPythonEventManager@@@?$list@USTextLine@CPythonEventManager@@V?$allocator@USTextLine@CPythonEventManager@@@std@@@std@@QAEPAU?$_List_node@USTextLine@CPythonEventManager@@PAX@1@QAU21@ABUSTextLine@CPythonEventManager@@@Z DD 0ffffffffH
	DD	FLAT:__unwindfunclet$??$_Emplace@ABUSTextLine@CPythonEventManager@@@?$list@USTextLine@CPythonEventManager@@V?$allocator@USTextLine@CPythonEventManager@@@std@@@std@@QAEPAU?$_List_node@USTextLine@CPythonEventManager@@PAX@1@QAU21@ABUSTextLine@CPythonEventManager@@@Z$1
xdata$x	ENDS
;	COMDAT xdata$x
xdata$x	SEGMENT
__ehfuncinfo$??$?0ABUpiecewise_construct_t@std@@V?$tuple@$$QAV?$basic_string@DU?$char_traits@D@std@@V?$allocator@D@2@@std@@@1@V?$tuple@$$V@1@@?$_Tree_temp_node@V?$allocator@U?$_Tree_node@U?$pair@$$CBV?$basic_string@DU?$char_traits@D@std@@V?$allocator@D@2@@std@@H@std@@PAX@std@@@std@@@std@@QAE@AAV?$allocator@U?$_Tree_node@U?$pair@$$CBV?$basic_string@DU?$char_traits@D@std@@V?$allocator@D@2@@std@@H@std@@PAX@std@@@1@PAU?$_Tree_node@U?$pair@$$CBV?$basic_string@DU?$char_traits@D@std@@V?$allocator@D@2@@std@@H@std@@PAX@1@ABUpiecewise_construct_t@1@$$QAV?$tuple@$$QAV?$basic_string@DU?$char_traits@D@std@@V?$allocator@D@2@@std@@@1@$$QAV?$tuple@$$V@1@@Z DQ 00000000119930522r ; 2.33398e-314
	DD	FLAT:__unwindtable$??$?0ABUpiecewise_construct_t@std@@V?$tuple@$$QAV?$basic_string@DU?$char_traits@D@std@@V?$allocator@D@2@@std@@@1@V?$tuple@$$V@1@@?$_Tree_temp_node@V?$allocator@U?$_Tree_node@U?$pair@$$CBV?$basic_string@DU?$char_traits@D@std@@V?$allocator@D@2@@std@@H@std@@PAX@std@@@std@@@std@@QAE@AAV?$allocator@U?$_Tree_node@U?$pair@$$CBV?$basic_string@DU?$char_traits@D@std@@V?$allocator@D@2@@std@@H@std@@PAX@std@@@1@PAU?$_Tree_node@U?$pair@$$CBV?$basic_string@DU?$char_traits@D@std@@V?$allocator@D@2@@std@@H@std@@PAX@1@ABUpiecewise_construct_t@1@$$QAV?$tuple@$$QAV?$basic_string@DU?$char_traits@D@std@@V?$allocator@D@2@@std@@@1@$$QAV?$tuple@$$V@1@@Z
	DQ	00000000000000000r		; 0
	DQ	00000000000000000r		; 0
	DQ	00000000100000000r		; 2.122e-314
__unwindtable$??$?0ABUpiecewise_construct_t@std@@V?$tuple@$$QAV?$basic_string@DU?$char_traits@D@std@@V?$allocator@D@2@@std@@@1@V?$tuple@$$V@1@@?$_Tree_temp_node@V?$allocator@U?$_Tree_node@U?$pair@$$CBV?$basic_string@DU?$char_traits@D@std@@V?$allocator@D@2@@std@@H@std@@PAX@std@@@std@@@std@@QAE@AAV?$allocator@U?$_Tree_node@U?$pair@$$CBV?$basic_string@DU?$char_traits@D@std@@V?$allocator@D@2@@std@@H@std@@PAX@std@@@1@PAU?$_Tree_node@U?$pair@$$CBV?$basic_string@DU?$char_traits@D@std@@V?$allocator@D@2@@std@@H@std@@PAX@1@ABUpiecewise_construct_t@1@$$QAV?$tuple@$$QAV?$basic_string@DU?$char_traits@D@std@@V?$allocator@D@2@@std@@@1@$$QAV?$tuple@$$V@1@@Z DD 0ffffffffH
	DD	FLAT:__unwindfunclet$??$?0ABUpiecewise_construct_t@std@@V?$tuple@$$QAV?$basic_string@DU?$char_traits@D@std@@V?$allocator@D@2@@std@@@1@V?$tuple@$$V@1@@?$_Tree_temp_node@V?$allocator@U?$_Tree_node@U?$pair@$$CBV?$basic_string@DU?$char_traits@D@std@@V?$allocator@D@2@@std@@H@std@@PAX@std@@@std@@@std@@QAE@AAV?$allocator@U?$_Tree_node@U?$pair@$$CBV?$basic_string@DU?$char_traits@D@std@@V?$allocator@D@2@@std@@H@std@@PAX@std@@@1@PAU?$_Tree_node@U?$pair@$$CBV?$basic_string@DU?$char_traits@D@std@@V?$allocator@D@2@@std@@H@std@@PAX@1@ABUpiecewise_construct_t@1@$$QAV?$tuple@$$QAV?$basic_string@DU?$char_traits@D@std@@V?$allocator@D@2@@std@@@1@$$QAV?$tuple@$$V@1@@Z$1
xdata$x	ENDS
;	COMDAT xdata$x
xdata$x	SEGMENT
__ehfuncinfo$??$?0ABUSTextLine@CPythonEventManager@@@?$_List_node_emplace_op2@V?$allocator@U?$_List_node@USTextLine@CPythonEventManager@@PAX@std@@@std@@@std@@QAE@AAV?$allocator@U?$_List_node@USTextLine@CPythonEventManager@@PAX@std@@@1@ABUSTextLine@CPythonEventManager@@@Z DQ 00000000119930522r ; 2.33398e-314
	DD	FLAT:__unwindtable$??$?0ABUSTextLine@CPythonEventManager@@@?$_List_node_emplace_op2@V?$allocator@U?$_List_node@USTextLine@CPythonEventManager@@PAX@std@@@std@@@std@@QAE@AAV?$allocator@U?$_List_node@USTextLine@CPythonEventManager@@PAX@std@@@1@ABUSTextLine@CPythonEventManager@@@Z
	DQ	00000000000000000r		; 0
	DQ	00000000000000000r		; 0
	DQ	00000000100000000r		; 2.122e-314
__unwindtable$??$?0ABUSTextLine@CPythonEventManager@@@?$_List_node_emplace_op2@V?$allocator@U?$_List_node@USTextLine@CPythonEventManager@@PAX@std@@@std@@@std@@QAE@AAV?$allocator@U?$_List_node@USTextLine@CPythonEventManager@@PAX@std@@@1@ABUSTextLine@CPythonEventManager@@@Z DD 0ffffffffH
	DD	FLAT:__unwindfunclet$??$?0ABUSTextLine@CPythonEventManager@@@?$_List_node_emplace_op2@V?$allocator@U?$_List_node@USTextLine@CPythonEventManager@@PAX@std@@@std@@@std@@QAE@AAV?$allocator@U?$_List_node@USTextLine@CPythonEventManager@@PAX@std@@@1@ABUSTextLine@CPythonEventManager@@@Z$0
xdata$x	ENDS
;	COMDAT xdata$x
xdata$x	SEGMENT
__ehfuncinfo$??0?$_Tree_temp_node_alloc@V?$allocator@U?$_Tree_node@U?$pair@$$CBV?$basic_string@DU?$char_traits@D@std@@V?$allocator@D@2@@std@@H@std@@PAX@std@@@std@@@std@@QAE@AAV?$allocator@U?$_Tree_node@U?$pair@$$CBV?$basic_string@DU?$char_traits@D@std@@V?$allocator@D@2@@std@@H@std@@PAX@std@@@1@@Z DQ 00000000119930522r ; 2.33398e-314
	DD	FLAT:__unwindtable$??0?$_Tree_temp_node_alloc@V?$allocator@U?$_Tree_node@U?$pair@$$CBV?$basic_string@DU?$char_traits@D@std@@V?$allocator@D@2@@std@@H@std@@PAX@std@@@std@@@std@@QAE@AAV?$allocator@U?$_Tree_node@U?$pair@$$CBV?$basic_string@DU?$char_traits@D@std@@V?$allocator@D@2@@std@@H@std@@PAX@std@@@1@@Z
	DQ	00000000000000000r		; 0
	DQ	00000000000000000r		; 0
	DQ	00000000100000000r		; 2.122e-314
__unwindtable$??0?$_Tree_temp_node_alloc@V?$allocator@U?$_Tree_node@U?$pair@$$CBV?$basic_string@DU?$char_traits@D@std@@V?$allocator@D@2@@std@@H@std@@PAX@std@@@std@@@std@@QAE@AAV?$allocator@U?$_Tree_node@U?$pair@$$CBV?$basic_string@DU?$char_traits@D@std@@V?$allocator@D@2@@std@@H@std@@PAX@std@@@1@@Z DD 0ffffffffH
	DD	FLAT:__unwindfunclet$??0?$_Tree_temp_node_alloc@V?$allocator@U?$_Tree_node@U?$pair@$$CBV?$basic_string@DU?$char_traits@D@std@@V?$allocator@D@2@@std@@H@std@@PAX@std@@@std@@@std@@QAE@AAV?$allocator@U?$_Tree_node@U?$pair@$$CBV?$basic_string@DU?$char_traits@D@std@@V?$allocator@D@2@@std@@H@std@@PAX@std@@@1@@Z$0
END
