; Listing generated by Microsoft (R) Optimizing Compiler Version 19.44.35219.0 

	TITLE	c:\anka2project\anka2project\source\binary\vs_files\userinterface\release\pythonnonplayermodule.obj
	.686P
	.XMM
	include listing.inc
	.model	flat

INCLUDELIB OLDNAMES

PUBLIC	??_C@_01MJMHLOMK@O@				; `string'
PUBLIC	??_C@_0BC@BCIFCAAC@GetEventTypeByVID@		; `string'
PUBLIC	??_C@_0N@HBLLMFED@GetEventType@			; `string'
PUBLIC	??_C@_0O@EGDCEMAL@GetGradeByVID@		; `string'
PUBLIC	??_C@_0O@DBPCDLCL@GetLevelByVID@		; `string'
PUBLIC	??_C@_0BA@MNILMPOO@GetRaceNumByVID@		; `string'
PUBLIC	??_C@_0P@OLKHIBCH@GetMonsterName@		; `string'
PUBLIC	??_C@_0BA@CIBIOIFE@GetMonsterPrice@		; `string'
PUBLIC	??_C@_0BD@JNKBHIE@MonsterHasRaceFlag@		; `string'
PUBLIC	??_C@_0BA@FDPJOBBE@GetMonsterLevel@		; `string'
PUBLIC	??_C@_0O@JALPLFAN@GetMobsByName@		; `string'
PUBLIC	??_C@_0P@EMGNNIFC@IsMonsterStone@		; `string'
PUBLIC	??_C@_0BD@NEKNIEPD@GetMonsterRaceFlag@		; `string'
PUBLIC	??_C@_0O@KPPFPOPA@GetMonsterExp@		; `string'
PUBLIC	??_C@_0BB@DOHKGACK@GetMonsterDamage@		; `string'
PUBLIC	??_C@_0N@IOHKHJPJ@GetMonsterST@			; `string'
PUBLIC	??_C@_0BJ@ENENIC@GetMonsterDamageMultiply@	; `string'
PUBLIC	??_C@_0BB@PDHHKCHI@GetMonsterResist@		; `string'
PUBLIC	??_C@_0N@DLKGIDAA@GetMonsterDX@			; `string'
PUBLIC	??_C@_0BC@GDKPGOBC@LoadNonPlayerData@		; `string'
PUBLIC	??_C@_0BA@MOJMEPAO@GetMonsterMaxHP@		; `string'
PUBLIC	??_C@_0BE@FCOIJPJO@ON_CLICK_EVENT_NONE@		; `string'
PUBLIC	??_C@_09OHMOODOI@nonplayer@			; `string'
PUBLIC	??_C@_0BE@GBDIHIDH@ON_CLICK_EVENT_SHOP@		; `string'
PUBLIC	??_C@_0BG@EEKDAAJA@ON_CLICK_EVENT_BATTLE@	; `string'
PUBLIC	??_C@_0BH@MKCNCKMM@ON_CLICK_EVENT_VEHICLE@	; `string'
PUBLIC	??_C@_0BE@FGAJOGO@ON_CLICK_EVENT_TALK@		; `string'
PUBLIC	??_C@_06JBMEMDKE@S_PAWN@			; `string'
PUBLIC	??_C@_04CFGPKCMP@PAWN@				; `string'
PUBLIC	??_C@_08FOAPCDID@S_KNIGHT@			; `string'
PUBLIC	??_C@_06OCLDHEIK@KNIGHT@			; `string'
PUBLIC	??_C@_04DFNOAPAF@KING@				; `string'
PUBLIC	??_C@_04CHPFNFNO@BOSS@				; `string'
PUBLIC	??_C@_0BD@LGACFJBE@MOB_RESIST_TWOHAND@		; `string'
PUBLIC	??_C@_0BB@PPCGHBJB@MOB_RESIST_SWORD@		; `string'
PUBLIC	??_C@_0BA@CJDNMEPA@MOB_RESIST_BELL@		; `string'
PUBLIC	??_C@_0BC@COPJHPOI@MOB_RESIST_DAGGER@		; `string'
PUBLIC	??_C@_0P@DPMGCLIO@MOB_RESIST_BOW@		; `string'
PUBLIC	??_C@_0P@CBDKDIML@MOB_RESIST_FAN@		; `string'
PUBLIC	??_C@_0BB@FACANPG@MOB_RESIST_ELECT@		; `string'
PUBLIC	??_C@_0BA@FBBBOILL@MOB_RESIST_FIRE@		; `string'
PUBLIC	??_C@_0BA@LGDNNM@MOB_RESIST_WIND@		; `string'
PUBLIC	??_C@_0BB@LDNMICOB@MOB_RESIST_MAGIC@		; `string'
PUBLIC	??_C@_0BD@IEDJEENP@MOB_RESIST_MAX_NUM@		; `string'
PUBLIC	??_C@_0BC@MMJAAGH@MOB_RESIST_POISON@		; `string'
;	COMDAT ?s_methods@?1??initNonPlayer@@YAXXZ@4PAUPyMethodDef@@A
_DATA	SEGMENT
?s_methods@?1??initNonPlayer@@YAXXZ@4PAUPyMethodDef@@A DD FLAT:??_C@_0N@HBLLMFED@GetEventType@ ; `initNonPlayer'::`2'::s_methods
	DD	FLAT:?nonplayerGetEventType@@YAPAU_object@@PAU1@0@Z
	DD	01H
	ORG $+4
	DD	FLAT:??_C@_0BC@BCIFCAAC@GetEventTypeByVID@
	DD	FLAT:?nonplayerGetEventTypeByVID@@YAPAU_object@@PAU1@0@Z
	DD	01H
	ORG $+4
	DD	FLAT:??_C@_0O@DBPCDLCL@GetLevelByVID@
	DD	FLAT:?nonplayerGetLevelByVID@@YAPAU_object@@PAU1@0@Z
	DD	01H
	ORG $+4
	DD	FLAT:??_C@_0O@EGDCEMAL@GetGradeByVID@
	DD	FLAT:?nonplayerGetGradeByVID@@YAPAU_object@@PAU1@0@Z
	DD	01H
	ORG $+4
	DD	FLAT:??_C@_0P@OLKHIBCH@GetMonsterName@
	DD	FLAT:?nonplayerGetMonsterName@@YAPAU_object@@PAU1@0@Z
	DD	01H
	ORG $+4
	DD	FLAT:??_C@_0BA@MNILMPOO@GetRaceNumByVID@
	DD	FLAT:?nonplayerGetRaceNumByVID@@YAPAU_object@@PAU1@0@Z
	DD	01H
	ORG $+4
	DD	FLAT:??_C@_0BD@JNKBHIE@MonsterHasRaceFlag@
	DD	FLAT:?nonplayerMonsterHasRaceFlag@@YAPAU_object@@PAU1@0@Z
	DD	01H
	ORG $+4
	DD	FLAT:??_C@_0BA@CIBIOIFE@GetMonsterPrice@
	DD	FLAT:?nonplayerGetMonsterPrice@@YAPAU_object@@PAU1@0@Z
	DD	01H
	ORG $+4
	DD	FLAT:??_C@_0O@JALPLFAN@GetMobsByName@
	DD	FLAT:?nonPlayerGetMobsByName@@YAPAU_object@@PAU1@0@Z
	DD	01H
	ORG $+4
	DD	FLAT:??_C@_0BA@FDPJOBBE@GetMonsterLevel@
	DD	FLAT:?nonplayerGetMonsterLevel@@YAPAU_object@@PAU1@0@Z
	DD	01H
	ORG $+4
	DD	FLAT:??_C@_0BD@NEKNIEPD@GetMonsterRaceFlag@
	DD	FLAT:?nonplayerGetMonsterRaceFlag@@YAPAU_object@@PAU1@0@Z
	DD	01H
	ORG $+4
	DD	FLAT:??_C@_0P@EMGNNIFC@IsMonsterStone@
	DD	FLAT:?nonplayerIsMonsterStone@@YAPAU_object@@PAU1@0@Z
	DD	01H
	ORG $+4
	DD	FLAT:??_C@_0BB@DOHKGACK@GetMonsterDamage@
	DD	FLAT:?nonplayerGetMonsterDamage@@YAPAU_object@@PAU1@0@Z
	DD	01H
	ORG $+4
	DD	FLAT:??_C@_0O@KPPFPOPA@GetMonsterExp@
	DD	FLAT:?nonplayerGetMonsterExp@@YAPAU_object@@PAU1@0@Z
	DD	01H
	ORG $+4
	DD	FLAT:??_C@_0BJ@ENENIC@GetMonsterDamageMultiply@
	DD	FLAT:?nonplayerGetMonsterDamageMultiply@@YAPAU_object@@PAU1@0@Z
	DD	01H
	ORG $+4
	DD	FLAT:??_C@_0N@IOHKHJPJ@GetMonsterST@
	DD	FLAT:?nonplayerGetMonsterST@@YAPAU_object@@PAU1@0@Z
	DD	01H
	ORG $+4
	DD	FLAT:??_C@_0N@DLKGIDAA@GetMonsterDX@
	DD	FLAT:?nonplayerGetMonsterDX@@YAPAU_object@@PAU1@0@Z
	DD	01H
	ORG $+4
	DD	FLAT:??_C@_0P@EMGNNIFC@IsMonsterStone@
	DD	FLAT:?nonplayerIsMonsterStone@@YAPAU_object@@PAU1@0@Z
	DD	01H
	ORG $+4
	DD	FLAT:??_C@_0BB@PDHHKCHI@GetMonsterResist@
	DD	FLAT:?nonplayerGetMonsterResist@@YAPAU_object@@PAU1@0@Z
	DD	01H
	ORG $+4
	DD	FLAT:??_C@_0BA@MOJMEPAO@GetMonsterMaxHP@
	DD	FLAT:?nonplayerGetMonsterMaxHP@@YAPAU_object@@PAU1@0@Z
	DD	01H
	ORG $+4
	DD	FLAT:??_C@_0BC@GDKPGOBC@LoadNonPlayerData@
	DD	FLAT:?nonplayerLoadNonPlayerData@@YAPAU_object@@PAU1@0@Z
	DD	01H
	ORG $+4
	DD	00H
	DD	00H
	DD	00H
	ORG $+4
_DATA	ENDS
;	COMDAT ??_C@_0BC@MMJAAGH@MOB_RESIST_POISON@
CONST	SEGMENT
??_C@_0BC@MMJAAGH@MOB_RESIST_POISON@ DB 'MOB_RESIST_POISON', 00H ; `string'
CONST	ENDS
;	COMDAT ??_C@_0BD@IEDJEENP@MOB_RESIST_MAX_NUM@
CONST	SEGMENT
??_C@_0BD@IEDJEENP@MOB_RESIST_MAX_NUM@ DB 'MOB_RESIST_MAX_NUM', 00H ; `string'
CONST	ENDS
;	COMDAT ??_C@_0BB@LDNMICOB@MOB_RESIST_MAGIC@
CONST	SEGMENT
??_C@_0BB@LDNMICOB@MOB_RESIST_MAGIC@ DB 'MOB_RESIST_MAGIC', 00H ; `string'
CONST	ENDS
;	COMDAT ??_C@_0BA@LGDNNM@MOB_RESIST_WIND@
CONST	SEGMENT
??_C@_0BA@LGDNNM@MOB_RESIST_WIND@ DB 'MOB_RESIST_WIND', 00H ; `string'
CONST	ENDS
;	COMDAT ??_C@_0BA@FBBBOILL@MOB_RESIST_FIRE@
CONST	SEGMENT
??_C@_0BA@FBBBOILL@MOB_RESIST_FIRE@ DB 'MOB_RESIST_FIRE', 00H ; `string'
CONST	ENDS
;	COMDAT ??_C@_0BB@FACANPG@MOB_RESIST_ELECT@
CONST	SEGMENT
??_C@_0BB@FACANPG@MOB_RESIST_ELECT@ DB 'MOB_RESIST_ELECT', 00H ; `string'
CONST	ENDS
;	COMDAT ??_C@_0P@CBDKDIML@MOB_RESIST_FAN@
CONST	SEGMENT
??_C@_0P@CBDKDIML@MOB_RESIST_FAN@ DB 'MOB_RESIST_FAN', 00H ; `string'
CONST	ENDS
;	COMDAT ??_C@_0P@DPMGCLIO@MOB_RESIST_BOW@
CONST	SEGMENT
??_C@_0P@DPMGCLIO@MOB_RESIST_BOW@ DB 'MOB_RESIST_BOW', 00H ; `string'
CONST	ENDS
;	COMDAT ??_C@_0BC@COPJHPOI@MOB_RESIST_DAGGER@
CONST	SEGMENT
??_C@_0BC@COPJHPOI@MOB_RESIST_DAGGER@ DB 'MOB_RESIST_DAGGER', 00H ; `string'
CONST	ENDS
;	COMDAT ??_C@_0BA@CJDNMEPA@MOB_RESIST_BELL@
CONST	SEGMENT
??_C@_0BA@CJDNMEPA@MOB_RESIST_BELL@ DB 'MOB_RESIST_BELL', 00H ; `string'
CONST	ENDS
;	COMDAT ??_C@_0BB@PPCGHBJB@MOB_RESIST_SWORD@
CONST	SEGMENT
??_C@_0BB@PPCGHBJB@MOB_RESIST_SWORD@ DB 'MOB_RESIST_SWORD', 00H ; `string'
CONST	ENDS
;	COMDAT ??_C@_0BD@LGACFJBE@MOB_RESIST_TWOHAND@
CONST	SEGMENT
??_C@_0BD@LGACFJBE@MOB_RESIST_TWOHAND@ DB 'MOB_RESIST_TWOHAND', 00H ; `string'
CONST	ENDS
;	COMDAT ??_C@_04CHPFNFNO@BOSS@
CONST	SEGMENT
??_C@_04CHPFNFNO@BOSS@ DB 'BOSS', 00H			; `string'
CONST	ENDS
;	COMDAT ??_C@_04DFNOAPAF@KING@
CONST	SEGMENT
??_C@_04DFNOAPAF@KING@ DB 'KING', 00H			; `string'
CONST	ENDS
;	COMDAT ??_C@_06OCLDHEIK@KNIGHT@
CONST	SEGMENT
??_C@_06OCLDHEIK@KNIGHT@ DB 'KNIGHT', 00H		; `string'
CONST	ENDS
;	COMDAT ??_C@_08FOAPCDID@S_KNIGHT@
CONST	SEGMENT
??_C@_08FOAPCDID@S_KNIGHT@ DB 'S_KNIGHT', 00H		; `string'
CONST	ENDS
;	COMDAT ??_C@_04CFGPKCMP@PAWN@
CONST	SEGMENT
??_C@_04CFGPKCMP@PAWN@ DB 'PAWN', 00H			; `string'
CONST	ENDS
;	COMDAT ??_C@_06JBMEMDKE@S_PAWN@
CONST	SEGMENT
??_C@_06JBMEMDKE@S_PAWN@ DB 'S_PAWN', 00H		; `string'
CONST	ENDS
;	COMDAT ??_C@_0BE@FGAJOGO@ON_CLICK_EVENT_TALK@
CONST	SEGMENT
??_C@_0BE@FGAJOGO@ON_CLICK_EVENT_TALK@ DB 'ON_CLICK_EVENT_TALK', 00H ; `string'
CONST	ENDS
;	COMDAT ??_C@_0BH@MKCNCKMM@ON_CLICK_EVENT_VEHICLE@
CONST	SEGMENT
??_C@_0BH@MKCNCKMM@ON_CLICK_EVENT_VEHICLE@ DB 'ON_CLICK_EVENT_VEHICLE', 00H ; `string'
CONST	ENDS
;	COMDAT ??_C@_0BG@EEKDAAJA@ON_CLICK_EVENT_BATTLE@
CONST	SEGMENT
??_C@_0BG@EEKDAAJA@ON_CLICK_EVENT_BATTLE@ DB 'ON_CLICK_EVENT_BATTLE', 00H ; `string'
CONST	ENDS
;	COMDAT ??_C@_0BE@GBDIHIDH@ON_CLICK_EVENT_SHOP@
CONST	SEGMENT
??_C@_0BE@GBDIHIDH@ON_CLICK_EVENT_SHOP@ DB 'ON_CLICK_EVENT_SHOP', 00H ; `string'
CONST	ENDS
;	COMDAT ??_C@_09OHMOODOI@nonplayer@
CONST	SEGMENT
??_C@_09OHMOODOI@nonplayer@ DB 'nonplayer', 00H		; `string'
CONST	ENDS
;	COMDAT ??_C@_0BE@FCOIJPJO@ON_CLICK_EVENT_NONE@
CONST	SEGMENT
??_C@_0BE@FCOIJPJO@ON_CLICK_EVENT_NONE@ DB 'ON_CLICK_EVENT_NONE', 00H ; `string'
CONST	ENDS
;	COMDAT ??_C@_0BA@MOJMEPAO@GetMonsterMaxHP@
CONST	SEGMENT
??_C@_0BA@MOJMEPAO@GetMonsterMaxHP@ DB 'GetMonsterMaxHP', 00H ; `string'
CONST	ENDS
;	COMDAT ??_C@_0BC@GDKPGOBC@LoadNonPlayerData@
CONST	SEGMENT
??_C@_0BC@GDKPGOBC@LoadNonPlayerData@ DB 'LoadNonPlayerData', 00H ; `string'
CONST	ENDS
;	COMDAT ??_C@_0N@DLKGIDAA@GetMonsterDX@
CONST	SEGMENT
??_C@_0N@DLKGIDAA@GetMonsterDX@ DB 'GetMonsterDX', 00H	; `string'
CONST	ENDS
;	COMDAT ??_C@_0BB@PDHHKCHI@GetMonsterResist@
CONST	SEGMENT
??_C@_0BB@PDHHKCHI@GetMonsterResist@ DB 'GetMonsterResist', 00H ; `string'
CONST	ENDS
;	COMDAT ??_C@_0BJ@ENENIC@GetMonsterDamageMultiply@
CONST	SEGMENT
??_C@_0BJ@ENENIC@GetMonsterDamageMultiply@ DB 'GetMonsterDamageMultiply', 00H ; `string'
CONST	ENDS
;	COMDAT ??_C@_0N@IOHKHJPJ@GetMonsterST@
CONST	SEGMENT
??_C@_0N@IOHKHJPJ@GetMonsterST@ DB 'GetMonsterST', 00H	; `string'
CONST	ENDS
;	COMDAT ??_C@_0BB@DOHKGACK@GetMonsterDamage@
CONST	SEGMENT
??_C@_0BB@DOHKGACK@GetMonsterDamage@ DB 'GetMonsterDamage', 00H ; `string'
CONST	ENDS
;	COMDAT ??_C@_0O@KPPFPOPA@GetMonsterExp@
CONST	SEGMENT
??_C@_0O@KPPFPOPA@GetMonsterExp@ DB 'GetMonsterExp', 00H ; `string'
CONST	ENDS
;	COMDAT ??_C@_0BD@NEKNIEPD@GetMonsterRaceFlag@
CONST	SEGMENT
??_C@_0BD@NEKNIEPD@GetMonsterRaceFlag@ DB 'GetMonsterRaceFlag', 00H ; `string'
CONST	ENDS
;	COMDAT ??_C@_0P@EMGNNIFC@IsMonsterStone@
CONST	SEGMENT
??_C@_0P@EMGNNIFC@IsMonsterStone@ DB 'IsMonsterStone', 00H ; `string'
CONST	ENDS
;	COMDAT ??_C@_0O@JALPLFAN@GetMobsByName@
CONST	SEGMENT
??_C@_0O@JALPLFAN@GetMobsByName@ DB 'GetMobsByName', 00H ; `string'
CONST	ENDS
;	COMDAT ??_C@_0BA@FDPJOBBE@GetMonsterLevel@
CONST	SEGMENT
??_C@_0BA@FDPJOBBE@GetMonsterLevel@ DB 'GetMonsterLevel', 00H ; `string'
CONST	ENDS
;	COMDAT ??_C@_0BD@JNKBHIE@MonsterHasRaceFlag@
CONST	SEGMENT
??_C@_0BD@JNKBHIE@MonsterHasRaceFlag@ DB 'MonsterHasRaceFlag', 00H ; `string'
CONST	ENDS
;	COMDAT ??_C@_0BA@CIBIOIFE@GetMonsterPrice@
CONST	SEGMENT
??_C@_0BA@CIBIOIFE@GetMonsterPrice@ DB 'GetMonsterPrice', 00H ; `string'
CONST	ENDS
;	COMDAT ??_C@_0P@OLKHIBCH@GetMonsterName@
CONST	SEGMENT
??_C@_0P@OLKHIBCH@GetMonsterName@ DB 'GetMonsterName', 00H ; `string'
CONST	ENDS
;	COMDAT ??_C@_0BA@MNILMPOO@GetRaceNumByVID@
CONST	SEGMENT
??_C@_0BA@MNILMPOO@GetRaceNumByVID@ DB 'GetRaceNumByVID', 00H ; `string'
CONST	ENDS
;	COMDAT ??_C@_0O@DBPCDLCL@GetLevelByVID@
CONST	SEGMENT
??_C@_0O@DBPCDLCL@GetLevelByVID@ DB 'GetLevelByVID', 00H ; `string'
CONST	ENDS
;	COMDAT ??_C@_0O@EGDCEMAL@GetGradeByVID@
CONST	SEGMENT
??_C@_0O@EGDCEMAL@GetGradeByVID@ DB 'GetGradeByVID', 00H ; `string'
CONST	ENDS
;	COMDAT ??_C@_0N@HBLLMFED@GetEventType@
CONST	SEGMENT
??_C@_0N@HBLLMFED@GetEventType@ DB 'GetEventType', 00H	; `string'
CONST	ENDS
;	COMDAT ??_C@_0BC@BCIFCAAC@GetEventTypeByVID@
CONST	SEGMENT
??_C@_0BC@BCIFCAAC@GetEventTypeByVID@ DB 'GetEventTypeByVID', 00H ; `string'
CONST	ENDS
;	COMDAT ??_C@_01MJMHLOMK@O@
CONST	SEGMENT
??_C@_01MJMHLOMK@O@ DB 'O', 00H				; `string'
PUBLIC	??$construct_at@U?$pair@$$CBKPAUSMobTable@CPythonNonPlayer@@@std@@AAU12@@std@@YAPAU?$pair@$$CBKPAUSMobTable@CPythonNonPlayer@@@0@QAU10@AAU10@@Z ; std::construct_at<std::pair<unsigned long const ,CPythonNonPlayer::SMobTable *>,std::pair<unsigned long const ,CPythonNonPlayer::SMobTable *> &>
PUBLIC	??$construct@U?$pair@$$CBKPAUSMobTable@CPythonNonPlayer@@@std@@AAU12@@?$_Default_allocator_traits@V?$allocator@U?$_Tree_node@U?$pair@$$CBKPAUSMobTable@CPythonNonPlayer@@@std@@PAX@std@@@std@@@std@@SAXAAV?$allocator@U?$_Tree_node@U?$pair@$$CBKPAUSMobTable@CPythonNonPlayer@@@std@@PAX@std@@@1@QAU?$pair@$$CBKPAUSMobTable@CPythonNonPlayer@@@1@AAU31@@Z ; std::_Default_allocator_traits<std::allocator<std::_Tree_node<std::pair<unsigned long const ,CPythonNonPlayer::SMobTable *>,void *> > >::construct<std::pair<unsigned long const ,CPythonNonPlayer::SMobTable *>,std::pair<unsigned long const ,CPythonNonPlayer::SMobTable *> &>
PUBLIC	??$_Buynode@V?$allocator@U?$_Tree_node@U?$pair@$$CBKPAUSMobTable@CPythonNonPlayer@@@std@@PAX@std@@@std@@AAU?$pair@$$CBKPAUSMobTable@CPythonNonPlayer@@@2@@?$_Tree_node@U?$pair@$$CBKPAUSMobTable@CPythonNonPlayer@@@std@@PAX@std@@SAPAU01@AAV?$allocator@U?$_Tree_node@U?$pair@$$CBKPAUSMobTable@CPythonNonPlayer@@@std@@PAX@std@@@1@PAU01@AAU?$pair@$$CBKPAUSMobTable@CPythonNonPlayer@@@1@@Z ; std::_Tree_node<std::pair<unsigned long const ,CPythonNonPlayer::SMobTable *>,void *>::_Buynode<std::allocator<std::_Tree_node<std::pair<unsigned long const ,CPythonNonPlayer::SMobTable *>,void *> >,std::pair<unsigned long const ,CPythonNonPlayer::SMobTable *> &>
PUBLIC	??$forward@AAU?$pair@$$CBKPAUSMobTable@CPythonNonPlayer@@@std@@@std@@YAAAU?$pair@$$CBKPAUSMobTable@CPythonNonPlayer@@@0@AAU10@@Z ; std::forward<std::pair<unsigned long const ,CPythonNonPlayer::SMobTable *> &>
PUBLIC	??$_Erase_tree_and_orphan@V?$allocator@U?$_Tree_node@U?$pair@$$CBKPAUSMobTable@CPythonNonPlayer@@@std@@PAX@std@@@std@@@?$_Tree_val@U?$_Tree_simple_types@U?$pair@$$CBKPAUSMobTable@CPythonNonPlayer@@@std@@@std@@@std@@QAEXAAV?$allocator@U?$_Tree_node@U?$pair@$$CBKPAUSMobTable@CPythonNonPlayer@@@std@@PAX@std@@@1@PAU?$_Tree_node@U?$pair@$$CBKPAUSMobTable@CPythonNonPlayer@@@std@@PAX@1@@Z ; std::_Tree_val<std::_Tree_simple_types<std::pair<unsigned long const ,CPythonNonPlayer::SMobTable *> > >::_Erase_tree_and_orphan<std::allocator<std::_Tree_node<std::pair<unsigned long const ,CPythonNonPlayer::SMobTable *>,void *> > >
PUBLIC	??$_Buynode@AAU?$pair@$$CBKPAUSMobTable@CPythonNonPlayer@@@std@@@?$_Tree@V?$_Tmap_traits@KPAUSMobTable@CPythonNonPlayer@@U?$less@K@std@@V?$allocator@U?$pair@$$CBKPAUSMobTable@CPythonNonPlayer@@@std@@@4@$0A@@std@@@std@@IAEPAU?$_Tree_node@U?$pair@$$CBKPAUSMobTable@CPythonNonPlayer@@@std@@PAX@1@AAU?$pair@$$CBKPAUSMobTable@CPythonNonPlayer@@@1@@Z ; std::_Tree<std::_Tmap_traits<unsigned long,CPythonNonPlayer::SMobTable *,std::less<unsigned long>,std::allocator<std::pair<unsigned long const ,CPythonNonPlayer::SMobTable *> >,0> >::_Buynode<std::pair<unsigned long const ,CPythonNonPlayer::SMobTable *> &>
PUBLIC	??1?$_Erase_tree_and_orphan_guard@V?$allocator@U?$_Tree_node@U?$pair@$$CBKPAUSMobTable@CPythonNonPlayer@@@std@@PAX@std@@@std@@@?$_Tree_val@U?$_Tree_simple_types@U?$pair@$$CBKPAUSMobTable@CPythonNonPlayer@@@std@@@std@@@std@@QAE@XZ ; std::_Tree_val<std::_Tree_simple_types<std::pair<unsigned long const ,CPythonNonPlayer::SMobTable *> > >::_Erase_tree_and_orphan_guard<std::allocator<std::_Tree_node<std::pair<unsigned long const ,CPythonNonPlayer::SMobTable *>,void *> > >::~_Erase_tree_and_orphan_guard<std::allocator<std::_Tree_node<std::pair<unsigned long const ,CPythonNonPlayer::SMobTable *>,void *> > >
PUBLIC	??$_Copy_or_move@$0A@U?$pair@$$CBKPAUSMobTable@CPythonNonPlayer@@@std@@@?$_Tree@V?$_Tmap_traits@KPAUSMobTable@CPythonNonPlayer@@U?$less@K@std@@V?$allocator@U?$pair@$$CBKPAUSMobTable@CPythonNonPlayer@@@std@@@4@$0A@@std@@@std@@IAEPAU?$_Tree_node@U?$pair@$$CBKPAUSMobTable@CPythonNonPlayer@@@std@@PAX@1@AAU?$pair@$$CBKPAUSMobTable@CPythonNonPlayer@@@1@@Z ; std::_Tree<std::_Tmap_traits<unsigned long,CPythonNonPlayer::SMobTable *,std::less<unsigned long>,std::allocator<std::pair<unsigned long const ,CPythonNonPlayer::SMobTable *> >,0> >::_Copy_or_move<0,std::pair<unsigned long const ,CPythonNonPlayer::SMobTable *> >
PUBLIC	?_Max@?$_Tree_val@U?$_Tree_simple_types@U?$pair@$$CBKPAUSMobTable@CPythonNonPlayer@@@std@@@std@@@std@@SAPAU?$_Tree_node@U?$pair@$$CBKPAUSMobTable@CPythonNonPlayer@@@std@@PAX@2@PAU32@@Z ; std::_Tree_val<std::_Tree_simple_types<std::pair<unsigned long const ,CPythonNonPlayer::SMobTable *> > >::_Max
PUBLIC	??$_Copy_nodes@$0A@@?$_Tree@V?$_Tmap_traits@KPAUSMobTable@CPythonNonPlayer@@U?$less@K@std@@V?$allocator@U?$pair@$$CBKPAUSMobTable@CPythonNonPlayer@@@std@@@4@$0A@@std@@@std@@IAEPAU?$_Tree_node@U?$pair@$$CBKPAUSMobTable@CPythonNonPlayer@@@std@@PAX@1@PAU21@0@Z ; std::_Tree<std::_Tmap_traits<unsigned long,CPythonNonPlayer::SMobTable *,std::less<unsigned long>,std::allocator<std::pair<unsigned long const ,CPythonNonPlayer::SMobTable *> >,0> >::_Copy_nodes<0>
PUBLIC	??$?0V?$allocator@U?$_Tree_node@U?$pair@$$CBKPAUSMobTable@CPythonNonPlayer@@@std@@PAX@std@@@std@@$$V@?$_Compressed_pair@V?$allocator@U?$_Tree_node@U?$pair@$$CBKPAUSMobTable@CPythonNonPlayer@@@std@@PAX@std@@@std@@V?$_Tree_val@U?$_Tree_simple_types@U?$pair@$$CBKPAUSMobTable@CPythonNonPlayer@@@std@@@std@@@2@$00@std@@QAE@U_One_then_variadic_args_t@1@$$QAV?$allocator@U?$_Tree_node@U?$pair@$$CBKPAUSMobTable@CPythonNonPlayer@@@std@@PAX@std@@@1@@Z ; std::_Compressed_pair<std::allocator<std::_Tree_node<std::pair<unsigned long const ,CPythonNonPlayer::SMobTable *>,void *> >,std::_Tree_val<std::_Tree_simple_types<std::pair<unsigned long const ,CPythonNonPlayer::SMobTable *> > >,1>::_Compressed_pair<std::allocator<std::_Tree_node<std::pair<unsigned long const ,CPythonNonPlayer::SMobTable *>,void *> >,std::_Tree_val<std::_Tree_simple_types<std::pair<unsigned long const ,CPythonNonPlayer::SMobTable *> > >,1><std::allocator<std::_Tree_node<std::pair<unsigned long const ,CPythonNonPlayer::SMobTable *>,void *> > >
PUBLIC	?key_comp@?$_Tree@V?$_Tmap_traits@KPAUSMobTable@CPythonNonPlayer@@U?$less@K@std@@V?$allocator@U?$pair@$$CBKPAUSMobTable@CPythonNonPlayer@@@std@@@4@$0A@@std@@@std@@QBE?AU?$less@K@2@XZ ; std::_Tree<std::_Tmap_traits<unsigned long,CPythonNonPlayer::SMobTable *,std::less<unsigned long>,std::allocator<std::pair<unsigned long const ,CPythonNonPlayer::SMobTable *> >,0> >::key_comp
PUBLIC	??0?$_Tree_head_scoped_ptr@V?$allocator@U?$_Tree_node@U?$pair@$$CBKPAUSMobTable@CPythonNonPlayer@@@std@@PAX@std@@@std@@V?$_Tree_val@U?$_Tree_simple_types@U?$pair@$$CBKPAUSMobTable@CPythonNonPlayer@@@std@@@std@@@2@@std@@QAE@AAV?$allocator@U?$_Tree_node@U?$pair@$$CBKPAUSMobTable@CPythonNonPlayer@@@std@@PAX@std@@@1@AAV?$_Tree_val@U?$_Tree_simple_types@U?$pair@$$CBKPAUSMobTable@CPythonNonPlayer@@@std@@@std@@@1@@Z ; std::_Tree_head_scoped_ptr<std::allocator<std::_Tree_node<std::pair<unsigned long const ,CPythonNonPlayer::SMobTable *>,void *> >,std::_Tree_val<std::_Tree_simple_types<std::pair<unsigned long const ,CPythonNonPlayer::SMobTable *> > > >::_Tree_head_scoped_ptr<std::allocator<std::_Tree_node<std::pair<unsigned long const ,CPythonNonPlayer::SMobTable *>,void *> >,std::_Tree_val<std::_Tree_simple_types<std::pair<unsigned long const ,CPythonNonPlayer::SMobTable *> > > >
PUBLIC	?_Release@?$_Tree_head_scoped_ptr@V?$allocator@U?$_Tree_node@U?$pair@$$CBKPAUSMobTable@CPythonNonPlayer@@@std@@PAX@std@@@std@@V?$_Tree_val@U?$_Tree_simple_types@U?$pair@$$CBKPAUSMobTable@CPythonNonPlayer@@@std@@@std@@@2@@std@@QAEXXZ ; std::_Tree_head_scoped_ptr<std::allocator<std::_Tree_node<std::pair<unsigned long const ,CPythonNonPlayer::SMobTable *>,void *> >,std::_Tree_val<std::_Tree_simple_types<std::pair<unsigned long const ,CPythonNonPlayer::SMobTable *> > > >::_Release
PUBLIC	??1?$_Tree_head_scoped_ptr@V?$allocator@U?$_Tree_node@U?$pair@$$CBKPAUSMobTable@CPythonNonPlayer@@@std@@PAX@std@@@std@@V?$_Tree_val@U?$_Tree_simple_types@U?$pair@$$CBKPAUSMobTable@CPythonNonPlayer@@@std@@@std@@@2@@std@@QAE@XZ ; std::_Tree_head_scoped_ptr<std::allocator<std::_Tree_node<std::pair<unsigned long const ,CPythonNonPlayer::SMobTable *>,void *> >,std::_Tree_val<std::_Tree_simple_types<std::pair<unsigned long const ,CPythonNonPlayer::SMobTable *> > > >::~_Tree_head_scoped_ptr<std::allocator<std::_Tree_node<std::pair<unsigned long const ,CPythonNonPlayer::SMobTable *>,void *> >,std::_Tree_val<std::_Tree_simple_types<std::pair<unsigned long const ,CPythonNonPlayer::SMobTable *> > > >
PUBLIC	??$_Copy@$0A@@?$_Tree@V?$_Tmap_traits@KPAUSMobTable@CPythonNonPlayer@@U?$less@K@std@@V?$allocator@U?$pair@$$CBKPAUSMobTable@CPythonNonPlayer@@@std@@@4@$0A@@std@@@std@@IAEXABV01@@Z ; std::_Tree<std::_Tmap_traits<unsigned long,CPythonNonPlayer::SMobTable *,std::less<unsigned long>,std::allocator<std::pair<unsigned long const ,CPythonNonPlayer::SMobTable *> >,0> >::_Copy<0>
PUBLIC	??$?0U?$less@K@std@@U_One_then_variadic_args_t@1@V?$allocator@U?$_Tree_node@U?$pair@$$CBKPAUSMobTable@CPythonNonPlayer@@@std@@PAX@std@@@1@@?$_Compressed_pair@U?$less@K@std@@V?$_Compressed_pair@V?$allocator@U?$_Tree_node@U?$pair@$$CBKPAUSMobTable@CPythonNonPlayer@@@std@@PAX@std@@@std@@V?$_Tree_val@U?$_Tree_simple_types@U?$pair@$$CBKPAUSMobTable@CPythonNonPlayer@@@std@@@std@@@2@$00@2@$00@std@@QAE@U_One_then_variadic_args_t@1@$$QAU?$less@K@1@$$QAU21@$$QAV?$allocator@U?$_Tree_node@U?$pair@$$CBKPAUSMobTable@CPythonNonPlayer@@@std@@PAX@std@@@1@@Z ; std::_Compressed_pair<std::less<unsigned long>,std::_Compressed_pair<std::allocator<std::_Tree_node<std::pair<unsigned long const ,CPythonNonPlayer::SMobTable *>,void *> >,std::_Tree_val<std::_Tree_simple_types<std::pair<unsigned long const ,CPythonNonPlayer::SMobTable *> > >,1>,1>::_Compressed_pair<std::less<unsigned long>,std::_Compressed_pair<std::allocator<std::_Tree_node<std::pair<unsigned long const ,CPythonNonPlayer::SMobTable *>,void *> >,std::_Tree_val<std::_Tree_simple_types<std::pair<unsigned long const ,CPythonNonPlayer::SMobTable *> > >,1>,1><std::less<unsigned long>,std::_One_then_variadic_args_t,std::allocator<std::_Tree_node<std::pair<unsigned long const ,CPythonNonPlayer::SMobTable *>,void *> > >
PUBLIC	??$forward@V?$allocator@U?$_Tree_node@U?$pair@$$CBKPAUSMobTable@CPythonNonPlayer@@@std@@PAX@std@@@std@@@std@@YA$$QAV?$allocator@U?$_Tree_node@U?$pair@$$CBKPAUSMobTable@CPythonNonPlayer@@@std@@PAX@std@@@0@AAV10@@Z ; std::forward<std::allocator<std::_Tree_node<std::pair<unsigned long const ,CPythonNonPlayer::SMobTable *>,void *> > >
PUBLIC	?select_on_container_copy_construction@?$_Default_allocator_traits@V?$allocator@U?$_Tree_node@U?$pair@$$CBKPAUSMobTable@CPythonNonPlayer@@@std@@PAX@std@@@std@@@std@@SA?AV?$allocator@U?$_Tree_node@U?$pair@$$CBKPAUSMobTable@CPythonNonPlayer@@@std@@PAX@std@@@2@ABV32@@Z ; std::_Default_allocator_traits<std::allocator<std::_Tree_node<std::pair<unsigned long const ,CPythonNonPlayer::SMobTable *>,void *> > >::select_on_container_copy_construction
PUBLIC	??$?0V?$allocator@U?$_Tree_node@U?$pair@$$CBKPAUSMobTable@CPythonNonPlayer@@@std@@PAX@std@@@std@@@?$_Tree@V?$_Tmap_traits@KPAUSMobTable@CPythonNonPlayer@@U?$less@K@std@@V?$allocator@U?$pair@$$CBKPAUSMobTable@CPythonNonPlayer@@@std@@@4@$0A@@std@@@std@@QAE@ABV01@$$QAV?$allocator@U?$_Tree_node@U?$pair@$$CBKPAUSMobTable@CPythonNonPlayer@@@std@@PAX@std@@@1@@Z ; std::_Tree<std::_Tmap_traits<unsigned long,CPythonNonPlayer::SMobTable *,std::less<unsigned long>,std::allocator<std::pair<unsigned long const ,CPythonNonPlayer::SMobTable *> >,0> >::_Tree<std::_Tmap_traits<unsigned long,CPythonNonPlayer::SMobTable *,std::less<unsigned long>,std::allocator<std::pair<unsigned long const ,CPythonNonPlayer::SMobTable *> >,0> ><std::allocator<std::_Tree_node<std::pair<unsigned long const ,CPythonNonPlayer::SMobTable *>,void *> > >
PUBLIC	??0?$map@KPAUSMobTable@CPythonNonPlayer@@U?$less@K@std@@V?$allocator@U?$pair@$$CBKPAUSMobTable@CPythonNonPlayer@@@std@@@4@@std@@QAE@ABV01@@Z ; std::map<unsigned long,CPythonNonPlayer::SMobTable *,std::less<unsigned long>,std::allocator<std::pair<unsigned long const ,CPythonNonPlayer::SMobTable *> > >::map<unsigned long,CPythonNonPlayer::SMobTable *,std::less<unsigned long>,std::allocator<std::pair<unsigned long const ,CPythonNonPlayer::SMobTable *> > >
PUBLIC	?size@?$_Tree@V?$_Tmap_traits@KPAUSMobTable@CPythonNonPlayer@@U?$less@K@std@@V?$allocator@U?$pair@$$CBKPAUSMobTable@CPythonNonPlayer@@@std@@@4@$0A@@std@@@std@@QBEIXZ ; std::_Tree<std::_Tmap_traits<unsigned long,CPythonNonPlayer::SMobTable *,std::less<unsigned long>,std::allocator<std::pair<unsigned long const ,CPythonNonPlayer::SMobTable *> >,0> >::size
PUBLIC	??0?$_Tree_unchecked_const_iterator@V?$_Tree_val@U?$_Tree_simple_types@U?$pair@$$CBKPAUSMobTable@CPythonNonPlayer@@@std@@@std@@@std@@U_Iterator_base0@2@@std@@QAE@XZ ; std::_Tree_unchecked_const_iterator<std::_Tree_val<std::_Tree_simple_types<std::pair<unsigned long const ,CPythonNonPlayer::SMobTable *> > >,std::_Iterator_base0>::_Tree_unchecked_const_iterator<std::_Tree_val<std::_Tree_simple_types<std::pair<unsigned long const ,CPythonNonPlayer::SMobTable *> > >,std::_Iterator_base0>
PUBLIC	?initNonPlayer@@YAXXZ				; initNonPlayer
PUBLIC	?nonplayerGetMonsterMaxHP@@YAPAU_object@@PAU1@0@Z ; nonplayerGetMonsterMaxHP
PUBLIC	?nonplayerGetMonsterRaceFlag@@YAPAU_object@@PAU1@0@Z ; nonplayerGetMonsterRaceFlag
PUBLIC	?nonplayerIsMonsterStone@@YAPAU_object@@PAU1@0@Z ; nonplayerIsMonsterStone
PUBLIC	?nonplayerGetMonsterDX@@YAPAU_object@@PAU1@0@Z	; nonplayerGetMonsterDX
PUBLIC	?nonplayerGetMonsterST@@YAPAU_object@@PAU1@0@Z	; nonplayerGetMonsterST
PUBLIC	?nonplayerGetMonsterDamageMultiply@@YAPAU_object@@PAU1@0@Z ; nonplayerGetMonsterDamageMultiply
PUBLIC	?nonplayerGetMonsterExp@@YAPAU_object@@PAU1@0@Z	; nonplayerGetMonsterExp
PUBLIC	?nonplayerGetMonsterDamage@@YAPAU_object@@PAU1@0@Z ; nonplayerGetMonsterDamage
PUBLIC	?nonplayerGetMonsterLevel@@YAPAU_object@@PAU1@0@Z ; nonplayerGetMonsterLevel
PUBLIC	?nonplayerGetMonsterResist@@YAPAU_object@@PAU1@0@Z ; nonplayerGetMonsterResist
PUBLIC	?nonplayerGetMonsterPrice@@YAPAU_object@@PAU1@0@Z ; nonplayerGetMonsterPrice
PUBLIC	??0?$_Tree_const_iterator@V?$_Tree_val@U?$_Tree_simple_types@U?$pair@$$CBKPAUSMobTable@CPythonNonPlayer@@@std@@@std@@@std@@@std@@QAE@XZ ; std::_Tree_const_iterator<std::_Tree_val<std::_Tree_simple_types<std::pair<unsigned long const ,CPythonNonPlayer::SMobTable *> > > >::_Tree_const_iterator<std::_Tree_val<std::_Tree_simple_types<std::pair<unsigned long const ,CPythonNonPlayer::SMobTable *> > > >
PUBLIC	??0?$_Tree_iterator@V?$_Tree_val@U?$_Tree_simple_types@U?$pair@$$CBKPAUSMobTable@CPythonNonPlayer@@@std@@@std@@@std@@@std@@QAE@XZ ; std::_Tree_iterator<std::_Tree_val<std::_Tree_simple_types<std::pair<unsigned long const ,CPythonNonPlayer::SMobTable *> > > >::_Tree_iterator<std::_Tree_val<std::_Tree_simple_types<std::pair<unsigned long const ,CPythonNonPlayer::SMobTable *> > > >
PUBLIC	?nonPlayerGetMobsByName@@YAPAU_object@@PAU1@0@Z	; nonPlayerGetMobsByName
PUBLIC	?nonplayerMonsterHasRaceFlag@@YAPAU_object@@PAU1@0@Z ; nonplayerMonsterHasRaceFlag
PUBLIC	?nonplayerGetRaceNumByVID@@YAPAU_object@@PAU1@0@Z ; nonplayerGetRaceNumByVID
PUBLIC	?nonplayerLoadNonPlayerData@@YAPAU_object@@PAU1@0@Z ; nonplayerLoadNonPlayerData
PUBLIC	?nonplayerGetMonsterName@@YAPAU_object@@PAU1@0@Z ; nonplayerGetMonsterName
PUBLIC	?nonplayerGetGradeByVID@@YAPAU_object@@PAU1@0@Z	; nonplayerGetGradeByVID
PUBLIC	?nonplayerGetLevelByVID@@YAPAU_object@@PAU1@0@Z	; nonplayerGetLevelByVID
PUBLIC	?nonplayerGetEventTypeByVID@@YAPAU_object@@PAU1@0@Z ; nonplayerGetEventTypeByVID
PUBLIC	?nonplayerGetEventType@@YAPAU_object@@PAU1@0@Z	; nonplayerGetEventType
PUBLIC	?GetMonsterData@CPythonNonPlayer@@QAE?AV?$map@KPAUSMobTable@CPythonNonPlayer@@U?$less@K@std@@V?$allocator@U?$pair@$$CBKPAUSMobTable@CPythonNonPlayer@@@std@@@4@@std@@XZ ; CPythonNonPlayer::GetMonsterData
;	COMDAT xdata$x
xdata$x	SEGMENT
__ehfuncinfo$?GetMonsterData@CPythonNonPlayer@@QAE?AV?$map@KPAUSMobTable@CPythonNonPlayer@@U?$less@K@std@@V?$allocator@U?$pair@$$CBKPAUSMobTable@CPythonNonPlayer@@@std@@@4@@std@@XZ DQ 00000000119930522r ; 2.33398e-314
	DD	FLAT:__unwindtable$?GetMonsterData@CPythonNonPlayer@@QAE?AV?$map@KPAUSMobTable@CPythonNonPlayer@@U?$less@K@std@@V?$allocator@U?$pair@$$CBKPAUSMobTable@CPythonNonPlayer@@@std@@@4@@std@@XZ
	DQ	00000000000000000r		; 0
	DQ	00000000000000000r		; 0
	DQ	00000000100000000r		; 2.122e-314
__unwindtable$?GetMonsterData@CPythonNonPlayer@@QAE?AV?$map@KPAUSMobTable@CPythonNonPlayer@@U?$less@K@std@@V?$allocator@U?$pair@$$CBKPAUSMobTable@CPythonNonPlayer@@@std@@@4@@std@@XZ DD 0ffffffffH
	DD	FLAT:__unwindfunclet$?GetMonsterData@CPythonNonPlayer@@QAE?AV?$map@KPAUSMobTable@CPythonNonPlayer@@U?$less@K@std@@V?$allocator@U?$pair@$$CBKPAUSMobTable@CPythonNonPlayer@@@std@@@4@@std@@XZ$2
xdata$x	ENDS
;	COMDAT xdata$x
xdata$x	SEGMENT
__ehfuncinfo$?nonPlayerGetMobsByName@@YAPAU_object@@PAU1@0@Z DD 019930522H
	DD	04H
	DD	FLAT:__unwindtable$?nonPlayerGetMobsByName@@YAPAU_object@@PAU1@0@Z
	DD	2 DUP(00H)
	DD	2 DUP(00H)
	DD	00H
	DD	01H
__unwindtable$?nonPlayerGetMobsByName@@YAPAU_object@@PAU1@0@Z DD 0ffffffffH
	DD	FLAT:__unwindfunclet$?nonPlayerGetMobsByName@@YAPAU_object@@PAU1@0@Z$10
	DD	0ffffffffH
	DD	FLAT:__unwindfunclet$?nonPlayerGetMobsByName@@YAPAU_object@@PAU1@0@Z$0
	DD	01H
	DD	FLAT:__unwindfunclet$?nonPlayerGetMobsByName@@YAPAU_object@@PAU1@0@Z$1
	DD	02H
	DD	FLAT:__unwindfunclet$?nonPlayerGetMobsByName@@YAPAU_object@@PAU1@0@Z$2
xdata$x	ENDS
;	COMDAT xdata$x
xdata$x	SEGMENT
__ehfuncinfo$??0?$map@KPAUSMobTable@CPythonNonPlayer@@U?$less@K@std@@V?$allocator@U?$pair@$$CBKPAUSMobTable@CPythonNonPlayer@@@std@@@4@@std@@QAE@ABV01@@Z DQ 00000000119930522r ; 2.33398e-314
	DD	FLAT:__unwindtable$??0?$map@KPAUSMobTable@CPythonNonPlayer@@U?$less@K@std@@V?$allocator@U?$pair@$$CBKPAUSMobTable@CPythonNonPlayer@@@std@@@4@@std@@QAE@ABV01@@Z
	DQ	00000000000000000r		; 0
	DQ	00000000000000000r		; 0
	DQ	00000000100000000r		; 2.122e-314
__unwindtable$??0?$map@KPAUSMobTable@CPythonNonPlayer@@U?$less@K@std@@V?$allocator@U?$pair@$$CBKPAUSMobTable@CPythonNonPlayer@@@std@@@4@@std@@QAE@ABV01@@Z DD 0ffffffffH
	DD	FLAT:__unwindfunclet$??0?$map@KPAUSMobTable@CPythonNonPlayer@@U?$less@K@std@@V?$allocator@U?$pair@$$CBKPAUSMobTable@CPythonNonPlayer@@@std@@@4@@std@@QAE@ABV01@@Z$1
xdata$x	ENDS
;	COMDAT xdata$x
xdata$x	SEGMENT
__ehfuncinfo$??$?0V?$allocator@U?$_Tree_node@U?$pair@$$CBKPAUSMobTable@CPythonNonPlayer@@@std@@PAX@std@@@std@@@?$_Tree@V?$_Tmap_traits@KPAUSMobTable@CPythonNonPlayer@@U?$less@K@std@@V?$allocator@U?$pair@$$CBKPAUSMobTable@CPythonNonPlayer@@@std@@@4@$0A@@std@@@std@@QAE@ABV01@$$QAV?$allocator@U?$_Tree_node@U?$pair@$$CBKPAUSMobTable@CPythonNonPlayer@@@std@@PAX@std@@@1@@Z DQ 00000000119930522r ; 2.33398e-314
	DD	FLAT:__unwindtable$??$?0V?$allocator@U?$_Tree_node@U?$pair@$$CBKPAUSMobTable@CPythonNonPlayer@@@std@@PAX@std@@@std@@@?$_Tree@V?$_Tmap_traits@KPAUSMobTable@CPythonNonPlayer@@U?$less@K@std@@V?$allocator@U?$pair@$$CBKPAUSMobTable@CPythonNonPlayer@@@std@@@4@$0A@@std@@@std@@QAE@ABV01@$$QAV?$allocator@U?$_Tree_node@U?$pair@$$CBKPAUSMobTable@CPythonNonPlayer@@@std@@PAX@std@@@1@@Z
	DQ	00000000000000000r		; 0
	DQ	00000000000000000r		; 0
	DQ	00000000100000000r		; 2.122e-314
__unwindtable$??$?0V?$allocator@U?$_Tree_node@U?$pair@$$CBKPAUSMobTable@CPythonNonPlayer@@@std@@PAX@std@@@std@@@?$_Tree@V?$_Tmap_traits@KPAUSMobTable@CPythonNonPlayer@@U?$less@K@std@@V?$allocator@U?$pair@$$CBKPAUSMobTable@CPythonNonPlayer@@@std@@@4@$0A@@std@@@std@@QAE@ABV01@$$QAV?$allocator@U?$_Tree_node@U?$pair@$$CBKPAUSMobTable@CPythonNonPlayer@@@std@@PAX@std@@@1@@Z DD 0ffffffffH
	DD	FLAT:__unwindfunclet$??$?0V?$allocator@U?$_Tree_node@U?$pair@$$CBKPAUSMobTable@CPythonNonPlayer@@@std@@PAX@std@@@std@@@?$_Tree@V?$_Tmap_traits@KPAUSMobTable@CPythonNonPlayer@@U?$less@K@std@@V?$allocator@U?$pair@$$CBKPAUSMobTable@CPythonNonPlayer@@@std@@@4@$0A@@std@@@std@@QAE@ABV01@$$QAV?$allocator@U?$_Tree_node@U?$pair@$$CBKPAUSMobTable@CPythonNonPlayer@@@std@@PAX@std@@@1@@Z$0
xdata$x	ENDS
;	COMDAT xdata$x
xdata$x	SEGMENT
__ehfuncinfo$??$_Copy_nodes@$0A@@?$_Tree@V?$_Tmap_traits@KPAUSMobTable@CPythonNonPlayer@@U?$less@K@std@@V?$allocator@U?$pair@$$CBKPAUSMobTable@CPythonNonPlayer@@@std@@@4@$0A@@std@@@std@@IAEPAU?$_Tree_node@U?$pair@$$CBKPAUSMobTable@CPythonNonPlayer@@@std@@PAX@1@PAU21@0@Z DQ 00000000219930522r ; 4.45598e-314
	DD	FLAT:__unwindtable$??$_Copy_nodes@$0A@@?$_Tree@V?$_Tmap_traits@KPAUSMobTable@CPythonNonPlayer@@U?$less@K@std@@V?$allocator@U?$pair@$$CBKPAUSMobTable@CPythonNonPlayer@@@std@@@4@$0A@@std@@@std@@IAEPAU?$_Tree_node@U?$pair@$$CBKPAUSMobTable@CPythonNonPlayer@@@std@@PAX@1@PAU21@0@Z
	DQ	00000000000000000r		; 0
	DQ	00000000000000000r		; 0
	DQ	00000000100000000r		; 2.122e-314
__unwindtable$??$_Copy_nodes@$0A@@?$_Tree@V?$_Tmap_traits@KPAUSMobTable@CPythonNonPlayer@@U?$less@K@std@@V?$allocator@U?$pair@$$CBKPAUSMobTable@CPythonNonPlayer@@@std@@@4@$0A@@std@@@std@@IAEPAU?$_Tree_node@U?$pair@$$CBKPAUSMobTable@CPythonNonPlayer@@@std@@PAX@1@PAU21@0@Z DD 0ffffffffH
	DD	FLAT:__unwindfunclet$??$_Copy_nodes@$0A@@?$_Tree@V?$_Tmap_traits@KPAUSMobTable@CPythonNonPlayer@@U?$less@K@std@@V?$allocator@U?$pair@$$CBKPAUSMobTable@CPythonNonPlayer@@@std@@@4@$0A@@std@@@std@@IAEPAU?$_Tree_node@U?$pair@$$CBKPAUSMobTable@CPythonNonPlayer@@@std@@PAX@1@PAU21@0@Z$1
	DD	0ffffffffH
	DD	FLAT:__unwindfunclet$??$_Copy_nodes@$0A@@?$_Tree@V?$_Tmap_traits@KPAUSMobTable@CPythonNonPlayer@@U?$less@K@std@@V?$allocator@U?$pair@$$CBKPAUSMobTable@CPythonNonPlayer@@@std@@@4@$0A@@std@@@std@@IAEPAU?$_Tree_node@U?$pair@$$CBKPAUSMobTable@CPythonNonPlayer@@@std@@PAX@1@PAU21@0@Z$0
xdata$x	ENDS
;	COMDAT xdata$x
xdata$x	SEGMENT
__ehfuncinfo$??$_Copy_or_move@$0A@U?$pair@$$CBKPAUSMobTable@CPythonNonPlayer@@@std@@@?$_Tree@V?$_Tmap_traits@KPAUSMobTable@CPythonNonPlayer@@U?$less@K@std@@V?$allocator@U?$pair@$$CBKPAUSMobTable@CPythonNonPlayer@@@std@@@4@$0A@@std@@@std@@IAEPAU?$_Tree_node@U?$pair@$$CBKPAUSMobTable@CPythonNonPlayer@@@std@@PAX@1@AAU?$pair@$$CBKPAUSMobTable@CPythonNonPlayer@@@1@@Z DQ 00000000119930522r ; 2.33398e-314
	DD	FLAT:__unwindtable$??$_Copy_or_move@$0A@U?$pair@$$CBKPAUSMobTable@CPythonNonPlayer@@@std@@@?$_Tree@V?$_Tmap_traits@KPAUSMobTable@CPythonNonPlayer@@U?$less@K@std@@V?$allocator@U?$pair@$$CBKPAUSMobTable@CPythonNonPlayer@@@std@@@4@$0A@@std@@@std@@IAEPAU?$_Tree_node@U?$pair@$$CBKPAUSMobTable@CPythonNonPlayer@@@std@@PAX@1@AAU?$pair@$$CBKPAUSMobTable@CPythonNonPlayer@@@1@@Z
	DQ	00000000000000000r		; 0
	DQ	00000000000000000r		; 0
	DQ	00000000100000000r		; 2.122e-314
__unwindtable$??$_Copy_or_move@$0A@U?$pair@$$CBKPAUSMobTable@CPythonNonPlayer@@@std@@@?$_Tree@V?$_Tmap_traits@KPAUSMobTable@CPythonNonPlayer@@U?$less@K@std@@V?$allocator@U?$pair@$$CBKPAUSMobTable@CPythonNonPlayer@@@std@@@4@$0A@@std@@@std@@IAEPAU?$_Tree_node@U?$pair@$$CBKPAUSMobTable@CPythonNonPlayer@@@std@@PAX@1@AAU?$pair@$$CBKPAUSMobTable@CPythonNonPlayer@@@1@@Z DD 0ffffffffH
	DD	FLAT:__unwindfunclet$??$_Copy_or_move@$0A@U?$pair@$$CBKPAUSMobTable@CPythonNonPlayer@@@std@@@?$_Tree@V?$_Tmap_traits@KPAUSMobTable@CPythonNonPlayer@@U?$less@K@std@@V?$allocator@U?$pair@$$CBKPAUSMobTable@CPythonNonPlayer@@@std@@@4@$0A@@std@@@std@@IAEPAU?$_Tree_node@U?$pair@$$CBKPAUSMobTable@CPythonNonPlayer@@@std@@PAX@1@AAU?$pair@$$CBKPAUSMobTable@CPythonNonPlayer@@@1@@Z$0
xdata$x	ENDS
;	COMDAT xdata$x
xdata$x	SEGMENT
__ehfuncinfo$??$_Buynode@AAU?$pair@$$CBKPAUSMobTable@CPythonNonPlayer@@@std@@@?$_Tree@V?$_Tmap_traits@KPAUSMobTable@CPythonNonPlayer@@U?$less@K@std@@V?$allocator@U?$pair@$$CBKPAUSMobTable@CPythonNonPlayer@@@std@@@4@$0A@@std@@@std@@IAEPAU?$_Tree_node@U?$pair@$$CBKPAUSMobTable@CPythonNonPlayer@@@std@@PAX@1@AAU?$pair@$$CBKPAUSMobTable@CPythonNonPlayer@@@1@@Z DQ 00000000119930522r ; 2.33398e-314
	DD	FLAT:__unwindtable$??$_Buynode@AAU?$pair@$$CBKPAUSMobTable@CPythonNonPlayer@@@std@@@?$_Tree@V?$_Tmap_traits@KPAUSMobTable@CPythonNonPlayer@@U?$less@K@std@@V?$allocator@U?$pair@$$CBKPAUSMobTable@CPythonNonPlayer@@@std@@@4@$0A@@std@@@std@@IAEPAU?$_Tree_node@U?$pair@$$CBKPAUSMobTable@CPythonNonPlayer@@@std@@PAX@1@AAU?$pair@$$CBKPAUSMobTable@CPythonNonPlayer@@@1@@Z
	DQ	00000000000000000r		; 0
	DQ	00000000000000000r		; 0
	DQ	00000000100000000r		; 2.122e-314
__unwindtable$??$_Buynode@AAU?$pair@$$CBKPAUSMobTable@CPythonNonPlayer@@@std@@@?$_Tree@V?$_Tmap_traits@KPAUSMobTable@CPythonNonPlayer@@U?$less@K@std@@V?$allocator@U?$pair@$$CBKPAUSMobTable@CPythonNonPlayer@@@std@@@4@$0A@@std@@@std@@IAEPAU?$_Tree_node@U?$pair@$$CBKPAUSMobTable@CPythonNonPlayer@@@std@@PAX@1@AAU?$pair@$$CBKPAUSMobTable@CPythonNonPlayer@@@1@@Z DD 0ffffffffH
	DD	FLAT:__unwindfunclet$??$_Buynode@AAU?$pair@$$CBKPAUSMobTable@CPythonNonPlayer@@@std@@@?$_Tree@V?$_Tmap_traits@KPAUSMobTable@CPythonNonPlayer@@U?$less@K@std@@V?$allocator@U?$pair@$$CBKPAUSMobTable@CPythonNonPlayer@@@std@@@4@$0A@@std@@@std@@IAEPAU?$_Tree_node@U?$pair@$$CBKPAUSMobTable@CPythonNonPlayer@@@std@@PAX@1@AAU?$pair@$$CBKPAUSMobTable@CPythonNonPlayer@@@1@@Z$0
xdata$x	ENDS
;	COMDAT xdata$x
xdata$x	SEGMENT
__ehfuncinfo$??$_Buynode@V?$allocator@U?$_Tree_node@U?$pair@$$CBKPAUSMobTable@CPythonNonPlayer@@@std@@PAX@std@@@std@@AAU?$pair@$$CBKPAUSMobTable@CPythonNonPlayer@@@2@@?$_Tree_node@U?$pair@$$CBKPAUSMobTable@CPythonNonPlayer@@@std@@PAX@std@@SAPAU01@AAV?$allocator@U?$_Tree_node@U?$pair@$$CBKPAUSMobTable@CPythonNonPlayer@@@std@@PAX@std@@@1@PAU01@AAU?$pair@$$CBKPAUSMobTable@CPythonNonPlayer@@@1@@Z DQ 00000000119930522r ; 2.33398e-314
	DD	FLAT:__unwindtable$??$_Buynode@V?$allocator@U?$_Tree_node@U?$pair@$$CBKPAUSMobTable@CPythonNonPlayer@@@std@@PAX@std@@@std@@AAU?$pair@$$CBKPAUSMobTable@CPythonNonPlayer@@@2@@?$_Tree_node@U?$pair@$$CBKPAUSMobTable@CPythonNonPlayer@@@std@@PAX@std@@SAPAU01@AAV?$allocator@U?$_Tree_node@U?$pair@$$CBKPAUSMobTable@CPythonNonPlayer@@@std@@PAX@std@@@1@PAU01@AAU?$pair@$$CBKPAUSMobTable@CPythonNonPlayer@@@1@@Z
	DQ	00000000000000000r		; 0
	DQ	00000000000000000r		; 0
	DQ	00000000100000000r		; 2.122e-314
__unwindtable$??$_Buynode@V?$allocator@U?$_Tree_node@U?$pair@$$CBKPAUSMobTable@CPythonNonPlayer@@@std@@PAX@std@@@std@@AAU?$pair@$$CBKPAUSMobTable@CPythonNonPlayer@@@2@@?$_Tree_node@U?$pair@$$CBKPAUSMobTable@CPythonNonPlayer@@@std@@PAX@std@@SAPAU01@AAV?$allocator@U?$_Tree_node@U?$pair@$$CBKPAUSMobTable@CPythonNonPlayer@@@std@@PAX@std@@@1@PAU01@AAU?$pair@$$CBKPAUSMobTable@CPythonNonPlayer@@@1@@Z DD 0ffffffffH
	DD	FLAT:__unwindfunclet$??$_Buynode@V?$allocator@U?$_Tree_node@U?$pair@$$CBKPAUSMobTable@CPythonNonPlayer@@@std@@PAX@std@@@std@@AAU?$pair@$$CBKPAUSMobTable@CPythonNonPlayer@@@2@@?$_Tree_node@U?$pair@$$CBKPAUSMobTable@CPythonNonPlayer@@@std@@PAX@std@@SAPAU01@AAV?$allocator@U?$_Tree_node@U?$pair@$$CBKPAUSMobTable@CPythonNonPlayer@@@std@@PAX@std@@@1@PAU01@AAU?$pair@$$CBKPAUSMobTable@CPythonNonPlayer@@@1@@Z$0
; Function compile flags: /Ogtp
; File C:\Anka2Project\Anka2Project\Source\Binary\source\UserInterface\PythonNonPlayerModule.cpp
; File C:\Anka2Project\Anka2Project\Source\Binary\source\eterBase\Singleton.h
; File C:\Anka2Project\Anka2Project\Source\Binary\source\UserInterface\PythonNonPlayerModule.cpp
;	COMDAT ?nonplayerGetEventType@@YAPAU_object@@PAU1@0@Z
_TEXT	SEGMENT
_iVirtualNumber$ = -4					; size = 4
_poSelf$ = 8						; size = 4
_poArgs$ = 12						; size = 4
?nonplayerGetEventType@@YAPAU_object@@PAU1@0@Z PROC	; nonplayerGetEventType, COMDAT

; 7    : {

  00000	55		 push	 ebp
  00001	8b ec		 mov	 ebp, esp
  00003	51		 push	 ecx

; 8    : 	int iVirtualNumber;
; 9    : 	if (!PyTuple_GetInteger(poArgs, 0, &iVirtualNumber))

  00004	8d 45 fc	 lea	 eax, DWORD PTR _iVirtualNumber$[ebp]
  00007	50		 push	 eax
  00008	6a 00		 push	 0
  0000a	ff 75 0c	 push	 DWORD PTR _poArgs$[ebp]
  0000d	e8 00 00 00 00	 call	 ?PyTuple_GetInteger@@YA_NPAU_object@@HPAH@Z ; PyTuple_GetInteger
  00012	83 c4 0c	 add	 esp, 12			; 0000000cH
  00015	84 c0		 test	 al, al
  00017	75 0e		 jne	 SHORT $LN2@nonplayerG

; 10   : 		return Py_BuildException();

  00019	6a 00		 push	 0
  0001b	e8 00 00 00 00	 call	 ?Py_BuildException@@YAPAU_object@@PBDZZ ; Py_BuildException
  00020	83 c4 04	 add	 esp, 4

; 15   : }

  00023	8b e5		 mov	 esp, ebp
  00025	5d		 pop	 ebp
  00026	c3		 ret	 0
$LN2@nonplayerG:
; File C:\Anka2Project\Anka2Project\Source\Binary\source\eterBase\Singleton.h

; 26   : 		assert(ms_singleton);

  00027	8b 0d 00 00 00
	00		 mov	 ecx, DWORD PTR ?ms_singleton@?$CSingleton@VCPythonNonPlayer@@@@0PAVCPythonNonPlayer@@A ; CSingleton<CPythonNonPlayer>::ms_singleton
  0002d	85 c9		 test	 ecx, ecx
  0002f	75 1a		 jne	 SHORT $LN6@nonplayerG
  00031	6a 1a		 push	 26			; 0000001aH
  00033	68 00 00 00 00	 push	 OFFSET ??_C@_1IO@CAJLEEOI@?$AAC?$AA?3?$AA?2?$AAA?$AAn?$AAk?$AAa?$AA2?$AAP?$AAr?$AAo?$AAj?$AAe?$AAc?$AAt@
  00038	68 00 00 00 00	 push	 OFFSET ??_C@_1BK@FMEHPMFE@?$AAm?$AAs?$AA_?$AAs?$AAi?$AAn?$AAg?$AAl?$AAe?$AAt?$AAo?$AAn@
  0003d	e8 00 00 00 00	 call	 __wassert
  00042	8b 0d 00 00 00
	00		 mov	 ecx, DWORD PTR ?ms_singleton@?$CSingleton@VCPythonNonPlayer@@@@0PAVCPythonNonPlayer@@A ; CSingleton<CPythonNonPlayer>::ms_singleton
  00048	83 c4 0c	 add	 esp, 12			; 0000000cH
$LN6@nonplayerG:
; File C:\Anka2Project\Anka2Project\Source\Binary\source\UserInterface\PythonNonPlayerModule.cpp

; 12   : 	BYTE iType = CPythonNonPlayer::Instance().GetEventType(iVirtualNumber);

  0004b	ff 75 fc	 push	 DWORD PTR _iVirtualNumber$[ebp]
  0004e	e8 00 00 00 00	 call	 ?GetEventType@CPythonNonPlayer@@QAEEK@Z ; CPythonNonPlayer::GetEventType

; 13   : 
; 14   : 	return Py_BuildValue("i", iType);

  00053	0f b6 c0	 movzx	 eax, al
  00056	50		 push	 eax
  00057	68 00 00 00 00	 push	 OFFSET ??_C@_01KBJDNOO@i@
  0005c	ff 15 00 00 00
	00		 call	 DWORD PTR __imp__Py_BuildValue
  00062	83 c4 08	 add	 esp, 8

; 15   : }

  00065	8b e5		 mov	 esp, ebp
  00067	5d		 pop	 ebp
  00068	c3		 ret	 0
?nonplayerGetEventType@@YAPAU_object@@PAU1@0@Z ENDP	; nonplayerGetEventType
_TEXT	ENDS
; Function compile flags: /Ogtp
; File C:\Anka2Project\Anka2Project\Source\Binary\source\UserInterface\PythonNonPlayerModule.cpp
; File C:\Anka2Project\Anka2Project\Source\Binary\source\eterBase\Singleton.h
; File C:\Anka2Project\Anka2Project\Source\Binary\source\UserInterface\PythonNonPlayerModule.cpp
;	COMDAT ?nonplayerGetEventTypeByVID@@YAPAU_object@@PAU1@0@Z
_TEXT	SEGMENT
_iVirtualID$ = -4					; size = 4
_poSelf$ = 8						; size = 4
_poArgs$ = 12						; size = 4
?nonplayerGetEventTypeByVID@@YAPAU_object@@PAU1@0@Z PROC ; nonplayerGetEventTypeByVID, COMDAT

; 18   : {

  00000	55		 push	 ebp
  00001	8b ec		 mov	 ebp, esp
  00003	51		 push	 ecx

; 19   : 	int iVirtualID;
; 20   : 	if (!PyTuple_GetInteger(poArgs, 0, &iVirtualID))

  00004	8d 45 fc	 lea	 eax, DWORD PTR _iVirtualID$[ebp]
  00007	50		 push	 eax
  00008	6a 00		 push	 0
  0000a	ff 75 0c	 push	 DWORD PTR _poArgs$[ebp]
  0000d	e8 00 00 00 00	 call	 ?PyTuple_GetInteger@@YA_NPAU_object@@HPAH@Z ; PyTuple_GetInteger
  00012	83 c4 0c	 add	 esp, 12			; 0000000cH
  00015	84 c0		 test	 al, al
  00017	75 0e		 jne	 SHORT $LN2@nonplayerG

; 21   : 		return Py_BuildException();

  00019	6a 00		 push	 0
  0001b	e8 00 00 00 00	 call	 ?Py_BuildException@@YAPAU_object@@PBDZZ ; Py_BuildException
  00020	83 c4 04	 add	 esp, 4

; 26   : }

  00023	8b e5		 mov	 esp, ebp
  00025	5d		 pop	 ebp
  00026	c3		 ret	 0
$LN2@nonplayerG:
; File C:\Anka2Project\Anka2Project\Source\Binary\source\eterBase\Singleton.h

; 26   : 		assert(ms_singleton);

  00027	8b 0d 00 00 00
	00		 mov	 ecx, DWORD PTR ?ms_singleton@?$CSingleton@VCPythonNonPlayer@@@@0PAVCPythonNonPlayer@@A ; CSingleton<CPythonNonPlayer>::ms_singleton
  0002d	85 c9		 test	 ecx, ecx
  0002f	75 1a		 jne	 SHORT $LN6@nonplayerG
  00031	6a 1a		 push	 26			; 0000001aH
  00033	68 00 00 00 00	 push	 OFFSET ??_C@_1IO@CAJLEEOI@?$AAC?$AA?3?$AA?2?$AAA?$AAn?$AAk?$AAa?$AA2?$AAP?$AAr?$AAo?$AAj?$AAe?$AAc?$AAt@
  00038	68 00 00 00 00	 push	 OFFSET ??_C@_1BK@FMEHPMFE@?$AAm?$AAs?$AA_?$AAs?$AAi?$AAn?$AAg?$AAl?$AAe?$AAt?$AAo?$AAn@
  0003d	e8 00 00 00 00	 call	 __wassert
  00042	8b 0d 00 00 00
	00		 mov	 ecx, DWORD PTR ?ms_singleton@?$CSingleton@VCPythonNonPlayer@@@@0PAVCPythonNonPlayer@@A ; CSingleton<CPythonNonPlayer>::ms_singleton
  00048	83 c4 0c	 add	 esp, 12			; 0000000cH
$LN6@nonplayerG:
; File C:\Anka2Project\Anka2Project\Source\Binary\source\UserInterface\PythonNonPlayerModule.cpp

; 23   : 	BYTE iType = CPythonNonPlayer::Instance().GetEventTypeByVID(iVirtualID);

  0004b	ff 75 fc	 push	 DWORD PTR _iVirtualID$[ebp]
  0004e	e8 00 00 00 00	 call	 ?GetEventTypeByVID@CPythonNonPlayer@@QAEEK@Z ; CPythonNonPlayer::GetEventTypeByVID

; 24   : 
; 25   : 	return Py_BuildValue("i", iType);

  00053	0f b6 c0	 movzx	 eax, al
  00056	50		 push	 eax
  00057	68 00 00 00 00	 push	 OFFSET ??_C@_01KBJDNOO@i@
  0005c	ff 15 00 00 00
	00		 call	 DWORD PTR __imp__Py_BuildValue
  00062	83 c4 08	 add	 esp, 8

; 26   : }

  00065	8b e5		 mov	 esp, ebp
  00067	5d		 pop	 ebp
  00068	c3		 ret	 0
?nonplayerGetEventTypeByVID@@YAPAU_object@@PAU1@0@Z ENDP ; nonplayerGetEventTypeByVID
_TEXT	ENDS
; Function compile flags: /Ogtp
; File C:\Anka2Project\Anka2Project\Source\Binary\source\UserInterface\PythonNonPlayerModule.cpp
; File C:\Anka2Project\Anka2Project\Source\Binary\source\eterBase\Singleton.h
; File C:\Anka2Project\Anka2Project\Source\Binary\source\UserInterface\PythonNonPlayerModule.cpp
; File C:\Anka2Project\Anka2Project\Source\Binary\source\eterBase\Singleton.h
; File C:\Anka2Project\Anka2Project\Source\Binary\source\UserInterface\PythonNonPlayerModule.cpp
; File C:\Program Files\Microsoft Visual Studio\2022\Community\VC\Tools\MSVC\14.44.35207\include\cmath
; File C:\Anka2Project\Anka2Project\Source\Binary\source\UserInterface\PythonNonPlayerModule.cpp
; File C:\Program Files\Microsoft Visual Studio\2022\Community\VC\Tools\MSVC\14.44.35207\include\cmath
; File C:\Anka2Project\Anka2Project\Source\Binary\source\UserInterface\PythonNonPlayerModule.cpp
;	COMDAT ?nonplayerGetLevelByVID@@YAPAU_object@@PAU1@0@Z
_TEXT	SEGMENT
_fAverageLevel$ = -8					; size = 4
tv186 = -8						; size = 4
_iVirtualID$ = -4					; size = 4
_poSelf$ = 8						; size = 4
_poArgs$ = 12						; size = 4
?nonplayerGetLevelByVID@@YAPAU_object@@PAU1@0@Z PROC	; nonplayerGetLevelByVID, COMDAT

; 29   : {

  00000	55		 push	 ebp
  00001	8b ec		 mov	 ebp, esp
  00003	83 ec 08	 sub	 esp, 8

; 30   : 	int iVirtualID;
; 31   : 	if (!PyTuple_GetInteger(poArgs, 0, &iVirtualID))

  00006	8d 45 fc	 lea	 eax, DWORD PTR _iVirtualID$[ebp]
  00009	50		 push	 eax
  0000a	6a 00		 push	 0
  0000c	ff 75 0c	 push	 DWORD PTR _poArgs$[ebp]
  0000f	e8 00 00 00 00	 call	 ?PyTuple_GetInteger@@YA_NPAU_object@@HPAH@Z ; PyTuple_GetInteger
  00014	83 c4 0c	 add	 esp, 12			; 0000000cH
  00017	84 c0		 test	 al, al
  00019	75 0e		 jne	 SHORT $LN2@nonplayerG

; 32   : 		return Py_BuildException();

  0001b	6a 00		 push	 0
  0001d	e8 00 00 00 00	 call	 ?Py_BuildException@@YAPAU_object@@PBDZZ ; Py_BuildException
  00022	83 c4 04	 add	 esp, 4

; 47   : }

  00025	8b e5		 mov	 esp, ebp
  00027	5d		 pop	 ebp
  00028	c3		 ret	 0
$LN2@nonplayerG:
; File C:\Anka2Project\Anka2Project\Source\Binary\source\eterBase\Singleton.h

; 26   : 		assert(ms_singleton);

  00029	8b 0d 00 00 00
	00		 mov	 ecx, DWORD PTR ?ms_singleton@?$CSingleton@VCPythonCharacterManager@@@@0PAVCPythonCharacterManager@@A ; CSingleton<CPythonCharacterManager>::ms_singleton
  0002f	85 c9		 test	 ecx, ecx
  00031	75 1a		 jne	 SHORT $LN8@nonplayerG
  00033	6a 1a		 push	 26			; 0000001aH
  00035	68 00 00 00 00	 push	 OFFSET ??_C@_1IO@CAJLEEOI@?$AAC?$AA?3?$AA?2?$AAA?$AAn?$AAk?$AAa?$AA2?$AAP?$AAr?$AAo?$AAj?$AAe?$AAc?$AAt@
  0003a	68 00 00 00 00	 push	 OFFSET ??_C@_1BK@FMEHPMFE@?$AAm?$AAs?$AA_?$AAs?$AAi?$AAn?$AAg?$AAl?$AAe?$AAt?$AAo?$AAn@
  0003f	e8 00 00 00 00	 call	 __wassert
  00044	8b 0d 00 00 00
	00		 mov	 ecx, DWORD PTR ?ms_singleton@?$CSingleton@VCPythonCharacterManager@@@@0PAVCPythonCharacterManager@@A ; CSingleton<CPythonCharacterManager>::ms_singleton
  0004a	83 c4 0c	 add	 esp, 12			; 0000000cH
$LN8@nonplayerG:
; File C:\Anka2Project\Anka2Project\Source\Binary\source\UserInterface\PythonNonPlayerModule.cpp

; 34   : 	CInstanceBase * pInstance = CPythonCharacterManager::Instance().GetInstancePtr(iVirtualID);

  0004d	8b 41 04	 mov	 eax, DWORD PTR [ecx+4]
  00050	83 c1 04	 add	 ecx, 4
  00053	56		 push	 esi
  00054	ff 75 fc	 push	 DWORD PTR _iVirtualID$[ebp]
  00057	ff 50 08	 call	 DWORD PTR [eax+8]
  0005a	8b f0		 mov	 esi, eax

; 35   : 
; 36   : 	if (!pInstance)

  0005c	85 f6		 test	 esi, esi
  0005e	74 37		 je	 SHORT $LN21@nonplayerG
; File C:\Anka2Project\Anka2Project\Source\Binary\source\eterBase\Singleton.h

; 26   : 		assert(ms_singleton);

  00060	8b 15 00 00 00
	00		 mov	 edx, DWORD PTR ?ms_singleton@?$CSingleton@VCPythonNonPlayer@@@@0PAVCPythonNonPlayer@@A ; CSingleton<CPythonNonPlayer>::ms_singleton
  00066	85 d2		 test	 edx, edx
  00068	75 1a		 jne	 SHORT $LN11@nonplayerG
  0006a	6a 1a		 push	 26			; 0000001aH
  0006c	68 00 00 00 00	 push	 OFFSET ??_C@_1IO@CAJLEEOI@?$AAC?$AA?3?$AA?2?$AAA?$AAn?$AAk?$AAa?$AA2?$AAP?$AAr?$AAo?$AAj?$AAe?$AAc?$AAt@
  00071	68 00 00 00 00	 push	 OFFSET ??_C@_1BK@FMEHPMFE@?$AAm?$AAs?$AA_?$AAs?$AAi?$AAn?$AAg?$AAl?$AAe?$AAt?$AAo?$AAn@
  00076	e8 00 00 00 00	 call	 __wassert
  0007b	8b 15 00 00 00
	00		 mov	 edx, DWORD PTR ?ms_singleton@?$CSingleton@VCPythonNonPlayer@@@@0PAVCPythonNonPlayer@@A ; CSingleton<CPythonNonPlayer>::ms_singleton
  00081	83 c4 0c	 add	 esp, 12			; 0000000cH
$LN11@nonplayerG:
; File C:\Anka2Project\Anka2Project\Source\Binary\source\UserInterface\PythonNonPlayerModule.cpp

; 39   : 	const CPythonNonPlayer::TMobTable * pMobTable = CPythonNonPlayer::Instance().GetTable(pInstance->GetVirtualNumber());

  00084	8b ce		 mov	 ecx, esi
  00086	e8 00 00 00 00	 call	 ?GetVirtualNumber@CInstanceBase@@QAEKXZ ; CInstanceBase::GetVirtualNumber
  0008b	50		 push	 eax
  0008c	8b ca		 mov	 ecx, edx
  0008e	e8 00 00 00 00	 call	 ?GetTable@CPythonNonPlayer@@QAEPBUSMobTable@1@K@Z ; CPythonNonPlayer::GetTable

; 40   : 
; 41   : 	if (!pMobTable)

  00093	85 c0		 test	 eax, eax
  00095	75 15		 jne	 SHORT $LN4@nonplayerG
$LN21@nonplayerG:

; 42   : 		return Py_BuildValue("i", -1);

  00097	6a ff		 push	 -1
  00099	68 00 00 00 00	 push	 OFFSET ??_C@_01KBJDNOO@i@
  0009e	ff 15 00 00 00
	00		 call	 DWORD PTR __imp__Py_BuildValue
  000a4	83 c4 08	 add	 esp, 8
  000a7	5e		 pop	 esi

; 47   : }

  000a8	8b e5		 mov	 esp, ebp
  000aa	5d		 pop	 ebp
  000ab	c3		 ret	 0
$LN4@nonplayerG:

; 45   : 	fAverageLevel = floor(fAverageLevel + 0.5f);

  000ac	0f b6 40 69	 movzx	 eax, BYTE PTR [eax+105]
; File C:\Program Files\Microsoft Visual Studio\2022\Community\VC\Tools\MSVC\14.44.35207\include\cmath

; 126  :     return __floorf(_Xx);

  000b0	83 ec 08	 sub	 esp, 8
  000b3	66 0f 6e c0	 movd	 xmm0, eax
; File C:\Anka2Project\Anka2Project\Source\Binary\source\UserInterface\PythonNonPlayerModule.cpp

; 44   : 	float fAverageLevel = pMobTable->bLevel;//(float(pMobTable->abLevelRange[0]) + float(pMobTable->abLevelRange[1])) / 2.0f;

  000b7	0f 5b c0	 cvtdq2ps xmm0, xmm0

; 45   : 	fAverageLevel = floor(fAverageLevel + 0.5f);

  000ba	f3 0f 58 05 00
	00 00 00	 addss	 xmm0, DWORD PTR __real@3f000000
; File C:\Program Files\Microsoft Visual Studio\2022\Community\VC\Tools\MSVC\14.44.35207\include\cmath

; 126  :     return __floorf(_Xx);

  000c2	f3 0f 11 45 f8	 movss	 DWORD PTR tv186[ebp], xmm0
  000c7	d9 45 f8	 fld	 DWORD PTR tv186[ebp]
  000ca	dd 1c 24	 fstp	 QWORD PTR [esp]
  000cd	e8 00 00 00 00	 call	 _floor
; File C:\Anka2Project\Anka2Project\Source\Binary\source\UserInterface\PythonNonPlayerModule.cpp

; 45   : 	fAverageLevel = floor(fAverageLevel + 0.5f);

  000d2	d9 5d f8	 fstp	 DWORD PTR _fAverageLevel$[ebp]

; 46   : 	return Py_BuildValue("i", int(fAverageLevel));

  000d5	f3 0f 2c 45 f8	 cvttss2si eax, DWORD PTR _fAverageLevel$[ebp]
  000da	50		 push	 eax
  000db	68 00 00 00 00	 push	 OFFSET ??_C@_01KBJDNOO@i@
  000e0	ff 15 00 00 00
	00		 call	 DWORD PTR __imp__Py_BuildValue
  000e6	83 c4 10	 add	 esp, 16			; 00000010H
  000e9	5e		 pop	 esi

; 47   : }

  000ea	8b e5		 mov	 esp, ebp
  000ec	5d		 pop	 ebp
  000ed	c3		 ret	 0
?nonplayerGetLevelByVID@@YAPAU_object@@PAU1@0@Z ENDP	; nonplayerGetLevelByVID
_TEXT	ENDS
; Function compile flags: /Ogtp
; File C:\Anka2Project\Anka2Project\Source\Binary\source\UserInterface\PythonNonPlayerModule.cpp
; File C:\Anka2Project\Anka2Project\Source\Binary\source\eterBase\Singleton.h
; File C:\Anka2Project\Anka2Project\Source\Binary\source\UserInterface\PythonNonPlayerModule.cpp
; File C:\Anka2Project\Anka2Project\Source\Binary\source\eterBase\Singleton.h
; File C:\Anka2Project\Anka2Project\Source\Binary\source\UserInterface\PythonNonPlayerModule.cpp
;	COMDAT ?nonplayerGetGradeByVID@@YAPAU_object@@PAU1@0@Z
_TEXT	SEGMENT
_iVirtualID$ = -4					; size = 4
_poSelf$ = 8						; size = 4
_poArgs$ = 12						; size = 4
?nonplayerGetGradeByVID@@YAPAU_object@@PAU1@0@Z PROC	; nonplayerGetGradeByVID, COMDAT

; 50   : {

  00000	55		 push	 ebp
  00001	8b ec		 mov	 ebp, esp
  00003	51		 push	 ecx

; 51   : 	int iVirtualID;
; 52   : 	if (!PyTuple_GetInteger(poArgs, 0, &iVirtualID))

  00004	8d 45 fc	 lea	 eax, DWORD PTR _iVirtualID$[ebp]
  00007	50		 push	 eax
  00008	6a 00		 push	 0
  0000a	ff 75 0c	 push	 DWORD PTR _poArgs$[ebp]
  0000d	e8 00 00 00 00	 call	 ?PyTuple_GetInteger@@YA_NPAU_object@@HPAH@Z ; PyTuple_GetInteger
  00012	83 c4 0c	 add	 esp, 12			; 0000000cH
  00015	84 c0		 test	 al, al
  00017	75 0e		 jne	 SHORT $LN2@nonplayerG

; 53   : 		return Py_BuildException();

  00019	6a 00		 push	 0
  0001b	e8 00 00 00 00	 call	 ?Py_BuildException@@YAPAU_object@@PBDZZ ; Py_BuildException
  00020	83 c4 04	 add	 esp, 4

; 66   : }

  00023	8b e5		 mov	 esp, ebp
  00025	5d		 pop	 ebp
  00026	c3		 ret	 0
$LN2@nonplayerG:
; File C:\Anka2Project\Anka2Project\Source\Binary\source\eterBase\Singleton.h

; 26   : 		assert(ms_singleton);

  00027	8b 0d 00 00 00
	00		 mov	 ecx, DWORD PTR ?ms_singleton@?$CSingleton@VCPythonCharacterManager@@@@0PAVCPythonCharacterManager@@A ; CSingleton<CPythonCharacterManager>::ms_singleton
  0002d	85 c9		 test	 ecx, ecx
  0002f	75 1a		 jne	 SHORT $LN8@nonplayerG
  00031	6a 1a		 push	 26			; 0000001aH
  00033	68 00 00 00 00	 push	 OFFSET ??_C@_1IO@CAJLEEOI@?$AAC?$AA?3?$AA?2?$AAA?$AAn?$AAk?$AAa?$AA2?$AAP?$AAr?$AAo?$AAj?$AAe?$AAc?$AAt@
  00038	68 00 00 00 00	 push	 OFFSET ??_C@_1BK@FMEHPMFE@?$AAm?$AAs?$AA_?$AAs?$AAi?$AAn?$AAg?$AAl?$AAe?$AAt?$AAo?$AAn@
  0003d	e8 00 00 00 00	 call	 __wassert
  00042	8b 0d 00 00 00
	00		 mov	 ecx, DWORD PTR ?ms_singleton@?$CSingleton@VCPythonCharacterManager@@@@0PAVCPythonCharacterManager@@A ; CSingleton<CPythonCharacterManager>::ms_singleton
  00048	83 c4 0c	 add	 esp, 12			; 0000000cH
$LN8@nonplayerG:
; File C:\Anka2Project\Anka2Project\Source\Binary\source\UserInterface\PythonNonPlayerModule.cpp

; 55   : 	CInstanceBase * pInstance = CPythonCharacterManager::Instance().GetInstancePtr(iVirtualID);

  0004b	8b 41 04	 mov	 eax, DWORD PTR [ecx+4]
  0004e	83 c1 04	 add	 ecx, 4
  00051	56		 push	 esi
  00052	ff 75 fc	 push	 DWORD PTR _iVirtualID$[ebp]
  00055	ff 50 08	 call	 DWORD PTR [eax+8]
  00058	8b f0		 mov	 esi, eax

; 56   : 
; 57   : 	if (!pInstance)

  0005a	85 f6		 test	 esi, esi
  0005c	75 15		 jne	 SHORT $LN3@nonplayerG
$LN19@nonplayerG:

; 63   : 		return Py_BuildValue("i", -1);
; 64   : 
; 65   : 	return Py_BuildValue("i", pMobTable->bRank);

  0005e	6a ff		 push	 -1
  00060	68 00 00 00 00	 push	 OFFSET ??_C@_01KBJDNOO@i@
  00065	ff 15 00 00 00
	00		 call	 DWORD PTR __imp__Py_BuildValue
  0006b	83 c4 08	 add	 esp, 8
  0006e	5e		 pop	 esi

; 66   : }

  0006f	8b e5		 mov	 esp, ebp
  00071	5d		 pop	 ebp
  00072	c3		 ret	 0
$LN3@nonplayerG:
; File C:\Anka2Project\Anka2Project\Source\Binary\source\eterBase\Singleton.h

; 26   : 		assert(ms_singleton);

  00073	8b 15 00 00 00
	00		 mov	 edx, DWORD PTR ?ms_singleton@?$CSingleton@VCPythonNonPlayer@@@@0PAVCPythonNonPlayer@@A ; CSingleton<CPythonNonPlayer>::ms_singleton
  00079	85 d2		 test	 edx, edx
  0007b	75 1a		 jne	 SHORT $LN11@nonplayerG
  0007d	6a 1a		 push	 26			; 0000001aH
  0007f	68 00 00 00 00	 push	 OFFSET ??_C@_1IO@CAJLEEOI@?$AAC?$AA?3?$AA?2?$AAA?$AAn?$AAk?$AAa?$AA2?$AAP?$AAr?$AAo?$AAj?$AAe?$AAc?$AAt@
  00084	68 00 00 00 00	 push	 OFFSET ??_C@_1BK@FMEHPMFE@?$AAm?$AAs?$AA_?$AAs?$AAi?$AAn?$AAg?$AAl?$AAe?$AAt?$AAo?$AAn@
  00089	e8 00 00 00 00	 call	 __wassert
  0008e	8b 15 00 00 00
	00		 mov	 edx, DWORD PTR ?ms_singleton@?$CSingleton@VCPythonNonPlayer@@@@0PAVCPythonNonPlayer@@A ; CSingleton<CPythonNonPlayer>::ms_singleton
  00094	83 c4 0c	 add	 esp, 12			; 0000000cH
$LN11@nonplayerG:
; File C:\Anka2Project\Anka2Project\Source\Binary\source\UserInterface\PythonNonPlayerModule.cpp

; 60   : 	const CPythonNonPlayer::TMobTable * pMobTable = CPythonNonPlayer::Instance().GetTable(pInstance->GetVirtualNumber());

  00097	8b ce		 mov	 ecx, esi
  00099	e8 00 00 00 00	 call	 ?GetVirtualNumber@CInstanceBase@@QAEKXZ ; CInstanceBase::GetVirtualNumber
  0009e	50		 push	 eax
  0009f	8b ca		 mov	 ecx, edx
  000a1	e8 00 00 00 00	 call	 ?GetTable@CPythonNonPlayer@@QAEPBUSMobTable@1@K@Z ; CPythonNonPlayer::GetTable

; 61   : 
; 62   : 	if (!pMobTable)

  000a6	85 c0		 test	 eax, eax
  000a8	74 b4		 je	 SHORT $LN19@nonplayerG

; 63   : 		return Py_BuildValue("i", -1);
; 64   : 
; 65   : 	return Py_BuildValue("i", pMobTable->bRank);

  000aa	0f b6 40 67	 movzx	 eax, BYTE PTR [eax+103]
  000ae	50		 push	 eax
  000af	68 00 00 00 00	 push	 OFFSET ??_C@_01KBJDNOO@i@
  000b4	ff 15 00 00 00
	00		 call	 DWORD PTR __imp__Py_BuildValue
  000ba	83 c4 08	 add	 esp, 8
  000bd	5e		 pop	 esi

; 66   : }

  000be	8b e5		 mov	 esp, ebp
  000c0	5d		 pop	 ebp
  000c1	c3		 ret	 0
?nonplayerGetGradeByVID@@YAPAU_object@@PAU1@0@Z ENDP	; nonplayerGetGradeByVID
_TEXT	ENDS
; Function compile flags: /Ogtp
; File C:\Anka2Project\Anka2Project\Source\Binary\source\UserInterface\PythonNonPlayerModule.cpp
; File C:\Anka2Project\Anka2Project\Source\Binary\source\eterBase\Singleton.h
; File C:\Anka2Project\Anka2Project\Source\Binary\source\UserInterface\PythonNonPlayerModule.cpp
;	COMDAT ?nonplayerGetMonsterName@@YAPAU_object@@PAU1@0@Z
_TEXT	SEGMENT
_iVNum$ = -4						; size = 4
_poSelf$ = 8						; size = 4
_poArgs$ = 12						; size = 4
?nonplayerGetMonsterName@@YAPAU_object@@PAU1@0@Z PROC	; nonplayerGetMonsterName, COMDAT

; 70   : {

  00000	55		 push	 ebp
  00001	8b ec		 mov	 ebp, esp
  00003	51		 push	 ecx

; 71   : 	int iVNum;
; 72   : 	if (!PyTuple_GetInteger(poArgs, 0, &iVNum))

  00004	8d 45 fc	 lea	 eax, DWORD PTR _iVNum$[ebp]
  00007	50		 push	 eax
  00008	6a 00		 push	 0
  0000a	ff 75 0c	 push	 DWORD PTR _poArgs$[ebp]
  0000d	e8 00 00 00 00	 call	 ?PyTuple_GetInteger@@YA_NPAU_object@@HPAH@Z ; PyTuple_GetInteger
  00012	83 c4 0c	 add	 esp, 12			; 0000000cH
  00015	84 c0		 test	 al, al
  00017	75 0e		 jne	 SHORT $LN2@nonplayerG

; 73   : 		return Py_BuildException();

  00019	6a 00		 push	 0
  0001b	e8 00 00 00 00	 call	 ?Py_BuildException@@YAPAU_object@@PBDZZ ; Py_BuildException
  00020	83 c4 04	 add	 esp, 4

; 77   : }

  00023	8b e5		 mov	 esp, ebp
  00025	5d		 pop	 ebp
  00026	c3		 ret	 0
$LN2@nonplayerG:
; File C:\Anka2Project\Anka2Project\Source\Binary\source\eterBase\Singleton.h

; 26   : 		assert(ms_singleton);

  00027	8b 0d 00 00 00
	00		 mov	 ecx, DWORD PTR ?ms_singleton@?$CSingleton@VCPythonNonPlayer@@@@0PAVCPythonNonPlayer@@A ; CSingleton<CPythonNonPlayer>::ms_singleton
  0002d	85 c9		 test	 ecx, ecx
  0002f	75 1a		 jne	 SHORT $LN6@nonplayerG
  00031	6a 1a		 push	 26			; 0000001aH
  00033	68 00 00 00 00	 push	 OFFSET ??_C@_1IO@CAJLEEOI@?$AAC?$AA?3?$AA?2?$AAA?$AAn?$AAk?$AAa?$AA2?$AAP?$AAr?$AAo?$AAj?$AAe?$AAc?$AAt@
  00038	68 00 00 00 00	 push	 OFFSET ??_C@_1BK@FMEHPMFE@?$AAm?$AAs?$AA_?$AAs?$AAi?$AAn?$AAg?$AAl?$AAe?$AAt?$AAo?$AAn@
  0003d	e8 00 00 00 00	 call	 __wassert
  00042	8b 0d 00 00 00
	00		 mov	 ecx, DWORD PTR ?ms_singleton@?$CSingleton@VCPythonNonPlayer@@@@0PAVCPythonNonPlayer@@A ; CSingleton<CPythonNonPlayer>::ms_singleton
  00048	83 c4 0c	 add	 esp, 12			; 0000000cH
$LN6@nonplayerG:
; File C:\Anka2Project\Anka2Project\Source\Binary\source\UserInterface\PythonNonPlayerModule.cpp

; 76   : 	return Py_BuildValue("s", rkNonPlayer.GetMonsterName(iVNum));

  0004b	ff 75 fc	 push	 DWORD PTR _iVNum$[ebp]
  0004e	e8 00 00 00 00	 call	 ?GetMonsterName@CPythonNonPlayer@@QAEPBDK@Z ; CPythonNonPlayer::GetMonsterName
  00053	50		 push	 eax
  00054	68 00 00 00 00	 push	 OFFSET ??_C@_01LKDEMHDF@s@
  00059	ff 15 00 00 00
	00		 call	 DWORD PTR __imp__Py_BuildValue
  0005f	83 c4 08	 add	 esp, 8

; 77   : }

  00062	8b e5		 mov	 esp, ebp
  00064	5d		 pop	 ebp
  00065	c3		 ret	 0
?nonplayerGetMonsterName@@YAPAU_object@@PAU1@0@Z ENDP	; nonplayerGetMonsterName
_TEXT	ENDS
; Function compile flags: /Ogtp
; File C:\Anka2Project\Anka2Project\Source\Binary\source\UserInterface\PythonNonPlayerModule.cpp
; File C:\Anka2Project\Anka2Project\Source\Binary\source\eterBase\Singleton.h
; File C:\Anka2Project\Anka2Project\Source\Binary\source\UserInterface\PythonNonPlayerModule.cpp
; File C:\Anka2Project\Anka2Project\Source\Binary\source\eterBase\Singleton.h
; File C:\Anka2Project\Anka2Project\Source\Binary\source\UserInterface\PythonNonPlayerModule.cpp
;	COMDAT ?nonplayerGetRaceNumByVID@@YAPAU_object@@PAU1@0@Z
_TEXT	SEGMENT
_iVirtualID$ = -4					; size = 4
_poSelf$ = 8						; size = 4
_poArgs$ = 12						; size = 4
?nonplayerGetRaceNumByVID@@YAPAU_object@@PAU1@0@Z PROC	; nonplayerGetRaceNumByVID, COMDAT

; 91   : {

  00000	55		 push	 ebp
  00001	8b ec		 mov	 ebp, esp
  00003	51		 push	 ecx

; 92   : 	int iVirtualID;
; 93   : 	if (!PyTuple_GetInteger(poArgs, 0, &iVirtualID))

  00004	8d 45 fc	 lea	 eax, DWORD PTR _iVirtualID$[ebp]
  00007	50		 push	 eax
  00008	6a 00		 push	 0
  0000a	ff 75 0c	 push	 DWORD PTR _poArgs$[ebp]
  0000d	e8 00 00 00 00	 call	 ?PyTuple_GetInteger@@YA_NPAU_object@@HPAH@Z ; PyTuple_GetInteger
  00012	83 c4 0c	 add	 esp, 12			; 0000000cH
  00015	84 c0		 test	 al, al
  00017	75 0e		 jne	 SHORT $LN2@nonplayerG

; 94   : 		return Py_BuildException();

  00019	6a 00		 push	 0
  0001b	e8 00 00 00 00	 call	 ?Py_BuildException@@YAPAU_object@@PBDZZ ; Py_BuildException
  00020	83 c4 04	 add	 esp, 4

; 107  : }

  00023	8b e5		 mov	 esp, ebp
  00025	5d		 pop	 ebp
  00026	c3		 ret	 0
$LN2@nonplayerG:
; File C:\Anka2Project\Anka2Project\Source\Binary\source\eterBase\Singleton.h

; 26   : 		assert(ms_singleton);

  00027	8b 0d 00 00 00
	00		 mov	 ecx, DWORD PTR ?ms_singleton@?$CSingleton@VCPythonCharacterManager@@@@0PAVCPythonCharacterManager@@A ; CSingleton<CPythonCharacterManager>::ms_singleton
  0002d	85 c9		 test	 ecx, ecx
  0002f	75 1a		 jne	 SHORT $LN8@nonplayerG
  00031	6a 1a		 push	 26			; 0000001aH
  00033	68 00 00 00 00	 push	 OFFSET ??_C@_1IO@CAJLEEOI@?$AAC?$AA?3?$AA?2?$AAA?$AAn?$AAk?$AAa?$AA2?$AAP?$AAr?$AAo?$AAj?$AAe?$AAc?$AAt@
  00038	68 00 00 00 00	 push	 OFFSET ??_C@_1BK@FMEHPMFE@?$AAm?$AAs?$AA_?$AAs?$AAi?$AAn?$AAg?$AAl?$AAe?$AAt?$AAo?$AAn@
  0003d	e8 00 00 00 00	 call	 __wassert
  00042	8b 0d 00 00 00
	00		 mov	 ecx, DWORD PTR ?ms_singleton@?$CSingleton@VCPythonCharacterManager@@@@0PAVCPythonCharacterManager@@A ; CSingleton<CPythonCharacterManager>::ms_singleton
  00048	83 c4 0c	 add	 esp, 12			; 0000000cH
$LN8@nonplayerG:
; File C:\Anka2Project\Anka2Project\Source\Binary\source\UserInterface\PythonNonPlayerModule.cpp

; 96   : 	CInstanceBase* pInstance = CPythonCharacterManager::Instance().GetInstancePtr(iVirtualID);

  0004b	8b 41 04	 mov	 eax, DWORD PTR [ecx+4]
  0004e	83 c1 04	 add	 ecx, 4
  00051	56		 push	 esi
  00052	ff 75 fc	 push	 DWORD PTR _iVirtualID$[ebp]
  00055	ff 50 08	 call	 DWORD PTR [eax+8]
  00058	8b f0		 mov	 esi, eax

; 97   : 
; 98   : 	if (!pInstance)

  0005a	85 f6		 test	 esi, esi
  0005c	75 15		 jne	 SHORT $LN3@nonplayerG
$LN19@nonplayerG:

; 104  : 		return Py_BuildValue("i", -1);
; 105  : 
; 106  : 	return Py_BuildValue("i", pMobTable->dwVnum);

  0005e	6a ff		 push	 -1
  00060	68 00 00 00 00	 push	 OFFSET ??_C@_01KBJDNOO@i@
  00065	ff 15 00 00 00
	00		 call	 DWORD PTR __imp__Py_BuildValue
  0006b	83 c4 08	 add	 esp, 8
  0006e	5e		 pop	 esi

; 107  : }

  0006f	8b e5		 mov	 esp, ebp
  00071	5d		 pop	 ebp
  00072	c3		 ret	 0
$LN3@nonplayerG:
; File C:\Anka2Project\Anka2Project\Source\Binary\source\eterBase\Singleton.h

; 26   : 		assert(ms_singleton);

  00073	8b 15 00 00 00
	00		 mov	 edx, DWORD PTR ?ms_singleton@?$CSingleton@VCPythonNonPlayer@@@@0PAVCPythonNonPlayer@@A ; CSingleton<CPythonNonPlayer>::ms_singleton
  00079	85 d2		 test	 edx, edx
  0007b	75 1a		 jne	 SHORT $LN11@nonplayerG
  0007d	6a 1a		 push	 26			; 0000001aH
  0007f	68 00 00 00 00	 push	 OFFSET ??_C@_1IO@CAJLEEOI@?$AAC?$AA?3?$AA?2?$AAA?$AAn?$AAk?$AAa?$AA2?$AAP?$AAr?$AAo?$AAj?$AAe?$AAc?$AAt@
  00084	68 00 00 00 00	 push	 OFFSET ??_C@_1BK@FMEHPMFE@?$AAm?$AAs?$AA_?$AAs?$AAi?$AAn?$AAg?$AAl?$AAe?$AAt?$AAo?$AAn@
  00089	e8 00 00 00 00	 call	 __wassert
  0008e	8b 15 00 00 00
	00		 mov	 edx, DWORD PTR ?ms_singleton@?$CSingleton@VCPythonNonPlayer@@@@0PAVCPythonNonPlayer@@A ; CSingleton<CPythonNonPlayer>::ms_singleton
  00094	83 c4 0c	 add	 esp, 12			; 0000000cH
$LN11@nonplayerG:
; File C:\Anka2Project\Anka2Project\Source\Binary\source\UserInterface\PythonNonPlayerModule.cpp

; 101  : 	const CPythonNonPlayer::TMobTable* pMobTable = CPythonNonPlayer::Instance().GetTable(pInstance->GetVirtualNumber());

  00097	8b ce		 mov	 ecx, esi
  00099	e8 00 00 00 00	 call	 ?GetVirtualNumber@CInstanceBase@@QAEKXZ ; CInstanceBase::GetVirtualNumber
  0009e	50		 push	 eax
  0009f	8b ca		 mov	 ecx, edx
  000a1	e8 00 00 00 00	 call	 ?GetTable@CPythonNonPlayer@@QAEPBUSMobTable@1@K@Z ; CPythonNonPlayer::GetTable

; 102  : 
; 103  : 	if (!pMobTable)

  000a6	85 c0		 test	 eax, eax
  000a8	74 b4		 je	 SHORT $LN19@nonplayerG

; 104  : 		return Py_BuildValue("i", -1);
; 105  : 
; 106  : 	return Py_BuildValue("i", pMobTable->dwVnum);

  000aa	ff 30		 push	 DWORD PTR [eax]
  000ac	68 00 00 00 00	 push	 OFFSET ??_C@_01KBJDNOO@i@
  000b1	ff 15 00 00 00
	00		 call	 DWORD PTR __imp__Py_BuildValue
  000b7	83 c4 08	 add	 esp, 8
  000ba	5e		 pop	 esi

; 107  : }

  000bb	8b e5		 mov	 esp, ebp
  000bd	5d		 pop	 ebp
  000be	c3		 ret	 0
?nonplayerGetRaceNumByVID@@YAPAU_object@@PAU1@0@Z ENDP	; nonplayerGetRaceNumByVID
_TEXT	ENDS
; Function compile flags: /Ogtp
; File C:\Anka2Project\Anka2Project\Source\Binary\source\UserInterface\PythonNonPlayerModule.cpp
; File C:\Anka2Project\Anka2Project\Source\Binary\source\eterBase\Singleton.h
; File C:\Anka2Project\Anka2Project\Source\Binary\source\UserInterface\PythonNonPlayerModule.cpp
;	COMDAT ?nonplayerMonsterHasRaceFlag@@YAPAU_object@@PAU1@0@Z
_TEXT	SEGMENT
_iVNum$ = -8						; size = 4
_szRaceFlag$ = -4					; size = 4
_poSelf$ = 8						; size = 4
_poArgs$ = 12						; size = 4
?nonplayerMonsterHasRaceFlag@@YAPAU_object@@PAU1@0@Z PROC ; nonplayerMonsterHasRaceFlag, COMDAT

; 112  : {

  00000	55		 push	 ebp
  00001	8b ec		 mov	 ebp, esp
  00003	83 ec 08	 sub	 esp, 8

; 113  : 	int iVNum;
; 114  : 	if (!PyTuple_GetInteger(poArgs, 0, &iVNum))

  00006	8d 45 f8	 lea	 eax, DWORD PTR _iVNum$[ebp]
  00009	50		 push	 eax
  0000a	6a 00		 push	 0
  0000c	ff 75 0c	 push	 DWORD PTR _poArgs$[ebp]
  0000f	e8 00 00 00 00	 call	 ?PyTuple_GetInteger@@YA_NPAU_object@@HPAH@Z ; PyTuple_GetInteger
  00014	83 c4 0c	 add	 esp, 12			; 0000000cH
  00017	84 c0		 test	 al, al
  00019	75 0e		 jne	 SHORT $LN2@nonplayerM
$LN8@nonplayerM:

; 123  : }

  0001b	6a 00		 push	 0
  0001d	e8 00 00 00 00	 call	 ?Py_BuildException@@YAPAU_object@@PBDZZ ; Py_BuildException
  00022	83 c4 04	 add	 esp, 4
  00025	8b e5		 mov	 esp, ebp
  00027	5d		 pop	 ebp
  00028	c3		 ret	 0
$LN2@nonplayerM:

; 115  : 		return Py_BuildException();
; 116  : 
; 117  : 	char *szRaceFlag;
; 118  : 	if (!PyTuple_GetString(poArgs, 1, &szRaceFlag))

  00029	8d 45 fc	 lea	 eax, DWORD PTR _szRaceFlag$[ebp]
  0002c	50		 push	 eax
  0002d	6a 01		 push	 1
  0002f	ff 75 0c	 push	 DWORD PTR _poArgs$[ebp]
  00032	e8 00 00 00 00	 call	 ?PyTuple_GetString@@YA_NPAU_object@@HPAPAD@Z ; PyTuple_GetString
  00037	83 c4 0c	 add	 esp, 12			; 0000000cH
  0003a	84 c0		 test	 al, al
  0003c	74 dd		 je	 SHORT $LN8@nonplayerM
; File C:\Anka2Project\Anka2Project\Source\Binary\source\eterBase\Singleton.h

; 26   : 		assert(ms_singleton);

  0003e	8b 0d 00 00 00
	00		 mov	 ecx, DWORD PTR ?ms_singleton@?$CSingleton@VCPythonNonPlayer@@@@0PAVCPythonNonPlayer@@A ; CSingleton<CPythonNonPlayer>::ms_singleton
  00044	85 c9		 test	 ecx, ecx
  00046	75 1a		 jne	 SHORT $LN7@nonplayerM
  00048	6a 1a		 push	 26			; 0000001aH
  0004a	68 00 00 00 00	 push	 OFFSET ??_C@_1IO@CAJLEEOI@?$AAC?$AA?3?$AA?2?$AAA?$AAn?$AAk?$AAa?$AA2?$AAP?$AAr?$AAo?$AAj?$AAe?$AAc?$AAt@
  0004f	68 00 00 00 00	 push	 OFFSET ??_C@_1BK@FMEHPMFE@?$AAm?$AAs?$AA_?$AAs?$AAi?$AAn?$AAg?$AAl?$AAe?$AAt?$AAo?$AAn@
  00054	e8 00 00 00 00	 call	 __wassert
  00059	8b 0d 00 00 00
	00		 mov	 ecx, DWORD PTR ?ms_singleton@?$CSingleton@VCPythonNonPlayer@@@@0PAVCPythonNonPlayer@@A ; CSingleton<CPythonNonPlayer>::ms_singleton
  0005f	83 c4 0c	 add	 esp, 12			; 0000000cH
$LN7@nonplayerM:
; File C:\Anka2Project\Anka2Project\Source\Binary\source\UserInterface\PythonNonPlayerModule.cpp

; 122  : 	return Py_BuildValue("b", rkNonPlayer.MonsterHasRaceFlag(iVNum, szRaceFlag));

  00062	ff 75 fc	 push	 DWORD PTR _szRaceFlag$[ebp]
  00065	ff 75 f8	 push	 DWORD PTR _iVNum$[ebp]
  00068	e8 00 00 00 00	 call	 ?MonsterHasRaceFlag@CPythonNonPlayer@@QAE_NKPBD@Z ; CPythonNonPlayer::MonsterHasRaceFlag
  0006d	0f b6 c0	 movzx	 eax, al
  00070	50		 push	 eax
  00071	68 00 00 00 00	 push	 OFFSET ??_C@_01OJONOECF@b@
  00076	ff 15 00 00 00
	00		 call	 DWORD PTR __imp__Py_BuildValue
  0007c	83 c4 08	 add	 esp, 8

; 123  : }

  0007f	8b e5		 mov	 esp, ebp
  00081	5d		 pop	 ebp
  00082	c3		 ret	 0
?nonplayerMonsterHasRaceFlag@@YAPAU_object@@PAU1@0@Z ENDP ; nonplayerMonsterHasRaceFlag
_TEXT	ENDS
; Function compile flags: /Ogtp
; File C:\Anka2Project\Anka2Project\Source\Binary\source\UserInterface\PythonNonPlayerModule.cpp
; File C:\Anka2Project\Anka2Project\Source\Binary\source\eterBase\Singleton.h
; File C:\Program Files\Microsoft Visual Studio\2022\Community\VC\Tools\MSVC\14.44.35207\include\xtree
; File C:\Program Files\Microsoft Visual Studio\2022\Community\VC\Tools\MSVC\14.44.35207\include\xmemory
; File C:\Program Files\Microsoft Visual Studio\2022\Community\VC\Tools\MSVC\14.44.35207\include\xtree
; File C:\Program Files\Microsoft Visual Studio\2022\Community\VC\Tools\MSVC\14.44.35207\include\xmemory
; File C:\Program Files\Microsoft Visual Studio\2022\Community\VC\Tools\MSVC\14.44.35207\include\xtree
; File C:\Anka2Project\Anka2Project\Source\Binary\source\UserInterface\PythonNonPlayerModule.cpp
; File C:\Program Files\Microsoft Visual Studio\2022\Community\VC\Tools\MSVC\14.44.35207\include\__msvc_string_view.hpp
; File C:\Program Files\Microsoft Visual Studio\2022\Community\VC\Tools\MSVC\14.44.35207\include\xstring
; File C:\Program Files\Microsoft Visual Studio\2022\Community\VC\Tools\MSVC\14.44.35207\include\__msvc_string_view.hpp
; File C:\Program Files\Microsoft Visual Studio\2022\Community\VC\Tools\MSVC\14.44.35207\include\xstring
; File C:\Anka2Project\Anka2Project\Source\Binary\source\UserInterface\PythonNonPlayerModule.cpp
; File C:\Program Files\Microsoft Visual Studio\2022\Community\VC\Tools\MSVC\14.44.35207\include\xtree
; File C:\Anka2Project\Anka2Project\Source\Binary\source\UserInterface\PythonNonPlayerModule.cpp
; File C:\Program Files\Microsoft Visual Studio\2022\Community\VC\Tools\MSVC\14.44.35207\include\xtree
; File C:\Anka2Project\Anka2Project\Source\Binary\source\UserInterface\PythonNonPlayerModule.cpp
; File C:\Program Files\Microsoft Visual Studio\2022\Community\VC\Tools\MSVC\14.44.35207\include\xstring
; File C:\Program Files\Microsoft Visual Studio\2022\Community\VC\Tools\MSVC\14.44.35207\include\__msvc_string_view.hpp
; File C:\Program Files\Microsoft Visual Studio\2022\Community\VC\Tools\MSVC\14.44.35207\include\xstring
; File C:\Program Files\Microsoft Visual Studio\2022\Community\VC\Tools\MSVC\14.44.35207\include\__msvc_string_view.hpp
; File C:\Program Files\Microsoft Visual Studio\2022\Community\VC\Tools\MSVC\14.44.35207\include\xstring
; File C:\Program Files\Microsoft Visual Studio\2022\Community\VC\Tools\MSVC\14.44.35207\include\algorithm
; File C:\Anka2Project\Anka2Project\Source\Binary\source\UserInterface\PythonNonPlayerModule.cpp
; File C:\Program Files\Microsoft Visual Studio\2022\Community\VC\Tools\MSVC\14.44.35207\include\algorithm
; File C:\Anka2Project\Anka2Project\Source\Binary\source\UserInterface\PythonNonPlayerModule.cpp
; File C:\Program Files\Microsoft Visual Studio\2022\Community\VC\Tools\MSVC\14.44.35207\include\algorithm
; File C:\Program Files\Microsoft Visual Studio\2022\Community\VC\Tools\MSVC\14.44.35207\include\xstring
; File C:\Anka2Project\Anka2Project\Source\Binary\source\UserInterface\PythonNonPlayerModule.cpp
; File C:\Program Files\Microsoft Visual Studio\2022\Community\VC\Tools\MSVC\14.44.35207\include\xstring
; File C:\Program Files\Microsoft Visual Studio\2022\Community\VC\Tools\MSVC\14.44.35207\include\xmemory
; File C:\Program Files\Microsoft Visual Studio\2022\Community\VC\Tools\MSVC\14.44.35207\include\xtree
; File C:\Anka2Project\Anka2Project\Source\Binary\source\UserInterface\PythonNonPlayerModule.cpp
; File C:\Program Files\Microsoft Visual Studio\2022\Community\VC\Tools\MSVC\14.44.35207\include\xstring
; File C:\Anka2Project\Anka2Project\Source\Binary\source\UserInterface\PythonNonPlayerModule.cpp
; File C:\Program Files\Microsoft Visual Studio\2022\Community\VC\Tools\MSVC\14.44.35207\include\xstring
; File C:\Program Files\Microsoft Visual Studio\2022\Community\VC\Tools\MSVC\14.44.35207\include\xtree
; File C:\Anka2Project\Anka2Project\Source\Binary\source\UserInterface\PythonNonPlayerModule.cpp
; File C:\Program Files\Microsoft Visual Studio\2022\Community\VC\Tools\MSVC\14.44.35207\include\xmemory
; File C:\Anka2Project\Anka2Project\Source\Binary\source\UserInterface\PythonNonPlayerModule.cpp
;	COMDAT ?nonPlayerGetMobsByName@@YAPAU_object@@PAU1@0@Z
_TEXT	SEGMENT
__ULast$1$ = -100					; size = 4
_szItemName$ = -92					; size = 4
__Sentinel$81 = -88					; size = 8
_p$1$ = -84						; size = 4
_poList$1$ = -80					; size = 4
_i$1$ = -76						; size = 4
_m_vec_MonsterRange$ = -72				; size = 8
_searchedFileName$ = -64				; size = 24
_tempFileName$82 = -40					; size = 24
__$ArrayPad$ = -16					; size = 4
__$EHRec$ = -12						; size = 12
_poSelf$ = 8						; size = 4
_poArgs$ = 12						; size = 4
?nonPlayerGetMobsByName@@YAPAU_object@@PAU1@0@Z PROC	; nonPlayerGetMobsByName, COMDAT

; 128  : {

  00000	55		 push	 ebp
  00001	8b ec		 mov	 ebp, esp
  00003	6a ff		 push	 -1
  00005	68 00 00 00 00	 push	 __ehhandler$?nonPlayerGetMobsByName@@YAPAU_object@@PAU1@0@Z
  0000a	64 a1 00 00 00
	00		 mov	 eax, DWORD PTR fs:0
  00010	50		 push	 eax
  00011	83 ec 58	 sub	 esp, 88			; 00000058H
  00014	a1 00 00 00 00	 mov	 eax, DWORD PTR ___security_cookie
  00019	33 c5		 xor	 eax, ebp
  0001b	89 45 f0	 mov	 DWORD PTR __$ArrayPad$[ebp], eax
  0001e	56		 push	 esi
  0001f	57		 push	 edi
  00020	50		 push	 eax
  00021	8d 45 f4	 lea	 eax, DWORD PTR __$EHRec$[ebp]
  00024	64 a3 00 00 00
	00		 mov	 DWORD PTR fs:0, eax
  0002a	8b 45 0c	 mov	 eax, DWORD PTR _poArgs$[ebp]

; 129  : 	char *szItemName;
; 130  : 	if (!PyTuple_GetString(poArgs, 0, &szItemName))

  0002d	8d 4d a4	 lea	 ecx, DWORD PTR _szItemName$[ebp]
  00030	51		 push	 ecx
  00031	6a 00		 push	 0
  00033	50		 push	 eax
  00034	e8 00 00 00 00	 call	 ?PyTuple_GetString@@YA_NPAU_object@@HPAPAD@Z ; PyTuple_GetString
  00039	83 c4 0c	 add	 esp, 12			; 0000000cH
  0003c	84 c0		 test	 al, al
  0003e	75 0a		 jne	 SHORT $LN5@nonPlayerG

; 131  : 		return Py_BadArgument();

  00040	e8 00 00 00 00	 call	 ?Py_BadArgument@@YAPAU_object@@XZ ; Py_BadArgument
  00045	e9 ac 02 00 00	 jmp	 $LN1@nonPlayerG
$LN5@nonPlayerG:
; File C:\Anka2Project\Anka2Project\Source\Binary\source\eterBase\Singleton.h

; 26   : 		assert(ms_singleton);

  0004a	8b 35 00 00 00
	00		 mov	 esi, DWORD PTR ?ms_singleton@?$CSingleton@VCPythonNonPlayer@@@@0PAVCPythonNonPlayer@@A ; CSingleton<CPythonNonPlayer>::ms_singleton
  00050	85 f6		 test	 esi, esi
  00052	75 1a		 jne	 SHORT $LN205@nonPlayerG
  00054	6a 1a		 push	 26			; 0000001aH
  00056	68 00 00 00 00	 push	 OFFSET ??_C@_1IO@CAJLEEOI@?$AAC?$AA?3?$AA?2?$AAA?$AAn?$AAk?$AAa?$AA2?$AAP?$AAr?$AAo?$AAj?$AAe?$AAc?$AAt@
  0005b	68 00 00 00 00	 push	 OFFSET ??_C@_1BK@FMEHPMFE@?$AAm?$AAs?$AA_?$AAs?$AAi?$AAn?$AAg?$AAl?$AAe?$AAt?$AAo?$AAn@
  00060	e8 00 00 00 00	 call	 __wassert
  00065	8b 35 00 00 00
	00		 mov	 esi, DWORD PTR ?ms_singleton@?$CSingleton@VCPythonNonPlayer@@@@0PAVCPythonNonPlayer@@A ; CSingleton<CPythonNonPlayer>::ms_singleton
  0006b	83 c4 0c	 add	 esp, 12			; 0000000cH
$LN205@nonPlayerG:
; File C:\Program Files\Microsoft Visual Studio\2022\Community\VC\Tools\MSVC\14.44.35207\include\xtree

; 790  :     _Tree_head_scoped_ptr(_Alnode& _Al_, _Scary_val& _Mycont_) : _Al(_Al_), _Mycont(_STD addressof(_Mycont_)) {

  0006e	8d 45 b8	 lea	 eax, DWORD PTR _m_vec_MonsterRange$[ebp]

; 450  :     _Tree_val() noexcept : _Myhead(), _Mysize(0) {}

  00071	c7 45 b8 00 00
	00 00		 mov	 DWORD PTR _m_vec_MonsterRange$[ebp], 0
; File C:\Program Files\Microsoft Visual Studio\2022\Community\VC\Tools\MSVC\14.44.35207\include\xmemory

; 136  :         return ::operator new(_Bytes);

  00078	6a 18		 push	 24			; 00000018H
; File C:\Program Files\Microsoft Visual Studio\2022\Community\VC\Tools\MSVC\14.44.35207\include\xtree

; 450  :     _Tree_val() noexcept : _Myhead(), _Mysize(0) {}

  0007a	c7 45 bc 00 00
	00 00		 mov	 DWORD PTR _m_vec_MonsterRange$[ebp+4], 0

; 790  :     _Tree_head_scoped_ptr(_Alnode& _Al_, _Scary_val& _Mycont_) : _Al(_Al_), _Mycont(_STD addressof(_Mycont_)) {

  00081	89 45 a8	 mov	 DWORD PTR __Sentinel$81[ebp], eax
  00084	89 45 ac	 mov	 DWORD PTR __Sentinel$81[ebp+4], eax
; File C:\Program Files\Microsoft Visual Studio\2022\Community\VC\Tools\MSVC\14.44.35207\include\xmemory

; 136  :         return ::operator new(_Bytes);

  00087	e8 00 00 00 00	 call	 ??2@YAPAXI@Z		; operator new
  0008c	83 c4 04	 add	 esp, 4
; File C:\Program Files\Microsoft Visual Studio\2022\Community\VC\Tools\MSVC\14.44.35207\include\xtree

; 346  :         _Construct_in_place(_Pnode->_Left, _Pnode);

  0008f	89 00		 mov	 DWORD PTR [eax], eax

; 347  :         _Construct_in_place(_Pnode->_Parent, _Pnode);

  00091	89 40 04	 mov	 DWORD PTR [eax+4], eax

; 348  :         _Construct_in_place(_Pnode->_Right, _Pnode);

  00094	89 40 08	 mov	 DWORD PTR [eax+8], eax

; 349  :         _Pnode->_Color = _Black;

  00097	66 c7 40 0c 01
	01		 mov	 WORD PTR [eax+12], 257	; 00000101H

; 791  :         _Mycont->_Myhead = _Alnode::value_type::_Buyheadnode(_Al);

  0009d	89 45 b8	 mov	 DWORD PTR _m_vec_MonsterRange$[ebp], eax

; 920  :         _Tree_head_scoped_ptr<_Alnode, _Scary_val> _Sentinel(_Getal(), *_Scary);

  000a0	c7 45 fc 00 00
	00 00		 mov	 DWORD PTR __$EHRec$[ebp+8], 0

; 1657 :         _Scary->_Myhead->_Parent = _Copy_nodes<_Strat>(_Right_scary->_Myhead->_Parent, _Scary->_Myhead);

  000a7	8d 4d b8	 lea	 ecx, DWORD PTR _m_vec_MonsterRange$[ebp]
  000aa	50		 push	 eax
  000ab	8b 46 04	 mov	 eax, DWORD PTR [esi+4]
  000ae	ff 70 04	 push	 DWORD PTR [eax+4]
  000b1	e8 00 00 00 00	 call	 ??$_Copy_nodes@$0A@@?$_Tree@V?$_Tmap_traits@KPAUSMobTable@CPythonNonPlayer@@U?$less@K@std@@V?$allocator@U?$pair@$$CBKPAUSMobTable@CPythonNonPlayer@@@std@@@4@$0A@@std@@@std@@IAEPAU?$_Tree_node@U?$pair@$$CBKPAUSMobTable@CPythonNonPlayer@@@std@@PAX@1@PAU21@0@Z ; std::_Tree<std::_Tmap_traits<unsigned long,CPythonNonPlayer::SMobTable *,std::less<unsigned long>,std::allocator<std::pair<unsigned long const ,CPythonNonPlayer::SMobTable *> >,0> >::_Copy_nodes<0>
  000b6	8b 4d b8	 mov	 ecx, DWORD PTR _m_vec_MonsterRange$[ebp]
  000b9	89 41 04	 mov	 DWORD PTR [ecx+4], eax

; 1658 :         _Scary->_Mysize          = _Right_scary->_Mysize;

  000bc	8b 46 08	 mov	 eax, DWORD PTR [esi+8]

; 1659 :         if (!_Scary->_Myhead->_Parent->_Isnil) { // nonempty tree, look for new smallest and largest

  000bf	8b 75 b8	 mov	 esi, DWORD PTR _m_vec_MonsterRange$[ebp]
  000c2	89 45 bc	 mov	 DWORD PTR _m_vec_MonsterRange$[ebp+4], eax
  000c5	8b 56 04	 mov	 edx, DWORD PTR [esi+4]
  000c8	80 7a 0d 00	 cmp	 BYTE PTR [edx+13], 0
  000cc	75 35		 jne	 SHORT $LN248@nonPlayerG

; 476  :         while (!_Pnode->_Left->_Isnil) {

  000ce	8b 0a		 mov	 ecx, DWORD PTR [edx]
  000d0	80 79 0d 00	 cmp	 BYTE PTR [ecx+13], 0
  000d4	75 0c		 jne	 SHORT $LN253@nonPlayerG
$LL252@nonPlayerG:
  000d6	8b 01		 mov	 eax, DWORD PTR [ecx]

; 477  :             _Pnode = _Pnode->_Left;

  000d8	8b d1		 mov	 edx, ecx
  000da	8b c8		 mov	 ecx, eax
  000dc	80 78 0d 00	 cmp	 BYTE PTR [eax+13], 0
  000e0	74 f4		 je	 SHORT $LL252@nonPlayerG
$LN253@nonPlayerG:

; 1660 :             _Scary->_Myhead->_Left  = _Scary_val::_Min(_Scary->_Myhead->_Parent);

  000e2	89 16		 mov	 DWORD PTR [esi], edx

; 1661 :             _Scary->_Myhead->_Right = _Scary_val::_Max(_Scary->_Myhead->_Parent);

  000e4	8b 55 b8	 mov	 edx, DWORD PTR _m_vec_MonsterRange$[ebp]
  000e7	8b 4a 04	 mov	 ecx, DWORD PTR [edx+4]

; 468  :         while (!_Pnode->_Right->_Isnil) {

  000ea	8b 41 08	 mov	 eax, DWORD PTR [ecx+8]
  000ed	80 78 0d 00	 cmp	 BYTE PTR [eax+13], 0
  000f1	75 0b		 jne	 SHORT $LN258@nonPlayerG
$LL257@nonPlayerG:

; 469  :             _Pnode = _Pnode->_Right;

  000f3	8b c8		 mov	 ecx, eax
  000f5	8b 41 08	 mov	 eax, DWORD PTR [ecx+8]
  000f8	80 78 0d 00	 cmp	 BYTE PTR [eax+13], 0
  000fc	74 f5		 je	 SHORT $LL257@nonPlayerG
$LN258@nonPlayerG:

; 1661 :             _Scary->_Myhead->_Right = _Scary_val::_Max(_Scary->_Myhead->_Parent);

  000fe	89 4a 08	 mov	 DWORD PTR [edx+8], ecx

; 1662 :         } else { // empty tree, just tidy head pointers

  00101	eb 08		 jmp	 SHORT $LN249@nonPlayerG
$LN248@nonPlayerG:

; 1663 :             _Scary->_Myhead->_Left  = _Scary->_Myhead;

  00103	89 36		 mov	 DWORD PTR [esi], esi

; 1664 :             _Scary->_Myhead->_Right = _Scary->_Myhead;

  00105	8b 45 b8	 mov	 eax, DWORD PTR _m_vec_MonsterRange$[ebp]
  00108	89 40 08	 mov	 DWORD PTR [eax+8], eax
$LN249@nonPlayerG:
; File C:\Anka2Project\Anka2Project\Source\Binary\source\UserInterface\PythonNonPlayerModule.cpp

; 133  : 	CPythonNonPlayer::TNonPlayerDataMap m_vec_MonsterRange = CPythonNonPlayer::Instance().GetMonsterData();

  0010b	c7 45 fc 01 00
	00 00		 mov	 DWORD PTR __$EHRec$[ebp+8], 1
  00112	0f 57 c0	 xorps	 xmm0, xmm0
; File C:\Program Files\Microsoft Visual Studio\2022\Community\VC\Tools\MSVC\14.44.35207\include\__msvc_string_view.hpp

; 456  :             return __builtin_strlen(_First);

  00115	8b 55 a4	 mov	 edx, DWORD PTR _szItemName$[ebp]
  00118	8b ca		 mov	 ecx, edx
; File C:\Program Files\Microsoft Visual Studio\2022\Community\VC\Tools\MSVC\14.44.35207\include\xstring

; 493  :         _CONSTEXPR20 _Bxty() noexcept : _Buf() {} // user-provided, for fancy pointers

  0011a	0f 11 45 c0	 movups	 XMMWORD PTR _searchedFileName$[ebp], xmm0

; 517  :     size_type _Mysize = 0; // current length of string (size)

  0011e	c7 45 d0 00 00
	00 00		 mov	 DWORD PTR _searchedFileName$[ebp+16], 0

; 518  :     size_type _Myres  = 0; // current storage reserved for string (capacity)

  00125	c7 45 d4 00 00
	00 00		 mov	 DWORD PTR _searchedFileName$[ebp+20], 0
; File C:\Program Files\Microsoft Visual Studio\2022\Community\VC\Tools\MSVC\14.44.35207\include\__msvc_string_view.hpp

; 456  :             return __builtin_strlen(_First);

  0012c	8d 71 01	 lea	 esi, DWORD PTR [ecx+1]
  0012f	90		 npad	 1
$LL333@nonPlayerG:
  00130	8a 01		 mov	 al, BYTE PTR [ecx]
  00132	41		 inc	 ecx
  00133	84 c0		 test	 al, al
  00135	75 f9		 jne	 SHORT $LL333@nonPlayerG
  00137	2b ce		 sub	 ecx, esi
; File C:\Program Files\Microsoft Visual Studio\2022\Community\VC\Tools\MSVC\14.44.35207\include\xstring

; 769  :         _Construct<_Construct_strategy::_From_ptr>(_Ptr, _Convert_size<size_type>(_Traits::length(_Ptr)));

  00139	51		 push	 ecx
  0013a	52		 push	 edx
  0013b	8d 4d c0	 lea	 ecx, DWORD PTR _searchedFileName$[ebp]
  0013e	e8 00 00 00 00	 call	 ??$_Construct@$00PBD@?$basic_string@DU?$char_traits@D@std@@V?$allocator@D@2@@std@@AAEXQBDI@Z ; std::basic_string<char,std::char_traits<char>,std::allocator<char> >::_Construct<1,char const *>
; File C:\Anka2Project\Anka2Project\Source\Binary\source\UserInterface\PythonNonPlayerModule.cpp

; 136  : 	PyObject *poList = PyList_New(0);

  00143	6a 00		 push	 0
  00145	c6 45 fc 02	 mov	 BYTE PTR __$EHRec$[ebp+8], 2
  00149	ff 15 00 00 00
	00		 call	 DWORD PTR __imp__PyList_New
; File C:\Program Files\Microsoft Visual Studio\2022\Community\VC\Tools\MSVC\14.44.35207\include\xtree

; 37   :     _Tree_unchecked_const_iterator(_Nodeptr _Pnode, const _Mytree* _Plist) noexcept : _Ptr(_Pnode) {

  0014f	8b 4d b8	 mov	 ecx, DWORD PTR _m_vec_MonsterRange$[ebp]
; File C:\Anka2Project\Anka2Project\Source\Binary\source\UserInterface\PythonNonPlayerModule.cpp

; 136  : 	PyObject *poList = PyList_New(0);

  00152	83 c4 04	 add	 esp, 4
  00155	8b d0		 mov	 edx, eax
  00157	89 55 b0	 mov	 DWORD PTR _poList$1$[ebp], edx
; File C:\Program Files\Microsoft Visual Studio\2022\Community\VC\Tools\MSVC\14.44.35207\include\xtree

; 37   :     _Tree_unchecked_const_iterator(_Nodeptr _Pnode, const _Mytree* _Plist) noexcept : _Ptr(_Pnode) {

  0015a	8b 31		 mov	 esi, DWORD PTR [ecx]
  0015c	89 75 b4	 mov	 DWORD PTR _i$1$[ebp], esi
  0015f	3b f1		 cmp	 esi, ecx
; File C:\Anka2Project\Anka2Project\Source\Binary\source\UserInterface\PythonNonPlayerModule.cpp

; 139  : 	for (i = m_vec_MonsterRange.begin(); i != m_vec_MonsterRange.end(); ++i)

  00161	0f 84 69 01 00
	00		 je	 $LN320@nonPlayerG
$LL4@nonPlayerG:

; 140  : 	{
; 141  : 		CPythonNonPlayer::TMobTable* p = i->second;

  00167	8b 4e 14	 mov	 ecx, DWORD PTR [esi+20]
  0016a	89 4d ac	 mov	 DWORD PTR _p$1$[ebp], ecx

; 142  : 		if (p->bType == 0 || p->bType == 2)

  0016d	8a 41 66	 mov	 al, BYTE PTR [ecx+102]
  00170	84 c0		 test	 al, al
  00172	74 08		 je	 SHORT $LN7@nonPlayerG
  00174	3c 02		 cmp	 al, 2
  00176	0f 85 03 01 00
	00		 jne	 $LN2@nonPlayerG
$LN7@nonPlayerG:

; 143  : 		{
; 144  : 			if (p)
; 145  : 			{
; 146  : 				std::string tempFileName(p->szLocaleName);

  0017c	8d 51 35	 lea	 edx, DWORD PTR [ecx+53]
; File C:\Program Files\Microsoft Visual Studio\2022\Community\VC\Tools\MSVC\14.44.35207\include\xstring

; 517  :     size_type _Mysize = 0; // current length of string (size)

  0017f	c7 45 e8 00 00
	00 00		 mov	 DWORD PTR _tempFileName$82[ebp+16], 0
; File C:\Program Files\Microsoft Visual Studio\2022\Community\VC\Tools\MSVC\14.44.35207\include\__msvc_string_view.hpp

; 456  :             return __builtin_strlen(_First);

  00186	8b ca		 mov	 ecx, edx
; File C:\Program Files\Microsoft Visual Studio\2022\Community\VC\Tools\MSVC\14.44.35207\include\xstring

; 518  :     size_type _Myres  = 0; // current storage reserved for string (capacity)

  00188	c7 45 ec 00 00
	00 00		 mov	 DWORD PTR _tempFileName$82[ebp+20], 0
  0018f	0f 57 c0	 xorps	 xmm0, xmm0

; 493  :         _CONSTEXPR20 _Bxty() noexcept : _Buf() {} // user-provided, for fancy pointers

  00192	0f 11 45 d8	 movups	 XMMWORD PTR _tempFileName$82[ebp], xmm0
; File C:\Program Files\Microsoft Visual Studio\2022\Community\VC\Tools\MSVC\14.44.35207\include\__msvc_string_view.hpp

; 456  :             return __builtin_strlen(_First);

  00196	8d 79 01	 lea	 edi, DWORD PTR [ecx+1]
  00199	0f 1f 80 00 00
	00 00		 npad	 7
$LL334@nonPlayerG:
  001a0	8a 01		 mov	 al, BYTE PTR [ecx]
  001a2	41		 inc	 ecx
  001a3	84 c0		 test	 al, al
  001a5	75 f9		 jne	 SHORT $LL334@nonPlayerG
  001a7	2b cf		 sub	 ecx, edi
; File C:\Program Files\Microsoft Visual Studio\2022\Community\VC\Tools\MSVC\14.44.35207\include\xstring

; 769  :         _Construct<_Construct_strategy::_From_ptr>(_Ptr, _Convert_size<size_type>(_Traits::length(_Ptr)));

  001a9	51		 push	 ecx
  001aa	52		 push	 edx
  001ab	8d 4d d8	 lea	 ecx, DWORD PTR _tempFileName$82[ebp]
  001ae	e8 00 00 00 00	 call	 ??$_Construct@$00PBD@?$basic_string@DU?$char_traits@D@std@@V?$allocator@D@2@@std@@AAEXQBDI@Z ; std::basic_string<char,std::char_traits<char>,std::allocator<char> >::_Construct<1,char const *>

; 453  :         return _Myres > _Small_string_capacity;

  001b3	83 7d ec 0f	 cmp	 DWORD PTR _tempFileName$82[ebp+20], 15 ; 0000000fH

; 435  :         value_type* _Result = _Bx._Buf;

  001b7	8d 45 d8	 lea	 eax, DWORD PTR _tempFileName$82[ebp]

; 436  :         if (_Large_mode_engaged()) {

  001ba	8b 4d d8	 mov	 ecx, DWORD PTR _tempFileName$82[ebp]
  001bd	8d 55 d8	 lea	 edx, DWORD PTR _tempFileName$82[ebp]
  001c0	0f 47 c1	 cmova	 eax, ecx

; 435  :         value_type* _Result = _Bx._Buf;

  001c3	8d 7d d8	 lea	 edi, DWORD PTR _tempFileName$82[ebp]

; 436  :         if (_Large_mode_engaged()) {

  001c6	0f 47 d1	 cmova	 edx, ecx

; 2170 :         return iterator(

  001c9	03 45 e8	 add	 eax, DWORD PTR _tempFileName$82[ebp+16]

; 453  :         return _Myres > _Small_string_capacity;

  001cc	83 7d ec 0f	 cmp	 DWORD PTR _tempFileName$82[ebp+20], 15 ; 0000000fH

; 2170 :         return iterator(

  001d0	89 45 9c	 mov	 DWORD PTR __ULast$1$[ebp], eax

; 436  :         if (_Large_mode_engaged()) {

  001d3	0f 47 f9	 cmova	 edi, ecx
; File C:\Program Files\Microsoft Visual Studio\2022\Community\VC\Tools\MSVC\14.44.35207\include\algorithm

; 3798 :     for (; _UFirst != _ULast; ++_UFirst, (void) ++_UDest) {

  001d6	3b f8		 cmp	 edi, eax
  001d8	74 1e		 je	 SHORT $LN337@nonPlayerG
  001da	2b d7		 sub	 edx, edi
  001dc	8b f2		 mov	 esi, edx
  001de	66 90		 npad	 2
$LL138@nonPlayerG:
; File C:\Anka2Project\Anka2Project\Source\Binary\source\UserInterface\PythonNonPlayerModule.cpp

; 147  : 				std::transform(tempFileName.begin(), tempFileName.end(), tempFileName.begin(), [](unsigned char c) { return std::tolower(c); });

  001e0	0f b6 07	 movzx	 eax, BYTE PTR [edi]
  001e3	50		 push	 eax
  001e4	e8 00 00 00 00	 call	 _tolower
; File C:\Program Files\Microsoft Visual Studio\2022\Community\VC\Tools\MSVC\14.44.35207\include\algorithm

; 3799 :         *_UDest = _Func(*_UFirst);

  001e9	88 04 3e	 mov	 BYTE PTR [esi+edi], al
; File C:\Anka2Project\Anka2Project\Source\Binary\source\UserInterface\PythonNonPlayerModule.cpp

; 147  : 				std::transform(tempFileName.begin(), tempFileName.end(), tempFileName.begin(), [](unsigned char c) { return std::tolower(c); });

  001ec	83 c4 04	 add	 esp, 4
; File C:\Program Files\Microsoft Visual Studio\2022\Community\VC\Tools\MSVC\14.44.35207\include\algorithm

; 3798 :     for (; _UFirst != _ULast; ++_UFirst, (void) ++_UDest) {

  001ef	47		 inc	 edi
  001f0	3b 7d 9c	 cmp	 edi, DWORD PTR __ULast$1$[ebp]
  001f3	75 eb		 jne	 SHORT $LL138@nonPlayerG
  001f5	8b 75 b4	 mov	 esi, DWORD PTR _i$1$[ebp]
$LN337@nonPlayerG:
; File C:\Program Files\Microsoft Visual Studio\2022\Community\VC\Tools\MSVC\14.44.35207\include\xstring

; 453  :         return _Myres > _Small_string_capacity;

  001f8	83 7d d4 0f	 cmp	 DWORD PTR _searchedFileName$[ebp+20], 15 ; 0000000fH

; 444  :         const value_type* _Result = _Bx._Buf;

  001fc	8d 55 c0	 lea	 edx, DWORD PTR _searchedFileName$[ebp]

; 487  :         return (_STD min)(_Size, _Mysize - _Off);

  001ff	8b 45 e8	 mov	 eax, DWORD PTR _tempFileName$82[ebp+16]

; 445  :         if (_Large_mode_engaged()) {

  00202	0f 47 55 c0	 cmova	 edx, DWORD PTR _searchedFileName$[ebp]

; 487  :         return (_STD min)(_Size, _Mysize - _Off);

  00206	8b 4d d0	 mov	 ecx, DWORD PTR _searchedFileName$[ebp+16]
  00209	3b c1		 cmp	 eax, ecx

; 2897 :         return _Traits_compare<_Traits>(_Mypair._Myval2._Myptr() + _Off, _Mypair._Myval2._Clamp_suffix_size(_Off, _Nx),

  0020b	ff 75 d0	 push	 DWORD PTR _searchedFileName$[ebp+16]

; 444  :         const value_type* _Result = _Bx._Buf;

  0020e	8b 7d d8	 mov	 edi, DWORD PTR _tempFileName$82[ebp]

; 487  :         return (_STD min)(_Size, _Mysize - _Off);

  00211	0f 42 c8	 cmovb	 ecx, eax

; 453  :         return _Myres > _Small_string_capacity;

  00214	83 7d ec 0f	 cmp	 DWORD PTR _tempFileName$82[ebp+20], 15 ; 0000000fH

; 444  :         const value_type* _Result = _Bx._Buf;

  00218	8d 45 d8	 lea	 eax, DWORD PTR _tempFileName$82[ebp]

; 2897 :         return _Traits_compare<_Traits>(_Mypair._Myval2._Myptr() + _Off, _Mypair._Myval2._Clamp_suffix_size(_Off, _Nx),

  0021b	52		 push	 edx

; 445  :         if (_Large_mode_engaged()) {

  0021c	0f 47 c7	 cmova	 eax, edi

; 2897 :         return _Traits_compare<_Traits>(_Mypair._Myval2._Myptr() + _Off, _Mypair._Myval2._Clamp_suffix_size(_Off, _Nx),

  0021f	51		 push	 ecx
  00220	50		 push	 eax
  00221	e8 00 00 00 00	 call	 ??$_Traits_compare@U?$char_traits@D@std@@@std@@YAHQBDI0I@Z ; std::_Traits_compare<std::char_traits<char> >
  00226	83 c4 10	 add	 esp, 16			; 00000010H
; File C:\Anka2Project\Anka2Project\Source\Binary\source\UserInterface\PythonNonPlayerModule.cpp

; 148  : 				if (tempFileName.compare(0, searchedFileName.length(), searchedFileName) == 0)

  00229	85 c0		 test	 eax, eax
  0022b	75 1b		 jne	 SHORT $LN9@nonPlayerG

; 149  : 				{
; 150  : 					PyObject *poItemVnum = PyInt_FromLong(p->dwVnum);

  0022d	8b 45 ac	 mov	 eax, DWORD PTR _p$1$[ebp]
  00230	ff 30		 push	 DWORD PTR [eax]
  00232	ff 15 00 00 00
	00		 call	 DWORD PTR __imp__PyInt_FromLong

; 151  : 					PyList_Append(poList, poItemVnum);

  00238	50		 push	 eax
  00239	ff 75 b0	 push	 DWORD PTR _poList$1$[ebp]
  0023c	ff 15 00 00 00
	00		 call	 DWORD PTR __imp__PyList_Append
  00242	8b 7d d8	 mov	 edi, DWORD PTR _tempFileName$82[ebp]
  00245	83 c4 0c	 add	 esp, 12			; 0000000cH
$LN9@nonPlayerG:

; 152  : 				}
; 153  : 			}

  00248	c6 45 fc 02	 mov	 BYTE PTR __$EHRec$[ebp+8], 2
; File C:\Program Files\Microsoft Visual Studio\2022\Community\VC\Tools\MSVC\14.44.35207\include\xstring

; 453  :         return _Myres > _Small_string_capacity;

  0024c	8b 45 ec	 mov	 eax, DWORD PTR _tempFileName$82[ebp+20]
  0024f	83 f8 0f	 cmp	 eax, 15			; 0000000fH

; 3083 :         if (_My_data._Large_mode_engaged()) {

  00252	76 2b		 jbe	 SHORT $LN2@nonPlayerG

; 852  :         _Al.deallocate(_Old_ptr, _Capacity + 1); // +1 for null terminator

  00254	8d 48 01	 lea	 ecx, DWORD PTR [eax+1]
; File C:\Program Files\Microsoft Visual Studio\2022\Community\VC\Tools\MSVC\14.44.35207\include\xmemory

; 985  :         _STD _Deallocate<_New_alignof<_Ty>>(_Ptr, sizeof(_Ty) * _Count);

  00257	8b c7		 mov	 eax, edi

; 284  :         if (_Bytes >= _Big_allocation_threshold) {

  00259	81 f9 00 10 00
	00		 cmp	 ecx, 4096		; 00001000H
  0025f	72 14		 jb	 SHORT $LN197@nonPlayerG

; 205  :     const uintptr_t _Ptr_container   = _Ptr_user[-1];

  00261	8b 78 fc	 mov	 edi, DWORD PTR [eax-4]
  00264	83 c1 23	 add	 ecx, 35			; 00000023H
  00267	2b c7		 sub	 eax, edi

; 219  :     _STL_VERIFY(_Back_shift >= _Min_back_shift && _Back_shift <= _Non_user_size, "invalid argument");

  00269	83 c0 fc	 add	 eax, -4			; fffffffcH
  0026c	83 f8 1f	 cmp	 eax, 31			; 0000001fH
  0026f	0f 87 9c 00 00
	00		 ja	 $LN313@nonPlayerG
$LN197@nonPlayerG:

; 289  :         ::operator delete(_Ptr, _Bytes);

  00275	51		 push	 ecx
  00276	57		 push	 edi
  00277	e8 00 00 00 00	 call	 ??3@YAXPAXI@Z		; operator delete
  0027c	83 c4 08	 add	 esp, 8
$LN2@nonPlayerG:
; File C:\Program Files\Microsoft Visual Studio\2022\Community\VC\Tools\MSVC\14.44.35207\include\xtree

; 50   :         if (_Ptr->_Right->_Isnil) { // climb looking for right subtree

  0027f	8b 46 08	 mov	 eax, DWORD PTR [esi+8]
  00282	80 78 0d 00	 cmp	 BYTE PTR [eax+13], 0
  00286	74 20		 je	 SHORT $LN38@nonPlayerG

; 51   :             _Nodeptr _Pnode;
; 52   :             while (!(_Pnode = _Ptr->_Parent)->_Isnil && _Ptr == _Pnode->_Right) {

  00288	8b 46 04	 mov	 eax, DWORD PTR [esi+4]
  0028b	80 78 0d 00	 cmp	 BYTE PTR [eax+13], 0
  0028f	75 10		 jne	 SHORT $LN37@nonPlayerG
$LL36@nonPlayerG:
  00291	3b 70 08	 cmp	 esi, DWORD PTR [eax+8]
  00294	75 0b		 jne	 SHORT $LN37@nonPlayerG

; 53   :                 _Ptr = _Pnode; // ==> parent while right subtree

  00296	8b f0		 mov	 esi, eax
  00298	8b 40 04	 mov	 eax, DWORD PTR [eax+4]
  0029b	80 78 0d 00	 cmp	 BYTE PTR [eax+13], 0
  0029f	74 f0		 je	 SHORT $LL36@nonPlayerG
$LN37@nonPlayerG:

; 54   :             }
; 55   : 
; 56   :             _Ptr = _Pnode; // ==> parent (head if end())

  002a1	8b f0		 mov	 esi, eax
  002a3	89 75 b4	 mov	 DWORD PTR _i$1$[ebp], esi

; 57   :         } else {

  002a6	eb 1c		 jmp	 SHORT $LN319@nonPlayerG
$LN38@nonPlayerG:

; 58   :             _Ptr = _Mytree::_Min(_Ptr->_Right); // ==> smallest of right subtree

  002a8	8b f0		 mov	 esi, eax
  002aa	89 75 b4	 mov	 DWORD PTR _i$1$[ebp], esi

; 476  :         while (!_Pnode->_Left->_Isnil) {

  002ad	8b 0e		 mov	 ecx, DWORD PTR [esi]
  002af	80 79 0d 00	 cmp	 BYTE PTR [ecx+13], 0
  002b3	75 0f		 jne	 SHORT $LN319@nonPlayerG
$LL43@nonPlayerG:
  002b5	8b 01		 mov	 eax, DWORD PTR [ecx]

; 477  :             _Pnode = _Pnode->_Left;

  002b7	8b f1		 mov	 esi, ecx
  002b9	89 75 b4	 mov	 DWORD PTR _i$1$[ebp], esi
  002bc	8b c8		 mov	 ecx, eax
  002be	80 78 0d 00	 cmp	 BYTE PTR [eax+13], 0
  002c2	74 f1		 je	 SHORT $LL43@nonPlayerG
$LN319@nonPlayerG:

; 37   :     _Tree_unchecked_const_iterator(_Nodeptr _Pnode, const _Mytree* _Plist) noexcept : _Ptr(_Pnode) {

  002c4	3b 75 b8	 cmp	 esi, DWORD PTR _m_vec_MonsterRange$[ebp]
; File C:\Anka2Project\Anka2Project\Source\Binary\source\UserInterface\PythonNonPlayerModule.cpp

; 139  : 	for (i = m_vec_MonsterRange.begin(); i != m_vec_MonsterRange.end(); ++i)

  002c7	0f 85 9a fe ff
	ff		 jne	 $LL4@nonPlayerG
  002cd	8b 55 b0	 mov	 edx, DWORD PTR _poList$1$[ebp]
$LN320@nonPlayerG:

; 157  : 	return Py_BuildValue("O", poList);

  002d0	52		 push	 edx
  002d1	68 00 00 00 00	 push	 OFFSET ??_C@_01MJMHLOMK@O@
  002d6	ff 15 00 00 00
	00		 call	 DWORD PTR __imp__Py_BuildValue
  002dc	83 c4 08	 add	 esp, 8
; File C:\Program Files\Microsoft Visual Studio\2022\Community\VC\Tools\MSVC\14.44.35207\include\xstring

; 1383 :         _Tidy_deallocate();

  002df	8d 4d c0	 lea	 ecx, DWORD PTR _searchedFileName$[ebp]
; File C:\Anka2Project\Anka2Project\Source\Binary\source\UserInterface\PythonNonPlayerModule.cpp

; 157  : 	return Py_BuildValue("O", poList);

  002e2	8b f0		 mov	 esi, eax
; File C:\Program Files\Microsoft Visual Studio\2022\Community\VC\Tools\MSVC\14.44.35207\include\xstring

; 1383 :         _Tidy_deallocate();

  002e4	e8 00 00 00 00	 call	 ?_Tidy_deallocate@?$basic_string@DU?$char_traits@D@std@@V?$allocator@D@2@@std@@AAEXXZ ; std::basic_string<char,std::char_traits<char>,std::allocator<char> >::_Tidy_deallocate
; File C:\Program Files\Microsoft Visual Studio\2022\Community\VC\Tools\MSVC\14.44.35207\include\xtree

; 1097 :         _Scary->_Erase_head(_Getal());

  002e9	8d 45 b8	 lea	 eax, DWORD PTR _m_vec_MonsterRange$[ebp]
  002ec	50		 push	 eax
  002ed	8b c8		 mov	 ecx, eax
  002ef	e8 00 00 00 00	 call	 ??$_Erase_head@V?$allocator@U?$_Tree_node@U?$pair@$$CBKPAUSMobTable@CPythonNonPlayer@@@std@@PAX@std@@@std@@@?$_Tree_val@U?$_Tree_simple_types@U?$pair@$$CBKPAUSMobTable@CPythonNonPlayer@@@std@@@std@@@std@@QAEXAAV?$allocator@U?$_Tree_node@U?$pair@$$CBKPAUSMobTable@CPythonNonPlayer@@@std@@PAX@std@@@1@@Z ; std::_Tree_val<std::_Tree_simple_types<std::pair<unsigned long const ,CPythonNonPlayer::SMobTable *> > >::_Erase_head<std::allocator<std::_Tree_node<std::pair<unsigned long const ,CPythonNonPlayer::SMobTable *>,void *> > >
; File C:\Anka2Project\Anka2Project\Source\Binary\source\UserInterface\PythonNonPlayerModule.cpp

; 157  : 	return Py_BuildValue("O", poList);

  002f4	8b c6		 mov	 eax, esi
$LN1@nonPlayerG:

; 158  : }

  002f6	8b 4d f4	 mov	 ecx, DWORD PTR __$EHRec$[ebp]
  002f9	64 89 0d 00 00
	00 00		 mov	 DWORD PTR fs:0, ecx
  00300	59		 pop	 ecx
  00301	5f		 pop	 edi
  00302	5e		 pop	 esi
  00303	8b 4d f0	 mov	 ecx, DWORD PTR __$ArrayPad$[ebp]
  00306	33 cd		 xor	 ecx, ebp
  00308	e8 00 00 00 00	 call	 @__security_check_cookie@4
  0030d	8b e5		 mov	 esp, ebp
  0030f	5d		 pop	 ebp
  00310	c3		 ret	 0
$LN313@nonPlayerG:
; File C:\Program Files\Microsoft Visual Studio\2022\Community\VC\Tools\MSVC\14.44.35207\include\xmemory

; 219  :     _STL_VERIFY(_Back_shift >= _Min_back_shift && _Back_shift <= _Non_user_size, "invalid argument");

  00311	6a 00		 push	 0
  00313	6a 00		 push	 0
  00315	6a 00		 push	 0
  00317	6a 00		 push	 0
  00319	6a 00		 push	 0
  0031b	e8 00 00 00 00	 call	 __invoke_watson
$LN340@nonPlayerG:
  00320	cc		 int	 3
_TEXT	ENDS
;	COMDAT text$x
text$x	SEGMENT
__unwindfunclet$?nonPlayerGetMobsByName@@YAPAU_object@@PAU1@0@Z$10:
  00000	8d 4d a8	 lea	 ecx, DWORD PTR __Sentinel$81[ebp]
  00003	e9 00 00 00 00	 jmp	 ??1?$_Tree_head_scoped_ptr@V?$allocator@U?$_Tree_node@U?$pair@$$CBKPAUSMobTable@CPythonNonPlayer@@@std@@PAX@std@@@std@@V?$_Tree_val@U?$_Tree_simple_types@U?$pair@$$CBKPAUSMobTable@CPythonNonPlayer@@@std@@@std@@@2@@std@@QAE@XZ ; std::_Tree_head_scoped_ptr<std::allocator<std::_Tree_node<std::pair<unsigned long const ,CPythonNonPlayer::SMobTable *>,void *> >,std::_Tree_val<std::_Tree_simple_types<std::pair<unsigned long const ,CPythonNonPlayer::SMobTable *> > > >::~_Tree_head_scoped_ptr<std::allocator<std::_Tree_node<std::pair<unsigned long const ,CPythonNonPlayer::SMobTable *>,void *> >,std::_Tree_val<std::_Tree_simple_types<std::pair<unsigned long const ,CPythonNonPlayer::SMobTable *> > > >
__unwindfunclet$?nonPlayerGetMobsByName@@YAPAU_object@@PAU1@0@Z$0:
  00008	8d 4d b8	 lea	 ecx, DWORD PTR _m_vec_MonsterRange$[ebp]
  0000b	e9 00 00 00 00	 jmp	 ??1?$map@KPAUSMobTable@CPythonNonPlayer@@U?$less@K@std@@V?$allocator@U?$pair@$$CBKPAUSMobTable@CPythonNonPlayer@@@std@@@4@@std@@QAE@XZ
__unwindfunclet$?nonPlayerGetMobsByName@@YAPAU_object@@PAU1@0@Z$1:
  00010	8d 4d c0	 lea	 ecx, DWORD PTR _searchedFileName$[ebp]
  00013	e9 00 00 00 00	 jmp	 ??1?$basic_string@DU?$char_traits@D@std@@V?$allocator@D@2@@std@@QAE@XZ ; std::basic_string<char,std::char_traits<char>,std::allocator<char> >::~basic_string<char,std::char_traits<char>,std::allocator<char> >
__unwindfunclet$?nonPlayerGetMobsByName@@YAPAU_object@@PAU1@0@Z$2:
  00018	8d 4d d8	 lea	 ecx, DWORD PTR _tempFileName$82[ebp]
  0001b	e9 00 00 00 00	 jmp	 ??1?$basic_string@DU?$char_traits@D@std@@V?$allocator@D@2@@std@@QAE@XZ ; std::basic_string<char,std::char_traits<char>,std::allocator<char> >::~basic_string<char,std::char_traits<char>,std::allocator<char> >
  00020	cc		 int	 3
  00021	cc		 int	 3
  00022	cc		 int	 3
  00023	cc		 int	 3
  00024	cc		 int	 3
__ehhandler$?nonPlayerGetMobsByName@@YAPAU_object@@PAU1@0@Z:
  00025	90		 npad	 1
  00026	90		 npad	 1
  00027	8b 54 24 08	 mov	 edx, DWORD PTR [esp+8]
  0002b	8d 42 0c	 lea	 eax, DWORD PTR [edx+12]
  0002e	8b 4a 9c	 mov	 ecx, DWORD PTR [edx-100]
  00031	33 c8		 xor	 ecx, eax
  00033	e8 00 00 00 00	 call	 @__security_check_cookie@4
  00038	8b 4a fc	 mov	 ecx, DWORD PTR [edx-4]
  0003b	33 c8		 xor	 ecx, eax
  0003d	e8 00 00 00 00	 call	 @__security_check_cookie@4
  00042	b8 00 00 00 00	 mov	 eax, OFFSET __ehfuncinfo$?nonPlayerGetMobsByName@@YAPAU_object@@PAU1@0@Z
  00047	e9 00 00 00 00	 jmp	 ___CxxFrameHandler3
text$x	ENDS
?nonPlayerGetMobsByName@@YAPAU_object@@PAU1@0@Z ENDP	; nonPlayerGetMobsByName
; Function compile flags: /Ogtp
; File C:\Anka2Project\Anka2Project\Source\Binary\source\UserInterface\PythonNonPlayerModule.cpp
; File C:\Anka2Project\Anka2Project\Source\Binary\source\eterBase\Singleton.h
; File C:\Anka2Project\Anka2Project\Source\Binary\source\UserInterface\PythonNonPlayerModule.cpp
;	COMDAT ?nonplayerGetMonsterPrice@@YAPAU_object@@PAU1@0@Z
_TEXT	SEGMENT
_race$ = -4						; size = 4
_poSelf$ = 8						; size = 4
_poArgs$ = 12						; size = 4
?nonplayerGetMonsterPrice@@YAPAU_object@@PAU1@0@Z PROC	; nonplayerGetMonsterPrice, COMDAT

; 161  : {

  00000	55		 push	 ebp
  00001	8b ec		 mov	 ebp, esp
  00003	51		 push	 ecx

; 162  : 	int race;
; 163  : 	if (!PyTuple_GetInteger(poArgs, 0, &race))

  00004	8d 45 fc	 lea	 eax, DWORD PTR _race$[ebp]
  00007	50		 push	 eax
  00008	6a 00		 push	 0
  0000a	ff 75 0c	 push	 DWORD PTR _poArgs$[ebp]
  0000d	e8 00 00 00 00	 call	 ?PyTuple_GetInteger@@YA_NPAU_object@@HPAH@Z ; PyTuple_GetInteger
  00012	83 c4 0c	 add	 esp, 12			; 0000000cH
  00015	84 c0		 test	 al, al
  00017	75 0e		 jne	 SHORT $LN2@nonplayerG

; 164  : 		return Py_BuildException();

  00019	6a 00		 push	 0
  0001b	e8 00 00 00 00	 call	 ?Py_BuildException@@YAPAU_object@@PBDZZ ; Py_BuildException
  00020	83 c4 04	 add	 esp, 4

; 172  : }

  00023	8b e5		 mov	 esp, ebp
  00025	5d		 pop	 ebp
  00026	c3		 ret	 0
$LN2@nonplayerG:
  00027	53		 push	 ebx
; File C:\Anka2Project\Anka2Project\Source\Binary\source\eterBase\Singleton.h

; 26   : 		assert(ms_singleton);

  00028	8b 1d 00 00 00
	00		 mov	 ebx, DWORD PTR ?ms_singleton@?$CSingleton@VCPythonNonPlayer@@@@0PAVCPythonNonPlayer@@A ; CSingleton<CPythonNonPlayer>::ms_singleton
  0002e	57		 push	 edi
  0002f	85 db		 test	 ebx, ebx
  00031	75 1a		 jne	 SHORT $LN6@nonplayerG
  00033	6a 1a		 push	 26			; 0000001aH
  00035	68 00 00 00 00	 push	 OFFSET ??_C@_1IO@CAJLEEOI@?$AAC?$AA?3?$AA?2?$AAA?$AAn?$AAk?$AAa?$AA2?$AAP?$AAr?$AAo?$AAj?$AAe?$AAc?$AAt@
  0003a	68 00 00 00 00	 push	 OFFSET ??_C@_1BK@FMEHPMFE@?$AAm?$AAs?$AA_?$AAs?$AAi?$AAn?$AAg?$AAl?$AAe?$AAt?$AAo?$AAn@
  0003f	e8 00 00 00 00	 call	 __wassert
  00044	8b 1d 00 00 00
	00		 mov	 ebx, DWORD PTR ?ms_singleton@?$CSingleton@VCPythonNonPlayer@@@@0PAVCPythonNonPlayer@@A ; CSingleton<CPythonNonPlayer>::ms_singleton
  0004a	83 c4 0c	 add	 esp, 12			; 0000000cH
$LN6@nonplayerG:
; File C:\Anka2Project\Anka2Project\Source\Binary\source\UserInterface\PythonNonPlayerModule.cpp

; 168  : 	DWORD price1 = rkNonPlayer.GetMonsterPrice1(race);

  0004d	ff 75 fc	 push	 DWORD PTR _race$[ebp]
  00050	8b cb		 mov	 ecx, ebx
  00052	e8 00 00 00 00	 call	 ?GetMonsterPrice1@CPythonNonPlayer@@QAEKK@Z ; CPythonNonPlayer::GetMonsterPrice1

; 169  : 	DWORD price2 = rkNonPlayer.GetMonsterPrice2(race);

  00057	ff 75 fc	 push	 DWORD PTR _race$[ebp]
  0005a	8b cb		 mov	 ecx, ebx
  0005c	8b f8		 mov	 edi, eax
  0005e	e8 00 00 00 00	 call	 ?GetMonsterPrice2@CPythonNonPlayer@@QAEKK@Z ; CPythonNonPlayer::GetMonsterPrice2

; 170  : 
; 171  : 	return Py_BuildValue("ii", price1, price2);

  00063	50		 push	 eax
  00064	57		 push	 edi
  00065	68 00 00 00 00	 push	 OFFSET ??_C@_02PDIHAGKM@ii@
  0006a	ff 15 00 00 00
	00		 call	 DWORD PTR __imp__Py_BuildValue
  00070	83 c4 0c	 add	 esp, 12			; 0000000cH
  00073	5f		 pop	 edi
  00074	5b		 pop	 ebx

; 172  : }

  00075	8b e5		 mov	 esp, ebp
  00077	5d		 pop	 ebp
  00078	c3		 ret	 0
?nonplayerGetMonsterPrice@@YAPAU_object@@PAU1@0@Z ENDP	; nonplayerGetMonsterPrice
_TEXT	ENDS
; Function compile flags: /Ogtp
; File C:\Anka2Project\Anka2Project\Source\Binary\source\UserInterface\PythonNonPlayerModule.cpp
; File C:\Anka2Project\Anka2Project\Source\Binary\source\eterBase\Singleton.h
; File C:\Anka2Project\Anka2Project\Source\Binary\source\UserInterface\PythonNonPlayerModule.cpp
;	COMDAT ?nonplayerGetMonsterResist@@YAPAU_object@@PAU1@0@Z
_TEXT	SEGMENT
_race$ = -8						; size = 4
_bResist$ = -4						; size = 1
_poSelf$ = 8						; size = 4
_poArgs$ = 12						; size = 4
?nonplayerGetMonsterResist@@YAPAU_object@@PAU1@0@Z PROC	; nonplayerGetMonsterResist, COMDAT

; 175  : {

  00000	55		 push	 ebp
  00001	8b ec		 mov	 ebp, esp
  00003	83 ec 08	 sub	 esp, 8

; 176  : 	int race;
; 177  : 	if (!PyTuple_GetInteger(poArgs, 0, &race))

  00006	8d 45 f8	 lea	 eax, DWORD PTR _race$[ebp]
  00009	50		 push	 eax
  0000a	6a 00		 push	 0
  0000c	ff 75 0c	 push	 DWORD PTR _poArgs$[ebp]
  0000f	e8 00 00 00 00	 call	 ?PyTuple_GetInteger@@YA_NPAU_object@@HPAH@Z ; PyTuple_GetInteger
  00014	83 c4 0c	 add	 esp, 12			; 0000000cH
  00017	84 c0		 test	 al, al
  00019	75 0e		 jne	 SHORT $LN2@nonplayerG
$LN8@nonplayerG:

; 187  : }

  0001b	6a 00		 push	 0
  0001d	e8 00 00 00 00	 call	 ?Py_BuildException@@YAPAU_object@@PBDZZ ; Py_BuildException
  00022	83 c4 04	 add	 esp, 4
  00025	8b e5		 mov	 esp, ebp
  00027	5d		 pop	 ebp
  00028	c3		 ret	 0
$LN2@nonplayerG:

; 178  : 		return Py_BuildException();
; 179  : 
; 180  : 	BYTE bResist;
; 181  : 	if (!PyTuple_GetByte(poArgs, 1, &bResist))

  00029	8d 45 fc	 lea	 eax, DWORD PTR _bResist$[ebp]
  0002c	50		 push	 eax
  0002d	6a 01		 push	 1
  0002f	ff 75 0c	 push	 DWORD PTR _poArgs$[ebp]
  00032	e8 00 00 00 00	 call	 ?PyTuple_GetByte@@YA_NPAU_object@@HPAE@Z ; PyTuple_GetByte
  00037	83 c4 0c	 add	 esp, 12			; 0000000cH
  0003a	84 c0		 test	 al, al
  0003c	74 dd		 je	 SHORT $LN8@nonplayerG
; File C:\Anka2Project\Anka2Project\Source\Binary\source\eterBase\Singleton.h

; 26   : 		assert(ms_singleton);

  0003e	8b 0d 00 00 00
	00		 mov	 ecx, DWORD PTR ?ms_singleton@?$CSingleton@VCPythonNonPlayer@@@@0PAVCPythonNonPlayer@@A ; CSingleton<CPythonNonPlayer>::ms_singleton
  00044	85 c9		 test	 ecx, ecx
  00046	75 1a		 jne	 SHORT $LN7@nonplayerG
  00048	6a 1a		 push	 26			; 0000001aH
  0004a	68 00 00 00 00	 push	 OFFSET ??_C@_1IO@CAJLEEOI@?$AAC?$AA?3?$AA?2?$AAA?$AAn?$AAk?$AAa?$AA2?$AAP?$AAr?$AAo?$AAj?$AAe?$AAc?$AAt@
  0004f	68 00 00 00 00	 push	 OFFSET ??_C@_1BK@FMEHPMFE@?$AAm?$AAs?$AA_?$AAs?$AAi?$AAn?$AAg?$AAl?$AAe?$AAt?$AAo?$AAn@
  00054	e8 00 00 00 00	 call	 __wassert
  00059	8b 0d 00 00 00
	00		 mov	 ecx, DWORD PTR ?ms_singleton@?$CSingleton@VCPythonNonPlayer@@@@0PAVCPythonNonPlayer@@A ; CSingleton<CPythonNonPlayer>::ms_singleton
  0005f	83 c4 0c	 add	 esp, 12			; 0000000cH
$LN7@nonplayerG:
; File C:\Anka2Project\Anka2Project\Source\Binary\source\UserInterface\PythonNonPlayerModule.cpp

; 186  : 	return Py_BuildValue("i", rkNonPlayer.GetMonsterResist(race, bResist));

  00062	ff 75 fc	 push	 DWORD PTR _bResist$[ebp]
  00065	ff 75 f8	 push	 DWORD PTR _race$[ebp]
  00068	e8 00 00 00 00	 call	 ?GetMonsterResist@CPythonNonPlayer@@QAEDKE@Z ; CPythonNonPlayer::GetMonsterResist
  0006d	0f be c0	 movsx	 eax, al
  00070	50		 push	 eax
  00071	68 00 00 00 00	 push	 OFFSET ??_C@_01KBJDNOO@i@
  00076	ff 15 00 00 00
	00		 call	 DWORD PTR __imp__Py_BuildValue
  0007c	83 c4 08	 add	 esp, 8

; 187  : }

  0007f	8b e5		 mov	 esp, ebp
  00081	5d		 pop	 ebp
  00082	c3		 ret	 0
?nonplayerGetMonsterResist@@YAPAU_object@@PAU1@0@Z ENDP	; nonplayerGetMonsterResist
_TEXT	ENDS
; Function compile flags: /Ogtp
; File C:\Anka2Project\Anka2Project\Source\Binary\source\UserInterface\PythonNonPlayerModule.cpp
; File C:\Anka2Project\Anka2Project\Source\Binary\source\eterBase\Singleton.h
; File C:\Anka2Project\Anka2Project\Source\Binary\source\UserInterface\PythonNonPlayerModule.cpp
;	COMDAT ?nonplayerGetMonsterLevel@@YAPAU_object@@PAU1@0@Z
_TEXT	SEGMENT
_race$ = -4						; size = 4
_poSelf$ = 8						; size = 4
_poArgs$ = 12						; size = 4
?nonplayerGetMonsterLevel@@YAPAU_object@@PAU1@0@Z PROC	; nonplayerGetMonsterLevel, COMDAT

; 190  : {

  00000	55		 push	 ebp
  00001	8b ec		 mov	 ebp, esp
  00003	51		 push	 ecx

; 191  : 	int race;
; 192  : 	if (!PyTuple_GetInteger(poArgs, 0, &race))

  00004	8d 45 fc	 lea	 eax, DWORD PTR _race$[ebp]
  00007	50		 push	 eax
  00008	6a 00		 push	 0
  0000a	ff 75 0c	 push	 DWORD PTR _poArgs$[ebp]
  0000d	e8 00 00 00 00	 call	 ?PyTuple_GetInteger@@YA_NPAU_object@@HPAH@Z ; PyTuple_GetInteger
  00012	83 c4 0c	 add	 esp, 12			; 0000000cH
  00015	84 c0		 test	 al, al
  00017	75 0e		 jne	 SHORT $LN2@nonplayerG

; 193  : 		return Py_BuildException();

  00019	6a 00		 push	 0
  0001b	e8 00 00 00 00	 call	 ?Py_BuildException@@YAPAU_object@@PBDZZ ; Py_BuildException
  00020	83 c4 04	 add	 esp, 4

; 198  : }

  00023	8b e5		 mov	 esp, ebp
  00025	5d		 pop	 ebp
  00026	c3		 ret	 0
$LN2@nonplayerG:
; File C:\Anka2Project\Anka2Project\Source\Binary\source\eterBase\Singleton.h

; 26   : 		assert(ms_singleton);

  00027	8b 0d 00 00 00
	00		 mov	 ecx, DWORD PTR ?ms_singleton@?$CSingleton@VCPythonNonPlayer@@@@0PAVCPythonNonPlayer@@A ; CSingleton<CPythonNonPlayer>::ms_singleton
  0002d	85 c9		 test	 ecx, ecx
  0002f	75 1a		 jne	 SHORT $LN6@nonplayerG
  00031	6a 1a		 push	 26			; 0000001aH
  00033	68 00 00 00 00	 push	 OFFSET ??_C@_1IO@CAJLEEOI@?$AAC?$AA?3?$AA?2?$AAA?$AAn?$AAk?$AAa?$AA2?$AAP?$AAr?$AAo?$AAj?$AAe?$AAc?$AAt@
  00038	68 00 00 00 00	 push	 OFFSET ??_C@_1BK@FMEHPMFE@?$AAm?$AAs?$AA_?$AAs?$AAi?$AAn?$AAg?$AAl?$AAe?$AAt?$AAo?$AAn@
  0003d	e8 00 00 00 00	 call	 __wassert
  00042	8b 0d 00 00 00
	00		 mov	 ecx, DWORD PTR ?ms_singleton@?$CSingleton@VCPythonNonPlayer@@@@0PAVCPythonNonPlayer@@A ; CSingleton<CPythonNonPlayer>::ms_singleton
  00048	83 c4 0c	 add	 esp, 12			; 0000000cH
$LN6@nonplayerG:
; File C:\Anka2Project\Anka2Project\Source\Binary\source\UserInterface\PythonNonPlayerModule.cpp

; 197  : 	return Py_BuildValue("i", rkNonPlayer.GetMonsterLevel(race));

  0004b	ff 75 fc	 push	 DWORD PTR _race$[ebp]
  0004e	e8 00 00 00 00	 call	 ?GetMonsterLevel@CPythonNonPlayer@@QAEKK@Z ; CPythonNonPlayer::GetMonsterLevel
  00053	50		 push	 eax
  00054	68 00 00 00 00	 push	 OFFSET ??_C@_01KBJDNOO@i@
  00059	ff 15 00 00 00
	00		 call	 DWORD PTR __imp__Py_BuildValue
  0005f	83 c4 08	 add	 esp, 8

; 198  : }

  00062	8b e5		 mov	 esp, ebp
  00064	5d		 pop	 ebp
  00065	c3		 ret	 0
?nonplayerGetMonsterLevel@@YAPAU_object@@PAU1@0@Z ENDP	; nonplayerGetMonsterLevel
_TEXT	ENDS
; Function compile flags: /Ogtp
; File C:\Anka2Project\Anka2Project\Source\Binary\source\UserInterface\PythonNonPlayerModule.cpp
; File C:\Anka2Project\Anka2Project\Source\Binary\source\eterBase\Singleton.h
; File C:\Anka2Project\Anka2Project\Source\Binary\source\UserInterface\PythonNonPlayerModule.cpp
;	COMDAT ?nonplayerGetMonsterDamage@@YAPAU_object@@PAU1@0@Z
_TEXT	SEGMENT
_race$ = -4						; size = 4
_poSelf$ = 8						; size = 4
_poArgs$ = 12						; size = 4
?nonplayerGetMonsterDamage@@YAPAU_object@@PAU1@0@Z PROC	; nonplayerGetMonsterDamage, COMDAT

; 201  : {

  00000	55		 push	 ebp
  00001	8b ec		 mov	 ebp, esp
  00003	51		 push	 ecx

; 202  : 	int race;
; 203  : 	if (!PyTuple_GetInteger(poArgs, 0, &race))

  00004	8d 45 fc	 lea	 eax, DWORD PTR _race$[ebp]
  00007	50		 push	 eax
  00008	6a 00		 push	 0
  0000a	ff 75 0c	 push	 DWORD PTR _poArgs$[ebp]
  0000d	e8 00 00 00 00	 call	 ?PyTuple_GetInteger@@YA_NPAU_object@@HPAH@Z ; PyTuple_GetInteger
  00012	83 c4 0c	 add	 esp, 12			; 0000000cH
  00015	84 c0		 test	 al, al
  00017	75 0e		 jne	 SHORT $LN2@nonplayerG

; 204  : 		return Py_BuildException();

  00019	6a 00		 push	 0
  0001b	e8 00 00 00 00	 call	 ?Py_BuildException@@YAPAU_object@@PBDZZ ; Py_BuildException
  00020	83 c4 04	 add	 esp, 4

; 212  : }

  00023	8b e5		 mov	 esp, ebp
  00025	5d		 pop	 ebp
  00026	c3		 ret	 0
$LN2@nonplayerG:
  00027	53		 push	 ebx
; File C:\Anka2Project\Anka2Project\Source\Binary\source\eterBase\Singleton.h

; 26   : 		assert(ms_singleton);

  00028	8b 1d 00 00 00
	00		 mov	 ebx, DWORD PTR ?ms_singleton@?$CSingleton@VCPythonNonPlayer@@@@0PAVCPythonNonPlayer@@A ; CSingleton<CPythonNonPlayer>::ms_singleton
  0002e	57		 push	 edi
  0002f	85 db		 test	 ebx, ebx
  00031	75 1a		 jne	 SHORT $LN6@nonplayerG
  00033	6a 1a		 push	 26			; 0000001aH
  00035	68 00 00 00 00	 push	 OFFSET ??_C@_1IO@CAJLEEOI@?$AAC?$AA?3?$AA?2?$AAA?$AAn?$AAk?$AAa?$AA2?$AAP?$AAr?$AAo?$AAj?$AAe?$AAc?$AAt@
  0003a	68 00 00 00 00	 push	 OFFSET ??_C@_1BK@FMEHPMFE@?$AAm?$AAs?$AA_?$AAs?$AAi?$AAn?$AAg?$AAl?$AAe?$AAt?$AAo?$AAn@
  0003f	e8 00 00 00 00	 call	 __wassert
  00044	8b 1d 00 00 00
	00		 mov	 ebx, DWORD PTR ?ms_singleton@?$CSingleton@VCPythonNonPlayer@@@@0PAVCPythonNonPlayer@@A ; CSingleton<CPythonNonPlayer>::ms_singleton
  0004a	83 c4 0c	 add	 esp, 12			; 0000000cH
$LN6@nonplayerG:
; File C:\Anka2Project\Anka2Project\Source\Binary\source\UserInterface\PythonNonPlayerModule.cpp

; 208  : 	DWORD dmg1 = rkNonPlayer.GetMonsterDamage1(race);

  0004d	ff 75 fc	 push	 DWORD PTR _race$[ebp]
  00050	8b cb		 mov	 ecx, ebx
  00052	e8 00 00 00 00	 call	 ?GetMonsterDamage1@CPythonNonPlayer@@QAEKK@Z ; CPythonNonPlayer::GetMonsterDamage1

; 209  : 	DWORD dmg2 = rkNonPlayer.GetMonsterDamage2(race);

  00057	ff 75 fc	 push	 DWORD PTR _race$[ebp]
  0005a	8b cb		 mov	 ecx, ebx
  0005c	8b f8		 mov	 edi, eax
  0005e	e8 00 00 00 00	 call	 ?GetMonsterDamage2@CPythonNonPlayer@@QAEKK@Z ; CPythonNonPlayer::GetMonsterDamage2

; 210  : 
; 211  : 	return Py_BuildValue("ii", dmg1, dmg2);

  00063	50		 push	 eax
  00064	57		 push	 edi
  00065	68 00 00 00 00	 push	 OFFSET ??_C@_02PDIHAGKM@ii@
  0006a	ff 15 00 00 00
	00		 call	 DWORD PTR __imp__Py_BuildValue
  00070	83 c4 0c	 add	 esp, 12			; 0000000cH
  00073	5f		 pop	 edi
  00074	5b		 pop	 ebx

; 212  : }

  00075	8b e5		 mov	 esp, ebp
  00077	5d		 pop	 ebp
  00078	c3		 ret	 0
?nonplayerGetMonsterDamage@@YAPAU_object@@PAU1@0@Z ENDP	; nonplayerGetMonsterDamage
_TEXT	ENDS
; Function compile flags: /Ogtp
; File C:\Anka2Project\Anka2Project\Source\Binary\source\UserInterface\PythonNonPlayerModule.cpp
; File C:\Anka2Project\Anka2Project\Source\Binary\source\eterBase\Singleton.h
; File C:\Anka2Project\Anka2Project\Source\Binary\source\UserInterface\PythonNonPlayerModule.cpp
;	COMDAT ?nonplayerGetMonsterExp@@YAPAU_object@@PAU1@0@Z
_TEXT	SEGMENT
_race$ = -4						; size = 4
_poSelf$ = 8						; size = 4
_poArgs$ = 12						; size = 4
?nonplayerGetMonsterExp@@YAPAU_object@@PAU1@0@Z PROC	; nonplayerGetMonsterExp, COMDAT

; 215  : {

  00000	55		 push	 ebp
  00001	8b ec		 mov	 ebp, esp
  00003	51		 push	 ecx

; 216  : 	int race;
; 217  : 	if (!PyTuple_GetInteger(poArgs, 0, &race))

  00004	8d 45 fc	 lea	 eax, DWORD PTR _race$[ebp]
  00007	50		 push	 eax
  00008	6a 00		 push	 0
  0000a	ff 75 0c	 push	 DWORD PTR _poArgs$[ebp]
  0000d	e8 00 00 00 00	 call	 ?PyTuple_GetInteger@@YA_NPAU_object@@HPAH@Z ; PyTuple_GetInteger
  00012	83 c4 0c	 add	 esp, 12			; 0000000cH
  00015	84 c0		 test	 al, al
  00017	75 0e		 jne	 SHORT $LN2@nonplayerG

; 218  : 		return Py_BuildException();

  00019	6a 00		 push	 0
  0001b	e8 00 00 00 00	 call	 ?Py_BuildException@@YAPAU_object@@PBDZZ ; Py_BuildException
  00020	83 c4 04	 add	 esp, 4

; 223  : }

  00023	8b e5		 mov	 esp, ebp
  00025	5d		 pop	 ebp
  00026	c3		 ret	 0
$LN2@nonplayerG:
; File C:\Anka2Project\Anka2Project\Source\Binary\source\eterBase\Singleton.h

; 26   : 		assert(ms_singleton);

  00027	8b 0d 00 00 00
	00		 mov	 ecx, DWORD PTR ?ms_singleton@?$CSingleton@VCPythonNonPlayer@@@@0PAVCPythonNonPlayer@@A ; CSingleton<CPythonNonPlayer>::ms_singleton
  0002d	85 c9		 test	 ecx, ecx
  0002f	75 1a		 jne	 SHORT $LN6@nonplayerG
  00031	6a 1a		 push	 26			; 0000001aH
  00033	68 00 00 00 00	 push	 OFFSET ??_C@_1IO@CAJLEEOI@?$AAC?$AA?3?$AA?2?$AAA?$AAn?$AAk?$AAa?$AA2?$AAP?$AAr?$AAo?$AAj?$AAe?$AAc?$AAt@
  00038	68 00 00 00 00	 push	 OFFSET ??_C@_1BK@FMEHPMFE@?$AAm?$AAs?$AA_?$AAs?$AAi?$AAn?$AAg?$AAl?$AAe?$AAt?$AAo?$AAn@
  0003d	e8 00 00 00 00	 call	 __wassert
  00042	8b 0d 00 00 00
	00		 mov	 ecx, DWORD PTR ?ms_singleton@?$CSingleton@VCPythonNonPlayer@@@@0PAVCPythonNonPlayer@@A ; CSingleton<CPythonNonPlayer>::ms_singleton
  00048	83 c4 0c	 add	 esp, 12			; 0000000cH
$LN6@nonplayerG:
; File C:\Anka2Project\Anka2Project\Source\Binary\source\UserInterface\PythonNonPlayerModule.cpp

; 222  : 	return Py_BuildValue("i", rkNonPlayer.GetMonsterExp(race));

  0004b	ff 75 fc	 push	 DWORD PTR _race$[ebp]
  0004e	e8 00 00 00 00	 call	 ?GetMonsterExp@CPythonNonPlayer@@QAEKK@Z ; CPythonNonPlayer::GetMonsterExp
  00053	50		 push	 eax
  00054	68 00 00 00 00	 push	 OFFSET ??_C@_01KBJDNOO@i@
  00059	ff 15 00 00 00
	00		 call	 DWORD PTR __imp__Py_BuildValue
  0005f	83 c4 08	 add	 esp, 8

; 223  : }

  00062	8b e5		 mov	 esp, ebp
  00064	5d		 pop	 ebp
  00065	c3		 ret	 0
?nonplayerGetMonsterExp@@YAPAU_object@@PAU1@0@Z ENDP	; nonplayerGetMonsterExp
_TEXT	ENDS
; Function compile flags: /Ogtp
; File C:\Anka2Project\Anka2Project\Source\Binary\source\UserInterface\PythonNonPlayerModule.cpp
; File C:\Anka2Project\Anka2Project\Source\Binary\source\eterBase\Singleton.h
; File C:\Anka2Project\Anka2Project\Source\Binary\source\UserInterface\PythonNonPlayerModule.cpp
;	COMDAT ?nonplayerGetMonsterDamageMultiply@@YAPAU_object@@PAU1@0@Z
_TEXT	SEGMENT
_race$ = -4						; size = 4
_poSelf$ = 8						; size = 4
_poArgs$ = 12						; size = 4
?nonplayerGetMonsterDamageMultiply@@YAPAU_object@@PAU1@0@Z PROC ; nonplayerGetMonsterDamageMultiply, COMDAT

; 226  : {

  00000	55		 push	 ebp
  00001	8b ec		 mov	 ebp, esp
  00003	51		 push	 ecx

; 227  : 	int race;
; 228  : 	if (!PyTuple_GetInteger(poArgs, 0, &race))

  00004	8d 45 fc	 lea	 eax, DWORD PTR _race$[ebp]
  00007	50		 push	 eax
  00008	6a 00		 push	 0
  0000a	ff 75 0c	 push	 DWORD PTR _poArgs$[ebp]
  0000d	e8 00 00 00 00	 call	 ?PyTuple_GetInteger@@YA_NPAU_object@@HPAH@Z ; PyTuple_GetInteger
  00012	83 c4 0c	 add	 esp, 12			; 0000000cH
  00015	84 c0		 test	 al, al
  00017	75 0e		 jne	 SHORT $LN2@nonplayerG

; 229  : 		return Py_BuildException();

  00019	6a 00		 push	 0
  0001b	e8 00 00 00 00	 call	 ?Py_BuildException@@YAPAU_object@@PBDZZ ; Py_BuildException
  00020	83 c4 04	 add	 esp, 4

; 234  : }

  00023	8b e5		 mov	 esp, ebp
  00025	5d		 pop	 ebp
  00026	c3		 ret	 0
$LN2@nonplayerG:
; File C:\Anka2Project\Anka2Project\Source\Binary\source\eterBase\Singleton.h

; 26   : 		assert(ms_singleton);

  00027	8b 0d 00 00 00
	00		 mov	 ecx, DWORD PTR ?ms_singleton@?$CSingleton@VCPythonNonPlayer@@@@0PAVCPythonNonPlayer@@A ; CSingleton<CPythonNonPlayer>::ms_singleton
  0002d	85 c9		 test	 ecx, ecx
  0002f	75 1a		 jne	 SHORT $LN6@nonplayerG
  00031	6a 1a		 push	 26			; 0000001aH
  00033	68 00 00 00 00	 push	 OFFSET ??_C@_1IO@CAJLEEOI@?$AAC?$AA?3?$AA?2?$AAA?$AAn?$AAk?$AAa?$AA2?$AAP?$AAr?$AAo?$AAj?$AAe?$AAc?$AAt@
  00038	68 00 00 00 00	 push	 OFFSET ??_C@_1BK@FMEHPMFE@?$AAm?$AAs?$AA_?$AAs?$AAi?$AAn?$AAg?$AAl?$AAe?$AAt?$AAo?$AAn@
  0003d	e8 00 00 00 00	 call	 __wassert
  00042	8b 0d 00 00 00
	00		 mov	 ecx, DWORD PTR ?ms_singleton@?$CSingleton@VCPythonNonPlayer@@@@0PAVCPythonNonPlayer@@A ; CSingleton<CPythonNonPlayer>::ms_singleton
  00048	83 c4 0c	 add	 esp, 12			; 0000000cH
$LN6@nonplayerG:
; File C:\Anka2Project\Anka2Project\Source\Binary\source\UserInterface\PythonNonPlayerModule.cpp

; 233  : 	return Py_BuildValue("f", rkNonPlayer.GetMonsterDamageMultiply(race));

  0004b	ff 75 fc	 push	 DWORD PTR _race$[ebp]
  0004e	e8 00 00 00 00	 call	 ?GetMonsterDamageMultiply@CPythonNonPlayer@@QAEMK@Z ; CPythonNonPlayer::GetMonsterDamageMultiply
  00053	f3 0f 5a c0	 cvtss2sd xmm0, xmm0
  00057	83 ec 08	 sub	 esp, 8
  0005a	f2 0f 11 04 24	 movsd	 QWORD PTR [esp], xmm0
  0005f	68 00 00 00 00	 push	 OFFSET ??_C@_01INIBCBCB@f@
  00064	ff 15 00 00 00
	00		 call	 DWORD PTR __imp__Py_BuildValue
  0006a	83 c4 0c	 add	 esp, 12			; 0000000cH

; 234  : }

  0006d	8b e5		 mov	 esp, ebp
  0006f	5d		 pop	 ebp
  00070	c3		 ret	 0
?nonplayerGetMonsterDamageMultiply@@YAPAU_object@@PAU1@0@Z ENDP ; nonplayerGetMonsterDamageMultiply
_TEXT	ENDS
; Function compile flags: /Ogtp
; File C:\Anka2Project\Anka2Project\Source\Binary\source\UserInterface\PythonNonPlayerModule.cpp
; File C:\Anka2Project\Anka2Project\Source\Binary\source\eterBase\Singleton.h
; File C:\Anka2Project\Anka2Project\Source\Binary\source\UserInterface\PythonNonPlayerModule.cpp
;	COMDAT ?nonplayerGetMonsterST@@YAPAU_object@@PAU1@0@Z
_TEXT	SEGMENT
_race$ = -4						; size = 4
_poSelf$ = 8						; size = 4
_poArgs$ = 12						; size = 4
?nonplayerGetMonsterST@@YAPAU_object@@PAU1@0@Z PROC	; nonplayerGetMonsterST, COMDAT

; 237  : {

  00000	55		 push	 ebp
  00001	8b ec		 mov	 ebp, esp
  00003	51		 push	 ecx

; 238  : 	int race;
; 239  : 	if (!PyTuple_GetInteger(poArgs, 0, &race))

  00004	8d 45 fc	 lea	 eax, DWORD PTR _race$[ebp]
  00007	50		 push	 eax
  00008	6a 00		 push	 0
  0000a	ff 75 0c	 push	 DWORD PTR _poArgs$[ebp]
  0000d	e8 00 00 00 00	 call	 ?PyTuple_GetInteger@@YA_NPAU_object@@HPAH@Z ; PyTuple_GetInteger
  00012	83 c4 0c	 add	 esp, 12			; 0000000cH
  00015	84 c0		 test	 al, al
  00017	75 0e		 jne	 SHORT $LN2@nonplayerG

; 240  : 		return Py_BuildException();

  00019	6a 00		 push	 0
  0001b	e8 00 00 00 00	 call	 ?Py_BuildException@@YAPAU_object@@PBDZZ ; Py_BuildException
  00020	83 c4 04	 add	 esp, 4

; 245  : }

  00023	8b e5		 mov	 esp, ebp
  00025	5d		 pop	 ebp
  00026	c3		 ret	 0
$LN2@nonplayerG:
; File C:\Anka2Project\Anka2Project\Source\Binary\source\eterBase\Singleton.h

; 26   : 		assert(ms_singleton);

  00027	8b 0d 00 00 00
	00		 mov	 ecx, DWORD PTR ?ms_singleton@?$CSingleton@VCPythonNonPlayer@@@@0PAVCPythonNonPlayer@@A ; CSingleton<CPythonNonPlayer>::ms_singleton
  0002d	85 c9		 test	 ecx, ecx
  0002f	75 1a		 jne	 SHORT $LN6@nonplayerG
  00031	6a 1a		 push	 26			; 0000001aH
  00033	68 00 00 00 00	 push	 OFFSET ??_C@_1IO@CAJLEEOI@?$AAC?$AA?3?$AA?2?$AAA?$AAn?$AAk?$AAa?$AA2?$AAP?$AAr?$AAo?$AAj?$AAe?$AAc?$AAt@
  00038	68 00 00 00 00	 push	 OFFSET ??_C@_1BK@FMEHPMFE@?$AAm?$AAs?$AA_?$AAs?$AAi?$AAn?$AAg?$AAl?$AAe?$AAt?$AAo?$AAn@
  0003d	e8 00 00 00 00	 call	 __wassert
  00042	8b 0d 00 00 00
	00		 mov	 ecx, DWORD PTR ?ms_singleton@?$CSingleton@VCPythonNonPlayer@@@@0PAVCPythonNonPlayer@@A ; CSingleton<CPythonNonPlayer>::ms_singleton
  00048	83 c4 0c	 add	 esp, 12			; 0000000cH
$LN6@nonplayerG:
; File C:\Anka2Project\Anka2Project\Source\Binary\source\UserInterface\PythonNonPlayerModule.cpp

; 244  : 	return Py_BuildValue("i", rkNonPlayer.GetMonsterST(race));

  0004b	ff 75 fc	 push	 DWORD PTR _race$[ebp]
  0004e	e8 00 00 00 00	 call	 ?GetMonsterST@CPythonNonPlayer@@QAEKK@Z ; CPythonNonPlayer::GetMonsterST
  00053	50		 push	 eax
  00054	68 00 00 00 00	 push	 OFFSET ??_C@_01KBJDNOO@i@
  00059	ff 15 00 00 00
	00		 call	 DWORD PTR __imp__Py_BuildValue
  0005f	83 c4 08	 add	 esp, 8

; 245  : }

  00062	8b e5		 mov	 esp, ebp
  00064	5d		 pop	 ebp
  00065	c3		 ret	 0
?nonplayerGetMonsterST@@YAPAU_object@@PAU1@0@Z ENDP	; nonplayerGetMonsterST
_TEXT	ENDS
; Function compile flags: /Ogtp
; File C:\Anka2Project\Anka2Project\Source\Binary\source\UserInterface\PythonNonPlayerModule.cpp
; File C:\Anka2Project\Anka2Project\Source\Binary\source\eterBase\Singleton.h
; File C:\Anka2Project\Anka2Project\Source\Binary\source\UserInterface\PythonNonPlayerModule.cpp
;	COMDAT ?nonplayerGetMonsterDX@@YAPAU_object@@PAU1@0@Z
_TEXT	SEGMENT
_race$ = -4						; size = 4
_poSelf$ = 8						; size = 4
_poArgs$ = 12						; size = 4
?nonplayerGetMonsterDX@@YAPAU_object@@PAU1@0@Z PROC	; nonplayerGetMonsterDX, COMDAT

; 248  : {

  00000	55		 push	 ebp
  00001	8b ec		 mov	 ebp, esp
  00003	51		 push	 ecx

; 249  : 	int race;
; 250  : 	if (!PyTuple_GetInteger(poArgs, 0, &race))

  00004	8d 45 fc	 lea	 eax, DWORD PTR _race$[ebp]
  00007	50		 push	 eax
  00008	6a 00		 push	 0
  0000a	ff 75 0c	 push	 DWORD PTR _poArgs$[ebp]
  0000d	e8 00 00 00 00	 call	 ?PyTuple_GetInteger@@YA_NPAU_object@@HPAH@Z ; PyTuple_GetInteger
  00012	83 c4 0c	 add	 esp, 12			; 0000000cH
  00015	84 c0		 test	 al, al
  00017	75 0e		 jne	 SHORT $LN2@nonplayerG

; 251  : 		return Py_BuildException();

  00019	6a 00		 push	 0
  0001b	e8 00 00 00 00	 call	 ?Py_BuildException@@YAPAU_object@@PBDZZ ; Py_BuildException
  00020	83 c4 04	 add	 esp, 4

; 256  : }

  00023	8b e5		 mov	 esp, ebp
  00025	5d		 pop	 ebp
  00026	c3		 ret	 0
$LN2@nonplayerG:
; File C:\Anka2Project\Anka2Project\Source\Binary\source\eterBase\Singleton.h

; 26   : 		assert(ms_singleton);

  00027	8b 0d 00 00 00
	00		 mov	 ecx, DWORD PTR ?ms_singleton@?$CSingleton@VCPythonNonPlayer@@@@0PAVCPythonNonPlayer@@A ; CSingleton<CPythonNonPlayer>::ms_singleton
  0002d	85 c9		 test	 ecx, ecx
  0002f	75 1a		 jne	 SHORT $LN6@nonplayerG
  00031	6a 1a		 push	 26			; 0000001aH
  00033	68 00 00 00 00	 push	 OFFSET ??_C@_1IO@CAJLEEOI@?$AAC?$AA?3?$AA?2?$AAA?$AAn?$AAk?$AAa?$AA2?$AAP?$AAr?$AAo?$AAj?$AAe?$AAc?$AAt@
  00038	68 00 00 00 00	 push	 OFFSET ??_C@_1BK@FMEHPMFE@?$AAm?$AAs?$AA_?$AAs?$AAi?$AAn?$AAg?$AAl?$AAe?$AAt?$AAo?$AAn@
  0003d	e8 00 00 00 00	 call	 __wassert
  00042	8b 0d 00 00 00
	00		 mov	 ecx, DWORD PTR ?ms_singleton@?$CSingleton@VCPythonNonPlayer@@@@0PAVCPythonNonPlayer@@A ; CSingleton<CPythonNonPlayer>::ms_singleton
  00048	83 c4 0c	 add	 esp, 12			; 0000000cH
$LN6@nonplayerG:
; File C:\Anka2Project\Anka2Project\Source\Binary\source\UserInterface\PythonNonPlayerModule.cpp

; 255  : 	return Py_BuildValue("i", rkNonPlayer.GetMonsterDX(race));

  0004b	ff 75 fc	 push	 DWORD PTR _race$[ebp]
  0004e	e8 00 00 00 00	 call	 ?GetMonsterDX@CPythonNonPlayer@@QAEKK@Z ; CPythonNonPlayer::GetMonsterDX
  00053	50		 push	 eax
  00054	68 00 00 00 00	 push	 OFFSET ??_C@_01KBJDNOO@i@
  00059	ff 15 00 00 00
	00		 call	 DWORD PTR __imp__Py_BuildValue
  0005f	83 c4 08	 add	 esp, 8

; 256  : }

  00062	8b e5		 mov	 esp, ebp
  00064	5d		 pop	 ebp
  00065	c3		 ret	 0
?nonplayerGetMonsterDX@@YAPAU_object@@PAU1@0@Z ENDP	; nonplayerGetMonsterDX
_TEXT	ENDS
; Function compile flags: /Ogtp
; File C:\Anka2Project\Anka2Project\Source\Binary\source\UserInterface\PythonNonPlayerModule.cpp
; File C:\Anka2Project\Anka2Project\Source\Binary\source\eterBase\Singleton.h
; File C:\Anka2Project\Anka2Project\Source\Binary\source\UserInterface\PythonNonPlayerModule.cpp
;	COMDAT ?nonplayerIsMonsterStone@@YAPAU_object@@PAU1@0@Z
_TEXT	SEGMENT
_race$ = -4						; size = 4
_poSelf$ = 8						; size = 4
_poArgs$ = 12						; size = 4
?nonplayerIsMonsterStone@@YAPAU_object@@PAU1@0@Z PROC	; nonplayerIsMonsterStone, COMDAT

; 259  : {

  00000	55		 push	 ebp
  00001	8b ec		 mov	 ebp, esp
  00003	51		 push	 ecx

; 260  : 	int race;
; 261  : 	if (!PyTuple_GetInteger(poArgs, 0, &race))

  00004	8d 45 fc	 lea	 eax, DWORD PTR _race$[ebp]
  00007	50		 push	 eax
  00008	6a 00		 push	 0
  0000a	ff 75 0c	 push	 DWORD PTR _poArgs$[ebp]
  0000d	e8 00 00 00 00	 call	 ?PyTuple_GetInteger@@YA_NPAU_object@@HPAH@Z ; PyTuple_GetInteger
  00012	83 c4 0c	 add	 esp, 12			; 0000000cH
  00015	84 c0		 test	 al, al
  00017	75 0e		 jne	 SHORT $LN2@nonplayerI

; 262  : 		return Py_BuildException();

  00019	6a 00		 push	 0
  0001b	e8 00 00 00 00	 call	 ?Py_BuildException@@YAPAU_object@@PBDZZ ; Py_BuildException
  00020	83 c4 04	 add	 esp, 4

; 267  : }

  00023	8b e5		 mov	 esp, ebp
  00025	5d		 pop	 ebp
  00026	c3		 ret	 0
$LN2@nonplayerI:
; File C:\Anka2Project\Anka2Project\Source\Binary\source\eterBase\Singleton.h

; 26   : 		assert(ms_singleton);

  00027	8b 0d 00 00 00
	00		 mov	 ecx, DWORD PTR ?ms_singleton@?$CSingleton@VCPythonNonPlayer@@@@0PAVCPythonNonPlayer@@A ; CSingleton<CPythonNonPlayer>::ms_singleton
  0002d	85 c9		 test	 ecx, ecx
  0002f	75 1a		 jne	 SHORT $LN6@nonplayerI
  00031	6a 1a		 push	 26			; 0000001aH
  00033	68 00 00 00 00	 push	 OFFSET ??_C@_1IO@CAJLEEOI@?$AAC?$AA?3?$AA?2?$AAA?$AAn?$AAk?$AAa?$AA2?$AAP?$AAr?$AAo?$AAj?$AAe?$AAc?$AAt@
  00038	68 00 00 00 00	 push	 OFFSET ??_C@_1BK@FMEHPMFE@?$AAm?$AAs?$AA_?$AAs?$AAi?$AAn?$AAg?$AAl?$AAe?$AAt?$AAo?$AAn@
  0003d	e8 00 00 00 00	 call	 __wassert
  00042	8b 0d 00 00 00
	00		 mov	 ecx, DWORD PTR ?ms_singleton@?$CSingleton@VCPythonNonPlayer@@@@0PAVCPythonNonPlayer@@A ; CSingleton<CPythonNonPlayer>::ms_singleton
  00048	83 c4 0c	 add	 esp, 12			; 0000000cH
$LN6@nonplayerI:
; File C:\Anka2Project\Anka2Project\Source\Binary\source\UserInterface\PythonNonPlayerModule.cpp

; 266  : 	return Py_BuildValue("i", rkNonPlayer.IsMonsterStone(race) ? 1 : 0);

  0004b	ff 75 fc	 push	 DWORD PTR _race$[ebp]
  0004e	e8 00 00 00 00	 call	 ?IsMonsterStone@CPythonNonPlayer@@QAE_NK@Z ; CPythonNonPlayer::IsMonsterStone
  00053	0f b6 c0	 movzx	 eax, al
  00056	50		 push	 eax
  00057	68 00 00 00 00	 push	 OFFSET ??_C@_01KBJDNOO@i@
  0005c	ff 15 00 00 00
	00		 call	 DWORD PTR __imp__Py_BuildValue
  00062	83 c4 08	 add	 esp, 8

; 267  : }

  00065	8b e5		 mov	 esp, ebp
  00067	5d		 pop	 ebp
  00068	c3		 ret	 0
?nonplayerIsMonsterStone@@YAPAU_object@@PAU1@0@Z ENDP	; nonplayerIsMonsterStone
_TEXT	ENDS
; Function compile flags: /Ogtp
; File C:\Anka2Project\Anka2Project\Source\Binary\source\UserInterface\PythonNonPlayerModule.cpp
; File C:\Anka2Project\Anka2Project\Source\Binary\source\eterBase\Singleton.h
; File C:\Anka2Project\Anka2Project\Source\Binary\source\UserInterface\PythonNonPlayerModule.cpp
;	COMDAT ?nonplayerGetMonsterRaceFlag@@YAPAU_object@@PAU1@0@Z
_TEXT	SEGMENT
_race$ = -4						; size = 4
_poSelf$ = 8						; size = 4
_poArgs$ = 12						; size = 4
?nonplayerGetMonsterRaceFlag@@YAPAU_object@@PAU1@0@Z PROC ; nonplayerGetMonsterRaceFlag, COMDAT

; 270  : {

  00000	55		 push	 ebp
  00001	8b ec		 mov	 ebp, esp
  00003	51		 push	 ecx

; 271  : 	int race;
; 272  : 	if (!PyTuple_GetInteger(poArgs, 0, &race))

  00004	8d 45 fc	 lea	 eax, DWORD PTR _race$[ebp]
  00007	50		 push	 eax
  00008	6a 00		 push	 0
  0000a	ff 75 0c	 push	 DWORD PTR _poArgs$[ebp]
  0000d	e8 00 00 00 00	 call	 ?PyTuple_GetInteger@@YA_NPAU_object@@HPAH@Z ; PyTuple_GetInteger
  00012	83 c4 0c	 add	 esp, 12			; 0000000cH
  00015	84 c0		 test	 al, al
  00017	75 0e		 jne	 SHORT $LN2@nonplayerG

; 273  : 		return Py_BuildException();

  00019	6a 00		 push	 0
  0001b	e8 00 00 00 00	 call	 ?Py_BuildException@@YAPAU_object@@PBDZZ ; Py_BuildException
  00020	83 c4 04	 add	 esp, 4

; 278  : }

  00023	8b e5		 mov	 esp, ebp
  00025	5d		 pop	 ebp
  00026	c3		 ret	 0
$LN2@nonplayerG:
; File C:\Anka2Project\Anka2Project\Source\Binary\source\eterBase\Singleton.h

; 26   : 		assert(ms_singleton);

  00027	8b 0d 00 00 00
	00		 mov	 ecx, DWORD PTR ?ms_singleton@?$CSingleton@VCPythonNonPlayer@@@@0PAVCPythonNonPlayer@@A ; CSingleton<CPythonNonPlayer>::ms_singleton
  0002d	85 c9		 test	 ecx, ecx
  0002f	75 1a		 jne	 SHORT $LN6@nonplayerG
  00031	6a 1a		 push	 26			; 0000001aH
  00033	68 00 00 00 00	 push	 OFFSET ??_C@_1IO@CAJLEEOI@?$AAC?$AA?3?$AA?2?$AAA?$AAn?$AAk?$AAa?$AA2?$AAP?$AAr?$AAo?$AAj?$AAe?$AAc?$AAt@
  00038	68 00 00 00 00	 push	 OFFSET ??_C@_1BK@FMEHPMFE@?$AAm?$AAs?$AA_?$AAs?$AAi?$AAn?$AAg?$AAl?$AAe?$AAt?$AAo?$AAn@
  0003d	e8 00 00 00 00	 call	 __wassert
  00042	8b 0d 00 00 00
	00		 mov	 ecx, DWORD PTR ?ms_singleton@?$CSingleton@VCPythonNonPlayer@@@@0PAVCPythonNonPlayer@@A ; CSingleton<CPythonNonPlayer>::ms_singleton
  00048	83 c4 0c	 add	 esp, 12			; 0000000cH
$LN6@nonplayerG:
; File C:\Anka2Project\Anka2Project\Source\Binary\source\UserInterface\PythonNonPlayerModule.cpp

; 277  : 	return Py_BuildValue("i", rkNonPlayer.GetMonsterRaceFlag(race));

  0004b	ff 75 fc	 push	 DWORD PTR _race$[ebp]
  0004e	e8 00 00 00 00	 call	 ?GetMonsterRaceFlag@CPythonNonPlayer@@QAEKK@Z ; CPythonNonPlayer::GetMonsterRaceFlag
  00053	50		 push	 eax
  00054	68 00 00 00 00	 push	 OFFSET ??_C@_01KBJDNOO@i@
  00059	ff 15 00 00 00
	00		 call	 DWORD PTR __imp__Py_BuildValue
  0005f	83 c4 08	 add	 esp, 8

; 278  : }

  00062	8b e5		 mov	 esp, ebp
  00064	5d		 pop	 ebp
  00065	c3		 ret	 0
?nonplayerGetMonsterRaceFlag@@YAPAU_object@@PAU1@0@Z ENDP ; nonplayerGetMonsterRaceFlag
_TEXT	ENDS
; Function compile flags: /Ogtp
; File C:\Anka2Project\Anka2Project\Source\Binary\source\UserInterface\PythonNonPlayerModule.cpp
; File C:\Anka2Project\Anka2Project\Source\Binary\source\eterBase\Singleton.h
; File C:\Anka2Project\Anka2Project\Source\Binary\source\UserInterface\PythonNonPlayerModule.cpp
;	COMDAT ?nonplayerGetMonsterMaxHP@@YAPAU_object@@PAU1@0@Z
_TEXT	SEGMENT
_race$ = -4						; size = 4
_poSelf$ = 8						; size = 4
_poArgs$ = 12						; size = 4
?nonplayerGetMonsterMaxHP@@YAPAU_object@@PAU1@0@Z PROC	; nonplayerGetMonsterMaxHP, COMDAT

; 281  : {

  00000	55		 push	 ebp
  00001	8b ec		 mov	 ebp, esp
  00003	51		 push	 ecx

; 282  : 	int race;
; 283  : 	if (!PyTuple_GetInteger(poArgs, 0, &race))

  00004	8d 45 fc	 lea	 eax, DWORD PTR _race$[ebp]
  00007	50		 push	 eax
  00008	6a 00		 push	 0
  0000a	ff 75 0c	 push	 DWORD PTR _poArgs$[ebp]
  0000d	e8 00 00 00 00	 call	 ?PyTuple_GetInteger@@YA_NPAU_object@@HPAH@Z ; PyTuple_GetInteger
  00012	83 c4 0c	 add	 esp, 12			; 0000000cH
  00015	84 c0		 test	 al, al
  00017	75 0e		 jne	 SHORT $LN2@nonplayerG

; 284  : 		return Py_BuildException();

  00019	6a 00		 push	 0
  0001b	e8 00 00 00 00	 call	 ?Py_BuildException@@YAPAU_object@@PBDZZ ; Py_BuildException
  00020	83 c4 04	 add	 esp, 4

; 289  : }

  00023	8b e5		 mov	 esp, ebp
  00025	5d		 pop	 ebp
  00026	c3		 ret	 0
$LN2@nonplayerG:
; File C:\Anka2Project\Anka2Project\Source\Binary\source\eterBase\Singleton.h

; 26   : 		assert(ms_singleton);

  00027	8b 0d 00 00 00
	00		 mov	 ecx, DWORD PTR ?ms_singleton@?$CSingleton@VCPythonNonPlayer@@@@0PAVCPythonNonPlayer@@A ; CSingleton<CPythonNonPlayer>::ms_singleton
  0002d	85 c9		 test	 ecx, ecx
  0002f	75 1a		 jne	 SHORT $LN6@nonplayerG
  00031	6a 1a		 push	 26			; 0000001aH
  00033	68 00 00 00 00	 push	 OFFSET ??_C@_1IO@CAJLEEOI@?$AAC?$AA?3?$AA?2?$AAA?$AAn?$AAk?$AAa?$AA2?$AAP?$AAr?$AAo?$AAj?$AAe?$AAc?$AAt@
  00038	68 00 00 00 00	 push	 OFFSET ??_C@_1BK@FMEHPMFE@?$AAm?$AAs?$AA_?$AAs?$AAi?$AAn?$AAg?$AAl?$AAe?$AAt?$AAo?$AAn@
  0003d	e8 00 00 00 00	 call	 __wassert
  00042	8b 0d 00 00 00
	00		 mov	 ecx, DWORD PTR ?ms_singleton@?$CSingleton@VCPythonNonPlayer@@@@0PAVCPythonNonPlayer@@A ; CSingleton<CPythonNonPlayer>::ms_singleton
  00048	83 c4 0c	 add	 esp, 12			; 0000000cH
$LN6@nonplayerG:
; File C:\Anka2Project\Anka2Project\Source\Binary\source\UserInterface\PythonNonPlayerModule.cpp

; 288  : 	return Py_BuildValue("i", rkNonPlayer.GetMonsterMaxHP(race));

  0004b	ff 75 fc	 push	 DWORD PTR _race$[ebp]
  0004e	e8 00 00 00 00	 call	 ?GetMonsterMaxHP@CPythonNonPlayer@@QAEKK@Z ; CPythonNonPlayer::GetMonsterMaxHP
  00053	50		 push	 eax
  00054	68 00 00 00 00	 push	 OFFSET ??_C@_01KBJDNOO@i@
  00059	ff 15 00 00 00
	00		 call	 DWORD PTR __imp__Py_BuildValue
  0005f	83 c4 08	 add	 esp, 8

; 289  : }

  00062	8b e5		 mov	 esp, ebp
  00064	5d		 pop	 ebp
  00065	c3		 ret	 0
?nonplayerGetMonsterMaxHP@@YAPAU_object@@PAU1@0@Z ENDP	; nonplayerGetMonsterMaxHP
_TEXT	ENDS
; Function compile flags: /Ogtp
; File C:\Anka2Project\Anka2Project\Source\Binary\source\UserInterface\PythonNonPlayerModule.cpp
;	COMDAT ?initNonPlayer@@YAXXZ
_TEXT	SEGMENT
?initNonPlayer@@YAXXZ PROC				; initNonPlayer, COMDAT

; 293  : {

  00000	56		 push	 esi
  00001	57		 push	 edi

; 294  : 	static PyMethodDef s_methods[] =
; 295  : 	{
; 296  : 		{ "GetEventType",				nonplayerGetEventType,				METH_VARARGS },
; 297  : 		{ "GetEventTypeByVID",			nonplayerGetEventTypeByVID,			METH_VARARGS },
; 298  : 		{ "GetLevelByVID",				nonplayerGetLevelByVID,				METH_VARARGS },
; 299  : 		{ "GetGradeByVID",				nonplayerGetGradeByVID,				METH_VARARGS },
; 300  : 		{ "GetMonsterName",				nonplayerGetMonsterName,			METH_VARARGS },
; 301  : 
; 302  : #ifdef ENABLE_MOB_DROP_INFO
; 303  : 		{ "GetRaceNumByVID",			nonplayerGetRaceNumByVID,			METH_VARARGS },
; 304  : #endif
; 305  : 
; 306  : #ifdef ENABLE_MONSTER_TARGET_ELEMENT
; 307  : 		{ "MonsterHasRaceFlag",			nonplayerMonsterHasRaceFlag,		METH_VARARGS },
; 308  : #endif
; 309  : 
; 310  : #ifdef ENABLE_INGAME_WIKI_SYSTEM
; 311  : 		{ "GetMonsterPrice",			nonplayerGetMonsterPrice,			METH_VARARGS },
; 312  : 		{ "GetMobsByName",				nonPlayerGetMobsByName,				METH_VARARGS },
; 313  : 		{ "GetMonsterLevel",			nonplayerGetMonsterLevel,			METH_VARARGS },
; 314  : 		{ "GetMonsterRaceFlag",			nonplayerGetMonsterRaceFlag,		METH_VARARGS },
; 315  : 		{ "IsMonsterStone",				nonplayerIsMonsterStone,			METH_VARARGS },
; 316  : 		{ "GetMonsterDamage",			nonplayerGetMonsterDamage,			METH_VARARGS },
; 317  : 		{ "GetMonsterExp",				nonplayerGetMonsterExp,				METH_VARARGS },
; 318  : 		{ "GetMonsterDamageMultiply",	nonplayerGetMonsterDamageMultiply,	METH_VARARGS },
; 319  : 		{ "GetMonsterST",				nonplayerGetMonsterST,				METH_VARARGS },
; 320  : 		{ "GetMonsterDX",				nonplayerGetMonsterDX,				METH_VARARGS },
; 321  : 		{ "IsMonsterStone",				nonplayerIsMonsterStone,			METH_VARARGS },
; 322  : 		{ "GetMonsterResist",			nonplayerGetMonsterResist,			METH_VARARGS },
; 323  : 		{ "GetMonsterMaxHP",			nonplayerGetMonsterMaxHP,			METH_VARARGS },
; 324  : #endif
; 325  : 
; 326  : 		{ "LoadNonPlayerData",			nonplayerLoadNonPlayerData,			METH_VARARGS },
; 327  : 
; 328  : 		{ nullptr,							nullptr,								NULL		 },
; 329  : 	};
; 330  : 
; 331  : 	PyObject *poModule = Py_InitModule("nonplayer", s_methods);

  00002	68 f5 03 00 00	 push	 1013			; 000003f5H
  00007	6a 00		 push	 0
  00009	6a 00		 push	 0
  0000b	68 00 00 00 00	 push	 OFFSET ?s_methods@?1??initNonPlayer@@YAXXZ@4PAUPyMethodDef@@A
  00010	68 00 00 00 00	 push	 OFFSET ??_C@_09OHMOODOI@nonplayer@
  00015	ff 15 00 00 00
	00		 call	 DWORD PTR __imp__Py_InitModule4

; 332  : 
; 333  : 	PyModule_AddIntConstant(poModule, "ON_CLICK_EVENT_NONE", CPythonNonPlayer::ON_CLICK_EVENT_NONE);

  0001b	8b 35 00 00 00
	00		 mov	 esi, DWORD PTR __imp__PyModule_AddIntConstant
  00021	8b f8		 mov	 edi, eax
  00023	6a 00		 push	 0
  00025	68 00 00 00 00	 push	 OFFSET ??_C@_0BE@FCOIJPJO@ON_CLICK_EVENT_NONE@
  0002a	57		 push	 edi
  0002b	ff d6		 call	 esi

; 334  : 	PyModule_AddIntConstant(poModule, "ON_CLICK_EVENT_BATTLE", CPythonNonPlayer::ON_CLICK_EVENT_BATTLE);

  0002d	6a 01		 push	 1
  0002f	68 00 00 00 00	 push	 OFFSET ??_C@_0BG@EEKDAAJA@ON_CLICK_EVENT_BATTLE@
  00034	57		 push	 edi
  00035	ff d6		 call	 esi

; 335  : 	PyModule_AddIntConstant(poModule, "ON_CLICK_EVENT_SHOP", CPythonNonPlayer::ON_CLICK_EVENT_SHOP);

  00037	6a 02		 push	 2
  00039	68 00 00 00 00	 push	 OFFSET ??_C@_0BE@GBDIHIDH@ON_CLICK_EVENT_SHOP@
  0003e	57		 push	 edi
  0003f	ff d6		 call	 esi

; 336  : 	PyModule_AddIntConstant(poModule, "ON_CLICK_EVENT_TALK", CPythonNonPlayer::ON_CLICK_EVENT_TALK);

  00041	6a 03		 push	 3
  00043	68 00 00 00 00	 push	 OFFSET ??_C@_0BE@FGAJOGO@ON_CLICK_EVENT_TALK@
  00048	57		 push	 edi
  00049	ff d6		 call	 esi
  0004b	83 c4 44	 add	 esp, 68			; 00000044H

; 337  : 	PyModule_AddIntConstant(poModule, "ON_CLICK_EVENT_VEHICLE", CPythonNonPlayer::ON_CLICK_EVENT_VEHICLE);

  0004e	6a 04		 push	 4
  00050	68 00 00 00 00	 push	 OFFSET ??_C@_0BH@MKCNCKMM@ON_CLICK_EVENT_VEHICLE@
  00055	57		 push	 edi
  00056	ff d6		 call	 esi

; 338  : 
; 339  : 	PyModule_AddIntConstant(poModule, "PAWN", 0);

  00058	6a 00		 push	 0
  0005a	68 00 00 00 00	 push	 OFFSET ??_C@_04CFGPKCMP@PAWN@
  0005f	57		 push	 edi
  00060	ff d6		 call	 esi

; 340  : 	PyModule_AddIntConstant(poModule, "S_PAWN", 1);

  00062	6a 01		 push	 1
  00064	68 00 00 00 00	 push	 OFFSET ??_C@_06JBMEMDKE@S_PAWN@
  00069	57		 push	 edi
  0006a	ff d6		 call	 esi

; 341  : 	PyModule_AddIntConstant(poModule, "KNIGHT", 2);

  0006c	6a 02		 push	 2
  0006e	68 00 00 00 00	 push	 OFFSET ??_C@_06OCLDHEIK@KNIGHT@
  00073	57		 push	 edi
  00074	ff d6		 call	 esi

; 342  : 	PyModule_AddIntConstant(poModule, "S_KNIGHT", 3);

  00076	6a 03		 push	 3
  00078	68 00 00 00 00	 push	 OFFSET ??_C@_08FOAPCDID@S_KNIGHT@
  0007d	57		 push	 edi
  0007e	ff d6		 call	 esi

; 343  : 	PyModule_AddIntConstant(poModule, "BOSS", 4);

  00080	6a 04		 push	 4
  00082	68 00 00 00 00	 push	 OFFSET ??_C@_04CHPFNFNO@BOSS@
  00087	57		 push	 edi
  00088	ff d6		 call	 esi
  0008a	83 c4 48	 add	 esp, 72			; 00000048H

; 344  : 	PyModule_AddIntConstant(poModule, "KING", 5);

  0008d	6a 05		 push	 5
  0008f	68 00 00 00 00	 push	 OFFSET ??_C@_04DFNOAPAF@KING@
  00094	57		 push	 edi
  00095	ff d6		 call	 esi

; 345  : 
; 346  : #ifdef ENABLE_INGAME_WIKI_SYSTEM
; 347  : 	PyModule_AddIntConstant(poModule, "MOB_RESIST_SWORD", CPythonNonPlayer::MOB_RESIST_SWORD);

  00097	6a 00		 push	 0
  00099	68 00 00 00 00	 push	 OFFSET ??_C@_0BB@PPCGHBJB@MOB_RESIST_SWORD@
  0009e	57		 push	 edi
  0009f	ff d6		 call	 esi

; 348  : 	PyModule_AddIntConstant(poModule, "MOB_RESIST_TWOHAND", CPythonNonPlayer::MOB_RESIST_TWOHAND);

  000a1	6a 01		 push	 1
  000a3	68 00 00 00 00	 push	 OFFSET ??_C@_0BD@LGACFJBE@MOB_RESIST_TWOHAND@
  000a8	57		 push	 edi
  000a9	ff d6		 call	 esi

; 349  : 	PyModule_AddIntConstant(poModule, "MOB_RESIST_DAGGER", CPythonNonPlayer::MOB_RESIST_DAGGER);

  000ab	6a 02		 push	 2
  000ad	68 00 00 00 00	 push	 OFFSET ??_C@_0BC@COPJHPOI@MOB_RESIST_DAGGER@
  000b2	57		 push	 edi
  000b3	ff d6		 call	 esi

; 350  : 	PyModule_AddIntConstant(poModule, "MOB_RESIST_BELL", CPythonNonPlayer::MOB_RESIST_BELL);

  000b5	6a 03		 push	 3
  000b7	68 00 00 00 00	 push	 OFFSET ??_C@_0BA@CJDNMEPA@MOB_RESIST_BELL@
  000bc	57		 push	 edi
  000bd	ff d6		 call	 esi

; 351  : 	PyModule_AddIntConstant(poModule, "MOB_RESIST_FAN", CPythonNonPlayer::MOB_RESIST_FAN);

  000bf	6a 04		 push	 4
  000c1	68 00 00 00 00	 push	 OFFSET ??_C@_0P@CBDKDIML@MOB_RESIST_FAN@
  000c6	57		 push	 edi
  000c7	ff d6		 call	 esi
  000c9	83 c4 48	 add	 esp, 72			; 00000048H

; 352  : 	PyModule_AddIntConstant(poModule, "MOB_RESIST_BOW", CPythonNonPlayer::MOB_RESIST_BOW);

  000cc	6a 05		 push	 5
  000ce	68 00 00 00 00	 push	 OFFSET ??_C@_0P@DPMGCLIO@MOB_RESIST_BOW@
  000d3	57		 push	 edi
  000d4	ff d6		 call	 esi

; 353  : 	PyModule_AddIntConstant(poModule, "MOB_RESIST_FIRE", CPythonNonPlayer::MOB_RESIST_FIRE);

  000d6	6a 06		 push	 6
  000d8	68 00 00 00 00	 push	 OFFSET ??_C@_0BA@FBBBOILL@MOB_RESIST_FIRE@
  000dd	57		 push	 edi
  000de	ff d6		 call	 esi

; 354  : 	PyModule_AddIntConstant(poModule, "MOB_RESIST_ELECT", CPythonNonPlayer::MOB_RESIST_ELECT);

  000e0	6a 07		 push	 7
  000e2	68 00 00 00 00	 push	 OFFSET ??_C@_0BB@FACANPG@MOB_RESIST_ELECT@
  000e7	57		 push	 edi
  000e8	ff d6		 call	 esi

; 355  : 	PyModule_AddIntConstant(poModule, "MOB_RESIST_MAGIC", CPythonNonPlayer::MOB_RESIST_MAGIC);

  000ea	6a 08		 push	 8
  000ec	68 00 00 00 00	 push	 OFFSET ??_C@_0BB@LDNMICOB@MOB_RESIST_MAGIC@
  000f1	57		 push	 edi
  000f2	ff d6		 call	 esi

; 356  : 	PyModule_AddIntConstant(poModule, "MOB_RESIST_WIND", CPythonNonPlayer::MOB_RESIST_WIND);

  000f4	6a 09		 push	 9
  000f6	68 00 00 00 00	 push	 OFFSET ??_C@_0BA@LGDNNM@MOB_RESIST_WIND@
  000fb	57		 push	 edi
  000fc	ff d6		 call	 esi

; 357  : 	PyModule_AddIntConstant(poModule, "MOB_RESIST_POISON", CPythonNonPlayer::MOB_RESIST_POISON);

  000fe	6a 0a		 push	 10			; 0000000aH
  00100	68 00 00 00 00	 push	 OFFSET ??_C@_0BC@MMJAAGH@MOB_RESIST_POISON@
  00105	57		 push	 edi
  00106	ff d6		 call	 esi
  00108	83 c4 48	 add	 esp, 72			; 00000048H

; 358  : 	PyModule_AddIntConstant(poModule, "MOB_RESIST_MAX_NUM", CPythonNonPlayer::MOB_RESISTS_MAX_NUM);

  0010b	6a 0b		 push	 11			; 0000000bH
  0010d	68 00 00 00 00	 push	 OFFSET ??_C@_0BD@IEDJEENP@MOB_RESIST_MAX_NUM@
  00112	57		 push	 edi
  00113	ff d6		 call	 esi
  00115	83 c4 0c	 add	 esp, 12			; 0000000cH
  00118	5f		 pop	 edi
  00119	5e		 pop	 esi

; 359  : #endif
; 360  : }

  0011a	c3		 ret	 0
?initNonPlayer@@YAXXZ ENDP				; initNonPlayer
_TEXT	ENDS
END
