; Listing generated by Microsoft (R) Optimizing Compiler Version 19.44.35219.0 

	TITLE	c:\anka2project\anka2project\source\binary\vs_files\userinterface\release\pythonplayerinputkeyboard.obj
	.686P
	.XMM
	include listing.inc
	.model	flat

INCLUDELIB OLDNAMES

PUBLIC	??_C@_0DI@KDGNBLAF@CPythonPlayer?3?3NEW_SetMultiKeyS@ ; `string'
;	COMDAT ??_C@_0DI@KDGNBLAF@CPythonPlayer?3?3NEW_SetMultiKeyS@
CONST	SEGMENT
??_C@_0DI@KDGNBLAF@CPythonPlayer?3?3NEW_SetMultiKeyS@ DB 'CPythonPlayer::'
	DB	'NEW_SetMultiKeyState - NEW_Move -> ERROR', 00H ; `string'
PUBLIC	?NEW_SetMultiDirKeyState@CPythonPlayer@@QAEX_N000@Z ; CPythonPlayer::NEW_SetMultiDirKeyState
PUBLIC	?NEW_SetSingleDirKeyState@CPythonPlayer@@QAEXH_N@Z ; CPythonPlayer::NEW_SetSingleDirKeyState
PUBLIC	?NEW_SetSingleDIKKeyState@CPythonPlayer@@QAEXH_N@Z ; CPythonPlayer::NEW_SetSingleDIKKeyState
PUBLIC	?SetAttackKeyState@CPythonPlayer@@QAEX_N@Z	; CPythonPlayer::SetAttackKeyState
; Function compile flags: /Ogtp
; File C:\Anka2Project\Anka2Project\Source\Binary\source\UserInterface\PythonPlayerInputKeyboard.cpp
;	COMDAT ?SetAttackKeyState@CPythonPlayer@@QAEX_N@Z
_TEXT	SEGMENT
_isPress$ = 8						; size = 1
?SetAttackKeyState@CPythonPlayer@@QAEX_N@Z PROC		; CPythonPlayer::SetAttackKeyState, COMDAT
; _this$ = ecx

; 7    : {

  00000	55		 push	 ebp
  00001	8b ec		 mov	 ebp, esp
  00003	51		 push	 ecx
  00004	53		 push	 ebx

; 8    : 	if (isPress)

  00005	8a 5d 08	 mov	 bl, BYTE PTR _isPress$[ebp]
  00008	56		 push	 esi
  00009	8b f1		 mov	 esi, ecx
  0000b	84 db		 test	 bl, bl
  0000d	74 29		 je	 SHORT $LN4@SetAttackK

; 9    : 	{
; 10   : 		CInstanceBase* pkInstMain = NEW_GetMainActorPtr();

  0000f	8b 46 04	 mov	 eax, DWORD PTR [esi+4]
  00012	8d 4e 04	 lea	 ecx, DWORD PTR [esi+4]
  00015	ff 90 8c 00 00
	00		 call	 DWORD PTR [eax+140]

; 11   : 		if (pkInstMain)

  0001b	85 c0		 test	 eax, eax
  0001d	74 19		 je	 SHORT $LN4@SetAttackK

; 12   : 		if (pkInstMain->IsFishingMode())

  0001f	8b c8		 mov	 ecx, eax
  00021	e8 00 00 00 00	 call	 ?IsFishingMode@CInstanceBase@@QAEHXZ ; CInstanceBase::IsFishingMode
  00026	85 c0		 test	 eax, eax
  00028	74 0e		 je	 SHORT $LN4@SetAttackK

; 13   : 		{
; 14   : 			NEW_Fishing();

  0002a	8b ce		 mov	 ecx, esi
  0002c	e8 00 00 00 00	 call	 ?NEW_Fishing@CPythonPlayer@@QAEXXZ ; CPythonPlayer::NEW_Fishing

; 20   : }

  00031	5e		 pop	 esi
  00032	5b		 pop	 ebx
  00033	59		 pop	 ecx
  00034	5d		 pop	 ebp
  00035	c2 04 00	 ret	 4
$LN4@SetAttackK:

; 15   : 			return;
; 16   : 		}
; 17   : 	}
; 18   : 
; 19   : 	m_isAtkKey=isPress;

  00038	88 5e 64	 mov	 BYTE PTR [esi+100], bl

; 20   : }

  0003b	5e		 pop	 esi
  0003c	5b		 pop	 ebx
  0003d	59		 pop	 ecx
  0003e	5d		 pop	 ebp
  0003f	c2 04 00	 ret	 4
?SetAttackKeyState@CPythonPlayer@@QAEX_N@Z ENDP		; CPythonPlayer::SetAttackKeyState
_TEXT	ENDS
END
