; Listing generated by Microsoft (R) Optimizing Compiler Version 19.44.35219.0 

	TITLE	c:\anka2project\anka2project\source\binary\vs_files\userinterface\release\pythoncuberenewal.obj
	.686P
	.XMM
	include listing.inc
	.model	flat

INCLUDELIB OLDNAMES

PUBLIC	??_C@_0BM@PJBOMOEI@BINARY_CUBE_RENEWAL_LOADING@	; `string'
PUBLIC	??_C@_0BC@JIAGBEBB@iibiiiiiiiiiiiiis@		; `string'
PUBLIC	??_C@_0L@CIEKMJJ@CountDates@			; `string'
PUBLIC	??_C@_08LNOBNNMK@GetDates@			; `string'
PUBLIC	??_C@_0BG@NHMBIFPH@SetCubeRenewalHandler@	; `string'
PUBLIC	??_C@_0BE@OEAHAONE@CubeRenewalMakeItem@		; `string'
PUBLIC	??_C@_0BB@KPJNMELL@CubeRenewalClose@		; `string'
PUBLIC	??_C@_0N@EPKEOJEC@cube_renewal@			; `string'
PUBLIC	??_R2CPythonCubeRenewal@@8			; CPythonCubeRenewal::`RTTI Base Class Array'
PUBLIC	??_R2?$CSingleton@VCPythonCubeRenewal@@@@8	; CSingleton<CPythonCubeRenewal>::`RTTI Base Class Array'
PUBLIC	??_R1A@?0A@EA@CPythonCubeRenewal@@8		; CPythonCubeRenewal::`RTTI Base Class Descriptor at (0,-1,0,64)'
PUBLIC	??_R1A@?0A@EA@?$CSingleton@VCPythonCubeRenewal@@@@8 ; CSingleton<CPythonCubeRenewal>::`RTTI Base Class Descriptor at (0,-1,0,64)'
PUBLIC	??_R3?$CSingleton@VCPythonCubeRenewal@@@@8	; CSingleton<CPythonCubeRenewal>::`RTTI Class Hierarchy Descriptor'
PUBLIC	??_R0?AV?$CSingleton@VCPythonCubeRenewal@@@@@8	; CSingleton<CPythonCubeRenewal> `RTTI Type Descriptor'
PUBLIC	??_R3CPythonCubeRenewal@@8			; CPythonCubeRenewal::`RTTI Class Hierarchy Descriptor'
PUBLIC	??_R0?AVCPythonCubeRenewal@@@8			; CPythonCubeRenewal `RTTI Type Descriptor'
PUBLIC	??_R4?$CSingleton@VCPythonCubeRenewal@@@@6B@	; CSingleton<CPythonCubeRenewal>::`RTTI Complete Object Locator'
PUBLIC	??_R4CPythonCubeRenewal@@6B@			; CPythonCubeRenewal::`RTTI Complete Object Locator'
PUBLIC	??_7?$CSingleton@VCPythonCubeRenewal@@@@6B@	; CSingleton<CPythonCubeRenewal>::`vftable'
PUBLIC	?ms_singleton@?$CSingleton@VCPythonCubeRenewal@@@@0PAVCPythonCubeRenewal@@A ; CSingleton<CPythonCubeRenewal>::ms_singleton
PUBLIC	??_7CPythonCubeRenewal@@6B@			; CPythonCubeRenewal::`vftable'
;	COMDAT ?ms_singleton@?$CSingleton@VCPythonCubeRenewal@@@@0PAVCPythonCubeRenewal@@A
_BSS	SEGMENT
?ms_singleton@?$CSingleton@VCPythonCubeRenewal@@@@0PAVCPythonCubeRenewal@@A DD 01H DUP (?) ; CSingleton<CPythonCubeRenewal>::ms_singleton
_BSS	ENDS
;	COMDAT ??_7CPythonCubeRenewal@@6B@
CONST	SEGMENT
??_7CPythonCubeRenewal@@6B@ DD FLAT:??_R4CPythonCubeRenewal@@6B@ ; CPythonCubeRenewal::`vftable'
	DD	FLAT:??_ECPythonCubeRenewal@@UAEPAXI@Z
CONST	ENDS
;	COMDAT ?s_methods@?1??intcuberenewal@@YAXXZ@4PAUPyMethodDef@@A
_DATA	SEGMENT
?s_methods@?1??intcuberenewal@@YAXXZ@4PAUPyMethodDef@@A DD FLAT:??_C@_0L@CIEKMJJ@CountDates@ ; `intcuberenewal'::`2'::s_methods
	DD	FLAT:?GetCountCubeRenewalList@@YAPAU_object@@PAU1@0@Z
	DD	01H
	ORG $+4
	DD	FLAT:??_C@_08LNOBNNMK@GetDates@
	DD	FLAT:?GetCubeRenewalDates@@YAPAU_object@@PAU1@0@Z
	DD	01H
	ORG $+4
	DD	FLAT:??_C@_0BG@NHMBIFPH@SetCubeRenewalHandler@
	DD	FLAT:?SetCubeRenewalHandler@@YAPAU_object@@PAU1@0@Z
	DD	01H
	ORG $+4
	DD	FLAT:??_C@_0BE@OEAHAONE@CubeRenewalMakeItem@
	DD	FLAT:?CubeRenewalMakeItem@@YAPAU_object@@PAU1@0@Z
	DD	01H
	ORG $+4
	DD	FLAT:??_C@_0BB@KPJNMELL@CubeRenewalClose@
	DD	FLAT:?CubeRenewalClose@@YAPAU_object@@PAU1@0@Z
	DD	01H
	ORG $+4
	DD	00H
	DD	00H
	ORG $+8
_DATA	ENDS
;	COMDAT ??_7?$CSingleton@VCPythonCubeRenewal@@@@6B@
CONST	SEGMENT
??_7?$CSingleton@VCPythonCubeRenewal@@@@6B@ DD FLAT:??_R4?$CSingleton@VCPythonCubeRenewal@@@@6B@ ; CSingleton<CPythonCubeRenewal>::`vftable'
	DD	FLAT:??_E?$CSingleton@VCPythonCubeRenewal@@@@UAEPAXI@Z
CONST	ENDS
;	COMDAT ??_R4CPythonCubeRenewal@@6B@
rdata$r	SEGMENT
??_R4CPythonCubeRenewal@@6B@ DD 00H			; CPythonCubeRenewal::`RTTI Complete Object Locator'
	DD	00H
	DD	00H
	DD	FLAT:??_R0?AVCPythonCubeRenewal@@@8
	DD	FLAT:??_R3CPythonCubeRenewal@@8
rdata$r	ENDS
;	COMDAT ??_R4?$CSingleton@VCPythonCubeRenewal@@@@6B@
rdata$r	SEGMENT
??_R4?$CSingleton@VCPythonCubeRenewal@@@@6B@ DD 00H	; CSingleton<CPythonCubeRenewal>::`RTTI Complete Object Locator'
	DD	00H
	DD	00H
	DD	FLAT:??_R0?AV?$CSingleton@VCPythonCubeRenewal@@@@@8
	DD	FLAT:??_R3?$CSingleton@VCPythonCubeRenewal@@@@8
rdata$r	ENDS
;	COMDAT ??_R0?AVCPythonCubeRenewal@@@8
data$rs	SEGMENT
??_R0?AVCPythonCubeRenewal@@@8 DD FLAT:??_7type_info@@6B@ ; CPythonCubeRenewal `RTTI Type Descriptor'
	DD	00H
	DB	'.?AVCPythonCubeRenewal@@', 00H
data$rs	ENDS
;	COMDAT ??_R3CPythonCubeRenewal@@8
rdata$r	SEGMENT
??_R3CPythonCubeRenewal@@8 DD 00H			; CPythonCubeRenewal::`RTTI Class Hierarchy Descriptor'
	DD	00H
	DD	02H
	DD	FLAT:??_R2CPythonCubeRenewal@@8
rdata$r	ENDS
;	COMDAT ??_R0?AV?$CSingleton@VCPythonCubeRenewal@@@@@8
data$rs	SEGMENT
??_R0?AV?$CSingleton@VCPythonCubeRenewal@@@@@8 DD FLAT:??_7type_info@@6B@ ; CSingleton<CPythonCubeRenewal> `RTTI Type Descriptor'
	DD	00H
	DB	'.?AV?$CSingleton@VCPythonCubeRenewal@@@@', 00H
data$rs	ENDS
;	COMDAT ??_R3?$CSingleton@VCPythonCubeRenewal@@@@8
rdata$r	SEGMENT
??_R3?$CSingleton@VCPythonCubeRenewal@@@@8 DD 00H	; CSingleton<CPythonCubeRenewal>::`RTTI Class Hierarchy Descriptor'
	DD	00H
	DD	01H
	DD	FLAT:??_R2?$CSingleton@VCPythonCubeRenewal@@@@8
rdata$r	ENDS
;	COMDAT ??_R1A@?0A@EA@?$CSingleton@VCPythonCubeRenewal@@@@8
rdata$r	SEGMENT
??_R1A@?0A@EA@?$CSingleton@VCPythonCubeRenewal@@@@8 DD FLAT:??_R0?AV?$CSingleton@VCPythonCubeRenewal@@@@@8 ; CSingleton<CPythonCubeRenewal>::`RTTI Base Class Descriptor at (0,-1,0,64)'
	DD	00H
	DD	00H
	DD	0ffffffffH
	DD	00H
	DD	040H
	DD	FLAT:??_R3?$CSingleton@VCPythonCubeRenewal@@@@8
rdata$r	ENDS
;	COMDAT ??_R1A@?0A@EA@CPythonCubeRenewal@@8
rdata$r	SEGMENT
??_R1A@?0A@EA@CPythonCubeRenewal@@8 DD FLAT:??_R0?AVCPythonCubeRenewal@@@8 ; CPythonCubeRenewal::`RTTI Base Class Descriptor at (0,-1,0,64)'
	DD	01H
	DD	00H
	DD	0ffffffffH
	DD	00H
	DD	040H
	DD	FLAT:??_R3CPythonCubeRenewal@@8
rdata$r	ENDS
;	COMDAT ??_R2?$CSingleton@VCPythonCubeRenewal@@@@8
rdata$r	SEGMENT
??_R2?$CSingleton@VCPythonCubeRenewal@@@@8 DD FLAT:??_R1A@?0A@EA@?$CSingleton@VCPythonCubeRenewal@@@@8 ; CSingleton<CPythonCubeRenewal>::`RTTI Base Class Array'
rdata$r	ENDS
;	COMDAT ??_R2CPythonCubeRenewal@@8
rdata$r	SEGMENT
??_R2CPythonCubeRenewal@@8 DD FLAT:??_R1A@?0A@EA@CPythonCubeRenewal@@8 ; CPythonCubeRenewal::`RTTI Base Class Array'
	DD	FLAT:??_R1A@?0A@EA@?$CSingleton@VCPythonCubeRenewal@@@@8
rdata$r	ENDS
;	COMDAT ??_C@_0N@EPKEOJEC@cube_renewal@
CONST	SEGMENT
??_C@_0N@EPKEOJEC@cube_renewal@ DB 'cube_renewal', 00H	; `string'
CONST	ENDS
;	COMDAT ??_C@_0BB@KPJNMELL@CubeRenewalClose@
CONST	SEGMENT
??_C@_0BB@KPJNMELL@CubeRenewalClose@ DB 'CubeRenewalClose', 00H ; `string'
CONST	ENDS
;	COMDAT ??_C@_0BE@OEAHAONE@CubeRenewalMakeItem@
CONST	SEGMENT
??_C@_0BE@OEAHAONE@CubeRenewalMakeItem@ DB 'CubeRenewalMakeItem', 00H ; `string'
CONST	ENDS
;	COMDAT ??_C@_0BG@NHMBIFPH@SetCubeRenewalHandler@
CONST	SEGMENT
??_C@_0BG@NHMBIFPH@SetCubeRenewalHandler@ DB 'SetCubeRenewalHandler', 00H ; `string'
CONST	ENDS
;	COMDAT ??_C@_08LNOBNNMK@GetDates@
CONST	SEGMENT
??_C@_08LNOBNNMK@GetDates@ DB 'GetDates', 00H		; `string'
CONST	ENDS
;	COMDAT ??_C@_0L@CIEKMJJ@CountDates@
CONST	SEGMENT
??_C@_0L@CIEKMJJ@CountDates@ DB 'CountDates', 00H	; `string'
CONST	ENDS
;	COMDAT ??_C@_0BC@JIAGBEBB@iibiiiiiiiiiiiiis@
CONST	SEGMENT
??_C@_0BC@JIAGBEBB@iibiiiiiiiiiiiiis@ DB 'iibiiiiiiiiiiiiis', 00H ; `string'
CONST	ENDS
;	COMDAT ??_C@_0BM@PJBOMOEI@BINARY_CUBE_RENEWAL_LOADING@
CONST	SEGMENT
??_C@_0BM@PJBOMOEI@BINARY_CUBE_RENEWAL_LOADING@ DB 'BINARY_CUBE_RENEWAL_L'
	DB	'OADING', 00H				; `string'
PUBLIC	??$construct_at@Udates_cube_renewal@@U1@@std@@YAPAUdates_cube_renewal@@QAU1@$$QAU1@@Z ; std::construct_at<dates_cube_renewal,dates_cube_renewal>
PUBLIC	?_Get_first@?$_Compressed_pair@V?$allocator@Udates_cube_renewal@@@std@@V?$_Vector_val@U?$_Simple_types@Udates_cube_renewal@@@std@@@2@$00@std@@QBEABV?$allocator@Udates_cube_renewal@@@2@XZ ; std::_Compressed_pair<std::allocator<dates_cube_renewal>,std::_Vector_val<std::_Simple_types<dates_cube_renewal> >,1>::_Get_first
PUBLIC	??$_Get_size_of_n@$0KG@@std@@YAII@Z		; std::_Get_size_of_n<166>
PUBLIC	??$construct@Udates_cube_renewal@@U1@@?$_Default_allocator_traits@V?$allocator@Udates_cube_renewal@@@std@@@std@@SAXAAV?$allocator@Udates_cube_renewal@@@1@QAUdates_cube_renewal@@$$QAU3@@Z ; std::_Default_allocator_traits<std::allocator<dates_cube_renewal> >::construct<dates_cube_renewal,dates_cube_renewal>
PUBLIC	??$forward@Udates_cube_renewal@@@std@@YA$$QAUdates_cube_renewal@@AAU1@@Z ; std::forward<dates_cube_renewal>
PUBLIC	??$_Copy_memmove_tail@PAUdates_cube_renewal@@@std@@YAPAUdates_cube_renewal@@QBDQAU1@II@Z ; std::_Copy_memmove_tail<dates_cube_renewal *>
PUBLIC	??$move@AAPAUdates_cube_renewal@@@std@@YA$$QAPAUdates_cube_renewal@@AAPAU1@@Z ; std::move<dates_cube_renewal * &>
PUBLIC	??$to_address@Udates_cube_renewal@@@std@@YAPAUdates_cube_renewal@@QAU1@@Z ; std::to_address<dates_cube_renewal>
PUBLIC	?allocate@?$allocator@Udates_cube_renewal@@@std@@QAEPAUdates_cube_renewal@@I@Z ; std::allocator<dates_cube_renewal>::allocate
PUBLIC	?capacity@?$vector@Udates_cube_renewal@@V?$allocator@Udates_cube_renewal@@@std@@@std@@QBEIXZ ; std::vector<dates_cube_renewal,std::allocator<dates_cube_renewal> >::capacity
PUBLIC	?_Getal@?$vector@Udates_cube_renewal@@V?$allocator@Udates_cube_renewal@@@std@@@std@@ABEABV?$allocator@Udates_cube_renewal@@@2@XZ ; std::vector<dates_cube_renewal,std::allocator<dates_cube_renewal> >::_Getal
PUBLIC	?max_size@?$_Default_allocator_traits@V?$allocator@Udates_cube_renewal@@@std@@@std@@SAIABV?$allocator@Udates_cube_renewal@@@2@@Z ; std::_Default_allocator_traits<std::allocator<dates_cube_renewal> >::max_size
PUBLIC	??0?$_Uninitialized_backout_al@V?$allocator@Udates_cube_renewal@@@std@@@std@@QAE@PAUdates_cube_renewal@@AAV?$allocator@Udates_cube_renewal@@@1@@Z ; std::_Uninitialized_backout_al<std::allocator<dates_cube_renewal> >::_Uninitialized_backout_al<std::allocator<dates_cube_renewal> >
PUBLIC	??1?$_Uninitialized_backout_al@V?$allocator@Udates_cube_renewal@@@std@@@std@@QAE@XZ ; std::_Uninitialized_backout_al<std::allocator<dates_cube_renewal> >::~_Uninitialized_backout_al<std::allocator<dates_cube_renewal> >
PUBLIC	?_Release@?$_Uninitialized_backout_al@V?$allocator@Udates_cube_renewal@@@std@@@std@@QAEPAUdates_cube_renewal@@XZ ; std::_Uninitialized_backout_al<std::allocator<dates_cube_renewal> >::_Release
PUBLIC	??$_Emplace_back@Udates_cube_renewal@@@?$_Uninitialized_backout_al@V?$allocator@Udates_cube_renewal@@@std@@@std@@QAEX$$QAUdates_cube_renewal@@@Z ; std::_Uninitialized_backout_al<std::allocator<dates_cube_renewal> >::_Emplace_back<dates_cube_renewal>
PUBLIC	??$_To_address@PAUdates_cube_renewal@@@std@@YA?A_PABQAUdates_cube_renewal@@@Z ; std::_To_address<dates_cube_renewal *>
PUBLIC	??$_Copy_memmove@PAUdates_cube_renewal@@PAU1@@std@@YAPAUdates_cube_renewal@@PAU1@00@Z ; std::_Copy_memmove<dates_cube_renewal *,dates_cube_renewal *>
PUBLIC	??$move@AAUdates_cube_renewal@@@std@@YA$$QAUdates_cube_renewal@@AAU1@@Z ; std::move<dates_cube_renewal &>
PUBLIC	??$construct_at@Udates_cube_renewal@@ABU1@@std@@YAPAUdates_cube_renewal@@QAU1@ABU1@@Z ; std::construct_at<dates_cube_renewal,dates_cube_renewal const &>
PUBLIC	??$addressof@Udates_cube_renewal@@@std@@YAPAUdates_cube_renewal@@AAU1@@Z ; std::addressof<dates_cube_renewal>
PUBLIC	?max_size@?$vector@Udates_cube_renewal@@V?$allocator@Udates_cube_renewal@@@std@@@std@@QBEIXZ ; std::vector<dates_cube_renewal,std::allocator<dates_cube_renewal> >::max_size
PUBLIC	?_Calculate_growth@?$vector@Udates_cube_renewal@@V?$allocator@Udates_cube_renewal@@@std@@@std@@ABEII@Z ; std::vector<dates_cube_renewal,std::allocator<dates_cube_renewal> >::_Calculate_growth
PUBLIC	?_Change_array@?$vector@Udates_cube_renewal@@V?$allocator@Udates_cube_renewal@@@std@@@std@@AAEXQAUdates_cube_renewal@@II@Z ; std::vector<dates_cube_renewal,std::allocator<dates_cube_renewal> >::_Change_array
PUBLIC	?_Xlength@?$vector@Udates_cube_renewal@@V?$allocator@Udates_cube_renewal@@@std@@@std@@CAXXZ ; std::vector<dates_cube_renewal,std::allocator<dates_cube_renewal> >::_Xlength
PUBLIC	?_Orphan_range@?$vector@Udates_cube_renewal@@V?$allocator@Udates_cube_renewal@@@std@@@std@@ABEXPAUdates_cube_renewal@@0@Z ; std::vector<dates_cube_renewal,std::allocator<dates_cube_renewal> >::_Orphan_range
PUBLIC	??1_Reallocation_guard@?$vector@Udates_cube_renewal@@V?$allocator@Udates_cube_renewal@@@std@@@std@@QAE@XZ ; std::vector<dates_cube_renewal,std::allocator<dates_cube_renewal> >::_Reallocation_guard::~_Reallocation_guard
PUBLIC	??$_Uninitialized_move@PAUdates_cube_renewal@@V?$allocator@Udates_cube_renewal@@@std@@@std@@YAPAUdates_cube_renewal@@QAU1@0PAU1@AAV?$allocator@Udates_cube_renewal@@@0@@Z ; std::_Uninitialized_move<dates_cube_renewal *,std::allocator<dates_cube_renewal> >
PUBLIC	??$_Get_unwrapped@ABQAUdates_cube_renewal@@@std@@YA?A_TABQAUdates_cube_renewal@@@Z ; std::_Get_unwrapped<dates_cube_renewal * const &>
PUBLIC	??$construct@Udates_cube_renewal@@ABU1@@?$_Default_allocator_traits@V?$allocator@Udates_cube_renewal@@@std@@@std@@SAXAAV?$allocator@Udates_cube_renewal@@@1@QAUdates_cube_renewal@@ABU3@@Z ; std::_Default_allocator_traits<std::allocator<dates_cube_renewal> >::construct<dates_cube_renewal,dates_cube_renewal const &>
PUBLIC	??$_Unfancy@Udates_cube_renewal@@@std@@YAPAUdates_cube_renewal@@PAU1@@Z ; std::_Unfancy<dates_cube_renewal>
PUBLIC	??$_Allocate_at_least_helper@V?$allocator@Udates_cube_renewal@@@std@@@std@@YAPAUdates_cube_renewal@@AAV?$allocator@Udates_cube_renewal@@@0@AAI@Z ; std::_Allocate_at_least_helper<std::allocator<dates_cube_renewal> >
PUBLIC	??$_Construct_in_place@Udates_cube_renewal@@ABU1@@std@@YAXAAUdates_cube_renewal@@ABU1@@Z ; std::_Construct_in_place<dates_cube_renewal,dates_cube_renewal const &>
PUBLIC	??0?$allocator@Udates_cube_renewal@@@std@@QAE@XZ ; std::allocator<dates_cube_renewal>::allocator<dates_cube_renewal>
PUBLIC	?deallocate@?$allocator@Udates_cube_renewal@@@std@@QAEXQAUdates_cube_renewal@@I@Z ; std::allocator<dates_cube_renewal>::deallocate
PUBLIC	??0?$_Vector_val@U?$_Simple_types@Udates_cube_renewal@@@std@@@std@@QAE@XZ ; std::_Vector_val<std::_Simple_types<dates_cube_renewal> >::_Vector_val<std::_Simple_types<dates_cube_renewal> >
PUBLIC	?_Get_first@?$_Compressed_pair@V?$allocator@Udates_cube_renewal@@@std@@V?$_Vector_val@U?$_Simple_types@Udates_cube_renewal@@@std@@@2@$00@std@@QAEAAV?$allocator@Udates_cube_renewal@@@2@XZ ; std::_Compressed_pair<std::allocator<dates_cube_renewal>,std::_Vector_val<std::_Simple_types<dates_cube_renewal> >,1>::_Get_first
PUBLIC	??$_Emplace_reallocate@ABUdates_cube_renewal@@@?$vector@Udates_cube_renewal@@V?$allocator@Udates_cube_renewal@@@std@@@std@@AAEPAUdates_cube_renewal@@QAU2@ABU2@@Z ; std::vector<dates_cube_renewal,std::allocator<dates_cube_renewal> >::_Emplace_reallocate<dates_cube_renewal const &>
PUBLIC	??$_Emplace_back_with_unused_capacity@ABUdates_cube_renewal@@@?$vector@Udates_cube_renewal@@V?$allocator@Udates_cube_renewal@@@std@@@std@@AAEAAUdates_cube_renewal@@ABU2@@Z ; std::vector<dates_cube_renewal,std::allocator<dates_cube_renewal> >::_Emplace_back_with_unused_capacity<dates_cube_renewal const &>
PUBLIC	??$forward@ABUdates_cube_renewal@@@std@@YAABUdates_cube_renewal@@ABU1@@Z ; std::forward<dates_cube_renewal const &>
PUBLIC	?_Tidy@?$vector@Udates_cube_renewal@@V?$allocator@Udates_cube_renewal@@@std@@@std@@AAEXXZ ; std::vector<dates_cube_renewal,std::allocator<dates_cube_renewal> >::_Tidy
PUBLIC	?_Getal@?$vector@Udates_cube_renewal@@V?$allocator@Udates_cube_renewal@@@std@@@std@@AAEAAV?$allocator@Udates_cube_renewal@@@2@XZ ; std::vector<dates_cube_renewal,std::allocator<dates_cube_renewal> >::_Getal
PUBLIC	??$?0$$V@?$_Compressed_pair@V?$allocator@Udates_cube_renewal@@@std@@V?$_Vector_val@U?$_Simple_types@Udates_cube_renewal@@@std@@@2@$00@std@@QAE@U_Zero_then_variadic_args_t@1@@Z ; std::_Compressed_pair<std::allocator<dates_cube_renewal>,std::_Vector_val<std::_Simple_types<dates_cube_renewal> >,1>::_Compressed_pair<std::allocator<dates_cube_renewal>,std::_Vector_val<std::_Simple_types<dates_cube_renewal> >,1><>
PUBLIC	??$_Emplace_one_at_back@ABUdates_cube_renewal@@@?$vector@Udates_cube_renewal@@V?$allocator@Udates_cube_renewal@@@std@@@std@@AAEAAUdates_cube_renewal@@ABU2@@Z ; std::vector<dates_cube_renewal,std::allocator<dates_cube_renewal> >::_Emplace_one_at_back<dates_cube_renewal const &>
PUBLIC	??$_Destroy_range@V?$allocator@Udates_cube_renewal@@@std@@@std@@YAXPAUdates_cube_renewal@@QAU1@AAV?$allocator@Udates_cube_renewal@@@0@@Z ; std::_Destroy_range<std::allocator<dates_cube_renewal> >
PUBLIC	??_G?$CSingleton@VCPythonCubeRenewal@@@@UAEPAXI@Z ; CSingleton<CPythonCubeRenewal>::`scalar deleting destructor'
PUBLIC	??0?$CSingleton@VCPythonCubeRenewal@@@@QAE@XZ	; CSingleton<CPythonCubeRenewal>::CSingleton<CPythonCubeRenewal>
PUBLIC	??1?$CSingleton@VCPythonCubeRenewal@@@@UAE@XZ	; CSingleton<CPythonCubeRenewal>::~CSingleton<CPythonCubeRenewal>
PUBLIC	?Instance@?$CSingleton@VCPythonCubeRenewal@@@@SAAAVCPythonCubeRenewal@@XZ ; CSingleton<CPythonCubeRenewal>::Instance
PUBLIC	??0?$vector@Udates_cube_renewal@@V?$allocator@Udates_cube_renewal@@@std@@@std@@QAE@XZ ; std::vector<dates_cube_renewal,std::allocator<dates_cube_renewal> >::vector<dates_cube_renewal,std::allocator<dates_cube_renewal> >
PUBLIC	??1?$vector@Udates_cube_renewal@@V?$allocator@Udates_cube_renewal@@@std@@@std@@QAE@XZ ; std::vector<dates_cube_renewal,std::allocator<dates_cube_renewal> >::~vector<dates_cube_renewal,std::allocator<dates_cube_renewal> >
PUBLIC	?push_back@?$vector@Udates_cube_renewal@@V?$allocator@Udates_cube_renewal@@@std@@@std@@QAEXABUdates_cube_renewal@@@Z ; std::vector<dates_cube_renewal,std::allocator<dates_cube_renewal> >::push_back
PUBLIC	?clear@?$vector@Udates_cube_renewal@@V?$allocator@Udates_cube_renewal@@@std@@@std@@QAEXXZ ; std::vector<dates_cube_renewal,std::allocator<dates_cube_renewal> >::clear
PUBLIC	?size@?$vector@Udates_cube_renewal@@V?$allocator@Udates_cube_renewal@@@std@@@std@@QBEIXZ ; std::vector<dates_cube_renewal,std::allocator<dates_cube_renewal> >::size
PUBLIC	??A?$vector@Udates_cube_renewal@@V?$allocator@Udates_cube_renewal@@@std@@@std@@QBEABUdates_cube_renewal@@I@Z ; std::vector<dates_cube_renewal,std::allocator<dates_cube_renewal> >::operator[]
PUBLIC	?intcuberenewal@@YAXXZ				; intcuberenewal
PUBLIC	?CubeRenewalClose@@YAPAU_object@@PAU1@0@Z	; CubeRenewalClose
PUBLIC	?CubeRenewalMakeItem@@YAPAU_object@@PAU1@0@Z	; CubeRenewalMakeItem
PUBLIC	?SetCubeRenewalHandler@@YAPAU_object@@PAU1@0@Z	; SetCubeRenewalHandler
PUBLIC	?GetCubeRenewalDates@@YAPAU_object@@PAU1@0@Z	; GetCubeRenewalDates
PUBLIC	?GetCountCubeRenewalList@@YAPAU_object@@PAU1@0@Z ; GetCountCubeRenewalList
PUBLIC	?GetList@CPythonCubeRenewal@@QAEABV?$vector@Udates_cube_renewal@@V?$allocator@Udates_cube_renewal@@@std@@@std@@XZ ; CPythonCubeRenewal::GetList
PUBLIC	?GetCountList@CPythonCubeRenewal@@QAEHXZ	; CPythonCubeRenewal::GetCountList
PUBLIC	?ReceiveList@CPythonCubeRenewal@@QAEXABUdates_cube_renewal@@@Z ; CPythonCubeRenewal::ReceiveList
PUBLIC	?ClearList@CPythonCubeRenewal@@QAEXXZ		; CPythonCubeRenewal::ClearList
PUBLIC	?LoadingList@CPythonCubeRenewal@@QAEXXZ		; CPythonCubeRenewal::LoadingList
PUBLIC	??_GCPythonCubeRenewal@@UAEPAXI@Z		; CPythonCubeRenewal::`scalar deleting destructor'
PUBLIC	?SetCubeRenewalHandler@CPythonCubeRenewal@@QAEXPAU_object@@@Z ; CPythonCubeRenewal::SetCubeRenewalHandler
PUBLIC	??0CPythonCubeRenewal@@QAE@XZ			; CPythonCubeRenewal::CPythonCubeRenewal
PUBLIC	??1CPythonCubeRenewal@@UAE@XZ			; CPythonCubeRenewal::~CPythonCubeRenewal
EXTRN	??_ECPythonCubeRenewal@@UAEPAXI@Z:PROC		; CPythonCubeRenewal::`vector deleting destructor'
EXTRN	??_E?$CSingleton@VCPythonCubeRenewal@@@@UAEPAXI@Z:PROC ; CSingleton<CPythonCubeRenewal>::`vector deleting destructor'
END
