; Listing generated by Microsoft (R) Optimizing Compiler Version 19.44.35219.0 

	TITLE	c:\anka2project\anka2project\source\binary\vs_files\userinterface\release\pythonbiologmanagermodule.obj
	.686P
	.XMM
	include listing.inc
	.model	flat

INCLUDELIB OLDNAMES

PUBLIC	??_C@_01OJONOECF@b@				; `string'
PUBLIC	??_C@_04BIOIIFBG@iiii@				; `string'
PUBLIC	??_C@_0L@FFGNDDJL@SendPacket@			; `string'
PUBLIC	??_C@_0P@KIMPJMCP@SendPacketItem@		; `string'
PUBLIC	??_C@_0BD@GPJOEEAI@SendPacketReminder@		; `string'
PUBLIC	??_C@_0N@LDEDBHIB@GetInfoLevel@			; `string'
PUBLIC	??_C@_0M@JHJFKKCA@GetInfoItem@			; `string'
PUBLIC	??_C@_0N@JEFOGFKD@GetInfoCount@			; `string'
PUBLIC	??_C@_0BA@GIGECKBM@GetInfoCooldown@		; `string'
PUBLIC	??_C@_0BA@OBCJFFJP@GetInfoReminder@		; `string'
PUBLIC	??_C@_0O@IMGIJAM@GetInfoReward@			; `string'
PUBLIC	??_C@_09DHBHBPGA@biologmgr@			; `string'
PUBLIC	??_C@_0BE@HFNNCODO@BIOLOG_BONUS_LENGTH@		; `string'
;	COMDAT ?s_methods@?1??initBiologManager@@YAXXZ@4PAUPyMethodDef@@A
_DATA	SEGMENT
?s_methods@?1??initBiologManager@@YAXXZ@4PAUPyMethodDef@@A DD FLAT:??_C@_0L@FFGNDDJL@SendPacket@ ; `initBiologManager'::`2'::s_methods
	DD	FLAT:?biologSendPacket@@YAPAU_object@@PAU1@0@Z
	DD	01H
	ORG $+4
	DD	FLAT:??_C@_0P@KIMPJMCP@SendPacketItem@
	DD	FLAT:?biologSendPacketItem@@YAPAU_object@@PAU1@0@Z
	DD	01H
	ORG $+4
	DD	FLAT:??_C@_0BD@GPJOEEAI@SendPacketReminder@
	DD	FLAT:?biologSendPacketReminder@@YAPAU_object@@PAU1@0@Z
	DD	01H
	ORG $+4
	DD	FLAT:??_C@_0N@LDEDBHIB@GetInfoLevel@
	DD	FLAT:?biologManagerGetCurrentLevel@@YAPAU_object@@PAU1@0@Z
	DD	01H
	ORG $+4
	DD	FLAT:??_C@_0M@JHJFKKCA@GetInfoItem@
	DD	FLAT:?biologManagerGetCurrentItem@@YAPAU_object@@PAU1@0@Z
	DD	01H
	ORG $+4
	DD	FLAT:??_C@_0N@JEFOGFKD@GetInfoCount@
	DD	FLAT:?biologManagerGetCurrentCount@@YAPAU_object@@PAU1@0@Z
	DD	01H
	ORG $+4
	DD	FLAT:??_C@_0BA@GIGECKBM@GetInfoCooldown@
	DD	FLAT:?biologManagerGetCurrentCooldown@@YAPAU_object@@PAU1@0@Z
	DD	01H
	ORG $+4
	DD	FLAT:??_C@_0BA@OBCJFFJP@GetInfoReminder@
	DD	FLAT:?biologManagerGetCooldownReminder@@YAPAU_object@@PAU1@0@Z
	DD	01H
	ORG $+4
	DD	FLAT:??_C@_0O@IMGIJAM@GetInfoReward@
	DD	FLAT:?biologManagerGetCurrentReward@@YAPAU_object@@PAU1@0@Z
	DD	01H
	ORG $+4
	DD	00H
	DD	00H
	ORG $+8
_DATA	ENDS
;	COMDAT ??_C@_0BE@HFNNCODO@BIOLOG_BONUS_LENGTH@
CONST	SEGMENT
??_C@_0BE@HFNNCODO@BIOLOG_BONUS_LENGTH@ DB 'BIOLOG_BONUS_LENGTH', 00H ; `string'
CONST	ENDS
;	COMDAT ??_C@_09DHBHBPGA@biologmgr@
CONST	SEGMENT
??_C@_09DHBHBPGA@biologmgr@ DB 'biologmgr', 00H		; `string'
CONST	ENDS
;	COMDAT ??_C@_0O@IMGIJAM@GetInfoReward@
CONST	SEGMENT
??_C@_0O@IMGIJAM@GetInfoReward@ DB 'GetInfoReward', 00H	; `string'
CONST	ENDS
;	COMDAT ??_C@_0BA@OBCJFFJP@GetInfoReminder@
CONST	SEGMENT
??_C@_0BA@OBCJFFJP@GetInfoReminder@ DB 'GetInfoReminder', 00H ; `string'
CONST	ENDS
;	COMDAT ??_C@_0BA@GIGECKBM@GetInfoCooldown@
CONST	SEGMENT
??_C@_0BA@GIGECKBM@GetInfoCooldown@ DB 'GetInfoCooldown', 00H ; `string'
CONST	ENDS
;	COMDAT ??_C@_0N@JEFOGFKD@GetInfoCount@
CONST	SEGMENT
??_C@_0N@JEFOGFKD@GetInfoCount@ DB 'GetInfoCount', 00H	; `string'
CONST	ENDS
;	COMDAT ??_C@_0M@JHJFKKCA@GetInfoItem@
CONST	SEGMENT
??_C@_0M@JHJFKKCA@GetInfoItem@ DB 'GetInfoItem', 00H	; `string'
CONST	ENDS
;	COMDAT ??_C@_0N@LDEDBHIB@GetInfoLevel@
CONST	SEGMENT
??_C@_0N@LDEDBHIB@GetInfoLevel@ DB 'GetInfoLevel', 00H	; `string'
CONST	ENDS
;	COMDAT ??_C@_0BD@GPJOEEAI@SendPacketReminder@
CONST	SEGMENT
??_C@_0BD@GPJOEEAI@SendPacketReminder@ DB 'SendPacketReminder', 00H ; `string'
CONST	ENDS
;	COMDAT ??_C@_0P@KIMPJMCP@SendPacketItem@
CONST	SEGMENT
??_C@_0P@KIMPJMCP@SendPacketItem@ DB 'SendPacketItem', 00H ; `string'
CONST	ENDS
;	COMDAT ??_C@_0L@FFGNDDJL@SendPacket@
CONST	SEGMENT
??_C@_0L@FFGNDDJL@SendPacket@ DB 'SendPacket', 00H	; `string'
CONST	ENDS
;	COMDAT ??_C@_04BIOIIFBG@iiii@
CONST	SEGMENT
??_C@_04BIOIIFBG@iiii@ DB 'iiii', 00H			; `string'
CONST	ENDS
;	COMDAT ??_C@_01OJONOECF@b@
CONST	SEGMENT
??_C@_01OJONOECF@b@ DB 'b', 00H				; `string'
PUBLIC	?Instance@?$CSingleton@VCPythonBiologManager@@@@SAAAVCPythonBiologManager@@XZ ; CSingleton<CPythonBiologManager>::Instance
PUBLIC	?initBiologManager@@YAXXZ			; initBiologManager
PUBLIC	?biologSendPacketReminder@@YAPAU_object@@PAU1@0@Z ; biologSendPacketReminder
PUBLIC	?biologSendPacketItem@@YAPAU_object@@PAU1@0@Z	; biologSendPacketItem
PUBLIC	?biologSendPacket@@YAPAU_object@@PAU1@0@Z	; biologSendPacket
PUBLIC	?biologManagerGetCurrentReward@@YAPAU_object@@PAU1@0@Z ; biologManagerGetCurrentReward
PUBLIC	?biologManagerGetCooldownReminder@@YAPAU_object@@PAU1@0@Z ; biologManagerGetCooldownReminder
PUBLIC	?biologManagerGetCurrentCooldown@@YAPAU_object@@PAU1@0@Z ; biologManagerGetCurrentCooldown
PUBLIC	?biologManagerGetCurrentCount@@YAPAU_object@@PAU1@0@Z ; biologManagerGetCurrentCount
PUBLIC	?biologManagerGetCurrentItem@@YAPAU_object@@PAU1@0@Z ; biologManagerGetCurrentItem
PUBLIC	?biologManagerGetCurrentLevel@@YAPAU_object@@PAU1@0@Z ; biologManagerGetCurrentLevel
PUBLIC	?Biolog_GetCurrentRewardItemCount@CPythonBiologManager@@QBEGXZ ; CPythonBiologManager::Biolog_GetCurrentRewardItemCount
PUBLIC	?Biolog_GetCurrentRewardItem@CPythonBiologManager@@QBEKXZ ; CPythonBiologManager::Biolog_GetCurrentRewardItem
PUBLIC	?Biolog_GetCurrentRewardValue@CPythonBiologManager@@QBEJH@Z ; CPythonBiologManager::Biolog_GetCurrentRewardValue
PUBLIC	?Biolog_GetCurrentRewardType@CPythonBiologManager@@QBEKH@Z ; CPythonBiologManager::Biolog_GetCurrentRewardType
PUBLIC	?Biolog_GetCurrentCooldownReminder@CPythonBiologManager@@QBE_NXZ ; CPythonBiologManager::Biolog_GetCurrentCooldownReminder
PUBLIC	?Biolog_GetCurrentCooldown@CPythonBiologManager@@QBEJXZ ; CPythonBiologManager::Biolog_GetCurrentCooldown
PUBLIC	?Biolog_GetCurrentGlobalCooldown@CPythonBiologManager@@QBEJXZ ; CPythonBiologManager::Biolog_GetCurrentGlobalCooldown
PUBLIC	?Biolog_GetCurrentRequiredCount@CPythonBiologManager@@QBEGXZ ; CPythonBiologManager::Biolog_GetCurrentRequiredCount
PUBLIC	?Biolog_GetCurrentGivenItems@CPythonBiologManager@@QBEGXZ ; CPythonBiologManager::Biolog_GetCurrentGivenItems
PUBLIC	?Biolog_GetCurrentItem@CPythonBiologManager@@QBEKXZ ; CPythonBiologManager::Biolog_GetCurrentItem
PUBLIC	?Biolog_GetCurrentLevel@CPythonBiologManager@@QBEEXZ ; CPythonBiologManager::Biolog_GetCurrentLevel
END
