; Listing generated by Microsoft (R) Optimizing Compiler Version 19.44.35219.0 

	TITLE	c:\anka2project\anka2project\source\binary\vs_files\userinterface\release\pythonsafebox.obj
	.686P
	.XMM
	include listing.inc
	.model	flat

INCLUDELIB OLDNAMES

PUBLIC	??_C@_0EB@NFGEBKNF@CPythonSafeBox?3?3SetItemData?$CIdwS@ ; `string'
PUBLIC	??_C@_0ED@OIOPNNLC@CPythonSafeBox?3?3GetSlotItemID?$CId@ ; `string'
PUBLIC	??_C@_0EB@ILLOPJOM@CPythonSafeBox?3?3DelItemData?$CIdwS@ ; `string'
PUBLIC	??_C@_0EF@BFNMLNFN@CPythonSafeBox?3?3SetMallItemData@ ; `string'
PUBLIC	??_C@_0EB@BNCIHACH@CPythonSafeBox?3?3GetItemData?$CIdwS@ ; `string'
PUBLIC	??_C@_0EH@BNEMANLE@CPythonSafeBox?3?3GetMallSlotItem@ ; `string'
PUBLIC	??_C@_0EF@MEFPDFOJ@CPythonSafeBox?3?3DelMallItemData@ ; `string'
PUBLIC	??_C@_09GMBNEEAB@GetItemID@			; `string'
PUBLIC	??_C@_0BG@JANGHGIO@GetCurrentSafeboxSize@	; `string'
PUBLIC	??_C@_0BB@KMJDPGMF@GetMallItemCount@		; `string'
PUBLIC	??_C@_0O@BCKKGAPN@GetMallItemID@		; `string'
PUBLIC	??_C@_0BF@HIELOHFB@GetMallItemAttribute@	; `string'
PUBLIC	??_C@_0BH@EIOFOGDJ@GetMallItemMetinSocket@	; `string'
PUBLIC	??_C@_0BG@IJOJLONA@GetItemChangeLookVnum@	; `string'
PUBLIC	??_C@_0M@GGDNKKEE@GetMallSize@			; `string'
PUBLIC	??_C@_07CPPOKFKF@safebox@			; `string'
PUBLIC	??_C@_0BK@KKGAGJBH@GetMallItemChangeLookVnum@	; `string'
PUBLIC	??_C@_0BF@PAKLFMNK@SAFEBOX_SLOT_Y_COUNT@	; `string'
PUBLIC	??_C@_0BF@DMABFMEE@SAFEBOX_SLOT_X_COUNT@	; `string'
PUBLIC	??_C@_0BC@JOOAEPKL@SAFEBOX_PAGE_SIZE@		; `string'
PUBLIC	??_R2?$CSingleton@VCPythonSafeBox@@@@8		; CSingleton<CPythonSafeBox>::`RTTI Base Class Array'
PUBLIC	??_R2CPythonSafeBox@@8				; CPythonSafeBox::`RTTI Base Class Array'
PUBLIC	??_R1A@?0A@EA@?$CSingleton@VCPythonSafeBox@@@@8	; CSingleton<CPythonSafeBox>::`RTTI Base Class Descriptor at (0,-1,0,64)'
PUBLIC	??_R1A@?0A@EA@CPythonSafeBox@@8			; CPythonSafeBox::`RTTI Base Class Descriptor at (0,-1,0,64)'
PUBLIC	??_R0?AV?$CSingleton@VCPythonSafeBox@@@@@8	; CSingleton<CPythonSafeBox> `RTTI Type Descriptor'
PUBLIC	??_R3?$CSingleton@VCPythonSafeBox@@@@8		; CSingleton<CPythonSafeBox>::`RTTI Class Hierarchy Descriptor'
PUBLIC	??_R0?AVCPythonSafeBox@@@8			; CPythonSafeBox `RTTI Type Descriptor'
PUBLIC	??_R3CPythonSafeBox@@8				; CPythonSafeBox::`RTTI Class Hierarchy Descriptor'
PUBLIC	??_R4?$CSingleton@VCPythonSafeBox@@@@6B@	; CSingleton<CPythonSafeBox>::`RTTI Complete Object Locator'
PUBLIC	??_7?$CSingleton@VCPythonSafeBox@@@@6B@		; CSingleton<CPythonSafeBox>::`vftable'
PUBLIC	??_R4CPythonSafeBox@@6B@			; CPythonSafeBox::`RTTI Complete Object Locator'
PUBLIC	??_7CPythonSafeBox@@6B@				; CPythonSafeBox::`vftable'
;	COMDAT ?s_methods@?1??initsafebox@@YAXXZ@4PAUPyMethodDef@@A
_DATA	SEGMENT
?s_methods@?1??initsafebox@@YAXXZ@4PAUPyMethodDef@@A DD FLAT:??_C@_0BG@JANGHGIO@GetCurrentSafeboxSize@ ; `initsafebox'::`2'::s_methods
	DD	FLAT:?safeboxGetCurrentSafeboxSize@@YAPAU_object@@PAU1@0@Z
	DD	01H
	ORG $+4
	DD	FLAT:??_C@_09GMBNEEAB@GetItemID@
	DD	FLAT:?safeboxGetItemID@@YAPAU_object@@PAU1@0@Z
	DD	01H
	ORG $+4
	DD	FLAT:??_C@_0N@LEKALLIG@GetItemCount@
	DD	FLAT:?safeboxGetItemCount@@YAPAU_object@@PAU1@0@Z
	DD	01H
	ORG $+4
	DD	FLAT:??_C@_0N@DMCGDNGF@GetItemFlags@
	DD	FLAT:?safeboxGetItemFlags@@YAPAU_object@@PAU1@0@Z
	DD	01H
	ORG $+4
	DD	FLAT:??_C@_0BD@JBOBKHIE@GetItemMetinSocket@
	DD	FLAT:?safeboxGetItemMetinSocket@@YAPAU_object@@PAU1@0@Z
	DD	01H
	ORG $+4
	DD	FLAT:??_C@_0BB@GOKPPDHH@GetItemAttribute@
	DD	FLAT:?safeboxGetItemAttribute@@YAPAU_object@@PAU1@0@Z
	DD	01H
	ORG $+4
	DD	FLAT:??_C@_08OAJFGNBC@GetMoney@
	DD	FLAT:?safeboxGetMoney@@YAPAU_object@@PAU1@0@Z
	DD	01H
	ORG $+4
	DD	FLAT:??_C@_0O@BCKKGAPN@GetMallItemID@
	DD	FLAT:?safeboxGetMallItemID@@YAPAU_object@@PAU1@0@Z
	DD	01H
	ORG $+4
	DD	FLAT:??_C@_0BB@KMJDPGMF@GetMallItemCount@
	DD	FLAT:?safeboxGetMallItemCount@@YAPAU_object@@PAU1@0@Z
	DD	01H
	ORG $+4
	DD	FLAT:??_C@_0BH@EIOFOGDJ@GetMallItemMetinSocket@
	DD	FLAT:?safeboxGetMallItemMetinSocket@@YAPAU_object@@PAU1@0@Z
	DD	01H
	ORG $+4
	DD	FLAT:??_C@_0BF@HIELOHFB@GetMallItemAttribute@
	DD	FLAT:?safeboxGetMallItemAttribute@@YAPAU_object@@PAU1@0@Z
	DD	01H
	ORG $+4
	DD	FLAT:??_C@_0M@GGDNKKEE@GetMallSize@
	DD	FLAT:?safeboxGetMallSize@@YAPAU_object@@PAU1@0@Z
	DD	01H
	ORG $+4
	DD	FLAT:??_C@_0BG@IJOJLONA@GetItemChangeLookVnum@
	DD	FLAT:?safeboxGetItemChangeLookVnum@@YAPAU_object@@PAU1@0@Z
	DD	01H
	ORG $+4
	DD	FLAT:??_C@_0BK@KKGAGJBH@GetMallItemChangeLookVnum@
	DD	FLAT:?safeboxGetMallItemChangeLookVnum@@YAPAU_object@@PAU1@0@Z
	DD	01H
	ORG $+4
	DD	00H
	DD	00H
	ORG $+8
_DATA	ENDS
;	COMDAT ??_7CPythonSafeBox@@6B@
CONST	SEGMENT
??_7CPythonSafeBox@@6B@ DD FLAT:??_R4CPythonSafeBox@@6B@ ; CPythonSafeBox::`vftable'
	DD	FLAT:??_ECPythonSafeBox@@UAEPAXI@Z
CONST	ENDS
;	COMDAT ??_R4CPythonSafeBox@@6B@
rdata$r	SEGMENT
??_R4CPythonSafeBox@@6B@ DD 00H				; CPythonSafeBox::`RTTI Complete Object Locator'
	DD	00H
	DD	00H
	DD	FLAT:??_R0?AVCPythonSafeBox@@@8
	DD	FLAT:??_R3CPythonSafeBox@@8
rdata$r	ENDS
;	COMDAT ??_7?$CSingleton@VCPythonSafeBox@@@@6B@
CONST	SEGMENT
??_7?$CSingleton@VCPythonSafeBox@@@@6B@ DD FLAT:??_R4?$CSingleton@VCPythonSafeBox@@@@6B@ ; CSingleton<CPythonSafeBox>::`vftable'
	DD	FLAT:??_E?$CSingleton@VCPythonSafeBox@@@@UAEPAXI@Z
CONST	ENDS
;	COMDAT ??_R4?$CSingleton@VCPythonSafeBox@@@@6B@
rdata$r	SEGMENT
??_R4?$CSingleton@VCPythonSafeBox@@@@6B@ DD 00H		; CSingleton<CPythonSafeBox>::`RTTI Complete Object Locator'
	DD	00H
	DD	00H
	DD	FLAT:??_R0?AV?$CSingleton@VCPythonSafeBox@@@@@8
	DD	FLAT:??_R3?$CSingleton@VCPythonSafeBox@@@@8
rdata$r	ENDS
;	COMDAT ??_R3CPythonSafeBox@@8
rdata$r	SEGMENT
??_R3CPythonSafeBox@@8 DD 00H				; CPythonSafeBox::`RTTI Class Hierarchy Descriptor'
	DD	00H
	DD	02H
	DD	FLAT:??_R2CPythonSafeBox@@8
rdata$r	ENDS
;	COMDAT ??_R0?AVCPythonSafeBox@@@8
data$rs	SEGMENT
??_R0?AVCPythonSafeBox@@@8 DD FLAT:??_7type_info@@6B@	; CPythonSafeBox `RTTI Type Descriptor'
	DD	00H
	DB	'.?AVCPythonSafeBox@@', 00H
data$rs	ENDS
;	COMDAT ??_R3?$CSingleton@VCPythonSafeBox@@@@8
rdata$r	SEGMENT
??_R3?$CSingleton@VCPythonSafeBox@@@@8 DD 00H		; CSingleton<CPythonSafeBox>::`RTTI Class Hierarchy Descriptor'
	DD	00H
	DD	01H
	DD	FLAT:??_R2?$CSingleton@VCPythonSafeBox@@@@8
rdata$r	ENDS
;	COMDAT ??_R0?AV?$CSingleton@VCPythonSafeBox@@@@@8
data$rs	SEGMENT
??_R0?AV?$CSingleton@VCPythonSafeBox@@@@@8 DD FLAT:??_7type_info@@6B@ ; CSingleton<CPythonSafeBox> `RTTI Type Descriptor'
	DD	00H
	DB	'.?AV?$CSingleton@VCPythonSafeBox@@@@', 00H
data$rs	ENDS
;	COMDAT ??_R1A@?0A@EA@CPythonSafeBox@@8
rdata$r	SEGMENT
??_R1A@?0A@EA@CPythonSafeBox@@8 DD FLAT:??_R0?AVCPythonSafeBox@@@8 ; CPythonSafeBox::`RTTI Base Class Descriptor at (0,-1,0,64)'
	DD	01H
	DD	00H
	DD	0ffffffffH
	DD	00H
	DD	040H
	DD	FLAT:??_R3CPythonSafeBox@@8
rdata$r	ENDS
;	COMDAT ??_R1A@?0A@EA@?$CSingleton@VCPythonSafeBox@@@@8
rdata$r	SEGMENT
??_R1A@?0A@EA@?$CSingleton@VCPythonSafeBox@@@@8 DD FLAT:??_R0?AV?$CSingleton@VCPythonSafeBox@@@@@8 ; CSingleton<CPythonSafeBox>::`RTTI Base Class Descriptor at (0,-1,0,64)'
	DD	00H
	DD	00H
	DD	0ffffffffH
	DD	00H
	DD	040H
	DD	FLAT:??_R3?$CSingleton@VCPythonSafeBox@@@@8
rdata$r	ENDS
;	COMDAT ??_R2CPythonSafeBox@@8
rdata$r	SEGMENT
??_R2CPythonSafeBox@@8 DD FLAT:??_R1A@?0A@EA@CPythonSafeBox@@8 ; CPythonSafeBox::`RTTI Base Class Array'
	DD	FLAT:??_R1A@?0A@EA@?$CSingleton@VCPythonSafeBox@@@@8
rdata$r	ENDS
;	COMDAT ??_R2?$CSingleton@VCPythonSafeBox@@@@8
rdata$r	SEGMENT
??_R2?$CSingleton@VCPythonSafeBox@@@@8 DD FLAT:??_R1A@?0A@EA@?$CSingleton@VCPythonSafeBox@@@@8 ; CSingleton<CPythonSafeBox>::`RTTI Base Class Array'
rdata$r	ENDS
;	COMDAT ??_C@_0BC@JOOAEPKL@SAFEBOX_PAGE_SIZE@
CONST	SEGMENT
??_C@_0BC@JOOAEPKL@SAFEBOX_PAGE_SIZE@ DB 'SAFEBOX_PAGE_SIZE', 00H ; `string'
CONST	ENDS
;	COMDAT ??_C@_0BF@DMABFMEE@SAFEBOX_SLOT_X_COUNT@
CONST	SEGMENT
??_C@_0BF@DMABFMEE@SAFEBOX_SLOT_X_COUNT@ DB 'SAFEBOX_SLOT_X_COUNT', 00H ; `string'
CONST	ENDS
;	COMDAT ??_C@_0BF@PAKLFMNK@SAFEBOX_SLOT_Y_COUNT@
CONST	SEGMENT
??_C@_0BF@PAKLFMNK@SAFEBOX_SLOT_Y_COUNT@ DB 'SAFEBOX_SLOT_Y_COUNT', 00H ; `string'
CONST	ENDS
;	COMDAT ??_C@_0BK@KKGAGJBH@GetMallItemChangeLookVnum@
CONST	SEGMENT
??_C@_0BK@KKGAGJBH@GetMallItemChangeLookVnum@ DB 'GetMallItemChangeLookVn'
	DB	'um', 00H					; `string'
CONST	ENDS
;	COMDAT ??_C@_07CPPOKFKF@safebox@
CONST	SEGMENT
??_C@_07CPPOKFKF@safebox@ DB 'safebox', 00H		; `string'
CONST	ENDS
;	COMDAT ??_C@_0M@GGDNKKEE@GetMallSize@
CONST	SEGMENT
??_C@_0M@GGDNKKEE@GetMallSize@ DB 'GetMallSize', 00H	; `string'
CONST	ENDS
;	COMDAT ??_C@_0BG@IJOJLONA@GetItemChangeLookVnum@
CONST	SEGMENT
??_C@_0BG@IJOJLONA@GetItemChangeLookVnum@ DB 'GetItemChangeLookVnum', 00H ; `string'
CONST	ENDS
;	COMDAT ??_C@_0BH@EIOFOGDJ@GetMallItemMetinSocket@
CONST	SEGMENT
??_C@_0BH@EIOFOGDJ@GetMallItemMetinSocket@ DB 'GetMallItemMetinSocket', 00H ; `string'
CONST	ENDS
;	COMDAT ??_C@_0BF@HIELOHFB@GetMallItemAttribute@
CONST	SEGMENT
??_C@_0BF@HIELOHFB@GetMallItemAttribute@ DB 'GetMallItemAttribute', 00H ; `string'
CONST	ENDS
;	COMDAT ??_C@_0O@BCKKGAPN@GetMallItemID@
CONST	SEGMENT
??_C@_0O@BCKKGAPN@GetMallItemID@ DB 'GetMallItemID', 00H ; `string'
CONST	ENDS
;	COMDAT ??_C@_0BB@KMJDPGMF@GetMallItemCount@
CONST	SEGMENT
??_C@_0BB@KMJDPGMF@GetMallItemCount@ DB 'GetMallItemCount', 00H ; `string'
CONST	ENDS
;	COMDAT ??_C@_0BG@JANGHGIO@GetCurrentSafeboxSize@
CONST	SEGMENT
??_C@_0BG@JANGHGIO@GetCurrentSafeboxSize@ DB 'GetCurrentSafeboxSize', 00H ; `string'
CONST	ENDS
;	COMDAT ??_C@_09GMBNEEAB@GetItemID@
CONST	SEGMENT
??_C@_09GMBNEEAB@GetItemID@ DB 'GetItemID', 00H		; `string'
CONST	ENDS
;	COMDAT ??_C@_0EF@MEFPDFOJ@CPythonSafeBox?3?3DelMallItemData@
CONST	SEGMENT
??_C@_0EF@MEFPDFOJ@CPythonSafeBox?3?3DelMallItemData@ DB 'CPythonSafeBox:'
	DB	':DelMallItemData(dwSlotIndex=%d) - Strange slot index', 00H ; `string'
CONST	ENDS
;	COMDAT ??_C@_0EH@BNEMANLE@CPythonSafeBox?3?3GetMallSlotItem@
CONST	SEGMENT
??_C@_0EH@BNEMANLE@CPythonSafeBox?3?3GetMallSlotItem@ DB 'CPythonSafeBox:'
	DB	':GetMallSlotItemID(dwSlotIndex=%d) - Strange slot index', 00H ; `string'
CONST	ENDS
;	COMDAT ??_C@_0EB@BNCIHACH@CPythonSafeBox?3?3GetItemData?$CIdwS@
CONST	SEGMENT
??_C@_0EB@BNCIHACH@CPythonSafeBox?3?3GetItemData?$CIdwS@ DB 'CPythonSafeB'
	DB	'ox::GetItemData(dwSlotIndex=%d) - Strange slot index', 00H ; `string'
CONST	ENDS
;	COMDAT ??_C@_0EF@BFNMLNFN@CPythonSafeBox?3?3SetMallItemData@
CONST	SEGMENT
??_C@_0EF@BFNMLNFN@CPythonSafeBox?3?3SetMallItemData@ DB 'CPythonSafeBox:'
	DB	':SetMallItemData(dwSlotIndex=%d) - Strange slot index', 00H ; `string'
CONST	ENDS
;	COMDAT ??_C@_0EB@ILLOPJOM@CPythonSafeBox?3?3DelItemData?$CIdwS@
CONST	SEGMENT
??_C@_0EB@ILLOPJOM@CPythonSafeBox?3?3DelItemData?$CIdwS@ DB 'CPythonSafeB'
	DB	'ox::DelItemData(dwSlotIndex=%d) - Strange slot index', 00H ; `string'
CONST	ENDS
;	COMDAT ??_C@_0ED@OIOPNNLC@CPythonSafeBox?3?3GetSlotItemID?$CId@
CONST	SEGMENT
??_C@_0ED@OIOPNNLC@CPythonSafeBox?3?3GetSlotItemID?$CId@ DB 'CPythonSafeB'
	DB	'ox::GetSlotItemID(dwSlotIndex=%d) - Strange slot index', 00H ; `string'
CONST	ENDS
;	COMDAT ??_C@_0EB@NFGEBKNF@CPythonSafeBox?3?3SetItemData?$CIdwS@
CONST	SEGMENT
??_C@_0EB@NFGEBKNF@CPythonSafeBox?3?3SetItemData?$CIdwS@ DB 'CPythonSafeB'
	DB	'ox::SetItemData(dwSlotIndex=%d) - Strange slot index', 00H ; `string'
PUBLIC	??_G?$CSingleton@VCPythonSafeBox@@@@UAEPAXI@Z	; CSingleton<CPythonSafeBox>::`scalar deleting destructor'
PUBLIC	??0?$CSingleton@VCPythonSafeBox@@@@QAE@XZ	; CSingleton<CPythonSafeBox>::CSingleton<CPythonSafeBox>
PUBLIC	??1?$CSingleton@VCPythonSafeBox@@@@UAE@XZ	; CSingleton<CPythonSafeBox>::~CSingleton<CPythonSafeBox>
PUBLIC	?initsafebox@@YAXXZ				; initsafebox
PUBLIC	?safeboxGetMallItemChangeLookVnum@@YAPAU_object@@PAU1@0@Z ; safeboxGetMallItemChangeLookVnum
PUBLIC	?safeboxGetItemChangeLookVnum@@YAPAU_object@@PAU1@0@Z ; safeboxGetItemChangeLookVnum
PUBLIC	?safeboxGetMallSize@@YAPAU_object@@PAU1@0@Z	; safeboxGetMallSize
PUBLIC	?safeboxGetMallItemAttribute@@YAPAU_object@@PAU1@0@Z ; safeboxGetMallItemAttribute
PUBLIC	?safeboxGetMallItemMetinSocket@@YAPAU_object@@PAU1@0@Z ; safeboxGetMallItemMetinSocket
PUBLIC	?safeboxGetMallItemCount@@YAPAU_object@@PAU1@0@Z ; safeboxGetMallItemCount
PUBLIC	?safeboxGetMallItemID@@YAPAU_object@@PAU1@0@Z	; safeboxGetMallItemID
PUBLIC	?safeboxGetMoney@@YAPAU_object@@PAU1@0@Z	; safeboxGetMoney
PUBLIC	?safeboxGetItemAttribute@@YAPAU_object@@PAU1@0@Z ; safeboxGetItemAttribute
PUBLIC	?safeboxGetItemMetinSocket@@YAPAU_object@@PAU1@0@Z ; safeboxGetItemMetinSocket
PUBLIC	?safeboxGetItemFlags@@YAPAU_object@@PAU1@0@Z	; safeboxGetItemFlags
PUBLIC	?safeboxGetItemCount@@YAPAU_object@@PAU1@0@Z	; safeboxGetItemCount
PUBLIC	?safeboxGetItemID@@YAPAU_object@@PAU1@0@Z	; safeboxGetItemID
PUBLIC	?safeboxGetCurrentSafeboxSize@@YAPAU_object@@PAU1@0@Z ; safeboxGetCurrentSafeboxSize
PUBLIC	??_GCPythonSafeBox@@UAEPAXI@Z			; CPythonSafeBox::`scalar deleting destructor'
PUBLIC	?GetMallSize@CPythonSafeBox@@QAEKXZ		; CPythonSafeBox::GetMallSize
PUBLIC	?GetMallItemDataPtr@CPythonSafeBox@@QAEHKPAPAUpacket_item@@@Z ; CPythonSafeBox::GetMallItemDataPtr
PUBLIC	?GetItemDataPtr@CPythonSafeBox@@QAEHKPAPAUpacket_item@@@Z ; CPythonSafeBox::GetItemDataPtr
PUBLIC	?GetCurrentSafeBoxSize@CPythonSafeBox@@QAEHXZ	; CPythonSafeBox::GetCurrentSafeBoxSize
PUBLIC	?GetMoney@CPythonSafeBox@@QAEKXZ		; CPythonSafeBox::GetMoney
PUBLIC	?SetItemData@CPythonSafeBox@@QAEXKABUpacket_item@@@Z ; CPythonSafeBox::SetItemData
PUBLIC	?DelItemData@CPythonSafeBox@@QAEXK@Z		; CPythonSafeBox::DelItemData
PUBLIC	?OpenSafeBox@CPythonSafeBox@@QAEXH@Z		; CPythonSafeBox::OpenSafeBox
PUBLIC	?SetMoney@CPythonSafeBox@@QAEXK@Z		; CPythonSafeBox::SetMoney
PUBLIC	?OpenMall@CPythonSafeBox@@QAEXH@Z		; CPythonSafeBox::OpenMall
PUBLIC	?SetMallItemData@CPythonSafeBox@@QAEXKABUpacket_item@@@Z ; CPythonSafeBox::SetMallItemData
PUBLIC	?DelMallItemData@CPythonSafeBox@@QAEXK@Z	; CPythonSafeBox::DelMallItemData
PUBLIC	?GetSlotItemID@CPythonSafeBox@@QAEHKPAK@Z	; CPythonSafeBox::GetSlotItemID
PUBLIC	?GetSlotMallItemID@CPythonSafeBox@@QAEHKPAK@Z	; CPythonSafeBox::GetSlotMallItemID
PUBLIC	??0CPythonSafeBox@@QAE@XZ			; CPythonSafeBox::CPythonSafeBox
PUBLIC	??1CPythonSafeBox@@UAE@XZ			; CPythonSafeBox::~CPythonSafeBox
EXTRN	??_ECPythonSafeBox@@UAEPAXI@Z:PROC		; CPythonSafeBox::`vector deleting destructor'
EXTRN	??_E?$CSingleton@VCPythonSafeBox@@@@UAEPAXI@Z:PROC ; CSingleton<CPythonSafeBox>::`vector deleting destructor'
; Function compile flags: /Ogtp
; File C:\Anka2Project\Anka2Project\Source\Binary\source\UserInterface\PythonSafeBox.cpp
; File C:\Anka2Project\Anka2Project\Source\Binary\source\eterBase\Singleton.h
; File C:\Anka2Project\Anka2Project\Source\Binary\source\UserInterface\PythonSafeBox.cpp
;	COMDAT ?safeboxGetCurrentSafeboxSize@@YAPAU_object@@PAU1@0@Z
_TEXT	SEGMENT
_poSelf$ = 8						; size = 4
_poArgs$ = 12						; size = 4
?safeboxGetCurrentSafeboxSize@@YAPAU_object@@PAU1@0@Z PROC ; safeboxGetCurrentSafeboxSize, COMDAT
; File C:\Anka2Project\Anka2Project\Source\Binary\source\eterBase\Singleton.h

; 26   : 		assert(ms_singleton);

  00000	8b 0d 00 00 00
	00		 mov	 ecx, DWORD PTR ?ms_singleton@?$CSingleton@VCPythonSafeBox@@@@0PAVCPythonSafeBox@@A ; CSingleton<CPythonSafeBox>::ms_singleton
  00006	85 c9		 test	 ecx, ecx
  00008	75 1a		 jne	 SHORT $LN5@safeboxGet
  0000a	6a 1a		 push	 26			; 0000001aH
  0000c	68 00 00 00 00	 push	 OFFSET ??_C@_1IO@CAJLEEOI@?$AAC?$AA?3?$AA?2?$AAA?$AAn?$AAk?$AAa?$AA2?$AAP?$AAr?$AAo?$AAj?$AAe?$AAc?$AAt@
  00011	68 00 00 00 00	 push	 OFFSET ??_C@_1BK@FMEHPMFE@?$AAm?$AAs?$AA_?$AAs?$AAi?$AAn?$AAg?$AAl?$AAe?$AAt?$AAo?$AAn@
  00016	e8 00 00 00 00	 call	 __wassert
  0001b	8b 0d 00 00 00
	00		 mov	 ecx, DWORD PTR ?ms_singleton@?$CSingleton@VCPythonSafeBox@@@@0PAVCPythonSafeBox@@A ; CSingleton<CPythonSafeBox>::ms_singleton
  00021	83 c4 0c	 add	 esp, 12			; 0000000cH
$LN5@safeboxGet:
; File C:\Anka2Project\Anka2Project\Source\Binary\source\UserInterface\PythonSafeBox.cpp

; 158  : 	return Py_BuildValue("i", CPythonSafeBox::Instance().GetCurrentSafeBoxSize());

  00024	e8 00 00 00 00	 call	 ?GetCurrentSafeBoxSize@CPythonSafeBox@@QAEHXZ ; CPythonSafeBox::GetCurrentSafeBoxSize
  00029	50		 push	 eax
  0002a	68 00 00 00 00	 push	 OFFSET ??_C@_01KBJDNOO@i@
  0002f	ff 15 00 00 00
	00		 call	 DWORD PTR __imp__Py_BuildValue
  00035	83 c4 08	 add	 esp, 8

; 159  : }

  00038	c3		 ret	 0
?safeboxGetCurrentSafeboxSize@@YAPAU_object@@PAU1@0@Z ENDP ; safeboxGetCurrentSafeboxSize
_TEXT	ENDS
; Function compile flags: /Ogtp
; File C:\Anka2Project\Anka2Project\Source\Binary\source\UserInterface\PythonSafeBox.cpp
; File C:\Anka2Project\Anka2Project\Source\Binary\source\eterBase\Singleton.h
; File C:\Anka2Project\Anka2Project\Source\Binary\source\UserInterface\PythonSafeBox.cpp
;	COMDAT ?safeboxGetItemID@@YAPAU_object@@PAU1@0@Z
_TEXT	SEGMENT
_pInstance$ = -8					; size = 4
_ipos$ = -4						; size = 4
_poSelf$ = 8						; size = 4
_poArgs$ = 12						; size = 4
?safeboxGetItemID@@YAPAU_object@@PAU1@0@Z PROC		; safeboxGetItemID, COMDAT

; 162  : {

  00000	55		 push	 ebp
  00001	8b ec		 mov	 ebp, esp
  00003	83 ec 08	 sub	 esp, 8

; 163  : 	int ipos;
; 164  : 	if (!PyTuple_GetInteger(poArgs, 0, &ipos))

  00006	8d 45 fc	 lea	 eax, DWORD PTR _ipos$[ebp]
  00009	50		 push	 eax
  0000a	6a 00		 push	 0
  0000c	ff 75 0c	 push	 DWORD PTR _poArgs$[ebp]
  0000f	e8 00 00 00 00	 call	 ?PyTuple_GetInteger@@YA_NPAU_object@@HPAH@Z ; PyTuple_GetInteger
  00014	83 c4 0c	 add	 esp, 12			; 0000000cH
  00017	84 c0		 test	 al, al
  00019	75 09		 jne	 SHORT $LN2@safeboxGet

; 165  : 		return Py_BadArgument();

  0001b	e8 00 00 00 00	 call	 ?Py_BadArgument@@YAPAU_object@@XZ ; Py_BadArgument

; 172  : }

  00020	8b e5		 mov	 esp, ebp
  00022	5d		 pop	 ebp
  00023	c3		 ret	 0
$LN2@safeboxGet:
; File C:\Anka2Project\Anka2Project\Source\Binary\source\eterBase\Singleton.h

; 26   : 		assert(ms_singleton);

  00024	8b 0d 00 00 00
	00		 mov	 ecx, DWORD PTR ?ms_singleton@?$CSingleton@VCPythonSafeBox@@@@0PAVCPythonSafeBox@@A ; CSingleton<CPythonSafeBox>::ms_singleton
  0002a	85 c9		 test	 ecx, ecx
  0002c	75 1a		 jne	 SHORT $LN7@safeboxGet
  0002e	6a 1a		 push	 26			; 0000001aH
  00030	68 00 00 00 00	 push	 OFFSET ??_C@_1IO@CAJLEEOI@?$AAC?$AA?3?$AA?2?$AAA?$AAn?$AAk?$AAa?$AA2?$AAP?$AAr?$AAo?$AAj?$AAe?$AAc?$AAt@
  00035	68 00 00 00 00	 push	 OFFSET ??_C@_1BK@FMEHPMFE@?$AAm?$AAs?$AA_?$AAs?$AAi?$AAn?$AAg?$AAl?$AAe?$AAt?$AAo?$AAn@
  0003a	e8 00 00 00 00	 call	 __wassert
  0003f	8b 0d 00 00 00
	00		 mov	 ecx, DWORD PTR ?ms_singleton@?$CSingleton@VCPythonSafeBox@@@@0PAVCPythonSafeBox@@A ; CSingleton<CPythonSafeBox>::ms_singleton
  00045	83 c4 0c	 add	 esp, 12			; 0000000cH
$LN7@safeboxGet:
; File C:\Anka2Project\Anka2Project\Source\Binary\source\UserInterface\PythonSafeBox.cpp

; 168  : 	if (!CPythonSafeBox::Instance().GetItemDataPtr(ipos, &pInstance))

  00048	8d 45 f8	 lea	 eax, DWORD PTR _pInstance$[ebp]
  0004b	50		 push	 eax
  0004c	ff 75 fc	 push	 DWORD PTR _ipos$[ebp]
  0004f	e8 00 00 00 00	 call	 ?GetItemDataPtr@CPythonSafeBox@@QAEHKPAPAUpacket_item@@@Z ; CPythonSafeBox::GetItemDataPtr
  00054	85 c0		 test	 eax, eax
  00056	75 0d		 jne	 SHORT $LN3@safeboxGet

; 169  : 		return Py_BuildException();

  00058	50		 push	 eax
  00059	e8 00 00 00 00	 call	 ?Py_BuildException@@YAPAU_object@@PBDZZ ; Py_BuildException
  0005e	83 c4 04	 add	 esp, 4

; 172  : }

  00061	8b e5		 mov	 esp, ebp
  00063	5d		 pop	 ebp
  00064	c3		 ret	 0
$LN3@safeboxGet:

; 170  : 
; 171  : 	return Py_BuildValue("i", pInstance->vnum);

  00065	8b 45 f8	 mov	 eax, DWORD PTR _pInstance$[ebp]
  00068	ff 30		 push	 DWORD PTR [eax]
  0006a	68 00 00 00 00	 push	 OFFSET ??_C@_01KBJDNOO@i@
  0006f	ff 15 00 00 00
	00		 call	 DWORD PTR __imp__Py_BuildValue
  00075	83 c4 08	 add	 esp, 8

; 172  : }

  00078	8b e5		 mov	 esp, ebp
  0007a	5d		 pop	 ebp
  0007b	c3		 ret	 0
?safeboxGetItemID@@YAPAU_object@@PAU1@0@Z ENDP		; safeboxGetItemID
_TEXT	ENDS
; Function compile flags: /Ogtp
; File C:\Anka2Project\Anka2Project\Source\Binary\source\UserInterface\PythonSafeBox.cpp
; File C:\Anka2Project\Anka2Project\Source\Binary\source\eterBase\Singleton.h
; File C:\Anka2Project\Anka2Project\Source\Binary\source\UserInterface\PythonSafeBox.cpp
;	COMDAT ?safeboxGetItemCount@@YAPAU_object@@PAU1@0@Z
_TEXT	SEGMENT
_pInstance$ = -8					; size = 4
_ipos$ = -4						; size = 4
_poSelf$ = 8						; size = 4
_poArgs$ = 12						; size = 4
?safeboxGetItemCount@@YAPAU_object@@PAU1@0@Z PROC	; safeboxGetItemCount, COMDAT

; 175  : {

  00000	55		 push	 ebp
  00001	8b ec		 mov	 ebp, esp
  00003	83 ec 08	 sub	 esp, 8

; 176  : 	int ipos;
; 177  : 	if (!PyTuple_GetInteger(poArgs, 0, &ipos))

  00006	8d 45 fc	 lea	 eax, DWORD PTR _ipos$[ebp]
  00009	50		 push	 eax
  0000a	6a 00		 push	 0
  0000c	ff 75 0c	 push	 DWORD PTR _poArgs$[ebp]
  0000f	e8 00 00 00 00	 call	 ?PyTuple_GetInteger@@YA_NPAU_object@@HPAH@Z ; PyTuple_GetInteger
  00014	83 c4 0c	 add	 esp, 12			; 0000000cH
  00017	84 c0		 test	 al, al
  00019	75 09		 jne	 SHORT $LN2@safeboxGet

; 178  : 		return Py_BadArgument();

  0001b	e8 00 00 00 00	 call	 ?Py_BadArgument@@YAPAU_object@@XZ ; Py_BadArgument

; 185  : }

  00020	8b e5		 mov	 esp, ebp
  00022	5d		 pop	 ebp
  00023	c3		 ret	 0
$LN2@safeboxGet:
; File C:\Anka2Project\Anka2Project\Source\Binary\source\eterBase\Singleton.h

; 26   : 		assert(ms_singleton);

  00024	8b 0d 00 00 00
	00		 mov	 ecx, DWORD PTR ?ms_singleton@?$CSingleton@VCPythonSafeBox@@@@0PAVCPythonSafeBox@@A ; CSingleton<CPythonSafeBox>::ms_singleton
  0002a	85 c9		 test	 ecx, ecx
  0002c	75 1a		 jne	 SHORT $LN7@safeboxGet
  0002e	6a 1a		 push	 26			; 0000001aH
  00030	68 00 00 00 00	 push	 OFFSET ??_C@_1IO@CAJLEEOI@?$AAC?$AA?3?$AA?2?$AAA?$AAn?$AAk?$AAa?$AA2?$AAP?$AAr?$AAo?$AAj?$AAe?$AAc?$AAt@
  00035	68 00 00 00 00	 push	 OFFSET ??_C@_1BK@FMEHPMFE@?$AAm?$AAs?$AA_?$AAs?$AAi?$AAn?$AAg?$AAl?$AAe?$AAt?$AAo?$AAn@
  0003a	e8 00 00 00 00	 call	 __wassert
  0003f	8b 0d 00 00 00
	00		 mov	 ecx, DWORD PTR ?ms_singleton@?$CSingleton@VCPythonSafeBox@@@@0PAVCPythonSafeBox@@A ; CSingleton<CPythonSafeBox>::ms_singleton
  00045	83 c4 0c	 add	 esp, 12			; 0000000cH
$LN7@safeboxGet:
; File C:\Anka2Project\Anka2Project\Source\Binary\source\UserInterface\PythonSafeBox.cpp

; 181  : 	if (!CPythonSafeBox::Instance().GetItemDataPtr(ipos, &pInstance))

  00048	8d 45 f8	 lea	 eax, DWORD PTR _pInstance$[ebp]
  0004b	50		 push	 eax
  0004c	ff 75 fc	 push	 DWORD PTR _ipos$[ebp]
  0004f	e8 00 00 00 00	 call	 ?GetItemDataPtr@CPythonSafeBox@@QAEHKPAPAUpacket_item@@@Z ; CPythonSafeBox::GetItemDataPtr
  00054	85 c0		 test	 eax, eax
  00056	75 0d		 jne	 SHORT $LN3@safeboxGet

; 182  : 		return Py_BuildException();

  00058	50		 push	 eax
  00059	e8 00 00 00 00	 call	 ?Py_BuildException@@YAPAU_object@@PBDZZ ; Py_BuildException
  0005e	83 c4 04	 add	 esp, 4

; 185  : }

  00061	8b e5		 mov	 esp, ebp
  00063	5d		 pop	 ebp
  00064	c3		 ret	 0
$LN3@safeboxGet:

; 183  : 
; 184  : 	return Py_BuildValue("i", pInstance->count);

  00065	8b 45 f8	 mov	 eax, DWORD PTR _pInstance$[ebp]
  00068	0f b7 40 04	 movzx	 eax, WORD PTR [eax+4]
  0006c	50		 push	 eax
  0006d	68 00 00 00 00	 push	 OFFSET ??_C@_01KBJDNOO@i@
  00072	ff 15 00 00 00
	00		 call	 DWORD PTR __imp__Py_BuildValue
  00078	83 c4 08	 add	 esp, 8

; 185  : }

  0007b	8b e5		 mov	 esp, ebp
  0007d	5d		 pop	 ebp
  0007e	c3		 ret	 0
?safeboxGetItemCount@@YAPAU_object@@PAU1@0@Z ENDP	; safeboxGetItemCount
_TEXT	ENDS
; Function compile flags: /Ogtp
; File C:\Anka2Project\Anka2Project\Source\Binary\source\UserInterface\PythonSafeBox.cpp
; File C:\Anka2Project\Anka2Project\Source\Binary\source\eterBase\Singleton.h
; File C:\Anka2Project\Anka2Project\Source\Binary\source\UserInterface\PythonSafeBox.cpp
;	COMDAT ?safeboxGetItemFlags@@YAPAU_object@@PAU1@0@Z
_TEXT	SEGMENT
_pInstance$ = -8					; size = 4
_ipos$ = -4						; size = 4
_poSelf$ = 8						; size = 4
_poArgs$ = 12						; size = 4
?safeboxGetItemFlags@@YAPAU_object@@PAU1@0@Z PROC	; safeboxGetItemFlags, COMDAT

; 188  : {

  00000	55		 push	 ebp
  00001	8b ec		 mov	 ebp, esp
  00003	83 ec 08	 sub	 esp, 8

; 189  : 	int ipos;
; 190  : 	if (!PyTuple_GetInteger(poArgs, 0, &ipos))

  00006	8d 45 fc	 lea	 eax, DWORD PTR _ipos$[ebp]
  00009	50		 push	 eax
  0000a	6a 00		 push	 0
  0000c	ff 75 0c	 push	 DWORD PTR _poArgs$[ebp]
  0000f	e8 00 00 00 00	 call	 ?PyTuple_GetInteger@@YA_NPAU_object@@HPAH@Z ; PyTuple_GetInteger
  00014	83 c4 0c	 add	 esp, 12			; 0000000cH
  00017	84 c0		 test	 al, al
  00019	75 09		 jne	 SHORT $LN2@safeboxGet

; 191  : 		return Py_BadArgument();

  0001b	e8 00 00 00 00	 call	 ?Py_BadArgument@@YAPAU_object@@XZ ; Py_BadArgument

; 198  : }

  00020	8b e5		 mov	 esp, ebp
  00022	5d		 pop	 ebp
  00023	c3		 ret	 0
$LN2@safeboxGet:
; File C:\Anka2Project\Anka2Project\Source\Binary\source\eterBase\Singleton.h

; 26   : 		assert(ms_singleton);

  00024	8b 0d 00 00 00
	00		 mov	 ecx, DWORD PTR ?ms_singleton@?$CSingleton@VCPythonSafeBox@@@@0PAVCPythonSafeBox@@A ; CSingleton<CPythonSafeBox>::ms_singleton
  0002a	85 c9		 test	 ecx, ecx
  0002c	75 1a		 jne	 SHORT $LN7@safeboxGet
  0002e	6a 1a		 push	 26			; 0000001aH
  00030	68 00 00 00 00	 push	 OFFSET ??_C@_1IO@CAJLEEOI@?$AAC?$AA?3?$AA?2?$AAA?$AAn?$AAk?$AAa?$AA2?$AAP?$AAr?$AAo?$AAj?$AAe?$AAc?$AAt@
  00035	68 00 00 00 00	 push	 OFFSET ??_C@_1BK@FMEHPMFE@?$AAm?$AAs?$AA_?$AAs?$AAi?$AAn?$AAg?$AAl?$AAe?$AAt?$AAo?$AAn@
  0003a	e8 00 00 00 00	 call	 __wassert
  0003f	8b 0d 00 00 00
	00		 mov	 ecx, DWORD PTR ?ms_singleton@?$CSingleton@VCPythonSafeBox@@@@0PAVCPythonSafeBox@@A ; CSingleton<CPythonSafeBox>::ms_singleton
  00045	83 c4 0c	 add	 esp, 12			; 0000000cH
$LN7@safeboxGet:
; File C:\Anka2Project\Anka2Project\Source\Binary\source\UserInterface\PythonSafeBox.cpp

; 194  : 	if (!CPythonSafeBox::Instance().GetItemDataPtr(ipos, &pInstance))

  00048	8d 45 f8	 lea	 eax, DWORD PTR _pInstance$[ebp]
  0004b	50		 push	 eax
  0004c	ff 75 fc	 push	 DWORD PTR _ipos$[ebp]
  0004f	e8 00 00 00 00	 call	 ?GetItemDataPtr@CPythonSafeBox@@QAEHKPAPAUpacket_item@@@Z ; CPythonSafeBox::GetItemDataPtr
  00054	85 c0		 test	 eax, eax
  00056	75 0d		 jne	 SHORT $LN3@safeboxGet

; 195  : 		return Py_BuildException();

  00058	50		 push	 eax
  00059	e8 00 00 00 00	 call	 ?Py_BuildException@@YAPAU_object@@PBDZZ ; Py_BuildException
  0005e	83 c4 04	 add	 esp, 4

; 198  : }

  00061	8b e5		 mov	 esp, ebp
  00063	5d		 pop	 ebp
  00064	c3		 ret	 0
$LN3@safeboxGet:

; 196  : 
; 197  : 	return Py_BuildValue("i", pInstance->flags);

  00065	8b 45 f8	 mov	 eax, DWORD PTR _pInstance$[ebp]
  00068	ff 70 06	 push	 DWORD PTR [eax+6]
  0006b	68 00 00 00 00	 push	 OFFSET ??_C@_01KBJDNOO@i@
  00070	ff 15 00 00 00
	00		 call	 DWORD PTR __imp__Py_BuildValue
  00076	83 c4 08	 add	 esp, 8

; 198  : }

  00079	8b e5		 mov	 esp, ebp
  0007b	5d		 pop	 ebp
  0007c	c3		 ret	 0
?safeboxGetItemFlags@@YAPAU_object@@PAU1@0@Z ENDP	; safeboxGetItemFlags
_TEXT	ENDS
; Function compile flags: /Ogtp
; File C:\Anka2Project\Anka2Project\Source\Binary\source\UserInterface\PythonSafeBox.cpp
; File C:\Anka2Project\Anka2Project\Source\Binary\source\eterBase\Singleton.h
; File C:\Anka2Project\Anka2Project\Source\Binary\source\UserInterface\PythonSafeBox.cpp
;	COMDAT ?safeboxGetItemMetinSocket@@YAPAU_object@@PAU1@0@Z
_TEXT	SEGMENT
_pItemData$ = -12					; size = 4
_iSlotIndex$ = -8					; size = 4
_iSocketIndex$ = -4					; size = 4
_poSelf$ = 8						; size = 4
_poArgs$ = 12						; size = 4
?safeboxGetItemMetinSocket@@YAPAU_object@@PAU1@0@Z PROC	; safeboxGetItemMetinSocket, COMDAT

; 201  : {

  00000	55		 push	 ebp
  00001	8b ec		 mov	 ebp, esp
  00003	83 ec 0c	 sub	 esp, 12			; 0000000cH

; 202  : 	int iSlotIndex;
; 203  : 	if (!PyTuple_GetInteger(poArgs, 0, &iSlotIndex))

  00006	8d 45 f8	 lea	 eax, DWORD PTR _iSlotIndex$[ebp]
  00009	50		 push	 eax
  0000a	6a 00		 push	 0
  0000c	ff 75 0c	 push	 DWORD PTR _poArgs$[ebp]
  0000f	e8 00 00 00 00	 call	 ?PyTuple_GetInteger@@YA_NPAU_object@@HPAH@Z ; PyTuple_GetInteger
  00014	83 c4 0c	 add	 esp, 12			; 0000000cH
  00017	84 c0		 test	 al, al
  00019	75 09		 jne	 SHORT $LN2@safeboxGet
$LN10@safeboxGet:

; 217  : }

  0001b	e8 00 00 00 00	 call	 ?Py_BadArgument@@YAPAU_object@@XZ ; Py_BadArgument
  00020	8b e5		 mov	 esp, ebp
  00022	5d		 pop	 ebp
  00023	c3		 ret	 0
$LN2@safeboxGet:

; 204  : 		return Py_BadArgument();
; 205  : 	int iSocketIndex;
; 206  : 	if (!PyTuple_GetInteger(poArgs, 1, &iSocketIndex))

  00024	8d 45 fc	 lea	 eax, DWORD PTR _iSocketIndex$[ebp]
  00027	50		 push	 eax
  00028	6a 01		 push	 1
  0002a	ff 75 0c	 push	 DWORD PTR _poArgs$[ebp]
  0002d	e8 00 00 00 00	 call	 ?PyTuple_GetInteger@@YA_NPAU_object@@HPAH@Z ; PyTuple_GetInteger
  00032	83 c4 0c	 add	 esp, 12			; 0000000cH
  00035	84 c0		 test	 al, al
  00037	74 e2		 je	 SHORT $LN10@safeboxGet

; 207  : 		return Py_BadArgument();
; 208  : 
; 209  : 	if (iSocketIndex >= ITEM_SOCKET_SLOT_MAX_NUM)

  00039	83 7d fc 03	 cmp	 DWORD PTR _iSocketIndex$[ebp], 3
  0003d	7c 0e		 jl	 SHORT $LN4@safeboxGet
$LN11@safeboxGet:

; 217  : }

  0003f	6a 00		 push	 0
  00041	e8 00 00 00 00	 call	 ?Py_BuildException@@YAPAU_object@@PBDZZ ; Py_BuildException
  00046	83 c4 04	 add	 esp, 4
  00049	8b e5		 mov	 esp, ebp
  0004b	5d		 pop	 ebp
  0004c	c3		 ret	 0
$LN4@safeboxGet:
; File C:\Anka2Project\Anka2Project\Source\Binary\source\eterBase\Singleton.h

; 26   : 		assert(ms_singleton);

  0004d	8b 0d 00 00 00
	00		 mov	 ecx, DWORD PTR ?ms_singleton@?$CSingleton@VCPythonSafeBox@@@@0PAVCPythonSafeBox@@A ; CSingleton<CPythonSafeBox>::ms_singleton
  00053	85 c9		 test	 ecx, ecx
  00055	75 1a		 jne	 SHORT $LN9@safeboxGet
  00057	6a 1a		 push	 26			; 0000001aH
  00059	68 00 00 00 00	 push	 OFFSET ??_C@_1IO@CAJLEEOI@?$AAC?$AA?3?$AA?2?$AAA?$AAn?$AAk?$AAa?$AA2?$AAP?$AAr?$AAo?$AAj?$AAe?$AAc?$AAt@
  0005e	68 00 00 00 00	 push	 OFFSET ??_C@_1BK@FMEHPMFE@?$AAm?$AAs?$AA_?$AAs?$AAi?$AAn?$AAg?$AAl?$AAe?$AAt?$AAo?$AAn@
  00063	e8 00 00 00 00	 call	 __wassert
  00068	8b 0d 00 00 00
	00		 mov	 ecx, DWORD PTR ?ms_singleton@?$CSingleton@VCPythonSafeBox@@@@0PAVCPythonSafeBox@@A ; CSingleton<CPythonSafeBox>::ms_singleton
  0006e	83 c4 0c	 add	 esp, 12			; 0000000cH
$LN9@safeboxGet:
; File C:\Anka2Project\Anka2Project\Source\Binary\source\UserInterface\PythonSafeBox.cpp

; 213  : 	if (!CPythonSafeBox::Instance().GetItemDataPtr(iSlotIndex, &pItemData))

  00071	8d 45 f4	 lea	 eax, DWORD PTR _pItemData$[ebp]
  00074	50		 push	 eax
  00075	ff 75 f8	 push	 DWORD PTR _iSlotIndex$[ebp]
  00078	e8 00 00 00 00	 call	 ?GetItemDataPtr@CPythonSafeBox@@QAEHKPAPAUpacket_item@@@Z ; CPythonSafeBox::GetItemDataPtr
  0007d	85 c0		 test	 eax, eax
  0007f	74 be		 je	 SHORT $LN11@safeboxGet

; 214  : 		return Py_BuildException();
; 215  : 
; 216  : 	return Py_BuildValue("i", pItemData->alSockets[iSocketIndex]);

  00081	8b 4d fc	 mov	 ecx, DWORD PTR _iSocketIndex$[ebp]
  00084	8b 45 f4	 mov	 eax, DWORD PTR _pItemData$[ebp]
  00087	ff 74 88 0e	 push	 DWORD PTR [eax+ecx*4+14]
  0008b	68 00 00 00 00	 push	 OFFSET ??_C@_01KBJDNOO@i@
  00090	ff 15 00 00 00
	00		 call	 DWORD PTR __imp__Py_BuildValue
  00096	83 c4 08	 add	 esp, 8

; 217  : }

  00099	8b e5		 mov	 esp, ebp
  0009b	5d		 pop	 ebp
  0009c	c3		 ret	 0
?safeboxGetItemMetinSocket@@YAPAU_object@@PAU1@0@Z ENDP	; safeboxGetItemMetinSocket
_TEXT	ENDS
; Function compile flags: /Ogtp
; File C:\Anka2Project\Anka2Project\Source\Binary\source\UserInterface\PythonSafeBox.cpp
; File C:\Anka2Project\Anka2Project\Source\Binary\source\eterBase\Singleton.h
; File C:\Anka2Project\Anka2Project\Source\Binary\source\UserInterface\PythonSafeBox.cpp
;	COMDAT ?safeboxGetItemAttribute@@YAPAU_object@@PAU1@0@Z
_TEXT	SEGMENT
_pItemData$2 = -12					; size = 4
_iSlotIndex$ = -8					; size = 4
_iAttrSlotIndex$ = -4					; size = 4
_poSelf$ = 8						; size = 4
_poArgs$ = 12						; size = 4
?safeboxGetItemAttribute@@YAPAU_object@@PAU1@0@Z PROC	; safeboxGetItemAttribute, COMDAT

; 220  : {

  00000	55		 push	 ebp
  00001	8b ec		 mov	 ebp, esp
  00003	83 ec 0c	 sub	 esp, 12			; 0000000cH

; 221  : 	int iSlotIndex;
; 222  : 	if (!PyTuple_GetInteger(poArgs, 0, &iSlotIndex))

  00006	8d 45 f8	 lea	 eax, DWORD PTR _iSlotIndex$[ebp]
  00009	50		 push	 eax
  0000a	6a 00		 push	 0
  0000c	ff 75 0c	 push	 DWORD PTR _poArgs$[ebp]
  0000f	e8 00 00 00 00	 call	 ?PyTuple_GetInteger@@YA_NPAU_object@@HPAH@Z ; PyTuple_GetInteger
  00014	83 c4 0c	 add	 esp, 12			; 0000000cH
  00017	84 c0		 test	 al, al
  00019	75 0e		 jne	 SHORT $LN2@safeboxGet
$LN11@safeboxGet:

; 236  : }

  0001b	6a 00		 push	 0
  0001d	e8 00 00 00 00	 call	 ?Py_BuildException@@YAPAU_object@@PBDZZ ; Py_BuildException
  00022	83 c4 04	 add	 esp, 4
  00025	8b e5		 mov	 esp, ebp
  00027	5d		 pop	 ebp
  00028	c3		 ret	 0
$LN2@safeboxGet:

; 223  : 		return Py_BuildException();
; 224  : 	int iAttrSlotIndex;
; 225  : 	if (!PyTuple_GetInteger(poArgs, 1, &iAttrSlotIndex))

  00029	8d 45 fc	 lea	 eax, DWORD PTR _iAttrSlotIndex$[ebp]
  0002c	50		 push	 eax
  0002d	6a 01		 push	 1
  0002f	ff 75 0c	 push	 DWORD PTR _poArgs$[ebp]
  00032	e8 00 00 00 00	 call	 ?PyTuple_GetInteger@@YA_NPAU_object@@HPAH@Z ; PyTuple_GetInteger
  00037	83 c4 0c	 add	 esp, 12			; 0000000cH
  0003a	84 c0		 test	 al, al
  0003c	74 dd		 je	 SHORT $LN11@safeboxGet

; 226  : 		return Py_BuildException();
; 227  : 
; 228  : 	if (iAttrSlotIndex >= 0 && iAttrSlotIndex < ITEM_ATTRIBUTE_SLOT_MAX_NUM)

  0003e	83 7d fc 06	 cmp	 DWORD PTR _iAttrSlotIndex$[ebp], 6
  00042	77 5e		 ja	 SHORT $LN5@safeboxGet
; File C:\Anka2Project\Anka2Project\Source\Binary\source\eterBase\Singleton.h

; 26   : 		assert(ms_singleton);

  00044	8b 0d 00 00 00
	00		 mov	 ecx, DWORD PTR ?ms_singleton@?$CSingleton@VCPythonSafeBox@@@@0PAVCPythonSafeBox@@A ; CSingleton<CPythonSafeBox>::ms_singleton
  0004a	85 c9		 test	 ecx, ecx
  0004c	75 1a		 jne	 SHORT $LN9@safeboxGet
  0004e	6a 1a		 push	 26			; 0000001aH
  00050	68 00 00 00 00	 push	 OFFSET ??_C@_1IO@CAJLEEOI@?$AAC?$AA?3?$AA?2?$AAA?$AAn?$AAk?$AAa?$AA2?$AAP?$AAr?$AAo?$AAj?$AAe?$AAc?$AAt@
  00055	68 00 00 00 00	 push	 OFFSET ??_C@_1BK@FMEHPMFE@?$AAm?$AAs?$AA_?$AAs?$AAi?$AAn?$AAg?$AAl?$AAe?$AAt?$AAo?$AAn@
  0005a	e8 00 00 00 00	 call	 __wassert
  0005f	8b 0d 00 00 00
	00		 mov	 ecx, DWORD PTR ?ms_singleton@?$CSingleton@VCPythonSafeBox@@@@0PAVCPythonSafeBox@@A ; CSingleton<CPythonSafeBox>::ms_singleton
  00065	83 c4 0c	 add	 esp, 12			; 0000000cH
$LN9@safeboxGet:
; File C:\Anka2Project\Anka2Project\Source\Binary\source\UserInterface\PythonSafeBox.cpp

; 231  : 		if (CPythonSafeBox::Instance().GetItemDataPtr(iSlotIndex, &pItemData))

  00068	8d 45 f4	 lea	 eax, DWORD PTR _pItemData$2[ebp]
  0006b	50		 push	 eax
  0006c	ff 75 f8	 push	 DWORD PTR _iSlotIndex$[ebp]
  0006f	e8 00 00 00 00	 call	 ?GetItemDataPtr@CPythonSafeBox@@QAEHKPAPAUpacket_item@@@Z ; CPythonSafeBox::GetItemDataPtr
  00074	85 c0		 test	 eax, eax
  00076	74 2a		 je	 SHORT $LN5@safeboxGet

; 232  : 			return Py_BuildValue("ii", pItemData->aAttr[iAttrSlotIndex].bType, pItemData->aAttr[iAttrSlotIndex].sValue);

  00078	8b 55 fc	 mov	 edx, DWORD PTR _iAttrSlotIndex$[ebp]
  0007b	8b 4d f4	 mov	 ecx, DWORD PTR _pItemData$2[ebp]
  0007e	8d 04 51	 lea	 eax, DWORD PTR [ecx+edx*2]
  00081	0f bf 44 02 1b	 movsx	 eax, WORD PTR [edx+eax+27]
  00086	50		 push	 eax
  00087	8d 04 51	 lea	 eax, DWORD PTR [ecx+edx*2]
  0008a	0f b6 44 02 1a	 movzx	 eax, BYTE PTR [edx+eax+26]
  0008f	50		 push	 eax

; 236  : }

  00090	68 00 00 00 00	 push	 OFFSET ??_C@_02PDIHAGKM@ii@
  00095	ff 15 00 00 00
	00		 call	 DWORD PTR __imp__Py_BuildValue
  0009b	83 c4 0c	 add	 esp, 12			; 0000000cH
  0009e	8b e5		 mov	 esp, ebp
  000a0	5d		 pop	 ebp
  000a1	c3		 ret	 0
$LN5@safeboxGet:

; 233  : 	}
; 234  : 
; 235  : 	return Py_BuildValue("ii", 0, 0);

  000a2	6a 00		 push	 0
  000a4	6a 00		 push	 0

; 236  : }

  000a6	68 00 00 00 00	 push	 OFFSET ??_C@_02PDIHAGKM@ii@
  000ab	ff 15 00 00 00
	00		 call	 DWORD PTR __imp__Py_BuildValue
  000b1	83 c4 0c	 add	 esp, 12			; 0000000cH
  000b4	8b e5		 mov	 esp, ebp
  000b6	5d		 pop	 ebp
  000b7	c3		 ret	 0
?safeboxGetItemAttribute@@YAPAU_object@@PAU1@0@Z ENDP	; safeboxGetItemAttribute
_TEXT	ENDS
; Function compile flags: /Ogtp
; File C:\Anka2Project\Anka2Project\Source\Binary\source\UserInterface\PythonSafeBox.cpp
; File C:\Anka2Project\Anka2Project\Source\Binary\source\eterBase\Singleton.h
; File C:\Anka2Project\Anka2Project\Source\Binary\source\UserInterface\PythonSafeBox.cpp
;	COMDAT ?safeboxGetMoney@@YAPAU_object@@PAU1@0@Z
_TEXT	SEGMENT
_poSelf$ = 8						; size = 4
_poArgs$ = 12						; size = 4
?safeboxGetMoney@@YAPAU_object@@PAU1@0@Z PROC		; safeboxGetMoney, COMDAT
; File C:\Anka2Project\Anka2Project\Source\Binary\source\eterBase\Singleton.h

; 26   : 		assert(ms_singleton);

  00000	8b 0d 00 00 00
	00		 mov	 ecx, DWORD PTR ?ms_singleton@?$CSingleton@VCPythonSafeBox@@@@0PAVCPythonSafeBox@@A ; CSingleton<CPythonSafeBox>::ms_singleton
  00006	85 c9		 test	 ecx, ecx
  00008	75 1a		 jne	 SHORT $LN5@safeboxGet
  0000a	6a 1a		 push	 26			; 0000001aH
  0000c	68 00 00 00 00	 push	 OFFSET ??_C@_1IO@CAJLEEOI@?$AAC?$AA?3?$AA?2?$AAA?$AAn?$AAk?$AAa?$AA2?$AAP?$AAr?$AAo?$AAj?$AAe?$AAc?$AAt@
  00011	68 00 00 00 00	 push	 OFFSET ??_C@_1BK@FMEHPMFE@?$AAm?$AAs?$AA_?$AAs?$AAi?$AAn?$AAg?$AAl?$AAe?$AAt?$AAo?$AAn@
  00016	e8 00 00 00 00	 call	 __wassert
  0001b	8b 0d 00 00 00
	00		 mov	 ecx, DWORD PTR ?ms_singleton@?$CSingleton@VCPythonSafeBox@@@@0PAVCPythonSafeBox@@A ; CSingleton<CPythonSafeBox>::ms_singleton
  00021	83 c4 0c	 add	 esp, 12			; 0000000cH
$LN5@safeboxGet:
; File C:\Anka2Project\Anka2Project\Source\Binary\source\UserInterface\PythonSafeBox.cpp

; 240  : 	return Py_BuildValue("i", CPythonSafeBox::Instance().GetMoney());

  00024	e8 00 00 00 00	 call	 ?GetMoney@CPythonSafeBox@@QAEKXZ ; CPythonSafeBox::GetMoney
  00029	50		 push	 eax
  0002a	68 00 00 00 00	 push	 OFFSET ??_C@_01KBJDNOO@i@
  0002f	ff 15 00 00 00
	00		 call	 DWORD PTR __imp__Py_BuildValue
  00035	83 c4 08	 add	 esp, 8

; 241  : }

  00038	c3		 ret	 0
?safeboxGetMoney@@YAPAU_object@@PAU1@0@Z ENDP		; safeboxGetMoney
_TEXT	ENDS
; Function compile flags: /Ogtp
; File C:\Anka2Project\Anka2Project\Source\Binary\source\UserInterface\PythonSafeBox.cpp
; File C:\Anka2Project\Anka2Project\Source\Binary\source\eterBase\Singleton.h
; File C:\Anka2Project\Anka2Project\Source\Binary\source\UserInterface\PythonSafeBox.cpp
;	COMDAT ?safeboxGetMallItemID@@YAPAU_object@@PAU1@0@Z
_TEXT	SEGMENT
_pInstance$ = -8					; size = 4
_ipos$ = -4						; size = 4
_poSelf$ = 8						; size = 4
_poArgs$ = 12						; size = 4
?safeboxGetMallItemID@@YAPAU_object@@PAU1@0@Z PROC	; safeboxGetMallItemID, COMDAT

; 244  : {

  00000	55		 push	 ebp
  00001	8b ec		 mov	 ebp, esp
  00003	83 ec 08	 sub	 esp, 8

; 245  : 	int ipos;
; 246  : 	if (!PyTuple_GetInteger(poArgs, 0, &ipos))

  00006	8d 45 fc	 lea	 eax, DWORD PTR _ipos$[ebp]
  00009	50		 push	 eax
  0000a	6a 00		 push	 0
  0000c	ff 75 0c	 push	 DWORD PTR _poArgs$[ebp]
  0000f	e8 00 00 00 00	 call	 ?PyTuple_GetInteger@@YA_NPAU_object@@HPAH@Z ; PyTuple_GetInteger
  00014	83 c4 0c	 add	 esp, 12			; 0000000cH
  00017	84 c0		 test	 al, al
  00019	75 09		 jne	 SHORT $LN2@safeboxGet

; 247  : 		return Py_BadArgument();

  0001b	e8 00 00 00 00	 call	 ?Py_BadArgument@@YAPAU_object@@XZ ; Py_BadArgument

; 254  : }

  00020	8b e5		 mov	 esp, ebp
  00022	5d		 pop	 ebp
  00023	c3		 ret	 0
$LN2@safeboxGet:
; File C:\Anka2Project\Anka2Project\Source\Binary\source\eterBase\Singleton.h

; 26   : 		assert(ms_singleton);

  00024	8b 0d 00 00 00
	00		 mov	 ecx, DWORD PTR ?ms_singleton@?$CSingleton@VCPythonSafeBox@@@@0PAVCPythonSafeBox@@A ; CSingleton<CPythonSafeBox>::ms_singleton
  0002a	85 c9		 test	 ecx, ecx
  0002c	75 1a		 jne	 SHORT $LN7@safeboxGet
  0002e	6a 1a		 push	 26			; 0000001aH
  00030	68 00 00 00 00	 push	 OFFSET ??_C@_1IO@CAJLEEOI@?$AAC?$AA?3?$AA?2?$AAA?$AAn?$AAk?$AAa?$AA2?$AAP?$AAr?$AAo?$AAj?$AAe?$AAc?$AAt@
  00035	68 00 00 00 00	 push	 OFFSET ??_C@_1BK@FMEHPMFE@?$AAm?$AAs?$AA_?$AAs?$AAi?$AAn?$AAg?$AAl?$AAe?$AAt?$AAo?$AAn@
  0003a	e8 00 00 00 00	 call	 __wassert
  0003f	8b 0d 00 00 00
	00		 mov	 ecx, DWORD PTR ?ms_singleton@?$CSingleton@VCPythonSafeBox@@@@0PAVCPythonSafeBox@@A ; CSingleton<CPythonSafeBox>::ms_singleton
  00045	83 c4 0c	 add	 esp, 12			; 0000000cH
$LN7@safeboxGet:
; File C:\Anka2Project\Anka2Project\Source\Binary\source\UserInterface\PythonSafeBox.cpp

; 250  : 	if (!CPythonSafeBox::Instance().GetMallItemDataPtr(ipos, &pInstance))

  00048	8d 45 f8	 lea	 eax, DWORD PTR _pInstance$[ebp]
  0004b	50		 push	 eax
  0004c	ff 75 fc	 push	 DWORD PTR _ipos$[ebp]
  0004f	e8 00 00 00 00	 call	 ?GetMallItemDataPtr@CPythonSafeBox@@QAEHKPAPAUpacket_item@@@Z ; CPythonSafeBox::GetMallItemDataPtr
  00054	85 c0		 test	 eax, eax
  00056	75 0d		 jne	 SHORT $LN3@safeboxGet

; 251  : 		return Py_BuildException();

  00058	50		 push	 eax
  00059	e8 00 00 00 00	 call	 ?Py_BuildException@@YAPAU_object@@PBDZZ ; Py_BuildException
  0005e	83 c4 04	 add	 esp, 4

; 254  : }

  00061	8b e5		 mov	 esp, ebp
  00063	5d		 pop	 ebp
  00064	c3		 ret	 0
$LN3@safeboxGet:

; 252  : 
; 253  : 	return Py_BuildValue("i", pInstance->vnum);

  00065	8b 45 f8	 mov	 eax, DWORD PTR _pInstance$[ebp]
  00068	ff 30		 push	 DWORD PTR [eax]
  0006a	68 00 00 00 00	 push	 OFFSET ??_C@_01KBJDNOO@i@
  0006f	ff 15 00 00 00
	00		 call	 DWORD PTR __imp__Py_BuildValue
  00075	83 c4 08	 add	 esp, 8

; 254  : }

  00078	8b e5		 mov	 esp, ebp
  0007a	5d		 pop	 ebp
  0007b	c3		 ret	 0
?safeboxGetMallItemID@@YAPAU_object@@PAU1@0@Z ENDP	; safeboxGetMallItemID
_TEXT	ENDS
; Function compile flags: /Ogtp
; File C:\Anka2Project\Anka2Project\Source\Binary\source\UserInterface\PythonSafeBox.cpp
; File C:\Anka2Project\Anka2Project\Source\Binary\source\eterBase\Singleton.h
; File C:\Anka2Project\Anka2Project\Source\Binary\source\UserInterface\PythonSafeBox.cpp
;	COMDAT ?safeboxGetMallItemCount@@YAPAU_object@@PAU1@0@Z
_TEXT	SEGMENT
_pInstance$ = -8					; size = 4
_ipos$ = -4						; size = 4
_poSelf$ = 8						; size = 4
_poArgs$ = 12						; size = 4
?safeboxGetMallItemCount@@YAPAU_object@@PAU1@0@Z PROC	; safeboxGetMallItemCount, COMDAT

; 257  : {

  00000	55		 push	 ebp
  00001	8b ec		 mov	 ebp, esp
  00003	83 ec 08	 sub	 esp, 8

; 258  : 	int ipos;
; 259  : 	if (!PyTuple_GetInteger(poArgs, 0, &ipos))

  00006	8d 45 fc	 lea	 eax, DWORD PTR _ipos$[ebp]
  00009	50		 push	 eax
  0000a	6a 00		 push	 0
  0000c	ff 75 0c	 push	 DWORD PTR _poArgs$[ebp]
  0000f	e8 00 00 00 00	 call	 ?PyTuple_GetInteger@@YA_NPAU_object@@HPAH@Z ; PyTuple_GetInteger
  00014	83 c4 0c	 add	 esp, 12			; 0000000cH
  00017	84 c0		 test	 al, al
  00019	75 09		 jne	 SHORT $LN2@safeboxGet

; 260  : 		return Py_BadArgument();

  0001b	e8 00 00 00 00	 call	 ?Py_BadArgument@@YAPAU_object@@XZ ; Py_BadArgument

; 267  : }

  00020	8b e5		 mov	 esp, ebp
  00022	5d		 pop	 ebp
  00023	c3		 ret	 0
$LN2@safeboxGet:
; File C:\Anka2Project\Anka2Project\Source\Binary\source\eterBase\Singleton.h

; 26   : 		assert(ms_singleton);

  00024	8b 0d 00 00 00
	00		 mov	 ecx, DWORD PTR ?ms_singleton@?$CSingleton@VCPythonSafeBox@@@@0PAVCPythonSafeBox@@A ; CSingleton<CPythonSafeBox>::ms_singleton
  0002a	85 c9		 test	 ecx, ecx
  0002c	75 1a		 jne	 SHORT $LN7@safeboxGet
  0002e	6a 1a		 push	 26			; 0000001aH
  00030	68 00 00 00 00	 push	 OFFSET ??_C@_1IO@CAJLEEOI@?$AAC?$AA?3?$AA?2?$AAA?$AAn?$AAk?$AAa?$AA2?$AAP?$AAr?$AAo?$AAj?$AAe?$AAc?$AAt@
  00035	68 00 00 00 00	 push	 OFFSET ??_C@_1BK@FMEHPMFE@?$AAm?$AAs?$AA_?$AAs?$AAi?$AAn?$AAg?$AAl?$AAe?$AAt?$AAo?$AAn@
  0003a	e8 00 00 00 00	 call	 __wassert
  0003f	8b 0d 00 00 00
	00		 mov	 ecx, DWORD PTR ?ms_singleton@?$CSingleton@VCPythonSafeBox@@@@0PAVCPythonSafeBox@@A ; CSingleton<CPythonSafeBox>::ms_singleton
  00045	83 c4 0c	 add	 esp, 12			; 0000000cH
$LN7@safeboxGet:
; File C:\Anka2Project\Anka2Project\Source\Binary\source\UserInterface\PythonSafeBox.cpp

; 263  : 	if (!CPythonSafeBox::Instance().GetMallItemDataPtr(ipos, &pInstance))

  00048	8d 45 f8	 lea	 eax, DWORD PTR _pInstance$[ebp]
  0004b	50		 push	 eax
  0004c	ff 75 fc	 push	 DWORD PTR _ipos$[ebp]
  0004f	e8 00 00 00 00	 call	 ?GetMallItemDataPtr@CPythonSafeBox@@QAEHKPAPAUpacket_item@@@Z ; CPythonSafeBox::GetMallItemDataPtr
  00054	85 c0		 test	 eax, eax
  00056	75 0d		 jne	 SHORT $LN3@safeboxGet

; 264  : 		return Py_BuildException();

  00058	50		 push	 eax
  00059	e8 00 00 00 00	 call	 ?Py_BuildException@@YAPAU_object@@PBDZZ ; Py_BuildException
  0005e	83 c4 04	 add	 esp, 4

; 267  : }

  00061	8b e5		 mov	 esp, ebp
  00063	5d		 pop	 ebp
  00064	c3		 ret	 0
$LN3@safeboxGet:

; 265  : 
; 266  : 	return Py_BuildValue("i", pInstance->count);

  00065	8b 45 f8	 mov	 eax, DWORD PTR _pInstance$[ebp]
  00068	0f b7 40 04	 movzx	 eax, WORD PTR [eax+4]
  0006c	50		 push	 eax
  0006d	68 00 00 00 00	 push	 OFFSET ??_C@_01KBJDNOO@i@
  00072	ff 15 00 00 00
	00		 call	 DWORD PTR __imp__Py_BuildValue
  00078	83 c4 08	 add	 esp, 8

; 267  : }

  0007b	8b e5		 mov	 esp, ebp
  0007d	5d		 pop	 ebp
  0007e	c3		 ret	 0
?safeboxGetMallItemCount@@YAPAU_object@@PAU1@0@Z ENDP	; safeboxGetMallItemCount
_TEXT	ENDS
; Function compile flags: /Ogtp
; File C:\Anka2Project\Anka2Project\Source\Binary\source\UserInterface\PythonSafeBox.cpp
; File C:\Anka2Project\Anka2Project\Source\Binary\source\eterBase\Singleton.h
; File C:\Anka2Project\Anka2Project\Source\Binary\source\UserInterface\PythonSafeBox.cpp
;	COMDAT ?safeboxGetMallItemMetinSocket@@YAPAU_object@@PAU1@0@Z
_TEXT	SEGMENT
_pItemData$ = -12					; size = 4
_iSlotIndex$ = -8					; size = 4
_iSocketIndex$ = -4					; size = 4
_poSelf$ = 8						; size = 4
_poArgs$ = 12						; size = 4
?safeboxGetMallItemMetinSocket@@YAPAU_object@@PAU1@0@Z PROC ; safeboxGetMallItemMetinSocket, COMDAT

; 270  : {

  00000	55		 push	 ebp
  00001	8b ec		 mov	 ebp, esp
  00003	83 ec 0c	 sub	 esp, 12			; 0000000cH

; 271  : 	int iSlotIndex;
; 272  : 	if (!PyTuple_GetInteger(poArgs, 0, &iSlotIndex))

  00006	8d 45 f8	 lea	 eax, DWORD PTR _iSlotIndex$[ebp]
  00009	50		 push	 eax
  0000a	6a 00		 push	 0
  0000c	ff 75 0c	 push	 DWORD PTR _poArgs$[ebp]
  0000f	e8 00 00 00 00	 call	 ?PyTuple_GetInteger@@YA_NPAU_object@@HPAH@Z ; PyTuple_GetInteger
  00014	83 c4 0c	 add	 esp, 12			; 0000000cH
  00017	84 c0		 test	 al, al
  00019	75 09		 jne	 SHORT $LN2@safeboxGet
$LN10@safeboxGet:

; 286  : }

  0001b	e8 00 00 00 00	 call	 ?Py_BadArgument@@YAPAU_object@@XZ ; Py_BadArgument
  00020	8b e5		 mov	 esp, ebp
  00022	5d		 pop	 ebp
  00023	c3		 ret	 0
$LN2@safeboxGet:

; 273  : 		return Py_BadArgument();
; 274  : 	int iSocketIndex;
; 275  : 	if (!PyTuple_GetInteger(poArgs, 1, &iSocketIndex))

  00024	8d 45 fc	 lea	 eax, DWORD PTR _iSocketIndex$[ebp]
  00027	50		 push	 eax
  00028	6a 01		 push	 1
  0002a	ff 75 0c	 push	 DWORD PTR _poArgs$[ebp]
  0002d	e8 00 00 00 00	 call	 ?PyTuple_GetInteger@@YA_NPAU_object@@HPAH@Z ; PyTuple_GetInteger
  00032	83 c4 0c	 add	 esp, 12			; 0000000cH
  00035	84 c0		 test	 al, al
  00037	74 e2		 je	 SHORT $LN10@safeboxGet

; 276  : 		return Py_BadArgument();
; 277  : 
; 278  : 	if (iSocketIndex >= ITEM_SOCKET_SLOT_MAX_NUM)

  00039	83 7d fc 03	 cmp	 DWORD PTR _iSocketIndex$[ebp], 3
  0003d	7c 0e		 jl	 SHORT $LN4@safeboxGet
$LN11@safeboxGet:

; 286  : }

  0003f	6a 00		 push	 0
  00041	e8 00 00 00 00	 call	 ?Py_BuildException@@YAPAU_object@@PBDZZ ; Py_BuildException
  00046	83 c4 04	 add	 esp, 4
  00049	8b e5		 mov	 esp, ebp
  0004b	5d		 pop	 ebp
  0004c	c3		 ret	 0
$LN4@safeboxGet:
; File C:\Anka2Project\Anka2Project\Source\Binary\source\eterBase\Singleton.h

; 26   : 		assert(ms_singleton);

  0004d	8b 0d 00 00 00
	00		 mov	 ecx, DWORD PTR ?ms_singleton@?$CSingleton@VCPythonSafeBox@@@@0PAVCPythonSafeBox@@A ; CSingleton<CPythonSafeBox>::ms_singleton
  00053	85 c9		 test	 ecx, ecx
  00055	75 1a		 jne	 SHORT $LN9@safeboxGet
  00057	6a 1a		 push	 26			; 0000001aH
  00059	68 00 00 00 00	 push	 OFFSET ??_C@_1IO@CAJLEEOI@?$AAC?$AA?3?$AA?2?$AAA?$AAn?$AAk?$AAa?$AA2?$AAP?$AAr?$AAo?$AAj?$AAe?$AAc?$AAt@
  0005e	68 00 00 00 00	 push	 OFFSET ??_C@_1BK@FMEHPMFE@?$AAm?$AAs?$AA_?$AAs?$AAi?$AAn?$AAg?$AAl?$AAe?$AAt?$AAo?$AAn@
  00063	e8 00 00 00 00	 call	 __wassert
  00068	8b 0d 00 00 00
	00		 mov	 ecx, DWORD PTR ?ms_singleton@?$CSingleton@VCPythonSafeBox@@@@0PAVCPythonSafeBox@@A ; CSingleton<CPythonSafeBox>::ms_singleton
  0006e	83 c4 0c	 add	 esp, 12			; 0000000cH
$LN9@safeboxGet:
; File C:\Anka2Project\Anka2Project\Source\Binary\source\UserInterface\PythonSafeBox.cpp

; 282  : 	if (!CPythonSafeBox::Instance().GetMallItemDataPtr(iSlotIndex, &pItemData))

  00071	8d 45 f4	 lea	 eax, DWORD PTR _pItemData$[ebp]
  00074	50		 push	 eax
  00075	ff 75 f8	 push	 DWORD PTR _iSlotIndex$[ebp]
  00078	e8 00 00 00 00	 call	 ?GetMallItemDataPtr@CPythonSafeBox@@QAEHKPAPAUpacket_item@@@Z ; CPythonSafeBox::GetMallItemDataPtr
  0007d	85 c0		 test	 eax, eax
  0007f	74 be		 je	 SHORT $LN11@safeboxGet

; 283  : 		return Py_BuildException();
; 284  : 
; 285  : 	return Py_BuildValue("i", pItemData->alSockets[iSocketIndex]);

  00081	8b 4d fc	 mov	 ecx, DWORD PTR _iSocketIndex$[ebp]
  00084	8b 45 f4	 mov	 eax, DWORD PTR _pItemData$[ebp]
  00087	ff 74 88 0e	 push	 DWORD PTR [eax+ecx*4+14]
  0008b	68 00 00 00 00	 push	 OFFSET ??_C@_01KBJDNOO@i@
  00090	ff 15 00 00 00
	00		 call	 DWORD PTR __imp__Py_BuildValue
  00096	83 c4 08	 add	 esp, 8

; 286  : }

  00099	8b e5		 mov	 esp, ebp
  0009b	5d		 pop	 ebp
  0009c	c3		 ret	 0
?safeboxGetMallItemMetinSocket@@YAPAU_object@@PAU1@0@Z ENDP ; safeboxGetMallItemMetinSocket
_TEXT	ENDS
; Function compile flags: /Ogtp
; File C:\Anka2Project\Anka2Project\Source\Binary\source\UserInterface\PythonSafeBox.cpp
; File C:\Anka2Project\Anka2Project\Source\Binary\source\eterBase\Singleton.h
; File C:\Anka2Project\Anka2Project\Source\Binary\source\UserInterface\PythonSafeBox.cpp
;	COMDAT ?safeboxGetMallItemAttribute@@YAPAU_object@@PAU1@0@Z
_TEXT	SEGMENT
_pItemData$2 = -12					; size = 4
_iSlotIndex$ = -8					; size = 4
_iAttrSlotIndex$ = -4					; size = 4
_poSelf$ = 8						; size = 4
_poArgs$ = 12						; size = 4
?safeboxGetMallItemAttribute@@YAPAU_object@@PAU1@0@Z PROC ; safeboxGetMallItemAttribute, COMDAT

; 289  : {

  00000	55		 push	 ebp
  00001	8b ec		 mov	 ebp, esp
  00003	83 ec 0c	 sub	 esp, 12			; 0000000cH

; 290  : 	int iSlotIndex;
; 291  : 	if (!PyTuple_GetInteger(poArgs, 0, &iSlotIndex))

  00006	8d 45 f8	 lea	 eax, DWORD PTR _iSlotIndex$[ebp]
  00009	50		 push	 eax
  0000a	6a 00		 push	 0
  0000c	ff 75 0c	 push	 DWORD PTR _poArgs$[ebp]
  0000f	e8 00 00 00 00	 call	 ?PyTuple_GetInteger@@YA_NPAU_object@@HPAH@Z ; PyTuple_GetInteger
  00014	83 c4 0c	 add	 esp, 12			; 0000000cH
  00017	84 c0		 test	 al, al
  00019	75 0e		 jne	 SHORT $LN2@safeboxGet
$LN11@safeboxGet:

; 305  : }

  0001b	6a 00		 push	 0
  0001d	e8 00 00 00 00	 call	 ?Py_BuildException@@YAPAU_object@@PBDZZ ; Py_BuildException
  00022	83 c4 04	 add	 esp, 4
  00025	8b e5		 mov	 esp, ebp
  00027	5d		 pop	 ebp
  00028	c3		 ret	 0
$LN2@safeboxGet:

; 292  : 		return Py_BuildException();
; 293  : 	int iAttrSlotIndex;
; 294  : 	if (!PyTuple_GetInteger(poArgs, 1, &iAttrSlotIndex))

  00029	8d 45 fc	 lea	 eax, DWORD PTR _iAttrSlotIndex$[ebp]
  0002c	50		 push	 eax
  0002d	6a 01		 push	 1
  0002f	ff 75 0c	 push	 DWORD PTR _poArgs$[ebp]
  00032	e8 00 00 00 00	 call	 ?PyTuple_GetInteger@@YA_NPAU_object@@HPAH@Z ; PyTuple_GetInteger
  00037	83 c4 0c	 add	 esp, 12			; 0000000cH
  0003a	84 c0		 test	 al, al
  0003c	74 dd		 je	 SHORT $LN11@safeboxGet

; 295  : 		return Py_BuildException();
; 296  : 
; 297  : 	if (iAttrSlotIndex >= 0 && iAttrSlotIndex < ITEM_ATTRIBUTE_SLOT_MAX_NUM)

  0003e	83 7d fc 06	 cmp	 DWORD PTR _iAttrSlotIndex$[ebp], 6
  00042	77 5e		 ja	 SHORT $LN5@safeboxGet
; File C:\Anka2Project\Anka2Project\Source\Binary\source\eterBase\Singleton.h

; 26   : 		assert(ms_singleton);

  00044	8b 0d 00 00 00
	00		 mov	 ecx, DWORD PTR ?ms_singleton@?$CSingleton@VCPythonSafeBox@@@@0PAVCPythonSafeBox@@A ; CSingleton<CPythonSafeBox>::ms_singleton
  0004a	85 c9		 test	 ecx, ecx
  0004c	75 1a		 jne	 SHORT $LN9@safeboxGet
  0004e	6a 1a		 push	 26			; 0000001aH
  00050	68 00 00 00 00	 push	 OFFSET ??_C@_1IO@CAJLEEOI@?$AAC?$AA?3?$AA?2?$AAA?$AAn?$AAk?$AAa?$AA2?$AAP?$AAr?$AAo?$AAj?$AAe?$AAc?$AAt@
  00055	68 00 00 00 00	 push	 OFFSET ??_C@_1BK@FMEHPMFE@?$AAm?$AAs?$AA_?$AAs?$AAi?$AAn?$AAg?$AAl?$AAe?$AAt?$AAo?$AAn@
  0005a	e8 00 00 00 00	 call	 __wassert
  0005f	8b 0d 00 00 00
	00		 mov	 ecx, DWORD PTR ?ms_singleton@?$CSingleton@VCPythonSafeBox@@@@0PAVCPythonSafeBox@@A ; CSingleton<CPythonSafeBox>::ms_singleton
  00065	83 c4 0c	 add	 esp, 12			; 0000000cH
$LN9@safeboxGet:
; File C:\Anka2Project\Anka2Project\Source\Binary\source\UserInterface\PythonSafeBox.cpp

; 300  : 		if (CPythonSafeBox::Instance().GetMallItemDataPtr(iSlotIndex, &pItemData))

  00068	8d 45 f4	 lea	 eax, DWORD PTR _pItemData$2[ebp]
  0006b	50		 push	 eax
  0006c	ff 75 f8	 push	 DWORD PTR _iSlotIndex$[ebp]
  0006f	e8 00 00 00 00	 call	 ?GetMallItemDataPtr@CPythonSafeBox@@QAEHKPAPAUpacket_item@@@Z ; CPythonSafeBox::GetMallItemDataPtr
  00074	85 c0		 test	 eax, eax
  00076	74 2a		 je	 SHORT $LN5@safeboxGet

; 301  : 			return Py_BuildValue("ii", pItemData->aAttr[iAttrSlotIndex].bType, pItemData->aAttr[iAttrSlotIndex].sValue);

  00078	8b 55 fc	 mov	 edx, DWORD PTR _iAttrSlotIndex$[ebp]
  0007b	8b 4d f4	 mov	 ecx, DWORD PTR _pItemData$2[ebp]
  0007e	8d 04 51	 lea	 eax, DWORD PTR [ecx+edx*2]
  00081	0f bf 44 02 1b	 movsx	 eax, WORD PTR [edx+eax+27]
  00086	50		 push	 eax
  00087	8d 04 51	 lea	 eax, DWORD PTR [ecx+edx*2]
  0008a	0f b6 44 02 1a	 movzx	 eax, BYTE PTR [edx+eax+26]
  0008f	50		 push	 eax

; 305  : }

  00090	68 00 00 00 00	 push	 OFFSET ??_C@_02PDIHAGKM@ii@
  00095	ff 15 00 00 00
	00		 call	 DWORD PTR __imp__Py_BuildValue
  0009b	83 c4 0c	 add	 esp, 12			; 0000000cH
  0009e	8b e5		 mov	 esp, ebp
  000a0	5d		 pop	 ebp
  000a1	c3		 ret	 0
$LN5@safeboxGet:

; 302  : 	}
; 303  : 
; 304  : 	return Py_BuildValue("ii", 0, 0);

  000a2	6a 00		 push	 0
  000a4	6a 00		 push	 0

; 305  : }

  000a6	68 00 00 00 00	 push	 OFFSET ??_C@_02PDIHAGKM@ii@
  000ab	ff 15 00 00 00
	00		 call	 DWORD PTR __imp__Py_BuildValue
  000b1	83 c4 0c	 add	 esp, 12			; 0000000cH
  000b4	8b e5		 mov	 esp, ebp
  000b6	5d		 pop	 ebp
  000b7	c3		 ret	 0
?safeboxGetMallItemAttribute@@YAPAU_object@@PAU1@0@Z ENDP ; safeboxGetMallItemAttribute
_TEXT	ENDS
; Function compile flags: /Ogtp
; File C:\Anka2Project\Anka2Project\Source\Binary\source\UserInterface\PythonSafeBox.cpp
; File C:\Anka2Project\Anka2Project\Source\Binary\source\eterBase\Singleton.h
; File C:\Anka2Project\Anka2Project\Source\Binary\source\UserInterface\PythonSafeBox.cpp
;	COMDAT ?safeboxGetMallSize@@YAPAU_object@@PAU1@0@Z
_TEXT	SEGMENT
_poSelf$ = 8						; size = 4
_poArgs$ = 12						; size = 4
?safeboxGetMallSize@@YAPAU_object@@PAU1@0@Z PROC	; safeboxGetMallSize, COMDAT
; File C:\Anka2Project\Anka2Project\Source\Binary\source\eterBase\Singleton.h

; 26   : 		assert(ms_singleton);

  00000	8b 0d 00 00 00
	00		 mov	 ecx, DWORD PTR ?ms_singleton@?$CSingleton@VCPythonSafeBox@@@@0PAVCPythonSafeBox@@A ; CSingleton<CPythonSafeBox>::ms_singleton
  00006	85 c9		 test	 ecx, ecx
  00008	75 1a		 jne	 SHORT $LN5@safeboxGet
  0000a	6a 1a		 push	 26			; 0000001aH
  0000c	68 00 00 00 00	 push	 OFFSET ??_C@_1IO@CAJLEEOI@?$AAC?$AA?3?$AA?2?$AAA?$AAn?$AAk?$AAa?$AA2?$AAP?$AAr?$AAo?$AAj?$AAe?$AAc?$AAt@
  00011	68 00 00 00 00	 push	 OFFSET ??_C@_1BK@FMEHPMFE@?$AAm?$AAs?$AA_?$AAs?$AAi?$AAn?$AAg?$AAl?$AAe?$AAt?$AAo?$AAn@
  00016	e8 00 00 00 00	 call	 __wassert
  0001b	8b 0d 00 00 00
	00		 mov	 ecx, DWORD PTR ?ms_singleton@?$CSingleton@VCPythonSafeBox@@@@0PAVCPythonSafeBox@@A ; CSingleton<CPythonSafeBox>::ms_singleton
  00021	83 c4 0c	 add	 esp, 12			; 0000000cH
$LN5@safeboxGet:
; File C:\Anka2Project\Anka2Project\Source\Binary\source\UserInterface\PythonSafeBox.cpp

; 309  : 	return Py_BuildValue("i", CPythonSafeBox::Instance().GetMallSize());

  00024	e8 00 00 00 00	 call	 ?GetMallSize@CPythonSafeBox@@QAEKXZ ; CPythonSafeBox::GetMallSize
  00029	50		 push	 eax
  0002a	68 00 00 00 00	 push	 OFFSET ??_C@_01KBJDNOO@i@
  0002f	ff 15 00 00 00
	00		 call	 DWORD PTR __imp__Py_BuildValue
  00035	83 c4 08	 add	 esp, 8

; 310  : }

  00038	c3		 ret	 0
?safeboxGetMallSize@@YAPAU_object@@PAU1@0@Z ENDP	; safeboxGetMallSize
_TEXT	ENDS
; Function compile flags: /Ogtp
; File C:\Anka2Project\Anka2Project\Source\Binary\source\UserInterface\PythonSafeBox.cpp
; File C:\Anka2Project\Anka2Project\Source\Binary\source\eterBase\Singleton.h
; File C:\Anka2Project\Anka2Project\Source\Binary\source\UserInterface\PythonSafeBox.cpp
;	COMDAT ?safeboxGetItemChangeLookVnum@@YAPAU_object@@PAU1@0@Z
_TEXT	SEGMENT
_pInstance$ = -8					; size = 4
_iSlotIndex$ = -4					; size = 4
_poSelf$ = 8						; size = 4
_poArgs$ = 12						; size = 4
?safeboxGetItemChangeLookVnum@@YAPAU_object@@PAU1@0@Z PROC ; safeboxGetItemChangeLookVnum, COMDAT

; 314  : {

  00000	55		 push	 ebp
  00001	8b ec		 mov	 ebp, esp
  00003	83 ec 08	 sub	 esp, 8

; 315  : 	int iSlotIndex;
; 316  : 	if (!PyTuple_GetInteger(poArgs, 0, &iSlotIndex))

  00006	8d 45 fc	 lea	 eax, DWORD PTR _iSlotIndex$[ebp]
  00009	50		 push	 eax
  0000a	6a 00		 push	 0
  0000c	ff 75 0c	 push	 DWORD PTR _poArgs$[ebp]
  0000f	e8 00 00 00 00	 call	 ?PyTuple_GetInteger@@YA_NPAU_object@@HPAH@Z ; PyTuple_GetInteger
  00014	83 c4 0c	 add	 esp, 12			; 0000000cH
  00017	84 c0		 test	 al, al
  00019	75 0e		 jne	 SHORT $LN2@safeboxGet

; 317  : 		return Py_BuildException();

  0001b	6a 00		 push	 0
  0001d	e8 00 00 00 00	 call	 ?Py_BuildException@@YAPAU_object@@PBDZZ ; Py_BuildException
  00022	83 c4 04	 add	 esp, 4

; 324  : }

  00025	8b e5		 mov	 esp, ebp
  00027	5d		 pop	 ebp
  00028	c3		 ret	 0
$LN2@safeboxGet:
; File C:\Anka2Project\Anka2Project\Source\Binary\source\eterBase\Singleton.h

; 26   : 		assert(ms_singleton);

  00029	8b 0d 00 00 00
	00		 mov	 ecx, DWORD PTR ?ms_singleton@?$CSingleton@VCPythonSafeBox@@@@0PAVCPythonSafeBox@@A ; CSingleton<CPythonSafeBox>::ms_singleton
  0002f	85 c9		 test	 ecx, ecx
  00031	75 1a		 jne	 SHORT $LN7@safeboxGet
  00033	6a 1a		 push	 26			; 0000001aH
  00035	68 00 00 00 00	 push	 OFFSET ??_C@_1IO@CAJLEEOI@?$AAC?$AA?3?$AA?2?$AAA?$AAn?$AAk?$AAa?$AA2?$AAP?$AAr?$AAo?$AAj?$AAe?$AAc?$AAt@
  0003a	68 00 00 00 00	 push	 OFFSET ??_C@_1BK@FMEHPMFE@?$AAm?$AAs?$AA_?$AAs?$AAi?$AAn?$AAg?$AAl?$AAe?$AAt?$AAo?$AAn@
  0003f	e8 00 00 00 00	 call	 __wassert
  00044	8b 0d 00 00 00
	00		 mov	 ecx, DWORD PTR ?ms_singleton@?$CSingleton@VCPythonSafeBox@@@@0PAVCPythonSafeBox@@A ; CSingleton<CPythonSafeBox>::ms_singleton
  0004a	83 c4 0c	 add	 esp, 12			; 0000000cH
$LN7@safeboxGet:
; File C:\Anka2Project\Anka2Project\Source\Binary\source\UserInterface\PythonSafeBox.cpp

; 320  : 	if (CPythonSafeBox::Instance().GetItemDataPtr(iSlotIndex, &pInstance))

  0004d	8d 45 f8	 lea	 eax, DWORD PTR _pInstance$[ebp]
  00050	50		 push	 eax
  00051	ff 75 fc	 push	 DWORD PTR _iSlotIndex$[ebp]
  00054	e8 00 00 00 00	 call	 ?GetItemDataPtr@CPythonSafeBox@@QAEHKPAPAUpacket_item@@@Z ; CPythonSafeBox::GetItemDataPtr
  00059	85 c0		 test	 eax, eax
  0005b	74 18		 je	 SHORT $LN3@safeboxGet

; 321  : 		return Py_BuildValue("i", pInstance->dwTransmutationVnum);

  0005d	8b 45 f8	 mov	 eax, DWORD PTR _pInstance$[ebp]
  00060	ff 70 2f	 push	 DWORD PTR [eax+47]

; 324  : }

  00063	68 00 00 00 00	 push	 OFFSET ??_C@_01KBJDNOO@i@
  00068	ff 15 00 00 00
	00		 call	 DWORD PTR __imp__Py_BuildValue
  0006e	83 c4 08	 add	 esp, 8
  00071	8b e5		 mov	 esp, ebp
  00073	5d		 pop	 ebp
  00074	c3		 ret	 0
$LN3@safeboxGet:

; 322  : 
; 323  : 	return Py_BuildValue("i", 0);

  00075	6a 00		 push	 0

; 324  : }

  00077	68 00 00 00 00	 push	 OFFSET ??_C@_01KBJDNOO@i@
  0007c	ff 15 00 00 00
	00		 call	 DWORD PTR __imp__Py_BuildValue
  00082	83 c4 08	 add	 esp, 8
  00085	8b e5		 mov	 esp, ebp
  00087	5d		 pop	 ebp
  00088	c3		 ret	 0
?safeboxGetItemChangeLookVnum@@YAPAU_object@@PAU1@0@Z ENDP ; safeboxGetItemChangeLookVnum
_TEXT	ENDS
; Function compile flags: /Ogtp
; File C:\Anka2Project\Anka2Project\Source\Binary\source\UserInterface\PythonSafeBox.cpp
; File C:\Anka2Project\Anka2Project\Source\Binary\source\eterBase\Singleton.h
; File C:\Anka2Project\Anka2Project\Source\Binary\source\UserInterface\PythonSafeBox.cpp
;	COMDAT ?safeboxGetMallItemChangeLookVnum@@YAPAU_object@@PAU1@0@Z
_TEXT	SEGMENT
_pInstance$ = -8					; size = 4
_iSlotIndex$ = -4					; size = 4
_poSelf$ = 8						; size = 4
_poArgs$ = 12						; size = 4
?safeboxGetMallItemChangeLookVnum@@YAPAU_object@@PAU1@0@Z PROC ; safeboxGetMallItemChangeLookVnum, COMDAT

; 327  : {

  00000	55		 push	 ebp
  00001	8b ec		 mov	 ebp, esp
  00003	83 ec 08	 sub	 esp, 8

; 328  : 	int iSlotIndex;
; 329  : 	if (!PyTuple_GetInteger(poArgs, 0, &iSlotIndex))

  00006	8d 45 fc	 lea	 eax, DWORD PTR _iSlotIndex$[ebp]
  00009	50		 push	 eax
  0000a	6a 00		 push	 0
  0000c	ff 75 0c	 push	 DWORD PTR _poArgs$[ebp]
  0000f	e8 00 00 00 00	 call	 ?PyTuple_GetInteger@@YA_NPAU_object@@HPAH@Z ; PyTuple_GetInteger
  00014	83 c4 0c	 add	 esp, 12			; 0000000cH
  00017	84 c0		 test	 al, al
  00019	75 0e		 jne	 SHORT $LN2@safeboxGet

; 330  : 		return Py_BuildException();

  0001b	6a 00		 push	 0
  0001d	e8 00 00 00 00	 call	 ?Py_BuildException@@YAPAU_object@@PBDZZ ; Py_BuildException
  00022	83 c4 04	 add	 esp, 4

; 337  : }

  00025	8b e5		 mov	 esp, ebp
  00027	5d		 pop	 ebp
  00028	c3		 ret	 0
$LN2@safeboxGet:
; File C:\Anka2Project\Anka2Project\Source\Binary\source\eterBase\Singleton.h

; 26   : 		assert(ms_singleton);

  00029	8b 0d 00 00 00
	00		 mov	 ecx, DWORD PTR ?ms_singleton@?$CSingleton@VCPythonSafeBox@@@@0PAVCPythonSafeBox@@A ; CSingleton<CPythonSafeBox>::ms_singleton
  0002f	85 c9		 test	 ecx, ecx
  00031	75 1a		 jne	 SHORT $LN7@safeboxGet
  00033	6a 1a		 push	 26			; 0000001aH
  00035	68 00 00 00 00	 push	 OFFSET ??_C@_1IO@CAJLEEOI@?$AAC?$AA?3?$AA?2?$AAA?$AAn?$AAk?$AAa?$AA2?$AAP?$AAr?$AAo?$AAj?$AAe?$AAc?$AAt@
  0003a	68 00 00 00 00	 push	 OFFSET ??_C@_1BK@FMEHPMFE@?$AAm?$AAs?$AA_?$AAs?$AAi?$AAn?$AAg?$AAl?$AAe?$AAt?$AAo?$AAn@
  0003f	e8 00 00 00 00	 call	 __wassert
  00044	8b 0d 00 00 00
	00		 mov	 ecx, DWORD PTR ?ms_singleton@?$CSingleton@VCPythonSafeBox@@@@0PAVCPythonSafeBox@@A ; CSingleton<CPythonSafeBox>::ms_singleton
  0004a	83 c4 0c	 add	 esp, 12			; 0000000cH
$LN7@safeboxGet:
; File C:\Anka2Project\Anka2Project\Source\Binary\source\UserInterface\PythonSafeBox.cpp

; 333  : 	if (CPythonSafeBox::Instance().GetMallItemDataPtr(iSlotIndex, &pInstance))

  0004d	8d 45 f8	 lea	 eax, DWORD PTR _pInstance$[ebp]
  00050	50		 push	 eax
  00051	ff 75 fc	 push	 DWORD PTR _iSlotIndex$[ebp]
  00054	e8 00 00 00 00	 call	 ?GetMallItemDataPtr@CPythonSafeBox@@QAEHKPAPAUpacket_item@@@Z ; CPythonSafeBox::GetMallItemDataPtr
  00059	85 c0		 test	 eax, eax
  0005b	74 18		 je	 SHORT $LN3@safeboxGet

; 334  : 		return Py_BuildValue("i", pInstance->dwTransmutationVnum);

  0005d	8b 45 f8	 mov	 eax, DWORD PTR _pInstance$[ebp]
  00060	ff 70 2f	 push	 DWORD PTR [eax+47]

; 337  : }

  00063	68 00 00 00 00	 push	 OFFSET ??_C@_01KBJDNOO@i@
  00068	ff 15 00 00 00
	00		 call	 DWORD PTR __imp__Py_BuildValue
  0006e	83 c4 08	 add	 esp, 8
  00071	8b e5		 mov	 esp, ebp
  00073	5d		 pop	 ebp
  00074	c3		 ret	 0
$LN3@safeboxGet:

; 335  : 
; 336  : 	return Py_BuildValue("i", 0);

  00075	6a 00		 push	 0

; 337  : }

  00077	68 00 00 00 00	 push	 OFFSET ??_C@_01KBJDNOO@i@
  0007c	ff 15 00 00 00
	00		 call	 DWORD PTR __imp__Py_BuildValue
  00082	83 c4 08	 add	 esp, 8
  00085	8b e5		 mov	 esp, ebp
  00087	5d		 pop	 ebp
  00088	c3		 ret	 0
?safeboxGetMallItemChangeLookVnum@@YAPAU_object@@PAU1@0@Z ENDP ; safeboxGetMallItemChangeLookVnum
_TEXT	ENDS
; Function compile flags: /Ogtp
; File C:\Anka2Project\Anka2Project\Source\Binary\source\UserInterface\PythonSafeBox.cpp
;	COMDAT ?initsafebox@@YAXXZ
_TEXT	SEGMENT
?initsafebox@@YAXXZ PROC				; initsafebox, COMDAT

; 341  : {

  00000	56		 push	 esi
  00001	57		 push	 edi

; 342  : 	static PyMethodDef s_methods[] =
; 343  : 	{
; 344  : 		{ "GetCurrentSafeboxSize", safeboxGetCurrentSafeboxSize, METH_VARARGS },
; 345  : 		{ "GetItemID", safeboxGetItemID, METH_VARARGS },
; 346  : 		{ "GetItemCount", safeboxGetItemCount, METH_VARARGS },
; 347  : 		{ "GetItemFlags", safeboxGetItemFlags, METH_VARARGS },
; 348  : 		{ "GetItemMetinSocket", safeboxGetItemMetinSocket, METH_VARARGS },
; 349  : 		{ "GetItemAttribute", safeboxGetItemAttribute, METH_VARARGS },
; 350  : 		{ "GetMoney", safeboxGetMoney, METH_VARARGS },
; 351  : 
; 352  : 		{ "GetMallItemID", safeboxGetMallItemID, METH_VARARGS },
; 353  : 		{ "GetMallItemCount", safeboxGetMallItemCount, METH_VARARGS },
; 354  : 		{ "GetMallItemMetinSocket", safeboxGetMallItemMetinSocket, METH_VARARGS },
; 355  : 		{ "GetMallItemAttribute", safeboxGetMallItemAttribute, METH_VARARGS },
; 356  : 		{ "GetMallSize", safeboxGetMallSize, METH_VARARGS },
; 357  : 
; 358  : #ifdef ENABLE_CHANGE_LOOK_SYSTEM
; 359  : 		{ "GetItemChangeLookVnum", safeboxGetItemChangeLookVnum, METH_VARARGS },
; 360  : 		{ "GetMallItemChangeLookVnum", safeboxGetMallItemChangeLookVnum, METH_VARARGS },
; 361  : #endif
; 362  : 
; 363  : 		{ nullptr, nullptr },
; 364  : 	};
; 365  : 
; 366  : 	PyObject *poModule = Py_InitModule("safebox", s_methods);

  00002	68 f5 03 00 00	 push	 1013			; 000003f5H
  00007	6a 00		 push	 0
  00009	6a 00		 push	 0
  0000b	68 00 00 00 00	 push	 OFFSET ?s_methods@?1??initsafebox@@YAXXZ@4PAUPyMethodDef@@A
  00010	68 00 00 00 00	 push	 OFFSET ??_C@_07CPPOKFKF@safebox@
  00015	ff 15 00 00 00
	00		 call	 DWORD PTR __imp__Py_InitModule4

; 367  : 	PyModule_AddIntConstant(poModule, "SAFEBOX_SLOT_X_COUNT", CPythonSafeBox::SAFEBOX_SLOT_X_COUNT);

  0001b	8b 35 00 00 00
	00		 mov	 esi, DWORD PTR __imp__PyModule_AddIntConstant
  00021	8b f8		 mov	 edi, eax
  00023	6a 05		 push	 5
  00025	68 00 00 00 00	 push	 OFFSET ??_C@_0BF@DMABFMEE@SAFEBOX_SLOT_X_COUNT@
  0002a	57		 push	 edi
  0002b	ff d6		 call	 esi

; 368  : 	PyModule_AddIntConstant(poModule, "SAFEBOX_SLOT_Y_COUNT", CPythonSafeBox::SAFEBOX_SLOT_Y_COUNT);

  0002d	6a 09		 push	 9
  0002f	68 00 00 00 00	 push	 OFFSET ??_C@_0BF@PAKLFMNK@SAFEBOX_SLOT_Y_COUNT@
  00034	57		 push	 edi
  00035	ff d6		 call	 esi

; 369  : 	PyModule_AddIntConstant(poModule, "SAFEBOX_PAGE_SIZE", CPythonSafeBox::SAFEBOX_PAGE_SIZE);

  00037	6a 2d		 push	 45			; 0000002dH
  00039	68 00 00 00 00	 push	 OFFSET ??_C@_0BC@JOOAEPKL@SAFEBOX_PAGE_SIZE@
  0003e	57		 push	 edi
  0003f	ff d6		 call	 esi
  00041	83 c4 38	 add	 esp, 56			; 00000038H
  00044	5f		 pop	 edi
  00045	5e		 pop	 esi

; 370  : }

  00046	c3		 ret	 0
?initsafebox@@YAXXZ ENDP				; initsafebox
_TEXT	ENDS
END
