; Listing generated by Microsoft (R) Optimizing Compiler Version 19.44.35219.0 

	TITLE	c:\anka2project\anka2project\source\binary\vs_files\userinterface\release\pythongameeventmanagermodule.obj
	.686P
	.XMM
	include listing.inc
	.model	flat

INCLUDELIB OLDNAMES

PUBLIC	??_C@_08DGHCLNGO@iiiiiiii@			; `string'
PUBLIC	??_C@_0BB@OGMAGIPH@GetDayEventCount@		; `string'
PUBLIC	??_C@_0N@OHJDEAGJ@GetEventData@			; `string'
PUBLIC	??_C@_0BE@DGDMNJEG@SetRequestEventData@		; `string'
PUBLIC	??_C@_0BE@JIBHJJDK@GetRequestEventData@		; `string'
PUBLIC	??_C@_0BD@OLBAGEEI@GetEventRewardData@		; `string'
PUBLIC	??_C@_08LLPALKPL@eventMgr@			; `string'
PUBLIC	??_C@_0O@CNMKCEPI@EVENT_MAX_NUM@		; `string'
PUBLIC	??_C@_0M@BGHCNJHJ@DAY_MAX_NUM@			; `string'
PUBLIC	??_C@_0P@FAGPDOGF@REWARD_MAX_NUM@		; `string'
PUBLIC	?ms_singleton@?$CSingleton@VCGameEventManager@@@@0PAVCGameEventManager@@A ; CSingleton<CGameEventManager>::ms_singleton
;	COMDAT ?ms_singleton@?$CSingleton@VCGameEventManager@@@@0PAVCGameEventManager@@A
_BSS	SEGMENT
?ms_singleton@?$CSingleton@VCGameEventManager@@@@0PAVCGameEventManager@@A DD 01H DUP (?) ; CSingleton<CGameEventManager>::ms_singleton
_BSS	ENDS
;	COMDAT ?s_methods@?1??initeventmgr@@YAXXZ@4PAUPyMethodDef@@A
_DATA	SEGMENT
?s_methods@?1??initeventmgr@@YAXXZ@4PAUPyMethodDef@@A DD FLAT:??_C@_06LMAGPFNF@Update@ ; `initeventmgr'::`2'::s_methods
	DD	FLAT:?eventMgrUpdate@@YAPAU_object@@PAU1@0@Z
	DD	01H
	ORG $+4
	DD	FLAT:??_C@_0BB@OGMAGIPH@GetDayEventCount@
	DD	FLAT:?eventMgrGetDayEventCount@@YAPAU_object@@PAU1@0@Z
	DD	01H
	ORG $+4
	DD	FLAT:??_C@_0N@OHJDEAGJ@GetEventData@
	DD	FLAT:?eventMgrGetEventData@@YAPAU_object@@PAU1@0@Z
	DD	01H
	ORG $+4
	DD	FLAT:??_C@_0BE@DGDMNJEG@SetRequestEventData@
	DD	FLAT:?eventMgrSetRequestEventData@@YAPAU_object@@PAU1@0@Z
	DD	01H
	ORG $+4
	DD	FLAT:??_C@_0BE@JIBHJJDK@GetRequestEventData@
	DD	FLAT:?eventMgrGetRequestEventData@@YAPAU_object@@PAU1@0@Z
	DD	01H
	ORG $+4
	DD	FLAT:??_C@_0BD@OLBAGEEI@GetEventRewardData@
	DD	FLAT:?eventMgrGetEventRewardData@@YAPAU_object@@PAU1@0@Z
	DD	01H
	ORG $+4
	DD	00H
	DD	00H
	ORG $+8
_DATA	ENDS
;	COMDAT ??_C@_0P@FAGPDOGF@REWARD_MAX_NUM@
CONST	SEGMENT
??_C@_0P@FAGPDOGF@REWARD_MAX_NUM@ DB 'REWARD_MAX_NUM', 00H ; `string'
CONST	ENDS
;	COMDAT ??_C@_0M@BGHCNJHJ@DAY_MAX_NUM@
CONST	SEGMENT
??_C@_0M@BGHCNJHJ@DAY_MAX_NUM@ DB 'DAY_MAX_NUM', 00H	; `string'
CONST	ENDS
;	COMDAT ??_C@_0O@CNMKCEPI@EVENT_MAX_NUM@
CONST	SEGMENT
??_C@_0O@CNMKCEPI@EVENT_MAX_NUM@ DB 'EVENT_MAX_NUM', 00H ; `string'
CONST	ENDS
;	COMDAT ??_C@_08LLPALKPL@eventMgr@
CONST	SEGMENT
??_C@_08LLPALKPL@eventMgr@ DB 'eventMgr', 00H		; `string'
CONST	ENDS
;	COMDAT ??_C@_0BD@OLBAGEEI@GetEventRewardData@
CONST	SEGMENT
??_C@_0BD@OLBAGEEI@GetEventRewardData@ DB 'GetEventRewardData', 00H ; `string'
CONST	ENDS
;	COMDAT ??_C@_0BE@JIBHJJDK@GetRequestEventData@
CONST	SEGMENT
??_C@_0BE@JIBHJJDK@GetRequestEventData@ DB 'GetRequestEventData', 00H ; `string'
CONST	ENDS
;	COMDAT ??_C@_0BE@DGDMNJEG@SetRequestEventData@
CONST	SEGMENT
??_C@_0BE@DGDMNJEG@SetRequestEventData@ DB 'SetRequestEventData', 00H ; `string'
CONST	ENDS
;	COMDAT ??_C@_0N@OHJDEAGJ@GetEventData@
CONST	SEGMENT
??_C@_0N@OHJDEAGJ@GetEventData@ DB 'GetEventData', 00H	; `string'
CONST	ENDS
;	COMDAT ??_C@_0BB@OGMAGIPH@GetDayEventCount@
CONST	SEGMENT
??_C@_0BB@OGMAGIPH@GetDayEventCount@ DB 'GetDayEventCount', 00H ; `string'
CONST	ENDS
;	COMDAT ??_C@_08DGHCLNGO@iiiiiiii@
CONST	SEGMENT
??_C@_08DGHCLNGO@iiiiiiii@ DB 'iiiiiiii', 00H		; `string'
PUBLIC	?Instance@?$CSingleton@VCGameEventManager@@@@SAAAVCGameEventManager@@XZ ; CSingleton<CGameEventManager>::Instance
PUBLIC	?initeventmgr@@YAXXZ				; initeventmgr
PUBLIC	?eventMgrGetEventRewardData@@YAPAU_object@@PAU1@0@Z ; eventMgrGetEventRewardData
PUBLIC	?eventMgrGetRequestEventData@@YAPAU_object@@PAU1@0@Z ; eventMgrGetRequestEventData
PUBLIC	?eventMgrSetRequestEventData@@YAPAU_object@@PAU1@0@Z ; eventMgrSetRequestEventData
PUBLIC	?eventMgrGetEventData@@YAPAU_object@@PAU1@0@Z	; eventMgrGetEventData
PUBLIC	?eventMgrGetDayEventCount@@YAPAU_object@@PAU1@0@Z ; eventMgrGetDayEventCount
PUBLIC	?eventMgrUpdate@@YAPAU_object@@PAU1@0@Z		; eventMgrUpdate
PUBLIC	?GetRequestEventData@InGameEventManager@@QAE_NXZ ; InGameEventManager::GetRequestEventData
PUBLIC	?SetRequestEventData@InGameEventManager@@QAEX_N@Z ; InGameEventManager::SetRequestEventData
; Function compile flags: /Ogtp
; File C:\Anka2Project\Anka2Project\Source\Binary\source\UserInterface\PythonGameEventManagerModule.cpp
; File C:\Anka2Project\Anka2Project\Source\Binary\source\eterBase\Singleton.h
; File C:\Anka2Project\Anka2Project\Source\Binary\source\UserInterface\PythonGameEventManagerModule.cpp
;	COMDAT ?eventMgrGetDayEventCount@@YAPAU_object@@PAU1@0@Z
_TEXT	SEGMENT
_iDay$ = -4						; size = 4
_poSelf$ = 8						; size = 4
_poArgs$ = 12						; size = 4
?eventMgrGetDayEventCount@@YAPAU_object@@PAU1@0@Z PROC	; eventMgrGetDayEventCount, COMDAT

; 27   : {

  00000	55		 push	 ebp
  00001	8b ec		 mov	 ebp, esp
  00003	51		 push	 ecx

; 28   : 	int iDay;
; 29   : 	if (!PyTuple_GetInteger(poArgs, 0, &iDay))

  00004	8d 45 fc	 lea	 eax, DWORD PTR _iDay$[ebp]
  00007	50		 push	 eax
  00008	6a 00		 push	 0
  0000a	ff 75 0c	 push	 DWORD PTR _poArgs$[ebp]
  0000d	e8 00 00 00 00	 call	 ?PyTuple_GetInteger@@YA_NPAU_object@@HPAH@Z ; PyTuple_GetInteger
  00012	83 c4 0c	 add	 esp, 12			; 0000000cH
  00015	84 c0		 test	 al, al
  00017	75 0e		 jne	 SHORT $LN2@eventMgrGe

; 30   : 		return Py_BuildException();

  00019	6a 00		 push	 0
  0001b	e8 00 00 00 00	 call	 ?Py_BuildException@@YAPAU_object@@PBDZZ ; Py_BuildException
  00020	83 c4 04	 add	 esp, 4

; 33   : }

  00023	8b e5		 mov	 esp, ebp
  00025	5d		 pop	 ebp
  00026	c3		 ret	 0
$LN2@eventMgrGe:
; File C:\Anka2Project\Anka2Project\Source\Binary\source\eterBase\Singleton.h

; 26   : 		assert(ms_singleton);

  00027	8b 0d 00 00 00
	00		 mov	 ecx, DWORD PTR ?ms_singleton@?$CSingleton@VInGameEventManager@@@@0PAVInGameEventManager@@A ; CSingleton<InGameEventManager>::ms_singleton
  0002d	85 c9		 test	 ecx, ecx
  0002f	75 1a		 jne	 SHORT $LN6@eventMgrGe
  00031	6a 1a		 push	 26			; 0000001aH
  00033	68 00 00 00 00	 push	 OFFSET ??_C@_1IO@CAJLEEOI@?$AAC?$AA?3?$AA?2?$AAA?$AAn?$AAk?$AAa?$AA2?$AAP?$AAr?$AAo?$AAj?$AAe?$AAc?$AAt@
  00038	68 00 00 00 00	 push	 OFFSET ??_C@_1BK@FMEHPMFE@?$AAm?$AAs?$AA_?$AAs?$AAi?$AAn?$AAg?$AAl?$AAe?$AAt?$AAo?$AAn@
  0003d	e8 00 00 00 00	 call	 __wassert
  00042	8b 0d 00 00 00
	00		 mov	 ecx, DWORD PTR ?ms_singleton@?$CSingleton@VInGameEventManager@@@@0PAVInGameEventManager@@A ; CSingleton<InGameEventManager>::ms_singleton
  00048	83 c4 0c	 add	 esp, 12			; 0000000cH
$LN6@eventMgrGe:
; File C:\Anka2Project\Anka2Project\Source\Binary\source\UserInterface\PythonGameEventManagerModule.cpp

; 32   : 	return Py_BuildValue("i", InGameEventManager::Instance().GetDayEventCount(iDay));

  0004b	ff 75 fc	 push	 DWORD PTR _iDay$[ebp]
  0004e	e8 00 00 00 00	 call	 ?GetDayEventCount@InGameEventManager@@QAEHH@Z ; InGameEventManager::GetDayEventCount
  00053	50		 push	 eax
  00054	68 00 00 00 00	 push	 OFFSET ??_C@_01KBJDNOO@i@
  00059	ff 15 00 00 00
	00		 call	 DWORD PTR __imp__Py_BuildValue
  0005f	83 c4 08	 add	 esp, 8

; 33   : }

  00062	8b e5		 mov	 esp, ebp
  00064	5d		 pop	 ebp
  00065	c3		 ret	 0
?eventMgrGetDayEventCount@@YAPAU_object@@PAU1@0@Z ENDP	; eventMgrGetDayEventCount
_TEXT	ENDS
; Function compile flags: /Ogtp
; File C:\Anka2Project\Anka2Project\Source\Binary\source\UserInterface\PythonGameEventManagerModule.cpp
; File C:\Anka2Project\Anka2Project\Source\Binary\source\eterBase\Singleton.h
; File C:\Anka2Project\Anka2Project\Source\Binary\source\UserInterface\PythonGameEventManagerModule.cpp
; File C:\Anka2Project\Anka2Project\Source\Binary\source\eterBase\Singleton.h
; File C:\Anka2Project\Anka2Project\Source\Binary\source\UserInterface\PythonGameEventManagerModule.cpp
;	COMDAT ?eventMgrGetEventData@@YAPAU_object@@PAU1@0@Z
_TEXT	SEGMENT
_iDay$ = -40						; size = 4
_iIndex$ = -36						; size = 4
_table$ = -32						; size = 32
_poSelf$ = 8						; size = 4
_poArgs$ = 12						; size = 4
?eventMgrGetEventData@@YAPAU_object@@PAU1@0@Z PROC	; eventMgrGetEventData, COMDAT

; 36   : {

  00000	55		 push	 ebp
  00001	8b ec		 mov	 ebp, esp
  00003	83 e4 f0	 and	 esp, -16		; fffffff0H
  00006	83 ec 30	 sub	 esp, 48			; 00000030H

; 37   : 	int iIndex;
; 38   : 	if (!PyTuple_GetInteger(poArgs, 0, &iIndex))

  00009	8d 44 24 0c	 lea	 eax, DWORD PTR _iIndex$[esp+48]
  0000d	50		 push	 eax
  0000e	6a 00		 push	 0
  00010	ff 75 0c	 push	 DWORD PTR _poArgs$[ebp]
  00013	e8 00 00 00 00	 call	 ?PyTuple_GetInteger@@YA_NPAU_object@@HPAH@Z ; PyTuple_GetInteger
  00018	83 c4 0c	 add	 esp, 12			; 0000000cH
  0001b	84 c0		 test	 al, al
  0001d	75 0e		 jne	 SHORT $LN2@eventMgrGe
$LN8@eventMgrGe:

; 51   : }

  0001f	6a 00		 push	 0
  00021	e8 00 00 00 00	 call	 ?Py_BuildException@@YAPAU_object@@PBDZZ ; Py_BuildException
  00026	83 c4 04	 add	 esp, 4
  00029	8b e5		 mov	 esp, ebp
  0002b	5d		 pop	 ebp
  0002c	c3		 ret	 0
$LN2@eventMgrGe:

; 39   : 		return Py_BuildException();
; 40   : 
; 41   : 	int iDay;
; 42   : 	if (!PyTuple_GetInteger(poArgs, 1, &iDay))

  0002d	8d 44 24 08	 lea	 eax, DWORD PTR _iDay$[esp+48]
  00031	50		 push	 eax
  00032	6a 01		 push	 1
  00034	ff 75 0c	 push	 DWORD PTR _poArgs$[ebp]
  00037	e8 00 00 00 00	 call	 ?PyTuple_GetInteger@@YA_NPAU_object@@HPAH@Z ; PyTuple_GetInteger
  0003c	83 c4 0c	 add	 esp, 12			; 0000000cH
  0003f	84 c0		 test	 al, al
  00041	74 dc		 je	 SHORT $LN8@eventMgrGe
; File C:\Anka2Project\Anka2Project\Source\Binary\source\eterBase\Singleton.h

; 26   : 		assert(ms_singleton);

  00043	8b 0d 00 00 00
	00		 mov	 ecx, DWORD PTR ?ms_singleton@?$CSingleton@VInGameEventManager@@@@0PAVInGameEventManager@@A ; CSingleton<InGameEventManager>::ms_singleton
  00049	0f 57 c0	 xorps	 xmm0, xmm0
; File C:\Anka2Project\Anka2Project\Source\Binary\source\UserInterface\PythonGameEventManagerModule.cpp

; 46   : 	memset(&table, 0, sizeof(table));

  0004c	0f 29 44 24 10	 movaps	 XMMWORD PTR _table$[esp+48], xmm0
  00051	0f 29 44 24 20	 movaps	 XMMWORD PTR _table$[esp+64], xmm0
; File C:\Anka2Project\Anka2Project\Source\Binary\source\eterBase\Singleton.h

; 26   : 		assert(ms_singleton);

  00056	85 c9		 test	 ecx, ecx
  00058	75 1a		 jne	 SHORT $LN7@eventMgrGe
  0005a	6a 1a		 push	 26			; 0000001aH
  0005c	68 00 00 00 00	 push	 OFFSET ??_C@_1IO@CAJLEEOI@?$AAC?$AA?3?$AA?2?$AAA?$AAn?$AAk?$AAa?$AA2?$AAP?$AAr?$AAo?$AAj?$AAe?$AAc?$AAt@
  00061	68 00 00 00 00	 push	 OFFSET ??_C@_1BK@FMEHPMFE@?$AAm?$AAs?$AA_?$AAs?$AAi?$AAn?$AAg?$AAl?$AAe?$AAt?$AAo?$AAn@
  00066	e8 00 00 00 00	 call	 __wassert
  0006b	8b 0d 00 00 00
	00		 mov	 ecx, DWORD PTR ?ms_singleton@?$CSingleton@VInGameEventManager@@@@0PAVInGameEventManager@@A ; CSingleton<InGameEventManager>::ms_singleton
  00071	83 c4 0c	 add	 esp, 12			; 0000000cH
$LN7@eventMgrGe:
; File C:\Anka2Project\Anka2Project\Source\Binary\source\UserInterface\PythonGameEventManagerModule.cpp

; 48   : 	InGameEventManager::Instance().GetEventData(iIndex, iDay, table);

  00074	8d 44 24 10	 lea	 eax, DWORD PTR _table$[esp+48]
  00078	50		 push	 eax
  00079	ff 74 24 0c	 push	 DWORD PTR _iDay$[esp+52]
  0007d	ff 74 24 14	 push	 DWORD PTR _iIndex$[esp+56]
  00081	e8 00 00 00 00	 call	 ?GetEventData@InGameEventManager@@QAEXHHAAUTEventTable@1@@Z ; InGameEventManager::GetEventData

; 49   : 
; 50   : 	return Py_BuildValue("iiiiiiii", table.dwID, table.bType, table.startTime, table.endTime, table.dwVnum, table.iPercent, table.iDropType, table.bCompleted);

  00086	0f b6 44 24 2c	 movzx	 eax, BYTE PTR _table$[esp+76]
  0008b	50		 push	 eax
  0008c	ff 74 24 2c	 push	 DWORD PTR _table$[esp+76]
  00090	0f b6 44 24 1c	 movzx	 eax, BYTE PTR _table$[esp+60]
  00095	ff 74 24 2c	 push	 DWORD PTR _table$[esp+76]
  00099	ff 74 24 2c	 push	 DWORD PTR _table$[esp+76]
  0009d	ff 74 24 2c	 push	 DWORD PTR _table$[esp+76]
  000a1	ff 74 24 2c	 push	 DWORD PTR _table$[esp+76]
  000a5	50		 push	 eax
  000a6	ff 74 24 2c	 push	 DWORD PTR _table$[esp+76]
  000aa	68 00 00 00 00	 push	 OFFSET ??_C@_08DGHCLNGO@iiiiiiii@
  000af	ff 15 00 00 00
	00		 call	 DWORD PTR __imp__Py_BuildValue
  000b5	83 c4 24	 add	 esp, 36			; 00000024H

; 51   : }

  000b8	8b e5		 mov	 esp, ebp
  000ba	5d		 pop	 ebp
  000bb	c3		 ret	 0
?eventMgrGetEventData@@YAPAU_object@@PAU1@0@Z ENDP	; eventMgrGetEventData
_TEXT	ENDS
; Function compile flags: /Ogtp
; File C:\Anka2Project\Anka2Project\Source\Binary\source\UserInterface\PythonGameEventManagerModule.cpp
; File C:\Anka2Project\Anka2Project\Source\Binary\source\eterBase\Singleton.h
; File C:\Anka2Project\Anka2Project\Source\Binary\source\UserInterface\PythonGameEventManagerModule.cpp
;	COMDAT ?eventMgrGetRequestEventData@@YAPAU_object@@PAU1@0@Z
_TEXT	SEGMENT
_poSelf$ = 8						; size = 4
_poArgs$ = 12						; size = 4
?eventMgrGetRequestEventData@@YAPAU_object@@PAU1@0@Z PROC ; eventMgrGetRequestEventData, COMDAT
; File C:\Anka2Project\Anka2Project\Source\Binary\source\eterBase\Singleton.h

; 26   : 		assert(ms_singleton);

  00000	a1 00 00 00 00	 mov	 eax, DWORD PTR ?ms_singleton@?$CSingleton@VInGameEventManager@@@@0PAVInGameEventManager@@A ; CSingleton<InGameEventManager>::ms_singleton
  00005	85 c0		 test	 eax, eax
  00007	75 19		 jne	 SHORT $LN5@eventMgrGe
  00009	6a 1a		 push	 26			; 0000001aH
  0000b	68 00 00 00 00	 push	 OFFSET ??_C@_1IO@CAJLEEOI@?$AAC?$AA?3?$AA?2?$AAA?$AAn?$AAk?$AAa?$AA2?$AAP?$AAr?$AAo?$AAj?$AAe?$AAc?$AAt@
  00010	68 00 00 00 00	 push	 OFFSET ??_C@_1BK@FMEHPMFE@?$AAm?$AAs?$AA_?$AAs?$AAi?$AAn?$AAg?$AAl?$AAe?$AAt?$AAo?$AAn@
  00015	e8 00 00 00 00	 call	 __wassert
  0001a	a1 00 00 00 00	 mov	 eax, DWORD PTR ?ms_singleton@?$CSingleton@VInGameEventManager@@@@0PAVInGameEventManager@@A ; CSingleton<InGameEventManager>::ms_singleton
  0001f	83 c4 0c	 add	 esp, 12			; 0000000cH
$LN5@eventMgrGe:
; File C:\Anka2Project\Anka2Project\Source\Binary\source\UserInterface\PythonGameEventManagerModule.cpp

; 66   : 	return Py_BuildValue("b", InGameEventManager::Instance().GetRequestEventData());

  00022	0f b6 40 58	 movzx	 eax, BYTE PTR [eax+88]
  00026	50		 push	 eax
  00027	68 00 00 00 00	 push	 OFFSET ??_C@_01OJONOECF@b@
  0002c	ff 15 00 00 00
	00		 call	 DWORD PTR __imp__Py_BuildValue
  00032	83 c4 08	 add	 esp, 8

; 67   : }

  00035	c3		 ret	 0
?eventMgrGetRequestEventData@@YAPAU_object@@PAU1@0@Z ENDP ; eventMgrGetRequestEventData
_TEXT	ENDS
; Function compile flags: /Ogtp
; File C:\Anka2Project\Anka2Project\Source\Binary\source\UserInterface\PythonGameEventManagerModule.cpp
; File C:\Anka2Project\Anka2Project\Source\Binary\source\eterBase\Singleton.h
; File C:\Anka2Project\Anka2Project\Source\Binary\source\UserInterface\PythonGameEventManagerModule.cpp
; File C:\Anka2Project\Anka2Project\Source\Binary\source\eterBase\Singleton.h
; File C:\Anka2Project\Anka2Project\Source\Binary\source\UserInterface\PythonGameEventManagerModule.cpp
;	COMDAT ?eventMgrGetEventRewardData@@YAPAU_object@@PAU1@0@Z
_TEXT	SEGMENT
_table$ = -16						; size = 8
_iIndex$ = -8						; size = 4
_iPos$ = -4						; size = 4
_poSelf$ = 8						; size = 4
_poArgs$ = 12						; size = 4
?eventMgrGetEventRewardData@@YAPAU_object@@PAU1@0@Z PROC ; eventMgrGetEventRewardData, COMDAT

; 70   : {

  00000	55		 push	 ebp
  00001	8b ec		 mov	 ebp, esp
  00003	83 ec 10	 sub	 esp, 16			; 00000010H

; 71   : 	int iIndex;
; 72   : 	if (!PyTuple_GetInteger(poArgs, 0, &iIndex))

  00006	8d 45 f8	 lea	 eax, DWORD PTR _iIndex$[ebp]
  00009	50		 push	 eax
  0000a	6a 00		 push	 0
  0000c	ff 75 0c	 push	 DWORD PTR _poArgs$[ebp]
  0000f	e8 00 00 00 00	 call	 ?PyTuple_GetInteger@@YA_NPAU_object@@HPAH@Z ; PyTuple_GetInteger
  00014	83 c4 0c	 add	 esp, 12			; 0000000cH
  00017	84 c0		 test	 al, al
  00019	75 0e		 jne	 SHORT $LN2@eventMgrGe
$LN8@eventMgrGe:

; 85   : }

  0001b	6a 00		 push	 0
  0001d	e8 00 00 00 00	 call	 ?Py_BuildException@@YAPAU_object@@PBDZZ ; Py_BuildException
  00022	83 c4 04	 add	 esp, 4
  00025	8b e5		 mov	 esp, ebp
  00027	5d		 pop	 ebp
  00028	c3		 ret	 0
$LN2@eventMgrGe:

; 73   : 		return Py_BuildException();
; 74   : 
; 75   : 	int iPos;
; 76   : 	if (!PyTuple_GetInteger(poArgs, 1, &iPos))

  00029	8d 45 fc	 lea	 eax, DWORD PTR _iPos$[ebp]
  0002c	50		 push	 eax
  0002d	6a 01		 push	 1
  0002f	ff 75 0c	 push	 DWORD PTR _poArgs$[ebp]
  00032	e8 00 00 00 00	 call	 ?PyTuple_GetInteger@@YA_NPAU_object@@HPAH@Z ; PyTuple_GetInteger
  00037	83 c4 0c	 add	 esp, 12			; 0000000cH
  0003a	84 c0		 test	 al, al
  0003c	74 dd		 je	 SHORT $LN8@eventMgrGe
; File C:\Anka2Project\Anka2Project\Source\Binary\source\eterBase\Singleton.h

; 26   : 		assert(ms_singleton);

  0003e	8b 0d 00 00 00
	00		 mov	 ecx, DWORD PTR ?ms_singleton@?$CSingleton@VInGameEventManager@@@@0PAVInGameEventManager@@A ; CSingleton<InGameEventManager>::ms_singleton
  00044	0f 57 c0	 xorps	 xmm0, xmm0
; File C:\Anka2Project\Anka2Project\Source\Binary\source\UserInterface\PythonGameEventManagerModule.cpp

; 80   : 	memset(&table, 0, sizeof(table));

  00047	66 0f 13 45 f0	 movlpd	 QWORD PTR _table$[ebp], xmm0
; File C:\Anka2Project\Anka2Project\Source\Binary\source\eterBase\Singleton.h

; 26   : 		assert(ms_singleton);

  0004c	85 c9		 test	 ecx, ecx
  0004e	75 1a		 jne	 SHORT $LN7@eventMgrGe
  00050	6a 1a		 push	 26			; 0000001aH
  00052	68 00 00 00 00	 push	 OFFSET ??_C@_1IO@CAJLEEOI@?$AAC?$AA?3?$AA?2?$AAA?$AAn?$AAk?$AAa?$AA2?$AAP?$AAr?$AAo?$AAj?$AAe?$AAc?$AAt@
  00057	68 00 00 00 00	 push	 OFFSET ??_C@_1BK@FMEHPMFE@?$AAm?$AAs?$AA_?$AAs?$AAi?$AAn?$AAg?$AAl?$AAe?$AAt?$AAo?$AAn@
  0005c	e8 00 00 00 00	 call	 __wassert
  00061	8b 0d 00 00 00
	00		 mov	 ecx, DWORD PTR ?ms_singleton@?$CSingleton@VInGameEventManager@@@@0PAVInGameEventManager@@A ; CSingleton<InGameEventManager>::ms_singleton
  00067	83 c4 0c	 add	 esp, 12			; 0000000cH
$LN7@eventMgrGe:
; File C:\Anka2Project\Anka2Project\Source\Binary\source\UserInterface\PythonGameEventManagerModule.cpp

; 82   : 	InGameEventManager::Instance().GetEventRewardData(iIndex, iPos, table);

  0006a	8d 45 f0	 lea	 eax, DWORD PTR _table$[ebp]
  0006d	50		 push	 eax
  0006e	ff 75 fc	 push	 DWORD PTR _iPos$[ebp]
  00071	ff 75 f8	 push	 DWORD PTR _iIndex$[ebp]
  00074	e8 00 00 00 00	 call	 ?GetEventRewardData@InGameEventManager@@QAEXHHAAUSEventReward@1@@Z ; InGameEventManager::GetEventRewardData

; 83   : 
; 84   : 	return Py_BuildValue("ii", table.dwVnum, table.dwCount);

  00079	ff 75 f4	 push	 DWORD PTR _table$[ebp+4]
  0007c	ff 75 f0	 push	 DWORD PTR _table$[ebp]
  0007f	68 00 00 00 00	 push	 OFFSET ??_C@_02PDIHAGKM@ii@
  00084	ff 15 00 00 00
	00		 call	 DWORD PTR __imp__Py_BuildValue
  0008a	83 c4 0c	 add	 esp, 12			; 0000000cH

; 85   : }

  0008d	8b e5		 mov	 esp, ebp
  0008f	5d		 pop	 ebp
  00090	c3		 ret	 0
?eventMgrGetEventRewardData@@YAPAU_object@@PAU1@0@Z ENDP ; eventMgrGetEventRewardData
_TEXT	ENDS
; Function compile flags: /Ogtp
; File C:\Anka2Project\Anka2Project\Source\Binary\source\UserInterface\PythonGameEventManagerModule.cpp
;	COMDAT ?initeventmgr@@YAXXZ
_TEXT	SEGMENT
?initeventmgr@@YAXXZ PROC				; initeventmgr, COMDAT

; 89   : {

  00000	56		 push	 esi
  00001	57		 push	 edi

; 90   : 	static PyMethodDef s_methods[] = 
; 91   : 	{
; 92   : 		{ "Update",					eventMgrUpdate,					METH_VARARGS },
; 93   : 
; 94   : #ifdef ENABLE_EVENT_MANAGER
; 95   : 		{ "GetDayEventCount",		eventMgrGetDayEventCount,		METH_VARARGS },
; 96   : 		{ "GetEventData",			eventMgrGetEventData,			METH_VARARGS },
; 97   : 		{ "SetRequestEventData",	eventMgrSetRequestEventData,	METH_VARARGS },
; 98   : 		{ "GetRequestEventData",	eventMgrGetRequestEventData,	METH_VARARGS },
; 99   : 		{ "GetEventRewardData",		eventMgrGetEventRewardData,		METH_VARARGS },
; 100  : #endif
; 101  : 
; 102  : 		{ nullptr, nullptr },
; 103  : 	};
; 104  : 
; 105  : #ifdef ENABLE_EVENT_MANAGER
; 106  : 	PyObject *poModule = Py_InitModule("eventMgr", s_methods);

  00002	68 f5 03 00 00	 push	 1013			; 000003f5H
  00007	6a 00		 push	 0
  00009	6a 00		 push	 0
  0000b	68 00 00 00 00	 push	 OFFSET ?s_methods@?1??initeventmgr@@YAXXZ@4PAUPyMethodDef@@A
  00010	68 00 00 00 00	 push	 OFFSET ??_C@_08LLPALKPL@eventMgr@
  00015	ff 15 00 00 00
	00		 call	 DWORD PTR __imp__Py_InitModule4

; 107  : 
; 108  : 	PyModule_AddIntConstant(poModule, "EVENT_TYPE_NONE",			InGameEventManager::EVENT_TYPE_NONE);

  0001b	8b 35 00 00 00
	00		 mov	 esi, DWORD PTR __imp__PyModule_AddIntConstant
  00021	8b f8		 mov	 edi, eax
  00023	6a 00		 push	 0
  00025	68 00 00 00 00	 push	 OFFSET ??_C@_0BA@LODHJEHM@EVENT_TYPE_NONE@
  0002a	57		 push	 edi
  0002b	ff d6		 call	 esi

; 109  : 	PyModule_AddIntConstant(poModule, "EVENT_TYPE_EXPERIENCE",		InGameEventManager::EVENT_TYPE_EXPERIENCE);

  0002d	6a 01		 push	 1
  0002f	68 00 00 00 00	 push	 OFFSET ??_C@_0BG@PABMAIIK@EVENT_TYPE_EXPERIENCE@
  00034	57		 push	 edi
  00035	ff d6		 call	 esi

; 110  : 	PyModule_AddIntConstant(poModule, "EVENT_TYPE_ITEM_DROP",		InGameEventManager::EVENT_TYPE_ITEM_DROP);

  00037	6a 02		 push	 2
  00039	68 00 00 00 00	 push	 OFFSET ??_C@_0BF@HHMIKNB@EVENT_TYPE_ITEM_DROP@
  0003e	57		 push	 edi
  0003f	ff d6		 call	 esi

; 111  : 	PyModule_AddIntConstant(poModule, "EVENT_TYPE_BOSS",			InGameEventManager::EVENT_TYPE_BOSS);

  00041	6a 03		 push	 3
  00043	68 00 00 00 00	 push	 OFFSET ??_C@_0BA@HDKBPMIJ@EVENT_TYPE_BOSS@
  00048	57		 push	 edi
  00049	ff d6		 call	 esi
  0004b	83 c4 44	 add	 esp, 68			; 00000044H

; 112  : 	PyModule_AddIntConstant(poModule, "EVENT_TYPE_METIN",			InGameEventManager::EVENT_TYPE_METIN);

  0004e	6a 04		 push	 4
  00050	68 00 00 00 00	 push	 OFFSET ??_C@_0BB@MNGNEMJI@EVENT_TYPE_METIN@
  00055	57		 push	 edi
  00056	ff d6		 call	 esi

; 113  : 	PyModule_AddIntConstant(poModule, "EVENT_TYPE_MINING",			InGameEventManager::EVENT_TYPE_MINING);

  00058	6a 05		 push	 5
  0005a	68 00 00 00 00	 push	 OFFSET ??_C@_0BC@BMLDOAKA@EVENT_TYPE_MINING@
  0005f	57		 push	 edi
  00060	ff d6		 call	 esi

; 114  : 	PyModule_AddIntConstant(poModule, "EVENT_TYPE_GOLD_FROG",		InGameEventManager::EVENT_TYPE_GOLD_FROG);

  00062	6a 06		 push	 6
  00064	68 00 00 00 00	 push	 OFFSET ??_C@_0BF@MCLEOPMA@EVENT_TYPE_GOLD_FROG@
  00069	57		 push	 edi
  0006a	ff d6		 call	 esi

; 115  : 	PyModule_AddIntConstant(poModule, "EVENT_TYPE_MOONLIGHT",		InGameEventManager::EVENT_TYPE_MOONLIGHT);

  0006c	6a 07		 push	 7
  0006e	68 00 00 00 00	 push	 OFFSET ??_C@_0BF@PLBMDAPK@EVENT_TYPE_MOONLIGHT@
  00073	57		 push	 edi
  00074	ff d6		 call	 esi

; 116  : 	PyModule_AddIntConstant(poModule, "EVENT_TYPE_HEXEGONAL_CHEST",	InGameEventManager::EVENT_TYPE_HEXEGONAL_CHEST);

  00076	6a 08		 push	 8
  00078	68 00 00 00 00	 push	 OFFSET ??_C@_0BL@BGMPEAA@EVENT_TYPE_HEXEGONAL_CHEST@
  0007d	57		 push	 edi
  0007e	ff d6		 call	 esi

; 117  : 	PyModule_AddIntConstant(poModule, "EVENT_TYPE_FISHING",			InGameEventManager::EVENT_TYPE_FISHING);

  00080	6a 09		 push	 9
  00082	68 00 00 00 00	 push	 OFFSET ??_C@_0BD@CELGOOFP@EVENT_TYPE_FISHING@
  00087	57		 push	 edi
  00088	ff d6		 call	 esi
  0008a	83 c4 48	 add	 esp, 72			; 00000048H

; 118  : 	PyModule_AddIntConstant(poModule, "EVENT_TYPE_HIDE_AND_SEEK",	InGameEventManager::EVENT_TYPE_HIDE_AND_SEEK);

  0008d	6a 0a		 push	 10			; 0000000aH
  0008f	68 00 00 00 00	 push	 OFFSET ??_C@_0BJ@EJBCKPO@EVENT_TYPE_HIDE_AND_SEEK@
  00094	57		 push	 edi
  00095	ff d6		 call	 esi

; 119  : 	PyModule_AddIntConstant(poModule, "EVENT_TYPE_OX",				InGameEventManager::EVENT_TYPE_OX);

  00097	6a 0b		 push	 11			; 0000000bH
  00099	68 00 00 00 00	 push	 OFFSET ??_C@_0O@BCKNCBFH@EVENT_TYPE_OX@
  0009e	57		 push	 edi
  0009f	ff d6		 call	 esi

; 120  : 	PyModule_AddIntConstant(poModule, "EVENT_TYPE_TANAKA",			InGameEventManager::EVENT_TYPE_TANAKA);

  000a1	6a 0c		 push	 12			; 0000000cH
  000a3	68 00 00 00 00	 push	 OFFSET ??_C@_0BC@JHIDPGFC@EVENT_TYPE_TANAKA@
  000a8	57		 push	 edi
  000a9	ff d6		 call	 esi

; 121  : 	PyModule_AddIntConstant(poModule, "EVENT_TYPE_YANG",			InGameEventManager::EVENT_TYPE_YANG);

  000ab	6a 0d		 push	 13			; 0000000dH
  000ad	68 00 00 00 00	 push	 OFFSET ??_C@_0BA@LOBOMKFP@EVENT_TYPE_YANG@
  000b2	57		 push	 edi
  000b3	ff d6		 call	 esi

; 122  : #ifdef ENABLE_MINIGAME_OKEY_CARDS_SYSTEM
; 123  : 	PyModule_AddIntConstant(poModule, "EVENT_TYPE_OKEY_CARDS",		InGameEventManager::EVENT_TYPE_OKEY_CARDS);

  000b5	6a 0e		 push	 14			; 0000000eH
  000b7	68 00 00 00 00	 push	 OFFSET ??_C@_0BG@CFLNOGKM@EVENT_TYPE_OKEY_CARDS@
  000bc	57		 push	 edi
  000bd	ff d6		 call	 esi

; 124  : #endif
; 125  : 	PyModule_AddIntConstant(poModule, "EVENT_MAX_NUM",				InGameEventManager::EVENT_MAX_NUM);

  000bf	6a 0f		 push	 15			; 0000000fH
  000c1	68 00 00 00 00	 push	 OFFSET ??_C@_0O@CNMKCEPI@EVENT_MAX_NUM@
  000c6	57		 push	 edi
  000c7	ff d6		 call	 esi
  000c9	83 c4 48	 add	 esp, 72			; 00000048H

; 126  : 	PyModule_AddIntConstant(poModule, "DAY_MAX_NUM",				InGameEventManager::DAY_MAX_NUM);

  000cc	6a 1f		 push	 31			; 0000001fH
  000ce	68 00 00 00 00	 push	 OFFSET ??_C@_0M@BGHCNJHJ@DAY_MAX_NUM@
  000d3	57		 push	 edi
  000d4	ff d6		 call	 esi

; 127  : 	PyModule_AddIntConstant(poModule, "REWARD_MAX_NUM",				InGameEventManager::REWARD_MAX_NUM);

  000d6	6a 03		 push	 3
  000d8	68 00 00 00 00	 push	 OFFSET ??_C@_0P@FAGPDOGF@REWARD_MAX_NUM@
  000dd	57		 push	 edi
  000de	ff d6		 call	 esi
  000e0	83 c4 18	 add	 esp, 24			; 00000018H
  000e3	5f		 pop	 edi
  000e4	5e		 pop	 esi

; 128  : #else
; 129  : 	Py_InitModule("eventMgr", s_methods);
; 130  : #endif
; 131  : }

  000e5	c3		 ret	 0
?initeventmgr@@YAXXZ ENDP				; initeventmgr
_TEXT	ENDS
END
