; Listing generated by Microsoft (R) Optimizing Compiler Version 19.44.35219.0 

	TITLE	c:\anka2project\anka2project\source\binary\vs_files\userinterface\release\pythoncharactermanager.obj
	.686P
	.XMM
	include listing.inc
	.model	flat

INCLUDELIB OLDNAMES

PUBLIC	??_C@_1JE@NHCKLKIG@?$AAC?$AA?3?$AA?2?$AAA?$AAn?$AAk?$AAa?$AA2?$AAP?$AAr?$AAo?$AAj?$AAe?$AAc?$AAt@ ; `string'
PUBLIC	??_C@_1DC@NFJMNKJC@?$AAm?$AAs?$AA_?$AAO?$AAb?$AAj?$AAM?$AAa?$AAn?$AAa?$AAg?$AAe?$AAr?$AA?5?$AA?$DN@ ; `string'
PUBLIC	??_C@_07DDCLDHCF@Actor?3?5@			; `string'
PUBLIC	??_C@_0BN@MCDFNGBH@Container?5?9?5Live?5?$CFd?0?5Dead?5?$CFd@ ; `string'
PUBLIC	??_C@_0EC@KAFJJKBD@CPythonCharacterManager?3?3Create@ ; `string'
PUBLIC	??_C@_0DJ@DCBIHGAA@CPythonCharacterManager?3?3Create@ ; `string'
PUBLIC	??_C@_0CH@HECKLEJN@DeleteCharacterInstance?3?5no?5vid@ ; `string'
PUBLIC	??_C@_0CH@DINFEOPA@SelectCharacterInstance?3?5no?5vid@ ; `string'
PUBLIC	??_R2CPythonCharacterManager@@8			; CPythonCharacterManager::`RTTI Base Class Array'
PUBLIC	??_R2?$CSingleton@VCPythonCharacterManager@@@@8	; CSingleton<CPythonCharacterManager>::`RTTI Base Class Array'
PUBLIC	??_R2IObjectManager@@8				; IObjectManager::`RTTI Base Class Array'
PUBLIC	??_R2IAbstractCharacterManager@@8		; IAbstractCharacterManager::`RTTI Base Class Array'
PUBLIC	??_R2?$TAbstractSingleton@VIAbstractCharacterManager@@@@8 ; TAbstractSingleton<IAbstractCharacterManager>::`RTTI Base Class Array'
PUBLIC	??_R17?0A@EA@IObjectManager@@8			; IObjectManager::`RTTI Base Class Descriptor at (8,-1,0,64)'
PUBLIC	??_R13?0A@EA@?$TAbstractSingleton@VIAbstractCharacterManager@@@@8 ; TAbstractSingleton<IAbstractCharacterManager>::`RTTI Base Class Descriptor at (4,-1,0,64)'
PUBLIC	??_R13?0A@EA@IAbstractCharacterManager@@8	; IAbstractCharacterManager::`RTTI Base Class Descriptor at (4,-1,0,64)'
PUBLIC	??_R1A@?0A@EA@CPythonCharacterManager@@8	; CPythonCharacterManager::`RTTI Base Class Descriptor at (0,-1,0,64)'
PUBLIC	??_R1A@?0A@EA@?$CSingleton@VCPythonCharacterManager@@@@8 ; CSingleton<CPythonCharacterManager>::`RTTI Base Class Descriptor at (0,-1,0,64)'
PUBLIC	??_R1A@?0A@EA@IObjectManager@@8			; IObjectManager::`RTTI Base Class Descriptor at (0,-1,0,64)'
PUBLIC	??_R1A@?0A@EA@IAbstractCharacterManager@@8	; IAbstractCharacterManager::`RTTI Base Class Descriptor at (0,-1,0,64)'
PUBLIC	??_R1A@?0A@EA@?$TAbstractSingleton@VIAbstractCharacterManager@@@@8 ; TAbstractSingleton<IAbstractCharacterManager>::`RTTI Base Class Descriptor at (0,-1,0,64)'
PUBLIC	??_R3?$CSingleton@VCPythonCharacterManager@@@@8	; CSingleton<CPythonCharacterManager>::`RTTI Class Hierarchy Descriptor'
PUBLIC	??_R0?AV?$CSingleton@VCPythonCharacterManager@@@@@8 ; CSingleton<CPythonCharacterManager> `RTTI Type Descriptor'
PUBLIC	??_R3CPythonCharacterManager@@8			; CPythonCharacterManager::`RTTI Class Hierarchy Descriptor'
PUBLIC	??_R0?AVCPythonCharacterManager@@@8		; CPythonCharacterManager `RTTI Type Descriptor'
PUBLIC	??_R3IObjectManager@@8				; IObjectManager::`RTTI Class Hierarchy Descriptor'
PUBLIC	??_R0?AVIObjectManager@@@8			; IObjectManager `RTTI Type Descriptor'
PUBLIC	??_R3?$TAbstractSingleton@VIAbstractCharacterManager@@@@8 ; TAbstractSingleton<IAbstractCharacterManager>::`RTTI Class Hierarchy Descriptor'
PUBLIC	??_R0?AV?$TAbstractSingleton@VIAbstractCharacterManager@@@@@8 ; TAbstractSingleton<IAbstractCharacterManager> `RTTI Type Descriptor'
PUBLIC	??_R3IAbstractCharacterManager@@8		; IAbstractCharacterManager::`RTTI Class Hierarchy Descriptor'
PUBLIC	??_R0?AVIAbstractCharacterManager@@@8		; IAbstractCharacterManager `RTTI Type Descriptor'
PUBLIC	??_R4?$CSingleton@VCPythonCharacterManager@@@@6B@ ; CSingleton<CPythonCharacterManager>::`RTTI Complete Object Locator'
PUBLIC	??_R4CPythonCharacterManager@@6BIObjectManager@@@ ; CPythonCharacterManager::`RTTI Complete Object Locator'
PUBLIC	??_R4CPythonCharacterManager@@6BIAbstractCharacterManager@@@ ; CPythonCharacterManager::`RTTI Complete Object Locator'
PUBLIC	??_R4CPythonCharacterManager@@6B?$CSingleton@VCPythonCharacterManager@@@@@ ; CPythonCharacterManager::`RTTI Complete Object Locator'
PUBLIC	??_R4IObjectManager@@6B@			; IObjectManager::`RTTI Complete Object Locator'
PUBLIC	??_R4?$TAbstractSingleton@VIAbstractCharacterManager@@@@6B@ ; TAbstractSingleton<IAbstractCharacterManager>::`RTTI Complete Object Locator'
PUBLIC	??_R4IAbstractCharacterManager@@6B@		; IAbstractCharacterManager::`RTTI Complete Object Locator'
PUBLIC	?ms_singleton@?$TAbstractSingleton@VIAbstractCharacterManager@@@@0PAVIAbstractCharacterManager@@A ; TAbstractSingleton<IAbstractCharacterManager>::ms_singleton
PUBLIC	??_7?$TAbstractSingleton@VIAbstractCharacterManager@@@@6B@ ; TAbstractSingleton<IAbstractCharacterManager>::`vftable'
PUBLIC	??_7?$CSingleton@VCPythonCharacterManager@@@@6B@ ; CSingleton<CPythonCharacterManager>::`vftable'
PUBLIC	??_7CPythonCharacterManager@@6BIObjectManager@@@ ; CPythonCharacterManager::`vftable'
PUBLIC	??_7CPythonCharacterManager@@6BIAbstractCharacterManager@@@ ; CPythonCharacterManager::`vftable'
PUBLIC	??_7CPythonCharacterManager@@6B?$CSingleton@VCPythonCharacterManager@@@@@ ; CPythonCharacterManager::`vftable'
PUBLIC	??_7IObjectManager@@6B@				; IObjectManager::`vftable'
PUBLIC	??_7IAbstractCharacterManager@@6B@		; IAbstractCharacterManager::`vftable'
PUBLIC	?CHAR_STAGE_VIEW_BOUND@@3HA			; CHAR_STAGE_VIEW_BOUND
EXTRN	?ProjectPosition@CScreen@@QAEXMMMPAM0@Z:PROC	; CScreen::ProjectPosition
EXTRN	?Tracef@@YAXPBDZZ:PROC				; Tracef
EXTRN	?SetTexture@CStateManager@@QAEXKPAUIDirect3DBaseTexture8@@@Z:PROC ; CStateManager::SetTexture
EXTRN	?TestPhysicsBlendingCollision@CActorInstance@@QAEHAAV1@@Z:PROC ; CActorInstance::TestPhysicsBlendingCollision
EXTRN	?ms_ObjManager@IObjectManager@@0PAV1@A:DWORD	; IObjectManager::ms_ObjManager
EXTRN	?ms_pWorld@IPhysicsWorld@@0PAV1@A:DWORD		; IPhysicsWorld::ms_pWorld
;	COMDAT ?ms_singleton@?$TAbstractSingleton@VIAbstractCharacterManager@@@@0PAVIAbstractCharacterManager@@A
_BSS	SEGMENT
?ms_singleton@?$TAbstractSingleton@VIAbstractCharacterManager@@@@0PAVIAbstractCharacterManager@@A DD 01H DUP (?) ; TAbstractSingleton<IAbstractCharacterManager>::ms_singleton
_BSS	ENDS
;	COMDAT ?s_kVct_pkInstDeadSort@?1??__RenderSortedDeadActorList@CPythonCharacterManager@@IAEXXZ@4V?$vector@PAVCInstanceBase@@V?$allocator@PAVCInstanceBase@@@std@@@std@@A
_BSS	SEGMENT
?s_kVct_pkInstDeadSort@?1??__RenderSortedDeadActorList@CPythonCharacterManager@@IAEXXZ@4V?$vector@PAVCInstanceBase@@V?$allocator@PAVCInstanceBase@@@std@@@std@@A DB 0cH DUP (?) ; `CPythonCharacterManager::__RenderSortedDeadActorList'::`2'::s_kVct_pkInstDeadSort
_BSS	ENDS
;	COMDAT ?s_kVct_pkInstAliveSort@?1??__RenderSortedAliveActorList@CPythonCharacterManager@@IAEXXZ@4V?$vector@PAVCInstanceBase@@V?$allocator@PAVCInstanceBase@@@std@@@std@@A
_BSS	SEGMENT
?s_kVct_pkInstAliveSort@?1??__RenderSortedAliveActorList@CPythonCharacterManager@@IAEXXZ@4V?$vector@PAVCInstanceBase@@V?$allocator@PAVCInstanceBase@@@std@@@std@@A DB 0cH DUP (?) ; `CPythonCharacterManager::__RenderSortedAliveActorList'::`2'::s_kVct_pkInstAliveSort
_BSS	ENDS
;	COMDAT ??_7IAbstractCharacterManager@@6B@
CONST	SEGMENT
??_7IAbstractCharacterManager@@6B@ DD FLAT:??_R4IAbstractCharacterManager@@6B@ ; IAbstractCharacterManager::`vftable'
	DD	FLAT:??_EIAbstractCharacterManager@@UAEPAXI@Z
	DD	FLAT:__purecall
	DD	FLAT:__purecall
CONST	ENDS
;	COMDAT ??_7IObjectManager@@6B@
CONST	SEGMENT
??_7IObjectManager@@6B@ DD FLAT:??_R4IObjectManager@@6B@ ; IObjectManager::`vftable'
	DD	FLAT:??_EIObjectManager@@UAEPAXI@Z
	DD	FLAT:__purecall
CONST	ENDS
;	COMDAT ??_7CPythonCharacterManager@@6B?$CSingleton@VCPythonCharacterManager@@@@@
CONST	SEGMENT
??_7CPythonCharacterManager@@6B?$CSingleton@VCPythonCharacterManager@@@@@ DD FLAT:??_R4CPythonCharacterManager@@6B?$CSingleton@VCPythonCharacterManager@@@@@ ; CPythonCharacterManager::`vftable'
	DD	FLAT:??_ECPythonCharacterManager@@UAEPAXI@Z
CONST	ENDS
;	COMDAT ??_7CPythonCharacterManager@@6BIAbstractCharacterManager@@@
CONST	SEGMENT
??_7CPythonCharacterManager@@6BIAbstractCharacterManager@@@ DD FLAT:??_R4CPythonCharacterManager@@6BIAbstractCharacterManager@@@ ; CPythonCharacterManager::`vftable'
	DD	FLAT:??_ECPythonCharacterManager@@W3AEPAXI@Z
	DD	FLAT:?Destroy@CPythonCharacterManager@@UAEXXZ
	DD	FLAT:?GetInstancePtr@CPythonCharacterManager@@UAEPAVCInstanceBase@@K@Z
CONST	ENDS
;	COMDAT ??_7CPythonCharacterManager@@6BIObjectManager@@@
CONST	SEGMENT
??_7CPythonCharacterManager@@6BIObjectManager@@@ DD FLAT:??_R4CPythonCharacterManager@@6BIObjectManager@@@ ; CPythonCharacterManager::`vftable'
	DD	FLAT:??_ECPythonCharacterManager@@W7AEPAXI@Z
	DD	FLAT:?AdjustCollisionWithOtherObjects@CPythonCharacterManager@@UAEXPAVCActorInstance@@@Z
CONST	ENDS
;	COMDAT ??_7?$CSingleton@VCPythonCharacterManager@@@@6B@
CONST	SEGMENT
??_7?$CSingleton@VCPythonCharacterManager@@@@6B@ DD FLAT:??_R4?$CSingleton@VCPythonCharacterManager@@@@6B@ ; CSingleton<CPythonCharacterManager>::`vftable'
	DD	FLAT:??_E?$CSingleton@VCPythonCharacterManager@@@@UAEPAXI@Z
CONST	ENDS
;	COMDAT ??_7?$TAbstractSingleton@VIAbstractCharacterManager@@@@6B@
CONST	SEGMENT
??_7?$TAbstractSingleton@VIAbstractCharacterManager@@@@6B@ DD FLAT:??_R4?$TAbstractSingleton@VIAbstractCharacterManager@@@@6B@ ; TAbstractSingleton<IAbstractCharacterManager>::`vftable'
	DD	FLAT:??_E?$TAbstractSingleton@VIAbstractCharacterManager@@@@UAEPAXI@Z
CONST	ENDS
;	COMDAT ??_R4IAbstractCharacterManager@@6B@
rdata$r	SEGMENT
??_R4IAbstractCharacterManager@@6B@ DD 00H		; IAbstractCharacterManager::`RTTI Complete Object Locator'
	DD	00H
	DD	00H
	DD	FLAT:??_R0?AVIAbstractCharacterManager@@@8
	DD	FLAT:??_R3IAbstractCharacterManager@@8
rdata$r	ENDS
;	COMDAT ??_R4?$TAbstractSingleton@VIAbstractCharacterManager@@@@6B@
rdata$r	SEGMENT
??_R4?$TAbstractSingleton@VIAbstractCharacterManager@@@@6B@ DD 00H ; TAbstractSingleton<IAbstractCharacterManager>::`RTTI Complete Object Locator'
	DD	00H
	DD	00H
	DD	FLAT:??_R0?AV?$TAbstractSingleton@VIAbstractCharacterManager@@@@@8
	DD	FLAT:??_R3?$TAbstractSingleton@VIAbstractCharacterManager@@@@8
rdata$r	ENDS
;	COMDAT ??_R4IObjectManager@@6B@
rdata$r	SEGMENT
??_R4IObjectManager@@6B@ DD 00H				; IObjectManager::`RTTI Complete Object Locator'
	DD	00H
	DD	00H
	DD	FLAT:??_R0?AVIObjectManager@@@8
	DD	FLAT:??_R3IObjectManager@@8
rdata$r	ENDS
;	COMDAT ??_R4CPythonCharacterManager@@6B?$CSingleton@VCPythonCharacterManager@@@@@
rdata$r	SEGMENT
??_R4CPythonCharacterManager@@6B?$CSingleton@VCPythonCharacterManager@@@@@ DD 00H ; CPythonCharacterManager::`RTTI Complete Object Locator'
	DD	00H
	DD	00H
	DD	FLAT:??_R0?AVCPythonCharacterManager@@@8
	DD	FLAT:??_R3CPythonCharacterManager@@8
rdata$r	ENDS
;	COMDAT ??_R4CPythonCharacterManager@@6BIAbstractCharacterManager@@@
rdata$r	SEGMENT
??_R4CPythonCharacterManager@@6BIAbstractCharacterManager@@@ DD 00H ; CPythonCharacterManager::`RTTI Complete Object Locator'
	DD	04H
	DD	00H
	DD	FLAT:??_R0?AVCPythonCharacterManager@@@8
	DD	FLAT:??_R3CPythonCharacterManager@@8
rdata$r	ENDS
;	COMDAT ??_R4CPythonCharacterManager@@6BIObjectManager@@@
rdata$r	SEGMENT
??_R4CPythonCharacterManager@@6BIObjectManager@@@ DD 00H ; CPythonCharacterManager::`RTTI Complete Object Locator'
	DD	08H
	DD	00H
	DD	FLAT:??_R0?AVCPythonCharacterManager@@@8
	DD	FLAT:??_R3CPythonCharacterManager@@8
rdata$r	ENDS
;	COMDAT ??_R4?$CSingleton@VCPythonCharacterManager@@@@6B@
rdata$r	SEGMENT
??_R4?$CSingleton@VCPythonCharacterManager@@@@6B@ DD 00H ; CSingleton<CPythonCharacterManager>::`RTTI Complete Object Locator'
	DD	00H
	DD	00H
	DD	FLAT:??_R0?AV?$CSingleton@VCPythonCharacterManager@@@@@8
	DD	FLAT:??_R3?$CSingleton@VCPythonCharacterManager@@@@8
rdata$r	ENDS
;	COMDAT ??_R0?AVIAbstractCharacterManager@@@8
data$rs	SEGMENT
??_R0?AVIAbstractCharacterManager@@@8 DD FLAT:??_7type_info@@6B@ ; IAbstractCharacterManager `RTTI Type Descriptor'
	DD	00H
	DB	'.?AVIAbstractCharacterManager@@', 00H
data$rs	ENDS
;	COMDAT ??_R3IAbstractCharacterManager@@8
rdata$r	SEGMENT
??_R3IAbstractCharacterManager@@8 DD 00H		; IAbstractCharacterManager::`RTTI Class Hierarchy Descriptor'
	DD	00H
	DD	02H
	DD	FLAT:??_R2IAbstractCharacterManager@@8
rdata$r	ENDS
;	COMDAT ??_R0?AV?$TAbstractSingleton@VIAbstractCharacterManager@@@@@8
data$rs	SEGMENT
??_R0?AV?$TAbstractSingleton@VIAbstractCharacterManager@@@@@8 DD FLAT:??_7type_info@@6B@ ; TAbstractSingleton<IAbstractCharacterManager> `RTTI Type Descriptor'
	DD	00H
	DB	'.?AV?$TAbstractSingleton@VIAbstractCharacterManager@@@@', 00H
data$rs	ENDS
;	COMDAT ??_R3?$TAbstractSingleton@VIAbstractCharacterManager@@@@8
rdata$r	SEGMENT
??_R3?$TAbstractSingleton@VIAbstractCharacterManager@@@@8 DD 00H ; TAbstractSingleton<IAbstractCharacterManager>::`RTTI Class Hierarchy Descriptor'
	DD	00H
	DD	01H
	DD	FLAT:??_R2?$TAbstractSingleton@VIAbstractCharacterManager@@@@8
rdata$r	ENDS
;	COMDAT ??_R0?AVIObjectManager@@@8
data$rs	SEGMENT
??_R0?AVIObjectManager@@@8 DD FLAT:??_7type_info@@6B@	; IObjectManager `RTTI Type Descriptor'
	DD	00H
	DB	'.?AVIObjectManager@@', 00H
data$rs	ENDS
;	COMDAT ??_R3IObjectManager@@8
rdata$r	SEGMENT
??_R3IObjectManager@@8 DD 00H				; IObjectManager::`RTTI Class Hierarchy Descriptor'
	DD	00H
	DD	01H
	DD	FLAT:??_R2IObjectManager@@8
rdata$r	ENDS
;	COMDAT ??_R0?AVCPythonCharacterManager@@@8
data$rs	SEGMENT
??_R0?AVCPythonCharacterManager@@@8 DD FLAT:??_7type_info@@6B@ ; CPythonCharacterManager `RTTI Type Descriptor'
	DD	00H
	DB	'.?AVCPythonCharacterManager@@', 00H
data$rs	ENDS
;	COMDAT ??_R3CPythonCharacterManager@@8
rdata$r	SEGMENT
??_R3CPythonCharacterManager@@8 DD 00H			; CPythonCharacterManager::`RTTI Class Hierarchy Descriptor'
	DD	01H
	DD	05H
	DD	FLAT:??_R2CPythonCharacterManager@@8
rdata$r	ENDS
;	COMDAT ??_R0?AV?$CSingleton@VCPythonCharacterManager@@@@@8
data$rs	SEGMENT
??_R0?AV?$CSingleton@VCPythonCharacterManager@@@@@8 DD FLAT:??_7type_info@@6B@ ; CSingleton<CPythonCharacterManager> `RTTI Type Descriptor'
	DD	00H
	DB	'.?AV?$CSingleton@VCPythonCharacterManager@@@@', 00H
data$rs	ENDS
;	COMDAT ??_R3?$CSingleton@VCPythonCharacterManager@@@@8
rdata$r	SEGMENT
??_R3?$CSingleton@VCPythonCharacterManager@@@@8 DD 00H	; CSingleton<CPythonCharacterManager>::`RTTI Class Hierarchy Descriptor'
	DD	00H
	DD	01H
	DD	FLAT:??_R2?$CSingleton@VCPythonCharacterManager@@@@8
rdata$r	ENDS
;	COMDAT ??_R1A@?0A@EA@?$TAbstractSingleton@VIAbstractCharacterManager@@@@8
rdata$r	SEGMENT
??_R1A@?0A@EA@?$TAbstractSingleton@VIAbstractCharacterManager@@@@8 DD FLAT:??_R0?AV?$TAbstractSingleton@VIAbstractCharacterManager@@@@@8 ; TAbstractSingleton<IAbstractCharacterManager>::`RTTI Base Class Descriptor at (0,-1,0,64)'
	DD	00H
	DD	00H
	DD	0ffffffffH
	DD	00H
	DD	040H
	DD	FLAT:??_R3?$TAbstractSingleton@VIAbstractCharacterManager@@@@8
rdata$r	ENDS
;	COMDAT ??_R1A@?0A@EA@IAbstractCharacterManager@@8
rdata$r	SEGMENT
??_R1A@?0A@EA@IAbstractCharacterManager@@8 DD FLAT:??_R0?AVIAbstractCharacterManager@@@8 ; IAbstractCharacterManager::`RTTI Base Class Descriptor at (0,-1,0,64)'
	DD	01H
	DD	00H
	DD	0ffffffffH
	DD	00H
	DD	040H
	DD	FLAT:??_R3IAbstractCharacterManager@@8
rdata$r	ENDS
;	COMDAT ??_R1A@?0A@EA@IObjectManager@@8
rdata$r	SEGMENT
??_R1A@?0A@EA@IObjectManager@@8 DD FLAT:??_R0?AVIObjectManager@@@8 ; IObjectManager::`RTTI Base Class Descriptor at (0,-1,0,64)'
	DD	00H
	DD	00H
	DD	0ffffffffH
	DD	00H
	DD	040H
	DD	FLAT:??_R3IObjectManager@@8
rdata$r	ENDS
;	COMDAT ??_R1A@?0A@EA@?$CSingleton@VCPythonCharacterManager@@@@8
rdata$r	SEGMENT
??_R1A@?0A@EA@?$CSingleton@VCPythonCharacterManager@@@@8 DD FLAT:??_R0?AV?$CSingleton@VCPythonCharacterManager@@@@@8 ; CSingleton<CPythonCharacterManager>::`RTTI Base Class Descriptor at (0,-1,0,64)'
	DD	00H
	DD	00H
	DD	0ffffffffH
	DD	00H
	DD	040H
	DD	FLAT:??_R3?$CSingleton@VCPythonCharacterManager@@@@8
rdata$r	ENDS
;	COMDAT ??_R1A@?0A@EA@CPythonCharacterManager@@8
rdata$r	SEGMENT
??_R1A@?0A@EA@CPythonCharacterManager@@8 DD FLAT:??_R0?AVCPythonCharacterManager@@@8 ; CPythonCharacterManager::`RTTI Base Class Descriptor at (0,-1,0,64)'
	DD	04H
	DD	00H
	DD	0ffffffffH
	DD	00H
	DD	040H
	DD	FLAT:??_R3CPythonCharacterManager@@8
rdata$r	ENDS
;	COMDAT ??_R13?0A@EA@IAbstractCharacterManager@@8
rdata$r	SEGMENT
??_R13?0A@EA@IAbstractCharacterManager@@8 DD FLAT:??_R0?AVIAbstractCharacterManager@@@8 ; IAbstractCharacterManager::`RTTI Base Class Descriptor at (4,-1,0,64)'
	DD	01H
	DD	04H
	DD	0ffffffffH
	DD	00H
	DD	040H
	DD	FLAT:??_R3IAbstractCharacterManager@@8
rdata$r	ENDS
;	COMDAT ??_R13?0A@EA@?$TAbstractSingleton@VIAbstractCharacterManager@@@@8
rdata$r	SEGMENT
??_R13?0A@EA@?$TAbstractSingleton@VIAbstractCharacterManager@@@@8 DD FLAT:??_R0?AV?$TAbstractSingleton@VIAbstractCharacterManager@@@@@8 ; TAbstractSingleton<IAbstractCharacterManager>::`RTTI Base Class Descriptor at (4,-1,0,64)'
	DD	00H
	DD	04H
	DD	0ffffffffH
	DD	00H
	DD	040H
	DD	FLAT:??_R3?$TAbstractSingleton@VIAbstractCharacterManager@@@@8
rdata$r	ENDS
;	COMDAT ??_R17?0A@EA@IObjectManager@@8
rdata$r	SEGMENT
??_R17?0A@EA@IObjectManager@@8 DD FLAT:??_R0?AVIObjectManager@@@8 ; IObjectManager::`RTTI Base Class Descriptor at (8,-1,0,64)'
	DD	00H
	DD	08H
	DD	0ffffffffH
	DD	00H
	DD	040H
	DD	FLAT:??_R3IObjectManager@@8
rdata$r	ENDS
;	COMDAT ??_R2?$TAbstractSingleton@VIAbstractCharacterManager@@@@8
rdata$r	SEGMENT
??_R2?$TAbstractSingleton@VIAbstractCharacterManager@@@@8 DD FLAT:??_R1A@?0A@EA@?$TAbstractSingleton@VIAbstractCharacterManager@@@@8 ; TAbstractSingleton<IAbstractCharacterManager>::`RTTI Base Class Array'
rdata$r	ENDS
;	COMDAT ??_R2IAbstractCharacterManager@@8
rdata$r	SEGMENT
??_R2IAbstractCharacterManager@@8 DD FLAT:??_R1A@?0A@EA@IAbstractCharacterManager@@8 ; IAbstractCharacterManager::`RTTI Base Class Array'
	DD	FLAT:??_R1A@?0A@EA@?$TAbstractSingleton@VIAbstractCharacterManager@@@@8
rdata$r	ENDS
;	COMDAT ??_R2IObjectManager@@8
rdata$r	SEGMENT
??_R2IObjectManager@@8 DD FLAT:??_R1A@?0A@EA@IObjectManager@@8 ; IObjectManager::`RTTI Base Class Array'
rdata$r	ENDS
;	COMDAT ??_R2?$CSingleton@VCPythonCharacterManager@@@@8
rdata$r	SEGMENT
??_R2?$CSingleton@VCPythonCharacterManager@@@@8 DD FLAT:??_R1A@?0A@EA@?$CSingleton@VCPythonCharacterManager@@@@8 ; CSingleton<CPythonCharacterManager>::`RTTI Base Class Array'
rdata$r	ENDS
;	COMDAT ??_R2CPythonCharacterManager@@8
rdata$r	SEGMENT
??_R2CPythonCharacterManager@@8 DD FLAT:??_R1A@?0A@EA@CPythonCharacterManager@@8 ; CPythonCharacterManager::`RTTI Base Class Array'
	DD	FLAT:??_R1A@?0A@EA@?$CSingleton@VCPythonCharacterManager@@@@8
	DD	FLAT:??_R13?0A@EA@IAbstractCharacterManager@@8
	DD	FLAT:??_R13?0A@EA@?$TAbstractSingleton@VIAbstractCharacterManager@@@@8
	DD	FLAT:??_R17?0A@EA@IObjectManager@@8
rdata$r	ENDS
;	COMDAT ??_C@_0CH@DINFEOPA@SelectCharacterInstance?3?5no?5vid@
CONST	SEGMENT
??_C@_0CH@DINFEOPA@SelectCharacterInstance?3?5no?5vid@ DB 'SelectCharacte'
	DB	'rInstance: no vid by %d', 0aH, 00H		; `string'
CONST	ENDS
;	COMDAT ??_C@_0CH@HECKLEJN@DeleteCharacterInstance?3?5no?5vid@
CONST	SEGMENT
??_C@_0CH@HECKLEJN@DeleteCharacterInstance?3?5no?5vid@ DB 'DeleteCharacte'
	DB	'rInstance: no vid by %d', 0aH, 00H		; `string'
CONST	ENDS
;	COMDAT ??_C@_0DJ@DCBIHGAA@CPythonCharacterManager?3?3Create@
CONST	SEGMENT
??_C@_0DJ@DCBIHGAA@CPythonCharacterManager?3?3Create@ DB 'CPythonCharacte'
	DB	'rManager::CreateInstance VID[%d] Race[%d]', 00H ; `string'
CONST	ENDS
;	COMDAT ??_C@_0EC@KAFJJKBD@CPythonCharacterManager?3?3Create@
CONST	SEGMENT
??_C@_0EC@KAFJJKBD@CPythonCharacterManager?3?3Create@ DB 'CPythonCharacte'
	DB	'rManager::CreateInstance: VID[%d] - ALREADY EXIST', 0aH, 00H ; `string'
CONST	ENDS
;	COMDAT ??_C@_0BN@MCDFNGBH@Container?5?9?5Live?5?$CFd?0?5Dead?5?$CFd@
CONST	SEGMENT
??_C@_0BN@MCDFNGBH@Container?5?9?5Live?5?$CFd?0?5Dead?5?$CFd@ DB 'Contain'
	DB	'er - Live %d, Dead %d', 00H			; `string'
CONST	ENDS
;	COMDAT ??_C@_07DDCLDHCF@Actor?3?5@
CONST	SEGMENT
??_C@_07DDCLDHCF@Actor?3?5@ DB 'Actor: ', 00H		; `string'
CONST	ENDS
;	COMDAT ??_C@_1DC@NFJMNKJC@?$AAm?$AAs?$AA_?$AAO?$AAb?$AAj?$AAM?$AAa?$AAn?$AAa?$AAg?$AAe?$AAr?$AA?5?$AA?$DN@
CONST	SEGMENT
??_C@_1DC@NFJMNKJC@?$AAm?$AAs?$AA_?$AAO?$AAb?$AAj?$AAM?$AAa?$AAn?$AAa?$AAg?$AAe?$AAr?$AA?5?$AA?$DN@ DB 'm'
	DB	00H, 's', 00H, '_', 00H, 'O', 00H, 'b', 00H, 'j', 00H, 'M', 00H
	DB	'a', 00H, 'n', 00H, 'a', 00H, 'g', 00H, 'e', 00H, 'r', 00H, ' '
	DB	00H, '=', 00H, '=', 00H, ' ', 00H, 'n', 00H, 'u', 00H, 'l', 00H
	DB	'l', 00H, 'p', 00H, 't', 00H, 'r', 00H, 00H, 00H ; `string'
CONST	ENDS
;	COMDAT ??_C@_1JE@NHCKLKIG@?$AAC?$AA?3?$AA?2?$AAA?$AAn?$AAk?$AAa?$AA2?$AAP?$AAr?$AAo?$AAj?$AAe?$AAc?$AAt@
CONST	SEGMENT
??_C@_1JE@NHCKLKIG@?$AAC?$AA?3?$AA?2?$AAA?$AAn?$AAk?$AAa?$AA2?$AAP?$AAr?$AAo?$AAj?$AAe?$AAc?$AAt@ DB 'C'
	DB	00H, ':', 00H, '\', 00H, 'A', 00H, 'n', 00H, 'k', 00H, 'a', 00H
	DB	'2', 00H, 'P', 00H, 'r', 00H, 'o', 00H, 'j', 00H, 'e', 00H, 'c'
	DB	00H, 't', 00H, '\', 00H, 'A', 00H, 'n', 00H, 'k', 00H, 'a', 00H
	DB	'2', 00H, 'P', 00H, 'r', 00H, 'o', 00H, 'j', 00H, 'e', 00H, 'c'
	DB	00H, 't', 00H, '\', 00H, 'S', 00H, 'o', 00H, 'u', 00H, 'r', 00H
	DB	'c', 00H, 'e', 00H, '\', 00H, 'B', 00H, 'i', 00H, 'n', 00H, 'a'
	DB	00H, 'r', 00H, 'y', 00H, '\', 00H, 's', 00H, 'o', 00H, 'u', 00H
	DB	'r', 00H, 'c', 00H, 'e', 00H, '\', 00H, 'g', 00H, 'a', 00H, 'm'
	DB	00H, 'e', 00H, 'l', 00H, 'i', 00H, 'b', 00H, '\', 00H, 'P', 00H
	DB	'h', 00H, 'y', 00H, 's', 00H, 'i', 00H, 'c', 00H, 's', 00H, 'O'
	DB	00H, 'b', 00H, 'j', 00H, 'e', 00H, 'c', 00H, 't', 00H, '.', 00H
	DB	'h', 00H, 00H, 00H				; `string'
?CHAR_STAGE_VIEW_BOUND@@3HA DD 04e20H			; CHAR_STAGE_VIEW_BOUND
PUBLIC	??0D3DXVECTOR2@@QAE@MM@Z			; D3DXVECTOR2::D3DXVECTOR2
PUBLIC	??0D3DXVECTOR2@@QAE@XZ				; D3DXVECTOR2::D3DXVECTOR2
PUBLIC	??_ECPythonCharacterManager@@W7AEPAXI@Z		; [thunk]:CPythonCharacterManager::`vector deleting destructor'
PUBLIC	??_ECPythonCharacterManager@@W3AEPAXI@Z		; [thunk]:CPythonCharacterManager::`vector deleting destructor'
PUBLIC	??$construct_at@U?$pair@PAVCInstanceBase@@M@std@@U12@@std@@YAPAU?$pair@PAVCInstanceBase@@M@0@QAU10@$$QAU10@@Z ; std::construct_at<std::pair<CInstanceBase *,float>,std::pair<CInstanceBase *,float> >
PUBLIC	??$move@AAM@std@@YA$$QAMAAM@Z			; std::move<float &>
PUBLIC	?_Get_first@?$_Compressed_pair@V?$allocator@U?$_Tree_node@U?$pair@$$CBKPAVCInstanceBase@@@std@@PAX@std@@@std@@V?$_Tree_val@U?$_Tree_simple_types@U?$pair@$$CBKPAVCInstanceBase@@@std@@@std@@@2@$00@std@@QBEABV?$allocator@U?$_Tree_node@U?$pair@$$CBKPAVCInstanceBase@@@std@@PAX@std@@@2@XZ ; std::_Compressed_pair<std::allocator<std::_Tree_node<std::pair<unsigned long const ,CInstanceBase *>,void *> >,std::_Tree_val<std::_Tree_simple_types<std::pair<unsigned long const ,CInstanceBase *> > >,1>::_Get_first
PUBLIC	?_Get_first@?$_Compressed_pair@V?$allocator@U?$pair@PAVCInstanceBase@@M@std@@@std@@V?$_Vector_val@U?$_Simple_types@U?$pair@PAVCInstanceBase@@M@std@@@std@@@2@$00@std@@QBEABV?$allocator@U?$pair@PAVCInstanceBase@@M@std@@@2@XZ ; std::_Compressed_pair<std::allocator<std::pair<CInstanceBase *,float> >,std::_Vector_val<std::_Simple_types<std::pair<CInstanceBase *,float> > >,1>::_Get_first
PUBLIC	??$construct_at@PAU?$_Tree_node@U?$pair@$$CBKPAVCInstanceBase@@@std@@PAX@std@@ABQAU12@@std@@YAPAPAU?$_Tree_node@U?$pair@$$CBKPAVCInstanceBase@@@std@@PAX@0@QAPAU10@ABQAU10@@Z ; std::construct_at<std::_Tree_node<std::pair<unsigned long const ,CInstanceBase *>,void *> *,std::_Tree_node<std::pair<unsigned long const ,CInstanceBase *>,void *> * const &>
PUBLIC	??$forward@ABQAU?$_Tree_node@U?$pair@$$CBKPAVCInstanceBase@@@std@@PAX@std@@@std@@YAABQAU?$_Tree_node@U?$pair@$$CBKPAVCInstanceBase@@@std@@PAX@0@ABQAU10@@Z ; std::forward<std::_Tree_node<std::pair<unsigned long const ,CInstanceBase *>,void *> * const &>
PUBLIC	??$construct@U?$pair@PAVCInstanceBase@@M@std@@U12@@?$_Default_allocator_traits@V?$allocator@U?$pair@PAVCInstanceBase@@M@std@@@std@@@std@@SAXAAV?$allocator@U?$pair@PAVCInstanceBase@@M@std@@@1@QAU?$pair@PAVCInstanceBase@@M@1@$$QAU31@@Z ; std::_Default_allocator_traits<std::allocator<std::pair<CInstanceBase *,float> > >::construct<std::pair<CInstanceBase *,float>,std::pair<CInstanceBase *,float> >
PUBLIC	??$_Copy_memmove_tail@PAU?$pair@PAVCInstanceBase@@M@std@@@std@@YAPAU?$pair@PAVCInstanceBase@@M@0@QBDQAU10@II@Z ; std::_Copy_memmove_tail<std::pair<CInstanceBase *,float> *>
PUBLIC	??$move@AAPAU?$pair@PAVCInstanceBase@@M@std@@@std@@YA$$QAPAU?$pair@PAVCInstanceBase@@M@0@AAPAU10@@Z ; std::move<std::pair<CInstanceBase *,float> * &>
PUBLIC	??$to_address@U?$pair@PAVCInstanceBase@@M@std@@@std@@YAPAU?$pair@PAVCInstanceBase@@M@0@QAU10@@Z ; std::to_address<std::pair<CInstanceBase *,float> >
PUBLIC	??$swap@M$0A@@std@@YAXAAM0@Z			; std::swap<float,0>
PUBLIC	?_Getal@?$_Tree@V?$_Tmap_traits@KPAVCInstanceBase@@U?$less@K@std@@V?$allocator@U?$pair@$$CBKPAVCInstanceBase@@@std@@@3@$0A@@std@@@std@@IBEABV?$allocator@U?$_Tree_node@U?$pair@$$CBKPAVCInstanceBase@@@std@@PAX@std@@@2@XZ ; std::_Tree<std::_Tmap_traits<unsigned long,CInstanceBase *,std::less<unsigned long>,std::allocator<std::pair<unsigned long const ,CInstanceBase *> >,0> >::_Getal
PUBLIC	??0?$allocator@U?$_Tree_node@U?$pair@$$CBKPAVCInstanceBase@@@std@@PAX@std@@@std@@QAE@XZ ; std::allocator<std::_Tree_node<std::pair<unsigned long const ,CInstanceBase *>,void *> >::allocator<std::_Tree_node<std::pair<unsigned long const ,CInstanceBase *>,void *> >
PUBLIC	?deallocate@?$allocator@U?$_Tree_node@U?$pair@$$CBKPAVCInstanceBase@@@std@@PAX@std@@@std@@QAEXQAU?$_Tree_node@U?$pair@$$CBKPAVCInstanceBase@@@std@@PAX@2@I@Z ; std::allocator<std::_Tree_node<std::pair<unsigned long const ,CInstanceBase *>,void *> >::deallocate
PUBLIC	?allocate@?$allocator@U?$_Tree_node@U?$pair@$$CBKPAVCInstanceBase@@@std@@PAX@std@@@std@@QAEPAU?$_Tree_node@U?$pair@$$CBKPAVCInstanceBase@@@std@@PAX@2@I@Z ; std::allocator<std::_Tree_node<std::pair<unsigned long const ,CInstanceBase *>,void *> >::allocate
PUBLIC	?max_size@?$_Default_allocator_traits@V?$allocator@U?$_Tree_node@U?$pair@$$CBKPAVCInstanceBase@@@std@@PAX@std@@@std@@@std@@SAIABV?$allocator@U?$_Tree_node@U?$pair@$$CBKPAVCInstanceBase@@@std@@PAX@std@@@2@@Z ; std::_Default_allocator_traits<std::allocator<std::_Tree_node<std::pair<unsigned long const ,CInstanceBase *>,void *> > >::max_size
PUBLIC	??0?$_Tree_val@U?$_Tree_simple_types@U?$pair@$$CBKPAVCInstanceBase@@@std@@@std@@@std@@QAE@XZ ; std::_Tree_val<std::_Tree_simple_types<std::pair<unsigned long const ,CInstanceBase *> > >::_Tree_val<std::_Tree_simple_types<std::pair<unsigned long const ,CInstanceBase *> > >
PUBLIC	?_Get_first@?$_Compressed_pair@U?$less@K@std@@V?$_Compressed_pair@V?$allocator@U?$_Tree_node@U?$pair@$$CBKPAVCInstanceBase@@@std@@PAX@std@@@std@@V?$_Tree_val@U?$_Tree_simple_types@U?$pair@$$CBKPAVCInstanceBase@@@std@@@std@@@2@$00@2@$00@std@@QBEABU?$less@K@2@XZ ; std::_Compressed_pair<std::less<unsigned long>,std::_Compressed_pair<std::allocator<std::_Tree_node<std::pair<unsigned long const ,CInstanceBase *>,void *> >,std::_Tree_val<std::_Tree_simple_types<std::pair<unsigned long const ,CInstanceBase *> > >,1>,1>::_Get_first
PUBLIC	?deallocate@?$allocator@U?$_List_node@PAVCInstanceBase@@PAX@std@@@std@@QAEXQAU?$_List_node@PAVCInstanceBase@@PAX@2@I@Z ; std::allocator<std::_List_node<CInstanceBase *,void *> >::deallocate
PUBLIC	?_Get_first@?$_Compressed_pair@V?$allocator@U?$_List_node@PAVCInstanceBase@@PAX@std@@@std@@V?$_List_val@U?$_List_simple_types@PAVCInstanceBase@@@std@@@2@$00@std@@QBEABV?$allocator@U?$_List_node@PAVCInstanceBase@@PAX@std@@@2@XZ ; std::_Compressed_pair<std::allocator<std::_List_node<CInstanceBase *,void *> >,std::_List_val<std::_List_simple_types<CInstanceBase *> >,1>::_Get_first
PUBLIC	?swap@?$pair@PAVCInstanceBase@@M@std@@QAEXAAU12@@Z ; std::pair<CInstanceBase *,float>::swap
PUBLIC	?allocate@?$allocator@U?$pair@PAVCInstanceBase@@M@std@@@std@@QAEPAU?$pair@PAVCInstanceBase@@M@2@I@Z ; std::allocator<std::pair<CInstanceBase *,float> >::allocate
PUBLIC	?capacity@?$vector@U?$pair@PAVCInstanceBase@@M@std@@V?$allocator@U?$pair@PAVCInstanceBase@@M@std@@@2@@std@@QBEIXZ ; std::vector<std::pair<CInstanceBase *,float>,std::allocator<std::pair<CInstanceBase *,float> > >::capacity
PUBLIC	?_Getal@?$vector@U?$pair@PAVCInstanceBase@@M@std@@V?$allocator@U?$pair@PAVCInstanceBase@@M@std@@@2@@std@@ABEABV?$allocator@U?$pair@PAVCInstanceBase@@M@std@@@2@XZ ; std::vector<std::pair<CInstanceBase *,float>,std::allocator<std::pair<CInstanceBase *,float> > >::_Getal
PUBLIC	?max_size@?$_Default_allocator_traits@V?$allocator@U?$pair@PAVCInstanceBase@@M@std@@@std@@@std@@SAIABV?$allocator@U?$pair@PAVCInstanceBase@@M@std@@@2@@Z ; std::_Default_allocator_traits<std::allocator<std::pair<CInstanceBase *,float> > >::max_size
PUBLIC	??0?$_Alloc_construct_ptr@V?$allocator@U?$_Tree_node@U?$pair@$$CBKPAVCInstanceBase@@@std@@PAX@std@@@std@@@std@@QAE@AAV?$allocator@U?$_Tree_node@U?$pair@$$CBKPAVCInstanceBase@@@std@@PAX@std@@@1@@Z ; std::_Alloc_construct_ptr<std::allocator<std::_Tree_node<std::pair<unsigned long const ,CInstanceBase *>,void *> > >::_Alloc_construct_ptr<std::allocator<std::_Tree_node<std::pair<unsigned long const ,CInstanceBase *>,void *> > >
PUBLIC	?_Allocate@?$_Alloc_construct_ptr@V?$allocator@U?$_Tree_node@U?$pair@$$CBKPAVCInstanceBase@@@std@@PAX@std@@@std@@@std@@QAEXXZ ; std::_Alloc_construct_ptr<std::allocator<std::_Tree_node<std::pair<unsigned long const ,CInstanceBase *>,void *> > >::_Allocate
PUBLIC	??0?$_Uninitialized_backout_al@V?$allocator@U?$pair@PAVCInstanceBase@@M@std@@@std@@@std@@QAE@PAU?$pair@PAVCInstanceBase@@M@1@AAV?$allocator@U?$pair@PAVCInstanceBase@@M@std@@@1@@Z ; std::_Uninitialized_backout_al<std::allocator<std::pair<CInstanceBase *,float> > >::_Uninitialized_backout_al<std::allocator<std::pair<CInstanceBase *,float> > >
PUBLIC	??1?$_Uninitialized_backout_al@V?$allocator@U?$pair@PAVCInstanceBase@@M@std@@@std@@@std@@QAE@XZ ; std::_Uninitialized_backout_al<std::allocator<std::pair<CInstanceBase *,float> > >::~_Uninitialized_backout_al<std::allocator<std::pair<CInstanceBase *,float> > >
PUBLIC	?_Release@?$_Uninitialized_backout_al@V?$allocator@U?$pair@PAVCInstanceBase@@M@std@@@std@@@std@@QAEPAU?$pair@PAVCInstanceBase@@M@2@XZ ; std::_Uninitialized_backout_al<std::allocator<std::pair<CInstanceBase *,float> > >::_Release
PUBLIC	??$_Construct_in_place@PAU?$_Tree_node@U?$pair@$$CBKPAVCInstanceBase@@@std@@PAX@std@@ABQAU12@@std@@YAXAAPAU?$_Tree_node@U?$pair@$$CBKPAVCInstanceBase@@@std@@PAX@0@ABQAU10@@Z ; std::_Construct_in_place<std::_Tree_node<std::pair<unsigned long const ,CInstanceBase *>,void *> *,std::_Tree_node<std::pair<unsigned long const ,CInstanceBase *>,void *> * const &>
PUBLIC	??$construct_at@PAU?$_List_node@PAVCInstanceBase@@PAX@std@@ABQAU12@@std@@YAPAPAU?$_List_node@PAVCInstanceBase@@PAX@0@QAPAU10@ABQAU10@@Z ; std::construct_at<std::_List_node<CInstanceBase *,void *> *,std::_List_node<CInstanceBase *,void *> * const &>
PUBLIC	??$forward@ABQAU?$_List_node@PAVCInstanceBase@@PAX@std@@@std@@YAABQAU?$_List_node@PAVCInstanceBase@@PAX@0@ABQAU10@@Z ; std::forward<std::_List_node<CInstanceBase *,void *> * const &>
PUBLIC	??$destroy_at@U?$pair@$$CBKPAVCInstanceBase@@@std@@@std@@YAXQAU?$pair@$$CBKPAVCInstanceBase@@@0@@Z ; std::destroy_at<std::pair<unsigned long const ,CInstanceBase *> >
PUBLIC	??$forward@AAPAU?$pair@PAVCInstanceBase@@M@std@@@std@@YAAAPAU?$pair@PAVCInstanceBase@@M@0@AAPAU10@@Z ; std::forward<std::pair<CInstanceBase *,float> * &>
PUBLIC	??$_Med3_unchecked@PAU?$pair@PAVCInstanceBase@@M@std@@P6A_NABU12@0@Z@std@@YAXPAU?$pair@PAVCInstanceBase@@M@0@00P6A_NABU10@1@Z@Z ; std::_Med3_unchecked<std::pair<CInstanceBase *,float> *,bool (__cdecl*)(std::pair<CInstanceBase *,float> const &,std::pair<CInstanceBase *,float> const &)>
PUBLIC	??$_Pop_heap_hole_unchecked@PAU?$pair@PAVCInstanceBase@@M@std@@U12@P6A_NABU12@0@Z@std@@YAXPAU?$pair@PAVCInstanceBase@@M@0@00$$QAU10@P6A_NABU10@2@Z@Z ; std::_Pop_heap_hole_unchecked<std::pair<CInstanceBase *,float> *,std::pair<CInstanceBase *,float>,bool (__cdecl*)(std::pair<CInstanceBase *,float> const &,std::pair<CInstanceBase *,float> const &)>
PUBLIC	??$_Push_heap_by_index@PAU?$pair@PAVCInstanceBase@@M@std@@U12@P6A_NABU12@0@Z@std@@YAXPAU?$pair@PAVCInstanceBase@@M@0@HH$$QAU10@P6A_NABU10@2@Z@Z ; std::_Push_heap_by_index<std::pair<CInstanceBase *,float> *,std::pair<CInstanceBase *,float>,bool (__cdecl*)(std::pair<CInstanceBase *,float> const &,std::pair<CInstanceBase *,float> const &)>
PUBLIC	??$forward@U?$pair@PAVCInstanceBase@@M@std@@@std@@YA$$QAU?$pair@PAVCInstanceBase@@M@0@AAU10@@Z ; std::forward<std::pair<CInstanceBase *,float> >
PUBLIC	??$_Emplace_back@U?$pair@PAVCInstanceBase@@M@std@@@?$_Uninitialized_backout_al@V?$allocator@U?$pair@PAVCInstanceBase@@M@std@@@std@@@std@@QAEX$$QAU?$pair@PAVCInstanceBase@@M@1@@Z ; std::_Uninitialized_backout_al<std::allocator<std::pair<CInstanceBase *,float> > >::_Emplace_back<std::pair<CInstanceBase *,float> >
PUBLIC	??$_To_address@PAU?$pair@PAVCInstanceBase@@M@std@@@std@@YA?A_PABQAU?$pair@PAVCInstanceBase@@M@0@@Z ; std::_To_address<std::pair<CInstanceBase *,float> *>
PUBLIC	??$_Copy_memmove@PAU?$pair@PAVCInstanceBase@@M@std@@PAU12@@std@@YAPAU?$pair@PAVCInstanceBase@@M@0@PAU10@00@Z ; std::_Copy_memmove<std::pair<CInstanceBase *,float> *,std::pair<CInstanceBase *,float> *>
PUBLIC	??$construct_at@U?$pair@PAVCInstanceBase@@M@std@@AAPAVCInstanceBase@@ABM@std@@YAPAU?$pair@PAVCInstanceBase@@M@0@QAU10@AAPAVCInstanceBase@@ABM@Z ; std::construct_at<std::pair<CInstanceBase *,float>,CInstanceBase * &,float const &>
PUBLIC	??$addressof@U?$pair@PAVCInstanceBase@@M@std@@@std@@YAPAU?$pair@PAVCInstanceBase@@M@0@AAU10@@Z ; std::addressof<std::pair<CInstanceBase *,float> >
PUBLIC	??$construct_at@PAVCInstanceBase@@AAPAV1@@std@@YAPAPAVCInstanceBase@@QAPAV1@AAPAV1@@Z ; std::construct_at<CInstanceBase *,CInstanceBase * &>
PUBLIC	??$_Med3_unchecked@PAPAVCInstanceBase@@U?$_Ref_fn@UCInstanceBase_SLessCameraDistance@@@std@@@std@@YAXPAPAVCInstanceBase@@00U?$_Ref_fn@UCInstanceBase_SLessCameraDistance@@@0@@Z ; std::_Med3_unchecked<CInstanceBase * *,std::_Ref_fn<CInstanceBase_SLessCameraDistance> >
PUBLIC	??$_Pop_heap_hole_unchecked@PAPAVCInstanceBase@@PAV1@U?$_Ref_fn@UCInstanceBase_SLessCameraDistance@@@std@@@std@@YAXPAPAVCInstanceBase@@00$$QAPAV1@U?$_Ref_fn@UCInstanceBase_SLessCameraDistance@@@0@@Z ; std::_Pop_heap_hole_unchecked<CInstanceBase * *,CInstanceBase *,std::_Ref_fn<CInstanceBase_SLessCameraDistance> >
PUBLIC	??$_Push_heap_by_index@PAPAVCInstanceBase@@PAV1@U?$_Ref_fn@UCInstanceBase_SLessCameraDistance@@@std@@@std@@YAXPAPAVCInstanceBase@@HH$$QAPAV1@U?$_Ref_fn@UCInstanceBase_SLessCameraDistance@@@0@@Z ; std::_Push_heap_by_index<CInstanceBase * *,CInstanceBase *,std::_Ref_fn<CInstanceBase_SLessCameraDistance> >
PUBLIC	??$construct_at@PAU?$_Tree_node@U?$pair@$$CBKPAVCInstanceBase@@@std@@PAX@std@@AAPAU12@@std@@YAPAPAU?$_Tree_node@U?$pair@$$CBKPAVCInstanceBase@@@std@@PAX@0@QAPAU10@AAPAU10@@Z ; std::construct_at<std::_Tree_node<std::pair<unsigned long const ,CInstanceBase *>,void *> *,std::_Tree_node<std::pair<unsigned long const ,CInstanceBase *>,void *> * &>
PUBLIC	??$addressof@PAU?$_Tree_node@U?$pair@$$CBKPAVCInstanceBase@@@std@@PAX@std@@@std@@YAPAPAU?$_Tree_node@U?$pair@$$CBKPAVCInstanceBase@@@std@@PAX@0@AAPAU10@@Z ; std::addressof<std::_Tree_node<std::pair<unsigned long const ,CInstanceBase *>,void *> *>
PUBLIC	??$construct_at@U?$pair@$$CBKPAVCInstanceBase@@@std@@U12@@std@@YAPAU?$pair@$$CBKPAVCInstanceBase@@@0@QAU10@$$QAU10@@Z ; std::construct_at<std::pair<unsigned long const ,CInstanceBase *>,std::pair<unsigned long const ,CInstanceBase *> >
PUBLIC	??$forward@AAPAPAVCInstanceBase@@@std@@YAAAPAPAVCInstanceBase@@AAPAPAV1@@Z ; std::forward<CInstanceBase * * &>
PUBLIC	??$_Med3_unchecked@PAPAVCInstanceBase@@ULessCharacterInstancePtrRenderOrder@@@std@@YAXPAPAVCInstanceBase@@00ULessCharacterInstancePtrRenderOrder@@@Z ; std::_Med3_unchecked<CInstanceBase * *,LessCharacterInstancePtrRenderOrder>
PUBLIC	??$_Pop_heap_hole_unchecked@PAPAVCInstanceBase@@PAV1@ULessCharacterInstancePtrRenderOrder@@@std@@YAXPAPAVCInstanceBase@@00$$QAPAV1@ULessCharacterInstancePtrRenderOrder@@@Z ; std::_Pop_heap_hole_unchecked<CInstanceBase * *,CInstanceBase *,LessCharacterInstancePtrRenderOrder>
PUBLIC	??$_Push_heap_by_index@PAPAVCInstanceBase@@PAV1@ULessCharacterInstancePtrRenderOrder@@@std@@YAXPAPAVCInstanceBase@@HH$$QAPAV1@ULessCharacterInstancePtrRenderOrder@@@Z ; std::_Push_heap_by_index<CInstanceBase * *,CInstanceBase *,LessCharacterInstancePtrRenderOrder>
PUBLIC	??$_Copy_backward_memmove@PAPAVCInstanceBase@@PAPAV1@@std@@YAPAPAVCInstanceBase@@PAPAV1@00@Z ; std::_Copy_backward_memmove<CInstanceBase * *,CInstanceBase * *>
PUBLIC	??$?0AAPAVCInstanceBase@@ABM$0A@@?$pair@PAVCInstanceBase@@M@std@@QAE@AAPAVCInstanceBase@@ABM@Z ; std::pair<CInstanceBase *,float>::pair<CInstanceBase *,float><CInstanceBase * &,float const &,0>
PUBLIC	?_Getal@?$list@PAVCInstanceBase@@V?$allocator@PAVCInstanceBase@@@std@@@std@@ABEABV?$allocator@U?$_List_node@PAVCInstanceBase@@PAX@std@@@2@XZ ; std::list<CInstanceBase *,std::allocator<CInstanceBase *> >::_Getal
PUBLIC	?max_size@?$_Tree@V?$_Tmap_traits@KPAVCInstanceBase@@U?$less@K@std@@V?$allocator@U?$pair@$$CBKPAVCInstanceBase@@@std@@@3@$0A@@std@@@std@@QBEIXZ ; std::_Tree<std::_Tmap_traits<unsigned long,CInstanceBase *,std::less<unsigned long>,std::allocator<std::pair<unsigned long const ,CInstanceBase *> >,0> >::max_size
PUBLIC	?_Getcomp@?$_Tree@V?$_Tmap_traits@KPAVCInstanceBase@@U?$less@K@std@@V?$allocator@U?$pair@$$CBKPAVCInstanceBase@@@std@@@3@$0A@@std@@@std@@IBEABU?$less@K@2@XZ ; std::_Tree<std::_Tmap_traits<unsigned long,CInstanceBase *,std::less<unsigned long>,std::allocator<std::pair<unsigned long const ,CInstanceBase *> >,0> >::_Getcomp
PUBLIC	?deallocate@?$_Default_allocator_traits@V?$allocator@U?$_Tree_node@U?$pair@$$CBKPAVCInstanceBase@@@std@@PAX@std@@@std@@@std@@SAXAAV?$allocator@U?$_Tree_node@U?$pair@$$CBKPAVCInstanceBase@@@std@@PAX@std@@@2@QAU?$_Tree_node@U?$pair@$$CBKPAVCInstanceBase@@@std@@PAX@2@I@Z ; std::_Default_allocator_traits<std::allocator<std::_Tree_node<std::pair<unsigned long const ,CInstanceBase *>,void *> > >::deallocate
PUBLIC	?_Max@?$_Tree_val@U?$_Tree_simple_types@U?$pair@$$CBKPAVCInstanceBase@@@std@@@std@@@std@@SAPAU?$_Tree_node@U?$pair@$$CBKPAVCInstanceBase@@@std@@PAX@2@PAU32@@Z ; std::_Tree_val<std::_Tree_simple_types<std::pair<unsigned long const ,CInstanceBase *> > >::_Max
PUBLIC	?_Lrotate@?$_Tree_val@U?$_Tree_simple_types@U?$pair@$$CBKPAVCInstanceBase@@@std@@@std@@@std@@QAEXPAU?$_Tree_node@U?$pair@$$CBKPAVCInstanceBase@@@std@@PAX@2@@Z ; std::_Tree_val<std::_Tree_simple_types<std::pair<unsigned long const ,CInstanceBase *> > >::_Lrotate
PUBLIC	?_Rrotate@?$_Tree_val@U?$_Tree_simple_types@U?$pair@$$CBKPAVCInstanceBase@@@std@@@std@@@std@@QAEXPAU?$_Tree_node@U?$pair@$$CBKPAVCInstanceBase@@@std@@PAX@2@@Z ; std::_Tree_val<std::_Tree_simple_types<std::pair<unsigned long const ,CInstanceBase *> > >::_Rrotate
PUBLIC	?deallocate@?$_Default_allocator_traits@V?$allocator@U?$_List_node@PAVCInstanceBase@@PAX@std@@@std@@@std@@SAXAAV?$allocator@U?$_List_node@PAVCInstanceBase@@PAX@std@@@2@QAU?$_List_node@PAVCInstanceBase@@PAX@2@I@Z ; std::_Default_allocator_traits<std::allocator<std::_List_node<CInstanceBase *,void *> > >::deallocate
PUBLIC	?max_size@?$_Default_allocator_traits@V?$allocator@U?$_List_node@PAVCInstanceBase@@PAX@std@@@std@@@std@@SAIABV?$allocator@U?$_List_node@PAVCInstanceBase@@PAX@std@@@2@@Z ; std::_Default_allocator_traits<std::allocator<std::_List_node<CInstanceBase *,void *> > >::max_size
PUBLIC	?max_size@?$vector@U?$pair@PAVCInstanceBase@@M@std@@V?$allocator@U?$pair@PAVCInstanceBase@@M@std@@@2@@std@@QBEIXZ ; std::vector<std::pair<CInstanceBase *,float>,std::allocator<std::pair<CInstanceBase *,float> > >::max_size
PUBLIC	?_Calculate_growth@?$vector@U?$pair@PAVCInstanceBase@@M@std@@V?$allocator@U?$pair@PAVCInstanceBase@@M@std@@@2@@std@@ABEII@Z ; std::vector<std::pair<CInstanceBase *,float>,std::allocator<std::pair<CInstanceBase *,float> > >::_Calculate_growth
PUBLIC	?_Change_array@?$vector@U?$pair@PAVCInstanceBase@@M@std@@V?$allocator@U?$pair@PAVCInstanceBase@@M@std@@@2@@std@@AAEXQAU?$pair@PAVCInstanceBase@@M@2@II@Z ; std::vector<std::pair<CInstanceBase *,float>,std::allocator<std::pair<CInstanceBase *,float> > >::_Change_array
PUBLIC	?_Xlength@?$vector@U?$pair@PAVCInstanceBase@@M@std@@V?$allocator@U?$pair@PAVCInstanceBase@@M@std@@@2@@std@@CAXXZ ; std::vector<std::pair<CInstanceBase *,float>,std::allocator<std::pair<CInstanceBase *,float> > >::_Xlength
PUBLIC	?_Orphan_range@?$vector@U?$pair@PAVCInstanceBase@@M@std@@V?$allocator@U?$pair@PAVCInstanceBase@@M@std@@@2@@std@@ABEXPAU?$pair@PAVCInstanceBase@@M@2@0@Z ; std::vector<std::pair<CInstanceBase *,float>,std::allocator<std::pair<CInstanceBase *,float> > >::_Orphan_range
PUBLIC	??1_Reallocation_guard@?$vector@U?$pair@PAVCInstanceBase@@M@std@@V?$allocator@U?$pair@PAVCInstanceBase@@M@std@@@2@@std@@QAE@XZ ; std::vector<std::pair<CInstanceBase *,float>,std::allocator<std::pair<CInstanceBase *,float> > >::_Reallocation_guard::~_Reallocation_guard
PUBLIC	?_Get_first@?$_Compressed_pair@V?$allocator@U?$pair@PAVCInstanceBase@@M@std@@@std@@V?$_Vector_val@U?$_Simple_types@U?$pair@PAVCInstanceBase@@M@std@@@std@@@2@$00@std@@QAEAAV?$allocator@U?$pair@PAVCInstanceBase@@M@std@@@2@XZ ; std::_Compressed_pair<std::allocator<std::pair<CInstanceBase *,float> >,std::_Vector_val<std::_Simple_types<std::pair<CInstanceBase *,float> > >,1>::_Get_first
PUBLIC	??0?$_Tree_temp_node_alloc@V?$allocator@U?$_Tree_node@U?$pair@$$CBKPAVCInstanceBase@@@std@@PAX@std@@@std@@@std@@QAE@AAV?$allocator@U?$_Tree_node@U?$pair@$$CBKPAVCInstanceBase@@@std@@PAX@std@@@1@@Z ; std::_Tree_temp_node_alloc<std::allocator<std::_Tree_node<std::pair<unsigned long const ,CInstanceBase *>,void *> > >::_Tree_temp_node_alloc<std::allocator<std::_Tree_node<std::pair<unsigned long const ,CInstanceBase *>,void *> > >
PUBLIC	??1?$_Alloc_construct_ptr@V?$allocator@U?$_Tree_node@U?$pair@$$CBKPAVCInstanceBase@@@std@@PAX@std@@@std@@@std@@QAE@XZ ; std::_Alloc_construct_ptr<std::allocator<std::_Tree_node<std::pair<unsigned long const ,CInstanceBase *>,void *> > >::~_Alloc_construct_ptr<std::allocator<std::_Tree_node<std::pair<unsigned long const ,CInstanceBase *>,void *> > >
PUBLIC	??0?$_Alloc_construct_ptr@V?$allocator@U?$_List_node@PAVCInstanceBase@@PAX@std@@@std@@@std@@QAE@AAV?$allocator@U?$_List_node@PAVCInstanceBase@@PAX@std@@@1@@Z ; std::_Alloc_construct_ptr<std::allocator<std::_List_node<CInstanceBase *,void *> > >::_Alloc_construct_ptr<std::allocator<std::_List_node<CInstanceBase *,void *> > >
PUBLIC	?_Allocate@?$_Alloc_construct_ptr@V?$allocator@U?$_List_node@PAVCInstanceBase@@PAX@std@@@std@@@std@@QAEXXZ ; std::_Alloc_construct_ptr<std::allocator<std::_List_node<CInstanceBase *,void *> > >::_Allocate
PUBLIC	??1?$_Alloc_construct_ptr@V?$allocator@U?$_List_node@PAVCInstanceBase@@PAX@std@@@std@@@std@@QAE@XZ ; std::_Alloc_construct_ptr<std::allocator<std::_List_node<CInstanceBase *,void *> > >::~_Alloc_construct_ptr<std::allocator<std::_List_node<CInstanceBase *,void *> > >
PUBLIC	??$_Buyheadnode@V?$allocator@U?$_Tree_node@U?$pair@$$CBKPAVCInstanceBase@@@std@@PAX@std@@@std@@@?$_Tree_node@U?$pair@$$CBKPAVCInstanceBase@@@std@@PAX@std@@SAPAU01@AAV?$allocator@U?$_Tree_node@U?$pair@$$CBKPAVCInstanceBase@@@std@@PAX@std@@@1@@Z ; std::_Tree_node<std::pair<unsigned long const ,CInstanceBase *>,void *>::_Buyheadnode<std::allocator<std::_Tree_node<std::pair<unsigned long const ,CInstanceBase *>,void *> > >
PUBLIC	??$_Refancy_maybe_null@PAPAVCInstanceBase@@$0A@@std@@YAPAPAVCInstanceBase@@PAPAV1@@Z ; std::_Refancy_maybe_null<CInstanceBase * *,0>
PUBLIC	??$exchange@PAU?$_Tree_node@U?$pair@$$CBKPAVCInstanceBase@@@std@@PAX@std@@$$T@std@@YAPAU?$_Tree_node@U?$pair@$$CBKPAVCInstanceBase@@@std@@PAX@0@AAPAU10@$$QA$$T@Z ; std::exchange<std::_Tree_node<std::pair<unsigned long const ,CInstanceBase *>,void *> *,std::nullptr_t>
PUBLIC	??$_Construct_in_place@PAU?$_List_node@PAVCInstanceBase@@PAX@std@@ABQAU12@@std@@YAXAAPAU?$_List_node@PAVCInstanceBase@@PAX@0@ABQAU10@@Z ; std::_Construct_in_place<std::_List_node<CInstanceBase *,void *> *,std::_List_node<CInstanceBase *,void *> * const &>
PUBLIC	??$construct_at@PAU?$_List_node@PAVCInstanceBase@@PAX@std@@AAPAU12@@std@@YAPAPAU?$_List_node@PAVCInstanceBase@@PAX@0@QAPAU10@AAPAU10@@Z ; std::construct_at<std::_List_node<CInstanceBase *,void *> *,std::_List_node<CInstanceBase *,void *> * &>
PUBLIC	??$forward@AAPAU?$_List_node@PAVCInstanceBase@@PAX@std@@@std@@YAAAPAU?$_List_node@PAVCInstanceBase@@PAX@0@AAPAU10@@Z ; std::forward<std::_List_node<CInstanceBase *,void *> * &>
PUBLIC	??$addressof@PAU?$_List_node@PAVCInstanceBase@@PAX@std@@@std@@YAPAPAU?$_List_node@PAVCInstanceBase@@PAX@0@AAPAU10@@Z ; std::addressof<std::_List_node<CInstanceBase *,void *> *>
PUBLIC	??$construct@PAVCInstanceBase@@ABQAV1@@?$_Default_allocator_traits@V?$allocator@U?$_List_node@PAVCInstanceBase@@PAX@std@@@std@@@std@@SAXAAV?$allocator@U?$_List_node@PAVCInstanceBase@@PAX@std@@@1@QAPAVCInstanceBase@@ABQAV3@@Z ; std::_Default_allocator_traits<std::allocator<std::_List_node<CInstanceBase *,void *> > >::construct<CInstanceBase *,CInstanceBase * const &>
PUBLIC	??$_Destroy_in_place@PAU?$_List_node@PAVCInstanceBase@@PAX@std@@@std@@YAXAAPAU?$_List_node@PAVCInstanceBase@@PAX@0@@Z ; std::_Destroy_in_place<std::_List_node<CInstanceBase *,void *> *>
PUBLIC	??$_Destroy_in_place@PAU?$_Tree_node@U?$pair@$$CBKPAVCInstanceBase@@@std@@PAX@std@@@std@@YAXAAPAU?$_Tree_node@U?$pair@$$CBKPAVCInstanceBase@@@std@@PAX@0@@Z ; std::_Destroy_in_place<std::_Tree_node<std::pair<unsigned long const ,CInstanceBase *>,void *> *>
PUBLIC	??$destroy@U?$pair@$$CBKPAVCInstanceBase@@@std@@@?$_Default_allocator_traits@V?$allocator@U?$_Tree_node@U?$pair@$$CBKPAVCInstanceBase@@@std@@PAX@std@@@std@@@std@@SAXAAV?$allocator@U?$_Tree_node@U?$pair@$$CBKPAVCInstanceBase@@@std@@PAX@std@@@1@QAU?$pair@$$CBKPAVCInstanceBase@@@1@@Z ; std::_Default_allocator_traits<std::allocator<std::_Tree_node<std::pair<unsigned long const ,CInstanceBase *>,void *> > >::destroy<std::pair<unsigned long const ,CInstanceBase *> >
PUBLIC	??$?0AAPAU?$pair@PAVCInstanceBase@@M@std@@AAPAU01@$0A@@?$pair@PAU?$pair@PAVCInstanceBase@@M@std@@PAU12@@std@@QAE@AAPAU?$pair@PAVCInstanceBase@@M@1@0@Z ; std::pair<std::pair<CInstanceBase *,float> *,std::pair<CInstanceBase *,float> *>::pair<std::pair<CInstanceBase *,float> *,std::pair<CInstanceBase *,float> *><std::pair<CInstanceBase *,float> * &,std::pair<CInstanceBase *,float> * &,0>
PUBLIC	??$swap@PAVCInstanceBase@@M$0A@@std@@YAXAAU?$pair@PAVCInstanceBase@@M@0@0@Z ; std::swap<CInstanceBase *,float,0>
PUBLIC	??$_Next_iter@PAU?$pair@PAVCInstanceBase@@M@std@@@std@@YAPAU?$pair@PAVCInstanceBase@@M@0@PAU10@@Z ; std::_Next_iter<std::pair<CInstanceBase *,float> *>
PUBLIC	??$_Guess_median_unchecked@PAU?$pair@PAVCInstanceBase@@M@std@@P6A_NABU12@0@Z@std@@YAXPAU?$pair@PAVCInstanceBase@@M@0@00P6A_NABU10@1@Z@Z ; std::_Guess_median_unchecked<std::pair<CInstanceBase *,float> *,bool (__cdecl*)(std::pair<CInstanceBase *,float> const &,std::pair<CInstanceBase *,float> const &)>
PUBLIC	??$_Prev_iter@PAU?$pair@PAVCInstanceBase@@M@std@@@std@@YAPAU?$pair@PAVCInstanceBase@@M@0@PAU10@@Z ; std::_Prev_iter<std::pair<CInstanceBase *,float> *>
PUBLIC	??$_Pop_heap_unchecked@PAU?$pair@PAVCInstanceBase@@M@std@@P6A_NABU12@0@Z@std@@YAXPAU?$pair@PAVCInstanceBase@@M@0@0P6A_NABU10@1@Z@Z ; std::_Pop_heap_unchecked<std::pair<CInstanceBase *,float> *,bool (__cdecl*)(std::pair<CInstanceBase *,float> const &,std::pair<CInstanceBase *,float> const &)>
PUBLIC	??$_Pop_heap_hole_by_index@PAU?$pair@PAVCInstanceBase@@M@std@@U12@P6A_NABU12@0@Z@std@@YAXPAU?$pair@PAVCInstanceBase@@M@0@HH$$QAU10@P6A_NABU10@2@Z@Z ; std::_Pop_heap_hole_by_index<std::pair<CInstanceBase *,float> *,std::pair<CInstanceBase *,float>,bool (__cdecl*)(std::pair<CInstanceBase *,float> const &,std::pair<CInstanceBase *,float> const &)>
PUBLIC	??$?4U?$pair@PAVCInstanceBase@@M@std@@$0A@@?$pair@PAVCInstanceBase@@M@std@@QAEAAU01@$$QAU01@@Z ; std::pair<CInstanceBase *,float>::operator=<std::pair<CInstanceBase *,float>,0>
PUBLIC	??$_Move_backward_unchecked@PAU?$pair@PAVCInstanceBase@@M@std@@PAU12@@std@@YAPAU?$pair@PAVCInstanceBase@@M@0@PAU10@00@Z ; std::_Move_backward_unchecked<std::pair<CInstanceBase *,float> *,std::pair<CInstanceBase *,float> *>
PUBLIC	??$move@AAU?$pair@PAVCInstanceBase@@M@std@@@std@@YA$$QAU?$pair@PAVCInstanceBase@@M@0@AAU10@@Z ; std::move<std::pair<CInstanceBase *,float> &>
PUBLIC	??$_Uninitialized_move@PAU?$pair@PAVCInstanceBase@@M@std@@V?$allocator@U?$pair@PAVCInstanceBase@@M@std@@@2@@std@@YAPAU?$pair@PAVCInstanceBase@@M@0@QAU10@0PAU10@AAV?$allocator@U?$pair@PAVCInstanceBase@@M@std@@@0@@Z ; std::_Uninitialized_move<std::pair<CInstanceBase *,float> *,std::allocator<std::pair<CInstanceBase *,float> > >
PUBLIC	??$_Get_unwrapped@ABQAU?$pair@PAVCInstanceBase@@M@std@@@std@@YA?A_TABQAU?$pair@PAVCInstanceBase@@M@0@@Z ; std::_Get_unwrapped<std::pair<CInstanceBase *,float> * const &>
PUBLIC	??$construct@U?$pair@PAVCInstanceBase@@M@std@@AAPAVCInstanceBase@@ABM@?$_Default_allocator_traits@V?$allocator@U?$pair@PAVCInstanceBase@@M@std@@@std@@@std@@SAXAAV?$allocator@U?$pair@PAVCInstanceBase@@M@std@@@1@QAU?$pair@PAVCInstanceBase@@M@1@AAPAVCInstanceBase@@ABM@Z ; std::_Default_allocator_traits<std::allocator<std::pair<CInstanceBase *,float> > >::construct<std::pair<CInstanceBase *,float>,CInstanceBase * &,float const &>
PUBLIC	??$_Unfancy@U?$pair@PAVCInstanceBase@@M@std@@@std@@YAPAU?$pair@PAVCInstanceBase@@M@0@PAU10@@Z ; std::_Unfancy<std::pair<CInstanceBase *,float> >
PUBLIC	??$_Allocate_at_least_helper@V?$allocator@U?$pair@PAVCInstanceBase@@M@std@@@std@@@std@@YAPAU?$pair@PAVCInstanceBase@@M@0@AAV?$allocator@U?$pair@PAVCInstanceBase@@M@std@@@0@AAI@Z ; std::_Allocate_at_least_helper<std::allocator<std::pair<CInstanceBase *,float> > >
PUBLIC	??$_Construct_in_place@U?$pair@PAVCInstanceBase@@M@std@@AAPAVCInstanceBase@@ABM@std@@YAXAAU?$pair@PAVCInstanceBase@@M@0@AAPAVCInstanceBase@@ABM@Z ; std::_Construct_in_place<std::pair<CInstanceBase *,float>,CInstanceBase * &,float const &>
PUBLIC	??$construct@PAVCInstanceBase@@AAPAV1@@?$_Default_allocator_traits@V?$allocator@PAVCInstanceBase@@@std@@@std@@SAXAAV?$allocator@PAVCInstanceBase@@@1@QAPAVCInstanceBase@@AAPAV3@@Z ; std::_Default_allocator_traits<std::allocator<CInstanceBase *> >::construct<CInstanceBase *,CInstanceBase * &>
PUBLIC	??$_Construct_in_place@PAVCInstanceBase@@AAPAV1@@std@@YAXAAPAVCInstanceBase@@0@Z ; std::_Construct_in_place<CInstanceBase *,CInstanceBase * &>
PUBLIC	??$_Guess_median_unchecked@PAPAVCInstanceBase@@U?$_Ref_fn@UCInstanceBase_SLessCameraDistance@@@std@@@std@@YAXPAPAVCInstanceBase@@00U?$_Ref_fn@UCInstanceBase_SLessCameraDistance@@@0@@Z ; std::_Guess_median_unchecked<CInstanceBase * *,std::_Ref_fn<CInstanceBase_SLessCameraDistance> >
PUBLIC	??$_Pop_heap_unchecked@PAPAVCInstanceBase@@U?$_Ref_fn@UCInstanceBase_SLessCameraDistance@@@std@@@std@@YAXPAPAVCInstanceBase@@0U?$_Ref_fn@UCInstanceBase_SLessCameraDistance@@@0@@Z ; std::_Pop_heap_unchecked<CInstanceBase * *,std::_Ref_fn<CInstanceBase_SLessCameraDistance> >
PUBLIC	??$_Pop_heap_hole_by_index@PAPAVCInstanceBase@@PAV1@U?$_Ref_fn@UCInstanceBase_SLessCameraDistance@@@std@@@std@@YAXPAPAVCInstanceBase@@HH$$QAPAV1@U?$_Ref_fn@UCInstanceBase_SLessCameraDistance@@@0@@Z ; std::_Pop_heap_hole_by_index<CInstanceBase * *,CInstanceBase *,std::_Ref_fn<CInstanceBase_SLessCameraDistance> >
PUBLIC	??$forward@PAU?$_Tree_node@U?$pair@$$CBKPAVCInstanceBase@@@std@@PAX@std@@@std@@YA$$QAPAU?$_Tree_node@U?$pair@$$CBKPAVCInstanceBase@@@std@@PAX@0@AAPAU10@@Z ; std::forward<std::_Tree_node<std::pair<unsigned long const ,CInstanceBase *>,void *> *>
PUBLIC	??$forward@AAPAU?$_Tree_node@U?$pair@$$CBKPAVCInstanceBase@@@std@@PAX@std@@@std@@YAAAPAU?$_Tree_node@U?$pair@$$CBKPAVCInstanceBase@@@std@@PAX@0@AAPAU10@@Z ; std::forward<std::_Tree_node<std::pair<unsigned long const ,CInstanceBase *>,void *> * &>
PUBLIC	??$_Construct_in_place@PAU?$_Tree_node@U?$pair@$$CBKPAVCInstanceBase@@@std@@PAX@std@@AAPAU12@@std@@YAXAAPAU?$_Tree_node@U?$pair@$$CBKPAVCInstanceBase@@@std@@PAX@0@0@Z ; std::_Construct_in_place<std::_Tree_node<std::pair<unsigned long const ,CInstanceBase *>,void *> *,std::_Tree_node<std::pair<unsigned long const ,CInstanceBase *>,void *> * &>
PUBLIC	??$construct@U?$pair@$$CBKPAVCInstanceBase@@@std@@U12@@?$_Default_allocator_traits@V?$allocator@U?$_Tree_node@U?$pair@$$CBKPAVCInstanceBase@@@std@@PAX@std@@@std@@@std@@SAXAAV?$allocator@U?$_Tree_node@U?$pair@$$CBKPAVCInstanceBase@@@std@@PAX@std@@@1@QAU?$pair@$$CBKPAVCInstanceBase@@@1@$$QAU31@@Z ; std::_Default_allocator_traits<std::allocator<std::_Tree_node<std::pair<unsigned long const ,CInstanceBase *>,void *> > >::construct<std::pair<unsigned long const ,CInstanceBase *>,std::pair<unsigned long const ,CInstanceBase *> >
PUBLIC	??$_Kfn@$$CBKPAVCInstanceBase@@@?$_Tmap_traits@KPAVCInstanceBase@@U?$less@K@std@@V?$allocator@U?$pair@$$CBKPAVCInstanceBase@@@std@@@3@$0A@@std@@SAABKABU?$pair@$$CBKPAVCInstanceBase@@@1@@Z ; std::_Tmap_traits<unsigned long,CInstanceBase *,std::less<unsigned long>,std::allocator<std::pair<unsigned long const ,CInstanceBase *> >,0>::_Kfn<unsigned long const ,CInstanceBase *>
PUBLIC	??$?0AAPAPAVCInstanceBase@@AAPAPAV0@$0A@@?$pair@PAPAVCInstanceBase@@PAPAV1@@std@@QAE@AAPAPAVCInstanceBase@@0@Z ; std::pair<CInstanceBase * *,CInstanceBase * *>::pair<CInstanceBase * *,CInstanceBase * *><CInstanceBase * * &,CInstanceBase * * &,0>
PUBLIC	??$swap@PAVCInstanceBase@@$0A@@std@@YAXAAPAVCInstanceBase@@0@Z ; std::swap<CInstanceBase *,0>
PUBLIC	??$_Next_iter@PAPAVCInstanceBase@@@std@@YAPAPAVCInstanceBase@@PAPAV1@@Z ; std::_Next_iter<CInstanceBase * *>
PUBLIC	??$_Guess_median_unchecked@PAPAVCInstanceBase@@ULessCharacterInstancePtrRenderOrder@@@std@@YAXPAPAVCInstanceBase@@00ULessCharacterInstancePtrRenderOrder@@@Z ; std::_Guess_median_unchecked<CInstanceBase * *,LessCharacterInstancePtrRenderOrder>
PUBLIC	??$_Prev_iter@PAPAVCInstanceBase@@@std@@YAPAPAVCInstanceBase@@PAPAV1@@Z ; std::_Prev_iter<CInstanceBase * *>
PUBLIC	??$_Pop_heap_unchecked@PAPAVCInstanceBase@@ULessCharacterInstancePtrRenderOrder@@@std@@YAXPAPAVCInstanceBase@@0ULessCharacterInstancePtrRenderOrder@@@Z ; std::_Pop_heap_unchecked<CInstanceBase * *,LessCharacterInstancePtrRenderOrder>
PUBLIC	??$_Pop_heap_hole_by_index@PAPAVCInstanceBase@@PAV1@ULessCharacterInstancePtrRenderOrder@@@std@@YAXPAPAVCInstanceBase@@HH$$QAPAV1@ULessCharacterInstancePtrRenderOrder@@@Z ; std::_Pop_heap_hole_by_index<CInstanceBase * *,CInstanceBase *,LessCharacterInstancePtrRenderOrder>
PUBLIC	??$_Move_backward_unchecked@PAPAVCInstanceBase@@PAPAV1@@std@@YAPAPAVCInstanceBase@@PAPAV1@00@Z ; std::_Move_backward_unchecked<CInstanceBase * *,CInstanceBase * *>
PUBLIC	??$?0$$V@?$_Compressed_pair@V?$allocator@U?$_Tree_node@U?$pair@$$CBKPAVCInstanceBase@@@std@@PAX@std@@@std@@V?$_Tree_val@U?$_Tree_simple_types@U?$pair@$$CBKPAVCInstanceBase@@@std@@@std@@@2@$00@std@@QAE@U_Zero_then_variadic_args_t@1@@Z ; std::_Compressed_pair<std::allocator<std::_Tree_node<std::pair<unsigned long const ,CInstanceBase *>,void *> >,std::_Tree_val<std::_Tree_simple_types<std::pair<unsigned long const ,CInstanceBase *> > >,1>::_Compressed_pair<std::allocator<std::_Tree_node<std::pair<unsigned long const ,CInstanceBase *>,void *> >,std::_Tree_val<std::_Tree_simple_types<std::pair<unsigned long const ,CInstanceBase *> > >,1><>
PUBLIC	??1?$_Tree_temp_node_alloc@V?$allocator@U?$_Tree_node@U?$pair@$$CBKPAVCInstanceBase@@@std@@PAX@std@@@std@@@std@@QAE@XZ ; std::_Tree_temp_node_alloc<std::allocator<std::_Tree_node<std::pair<unsigned long const ,CInstanceBase *>,void *> > >::~_Tree_temp_node_alloc<std::allocator<std::_Tree_node<std::pair<unsigned long const ,CInstanceBase *>,void *> > >
PUBLIC	?max_size@?$list@PAVCInstanceBase@@V?$allocator@PAVCInstanceBase@@@std@@@std@@QBEIXZ ; std::list<CInstanceBase *,std::allocator<CInstanceBase *> >::max_size
PUBLIC	?_Check_grow_by_1@?$_Tree@V?$_Tmap_traits@KPAVCInstanceBase@@U?$less@K@std@@V?$allocator@U?$pair@$$CBKPAVCInstanceBase@@@std@@@3@$0A@@std@@@std@@IAEXXZ ; std::_Tree<std::_Tmap_traits<unsigned long,CInstanceBase *,std::less<unsigned long>,std::allocator<std::pair<unsigned long const ,CInstanceBase *> >,0> >::_Check_grow_by_1
PUBLIC	?_Alloc_sentinel_and_proxy@?$_Tree@V?$_Tmap_traits@KPAVCInstanceBase@@U?$less@K@std@@V?$allocator@U?$pair@$$CBKPAVCInstanceBase@@@std@@@3@$0A@@std@@@std@@IAEXXZ ; std::_Tree<std::_Tmap_traits<unsigned long,CInstanceBase *,std::less<unsigned long>,std::allocator<std::pair<unsigned long const ,CInstanceBase *> >,0> >::_Alloc_sentinel_and_proxy
PUBLIC	?_Extract@?$_Tree_val@U?$_Tree_simple_types@U?$pair@$$CBKPAVCInstanceBase@@@std@@@std@@@std@@QAEPAU?$_Tree_node@U?$pair@$$CBKPAVCInstanceBase@@@std@@PAX@2@V?$_Tree_unchecked_const_iterator@V?$_Tree_val@U?$_Tree_simple_types@U?$pair@$$CBKPAVCInstanceBase@@@std@@@std@@@std@@U_Iterator_base0@2@@2@@Z ; std::_Tree_val<std::_Tree_simple_types<std::pair<unsigned long const ,CInstanceBase *> > >::_Extract
PUBLIC	?_Insert_node@?$_Tree_val@U?$_Tree_simple_types@U?$pair@$$CBKPAVCInstanceBase@@@std@@@std@@@std@@QAEPAU?$_Tree_node@U?$pair@$$CBKPAVCInstanceBase@@@std@@PAX@2@U?$_Tree_id@PAU?$_Tree_node@U?$pair@$$CBKPAVCInstanceBase@@@std@@PAX@std@@@2@QAU32@@Z ; std::_Tree_val<std::_Tree_simple_types<std::pair<unsigned long const ,CInstanceBase *> > >::_Insert_node
PUBLIC	?_Get_first@?$_Compressed_pair@V?$allocator@U?$_Tree_node@U?$pair@$$CBKPAVCInstanceBase@@@std@@PAX@std@@@std@@V?$_Tree_val@U?$_Tree_simple_types@U?$pair@$$CBKPAVCInstanceBase@@@std@@@std@@@2@$00@std@@QAEAAV?$allocator@U?$_Tree_node@U?$pair@$$CBKPAVCInstanceBase@@@std@@PAX@std@@@2@XZ ; std::_Compressed_pair<std::allocator<std::_Tree_node<std::pair<unsigned long const ,CInstanceBase *>,void *> >,std::_Tree_val<std::_Tree_simple_types<std::pair<unsigned long const ,CInstanceBase *> > >,1>::_Get_first
PUBLIC	??0?$allocator@U?$_List_node@PAVCInstanceBase@@PAX@std@@@std@@QAE@XZ ; std::allocator<std::_List_node<CInstanceBase *,void *> >::allocator<std::_List_node<CInstanceBase *,void *> >
PUBLIC	?allocate@?$allocator@U?$_List_node@PAVCInstanceBase@@PAX@std@@@std@@QAEPAU?$_List_node@PAVCInstanceBase@@PAX@2@I@Z ; std::allocator<std::_List_node<CInstanceBase *,void *> >::allocate
PUBLIC	??0?$_List_val@U?$_List_simple_types@PAVCInstanceBase@@@std@@@std@@QAE@XZ ; std::_List_val<std::_List_simple_types<CInstanceBase *> >::_List_val<std::_List_simple_types<CInstanceBase *> >
PUBLIC	?_Orphan_ptr2@?$_List_val@U?$_List_simple_types@PAVCInstanceBase@@@std@@@std@@QAEXPAU?$_List_node@PAVCInstanceBase@@PAX@2@@Z ; std::_List_val<std::_List_simple_types<CInstanceBase *> >::_Orphan_ptr2
PUBLIC	??D?$_List_unchecked_const_iterator@V?$_List_val@U?$_List_simple_types@PAVCInstanceBase@@@std@@@std@@U_Iterator_base0@2@@std@@QBEABQAVCInstanceBase@@XZ ; std::_List_unchecked_const_iterator<std::_List_val<std::_List_simple_types<CInstanceBase *> >,std::_Iterator_base0>::operator*
PUBLIC	??E?$_List_unchecked_const_iterator@V?$_List_val@U?$_List_simple_types@PAVCInstanceBase@@@std@@@std@@U_Iterator_base0@2@@std@@QAEAAV01@XZ ; std::_List_unchecked_const_iterator<std::_List_val<std::_List_simple_types<CInstanceBase *> >,std::_Iterator_base0>::operator++
PUBLIC	?_Get_first@?$_Compressed_pair@V?$allocator@U?$_List_node@PAVCInstanceBase@@PAX@std@@@std@@V?$_List_val@U?$_List_simple_types@PAVCInstanceBase@@@std@@@2@$00@std@@QAEAAV?$allocator@U?$_List_node@PAVCInstanceBase@@PAX@std@@@2@XZ ; std::_Compressed_pair<std::allocator<std::_List_node<CInstanceBase *,void *> >,std::_List_val<std::_List_simple_types<CInstanceBase *> >,1>::_Get_first
PUBLIC	?_Seek_to@?$_Vector_const_iterator@V?$_Vector_val@U?$_Simple_types@PAVCInstanceBase@@@std@@@std@@@std@@QAEXPBQAVCInstanceBase@@@Z ; std::_Vector_const_iterator<std::_Vector_val<std::_Simple_types<CInstanceBase *> > >::_Seek_to
PUBLIC	??0?$allocator@U?$pair@PAVCInstanceBase@@M@std@@@std@@QAE@XZ ; std::allocator<std::pair<CInstanceBase *,float> >::allocator<std::pair<CInstanceBase *,float> >
PUBLIC	?deallocate@?$allocator@U?$pair@PAVCInstanceBase@@M@std@@@std@@QAEXQAU?$pair@PAVCInstanceBase@@M@2@I@Z ; std::allocator<std::pair<CInstanceBase *,float> >::deallocate
PUBLIC	?_Getal@?$vector@U?$pair@PAVCInstanceBase@@M@std@@V?$allocator@U?$pair@PAVCInstanceBase@@M@std@@@2@@std@@AAEAAV?$allocator@U?$pair@PAVCInstanceBase@@M@std@@@2@XZ ; std::vector<std::pair<CInstanceBase *,float>,std::allocator<std::pair<CInstanceBase *,float> > >::_Getal
PUBLIC	??0?$_Vector_val@U?$_Simple_types@U?$pair@PAVCInstanceBase@@M@std@@@std@@@std@@QAE@XZ ; std::_Vector_val<std::_Simple_types<std::pair<CInstanceBase *,float> > >::_Vector_val<std::_Simple_types<std::pair<CInstanceBase *,float> > >
PUBLIC	?_Extract@?$_In_place_key_extract_map_impl@KU?$pair@$$CBKPAVCInstanceBase@@@std@@@std@@SAABKABU?$pair@$$CBKPAVCInstanceBase@@@2@@Z ; std::_In_place_key_extract_map_impl<unsigned long,std::pair<unsigned long const ,CInstanceBase *> >::_Extract
PUBLIC	??1?$_Tree_temp_node@V?$allocator@U?$_Tree_node@U?$pair@$$CBKPAVCInstanceBase@@@std@@PAX@std@@@std@@@std@@QAE@XZ ; std::_Tree_temp_node<std::allocator<std::_Tree_node<std::pair<unsigned long const ,CInstanceBase *>,void *> > >::~_Tree_temp_node<std::allocator<std::_Tree_node<std::pair<unsigned long const ,CInstanceBase *>,void *> > >
PUBLIC	?_Release@?$_Alloc_construct_ptr@V?$allocator@U?$_Tree_node@U?$pair@$$CBKPAVCInstanceBase@@@std@@PAX@std@@@std@@@std@@QAEPAU?$_Tree_node@U?$pair@$$CBKPAVCInstanceBase@@@std@@PAX@2@XZ ; std::_Alloc_construct_ptr<std::allocator<std::_Tree_node<std::pair<unsigned long const ,CInstanceBase *>,void *> > >::_Release
PUBLIC	??1?$_List_node_emplace_op2@V?$allocator@U?$_List_node@PAVCInstanceBase@@PAX@std@@@std@@@std@@QAE@XZ ; std::_List_node_emplace_op2<std::allocator<std::_List_node<CInstanceBase *,void *> > >::~_List_node_emplace_op2<std::allocator<std::_List_node<CInstanceBase *,void *> > >
PUBLIC	?_Transfer_before@?$_List_node_emplace_op2@V?$allocator@U?$_List_node@PAVCInstanceBase@@PAX@std@@@std@@@std@@QAEPAU?$_List_node@PAVCInstanceBase@@PAX@2@QAU32@@Z ; std::_List_node_emplace_op2<std::allocator<std::_List_node<CInstanceBase *,void *> > >::_Transfer_before
PUBLIC	??$addressof@$$CBV?$_List_val@U?$_List_simple_types@PAVCInstanceBase@@@std@@@std@@@std@@YAPBV?$_List_val@U?$_List_simple_types@PAVCInstanceBase@@@std@@@0@ABV10@@Z ; std::addressof<std::_List_val<std::_List_simple_types<CInstanceBase *> > const >
PUBLIC	??$_Construct_in_place@PAU?$_List_node@PAVCInstanceBase@@PAX@std@@AAPAU12@@std@@YAXAAPAU?$_List_node@PAVCInstanceBase@@PAX@0@0@Z ; std::_Construct_in_place<std::_List_node<CInstanceBase *,void *> *,std::_List_node<CInstanceBase *,void *> * &>
PUBLIC	??$?0ABU?$less@K@std@@U_Zero_then_variadic_args_t@1@@?$_Compressed_pair@U?$less@K@std@@V?$_Compressed_pair@V?$allocator@U?$_Tree_node@U?$pair@$$CBKPAVCInstanceBase@@@std@@PAX@std@@@std@@V?$_Tree_val@U?$_Tree_simple_types@U?$pair@$$CBKPAVCInstanceBase@@@std@@@std@@@2@$00@2@$00@std@@QAE@U_One_then_variadic_args_t@1@ABU?$less@K@1@$$QAU_Zero_then_variadic_args_t@1@@Z ; std::_Compressed_pair<std::less<unsigned long>,std::_Compressed_pair<std::allocator<std::_Tree_node<std::pair<unsigned long const ,CInstanceBase *>,void *> >,std::_Tree_val<std::_Tree_simple_types<std::pair<unsigned long const ,CInstanceBase *> > >,1>,1>::_Compressed_pair<std::less<unsigned long>,std::_Compressed_pair<std::allocator<std::_Tree_node<std::pair<unsigned long const ,CInstanceBase *>,void *> >,std::_Tree_val<std::_Tree_simple_types<std::pair<unsigned long const ,CInstanceBase *> > >,1>,1><std::less<unsigned long> const &,std::_Zero_then_variadic_args_t>
PUBLIC	??$addressof@$$CBV?$_Tree_val@U?$_Tree_simple_types@U?$pair@$$CBKPAVCInstanceBase@@@std@@@std@@@std@@@std@@YAPBV?$_Tree_val@U?$_Tree_simple_types@U?$pair@$$CBKPAVCInstanceBase@@@std@@@std@@@0@ABV10@@Z ; std::addressof<std::_Tree_val<std::_Tree_simple_types<std::pair<unsigned long const ,CInstanceBase *> > > const >
PUBLIC	??$_Destroy_range@V?$allocator@U?$pair@PAVCInstanceBase@@M@std@@@std@@@std@@YAXPAU?$pair@PAVCInstanceBase@@M@0@QAU10@AAV?$allocator@U?$pair@PAVCInstanceBase@@M@std@@@0@@Z ; std::_Destroy_range<std::allocator<std::pair<CInstanceBase *,float> > >
PUBLIC	??$?0ABQAVCInstanceBase@@@?$_List_node_emplace_op2@V?$allocator@U?$_List_node@PAVCInstanceBase@@PAX@std@@@std@@@std@@QAE@AAV?$allocator@U?$_List_node@PAVCInstanceBase@@PAX@std@@@1@ABQAVCInstanceBase@@@Z ; std::_List_node_emplace_op2<std::allocator<std::_List_node<CInstanceBase *,void *> > >::_List_node_emplace_op2<std::allocator<std::_List_node<CInstanceBase *,void *> > ><CInstanceBase * const &>
PUBLIC	??$_Freenode0@V?$allocator@U?$_List_node@PAVCInstanceBase@@PAX@std@@@std@@@?$_List_node@PAVCInstanceBase@@PAX@std@@SAXAAV?$allocator@U?$_List_node@PAVCInstanceBase@@PAX@std@@@1@PAU01@@Z ; std::_List_node<CInstanceBase *,void *>::_Freenode0<std::allocator<std::_List_node<CInstanceBase *,void *> > >
PUBLIC	??$destroy@PAVCInstanceBase@@@?$_Default_allocator_traits@V?$allocator@U?$_List_node@PAVCInstanceBase@@PAX@std@@@std@@@std@@SAXAAV?$allocator@U?$_List_node@PAVCInstanceBase@@PAX@std@@@1@QAPAVCInstanceBase@@@Z ; std::_Default_allocator_traits<std::allocator<std::_List_node<CInstanceBase *,void *> > >::destroy<CInstanceBase *>
PUBLIC	??$_Freenode0@V?$allocator@U?$_Tree_node@U?$pair@$$CBKPAVCInstanceBase@@@std@@PAX@std@@@std@@@?$_Tree_node@U?$pair@$$CBKPAVCInstanceBase@@@std@@PAX@std@@SAXAAV?$allocator@U?$_Tree_node@U?$pair@$$CBKPAVCInstanceBase@@@std@@PAX@std@@@1@PAU01@@Z ; std::_Tree_node<std::pair<unsigned long const ,CInstanceBase *>,void *>::_Freenode0<std::allocator<std::_Tree_node<std::pair<unsigned long const ,CInstanceBase *>,void *> > >
PUBLIC	??$_Freenode@V?$allocator@U?$_Tree_node@U?$pair@$$CBKPAVCInstanceBase@@@std@@PAX@std@@@std@@@?$_Tree_node@U?$pair@$$CBKPAVCInstanceBase@@@std@@PAX@std@@SAXAAV?$allocator@U?$_Tree_node@U?$pair@$$CBKPAVCInstanceBase@@@std@@PAX@std@@@1@PAU01@@Z ; std::_Tree_node<std::pair<unsigned long const ,CInstanceBase *>,void *>::_Freenode<std::allocator<std::_Tree_node<std::pair<unsigned long const ,CInstanceBase *>,void *> > >
PUBLIC	??$exchange@PAU?$_Tree_node@U?$pair@$$CBKPAVCInstanceBase@@@std@@PAX@std@@AAPAU12@@std@@YAPAU?$_Tree_node@U?$pair@$$CBKPAVCInstanceBase@@@std@@PAX@0@AAPAU10@0@Z ; std::exchange<std::_Tree_node<std::pair<unsigned long const ,CInstanceBase *>,void *> *,std::_Tree_node<std::pair<unsigned long const ,CInstanceBase *>,void *> * &>
PUBLIC	??$_Partition_by_median_guess_unchecked@PAU?$pair@PAVCInstanceBase@@M@std@@P6A_NABU12@0@Z@std@@YA?AU?$pair@PAU?$pair@PAVCInstanceBase@@M@std@@PAU12@@0@PAU?$pair@PAVCInstanceBase@@M@0@0P6A_NABU20@1@Z@Z ; std::_Partition_by_median_guess_unchecked<std::pair<CInstanceBase *,float> *,bool (__cdecl*)(std::pair<CInstanceBase *,float> const &,std::pair<CInstanceBase *,float> const &)>
PUBLIC	??$_Sort_heap_unchecked@PAU?$pair@PAVCInstanceBase@@M@std@@P6A_NABU12@0@Z@std@@YAXPAU?$pair@PAVCInstanceBase@@M@0@0P6A_NABU10@1@Z@Z ; std::_Sort_heap_unchecked<std::pair<CInstanceBase *,float> *,bool (__cdecl*)(std::pair<CInstanceBase *,float> const &,std::pair<CInstanceBase *,float> const &)>
PUBLIC	??$_Make_heap_unchecked@PAU?$pair@PAVCInstanceBase@@M@std@@P6A_NABU12@0@Z@std@@YAXPAU?$pair@PAVCInstanceBase@@M@0@0P6A_NABU10@1@Z@Z ; std::_Make_heap_unchecked<std::pair<CInstanceBase *,float> *,bool (__cdecl*)(std::pair<CInstanceBase *,float> const &,std::pair<CInstanceBase *,float> const &)>
PUBLIC	??$_Insertion_sort_unchecked@PAU?$pair@PAVCInstanceBase@@M@std@@P6A_NABU12@0@Z@std@@YAPAU?$pair@PAVCInstanceBase@@M@0@QAU10@0P6A_NABU10@1@Z@Z ; std::_Insertion_sort_unchecked<std::pair<CInstanceBase *,float> *,bool (__cdecl*)(std::pair<CInstanceBase *,float> const &,std::pair<CInstanceBase *,float> const &)>
PUBLIC	??$_Emplace_reallocate@AAPAVCInstanceBase@@ABM@?$vector@U?$pair@PAVCInstanceBase@@M@std@@V?$allocator@U?$pair@PAVCInstanceBase@@M@std@@@2@@std@@AAEPAU?$pair@PAVCInstanceBase@@M@1@QAU21@AAPAVCInstanceBase@@ABM@Z ; std::vector<std::pair<CInstanceBase *,float>,std::allocator<std::pair<CInstanceBase *,float> > >::_Emplace_reallocate<CInstanceBase * &,float const &>
PUBLIC	??$_Emplace_back_with_unused_capacity@AAPAVCInstanceBase@@ABM@?$vector@U?$pair@PAVCInstanceBase@@M@std@@V?$allocator@U?$pair@PAVCInstanceBase@@M@std@@@2@@std@@AAEAAU?$pair@PAVCInstanceBase@@M@1@AAPAVCInstanceBase@@ABM@Z ; std::vector<std::pair<CInstanceBase *,float>,std::allocator<std::pair<CInstanceBase *,float> > >::_Emplace_back_with_unused_capacity<CInstanceBase * &,float const &>
PUBLIC	??$_Emplace_reallocate@AAPAVCInstanceBase@@@?$vector@PAVCInstanceBase@@V?$allocator@PAVCInstanceBase@@@std@@@std@@AAEPAPAVCInstanceBase@@QAPAV2@AAPAV2@@Z ; std::vector<CInstanceBase *,std::allocator<CInstanceBase *> >::_Emplace_reallocate<CInstanceBase * &>
PUBLIC	??$_Emplace_back_with_unused_capacity@AAPAVCInstanceBase@@@?$vector@PAVCInstanceBase@@V?$allocator@PAVCInstanceBase@@@std@@@std@@AAEAAPAVCInstanceBase@@AAPAV2@@Z ; std::vector<CInstanceBase *,std::allocator<CInstanceBase *> >::_Emplace_back_with_unused_capacity<CInstanceBase * &>
PUBLIC	??$forward@PAPAVCInstanceBase@@@std@@YA$$QAPAPAVCInstanceBase@@AAPAPAV1@@Z ; std::forward<CInstanceBase * *>
PUBLIC	??$_Find_vectorized@PAVCInstanceBase@@PAV1@@std@@YAPAPAVCInstanceBase@@QAPAV1@0QAV1@@Z ; std::_Find_vectorized<CInstanceBase *,CInstanceBase *>
PUBLIC	??$_Could_compare_equal_to_value_type@PAPAVCInstanceBase@@PAV1@@std@@YA_NABQAVCInstanceBase@@@Z ; std::_Could_compare_equal_to_value_type<CInstanceBase * *,CInstanceBase *>
PUBLIC	??$_Partition_by_median_guess_unchecked@PAPAVCInstanceBase@@U?$_Ref_fn@UCInstanceBase_SLessCameraDistance@@@std@@@std@@YA?AU?$pair@PAPAVCInstanceBase@@PAPAV1@@0@PAPAVCInstanceBase@@0U?$_Ref_fn@UCInstanceBase_SLessCameraDistance@@@0@@Z ; std::_Partition_by_median_guess_unchecked<CInstanceBase * *,std::_Ref_fn<CInstanceBase_SLessCameraDistance> >
PUBLIC	??$_Sort_heap_unchecked@PAPAVCInstanceBase@@U?$_Ref_fn@UCInstanceBase_SLessCameraDistance@@@std@@@std@@YAXPAPAVCInstanceBase@@0U?$_Ref_fn@UCInstanceBase_SLessCameraDistance@@@0@@Z ; std::_Sort_heap_unchecked<CInstanceBase * *,std::_Ref_fn<CInstanceBase_SLessCameraDistance> >
PUBLIC	??$_Make_heap_unchecked@PAPAVCInstanceBase@@U?$_Ref_fn@UCInstanceBase_SLessCameraDistance@@@std@@@std@@YAXPAPAVCInstanceBase@@0U?$_Ref_fn@UCInstanceBase_SLessCameraDistance@@@0@@Z ; std::_Make_heap_unchecked<CInstanceBase * *,std::_Ref_fn<CInstanceBase_SLessCameraDistance> >
PUBLIC	??$?RAAPAVCInstanceBase@@AAPAV0@@?$_Ref_fn@UCInstanceBase_SLessCameraDistance@@@std@@QAE?A_TAAPAVCInstanceBase@@0@Z ; std::_Ref_fn<CInstanceBase_SLessCameraDistance>::operator()<CInstanceBase * &,CInstanceBase * &>
PUBLIC	??$_Insertion_sort_unchecked@PAPAVCInstanceBase@@U?$_Ref_fn@UCInstanceBase_SLessCameraDistance@@@std@@@std@@YAPAPAVCInstanceBase@@QAPAV1@0U?$_Ref_fn@UCInstanceBase_SLessCameraDistance@@@0@@Z ; std::_Insertion_sort_unchecked<CInstanceBase * *,std::_Ref_fn<CInstanceBase_SLessCameraDistance> >
PUBLIC	??$forward@V?$_Tree_iterator@V?$_Tree_val@U?$_Tree_simple_types@U?$pair@$$CBKPAVCInstanceBase@@@std@@@std@@@std@@@std@@@std@@YA$$QAV?$_Tree_iterator@V?$_Tree_val@U?$_Tree_simple_types@U?$pair@$$CBKPAVCInstanceBase@@@std@@@std@@@std@@@0@AAV10@@Z ; std::forward<std::_Tree_iterator<std::_Tree_val<std::_Tree_simple_types<std::pair<unsigned long const ,CInstanceBase *> > > > >
PUBLIC	??$?0PAU?$_Tree_node@U?$pair@$$CBKPAVCInstanceBase@@@std@@PAX@std@@_N$0A@@?$pair@PAU?$_Tree_node@U?$pair@$$CBKPAVCInstanceBase@@@std@@PAX@std@@_N@std@@QAE@$$QAPAU?$_Tree_node@U?$pair@$$CBKPAVCInstanceBase@@@std@@PAX@1@$$QA_N@Z ; std::pair<std::_Tree_node<std::pair<unsigned long const ,CInstanceBase *>,void *> *,bool>::pair<std::_Tree_node<std::pair<unsigned long const ,CInstanceBase *>,void *> *,bool><std::_Tree_node<std::pair<unsigned long const ,CInstanceBase *>,void *> *,bool,0>
PUBLIC	??$?0AAPAU?$_Tree_node@U?$pair@$$CBKPAVCInstanceBase@@@std@@PAX@std@@_N$0A@@?$pair@PAU?$_Tree_node@U?$pair@$$CBKPAVCInstanceBase@@@std@@PAX@std@@_N@std@@QAE@AAPAU?$_Tree_node@U?$pair@$$CBKPAVCInstanceBase@@@std@@PAX@1@$$QA_N@Z ; std::pair<std::_Tree_node<std::pair<unsigned long const ,CInstanceBase *>,void *> *,bool>::pair<std::_Tree_node<std::pair<unsigned long const ,CInstanceBase *>,void *> *,bool><std::_Tree_node<std::pair<unsigned long const ,CInstanceBase *>,void *> * &,bool,0>
PUBLIC	??$?0U?$pair@$$CBKPAVCInstanceBase@@@std@@@?$_Tree_temp_node@V?$allocator@U?$_Tree_node@U?$pair@$$CBKPAVCInstanceBase@@@std@@PAX@std@@@std@@@std@@QAE@AAV?$allocator@U?$_Tree_node@U?$pair@$$CBKPAVCInstanceBase@@@std@@PAX@std@@@1@PAU?$_Tree_node@U?$pair@$$CBKPAVCInstanceBase@@@std@@PAX@1@$$QAU?$pair@$$CBKPAVCInstanceBase@@@1@@Z ; std::_Tree_temp_node<std::allocator<std::_Tree_node<std::pair<unsigned long const ,CInstanceBase *>,void *> > >::_Tree_temp_node<std::allocator<std::_Tree_node<std::pair<unsigned long const ,CInstanceBase *>,void *> > ><std::pair<unsigned long const ,CInstanceBase *> >
PUBLIC	??$forward@U?$pair@$$CBKPAVCInstanceBase@@@std@@@std@@YA$$QAU?$pair@$$CBKPAVCInstanceBase@@@0@AAU10@@Z ; std::forward<std::pair<unsigned long const ,CInstanceBase *> >
PUBLIC	??$_Lower_bound_duplicate@K@?$_Tree@V?$_Tmap_traits@KPAVCInstanceBase@@U?$less@K@std@@V?$allocator@U?$pair@$$CBKPAVCInstanceBase@@@std@@@3@$0A@@std@@@std@@IBE_NQAU?$_Tree_node@U?$pair@$$CBKPAVCInstanceBase@@@std@@PAX@1@ABK@Z ; std::_Tree<std::_Tmap_traits<unsigned long,CInstanceBase *,std::less<unsigned long>,std::allocator<std::pair<unsigned long const ,CInstanceBase *> >,0> >::_Lower_bound_duplicate<unsigned long>
PUBLIC	??$_Find_lower_bound@K@?$_Tree@V?$_Tmap_traits@KPAVCInstanceBase@@U?$less@K@std@@V?$allocator@U?$pair@$$CBKPAVCInstanceBase@@@std@@@3@$0A@@std@@@std@@IBE?AU?$_Tree_find_result@PAU?$_Tree_node@U?$pair@$$CBKPAVCInstanceBase@@@std@@PAX@std@@@1@ABK@Z ; std::_Tree<std::_Tmap_traits<unsigned long,CInstanceBase *,std::less<unsigned long>,std::allocator<std::pair<unsigned long const ,CInstanceBase *> >,0> >::_Find_lower_bound<unsigned long>
PUBLIC	??$_Partition_by_median_guess_unchecked@PAPAVCInstanceBase@@ULessCharacterInstancePtrRenderOrder@@@std@@YA?AU?$pair@PAPAVCInstanceBase@@PAPAV1@@0@PAPAVCInstanceBase@@0ULessCharacterInstancePtrRenderOrder@@@Z ; std::_Partition_by_median_guess_unchecked<CInstanceBase * *,LessCharacterInstancePtrRenderOrder>
PUBLIC	??$_Sort_heap_unchecked@PAPAVCInstanceBase@@ULessCharacterInstancePtrRenderOrder@@@std@@YAXPAPAVCInstanceBase@@0ULessCharacterInstancePtrRenderOrder@@@Z ; std::_Sort_heap_unchecked<CInstanceBase * *,LessCharacterInstancePtrRenderOrder>
PUBLIC	??$_Make_heap_unchecked@PAPAVCInstanceBase@@ULessCharacterInstancePtrRenderOrder@@@std@@YAXPAPAVCInstanceBase@@0ULessCharacterInstancePtrRenderOrder@@@Z ; std::_Make_heap_unchecked<CInstanceBase * *,LessCharacterInstancePtrRenderOrder>
PUBLIC	??$_Insertion_sort_unchecked@PAPAVCInstanceBase@@ULessCharacterInstancePtrRenderOrder@@@std@@YAPAPAVCInstanceBase@@QAPAV1@0ULessCharacterInstancePtrRenderOrder@@@Z ; std::_Insertion_sort_unchecked<CInstanceBase * *,LessCharacterInstancePtrRenderOrder>
PUBLIC	??0?$_List_unchecked_iterator@V?$_List_val@U?$_List_simple_types@PAVCInstanceBase@@@std@@@std@@@std@@QAE@PAU?$_List_node@PAVCInstanceBase@@PAX@1@PBV?$_List_val@U?$_List_simple_types@PAVCInstanceBase@@@std@@@1@@Z ; std::_List_unchecked_iterator<std::_List_val<std::_List_simple_types<CInstanceBase *> > >::_List_unchecked_iterator<std::_List_val<std::_List_simple_types<CInstanceBase *> > >
PUBLIC	?_Make_iter@?$list@PAVCInstanceBase@@V?$allocator@PAVCInstanceBase@@@std@@@std@@QBE?AV?$_List_iterator@V?$_List_val@U?$_List_simple_types@PAVCInstanceBase@@@std@@@std@@@2@PAU?$_List_node@PAVCInstanceBase@@PAX@2@@Z ; std::list<CInstanceBase *,std::allocator<CInstanceBase *> >::_Make_iter
PUBLIC	?_Tidy@?$list@PAVCInstanceBase@@V?$allocator@PAVCInstanceBase@@@std@@@std@@AAEXXZ ; std::list<CInstanceBase *,std::allocator<CInstanceBase *> >::_Tidy
PUBLIC	?_Alloc_sentinel_and_proxy@?$list@PAVCInstanceBase@@V?$allocator@PAVCInstanceBase@@@std@@@std@@AAEXXZ ; std::list<CInstanceBase *,std::allocator<CInstanceBase *> >::_Alloc_sentinel_and_proxy
PUBLIC	?_Getal@?$list@PAVCInstanceBase@@V?$allocator@PAVCInstanceBase@@@std@@@std@@AAEAAV?$allocator@U?$_List_node@PAVCInstanceBase@@PAX@std@@@2@XZ ; std::list<CInstanceBase *,std::allocator<CInstanceBase *> >::_Getal
PUBLIC	??0?$_Tree@V?$_Tmap_traits@KPAVCInstanceBase@@U?$less@K@std@@V?$allocator@U?$pair@$$CBKPAVCInstanceBase@@@std@@@3@$0A@@std@@@std@@QAE@ABU?$less@K@1@@Z ; std::_Tree<std::_Tmap_traits<unsigned long,CInstanceBase *,std::less<unsigned long>,std::allocator<std::pair<unsigned long const ,CInstanceBase *> >,0> >::_Tree<std::_Tmap_traits<unsigned long,CInstanceBase *,std::less<unsigned long>,std::allocator<std::pair<unsigned long const ,CInstanceBase *> >,0> >
PUBLIC	?_Erase_unchecked@?$_Tree@V?$_Tmap_traits@KPAVCInstanceBase@@U?$less@K@std@@V?$allocator@U?$pair@$$CBKPAVCInstanceBase@@@std@@@3@$0A@@std@@@std@@AAEPAU?$_Tree_node@U?$pair@$$CBKPAVCInstanceBase@@@std@@PAX@2@V?$_Tree_unchecked_const_iterator@V?$_Tree_val@U?$_Tree_simple_types@U?$pair@$$CBKPAVCInstanceBase@@@std@@@std@@@std@@U_Iterator_base0@2@@2@@Z ; std::_Tree<std::_Tmap_traits<unsigned long,CInstanceBase *,std::less<unsigned long>,std::allocator<std::pair<unsigned long const ,CInstanceBase *> >,0> >::_Erase_unchecked
PUBLIC	?_Getal@?$_Tree@V?$_Tmap_traits@KPAVCInstanceBase@@U?$less@K@std@@V?$allocator@U?$pair@$$CBKPAVCInstanceBase@@@std@@@3@$0A@@std@@@std@@IAEAAV?$allocator@U?$_Tree_node@U?$pair@$$CBKPAVCInstanceBase@@@std@@PAX@std@@@2@XZ ; std::_Tree<std::_Tmap_traits<unsigned long,CInstanceBase *,std::less<unsigned long>,std::allocator<std::pair<unsigned long const ,CInstanceBase *> >,0> >::_Getal
PUBLIC	?_Get_scary@?$_Tree@V?$_Tmap_traits@KPAVCInstanceBase@@U?$less@K@std@@V?$allocator@U?$pair@$$CBKPAVCInstanceBase@@@std@@@3@$0A@@std@@@std@@IBEPBV?$_Tree_val@U?$_Tree_simple_types@U?$pair@$$CBKPAVCInstanceBase@@@std@@@std@@@2@XZ ; std::_Tree<std::_Tmap_traits<unsigned long,CInstanceBase *,std::less<unsigned long>,std::allocator<std::pair<unsigned long const ,CInstanceBase *> >,0> >::_Get_scary
PUBLIC	?_Orphan_ptr@?$_Tree_val@U?$_Tree_simple_types@U?$pair@$$CBKPAVCInstanceBase@@@std@@@std@@@std@@QAEXQAU?$_Tree_node@U?$pair@$$CBKPAVCInstanceBase@@@std@@PAX@2@@Z ; std::_Tree_val<std::_Tree_simple_types<std::pair<unsigned long const ,CInstanceBase *> > >::_Orphan_ptr
PUBLIC	?_Unwrapped@?$_Tree_iterator@V?$_Tree_val@U?$_Tree_simple_types@U?$pair@$$CBKPAVCInstanceBase@@@std@@@std@@@std@@@std@@QBE?AV?$_Tree_unchecked_iterator@V?$_Tree_val@U?$_Tree_simple_types@U?$pair@$$CBKPAVCInstanceBase@@@std@@@std@@@std@@@2@XZ ; std::_Tree_iterator<std::_Tree_val<std::_Tree_simple_types<std::pair<unsigned long const ,CInstanceBase *> > > >::_Unwrapped
PUBLIC	??D?$_Tree_unchecked_const_iterator@V?$_Tree_val@U?$_Tree_simple_types@U?$pair@$$CBKPAVCInstanceBase@@@std@@@std@@@std@@U_Iterator_base0@2@@std@@QBEABU?$pair@$$CBKPAVCInstanceBase@@@1@XZ ; std::_Tree_unchecked_const_iterator<std::_Tree_val<std::_Tree_simple_types<std::pair<unsigned long const ,CInstanceBase *> > >,std::_Iterator_base0>::operator*
PUBLIC	??8?$_Tree_unchecked_const_iterator@V?$_Tree_val@U?$_Tree_simple_types@U?$pair@$$CBKPAVCInstanceBase@@@std@@@std@@@std@@U_Iterator_base0@2@@std@@QBE_NABV01@@Z ; std::_Tree_unchecked_const_iterator<std::_Tree_val<std::_Tree_simple_types<std::pair<unsigned long const ,CInstanceBase *> > >,std::_Iterator_base0>::operator==
PUBLIC	?_Orphan_non_end@?$_List_val@U?$_List_simple_types@PAVCInstanceBase@@@std@@@std@@QAEXXZ ; std::_List_val<std::_List_simple_types<CInstanceBase *> >::_Orphan_non_end
PUBLIC	?_Unlinknode@?$_List_val@U?$_List_simple_types@PAVCInstanceBase@@@std@@@std@@QAEPAU?$_List_node@PAVCInstanceBase@@PAX@2@PAU32@@Z ; std::_List_val<std::_List_simple_types<CInstanceBase *> >::_Unlinknode
PUBLIC	?_Unwrapped@?$_List_iterator@V?$_List_val@U?$_List_simple_types@PAVCInstanceBase@@@std@@@std@@@std@@QBE?AV?$_List_unchecked_iterator@V?$_List_val@U?$_List_simple_types@PAVCInstanceBase@@@std@@@std@@@2@XZ ; std::_List_iterator<std::_List_val<std::_List_simple_types<CInstanceBase *> > >::_Unwrapped
PUBLIC	??D?$_List_const_iterator@V?$_List_val@U?$_List_simple_types@PAVCInstanceBase@@@std@@@std@@@std@@QBEABQAVCInstanceBase@@XZ ; std::_List_const_iterator<std::_List_val<std::_List_simple_types<CInstanceBase *> > >::operator*
PUBLIC	??E?$_List_const_iterator@V?$_List_val@U?$_List_simple_types@PAVCInstanceBase@@@std@@@std@@@std@@QAEAAV01@XZ ; std::_List_const_iterator<std::_List_val<std::_List_simple_types<CInstanceBase *> > >::operator++
PUBLIC	??D?$_List_unchecked_iterator@V?$_List_val@U?$_List_simple_types@PAVCInstanceBase@@@std@@@std@@@std@@QBEAAPAVCInstanceBase@@XZ ; std::_List_unchecked_iterator<std::_List_val<std::_List_simple_types<CInstanceBase *> > >::operator*
PUBLIC	??E?$_List_unchecked_iterator@V?$_List_val@U?$_List_simple_types@PAVCInstanceBase@@@std@@@std@@@std@@QAEAAV01@XZ ; std::_List_unchecked_iterator<std::_List_val<std::_List_simple_types<CInstanceBase *> > >::operator++
PUBLIC	??0?$_List_unchecked_const_iterator@V?$_List_val@U?$_List_simple_types@PAVCInstanceBase@@@std@@@std@@U_Iterator_base0@2@@std@@QAE@PAU?$_List_node@PAVCInstanceBase@@PAX@1@PBV?$_List_val@U?$_List_simple_types@PAVCInstanceBase@@@std@@@1@@Z ; std::_List_unchecked_const_iterator<std::_List_val<std::_List_simple_types<CInstanceBase *> >,std::_Iterator_base0>::_List_unchecked_const_iterator<std::_List_val<std::_List_simple_types<CInstanceBase *> >,std::_Iterator_base0>
PUBLIC	??8?$_List_unchecked_const_iterator@V?$_List_val@U?$_List_simple_types@PAVCInstanceBase@@@std@@@std@@U_Iterator_base0@2@@std@@QBE_NABV01@@Z ; std::_List_unchecked_const_iterator<std::_List_val<std::_List_simple_types<CInstanceBase *> >,std::_Iterator_base0>::operator==
PUBLIC	?_Unwrapped@?$_Vector_iterator@V?$_Vector_val@U?$_Simple_types@PAVCInstanceBase@@@std@@@std@@@std@@QBEPAPAVCInstanceBase@@XZ ; std::_Vector_iterator<std::_Vector_val<std::_Simple_types<CInstanceBase *> > >::_Unwrapped
PUBLIC	??0?$_Vector_const_iterator@V?$_Vector_val@U?$_Simple_types@PAVCInstanceBase@@@std@@@std@@@std@@QAE@PAPAVCInstanceBase@@PBU_Container_base0@1@@Z ; std::_Vector_const_iterator<std::_Vector_val<std::_Simple_types<CInstanceBase *> > >::_Vector_const_iterator<std::_Vector_val<std::_Simple_types<CInstanceBase *> > >
PUBLIC	??D?$_Vector_const_iterator@V?$_Vector_val@U?$_Simple_types@PAVCInstanceBase@@@std@@@std@@@std@@QBEABQAVCInstanceBase@@XZ ; std::_Vector_const_iterator<std::_Vector_val<std::_Simple_types<CInstanceBase *> > >::operator*
PUBLIC	??E?$_Vector_const_iterator@V?$_Vector_val@U?$_Simple_types@PAVCInstanceBase@@@std@@@std@@@std@@QAEAAV01@XZ ; std::_Vector_const_iterator<std::_Vector_val<std::_Simple_types<CInstanceBase *> > >::operator++
PUBLIC	?_Compat@?$_Vector_const_iterator@V?$_Vector_val@U?$_Simple_types@PAVCInstanceBase@@@std@@@std@@@std@@QBEXABV12@@Z ; std::_Vector_const_iterator<std::_Vector_val<std::_Simple_types<CInstanceBase *> > >::_Compat
PUBLIC	?_Tidy@?$vector@U?$pair@PAVCInstanceBase@@M@std@@V?$allocator@U?$pair@PAVCInstanceBase@@M@std@@@2@@std@@AAEXXZ ; std::vector<std::pair<CInstanceBase *,float>,std::allocator<std::pair<CInstanceBase *,float> > >::_Tidy
PUBLIC	??0?$_Vector_const_iterator@V?$_Vector_val@U?$_Simple_types@U?$pair@PAVCInstanceBase@@M@std@@@std@@@std@@@std@@QAE@PAU?$pair@PAVCInstanceBase@@M@1@PBU_Container_base0@1@@Z ; std::_Vector_const_iterator<std::_Vector_val<std::_Simple_types<std::pair<CInstanceBase *,float> > > >::_Vector_const_iterator<std::_Vector_val<std::_Simple_types<std::pair<CInstanceBase *,float> > > >
PUBLIC	??$addressof@V?$_Vector_val@U?$_Simple_types@PAVCInstanceBase@@@std@@@std@@@std@@YAPAV?$_Vector_val@U?$_Simple_types@PAVCInstanceBase@@@std@@@0@AAV10@@Z ; std::addressof<std::_Vector_val<std::_Simple_types<CInstanceBase *> > >
PUBLIC	??$?0$$V@?$_Compressed_pair@V?$allocator@U?$_List_node@PAVCInstanceBase@@PAX@std@@@std@@V?$_List_val@U?$_List_simple_types@PAVCInstanceBase@@@std@@@2@$00@std@@QAE@U_Zero_then_variadic_args_t@1@@Z ; std::_Compressed_pair<std::allocator<std::_List_node<CInstanceBase *,void *> >,std::_List_val<std::_List_simple_types<CInstanceBase *> >,1>::_Compressed_pair<std::allocator<std::_List_node<CInstanceBase *,void *> >,std::_List_val<std::_List_simple_types<CInstanceBase *> >,1><>
PUBLIC	??$addressof@V?$_List_val@U?$_List_simple_types@PAVCInstanceBase@@@std@@@std@@@std@@YAPAV?$_List_val@U?$_List_simple_types@PAVCInstanceBase@@@std@@@0@AAV10@@Z ; std::addressof<std::_List_val<std::_List_simple_types<CInstanceBase *> > >
PUBLIC	??$_Emplace@ABQAVCInstanceBase@@@?$list@PAVCInstanceBase@@V?$allocator@PAVCInstanceBase@@@std@@@std@@QAEPAU?$_List_node@PAVCInstanceBase@@PAX@1@QAU21@ABQAVCInstanceBase@@@Z ; std::list<CInstanceBase *,std::allocator<CInstanceBase *> >::_Emplace<CInstanceBase * const &>
PUBLIC	??$_Freenode@V?$allocator@U?$_List_node@PAVCInstanceBase@@PAX@std@@@std@@@?$_List_node@PAVCInstanceBase@@PAX@std@@SAXAAV?$allocator@U?$_List_node@PAVCInstanceBase@@PAX@std@@@1@PAU01@@Z ; std::_List_node<CInstanceBase *,void *>::_Freenode<std::allocator<std::_List_node<CInstanceBase *,void *> > >
PUBLIC	??$_Free_non_head@V?$allocator@U?$_List_node@PAVCInstanceBase@@PAX@std@@@std@@@?$_List_node@PAVCInstanceBase@@PAX@std@@SAXAAV?$allocator@U?$_List_node@PAVCInstanceBase@@PAX@std@@@1@PAU01@@Z ; std::_List_node<CInstanceBase *,void *>::_Free_non_head<std::allocator<std::_List_node<CInstanceBase *,void *> > >
PUBLIC	??$_Erase_head@V?$allocator@U?$_Tree_node@U?$pair@$$CBKPAVCInstanceBase@@@std@@PAX@std@@@std@@@?$_Tree_val@U?$_Tree_simple_types@U?$pair@$$CBKPAVCInstanceBase@@@std@@@std@@@std@@QAEXAAV?$allocator@U?$_Tree_node@U?$pair@$$CBKPAVCInstanceBase@@@std@@PAX@std@@@1@@Z ; std::_Tree_val<std::_Tree_simple_types<std::pair<unsigned long const ,CInstanceBase *> > >::_Erase_head<std::allocator<std::_Tree_node<std::pair<unsigned long const ,CInstanceBase *>,void *> > >
PUBLIC	??$_Erase_tree@V?$allocator@U?$_Tree_node@U?$pair@$$CBKPAVCInstanceBase@@@std@@PAX@std@@@std@@@?$_Tree_val@U?$_Tree_simple_types@U?$pair@$$CBKPAVCInstanceBase@@@std@@@std@@@std@@QAEXAAV?$allocator@U?$_Tree_node@U?$pair@$$CBKPAVCInstanceBase@@@std@@PAX@std@@@1@PAU?$_Tree_node@U?$pair@$$CBKPAVCInstanceBase@@@std@@PAX@1@@Z ; std::_Tree_val<std::_Tree_simple_types<std::pair<unsigned long const ,CInstanceBase *> > >::_Erase_tree<std::allocator<std::_Tree_node<std::pair<unsigned long const ,CInstanceBase *>,void *> > >
PUBLIC	??$_Find@K@?$_Tree@V?$_Tmap_traits@KPAVCInstanceBase@@U?$less@K@std@@V?$allocator@U?$pair@$$CBKPAVCInstanceBase@@@std@@@3@$0A@@std@@@std@@ABEPAU?$_Tree_node@U?$pair@$$CBKPAVCInstanceBase@@@std@@PAX@1@ABK@Z ; std::_Tree<std::_Tmap_traits<unsigned long,CInstanceBase *,std::less<unsigned long>,std::allocator<std::pair<unsigned long const ,CInstanceBase *> >,0> >::_Find<unsigned long>
PUBLIC	??$?0$$V@?$_Compressed_pair@V?$allocator@U?$pair@PAVCInstanceBase@@M@std@@@std@@V?$_Vector_val@U?$_Simple_types@U?$pair@PAVCInstanceBase@@M@std@@@std@@@2@$00@std@@QAE@U_Zero_then_variadic_args_t@1@@Z ; std::_Compressed_pair<std::allocator<std::pair<CInstanceBase *,float> >,std::_Vector_val<std::_Simple_types<std::pair<CInstanceBase *,float> > >,1>::_Compressed_pair<std::allocator<std::pair<CInstanceBase *,float> >,std::_Vector_val<std::_Simple_types<std::pair<CInstanceBase *,float> > >,1><>
PUBLIC	??$addressof@V?$_Vector_val@U?$_Simple_types@U?$pair@PAVCInstanceBase@@M@std@@@std@@@std@@@std@@YAPAV?$_Vector_val@U?$_Simple_types@U?$pair@PAVCInstanceBase@@M@std@@@std@@@0@AAV10@@Z ; std::addressof<std::_Vector_val<std::_Simple_types<std::pair<CInstanceBase *,float> > > >
PUBLIC	??$_Sort_unchecked@PAU?$pair@PAVCInstanceBase@@M@std@@P6A_NABU12@0@Z@std@@YAXPAU?$pair@PAVCInstanceBase@@M@0@0HP6A_NABU10@1@Z@Z ; std::_Sort_unchecked<std::pair<CInstanceBase *,float> *,bool (__cdecl*)(std::pair<CInstanceBase *,float> const &,std::pair<CInstanceBase *,float> const &)>
PUBLIC	??$_Unfancy_maybe_null@U?$pair@PAVCInstanceBase@@M@std@@@std@@YAPAU?$pair@PAVCInstanceBase@@M@0@PAU10@@Z ; std::_Unfancy_maybe_null<std::pair<CInstanceBase *,float> >
PUBLIC	??$_Adl_verify_range@V?$_Vector_iterator@V?$_Vector_val@U?$_Simple_types@U?$pair@PAVCInstanceBase@@M@std@@@std@@@std@@@std@@V12@@std@@YAXABV?$_Vector_iterator@V?$_Vector_val@U?$_Simple_types@U?$pair@PAVCInstanceBase@@M@std@@@std@@@std@@@0@0@Z ; std::_Adl_verify_range<std::_Vector_iterator<std::_Vector_val<std::_Simple_types<std::pair<CInstanceBase *,float> > > >,std::_Vector_iterator<std::_Vector_val<std::_Simple_types<std::pair<CInstanceBase *,float> > > > >
PUBLIC	??$_Emplace_one_at_back@AAPAVCInstanceBase@@ABM@?$vector@U?$pair@PAVCInstanceBase@@M@std@@V?$allocator@U?$pair@PAVCInstanceBase@@M@std@@@2@@std@@AAEAAU?$pair@PAVCInstanceBase@@M@1@AAPAVCInstanceBase@@ABM@Z ; std::vector<std::pair<CInstanceBase *,float>,std::allocator<std::pair<CInstanceBase *,float> > >::_Emplace_one_at_back<CInstanceBase * &,float const &>
PUBLIC	??$forward@ABM@std@@YAABMABM@Z			; std::forward<float const &>
PUBLIC	??$_Emplace_one_at_back@AAPAVCInstanceBase@@@?$vector@PAVCInstanceBase@@V?$allocator@PAVCInstanceBase@@@std@@@std@@AAEAAPAVCInstanceBase@@AAPAV2@@Z ; std::vector<CInstanceBase *,std::allocator<CInstanceBase *> >::_Emplace_one_at_back<CInstanceBase * &>
PUBLIC	??$_Seek_wrapped@V?$_Vector_iterator@V?$_Vector_val@U?$_Simple_types@PAVCInstanceBase@@@std@@@std@@@std@@PAPAVCInstanceBase@@@std@@YAXAAV?$_Vector_iterator@V?$_Vector_val@U?$_Simple_types@PAVCInstanceBase@@@std@@@std@@@0@$$QAPAPAVCInstanceBase@@@Z ; std::_Seek_wrapped<std::_Vector_iterator<std::_Vector_val<std::_Simple_types<CInstanceBase *> > >,CInstanceBase * *>
PUBLIC	??$_Find_unchecked@PAPAVCInstanceBase@@PAV1@@std@@YAPAPAVCInstanceBase@@PAPAV1@QAPAV1@ABQAV1@@Z ; std::_Find_unchecked<CInstanceBase * *,CInstanceBase *>
PUBLIC	??$_Sort_unchecked@PAPAVCInstanceBase@@U?$_Ref_fn@UCInstanceBase_SLessCameraDistance@@@std@@@std@@YAXPAPAVCInstanceBase@@0HU?$_Ref_fn@UCInstanceBase_SLessCameraDistance@@@0@@Z ; std::_Sort_unchecked<CInstanceBase * *,std::_Ref_fn<CInstanceBase_SLessCameraDistance> >
PUBLIC	??$?0V?$_Tree_iterator@V?$_Tree_val@U?$_Tree_simple_types@U?$pair@$$CBKPAVCInstanceBase@@@std@@@std@@@std@@@std@@AB_N$0A@@?$pair@V?$_Tree_iterator@V?$_Tree_val@U?$_Tree_simple_types@U?$pair@$$CBKPAVCInstanceBase@@@std@@@std@@@std@@@std@@_N@std@@QAE@$$QAV?$_Tree_iterator@V?$_Tree_val@U?$_Tree_simple_types@U?$pair@$$CBKPAVCInstanceBase@@@std@@@std@@@std@@@1@AB_N@Z ; std::pair<std::_Tree_iterator<std::_Tree_val<std::_Tree_simple_types<std::pair<unsigned long const ,CInstanceBase *> > > >,bool>::pair<std::_Tree_iterator<std::_Tree_val<std::_Tree_simple_types<std::pair<unsigned long const ,CInstanceBase *> > > >,bool><std::_Tree_iterator<std::_Tree_val<std::_Tree_simple_types<std::pair<unsigned long const ,CInstanceBase *> > > >,bool const &,0>
PUBLIC	??$_Emplace@U?$pair@$$CBKPAVCInstanceBase@@@std@@@?$_Tree@V?$_Tmap_traits@KPAVCInstanceBase@@U?$less@K@std@@V?$allocator@U?$pair@$$CBKPAVCInstanceBase@@@std@@@3@$0A@@std@@@std@@IAE?AU?$pair@PAU?$_Tree_node@U?$pair@$$CBKPAVCInstanceBase@@@std@@PAX@std@@_N@1@$$QAU?$pair@$$CBKPAVCInstanceBase@@@1@@Z ; std::_Tree<std::_Tmap_traits<unsigned long,CInstanceBase *,std::less<unsigned long>,std::allocator<std::pair<unsigned long const ,CInstanceBase *> >,0> >::_Emplace<std::pair<unsigned long const ,CInstanceBase *> >
PUBLIC	??$move@AAU?$pair@$$CBKPAVCInstanceBase@@@std@@@std@@YA$$QAU?$pair@$$CBKPAVCInstanceBase@@@0@AAU10@@Z ; std::move<std::pair<unsigned long const ,CInstanceBase *> &>
PUBLIC	??$_Sort_unchecked@PAPAVCInstanceBase@@ULessCharacterInstancePtrRenderOrder@@@std@@YAXPAPAVCInstanceBase@@0HULessCharacterInstancePtrRenderOrder@@@Z ; std::_Sort_unchecked<CInstanceBase * *,LessCharacterInstancePtrRenderOrder>
PUBLIC	??$_Adl_verify_range@V?$_Vector_iterator@V?$_Vector_val@U?$_Simple_types@PAVCInstanceBase@@@std@@@std@@@std@@V12@@std@@YAXABV?$_Vector_iterator@V?$_Vector_val@U?$_Simple_types@PAVCInstanceBase@@@std@@@std@@@0@0@Z ; std::_Adl_verify_range<std::_Vector_iterator<std::_Vector_val<std::_Simple_types<CInstanceBase *> > >,std::_Vector_iterator<std::_Vector_val<std::_Simple_types<CInstanceBase *> > > >
PUBLIC	??$_Adl_verify_range@V?$_List_iterator@V?$_List_val@U?$_List_simple_types@PAVCInstanceBase@@@std@@@std@@@std@@V12@@std@@YAXABV?$_List_iterator@V?$_List_val@U?$_List_simple_types@PAVCInstanceBase@@@std@@@std@@@0@0@Z ; std::_Adl_verify_range<std::_List_iterator<std::_List_val<std::_List_simple_types<CInstanceBase *> > >,std::_List_iterator<std::_List_val<std::_List_simple_types<CInstanceBase *> > > >
PUBLIC	??$?0$$CBKPAVCInstanceBase@@$0A@@?$pair@KPAVCInstanceBase@@@std@@QAE@ABU?$pair@$$CBKPAVCInstanceBase@@@1@@Z ; std::pair<unsigned long,CInstanceBase *>::pair<unsigned long,CInstanceBase *><unsigned long const ,CInstanceBase *,0>
PUBLIC	??$_Adl_verify_range@V?$_Tree_iterator@V?$_Tree_val@U?$_Tree_simple_types@U?$pair@$$CBKPAVCInstanceBase@@@std@@@std@@@std@@@std@@V12@@std@@YAXABV?$_Tree_iterator@V?$_Tree_val@U?$_Tree_simple_types@U?$pair@$$CBKPAVCInstanceBase@@@std@@@std@@@std@@@0@0@Z ; std::_Adl_verify_range<std::_Tree_iterator<std::_Tree_val<std::_Tree_simple_types<std::pair<unsigned long const ,CInstanceBase *> > > >,std::_Tree_iterator<std::_Tree_val<std::_Tree_simple_types<std::pair<unsigned long const ,CInstanceBase *> > > > >
PUBLIC	??0?$_List_const_iterator@V?$_List_val@U?$_List_simple_types@PAVCInstanceBase@@@std@@@std@@@std@@QAE@PAU?$_List_node@PAVCInstanceBase@@PAX@1@PBV?$_List_val@U?$_List_simple_types@PAVCInstanceBase@@@std@@@1@@Z ; std::_List_const_iterator<std::_List_val<std::_List_simple_types<CInstanceBase *> > >::_List_const_iterator<std::_List_val<std::_List_simple_types<CInstanceBase *> > >
PUBLIC	??_G?$TAbstractSingleton@VIAbstractCharacterManager@@@@UAEPAXI@Z ; TAbstractSingleton<IAbstractCharacterManager>::`scalar deleting destructor'
PUBLIC	??_G?$CSingleton@VCPythonCharacterManager@@@@UAEPAXI@Z ; CSingleton<CPythonCharacterManager>::`scalar deleting destructor'
PUBLIC	??0?$_List_iterator@V?$_List_val@U?$_List_simple_types@PAVCInstanceBase@@@std@@@std@@@std@@QAE@PAU?$_List_node@PAVCInstanceBase@@PAX@1@PBV?$_List_val@U?$_List_simple_types@PAVCInstanceBase@@@std@@@1@@Z ; std::_List_iterator<std::_List_val<std::_List_simple_types<CInstanceBase *> > >::_List_iterator<std::_List_val<std::_List_simple_types<CInstanceBase *> > >
PUBLIC	??0?$_Tree_unchecked_iterator@V?$_Tree_val@U?$_Tree_simple_types@U?$pair@$$CBKPAVCInstanceBase@@@std@@@std@@@std@@@std@@QAE@PAU?$_Tree_node@U?$pair@$$CBKPAVCInstanceBase@@@std@@PAX@1@PBV?$_Tree_val@U?$_Tree_simple_types@U?$pair@$$CBKPAVCInstanceBase@@@std@@@std@@@1@@Z ; std::_Tree_unchecked_iterator<std::_Tree_val<std::_Tree_simple_types<std::pair<unsigned long const ,CInstanceBase *> > > >::_Tree_unchecked_iterator<std::_Tree_val<std::_Tree_simple_types<std::pair<unsigned long const ,CInstanceBase *> > > >
PUBLIC	?Instance@?$CSingleton@VCPythonGraphic@@@@SAAAVCPythonGraphic@@XZ ; CSingleton<CPythonGraphic>::Instance
PUBLIC	??0?$TAbstractSingleton@VIAbstractCharacterManager@@@@QAE@XZ ; TAbstractSingleton<IAbstractCharacterManager>::TAbstractSingleton<IAbstractCharacterManager>
PUBLIC	??1?$TAbstractSingleton@VIAbstractCharacterManager@@@@UAE@XZ ; TAbstractSingleton<IAbstractCharacterManager>::~TAbstractSingleton<IAbstractCharacterManager>
PUBLIC	?begin@?$vector@PAVCInstanceBase@@V?$allocator@PAVCInstanceBase@@@std@@@std@@QAE?AV?$_Vector_iterator@V?$_Vector_val@U?$_Simple_types@PAVCInstanceBase@@@std@@@std@@@2@XZ ; std::vector<CInstanceBase *,std::allocator<CInstanceBase *> >::begin
PUBLIC	??0?$_Vector_iterator@V?$_Vector_val@U?$_Simple_types@PAVCInstanceBase@@@std@@@std@@@std@@QAE@PAPAVCInstanceBase@@PBU_Container_base0@1@@Z ; std::_Vector_iterator<std::_Vector_val<std::_Simple_types<CInstanceBase *> > >::_Vector_iterator<std::_Vector_val<std::_Simple_types<CInstanceBase *> > >
PUBLIC	?end@?$vector@PAVCInstanceBase@@V?$allocator@PAVCInstanceBase@@@std@@@std@@QAE?AV?$_Vector_iterator@V?$_Vector_val@U?$_Simple_types@PAVCInstanceBase@@@std@@@std@@@2@XZ ; std::vector<CInstanceBase *,std::allocator<CInstanceBase *> >::end
PUBLIC	??0?$CSingleton@VCPythonCharacterManager@@@@QAE@XZ ; CSingleton<CPythonCharacterManager>::CSingleton<CPythonCharacterManager>
PUBLIC	??1?$CSingleton@VCPythonCharacterManager@@@@UAE@XZ ; CSingleton<CPythonCharacterManager>::~CSingleton<CPythonCharacterManager>
PUBLIC	??0?$list@PAVCInstanceBase@@V?$allocator@PAVCInstanceBase@@@std@@@std@@QAE@XZ ; std::list<CInstanceBase *,std::allocator<CInstanceBase *> >::list<CInstanceBase *,std::allocator<CInstanceBase *> >
PUBLIC	??1?$list@PAVCInstanceBase@@V?$allocator@PAVCInstanceBase@@@std@@@std@@QAE@XZ ; std::list<CInstanceBase *,std::allocator<CInstanceBase *> >::~list<CInstanceBase *,std::allocator<CInstanceBase *> >
PUBLIC	?begin@?$list@PAVCInstanceBase@@V?$allocator@PAVCInstanceBase@@@std@@@std@@QAE?AV?$_List_iterator@V?$_List_val@U?$_List_simple_types@PAVCInstanceBase@@@std@@@std@@@2@XZ ; std::list<CInstanceBase *,std::allocator<CInstanceBase *> >::begin
PUBLIC	?end@?$list@PAVCInstanceBase@@V?$allocator@PAVCInstanceBase@@@std@@@std@@QAE?AV?$_List_iterator@V?$_List_val@U?$_List_simple_types@PAVCInstanceBase@@@std@@@std@@@2@XZ ; std::list<CInstanceBase *,std::allocator<CInstanceBase *> >::end
PUBLIC	?size@?$list@PAVCInstanceBase@@V?$allocator@PAVCInstanceBase@@@std@@@std@@QBEIXZ ; std::list<CInstanceBase *,std::allocator<CInstanceBase *> >::size
PUBLIC	?push_back@?$list@PAVCInstanceBase@@V?$allocator@PAVCInstanceBase@@@std@@@std@@QAEXABQAVCInstanceBase@@@Z ; std::list<CInstanceBase *,std::allocator<CInstanceBase *> >::push_back
PUBLIC	?erase@?$list@PAVCInstanceBase@@V?$allocator@PAVCInstanceBase@@@std@@@std@@QAE?AV?$_List_iterator@V?$_List_val@U?$_List_simple_types@PAVCInstanceBase@@@std@@@std@@@2@V?$_List_const_iterator@V?$_List_val@U?$_List_simple_types@PAVCInstanceBase@@@std@@@std@@@2@@Z ; std::list<CInstanceBase *,std::allocator<CInstanceBase *> >::erase
PUBLIC	?clear@?$list@PAVCInstanceBase@@V?$allocator@PAVCInstanceBase@@@std@@@std@@QAEXXZ ; std::list<CInstanceBase *,std::allocator<CInstanceBase *> >::clear
PUBLIC	??0?$map@KPAVCInstanceBase@@U?$less@K@std@@V?$allocator@U?$pair@$$CBKPAVCInstanceBase@@@std@@@3@@std@@QAE@XZ ; std::map<unsigned long,CInstanceBase *,std::less<unsigned long>,std::allocator<std::pair<unsigned long const ,CInstanceBase *> > >::map<unsigned long,CInstanceBase *,std::less<unsigned long>,std::allocator<std::pair<unsigned long const ,CInstanceBase *> > >
PUBLIC	??1?$_Tree@V?$_Tmap_traits@KPAVCInstanceBase@@U?$less@K@std@@V?$allocator@U?$pair@$$CBKPAVCInstanceBase@@@std@@@3@$0A@@std@@@std@@QAE@XZ ; std::_Tree<std::_Tmap_traits<unsigned long,CInstanceBase *,std::less<unsigned long>,std::allocator<std::pair<unsigned long const ,CInstanceBase *> >,0> >::~_Tree<std::_Tmap_traits<unsigned long,CInstanceBase *,std::less<unsigned long>,std::allocator<std::pair<unsigned long const ,CInstanceBase *> >,0> >
PUBLIC	?_Unchecked_begin@?$_Tree@V?$_Tmap_traits@KPAVCInstanceBase@@U?$less@K@std@@V?$allocator@U?$pair@$$CBKPAVCInstanceBase@@@std@@@3@$0A@@std@@@std@@QAE?AV?$_Tree_unchecked_iterator@V?$_Tree_val@U?$_Tree_simple_types@U?$pair@$$CBKPAVCInstanceBase@@@std@@@std@@@std@@@2@XZ ; std::_Tree<std::_Tmap_traits<unsigned long,CInstanceBase *,std::less<unsigned long>,std::allocator<std::pair<unsigned long const ,CInstanceBase *> >,0> >::_Unchecked_begin
PUBLIC	?_Unchecked_end@?$_Tree@V?$_Tmap_traits@KPAVCInstanceBase@@U?$less@K@std@@V?$allocator@U?$pair@$$CBKPAVCInstanceBase@@@std@@@3@$0A@@std@@@std@@QBE?AU_Default_sentinel@2@XZ ; std::_Tree<std::_Tmap_traits<unsigned long,CInstanceBase *,std::less<unsigned long>,std::allocator<std::pair<unsigned long const ,CInstanceBase *> >,0> >::_Unchecked_end
PUBLIC	?size@?$_Tree@V?$_Tmap_traits@KPAVCInstanceBase@@U?$less@K@std@@V?$allocator@U?$pair@$$CBKPAVCInstanceBase@@@std@@@3@$0A@@std@@@std@@QBEIXZ ; std::_Tree<std::_Tmap_traits<unsigned long,CInstanceBase *,std::less<unsigned long>,std::allocator<std::pair<unsigned long const ,CInstanceBase *> >,0> >::size
PUBLIC	?clear@?$_Tree@V?$_Tmap_traits@KPAVCInstanceBase@@U?$less@K@std@@V?$allocator@U?$pair@$$CBKPAVCInstanceBase@@@std@@@3@$0A@@std@@@std@@QAEXXZ ; std::_Tree<std::_Tmap_traits<unsigned long,CInstanceBase *,std::less<unsigned long>,std::allocator<std::pair<unsigned long const ,CInstanceBase *> >,0> >::clear
PUBLIC	?find@?$_Tree@V?$_Tmap_traits@KPAVCInstanceBase@@U?$less@K@std@@V?$allocator@U?$pair@$$CBKPAVCInstanceBase@@@std@@@3@$0A@@std@@@std@@QAE?AV?$_Tree_iterator@V?$_Tree_val@U?$_Tree_simple_types@U?$pair@$$CBKPAVCInstanceBase@@@std@@@std@@@std@@@2@ABK@Z ; std::_Tree<std::_Tmap_traits<unsigned long,CInstanceBase *,std::less<unsigned long>,std::allocator<std::pair<unsigned long const ,CInstanceBase *> >,0> >::find
PUBLIC	??E?$_Tree_iterator@V?$_Tree_val@U?$_Tree_simple_types@U?$pair@$$CBKPAVCInstanceBase@@@std@@@std@@@std@@@std@@QAE?AV01@H@Z ; std::_Tree_iterator<std::_Tree_val<std::_Tree_simple_types<std::pair<unsigned long const ,CInstanceBase *> > > >::operator++
PUBLIC	??8?$_Tree_unchecked_const_iterator@V?$_Tree_val@U?$_Tree_simple_types@U?$pair@$$CBKPAVCInstanceBase@@@std@@@std@@@std@@U_Iterator_base0@2@@std@@QBE_NU_Default_sentinel@1@@Z ; std::_Tree_unchecked_const_iterator<std::_Tree_val<std::_Tree_simple_types<std::pair<unsigned long const ,CInstanceBase *> > >,std::_Iterator_base0>::operator==
PUBLIC	??D?$_Tree_unchecked_iterator@V?$_Tree_val@U?$_Tree_simple_types@U?$pair@$$CBKPAVCInstanceBase@@@std@@@std@@@std@@@std@@QBEAAU?$pair@$$CBKPAVCInstanceBase@@@1@XZ ; std::_Tree_unchecked_iterator<std::_Tree_val<std::_Tree_simple_types<std::pair<unsigned long const ,CInstanceBase *> > > >::operator*
PUBLIC	??E?$_Tree_unchecked_iterator@V?$_Tree_val@U?$_Tree_simple_types@U?$pair@$$CBKPAVCInstanceBase@@@std@@@std@@@std@@@std@@QAEAAV01@XZ ; std::_Tree_unchecked_iterator<std::_Tree_val<std::_Tree_simple_types<std::pair<unsigned long const ,CInstanceBase *> > > >::operator++
PUBLIC	??D?$_List_iterator@V?$_List_val@U?$_List_simple_types@PAVCInstanceBase@@@std@@@std@@@std@@QBEAAPAVCInstanceBase@@XZ ; std::_List_iterator<std::_List_val<std::_List_simple_types<CInstanceBase *> > >::operator*
PUBLIC	??E?$_List_iterator@V?$_List_val@U?$_List_simple_types@PAVCInstanceBase@@@std@@@std@@@std@@QAEAAV01@XZ ; std::_List_iterator<std::_List_val<std::_List_simple_types<CInstanceBase *> > >::operator++
PUBLIC	??8?$_List_const_iterator@V?$_List_val@U?$_List_simple_types@PAVCInstanceBase@@@std@@@std@@@std@@QBE_NABV01@@Z ; std::_List_const_iterator<std::_List_val<std::_List_simple_types<CInstanceBase *> > >::operator==
PUBLIC	??0?$_List_unchecked_const_iterator@V?$_List_val@U?$_List_simple_types@PAVCInstanceBase@@@std@@@std@@U_Iterator_base0@2@@std@@QAE@XZ ; std::_List_unchecked_const_iterator<std::_List_val<std::_List_simple_types<CInstanceBase *> >,std::_Iterator_base0>::_List_unchecked_const_iterator<std::_List_val<std::_List_simple_types<CInstanceBase *> >,std::_Iterator_base0>
PUBLIC	??D?$_Vector_iterator@V?$_Vector_val@U?$_Simple_types@PAVCInstanceBase@@@std@@@std@@@std@@QBEAAPAVCInstanceBase@@XZ ; std::_Vector_iterator<std::_Vector_val<std::_Simple_types<CInstanceBase *> > >::operator*
PUBLIC	??E?$_Vector_iterator@V?$_Vector_val@U?$_Simple_types@PAVCInstanceBase@@@std@@@std@@@std@@QAEAAV01@XZ ; std::_Vector_iterator<std::_Vector_val<std::_Simple_types<CInstanceBase *> > >::operator++
PUBLIC	??0?$_Vector_const_iterator@V?$_Vector_val@U?$_Simple_types@PAVCInstanceBase@@@std@@@std@@@std@@QAE@XZ ; std::_Vector_const_iterator<std::_Vector_val<std::_Simple_types<CInstanceBase *> > >::_Vector_const_iterator<std::_Vector_val<std::_Simple_types<CInstanceBase *> > >
PUBLIC	??8?$_Vector_const_iterator@V?$_Vector_val@U?$_Simple_types@PAVCInstanceBase@@@std@@@std@@@std@@QBE_NABV01@@Z ; std::_Vector_const_iterator<std::_Vector_val<std::_Simple_types<CInstanceBase *> > >::operator==
PUBLIC	??0?$vector@U?$pair@PAVCInstanceBase@@M@std@@V?$allocator@U?$pair@PAVCInstanceBase@@M@std@@@2@@std@@QAE@XZ ; std::vector<std::pair<CInstanceBase *,float>,std::allocator<std::pair<CInstanceBase *,float> > >::vector<std::pair<CInstanceBase *,float>,std::allocator<std::pair<CInstanceBase *,float> > >
PUBLIC	??1?$vector@U?$pair@PAVCInstanceBase@@M@std@@V?$allocator@U?$pair@PAVCInstanceBase@@M@std@@@2@@std@@QAE@XZ ; std::vector<std::pair<CInstanceBase *,float>,std::allocator<std::pair<CInstanceBase *,float> > >::~vector<std::pair<CInstanceBase *,float>,std::allocator<std::pair<CInstanceBase *,float> > >
PUBLIC	?begin@?$vector@U?$pair@PAVCInstanceBase@@M@std@@V?$allocator@U?$pair@PAVCInstanceBase@@M@std@@@2@@std@@QAE?AV?$_Vector_iterator@V?$_Vector_val@U?$_Simple_types@U?$pair@PAVCInstanceBase@@M@std@@@std@@@std@@@2@XZ ; std::vector<std::pair<CInstanceBase *,float>,std::allocator<std::pair<CInstanceBase *,float> > >::begin
PUBLIC	??0?$_Vector_iterator@V?$_Vector_val@U?$_Simple_types@U?$pair@PAVCInstanceBase@@M@std@@@std@@@std@@@std@@QAE@PAU?$pair@PAVCInstanceBase@@M@1@PBU_Container_base0@1@@Z ; std::_Vector_iterator<std::_Vector_val<std::_Simple_types<std::pair<CInstanceBase *,float> > > >::_Vector_iterator<std::_Vector_val<std::_Simple_types<std::pair<CInstanceBase *,float> > > >
PUBLIC	?end@?$vector@U?$pair@PAVCInstanceBase@@M@std@@V?$allocator@U?$pair@PAVCInstanceBase@@M@std@@@2@@std@@QAE?AV?$_Vector_iterator@V?$_Vector_val@U?$_Simple_types@U?$pair@PAVCInstanceBase@@M@std@@@std@@@std@@@2@XZ ; std::vector<std::pair<CInstanceBase *,float>,std::allocator<std::pair<CInstanceBase *,float> > >::end
PUBLIC	??A?$vector@U?$pair@PAVCInstanceBase@@M@std@@V?$allocator@U?$pair@PAVCInstanceBase@@M@std@@@2@@std@@QAEAAU?$pair@PAVCInstanceBase@@M@1@I@Z ; std::vector<std::pair<CInstanceBase *,float>,std::allocator<std::pair<CInstanceBase *,float> > >::operator[]
PUBLIC	??$_Pass_fn@P6A_NABU?$pair@PAVCInstanceBase@@M@std@@0@Z@std@@YA?A_PAAP6A_NABU?$pair@PAVCInstanceBase@@M@0@0@Z@Z ; std::_Pass_fn<bool (__cdecl*)(std::pair<CInstanceBase *,float> const &,std::pair<CInstanceBase *,float> const &)>
PUBLIC	?_Unwrapped@?$_Vector_iterator@V?$_Vector_val@U?$_Simple_types@U?$pair@PAVCInstanceBase@@M@std@@@std@@@std@@@std@@QBEPAU?$pair@PAVCInstanceBase@@M@2@XZ ; std::_Vector_iterator<std::_Vector_val<std::_Simple_types<std::pair<CInstanceBase *,float> > > >::_Unwrapped
PUBLIC	??$_Get_unwrapped@ABV?$_Vector_iterator@V?$_Vector_val@U?$_Simple_types@U?$pair@PAVCInstanceBase@@M@std@@@std@@@std@@@std@@@std@@YA?A_TABV?$_Vector_iterator@V?$_Vector_val@U?$_Simple_types@U?$pair@PAVCInstanceBase@@M@std@@@std@@@std@@@0@@Z ; std::_Get_unwrapped<std::_Vector_iterator<std::_Vector_val<std::_Simple_types<std::pair<CInstanceBase *,float> > > > const &>
PUBLIC	??$sort@V?$_Vector_iterator@V?$_Vector_val@U?$_Simple_types@U?$pair@PAVCInstanceBase@@M@std@@@std@@@std@@@std@@P6A_NABU?$pair@PAVCInstanceBase@@M@2@0@Z@std@@YAXV?$_Vector_iterator@V?$_Vector_val@U?$_Simple_types@U?$pair@PAVCInstanceBase@@M@std@@@std@@@std@@@0@0P6A_NABU?$pair@PAVCInstanceBase@@M@0@1@Z@Z ; std::sort<std::_Vector_iterator<std::_Vector_val<std::_Simple_types<std::pair<CInstanceBase *,float> > > >,bool (__cdecl*)(std::pair<CInstanceBase *,float> const &,std::pair<CInstanceBase *,float> const &)>
PUBLIC	??$emplace_back@AAPAVCInstanceBase@@ABM@?$vector@U?$pair@PAVCInstanceBase@@M@std@@V?$allocator@U?$pair@PAVCInstanceBase@@M@std@@@2@@std@@QAEAAU?$pair@PAVCInstanceBase@@M@1@AAPAVCInstanceBase@@ABM@Z ; std::vector<std::pair<CInstanceBase *,float>,std::allocator<std::pair<CInstanceBase *,float> > >::emplace_back<CInstanceBase * &,float const &>
PUBLIC	??$emplace_back@AAPAVCInstanceBase@@@?$vector@PAVCInstanceBase@@V?$allocator@PAVCInstanceBase@@@std@@@std@@QAEAAPAVCInstanceBase@@AAPAV2@@Z ; std::vector<CInstanceBase *,std::allocator<CInstanceBase *> >::emplace_back<CInstanceBase * &>
PUBLIC	??$for_each@V?$_List_iterator@V?$_List_val@U?$_List_simple_types@PAVCInstanceBase@@@std@@@std@@@std@@P6AXPAVCInstanceBase@@@Z@std@@YAP6AXPAVCInstanceBase@@@ZV?$_List_iterator@V?$_List_val@U?$_List_simple_types@PAVCInstanceBase@@@std@@@std@@@0@1P6AX0@Z@Z ; std::for_each<std::_List_iterator<std::_List_val<std::_List_simple_types<CInstanceBase *> > >,void (__cdecl*)(CInstanceBase *)>
PUBLIC	??$find@V?$_Vector_iterator@V?$_Vector_val@U?$_Simple_types@PAVCInstanceBase@@@std@@@std@@@std@@PAVCInstanceBase@@@std@@YA?AV?$_Vector_iterator@V?$_Vector_val@U?$_Simple_types@PAVCInstanceBase@@@std@@@std@@@0@V10@V10@ABQAVCInstanceBase@@@Z ; std::find<std::_Vector_iterator<std::_Vector_val<std::_Simple_types<CInstanceBase *> > >,CInstanceBase *>
PUBLIC	??$_Pass_fn@UCInstanceBase_SLessCameraDistance@@@std@@YA?A_PAAUCInstanceBase_SLessCameraDistance@@@Z ; std::_Pass_fn<CInstanceBase_SLessCameraDistance>
PUBLIC	??$sort@V?$_Vector_iterator@V?$_Vector_val@U?$_Simple_types@PAVCInstanceBase@@@std@@@std@@@std@@UCInstanceBase_SLessCameraDistance@@@std@@YAXV?$_Vector_iterator@V?$_Vector_val@U?$_Simple_types@PAVCInstanceBase@@@std@@@std@@@0@0UCInstanceBase_SLessCameraDistance@@@Z ; std::sort<std::_Vector_iterator<std::_Vector_val<std::_Simple_types<CInstanceBase *> > >,CInstanceBase_SLessCameraDistance>
PUBLIC	??$insert@$0A@$0A@@?$_Tree@V?$_Tmap_traits@KPAVCInstanceBase@@U?$less@K@std@@V?$allocator@U?$pair@$$CBKPAVCInstanceBase@@@std@@@3@$0A@@std@@@std@@QAE?AU?$pair@V?$_Tree_iterator@V?$_Tree_val@U?$_Tree_simple_types@U?$pair@$$CBKPAVCInstanceBase@@@std@@@std@@@std@@@std@@_N@1@$$QAU?$pair@$$CBKPAVCInstanceBase@@@1@@Z ; std::_Tree<std::_Tmap_traits<unsigned long,CInstanceBase *,std::less<unsigned long>,std::allocator<std::pair<unsigned long const ,CInstanceBase *> >,0> >::insert<0,0>
PUBLIC	??$?0AAKAAPAVCInstanceBase@@$0A@@?$pair@$$CBKPAVCInstanceBase@@@std@@QAE@AAKAAPAVCInstanceBase@@@Z ; std::pair<unsigned long const ,CInstanceBase *>::pair<unsigned long const ,CInstanceBase *><unsigned long &,CInstanceBase * &,0>
PUBLIC	??$for_each@V?$_Tree_iterator@V?$_Tree_val@U?$_Tree_simple_types@U?$pair@$$CBKPAVCInstanceBase@@@std@@@std@@@std@@@std@@UFCharacterManagerCharacterInstanceRenderCollision@@@std@@YA?AUFCharacterManagerCharacterInstanceRenderCollision@@V?$_Tree_iterator@V?$_Tree_val@U?$_Tree_simple_types@U?$pair@$$CBKPAVCInstanceBase@@@std@@@std@@@std@@@0@0U1@@Z ; std::for_each<std::_Tree_iterator<std::_Tree_val<std::_Tree_simple_types<std::pair<unsigned long const ,CInstanceBase *> > > >,FCharacterManagerCharacterInstanceRenderCollision>
PUBLIC	??$for_each@V?$_Tree_iterator@V?$_Tree_val@U?$_Tree_simple_types@U?$pair@$$CBKPAVCInstanceBase@@@std@@@std@@@std@@@std@@UFCharacterManagerCharacterInstanceRenderToShadowMap@@@std@@YA?AUFCharacterManagerCharacterInstanceRenderToShadowMap@@V?$_Tree_iterator@V?$_Tree_val@U?$_Tree_simple_types@U?$pair@$$CBKPAVCInstanceBase@@@std@@@std@@@std@@@0@0U1@@Z ; std::for_each<std::_Tree_iterator<std::_Tree_val<std::_Tree_simple_types<std::pair<unsigned long const ,CInstanceBase *> > > >,FCharacterManagerCharacterInstanceRenderToShadowMap>
PUBLIC	??$for_each@V?$_Vector_iterator@V?$_Vector_val@U?$_Simple_types@PAVCInstanceBase@@@std@@@std@@@std@@UFCharacterInstanceRenderTrace@@@std@@YA?AUFCharacterInstanceRenderTrace@@V?$_Vector_iterator@V?$_Vector_val@U?$_Simple_types@PAVCInstanceBase@@@std@@@std@@@0@0U1@@Z ; std::for_each<std::_Vector_iterator<std::_Vector_val<std::_Simple_types<CInstanceBase *> > >,FCharacterInstanceRenderTrace>
PUBLIC	??$_Get_unwrapped@AAV?$_Vector_iterator@V?$_Vector_val@U?$_Simple_types@PAVCInstanceBase@@@std@@@std@@@std@@@std@@YA?A_TAAV?$_Vector_iterator@V?$_Vector_val@U?$_Simple_types@PAVCInstanceBase@@@std@@@std@@@0@@Z ; std::_Get_unwrapped<std::_Vector_iterator<std::_Vector_val<std::_Simple_types<CInstanceBase *> > > &>
PUBLIC	??$for_each@V?$_Vector_iterator@V?$_Vector_val@U?$_Simple_types@PAVCInstanceBase@@@std@@@std@@@std@@UFCharacterInstanceRender@@@std@@YA?AUFCharacterInstanceRender@@V?$_Vector_iterator@V?$_Vector_val@U?$_Simple_types@PAVCInstanceBase@@@std@@@std@@@0@0U1@@Z ; std::for_each<std::_Vector_iterator<std::_Vector_val<std::_Simple_types<CInstanceBase *> > >,FCharacterInstanceRender>
PUBLIC	??$_Pass_fn@ULessCharacterInstancePtrRenderOrder@@@std@@YA?A_PAAULessCharacterInstancePtrRenderOrder@@@Z ; std::_Pass_fn<LessCharacterInstancePtrRenderOrder>
PUBLIC	??$_Get_unwrapped@ABV?$_Vector_iterator@V?$_Vector_val@U?$_Simple_types@PAVCInstanceBase@@@std@@@std@@@std@@@std@@YA?A_TABV?$_Vector_iterator@V?$_Vector_val@U?$_Simple_types@PAVCInstanceBase@@@std@@@std@@@0@@Z ; std::_Get_unwrapped<std::_Vector_iterator<std::_Vector_val<std::_Simple_types<CInstanceBase *> > > const &>
PUBLIC	??$sort@V?$_Vector_iterator@V?$_Vector_val@U?$_Simple_types@PAVCInstanceBase@@@std@@@std@@@std@@ULessCharacterInstancePtrRenderOrder@@@std@@YAXV?$_Vector_iterator@V?$_Vector_val@U?$_Simple_types@PAVCInstanceBase@@@std@@@std@@@0@0ULessCharacterInstancePtrRenderOrder@@@Z ; std::sort<std::_Vector_iterator<std::_Vector_val<std::_Simple_types<CInstanceBase *> > >,LessCharacterInstancePtrRenderOrder>
PUBLIC	??$_Get_unwrapped@AAV?$_List_iterator@V?$_List_val@U?$_List_simple_types@PAVCInstanceBase@@@std@@@std@@@std@@@std@@YA?A_TAAV?$_List_iterator@V?$_List_val@U?$_List_simple_types@PAVCInstanceBase@@@std@@@std@@@0@@Z ; std::_Get_unwrapped<std::_List_iterator<std::_List_val<std::_List_simple_types<CInstanceBase *> > > &>
PUBLIC	??$for_each@V?$_List_iterator@V?$_List_val@U?$_List_simple_types@PAVCInstanceBase@@@std@@@std@@@std@@UFCharacterManagerCharacterInstanceListDeform@@@std@@YA?AUFCharacterManagerCharacterInstanceListDeform@@V?$_List_iterator@V?$_List_val@U?$_List_simple_types@PAVCInstanceBase@@@std@@@std@@@0@0U1@@Z ; std::for_each<std::_List_iterator<std::_List_val<std::_List_simple_types<CInstanceBase *> > >,FCharacterManagerCharacterInstanceListDeform>
PUBLIC	??$_Get_unwrapped@AAV?$_Tree_iterator@V?$_Tree_val@U?$_Tree_simple_types@U?$pair@$$CBKPAVCInstanceBase@@@std@@@std@@@std@@@std@@@std@@YA?A_TAAV?$_Tree_iterator@V?$_Tree_val@U?$_Tree_simple_types@U?$pair@$$CBKPAVCInstanceBase@@@std@@@std@@@std@@@0@@Z ; std::_Get_unwrapped<std::_Tree_iterator<std::_Tree_val<std::_Tree_simple_types<std::pair<unsigned long const ,CInstanceBase *> > > > &>
PUBLIC	??$for_each@V?$_Tree_iterator@V?$_Tree_val@U?$_Tree_simple_types@U?$pair@$$CBKPAVCInstanceBase@@@std@@@std@@@std@@@std@@UFCharacterManagerCharacterInstanceDeform@@@std@@YA?AUFCharacterManagerCharacterInstanceDeform@@V?$_Tree_iterator@V?$_Tree_val@U?$_Tree_simple_types@U?$pair@$$CBKPAVCInstanceBase@@@std@@@std@@@std@@@0@0U1@@Z ; std::for_each<std::_Tree_iterator<std::_Tree_val<std::_Tree_simple_types<std::pair<unsigned long const ,CInstanceBase *> > > >,FCharacterManagerCharacterInstanceDeform>
PUBLIC	??$erase@V?$_Tree_iterator@V?$_Tree_val@U?$_Tree_simple_types@U?$pair@$$CBKPAVCInstanceBase@@@std@@@std@@@std@@@std@@$0A@@?$_Tree@V?$_Tmap_traits@KPAVCInstanceBase@@U?$less@K@std@@V?$allocator@U?$pair@$$CBKPAVCInstanceBase@@@std@@@3@$0A@@std@@@std@@QAE?AV?$_Tree_iterator@V?$_Tree_val@U?$_Tree_simple_types@U?$pair@$$CBKPAVCInstanceBase@@@std@@@std@@@std@@@1@V21@@Z ; std::_Tree<std::_Tmap_traits<unsigned long,CInstanceBase *,std::less<unsigned long>,std::allocator<std::pair<unsigned long const ,CInstanceBase *> >,0> >::erase<std::_Tree_iterator<std::_Tree_val<std::_Tree_simple_types<std::pair<unsigned long const ,CInstanceBase *> > > >,0>
PUBLIC	?size@?$vector@U?$pair@PAVCInstanceBase@@M@std@@V?$allocator@U?$pair@PAVCInstanceBase@@M@std@@@2@@std@@QBEIXZ ; std::vector<std::pair<CInstanceBase *,float>,std::allocator<std::pair<CInstanceBase *,float> > >::size
PUBLIC	?FindVictim@CPythonCharacterManager@@QAEPAVCInstanceBase@@PAV2@MPAUD3DXVECTOR3@@_N2@Z ; CPythonCharacterManager::FindVictim
PUBLIC	?CanAttackToTarget@CPythonCharacterManager@@QAE_NPAVCInstanceBase@@0@Z ; CPythonCharacterManager::CanAttackToTarget
PUBLIC	?FindLowerDistance@@YA_NABU?$pair@PAVCInstanceBase@@M@std@@0@Z ; FindLowerDistance
PUBLIC	?GetMobWithVnum@CPythonCharacterManager@@QAEXKAAV?$vector@PAVCInstanceBase@@V?$allocator@PAVCInstanceBase@@@std@@@std@@@Z ; CPythonCharacterManager::GetMobWithVnum
PUBLIC	??1?$map@KPAVCInstanceBase@@U?$less@K@std@@V?$allocator@U?$pair@$$CBKPAVCInstanceBase@@@std@@@3@@std@@QAE@XZ ; std::map<unsigned long,CInstanceBase *,std::less<unsigned long>,std::allocator<std::pair<unsigned long const ,CInstanceBase *> > >::~map<unsigned long,CInstanceBase *,std::less<unsigned long>,std::allocator<std::pair<unsigned long const ,CInstanceBase *> > >
PUBLIC	??_GCPythonCharacterManager@@UAEPAXI@Z		; CPythonCharacterManager::`scalar deleting destructor'
PUBLIC	?__Initialize@CPythonCharacterManager@@IAEXXZ	; CPythonCharacterManager::__Initialize
PUBLIC	?Destroy@CPythonCharacterManager@@UAEXXZ	; CPythonCharacterManager::Destroy
PUBLIC	?DestroyAliveInstanceMap@CPythonCharacterManager@@QAEXXZ ; CPythonCharacterManager::DestroyAliveInstanceMap
PUBLIC	?RefreshAllPCTextTail@CPythonCharacterManager@@QAEXXZ ; CPythonCharacterManager::RefreshAllPCTextTail
PUBLIC	?PickAll@CPythonCharacterManager@@QAEHXZ	; CPythonCharacterManager::PickAll
PUBLIC	??0?$_Vector_iterator@V?$_Vector_val@U?$_Simple_types@PAVCInstanceBase@@@std@@@std@@@std@@QAE@XZ ; std::_Vector_iterator<std::_Vector_val<std::_Simple_types<CInstanceBase *> > >::_Vector_iterator<std::_Vector_val<std::_Simple_types<CInstanceBase *> > >
PUBLIC	?__NEW_Pick@CPythonCharacterManager@@IAEXXZ	; CPythonCharacterManager::__NEW_Pick
PUBLIC	??0CInstanceBase_SLessCameraDistance@@QAE@XZ	; CInstanceBase_SLessCameraDistance::CInstanceBase_SLessCameraDistance
PUBLIC	?__SortPickedActorList@CPythonCharacterManager@@IAEXXZ ; CPythonCharacterManager::__SortPickedActorList
PUBLIC	??RCInstanceBase_SLessCameraDistance@@QAE_NPAVCInstanceBase@@0@Z ; CInstanceBase_SLessCameraDistance::operator()
PUBLIC	?__UpdatePickedActorList@CPythonCharacterManager@@IAEXXZ ; CPythonCharacterManager::__UpdatePickedActorList
PUBLIC	?__UpdateSortPickedActorList@CPythonCharacterManager@@IAEXXZ ; CPythonCharacterManager::__UpdateSortPickedActorList
PUBLIC	?GetSelectedInstancePtr@CPythonCharacterManager@@QAEPAVCInstanceBase@@XZ ; CPythonCharacterManager::GetSelectedInstancePtr
PUBLIC	?GetInstancePtrByName@CPythonCharacterManager@@QAEPAVCInstanceBase@@PBD@Z ; CPythonCharacterManager::GetInstancePtrByName
PUBLIC	?GetInstancePtr@CPythonCharacterManager@@UAEPAVCInstanceBase@@K@Z ; CPythonCharacterManager::GetInstancePtr
PUBLIC	?SelectInstance@CPythonCharacterManager@@QAEXK@Z ; CPythonCharacterManager::SelectInstance
PUBLIC	?__DeleteBlendOutInstance@CPythonCharacterManager@@IAEXPAVCInstanceBase@@@Z ; CPythonCharacterManager::__DeleteBlendOutInstance
PUBLIC	?RegisterInstance@CPythonCharacterManager@@QAEPAVCInstanceBase@@K@Z ; CPythonCharacterManager::RegisterInstance
PUBLIC	?RenderCollision@CPythonCharacterManager@@QAEXXZ ; CPythonCharacterManager::RenderCollision
PUBLIC	??RFCharacterManagerCharacterInstanceRenderCollision@@QAEXABU?$pair@KPAVCInstanceBase@@@std@@@Z ; FCharacterManagerCharacterInstanceRenderCollision::operator()
PUBLIC	??RFCharacterManagerCharacterInstanceRenderToShadowMap@@QAEXABU?$pair@KPAVCInstanceBase@@@std@@@Z ; FCharacterManagerCharacterInstanceRenderToShadowMap::operator()
PUBLIC	??0?$_List_const_iterator@V?$_List_val@U?$_List_simple_types@PAVCInstanceBase@@@std@@@std@@@std@@QAE@XZ ; std::_List_const_iterator<std::_List_val<std::_List_simple_types<CInstanceBase *> > >::_List_const_iterator<std::_List_val<std::_List_simple_types<CInstanceBase *> > >
PUBLIC	??0?$_List_iterator@V?$_List_val@U?$_List_simple_types@PAVCInstanceBase@@@std@@@std@@@std@@QAE@XZ ; std::_List_iterator<std::_List_val<std::_List_simple_types<CInstanceBase *> > >::_List_iterator<std::_List_val<std::_List_simple_types<CInstanceBase *> > >
PUBLIC	?__RenderSortedDeadActorList@CPythonCharacterManager@@IAEXXZ ; CPythonCharacterManager::__RenderSortedDeadActorList
PUBLIC	?__RenderSortedAliveActorList@CPythonCharacterManager@@IAEXXZ ; CPythonCharacterManager::__RenderSortedAliveActorList
PUBLIC	??RFCharacterInstanceRenderTrace@@QAEXPAVCInstanceBase@@@Z ; FCharacterInstanceRenderTrace::operator()
PUBLIC	??RFCharacterInstanceRender@@QAEXPAVCInstanceBase@@@Z ; FCharacterInstanceRender::operator()
PUBLIC	??RLessCharacterInstancePtrRenderOrder@@QAE_NPAVCInstanceBase@@0@Z ; LessCharacterInstancePtrRenderOrder::operator()
PUBLIC	?IsAliveVID@CPythonCharacterManager@@QAE_NK@Z	; CPythonCharacterManager::IsAliveVID
PUBLIC	?IsRegisteredVID@CPythonCharacterManager@@QAE_NK@Z ; CPythonCharacterManager::IsRegisteredVID
PUBLIC	?OLD_GetPickedInstancePtr@CPythonCharacterManager@@QAEPAVCInstanceBase@@XZ ; CPythonCharacterManager::OLD_GetPickedInstancePtr
PUBLIC	?OLD_GetPickedInstanceVID@CPythonCharacterManager@@QAE_NPAK@Z ; CPythonCharacterManager::OLD_GetPickedInstanceVID
PUBLIC	??RFCharacterManagerCharacterInstanceListDeform@@QAEXPAVCInstanceBase@@@Z ; FCharacterManagerCharacterInstanceListDeform::operator()
PUBLIC	??RFCharacterManagerCharacterInstanceDeform@@QAEXABU?$pair@KPAVCInstanceBase@@@std@@@Z ; FCharacterManagerCharacterInstanceDeform::operator()
PUBLIC	?UpdateDeleting@CPythonCharacterManager@@IAEXXZ	; CPythonCharacterManager::UpdateDeleting
PUBLIC	?UpdateTransform@CPythonCharacterManager@@IAEXXZ ; CPythonCharacterManager::UpdateTransform
PUBLIC	?RegisterPointEffect@CPythonCharacterManager@@QAE_NKPBD@Z ; CPythonCharacterManager::RegisterPointEffect
PUBLIC	?ShowPointEffect@CPythonCharacterManager@@QAEXKK@Z ; CPythonCharacterManager::ShowPointEffect
PUBLIC	?ChangeGVG@CPythonCharacterManager@@QAEXKK@Z	; CPythonCharacterManager::ChangeGVG
PUBLIC	?RemovePVPKey@CPythonCharacterManager@@QAEXKK@Z	; CPythonCharacterManager::RemovePVPKey
PUBLIC	?InsertPVPKey@CPythonCharacterManager@@QAEXKK@Z	; CPythonCharacterManager::InsertPVPKey
PUBLIC	?AdjustCollisionWithOtherObjects@CPythonCharacterManager@@UAEXPAVCActorInstance@@@Z ; CPythonCharacterManager::AdjustCollisionWithOtherObjects
PUBLIC	??_GIObjectManager@@UAEPAXI@Z			; IObjectManager::`scalar deleting destructor'
PUBLIC	??1IObjectManager@@UAE@XZ			; IObjectManager::~IObjectManager
PUBLIC	??0IObjectManager@@QAE@XZ			; IObjectManager::IObjectManager
PUBLIC	?GetPhysicsWorld@IPhysicsWorld@@SAPAV1@XZ	; IPhysicsWorld::GetPhysicsWorld
PUBLIC	??_GIAbstractCharacterManager@@UAEPAXI@Z	; IAbstractCharacterManager::`scalar deleting destructor'
PUBLIC	??1IAbstractCharacterManager@@UAE@XZ		; IAbstractCharacterManager::~IAbstractCharacterManager
PUBLIC	??0IAbstractCharacterManager@@QAE@XZ		; IAbstractCharacterManager::IAbstractCharacterManager
PUBLIC	?RenderShadowMainInstance@CPythonCharacterManager@@QAEXXZ ; CPythonCharacterManager::RenderShadowMainInstance
PUBLIC	?RenderShadowAllInstances@CPythonCharacterManager@@QAEXXZ ; CPythonCharacterManager::RenderShadowAllInstances
PUBLIC	??0CPythonCharacterManager@@QAE@XZ		; CPythonCharacterManager::CPythonCharacterManager
PUBLIC	??1CPythonCharacterManager@@UAE@XZ		; CPythonCharacterManager::~CPythonCharacterManager
PUBLIC	?GetInfo@CPythonCharacterManager@@QAEXPAV?$basic_string@DU?$char_traits@D@std@@V?$allocator@D@2@@std@@@Z ; CPythonCharacterManager::GetInfo
PUBLIC	?Deform@CPythonCharacterManager@@QAEXXZ		; CPythonCharacterManager::Deform
PUBLIC	?Render@CPythonCharacterManager@@QAEXXZ		; CPythonCharacterManager::Render
PUBLIC	?Update@CPythonCharacterManager@@QAEXXZ		; CPythonCharacterManager::Update
PUBLIC	?DeleteAllInstances@CPythonCharacterManager@@QAEXXZ ; CPythonCharacterManager::DeleteAllInstances
PUBLIC	?DeleteInstance@CPythonCharacterManager@@QAEXK@Z ; CPythonCharacterManager::DeleteInstance
PUBLIC	?DestroyDeadInstanceList@CPythonCharacterManager@@QAEXXZ ; CPythonCharacterManager::DestroyDeadInstanceList
PUBLIC	?DeleteInstanceByFade@CPythonCharacterManager@@QAEXK@Z ; CPythonCharacterManager::DeleteInstanceByFade
PUBLIC	?CreateInstance@CPythonCharacterManager@@QAEPAVCInstanceBase@@ABUSCreateData@2@@Z ; CPythonCharacterManager::CreateInstance
PUBLIC	?IsDeadVID@CPythonCharacterManager@@QAE_NK@Z	; CPythonCharacterManager::IsDeadVID
PUBLIC	?SetMainInstance@CPythonCharacterManager@@QAE_NK@Z ; CPythonCharacterManager::SetMainInstance
PUBLIC	?GetMainInstancePtr@CPythonCharacterManager@@QAEPAVCInstanceBase@@XZ ; CPythonCharacterManager::GetMainInstancePtr
PUBLIC	?ClearMainInstance@CPythonCharacterManager@@QAEXXZ ; CPythonCharacterManager::ClearMainInstance
PUBLIC	?RefreshAllGuildMark@CPythonCharacterManager@@QAEXXZ ; CPythonCharacterManager::RefreshAllGuildMark
EXTRN	??_EIAbstractCharacterManager@@UAEPAXI@Z:PROC	; IAbstractCharacterManager::`vector deleting destructor'
EXTRN	??_E?$TAbstractSingleton@VIAbstractCharacterManager@@@@UAEPAXI@Z:PROC ; TAbstractSingleton<IAbstractCharacterManager>::`vector deleting destructor'
EXTRN	??_EIObjectManager@@UAEPAXI@Z:PROC		; IObjectManager::`vector deleting destructor'
EXTRN	??_ECPythonCharacterManager@@UAEPAXI@Z:PROC	; CPythonCharacterManager::`vector deleting destructor'
EXTRN	??_E?$CSingleton@VCPythonCharacterManager@@@@UAEPAXI@Z:PROC ; CSingleton<CPythonCharacterManager>::`vector deleting destructor'
;	COMDAT ?$TSS0@?1??__RenderSortedAliveActorList@CPythonCharacterManager@@IAEXXZ@4HA
_BSS	SEGMENT
?$TSS0@?1??__RenderSortedAliveActorList@CPythonCharacterManager@@IAEXXZ@4HA DD 01H DUP (?) ; `CPythonCharacterManager::__RenderSortedAliveActorList'::`2'::$TSS0
_BSS	ENDS
;	COMDAT ?$TSS0@?1??__RenderSortedDeadActorList@CPythonCharacterManager@@IAEXXZ@4HA
_BSS	SEGMENT
?$TSS0@?1??__RenderSortedDeadActorList@CPythonCharacterManager@@IAEXXZ@4HA DD 01H DUP (?) ; `CPythonCharacterManager::__RenderSortedDeadActorList'::`2'::$TSS0
_BSS	ENDS
;	COMDAT xdata$x
xdata$x	SEGMENT
__ehfuncinfo$??1CPythonCharacterManager@@UAE@XZ DQ 00000000019930522r ; 2.11987e-315
	DQ	00000000000000000r		; 0
	DQ	00000000000000000r		; 0
	DQ	00000000000000000r		; 0
	DD	05H
xdata$x	ENDS
;	COMDAT xdata$x
xdata$x	SEGMENT
__ehfuncinfo$??0CPythonCharacterManager@@QAE@XZ DQ 00000000419930522r ; 8.69997e-314
	DD	FLAT:__unwindtable$??0CPythonCharacterManager@@QAE@XZ
	DQ	00000000000000000r		; 0
	DQ	00000000000000000r		; 0
	DQ	00000000100000000r		; 2.122e-314
__unwindtable$??0CPythonCharacterManager@@QAE@XZ DD 0ffffffffH
	DD	FLAT:__unwindfunclet$??0CPythonCharacterManager@@QAE@XZ$0
	DD	00H
	DD	FLAT:__unwindfunclet$??0CPythonCharacterManager@@QAE@XZ$1
	DD	01H
	DD	FLAT:__unwindfunclet$??0CPythonCharacterManager@@QAE@XZ$2
	DD	02H
	DD	FLAT:__unwindfunclet$??0CPythonCharacterManager@@QAE@XZ$3
xdata$x	ENDS
;	COMDAT xdata$x
xdata$x	SEGMENT
__ehfuncinfo$?RegisterInstance@CPythonCharacterManager@@QAEPAVCInstanceBase@@K@Z DQ 00000000119930522r ; 2.33398e-314
	DD	FLAT:__unwindtable$?RegisterInstance@CPythonCharacterManager@@QAEPAVCInstanceBase@@K@Z
	DQ	00000000000000000r		; 0
	DQ	00000000000000000r		; 0
	DQ	00000000100000000r		; 2.122e-314
__unwindtable$?RegisterInstance@CPythonCharacterManager@@QAEPAVCInstanceBase@@K@Z DD 0ffffffffH
	DD	FLAT:__unwindfunclet$?RegisterInstance@CPythonCharacterManager@@QAEPAVCInstanceBase@@K@Z$2
xdata$x	ENDS
;	COMDAT xdata$x
xdata$x	SEGMENT
__ehfuncinfo$?__DeleteBlendOutInstance@CPythonCharacterManager@@IAEXPAVCInstanceBase@@@Z DD 019930522H
	DD	01H
	DD	FLAT:__unwindtable$?__DeleteBlendOutInstance@CPythonCharacterManager@@IAEXPAVCInstanceBase@@@Z
	DD	2 DUP(00H)
	DD	2 DUP(00H)
	DD	00H
	DD	01H
__unwindtable$?__DeleteBlendOutInstance@CPythonCharacterManager@@IAEXPAVCInstanceBase@@@Z DD 0ffffffffH
	DD	FLAT:__unwindfunclet$?__DeleteBlendOutInstance@CPythonCharacterManager@@IAEXPAVCInstanceBase@@@Z$1
xdata$x	ENDS
;	COMDAT xdata$x
xdata$x	SEGMENT
__ehfuncinfo$?FindVictim@CPythonCharacterManager@@QAEPAVCInstanceBase@@PAV2@MPAUD3DXVECTOR3@@_N2@Z DD 019930522H
	DD	01H
	DD	FLAT:__unwindtable$?FindVictim@CPythonCharacterManager@@QAEPAVCInstanceBase@@PAV2@MPAUD3DXVECTOR3@@_N2@Z
	DD	2 DUP(00H)
	DD	2 DUP(00H)
	DD	00H
	DD	01H
__unwindtable$?FindVictim@CPythonCharacterManager@@QAEPAVCInstanceBase@@PAV2@MPAUD3DXVECTOR3@@_N2@Z DD 0ffffffffH
	DD	FLAT:__unwindfunclet$?FindVictim@CPythonCharacterManager@@QAEPAVCInstanceBase@@PAV2@MPAUD3DXVECTOR3@@_N2@Z$0
xdata$x	ENDS
;	COMDAT xdata$x
xdata$x	SEGMENT
__ehfuncinfo$??$insert@$0A@$0A@@?$_Tree@V?$_Tmap_traits@KPAVCInstanceBase@@U?$less@K@std@@V?$allocator@U?$pair@$$CBKPAVCInstanceBase@@@std@@@3@$0A@@std@@@std@@QAE?AU?$pair@V?$_Tree_iterator@V?$_Tree_val@U?$_Tree_simple_types@U?$pair@$$CBKPAVCInstanceBase@@@std@@@std@@@std@@@std@@_N@1@$$QAU?$pair@$$CBKPAVCInstanceBase@@@1@@Z DQ 00000000119930522r ; 2.33398e-314
	DD	FLAT:__unwindtable$??$insert@$0A@$0A@@?$_Tree@V?$_Tmap_traits@KPAVCInstanceBase@@U?$less@K@std@@V?$allocator@U?$pair@$$CBKPAVCInstanceBase@@@std@@@3@$0A@@std@@@std@@QAE?AU?$pair@V?$_Tree_iterator@V?$_Tree_val@U?$_Tree_simple_types@U?$pair@$$CBKPAVCInstanceBase@@@std@@@std@@@std@@@std@@_N@1@$$QAU?$pair@$$CBKPAVCInstanceBase@@@1@@Z
	DQ	00000000000000000r		; 0
	DQ	00000000000000000r		; 0
	DQ	00000000100000000r		; 2.122e-314
__unwindtable$??$insert@$0A@$0A@@?$_Tree@V?$_Tmap_traits@KPAVCInstanceBase@@U?$less@K@std@@V?$allocator@U?$pair@$$CBKPAVCInstanceBase@@@std@@@3@$0A@@std@@@std@@QAE?AU?$pair@V?$_Tree_iterator@V?$_Tree_val@U?$_Tree_simple_types@U?$pair@$$CBKPAVCInstanceBase@@@std@@@std@@@std@@@std@@_N@1@$$QAU?$pair@$$CBKPAVCInstanceBase@@@1@@Z DD 0ffffffffH
	DD	FLAT:__unwindfunclet$??$insert@$0A@$0A@@?$_Tree@V?$_Tmap_traits@KPAVCInstanceBase@@U?$less@K@std@@V?$allocator@U?$pair@$$CBKPAVCInstanceBase@@@std@@@3@$0A@@std@@@std@@QAE?AU?$pair@V?$_Tree_iterator@V?$_Tree_val@U?$_Tree_simple_types@U?$pair@$$CBKPAVCInstanceBase@@@std@@@std@@@std@@@std@@_N@1@$$QAU?$pair@$$CBKPAVCInstanceBase@@@1@@Z$2
xdata$x	ENDS
;	COMDAT xdata$x
xdata$x	SEGMENT
__ehfuncinfo$?push_back@?$list@PAVCInstanceBase@@V?$allocator@PAVCInstanceBase@@@std@@@std@@QAEXABQAVCInstanceBase@@@Z DQ 00000000119930522r ; 2.33398e-314
	DD	FLAT:__unwindtable$?push_back@?$list@PAVCInstanceBase@@V?$allocator@PAVCInstanceBase@@@std@@@std@@QAEXABQAVCInstanceBase@@@Z
	DQ	00000000000000000r		; 0
	DQ	00000000000000000r		; 0
	DQ	00000000100000000r		; 2.122e-314
__unwindtable$?push_back@?$list@PAVCInstanceBase@@V?$allocator@PAVCInstanceBase@@@std@@@std@@QAEXABQAVCInstanceBase@@@Z DD 0ffffffffH
	DD	FLAT:__unwindfunclet$?push_back@?$list@PAVCInstanceBase@@V?$allocator@PAVCInstanceBase@@@std@@@std@@QAEXABQAVCInstanceBase@@@Z$1
xdata$x	ENDS
;	COMDAT xdata$x
xdata$x	SEGMENT
__ehfuncinfo$??$_Emplace@U?$pair@$$CBKPAVCInstanceBase@@@std@@@?$_Tree@V?$_Tmap_traits@KPAVCInstanceBase@@U?$less@K@std@@V?$allocator@U?$pair@$$CBKPAVCInstanceBase@@@std@@@3@$0A@@std@@@std@@IAE?AU?$pair@PAU?$_Tree_node@U?$pair@$$CBKPAVCInstanceBase@@@std@@PAX@std@@_N@1@$$QAU?$pair@$$CBKPAVCInstanceBase@@@1@@Z DD 019930522H
	DD	01H
	DD	FLAT:__unwindtable$??$_Emplace@U?$pair@$$CBKPAVCInstanceBase@@@std@@@?$_Tree@V?$_Tmap_traits@KPAVCInstanceBase@@U?$less@K@std@@V?$allocator@U?$pair@$$CBKPAVCInstanceBase@@@std@@@3@$0A@@std@@@std@@IAE?AU?$pair@PAU?$_Tree_node@U?$pair@$$CBKPAVCInstanceBase@@@std@@PAX@std@@_N@1@$$QAU?$pair@$$CBKPAVCInstanceBase@@@1@@Z
	DD	2 DUP(00H)
	DD	2 DUP(00H)
	DD	00H
	DD	01H
__unwindtable$??$_Emplace@U?$pair@$$CBKPAVCInstanceBase@@@std@@@?$_Tree@V?$_Tmap_traits@KPAVCInstanceBase@@U?$less@K@std@@V?$allocator@U?$pair@$$CBKPAVCInstanceBase@@@std@@@3@$0A@@std@@@std@@IAE?AU?$pair@PAU?$_Tree_node@U?$pair@$$CBKPAVCInstanceBase@@@std@@PAX@std@@_N@1@$$QAU?$pair@$$CBKPAVCInstanceBase@@@1@@Z DD 0ffffffffH
	DD	FLAT:__unwindfunclet$??$_Emplace@U?$pair@$$CBKPAVCInstanceBase@@@std@@@?$_Tree@V?$_Tmap_traits@KPAVCInstanceBase@@U?$less@K@std@@V?$allocator@U?$pair@$$CBKPAVCInstanceBase@@@std@@@3@$0A@@std@@@std@@IAE?AU?$pair@PAU?$_Tree_node@U?$pair@$$CBKPAVCInstanceBase@@@std@@PAX@std@@_N@1@$$QAU?$pair@$$CBKPAVCInstanceBase@@@1@@Z$2
xdata$x	ENDS
;	COMDAT xdata$x
xdata$x	SEGMENT
__ehfuncinfo$??$_Emplace@ABQAVCInstanceBase@@@?$list@PAVCInstanceBase@@V?$allocator@PAVCInstanceBase@@@std@@@std@@QAEPAU?$_List_node@PAVCInstanceBase@@PAX@1@QAU21@ABQAVCInstanceBase@@@Z DD 019930522H
	DD	01H
	DD	FLAT:__unwindtable$??$_Emplace@ABQAVCInstanceBase@@@?$list@PAVCInstanceBase@@V?$allocator@PAVCInstanceBase@@@std@@@std@@QAEPAU?$_List_node@PAVCInstanceBase@@PAX@1@QAU21@ABQAVCInstanceBase@@@Z
	DD	2 DUP(00H)
	DD	2 DUP(00H)
	DD	00H
	DD	01H
__unwindtable$??$_Emplace@ABQAVCInstanceBase@@@?$list@PAVCInstanceBase@@V?$allocator@PAVCInstanceBase@@@std@@@std@@QAEPAU?$_List_node@PAVCInstanceBase@@PAX@1@QAU21@ABQAVCInstanceBase@@@Z DD 0ffffffffH
	DD	FLAT:__unwindfunclet$??$_Emplace@ABQAVCInstanceBase@@@?$list@PAVCInstanceBase@@V?$allocator@PAVCInstanceBase@@@std@@@std@@QAEPAU?$_List_node@PAVCInstanceBase@@PAX@1@QAU21@ABQAVCInstanceBase@@@Z$1
xdata$x	ENDS
;	COMDAT xdata$x
xdata$x	SEGMENT
__ehfuncinfo$??$?0U?$pair@$$CBKPAVCInstanceBase@@@std@@@?$_Tree_temp_node@V?$allocator@U?$_Tree_node@U?$pair@$$CBKPAVCInstanceBase@@@std@@PAX@std@@@std@@@std@@QAE@AAV?$allocator@U?$_Tree_node@U?$pair@$$CBKPAVCInstanceBase@@@std@@PAX@std@@@1@PAU?$_Tree_node@U?$pair@$$CBKPAVCInstanceBase@@@std@@PAX@1@$$QAU?$pair@$$CBKPAVCInstanceBase@@@1@@Z DD 019930522H
	DD	01H
	DD	FLAT:__unwindtable$??$?0U?$pair@$$CBKPAVCInstanceBase@@@std@@@?$_Tree_temp_node@V?$allocator@U?$_Tree_node@U?$pair@$$CBKPAVCInstanceBase@@@std@@PAX@std@@@std@@@std@@QAE@AAV?$allocator@U?$_Tree_node@U?$pair@$$CBKPAVCInstanceBase@@@std@@PAX@std@@@1@PAU?$_Tree_node@U?$pair@$$CBKPAVCInstanceBase@@@std@@PAX@1@$$QAU?$pair@$$CBKPAVCInstanceBase@@@1@@Z
	DD	2 DUP(00H)
	DD	2 DUP(00H)
	DD	00H
	DD	01H
__unwindtable$??$?0U?$pair@$$CBKPAVCInstanceBase@@@std@@@?$_Tree_temp_node@V?$allocator@U?$_Tree_node@U?$pair@$$CBKPAVCInstanceBase@@@std@@PAX@std@@@std@@@std@@QAE@AAV?$allocator@U?$_Tree_node@U?$pair@$$CBKPAVCInstanceBase@@@std@@PAX@std@@@1@PAU?$_Tree_node@U?$pair@$$CBKPAVCInstanceBase@@@std@@PAX@1@$$QAU?$pair@$$CBKPAVCInstanceBase@@@1@@Z DD 0ffffffffH
	DD	FLAT:__unwindfunclet$??$?0U?$pair@$$CBKPAVCInstanceBase@@@std@@@?$_Tree_temp_node@V?$allocator@U?$_Tree_node@U?$pair@$$CBKPAVCInstanceBase@@@std@@PAX@std@@@std@@@std@@QAE@AAV?$allocator@U?$_Tree_node@U?$pair@$$CBKPAVCInstanceBase@@@std@@PAX@std@@@1@PAU?$_Tree_node@U?$pair@$$CBKPAVCInstanceBase@@@std@@PAX@1@$$QAU?$pair@$$CBKPAVCInstanceBase@@@1@@Z$1
xdata$x	ENDS
;	COMDAT xdata$x
xdata$x	SEGMENT
__ehfuncinfo$??$?0ABQAVCInstanceBase@@@?$_List_node_emplace_op2@V?$allocator@U?$_List_node@PAVCInstanceBase@@PAX@std@@@std@@@std@@QAE@AAV?$allocator@U?$_List_node@PAVCInstanceBase@@PAX@std@@@1@ABQAVCInstanceBase@@@Z DQ 00000000119930522r ; 2.33398e-314
	DD	FLAT:__unwindtable$??$?0ABQAVCInstanceBase@@@?$_List_node_emplace_op2@V?$allocator@U?$_List_node@PAVCInstanceBase@@PAX@std@@@std@@@std@@QAE@AAV?$allocator@U?$_List_node@PAVCInstanceBase@@PAX@std@@@1@ABQAVCInstanceBase@@@Z
	DQ	00000000000000000r		; 0
	DQ	00000000000000000r		; 0
	DQ	00000000100000000r		; 2.122e-314
__unwindtable$??$?0ABQAVCInstanceBase@@@?$_List_node_emplace_op2@V?$allocator@U?$_List_node@PAVCInstanceBase@@PAX@std@@@std@@@std@@QAE@AAV?$allocator@U?$_List_node@PAVCInstanceBase@@PAX@std@@@1@ABQAVCInstanceBase@@@Z DD 0ffffffffH
	DD	FLAT:__unwindfunclet$??$?0ABQAVCInstanceBase@@@?$_List_node_emplace_op2@V?$allocator@U?$_List_node@PAVCInstanceBase@@PAX@std@@@std@@@std@@QAE@AAV?$allocator@U?$_List_node@PAVCInstanceBase@@PAX@std@@@1@ABQAVCInstanceBase@@@Z$0
xdata$x	ENDS
;	COMDAT xdata$x
xdata$x	SEGMENT
__ehfuncinfo$??0?$_Tree_temp_node_alloc@V?$allocator@U?$_Tree_node@U?$pair@$$CBKPAVCInstanceBase@@@std@@PAX@std@@@std@@@std@@QAE@AAV?$allocator@U?$_Tree_node@U?$pair@$$CBKPAVCInstanceBase@@@std@@PAX@std@@@1@@Z DQ 00000000119930522r ; 2.33398e-314
	DD	FLAT:__unwindtable$??0?$_Tree_temp_node_alloc@V?$allocator@U?$_Tree_node@U?$pair@$$CBKPAVCInstanceBase@@@std@@PAX@std@@@std@@@std@@QAE@AAV?$allocator@U?$_Tree_node@U?$pair@$$CBKPAVCInstanceBase@@@std@@PAX@std@@@1@@Z
	DQ	00000000000000000r		; 0
	DQ	00000000000000000r		; 0
	DQ	00000000100000000r		; 2.122e-314
__unwindtable$??0?$_Tree_temp_node_alloc@V?$allocator@U?$_Tree_node@U?$pair@$$CBKPAVCInstanceBase@@@std@@PAX@std@@@std@@@std@@QAE@AAV?$allocator@U?$_Tree_node@U?$pair@$$CBKPAVCInstanceBase@@@std@@PAX@std@@@1@@Z DD 0ffffffffH
	DD	FLAT:__unwindfunclet$??0?$_Tree_temp_node_alloc@V?$allocator@U?$_Tree_node@U?$pair@$$CBKPAVCInstanceBase@@@std@@PAX@std@@@std@@@std@@QAE@AAV?$allocator@U?$_Tree_node@U?$pair@$$CBKPAVCInstanceBase@@@std@@PAX@std@@@1@@Z$0
; Function compile flags: /Ogtp
; File C:\Anka2Project\Anka2Project\Source\Binary\source\UserInterface\PythonCharacterManager.cpp
;	COMDAT ?SetMainInstance@CPythonCharacterManager@@QAE_NK@Z
_TEXT	SEGMENT
_dwVID$ = 8						; size = 4
?SetMainInstance@CPythonCharacterManager@@QAE_NK@Z PROC	; CPythonCharacterManager::SetMainInstance, COMDAT
; _this$ = ecx

; 105  : {

  00000	55		 push	 ebp
  00001	8b ec		 mov	 ebp, esp
  00003	56		 push	 esi

; 106  : 	m_pkInstMain=GetInstancePtr(dwVID);

  00004	ff 75 08	 push	 DWORD PTR _dwVID$[ebp]
  00007	8b f1		 mov	 esi, ecx
  00009	8b 46 04	 mov	 eax, DWORD PTR [esi+4]
  0000c	8d 4e 04	 lea	 ecx, DWORD PTR [esi+4]
  0000f	ff 50 08	 call	 DWORD PTR [eax+8]

; 107  : 
; 108  : 	if (!m_pkInstMain)

  00012	85 c0		 test	 eax, eax
  00014	89 46 0c	 mov	 DWORD PTR [esi+12], eax

; 109  : 		return false;

  00017	5e		 pop	 esi
  00018	0f 95 c0	 setne	 al

; 110  : 
; 111  : 	return true;
; 112  : }

  0001b	5d		 pop	 ebp
  0001c	c2 04 00	 ret	 4
?SetMainInstance@CPythonCharacterManager@@QAE_NK@Z ENDP	; CPythonCharacterManager::SetMainInstance
_TEXT	ENDS
; Function compile flags: /Ogtp
; File C:\Anka2Project\Anka2Project\Source\Binary\source\UserInterface\PythonCharacterManager.cpp
;	COMDAT ?InsertPVPKey@CPythonCharacterManager@@QAEXKK@Z
_TEXT	SEGMENT
_dwVIDSrc$ = 8						; size = 4
_dwVIDDst$ = 12						; size = 4
?InsertPVPKey@CPythonCharacterManager@@QAEXKK@Z PROC	; CPythonCharacterManager::InsertPVPKey, COMDAT
; _this$ = ecx

; 59   : {

  00000	55		 push	 ebp
  00001	8b ec		 mov	 ebp, esp
  00003	51		 push	 ecx

; 60   : 	CInstanceBase::InsertPVPKey(dwVIDSrc, dwVIDDst);

  00004	8b 55 0c	 mov	 edx, DWORD PTR _dwVIDDst$[ebp]
  00007	56		 push	 esi
  00008	8b f1		 mov	 esi, ecx
  0000a	8b 4d 08	 mov	 ecx, DWORD PTR _dwVIDSrc$[ebp]
  0000d	e8 00 00 00 00	 call	 ?InsertPVPKey@CInstanceBase@@SAXKK@Z ; CInstanceBase::InsertPVPKey

; 61   : 
; 62   : 	CInstanceBase* pkInstSrc=GetInstancePtr(dwVIDSrc);

  00012	8b 46 04	 mov	 eax, DWORD PTR [esi+4]
  00015	8d 4e 04	 lea	 ecx, DWORD PTR [esi+4]
  00018	ff 75 08	 push	 DWORD PTR _dwVIDSrc$[ebp]
  0001b	ff 50 08	 call	 DWORD PTR [eax+8]

; 63   : 	if (pkInstSrc)

  0001e	85 c0		 test	 eax, eax
  00020	74 07		 je	 SHORT $LN2@InsertPVPK

; 64   : 		pkInstSrc->RefreshTextTail();

  00022	8b c8		 mov	 ecx, eax
  00024	e8 00 00 00 00	 call	 ?RefreshTextTail@CInstanceBase@@QAEXXZ ; CInstanceBase::RefreshTextTail
$LN2@InsertPVPK:

; 65   : 
; 66   : 	CInstanceBase* pkInstDst=GetInstancePtr(dwVIDDst);

  00029	8b 46 04	 mov	 eax, DWORD PTR [esi+4]
  0002c	8d 4e 04	 lea	 ecx, DWORD PTR [esi+4]
  0002f	ff 75 0c	 push	 DWORD PTR _dwVIDDst$[ebp]
  00032	ff 50 08	 call	 DWORD PTR [eax+8]

; 67   : 	if (pkInstDst)

  00035	85 c0		 test	 eax, eax
  00037	74 07		 je	 SHORT $LN3@InsertPVPK

; 68   : 		pkInstDst->RefreshTextTail();

  00039	8b c8		 mov	 ecx, eax
  0003b	e8 00 00 00 00	 call	 ?RefreshTextTail@CInstanceBase@@QAEXXZ ; CInstanceBase::RefreshTextTail
$LN3@InsertPVPK:

; 69   : }

  00040	5e		 pop	 esi
  00041	59		 pop	 ecx
  00042	5d		 pop	 ebp
  00043	c2 08 00	 ret	 8
?InsertPVPKey@CPythonCharacterManager@@QAEXKK@Z ENDP	; CPythonCharacterManager::InsertPVPKey
_TEXT	ENDS
; Function compile flags: /Ogtp
; File C:\Anka2Project\Anka2Project\Source\Binary\source\UserInterface\PythonCharacterManager.cpp
;	COMDAT ?RemovePVPKey@CPythonCharacterManager@@QAEXKK@Z
_TEXT	SEGMENT
_dwVIDSrc$ = 8						; size = 4
_dwVIDDst$ = 12						; size = 4
?RemovePVPKey@CPythonCharacterManager@@QAEXKK@Z PROC	; CPythonCharacterManager::RemovePVPKey, COMDAT
; _this$ = ecx

; 72   : {

  00000	55		 push	 ebp
  00001	8b ec		 mov	 ebp, esp
  00003	51		 push	 ecx

; 73   : 	CInstanceBase::RemovePVPKey(dwVIDSrc, dwVIDDst);

  00004	8b 55 0c	 mov	 edx, DWORD PTR _dwVIDDst$[ebp]
  00007	56		 push	 esi
  00008	8b f1		 mov	 esi, ecx
  0000a	8b 4d 08	 mov	 ecx, DWORD PTR _dwVIDSrc$[ebp]
  0000d	e8 00 00 00 00	 call	 ?RemovePVPKey@CInstanceBase@@SAXKK@Z ; CInstanceBase::RemovePVPKey

; 74   : 
; 75   : 	CInstanceBase* pkInstSrc=GetInstancePtr(dwVIDSrc);

  00012	8b 46 04	 mov	 eax, DWORD PTR [esi+4]
  00015	8d 4e 04	 lea	 ecx, DWORD PTR [esi+4]
  00018	ff 75 08	 push	 DWORD PTR _dwVIDSrc$[ebp]
  0001b	ff 50 08	 call	 DWORD PTR [eax+8]

; 76   : 	if (pkInstSrc)

  0001e	85 c0		 test	 eax, eax
  00020	74 07		 je	 SHORT $LN2@RemovePVPK

; 77   : 		pkInstSrc->RefreshTextTail();

  00022	8b c8		 mov	 ecx, eax
  00024	e8 00 00 00 00	 call	 ?RefreshTextTail@CInstanceBase@@QAEXXZ ; CInstanceBase::RefreshTextTail
$LN2@RemovePVPK:

; 78   : 
; 79   : 	CInstanceBase* pkInstDst=GetInstancePtr(dwVIDDst);

  00029	8b 46 04	 mov	 eax, DWORD PTR [esi+4]
  0002c	8d 4e 04	 lea	 ecx, DWORD PTR [esi+4]
  0002f	ff 75 0c	 push	 DWORD PTR _dwVIDDst$[ebp]
  00032	ff 50 08	 call	 DWORD PTR [eax+8]

; 80   : 	if (pkInstDst)

  00035	85 c0		 test	 eax, eax
  00037	74 07		 je	 SHORT $LN3@RemovePVPK

; 81   : 		pkInstDst->RefreshTextTail();

  00039	8b c8		 mov	 ecx, eax
  0003b	e8 00 00 00 00	 call	 ?RefreshTextTail@CInstanceBase@@QAEXXZ ; CInstanceBase::RefreshTextTail
$LN3@RemovePVPK:

; 82   : }

  00040	5e		 pop	 esi
  00041	59		 pop	 ecx
  00042	5d		 pop	 ebp
  00043	c2 08 00	 ret	 8
?RemovePVPKey@CPythonCharacterManager@@QAEXKK@Z ENDP	; CPythonCharacterManager::RemovePVPKey
_TEXT	ENDS
; Function compile flags: /Ogtp
; File C:\Anka2Project\Anka2Project\Source\Binary\source\UserInterface\PythonCharacterManager.cpp
;	COMDAT ?ShowPointEffect@CPythonCharacterManager@@QAEXKK@Z
_TEXT	SEGMENT
_ePoint$ = 8						; size = 4
_dwVID$ = 12						; size = 4
?ShowPointEffect@CPythonCharacterManager@@QAEXKK@Z PROC	; CPythonCharacterManager::ShowPointEffect, COMDAT
; _this$ = ecx

; 184  : {

  00000	55		 push	 ebp
  00001	8b ec		 mov	 ebp, esp

; 185  : 	CInstanceBase * pkInstSel = (dwVID == 0xffffffff) ? GetMainInstancePtr() : GetInstancePtr(dwVID);

  00003	8b 55 0c	 mov	 edx, DWORD PTR _dwVID$[ebp]
  00006	83 fa ff	 cmp	 edx, -1
  00009	75 07		 jne	 SHORT $LN8@ShowPointE
  0000b	e8 00 00 00 00	 call	 ?GetMainInstancePtr@CPythonCharacterManager@@QAEPAVCInstanceBase@@XZ ; CPythonCharacterManager::GetMainInstancePtr
  00010	eb 0a		 jmp	 SHORT $LN10@ShowPointE
$LN8@ShowPointE:
  00012	8b 41 04	 mov	 eax, DWORD PTR [ecx+4]
  00015	83 c1 04	 add	 ecx, 4
  00018	52		 push	 edx
  00019	ff 50 08	 call	 DWORD PTR [eax+8]
$LN10@ShowPointE:

; 186  : 
; 187  : 	if (!pkInstSel)

  0001c	8b c8		 mov	 ecx, eax
  0001e	85 c9		 test	 ecx, ecx
  00020	74 1b		 je	 SHORT $LN2@ShowPointE

; 188  : 		return;
; 189  : 
; 190  : 	switch (ePoint)

  00022	8b 45 08	 mov	 eax, DWORD PTR _ePoint$[ebp]
  00025	83 e8 01	 sub	 eax, 1
  00028	74 0e		 je	 SHORT $LN5@ShowPointE
  0002a	83 e8 18	 sub	 eax, 24			; 00000018H
  0002d	75 0e		 jne	 SHORT $LN2@ShowPointE

; 194  : 			break;
; 195  : 		case POINT_LEVEL_STEP:
; 196  : 			pkInstSel->SkillUp();

  0002f	e8 00 00 00 00	 call	 ?SkillUp@CInstanceBase@@QAEXXZ ; CInstanceBase::SkillUp

; 197  : 			break;
; 198  : 	}
; 199  : }

  00034	5d		 pop	 ebp
  00035	c2 08 00	 ret	 8
$LN5@ShowPointE:

; 191  : 	{
; 192  : 		case POINT_LEVEL:
; 193  : 			pkInstSel->LevelUp();

  00038	e8 00 00 00 00	 call	 ?LevelUp@CInstanceBase@@QAEXXZ ; CInstanceBase::LevelUp
$LN2@ShowPointE:

; 197  : 			break;
; 198  : 	}
; 199  : }

  0003d	5d		 pop	 ebp
  0003e	c2 08 00	 ret	 8
?ShowPointEffect@CPythonCharacterManager@@QAEXKK@Z ENDP	; CPythonCharacterManager::ShowPointEffect
_TEXT	ENDS
; Function compile flags: /Ogtp
; File C:\Anka2Project\Anka2Project\Source\Binary\source\UserInterface\PythonCharacterManager.cpp
; File C:\Program Files\Microsoft Visual Studio\2022\Community\VC\Tools\MSVC\14.44.35207\include\list
; File C:\Anka2Project\Anka2Project\Source\Binary\source\UserInterface\PythonCharacterManager.cpp
; File C:\Program Files\Microsoft Visual Studio\2022\Community\VC\Tools\MSVC\14.44.35207\include\list
; File C:\Program Files\Microsoft Visual Studio\2022\Community\VC\Tools\MSVC\14.44.35207\include\xmemory
; File C:\Program Files\Microsoft Visual Studio\2022\Community\VC\Tools\MSVC\14.44.35207\include\list
; File C:\Program Files\Microsoft Visual Studio\2022\Community\VC\Tools\MSVC\14.44.35207\include\xmemory
; File C:\Program Files\Microsoft Visual Studio\2022\Community\VC\Tools\MSVC\14.44.35207\include\list
; File C:\Program Files\Microsoft Visual Studio\2022\Community\VC\Tools\MSVC\14.44.35207\include\xmemory
; File C:\Program Files\Microsoft Visual Studio\2022\Community\VC\Tools\MSVC\14.44.35207\include\list
; File C:\Anka2Project\Anka2Project\Source\Binary\source\UserInterface\AbstractSingleton.h
; File C:\Program Files\Microsoft Visual Studio\2022\Community\VC\Tools\MSVC\14.44.35207\include\list
; File C:\Anka2Project\Anka2Project\Source\Binary\source\UserInterface\AbstractSingleton.h
; File C:\Anka2Project\Anka2Project\Source\Binary\source\UserInterface\PythonCharacterManager.cpp
; File C:\Program Files\Microsoft Visual Studio\2022\Community\VC\Tools\MSVC\14.44.35207\include\list
; File C:\Anka2Project\Anka2Project\Source\Binary\source\UserInterface\PythonCharacterManager.cpp
;	COMDAT ?__DeleteBlendOutInstance@CPythonCharacterManager@@IAEXPAVCInstanceBase@@@Z
_TEXT	SEGMENT
__Op$13 = -20						; size = 8
__$EHRec$ = -12						; size = 12
_pkInstDel$ = 8						; size = 4
?__DeleteBlendOutInstance@CPythonCharacterManager@@IAEXPAVCInstanceBase@@@Z PROC ; CPythonCharacterManager::__DeleteBlendOutInstance, COMDAT
; _this$ = ecx

; 512  : {

  00000	55		 push	 ebp
  00001	8b ec		 mov	 ebp, esp
  00003	6a ff		 push	 -1
  00005	68 00 00 00 00	 push	 __ehhandler$?__DeleteBlendOutInstance@CPythonCharacterManager@@IAEXPAVCInstanceBase@@@Z
  0000a	64 a1 00 00 00
	00		 mov	 eax, DWORD PTR fs:0
  00010	50		 push	 eax
  00011	83 ec 08	 sub	 esp, 8
  00014	53		 push	 ebx
  00015	56		 push	 esi
  00016	57		 push	 edi
  00017	a1 00 00 00 00	 mov	 eax, DWORD PTR ___security_cookie
  0001c	33 c5		 xor	 eax, ebp
  0001e	50		 push	 eax
  0001f	8d 45 f4	 lea	 eax, DWORD PTR __$EHRec$[ebp]
  00022	64 a3 00 00 00
	00		 mov	 DWORD PTR fs:0, eax
  00028	8b f1		 mov	 esi, ecx

; 513  : 	pkInstDel->DeleteBlendOut();

  0002a	8b 5d 08	 mov	 ebx, DWORD PTR _pkInstDel$[ebp]
  0002d	8b cb		 mov	 ecx, ebx
  0002f	e8 00 00 00 00	 call	 ?DeleteBlendOut@CInstanceBase@@QAEXXZ ; CInstanceBase::DeleteBlendOut
; File C:\Program Files\Microsoft Visual Studio\2022\Community\VC\Tools\MSVC\14.44.35207\include\list

; 1274 :         _Emplace(_Mypair._Myval2._Myhead, _Val);

  00034	8b 7e 28	 mov	 edi, DWORD PTR [esi+40]
; File C:\Anka2Project\Anka2Project\Source\Binary\source\UserInterface\PythonCharacterManager.cpp

; 514  : 	m_kDeadInstList.push_back(pkInstDel);	

  00037	83 c6 28	 add	 esi, 40			; 00000028H
; File C:\Program Files\Microsoft Visual Studio\2022\Community\VC\Tools\MSVC\14.44.35207\include\list

; 1030 :         if (_Mysize == max_size()) {

  0003a	81 7e 04 55 55
	55 15		 cmp	 DWORD PTR [esi+4], 357913941 ; 15555555H
  00041	74 7e		 je	 SHORT $LN71@DeleteBlen
; File C:\Program Files\Microsoft Visual Studio\2022\Community\VC\Tools\MSVC\14.44.35207\include\xmemory

; 1160 :     _CONSTEXPR20 explicit _Alloc_construct_ptr(_Alloc& _Al_) : _Al(_Al_), _Ptr(nullptr) {}

  00043	89 75 ec	 mov	 DWORD PTR __Op$13[ebp], esi
; File C:\Program Files\Microsoft Visual Studio\2022\Community\VC\Tools\MSVC\14.44.35207\include\list

; 593  :     explicit _List_node_emplace_op2(_Alnode& _Al_, _Valtys&&... _Vals) : _Alloc_construct_ptr<_Alnode>(_Al_) {

  00046	c7 45 fc 00 00
	00 00		 mov	 DWORD PTR __$EHRec$[ebp+8], 0
; File C:\Program Files\Microsoft Visual Studio\2022\Community\VC\Tools\MSVC\14.44.35207\include\xmemory

; 136  :         return ::operator new(_Bytes);

  0004d	6a 0c		 push	 12			; 0000000cH

; 1167 :         _Ptr = nullptr; // if allocate throws, prevents double-free

  0004f	c7 45 f0 00 00
	00 00		 mov	 DWORD PTR __Op$13[ebp+4], 0

; 136  :         return ::operator new(_Bytes);

  00056	e8 00 00 00 00	 call	 ??2@YAPAXI@Z		; operator new
; File C:\Program Files\Microsoft Visual Studio\2022\Community\VC\Tools\MSVC\14.44.35207\include\list

; 596  :     }

  0005b	c7 45 fc ff ff
	ff ff		 mov	 DWORD PTR __$EHRec$[ebp+8], -1
; File C:\Program Files\Microsoft Visual Studio\2022\Community\VC\Tools\MSVC\14.44.35207\include\xmemory

; 136  :         return ::operator new(_Bytes);

  00062	83 c4 04	 add	 esp, 4
; File C:\Program Files\Microsoft Visual Studio\2022\Community\VC\Tools\MSVC\14.44.35207\include\list

; 595  :         _Alnode_traits::construct(this->_Al, _STD addressof(this->_Ptr->_Myval), _STD forward<_Valtys>(_Vals)...);

  00065	89 58 08	 mov	 DWORD PTR [eax+8], ebx

; 1035 :         ++_Mysize;

  00068	ff 46 04	 inc	 DWORD PTR [esi+4]

; 608  :         const pointer _Insert_after = _Insert_before->_Prev;

  0006b	8b 4f 04	 mov	 ecx, DWORD PTR [edi+4]

; 609  :         _Construct_in_place(this->_Ptr->_Next, _Insert_before);

  0006e	89 38		 mov	 DWORD PTR [eax], edi

; 610  :         _Construct_in_place(this->_Ptr->_Prev, _Insert_after);

  00070	89 48 04	 mov	 DWORD PTR [eax+4], ecx

; 611  :         const auto _Result    = this->_Ptr;
; 612  :         this->_Ptr            = pointer{};
; 613  :         _Insert_before->_Prev = _Result;

  00073	89 47 04	 mov	 DWORD PTR [edi+4], eax
; File C:\Anka2Project\Anka2Project\Source\Binary\source\UserInterface\AbstractSingleton.h

; 24   : 		assert(ms_singleton!=nullptr);

  00076	8b 3d 00 00 00
	00		 mov	 edi, DWORD PTR ?ms_singleton@?$TAbstractSingleton@VIAbstractPlayer@@@@0PAVIAbstractPlayer@@A ; TAbstractSingleton<IAbstractPlayer>::ms_singleton
; File C:\Program Files\Microsoft Visual Studio\2022\Community\VC\Tools\MSVC\14.44.35207\include\list

; 614  :         _Insert_after->_Next  = _Result;

  0007c	89 01		 mov	 DWORD PTR [ecx], eax
; File C:\Anka2Project\Anka2Project\Source\Binary\source\UserInterface\AbstractSingleton.h

; 24   : 		assert(ms_singleton!=nullptr);

  0007e	85 ff		 test	 edi, edi
  00080	75 1a		 jne	 SHORT $LN67@DeleteBlen
  00082	6a 18		 push	 24			; 00000018H
  00084	68 00 00 00 00	 push	 OFFSET ??_C@_1KI@FIPHLMOB@?$AAC?$AA?3?$AA?2?$AAA?$AAn?$AAk?$AAa?$AA2?$AAP?$AAr?$AAo?$AAj?$AAe?$AAc?$AAt@
  00089	68 00 00 00 00	 push	 OFFSET ??_C@_1CM@FPMBEAEA@?$AAm?$AAs?$AA_?$AAs?$AAi?$AAn?$AAg?$AAl?$AAe?$AAt?$AAo?$AAn?$AA?$CB?$AA?$DN?$AAn@
  0008e	e8 00 00 00 00	 call	 __wassert
  00093	8b 3d 00 00 00
	00		 mov	 edi, DWORD PTR ?ms_singleton@?$TAbstractSingleton@VIAbstractPlayer@@@@0PAVIAbstractPlayer@@A ; TAbstractSingleton<IAbstractPlayer>::ms_singleton
  00099	83 c4 0c	 add	 esp, 12			; 0000000cH
$LN67@DeleteBlen:
; File C:\Anka2Project\Anka2Project\Source\Binary\source\UserInterface\PythonCharacterManager.cpp

; 517  : 	rkPlayer.NotifyCharacterDead(pkInstDel->GetVirtualID());

  0009c	8b 07		 mov	 eax, DWORD PTR [edi]
  0009e	8b cb		 mov	 ecx, ebx
  000a0	8b 70 70	 mov	 esi, DWORD PTR [eax+112]
  000a3	e8 00 00 00 00	 call	 ?GetVirtualID@CInstanceBase@@QAEKXZ ; CInstanceBase::GetVirtualID
  000a8	50		 push	 eax
  000a9	8b cf		 mov	 ecx, edi
  000ab	ff d6		 call	 esi

; 518  : }

  000ad	8b 4d f4	 mov	 ecx, DWORD PTR __$EHRec$[ebp]
  000b0	64 89 0d 00 00
	00 00		 mov	 DWORD PTR fs:0, ecx
  000b7	59		 pop	 ecx
  000b8	5f		 pop	 edi
  000b9	5e		 pop	 esi
  000ba	5b		 pop	 ebx
  000bb	8b e5		 mov	 esp, ebp
  000bd	5d		 pop	 ebp
  000be	c2 04 00	 ret	 4
$LN71@DeleteBlen:
; File C:\Program Files\Microsoft Visual Studio\2022\Community\VC\Tools\MSVC\14.44.35207\include\list

; 1031 :             _Xlength_error("list too long");

  000c1	68 00 00 00 00	 push	 OFFSET ??_C@_0O@NKNMEGII@list?5too?5long@
  000c6	e8 00 00 00 00	 call	 ?_Xlength_error@std@@YAXPBD@Z ; std::_Xlength_error
$LN69@DeleteBlen:
  000cb	cc		 int	 3
_TEXT	ENDS
;	COMDAT text$x
text$x	SEGMENT
__unwindfunclet$?__DeleteBlendOutInstance@CPythonCharacterManager@@IAEXPAVCInstanceBase@@@Z$1:
  00000	8d 4d ec	 lea	 ecx, DWORD PTR __Op$13[ebp]
  00003	e9 00 00 00 00	 jmp	 ??1?$_Alloc_construct_ptr@V?$allocator@U?$_List_node@PAVCInstanceBase@@PAX@std@@@std@@@std@@QAE@XZ ; std::_Alloc_construct_ptr<std::allocator<std::_List_node<CInstanceBase *,void *> > >::~_Alloc_construct_ptr<std::allocator<std::_List_node<CInstanceBase *,void *> > >
  00008	cc		 int	 3
  00009	cc		 int	 3
  0000a	cc		 int	 3
  0000b	cc		 int	 3
  0000c	cc		 int	 3
__ehhandler$?__DeleteBlendOutInstance@CPythonCharacterManager@@IAEXPAVCInstanceBase@@@Z:
  0000d	90		 npad	 1
  0000e	90		 npad	 1
  0000f	8b 54 24 08	 mov	 edx, DWORD PTR [esp+8]
  00013	8d 42 0c	 lea	 eax, DWORD PTR [edx+12]
  00016	8b 4a e8	 mov	 ecx, DWORD PTR [edx-24]
  00019	33 c8		 xor	 ecx, eax
  0001b	e8 00 00 00 00	 call	 @__security_check_cookie@4
  00020	b8 00 00 00 00	 mov	 eax, OFFSET __ehfuncinfo$?__DeleteBlendOutInstance@CPythonCharacterManager@@IAEXPAVCInstanceBase@@@Z
  00025	e9 00 00 00 00	 jmp	 ___CxxFrameHandler3
text$x	ENDS
?__DeleteBlendOutInstance@CPythonCharacterManager@@IAEXPAVCInstanceBase@@@Z ENDP ; CPythonCharacterManager::__DeleteBlendOutInstance
; Function compile flags: /Ogtp
; File C:\Anka2Project\Anka2Project\Source\Binary\source\UserInterface\PythonCharacterManager.cpp
; File C:\Anka2Project\Anka2Project\Source\Binary\source\eterBase\Singleton.h
; File C:\Anka2Project\Anka2Project\Source\Binary\source\UserInterface\PythonCharacterManager.cpp
; File C:\Anka2Project\Anka2Project\Source\Binary\source\eterBase\Singleton.h
; File C:\Anka2Project\Anka2Project\Source\Binary\source\UserInterface\PythonCharacterManager.cpp
; File C:\Program Files\Microsoft Visual Studio\2022\Community\VC\Tools\MSVC\14.44.35207\include\vector
; File C:\Anka2Project\Anka2Project\Source\Binary\source\UserInterface\PythonCharacterManager.cpp
; File C:\Program Files\Microsoft Visual Studio\2022\Community\VC\Tools\MSVC\14.44.35207\include\vector
; File C:\Program Files\Microsoft Visual Studio\2022\Community\VC\Tools\MSVC\14.44.35207\include\xtree
; File C:\Anka2Project\Anka2Project\Source\Binary\source\UserInterface\PythonCharacterManager.cpp
; File C:\Program Files\Microsoft Visual Studio\2022\Community\VC\Tools\MSVC\14.44.35207\include\xtree
; File C:\Anka2Project\Anka2Project\Source\Binary\source\UserInterface\PythonCharacterManager.cpp
; File C:\Anka2Project\Anka2Project\Source\Binary\extern\include\d3dx8math.inl
; File C:\Anka2Project\Anka2Project\Source\Binary\source\UserInterface\PythonCharacterManager.cpp
; File C:\Anka2Project\Anka2Project\Source\Binary\extern\include\d3dx8math.inl
; File C:\Anka2Project\Anka2Project\Source\Binary\source\UserInterface\PythonCharacterManager.cpp
; File C:\Anka2Project\Anka2Project\Source\Binary\extern\include\d3dx8math.inl
; File C:\Anka2Project\Anka2Project\Source\Binary\source\UserInterface\PythonCharacterManager.cpp
; File C:\Anka2Project\Anka2Project\Source\Binary\extern\include\d3dx8math.inl
; File C:\Anka2Project\Anka2Project\Source\Binary\source\UserInterface\PythonCharacterManager.cpp
; File C:\Anka2Project\Anka2Project\Source\Binary\extern\include\d3dx8math.inl
; File C:\Anka2Project\Anka2Project\Source\Binary\source\UserInterface\PythonCharacterManager.cpp
; File C:\Anka2Project\Anka2Project\Source\Binary\extern\include\d3dx8math.inl
; File C:\Anka2Project\Anka2Project\Source\Binary\source\UserInterface\PythonCharacterManager.cpp
; File C:\Anka2Project\Anka2Project\Source\Binary\extern\include\d3dx8math.inl
; File C:\Anka2Project\Anka2Project\Source\Binary\source\UserInterface\PythonCharacterManager.cpp
; File C:\Anka2Project\Anka2Project\Source\Binary\extern\include\d3dx8math.inl
; File C:\Anka2Project\Anka2Project\Source\Binary\source\UserInterface\PythonCharacterManager.cpp
; File C:\Anka2Project\Anka2Project\Source\Binary\extern\include\d3dx8math.inl
; File C:\Anka2Project\Anka2Project\Source\Binary\source\UserInterface\PythonCharacterManager.cpp
; File C:\Program Files\Microsoft Visual Studio\2022\Community\VC\Tools\MSVC\14.44.35207\include\vector
; File C:\Anka2Project\Anka2Project\Source\Binary\source\UserInterface\PythonCharacterManager.cpp
; File C:\Program Files\Microsoft Visual Studio\2022\Community\VC\Tools\MSVC\14.44.35207\include\vector
; File C:\Program Files\Microsoft Visual Studio\2022\Community\VC\Tools\MSVC\14.44.35207\include\utility
; File C:\Program Files\Microsoft Visual Studio\2022\Community\VC\Tools\MSVC\14.44.35207\include\vector
; File C:\Anka2Project\Anka2Project\Source\Binary\source\UserInterface\PythonCharacterManager.cpp
; File C:\Program Files\Microsoft Visual Studio\2022\Community\VC\Tools\MSVC\14.44.35207\include\xtree
; File C:\Anka2Project\Anka2Project\Source\Binary\source\UserInterface\PythonCharacterManager.cpp
; File C:\Program Files\Microsoft Visual Studio\2022\Community\VC\Tools\MSVC\14.44.35207\include\vector
; File C:\Anka2Project\Anka2Project\Source\Binary\source\UserInterface\PythonCharacterManager.cpp
; File C:\Program Files\Microsoft Visual Studio\2022\Community\VC\Tools\MSVC\14.44.35207\include\algorithm
; File C:\Program Files\Microsoft Visual Studio\2022\Community\VC\Tools\MSVC\14.44.35207\include\vector
; File C:\Program Files\Microsoft Visual Studio\2022\Community\VC\Tools\MSVC\14.44.35207\include\algorithm
; File C:\Program Files\Microsoft Visual Studio\2022\Community\VC\Tools\MSVC\14.44.35207\include\vector
; File C:\Anka2Project\Anka2Project\Source\Binary\source\UserInterface\PythonCharacterManager.cpp
; File C:\Program Files\Microsoft Visual Studio\2022\Community\VC\Tools\MSVC\14.44.35207\include\vector
; File C:\Program Files\Microsoft Visual Studio\2022\Community\VC\Tools\MSVC\14.44.35207\include\xmemory
; File C:\Program Files\Microsoft Visual Studio\2022\Community\VC\Tools\MSVC\14.44.35207\include\vector
; File C:\Program Files\Microsoft Visual Studio\2022\Community\VC\Tools\MSVC\14.44.35207\include\xmemory
; File C:\Anka2Project\Anka2Project\Source\Binary\source\UserInterface\PythonCharacterManager.cpp
; File C:\Program Files\Microsoft Visual Studio\2022\Community\VC\Tools\MSVC\14.44.35207\include\xmemory
; File C:\Anka2Project\Anka2Project\Source\Binary\source\UserInterface\PythonCharacterManager.cpp
;	COMDAT ?FindVictim@CPythonCharacterManager@@QAEPAVCInstanceBase@@PAV2@MPAUD3DXVECTOR3@@_N2@Z
_TEXT	SEGMENT
_mainPos$38 = -124					; size = 12
_targetPos$ = -112					; size = 12
_pkVictim$39 = -100					; size = 4
_fMaxDistance$1$ = -96					; size = 4
_inc$36$sroa$739$1$ = -92				; size = 4
_inc$36$sroa$740$1$ = -88				; size = 4
_pWorld$1$ = -84					; size = 4
_targetPlayerVID$1$ = -80				; size = 4
_itor$40 = -76						; size = 4
_pkInstMain$GSCopy$1$ = -72				; size = 4
_c_rv3Src$1$ = -68					; size = 4
_fDistanceFromPlayer$41 = -64				; size = 4
_inc$36$sroa$737$1$ = -64				; size = 4
_this$GSCopy$1$ = -60					; size = 4
_v3Movement$$sroa$741$1$ = -56				; size = 4
_v3Movement$$sroa$742$1$ = -52				; size = 4
_v3Movement$$sroa$743$1$ = -48				; size = 4
_m_vecVictimList$ = -44					; size = 12
$T13 = -32						; size = 12
__$ArrayPad$ = -20					; size = 4
__$EHRec$ = -12						; size = 12
_pkInstMain$ = 8					; size = 4
_startPoint$ = 12					; size = 4
_m_bAutoHuntMob$ = 16					; size = 1
_m_bAutoHuntStone$ = 20					; size = 1
?FindVictim@CPythonCharacterManager@@QAEPAVCInstanceBase@@PAV2@MPAUD3DXVECTOR3@@_N2@Z PROC ; CPythonCharacterManager::FindVictim, COMDAT
; _this$ = ecx
; _fMaxDistance$ = xmm2s

; 897  : {

  00000	53		 push	 ebx
  00001	8b dc		 mov	 ebx, esp
  00003	83 ec 08	 sub	 esp, 8
  00006	83 e4 f8	 and	 esp, -8			; fffffff8H
  00009	83 c4 04	 add	 esp, 4
  0000c	55		 push	 ebp
  0000d	8b 6b 04	 mov	 ebp, DWORD PTR [ebx+4]
  00010	89 6c 24 04	 mov	 DWORD PTR [esp+4], ebp
  00014	8b ec		 mov	 ebp, esp
  00016	6a ff		 push	 -1
  00018	68 00 00 00 00	 push	 __ehhandler$?FindVictim@CPythonCharacterManager@@QAEPAVCInstanceBase@@PAV2@MPAUD3DXVECTOR3@@_N2@Z
  0001d	64 a1 00 00 00
	00		 mov	 eax, DWORD PTR fs:0
  00023	50		 push	 eax
  00024	53		 push	 ebx
  00025	83 ec 70	 sub	 esp, 112		; 00000070H
  00028	a1 00 00 00 00	 mov	 eax, DWORD PTR ___security_cookie
  0002d	33 c5		 xor	 eax, ebp
  0002f	89 45 ec	 mov	 DWORD PTR __$ArrayPad$[ebp], eax
  00032	56		 push	 esi
  00033	57		 push	 edi
  00034	50		 push	 eax
  00035	8d 45 f4	 lea	 eax, DWORD PTR __$EHRec$[ebp]
  00038	64 a3 00 00 00
	00		 mov	 DWORD PTR fs:0, eax
  0003e	f3 0f 11 55 a0	 movss	 DWORD PTR _fMaxDistance$1$[ebp], xmm2
  00043	89 4d c4	 mov	 DWORD PTR _this$GSCopy$1$[ebp], ecx
  00046	8b 7b 08	 mov	 edi, DWORD PTR _pkInstMain$[ebx]
  00049	89 7d b8	 mov	 DWORD PTR _pkInstMain$GSCopy$1$[ebp], edi

; 898  : 	if (!pkInstMain)

  0004c	85 ff		 test	 edi, edi
  0004e	0f 84 bd 02 00
	00		 je	 $LN235@FindVictim

; 899  : 		return NULL;
; 900  : 	IPhysicsWorld* pWorld = IPhysicsWorld::GetPhysicsWorld();

  00054	a1 00 00 00 00	 mov	 eax, DWORD PTR ?ms_pWorld@IPhysicsWorld@@0PAV1@A ; IPhysicsWorld::ms_pWorld
  00059	89 45 ac	 mov	 DWORD PTR _pWorld$1$[ebp], eax

; 901  : 	if (!pWorld)

  0005c	85 c0		 test	 eax, eax
  0005e	0f 84 ad 02 00
	00		 je	 $LN235@FindVictim

; 903  : 	const D3DXVECTOR3& c_rv3Src = pkInstMain->GetGraphicThingInstanceRef().GetPosition();

  00064	8b cf		 mov	 ecx, edi
  00066	e8 00 00 00 00	 call	 ?GetGraphicThingInstanceRef@CInstanceBase@@QAEAAVCActorInstance@@XZ ; CInstanceBase::GetGraphicThingInstanceRef
  0006b	8b c8		 mov	 ecx, eax
  0006d	e8 00 00 00 00	 call	 ?GetPosition@CGraphicObjectInstance@@QBEABUD3DXVECTOR3@@XZ ; CGraphicObjectInstance::GetPosition
; File C:\Anka2Project\Anka2Project\Source\Binary\source\eterBase\Singleton.h

; 26   : 		assert(ms_singleton);

  00072	8b 0d 00 00 00
	00		 mov	 ecx, DWORD PTR ?ms_singleton@?$CSingleton@VCPythonPlayer@@@@0PAVCPythonPlayer@@A ; CSingleton<CPythonPlayer>::ms_singleton
; File C:\Anka2Project\Anka2Project\Source\Binary\source\UserInterface\PythonCharacterManager.cpp

; 903  : 	const D3DXVECTOR3& c_rv3Src = pkInstMain->GetGraphicThingInstanceRef().GetPosition();

  00078	89 45 bc	 mov	 DWORD PTR _c_rv3Src$1$[ebp], eax
; File C:\Anka2Project\Anka2Project\Source\Binary\source\eterBase\Singleton.h

; 26   : 		assert(ms_singleton);

  0007b	85 c9		 test	 ecx, ecx
  0007d	75 1a		 jne	 SHORT $LN119@FindVictim
  0007f	6a 1a		 push	 26			; 0000001aH
  00081	68 00 00 00 00	 push	 OFFSET ??_C@_1IO@CAJLEEOI@?$AAC?$AA?3?$AA?2?$AAA?$AAn?$AAk?$AAa?$AA2?$AAP?$AAr?$AAo?$AAj?$AAe?$AAc?$AAt@
  00086	68 00 00 00 00	 push	 OFFSET ??_C@_1BK@FMEHPMFE@?$AAm?$AAs?$AA_?$AAs?$AAi?$AAn?$AAg?$AAl?$AAe?$AAt?$AAo?$AAn@
  0008b	e8 00 00 00 00	 call	 __wassert
  00090	8b 0d 00 00 00
	00		 mov	 ecx, DWORD PTR ?ms_singleton@?$CSingleton@VCPythonPlayer@@@@0PAVCPythonPlayer@@A ; CSingleton<CPythonPlayer>::ms_singleton
  00096	83 c4 0c	 add	 esp, 12			; 0000000cH
$LN119@FindVictim:
; File C:\Anka2Project\Anka2Project\Source\Binary\source\UserInterface\PythonCharacterManager.cpp

; 904  : 	const DWORD targetPlayerVID = CPythonPlayer::Instance().GetTargetVID();

  00099	e8 00 00 00 00	 call	 ?GetTargetVID@CPythonPlayer@@QAEKXZ ; CPythonPlayer::GetTargetVID
; File C:\Program Files\Microsoft Visual Studio\2022\Community\VC\Tools\MSVC\14.44.35207\include\vector

; 400  :     _CONSTEXPR20 _Vector_val() noexcept : _Myfirst(), _Mylast(), _Myend() {}

  0009e	33 f6		 xor	 esi, esi
; File C:\Anka2Project\Anka2Project\Source\Binary\source\UserInterface\PythonCharacterManager.cpp

; 904  : 	const DWORD targetPlayerVID = CPythonPlayer::Instance().GetTargetVID();

  000a0	89 45 b0	 mov	 DWORD PTR _targetPlayerVID$1$[ebp], eax
; File C:\Program Files\Microsoft Visual Studio\2022\Community\VC\Tools\MSVC\14.44.35207\include\vector

; 400  :     _CONSTEXPR20 _Vector_val() noexcept : _Myfirst(), _Mylast(), _Myend() {}

  000a3	89 75 d4	 mov	 DWORD PTR _m_vecVictimList$[ebp], esi
  000a6	89 75 d8	 mov	 DWORD PTR _m_vecVictimList$[ebp+4], esi
  000a9	89 75 dc	 mov	 DWORD PTR _m_vecVictimList$[ebp+8], esi
; File C:\Program Files\Microsoft Visual Studio\2022\Community\VC\Tools\MSVC\14.44.35207\include\xtree

; 1142 :         return iterator(_Scary->_Myhead->_Left, _Scary);

  000ac	8b 45 c4	 mov	 eax, DWORD PTR _this$GSCopy$1$[ebp]
; File C:\Anka2Project\Anka2Project\Source\Binary\source\UserInterface\PythonCharacterManager.cpp

; 907  : 	std::vector<std::pair<CInstanceBase*, float>> m_vecVictimList;

  000af	89 75 fc	 mov	 DWORD PTR __$EHRec$[ebp+8], esi
; File C:\Program Files\Microsoft Visual Studio\2022\Community\VC\Tools\MSVC\14.44.35207\include\xtree

; 1142 :         return iterator(_Scary->_Myhead->_Left, _Scary);

  000b2	8b 48 20	 mov	 ecx, DWORD PTR [eax+32]

; 37   :     _Tree_unchecked_const_iterator(_Nodeptr _Pnode, const _Mytree* _Plist) noexcept : _Ptr(_Pnode) {

  000b5	8b 01		 mov	 eax, DWORD PTR [ecx]
  000b7	89 45 b4	 mov	 DWORD PTR _itor$40[ebp], eax
  000ba	3b c1		 cmp	 eax, ecx
; File C:\Anka2Project\Anka2Project\Source\Binary\source\UserInterface\PythonCharacterManager.cpp

; 909  : 	for (TCharacterInstanceMap::iterator itor = m_kAliveInstMap.begin(); itor != m_kAliveInstMap.end(); ++itor)

  000bc	0f 84 cb 01 00
	00		 je	 $LN3@FindVictim
$LL4@FindVictim:

; 910  : 	{
; 911  : 		CInstanceBase* pkVictim = itor->second;

  000c2	8b 70 14	 mov	 esi, DWORD PTR [eax+20]
  000c5	89 75 9c	 mov	 DWORD PTR _pkVictim$39[ebp], esi
  000c8	3b f7		 cmp	 esi, edi

; 912  : 		if (pkVictim == pkInstMain || pkVictim->IsDead() || pkVictim->GetVirtualID() == targetPlayerVID || !pkInstMain->IsAttackableInstance(*pkVictim))

  000ca	0f 84 a3 01 00
	00		 je	 $LN2@FindVictim
  000d0	8b ce		 mov	 ecx, esi
  000d2	e8 00 00 00 00	 call	 ?IsDead@CInstanceBase@@QAEHXZ ; CInstanceBase::IsDead
  000d7	85 c0		 test	 eax, eax
  000d9	0f 85 94 01 00
	00		 jne	 $LN2@FindVictim
  000df	8b ce		 mov	 ecx, esi
  000e1	e8 00 00 00 00	 call	 ?GetVirtualID@CInstanceBase@@QAEKXZ ; CInstanceBase::GetVirtualID
  000e6	3b 45 b0	 cmp	 eax, DWORD PTR _targetPlayerVID$1$[ebp]
  000e9	0f 84 84 01 00
	00		 je	 $LN2@FindVictim
  000ef	56		 push	 esi
  000f0	8b cf		 mov	 ecx, edi
  000f2	e8 00 00 00 00	 call	 ?IsAttackableInstance@CInstanceBase@@QAE_NAAV1@@Z ; CInstanceBase::IsAttackableInstance
  000f7	84 c0		 test	 al, al
  000f9	0f 84 74 01 00
	00		 je	 $LN2@FindVictim

; 913  : 			continue;
; 914  : 		else if (pkVictim->IsEnemy() && !m_bAutoHuntMob)

  000ff	8b ce		 mov	 ecx, esi
  00101	e8 00 00 00 00	 call	 ?IsEnemy@CInstanceBase@@QAEHXZ ; CInstanceBase::IsEnemy
  00106	85 c0		 test	 eax, eax
  00108	74 0a		 je	 SHORT $LN13@FindVictim
  0010a	80 7b 10 00	 cmp	 BYTE PTR _m_bAutoHuntMob$[ebx], 0
  0010e	0f 84 5f 01 00
	00		 je	 $LN2@FindVictim
$LN13@FindVictim:

; 915  : 			continue;
; 916  : 		else if (pkVictim->IsStone() && !m_bAutoHuntStone)

  00114	8b ce		 mov	 ecx, esi
  00116	e8 00 00 00 00	 call	 ?IsStone@CInstanceBase@@QAEHXZ ; CInstanceBase::IsStone
  0011b	85 c0		 test	 eax, eax
  0011d	74 0a		 je	 SHORT $LN15@FindVictim
  0011f	80 7b 14 00	 cmp	 BYTE PTR _m_bAutoHuntStone$[ebx], 0
  00123	0f 84 4a 01 00
	00		 je	 $LN2@FindVictim
$LN15@FindVictim:
  00129	0f 57 c0	 xorps	 xmm0, xmm0

; 917  : 			continue;
; 918  : 		v3Movement.x = 0.0, v3Movement.y = 0.0, v3Movement.z = 0.0;
; 919  : 		pkVictim->NEW_GetPixelPosition(&targetPos);

  0012c	8d 45 90	 lea	 eax, DWORD PTR _targetPos$[ebp]
  0012f	50		 push	 eax
  00130	8b ce		 mov	 ecx, esi
  00132	f3 0f 11 45 d0	 movss	 DWORD PTR _v3Movement$$sroa$743$1$[ebp], xmm0
  00137	f3 0f 11 45 cc	 movss	 DWORD PTR _v3Movement$$sroa$742$1$[ebp], xmm0
  0013c	f3 0f 11 45 c8	 movss	 DWORD PTR _v3Movement$$sroa$741$1$[ebp], xmm0
  00141	e8 00 00 00 00	 call	 ?NEW_GetPixelPosition@CInstanceBase@@QAEXPAUD3DXVECTOR3@@@Z ; CInstanceBase::NEW_GetPixelPosition

; 920  : 		c_v3Dst.x = targetPos.x, c_v3Dst.y = -targetPos.y, c_v3Dst.z = c_rv3Src.z;

  00146	8b 4d bc	 mov	 ecx, DWORD PTR _c_rv3Src$1$[ebp]

; 925  : 		for (int i = 0; i < whileCount; ++i)

  00149	33 ff		 xor	 edi, edi
; File C:\Anka2Project\Anka2Project\Source\Binary\extern\include\d3dx8math.inl

; 263  :     return D3DXVECTOR3(x - v.x, y - v.y, z - v.z);

  0014b	f3 0f 10 45 90	 movss	 xmm0, DWORD PTR _targetPos$[ebp]

; 275  :     FLOAT fInv = 1.0f / f;

  00150	f3 0f 10 15 00
	00 00 00	 movss	 xmm2, DWORD PTR __real@3c23d70a

; 263  :     return D3DXVECTOR3(x - v.x, y - v.y, z - v.z);

  00158	f3 0f 5c 01	 subss	 xmm0, DWORD PTR [ecx]
; File C:\Anka2Project\Anka2Project\Source\Binary\source\UserInterface\PythonCharacterManager.cpp

; 920  : 		c_v3Dst.x = targetPos.x, c_v3Dst.y = -targetPos.y, c_v3Dst.z = c_rv3Src.z;

  0015c	f3 0f 10 49 08	 movss	 xmm1, DWORD PTR [ecx+8]
; File C:\Anka2Project\Anka2Project\Source\Binary\extern\include\d3dx8math.inl

; 263  :     return D3DXVECTOR3(x - v.x, y - v.y, z - v.z);

  00161	f3 0f 5c c9	 subss	 xmm1, xmm1

; 275  :     FLOAT fInv = 1.0f / f;

  00165	f3 0f 59 c2	 mulss	 xmm0, xmm2

; 181  :     y = fy;

  00169	f3 0f 59 ca	 mulss	 xmm1, xmm2

; 275  :     FLOAT fInv = 1.0f / f;

  0016d	f3 0f 11 45 a8	 movss	 DWORD PTR _inc$36$sroa$740$1$[ebp], xmm0
; File C:\Anka2Project\Anka2Project\Source\Binary\source\UserInterface\PythonCharacterManager.cpp

; 920  : 		c_v3Dst.x = targetPos.x, c_v3Dst.y = -targetPos.y, c_v3Dst.z = c_rv3Src.z;

  00172	f3 0f 10 45 94	 movss	 xmm0, DWORD PTR _targetPos$[ebp+4]
  00177	0f 57 05 00 00
	00 00		 xorps	 xmm0, DWORD PTR __xmm@80000000800000008000000080000000
; File C:\Anka2Project\Anka2Project\Source\Binary\extern\include\d3dx8math.inl

; 263  :     return D3DXVECTOR3(x - v.x, y - v.y, z - v.z);

  0017e	f3 0f 5c 41 04	 subss	 xmm0, DWORD PTR [ecx+4]

; 181  :     y = fy;

  00183	f3 0f 11 4d c0	 movss	 DWORD PTR _inc$36$sroa$737$1$[ebp], xmm1
  00188	f3 0f 59 c2	 mulss	 xmm0, xmm2
  0018c	f3 0f 11 45 a4	 movss	 DWORD PTR _inc$36$sroa$739$1$[ebp], xmm0
  00191	f3 0f 10 45 d0	 movss	 xmm0, DWORD PTR _v3Movement$$sroa$743$1$[ebp]
  00196	0f 28 c8	 movaps	 xmm1, xmm0
  00199	0f 28 d0	 movaps	 xmm2, xmm0
  0019c	0f 1f 40 00	 npad	 4
$LL7@FindVictim:
; File C:\Anka2Project\Anka2Project\Source\Binary\source\UserInterface\PythonCharacterManager.cpp

; 927  : 			if (pWorld->isPhysicalCollision(c_rv3Src + v3Movement))

  001a0	8b 55 ac	 mov	 edx, DWORD PTR _pWorld$1$[ebp]
; File C:\Anka2Project\Anka2Project\Source\Binary\extern\include\d3dx8math.inl

; 257  :     return D3DXVECTOR3(x + v.x, y + v.y, z + v.z);

  001a3	f3 0f 58 01	 addss	 xmm0, DWORD PTR [ecx]
  001a7	f3 0f 58 49 04	 addss	 xmm1, DWORD PTR [ecx+4]
  001ac	f3 0f 58 51 08	 addss	 xmm2, DWORD PTR [ecx+8]
; File C:\Anka2Project\Anka2Project\Source\Binary\source\UserInterface\PythonCharacterManager.cpp

; 927  : 			if (pWorld->isPhysicalCollision(c_rv3Src + v3Movement))

  001b1	8b 02		 mov	 eax, DWORD PTR [edx]
  001b3	8d 4d e0	 lea	 ecx, DWORD PTR $T13[ebp]
  001b6	51		 push	 ecx
  001b7	8b ca		 mov	 ecx, edx
; File C:\Anka2Project\Anka2Project\Source\Binary\extern\include\d3dx8math.inl

; 180  :     x = fx;

  001b9	f3 0f 11 45 e0	 movss	 DWORD PTR $T13[ebp], xmm0

; 181  :     y = fy;

  001be	f3 0f 11 4d e4	 movss	 DWORD PTR $T13[ebp+4], xmm1
; File C:\Anka2Project\Anka2Project\Source\Binary\source\UserInterface\PythonCharacterManager.cpp

; 927  : 			if (pWorld->isPhysicalCollision(c_rv3Src + v3Movement))

  001c3	8b 40 04	 mov	 eax, DWORD PTR [eax+4]
; File C:\Anka2Project\Anka2Project\Source\Binary\extern\include\d3dx8math.inl

; 182  :     z = fz;

  001c6	f3 0f 11 55 e8	 movss	 DWORD PTR $T13[ebp+8], xmm2
; File C:\Anka2Project\Anka2Project\Source\Binary\source\UserInterface\PythonCharacterManager.cpp

; 927  : 			if (pWorld->isPhysicalCollision(c_rv3Src + v3Movement))

  001cb	ff d0		 call	 eax
  001cd	84 c0		 test	 al, al
  001cf	0f 85 9b 00 00
	00		 jne	 $LN238@FindVictim
; File C:\Anka2Project\Anka2Project\Source\Binary\extern\include\d3dx8math.inl

; 204  :     x += v.x;

  001d5	f3 0f 10 45 d0	 movss	 xmm0, DWORD PTR _v3Movement$$sroa$743$1$[ebp]
; File C:\Anka2Project\Anka2Project\Source\Binary\source\UserInterface\PythonCharacterManager.cpp

; 925  : 		for (int i = 0; i < whileCount; ++i)

  001da	47		 inc	 edi
; File C:\Anka2Project\Anka2Project\Source\Binary\extern\include\d3dx8math.inl

; 205  :     y += v.y;

  001db	f3 0f 10 4d cc	 movss	 xmm1, DWORD PTR _v3Movement$$sroa$742$1$[ebp]

; 206  :     z += v.z;

  001e0	f3 0f 10 55 c8	 movss	 xmm2, DWORD PTR _v3Movement$$sroa$741$1$[ebp]
; File C:\Anka2Project\Anka2Project\Source\Binary\source\UserInterface\PythonCharacterManager.cpp

; 925  : 		for (int i = 0; i < whileCount; ++i)

  001e5	8b 4d bc	 mov	 ecx, DWORD PTR _c_rv3Src$1$[ebp]
; File C:\Anka2Project\Anka2Project\Source\Binary\extern\include\d3dx8math.inl

; 204  :     x += v.x;

  001e8	f3 0f 58 45 a8	 addss	 xmm0, DWORD PTR _inc$36$sroa$740$1$[ebp]

; 205  :     y += v.y;

  001ed	f3 0f 58 4d a4	 addss	 xmm1, DWORD PTR _inc$36$sroa$739$1$[ebp]

; 206  :     z += v.z;

  001f2	f3 0f 58 55 c0	 addss	 xmm2, DWORD PTR _inc$36$sroa$737$1$[ebp]
  001f7	f3 0f 11 45 d0	 movss	 DWORD PTR _v3Movement$$sroa$743$1$[ebp], xmm0
  001fc	f3 0f 11 4d cc	 movss	 DWORD PTR _v3Movement$$sroa$742$1$[ebp], xmm1
  00201	f3 0f 11 55 c8	 movss	 DWORD PTR _v3Movement$$sroa$741$1$[ebp], xmm2
; File C:\Anka2Project\Anka2Project\Source\Binary\source\UserInterface\PythonCharacterManager.cpp

; 925  : 		for (int i = 0; i < whileCount; ++i)

  00206	83 ff 64	 cmp	 edi, 100		; 00000064H
  00209	7c 95		 jl	 SHORT $LL7@FindVictim

; 928  : 			{
; 929  : 				hasPhysicalBlock = true;
; 930  : 				break;
; 931  : 			}
; 932  : 			v3Movement += inc;
; 933  : 		}
; 934  : 		if (hasPhysicalBlock || CanAttackToTarget(pkInstMain, pkVictim))

  0020b	8b 7d b8	 mov	 edi, DWORD PTR _pkInstMain$GSCopy$1$[ebp]
  0020e	8b 4d c4	 mov	 ecx, DWORD PTR _this$GSCopy$1$[ebp]
  00211	56		 push	 esi
  00212	57		 push	 edi
  00213	e8 00 00 00 00	 call	 ?CanAttackToTarget@CPythonCharacterManager@@QAE_NPAVCInstanceBase@@0@Z ; CPythonCharacterManager::CanAttackToTarget
  00218	84 c0		 test	 al, al
  0021a	75 57		 jne	 SHORT $LN2@FindVictim

; 935  : 			continue;
; 936  : 		
; 937  : 		// StartPoint'e gre mesafe (maksimum menzil kontrol)
; 938  : 		const float fDistanceFromStart = GetDistanceNew(*startPoint, targetPos);

  0021c	8b 4b 0c	 mov	 ecx, DWORD PTR _startPoint$[ebx]
  0021f	8d 55 90	 lea	 edx, DWORD PTR _targetPos$[ebp]
  00222	e8 00 00 00 00	 call	 ?GetDistanceNew@@YAMABUD3DXVECTOR3@@0@Z ; GetDistanceNew

; 939  : 		if (fDistanceFromStart >= fMaxDistance)

  00227	0f 2f 45 a0	 comiss	 xmm0, DWORD PTR _fMaxDistance$1$[ebp]
  0022b	73 46		 jae	 SHORT $LN2@FindVictim

; 940  : 			continue;
; 941  : 		
; 942  : 		// Oyuncuya gre mesafe (ncelik - en yakn hedef seilecek)
; 943  : 		TPixelPosition mainPos;
; 944  : 		pkInstMain->NEW_GetPixelPosition(&mainPos);

  0022d	8d 45 84	 lea	 eax, DWORD PTR _mainPos$38[ebp]
  00230	8b cf		 mov	 ecx, edi
  00232	50		 push	 eax
  00233	e8 00 00 00 00	 call	 ?NEW_GetPixelPosition@CInstanceBase@@QAEXPAUD3DXVECTOR3@@@Z ; CInstanceBase::NEW_GetPixelPosition

; 945  : 		const float fDistanceFromPlayer = GetDistanceNew(mainPos, targetPos);

  00238	8d 55 90	 lea	 edx, DWORD PTR _targetPos$[ebp]
  0023b	8d 4d 84	 lea	 ecx, DWORD PTR _mainPos$38[ebp]
  0023e	e8 00 00 00 00	 call	 ?GetDistanceNew@@YAMABUD3DXVECTOR3@@0@Z ; GetDistanceNew
; File C:\Program Files\Microsoft Visual Studio\2022\Community\VC\Tools\MSVC\14.44.35207\include\vector

; 844  :         if (_Mylast != _My_data._Myend) {

  00243	8b 45 d8	 mov	 eax, DWORD PTR _m_vecVictimList$[ebp+4]
; File C:\Anka2Project\Anka2Project\Source\Binary\source\UserInterface\PythonCharacterManager.cpp

; 945  : 		const float fDistanceFromPlayer = GetDistanceNew(mainPos, targetPos);

  00246	f3 0f 11 45 c0	 movss	 DWORD PTR _fDistanceFromPlayer$41[ebp], xmm0
; File C:\Program Files\Microsoft Visual Studio\2022\Community\VC\Tools\MSVC\14.44.35207\include\vector

; 844  :         if (_Mylast != _My_data._Myend) {

  0024b	3b 45 dc	 cmp	 eax, DWORD PTR _m_vecVictimList$[ebp+8]
  0024e	74 0d		 je	 SHORT $LN161@FindVictim
; File C:\Program Files\Microsoft Visual Studio\2022\Community\VC\Tools\MSVC\14.44.35207\include\utility

; 274  :         : first(_STD forward<_Other1>(_Val1)), second(_STD forward<_Other2>(_Val2)) {

  00250	89 30		 mov	 DWORD PTR [eax], esi
  00252	f3 0f 11 40 04	 movss	 DWORD PTR [eax+4], xmm0
; File C:\Program Files\Microsoft Visual Studio\2022\Community\VC\Tools\MSVC\14.44.35207\include\vector

; 869  :         ++_Mylast;

  00257	83 45 d8 08	 add	 DWORD PTR _m_vecVictimList$[ebp+4], 8

; 845  :             return _Emplace_back_with_unused_capacity(_STD forward<_Valty>(_Val)...);

  0025b	eb 16		 jmp	 SHORT $LN2@FindVictim
$LN161@FindVictim:

; 846  :         }
; 847  : 
; 848  :         return *_Emplace_reallocate(_Mylast, _STD forward<_Valty>(_Val)...);

  0025d	8d 4d c0	 lea	 ecx, DWORD PTR _fDistanceFromPlayer$41[ebp]
  00260	51		 push	 ecx
  00261	8d 4d 9c	 lea	 ecx, DWORD PTR _pkVictim$39[ebp]
  00264	51		 push	 ecx
  00265	50		 push	 eax
  00266	8d 4d d4	 lea	 ecx, DWORD PTR _m_vecVictimList$[ebp]
  00269	e8 00 00 00 00	 call	 ??$_Emplace_reallocate@AAPAVCInstanceBase@@ABM@?$vector@U?$pair@PAVCInstanceBase@@M@std@@V?$allocator@U?$pair@PAVCInstanceBase@@M@std@@@2@@std@@AAEPAU?$pair@PAVCInstanceBase@@M@1@QAU21@AAPAVCInstanceBase@@ABM@Z ; std::vector<std::pair<CInstanceBase *,float>,std::allocator<std::pair<CInstanceBase *,float> > >::_Emplace_reallocate<CInstanceBase * &,float const &>
; File C:\Anka2Project\Anka2Project\Source\Binary\source\UserInterface\PythonCharacterManager.cpp

; 927  : 			if (pWorld->isPhysicalCollision(c_rv3Src + v3Movement))

  0026e	eb 03		 jmp	 SHORT $LN2@FindVictim
$LN238@FindVictim:
  00270	8b 7d b8	 mov	 edi, DWORD PTR _pkInstMain$GSCopy$1$[ebp]
$LN2@FindVictim:
; File C:\Program Files\Microsoft Visual Studio\2022\Community\VC\Tools\MSVC\14.44.35207\include\xtree

; 198  :         _Mybase::operator++();

  00273	8d 4d b4	 lea	 ecx, DWORD PTR _itor$40[ebp]
  00276	e8 00 00 00 00	 call	 ??E?$_Tree_unchecked_const_iterator@V?$_Tree_val@U?$_Tree_simple_types@U?$pair@$$CBKPAVCInstanceBase@@@std@@@std@@@std@@U_Iterator_base0@2@@std@@QAEAAV01@XZ ; std::_Tree_unchecked_const_iterator<std::_Tree_val<std::_Tree_simple_types<std::pair<unsigned long const ,CInstanceBase *> > >,std::_Iterator_base0>::operator++

; 232  :         return this->_Ptr == _Right._Ptr;

  0027b	8b 4d c4	 mov	 ecx, DWORD PTR _this$GSCopy$1$[ebp]
  0027e	8b 45 b4	 mov	 eax, DWORD PTR _itor$40[ebp]
  00281	3b 41 20	 cmp	 eax, DWORD PTR [ecx+32]
; File C:\Anka2Project\Anka2Project\Source\Binary\source\UserInterface\PythonCharacterManager.cpp

; 909  : 	for (TCharacterInstanceMap::iterator itor = m_kAliveInstMap.begin(); itor != m_kAliveInstMap.end(); ++itor)

  00284	0f 85 38 fe ff
	ff		 jne	 $LL4@FindVictim
  0028a	8b 75 d4	 mov	 esi, DWORD PTR _m_vecVictimList$[ebp]
$LN3@FindVictim:
; File C:\Program Files\Microsoft Visual Studio\2022\Community\VC\Tools\MSVC\14.44.35207\include\vector

; 1915 :         return static_cast<size_type>(_My_data._Mylast - _My_data._Myfirst);

  0028d	8b 55 d8	 mov	 edx, DWORD PTR _m_vecVictimList$[ebp+4]
  00290	8b c2		 mov	 eax, edx
  00292	2b c6		 sub	 eax, esi
  00294	c1 f8 03	 sar	 eax, 3
; File C:\Anka2Project\Anka2Project\Source\Binary\source\UserInterface\PythonCharacterManager.cpp

; 950  : 	if (m_vecVictimList.size())

  00297	85 c0		 test	 eax, eax
  00299	74 40		 je	 SHORT $LN20@FindVictim

; 951  : 	{
; 952  : 		// En yakn hedefi se (oyuncuya gre mesafe)
; 953  : 		if (m_vecVictimList.size() > 1)

  0029b	83 f8 01	 cmp	 eax, 1
  0029e	76 35		 jbe	 SHORT $LN21@FindVictim
; File C:\Program Files\Microsoft Visual Studio\2022\Community\VC\Tools\MSVC\14.44.35207\include\algorithm

; 8403 :     _STD _Sort_unchecked(_UFirst, _ULast, _ULast - _UFirst, _STD _Pass_fn(_Pred));

  002a0	68 00 00 00 00	 push	 OFFSET ?FindLowerDistance@@YA_NABU?$pair@PAVCInstanceBase@@M@std@@0@Z ; FindLowerDistance
  002a5	50		 push	 eax
  002a6	8b ce		 mov	 ecx, esi
  002a8	e8 00 00 00 00	 call	 ??$_Sort_unchecked@PAU?$pair@PAVCInstanceBase@@M@std@@P6A_NABU12@0@Z@std@@YAXPAU?$pair@PAVCInstanceBase@@M@0@0HP6A_NABU10@1@Z@Z ; std::_Sort_unchecked<std::pair<CInstanceBase *,float> *,bool (__cdecl*)(std::pair<CInstanceBase *,float> const &,std::pair<CInstanceBase *,float> const &)>
; File C:\Program Files\Microsoft Visual Studio\2022\Community\VC\Tools\MSVC\14.44.35207\include\vector

; 1915 :         return static_cast<size_type>(_My_data._Mylast - _My_data._Myfirst);

  002ad	8b 75 d8	 mov	 esi, DWORD PTR _m_vecVictimList$[ebp+4]
; File C:\Program Files\Microsoft Visual Studio\2022\Community\VC\Tools\MSVC\14.44.35207\include\algorithm

; 8403 :     _STD _Sort_unchecked(_UFirst, _ULast, _ULast - _UFirst, _STD _Pass_fn(_Pred));

  002b0	83 c4 08	 add	 esp, 8
; File C:\Program Files\Microsoft Visual Studio\2022\Community\VC\Tools\MSVC\14.44.35207\include\vector

; 1915 :         return static_cast<size_type>(_My_data._Mylast - _My_data._Myfirst);

  002b3	2b 75 d4	 sub	 esi, DWORD PTR _m_vecVictimList$[ebp]
  002b6	c1 fe 03	 sar	 esi, 3
; File C:\Anka2Project\Anka2Project\Source\Binary\source\UserInterface\PythonCharacterManager.cpp

; 961  : 			const int randomIndex = (std::rand() % randomCount);

  002b9	e8 00 00 00 00	 call	 _rand
  002be	b9 03 00 00 00	 mov	 ecx, 3
  002c3	99		 cdq
  002c4	3b f1		 cmp	 esi, ecx
  002c6	0f 43 f1	 cmovae	 esi, ecx
  002c9	f7 fe		 idiv	 esi

; 962  : 			return m_vecVictimList[randomIndex].first;

  002cb	8b 75 d4	 mov	 esi, DWORD PTR _m_vecVictimList$[ebp]
  002ce	8d 3c d6	 lea	 edi, DWORD PTR [esi+edx*8]
  002d1	8b 3f		 mov	 edi, DWORD PTR [edi]
  002d3	eb 08		 jmp	 SHORT $LN27@FindVictim
$LN21@FindVictim:

; 963  : 		}
; 964  : 		return m_vecVictimList[0].first;

  002d5	8b fe		 mov	 edi, esi
  002d7	8b 3f		 mov	 edi, DWORD PTR [edi]
  002d9	eb 02		 jmp	 SHORT $LN27@FindVictim
$LN20@FindVictim:

; 966  : 	return NULL;

  002db	33 ff		 xor	 edi, edi
$LN27@FindVictim:
; File C:\Program Files\Microsoft Visual Studio\2022\Community\VC\Tools\MSVC\14.44.35207\include\vector

; 2090 :         if (_Myfirst) { // destroy and deallocate old array

  002dd	85 f6		 test	 esi, esi
  002df	74 2c		 je	 SHORT $LN71@FindVictim

; 2093 :             _Al.deallocate(_Myfirst, static_cast<size_type>(_Myend - _Myfirst));

  002e1	8b 4d dc	 mov	 ecx, DWORD PTR _m_vecVictimList$[ebp+8]
; File C:\Program Files\Microsoft Visual Studio\2022\Community\VC\Tools\MSVC\14.44.35207\include\xmemory

; 985  :         _STD _Deallocate<_New_alignof<_Ty>>(_Ptr, sizeof(_Ty) * _Count);

  002e4	8b c6		 mov	 eax, esi
; File C:\Program Files\Microsoft Visual Studio\2022\Community\VC\Tools\MSVC\14.44.35207\include\vector

; 2093 :             _Al.deallocate(_Myfirst, static_cast<size_type>(_Myend - _Myfirst));

  002e6	2b ce		 sub	 ecx, esi
; File C:\Program Files\Microsoft Visual Studio\2022\Community\VC\Tools\MSVC\14.44.35207\include\xmemory

; 985  :         _STD _Deallocate<_New_alignof<_Ty>>(_Ptr, sizeof(_Ty) * _Count);

  002e8	83 e1 f8	 and	 ecx, -8			; fffffff8H

; 284  :         if (_Bytes >= _Big_allocation_threshold) {

  002eb	81 f9 00 10 00
	00		 cmp	 ecx, 4096		; 00001000H
  002f1	72 10		 jb	 SHORT $LN79@FindVictim

; 205  :     const uintptr_t _Ptr_container   = _Ptr_user[-1];

  002f3	8b 70 fc	 mov	 esi, DWORD PTR [eax-4]
  002f6	83 c1 23	 add	 ecx, 35			; 00000023H
  002f9	2b c6		 sub	 eax, esi

; 219  :     _STL_VERIFY(_Back_shift >= _Min_back_shift && _Back_shift <= _Non_user_size, "invalid argument");

  002fb	83 c0 fc	 add	 eax, -4			; fffffffcH
  002fe	83 f8 1f	 cmp	 eax, 31			; 0000001fH
  00301	77 30		 ja	 SHORT $LN242@FindVictim
$LN79@FindVictim:

; 289  :         ::operator delete(_Ptr, _Bytes);

  00303	51		 push	 ecx
  00304	56		 push	 esi
  00305	e8 00 00 00 00	 call	 ??3@YAXPAXI@Z		; operator delete
  0030a	83 c4 08	 add	 esp, 8
$LN71@FindVictim:
; File C:\Anka2Project\Anka2Project\Source\Binary\source\UserInterface\PythonCharacterManager.cpp

; 966  : 	return NULL;

  0030d	8b c7		 mov	 eax, edi
  0030f	eb 02		 jmp	 SHORT $LN1@FindVictim
$LN235@FindVictim:

; 902  : 		return NULL;

  00311	33 c0		 xor	 eax, eax
$LN1@FindVictim:

; 967  : }

  00313	8b 4d f4	 mov	 ecx, DWORD PTR __$EHRec$[ebp]
  00316	64 89 0d 00 00
	00 00		 mov	 DWORD PTR fs:0, ecx
  0031d	59		 pop	 ecx
  0031e	5f		 pop	 edi
  0031f	5e		 pop	 esi
  00320	8b 4d ec	 mov	 ecx, DWORD PTR __$ArrayPad$[ebp]
  00323	33 cd		 xor	 ecx, ebp
  00325	e8 00 00 00 00	 call	 @__security_check_cookie@4
  0032a	8b e5		 mov	 esp, ebp
  0032c	5d		 pop	 ebp
  0032d	8b e3		 mov	 esp, ebx
  0032f	5b		 pop	 ebx
  00330	c2 10 00	 ret	 16			; 00000010H
$LN242@FindVictim:
; File C:\Program Files\Microsoft Visual Studio\2022\Community\VC\Tools\MSVC\14.44.35207\include\xmemory

; 219  :     _STL_VERIFY(_Back_shift >= _Min_back_shift && _Back_shift <= _Non_user_size, "invalid argument");

  00333	6a 00		 push	 0
  00335	6a 00		 push	 0
  00337	6a 00		 push	 0
  00339	6a 00		 push	 0
  0033b	6a 00		 push	 0
  0033d	e8 00 00 00 00	 call	 __invoke_watson
$LN240@FindVictim:
  00342	cc		 int	 3
_TEXT	ENDS
;	COMDAT text$x
text$x	SEGMENT
__unwindfunclet$?FindVictim@CPythonCharacterManager@@QAEPAVCInstanceBase@@PAV2@MPAUD3DXVECTOR3@@_N2@Z$0:
  00000	8d 4d d4	 lea	 ecx, DWORD PTR _m_vecVictimList$[ebp]
  00003	e9 00 00 00 00	 jmp	 ??1?$vector@U?$pair@PAVCInstanceBase@@M@std@@V?$allocator@U?$pair@PAVCInstanceBase@@M@std@@@2@@std@@QAE@XZ ; std::vector<std::pair<CInstanceBase *,float>,std::allocator<std::pair<CInstanceBase *,float> > >::~vector<std::pair<CInstanceBase *,float>,std::allocator<std::pair<CInstanceBase *,float> > >
  00008	cc		 int	 3
  00009	cc		 int	 3
  0000a	cc		 int	 3
  0000b	cc		 int	 3
  0000c	cc		 int	 3
__ehhandler$?FindVictim@CPythonCharacterManager@@QAEPAVCInstanceBase@@PAV2@MPAUD3DXVECTOR3@@_N2@Z:
  0000d	90		 npad	 1
  0000e	90		 npad	 1
  0000f	8b 54 24 08	 mov	 edx, DWORD PTR [esp+8]
  00013	8d 42 0c	 lea	 eax, DWORD PTR [edx+12]
  00016	8b 4a 80	 mov	 ecx, DWORD PTR [edx-128]
  00019	33 c8		 xor	 ecx, eax
  0001b	e8 00 00 00 00	 call	 @__security_check_cookie@4
  00020	8b 4a f8	 mov	 ecx, DWORD PTR [edx-8]
  00023	33 c8		 xor	 ecx, eax
  00025	e8 00 00 00 00	 call	 @__security_check_cookie@4
  0002a	b8 00 00 00 00	 mov	 eax, OFFSET __ehfuncinfo$?FindVictim@CPythonCharacterManager@@QAEPAVCInstanceBase@@PAV2@MPAUD3DXVECTOR3@@_N2@Z
  0002f	e9 00 00 00 00	 jmp	 ___CxxFrameHandler3
text$x	ENDS
?FindVictim@CPythonCharacterManager@@QAEPAVCInstanceBase@@PAV2@MPAUD3DXVECTOR3@@_N2@Z ENDP ; CPythonCharacterManager::FindVictim
; Function compile flags: /Ogtp
; File C:\Program Files\Microsoft Visual Studio\2022\Community\VC\Tools\MSVC\14.44.35207\include\algorithm
; File C:\Program Files\Microsoft Visual Studio\2022\Community\VC\Tools\MSVC\14.44.35207\include\xtree
; File C:\Program Files\Microsoft Visual Studio\2022\Community\VC\Tools\MSVC\14.44.35207\include\algorithm
; File C:\Program Files\Microsoft Visual Studio\2022\Community\VC\Tools\MSVC\14.44.35207\include\xtree
; File C:\Program Files\Microsoft Visual Studio\2022\Community\VC\Tools\MSVC\14.44.35207\include\algorithm
; File C:\Anka2Project\Anka2Project\Source\Binary\source\UserInterface\PythonCharacterManager.cpp
; File C:\Program Files\Microsoft Visual Studio\2022\Community\VC\Tools\MSVC\14.44.35207\include\xtree
; File C:\Program Files\Microsoft Visual Studio\2022\Community\VC\Tools\MSVC\14.44.35207\include\algorithm
;	COMDAT ??$for_each@V?$_Tree_iterator@V?$_Tree_val@U?$_Tree_simple_types@U?$pair@$$CBKPAVCInstanceBase@@@std@@@std@@@std@@@std@@UFCharacterManagerCharacterInstanceDeform@@@std@@YA?AUFCharacterManagerCharacterInstanceDeform@@V?$_Tree_iterator@V?$_Tree_val@U?$_Tree_simple_types@U?$pair@$$CBKPAVCInstanceBase@@@std@@@std@@@std@@@0@0U1@@Z
_TEXT	SEGMENT
__UFirst$ = -4						; size = 4
__First$ = 8						; size = 4
__Last$ = 12						; size = 4
__Func$ = 16						; size = 1
??$for_each@V?$_Tree_iterator@V?$_Tree_val@U?$_Tree_simple_types@U?$pair@$$CBKPAVCInstanceBase@@@std@@@std@@@std@@@std@@UFCharacterManagerCharacterInstanceDeform@@@std@@YA?AUFCharacterManagerCharacterInstanceDeform@@V?$_Tree_iterator@V?$_Tree_val@U?$_Tree_simple_types@U?$pair@$$CBKPAVCInstanceBase@@@std@@@std@@@std@@@0@0U1@@Z PROC ; std::for_each<std::_Tree_iterator<std::_Tree_val<std::_Tree_simple_types<std::pair<unsigned long const ,CInstanceBase *> > > >,FCharacterManagerCharacterInstanceDeform>, COMDAT

; 397  : _CONSTEXPR20 _Fn for_each(_InIt _First, _InIt _Last, _Fn _Func) { // perform function for each element [_First, _Last)

  00000	55		 push	 ebp
  00001	8b ec		 mov	 ebp, esp
  00003	51		 push	 ecx
; File C:\Program Files\Microsoft Visual Studio\2022\Community\VC\Tools\MSVC\14.44.35207\include\xtree

; 37   :     _Tree_unchecked_const_iterator(_Nodeptr _Pnode, const _Mytree* _Plist) noexcept : _Ptr(_Pnode) {

  00004	8b 45 08	 mov	 eax, DWORD PTR __First$[ebp]
; File C:\Program Files\Microsoft Visual Studio\2022\Community\VC\Tools\MSVC\14.44.35207\include\algorithm

; 397  : _CONSTEXPR20 _Fn for_each(_InIt _First, _InIt _Last, _Fn _Func) { // perform function for each element [_First, _Last)

  00007	56		 push	 esi
; File C:\Program Files\Microsoft Visual Studio\2022\Community\VC\Tools\MSVC\14.44.35207\include\xtree

; 37   :     _Tree_unchecked_const_iterator(_Nodeptr _Pnode, const _Mytree* _Plist) noexcept : _Ptr(_Pnode) {

  00008	8b 75 0c	 mov	 esi, DWORD PTR __Last$[ebp]
  0000b	89 45 fc	 mov	 DWORD PTR __UFirst$[ebp], eax
  0000e	3b c6		 cmp	 eax, esi
; File C:\Program Files\Microsoft Visual Studio\2022\Community\VC\Tools\MSVC\14.44.35207\include\algorithm

; 401  :     for (; _UFirst != _ULast; ++_UFirst) {

  00010	74 17		 je	 SHORT $LN51@for_each
$LL4@for_each:
; File C:\Anka2Project\Anka2Project\Source\Binary\source\UserInterface\PythonCharacterManager.cpp

; 261  : 		cr_Pair.second->Deform();

  00012	8b 48 14	 mov	 ecx, DWORD PTR [eax+20]
  00015	e8 00 00 00 00	 call	 ?Deform@CInstanceBase@@QAEXXZ ; CInstanceBase::Deform
; File C:\Program Files\Microsoft Visual Studio\2022\Community\VC\Tools\MSVC\14.44.35207\include\xtree

; 142  :         _Mybase::operator++();

  0001a	8d 4d fc	 lea	 ecx, DWORD PTR __UFirst$[ebp]
  0001d	e8 00 00 00 00	 call	 ??E?$_Tree_unchecked_const_iterator@V?$_Tree_val@U?$_Tree_simple_types@U?$pair@$$CBKPAVCInstanceBase@@@std@@@std@@@std@@U_Iterator_base0@2@@std@@QAEAAV01@XZ ; std::_Tree_unchecked_const_iterator<std::_Tree_val<std::_Tree_simple_types<std::pair<unsigned long const ,CInstanceBase *> > >,std::_Iterator_base0>::operator++

; 96   :         return _Ptr == _Right._Ptr;

  00022	8b 45 fc	 mov	 eax, DWORD PTR __UFirst$[ebp]
  00025	3b c6		 cmp	 eax, esi
; File C:\Program Files\Microsoft Visual Studio\2022\Community\VC\Tools\MSVC\14.44.35207\include\algorithm

; 401  :     for (; _UFirst != _ULast; ++_UFirst) {

  00027	75 e9		 jne	 SHORT $LL4@for_each
$LN51@for_each:

; 402  :         _Func(*_UFirst);
; 403  :     }
; 404  : 
; 405  :     return _Func;
; 406  : }

  00029	8a 45 10	 mov	 al, BYTE PTR __Func$[ebp]
  0002c	5e		 pop	 esi
  0002d	8b e5		 mov	 esp, ebp
  0002f	5d		 pop	 ebp
  00030	c3		 ret	 0
??$for_each@V?$_Tree_iterator@V?$_Tree_val@U?$_Tree_simple_types@U?$pair@$$CBKPAVCInstanceBase@@@std@@@std@@@std@@@std@@UFCharacterManagerCharacterInstanceDeform@@@std@@YA?AUFCharacterManagerCharacterInstanceDeform@@V?$_Tree_iterator@V?$_Tree_val@U?$_Tree_simple_types@U?$pair@$$CBKPAVCInstanceBase@@@std@@@std@@@std@@@0@0U1@@Z ENDP ; std::for_each<std::_Tree_iterator<std::_Tree_val<std::_Tree_simple_types<std::pair<unsigned long const ,CInstanceBase *> > > >,FCharacterManagerCharacterInstanceDeform>
_TEXT	ENDS
; Function compile flags: /Ogtp
; File C:\Program Files\Microsoft Visual Studio\2022\Community\VC\Tools\MSVC\14.44.35207\include\algorithm
; File C:\Program Files\Microsoft Visual Studio\2022\Community\VC\Tools\MSVC\14.44.35207\include\list
; File C:\Program Files\Microsoft Visual Studio\2022\Community\VC\Tools\MSVC\14.44.35207\include\algorithm
; File C:\Program Files\Microsoft Visual Studio\2022\Community\VC\Tools\MSVC\14.44.35207\include\list
; File C:\Program Files\Microsoft Visual Studio\2022\Community\VC\Tools\MSVC\14.44.35207\include\algorithm
; File C:\Anka2Project\Anka2Project\Source\Binary\source\UserInterface\PythonCharacterManager.cpp
; File C:\Program Files\Microsoft Visual Studio\2022\Community\VC\Tools\MSVC\14.44.35207\include\list
; File C:\Program Files\Microsoft Visual Studio\2022\Community\VC\Tools\MSVC\14.44.35207\include\algorithm
;	COMDAT ??$for_each@V?$_List_iterator@V?$_List_val@U?$_List_simple_types@PAVCInstanceBase@@@std@@@std@@@std@@UFCharacterManagerCharacterInstanceListDeform@@@std@@YA?AUFCharacterManagerCharacterInstanceListDeform@@V?$_List_iterator@V?$_List_val@U?$_List_simple_types@PAVCInstanceBase@@@std@@@std@@@0@0U1@@Z
_TEXT	SEGMENT
__First$ = 8						; size = 4
__Last$ = 12						; size = 4
__Func$ = 16						; size = 1
??$for_each@V?$_List_iterator@V?$_List_val@U?$_List_simple_types@PAVCInstanceBase@@@std@@@std@@@std@@UFCharacterManagerCharacterInstanceListDeform@@@std@@YA?AUFCharacterManagerCharacterInstanceListDeform@@V?$_List_iterator@V?$_List_val@U?$_List_simple_types@PAVCInstanceBase@@@std@@@std@@@0@0U1@@Z PROC ; std::for_each<std::_List_iterator<std::_List_val<std::_List_simple_types<CInstanceBase *> > >,FCharacterManagerCharacterInstanceListDeform>, COMDAT

; 397  : _CONSTEXPR20 _Fn for_each(_InIt _First, _InIt _Last, _Fn _Func) { // perform function for each element [_First, _Last)

  00000	55		 push	 ebp
  00001	8b ec		 mov	 ebp, esp
  00003	56		 push	 esi
; File C:\Program Files\Microsoft Visual Studio\2022\Community\VC\Tools\MSVC\14.44.35207\include\list

; 37   :     _List_unchecked_const_iterator(_Nodeptr _Pnode, const _Mylist* _Plist) noexcept : _Ptr(_Pnode) {

  00004	8b 75 08	 mov	 esi, DWORD PTR __First$[ebp]
; File C:\Program Files\Microsoft Visual Studio\2022\Community\VC\Tools\MSVC\14.44.35207\include\algorithm

; 397  : _CONSTEXPR20 _Fn for_each(_InIt _First, _InIt _Last, _Fn _Func) { // perform function for each element [_First, _Last)

  00007	57		 push	 edi
; File C:\Program Files\Microsoft Visual Studio\2022\Community\VC\Tools\MSVC\14.44.35207\include\list

; 37   :     _List_unchecked_const_iterator(_Nodeptr _Pnode, const _Mylist* _Plist) noexcept : _Ptr(_Pnode) {

  00008	8b 7d 0c	 mov	 edi, DWORD PTR __Last$[ebp]

; 72   :         return _Ptr == _Right._Ptr;

  0000b	3b f7		 cmp	 esi, edi
; File C:\Program Files\Microsoft Visual Studio\2022\Community\VC\Tools\MSVC\14.44.35207\include\algorithm

; 401  :     for (; _UFirst != _ULast; ++_UFirst) {

  0000d	74 0f		 je	 SHORT $LN51@for_each
  0000f	90		 npad	 1
$LL4@for_each:
; File C:\Anka2Project\Anka2Project\Source\Binary\source\UserInterface\PythonCharacterManager.cpp

; 269  : 		pInstance->Deform();

  00010	8b 4e 08	 mov	 ecx, DWORD PTR [esi+8]
  00013	e8 00 00 00 00	 call	 ?Deform@CInstanceBase@@QAEXXZ ; CInstanceBase::Deform
; File C:\Program Files\Microsoft Visual Studio\2022\Community\VC\Tools\MSVC\14.44.35207\include\list

; 50   :         _Ptr = _Ptr->_Next;

  00018	8b 36		 mov	 esi, DWORD PTR [esi]

; 72   :         return _Ptr == _Right._Ptr;

  0001a	3b f7		 cmp	 esi, edi
; File C:\Program Files\Microsoft Visual Studio\2022\Community\VC\Tools\MSVC\14.44.35207\include\algorithm

; 401  :     for (; _UFirst != _ULast; ++_UFirst) {

  0001c	75 f2		 jne	 SHORT $LL4@for_each
$LN51@for_each:

; 402  :         _Func(*_UFirst);
; 403  :     }
; 404  : 
; 405  :     return _Func;
; 406  : }

  0001e	8a 45 10	 mov	 al, BYTE PTR __Func$[ebp]
  00021	5f		 pop	 edi
  00022	5e		 pop	 esi
  00023	5d		 pop	 ebp
  00024	c3		 ret	 0
??$for_each@V?$_List_iterator@V?$_List_val@U?$_List_simple_types@PAVCInstanceBase@@@std@@@std@@@std@@UFCharacterManagerCharacterInstanceListDeform@@@std@@YA?AUFCharacterManagerCharacterInstanceListDeform@@V?$_List_iterator@V?$_List_val@U?$_List_simple_types@PAVCInstanceBase@@@std@@@std@@@0@0U1@@Z ENDP ; std::for_each<std::_List_iterator<std::_List_val<std::_List_simple_types<CInstanceBase *> > >,FCharacterManagerCharacterInstanceListDeform>
_TEXT	ENDS
; Function compile flags: /Ogtp
; File C:\Program Files\Microsoft Visual Studio\2022\Community\VC\Tools\MSVC\14.44.35207\include\algorithm
;	COMDAT ??$sort@V?$_Vector_iterator@V?$_Vector_val@U?$_Simple_types@PAVCInstanceBase@@@std@@@std@@@std@@ULessCharacterInstancePtrRenderOrder@@@std@@YAXV?$_Vector_iterator@V?$_Vector_val@U?$_Simple_types@PAVCInstanceBase@@@std@@@std@@@0@0ULessCharacterInstancePtrRenderOrder@@@Z
_TEXT	SEGMENT
__First$ = 8						; size = 4
__Last$ = 12						; size = 4
__Pred$ = 16						; size = 1
??$sort@V?$_Vector_iterator@V?$_Vector_val@U?$_Simple_types@PAVCInstanceBase@@@std@@@std@@@std@@ULessCharacterInstancePtrRenderOrder@@@std@@YAXV?$_Vector_iterator@V?$_Vector_val@U?$_Simple_types@PAVCInstanceBase@@@std@@@std@@@0@0ULessCharacterInstancePtrRenderOrder@@@Z PROC ; std::sort<std::_Vector_iterator<std::_Vector_val<std::_Simple_types<CInstanceBase *> > >,LessCharacterInstancePtrRenderOrder>, COMDAT

; 8399 : _CONSTEXPR20 void sort(const _RanIt _First, const _RanIt _Last, _Pr _Pred) { // order [_First, _Last)

  00000	55		 push	 ebp
  00001	8b ec		 mov	 ebp, esp

; 8400 :     _STD _Adl_verify_range(_First, _Last);
; 8401 :     const auto _UFirst = _STD _Get_unwrapped(_First);
; 8402 :     const auto _ULast  = _STD _Get_unwrapped(_Last);
; 8403 :     _STD _Sort_unchecked(_UFirst, _ULast, _ULast - _UFirst, _STD _Pass_fn(_Pred));

  00003	8b 55 0c	 mov	 edx, DWORD PTR __Last$[ebp]
  00006	8b c2		 mov	 eax, edx
  00008	8b 4d 08	 mov	 ecx, DWORD PTR __First$[ebp]
  0000b	2b c1		 sub	 eax, ecx
  0000d	ff 75 10	 push	 DWORD PTR __Pred$[ebp]
  00010	c1 f8 02	 sar	 eax, 2
  00013	50		 push	 eax
  00014	e8 00 00 00 00	 call	 ??$_Sort_unchecked@PAPAVCInstanceBase@@ULessCharacterInstancePtrRenderOrder@@@std@@YAXPAPAVCInstanceBase@@0HULessCharacterInstancePtrRenderOrder@@@Z ; std::_Sort_unchecked<CInstanceBase * *,LessCharacterInstancePtrRenderOrder>
  00019	83 c4 08	 add	 esp, 8

; 8404 : }

  0001c	5d		 pop	 ebp
  0001d	c3		 ret	 0
??$sort@V?$_Vector_iterator@V?$_Vector_val@U?$_Simple_types@PAVCInstanceBase@@@std@@@std@@@std@@ULessCharacterInstancePtrRenderOrder@@@std@@YAXV?$_Vector_iterator@V?$_Vector_val@U?$_Simple_types@PAVCInstanceBase@@@std@@@std@@@0@0ULessCharacterInstancePtrRenderOrder@@@Z ENDP ; std::sort<std::_Vector_iterator<std::_Vector_val<std::_Simple_types<CInstanceBase *> > >,LessCharacterInstancePtrRenderOrder>
_TEXT	ENDS
; Function compile flags: /Ogtp
; File C:\Program Files\Microsoft Visual Studio\2022\Community\VC\Tools\MSVC\14.44.35207\include\algorithm
; File C:\Anka2Project\Anka2Project\Source\Binary\source\UserInterface\PythonCharacterManager.cpp
; File C:\Program Files\Microsoft Visual Studio\2022\Community\VC\Tools\MSVC\14.44.35207\include\algorithm
;	COMDAT ??$for_each@V?$_Vector_iterator@V?$_Vector_val@U?$_Simple_types@PAVCInstanceBase@@@std@@@std@@@std@@UFCharacterInstanceRender@@@std@@YA?AUFCharacterInstanceRender@@V?$_Vector_iterator@V?$_Vector_val@U?$_Simple_types@PAVCInstanceBase@@@std@@@std@@@0@0U1@@Z
_TEXT	SEGMENT
__First$ = 8						; size = 4
__Last$ = 12						; size = 4
__Func$ = 16						; size = 1
??$for_each@V?$_Vector_iterator@V?$_Vector_val@U?$_Simple_types@PAVCInstanceBase@@@std@@@std@@@std@@UFCharacterInstanceRender@@@std@@YA?AUFCharacterInstanceRender@@V?$_Vector_iterator@V?$_Vector_val@U?$_Simple_types@PAVCInstanceBase@@@std@@@std@@@0@0U1@@Z PROC ; std::for_each<std::_Vector_iterator<std::_Vector_val<std::_Simple_types<CInstanceBase *> > >,FCharacterInstanceRender>, COMDAT

; 397  : _CONSTEXPR20 _Fn for_each(_InIt _First, _InIt _Last, _Fn _Func) { // perform function for each element [_First, _Last)

  00000	55		 push	 ebp
  00001	8b ec		 mov	 ebp, esp
  00003	56		 push	 esi

; 398  :     _STD _Adl_verify_range(_First, _Last);
; 399  :     auto _UFirst      = _STD _Get_unwrapped(_First);

  00004	8b 75 08	 mov	 esi, DWORD PTR __First$[ebp]
  00007	57		 push	 edi

; 400  :     const auto _ULast = _STD _Get_unwrapped(_Last);

  00008	8b 7d 0c	 mov	 edi, DWORD PTR __Last$[ebp]

; 401  :     for (; _UFirst != _ULast; ++_UFirst) {

  0000b	3b f7		 cmp	 esi, edi
  0000d	74 0f		 je	 SHORT $LN12@for_each
  0000f	90		 npad	 1
$LL4@for_each:
; File C:\Anka2Project\Anka2Project\Source\Binary\source\UserInterface\PythonCharacterManager.cpp

; 345  : 		pInstance->Render();

  00010	8b 0e		 mov	 ecx, DWORD PTR [esi]
  00012	e8 00 00 00 00	 call	 ?Render@CInstanceBase@@QAEXXZ ; CInstanceBase::Render
; File C:\Program Files\Microsoft Visual Studio\2022\Community\VC\Tools\MSVC\14.44.35207\include\algorithm

; 401  :     for (; _UFirst != _ULast; ++_UFirst) {

  00017	83 c6 04	 add	 esi, 4
  0001a	3b f7		 cmp	 esi, edi
  0001c	75 f2		 jne	 SHORT $LL4@for_each
$LN12@for_each:

; 402  :         _Func(*_UFirst);
; 403  :     }
; 404  : 
; 405  :     return _Func;
; 406  : }

  0001e	8a 45 10	 mov	 al, BYTE PTR __Func$[ebp]
  00021	5f		 pop	 edi
  00022	5e		 pop	 esi
  00023	5d		 pop	 ebp
  00024	c3		 ret	 0
??$for_each@V?$_Vector_iterator@V?$_Vector_val@U?$_Simple_types@PAVCInstanceBase@@@std@@@std@@@std@@UFCharacterInstanceRender@@@std@@YA?AUFCharacterInstanceRender@@V?$_Vector_iterator@V?$_Vector_val@U?$_Simple_types@PAVCInstanceBase@@@std@@@std@@@0@0U1@@Z ENDP ; std::for_each<std::_Vector_iterator<std::_Vector_val<std::_Simple_types<CInstanceBase *> > >,FCharacterInstanceRender>
_TEXT	ENDS
; Function compile flags: /Ogtp
; File C:\Program Files\Microsoft Visual Studio\2022\Community\VC\Tools\MSVC\14.44.35207\include\algorithm
; File C:\Anka2Project\Anka2Project\Source\Binary\source\UserInterface\PythonCharacterManager.cpp
; File C:\Program Files\Microsoft Visual Studio\2022\Community\VC\Tools\MSVC\14.44.35207\include\algorithm
;	COMDAT ??$for_each@V?$_Vector_iterator@V?$_Vector_val@U?$_Simple_types@PAVCInstanceBase@@@std@@@std@@@std@@UFCharacterInstanceRenderTrace@@@std@@YA?AUFCharacterInstanceRenderTrace@@V?$_Vector_iterator@V?$_Vector_val@U?$_Simple_types@PAVCInstanceBase@@@std@@@std@@@0@0U1@@Z
_TEXT	SEGMENT
__First$ = 8						; size = 4
__Last$ = 12						; size = 4
__Func$ = 16						; size = 1
??$for_each@V?$_Vector_iterator@V?$_Vector_val@U?$_Simple_types@PAVCInstanceBase@@@std@@@std@@@std@@UFCharacterInstanceRenderTrace@@@std@@YA?AUFCharacterInstanceRenderTrace@@V?$_Vector_iterator@V?$_Vector_val@U?$_Simple_types@PAVCInstanceBase@@@std@@@std@@@0@0U1@@Z PROC ; std::for_each<std::_Vector_iterator<std::_Vector_val<std::_Simple_types<CInstanceBase *> > >,FCharacterInstanceRenderTrace>, COMDAT

; 397  : _CONSTEXPR20 _Fn for_each(_InIt _First, _InIt _Last, _Fn _Func) { // perform function for each element [_First, _Last)

  00000	55		 push	 ebp
  00001	8b ec		 mov	 ebp, esp
  00003	56		 push	 esi

; 398  :     _STD _Adl_verify_range(_First, _Last);
; 399  :     auto _UFirst      = _STD _Get_unwrapped(_First);

  00004	8b 75 08	 mov	 esi, DWORD PTR __First$[ebp]
  00007	57		 push	 edi

; 400  :     const auto _ULast = _STD _Get_unwrapped(_Last);

  00008	8b 7d 0c	 mov	 edi, DWORD PTR __Last$[ebp]

; 401  :     for (; _UFirst != _ULast; ++_UFirst) {

  0000b	3b f7		 cmp	 esi, edi
  0000d	74 0f		 je	 SHORT $LN12@for_each
  0000f	90		 npad	 1
$LL4@for_each:
; File C:\Anka2Project\Anka2Project\Source\Binary\source\UserInterface\PythonCharacterManager.cpp

; 352  : 		pInstance->RenderTrace();

  00010	8b 0e		 mov	 ecx, DWORD PTR [esi]
  00012	e8 00 00 00 00	 call	 ?RenderTrace@CInstanceBase@@QAEXXZ ; CInstanceBase::RenderTrace
; File C:\Program Files\Microsoft Visual Studio\2022\Community\VC\Tools\MSVC\14.44.35207\include\algorithm

; 401  :     for (; _UFirst != _ULast; ++_UFirst) {

  00017	83 c6 04	 add	 esi, 4
  0001a	3b f7		 cmp	 esi, edi
  0001c	75 f2		 jne	 SHORT $LL4@for_each
$LN12@for_each:

; 402  :         _Func(*_UFirst);
; 403  :     }
; 404  : 
; 405  :     return _Func;
; 406  : }

  0001e	8a 45 10	 mov	 al, BYTE PTR __Func$[ebp]
  00021	5f		 pop	 edi
  00022	5e		 pop	 esi
  00023	5d		 pop	 ebp
  00024	c3		 ret	 0
??$for_each@V?$_Vector_iterator@V?$_Vector_val@U?$_Simple_types@PAVCInstanceBase@@@std@@@std@@@std@@UFCharacterInstanceRenderTrace@@@std@@YA?AUFCharacterInstanceRenderTrace@@V?$_Vector_iterator@V?$_Vector_val@U?$_Simple_types@PAVCInstanceBase@@@std@@@std@@@0@0U1@@Z ENDP ; std::for_each<std::_Vector_iterator<std::_Vector_val<std::_Simple_types<CInstanceBase *> > >,FCharacterInstanceRenderTrace>
_TEXT	ENDS
; Function compile flags: /Ogtp
; File C:\Program Files\Microsoft Visual Studio\2022\Community\VC\Tools\MSVC\14.44.35207\include\algorithm
; File C:\Program Files\Microsoft Visual Studio\2022\Community\VC\Tools\MSVC\14.44.35207\include\xtree
; File C:\Program Files\Microsoft Visual Studio\2022\Community\VC\Tools\MSVC\14.44.35207\include\algorithm
; File C:\Program Files\Microsoft Visual Studio\2022\Community\VC\Tools\MSVC\14.44.35207\include\xtree
; File C:\Program Files\Microsoft Visual Studio\2022\Community\VC\Tools\MSVC\14.44.35207\include\algorithm
; File C:\Anka2Project\Anka2Project\Source\Binary\source\UserInterface\PythonCharacterManager.cpp
; File C:\Program Files\Microsoft Visual Studio\2022\Community\VC\Tools\MSVC\14.44.35207\include\xtree
; File C:\Program Files\Microsoft Visual Studio\2022\Community\VC\Tools\MSVC\14.44.35207\include\algorithm
;	COMDAT ??$for_each@V?$_Tree_iterator@V?$_Tree_val@U?$_Tree_simple_types@U?$pair@$$CBKPAVCInstanceBase@@@std@@@std@@@std@@@std@@UFCharacterManagerCharacterInstanceRenderToShadowMap@@@std@@YA?AUFCharacterManagerCharacterInstanceRenderToShadowMap@@V?$_Tree_iterator@V?$_Tree_val@U?$_Tree_simple_types@U?$pair@$$CBKPAVCInstanceBase@@@std@@@std@@@std@@@0@0U1@@Z
_TEXT	SEGMENT
__UFirst$ = -4						; size = 4
__First$ = 8						; size = 4
__Last$ = 12						; size = 4
__Func$ = 16						; size = 1
??$for_each@V?$_Tree_iterator@V?$_Tree_val@U?$_Tree_simple_types@U?$pair@$$CBKPAVCInstanceBase@@@std@@@std@@@std@@@std@@UFCharacterManagerCharacterInstanceRenderToShadowMap@@@std@@YA?AUFCharacterManagerCharacterInstanceRenderToShadowMap@@V?$_Tree_iterator@V?$_Tree_val@U?$_Tree_simple_types@U?$pair@$$CBKPAVCInstanceBase@@@std@@@std@@@std@@@0@0U1@@Z PROC ; std::for_each<std::_Tree_iterator<std::_Tree_val<std::_Tree_simple_types<std::pair<unsigned long const ,CInstanceBase *> > > >,FCharacterManagerCharacterInstanceRenderToShadowMap>, COMDAT

; 397  : _CONSTEXPR20 _Fn for_each(_InIt _First, _InIt _Last, _Fn _Func) { // perform function for each element [_First, _Last)

  00000	55		 push	 ebp
  00001	8b ec		 mov	 ebp, esp
  00003	51		 push	 ecx
; File C:\Program Files\Microsoft Visual Studio\2022\Community\VC\Tools\MSVC\14.44.35207\include\xtree

; 37   :     _Tree_unchecked_const_iterator(_Nodeptr _Pnode, const _Mytree* _Plist) noexcept : _Ptr(_Pnode) {

  00004	8b 45 08	 mov	 eax, DWORD PTR __First$[ebp]
; File C:\Program Files\Microsoft Visual Studio\2022\Community\VC\Tools\MSVC\14.44.35207\include\algorithm

; 397  : _CONSTEXPR20 _Fn for_each(_InIt _First, _InIt _Last, _Fn _Func) { // perform function for each element [_First, _Last)

  00007	56		 push	 esi
; File C:\Program Files\Microsoft Visual Studio\2022\Community\VC\Tools\MSVC\14.44.35207\include\xtree

; 37   :     _Tree_unchecked_const_iterator(_Nodeptr _Pnode, const _Mytree* _Plist) noexcept : _Ptr(_Pnode) {

  00008	8b 75 0c	 mov	 esi, DWORD PTR __Last$[ebp]
  0000b	89 45 fc	 mov	 DWORD PTR __UFirst$[ebp], eax
  0000e	3b c6		 cmp	 eax, esi
; File C:\Program Files\Microsoft Visual Studio\2022\Community\VC\Tools\MSVC\14.44.35207\include\algorithm

; 401  :     for (; _UFirst != _ULast; ++_UFirst) {

  00010	74 17		 je	 SHORT $LN51@for_each
$LL4@for_each:
; File C:\Anka2Project\Anka2Project\Source\Binary\source\UserInterface\PythonCharacterManager.cpp

; 423  : 		cr_Pair.second->RenderToShadowMap();

  00012	8b 48 14	 mov	 ecx, DWORD PTR [eax+20]
  00015	e8 00 00 00 00	 call	 ?RenderToShadowMap@CInstanceBase@@QAEXXZ ; CInstanceBase::RenderToShadowMap
; File C:\Program Files\Microsoft Visual Studio\2022\Community\VC\Tools\MSVC\14.44.35207\include\xtree

; 142  :         _Mybase::operator++();

  0001a	8d 4d fc	 lea	 ecx, DWORD PTR __UFirst$[ebp]
  0001d	e8 00 00 00 00	 call	 ??E?$_Tree_unchecked_const_iterator@V?$_Tree_val@U?$_Tree_simple_types@U?$pair@$$CBKPAVCInstanceBase@@@std@@@std@@@std@@U_Iterator_base0@2@@std@@QAEAAV01@XZ ; std::_Tree_unchecked_const_iterator<std::_Tree_val<std::_Tree_simple_types<std::pair<unsigned long const ,CInstanceBase *> > >,std::_Iterator_base0>::operator++

; 96   :         return _Ptr == _Right._Ptr;

  00022	8b 45 fc	 mov	 eax, DWORD PTR __UFirst$[ebp]
  00025	3b c6		 cmp	 eax, esi
; File C:\Program Files\Microsoft Visual Studio\2022\Community\VC\Tools\MSVC\14.44.35207\include\algorithm

; 401  :     for (; _UFirst != _ULast; ++_UFirst) {

  00027	75 e9		 jne	 SHORT $LL4@for_each
$LN51@for_each:

; 402  :         _Func(*_UFirst);
; 403  :     }
; 404  : 
; 405  :     return _Func;
; 406  : }

  00029	8a 45 10	 mov	 al, BYTE PTR __Func$[ebp]
  0002c	5e		 pop	 esi
  0002d	8b e5		 mov	 esp, ebp
  0002f	5d		 pop	 ebp
  00030	c3		 ret	 0
??$for_each@V?$_Tree_iterator@V?$_Tree_val@U?$_Tree_simple_types@U?$pair@$$CBKPAVCInstanceBase@@@std@@@std@@@std@@@std@@UFCharacterManagerCharacterInstanceRenderToShadowMap@@@std@@YA?AUFCharacterManagerCharacterInstanceRenderToShadowMap@@V?$_Tree_iterator@V?$_Tree_val@U?$_Tree_simple_types@U?$pair@$$CBKPAVCInstanceBase@@@std@@@std@@@std@@@0@0U1@@Z ENDP ; std::for_each<std::_Tree_iterator<std::_Tree_val<std::_Tree_simple_types<std::pair<unsigned long const ,CInstanceBase *> > > >,FCharacterManagerCharacterInstanceRenderToShadowMap>
_TEXT	ENDS
; Function compile flags: /Ogtp
; File C:\Program Files\Microsoft Visual Studio\2022\Community\VC\Tools\MSVC\14.44.35207\include\algorithm
; File C:\Program Files\Microsoft Visual Studio\2022\Community\VC\Tools\MSVC\14.44.35207\include\xtree
; File C:\Program Files\Microsoft Visual Studio\2022\Community\VC\Tools\MSVC\14.44.35207\include\algorithm
; File C:\Program Files\Microsoft Visual Studio\2022\Community\VC\Tools\MSVC\14.44.35207\include\xtree
; File C:\Program Files\Microsoft Visual Studio\2022\Community\VC\Tools\MSVC\14.44.35207\include\algorithm
; File C:\Anka2Project\Anka2Project\Source\Binary\source\UserInterface\PythonCharacterManager.cpp
; File C:\Program Files\Microsoft Visual Studio\2022\Community\VC\Tools\MSVC\14.44.35207\include\xtree
; File C:\Program Files\Microsoft Visual Studio\2022\Community\VC\Tools\MSVC\14.44.35207\include\algorithm
;	COMDAT ??$for_each@V?$_Tree_iterator@V?$_Tree_val@U?$_Tree_simple_types@U?$pair@$$CBKPAVCInstanceBase@@@std@@@std@@@std@@@std@@UFCharacterManagerCharacterInstanceRenderCollision@@@std@@YA?AUFCharacterManagerCharacterInstanceRenderCollision@@V?$_Tree_iterator@V?$_Tree_val@U?$_Tree_simple_types@U?$pair@$$CBKPAVCInstanceBase@@@std@@@std@@@std@@@0@0U1@@Z
_TEXT	SEGMENT
__UFirst$ = -4						; size = 4
__First$ = 8						; size = 4
__Last$ = 12						; size = 4
__Func$ = 16						; size = 1
??$for_each@V?$_Tree_iterator@V?$_Tree_val@U?$_Tree_simple_types@U?$pair@$$CBKPAVCInstanceBase@@@std@@@std@@@std@@@std@@UFCharacterManagerCharacterInstanceRenderCollision@@@std@@YA?AUFCharacterManagerCharacterInstanceRenderCollision@@V?$_Tree_iterator@V?$_Tree_val@U?$_Tree_simple_types@U?$pair@$$CBKPAVCInstanceBase@@@std@@@std@@@std@@@0@0U1@@Z PROC ; std::for_each<std::_Tree_iterator<std::_Tree_val<std::_Tree_simple_types<std::pair<unsigned long const ,CInstanceBase *> > > >,FCharacterManagerCharacterInstanceRenderCollision>, COMDAT

; 397  : _CONSTEXPR20 _Fn for_each(_InIt _First, _InIt _Last, _Fn _Func) { // perform function for each element [_First, _Last)

  00000	55		 push	 ebp
  00001	8b ec		 mov	 ebp, esp
  00003	51		 push	 ecx
; File C:\Program Files\Microsoft Visual Studio\2022\Community\VC\Tools\MSVC\14.44.35207\include\xtree

; 37   :     _Tree_unchecked_const_iterator(_Nodeptr _Pnode, const _Mytree* _Plist) noexcept : _Ptr(_Pnode) {

  00004	8b 45 08	 mov	 eax, DWORD PTR __First$[ebp]
; File C:\Program Files\Microsoft Visual Studio\2022\Community\VC\Tools\MSVC\14.44.35207\include\algorithm

; 397  : _CONSTEXPR20 _Fn for_each(_InIt _First, _InIt _Last, _Fn _Func) { // perform function for each element [_First, _Last)

  00007	56		 push	 esi
; File C:\Program Files\Microsoft Visual Studio\2022\Community\VC\Tools\MSVC\14.44.35207\include\xtree

; 37   :     _Tree_unchecked_const_iterator(_Nodeptr _Pnode, const _Mytree* _Plist) noexcept : _Ptr(_Pnode) {

  00008	8b 75 0c	 mov	 esi, DWORD PTR __Last$[ebp]
  0000b	89 45 fc	 mov	 DWORD PTR __UFirst$[ebp], eax
  0000e	3b c6		 cmp	 eax, esi
; File C:\Program Files\Microsoft Visual Studio\2022\Community\VC\Tools\MSVC\14.44.35207\include\algorithm

; 401  :     for (; _UFirst != _ULast; ++_UFirst) {

  00010	74 17		 je	 SHORT $LN51@for_each
$LL4@for_each:
; File C:\Anka2Project\Anka2Project\Source\Binary\source\UserInterface\PythonCharacterManager.cpp

; 436  : 		cr_Pair.second->RenderCollision();

  00012	8b 48 14	 mov	 ecx, DWORD PTR [eax+20]
  00015	e8 00 00 00 00	 call	 ?RenderCollision@CInstanceBase@@QAEXXZ ; CInstanceBase::RenderCollision
; File C:\Program Files\Microsoft Visual Studio\2022\Community\VC\Tools\MSVC\14.44.35207\include\xtree

; 142  :         _Mybase::operator++();

  0001a	8d 4d fc	 lea	 ecx, DWORD PTR __UFirst$[ebp]
  0001d	e8 00 00 00 00	 call	 ??E?$_Tree_unchecked_const_iterator@V?$_Tree_val@U?$_Tree_simple_types@U?$pair@$$CBKPAVCInstanceBase@@@std@@@std@@@std@@U_Iterator_base0@2@@std@@QAEAAV01@XZ ; std::_Tree_unchecked_const_iterator<std::_Tree_val<std::_Tree_simple_types<std::pair<unsigned long const ,CInstanceBase *> > >,std::_Iterator_base0>::operator++

; 96   :         return _Ptr == _Right._Ptr;

  00022	8b 45 fc	 mov	 eax, DWORD PTR __UFirst$[ebp]
  00025	3b c6		 cmp	 eax, esi
; File C:\Program Files\Microsoft Visual Studio\2022\Community\VC\Tools\MSVC\14.44.35207\include\algorithm

; 401  :     for (; _UFirst != _ULast; ++_UFirst) {

  00027	75 e9		 jne	 SHORT $LL4@for_each
$LN51@for_each:

; 402  :         _Func(*_UFirst);
; 403  :     }
; 404  : 
; 405  :     return _Func;
; 406  : }

  00029	8a 45 10	 mov	 al, BYTE PTR __Func$[ebp]
  0002c	5e		 pop	 esi
  0002d	8b e5		 mov	 esp, ebp
  0002f	5d		 pop	 ebp
  00030	c3		 ret	 0
??$for_each@V?$_Tree_iterator@V?$_Tree_val@U?$_Tree_simple_types@U?$pair@$$CBKPAVCInstanceBase@@@std@@@std@@@std@@@std@@UFCharacterManagerCharacterInstanceRenderCollision@@@std@@YA?AUFCharacterManagerCharacterInstanceRenderCollision@@V?$_Tree_iterator@V?$_Tree_val@U?$_Tree_simple_types@U?$pair@$$CBKPAVCInstanceBase@@@std@@@std@@@std@@@0@0U1@@Z ENDP ; std::for_each<std::_Tree_iterator<std::_Tree_val<std::_Tree_simple_types<std::pair<unsigned long const ,CInstanceBase *> > > >,FCharacterManagerCharacterInstanceRenderCollision>
_TEXT	ENDS
; Function compile flags: /Ogtp
; File C:\Program Files\Microsoft Visual Studio\2022\Community\VC\Tools\MSVC\14.44.35207\include\algorithm
;	COMDAT ??$sort@V?$_Vector_iterator@V?$_Vector_val@U?$_Simple_types@PAVCInstanceBase@@@std@@@std@@@std@@UCInstanceBase_SLessCameraDistance@@@std@@YAXV?$_Vector_iterator@V?$_Vector_val@U?$_Simple_types@PAVCInstanceBase@@@std@@@std@@@0@0UCInstanceBase_SLessCameraDistance@@@Z
_TEXT	SEGMENT
__First$ = 8						; size = 4
__Last$ = 12						; size = 4
__Pred$ = 16						; size = 12
??$sort@V?$_Vector_iterator@V?$_Vector_val@U?$_Simple_types@PAVCInstanceBase@@@std@@@std@@@std@@UCInstanceBase_SLessCameraDistance@@@std@@YAXV?$_Vector_iterator@V?$_Vector_val@U?$_Simple_types@PAVCInstanceBase@@@std@@@std@@@0@0UCInstanceBase_SLessCameraDistance@@@Z PROC ; std::sort<std::_Vector_iterator<std::_Vector_val<std::_Simple_types<CInstanceBase *> > >,CInstanceBase_SLessCameraDistance>, COMDAT

; 8399 : _CONSTEXPR20 void sort(const _RanIt _First, const _RanIt _Last, _Pr _Pred) { // order [_First, _Last)

  00000	55		 push	 ebp
  00001	8b ec		 mov	 ebp, esp

; 8400 :     _STD _Adl_verify_range(_First, _Last);
; 8401 :     const auto _UFirst = _STD _Get_unwrapped(_First);
; 8402 :     const auto _ULast  = _STD _Get_unwrapped(_Last);
; 8403 :     _STD _Sort_unchecked(_UFirst, _ULast, _ULast - _UFirst, _STD _Pass_fn(_Pred));

  00003	8b 55 0c	 mov	 edx, DWORD PTR __Last$[ebp]
  00006	8d 45 10	 lea	 eax, DWORD PTR __Pred$[ebp]
  00009	8b 4d 08	 mov	 ecx, DWORD PTR __First$[ebp]
  0000c	50		 push	 eax
  0000d	8b c2		 mov	 eax, edx
  0000f	2b c1		 sub	 eax, ecx
  00011	c1 f8 02	 sar	 eax, 2
  00014	50		 push	 eax
  00015	e8 00 00 00 00	 call	 ??$_Sort_unchecked@PAPAVCInstanceBase@@U?$_Ref_fn@UCInstanceBase_SLessCameraDistance@@@std@@@std@@YAXPAPAVCInstanceBase@@0HU?$_Ref_fn@UCInstanceBase_SLessCameraDistance@@@0@@Z ; std::_Sort_unchecked<CInstanceBase * *,std::_Ref_fn<CInstanceBase_SLessCameraDistance> >
  0001a	83 c4 08	 add	 esp, 8

; 8404 : }

  0001d	5d		 pop	 ebp
  0001e	c3		 ret	 0
??$sort@V?$_Vector_iterator@V?$_Vector_val@U?$_Simple_types@PAVCInstanceBase@@@std@@@std@@@std@@UCInstanceBase_SLessCameraDistance@@@std@@YAXV?$_Vector_iterator@V?$_Vector_val@U?$_Simple_types@PAVCInstanceBase@@@std@@@std@@@0@0UCInstanceBase_SLessCameraDistance@@@Z ENDP ; std::sort<std::_Vector_iterator<std::_Vector_val<std::_Simple_types<CInstanceBase *> > >,CInstanceBase_SLessCameraDistance>
_TEXT	ENDS
; Function compile flags: /Ogtp
; File C:\Program Files\Microsoft Visual Studio\2022\Community\VC\Tools\MSVC\14.44.35207\include\xutility
;	COMDAT ??$find@V?$_Vector_iterator@V?$_Vector_val@U?$_Simple_types@PAVCInstanceBase@@@std@@@std@@@std@@PAVCInstanceBase@@@std@@YA?AV?$_Vector_iterator@V?$_Vector_val@U?$_Simple_types@PAVCInstanceBase@@@std@@@std@@@0@V10@V10@ABQAVCInstanceBase@@@Z
_TEXT	SEGMENT
__First$ = 8						; size = 4
__Last$ = 12						; size = 4
??$find@V?$_Vector_iterator@V?$_Vector_val@U?$_Simple_types@PAVCInstanceBase@@@std@@@std@@@std@@PAVCInstanceBase@@@std@@YA?AV?$_Vector_iterator@V?$_Vector_val@U?$_Simple_types@PAVCInstanceBase@@@std@@@std@@@0@V10@V10@ABQAVCInstanceBase@@@Z PROC ; std::find<std::_Vector_iterator<std::_Vector_val<std::_Simple_types<CInstanceBase *> > >,CInstanceBase *>, COMDAT
; ___$ReturnUdt$ = ecx
; __Val$ = edx

; 6169 : _NODISCARD _CONSTEXPR20 _InIt find(_InIt _First, const _InIt _Last, const _Ty& _Val) { // find first matching _Val

  00000	55		 push	 ebp
  00001	8b ec		 mov	 ebp, esp
  00003	56		 push	 esi

; 6127 :             const auto _Result    = _STD _Find_vectorized(_First_ptr, _STD _To_address(_Last), _Val);

  00004	ff 32		 push	 DWORD PTR [edx]
  00006	8b 55 0c	 mov	 edx, DWORD PTR __Last$[ebp]

; 6169 : _NODISCARD _CONSTEXPR20 _InIt find(_InIt _First, const _InIt _Last, const _Ty& _Val) { // find first matching _Val

  00009	8b f1		 mov	 esi, ecx

; 6127 :             const auto _Result    = _STD _Find_vectorized(_First_ptr, _STD _To_address(_Last), _Val);

  0000b	8b 4d 08	 mov	 ecx, DWORD PTR __First$[ebp]
  0000e	e8 00 00 00 00	 call	 ??$_Find_vectorized@PAVCInstanceBase@@PAV1@@std@@YAPAPAVCInstanceBase@@QAPAV1@0QAV1@@Z ; std::_Find_vectorized<CInstanceBase *,CInstanceBase *>
  00013	83 c4 04	 add	 esp, 4

; 6170 :     _STD _Adl_verify_range(_First, _Last);
; 6171 :     if constexpr (_Is_vb_iterator<_InIt> && is_same_v<_Ty, bool>) {
; 6172 :         return _STD _Find_vbool(_First, _Last, _Val);
; 6173 :     } else {
; 6174 :         _STD _Seek_wrapped(_First, _STD _Find_unchecked(_STD _Get_unwrapped(_First), _STD _Get_unwrapped(_Last), _Val));
; 6175 :         return _First;

  00016	89 06		 mov	 DWORD PTR [esi], eax
  00018	8b c6		 mov	 eax, esi
  0001a	5e		 pop	 esi

; 6176 :     }
; 6177 : }

  0001b	5d		 pop	 ebp
  0001c	c3		 ret	 0
??$find@V?$_Vector_iterator@V?$_Vector_val@U?$_Simple_types@PAVCInstanceBase@@@std@@@std@@@std@@PAVCInstanceBase@@@std@@YA?AV?$_Vector_iterator@V?$_Vector_val@U?$_Simple_types@PAVCInstanceBase@@@std@@@std@@@0@V10@V10@ABQAVCInstanceBase@@@Z ENDP ; std::find<std::_Vector_iterator<std::_Vector_val<std::_Simple_types<CInstanceBase *> > >,CInstanceBase *>
_TEXT	ENDS
; Function compile flags: /Ogtp
; File C:\Program Files\Microsoft Visual Studio\2022\Community\VC\Tools\MSVC\14.44.35207\include\algorithm
; File C:\Program Files\Microsoft Visual Studio\2022\Community\VC\Tools\MSVC\14.44.35207\include\list
; File C:\Program Files\Microsoft Visual Studio\2022\Community\VC\Tools\MSVC\14.44.35207\include\algorithm
; File C:\Program Files\Microsoft Visual Studio\2022\Community\VC\Tools\MSVC\14.44.35207\include\list
; File C:\Program Files\Microsoft Visual Studio\2022\Community\VC\Tools\MSVC\14.44.35207\include\algorithm
; File C:\Program Files\Microsoft Visual Studio\2022\Community\VC\Tools\MSVC\14.44.35207\include\list
; File C:\Program Files\Microsoft Visual Studio\2022\Community\VC\Tools\MSVC\14.44.35207\include\algorithm
; File C:\Program Files\Microsoft Visual Studio\2022\Community\VC\Tools\MSVC\14.44.35207\include\list
; File C:\Program Files\Microsoft Visual Studio\2022\Community\VC\Tools\MSVC\14.44.35207\include\algorithm
;	COMDAT ??$for_each@V?$_List_iterator@V?$_List_val@U?$_List_simple_types@PAVCInstanceBase@@@std@@@std@@@std@@P6AXPAVCInstanceBase@@@Z@std@@YAP6AXPAVCInstanceBase@@@ZV?$_List_iterator@V?$_List_val@U?$_List_simple_types@PAVCInstanceBase@@@std@@@std@@@0@1P6AX0@Z@Z
_TEXT	SEGMENT
__First$ = 8						; size = 4
__Last$ = 12						; size = 4
??$for_each@V?$_List_iterator@V?$_List_val@U?$_List_simple_types@PAVCInstanceBase@@@std@@@std@@@std@@P6AXPAVCInstanceBase@@@Z@std@@YAP6AXPAVCInstanceBase@@@ZV?$_List_iterator@V?$_List_val@U?$_List_simple_types@PAVCInstanceBase@@@std@@@std@@@0@1P6AX0@Z@Z PROC ; std::for_each<std::_List_iterator<std::_List_val<std::_List_simple_types<CInstanceBase *> > >,void (__cdecl*)(CInstanceBase *)>, COMDAT
; __Func$dead$ = ecx

; 397  : _CONSTEXPR20 _Fn for_each(_InIt _First, _InIt _Last, _Fn _Func) { // perform function for each element [_First, _Last)

  00000	55		 push	 ebp
  00001	8b ec		 mov	 ebp, esp
  00003	56		 push	 esi
; File C:\Program Files\Microsoft Visual Studio\2022\Community\VC\Tools\MSVC\14.44.35207\include\list

; 37   :     _List_unchecked_const_iterator(_Nodeptr _Pnode, const _Mylist* _Plist) noexcept : _Ptr(_Pnode) {

  00004	8b 75 08	 mov	 esi, DWORD PTR __First$[ebp]
; File C:\Program Files\Microsoft Visual Studio\2022\Community\VC\Tools\MSVC\14.44.35207\include\algorithm

; 397  : _CONSTEXPR20 _Fn for_each(_InIt _First, _InIt _Last, _Fn _Func) { // perform function for each element [_First, _Last)

  00007	57		 push	 edi
; File C:\Program Files\Microsoft Visual Studio\2022\Community\VC\Tools\MSVC\14.44.35207\include\list

; 37   :     _List_unchecked_const_iterator(_Nodeptr _Pnode, const _Mylist* _Plist) noexcept : _Ptr(_Pnode) {

  00008	8b 7d 0c	 mov	 edi, DWORD PTR __Last$[ebp]

; 72   :         return _Ptr == _Right._Ptr;

  0000b	3b f7		 cmp	 esi, edi
; File C:\Program Files\Microsoft Visual Studio\2022\Community\VC\Tools\MSVC\14.44.35207\include\algorithm

; 401  :     for (; _UFirst != _ULast; ++_UFirst) {

  0000d	74 12		 je	 SHORT $LN49@for_each
  0000f	90		 npad	 1
$LL4@for_each:

; 402  :         _Func(*_UFirst);

  00010	ff 76 08	 push	 DWORD PTR [esi+8]
  00013	e8 00 00 00 00	 call	 ?Delete@CInstanceBase@@SAXPAV1@@Z ; CInstanceBase::Delete
; File C:\Program Files\Microsoft Visual Studio\2022\Community\VC\Tools\MSVC\14.44.35207\include\list

; 50   :         _Ptr = _Ptr->_Next;

  00018	8b 36		 mov	 esi, DWORD PTR [esi]
; File C:\Program Files\Microsoft Visual Studio\2022\Community\VC\Tools\MSVC\14.44.35207\include\algorithm

; 402  :         _Func(*_UFirst);

  0001a	83 c4 04	 add	 esp, 4
; File C:\Program Files\Microsoft Visual Studio\2022\Community\VC\Tools\MSVC\14.44.35207\include\list

; 72   :         return _Ptr == _Right._Ptr;

  0001d	3b f7		 cmp	 esi, edi
; File C:\Program Files\Microsoft Visual Studio\2022\Community\VC\Tools\MSVC\14.44.35207\include\algorithm

; 401  :     for (; _UFirst != _ULast; ++_UFirst) {

  0001f	75 ef		 jne	 SHORT $LL4@for_each
$LN49@for_each:
  00021	5f		 pop	 edi

; 403  :     }
; 404  : 
; 405  :     return _Func;
; 406  : }

  00022	b8 00 00 00 00	 mov	 eax, OFFSET ?Delete@CInstanceBase@@SAXPAV1@@Z ; CInstanceBase::Delete
  00027	5e		 pop	 esi
  00028	5d		 pop	 ebp
  00029	c3		 ret	 0
??$for_each@V?$_List_iterator@V?$_List_val@U?$_List_simple_types@PAVCInstanceBase@@@std@@@std@@@std@@P6AXPAVCInstanceBase@@@Z@std@@YAP6AXPAVCInstanceBase@@@ZV?$_List_iterator@V?$_List_val@U?$_List_simple_types@PAVCInstanceBase@@@std@@@std@@@0@1P6AX0@Z@Z ENDP ; std::for_each<std::_List_iterator<std::_List_val<std::_List_simple_types<CInstanceBase *> > >,void (__cdecl*)(CInstanceBase *)>
_TEXT	ENDS
; Function compile flags: /Ogtp
; File C:\Program Files\Microsoft Visual Studio\2022\Community\VC\Tools\MSVC\14.44.35207\include\algorithm
;	COMDAT ??$sort@V?$_Vector_iterator@V?$_Vector_val@U?$_Simple_types@U?$pair@PAVCInstanceBase@@M@std@@@std@@@std@@@std@@P6A_NABU?$pair@PAVCInstanceBase@@M@2@0@Z@std@@YAXV?$_Vector_iterator@V?$_Vector_val@U?$_Simple_types@U?$pair@PAVCInstanceBase@@M@std@@@std@@@std@@@0@0P6A_NABU?$pair@PAVCInstanceBase@@M@0@1@Z@Z
_TEXT	SEGMENT
__First$ = 8						; size = 4
__Last$ = 12						; size = 4
??$sort@V?$_Vector_iterator@V?$_Vector_val@U?$_Simple_types@U?$pair@PAVCInstanceBase@@M@std@@@std@@@std@@@std@@P6A_NABU?$pair@PAVCInstanceBase@@M@2@0@Z@std@@YAXV?$_Vector_iterator@V?$_Vector_val@U?$_Simple_types@U?$pair@PAVCInstanceBase@@M@std@@@std@@@std@@@0@0P6A_NABU?$pair@PAVCInstanceBase@@M@0@1@Z@Z PROC ; std::sort<std::_Vector_iterator<std::_Vector_val<std::_Simple_types<std::pair<CInstanceBase *,float> > > >,bool (__cdecl*)(std::pair<CInstanceBase *,float> const &,std::pair<CInstanceBase *,float> const &)>, COMDAT
; __Pred$dead$ = ecx

; 8399 : _CONSTEXPR20 void sort(const _RanIt _First, const _RanIt _Last, _Pr _Pred) { // order [_First, _Last)

  00000	55		 push	 ebp
  00001	8b ec		 mov	 ebp, esp

; 8400 :     _STD _Adl_verify_range(_First, _Last);
; 8401 :     const auto _UFirst = _STD _Get_unwrapped(_First);
; 8402 :     const auto _ULast  = _STD _Get_unwrapped(_Last);
; 8403 :     _STD _Sort_unchecked(_UFirst, _ULast, _ULast - _UFirst, _STD _Pass_fn(_Pred));

  00003	8b 55 0c	 mov	 edx, DWORD PTR __Last$[ebp]
  00006	8b c2		 mov	 eax, edx
  00008	8b 4d 08	 mov	 ecx, DWORD PTR __First$[ebp]
  0000b	2b c1		 sub	 eax, ecx
  0000d	c1 f8 03	 sar	 eax, 3
  00010	68 00 00 00 00	 push	 OFFSET ?FindLowerDistance@@YA_NABU?$pair@PAVCInstanceBase@@M@std@@0@Z ; FindLowerDistance
  00015	50		 push	 eax
  00016	e8 00 00 00 00	 call	 ??$_Sort_unchecked@PAU?$pair@PAVCInstanceBase@@M@std@@P6A_NABU12@0@Z@std@@YAXPAU?$pair@PAVCInstanceBase@@M@0@0HP6A_NABU10@1@Z@Z ; std::_Sort_unchecked<std::pair<CInstanceBase *,float> *,bool (__cdecl*)(std::pair<CInstanceBase *,float> const &,std::pair<CInstanceBase *,float> const &)>
  0001b	83 c4 08	 add	 esp, 8

; 8404 : }

  0001e	5d		 pop	 ebp
  0001f	c3		 ret	 0
??$sort@V?$_Vector_iterator@V?$_Vector_val@U?$_Simple_types@U?$pair@PAVCInstanceBase@@M@std@@@std@@@std@@@std@@P6A_NABU?$pair@PAVCInstanceBase@@M@2@0@Z@std@@YAXV?$_Vector_iterator@V?$_Vector_val@U?$_Simple_types@U?$pair@PAVCInstanceBase@@M@std@@@std@@@std@@@0@0P6A_NABU?$pair@PAVCInstanceBase@@M@0@1@Z@Z ENDP ; std::sort<std::_Vector_iterator<std::_Vector_val<std::_Simple_types<std::pair<CInstanceBase *,float> > > >,bool (__cdecl*)(std::pair<CInstanceBase *,float> const &,std::pair<CInstanceBase *,float> const &)>
_TEXT	ENDS
; Function compile flags: /Ogtp
; File C:\Program Files\Microsoft Visual Studio\2022\Community\VC\Tools\MSVC\14.44.35207\include\xutility
;	COMDAT ??$_Adl_verify_range@V?$_Tree_iterator@V?$_Tree_val@U?$_Tree_simple_types@U?$pair@$$CBKPAVCInstanceBase@@@std@@@std@@@std@@@std@@V12@@std@@YAXABV?$_Tree_iterator@V?$_Tree_val@U?$_Tree_simple_types@U?$pair@$$CBKPAVCInstanceBase@@@std@@@std@@@std@@@0@0@Z
_TEXT	SEGMENT
??$_Adl_verify_range@V?$_Tree_iterator@V?$_Tree_val@U?$_Tree_simple_types@U?$pair@$$CBKPAVCInstanceBase@@@std@@@std@@@std@@@std@@V12@@std@@YAXABV?$_Tree_iterator@V?$_Tree_val@U?$_Tree_simple_types@U?$pair@$$CBKPAVCInstanceBase@@@std@@@std@@@std@@@0@0@Z PROC ; std::_Adl_verify_range<std::_Tree_iterator<std::_Tree_val<std::_Tree_simple_types<std::pair<unsigned long const ,CInstanceBase *> > > >,std::_Tree_iterator<std::_Tree_val<std::_Tree_simple_types<std::pair<unsigned long const ,CInstanceBase *> > > > >, COMDAT
; __First$dead$ = ecx
; __Last$dead$ = edx

; 1353 :     // check that [_First, _Last) forms an iterator range
; 1354 :     if constexpr (is_pointer_v<_Iter> && is_pointer_v<_Sentinel>) {
; 1355 : #if _ITERATOR_DEBUG_LEVEL != 0
; 1356 :         _STL_VERIFY(_First <= _Last, "transposed pointer range");
; 1357 : #endif // _ITERATOR_DEBUG_LEVEL != 0
; 1358 :     } else if constexpr (_Range_verifiable_v<_Iter, _Sentinel>) {
; 1359 :         _Verify_range(_First, _Last);
; 1360 :     }
; 1361 : }

  00000	c2 00 00	 ret	 0
??$_Adl_verify_range@V?$_Tree_iterator@V?$_Tree_val@U?$_Tree_simple_types@U?$pair@$$CBKPAVCInstanceBase@@@std@@@std@@@std@@@std@@V12@@std@@YAXABV?$_Tree_iterator@V?$_Tree_val@U?$_Tree_simple_types@U?$pair@$$CBKPAVCInstanceBase@@@std@@@std@@@std@@@0@0@Z ENDP ; std::_Adl_verify_range<std::_Tree_iterator<std::_Tree_val<std::_Tree_simple_types<std::pair<unsigned long const ,CInstanceBase *> > > >,std::_Tree_iterator<std::_Tree_val<std::_Tree_simple_types<std::pair<unsigned long const ,CInstanceBase *> > > > >
_TEXT	ENDS
; Function compile flags: /Ogtp
; File C:\Program Files\Microsoft Visual Studio\2022\Community\VC\Tools\MSVC\14.44.35207\include\xutility
;	COMDAT ??$_Adl_verify_range@V?$_List_iterator@V?$_List_val@U?$_List_simple_types@PAVCInstanceBase@@@std@@@std@@@std@@V12@@std@@YAXABV?$_List_iterator@V?$_List_val@U?$_List_simple_types@PAVCInstanceBase@@@std@@@std@@@0@0@Z
_TEXT	SEGMENT
??$_Adl_verify_range@V?$_List_iterator@V?$_List_val@U?$_List_simple_types@PAVCInstanceBase@@@std@@@std@@@std@@V12@@std@@YAXABV?$_List_iterator@V?$_List_val@U?$_List_simple_types@PAVCInstanceBase@@@std@@@std@@@0@0@Z PROC ; std::_Adl_verify_range<std::_List_iterator<std::_List_val<std::_List_simple_types<CInstanceBase *> > >,std::_List_iterator<std::_List_val<std::_List_simple_types<CInstanceBase *> > > >, COMDAT
; __First$dead$ = ecx
; __Last$dead$ = edx

; 1353 :     // check that [_First, _Last) forms an iterator range
; 1354 :     if constexpr (is_pointer_v<_Iter> && is_pointer_v<_Sentinel>) {
; 1355 : #if _ITERATOR_DEBUG_LEVEL != 0
; 1356 :         _STL_VERIFY(_First <= _Last, "transposed pointer range");
; 1357 : #endif // _ITERATOR_DEBUG_LEVEL != 0
; 1358 :     } else if constexpr (_Range_verifiable_v<_Iter, _Sentinel>) {
; 1359 :         _Verify_range(_First, _Last);
; 1360 :     }
; 1361 : }

  00000	c2 00 00	 ret	 0
??$_Adl_verify_range@V?$_List_iterator@V?$_List_val@U?$_List_simple_types@PAVCInstanceBase@@@std@@@std@@@std@@V12@@std@@YAXABV?$_List_iterator@V?$_List_val@U?$_List_simple_types@PAVCInstanceBase@@@std@@@std@@@0@0@Z ENDP ; std::_Adl_verify_range<std::_List_iterator<std::_List_val<std::_List_simple_types<CInstanceBase *> > >,std::_List_iterator<std::_List_val<std::_List_simple_types<CInstanceBase *> > > >
_TEXT	ENDS
; Function compile flags: /Ogtp
; File C:\Program Files\Microsoft Visual Studio\2022\Community\VC\Tools\MSVC\14.44.35207\include\xutility
;	COMDAT ??$_Adl_verify_range@V?$_Vector_iterator@V?$_Vector_val@U?$_Simple_types@PAVCInstanceBase@@@std@@@std@@@std@@V12@@std@@YAXABV?$_Vector_iterator@V?$_Vector_val@U?$_Simple_types@PAVCInstanceBase@@@std@@@std@@@0@0@Z
_TEXT	SEGMENT
??$_Adl_verify_range@V?$_Vector_iterator@V?$_Vector_val@U?$_Simple_types@PAVCInstanceBase@@@std@@@std@@@std@@V12@@std@@YAXABV?$_Vector_iterator@V?$_Vector_val@U?$_Simple_types@PAVCInstanceBase@@@std@@@std@@@0@0@Z PROC ; std::_Adl_verify_range<std::_Vector_iterator<std::_Vector_val<std::_Simple_types<CInstanceBase *> > >,std::_Vector_iterator<std::_Vector_val<std::_Simple_types<CInstanceBase *> > > >, COMDAT
; __First$dead$ = ecx
; __Last$dead$ = edx

; 1353 :     // check that [_First, _Last) forms an iterator range
; 1354 :     if constexpr (is_pointer_v<_Iter> && is_pointer_v<_Sentinel>) {
; 1355 : #if _ITERATOR_DEBUG_LEVEL != 0
; 1356 :         _STL_VERIFY(_First <= _Last, "transposed pointer range");
; 1357 : #endif // _ITERATOR_DEBUG_LEVEL != 0
; 1358 :     } else if constexpr (_Range_verifiable_v<_Iter, _Sentinel>) {
; 1359 :         _Verify_range(_First, _Last);
; 1360 :     }
; 1361 : }

  00000	c2 00 00	 ret	 0
??$_Adl_verify_range@V?$_Vector_iterator@V?$_Vector_val@U?$_Simple_types@PAVCInstanceBase@@@std@@@std@@@std@@V12@@std@@YAXABV?$_Vector_iterator@V?$_Vector_val@U?$_Simple_types@PAVCInstanceBase@@@std@@@std@@@0@0@Z ENDP ; std::_Adl_verify_range<std::_Vector_iterator<std::_Vector_val<std::_Simple_types<CInstanceBase *> > >,std::_Vector_iterator<std::_Vector_val<std::_Simple_types<CInstanceBase *> > > >
_TEXT	ENDS
; Function compile flags: /Ogtp
; File C:\Program Files\Microsoft Visual Studio\2022\Community\VC\Tools\MSVC\14.44.35207\include\algorithm
; File C:\Anka2Project\Anka2Project\Source\Binary\source\UserInterface\PythonCharacterManager.cpp
; File C:\Program Files\Microsoft Visual Studio\2022\Community\VC\Tools\MSVC\14.44.35207\include\algorithm
; File C:\Anka2Project\Anka2Project\Source\Binary\source\UserInterface\PythonCharacterManager.cpp
; File C:\Program Files\Microsoft Visual Studio\2022\Community\VC\Tools\MSVC\14.44.35207\include\algorithm
; File C:\Program Files\Microsoft Visual Studio\2022\Community\VC\Tools\MSVC\14.44.35207\include\xutility
; File C:\Program Files\Microsoft Visual Studio\2022\Community\VC\Tools\MSVC\14.44.35207\include\algorithm
; File C:\Program Files\Microsoft Visual Studio\2022\Community\VC\Tools\MSVC\14.44.35207\include\__msvc_heap_algorithms.hpp
; File C:\Program Files\Microsoft Visual Studio\2022\Community\VC\Tools\MSVC\14.44.35207\include\algorithm
; File C:\Program Files\Microsoft Visual Studio\2022\Community\VC\Tools\MSVC\14.44.35207\include\__msvc_heap_algorithms.hpp
; File C:\Program Files\Microsoft Visual Studio\2022\Community\VC\Tools\MSVC\14.44.35207\include\algorithm
; File C:\Program Files\Microsoft Visual Studio\2022\Community\VC\Tools\MSVC\14.44.35207\include\__msvc_heap_algorithms.hpp
; File C:\Program Files\Microsoft Visual Studio\2022\Community\VC\Tools\MSVC\14.44.35207\include\algorithm
; File C:\Anka2Project\Anka2Project\Source\Binary\source\UserInterface\PythonCharacterManager.cpp
; File C:\Program Files\Microsoft Visual Studio\2022\Community\VC\Tools\MSVC\14.44.35207\include\algorithm
; File C:\Anka2Project\Anka2Project\Source\Binary\source\UserInterface\PythonCharacterManager.cpp
; File C:\Program Files\Microsoft Visual Studio\2022\Community\VC\Tools\MSVC\14.44.35207\include\algorithm
; File C:\Anka2Project\Anka2Project\Source\Binary\source\UserInterface\PythonCharacterManager.cpp
; File C:\Program Files\Microsoft Visual Studio\2022\Community\VC\Tools\MSVC\14.44.35207\include\algorithm
; File C:\Anka2Project\Anka2Project\Source\Binary\source\UserInterface\PythonCharacterManager.cpp
; File C:\Program Files\Microsoft Visual Studio\2022\Community\VC\Tools\MSVC\14.44.35207\include\algorithm
; File C:\Anka2Project\Anka2Project\Source\Binary\source\UserInterface\PythonCharacterManager.cpp
; File C:\Program Files\Microsoft Visual Studio\2022\Community\VC\Tools\MSVC\14.44.35207\include\algorithm
;	COMDAT ??$_Sort_unchecked@PAPAVCInstanceBase@@ULessCharacterInstancePtrRenderOrder@@@std@@YAXPAPAVCInstanceBase@@0HULessCharacterInstancePtrRenderOrder@@@Z
_TEXT	SEGMENT
__Last$1$ = -24						; size = 4
__Val$1$ = -20						; size = 4
__Hole$1$ = -16						; size = 4
__Bottom$1$ = -16					; size = 4
__First$1$ = -12					; size = 4
__Mid$3 = -8						; size = 8
__Val$4 = -8						; size = 4
__Val$5 = -8						; size = 4
__Mid$1$ = -8						; size = 4
__Ideal$ = 8						; size = 4
__Pred$ = 12						; size = 1
??$_Sort_unchecked@PAPAVCInstanceBase@@ULessCharacterInstancePtrRenderOrder@@@std@@YAXPAPAVCInstanceBase@@0HULessCharacterInstancePtrRenderOrder@@@Z PROC ; std::_Sort_unchecked<CInstanceBase * *,LessCharacterInstancePtrRenderOrder>, COMDAT
; __First$ = ecx
; __Last$ = edx

; 8369 : _CONSTEXPR20 void _Sort_unchecked(_RanIt _First, _RanIt _Last, _Iter_diff_t<_RanIt> _Ideal, _Pr _Pred) {

  00000	55		 push	 ebp
  00001	8b ec		 mov	 ebp, esp
  00003	83 e4 f8	 and	 esp, -8			; fffffff8H
  00006	83 ec 1c	 sub	 esp, 28			; 0000001cH
  00009	53		 push	 ebx
  0000a	56		 push	 esi
  0000b	8b f2		 mov	 esi, edx
  0000d	57		 push	 edi
  0000e	8b f9		 mov	 edi, ecx
  00010	89 74 24 10	 mov	 DWORD PTR __Last$1$[esp+40], esi

; 8370 :     // order [_First, _Last)
; 8371 :     for (;;) {
; 8372 :         if (_Last - _First <= _ISORT_MAX) { // small

  00014	8b c6		 mov	 eax, esi
  00016	89 7c 24 1c	 mov	 DWORD PTR __First$1$[esp+40], edi
  0001a	2b c7		 sub	 eax, edi
  0001c	83 e0 fc	 and	 eax, -4			; fffffffcH
  0001f	3d 80 00 00 00	 cmp	 eax, 128		; 00000080H
  00024	0f 8e 7c 00 00
	00		 jle	 $LN52@Sort_unche
  0002a	8b 4d 0c	 mov	 ecx, DWORD PTR __Pred$[ebp]
  0002d	8b 5d 08	 mov	 ebx, DWORD PTR __Ideal$[ebp]
$LL4@Sort_unche:

; 8373 :             _STD _Insertion_sort_unchecked(_First, _Last, _Pred);
; 8374 :             return;
; 8375 :         }
; 8376 : 
; 8377 :         if (_Ideal <= 0) { // heap sort if too many divisions

  00030	85 db		 test	 ebx, ebx
  00032	0f 8e ba 00 00
	00		 jle	 $LN53@Sort_unche

; 8378 :             _STD _Make_heap_unchecked(_First, _Last, _Pred);
; 8379 :             _STD _Sort_heap_unchecked(_First, _Last, _Pred);
; 8380 :             return;
; 8381 :         }
; 8382 : 
; 8383 :         // divide and conquer by quicksort
; 8384 :         auto _Mid = _STD _Partition_by_median_guess_unchecked(_First, _Last, _Pred);

  00038	51		 push	 ecx
  00039	56		 push	 esi
  0003a	8b d7		 mov	 edx, edi
  0003c	8d 4c 24 28	 lea	 ecx, DWORD PTR __Mid$3[esp+48]
  00040	e8 00 00 00 00	 call	 ??$_Partition_by_median_guess_unchecked@PAPAVCInstanceBase@@ULessCharacterInstancePtrRenderOrder@@@std@@YA?AU?$pair@PAPAVCInstanceBase@@PAPAV1@@0@PAPAVCInstanceBase@@0ULessCharacterInstancePtrRenderOrder@@@Z ; std::_Partition_by_median_guess_unchecked<CInstanceBase * *,LessCharacterInstancePtrRenderOrder>

; 8385 : 
; 8386 :         _Ideal = (_Ideal >> 1) + (_Ideal >> 2); // allow 1.5 log2(N) divisions
; 8387 : 
; 8388 :         if (_Mid.first - _First < _Last - _Mid.second) { // loop on second half

  00045	8b 54 24 28	 mov	 edx, DWORD PTR __Mid$3[esp+48]
  00049	8b c3		 mov	 eax, ebx
  0004b	c1 f8 02	 sar	 eax, 2
  0004e	8b ce		 mov	 ecx, esi
  00050	2b 4c 24 2c	 sub	 ecx, DWORD PTR __Mid$3[esp+52]
  00054	83 c4 08	 add	 esp, 8
  00057	d1 fb		 sar	 ebx, 1
  00059	83 e1 fc	 and	 ecx, -4			; fffffffcH
  0005c	03 d8		 add	 ebx, eax
  0005e	8b c2		 mov	 eax, edx
  00060	2b c7		 sub	 eax, edi
  00062	83 e0 fc	 and	 eax, -4			; fffffffcH
  00065	3b c1		 cmp	 eax, ecx
  00067	8b 45 0c	 mov	 eax, DWORD PTR __Pred$[ebp]
  0006a	50		 push	 eax
  0006b	53		 push	 ebx
  0006c	7d 11		 jge	 SHORT $LN7@Sort_unche

; 8389 :             _STD _Sort_unchecked(_First, _Mid.first, _Ideal, _Pred);

  0006e	8b cf		 mov	 ecx, edi
  00070	e8 00 00 00 00	 call	 ??$_Sort_unchecked@PAPAVCInstanceBase@@ULessCharacterInstancePtrRenderOrder@@@std@@YAXPAPAVCInstanceBase@@0HULessCharacterInstancePtrRenderOrder@@@Z ; std::_Sort_unchecked<CInstanceBase * *,LessCharacterInstancePtrRenderOrder>

; 8390 :             _First = _Mid.second;

  00075	8b 7c 24 2c	 mov	 edi, DWORD PTR __Mid$3[esp+52]
  00079	89 7c 24 24	 mov	 DWORD PTR __First$1$[esp+48], edi

; 8391 :         } else { // loop on first half

  0007d	eb 13		 jmp	 SHORT $LN76@Sort_unche
$LN7@Sort_unche:

; 8392 :             _STD _Sort_unchecked(_Mid.second, _Last, _Ideal, _Pred);

  0007f	8b 4c 24 2c	 mov	 ecx, DWORD PTR __Mid$3[esp+52]
  00083	8b d6		 mov	 edx, esi
  00085	e8 00 00 00 00	 call	 ??$_Sort_unchecked@PAPAVCInstanceBase@@ULessCharacterInstancePtrRenderOrder@@@std@@YAXPAPAVCInstanceBase@@0HULessCharacterInstancePtrRenderOrder@@@Z ; std::_Sort_unchecked<CInstanceBase * *,LessCharacterInstancePtrRenderOrder>

; 8393 :             _Last = _Mid.first;

  0008a	8b 74 24 28	 mov	 esi, DWORD PTR __Mid$3[esp+48]
  0008e	89 74 24 18	 mov	 DWORD PTR __Last$1$[esp+48], esi
$LN76@Sort_unche:

; 8370 :     // order [_First, _Last)
; 8371 :     for (;;) {
; 8372 :         if (_Last - _First <= _ISORT_MAX) { // small

  00092	8b 4d 0c	 mov	 ecx, DWORD PTR __Pred$[ebp]
  00095	8b c6		 mov	 eax, esi
  00097	2b c7		 sub	 eax, edi
  00099	83 c4 08	 add	 esp, 8
  0009c	83 e0 fc	 and	 eax, -4			; fffffffcH
  0009f	3d 80 00 00 00	 cmp	 eax, 128		; 00000080H
  000a4	7f 8a		 jg	 SHORT $LL4@Sort_unche
$LN52@Sort_unche:

; 8243 :     if (_First != _Last) {

  000a6	3b fe		 cmp	 edi, esi
  000a8	0f 84 30 01 00
	00		 je	 $LN12@Sort_unche

; 8244 :         for (_BidIt _Mid = _First; ++_Mid != _Last;) { // order next element

  000ae	8d 5f 04	 lea	 ebx, DWORD PTR [edi+4]
  000b1	89 5c 24 20	 mov	 DWORD PTR __Mid$1$[esp+40], ebx
  000b5	3b de		 cmp	 ebx, esi
  000b7	0f 84 21 01 00
	00		 je	 $LN12@Sort_unche
  000bd	0f 1f 00	 npad	 3
$LL13@Sort_unche:

; 8246 :             _Iter_value_t<_BidIt> _Val(_STD move(*_Mid));

  000c0	8b 33		 mov	 esi, DWORD PTR [ebx]
; File C:\Anka2Project\Anka2Project\Source\Binary\source\UserInterface\PythonCharacterManager.cpp

; 329  : 		return pkLeft->LessRenderOrder(pkRight);		

  000c2	8b ce		 mov	 ecx, esi
  000c4	ff 37		 push	 DWORD PTR [edi]
; File C:\Program Files\Microsoft Visual Studio\2022\Community\VC\Tools\MSVC\14.44.35207\include\algorithm

; 8245 :             _BidIt _Hole = _Mid;

  000c6	89 5c 24 1c	 mov	 DWORD PTR __Hole$1$[esp+44], ebx

; 8246 :             _Iter_value_t<_BidIt> _Val(_STD move(*_Mid));

  000ca	89 74 24 18	 mov	 DWORD PTR __Val$1$[esp+44], esi
; File C:\Anka2Project\Anka2Project\Source\Binary\source\UserInterface\PythonCharacterManager.cpp

; 329  : 		return pkLeft->LessRenderOrder(pkRight);		

  000ce	e8 00 00 00 00	 call	 ?LessRenderOrder@CInstanceBase@@QAE_NPAV1@@Z ; CInstanceBase::LessRenderOrder
; File C:\Program Files\Microsoft Visual Studio\2022\Community\VC\Tools\MSVC\14.44.35207\include\algorithm

; 8248 :             if (_DEBUG_LT_PRED(_Pred, _Val, *_First)) { // found new earliest element, move to front

  000d3	84 c0		 test	 al, al
  000d5	0f 84 a6 00 00
	00		 je	 $LN18@Sort_unche
; File C:\Program Files\Microsoft Visual Studio\2022\Community\VC\Tools\MSVC\14.44.35207\include\xutility

; 5190 :             return _STD _Copy_backward_memmove(_First, _Last, _Dest);

  000db	8d 43 04	 lea	 eax, DWORD PTR [ebx+4]
  000de	8b d3		 mov	 edx, ebx
  000e0	50		 push	 eax
  000e1	8b cf		 mov	 ecx, edi
  000e3	e8 00 00 00 00	 call	 ??$_Copy_backward_memmove@PAPAVCInstanceBase@@PAPAV1@@std@@YAPAPAVCInstanceBase@@PAPAV1@00@Z ; std::_Copy_backward_memmove<CInstanceBase * *,CInstanceBase * *>
  000e8	83 c4 04	 add	 esp, 4
; File C:\Program Files\Microsoft Visual Studio\2022\Community\VC\Tools\MSVC\14.44.35207\include\algorithm

; 8250 :                 *_First = _STD move(_Val);

  000eb	89 37		 mov	 DWORD PTR [edi], esi

; 8251 :             } else { // look for insertion point after first

  000ed	e9 db 00 00 00	 jmp	 $LN11@Sort_unche
$LN53@Sort_unche:
; File C:\Program Files\Microsoft Visual Studio\2022\Community\VC\Tools\MSVC\14.44.35207\include\__msvc_heap_algorithms.hpp

; 124  :     _Diff _Bottom = _Last - _First;

  000f2	2b f7		 sub	 esi, edi
  000f4	8b c6		 mov	 eax, esi
  000f6	89 74 24 10	 mov	 DWORD PTR __Last$1$[esp+40], esi
  000fa	c1 f8 02	 sar	 eax, 2

; 125  :     for (_Diff _Hole = _Bottom >> 1; _Hole > 0;) { // shift for codegen

  000fd	8b d8		 mov	 ebx, eax
  000ff	89 44 24 18	 mov	 DWORD PTR __Bottom$1$[esp+40], eax
  00103	d1 fb		 sar	 ebx, 1
  00105	85 db		 test	 ebx, ebx
  00107	7e 32		 jle	 SHORT $LN32@Sort_unche
  00109	8b f0		 mov	 esi, eax
  0010b	0f 1f 44 00 00	 npad	 5
$LL60@Sort_unche:

; 126  :         // reheap top half, bottom to top
; 127  :         --_Hole;
; 128  :         _Iter_value_t<_RanIt> _Val(_STD move(*(_First + _Hole)));

  00110	8b 44 9f fc	 mov	 eax, DWORD PTR [edi+ebx*4-4]
  00114	4b		 dec	 ebx

; 129  :         _STD _Pop_heap_hole_by_index(_First, _Hole, _Bottom, _STD move(_Val), _Pred);

  00115	51		 push	 ecx
  00116	89 44 24 24	 mov	 DWORD PTR __Val$4[esp+44], eax
  0011a	8b d3		 mov	 edx, ebx
  0011c	8d 44 24 24	 lea	 eax, DWORD PTR __Val$4[esp+44]
  00120	8b cf		 mov	 ecx, edi
  00122	50		 push	 eax
  00123	56		 push	 esi
  00124	e8 00 00 00 00	 call	 ??$_Pop_heap_hole_by_index@PAPAVCInstanceBase@@PAV1@ULessCharacterInstancePtrRenderOrder@@@std@@YAXPAPAVCInstanceBase@@HH$$QAPAV1@ULessCharacterInstancePtrRenderOrder@@@Z ; std::_Pop_heap_hole_by_index<CInstanceBase * *,CInstanceBase *,LessCharacterInstancePtrRenderOrder>
  00129	8b 4d 0c	 mov	 ecx, DWORD PTR __Pred$[ebp]
  0012c	83 c4 0c	 add	 esp, 12			; 0000000cH
  0012f	85 db		 test	 ebx, ebx
  00131	7f dd		 jg	 SHORT $LL60@Sort_unche
  00133	8b 74 24 10	 mov	 esi, DWORD PTR __Last$1$[esp+40]
  00137	8b 44 24 18	 mov	 eax, DWORD PTR __Bottom$1$[esp+40]
$LN32@Sort_unche:
; File C:\Program Files\Microsoft Visual Studio\2022\Community\VC\Tools\MSVC\14.44.35207\include\algorithm

; 7148 :     for (; _Last - _First >= 2; --_Last) {

  0013b	83 f8 02	 cmp	 eax, 2
  0013e	0f 8c 9a 00 00
	00		 jl	 $LN12@Sort_unche
$LL38@Sort_unche:
; File C:\Program Files\Microsoft Visual Studio\2022\Community\VC\Tools\MSVC\14.44.35207\include\__msvc_heap_algorithms.hpp

; 102  :         _Iter_value_t<_RanIt> _Val(_STD move(*_Last));

  00144	8b 44 37 fc	 mov	 eax, DWORD PTR [edi+esi-4]

; 93   :     _STD _Pop_heap_hole_by_index(

  00148	33 d2		 xor	 edx, edx

; 102  :         _Iter_value_t<_RanIt> _Val(_STD move(*_Last));

  0014a	89 44 24 20	 mov	 DWORD PTR __Val$5[esp+40], eax

; 91   :     *_Dest      = _STD move(*_First);

  0014e	8b 07		 mov	 eax, DWORD PTR [edi]
  00150	89 44 37 fc	 mov	 DWORD PTR [edi+esi-4], eax

; 93   :     _STD _Pop_heap_hole_by_index(

  00154	83 c6 fc	 add	 esi, -4			; fffffffcH
  00157	51		 push	 ecx
  00158	8d 44 24 24	 lea	 eax, DWORD PTR __Val$5[esp+44]
  0015c	8b cf		 mov	 ecx, edi
  0015e	50		 push	 eax
  0015f	8b c6		 mov	 eax, esi
  00161	c1 f8 02	 sar	 eax, 2
  00164	50		 push	 eax
  00165	e8 00 00 00 00	 call	 ??$_Pop_heap_hole_by_index@PAPAVCInstanceBase@@PAV1@ULessCharacterInstancePtrRenderOrder@@@std@@YAXPAPAVCInstanceBase@@HH$$QAPAV1@ULessCharacterInstancePtrRenderOrder@@@Z ; std::_Pop_heap_hole_by_index<CInstanceBase * *,CInstanceBase *,LessCharacterInstancePtrRenderOrder>
; File C:\Program Files\Microsoft Visual Studio\2022\Community\VC\Tools\MSVC\14.44.35207\include\algorithm

; 7148 :     for (; _Last - _First >= 2; --_Last) {

  0016a	8b 4d 0c	 mov	 ecx, DWORD PTR __Pred$[ebp]
  0016d	8b c6		 mov	 eax, esi
  0016f	83 e0 fc	 and	 eax, -4			; fffffffcH
; File C:\Program Files\Microsoft Visual Studio\2022\Community\VC\Tools\MSVC\14.44.35207\include\__msvc_heap_algorithms.hpp

; 93   :     _STD _Pop_heap_hole_by_index(

  00172	83 c4 0c	 add	 esp, 12			; 0000000cH
; File C:\Program Files\Microsoft Visual Studio\2022\Community\VC\Tools\MSVC\14.44.35207\include\algorithm

; 7148 :     for (; _Last - _First >= 2; --_Last) {

  00175	83 f8 08	 cmp	 eax, 8
  00178	7d ca		 jge	 SHORT $LL38@Sort_unche

; 8394 :         }
; 8395 :     }
; 8396 : }

  0017a	5f		 pop	 edi
  0017b	5e		 pop	 esi
  0017c	5b		 pop	 ebx
  0017d	8b e5		 mov	 esp, ebp
  0017f	5d		 pop	 ebp
  00180	c3		 ret	 0
$LN18@Sort_unche:
; File C:\Anka2Project\Anka2Project\Source\Binary\source\UserInterface\PythonCharacterManager.cpp

; 329  : 		return pkLeft->LessRenderOrder(pkRight);		

  00181	ff 73 fc	 push	 DWORD PTR [ebx-4]
  00184	8b 4c 24 18	 mov	 ecx, DWORD PTR __Val$1$[esp+44]
; File C:\Program Files\Microsoft Visual Studio\2022\Community\VC\Tools\MSVC\14.44.35207\include\algorithm

; 8252 :                 for (_BidIt _Prev = _Hole; _DEBUG_LT_PRED(_Pred, _Val, *--_Prev); _Hole = _Prev) {

  00188	8d 73 fc	 lea	 esi, DWORD PTR [ebx-4]
; File C:\Anka2Project\Anka2Project\Source\Binary\source\UserInterface\PythonCharacterManager.cpp

; 329  : 		return pkLeft->LessRenderOrder(pkRight);		

  0018b	e8 00 00 00 00	 call	 ?LessRenderOrder@CInstanceBase@@QAE_NPAV1@@Z ; CInstanceBase::LessRenderOrder
; File C:\Program Files\Microsoft Visual Studio\2022\Community\VC\Tools\MSVC\14.44.35207\include\algorithm

; 8252 :                 for (_BidIt _Prev = _Hole; _DEBUG_LT_PRED(_Pred, _Val, *--_Prev); _Hole = _Prev) {

  00190	84 c0		 test	 al, al
  00192	74 2f		 je	 SHORT $LN15@Sort_unche
  00194	8b 7c 24 14	 mov	 edi, DWORD PTR __Val$1$[esp+40]
  00198	8b 5c 24 18	 mov	 ebx, DWORD PTR __Hole$1$[esp+40]
  0019c	0f 1f 40 00	 npad	 4
$LL16@Sort_unche:

; 8253 :                     *_Hole = _STD move(*_Prev); // move hole down

  001a0	8b 06		 mov	 eax, DWORD PTR [esi]
; File C:\Anka2Project\Anka2Project\Source\Binary\source\UserInterface\PythonCharacterManager.cpp

; 329  : 		return pkLeft->LessRenderOrder(pkRight);		

  001a2	8b cf		 mov	 ecx, edi
; File C:\Program Files\Microsoft Visual Studio\2022\Community\VC\Tools\MSVC\14.44.35207\include\algorithm

; 8253 :                     *_Hole = _STD move(*_Prev); // move hole down

  001a4	89 03		 mov	 DWORD PTR [ebx], eax
  001a6	8b de		 mov	 ebx, esi
; File C:\Anka2Project\Anka2Project\Source\Binary\source\UserInterface\PythonCharacterManager.cpp

; 329  : 		return pkLeft->LessRenderOrder(pkRight);		

  001a8	ff 76 fc	 push	 DWORD PTR [esi-4]
; File C:\Program Files\Microsoft Visual Studio\2022\Community\VC\Tools\MSVC\14.44.35207\include\algorithm

; 8252 :                 for (_BidIt _Prev = _Hole; _DEBUG_LT_PRED(_Pred, _Val, *--_Prev); _Hole = _Prev) {

  001ab	83 ee 04	 sub	 esi, 4
; File C:\Anka2Project\Anka2Project\Source\Binary\source\UserInterface\PythonCharacterManager.cpp

; 329  : 		return pkLeft->LessRenderOrder(pkRight);		

  001ae	e8 00 00 00 00	 call	 ?LessRenderOrder@CInstanceBase@@QAE_NPAV1@@Z ; CInstanceBase::LessRenderOrder
; File C:\Program Files\Microsoft Visual Studio\2022\Community\VC\Tools\MSVC\14.44.35207\include\algorithm

; 8252 :                 for (_BidIt _Prev = _Hole; _DEBUG_LT_PRED(_Pred, _Val, *--_Prev); _Hole = _Prev) {

  001b3	84 c0		 test	 al, al
  001b5	75 e9		 jne	 SHORT $LL16@Sort_unche
  001b7	8b 7c 24 1c	 mov	 edi, DWORD PTR __First$1$[esp+40]
  001bb	89 5c 24 18	 mov	 DWORD PTR __Hole$1$[esp+40], ebx
  001bf	8b 5c 24 20	 mov	 ebx, DWORD PTR __Mid$1$[esp+40]
$LN15@Sort_unche:

; 8254 :                 }
; 8255 : 
; 8256 :                 *_Hole = _STD move(_Val); // insert element in hole

  001c3	8b 4c 24 18	 mov	 ecx, DWORD PTR __Hole$1$[esp+40]
  001c7	8b 44 24 14	 mov	 eax, DWORD PTR __Val$1$[esp+40]
  001cb	89 01		 mov	 DWORD PTR [ecx], eax
$LN11@Sort_unche:

; 8244 :         for (_BidIt _Mid = _First; ++_Mid != _Last;) { // order next element

  001cd	83 c3 04	 add	 ebx, 4
  001d0	89 5c 24 20	 mov	 DWORD PTR __Mid$1$[esp+40], ebx
  001d4	3b 5c 24 10	 cmp	 ebx, DWORD PTR __Last$1$[esp+40]
  001d8	0f 85 e2 fe ff
	ff		 jne	 $LL13@Sort_unche
$LN12@Sort_unche:

; 8394 :         }
; 8395 :     }
; 8396 : }

  001de	5f		 pop	 edi
  001df	5e		 pop	 esi
  001e0	5b		 pop	 ebx
  001e1	8b e5		 mov	 esp, ebp
  001e3	5d		 pop	 ebp
  001e4	c3		 ret	 0
??$_Sort_unchecked@PAPAVCInstanceBase@@ULessCharacterInstancePtrRenderOrder@@@std@@YAXPAPAVCInstanceBase@@0HULessCharacterInstancePtrRenderOrder@@@Z ENDP ; std::_Sort_unchecked<CInstanceBase * *,LessCharacterInstancePtrRenderOrder>
_TEXT	ENDS
; Function compile flags: /Ogtp
; File C:\Program Files\Microsoft Visual Studio\2022\Community\VC\Tools\MSVC\14.44.35207\include\xtree
; File C:\Program Files\Microsoft Visual Studio\2022\Community\VC\Tools\MSVC\14.44.35207\include\type_traits
; File C:\Program Files\Microsoft Visual Studio\2022\Community\VC\Tools\MSVC\14.44.35207\include\xtree
; File C:\Program Files\Microsoft Visual Studio\2022\Community\VC\Tools\MSVC\14.44.35207\include\utility
; File C:\Program Files\Microsoft Visual Studio\2022\Community\VC\Tools\MSVC\14.44.35207\include\xtree
; File C:\Program Files\Microsoft Visual Studio\2022\Community\VC\Tools\MSVC\14.44.35207\include\xmemory
; File C:\Program Files\Microsoft Visual Studio\2022\Community\VC\Tools\MSVC\14.44.35207\include\xtree
; File C:\Program Files\Microsoft Visual Studio\2022\Community\VC\Tools\MSVC\14.44.35207\include\xmemory
; File C:\Program Files\Microsoft Visual Studio\2022\Community\VC\Tools\MSVC\14.44.35207\include\xtree
; File C:\Program Files\Microsoft Visual Studio\2022\Community\VC\Tools\MSVC\14.44.35207\include\xmemory
; File C:\Program Files\Microsoft Visual Studio\2022\Community\VC\Tools\MSVC\14.44.35207\include\xtree
; File C:\Program Files\Microsoft Visual Studio\2022\Community\VC\Tools\MSVC\14.44.35207\include\utility
; File C:\Program Files\Microsoft Visual Studio\2022\Community\VC\Tools\MSVC\14.44.35207\include\xtree
; File C:\Program Files\Microsoft Visual Studio\2022\Community\VC\Tools\MSVC\14.44.35207\include\utility
; File C:\Program Files\Microsoft Visual Studio\2022\Community\VC\Tools\MSVC\14.44.35207\include\xtree
;	COMDAT ??$_Emplace@U?$pair@$$CBKPAVCInstanceBase@@@std@@@?$_Tree@V?$_Tmap_traits@KPAVCInstanceBase@@U?$less@K@std@@V?$allocator@U?$pair@$$CBKPAVCInstanceBase@@@std@@@3@$0A@@std@@@std@@IAE?AU?$pair@PAU?$_Tree_node@U?$pair@$$CBKPAVCInstanceBase@@@std@@PAX@std@@_N@1@$$QAU?$pair@$$CBKPAVCInstanceBase@@@1@@Z
_TEXT	SEGMENT
__Loc$ = -36						; size = 12
$T1 = -24						; size = 12
$T7 = -20						; size = 8
__$EHRec$ = -12						; size = 12
___$ReturnUdt$ = 8					; size = 4
_<_Vals_0>$ = 12					; size = 4
??$_Emplace@U?$pair@$$CBKPAVCInstanceBase@@@std@@@?$_Tree@V?$_Tmap_traits@KPAVCInstanceBase@@U?$less@K@std@@V?$allocator@U?$pair@$$CBKPAVCInstanceBase@@@std@@@3@$0A@@std@@@std@@IAE?AU?$pair@PAU?$_Tree_node@U?$pair@$$CBKPAVCInstanceBase@@@std@@PAX@std@@_N@1@$$QAU?$pair@$$CBKPAVCInstanceBase@@@1@@Z PROC ; std::_Tree<std::_Tmap_traits<unsigned long,CInstanceBase *,std::less<unsigned long>,std::allocator<std::pair<unsigned long const ,CInstanceBase *> >,0> >::_Emplace<std::pair<unsigned long const ,CInstanceBase *> >, COMDAT
; _this$ = ecx

; 1010 :     pair<_Nodeptr, bool> _Emplace(_Valtys&&... _Vals) {

  00000	55		 push	 ebp
  00001	8b ec		 mov	 ebp, esp
  00003	6a ff		 push	 -1
  00005	68 00 00 00 00	 push	 __ehhandler$??$_Emplace@U?$pair@$$CBKPAVCInstanceBase@@@std@@@?$_Tree@V?$_Tmap_traits@KPAVCInstanceBase@@U?$less@K@std@@V?$allocator@U?$pair@$$CBKPAVCInstanceBase@@@std@@@3@$0A@@std@@@std@@IAE?AU?$pair@PAU?$_Tree_node@U?$pair@$$CBKPAVCInstanceBase@@@std@@PAX@std@@_N@1@$$QAU?$pair@$$CBKPAVCInstanceBase@@@1@@Z
  0000a	64 a1 00 00 00
	00		 mov	 eax, DWORD PTR fs:0
  00010	50		 push	 eax
  00011	83 ec 1c	 sub	 esp, 28			; 0000001cH
  00014	53		 push	 ebx
  00015	56		 push	 esi
  00016	57		 push	 edi
  00017	a1 00 00 00 00	 mov	 eax, DWORD PTR ___security_cookie
  0001c	33 c5		 xor	 eax, ebp
  0001e	50		 push	 eax
  0001f	8d 45 f4	 lea	 eax, DWORD PTR __$EHRec$[ebp]
  00022	64 a3 00 00 00
	00		 mov	 DWORD PTR fs:0, eax
  00028	8b f9		 mov	 edi, ecx

; 1011 :         using _In_place_key_extractor = typename _Traits::template _In_place_key_extractor<_Valtys...>;
; 1012 :         const auto _Scary             = _Get_scary();
; 1013 :         _Tree_find_result<_Nodeptr> _Loc;
; 1014 :         _Nodeptr _Inserted;
; 1015 :         if constexpr (!_Multi && _In_place_key_extractor::_Extractable) {
; 1016 :             const auto& _Keyval = _In_place_key_extractor::_Extract(_Vals...);
; 1017 :             _Loc                = _Find_lower_bound(_Keyval);

  0002a	8b 5d 0c	 mov	 ebx, DWORD PTR _<_Vals_0>$[ebp]
  0002d	8d 45 e8	 lea	 eax, DWORD PTR $T1[ebp]
  00030	53		 push	 ebx
  00031	50		 push	 eax
  00032	e8 00 00 00 00	 call	 ??$_Find_lower_bound@K@?$_Tree@V?$_Tmap_traits@KPAVCInstanceBase@@U?$less@K@std@@V?$allocator@U?$pair@$$CBKPAVCInstanceBase@@@std@@@3@$0A@@std@@@std@@IBE?AU?$_Tree_find_result@PAU?$_Tree_node@U?$pair@$$CBKPAVCInstanceBase@@@std@@PAX@std@@@1@ABK@Z ; std::_Tree<std::_Tmap_traits<unsigned long,CInstanceBase *,std::less<unsigned long>,std::allocator<std::pair<unsigned long const ,CInstanceBase *> >,0> >::_Find_lower_bound<unsigned long>
  00037	8b 48 08	 mov	 ecx, DWORD PTR [eax+8]
  0003a	f3 0f 7e 00	 movq	 xmm0, QWORD PTR [eax]
  0003e	66 0f d6 45 dc	 movq	 QWORD PTR __Loc$[ebp], xmm0

; 1624 :         return !_Bound->_Isnil && !_DEBUG_LT_PRED(_Getcomp(), _Keyval, _Traits::_Kfn(_Bound->_Myval));

  00043	80 79 0d 00	 cmp	 BYTE PTR [ecx+13], 0
  00047	75 24		 jne	 SHORT $LN2@Emplace
; File C:\Program Files\Microsoft Visual Studio\2022\Community\VC\Tools\MSVC\14.44.35207\include\type_traits

; 2380 :         return _Left < _Right;

  00049	8b 03		 mov	 eax, DWORD PTR [ebx]
  0004b	3b 41 10	 cmp	 eax, DWORD PTR [ecx+16]
; File C:\Program Files\Microsoft Visual Studio\2022\Community\VC\Tools\MSVC\14.44.35207\include\xtree

; 1624 :         return !_Bound->_Isnil && !_DEBUG_LT_PRED(_Getcomp(), _Keyval, _Traits::_Kfn(_Bound->_Myval));

  0004e	72 1d		 jb	 SHORT $LN2@Emplace
; File C:\Program Files\Microsoft Visual Studio\2022\Community\VC\Tools\MSVC\14.44.35207\include\utility

; 274  :         : first(_STD forward<_Other1>(_Val1)), second(_STD forward<_Other2>(_Val2)) {

  00050	8b 45 08	 mov	 eax, DWORD PTR ___$ReturnUdt$[ebp]
  00053	89 08		 mov	 DWORD PTR [eax], ecx
  00055	c6 40 04 00	 mov	 BYTE PTR [eax+4], 0
; File C:\Program Files\Microsoft Visual Studio\2022\Community\VC\Tools\MSVC\14.44.35207\include\xtree

; 1043 :     }

  00059	8b 4d f4	 mov	 ecx, DWORD PTR __$EHRec$[ebp]
  0005c	64 89 0d 00 00
	00 00		 mov	 DWORD PTR fs:0, ecx
  00063	59		 pop	 ecx
  00064	5f		 pop	 edi
  00065	5e		 pop	 esi
  00066	5b		 pop	 ebx
  00067	8b e5		 mov	 esp, ebp
  00069	5d		 pop	 ebp
  0006a	c2 08 00	 ret	 8
$LN2@Emplace:

; 1648 :         if (max_size() == _Get_scary()->_Mysize) {

  0006d	81 7f 04 aa aa
	aa 0a		 cmp	 DWORD PTR [edi+4], 178956970 ; 0aaaaaaaH
  00074	74 63		 je	 SHORT $LN92@Emplace

; 1018 :             if (_Lower_bound_duplicate(_Loc._Bound, _Keyval)) {
; 1019 :                 return {_Loc._Bound, false};
; 1020 :             }
; 1021 : 
; 1022 :             _Check_grow_by_1();
; 1023 :             _Inserted = _Tree_temp_node<_Alnode>(_Getal(), _Scary->_Myhead, _STD forward<_Valtys>(_Vals)...)._Release();

  00076	8b 37		 mov	 esi, DWORD PTR [edi]
; File C:\Program Files\Microsoft Visual Studio\2022\Community\VC\Tools\MSVC\14.44.35207\include\xmemory

; 1160 :     _CONSTEXPR20 explicit _Alloc_construct_ptr(_Alloc& _Al_) : _Al(_Al_), _Ptr(nullptr) {}

  00078	89 7d ec	 mov	 DWORD PTR $T7[ebp], edi
; File C:\Program Files\Microsoft Visual Studio\2022\Community\VC\Tools\MSVC\14.44.35207\include\xtree

; 808  :     explicit _Tree_temp_node_alloc(_Alnode& _Al_) : _Alloc_construct_ptr<_Alnode>(_Al_) {

  0007b	c7 45 fc 00 00
	00 00		 mov	 DWORD PTR __$EHRec$[ebp+8], 0
; File C:\Program Files\Microsoft Visual Studio\2022\Community\VC\Tools\MSVC\14.44.35207\include\xmemory

; 136  :         return ::operator new(_Bytes);

  00082	6a 18		 push	 24			; 00000018H

; 1167 :         _Ptr = nullptr; // if allocate throws, prevents double-free

  00084	c7 45 f0 00 00
	00 00		 mov	 DWORD PTR $T7[ebp+4], 0

; 136  :         return ::operator new(_Bytes);

  0008b	e8 00 00 00 00	 call	 ??2@YAPAXI@Z		; operator new
; File C:\Program Files\Microsoft Visual Studio\2022\Community\VC\Tools\MSVC\14.44.35207\include\xtree

; 830  :         _Alnode_traits::construct(this->_Al, _STD addressof(this->_Ptr->_Myval), _STD forward<_Valtys>(_Vals)...);

  00090	8b 0b		 mov	 ecx, DWORD PTR [ebx]
; File C:\Program Files\Microsoft Visual Studio\2022\Community\VC\Tools\MSVC\14.44.35207\include\xmemory

; 136  :         return ::operator new(_Bytes);

  00092	83 c4 04	 add	 esp, 4
; File C:\Program Files\Microsoft Visual Studio\2022\Community\VC\Tools\MSVC\14.44.35207\include\xtree

; 830  :         _Alnode_traits::construct(this->_Al, _STD addressof(this->_Ptr->_Myval), _STD forward<_Valtys>(_Vals)...);

  00095	8b 53 04	 mov	 edx, DWORD PTR [ebx+4]
  00098	89 48 10	 mov	 DWORD PTR [eax+16], ecx

; 1042 :         return {_Scary->_Insert_node(_Loc._Location, _Inserted), true};

  0009b	8b cf		 mov	 ecx, edi
  0009d	50		 push	 eax
  0009e	ff 75 e0	 push	 DWORD PTR __Loc$[ebp+4]

; 830  :         _Alnode_traits::construct(this->_Al, _STD addressof(this->_Ptr->_Myval), _STD forward<_Valtys>(_Vals)...);

  000a1	89 50 14	 mov	 DWORD PTR [eax+20], edx

; 1042 :         return {_Scary->_Insert_node(_Loc._Location, _Inserted), true};

  000a4	ff 75 dc	 push	 DWORD PTR __Loc$[ebp]

; 831  :         _Construct_in_place(this->_Ptr->_Left, _Myhead);

  000a7	89 30		 mov	 DWORD PTR [eax], esi

; 832  :         _Construct_in_place(this->_Ptr->_Parent, _Myhead);

  000a9	89 70 04	 mov	 DWORD PTR [eax+4], esi

; 833  :         _Construct_in_place(this->_Ptr->_Right, _Myhead);

  000ac	89 70 08	 mov	 DWORD PTR [eax+8], esi

; 834  :         this->_Ptr->_Color = _Red;

  000af	66 c7 40 0c 00
	00		 mov	 WORD PTR [eax+12], 0

; 1042 :         return {_Scary->_Insert_node(_Loc._Location, _Inserted), true};

  000b5	e8 00 00 00 00	 call	 ?_Insert_node@?$_Tree_val@U?$_Tree_simple_types@U?$pair@$$CBKPAVCInstanceBase@@@std@@@std@@@std@@QAEPAU?$_Tree_node@U?$pair@$$CBKPAVCInstanceBase@@@std@@PAX@2@U?$_Tree_id@PAU?$_Tree_node@U?$pair@$$CBKPAVCInstanceBase@@@std@@PAX@std@@@2@QAU32@@Z ; std::_Tree_val<std::_Tree_simple_types<std::pair<unsigned long const ,CInstanceBase *> > >::_Insert_node
; File C:\Program Files\Microsoft Visual Studio\2022\Community\VC\Tools\MSVC\14.44.35207\include\utility

; 274  :         : first(_STD forward<_Other1>(_Val1)), second(_STD forward<_Other2>(_Val2)) {

  000ba	8b 4d 08	 mov	 ecx, DWORD PTR ___$ReturnUdt$[ebp]
  000bd	89 01		 mov	 DWORD PTR [ecx], eax
; File C:\Program Files\Microsoft Visual Studio\2022\Community\VC\Tools\MSVC\14.44.35207\include\xtree

; 1042 :         return {_Scary->_Insert_node(_Loc._Location, _Inserted), true};

  000bf	8b c1		 mov	 eax, ecx
; File C:\Program Files\Microsoft Visual Studio\2022\Community\VC\Tools\MSVC\14.44.35207\include\utility

; 274  :         : first(_STD forward<_Other1>(_Val1)), second(_STD forward<_Other2>(_Val2)) {

  000c1	c6 41 04 01	 mov	 BYTE PTR [ecx+4], 1
; File C:\Program Files\Microsoft Visual Studio\2022\Community\VC\Tools\MSVC\14.44.35207\include\xtree

; 1043 :     }

  000c5	8b 4d f4	 mov	 ecx, DWORD PTR __$EHRec$[ebp]
  000c8	64 89 0d 00 00
	00 00		 mov	 DWORD PTR fs:0, ecx
  000cf	59		 pop	 ecx
  000d0	5f		 pop	 edi
  000d1	5e		 pop	 esi
  000d2	5b		 pop	 ebx
  000d3	8b e5		 mov	 esp, ebp
  000d5	5d		 pop	 ebp
  000d6	c2 08 00	 ret	 8
$LN92@Emplace:

; 1649 :             _Throw_tree_length_error();

  000d9	e8 00 00 00 00	 call	 ?_Throw_tree_length_error@std@@YAXXZ ; std::_Throw_tree_length_error
$LN90@Emplace:
  000de	cc		 int	 3
_TEXT	ENDS
;	COMDAT text$x
text$x	SEGMENT
__unwindfunclet$??$_Emplace@U?$pair@$$CBKPAVCInstanceBase@@@std@@@?$_Tree@V?$_Tmap_traits@KPAVCInstanceBase@@U?$less@K@std@@V?$allocator@U?$pair@$$CBKPAVCInstanceBase@@@std@@@3@$0A@@std@@@std@@IAE?AU?$pair@PAU?$_Tree_node@U?$pair@$$CBKPAVCInstanceBase@@@std@@PAX@std@@_N@1@$$QAU?$pair@$$CBKPAVCInstanceBase@@@1@@Z$2:
  00000	8d 4d ec	 lea	 ecx, DWORD PTR $T7[ebp]
  00003	e9 00 00 00 00	 jmp	 ??1?$_Alloc_construct_ptr@V?$allocator@U?$_Tree_node@U?$pair@$$CBKPAVCInstanceBase@@@std@@PAX@std@@@std@@@std@@QAE@XZ ; std::_Alloc_construct_ptr<std::allocator<std::_Tree_node<std::pair<unsigned long const ,CInstanceBase *>,void *> > >::~_Alloc_construct_ptr<std::allocator<std::_Tree_node<std::pair<unsigned long const ,CInstanceBase *>,void *> > >
  00008	cc		 int	 3
  00009	cc		 int	 3
  0000a	cc		 int	 3
  0000b	cc		 int	 3
  0000c	cc		 int	 3
__ehhandler$??$_Emplace@U?$pair@$$CBKPAVCInstanceBase@@@std@@@?$_Tree@V?$_Tmap_traits@KPAVCInstanceBase@@U?$less@K@std@@V?$allocator@U?$pair@$$CBKPAVCInstanceBase@@@std@@@3@$0A@@std@@@std@@IAE?AU?$pair@PAU?$_Tree_node@U?$pair@$$CBKPAVCInstanceBase@@@std@@PAX@std@@_N@1@$$QAU?$pair@$$CBKPAVCInstanceBase@@@1@@Z:
  0000d	90		 npad	 1
  0000e	90		 npad	 1
  0000f	8b 54 24 08	 mov	 edx, DWORD PTR [esp+8]
  00013	8d 42 0c	 lea	 eax, DWORD PTR [edx+12]
  00016	8b 4a d4	 mov	 ecx, DWORD PTR [edx-44]
  00019	33 c8		 xor	 ecx, eax
  0001b	e8 00 00 00 00	 call	 @__security_check_cookie@4
  00020	b8 00 00 00 00	 mov	 eax, OFFSET __ehfuncinfo$??$_Emplace@U?$pair@$$CBKPAVCInstanceBase@@@std@@@?$_Tree@V?$_Tmap_traits@KPAVCInstanceBase@@U?$less@K@std@@V?$allocator@U?$pair@$$CBKPAVCInstanceBase@@@std@@@3@$0A@@std@@@std@@IAE?AU?$pair@PAU?$_Tree_node@U?$pair@$$CBKPAVCInstanceBase@@@std@@PAX@std@@_N@1@$$QAU?$pair@$$CBKPAVCInstanceBase@@@1@@Z
  00025	e9 00 00 00 00	 jmp	 ___CxxFrameHandler3
text$x	ENDS
??$_Emplace@U?$pair@$$CBKPAVCInstanceBase@@@std@@@?$_Tree@V?$_Tmap_traits@KPAVCInstanceBase@@U?$less@K@std@@V?$allocator@U?$pair@$$CBKPAVCInstanceBase@@@std@@@3@$0A@@std@@@std@@IAE?AU?$pair@PAU?$_Tree_node@U?$pair@$$CBKPAVCInstanceBase@@@std@@PAX@std@@_N@1@$$QAU?$pair@$$CBKPAVCInstanceBase@@@1@@Z ENDP ; std::_Tree<std::_Tmap_traits<unsigned long,CInstanceBase *,std::less<unsigned long>,std::allocator<std::pair<unsigned long const ,CInstanceBase *> >,0> >::_Emplace<std::pair<unsigned long const ,CInstanceBase *> >
; Function compile flags: /Ogtp
; File C:\Program Files\Microsoft Visual Studio\2022\Community\VC\Tools\MSVC\14.44.35207\include\algorithm
; File C:\Program Files\Microsoft Visual Studio\2022\Community\VC\Tools\MSVC\14.44.35207\include\xutility
; File C:\Program Files\Microsoft Visual Studio\2022\Community\VC\Tools\MSVC\14.44.35207\include\algorithm
; File C:\Program Files\Microsoft Visual Studio\2022\Community\VC\Tools\MSVC\14.44.35207\include\xutility
; File C:\Anka2Project\Anka2Project\Source\Binary\source\UserInterface\PythonCharacterManager.cpp
; File C:\Program Files\Microsoft Visual Studio\2022\Community\VC\Tools\MSVC\14.44.35207\include\algorithm
; File C:\Program Files\Microsoft Visual Studio\2022\Community\VC\Tools\MSVC\14.44.35207\include\xutility
; File C:\Program Files\Microsoft Visual Studio\2022\Community\VC\Tools\MSVC\14.44.35207\include\algorithm
; File C:\Anka2Project\Anka2Project\Source\Binary\source\UserInterface\PythonCharacterManager.cpp
; File C:\Program Files\Microsoft Visual Studio\2022\Community\VC\Tools\MSVC\14.44.35207\include\xutility
; File C:\Anka2Project\Anka2Project\Source\Binary\source\UserInterface\PythonCharacterManager.cpp
; File C:\Program Files\Microsoft Visual Studio\2022\Community\VC\Tools\MSVC\14.44.35207\include\algorithm
; File C:\Program Files\Microsoft Visual Studio\2022\Community\VC\Tools\MSVC\14.44.35207\include\__msvc_heap_algorithms.hpp
; File C:\Program Files\Microsoft Visual Studio\2022\Community\VC\Tools\MSVC\14.44.35207\include\algorithm
; File C:\Program Files\Microsoft Visual Studio\2022\Community\VC\Tools\MSVC\14.44.35207\include\__msvc_heap_algorithms.hpp
; File C:\Program Files\Microsoft Visual Studio\2022\Community\VC\Tools\MSVC\14.44.35207\include\algorithm
; File C:\Program Files\Microsoft Visual Studio\2022\Community\VC\Tools\MSVC\14.44.35207\include\__msvc_heap_algorithms.hpp
; File C:\Program Files\Microsoft Visual Studio\2022\Community\VC\Tools\MSVC\14.44.35207\include\algorithm
; File C:\Program Files\Microsoft Visual Studio\2022\Community\VC\Tools\MSVC\14.44.35207\include\xutility
; File C:\Program Files\Microsoft Visual Studio\2022\Community\VC\Tools\MSVC\14.44.35207\include\algorithm
;	COMDAT ??$_Sort_unchecked@PAPAVCInstanceBase@@U?$_Ref_fn@UCInstanceBase_SLessCameraDistance@@@std@@@std@@YAXPAPAVCInstanceBase@@0HU?$_Ref_fn@UCInstanceBase_SLessCameraDistance@@@0@@Z
_TEXT	SEGMENT
__Val$1$ = -32						; size = 4
__Mid$1$ = -28						; size = 4
__Last$1$ = -24						; size = 4
__Hole$1$ = -20						; size = 4
__Bottom$1$ = -20					; size = 4
_pkInstRight$1$ = -16					; size = 4
_pkInstRight$1$ = -16					; size = 4
__Val$7 = -12						; size = 4
__First$1$ = -12					; size = 4
__Val$8 = -12						; size = 4
__Mid$9 = -8						; size = 8
tv527 = -8						; size = 4
tv528 = -8						; size = 4
__Ideal$ = 8						; size = 4
__Pred$ = 12						; size = 4
??$_Sort_unchecked@PAPAVCInstanceBase@@U?$_Ref_fn@UCInstanceBase_SLessCameraDistance@@@std@@@std@@YAXPAPAVCInstanceBase@@0HU?$_Ref_fn@UCInstanceBase_SLessCameraDistance@@@0@@Z PROC ; std::_Sort_unchecked<CInstanceBase * *,std::_Ref_fn<CInstanceBase_SLessCameraDistance> >, COMDAT
; __First$ = ecx
; __Last$ = edx

; 8369 : _CONSTEXPR20 void _Sort_unchecked(_RanIt _First, _RanIt _Last, _Iter_diff_t<_RanIt> _Ideal, _Pr _Pred) {

  00000	55		 push	 ebp
  00001	8b ec		 mov	 ebp, esp
  00003	83 e4 f8	 and	 esp, -8			; fffffff8H
  00006	83 ec 24	 sub	 esp, 36			; 00000024H
  00009	53		 push	 ebx
  0000a	56		 push	 esi
  0000b	57		 push	 edi
  0000c	8b fa		 mov	 edi, edx
  0000e	8b d9		 mov	 ebx, ecx

; 8370 :     // order [_First, _Last)
; 8371 :     for (;;) {
; 8372 :         if (_Last - _First <= _ISORT_MAX) { // small

  00010	8b c7		 mov	 eax, edi
  00012	89 7c 24 18	 mov	 DWORD PTR __Last$1$[esp+48], edi
  00016	2b c3		 sub	 eax, ebx
  00018	89 5c 24 24	 mov	 DWORD PTR __First$1$[esp+48], ebx
  0001c	83 e0 fc	 and	 eax, -4			; fffffffcH
  0001f	3d 80 00 00 00	 cmp	 eax, 128		; 00000080H
  00024	7e 7e		 jle	 SHORT $LN60@Sort_unche
  00026	8b 75 08	 mov	 esi, DWORD PTR __Ideal$[ebp]
  00029	0f 1f 80 00 00
	00 00		 npad	 7
$LL4@Sort_unche:

; 8374 :             return;
; 8375 :         }
; 8376 : 
; 8377 :         if (_Ideal <= 0) { // heap sort if too many divisions

  00030	85 f6		 test	 esi, esi
  00032	0f 8e 30 01 00
	00		 jle	 $LN61@Sort_unche

; 8378 :             _STD _Make_heap_unchecked(_First, _Last, _Pred);
; 8379 :             _STD _Sort_heap_unchecked(_First, _Last, _Pred);
; 8380 :             return;
; 8381 :         }
; 8382 : 
; 8383 :         // divide and conquer by quicksort
; 8384 :         auto _Mid = _STD _Partition_by_median_guess_unchecked(_First, _Last, _Pred);

  00038	ff 75 0c	 push	 DWORD PTR __Pred$[ebp]
  0003b	8b d3		 mov	 edx, ebx
  0003d	8d 4c 24 2c	 lea	 ecx, DWORD PTR __Mid$9[esp+52]
  00041	57		 push	 edi
  00042	e8 00 00 00 00	 call	 ??$_Partition_by_median_guess_unchecked@PAPAVCInstanceBase@@U?$_Ref_fn@UCInstanceBase_SLessCameraDistance@@@std@@@std@@YA?AU?$pair@PAPAVCInstanceBase@@PAPAV1@@0@PAPAVCInstanceBase@@0U?$_Ref_fn@UCInstanceBase_SLessCameraDistance@@@0@@Z ; std::_Partition_by_median_guess_unchecked<CInstanceBase * *,std::_Ref_fn<CInstanceBase_SLessCameraDistance> >

; 8385 : 
; 8386 :         _Ideal = (_Ideal >> 1) + (_Ideal >> 2); // allow 1.5 log2(N) divisions
; 8387 : 
; 8388 :         if (_Mid.first - _First < _Last - _Mid.second) { // loop on second half

  00047	8b 54 24 30	 mov	 edx, DWORD PTR __Mid$9[esp+56]
  0004b	8b c6		 mov	 eax, esi
  0004d	c1 f8 02	 sar	 eax, 2
  00050	83 c4 08	 add	 esp, 8
  00053	d1 fe		 sar	 esi, 1
  00055	8b cf		 mov	 ecx, edi
  00057	2b 4c 24 2c	 sub	 ecx, DWORD PTR __Mid$9[esp+52]
  0005b	03 f0		 add	 esi, eax
  0005d	8b c2		 mov	 eax, edx
  0005f	83 e1 fc	 and	 ecx, -4			; fffffffcH
  00062	ff 75 0c	 push	 DWORD PTR __Pred$[ebp]
  00065	2b c3		 sub	 eax, ebx
  00067	83 e0 fc	 and	 eax, -4			; fffffffcH
  0006a	56		 push	 esi
  0006b	3b c1		 cmp	 eax, ecx
  0006d	7d 11		 jge	 SHORT $LN7@Sort_unche

; 8389 :             _STD _Sort_unchecked(_First, _Mid.first, _Ideal, _Pred);

  0006f	8b cb		 mov	 ecx, ebx
  00071	e8 00 00 00 00	 call	 ??$_Sort_unchecked@PAPAVCInstanceBase@@U?$_Ref_fn@UCInstanceBase_SLessCameraDistance@@@std@@@std@@YAXPAPAVCInstanceBase@@0HU?$_Ref_fn@UCInstanceBase_SLessCameraDistance@@@0@@Z ; std::_Sort_unchecked<CInstanceBase * *,std::_Ref_fn<CInstanceBase_SLessCameraDistance> >

; 8390 :             _First = _Mid.second;

  00076	8b 5c 24 34	 mov	 ebx, DWORD PTR __Mid$9[esp+60]
  0007a	89 5c 24 2c	 mov	 DWORD PTR __First$1$[esp+56], ebx

; 8391 :         } else { // loop on first half

  0007e	eb 13		 jmp	 SHORT $LN87@Sort_unche
$LN7@Sort_unche:

; 8392 :             _STD _Sort_unchecked(_Mid.second, _Last, _Ideal, _Pred);

  00080	8b 4c 24 34	 mov	 ecx, DWORD PTR __Mid$9[esp+60]
  00084	8b d7		 mov	 edx, edi
  00086	e8 00 00 00 00	 call	 ??$_Sort_unchecked@PAPAVCInstanceBase@@U?$_Ref_fn@UCInstanceBase_SLessCameraDistance@@@std@@@std@@YAXPAPAVCInstanceBase@@0HU?$_Ref_fn@UCInstanceBase_SLessCameraDistance@@@0@@Z ; std::_Sort_unchecked<CInstanceBase * *,std::_Ref_fn<CInstanceBase_SLessCameraDistance> >

; 8393 :             _Last = _Mid.first;

  0008b	8b 7c 24 30	 mov	 edi, DWORD PTR __Mid$9[esp+56]
  0008f	89 7c 24 20	 mov	 DWORD PTR __Last$1$[esp+56], edi
$LN87@Sort_unche:

; 8370 :     // order [_First, _Last)
; 8371 :     for (;;) {
; 8372 :         if (_Last - _First <= _ISORT_MAX) { // small

  00093	8b c7		 mov	 eax, edi
  00095	83 c4 08	 add	 esp, 8
  00098	2b c3		 sub	 eax, ebx
  0009a	83 e0 fc	 and	 eax, -4			; fffffffcH
  0009d	3d 80 00 00 00	 cmp	 eax, 128		; 00000080H
  000a2	7f 8c		 jg	 SHORT $LL4@Sort_unche
$LN60@Sort_unche:

; 8373 :             _STD _Insertion_sort_unchecked(_First, _Last, _Pred);

  000a4	8b 75 0c	 mov	 esi, DWORD PTR __Pred$[ebp]

; 8243 :     if (_First != _Last) {

  000a7	3b df		 cmp	 ebx, edi
  000a9	0f 84 73 01 00
	00		 je	 $LN12@Sort_unche

; 8244 :         for (_BidIt _Mid = _First; ++_Mid != _Last;) { // order next element

  000af	8d 43 04	 lea	 eax, DWORD PTR [ebx+4]
  000b2	89 44 24 14	 mov	 DWORD PTR __Mid$1$[esp+48], eax
  000b6	3b c7		 cmp	 eax, edi
  000b8	0f 84 64 01 00
	00		 je	 $LN12@Sort_unche
  000be	66 90		 npad	 2
$LL13@Sort_unche:

; 8246 :             _Iter_value_t<_BidIt> _Val(_STD move(*_Mid));

  000c0	8b 08		 mov	 ecx, DWORD PTR [eax]
  000c2	89 44 24 1c	 mov	 DWORD PTR __Hole$1$[esp+48], eax
; File C:\Program Files\Microsoft Visual Studio\2022\Community\VC\Tools\MSVC\14.44.35207\include\xutility

; 763  :             return _Fn(_STD forward<_Args>(_Vals)...);

  000c6	8b 03		 mov	 eax, DWORD PTR [ebx]
; File C:\Program Files\Microsoft Visual Studio\2022\Community\VC\Tools\MSVC\14.44.35207\include\algorithm

; 8246 :             _Iter_value_t<_BidIt> _Val(_STD move(*_Mid));

  000c8	89 4c 24 10	 mov	 DWORD PTR __Val$1$[esp+48], ecx
; File C:\Program Files\Microsoft Visual Studio\2022\Community\VC\Tools\MSVC\14.44.35207\include\xutility

; 763  :             return _Fn(_STD forward<_Args>(_Vals)...);

  000cc	89 44 24 20	 mov	 DWORD PTR _pkInstRight$1$[esp+48], eax
; File C:\Anka2Project\Anka2Project\Source\Binary\source\UserInterface\PythonCharacterManager.cpp

; 616  : 		int nLeftDeadPoint=pkInstLeft->IsDead();

  000d0	e8 00 00 00 00	 call	 ?IsDead@CInstanceBase@@QAEHXZ ; CInstanceBase::IsDead

; 617  : 		int nRightDeadPoint=pkInstRight->IsDead();

  000d5	8b 4c 24 20	 mov	 ecx, DWORD PTR _pkInstRight$1$[esp+48]
  000d9	8b f8		 mov	 edi, eax
  000db	e8 00 00 00 00	 call	 ?IsDead@CInstanceBase@@QAEHXZ ; CInstanceBase::IsDead

; 618  : 
; 619  : 		if (nLeftDeadPoint<nRightDeadPoint)

  000e0	3b f8		 cmp	 edi, eax
  000e2	8b 7c 24 10	 mov	 edi, DWORD PTR __Val$1$[esp+48]
  000e6	0f 8c 0d 01 00
	00		 jl	 $LN82@Sort_unche

; 620  : 			return true;
; 621  : 
; 622  : 		if (pkInstLeft->CalculateDistanceSq3d(m_kPPosEye)<pkInstRight->CalculateDistanceSq3d(m_kPPosEye))

  000ec	56		 push	 esi
  000ed	8b cf		 mov	 ecx, edi
  000ef	e8 00 00 00 00	 call	 ?CalculateDistanceSq3d@CInstanceBase@@QAEMABUD3DXVECTOR3@@@Z ; CInstanceBase::CalculateDistanceSq3d
  000f4	8b 4c 24 20	 mov	 ecx, DWORD PTR _pkInstRight$1$[esp+48]
  000f8	56		 push	 esi
  000f9	f3 0f 11 44 24
	2c		 movss	 DWORD PTR tv527[esp+52], xmm0
  000ff	e8 00 00 00 00	 call	 ?CalculateDistanceSq3d@CInstanceBase@@QAEMABUD3DXVECTOR3@@@Z ; CInstanceBase::CalculateDistanceSq3d
  00104	0f 2f 44 24 28	 comiss	 xmm0, DWORD PTR tv527[esp+48]
  00109	0f 87 ea 00 00
	00		 ja	 $LN82@Sort_unche
; File C:\Program Files\Microsoft Visual Studio\2022\Community\VC\Tools\MSVC\14.44.35207\include\algorithm

; 8252 :                 for (_BidIt _Prev = _Hole; _DEBUG_LT_PRED(_Pred, _Val, *--_Prev); _Hole = _Prev) {

  0010f	8b 5c 24 14	 mov	 ebx, DWORD PTR __Mid$1$[esp+48]
$LL16@Sort_unche:
; File C:\Program Files\Microsoft Visual Studio\2022\Community\VC\Tools\MSVC\14.44.35207\include\xutility

; 763  :             return _Fn(_STD forward<_Args>(_Vals)...);

  00113	8b 43 fc	 mov	 eax, DWORD PTR [ebx-4]
; File C:\Program Files\Microsoft Visual Studio\2022\Community\VC\Tools\MSVC\14.44.35207\include\algorithm

; 8252 :                 for (_BidIt _Prev = _Hole; _DEBUG_LT_PRED(_Pred, _Val, *--_Prev); _Hole = _Prev) {

  00116	83 eb 04	 sub	 ebx, 4
; File C:\Anka2Project\Anka2Project\Source\Binary\source\UserInterface\PythonCharacterManager.cpp

; 616  : 		int nLeftDeadPoint=pkInstLeft->IsDead();

  00119	8b cf		 mov	 ecx, edi
; File C:\Program Files\Microsoft Visual Studio\2022\Community\VC\Tools\MSVC\14.44.35207\include\xutility

; 763  :             return _Fn(_STD forward<_Args>(_Vals)...);

  0011b	89 44 24 20	 mov	 DWORD PTR _pkInstRight$1$[esp+48], eax
; File C:\Anka2Project\Anka2Project\Source\Binary\source\UserInterface\PythonCharacterManager.cpp

; 616  : 		int nLeftDeadPoint=pkInstLeft->IsDead();

  0011f	e8 00 00 00 00	 call	 ?IsDead@CInstanceBase@@QAEHXZ ; CInstanceBase::IsDead

; 617  : 		int nRightDeadPoint=pkInstRight->IsDead();

  00124	8b 4c 24 20	 mov	 ecx, DWORD PTR _pkInstRight$1$[esp+48]
  00128	8b f8		 mov	 edi, eax
  0012a	e8 00 00 00 00	 call	 ?IsDead@CInstanceBase@@QAEHXZ ; CInstanceBase::IsDead

; 618  : 
; 619  : 		if (nLeftDeadPoint<nRightDeadPoint)

  0012f	3b f8		 cmp	 edi, eax
  00131	8b 7c 24 10	 mov	 edi, DWORD PTR __Val$1$[esp+48]
  00135	7c 23		 jl	 SHORT $LN83@Sort_unche

; 620  : 			return true;
; 621  : 
; 622  : 		if (pkInstLeft->CalculateDistanceSq3d(m_kPPosEye)<pkInstRight->CalculateDistanceSq3d(m_kPPosEye))

  00137	56		 push	 esi
  00138	8b cf		 mov	 ecx, edi
  0013a	e8 00 00 00 00	 call	 ?CalculateDistanceSq3d@CInstanceBase@@QAEMABUD3DXVECTOR3@@@Z ; CInstanceBase::CalculateDistanceSq3d
  0013f	8b 4c 24 20	 mov	 ecx, DWORD PTR _pkInstRight$1$[esp+48]
  00143	56		 push	 esi
  00144	f3 0f 11 44 24
	2c		 movss	 DWORD PTR tv528[esp+52], xmm0
  0014a	e8 00 00 00 00	 call	 ?CalculateDistanceSq3d@CInstanceBase@@QAEMABUD3DXVECTOR3@@@Z ; CInstanceBase::CalculateDistanceSq3d
  0014f	0f 2f 44 24 28	 comiss	 xmm0, DWORD PTR tv528[esp+48]
  00154	0f 86 93 00 00
	00		 jbe	 $LN36@Sort_unche
$LN83@Sort_unche:
; File C:\Program Files\Microsoft Visual Studio\2022\Community\VC\Tools\MSVC\14.44.35207\include\algorithm

; 8253 :                     *_Hole = _STD move(*_Prev); // move hole down

  0015a	8b 4c 24 1c	 mov	 ecx, DWORD PTR __Hole$1$[esp+48]
  0015e	8b 03		 mov	 eax, DWORD PTR [ebx]
  00160	89 5c 24 1c	 mov	 DWORD PTR __Hole$1$[esp+48], ebx
  00164	89 01		 mov	 DWORD PTR [ecx], eax
  00166	eb ab		 jmp	 SHORT $LL16@Sort_unche
$LN61@Sort_unche:
; File C:\Program Files\Microsoft Visual Studio\2022\Community\VC\Tools\MSVC\14.44.35207\include\__msvc_heap_algorithms.hpp

; 124  :     _Diff _Bottom = _Last - _First;

  00168	2b fb		 sub	 edi, ebx
  0016a	8b c7		 mov	 eax, edi
  0016c	89 7c 24 18	 mov	 DWORD PTR __Last$1$[esp+48], edi
  00170	c1 f8 02	 sar	 eax, 2

; 125  :     for (_Diff _Hole = _Bottom >> 1; _Hole > 0;) { // shift for codegen

  00173	8b f0		 mov	 esi, eax
  00175	89 44 24 1c	 mov	 DWORD PTR __Bottom$1$[esp+48], eax
  00179	d1 fe		 sar	 esi, 1
  0017b	85 f6		 test	 esi, esi
  0017d	7e 2c		 jle	 SHORT $LN40@Sort_unche
  0017f	8b f8		 mov	 edi, eax
$LL67@Sort_unche:

; 126  :         // reheap top half, bottom to top
; 127  :         --_Hole;
; 128  :         _Iter_value_t<_RanIt> _Val(_STD move(*(_First + _Hole)));

  00181	8b 44 b3 fc	 mov	 eax, DWORD PTR [ebx+esi*4-4]
  00185	4e		 dec	 esi

; 129  :         _STD _Pop_heap_hole_by_index(_First, _Hole, _Bottom, _STD move(_Val), _Pred);

  00186	ff 75 0c	 push	 DWORD PTR __Pred$[ebp]
  00189	89 44 24 28	 mov	 DWORD PTR __Val$7[esp+52], eax
  0018d	8b d6		 mov	 edx, esi
  0018f	8d 44 24 28	 lea	 eax, DWORD PTR __Val$7[esp+52]
  00193	8b cb		 mov	 ecx, ebx
  00195	50		 push	 eax
  00196	57		 push	 edi
  00197	e8 00 00 00 00	 call	 ??$_Pop_heap_hole_by_index@PAPAVCInstanceBase@@PAV1@U?$_Ref_fn@UCInstanceBase_SLessCameraDistance@@@std@@@std@@YAXPAPAVCInstanceBase@@HH$$QAPAV1@U?$_Ref_fn@UCInstanceBase_SLessCameraDistance@@@0@@Z ; std::_Pop_heap_hole_by_index<CInstanceBase * *,CInstanceBase *,std::_Ref_fn<CInstanceBase_SLessCameraDistance> >
  0019c	83 c4 0c	 add	 esp, 12			; 0000000cH
  0019f	85 f6		 test	 esi, esi
  001a1	7f de		 jg	 SHORT $LL67@Sort_unche
  001a3	8b 7c 24 18	 mov	 edi, DWORD PTR __Last$1$[esp+48]
  001a7	8b 44 24 1c	 mov	 eax, DWORD PTR __Bottom$1$[esp+48]
$LN40@Sort_unche:
; File C:\Program Files\Microsoft Visual Studio\2022\Community\VC\Tools\MSVC\14.44.35207\include\algorithm

; 7148 :     for (; _Last - _First >= 2; --_Last) {

  001ab	83 f8 02	 cmp	 eax, 2
  001ae	7c 72		 jl	 SHORT $LN12@Sort_unche
$LL46@Sort_unche:
; File C:\Program Files\Microsoft Visual Studio\2022\Community\VC\Tools\MSVC\14.44.35207\include\__msvc_heap_algorithms.hpp

; 102  :         _Iter_value_t<_RanIt> _Val(_STD move(*_Last));

  001b0	8b 44 3b fc	 mov	 eax, DWORD PTR [ebx+edi-4]

; 93   :     _STD _Pop_heap_hole_by_index(

  001b4	33 d2		 xor	 edx, edx

; 102  :         _Iter_value_t<_RanIt> _Val(_STD move(*_Last));

  001b6	89 44 24 24	 mov	 DWORD PTR __Val$8[esp+48], eax

; 93   :     _STD _Pop_heap_hole_by_index(

  001ba	8b cb		 mov	 ecx, ebx
  001bc	8b 03		 mov	 eax, DWORD PTR [ebx]
  001be	89 44 3b fc	 mov	 DWORD PTR [ebx+edi-4], eax
  001c2	8d 44 24 24	 lea	 eax, DWORD PTR __Val$8[esp+48]
  001c6	ff 75 0c	 push	 DWORD PTR __Pred$[ebp]
  001c9	50		 push	 eax
  001ca	8d 47 fc	 lea	 eax, DWORD PTR [edi-4]
  001cd	c1 f8 02	 sar	 eax, 2
  001d0	50		 push	 eax
  001d1	e8 00 00 00 00	 call	 ??$_Pop_heap_hole_by_index@PAPAVCInstanceBase@@PAV1@U?$_Ref_fn@UCInstanceBase_SLessCameraDistance@@@std@@@std@@YAXPAPAVCInstanceBase@@HH$$QAPAV1@U?$_Ref_fn@UCInstanceBase_SLessCameraDistance@@@0@@Z ; std::_Pop_heap_hole_by_index<CInstanceBase * *,CInstanceBase *,std::_Ref_fn<CInstanceBase_SLessCameraDistance> >
; File C:\Program Files\Microsoft Visual Studio\2022\Community\VC\Tools\MSVC\14.44.35207\include\algorithm

; 7148 :     for (; _Last - _First >= 2; --_Last) {

  001d6	83 c7 fc	 add	 edi, -4			; fffffffcH
; File C:\Program Files\Microsoft Visual Studio\2022\Community\VC\Tools\MSVC\14.44.35207\include\__msvc_heap_algorithms.hpp

; 93   :     _STD _Pop_heap_hole_by_index(

  001d9	83 c4 0c	 add	 esp, 12			; 0000000cH
; File C:\Program Files\Microsoft Visual Studio\2022\Community\VC\Tools\MSVC\14.44.35207\include\algorithm

; 7148 :     for (; _Last - _First >= 2; --_Last) {

  001dc	8b c7		 mov	 eax, edi
  001de	83 e0 fc	 and	 eax, -4			; fffffffcH
  001e1	83 f8 08	 cmp	 eax, 8
  001e4	7d ca		 jge	 SHORT $LL46@Sort_unche

; 8394 :         }
; 8395 :     }
; 8396 : }

  001e6	5f		 pop	 edi
  001e7	5e		 pop	 esi
  001e8	5b		 pop	 ebx
  001e9	8b e5		 mov	 esp, ebp
  001eb	5d		 pop	 ebp
  001ec	c3		 ret	 0
$LN36@Sort_unche:

; 8256 :                 *_Hole = _STD move(_Val); // insert element in hole

  001ed	8b 4c 24 1c	 mov	 ecx, DWORD PTR __Hole$1$[esp+48]
  001f1	8b 5c 24 24	 mov	 ebx, DWORD PTR __First$1$[esp+48]
  001f5	89 39		 mov	 DWORD PTR [ecx], edi
  001f7	eb 14		 jmp	 SHORT $LN11@Sort_unche
$LN82@Sort_unche:
; File C:\Program Files\Microsoft Visual Studio\2022\Community\VC\Tools\MSVC\14.44.35207\include\xutility

; 5190 :             return _STD _Copy_backward_memmove(_First, _Last, _Dest);

  001f9	8b 54 24 14	 mov	 edx, DWORD PTR __Mid$1$[esp+48]
  001fd	8b cb		 mov	 ecx, ebx
  001ff	8d 42 04	 lea	 eax, DWORD PTR [edx+4]
  00202	50		 push	 eax
  00203	e8 00 00 00 00	 call	 ??$_Copy_backward_memmove@PAPAVCInstanceBase@@PAPAV1@@std@@YAPAPAVCInstanceBase@@PAPAV1@00@Z ; std::_Copy_backward_memmove<CInstanceBase * *,CInstanceBase * *>
  00208	83 c4 04	 add	 esp, 4
; File C:\Program Files\Microsoft Visual Studio\2022\Community\VC\Tools\MSVC\14.44.35207\include\algorithm

; 8250 :                 *_First = _STD move(_Val);

  0020b	89 3b		 mov	 DWORD PTR [ebx], edi
$LN11@Sort_unche:

; 8244 :         for (_BidIt _Mid = _First; ++_Mid != _Last;) { // order next element

  0020d	8b 44 24 14	 mov	 eax, DWORD PTR __Mid$1$[esp+48]
  00211	83 c0 04	 add	 eax, 4
  00214	89 44 24 14	 mov	 DWORD PTR __Mid$1$[esp+48], eax
  00218	3b 44 24 18	 cmp	 eax, DWORD PTR __Last$1$[esp+48]
  0021c	0f 85 9e fe ff
	ff		 jne	 $LL13@Sort_unche
$LN12@Sort_unche:

; 8394 :         }
; 8395 :     }
; 8396 : }

  00222	5f		 pop	 edi
  00223	5e		 pop	 esi
  00224	5b		 pop	 ebx
  00225	8b e5		 mov	 esp, ebp
  00227	5d		 pop	 ebp
  00228	c3		 ret	 0
??$_Sort_unchecked@PAPAVCInstanceBase@@U?$_Ref_fn@UCInstanceBase_SLessCameraDistance@@@std@@@std@@YAXPAPAVCInstanceBase@@0HU?$_Ref_fn@UCInstanceBase_SLessCameraDistance@@@0@@Z ENDP ; std::_Sort_unchecked<CInstanceBase * *,std::_Ref_fn<CInstanceBase_SLessCameraDistance> >
_TEXT	ENDS
; Function compile flags: /Ogtp
; File C:\Program Files\Microsoft Visual Studio\2022\Community\VC\Tools\MSVC\14.44.35207\include\xutility
;	COMDAT ??$_Find_unchecked@PAPAVCInstanceBase@@PAV1@@std@@YAPAPAVCInstanceBase@@PAPAV1@QAPAV1@ABQAV1@@Z
_TEXT	SEGMENT
__Val$ = 8						; size = 4
??$_Find_unchecked@PAPAVCInstanceBase@@PAV1@@std@@YAPAPAVCInstanceBase@@PAPAV1@QAPAV1@ABQAV1@@Z PROC ; std::_Find_unchecked<CInstanceBase * *,CInstanceBase *>, COMDAT
; __First$ = ecx
; __Last$ = edx

; 6114 : _NODISCARD _CONSTEXPR20 _InIt _Find_unchecked(_InIt _First, const _InIt _Last, const _Ty& _Val) {

  00000	55		 push	 ebp
  00001	8b ec		 mov	 ebp, esp

; 6115 :     // find first matching _Val; choose optimization
; 6116 :     // activate optimization for contiguous iterators to most scalar types (possibly const-qualified)
; 6117 :     if constexpr (_Vector_alg_in_find_is_safe<_InIt, _Ty>) {
; 6118 : #if _HAS_CXX20
; 6119 :         if (!_STD is_constant_evaluated())
; 6120 : #endif // _HAS_CXX20
; 6121 :         {
; 6122 :             if (!_STD _Could_compare_equal_to_value_type<_InIt>(_Val)) {
; 6123 :                 return _Last;
; 6124 :             }
; 6125 : #if _USE_STD_VECTOR_ALGORITHMS
; 6126 :             const auto _First_ptr = _STD _To_address(_First);
; 6127 :             const auto _Result    = _STD _Find_vectorized(_First_ptr, _STD _To_address(_Last), _Val);

  00003	8b 45 08	 mov	 eax, DWORD PTR __Val$[ebp]
  00006	ff 30		 push	 DWORD PTR [eax]
  00008	e8 00 00 00 00	 call	 ??$_Find_vectorized@PAVCInstanceBase@@PAV1@@std@@YAPAPAVCInstanceBase@@QAPAV1@0QAV1@@Z ; std::_Find_vectorized<CInstanceBase *,CInstanceBase *>
  0000d	83 c4 04	 add	 esp, 4

; 6128 :             if constexpr (is_pointer_v<_InIt>) {
; 6129 :                 return _Result;
; 6130 :             } else {
; 6131 :                 return _First + (_Result - _First_ptr);
; 6132 :             }
; 6133 : #else // ^^^ _USE_STD_VECTOR_ALGORITHMS / !_USE_STD_VECTOR_ALGORITHMS vvv
; 6134 :             if constexpr (sizeof(_Iter_value_t<_InIt>) <= 2) {
; 6135 :                 const auto _First_ptr = _STD _To_address(_First);
; 6136 :                 const auto _Count     = static_cast<size_t>(_Last - _First);
; 6137 : 
; 6138 :                 using _Ptr_t = remove_reference_t<_Iter_ref_t<_InIt>>*;
; 6139 :                 _Ptr_t _Result;
; 6140 : 
; 6141 :                 if constexpr (sizeof(_Iter_value_t<_InIt>) == 1) {
; 6142 :                     _Result = static_cast<_Ptr_t>(_CSTD memchr(_First_ptr, static_cast<unsigned char>(_Val), _Count));
; 6143 :                 } else {
; 6144 :                     _STL_INTERNAL_STATIC_ASSERT(sizeof(_Iter_value_t<_InIt>) == 2);
; 6145 :                     _Result = reinterpret_cast<_Ptr_t>(const_cast<wchar_t*>(_CSTD wmemchr(
; 6146 :                         reinterpret_cast<const wchar_t*>(_First_ptr), static_cast<wchar_t>(_Val), _Count)));
; 6147 :                 }
; 6148 : 
; 6149 :                 if constexpr (is_pointer_v<_InIt>) {
; 6150 :                     return _Result ? _Result : _Last;
; 6151 :                 } else {
; 6152 :                     return _Result ? _First + (_Result - _First_ptr) : _Last;
; 6153 :                 }
; 6154 :             }
; 6155 : #endif // ^^^ !_USE_STD_VECTOR_ALGORITHMS ^^^
; 6156 :         }
; 6157 :     }
; 6158 : 
; 6159 :     for (; _First != _Last; ++_First) {
; 6160 :         if (*_First == _Val) {
; 6161 :             break;
; 6162 :         }
; 6163 :     }
; 6164 : 
; 6165 :     return _First;
; 6166 : }

  00010	5d		 pop	 ebp
  00011	c3		 ret	 0
??$_Find_unchecked@PAPAVCInstanceBase@@PAV1@@std@@YAPAPAVCInstanceBase@@PAPAV1@QAPAV1@ABQAV1@@Z ENDP ; std::_Find_unchecked<CInstanceBase * *,CInstanceBase *>
_TEXT	ENDS
; Function compile flags: /Ogtp
; File C:\Program Files\Microsoft Visual Studio\2022\Community\VC\Tools\MSVC\14.44.35207\include\xutility
;	COMDAT ??$_Adl_verify_range@V?$_Vector_iterator@V?$_Vector_val@U?$_Simple_types@U?$pair@PAVCInstanceBase@@M@std@@@std@@@std@@@std@@V12@@std@@YAXABV?$_Vector_iterator@V?$_Vector_val@U?$_Simple_types@U?$pair@PAVCInstanceBase@@M@std@@@std@@@std@@@0@0@Z
_TEXT	SEGMENT
??$_Adl_verify_range@V?$_Vector_iterator@V?$_Vector_val@U?$_Simple_types@U?$pair@PAVCInstanceBase@@M@std@@@std@@@std@@@std@@V12@@std@@YAXABV?$_Vector_iterator@V?$_Vector_val@U?$_Simple_types@U?$pair@PAVCInstanceBase@@M@std@@@std@@@std@@@0@0@Z PROC ; std::_Adl_verify_range<std::_Vector_iterator<std::_Vector_val<std::_Simple_types<std::pair<CInstanceBase *,float> > > >,std::_Vector_iterator<std::_Vector_val<std::_Simple_types<std::pair<CInstanceBase *,float> > > > >, COMDAT
; __First$dead$ = ecx
; __Last$dead$ = edx

; 1353 :     // check that [_First, _Last) forms an iterator range
; 1354 :     if constexpr (is_pointer_v<_Iter> && is_pointer_v<_Sentinel>) {
; 1355 : #if _ITERATOR_DEBUG_LEVEL != 0
; 1356 :         _STL_VERIFY(_First <= _Last, "transposed pointer range");
; 1357 : #endif // _ITERATOR_DEBUG_LEVEL != 0
; 1358 :     } else if constexpr (_Range_verifiable_v<_Iter, _Sentinel>) {
; 1359 :         _Verify_range(_First, _Last);
; 1360 :     }
; 1361 : }

  00000	c2 00 00	 ret	 0
??$_Adl_verify_range@V?$_Vector_iterator@V?$_Vector_val@U?$_Simple_types@U?$pair@PAVCInstanceBase@@M@std@@@std@@@std@@@std@@V12@@std@@YAXABV?$_Vector_iterator@V?$_Vector_val@U?$_Simple_types@U?$pair@PAVCInstanceBase@@M@std@@@std@@@std@@@0@0@Z ENDP ; std::_Adl_verify_range<std::_Vector_iterator<std::_Vector_val<std::_Simple_types<std::pair<CInstanceBase *,float> > > >,std::_Vector_iterator<std::_Vector_val<std::_Simple_types<std::pair<CInstanceBase *,float> > > > >
_TEXT	ENDS
; Function compile flags: /Ogtp
; File C:\Program Files\Microsoft Visual Studio\2022\Community\VC\Tools\MSVC\14.44.35207\include\xtree
; File C:\Program Files\Microsoft Visual Studio\2022\Community\VC\Tools\MSVC\14.44.35207\include\utility
; File C:\Program Files\Microsoft Visual Studio\2022\Community\VC\Tools\MSVC\14.44.35207\include\xmemory
; File C:\Program Files\Microsoft Visual Studio\2022\Community\VC\Tools\MSVC\14.44.35207\include\xtree
;	COMDAT ??$_Erase_tree@V?$allocator@U?$_Tree_node@U?$pair@$$CBKPAVCInstanceBase@@@std@@PAX@std@@@std@@@?$_Tree_val@U?$_Tree_simple_types@U?$pair@$$CBKPAVCInstanceBase@@@std@@@std@@@std@@QAEXAAV?$allocator@U?$_Tree_node@U?$pair@$$CBKPAVCInstanceBase@@@std@@PAX@std@@@1@PAU?$_Tree_node@U?$pair@$$CBKPAVCInstanceBase@@@std@@PAX@1@@Z
_TEXT	SEGMENT
__Al$ = 8						; size = 4
__Rootnode$ = 12					; size = 4
??$_Erase_tree@V?$allocator@U?$_Tree_node@U?$pair@$$CBKPAVCInstanceBase@@@std@@PAX@std@@@std@@@?$_Tree_val@U?$_Tree_simple_types@U?$pair@$$CBKPAVCInstanceBase@@@std@@@std@@@std@@QAEXAAV?$allocator@U?$_Tree_node@U?$pair@$$CBKPAVCInstanceBase@@@std@@PAX@std@@@1@PAU?$_Tree_node@U?$pair@$$CBKPAVCInstanceBase@@@std@@PAX@1@@Z PROC ; std::_Tree_val<std::_Tree_simple_types<std::pair<unsigned long const ,CInstanceBase *> > >::_Erase_tree<std::allocator<std::_Tree_node<std::pair<unsigned long const ,CInstanceBase *>,void *> > >, COMDAT
; _this$ = ecx

; 767  :     void _Erase_tree(_Alnode& _Al, _Nodeptr _Rootnode) noexcept {

  00000	55		 push	 ebp
  00001	8b ec		 mov	 ebp, esp
  00003	53		 push	 ebx
  00004	56		 push	 esi

; 768  :         while (!_Rootnode->_Isnil) { // free subtrees, then node

  00005	8b 75 0c	 mov	 esi, DWORD PTR __Rootnode$[ebp]
  00008	8b d9		 mov	 ebx, ecx
  0000a	80 7e 0d 00	 cmp	 BYTE PTR [esi+13], 0
  0000e	75 25		 jne	 SHORT $LN51@Erase_tree
  00010	57		 push	 edi
  00011	8b 7d 08	 mov	 edi, DWORD PTR __Al$[ebp]
$LL2@Erase_tree:

; 769  :             _Erase_tree(_Al, _Rootnode->_Right);

  00014	ff 76 08	 push	 DWORD PTR [esi+8]
  00017	8b cb		 mov	 ecx, ebx
  00019	57		 push	 edi
  0001a	e8 00 00 00 00	 call	 ??$_Erase_tree@V?$allocator@U?$_Tree_node@U?$pair@$$CBKPAVCInstanceBase@@@std@@PAX@std@@@std@@@?$_Tree_val@U?$_Tree_simple_types@U?$pair@$$CBKPAVCInstanceBase@@@std@@@std@@@std@@QAEXAAV?$allocator@U?$_Tree_node@U?$pair@$$CBKPAVCInstanceBase@@@std@@PAX@std@@@1@PAU?$_Tree_node@U?$pair@$$CBKPAVCInstanceBase@@@std@@PAX@1@@Z ; std::_Tree_val<std::_Tree_simple_types<std::pair<unsigned long const ,CInstanceBase *> > >::_Erase_tree<std::allocator<std::_Tree_node<std::pair<unsigned long const ,CInstanceBase *>,void *> > >
; File C:\Program Files\Microsoft Visual Studio\2022\Community\VC\Tools\MSVC\14.44.35207\include\utility

; 773  :     _Ty _Old_val = static_cast<_Ty&&>(_Val);

  0001f	8b c6		 mov	 eax, esi

; 774  :     _Val         = static_cast<_Other&&>(_New_val);

  00021	8b 36		 mov	 esi, DWORD PTR [esi]
; File C:\Program Files\Microsoft Visual Studio\2022\Community\VC\Tools\MSVC\14.44.35207\include\xmemory

; 289  :         ::operator delete(_Ptr, _Bytes);

  00023	6a 18		 push	 24			; 00000018H
  00025	50		 push	 eax
  00026	e8 00 00 00 00	 call	 ??3@YAXPAXI@Z		; operator delete
  0002b	83 c4 08	 add	 esp, 8
; File C:\Program Files\Microsoft Visual Studio\2022\Community\VC\Tools\MSVC\14.44.35207\include\xtree

; 768  :         while (!_Rootnode->_Isnil) { // free subtrees, then node

  0002e	80 7e 0d 00	 cmp	 BYTE PTR [esi+13], 0
  00032	74 e0		 je	 SHORT $LL2@Erase_tree
  00034	5f		 pop	 edi
$LN51@Erase_tree:
  00035	5e		 pop	 esi

; 770  :             _Alnode::value_type::_Freenode(_Al, _STD exchange(_Rootnode, _Rootnode->_Left));
; 771  :         }
; 772  :     }

  00036	5b		 pop	 ebx
  00037	5d		 pop	 ebp
  00038	c2 08 00	 ret	 8
??$_Erase_tree@V?$allocator@U?$_Tree_node@U?$pair@$$CBKPAVCInstanceBase@@@std@@PAX@std@@@std@@@?$_Tree_val@U?$_Tree_simple_types@U?$pair@$$CBKPAVCInstanceBase@@@std@@@std@@@std@@QAEXAAV?$allocator@U?$_Tree_node@U?$pair@$$CBKPAVCInstanceBase@@@std@@PAX@std@@@1@PAU?$_Tree_node@U?$pair@$$CBKPAVCInstanceBase@@@std@@PAX@1@@Z ENDP ; std::_Tree_val<std::_Tree_simple_types<std::pair<unsigned long const ,CInstanceBase *> > >::_Erase_tree<std::allocator<std::_Tree_node<std::pair<unsigned long const ,CInstanceBase *>,void *> > >
_TEXT	ENDS
; Function compile flags: /Ogtp
; File C:\Program Files\Microsoft Visual Studio\2022\Community\VC\Tools\MSVC\14.44.35207\include\list
; File C:\Program Files\Microsoft Visual Studio\2022\Community\VC\Tools\MSVC\14.44.35207\include\xmemory
; File C:\Program Files\Microsoft Visual Studio\2022\Community\VC\Tools\MSVC\14.44.35207\include\list
; File C:\Program Files\Microsoft Visual Studio\2022\Community\VC\Tools\MSVC\14.44.35207\include\xmemory
; File C:\Program Files\Microsoft Visual Studio\2022\Community\VC\Tools\MSVC\14.44.35207\include\list
; File C:\Program Files\Microsoft Visual Studio\2022\Community\VC\Tools\MSVC\14.44.35207\include\xmemory
; File C:\Program Files\Microsoft Visual Studio\2022\Community\VC\Tools\MSVC\14.44.35207\include\list
;	COMDAT ??$_Emplace@ABQAVCInstanceBase@@@?$list@PAVCInstanceBase@@V?$allocator@PAVCInstanceBase@@@std@@@std@@QAEPAU?$_List_node@PAVCInstanceBase@@PAX@1@QAU21@ABQAVCInstanceBase@@@Z
_TEXT	SEGMENT
__Op$ = -20						; size = 8
__$EHRec$ = -12						; size = 12
__Where$ = 8						; size = 4
_<_Val_0>$ = 12						; size = 4
??$_Emplace@ABQAVCInstanceBase@@@?$list@PAVCInstanceBase@@V?$allocator@PAVCInstanceBase@@@std@@@std@@QAEPAU?$_List_node@PAVCInstanceBase@@PAX@1@QAU21@ABQAVCInstanceBase@@@Z PROC ; std::list<CInstanceBase *,std::allocator<CInstanceBase *> >::_Emplace<CInstanceBase * const &>, COMDAT
; _this$ = ecx

; 1028 :     _Nodeptr _Emplace(const _Nodeptr _Where, _Valty&&... _Val) { // insert element at _Where

  00000	55		 push	 ebp
  00001	8b ec		 mov	 ebp, esp
  00003	6a ff		 push	 -1
  00005	68 00 00 00 00	 push	 __ehhandler$??$_Emplace@ABQAVCInstanceBase@@@?$list@PAVCInstanceBase@@V?$allocator@PAVCInstanceBase@@@std@@@std@@QAEPAU?$_List_node@PAVCInstanceBase@@PAX@1@QAU21@ABQAVCInstanceBase@@@Z
  0000a	64 a1 00 00 00
	00		 mov	 eax, DWORD PTR fs:0
  00010	50		 push	 eax
  00011	83 ec 08	 sub	 esp, 8
  00014	56		 push	 esi
  00015	a1 00 00 00 00	 mov	 eax, DWORD PTR ___security_cookie
  0001a	33 c5		 xor	 eax, ebp
  0001c	50		 push	 eax
  0001d	8d 45 f4	 lea	 eax, DWORD PTR __$EHRec$[ebp]
  00020	64 a3 00 00 00
	00		 mov	 DWORD PTR fs:0, eax
  00026	8b f1		 mov	 esi, ecx

; 1029 :         size_type& _Mysize = _Mypair._Myval2._Mysize;
; 1030 :         if (_Mysize == max_size()) {

  00028	81 7e 04 55 55
	55 15		 cmp	 DWORD PTR [esi+4], 357913941 ; 15555555H
  0002f	74 48		 je	 SHORT $LN62@Emplace
; File C:\Program Files\Microsoft Visual Studio\2022\Community\VC\Tools\MSVC\14.44.35207\include\xmemory

; 1160 :     _CONSTEXPR20 explicit _Alloc_construct_ptr(_Alloc& _Al_) : _Al(_Al_), _Ptr(nullptr) {}

  00031	89 75 ec	 mov	 DWORD PTR __Op$[ebp], esi
; File C:\Program Files\Microsoft Visual Studio\2022\Community\VC\Tools\MSVC\14.44.35207\include\list

; 593  :     explicit _List_node_emplace_op2(_Alnode& _Al_, _Valtys&&... _Vals) : _Alloc_construct_ptr<_Alnode>(_Al_) {

  00034	c7 45 fc 00 00
	00 00		 mov	 DWORD PTR __$EHRec$[ebp+8], 0
; File C:\Program Files\Microsoft Visual Studio\2022\Community\VC\Tools\MSVC\14.44.35207\include\xmemory

; 136  :         return ::operator new(_Bytes);

  0003b	6a 0c		 push	 12			; 0000000cH

; 1167 :         _Ptr = nullptr; // if allocate throws, prevents double-free

  0003d	c7 45 f0 00 00
	00 00		 mov	 DWORD PTR __Op$[ebp+4], 0

; 136  :         return ::operator new(_Bytes);

  00044	e8 00 00 00 00	 call	 ??2@YAPAXI@Z		; operator new
; File C:\Program Files\Microsoft Visual Studio\2022\Community\VC\Tools\MSVC\14.44.35207\include\list

; 595  :         _Alnode_traits::construct(this->_Al, _STD addressof(this->_Ptr->_Myval), _STD forward<_Valtys>(_Vals)...);

  00049	8b 4d 0c	 mov	 ecx, DWORD PTR _<_Val_0>$[ebp]
; File C:\Program Files\Microsoft Visual Studio\2022\Community\VC\Tools\MSVC\14.44.35207\include\xmemory

; 136  :         return ::operator new(_Bytes);

  0004c	83 c4 04	 add	 esp, 4
; File C:\Program Files\Microsoft Visual Studio\2022\Community\VC\Tools\MSVC\14.44.35207\include\list

; 608  :         const pointer _Insert_after = _Insert_before->_Prev;

  0004f	8b 55 08	 mov	 edx, DWORD PTR __Where$[ebp]

; 595  :         _Alnode_traits::construct(this->_Al, _STD addressof(this->_Ptr->_Myval), _STD forward<_Valtys>(_Vals)...);

  00052	8b 09		 mov	 ecx, DWORD PTR [ecx]
  00054	89 48 08	 mov	 DWORD PTR [eax+8], ecx

; 1032 :         }
; 1033 : 
; 1034 :         _List_node_emplace_op2<_Alnode> _Op{_Getal(), _STD forward<_Valty>(_Val)...};
; 1035 :         ++_Mysize;

  00057	ff 46 04	 inc	 DWORD PTR [esi+4]

; 608  :         const pointer _Insert_after = _Insert_before->_Prev;

  0005a	8b 4a 04	 mov	 ecx, DWORD PTR [edx+4]

; 609  :         _Construct_in_place(this->_Ptr->_Next, _Insert_before);

  0005d	89 10		 mov	 DWORD PTR [eax], edx

; 610  :         _Construct_in_place(this->_Ptr->_Prev, _Insert_after);

  0005f	89 48 04	 mov	 DWORD PTR [eax+4], ecx

; 611  :         const auto _Result    = this->_Ptr;
; 612  :         this->_Ptr            = pointer{};
; 613  :         _Insert_before->_Prev = _Result;

  00062	89 42 04	 mov	 DWORD PTR [edx+4], eax

; 614  :         _Insert_after->_Next  = _Result;

  00065	89 01		 mov	 DWORD PTR [ecx], eax

; 1036 :         return _Op._Transfer_before(_Where);
; 1037 :     }

  00067	8b 4d f4	 mov	 ecx, DWORD PTR __$EHRec$[ebp]
  0006a	64 89 0d 00 00
	00 00		 mov	 DWORD PTR fs:0, ecx
  00071	59		 pop	 ecx
  00072	5e		 pop	 esi
  00073	8b e5		 mov	 esp, ebp
  00075	5d		 pop	 ebp
  00076	c2 08 00	 ret	 8
$LN62@Emplace:

; 1031 :             _Xlength_error("list too long");

  00079	68 00 00 00 00	 push	 OFFSET ??_C@_0O@NKNMEGII@list?5too?5long@
  0007e	e8 00 00 00 00	 call	 ?_Xlength_error@std@@YAXPBD@Z ; std::_Xlength_error
$LN60@Emplace:
  00083	cc		 int	 3
_TEXT	ENDS
;	COMDAT text$x
text$x	SEGMENT
__unwindfunclet$??$_Emplace@ABQAVCInstanceBase@@@?$list@PAVCInstanceBase@@V?$allocator@PAVCInstanceBase@@@std@@@std@@QAEPAU?$_List_node@PAVCInstanceBase@@PAX@1@QAU21@ABQAVCInstanceBase@@@Z$1:
  00000	8d 4d ec	 lea	 ecx, DWORD PTR __Op$[ebp]
  00003	e9 00 00 00 00	 jmp	 ??1?$_Alloc_construct_ptr@V?$allocator@U?$_List_node@PAVCInstanceBase@@PAX@std@@@std@@@std@@QAE@XZ ; std::_Alloc_construct_ptr<std::allocator<std::_List_node<CInstanceBase *,void *> > >::~_Alloc_construct_ptr<std::allocator<std::_List_node<CInstanceBase *,void *> > >
  00008	cc		 int	 3
  00009	cc		 int	 3
  0000a	cc		 int	 3
  0000b	cc		 int	 3
  0000c	cc		 int	 3
__ehhandler$??$_Emplace@ABQAVCInstanceBase@@@?$list@PAVCInstanceBase@@V?$allocator@PAVCInstanceBase@@@std@@@std@@QAEPAU?$_List_node@PAVCInstanceBase@@PAX@1@QAU21@ABQAVCInstanceBase@@@Z:
  0000d	90		 npad	 1
  0000e	90		 npad	 1
  0000f	8b 54 24 08	 mov	 edx, DWORD PTR [esp+8]
  00013	8d 42 0c	 lea	 eax, DWORD PTR [edx+12]
  00016	8b 4a f0	 mov	 ecx, DWORD PTR [edx-16]
  00019	33 c8		 xor	 ecx, eax
  0001b	e8 00 00 00 00	 call	 @__security_check_cookie@4
  00020	b8 00 00 00 00	 mov	 eax, OFFSET __ehfuncinfo$??$_Emplace@ABQAVCInstanceBase@@@?$list@PAVCInstanceBase@@V?$allocator@PAVCInstanceBase@@@std@@@std@@QAEPAU?$_List_node@PAVCInstanceBase@@PAX@1@QAU21@ABQAVCInstanceBase@@@Z
  00025	e9 00 00 00 00	 jmp	 ___CxxFrameHandler3
text$x	ENDS
??$_Emplace@ABQAVCInstanceBase@@@?$list@PAVCInstanceBase@@V?$allocator@PAVCInstanceBase@@@std@@@std@@QAEPAU?$_List_node@PAVCInstanceBase@@PAX@1@QAU21@ABQAVCInstanceBase@@@Z ENDP ; std::list<CInstanceBase *,std::allocator<CInstanceBase *> >::_Emplace<CInstanceBase * const &>
; Function compile flags: /Ogtp
; File C:\Program Files\Microsoft Visual Studio\2022\Community\VC\Tools\MSVC\14.44.35207\include\list
; File C:\Program Files\Microsoft Visual Studio\2022\Community\VC\Tools\MSVC\14.44.35207\include\xmemory
; File C:\Program Files\Microsoft Visual Studio\2022\Community\VC\Tools\MSVC\14.44.35207\include\list
; File C:\Program Files\Microsoft Visual Studio\2022\Community\VC\Tools\MSVC\14.44.35207\include\xmemory
; File C:\Program Files\Microsoft Visual Studio\2022\Community\VC\Tools\MSVC\14.44.35207\include\list
;	COMDAT ?_Alloc_sentinel_and_proxy@?$list@PAVCInstanceBase@@V?$allocator@PAVCInstanceBase@@@std@@@std@@AAEXXZ
_TEXT	SEGMENT
?_Alloc_sentinel_and_proxy@?$list@PAVCInstanceBase@@V?$allocator@PAVCInstanceBase@@@std@@@std@@AAEXXZ PROC ; std::list<CInstanceBase *,std::allocator<CInstanceBase *> >::_Alloc_sentinel_and_proxy, COMDAT
; _this$ = ecx

; 1847 :     void _Alloc_sentinel_and_proxy() {

  00000	56		 push	 esi
; File C:\Program Files\Microsoft Visual Studio\2022\Community\VC\Tools\MSVC\14.44.35207\include\xmemory

; 136  :         return ::operator new(_Bytes);

  00001	6a 0c		 push	 12			; 0000000cH
; File C:\Program Files\Microsoft Visual Studio\2022\Community\VC\Tools\MSVC\14.44.35207\include\list

; 1847 :     void _Alloc_sentinel_and_proxy() {

  00003	8b f1		 mov	 esi, ecx
; File C:\Program Files\Microsoft Visual Studio\2022\Community\VC\Tools\MSVC\14.44.35207\include\xmemory

; 136  :         return ::operator new(_Bytes);

  00005	e8 00 00 00 00	 call	 ??2@YAPAXI@Z		; operator new
  0000a	83 c4 04	 add	 esp, 4
; File C:\Program Files\Microsoft Visual Studio\2022\Community\VC\Tools\MSVC\14.44.35207\include\list

; 1852 :         _Construct_in_place(_Newhead->_Next, _Newhead);

  0000d	89 00		 mov	 DWORD PTR [eax], eax

; 1853 :         _Construct_in_place(_Newhead->_Prev, _Newhead);

  0000f	89 40 04	 mov	 DWORD PTR [eax+4], eax

; 1854 :         _Mypair._Myval2._Myhead = _Newhead;

  00012	89 06		 mov	 DWORD PTR [esi], eax
  00014	5e		 pop	 esi

; 1855 :         _Proxy._Release();
; 1856 :     }

  00015	c3		 ret	 0
?_Alloc_sentinel_and_proxy@?$list@PAVCInstanceBase@@V?$allocator@PAVCInstanceBase@@@std@@@std@@AAEXXZ ENDP ; std::list<CInstanceBase *,std::allocator<CInstanceBase *> >::_Alloc_sentinel_and_proxy
_TEXT	ENDS
; Function compile flags: /Ogtp
; File C:\Program Files\Microsoft Visual Studio\2022\Community\VC\Tools\MSVC\14.44.35207\include\algorithm
; File C:\Anka2Project\Anka2Project\Source\Binary\source\UserInterface\PythonCharacterManager.cpp
; File C:\Program Files\Microsoft Visual Studio\2022\Community\VC\Tools\MSVC\14.44.35207\include\algorithm
; File C:\Anka2Project\Anka2Project\Source\Binary\source\UserInterface\PythonCharacterManager.cpp
; File C:\Program Files\Microsoft Visual Studio\2022\Community\VC\Tools\MSVC\14.44.35207\include\algorithm
; File C:\Program Files\Microsoft Visual Studio\2022\Community\VC\Tools\MSVC\14.44.35207\include\xutility
; File C:\Program Files\Microsoft Visual Studio\2022\Community\VC\Tools\MSVC\14.44.35207\include\algorithm
; File C:\Program Files\Microsoft Visual Studio\2022\Community\VC\Tools\MSVC\14.44.35207\include\xutility
; File C:\Program Files\Microsoft Visual Studio\2022\Community\VC\Tools\MSVC\14.44.35207\include\algorithm
; File C:\Anka2Project\Anka2Project\Source\Binary\source\UserInterface\PythonCharacterManager.cpp
; File C:\Program Files\Microsoft Visual Studio\2022\Community\VC\Tools\MSVC\14.44.35207\include\algorithm
; File C:\Anka2Project\Anka2Project\Source\Binary\source\UserInterface\PythonCharacterManager.cpp
; File C:\Program Files\Microsoft Visual Studio\2022\Community\VC\Tools\MSVC\14.44.35207\include\algorithm
; File C:\Anka2Project\Anka2Project\Source\Binary\source\UserInterface\PythonCharacterManager.cpp
; File C:\Program Files\Microsoft Visual Studio\2022\Community\VC\Tools\MSVC\14.44.35207\include\algorithm
; File C:\Anka2Project\Anka2Project\Source\Binary\source\UserInterface\PythonCharacterManager.cpp
; File C:\Program Files\Microsoft Visual Studio\2022\Community\VC\Tools\MSVC\14.44.35207\include\algorithm
; File C:\Anka2Project\Anka2Project\Source\Binary\source\UserInterface\PythonCharacterManager.cpp
; File C:\Program Files\Microsoft Visual Studio\2022\Community\VC\Tools\MSVC\14.44.35207\include\algorithm
;	COMDAT ??$_Insertion_sort_unchecked@PAPAVCInstanceBase@@ULessCharacterInstancePtrRenderOrder@@@std@@YAPAPAVCInstanceBase@@QAPAV1@0ULessCharacterInstancePtrRenderOrder@@@Z
_TEXT	SEGMENT
__Last$1$ = -16						; size = 4
__First$1$ = -12					; size = 4
__Mid$1$ = -8						; size = 4
__Hole$1$ = -4						; size = 4
__Pred$ = 8						; size = 1
??$_Insertion_sort_unchecked@PAPAVCInstanceBase@@ULessCharacterInstancePtrRenderOrder@@@std@@YAPAPAVCInstanceBase@@QAPAV1@0ULessCharacterInstancePtrRenderOrder@@@Z PROC ; std::_Insertion_sort_unchecked<CInstanceBase * *,LessCharacterInstancePtrRenderOrder>, COMDAT
; __First$ = ecx
; __Last$ = edx

; 8241 : _CONSTEXPR20 _BidIt _Insertion_sort_unchecked(const _BidIt _First, const _BidIt _Last, _Pr _Pred) {

  00000	55		 push	 ebp
  00001	8b ec		 mov	 ebp, esp
  00003	83 ec 10	 sub	 esp, 16			; 00000010H
  00006	56		 push	 esi
  00007	8b f2		 mov	 esi, edx
  00009	8b c1		 mov	 eax, ecx
  0000b	89 75 f0	 mov	 DWORD PTR __Last$1$[ebp], esi
  0000e	89 45 f4	 mov	 DWORD PTR __First$1$[ebp], eax

; 8242 :     // insertion sort [_First, _Last)
; 8243 :     if (_First != _Last) {

  00011	3b c6		 cmp	 eax, esi
  00013	0f 84 87 00 00
	00		 je	 $LN34@Insertion_

; 8244 :         for (_BidIt _Mid = _First; ++_Mid != _Last;) { // order next element

  00019	57		 push	 edi
  0001a	8d 78 04	 lea	 edi, DWORD PTR [eax+4]
  0001d	89 7d f8	 mov	 DWORD PTR __Mid$1$[ebp], edi
  00020	3b fe		 cmp	 edi, esi
  00022	74 74		 je	 SHORT $LN35@Insertion_
  00024	53		 push	 ebx
$LL4@Insertion_:

; 8246 :             _Iter_value_t<_BidIt> _Val(_STD move(*_Mid));

  00025	8b 1f		 mov	 ebx, DWORD PTR [edi]
; File C:\Anka2Project\Anka2Project\Source\Binary\source\UserInterface\PythonCharacterManager.cpp

; 329  : 		return pkLeft->LessRenderOrder(pkRight);		

  00027	8b cb		 mov	 ecx, ebx
  00029	ff 30		 push	 DWORD PTR [eax]
; File C:\Program Files\Microsoft Visual Studio\2022\Community\VC\Tools\MSVC\14.44.35207\include\algorithm

; 8245 :             _BidIt _Hole = _Mid;

  0002b	89 7d fc	 mov	 DWORD PTR __Hole$1$[ebp], edi
; File C:\Anka2Project\Anka2Project\Source\Binary\source\UserInterface\PythonCharacterManager.cpp

; 329  : 		return pkLeft->LessRenderOrder(pkRight);		

  0002e	e8 00 00 00 00	 call	 ?LessRenderOrder@CInstanceBase@@QAE_NPAV1@@Z ; CInstanceBase::LessRenderOrder
; File C:\Program Files\Microsoft Visual Studio\2022\Community\VC\Tools\MSVC\14.44.35207\include\algorithm

; 8248 :             if (_DEBUG_LT_PRED(_Pred, _Val, *_First)) { // found new earliest element, move to front

  00033	84 c0		 test	 al, al
  00035	74 1a		 je	 SHORT $LN9@Insertion_
; File C:\Program Files\Microsoft Visual Studio\2022\Community\VC\Tools\MSVC\14.44.35207\include\xutility

; 5190 :             return _STD _Copy_backward_memmove(_First, _Last, _Dest);

  00037	8b 4d f4	 mov	 ecx, DWORD PTR __First$1$[ebp]
  0003a	8d 77 04	 lea	 esi, DWORD PTR [edi+4]
  0003d	56		 push	 esi
  0003e	8b d7		 mov	 edx, edi
  00040	e8 00 00 00 00	 call	 ??$_Copy_backward_memmove@PAPAVCInstanceBase@@PAPAV1@@std@@YAPAPAVCInstanceBase@@PAPAV1@00@Z ; std::_Copy_backward_memmove<CInstanceBase * *,CInstanceBase * *>
; File C:\Program Files\Microsoft Visual Studio\2022\Community\VC\Tools\MSVC\14.44.35207\include\algorithm

; 8250 :                 *_First = _STD move(_Val);

  00045	8b 45 f4	 mov	 eax, DWORD PTR __First$1$[ebp]
; File C:\Program Files\Microsoft Visual Studio\2022\Community\VC\Tools\MSVC\14.44.35207\include\xutility

; 5190 :             return _STD _Copy_backward_memmove(_First, _Last, _Dest);

  00048	83 c4 04	 add	 esp, 4
; File C:\Program Files\Microsoft Visual Studio\2022\Community\VC\Tools\MSVC\14.44.35207\include\algorithm

; 8250 :                 *_First = _STD move(_Val);

  0004b	8b fe		 mov	 edi, esi
  0004d	89 18		 mov	 DWORD PTR [eax], ebx

; 8251 :             } else { // look for insertion point after first

  0004f	eb 3c		 jmp	 SHORT $LN44@Insertion_
$LN9@Insertion_:
; File C:\Anka2Project\Anka2Project\Source\Binary\source\UserInterface\PythonCharacterManager.cpp

; 329  : 		return pkLeft->LessRenderOrder(pkRight);		

  00051	ff 77 fc	 push	 DWORD PTR [edi-4]
; File C:\Program Files\Microsoft Visual Studio\2022\Community\VC\Tools\MSVC\14.44.35207\include\algorithm

; 8252 :                 for (_BidIt _Prev = _Hole; _DEBUG_LT_PRED(_Pred, _Val, *--_Prev); _Hole = _Prev) {

  00054	8d 77 fc	 lea	 esi, DWORD PTR [edi-4]
; File C:\Anka2Project\Anka2Project\Source\Binary\source\UserInterface\PythonCharacterManager.cpp

; 329  : 		return pkLeft->LessRenderOrder(pkRight);		

  00057	8b cb		 mov	 ecx, ebx
  00059	e8 00 00 00 00	 call	 ?LessRenderOrder@CInstanceBase@@QAE_NPAV1@@Z ; CInstanceBase::LessRenderOrder
; File C:\Program Files\Microsoft Visual Studio\2022\Community\VC\Tools\MSVC\14.44.35207\include\algorithm

; 8252 :                 for (_BidIt _Prev = _Hole; _DEBUG_LT_PRED(_Pred, _Val, *--_Prev); _Hole = _Prev) {

  0005e	84 c0		 test	 al, al
  00060	74 20		 je	 SHORT $LN6@Insertion_
  00062	8b 7d fc	 mov	 edi, DWORD PTR __Hole$1$[ebp]
$LL7@Insertion_:

; 8253 :                     *_Hole = _STD move(*_Prev); // move hole down

  00065	8b 06		 mov	 eax, DWORD PTR [esi]
; File C:\Anka2Project\Anka2Project\Source\Binary\source\UserInterface\PythonCharacterManager.cpp

; 329  : 		return pkLeft->LessRenderOrder(pkRight);		

  00067	8b cb		 mov	 ecx, ebx
; File C:\Program Files\Microsoft Visual Studio\2022\Community\VC\Tools\MSVC\14.44.35207\include\algorithm

; 8253 :                     *_Hole = _STD move(*_Prev); // move hole down

  00069	89 07		 mov	 DWORD PTR [edi], eax
  0006b	8b fe		 mov	 edi, esi
; File C:\Anka2Project\Anka2Project\Source\Binary\source\UserInterface\PythonCharacterManager.cpp

; 329  : 		return pkLeft->LessRenderOrder(pkRight);		

  0006d	ff 76 fc	 push	 DWORD PTR [esi-4]
; File C:\Program Files\Microsoft Visual Studio\2022\Community\VC\Tools\MSVC\14.44.35207\include\algorithm

; 8252 :                 for (_BidIt _Prev = _Hole; _DEBUG_LT_PRED(_Pred, _Val, *--_Prev); _Hole = _Prev) {

  00070	83 ee 04	 sub	 esi, 4
; File C:\Anka2Project\Anka2Project\Source\Binary\source\UserInterface\PythonCharacterManager.cpp

; 329  : 		return pkLeft->LessRenderOrder(pkRight);		

  00073	e8 00 00 00 00	 call	 ?LessRenderOrder@CInstanceBase@@QAE_NPAV1@@Z ; CInstanceBase::LessRenderOrder
; File C:\Program Files\Microsoft Visual Studio\2022\Community\VC\Tools\MSVC\14.44.35207\include\algorithm

; 8252 :                 for (_BidIt _Prev = _Hole; _DEBUG_LT_PRED(_Pred, _Val, *--_Prev); _Hole = _Prev) {

  00078	84 c0		 test	 al, al
  0007a	75 e9		 jne	 SHORT $LL7@Insertion_
  0007c	89 7d fc	 mov	 DWORD PTR __Hole$1$[ebp], edi
  0007f	8b 7d f8	 mov	 edi, DWORD PTR __Mid$1$[ebp]
$LN6@Insertion_:

; 8254 :                 }
; 8255 : 
; 8256 :                 *_Hole = _STD move(_Val); // insert element in hole

  00082	8b 45 fc	 mov	 eax, DWORD PTR __Hole$1$[ebp]
  00085	83 c7 04	 add	 edi, 4
  00088	89 18		 mov	 DWORD PTR [eax], ebx
  0008a	8b 45 f4	 mov	 eax, DWORD PTR __First$1$[ebp]
$LN44@Insertion_:

; 8244 :         for (_BidIt _Mid = _First; ++_Mid != _Last;) { // order next element

  0008d	8b 75 f0	 mov	 esi, DWORD PTR __Last$1$[ebp]
  00090	89 7d f8	 mov	 DWORD PTR __Mid$1$[ebp], edi
  00093	3b fe		 cmp	 edi, esi
  00095	75 8e		 jne	 SHORT $LL4@Insertion_
  00097	5b		 pop	 ebx
$LN35@Insertion_:
  00098	5f		 pop	 edi

; 8257 :             }
; 8258 :         }
; 8259 :     }
; 8260 : 
; 8261 :     return _Last;

  00099	8b c6		 mov	 eax, esi
  0009b	5e		 pop	 esi

; 8262 : }

  0009c	8b e5		 mov	 esp, ebp
  0009e	5d		 pop	 ebp
  0009f	c3		 ret	 0
$LN34@Insertion_:

; 8257 :             }
; 8258 :         }
; 8259 :     }
; 8260 : 
; 8261 :     return _Last;

  000a0	8b c6		 mov	 eax, esi
  000a2	5e		 pop	 esi

; 8262 : }

  000a3	8b e5		 mov	 esp, ebp
  000a5	5d		 pop	 ebp
  000a6	c3		 ret	 0
??$_Insertion_sort_unchecked@PAPAVCInstanceBase@@ULessCharacterInstancePtrRenderOrder@@@std@@YAPAPAVCInstanceBase@@QAPAV1@0ULessCharacterInstancePtrRenderOrder@@@Z ENDP ; std::_Insertion_sort_unchecked<CInstanceBase * *,LessCharacterInstancePtrRenderOrder>
_TEXT	ENDS
; Function compile flags: /Ogtp
; File C:\Program Files\Microsoft Visual Studio\2022\Community\VC\Tools\MSVC\14.44.35207\include\algorithm
; File C:\Anka2Project\Anka2Project\Source\Binary\source\UserInterface\PythonCharacterManager.cpp
; File C:\Program Files\Microsoft Visual Studio\2022\Community\VC\Tools\MSVC\14.44.35207\include\algorithm
; File C:\Anka2Project\Anka2Project\Source\Binary\source\UserInterface\PythonCharacterManager.cpp
; File C:\Program Files\Microsoft Visual Studio\2022\Community\VC\Tools\MSVC\14.44.35207\include\algorithm
; File C:\Anka2Project\Anka2Project\Source\Binary\source\UserInterface\PythonCharacterManager.cpp
; File C:\Program Files\Microsoft Visual Studio\2022\Community\VC\Tools\MSVC\14.44.35207\include\algorithm
; File C:\Anka2Project\Anka2Project\Source\Binary\source\UserInterface\PythonCharacterManager.cpp
; File C:\Program Files\Microsoft Visual Studio\2022\Community\VC\Tools\MSVC\14.44.35207\include\algorithm
; File C:\Anka2Project\Anka2Project\Source\Binary\source\UserInterface\PythonCharacterManager.cpp
; File C:\Program Files\Microsoft Visual Studio\2022\Community\VC\Tools\MSVC\14.44.35207\include\algorithm
; File C:\Anka2Project\Anka2Project\Source\Binary\source\UserInterface\PythonCharacterManager.cpp
; File C:\Program Files\Microsoft Visual Studio\2022\Community\VC\Tools\MSVC\14.44.35207\include\algorithm
; File C:\Program Files\Microsoft Visual Studio\2022\Community\VC\Tools\MSVC\14.44.35207\include\utility
; File C:\Program Files\Microsoft Visual Studio\2022\Community\VC\Tools\MSVC\14.44.35207\include\algorithm
; File C:\Anka2Project\Anka2Project\Source\Binary\source\UserInterface\PythonCharacterManager.cpp
; File C:\Program Files\Microsoft Visual Studio\2022\Community\VC\Tools\MSVC\14.44.35207\include\algorithm
; File C:\Anka2Project\Anka2Project\Source\Binary\source\UserInterface\PythonCharacterManager.cpp
; File C:\Program Files\Microsoft Visual Studio\2022\Community\VC\Tools\MSVC\14.44.35207\include\algorithm
; File C:\Program Files\Microsoft Visual Studio\2022\Community\VC\Tools\MSVC\14.44.35207\include\utility
; File C:\Program Files\Microsoft Visual Studio\2022\Community\VC\Tools\MSVC\14.44.35207\include\algorithm
; File C:\Program Files\Microsoft Visual Studio\2022\Community\VC\Tools\MSVC\14.44.35207\include\utility
; File C:\Program Files\Microsoft Visual Studio\2022\Community\VC\Tools\MSVC\14.44.35207\include\algorithm
; File C:\Program Files\Microsoft Visual Studio\2022\Community\VC\Tools\MSVC\14.44.35207\include\utility
; File C:\Program Files\Microsoft Visual Studio\2022\Community\VC\Tools\MSVC\14.44.35207\include\algorithm
; File C:\Program Files\Microsoft Visual Studio\2022\Community\VC\Tools\MSVC\14.44.35207\include\utility
; File C:\Program Files\Microsoft Visual Studio\2022\Community\VC\Tools\MSVC\14.44.35207\include\algorithm
; File C:\Program Files\Microsoft Visual Studio\2022\Community\VC\Tools\MSVC\14.44.35207\include\utility
; File C:\Program Files\Microsoft Visual Studio\2022\Community\VC\Tools\MSVC\14.44.35207\include\algorithm
; File C:\Program Files\Microsoft Visual Studio\2022\Community\VC\Tools\MSVC\14.44.35207\include\utility
; File C:\Program Files\Microsoft Visual Studio\2022\Community\VC\Tools\MSVC\14.44.35207\include\algorithm
; File C:\Program Files\Microsoft Visual Studio\2022\Community\VC\Tools\MSVC\14.44.35207\include\utility
; File C:\Program Files\Microsoft Visual Studio\2022\Community\VC\Tools\MSVC\14.44.35207\include\algorithm
; File C:\Program Files\Microsoft Visual Studio\2022\Community\VC\Tools\MSVC\14.44.35207\include\utility
; File C:\Program Files\Microsoft Visual Studio\2022\Community\VC\Tools\MSVC\14.44.35207\include\algorithm
; File C:\Program Files\Microsoft Visual Studio\2022\Community\VC\Tools\MSVC\14.44.35207\include\utility
; File C:\Program Files\Microsoft Visual Studio\2022\Community\VC\Tools\MSVC\14.44.35207\include\algorithm
; File C:\Program Files\Microsoft Visual Studio\2022\Community\VC\Tools\MSVC\14.44.35207\include\utility
; File C:\Program Files\Microsoft Visual Studio\2022\Community\VC\Tools\MSVC\14.44.35207\include\algorithm
;	COMDAT ??$_Partition_by_median_guess_unchecked@PAPAVCInstanceBase@@ULessCharacterInstancePtrRenderOrder@@@std@@YA?AU?$pair@PAPAVCInstanceBase@@PAPAV1@@0@PAPAVCInstanceBase@@0ULessCharacterInstancePtrRenderOrder@@@Z
_TEXT	SEGMENT
___$ReturnUdt$1$ = -16					; size = 4
__Gfirst$1$ = -12					; size = 4
__First$1$ = -8						; size = 4
__Glast$1$ = -4						; size = 4
__Last$ = 8						; size = 4
__Pred$ = 12						; size = 1
__Plast$1$ = 12						; size = 4
??$_Partition_by_median_guess_unchecked@PAPAVCInstanceBase@@ULessCharacterInstancePtrRenderOrder@@@std@@YA?AU?$pair@PAPAVCInstanceBase@@PAPAV1@@0@PAPAVCInstanceBase@@0ULessCharacterInstancePtrRenderOrder@@@Z PROC ; std::_Partition_by_median_guess_unchecked<CInstanceBase * *,LessCharacterInstancePtrRenderOrder>, COMDAT
; ___$ReturnUdt$ = ecx
; __First$ = edx

; 8298 : _CONSTEXPR20 pair<_RanIt, _RanIt> _Partition_by_median_guess_unchecked(_RanIt _First, _RanIt _Last, _Pr _Pred) {

  00000	55		 push	 ebp
  00001	8b ec		 mov	 ebp, esp
  00003	83 ec 10	 sub	 esp, 16			; 00000010H
  00006	53		 push	 ebx
  00007	56		 push	 esi
  00008	8b da		 mov	 ebx, edx
  0000a	89 4d f0	 mov	 DWORD PTR ___$ReturnUdt$1$[ebp], ecx
  0000d	57		 push	 edi

; 8299 :     // partition [_First, _Last)
; 8300 :     _RanIt _Mid = _First + ((_Last - _First) >> 1); // shift for codegen

  0000e	8b 7d 08	 mov	 edi, DWORD PTR __Last$[ebp]

; 8301 :     _STD _Guess_median_unchecked(_First, _Mid, _STD _Prev_iter(_Last), _Pred);

  00011	8b cb		 mov	 ecx, ebx
  00013	ff 75 0c	 push	 DWORD PTR __Pred$[ebp]
  00016	8b c7		 mov	 eax, edi
  00018	89 5d f8	 mov	 DWORD PTR __First$1$[ebp], ebx
  0001b	2b c3		 sub	 eax, ebx
  0001d	c1 f8 03	 sar	 eax, 3
  00020	8d 34 83	 lea	 esi, DWORD PTR [ebx+eax*4]
  00023	8d 47 fc	 lea	 eax, DWORD PTR [edi-4]
  00026	8b d6		 mov	 edx, esi
  00028	50		 push	 eax
  00029	e8 00 00 00 00	 call	 ??$_Guess_median_unchecked@PAPAVCInstanceBase@@ULessCharacterInstancePtrRenderOrder@@@std@@YAXPAPAVCInstanceBase@@00ULessCharacterInstancePtrRenderOrder@@@Z ; std::_Guess_median_unchecked<CInstanceBase * *,LessCharacterInstancePtrRenderOrder>
  0002e	83 c4 08	 add	 esp, 8

; 8302 :     _RanIt _Pfirst = _Mid;
; 8303 :     _RanIt _Plast  = _STD _Next_iter(_Pfirst);

  00031	8d 5e 04	 lea	 ebx, DWORD PTR [esi+4]
  00034	89 5d 0c	 mov	 DWORD PTR __Plast$1$[ebp], ebx

; 8306 :            && !_Pred(*_Pfirst, *_STD _Prev_iter(_Pfirst))) {

  00037	39 75 f8	 cmp	 DWORD PTR __First$1$[ebp], esi
  0003a	73 2a		 jae	 SHORT $LN76@Partition_
  0003c	8b 5d f8	 mov	 ebx, DWORD PTR __First$1$[ebp]
  0003f	90		 npad	 1
$LL2@Partition_:
; File C:\Anka2Project\Anka2Project\Source\Binary\source\UserInterface\PythonCharacterManager.cpp

; 329  : 		return pkLeft->LessRenderOrder(pkRight);		

  00040	ff 36		 push	 DWORD PTR [esi]
  00042	8b 4e fc	 mov	 ecx, DWORD PTR [esi-4]
  00045	e8 00 00 00 00	 call	 ?LessRenderOrder@CInstanceBase@@QAE_NPAV1@@Z ; CInstanceBase::LessRenderOrder
; File C:\Program Files\Microsoft Visual Studio\2022\Community\VC\Tools\MSVC\14.44.35207\include\algorithm

; 8306 :            && !_Pred(*_Pfirst, *_STD _Prev_iter(_Pfirst))) {

  0004a	84 c0		 test	 al, al
  0004c	75 15		 jne	 SHORT $LN103@Partition_
; File C:\Anka2Project\Anka2Project\Source\Binary\source\UserInterface\PythonCharacterManager.cpp

; 329  : 		return pkLeft->LessRenderOrder(pkRight);		

  0004e	ff 76 fc	 push	 DWORD PTR [esi-4]
  00051	8b 0e		 mov	 ecx, DWORD PTR [esi]
  00053	e8 00 00 00 00	 call	 ?LessRenderOrder@CInstanceBase@@QAE_NPAV1@@Z ; CInstanceBase::LessRenderOrder
; File C:\Program Files\Microsoft Visual Studio\2022\Community\VC\Tools\MSVC\14.44.35207\include\algorithm

; 8306 :            && !_Pred(*_Pfirst, *_STD _Prev_iter(_Pfirst))) {

  00058	84 c0		 test	 al, al
  0005a	75 07		 jne	 SHORT $LN103@Partition_

; 8307 :         --_Pfirst;

  0005c	83 c6 fc	 add	 esi, -4			; fffffffcH
  0005f	3b de		 cmp	 ebx, esi
  00061	72 dd		 jb	 SHORT $LL2@Partition_
$LN103@Partition_:
  00063	8b 5d 0c	 mov	 ebx, DWORD PTR __Plast$1$[ebp]
$LN76@Partition_:

; 8310 :     while (_Plast < _Last && !_DEBUG_LT_PRED(_Pred, *_Plast, *_Pfirst) && !_Pred(*_Pfirst, *_Plast)) {

  00066	3b df		 cmp	 ebx, edi
  00068	73 2a		 jae	 SHORT $LN5@Partition_
  0006a	66 0f 1f 44 00
	00		 npad	 6
$LL4@Partition_:
; File C:\Anka2Project\Anka2Project\Source\Binary\source\UserInterface\PythonCharacterManager.cpp

; 329  : 		return pkLeft->LessRenderOrder(pkRight);		

  00070	ff 36		 push	 DWORD PTR [esi]
  00072	8b 0b		 mov	 ecx, DWORD PTR [ebx]
  00074	e8 00 00 00 00	 call	 ?LessRenderOrder@CInstanceBase@@QAE_NPAV1@@Z ; CInstanceBase::LessRenderOrder
; File C:\Program Files\Microsoft Visual Studio\2022\Community\VC\Tools\MSVC\14.44.35207\include\algorithm

; 8310 :     while (_Plast < _Last && !_DEBUG_LT_PRED(_Pred, *_Plast, *_Pfirst) && !_Pred(*_Pfirst, *_Plast)) {

  00079	84 c0		 test	 al, al
  0007b	75 14		 jne	 SHORT $LN104@Partition_
; File C:\Anka2Project\Anka2Project\Source\Binary\source\UserInterface\PythonCharacterManager.cpp

; 329  : 		return pkLeft->LessRenderOrder(pkRight);		

  0007d	ff 33		 push	 DWORD PTR [ebx]
  0007f	8b 0e		 mov	 ecx, DWORD PTR [esi]
  00081	e8 00 00 00 00	 call	 ?LessRenderOrder@CInstanceBase@@QAE_NPAV1@@Z ; CInstanceBase::LessRenderOrder
; File C:\Program Files\Microsoft Visual Studio\2022\Community\VC\Tools\MSVC\14.44.35207\include\algorithm

; 8310 :     while (_Plast < _Last && !_DEBUG_LT_PRED(_Pred, *_Plast, *_Pfirst) && !_Pred(*_Pfirst, *_Plast)) {

  00086	84 c0		 test	 al, al
  00088	75 07		 jne	 SHORT $LN104@Partition_

; 8311 :         ++_Plast;

  0008a	83 c3 04	 add	 ebx, 4
  0008d	3b df		 cmp	 ebx, edi
  0008f	72 df		 jb	 SHORT $LL4@Partition_
$LN104@Partition_:
  00091	89 5d 0c	 mov	 DWORD PTR __Plast$1$[ebp], ebx
$LN5@Partition_:

; 8312 :     }
; 8313 : 
; 8314 :     _RanIt _Gfirst = _Plast;

  00094	8b fb		 mov	 edi, ebx

; 8315 :     _RanIt _Glast  = _Pfirst;

  00096	8b d6		 mov	 edx, esi
$LN131@Partition_:

; 8318 :         for (; _Gfirst < _Last; ++_Gfirst) {

  00098	89 55 fc	 mov	 DWORD PTR __Glast$1$[ebp], edx
$LN130@Partition_:
  0009b	89 7d f4	 mov	 DWORD PTR __Gfirst$1$[ebp], edi
  0009e	66 90		 npad	 2
$LL8@Partition_:
  000a0	3b 7d 08	 cmp	 edi, DWORD PTR __Last$[ebp]
  000a3	73 3a		 jae	 SHORT $LN80@Partition_
$LL11@Partition_:
; File C:\Anka2Project\Anka2Project\Source\Binary\source\UserInterface\PythonCharacterManager.cpp

; 329  : 		return pkLeft->LessRenderOrder(pkRight);		

  000a5	ff 37		 push	 DWORD PTR [edi]
  000a7	8b 0e		 mov	 ecx, DWORD PTR [esi]
  000a9	e8 00 00 00 00	 call	 ?LessRenderOrder@CInstanceBase@@QAE_NPAV1@@Z ; CInstanceBase::LessRenderOrder
; File C:\Program Files\Microsoft Visual Studio\2022\Community\VC\Tools\MSVC\14.44.35207\include\algorithm

; 8319 :             if (_DEBUG_LT_PRED(_Pred, *_Pfirst, *_Gfirst)) {

  000ae	84 c0		 test	 al, al
  000b0	75 1c		 jne	 SHORT $LN9@Partition_
; File C:\Anka2Project\Anka2Project\Source\Binary\source\UserInterface\PythonCharacterManager.cpp

; 329  : 		return pkLeft->LessRenderOrder(pkRight);		

  000b2	ff 36		 push	 DWORD PTR [esi]
  000b4	8b 0f		 mov	 ecx, DWORD PTR [edi]
  000b6	e8 00 00 00 00	 call	 ?LessRenderOrder@CInstanceBase@@QAE_NPAV1@@Z ; CInstanceBase::LessRenderOrder
; File C:\Program Files\Microsoft Visual Studio\2022\Community\VC\Tools\MSVC\14.44.35207\include\algorithm

; 8321 :             } else if (_Pred(*_Gfirst, *_Pfirst)) {

  000bb	84 c0		 test	 al, al
  000bd	75 17		 jne	 SHORT $LN105@Partition_

; 8322 :                 break;
; 8323 :             } else if (_Plast != _Gfirst) {

  000bf	3b df		 cmp	 ebx, edi
  000c1	74 08		 je	 SHORT $LN19@Partition_
; File C:\Program Files\Microsoft Visual Studio\2022\Community\VC\Tools\MSVC\14.44.35207\include\utility

; 139  :     _Ty _Tmp = _STD move(_Left);

  000c3	8b 0b		 mov	 ecx, DWORD PTR [ebx]

; 140  :     _Left    = _STD move(_Right);

  000c5	8b 07		 mov	 eax, DWORD PTR [edi]
  000c7	89 03		 mov	 DWORD PTR [ebx], eax

; 141  :     _Right   = _STD move(_Tmp);

  000c9	89 0f		 mov	 DWORD PTR [edi], ecx
$LN19@Partition_:
; File C:\Program Files\Microsoft Visual Studio\2022\Community\VC\Tools\MSVC\14.44.35207\include\algorithm

; 8318 :         for (; _Gfirst < _Last; ++_Gfirst) {

  000cb	83 c3 04	 add	 ebx, 4
$LN9@Partition_:
  000ce	83 c7 04	 add	 edi, 4
  000d1	3b 7d 08	 cmp	 edi, DWORD PTR __Last$[ebp]
  000d4	72 cf		 jb	 SHORT $LL11@Partition_
$LN105@Partition_:
  000d6	8b 55 fc	 mov	 edx, DWORD PTR __Glast$1$[ebp]
  000d9	89 5d 0c	 mov	 DWORD PTR __Plast$1$[ebp], ebx
  000dc	89 7d f4	 mov	 DWORD PTR __Gfirst$1$[ebp], edi
$LN80@Partition_:

; 8331 :         for (; _First < _Glast; --_Glast) {

  000df	8b 45 f8	 mov	 eax, DWORD PTR __First$1$[ebp]
  000e2	3b d0		 cmp	 edx, eax
  000e4	76 53		 jbe	 SHORT $LN129@Partition_
  000e6	8b 5d fc	 mov	 ebx, DWORD PTR __Glast$1$[ebp]
  000e9	8d 7b fc	 lea	 edi, DWORD PTR [ebx-4]
  000ec	0f 1f 40 00	 npad	 4
$LL14@Partition_:
; File C:\Anka2Project\Anka2Project\Source\Binary\source\UserInterface\PythonCharacterManager.cpp

; 329  : 		return pkLeft->LessRenderOrder(pkRight);		

  000f0	ff 36		 push	 DWORD PTR [esi]
  000f2	8b 0f		 mov	 ecx, DWORD PTR [edi]
  000f4	e8 00 00 00 00	 call	 ?LessRenderOrder@CInstanceBase@@QAE_NPAV1@@Z ; CInstanceBase::LessRenderOrder
; File C:\Program Files\Microsoft Visual Studio\2022\Community\VC\Tools\MSVC\14.44.35207\include\algorithm

; 8333 :             if (_DEBUG_LT_PRED(_Pred, *_Glast_prev, *_Pfirst)) {

  000f9	84 c0		 test	 al, al
  000fb	75 1c		 jne	 SHORT $LN12@Partition_
; File C:\Anka2Project\Anka2Project\Source\Binary\source\UserInterface\PythonCharacterManager.cpp

; 329  : 		return pkLeft->LessRenderOrder(pkRight);		

  000fd	ff 37		 push	 DWORD PTR [edi]
  000ff	8b 0e		 mov	 ecx, DWORD PTR [esi]
  00101	e8 00 00 00 00	 call	 ?LessRenderOrder@CInstanceBase@@QAE_NPAV1@@Z ; CInstanceBase::LessRenderOrder
; File C:\Program Files\Microsoft Visual Studio\2022\Community\VC\Tools\MSVC\14.44.35207\include\algorithm

; 8335 :             } else if (_Pred(*_Pfirst, *_Glast_prev)) {

  00106	84 c0		 test	 al, al
  00108	75 1e		 jne	 SHORT $LN107@Partition_

; 8336 :                 break;
; 8337 :             } else if (--_Pfirst != _Glast_prev) {

  0010a	83 ee 04	 sub	 esi, 4
  0010d	3b f7		 cmp	 esi, edi
  0010f	74 08		 je	 SHORT $LN12@Partition_
; File C:\Program Files\Microsoft Visual Studio\2022\Community\VC\Tools\MSVC\14.44.35207\include\utility

; 139  :     _Ty _Tmp = _STD move(_Left);

  00111	8b 0e		 mov	 ecx, DWORD PTR [esi]

; 140  :     _Left    = _STD move(_Right);

  00113	8b 07		 mov	 eax, DWORD PTR [edi]
  00115	89 06		 mov	 DWORD PTR [esi], eax

; 141  :     _Right   = _STD move(_Tmp);

  00117	89 0f		 mov	 DWORD PTR [edi], ecx
$LN12@Partition_:
; File C:\Program Files\Microsoft Visual Studio\2022\Community\VC\Tools\MSVC\14.44.35207\include\algorithm

; 8331 :         for (; _First < _Glast; --_Glast) {

  00119	8b 45 f8	 mov	 eax, DWORD PTR __First$1$[ebp]
  0011c	83 eb 04	 sub	 ebx, 4
  0011f	83 ef 04	 sub	 edi, 4
  00122	3b c3		 cmp	 eax, ebx
  00124	72 ca		 jb	 SHORT $LL14@Partition_

; 8335 :             } else if (_Pred(*_Pfirst, *_Glast_prev)) {

  00126	eb 03		 jmp	 SHORT $LN106@Partition_
$LN107@Partition_:
  00128	8b 45 f8	 mov	 eax, DWORD PTR __First$1$[ebp]
$LN106@Partition_:
  0012b	8b 7d f4	 mov	 edi, DWORD PTR __Gfirst$1$[ebp]
  0012e	89 5d fc	 mov	 DWORD PTR __Glast$1$[ebp], ebx
  00131	8b 55 fc	 mov	 edx, DWORD PTR __Glast$1$[ebp]

; 8338 :                 swap(*_Pfirst, *_Glast_prev); // intentional ADL
; 8339 :             }
; 8340 :         }
; 8341 : 
; 8342 :         if (_Glast == _First && _Gfirst == _Last) {

  00134	3b d0		 cmp	 edx, eax
  00136	8b 5d 0c	 mov	 ebx, DWORD PTR __Plast$1$[ebp]
$LN129@Partition_:
  00139	75 2a		 jne	 SHORT $LN27@Partition_
  0013b	3b 7d 08	 cmp	 edi, DWORD PTR __Last$[ebp]
  0013e	74 62		 je	 SHORT $LN82@Partition_

; 8344 :         }
; 8345 : 
; 8346 :         if (_Glast == _First) { // no room at bottom, rotate pivot upward
; 8347 :             if (_Plast != _Gfirst) {

  00140	3b df		 cmp	 ebx, edi
  00142	74 08		 je	 SHORT $LN45@Partition_
; File C:\Program Files\Microsoft Visual Studio\2022\Community\VC\Tools\MSVC\14.44.35207\include\utility

; 139  :     _Ty _Tmp = _STD move(_Left);

  00144	8b 0e		 mov	 ecx, DWORD PTR [esi]

; 140  :     _Left    = _STD move(_Right);

  00146	8b 03		 mov	 eax, DWORD PTR [ebx]
  00148	89 06		 mov	 DWORD PTR [esi], eax

; 141  :     _Right   = _STD move(_Tmp);

  0014a	89 0b		 mov	 DWORD PTR [ebx], ecx
$LN45@Partition_:

; 139  :     _Ty _Tmp = _STD move(_Left);

  0014c	8b 0e		 mov	 ecx, DWORD PTR [esi]
; File C:\Program Files\Microsoft Visual Studio\2022\Community\VC\Tools\MSVC\14.44.35207\include\algorithm

; 8351 :             ++_Plast;

  0014e	83 c3 04	 add	 ebx, 4
; File C:\Program Files\Microsoft Visual Studio\2022\Community\VC\Tools\MSVC\14.44.35207\include\utility

; 140  :     _Left    = _STD move(_Right);

  00151	8b 07		 mov	 eax, DWORD PTR [edi]
  00153	89 06		 mov	 DWORD PTR [esi], eax
; File C:\Program Files\Microsoft Visual Studio\2022\Community\VC\Tools\MSVC\14.44.35207\include\algorithm

; 8353 :             ++_Pfirst;

  00155	83 c6 04	 add	 esi, 4
; File C:\Program Files\Microsoft Visual Studio\2022\Community\VC\Tools\MSVC\14.44.35207\include\utility

; 141  :     _Right   = _STD move(_Tmp);

  00158	89 0f		 mov	 DWORD PTR [edi], ecx
; File C:\Program Files\Microsoft Visual Studio\2022\Community\VC\Tools\MSVC\14.44.35207\include\algorithm

; 8354 :             ++_Gfirst;

  0015a	83 c7 04	 add	 edi, 4
  0015d	89 5d 0c	 mov	 DWORD PTR __Plast$1$[ebp], ebx
  00160	e9 36 ff ff ff	 jmp	 $LN130@Partition_
$LN27@Partition_:

; 8355 :         } else if (_Gfirst == _Last) { // no room at top, rotate pivot downward

  00165	83 c2 fc	 add	 edx, -4			; fffffffcH
  00168	89 55 fc	 mov	 DWORD PTR __Glast$1$[ebp], edx
  0016b	3b 7d 08	 cmp	 edi, DWORD PTR __Last$[ebp]
  0016e	75 22		 jne	 SHORT $LN30@Partition_

; 8356 :             if (--_Glast != --_Pfirst) {

  00170	83 ee 04	 sub	 esi, 4
  00173	3b d6		 cmp	 edx, esi
  00175	74 08		 je	 SHORT $LN99@Partition_
; File C:\Program Files\Microsoft Visual Studio\2022\Community\VC\Tools\MSVC\14.44.35207\include\utility

; 139  :     _Ty _Tmp = _STD move(_Left);

  00177	8b 0a		 mov	 ecx, DWORD PTR [edx]

; 140  :     _Left    = _STD move(_Right);

  00179	8b 06		 mov	 eax, DWORD PTR [esi]
  0017b	89 02		 mov	 DWORD PTR [edx], eax

; 141  :     _Right   = _STD move(_Tmp);

  0017d	89 0e		 mov	 DWORD PTR [esi], ecx
$LN99@Partition_:

; 139  :     _Ty _Tmp = _STD move(_Left);

  0017f	8b 0e		 mov	 ecx, DWORD PTR [esi]
; File C:\Program Files\Microsoft Visual Studio\2022\Community\VC\Tools\MSVC\14.44.35207\include\algorithm

; 8360 :             swap(*_Pfirst, *--_Plast); // intentional ADL

  00181	83 eb 04	 sub	 ebx, 4
  00184	89 5d 0c	 mov	 DWORD PTR __Plast$1$[ebp], ebx
; File C:\Program Files\Microsoft Visual Studio\2022\Community\VC\Tools\MSVC\14.44.35207\include\utility

; 140  :     _Left    = _STD move(_Right);

  00187	8b 03		 mov	 eax, DWORD PTR [ebx]
  00189	89 06		 mov	 DWORD PTR [esi], eax

; 141  :     _Right   = _STD move(_Tmp);

  0018b	89 0b		 mov	 DWORD PTR [ebx], ecx
; File C:\Program Files\Microsoft Visual Studio\2022\Community\VC\Tools\MSVC\14.44.35207\include\algorithm

; 8361 :         } else {

  0018d	e9 0e ff ff ff	 jmp	 $LL8@Partition_
$LN30@Partition_:
; File C:\Program Files\Microsoft Visual Studio\2022\Community\VC\Tools\MSVC\14.44.35207\include\utility

; 139  :     _Ty _Tmp = _STD move(_Left);

  00192	8b 0f		 mov	 ecx, DWORD PTR [edi]

; 140  :     _Left    = _STD move(_Right);

  00194	8b 02		 mov	 eax, DWORD PTR [edx]
  00196	89 07		 mov	 DWORD PTR [edi], eax
; File C:\Program Files\Microsoft Visual Studio\2022\Community\VC\Tools\MSVC\14.44.35207\include\algorithm

; 8363 :             ++_Gfirst;

  00198	83 c7 04	 add	 edi, 4
; File C:\Program Files\Microsoft Visual Studio\2022\Community\VC\Tools\MSVC\14.44.35207\include\utility

; 141  :     _Right   = _STD move(_Tmp);

  0019b	89 0a		 mov	 DWORD PTR [edx], ecx
  0019d	e9 f6 fe ff ff	 jmp	 $LN131@Partition_
$LN82@Partition_:

; 274  :         : first(_STD forward<_Other1>(_Val1)), second(_STD forward<_Other2>(_Val2)) {

  001a2	8b 45 f0	 mov	 eax, DWORD PTR ___$ReturnUdt$1$[ebp]
; File C:\Program Files\Microsoft Visual Studio\2022\Community\VC\Tools\MSVC\14.44.35207\include\algorithm

; 8343 :             return pair<_RanIt, _RanIt>(_Pfirst, _Plast);

  001a5	5f		 pop	 edi
; File C:\Program Files\Microsoft Visual Studio\2022\Community\VC\Tools\MSVC\14.44.35207\include\utility

; 274  :         : first(_STD forward<_Other1>(_Val1)), second(_STD forward<_Other2>(_Val2)) {

  001a6	89 30		 mov	 DWORD PTR [eax], esi
; File C:\Program Files\Microsoft Visual Studio\2022\Community\VC\Tools\MSVC\14.44.35207\include\algorithm

; 8343 :             return pair<_RanIt, _RanIt>(_Pfirst, _Plast);

  001a8	5e		 pop	 esi
; File C:\Program Files\Microsoft Visual Studio\2022\Community\VC\Tools\MSVC\14.44.35207\include\utility

; 274  :         : first(_STD forward<_Other1>(_Val1)), second(_STD forward<_Other2>(_Val2)) {

  001a9	89 58 04	 mov	 DWORD PTR [eax+4], ebx
; File C:\Program Files\Microsoft Visual Studio\2022\Community\VC\Tools\MSVC\14.44.35207\include\algorithm

; 8343 :             return pair<_RanIt, _RanIt>(_Pfirst, _Plast);

  001ac	5b		 pop	 ebx

; 8364 :         }
; 8365 :     }
; 8366 : }

  001ad	8b e5		 mov	 esp, ebp
  001af	5d		 pop	 ebp
  001b0	c3		 ret	 0
??$_Partition_by_median_guess_unchecked@PAPAVCInstanceBase@@ULessCharacterInstancePtrRenderOrder@@@std@@YA?AU?$pair@PAPAVCInstanceBase@@PAPAV1@@0@PAPAVCInstanceBase@@0ULessCharacterInstancePtrRenderOrder@@@Z ENDP ; std::_Partition_by_median_guess_unchecked<CInstanceBase * *,LessCharacterInstancePtrRenderOrder>
_TEXT	ENDS
; Function compile flags: /Ogtp
; File C:\Program Files\Microsoft Visual Studio\2022\Community\VC\Tools\MSVC\14.44.35207\include\xtree
; File C:\Program Files\Microsoft Visual Studio\2022\Community\VC\Tools\MSVC\14.44.35207\include\xmemory
; File C:\Program Files\Microsoft Visual Studio\2022\Community\VC\Tools\MSVC\14.44.35207\include\xtree
; File C:\Program Files\Microsoft Visual Studio\2022\Community\VC\Tools\MSVC\14.44.35207\include\xmemory
; File C:\Program Files\Microsoft Visual Studio\2022\Community\VC\Tools\MSVC\14.44.35207\include\xtree
; File C:\Program Files\Microsoft Visual Studio\2022\Community\VC\Tools\MSVC\14.44.35207\include\xmemory
; File C:\Program Files\Microsoft Visual Studio\2022\Community\VC\Tools\MSVC\14.44.35207\include\xtree
;	COMDAT ??$?0U?$pair@$$CBKPAVCInstanceBase@@@std@@@?$_Tree_temp_node@V?$allocator@U?$_Tree_node@U?$pair@$$CBKPAVCInstanceBase@@@std@@PAX@std@@@std@@@std@@QAE@AAV?$allocator@U?$_Tree_node@U?$pair@$$CBKPAVCInstanceBase@@@std@@PAX@std@@@1@PAU?$_Tree_node@U?$pair@$$CBKPAVCInstanceBase@@@std@@PAX@1@$$QAU?$pair@$$CBKPAVCInstanceBase@@@1@@Z
_TEXT	SEGMENT
_this$ = -16						; size = 4
__$EHRec$ = -12						; size = 12
__Al_$ = 8						; size = 4
__Myhead$ = 12						; size = 4
_<_Vals_0>$ = 16					; size = 4
??$?0U?$pair@$$CBKPAVCInstanceBase@@@std@@@?$_Tree_temp_node@V?$allocator@U?$_Tree_node@U?$pair@$$CBKPAVCInstanceBase@@@std@@PAX@std@@@std@@@std@@QAE@AAV?$allocator@U?$_Tree_node@U?$pair@$$CBKPAVCInstanceBase@@@std@@PAX@std@@@1@PAU?$_Tree_node@U?$pair@$$CBKPAVCInstanceBase@@@std@@PAX@1@$$QAU?$pair@$$CBKPAVCInstanceBase@@@1@@Z PROC ; std::_Tree_temp_node<std::allocator<std::_Tree_node<std::pair<unsigned long const ,CInstanceBase *>,void *> > >::_Tree_temp_node<std::allocator<std::_Tree_node<std::pair<unsigned long const ,CInstanceBase *>,void *> > ><std::pair<unsigned long const ,CInstanceBase *> >, COMDAT
; _this$ = ecx

; 829  :         : _Tree_temp_node_alloc<_Alnode>(_Al_) {

  00000	55		 push	 ebp
  00001	8b ec		 mov	 ebp, esp
  00003	6a ff		 push	 -1
  00005	68 00 00 00 00	 push	 __ehhandler$??$?0U?$pair@$$CBKPAVCInstanceBase@@@std@@@?$_Tree_temp_node@V?$allocator@U?$_Tree_node@U?$pair@$$CBKPAVCInstanceBase@@@std@@PAX@std@@@std@@@std@@QAE@AAV?$allocator@U?$_Tree_node@U?$pair@$$CBKPAVCInstanceBase@@@std@@PAX@std@@@1@PAU?$_Tree_node@U?$pair@$$CBKPAVCInstanceBase@@@std@@PAX@1@$$QAU?$pair@$$CBKPAVCInstanceBase@@@1@@Z
  0000a	64 a1 00 00 00
	00		 mov	 eax, DWORD PTR fs:0
  00010	50		 push	 eax
  00011	51		 push	 ecx
  00012	56		 push	 esi
  00013	a1 00 00 00 00	 mov	 eax, DWORD PTR ___security_cookie
  00018	33 c5		 xor	 eax, ebp
  0001a	50		 push	 eax
  0001b	8d 45 f4	 lea	 eax, DWORD PTR __$EHRec$[ebp]
  0001e	64 a3 00 00 00
	00		 mov	 DWORD PTR fs:0, eax
  00024	8b f1		 mov	 esi, ecx
  00026	89 75 f0	 mov	 DWORD PTR _this$[ebp], esi
; File C:\Program Files\Microsoft Visual Studio\2022\Community\VC\Tools\MSVC\14.44.35207\include\xmemory

; 1160 :     _CONSTEXPR20 explicit _Alloc_construct_ptr(_Alloc& _Al_) : _Al(_Al_), _Ptr(nullptr) {}

  00029	8b 45 08	 mov	 eax, DWORD PTR __Al_$[ebp]
  0002c	89 06		 mov	 DWORD PTR [esi], eax
; File C:\Program Files\Microsoft Visual Studio\2022\Community\VC\Tools\MSVC\14.44.35207\include\xtree

; 808  :     explicit _Tree_temp_node_alloc(_Alnode& _Al_) : _Alloc_construct_ptr<_Alnode>(_Al_) {

  0002e	c7 45 fc 00 00
	00 00		 mov	 DWORD PTR __$EHRec$[ebp+8], 0
; File C:\Program Files\Microsoft Visual Studio\2022\Community\VC\Tools\MSVC\14.44.35207\include\xmemory

; 136  :         return ::operator new(_Bytes);

  00035	6a 18		 push	 24			; 00000018H

; 1167 :         _Ptr = nullptr; // if allocate throws, prevents double-free

  00037	c7 46 04 00 00
	00 00		 mov	 DWORD PTR [esi+4], 0

; 136  :         return ::operator new(_Bytes);

  0003e	e8 00 00 00 00	 call	 ??2@YAPAXI@Z		; operator new
; File C:\Program Files\Microsoft Visual Studio\2022\Community\VC\Tools\MSVC\14.44.35207\include\xtree

; 830  :         _Alnode_traits::construct(this->_Al, _STD addressof(this->_Ptr->_Myval), _STD forward<_Valtys>(_Vals)...);

  00043	8b 4d 10	 mov	 ecx, DWORD PTR _<_Vals_0>$[ebp]
; File C:\Program Files\Microsoft Visual Studio\2022\Community\VC\Tools\MSVC\14.44.35207\include\xmemory

; 136  :         return ::operator new(_Bytes);

  00046	83 c4 04	 add	 esp, 4

; 1168 :         _Ptr = _Al.allocate(1);

  00049	89 46 04	 mov	 DWORD PTR [esi+4], eax
; File C:\Program Files\Microsoft Visual Studio\2022\Community\VC\Tools\MSVC\14.44.35207\include\xtree

; 830  :         _Alnode_traits::construct(this->_Al, _STD addressof(this->_Ptr->_Myval), _STD forward<_Valtys>(_Vals)...);

  0004c	8b 11		 mov	 edx, DWORD PTR [ecx]
  0004e	8b 49 04	 mov	 ecx, DWORD PTR [ecx+4]
  00051	89 48 14	 mov	 DWORD PTR [eax+20], ecx

; 831  :         _Construct_in_place(this->_Ptr->_Left, _Myhead);

  00054	8b 4d 0c	 mov	 ecx, DWORD PTR __Myhead$[ebp]
  00057	89 50 10	 mov	 DWORD PTR [eax+16], edx
  0005a	8b 46 04	 mov	 eax, DWORD PTR [esi+4]
  0005d	89 08		 mov	 DWORD PTR [eax], ecx

; 832  :         _Construct_in_place(this->_Ptr->_Parent, _Myhead);

  0005f	8b 46 04	 mov	 eax, DWORD PTR [esi+4]
  00062	89 48 04	 mov	 DWORD PTR [eax+4], ecx

; 833  :         _Construct_in_place(this->_Ptr->_Right, _Myhead);

  00065	8b 46 04	 mov	 eax, DWORD PTR [esi+4]
  00068	89 48 08	 mov	 DWORD PTR [eax+8], ecx

; 834  :         this->_Ptr->_Color = _Red;

  0006b	8b 46 04	 mov	 eax, DWORD PTR [esi+4]
  0006e	c6 40 0c 00	 mov	 BYTE PTR [eax+12], 0

; 835  :         this->_Ptr->_Isnil = false;

  00072	8b 46 04	 mov	 eax, DWORD PTR [esi+4]
  00075	c6 40 0d 00	 mov	 BYTE PTR [eax+13], 0

; 836  :     }

  00079	8b c6		 mov	 eax, esi
  0007b	8b 4d f4	 mov	 ecx, DWORD PTR __$EHRec$[ebp]
  0007e	64 89 0d 00 00
	00 00		 mov	 DWORD PTR fs:0, ecx
  00085	59		 pop	 ecx
  00086	5e		 pop	 esi
  00087	8b e5		 mov	 esp, ebp
  00089	5d		 pop	 ebp
  0008a	c2 0c 00	 ret	 12			; 0000000cH
_TEXT	ENDS
;	COMDAT text$x
text$x	SEGMENT
__unwindfunclet$??$?0U?$pair@$$CBKPAVCInstanceBase@@@std@@@?$_Tree_temp_node@V?$allocator@U?$_Tree_node@U?$pair@$$CBKPAVCInstanceBase@@@std@@PAX@std@@@std@@@std@@QAE@AAV?$allocator@U?$_Tree_node@U?$pair@$$CBKPAVCInstanceBase@@@std@@PAX@std@@@1@PAU?$_Tree_node@U?$pair@$$CBKPAVCInstanceBase@@@std@@PAX@1@$$QAU?$pair@$$CBKPAVCInstanceBase@@@1@@Z$1:
  00000	8b 4d f0	 mov	 ecx, DWORD PTR _this$[ebp]
  00003	e9 00 00 00 00	 jmp	 ??1?$_Alloc_construct_ptr@V?$allocator@U?$_Tree_node@U?$pair@$$CBKPAVCInstanceBase@@@std@@PAX@std@@@std@@@std@@QAE@XZ ; std::_Alloc_construct_ptr<std::allocator<std::_Tree_node<std::pair<unsigned long const ,CInstanceBase *>,void *> > >::~_Alloc_construct_ptr<std::allocator<std::_Tree_node<std::pair<unsigned long const ,CInstanceBase *>,void *> > >
  00008	cc		 int	 3
  00009	cc		 int	 3
  0000a	cc		 int	 3
  0000b	cc		 int	 3
  0000c	cc		 int	 3
__ehhandler$??$?0U?$pair@$$CBKPAVCInstanceBase@@@std@@@?$_Tree_temp_node@V?$allocator@U?$_Tree_node@U?$pair@$$CBKPAVCInstanceBase@@@std@@PAX@std@@@std@@@std@@QAE@AAV?$allocator@U?$_Tree_node@U?$pair@$$CBKPAVCInstanceBase@@@std@@PAX@std@@@1@PAU?$_Tree_node@U?$pair@$$CBKPAVCInstanceBase@@@std@@PAX@1@$$QAU?$pair@$$CBKPAVCInstanceBase@@@1@@Z:
  0000d	90		 npad	 1
  0000e	90		 npad	 1
  0000f	8b 54 24 08	 mov	 edx, DWORD PTR [esp+8]
  00013	8d 42 0c	 lea	 eax, DWORD PTR [edx+12]
  00016	8b 4a f4	 mov	 ecx, DWORD PTR [edx-12]
  00019	33 c8		 xor	 ecx, eax
  0001b	e8 00 00 00 00	 call	 @__security_check_cookie@4
  00020	b8 00 00 00 00	 mov	 eax, OFFSET __ehfuncinfo$??$?0U?$pair@$$CBKPAVCInstanceBase@@@std@@@?$_Tree_temp_node@V?$allocator@U?$_Tree_node@U?$pair@$$CBKPAVCInstanceBase@@@std@@PAX@std@@@std@@@std@@QAE@AAV?$allocator@U?$_Tree_node@U?$pair@$$CBKPAVCInstanceBase@@@std@@PAX@std@@@1@PAU?$_Tree_node@U?$pair@$$CBKPAVCInstanceBase@@@std@@PAX@1@$$QAU?$pair@$$CBKPAVCInstanceBase@@@1@@Z
  00025	e9 00 00 00 00	 jmp	 ___CxxFrameHandler3
text$x	ENDS
??$?0U?$pair@$$CBKPAVCInstanceBase@@@std@@@?$_Tree_temp_node@V?$allocator@U?$_Tree_node@U?$pair@$$CBKPAVCInstanceBase@@@std@@PAX@std@@@std@@@std@@QAE@AAV?$allocator@U?$_Tree_node@U?$pair@$$CBKPAVCInstanceBase@@@std@@PAX@std@@@1@PAU?$_Tree_node@U?$pair@$$CBKPAVCInstanceBase@@@std@@PAX@1@$$QAU?$pair@$$CBKPAVCInstanceBase@@@1@@Z ENDP ; std::_Tree_temp_node<std::allocator<std::_Tree_node<std::pair<unsigned long const ,CInstanceBase *>,void *> > >::_Tree_temp_node<std::allocator<std::_Tree_node<std::pair<unsigned long const ,CInstanceBase *>,void *> > ><std::pair<unsigned long const ,CInstanceBase *> >
; Function compile flags: /Ogtp
; File C:\Program Files\Microsoft Visual Studio\2022\Community\VC\Tools\MSVC\14.44.35207\include\algorithm
; File C:\Program Files\Microsoft Visual Studio\2022\Community\VC\Tools\MSVC\14.44.35207\include\xutility
; File C:\Anka2Project\Anka2Project\Source\Binary\source\UserInterface\PythonCharacterManager.cpp
; File C:\Program Files\Microsoft Visual Studio\2022\Community\VC\Tools\MSVC\14.44.35207\include\algorithm
; File C:\Program Files\Microsoft Visual Studio\2022\Community\VC\Tools\MSVC\14.44.35207\include\xutility
; File C:\Anka2Project\Anka2Project\Source\Binary\source\UserInterface\PythonCharacterManager.cpp
; File C:\Program Files\Microsoft Visual Studio\2022\Community\VC\Tools\MSVC\14.44.35207\include\algorithm
; File C:\Program Files\Microsoft Visual Studio\2022\Community\VC\Tools\MSVC\14.44.35207\include\xutility
; File C:\Program Files\Microsoft Visual Studio\2022\Community\VC\Tools\MSVC\14.44.35207\include\algorithm
; File C:\Anka2Project\Anka2Project\Source\Binary\source\UserInterface\PythonCharacterManager.cpp
; File C:\Program Files\Microsoft Visual Studio\2022\Community\VC\Tools\MSVC\14.44.35207\include\xutility
; File C:\Anka2Project\Anka2Project\Source\Binary\source\UserInterface\PythonCharacterManager.cpp
; File C:\Program Files\Microsoft Visual Studio\2022\Community\VC\Tools\MSVC\14.44.35207\include\algorithm
; File C:\Program Files\Microsoft Visual Studio\2022\Community\VC\Tools\MSVC\14.44.35207\include\xutility
; File C:\Program Files\Microsoft Visual Studio\2022\Community\VC\Tools\MSVC\14.44.35207\include\algorithm
; File C:\Program Files\Microsoft Visual Studio\2022\Community\VC\Tools\MSVC\14.44.35207\include\xutility
; File C:\Program Files\Microsoft Visual Studio\2022\Community\VC\Tools\MSVC\14.44.35207\include\algorithm
;	COMDAT ??$_Insertion_sort_unchecked@PAPAVCInstanceBase@@U?$_Ref_fn@UCInstanceBase_SLessCameraDistance@@@std@@@std@@YAPAPAVCInstanceBase@@QAPAV1@0U?$_Ref_fn@UCInstanceBase_SLessCameraDistance@@@0@@Z
_TEXT	SEGMENT
__Last$1$ = -32						; size = 4
__Val$1$ = -28						; size = 4
tv234 = -28						; size = 4
tv233 = -24						; size = 4
tv257 = -20						; size = 4
_pkInstRight$1$ = -16					; size = 4
_pkInstRight$1$ = -16					; size = 4
__Mid$1$ = -12						; size = 4
__First$1$ = -8						; size = 4
__Hole$1$ = -4						; size = 4
__Pred$ = 8						; size = 4
??$_Insertion_sort_unchecked@PAPAVCInstanceBase@@U?$_Ref_fn@UCInstanceBase_SLessCameraDistance@@@std@@@std@@YAPAPAVCInstanceBase@@QAPAV1@0U?$_Ref_fn@UCInstanceBase_SLessCameraDistance@@@0@@Z PROC ; std::_Insertion_sort_unchecked<CInstanceBase * *,std::_Ref_fn<CInstanceBase_SLessCameraDistance> >, COMDAT
; __First$ = ecx
; __Last$ = edx

; 8241 : _CONSTEXPR20 _BidIt _Insertion_sort_unchecked(const _BidIt _First, const _BidIt _Last, _Pr _Pred) {

  00000	55		 push	 ebp
  00001	8b ec		 mov	 ebp, esp
  00003	83 ec 20	 sub	 esp, 32			; 00000020H
  00006	8b 45 08	 mov	 eax, DWORD PTR __Pred$[ebp]
  00009	89 55 e0	 mov	 DWORD PTR __Last$1$[ebp], edx
  0000c	89 4d f8	 mov	 DWORD PTR __First$1$[ebp], ecx
  0000f	89 45 ec	 mov	 DWORD PTR tv257[ebp], eax

; 8242 :     // insertion sort [_First, _Last)
; 8243 :     if (_First != _Last) {

  00012	3b ca		 cmp	 ecx, edx
  00014	0f 84 f6 00 00
	00		 je	 $LN43@Insertion_

; 8244 :         for (_BidIt _Mid = _First; ++_Mid != _Last;) { // order next element

  0001a	53		 push	 ebx
  0001b	8d 59 04	 lea	 ebx, DWORD PTR [ecx+4]
  0001e	89 5d f4	 mov	 DWORD PTR __Mid$1$[ebp], ebx
  00021	3b da		 cmp	 ebx, edx
  00023	0f 84 e0 00 00
	00		 je	 $LN44@Insertion_
  00029	56		 push	 esi
  0002a	57		 push	 edi
  0002b	0f 1f 44 00 00	 npad	 5
$LL4@Insertion_:

; 8246 :             _Iter_value_t<_BidIt> _Val(_STD move(*_Mid));

  00030	8b 3b		 mov	 edi, DWORD PTR [ebx]
; File C:\Program Files\Microsoft Visual Studio\2022\Community\VC\Tools\MSVC\14.44.35207\include\xutility

; 763  :             return _Fn(_STD forward<_Args>(_Vals)...);

  00032	8b 01		 mov	 eax, DWORD PTR [ecx]
; File C:\Anka2Project\Anka2Project\Source\Binary\source\UserInterface\PythonCharacterManager.cpp

; 616  : 		int nLeftDeadPoint=pkInstLeft->IsDead();

  00034	8b cf		 mov	 ecx, edi
; File C:\Program Files\Microsoft Visual Studio\2022\Community\VC\Tools\MSVC\14.44.35207\include\algorithm

; 8245 :             _BidIt _Hole = _Mid;

  00036	89 5d fc	 mov	 DWORD PTR __Hole$1$[ebp], ebx

; 8246 :             _Iter_value_t<_BidIt> _Val(_STD move(*_Mid));

  00039	89 7d e4	 mov	 DWORD PTR __Val$1$[ebp], edi
; File C:\Program Files\Microsoft Visual Studio\2022\Community\VC\Tools\MSVC\14.44.35207\include\xutility

; 763  :             return _Fn(_STD forward<_Args>(_Vals)...);

  0003c	89 45 f0	 mov	 DWORD PTR _pkInstRight$1$[ebp], eax
; File C:\Anka2Project\Anka2Project\Source\Binary\source\UserInterface\PythonCharacterManager.cpp

; 616  : 		int nLeftDeadPoint=pkInstLeft->IsDead();

  0003f	e8 00 00 00 00	 call	 ?IsDead@CInstanceBase@@QAEHXZ ; CInstanceBase::IsDead

; 617  : 		int nRightDeadPoint=pkInstRight->IsDead();

  00044	8b 4d f0	 mov	 ecx, DWORD PTR _pkInstRight$1$[ebp]
  00047	8b f0		 mov	 esi, eax
  00049	e8 00 00 00 00	 call	 ?IsDead@CInstanceBase@@QAEHXZ ; CInstanceBase::IsDead

; 618  : 
; 619  : 		if (nLeftDeadPoint<nRightDeadPoint)

  0004e	3b f0		 cmp	 esi, eax
  00050	0f 8c 86 00 00
	00		 jl	 $LN41@Insertion_

; 620  : 			return true;
; 621  : 
; 622  : 		if (pkInstLeft->CalculateDistanceSq3d(m_kPPosEye)<pkInstRight->CalculateDistanceSq3d(m_kPPosEye))

  00056	8b 75 ec	 mov	 esi, DWORD PTR tv257[ebp]
  00059	8b cf		 mov	 ecx, edi
  0005b	56		 push	 esi
  0005c	e8 00 00 00 00	 call	 ?CalculateDistanceSq3d@CInstanceBase@@QAEMABUD3DXVECTOR3@@@Z ; CInstanceBase::CalculateDistanceSq3d
  00061	8b 4d f0	 mov	 ecx, DWORD PTR _pkInstRight$1$[ebp]
  00064	56		 push	 esi
  00065	f3 0f 11 45 e8	 movss	 DWORD PTR tv233[ebp], xmm0
  0006a	e8 00 00 00 00	 call	 ?CalculateDistanceSq3d@CInstanceBase@@QAEMABUD3DXVECTOR3@@@Z ; CInstanceBase::CalculateDistanceSq3d
  0006f	0f 2f 45 e8	 comiss	 xmm0, DWORD PTR tv233[ebp]
  00073	77 67		 ja	 SHORT $LN41@Insertion_
; File C:\Program Files\Microsoft Visual Studio\2022\Community\VC\Tools\MSVC\14.44.35207\include\algorithm

; 8252 :                 for (_BidIt _Prev = _Hole; _DEBUG_LT_PRED(_Pred, _Val, *--_Prev); _Hole = _Prev) {

  00075	8b fb		 mov	 edi, ebx
  00077	8b 5d e4	 mov	 ebx, DWORD PTR __Val$1$[ebp]
  0007a	66 0f 1f 44 00
	00		 npad	 6
$LL7@Insertion_:
; File C:\Program Files\Microsoft Visual Studio\2022\Community\VC\Tools\MSVC\14.44.35207\include\xutility

; 763  :             return _Fn(_STD forward<_Args>(_Vals)...);

  00080	8b 47 fc	 mov	 eax, DWORD PTR [edi-4]
; File C:\Program Files\Microsoft Visual Studio\2022\Community\VC\Tools\MSVC\14.44.35207\include\algorithm

; 8252 :                 for (_BidIt _Prev = _Hole; _DEBUG_LT_PRED(_Pred, _Val, *--_Prev); _Hole = _Prev) {

  00083	83 ef 04	 sub	 edi, 4
; File C:\Anka2Project\Anka2Project\Source\Binary\source\UserInterface\PythonCharacterManager.cpp

; 616  : 		int nLeftDeadPoint=pkInstLeft->IsDead();

  00086	8b cb		 mov	 ecx, ebx
; File C:\Program Files\Microsoft Visual Studio\2022\Community\VC\Tools\MSVC\14.44.35207\include\xutility

; 763  :             return _Fn(_STD forward<_Args>(_Vals)...);

  00088	89 45 f0	 mov	 DWORD PTR _pkInstRight$1$[ebp], eax
; File C:\Anka2Project\Anka2Project\Source\Binary\source\UserInterface\PythonCharacterManager.cpp

; 616  : 		int nLeftDeadPoint=pkInstLeft->IsDead();

  0008b	e8 00 00 00 00	 call	 ?IsDead@CInstanceBase@@QAEHXZ ; CInstanceBase::IsDead

; 617  : 		int nRightDeadPoint=pkInstRight->IsDead();

  00090	8b 4d f0	 mov	 ecx, DWORD PTR _pkInstRight$1$[ebp]
  00093	8b f0		 mov	 esi, eax
  00095	e8 00 00 00 00	 call	 ?IsDead@CInstanceBase@@QAEHXZ ; CInstanceBase::IsDead

; 618  : 
; 619  : 		if (nLeftDeadPoint<nRightDeadPoint)

  0009a	3b f0		 cmp	 esi, eax
  0009c	7c 1f		 jl	 SHORT $LN42@Insertion_

; 620  : 			return true;
; 621  : 
; 622  : 		if (pkInstLeft->CalculateDistanceSq3d(m_kPPosEye)<pkInstRight->CalculateDistanceSq3d(m_kPPosEye))

  0009e	8b 75 ec	 mov	 esi, DWORD PTR tv257[ebp]
  000a1	8b cb		 mov	 ecx, ebx
  000a3	56		 push	 esi
  000a4	e8 00 00 00 00	 call	 ?CalculateDistanceSq3d@CInstanceBase@@QAEMABUD3DXVECTOR3@@@Z ; CInstanceBase::CalculateDistanceSq3d
  000a9	8b 4d f0	 mov	 ecx, DWORD PTR _pkInstRight$1$[ebp]
  000ac	56		 push	 esi
  000ad	f3 0f 11 45 e4	 movss	 DWORD PTR tv234[ebp], xmm0
  000b2	e8 00 00 00 00	 call	 ?CalculateDistanceSq3d@CInstanceBase@@QAEMABUD3DXVECTOR3@@@Z ; CInstanceBase::CalculateDistanceSq3d
  000b7	0f 2f 45 e4	 comiss	 xmm0, DWORD PTR tv234[ebp]
  000bb	76 0c		 jbe	 SHORT $LN27@Insertion_
$LN42@Insertion_:
; File C:\Program Files\Microsoft Visual Studio\2022\Community\VC\Tools\MSVC\14.44.35207\include\algorithm

; 8253 :                     *_Hole = _STD move(*_Prev); // move hole down

  000bd	8b 4d fc	 mov	 ecx, DWORD PTR __Hole$1$[ebp]
  000c0	8b 07		 mov	 eax, DWORD PTR [edi]
  000c2	89 7d fc	 mov	 DWORD PTR __Hole$1$[ebp], edi
  000c5	89 01		 mov	 DWORD PTR [ecx], eax
  000c7	eb b7		 jmp	 SHORT $LL7@Insertion_
$LN27@Insertion_:

; 8254 :                 }
; 8255 : 
; 8256 :                 *_Hole = _STD move(_Val); // insert element in hole

  000c9	8b 4d fc	 mov	 ecx, DWORD PTR __Hole$1$[ebp]
  000cc	89 19		 mov	 DWORD PTR [ecx], ebx
  000ce	8b 5d f4	 mov	 ebx, DWORD PTR __Mid$1$[ebp]
  000d1	8b 4d f8	 mov	 ecx, DWORD PTR __First$1$[ebp]
  000d4	83 c3 04	 add	 ebx, 4
  000d7	89 5d f4	 mov	 DWORD PTR __Mid$1$[ebp], ebx
  000da	eb 1b		 jmp	 SHORT $LN2@Insertion_
$LN41@Insertion_:
; File C:\Program Files\Microsoft Visual Studio\2022\Community\VC\Tools\MSVC\14.44.35207\include\xutility

; 5190 :             return _STD _Copy_backward_memmove(_First, _Last, _Dest);

  000dc	8b 4d f8	 mov	 ecx, DWORD PTR __First$1$[ebp]
  000df	8d 73 04	 lea	 esi, DWORD PTR [ebx+4]
  000e2	56		 push	 esi
  000e3	8b d3		 mov	 edx, ebx
  000e5	e8 00 00 00 00	 call	 ??$_Copy_backward_memmove@PAPAVCInstanceBase@@PAPAV1@@std@@YAPAPAVCInstanceBase@@PAPAV1@00@Z ; std::_Copy_backward_memmove<CInstanceBase * *,CInstanceBase * *>
; File C:\Program Files\Microsoft Visual Studio\2022\Community\VC\Tools\MSVC\14.44.35207\include\algorithm

; 8250 :                 *_First = _STD move(_Val);

  000ea	8b 4d f8	 mov	 ecx, DWORD PTR __First$1$[ebp]
; File C:\Program Files\Microsoft Visual Studio\2022\Community\VC\Tools\MSVC\14.44.35207\include\xutility

; 5190 :             return _STD _Copy_backward_memmove(_First, _Last, _Dest);

  000ed	83 c4 04	 add	 esp, 4
; File C:\Program Files\Microsoft Visual Studio\2022\Community\VC\Tools\MSVC\14.44.35207\include\algorithm

; 8250 :                 *_First = _STD move(_Val);

  000f0	8b de		 mov	 ebx, esi
  000f2	89 75 f4	 mov	 DWORD PTR __Mid$1$[ebp], esi
  000f5	89 39		 mov	 DWORD PTR [ecx], edi
$LN2@Insertion_:

; 8244 :         for (_BidIt _Mid = _First; ++_Mid != _Last;) { // order next element

  000f7	8b 45 e0	 mov	 eax, DWORD PTR __Last$1$[ebp]
  000fa	3b d8		 cmp	 ebx, eax
  000fc	0f 85 2e ff ff
	ff		 jne	 $LL4@Insertion_
  00102	5f		 pop	 edi
  00103	5e		 pop	 esi
  00104	5b		 pop	 ebx

; 8262 : }

  00105	8b e5		 mov	 esp, ebp
  00107	5d		 pop	 ebp
  00108	c3		 ret	 0
$LN44@Insertion_:

; 8257 :             }
; 8258 :         }
; 8259 :     }
; 8260 : 
; 8261 :     return _Last;

  00109	8b c2		 mov	 eax, edx
  0010b	5b		 pop	 ebx

; 8262 : }

  0010c	8b e5		 mov	 esp, ebp
  0010e	5d		 pop	 ebp
  0010f	c3		 ret	 0
$LN43@Insertion_:

; 8257 :             }
; 8258 :         }
; 8259 :     }
; 8260 : 
; 8261 :     return _Last;

  00110	8b c2		 mov	 eax, edx

; 8262 : }

  00112	8b e5		 mov	 esp, ebp
  00114	5d		 pop	 ebp
  00115	c3		 ret	 0
??$_Insertion_sort_unchecked@PAPAVCInstanceBase@@U?$_Ref_fn@UCInstanceBase_SLessCameraDistance@@@std@@@std@@YAPAPAVCInstanceBase@@QAPAV1@0U?$_Ref_fn@UCInstanceBase_SLessCameraDistance@@@0@@Z ENDP ; std::_Insertion_sort_unchecked<CInstanceBase * *,std::_Ref_fn<CInstanceBase_SLessCameraDistance> >
_TEXT	ENDS
; Function compile flags: /Ogtp
; File C:\Program Files\Microsoft Visual Studio\2022\Community\VC\Tools\MSVC\14.44.35207\include\xutility
; File C:\Anka2Project\Anka2Project\Source\Binary\source\UserInterface\PythonCharacterManager.cpp
; File C:\Program Files\Microsoft Visual Studio\2022\Community\VC\Tools\MSVC\14.44.35207\include\xutility
; File C:\Anka2Project\Anka2Project\Source\Binary\source\UserInterface\PythonCharacterManager.cpp
; File C:\Program Files\Microsoft Visual Studio\2022\Community\VC\Tools\MSVC\14.44.35207\include\xutility
; File C:\Anka2Project\Anka2Project\Source\Binary\source\UserInterface\PythonCharacterManager.cpp
; File C:\Program Files\Microsoft Visual Studio\2022\Community\VC\Tools\MSVC\14.44.35207\include\xutility
; File C:\Anka2Project\Anka2Project\Source\Binary\source\UserInterface\PythonCharacterManager.cpp
; File C:\Program Files\Microsoft Visual Studio\2022\Community\VC\Tools\MSVC\14.44.35207\include\xutility
; File C:\Anka2Project\Anka2Project\Source\Binary\source\UserInterface\PythonCharacterManager.cpp
; File C:\Program Files\Microsoft Visual Studio\2022\Community\VC\Tools\MSVC\14.44.35207\include\xutility
;	COMDAT ??$?RAAPAVCInstanceBase@@AAPAV0@@?$_Ref_fn@UCInstanceBase_SLessCameraDistance@@@std@@QAE?A_TAAPAVCInstanceBase@@0@Z
_TEXT	SEGMENT
_<_Vals_0>$ = 8						; size = 4
_<_Vals_1>$ = 12					; size = 4
_pkInstLeft$1$ = 12					; size = 4
tv132 = 12						; size = 4
??$?RAAPAVCInstanceBase@@AAPAV0@@?$_Ref_fn@UCInstanceBase_SLessCameraDistance@@@std@@QAE?A_TAAPAVCInstanceBase@@0@Z PROC ; std::_Ref_fn<CInstanceBase_SLessCameraDistance>::operator()<CInstanceBase * &,CInstanceBase * &>, COMDAT
; _this$ = ecx

; 759  :         _Select_invoke_traits<_Fx&, _Args...>::_Is_nothrow_invocable::value) { // forward function call operator

  00000	55		 push	 ebp
  00001	8b ec		 mov	 ebp, esp

; 763  :             return _Fn(_STD forward<_Args>(_Vals)...);

  00003	8b 45 0c	 mov	 eax, DWORD PTR _<_Vals_1>$[ebp]
  00006	53		 push	 ebx
  00007	56		 push	 esi
  00008	57		 push	 edi
  00009	8b 18		 mov	 ebx, DWORD PTR [eax]
  0000b	8b 45 08	 mov	 eax, DWORD PTR _<_Vals_0>$[ebp]
  0000e	8b 39		 mov	 edi, DWORD PTR [ecx]
  00010	8b 00		 mov	 eax, DWORD PTR [eax]
; File C:\Anka2Project\Anka2Project\Source\Binary\source\UserInterface\PythonCharacterManager.cpp

; 616  : 		int nLeftDeadPoint=pkInstLeft->IsDead();

  00012	8b c8		 mov	 ecx, eax
; File C:\Program Files\Microsoft Visual Studio\2022\Community\VC\Tools\MSVC\14.44.35207\include\xutility

; 763  :             return _Fn(_STD forward<_Args>(_Vals)...);

  00014	89 45 0c	 mov	 DWORD PTR _pkInstLeft$1$[ebp], eax
; File C:\Anka2Project\Anka2Project\Source\Binary\source\UserInterface\PythonCharacterManager.cpp

; 616  : 		int nLeftDeadPoint=pkInstLeft->IsDead();

  00017	e8 00 00 00 00	 call	 ?IsDead@CInstanceBase@@QAEHXZ ; CInstanceBase::IsDead

; 617  : 		int nRightDeadPoint=pkInstRight->IsDead();

  0001c	8b cb		 mov	 ecx, ebx
  0001e	8b f0		 mov	 esi, eax
  00020	e8 00 00 00 00	 call	 ?IsDead@CInstanceBase@@QAEHXZ ; CInstanceBase::IsDead

; 618  : 
; 619  : 		if (nLeftDeadPoint<nRightDeadPoint)

  00025	3b f0		 cmp	 esi, eax
  00027	7d 09		 jge	 SHORT $LN4@operator
; File C:\Program Files\Microsoft Visual Studio\2022\Community\VC\Tools\MSVC\14.44.35207\include\xutility

; 765  :     }

  00029	5f		 pop	 edi
  0002a	5e		 pop	 esi
; File C:\Anka2Project\Anka2Project\Source\Binary\source\UserInterface\PythonCharacterManager.cpp

; 620  : 			return true;

  0002b	b0 01		 mov	 al, 1
; File C:\Program Files\Microsoft Visual Studio\2022\Community\VC\Tools\MSVC\14.44.35207\include\xutility

; 765  :     }

  0002d	5b		 pop	 ebx
  0002e	5d		 pop	 ebp
  0002f	c2 08 00	 ret	 8
$LN4@operator:
; File C:\Anka2Project\Anka2Project\Source\Binary\source\UserInterface\PythonCharacterManager.cpp

; 622  : 		if (pkInstLeft->CalculateDistanceSq3d(m_kPPosEye)<pkInstRight->CalculateDistanceSq3d(m_kPPosEye))

  00032	8b 4d 0c	 mov	 ecx, DWORD PTR _pkInstLeft$1$[ebp]
  00035	57		 push	 edi
  00036	e8 00 00 00 00	 call	 ?CalculateDistanceSq3d@CInstanceBase@@QAEMABUD3DXVECTOR3@@@Z ; CInstanceBase::CalculateDistanceSq3d
  0003b	57		 push	 edi
  0003c	8b cb		 mov	 ecx, ebx
  0003e	f3 0f 11 45 0c	 movss	 DWORD PTR tv132[ebp], xmm0
  00043	e8 00 00 00 00	 call	 ?CalculateDistanceSq3d@CInstanceBase@@QAEMABUD3DXVECTOR3@@@Z ; CInstanceBase::CalculateDistanceSq3d
  00048	0f 2f 45 0c	 comiss	 xmm0, DWORD PTR tv132[ebp]
  0004c	5f		 pop	 edi
; File C:\Program Files\Microsoft Visual Studio\2022\Community\VC\Tools\MSVC\14.44.35207\include\xutility

; 765  :     }

  0004d	5e		 pop	 esi
  0004e	5b		 pop	 ebx
; File C:\Anka2Project\Anka2Project\Source\Binary\source\UserInterface\PythonCharacterManager.cpp

; 622  : 		if (pkInstLeft->CalculateDistanceSq3d(m_kPPosEye)<pkInstRight->CalculateDistanceSq3d(m_kPPosEye))

  0004f	0f 97 c0	 seta	 al
; File C:\Program Files\Microsoft Visual Studio\2022\Community\VC\Tools\MSVC\14.44.35207\include\xutility

; 765  :     }

  00052	5d		 pop	 ebp
  00053	c2 08 00	 ret	 8
??$?RAAPAVCInstanceBase@@AAPAV0@@?$_Ref_fn@UCInstanceBase_SLessCameraDistance@@@std@@QAE?A_TAAPAVCInstanceBase@@0@Z ENDP ; std::_Ref_fn<CInstanceBase_SLessCameraDistance>::operator()<CInstanceBase * &,CInstanceBase * &>
_TEXT	ENDS
; Function compile flags: /Ogtp
; File C:\Program Files\Microsoft Visual Studio\2022\Community\VC\Tools\MSVC\14.44.35207\include\algorithm
; File C:\Program Files\Microsoft Visual Studio\2022\Community\VC\Tools\MSVC\14.44.35207\include\xutility
; File C:\Anka2Project\Anka2Project\Source\Binary\source\UserInterface\PythonCharacterManager.cpp
; File C:\Program Files\Microsoft Visual Studio\2022\Community\VC\Tools\MSVC\14.44.35207\include\xutility
; File C:\Anka2Project\Anka2Project\Source\Binary\source\UserInterface\PythonCharacterManager.cpp
; File C:\Program Files\Microsoft Visual Studio\2022\Community\VC\Tools\MSVC\14.44.35207\include\xutility
; File C:\Anka2Project\Anka2Project\Source\Binary\source\UserInterface\PythonCharacterManager.cpp
; File C:\Program Files\Microsoft Visual Studio\2022\Community\VC\Tools\MSVC\14.44.35207\include\xutility
; File C:\Anka2Project\Anka2Project\Source\Binary\source\UserInterface\PythonCharacterManager.cpp
; File C:\Program Files\Microsoft Visual Studio\2022\Community\VC\Tools\MSVC\14.44.35207\include\algorithm
; File C:\Program Files\Microsoft Visual Studio\2022\Community\VC\Tools\MSVC\14.44.35207\include\xutility
; File C:\Anka2Project\Anka2Project\Source\Binary\source\UserInterface\PythonCharacterManager.cpp
; File C:\Program Files\Microsoft Visual Studio\2022\Community\VC\Tools\MSVC\14.44.35207\include\xutility
; File C:\Anka2Project\Anka2Project\Source\Binary\source\UserInterface\PythonCharacterManager.cpp
; File C:\Program Files\Microsoft Visual Studio\2022\Community\VC\Tools\MSVC\14.44.35207\include\xutility
; File C:\Anka2Project\Anka2Project\Source\Binary\source\UserInterface\PythonCharacterManager.cpp
; File C:\Program Files\Microsoft Visual Studio\2022\Community\VC\Tools\MSVC\14.44.35207\include\xutility
; File C:\Anka2Project\Anka2Project\Source\Binary\source\UserInterface\PythonCharacterManager.cpp
; File C:\Program Files\Microsoft Visual Studio\2022\Community\VC\Tools\MSVC\14.44.35207\include\algorithm
; File C:\Anka2Project\Anka2Project\Source\Binary\source\UserInterface\PythonCharacterManager.cpp
; File C:\Program Files\Microsoft Visual Studio\2022\Community\VC\Tools\MSVC\14.44.35207\include\algorithm
; File C:\Program Files\Microsoft Visual Studio\2022\Community\VC\Tools\MSVC\14.44.35207\include\xutility
; File C:\Anka2Project\Anka2Project\Source\Binary\source\UserInterface\PythonCharacterManager.cpp
; File C:\Program Files\Microsoft Visual Studio\2022\Community\VC\Tools\MSVC\14.44.35207\include\xutility
; File C:\Anka2Project\Anka2Project\Source\Binary\source\UserInterface\PythonCharacterManager.cpp
; File C:\Program Files\Microsoft Visual Studio\2022\Community\VC\Tools\MSVC\14.44.35207\include\xutility
; File C:\Anka2Project\Anka2Project\Source\Binary\source\UserInterface\PythonCharacterManager.cpp
; File C:\Program Files\Microsoft Visual Studio\2022\Community\VC\Tools\MSVC\14.44.35207\include\xutility
; File C:\Anka2Project\Anka2Project\Source\Binary\source\UserInterface\PythonCharacterManager.cpp
; File C:\Program Files\Microsoft Visual Studio\2022\Community\VC\Tools\MSVC\14.44.35207\include\algorithm
; File C:\Program Files\Microsoft Visual Studio\2022\Community\VC\Tools\MSVC\14.44.35207\include\utility
; File C:\Program Files\Microsoft Visual Studio\2022\Community\VC\Tools\MSVC\14.44.35207\include\algorithm
; File C:\Program Files\Microsoft Visual Studio\2022\Community\VC\Tools\MSVC\14.44.35207\include\utility
; File C:\Program Files\Microsoft Visual Studio\2022\Community\VC\Tools\MSVC\14.44.35207\include\algorithm
; File C:\Program Files\Microsoft Visual Studio\2022\Community\VC\Tools\MSVC\14.44.35207\include\xutility
; File C:\Anka2Project\Anka2Project\Source\Binary\source\UserInterface\PythonCharacterManager.cpp
; File C:\Program Files\Microsoft Visual Studio\2022\Community\VC\Tools\MSVC\14.44.35207\include\xutility
; File C:\Anka2Project\Anka2Project\Source\Binary\source\UserInterface\PythonCharacterManager.cpp
; File C:\Program Files\Microsoft Visual Studio\2022\Community\VC\Tools\MSVC\14.44.35207\include\xutility
; File C:\Anka2Project\Anka2Project\Source\Binary\source\UserInterface\PythonCharacterManager.cpp
; File C:\Program Files\Microsoft Visual Studio\2022\Community\VC\Tools\MSVC\14.44.35207\include\xutility
; File C:\Anka2Project\Anka2Project\Source\Binary\source\UserInterface\PythonCharacterManager.cpp
; File C:\Program Files\Microsoft Visual Studio\2022\Community\VC\Tools\MSVC\14.44.35207\include\algorithm
; File C:\Program Files\Microsoft Visual Studio\2022\Community\VC\Tools\MSVC\14.44.35207\include\utility
; File C:\Anka2Project\Anka2Project\Source\Binary\source\UserInterface\PythonCharacterManager.cpp
; File C:\Program Files\Microsoft Visual Studio\2022\Community\VC\Tools\MSVC\14.44.35207\include\algorithm
; File C:\Anka2Project\Anka2Project\Source\Binary\source\UserInterface\PythonCharacterManager.cpp
; File C:\Program Files\Microsoft Visual Studio\2022\Community\VC\Tools\MSVC\14.44.35207\include\algorithm
; File C:\Program Files\Microsoft Visual Studio\2022\Community\VC\Tools\MSVC\14.44.35207\include\utility
; File C:\Program Files\Microsoft Visual Studio\2022\Community\VC\Tools\MSVC\14.44.35207\include\algorithm
; File C:\Program Files\Microsoft Visual Studio\2022\Community\VC\Tools\MSVC\14.44.35207\include\utility
; File C:\Program Files\Microsoft Visual Studio\2022\Community\VC\Tools\MSVC\14.44.35207\include\algorithm
; File C:\Program Files\Microsoft Visual Studio\2022\Community\VC\Tools\MSVC\14.44.35207\include\utility
; File C:\Program Files\Microsoft Visual Studio\2022\Community\VC\Tools\MSVC\14.44.35207\include\algorithm
; File C:\Program Files\Microsoft Visual Studio\2022\Community\VC\Tools\MSVC\14.44.35207\include\utility
; File C:\Program Files\Microsoft Visual Studio\2022\Community\VC\Tools\MSVC\14.44.35207\include\algorithm
; File C:\Program Files\Microsoft Visual Studio\2022\Community\VC\Tools\MSVC\14.44.35207\include\utility
; File C:\Program Files\Microsoft Visual Studio\2022\Community\VC\Tools\MSVC\14.44.35207\include\algorithm
; File C:\Program Files\Microsoft Visual Studio\2022\Community\VC\Tools\MSVC\14.44.35207\include\utility
; File C:\Program Files\Microsoft Visual Studio\2022\Community\VC\Tools\MSVC\14.44.35207\include\algorithm
; File C:\Program Files\Microsoft Visual Studio\2022\Community\VC\Tools\MSVC\14.44.35207\include\utility
; File C:\Program Files\Microsoft Visual Studio\2022\Community\VC\Tools\MSVC\14.44.35207\include\algorithm
; File C:\Program Files\Microsoft Visual Studio\2022\Community\VC\Tools\MSVC\14.44.35207\include\utility
; File C:\Program Files\Microsoft Visual Studio\2022\Community\VC\Tools\MSVC\14.44.35207\include\algorithm
; File C:\Program Files\Microsoft Visual Studio\2022\Community\VC\Tools\MSVC\14.44.35207\include\utility
; File C:\Program Files\Microsoft Visual Studio\2022\Community\VC\Tools\MSVC\14.44.35207\include\algorithm
; File C:\Program Files\Microsoft Visual Studio\2022\Community\VC\Tools\MSVC\14.44.35207\include\utility
; File C:\Program Files\Microsoft Visual Studio\2022\Community\VC\Tools\MSVC\14.44.35207\include\algorithm
;	COMDAT ??$_Partition_by_median_guess_unchecked@PAPAVCInstanceBase@@U?$_Ref_fn@UCInstanceBase_SLessCameraDistance@@@std@@@std@@YA?AU?$pair@PAPAVCInstanceBase@@PAPAV1@@0@PAPAVCInstanceBase@@0U?$_Ref_fn@UCInstanceBase_SLessCameraDistance@@@0@@Z
_TEXT	SEGMENT
___$ReturnUdt$1$ = -36					; size = 4
tv674 = -32						; size = 4
_pkInstLeft$1$ = -32					; size = 4
_pkInstLeft$1$ = -28					; size = 4
tv667 = -28						; size = 4
tv671 = -28						; size = 4
tv693 = -28						; size = 4
$T31 = -28						; size = 4
_pkInstLeft$1$ = -28					; size = 4
_pkInstRight$1$ = -24					; size = 4
tv654 = -24						; size = 4
tv656 = -24						; size = 4
tv658 = -24						; size = 4
tv660 = -24						; size = 4
tv662 = -24						; size = 4
tv664 = -24						; size = 4
_pkInstRight$1$ = -24					; size = 4
$T32 = -24						; size = 4
_pkInstLeft$1$ = -24					; size = 4
_pkInstLeft$1$ = -24					; size = 4
$T33 = -24						; size = 4
$T34 = -24						; size = 4
_pkInstLeft$1$ = -24					; size = 4
_pkInstRight$1$ = -20					; size = 4
__Pfirst$1$ = -20					; size = 4
tv688 = -20						; size = 4
_pkInstRight$1$ = -20					; size = 4
_pkInstRight$1$ = -20					; size = 4
_pkInstRight$1$ = -20					; size = 4
_pkInstRight$1$ = -20					; size = 4
_pkInstRight$1$ = -20					; size = 4
__First$1$ = -16					; size = 4
tv683 = -12						; size = 4
_pkInstLeft$1$ = -12					; size = 4
__Gfirst$1$ = -12					; size = 4
tv691 = -12						; size = 4
_pkInstLeft$1$ = -8					; size = 4
__Glast$1$ = -8						; size = 4
__Plast$1$ = -4						; size = 4
__Last$ = 8						; size = 4
__Pred$ = 12						; size = 4
??$_Partition_by_median_guess_unchecked@PAPAVCInstanceBase@@U?$_Ref_fn@UCInstanceBase_SLessCameraDistance@@@std@@@std@@YA?AU?$pair@PAPAVCInstanceBase@@PAPAV1@@0@PAPAVCInstanceBase@@0U?$_Ref_fn@UCInstanceBase_SLessCameraDistance@@@0@@Z PROC ; std::_Partition_by_median_guess_unchecked<CInstanceBase * *,std::_Ref_fn<CInstanceBase_SLessCameraDistance> >, COMDAT
; ___$ReturnUdt$ = ecx
; __First$ = edx

; 8298 : _CONSTEXPR20 pair<_RanIt, _RanIt> _Partition_by_median_guess_unchecked(_RanIt _First, _RanIt _Last, _Pr _Pred) {

  00000	55		 push	 ebp
  00001	8b ec		 mov	 ebp, esp
  00003	83 ec 24	 sub	 esp, 36			; 00000024H
  00006	53		 push	 ebx
  00007	56		 push	 esi
  00008	8b 75 0c	 mov	 esi, DWORD PTR __Pred$[ebp]
  0000b	89 4d dc	 mov	 DWORD PTR ___$ReturnUdt$1$[ebp], ecx

; 8299 :     // partition [_First, _Last)
; 8300 :     _RanIt _Mid = _First + ((_Last - _First) >> 1); // shift for codegen

  0000e	8b 4d 08	 mov	 ecx, DWORD PTR __Last$[ebp]
  00011	8b c1		 mov	 eax, ecx
  00013	57		 push	 edi
  00014	8b fa		 mov	 edi, edx

; 8301 :     _STD _Guess_median_unchecked(_First, _Mid, _STD _Prev_iter(_Last), _Pred);

  00016	83 c1 fc	 add	 ecx, -4			; fffffffcH
  00019	2b c7		 sub	 eax, edi
  0001b	89 7d f0	 mov	 DWORD PTR __First$1$[ebp], edi
  0001e	c1 f8 03	 sar	 eax, 3
  00021	89 4d e8	 mov	 DWORD PTR tv654[ebp], ecx

; 8285 :     if (40 < _Count) { // Tukey's ninther

  00024	56		 push	 esi

; 8299 :     // partition [_First, _Last)
; 8300 :     _RanIt _Mid = _First + ((_Last - _First) >> 1); // shift for codegen

  00025	8d 1c 87	 lea	 ebx, DWORD PTR [edi+eax*4]

; 8284 :     const _Diff _Count = _Last - _First;

  00028	8b c1		 mov	 eax, ecx
  0002a	2b c7		 sub	 eax, edi

; 8299 :     // partition [_First, _Last)
; 8300 :     _RanIt _Mid = _First + ((_Last - _First) >> 1); // shift for codegen

  0002c	89 5d ec	 mov	 DWORD PTR __Pfirst$1$[ebp], ebx

; 8284 :     const _Diff _Count = _Last - _First;

  0002f	c1 f8 02	 sar	 eax, 2

; 8285 :     if (40 < _Count) { // Tukey's ninther

  00032	83 f8 28	 cmp	 eax, 40			; 00000028H
  00035	7e 61		 jle	 SHORT $LN107@Partition_

; 8286 :         const _Diff _Step     = (_Count + 1) >> 3; // +1 can't overflow because range was made inclusive in caller

  00037	40		 inc	 eax
  00038	c1 f8 03	 sar	 eax, 3

; 8287 :         const _Diff _Two_step = _Step << 1; // note: intentionally discards low-order bit
; 8288 :         _STD _Med3_unchecked(_First, _First + _Step, _First + _Two_step, _Pred);

  0003b	8d 0c c5 00 00
	00 00		 lea	 ecx, DWORD PTR [eax*8]
  00042	8d 1c 85 00 00
	00 00		 lea	 ebx, DWORD PTR [eax*4]
  00049	89 4d f4	 mov	 DWORD PTR tv691[ebp], ecx
  0004c	8d 04 39	 lea	 eax, DWORD PTR [ecx+edi]
  0004f	8b cf		 mov	 ecx, edi
  00051	8d 14 3b	 lea	 edx, DWORD PTR [ebx+edi]
  00054	50		 push	 eax
  00055	e8 00 00 00 00	 call	 ??$_Med3_unchecked@PAPAVCInstanceBase@@U?$_Ref_fn@UCInstanceBase_SLessCameraDistance@@@std@@@std@@YAXPAPAVCInstanceBase@@00U?$_Ref_fn@UCInstanceBase_SLessCameraDistance@@@0@@Z ; std::_Med3_unchecked<CInstanceBase * *,std::_Ref_fn<CInstanceBase_SLessCameraDistance> >

; 8289 :         _STD _Med3_unchecked(_Mid - _Step, _Mid, _Mid + _Step, _Pred);

  0005a	8b 55 ec	 mov	 edx, DWORD PTR __Pfirst$1$[ebp]
  0005d	8b ca		 mov	 ecx, edx
  0005f	56		 push	 esi
  00060	2b cb		 sub	 ecx, ebx
  00062	8d 04 13	 lea	 eax, DWORD PTR [ebx+edx]
  00065	50		 push	 eax
  00066	e8 00 00 00 00	 call	 ??$_Med3_unchecked@PAPAVCInstanceBase@@U?$_Ref_fn@UCInstanceBase_SLessCameraDistance@@@std@@@std@@YAXPAPAVCInstanceBase@@00U?$_Ref_fn@UCInstanceBase_SLessCameraDistance@@@0@@Z ; std::_Med3_unchecked<CInstanceBase * *,std::_Ref_fn<CInstanceBase_SLessCameraDistance> >

; 8290 :         _STD _Med3_unchecked(_Last - _Two_step, _Last - _Step, _Last, _Pred);

  0006b	8b 45 e8	 mov	 eax, DWORD PTR tv654[ebp]
  0006e	8b f8		 mov	 edi, eax
  00070	56		 push	 esi
  00071	50		 push	 eax
  00072	2b 45 f4	 sub	 eax, DWORD PTR tv691[ebp]
  00075	2b fb		 sub	 edi, ebx
  00077	8b d7		 mov	 edx, edi
  00079	8b c8		 mov	 ecx, eax
  0007b	e8 00 00 00 00	 call	 ??$_Med3_unchecked@PAPAVCInstanceBase@@U?$_Ref_fn@UCInstanceBase_SLessCameraDistance@@@std@@@std@@YAXPAPAVCInstanceBase@@00U?$_Ref_fn@UCInstanceBase_SLessCameraDistance@@@0@@Z ; std::_Med3_unchecked<CInstanceBase * *,std::_Ref_fn<CInstanceBase_SLessCameraDistance> >

; 8291 :         _STD _Med3_unchecked(_First + _Step, _Mid, _Last - _Step, _Pred);

  00080	8b 4d f0	 mov	 ecx, DWORD PTR __First$1$[ebp]
  00083	8b 55 ec	 mov	 edx, DWORD PTR __Pfirst$1$[ebp]
  00086	56		 push	 esi
  00087	57		 push	 edi
  00088	8d 0c 0b	 lea	 ecx, DWORD PTR [ebx+ecx]
  0008b	e8 00 00 00 00	 call	 ??$_Med3_unchecked@PAPAVCInstanceBase@@U?$_Ref_fn@UCInstanceBase_SLessCameraDistance@@@std@@@std@@YAXPAPAVCInstanceBase@@00U?$_Ref_fn@UCInstanceBase_SLessCameraDistance@@@0@@Z ; std::_Med3_unchecked<CInstanceBase * *,std::_Ref_fn<CInstanceBase_SLessCameraDistance> >

; 8292 :     } else {

  00090	8b 5d ec	 mov	 ebx, DWORD PTR __Pfirst$1$[ebp]
  00093	83 c4 20	 add	 esp, 32			; 00000020H
  00096	eb 0d		 jmp	 SHORT $LN108@Partition_
$LN107@Partition_:

; 8293 :         _STD _Med3_unchecked(_First, _Mid, _Last, _Pred);

  00098	51		 push	 ecx
  00099	8b d3		 mov	 edx, ebx
  0009b	8b cf		 mov	 ecx, edi
  0009d	e8 00 00 00 00	 call	 ??$_Med3_unchecked@PAPAVCInstanceBase@@U?$_Ref_fn@UCInstanceBase_SLessCameraDistance@@@std@@@std@@YAXPAPAVCInstanceBase@@00U?$_Ref_fn@UCInstanceBase_SLessCameraDistance@@@0@@Z ; std::_Med3_unchecked<CInstanceBase * *,std::_Ref_fn<CInstanceBase_SLessCameraDistance> >
  000a2	83 c4 08	 add	 esp, 8
$LN108@Partition_:

; 8302 :     _RanIt _Pfirst = _Mid;
; 8303 :     _RanIt _Plast  = _STD _Next_iter(_Pfirst);

  000a5	8d 7b 04	 lea	 edi, DWORD PTR [ebx+4]
  000a8	89 7d fc	 mov	 DWORD PTR __Plast$1$[ebp], edi

; 8306 :            && !_Pred(*_Pfirst, *_STD _Prev_iter(_Pfirst))) {

  000ab	39 5d f0	 cmp	 DWORD PTR __First$1$[ebp], ebx
  000ae	0f 83 99 00 00
	00		 jae	 $LN145@Partition_
$LL2@Partition_:
; File C:\Program Files\Microsoft Visual Studio\2022\Community\VC\Tools\MSVC\14.44.35207\include\xutility

; 763  :             return _Fn(_STD forward<_Args>(_Vals)...);

  000b4	8b 03		 mov	 eax, DWORD PTR [ebx]
  000b6	89 45 ec	 mov	 DWORD PTR _pkInstRight$1$[ebp], eax
  000b9	8d 43 fc	 lea	 eax, DWORD PTR [ebx-4]
  000bc	89 45 f4	 mov	 DWORD PTR tv683[ebp], eax
  000bf	8b 00		 mov	 eax, DWORD PTR [eax]
; File C:\Anka2Project\Anka2Project\Source\Binary\source\UserInterface\PythonCharacterManager.cpp

; 616  : 		int nLeftDeadPoint=pkInstLeft->IsDead();

  000c1	8b c8		 mov	 ecx, eax
; File C:\Program Files\Microsoft Visual Studio\2022\Community\VC\Tools\MSVC\14.44.35207\include\xutility

; 763  :             return _Fn(_STD forward<_Args>(_Vals)...);

  000c3	89 45 e8	 mov	 DWORD PTR _pkInstLeft$1$[ebp], eax
; File C:\Anka2Project\Anka2Project\Source\Binary\source\UserInterface\PythonCharacterManager.cpp

; 616  : 		int nLeftDeadPoint=pkInstLeft->IsDead();

  000c6	e8 00 00 00 00	 call	 ?IsDead@CInstanceBase@@QAEHXZ ; CInstanceBase::IsDead

; 617  : 		int nRightDeadPoint=pkInstRight->IsDead();

  000cb	8b 4d ec	 mov	 ecx, DWORD PTR _pkInstRight$1$[ebp]
  000ce	8b f8		 mov	 edi, eax
  000d0	e8 00 00 00 00	 call	 ?IsDead@CInstanceBase@@QAEHXZ ; CInstanceBase::IsDead

; 619  : 		if (nLeftDeadPoint<nRightDeadPoint)

  000d5	3b f8		 cmp	 edi, eax
  000d7	7c 71		 jl	 SHORT $LN159@Partition_

; 622  : 		if (pkInstLeft->CalculateDistanceSq3d(m_kPPosEye)<pkInstRight->CalculateDistanceSq3d(m_kPPosEye))

  000d9	8b 4d e8	 mov	 ecx, DWORD PTR _pkInstLeft$1$[ebp]
  000dc	56		 push	 esi
  000dd	e8 00 00 00 00	 call	 ?CalculateDistanceSq3d@CInstanceBase@@QAEMABUD3DXVECTOR3@@@Z ; CInstanceBase::CalculateDistanceSq3d
  000e2	8b 4d ec	 mov	 ecx, DWORD PTR _pkInstRight$1$[ebp]
  000e5	56		 push	 esi
  000e6	f3 0f 11 45 e8	 movss	 DWORD PTR tv656[ebp], xmm0
  000eb	e8 00 00 00 00	 call	 ?CalculateDistanceSq3d@CInstanceBase@@QAEMABUD3DXVECTOR3@@@Z ; CInstanceBase::CalculateDistanceSq3d
  000f0	0f 2f 45 e8	 comiss	 xmm0, DWORD PTR tv656[ebp]
  000f4	77 54		 ja	 SHORT $LN159@Partition_
; File C:\Program Files\Microsoft Visual Studio\2022\Community\VC\Tools\MSVC\14.44.35207\include\xutility

; 763  :             return _Fn(_STD forward<_Args>(_Vals)...);

  000f6	8b 45 0c	 mov	 eax, DWORD PTR __Pred$[ebp]
  000f9	89 45 e8	 mov	 DWORD PTR $T33[ebp], eax
  000fc	8b 45 f4	 mov	 eax, DWORD PTR tv683[ebp]
  000ff	8b 00		 mov	 eax, DWORD PTR [eax]
  00101	89 45 ec	 mov	 DWORD PTR _pkInstRight$1$[ebp], eax
  00104	8b 03		 mov	 eax, DWORD PTR [ebx]
; File C:\Anka2Project\Anka2Project\Source\Binary\source\UserInterface\PythonCharacterManager.cpp

; 616  : 		int nLeftDeadPoint=pkInstLeft->IsDead();

  00106	8b c8		 mov	 ecx, eax
; File C:\Program Files\Microsoft Visual Studio\2022\Community\VC\Tools\MSVC\14.44.35207\include\xutility

; 763  :             return _Fn(_STD forward<_Args>(_Vals)...);

  00108	89 45 f8	 mov	 DWORD PTR _pkInstLeft$1$[ebp], eax
; File C:\Anka2Project\Anka2Project\Source\Binary\source\UserInterface\PythonCharacterManager.cpp

; 616  : 		int nLeftDeadPoint=pkInstLeft->IsDead();

  0010b	e8 00 00 00 00	 call	 ?IsDead@CInstanceBase@@QAEHXZ ; CInstanceBase::IsDead

; 617  : 		int nRightDeadPoint=pkInstRight->IsDead();

  00110	8b 4d ec	 mov	 ecx, DWORD PTR _pkInstRight$1$[ebp]
  00113	8b f8		 mov	 edi, eax
  00115	e8 00 00 00 00	 call	 ?IsDead@CInstanceBase@@QAEHXZ ; CInstanceBase::IsDead

; 619  : 		if (nLeftDeadPoint<nRightDeadPoint)

  0011a	3b f8		 cmp	 edi, eax
  0011c	7c 2c		 jl	 SHORT $LN159@Partition_

; 622  : 		if (pkInstLeft->CalculateDistanceSq3d(m_kPPosEye)<pkInstRight->CalculateDistanceSq3d(m_kPPosEye))

  0011e	8b 7d e8	 mov	 edi, DWORD PTR $T33[ebp]
  00121	8b 4d f8	 mov	 ecx, DWORD PTR _pkInstLeft$1$[ebp]
  00124	57		 push	 edi
  00125	e8 00 00 00 00	 call	 ?CalculateDistanceSq3d@CInstanceBase@@QAEMABUD3DXVECTOR3@@@Z ; CInstanceBase::CalculateDistanceSq3d
  0012a	8b 4d ec	 mov	 ecx, DWORD PTR _pkInstRight$1$[ebp]
  0012d	57		 push	 edi
  0012e	f3 0f 11 45 e8	 movss	 DWORD PTR tv658[ebp], xmm0
  00133	e8 00 00 00 00	 call	 ?CalculateDistanceSq3d@CInstanceBase@@QAEMABUD3DXVECTOR3@@@Z ; CInstanceBase::CalculateDistanceSq3d
  00138	0f 2f 45 e8	 comiss	 xmm0, DWORD PTR tv658[ebp]
  0013c	77 0c		 ja	 SHORT $LN159@Partition_
; File C:\Program Files\Microsoft Visual Studio\2022\Community\VC\Tools\MSVC\14.44.35207\include\algorithm

; 8306 :            && !_Pred(*_Pfirst, *_STD _Prev_iter(_Pfirst))) {

  0013e	8b 5d f4	 mov	 ebx, DWORD PTR tv683[ebp]
  00141	39 5d f0	 cmp	 DWORD PTR __First$1$[ebp], ebx
  00144	0f 82 6a ff ff
	ff		 jb	 $LL2@Partition_
$LN159@Partition_:
  0014a	8b 7d fc	 mov	 edi, DWORD PTR __Plast$1$[ebp]
$LN145@Partition_:

; 8307 :         --_Pfirst;
; 8308 :     }
; 8309 : 
; 8310 :     while (_Plast < _Last && !_DEBUG_LT_PRED(_Pred, *_Plast, *_Pfirst) && !_Pred(*_Pfirst, *_Plast)) {

  0014d	8b 45 08	 mov	 eax, DWORD PTR __Last$[ebp]
  00150	3b f8		 cmp	 edi, eax
  00152	0f 83 a0 00 00
	00		 jae	 $LN160@Partition_
$LL4@Partition_:
; File C:\Program Files\Microsoft Visual Studio\2022\Community\VC\Tools\MSVC\14.44.35207\include\xutility

; 763  :             return _Fn(_STD forward<_Args>(_Vals)...);

  00158	8b 03		 mov	 eax, DWORD PTR [ebx]
  0015a	89 45 ec	 mov	 DWORD PTR _pkInstRight$1$[ebp], eax
  0015d	8b 07		 mov	 eax, DWORD PTR [edi]
; File C:\Anka2Project\Anka2Project\Source\Binary\source\UserInterface\PythonCharacterManager.cpp

; 616  : 		int nLeftDeadPoint=pkInstLeft->IsDead();

  0015f	8b c8		 mov	 ecx, eax
; File C:\Program Files\Microsoft Visual Studio\2022\Community\VC\Tools\MSVC\14.44.35207\include\xutility

; 763  :             return _Fn(_STD forward<_Args>(_Vals)...);

  00161	89 45 e8	 mov	 DWORD PTR _pkInstLeft$1$[ebp], eax
; File C:\Anka2Project\Anka2Project\Source\Binary\source\UserInterface\PythonCharacterManager.cpp

; 616  : 		int nLeftDeadPoint=pkInstLeft->IsDead();

  00164	e8 00 00 00 00	 call	 ?IsDead@CInstanceBase@@QAEHXZ ; CInstanceBase::IsDead

; 617  : 		int nRightDeadPoint=pkInstRight->IsDead();

  00169	8b 4d ec	 mov	 ecx, DWORD PTR _pkInstRight$1$[ebp]
  0016c	8b f8		 mov	 edi, eax
  0016e	e8 00 00 00 00	 call	 ?IsDead@CInstanceBase@@QAEHXZ ; CInstanceBase::IsDead

; 619  : 		if (nLeftDeadPoint<nRightDeadPoint)

  00173	3b f8		 cmp	 edi, eax
  00175	7c 7b		 jl	 SHORT $LN168@Partition_

; 622  : 		if (pkInstLeft->CalculateDistanceSq3d(m_kPPosEye)<pkInstRight->CalculateDistanceSq3d(m_kPPosEye))

  00177	8b 4d e8	 mov	 ecx, DWORD PTR _pkInstLeft$1$[ebp]
  0017a	56		 push	 esi
  0017b	e8 00 00 00 00	 call	 ?CalculateDistanceSq3d@CInstanceBase@@QAEMABUD3DXVECTOR3@@@Z ; CInstanceBase::CalculateDistanceSq3d
  00180	8b 4d ec	 mov	 ecx, DWORD PTR _pkInstRight$1$[ebp]
  00183	56		 push	 esi
  00184	f3 0f 11 45 e8	 movss	 DWORD PTR tv660[ebp], xmm0
  00189	e8 00 00 00 00	 call	 ?CalculateDistanceSq3d@CInstanceBase@@QAEMABUD3DXVECTOR3@@@Z ; CInstanceBase::CalculateDistanceSq3d
  0018e	0f 2f 45 e8	 comiss	 xmm0, DWORD PTR tv660[ebp]
  00192	77 5e		 ja	 SHORT $LN168@Partition_
; File C:\Program Files\Microsoft Visual Studio\2022\Community\VC\Tools\MSVC\14.44.35207\include\xutility

; 763  :             return _Fn(_STD forward<_Args>(_Vals)...);

  00194	8b 45 0c	 mov	 eax, DWORD PTR __Pred$[ebp]
  00197	89 45 e8	 mov	 DWORD PTR $T34[ebp], eax
  0019a	8b 45 fc	 mov	 eax, DWORD PTR __Plast$1$[ebp]
  0019d	8b 00		 mov	 eax, DWORD PTR [eax]
  0019f	89 45 ec	 mov	 DWORD PTR _pkInstRight$1$[ebp], eax
  001a2	8b 03		 mov	 eax, DWORD PTR [ebx]
; File C:\Anka2Project\Anka2Project\Source\Binary\source\UserInterface\PythonCharacterManager.cpp

; 616  : 		int nLeftDeadPoint=pkInstLeft->IsDead();

  001a4	8b c8		 mov	 ecx, eax
; File C:\Program Files\Microsoft Visual Studio\2022\Community\VC\Tools\MSVC\14.44.35207\include\xutility

; 763  :             return _Fn(_STD forward<_Args>(_Vals)...);

  001a6	89 45 f4	 mov	 DWORD PTR _pkInstLeft$1$[ebp], eax
; File C:\Anka2Project\Anka2Project\Source\Binary\source\UserInterface\PythonCharacterManager.cpp

; 616  : 		int nLeftDeadPoint=pkInstLeft->IsDead();

  001a9	e8 00 00 00 00	 call	 ?IsDead@CInstanceBase@@QAEHXZ ; CInstanceBase::IsDead

; 617  : 		int nRightDeadPoint=pkInstRight->IsDead();

  001ae	8b 4d ec	 mov	 ecx, DWORD PTR _pkInstRight$1$[ebp]
  001b1	8b f8		 mov	 edi, eax
  001b3	e8 00 00 00 00	 call	 ?IsDead@CInstanceBase@@QAEHXZ ; CInstanceBase::IsDead

; 619  : 		if (nLeftDeadPoint<nRightDeadPoint)

  001b8	3b f8		 cmp	 edi, eax
  001ba	7c 36		 jl	 SHORT $LN168@Partition_

; 622  : 		if (pkInstLeft->CalculateDistanceSq3d(m_kPPosEye)<pkInstRight->CalculateDistanceSq3d(m_kPPosEye))

  001bc	8b 7d e8	 mov	 edi, DWORD PTR $T34[ebp]
  001bf	8b 4d f4	 mov	 ecx, DWORD PTR _pkInstLeft$1$[ebp]
  001c2	57		 push	 edi
  001c3	e8 00 00 00 00	 call	 ?CalculateDistanceSq3d@CInstanceBase@@QAEMABUD3DXVECTOR3@@@Z ; CInstanceBase::CalculateDistanceSq3d
  001c8	8b 4d ec	 mov	 ecx, DWORD PTR _pkInstRight$1$[ebp]
  001cb	57		 push	 edi
  001cc	f3 0f 11 45 e8	 movss	 DWORD PTR tv662[ebp], xmm0
  001d1	e8 00 00 00 00	 call	 ?CalculateDistanceSq3d@CInstanceBase@@QAEMABUD3DXVECTOR3@@@Z ; CInstanceBase::CalculateDistanceSq3d
  001d6	0f 2f 45 e8	 comiss	 xmm0, DWORD PTR tv662[ebp]
  001da	8b 7d fc	 mov	 edi, DWORD PTR __Plast$1$[ebp]
  001dd	8b 45 08	 mov	 eax, DWORD PTR __Last$[ebp]
  001e0	77 16		 ja	 SHORT $LN160@Partition_
; File C:\Program Files\Microsoft Visual Studio\2022\Community\VC\Tools\MSVC\14.44.35207\include\algorithm

; 8311 :         ++_Plast;

  001e2	83 c7 04	 add	 edi, 4
  001e5	89 7d fc	 mov	 DWORD PTR __Plast$1$[ebp], edi
  001e8	3b f8		 cmp	 edi, eax
  001ea	0f 82 68 ff ff
	ff		 jb	 $LL4@Partition_
; File C:\Anka2Project\Anka2Project\Source\Binary\source\UserInterface\PythonCharacterManager.cpp

; 619  : 		if (nLeftDeadPoint<nRightDeadPoint)

  001f0	eb 06		 jmp	 SHORT $LN160@Partition_
$LN168@Partition_:
; File C:\Program Files\Microsoft Visual Studio\2022\Community\VC\Tools\MSVC\14.44.35207\include\algorithm

; 8314 :     _RanIt _Gfirst = _Plast;

  001f2	8b 7d fc	 mov	 edi, DWORD PTR __Plast$1$[ebp]
  001f5	8b 45 08	 mov	 eax, DWORD PTR __Last$[ebp]
$LN160@Partition_:
  001f8	8b d7		 mov	 edx, edi

; 8315 :     _RanIt _Glast  = _Pfirst;

  001fa	8b fb		 mov	 edi, ebx
$LN206@Partition_:

; 8318 :         for (; _Gfirst < _Last; ++_Gfirst) {

  001fc	89 7d f8	 mov	 DWORD PTR __Glast$1$[ebp], edi
$LN205@Partition_:
  001ff	89 55 f4	 mov	 DWORD PTR __Gfirst$1$[ebp], edx
$LL8@Partition_:
  00202	3b d0		 cmp	 edx, eax
  00204	0f 83 c3 00 00
	00		 jae	 $LN151@Partition_
  0020a	66 0f 1f 44 00
	00		 npad	 6
$LL11@Partition_:
; File C:\Program Files\Microsoft Visual Studio\2022\Community\VC\Tools\MSVC\14.44.35207\include\xutility

; 763  :             return _Fn(_STD forward<_Args>(_Vals)...);

  00210	8b 02		 mov	 eax, DWORD PTR [edx]
  00212	89 45 ec	 mov	 DWORD PTR _pkInstRight$1$[ebp], eax
  00215	8b 03		 mov	 eax, DWORD PTR [ebx]
; File C:\Anka2Project\Anka2Project\Source\Binary\source\UserInterface\PythonCharacterManager.cpp

; 616  : 		int nLeftDeadPoint=pkInstLeft->IsDead();

  00217	8b c8		 mov	 ecx, eax
; File C:\Program Files\Microsoft Visual Studio\2022\Community\VC\Tools\MSVC\14.44.35207\include\xutility

; 763  :             return _Fn(_STD forward<_Args>(_Vals)...);

  00219	89 45 e8	 mov	 DWORD PTR _pkInstLeft$1$[ebp], eax
; File C:\Anka2Project\Anka2Project\Source\Binary\source\UserInterface\PythonCharacterManager.cpp

; 616  : 		int nLeftDeadPoint=pkInstLeft->IsDead();

  0021c	e8 00 00 00 00	 call	 ?IsDead@CInstanceBase@@QAEHXZ ; CInstanceBase::IsDead

; 617  : 		int nRightDeadPoint=pkInstRight->IsDead();

  00221	8b 4d ec	 mov	 ecx, DWORD PTR _pkInstRight$1$[ebp]
  00224	8b f8		 mov	 edi, eax
  00226	e8 00 00 00 00	 call	 ?IsDead@CInstanceBase@@QAEHXZ ; CInstanceBase::IsDead

; 619  : 		if (nLeftDeadPoint<nRightDeadPoint)

  0022b	3b f8		 cmp	 edi, eax
  0022d	0f 8c 85 00 00
	00		 jl	 $LN164@Partition_

; 622  : 		if (pkInstLeft->CalculateDistanceSq3d(m_kPPosEye)<pkInstRight->CalculateDistanceSq3d(m_kPPosEye))

  00233	8b 4d e8	 mov	 ecx, DWORD PTR _pkInstLeft$1$[ebp]
  00236	56		 push	 esi
  00237	e8 00 00 00 00	 call	 ?CalculateDistanceSq3d@CInstanceBase@@QAEMABUD3DXVECTOR3@@@Z ; CInstanceBase::CalculateDistanceSq3d
  0023c	8b 4d ec	 mov	 ecx, DWORD PTR _pkInstRight$1$[ebp]
  0023f	56		 push	 esi
  00240	f3 0f 11 45 e8	 movss	 DWORD PTR tv664[ebp], xmm0
  00245	e8 00 00 00 00	 call	 ?CalculateDistanceSq3d@CInstanceBase@@QAEMABUD3DXVECTOR3@@@Z ; CInstanceBase::CalculateDistanceSq3d
  0024a	0f 2f 45 e8	 comiss	 xmm0, DWORD PTR tv664[ebp]
  0024e	77 68		 ja	 SHORT $LN164@Partition_
; File C:\Program Files\Microsoft Visual Studio\2022\Community\VC\Tools\MSVC\14.44.35207\include\xutility

; 763  :             return _Fn(_STD forward<_Args>(_Vals)...);

  00250	8b 45 0c	 mov	 eax, DWORD PTR __Pred$[ebp]
  00253	89 45 e8	 mov	 DWORD PTR $T32[ebp], eax
  00256	8b 03		 mov	 eax, DWORD PTR [ebx]
  00258	89 45 ec	 mov	 DWORD PTR _pkInstRight$1$[ebp], eax
  0025b	8b 45 f4	 mov	 eax, DWORD PTR __Gfirst$1$[ebp]
  0025e	8b 00		 mov	 eax, DWORD PTR [eax]
; File C:\Anka2Project\Anka2Project\Source\Binary\source\UserInterface\PythonCharacterManager.cpp

; 616  : 		int nLeftDeadPoint=pkInstLeft->IsDead();

  00260	8b c8		 mov	 ecx, eax
; File C:\Program Files\Microsoft Visual Studio\2022\Community\VC\Tools\MSVC\14.44.35207\include\xutility

; 763  :             return _Fn(_STD forward<_Args>(_Vals)...);

  00262	89 45 e4	 mov	 DWORD PTR _pkInstLeft$1$[ebp], eax
; File C:\Anka2Project\Anka2Project\Source\Binary\source\UserInterface\PythonCharacterManager.cpp

; 616  : 		int nLeftDeadPoint=pkInstLeft->IsDead();

  00265	e8 00 00 00 00	 call	 ?IsDead@CInstanceBase@@QAEHXZ ; CInstanceBase::IsDead

; 617  : 		int nRightDeadPoint=pkInstRight->IsDead();

  0026a	8b 4d ec	 mov	 ecx, DWORD PTR _pkInstRight$1$[ebp]
  0026d	8b f8		 mov	 edi, eax
  0026f	e8 00 00 00 00	 call	 ?IsDead@CInstanceBase@@QAEHXZ ; CInstanceBase::IsDead

; 619  : 		if (nLeftDeadPoint<nRightDeadPoint)

  00274	3b f8		 cmp	 edi, eax
  00276	7c 52		 jl	 SHORT $LN161@Partition_

; 622  : 		if (pkInstLeft->CalculateDistanceSq3d(m_kPPosEye)<pkInstRight->CalculateDistanceSq3d(m_kPPosEye))

  00278	8b 7d e8	 mov	 edi, DWORD PTR $T32[ebp]
  0027b	8b 4d e4	 mov	 ecx, DWORD PTR _pkInstLeft$1$[ebp]
  0027e	57		 push	 edi
  0027f	e8 00 00 00 00	 call	 ?CalculateDistanceSq3d@CInstanceBase@@QAEMABUD3DXVECTOR3@@@Z ; CInstanceBase::CalculateDistanceSq3d
  00284	8b 4d ec	 mov	 ecx, DWORD PTR _pkInstRight$1$[ebp]
  00287	57		 push	 edi
  00288	f3 0f 11 45 e4	 movss	 DWORD PTR tv667[ebp], xmm0
  0028d	e8 00 00 00 00	 call	 ?CalculateDistanceSq3d@CInstanceBase@@QAEMABUD3DXVECTOR3@@@Z ; CInstanceBase::CalculateDistanceSq3d
  00292	0f 2f 45 e4	 comiss	 xmm0, DWORD PTR tv667[ebp]
  00296	77 32		 ja	 SHORT $LN161@Partition_
; File C:\Program Files\Microsoft Visual Studio\2022\Community\VC\Tools\MSVC\14.44.35207\include\algorithm

; 8323 :             } else if (_Plast != _Gfirst) {

  00298	8b 7d fc	 mov	 edi, DWORD PTR __Plast$1$[ebp]
  0029b	8b 55 f4	 mov	 edx, DWORD PTR __Gfirst$1$[ebp]
  0029e	8d 47 04	 lea	 eax, DWORD PTR [edi+4]
  002a1	89 45 e4	 mov	 DWORD PTR tv693[ebp], eax
  002a4	3b fa		 cmp	 edi, edx
  002a6	74 0b		 je	 SHORT $LN19@Partition_
; File C:\Program Files\Microsoft Visual Studio\2022\Community\VC\Tools\MSVC\14.44.35207\include\utility

; 140  :     _Left    = _STD move(_Right);

  002a8	8b 02		 mov	 eax, DWORD PTR [edx]
  002aa	8b 0f		 mov	 ecx, DWORD PTR [edi]
  002ac	89 07		 mov	 DWORD PTR [edi], eax
; File C:\Program Files\Microsoft Visual Studio\2022\Community\VC\Tools\MSVC\14.44.35207\include\algorithm

; 8325 :                 ++_Plast;

  002ae	8b 45 e4	 mov	 eax, DWORD PTR tv693[ebp]
; File C:\Program Files\Microsoft Visual Studio\2022\Community\VC\Tools\MSVC\14.44.35207\include\utility

; 141  :     _Right   = _STD move(_Tmp);

  002b1	89 0a		 mov	 DWORD PTR [edx], ecx
$LN19@Partition_:
; File C:\Program Files\Microsoft Visual Studio\2022\Community\VC\Tools\MSVC\14.44.35207\include\algorithm

; 8318 :         for (; _Gfirst < _Last; ++_Gfirst) {

  002b3	89 45 fc	 mov	 DWORD PTR __Plast$1$[ebp], eax
  002b6	eb 03		 jmp	 SHORT $LN9@Partition_
$LN164@Partition_:
  002b8	8b 55 f4	 mov	 edx, DWORD PTR __Gfirst$1$[ebp]
$LN9@Partition_:
  002bb	83 c2 04	 add	 edx, 4
  002be	89 55 f4	 mov	 DWORD PTR __Gfirst$1$[ebp], edx
  002c1	3b 55 08	 cmp	 edx, DWORD PTR __Last$[ebp]
  002c4	0f 82 46 ff ff
	ff		 jb	 $LL11@Partition_
$LN161@Partition_:
  002ca	8b 7d f8	 mov	 edi, DWORD PTR __Glast$1$[ebp]
$LN151@Partition_:

; 8331 :         for (; _First < _Glast; --_Glast) {

  002cd	8b 45 f0	 mov	 eax, DWORD PTR __First$1$[ebp]
  002d0	3b f8		 cmp	 edi, eax
  002d2	0f 86 c7 00 00
	00		 jbe	 $LN204@Partition_
  002d8	8d 57 fc	 lea	 edx, DWORD PTR [edi-4]
  002db	89 55 ec	 mov	 DWORD PTR tv688[ebp], edx
  002de	66 90		 npad	 2
$LL14@Partition_:
; File C:\Program Files\Microsoft Visual Studio\2022\Community\VC\Tools\MSVC\14.44.35207\include\xutility

; 763  :             return _Fn(_STD forward<_Args>(_Vals)...);

  002e0	8b 03		 mov	 eax, DWORD PTR [ebx]
  002e2	89 45 e8	 mov	 DWORD PTR _pkInstRight$1$[ebp], eax
  002e5	8b 02		 mov	 eax, DWORD PTR [edx]
; File C:\Anka2Project\Anka2Project\Source\Binary\source\UserInterface\PythonCharacterManager.cpp

; 616  : 		int nLeftDeadPoint=pkInstLeft->IsDead();

  002e7	8b c8		 mov	 ecx, eax
; File C:\Program Files\Microsoft Visual Studio\2022\Community\VC\Tools\MSVC\14.44.35207\include\xutility

; 763  :             return _Fn(_STD forward<_Args>(_Vals)...);

  002e9	89 45 e4	 mov	 DWORD PTR _pkInstLeft$1$[ebp], eax
; File C:\Anka2Project\Anka2Project\Source\Binary\source\UserInterface\PythonCharacterManager.cpp

; 616  : 		int nLeftDeadPoint=pkInstLeft->IsDead();

  002ec	e8 00 00 00 00	 call	 ?IsDead@CInstanceBase@@QAEHXZ ; CInstanceBase::IsDead

; 617  : 		int nRightDeadPoint=pkInstRight->IsDead();

  002f1	8b 4d e8	 mov	 ecx, DWORD PTR _pkInstRight$1$[ebp]
  002f4	8b f8		 mov	 edi, eax
  002f6	e8 00 00 00 00	 call	 ?IsDead@CInstanceBase@@QAEHXZ ; CInstanceBase::IsDead

; 619  : 		if (nLeftDeadPoint<nRightDeadPoint)

  002fb	3b f8		 cmp	 edi, eax
  002fd	7c 79		 jl	 SHORT $LN170@Partition_

; 622  : 		if (pkInstLeft->CalculateDistanceSq3d(m_kPPosEye)<pkInstRight->CalculateDistanceSq3d(m_kPPosEye))

  002ff	8b 4d e4	 mov	 ecx, DWORD PTR _pkInstLeft$1$[ebp]
  00302	56		 push	 esi
  00303	e8 00 00 00 00	 call	 ?CalculateDistanceSq3d@CInstanceBase@@QAEMABUD3DXVECTOR3@@@Z ; CInstanceBase::CalculateDistanceSq3d
  00308	8b 4d e8	 mov	 ecx, DWORD PTR _pkInstRight$1$[ebp]
  0030b	56		 push	 esi
  0030c	f3 0f 11 45 e4	 movss	 DWORD PTR tv671[ebp], xmm0
  00311	e8 00 00 00 00	 call	 ?CalculateDistanceSq3d@CInstanceBase@@QAEMABUD3DXVECTOR3@@@Z ; CInstanceBase::CalculateDistanceSq3d
  00316	0f 2f 45 e4	 comiss	 xmm0, DWORD PTR tv671[ebp]
  0031a	77 5c		 ja	 SHORT $LN170@Partition_
; File C:\Program Files\Microsoft Visual Studio\2022\Community\VC\Tools\MSVC\14.44.35207\include\xutility

; 763  :             return _Fn(_STD forward<_Args>(_Vals)...);

  0031c	8b 45 0c	 mov	 eax, DWORD PTR __Pred$[ebp]
  0031f	89 45 e4	 mov	 DWORD PTR $T31[ebp], eax
  00322	8b 45 ec	 mov	 eax, DWORD PTR tv688[ebp]
  00325	8b 00		 mov	 eax, DWORD PTR [eax]
  00327	89 45 e8	 mov	 DWORD PTR _pkInstRight$1$[ebp], eax
  0032a	8b 03		 mov	 eax, DWORD PTR [ebx]
; File C:\Anka2Project\Anka2Project\Source\Binary\source\UserInterface\PythonCharacterManager.cpp

; 616  : 		int nLeftDeadPoint=pkInstLeft->IsDead();

  0032c	8b c8		 mov	 ecx, eax
; File C:\Program Files\Microsoft Visual Studio\2022\Community\VC\Tools\MSVC\14.44.35207\include\xutility

; 763  :             return _Fn(_STD forward<_Args>(_Vals)...);

  0032e	89 45 e0	 mov	 DWORD PTR _pkInstLeft$1$[ebp], eax
; File C:\Anka2Project\Anka2Project\Source\Binary\source\UserInterface\PythonCharacterManager.cpp

; 616  : 		int nLeftDeadPoint=pkInstLeft->IsDead();

  00331	e8 00 00 00 00	 call	 ?IsDead@CInstanceBase@@QAEHXZ ; CInstanceBase::IsDead

; 617  : 		int nRightDeadPoint=pkInstRight->IsDead();

  00336	8b 4d e8	 mov	 ecx, DWORD PTR _pkInstRight$1$[ebp]
  00339	8b f8		 mov	 edi, eax
  0033b	e8 00 00 00 00	 call	 ?IsDead@CInstanceBase@@QAEHXZ ; CInstanceBase::IsDead

; 619  : 		if (nLeftDeadPoint<nRightDeadPoint)

  00340	3b f8		 cmp	 edi, eax
  00342	7c 53		 jl	 SHORT $LN172@Partition_

; 622  : 		if (pkInstLeft->CalculateDistanceSq3d(m_kPPosEye)<pkInstRight->CalculateDistanceSq3d(m_kPPosEye))

  00344	8b 7d e4	 mov	 edi, DWORD PTR $T31[ebp]
  00347	8b 4d e0	 mov	 ecx, DWORD PTR _pkInstLeft$1$[ebp]
  0034a	57		 push	 edi
  0034b	e8 00 00 00 00	 call	 ?CalculateDistanceSq3d@CInstanceBase@@QAEMABUD3DXVECTOR3@@@Z ; CInstanceBase::CalculateDistanceSq3d
  00350	8b 4d e8	 mov	 ecx, DWORD PTR _pkInstRight$1$[ebp]
  00353	57		 push	 edi
  00354	f3 0f 11 45 e0	 movss	 DWORD PTR tv674[ebp], xmm0
  00359	e8 00 00 00 00	 call	 ?CalculateDistanceSq3d@CInstanceBase@@QAEMABUD3DXVECTOR3@@@Z ; CInstanceBase::CalculateDistanceSq3d
  0035e	0f 2f 45 e0	 comiss	 xmm0, DWORD PTR tv674[ebp]
  00362	77 33		 ja	 SHORT $LN172@Partition_
; File C:\Program Files\Microsoft Visual Studio\2022\Community\VC\Tools\MSVC\14.44.35207\include\algorithm

; 8337 :             } else if (--_Pfirst != _Glast_prev) {

  00364	8b 55 ec	 mov	 edx, DWORD PTR tv688[ebp]
  00367	83 eb 04	 sub	 ebx, 4
  0036a	3b da		 cmp	 ebx, edx
  0036c	74 0d		 je	 SHORT $LN12@Partition_
; File C:\Program Files\Microsoft Visual Studio\2022\Community\VC\Tools\MSVC\14.44.35207\include\utility

; 139  :     _Ty _Tmp = _STD move(_Left);

  0036e	8b 0b		 mov	 ecx, DWORD PTR [ebx]

; 140  :     _Left    = _STD move(_Right);

  00370	8b 02		 mov	 eax, DWORD PTR [edx]
  00372	89 03		 mov	 DWORD PTR [ebx], eax

; 141  :     _Right   = _STD move(_Tmp);

  00374	89 0a		 mov	 DWORD PTR [edx], ecx
; File C:\Anka2Project\Anka2Project\Source\Binary\source\UserInterface\PythonCharacterManager.cpp

; 622  : 		if (pkInstLeft->CalculateDistanceSq3d(m_kPPosEye)<pkInstRight->CalculateDistanceSq3d(m_kPPosEye))

  00376	eb 03		 jmp	 SHORT $LN12@Partition_
$LN170@Partition_:
; File C:\Program Files\Microsoft Visual Studio\2022\Community\VC\Tools\MSVC\14.44.35207\include\algorithm

; 8331 :         for (; _First < _Glast; --_Glast) {

  00378	8b 55 ec	 mov	 edx, DWORD PTR tv688[ebp]
$LN12@Partition_:
  0037b	8b 7d f8	 mov	 edi, DWORD PTR __Glast$1$[ebp]
  0037e	83 ea 04	 sub	 edx, 4
  00381	8b 45 f0	 mov	 eax, DWORD PTR __First$1$[ebp]
  00384	83 ef 04	 sub	 edi, 4
  00387	89 7d f8	 mov	 DWORD PTR __Glast$1$[ebp], edi
  0038a	89 55 ec	 mov	 DWORD PTR tv688[ebp], edx
  0038d	3b c7		 cmp	 eax, edi
  0038f	0f 82 4b ff ff
	ff		 jb	 $LL14@Partition_
; File C:\Anka2Project\Anka2Project\Source\Binary\source\UserInterface\PythonCharacterManager.cpp

; 622  : 		if (pkInstLeft->CalculateDistanceSq3d(m_kPPosEye)<pkInstRight->CalculateDistanceSq3d(m_kPPosEye))

  00395	eb 06		 jmp	 SHORT $LN162@Partition_
$LN172@Partition_:
; File C:\Program Files\Microsoft Visual Studio\2022\Community\VC\Tools\MSVC\14.44.35207\include\algorithm

; 8342 :         if (_Glast == _First && _Gfirst == _Last) {

  00397	8b 45 f0	 mov	 eax, DWORD PTR __First$1$[ebp]
  0039a	8b 7d f8	 mov	 edi, DWORD PTR __Glast$1$[ebp]
$LN162@Partition_:
  0039d	3b f8		 cmp	 edi, eax
$LN204@Partition_:
  0039f	8b 55 f4	 mov	 edx, DWORD PTR __Gfirst$1$[ebp]
  003a2	75 33		 jne	 SHORT $LN27@Partition_
  003a4	3b 55 08	 cmp	 edx, DWORD PTR __Last$[ebp]
  003a7	74 77		 je	 SHORT $LN118@Partition_

; 8344 :         }
; 8345 : 
; 8346 :         if (_Glast == _First) { // no room at bottom, rotate pivot upward
; 8347 :             if (_Plast != _Gfirst) {

  003a9	8b 7d fc	 mov	 edi, DWORD PTR __Plast$1$[ebp]
  003ac	3b fa		 cmp	 edi, edx
  003ae	74 08		 je	 SHORT $LN53@Partition_
; File C:\Program Files\Microsoft Visual Studio\2022\Community\VC\Tools\MSVC\14.44.35207\include\utility

; 139  :     _Ty _Tmp = _STD move(_Left);

  003b0	8b 0b		 mov	 ecx, DWORD PTR [ebx]

; 140  :     _Left    = _STD move(_Right);

  003b2	8b 07		 mov	 eax, DWORD PTR [edi]
  003b4	89 03		 mov	 DWORD PTR [ebx], eax

; 141  :     _Right   = _STD move(_Tmp);

  003b6	89 0f		 mov	 DWORD PTR [edi], ecx
$LN53@Partition_:

; 140  :     _Left    = _STD move(_Right);

  003b8	8b 02		 mov	 eax, DWORD PTR [edx]
; File C:\Program Files\Microsoft Visual Studio\2022\Community\VC\Tools\MSVC\14.44.35207\include\algorithm

; 8351 :             ++_Plast;

  003ba	83 c7 04	 add	 edi, 4
; File C:\Program Files\Microsoft Visual Studio\2022\Community\VC\Tools\MSVC\14.44.35207\include\utility

; 139  :     _Ty _Tmp = _STD move(_Left);

  003bd	8b 0b		 mov	 ecx, DWORD PTR [ebx]

; 140  :     _Left    = _STD move(_Right);

  003bf	89 03		 mov	 DWORD PTR [ebx], eax
; File C:\Program Files\Microsoft Visual Studio\2022\Community\VC\Tools\MSVC\14.44.35207\include\algorithm

; 8353 :             ++_Pfirst;

  003c1	83 c3 04	 add	 ebx, 4

; 8354 :             ++_Gfirst;

  003c4	8b 45 08	 mov	 eax, DWORD PTR __Last$[ebp]
  003c7	89 7d fc	 mov	 DWORD PTR __Plast$1$[ebp], edi
  003ca	8b 7d f8	 mov	 edi, DWORD PTR __Glast$1$[ebp]
; File C:\Program Files\Microsoft Visual Studio\2022\Community\VC\Tools\MSVC\14.44.35207\include\utility

; 141  :     _Right   = _STD move(_Tmp);

  003cd	89 0a		 mov	 DWORD PTR [edx], ecx
; File C:\Program Files\Microsoft Visual Studio\2022\Community\VC\Tools\MSVC\14.44.35207\include\algorithm

; 8354 :             ++_Gfirst;

  003cf	83 c2 04	 add	 edx, 4
  003d2	e9 28 fe ff ff	 jmp	 $LN205@Partition_
$LN27@Partition_:

; 8355 :         } else if (_Gfirst == _Last) { // no room at top, rotate pivot downward

  003d7	83 c7 fc	 add	 edi, -4			; fffffffcH
  003da	89 7d f8	 mov	 DWORD PTR __Glast$1$[ebp], edi
  003dd	3b 55 08	 cmp	 edx, DWORD PTR __Last$[ebp]
  003e0	75 2b		 jne	 SHORT $LN30@Partition_

; 8356 :             if (--_Glast != --_Pfirst) {

  003e2	83 eb 04	 sub	 ebx, 4
  003e5	3b fb		 cmp	 edi, ebx
  003e7	74 08		 je	 SHORT $LN155@Partition_
; File C:\Program Files\Microsoft Visual Studio\2022\Community\VC\Tools\MSVC\14.44.35207\include\utility

; 139  :     _Ty _Tmp = _STD move(_Left);

  003e9	8b 0f		 mov	 ecx, DWORD PTR [edi]

; 140  :     _Left    = _STD move(_Right);

  003eb	8b 03		 mov	 eax, DWORD PTR [ebx]
  003ed	89 07		 mov	 DWORD PTR [edi], eax

; 141  :     _Right   = _STD move(_Tmp);

  003ef	89 0b		 mov	 DWORD PTR [ebx], ecx
$LN155@Partition_:
; File C:\Program Files\Microsoft Visual Studio\2022\Community\VC\Tools\MSVC\14.44.35207\include\algorithm

; 8360 :             swap(*_Pfirst, *--_Plast); // intentional ADL

  003f1	8b 7d fc	 mov	 edi, DWORD PTR __Plast$1$[ebp]
; File C:\Program Files\Microsoft Visual Studio\2022\Community\VC\Tools\MSVC\14.44.35207\include\utility

; 139  :     _Ty _Tmp = _STD move(_Left);

  003f4	8b 0b		 mov	 ecx, DWORD PTR [ebx]
; File C:\Program Files\Microsoft Visual Studio\2022\Community\VC\Tools\MSVC\14.44.35207\include\algorithm

; 8360 :             swap(*_Pfirst, *--_Plast); // intentional ADL

  003f6	83 ef 04	 sub	 edi, 4
  003f9	89 7d fc	 mov	 DWORD PTR __Plast$1$[ebp], edi
; File C:\Program Files\Microsoft Visual Studio\2022\Community\VC\Tools\MSVC\14.44.35207\include\utility

; 140  :     _Left    = _STD move(_Right);

  003fc	8b 07		 mov	 eax, DWORD PTR [edi]
  003fe	89 03		 mov	 DWORD PTR [ebx], eax
; File C:\Program Files\Microsoft Visual Studio\2022\Community\VC\Tools\MSVC\14.44.35207\include\algorithm

; 8361 :         } else {

  00400	8b 45 08	 mov	 eax, DWORD PTR __Last$[ebp]
; File C:\Program Files\Microsoft Visual Studio\2022\Community\VC\Tools\MSVC\14.44.35207\include\utility

; 141  :     _Right   = _STD move(_Tmp);

  00403	89 0f		 mov	 DWORD PTR [edi], ecx
; File C:\Program Files\Microsoft Visual Studio\2022\Community\VC\Tools\MSVC\14.44.35207\include\algorithm

; 8361 :         } else {

  00405	8b 7d f8	 mov	 edi, DWORD PTR __Glast$1$[ebp]
  00408	e9 f5 fd ff ff	 jmp	 $LL8@Partition_
$LN30@Partition_:
; File C:\Program Files\Microsoft Visual Studio\2022\Community\VC\Tools\MSVC\14.44.35207\include\utility

; 139  :     _Ty _Tmp = _STD move(_Left);

  0040d	8b 0a		 mov	 ecx, DWORD PTR [edx]

; 140  :     _Left    = _STD move(_Right);

  0040f	8b 07		 mov	 eax, DWORD PTR [edi]
  00411	89 02		 mov	 DWORD PTR [edx], eax
; File C:\Program Files\Microsoft Visual Studio\2022\Community\VC\Tools\MSVC\14.44.35207\include\algorithm

; 8363 :             ++_Gfirst;

  00413	83 c2 04	 add	 edx, 4
  00416	8b 45 08	 mov	 eax, DWORD PTR __Last$[ebp]
; File C:\Program Files\Microsoft Visual Studio\2022\Community\VC\Tools\MSVC\14.44.35207\include\utility

; 141  :     _Right   = _STD move(_Tmp);

  00419	89 0f		 mov	 DWORD PTR [edi], ecx
  0041b	e9 dc fd ff ff	 jmp	 $LN206@Partition_
$LN118@Partition_:

; 274  :         : first(_STD forward<_Other1>(_Val1)), second(_STD forward<_Other2>(_Val2)) {

  00420	8b 4d dc	 mov	 ecx, DWORD PTR ___$ReturnUdt$1$[ebp]
  00423	8b 45 fc	 mov	 eax, DWORD PTR __Plast$1$[ebp]
; File C:\Program Files\Microsoft Visual Studio\2022\Community\VC\Tools\MSVC\14.44.35207\include\algorithm

; 8343 :             return pair<_RanIt, _RanIt>(_Pfirst, _Plast);

  00426	5f		 pop	 edi
  00427	5e		 pop	 esi
; File C:\Program Files\Microsoft Visual Studio\2022\Community\VC\Tools\MSVC\14.44.35207\include\utility

; 274  :         : first(_STD forward<_Other1>(_Val1)), second(_STD forward<_Other2>(_Val2)) {

  00428	89 19		 mov	 DWORD PTR [ecx], ebx
  0042a	89 41 04	 mov	 DWORD PTR [ecx+4], eax
; File C:\Program Files\Microsoft Visual Studio\2022\Community\VC\Tools\MSVC\14.44.35207\include\algorithm

; 8343 :             return pair<_RanIt, _RanIt>(_Pfirst, _Plast);

  0042d	8b c1		 mov	 eax, ecx
  0042f	5b		 pop	 ebx

; 8364 :         }
; 8365 :     }
; 8366 : }

  00430	8b e5		 mov	 esp, ebp
  00432	5d		 pop	 ebp
  00433	c3		 ret	 0
??$_Partition_by_median_guess_unchecked@PAPAVCInstanceBase@@U?$_Ref_fn@UCInstanceBase_SLessCameraDistance@@@std@@@std@@YA?AU?$pair@PAPAVCInstanceBase@@PAPAV1@@0@PAPAVCInstanceBase@@0U?$_Ref_fn@UCInstanceBase_SLessCameraDistance@@@0@@Z ENDP ; std::_Partition_by_median_guess_unchecked<CInstanceBase * *,std::_Ref_fn<CInstanceBase_SLessCameraDistance> >
_TEXT	ENDS
; Function compile flags: /Ogtp
; File C:\Program Files\Microsoft Visual Studio\2022\Community\VC\Tools\MSVC\14.44.35207\include\vector
;	COMDAT ??$_Emplace_back_with_unused_capacity@AAPAVCInstanceBase@@@?$vector@PAVCInstanceBase@@V?$allocator@PAVCInstanceBase@@@std@@@std@@AAEAAPAVCInstanceBase@@AAPAV2@@Z
_TEXT	SEGMENT
_<_Val_0>$ = 8						; size = 4
??$_Emplace_back_with_unused_capacity@AAPAVCInstanceBase@@@?$vector@PAVCInstanceBase@@V?$allocator@PAVCInstanceBase@@@std@@@std@@AAEAAPAVCInstanceBase@@AAPAV2@@Z PROC ; std::vector<CInstanceBase *,std::allocator<CInstanceBase *> >::_Emplace_back_with_unused_capacity<CInstanceBase * &>, COMDAT
; _this$ = ecx

; 852  :     _CONSTEXPR20 _Ty& _Emplace_back_with_unused_capacity(_Valty&&... _Val) {

  00000	55		 push	 ebp
  00001	8b ec		 mov	 ebp, esp

; 853  :         // insert by perfectly forwarding into element at end, provide strong guarantee
; 854  :         auto& _My_data   = _Mypair._Myval2;
; 855  :         pointer& _Mylast = _My_data._Mylast;
; 856  :         _STL_INTERNAL_CHECK(_Mylast != _My_data._Myend); // check that we have unused capacity
; 857  :         if constexpr (conjunction_v<is_nothrow_constructible<_Ty, _Valty...>,
; 858  :                           _Uses_default_construct<_Alloc, _Ty*, _Valty...>>) {
; 859  :             _ASAN_VECTOR_MODIFY(1);
; 860  :             _STD _Construct_in_place(*_Mylast, _STD forward<_Valty>(_Val)...);

  00003	8b 51 04	 mov	 edx, DWORD PTR [ecx+4]
  00006	8b 45 08	 mov	 eax, DWORD PTR _<_Val_0>$[ebp]
  00009	8b 00		 mov	 eax, DWORD PTR [eax]
  0000b	89 02		 mov	 DWORD PTR [edx], eax

; 861  :         } else {
; 862  :             _ASAN_VECTOR_EXTEND_GUARD(static_cast<size_type>(_Mylast - _My_data._Myfirst) + 1);
; 863  :             _Alty_traits::construct(_Getal(), _Unfancy(_Mylast), _STD forward<_Valty>(_Val)...);
; 864  :             _ASAN_VECTOR_RELEASE_GUARD;
; 865  :         }
; 866  : 
; 867  :         _Orphan_range(_Mylast, _Mylast);
; 868  :         _Ty& _Result = *_Mylast;

  0000d	8b 41 04	 mov	 eax, DWORD PTR [ecx+4]

; 869  :         ++_Mylast;

  00010	8d 50 04	 lea	 edx, DWORD PTR [eax+4]
  00013	89 51 04	 mov	 DWORD PTR [ecx+4], edx

; 870  : 
; 871  :         return _Result;
; 872  :     }

  00016	5d		 pop	 ebp
  00017	c2 04 00	 ret	 4
??$_Emplace_back_with_unused_capacity@AAPAVCInstanceBase@@@?$vector@PAVCInstanceBase@@V?$allocator@PAVCInstanceBase@@@std@@@std@@AAEAAPAVCInstanceBase@@AAPAV2@@Z ENDP ; std::vector<CInstanceBase *,std::allocator<CInstanceBase *> >::_Emplace_back_with_unused_capacity<CInstanceBase * &>
_TEXT	ENDS
; Function compile flags: /Ogtp
; File C:\Program Files\Microsoft Visual Studio\2022\Community\VC\Tools\MSVC\14.44.35207\include\vector
; File C:\Program Files\Microsoft Visual Studio\2022\Community\VC\Tools\MSVC\14.44.35207\include\xmemory
; File C:\Program Files\Microsoft Visual Studio\2022\Community\VC\Tools\MSVC\14.44.35207\include\vector
; File C:\Program Files\Microsoft Visual Studio\2022\Community\VC\Tools\MSVC\14.44.35207\include\xmemory
; File C:\Program Files\Microsoft Visual Studio\2022\Community\VC\Tools\MSVC\14.44.35207\include\vector
; File C:\Program Files\Microsoft Visual Studio\2022\Community\VC\Tools\MSVC\14.44.35207\include\utility
; File C:\Program Files\Microsoft Visual Studio\2022\Community\VC\Tools\MSVC\14.44.35207\include\vector
; File C:\Program Files\Microsoft Visual Studio\2022\Community\VC\Tools\MSVC\14.44.35207\include\utility
; File C:\Program Files\Microsoft Visual Studio\2022\Community\VC\Tools\MSVC\14.44.35207\include\vector
; File C:\Program Files\Microsoft Visual Studio\2022\Community\VC\Tools\MSVC\14.44.35207\include\xmemory
; File C:\Program Files\Microsoft Visual Studio\2022\Community\VC\Tools\MSVC\14.44.35207\include\vector
; File C:\Program Files\Microsoft Visual Studio\2022\Community\VC\Tools\MSVC\14.44.35207\include\xmemory
; File C:\Program Files\Microsoft Visual Studio\2022\Community\VC\Tools\MSVC\14.44.35207\include\vector
; File C:\Program Files\Microsoft Visual Studio\2022\Community\VC\Tools\MSVC\14.44.35207\include\xmemory
; File C:\Program Files\Microsoft Visual Studio\2022\Community\VC\Tools\MSVC\14.44.35207\include\vector
; File C:\Program Files\Microsoft Visual Studio\2022\Community\VC\Tools\MSVC\14.44.35207\include\xmemory
; File C:\Program Files\Microsoft Visual Studio\2022\Community\VC\Tools\MSVC\14.44.35207\include\vector
; File C:\Program Files\Microsoft Visual Studio\2022\Community\VC\Tools\MSVC\14.44.35207\include\xmemory
; File C:\Program Files\Microsoft Visual Studio\2022\Community\VC\Tools\MSVC\14.44.35207\include\vector
; File C:\Program Files\Microsoft Visual Studio\2022\Community\VC\Tools\MSVC\14.44.35207\include\xmemory
; File C:\Program Files\Microsoft Visual Studio\2022\Community\VC\Tools\MSVC\14.44.35207\include\vector
; File C:\Program Files\Microsoft Visual Studio\2022\Community\VC\Tools\MSVC\14.44.35207\include\xmemory
; File C:\Program Files\Microsoft Visual Studio\2022\Community\VC\Tools\MSVC\14.44.35207\include\vector
;	COMDAT ??$_Emplace_reallocate@AAPAVCInstanceBase@@ABM@?$vector@U?$pair@PAVCInstanceBase@@M@std@@V?$allocator@U?$pair@PAVCInstanceBase@@M@std@@@2@@std@@AAEPAU?$pair@PAVCInstanceBase@@M@1@QAU21@AAPAVCInstanceBase@@ABM@Z
_TEXT	SEGMENT
__Newsize$1$ = -12					; size = 4
tv775 = -8						; size = 4
tv759 = -4						; size = 4
__Whereptr$ = 8						; size = 4
_<_Val_0>$ = 12						; size = 4
_<_Val_1>$ = 16						; size = 4
??$_Emplace_reallocate@AAPAVCInstanceBase@@ABM@?$vector@U?$pair@PAVCInstanceBase@@M@std@@V?$allocator@U?$pair@PAVCInstanceBase@@M@std@@@2@@std@@AAEPAU?$pair@PAVCInstanceBase@@M@1@QAU21@AAPAVCInstanceBase@@ABM@Z PROC ; std::vector<std::pair<CInstanceBase *,float>,std::allocator<std::pair<CInstanceBase *,float> > >::_Emplace_reallocate<CInstanceBase * &,float const &>, COMDAT
; _this$ = ecx

; 875  :     _CONSTEXPR20 pointer _Emplace_reallocate(const pointer _Whereptr, _Valty&&... _Val) {

  00000	55		 push	 ebp
  00001	8b ec		 mov	 ebp, esp
  00003	83 ec 0c	 sub	 esp, 12			; 0000000cH
  00006	53		 push	 ebx

; 876  :         // reallocate and insert by perfectly forwarding _Val at _Whereptr
; 877  :         _Alty& _Al        = _Getal();
; 878  :         auto& _My_data    = _Mypair._Myval2;
; 879  :         pointer& _Myfirst = _My_data._Myfirst;
; 880  :         pointer& _Mylast  = _My_data._Mylast;
; 881  : 
; 882  :         _STL_INTERNAL_CHECK(_Mylast == _My_data._Myend); // check that we have no unused capacity
; 883  : 
; 884  :         const auto _Whereoff = static_cast<size_type>(_Whereptr - _Myfirst);

  00007	8b 5d 08	 mov	 ebx, DWORD PTR __Whereptr$[ebp]
  0000a	56		 push	 esi
  0000b	8b f1		 mov	 esi, ecx
  0000d	57		 push	 edi
  0000e	8b 16		 mov	 edx, DWORD PTR [esi]
  00010	2b da		 sub	 ebx, edx

; 885  :         const auto _Oldsize  = static_cast<size_type>(_Mylast - _Myfirst);

  00012	8b 46 04	 mov	 eax, DWORD PTR [esi+4]
  00015	2b c2		 sub	 eax, edx
  00017	c1 fb 03	 sar	 ebx, 3
  0001a	c1 f8 03	 sar	 eax, 3

; 886  : 
; 887  :         if (_Oldsize == max_size()) {

  0001d	3d ff ff ff 1f	 cmp	 eax, 536870911		; 1fffffffH
  00022	0f 84 17 01 00
	00		 je	 $LN139@Emplace_re

; 1924 :         return static_cast<size_type>(_My_data._Myend - _My_data._Myfirst);

  00028	8b 4e 08	 mov	 ecx, DWORD PTR [esi+8]

; 889  :         }
; 890  : 
; 891  :         const size_type _Newsize = _Oldsize + 1;

  0002b	8d 78 01	 lea	 edi, DWORD PTR [eax+1]

; 1924 :         return static_cast<size_type>(_My_data._Myend - _My_data._Myfirst);

  0002e	2b ca		 sub	 ecx, edx

; 889  :         }
; 890  : 
; 891  :         const size_type _Newsize = _Oldsize + 1;

  00030	89 7d f4	 mov	 DWORD PTR __Newsize$1$[ebp], edi

; 1924 :         return static_cast<size_type>(_My_data._Myend - _My_data._Myfirst);

  00033	c1 f9 03	 sar	 ecx, 3

; 2011 :         if (_Oldcapacity > _Max - _Oldcapacity / 2) {

  00036	b8 ff ff ff 1f	 mov	 eax, 536870911		; 1fffffffH
  0003b	8b d1		 mov	 edx, ecx
  0003d	d1 ea		 shr	 edx, 1
  0003f	2b c2		 sub	 eax, edx
  00041	3b c8		 cmp	 ecx, eax
  00043	76 14		 jbe	 SHORT $LN8@Emplace_re

; 2012 :             return _Max; // geometric growth would overflow

  00045	b8 f8 ff ff ff	 mov	 eax, -8			; fffffff8H
  0004a	c7 45 fc f8 ff
	ff ff		 mov	 DWORD PTR tv759[ebp], -8 ; fffffff8H
; File C:\Program Files\Microsoft Visual Studio\2022\Community\VC\Tools\MSVC\14.44.35207\include\xmemory

; 253  :             return _Allocate_manually_vector_aligned<_Traits>(_Bytes);

  00051	50		 push	 eax
  00052	e8 00 00 00 00	 call	 ??$_Allocate_manually_vector_aligned@U_Default_allocate_traits@std@@@std@@YAPAXI@Z ; std::_Allocate_manually_vector_aligned<std::_Default_allocate_traits>
  00057	eb 3d		 jmp	 SHORT $LN137@Emplace_re
$LN8@Emplace_re:
; File C:\Program Files\Microsoft Visual Studio\2022\Community\VC\Tools\MSVC\14.44.35207\include\vector

; 2015 :         const size_type _Geometric = _Oldcapacity + _Oldcapacity / 2;

  00059	8d 04 0a	 lea	 eax, DWORD PTR [edx+ecx]
; File C:\Program Files\Microsoft Visual Studio\2022\Community\VC\Tools\MSVC\14.44.35207\include\xmemory

; 117  :         if (_Count > _Max_possible) {

  0005c	8b cf		 mov	 ecx, edi
  0005e	3b c7		 cmp	 eax, edi
  00060	0f 43 c8	 cmovae	 ecx, eax
  00063	81 f9 ff ff ff
	1f		 cmp	 ecx, 536870911		; 1fffffffH
  00069	0f 87 d5 00 00
	00		 ja	 $LN140@Emplace_re

; 119  :         }
; 120  :     }
; 121  : 
; 122  :     return _Count * _Ty_size;

  0006f	8d 04 cd 00 00
	00 00		 lea	 eax, DWORD PTR [ecx*8]
  00076	89 45 fc	 mov	 DWORD PTR tv759[ebp], eax

; 227  :     if (_Bytes == 0) {

  00079	85 c0		 test	 eax, eax
  0007b	75 04		 jne	 SHORT $LN23@Emplace_re

; 228  :         return nullptr;

  0007d	33 ff		 xor	 edi, edi
  0007f	eb 1a		 jmp	 SHORT $LN22@Emplace_re
$LN23@Emplace_re:

; 229  :     }
; 230  : 
; 231  : #if _HAS_CXX20 // TRANSITION, GH-1532
; 232  :     if (_STD is_constant_evaluated()) {
; 233  :         return _Traits::_Allocate(_Bytes);
; 234  :     }
; 235  : #endif // _HAS_CXX20
; 236  : 
; 237  : #ifdef __cpp_aligned_new
; 238  :     if constexpr (_Align > __STDCPP_DEFAULT_NEW_ALIGNMENT__) {
; 239  :         size_t _Passed_align = _Align;
; 240  : #if defined(_M_IX86) || defined(_M_X64)
; 241  :         if (_Bytes >= _Big_allocation_threshold) {
; 242  :             // boost the alignment of big allocations to help autovectorization
; 243  :             _Passed_align = (_STD max)(_Align, _Big_allocation_alignment);
; 244  :         }
; 245  : #endif // defined(_M_IX86) || defined(_M_X64)
; 246  :         return _Traits::_Allocate_aligned(_Bytes, _Passed_align);
; 247  :     } else
; 248  : #endif // defined(__cpp_aligned_new)
; 249  :     {
; 250  : #if defined(_M_IX86) || defined(_M_X64)
; 251  :         if (_Bytes >= _Big_allocation_threshold) {

  00081	3d 00 10 00 00	 cmp	 eax, 4096		; 00001000H
  00086	72 08		 jb	 SHORT $LN25@Emplace_re

; 253  :             return _Allocate_manually_vector_aligned<_Traits>(_Bytes);

  00088	50		 push	 eax
  00089	e8 00 00 00 00	 call	 ??$_Allocate_manually_vector_aligned@U_Default_allocate_traits@std@@@std@@YAPAXI@Z ; std::_Allocate_manually_vector_aligned<std::_Default_allocate_traits>
  0008e	eb 06		 jmp	 SHORT $LN137@Emplace_re
$LN25@Emplace_re:

; 136  :         return ::operator new(_Bytes);

  00090	50		 push	 eax
  00091	e8 00 00 00 00	 call	 ??2@YAPAXI@Z		; operator new
$LN137@Emplace_re:
; File C:\Program Files\Microsoft Visual Studio\2022\Community\VC\Tools\MSVC\14.44.35207\include\vector

; 900  :         _Alty_traits::construct(_Al, _STD _Unfancy(_Newvec + _Whereoff), _STD forward<_Valty>(_Val)...);

  00096	8b f8		 mov	 edi, eax
  00098	83 c4 04	 add	 esp, 4
$LN22@Emplace_re:
; File C:\Program Files\Microsoft Visual Studio\2022\Community\VC\Tools\MSVC\14.44.35207\include\utility

; 274  :         : first(_STD forward<_Other1>(_Val1)), second(_STD forward<_Other2>(_Val2)) {

  0009b	8b 45 0c	 mov	 eax, DWORD PTR _<_Val_0>$[ebp]
; File C:\Program Files\Microsoft Visual Studio\2022\Community\VC\Tools\MSVC\14.44.35207\include\vector

; 900  :         _Alty_traits::construct(_Al, _STD _Unfancy(_Newvec + _Whereoff), _STD forward<_Valty>(_Val)...);

  0009e	8d 0c df	 lea	 ecx, DWORD PTR [edi+ebx*8]

; 903  :         if (_Whereptr == _Mylast) { // at back, provide strong guarantee

  000a1	8b 5d 08	 mov	 ebx, DWORD PTR __Whereptr$[ebp]
  000a4	89 4d f8	 mov	 DWORD PTR tv775[ebp], ecx
; File C:\Program Files\Microsoft Visual Studio\2022\Community\VC\Tools\MSVC\14.44.35207\include\utility

; 274  :         : first(_STD forward<_Other1>(_Val1)), second(_STD forward<_Other2>(_Val2)) {

  000a7	8b 00		 mov	 eax, DWORD PTR [eax]
  000a9	89 01		 mov	 DWORD PTR [ecx], eax
  000ab	8b 45 10	 mov	 eax, DWORD PTR _<_Val_1>$[ebp]
  000ae	8b 00		 mov	 eax, DWORD PTR [eax]
  000b0	89 41 04	 mov	 DWORD PTR [ecx+4], eax
; File C:\Program Files\Microsoft Visual Studio\2022\Community\VC\Tools\MSVC\14.44.35207\include\vector

; 903  :         if (_Whereptr == _Mylast) { // at back, provide strong guarantee

  000b3	8b 56 04	 mov	 edx, DWORD PTR [esi+4]
  000b6	8b 0e		 mov	 ecx, DWORD PTR [esi]
  000b8	3b da		 cmp	 ebx, edx
  000ba	75 04		 jne	 SHORT $LN3@Emplace_re
; File C:\Program Files\Microsoft Visual Studio\2022\Community\VC\Tools\MSVC\14.44.35207\include\xmemory

; 1992 :             _STD _Copy_memmove(_UFirst, _ULast, _STD _Unfancy(_Dest));

  000bc	8b c7		 mov	 eax, edi
; File C:\Program Files\Microsoft Visual Studio\2022\Community\VC\Tools\MSVC\14.44.35207\include\vector

; 909  :         } else { // provide basic guarantee

  000be	eb 16		 jmp	 SHORT $LN67@Emplace_re
$LN3@Emplace_re:
; File C:\Program Files\Microsoft Visual Studio\2022\Community\VC\Tools\MSVC\14.44.35207\include\xmemory

; 1992 :             _STD _Copy_memmove(_UFirst, _ULast, _STD _Unfancy(_Dest));

  000c0	57		 push	 edi
  000c1	8b d3		 mov	 edx, ebx
  000c3	e8 00 00 00 00	 call	 ??$_Copy_memmove@PAU?$pair@PAVCInstanceBase@@M@std@@PAU12@@std@@YAPAU?$pair@PAVCInstanceBase@@M@0@PAU10@00@Z ; std::_Copy_memmove<std::pair<CInstanceBase *,float> *,std::pair<CInstanceBase *,float> *>
; File C:\Program Files\Microsoft Visual Studio\2022\Community\VC\Tools\MSVC\14.44.35207\include\vector

; 912  :             _STD _Uninitialized_move(_Whereptr, _Mylast, _Newvec + _Whereoff + 1, _Al);

  000c8	8b 45 f8	 mov	 eax, DWORD PTR tv775[ebp]
; File C:\Program Files\Microsoft Visual Studio\2022\Community\VC\Tools\MSVC\14.44.35207\include\xmemory

; 1992 :             _STD _Copy_memmove(_UFirst, _ULast, _STD _Unfancy(_Dest));

  000cb	83 c4 04	 add	 esp, 4

; 1985 :     const auto _ULast = _STD _Get_unwrapped(_Last);

  000ce	8b 56 04	 mov	 edx, DWORD PTR [esi+4]
; File C:\Program Files\Microsoft Visual Studio\2022\Community\VC\Tools\MSVC\14.44.35207\include\vector

; 912  :             _STD _Uninitialized_move(_Whereptr, _Mylast, _Newvec + _Whereoff + 1, _Al);

  000d1	83 c0 08	 add	 eax, 8
; File C:\Program Files\Microsoft Visual Studio\2022\Community\VC\Tools\MSVC\14.44.35207\include\xmemory

; 1992 :             _STD _Copy_memmove(_UFirst, _ULast, _STD _Unfancy(_Dest));

  000d4	8b cb		 mov	 ecx, ebx
$LN67@Emplace_re:
; File C:\Program Files\Microsoft Visual Studio\2022\Community\VC\Tools\MSVC\14.44.35207\include\vector

; 2064 :         pointer& _Mylast  = _My_data._Mylast;

  000d6	50		 push	 eax
  000d7	e8 00 00 00 00	 call	 ??$_Copy_memmove@PAU?$pair@PAVCInstanceBase@@M@std@@PAU12@@std@@YAPAU?$pair@PAVCInstanceBase@@M@0@PAU10@00@Z ; std::_Copy_memmove<std::pair<CInstanceBase *,float> *,std::pair<CInstanceBase *,float> *>

; 2065 :         pointer& _Myend   = _My_data._Myend;
; 2066 : 
; 2067 :         _My_data._Orphan_all();
; 2068 : 
; 2069 :         if (_Myfirst) { // destroy and deallocate old array

  000dc	8b 06		 mov	 eax, DWORD PTR [esi]
  000de	83 c4 04	 add	 esp, 4
  000e1	85 c0		 test	 eax, eax
  000e3	74 2c		 je	 SHORT $LN84@Emplace_re

; 2070 :             _STD _Destroy_range(_Myfirst, _Mylast, _Al);
; 2071 :             _ASAN_VECTOR_REMOVE;
; 2072 :             _Al.deallocate(_Myfirst, static_cast<size_type>(_Myend - _Myfirst));

  000e5	8b 4e 08	 mov	 ecx, DWORD PTR [esi+8]
  000e8	2b c8		 sub	 ecx, eax
; File C:\Program Files\Microsoft Visual Studio\2022\Community\VC\Tools\MSVC\14.44.35207\include\xmemory

; 985  :         _STD _Deallocate<_New_alignof<_Ty>>(_Ptr, sizeof(_Ty) * _Count);

  000ea	83 e1 f8	 and	 ecx, -8			; fffffff8H

; 284  :         if (_Bytes >= _Big_allocation_threshold) {

  000ed	81 f9 00 10 00
	00		 cmp	 ecx, 4096		; 00001000H
  000f3	72 12		 jb	 SHORT $LN92@Emplace_re

; 205  :     const uintptr_t _Ptr_container   = _Ptr_user[-1];

  000f5	8b 50 fc	 mov	 edx, DWORD PTR [eax-4]
  000f8	83 c1 23	 add	 ecx, 35			; 00000023H

; 206  : 
; 207  :     // If the following asserts, it likely means that we are performing
; 208  :     // an aligned delete on memory coming from an unaligned allocation.
; 209  :     _STL_ASSERT(_Ptr_user[-2] == _Big_allocation_sentinel, "invalid argument");
; 210  : 
; 211  :     // Extra paranoia on aligned allocation/deallocation; ensure _Ptr_container is
; 212  :     // in range [_Min_back_shift, _Non_user_size]
; 213  : #ifdef _DEBUG
; 214  :     constexpr uintptr_t _Min_back_shift = 2 * sizeof(void*);
; 215  : #else // ^^^ defined(_DEBUG) / !defined(_DEBUG) vvv
; 216  :     constexpr uintptr_t _Min_back_shift = sizeof(void*);
; 217  : #endif // ^^^ !defined(_DEBUG) ^^^
; 218  :     const uintptr_t _Back_shift = reinterpret_cast<uintptr_t>(_Ptr) - _Ptr_container;

  000fb	2b c2		 sub	 eax, edx

; 219  :     _STL_VERIFY(_Back_shift >= _Min_back_shift && _Back_shift <= _Non_user_size, "invalid argument");

  000fd	83 c0 fc	 add	 eax, -4			; fffffffcH
  00100	83 f8 1f	 cmp	 eax, 31			; 0000001fH
  00103	77 2b		 ja	 SHORT $LN91@Emplace_re

; 220  :     _Ptr = reinterpret_cast<void*>(_Ptr_container);

  00105	8b c2		 mov	 eax, edx
$LN92@Emplace_re:

; 289  :         ::operator delete(_Ptr, _Bytes);

  00107	51		 push	 ecx
  00108	50		 push	 eax
  00109	e8 00 00 00 00	 call	 ??3@YAXPAXI@Z		; operator delete
  0010e	83 c4 08	 add	 esp, 8
$LN84@Emplace_re:
; File C:\Program Files\Microsoft Visual Studio\2022\Community\VC\Tools\MSVC\14.44.35207\include\vector

; 2076 :         _Mylast  = _Newvec + _Newsize;

  00111	8b 45 f4	 mov	 eax, DWORD PTR __Newsize$1$[ebp]
  00114	89 3e		 mov	 DWORD PTR [esi], edi
  00116	8d 0c c7	 lea	 ecx, DWORD PTR [edi+eax*8]

; 913  :         }
; 914  : 
; 915  :         _Guard._New_begin = nullptr;
; 916  :         _Change_array(_Newvec, _Newsize, _Newcapacity);
; 917  :         return _Newvec + _Whereoff;

  00119	8b 45 f8	 mov	 eax, DWORD PTR tv775[ebp]

; 2076 :         _Mylast  = _Newvec + _Newsize;

  0011c	89 4e 04	 mov	 DWORD PTR [esi+4], ecx

; 2077 :         _Myend   = _Newvec + _Newcapacity;

  0011f	8b 4d fc	 mov	 ecx, DWORD PTR tv759[ebp]
  00122	03 cf		 add	 ecx, edi

; 918  :     }

  00124	5f		 pop	 edi

; 2077 :         _Myend   = _Newvec + _Newcapacity;

  00125	89 4e 08	 mov	 DWORD PTR [esi+8], ecx

; 918  :     }

  00128	5e		 pop	 esi
  00129	5b		 pop	 ebx
  0012a	8b e5		 mov	 esp, ebp
  0012c	5d		 pop	 ebp
  0012d	c2 0c 00	 ret	 12			; 0000000cH
$LN91@Emplace_re:
; File C:\Program Files\Microsoft Visual Studio\2022\Community\VC\Tools\MSVC\14.44.35207\include\xmemory

; 219  :     _STL_VERIFY(_Back_shift >= _Min_back_shift && _Back_shift <= _Non_user_size, "invalid argument");

  00130	6a 00		 push	 0
  00132	6a 00		 push	 0
  00134	6a 00		 push	 0
  00136	6a 00		 push	 0
  00138	6a 00		 push	 0
  0013a	e8 00 00 00 00	 call	 __invoke_watson
$LN139@Emplace_re:
; File C:\Program Files\Microsoft Visual Studio\2022\Community\VC\Tools\MSVC\14.44.35207\include\vector

; 888  :             _Xlength();

  0013f	e8 00 00 00 00	 call	 ?_Xlength@?$vector@U?$pair@PAVCInstanceBase@@M@std@@V?$allocator@U?$pair@PAVCInstanceBase@@M@std@@@2@@std@@CAXXZ ; std::vector<std::pair<CInstanceBase *,float>,std::allocator<std::pair<CInstanceBase *,float> > >::_Xlength
$LN140@Emplace_re:
; File C:\Program Files\Microsoft Visual Studio\2022\Community\VC\Tools\MSVC\14.44.35207\include\xmemory

; 118  :             _Throw_bad_array_new_length(); // multiply overflow

  00144	e8 00 00 00 00	 call	 ?_Throw_bad_array_new_length@std@@YAXXZ ; std::_Throw_bad_array_new_length
$LN136@Emplace_re:
  00149	cc		 int	 3
??$_Emplace_reallocate@AAPAVCInstanceBase@@ABM@?$vector@U?$pair@PAVCInstanceBase@@M@std@@V?$allocator@U?$pair@PAVCInstanceBase@@M@std@@@2@@std@@AAEPAU?$pair@PAVCInstanceBase@@M@1@QAU21@AAPAVCInstanceBase@@ABM@Z ENDP ; std::vector<std::pair<CInstanceBase *,float>,std::allocator<std::pair<CInstanceBase *,float> > >::_Emplace_reallocate<CInstanceBase * &,float const &>
_TEXT	ENDS
; Function compile flags: /Ogtp
; File C:\Program Files\Microsoft Visual Studio\2022\Community\VC\Tools\MSVC\14.44.35207\include\algorithm
; File C:\Program Files\Microsoft Visual Studio\2022\Community\VC\Tools\MSVC\14.44.35207\include\xutility
; File C:\Program Files\Microsoft Visual Studio\2022\Community\VC\Tools\MSVC\14.44.35207\include\algorithm
; File C:\Program Files\Microsoft Visual Studio\2022\Community\VC\Tools\MSVC\14.44.35207\include\utility
; File C:\Program Files\Microsoft Visual Studio\2022\Community\VC\Tools\MSVC\14.44.35207\include\xutility
; File C:\Program Files\Microsoft Visual Studio\2022\Community\VC\Tools\MSVC\14.44.35207\include\utility
; File C:\Program Files\Microsoft Visual Studio\2022\Community\VC\Tools\MSVC\14.44.35207\include\xutility
; File C:\Program Files\Microsoft Visual Studio\2022\Community\VC\Tools\MSVC\14.44.35207\include\utility
; File C:\Program Files\Microsoft Visual Studio\2022\Community\VC\Tools\MSVC\14.44.35207\include\algorithm
; File C:\Program Files\Microsoft Visual Studio\2022\Community\VC\Tools\MSVC\14.44.35207\include\utility
; File C:\Program Files\Microsoft Visual Studio\2022\Community\VC\Tools\MSVC\14.44.35207\include\algorithm
; File C:\Program Files\Microsoft Visual Studio\2022\Community\VC\Tools\MSVC\14.44.35207\include\utility
; File C:\Program Files\Microsoft Visual Studio\2022\Community\VC\Tools\MSVC\14.44.35207\include\algorithm
;	COMDAT ??$_Insertion_sort_unchecked@PAU?$pair@PAVCInstanceBase@@M@std@@P6A_NABU12@0@Z@std@@YAPAU?$pair@PAVCInstanceBase@@M@0@QAU10@0P6A_NABU10@1@Z@Z
_TEXT	SEGMENT
__Val$1 = -24						; size = 8
__Last$1$ = -16						; size = 4
__Mid$1$ = -12						; size = 4
tv420 = -8						; size = 4
__Pred$ = 8						; size = 4
??$_Insertion_sort_unchecked@PAU?$pair@PAVCInstanceBase@@M@std@@P6A_NABU12@0@Z@std@@YAPAU?$pair@PAVCInstanceBase@@M@0@QAU10@0P6A_NABU10@1@Z@Z PROC ; std::_Insertion_sort_unchecked<std::pair<CInstanceBase *,float> *,bool (__cdecl*)(std::pair<CInstanceBase *,float> const &,std::pair<CInstanceBase *,float> const &)>, COMDAT
; __First$ = ecx
; __Last$ = edx

; 8241 : _CONSTEXPR20 _BidIt _Insertion_sort_unchecked(const _BidIt _First, const _BidIt _Last, _Pr _Pred) {

  00000	55		 push	 ebp
  00001	8b ec		 mov	 ebp, esp
  00003	83 ec 18	 sub	 esp, 24			; 00000018H
  00006	53		 push	 ebx
  00007	8b c2		 mov	 eax, edx
  00009	8b d9		 mov	 ebx, ecx
  0000b	89 45 f0	 mov	 DWORD PTR __Last$1$[ebp], eax
  0000e	56		 push	 esi
  0000f	57		 push	 edi

; 8242 :     // insertion sort [_First, _Last)
; 8243 :     if (_First != _Last) {

  00010	3b d8		 cmp	 ebx, eax
  00012	0f 84 be 00 00
	00		 je	 $LN3@Insertion_

; 8244 :         for (_BidIt _Mid = _First; ++_Mid != _Last;) { // order next element

  00018	8d 73 08	 lea	 esi, DWORD PTR [ebx+8]
  0001b	89 75 f4	 mov	 DWORD PTR __Mid$1$[ebp], esi
  0001e	3b f0		 cmp	 esi, eax
  00020	0f 84 b0 00 00
	00		 je	 $LN3@Insertion_
  00026	89 5d f8	 mov	 DWORD PTR tv420[ebp], ebx
  00029	0f 1f 80 00 00
	00 00		 npad	 7
$LL4@Insertion_:

; 8245 :             _BidIt _Hole = _Mid;
; 8246 :             _Iter_value_t<_BidIt> _Val(_STD move(*_Mid));

  00030	8b 06		 mov	 eax, DWORD PTR [esi]
  00032	8b fe		 mov	 edi, esi
  00034	8b 4e 04	 mov	 ecx, DWORD PTR [esi+4]
  00037	89 45 e8	 mov	 DWORD PTR __Val$1[ebp], eax

; 8247 : 
; 8248 :             if (_DEBUG_LT_PRED(_Pred, _Val, *_First)) { // found new earliest element, move to front

  0003a	8d 45 e8	 lea	 eax, DWORD PTR __Val$1[ebp]
  0003d	53		 push	 ebx
  0003e	50		 push	 eax
  0003f	89 4d ec	 mov	 DWORD PTR __Val$1[ebp+4], ecx
  00042	ff 55 08	 call	 DWORD PTR __Pred$[ebp]
  00045	83 c4 08	 add	 esp, 8
  00048	84 c0		 test	 al, al
  0004a	74 31		 je	 SHORT $LN9@Insertion_
; File C:\Program Files\Microsoft Visual Studio\2022\Community\VC\Tools\MSVC\14.44.35207\include\xutility

; 5194 :     while (_First != _Last) {

  0004c	3b f3		 cmp	 esi, ebx
  0004e	74 1c		 je	 SHORT $LN14@Insertion_
; File C:\Program Files\Microsoft Visual Studio\2022\Community\VC\Tools\MSVC\14.44.35207\include\algorithm

; 8249 :                 _STD _Move_backward_unchecked(_First, _Mid, ++_Hole);

  00050	8b 55 f8	 mov	 edx, DWORD PTR tv420[ebp]
  00053	83 c2 0c	 add	 edx, 12			; 0000000cH
$LL34@Insertion_:
; File C:\Program Files\Microsoft Visual Studio\2022\Community\VC\Tools\MSVC\14.44.35207\include\utility

; 365  :         first  = _STD forward<_Ty1>(_Right.first);

  00056	8b 42 f4	 mov	 eax, DWORD PTR [edx-12]
; File C:\Program Files\Microsoft Visual Studio\2022\Community\VC\Tools\MSVC\14.44.35207\include\xutility

; 5195 :         *--_Dest = _STD move(*--_Last);

  00059	8b ca		 mov	 ecx, edx
  0005b	83 ea 08	 sub	 edx, 8
; File C:\Program Files\Microsoft Visual Studio\2022\Community\VC\Tools\MSVC\14.44.35207\include\utility

; 365  :         first  = _STD forward<_Ty1>(_Right.first);

  0005e	89 42 04	 mov	 DWORD PTR [edx+4], eax

; 366  :         second = _STD forward<_Ty2>(_Right.second);

  00061	8b 02		 mov	 eax, DWORD PTR [edx]
  00063	89 01		 mov	 DWORD PTR [ecx], eax
; File C:\Program Files\Microsoft Visual Studio\2022\Community\VC\Tools\MSVC\14.44.35207\include\xutility

; 5194 :     while (_First != _Last) {

  00065	8d 42 fc	 lea	 eax, DWORD PTR [edx-4]
  00068	3b c3		 cmp	 eax, ebx
  0006a	75 ea		 jne	 SHORT $LL34@Insertion_
$LN14@Insertion_:
; File C:\Program Files\Microsoft Visual Studio\2022\Community\VC\Tools\MSVC\14.44.35207\include\utility

; 366  :         second = _STD forward<_Ty2>(_Right.second);

  0006c	f3 0f 10 45 ec	 movss	 xmm0, DWORD PTR __Val$1[ebp+4]
  00071	8b 45 e8	 mov	 eax, DWORD PTR __Val$1[ebp]
  00074	89 03		 mov	 DWORD PTR [ebx], eax
  00076	f3 0f 11 43 04	 movss	 DWORD PTR [ebx+4], xmm0
; File C:\Program Files\Microsoft Visual Studio\2022\Community\VC\Tools\MSVC\14.44.35207\include\algorithm

; 8251 :             } else { // look for insertion point after first

  0007b	eb 44		 jmp	 SHORT $LN2@Insertion_
$LN9@Insertion_:

; 8252 :                 for (_BidIt _Prev = _Hole; _DEBUG_LT_PRED(_Pred, _Val, *--_Prev); _Hole = _Prev) {

  0007d	8b 45 f8	 mov	 eax, DWORD PTR tv420[ebp]
  00080	8b f0		 mov	 esi, eax
  00082	50		 push	 eax
  00083	8d 45 e8	 lea	 eax, DWORD PTR __Val$1[ebp]
  00086	50		 push	 eax
  00087	ff 55 08	 call	 DWORD PTR __Pred$[ebp]
  0008a	83 c4 08	 add	 esp, 8
  0008d	84 c0		 test	 al, al
  0008f	74 1e		 je	 SHORT $LN6@Insertion_
$LL7@Insertion_:
; File C:\Program Files\Microsoft Visual Studio\2022\Community\VC\Tools\MSVC\14.44.35207\include\utility

; 365  :         first  = _STD forward<_Ty1>(_Right.first);

  00091	8b 06		 mov	 eax, DWORD PTR [esi]
  00093	89 07		 mov	 DWORD PTR [edi], eax

; 366  :         second = _STD forward<_Ty2>(_Right.second);

  00095	8b 46 04	 mov	 eax, DWORD PTR [esi+4]
  00098	89 47 04	 mov	 DWORD PTR [edi+4], eax
; File C:\Program Files\Microsoft Visual Studio\2022\Community\VC\Tools\MSVC\14.44.35207\include\algorithm

; 8252 :                 for (_BidIt _Prev = _Hole; _DEBUG_LT_PRED(_Pred, _Val, *--_Prev); _Hole = _Prev) {

  0009b	8b fe		 mov	 edi, esi
  0009d	83 ee 08	 sub	 esi, 8
  000a0	8d 45 e8	 lea	 eax, DWORD PTR __Val$1[ebp]
  000a3	56		 push	 esi
  000a4	50		 push	 eax
  000a5	ff 55 08	 call	 DWORD PTR __Pred$[ebp]
  000a8	83 c4 08	 add	 esp, 8
  000ab	84 c0		 test	 al, al
  000ad	75 e2		 jne	 SHORT $LL7@Insertion_
$LN6@Insertion_:
; File C:\Program Files\Microsoft Visual Studio\2022\Community\VC\Tools\MSVC\14.44.35207\include\utility

; 366  :         second = _STD forward<_Ty2>(_Right.second);

  000af	f3 0f 10 45 ec	 movss	 xmm0, DWORD PTR __Val$1[ebp+4]
  000b4	8b 45 e8	 mov	 eax, DWORD PTR __Val$1[ebp]
  000b7	8b 75 f4	 mov	 esi, DWORD PTR __Mid$1$[ebp]

; 365  :         first  = _STD forward<_Ty1>(_Right.first);

  000ba	89 07		 mov	 DWORD PTR [edi], eax

; 366  :         second = _STD forward<_Ty2>(_Right.second);

  000bc	f3 0f 11 47 04	 movss	 DWORD PTR [edi+4], xmm0
$LN2@Insertion_:
; File C:\Program Files\Microsoft Visual Studio\2022\Community\VC\Tools\MSVC\14.44.35207\include\algorithm

; 8244 :         for (_BidIt _Mid = _First; ++_Mid != _Last;) { // order next element

  000c1	83 45 f8 08	 add	 DWORD PTR tv420[ebp], 8
  000c5	83 c6 08	 add	 esi, 8
  000c8	8b 45 f0	 mov	 eax, DWORD PTR __Last$1$[ebp]
  000cb	89 75 f4	 mov	 DWORD PTR __Mid$1$[ebp], esi
  000ce	3b f0		 cmp	 esi, eax
  000d0	0f 85 5a ff ff
	ff		 jne	 $LL4@Insertion_
$LN3@Insertion_:

; 8253 :                     *_Hole = _STD move(*_Prev); // move hole down
; 8254 :                 }
; 8255 : 
; 8256 :                 *_Hole = _STD move(_Val); // insert element in hole
; 8257 :             }
; 8258 :         }
; 8259 :     }
; 8260 : 
; 8261 :     return _Last;
; 8262 : }

  000d6	5f		 pop	 edi
  000d7	5e		 pop	 esi
  000d8	5b		 pop	 ebx
  000d9	8b e5		 mov	 esp, ebp
  000db	5d		 pop	 ebp
  000dc	c3		 ret	 0
??$_Insertion_sort_unchecked@PAU?$pair@PAVCInstanceBase@@M@std@@P6A_NABU12@0@Z@std@@YAPAU?$pair@PAVCInstanceBase@@M@0@QAU10@0P6A_NABU10@1@Z@Z ENDP ; std::_Insertion_sort_unchecked<std::pair<CInstanceBase *,float> *,bool (__cdecl*)(std::pair<CInstanceBase *,float> const &,std::pair<CInstanceBase *,float> const &)>
_TEXT	ENDS
; Function compile flags: /Ogtp
; File C:\Program Files\Microsoft Visual Studio\2022\Community\VC\Tools\MSVC\14.44.35207\include\algorithm
; File C:\Program Files\Microsoft Visual Studio\2022\Community\VC\Tools\MSVC\14.44.35207\include\utility
; File C:\Program Files\Microsoft Visual Studio\2022\Community\VC\Tools\MSVC\14.44.35207\include\algorithm
; File C:\Program Files\Microsoft Visual Studio\2022\Community\VC\Tools\MSVC\14.44.35207\include\utility
; File C:\Program Files\Microsoft Visual Studio\2022\Community\VC\Tools\MSVC\14.44.35207\include\algorithm
; File C:\Program Files\Microsoft Visual Studio\2022\Community\VC\Tools\MSVC\14.44.35207\include\utility
; File C:\Program Files\Microsoft Visual Studio\2022\Community\VC\Tools\MSVC\14.44.35207\include\algorithm
; File C:\Program Files\Microsoft Visual Studio\2022\Community\VC\Tools\MSVC\14.44.35207\include\utility
; File C:\Program Files\Microsoft Visual Studio\2022\Community\VC\Tools\MSVC\14.44.35207\include\algorithm
; File C:\Program Files\Microsoft Visual Studio\2022\Community\VC\Tools\MSVC\14.44.35207\include\utility
; File C:\Program Files\Microsoft Visual Studio\2022\Community\VC\Tools\MSVC\14.44.35207\include\algorithm
; File C:\Program Files\Microsoft Visual Studio\2022\Community\VC\Tools\MSVC\14.44.35207\include\utility
; File C:\Program Files\Microsoft Visual Studio\2022\Community\VC\Tools\MSVC\14.44.35207\include\algorithm
; File C:\Program Files\Microsoft Visual Studio\2022\Community\VC\Tools\MSVC\14.44.35207\include\utility
; File C:\Program Files\Microsoft Visual Studio\2022\Community\VC\Tools\MSVC\14.44.35207\include\algorithm
; File C:\Program Files\Microsoft Visual Studio\2022\Community\VC\Tools\MSVC\14.44.35207\include\utility
; File C:\Program Files\Microsoft Visual Studio\2022\Community\VC\Tools\MSVC\14.44.35207\include\algorithm
; File C:\Program Files\Microsoft Visual Studio\2022\Community\VC\Tools\MSVC\14.44.35207\include\utility
; File C:\Program Files\Microsoft Visual Studio\2022\Community\VC\Tools\MSVC\14.44.35207\include\algorithm
; File C:\Program Files\Microsoft Visual Studio\2022\Community\VC\Tools\MSVC\14.44.35207\include\utility
; File C:\Program Files\Microsoft Visual Studio\2022\Community\VC\Tools\MSVC\14.44.35207\include\algorithm
; File C:\Program Files\Microsoft Visual Studio\2022\Community\VC\Tools\MSVC\14.44.35207\include\utility
; File C:\Program Files\Microsoft Visual Studio\2022\Community\VC\Tools\MSVC\14.44.35207\include\algorithm
; File C:\Program Files\Microsoft Visual Studio\2022\Community\VC\Tools\MSVC\14.44.35207\include\utility
; File C:\Program Files\Microsoft Visual Studio\2022\Community\VC\Tools\MSVC\14.44.35207\include\algorithm
; File C:\Program Files\Microsoft Visual Studio\2022\Community\VC\Tools\MSVC\14.44.35207\include\utility
; File C:\Program Files\Microsoft Visual Studio\2022\Community\VC\Tools\MSVC\14.44.35207\include\algorithm
;	COMDAT ??$_Partition_by_median_guess_unchecked@PAU?$pair@PAVCInstanceBase@@M@std@@P6A_NABU12@0@Z@std@@YA?AU?$pair@PAU?$pair@PAVCInstanceBase@@M@std@@PAU12@@0@PAU?$pair@PAVCInstanceBase@@M@0@0P6A_NABU20@1@Z@Z
_TEXT	SEGMENT
___$ReturnUdt$1$ = -24					; size = 4
__Left$1$ = -20						; size = 4
tv625 = -16						; size = 4
__Gfirst$1$ = -16					; size = 4
__First$1$ = -12					; size = 4
__Glast$1$ = -8						; size = 4
__Plast$1$ = -4						; size = 4
__Last$ = 8						; size = 4
__Pred$ = 12						; size = 4
??$_Partition_by_median_guess_unchecked@PAU?$pair@PAVCInstanceBase@@M@std@@P6A_NABU12@0@Z@std@@YA?AU?$pair@PAU?$pair@PAVCInstanceBase@@M@std@@PAU12@@0@PAU?$pair@PAVCInstanceBase@@M@0@0P6A_NABU20@1@Z@Z PROC ; std::_Partition_by_median_guess_unchecked<std::pair<CInstanceBase *,float> *,bool (__cdecl*)(std::pair<CInstanceBase *,float> const &,std::pair<CInstanceBase *,float> const &)>, COMDAT
; ___$ReturnUdt$ = ecx
; __First$ = edx

; 8298 : _CONSTEXPR20 pair<_RanIt, _RanIt> _Partition_by_median_guess_unchecked(_RanIt _First, _RanIt _Last, _Pr _Pred) {

  00000	55		 push	 ebp
  00001	8b ec		 mov	 ebp, esp
  00003	83 ec 18	 sub	 esp, 24			; 00000018H
  00006	53		 push	 ebx
  00007	8b da		 mov	 ebx, edx
  00009	89 4d e8	 mov	 DWORD PTR ___$ReturnUdt$1$[ebp], ecx

; 8299 :     // partition [_First, _Last)
; 8300 :     _RanIt _Mid = _First + ((_Last - _First) >> 1); // shift for codegen

  0000c	8b 4d 08	 mov	 ecx, DWORD PTR __Last$[ebp]
  0000f	8b c1		 mov	 eax, ecx
  00011	2b c3		 sub	 eax, ebx
  00013	89 5d f4	 mov	 DWORD PTR __First$1$[ebp], ebx
  00016	c1 f8 04	 sar	 eax, 4
  00019	56		 push	 esi
  0001a	57		 push	 edi

; 8301 :     _STD _Guess_median_unchecked(_First, _Mid, _STD _Prev_iter(_Last), _Pred);

  0001b	8b 7d 0c	 mov	 edi, DWORD PTR __Pred$[ebp]
  0001e	8d 34 c3	 lea	 esi, DWORD PTR [ebx+eax*8]
  00021	8d 41 f8	 lea	 eax, DWORD PTR [ecx-8]
  00024	8b d6		 mov	 edx, esi
  00026	57		 push	 edi
  00027	50		 push	 eax
  00028	8b cb		 mov	 ecx, ebx
  0002a	e8 00 00 00 00	 call	 ??$_Guess_median_unchecked@PAU?$pair@PAVCInstanceBase@@M@std@@P6A_NABU12@0@Z@std@@YAXPAU?$pair@PAVCInstanceBase@@M@0@00P6A_NABU10@1@Z@Z ; std::_Guess_median_unchecked<std::pair<CInstanceBase *,float> *,bool (__cdecl*)(std::pair<CInstanceBase *,float> const &,std::pair<CInstanceBase *,float> const &)>
  0002f	83 c4 08	 add	 esp, 8

; 8302 :     _RanIt _Pfirst = _Mid;
; 8303 :     _RanIt _Plast  = _STD _Next_iter(_Pfirst);

  00032	8d 5e 08	 lea	 ebx, DWORD PTR [esi+8]
  00035	89 5d fc	 mov	 DWORD PTR __Plast$1$[ebp], ebx

; 8304 : 
; 8305 :     while (_First < _Pfirst && !_DEBUG_LT_PRED(_Pred, *_STD _Prev_iter(_Pfirst), *_Pfirst)
; 8306 :            && !_Pred(*_Pfirst, *_STD _Prev_iter(_Pfirst))) {

  00038	39 75 f4	 cmp	 DWORD PTR __First$1$[ebp], esi
  0003b	73 2b		 jae	 SHORT $LN123@Partition_
  0003d	8b 5d f4	 mov	 ebx, DWORD PTR __First$1$[ebp]
$LL2@Partition_:
  00040	8d 46 f8	 lea	 eax, DWORD PTR [esi-8]
  00043	56		 push	 esi
  00044	50		 push	 eax
  00045	89 45 f0	 mov	 DWORD PTR tv625[ebp], eax
  00048	ff d7		 call	 edi
  0004a	83 c4 08	 add	 esp, 8
  0004d	84 c0		 test	 al, al
  0004f	75 14		 jne	 SHORT $LN151@Partition_
  00051	ff 75 f0	 push	 DWORD PTR tv625[ebp]
  00054	56		 push	 esi
  00055	ff d7		 call	 edi
  00057	83 c4 08	 add	 esp, 8
  0005a	84 c0		 test	 al, al
  0005c	75 07		 jne	 SHORT $LN151@Partition_

; 8307 :         --_Pfirst;

  0005e	8b 75 f0	 mov	 esi, DWORD PTR tv625[ebp]
  00061	3b de		 cmp	 ebx, esi
  00063	72 db		 jb	 SHORT $LL2@Partition_
$LN151@Partition_:
  00065	8b 5d fc	 mov	 ebx, DWORD PTR __Plast$1$[ebp]
$LN123@Partition_:

; 8308 :     }
; 8309 : 
; 8310 :     while (_Plast < _Last && !_DEBUG_LT_PRED(_Pred, *_Plast, *_Pfirst) && !_Pred(*_Pfirst, *_Plast)) {

  00068	8b 45 08	 mov	 eax, DWORD PTR __Last$[ebp]
  0006b	3b d8		 cmp	 ebx, eax
  0006d	73 29		 jae	 SHORT $LN5@Partition_
  0006f	90		 npad	 1
$LL4@Partition_:
  00070	56		 push	 esi
  00071	53		 push	 ebx
  00072	ff d7		 call	 edi
  00074	83 c4 08	 add	 esp, 8
  00077	84 c0		 test	 al, al
  00079	75 17		 jne	 SHORT $LN156@Partition_
  0007b	53		 push	 ebx
  0007c	56		 push	 esi
  0007d	ff d7		 call	 edi
  0007f	83 c4 08	 add	 esp, 8
  00082	84 c0		 test	 al, al
  00084	8b 45 08	 mov	 eax, DWORD PTR __Last$[ebp]
  00087	75 0c		 jne	 SHORT $LN152@Partition_

; 8311 :         ++_Plast;

  00089	83 c3 08	 add	 ebx, 8
  0008c	3b d8		 cmp	 ebx, eax
  0008e	72 e0		 jb	 SHORT $LL4@Partition_

; 8308 :     }
; 8309 : 
; 8310 :     while (_Plast < _Last && !_DEBUG_LT_PRED(_Pred, *_Plast, *_Pfirst) && !_Pred(*_Pfirst, *_Plast)) {

  00090	eb 03		 jmp	 SHORT $LN152@Partition_
$LN156@Partition_:
  00092	8b 45 08	 mov	 eax, DWORD PTR __Last$[ebp]
$LN152@Partition_:
  00095	89 5d fc	 mov	 DWORD PTR __Plast$1$[ebp], ebx
$LN5@Partition_:

; 8312 :     }
; 8313 : 
; 8314 :     _RanIt _Gfirst = _Plast;

  00098	8b fb		 mov	 edi, ebx

; 8315 :     _RanIt _Glast  = _Pfirst;

  0009a	8b d6		 mov	 edx, esi
$LN181@Partition_:

; 8318 :         for (; _Gfirst < _Last; ++_Gfirst) {

  0009c	89 55 f8	 mov	 DWORD PTR __Glast$1$[ebp], edx
$LN180@Partition_:
  0009f	89 7d f0	 mov	 DWORD PTR __Gfirst$1$[ebp], edi
$LL8@Partition_:
  000a2	3b f8		 cmp	 edi, eax
  000a4	73 48		 jae	 SHORT $LN127@Partition_
$LL11@Partition_:

; 8319 :             if (_DEBUG_LT_PRED(_Pred, *_Pfirst, *_Gfirst)) {

  000a6	57		 push	 edi
  000a7	56		 push	 esi
  000a8	ff 55 0c	 call	 DWORD PTR __Pred$[ebp]
  000ab	83 c4 08	 add	 esp, 8
  000ae	84 c0		 test	 al, al
  000b0	75 2b		 jne	 SHORT $LN9@Partition_

; 8320 :                 continue;
; 8321 :             } else if (_Pred(*_Gfirst, *_Pfirst)) {

  000b2	56		 push	 esi
  000b3	57		 push	 edi
  000b4	ff 55 0c	 call	 DWORD PTR __Pred$[ebp]
  000b7	83 c4 08	 add	 esp, 8
  000ba	84 c0		 test	 al, al
  000bc	75 27		 jne	 SHORT $LN153@Partition_

; 8322 :                 break;
; 8323 :             } else if (_Plast != _Gfirst) {

  000be	3b df		 cmp	 ebx, edi
  000c0	74 18		 je	 SHORT $LN19@Partition_
; File C:\Program Files\Microsoft Visual Studio\2022\Community\VC\Tools\MSVC\14.44.35207\include\utility

; 140  :     _Left    = _STD move(_Right);

  000c2	8b 07		 mov	 eax, DWORD PTR [edi]
  000c4	8b 0b		 mov	 ecx, DWORD PTR [ebx]

; 139  :     _Ty _Tmp = _STD move(_Left);

  000c6	f3 0f 10 43 04	 movss	 xmm0, DWORD PTR [ebx+4]

; 140  :     _Left    = _STD move(_Right);

  000cb	89 03		 mov	 DWORD PTR [ebx], eax
  000cd	8b 47 04	 mov	 eax, DWORD PTR [edi+4]
  000d0	89 43 04	 mov	 DWORD PTR [ebx+4], eax

; 141  :     _Right   = _STD move(_Tmp);

  000d3	89 0f		 mov	 DWORD PTR [edi], ecx
  000d5	f3 0f 11 47 04	 movss	 DWORD PTR [edi+4], xmm0
$LN19@Partition_:
; File C:\Program Files\Microsoft Visual Studio\2022\Community\VC\Tools\MSVC\14.44.35207\include\algorithm

; 8318 :         for (; _Gfirst < _Last; ++_Gfirst) {

  000da	83 c3 08	 add	 ebx, 8
$LN9@Partition_:
  000dd	83 c7 08	 add	 edi, 8
  000e0	3b 7d 08	 cmp	 edi, DWORD PTR __Last$[ebp]
  000e3	72 c1		 jb	 SHORT $LL11@Partition_
$LN153@Partition_:
  000e5	8b 55 f8	 mov	 edx, DWORD PTR __Glast$1$[ebp]
  000e8	89 5d fc	 mov	 DWORD PTR __Plast$1$[ebp], ebx
  000eb	89 7d f0	 mov	 DWORD PTR __Gfirst$1$[ebp], edi
$LN127@Partition_:

; 8331 :         for (; _First < _Glast; --_Glast) {

  000ee	8b 45 f4	 mov	 eax, DWORD PTR __First$1$[ebp]
  000f1	3b d0		 cmp	 edx, eax
  000f3	76 5f		 jbe	 SHORT $LN179@Partition_
  000f5	8b 7d f8	 mov	 edi, DWORD PTR __Glast$1$[ebp]
  000f8	8d 5f f8	 lea	 ebx, DWORD PTR [edi-8]
  000fb	0f 1f 44 00 00	 npad	 5
$LL14@Partition_:

; 8332 :             const auto _Glast_prev = _STD _Prev_iter(_Glast);
; 8333 :             if (_DEBUG_LT_PRED(_Pred, *_Glast_prev, *_Pfirst)) {

  00100	56		 push	 esi
  00101	53		 push	 ebx
  00102	ff 55 0c	 call	 DWORD PTR __Pred$[ebp]
  00105	83 c4 08	 add	 esp, 8
  00108	84 c0		 test	 al, al
  0010a	75 2b		 jne	 SHORT $LN12@Partition_

; 8334 :                 continue;
; 8335 :             } else if (_Pred(*_Pfirst, *_Glast_prev)) {

  0010c	53		 push	 ebx
  0010d	56		 push	 esi
  0010e	ff 55 0c	 call	 DWORD PTR __Pred$[ebp]
  00111	83 c4 08	 add	 esp, 8
  00114	84 c0		 test	 al, al
  00116	75 2e		 jne	 SHORT $LN157@Partition_

; 8336 :                 break;
; 8337 :             } else if (--_Pfirst != _Glast_prev) {

  00118	83 ee 08	 sub	 esi, 8
  0011b	3b f3		 cmp	 esi, ebx
  0011d	74 18		 je	 SHORT $LN12@Partition_
; File C:\Program Files\Microsoft Visual Studio\2022\Community\VC\Tools\MSVC\14.44.35207\include\utility

; 140  :     _Left    = _STD move(_Right);

  0011f	8b 03		 mov	 eax, DWORD PTR [ebx]
  00121	8b 0e		 mov	 ecx, DWORD PTR [esi]

; 139  :     _Ty _Tmp = _STD move(_Left);

  00123	f3 0f 10 46 04	 movss	 xmm0, DWORD PTR [esi+4]

; 140  :     _Left    = _STD move(_Right);

  00128	89 06		 mov	 DWORD PTR [esi], eax
  0012a	8b 43 04	 mov	 eax, DWORD PTR [ebx+4]
  0012d	89 46 04	 mov	 DWORD PTR [esi+4], eax

; 141  :     _Right   = _STD move(_Tmp);

  00130	89 0b		 mov	 DWORD PTR [ebx], ecx
  00132	f3 0f 11 43 04	 movss	 DWORD PTR [ebx+4], xmm0
$LN12@Partition_:
; File C:\Program Files\Microsoft Visual Studio\2022\Community\VC\Tools\MSVC\14.44.35207\include\algorithm

; 8331 :         for (; _First < _Glast; --_Glast) {

  00137	8b 45 f4	 mov	 eax, DWORD PTR __First$1$[ebp]
  0013a	83 ef 08	 sub	 edi, 8
  0013d	83 eb 08	 sub	 ebx, 8
  00140	3b c7		 cmp	 eax, edi
  00142	72 bc		 jb	 SHORT $LL14@Partition_

; 8334 :                 continue;
; 8335 :             } else if (_Pred(*_Pfirst, *_Glast_prev)) {

  00144	eb 03		 jmp	 SHORT $LN154@Partition_
$LN157@Partition_:
  00146	8b 45 f4	 mov	 eax, DWORD PTR __First$1$[ebp]
$LN154@Partition_:
  00149	89 7d f8	 mov	 DWORD PTR __Glast$1$[ebp], edi
  0014c	8b 55 f8	 mov	 edx, DWORD PTR __Glast$1$[ebp]

; 8338 :                 swap(*_Pfirst, *_Glast_prev); // intentional ADL
; 8339 :             }
; 8340 :         }
; 8341 : 
; 8342 :         if (_Glast == _First && _Gfirst == _Last) {

  0014f	3b d0		 cmp	 edx, eax
  00151	8b 7d f0	 mov	 edi, DWORD PTR __Gfirst$1$[ebp]
$LN179@Partition_:
  00154	75 54		 jne	 SHORT $LN27@Partition_
  00156	3b 7d 08	 cmp	 edi, DWORD PTR __Last$[ebp]
  00159	0f 84 ce 00 00
	00		 je	 $LN129@Partition_

; 8344 :         }
; 8345 : 
; 8346 :         if (_Glast == _First) { // no room at bottom, rotate pivot upward
; 8347 :             if (_Plast != _Gfirst) {

  0015f	8b 5d fc	 mov	 ebx, DWORD PTR __Plast$1$[ebp]
  00162	3b df		 cmp	 ebx, edi
  00164	74 18		 je	 SHORT $LN146@Partition_
; File C:\Program Files\Microsoft Visual Studio\2022\Community\VC\Tools\MSVC\14.44.35207\include\utility

; 140  :     _Left    = _STD move(_Right);

  00166	8b 03		 mov	 eax, DWORD PTR [ebx]
  00168	8b 0e		 mov	 ecx, DWORD PTR [esi]

; 139  :     _Ty _Tmp = _STD move(_Left);

  0016a	f3 0f 10 46 04	 movss	 xmm0, DWORD PTR [esi+4]

; 140  :     _Left    = _STD move(_Right);

  0016f	89 06		 mov	 DWORD PTR [esi], eax
  00171	8b 43 04	 mov	 eax, DWORD PTR [ebx+4]
  00174	89 46 04	 mov	 DWORD PTR [esi+4], eax

; 141  :     _Right   = _STD move(_Tmp);

  00177	89 0b		 mov	 DWORD PTR [ebx], ecx
  00179	f3 0f 11 43 04	 movss	 DWORD PTR [ebx+4], xmm0
$LN146@Partition_:

; 140  :     _Left    = _STD move(_Right);

  0017e	8b 07		 mov	 eax, DWORD PTR [edi]
; File C:\Program Files\Microsoft Visual Studio\2022\Community\VC\Tools\MSVC\14.44.35207\include\algorithm

; 8351 :             ++_Plast;

  00180	83 c3 08	 add	 ebx, 8
; File C:\Program Files\Microsoft Visual Studio\2022\Community\VC\Tools\MSVC\14.44.35207\include\utility

; 139  :     _Ty _Tmp = _STD move(_Left);

  00183	8b 0e		 mov	 ecx, DWORD PTR [esi]
  00185	f3 0f 10 46 04	 movss	 xmm0, DWORD PTR [esi+4]

; 140  :     _Left    = _STD move(_Right);

  0018a	89 06		 mov	 DWORD PTR [esi], eax
  0018c	8b 47 04	 mov	 eax, DWORD PTR [edi+4]
  0018f	89 46 04	 mov	 DWORD PTR [esi+4], eax
; File C:\Program Files\Microsoft Visual Studio\2022\Community\VC\Tools\MSVC\14.44.35207\include\algorithm

; 8353 :             ++_Pfirst;

  00192	83 c6 08	 add	 esi, 8

; 8354 :             ++_Gfirst;

  00195	8b 45 08	 mov	 eax, DWORD PTR __Last$[ebp]
; File C:\Program Files\Microsoft Visual Studio\2022\Community\VC\Tools\MSVC\14.44.35207\include\utility

; 141  :     _Right   = _STD move(_Tmp);

  00198	89 0f		 mov	 DWORD PTR [edi], ecx
  0019a	f3 0f 11 47 04	 movss	 DWORD PTR [edi+4], xmm0
; File C:\Program Files\Microsoft Visual Studio\2022\Community\VC\Tools\MSVC\14.44.35207\include\algorithm

; 8354 :             ++_Gfirst;

  0019f	83 c7 08	 add	 edi, 8
  001a2	89 5d fc	 mov	 DWORD PTR __Plast$1$[ebp], ebx
  001a5	e9 f5 fe ff ff	 jmp	 $LN180@Partition_
$LN27@Partition_:

; 8355 :         } else if (_Gfirst == _Last) { // no room at top, rotate pivot downward

  001aa	83 c2 f8	 add	 edx, -8			; fffffff8H
  001ad	89 55 f8	 mov	 DWORD PTR __Glast$1$[ebp], edx
  001b0	3b 7d 08	 cmp	 edi, DWORD PTR __Last$[ebp]
  001b3	75 52		 jne	 SHORT $LN30@Partition_

; 8356 :             if (--_Glast != --_Pfirst) {

  001b5	83 ee 08	 sub	 esi, 8
  001b8	8d 5e 04	 lea	 ebx, DWORD PTR [esi+4]
  001bb	89 5d ec	 mov	 DWORD PTR __Left$1$[ebp], ebx
  001be	3b d6		 cmp	 edx, esi
  001c0	74 18		 je	 SHORT $LN147@Partition_
; File C:\Program Files\Microsoft Visual Studio\2022\Community\VC\Tools\MSVC\14.44.35207\include\utility

; 140  :     _Left    = _STD move(_Right);

  001c2	8b 06		 mov	 eax, DWORD PTR [esi]
  001c4	8b 0a		 mov	 ecx, DWORD PTR [edx]

; 139  :     _Ty _Tmp = _STD move(_Left);

  001c6	f3 0f 10 42 04	 movss	 xmm0, DWORD PTR [edx+4]

; 140  :     _Left    = _STD move(_Right);

  001cb	89 02		 mov	 DWORD PTR [edx], eax
  001cd	8b 03		 mov	 eax, DWORD PTR [ebx]
  001cf	89 42 04	 mov	 DWORD PTR [edx+4], eax

; 141  :     _Right   = _STD move(_Tmp);

  001d2	89 0e		 mov	 DWORD PTR [esi], ecx
  001d4	f3 0f 11 03	 movss	 DWORD PTR [ebx], xmm0
  001d8	eb 03		 jmp	 SHORT $LN140@Partition_
$LN147@Partition_:
  001da	89 5d ec	 mov	 DWORD PTR __Left$1$[ebp], ebx
$LN140@Partition_:
; File C:\Program Files\Microsoft Visual Studio\2022\Community\VC\Tools\MSVC\14.44.35207\include\algorithm

; 8360 :             swap(*_Pfirst, *--_Plast); // intentional ADL

  001dd	8b 5d fc	 mov	 ebx, DWORD PTR __Plast$1$[ebp]
; File C:\Program Files\Microsoft Visual Studio\2022\Community\VC\Tools\MSVC\14.44.35207\include\utility

; 139  :     _Ty _Tmp = _STD move(_Left);

  001e0	8b 0e		 mov	 ecx, DWORD PTR [esi]
; File C:\Program Files\Microsoft Visual Studio\2022\Community\VC\Tools\MSVC\14.44.35207\include\algorithm

; 8360 :             swap(*_Pfirst, *--_Plast); // intentional ADL

  001e2	83 eb 08	 sub	 ebx, 8
  001e5	89 5d fc	 mov	 DWORD PTR __Plast$1$[ebp], ebx
; File C:\Program Files\Microsoft Visual Studio\2022\Community\VC\Tools\MSVC\14.44.35207\include\utility

; 140  :     _Left    = _STD move(_Right);

  001e8	8b 03		 mov	 eax, DWORD PTR [ebx]
  001ea	89 06		 mov	 DWORD PTR [esi], eax
  001ec	8b 43 04	 mov	 eax, DWORD PTR [ebx+4]

; 141  :     _Right   = _STD move(_Tmp);

  001ef	89 0b		 mov	 DWORD PTR [ebx], ecx

; 139  :     _Ty _Tmp = _STD move(_Left);

  001f1	8b 4d ec	 mov	 ecx, DWORD PTR __Left$1$[ebp]
  001f4	f3 0f 10 01	 movss	 xmm0, DWORD PTR [ecx]

; 140  :     _Left    = _STD move(_Right);

  001f8	89 01		 mov	 DWORD PTR [ecx], eax
; File C:\Program Files\Microsoft Visual Studio\2022\Community\VC\Tools\MSVC\14.44.35207\include\algorithm

; 8361 :         } else {

  001fa	8b 45 08	 mov	 eax, DWORD PTR __Last$[ebp]
; File C:\Program Files\Microsoft Visual Studio\2022\Community\VC\Tools\MSVC\14.44.35207\include\utility

; 141  :     _Right   = _STD move(_Tmp);

  001fd	f3 0f 11 43 04	 movss	 DWORD PTR [ebx+4], xmm0
; File C:\Program Files\Microsoft Visual Studio\2022\Community\VC\Tools\MSVC\14.44.35207\include\algorithm

; 8361 :         } else {

  00202	e9 9b fe ff ff	 jmp	 $LL8@Partition_
$LN30@Partition_:
; File C:\Program Files\Microsoft Visual Studio\2022\Community\VC\Tools\MSVC\14.44.35207\include\utility

; 139  :     _Ty _Tmp = _STD move(_Left);

  00207	8b 0f		 mov	 ecx, DWORD PTR [edi]

; 140  :     _Left    = _STD move(_Right);

  00209	8b 02		 mov	 eax, DWORD PTR [edx]

; 139  :     _Ty _Tmp = _STD move(_Left);

  0020b	f3 0f 10 47 04	 movss	 xmm0, DWORD PTR [edi+4]
  00210	8b 5d fc	 mov	 ebx, DWORD PTR __Plast$1$[ebp]

; 140  :     _Left    = _STD move(_Right);

  00213	89 07		 mov	 DWORD PTR [edi], eax
  00215	8b 42 04	 mov	 eax, DWORD PTR [edx+4]
  00218	89 47 04	 mov	 DWORD PTR [edi+4], eax
; File C:\Program Files\Microsoft Visual Studio\2022\Community\VC\Tools\MSVC\14.44.35207\include\algorithm

; 8363 :             ++_Gfirst;

  0021b	83 c7 08	 add	 edi, 8
  0021e	8b 45 08	 mov	 eax, DWORD PTR __Last$[ebp]
; File C:\Program Files\Microsoft Visual Studio\2022\Community\VC\Tools\MSVC\14.44.35207\include\utility

; 141  :     _Right   = _STD move(_Tmp);

  00221	89 0a		 mov	 DWORD PTR [edx], ecx
  00223	f3 0f 11 42 04	 movss	 DWORD PTR [edx+4], xmm0
  00228	e9 6f fe ff ff	 jmp	 $LN181@Partition_
$LN129@Partition_:

; 274  :         : first(_STD forward<_Other1>(_Val1)), second(_STD forward<_Other2>(_Val2)) {

  0022d	8b 4d e8	 mov	 ecx, DWORD PTR ___$ReturnUdt$1$[ebp]
  00230	8b 45 fc	 mov	 eax, DWORD PTR __Plast$1$[ebp]
; File C:\Program Files\Microsoft Visual Studio\2022\Community\VC\Tools\MSVC\14.44.35207\include\algorithm

; 8343 :             return pair<_RanIt, _RanIt>(_Pfirst, _Plast);

  00233	5f		 pop	 edi
; File C:\Program Files\Microsoft Visual Studio\2022\Community\VC\Tools\MSVC\14.44.35207\include\utility

; 274  :         : first(_STD forward<_Other1>(_Val1)), second(_STD forward<_Other2>(_Val2)) {

  00234	89 31		 mov	 DWORD PTR [ecx], esi
; File C:\Program Files\Microsoft Visual Studio\2022\Community\VC\Tools\MSVC\14.44.35207\include\algorithm

; 8343 :             return pair<_RanIt, _RanIt>(_Pfirst, _Plast);

  00236	5e		 pop	 esi
; File C:\Program Files\Microsoft Visual Studio\2022\Community\VC\Tools\MSVC\14.44.35207\include\utility

; 274  :         : first(_STD forward<_Other1>(_Val1)), second(_STD forward<_Other2>(_Val2)) {

  00237	89 41 04	 mov	 DWORD PTR [ecx+4], eax
; File C:\Program Files\Microsoft Visual Studio\2022\Community\VC\Tools\MSVC\14.44.35207\include\algorithm

; 8343 :             return pair<_RanIt, _RanIt>(_Pfirst, _Plast);

  0023a	8b c1		 mov	 eax, ecx
  0023c	5b		 pop	 ebx

; 8364 :         }
; 8365 :     }
; 8366 : }

  0023d	8b e5		 mov	 esp, ebp
  0023f	5d		 pop	 ebp
  00240	c3		 ret	 0
??$_Partition_by_median_guess_unchecked@PAU?$pair@PAVCInstanceBase@@M@std@@P6A_NABU12@0@Z@std@@YA?AU?$pair@PAU?$pair@PAVCInstanceBase@@M@std@@PAU12@@0@PAU?$pair@PAVCInstanceBase@@M@0@0P6A_NABU20@1@Z@Z ENDP ; std::_Partition_by_median_guess_unchecked<std::pair<CInstanceBase *,float> *,bool (__cdecl*)(std::pair<CInstanceBase *,float> const &,std::pair<CInstanceBase *,float> const &)>
_TEXT	ENDS
; Function compile flags: /Ogtp
; File C:\Program Files\Microsoft Visual Studio\2022\Community\VC\Tools\MSVC\14.44.35207\include\utility
;	COMDAT ??$exchange@PAU?$_Tree_node@U?$pair@$$CBKPAVCInstanceBase@@@std@@PAX@std@@AAPAU12@@std@@YAPAU?$_Tree_node@U?$pair@$$CBKPAVCInstanceBase@@@std@@PAX@0@AAPAU10@0@Z
_TEXT	SEGMENT
??$exchange@PAU?$_Tree_node@U?$pair@$$CBKPAVCInstanceBase@@@std@@PAX@std@@AAPAU12@@std@@YAPAU?$_Tree_node@U?$pair@$$CBKPAVCInstanceBase@@@std@@PAX@0@AAPAU10@0@Z PROC ; std::exchange<std::_Tree_node<std::pair<unsigned long const ,CInstanceBase *>,void *> *,std::_Tree_node<std::pair<unsigned long const ,CInstanceBase *>,void *> * &>, COMDAT
; __Val$ = ecx
; __New_val$ = edx

; 772  :     // assign _New_val to _Val, return previous _Val
; 773  :     _Ty _Old_val = static_cast<_Ty&&>(_Val);

  00000	8b 01		 mov	 eax, DWORD PTR [ecx]

; 774  :     _Val         = static_cast<_Other&&>(_New_val);

  00002	8b 12		 mov	 edx, DWORD PTR [edx]
  00004	89 11		 mov	 DWORD PTR [ecx], edx

; 775  :     return _Old_val;
; 776  : }

  00006	c3		 ret	 0
??$exchange@PAU?$_Tree_node@U?$pair@$$CBKPAVCInstanceBase@@@std@@PAX@std@@AAPAU12@@std@@YAPAU?$_Tree_node@U?$pair@$$CBKPAVCInstanceBase@@@std@@PAX@0@AAPAU10@0@Z ENDP ; std::exchange<std::_Tree_node<std::pair<unsigned long const ,CInstanceBase *>,void *> *,std::_Tree_node<std::pair<unsigned long const ,CInstanceBase *>,void *> * &>
_TEXT	ENDS
; Function compile flags: /Ogtp
; File C:\Program Files\Microsoft Visual Studio\2022\Community\VC\Tools\MSVC\14.44.35207\include\xutility
;	COMDAT ??$_Construct_in_place@PAU?$_List_node@PAVCInstanceBase@@PAX@std@@AAPAU12@@std@@YAXAAPAU?$_List_node@PAVCInstanceBase@@PAX@0@0@Z
_TEXT	SEGMENT
??$_Construct_in_place@PAU?$_List_node@PAVCInstanceBase@@PAX@std@@AAPAU12@@std@@YAXAAPAU?$_List_node@PAVCInstanceBase@@PAX@0@0@Z PROC ; std::_Construct_in_place<std::_List_node<CInstanceBase *,void *> *,std::_List_node<CInstanceBase *,void *> * &>, COMDAT
; __Obj$ = ecx
; _<_Args_0>$ = edx

; 470  : #if _HAS_CXX20
; 471  :     if (_STD is_constant_evaluated()) {
; 472  :         _STD construct_at(_STD addressof(_Obj), _STD forward<_Types>(_Args)...);
; 473  :     } else
; 474  : #endif // _HAS_CXX20
; 475  :     {
; 476  :         ::new (static_cast<void*>(_STD addressof(_Obj))) _Ty(_STD forward<_Types>(_Args)...);
; 477  :     }
; 478  : }

  00000	8b 02		 mov	 eax, DWORD PTR [edx]
  00002	89 01		 mov	 DWORD PTR [ecx], eax
  00004	c3		 ret	 0
??$_Construct_in_place@PAU?$_List_node@PAVCInstanceBase@@PAX@std@@AAPAU12@@std@@YAXAAPAU?$_List_node@PAVCInstanceBase@@PAX@0@0@Z ENDP ; std::_Construct_in_place<std::_List_node<CInstanceBase *,void *> *,std::_List_node<CInstanceBase *,void *> * &>
_TEXT	ENDS
; Function compile flags: /Ogtp
; File C:\Program Files\Microsoft Visual Studio\2022\Community\VC\Tools\MSVC\14.44.35207\include\list
;	COMDAT ?_Transfer_before@?$_List_node_emplace_op2@V?$allocator@U?$_List_node@PAVCInstanceBase@@PAX@std@@@std@@@std@@QAEPAU?$_List_node@PAVCInstanceBase@@PAX@2@QAU32@@Z
_TEXT	SEGMENT
__Insert_before$ = 8					; size = 4
?_Transfer_before@?$_List_node_emplace_op2@V?$allocator@U?$_List_node@PAVCInstanceBase@@PAX@std@@@std@@@std@@QAEPAU?$_List_node@PAVCInstanceBase@@PAX@2@QAU32@@Z PROC ; std::_List_node_emplace_op2<std::allocator<std::_List_node<CInstanceBase *,void *> > >::_Transfer_before, COMDAT
; _this$ = ecx

; 607  :     pointer _Transfer_before(const pointer _Insert_before) noexcept {

  00000	55		 push	 ebp
  00001	8b ec		 mov	 ebp, esp

; 608  :         const pointer _Insert_after = _Insert_before->_Prev;
; 609  :         _Construct_in_place(this->_Ptr->_Next, _Insert_before);

  00003	8b 41 04	 mov	 eax, DWORD PTR [ecx+4]
  00006	56		 push	 esi
  00007	8b 75 08	 mov	 esi, DWORD PTR __Insert_before$[ebp]
  0000a	8b 56 04	 mov	 edx, DWORD PTR [esi+4]
  0000d	89 30		 mov	 DWORD PTR [eax], esi

; 610  :         _Construct_in_place(this->_Ptr->_Prev, _Insert_after);

  0000f	8b 41 04	 mov	 eax, DWORD PTR [ecx+4]
  00012	89 50 04	 mov	 DWORD PTR [eax+4], edx

; 611  :         const auto _Result    = this->_Ptr;

  00015	8b 41 04	 mov	 eax, DWORD PTR [ecx+4]

; 612  :         this->_Ptr            = pointer{};

  00018	c7 41 04 00 00
	00 00		 mov	 DWORD PTR [ecx+4], 0

; 613  :         _Insert_before->_Prev = _Result;

  0001f	89 46 04	 mov	 DWORD PTR [esi+4], eax

; 614  :         _Insert_after->_Next  = _Result;

  00022	89 02		 mov	 DWORD PTR [edx], eax

; 615  :         return _Result;

  00024	5e		 pop	 esi

; 616  :     }

  00025	5d		 pop	 ebp
  00026	c2 04 00	 ret	 4
?_Transfer_before@?$_List_node_emplace_op2@V?$allocator@U?$_List_node@PAVCInstanceBase@@PAX@std@@@std@@@std@@QAEPAU?$_List_node@PAVCInstanceBase@@PAX@2@QAU32@@Z ENDP ; std::_List_node_emplace_op2<std::allocator<std::_List_node<CInstanceBase *,void *> > >::_Transfer_before
_TEXT	ENDS
; Function compile flags: /Ogtp
; File C:\Program Files\Microsoft Visual Studio\2022\Community\VC\Tools\MSVC\14.44.35207\include\xtree
;	COMDAT ?_Insert_node@?$_Tree_val@U?$_Tree_simple_types@U?$pair@$$CBKPAVCInstanceBase@@@std@@@std@@@std@@QAEPAU?$_Tree_node@U?$pair@$$CBKPAVCInstanceBase@@@std@@PAX@2@U?$_Tree_id@PAU?$_Tree_node@U?$pair@$$CBKPAVCInstanceBase@@@std@@PAX@std@@@2@QAU32@@Z
_TEXT	SEGMENT
__Head$1$ = -4						; size = 4
__Loc$ = 8						; size = 8
__Newnode$ = 16						; size = 4
?_Insert_node@?$_Tree_val@U?$_Tree_simple_types@U?$pair@$$CBKPAVCInstanceBase@@@std@@@std@@@std@@QAEPAU?$_Tree_node@U?$pair@$$CBKPAVCInstanceBase@@@std@@PAX@2@U?$_Tree_id@PAU?$_Tree_node@U?$pair@$$CBKPAVCInstanceBase@@@std@@PAX@std@@@2@QAU32@@Z PROC ; std::_Tree_val<std::_Tree_simple_types<std::pair<unsigned long const ,CInstanceBase *> > >::_Insert_node, COMDAT
; _this$ = ecx

; 669  :     _Nodeptr _Insert_node(const _Tree_id<_Nodeptr> _Loc, const _Nodeptr _Newnode) noexcept {

  00000	55		 push	 ebp
  00001	8b ec		 mov	 ebp, esp
  00003	51		 push	 ecx

; 670  :         ++_Mysize;
; 671  :         const auto _Head  = _Myhead;
; 672  :         _Newnode->_Parent = _Loc._Parent;

  00004	8b 55 08	 mov	 edx, DWORD PTR __Loc$[ebp]
  00007	53		 push	 ebx
  00008	8b d9		 mov	 ebx, ecx
  0000a	57		 push	 edi
  0000b	8b 7d 10	 mov	 edi, DWORD PTR __Newnode$[ebp]
  0000e	8b 03		 mov	 eax, DWORD PTR [ebx]
  00010	ff 43 04	 inc	 DWORD PTR [ebx+4]
  00013	89 45 fc	 mov	 DWORD PTR __Head$1$[ebp], eax
  00016	89 57 04	 mov	 DWORD PTR [edi+4], edx

; 673  :         if (_Loc._Parent == _Head) { // first node in tree, just set head values

  00019	3b d0		 cmp	 edx, eax
  0001b	75 16		 jne	 SHORT $LN5@Insert_nod

; 674  :             _Head->_Left     = _Newnode;

  0001d	89 38		 mov	 DWORD PTR [eax], edi

; 675  :             _Head->_Parent   = _Newnode;

  0001f	89 78 04	 mov	 DWORD PTR [eax+4], edi

; 676  :             _Head->_Right    = _Newnode;

  00022	89 78 08	 mov	 DWORD PTR [eax+8], edi

; 735  :         return _Newnode;
; 736  :     }

  00025	8b c7		 mov	 eax, edi
  00027	c6 47 0c 01	 mov	 BYTE PTR [edi+12], 1
  0002b	5f		 pop	 edi
  0002c	5b		 pop	 ebx
  0002d	8b e5		 mov	 esp, ebp
  0002f	5d		 pop	 ebp
  00030	c2 0c 00	 ret	 12			; 0000000cH
$LN5@Insert_nod:

; 677  :             _Newnode->_Color = _Black; // the root is black
; 678  :             return _Newnode;
; 679  :         }
; 680  : 
; 681  :         _STL_INTERNAL_CHECK(_Loc._Child != _Tree_child::_Unused);
; 682  :         if (_Loc._Child == _Tree_child::_Right) { // add to right of _Loc._Parent

  00033	83 7d 0c 00	 cmp	 DWORD PTR __Loc$[ebp+4], 0
  00037	75 0d		 jne	 SHORT $LN6@Insert_nod

; 683  :             _STL_INTERNAL_CHECK(_Loc._Parent->_Right->_Isnil);
; 684  :             _Loc._Parent->_Right = _Newnode;

  00039	89 7a 08	 mov	 DWORD PTR [edx+8], edi

; 685  :             if (_Loc._Parent == _Head->_Right) { // remember rightmost node

  0003c	3b 50 08	 cmp	 edx, DWORD PTR [eax+8]
  0003f	75 0d		 jne	 SHORT $LN9@Insert_nod

; 686  :                 _Head->_Right = _Newnode;

  00041	89 78 08	 mov	 DWORD PTR [eax+8], edi

; 687  :             }
; 688  :         } else { // add to left of _Loc._Parent

  00044	eb 08		 jmp	 SHORT $LN9@Insert_nod
$LN6@Insert_nod:

; 689  :             _STL_INTERNAL_CHECK(_Loc._Parent->_Left->_Isnil);
; 690  :             _Loc._Parent->_Left = _Newnode;

  00046	89 3a		 mov	 DWORD PTR [edx], edi

; 691  :             if (_Loc._Parent == _Head->_Left) { // remember leftmost node

  00048	3b 10		 cmp	 edx, DWORD PTR [eax]
  0004a	75 02		 jne	 SHORT $LN9@Insert_nod

; 692  :                 _Head->_Left = _Newnode;

  0004c	89 38		 mov	 DWORD PTR [eax], edi
$LN9@Insert_nod:

; 693  :             }
; 694  :         }
; 695  : 
; 696  :         for (_Nodeptr _Pnode = _Newnode; _Pnode->_Parent->_Color == _Red;) {

  0004e	8b 4f 04	 mov	 ecx, DWORD PTR [edi+4]
  00051	8b c7		 mov	 eax, edi
  00053	80 79 0c 00	 cmp	 BYTE PTR [ecx+12], 0
  00057	0f 85 7d 01 00
	00		 jne	 $LN3@Insert_nod
  0005d	56		 push	 esi
  0005e	66 90		 npad	 2
$LL4@Insert_nod:

; 697  :             if (_Pnode->_Parent == _Pnode->_Parent->_Parent->_Left) { // fixup red-red in left subtree

  00060	8b 50 04	 mov	 edx, DWORD PTR [eax+4]
  00063	8b 72 04	 mov	 esi, DWORD PTR [edx+4]
  00066	8b 0e		 mov	 ecx, DWORD PTR [esi]
  00068	3b d1		 cmp	 edx, ecx
  0006a	0f 85 aa 00 00
	00		 jne	 $LN10@Insert_nod

; 698  :                 const auto _Parent_sibling = _Pnode->_Parent->_Parent->_Right;

  00070	8b 4e 08	 mov	 ecx, DWORD PTR [esi+8]

; 699  :                 if (_Parent_sibling->_Color == _Red) { // parent's sibling has two red children, blacken both

  00073	80 79 0c 00	 cmp	 BYTE PTR [ecx+12], 0
  00077	0f 84 a3 00 00
	00		 je	 $LN82@Insert_nod

; 700  :                     _Pnode->_Parent->_Color          = _Black;
; 701  :                     _Parent_sibling->_Color          = _Black;
; 702  :                     _Pnode->_Parent->_Parent->_Color = _Red;
; 703  :                     _Pnode                           = _Pnode->_Parent->_Parent;
; 704  :                 } else { // parent's sibling has red and black children
; 705  :                     if (_Pnode == _Pnode->_Parent->_Right) { // rotate right child to left

  0007d	8b 72 08	 mov	 esi, DWORD PTR [edx+8]
  00080	3b c6		 cmp	 eax, esi
  00082	75 37		 jne	 SHORT $LN57@Insert_nod

; 485  :         _Wherenode->_Right = _Pnode->_Left;

  00084	8b 0e		 mov	 ecx, DWORD PTR [esi]

; 706  :                         _Pnode = _Pnode->_Parent;

  00086	8b c2		 mov	 eax, edx

; 485  :         _Wherenode->_Right = _Pnode->_Left;

  00088	89 4a 08	 mov	 DWORD PTR [edx+8], ecx

; 486  : 
; 487  :         if (!_Pnode->_Left->_Isnil) {

  0008b	8b 0e		 mov	 ecx, DWORD PTR [esi]
  0008d	80 79 0d 00	 cmp	 BYTE PTR [ecx+13], 0
  00091	75 03		 jne	 SHORT $LN21@Insert_nod

; 488  :             _Pnode->_Left->_Parent = _Wherenode;

  00093	89 41 04	 mov	 DWORD PTR [ecx+4], eax
$LN21@Insert_nod:

; 489  :         }
; 490  : 
; 491  :         _Pnode->_Parent = _Wherenode->_Parent;

  00096	8b 4a 04	 mov	 ecx, DWORD PTR [edx+4]
  00099	89 4e 04	 mov	 DWORD PTR [esi+4], ecx

; 492  : 
; 493  :         if (_Wherenode == _Myhead->_Parent) {

  0009c	8b 0b		 mov	 ecx, DWORD PTR [ebx]
  0009e	3b 41 04	 cmp	 eax, DWORD PTR [ecx+4]
  000a1	75 05		 jne	 SHORT $LN22@Insert_nod

; 494  :             _Myhead->_Parent = _Pnode;

  000a3	89 71 04	 mov	 DWORD PTR [ecx+4], esi
  000a6	eb 0e		 jmp	 SHORT $LN25@Insert_nod
$LN22@Insert_nod:

; 495  :         } else if (_Wherenode == _Wherenode->_Parent->_Left) {

  000a8	8b 4a 04	 mov	 ecx, DWORD PTR [edx+4]
  000ab	3b 01		 cmp	 eax, DWORD PTR [ecx]
  000ad	75 04		 jne	 SHORT $LN24@Insert_nod

; 496  :             _Wherenode->_Parent->_Left = _Pnode;

  000af	89 31		 mov	 DWORD PTR [ecx], esi

; 497  :         } else {

  000b1	eb 03		 jmp	 SHORT $LN25@Insert_nod
$LN24@Insert_nod:

; 498  :             _Wherenode->_Parent->_Right = _Pnode;

  000b3	89 71 08	 mov	 DWORD PTR [ecx+8], esi
$LN25@Insert_nod:

; 499  :         }
; 500  : 
; 501  :         _Pnode->_Left       = _Wherenode;

  000b6	89 06		 mov	 DWORD PTR [esi], eax

; 502  :         _Wherenode->_Parent = _Pnode;

  000b8	89 70 04	 mov	 DWORD PTR [eax+4], esi
$LN57@Insert_nod:

; 707  :                         _Lrotate(_Pnode);
; 708  :                     }
; 709  : 
; 710  :                     _Pnode->_Parent->_Color          = _Black; // propagate red up

  000bb	8b 48 04	 mov	 ecx, DWORD PTR [eax+4]
  000be	c6 41 0c 01	 mov	 BYTE PTR [ecx+12], 1

; 711  :                     _Pnode->_Parent->_Parent->_Color = _Red;

  000c2	8b 48 04	 mov	 ecx, DWORD PTR [eax+4]
  000c5	8b 49 04	 mov	 ecx, DWORD PTR [ecx+4]
  000c8	c6 41 0c 00	 mov	 BYTE PTR [ecx+12], 0

; 712  :                     _Rrotate(_Pnode->_Parent->_Parent);

  000cc	8b 48 04	 mov	 ecx, DWORD PTR [eax+4]
  000cf	8b 51 04	 mov	 edx, DWORD PTR [ecx+4]

; 506  :         _Nodeptr _Pnode   = _Wherenode->_Left;

  000d2	8b 32		 mov	 esi, DWORD PTR [edx]

; 507  :         _Wherenode->_Left = _Pnode->_Right;

  000d4	8b 4e 08	 mov	 ecx, DWORD PTR [esi+8]
  000d7	89 0a		 mov	 DWORD PTR [edx], ecx

; 508  : 
; 509  :         if (!_Pnode->_Right->_Isnil) {

  000d9	8b 4e 08	 mov	 ecx, DWORD PTR [esi+8]
  000dc	80 79 0d 00	 cmp	 BYTE PTR [ecx+13], 0
  000e0	75 03		 jne	 SHORT $LN29@Insert_nod

; 510  :             _Pnode->_Right->_Parent = _Wherenode;

  000e2	89 51 04	 mov	 DWORD PTR [ecx+4], edx
$LN29@Insert_nod:

; 511  :         }
; 512  : 
; 513  :         _Pnode->_Parent = _Wherenode->_Parent;

  000e5	8b 4a 04	 mov	 ecx, DWORD PTR [edx+4]
  000e8	89 4e 04	 mov	 DWORD PTR [esi+4], ecx

; 514  : 
; 515  :         if (_Wherenode == _Myhead->_Parent) {

  000eb	8b 0b		 mov	 ecx, DWORD PTR [ebx]
  000ed	3b 51 04	 cmp	 edx, DWORD PTR [ecx+4]
  000f0	75 0b		 jne	 SHORT $LN30@Insert_nod

; 516  :             _Myhead->_Parent = _Pnode;

  000f2	89 71 04	 mov	 DWORD PTR [ecx+4], esi

; 521  :         }
; 522  : 
; 523  :         _Pnode->_Right      = _Wherenode;

  000f5	89 56 08	 mov	 DWORD PTR [esi+8], edx

; 713  :                 }
; 714  :             } else { // fixup red-red in right subtree

  000f8	e9 cc 00 00 00	 jmp	 $LN81@Insert_nod
$LN30@Insert_nod:

; 517  :         } else if (_Wherenode == _Wherenode->_Parent->_Right) {

  000fd	8b 4a 04	 mov	 ecx, DWORD PTR [edx+4]
  00100	3b 51 08	 cmp	 edx, DWORD PTR [ecx+8]
  00103	75 0b		 jne	 SHORT $LN32@Insert_nod

; 518  :             _Wherenode->_Parent->_Right = _Pnode;

  00105	89 71 08	 mov	 DWORD PTR [ecx+8], esi

; 521  :         }
; 522  : 
; 523  :         _Pnode->_Right      = _Wherenode;

  00108	89 56 08	 mov	 DWORD PTR [esi+8], edx

; 713  :                 }
; 714  :             } else { // fixup red-red in right subtree

  0010b	e9 b9 00 00 00	 jmp	 $LN81@Insert_nod
$LN32@Insert_nod:

; 520  :             _Wherenode->_Parent->_Left = _Pnode;

  00110	89 31		 mov	 DWORD PTR [ecx], esi

; 521  :         }
; 522  : 
; 523  :         _Pnode->_Right      = _Wherenode;

  00112	89 56 08	 mov	 DWORD PTR [esi+8], edx

; 713  :                 }
; 714  :             } else { // fixup red-red in right subtree

  00115	e9 af 00 00 00	 jmp	 $LN81@Insert_nod
$LN10@Insert_nod:

; 715  :                 const auto _Parent_sibling = _Pnode->_Parent->_Parent->_Left;
; 716  :                 if (_Parent_sibling->_Color == _Red) { // parent's sibling has two red children, blacken both

  0011a	80 79 0c 00	 cmp	 BYTE PTR [ecx+12], 0
  0011e	75 1d		 jne	 SHORT $LN15@Insert_nod
$LN82@Insert_nod:

; 693  :             }
; 694  :         }
; 695  : 
; 696  :         for (_Nodeptr _Pnode = _Newnode; _Pnode->_Parent->_Color == _Red;) {

  00120	c6 42 0c 01	 mov	 BYTE PTR [edx+12], 1
  00124	c6 41 0c 01	 mov	 BYTE PTR [ecx+12], 1
  00128	8b 48 04	 mov	 ecx, DWORD PTR [eax+4]
  0012b	8b 49 04	 mov	 ecx, DWORD PTR [ecx+4]
  0012e	c6 41 0c 00	 mov	 BYTE PTR [ecx+12], 0
  00132	8b 48 04	 mov	 ecx, DWORD PTR [eax+4]
  00135	8b 41 04	 mov	 eax, DWORD PTR [ecx+4]
  00138	e9 8f 00 00 00	 jmp	 $LN2@Insert_nod
$LN15@Insert_nod:

; 717  :                     _Pnode->_Parent->_Color          = _Black;
; 718  :                     _Parent_sibling->_Color          = _Black;
; 719  :                     _Pnode->_Parent->_Parent->_Color = _Red;
; 720  :                     _Pnode                           = _Pnode->_Parent->_Parent;
; 721  :                 } else { // parent's sibling has red and black children
; 722  :                     if (_Pnode == _Pnode->_Parent->_Left) { // rotate left child to right

  0013d	8b 32		 mov	 esi, DWORD PTR [edx]
  0013f	3b c6		 cmp	 eax, esi
  00141	75 3a		 jne	 SHORT $LN42@Insert_nod

; 507  :         _Wherenode->_Left = _Pnode->_Right;

  00143	8b 4e 08	 mov	 ecx, DWORD PTR [esi+8]

; 723  :                         _Pnode = _Pnode->_Parent;

  00146	8b c2		 mov	 eax, edx

; 507  :         _Wherenode->_Left = _Pnode->_Right;

  00148	89 08		 mov	 DWORD PTR [eax], ecx

; 508  : 
; 509  :         if (!_Pnode->_Right->_Isnil) {

  0014a	8b 4e 08	 mov	 ecx, DWORD PTR [esi+8]
  0014d	80 79 0d 00	 cmp	 BYTE PTR [ecx+13], 0
  00151	75 03		 jne	 SHORT $LN37@Insert_nod

; 510  :             _Pnode->_Right->_Parent = _Wherenode;

  00153	89 41 04	 mov	 DWORD PTR [ecx+4], eax
$LN37@Insert_nod:

; 511  :         }
; 512  : 
; 513  :         _Pnode->_Parent = _Wherenode->_Parent;

  00156	8b 4a 04	 mov	 ecx, DWORD PTR [edx+4]
  00159	89 4e 04	 mov	 DWORD PTR [esi+4], ecx

; 514  : 
; 515  :         if (_Wherenode == _Myhead->_Parent) {

  0015c	8b 0b		 mov	 ecx, DWORD PTR [ebx]
  0015e	3b 41 04	 cmp	 eax, DWORD PTR [ecx+4]
  00161	75 05		 jne	 SHORT $LN38@Insert_nod

; 516  :             _Myhead->_Parent = _Pnode;

  00163	89 71 04	 mov	 DWORD PTR [ecx+4], esi
  00166	eb 0f		 jmp	 SHORT $LN41@Insert_nod
$LN38@Insert_nod:

; 517  :         } else if (_Wherenode == _Wherenode->_Parent->_Right) {

  00168	8b 4a 04	 mov	 ecx, DWORD PTR [edx+4]
  0016b	3b 41 08	 cmp	 eax, DWORD PTR [ecx+8]
  0016e	75 05		 jne	 SHORT $LN40@Insert_nod

; 518  :             _Wherenode->_Parent->_Right = _Pnode;

  00170	89 71 08	 mov	 DWORD PTR [ecx+8], esi

; 519  :         } else {

  00173	eb 02		 jmp	 SHORT $LN41@Insert_nod
$LN40@Insert_nod:

; 520  :             _Wherenode->_Parent->_Left = _Pnode;

  00175	89 31		 mov	 DWORD PTR [ecx], esi
$LN41@Insert_nod:

; 521  :         }
; 522  : 
; 523  :         _Pnode->_Right      = _Wherenode;

  00177	89 46 08	 mov	 DWORD PTR [esi+8], eax

; 524  :         _Wherenode->_Parent = _Pnode;

  0017a	89 70 04	 mov	 DWORD PTR [eax+4], esi
$LN42@Insert_nod:

; 724  :                         _Rrotate(_Pnode);
; 725  :                     }
; 726  : 
; 727  :                     _Pnode->_Parent->_Color          = _Black; // propagate red up

  0017d	8b 48 04	 mov	 ecx, DWORD PTR [eax+4]
  00180	c6 41 0c 01	 mov	 BYTE PTR [ecx+12], 1

; 728  :                     _Pnode->_Parent->_Parent->_Color = _Red;

  00184	8b 48 04	 mov	 ecx, DWORD PTR [eax+4]
  00187	8b 49 04	 mov	 ecx, DWORD PTR [ecx+4]
  0018a	c6 41 0c 00	 mov	 BYTE PTR [ecx+12], 0

; 729  :                     _Lrotate(_Pnode->_Parent->_Parent);

  0018e	8b 48 04	 mov	 ecx, DWORD PTR [eax+4]
  00191	8b 51 04	 mov	 edx, DWORD PTR [ecx+4]

; 484  :         _Nodeptr _Pnode    = _Wherenode->_Right;

  00194	8b 72 08	 mov	 esi, DWORD PTR [edx+8]

; 485  :         _Wherenode->_Right = _Pnode->_Left;

  00197	8b 0e		 mov	 ecx, DWORD PTR [esi]
  00199	89 4a 08	 mov	 DWORD PTR [edx+8], ecx

; 486  : 
; 487  :         if (!_Pnode->_Left->_Isnil) {

  0019c	8b 0e		 mov	 ecx, DWORD PTR [esi]
  0019e	80 79 0d 00	 cmp	 BYTE PTR [ecx+13], 0
  001a2	75 03		 jne	 SHORT $LN45@Insert_nod

; 488  :             _Pnode->_Left->_Parent = _Wherenode;

  001a4	89 51 04	 mov	 DWORD PTR [ecx+4], edx
$LN45@Insert_nod:

; 489  :         }
; 490  : 
; 491  :         _Pnode->_Parent = _Wherenode->_Parent;

  001a7	8b 4a 04	 mov	 ecx, DWORD PTR [edx+4]
  001aa	89 4e 04	 mov	 DWORD PTR [esi+4], ecx

; 492  : 
; 493  :         if (_Wherenode == _Myhead->_Parent) {

  001ad	8b 0b		 mov	 ecx, DWORD PTR [ebx]
  001af	3b 51 04	 cmp	 edx, DWORD PTR [ecx+4]
  001b2	75 05		 jne	 SHORT $LN46@Insert_nod

; 494  :             _Myhead->_Parent = _Pnode;

  001b4	89 71 04	 mov	 DWORD PTR [ecx+4], esi
  001b7	eb 0e		 jmp	 SHORT $LN49@Insert_nod
$LN46@Insert_nod:

; 495  :         } else if (_Wherenode == _Wherenode->_Parent->_Left) {

  001b9	8b 4a 04	 mov	 ecx, DWORD PTR [edx+4]
  001bc	3b 11		 cmp	 edx, DWORD PTR [ecx]
  001be	75 04		 jne	 SHORT $LN48@Insert_nod

; 496  :             _Wherenode->_Parent->_Left = _Pnode;

  001c0	89 31		 mov	 DWORD PTR [ecx], esi

; 497  :         } else {

  001c2	eb 03		 jmp	 SHORT $LN49@Insert_nod
$LN48@Insert_nod:

; 498  :             _Wherenode->_Parent->_Right = _Pnode;

  001c4	89 71 08	 mov	 DWORD PTR [ecx+8], esi
$LN49@Insert_nod:

; 499  :         }
; 500  : 
; 501  :         _Pnode->_Left       = _Wherenode;

  001c7	89 16		 mov	 DWORD PTR [esi], edx
$LN81@Insert_nod:

; 693  :             }
; 694  :         }
; 695  : 
; 696  :         for (_Nodeptr _Pnode = _Newnode; _Pnode->_Parent->_Color == _Red;) {

  001c9	89 72 04	 mov	 DWORD PTR [edx+4], esi
$LN2@Insert_nod:
  001cc	8b 48 04	 mov	 ecx, DWORD PTR [eax+4]
  001cf	80 79 0c 00	 cmp	 BYTE PTR [ecx+12], 0
  001d3	0f 84 87 fe ff
	ff		 je	 $LL4@Insert_nod
  001d9	5e		 pop	 esi
$LN3@Insert_nod:

; 730  :                 }
; 731  :             }
; 732  :         }
; 733  : 
; 734  :         _Head->_Parent->_Color = _Black; // root is always black

  001da	8b 45 fc	 mov	 eax, DWORD PTR __Head$1$[ebp]
  001dd	8b 40 04	 mov	 eax, DWORD PTR [eax+4]
  001e0	c6 40 0c 01	 mov	 BYTE PTR [eax+12], 1

; 735  :         return _Newnode;
; 736  :     }

  001e4	8b c7		 mov	 eax, edi
  001e6	5f		 pop	 edi
  001e7	5b		 pop	 ebx
  001e8	8b e5		 mov	 esp, ebp
  001ea	5d		 pop	 ebp
  001eb	c2 0c 00	 ret	 12			; 0000000cH
?_Insert_node@?$_Tree_val@U?$_Tree_simple_types@U?$pair@$$CBKPAVCInstanceBase@@@std@@@std@@@std@@QAEPAU?$_Tree_node@U?$pair@$$CBKPAVCInstanceBase@@@std@@PAX@2@U?$_Tree_id@PAU?$_Tree_node@U?$pair@$$CBKPAVCInstanceBase@@@std@@PAX@std@@@2@QAU32@@Z ENDP ; std::_Tree_val<std::_Tree_simple_types<std::pair<unsigned long const ,CInstanceBase *> > >::_Insert_node
_TEXT	ENDS
; Function compile flags: /Ogtp
; File C:\Program Files\Microsoft Visual Studio\2022\Community\VC\Tools\MSVC\14.44.35207\include\xutility
;	COMDAT ??$_Move_backward_unchecked@PAPAVCInstanceBase@@PAPAV1@@std@@YAPAPAVCInstanceBase@@PAPAV1@00@Z
_TEXT	SEGMENT
__Dest$ = 8						; size = 4
??$_Move_backward_unchecked@PAPAVCInstanceBase@@PAPAV1@@std@@YAPAPAVCInstanceBase@@PAPAV1@00@Z PROC ; std::_Move_backward_unchecked<CInstanceBase * *,CInstanceBase * *>, COMDAT
; __First$ = ecx
; __Last$ = edx

; 5182 : _CONSTEXPR20 _BidIt2 _Move_backward_unchecked(_BidIt1 _First, _BidIt1 _Last, _BidIt2 _Dest) {

  00000	55		 push	 ebp
  00001	8b ec		 mov	 ebp, esp

; 5191 :         }
; 5192 :     }
; 5193 : 
; 5194 :     while (_First != _Last) {
; 5195 :         *--_Dest = _STD move(*--_Last);
; 5196 :     }
; 5197 : 
; 5198 :     return _Dest;
; 5199 : }

  00003	5d		 pop	 ebp

; 5183 :     // move [_First, _Last) backwards to [..., _Dest)
; 5184 :     // note: _Move_backward_unchecked has callers other than the move_backward family
; 5185 :     if constexpr (_Iter_move_cat<_BidIt1, _BidIt2>::_Bitcopy_assignable) {
; 5186 : #if _HAS_CXX20
; 5187 :         if (!_STD is_constant_evaluated())
; 5188 : #endif // _HAS_CXX20
; 5189 :         {
; 5190 :             return _STD _Copy_backward_memmove(_First, _Last, _Dest);

  00004	e9 00 00 00 00	 jmp	 ??$_Copy_backward_memmove@PAPAVCInstanceBase@@PAPAV1@@std@@YAPAPAVCInstanceBase@@PAPAV1@00@Z ; std::_Copy_backward_memmove<CInstanceBase * *,CInstanceBase * *>
??$_Move_backward_unchecked@PAPAVCInstanceBase@@PAPAV1@@std@@YAPAPAVCInstanceBase@@PAPAV1@00@Z ENDP ; std::_Move_backward_unchecked<CInstanceBase * *,CInstanceBase * *>
_TEXT	ENDS
; Function compile flags: /Ogtp
; File C:\Program Files\Microsoft Visual Studio\2022\Community\VC\Tools\MSVC\14.44.35207\include\utility
;	COMDAT ??$?0AAPAPAVCInstanceBase@@AAPAPAV0@$0A@@?$pair@PAPAVCInstanceBase@@PAPAV1@@std@@QAE@AAPAPAVCInstanceBase@@0@Z
_TEXT	SEGMENT
__Val1$ = 8						; size = 4
__Val2$ = 12						; size = 4
??$?0AAPAPAVCInstanceBase@@AAPAPAV0@$0A@@?$pair@PAPAVCInstanceBase@@PAPAV1@@std@@QAE@AAPAPAVCInstanceBase@@0@Z PROC ; std::pair<CInstanceBase * *,CInstanceBase * *>::pair<CInstanceBase * *,CInstanceBase * *><CInstanceBase * * &,CInstanceBase * * &,0>, COMDAT
; _this$ = ecx

; 274  :         : first(_STD forward<_Other1>(_Val1)), second(_STD forward<_Other2>(_Val2)) {

  00000	55		 push	 ebp
  00001	8b ec		 mov	 ebp, esp
  00003	8b 45 08	 mov	 eax, DWORD PTR __Val1$[ebp]
  00006	8b 00		 mov	 eax, DWORD PTR [eax]
  00008	89 01		 mov	 DWORD PTR [ecx], eax
  0000a	8b 45 0c	 mov	 eax, DWORD PTR __Val2$[ebp]
  0000d	8b 00		 mov	 eax, DWORD PTR [eax]
  0000f	89 41 04	 mov	 DWORD PTR [ecx+4], eax

; 275  :     }

  00012	8b c1		 mov	 eax, ecx
  00014	5d		 pop	 ebp
  00015	c2 08 00	 ret	 8
??$?0AAPAPAVCInstanceBase@@AAPAPAV0@$0A@@?$pair@PAPAVCInstanceBase@@PAPAV1@@std@@QAE@AAPAPAVCInstanceBase@@0@Z ENDP ; std::pair<CInstanceBase * *,CInstanceBase * *>::pair<CInstanceBase * *,CInstanceBase * *><CInstanceBase * * &,CInstanceBase * * &,0>
_TEXT	ENDS
; Function compile flags: /Ogtp
; File C:\Program Files\Microsoft Visual Studio\2022\Community\VC\Tools\MSVC\14.44.35207\include\xutility
;	COMDAT ??$_Construct_in_place@PAU?$_Tree_node@U?$pair@$$CBKPAVCInstanceBase@@@std@@PAX@std@@AAPAU12@@std@@YAXAAPAU?$_Tree_node@U?$pair@$$CBKPAVCInstanceBase@@@std@@PAX@0@0@Z
_TEXT	SEGMENT
??$_Construct_in_place@PAU?$_Tree_node@U?$pair@$$CBKPAVCInstanceBase@@@std@@PAX@std@@AAPAU12@@std@@YAXAAPAU?$_Tree_node@U?$pair@$$CBKPAVCInstanceBase@@@std@@PAX@0@0@Z PROC ; std::_Construct_in_place<std::_Tree_node<std::pair<unsigned long const ,CInstanceBase *>,void *> *,std::_Tree_node<std::pair<unsigned long const ,CInstanceBase *>,void *> * &>, COMDAT
; __Obj$ = ecx
; _<_Args_0>$ = edx

; 470  : #if _HAS_CXX20
; 471  :     if (_STD is_constant_evaluated()) {
; 472  :         _STD construct_at(_STD addressof(_Obj), _STD forward<_Types>(_Args)...);
; 473  :     } else
; 474  : #endif // _HAS_CXX20
; 475  :     {
; 476  :         ::new (static_cast<void*>(_STD addressof(_Obj))) _Ty(_STD forward<_Types>(_Args)...);
; 477  :     }
; 478  : }

  00000	8b 02		 mov	 eax, DWORD PTR [edx]
  00002	89 01		 mov	 DWORD PTR [ecx], eax
  00004	c3		 ret	 0
??$_Construct_in_place@PAU?$_Tree_node@U?$pair@$$CBKPAVCInstanceBase@@@std@@PAX@std@@AAPAU12@@std@@YAXAAPAU?$_Tree_node@U?$pair@$$CBKPAVCInstanceBase@@@std@@PAX@0@0@Z ENDP ; std::_Construct_in_place<std::_Tree_node<std::pair<unsigned long const ,CInstanceBase *>,void *> *,std::_Tree_node<std::pair<unsigned long const ,CInstanceBase *>,void *> * &>
_TEXT	ENDS
; Function compile flags: /Ogtp
; File C:\Program Files\Microsoft Visual Studio\2022\Community\VC\Tools\MSVC\14.44.35207\include\__msvc_heap_algorithms.hpp
; File C:\Program Files\Microsoft Visual Studio\2022\Community\VC\Tools\MSVC\14.44.35207\include\xutility
; File C:\Program Files\Microsoft Visual Studio\2022\Community\VC\Tools\MSVC\14.44.35207\include\__msvc_heap_algorithms.hpp
; File C:\Program Files\Microsoft Visual Studio\2022\Community\VC\Tools\MSVC\14.44.35207\include\xutility
; File C:\Anka2Project\Anka2Project\Source\Binary\source\UserInterface\PythonCharacterManager.cpp
; File C:\Program Files\Microsoft Visual Studio\2022\Community\VC\Tools\MSVC\14.44.35207\include\xutility
; File C:\Anka2Project\Anka2Project\Source\Binary\source\UserInterface\PythonCharacterManager.cpp
; File C:\Program Files\Microsoft Visual Studio\2022\Community\VC\Tools\MSVC\14.44.35207\include\__msvc_heap_algorithms.hpp
; File C:\Program Files\Microsoft Visual Studio\2022\Community\VC\Tools\MSVC\14.44.35207\include\xutility
; File C:\Program Files\Microsoft Visual Studio\2022\Community\VC\Tools\MSVC\14.44.35207\include\__msvc_heap_algorithms.hpp
; File C:\Program Files\Microsoft Visual Studio\2022\Community\VC\Tools\MSVC\14.44.35207\include\xutility
; File C:\Anka2Project\Anka2Project\Source\Binary\source\UserInterface\PythonCharacterManager.cpp
; File C:\Program Files\Microsoft Visual Studio\2022\Community\VC\Tools\MSVC\14.44.35207\include\xutility
; File C:\Anka2Project\Anka2Project\Source\Binary\source\UserInterface\PythonCharacterManager.cpp
; File C:\Program Files\Microsoft Visual Studio\2022\Community\VC\Tools\MSVC\14.44.35207\include\__msvc_heap_algorithms.hpp
;	COMDAT ??$_Pop_heap_hole_by_index@PAPAVCInstanceBase@@PAV1@U?$_Ref_fn@UCInstanceBase_SLessCameraDistance@@@std@@@std@@YAXPAPAVCInstanceBase@@HH$$QAPAV1@U?$_Ref_fn@UCInstanceBase_SLessCameraDistance@@@0@@Z
_TEXT	SEGMENT
tv416 = -28						; size = 4
tv426 = -28						; size = 4
_pkInstLeft$1$ = -28					; size = 4
__Max_sequence_non_leaf$1$ = -24			; size = 4
__Idx$1$ = -24						; size = 4
tv424 = -20						; size = 4
tv401 = -16						; size = 4
_pkInstLeft$1$ = -16					; size = 4
__Top$1$ = -12						; size = 4
_pkInstRight$1$ = -8					; size = 4
__Hole$1$ = -4						; size = 4
__Bottom$ = 8						; size = 4
_pkInstRight$1$ = 8					; size = 4
__Val$ = 12						; size = 4
__Pred$ = 16						; size = 4
??$_Pop_heap_hole_by_index@PAPAVCInstanceBase@@PAV1@U?$_Ref_fn@UCInstanceBase_SLessCameraDistance@@@std@@@std@@YAXPAPAVCInstanceBase@@HH$$QAPAV1@U?$_Ref_fn@UCInstanceBase_SLessCameraDistance@@@0@@Z PROC ; std::_Pop_heap_hole_by_index<CInstanceBase * *,CInstanceBase *,std::_Ref_fn<CInstanceBase_SLessCameraDistance> >, COMDAT
; __First$ = ecx
; __Hole$ = edx

; 58   :     _RanIt _First, _Iter_diff_t<_RanIt> _Hole, _Iter_diff_t<_RanIt> _Bottom, _Ty&& _Val, _Pr _Pred) {

  00000	55		 push	 ebp
  00001	8b ec		 mov	 ebp, esp
  00003	83 ec 1c	 sub	 esp, 28			; 0000001cH

; 59   :     // percolate _Hole to _Bottom, then push _Val
; 60   :     _STL_INTERNAL_CHECK(_Bottom > 0);
; 61   : 
; 62   :     using _Diff      = _Iter_diff_t<_RanIt>;
; 63   :     const _Diff _Top = _Hole;
; 64   :     _Diff _Idx       = _Hole;
; 65   : 
; 66   :     // Check whether _Idx can have a child before calculating that child's index, since
; 67   :     // calculating the child's index can trigger integer overflows
; 68   :     const _Diff _Max_sequence_non_leaf = (_Bottom - 1) >> 1; // shift for codegen

  00006	8b 45 08	 mov	 eax, DWORD PTR __Bottom$[ebp]
  00009	48		 dec	 eax
  0000a	89 55 fc	 mov	 DWORD PTR __Hole$1$[ebp], edx
  0000d	53		 push	 ebx
  0000e	56		 push	 esi
  0000f	8b 75 10	 mov	 esi, DWORD PTR __Pred$[ebp]
  00012	8b d9		 mov	 ebx, ecx
  00014	89 45 e4	 mov	 DWORD PTR tv426[ebp], eax
  00017	8b ca		 mov	 ecx, edx
  00019	d1 f8		 sar	 eax, 1
  0001b	89 4d f4	 mov	 DWORD PTR __Top$1$[ebp], ecx
  0001e	89 45 e8	 mov	 DWORD PTR __Max_sequence_non_leaf$1$[ebp], eax
  00021	57		 push	 edi
  00022	8b fa		 mov	 edi, edx

; 69   :     while (_Idx < _Max_sequence_non_leaf) { // move _Hole down to larger child

  00024	3b d0		 cmp	 edx, eax
  00026	7d 79		 jge	 SHORT $LN3@Pop_heap_h
  00028	0f 1f 84 00 00
	00 00 00	 npad	 8
$LL2@Pop_heap_h:

; 70   :         _Idx = 2 * _Idx + 2;

  00030	8d 04 3f	 lea	 eax, DWORD PTR [edi+edi]
; File C:\Program Files\Microsoft Visual Studio\2022\Community\VC\Tools\MSVC\14.44.35207\include\xutility

; 763  :             return _Fn(_STD forward<_Args>(_Vals)...);

  00033	8b 4c 83 04	 mov	 ecx, DWORD PTR [ebx+eax*4+4]
; File C:\Program Files\Microsoft Visual Studio\2022\Community\VC\Tools\MSVC\14.44.35207\include\__msvc_heap_algorithms.hpp

; 70   :         _Idx = 2 * _Idx + 2;

  00037	89 45 ec	 mov	 DWORD PTR tv424[ebp], eax
; File C:\Program Files\Microsoft Visual Studio\2022\Community\VC\Tools\MSVC\14.44.35207\include\xutility

; 763  :             return _Fn(_STD forward<_Args>(_Vals)...);

  0003a	8b 44 83 08	 mov	 eax, DWORD PTR [ebx+eax*4+8]
  0003e	89 4d f8	 mov	 DWORD PTR _pkInstRight$1$[ebp], ecx
; File C:\Anka2Project\Anka2Project\Source\Binary\source\UserInterface\PythonCharacterManager.cpp

; 616  : 		int nLeftDeadPoint=pkInstLeft->IsDead();

  00041	8b c8		 mov	 ecx, eax
; File C:\Program Files\Microsoft Visual Studio\2022\Community\VC\Tools\MSVC\14.44.35207\include\xutility

; 763  :             return _Fn(_STD forward<_Args>(_Vals)...);

  00043	89 45 f0	 mov	 DWORD PTR _pkInstLeft$1$[ebp], eax
; File C:\Anka2Project\Anka2Project\Source\Binary\source\UserInterface\PythonCharacterManager.cpp

; 616  : 		int nLeftDeadPoint=pkInstLeft->IsDead();

  00046	e8 00 00 00 00	 call	 ?IsDead@CInstanceBase@@QAEHXZ ; CInstanceBase::IsDead

; 617  : 		int nRightDeadPoint=pkInstRight->IsDead();

  0004b	8b 4d f8	 mov	 ecx, DWORD PTR _pkInstRight$1$[ebp]
  0004e	8b f8		 mov	 edi, eax
  00050	e8 00 00 00 00	 call	 ?IsDead@CInstanceBase@@QAEHXZ ; CInstanceBase::IsDead

; 618  : 
; 619  : 		if (nLeftDeadPoint<nRightDeadPoint)

  00055	3b f8		 cmp	 edi, eax
  00057	7d 07		 jge	 SHORT $LN10@Pop_heap_h

; 620  : 			return true;

  00059	b8 01 00 00 00	 mov	 eax, 1
  0005e	eb 21		 jmp	 SHORT $LN11@Pop_heap_h
$LN10@Pop_heap_h:

; 621  : 
; 622  : 		if (pkInstLeft->CalculateDistanceSq3d(m_kPPosEye)<pkInstRight->CalculateDistanceSq3d(m_kPPosEye))

  00060	8b 4d f0	 mov	 ecx, DWORD PTR _pkInstLeft$1$[ebp]
  00063	56		 push	 esi
  00064	e8 00 00 00 00	 call	 ?CalculateDistanceSq3d@CInstanceBase@@QAEMABUD3DXVECTOR3@@@Z ; CInstanceBase::CalculateDistanceSq3d
  00069	8b 4d f8	 mov	 ecx, DWORD PTR _pkInstRight$1$[ebp]
  0006c	56		 push	 esi
  0006d	f3 0f 11 45 f0	 movss	 DWORD PTR tv401[ebp], xmm0
  00072	e8 00 00 00 00	 call	 ?CalculateDistanceSq3d@CInstanceBase@@QAEMABUD3DXVECTOR3@@@Z ; CInstanceBase::CalculateDistanceSq3d
  00077	33 c0		 xor	 eax, eax
  00079	0f 2f 45 f0	 comiss	 xmm0, DWORD PTR tv401[ebp]
  0007d	0f 96 c0	 setbe	 al
  00080	40		 inc	 eax
$LN11@Pop_heap_h:
; File C:\Program Files\Microsoft Visual Studio\2022\Community\VC\Tools\MSVC\14.44.35207\include\__msvc_heap_algorithms.hpp

; 74   :         *(_First + _Hole) = _STD move(*(_First + _Idx));

  00081	8b 7d ec	 mov	 edi, DWORD PTR tv424[ebp]
  00084	8b 4d fc	 mov	 ecx, DWORD PTR __Hole$1$[ebp]
  00087	03 f8		 add	 edi, eax

; 75   :         _Hole             = _Idx;

  00089	8b d7		 mov	 edx, edi
  0008b	89 55 fc	 mov	 DWORD PTR __Hole$1$[ebp], edx
  0008e	8b 04 bb	 mov	 eax, DWORD PTR [ebx+edi*4]
  00091	89 04 8b	 mov	 DWORD PTR [ebx+ecx*4], eax
  00094	8b 45 e8	 mov	 eax, DWORD PTR __Max_sequence_non_leaf$1$[ebp]
  00097	3b f8		 cmp	 edi, eax
  00099	7c 95		 jl	 SHORT $LL2@Pop_heap_h
  0009b	8b 75 10	 mov	 esi, DWORD PTR __Pred$[ebp]
  0009e	8b 4d f4	 mov	 ecx, DWORD PTR __Top$1$[ebp]
$LN3@Pop_heap_h:

; 76   :     }
; 77   : 
; 78   :     if (_Idx == _Max_sequence_non_leaf && _Bottom % 2 == 0) { // only child at bottom, move _Hole down to it

  000a1	3b f8		 cmp	 edi, eax
  000a3	75 14		 jne	 SHORT $LN5@Pop_heap_h
  000a5	8b 45 08	 mov	 eax, DWORD PTR __Bottom$[ebp]
  000a8	a8 01		 test	 al, 1
  000aa	75 0d		 jne	 SHORT $LN5@Pop_heap_h

; 79   :         *(_First + _Hole) = _STD move(*(_First + (_Bottom - 1)));

  000ac	8b 44 83 fc	 mov	 eax, DWORD PTR [ebx+eax*4-4]
  000b0	89 04 93	 mov	 DWORD PTR [ebx+edx*4], eax

; 80   :         _Hole             = _Bottom - 1;

  000b3	8b 55 e4	 mov	 edx, DWORD PTR tv426[ebp]
  000b6	89 55 fc	 mov	 DWORD PTR __Hole$1$[ebp], edx
$LN5@Pop_heap_h:

; 27   :         _Top < _Hole && _DEBUG_LT_PRED(_Pred, *(_First + _Idx), _Val); _Idx = (_Hole - 1) >> 1) { // shift for codegen

  000b9	3b ca		 cmp	 ecx, edx
  000bb	7d 61		 jge	 SHORT $LN34@Pop_heap_h
  000bd	0f 1f 00	 npad	 3
$LL16@Pop_heap_h:
; File C:\Program Files\Microsoft Visual Studio\2022\Community\VC\Tools\MSVC\14.44.35207\include\xutility

; 763  :             return _Fn(_STD forward<_Args>(_Vals)...);

  000c0	8b 4d 0c	 mov	 ecx, DWORD PTR __Val$[ebp]
; File C:\Program Files\Microsoft Visual Studio\2022\Community\VC\Tools\MSVC\14.44.35207\include\__msvc_heap_algorithms.hpp

; 26   :     for (_Diff _Idx                                                         = (_Hole - 1) >> 1; // shift for codegen

  000c3	8d 42 ff	 lea	 eax, DWORD PTR [edx-1]
  000c6	d1 f8		 sar	 eax, 1
  000c8	89 45 e8	 mov	 DWORD PTR __Idx$1$[ebp], eax
; File C:\Program Files\Microsoft Visual Studio\2022\Community\VC\Tools\MSVC\14.44.35207\include\xutility

; 763  :             return _Fn(_STD forward<_Args>(_Vals)...);

  000cb	8b 09		 mov	 ecx, DWORD PTR [ecx]
  000cd	8b 04 83	 mov	 eax, DWORD PTR [ebx+eax*4]
  000d0	89 4d 08	 mov	 DWORD PTR _pkInstRight$1$[ebp], ecx
; File C:\Anka2Project\Anka2Project\Source\Binary\source\UserInterface\PythonCharacterManager.cpp

; 616  : 		int nLeftDeadPoint=pkInstLeft->IsDead();

  000d3	8b c8		 mov	 ecx, eax
; File C:\Program Files\Microsoft Visual Studio\2022\Community\VC\Tools\MSVC\14.44.35207\include\xutility

; 763  :             return _Fn(_STD forward<_Args>(_Vals)...);

  000d5	89 45 e4	 mov	 DWORD PTR _pkInstLeft$1$[ebp], eax
; File C:\Anka2Project\Anka2Project\Source\Binary\source\UserInterface\PythonCharacterManager.cpp

; 616  : 		int nLeftDeadPoint=pkInstLeft->IsDead();

  000d8	e8 00 00 00 00	 call	 ?IsDead@CInstanceBase@@QAEHXZ ; CInstanceBase::IsDead

; 617  : 		int nRightDeadPoint=pkInstRight->IsDead();

  000dd	8b 4d 08	 mov	 ecx, DWORD PTR _pkInstRight$1$[ebp]
  000e0	8b f8		 mov	 edi, eax
  000e2	e8 00 00 00 00	 call	 ?IsDead@CInstanceBase@@QAEHXZ ; CInstanceBase::IsDead

; 618  : 
; 619  : 		if (nLeftDeadPoint<nRightDeadPoint)

  000e7	3b f8		 cmp	 edi, eax
  000e9	7c 1d		 jl	 SHORT $LN32@Pop_heap_h

; 621  : 
; 622  : 		if (pkInstLeft->CalculateDistanceSq3d(m_kPPosEye)<pkInstRight->CalculateDistanceSq3d(m_kPPosEye))

  000eb	8b 4d e4	 mov	 ecx, DWORD PTR _pkInstLeft$1$[ebp]
  000ee	56		 push	 esi
  000ef	e8 00 00 00 00	 call	 ?CalculateDistanceSq3d@CInstanceBase@@QAEMABUD3DXVECTOR3@@@Z ; CInstanceBase::CalculateDistanceSq3d
  000f4	8b 4d 08	 mov	 ecx, DWORD PTR _pkInstRight$1$[ebp]
  000f7	56		 push	 esi
  000f8	f3 0f 11 45 e4	 movss	 DWORD PTR tv416[ebp], xmm0
  000fd	e8 00 00 00 00	 call	 ?CalculateDistanceSq3d@CInstanceBase@@QAEMABUD3DXVECTOR3@@@Z ; CInstanceBase::CalculateDistanceSq3d
  00102	0f 2f 45 e4	 comiss	 xmm0, DWORD PTR tv416[ebp]
  00106	76 25		 jbe	 SHORT $LN33@Pop_heap_h
$LN32@Pop_heap_h:
; File C:\Program Files\Microsoft Visual Studio\2022\Community\VC\Tools\MSVC\14.44.35207\include\__msvc_heap_algorithms.hpp

; 29   :         *(_First + _Hole) = _STD move(*(_First + _Idx));

  00108	8b 4d e8	 mov	 ecx, DWORD PTR __Idx$1$[ebp]
  0010b	8b 55 fc	 mov	 edx, DWORD PTR __Hole$1$[ebp]
  0010e	8b 04 8b	 mov	 eax, DWORD PTR [ebx+ecx*4]
  00111	89 04 93	 mov	 DWORD PTR [ebx+edx*4], eax

; 30   :         _Hole             = _Idx;

  00114	8b d1		 mov	 edx, ecx
  00116	89 55 fc	 mov	 DWORD PTR __Hole$1$[ebp], edx
  00119	39 4d f4	 cmp	 DWORD PTR __Top$1$[ebp], ecx
  0011c	7c a2		 jl	 SHORT $LL16@Pop_heap_h
$LN34@Pop_heap_h:

; 81   :     }
; 82   : 
; 83   :     _STD _Push_heap_by_index(_First, _Hole, _Top, _STD forward<_Ty>(_Val), _Pred);
; 84   : }

  0011e	8b 45 0c	 mov	 eax, DWORD PTR __Val$[ebp]
  00121	5f		 pop	 edi
  00122	5e		 pop	 esi
  00123	8b 00		 mov	 eax, DWORD PTR [eax]
  00125	89 04 93	 mov	 DWORD PTR [ebx+edx*4], eax
  00128	5b		 pop	 ebx
  00129	8b e5		 mov	 esp, ebp
  0012b	5d		 pop	 ebp
  0012c	c3		 ret	 0
$LN33@Pop_heap_h:

; 33   :     *(_First + _Hole) = _STD forward<_Ty>(_Val); // drop _Val into final hole

  0012d	8b 45 0c	 mov	 eax, DWORD PTR __Val$[ebp]
  00130	8b 4d fc	 mov	 ecx, DWORD PTR __Hole$1$[ebp]
  00133	5f		 pop	 edi

; 81   :     }
; 82   : 
; 83   :     _STD _Push_heap_by_index(_First, _Hole, _Top, _STD forward<_Ty>(_Val), _Pred);
; 84   : }

  00134	5e		 pop	 esi

; 33   :     *(_First + _Hole) = _STD forward<_Ty>(_Val); // drop _Val into final hole

  00135	8b 00		 mov	 eax, DWORD PTR [eax]
  00137	89 04 8b	 mov	 DWORD PTR [ebx+ecx*4], eax

; 81   :     }
; 82   : 
; 83   :     _STD _Push_heap_by_index(_First, _Hole, _Top, _STD forward<_Ty>(_Val), _Pred);
; 84   : }

  0013a	5b		 pop	 ebx
  0013b	8b e5		 mov	 esp, ebp
  0013d	5d		 pop	 ebp
  0013e	c3		 ret	 0
??$_Pop_heap_hole_by_index@PAPAVCInstanceBase@@PAV1@U?$_Ref_fn@UCInstanceBase_SLessCameraDistance@@@std@@@std@@YAXPAPAVCInstanceBase@@HH$$QAPAV1@U?$_Ref_fn@UCInstanceBase_SLessCameraDistance@@@0@@Z ENDP ; std::_Pop_heap_hole_by_index<CInstanceBase * *,CInstanceBase *,std::_Ref_fn<CInstanceBase_SLessCameraDistance> >
_TEXT	ENDS
; Function compile flags: /Ogtp
; File C:\Program Files\Microsoft Visual Studio\2022\Community\VC\Tools\MSVC\14.44.35207\include\xutility
;	COMDAT ??$_Construct_in_place@PAVCInstanceBase@@AAPAV1@@std@@YAXAAPAVCInstanceBase@@0@Z
_TEXT	SEGMENT
??$_Construct_in_place@PAVCInstanceBase@@AAPAV1@@std@@YAXAAPAVCInstanceBase@@0@Z PROC ; std::_Construct_in_place<CInstanceBase *,CInstanceBase * &>, COMDAT
; __Obj$ = ecx
; _<_Args_0>$ = edx

; 470  : #if _HAS_CXX20
; 471  :     if (_STD is_constant_evaluated()) {
; 472  :         _STD construct_at(_STD addressof(_Obj), _STD forward<_Types>(_Args)...);
; 473  :     } else
; 474  : #endif // _HAS_CXX20
; 475  :     {
; 476  :         ::new (static_cast<void*>(_STD addressof(_Obj))) _Ty(_STD forward<_Types>(_Args)...);
; 477  :     }
; 478  : }

  00000	8b 02		 mov	 eax, DWORD PTR [edx]
  00002	89 01		 mov	 DWORD PTR [ecx], eax
  00004	c3		 ret	 0
??$_Construct_in_place@PAVCInstanceBase@@AAPAV1@@std@@YAXAAPAVCInstanceBase@@0@Z ENDP ; std::_Construct_in_place<CInstanceBase *,CInstanceBase * &>
_TEXT	ENDS
; Function compile flags: /Ogtp
; File C:\Program Files\Microsoft Visual Studio\2022\Community\VC\Tools\MSVC\14.44.35207\include\xmemory
;	COMDAT ??$_Uninitialized_move@PAU?$pair@PAVCInstanceBase@@M@std@@V?$allocator@U?$pair@PAVCInstanceBase@@M@std@@@2@@std@@YAPAU?$pair@PAVCInstanceBase@@M@0@QAU10@0PAU10@AAV?$allocator@U?$pair@PAVCInstanceBase@@M@std@@@0@@Z
_TEXT	SEGMENT
__Dest$ = 8						; size = 4
__Al$dead$ = 12						; size = 4
??$_Uninitialized_move@PAU?$pair@PAVCInstanceBase@@M@std@@V?$allocator@U?$pair@PAVCInstanceBase@@M@std@@@2@@std@@YAPAU?$pair@PAVCInstanceBase@@M@0@QAU10@0PAU10@AAV?$allocator@U?$pair@PAVCInstanceBase@@M@std@@@0@@Z PROC ; std::_Uninitialized_move<std::pair<CInstanceBase *,float> *,std::allocator<std::pair<CInstanceBase *,float> > >, COMDAT
; __First$ = ecx
; __Last$ = edx

; 1977 :     const _InIt _First, const _InIt _Last, _Alloc_ptr_t<_Alloc> _Dest, _Alloc& _Al) {

  00000	55		 push	 ebp
  00001	8b ec		 mov	 ebp, esp
  00003	53		 push	 ebx
  00004	56		 push	 esi
  00005	57		 push	 edi

; 1978 :     // move [_First, _Last) to raw _Dest, using _Al
; 1979 :     // note: only called internally from elsewhere in the STL
; 1980 : #ifdef _ENABLE_STL_INTERNAL_CHECK
; 1981 :     _STD _Adl_verify_range(_First, _Last);
; 1982 : #endif // ^^^ defined(_ENABLE_STL_INTERNAL_CHECK) ^^^
; 1983 :     using _Ptrval     = typename _Alloc::value_type*;
; 1984 :     auto _UFirst      = _STD _Get_unwrapped(_First);
; 1985 :     const auto _ULast = _STD _Get_unwrapped(_Last);
; 1986 :     if constexpr (conjunction_v<bool_constant<_Iter_move_cat<decltype(_UFirst), _Ptrval>::_Bitcopy_constructible>,
; 1987 :                       _Uses_default_construct<_Alloc, _Ptrval, decltype(_STD move(*_UFirst))>>) {
; 1988 : #if _HAS_CXX20
; 1989 :         if (!_STD is_constant_evaluated())
; 1990 : #endif // _HAS_CXX20
; 1991 :         {
; 1992 :             _STD _Copy_memmove(_UFirst, _ULast, _STD _Unfancy(_Dest));

  00006	8b 7d 08	 mov	 edi, DWORD PTR __Dest$[ebp]
  00009	8b da		 mov	 ebx, edx
  0000b	57		 push	 edi
  0000c	8b f1		 mov	 esi, ecx
  0000e	e8 00 00 00 00	 call	 ??$_Copy_memmove@PAU?$pair@PAVCInstanceBase@@M@std@@PAU12@@std@@YAPAU?$pair@PAVCInstanceBase@@M@0@PAU10@00@Z ; std::_Copy_memmove<std::pair<CInstanceBase *,float> *,std::pair<CInstanceBase *,float> *>
  00013	83 c4 04	 add	 esp, 4

; 1993 :             return _Dest + (_ULast - _UFirst);

  00016	2b de		 sub	 ebx, esi
  00018	c1 fb 03	 sar	 ebx, 3
  0001b	8d 04 df	 lea	 eax, DWORD PTR [edi+ebx*8]
  0001e	5f		 pop	 edi
  0001f	5e		 pop	 esi
  00020	5b		 pop	 ebx

; 1994 :         }
; 1995 :     }
; 1996 : 
; 1997 :     _Uninitialized_backout_al<_Alloc> _Backout{_Dest, _Al};
; 1998 :     for (; _UFirst != _ULast; ++_UFirst) {
; 1999 :         _Backout._Emplace_back(_STD move(*_UFirst));
; 2000 :     }
; 2001 : 
; 2002 :     return _Backout._Release();
; 2003 : }

  00021	5d		 pop	 ebp
  00022	c3		 ret	 0
??$_Uninitialized_move@PAU?$pair@PAVCInstanceBase@@M@std@@V?$allocator@U?$pair@PAVCInstanceBase@@M@std@@@2@@std@@YAPAU?$pair@PAVCInstanceBase@@M@0@QAU10@0PAU10@AAV?$allocator@U?$pair@PAVCInstanceBase@@M@std@@@0@@Z ENDP ; std::_Uninitialized_move<std::pair<CInstanceBase *,float> *,std::allocator<std::pair<CInstanceBase *,float> > >
_TEXT	ENDS
; Function compile flags: /Ogtp
; File C:\Program Files\Microsoft Visual Studio\2022\Community\VC\Tools\MSVC\14.44.35207\include\xutility
; File C:\Program Files\Microsoft Visual Studio\2022\Community\VC\Tools\MSVC\14.44.35207\include\utility
; File C:\Program Files\Microsoft Visual Studio\2022\Community\VC\Tools\MSVC\14.44.35207\include\xutility
; File C:\Program Files\Microsoft Visual Studio\2022\Community\VC\Tools\MSVC\14.44.35207\include\utility
; File C:\Program Files\Microsoft Visual Studio\2022\Community\VC\Tools\MSVC\14.44.35207\include\xutility
;	COMDAT ??$_Move_backward_unchecked@PAU?$pair@PAVCInstanceBase@@M@std@@PAU12@@std@@YAPAU?$pair@PAVCInstanceBase@@M@0@PAU10@00@Z
_TEXT	SEGMENT
__Dest$ = 8						; size = 4
??$_Move_backward_unchecked@PAU?$pair@PAVCInstanceBase@@M@std@@PAU12@@std@@YAPAU?$pair@PAVCInstanceBase@@M@0@PAU10@00@Z PROC ; std::_Move_backward_unchecked<std::pair<CInstanceBase *,float> *,std::pair<CInstanceBase *,float> *>, COMDAT
; __First$ = ecx
; __Last$ = edx

; 5182 : _CONSTEXPR20 _BidIt2 _Move_backward_unchecked(_BidIt1 _First, _BidIt1 _Last, _BidIt2 _Dest) {

  00000	55		 push	 ebp
  00001	8b ec		 mov	 ebp, esp

; 5194 :     while (_First != _Last) {

  00003	8b 45 08	 mov	 eax, DWORD PTR __Dest$[ebp]
  00006	56		 push	 esi
  00007	8b f1		 mov	 esi, ecx
  00009	3b d6		 cmp	 edx, esi
  0000b	74 18		 je	 SHORT $LN3@Move_backw
  0000d	0f 1f 00	 npad	 3
$LL10@Move_backw:
; File C:\Program Files\Microsoft Visual Studio\2022\Community\VC\Tools\MSVC\14.44.35207\include\utility

; 365  :         first  = _STD forward<_Ty1>(_Right.first);

  00010	8b 4a f8	 mov	 ecx, DWORD PTR [edx-8]
; File C:\Program Files\Microsoft Visual Studio\2022\Community\VC\Tools\MSVC\14.44.35207\include\xutility

; 5195 :         *--_Dest = _STD move(*--_Last);

  00013	83 ea 08	 sub	 edx, 8
  00016	83 e8 08	 sub	 eax, 8
; File C:\Program Files\Microsoft Visual Studio\2022\Community\VC\Tools\MSVC\14.44.35207\include\utility

; 365  :         first  = _STD forward<_Ty1>(_Right.first);

  00019	89 08		 mov	 DWORD PTR [eax], ecx

; 366  :         second = _STD forward<_Ty2>(_Right.second);

  0001b	8b 4a 04	 mov	 ecx, DWORD PTR [edx+4]
  0001e	89 48 04	 mov	 DWORD PTR [eax+4], ecx
; File C:\Program Files\Microsoft Visual Studio\2022\Community\VC\Tools\MSVC\14.44.35207\include\xutility

; 5194 :     while (_First != _Last) {

  00021	3b d6		 cmp	 edx, esi
  00023	75 eb		 jne	 SHORT $LL10@Move_backw
$LN3@Move_backw:
  00025	5e		 pop	 esi

; 5196 :     }
; 5197 : 
; 5198 :     return _Dest;
; 5199 : }

  00026	5d		 pop	 ebp
  00027	c3		 ret	 0
??$_Move_backward_unchecked@PAU?$pair@PAVCInstanceBase@@M@std@@PAU12@@std@@YAPAU?$pair@PAVCInstanceBase@@M@0@PAU10@00@Z ENDP ; std::_Move_backward_unchecked<std::pair<CInstanceBase *,float> *,std::pair<CInstanceBase *,float> *>
_TEXT	ENDS
; Function compile flags: /Ogtp
; File C:\Program Files\Microsoft Visual Studio\2022\Community\VC\Tools\MSVC\14.44.35207\include\__msvc_heap_algorithms.hpp
; File C:\Program Files\Microsoft Visual Studio\2022\Community\VC\Tools\MSVC\14.44.35207\include\utility
; File C:\Program Files\Microsoft Visual Studio\2022\Community\VC\Tools\MSVC\14.44.35207\include\__msvc_heap_algorithms.hpp
; File C:\Program Files\Microsoft Visual Studio\2022\Community\VC\Tools\MSVC\14.44.35207\include\utility
; File C:\Program Files\Microsoft Visual Studio\2022\Community\VC\Tools\MSVC\14.44.35207\include\__msvc_heap_algorithms.hpp
; File C:\Program Files\Microsoft Visual Studio\2022\Community\VC\Tools\MSVC\14.44.35207\include\utility
; File C:\Program Files\Microsoft Visual Studio\2022\Community\VC\Tools\MSVC\14.44.35207\include\__msvc_heap_algorithms.hpp
; File C:\Program Files\Microsoft Visual Studio\2022\Community\VC\Tools\MSVC\14.44.35207\include\utility
; File C:\Program Files\Microsoft Visual Studio\2022\Community\VC\Tools\MSVC\14.44.35207\include\__msvc_heap_algorithms.hpp
; File C:\Program Files\Microsoft Visual Studio\2022\Community\VC\Tools\MSVC\14.44.35207\include\utility
; File C:\Program Files\Microsoft Visual Studio\2022\Community\VC\Tools\MSVC\14.44.35207\include\__msvc_heap_algorithms.hpp
;	COMDAT ??$_Pop_heap_hole_by_index@PAU?$pair@PAVCInstanceBase@@M@std@@U12@P6A_NABU12@0@Z@std@@YAXPAU?$pair@PAVCInstanceBase@@M@0@HH$$QAU10@P6A_NABU10@2@Z@Z
_TEXT	SEGMENT
__Max_sequence_non_leaf$1$ = -8				; size = 4
__Top$1$ = -4						; size = 4
__Bottom$ = 8						; size = 4
__Val$ = 12						; size = 4
__Pred$ = 16						; size = 4
??$_Pop_heap_hole_by_index@PAU?$pair@PAVCInstanceBase@@M@std@@U12@P6A_NABU12@0@Z@std@@YAXPAU?$pair@PAVCInstanceBase@@M@0@HH$$QAU10@P6A_NABU10@2@Z@Z PROC ; std::_Pop_heap_hole_by_index<std::pair<CInstanceBase *,float> *,std::pair<CInstanceBase *,float>,bool (__cdecl*)(std::pair<CInstanceBase *,float> const &,std::pair<CInstanceBase *,float> const &)>, COMDAT
; __First$ = ecx
; __Hole$ = edx

; 58   :     _RanIt _First, _Iter_diff_t<_RanIt> _Hole, _Iter_diff_t<_RanIt> _Bottom, _Ty&& _Val, _Pr _Pred) {

  00000	55		 push	 ebp
  00001	8b ec		 mov	 ebp, esp
  00003	83 ec 08	 sub	 esp, 8

; 59   :     // percolate _Hole to _Bottom, then push _Val
; 60   :     _STL_INTERNAL_CHECK(_Bottom > 0);
; 61   : 
; 62   :     using _Diff      = _Iter_diff_t<_RanIt>;
; 63   :     const _Diff _Top = _Hole;
; 64   :     _Diff _Idx       = _Hole;
; 65   : 
; 66   :     // Check whether _Idx can have a child before calculating that child's index, since
; 67   :     // calculating the child's index can trigger integer overflows
; 68   :     const _Diff _Max_sequence_non_leaf = (_Bottom - 1) >> 1; // shift for codegen

  00006	8b 45 08	 mov	 eax, DWORD PTR __Bottom$[ebp]
  00009	53		 push	 ebx
  0000a	56		 push	 esi
  0000b	48		 dec	 eax
  0000c	8b d9		 mov	 ebx, ecx
  0000e	57		 push	 edi
  0000f	8b fa		 mov	 edi, edx
  00011	d1 f8		 sar	 eax, 1

; 69   :     while (_Idx < _Max_sequence_non_leaf) { // move _Hole down to larger child

  00013	8b 55 10	 mov	 edx, DWORD PTR __Pred$[ebp]
  00016	8b f7		 mov	 esi, edi
  00018	89 75 fc	 mov	 DWORD PTR __Top$1$[ebp], esi
  0001b	8b cf		 mov	 ecx, edi
  0001d	89 45 f8	 mov	 DWORD PTR __Max_sequence_non_leaf$1$[ebp], eax
  00020	3b f8		 cmp	 edi, eax
  00022	7d 3c		 jge	 SHORT $LN3@Pop_heap_h
$LL2@Pop_heap_h:

; 70   :         _Idx = 2 * _Idx + 2;

  00024	8d 34 09	 lea	 esi, DWORD PTR [ecx+ecx]

; 71   :         if (_DEBUG_LT_PRED(_Pred, *(_First + _Idx), *(_First + (_Idx - 1)))) {

  00027	8d 4b 10	 lea	 ecx, DWORD PTR [ebx+16]
  0002a	8d 0c f1	 lea	 ecx, DWORD PTR [ecx+esi*8]
  0002d	8d 41 f8	 lea	 eax, DWORD PTR [ecx-8]
  00030	50		 push	 eax
  00031	51		 push	 ecx
  00032	ff d2		 call	 edx
  00034	8b 55 10	 mov	 edx, DWORD PTR __Pred$[ebp]
  00037	83 c4 08	 add	 esp, 8

; 72   :             --_Idx;
; 73   :         }
; 74   :         *(_First + _Hole) = _STD move(*(_First + _Idx));

  0003a	0f b6 c0	 movzx	 eax, al
  0003d	f7 d8		 neg	 eax
  0003f	1b c0		 sbb	 eax, eax
  00041	8d 48 02	 lea	 ecx, DWORD PTR [eax+2]
  00044	03 ce		 add	 ecx, esi
; File C:\Program Files\Microsoft Visual Studio\2022\Community\VC\Tools\MSVC\14.44.35207\include\utility

; 365  :         first  = _STD forward<_Ty1>(_Right.first);

  00046	8b 04 cb	 mov	 eax, DWORD PTR [ebx+ecx*8]
  00049	89 04 fb	 mov	 DWORD PTR [ebx+edi*8], eax

; 366  :         second = _STD forward<_Ty2>(_Right.second);

  0004c	8b 44 cb 04	 mov	 eax, DWORD PTR [ebx+ecx*8+4]
  00050	89 44 fb 04	 mov	 DWORD PTR [ebx+edi*8+4], eax
; File C:\Program Files\Microsoft Visual Studio\2022\Community\VC\Tools\MSVC\14.44.35207\include\__msvc_heap_algorithms.hpp

; 75   :         _Hole             = _Idx;

  00054	8b f9		 mov	 edi, ecx
  00056	8b 45 f8	 mov	 eax, DWORD PTR __Max_sequence_non_leaf$1$[ebp]
  00059	3b c8		 cmp	 ecx, eax
  0005b	7c c7		 jl	 SHORT $LL2@Pop_heap_h
  0005d	8b 75 fc	 mov	 esi, DWORD PTR __Top$1$[ebp]
$LN3@Pop_heap_h:

; 76   :     }
; 77   : 
; 78   :     if (_Idx == _Max_sequence_non_leaf && _Bottom % 2 == 0) { // only child at bottom, move _Hole down to it

  00060	3b c8		 cmp	 ecx, eax
  00062	75 1a		 jne	 SHORT $LN5@Pop_heap_h
  00064	8b 4d 08	 mov	 ecx, DWORD PTR __Bottom$[ebp]
  00067	f6 c1 01	 test	 cl, 1
  0006a	75 12		 jne	 SHORT $LN5@Pop_heap_h
; File C:\Program Files\Microsoft Visual Studio\2022\Community\VC\Tools\MSVC\14.44.35207\include\utility

; 365  :         first  = _STD forward<_Ty1>(_Right.first);

  0006c	8b 44 cb f8	 mov	 eax, DWORD PTR [ebx+ecx*8-8]
  00070	89 04 fb	 mov	 DWORD PTR [ebx+edi*8], eax

; 366  :         second = _STD forward<_Ty2>(_Right.second);

  00073	8b 44 cb fc	 mov	 eax, DWORD PTR [ebx+ecx*8-4]
  00077	89 44 fb 04	 mov	 DWORD PTR [ebx+edi*8+4], eax
; File C:\Program Files\Microsoft Visual Studio\2022\Community\VC\Tools\MSVC\14.44.35207\include\__msvc_heap_algorithms.hpp

; 80   :         _Hole             = _Bottom - 1;

  0007b	8d 79 ff	 lea	 edi, DWORD PTR [ecx-1]
$LN5@Pop_heap_h:

; 27   :         _Top < _Hole && _DEBUG_LT_PRED(_Pred, *(_First + _Idx), _Val); _Idx = (_Hole - 1) >> 1) { // shift for codegen

  0007e	3b f7		 cmp	 esi, edi
  00080	7d 2d		 jge	 SHORT $LN32@Pop_heap_h
$LL16@Pop_heap_h:
  00082	ff 75 0c	 push	 DWORD PTR __Val$[ebp]
  00085	8d 77 ff	 lea	 esi, DWORD PTR [edi-1]
  00088	d1 fe		 sar	 esi, 1
  0008a	8d 04 f3	 lea	 eax, DWORD PTR [ebx+esi*8]
  0008d	50		 push	 eax
  0008e	ff d2		 call	 edx
  00090	83 c4 08	 add	 esp, 8
  00093	84 c0		 test	 al, al
  00095	74 18		 je	 SHORT $LN32@Pop_heap_h
; File C:\Program Files\Microsoft Visual Studio\2022\Community\VC\Tools\MSVC\14.44.35207\include\utility

; 365  :         first  = _STD forward<_Ty1>(_Right.first);

  00097	8b 04 f3	 mov	 eax, DWORD PTR [ebx+esi*8]
; File C:\Program Files\Microsoft Visual Studio\2022\Community\VC\Tools\MSVC\14.44.35207\include\__msvc_heap_algorithms.hpp

; 27   :         _Top < _Hole && _DEBUG_LT_PRED(_Pred, *(_First + _Idx), _Val); _Idx = (_Hole - 1) >> 1) { // shift for codegen

  0009a	8b 55 10	 mov	 edx, DWORD PTR __Pred$[ebp]
; File C:\Program Files\Microsoft Visual Studio\2022\Community\VC\Tools\MSVC\14.44.35207\include\utility

; 365  :         first  = _STD forward<_Ty1>(_Right.first);

  0009d	89 04 fb	 mov	 DWORD PTR [ebx+edi*8], eax

; 366  :         second = _STD forward<_Ty2>(_Right.second);

  000a0	8b 44 f3 04	 mov	 eax, DWORD PTR [ebx+esi*8+4]
  000a4	89 44 fb 04	 mov	 DWORD PTR [ebx+edi*8+4], eax
; File C:\Program Files\Microsoft Visual Studio\2022\Community\VC\Tools\MSVC\14.44.35207\include\__msvc_heap_algorithms.hpp

; 30   :         _Hole             = _Idx;

  000a8	8b fe		 mov	 edi, esi
  000aa	39 75 fc	 cmp	 DWORD PTR __Top$1$[ebp], esi
  000ad	7c d3		 jl	 SHORT $LL16@Pop_heap_h
$LN32@Pop_heap_h:
; File C:\Program Files\Microsoft Visual Studio\2022\Community\VC\Tools\MSVC\14.44.35207\include\utility

; 365  :         first  = _STD forward<_Ty1>(_Right.first);

  000af	8b 4d 0c	 mov	 ecx, DWORD PTR __Val$[ebp]
  000b2	8b 01		 mov	 eax, DWORD PTR [ecx]
  000b4	89 04 fb	 mov	 DWORD PTR [ebx+edi*8], eax

; 366  :         second = _STD forward<_Ty2>(_Right.second);

  000b7	8b 41 04	 mov	 eax, DWORD PTR [ecx+4]
  000ba	89 44 fb 04	 mov	 DWORD PTR [ebx+edi*8+4], eax
  000be	5f		 pop	 edi
  000bf	5e		 pop	 esi
  000c0	5b		 pop	 ebx
; File C:\Program Files\Microsoft Visual Studio\2022\Community\VC\Tools\MSVC\14.44.35207\include\__msvc_heap_algorithms.hpp

; 84   : }

  000c1	8b e5		 mov	 esp, ebp
  000c3	5d		 pop	 ebp
  000c4	c3		 ret	 0
??$_Pop_heap_hole_by_index@PAU?$pair@PAVCInstanceBase@@M@std@@U12@P6A_NABU12@0@Z@std@@YAXPAU?$pair@PAVCInstanceBase@@M@0@HH$$QAU10@P6A_NABU10@2@Z@Z ENDP ; std::_Pop_heap_hole_by_index<std::pair<CInstanceBase *,float> *,std::pair<CInstanceBase *,float>,bool (__cdecl*)(std::pair<CInstanceBase *,float> const &,std::pair<CInstanceBase *,float> const &)>
_TEXT	ENDS
; Function compile flags: /Ogtp
; File C:\Program Files\Microsoft Visual Studio\2022\Community\VC\Tools\MSVC\14.44.35207\include\utility
;	COMDAT ??$?0AAPAU?$pair@PAVCInstanceBase@@M@std@@AAPAU01@$0A@@?$pair@PAU?$pair@PAVCInstanceBase@@M@std@@PAU12@@std@@QAE@AAPAU?$pair@PAVCInstanceBase@@M@1@0@Z
_TEXT	SEGMENT
__Val1$ = 8						; size = 4
__Val2$ = 12						; size = 4
??$?0AAPAU?$pair@PAVCInstanceBase@@M@std@@AAPAU01@$0A@@?$pair@PAU?$pair@PAVCInstanceBase@@M@std@@PAU12@@std@@QAE@AAPAU?$pair@PAVCInstanceBase@@M@1@0@Z PROC ; std::pair<std::pair<CInstanceBase *,float> *,std::pair<CInstanceBase *,float> *>::pair<std::pair<CInstanceBase *,float> *,std::pair<CInstanceBase *,float> *><std::pair<CInstanceBase *,float> * &,std::pair<CInstanceBase *,float> * &,0>, COMDAT
; _this$ = ecx

; 274  :         : first(_STD forward<_Other1>(_Val1)), second(_STD forward<_Other2>(_Val2)) {

  00000	55		 push	 ebp
  00001	8b ec		 mov	 ebp, esp
  00003	8b 45 08	 mov	 eax, DWORD PTR __Val1$[ebp]
  00006	8b 00		 mov	 eax, DWORD PTR [eax]
  00008	89 01		 mov	 DWORD PTR [ecx], eax
  0000a	8b 45 0c	 mov	 eax, DWORD PTR __Val2$[ebp]
  0000d	8b 00		 mov	 eax, DWORD PTR [eax]
  0000f	89 41 04	 mov	 DWORD PTR [ecx+4], eax

; 275  :     }

  00012	8b c1		 mov	 eax, ecx
  00014	5d		 pop	 ebp
  00015	c2 08 00	 ret	 8
??$?0AAPAU?$pair@PAVCInstanceBase@@M@std@@AAPAU01@$0A@@?$pair@PAU?$pair@PAVCInstanceBase@@M@std@@PAU12@@std@@QAE@AAPAU?$pair@PAVCInstanceBase@@M@1@0@Z ENDP ; std::pair<std::pair<CInstanceBase *,float> *,std::pair<CInstanceBase *,float> *>::pair<std::pair<CInstanceBase *,float> *,std::pair<CInstanceBase *,float> *><std::pair<CInstanceBase *,float> * &,std::pair<CInstanceBase *,float> * &,0>
_TEXT	ENDS
; Function compile flags: /Ogtp
; File C:\Program Files\Microsoft Visual Studio\2022\Community\VC\Tools\MSVC\14.44.35207\include\xutility
;	COMDAT ??$_Copy_backward_memmove@PAPAVCInstanceBase@@PAPAV1@@std@@YAPAPAVCInstanceBase@@PAPAV1@00@Z
_TEXT	SEGMENT
__Dest$ = 8						; size = 4
??$_Copy_backward_memmove@PAPAVCInstanceBase@@PAPAV1@@std@@YAPAPAVCInstanceBase@@PAPAV1@00@Z PROC ; std::_Copy_backward_memmove<CInstanceBase * *,CInstanceBase * *>, COMDAT
; __First$ = ecx
; __Last$ = edx

; 5083 : _CtgIt2 _Copy_backward_memmove(_CtgIt1 _First, _CtgIt1 _Last, _CtgIt2 _Dest) {

  00000	55		 push	 ebp
  00001	8b ec		 mov	 ebp, esp

; 5084 :     // implement copy_backward-like function as memmove
; 5085 :     const auto _First_ptr = _STD _To_address(_First);
; 5086 :     const auto _Last_ptr  = _STD _To_address(_Last);
; 5087 :     const auto _Dest_ptr  = _STD _To_address(_Dest);
; 5088 :     const auto _First_ch  = const_cast<const char*>(reinterpret_cast<const volatile char*>(_First_ptr));
; 5089 :     const auto _Last_ch   = const_cast<const char*>(reinterpret_cast<const volatile char*>(_Last_ptr));
; 5090 :     const auto _Dest_ch   = const_cast<char*>(reinterpret_cast<const volatile char*>(_Dest_ptr));
; 5091 :     const auto _Count     = static_cast<size_t>(_Last_ch - _First_ch);
; 5092 :     const auto _Result    = _CSTD memmove(_Dest_ch - _Count, _First_ch, _Count);

  00003	8b 45 08	 mov	 eax, DWORD PTR __Dest$[ebp]
  00006	2b d1		 sub	 edx, ecx
  00008	52		 push	 edx
  00009	51		 push	 ecx
  0000a	2b c2		 sub	 eax, edx
  0000c	50		 push	 eax
  0000d	e8 00 00 00 00	 call	 _memmove
  00012	83 c4 0c	 add	 esp, 12			; 0000000cH

; 5093 :     if constexpr (is_pointer_v<_CtgIt2>) {
; 5094 :         return static_cast<_CtgIt2>(_Result);
; 5095 :     } else {
; 5096 :         return _Dest - static_cast<_Iter_diff_t<_CtgIt2>>(_Last_ptr - _First_ptr);
; 5097 :     }
; 5098 : }

  00015	5d		 pop	 ebp
  00016	c3		 ret	 0
??$_Copy_backward_memmove@PAPAVCInstanceBase@@PAPAV1@@std@@YAPAPAVCInstanceBase@@PAPAV1@00@Z ENDP ; std::_Copy_backward_memmove<CInstanceBase * *,CInstanceBase * *>
_TEXT	ENDS
; Function compile flags: /Ogtp
; File C:\Program Files\Microsoft Visual Studio\2022\Community\VC\Tools\MSVC\14.44.35207\include\__msvc_heap_algorithms.hpp
; File C:\Program Files\Microsoft Visual Studio\2022\Community\VC\Tools\MSVC\14.44.35207\include\xutility
; File C:\Program Files\Microsoft Visual Studio\2022\Community\VC\Tools\MSVC\14.44.35207\include\__msvc_heap_algorithms.hpp
; File C:\Program Files\Microsoft Visual Studio\2022\Community\VC\Tools\MSVC\14.44.35207\include\xutility
; File C:\Anka2Project\Anka2Project\Source\Binary\source\UserInterface\PythonCharacterManager.cpp
; File C:\Program Files\Microsoft Visual Studio\2022\Community\VC\Tools\MSVC\14.44.35207\include\xutility
; File C:\Anka2Project\Anka2Project\Source\Binary\source\UserInterface\PythonCharacterManager.cpp
; File C:\Program Files\Microsoft Visual Studio\2022\Community\VC\Tools\MSVC\14.44.35207\include\__msvc_heap_algorithms.hpp
;	COMDAT ??$_Push_heap_by_index@PAPAVCInstanceBase@@PAV1@U?$_Ref_fn@UCInstanceBase_SLessCameraDistance@@@std@@@std@@YAXPAPAVCInstanceBase@@HH$$QAPAV1@U?$_Ref_fn@UCInstanceBase_SLessCameraDistance@@@0@@Z
_TEXT	SEGMENT
_pkInstLeft$1$ = -16					; size = 4
tv164 = -16						; size = 4
tv175 = -12						; size = 4
__First$1$ = -8						; size = 4
_pkInstRight$1$ = -4					; size = 4
__Top$ = 8						; size = 4
__Val$ = 12						; size = 4
__Pred$ = 16						; size = 4
??$_Push_heap_by_index@PAPAVCInstanceBase@@PAV1@U?$_Ref_fn@UCInstanceBase_SLessCameraDistance@@@std@@@std@@YAXPAPAVCInstanceBase@@HH$$QAPAV1@U?$_Ref_fn@UCInstanceBase_SLessCameraDistance@@@0@@Z PROC ; std::_Push_heap_by_index<CInstanceBase * *,CInstanceBase *,std::_Ref_fn<CInstanceBase_SLessCameraDistance> >, COMDAT
; __First$ = ecx
; __Hole$ = edx

; 23   :     _RanIt _First, _Iter_diff_t<_RanIt> _Hole, _Iter_diff_t<_RanIt> _Top, _Ty&& _Val, _Pr _Pred) {

  00000	55		 push	 ebp
  00001	8b ec		 mov	 ebp, esp
  00003	83 ec 10	 sub	 esp, 16			; 00000010H
  00006	8b 45 10	 mov	 eax, DWORD PTR __Pred$[ebp]
  00009	53		 push	 ebx
  0000a	8b da		 mov	 ebx, edx
  0000c	89 4d f8	 mov	 DWORD PTR __First$1$[ebp], ecx
  0000f	89 45 f4	 mov	 DWORD PTR tv175[ebp], eax

; 27   :         _Top < _Hole && _DEBUG_LT_PRED(_Pred, *(_First + _Idx), _Val); _Idx = (_Hole - 1) >> 1) { // shift for codegen

  00012	39 5d 08	 cmp	 DWORD PTR __Top$[ebp], ebx
  00015	0f 8d 7e 00 00
	00		 jge	 $LN18@Push_heap_
  0001b	56		 push	 esi
  0001c	57		 push	 edi
  0001d	0f 1f 00	 npad	 3
$LL4@Push_heap_:
; File C:\Program Files\Microsoft Visual Studio\2022\Community\VC\Tools\MSVC\14.44.35207\include\xutility

; 763  :             return _Fn(_STD forward<_Args>(_Vals)...);

  00020	8b 45 0c	 mov	 eax, DWORD PTR __Val$[ebp]
; File C:\Program Files\Microsoft Visual Studio\2022\Community\VC\Tools\MSVC\14.44.35207\include\__msvc_heap_algorithms.hpp

; 26   :     for (_Diff _Idx                                                         = (_Hole - 1) >> 1; // shift for codegen

  00023	8d 7b ff	 lea	 edi, DWORD PTR [ebx-1]
  00026	d1 ff		 sar	 edi, 1
; File C:\Program Files\Microsoft Visual Studio\2022\Community\VC\Tools\MSVC\14.44.35207\include\xutility

; 763  :             return _Fn(_STD forward<_Args>(_Vals)...);

  00028	8b 00		 mov	 eax, DWORD PTR [eax]
  0002a	89 45 fc	 mov	 DWORD PTR _pkInstRight$1$[ebp], eax
  0002d	8b 04 b9	 mov	 eax, DWORD PTR [ecx+edi*4]
; File C:\Anka2Project\Anka2Project\Source\Binary\source\UserInterface\PythonCharacterManager.cpp

; 616  : 		int nLeftDeadPoint=pkInstLeft->IsDead();

  00030	8b c8		 mov	 ecx, eax
; File C:\Program Files\Microsoft Visual Studio\2022\Community\VC\Tools\MSVC\14.44.35207\include\xutility

; 763  :             return _Fn(_STD forward<_Args>(_Vals)...);

  00032	89 45 f0	 mov	 DWORD PTR _pkInstLeft$1$[ebp], eax
; File C:\Anka2Project\Anka2Project\Source\Binary\source\UserInterface\PythonCharacterManager.cpp

; 616  : 		int nLeftDeadPoint=pkInstLeft->IsDead();

  00035	e8 00 00 00 00	 call	 ?IsDead@CInstanceBase@@QAEHXZ ; CInstanceBase::IsDead

; 617  : 		int nRightDeadPoint=pkInstRight->IsDead();

  0003a	8b 4d fc	 mov	 ecx, DWORD PTR _pkInstRight$1$[ebp]
  0003d	8b f0		 mov	 esi, eax
  0003f	e8 00 00 00 00	 call	 ?IsDead@CInstanceBase@@QAEHXZ ; CInstanceBase::IsDead

; 618  : 
; 619  : 		if (nLeftDeadPoint<nRightDeadPoint)

  00044	3b f0		 cmp	 esi, eax
  00046	7c 20		 jl	 SHORT $LN16@Push_heap_

; 620  : 			return true;
; 621  : 
; 622  : 		if (pkInstLeft->CalculateDistanceSq3d(m_kPPosEye)<pkInstRight->CalculateDistanceSq3d(m_kPPosEye))

  00048	8b 75 f4	 mov	 esi, DWORD PTR tv175[ebp]
  0004b	8b 4d f0	 mov	 ecx, DWORD PTR _pkInstLeft$1$[ebp]
  0004e	56		 push	 esi
  0004f	e8 00 00 00 00	 call	 ?CalculateDistanceSq3d@CInstanceBase@@QAEMABUD3DXVECTOR3@@@Z ; CInstanceBase::CalculateDistanceSq3d
  00054	8b 4d fc	 mov	 ecx, DWORD PTR _pkInstRight$1$[ebp]
  00057	56		 push	 esi
  00058	f3 0f 11 45 f0	 movss	 DWORD PTR tv164[ebp], xmm0
  0005d	e8 00 00 00 00	 call	 ?CalculateDistanceSq3d@CInstanceBase@@QAEMABUD3DXVECTOR3@@@Z ; CInstanceBase::CalculateDistanceSq3d
  00062	0f 2f 45 f0	 comiss	 xmm0, DWORD PTR tv164[ebp]
  00066	76 1f		 jbe	 SHORT $LN17@Push_heap_
$LN16@Push_heap_:
; File C:\Program Files\Microsoft Visual Studio\2022\Community\VC\Tools\MSVC\14.44.35207\include\__msvc_heap_algorithms.hpp

; 29   :         *(_First + _Hole) = _STD move(*(_First + _Idx));

  00068	8b 4d f8	 mov	 ecx, DWORD PTR __First$1$[ebp]
  0006b	8b 04 b9	 mov	 eax, DWORD PTR [ecx+edi*4]
  0006e	89 04 99	 mov	 DWORD PTR [ecx+ebx*4], eax

; 30   :         _Hole             = _Idx;

  00071	8b df		 mov	 ebx, edi
  00073	39 7d 08	 cmp	 DWORD PTR __Top$[ebp], edi
  00076	7c a8		 jl	 SHORT $LL4@Push_heap_

; 31   :     }
; 32   : 
; 33   :     *(_First + _Hole) = _STD forward<_Ty>(_Val); // drop _Val into final hole

  00078	8b 45 0c	 mov	 eax, DWORD PTR __Val$[ebp]
  0007b	5f		 pop	 edi
  0007c	5e		 pop	 esi
  0007d	8b 00		 mov	 eax, DWORD PTR [eax]

; 34   : }

  0007f	89 04 99	 mov	 DWORD PTR [ecx+ebx*4], eax
  00082	5b		 pop	 ebx
  00083	8b e5		 mov	 esp, ebp
  00085	5d		 pop	 ebp
  00086	c3		 ret	 0
$LN17@Push_heap_:

; 31   :     }
; 32   : 
; 33   :     *(_First + _Hole) = _STD forward<_Ty>(_Val); // drop _Val into final hole

  00087	8b 45 0c	 mov	 eax, DWORD PTR __Val$[ebp]
  0008a	8b 4d f8	 mov	 ecx, DWORD PTR __First$1$[ebp]
  0008d	5f		 pop	 edi
  0008e	5e		 pop	 esi
  0008f	8b 00		 mov	 eax, DWORD PTR [eax]

; 34   : }

  00091	89 04 99	 mov	 DWORD PTR [ecx+ebx*4], eax
  00094	5b		 pop	 ebx
  00095	8b e5		 mov	 esp, ebp
  00097	5d		 pop	 ebp
  00098	c3		 ret	 0
$LN18@Push_heap_:

; 31   :     }
; 32   : 
; 33   :     *(_First + _Hole) = _STD forward<_Ty>(_Val); // drop _Val into final hole

  00099	8b 45 0c	 mov	 eax, DWORD PTR __Val$[ebp]
  0009c	8b 00		 mov	 eax, DWORD PTR [eax]

; 34   : }

  0009e	89 04 99	 mov	 DWORD PTR [ecx+ebx*4], eax
  000a1	5b		 pop	 ebx
  000a2	8b e5		 mov	 esp, ebp
  000a4	5d		 pop	 ebp
  000a5	c3		 ret	 0
??$_Push_heap_by_index@PAPAVCInstanceBase@@PAV1@U?$_Ref_fn@UCInstanceBase_SLessCameraDistance@@@std@@@std@@YAXPAPAVCInstanceBase@@HH$$QAPAV1@U?$_Ref_fn@UCInstanceBase_SLessCameraDistance@@@0@@Z ENDP ; std::_Push_heap_by_index<CInstanceBase * *,CInstanceBase *,std::_Ref_fn<CInstanceBase_SLessCameraDistance> >
_TEXT	ENDS
; Function compile flags: /Ogtp
; File C:\Program Files\Microsoft Visual Studio\2022\Community\VC\Tools\MSVC\14.44.35207\include\algorithm
; File C:\Program Files\Microsoft Visual Studio\2022\Community\VC\Tools\MSVC\14.44.35207\include\xutility
; File C:\Program Files\Microsoft Visual Studio\2022\Community\VC\Tools\MSVC\14.44.35207\include\algorithm
; File C:\Program Files\Microsoft Visual Studio\2022\Community\VC\Tools\MSVC\14.44.35207\include\xutility
; File C:\Program Files\Microsoft Visual Studio\2022\Community\VC\Tools\MSVC\14.44.35207\include\algorithm
; File C:\Program Files\Microsoft Visual Studio\2022\Community\VC\Tools\MSVC\14.44.35207\include\xutility
; File C:\Anka2Project\Anka2Project\Source\Binary\source\UserInterface\PythonCharacterManager.cpp
; File C:\Program Files\Microsoft Visual Studio\2022\Community\VC\Tools\MSVC\14.44.35207\include\xutility
; File C:\Anka2Project\Anka2Project\Source\Binary\source\UserInterface\PythonCharacterManager.cpp
; File C:\Program Files\Microsoft Visual Studio\2022\Community\VC\Tools\MSVC\14.44.35207\include\utility
; File C:\Program Files\Microsoft Visual Studio\2022\Community\VC\Tools\MSVC\14.44.35207\include\xutility
; File C:\Anka2Project\Anka2Project\Source\Binary\source\UserInterface\PythonCharacterManager.cpp
; File C:\Program Files\Microsoft Visual Studio\2022\Community\VC\Tools\MSVC\14.44.35207\include\xutility
; File C:\Anka2Project\Anka2Project\Source\Binary\source\UserInterface\PythonCharacterManager.cpp
; File C:\Program Files\Microsoft Visual Studio\2022\Community\VC\Tools\MSVC\14.44.35207\include\utility
; File C:\Anka2Project\Anka2Project\Source\Binary\source\UserInterface\PythonCharacterManager.cpp
; File C:\Program Files\Microsoft Visual Studio\2022\Community\VC\Tools\MSVC\14.44.35207\include\xutility
; File C:\Program Files\Microsoft Visual Studio\2022\Community\VC\Tools\MSVC\14.44.35207\include\utility
; File C:\Program Files\Microsoft Visual Studio\2022\Community\VC\Tools\MSVC\14.44.35207\include\xutility
; File C:\Program Files\Microsoft Visual Studio\2022\Community\VC\Tools\MSVC\14.44.35207\include\utility
; File C:\Program Files\Microsoft Visual Studio\2022\Community\VC\Tools\MSVC\14.44.35207\include\xutility
; File C:\Anka2Project\Anka2Project\Source\Binary\source\UserInterface\PythonCharacterManager.cpp
; File C:\Program Files\Microsoft Visual Studio\2022\Community\VC\Tools\MSVC\14.44.35207\include\utility
; File C:\Program Files\Microsoft Visual Studio\2022\Community\VC\Tools\MSVC\14.44.35207\include\algorithm
;	COMDAT ??$_Med3_unchecked@PAPAVCInstanceBase@@U?$_Ref_fn@UCInstanceBase_SLessCameraDistance@@@std@@@std@@YAXPAPAVCInstanceBase@@00U?$_Ref_fn@UCInstanceBase_SLessCameraDistance@@@0@@Z
_TEXT	SEGMENT
_pkInstLeft$1$ = -12					; size = 4
tv213 = -12						; size = 4
tv216 = -12						; size = 4
tv222 = -12						; size = 4
$T10 = -12						; size = 4
$T11 = -12						; size = 4
_pkInstLeft$1$ = -8					; size = 4
__Tmp$1$ = -8						; size = 4
$T12 = -8						; size = 4
_pkInstRight$1$ = -4					; size = 4
_pkInstRight$1$ = -4					; size = 4
__Last$ = 8						; size = 4
_pkInstRight$1$ = 8					; size = 4
__Pred$ = 12						; size = 4
??$_Med3_unchecked@PAPAVCInstanceBase@@U?$_Ref_fn@UCInstanceBase_SLessCameraDistance@@@std@@@std@@YAXPAPAVCInstanceBase@@00U?$_Ref_fn@UCInstanceBase_SLessCameraDistance@@@0@@Z PROC ; std::_Med3_unchecked<CInstanceBase * *,std::_Ref_fn<CInstanceBase_SLessCameraDistance> >, COMDAT
; __First$ = ecx
; __Mid$ = edx

; 8265 : _CONSTEXPR20 void _Med3_unchecked(_RanIt _First, _RanIt _Mid, _RanIt _Last, _Pr _Pred) {

  00000	55		 push	 ebp
  00001	8b ec		 mov	 ebp, esp
  00003	83 ec 0c	 sub	 esp, 12			; 0000000cH
; File C:\Program Files\Microsoft Visual Studio\2022\Community\VC\Tools\MSVC\14.44.35207\include\xutility

; 763  :             return _Fn(_STD forward<_Args>(_Vals)...);

  00006	8b 45 0c	 mov	 eax, DWORD PTR __Pred$[ebp]
; File C:\Program Files\Microsoft Visual Studio\2022\Community\VC\Tools\MSVC\14.44.35207\include\algorithm

; 8265 : _CONSTEXPR20 void _Med3_unchecked(_RanIt _First, _RanIt _Mid, _RanIt _Last, _Pr _Pred) {

  00009	53		 push	 ebx
  0000a	56		 push	 esi
  0000b	8b d9		 mov	 ebx, ecx
; File C:\Program Files\Microsoft Visual Studio\2022\Community\VC\Tools\MSVC\14.44.35207\include\xutility

; 763  :             return _Fn(_STD forward<_Args>(_Vals)...);

  0000d	89 45 f8	 mov	 DWORD PTR $T12[ebp], eax
; File C:\Program Files\Microsoft Visual Studio\2022\Community\VC\Tools\MSVC\14.44.35207\include\algorithm

; 8265 : _CONSTEXPR20 void _Med3_unchecked(_RanIt _First, _RanIt _Mid, _RanIt _Last, _Pr _Pred) {

  00010	57		 push	 edi
  00011	8b fa		 mov	 edi, edx
; File C:\Program Files\Microsoft Visual Studio\2022\Community\VC\Tools\MSVC\14.44.35207\include\xutility

; 763  :             return _Fn(_STD forward<_Args>(_Vals)...);

  00013	8b 03		 mov	 eax, DWORD PTR [ebx]
  00015	89 45 fc	 mov	 DWORD PTR _pkInstRight$1$[ebp], eax
  00018	8b 07		 mov	 eax, DWORD PTR [edi]
; File C:\Anka2Project\Anka2Project\Source\Binary\source\UserInterface\PythonCharacterManager.cpp

; 616  : 		int nLeftDeadPoint=pkInstLeft->IsDead();

  0001a	8b c8		 mov	 ecx, eax
; File C:\Program Files\Microsoft Visual Studio\2022\Community\VC\Tools\MSVC\14.44.35207\include\xutility

; 763  :             return _Fn(_STD forward<_Args>(_Vals)...);

  0001c	89 45 f4	 mov	 DWORD PTR _pkInstLeft$1$[ebp], eax
; File C:\Anka2Project\Anka2Project\Source\Binary\source\UserInterface\PythonCharacterManager.cpp

; 616  : 		int nLeftDeadPoint=pkInstLeft->IsDead();

  0001f	e8 00 00 00 00	 call	 ?IsDead@CInstanceBase@@QAEHXZ ; CInstanceBase::IsDead

; 617  : 		int nRightDeadPoint=pkInstRight->IsDead();

  00024	8b 4d fc	 mov	 ecx, DWORD PTR _pkInstRight$1$[ebp]
  00027	8b f0		 mov	 esi, eax
  00029	e8 00 00 00 00	 call	 ?IsDead@CInstanceBase@@QAEHXZ ; CInstanceBase::IsDead

; 618  : 
; 619  : 		if (nLeftDeadPoint<nRightDeadPoint)

  0002e	3b f0		 cmp	 esi, eax
  00030	7c 20		 jl	 SHORT $LN34@Med3_unche

; 620  : 			return true;
; 621  : 
; 622  : 		if (pkInstLeft->CalculateDistanceSq3d(m_kPPosEye)<pkInstRight->CalculateDistanceSq3d(m_kPPosEye))

  00032	8b 75 f8	 mov	 esi, DWORD PTR $T12[ebp]
  00035	8b 4d f4	 mov	 ecx, DWORD PTR _pkInstLeft$1$[ebp]
  00038	56		 push	 esi
  00039	e8 00 00 00 00	 call	 ?CalculateDistanceSq3d@CInstanceBase@@QAEMABUD3DXVECTOR3@@@Z ; CInstanceBase::CalculateDistanceSq3d
  0003e	8b 4d fc	 mov	 ecx, DWORD PTR _pkInstRight$1$[ebp]
  00041	56		 push	 esi
  00042	f3 0f 11 45 f4	 movss	 DWORD PTR tv213[ebp], xmm0
  00047	e8 00 00 00 00	 call	 ?CalculateDistanceSq3d@CInstanceBase@@QAEMABUD3DXVECTOR3@@@Z ; CInstanceBase::CalculateDistanceSq3d
  0004c	0f 2f 45 f4	 comiss	 xmm0, DWORD PTR tv213[ebp]
  00050	76 08		 jbe	 SHORT $LN33@Med3_unche
$LN34@Med3_unche:
; File C:\Program Files\Microsoft Visual Studio\2022\Community\VC\Tools\MSVC\14.44.35207\include\utility

; 139  :     _Ty _Tmp = _STD move(_Left);

  00052	8b 0f		 mov	 ecx, DWORD PTR [edi]

; 140  :     _Left    = _STD move(_Right);

  00054	8b 03		 mov	 eax, DWORD PTR [ebx]
  00056	89 07		 mov	 DWORD PTR [edi], eax

; 141  :     _Right   = _STD move(_Tmp);

  00058	89 0b		 mov	 DWORD PTR [ebx], ecx
$LN33@Med3_unche:
; File C:\Program Files\Microsoft Visual Studio\2022\Community\VC\Tools\MSVC\14.44.35207\include\xutility

; 763  :             return _Fn(_STD forward<_Args>(_Vals)...);

  0005a	8b 45 0c	 mov	 eax, DWORD PTR __Pred$[ebp]
  0005d	89 45 f4	 mov	 DWORD PTR $T11[ebp], eax
  00060	8b 07		 mov	 eax, DWORD PTR [edi]
  00062	89 45 fc	 mov	 DWORD PTR _pkInstRight$1$[ebp], eax
  00065	8b 45 08	 mov	 eax, DWORD PTR __Last$[ebp]
  00068	8b 00		 mov	 eax, DWORD PTR [eax]
; File C:\Anka2Project\Anka2Project\Source\Binary\source\UserInterface\PythonCharacterManager.cpp

; 616  : 		int nLeftDeadPoint=pkInstLeft->IsDead();

  0006a	8b c8		 mov	 ecx, eax
; File C:\Program Files\Microsoft Visual Studio\2022\Community\VC\Tools\MSVC\14.44.35207\include\xutility

; 763  :             return _Fn(_STD forward<_Args>(_Vals)...);

  0006c	89 45 f8	 mov	 DWORD PTR _pkInstLeft$1$[ebp], eax
; File C:\Anka2Project\Anka2Project\Source\Binary\source\UserInterface\PythonCharacterManager.cpp

; 616  : 		int nLeftDeadPoint=pkInstLeft->IsDead();

  0006f	e8 00 00 00 00	 call	 ?IsDead@CInstanceBase@@QAEHXZ ; CInstanceBase::IsDead

; 617  : 		int nRightDeadPoint=pkInstRight->IsDead();

  00074	8b 4d fc	 mov	 ecx, DWORD PTR _pkInstRight$1$[ebp]
  00077	8b f0		 mov	 esi, eax
  00079	e8 00 00 00 00	 call	 ?IsDead@CInstanceBase@@QAEHXZ ; CInstanceBase::IsDead

; 618  : 
; 619  : 		if (nLeftDeadPoint<nRightDeadPoint)

  0007e	3b f0		 cmp	 esi, eax
  00080	7c 20		 jl	 SHORT $LN35@Med3_unche

; 620  : 			return true;
; 621  : 
; 622  : 		if (pkInstLeft->CalculateDistanceSq3d(m_kPPosEye)<pkInstRight->CalculateDistanceSq3d(m_kPPosEye))

  00082	8b 75 f4	 mov	 esi, DWORD PTR $T11[ebp]
  00085	8b 4d f8	 mov	 ecx, DWORD PTR _pkInstLeft$1$[ebp]
  00088	56		 push	 esi
  00089	e8 00 00 00 00	 call	 ?CalculateDistanceSq3d@CInstanceBase@@QAEMABUD3DXVECTOR3@@@Z ; CInstanceBase::CalculateDistanceSq3d
  0008e	8b 4d fc	 mov	 ecx, DWORD PTR _pkInstRight$1$[ebp]
  00091	56		 push	 esi
  00092	f3 0f 11 45 f4	 movss	 DWORD PTR tv216[ebp], xmm0
  00097	e8 00 00 00 00	 call	 ?CalculateDistanceSq3d@CInstanceBase@@QAEMABUD3DXVECTOR3@@@Z ; CInstanceBase::CalculateDistanceSq3d
  0009c	0f 2f 45 f4	 comiss	 xmm0, DWORD PTR tv216[ebp]
  000a0	76 56		 jbe	 SHORT $LN31@Med3_unche
$LN35@Med3_unche:
; File C:\Program Files\Microsoft Visual Studio\2022\Community\VC\Tools\MSVC\14.44.35207\include\utility

; 139  :     _Ty _Tmp = _STD move(_Left);

  000a2	8b 4d 08	 mov	 ecx, DWORD PTR __Last$[ebp]

; 140  :     _Left    = _STD move(_Right);

  000a5	8b 07		 mov	 eax, DWORD PTR [edi]
  000a7	8b 11		 mov	 edx, DWORD PTR [ecx]
  000a9	89 01		 mov	 DWORD PTR [ecx], eax
; File C:\Anka2Project\Anka2Project\Source\Binary\source\UserInterface\PythonCharacterManager.cpp

; 616  : 		int nLeftDeadPoint=pkInstLeft->IsDead();

  000ab	8b ca		 mov	 ecx, edx
; File C:\Program Files\Microsoft Visual Studio\2022\Community\VC\Tools\MSVC\14.44.35207\include\xutility

; 763  :             return _Fn(_STD forward<_Args>(_Vals)...);

  000ad	8b 45 0c	 mov	 eax, DWORD PTR __Pred$[ebp]
; File C:\Program Files\Microsoft Visual Studio\2022\Community\VC\Tools\MSVC\14.44.35207\include\utility

; 141  :     _Right   = _STD move(_Tmp);

  000b0	89 17		 mov	 DWORD PTR [edi], edx
; File C:\Program Files\Microsoft Visual Studio\2022\Community\VC\Tools\MSVC\14.44.35207\include\xutility

; 763  :             return _Fn(_STD forward<_Args>(_Vals)...);

  000b2	89 45 f4	 mov	 DWORD PTR $T10[ebp], eax
  000b5	8b 03		 mov	 eax, DWORD PTR [ebx]
; File C:\Program Files\Microsoft Visual Studio\2022\Community\VC\Tools\MSVC\14.44.35207\include\utility

; 139  :     _Ty _Tmp = _STD move(_Left);

  000b7	89 55 f8	 mov	 DWORD PTR __Tmp$1$[ebp], edx
; File C:\Program Files\Microsoft Visual Studio\2022\Community\VC\Tools\MSVC\14.44.35207\include\xutility

; 763  :             return _Fn(_STD forward<_Args>(_Vals)...);

  000ba	89 45 08	 mov	 DWORD PTR _pkInstRight$1$[ebp], eax
; File C:\Anka2Project\Anka2Project\Source\Binary\source\UserInterface\PythonCharacterManager.cpp

; 616  : 		int nLeftDeadPoint=pkInstLeft->IsDead();

  000bd	e8 00 00 00 00	 call	 ?IsDead@CInstanceBase@@QAEHXZ ; CInstanceBase::IsDead

; 617  : 		int nRightDeadPoint=pkInstRight->IsDead();

  000c2	8b 4d 08	 mov	 ecx, DWORD PTR _pkInstRight$1$[ebp]
  000c5	8b f0		 mov	 esi, eax
  000c7	e8 00 00 00 00	 call	 ?IsDead@CInstanceBase@@QAEHXZ ; CInstanceBase::IsDead

; 618  : 
; 619  : 		if (nLeftDeadPoint<nRightDeadPoint)

  000cc	3b f0		 cmp	 esi, eax
  000ce	7c 20		 jl	 SHORT $LN36@Med3_unche

; 620  : 			return true;
; 621  : 
; 622  : 		if (pkInstLeft->CalculateDistanceSq3d(m_kPPosEye)<pkInstRight->CalculateDistanceSq3d(m_kPPosEye))

  000d0	8b 75 f4	 mov	 esi, DWORD PTR $T10[ebp]
  000d3	8b 4d f8	 mov	 ecx, DWORD PTR __Tmp$1$[ebp]
  000d6	56		 push	 esi
  000d7	e8 00 00 00 00	 call	 ?CalculateDistanceSq3d@CInstanceBase@@QAEMABUD3DXVECTOR3@@@Z ; CInstanceBase::CalculateDistanceSq3d
  000dc	8b 4d 08	 mov	 ecx, DWORD PTR _pkInstRight$1$[ebp]
  000df	56		 push	 esi
  000e0	f3 0f 11 45 f4	 movss	 DWORD PTR tv222[ebp], xmm0
  000e5	e8 00 00 00 00	 call	 ?CalculateDistanceSq3d@CInstanceBase@@QAEMABUD3DXVECTOR3@@@Z ; CInstanceBase::CalculateDistanceSq3d
  000ea	0f 2f 45 f4	 comiss	 xmm0, DWORD PTR tv222[ebp]
  000ee	76 08		 jbe	 SHORT $LN31@Med3_unche
$LN36@Med3_unche:
; File C:\Program Files\Microsoft Visual Studio\2022\Community\VC\Tools\MSVC\14.44.35207\include\utility

; 139  :     _Ty _Tmp = _STD move(_Left);

  000f0	8b 0f		 mov	 ecx, DWORD PTR [edi]

; 140  :     _Left    = _STD move(_Right);

  000f2	8b 03		 mov	 eax, DWORD PTR [ebx]
  000f4	89 07		 mov	 DWORD PTR [edi], eax

; 141  :     _Right   = _STD move(_Tmp);

  000f6	89 0b		 mov	 DWORD PTR [ebx], ecx
$LN31@Med3_unche:
  000f8	5f		 pop	 edi
; File C:\Program Files\Microsoft Visual Studio\2022\Community\VC\Tools\MSVC\14.44.35207\include\algorithm

; 8278 : }

  000f9	5e		 pop	 esi
  000fa	5b		 pop	 ebx
  000fb	8b e5		 mov	 esp, ebp
  000fd	5d		 pop	 ebp
  000fe	c3		 ret	 0
??$_Med3_unchecked@PAPAVCInstanceBase@@U?$_Ref_fn@UCInstanceBase_SLessCameraDistance@@@std@@@std@@YAXPAPAVCInstanceBase@@00U?$_Ref_fn@UCInstanceBase_SLessCameraDistance@@@0@@Z ENDP ; std::_Med3_unchecked<CInstanceBase * *,std::_Ref_fn<CInstanceBase_SLessCameraDistance> >
_TEXT	ENDS
; Function compile flags: /Ogtp
; File C:\Program Files\Microsoft Visual Studio\2022\Community\VC\Tools\MSVC\14.44.35207\include\xutility
;	COMDAT ??$_Copy_memmove@PAU?$pair@PAVCInstanceBase@@M@std@@PAU12@@std@@YAPAU?$pair@PAVCInstanceBase@@M@0@PAU10@00@Z
_TEXT	SEGMENT
__Dest$ = 8						; size = 4
??$_Copy_memmove@PAU?$pair@PAVCInstanceBase@@M@std@@PAU12@@std@@YAPAU?$pair@PAVCInstanceBase@@M@0@PAU10@00@Z PROC ; std::_Copy_memmove<std::pair<CInstanceBase *,float> *,std::pair<CInstanceBase *,float> *>, COMDAT
; __First$ = ecx
; __Last$ = edx

; 4762 : _OutCtgIt _Copy_memmove(_CtgIt _First, _CtgIt _Last, _OutCtgIt _Dest) {

  00000	55		 push	 ebp
  00001	8b ec		 mov	 ebp, esp

; 4763 :     _STL_INTERNAL_CHECK(_First <= _Last);
; 4764 :     const auto _First_ptr    = _STD _To_address(_First);
; 4765 :     const auto _Last_ptr     = _STD _To_address(_Last);
; 4766 :     const auto _Object_count = static_cast<size_t>(_Last_ptr - _First_ptr);
; 4767 :     const auto _First_ch     = const_cast<const char*>(reinterpret_cast<const volatile char*>(_First_ptr));
; 4768 :     const auto _Last_ch      = const_cast<const char*>(reinterpret_cast<const volatile char*>(_Last_ptr));
; 4769 :     const auto _Byte_count   = static_cast<size_t>(_Last_ch - _First_ch);

  00003	2b d1		 sub	 edx, ecx

; 4770 :     return _STD _Copy_memmove_tail(_First_ch, _STD move(_Dest), _Byte_count, _Object_count);

  00005	51		 push	 ecx
  00006	52		 push	 edx
  00007	8b 55 08	 mov	 edx, DWORD PTR __Dest$[ebp]
  0000a	e8 00 00 00 00	 call	 ??$_Copy_memmove_tail@PAU?$pair@PAVCInstanceBase@@M@std@@@std@@YAPAU?$pair@PAVCInstanceBase@@M@0@QBDQAU10@II@Z ; std::_Copy_memmove_tail<std::pair<CInstanceBase *,float> *>
  0000f	83 c4 08	 add	 esp, 8

; 4771 : }

  00012	5d		 pop	 ebp
  00013	c3		 ret	 0
??$_Copy_memmove@PAU?$pair@PAVCInstanceBase@@M@std@@PAU12@@std@@YAPAU?$pair@PAVCInstanceBase@@M@0@PAU10@00@Z ENDP ; std::_Copy_memmove<std::pair<CInstanceBase *,float> *,std::pair<CInstanceBase *,float> *>
_TEXT	ENDS
; Function compile flags: /Ogtp
; File C:\Program Files\Microsoft Visual Studio\2022\Community\VC\Tools\MSVC\14.44.35207\include\__msvc_heap_algorithms.hpp
; File C:\Program Files\Microsoft Visual Studio\2022\Community\VC\Tools\MSVC\14.44.35207\include\utility
; File C:\Program Files\Microsoft Visual Studio\2022\Community\VC\Tools\MSVC\14.44.35207\include\__msvc_heap_algorithms.hpp
; File C:\Program Files\Microsoft Visual Studio\2022\Community\VC\Tools\MSVC\14.44.35207\include\utility
; File C:\Program Files\Microsoft Visual Studio\2022\Community\VC\Tools\MSVC\14.44.35207\include\__msvc_heap_algorithms.hpp
;	COMDAT ??$_Push_heap_by_index@PAU?$pair@PAVCInstanceBase@@M@std@@U12@P6A_NABU12@0@Z@std@@YAXPAU?$pair@PAVCInstanceBase@@M@0@HH$$QAU10@P6A_NABU10@2@Z@Z
_TEXT	SEGMENT
__Top$ = 8						; size = 4
__Val$ = 12						; size = 4
__Pred$ = 16						; size = 4
??$_Push_heap_by_index@PAU?$pair@PAVCInstanceBase@@M@std@@U12@P6A_NABU12@0@Z@std@@YAXPAU?$pair@PAVCInstanceBase@@M@0@HH$$QAU10@P6A_NABU10@2@Z@Z PROC ; std::_Push_heap_by_index<std::pair<CInstanceBase *,float> *,std::pair<CInstanceBase *,float>,bool (__cdecl*)(std::pair<CInstanceBase *,float> const &,std::pair<CInstanceBase *,float> const &)>, COMDAT
; __First$ = ecx
; __Hole$ = edx

; 23   :     _RanIt _First, _Iter_diff_t<_RanIt> _Hole, _Iter_diff_t<_RanIt> _Top, _Ty&& _Val, _Pr _Pred) {

  00000	55		 push	 ebp
  00001	8b ec		 mov	 ebp, esp
  00003	53		 push	 ebx
  00004	57		 push	 edi
  00005	8b fa		 mov	 edi, edx
  00007	8b d9		 mov	 ebx, ecx

; 24   :     // percolate _Hole to _Top or where _Val belongs
; 25   :     using _Diff = _Iter_diff_t<_RanIt>;
; 26   :     for (_Diff _Idx                                                         = (_Hole - 1) >> 1; // shift for codegen
; 27   :         _Top < _Hole && _DEBUG_LT_PRED(_Pred, *(_First + _Idx), _Val); _Idx = (_Hole - 1) >> 1) { // shift for codegen

  00009	39 7d 08	 cmp	 DWORD PTR __Top$[ebp], edi
  0000c	7d 2e		 jge	 SHORT $LN16@Push_heap_
  0000e	56		 push	 esi
  0000f	90		 npad	 1
$LL4@Push_heap_:
  00010	ff 75 0c	 push	 DWORD PTR __Val$[ebp]
  00013	8d 77 ff	 lea	 esi, DWORD PTR [edi-1]
  00016	d1 fe		 sar	 esi, 1
  00018	8d 04 f3	 lea	 eax, DWORD PTR [ebx+esi*8]
  0001b	50		 push	 eax
  0001c	ff 55 10	 call	 DWORD PTR __Pred$[ebp]
  0001f	83 c4 08	 add	 esp, 8
  00022	84 c0		 test	 al, al
  00024	74 15		 je	 SHORT $LN19@Push_heap_
; File C:\Program Files\Microsoft Visual Studio\2022\Community\VC\Tools\MSVC\14.44.35207\include\utility

; 365  :         first  = _STD forward<_Ty1>(_Right.first);

  00026	8b 04 f3	 mov	 eax, DWORD PTR [ebx+esi*8]
  00029	89 04 fb	 mov	 DWORD PTR [ebx+edi*8], eax

; 366  :         second = _STD forward<_Ty2>(_Right.second);

  0002c	8b 44 f3 04	 mov	 eax, DWORD PTR [ebx+esi*8+4]
  00030	89 44 fb 04	 mov	 DWORD PTR [ebx+edi*8+4], eax
; File C:\Program Files\Microsoft Visual Studio\2022\Community\VC\Tools\MSVC\14.44.35207\include\__msvc_heap_algorithms.hpp

; 30   :         _Hole             = _Idx;

  00034	8b fe		 mov	 edi, esi
  00036	39 75 08	 cmp	 DWORD PTR __Top$[ebp], esi
  00039	7c d5		 jl	 SHORT $LL4@Push_heap_
$LN19@Push_heap_:
  0003b	5e		 pop	 esi
$LN16@Push_heap_:
; File C:\Program Files\Microsoft Visual Studio\2022\Community\VC\Tools\MSVC\14.44.35207\include\utility

; 365  :         first  = _STD forward<_Ty1>(_Right.first);

  0003c	8b 4d 0c	 mov	 ecx, DWORD PTR __Val$[ebp]
  0003f	8b 01		 mov	 eax, DWORD PTR [ecx]
  00041	89 04 fb	 mov	 DWORD PTR [ebx+edi*8], eax

; 366  :         second = _STD forward<_Ty2>(_Right.second);

  00044	8b 41 04	 mov	 eax, DWORD PTR [ecx+4]
  00047	89 44 fb 04	 mov	 DWORD PTR [ebx+edi*8+4], eax
  0004b	5f		 pop	 edi
  0004c	5b		 pop	 ebx
; File C:\Program Files\Microsoft Visual Studio\2022\Community\VC\Tools\MSVC\14.44.35207\include\__msvc_heap_algorithms.hpp

; 34   : }

  0004d	5d		 pop	 ebp
  0004e	c3		 ret	 0
??$_Push_heap_by_index@PAU?$pair@PAVCInstanceBase@@M@std@@U12@P6A_NABU12@0@Z@std@@YAXPAU?$pair@PAVCInstanceBase@@M@0@HH$$QAU10@P6A_NABU10@2@Z@Z ENDP ; std::_Push_heap_by_index<std::pair<CInstanceBase *,float> *,std::pair<CInstanceBase *,float>,bool (__cdecl*)(std::pair<CInstanceBase *,float> const &,std::pair<CInstanceBase *,float> const &)>
_TEXT	ENDS
; Function compile flags: /Ogtp
; File C:\Program Files\Microsoft Visual Studio\2022\Community\VC\Tools\MSVC\14.44.35207\include\algorithm
; File C:\Program Files\Microsoft Visual Studio\2022\Community\VC\Tools\MSVC\14.44.35207\include\utility
; File C:\Program Files\Microsoft Visual Studio\2022\Community\VC\Tools\MSVC\14.44.35207\include\algorithm
; File C:\Program Files\Microsoft Visual Studio\2022\Community\VC\Tools\MSVC\14.44.35207\include\utility
; File C:\Program Files\Microsoft Visual Studio\2022\Community\VC\Tools\MSVC\14.44.35207\include\algorithm
; File C:\Program Files\Microsoft Visual Studio\2022\Community\VC\Tools\MSVC\14.44.35207\include\utility
; File C:\Program Files\Microsoft Visual Studio\2022\Community\VC\Tools\MSVC\14.44.35207\include\algorithm
; File C:\Program Files\Microsoft Visual Studio\2022\Community\VC\Tools\MSVC\14.44.35207\include\utility
; File C:\Program Files\Microsoft Visual Studio\2022\Community\VC\Tools\MSVC\14.44.35207\include\algorithm
; File C:\Program Files\Microsoft Visual Studio\2022\Community\VC\Tools\MSVC\14.44.35207\include\utility
; File C:\Program Files\Microsoft Visual Studio\2022\Community\VC\Tools\MSVC\14.44.35207\include\algorithm
;	COMDAT ??$_Med3_unchecked@PAU?$pair@PAVCInstanceBase@@M@std@@P6A_NABU12@0@Z@std@@YAXPAU?$pair@PAVCInstanceBase@@M@0@00P6A_NABU10@1@Z@Z
_TEXT	SEGMENT
__First$1$ = -4						; size = 4
__Last$ = 8						; size = 4
__Pred$ = 12						; size = 4
??$_Med3_unchecked@PAU?$pair@PAVCInstanceBase@@M@std@@P6A_NABU12@0@Z@std@@YAXPAU?$pair@PAVCInstanceBase@@M@0@00P6A_NABU10@1@Z@Z PROC ; std::_Med3_unchecked<std::pair<CInstanceBase *,float> *,bool (__cdecl*)(std::pair<CInstanceBase *,float> const &,std::pair<CInstanceBase *,float> const &)>, COMDAT
; __First$ = ecx
; __Mid$ = edx

; 8265 : _CONSTEXPR20 void _Med3_unchecked(_RanIt _First, _RanIt _Mid, _RanIt _Last, _Pr _Pred) {

  00000	55		 push	 ebp
  00001	8b ec		 mov	 ebp, esp
  00003	51		 push	 ecx
  00004	53		 push	 ebx
  00005	56		 push	 esi
  00006	8b c1		 mov	 eax, ecx
  00008	8b f2		 mov	 esi, edx
  0000a	57		 push	 edi

; 8266 :     // sort median of three elements to middle
; 8267 :     if (_DEBUG_LT_PRED(_Pred, *_Mid, *_First)) {

  0000b	50		 push	 eax
  0000c	56		 push	 esi
  0000d	89 45 fc	 mov	 DWORD PTR __First$1$[ebp], eax
  00010	8d 58 04	 lea	 ebx, DWORD PTR [eax+4]
  00013	ff 55 0c	 call	 DWORD PTR __Pred$[ebp]
  00016	83 c4 08	 add	 esp, 8
  00019	84 c0		 test	 al, al
  0001b	74 19		 je	 SHORT $LN43@Med3_unche
; File C:\Program Files\Microsoft Visual Studio\2022\Community\VC\Tools\MSVC\14.44.35207\include\utility

; 140  :     _Left    = _STD move(_Right);

  0001d	8b 55 fc	 mov	 edx, DWORD PTR __First$1$[ebp]
  00020	8b 0e		 mov	 ecx, DWORD PTR [esi]

; 139  :     _Ty _Tmp = _STD move(_Left);

  00022	f3 0f 10 46 04	 movss	 xmm0, DWORD PTR [esi+4]

; 140  :     _Left    = _STD move(_Right);

  00027	8b 02		 mov	 eax, DWORD PTR [edx]
  00029	89 06		 mov	 DWORD PTR [esi], eax
  0002b	8b 03		 mov	 eax, DWORD PTR [ebx]
  0002d	89 46 04	 mov	 DWORD PTR [esi+4], eax

; 141  :     _Right   = _STD move(_Tmp);

  00030	89 0a		 mov	 DWORD PTR [edx], ecx
  00032	f3 0f 11 03	 movss	 DWORD PTR [ebx], xmm0
$LN43@Med3_unche:
; File C:\Program Files\Microsoft Visual Studio\2022\Community\VC\Tools\MSVC\14.44.35207\include\algorithm

; 8271 :     if (_DEBUG_LT_PRED(_Pred, *_Last, *_Mid)) { // swap middle and last, then test first again

  00036	56		 push	 esi
  00037	ff 75 08	 push	 DWORD PTR __Last$[ebp]
  0003a	ff 55 0c	 call	 DWORD PTR __Pred$[ebp]
  0003d	83 c4 08	 add	 esp, 8
  00040	84 c0		 test	 al, al
  00042	74 42		 je	 SHORT $LN40@Med3_unche
; File C:\Program Files\Microsoft Visual Studio\2022\Community\VC\Tools\MSVC\14.44.35207\include\utility

; 139  :     _Ty _Tmp = _STD move(_Left);

  00044	8b 55 08	 mov	 edx, DWORD PTR __Last$[ebp]

; 140  :     _Left    = _STD move(_Right);

  00047	8b 06		 mov	 eax, DWORD PTR [esi]
; File C:\Program Files\Microsoft Visual Studio\2022\Community\VC\Tools\MSVC\14.44.35207\include\algorithm

; 8274 :         if (_DEBUG_LT_PRED(_Pred, *_Mid, *_First)) {

  00049	ff 75 fc	 push	 DWORD PTR __First$1$[ebp]
; File C:\Program Files\Microsoft Visual Studio\2022\Community\VC\Tools\MSVC\14.44.35207\include\utility

; 139  :     _Ty _Tmp = _STD move(_Left);

  0004c	8b 0a		 mov	 ecx, DWORD PTR [edx]
  0004e	f3 0f 10 42 04	 movss	 xmm0, DWORD PTR [edx+4]

; 140  :     _Left    = _STD move(_Right);

  00053	89 02		 mov	 DWORD PTR [edx], eax
  00055	8b 46 04	 mov	 eax, DWORD PTR [esi+4]
  00058	89 42 04	 mov	 DWORD PTR [edx+4], eax
; File C:\Program Files\Microsoft Visual Studio\2022\Community\VC\Tools\MSVC\14.44.35207\include\algorithm

; 8274 :         if (_DEBUG_LT_PRED(_Pred, *_Mid, *_First)) {

  0005b	56		 push	 esi
; File C:\Program Files\Microsoft Visual Studio\2022\Community\VC\Tools\MSVC\14.44.35207\include\utility

; 141  :     _Right   = _STD move(_Tmp);

  0005c	89 0e		 mov	 DWORD PTR [esi], ecx
  0005e	f3 0f 11 46 04	 movss	 DWORD PTR [esi+4], xmm0
; File C:\Program Files\Microsoft Visual Studio\2022\Community\VC\Tools\MSVC\14.44.35207\include\algorithm

; 8274 :         if (_DEBUG_LT_PRED(_Pred, *_Mid, *_First)) {

  00063	ff 55 0c	 call	 DWORD PTR __Pred$[ebp]
  00066	83 c4 08	 add	 esp, 8
  00069	84 c0		 test	 al, al
  0006b	74 19		 je	 SHORT $LN40@Med3_unche
; File C:\Program Files\Microsoft Visual Studio\2022\Community\VC\Tools\MSVC\14.44.35207\include\utility

; 140  :     _Left    = _STD move(_Right);

  0006d	8b 55 fc	 mov	 edx, DWORD PTR __First$1$[ebp]
  00070	8b 0e		 mov	 ecx, DWORD PTR [esi]

; 139  :     _Ty _Tmp = _STD move(_Left);

  00072	f3 0f 10 46 04	 movss	 xmm0, DWORD PTR [esi+4]

; 140  :     _Left    = _STD move(_Right);

  00077	8b 02		 mov	 eax, DWORD PTR [edx]
  00079	89 06		 mov	 DWORD PTR [esi], eax
  0007b	8b 03		 mov	 eax, DWORD PTR [ebx]
  0007d	89 46 04	 mov	 DWORD PTR [esi+4], eax

; 141  :     _Right   = _STD move(_Tmp);

  00080	89 0a		 mov	 DWORD PTR [edx], ecx
  00082	f3 0f 11 03	 movss	 DWORD PTR [ebx], xmm0
$LN40@Med3_unche:
  00086	5f		 pop	 edi
; File C:\Program Files\Microsoft Visual Studio\2022\Community\VC\Tools\MSVC\14.44.35207\include\algorithm

; 8278 : }

  00087	5e		 pop	 esi
  00088	5b		 pop	 ebx
  00089	8b e5		 mov	 esp, ebp
  0008b	5d		 pop	 ebp
  0008c	c3		 ret	 0
??$_Med3_unchecked@PAU?$pair@PAVCInstanceBase@@M@std@@P6A_NABU12@0@Z@std@@YAXPAU?$pair@PAVCInstanceBase@@M@0@00P6A_NABU10@1@Z@Z ENDP ; std::_Med3_unchecked<std::pair<CInstanceBase *,float> *,bool (__cdecl*)(std::pair<CInstanceBase *,float> const &,std::pair<CInstanceBase *,float> const &)>
_TEXT	ENDS
; Function compile flags: /Ogtp
; File C:\Program Files\Microsoft Visual Studio\2022\Community\VC\Tools\MSVC\14.44.35207\include\xutility
;	COMDAT ??$_Copy_memmove_tail@PAU?$pair@PAVCInstanceBase@@M@std@@@std@@YAPAU?$pair@PAVCInstanceBase@@M@0@QBDQAU10@II@Z
_TEXT	SEGMENT
__Byte_count$ = 8					; size = 4
__Object_count$dead$ = 12				; size = 4
??$_Copy_memmove_tail@PAU?$pair@PAVCInstanceBase@@M@std@@@std@@YAPAU?$pair@PAVCInstanceBase@@M@0@QBDQAU10@II@Z PROC ; std::_Copy_memmove_tail<std::pair<CInstanceBase *,float> *>, COMDAT
; __First_ch$ = ecx
; __Dest$ = edx

; 4747 :     const char* const _First_ch, const _OutCtgIt _Dest, const size_t _Byte_count, const size_t _Object_count) {

  00000	55		 push	 ebp
  00001	8b ec		 mov	 ebp, esp
  00003	56		 push	 esi

; 4748 :     _STL_INTERNAL_CHECK(_Byte_count == _Object_count * sizeof(*_Dest));
; 4749 :     const auto _Dest_ptr = _STD _To_address(_Dest);
; 4750 :     const auto _Dest_ch  = const_cast<char*>(reinterpret_cast<const volatile char*>(_Dest_ptr));
; 4751 :     _CSTD memmove(_Dest_ch, _First_ch, _Byte_count);

  00004	8b 75 08	 mov	 esi, DWORD PTR __Byte_count$[ebp]
  00007	57		 push	 edi
  00008	56		 push	 esi
  00009	8b fa		 mov	 edi, edx
  0000b	51		 push	 ecx
  0000c	57		 push	 edi
  0000d	e8 00 00 00 00	 call	 _memmove
  00012	83 c4 0c	 add	 esp, 12			; 0000000cH

; 4752 :     if constexpr (is_pointer_v<_OutCtgIt>) {
; 4753 :         (void) _Object_count;
; 4754 :         // CodeQL [SM02986] This cast is correct: we're bypassing pointer arithmetic for performance.
; 4755 :         return reinterpret_cast<_OutCtgIt>(_Dest_ch + _Byte_count);

  00015	8d 04 37	 lea	 eax, DWORD PTR [edi+esi]
  00018	5f		 pop	 edi
  00019	5e		 pop	 esi

; 4756 :     } else {
; 4757 :         return _Dest + static_cast<_Iter_diff_t<_OutCtgIt>>(_Object_count);
; 4758 :     }
; 4759 : }

  0001a	5d		 pop	 ebp
  0001b	c3		 ret	 0
??$_Copy_memmove_tail@PAU?$pair@PAVCInstanceBase@@M@std@@@std@@YAPAU?$pair@PAVCInstanceBase@@M@0@QBDQAU10@II@Z ENDP ; std::_Copy_memmove_tail<std::pair<CInstanceBase *,float> *>
_TEXT	ENDS
END
