; Listing generated by Microsoft (R) Optimizing Compiler Version 19.44.35219.0 

	TITLE	c:\anka2project\anka2project\source\binary\vs_files\userinterface\release\pythonskill.obj
	.686P
	.XMM
	include listing.inc
	.model	flat

INCLUDELIB OLDNAMES

PUBLIC	??_C@_0FG@JMHDMKFK@CPythonSkill?3?3RegisterSkillTabl@ ; `string'
PUBLIC	??_C@_03IINAMCGF@atk@				; `string'
PUBLIC	??_C@_0EO@GJJLGCC@CPythonSkill?3?3RegisterSkillTabl@ ; `string'
PUBLIC	??_C@_06EBGNBFIA@number@			; `string'
PUBLIC	??_C@_04MPLEFDAG@mwep@				; `string'
PUBLIC	??_C@_06NHGAHIJM@minatk@			; `string'
PUBLIC	??_C@_03KLIPLJLL@min@				; `string'
PUBLIC	??_C@_03LJAEFNNE@max@				; `string'
PUBLIC	??_C@_07LIKKJAE@minmwep@			; `string'
PUBLIC	??_C@_07ONOKAGOF@maxmwep@			; `string'
PUBLIC	??_C@_06NEJDJIND@maxatk@			; `string'
PUBLIC	??_C@_05GMJBCDPG@_?$CF02d@			; `string'
PUBLIC	??_C@_03NNBCEMGJ@?$CK?53@			; `string'
PUBLIC	??_C@_0CC@GCKFPEAL@SkillDesc?4line?$CI?$CFd?$CJ?4NO_VNUM_ERRO@ ; `string'
PUBLIC	??_C@_04DLFHDFGL@?4sub@				; `string'
PUBLIC	??_C@_0CB@DMLPIAAA@SkillDesc?4line?$CI?$CFd?$CJ?4NO_JOB_ERROR@ ; `string'
PUBLIC	??_C@_0CD@PBEIPNPF@SkillDesc?4line?$CI?$CFd?$CJ?4NO_INDEX_ERR@ ; `string'
PUBLIC	??_C@_01DNKMNLPK@?$HM@				; `string'
PUBLIC	??_C@_0FA@HKALFJMK@CPythonSkill?3?3RegisterSkillDesc@ ; `string'
PUBLIC	??_C@_0FB@LIPAFJME@CPythonSkill?3?3RegisterSkillDesc@ ; `string'
PUBLIC	??_C@_0EP@BPIIEGNI@CPythonSkill?3?3RegisterSkillDesc@ ; `string'
PUBLIC	??_C@_0M@MMGCNLPF@?$CFsskill?1?$CFs?1@		; `string'
PUBLIC	??_C@_0BI@FJJHCJFN@?$CFsskill?1common?1support?1@ ; `string'
PUBLIC	??_C@_0EA@HLDJPOAF@CPythonSkill?3?3RegisterPetSkillT@ ; `string'
PUBLIC	??_C@_0CN@EGOMLGLD@?$CFs?$FL?$CFs?$FN?5Skill?5grade?5motion?5?$FL?$CFd?$FN?5@ ; `string'
PUBLIC	??_C@_0EG@CECMJFJD@CPythonSkill?3?3RegisterPetSkillT@ ; `string'
PUBLIC	??_C@_0EH@DDJGPANA@CPythonSkill?3?3RegisterPetSkillT@ ; `string'
PUBLIC	??_C@_0BL@GJNFLNHG@d?3?1ymir?5work?1ui?1skill?1pet?1@ ; `string'
PUBLIC	??_C@_0EL@PCKBGLGB@CPythonSkill?3?3RegisterPetSkillT@ ; `string'
PUBLIC	??_C@_0EG@FEBECLPE@CPythonSkill?3?3RegisterPetSkillT@ ; `string'
PUBLIC	??_C@_04LMMJFDCN@AUTO@				; `string'
PUBLIC	??_C@_0FE@DNAFFMLK@CPythonSkill?3?3RegisterSkill?$CIdwS@ ; `string'
PUBLIC	??_C@_0EN@CCBMGIML@CPythonSkill?3?3RegisterPetSkillT@ ; `string'
PUBLIC	??_C@_0FD@BPAOEOEO@Strange?5Skill?5Type?5?9?5CPythonSki@ ; `string'
PUBLIC	??_C@_04GPMDFGEJ@type@				; `string'
PUBLIC	??_C@_09HGIEBAJ@attribute@			; `string'
PUBLIC	??_C@_0FK@GEMIAIHM@CPythonSkill?3?3RegisterSkill?$CIdwS@ ; `string'
PUBLIC	??_C@_0L@OFCPBCKK@needweapon@			; `string'
PUBLIC	??_C@_0FI@NGLMACOA@Strange?5Skill?5Attribute?5?9?5CPyth@ ; `string'
PUBLIC	??_C@_06JBGOOFCN@?$CFdname@			; `string'
PUBLIC	??_C@_0FK@CIMCNNKO@Strange?5Skill?5Need?5Weapon?5?9?5CPy@ ; `string'
PUBLIC	??_C@_0O@NCHOGIBK@?$CFddescription@		; `string'
PUBLIC	??_C@_0FE@LFJDJPLO@CPythonSkill?3?3RegisterSkill?$CIdwS@ ; `string'
PUBLIC	??_C@_0N@CDMMOEBD@iconfilename@			; `string'
PUBLIC	??_C@_0M@PPJNHBMP@description@			; `string'
PUBLIC	??_C@_0BA@IOBOECCA@?$CFdconditiondata@		; `string'
PUBLIC	??_C@_0FO@BPLAJAHG@CPythonSkill?3?3RegisterSkill?$CIdwS@ ; `string'
PUBLIC	??_C@_0N@GFIELPPM@?$CFdaffectdata@		; `string'
PUBLIC	??_C@_0O@BGDKPGFJ@conditiondata@		; `string'
PUBLIC	??_C@_0M@PCGMAJCD@?$CFdgradedata@		; `string'
PUBLIC	??_C@_0L@IEHCOHAD@affectdata@			; `string'
PUBLIC	??_C@_0BA@EILLLIMM@cooltimeformula@		; `string'
PUBLIC	??_C@_0FJ@NEGDHIMM@CPythonSkill?3?3RegisterSkill?$CIdwS@ ; `string'
PUBLIC	??_C@_0BH@DAEIJFBL@motionloopcountformula@	; `string'
PUBLIC	??_C@_0BD@GDJBKHMN@targetcountformula@		; `string'
PUBLIC	??_C@_0BG@DFAOMADI@continuationspformula@	; `string'
PUBLIC	??_C@_0O@OKAHIEDK@needspformula@		; `string'
PUBLIC	??_C@_08JAPIFGPH@maxlevel@			; `string'
PUBLIC	??_C@_05CCGOGOBM@range@				; `string'
PUBLIC	??_C@_0M@DIJMKMOF@motionindex@			; `string'
PUBLIC	??_C@_0N@BIJBKECH@leveluppoint@			; `string'
PUBLIC	??_C@_04CGFJFPFD@none@				; `string'
PUBLIC	??_C@_0BB@FIGDLACA@motionindexforme@		; `string'
PUBLIC	??_C@_07ILMBEDPO@support@			; `string'
PUBLIC	??_C@_06MDLIGPKC@active@			; `string'
PUBLIC	??_C@_08BFJJNNGH@assassin@			; `string'
PUBLIC	??_C@_07MMNNMPML@warrior@			; `string'
PUBLIC	??_C@_06IEMBPBBN@shaman@			; `string'
PUBLIC	??_C@_04PANNCEIL@sura@				; `string'
PUBLIC	??_C@_0BG@KFFKABFH@CAN_USE_IF_NOT_ENOUGH@	; `string'
PUBLIC	??_C@_07CGFACAKO@passive@			; `string'
PUBLIC	??_C@_0M@GMELPIKL@NEED_CORPSE@			; `string'
PUBLIC	??_C@_09IHHGJKF@FAN_RANGE@			; `string'
PUBLIC	??_C@_0BC@NOPFFPJN@WEAPON_LIMITATION@		; `string'
PUBLIC	??_C@_06FDJJHOKF@TOGGLE@			; `string'
PUBLIC	??_C@_0O@OBGKPFHN@CHARGE_ATTACK@		; `string'
PUBLIC	??_C@_0N@OECBKPIO@MELEE_ATTACK@			; `string'
PUBLIC	??_C@_0BF@KAHLCFKD@CAN_CHANGE_DIRECTION@	; `string'
PUBLIC	??_C@_06FOCLNFCJ@USE_HP@			; `string'
PUBLIC	??_C@_0P@JIHFJGIE@CAN_USE_FOR_ME@		; `string'
PUBLIC	??_C@_0P@LCOEKGDG@STANDING_SKILL@		; `string'
PUBLIC	??_C@_0N@DMIFKBAA@MOVING_SKILL@			; `string'
PUBLIC	??_C@_0N@DGOOFKCE@ATTACK_SKILL@			; `string'
PUBLIC	??_C@_0BE@PHFCBKJJ@TIME_INCREASE_SKILL@		; `string'
PUBLIC	??_C@_0M@NDECBLLN@HORSE_SKILL@			; `string'
PUBLIC	??_C@_0N@CDNKGDPF@CIRCLE_RANGE@			; `string'
PUBLIC	??_C@_0BA@PANOFCME@CANNOT_LEVEL_UP@		; `string'
PUBLIC	??_C@_05HGEOAPGK@SWORD@				; `string'
PUBLIC	??_C@_0O@DNFBBGFD@SEARCH_TARGET@		; `string'
PUBLIC	??_C@_03GBJKLBDL@BOW@				; `string'
PUBLIC	??_C@_06EBPDMAC@DAGGER@				; `string'
PUBLIC	??_C@_0N@OINLDIMI@DOUBLE_SWORD@			; `string'
PUBLIC	??_C@_0L@CIOLFOIH@TWO_HANDED@			; `string'
PUBLIC	??_C@_03HPGGKCHO@FAN@				; `string'
PUBLIC	??_C@_04JCGINPGJ@BELL@				; `string'
PUBLIC	??_C@_0L@BFLCNLLJ@EMPTY_HAND@			; `string'
PUBLIC	??_C@_05CHNCNNHJ@ARROW@				; `string'
PUBLIC	??_C@_02PGLKMFED@HR@				; `string'
PUBLIC	??_C@_05FGPNDJME@chain@				; `string'
PUBLIC	??_C@_05KOHFLOFG@Level@				; `string'
PUBLIC	??_C@_02JFNPKIJL@LV@				; `string'
PUBLIC	??_C@_05CDGDFMNN@MaxSP@				; `string'
PUBLIC	??_C@_05DDBABAEM@MaxHP@				; `string'
PUBLIC	??_C@_07NIKGIGML@MaxMWEP@			; `string'
PUBLIC	??_C@_07DOMGCJCK@MinMWEP@			; `string'
PUBLIC	??_C@_06NHHFGGKN@MaxWEP@			; `string'
PUBLIC	??_C@_06NEIGIGOC@MinWEP@			; `string'
PUBLIC	??_C@_06BGNFGMDD@MaxATK@			; `string'
PUBLIC	??_C@_06BFCGIMHM@MinATK@			; `string'
PUBLIC	??_C@_0M@LAGJIOMN@AttackPower@			; `string'
PUBLIC	??_C@_06BJMCHJAI@ATKSPD@			; `string'
PUBLIC	??_C@_06DJDDIFMO@AtkMax@			; `string'
PUBLIC	??_C@_06CLLIGBKB@AtkMin@			; `string'
PUBLIC	??_C@_03BKLPEICB@DEF@				; `string'
PUBLIC	??_C@_0N@BDLLDGMK@DefencePower@			; `string'
PUBLIC	??_C@_0BB@JCAPOPOP@MagicAttackPower@		; `string'
PUBLIC	??_C@_04DIOLBHO@MWEP@				; `string'
PUBLIC	??_C@_03OEDLDJBF@STR@				; `string'
PUBLIC	??_C@_03JMHEAPMO@INT@				; `string'
PUBLIC	??_C@_03ECCGHPEG@CON@				; `string'
PUBLIC	??_C@_03MOPOHHPO@DEX@				; `string'
PUBLIC	??_C@_06JOEFCHGL@maxmtk@			; `string'
PUBLIC	??_C@_06JNLGMHCE@minmtk@			; `string'
PUBLIC	??_C@_05IJAGDLKJ@maxsp@				; `string'
PUBLIC	??_C@_05JJHFHHDI@maxhp@				; `string'
PUBLIC	??_C@_06BGMAHCAC@minwep@			; `string'
PUBLIC	??_C@_04OLEAENMA@odef@				; `string'
PUBLIC	??_C@_02DIBGMKNJ@lv@				; `string'
PUBLIC	??_C@_06BFDDJCEN@maxwep@			; `string'
PUBLIC	??_C@_02HBJMJOPF@iq@				; `string'
PUBLIC	??_C@_02FEKCJMIO@ar@				; `string'
PUBLIC	??_C@_03MDAFLKIC@dex@				; `string'
PUBLIC	??_C@_03OJMAPEGJ@str@				; `string'
PUBLIC	??_C@_03MCAGHNNN@mtk@				; `string'
PUBLIC	??_C@_03EPNNLCDK@con@				; `string'
PUBLIC	??_C@_07DBIAHDEP@WARRIOR@			; `string'
PUBLIC	??_C@_03EJHAMIPL@wep@				; `string'
PUBLIC	??_C@_04DMOHMGPD@SURA@				; `string'
PUBLIC	??_C@_08GKDFODEA@ASSASSIN@			; `string'
PUBLIC	??_C@_0P@BOFCEHLM@common?1support@		; `string'
PUBLIC	??_C@_06IAOKCPMP@SHAMAN@			; `string'
PUBLIC	??_C@_0N@PLNCGJNB@common?1guild@		; `string'
PUBLIC	??_C@_07HGJMPPHK@SUPPORT@			; `string'
PUBLIC	??_C@_0N@KJKNFBLF@common?1horse@		; `string'
PUBLIC	??_C@_05KHBKMNCB@GUILD@				; `string'
PUBLIC	??_C@_07OJCANPON@JeungJi@			; `string'
PUBLIC	??_C@_05PFGFPFEF@HORSE@				; `string'
PUBLIC	??_C@_01DICPFPGM@k@				; `string'
PUBLIC	??_C@_0L@DPGJKEBB@SkillPoint@			; `string'
PUBLIC	??_C@_04GHNNFJCK@?$CF?40f@			; `string'
PUBLIC	??_C@_0CG@HMNMMGCM@skillGetAffect?5?9?5Strange?5Formul@ ; `string'
PUBLIC	??_C@_1FG@PJFMKMMA@?$AAi?$AAG?$AAr?$AAa?$AAd?$AAe?$AA?5?$AA?$DO?$AA?$DN?$AA?5?$AA0?$AA?5?$AA?$CG?$AA?$CG?$AA?5@ ; `string'
PUBLIC	??_C@_1KA@DODJLJEA@?$AAC?$AA?3?$AA?2?$AAA?$AAn?$AAk?$AAa?$AA2?$AAP?$AAr?$AAo?$AAj?$AAe?$AAc?$AAt@ ; `string'
PUBLIC	??_C@_0BK@EHEHLDPB@Failed?5to?5load?5Skill?5Desc@ ; `string'
PUBLIC	??_C@_0DO@CIPJKINI@skill?4RegisterSkill?5?9?5Failed?5to@ ; `string'
PUBLIC	??_C@_0DH@IPEMHLCJ@skill?4GetSkillDescription?5?9?5Fai@ ; `string'
PUBLIC	??_C@_0DA@NFCGPBGN@skill?4GetSkillName?5?9?5Failed?5to?5@ ; `string'
PUBLIC	??_C@_0EF@FCDOKCFE@skill?4GetSkillConditionDescript@ ; `string'
PUBLIC	??_C@_0DA@INMEACAF@skill?4GetSkillType?5?9?5Failed?5to?5@ ; `string'
PUBLIC	??_C@_0EC@GNHMANKN@skill?4GetSkillAffectDescription@ ; `string'
PUBLIC	??_C@_0EC@BBPGDICG@skill?4GetSkillConditionDescript@ ; `string'
PUBLIC	??_C@_0DE@OPJBIDNE@skill?4GetSkillCoolTime?5?9?5Failed@ ; `string'
PUBLIC	??_C@_0DN@GOILKJOL@skill?4GetSkillAffectDescription@ ; `string'
PUBLIC	??_C@_0DK@KAOLKAON@skill?4GetSkillContinuationSP?5?9?5@ ; `string'
PUBLIC	??_C@_0DA@JCGHCILN@skill?4GetSkillNeedSP?5Failed?5to?5@ ; `string'
PUBLIC	??_C@_0DI@BIBFKFFF@skill?4GetSkillLevelUpPoint?5?9?5Fa@ ; `string'
PUBLIC	??_C@_0DE@GMCGPCPN@skill?4GetSkillMaxLevel?5?9?5Failed@ ; `string'
PUBLIC	??_C@_0DG@KGFIMNPN@skill?4IsSkillRequirement?5?9?5Fail@ ; `string'
PUBLIC	??_C@_0DG@NOMBCANI@skill?4GetSkillLevelLimit?5?9?5Fail@ ; `string'
PUBLIC	??_C@_0DL@ONFGMLIM@skill?4GetSkillRequirementData?5?9@ ; `string'
PUBLIC	??_C@_0EL@ICHNDOAM@skill?4IsSkillRequirement?5?9?5Fail@ ; `string'
PUBLIC	??_C@_0DL@KJNPLMH@skill?4GetSkillRequireStatData?5?9@ ; `string'
PUBLIC	??_C@_0DM@OIJBJLGH@skill?4GetSkillRequireStatCount?5@ ; `string'
PUBLIC	??_C@_0DM@ECFJDING@skill?4CheckRequirementSueccess?5@ ; `string'
PUBLIC	??_C@_0DD@IKLGIIBP@skill?4CanLevelUpSkill?5?9?5Failed?5@ ; `string'
PUBLIC	??_C@_0DB@CHHDEPFC@skill?4IsToggleSkill?5?9?5Failed?5to@ ; `string'
PUBLIC	??_C@_0DJ@LIKJDHHI@skill?4GetNeedCharacterLevel?5?9?5F@ ; `string'
PUBLIC	??_C@_0DD@MABMBDPO@skill?4IsStandingSkill?5?9?5Failed?5@ ; `string'
PUBLIC	??_C@_0DA@MJDGFODH@skill?4IsUseHPSkill?5?9?5Failed?5to?5@ ; `string'
PUBLIC	??_C@_0DC@CENGELDK@skill?4IsLevelUpSkill?5?9?5Failed?5t@ ; `string'
PUBLIC	??_C@_0CP@NNBFAJHG@skill?4CanUseSkill?5?9?5Failed?5to?5f@ ; `string'
PUBLIC	??_C@_0DG@FIBFEPFG@skill?4GetIconInstanceNew?5?9?5Fail@ ; `string'
PUBLIC	??_C@_0DD@KEMABJPN@skill?4GetIconInstance?5?9?5Failed?5@ ; `string'
PUBLIC	??_C@_0BJ@JFEABPIC@Strange?5grade?5index?5?$FL?$CFd?$FN@ ; `string'
PUBLIC	??_C@_0DA@KDCMPJNE@skill?4GetGradeData?5?9?5Failed?5to?5@ ; `string'
PUBLIC	??_C@_0DE@OAOBJMAB@skill?4GetNewAffectData?5?9?5Failed@ ; `string'
PUBLIC	??_C@_0DJ@CIKNCBHD@skill?4GetNewAffectDataCount?5?9?5F@ ; `string'
PUBLIC	??_C@_03NIMMFECC@sff@				; `string'
PUBLIC	??_C@_0DB@HOKFKPGM@?5skill?4GetNewAffectData?5?9?5Stran@ ; `string'
PUBLIC	??_C@_0DF@DFOMMGAB@d?3?1ymir?5work?1ui?1game?1windows?1sk@ ; `string'
PUBLIC	??_C@_0CP@PIJHMHNL@skill?4GetDuration?5?9?5Failed?5to?5f@ ; `string'
PUBLIC	??_C@_0O@HFDAJMID@RegisterSkill@		; `string'
PUBLIC	??_C@_04NBMLNMO@ssii@				; `string'
PUBLIC	??_C@_0P@CCIBNFJH@ClearSkillData@		; `string'
PUBLIC	??_C@_0O@EOBHKOMF@LoadSkillData@		; `string'
PUBLIC	??_C@_0BE@KMOMILIC@GetSkillDescription@		; `string'
PUBLIC	??_C@_0N@ICDCNFCK@GetSkillName@			; `string'
PUBLIC	??_C@_0CC@ODGHFHOM@GetSkillConditionDescriptionCou@ ; `string'
PUBLIC	??_C@_0N@CJDBBFFK@GetSkillType@			; `string'
PUBLIC	??_C@_0BP@JNKPHGMM@GetSkillAffectDescriptionCount@ ; `string'
PUBLIC	??_C@_0BN@HCEIODN@GetSkillConditionDescription@	; `string'
PUBLIC	??_C@_0P@FOMOMLEO@GetSkillNeedSP@		; `string'
PUBLIC	??_C@_0BK@LKIJJIBH@GetSkillAffectDescription@	; `string'
PUBLIC	??_C@_0BB@BOBBPPLD@GetSkillMaxLevel@		; `string'
PUBLIC	??_C@_0BH@KCKIGPBP@GetSkillContinuationSP@	; `string'
PUBLIC	??_C@_0BD@EFBEHGJD@GetSkillLevelLimit@		; `string'
PUBLIC	??_C@_0BF@OOHFIPJA@GetSkillLevelUpPoint@	; `string'
PUBLIC	??_C@_0BI@KEHKEMFK@GetSkillRequirementData@	; `string'
PUBLIC	??_C@_0BD@DDDOLMOO@IsSkillRequirement@		; `string'
PUBLIC	??_C@_0BI@ENABGEG@GetSkillRequireStatData@	; `string'
PUBLIC	??_C@_0BJ@MFDNCGMA@GetSkillRequireStatCount@	; `string'
PUBLIC	??_C@_0P@FFJOKPAC@IsLevelUpSkill@		; `string'
PUBLIC	??_C@_0BA@PPEEBLJG@CanLevelUpSkill@		; `string'
PUBLIC	??_C@_0BG@FNHMFCFA@GetNeedCharacterLevel@	; `string'
PUBLIC	??_C@_0BJ@IKLDBFHG@CheckRequirementSueccess@	; `string'
PUBLIC	??_C@_0N@OINKFIKA@IsUseHPSkill@			; `string'
PUBLIC	??_C@_0O@MFGECKPP@IsToggleSkill@		; `string'
PUBLIC	??_C@_0M@PEGEECMA@CanUseSkill@			; `string'
PUBLIC	??_C@_0BA@GOPNFICC@IsStandingSkill@		; `string'
PUBLIC	??_C@_0BA@COPLEHNJ@GetIconImageNew@		; `string'
PUBLIC	??_C@_0M@EBHJIJIK@GetIconName@			; `string'
PUBLIC	??_C@_0BG@IBOHFBML@GetNewAffectDataCount@	; `string'
PUBLIC	??_C@_0BD@OKNMGMMK@GetIconInstanceNew@		; `string'
PUBLIC	??_C@_0M@DDOIJMMH@GetDuration@			; `string'
PUBLIC	??_C@_0BB@BKIHFCCH@GetNewAffectData@		; `string'
PUBLIC	??_C@_0BF@NEAFKJCC@GetSkillPowerByLevel@	; `string'
PUBLIC	??_C@_0O@LGLMGJIG@GetEmptySkill@		; `string'
PUBLIC	??_C@_0BE@IGMBCGGH@GetPetSkillIconPath@		; `string'
PUBLIC	??_C@_0BF@EGGIPEPN@GetPetSkillIconImage@	; `string'
PUBLIC	??_C@_05ODMCMJAJ@skill@				; `string'
PUBLIC	??_C@_0BA@OFINHKOL@GetPetSkillInfo@		; `string'
PUBLIC	??_C@_0BC@PKECMCK@SKILL_TYPE_ACTIVE@		; `string'
PUBLIC	??_C@_0BA@PDFAJBCB@SKILL_TYPE_NONE@		; `string'
PUBLIC	??_C@_0BB@EHNGBHBD@SKILL_TYPE_GUILD@		; `string'
PUBLIC	??_C@_0BD@PNOKHAAN@SKILL_TYPE_SUPPORT@		; `string'
PUBLIC	??_C@_0BD@EPLKCGIN@SKILL_TYPE_MAX_NUM@		; `string'
PUBLIC	??_C@_0BB@BFKJCPHH@SKILL_TYPE_HORSE@		; `string'
PUBLIC	??_C@_0BH@GLOHPBFD@SKILL_GRADE_STEP_COUNT@	; `string'
PUBLIC	??_C@_0BC@BOJNDPOL@SKILL_GRADE_COUNT@		; `string'
PUBLIC	??_C@_0BD@FJPAJOM@SKILL_EFFECT_COUNT@		; `string'
PUBLIC	??_C@_0P@KEADCIEM@SKILL_GRADEGAP@		; `string'
PUBLIC	??_C@_0BL@LOKHGKJJ@PET_SKILL_USE_TYPE_PASSIVE@	; `string'
PUBLIC	??_C@_0BI@EEICPOHM@PET_SKILL_USE_TYPE_NONE@	; `string'
PUBLIC	??_C@_0BH@IENGINEA@PET_SKILL_USE_TYPE_MAX@	; `string'
PUBLIC	??_C@_0BI@BCCIBAHK@PET_SKILL_USE_TYPE_AUTO@	; `string'
PUBLIC	??_R2CPythonSkill@@8				; CPythonSkill::`RTTI Base Class Array'
PUBLIC	??_R2?$CSingleton@VCPythonSkill@@@@8		; CSingleton<CPythonSkill>::`RTTI Base Class Array'
PUBLIC	??_R1A@?0A@EA@CPythonSkill@@8			; CPythonSkill::`RTTI Base Class Descriptor at (0,-1,0,64)'
PUBLIC	??_R1A@?0A@EA@?$CSingleton@VCPythonSkill@@@@8	; CSingleton<CPythonSkill>::`RTTI Base Class Descriptor at (0,-1,0,64)'
PUBLIC	??_R3?$CSingleton@VCPythonSkill@@@@8		; CSingleton<CPythonSkill>::`RTTI Class Hierarchy Descriptor'
PUBLIC	??_R3CPythonSkill@@8				; CPythonSkill::`RTTI Class Hierarchy Descriptor'
PUBLIC	??_R0?AV?$CSingleton@VCPythonSkill@@@@@8	; CSingleton<CPythonSkill> `RTTI Type Descriptor'
PUBLIC	??_R0?AVCPythonSkill@@@8			; CPythonSkill `RTTI Type Descriptor'
PUBLIC	??_R4?$CSingleton@VCPythonSkill@@@@6B@		; CSingleton<CPythonSkill>::`RTTI Complete Object Locator'
PUBLIC	??_R4CPythonSkill@@6B@				; CPythonSkill::`RTTI Complete Object Locator'
PUBLIC	??_7?$CSingleton@VCPythonSkill@@@@6B@		; CSingleton<CPythonSkill>::`vftable'
PUBLIC	??_7CPythonSkill@@6B@				; CPythonSkill::`vftable'
PUBLIC	?MELEE_SKILL_TARGET_RANGE@SSkillData@CPythonSkill@@2KA ; CPythonSkill::SSkillData::MELEE_SKILL_TARGET_RANGE
PUBLIC	?SKILL_EFFECT_UPGRADE_ENABLE@@3HA		; SKILL_EFFECT_UPGRADE_ENABLE
EXTRN	??__C@YGXPAX0IIP6EX00@ZP6EX0@Z@Z:PROC		; `eh vector copy constructor iterator'
EXTRN	?SetRandom@CPoly@@QAEXH@Z:PROC			; CPoly::SetRandom
EXTRN	?SetStr@CPoly@@QAEXABV?$basic_string@DU?$char_traits@D@std@@V?$allocator@D@2@@std@@@Z:PROC ; CPoly::SetStr
EXTRN	?SetVar@CPoly@@QAEHABV?$basic_string@DU?$char_traits@D@std@@V?$allocator@D@2@@std@@N@Z:PROC ; CPoly::SetVar
EXTRN	?Eval@CPoly@@QAEMXZ:PROC			; CPoly::Eval
EXTRN	??0CPoly@@QAE@XZ:PROC				; CPoly::CPoly
EXTRN	??1CPoly@@UAE@XZ:PROC				; CPoly::~CPoly
EXTRN	?Analyze@CPoly@@QAEHPBD@Z:PROC			; CPoly::Analyze
EXTRN	?GetVarCount@CPoly@@QAEHXZ:PROC			; CPoly::GetVarCount
EXTRN	?GetVarName@CPoly@@QAEPBDI@Z:PROC		; CPoly::GetVarName
EXTRN	?GetTokenByte@CTextFileLoader@@QAEHABV?$basic_string@DU?$char_traits@D@std@@V?$allocator@D@2@@std@@PAE@Z:PROC ; CTextFileLoader::GetTokenByte
EXTRN	?GetTokenWord@CTextFileLoader@@QAEHABV?$basic_string@DU?$char_traits@D@std@@V?$allocator@D@2@@std@@PAG@Z:PROC ; CTextFileLoader::GetTokenWord
EXTRN	?GetTokenDoubleWord@CTextFileLoader@@QAEHABV?$basic_string@DU?$char_traits@D@std@@V?$allocator@D@2@@std@@PAK@Z:PROC ; CTextFileLoader::GetTokenDoubleWord
EXTRN	?stl_lowers@@YAXAAV?$basic_string@DU?$char_traits@D@std@@V?$allocator@D@2@@std@@@Z:PROC ; stl_lowers
EXTRN	?GetTokenString@CTextFileLoader@@QAEHABV?$basic_string@DU?$char_traits@D@std@@V?$allocator@D@2@@std@@PAV23@@Z:PROC ; CTextFileLoader::GetTokenString
?SKILL_EFFECT_UPGRADE_ENABLE@@3HA DD 01H DUP (?)	; SKILL_EFFECT_UPGRADE_ENABLE
_BSS	ENDS
;	COMDAT ??_7CPythonSkill@@6B@
CONST	SEGMENT
??_7CPythonSkill@@6B@ DD FLAT:??_R4CPythonSkill@@6B@	; CPythonSkill::`vftable'
	DD	FLAT:??_ECPythonSkill@@UAEPAXI@Z
CONST	ENDS
;	COMDAT ?strDescription@?L@??GetAffectDescription@SSkillData@CPythonSkill@@QAEPBDKM@Z@4V?$basic_string@DU?$char_traits@D@std@@V?$allocator@D@2@@std@@A
_DATA	SEGMENT
?strDescription@?L@??GetAffectDescription@SSkillData@CPythonSkill@@QAEPBDKM@Z@4V?$basic_string@DU?$char_traits@D@std@@V?$allocator@D@2@@std@@A DB 00H ; `CPythonSkill::SSkillData::GetAffectDescription'::`11'::strDescription
	DB	00H
	DB	00H
	DB	00H
	DB	00H
	DB	00H
	DB	00H
	DB	00H
	DB	00H
	DB	00H
	DB	00H
	DB	00H
	DB	00H
	DB	00H
	DB	00H
	DB	00H
	DD	00H
	DD	0fH
_DATA	ENDS
;	COMDAT ?s_methods@?1??initskill@@YAXXZ@4PAUPyMethodDef@@A
_DATA	SEGMENT
?s_methods@?1??initskill@@YAXXZ@4PAUPyMethodDef@@A DD FLAT:??_C@_0M@LPKBIHHH@SetPathName@ ; `initskill'::`2'::s_methods
	DD	FLAT:?skillSetPathName@@YAPAU_object@@PAU1@0@Z
	DD	01H
	ORG $+4
	DD	FLAT:??_C@_0O@HFDAJMID@RegisterSkill@
	DD	FLAT:?skillRegisterSkill@@YAPAU_object@@PAU1@0@Z
	DD	01H
	ORG $+4
	DD	FLAT:??_C@_0O@EOBHKOMF@LoadSkillData@
	DD	FLAT:?skillLoadSkillData@@YAPAU_object@@PAU1@0@Z
	DD	01H
	ORG $+4
	DD	FLAT:??_C@_0P@CCIBNFJH@ClearSkillData@
	DD	FLAT:?skillClearSkillData@@YAPAU_object@@PAU1@0@Z
	DD	01H
	ORG $+4
	DD	FLAT:??_C@_0N@ICDCNFCK@GetSkillName@
	DD	FLAT:?skillGetSkillName@@YAPAU_object@@PAU1@0@Z
	DD	01H
	ORG $+4
	DD	FLAT:??_C@_0BE@KMOMILIC@GetSkillDescription@
	DD	FLAT:?skillGetSkillDescription@@YAPAU_object@@PAU1@0@Z
	DD	01H
	ORG $+4
	DD	FLAT:??_C@_0N@CJDBBFFK@GetSkillType@
	DD	FLAT:?skillGetSkillType@@YAPAU_object@@PAU1@0@Z
	DD	01H
	ORG $+4
	DD	FLAT:??_C@_0CC@ODGHFHOM@GetSkillConditionDescriptionCou@
	DD	FLAT:?skillGetSkillConditionDescriptionCount@@YAPAU_object@@PAU1@0@Z
	DD	01H
	ORG $+4
	DD	FLAT:??_C@_0BN@HCEIODN@GetSkillConditionDescription@
	DD	FLAT:?skillGetSkillConditionDescription@@YAPAU_object@@PAU1@0@Z
	DD	01H
	ORG $+4
	DD	FLAT:??_C@_0BP@JNKPHGMM@GetSkillAffectDescriptionCount@
	DD	FLAT:?skillGetSkillAffectDescriptionCount@@YAPAU_object@@PAU1@0@Z
	DD	01H
	ORG $+4
	DD	FLAT:??_C@_0BK@LKIJJIBH@GetSkillAffectDescription@
	DD	FLAT:?skillGetSkillAffectDescription@@YAPAU_object@@PAU1@0@Z
	DD	01H
	ORG $+4
	DD	FLAT:??_C@_0BB@CNGGKNGL@GetSkillCoolTime@
	DD	FLAT:?skillGetSkillCoolTime@@YAPAU_object@@PAU1@0@Z
	DD	01H
	ORG $+4
	DD	FLAT:??_C@_0P@FOMOMLEO@GetSkillNeedSP@
	DD	FLAT:?skillGetSkillNeedSP@@YAPAU_object@@PAU1@0@Z
	DD	01H
	ORG $+4
	DD	FLAT:??_C@_0BH@KCKIGPBP@GetSkillContinuationSP@
	DD	FLAT:?skillGetSkillContinuationSP@@YAPAU_object@@PAU1@0@Z
	DD	01H
	ORG $+4
	DD	FLAT:??_C@_0BB@BOBBPPLD@GetSkillMaxLevel@
	DD	FLAT:?skillGetSkillMaxLevel@@YAPAU_object@@PAU1@0@Z
	DD	01H
	ORG $+4
	DD	FLAT:??_C@_0BF@OOHFIPJA@GetSkillLevelUpPoint@
	DD	FLAT:?skillGetSkillLevelUpPoint@@YAPAU_object@@PAU1@0@Z
	DD	01H
	ORG $+4
	DD	FLAT:??_C@_0BD@EFBEHGJD@GetSkillLevelLimit@
	DD	FLAT:?skillGetSkillLevelLimit@@YAPAU_object@@PAU1@0@Z
	DD	01H
	ORG $+4
	DD	FLAT:??_C@_0BD@DDDOLMOO@IsSkillRequirement@
	DD	FLAT:?skillIsSkillRequirement@@YAPAU_object@@PAU1@0@Z
	DD	01H
	ORG $+4
	DD	FLAT:??_C@_0BI@KEHKEMFK@GetSkillRequirementData@
	DD	FLAT:?skillGetSkillRequirementData@@YAPAU_object@@PAU1@0@Z
	DD	01H
	ORG $+4
	DD	FLAT:??_C@_0BJ@MFDNCGMA@GetSkillRequireStatCount@
	DD	FLAT:?skillGetSkillRequireStatCount@@YAPAU_object@@PAU1@0@Z
	DD	01H
	ORG $+4
	DD	FLAT:??_C@_0BI@ENABGEG@GetSkillRequireStatData@
	DD	FLAT:?skillGetSkillRequireStatData@@YAPAU_object@@PAU1@0@Z
	DD	01H
	ORG $+4
	DD	FLAT:??_C@_0BA@PPEEBLJG@CanLevelUpSkill@
	DD	FLAT:?skillCanLevelUpSkill@@YAPAU_object@@PAU1@0@Z
	DD	01H
	ORG $+4
	DD	FLAT:??_C@_0P@FFJOKPAC@IsLevelUpSkill@
	DD	FLAT:?skillIsLevelUpSkill@@YAPAU_object@@PAU1@0@Z
	DD	01H
	ORG $+4
	DD	FLAT:??_C@_0BJ@IKLDBFHG@CheckRequirementSueccess@
	DD	FLAT:?skillCheckRequirementSueccess@@YAPAU_object@@PAU1@0@Z
	DD	01H
	ORG $+4
	DD	FLAT:??_C@_0BG@FNHMFCFA@GetNeedCharacterLevel@
	DD	FLAT:?skillGetNeedCharacterLevel@@YAPAU_object@@PAU1@0@Z
	DD	01H
	ORG $+4
	DD	FLAT:??_C@_0O@MFGECKPP@IsToggleSkill@
	DD	FLAT:?skillIsToggleSkill@@YAPAU_object@@PAU1@0@Z
	DD	01H
	ORG $+4
	DD	FLAT:??_C@_0N@OINKFIKA@IsUseHPSkill@
	DD	FLAT:?skillIsUseHPSkill@@YAPAU_object@@PAU1@0@Z
	DD	01H
	ORG $+4
	DD	FLAT:??_C@_0BA@GOPNFICC@IsStandingSkill@
	DD	FLAT:?skillIsStandingSkill@@YAPAU_object@@PAU1@0@Z
	DD	01H
	ORG $+4
	DD	FLAT:??_C@_0M@PEGEECMA@CanUseSkill@
	DD	FLAT:?skillCanUseSkill@@YAPAU_object@@PAU1@0@Z
	DD	01H
	ORG $+4
	DD	FLAT:??_C@_0M@EBHJIJIK@GetIconName@
	DD	FLAT:?skillGetIconName@@YAPAU_object@@PAU1@0@Z
	DD	01H
	ORG $+4
	DD	FLAT:??_C@_0N@IEABDKDK@GetIconImage@
	DD	FLAT:?skillGetIconImage@@YAPAU_object@@PAU1@0@Z
	DD	01H
	ORG $+4
	DD	FLAT:??_C@_0BA@COPLEHNJ@GetIconImageNew@
	DD	FLAT:?skillGetIconImageNew@@YAPAU_object@@PAU1@0@Z
	DD	01H
	ORG $+4
	DD	FLAT:??_C@_0BA@PMLMLIHH@GetIconInstance@
	DD	FLAT:?skillGetIconInstance@@YAPAU_object@@PAU1@0@Z
	DD	01H
	ORG $+4
	DD	FLAT:??_C@_0BD@OKNMGMMK@GetIconInstanceNew@
	DD	FLAT:?skillGetIconInstanceNew@@YAPAU_object@@PAU1@0@Z
	DD	01H
	ORG $+4
	DD	FLAT:??_C@_0BD@BNBIIKMM@DeleteIconInstance@
	DD	FLAT:?skillDeleteIconInstance@@YAPAU_object@@PAU1@0@Z
	DD	01H
	ORG $+4
	DD	FLAT:??_C@_0N@FGDKEBNC@GetGradeData@
	DD	FLAT:?skillGetGradeData@@YAPAU_object@@PAU1@0@Z
	DD	01H
	ORG $+4
	DD	FLAT:??_C@_0BG@IBOHFBML@GetNewAffectDataCount@
	DD	FLAT:?skillGetNewAffectDataCount@@YAPAU_object@@PAU1@0@Z
	DD	01H
	ORG $+4
	DD	FLAT:??_C@_0BB@BKIHFCCH@GetNewAffectData@
	DD	FLAT:?skillGetNewAffectData@@YAPAU_object@@PAU1@0@Z
	DD	01H
	ORG $+4
	DD	FLAT:??_C@_0M@DDOIJMMH@GetDuration@
	DD	FLAT:?skillGetDuration@@YAPAU_object@@PAU1@0@Z
	DD	01H
	ORG $+4
	DD	FLAT:??_C@_0O@LGLMGJIG@GetEmptySkill@
	DD	FLAT:?skillGetEmptySkill@@YAPAU_object@@PAU1@0@Z
	DD	01H
	ORG $+4
	DD	FLAT:??_C@_0BF@NEAFKJCC@GetSkillPowerByLevel@
	DD	FLAT:?skillGetSkillPowerByLevel@@YAPAU_object@@PAU1@0@Z
	DD	01H
	ORG $+4
	DD	FLAT:??_C@_0BF@EGGIPEPN@GetPetSkillIconImage@
	DD	FLAT:?skillGetPetSkillIconImage@@YAPAU_object@@PAU1@0@Z
	DD	01H
	ORG $+4
	DD	FLAT:??_C@_0BE@IGMBCGGH@GetPetSkillIconPath@
	DD	FLAT:?skillGetPetSkillIconPath@@YAPAU_object@@PAU1@0@Z
	DD	01H
	ORG $+4
	DD	FLAT:??_C@_0BA@OFINHKOL@GetPetSkillInfo@
	DD	FLAT:?skillGetPetSkillInfo@@YAPAU_object@@PAU1@0@Z
	DD	01H
	ORG $+4
	DD	00H
	DD	00H
	ORG $+8
_DATA	ENDS
;	COMDAT ??_7?$CSingleton@VCPythonSkill@@@@6B@
CONST	SEGMENT
??_7?$CSingleton@VCPythonSkill@@@@6B@ DD FLAT:??_R4?$CSingleton@VCPythonSkill@@@@6B@ ; CSingleton<CPythonSkill>::`vftable'
	DD	FLAT:??_E?$CSingleton@VCPythonSkill@@@@UAEPAXI@Z
CONST	ENDS
;	COMDAT ??_R4CPythonSkill@@6B@
rdata$r	SEGMENT
??_R4CPythonSkill@@6B@ DD 00H				; CPythonSkill::`RTTI Complete Object Locator'
	DD	00H
	DD	00H
	DD	FLAT:??_R0?AVCPythonSkill@@@8
	DD	FLAT:??_R3CPythonSkill@@8
rdata$r	ENDS
;	COMDAT ??_R4?$CSingleton@VCPythonSkill@@@@6B@
rdata$r	SEGMENT
??_R4?$CSingleton@VCPythonSkill@@@@6B@ DD 00H		; CSingleton<CPythonSkill>::`RTTI Complete Object Locator'
	DD	00H
	DD	00H
	DD	FLAT:??_R0?AV?$CSingleton@VCPythonSkill@@@@@8
	DD	FLAT:??_R3?$CSingleton@VCPythonSkill@@@@8
rdata$r	ENDS
;	COMDAT ??_R0?AVCPythonSkill@@@8
data$rs	SEGMENT
??_R0?AVCPythonSkill@@@8 DD FLAT:??_7type_info@@6B@	; CPythonSkill `RTTI Type Descriptor'
	DD	00H
	DB	'.?AVCPythonSkill@@', 00H
data$rs	ENDS
;	COMDAT ??_R0?AV?$CSingleton@VCPythonSkill@@@@@8
data$rs	SEGMENT
??_R0?AV?$CSingleton@VCPythonSkill@@@@@8 DD FLAT:??_7type_info@@6B@ ; CSingleton<CPythonSkill> `RTTI Type Descriptor'
	DD	00H
	DB	'.?AV?$CSingleton@VCPythonSkill@@@@', 00H
data$rs	ENDS
;	COMDAT ??_R3CPythonSkill@@8
rdata$r	SEGMENT
??_R3CPythonSkill@@8 DD 00H				; CPythonSkill::`RTTI Class Hierarchy Descriptor'
	DD	00H
	DD	02H
	DD	FLAT:??_R2CPythonSkill@@8
rdata$r	ENDS
;	COMDAT ??_R3?$CSingleton@VCPythonSkill@@@@8
rdata$r	SEGMENT
??_R3?$CSingleton@VCPythonSkill@@@@8 DD 00H		; CSingleton<CPythonSkill>::`RTTI Class Hierarchy Descriptor'
	DD	00H
	DD	01H
	DD	FLAT:??_R2?$CSingleton@VCPythonSkill@@@@8
rdata$r	ENDS
;	COMDAT ??_R1A@?0A@EA@?$CSingleton@VCPythonSkill@@@@8
rdata$r	SEGMENT
??_R1A@?0A@EA@?$CSingleton@VCPythonSkill@@@@8 DD FLAT:??_R0?AV?$CSingleton@VCPythonSkill@@@@@8 ; CSingleton<CPythonSkill>::`RTTI Base Class Descriptor at (0,-1,0,64)'
	DD	00H
	DD	00H
	DD	0ffffffffH
	DD	00H
	DD	040H
	DD	FLAT:??_R3?$CSingleton@VCPythonSkill@@@@8
rdata$r	ENDS
;	COMDAT ??_R1A@?0A@EA@CPythonSkill@@8
rdata$r	SEGMENT
??_R1A@?0A@EA@CPythonSkill@@8 DD FLAT:??_R0?AVCPythonSkill@@@8 ; CPythonSkill::`RTTI Base Class Descriptor at (0,-1,0,64)'
	DD	01H
	DD	00H
	DD	0ffffffffH
	DD	00H
	DD	040H
	DD	FLAT:??_R3CPythonSkill@@8
rdata$r	ENDS
;	COMDAT ??_R2?$CSingleton@VCPythonSkill@@@@8
rdata$r	SEGMENT
??_R2?$CSingleton@VCPythonSkill@@@@8 DD FLAT:??_R1A@?0A@EA@?$CSingleton@VCPythonSkill@@@@8 ; CSingleton<CPythonSkill>::`RTTI Base Class Array'
rdata$r	ENDS
;	COMDAT ??_R2CPythonSkill@@8
rdata$r	SEGMENT
??_R2CPythonSkill@@8 DD FLAT:??_R1A@?0A@EA@CPythonSkill@@8 ; CPythonSkill::`RTTI Base Class Array'
	DD	FLAT:??_R1A@?0A@EA@?$CSingleton@VCPythonSkill@@@@8
rdata$r	ENDS
;	COMDAT ??_C@_0BI@BCCIBAHK@PET_SKILL_USE_TYPE_AUTO@
CONST	SEGMENT
??_C@_0BI@BCCIBAHK@PET_SKILL_USE_TYPE_AUTO@ DB 'PET_SKILL_USE_TYPE_AUTO', 00H ; `string'
CONST	ENDS
;	COMDAT ??_C@_0BH@IENGINEA@PET_SKILL_USE_TYPE_MAX@
CONST	SEGMENT
??_C@_0BH@IENGINEA@PET_SKILL_USE_TYPE_MAX@ DB 'PET_SKILL_USE_TYPE_MAX', 00H ; `string'
CONST	ENDS
;	COMDAT ??_C@_0BI@EEICPOHM@PET_SKILL_USE_TYPE_NONE@
CONST	SEGMENT
??_C@_0BI@EEICPOHM@PET_SKILL_USE_TYPE_NONE@ DB 'PET_SKILL_USE_TYPE_NONE', 00H ; `string'
CONST	ENDS
;	COMDAT ??_C@_0BL@LOKHGKJJ@PET_SKILL_USE_TYPE_PASSIVE@
CONST	SEGMENT
??_C@_0BL@LOKHGKJJ@PET_SKILL_USE_TYPE_PASSIVE@ DB 'PET_SKILL_USE_TYPE_PAS'
	DB	'SIVE', 00H					; `string'
CONST	ENDS
;	COMDAT ??_C@_0P@KEADCIEM@SKILL_GRADEGAP@
CONST	SEGMENT
??_C@_0P@KEADCIEM@SKILL_GRADEGAP@ DB 'SKILL_GRADEGAP', 00H ; `string'
CONST	ENDS
;	COMDAT ??_C@_0BD@FJPAJOM@SKILL_EFFECT_COUNT@
CONST	SEGMENT
??_C@_0BD@FJPAJOM@SKILL_EFFECT_COUNT@ DB 'SKILL_EFFECT_COUNT', 00H ; `string'
CONST	ENDS
;	COMDAT ??_C@_0BC@BOJNDPOL@SKILL_GRADE_COUNT@
CONST	SEGMENT
??_C@_0BC@BOJNDPOL@SKILL_GRADE_COUNT@ DB 'SKILL_GRADE_COUNT', 00H ; `string'
CONST	ENDS
;	COMDAT ??_C@_0BH@GLOHPBFD@SKILL_GRADE_STEP_COUNT@
CONST	SEGMENT
??_C@_0BH@GLOHPBFD@SKILL_GRADE_STEP_COUNT@ DB 'SKILL_GRADE_STEP_COUNT', 00H ; `string'
CONST	ENDS
;	COMDAT ??_C@_0BB@BFKJCPHH@SKILL_TYPE_HORSE@
CONST	SEGMENT
??_C@_0BB@BFKJCPHH@SKILL_TYPE_HORSE@ DB 'SKILL_TYPE_HORSE', 00H ; `string'
CONST	ENDS
;	COMDAT ??_C@_0BD@EPLKCGIN@SKILL_TYPE_MAX_NUM@
CONST	SEGMENT
??_C@_0BD@EPLKCGIN@SKILL_TYPE_MAX_NUM@ DB 'SKILL_TYPE_MAX_NUM', 00H ; `string'
CONST	ENDS
;	COMDAT ??_C@_0BD@PNOKHAAN@SKILL_TYPE_SUPPORT@
CONST	SEGMENT
??_C@_0BD@PNOKHAAN@SKILL_TYPE_SUPPORT@ DB 'SKILL_TYPE_SUPPORT', 00H ; `string'
CONST	ENDS
;	COMDAT ??_C@_0BB@EHNGBHBD@SKILL_TYPE_GUILD@
CONST	SEGMENT
??_C@_0BB@EHNGBHBD@SKILL_TYPE_GUILD@ DB 'SKILL_TYPE_GUILD', 00H ; `string'
CONST	ENDS
;	COMDAT ??_C@_0BA@PDFAJBCB@SKILL_TYPE_NONE@
CONST	SEGMENT
??_C@_0BA@PDFAJBCB@SKILL_TYPE_NONE@ DB 'SKILL_TYPE_NONE', 00H ; `string'
CONST	ENDS
;	COMDAT ??_C@_0BC@PKECMCK@SKILL_TYPE_ACTIVE@
CONST	SEGMENT
??_C@_0BC@PKECMCK@SKILL_TYPE_ACTIVE@ DB 'SKILL_TYPE_ACTIVE', 00H ; `string'
CONST	ENDS
;	COMDAT ??_C@_0BA@OFINHKOL@GetPetSkillInfo@
CONST	SEGMENT
??_C@_0BA@OFINHKOL@GetPetSkillInfo@ DB 'GetPetSkillInfo', 00H ; `string'
CONST	ENDS
;	COMDAT ??_C@_05ODMCMJAJ@skill@
CONST	SEGMENT
??_C@_05ODMCMJAJ@skill@ DB 'skill', 00H			; `string'
CONST	ENDS
;	COMDAT ??_C@_0BF@EGGIPEPN@GetPetSkillIconImage@
CONST	SEGMENT
??_C@_0BF@EGGIPEPN@GetPetSkillIconImage@ DB 'GetPetSkillIconImage', 00H ; `string'
CONST	ENDS
;	COMDAT ??_C@_0BE@IGMBCGGH@GetPetSkillIconPath@
CONST	SEGMENT
??_C@_0BE@IGMBCGGH@GetPetSkillIconPath@ DB 'GetPetSkillIconPath', 00H ; `string'
CONST	ENDS
;	COMDAT ??_C@_0O@LGLMGJIG@GetEmptySkill@
CONST	SEGMENT
??_C@_0O@LGLMGJIG@GetEmptySkill@ DB 'GetEmptySkill', 00H ; `string'
CONST	ENDS
;	COMDAT ??_C@_0BF@NEAFKJCC@GetSkillPowerByLevel@
CONST	SEGMENT
??_C@_0BF@NEAFKJCC@GetSkillPowerByLevel@ DB 'GetSkillPowerByLevel', 00H ; `string'
CONST	ENDS
;	COMDAT ??_C@_0BB@BKIHFCCH@GetNewAffectData@
CONST	SEGMENT
??_C@_0BB@BKIHFCCH@GetNewAffectData@ DB 'GetNewAffectData', 00H ; `string'
CONST	ENDS
;	COMDAT ??_C@_0M@DDOIJMMH@GetDuration@
CONST	SEGMENT
??_C@_0M@DDOIJMMH@GetDuration@ DB 'GetDuration', 00H	; `string'
CONST	ENDS
;	COMDAT ??_C@_0BD@OKNMGMMK@GetIconInstanceNew@
CONST	SEGMENT
??_C@_0BD@OKNMGMMK@GetIconInstanceNew@ DB 'GetIconInstanceNew', 00H ; `string'
CONST	ENDS
;	COMDAT ??_C@_0BG@IBOHFBML@GetNewAffectDataCount@
CONST	SEGMENT
??_C@_0BG@IBOHFBML@GetNewAffectDataCount@ DB 'GetNewAffectDataCount', 00H ; `string'
CONST	ENDS
;	COMDAT ??_C@_0M@EBHJIJIK@GetIconName@
CONST	SEGMENT
??_C@_0M@EBHJIJIK@GetIconName@ DB 'GetIconName', 00H	; `string'
CONST	ENDS
;	COMDAT ??_C@_0BA@COPLEHNJ@GetIconImageNew@
CONST	SEGMENT
??_C@_0BA@COPLEHNJ@GetIconImageNew@ DB 'GetIconImageNew', 00H ; `string'
CONST	ENDS
;	COMDAT ??_C@_0BA@GOPNFICC@IsStandingSkill@
CONST	SEGMENT
??_C@_0BA@GOPNFICC@IsStandingSkill@ DB 'IsStandingSkill', 00H ; `string'
CONST	ENDS
;	COMDAT ??_C@_0M@PEGEECMA@CanUseSkill@
CONST	SEGMENT
??_C@_0M@PEGEECMA@CanUseSkill@ DB 'CanUseSkill', 00H	; `string'
CONST	ENDS
;	COMDAT ??_C@_0O@MFGECKPP@IsToggleSkill@
CONST	SEGMENT
??_C@_0O@MFGECKPP@IsToggleSkill@ DB 'IsToggleSkill', 00H ; `string'
CONST	ENDS
;	COMDAT ??_C@_0N@OINKFIKA@IsUseHPSkill@
CONST	SEGMENT
??_C@_0N@OINKFIKA@IsUseHPSkill@ DB 'IsUseHPSkill', 00H	; `string'
CONST	ENDS
;	COMDAT ??_C@_0BJ@IKLDBFHG@CheckRequirementSueccess@
CONST	SEGMENT
??_C@_0BJ@IKLDBFHG@CheckRequirementSueccess@ DB 'CheckRequirementSueccess'
	DB	00H						; `string'
CONST	ENDS
;	COMDAT ??_C@_0BG@FNHMFCFA@GetNeedCharacterLevel@
CONST	SEGMENT
??_C@_0BG@FNHMFCFA@GetNeedCharacterLevel@ DB 'GetNeedCharacterLevel', 00H ; `string'
CONST	ENDS
;	COMDAT ??_C@_0BA@PPEEBLJG@CanLevelUpSkill@
CONST	SEGMENT
??_C@_0BA@PPEEBLJG@CanLevelUpSkill@ DB 'CanLevelUpSkill', 00H ; `string'
CONST	ENDS
;	COMDAT ??_C@_0P@FFJOKPAC@IsLevelUpSkill@
CONST	SEGMENT
??_C@_0P@FFJOKPAC@IsLevelUpSkill@ DB 'IsLevelUpSkill', 00H ; `string'
CONST	ENDS
;	COMDAT ??_C@_0BJ@MFDNCGMA@GetSkillRequireStatCount@
CONST	SEGMENT
??_C@_0BJ@MFDNCGMA@GetSkillRequireStatCount@ DB 'GetSkillRequireStatCount'
	DB	00H						; `string'
CONST	ENDS
;	COMDAT ??_C@_0BI@ENABGEG@GetSkillRequireStatData@
CONST	SEGMENT
??_C@_0BI@ENABGEG@GetSkillRequireStatData@ DB 'GetSkillRequireStatData', 00H ; `string'
CONST	ENDS
;	COMDAT ??_C@_0BD@DDDOLMOO@IsSkillRequirement@
CONST	SEGMENT
??_C@_0BD@DDDOLMOO@IsSkillRequirement@ DB 'IsSkillRequirement', 00H ; `string'
CONST	ENDS
;	COMDAT ??_C@_0BI@KEHKEMFK@GetSkillRequirementData@
CONST	SEGMENT
??_C@_0BI@KEHKEMFK@GetSkillRequirementData@ DB 'GetSkillRequirementData', 00H ; `string'
CONST	ENDS
;	COMDAT ??_C@_0BF@OOHFIPJA@GetSkillLevelUpPoint@
CONST	SEGMENT
??_C@_0BF@OOHFIPJA@GetSkillLevelUpPoint@ DB 'GetSkillLevelUpPoint', 00H ; `string'
CONST	ENDS
;	COMDAT ??_C@_0BD@EFBEHGJD@GetSkillLevelLimit@
CONST	SEGMENT
??_C@_0BD@EFBEHGJD@GetSkillLevelLimit@ DB 'GetSkillLevelLimit', 00H ; `string'
CONST	ENDS
;	COMDAT ??_C@_0BH@KCKIGPBP@GetSkillContinuationSP@
CONST	SEGMENT
??_C@_0BH@KCKIGPBP@GetSkillContinuationSP@ DB 'GetSkillContinuationSP', 00H ; `string'
CONST	ENDS
;	COMDAT ??_C@_0BB@BOBBPPLD@GetSkillMaxLevel@
CONST	SEGMENT
??_C@_0BB@BOBBPPLD@GetSkillMaxLevel@ DB 'GetSkillMaxLevel', 00H ; `string'
CONST	ENDS
;	COMDAT ??_C@_0BK@LKIJJIBH@GetSkillAffectDescription@
CONST	SEGMENT
??_C@_0BK@LKIJJIBH@GetSkillAffectDescription@ DB 'GetSkillAffectDescripti'
	DB	'on', 00H					; `string'
CONST	ENDS
;	COMDAT ??_C@_0P@FOMOMLEO@GetSkillNeedSP@
CONST	SEGMENT
??_C@_0P@FOMOMLEO@GetSkillNeedSP@ DB 'GetSkillNeedSP', 00H ; `string'
CONST	ENDS
;	COMDAT ??_C@_0BN@HCEIODN@GetSkillConditionDescription@
CONST	SEGMENT
??_C@_0BN@HCEIODN@GetSkillConditionDescription@ DB 'GetSkillConditionDesc'
	DB	'ription', 00H				; `string'
CONST	ENDS
;	COMDAT ??_C@_0BP@JNKPHGMM@GetSkillAffectDescriptionCount@
CONST	SEGMENT
??_C@_0BP@JNKPHGMM@GetSkillAffectDescriptionCount@ DB 'GetSkillAffectDesc'
	DB	'riptionCount', 00H				; `string'
CONST	ENDS
;	COMDAT ??_C@_0N@CJDBBFFK@GetSkillType@
CONST	SEGMENT
??_C@_0N@CJDBBFFK@GetSkillType@ DB 'GetSkillType', 00H	; `string'
CONST	ENDS
;	COMDAT ??_C@_0CC@ODGHFHOM@GetSkillConditionDescriptionCou@
CONST	SEGMENT
??_C@_0CC@ODGHFHOM@GetSkillConditionDescriptionCou@ DB 'GetSkillCondition'
	DB	'DescriptionCount', 00H			; `string'
CONST	ENDS
;	COMDAT ??_C@_0N@ICDCNFCK@GetSkillName@
CONST	SEGMENT
??_C@_0N@ICDCNFCK@GetSkillName@ DB 'GetSkillName', 00H	; `string'
CONST	ENDS
;	COMDAT ??_C@_0BE@KMOMILIC@GetSkillDescription@
CONST	SEGMENT
??_C@_0BE@KMOMILIC@GetSkillDescription@ DB 'GetSkillDescription', 00H ; `string'
CONST	ENDS
;	COMDAT ??_C@_0O@EOBHKOMF@LoadSkillData@
CONST	SEGMENT
??_C@_0O@EOBHKOMF@LoadSkillData@ DB 'LoadSkillData', 00H ; `string'
CONST	ENDS
;	COMDAT ??_C@_0P@CCIBNFJH@ClearSkillData@
CONST	SEGMENT
??_C@_0P@CCIBNFJH@ClearSkillData@ DB 'ClearSkillData', 00H ; `string'
CONST	ENDS
;	COMDAT ??_C@_04NBMLNMO@ssii@
CONST	SEGMENT
??_C@_04NBMLNMO@ssii@ DB 'ssii', 00H			; `string'
CONST	ENDS
;	COMDAT ??_C@_0O@HFDAJMID@RegisterSkill@
CONST	SEGMENT
??_C@_0O@HFDAJMID@RegisterSkill@ DB 'RegisterSkill', 00H ; `string'
CONST	ENDS
;	COMDAT ??_C@_0CP@PIJHMHNL@skill?4GetDuration?5?9?5Failed?5to?5f@
CONST	SEGMENT
??_C@_0CP@PIJHMHNL@skill?4GetDuration?5?9?5Failed?5to?5f@ DB 'skill.GetDu'
	DB	'ration - Failed to find skill by %d', 00H	; `string'
CONST	ENDS
;	COMDAT ??_C@_0DF@DFOMMGAB@d?3?1ymir?5work?1ui?1game?1windows?1sk@
CONST	SEGMENT
??_C@_0DF@DFOMMGAB@d?3?1ymir?5work?1ui?1game?1windows?1sk@ DB 'd:/ymir wo'
	DB	'rk/ui/game/windows/skill_enable_button.sub', 00H ; `string'
CONST	ENDS
;	COMDAT ??_C@_0DB@HOKFKPGM@?5skill?4GetNewAffectData?5?9?5Stran@
CONST	SEGMENT
??_C@_0DB@HOKFKPGM@?5skill?4GetNewAffectData?5?9?5Stran@ DB ' skill.GetNe'
	DB	'wAffectData - Strange AffectIndex %d', 00H	; `string'
CONST	ENDS
;	COMDAT ??_C@_03NIMMFECC@sff@
CONST	SEGMENT
??_C@_03NIMMFECC@sff@ DB 'sff', 00H			; `string'
CONST	ENDS
;	COMDAT ??_C@_0DJ@CIKNCBHD@skill?4GetNewAffectDataCount?5?9?5F@
CONST	SEGMENT
??_C@_0DJ@CIKNCBHD@skill?4GetNewAffectDataCount?5?9?5F@ DB 'skill.GetNewA'
	DB	'ffectDataCount - Failed to find skill by %d', 00H ; `string'
CONST	ENDS
;	COMDAT ??_C@_0DE@OAOBJMAB@skill?4GetNewAffectData?5?9?5Failed@
CONST	SEGMENT
??_C@_0DE@OAOBJMAB@skill?4GetNewAffectData?5?9?5Failed@ DB 'skill.GetNewA'
	DB	'ffectData - Failed to find skill by %d', 00H ; `string'
CONST	ENDS
;	COMDAT ??_C@_0DA@KDCMPJNE@skill?4GetGradeData?5?9?5Failed?5to?5@
CONST	SEGMENT
??_C@_0DA@KDCMPJNE@skill?4GetGradeData?5?9?5Failed?5to?5@ DB 'skill.GetGr'
	DB	'adeData - Failed to find skill by %d', 00H	; `string'
CONST	ENDS
;	COMDAT ??_C@_0BJ@JFEABPIC@Strange?5grade?5index?5?$FL?$CFd?$FN@
CONST	SEGMENT
??_C@_0BJ@JFEABPIC@Strange?5grade?5index?5?$FL?$CFd?$FN@ DB 'Strange grad'
	DB	'e index [%d]', 00H				; `string'
CONST	ENDS
;	COMDAT ??_C@_0DD@KEMABJPN@skill?4GetIconInstance?5?9?5Failed?5@
CONST	SEGMENT
??_C@_0DD@KEMABJPN@skill?4GetIconInstance?5?9?5Failed?5@ DB 'skill.GetIco'
	DB	'nInstance - Failed to find skill by %d', 00H ; `string'
CONST	ENDS
;	COMDAT ??_C@_0DG@FIBFEPFG@skill?4GetIconInstanceNew?5?9?5Fail@
CONST	SEGMENT
??_C@_0DG@FIBFEPFG@skill?4GetIconInstanceNew?5?9?5Fail@ DB 'skill.GetIcon'
	DB	'InstanceNew - Failed to find skill by %d', 00H ; `string'
CONST	ENDS
;	COMDAT ??_C@_0CP@NNBFAJHG@skill?4CanUseSkill?5?9?5Failed?5to?5f@
CONST	SEGMENT
??_C@_0CP@NNBFAJHG@skill?4CanUseSkill?5?9?5Failed?5to?5f@ DB 'skill.CanUs'
	DB	'eSkill - Failed to find skill by %d', 00H	; `string'
CONST	ENDS
;	COMDAT ??_C@_0DC@CENGELDK@skill?4IsLevelUpSkill?5?9?5Failed?5t@
CONST	SEGMENT
??_C@_0DC@CENGELDK@skill?4IsLevelUpSkill?5?9?5Failed?5t@ DB 'skill.IsLeve'
	DB	'lUpSkill - Failed to find skill by %d', 00H	; `string'
CONST	ENDS
;	COMDAT ??_C@_0DA@MJDGFODH@skill?4IsUseHPSkill?5?9?5Failed?5to?5@
CONST	SEGMENT
??_C@_0DA@MJDGFODH@skill?4IsUseHPSkill?5?9?5Failed?5to?5@ DB 'skill.IsUse'
	DB	'HPSkill - Failed to find skill by %d', 00H	; `string'
CONST	ENDS
;	COMDAT ??_C@_0DD@MABMBDPO@skill?4IsStandingSkill?5?9?5Failed?5@
CONST	SEGMENT
??_C@_0DD@MABMBDPO@skill?4IsStandingSkill?5?9?5Failed?5@ DB 'skill.IsStan'
	DB	'dingSkill - Failed to find skill by %d', 00H ; `string'
CONST	ENDS
;	COMDAT ??_C@_0DJ@LIKJDHHI@skill?4GetNeedCharacterLevel?5?9?5F@
CONST	SEGMENT
??_C@_0DJ@LIKJDHHI@skill?4GetNeedCharacterLevel?5?9?5F@ DB 'skill.GetNeed'
	DB	'CharacterLevel - Failed to find skill by %d', 00H ; `string'
CONST	ENDS
;	COMDAT ??_C@_0DB@CHHDEPFC@skill?4IsToggleSkill?5?9?5Failed?5to@
CONST	SEGMENT
??_C@_0DB@CHHDEPFC@skill?4IsToggleSkill?5?9?5Failed?5to@ DB 'skill.IsTogg'
	DB	'leSkill - Failed to find skill by %d', 00H	; `string'
CONST	ENDS
;	COMDAT ??_C@_0DD@IKLGIIBP@skill?4CanLevelUpSkill?5?9?5Failed?5@
CONST	SEGMENT
??_C@_0DD@IKLGIIBP@skill?4CanLevelUpSkill?5?9?5Failed?5@ DB 'skill.CanLev'
	DB	'elUpSkill - Failed to find skill by %d', 00H ; `string'
CONST	ENDS
;	COMDAT ??_C@_0DM@ECFJDING@skill?4CheckRequirementSueccess?5@
CONST	SEGMENT
??_C@_0DM@ECFJDING@skill?4CheckRequirementSueccess?5@ DB 'skill.CheckRequ'
	DB	'irementSueccess - Failed to find skill by %d', 00H ; `string'
CONST	ENDS
;	COMDAT ??_C@_0DM@OIJBJLGH@skill?4GetSkillRequireStatCount?5@
CONST	SEGMENT
??_C@_0DM@OIJBJLGH@skill?4GetSkillRequireStatCount?5@ DB 'skill.GetSkillR'
	DB	'equireStatCount - Failed to find skill by %d', 00H ; `string'
CONST	ENDS
;	COMDAT ??_C@_0DL@KJNPLMH@skill?4GetSkillRequireStatData?5?9@
CONST	SEGMENT
??_C@_0DL@KJNPLMH@skill?4GetSkillRequireStatData?5?9@ DB 'skill.GetSkillR'
	DB	'equireStatData - Failed to find skill by %d', 00H ; `string'
CONST	ENDS
;	COMDAT ??_C@_0EL@ICHNDOAM@skill?4IsSkillRequirement?5?9?5Fail@
CONST	SEGMENT
??_C@_0EL@ICHNDOAM@skill?4IsSkillRequirement?5?9?5Fail@ DB 'skill.IsSkill'
	DB	'Requirement - Failed to find skill : [%d/%s] can''t find [%s]'
	DB	0aH, 00H					; `string'
CONST	ENDS
;	COMDAT ??_C@_0DL@ONFGMLIM@skill?4GetSkillRequirementData?5?9@
CONST	SEGMENT
??_C@_0DL@ONFGMLIM@skill?4GetSkillRequirementData?5?9@ DB 'skill.GetSkill'
	DB	'RequirementData - Failed to find skill by %d', 00H ; `string'
CONST	ENDS
;	COMDAT ??_C@_0DG@NOMBCANI@skill?4GetSkillLevelLimit?5?9?5Fail@
CONST	SEGMENT
??_C@_0DG@NOMBCANI@skill?4GetSkillLevelLimit?5?9?5Fail@ DB 'skill.GetSkil'
	DB	'lLevelLimit - Failed to find skill by %d', 00H ; `string'
CONST	ENDS
;	COMDAT ??_C@_0DG@KGFIMNPN@skill?4IsSkillRequirement?5?9?5Fail@
CONST	SEGMENT
??_C@_0DG@KGFIMNPN@skill?4IsSkillRequirement?5?9?5Fail@ DB 'skill.IsSkill'
	DB	'Requirement - Failed to find skill by %d', 00H ; `string'
CONST	ENDS
;	COMDAT ??_C@_0DE@GMCGPCPN@skill?4GetSkillMaxLevel?5?9?5Failed@
CONST	SEGMENT
??_C@_0DE@GMCGPCPN@skill?4GetSkillMaxLevel?5?9?5Failed@ DB 'skill.GetSkil'
	DB	'lMaxLevel - Failed to find skill by %d', 00H ; `string'
CONST	ENDS
;	COMDAT ??_C@_0DI@BIBFKFFF@skill?4GetSkillLevelUpPoint?5?9?5Fa@
CONST	SEGMENT
??_C@_0DI@BIBFKFFF@skill?4GetSkillLevelUpPoint?5?9?5Fa@ DB 'skill.GetSkil'
	DB	'lLevelUpPoint - Failed to find skill by %d', 00H ; `string'
CONST	ENDS
;	COMDAT ??_C@_0DA@JCGHCILN@skill?4GetSkillNeedSP?5Failed?5to?5@
CONST	SEGMENT
??_C@_0DA@JCGHCILN@skill?4GetSkillNeedSP?5Failed?5to?5@ DB 'skill.GetSkil'
	DB	'lNeedSP Failed to find skill by %d', 00H	; `string'
CONST	ENDS
;	COMDAT ??_C@_0DK@KAOLKAON@skill?4GetSkillContinuationSP?5?9?5@
CONST	SEGMENT
??_C@_0DK@KAOLKAON@skill?4GetSkillContinuationSP?5?9?5@ DB 'skill.GetSkil'
	DB	'lContinuationSP - Failed to find skill by %d', 00H ; `string'
CONST	ENDS
;	COMDAT ??_C@_0DN@GOILKJOL@skill?4GetSkillAffectDescription@
CONST	SEGMENT
??_C@_0DN@GOILKJOL@skill?4GetSkillAffectDescription@ DB 'skill.GetSkillAf'
	DB	'fectDescription - Failed to find skill by %d', 00H ; `string'
CONST	ENDS
;	COMDAT ??_C@_0DE@OPJBIDNE@skill?4GetSkillCoolTime?5?9?5Failed@
CONST	SEGMENT
??_C@_0DE@OPJBIDNE@skill?4GetSkillCoolTime?5?9?5Failed@ DB 'skill.GetSkil'
	DB	'lCoolTime - Failed to find skill by %d', 00H ; `string'
CONST	ENDS
;	COMDAT ??_C@_0EC@BBPGDICG@skill?4GetSkillConditionDescript@
CONST	SEGMENT
??_C@_0EC@BBPGDICG@skill?4GetSkillConditionDescript@ DB 'skill.GetSkillCo'
	DB	'nditionDescription() - Failed to find skill by %d', 00H ; `string'
CONST	ENDS
;	COMDAT ??_C@_0EC@GNHMANKN@skill?4GetSkillAffectDescription@
CONST	SEGMENT
??_C@_0EC@GNHMANKN@skill?4GetSkillAffectDescription@ DB 'skill.GetSkillAf'
	DB	'fectDescriptionCount - Failed to find skill by %d', 00H ; `string'
CONST	ENDS
;	COMDAT ??_C@_0DA@INMEACAF@skill?4GetSkillType?5?9?5Failed?5to?5@
CONST	SEGMENT
??_C@_0DA@INMEACAF@skill?4GetSkillType?5?9?5Failed?5to?5@ DB 'skill.GetSk'
	DB	'illType - Failed to find skill by %d', 00H	; `string'
CONST	ENDS
;	COMDAT ??_C@_0EF@FCDOKCFE@skill?4GetSkillConditionDescript@
CONST	SEGMENT
??_C@_0EF@FCDOKCFE@skill?4GetSkillConditionDescript@ DB 'skill.GetSkillCo'
	DB	'nditionDescriptionCount - Failed to find skill by %d', 00H ; `string'
CONST	ENDS
;	COMDAT ??_C@_0DA@NFCGPBGN@skill?4GetSkillName?5?9?5Failed?5to?5@
CONST	SEGMENT
??_C@_0DA@NFCGPBGN@skill?4GetSkillName?5?9?5Failed?5to?5@ DB 'skill.GetSk'
	DB	'illName - Failed to find skill by %d', 00H	; `string'
CONST	ENDS
;	COMDAT ??_C@_0DH@IPEMHLCJ@skill?4GetSkillDescription?5?9?5Fai@
CONST	SEGMENT
??_C@_0DH@IPEMHLCJ@skill?4GetSkillDescription?5?9?5Fai@ DB 'skill.GetSkil'
	DB	'lDescription - Failed to find skill by %d', 00H ; `string'
CONST	ENDS
;	COMDAT ??_C@_0DO@CIPJKINI@skill?4RegisterSkill?5?9?5Failed?5to@
CONST	SEGMENT
??_C@_0DO@CIPJKINI@skill?4RegisterSkill?5?9?5Failed?5to@ DB 'skill.Regist'
	DB	'erSkill - Failed to find skill data file : %d, %s', 00H ; `string'
CONST	ENDS
;	COMDAT ??_C@_0BK@EHEHLDPB@Failed?5to?5load?5Skill?5Desc@
CONST	SEGMENT
??_C@_0BK@EHEHLDPB@Failed?5to?5load?5Skill?5Desc@ DB 'Failed to load Skil'
	DB	'l Desc', 00H				; `string'
CONST	ENDS
;	COMDAT ??_C@_1KA@DODJLJEA@?$AAC?$AA?3?$AA?2?$AAA?$AAn?$AAk?$AAa?$AA2?$AAP?$AAr?$AAo?$AAj?$AAe?$AAc?$AAt@
CONST	SEGMENT
??_C@_1KA@DODJLJEA@?$AAC?$AA?3?$AA?2?$AAA?$AAn?$AAk?$AAa?$AA2?$AAP?$AAr?$AAo?$AAj?$AAe?$AAc?$AAt@ DB 'C'
	DB	00H, ':', 00H, '\', 00H, 'A', 00H, 'n', 00H, 'k', 00H, 'a', 00H
	DB	'2', 00H, 'P', 00H, 'r', 00H, 'o', 00H, 'j', 00H, 'e', 00H, 'c'
	DB	00H, 't', 00H, '\', 00H, 'A', 00H, 'n', 00H, 'k', 00H, 'a', 00H
	DB	'2', 00H, 'P', 00H, 'r', 00H, 'o', 00H, 'j', 00H, 'e', 00H, 'c'
	DB	00H, 't', 00H, '\', 00H, 'S', 00H, 'o', 00H, 'u', 00H, 'r', 00H
	DB	'c', 00H, 'e', 00H, '\', 00H, 'B', 00H, 'i', 00H, 'n', 00H, 'a'
	DB	00H, 'r', 00H, 'y', 00H, '\', 00H, 's', 00H, 'o', 00H, 'u', 00H
	DB	'r', 00H, 'c', 00H, 'e', 00H, '\', 00H, 'U', 00H, 's', 00H, 'e'
	DB	00H, 'r', 00H, 'I', 00H, 'n', 00H, 't', 00H, 'e', 00H, 'r', 00H
	DB	'f', 00H, 'a', 00H, 'c', 00H, 'e', 00H, '\', 00H, 'P', 00H, 'y'
	DB	00H, 't', 00H, 'h', 00H, 'o', 00H, 'n', 00H, 'S', 00H, 'k', 00H
	DB	'i', 00H, 'l', 00H, 'l', 00H, '.', 00H, 'c', 00H, 'p', 00H, 'p'
	DB	00H, 00H, 00H				; `string'
CONST	ENDS
;	COMDAT ??_C@_1FG@PJFMKMMA@?$AAi?$AAG?$AAr?$AAa?$AAd?$AAe?$AA?5?$AA?$DO?$AA?$DN?$AA?5?$AA0?$AA?5?$AA?$CG?$AA?$CG?$AA?5@
CONST	SEGMENT
??_C@_1FG@PJFMKMMA@?$AAi?$AAG?$AAr?$AAa?$AAd?$AAe?$AA?5?$AA?$DO?$AA?$DN?$AA?5?$AA0?$AA?5?$AA?$CG?$AA?$CG?$AA?5@ DB 'i'
	DB	00H, 'G', 00H, 'r', 00H, 'a', 00H, 'd', 00H, 'e', 00H, ' ', 00H
	DB	'>', 00H, '=', 00H, ' ', 00H, '0', 00H, ' ', 00H, '&', 00H, '&'
	DB	00H, ' ', 00H, 'i', 00H, 'G', 00H, 'r', 00H, 'a', 00H, 'd', 00H
	DB	'e', 00H, ' ', 00H, '<', 00H, ' ', 00H, 'S', 00H, 'K', 00H, 'I'
	DB	00H, 'L', 00H, 'L', 00H, '_', 00H, 'E', 00H, 'F', 00H, 'F', 00H
	DB	'E', 00H, 'C', 00H, 'T', 00H, '_', 00H, 'C', 00H, 'O', 00H, 'U'
	DB	00H, 'N', 00H, 'T', 00H, 00H, 00H		; `string'
CONST	ENDS
;	COMDAT ??_C@_0CG@HMNMMGCM@skillGetAffect?5?9?5Strange?5Formul@
CONST	SEGMENT
??_C@_0CG@HMNMMGCM@skillGetAffect?5?9?5Strange?5Formul@ DB 'skillGetAffec'
	DB	't - Strange Formula [%s]', 00H		; `string'
CONST	ENDS
;	COMDAT ??_C@_04GHNNFJCK@?$CF?40f@
CONST	SEGMENT
??_C@_04GHNNFJCK@?$CF?40f@ DB '%.0f', 00H		; `string'
CONST	ENDS
;	COMDAT ??_C@_0L@DPGJKEBB@SkillPoint@
CONST	SEGMENT
??_C@_0L@DPGJKEBB@SkillPoint@ DB 'SkillPoint', 00H	; `string'
CONST	ENDS
;	COMDAT ??_C@_01DICPFPGM@k@
CONST	SEGMENT
??_C@_01DICPFPGM@k@ DB 'k', 00H				; `string'
CONST	ENDS
;	COMDAT ??_C@_05PFGFPFEF@HORSE@
CONST	SEGMENT
??_C@_05PFGFPFEF@HORSE@ DB 'HORSE', 00H			; `string'
CONST	ENDS
;	COMDAT ??_C@_07OJCANPON@JeungJi@
CONST	SEGMENT
??_C@_07OJCANPON@JeungJi@ DB 'JeungJi', 00H		; `string'
CONST	ENDS
;	COMDAT ??_C@_05KHBKMNCB@GUILD@
CONST	SEGMENT
??_C@_05KHBKMNCB@GUILD@ DB 'GUILD', 00H			; `string'
CONST	ENDS
;	COMDAT ??_C@_0N@KJKNFBLF@common?1horse@
CONST	SEGMENT
??_C@_0N@KJKNFBLF@common?1horse@ DB 'common/horse', 00H	; `string'
CONST	ENDS
;	COMDAT ??_C@_07HGJMPPHK@SUPPORT@
CONST	SEGMENT
??_C@_07HGJMPPHK@SUPPORT@ DB 'SUPPORT', 00H		; `string'
CONST	ENDS
;	COMDAT ??_C@_0N@PLNCGJNB@common?1guild@
CONST	SEGMENT
??_C@_0N@PLNCGJNB@common?1guild@ DB 'common/guild', 00H	; `string'
CONST	ENDS
;	COMDAT ??_C@_06IAOKCPMP@SHAMAN@
CONST	SEGMENT
??_C@_06IAOKCPMP@SHAMAN@ DB 'SHAMAN', 00H		; `string'
CONST	ENDS
;	COMDAT ??_C@_0P@BOFCEHLM@common?1support@
CONST	SEGMENT
??_C@_0P@BOFCEHLM@common?1support@ DB 'common/support', 00H ; `string'
CONST	ENDS
;	COMDAT ??_C@_08GKDFODEA@ASSASSIN@
CONST	SEGMENT
??_C@_08GKDFODEA@ASSASSIN@ DB 'ASSASSIN', 00H		; `string'
CONST	ENDS
;	COMDAT ??_C@_04DMOHMGPD@SURA@
CONST	SEGMENT
??_C@_04DMOHMGPD@SURA@ DB 'SURA', 00H			; `string'
CONST	ENDS
;	COMDAT ??_C@_03EJHAMIPL@wep@
CONST	SEGMENT
??_C@_03EJHAMIPL@wep@ DB 'wep', 00H			; `string'
CONST	ENDS
;	COMDAT ??_C@_07DBIAHDEP@WARRIOR@
CONST	SEGMENT
??_C@_07DBIAHDEP@WARRIOR@ DB 'WARRIOR', 00H		; `string'
CONST	ENDS
;	COMDAT ??_C@_03EPNNLCDK@con@
CONST	SEGMENT
??_C@_03EPNNLCDK@con@ DB 'con', 00H			; `string'
CONST	ENDS
;	COMDAT ??_C@_03MCAGHNNN@mtk@
CONST	SEGMENT
??_C@_03MCAGHNNN@mtk@ DB 'mtk', 00H			; `string'
CONST	ENDS
;	COMDAT ??_C@_03OJMAPEGJ@str@
CONST	SEGMENT
??_C@_03OJMAPEGJ@str@ DB 'str', 00H			; `string'
CONST	ENDS
;	COMDAT ??_C@_03MDAFLKIC@dex@
CONST	SEGMENT
??_C@_03MDAFLKIC@dex@ DB 'dex', 00H			; `string'
CONST	ENDS
;	COMDAT ??_C@_02FEKCJMIO@ar@
CONST	SEGMENT
??_C@_02FEKCJMIO@ar@ DB 'ar', 00H			; `string'
CONST	ENDS
;	COMDAT ??_C@_02HBJMJOPF@iq@
CONST	SEGMENT
??_C@_02HBJMJOPF@iq@ DB 'iq', 00H			; `string'
CONST	ENDS
;	COMDAT ??_C@_06BFDDJCEN@maxwep@
CONST	SEGMENT
??_C@_06BFDDJCEN@maxwep@ DB 'maxwep', 00H		; `string'
CONST	ENDS
;	COMDAT ??_C@_02DIBGMKNJ@lv@
CONST	SEGMENT
??_C@_02DIBGMKNJ@lv@ DB 'lv', 00H			; `string'
CONST	ENDS
;	COMDAT ??_C@_04OLEAENMA@odef@
CONST	SEGMENT
??_C@_04OLEAENMA@odef@ DB 'odef', 00H			; `string'
CONST	ENDS
;	COMDAT ??_C@_06BGMAHCAC@minwep@
CONST	SEGMENT
??_C@_06BGMAHCAC@minwep@ DB 'minwep', 00H		; `string'
CONST	ENDS
;	COMDAT ??_C@_05JJHFHHDI@maxhp@
CONST	SEGMENT
??_C@_05JJHFHHDI@maxhp@ DB 'maxhp', 00H			; `string'
CONST	ENDS
;	COMDAT ??_C@_05IJAGDLKJ@maxsp@
CONST	SEGMENT
??_C@_05IJAGDLKJ@maxsp@ DB 'maxsp', 00H			; `string'
CONST	ENDS
;	COMDAT ??_C@_06JNLGMHCE@minmtk@
CONST	SEGMENT
??_C@_06JNLGMHCE@minmtk@ DB 'minmtk', 00H		; `string'
CONST	ENDS
;	COMDAT ??_C@_06JOEFCHGL@maxmtk@
CONST	SEGMENT
??_C@_06JOEFCHGL@maxmtk@ DB 'maxmtk', 00H		; `string'
CONST	ENDS
;	COMDAT ??_C@_03MOPOHHPO@DEX@
CONST	SEGMENT
??_C@_03MOPOHHPO@DEX@ DB 'DEX', 00H			; `string'
CONST	ENDS
;	COMDAT ??_C@_03ECCGHPEG@CON@
CONST	SEGMENT
??_C@_03ECCGHPEG@CON@ DB 'CON', 00H			; `string'
CONST	ENDS
;	COMDAT ??_C@_03JMHEAPMO@INT@
CONST	SEGMENT
??_C@_03JMHEAPMO@INT@ DB 'INT', 00H			; `string'
CONST	ENDS
;	COMDAT ??_C@_03OEDLDJBF@STR@
CONST	SEGMENT
??_C@_03OEDLDJBF@STR@ DB 'STR', 00H			; `string'
CONST	ENDS
;	COMDAT ??_C@_04DIOLBHO@MWEP@
CONST	SEGMENT
??_C@_04DIOLBHO@MWEP@ DB 'MWEP', 00H			; `string'
CONST	ENDS
;	COMDAT ??_C@_0BB@JCAPOPOP@MagicAttackPower@
CONST	SEGMENT
??_C@_0BB@JCAPOPOP@MagicAttackPower@ DB 'MagicAttackPower', 00H ; `string'
CONST	ENDS
;	COMDAT ??_C@_0N@BDLLDGMK@DefencePower@
CONST	SEGMENT
??_C@_0N@BDLLDGMK@DefencePower@ DB 'DefencePower', 00H	; `string'
CONST	ENDS
;	COMDAT ??_C@_03BKLPEICB@DEF@
CONST	SEGMENT
??_C@_03BKLPEICB@DEF@ DB 'DEF', 00H			; `string'
CONST	ENDS
;	COMDAT ??_C@_06CLLIGBKB@AtkMin@
CONST	SEGMENT
??_C@_06CLLIGBKB@AtkMin@ DB 'AtkMin', 00H		; `string'
CONST	ENDS
;	COMDAT ??_C@_06DJDDIFMO@AtkMax@
CONST	SEGMENT
??_C@_06DJDDIFMO@AtkMax@ DB 'AtkMax', 00H		; `string'
CONST	ENDS
;	COMDAT ??_C@_06BJMCHJAI@ATKSPD@
CONST	SEGMENT
??_C@_06BJMCHJAI@ATKSPD@ DB 'ATKSPD', 00H		; `string'
CONST	ENDS
;	COMDAT ??_C@_0M@LAGJIOMN@AttackPower@
CONST	SEGMENT
??_C@_0M@LAGJIOMN@AttackPower@ DB 'AttackPower', 00H	; `string'
CONST	ENDS
;	COMDAT ??_C@_06BFCGIMHM@MinATK@
CONST	SEGMENT
??_C@_06BFCGIMHM@MinATK@ DB 'MinATK', 00H		; `string'
CONST	ENDS
;	COMDAT ??_C@_06BGNFGMDD@MaxATK@
CONST	SEGMENT
??_C@_06BGNFGMDD@MaxATK@ DB 'MaxATK', 00H		; `string'
CONST	ENDS
;	COMDAT ??_C@_06NEIGIGOC@MinWEP@
CONST	SEGMENT
??_C@_06NEIGIGOC@MinWEP@ DB 'MinWEP', 00H		; `string'
CONST	ENDS
;	COMDAT ??_C@_06NHHFGGKN@MaxWEP@
CONST	SEGMENT
??_C@_06NHHFGGKN@MaxWEP@ DB 'MaxWEP', 00H		; `string'
CONST	ENDS
;	COMDAT ??_C@_07DOMGCJCK@MinMWEP@
CONST	SEGMENT
??_C@_07DOMGCJCK@MinMWEP@ DB 'MinMWEP', 00H		; `string'
CONST	ENDS
;	COMDAT ??_C@_07NIKGIGML@MaxMWEP@
CONST	SEGMENT
??_C@_07NIKGIGML@MaxMWEP@ DB 'MaxMWEP', 00H		; `string'
CONST	ENDS
;	COMDAT ??_C@_05DDBABAEM@MaxHP@
CONST	SEGMENT
??_C@_05DDBABAEM@MaxHP@ DB 'MaxHP', 00H			; `string'
CONST	ENDS
;	COMDAT ??_C@_05CDGDFMNN@MaxSP@
CONST	SEGMENT
??_C@_05CDGDFMNN@MaxSP@ DB 'MaxSP', 00H			; `string'
CONST	ENDS
;	COMDAT ??_C@_02JFNPKIJL@LV@
CONST	SEGMENT
??_C@_02JFNPKIJL@LV@ DB 'LV', 00H			; `string'
CONST	ENDS
;	COMDAT ??_C@_05KOHFLOFG@Level@
CONST	SEGMENT
??_C@_05KOHFLOFG@Level@ DB 'Level', 00H			; `string'
CONST	ENDS
;	COMDAT ??_C@_05FGPNDJME@chain@
CONST	SEGMENT
??_C@_05FGPNDJME@chain@ DB 'chain', 00H			; `string'
CONST	ENDS
;	COMDAT ??_C@_02PGLKMFED@HR@
CONST	SEGMENT
??_C@_02PGLKMFED@HR@ DB 'HR', 00H			; `string'
CONST	ENDS
;	COMDAT ??_C@_05CHNCNNHJ@ARROW@
CONST	SEGMENT
??_C@_05CHNCNNHJ@ARROW@ DB 'ARROW', 00H			; `string'
CONST	ENDS
;	COMDAT ??_C@_0L@BFLCNLLJ@EMPTY_HAND@
CONST	SEGMENT
??_C@_0L@BFLCNLLJ@EMPTY_HAND@ DB 'EMPTY_HAND', 00H	; `string'
CONST	ENDS
;	COMDAT ??_C@_04JCGINPGJ@BELL@
CONST	SEGMENT
??_C@_04JCGINPGJ@BELL@ DB 'BELL', 00H			; `string'
CONST	ENDS
;	COMDAT ??_C@_03HPGGKCHO@FAN@
CONST	SEGMENT
??_C@_03HPGGKCHO@FAN@ DB 'FAN', 00H			; `string'
CONST	ENDS
;	COMDAT ??_C@_0L@CIOLFOIH@TWO_HANDED@
CONST	SEGMENT
??_C@_0L@CIOLFOIH@TWO_HANDED@ DB 'TWO_HANDED', 00H	; `string'
CONST	ENDS
;	COMDAT ??_C@_0N@OINLDIMI@DOUBLE_SWORD@
CONST	SEGMENT
??_C@_0N@OINLDIMI@DOUBLE_SWORD@ DB 'DOUBLE_SWORD', 00H	; `string'
CONST	ENDS
;	COMDAT ??_C@_06EBPDMAC@DAGGER@
CONST	SEGMENT
??_C@_06EBPDMAC@DAGGER@ DB 'DAGGER', 00H		; `string'
CONST	ENDS
;	COMDAT ??_C@_03GBJKLBDL@BOW@
CONST	SEGMENT
??_C@_03GBJKLBDL@BOW@ DB 'BOW', 00H			; `string'
CONST	ENDS
;	COMDAT ??_C@_0O@DNFBBGFD@SEARCH_TARGET@
CONST	SEGMENT
??_C@_0O@DNFBBGFD@SEARCH_TARGET@ DB 'SEARCH_TARGET', 00H ; `string'
CONST	ENDS
;	COMDAT ??_C@_05HGEOAPGK@SWORD@
CONST	SEGMENT
??_C@_05HGEOAPGK@SWORD@ DB 'SWORD', 00H			; `string'
CONST	ENDS
;	COMDAT ??_C@_0BA@PANOFCME@CANNOT_LEVEL_UP@
CONST	SEGMENT
??_C@_0BA@PANOFCME@CANNOT_LEVEL_UP@ DB 'CANNOT_LEVEL_UP', 00H ; `string'
CONST	ENDS
;	COMDAT ??_C@_0N@CDNKGDPF@CIRCLE_RANGE@
CONST	SEGMENT
??_C@_0N@CDNKGDPF@CIRCLE_RANGE@ DB 'CIRCLE_RANGE', 00H	; `string'
CONST	ENDS
;	COMDAT ??_C@_0M@NDECBLLN@HORSE_SKILL@
CONST	SEGMENT
??_C@_0M@NDECBLLN@HORSE_SKILL@ DB 'HORSE_SKILL', 00H	; `string'
CONST	ENDS
;	COMDAT ??_C@_0BE@PHFCBKJJ@TIME_INCREASE_SKILL@
CONST	SEGMENT
??_C@_0BE@PHFCBKJJ@TIME_INCREASE_SKILL@ DB 'TIME_INCREASE_SKILL', 00H ; `string'
CONST	ENDS
;	COMDAT ??_C@_0N@DGOOFKCE@ATTACK_SKILL@
CONST	SEGMENT
??_C@_0N@DGOOFKCE@ATTACK_SKILL@ DB 'ATTACK_SKILL', 00H	; `string'
CONST	ENDS
;	COMDAT ??_C@_0N@DMIFKBAA@MOVING_SKILL@
CONST	SEGMENT
??_C@_0N@DMIFKBAA@MOVING_SKILL@ DB 'MOVING_SKILL', 00H	; `string'
CONST	ENDS
;	COMDAT ??_C@_0P@LCOEKGDG@STANDING_SKILL@
CONST	SEGMENT
??_C@_0P@LCOEKGDG@STANDING_SKILL@ DB 'STANDING_SKILL', 00H ; `string'
CONST	ENDS
;	COMDAT ??_C@_0P@JIHFJGIE@CAN_USE_FOR_ME@
CONST	SEGMENT
??_C@_0P@JIHFJGIE@CAN_USE_FOR_ME@ DB 'CAN_USE_FOR_ME', 00H ; `string'
CONST	ENDS
;	COMDAT ??_C@_06FOCLNFCJ@USE_HP@
CONST	SEGMENT
??_C@_06FOCLNFCJ@USE_HP@ DB 'USE_HP', 00H		; `string'
CONST	ENDS
;	COMDAT ??_C@_0BF@KAHLCFKD@CAN_CHANGE_DIRECTION@
CONST	SEGMENT
??_C@_0BF@KAHLCFKD@CAN_CHANGE_DIRECTION@ DB 'CAN_CHANGE_DIRECTION', 00H ; `string'
CONST	ENDS
;	COMDAT ??_C@_0N@OECBKPIO@MELEE_ATTACK@
CONST	SEGMENT
??_C@_0N@OECBKPIO@MELEE_ATTACK@ DB 'MELEE_ATTACK', 00H	; `string'
CONST	ENDS
;	COMDAT ??_C@_0O@OBGKPFHN@CHARGE_ATTACK@
CONST	SEGMENT
??_C@_0O@OBGKPFHN@CHARGE_ATTACK@ DB 'CHARGE_ATTACK', 00H ; `string'
CONST	ENDS
;	COMDAT ??_C@_06FDJJHOKF@TOGGLE@
CONST	SEGMENT
??_C@_06FDJJHOKF@TOGGLE@ DB 'TOGGLE', 00H		; `string'
CONST	ENDS
;	COMDAT ??_C@_0BC@NOPFFPJN@WEAPON_LIMITATION@
CONST	SEGMENT
??_C@_0BC@NOPFFPJN@WEAPON_LIMITATION@ DB 'WEAPON_LIMITATION', 00H ; `string'
CONST	ENDS
;	COMDAT ??_C@_09IHHGJKF@FAN_RANGE@
CONST	SEGMENT
??_C@_09IHHGJKF@FAN_RANGE@ DB 'FAN_RANGE', 00H		; `string'
CONST	ENDS
;	COMDAT ??_C@_0M@GMELPIKL@NEED_CORPSE@
CONST	SEGMENT
??_C@_0M@GMELPIKL@NEED_CORPSE@ DB 'NEED_CORPSE', 00H	; `string'
CONST	ENDS
;	COMDAT ??_C@_07CGFACAKO@passive@
CONST	SEGMENT
??_C@_07CGFACAKO@passive@ DB 'passive', 00H		; `string'
CONST	ENDS
;	COMDAT ??_C@_0BG@KFFKABFH@CAN_USE_IF_NOT_ENOUGH@
CONST	SEGMENT
??_C@_0BG@KFFKABFH@CAN_USE_IF_NOT_ENOUGH@ DB 'CAN_USE_IF_NOT_ENOUGH', 00H ; `string'
CONST	ENDS
;	COMDAT ??_C@_04PANNCEIL@sura@
CONST	SEGMENT
??_C@_04PANNCEIL@sura@ DB 'sura', 00H			; `string'
CONST	ENDS
;	COMDAT ??_C@_06IEMBPBBN@shaman@
CONST	SEGMENT
??_C@_06IEMBPBBN@shaman@ DB 'shaman', 00H		; `string'
CONST	ENDS
;	COMDAT ??_C@_07MMNNMPML@warrior@
CONST	SEGMENT
??_C@_07MMNNMPML@warrior@ DB 'warrior', 00H		; `string'
CONST	ENDS
;	COMDAT ??_C@_08BFJJNNGH@assassin@
CONST	SEGMENT
??_C@_08BFJJNNGH@assassin@ DB 'assassin', 00H		; `string'
CONST	ENDS
;	COMDAT ??_C@_06MDLIGPKC@active@
CONST	SEGMENT
??_C@_06MDLIGPKC@active@ DB 'active', 00H		; `string'
CONST	ENDS
;	COMDAT ??_C@_07ILMBEDPO@support@
CONST	SEGMENT
??_C@_07ILMBEDPO@support@ DB 'support', 00H		; `string'
CONST	ENDS
;	COMDAT ??_C@_0BB@FIGDLACA@motionindexforme@
CONST	SEGMENT
??_C@_0BB@FIGDLACA@motionindexforme@ DB 'motionindexforme', 00H ; `string'
CONST	ENDS
;	COMDAT ??_C@_04CGFJFPFD@none@
CONST	SEGMENT
??_C@_04CGFJFPFD@none@ DB 'none', 00H			; `string'
CONST	ENDS
;	COMDAT ??_C@_0N@BIJBKECH@leveluppoint@
CONST	SEGMENT
??_C@_0N@BIJBKECH@leveluppoint@ DB 'leveluppoint', 00H	; `string'
CONST	ENDS
;	COMDAT ??_C@_0M@DIJMKMOF@motionindex@
CONST	SEGMENT
??_C@_0M@DIJMKMOF@motionindex@ DB 'motionindex', 00H	; `string'
CONST	ENDS
;	COMDAT ??_C@_05CCGOGOBM@range@
CONST	SEGMENT
??_C@_05CCGOGOBM@range@ DB 'range', 00H			; `string'
CONST	ENDS
;	COMDAT ??_C@_08JAPIFGPH@maxlevel@
CONST	SEGMENT
??_C@_08JAPIFGPH@maxlevel@ DB 'maxlevel', 00H		; `string'
CONST	ENDS
;	COMDAT ??_C@_0O@OKAHIEDK@needspformula@
CONST	SEGMENT
??_C@_0O@OKAHIEDK@needspformula@ DB 'needspformula', 00H ; `string'
CONST	ENDS
;	COMDAT ??_C@_0BG@DFAOMADI@continuationspformula@
CONST	SEGMENT
??_C@_0BG@DFAOMADI@continuationspformula@ DB 'continuationspformula', 00H ; `string'
CONST	ENDS
;	COMDAT ??_C@_0BD@GDJBKHMN@targetcountformula@
CONST	SEGMENT
??_C@_0BD@GDJBKHMN@targetcountformula@ DB 'targetcountformula', 00H ; `string'
CONST	ENDS
;	COMDAT ??_C@_0BH@DAEIJFBL@motionloopcountformula@
CONST	SEGMENT
??_C@_0BH@DAEIJFBL@motionloopcountformula@ DB 'motionloopcountformula', 00H ; `string'
CONST	ENDS
;	COMDAT ??_C@_0FJ@NEGDHIMM@CPythonSkill?3?3RegisterSkill?$CIdwS@
CONST	SEGMENT
??_C@_0FJ@NEGDHIMM@CPythonSkill?3?3RegisterSkill?$CIdwS@ DB 'CPythonSkill'
	DB	'::RegisterSkill(dwSkillIndex=%d, c_szFileName=%s) - Strange G'
	DB	'rade Data Count', 00H			; `string'
CONST	ENDS
;	COMDAT ??_C@_0BA@EILLLIMM@cooltimeformula@
CONST	SEGMENT
??_C@_0BA@EILLLIMM@cooltimeformula@ DB 'cooltimeformula', 00H ; `string'
CONST	ENDS
;	COMDAT ??_C@_0L@IEHCOHAD@affectdata@
CONST	SEGMENT
??_C@_0L@IEHCOHAD@affectdata@ DB 'affectdata', 00H	; `string'
CONST	ENDS
;	COMDAT ??_C@_0M@PCGMAJCD@?$CFdgradedata@
CONST	SEGMENT
??_C@_0M@PCGMAJCD@?$CFdgradedata@ DB '%dgradedata', 00H	; `string'
CONST	ENDS
;	COMDAT ??_C@_0O@BGDKPGFJ@conditiondata@
CONST	SEGMENT
??_C@_0O@BGDKPGFJ@conditiondata@ DB 'conditiondata', 00H ; `string'
CONST	ENDS
;	COMDAT ??_C@_0N@GFIELPPM@?$CFdaffectdata@
CONST	SEGMENT
??_C@_0N@GFIELPPM@?$CFdaffectdata@ DB '%daffectdata', 00H ; `string'
CONST	ENDS
;	COMDAT ??_C@_0FO@BPLAJAHG@CPythonSkill?3?3RegisterSkill?$CIdwS@
CONST	SEGMENT
??_C@_0FO@BPLAJAHG@CPythonSkill?3?3RegisterSkill?$CIdwS@ DB 'CPythonSkill'
	DB	'::RegisterSkill(dwSkillIndex=%d, c_szFileName=%s) - Failed to'
	DB	' find [iconfilename]', 00H			; `string'
CONST	ENDS
;	COMDAT ??_C@_0BA@IOBOECCA@?$CFdconditiondata@
CONST	SEGMENT
??_C@_0BA@IOBOECCA@?$CFdconditiondata@ DB '%dconditiondata', 00H ; `string'
CONST	ENDS
;	COMDAT ??_C@_0M@PPJNHBMP@description@
CONST	SEGMENT
??_C@_0M@PPJNHBMP@description@ DB 'description', 00H	; `string'
CONST	ENDS
;	COMDAT ??_C@_0N@CDMMOEBD@iconfilename@
CONST	SEGMENT
??_C@_0N@CDMMOEBD@iconfilename@ DB 'iconfilename', 00H	; `string'
CONST	ENDS
;	COMDAT ??_C@_0FE@LFJDJPLO@CPythonSkill?3?3RegisterSkill?$CIdwS@
CONST	SEGMENT
??_C@_0FE@LFJDJPLO@CPythonSkill?3?3RegisterSkill?$CIdwS@ DB 'CPythonSkill'
	DB	'::RegisterSkill(dwSkillIndex=%d, c_szFileName=%s) - Failed to'
	DB	' find [%s]', 00H				; `string'
CONST	ENDS
;	COMDAT ??_C@_0O@NCHOGIBK@?$CFddescription@
CONST	SEGMENT
??_C@_0O@NCHOGIBK@?$CFddescription@ DB '%ddescription', 00H ; `string'
CONST	ENDS
;	COMDAT ??_C@_0FK@CIMCNNKO@Strange?5Skill?5Need?5Weapon?5?9?5CPy@
CONST	SEGMENT
??_C@_0FK@CIMCNNKO@Strange?5Skill?5Need?5Weapon?5?9?5CPy@ DB 'Strange Ski'
	DB	'll Need Weapon - CPythonSkill::RegisterSkill(dwSkillIndex=%d,'
	DB	' c_szFileName=%s)', 00H			; `string'
CONST	ENDS
;	COMDAT ??_C@_06JBGOOFCN@?$CFdname@
CONST	SEGMENT
??_C@_06JBGOOFCN@?$CFdname@ DB '%dname', 00H		; `string'
CONST	ENDS
;	COMDAT ??_C@_0FI@NGLMACOA@Strange?5Skill?5Attribute?5?9?5CPyth@
CONST	SEGMENT
??_C@_0FI@NGLMACOA@Strange?5Skill?5Attribute?5?9?5CPyth@ DB 'Strange Skil'
	DB	'l Attribute - CPythonSkill::RegisterSkill(dwSkillIndex=%d, c_'
	DB	'szFileName=%s)', 00H			; `string'
CONST	ENDS
;	COMDAT ??_C@_0L@OFCPBCKK@needweapon@
CONST	SEGMENT
??_C@_0L@OFCPBCKK@needweapon@ DB 'needweapon', 00H	; `string'
CONST	ENDS
;	COMDAT ??_C@_0FK@GEMIAIHM@CPythonSkill?3?3RegisterSkill?$CIdwS@
CONST	SEGMENT
??_C@_0FK@GEMIAIHM@CPythonSkill?3?3RegisterSkill?$CIdwS@ DB 'CPythonSkill'
	DB	'::RegisterSkill(dwSkillIndex=%d, c_szFileName=%s) - Failed to'
	DB	' find key [type]', 00H			; `string'
CONST	ENDS
;	COMDAT ??_C@_09HGIEBAJ@attribute@
CONST	SEGMENT
??_C@_09HGIEBAJ@attribute@ DB 'attribute', 00H		; `string'
CONST	ENDS
;	COMDAT ??_C@_04GPMDFGEJ@type@
CONST	SEGMENT
??_C@_04GPMDFGEJ@type@ DB 'type', 00H			; `string'
CONST	ENDS
;	COMDAT ??_C@_0FD@BPAOEOEO@Strange?5Skill?5Type?5?9?5CPythonSki@
CONST	SEGMENT
??_C@_0FD@BPAOEOEO@Strange?5Skill?5Type?5?9?5CPythonSki@ DB 'Strange Skil'
	DB	'l Type - CPythonSkill::RegisterSkill(dwSkillIndex=%d, c_szFil'
	DB	'eName=%s)', 00H				; `string'
CONST	ENDS
;	COMDAT ??_C@_0EN@CCBMGIML@CPythonSkill?3?3RegisterPetSkillT@
CONST	SEGMENT
??_C@_0EN@CCBMGIML@CPythonSkill?3?3RegisterPetSkillT@ DB 'CPythonSkill::R'
	DB	'egisterPetSkillTable strange skill description value line: %d'
	DB	00H						; `string'
CONST	ENDS
;	COMDAT ??_C@_0FE@DNAFFMLK@CPythonSkill?3?3RegisterSkill?$CIdwS@
CONST	SEGMENT
??_C@_0FE@DNAFFMLK@CPythonSkill?3?3RegisterSkill?$CIdwS@ DB 'CPythonSkill'
	DB	'::RegisterSkill(dwSkillIndex=%d, c_szFileName=%s) - Failed to'
	DB	' find file', 00H				; `string'
CONST	ENDS
;	COMDAT ??_C@_04LMMJFDCN@AUTO@
CONST	SEGMENT
??_C@_04LMMJFDCN@AUTO@ DB 'AUTO', 00H			; `string'
CONST	ENDS
;	COMDAT ??_C@_0EG@FEBECLPE@CPythonSkill?3?3RegisterPetSkillT@
CONST	SEGMENT
??_C@_0EG@FEBECLPE@CPythonSkill?3?3RegisterPetSkillT@ DB 'CPythonSkill::R'
	DB	'egisterPetSkillTable strange skill type value line: %d', 00H ; `string'
CONST	ENDS
;	COMDAT ??_C@_0EL@PCKBGLGB@CPythonSkill?3?3RegisterPetSkillT@
CONST	SEGMENT
??_C@_0EL@PCKBGLGB@CPythonSkill?3?3RegisterPetSkillT@ DB 'CPythonSkill::R'
	DB	'egisterPetSkillTable strange skill icon name value line: %d', 00H ; `string'
CONST	ENDS
;	COMDAT ??_C@_0BL@GJNFLNHG@d?3?1ymir?5work?1ui?1skill?1pet?1@
CONST	SEGMENT
??_C@_0BL@GJNFLNHG@d?3?1ymir?5work?1ui?1skill?1pet?1@ DB 'd:/ymir work/ui'
	DB	'/skill/pet/', 00H				; `string'
CONST	ENDS
;	COMDAT ??_C@_0EH@DDJGPANA@CPythonSkill?3?3RegisterPetSkillT@
CONST	SEGMENT
??_C@_0EH@DDJGPANA@CPythonSkill?3?3RegisterPetSkillT@ DB 'CPythonSkill::R'
	DB	'egisterPetSkillTable strange skill index value line: %d', 00H ; `string'
CONST	ENDS
;	COMDAT ??_C@_0EG@CECMJFJD@CPythonSkill?3?3RegisterPetSkillT@
CONST	SEGMENT
??_C@_0EG@CECMJFJD@CPythonSkill?3?3RegisterPetSkillT@ DB 'CPythonSkill::R'
	DB	'egisterPetSkillTable strange skill name value line: %d', 00H ; `string'
CONST	ENDS
;	COMDAT ??_C@_0CN@EGOMLGLD@?$CFs?$FL?$CFs?$FN?5Skill?5grade?5motion?5?$FL?$CFd?$FN?5@
CONST	SEGMENT
??_C@_0CN@EGOMLGLD@?$CFs?$FL?$CFs?$FN?5Skill?5grade?5motion?5?$FL?$CFd?$FN?5@ DB '%'
	DB	's[%s] Skill grade motion [%d] Out Of Range.', 00H ; `string'
CONST	ENDS
;	COMDAT ??_C@_0EA@HLDJPOAF@CPythonSkill?3?3RegisterPetSkillT@
CONST	SEGMENT
??_C@_0EA@HLDJPOAF@CPythonSkill?3?3RegisterPetSkillT@ DB 'CPythonSkill::R'
	DB	'egisterPetSkillTable strange token size line: %d', 00H ; `string'
CONST	ENDS
;	COMDAT ??_C@_0BI@FJJHCJFN@?$CFsskill?1common?1support?1@
CONST	SEGMENT
??_C@_0BI@FJJHCJFN@?$CFsskill?1common?1support?1@ DB '%sskill/common/supp'
	DB	'ort/', 00H					; `string'
CONST	ENDS
;	COMDAT ??_C@_0M@MMGCNLPF@?$CFsskill?1?$CFs?1@
CONST	SEGMENT
??_C@_0M@MMGCNLPF@?$CFsskill?1?$CFs?1@ DB '%sskill/%s/', 00H ; `string'
CONST	ENDS
;	COMDAT ??_C@_0EP@BPIIEGNI@CPythonSkill?3?3RegisterSkillDesc@
CONST	SEGMENT
??_C@_0EP@BPIIEGNI@CPythonSkill?3?3RegisterSkillDesc@ DB 'CPythonSkill::R'
	DB	'egisterSkillDesc(dwSkillIndex=%d) - Strange Skill Attribute(%'
	DB	's)', 00H					; `string'
CONST	ENDS
;	COMDAT ??_C@_0FB@LIPAFJME@CPythonSkill?3?3RegisterSkillDesc@
CONST	SEGMENT
??_C@_0FB@LIPAFJME@CPythonSkill?3?3RegisterSkillDesc@ DB 'CPythonSkill::R'
	DB	'egisterSkillDesc(dwSkillIndex=%d) - Strange Skill Need Weapon'
	DB	'(%s)', 00H					; `string'
CONST	ENDS
;	COMDAT ??_C@_0FA@HKALFJMK@CPythonSkill?3?3RegisterSkillDesc@
CONST	SEGMENT
??_C@_0FA@HKALFJMK@CPythonSkill?3?3RegisterSkillDesc@ DB 'CPythonSkill::R'
	DB	'egisterSkillDesc(dwSkillIndex=%d, strType=%s).STRANGE_SKILL_T'
	DB	'YPE', 00H					; `string'
CONST	ENDS
;	COMDAT ??_C@_01DNKMNLPK@?$HM@
CONST	SEGMENT
??_C@_01DNKMNLPK@?$HM@ DB '|', 00H			; `string'
CONST	ENDS
;	COMDAT ??_C@_0CD@PBEIPNPF@SkillDesc?4line?$CI?$CFd?$CJ?4NO_INDEX_ERR@
CONST	SEGMENT
??_C@_0CD@PBEIPNPF@SkillDesc?4line?$CI?$CFd?$CJ?4NO_INDEX_ERR@ DB 'SkillD'
	DB	'esc.line(%d).NO_INDEX_ERROR', 0aH, 00H	; `string'
CONST	ENDS
;	COMDAT ??_C@_0CB@DMLPIAAA@SkillDesc?4line?$CI?$CFd?$CJ?4NO_JOB_ERROR@
CONST	SEGMENT
??_C@_0CB@DMLPIAAA@SkillDesc?4line?$CI?$CFd?$CJ?4NO_JOB_ERROR@ DB 'SkillD'
	DB	'esc.line(%d).NO_JOB_ERROR', 0aH, 00H	; `string'
CONST	ENDS
;	COMDAT ??_C@_04DLFHDFGL@?4sub@
CONST	SEGMENT
??_C@_04DLFHDFGL@?4sub@ DB '.sub', 00H			; `string'
CONST	ENDS
;	COMDAT ??_C@_0CC@GCKFPEAL@SkillDesc?4line?$CI?$CFd?$CJ?4NO_VNUM_ERRO@
CONST	SEGMENT
??_C@_0CC@GCKFPEAL@SkillDesc?4line?$CI?$CFd?$CJ?4NO_VNUM_ERRO@ DB 'SkillD'
	DB	'esc.line(%d).NO_VNUM_ERROR', 0aH, 00H	; `string'
CONST	ENDS
;	COMDAT ??_C@_03NNBCEMGJ@?$CK?53@
CONST	SEGMENT
??_C@_03NNBCEMGJ@?$CK?53@ DB '* 3', 00H			; `string'
CONST	ENDS
;	COMDAT ??_C@_05GMJBCDPG@_?$CF02d@
CONST	SEGMENT
??_C@_05GMJBCDPG@_?$CF02d@ DB '_%02d', 00H		; `string'
CONST	ENDS
;	COMDAT ??_C@_06NEJDJIND@maxatk@
CONST	SEGMENT
??_C@_06NEJDJIND@maxatk@ DB 'maxatk', 00H		; `string'
CONST	ENDS
;	COMDAT ??_C@_07ONOKAGOF@maxmwep@
CONST	SEGMENT
??_C@_07ONOKAGOF@maxmwep@ DB 'maxmwep', 00H		; `string'
CONST	ENDS
;	COMDAT ??_C@_07LIKKJAE@minmwep@
CONST	SEGMENT
??_C@_07LIKKJAE@minmwep@ DB 'minmwep', 00H		; `string'
CONST	ENDS
;	COMDAT ??_C@_03LJAEFNNE@max@
CONST	SEGMENT
??_C@_03LJAEFNNE@max@ DB 'max', 00H			; `string'
CONST	ENDS
;	COMDAT ??_C@_03KLIPLJLL@min@
CONST	SEGMENT
??_C@_03KLIPLJLL@min@ DB 'min', 00H			; `string'
CONST	ENDS
;	COMDAT ??_C@_06NHGAHIJM@minatk@
CONST	SEGMENT
??_C@_06NHGAHIJM@minatk@ DB 'minatk', 00H		; `string'
CONST	ENDS
;	COMDAT ??_C@_04MPLEFDAG@mwep@
CONST	SEGMENT
??_C@_04MPLEFDAG@mwep@ DB 'mwep', 00H			; `string'
CONST	ENDS
;	COMDAT ??_C@_06EBGNBFIA@number@
CONST	SEGMENT
??_C@_06EBGNBFIA@number@ DB 'number', 00H		; `string'
CONST	ENDS
;	COMDAT ??_C@_0EO@GJJLGCC@CPythonSkill?3?3RegisterSkillTabl@
CONST	SEGMENT
??_C@_0EO@GJJLGCC@CPythonSkill?3?3RegisterSkillTabl@ DB 'CPythonSkill::Re'
	DB	'gisterSkillTable(%s) - NOT EXIST SkillDesc [Vnum:%d Line:%d]', 0aH
	DB	00H						; `string'
CONST	ENDS
;	COMDAT ??_C@_03IINAMCGF@atk@
CONST	SEGMENT
??_C@_03IINAMCGF@atk@ DB 'atk', 00H			; `string'
CONST	ENDS
;	COMDAT ??_C@_0FG@JMHDMKFK@CPythonSkill?3?3RegisterSkillTabl@
CONST	SEGMENT
??_C@_0FG@JMHDMKFK@CPythonSkill?3?3RegisterSkillTabl@ DB 'CPythonSkill::R'
	DB	'egisterSkillTable(%s) - Strange Token Count [Line:%d / TokenC'
	DB	'ount:%d]', 0aH, 00H				; `string'
?MELEE_SKILL_TARGET_RANGE@SSkillData@CPythonSkill@@2KA DD 0aaH ; CPythonSkill::SSkillData::MELEE_SKILL_TARGET_RANGE
PUBLIC	??$?HDU?$char_traits@D@std@@V?$allocator@D@1@@std@@YA?AV?$basic_string@DU?$char_traits@D@std@@V?$allocator@D@2@@0@ABV10@0@Z ; std::operator+<char,std::char_traits<char>,std::allocator<char> >
PUBLIC	?ceil@@YAMM@Z					; ceil
PUBLIC	??$_Get_size_of_n@$01@std@@YAII@Z		; std::_Get_size_of_n<2>
PUBLIC	??0SAffectData@CPythonSkill@@QAE@ABU01@@Z	; CPythonSkill::SAffectData::SAffectData
PUBLIC	??0SAffectDataNew@CPythonSkill@@QAE@ABU01@@Z	; CPythonSkill::SAffectDataNew::SAffectDataNew
PUBLIC	?allocate@?$allocator@USRequireStatData@CPythonSkill@@@std@@QAEPAUSRequireStatData@CPythonSkill@@I@Z ; std::allocator<CPythonSkill::SRequireStatData>::allocate
PUBLIC	??$construct_at@USAffectData@CPythonSkill@@AAU12@@std@@YAPAUSAffectData@CPythonSkill@@QAU12@AAU12@@Z ; std::construct_at<CPythonSkill::SAffectData,CPythonSkill::SAffectData &>
PUBLIC	??$construct_at@USAffectDataNew@CPythonSkill@@AAU12@@std@@YAPAUSAffectDataNew@CPythonSkill@@QAU12@AAU12@@Z ; std::construct_at<CPythonSkill::SAffectDataNew,CPythonSkill::SAffectDataNew &>
PUBLIC	??$construct_at@USRequireStatData@CPythonSkill@@AAU12@@std@@YAPAUSRequireStatData@CPythonSkill@@QAU12@AAU12@@Z ; std::construct_at<CPythonSkill::SRequireStatData,CPythonSkill::SRequireStatData &>
PUBLIC	??$?0V?$tuple@ABV?$basic_string@DU?$char_traits@D@std@@V?$allocator@D@2@@std@@@std@@V?$tuple@$$V@1@$0A@$$Z$S@?$pair@$$CBV?$basic_string@DU?$char_traits@D@std@@V?$allocator@D@2@@std@@V12@@std@@AAE@AAV?$tuple@ABV?$basic_string@DU?$char_traits@D@std@@V?$allocator@D@2@@std@@@1@AAV?$tuple@$$V@1@U?$integer_sequence@I$0A@@1@U?$integer_sequence@I$S@1@@Z ; std::pair<std::basic_string<char,std::char_traits<char>,std::allocator<char> > const ,std::basic_string<char,std::char_traits<char>,std::allocator<char> > >::pair<std::basic_string<char,std::char_traits<char>,std::allocator<char> > const ,std::basic_string<char,std::char_traits<char>,std::allocator<char> > ><std::tuple<std::basic_string<char,std::char_traits<char>,std::allocator<char> > const &>,std::tuple<>,0>
PUBLIC	??$?0V?$tuple@ABH@std@@V?$tuple@$$V@1@$0A@$$Z$S@?$pair@$$CBHUSPetSkillData@CPythonSkill@@@std@@AAE@AAV?$tuple@ABH@1@AAV?$tuple@$$V@1@U?$integer_sequence@I$0A@@1@U?$integer_sequence@I$S@1@@Z ; std::pair<int const ,CPythonSkill::SPetSkillData>::pair<int const ,CPythonSkill::SPetSkillData><std::tuple<int const &>,std::tuple<>,0>
PUBLIC	??$?0V?$tuple@ABK@std@@V?$tuple@$$V@1@$0A@$$Z$S@?$pair@$$CBKUSSkillData@CPythonSkill@@@std@@AAE@AAV?$tuple@ABK@1@AAV?$tuple@$$V@1@U?$integer_sequence@I$0A@@1@U?$integer_sequence@I$S@1@@Z ; std::pair<unsigned long const ,CPythonSkill::SSkillData>::pair<unsigned long const ,CPythonSkill::SSkillData><std::tuple<unsigned long const &>,std::tuple<>,0>
PUBLIC	??$?0V?$basic_string@DU?$char_traits@D@std@@V?$allocator@D@2@@std@@V01@$0A@@?$pair@$$CBV?$basic_string@DU?$char_traits@D@std@@V?$allocator@D@2@@std@@V12@@std@@QAE@$$QAU?$pair@V?$basic_string@DU?$char_traits@D@std@@V?$allocator@D@2@@std@@V12@@1@@Z ; std::pair<std::basic_string<char,std::char_traits<char>,std::allocator<char> > const ,std::basic_string<char,std::char_traits<char>,std::allocator<char> > >::pair<std::basic_string<char,std::char_traits<char>,std::allocator<char> > const ,std::basic_string<char,std::char_traits<char>,std::allocator<char> > ><std::basic_string<char,std::char_traits<char>,std::allocator<char> >,std::basic_string<char,std::char_traits<char>,std::allocator<char> >,0>
PUBLIC	??$?0V?$basic_string@DU?$char_traits@D@std@@V?$allocator@D@2@@std@@W4EPointTypes@@$0A@@?$pair@$$CBV?$basic_string@DU?$char_traits@D@std@@V?$allocator@D@2@@std@@K@std@@QAE@$$QAU?$pair@V?$basic_string@DU?$char_traits@D@std@@V?$allocator@D@2@@std@@W4EPointTypes@@@1@@Z ; std::pair<std::basic_string<char,std::char_traits<char>,std::allocator<char> > const ,unsigned long>::pair<std::basic_string<char,std::char_traits<char>,std::allocator<char> > const ,unsigned long><std::basic_string<char,std::char_traits<char>,std::allocator<char> >,enum EPointTypes,0>
PUBLIC	??$?0V?$basic_string@DU?$char_traits@D@std@@V?$allocator@D@2@@std@@W4EWeaponSubTypes@CItemData@@$0A@@?$pair@$$CBV?$basic_string@DU?$char_traits@D@std@@V?$allocator@D@2@@std@@K@std@@QAE@$$QAU?$pair@V?$basic_string@DU?$char_traits@D@std@@V?$allocator@D@2@@std@@W4EWeaponSubTypes@CItemData@@@1@@Z ; std::pair<std::basic_string<char,std::char_traits<char>,std::allocator<char> > const ,unsigned long>::pair<std::basic_string<char,std::char_traits<char>,std::allocator<char> > const ,unsigned long><std::basic_string<char,std::char_traits<char>,std::allocator<char> >,enum CItemData::EWeaponSubTypes,0>
PUBLIC	??$?0HUSPetSkillData@CPythonSkill@@$0A@@?$pair@$$CBHUSPetSkillData@CPythonSkill@@@std@@QAE@$$QAU?$pair@HUSPetSkillData@CPythonSkill@@@1@@Z ; std::pair<int const ,CPythonSkill::SPetSkillData>::pair<int const ,CPythonSkill::SPetSkillData><int,CPythonSkill::SPetSkillData,0>
PUBLIC	??$?0KUSSkillData@CPythonSkill@@$0A@@?$pair@$$CBKUSSkillData@CPythonSkill@@@std@@QAE@$$QAU?$pair@KUSSkillData@CPythonSkill@@@1@@Z ; std::pair<unsigned long const ,CPythonSkill::SSkillData>::pair<unsigned long const ,CPythonSkill::SSkillData><unsigned long,CPythonSkill::SSkillData,0>
PUBLIC	??0SAffectDataNew@CPythonSkill@@QAE@$$QAU01@@Z	; CPythonSkill::SAffectDataNew::SAffectDataNew
PUBLIC	?_Get_first@?$_Compressed_pair@V?$allocator@U?$_Tree_node@U?$pair@$$CBHUSPetSkillData@CPythonSkill@@@std@@PAX@std@@@std@@V?$_Tree_val@U?$_Tree_simple_types@U?$pair@$$CBHUSPetSkillData@CPythonSkill@@@std@@@std@@@2@$00@std@@QBEABV?$allocator@U?$_Tree_node@U?$pair@$$CBHUSPetSkillData@CPythonSkill@@@std@@PAX@std@@@2@XZ ; std::_Compressed_pair<std::allocator<std::_Tree_node<std::pair<int const ,CPythonSkill::SPetSkillData>,void *> >,std::_Tree_val<std::_Tree_simple_types<std::pair<int const ,CPythonSkill::SPetSkillData> > >,1>::_Get_first
PUBLIC	?max_size@?$_Default_allocator_traits@V?$allocator@USRequireStatData@CPythonSkill@@@std@@@std@@SAIABV?$allocator@USRequireStatData@CPythonSkill@@@2@@Z ; std::_Default_allocator_traits<std::allocator<CPythonSkill::SRequireStatData> >::max_size
PUBLIC	?_Get_first@?$_Compressed_pair@V?$allocator@U?$_Tree_node@U?$pair@$$CBKUSSkillData@CPythonSkill@@@std@@PAX@std@@@std@@V?$_Tree_val@U?$_Tree_simple_types@U?$pair@$$CBKUSSkillData@CPythonSkill@@@std@@@std@@@2@$00@std@@QBEABV?$allocator@U?$_Tree_node@U?$pair@$$CBKUSSkillData@CPythonSkill@@@std@@PAX@std@@@2@XZ ; std::_Compressed_pair<std::allocator<std::_Tree_node<std::pair<unsigned long const ,CPythonSkill::SSkillData>,void *> >,std::_Tree_val<std::_Tree_simple_types<std::pair<unsigned long const ,CPythonSkill::SSkillData> > >,1>::_Get_first
PUBLIC	?_Get_first@?$_Compressed_pair@V?$allocator@U?$_Tree_node@U?$pair@$$CBV?$basic_string@DU?$char_traits@D@std@@V?$allocator@D@2@@std@@K@std@@PAX@std@@@std@@V?$_Tree_val@U?$_Tree_simple_types@U?$pair@$$CBV?$basic_string@DU?$char_traits@D@std@@V?$allocator@D@2@@std@@K@std@@@std@@@2@$00@std@@QBEABV?$allocator@U?$_Tree_node@U?$pair@$$CBV?$basic_string@DU?$char_traits@D@std@@V?$allocator@D@2@@std@@K@std@@PAX@std@@@2@XZ ; std::_Compressed_pair<std::allocator<std::_Tree_node<std::pair<std::basic_string<char,std::char_traits<char>,std::allocator<char> > const ,unsigned long>,void *> >,std::_Tree_val<std::_Tree_simple_types<std::pair<std::basic_string<char,std::char_traits<char>,std::allocator<char> > const ,unsigned long> > >,1>::_Get_first
PUBLIC	?_Get_first@?$_Compressed_pair@V?$allocator@U?$_Tree_node@U?$pair@$$CBV?$basic_string@DU?$char_traits@D@std@@V?$allocator@D@2@@std@@V12@@std@@PAX@std@@@std@@V?$_Tree_val@U?$_Tree_simple_types@U?$pair@$$CBV?$basic_string@DU?$char_traits@D@std@@V?$allocator@D@2@@std@@V12@@std@@@std@@@2@$00@std@@QBEABV?$allocator@U?$_Tree_node@U?$pair@$$CBV?$basic_string@DU?$char_traits@D@std@@V?$allocator@D@2@@std@@V12@@std@@PAX@std@@@2@XZ ; std::_Compressed_pair<std::allocator<std::_Tree_node<std::pair<std::basic_string<char,std::char_traits<char>,std::allocator<char> > const ,std::basic_string<char,std::char_traits<char>,std::allocator<char> > >,void *> >,std::_Tree_val<std::_Tree_simple_types<std::pair<std::basic_string<char,std::char_traits<char>,std::allocator<char> > const ,std::basic_string<char,std::char_traits<char>,std::allocator<char> > > > >,1>::_Get_first
PUBLIC	??$_Get_size_of_n@$0GM@@std@@YAII@Z		; std::_Get_size_of_n<108>
PUBLIC	??$_Allocate_at_least_helper@V?$allocator@USRequireStatData@CPythonSkill@@@std@@@std@@YAPAUSRequireStatData@CPythonSkill@@AAV?$allocator@USRequireStatData@CPythonSkill@@@0@AAI@Z ; std::_Allocate_at_least_helper<std::allocator<CPythonSkill::SRequireStatData> >
PUBLIC	??$_Get_size_of_n@$0BPI@@std@@YAII@Z		; std::_Get_size_of_n<504>
PUBLIC	??$_Get_size_of_n@$0EA@@std@@YAII@Z		; std::_Get_size_of_n<64>
PUBLIC	??$construct_at@PAU?$_Tree_node@U?$pair@$$CBHUSPetSkillData@CPythonSkill@@@std@@PAX@std@@ABQAU12@@std@@YAPAPAU?$_Tree_node@U?$pair@$$CBHUSPetSkillData@CPythonSkill@@@std@@PAX@0@QAPAU10@ABQAU10@@Z ; std::construct_at<std::_Tree_node<std::pair<int const ,CPythonSkill::SPetSkillData>,void *> *,std::_Tree_node<std::pair<int const ,CPythonSkill::SPetSkillData>,void *> * const &>
PUBLIC	??$construct_at@PAU?$_Tree_node@U?$pair@$$CBKUSSkillData@CPythonSkill@@@std@@PAX@std@@ABQAU12@@std@@YAPAPAU?$_Tree_node@U?$pair@$$CBKUSSkillData@CPythonSkill@@@std@@PAX@0@QAPAU10@ABQAU10@@Z ; std::construct_at<std::_Tree_node<std::pair<unsigned long const ,CPythonSkill::SSkillData>,void *> *,std::_Tree_node<std::pair<unsigned long const ,CPythonSkill::SSkillData>,void *> * const &>
PUBLIC	??$construct_at@PAU?$_Tree_node@U?$pair@$$CBV?$basic_string@DU?$char_traits@D@std@@V?$allocator@D@2@@std@@K@std@@PAX@std@@ABQAU12@@std@@YAPAPAU?$_Tree_node@U?$pair@$$CBV?$basic_string@DU?$char_traits@D@std@@V?$allocator@D@2@@std@@K@std@@PAX@0@QAPAU10@ABQAU10@@Z ; std::construct_at<std::_Tree_node<std::pair<std::basic_string<char,std::char_traits<char>,std::allocator<char> > const ,unsigned long>,void *> *,std::_Tree_node<std::pair<std::basic_string<char,std::char_traits<char>,std::allocator<char> > const ,unsigned long>,void *> * const &>
PUBLIC	??$forward@ABQAU?$_Tree_node@U?$pair@$$CBV?$basic_string@DU?$char_traits@D@std@@V?$allocator@D@2@@std@@K@std@@PAX@std@@@std@@YAABQAU?$_Tree_node@U?$pair@$$CBV?$basic_string@DU?$char_traits@D@std@@V?$allocator@D@2@@std@@K@std@@PAX@0@ABQAU10@@Z ; std::forward<std::_Tree_node<std::pair<std::basic_string<char,std::char_traits<char>,std::allocator<char> > const ,unsigned long>,void *> * const &>
PUBLIC	??$construct_at@PAU?$_Tree_node@U?$pair@$$CBV?$basic_string@DU?$char_traits@D@std@@V?$allocator@D@2@@std@@V12@@std@@PAX@std@@ABQAU12@@std@@YAPAPAU?$_Tree_node@U?$pair@$$CBV?$basic_string@DU?$char_traits@D@std@@V?$allocator@D@2@@std@@V12@@std@@PAX@0@QAPAU10@ABQAU10@@Z ; std::construct_at<std::_Tree_node<std::pair<std::basic_string<char,std::char_traits<char>,std::allocator<char> > const ,std::basic_string<char,std::char_traits<char>,std::allocator<char> > >,void *> *,std::_Tree_node<std::pair<std::basic_string<char,std::char_traits<char>,std::allocator<char> > const ,std::basic_string<char,std::char_traits<char>,std::allocator<char> > >,void *> * const &>
PUBLIC	??$construct@USAffectData@CPythonSkill@@AAU12@@?$_Default_allocator_traits@V?$allocator@USAffectData@CPythonSkill@@@std@@@std@@SAXAAV?$allocator@USAffectData@CPythonSkill@@@1@QAUSAffectData@CPythonSkill@@AAU34@@Z ; std::_Default_allocator_traits<std::allocator<CPythonSkill::SAffectData> >::construct<CPythonSkill::SAffectData,CPythonSkill::SAffectData &>
PUBLIC	??$forward@AAUSAffectData@CPythonSkill@@@std@@YAAAUSAffectData@CPythonSkill@@AAU12@@Z ; std::forward<CPythonSkill::SAffectData &>
PUBLIC	??$construct@USAffectDataNew@CPythonSkill@@AAU12@@?$_Default_allocator_traits@V?$allocator@USAffectDataNew@CPythonSkill@@@std@@@std@@SAXAAV?$allocator@USAffectDataNew@CPythonSkill@@@1@QAUSAffectDataNew@CPythonSkill@@AAU34@@Z ; std::_Default_allocator_traits<std::allocator<CPythonSkill::SAffectDataNew> >::construct<CPythonSkill::SAffectDataNew,CPythonSkill::SAffectDataNew &>
PUBLIC	??$forward@AAUSAffectDataNew@CPythonSkill@@@std@@YAAAUSAffectDataNew@CPythonSkill@@AAU12@@Z ; std::forward<CPythonSkill::SAffectDataNew &>
PUBLIC	??$construct@USRequireStatData@CPythonSkill@@AAU12@@?$_Default_allocator_traits@V?$allocator@USRequireStatData@CPythonSkill@@@std@@@std@@SAXAAV?$allocator@USRequireStatData@CPythonSkill@@@1@QAUSRequireStatData@CPythonSkill@@AAU34@@Z ; std::_Default_allocator_traits<std::allocator<CPythonSkill::SRequireStatData> >::construct<CPythonSkill::SRequireStatData,CPythonSkill::SRequireStatData &>
PUBLIC	??$forward@AAUSRequireStatData@CPythonSkill@@@std@@YAAAUSRequireStatData@CPythonSkill@@AAU12@@Z ; std::forward<CPythonSkill::SRequireStatData &>
PUBLIC	??$_Copy_memmove_tail@PAUSRequireStatData@CPythonSkill@@@std@@YAPAUSRequireStatData@CPythonSkill@@QBDQAU12@II@Z ; std::_Copy_memmove_tail<CPythonSkill::SRequireStatData *>
PUBLIC	??$construct_at@V?$basic_string@DU?$char_traits@D@std@@V?$allocator@D@2@@std@@$$V@std@@YAPAV?$basic_string@DU?$char_traits@D@std@@V?$allocator@D@2@@0@QAV10@@Z ; std::construct_at<std::basic_string<char,std::char_traits<char>,std::allocator<char> > >
PUBLIC	??$construct_at@USAffectData@CPythonSkill@@$$V@std@@YAPAUSAffectData@CPythonSkill@@QAU12@@Z ; std::construct_at<CPythonSkill::SAffectData>
PUBLIC	??$construct_at@USAffectDataNew@CPythonSkill@@U12@@std@@YAPAUSAffectDataNew@CPythonSkill@@QAU12@$$QAU12@@Z ; std::construct_at<CPythonSkill::SAffectDataNew,CPythonSkill::SAffectDataNew>
PUBLIC	??$construct_at@U?$pair@$$CBV?$basic_string@DU?$char_traits@D@std@@V?$allocator@D@2@@std@@V12@@std@@U?$pair@V?$basic_string@DU?$char_traits@D@std@@V?$allocator@D@2@@std@@V12@@2@@std@@YAPAU?$pair@$$CBV?$basic_string@DU?$char_traits@D@std@@V?$allocator@D@2@@std@@V12@@0@QAU10@$$QAU?$pair@V?$basic_string@DU?$char_traits@D@std@@V?$allocator@D@2@@std@@V12@@0@@Z ; std::construct_at<std::pair<std::basic_string<char,std::char_traits<char>,std::allocator<char> > const ,std::basic_string<char,std::char_traits<char>,std::allocator<char> > >,std::pair<std::basic_string<char,std::char_traits<char>,std::allocator<char> >,std::basic_string<char,std::char_traits<char>,std::allocator<char> > > >
PUBLIC	??$construct_at@U?$pair@$$CBV?$basic_string@DU?$char_traits@D@std@@V?$allocator@D@2@@std@@K@std@@U?$pair@V?$basic_string@DU?$char_traits@D@std@@V?$allocator@D@2@@std@@W4EPointTypes@@@2@@std@@YAPAU?$pair@$$CBV?$basic_string@DU?$char_traits@D@std@@V?$allocator@D@2@@std@@K@0@QAU10@$$QAU?$pair@V?$basic_string@DU?$char_traits@D@std@@V?$allocator@D@2@@std@@W4EPointTypes@@@0@@Z ; std::construct_at<std::pair<std::basic_string<char,std::char_traits<char>,std::allocator<char> > const ,unsigned long>,std::pair<std::basic_string<char,std::char_traits<char>,std::allocator<char> >,enum EPointTypes> >
PUBLIC	??$construct_at@U?$pair@$$CBV?$basic_string@DU?$char_traits@D@std@@V?$allocator@D@2@@std@@K@std@@U?$pair@V?$basic_string@DU?$char_traits@D@std@@V?$allocator@D@2@@std@@W4EWeaponSubTypes@CItemData@@@2@@std@@YAPAU?$pair@$$CBV?$basic_string@DU?$char_traits@D@std@@V?$allocator@D@2@@std@@K@0@QAU10@$$QAU?$pair@V?$basic_string@DU?$char_traits@D@std@@V?$allocator@D@2@@std@@W4EWeaponSubTypes@CItemData@@@0@@Z ; std::construct_at<std::pair<std::basic_string<char,std::char_traits<char>,std::allocator<char> > const ,unsigned long>,std::pair<std::basic_string<char,std::char_traits<char>,std::allocator<char> >,enum CItemData::EWeaponSubTypes> >
PUBLIC	??$construct_at@U?$pair@$$CBHUSPetSkillData@CPythonSkill@@@std@@U?$pair@HUSPetSkillData@CPythonSkill@@@2@@std@@YAPAU?$pair@$$CBHUSPetSkillData@CPythonSkill@@@0@QAU10@$$QAU?$pair@HUSPetSkillData@CPythonSkill@@@0@@Z ; std::construct_at<std::pair<int const ,CPythonSkill::SPetSkillData>,std::pair<int,CPythonSkill::SPetSkillData> >
PUBLIC	??$construct_at@U?$pair@$$CBKUSSkillData@CPythonSkill@@@std@@U?$pair@KUSSkillData@CPythonSkill@@@2@@std@@YAPAU?$pair@$$CBKUSSkillData@CPythonSkill@@@0@QAU10@$$QAU?$pair@KUSSkillData@CPythonSkill@@@0@@Z ; std::construct_at<std::pair<unsigned long const ,CPythonSkill::SSkillData>,std::pair<unsigned long,CPythonSkill::SSkillData> >
PUBLIC	??$?0ABV?$basic_string@DU?$char_traits@D@std@@V?$allocator@D@2@@std@@$$Z$$V@?$pair@$$CBV?$basic_string@DU?$char_traits@D@std@@V?$allocator@D@2@@std@@V12@@std@@QAE@Upiecewise_construct_t@1@V?$tuple@ABV?$basic_string@DU?$char_traits@D@std@@V?$allocator@D@2@@std@@@1@V?$tuple@$$V@1@@Z ; std::pair<std::basic_string<char,std::char_traits<char>,std::allocator<char> > const ,std::basic_string<char,std::char_traits<char>,std::allocator<char> > >::pair<std::basic_string<char,std::char_traits<char>,std::allocator<char> > const ,std::basic_string<char,std::char_traits<char>,std::allocator<char> > ><std::basic_string<char,std::char_traits<char>,std::allocator<char> > const &>
PUBLIC	??$?0ABH$$Z$$V@?$pair@$$CBHUSPetSkillData@CPythonSkill@@@std@@QAE@Upiecewise_construct_t@1@V?$tuple@ABH@1@V?$tuple@$$V@1@@Z ; std::pair<int const ,CPythonSkill::SPetSkillData>::pair<int const ,CPythonSkill::SPetSkillData><int const &>
PUBLIC	??$?0ABK$$Z$$V@?$pair@$$CBKUSSkillData@CPythonSkill@@@std@@QAE@Upiecewise_construct_t@1@V?$tuple@ABK@1@V?$tuple@$$V@1@@Z ; std::pair<unsigned long const ,CPythonSkill::SSkillData>::pair<unsigned long const ,CPythonSkill::SSkillData><unsigned long const &>
PUBLIC	??_G?$pair@$$CBV?$basic_string@DU?$char_traits@D@std@@V?$allocator@D@2@@std@@K@std@@QAEPAXI@Z ; std::pair<std::basic_string<char,std::char_traits<char>,std::allocator<char> > const ,unsigned long>::`scalar deleting destructor'
PUBLIC	??_G?$pair@$$CBHUSPetSkillData@CPythonSkill@@@std@@QAEPAXI@Z ; std::pair<int const ,CPythonSkill::SPetSkillData>::`scalar deleting destructor'
PUBLIC	??_G?$pair@$$CBKUSSkillData@CPythonSkill@@@std@@QAEPAXI@Z ; std::pair<unsigned long const ,CPythonSkill::SSkillData>::`scalar deleting destructor'
PUBLIC	??0?$pair@$$CBV?$basic_string@DU?$char_traits@D@std@@V?$allocator@D@2@@std@@K@std@@QAE@$$QAU01@@Z ; std::pair<std::basic_string<char,std::char_traits<char>,std::allocator<char> > const ,unsigned long>::pair<std::basic_string<char,std::char_traits<char>,std::allocator<char> > const ,unsigned long>
PUBLIC	??0?$pair@$$CBKUSSkillData@CPythonSkill@@@std@@QAE@$$QAU01@@Z ; std::pair<unsigned long const ,CPythonSkill::SSkillData>::pair<unsigned long const ,CPythonSkill::SSkillData>
PUBLIC	??0?$_Vector_val@U?$_Simple_types@V?$basic_string@DU?$char_traits@D@std@@V?$allocator@D@2@@std@@@std@@@std@@QAE@PAV?$basic_string@DU?$char_traits@D@std@@V?$allocator@D@2@@1@00@Z ; std::_Vector_val<std::_Simple_types<std::basic_string<char,std::char_traits<char>,std::allocator<char> > > >::_Vector_val<std::_Simple_types<std::basic_string<char,std::char_traits<char>,std::allocator<char> > > >
PUBLIC	?_Getal@?$_Tree@V?$_Tmap_traits@HUSPetSkillData@CPythonSkill@@U?$less@H@std@@V?$allocator@U?$pair@$$CBHUSPetSkillData@CPythonSkill@@@std@@@4@$0A@@std@@@std@@IBEABV?$allocator@U?$_Tree_node@U?$pair@$$CBHUSPetSkillData@CPythonSkill@@@std@@PAX@std@@@2@XZ ; std::_Tree<std::_Tmap_traits<int,CPythonSkill::SPetSkillData,std::less<int>,std::allocator<std::pair<int const ,CPythonSkill::SPetSkillData> >,0> >::_Getal
PUBLIC	??0?$allocator@U?$_Tree_node@U?$pair@$$CBHUSPetSkillData@CPythonSkill@@@std@@PAX@std@@@std@@QAE@XZ ; std::allocator<std::_Tree_node<std::pair<int const ,CPythonSkill::SPetSkillData>,void *> >::allocator<std::_Tree_node<std::pair<int const ,CPythonSkill::SPetSkillData>,void *> >
PUBLIC	?deallocate@?$allocator@U?$_Tree_node@U?$pair@$$CBHUSPetSkillData@CPythonSkill@@@std@@PAX@std@@@std@@QAEXQAU?$_Tree_node@U?$pair@$$CBHUSPetSkillData@CPythonSkill@@@std@@PAX@2@I@Z ; std::allocator<std::_Tree_node<std::pair<int const ,CPythonSkill::SPetSkillData>,void *> >::deallocate
PUBLIC	?allocate@?$allocator@U?$_Tree_node@U?$pair@$$CBHUSPetSkillData@CPythonSkill@@@std@@PAX@std@@@std@@QAEPAU?$_Tree_node@U?$pair@$$CBHUSPetSkillData@CPythonSkill@@@std@@PAX@2@I@Z ; std::allocator<std::_Tree_node<std::pair<int const ,CPythonSkill::SPetSkillData>,void *> >::allocate
PUBLIC	?max_size@?$_Default_allocator_traits@V?$allocator@U?$_Tree_node@U?$pair@$$CBHUSPetSkillData@CPythonSkill@@@std@@PAX@std@@@std@@@std@@SAIABV?$allocator@U?$_Tree_node@U?$pair@$$CBHUSPetSkillData@CPythonSkill@@@std@@PAX@std@@@2@@Z ; std::_Default_allocator_traits<std::allocator<std::_Tree_node<std::pair<int const ,CPythonSkill::SPetSkillData>,void *> > >::max_size
PUBLIC	??0?$_Tree_val@U?$_Tree_simple_types@U?$pair@$$CBHUSPetSkillData@CPythonSkill@@@std@@@std@@@std@@QAE@XZ ; std::_Tree_val<std::_Tree_simple_types<std::pair<int const ,CPythonSkill::SPetSkillData> > >::_Tree_val<std::_Tree_simple_types<std::pair<int const ,CPythonSkill::SPetSkillData> > >
PUBLIC	?_Get_first@?$_Compressed_pair@U?$less@H@std@@V?$_Compressed_pair@V?$allocator@U?$_Tree_node@U?$pair@$$CBHUSPetSkillData@CPythonSkill@@@std@@PAX@std@@@std@@V?$_Tree_val@U?$_Tree_simple_types@U?$pair@$$CBHUSPetSkillData@CPythonSkill@@@std@@@std@@@2@$00@2@$00@std@@QBEABU?$less@H@2@XZ ; std::_Compressed_pair<std::less<int>,std::_Compressed_pair<std::allocator<std::_Tree_node<std::pair<int const ,CPythonSkill::SPetSkillData>,void *> >,std::_Tree_val<std::_Tree_simple_types<std::pair<int const ,CPythonSkill::SPetSkillData> > >,1>,1>::_Get_first
PUBLIC	?allocate@?$allocator@USAffectData@CPythonSkill@@@std@@QAEPAUSAffectData@CPythonSkill@@I@Z ; std::allocator<CPythonSkill::SAffectData>::allocate
PUBLIC	?capacity@?$vector@USAffectData@CPythonSkill@@V?$allocator@USAffectData@CPythonSkill@@@std@@@std@@QBEIXZ ; std::vector<CPythonSkill::SAffectData,std::allocator<CPythonSkill::SAffectData> >::capacity
PUBLIC	?_Buy_raw@?$vector@USAffectData@CPythonSkill@@V?$allocator@USAffectData@CPythonSkill@@@std@@@std@@AAEXI@Z ; std::vector<CPythonSkill::SAffectData,std::allocator<CPythonSkill::SAffectData> >::_Buy_raw
PUBLIC	?max_size@?$_Default_allocator_traits@V?$allocator@USAffectData@CPythonSkill@@@std@@@std@@SAIABV?$allocator@USAffectData@CPythonSkill@@@2@@Z ; std::_Default_allocator_traits<std::allocator<CPythonSkill::SAffectData> >::max_size
PUBLIC	??0?$_Vector_val@U?$_Simple_types@USAffectData@CPythonSkill@@@std@@@std@@QAE@PAUSAffectData@CPythonSkill@@00@Z ; std::_Vector_val<std::_Simple_types<CPythonSkill::SAffectData> >::_Vector_val<std::_Simple_types<CPythonSkill::SAffectData> >
PUBLIC	?_Buy_raw@?$vector@USAffectDataNew@CPythonSkill@@V?$allocator@USAffectDataNew@CPythonSkill@@@std@@@std@@AAEXI@Z ; std::vector<CPythonSkill::SAffectDataNew,std::allocator<CPythonSkill::SAffectDataNew> >::_Buy_raw
PUBLIC	??0?$_Vector_val@U?$_Simple_types@USAffectDataNew@CPythonSkill@@@std@@@std@@QAE@PAUSAffectDataNew@CPythonSkill@@00@Z ; std::_Vector_val<std::_Simple_types<CPythonSkill::SAffectDataNew> >::_Vector_val<std::_Simple_types<CPythonSkill::SAffectDataNew> >
PUBLIC	?max_size@?$vector@USRequireStatData@CPythonSkill@@V?$allocator@USRequireStatData@CPythonSkill@@@std@@@std@@QBEIXZ ; std::vector<CPythonSkill::SRequireStatData,std::allocator<CPythonSkill::SRequireStatData> >::max_size
PUBLIC	?_Buy_raw@?$vector@USRequireStatData@CPythonSkill@@V?$allocator@USRequireStatData@CPythonSkill@@@std@@@std@@AAEXI@Z ; std::vector<CPythonSkill::SRequireStatData,std::allocator<CPythonSkill::SRequireStatData> >::_Buy_raw
PUBLIC	?_Xlength@?$vector@USRequireStatData@CPythonSkill@@V?$allocator@USRequireStatData@CPythonSkill@@@std@@@std@@CAXXZ ; std::vector<CPythonSkill::SRequireStatData,std::allocator<CPythonSkill::SRequireStatData> >::_Xlength
PUBLIC	??0?$_Vector_val@U?$_Simple_types@USRequireStatData@CPythonSkill@@@std@@@std@@QAE@PAUSRequireStatData@CPythonSkill@@00@Z ; std::_Vector_val<std::_Simple_types<CPythonSkill::SRequireStatData> >::_Vector_val<std::_Simple_types<CPythonSkill::SRequireStatData> >
PUBLIC	?_Getal@?$_Tree@V?$_Tmap_traits@KUSSkillData@CPythonSkill@@U?$less@K@std@@V?$allocator@U?$pair@$$CBKUSSkillData@CPythonSkill@@@std@@@4@$0A@@std@@@std@@IBEABV?$allocator@U?$_Tree_node@U?$pair@$$CBKUSSkillData@CPythonSkill@@@std@@PAX@std@@@2@XZ ; std::_Tree<std::_Tmap_traits<unsigned long,CPythonSkill::SSkillData,std::less<unsigned long>,std::allocator<std::pair<unsigned long const ,CPythonSkill::SSkillData> >,0> >::_Getal
PUBLIC	??0?$allocator@U?$_Tree_node@U?$pair@$$CBKUSSkillData@CPythonSkill@@@std@@PAX@std@@@std@@QAE@XZ ; std::allocator<std::_Tree_node<std::pair<unsigned long const ,CPythonSkill::SSkillData>,void *> >::allocator<std::_Tree_node<std::pair<unsigned long const ,CPythonSkill::SSkillData>,void *> >
PUBLIC	?deallocate@?$allocator@U?$_Tree_node@U?$pair@$$CBKUSSkillData@CPythonSkill@@@std@@PAX@std@@@std@@QAEXQAU?$_Tree_node@U?$pair@$$CBKUSSkillData@CPythonSkill@@@std@@PAX@2@I@Z ; std::allocator<std::_Tree_node<std::pair<unsigned long const ,CPythonSkill::SSkillData>,void *> >::deallocate
PUBLIC	?allocate@?$allocator@U?$_Tree_node@U?$pair@$$CBKUSSkillData@CPythonSkill@@@std@@PAX@std@@@std@@QAEPAU?$_Tree_node@U?$pair@$$CBKUSSkillData@CPythonSkill@@@std@@PAX@2@I@Z ; std::allocator<std::_Tree_node<std::pair<unsigned long const ,CPythonSkill::SSkillData>,void *> >::allocate
PUBLIC	?max_size@?$_Default_allocator_traits@V?$allocator@U?$_Tree_node@U?$pair@$$CBKUSSkillData@CPythonSkill@@@std@@PAX@std@@@std@@@std@@SAIABV?$allocator@U?$_Tree_node@U?$pair@$$CBKUSSkillData@CPythonSkill@@@std@@PAX@std@@@2@@Z ; std::_Default_allocator_traits<std::allocator<std::_Tree_node<std::pair<unsigned long const ,CPythonSkill::SSkillData>,void *> > >::max_size
PUBLIC	??0?$_Tree_val@U?$_Tree_simple_types@U?$pair@$$CBKUSSkillData@CPythonSkill@@@std@@@std@@@std@@QAE@XZ ; std::_Tree_val<std::_Tree_simple_types<std::pair<unsigned long const ,CPythonSkill::SSkillData> > >::_Tree_val<std::_Tree_simple_types<std::pair<unsigned long const ,CPythonSkill::SSkillData> > >
PUBLIC	?_Get_first@?$_Compressed_pair@U?$less@K@std@@V?$_Compressed_pair@V?$allocator@U?$_Tree_node@U?$pair@$$CBKUSSkillData@CPythonSkill@@@std@@PAX@std@@@std@@V?$_Tree_val@U?$_Tree_simple_types@U?$pair@$$CBKUSSkillData@CPythonSkill@@@std@@@std@@@2@$00@2@$00@std@@QBEABU?$less@K@2@XZ ; std::_Compressed_pair<std::less<unsigned long>,std::_Compressed_pair<std::allocator<std::_Tree_node<std::pair<unsigned long const ,CPythonSkill::SSkillData>,void *> >,std::_Tree_val<std::_Tree_simple_types<std::pair<unsigned long const ,CPythonSkill::SSkillData> > >,1>,1>::_Get_first
PUBLIC	?_Getal@?$_Tree@V?$_Tmap_traits@V?$basic_string@DU?$char_traits@D@std@@V?$allocator@D@2@@std@@KU?$less@V?$basic_string@DU?$char_traits@D@std@@V?$allocator@D@2@@std@@@2@V?$allocator@U?$pair@$$CBV?$basic_string@DU?$char_traits@D@std@@V?$allocator@D@2@@std@@K@std@@@2@$0A@@std@@@std@@IBEABV?$allocator@U?$_Tree_node@U?$pair@$$CBV?$basic_string@DU?$char_traits@D@std@@V?$allocator@D@2@@std@@K@std@@PAX@std@@@2@XZ ; std::_Tree<std::_Tmap_traits<std::basic_string<char,std::char_traits<char>,std::allocator<char> >,unsigned long,std::less<std::basic_string<char,std::char_traits<char>,std::allocator<char> > >,std::allocator<std::pair<std::basic_string<char,std::char_traits<char>,std::allocator<char> > const ,unsigned long> >,0> >::_Getal
PUBLIC	??0?$allocator@U?$_Tree_node@U?$pair@$$CBV?$basic_string@DU?$char_traits@D@std@@V?$allocator@D@2@@std@@K@std@@PAX@std@@@std@@QAE@XZ ; std::allocator<std::_Tree_node<std::pair<std::basic_string<char,std::char_traits<char>,std::allocator<char> > const ,unsigned long>,void *> >::allocator<std::_Tree_node<std::pair<std::basic_string<char,std::char_traits<char>,std::allocator<char> > const ,unsigned long>,void *> >
PUBLIC	?deallocate@?$allocator@U?$_Tree_node@U?$pair@$$CBV?$basic_string@DU?$char_traits@D@std@@V?$allocator@D@2@@std@@K@std@@PAX@std@@@std@@QAEXQAU?$_Tree_node@U?$pair@$$CBV?$basic_string@DU?$char_traits@D@std@@V?$allocator@D@2@@std@@K@std@@PAX@2@I@Z ; std::allocator<std::_Tree_node<std::pair<std::basic_string<char,std::char_traits<char>,std::allocator<char> > const ,unsigned long>,void *> >::deallocate
PUBLIC	?allocate@?$allocator@U?$_Tree_node@U?$pair@$$CBV?$basic_string@DU?$char_traits@D@std@@V?$allocator@D@2@@std@@K@std@@PAX@std@@@std@@QAEPAU?$_Tree_node@U?$pair@$$CBV?$basic_string@DU?$char_traits@D@std@@V?$allocator@D@2@@std@@K@std@@PAX@2@I@Z ; std::allocator<std::_Tree_node<std::pair<std::basic_string<char,std::char_traits<char>,std::allocator<char> > const ,unsigned long>,void *> >::allocate
PUBLIC	?max_size@?$_Default_allocator_traits@V?$allocator@U?$_Tree_node@U?$pair@$$CBV?$basic_string@DU?$char_traits@D@std@@V?$allocator@D@2@@std@@K@std@@PAX@std@@@std@@@std@@SAIABV?$allocator@U?$_Tree_node@U?$pair@$$CBV?$basic_string@DU?$char_traits@D@std@@V?$allocator@D@2@@std@@K@std@@PAX@std@@@2@@Z ; std::_Default_allocator_traits<std::allocator<std::_Tree_node<std::pair<std::basic_string<char,std::char_traits<char>,std::allocator<char> > const ,unsigned long>,void *> > >::max_size
PUBLIC	??0?$_Tree_val@U?$_Tree_simple_types@U?$pair@$$CBV?$basic_string@DU?$char_traits@D@std@@V?$allocator@D@2@@std@@K@std@@@std@@@std@@QAE@XZ ; std::_Tree_val<std::_Tree_simple_types<std::pair<std::basic_string<char,std::char_traits<char>,std::allocator<char> > const ,unsigned long> > >::_Tree_val<std::_Tree_simple_types<std::pair<std::basic_string<char,std::char_traits<char>,std::allocator<char> > const ,unsigned long> > >
PUBLIC	?_Get_first@?$_Compressed_pair@U?$less@V?$basic_string@DU?$char_traits@D@std@@V?$allocator@D@2@@std@@@std@@V?$_Compressed_pair@V?$allocator@U?$_Tree_node@U?$pair@$$CBV?$basic_string@DU?$char_traits@D@std@@V?$allocator@D@2@@std@@K@std@@PAX@std@@@std@@V?$_Tree_val@U?$_Tree_simple_types@U?$pair@$$CBV?$basic_string@DU?$char_traits@D@std@@V?$allocator@D@2@@std@@K@std@@@std@@@2@$00@2@$00@std@@QBEABU?$less@V?$basic_string@DU?$char_traits@D@std@@V?$allocator@D@2@@std@@@2@XZ ; std::_Compressed_pair<std::less<std::basic_string<char,std::char_traits<char>,std::allocator<char> > >,std::_Compressed_pair<std::allocator<std::_Tree_node<std::pair<std::basic_string<char,std::char_traits<char>,std::allocator<char> > const ,unsigned long>,void *> >,std::_Tree_val<std::_Tree_simple_types<std::pair<std::basic_string<char,std::char_traits<char>,std::allocator<char> > const ,unsigned long> > >,1>,1>::_Get_first
PUBLIC	?_Getal@?$_Tree@V?$_Tmap_traits@V?$basic_string@DU?$char_traits@D@std@@V?$allocator@D@2@@std@@V12@U?$less@V?$basic_string@DU?$char_traits@D@std@@V?$allocator@D@2@@std@@@2@V?$allocator@U?$pair@$$CBV?$basic_string@DU?$char_traits@D@std@@V?$allocator@D@2@@std@@V12@@std@@@2@$0A@@std@@@std@@IBEABV?$allocator@U?$_Tree_node@U?$pair@$$CBV?$basic_string@DU?$char_traits@D@std@@V?$allocator@D@2@@std@@V12@@std@@PAX@std@@@2@XZ ; std::_Tree<std::_Tmap_traits<std::basic_string<char,std::char_traits<char>,std::allocator<char> >,std::basic_string<char,std::char_traits<char>,std::allocator<char> >,std::less<std::basic_string<char,std::char_traits<char>,std::allocator<char> > >,std::allocator<std::pair<std::basic_string<char,std::char_traits<char>,std::allocator<char> > const ,std::basic_string<char,std::char_traits<char>,std::allocator<char> > > >,0> >::_Getal
PUBLIC	??0?$allocator@U?$_Tree_node@U?$pair@$$CBV?$basic_string@DU?$char_traits@D@std@@V?$allocator@D@2@@std@@V12@@std@@PAX@std@@@std@@QAE@XZ ; std::allocator<std::_Tree_node<std::pair<std::basic_string<char,std::char_traits<char>,std::allocator<char> > const ,std::basic_string<char,std::char_traits<char>,std::allocator<char> > >,void *> >::allocator<std::_Tree_node<std::pair<std::basic_string<char,std::char_traits<char>,std::allocator<char> > const ,std::basic_string<char,std::char_traits<char>,std::allocator<char> > >,void *> >
PUBLIC	?deallocate@?$allocator@U?$_Tree_node@U?$pair@$$CBV?$basic_string@DU?$char_traits@D@std@@V?$allocator@D@2@@std@@V12@@std@@PAX@std@@@std@@QAEXQAU?$_Tree_node@U?$pair@$$CBV?$basic_string@DU?$char_traits@D@std@@V?$allocator@D@2@@std@@V12@@std@@PAX@2@I@Z ; std::allocator<std::_Tree_node<std::pair<std::basic_string<char,std::char_traits<char>,std::allocator<char> > const ,std::basic_string<char,std::char_traits<char>,std::allocator<char> > >,void *> >::deallocate
PUBLIC	?allocate@?$allocator@U?$_Tree_node@U?$pair@$$CBV?$basic_string@DU?$char_traits@D@std@@V?$allocator@D@2@@std@@V12@@std@@PAX@std@@@std@@QAEPAU?$_Tree_node@U?$pair@$$CBV?$basic_string@DU?$char_traits@D@std@@V?$allocator@D@2@@std@@V12@@std@@PAX@2@I@Z ; std::allocator<std::_Tree_node<std::pair<std::basic_string<char,std::char_traits<char>,std::allocator<char> > const ,std::basic_string<char,std::char_traits<char>,std::allocator<char> > >,void *> >::allocate
PUBLIC	?max_size@?$_Default_allocator_traits@V?$allocator@U?$_Tree_node@U?$pair@$$CBV?$basic_string@DU?$char_traits@D@std@@V?$allocator@D@2@@std@@V12@@std@@PAX@std@@@std@@@std@@SAIABV?$allocator@U?$_Tree_node@U?$pair@$$CBV?$basic_string@DU?$char_traits@D@std@@V?$allocator@D@2@@std@@V12@@std@@PAX@std@@@2@@Z ; std::_Default_allocator_traits<std::allocator<std::_Tree_node<std::pair<std::basic_string<char,std::char_traits<char>,std::allocator<char> > const ,std::basic_string<char,std::char_traits<char>,std::allocator<char> > >,void *> > >::max_size
PUBLIC	??0?$_Tree_val@U?$_Tree_simple_types@U?$pair@$$CBV?$basic_string@DU?$char_traits@D@std@@V?$allocator@D@2@@std@@V12@@std@@@std@@@std@@QAE@XZ ; std::_Tree_val<std::_Tree_simple_types<std::pair<std::basic_string<char,std::char_traits<char>,std::allocator<char> > const ,std::basic_string<char,std::char_traits<char>,std::allocator<char> > > > >::_Tree_val<std::_Tree_simple_types<std::pair<std::basic_string<char,std::char_traits<char>,std::allocator<char> > const ,std::basic_string<char,std::char_traits<char>,std::allocator<char> > > > >
PUBLIC	?_Get_first@?$_Compressed_pair@U?$less@V?$basic_string@DU?$char_traits@D@std@@V?$allocator@D@2@@std@@@std@@V?$_Compressed_pair@V?$allocator@U?$_Tree_node@U?$pair@$$CBV?$basic_string@DU?$char_traits@D@std@@V?$allocator@D@2@@std@@V12@@std@@PAX@std@@@std@@V?$_Tree_val@U?$_Tree_simple_types@U?$pair@$$CBV?$basic_string@DU?$char_traits@D@std@@V?$allocator@D@2@@std@@V12@@std@@@std@@@2@$00@2@$00@std@@QBEABU?$less@V?$basic_string@DU?$char_traits@D@std@@V?$allocator@D@2@@std@@@2@XZ ; std::_Compressed_pair<std::less<std::basic_string<char,std::char_traits<char>,std::allocator<char> > >,std::_Compressed_pair<std::allocator<std::_Tree_node<std::pair<std::basic_string<char,std::char_traits<char>,std::allocator<char> > const ,std::basic_string<char,std::char_traits<char>,std::allocator<char> > >,void *> >,std::_Tree_val<std::_Tree_simple_types<std::pair<std::basic_string<char,std::char_traits<char>,std::allocator<char> > const ,std::basic_string<char,std::char_traits<char>,std::allocator<char> > > > >,1>,1>::_Get_first
PUBLIC	??0?$_Alloc_construct_ptr@V?$allocator@U?$_Tree_node@U?$pair@$$CBKUSSkillData@CPythonSkill@@@std@@PAX@std@@@std@@@std@@QAE@AAV?$allocator@U?$_Tree_node@U?$pair@$$CBKUSSkillData@CPythonSkill@@@std@@PAX@std@@@1@@Z ; std::_Alloc_construct_ptr<std::allocator<std::_Tree_node<std::pair<unsigned long const ,CPythonSkill::SSkillData>,void *> > >::_Alloc_construct_ptr<std::allocator<std::_Tree_node<std::pair<unsigned long const ,CPythonSkill::SSkillData>,void *> > >
PUBLIC	?_Allocate@?$_Alloc_construct_ptr@V?$allocator@U?$_Tree_node@U?$pair@$$CBKUSSkillData@CPythonSkill@@@std@@PAX@std@@@std@@@std@@QAEXXZ ; std::_Alloc_construct_ptr<std::allocator<std::_Tree_node<std::pair<unsigned long const ,CPythonSkill::SSkillData>,void *> > >::_Allocate
PUBLIC	??0?$_Alloc_construct_ptr@V?$allocator@U?$_Tree_node@U?$pair@$$CBV?$basic_string@DU?$char_traits@D@std@@V?$allocator@D@2@@std@@K@std@@PAX@std@@@std@@@std@@QAE@AAV?$allocator@U?$_Tree_node@U?$pair@$$CBV?$basic_string@DU?$char_traits@D@std@@V?$allocator@D@2@@std@@K@std@@PAX@std@@@1@@Z ; std::_Alloc_construct_ptr<std::allocator<std::_Tree_node<std::pair<std::basic_string<char,std::char_traits<char>,std::allocator<char> > const ,unsigned long>,void *> > >::_Alloc_construct_ptr<std::allocator<std::_Tree_node<std::pair<std::basic_string<char,std::char_traits<char>,std::allocator<char> > const ,unsigned long>,void *> > >
PUBLIC	?_Allocate@?$_Alloc_construct_ptr@V?$allocator@U?$_Tree_node@U?$pair@$$CBV?$basic_string@DU?$char_traits@D@std@@V?$allocator@D@2@@std@@K@std@@PAX@std@@@std@@@std@@QAEXXZ ; std::_Alloc_construct_ptr<std::allocator<std::_Tree_node<std::pair<std::basic_string<char,std::char_traits<char>,std::allocator<char> > const ,unsigned long>,void *> > >::_Allocate
PUBLIC	??0?$_Alloc_construct_ptr@V?$allocator@U?$_Tree_node@U?$pair@$$CBHUSPetSkillData@CPythonSkill@@@std@@PAX@std@@@std@@@std@@QAE@AAV?$allocator@U?$_Tree_node@U?$pair@$$CBHUSPetSkillData@CPythonSkill@@@std@@PAX@std@@@1@@Z ; std::_Alloc_construct_ptr<std::allocator<std::_Tree_node<std::pair<int const ,CPythonSkill::SPetSkillData>,void *> > >::_Alloc_construct_ptr<std::allocator<std::_Tree_node<std::pair<int const ,CPythonSkill::SPetSkillData>,void *> > >
PUBLIC	?_Allocate@?$_Alloc_construct_ptr@V?$allocator@U?$_Tree_node@U?$pair@$$CBHUSPetSkillData@CPythonSkill@@@std@@PAX@std@@@std@@@std@@QAEXXZ ; std::_Alloc_construct_ptr<std::allocator<std::_Tree_node<std::pair<int const ,CPythonSkill::SPetSkillData>,void *> > >::_Allocate
PUBLIC	??0?$_Alloc_construct_ptr@V?$allocator@U?$_Tree_node@U?$pair@$$CBV?$basic_string@DU?$char_traits@D@std@@V?$allocator@D@2@@std@@V12@@std@@PAX@std@@@std@@@std@@QAE@AAV?$allocator@U?$_Tree_node@U?$pair@$$CBV?$basic_string@DU?$char_traits@D@std@@V?$allocator@D@2@@std@@V12@@std@@PAX@std@@@1@@Z ; std::_Alloc_construct_ptr<std::allocator<std::_Tree_node<std::pair<std::basic_string<char,std::char_traits<char>,std::allocator<char> > const ,std::basic_string<char,std::char_traits<char>,std::allocator<char> > >,void *> > >::_Alloc_construct_ptr<std::allocator<std::_Tree_node<std::pair<std::basic_string<char,std::char_traits<char>,std::allocator<char> > const ,std::basic_string<char,std::char_traits<char>,std::allocator<char> > >,void *> > >
PUBLIC	?_Allocate@?$_Alloc_construct_ptr@V?$allocator@U?$_Tree_node@U?$pair@$$CBV?$basic_string@DU?$char_traits@D@std@@V?$allocator@D@2@@std@@V12@@std@@PAX@std@@@std@@@std@@QAEXXZ ; std::_Alloc_construct_ptr<std::allocator<std::_Tree_node<std::pair<std::basic_string<char,std::char_traits<char>,std::allocator<char> > const ,std::basic_string<char,std::char_traits<char>,std::allocator<char> > >,void *> > >::_Allocate
PUBLIC	??0?$_Uninitialized_backout_al@V?$allocator@USRequireStatData@CPythonSkill@@@std@@@std@@QAE@PAUSRequireStatData@CPythonSkill@@AAV?$allocator@USRequireStatData@CPythonSkill@@@1@@Z ; std::_Uninitialized_backout_al<std::allocator<CPythonSkill::SRequireStatData> >::_Uninitialized_backout_al<std::allocator<CPythonSkill::SRequireStatData> >
PUBLIC	??1?$_Uninitialized_backout_al@V?$allocator@USRequireStatData@CPythonSkill@@@std@@@std@@QAE@XZ ; std::_Uninitialized_backout_al<std::allocator<CPythonSkill::SRequireStatData> >::~_Uninitialized_backout_al<std::allocator<CPythonSkill::SRequireStatData> >
PUBLIC	?_Release@?$_Uninitialized_backout_al@V?$allocator@USRequireStatData@CPythonSkill@@@std@@@std@@QAEPAUSRequireStatData@CPythonSkill@@XZ ; std::_Uninitialized_backout_al<std::allocator<CPythonSkill::SRequireStatData> >::_Release
PUBLIC	??$forward@PAV?$basic_string@DU?$char_traits@D@std@@V?$allocator@D@2@@std@@@std@@YA$$QAPAV?$basic_string@DU?$char_traits@D@std@@V?$allocator@D@2@@0@AAPAV10@@Z ; std::forward<std::basic_string<char,std::char_traits<char>,std::allocator<char> > *>
PUBLIC	??$_Construct_in_place@PAU?$_Tree_node@U?$pair@$$CBHUSPetSkillData@CPythonSkill@@@std@@PAX@std@@ABQAU12@@std@@YAXAAPAU?$_Tree_node@U?$pair@$$CBHUSPetSkillData@CPythonSkill@@@std@@PAX@0@ABQAU10@@Z ; std::_Construct_in_place<std::_Tree_node<std::pair<int const ,CPythonSkill::SPetSkillData>,void *> *,std::_Tree_node<std::pair<int const ,CPythonSkill::SPetSkillData>,void *> * const &>
PUBLIC	??$forward@PAUSAffectData@CPythonSkill@@@std@@YA$$QAPAUSAffectData@CPythonSkill@@AAPAU12@@Z ; std::forward<CPythonSkill::SAffectData *>
PUBLIC	??$forward@PAUSAffectDataNew@CPythonSkill@@@std@@YA$$QAPAUSAffectDataNew@CPythonSkill@@AAPAU12@@Z ; std::forward<CPythonSkill::SAffectDataNew *>
PUBLIC	??$forward@PAUSRequireStatData@CPythonSkill@@@std@@YA$$QAPAUSRequireStatData@CPythonSkill@@AAPAU12@@Z ; std::forward<CPythonSkill::SRequireStatData *>
PUBLIC	??$_Construct_in_place@PAU?$_Tree_node@U?$pair@$$CBKUSSkillData@CPythonSkill@@@std@@PAX@std@@ABQAU12@@std@@YAXAAPAU?$_Tree_node@U?$pair@$$CBKUSSkillData@CPythonSkill@@@std@@PAX@0@ABQAU10@@Z ; std::_Construct_in_place<std::_Tree_node<std::pair<unsigned long const ,CPythonSkill::SSkillData>,void *> *,std::_Tree_node<std::pair<unsigned long const ,CPythonSkill::SSkillData>,void *> * const &>
PUBLIC	??$_Construct_in_place@PAU?$_Tree_node@U?$pair@$$CBV?$basic_string@DU?$char_traits@D@std@@V?$allocator@D@2@@std@@K@std@@PAX@std@@ABQAU12@@std@@YAXAAPAU?$_Tree_node@U?$pair@$$CBV?$basic_string@DU?$char_traits@D@std@@V?$allocator@D@2@@std@@K@std@@PAX@0@ABQAU10@@Z ; std::_Construct_in_place<std::_Tree_node<std::pair<std::basic_string<char,std::char_traits<char>,std::allocator<char> > const ,unsigned long>,void *> *,std::_Tree_node<std::pair<std::basic_string<char,std::char_traits<char>,std::allocator<char> > const ,unsigned long>,void *> * const &>
PUBLIC	??$_Construct_in_place@PAU?$_Tree_node@U?$pair@$$CBV?$basic_string@DU?$char_traits@D@std@@V?$allocator@D@2@@std@@V12@@std@@PAX@std@@ABQAU12@@std@@YAXAAPAU?$_Tree_node@U?$pair@$$CBV?$basic_string@DU?$char_traits@D@std@@V?$allocator@D@2@@std@@V12@@std@@PAX@0@ABQAU10@@Z ; std::_Construct_in_place<std::_Tree_node<std::pair<std::basic_string<char,std::char_traits<char>,std::allocator<char> > const ,std::basic_string<char,std::char_traits<char>,std::allocator<char> > >,void *> *,std::_Tree_node<std::pair<std::basic_string<char,std::char_traits<char>,std::allocator<char> > const ,std::basic_string<char,std::char_traits<char>,std::allocator<char> > >,void *> * const &>
PUBLIC	??$destroy_at@U?$pair@$$CBV?$basic_string@DU?$char_traits@D@std@@V?$allocator@D@2@@std@@K@std@@@std@@YAXQAU?$pair@$$CBV?$basic_string@DU?$char_traits@D@std@@V?$allocator@D@2@@std@@K@0@@Z ; std::destroy_at<std::pair<std::basic_string<char,std::char_traits<char>,std::allocator<char> > const ,unsigned long> >
PUBLIC	??$_Emplace_back@AAUSAffectData@CPythonSkill@@@?$_Uninitialized_backout_al@V?$allocator@USAffectData@CPythonSkill@@@std@@@std@@QAEXAAUSAffectData@CPythonSkill@@@Z ; std::_Uninitialized_backout_al<std::allocator<CPythonSkill::SAffectData> >::_Emplace_back<CPythonSkill::SAffectData &>
PUBLIC	??$move@AAPAUSAffectData@CPythonSkill@@@std@@YA$$QAPAUSAffectData@CPythonSkill@@AAPAU12@@Z ; std::move<CPythonSkill::SAffectData * &>
PUBLIC	??$_Emplace_back@AAUSAffectDataNew@CPythonSkill@@@?$_Uninitialized_backout_al@V?$allocator@USAffectDataNew@CPythonSkill@@@std@@@std@@QAEXAAUSAffectDataNew@CPythonSkill@@@Z ; std::_Uninitialized_backout_al<std::allocator<CPythonSkill::SAffectDataNew> >::_Emplace_back<CPythonSkill::SAffectDataNew &>
PUBLIC	??$move@AAPAUSAffectDataNew@CPythonSkill@@@std@@YA$$QAPAUSAffectDataNew@CPythonSkill@@AAPAU12@@Z ; std::move<CPythonSkill::SAffectDataNew * &>
PUBLIC	??$_Emplace_back@AAUSRequireStatData@CPythonSkill@@@?$_Uninitialized_backout_al@V?$allocator@USRequireStatData@CPythonSkill@@@std@@@std@@QAEXAAUSRequireStatData@CPythonSkill@@@Z ; std::_Uninitialized_backout_al<std::allocator<CPythonSkill::SRequireStatData> >::_Emplace_back<CPythonSkill::SRequireStatData &>
PUBLIC	??$_Copy_memmove@PAUSRequireStatData@CPythonSkill@@PAU12@@std@@YAPAUSRequireStatData@CPythonSkill@@PAU12@00@Z ; std::_Copy_memmove<CPythonSkill::SRequireStatData *,CPythonSkill::SRequireStatData *>
PUBLIC	??$_Unfancy@USRequireStatData@CPythonSkill@@@std@@YAPAUSRequireStatData@CPythonSkill@@PAU12@@Z ; std::_Unfancy<CPythonSkill::SRequireStatData>
PUBLIC	??$to_address@USRequireStatData@CPythonSkill@@@std@@YAPAUSRequireStatData@CPythonSkill@@QAU12@@Z ; std::to_address<CPythonSkill::SRequireStatData>
PUBLIC	??$move@AAPAUSRequireStatData@CPythonSkill@@@std@@YA$$QAPAUSRequireStatData@CPythonSkill@@AAPAU12@@Z ; std::move<CPythonSkill::SRequireStatData * &>
PUBLIC	??$construct@V?$basic_string@DU?$char_traits@D@std@@V?$allocator@D@2@@std@@$$V@?$_Default_allocator_traits@V?$allocator@V?$basic_string@DU?$char_traits@D@std@@V?$allocator@D@2@@std@@@std@@@std@@SAXAAV?$allocator@V?$basic_string@DU?$char_traits@D@std@@V?$allocator@D@2@@std@@@1@QAV?$basic_string@DU?$char_traits@D@std@@V?$allocator@D@2@@1@@Z ; std::_Default_allocator_traits<std::allocator<std::basic_string<char,std::char_traits<char>,std::allocator<char> > > >::construct<std::basic_string<char,std::char_traits<char>,std::allocator<char> > >
PUBLIC	??$construct_at@PAU?$_Tree_node@U?$pair@$$CBV?$basic_string@DU?$char_traits@D@std@@V?$allocator@D@2@@std@@V12@@std@@PAX@std@@AAPAU12@@std@@YAPAPAU?$_Tree_node@U?$pair@$$CBV?$basic_string@DU?$char_traits@D@std@@V?$allocator@D@2@@std@@V12@@std@@PAX@0@QAPAU10@AAPAU10@@Z ; std::construct_at<std::_Tree_node<std::pair<std::basic_string<char,std::char_traits<char>,std::allocator<char> > const ,std::basic_string<char,std::char_traits<char>,std::allocator<char> > >,void *> *,std::_Tree_node<std::pair<std::basic_string<char,std::char_traits<char>,std::allocator<char> > const ,std::basic_string<char,std::char_traits<char>,std::allocator<char> > >,void *> * &>
PUBLIC	??$addressof@PAU?$_Tree_node@U?$pair@$$CBV?$basic_string@DU?$char_traits@D@std@@V?$allocator@D@2@@std@@V12@@std@@PAX@std@@@std@@YAPAPAU?$_Tree_node@U?$pair@$$CBV?$basic_string@DU?$char_traits@D@std@@V?$allocator@D@2@@std@@V12@@std@@PAX@0@AAPAU10@@Z ; std::addressof<std::_Tree_node<std::pair<std::basic_string<char,std::char_traits<char>,std::allocator<char> > const ,std::basic_string<char,std::char_traits<char>,std::allocator<char> > >,void *> *>
PUBLIC	??$construct_at@U?$pair@$$CBV?$basic_string@DU?$char_traits@D@std@@V?$allocator@D@2@@std@@V12@@std@@ABUpiecewise_construct_t@2@V?$tuple@ABV?$basic_string@DU?$char_traits@D@std@@V?$allocator@D@2@@std@@@2@V?$tuple@$$V@2@@std@@YAPAU?$pair@$$CBV?$basic_string@DU?$char_traits@D@std@@V?$allocator@D@2@@std@@V12@@0@QAU10@ABUpiecewise_construct_t@0@$$QAV?$tuple@ABV?$basic_string@DU?$char_traits@D@std@@V?$allocator@D@2@@std@@@0@$$QAV?$tuple@$$V@0@@Z ; std::construct_at<std::pair<std::basic_string<char,std::char_traits<char>,std::allocator<char> > const ,std::basic_string<char,std::char_traits<char>,std::allocator<char> > >,std::piecewise_construct_t const &,std::tuple<std::basic_string<char,std::char_traits<char>,std::allocator<char> > const &>,std::tuple<> >
PUBLIC	??$construct_at@PAU?$_Tree_node@U?$pair@$$CBHUSPetSkillData@CPythonSkill@@@std@@PAX@std@@AAPAU12@@std@@YAPAPAU?$_Tree_node@U?$pair@$$CBHUSPetSkillData@CPythonSkill@@@std@@PAX@0@QAPAU10@AAPAU10@@Z ; std::construct_at<std::_Tree_node<std::pair<int const ,CPythonSkill::SPetSkillData>,void *> *,std::_Tree_node<std::pair<int const ,CPythonSkill::SPetSkillData>,void *> * &>
PUBLIC	??$addressof@PAU?$_Tree_node@U?$pair@$$CBHUSPetSkillData@CPythonSkill@@@std@@PAX@std@@@std@@YAPAPAU?$_Tree_node@U?$pair@$$CBHUSPetSkillData@CPythonSkill@@@std@@PAX@0@AAPAU10@@Z ; std::addressof<std::_Tree_node<std::pair<int const ,CPythonSkill::SPetSkillData>,void *> *>
PUBLIC	??$construct_at@U?$pair@$$CBHUSPetSkillData@CPythonSkill@@@std@@ABUpiecewise_construct_t@2@V?$tuple@ABH@2@V?$tuple@$$V@2@@std@@YAPAU?$pair@$$CBHUSPetSkillData@CPythonSkill@@@0@QAU10@ABUpiecewise_construct_t@0@$$QAV?$tuple@ABH@0@$$QAV?$tuple@$$V@0@@Z ; std::construct_at<std::pair<int const ,CPythonSkill::SPetSkillData>,std::piecewise_construct_t const &,std::tuple<int const &>,std::tuple<> >
PUBLIC	??1?$pair@$$CBHUSPetSkillData@CPythonSkill@@@std@@QAE@XZ ; std::pair<int const ,CPythonSkill::SPetSkillData>::~pair<int const ,CPythonSkill::SPetSkillData>
PUBLIC	??$destroy_at@U?$pair@$$CBHUSPetSkillData@CPythonSkill@@@std@@@std@@YAXQAU?$pair@$$CBHUSPetSkillData@CPythonSkill@@@0@@Z ; std::destroy_at<std::pair<int const ,CPythonSkill::SPetSkillData> >
PUBLIC	??$construct_at@USAffectData@CPythonSkill@@U12@@std@@YAPAUSAffectData@CPythonSkill@@QAU12@$$QAU12@@Z ; std::construct_at<CPythonSkill::SAffectData,CPythonSkill::SAffectData>
PUBLIC	??$addressof@USAffectData@CPythonSkill@@@std@@YAPAUSAffectData@CPythonSkill@@AAU12@@Z ; std::addressof<CPythonSkill::SAffectData>
PUBLIC	??$construct@USAffectData@CPythonSkill@@$$V@?$_Default_allocator_traits@V?$allocator@USAffectData@CPythonSkill@@@std@@@std@@SAXAAV?$allocator@USAffectData@CPythonSkill@@@1@QAUSAffectData@CPythonSkill@@@Z ; std::_Default_allocator_traits<std::allocator<CPythonSkill::SAffectData> >::construct<CPythonSkill::SAffectData>
PUBLIC	??$_Emplace_back@USAffectData@CPythonSkill@@@?$_Uninitialized_backout_al@V?$allocator@USAffectData@CPythonSkill@@@std@@@std@@QAEX$$QAUSAffectData@CPythonSkill@@@Z ; std::_Uninitialized_backout_al<std::allocator<CPythonSkill::SAffectData> >::_Emplace_back<CPythonSkill::SAffectData>
PUBLIC	??$construct@USAffectDataNew@CPythonSkill@@U12@@?$_Default_allocator_traits@V?$allocator@USAffectDataNew@CPythonSkill@@@std@@@std@@SAXAAV?$allocator@USAffectDataNew@CPythonSkill@@@1@QAUSAffectDataNew@CPythonSkill@@$$QAU34@@Z ; std::_Default_allocator_traits<std::allocator<CPythonSkill::SAffectDataNew> >::construct<CPythonSkill::SAffectDataNew,CPythonSkill::SAffectDataNew>
PUBLIC	??$forward@USAffectDataNew@CPythonSkill@@@std@@YA$$QAUSAffectDataNew@CPythonSkill@@AAU12@@Z ; std::forward<CPythonSkill::SAffectDataNew>
PUBLIC	??$construct_at@U?$pair@$$CBKUSSkillData@CPythonSkill@@@std@@ABUpiecewise_construct_t@2@V?$tuple@ABK@2@V?$tuple@$$V@2@@std@@YAPAU?$pair@$$CBKUSSkillData@CPythonSkill@@@0@QAU10@ABUpiecewise_construct_t@0@$$QAV?$tuple@ABK@0@$$QAV?$tuple@$$V@0@@Z ; std::construct_at<std::pair<unsigned long const ,CPythonSkill::SSkillData>,std::piecewise_construct_t const &,std::tuple<unsigned long const &>,std::tuple<> >
PUBLIC	??$destroy_at@U?$pair@$$CBKUSSkillData@CPythonSkill@@@std@@@std@@YAXQAU?$pair@$$CBKUSSkillData@CPythonSkill@@@0@@Z ; std::destroy_at<std::pair<unsigned long const ,CPythonSkill::SSkillData> >
PUBLIC	??$forward@AAPAU?$_Tree_node@U?$pair@$$CBV?$basic_string@DU?$char_traits@D@std@@V?$allocator@D@2@@std@@V12@@std@@PAX@std@@@std@@YAAAPAU?$_Tree_node@U?$pair@$$CBV?$basic_string@DU?$char_traits@D@std@@V?$allocator@D@2@@std@@V12@@std@@PAX@0@AAPAU10@@Z ; std::forward<std::_Tree_node<std::pair<std::basic_string<char,std::char_traits<char>,std::allocator<char> > const ,std::basic_string<char,std::char_traits<char>,std::allocator<char> > >,void *> * &>
PUBLIC	??$construct@U?$pair@$$CBV?$basic_string@DU?$char_traits@D@std@@V?$allocator@D@2@@std@@V12@@std@@U?$pair@V?$basic_string@DU?$char_traits@D@std@@V?$allocator@D@2@@std@@V12@@2@@?$_Default_allocator_traits@V?$allocator@U?$_Tree_node@U?$pair@$$CBV?$basic_string@DU?$char_traits@D@std@@V?$allocator@D@2@@std@@V12@@std@@PAX@std@@@std@@@std@@SAXAAV?$allocator@U?$_Tree_node@U?$pair@$$CBV?$basic_string@DU?$char_traits@D@std@@V?$allocator@D@2@@std@@V12@@std@@PAX@std@@@1@QAU?$pair@$$CBV?$basic_string@DU?$char_traits@D@std@@V?$allocator@D@2@@std@@V12@@1@$$QAU?$pair@V?$basic_string@DU?$char_traits@D@std@@V?$allocator@D@2@@std@@V12@@1@@Z ; std::_Default_allocator_traits<std::allocator<std::_Tree_node<std::pair<std::basic_string<char,std::char_traits<char>,std::allocator<char> > const ,std::basic_string<char,std::char_traits<char>,std::allocator<char> > >,void *> > >::construct<std::pair<std::basic_string<char,std::char_traits<char>,std::allocator<char> > const ,std::basic_string<char,std::char_traits<char>,std::allocator<char> > >,std::pair<std::basic_string<char,std::char_traits<char>,std::allocator<char> >,std::basic_string<char,std::char_traits<char>,std::allocator<char> > > >
PUBLIC	??$construct@U?$pair@$$CBV?$basic_string@DU?$char_traits@D@std@@V?$allocator@D@2@@std@@K@std@@U?$pair@V?$basic_string@DU?$char_traits@D@std@@V?$allocator@D@2@@std@@W4EPointTypes@@@2@@?$_Default_allocator_traits@V?$allocator@U?$_Tree_node@U?$pair@$$CBV?$basic_string@DU?$char_traits@D@std@@V?$allocator@D@2@@std@@K@std@@PAX@std@@@std@@@std@@SAXAAV?$allocator@U?$_Tree_node@U?$pair@$$CBV?$basic_string@DU?$char_traits@D@std@@V?$allocator@D@2@@std@@K@std@@PAX@std@@@1@QAU?$pair@$$CBV?$basic_string@DU?$char_traits@D@std@@V?$allocator@D@2@@std@@K@1@$$QAU?$pair@V?$basic_string@DU?$char_traits@D@std@@V?$allocator@D@2@@std@@W4EPointTypes@@@1@@Z ; std::_Default_allocator_traits<std::allocator<std::_Tree_node<std::pair<std::basic_string<char,std::char_traits<char>,std::allocator<char> > const ,unsigned long>,void *> > >::construct<std::pair<std::basic_string<char,std::char_traits<char>,std::allocator<char> > const ,unsigned long>,std::pair<std::basic_string<char,std::char_traits<char>,std::allocator<char> >,enum EPointTypes> >
PUBLIC	??$construct@U?$pair@$$CBV?$basic_string@DU?$char_traits@D@std@@V?$allocator@D@2@@std@@K@std@@U?$pair@V?$basic_string@DU?$char_traits@D@std@@V?$allocator@D@2@@std@@W4EWeaponSubTypes@CItemData@@@2@@?$_Default_allocator_traits@V?$allocator@U?$_Tree_node@U?$pair@$$CBV?$basic_string@DU?$char_traits@D@std@@V?$allocator@D@2@@std@@K@std@@PAX@std@@@std@@@std@@SAXAAV?$allocator@U?$_Tree_node@U?$pair@$$CBV?$basic_string@DU?$char_traits@D@std@@V?$allocator@D@2@@std@@K@std@@PAX@std@@@1@QAU?$pair@$$CBV?$basic_string@DU?$char_traits@D@std@@V?$allocator@D@2@@std@@K@1@$$QAU?$pair@V?$basic_string@DU?$char_traits@D@std@@V?$allocator@D@2@@std@@W4EWeaponSubTypes@CItemData@@@1@@Z ; std::_Default_allocator_traits<std::allocator<std::_Tree_node<std::pair<std::basic_string<char,std::char_traits<char>,std::allocator<char> > const ,unsigned long>,void *> > >::construct<std::pair<std::basic_string<char,std::char_traits<char>,std::allocator<char> > const ,unsigned long>,std::pair<std::basic_string<char,std::char_traits<char>,std::allocator<char> >,enum CItemData::EWeaponSubTypes> >
PUBLIC	??$construct_at@PAU?$_Tree_node@U?$pair@$$CBV?$basic_string@DU?$char_traits@D@std@@V?$allocator@D@2@@std@@K@std@@PAX@std@@AAPAU12@@std@@YAPAPAU?$_Tree_node@U?$pair@$$CBV?$basic_string@DU?$char_traits@D@std@@V?$allocator@D@2@@std@@K@std@@PAX@0@QAPAU10@AAPAU10@@Z ; std::construct_at<std::_Tree_node<std::pair<std::basic_string<char,std::char_traits<char>,std::allocator<char> > const ,unsigned long>,void *> *,std::_Tree_node<std::pair<std::basic_string<char,std::char_traits<char>,std::allocator<char> > const ,unsigned long>,void *> * &>
PUBLIC	??$addressof@PAU?$_Tree_node@U?$pair@$$CBV?$basic_string@DU?$char_traits@D@std@@V?$allocator@D@2@@std@@K@std@@PAX@std@@@std@@YAPAPAU?$_Tree_node@U?$pair@$$CBV?$basic_string@DU?$char_traits@D@std@@V?$allocator@D@2@@std@@K@std@@PAX@0@AAPAU10@@Z ; std::addressof<std::_Tree_node<std::pair<std::basic_string<char,std::char_traits<char>,std::allocator<char> > const ,unsigned long>,void *> *>
PUBLIC	??$construct_at@U?$pair@$$CBV?$basic_string@DU?$char_traits@D@std@@V?$allocator@D@2@@std@@K@std@@U12@@std@@YAPAU?$pair@$$CBV?$basic_string@DU?$char_traits@D@std@@V?$allocator@D@2@@std@@K@0@QAU10@$$QAU10@@Z ; std::construct_at<std::pair<std::basic_string<char,std::char_traits<char>,std::allocator<char> > const ,unsigned long>,std::pair<std::basic_string<char,std::char_traits<char>,std::allocator<char> > const ,unsigned long> >
PUBLIC	??$forward@AAPAU?$_Tree_node@U?$pair@$$CBHUSPetSkillData@CPythonSkill@@@std@@PAX@std@@@std@@YAAAPAU?$_Tree_node@U?$pair@$$CBHUSPetSkillData@CPythonSkill@@@std@@PAX@0@AAPAU10@@Z ; std::forward<std::_Tree_node<std::pair<int const ,CPythonSkill::SPetSkillData>,void *> * &>
PUBLIC	??$construct@U?$pair@$$CBHUSPetSkillData@CPythonSkill@@@std@@U?$pair@HUSPetSkillData@CPythonSkill@@@2@@?$_Default_allocator_traits@V?$allocator@U?$_Tree_node@U?$pair@$$CBHUSPetSkillData@CPythonSkill@@@std@@PAX@std@@@std@@@std@@SAXAAV?$allocator@U?$_Tree_node@U?$pair@$$CBHUSPetSkillData@CPythonSkill@@@std@@PAX@std@@@1@QAU?$pair@$$CBHUSPetSkillData@CPythonSkill@@@1@$$QAU?$pair@HUSPetSkillData@CPythonSkill@@@1@@Z ; std::_Default_allocator_traits<std::allocator<std::_Tree_node<std::pair<int const ,CPythonSkill::SPetSkillData>,void *> > >::construct<std::pair<int const ,CPythonSkill::SPetSkillData>,std::pair<int,CPythonSkill::SPetSkillData> >
PUBLIC	??$construct_at@PAU?$_Tree_node@U?$pair@$$CBKUSSkillData@CPythonSkill@@@std@@PAX@std@@AAPAU12@@std@@YAPAPAU?$_Tree_node@U?$pair@$$CBKUSSkillData@CPythonSkill@@@std@@PAX@0@QAPAU10@AAPAU10@@Z ; std::construct_at<std::_Tree_node<std::pair<unsigned long const ,CPythonSkill::SSkillData>,void *> *,std::_Tree_node<std::pair<unsigned long const ,CPythonSkill::SSkillData>,void *> * &>
PUBLIC	??$addressof@PAU?$_Tree_node@U?$pair@$$CBKUSSkillData@CPythonSkill@@@std@@PAX@std@@@std@@YAPAPAU?$_Tree_node@U?$pair@$$CBKUSSkillData@CPythonSkill@@@std@@PAX@0@AAPAU10@@Z ; std::addressof<std::_Tree_node<std::pair<unsigned long const ,CPythonSkill::SSkillData>,void *> *>
PUBLIC	??$construct_at@U?$pair@$$CBKUSSkillData@CPythonSkill@@@std@@U12@@std@@YAPAU?$pair@$$CBKUSSkillData@CPythonSkill@@@0@QAU10@$$QAU10@@Z ; std::construct_at<std::pair<unsigned long const ,CPythonSkill::SSkillData>,std::pair<unsigned long const ,CPythonSkill::SSkillData> >
PUBLIC	??$construct@U?$pair@$$CBKUSSkillData@CPythonSkill@@@std@@U?$pair@KUSSkillData@CPythonSkill@@@2@@?$_Default_allocator_traits@V?$allocator@U?$_Tree_node@U?$pair@$$CBKUSSkillData@CPythonSkill@@@std@@PAX@std@@@std@@@std@@SAXAAV?$allocator@U?$_Tree_node@U?$pair@$$CBKUSSkillData@CPythonSkill@@@std@@PAX@std@@@1@QAU?$pair@$$CBKUSSkillData@CPythonSkill@@@1@$$QAU?$pair@KUSSkillData@CPythonSkill@@@1@@Z ; std::_Default_allocator_traits<std::allocator<std::_Tree_node<std::pair<unsigned long const ,CPythonSkill::SSkillData>,void *> > >::construct<std::pair<unsigned long const ,CPythonSkill::SSkillData>,std::pair<unsigned long,CPythonSkill::SSkillData> >
PUBLIC	??0SAffectData@CPythonSkill@@QAE@$$QAU01@@Z	; CPythonSkill::SAffectData::SAffectData
PUBLIC	??_GSAffectData@CPythonSkill@@QAEPAXI@Z		; CPythonSkill::SAffectData::`scalar deleting destructor'
PUBLIC	??_GSAffectDataNew@CPythonSkill@@QAEPAXI@Z	; CPythonSkill::SAffectDataNew::`scalar deleting destructor'
PUBLIC	?max_size@?$_Tree@V?$_Tmap_traits@HUSPetSkillData@CPythonSkill@@U?$less@H@std@@V?$allocator@U?$pair@$$CBHUSPetSkillData@CPythonSkill@@@std@@@4@$0A@@std@@@std@@QBEIXZ ; std::_Tree<std::_Tmap_traits<int,CPythonSkill::SPetSkillData,std::less<int>,std::allocator<std::pair<int const ,CPythonSkill::SPetSkillData> >,0> >::max_size
PUBLIC	?_Getcomp@?$_Tree@V?$_Tmap_traits@HUSPetSkillData@CPythonSkill@@U?$less@H@std@@V?$allocator@U?$pair@$$CBHUSPetSkillData@CPythonSkill@@@std@@@4@$0A@@std@@@std@@IBEABU?$less@H@2@XZ ; std::_Tree<std::_Tmap_traits<int,CPythonSkill::SPetSkillData,std::less<int>,std::allocator<std::pair<int const ,CPythonSkill::SPetSkillData> >,0> >::_Getcomp
PUBLIC	?deallocate@?$_Default_allocator_traits@V?$allocator@U?$_Tree_node@U?$pair@$$CBHUSPetSkillData@CPythonSkill@@@std@@PAX@std@@@std@@@std@@SAXAAV?$allocator@U?$_Tree_node@U?$pair@$$CBHUSPetSkillData@CPythonSkill@@@std@@PAX@std@@@2@QAU?$_Tree_node@U?$pair@$$CBHUSPetSkillData@CPythonSkill@@@std@@PAX@2@I@Z ; std::_Default_allocator_traits<std::allocator<std::_Tree_node<std::pair<int const ,CPythonSkill::SPetSkillData>,void *> > >::deallocate
PUBLIC	?_Lrotate@?$_Tree_val@U?$_Tree_simple_types@U?$pair@$$CBHUSPetSkillData@CPythonSkill@@@std@@@std@@@std@@QAEXPAU?$_Tree_node@U?$pair@$$CBHUSPetSkillData@CPythonSkill@@@std@@PAX@2@@Z ; std::_Tree_val<std::_Tree_simple_types<std::pair<int const ,CPythonSkill::SPetSkillData> > >::_Lrotate
PUBLIC	?_Rrotate@?$_Tree_val@U?$_Tree_simple_types@U?$pair@$$CBHUSPetSkillData@CPythonSkill@@@std@@@std@@@std@@QAEXPAU?$_Tree_node@U?$pair@$$CBHUSPetSkillData@CPythonSkill@@@std@@PAX@2@@Z ; std::_Tree_val<std::_Tree_simple_types<std::pair<int const ,CPythonSkill::SPetSkillData> > >::_Rrotate
PUBLIC	?max_size@?$vector@USAffectData@CPythonSkill@@V?$allocator@USAffectData@CPythonSkill@@@std@@@std@@QBEIXZ ; std::vector<CPythonSkill::SAffectData,std::allocator<CPythonSkill::SAffectData> >::max_size
PUBLIC	?_Calculate_growth@?$vector@USAffectData@CPythonSkill@@V?$allocator@USAffectData@CPythonSkill@@@std@@@std@@ABEII@Z ; std::vector<CPythonSkill::SAffectData,std::allocator<CPythonSkill::SAffectData> >::_Calculate_growth
PUBLIC	?_Buy_nonzero@?$vector@USAffectData@CPythonSkill@@V?$allocator@USAffectData@CPythonSkill@@@std@@@std@@AAEXI@Z ; std::vector<CPythonSkill::SAffectData,std::allocator<CPythonSkill::SAffectData> >::_Buy_nonzero
PUBLIC	?_Change_array@?$vector@USAffectData@CPythonSkill@@V?$allocator@USAffectData@CPythonSkill@@@std@@@std@@AAEXQAUSAffectData@CPythonSkill@@II@Z ; std::vector<CPythonSkill::SAffectData,std::allocator<CPythonSkill::SAffectData> >::_Change_array
PUBLIC	?_Xlength@?$vector@USAffectData@CPythonSkill@@V?$allocator@USAffectData@CPythonSkill@@@std@@@std@@CAXXZ ; std::vector<CPythonSkill::SAffectData,std::allocator<CPythonSkill::SAffectData> >::_Xlength
PUBLIC	??1?$_Tidy_guard@V?$vector@USAffectData@CPythonSkill@@V?$allocator@USAffectData@CPythonSkill@@@std@@@std@@@std@@QAE@XZ ; std::_Tidy_guard<std::vector<CPythonSkill::SAffectData,std::allocator<CPythonSkill::SAffectData> > >::~_Tidy_guard<std::vector<CPythonSkill::SAffectData,std::allocator<CPythonSkill::SAffectData> > >
PUBLIC	??1_Reallocation_guard@?$vector@USAffectData@CPythonSkill@@V?$allocator@USAffectData@CPythonSkill@@@std@@@std@@QAE@XZ ; std::vector<CPythonSkill::SAffectData,std::allocator<CPythonSkill::SAffectData> >::_Reallocation_guard::~_Reallocation_guard
PUBLIC	?_Get_first@?$_Compressed_pair@V?$allocator@USAffectData@CPythonSkill@@@std@@V?$_Vector_val@U?$_Simple_types@USAffectData@CPythonSkill@@@std@@@2@$00@std@@QBEABV?$allocator@USAffectData@CPythonSkill@@@2@XZ ; std::_Compressed_pair<std::allocator<CPythonSkill::SAffectData>,std::_Vector_val<std::_Simple_types<CPythonSkill::SAffectData> >,1>::_Get_first
PUBLIC	?allocate@?$allocator@USAffectDataNew@CPythonSkill@@@std@@QAEPAUSAffectDataNew@CPythonSkill@@I@Z ; std::allocator<CPythonSkill::SAffectDataNew>::allocate
PUBLIC	?_Buy_nonzero@?$vector@USAffectDataNew@CPythonSkill@@V?$allocator@USAffectDataNew@CPythonSkill@@@std@@@std@@AAEXI@Z ; std::vector<CPythonSkill::SAffectDataNew,std::allocator<CPythonSkill::SAffectDataNew> >::_Buy_nonzero
PUBLIC	??1?$_Tidy_guard@V?$vector@USAffectDataNew@CPythonSkill@@V?$allocator@USAffectDataNew@CPythonSkill@@@std@@@std@@@std@@QAE@XZ ; std::_Tidy_guard<std::vector<CPythonSkill::SAffectDataNew,std::allocator<CPythonSkill::SAffectDataNew> > >::~_Tidy_guard<std::vector<CPythonSkill::SAffectDataNew,std::allocator<CPythonSkill::SAffectDataNew> > >
PUBLIC	?_Get_first@?$_Compressed_pair@V?$allocator@USAffectDataNew@CPythonSkill@@@std@@V?$_Vector_val@U?$_Simple_types@USAffectDataNew@CPythonSkill@@@std@@@2@$00@std@@QBEABV?$allocator@USAffectDataNew@CPythonSkill@@@2@XZ ; std::_Compressed_pair<std::allocator<CPythonSkill::SAffectDataNew>,std::_Vector_val<std::_Simple_types<CPythonSkill::SAffectDataNew> >,1>::_Get_first
PUBLIC	?_Buy_nonzero@?$vector@USRequireStatData@CPythonSkill@@V?$allocator@USRequireStatData@CPythonSkill@@@std@@@std@@AAEXI@Z ; std::vector<CPythonSkill::SRequireStatData,std::allocator<CPythonSkill::SRequireStatData> >::_Buy_nonzero
PUBLIC	??1?$_Tidy_guard@V?$vector@USRequireStatData@CPythonSkill@@V?$allocator@USRequireStatData@CPythonSkill@@@std@@@std@@@std@@QAE@XZ ; std::_Tidy_guard<std::vector<CPythonSkill::SRequireStatData,std::allocator<CPythonSkill::SRequireStatData> > >::~_Tidy_guard<std::vector<CPythonSkill::SRequireStatData,std::allocator<CPythonSkill::SRequireStatData> > >
PUBLIC	?_Get_first@?$_Compressed_pair@V?$allocator@USRequireStatData@CPythonSkill@@@std@@V?$_Vector_val@U?$_Simple_types@USRequireStatData@CPythonSkill@@@std@@@2@$00@std@@QAEAAV?$allocator@USRequireStatData@CPythonSkill@@@2@XZ ; std::_Compressed_pair<std::allocator<CPythonSkill::SRequireStatData>,std::_Vector_val<std::_Simple_types<CPythonSkill::SRequireStatData> >,1>::_Get_first
PUBLIC	?_Get_first@?$_Compressed_pair@V?$allocator@USRequireStatData@CPythonSkill@@@std@@V?$_Vector_val@U?$_Simple_types@USRequireStatData@CPythonSkill@@@std@@@2@$00@std@@QBEABV?$allocator@USRequireStatData@CPythonSkill@@@2@XZ ; std::_Compressed_pair<std::allocator<CPythonSkill::SRequireStatData>,std::_Vector_val<std::_Simple_types<CPythonSkill::SRequireStatData> >,1>::_Get_first
PUBLIC	?max_size@?$_Tree@V?$_Tmap_traits@KUSSkillData@CPythonSkill@@U?$less@K@std@@V?$allocator@U?$pair@$$CBKUSSkillData@CPythonSkill@@@std@@@4@$0A@@std@@@std@@QBEIXZ ; std::_Tree<std::_Tmap_traits<unsigned long,CPythonSkill::SSkillData,std::less<unsigned long>,std::allocator<std::pair<unsigned long const ,CPythonSkill::SSkillData> >,0> >::max_size
PUBLIC	?_Getcomp@?$_Tree@V?$_Tmap_traits@KUSSkillData@CPythonSkill@@U?$less@K@std@@V?$allocator@U?$pair@$$CBKUSSkillData@CPythonSkill@@@std@@@4@$0A@@std@@@std@@IBEABU?$less@K@2@XZ ; std::_Tree<std::_Tmap_traits<unsigned long,CPythonSkill::SSkillData,std::less<unsigned long>,std::allocator<std::pair<unsigned long const ,CPythonSkill::SSkillData> >,0> >::_Getcomp
PUBLIC	?deallocate@?$_Default_allocator_traits@V?$allocator@U?$_Tree_node@U?$pair@$$CBKUSSkillData@CPythonSkill@@@std@@PAX@std@@@std@@@std@@SAXAAV?$allocator@U?$_Tree_node@U?$pair@$$CBKUSSkillData@CPythonSkill@@@std@@PAX@std@@@2@QAU?$_Tree_node@U?$pair@$$CBKUSSkillData@CPythonSkill@@@std@@PAX@2@I@Z ; std::_Default_allocator_traits<std::allocator<std::_Tree_node<std::pair<unsigned long const ,CPythonSkill::SSkillData>,void *> > >::deallocate
PUBLIC	?_Min@?$_Tree_val@U?$_Tree_simple_types@U?$pair@$$CBKUSSkillData@CPythonSkill@@@std@@@std@@@std@@SAPAU?$_Tree_node@U?$pair@$$CBKUSSkillData@CPythonSkill@@@std@@PAX@2@PAU32@@Z ; std::_Tree_val<std::_Tree_simple_types<std::pair<unsigned long const ,CPythonSkill::SSkillData> > >::_Min
PUBLIC	?_Lrotate@?$_Tree_val@U?$_Tree_simple_types@U?$pair@$$CBKUSSkillData@CPythonSkill@@@std@@@std@@@std@@QAEXPAU?$_Tree_node@U?$pair@$$CBKUSSkillData@CPythonSkill@@@std@@PAX@2@@Z ; std::_Tree_val<std::_Tree_simple_types<std::pair<unsigned long const ,CPythonSkill::SSkillData> > >::_Lrotate
PUBLIC	?_Rrotate@?$_Tree_val@U?$_Tree_simple_types@U?$pair@$$CBKUSSkillData@CPythonSkill@@@std@@@std@@@std@@QAEXPAU?$_Tree_node@U?$pair@$$CBKUSSkillData@CPythonSkill@@@std@@PAX@2@@Z ; std::_Tree_val<std::_Tree_simple_types<std::pair<unsigned long const ,CPythonSkill::SSkillData> > >::_Rrotate
PUBLIC	?max_size@?$_Tree@V?$_Tmap_traits@V?$basic_string@DU?$char_traits@D@std@@V?$allocator@D@2@@std@@KU?$less@V?$basic_string@DU?$char_traits@D@std@@V?$allocator@D@2@@std@@@2@V?$allocator@U?$pair@$$CBV?$basic_string@DU?$char_traits@D@std@@V?$allocator@D@2@@std@@K@std@@@2@$0A@@std@@@std@@QBEIXZ ; std::_Tree<std::_Tmap_traits<std::basic_string<char,std::char_traits<char>,std::allocator<char> >,unsigned long,std::less<std::basic_string<char,std::char_traits<char>,std::allocator<char> > >,std::allocator<std::pair<std::basic_string<char,std::char_traits<char>,std::allocator<char> > const ,unsigned long> >,0> >::max_size
PUBLIC	?_Getcomp@?$_Tree@V?$_Tmap_traits@V?$basic_string@DU?$char_traits@D@std@@V?$allocator@D@2@@std@@KU?$less@V?$basic_string@DU?$char_traits@D@std@@V?$allocator@D@2@@std@@@2@V?$allocator@U?$pair@$$CBV?$basic_string@DU?$char_traits@D@std@@V?$allocator@D@2@@std@@K@std@@@2@$0A@@std@@@std@@IBEABU?$less@V?$basic_string@DU?$char_traits@D@std@@V?$allocator@D@2@@std@@@2@XZ ; std::_Tree<std::_Tmap_traits<std::basic_string<char,std::char_traits<char>,std::allocator<char> >,unsigned long,std::less<std::basic_string<char,std::char_traits<char>,std::allocator<char> > >,std::allocator<std::pair<std::basic_string<char,std::char_traits<char>,std::allocator<char> > const ,unsigned long> >,0> >::_Getcomp
PUBLIC	?deallocate@?$_Default_allocator_traits@V?$allocator@U?$_Tree_node@U?$pair@$$CBV?$basic_string@DU?$char_traits@D@std@@V?$allocator@D@2@@std@@K@std@@PAX@std@@@std@@@std@@SAXAAV?$allocator@U?$_Tree_node@U?$pair@$$CBV?$basic_string@DU?$char_traits@D@std@@V?$allocator@D@2@@std@@K@std@@PAX@std@@@2@QAU?$_Tree_node@U?$pair@$$CBV?$basic_string@DU?$char_traits@D@std@@V?$allocator@D@2@@std@@K@std@@PAX@2@I@Z ; std::_Default_allocator_traits<std::allocator<std::_Tree_node<std::pair<std::basic_string<char,std::char_traits<char>,std::allocator<char> > const ,unsigned long>,void *> > >::deallocate
PUBLIC	?_Lrotate@?$_Tree_val@U?$_Tree_simple_types@U?$pair@$$CBV?$basic_string@DU?$char_traits@D@std@@V?$allocator@D@2@@std@@K@std@@@std@@@std@@QAEXPAU?$_Tree_node@U?$pair@$$CBV?$basic_string@DU?$char_traits@D@std@@V?$allocator@D@2@@std@@K@std@@PAX@2@@Z ; std::_Tree_val<std::_Tree_simple_types<std::pair<std::basic_string<char,std::char_traits<char>,std::allocator<char> > const ,unsigned long> > >::_Lrotate
PUBLIC	?_Rrotate@?$_Tree_val@U?$_Tree_simple_types@U?$pair@$$CBV?$basic_string@DU?$char_traits@D@std@@V?$allocator@D@2@@std@@K@std@@@std@@@std@@QAEXPAU?$_Tree_node@U?$pair@$$CBV?$basic_string@DU?$char_traits@D@std@@V?$allocator@D@2@@std@@K@std@@PAX@2@@Z ; std::_Tree_val<std::_Tree_simple_types<std::pair<std::basic_string<char,std::char_traits<char>,std::allocator<char> > const ,unsigned long> > >::_Rrotate
PUBLIC	?max_size@?$_Tree@V?$_Tmap_traits@V?$basic_string@DU?$char_traits@D@std@@V?$allocator@D@2@@std@@V12@U?$less@V?$basic_string@DU?$char_traits@D@std@@V?$allocator@D@2@@std@@@2@V?$allocator@U?$pair@$$CBV?$basic_string@DU?$char_traits@D@std@@V?$allocator@D@2@@std@@V12@@std@@@2@$0A@@std@@@std@@QBEIXZ ; std::_Tree<std::_Tmap_traits<std::basic_string<char,std::char_traits<char>,std::allocator<char> >,std::basic_string<char,std::char_traits<char>,std::allocator<char> >,std::less<std::basic_string<char,std::char_traits<char>,std::allocator<char> > >,std::allocator<std::pair<std::basic_string<char,std::char_traits<char>,std::allocator<char> > const ,std::basic_string<char,std::char_traits<char>,std::allocator<char> > > >,0> >::max_size
PUBLIC	?_Getcomp@?$_Tree@V?$_Tmap_traits@V?$basic_string@DU?$char_traits@D@std@@V?$allocator@D@2@@std@@V12@U?$less@V?$basic_string@DU?$char_traits@D@std@@V?$allocator@D@2@@std@@@2@V?$allocator@U?$pair@$$CBV?$basic_string@DU?$char_traits@D@std@@V?$allocator@D@2@@std@@V12@@std@@@2@$0A@@std@@@std@@IBEABU?$less@V?$basic_string@DU?$char_traits@D@std@@V?$allocator@D@2@@std@@@2@XZ ; std::_Tree<std::_Tmap_traits<std::basic_string<char,std::char_traits<char>,std::allocator<char> >,std::basic_string<char,std::char_traits<char>,std::allocator<char> >,std::less<std::basic_string<char,std::char_traits<char>,std::allocator<char> > >,std::allocator<std::pair<std::basic_string<char,std::char_traits<char>,std::allocator<char> > const ,std::basic_string<char,std::char_traits<char>,std::allocator<char> > > >,0> >::_Getcomp
PUBLIC	?deallocate@?$_Default_allocator_traits@V?$allocator@U?$_Tree_node@U?$pair@$$CBV?$basic_string@DU?$char_traits@D@std@@V?$allocator@D@2@@std@@V12@@std@@PAX@std@@@std@@@std@@SAXAAV?$allocator@U?$_Tree_node@U?$pair@$$CBV?$basic_string@DU?$char_traits@D@std@@V?$allocator@D@2@@std@@V12@@std@@PAX@std@@@2@QAU?$_Tree_node@U?$pair@$$CBV?$basic_string@DU?$char_traits@D@std@@V?$allocator@D@2@@std@@V12@@std@@PAX@2@I@Z ; std::_Default_allocator_traits<std::allocator<std::_Tree_node<std::pair<std::basic_string<char,std::char_traits<char>,std::allocator<char> > const ,std::basic_string<char,std::char_traits<char>,std::allocator<char> > >,void *> > >::deallocate
PUBLIC	?_Lrotate@?$_Tree_val@U?$_Tree_simple_types@U?$pair@$$CBV?$basic_string@DU?$char_traits@D@std@@V?$allocator@D@2@@std@@V12@@std@@@std@@@std@@QAEXPAU?$_Tree_node@U?$pair@$$CBV?$basic_string@DU?$char_traits@D@std@@V?$allocator@D@2@@std@@V12@@std@@PAX@2@@Z ; std::_Tree_val<std::_Tree_simple_types<std::pair<std::basic_string<char,std::char_traits<char>,std::allocator<char> > const ,std::basic_string<char,std::char_traits<char>,std::allocator<char> > > > >::_Lrotate
PUBLIC	?_Rrotate@?$_Tree_val@U?$_Tree_simple_types@U?$pair@$$CBV?$basic_string@DU?$char_traits@D@std@@V?$allocator@D@2@@std@@V12@@std@@@std@@@std@@QAEXPAU?$_Tree_node@U?$pair@$$CBV?$basic_string@DU?$char_traits@D@std@@V?$allocator@D@2@@std@@V12@@std@@PAX@2@@Z ; std::_Tree_val<std::_Tree_simple_types<std::pair<std::basic_string<char,std::char_traits<char>,std::allocator<char> > const ,std::basic_string<char,std::char_traits<char>,std::allocator<char> > > > >::_Rrotate
PUBLIC	??0?$_Tree_temp_node_alloc@V?$allocator@U?$_Tree_node@U?$pair@$$CBKUSSkillData@CPythonSkill@@@std@@PAX@std@@@std@@@std@@QAE@AAV?$allocator@U?$_Tree_node@U?$pair@$$CBKUSSkillData@CPythonSkill@@@std@@PAX@std@@@1@@Z ; std::_Tree_temp_node_alloc<std::allocator<std::_Tree_node<std::pair<unsigned long const ,CPythonSkill::SSkillData>,void *> > >::_Tree_temp_node_alloc<std::allocator<std::_Tree_node<std::pair<unsigned long const ,CPythonSkill::SSkillData>,void *> > >
PUBLIC	??1?$_Alloc_construct_ptr@V?$allocator@U?$_Tree_node@U?$pair@$$CBKUSSkillData@CPythonSkill@@@std@@PAX@std@@@std@@@std@@QAE@XZ ; std::_Alloc_construct_ptr<std::allocator<std::_Tree_node<std::pair<unsigned long const ,CPythonSkill::SSkillData>,void *> > >::~_Alloc_construct_ptr<std::allocator<std::_Tree_node<std::pair<unsigned long const ,CPythonSkill::SSkillData>,void *> > >
PUBLIC	??0?$_Tree_temp_node_alloc@V?$allocator@U?$_Tree_node@U?$pair@$$CBV?$basic_string@DU?$char_traits@D@std@@V?$allocator@D@2@@std@@K@std@@PAX@std@@@std@@@std@@QAE@AAV?$allocator@U?$_Tree_node@U?$pair@$$CBV?$basic_string@DU?$char_traits@D@std@@V?$allocator@D@2@@std@@K@std@@PAX@std@@@1@@Z ; std::_Tree_temp_node_alloc<std::allocator<std::_Tree_node<std::pair<std::basic_string<char,std::char_traits<char>,std::allocator<char> > const ,unsigned long>,void *> > >::_Tree_temp_node_alloc<std::allocator<std::_Tree_node<std::pair<std::basic_string<char,std::char_traits<char>,std::allocator<char> > const ,unsigned long>,void *> > >
PUBLIC	??1?$_Alloc_construct_ptr@V?$allocator@U?$_Tree_node@U?$pair@$$CBV?$basic_string@DU?$char_traits@D@std@@V?$allocator@D@2@@std@@K@std@@PAX@std@@@std@@@std@@QAE@XZ ; std::_Alloc_construct_ptr<std::allocator<std::_Tree_node<std::pair<std::basic_string<char,std::char_traits<char>,std::allocator<char> > const ,unsigned long>,void *> > >::~_Alloc_construct_ptr<std::allocator<std::_Tree_node<std::pair<std::basic_string<char,std::char_traits<char>,std::allocator<char> > const ,unsigned long>,void *> > >
PUBLIC	??0?$_Tree_temp_node_alloc@V?$allocator@U?$_Tree_node@U?$pair@$$CBHUSPetSkillData@CPythonSkill@@@std@@PAX@std@@@std@@@std@@QAE@AAV?$allocator@U?$_Tree_node@U?$pair@$$CBHUSPetSkillData@CPythonSkill@@@std@@PAX@std@@@1@@Z ; std::_Tree_temp_node_alloc<std::allocator<std::_Tree_node<std::pair<int const ,CPythonSkill::SPetSkillData>,void *> > >::_Tree_temp_node_alloc<std::allocator<std::_Tree_node<std::pair<int const ,CPythonSkill::SPetSkillData>,void *> > >
PUBLIC	??1?$_Alloc_construct_ptr@V?$allocator@U?$_Tree_node@U?$pair@$$CBHUSPetSkillData@CPythonSkill@@@std@@PAX@std@@@std@@@std@@QAE@XZ ; std::_Alloc_construct_ptr<std::allocator<std::_Tree_node<std::pair<int const ,CPythonSkill::SPetSkillData>,void *> > >::~_Alloc_construct_ptr<std::allocator<std::_Tree_node<std::pair<int const ,CPythonSkill::SPetSkillData>,void *> > >
PUBLIC	??0?$_Tree_temp_node_alloc@V?$allocator@U?$_Tree_node@U?$pair@$$CBV?$basic_string@DU?$char_traits@D@std@@V?$allocator@D@2@@std@@V12@@std@@PAX@std@@@std@@@std@@QAE@AAV?$allocator@U?$_Tree_node@U?$pair@$$CBV?$basic_string@DU?$char_traits@D@std@@V?$allocator@D@2@@std@@V12@@std@@PAX@std@@@1@@Z ; std::_Tree_temp_node_alloc<std::allocator<std::_Tree_node<std::pair<std::basic_string<char,std::char_traits<char>,std::allocator<char> > const ,std::basic_string<char,std::char_traits<char>,std::allocator<char> > >,void *> > >::_Tree_temp_node_alloc<std::allocator<std::_Tree_node<std::pair<std::basic_string<char,std::char_traits<char>,std::allocator<char> > const ,std::basic_string<char,std::char_traits<char>,std::allocator<char> > >,void *> > >
PUBLIC	??1?$_Alloc_construct_ptr@V?$allocator@U?$_Tree_node@U?$pair@$$CBV?$basic_string@DU?$char_traits@D@std@@V?$allocator@D@2@@std@@V12@@std@@PAX@std@@@std@@@std@@QAE@XZ ; std::_Alloc_construct_ptr<std::allocator<std::_Tree_node<std::pair<std::basic_string<char,std::char_traits<char>,std::allocator<char> > const ,std::basic_string<char,std::char_traits<char>,std::allocator<char> > >,void *> > >::~_Alloc_construct_ptr<std::allocator<std::_Tree_node<std::pair<std::basic_string<char,std::char_traits<char>,std::allocator<char> > const ,std::basic_string<char,std::char_traits<char>,std::allocator<char> > >,void *> > >
PUBLIC	?_Extract@?$_In_place_key_extract_map_impl@KU?$pair@KUSSkillData@CPythonSkill@@@std@@@std@@SAABKABU?$pair@KUSSkillData@CPythonSkill@@@2@@Z ; std::_In_place_key_extract_map_impl<unsigned long,std::pair<unsigned long,CPythonSkill::SSkillData> >::_Extract
PUBLIC	?_Extract@?$_In_place_key_extract_map_impl@HU?$pair@HUSPetSkillData@CPythonSkill@@@std@@@std@@SAABHABU?$pair@HUSPetSkillData@CPythonSkill@@@2@@Z ; std::_In_place_key_extract_map_impl<int,std::pair<int,CPythonSkill::SPetSkillData> >::_Extract
PUBLIC	?_Extract@?$_In_place_key_extract_map_impl@V?$basic_string@DU?$char_traits@D@std@@V?$allocator@D@2@@std@@U?$pair@V?$basic_string@DU?$char_traits@D@std@@V?$allocator@D@2@@std@@W4EWeaponSubTypes@CItemData@@@2@@std@@SAABV?$basic_string@DU?$char_traits@D@std@@V?$allocator@D@2@@2@ABU?$pair@V?$basic_string@DU?$char_traits@D@std@@V?$allocator@D@2@@std@@W4EWeaponSubTypes@CItemData@@@2@@Z ; std::_In_place_key_extract_map_impl<std::basic_string<char,std::char_traits<char>,std::allocator<char> >,std::pair<std::basic_string<char,std::char_traits<char>,std::allocator<char> >,enum CItemData::EWeaponSubTypes> >::_Extract
PUBLIC	?_Extract@?$_In_place_key_extract_map_impl@V?$basic_string@DU?$char_traits@D@std@@V?$allocator@D@2@@std@@U?$pair@V?$basic_string@DU?$char_traits@D@std@@V?$allocator@D@2@@std@@W4EPointTypes@@@2@@std@@SAABV?$basic_string@DU?$char_traits@D@std@@V?$allocator@D@2@@2@ABU?$pair@V?$basic_string@DU?$char_traits@D@std@@V?$allocator@D@2@@std@@W4EPointTypes@@@2@@Z ; std::_In_place_key_extract_map_impl<std::basic_string<char,std::char_traits<char>,std::allocator<char> >,std::pair<std::basic_string<char,std::char_traits<char>,std::allocator<char> >,enum EPointTypes> >::_Extract
PUBLIC	?_Extract@?$_In_place_key_extract_map_impl@V?$basic_string@DU?$char_traits@D@std@@V?$allocator@D@2@@std@@U?$pair@V?$basic_string@DU?$char_traits@D@std@@V?$allocator@D@2@@std@@V12@@2@@std@@SAABV?$basic_string@DU?$char_traits@D@std@@V?$allocator@D@2@@2@ABU?$pair@V?$basic_string@DU?$char_traits@D@std@@V?$allocator@D@2@@std@@V12@@2@@Z ; std::_In_place_key_extract_map_impl<std::basic_string<char,std::char_traits<char>,std::allocator<char> >,std::pair<std::basic_string<char,std::char_traits<char>,std::allocator<char> >,std::basic_string<char,std::char_traits<char>,std::allocator<char> > > >::_Extract
PUBLIC	??0?$_Uninitialized_backout_al@V?$allocator@USAffectDataNew@CPythonSkill@@@std@@@std@@QAE@PAUSAffectDataNew@CPythonSkill@@AAV?$allocator@USAffectDataNew@CPythonSkill@@@1@@Z ; std::_Uninitialized_backout_al<std::allocator<CPythonSkill::SAffectDataNew> >::_Uninitialized_backout_al<std::allocator<CPythonSkill::SAffectDataNew> >
PUBLIC	??1?$_Uninitialized_backout_al@V?$allocator@USAffectDataNew@CPythonSkill@@@std@@@std@@QAE@XZ ; std::_Uninitialized_backout_al<std::allocator<CPythonSkill::SAffectDataNew> >::~_Uninitialized_backout_al<std::allocator<CPythonSkill::SAffectDataNew> >
PUBLIC	?_Release@?$_Uninitialized_backout_al@V?$allocator@USAffectDataNew@CPythonSkill@@@std@@@std@@QAEPAUSAffectDataNew@CPythonSkill@@XZ ; std::_Uninitialized_backout_al<std::allocator<CPythonSkill::SAffectDataNew> >::_Release
PUBLIC	??0?$_Uninitialized_backout_al@V?$allocator@USAffectData@CPythonSkill@@@std@@@std@@QAE@PAUSAffectData@CPythonSkill@@AAV?$allocator@USAffectData@CPythonSkill@@@1@@Z ; std::_Uninitialized_backout_al<std::allocator<CPythonSkill::SAffectData> >::_Uninitialized_backout_al<std::allocator<CPythonSkill::SAffectData> >
PUBLIC	??1?$_Uninitialized_backout_al@V?$allocator@USAffectData@CPythonSkill@@@std@@@std@@QAE@XZ ; std::_Uninitialized_backout_al<std::allocator<CPythonSkill::SAffectData> >::~_Uninitialized_backout_al<std::allocator<CPythonSkill::SAffectData> >
PUBLIC	?_Release@?$_Uninitialized_backout_al@V?$allocator@USAffectData@CPythonSkill@@@std@@@std@@QAEPAUSAffectData@CPythonSkill@@XZ ; std::_Uninitialized_backout_al<std::allocator<CPythonSkill::SAffectData> >::_Release
PUBLIC	??$?0V?$allocator@V?$basic_string@DU?$char_traits@D@std@@V?$allocator@D@2@@std@@@std@@PAV?$basic_string@DU?$char_traits@D@std@@V?$allocator@D@2@@1@PAV21@PAV21@@?$_Compressed_pair@V?$allocator@V?$basic_string@DU?$char_traits@D@std@@V?$allocator@D@2@@std@@@std@@V?$_Vector_val@U?$_Simple_types@V?$basic_string@DU?$char_traits@D@std@@V?$allocator@D@2@@std@@@std@@@2@$00@std@@QAE@U_One_then_variadic_args_t@1@$$QAV?$allocator@V?$basic_string@DU?$char_traits@D@std@@V?$allocator@D@2@@std@@@1@$$QAPAV?$basic_string@DU?$char_traits@D@std@@V?$allocator@D@2@@1@22@Z ; std::_Compressed_pair<std::allocator<std::basic_string<char,std::char_traits<char>,std::allocator<char> > >,std::_Vector_val<std::_Simple_types<std::basic_string<char,std::char_traits<char>,std::allocator<char> > > >,1>::_Compressed_pair<std::allocator<std::basic_string<char,std::char_traits<char>,std::allocator<char> > >,std::_Vector_val<std::_Simple_types<std::basic_string<char,std::char_traits<char>,std::allocator<char> > > >,1><std::allocator<std::basic_string<char,std::char_traits<char>,std::allocator<char> > >,std::basic_string<char,std::char_traits<char>,std::allocator<char> > *,std::basic_string<char,std::char_traits<char>,std::allocator<char> > *,std::basic_string<char,std::char_traits<char>,std::allocator<char> > *>
PUBLIC	??$exchange@PAV?$basic_string@DU?$char_traits@D@std@@V?$allocator@D@2@@std@@$$T@std@@YAPAV?$basic_string@DU?$char_traits@D@std@@V?$allocator@D@2@@0@AAPAV10@$$QA$$T@Z ; std::exchange<std::basic_string<char,std::char_traits<char>,std::allocator<char> > *,std::nullptr_t>
PUBLIC	??$move@AAV?$allocator@V?$basic_string@DU?$char_traits@D@std@@V?$allocator@D@2@@std@@@std@@@std@@YA$$QAV?$allocator@V?$basic_string@DU?$char_traits@D@std@@V?$allocator@D@2@@std@@@0@AAV10@@Z ; std::move<std::allocator<std::basic_string<char,std::char_traits<char>,std::allocator<char> > > &>
PUBLIC	??$_Buyheadnode@V?$allocator@U?$_Tree_node@U?$pair@$$CBHUSPetSkillData@CPythonSkill@@@std@@PAX@std@@@std@@@?$_Tree_node@U?$pair@$$CBHUSPetSkillData@CPythonSkill@@@std@@PAX@std@@SAPAU01@AAV?$allocator@U?$_Tree_node@U?$pair@$$CBHUSPetSkillData@CPythonSkill@@@std@@PAX@std@@@1@@Z ; std::_Tree_node<std::pair<int const ,CPythonSkill::SPetSkillData>,void *>::_Buyheadnode<std::allocator<std::_Tree_node<std::pair<int const ,CPythonSkill::SPetSkillData>,void *> > >
PUBLIC	??$addressof@$$CBV?$_Tree_val@U?$_Tree_simple_types@U?$pair@$$CBHUSPetSkillData@CPythonSkill@@@std@@@std@@@std@@@std@@YAPBV?$_Tree_val@U?$_Tree_simple_types@U?$pair@$$CBHUSPetSkillData@CPythonSkill@@@std@@@std@@@0@ABV10@@Z ; std::addressof<std::_Tree_val<std::_Tree_simple_types<std::pair<int const ,CPythonSkill::SPetSkillData> > > const >
PUBLIC	??$?0V?$allocator@USAffectData@CPythonSkill@@@std@@PAUSAffectData@CPythonSkill@@PAU23@PAU23@@?$_Compressed_pair@V?$allocator@USAffectData@CPythonSkill@@@std@@V?$_Vector_val@U?$_Simple_types@USAffectData@CPythonSkill@@@std@@@2@$00@std@@QAE@U_One_then_variadic_args_t@1@$$QAV?$allocator@USAffectData@CPythonSkill@@@1@$$QAPAUSAffectData@CPythonSkill@@22@Z ; std::_Compressed_pair<std::allocator<CPythonSkill::SAffectData>,std::_Vector_val<std::_Simple_types<CPythonSkill::SAffectData> >,1>::_Compressed_pair<std::allocator<CPythonSkill::SAffectData>,std::_Vector_val<std::_Simple_types<CPythonSkill::SAffectData> >,1><std::allocator<CPythonSkill::SAffectData>,CPythonSkill::SAffectData *,CPythonSkill::SAffectData *,CPythonSkill::SAffectData *>
PUBLIC	??$exchange@PAUSAffectData@CPythonSkill@@$$T@std@@YAPAUSAffectData@CPythonSkill@@AAPAU12@$$QA$$T@Z ; std::exchange<CPythonSkill::SAffectData *,std::nullptr_t>
PUBLIC	??$move@AAV?$allocator@USAffectData@CPythonSkill@@@std@@@std@@YA$$QAV?$allocator@USAffectData@CPythonSkill@@@0@AAV10@@Z ; std::move<std::allocator<CPythonSkill::SAffectData> &>
PUBLIC	??$?0V?$allocator@USAffectDataNew@CPythonSkill@@@std@@PAUSAffectDataNew@CPythonSkill@@PAU23@PAU23@@?$_Compressed_pair@V?$allocator@USAffectDataNew@CPythonSkill@@@std@@V?$_Vector_val@U?$_Simple_types@USAffectDataNew@CPythonSkill@@@std@@@2@$00@std@@QAE@U_One_then_variadic_args_t@1@$$QAV?$allocator@USAffectDataNew@CPythonSkill@@@1@$$QAPAUSAffectDataNew@CPythonSkill@@22@Z ; std::_Compressed_pair<std::allocator<CPythonSkill::SAffectDataNew>,std::_Vector_val<std::_Simple_types<CPythonSkill::SAffectDataNew> >,1>::_Compressed_pair<std::allocator<CPythonSkill::SAffectDataNew>,std::_Vector_val<std::_Simple_types<CPythonSkill::SAffectDataNew> >,1><std::allocator<CPythonSkill::SAffectDataNew>,CPythonSkill::SAffectDataNew *,CPythonSkill::SAffectDataNew *,CPythonSkill::SAffectDataNew *>
PUBLIC	??$exchange@PAUSAffectDataNew@CPythonSkill@@$$T@std@@YAPAUSAffectDataNew@CPythonSkill@@AAPAU12@$$QA$$T@Z ; std::exchange<CPythonSkill::SAffectDataNew *,std::nullptr_t>
PUBLIC	??$move@AAV?$allocator@USAffectDataNew@CPythonSkill@@@std@@@std@@YA$$QAV?$allocator@USAffectDataNew@CPythonSkill@@@0@AAV10@@Z ; std::move<std::allocator<CPythonSkill::SAffectDataNew> &>
PUBLIC	??$?0V?$allocator@USRequireStatData@CPythonSkill@@@std@@PAUSRequireStatData@CPythonSkill@@PAU23@PAU23@@?$_Compressed_pair@V?$allocator@USRequireStatData@CPythonSkill@@@std@@V?$_Vector_val@U?$_Simple_types@USRequireStatData@CPythonSkill@@@std@@@2@$00@std@@QAE@U_One_then_variadic_args_t@1@$$QAV?$allocator@USRequireStatData@CPythonSkill@@@1@$$QAPAUSRequireStatData@CPythonSkill@@22@Z ; std::_Compressed_pair<std::allocator<CPythonSkill::SRequireStatData>,std::_Vector_val<std::_Simple_types<CPythonSkill::SRequireStatData> >,1>::_Compressed_pair<std::allocator<CPythonSkill::SRequireStatData>,std::_Vector_val<std::_Simple_types<CPythonSkill::SRequireStatData> >,1><std::allocator<CPythonSkill::SRequireStatData>,CPythonSkill::SRequireStatData *,CPythonSkill::SRequireStatData *,CPythonSkill::SRequireStatData *>
PUBLIC	??$exchange@PAUSRequireStatData@CPythonSkill@@$$T@std@@YAPAUSRequireStatData@CPythonSkill@@AAPAU12@$$QA$$T@Z ; std::exchange<CPythonSkill::SRequireStatData *,std::nullptr_t>
PUBLIC	??$move@AAV?$allocator@USRequireStatData@CPythonSkill@@@std@@@std@@YA$$QAV?$allocator@USRequireStatData@CPythonSkill@@@0@AAV10@@Z ; std::move<std::allocator<CPythonSkill::SRequireStatData> &>
PUBLIC	??$_Buyheadnode@V?$allocator@U?$_Tree_node@U?$pair@$$CBKUSSkillData@CPythonSkill@@@std@@PAX@std@@@std@@@?$_Tree_node@U?$pair@$$CBKUSSkillData@CPythonSkill@@@std@@PAX@std@@SAPAU01@AAV?$allocator@U?$_Tree_node@U?$pair@$$CBKUSSkillData@CPythonSkill@@@std@@PAX@std@@@1@@Z ; std::_Tree_node<std::pair<unsigned long const ,CPythonSkill::SSkillData>,void *>::_Buyheadnode<std::allocator<std::_Tree_node<std::pair<unsigned long const ,CPythonSkill::SSkillData>,void *> > >
PUBLIC	??$addressof@$$CBV?$_Tree_val@U?$_Tree_simple_types@U?$pair@$$CBKUSSkillData@CPythonSkill@@@std@@@std@@@std@@@std@@YAPBV?$_Tree_val@U?$_Tree_simple_types@U?$pair@$$CBKUSSkillData@CPythonSkill@@@std@@@std@@@0@ABV10@@Z ; std::addressof<std::_Tree_val<std::_Tree_simple_types<std::pair<unsigned long const ,CPythonSkill::SSkillData> > > const >
PUBLIC	??$_Buyheadnode@V?$allocator@U?$_Tree_node@U?$pair@$$CBV?$basic_string@DU?$char_traits@D@std@@V?$allocator@D@2@@std@@K@std@@PAX@std@@@std@@@?$_Tree_node@U?$pair@$$CBV?$basic_string@DU?$char_traits@D@std@@V?$allocator@D@2@@std@@K@std@@PAX@std@@SAPAU01@AAV?$allocator@U?$_Tree_node@U?$pair@$$CBV?$basic_string@DU?$char_traits@D@std@@V?$allocator@D@2@@std@@K@std@@PAX@std@@@1@@Z ; std::_Tree_node<std::pair<std::basic_string<char,std::char_traits<char>,std::allocator<char> > const ,unsigned long>,void *>::_Buyheadnode<std::allocator<std::_Tree_node<std::pair<std::basic_string<char,std::char_traits<char>,std::allocator<char> > const ,unsigned long>,void *> > >
PUBLIC	??$addressof@$$CBV?$_Tree_val@U?$_Tree_simple_types@U?$pair@$$CBV?$basic_string@DU?$char_traits@D@std@@V?$allocator@D@2@@std@@K@std@@@std@@@std@@@std@@YAPBV?$_Tree_val@U?$_Tree_simple_types@U?$pair@$$CBV?$basic_string@DU?$char_traits@D@std@@V?$allocator@D@2@@std@@K@std@@@std@@@0@ABV10@@Z ; std::addressof<std::_Tree_val<std::_Tree_simple_types<std::pair<std::basic_string<char,std::char_traits<char>,std::allocator<char> > const ,unsigned long> > > const >
PUBLIC	??$_Buyheadnode@V?$allocator@U?$_Tree_node@U?$pair@$$CBV?$basic_string@DU?$char_traits@D@std@@V?$allocator@D@2@@std@@V12@@std@@PAX@std@@@std@@@?$_Tree_node@U?$pair@$$CBV?$basic_string@DU?$char_traits@D@std@@V?$allocator@D@2@@std@@V12@@std@@PAX@std@@SAPAU01@AAV?$allocator@U?$_Tree_node@U?$pair@$$CBV?$basic_string@DU?$char_traits@D@std@@V?$allocator@D@2@@std@@V12@@std@@PAX@std@@@1@@Z ; std::_Tree_node<std::pair<std::basic_string<char,std::char_traits<char>,std::allocator<char> > const ,std::basic_string<char,std::char_traits<char>,std::allocator<char> > >,void *>::_Buyheadnode<std::allocator<std::_Tree_node<std::pair<std::basic_string<char,std::char_traits<char>,std::allocator<char> > const ,std::basic_string<char,std::char_traits<char>,std::allocator<char> > >,void *> > >
PUBLIC	??$addressof@$$CBV?$_Tree_val@U?$_Tree_simple_types@U?$pair@$$CBV?$basic_string@DU?$char_traits@D@std@@V?$allocator@D@2@@std@@V12@@std@@@std@@@std@@@std@@YAPBV?$_Tree_val@U?$_Tree_simple_types@U?$pair@$$CBV?$basic_string@DU?$char_traits@D@std@@V?$allocator@D@2@@std@@V12@@std@@@std@@@0@ABV10@@Z ; std::addressof<std::_Tree_val<std::_Tree_simple_types<std::pair<std::basic_string<char,std::char_traits<char>,std::allocator<char> > const ,std::basic_string<char,std::char_traits<char>,std::allocator<char> > > > > const >
PUBLIC	??$exchange@PAU?$_Tree_node@U?$pair@$$CBKUSSkillData@CPythonSkill@@@std@@PAX@std@@$$T@std@@YAPAU?$_Tree_node@U?$pair@$$CBKUSSkillData@CPythonSkill@@@std@@PAX@0@AAPAU10@$$QA$$T@Z ; std::exchange<std::_Tree_node<std::pair<unsigned long const ,CPythonSkill::SSkillData>,void *> *,std::nullptr_t>
PUBLIC	??$destroy@U?$pair@$$CBV?$basic_string@DU?$char_traits@D@std@@V?$allocator@D@2@@std@@K@std@@@?$_Default_allocator_traits@V?$allocator@U?$_Tree_node@U?$pair@$$CBV?$basic_string@DU?$char_traits@D@std@@V?$allocator@D@2@@std@@K@std@@PAX@std@@@std@@@std@@SAXAAV?$allocator@U?$_Tree_node@U?$pair@$$CBV?$basic_string@DU?$char_traits@D@std@@V?$allocator@D@2@@std@@K@std@@PAX@std@@@1@QAU?$pair@$$CBV?$basic_string@DU?$char_traits@D@std@@V?$allocator@D@2@@std@@K@1@@Z ; std::_Default_allocator_traits<std::allocator<std::_Tree_node<std::pair<std::basic_string<char,std::char_traits<char>,std::allocator<char> > const ,unsigned long>,void *> > >::destroy<std::pair<std::basic_string<char,std::char_traits<char>,std::allocator<char> > const ,unsigned long> >
PUBLIC	??$exchange@PAU?$_Tree_node@U?$pair@$$CBV?$basic_string@DU?$char_traits@D@std@@V?$allocator@D@2@@std@@K@std@@PAX@std@@$$T@std@@YAPAU?$_Tree_node@U?$pair@$$CBV?$basic_string@DU?$char_traits@D@std@@V?$allocator@D@2@@std@@K@std@@PAX@0@AAPAU10@$$QA$$T@Z ; std::exchange<std::_Tree_node<std::pair<std::basic_string<char,std::char_traits<char>,std::allocator<char> > const ,unsigned long>,void *> *,std::nullptr_t>
PUBLIC	??$exchange@PAU?$_Tree_node@U?$pair@$$CBHUSPetSkillData@CPythonSkill@@@std@@PAX@std@@$$T@std@@YAPAU?$_Tree_node@U?$pair@$$CBHUSPetSkillData@CPythonSkill@@@std@@PAX@0@AAPAU10@$$QA$$T@Z ; std::exchange<std::_Tree_node<std::pair<int const ,CPythonSkill::SPetSkillData>,void *> *,std::nullptr_t>
PUBLIC	??$destroy@U?$pair@$$CBV?$basic_string@DU?$char_traits@D@std@@V?$allocator@D@2@@std@@V12@@std@@@?$_Default_allocator_traits@V?$allocator@U?$_Tree_node@U?$pair@$$CBV?$basic_string@DU?$char_traits@D@std@@V?$allocator@D@2@@std@@V12@@std@@PAX@std@@@std@@@std@@SAXAAV?$allocator@U?$_Tree_node@U?$pair@$$CBV?$basic_string@DU?$char_traits@D@std@@V?$allocator@D@2@@std@@V12@@std@@PAX@std@@@1@QAU?$pair@$$CBV?$basic_string@DU?$char_traits@D@std@@V?$allocator@D@2@@std@@V12@@1@@Z ; std::_Default_allocator_traits<std::allocator<std::_Tree_node<std::pair<std::basic_string<char,std::char_traits<char>,std::allocator<char> > const ,std::basic_string<char,std::char_traits<char>,std::allocator<char> > >,void *> > >::destroy<std::pair<std::basic_string<char,std::char_traits<char>,std::allocator<char> > const ,std::basic_string<char,std::char_traits<char>,std::allocator<char> > > >
PUBLIC	??$exchange@PAU?$_Tree_node@U?$pair@$$CBV?$basic_string@DU?$char_traits@D@std@@V?$allocator@D@2@@std@@V12@@std@@PAX@std@@$$T@std@@YAPAU?$_Tree_node@U?$pair@$$CBV?$basic_string@DU?$char_traits@D@std@@V?$allocator@D@2@@std@@V12@@std@@PAX@0@AAPAU10@$$QA$$T@Z ; std::exchange<std::_Tree_node<std::pair<std::basic_string<char,std::char_traits<char>,std::allocator<char> > const ,std::basic_string<char,std::char_traits<char>,std::allocator<char> > >,void *> *,std::nullptr_t>
PUBLIC	??$_Uninitialized_copy@PAUSAffectData@CPythonSkill@@PAU12@V?$allocator@USAffectData@CPythonSkill@@@std@@@std@@YAPAUSAffectData@CPythonSkill@@PAU12@00AAV?$allocator@USAffectData@CPythonSkill@@@0@@Z ; std::_Uninitialized_copy<CPythonSkill::SAffectData *,CPythonSkill::SAffectData *,std::allocator<CPythonSkill::SAffectData> >
PUBLIC	??$_Unwrap_sent@PAUSAffectData@CPythonSkill@@PAU12@@ranges@std@@YA?A_T$$QAPAUSAffectData@CPythonSkill@@@Z ; std::ranges::_Unwrap_sent<CPythonSkill::SAffectData *,CPythonSkill::SAffectData *>
PUBLIC	??$_Unwrap_iter@PAUSAffectData@CPythonSkill@@PAU12@@ranges@std@@YA?A_T$$QAPAUSAffectData@CPythonSkill@@@Z ; std::ranges::_Unwrap_iter<CPythonSkill::SAffectData *,CPythonSkill::SAffectData *>
PUBLIC	??$forward@ABQAUSAffectData@CPythonSkill@@@std@@YAABQAUSAffectData@CPythonSkill@@ABQAU12@@Z ; std::forward<CPythonSkill::SAffectData * const &>
PUBLIC	??$forward@V?$allocator@USAffectData@CPythonSkill@@@std@@@std@@YA$$QAV?$allocator@USAffectData@CPythonSkill@@@0@AAV10@@Z ; std::forward<std::allocator<CPythonSkill::SAffectData> >
PUBLIC	??$_Uninitialized_copy@PAUSAffectDataNew@CPythonSkill@@PAU12@V?$allocator@USAffectDataNew@CPythonSkill@@@std@@@std@@YAPAUSAffectDataNew@CPythonSkill@@PAU12@00AAV?$allocator@USAffectDataNew@CPythonSkill@@@0@@Z ; std::_Uninitialized_copy<CPythonSkill::SAffectDataNew *,CPythonSkill::SAffectDataNew *,std::allocator<CPythonSkill::SAffectDataNew> >
PUBLIC	??$_Unwrap_sent@PAUSAffectDataNew@CPythonSkill@@PAU12@@ranges@std@@YA?A_T$$QAPAUSAffectDataNew@CPythonSkill@@@Z ; std::ranges::_Unwrap_sent<CPythonSkill::SAffectDataNew *,CPythonSkill::SAffectDataNew *>
PUBLIC	??$_Unwrap_iter@PAUSAffectDataNew@CPythonSkill@@PAU12@@ranges@std@@YA?A_T$$QAPAUSAffectDataNew@CPythonSkill@@@Z ; std::ranges::_Unwrap_iter<CPythonSkill::SAffectDataNew *,CPythonSkill::SAffectDataNew *>
PUBLIC	??$forward@ABQAUSAffectDataNew@CPythonSkill@@@std@@YAABQAUSAffectDataNew@CPythonSkill@@ABQAU12@@Z ; std::forward<CPythonSkill::SAffectDataNew * const &>
PUBLIC	??$forward@V?$allocator@USAffectDataNew@CPythonSkill@@@std@@@std@@YA$$QAV?$allocator@USAffectDataNew@CPythonSkill@@@0@AAV10@@Z ; std::forward<std::allocator<CPythonSkill::SAffectDataNew> >
PUBLIC	??$_To_address@PAUSRequireStatData@CPythonSkill@@@std@@YA?A_PABQAUSRequireStatData@CPythonSkill@@@Z ; std::_To_address<CPythonSkill::SRequireStatData *>
PUBLIC	??$_Uninitialized_copy@PAUSRequireStatData@CPythonSkill@@PAU12@V?$allocator@USRequireStatData@CPythonSkill@@@std@@@std@@YAPAUSRequireStatData@CPythonSkill@@PAU12@00AAV?$allocator@USRequireStatData@CPythonSkill@@@0@@Z ; std::_Uninitialized_copy<CPythonSkill::SRequireStatData *,CPythonSkill::SRequireStatData *,std::allocator<CPythonSkill::SRequireStatData> >
PUBLIC	??$_Unwrap_sent@PAUSRequireStatData@CPythonSkill@@PAU12@@ranges@std@@YA?A_T$$QAPAUSRequireStatData@CPythonSkill@@@Z ; std::ranges::_Unwrap_sent<CPythonSkill::SRequireStatData *,CPythonSkill::SRequireStatData *>
PUBLIC	??$_Unwrap_iter@PAUSRequireStatData@CPythonSkill@@PAU12@@ranges@std@@YA?A_T$$QAPAUSRequireStatData@CPythonSkill@@@Z ; std::ranges::_Unwrap_iter<CPythonSkill::SRequireStatData *,CPythonSkill::SRequireStatData *>
PUBLIC	??$forward@ABQAUSRequireStatData@CPythonSkill@@@std@@YAABQAUSRequireStatData@CPythonSkill@@ABQAU12@@Z ; std::forward<CPythonSkill::SRequireStatData * const &>
PUBLIC	??$forward@V?$allocator@USRequireStatData@CPythonSkill@@@std@@@std@@YA$$QAV?$allocator@USRequireStatData@CPythonSkill@@@0@AAV10@@Z ; std::forward<std::allocator<CPythonSkill::SRequireStatData> >
PUBLIC	??$_Emplace_back@$$V@?$_Uninitialized_backout_al@V?$allocator@V?$basic_string@DU?$char_traits@D@std@@V?$allocator@D@2@@std@@@std@@@std@@QAEXXZ ; std::_Uninitialized_backout_al<std::allocator<std::basic_string<char,std::char_traits<char>,std::allocator<char> > > >::_Emplace_back<>
PUBLIC	??$forward@PAU?$_Tree_node@U?$pair@$$CBV?$basic_string@DU?$char_traits@D@std@@V?$allocator@D@2@@std@@V12@@std@@PAX@std@@@std@@YA$$QAPAU?$_Tree_node@U?$pair@$$CBV?$basic_string@DU?$char_traits@D@std@@V?$allocator@D@2@@std@@V12@@std@@PAX@0@AAPAU10@@Z ; std::forward<std::_Tree_node<std::pair<std::basic_string<char,std::char_traits<char>,std::allocator<char> > const ,std::basic_string<char,std::char_traits<char>,std::allocator<char> > >,void *> *>
PUBLIC	??$forward@ABQAU?$_Tree_node@U?$pair@$$CBV?$basic_string@DU?$char_traits@D@std@@V?$allocator@D@2@@std@@V12@@std@@PAX@std@@@std@@YAABQAU?$_Tree_node@U?$pair@$$CBV?$basic_string@DU?$char_traits@D@std@@V?$allocator@D@2@@std@@V12@@std@@PAX@0@ABQAU10@@Z ; std::forward<std::_Tree_node<std::pair<std::basic_string<char,std::char_traits<char>,std::allocator<char> > const ,std::basic_string<char,std::char_traits<char>,std::allocator<char> > >,void *> * const &>
PUBLIC	??$_Construct_in_place@PAU?$_Tree_node@U?$pair@$$CBV?$basic_string@DU?$char_traits@D@std@@V?$allocator@D@2@@std@@V12@@std@@PAX@std@@AAPAU12@@std@@YAXAAPAU?$_Tree_node@U?$pair@$$CBV?$basic_string@DU?$char_traits@D@std@@V?$allocator@D@2@@std@@V12@@std@@PAX@0@0@Z ; std::_Construct_in_place<std::_Tree_node<std::pair<std::basic_string<char,std::char_traits<char>,std::allocator<char> > const ,std::basic_string<char,std::char_traits<char>,std::allocator<char> > >,void *> *,std::_Tree_node<std::pair<std::basic_string<char,std::char_traits<char>,std::allocator<char> > const ,std::basic_string<char,std::char_traits<char>,std::allocator<char> > >,void *> * &>
PUBLIC	??$construct@U?$pair@$$CBV?$basic_string@DU?$char_traits@D@std@@V?$allocator@D@2@@std@@V12@@std@@ABUpiecewise_construct_t@2@V?$tuple@ABV?$basic_string@DU?$char_traits@D@std@@V?$allocator@D@2@@std@@@2@V?$tuple@$$V@2@@?$_Default_allocator_traits@V?$allocator@U?$_Tree_node@U?$pair@$$CBV?$basic_string@DU?$char_traits@D@std@@V?$allocator@D@2@@std@@V12@@std@@PAX@std@@@std@@@std@@SAXAAV?$allocator@U?$_Tree_node@U?$pair@$$CBV?$basic_string@DU?$char_traits@D@std@@V?$allocator@D@2@@std@@V12@@std@@PAX@std@@@1@QAU?$pair@$$CBV?$basic_string@DU?$char_traits@D@std@@V?$allocator@D@2@@std@@V12@@1@ABUpiecewise_construct_t@1@$$QAV?$tuple@ABV?$basic_string@DU?$char_traits@D@std@@V?$allocator@D@2@@std@@@1@$$QAV?$tuple@$$V@1@@Z ; std::_Default_allocator_traits<std::allocator<std::_Tree_node<std::pair<std::basic_string<char,std::char_traits<char>,std::allocator<char> > const ,std::basic_string<char,std::char_traits<char>,std::allocator<char> > >,void *> > >::construct<std::pair<std::basic_string<char,std::char_traits<char>,std::allocator<char> > const ,std::basic_string<char,std::char_traits<char>,std::allocator<char> > >,std::piecewise_construct_t const &,std::tuple<std::basic_string<char,std::char_traits<char>,std::allocator<char> > const &>,std::tuple<> >
PUBLIC	??$forward@PAU?$_Tree_node@U?$pair@$$CBHUSPetSkillData@CPythonSkill@@@std@@PAX@std@@@std@@YA$$QAPAU?$_Tree_node@U?$pair@$$CBHUSPetSkillData@CPythonSkill@@@std@@PAX@0@AAPAU10@@Z ; std::forward<std::_Tree_node<std::pair<int const ,CPythonSkill::SPetSkillData>,void *> *>
PUBLIC	??$forward@ABQAU?$_Tree_node@U?$pair@$$CBHUSPetSkillData@CPythonSkill@@@std@@PAX@std@@@std@@YAABQAU?$_Tree_node@U?$pair@$$CBHUSPetSkillData@CPythonSkill@@@std@@PAX@0@ABQAU10@@Z ; std::forward<std::_Tree_node<std::pair<int const ,CPythonSkill::SPetSkillData>,void *> * const &>
PUBLIC	??$_Construct_in_place@PAU?$_Tree_node@U?$pair@$$CBHUSPetSkillData@CPythonSkill@@@std@@PAX@std@@AAPAU12@@std@@YAXAAPAU?$_Tree_node@U?$pair@$$CBHUSPetSkillData@CPythonSkill@@@std@@PAX@0@0@Z ; std::_Construct_in_place<std::_Tree_node<std::pair<int const ,CPythonSkill::SPetSkillData>,void *> *,std::_Tree_node<std::pair<int const ,CPythonSkill::SPetSkillData>,void *> * &>
PUBLIC	??$construct@U?$pair@$$CBHUSPetSkillData@CPythonSkill@@@std@@ABUpiecewise_construct_t@2@V?$tuple@ABH@2@V?$tuple@$$V@2@@?$_Default_allocator_traits@V?$allocator@U?$_Tree_node@U?$pair@$$CBHUSPetSkillData@CPythonSkill@@@std@@PAX@std@@@std@@@std@@SAXAAV?$allocator@U?$_Tree_node@U?$pair@$$CBHUSPetSkillData@CPythonSkill@@@std@@PAX@std@@@1@QAU?$pair@$$CBHUSPetSkillData@CPythonSkill@@@1@ABUpiecewise_construct_t@1@$$QAV?$tuple@ABH@1@$$QAV?$tuple@$$V@1@@Z ; std::_Default_allocator_traits<std::allocator<std::_Tree_node<std::pair<int const ,CPythonSkill::SPetSkillData>,void *> > >::construct<std::pair<int const ,CPythonSkill::SPetSkillData>,std::piecewise_construct_t const &,std::tuple<int const &>,std::tuple<> >
PUBLIC	??$_Destroy_in_place@PAU?$_Tree_node@U?$pair@$$CBHUSPetSkillData@CPythonSkill@@@std@@PAX@std@@@std@@YAXAAPAU?$_Tree_node@U?$pair@$$CBHUSPetSkillData@CPythonSkill@@@std@@PAX@0@@Z ; std::_Destroy_in_place<std::_Tree_node<std::pair<int const ,CPythonSkill::SPetSkillData>,void *> *>
PUBLIC	??$destroy@U?$pair@$$CBHUSPetSkillData@CPythonSkill@@@std@@@?$_Default_allocator_traits@V?$allocator@U?$_Tree_node@U?$pair@$$CBHUSPetSkillData@CPythonSkill@@@std@@PAX@std@@@std@@@std@@SAXAAV?$allocator@U?$_Tree_node@U?$pair@$$CBHUSPetSkillData@CPythonSkill@@@std@@PAX@std@@@1@QAU?$pair@$$CBHUSPetSkillData@CPythonSkill@@@1@@Z ; std::_Default_allocator_traits<std::allocator<std::_Tree_node<std::pair<int const ,CPythonSkill::SPetSkillData>,void *> > >::destroy<std::pair<int const ,CPythonSkill::SPetSkillData> >
PUBLIC	??$_Kfn@$$CBHUSPetSkillData@CPythonSkill@@@?$_Tmap_traits@HUSPetSkillData@CPythonSkill@@U?$less@H@std@@V?$allocator@U?$pair@$$CBHUSPetSkillData@CPythonSkill@@@std@@@4@$0A@@std@@SAABHABU?$pair@$$CBHUSPetSkillData@CPythonSkill@@@1@@Z ; std::_Tmap_traits<int,CPythonSkill::SPetSkillData,std::less<int>,std::allocator<std::pair<int const ,CPythonSkill::SPetSkillData> >,0>::_Kfn<int const ,CPythonSkill::SPetSkillData>
PUBLIC	??$construct@USAffectData@CPythonSkill@@U12@@?$_Default_allocator_traits@V?$allocator@USAffectData@CPythonSkill@@@std@@@std@@SAXAAV?$allocator@USAffectData@CPythonSkill@@@1@QAUSAffectData@CPythonSkill@@$$QAU34@@Z ; std::_Default_allocator_traits<std::allocator<CPythonSkill::SAffectData> >::construct<CPythonSkill::SAffectData,CPythonSkill::SAffectData>
PUBLIC	??$_Construct_in_place@USAffectData@CPythonSkill@@U12@@std@@YAXAAUSAffectData@CPythonSkill@@$$QAU12@@Z ; std::_Construct_in_place<CPythonSkill::SAffectData,CPythonSkill::SAffectData>
PUBLIC	??$_Emplace_back@$$V@?$_Uninitialized_backout_al@V?$allocator@USAffectData@CPythonSkill@@@std@@@std@@QAEXXZ ; std::_Uninitialized_backout_al<std::allocator<CPythonSkill::SAffectData> >::_Emplace_back<>
PUBLIC	??$_Uninitialized_move@PAUSAffectData@CPythonSkill@@V?$allocator@USAffectData@CPythonSkill@@@std@@@std@@YAPAUSAffectData@CPythonSkill@@QAU12@0PAU12@AAV?$allocator@USAffectData@CPythonSkill@@@0@@Z ; std::_Uninitialized_move<CPythonSkill::SAffectData *,std::allocator<CPythonSkill::SAffectData> >
PUBLIC	??$_Get_unwrapped@ABQAUSAffectData@CPythonSkill@@@std@@YA?A_TABQAUSAffectData@CPythonSkill@@@Z ; std::_Get_unwrapped<CPythonSkill::SAffectData * const &>
PUBLIC	??$_Allocate_at_least_helper@V?$allocator@USAffectData@CPythonSkill@@@std@@@std@@YAPAUSAffectData@CPythonSkill@@AAV?$allocator@USAffectData@CPythonSkill@@@0@AAI@Z ; std::_Allocate_at_least_helper<std::allocator<CPythonSkill::SAffectData> >
PUBLIC	??$destroy_at@USAffectData@CPythonSkill@@@std@@YAXQAUSAffectData@CPythonSkill@@@Z ; std::destroy_at<CPythonSkill::SAffectData>
PUBLIC	??$_Emplace_back@USAffectDataNew@CPythonSkill@@@?$_Uninitialized_backout_al@V?$allocator@USAffectDataNew@CPythonSkill@@@std@@@std@@QAEX$$QAUSAffectDataNew@CPythonSkill@@@Z ; std::_Uninitialized_backout_al<std::allocator<CPythonSkill::SAffectDataNew> >::_Emplace_back<CPythonSkill::SAffectDataNew>
PUBLIC	??$move@AAUSAffectDataNew@CPythonSkill@@@std@@YA$$QAUSAffectDataNew@CPythonSkill@@AAU12@@Z ; std::move<CPythonSkill::SAffectDataNew &>
PUBLIC	??1SAffectDataNew@CPythonSkill@@QAE@XZ		; CPythonSkill::SAffectDataNew::~SAffectDataNew
PUBLIC	??$destroy_at@USAffectDataNew@CPythonSkill@@@std@@YAXQAUSAffectDataNew@CPythonSkill@@@Z ; std::destroy_at<CPythonSkill::SAffectDataNew>
PUBLIC	??$forward@ABQAU?$_Tree_node@U?$pair@$$CBKUSSkillData@CPythonSkill@@@std@@PAX@std@@@std@@YAABQAU?$_Tree_node@U?$pair@$$CBKUSSkillData@CPythonSkill@@@std@@PAX@0@ABQAU10@@Z ; std::forward<std::_Tree_node<std::pair<unsigned long const ,CPythonSkill::SSkillData>,void *> * const &>
PUBLIC	??$construct@U?$pair@$$CBKUSSkillData@CPythonSkill@@@std@@ABUpiecewise_construct_t@2@V?$tuple@ABK@2@V?$tuple@$$V@2@@?$_Default_allocator_traits@V?$allocator@U?$_Tree_node@U?$pair@$$CBKUSSkillData@CPythonSkill@@@std@@PAX@std@@@std@@@std@@SAXAAV?$allocator@U?$_Tree_node@U?$pair@$$CBKUSSkillData@CPythonSkill@@@std@@PAX@std@@@1@QAU?$pair@$$CBKUSSkillData@CPythonSkill@@@1@ABUpiecewise_construct_t@1@$$QAV?$tuple@ABK@1@$$QAV?$tuple@$$V@1@@Z ; std::_Default_allocator_traits<std::allocator<std::_Tree_node<std::pair<unsigned long const ,CPythonSkill::SSkillData>,void *> > >::construct<std::pair<unsigned long const ,CPythonSkill::SSkillData>,std::piecewise_construct_t const &,std::tuple<unsigned long const &>,std::tuple<> >
PUBLIC	??$_Destroy_in_place@PAU?$_Tree_node@U?$pair@$$CBKUSSkillData@CPythonSkill@@@std@@PAX@std@@@std@@YAXAAPAU?$_Tree_node@U?$pair@$$CBKUSSkillData@CPythonSkill@@@std@@PAX@0@@Z ; std::_Destroy_in_place<std::_Tree_node<std::pair<unsigned long const ,CPythonSkill::SSkillData>,void *> *>
PUBLIC	??$destroy@U?$pair@$$CBKUSSkillData@CPythonSkill@@@std@@@?$_Default_allocator_traits@V?$allocator@U?$_Tree_node@U?$pair@$$CBKUSSkillData@CPythonSkill@@@std@@PAX@std@@@std@@@std@@SAXAAV?$allocator@U?$_Tree_node@U?$pair@$$CBKUSSkillData@CPythonSkill@@@std@@PAX@std@@@1@QAU?$pair@$$CBKUSSkillData@CPythonSkill@@@1@@Z ; std::_Default_allocator_traits<std::allocator<std::_Tree_node<std::pair<unsigned long const ,CPythonSkill::SSkillData>,void *> > >::destroy<std::pair<unsigned long const ,CPythonSkill::SSkillData> >
PUBLIC	??$_Destroy_in_place@PAU?$_Tree_node@U?$pair@$$CBV?$basic_string@DU?$char_traits@D@std@@V?$allocator@D@2@@std@@K@std@@PAX@std@@@std@@YAXAAPAU?$_Tree_node@U?$pair@$$CBV?$basic_string@DU?$char_traits@D@std@@V?$allocator@D@2@@std@@K@std@@PAX@0@@Z ; std::_Destroy_in_place<std::_Tree_node<std::pair<std::basic_string<char,std::char_traits<char>,std::allocator<char> > const ,unsigned long>,void *> *>
PUBLIC	??$_Freenode@V?$allocator@U?$_Tree_node@U?$pair@$$CBV?$basic_string@DU?$char_traits@D@std@@V?$allocator@D@2@@std@@K@std@@PAX@std@@@std@@@?$_Tree_node@U?$pair@$$CBV?$basic_string@DU?$char_traits@D@std@@V?$allocator@D@2@@std@@K@std@@PAX@std@@SAXAAV?$allocator@U?$_Tree_node@U?$pair@$$CBV?$basic_string@DU?$char_traits@D@std@@V?$allocator@D@2@@std@@K@std@@PAX@std@@@1@PAU01@@Z ; std::_Tree_node<std::pair<std::basic_string<char,std::char_traits<char>,std::allocator<char> > const ,unsigned long>,void *>::_Freenode<std::allocator<std::_Tree_node<std::pair<std::basic_string<char,std::char_traits<char>,std::allocator<char> > const ,unsigned long>,void *> > >
PUBLIC	??$exchange@PAU?$_Tree_node@U?$pair@$$CBV?$basic_string@DU?$char_traits@D@std@@V?$allocator@D@2@@std@@K@std@@PAX@std@@AAPAU12@@std@@YAPAU?$_Tree_node@U?$pair@$$CBV?$basic_string@DU?$char_traits@D@std@@V?$allocator@D@2@@std@@K@std@@PAX@0@AAPAU10@0@Z ; std::exchange<std::_Tree_node<std::pair<std::basic_string<char,std::char_traits<char>,std::allocator<char> > const ,unsigned long>,void *> *,std::_Tree_node<std::pair<std::basic_string<char,std::char_traits<char>,std::allocator<char> > const ,unsigned long>,void *> * &>
PUBLIC	??$_Destroy_in_place@PAU?$_Tree_node@U?$pair@$$CBV?$basic_string@DU?$char_traits@D@std@@V?$allocator@D@2@@std@@V12@@std@@PAX@std@@@std@@YAXAAPAU?$_Tree_node@U?$pair@$$CBV?$basic_string@DU?$char_traits@D@std@@V?$allocator@D@2@@std@@V12@@std@@PAX@0@@Z ; std::_Destroy_in_place<std::_Tree_node<std::pair<std::basic_string<char,std::char_traits<char>,std::allocator<char> > const ,std::basic_string<char,std::char_traits<char>,std::allocator<char> > >,void *> *>
PUBLIC	??$_Freenode@V?$allocator@U?$_Tree_node@U?$pair@$$CBV?$basic_string@DU?$char_traits@D@std@@V?$allocator@D@2@@std@@V12@@std@@PAX@std@@@std@@@?$_Tree_node@U?$pair@$$CBV?$basic_string@DU?$char_traits@D@std@@V?$allocator@D@2@@std@@V12@@std@@PAX@std@@SAXAAV?$allocator@U?$_Tree_node@U?$pair@$$CBV?$basic_string@DU?$char_traits@D@std@@V?$allocator@D@2@@std@@V12@@std@@PAX@std@@@1@PAU01@@Z ; std::_Tree_node<std::pair<std::basic_string<char,std::char_traits<char>,std::allocator<char> > const ,std::basic_string<char,std::char_traits<char>,std::allocator<char> > >,void *>::_Freenode<std::allocator<std::_Tree_node<std::pair<std::basic_string<char,std::char_traits<char>,std::allocator<char> > const ,std::basic_string<char,std::char_traits<char>,std::allocator<char> > >,void *> > >
PUBLIC	??$exchange@PAU?$_Tree_node@U?$pair@$$CBV?$basic_string@DU?$char_traits@D@std@@V?$allocator@D@2@@std@@V12@@std@@PAX@std@@AAPAU12@@std@@YAPAU?$_Tree_node@U?$pair@$$CBV?$basic_string@DU?$char_traits@D@std@@V?$allocator@D@2@@std@@V12@@std@@PAX@0@AAPAU10@0@Z ; std::exchange<std::_Tree_node<std::pair<std::basic_string<char,std::char_traits<char>,std::allocator<char> > const ,std::basic_string<char,std::char_traits<char>,std::allocator<char> > >,void *> *,std::_Tree_node<std::pair<std::basic_string<char,std::char_traits<char>,std::allocator<char> > const ,std::basic_string<char,std::char_traits<char>,std::allocator<char> > >,void *> * &>
PUBLIC	??$_Kfn@$$CBV?$basic_string@DU?$char_traits@D@std@@V?$allocator@D@2@@std@@V12@@?$_Tmap_traits@V?$basic_string@DU?$char_traits@D@std@@V?$allocator@D@2@@std@@V12@U?$less@V?$basic_string@DU?$char_traits@D@std@@V?$allocator@D@2@@std@@@2@V?$allocator@U?$pair@$$CBV?$basic_string@DU?$char_traits@D@std@@V?$allocator@D@2@@std@@V12@@std@@@2@$0A@@std@@SAABV?$basic_string@DU?$char_traits@D@std@@V?$allocator@D@2@@1@ABU?$pair@$$CBV?$basic_string@DU?$char_traits@D@std@@V?$allocator@D@2@@std@@V12@@1@@Z ; std::_Tmap_traits<std::basic_string<char,std::char_traits<char>,std::allocator<char> >,std::basic_string<char,std::char_traits<char>,std::allocator<char> >,std::less<std::basic_string<char,std::char_traits<char>,std::allocator<char> > >,std::allocator<std::pair<std::basic_string<char,std::char_traits<char>,std::allocator<char> > const ,std::basic_string<char,std::char_traits<char>,std::allocator<char> > > >,0>::_Kfn<std::basic_string<char,std::char_traits<char>,std::allocator<char> > const ,std::basic_string<char,std::char_traits<char>,std::allocator<char> > >
PUBLIC	??$forward@V?$_Tree_iterator@V?$_Tree_val@U?$_Tree_simple_types@U?$pair@$$CBV?$basic_string@DU?$char_traits@D@std@@V?$allocator@D@2@@std@@V12@@std@@@std@@@std@@@std@@@std@@YA$$QAV?$_Tree_iterator@V?$_Tree_val@U?$_Tree_simple_types@U?$pair@$$CBV?$basic_string@DU?$char_traits@D@std@@V?$allocator@D@2@@std@@V12@@std@@@std@@@std@@@0@AAV10@@Z ; std::forward<std::_Tree_iterator<std::_Tree_val<std::_Tree_simple_types<std::pair<std::basic_string<char,std::char_traits<char>,std::allocator<char> > const ,std::basic_string<char,std::char_traits<char>,std::allocator<char> > > > > > >
PUBLIC	??$?0AAPAU?$_Tree_node@U?$pair@$$CBV?$basic_string@DU?$char_traits@D@std@@V?$allocator@D@2@@std@@V12@@std@@PAX@std@@_N$0A@@?$pair@PAU?$_Tree_node@U?$pair@$$CBV?$basic_string@DU?$char_traits@D@std@@V?$allocator@D@2@@std@@V12@@std@@PAX@std@@_N@std@@QAE@AAPAU?$_Tree_node@U?$pair@$$CBV?$basic_string@DU?$char_traits@D@std@@V?$allocator@D@2@@std@@V12@@std@@PAX@1@$$QA_N@Z ; std::pair<std::_Tree_node<std::pair<std::basic_string<char,std::char_traits<char>,std::allocator<char> > const ,std::basic_string<char,std::char_traits<char>,std::allocator<char> > >,void *> *,bool>::pair<std::_Tree_node<std::pair<std::basic_string<char,std::char_traits<char>,std::allocator<char> > const ,std::basic_string<char,std::char_traits<char>,std::allocator<char> > >,void *> *,bool><std::_Tree_node<std::pair<std::basic_string<char,std::char_traits<char>,std::allocator<char> > const ,std::basic_string<char,std::char_traits<char>,std::allocator<char> > >,void *> * &,bool,0>
PUBLIC	??$?0U?$pair@V?$basic_string@DU?$char_traits@D@std@@V?$allocator@D@2@@std@@V12@@std@@@?$_Tree_temp_node@V?$allocator@U?$_Tree_node@U?$pair@$$CBV?$basic_string@DU?$char_traits@D@std@@V?$allocator@D@2@@std@@V12@@std@@PAX@std@@@std@@@std@@QAE@AAV?$allocator@U?$_Tree_node@U?$pair@$$CBV?$basic_string@DU?$char_traits@D@std@@V?$allocator@D@2@@std@@V12@@std@@PAX@std@@@1@PAU?$_Tree_node@U?$pair@$$CBV?$basic_string@DU?$char_traits@D@std@@V?$allocator@D@2@@std@@V12@@std@@PAX@1@$$QAU?$pair@V?$basic_string@DU?$char_traits@D@std@@V?$allocator@D@2@@std@@V12@@1@@Z ; std::_Tree_temp_node<std::allocator<std::_Tree_node<std::pair<std::basic_string<char,std::char_traits<char>,std::allocator<char> > const ,std::basic_string<char,std::char_traits<char>,std::allocator<char> > >,void *> > >::_Tree_temp_node<std::allocator<std::_Tree_node<std::pair<std::basic_string<char,std::char_traits<char>,std::allocator<char> > const ,std::basic_string<char,std::char_traits<char>,std::allocator<char> > >,void *> > ><std::pair<std::basic_string<char,std::char_traits<char>,std::allocator<char> >,std::basic_string<char,std::char_traits<char>,std::allocator<char> > > >
PUBLIC	??$?0U?$pair@V?$basic_string@DU?$char_traits@D@std@@V?$allocator@D@2@@std@@W4EPointTypes@@@std@@@?$_Tree_temp_node@V?$allocator@U?$_Tree_node@U?$pair@$$CBV?$basic_string@DU?$char_traits@D@std@@V?$allocator@D@2@@std@@K@std@@PAX@std@@@std@@@std@@QAE@AAV?$allocator@U?$_Tree_node@U?$pair@$$CBV?$basic_string@DU?$char_traits@D@std@@V?$allocator@D@2@@std@@K@std@@PAX@std@@@1@PAU?$_Tree_node@U?$pair@$$CBV?$basic_string@DU?$char_traits@D@std@@V?$allocator@D@2@@std@@K@std@@PAX@1@$$QAU?$pair@V?$basic_string@DU?$char_traits@D@std@@V?$allocator@D@2@@std@@W4EPointTypes@@@1@@Z ; std::_Tree_temp_node<std::allocator<std::_Tree_node<std::pair<std::basic_string<char,std::char_traits<char>,std::allocator<char> > const ,unsigned long>,void *> > >::_Tree_temp_node<std::allocator<std::_Tree_node<std::pair<std::basic_string<char,std::char_traits<char>,std::allocator<char> > const ,unsigned long>,void *> > ><std::pair<std::basic_string<char,std::char_traits<char>,std::allocator<char> >,enum EPointTypes> >
PUBLIC	??$?0U?$pair@V?$basic_string@DU?$char_traits@D@std@@V?$allocator@D@2@@std@@W4EWeaponSubTypes@CItemData@@@std@@@?$_Tree_temp_node@V?$allocator@U?$_Tree_node@U?$pair@$$CBV?$basic_string@DU?$char_traits@D@std@@V?$allocator@D@2@@std@@K@std@@PAX@std@@@std@@@std@@QAE@AAV?$allocator@U?$_Tree_node@U?$pair@$$CBV?$basic_string@DU?$char_traits@D@std@@V?$allocator@D@2@@std@@K@std@@PAX@std@@@1@PAU?$_Tree_node@U?$pair@$$CBV?$basic_string@DU?$char_traits@D@std@@V?$allocator@D@2@@std@@K@std@@PAX@1@$$QAU?$pair@V?$basic_string@DU?$char_traits@D@std@@V?$allocator@D@2@@std@@W4EWeaponSubTypes@CItemData@@@1@@Z ; std::_Tree_temp_node<std::allocator<std::_Tree_node<std::pair<std::basic_string<char,std::char_traits<char>,std::allocator<char> > const ,unsigned long>,void *> > >::_Tree_temp_node<std::allocator<std::_Tree_node<std::pair<std::basic_string<char,std::char_traits<char>,std::allocator<char> > const ,unsigned long>,void *> > ><std::pair<std::basic_string<char,std::char_traits<char>,std::allocator<char> >,enum CItemData::EWeaponSubTypes> >
PUBLIC	??$forward@PAU?$_Tree_node@U?$pair@$$CBV?$basic_string@DU?$char_traits@D@std@@V?$allocator@D@2@@std@@K@std@@PAX@std@@@std@@YA$$QAPAU?$_Tree_node@U?$pair@$$CBV?$basic_string@DU?$char_traits@D@std@@V?$allocator@D@2@@std@@K@std@@PAX@0@AAPAU10@@Z ; std::forward<std::_Tree_node<std::pair<std::basic_string<char,std::char_traits<char>,std::allocator<char> > const ,unsigned long>,void *> *>
PUBLIC	??$forward@AAPAU?$_Tree_node@U?$pair@$$CBV?$basic_string@DU?$char_traits@D@std@@V?$allocator@D@2@@std@@K@std@@PAX@std@@@std@@YAAAPAU?$_Tree_node@U?$pair@$$CBV?$basic_string@DU?$char_traits@D@std@@V?$allocator@D@2@@std@@K@std@@PAX@0@AAPAU10@@Z ; std::forward<std::_Tree_node<std::pair<std::basic_string<char,std::char_traits<char>,std::allocator<char> > const ,unsigned long>,void *> * &>
PUBLIC	??$_Construct_in_place@PAU?$_Tree_node@U?$pair@$$CBV?$basic_string@DU?$char_traits@D@std@@V?$allocator@D@2@@std@@K@std@@PAX@std@@AAPAU12@@std@@YAXAAPAU?$_Tree_node@U?$pair@$$CBV?$basic_string@DU?$char_traits@D@std@@V?$allocator@D@2@@std@@K@std@@PAX@0@0@Z ; std::_Construct_in_place<std::_Tree_node<std::pair<std::basic_string<char,std::char_traits<char>,std::allocator<char> > const ,unsigned long>,void *> *,std::_Tree_node<std::pair<std::basic_string<char,std::char_traits<char>,std::allocator<char> > const ,unsigned long>,void *> * &>
PUBLIC	??$construct@U?$pair@$$CBV?$basic_string@DU?$char_traits@D@std@@V?$allocator@D@2@@std@@K@std@@U12@@?$_Default_allocator_traits@V?$allocator@U?$_Tree_node@U?$pair@$$CBV?$basic_string@DU?$char_traits@D@std@@V?$allocator@D@2@@std@@K@std@@PAX@std@@@std@@@std@@SAXAAV?$allocator@U?$_Tree_node@U?$pair@$$CBV?$basic_string@DU?$char_traits@D@std@@V?$allocator@D@2@@std@@K@std@@PAX@std@@@1@QAU?$pair@$$CBV?$basic_string@DU?$char_traits@D@std@@V?$allocator@D@2@@std@@K@1@$$QAU31@@Z ; std::_Default_allocator_traits<std::allocator<std::_Tree_node<std::pair<std::basic_string<char,std::char_traits<char>,std::allocator<char> > const ,unsigned long>,void *> > >::construct<std::pair<std::basic_string<char,std::char_traits<char>,std::allocator<char> > const ,unsigned long>,std::pair<std::basic_string<char,std::char_traits<char>,std::allocator<char> > const ,unsigned long> >
PUBLIC	??$_Kfn@$$CBV?$basic_string@DU?$char_traits@D@std@@V?$allocator@D@2@@std@@K@?$_Tmap_traits@V?$basic_string@DU?$char_traits@D@std@@V?$allocator@D@2@@std@@KU?$less@V?$basic_string@DU?$char_traits@D@std@@V?$allocator@D@2@@std@@@2@V?$allocator@U?$pair@$$CBV?$basic_string@DU?$char_traits@D@std@@V?$allocator@D@2@@std@@K@std@@@2@$0A@@std@@SAABV?$basic_string@DU?$char_traits@D@std@@V?$allocator@D@2@@1@ABU?$pair@$$CBV?$basic_string@DU?$char_traits@D@std@@V?$allocator@D@2@@std@@K@1@@Z ; std::_Tmap_traits<std::basic_string<char,std::char_traits<char>,std::allocator<char> >,unsigned long,std::less<std::basic_string<char,std::char_traits<char>,std::allocator<char> > >,std::allocator<std::pair<std::basic_string<char,std::char_traits<char>,std::allocator<char> > const ,unsigned long> >,0>::_Kfn<std::basic_string<char,std::char_traits<char>,std::allocator<char> > const ,unsigned long>
PUBLIC	??$forward@V?$_Tree_iterator@V?$_Tree_val@U?$_Tree_simple_types@U?$pair@$$CBHUSPetSkillData@CPythonSkill@@@std@@@std@@@std@@@std@@@std@@YA$$QAV?$_Tree_iterator@V?$_Tree_val@U?$_Tree_simple_types@U?$pair@$$CBHUSPetSkillData@CPythonSkill@@@std@@@std@@@std@@@0@AAV10@@Z ; std::forward<std::_Tree_iterator<std::_Tree_val<std::_Tree_simple_types<std::pair<int const ,CPythonSkill::SPetSkillData> > > > >
PUBLIC	??$?0AAPAU?$_Tree_node@U?$pair@$$CBHUSPetSkillData@CPythonSkill@@@std@@PAX@std@@_N$0A@@?$pair@PAU?$_Tree_node@U?$pair@$$CBHUSPetSkillData@CPythonSkill@@@std@@PAX@std@@_N@std@@QAE@AAPAU?$_Tree_node@U?$pair@$$CBHUSPetSkillData@CPythonSkill@@@std@@PAX@1@$$QA_N@Z ; std::pair<std::_Tree_node<std::pair<int const ,CPythonSkill::SPetSkillData>,void *> *,bool>::pair<std::_Tree_node<std::pair<int const ,CPythonSkill::SPetSkillData>,void *> *,bool><std::_Tree_node<std::pair<int const ,CPythonSkill::SPetSkillData>,void *> * &,bool,0>
PUBLIC	??$?0U?$pair@HUSPetSkillData@CPythonSkill@@@std@@@?$_Tree_temp_node@V?$allocator@U?$_Tree_node@U?$pair@$$CBHUSPetSkillData@CPythonSkill@@@std@@PAX@std@@@std@@@std@@QAE@AAV?$allocator@U?$_Tree_node@U?$pair@$$CBHUSPetSkillData@CPythonSkill@@@std@@PAX@std@@@1@PAU?$_Tree_node@U?$pair@$$CBHUSPetSkillData@CPythonSkill@@@std@@PAX@1@$$QAU?$pair@HUSPetSkillData@CPythonSkill@@@1@@Z ; std::_Tree_temp_node<std::allocator<std::_Tree_node<std::pair<int const ,CPythonSkill::SPetSkillData>,void *> > >::_Tree_temp_node<std::allocator<std::_Tree_node<std::pair<int const ,CPythonSkill::SPetSkillData>,void *> > ><std::pair<int,CPythonSkill::SPetSkillData> >
PUBLIC	??$forward@PAU?$_Tree_node@U?$pair@$$CBKUSSkillData@CPythonSkill@@@std@@PAX@std@@@std@@YA$$QAPAU?$_Tree_node@U?$pair@$$CBKUSSkillData@CPythonSkill@@@std@@PAX@0@AAPAU10@@Z ; std::forward<std::_Tree_node<std::pair<unsigned long const ,CPythonSkill::SSkillData>,void *> *>
PUBLIC	??$forward@AAPAU?$_Tree_node@U?$pair@$$CBKUSSkillData@CPythonSkill@@@std@@PAX@std@@@std@@YAAAPAU?$_Tree_node@U?$pair@$$CBKUSSkillData@CPythonSkill@@@std@@PAX@0@AAPAU10@@Z ; std::forward<std::_Tree_node<std::pair<unsigned long const ,CPythonSkill::SSkillData>,void *> * &>
PUBLIC	??$_Construct_in_place@PAU?$_Tree_node@U?$pair@$$CBKUSSkillData@CPythonSkill@@@std@@PAX@std@@AAPAU12@@std@@YAXAAPAU?$_Tree_node@U?$pair@$$CBKUSSkillData@CPythonSkill@@@std@@PAX@0@0@Z ; std::_Construct_in_place<std::_Tree_node<std::pair<unsigned long const ,CPythonSkill::SSkillData>,void *> *,std::_Tree_node<std::pair<unsigned long const ,CPythonSkill::SSkillData>,void *> * &>
PUBLIC	??$construct@U?$pair@$$CBKUSSkillData@CPythonSkill@@@std@@U12@@?$_Default_allocator_traits@V?$allocator@U?$_Tree_node@U?$pair@$$CBKUSSkillData@CPythonSkill@@@std@@PAX@std@@@std@@@std@@SAXAAV?$allocator@U?$_Tree_node@U?$pair@$$CBKUSSkillData@CPythonSkill@@@std@@PAX@std@@@1@QAU?$pair@$$CBKUSSkillData@CPythonSkill@@@1@$$QAU31@@Z ; std::_Default_allocator_traits<std::allocator<std::_Tree_node<std::pair<unsigned long const ,CPythonSkill::SSkillData>,void *> > >::construct<std::pair<unsigned long const ,CPythonSkill::SSkillData>,std::pair<unsigned long const ,CPythonSkill::SSkillData> >
PUBLIC	??$_Kfn@$$CBKUSSkillData@CPythonSkill@@@?$_Tmap_traits@KUSSkillData@CPythonSkill@@U?$less@K@std@@V?$allocator@U?$pair@$$CBKUSSkillData@CPythonSkill@@@std@@@4@$0A@@std@@SAABKABU?$pair@$$CBKUSSkillData@CPythonSkill@@@1@@Z ; std::_Tmap_traits<unsigned long,CPythonSkill::SSkillData,std::less<unsigned long>,std::allocator<std::pair<unsigned long const ,CPythonSkill::SSkillData> >,0>::_Kfn<unsigned long const ,CPythonSkill::SSkillData>
PUBLIC	??$?0U?$pair@KUSSkillData@CPythonSkill@@@std@@@?$_Tree_temp_node@V?$allocator@U?$_Tree_node@U?$pair@$$CBKUSSkillData@CPythonSkill@@@std@@PAX@std@@@std@@@std@@QAE@AAV?$allocator@U?$_Tree_node@U?$pair@$$CBKUSSkillData@CPythonSkill@@@std@@PAX@std@@@1@PAU?$_Tree_node@U?$pair@$$CBKUSSkillData@CPythonSkill@@@std@@PAX@1@$$QAU?$pair@KUSSkillData@CPythonSkill@@@1@@Z ; std::_Tree_temp_node<std::allocator<std::_Tree_node<std::pair<unsigned long const ,CPythonSkill::SSkillData>,void *> > >::_Tree_temp_node<std::allocator<std::_Tree_node<std::pair<unsigned long const ,CPythonSkill::SSkillData>,void *> > ><std::pair<unsigned long,CPythonSkill::SSkillData> >
PUBLIC	??$?0$$V@?$_Compressed_pair@V?$allocator@U?$_Tree_node@U?$pair@$$CBHUSPetSkillData@CPythonSkill@@@std@@PAX@std@@@std@@V?$_Tree_val@U?$_Tree_simple_types@U?$pair@$$CBHUSPetSkillData@CPythonSkill@@@std@@@std@@@2@$00@std@@QAE@U_Zero_then_variadic_args_t@1@@Z ; std::_Compressed_pair<std::allocator<std::_Tree_node<std::pair<int const ,CPythonSkill::SPetSkillData>,void *> >,std::_Tree_val<std::_Tree_simple_types<std::pair<int const ,CPythonSkill::SPetSkillData> > >,1>::_Compressed_pair<std::allocator<std::_Tree_node<std::pair<int const ,CPythonSkill::SPetSkillData>,void *> >,std::_Tree_val<std::_Tree_simple_types<std::pair<int const ,CPythonSkill::SPetSkillData> > >,1><>
PUBLIC	??$?0$$V@?$_Compressed_pair@V?$allocator@U?$_Tree_node@U?$pair@$$CBKUSSkillData@CPythonSkill@@@std@@PAX@std@@@std@@V?$_Tree_val@U?$_Tree_simple_types@U?$pair@$$CBKUSSkillData@CPythonSkill@@@std@@@std@@@2@$00@std@@QAE@U_Zero_then_variadic_args_t@1@@Z ; std::_Compressed_pair<std::allocator<std::_Tree_node<std::pair<unsigned long const ,CPythonSkill::SSkillData>,void *> >,std::_Tree_val<std::_Tree_simple_types<std::pair<unsigned long const ,CPythonSkill::SSkillData> > >,1>::_Compressed_pair<std::allocator<std::_Tree_node<std::pair<unsigned long const ,CPythonSkill::SSkillData>,void *> >,std::_Tree_val<std::_Tree_simple_types<std::pair<unsigned long const ,CPythonSkill::SSkillData> > >,1><>
PUBLIC	??$?0$$V@?$_Compressed_pair@V?$allocator@U?$_Tree_node@U?$pair@$$CBV?$basic_string@DU?$char_traits@D@std@@V?$allocator@D@2@@std@@K@std@@PAX@std@@@std@@V?$_Tree_val@U?$_Tree_simple_types@U?$pair@$$CBV?$basic_string@DU?$char_traits@D@std@@V?$allocator@D@2@@std@@K@std@@@std@@@2@$00@std@@QAE@U_Zero_then_variadic_args_t@1@@Z ; std::_Compressed_pair<std::allocator<std::_Tree_node<std::pair<std::basic_string<char,std::char_traits<char>,std::allocator<char> > const ,unsigned long>,void *> >,std::_Tree_val<std::_Tree_simple_types<std::pair<std::basic_string<char,std::char_traits<char>,std::allocator<char> > const ,unsigned long> > >,1>::_Compressed_pair<std::allocator<std::_Tree_node<std::pair<std::basic_string<char,std::char_traits<char>,std::allocator<char> > const ,unsigned long>,void *> >,std::_Tree_val<std::_Tree_simple_types<std::pair<std::basic_string<char,std::char_traits<char>,std::allocator<char> > const ,unsigned long> > >,1><>
PUBLIC	??$?0$$V@?$_Compressed_pair@V?$allocator@U?$_Tree_node@U?$pair@$$CBV?$basic_string@DU?$char_traits@D@std@@V?$allocator@D@2@@std@@V12@@std@@PAX@std@@@std@@V?$_Tree_val@U?$_Tree_simple_types@U?$pair@$$CBV?$basic_string@DU?$char_traits@D@std@@V?$allocator@D@2@@std@@V12@@std@@@std@@@2@$00@std@@QAE@U_Zero_then_variadic_args_t@1@@Z ; std::_Compressed_pair<std::allocator<std::_Tree_node<std::pair<std::basic_string<char,std::char_traits<char>,std::allocator<char> > const ,std::basic_string<char,std::char_traits<char>,std::allocator<char> > >,void *> >,std::_Tree_val<std::_Tree_simple_types<std::pair<std::basic_string<char,std::char_traits<char>,std::allocator<char> > const ,std::basic_string<char,std::char_traits<char>,std::allocator<char> > > > >,1>::_Compressed_pair<std::allocator<std::_Tree_node<std::pair<std::basic_string<char,std::char_traits<char>,std::allocator<char> > const ,std::basic_string<char,std::char_traits<char>,std::allocator<char> > >,void *> >,std::_Tree_val<std::_Tree_simple_types<std::pair<std::basic_string<char,std::char_traits<char>,std::allocator<char> > const ,std::basic_string<char,std::char_traits<char>,std::allocator<char> > > > >,1><>
PUBLIC	??1?$_Tree_temp_node_alloc@V?$allocator@U?$_Tree_node@U?$pair@$$CBV?$basic_string@DU?$char_traits@D@std@@V?$allocator@D@2@@std@@V12@@std@@PAX@std@@@std@@@std@@QAE@XZ ; std::_Tree_temp_node_alloc<std::allocator<std::_Tree_node<std::pair<std::basic_string<char,std::char_traits<char>,std::allocator<char> > const ,std::basic_string<char,std::char_traits<char>,std::allocator<char> > >,void *> > >::~_Tree_temp_node_alloc<std::allocator<std::_Tree_node<std::pair<std::basic_string<char,std::char_traits<char>,std::allocator<char> > const ,std::basic_string<char,std::char_traits<char>,std::allocator<char> > >,void *> > >
PUBLIC	??1?$_Tree_temp_node_alloc@V?$allocator@U?$_Tree_node@U?$pair@$$CBHUSPetSkillData@CPythonSkill@@@std@@PAX@std@@@std@@@std@@QAE@XZ ; std::_Tree_temp_node_alloc<std::allocator<std::_Tree_node<std::pair<int const ,CPythonSkill::SPetSkillData>,void *> > >::~_Tree_temp_node_alloc<std::allocator<std::_Tree_node<std::pair<int const ,CPythonSkill::SPetSkillData>,void *> > >
PUBLIC	??1?$_Tree_temp_node_alloc@V?$allocator@U?$_Tree_node@U?$pair@$$CBV?$basic_string@DU?$char_traits@D@std@@V?$allocator@D@2@@std@@K@std@@PAX@std@@@std@@@std@@QAE@XZ ; std::_Tree_temp_node_alloc<std::allocator<std::_Tree_node<std::pair<std::basic_string<char,std::char_traits<char>,std::allocator<char> > const ,unsigned long>,void *> > >::~_Tree_temp_node_alloc<std::allocator<std::_Tree_node<std::pair<std::basic_string<char,std::char_traits<char>,std::allocator<char> > const ,unsigned long>,void *> > >
PUBLIC	??1?$_Tree_temp_node_alloc@V?$allocator@U?$_Tree_node@U?$pair@$$CBKUSSkillData@CPythonSkill@@@std@@PAX@std@@@std@@@std@@QAE@XZ ; std::_Tree_temp_node_alloc<std::allocator<std::_Tree_node<std::pair<unsigned long const ,CPythonSkill::SSkillData>,void *> > >::~_Tree_temp_node_alloc<std::allocator<std::_Tree_node<std::pair<unsigned long const ,CPythonSkill::SSkillData>,void *> > >
PUBLIC	??0?$vector@V?$basic_string@DU?$char_traits@D@std@@V?$allocator@D@2@@std@@V?$allocator@V?$basic_string@DU?$char_traits@D@std@@V?$allocator@D@2@@std@@@2@@std@@QAE@$$QAV01@@Z ; std::vector<std::basic_string<char,std::char_traits<char>,std::allocator<char> >,std::allocator<std::basic_string<char,std::char_traits<char>,std::allocator<char> > > >::vector<std::basic_string<char,std::char_traits<char>,std::allocator<char> >,std::allocator<std::basic_string<char,std::char_traits<char>,std::allocator<char> > > >
PUBLIC	?_Check_grow_by_1@?$_Tree@V?$_Tmap_traits@HUSPetSkillData@CPythonSkill@@U?$less@H@std@@V?$allocator@U?$pair@$$CBHUSPetSkillData@CPythonSkill@@@std@@@4@$0A@@std@@@std@@IAEXXZ ; std::_Tree<std::_Tmap_traits<int,CPythonSkill::SPetSkillData,std::less<int>,std::allocator<std::pair<int const ,CPythonSkill::SPetSkillData> >,0> >::_Check_grow_by_1
PUBLIC	?_Alloc_sentinel_and_proxy@?$_Tree@V?$_Tmap_traits@HUSPetSkillData@CPythonSkill@@U?$less@H@std@@V?$allocator@U?$pair@$$CBHUSPetSkillData@CPythonSkill@@@std@@@4@$0A@@std@@@std@@IAEXXZ ; std::_Tree<std::_Tmap_traits<int,CPythonSkill::SPetSkillData,std::less<int>,std::allocator<std::pair<int const ,CPythonSkill::SPetSkillData> >,0> >::_Alloc_sentinel_and_proxy
PUBLIC	?_Get_scary@?$_Tree@V?$_Tmap_traits@HUSPetSkillData@CPythonSkill@@U?$less@H@std@@V?$allocator@U?$pair@$$CBHUSPetSkillData@CPythonSkill@@@std@@@4@$0A@@std@@@std@@IBEPBV?$_Tree_val@U?$_Tree_simple_types@U?$pair@$$CBHUSPetSkillData@CPythonSkill@@@std@@@std@@@2@XZ ; std::_Tree<std::_Tmap_traits<int,CPythonSkill::SPetSkillData,std::less<int>,std::allocator<std::pair<int const ,CPythonSkill::SPetSkillData> >,0> >::_Get_scary
PUBLIC	?_Insert_node@?$_Tree_val@U?$_Tree_simple_types@U?$pair@$$CBHUSPetSkillData@CPythonSkill@@@std@@@std@@@std@@QAEPAU?$_Tree_node@U?$pair@$$CBHUSPetSkillData@CPythonSkill@@@std@@PAX@2@U?$_Tree_id@PAU?$_Tree_node@U?$pair@$$CBHUSPetSkillData@CPythonSkill@@@std@@PAX@std@@@2@QAU32@@Z ; std::_Tree_val<std::_Tree_simple_types<std::pair<int const ,CPythonSkill::SPetSkillData> > >::_Insert_node
PUBLIC	??D?$_Tree_const_iterator@V?$_Tree_val@U?$_Tree_simple_types@U?$pair@$$CBHUSPetSkillData@CPythonSkill@@@std@@@std@@@std@@@std@@QBEABU?$pair@$$CBHUSPetSkillData@CPythonSkill@@@1@XZ ; std::_Tree_const_iterator<std::_Tree_val<std::_Tree_simple_types<std::pair<int const ,CPythonSkill::SPetSkillData> > > >::operator*
PUBLIC	?_Get_first@?$_Compressed_pair@V?$allocator@U?$_Tree_node@U?$pair@$$CBHUSPetSkillData@CPythonSkill@@@std@@PAX@std@@@std@@V?$_Tree_val@U?$_Tree_simple_types@U?$pair@$$CBHUSPetSkillData@CPythonSkill@@@std@@@std@@@2@$00@std@@QAEAAV?$allocator@U?$_Tree_node@U?$pair@$$CBHUSPetSkillData@CPythonSkill@@@std@@PAX@std@@@2@XZ ; std::_Compressed_pair<std::allocator<std::_Tree_node<std::pair<int const ,CPythonSkill::SPetSkillData>,void *> >,std::_Tree_val<std::_Tree_simple_types<std::pair<int const ,CPythonSkill::SPetSkillData> > >,1>::_Get_first
PUBLIC	??0?$allocator@USAffectData@CPythonSkill@@@std@@QAE@XZ ; std::allocator<CPythonSkill::SAffectData>::allocator<CPythonSkill::SAffectData>
PUBLIC	?deallocate@?$allocator@USAffectData@CPythonSkill@@@std@@QAEXQAUSAffectData@CPythonSkill@@I@Z ; std::allocator<CPythonSkill::SAffectData>::deallocate
PUBLIC	??0?$vector@USAffectData@CPythonSkill@@V?$allocator@USAffectData@CPythonSkill@@@std@@@std@@QAE@$$QAV01@@Z ; std::vector<CPythonSkill::SAffectData,std::allocator<CPythonSkill::SAffectData> >::vector<CPythonSkill::SAffectData,std::allocator<CPythonSkill::SAffectData> >
PUBLIC	?_Orphan_range@?$vector@USAffectData@CPythonSkill@@V?$allocator@USAffectData@CPythonSkill@@@std@@@std@@ABEXPAUSAffectData@CPythonSkill@@0@Z ; std::vector<CPythonSkill::SAffectData,std::allocator<CPythonSkill::SAffectData> >::_Orphan_range
PUBLIC	?_Getal@?$vector@USAffectData@CPythonSkill@@V?$allocator@USAffectData@CPythonSkill@@@std@@@std@@ABEABV?$allocator@USAffectData@CPythonSkill@@@2@XZ ; std::vector<CPythonSkill::SAffectData,std::allocator<CPythonSkill::SAffectData> >::_Getal
PUBLIC	?select_on_container_copy_construction@?$_Default_allocator_traits@V?$allocator@USAffectData@CPythonSkill@@@std@@@std@@SA?AV?$allocator@USAffectData@CPythonSkill@@@2@ABV32@@Z ; std::_Default_allocator_traits<std::allocator<CPythonSkill::SAffectData> >::select_on_container_copy_construction
PUBLIC	??0?$_Vector_val@U?$_Simple_types@USAffectData@CPythonSkill@@@std@@@std@@QAE@XZ ; std::_Vector_val<std::_Simple_types<CPythonSkill::SAffectData> >::_Vector_val<std::_Simple_types<CPythonSkill::SAffectData> >
PUBLIC	??0?$_Vector_const_iterator@V?$_Vector_val@U?$_Simple_types@USAffectData@CPythonSkill@@@std@@@std@@@std@@QAE@PAUSAffectData@CPythonSkill@@PBU_Container_base0@1@@Z ; std::_Vector_const_iterator<std::_Vector_val<std::_Simple_types<CPythonSkill::SAffectData> > >::_Vector_const_iterator<std::_Vector_val<std::_Simple_types<CPythonSkill::SAffectData> > >
PUBLIC	??F?$_Vector_const_iterator@V?$_Vector_val@U?$_Simple_types@USAffectData@CPythonSkill@@@std@@@std@@@std@@QAEAAV01@XZ ; std::_Vector_const_iterator<std::_Vector_val<std::_Simple_types<CPythonSkill::SAffectData> > >::operator--
PUBLIC	?_Get_first@?$_Compressed_pair@V?$allocator@USAffectData@CPythonSkill@@@std@@V?$_Vector_val@U?$_Simple_types@USAffectData@CPythonSkill@@@std@@@2@$00@std@@QAEAAV?$allocator@USAffectData@CPythonSkill@@@2@XZ ; std::_Compressed_pair<std::allocator<CPythonSkill::SAffectData>,std::_Vector_val<std::_Simple_types<CPythonSkill::SAffectData> >,1>::_Get_first
PUBLIC	??0?$allocator@USAffectDataNew@CPythonSkill@@@std@@QAE@XZ ; std::allocator<CPythonSkill::SAffectDataNew>::allocator<CPythonSkill::SAffectDataNew>
PUBLIC	?deallocate@?$allocator@USAffectDataNew@CPythonSkill@@@std@@QAEXQAUSAffectDataNew@CPythonSkill@@I@Z ; std::allocator<CPythonSkill::SAffectDataNew>::deallocate
PUBLIC	??0?$vector@USAffectDataNew@CPythonSkill@@V?$allocator@USAffectDataNew@CPythonSkill@@@std@@@std@@QAE@$$QAV01@@Z ; std::vector<CPythonSkill::SAffectDataNew,std::allocator<CPythonSkill::SAffectDataNew> >::vector<CPythonSkill::SAffectDataNew,std::allocator<CPythonSkill::SAffectDataNew> >
PUBLIC	?_Change_array@?$vector@USAffectDataNew@CPythonSkill@@V?$allocator@USAffectDataNew@CPythonSkill@@@std@@@std@@AAEXQAUSAffectDataNew@CPythonSkill@@II@Z ; std::vector<CPythonSkill::SAffectDataNew,std::allocator<CPythonSkill::SAffectDataNew> >::_Change_array
PUBLIC	?_Getal@?$vector@USAffectDataNew@CPythonSkill@@V?$allocator@USAffectDataNew@CPythonSkill@@@std@@@std@@ABEABV?$allocator@USAffectDataNew@CPythonSkill@@@2@XZ ; std::vector<CPythonSkill::SAffectDataNew,std::allocator<CPythonSkill::SAffectDataNew> >::_Getal
PUBLIC	?max_size@?$_Default_allocator_traits@V?$allocator@USAffectDataNew@CPythonSkill@@@std@@@std@@SAIABV?$allocator@USAffectDataNew@CPythonSkill@@@2@@Z ; std::_Default_allocator_traits<std::allocator<CPythonSkill::SAffectDataNew> >::max_size
PUBLIC	?select_on_container_copy_construction@?$_Default_allocator_traits@V?$allocator@USAffectDataNew@CPythonSkill@@@std@@@std@@SA?AV?$allocator@USAffectDataNew@CPythonSkill@@@2@ABV32@@Z ; std::_Default_allocator_traits<std::allocator<CPythonSkill::SAffectDataNew> >::select_on_container_copy_construction
PUBLIC	??0?$_Vector_val@U?$_Simple_types@USAffectDataNew@CPythonSkill@@@std@@@std@@QAE@XZ ; std::_Vector_val<std::_Simple_types<CPythonSkill::SAffectDataNew> >::_Vector_val<std::_Simple_types<CPythonSkill::SAffectDataNew> >
PUBLIC	??1_Simple_reallocation_guard@?$vector@USAffectDataNew@CPythonSkill@@V?$allocator@USAffectDataNew@CPythonSkill@@@std@@@std@@QAE@XZ ; std::vector<CPythonSkill::SAffectDataNew,std::allocator<CPythonSkill::SAffectDataNew> >::_Simple_reallocation_guard::~_Simple_reallocation_guard
PUBLIC	?_Get_first@?$_Compressed_pair@V?$allocator@USAffectDataNew@CPythonSkill@@@std@@V?$_Vector_val@U?$_Simple_types@USAffectDataNew@CPythonSkill@@@std@@@2@$00@std@@QAEAAV?$allocator@USAffectDataNew@CPythonSkill@@@2@XZ ; std::_Compressed_pair<std::allocator<CPythonSkill::SAffectDataNew>,std::_Vector_val<std::_Simple_types<CPythonSkill::SAffectDataNew> >,1>::_Get_first
PUBLIC	??0?$allocator@USRequireStatData@CPythonSkill@@@std@@QAE@XZ ; std::allocator<CPythonSkill::SRequireStatData>::allocator<CPythonSkill::SRequireStatData>
PUBLIC	?deallocate@?$allocator@USRequireStatData@CPythonSkill@@@std@@QAEXQAUSRequireStatData@CPythonSkill@@I@Z ; std::allocator<CPythonSkill::SRequireStatData>::deallocate
PUBLIC	??0?$vector@USRequireStatData@CPythonSkill@@V?$allocator@USRequireStatData@CPythonSkill@@@std@@@std@@QAE@$$QAV01@@Z ; std::vector<CPythonSkill::SRequireStatData,std::allocator<CPythonSkill::SRequireStatData> >::vector<CPythonSkill::SRequireStatData,std::allocator<CPythonSkill::SRequireStatData> >
PUBLIC	?_Getal@?$vector@USRequireStatData@CPythonSkill@@V?$allocator@USRequireStatData@CPythonSkill@@@std@@@std@@AAEAAV?$allocator@USRequireStatData@CPythonSkill@@@2@XZ ; std::vector<CPythonSkill::SRequireStatData,std::allocator<CPythonSkill::SRequireStatData> >::_Getal
PUBLIC	?_Getal@?$vector@USRequireStatData@CPythonSkill@@V?$allocator@USRequireStatData@CPythonSkill@@@std@@@std@@ABEABV?$allocator@USRequireStatData@CPythonSkill@@@2@XZ ; std::vector<CPythonSkill::SRequireStatData,std::allocator<CPythonSkill::SRequireStatData> >::_Getal
PUBLIC	?select_on_container_copy_construction@?$_Default_allocator_traits@V?$allocator@USRequireStatData@CPythonSkill@@@std@@@std@@SA?AV?$allocator@USRequireStatData@CPythonSkill@@@2@ABV32@@Z ; std::_Default_allocator_traits<std::allocator<CPythonSkill::SRequireStatData> >::select_on_container_copy_construction
PUBLIC	??0?$_Vector_val@U?$_Simple_types@USRequireStatData@CPythonSkill@@@std@@@std@@QAE@XZ ; std::_Vector_val<std::_Simple_types<CPythonSkill::SRequireStatData> >::_Vector_val<std::_Simple_types<CPythonSkill::SRequireStatData> >
PUBLIC	?_Check_grow_by_1@?$_Tree@V?$_Tmap_traits@KUSSkillData@CPythonSkill@@U?$less@K@std@@V?$allocator@U?$pair@$$CBKUSSkillData@CPythonSkill@@@std@@@4@$0A@@std@@@std@@IAEXXZ ; std::_Tree<std::_Tmap_traits<unsigned long,CPythonSkill::SSkillData,std::less<unsigned long>,std::allocator<std::pair<unsigned long const ,CPythonSkill::SSkillData> >,0> >::_Check_grow_by_1
PUBLIC	?_Alloc_sentinel_and_proxy@?$_Tree@V?$_Tmap_traits@KUSSkillData@CPythonSkill@@U?$less@K@std@@V?$allocator@U?$pair@$$CBKUSSkillData@CPythonSkill@@@std@@@4@$0A@@std@@@std@@IAEXXZ ; std::_Tree<std::_Tmap_traits<unsigned long,CPythonSkill::SSkillData,std::less<unsigned long>,std::allocator<std::pair<unsigned long const ,CPythonSkill::SSkillData> >,0> >::_Alloc_sentinel_and_proxy
PUBLIC	?_Get_scary@?$_Tree@V?$_Tmap_traits@KUSSkillData@CPythonSkill@@U?$less@K@std@@V?$allocator@U?$pair@$$CBKUSSkillData@CPythonSkill@@@std@@@4@$0A@@std@@@std@@IBEPBV?$_Tree_val@U?$_Tree_simple_types@U?$pair@$$CBKUSSkillData@CPythonSkill@@@std@@@std@@@2@XZ ; std::_Tree<std::_Tmap_traits<unsigned long,CPythonSkill::SSkillData,std::less<unsigned long>,std::allocator<std::pair<unsigned long const ,CPythonSkill::SSkillData> >,0> >::_Get_scary
PUBLIC	?_Insert_node@?$_Tree_val@U?$_Tree_simple_types@U?$pair@$$CBKUSSkillData@CPythonSkill@@@std@@@std@@@std@@QAEPAU?$_Tree_node@U?$pair@$$CBKUSSkillData@CPythonSkill@@@std@@PAX@2@U?$_Tree_id@PAU?$_Tree_node@U?$pair@$$CBKUSSkillData@CPythonSkill@@@std@@PAX@std@@@2@QAU32@@Z ; std::_Tree_val<std::_Tree_simple_types<std::pair<unsigned long const ,CPythonSkill::SSkillData> > >::_Insert_node
PUBLIC	??D?$_Tree_const_iterator@V?$_Tree_val@U?$_Tree_simple_types@U?$pair@$$CBKUSSkillData@CPythonSkill@@@std@@@std@@@std@@@std@@QBEABU?$pair@$$CBKUSSkillData@CPythonSkill@@@1@XZ ; std::_Tree_const_iterator<std::_Tree_val<std::_Tree_simple_types<std::pair<unsigned long const ,CPythonSkill::SSkillData> > > >::operator*
PUBLIC	??E?$_Tree_unchecked_const_iterator@V?$_Tree_val@U?$_Tree_simple_types@U?$pair@$$CBKUSSkillData@CPythonSkill@@@std@@@std@@@std@@U_Iterator_base0@2@@std@@QAEAAV01@XZ ; std::_Tree_unchecked_const_iterator<std::_Tree_val<std::_Tree_simple_types<std::pair<unsigned long const ,CPythonSkill::SSkillData> > >,std::_Iterator_base0>::operator++
PUBLIC	?_Get_first@?$_Compressed_pair@V?$allocator@U?$_Tree_node@U?$pair@$$CBKUSSkillData@CPythonSkill@@@std@@PAX@std@@@std@@V?$_Tree_val@U?$_Tree_simple_types@U?$pair@$$CBKUSSkillData@CPythonSkill@@@std@@@std@@@2@$00@std@@QAEAAV?$allocator@U?$_Tree_node@U?$pair@$$CBKUSSkillData@CPythonSkill@@@std@@PAX@std@@@2@XZ ; std::_Compressed_pair<std::allocator<std::_Tree_node<std::pair<unsigned long const ,CPythonSkill::SSkillData>,void *> >,std::_Tree_val<std::_Tree_simple_types<std::pair<unsigned long const ,CPythonSkill::SSkillData> > >,1>::_Get_first
PUBLIC	?_Check_grow_by_1@?$_Tree@V?$_Tmap_traits@V?$basic_string@DU?$char_traits@D@std@@V?$allocator@D@2@@std@@KU?$less@V?$basic_string@DU?$char_traits@D@std@@V?$allocator@D@2@@std@@@2@V?$allocator@U?$pair@$$CBV?$basic_string@DU?$char_traits@D@std@@V?$allocator@D@2@@std@@K@std@@@2@$0A@@std@@@std@@IAEXXZ ; std::_Tree<std::_Tmap_traits<std::basic_string<char,std::char_traits<char>,std::allocator<char> >,unsigned long,std::less<std::basic_string<char,std::char_traits<char>,std::allocator<char> > >,std::allocator<std::pair<std::basic_string<char,std::char_traits<char>,std::allocator<char> > const ,unsigned long> >,0> >::_Check_grow_by_1
PUBLIC	?_Alloc_sentinel_and_proxy@?$_Tree@V?$_Tmap_traits@V?$basic_string@DU?$char_traits@D@std@@V?$allocator@D@2@@std@@KU?$less@V?$basic_string@DU?$char_traits@D@std@@V?$allocator@D@2@@std@@@2@V?$allocator@U?$pair@$$CBV?$basic_string@DU?$char_traits@D@std@@V?$allocator@D@2@@std@@K@std@@@2@$0A@@std@@@std@@IAEXXZ ; std::_Tree<std::_Tmap_traits<std::basic_string<char,std::char_traits<char>,std::allocator<char> >,unsigned long,std::less<std::basic_string<char,std::char_traits<char>,std::allocator<char> > >,std::allocator<std::pair<std::basic_string<char,std::char_traits<char>,std::allocator<char> > const ,unsigned long> >,0> >::_Alloc_sentinel_and_proxy
PUBLIC	?_Get_scary@?$_Tree@V?$_Tmap_traits@V?$basic_string@DU?$char_traits@D@std@@V?$allocator@D@2@@std@@KU?$less@V?$basic_string@DU?$char_traits@D@std@@V?$allocator@D@2@@std@@@2@V?$allocator@U?$pair@$$CBV?$basic_string@DU?$char_traits@D@std@@V?$allocator@D@2@@std@@K@std@@@2@$0A@@std@@@std@@IBEPBV?$_Tree_val@U?$_Tree_simple_types@U?$pair@$$CBV?$basic_string@DU?$char_traits@D@std@@V?$allocator@D@2@@std@@K@std@@@std@@@2@XZ ; std::_Tree<std::_Tmap_traits<std::basic_string<char,std::char_traits<char>,std::allocator<char> >,unsigned long,std::less<std::basic_string<char,std::char_traits<char>,std::allocator<char> > >,std::allocator<std::pair<std::basic_string<char,std::char_traits<char>,std::allocator<char> > const ,unsigned long> >,0> >::_Get_scary
PUBLIC	?_Insert_node@?$_Tree_val@U?$_Tree_simple_types@U?$pair@$$CBV?$basic_string@DU?$char_traits@D@std@@V?$allocator@D@2@@std@@K@std@@@std@@@std@@QAEPAU?$_Tree_node@U?$pair@$$CBV?$basic_string@DU?$char_traits@D@std@@V?$allocator@D@2@@std@@K@std@@PAX@2@U?$_Tree_id@PAU?$_Tree_node@U?$pair@$$CBV?$basic_string@DU?$char_traits@D@std@@V?$allocator@D@2@@std@@K@std@@PAX@std@@@2@QAU32@@Z ; std::_Tree_val<std::_Tree_simple_types<std::pair<std::basic_string<char,std::char_traits<char>,std::allocator<char> > const ,unsigned long> > >::_Insert_node
PUBLIC	??D?$_Tree_const_iterator@V?$_Tree_val@U?$_Tree_simple_types@U?$pair@$$CBV?$basic_string@DU?$char_traits@D@std@@V?$allocator@D@2@@std@@K@std@@@std@@@std@@@std@@QBEABU?$pair@$$CBV?$basic_string@DU?$char_traits@D@std@@V?$allocator@D@2@@std@@K@1@XZ ; std::_Tree_const_iterator<std::_Tree_val<std::_Tree_simple_types<std::pair<std::basic_string<char,std::char_traits<char>,std::allocator<char> > const ,unsigned long> > > >::operator*
PUBLIC	?_Get_first@?$_Compressed_pair@V?$allocator@U?$_Tree_node@U?$pair@$$CBV?$basic_string@DU?$char_traits@D@std@@V?$allocator@D@2@@std@@K@std@@PAX@std@@@std@@V?$_Tree_val@U?$_Tree_simple_types@U?$pair@$$CBV?$basic_string@DU?$char_traits@D@std@@V?$allocator@D@2@@std@@K@std@@@std@@@2@$00@std@@QAEAAV?$allocator@U?$_Tree_node@U?$pair@$$CBV?$basic_string@DU?$char_traits@D@std@@V?$allocator@D@2@@std@@K@std@@PAX@std@@@2@XZ ; std::_Compressed_pair<std::allocator<std::_Tree_node<std::pair<std::basic_string<char,std::char_traits<char>,std::allocator<char> > const ,unsigned long>,void *> >,std::_Tree_val<std::_Tree_simple_types<std::pair<std::basic_string<char,std::char_traits<char>,std::allocator<char> > const ,unsigned long> > >,1>::_Get_first
PUBLIC	?_Check_grow_by_1@?$_Tree@V?$_Tmap_traits@V?$basic_string@DU?$char_traits@D@std@@V?$allocator@D@2@@std@@V12@U?$less@V?$basic_string@DU?$char_traits@D@std@@V?$allocator@D@2@@std@@@2@V?$allocator@U?$pair@$$CBV?$basic_string@DU?$char_traits@D@std@@V?$allocator@D@2@@std@@V12@@std@@@2@$0A@@std@@@std@@IAEXXZ ; std::_Tree<std::_Tmap_traits<std::basic_string<char,std::char_traits<char>,std::allocator<char> >,std::basic_string<char,std::char_traits<char>,std::allocator<char> >,std::less<std::basic_string<char,std::char_traits<char>,std::allocator<char> > >,std::allocator<std::pair<std::basic_string<char,std::char_traits<char>,std::allocator<char> > const ,std::basic_string<char,std::char_traits<char>,std::allocator<char> > > >,0> >::_Check_grow_by_1
PUBLIC	?_Alloc_sentinel_and_proxy@?$_Tree@V?$_Tmap_traits@V?$basic_string@DU?$char_traits@D@std@@V?$allocator@D@2@@std@@V12@U?$less@V?$basic_string@DU?$char_traits@D@std@@V?$allocator@D@2@@std@@@2@V?$allocator@U?$pair@$$CBV?$basic_string@DU?$char_traits@D@std@@V?$allocator@D@2@@std@@V12@@std@@@2@$0A@@std@@@std@@IAEXXZ ; std::_Tree<std::_Tmap_traits<std::basic_string<char,std::char_traits<char>,std::allocator<char> >,std::basic_string<char,std::char_traits<char>,std::allocator<char> >,std::less<std::basic_string<char,std::char_traits<char>,std::allocator<char> > >,std::allocator<std::pair<std::basic_string<char,std::char_traits<char>,std::allocator<char> > const ,std::basic_string<char,std::char_traits<char>,std::allocator<char> > > >,0> >::_Alloc_sentinel_and_proxy
PUBLIC	?_Get_scary@?$_Tree@V?$_Tmap_traits@V?$basic_string@DU?$char_traits@D@std@@V?$allocator@D@2@@std@@V12@U?$less@V?$basic_string@DU?$char_traits@D@std@@V?$allocator@D@2@@std@@@2@V?$allocator@U?$pair@$$CBV?$basic_string@DU?$char_traits@D@std@@V?$allocator@D@2@@std@@V12@@std@@@2@$0A@@std@@@std@@IBEPBV?$_Tree_val@U?$_Tree_simple_types@U?$pair@$$CBV?$basic_string@DU?$char_traits@D@std@@V?$allocator@D@2@@std@@V12@@std@@@std@@@2@XZ ; std::_Tree<std::_Tmap_traits<std::basic_string<char,std::char_traits<char>,std::allocator<char> >,std::basic_string<char,std::char_traits<char>,std::allocator<char> >,std::less<std::basic_string<char,std::char_traits<char>,std::allocator<char> > >,std::allocator<std::pair<std::basic_string<char,std::char_traits<char>,std::allocator<char> > const ,std::basic_string<char,std::char_traits<char>,std::allocator<char> > > >,0> >::_Get_scary
PUBLIC	?_Insert_node@?$_Tree_val@U?$_Tree_simple_types@U?$pair@$$CBV?$basic_string@DU?$char_traits@D@std@@V?$allocator@D@2@@std@@V12@@std@@@std@@@std@@QAEPAU?$_Tree_node@U?$pair@$$CBV?$basic_string@DU?$char_traits@D@std@@V?$allocator@D@2@@std@@V12@@std@@PAX@2@U?$_Tree_id@PAU?$_Tree_node@U?$pair@$$CBV?$basic_string@DU?$char_traits@D@std@@V?$allocator@D@2@@std@@V12@@std@@PAX@std@@@2@QAU32@@Z ; std::_Tree_val<std::_Tree_simple_types<std::pair<std::basic_string<char,std::char_traits<char>,std::allocator<char> > const ,std::basic_string<char,std::char_traits<char>,std::allocator<char> > > > >::_Insert_node
PUBLIC	?_Get_first@?$_Compressed_pair@V?$allocator@U?$_Tree_node@U?$pair@$$CBV?$basic_string@DU?$char_traits@D@std@@V?$allocator@D@2@@std@@V12@@std@@PAX@std@@@std@@V?$_Tree_val@U?$_Tree_simple_types@U?$pair@$$CBV?$basic_string@DU?$char_traits@D@std@@V?$allocator@D@2@@std@@V12@@std@@@std@@@2@$00@std@@QAEAAV?$allocator@U?$_Tree_node@U?$pair@$$CBV?$basic_string@DU?$char_traits@D@std@@V?$allocator@D@2@@std@@V12@@std@@PAX@std@@@2@XZ ; std::_Compressed_pair<std::allocator<std::_Tree_node<std::pair<std::basic_string<char,std::char_traits<char>,std::allocator<char> > const ,std::basic_string<char,std::char_traits<char>,std::allocator<char> > >,void *> >,std::_Tree_val<std::_Tree_simple_types<std::pair<std::basic_string<char,std::char_traits<char>,std::allocator<char> > const ,std::basic_string<char,std::char_traits<char>,std::allocator<char> > > > >,1>::_Get_first
PUBLIC	?_Extract@?$_In_place_key_extract_map_impl@KU?$pair@$$CBKUSSkillData@CPythonSkill@@@std@@@std@@SAABKABU?$pair@$$CBKUSSkillData@CPythonSkill@@@2@@Z ; std::_In_place_key_extract_map_impl<unsigned long,std::pair<unsigned long const ,CPythonSkill::SSkillData> >::_Extract
PUBLIC	??1?$_Tree_temp_node@V?$allocator@U?$_Tree_node@U?$pair@$$CBKUSSkillData@CPythonSkill@@@std@@PAX@std@@@std@@@std@@QAE@XZ ; std::_Tree_temp_node<std::allocator<std::_Tree_node<std::pair<unsigned long const ,CPythonSkill::SSkillData>,void *> > >::~_Tree_temp_node<std::allocator<std::_Tree_node<std::pair<unsigned long const ,CPythonSkill::SSkillData>,void *> > >
PUBLIC	?_Release@?$_Alloc_construct_ptr@V?$allocator@U?$_Tree_node@U?$pair@$$CBKUSSkillData@CPythonSkill@@@std@@PAX@std@@@std@@@std@@QAEPAU?$_Tree_node@U?$pair@$$CBKUSSkillData@CPythonSkill@@@std@@PAX@2@XZ ; std::_Alloc_construct_ptr<std::allocator<std::_Tree_node<std::pair<unsigned long const ,CPythonSkill::SSkillData>,void *> > >::_Release
PUBLIC	?_Extract@?$_In_place_key_extract_map_impl@V?$basic_string@DU?$char_traits@D@std@@V?$allocator@D@2@@std@@U?$pair@$$CBV?$basic_string@DU?$char_traits@D@std@@V?$allocator@D@2@@std@@K@2@@std@@SAABV?$basic_string@DU?$char_traits@D@std@@V?$allocator@D@2@@2@ABU?$pair@$$CBV?$basic_string@DU?$char_traits@D@std@@V?$allocator@D@2@@std@@K@2@@Z ; std::_In_place_key_extract_map_impl<std::basic_string<char,std::char_traits<char>,std::allocator<char> >,std::pair<std::basic_string<char,std::char_traits<char>,std::allocator<char> > const ,unsigned long> >::_Extract
PUBLIC	??1?$_Tree_temp_node@V?$allocator@U?$_Tree_node@U?$pair@$$CBV?$basic_string@DU?$char_traits@D@std@@V?$allocator@D@2@@std@@K@std@@PAX@std@@@std@@@std@@QAE@XZ ; std::_Tree_temp_node<std::allocator<std::_Tree_node<std::pair<std::basic_string<char,std::char_traits<char>,std::allocator<char> > const ,unsigned long>,void *> > >::~_Tree_temp_node<std::allocator<std::_Tree_node<std::pair<std::basic_string<char,std::char_traits<char>,std::allocator<char> > const ,unsigned long>,void *> > >
PUBLIC	?_Release@?$_Alloc_construct_ptr@V?$allocator@U?$_Tree_node@U?$pair@$$CBV?$basic_string@DU?$char_traits@D@std@@V?$allocator@D@2@@std@@K@std@@PAX@std@@@std@@@std@@QAEPAU?$_Tree_node@U?$pair@$$CBV?$basic_string@DU?$char_traits@D@std@@V?$allocator@D@2@@std@@K@std@@PAX@2@XZ ; std::_Alloc_construct_ptr<std::allocator<std::_Tree_node<std::pair<std::basic_string<char,std::char_traits<char>,std::allocator<char> > const ,unsigned long>,void *> > >::_Release
PUBLIC	??1?$_Tree_temp_node@V?$allocator@U?$_Tree_node@U?$pair@$$CBHUSPetSkillData@CPythonSkill@@@std@@PAX@std@@@std@@@std@@QAE@XZ ; std::_Tree_temp_node<std::allocator<std::_Tree_node<std::pair<int const ,CPythonSkill::SPetSkillData>,void *> > >::~_Tree_temp_node<std::allocator<std::_Tree_node<std::pair<int const ,CPythonSkill::SPetSkillData>,void *> > >
PUBLIC	?_Release@?$_Alloc_construct_ptr@V?$allocator@U?$_Tree_node@U?$pair@$$CBHUSPetSkillData@CPythonSkill@@@std@@PAX@std@@@std@@@std@@QAEPAU?$_Tree_node@U?$pair@$$CBHUSPetSkillData@CPythonSkill@@@std@@PAX@2@XZ ; std::_Alloc_construct_ptr<std::allocator<std::_Tree_node<std::pair<int const ,CPythonSkill::SPetSkillData>,void *> > >::_Release
PUBLIC	??1?$_Tree_temp_node@V?$allocator@U?$_Tree_node@U?$pair@$$CBV?$basic_string@DU?$char_traits@D@std@@V?$allocator@D@2@@std@@V12@@std@@PAX@std@@@std@@@std@@QAE@XZ ; std::_Tree_temp_node<std::allocator<std::_Tree_node<std::pair<std::basic_string<char,std::char_traits<char>,std::allocator<char> > const ,std::basic_string<char,std::char_traits<char>,std::allocator<char> > >,void *> > >::~_Tree_temp_node<std::allocator<std::_Tree_node<std::pair<std::basic_string<char,std::char_traits<char>,std::allocator<char> > const ,std::basic_string<char,std::char_traits<char>,std::allocator<char> > >,void *> > >
PUBLIC	?_Release@?$_Alloc_construct_ptr@V?$allocator@U?$_Tree_node@U?$pair@$$CBV?$basic_string@DU?$char_traits@D@std@@V?$allocator@D@2@@std@@V12@@std@@PAX@std@@@std@@@std@@QAEPAU?$_Tree_node@U?$pair@$$CBV?$basic_string@DU?$char_traits@D@std@@V?$allocator@D@2@@std@@V12@@std@@PAX@2@XZ ; std::_Alloc_construct_ptr<std::allocator<std::_Tree_node<std::pair<std::basic_string<char,std::char_traits<char>,std::allocator<char> > const ,std::basic_string<char,std::char_traits<char>,std::allocator<char> > >,void *> > >::_Release
PUBLIC	??$?0ABU?$less@H@std@@U_Zero_then_variadic_args_t@1@@?$_Compressed_pair@U?$less@H@std@@V?$_Compressed_pair@V?$allocator@U?$_Tree_node@U?$pair@$$CBHUSPetSkillData@CPythonSkill@@@std@@PAX@std@@@std@@V?$_Tree_val@U?$_Tree_simple_types@U?$pair@$$CBHUSPetSkillData@CPythonSkill@@@std@@@std@@@2@$00@2@$00@std@@QAE@U_One_then_variadic_args_t@1@ABU?$less@H@1@$$QAU_Zero_then_variadic_args_t@1@@Z ; std::_Compressed_pair<std::less<int>,std::_Compressed_pair<std::allocator<std::_Tree_node<std::pair<int const ,CPythonSkill::SPetSkillData>,void *> >,std::_Tree_val<std::_Tree_simple_types<std::pair<int const ,CPythonSkill::SPetSkillData> > >,1>,1>::_Compressed_pair<std::less<int>,std::_Compressed_pair<std::allocator<std::_Tree_node<std::pair<int const ,CPythonSkill::SPetSkillData>,void *> >,std::_Tree_val<std::_Tree_simple_types<std::pair<int const ,CPythonSkill::SPetSkillData> > >,1>,1><std::less<int> const &,std::_Zero_then_variadic_args_t>
PUBLIC	??$addressof@V?$_Tree_val@U?$_Tree_simple_types@U?$pair@$$CBHUSPetSkillData@CPythonSkill@@@std@@@std@@@std@@@std@@YAPAV?$_Tree_val@U?$_Tree_simple_types@U?$pair@$$CBHUSPetSkillData@CPythonSkill@@@std@@@std@@@0@AAV10@@Z ; std::addressof<std::_Tree_val<std::_Tree_simple_types<std::pair<int const ,CPythonSkill::SPetSkillData> > > >
PUBLIC	??$_Construct_n@ABQAUSAffectData@CPythonSkill@@ABQAU12@@?$vector@USAffectData@CPythonSkill@@V?$allocator@USAffectData@CPythonSkill@@@std@@@std@@AAEXIABQAUSAffectData@CPythonSkill@@0@Z ; std::vector<CPythonSkill::SAffectData,std::allocator<CPythonSkill::SAffectData> >::_Construct_n<CPythonSkill::SAffectData * const &,CPythonSkill::SAffectData * const &>
PUBLIC	??$?0V?$allocator@USAffectData@CPythonSkill@@@std@@$$V@?$_Compressed_pair@V?$allocator@USAffectData@CPythonSkill@@@std@@V?$_Vector_val@U?$_Simple_types@USAffectData@CPythonSkill@@@std@@@2@$00@std@@QAE@U_One_then_variadic_args_t@1@$$QAV?$allocator@USAffectData@CPythonSkill@@@1@@Z ; std::_Compressed_pair<std::allocator<CPythonSkill::SAffectData>,std::_Vector_val<std::_Simple_types<CPythonSkill::SAffectData> >,1>::_Compressed_pair<std::allocator<CPythonSkill::SAffectData>,std::_Vector_val<std::_Simple_types<CPythonSkill::SAffectData> >,1><std::allocator<CPythonSkill::SAffectData> >
PUBLIC	??$addressof@V?$_Vector_val@U?$_Simple_types@USAffectData@CPythonSkill@@@std@@@std@@@std@@YAPAV?$_Vector_val@U?$_Simple_types@USAffectData@CPythonSkill@@@std@@@0@AAV10@@Z ; std::addressof<std::_Vector_val<std::_Simple_types<CPythonSkill::SAffectData> > >
PUBLIC	??$move@AAV?$_Vector_iterator@V?$_Vector_val@U?$_Simple_types@USAffectData@CPythonSkill@@@std@@@std@@@std@@@std@@YA$$QAV?$_Vector_iterator@V?$_Vector_val@U?$_Simple_types@USAffectData@CPythonSkill@@@std@@@std@@@0@AAV10@@Z ; std::move<std::_Vector_iterator<std::_Vector_val<std::_Simple_types<CPythonSkill::SAffectData> > > &>
PUBLIC	??$_Construct_n@ABQAUSAffectDataNew@CPythonSkill@@ABQAU12@@?$vector@USAffectDataNew@CPythonSkill@@V?$allocator@USAffectDataNew@CPythonSkill@@@std@@@std@@AAEXIABQAUSAffectDataNew@CPythonSkill@@0@Z ; std::vector<CPythonSkill::SAffectDataNew,std::allocator<CPythonSkill::SAffectDataNew> >::_Construct_n<CPythonSkill::SAffectDataNew * const &,CPythonSkill::SAffectDataNew * const &>
PUBLIC	??$?0V?$allocator@USAffectDataNew@CPythonSkill@@@std@@$$V@?$_Compressed_pair@V?$allocator@USAffectDataNew@CPythonSkill@@@std@@V?$_Vector_val@U?$_Simple_types@USAffectDataNew@CPythonSkill@@@std@@@2@$00@std@@QAE@U_One_then_variadic_args_t@1@$$QAV?$allocator@USAffectDataNew@CPythonSkill@@@1@@Z ; std::_Compressed_pair<std::allocator<CPythonSkill::SAffectDataNew>,std::_Vector_val<std::_Simple_types<CPythonSkill::SAffectDataNew> >,1>::_Compressed_pair<std::allocator<CPythonSkill::SAffectDataNew>,std::_Vector_val<std::_Simple_types<CPythonSkill::SAffectDataNew> >,1><std::allocator<CPythonSkill::SAffectDataNew> >
PUBLIC	??$_Construct_n@ABQAUSRequireStatData@CPythonSkill@@ABQAU12@@?$vector@USRequireStatData@CPythonSkill@@V?$allocator@USRequireStatData@CPythonSkill@@@std@@@std@@AAEXIABQAUSRequireStatData@CPythonSkill@@0@Z ; std::vector<CPythonSkill::SRequireStatData,std::allocator<CPythonSkill::SRequireStatData> >::_Construct_n<CPythonSkill::SRequireStatData * const &,CPythonSkill::SRequireStatData * const &>
PUBLIC	??$?0V?$allocator@USRequireStatData@CPythonSkill@@@std@@$$V@?$_Compressed_pair@V?$allocator@USRequireStatData@CPythonSkill@@@std@@V?$_Vector_val@U?$_Simple_types@USRequireStatData@CPythonSkill@@@std@@@2@$00@std@@QAE@U_One_then_variadic_args_t@1@$$QAV?$allocator@USRequireStatData@CPythonSkill@@@1@@Z ; std::_Compressed_pair<std::allocator<CPythonSkill::SRequireStatData>,std::_Vector_val<std::_Simple_types<CPythonSkill::SRequireStatData> >,1>::_Compressed_pair<std::allocator<CPythonSkill::SRequireStatData>,std::_Vector_val<std::_Simple_types<CPythonSkill::SRequireStatData> >,1><std::allocator<CPythonSkill::SRequireStatData> >
PUBLIC	??$_Destroy_range@V?$allocator@USRequireStatData@CPythonSkill@@@std@@@std@@YAXPAUSRequireStatData@CPythonSkill@@QAU12@AAV?$allocator@USRequireStatData@CPythonSkill@@@0@@Z ; std::_Destroy_range<std::allocator<CPythonSkill::SRequireStatData> >
PUBLIC	??$?0ABU?$less@K@std@@U_Zero_then_variadic_args_t@1@@?$_Compressed_pair@U?$less@K@std@@V?$_Compressed_pair@V?$allocator@U?$_Tree_node@U?$pair@$$CBKUSSkillData@CPythonSkill@@@std@@PAX@std@@@std@@V?$_Tree_val@U?$_Tree_simple_types@U?$pair@$$CBKUSSkillData@CPythonSkill@@@std@@@std@@@2@$00@2@$00@std@@QAE@U_One_then_variadic_args_t@1@ABU?$less@K@1@$$QAU_Zero_then_variadic_args_t@1@@Z ; std::_Compressed_pair<std::less<unsigned long>,std::_Compressed_pair<std::allocator<std::_Tree_node<std::pair<unsigned long const ,CPythonSkill::SSkillData>,void *> >,std::_Tree_val<std::_Tree_simple_types<std::pair<unsigned long const ,CPythonSkill::SSkillData> > >,1>,1>::_Compressed_pair<std::less<unsigned long>,std::_Compressed_pair<std::allocator<std::_Tree_node<std::pair<unsigned long const ,CPythonSkill::SSkillData>,void *> >,std::_Tree_val<std::_Tree_simple_types<std::pair<unsigned long const ,CPythonSkill::SSkillData> > >,1>,1><std::less<unsigned long> const &,std::_Zero_then_variadic_args_t>
PUBLIC	??$addressof@V?$_Tree_val@U?$_Tree_simple_types@U?$pair@$$CBKUSSkillData@CPythonSkill@@@std@@@std@@@std@@@std@@YAPAV?$_Tree_val@U?$_Tree_simple_types@U?$pair@$$CBKUSSkillData@CPythonSkill@@@std@@@std@@@0@AAV10@@Z ; std::addressof<std::_Tree_val<std::_Tree_simple_types<std::pair<unsigned long const ,CPythonSkill::SSkillData> > > >
PUBLIC	??$?0ABU?$less@V?$basic_string@DU?$char_traits@D@std@@V?$allocator@D@2@@std@@@std@@U_Zero_then_variadic_args_t@1@@?$_Compressed_pair@U?$less@V?$basic_string@DU?$char_traits@D@std@@V?$allocator@D@2@@std@@@std@@V?$_Compressed_pair@V?$allocator@U?$_Tree_node@U?$pair@$$CBV?$basic_string@DU?$char_traits@D@std@@V?$allocator@D@2@@std@@K@std@@PAX@std@@@std@@V?$_Tree_val@U?$_Tree_simple_types@U?$pair@$$CBV?$basic_string@DU?$char_traits@D@std@@V?$allocator@D@2@@std@@K@std@@@std@@@2@$00@2@$00@std@@QAE@U_One_then_variadic_args_t@1@ABU?$less@V?$basic_string@DU?$char_traits@D@std@@V?$allocator@D@2@@std@@@1@$$QAU_Zero_then_variadic_args_t@1@@Z ; std::_Compressed_pair<std::less<std::basic_string<char,std::char_traits<char>,std::allocator<char> > >,std::_Compressed_pair<std::allocator<std::_Tree_node<std::pair<std::basic_string<char,std::char_traits<char>,std::allocator<char> > const ,unsigned long>,void *> >,std::_Tree_val<std::_Tree_simple_types<std::pair<std::basic_string<char,std::char_traits<char>,std::allocator<char> > const ,unsigned long> > >,1>,1>::_Compressed_pair<std::less<std::basic_string<char,std::char_traits<char>,std::allocator<char> > >,std::_Compressed_pair<std::allocator<std::_Tree_node<std::pair<std::basic_string<char,std::char_traits<char>,std::allocator<char> > const ,unsigned long>,void *> >,std::_Tree_val<std::_Tree_simple_types<std::pair<std::basic_string<char,std::char_traits<char>,std::allocator<char> > const ,unsigned long> > >,1>,1><std::less<std::basic_string<char,std::char_traits<char>,std::allocator<char> > > const &,std::_Zero_then_variadic_args_t>
PUBLIC	??$addressof@V?$_Tree_val@U?$_Tree_simple_types@U?$pair@$$CBV?$basic_string@DU?$char_traits@D@std@@V?$allocator@D@2@@std@@K@std@@@std@@@std@@@std@@YAPAV?$_Tree_val@U?$_Tree_simple_types@U?$pair@$$CBV?$basic_string@DU?$char_traits@D@std@@V?$allocator@D@2@@std@@K@std@@@std@@@0@AAV10@@Z ; std::addressof<std::_Tree_val<std::_Tree_simple_types<std::pair<std::basic_string<char,std::char_traits<char>,std::allocator<char> > const ,unsigned long> > > >
PUBLIC	??$?0ABU?$less@V?$basic_string@DU?$char_traits@D@std@@V?$allocator@D@2@@std@@@std@@U_Zero_then_variadic_args_t@1@@?$_Compressed_pair@U?$less@V?$basic_string@DU?$char_traits@D@std@@V?$allocator@D@2@@std@@@std@@V?$_Compressed_pair@V?$allocator@U?$_Tree_node@U?$pair@$$CBV?$basic_string@DU?$char_traits@D@std@@V?$allocator@D@2@@std@@V12@@std@@PAX@std@@@std@@V?$_Tree_val@U?$_Tree_simple_types@U?$pair@$$CBV?$basic_string@DU?$char_traits@D@std@@V?$allocator@D@2@@std@@V12@@std@@@std@@@2@$00@2@$00@std@@QAE@U_One_then_variadic_args_t@1@ABU?$less@V?$basic_string@DU?$char_traits@D@std@@V?$allocator@D@2@@std@@@1@$$QAU_Zero_then_variadic_args_t@1@@Z ; std::_Compressed_pair<std::less<std::basic_string<char,std::char_traits<char>,std::allocator<char> > >,std::_Compressed_pair<std::allocator<std::_Tree_node<std::pair<std::basic_string<char,std::char_traits<char>,std::allocator<char> > const ,std::basic_string<char,std::char_traits<char>,std::allocator<char> > >,void *> >,std::_Tree_val<std::_Tree_simple_types<std::pair<std::basic_string<char,std::char_traits<char>,std::allocator<char> > const ,std::basic_string<char,std::char_traits<char>,std::allocator<char> > > > >,1>,1>::_Compressed_pair<std::less<std::basic_string<char,std::char_traits<char>,std::allocator<char> > >,std::_Compressed_pair<std::allocator<std::_Tree_node<std::pair<std::basic_string<char,std::char_traits<char>,std::allocator<char> > const ,std::basic_string<char,std::char_traits<char>,std::allocator<char> > >,void *> >,std::_Tree_val<std::_Tree_simple_types<std::pair<std::basic_string<char,std::char_traits<char>,std::allocator<char> > const ,std::basic_string<char,std::char_traits<char>,std::allocator<char> > > > >,1>,1><std::less<std::basic_string<char,std::char_traits<char>,std::allocator<char> > > const &,std::_Zero_then_variadic_args_t>
PUBLIC	??$addressof@V?$_Tree_val@U?$_Tree_simple_types@U?$pair@$$CBV?$basic_string@DU?$char_traits@D@std@@V?$allocator@D@2@@std@@V12@@std@@@std@@@std@@@std@@YAPAV?$_Tree_val@U?$_Tree_simple_types@U?$pair@$$CBV?$basic_string@DU?$char_traits@D@std@@V?$allocator@D@2@@std@@V12@@std@@@std@@@0@AAV10@@Z ; std::addressof<std::_Tree_val<std::_Tree_simple_types<std::pair<std::basic_string<char,std::char_traits<char>,std::allocator<char> > const ,std::basic_string<char,std::char_traits<char>,std::allocator<char> > > > > >
PUBLIC	??$addressof@U?$pair@$$CBV?$basic_string@DU?$char_traits@D@std@@V?$allocator@D@2@@std@@K@std@@@std@@YAPAU?$pair@$$CBV?$basic_string@DU?$char_traits@D@std@@V?$allocator@D@2@@std@@K@0@AAU10@@Z ; std::addressof<std::pair<std::basic_string<char,std::char_traits<char>,std::allocator<char> > const ,unsigned long> >
PUBLIC	??$addressof@U?$pair@$$CBKUSSkillData@CPythonSkill@@@std@@@std@@YAPAU?$pair@$$CBKUSSkillData@CPythonSkill@@@0@AAU10@@Z ; std::addressof<std::pair<unsigned long const ,CPythonSkill::SSkillData> >
PUBLIC	??$addressof@U?$pair@$$CBHUSPetSkillData@CPythonSkill@@@std@@@std@@YAPAU?$pair@$$CBHUSPetSkillData@CPythonSkill@@@0@AAU10@@Z ; std::addressof<std::pair<int const ,CPythonSkill::SPetSkillData> >
PUBLIC	??$_Uninitialized_value_construct_n@V?$allocator@V?$basic_string@DU?$char_traits@D@std@@V?$allocator@D@2@@std@@@std@@@std@@YAPAV?$basic_string@DU?$char_traits@D@std@@V?$allocator@D@2@@0@PAV10@IAAV?$allocator@V?$basic_string@DU?$char_traits@D@std@@V?$allocator@D@2@@std@@@0@@Z ; std::_Uninitialized_value_construct_n<std::allocator<std::basic_string<char,std::char_traits<char>,std::allocator<char> > > >
PUBLIC	??$_Resize_reallocate@U_Value_init_tag@std@@@?$vector@V?$basic_string@DU?$char_traits@D@std@@V?$allocator@D@2@@std@@V?$allocator@V?$basic_string@DU?$char_traits@D@std@@V?$allocator@D@2@@std@@@2@@std@@AAEXIABU_Value_init_tag@1@@Z ; std::vector<std::basic_string<char,std::char_traits<char>,std::allocator<char> >,std::allocator<std::basic_string<char,std::char_traits<char>,std::allocator<char> > > >::_Resize_reallocate<std::_Value_init_tag>
PUBLIC	??$?0PAU?$_Tree_node@U?$pair@$$CBV?$basic_string@DU?$char_traits@D@std@@V?$allocator@D@2@@std@@V12@@std@@PAX@std@@_N$0A@@?$pair@PAU?$_Tree_node@U?$pair@$$CBV?$basic_string@DU?$char_traits@D@std@@V?$allocator@D@2@@std@@V12@@std@@PAX@std@@_N@std@@QAE@$$QAPAU?$_Tree_node@U?$pair@$$CBV?$basic_string@DU?$char_traits@D@std@@V?$allocator@D@2@@std@@V12@@std@@PAX@1@$$QA_N@Z ; std::pair<std::_Tree_node<std::pair<std::basic_string<char,std::char_traits<char>,std::allocator<char> > const ,std::basic_string<char,std::char_traits<char>,std::allocator<char> > >,void *> *,bool>::pair<std::_Tree_node<std::pair<std::basic_string<char,std::char_traits<char>,std::allocator<char> > const ,std::basic_string<char,std::char_traits<char>,std::allocator<char> > >,void *> *,bool><std::_Tree_node<std::pair<std::basic_string<char,std::char_traits<char>,std::allocator<char> > const ,std::basic_string<char,std::char_traits<char>,std::allocator<char> > >,void *> *,bool,0>
PUBLIC	??$?0ABQAU?$_Tree_node@U?$pair@$$CBV?$basic_string@DU?$char_traits@D@std@@V?$allocator@D@2@@std@@V12@@std@@PAX@std@@_N$0A@@?$pair@PAU?$_Tree_node@U?$pair@$$CBV?$basic_string@DU?$char_traits@D@std@@V?$allocator@D@2@@std@@V12@@std@@PAX@std@@_N@std@@QAE@ABQAU?$_Tree_node@U?$pair@$$CBV?$basic_string@DU?$char_traits@D@std@@V?$allocator@D@2@@std@@V12@@std@@PAX@1@$$QA_N@Z ; std::pair<std::_Tree_node<std::pair<std::basic_string<char,std::char_traits<char>,std::allocator<char> > const ,std::basic_string<char,std::char_traits<char>,std::allocator<char> > >,void *> *,bool>::pair<std::_Tree_node<std::pair<std::basic_string<char,std::char_traits<char>,std::allocator<char> > const ,std::basic_string<char,std::char_traits<char>,std::allocator<char> > >,void *> *,bool><std::_Tree_node<std::pair<std::basic_string<char,std::char_traits<char>,std::allocator<char> > const ,std::basic_string<char,std::char_traits<char>,std::allocator<char> > >,void *> * const &,bool,0>
PUBLIC	??$?0ABUpiecewise_construct_t@std@@V?$tuple@ABV?$basic_string@DU?$char_traits@D@std@@V?$allocator@D@2@@std@@@1@V?$tuple@$$V@1@@?$_Tree_temp_node@V?$allocator@U?$_Tree_node@U?$pair@$$CBV?$basic_string@DU?$char_traits@D@std@@V?$allocator@D@2@@std@@V12@@std@@PAX@std@@@std@@@std@@QAE@AAV?$allocator@U?$_Tree_node@U?$pair@$$CBV?$basic_string@DU?$char_traits@D@std@@V?$allocator@D@2@@std@@V12@@std@@PAX@std@@@1@PAU?$_Tree_node@U?$pair@$$CBV?$basic_string@DU?$char_traits@D@std@@V?$allocator@D@2@@std@@V12@@std@@PAX@1@ABUpiecewise_construct_t@1@$$QAV?$tuple@ABV?$basic_string@DU?$char_traits@D@std@@V?$allocator@D@2@@std@@@1@$$QAV?$tuple@$$V@1@@Z ; std::_Tree_temp_node<std::allocator<std::_Tree_node<std::pair<std::basic_string<char,std::char_traits<char>,std::allocator<char> > const ,std::basic_string<char,std::char_traits<char>,std::allocator<char> > >,void *> > >::_Tree_temp_node<std::allocator<std::_Tree_node<std::pair<std::basic_string<char,std::char_traits<char>,std::allocator<char> > const ,std::basic_string<char,std::char_traits<char>,std::allocator<char> > >,void *> > ><std::piecewise_construct_t const &,std::tuple<std::basic_string<char,std::char_traits<char>,std::allocator<char> > const &>,std::tuple<> >
PUBLIC	??$?0PAU?$_Tree_node@U?$pair@$$CBHUSPetSkillData@CPythonSkill@@@std@@PAX@std@@_N$0A@@?$pair@PAU?$_Tree_node@U?$pair@$$CBHUSPetSkillData@CPythonSkill@@@std@@PAX@std@@_N@std@@QAE@$$QAPAU?$_Tree_node@U?$pair@$$CBHUSPetSkillData@CPythonSkill@@@std@@PAX@1@$$QA_N@Z ; std::pair<std::_Tree_node<std::pair<int const ,CPythonSkill::SPetSkillData>,void *> *,bool>::pair<std::_Tree_node<std::pair<int const ,CPythonSkill::SPetSkillData>,void *> *,bool><std::_Tree_node<std::pair<int const ,CPythonSkill::SPetSkillData>,void *> *,bool,0>
PUBLIC	??$?0ABQAU?$_Tree_node@U?$pair@$$CBHUSPetSkillData@CPythonSkill@@@std@@PAX@std@@_N$0A@@?$pair@PAU?$_Tree_node@U?$pair@$$CBHUSPetSkillData@CPythonSkill@@@std@@PAX@std@@_N@std@@QAE@ABQAU?$_Tree_node@U?$pair@$$CBHUSPetSkillData@CPythonSkill@@@std@@PAX@1@$$QA_N@Z ; std::pair<std::_Tree_node<std::pair<int const ,CPythonSkill::SPetSkillData>,void *> *,bool>::pair<std::_Tree_node<std::pair<int const ,CPythonSkill::SPetSkillData>,void *> *,bool><std::_Tree_node<std::pair<int const ,CPythonSkill::SPetSkillData>,void *> * const &,bool,0>
PUBLIC	??$?0ABUpiecewise_construct_t@std@@V?$tuple@ABH@1@V?$tuple@$$V@1@@?$_Tree_temp_node@V?$allocator@U?$_Tree_node@U?$pair@$$CBHUSPetSkillData@CPythonSkill@@@std@@PAX@std@@@std@@@std@@QAE@AAV?$allocator@U?$_Tree_node@U?$pair@$$CBHUSPetSkillData@CPythonSkill@@@std@@PAX@std@@@1@PAU?$_Tree_node@U?$pair@$$CBHUSPetSkillData@CPythonSkill@@@std@@PAX@1@ABUpiecewise_construct_t@1@$$QAV?$tuple@ABH@1@$$QAV?$tuple@$$V@1@@Z ; std::_Tree_temp_node<std::allocator<std::_Tree_node<std::pair<int const ,CPythonSkill::SPetSkillData>,void *> > >::_Tree_temp_node<std::allocator<std::_Tree_node<std::pair<int const ,CPythonSkill::SPetSkillData>,void *> > ><std::piecewise_construct_t const &,std::tuple<int const &>,std::tuple<> >
PUBLIC	??$_Freenode0@V?$allocator@U?$_Tree_node@U?$pair@$$CBHUSPetSkillData@CPythonSkill@@@std@@PAX@std@@@std@@@?$_Tree_node@U?$pair@$$CBHUSPetSkillData@CPythonSkill@@@std@@PAX@std@@SAXAAV?$allocator@U?$_Tree_node@U?$pair@$$CBHUSPetSkillData@CPythonSkill@@@std@@PAX@std@@@1@PAU01@@Z ; std::_Tree_node<std::pair<int const ,CPythonSkill::SPetSkillData>,void *>::_Freenode0<std::allocator<std::_Tree_node<std::pair<int const ,CPythonSkill::SPetSkillData>,void *> > >
PUBLIC	??$_Freenode@V?$allocator@U?$_Tree_node@U?$pair@$$CBHUSPetSkillData@CPythonSkill@@@std@@PAX@std@@@std@@@?$_Tree_node@U?$pair@$$CBHUSPetSkillData@CPythonSkill@@@std@@PAX@std@@SAXAAV?$allocator@U?$_Tree_node@U?$pair@$$CBHUSPetSkillData@CPythonSkill@@@std@@PAX@std@@@1@PAU01@@Z ; std::_Tree_node<std::pair<int const ,CPythonSkill::SPetSkillData>,void *>::_Freenode<std::allocator<std::_Tree_node<std::pair<int const ,CPythonSkill::SPetSkillData>,void *> > >
PUBLIC	??$exchange@PAU?$_Tree_node@U?$pair@$$CBHUSPetSkillData@CPythonSkill@@@std@@PAX@std@@AAPAU12@@std@@YAPAU?$_Tree_node@U?$pair@$$CBHUSPetSkillData@CPythonSkill@@@std@@PAX@0@AAPAU10@0@Z ; std::exchange<std::_Tree_node<std::pair<int const ,CPythonSkill::SPetSkillData>,void *> *,std::_Tree_node<std::pair<int const ,CPythonSkill::SPetSkillData>,void *> * &>
PUBLIC	??$_Lower_bound_duplicate@H@?$_Tree@V?$_Tmap_traits@HUSPetSkillData@CPythonSkill@@U?$less@H@std@@V?$allocator@U?$pair@$$CBHUSPetSkillData@CPythonSkill@@@std@@@4@$0A@@std@@@std@@IBE_NQAU?$_Tree_node@U?$pair@$$CBHUSPetSkillData@CPythonSkill@@@std@@PAX@1@ABH@Z ; std::_Tree<std::_Tmap_traits<int,CPythonSkill::SPetSkillData,std::less<int>,std::allocator<std::pair<int const ,CPythonSkill::SPetSkillData> >,0> >::_Lower_bound_duplicate<int>
PUBLIC	??$_Find_lower_bound@H@?$_Tree@V?$_Tmap_traits@HUSPetSkillData@CPythonSkill@@U?$less@H@std@@V?$allocator@U?$pair@$$CBHUSPetSkillData@CPythonSkill@@@std@@@4@$0A@@std@@@std@@IBE?AU?$_Tree_find_result@PAU?$_Tree_node@U?$pair@$$CBHUSPetSkillData@CPythonSkill@@@std@@PAX@std@@@1@ABH@Z ; std::_Tree<std::_Tmap_traits<int,CPythonSkill::SPetSkillData,std::less<int>,std::allocator<std::pair<int const ,CPythonSkill::SPetSkillData> >,0> >::_Find_lower_bound<int>
PUBLIC	??$_Emplace_reallocate@USAffectData@CPythonSkill@@@?$vector@USAffectData@CPythonSkill@@V?$allocator@USAffectData@CPythonSkill@@@std@@@std@@AAEPAUSAffectData@CPythonSkill@@QAU23@$$QAU23@@Z ; std::vector<CPythonSkill::SAffectData,std::allocator<CPythonSkill::SAffectData> >::_Emplace_reallocate<CPythonSkill::SAffectData>
PUBLIC	??$_Emplace_back_with_unused_capacity@USAffectData@CPythonSkill@@@?$vector@USAffectData@CPythonSkill@@V?$allocator@USAffectData@CPythonSkill@@@std@@@std@@AAEAAUSAffectData@CPythonSkill@@$$QAU23@@Z ; std::vector<CPythonSkill::SAffectData,std::allocator<CPythonSkill::SAffectData> >::_Emplace_back_with_unused_capacity<CPythonSkill::SAffectData>
PUBLIC	??$forward@USAffectData@CPythonSkill@@@std@@YA$$QAUSAffectData@CPythonSkill@@AAU12@@Z ; std::forward<CPythonSkill::SAffectData>
PUBLIC	??$_Uninitialized_value_construct_n@V?$allocator@USAffectData@CPythonSkill@@@std@@@std@@YAPAUSAffectData@CPythonSkill@@PAU12@IAAV?$allocator@USAffectData@CPythonSkill@@@0@@Z ; std::_Uninitialized_value_construct_n<std::allocator<CPythonSkill::SAffectData> >
PUBLIC	??$_Resize_reallocate@U_Value_init_tag@std@@@?$vector@USAffectData@CPythonSkill@@V?$allocator@USAffectData@CPythonSkill@@@std@@@std@@AAEXIABU_Value_init_tag@1@@Z ; std::vector<CPythonSkill::SAffectData,std::allocator<CPythonSkill::SAffectData> >::_Resize_reallocate<std::_Value_init_tag>
PUBLIC	??$destroy@USAffectData@CPythonSkill@@@?$_Default_allocator_traits@V?$allocator@USAffectData@CPythonSkill@@@std@@@std@@SAXAAV?$allocator@USAffectData@CPythonSkill@@@1@QAUSAffectData@CPythonSkill@@@Z ; std::_Default_allocator_traits<std::allocator<CPythonSkill::SAffectData> >::destroy<CPythonSkill::SAffectData>
PUBLIC	??$_Unfancy@USAffectData@CPythonSkill@@@std@@YAPAUSAffectData@CPythonSkill@@PAU12@@Z ; std::_Unfancy<CPythonSkill::SAffectData>
PUBLIC	??$_Uninitialized_move@PAUSAffectDataNew@CPythonSkill@@V?$allocator@USAffectDataNew@CPythonSkill@@@std@@@std@@YAPAUSAffectDataNew@CPythonSkill@@QAU12@0PAU12@AAV?$allocator@USAffectDataNew@CPythonSkill@@@0@@Z ; std::_Uninitialized_move<CPythonSkill::SAffectDataNew *,std::allocator<CPythonSkill::SAffectDataNew> >
PUBLIC	??$_Get_unwrapped@ABQAUSAffectDataNew@CPythonSkill@@@std@@YA?A_TABQAUSAffectDataNew@CPythonSkill@@@Z ; std::_Get_unwrapped<CPythonSkill::SAffectDataNew * const &>
PUBLIC	??$_Allocate_at_least_helper@V?$allocator@USAffectDataNew@CPythonSkill@@@std@@@std@@YAPAUSAffectDataNew@CPythonSkill@@AAV?$allocator@USAffectDataNew@CPythonSkill@@@0@AAI@Z ; std::_Allocate_at_least_helper<std::allocator<CPythonSkill::SAffectDataNew> >
PUBLIC	??$destroy@USAffectDataNew@CPythonSkill@@@?$_Default_allocator_traits@V?$allocator@USAffectDataNew@CPythonSkill@@@std@@@std@@SAXAAV?$allocator@USAffectDataNew@CPythonSkill@@@1@QAUSAffectDataNew@CPythonSkill@@@Z ; std::_Default_allocator_traits<std::allocator<CPythonSkill::SAffectDataNew> >::destroy<CPythonSkill::SAffectDataNew>
PUBLIC	??$_Unfancy@USAffectDataNew@CPythonSkill@@@std@@YAPAUSAffectDataNew@CPythonSkill@@PAU12@@Z ; std::_Unfancy<CPythonSkill::SAffectDataNew>
PUBLIC	??$?0ABQAU?$_Tree_node@U?$pair@$$CBKUSSkillData@CPythonSkill@@@std@@PAX@std@@_N$0A@@?$pair@PAU?$_Tree_node@U?$pair@$$CBKUSSkillData@CPythonSkill@@@std@@PAX@std@@_N@std@@QAE@ABQAU?$_Tree_node@U?$pair@$$CBKUSSkillData@CPythonSkill@@@std@@PAX@1@$$QA_N@Z ; std::pair<std::_Tree_node<std::pair<unsigned long const ,CPythonSkill::SSkillData>,void *> *,bool>::pair<std::_Tree_node<std::pair<unsigned long const ,CPythonSkill::SSkillData>,void *> *,bool><std::_Tree_node<std::pair<unsigned long const ,CPythonSkill::SSkillData>,void *> * const &,bool,0>
PUBLIC	??$?0ABUpiecewise_construct_t@std@@V?$tuple@ABK@1@V?$tuple@$$V@1@@?$_Tree_temp_node@V?$allocator@U?$_Tree_node@U?$pair@$$CBKUSSkillData@CPythonSkill@@@std@@PAX@std@@@std@@@std@@QAE@AAV?$allocator@U?$_Tree_node@U?$pair@$$CBKUSSkillData@CPythonSkill@@@std@@PAX@std@@@1@PAU?$_Tree_node@U?$pair@$$CBKUSSkillData@CPythonSkill@@@std@@PAX@1@ABUpiecewise_construct_t@1@$$QAV?$tuple@ABK@1@$$QAV?$tuple@$$V@1@@Z ; std::_Tree_temp_node<std::allocator<std::_Tree_node<std::pair<unsigned long const ,CPythonSkill::SSkillData>,void *> > >::_Tree_temp_node<std::allocator<std::_Tree_node<std::pair<unsigned long const ,CPythonSkill::SSkillData>,void *> > ><std::piecewise_construct_t const &,std::tuple<unsigned long const &>,std::tuple<> >
PUBLIC	??$_Freenode0@V?$allocator@U?$_Tree_node@U?$pair@$$CBKUSSkillData@CPythonSkill@@@std@@PAX@std@@@std@@@?$_Tree_node@U?$pair@$$CBKUSSkillData@CPythonSkill@@@std@@PAX@std@@SAXAAV?$allocator@U?$_Tree_node@U?$pair@$$CBKUSSkillData@CPythonSkill@@@std@@PAX@std@@@1@PAU01@@Z ; std::_Tree_node<std::pair<unsigned long const ,CPythonSkill::SSkillData>,void *>::_Freenode0<std::allocator<std::_Tree_node<std::pair<unsigned long const ,CPythonSkill::SSkillData>,void *> > >
PUBLIC	??$_Freenode@V?$allocator@U?$_Tree_node@U?$pair@$$CBKUSSkillData@CPythonSkill@@@std@@PAX@std@@@std@@@?$_Tree_node@U?$pair@$$CBKUSSkillData@CPythonSkill@@@std@@PAX@std@@SAXAAV?$allocator@U?$_Tree_node@U?$pair@$$CBKUSSkillData@CPythonSkill@@@std@@PAX@std@@@1@PAU01@@Z ; std::_Tree_node<std::pair<unsigned long const ,CPythonSkill::SSkillData>,void *>::_Freenode<std::allocator<std::_Tree_node<std::pair<unsigned long const ,CPythonSkill::SSkillData>,void *> > >
PUBLIC	??$exchange@PAU?$_Tree_node@U?$pair@$$CBKUSSkillData@CPythonSkill@@@std@@PAX@std@@AAPAU12@@std@@YAPAU?$_Tree_node@U?$pair@$$CBKUSSkillData@CPythonSkill@@@std@@PAX@0@AAPAU10@0@Z ; std::exchange<std::_Tree_node<std::pair<unsigned long const ,CPythonSkill::SSkillData>,void *> *,std::_Tree_node<std::pair<unsigned long const ,CPythonSkill::SSkillData>,void *> * &>
PUBLIC	??$_Freenode0@V?$allocator@U?$_Tree_node@U?$pair@$$CBV?$basic_string@DU?$char_traits@D@std@@V?$allocator@D@2@@std@@K@std@@PAX@std@@@std@@@?$_Tree_node@U?$pair@$$CBV?$basic_string@DU?$char_traits@D@std@@V?$allocator@D@2@@std@@K@std@@PAX@std@@SAXAAV?$allocator@U?$_Tree_node@U?$pair@$$CBV?$basic_string@DU?$char_traits@D@std@@V?$allocator@D@2@@std@@K@std@@PAX@std@@@1@PAU01@@Z ; std::_Tree_node<std::pair<std::basic_string<char,std::char_traits<char>,std::allocator<char> > const ,unsigned long>,void *>::_Freenode0<std::allocator<std::_Tree_node<std::pair<std::basic_string<char,std::char_traits<char>,std::allocator<char> > const ,unsigned long>,void *> > >
PUBLIC	??$_Erase_tree@V?$allocator@U?$_Tree_node@U?$pair@$$CBV?$basic_string@DU?$char_traits@D@std@@V?$allocator@D@2@@std@@K@std@@PAX@std@@@std@@@?$_Tree_val@U?$_Tree_simple_types@U?$pair@$$CBV?$basic_string@DU?$char_traits@D@std@@V?$allocator@D@2@@std@@K@std@@@std@@@std@@QAEXAAV?$allocator@U?$_Tree_node@U?$pair@$$CBV?$basic_string@DU?$char_traits@D@std@@V?$allocator@D@2@@std@@K@std@@PAX@std@@@1@PAU?$_Tree_node@U?$pair@$$CBV?$basic_string@DU?$char_traits@D@std@@V?$allocator@D@2@@std@@K@std@@PAX@1@@Z ; std::_Tree_val<std::_Tree_simple_types<std::pair<std::basic_string<char,std::char_traits<char>,std::allocator<char> > const ,unsigned long> > >::_Erase_tree<std::allocator<std::_Tree_node<std::pair<std::basic_string<char,std::char_traits<char>,std::allocator<char> > const ,unsigned long>,void *> > >
PUBLIC	??$_Freenode0@V?$allocator@U?$_Tree_node@U?$pair@$$CBV?$basic_string@DU?$char_traits@D@std@@V?$allocator@D@2@@std@@V12@@std@@PAX@std@@@std@@@?$_Tree_node@U?$pair@$$CBV?$basic_string@DU?$char_traits@D@std@@V?$allocator@D@2@@std@@V12@@std@@PAX@std@@SAXAAV?$allocator@U?$_Tree_node@U?$pair@$$CBV?$basic_string@DU?$char_traits@D@std@@V?$allocator@D@2@@std@@V12@@std@@PAX@std@@@1@PAU01@@Z ; std::_Tree_node<std::pair<std::basic_string<char,std::char_traits<char>,std::allocator<char> > const ,std::basic_string<char,std::char_traits<char>,std::allocator<char> > >,void *>::_Freenode0<std::allocator<std::_Tree_node<std::pair<std::basic_string<char,std::char_traits<char>,std::allocator<char> > const ,std::basic_string<char,std::char_traits<char>,std::allocator<char> > >,void *> > >
PUBLIC	??$_Erase_tree@V?$allocator@U?$_Tree_node@U?$pair@$$CBV?$basic_string@DU?$char_traits@D@std@@V?$allocator@D@2@@std@@V12@@std@@PAX@std@@@std@@@?$_Tree_val@U?$_Tree_simple_types@U?$pair@$$CBV?$basic_string@DU?$char_traits@D@std@@V?$allocator@D@2@@std@@V12@@std@@@std@@@std@@QAEXAAV?$allocator@U?$_Tree_node@U?$pair@$$CBV?$basic_string@DU?$char_traits@D@std@@V?$allocator@D@2@@std@@V12@@std@@PAX@std@@@1@PAU?$_Tree_node@U?$pair@$$CBV?$basic_string@DU?$char_traits@D@std@@V?$allocator@D@2@@std@@V12@@std@@PAX@1@@Z ; std::_Tree_val<std::_Tree_simple_types<std::pair<std::basic_string<char,std::char_traits<char>,std::allocator<char> > const ,std::basic_string<char,std::char_traits<char>,std::allocator<char> > > > >::_Erase_tree<std::allocator<std::_Tree_node<std::pair<std::basic_string<char,std::char_traits<char>,std::allocator<char> > const ,std::basic_string<char,std::char_traits<char>,std::allocator<char> > >,void *> > >
PUBLIC	??$_Lower_bound_duplicate@V?$basic_string@DU?$char_traits@D@std@@V?$allocator@D@2@@std@@@?$_Tree@V?$_Tmap_traits@V?$basic_string@DU?$char_traits@D@std@@V?$allocator@D@2@@std@@V12@U?$less@V?$basic_string@DU?$char_traits@D@std@@V?$allocator@D@2@@std@@@2@V?$allocator@U?$pair@$$CBV?$basic_string@DU?$char_traits@D@std@@V?$allocator@D@2@@std@@V12@@std@@@2@$0A@@std@@@std@@IBE_NQAU?$_Tree_node@U?$pair@$$CBV?$basic_string@DU?$char_traits@D@std@@V?$allocator@D@2@@std@@V12@@std@@PAX@1@ABV?$basic_string@DU?$char_traits@D@std@@V?$allocator@D@2@@1@@Z ; std::_Tree<std::_Tmap_traits<std::basic_string<char,std::char_traits<char>,std::allocator<char> >,std::basic_string<char,std::char_traits<char>,std::allocator<char> >,std::less<std::basic_string<char,std::char_traits<char>,std::allocator<char> > >,std::allocator<std::pair<std::basic_string<char,std::char_traits<char>,std::allocator<char> > const ,std::basic_string<char,std::char_traits<char>,std::allocator<char> > > >,0> >::_Lower_bound_duplicate<std::basic_string<char,std::char_traits<char>,std::allocator<char> > >
PUBLIC	??$_Find_lower_bound@V?$basic_string@DU?$char_traits@D@std@@V?$allocator@D@2@@std@@@?$_Tree@V?$_Tmap_traits@V?$basic_string@DU?$char_traits@D@std@@V?$allocator@D@2@@std@@V12@U?$less@V?$basic_string@DU?$char_traits@D@std@@V?$allocator@D@2@@std@@@2@V?$allocator@U?$pair@$$CBV?$basic_string@DU?$char_traits@D@std@@V?$allocator@D@2@@std@@V12@@std@@@2@$0A@@std@@@std@@IBE?AU?$_Tree_find_result@PAU?$_Tree_node@U?$pair@$$CBV?$basic_string@DU?$char_traits@D@std@@V?$allocator@D@2@@std@@V12@@std@@PAX@std@@@1@ABV?$basic_string@DU?$char_traits@D@std@@V?$allocator@D@2@@1@@Z ; std::_Tree<std::_Tmap_traits<std::basic_string<char,std::char_traits<char>,std::allocator<char> >,std::basic_string<char,std::char_traits<char>,std::allocator<char> >,std::less<std::basic_string<char,std::char_traits<char>,std::allocator<char> > >,std::allocator<std::pair<std::basic_string<char,std::char_traits<char>,std::allocator<char> > const ,std::basic_string<char,std::char_traits<char>,std::allocator<char> > > >,0> >::_Find_lower_bound<std::basic_string<char,std::char_traits<char>,std::allocator<char> > >
