; Listing generated by Microsoft (R) Optimizing Compiler Version 19.44.35219.0 

	TITLE	c:\anka2project\anka2project\source\binary\vs_files\userinterface\release\pythonnonplayer.obj
	.686P
	.XMM
	include listing.inc
	.model	flat

INCLUDELIB OLDNAMES

PUBLIC	??_C@_0DP@FIGKBDCC@CPythonNonPlayer?3?3LoadNonPlayer@ ; `string'
PUBLIC	??_C@_0DP@FMDCKFI@CPythonNonPlayer?3?3LoadNonPlayer@ ; `string'
PUBLIC	??_C@_06KELEGIHG@ANIMAL@			; `string'
PUBLIC	??_C@_0EI@EHJJMNEK@CPythonNonPlayer?3?3LoadNonPlayer@ ; `string'
PUBLIC	??_C@_05IHAGCHCH@DEVIL@				; `string'
PUBLIC	??_C@_06MCNILGPN@UNDEAD@			; `string'
PUBLIC	??_C@_03KJKAIOJA@ORC@				; `string'
PUBLIC	??_C@_05CLBJJDHK@HUMAN@				; `string'
PUBLIC	??_C@_06PJCAMNOK@INSECT@			; `string'
PUBLIC	??_C@_06OAFEPMKF@MILGYO@			; `string'
PUBLIC	??_C@_03MHHFLPIN@ICE@				; `string'
PUBLIC	??_C@_04OKEEPDCC@FIRE@				; `string'
PUBLIC	??_C@_04GOBFFCKL@TREE@				; `string'
PUBLIC	??_C@_06OPNEJFKO@DESERT@			; `string'
PUBLIC	??_C@_08PIKIINGP@ATT_FIRE@			; `string'
PUBLIC	??_C@_08MHOFBFPO@ATT_ELEC@			; `string'
PUBLIC	??_C@_08KJAPFIAI@ATT_WIND@			; `string'
PUBLIC	??_C@_07JMOCKCNE@ATT_ICE@			; `string'
PUBLIC	??_C@_08NJFPNLGO@ATT_DARK@			; `string'
PUBLIC	??_C@_09EOFFOBGB@ATT_EARTH@			; `string'
PUBLIC	??_C@_0CE@MBAPEHGB@LoadMobScale?3?5invalid?5line?5?$CFd?5?$CI@ ; `string'
PUBLIC	??_C@_01IHBHIGKO@?0@				; `string'
PUBLIC	??_C@_03NFKEKGGK@all@				; `string'
PUBLIC	??_C@_01GPOEFGEJ@?7@				; `string'
PUBLIC	??_R2CPythonNonPlayer@@8			; CPythonNonPlayer::`RTTI Base Class Array'
PUBLIC	??_R2?$CSingleton@VCPythonNonPlayer@@@@8	; CSingleton<CPythonNonPlayer>::`RTTI Base Class Array'
PUBLIC	??_R1A@?0A@EA@?$CSingleton@VCPythonNonPlayer@@@@8 ; CSingleton<CPythonNonPlayer>::`RTTI Base Class Descriptor at (0,-1,0,64)'
PUBLIC	??_R1A@?0A@EA@CPythonNonPlayer@@8		; CPythonNonPlayer::`RTTI Base Class Descriptor at (0,-1,0,64)'
PUBLIC	??_R3?$CSingleton@VCPythonNonPlayer@@@@8	; CSingleton<CPythonNonPlayer>::`RTTI Class Hierarchy Descriptor'
PUBLIC	??_R3CPythonNonPlayer@@8			; CPythonNonPlayer::`RTTI Class Hierarchy Descriptor'
PUBLIC	??_R0?AV?$CSingleton@VCPythonNonPlayer@@@@@8	; CSingleton<CPythonNonPlayer> `RTTI Type Descriptor'
PUBLIC	??_R0?AVCPythonNonPlayer@@@8			; CPythonNonPlayer `RTTI Type Descriptor'
PUBLIC	??_R4?$CSingleton@VCPythonNonPlayer@@@@6B@	; CSingleton<CPythonNonPlayer>::`RTTI Complete Object Locator'
PUBLIC	??_R4CPythonNonPlayer@@6B@			; CPythonNonPlayer::`RTTI Complete Object Locator'
PUBLIC	??_7?$CSingleton@VCPythonNonPlayer@@@@6B@	; CSingleton<CPythonNonPlayer>::`vftable'
PUBLIC	??_7CPythonNonPlayer@@6B@			; CPythonNonPlayer::`vftable'
EXTRN	?SplitLine@CMemoryTextFileLoader@@QAE_NKPAV?$vector@V?$basic_string@DU?$char_traits@D@std@@V?$allocator@D@2@@std@@V?$allocator@V?$basic_string@DU?$char_traits@D@std@@V?$allocator@D@2@@std@@@2@@std@@PBD@Z:PROC ; CMemoryTextFileLoader::SplitLine
EXTRN	?Decompress@CLZO@@QAE_NAAVCLZObject@@PBEPAK@Z:PROC ; CLZO::Decompress
EXTRN	?GetSize@CLZObject@@QAEKXZ:PROC			; CLZObject::GetSize
EXTRN	??1CLZObject@@QAE@XZ:PROC			; CLZObject::~CLZObject
EXTRN	??0CLZObject@@QAE@XZ:PROC			; CLZObject::CLZObject
;	COMDAT ?s_adwMobProtoKey@?1??LoadNonPlayerData@CPythonNonPlayer@@QAE_NPBD@Z@4PAKA
_DATA	SEGMENT
?s_adwMobProtoKey@?1??LoadNonPlayerData@CPythonNonPlayer@@QAE_NPBD@Z@4PAKA DD 0497446H ; `CPythonNonPlayer::LoadNonPlayerData'::`2'::s_adwMobProtoKey
	DD	04a0bH
	DD	086eb7H
	DD	068189dH
_DATA	ENDS
;	COMDAT ?sc_szEmpty@?4??GetMonsterName@CPythonNonPlayer@@QAEPBDK@Z@4PBDB
CONST	SEGMENT
?sc_szEmpty@?4??GetMonsterName@CPythonNonPlayer@@QAEPBDK@Z@4PBDB DD FLAT:??_C@_00CNPNBAHC@@ ; `CPythonNonPlayer::GetMonsterName'::`5'::sc_szEmpty
CONST	ENDS
;	COMDAT ??_7CPythonNonPlayer@@6B@
CONST	SEGMENT
??_7CPythonNonPlayer@@6B@ DD FLAT:??_R4CPythonNonPlayer@@6B@ ; CPythonNonPlayer::`vftable'
	DD	FLAT:??_ECPythonNonPlayer@@UAEPAXI@Z
CONST	ENDS
;	COMDAT ??_7?$CSingleton@VCPythonNonPlayer@@@@6B@
CONST	SEGMENT
??_7?$CSingleton@VCPythonNonPlayer@@@@6B@ DD FLAT:??_R4?$CSingleton@VCPythonNonPlayer@@@@6B@ ; CSingleton<CPythonNonPlayer>::`vftable'
	DD	FLAT:??_E?$CSingleton@VCPythonNonPlayer@@@@UAEPAXI@Z
CONST	ENDS
;	COMDAT ??_R4CPythonNonPlayer@@6B@
rdata$r	SEGMENT
??_R4CPythonNonPlayer@@6B@ DD 00H			; CPythonNonPlayer::`RTTI Complete Object Locator'
	DD	00H
	DD	00H
	DD	FLAT:??_R0?AVCPythonNonPlayer@@@8
	DD	FLAT:??_R3CPythonNonPlayer@@8
rdata$r	ENDS
;	COMDAT ??_R4?$CSingleton@VCPythonNonPlayer@@@@6B@
rdata$r	SEGMENT
??_R4?$CSingleton@VCPythonNonPlayer@@@@6B@ DD 00H	; CSingleton<CPythonNonPlayer>::`RTTI Complete Object Locator'
	DD	00H
	DD	00H
	DD	FLAT:??_R0?AV?$CSingleton@VCPythonNonPlayer@@@@@8
	DD	FLAT:??_R3?$CSingleton@VCPythonNonPlayer@@@@8
rdata$r	ENDS
;	COMDAT ??_R0?AVCPythonNonPlayer@@@8
data$rs	SEGMENT
??_R0?AVCPythonNonPlayer@@@8 DD FLAT:??_7type_info@@6B@	; CPythonNonPlayer `RTTI Type Descriptor'
	DD	00H
	DB	'.?AVCPythonNonPlayer@@', 00H
data$rs	ENDS
;	COMDAT ??_R0?AV?$CSingleton@VCPythonNonPlayer@@@@@8
data$rs	SEGMENT
??_R0?AV?$CSingleton@VCPythonNonPlayer@@@@@8 DD FLAT:??_7type_info@@6B@ ; CSingleton<CPythonNonPlayer> `RTTI Type Descriptor'
	DD	00H
	DB	'.?AV?$CSingleton@VCPythonNonPlayer@@@@', 00H
data$rs	ENDS
;	COMDAT ??_R3CPythonNonPlayer@@8
rdata$r	SEGMENT
??_R3CPythonNonPlayer@@8 DD 00H				; CPythonNonPlayer::`RTTI Class Hierarchy Descriptor'
	DD	00H
	DD	02H
	DD	FLAT:??_R2CPythonNonPlayer@@8
rdata$r	ENDS
;	COMDAT ??_R3?$CSingleton@VCPythonNonPlayer@@@@8
rdata$r	SEGMENT
??_R3?$CSingleton@VCPythonNonPlayer@@@@8 DD 00H		; CSingleton<CPythonNonPlayer>::`RTTI Class Hierarchy Descriptor'
	DD	00H
	DD	01H
	DD	FLAT:??_R2?$CSingleton@VCPythonNonPlayer@@@@8
rdata$r	ENDS
;	COMDAT ??_R1A@?0A@EA@CPythonNonPlayer@@8
rdata$r	SEGMENT
??_R1A@?0A@EA@CPythonNonPlayer@@8 DD FLAT:??_R0?AVCPythonNonPlayer@@@8 ; CPythonNonPlayer::`RTTI Base Class Descriptor at (0,-1,0,64)'
	DD	01H
	DD	00H
	DD	0ffffffffH
	DD	00H
	DD	040H
	DD	FLAT:??_R3CPythonNonPlayer@@8
rdata$r	ENDS
;	COMDAT ??_R1A@?0A@EA@?$CSingleton@VCPythonNonPlayer@@@@8
rdata$r	SEGMENT
??_R1A@?0A@EA@?$CSingleton@VCPythonNonPlayer@@@@8 DD FLAT:??_R0?AV?$CSingleton@VCPythonNonPlayer@@@@@8 ; CSingleton<CPythonNonPlayer>::`RTTI Base Class Descriptor at (0,-1,0,64)'
	DD	00H
	DD	00H
	DD	0ffffffffH
	DD	00H
	DD	040H
	DD	FLAT:??_R3?$CSingleton@VCPythonNonPlayer@@@@8
rdata$r	ENDS
;	COMDAT ??_R2?$CSingleton@VCPythonNonPlayer@@@@8
rdata$r	SEGMENT
??_R2?$CSingleton@VCPythonNonPlayer@@@@8 DD FLAT:??_R1A@?0A@EA@?$CSingleton@VCPythonNonPlayer@@@@8 ; CSingleton<CPythonNonPlayer>::`RTTI Base Class Array'
rdata$r	ENDS
;	COMDAT ??_R2CPythonNonPlayer@@8
rdata$r	SEGMENT
??_R2CPythonNonPlayer@@8 DD FLAT:??_R1A@?0A@EA@CPythonNonPlayer@@8 ; CPythonNonPlayer::`RTTI Base Class Array'
	DD	FLAT:??_R1A@?0A@EA@?$CSingleton@VCPythonNonPlayer@@@@8
rdata$r	ENDS
;	COMDAT ??_C@_01GPOEFGEJ@?7@
CONST	SEGMENT
??_C@_01GPOEFGEJ@?7@ DB 09H, 00H			; `string'
CONST	ENDS
;	COMDAT ??_C@_03NFKEKGGK@all@
CONST	SEGMENT
??_C@_03NFKEKGGK@all@ DB 'all', 00H			; `string'
CONST	ENDS
;	COMDAT ??_C@_01IHBHIGKO@?0@
CONST	SEGMENT
??_C@_01IHBHIGKO@?0@ DB ',', 00H			; `string'
CONST	ENDS
;	COMDAT ??_C@_0CE@MBAPEHGB@LoadMobScale?3?5invalid?5line?5?$CFd?5?$CI@
CONST	SEGMENT
??_C@_0CE@MBAPEHGB@LoadMobScale?3?5invalid?5line?5?$CFd?5?$CI@ DB 'LoadMo'
	DB	'bScale: invalid line %d (%s).', 00H		; `string'
CONST	ENDS
;	COMDAT ??_C@_09EOFFOBGB@ATT_EARTH@
CONST	SEGMENT
??_C@_09EOFFOBGB@ATT_EARTH@ DB 'ATT_EARTH', 00H		; `string'
CONST	ENDS
;	COMDAT ??_C@_08NJFPNLGO@ATT_DARK@
CONST	SEGMENT
??_C@_08NJFPNLGO@ATT_DARK@ DB 'ATT_DARK', 00H		; `string'
CONST	ENDS
;	COMDAT ??_C@_07JMOCKCNE@ATT_ICE@
CONST	SEGMENT
??_C@_07JMOCKCNE@ATT_ICE@ DB 'ATT_ICE', 00H		; `string'
CONST	ENDS
;	COMDAT ??_C@_08KJAPFIAI@ATT_WIND@
CONST	SEGMENT
??_C@_08KJAPFIAI@ATT_WIND@ DB 'ATT_WIND', 00H		; `string'
CONST	ENDS
;	COMDAT ??_C@_08MHOFBFPO@ATT_ELEC@
CONST	SEGMENT
??_C@_08MHOFBFPO@ATT_ELEC@ DB 'ATT_ELEC', 00H		; `string'
CONST	ENDS
;	COMDAT ??_C@_08PIKIINGP@ATT_FIRE@
CONST	SEGMENT
??_C@_08PIKIINGP@ATT_FIRE@ DB 'ATT_FIRE', 00H		; `string'
CONST	ENDS
;	COMDAT ??_C@_06OPNEJFKO@DESERT@
CONST	SEGMENT
??_C@_06OPNEJFKO@DESERT@ DB 'DESERT', 00H		; `string'
CONST	ENDS
;	COMDAT ??_C@_04GOBFFCKL@TREE@
CONST	SEGMENT
??_C@_04GOBFFCKL@TREE@ DB 'TREE', 00H			; `string'
CONST	ENDS
;	COMDAT ??_C@_04OKEEPDCC@FIRE@
CONST	SEGMENT
??_C@_04OKEEPDCC@FIRE@ DB 'FIRE', 00H			; `string'
CONST	ENDS
;	COMDAT ??_C@_03MHHFLPIN@ICE@
CONST	SEGMENT
??_C@_03MHHFLPIN@ICE@ DB 'ICE', 00H			; `string'
CONST	ENDS
;	COMDAT ??_C@_06OAFEPMKF@MILGYO@
CONST	SEGMENT
??_C@_06OAFEPMKF@MILGYO@ DB 'MILGYO', 00H		; `string'
CONST	ENDS
;	COMDAT ??_C@_06PJCAMNOK@INSECT@
CONST	SEGMENT
??_C@_06PJCAMNOK@INSECT@ DB 'INSECT', 00H		; `string'
CONST	ENDS
;	COMDAT ??_C@_05CLBJJDHK@HUMAN@
CONST	SEGMENT
??_C@_05CLBJJDHK@HUMAN@ DB 'HUMAN', 00H			; `string'
CONST	ENDS
;	COMDAT ??_C@_03KJKAIOJA@ORC@
CONST	SEGMENT
??_C@_03KJKAIOJA@ORC@ DB 'ORC', 00H			; `string'
CONST	ENDS
;	COMDAT ??_C@_06MCNILGPN@UNDEAD@
CONST	SEGMENT
??_C@_06MCNILGPN@UNDEAD@ DB 'UNDEAD', 00H		; `string'
CONST	ENDS
;	COMDAT ??_C@_05IHAGCHCH@DEVIL@
CONST	SEGMENT
??_C@_05IHAGCHCH@DEVIL@ DB 'DEVIL', 00H			; `string'
CONST	ENDS
;	COMDAT ??_C@_0EI@EHJJMNEK@CPythonNonPlayer?3?3LoadNonPlayer@
CONST	SEGMENT
??_C@_0EI@EHJJMNEK@CPythonNonPlayer?3?3LoadNonPlayer@ DB 'CPythonNonPlaye'
	DB	'r::LoadNonPlayerData: invalid size %u check data format.', 00H ; `string'
CONST	ENDS
;	COMDAT ??_C@_06KELEGIHG@ANIMAL@
CONST	SEGMENT
??_C@_06KELEGIHG@ANIMAL@ DB 'ANIMAL', 00H		; `string'
CONST	ENDS
;	COMDAT ??_C@_0DP@FMDCKFI@CPythonNonPlayer?3?3LoadNonPlayer@
CONST	SEGMENT
??_C@_0DP@FMDCKFI@CPythonNonPlayer?3?3LoadNonPlayer@ DB 'CPythonNonPlayer'
	DB	'::LoadNonPlayerData: %s, sizeof(TMobTable)=%u', 0aH, 00H ; `string'
CONST	ENDS
;	COMDAT ??_C@_0DP@FIGKBDCC@CPythonNonPlayer?3?3LoadNonPlayer@
CONST	SEGMENT
??_C@_0DP@FIGKBDCC@CPythonNonPlayer?3?3LoadNonPlayer@ DB 'CPythonNonPlaye'
	DB	'r::LoadNonPlayerData: invalid Mob proto type %s', 00H ; `string'
PUBLIC	?GetBuffer@CLZObject@@QAEPAEXZ			; CLZObject::GetBuffer
PUBLIC	??0?$pair@$$CBKV?$vector@HV?$allocator@H@std@@@std@@@std@@QAE@ABU01@@Z ; std::pair<unsigned long const ,std::vector<int,std::allocator<int> > >::pair<unsigned long const ,std::vector<int,std::allocator<int> > >
PUBLIC	??$construct_at@U?$pair@$$CBKV?$vector@HV?$allocator@H@std@@@std@@@std@@AAU12@@std@@YAPAU?$pair@$$CBKV?$vector@HV?$allocator@H@std@@@std@@@0@QAU10@AAU10@@Z ; std::construct_at<std::pair<unsigned long const ,std::vector<int,std::allocator<int> > >,std::pair<unsigned long const ,std::vector<int,std::allocator<int> > > &>
PUBLIC	??$construct@U?$pair@$$CBKV?$vector@HV?$allocator@H@std@@@std@@@std@@AAU12@@?$_Default_allocator_traits@V?$allocator@U?$_Tree_node@U?$pair@$$CBKV?$vector@HV?$allocator@H@std@@@std@@@std@@PAX@std@@@std@@@std@@SAXAAV?$allocator@U?$_Tree_node@U?$pair@$$CBKV?$vector@HV?$allocator@H@std@@@std@@@std@@PAX@std@@@1@QAU?$pair@$$CBKV?$vector@HV?$allocator@H@std@@@std@@@1@AAU31@@Z ; std::_Default_allocator_traits<std::allocator<std::_Tree_node<std::pair<unsigned long const ,std::vector<int,std::allocator<int> > >,void *> > >::construct<std::pair<unsigned long const ,std::vector<int,std::allocator<int> > >,std::pair<unsigned long const ,std::vector<int,std::allocator<int> > > &>
PUBLIC	?_Orphan_ptr@?$_Tree_val@U?$_Tree_simple_types@U?$pair@$$CBKV?$vector@HV?$allocator@H@std@@@std@@@std@@@std@@@std@@QAEXQAU?$_Tree_node@U?$pair@$$CBKV?$vector@HV?$allocator@H@std@@@std@@@std@@PAX@2@@Z ; std::_Tree_val<std::_Tree_simple_types<std::pair<unsigned long const ,std::vector<int,std::allocator<int> > > > >::_Orphan_ptr
PUBLIC	??$_Buynode@V?$allocator@U?$_Tree_node@U?$pair@$$CBKV?$vector@HV?$allocator@H@std@@@std@@@std@@PAX@std@@@std@@AAU?$pair@$$CBKV?$vector@HV?$allocator@H@std@@@std@@@2@@?$_Tree_node@U?$pair@$$CBKV?$vector@HV?$allocator@H@std@@@std@@@std@@PAX@std@@SAPAU01@AAV?$allocator@U?$_Tree_node@U?$pair@$$CBKV?$vector@HV?$allocator@H@std@@@std@@@std@@PAX@std@@@1@PAU01@AAU?$pair@$$CBKV?$vector@HV?$allocator@H@std@@@std@@@1@@Z ; std::_Tree_node<std::pair<unsigned long const ,std::vector<int,std::allocator<int> > >,void *>::_Buynode<std::allocator<std::_Tree_node<std::pair<unsigned long const ,std::vector<int,std::allocator<int> > >,void *> >,std::pair<unsigned long const ,std::vector<int,std::allocator<int> > > &>
PUBLIC	??$forward@AAU?$pair@$$CBKV?$vector@HV?$allocator@H@std@@@std@@@std@@@std@@YAAAU?$pair@$$CBKV?$vector@HV?$allocator@H@std@@@std@@@0@AAU10@@Z ; std::forward<std::pair<unsigned long const ,std::vector<int,std::allocator<int> > > &>
PUBLIC	??$_Erase_tree_and_orphan@V?$allocator@U?$_Tree_node@U?$pair@$$CBKV?$vector@HV?$allocator@H@std@@@std@@@std@@PAX@std@@@std@@@?$_Tree_val@U?$_Tree_simple_types@U?$pair@$$CBKV?$vector@HV?$allocator@H@std@@@std@@@std@@@std@@@std@@QAEXAAV?$allocator@U?$_Tree_node@U?$pair@$$CBKV?$vector@HV?$allocator@H@std@@@std@@@std@@PAX@std@@@1@PAU?$_Tree_node@U?$pair@$$CBKV?$vector@HV?$allocator@H@std@@@std@@@std@@PAX@1@@Z ; std::_Tree_val<std::_Tree_simple_types<std::pair<unsigned long const ,std::vector<int,std::allocator<int> > > > >::_Erase_tree_and_orphan<std::allocator<std::_Tree_node<std::pair<unsigned long const ,std::vector<int,std::allocator<int> > >,void *> > >
PUBLIC	??$_Buynode@AAU?$pair@$$CBKV?$vector@HV?$allocator@H@std@@@std@@@std@@@?$_Tree@V?$_Tmap_traits@KV?$vector@HV?$allocator@H@std@@@std@@U?$less@K@2@V?$allocator@U?$pair@$$CBKV?$vector@HV?$allocator@H@std@@@std@@@std@@@2@$0A@@std@@@std@@IAEPAU?$_Tree_node@U?$pair@$$CBKV?$vector@HV?$allocator@H@std@@@std@@@std@@PAX@1@AAU?$pair@$$CBKV?$vector@HV?$allocator@H@std@@@std@@@1@@Z ; std::_Tree<std::_Tmap_traits<unsigned long,std::vector<int,std::allocator<int> >,std::less<unsigned long>,std::allocator<std::pair<unsigned long const ,std::vector<int,std::allocator<int> > > >,0> >::_Buynode<std::pair<unsigned long const ,std::vector<int,std::allocator<int> > > &>
PUBLIC	??1?$_Erase_tree_and_orphan_guard@V?$allocator@U?$_Tree_node@U?$pair@$$CBKV?$vector@HV?$allocator@H@std@@@std@@@std@@PAX@std@@@std@@@?$_Tree_val@U?$_Tree_simple_types@U?$pair@$$CBKV?$vector@HV?$allocator@H@std@@@std@@@std@@@std@@@std@@QAE@XZ ; std::_Tree_val<std::_Tree_simple_types<std::pair<unsigned long const ,std::vector<int,std::allocator<int> > > > >::_Erase_tree_and_orphan_guard<std::allocator<std::_Tree_node<std::pair<unsigned long const ,std::vector<int,std::allocator<int> > >,void *> > >::~_Erase_tree_and_orphan_guard<std::allocator<std::_Tree_node<std::pair<unsigned long const ,std::vector<int,std::allocator<int> > >,void *> > >
PUBLIC	??$construct@HAAH@?$_Default_allocator_traits@V?$allocator@H@std@@@std@@SAXAAV?$allocator@H@1@QAHAAH@Z ; std::_Default_allocator_traits<std::allocator<int> >::construct<int,int &>
PUBLIC	??$_Copy_or_move@$0A@U?$pair@$$CBKV?$vector@HV?$allocator@H@std@@@std@@@std@@@?$_Tree@V?$_Tmap_traits@KV?$vector@HV?$allocator@H@std@@@std@@U?$less@K@2@V?$allocator@U?$pair@$$CBKV?$vector@HV?$allocator@H@std@@@std@@@std@@@2@$0A@@std@@@std@@IAEPAU?$_Tree_node@U?$pair@$$CBKV?$vector@HV?$allocator@H@std@@@std@@@std@@PAX@1@AAU?$pair@$$CBKV?$vector@HV?$allocator@H@std@@@std@@@1@@Z ; std::_Tree<std::_Tmap_traits<unsigned long,std::vector<int,std::allocator<int> >,std::less<unsigned long>,std::allocator<std::pair<unsigned long const ,std::vector<int,std::allocator<int> > > >,0> >::_Copy_or_move<0,std::pair<unsigned long const ,std::vector<int,std::allocator<int> > > >
PUBLIC	?_Buy_raw@?$vector@HV?$allocator@H@std@@@std@@AAEXI@Z ; std::vector<int,std::allocator<int> >::_Buy_raw
PUBLIC	?_Max@?$_Tree_val@U?$_Tree_simple_types@U?$pair@$$CBKV?$vector@HV?$allocator@H@std@@@std@@@std@@@std@@@std@@SAPAU?$_Tree_node@U?$pair@$$CBKV?$vector@HV?$allocator@H@std@@@std@@@std@@PAX@2@PAU32@@Z ; std::_Tree_val<std::_Tree_simple_types<std::pair<unsigned long const ,std::vector<int,std::allocator<int> > > > >::_Max
PUBLIC	?_Min@?$_Tree_val@U?$_Tree_simple_types@U?$pair@$$CBKV?$vector@HV?$allocator@H@std@@@std@@@std@@@std@@@std@@SAPAU?$_Tree_node@U?$pair@$$CBKV?$vector@HV?$allocator@H@std@@@std@@@std@@PAX@2@PAU32@@Z ; std::_Tree_val<std::_Tree_simple_types<std::pair<unsigned long const ,std::vector<int,std::allocator<int> > > > >::_Min
PUBLIC	??$_Emplace_back@AAH@?$_Uninitialized_backout_al@V?$allocator@H@std@@@std@@QAEXAAH@Z ; std::_Uninitialized_backout_al<std::allocator<int> >::_Emplace_back<int &>
PUBLIC	??$_Copy_nodes@$0A@@?$_Tree@V?$_Tmap_traits@KV?$vector@HV?$allocator@H@std@@@std@@U?$less@K@2@V?$allocator@U?$pair@$$CBKV?$vector@HV?$allocator@H@std@@@std@@@std@@@2@$0A@@std@@@std@@IAEPAU?$_Tree_node@U?$pair@$$CBKV?$vector@HV?$allocator@H@std@@@std@@@std@@PAX@1@PAU21@0@Z ; std::_Tree<std::_Tmap_traits<unsigned long,std::vector<int,std::allocator<int> >,std::less<unsigned long>,std::allocator<std::pair<unsigned long const ,std::vector<int,std::allocator<int> > > >,0> >::_Copy_nodes<0>
PUBLIC	??$?0V?$allocator@U?$_Tree_node@U?$pair@$$CBKV?$vector@HV?$allocator@H@std@@@std@@@std@@PAX@std@@@std@@$$V@?$_Compressed_pair@V?$allocator@U?$_Tree_node@U?$pair@$$CBKV?$vector@HV?$allocator@H@std@@@std@@@std@@PAX@std@@@std@@V?$_Tree_val@U?$_Tree_simple_types@U?$pair@$$CBKV?$vector@HV?$allocator@H@std@@@std@@@std@@@std@@@2@$00@std@@QAE@U_One_then_variadic_args_t@1@$$QAV?$allocator@U?$_Tree_node@U?$pair@$$CBKV?$vector@HV?$allocator@H@std@@@std@@@std@@PAX@std@@@1@@Z ; std::_Compressed_pair<std::allocator<std::_Tree_node<std::pair<unsigned long const ,std::vector<int,std::allocator<int> > >,void *> >,std::_Tree_val<std::_Tree_simple_types<std::pair<unsigned long const ,std::vector<int,std::allocator<int> > > > >,1>::_Compressed_pair<std::allocator<std::_Tree_node<std::pair<unsigned long const ,std::vector<int,std::allocator<int> > >,void *> >,std::_Tree_val<std::_Tree_simple_types<std::pair<unsigned long const ,std::vector<int,std::allocator<int> > > > >,1><std::allocator<std::_Tree_node<std::pair<unsigned long const ,std::vector<int,std::allocator<int> > >,void *> > >
PUBLIC	?_Buy_nonzero@?$vector@HV?$allocator@H@std@@@std@@AAEXI@Z ; std::vector<int,std::allocator<int> >::_Buy_nonzero
PUBLIC	??1?$_Tidy_guard@V?$vector@HV?$allocator@H@std@@@std@@@std@@QAE@XZ ; std::_Tidy_guard<std::vector<int,std::allocator<int> > >::~_Tidy_guard<std::vector<int,std::allocator<int> > >
PUBLIC	?key_comp@?$_Tree@V?$_Tmap_traits@KV?$vector@HV?$allocator@H@std@@@std@@U?$less@K@2@V?$allocator@U?$pair@$$CBKV?$vector@HV?$allocator@H@std@@@std@@@std@@@2@$0A@@std@@@std@@QBE?AU?$less@K@2@XZ ; std::_Tree<std::_Tmap_traits<unsigned long,std::vector<int,std::allocator<int> >,std::less<unsigned long>,std::allocator<std::pair<unsigned long const ,std::vector<int,std::allocator<int> > > >,0> >::key_comp
PUBLIC	??0?$_Tree_head_scoped_ptr@V?$allocator@U?$_Tree_node@U?$pair@$$CBKV?$vector@HV?$allocator@H@std@@@std@@@std@@PAX@std@@@std@@V?$_Tree_val@U?$_Tree_simple_types@U?$pair@$$CBKV?$vector@HV?$allocator@H@std@@@std@@@std@@@std@@@2@@std@@QAE@AAV?$allocator@U?$_Tree_node@U?$pair@$$CBKV?$vector@HV?$allocator@H@std@@@std@@@std@@PAX@std@@@1@AAV?$_Tree_val@U?$_Tree_simple_types@U?$pair@$$CBKV?$vector@HV?$allocator@H@std@@@std@@@std@@@std@@@1@@Z ; std::_Tree_head_scoped_ptr<std::allocator<std::_Tree_node<std::pair<unsigned long const ,std::vector<int,std::allocator<int> > >,void *> >,std::_Tree_val<std::_Tree_simple_types<std::pair<unsigned long const ,std::vector<int,std::allocator<int> > > > > >::_Tree_head_scoped_ptr<std::allocator<std::_Tree_node<std::pair<unsigned long const ,std::vector<int,std::allocator<int> > >,void *> >,std::_Tree_val<std::_Tree_simple_types<std::pair<unsigned long const ,std::vector<int,std::allocator<int> > > > > >
PUBLIC	?_Release@?$_Tree_head_scoped_ptr@V?$allocator@U?$_Tree_node@U?$pair@$$CBKV?$vector@HV?$allocator@H@std@@@std@@@std@@PAX@std@@@std@@V?$_Tree_val@U?$_Tree_simple_types@U?$pair@$$CBKV?$vector@HV?$allocator@H@std@@@std@@@std@@@std@@@2@@std@@QAEXXZ ; std::_Tree_head_scoped_ptr<std::allocator<std::_Tree_node<std::pair<unsigned long const ,std::vector<int,std::allocator<int> > >,void *> >,std::_Tree_val<std::_Tree_simple_types<std::pair<unsigned long const ,std::vector<int,std::allocator<int> > > > > >::_Release
PUBLIC	??1?$_Tree_head_scoped_ptr@V?$allocator@U?$_Tree_node@U?$pair@$$CBKV?$vector@HV?$allocator@H@std@@@std@@@std@@PAX@std@@@std@@V?$_Tree_val@U?$_Tree_simple_types@U?$pair@$$CBKV?$vector@HV?$allocator@H@std@@@std@@@std@@@std@@@2@@std@@QAE@XZ ; std::_Tree_head_scoped_ptr<std::allocator<std::_Tree_node<std::pair<unsigned long const ,std::vector<int,std::allocator<int> > >,void *> >,std::_Tree_val<std::_Tree_simple_types<std::pair<unsigned long const ,std::vector<int,std::allocator<int> > > > > >::~_Tree_head_scoped_ptr<std::allocator<std::_Tree_node<std::pair<unsigned long const ,std::vector<int,std::allocator<int> > >,void *> >,std::_Tree_val<std::_Tree_simple_types<std::pair<unsigned long const ,std::vector<int,std::allocator<int> > > > > >
PUBLIC	??$_Uninitialized_copy@PAHPAHV?$allocator@H@std@@@std@@YAPAHPAH00AAV?$allocator@H@0@@Z ; std::_Uninitialized_copy<int *,int *,std::allocator<int> >
PUBLIC	??$_Unwrap_sent@PAHPAH@ranges@std@@YA?A_T$$QAPAH@Z ; std::ranges::_Unwrap_sent<int *,int *>
PUBLIC	??$_Unwrap_iter@PAHPAH@ranges@std@@YA?A_T$$QAPAH@Z ; std::ranges::_Unwrap_iter<int *,int *>
PUBLIC	??$forward@ABQAH@std@@YAABQAHABQAH@Z		; std::forward<int * const &>
PUBLIC	??$_Copy@$0A@@?$_Tree@V?$_Tmap_traits@KV?$vector@HV?$allocator@H@std@@@std@@U?$less@K@2@V?$allocator@U?$pair@$$CBKV?$vector@HV?$allocator@H@std@@@std@@@std@@@2@$0A@@std@@@std@@IAEXABV01@@Z ; std::_Tree<std::_Tmap_traits<unsigned long,std::vector<int,std::allocator<int> >,std::less<unsigned long>,std::allocator<std::pair<unsigned long const ,std::vector<int,std::allocator<int> > > >,0> >::_Copy<0>
PUBLIC	??$?0U?$less@K@std@@U_One_then_variadic_args_t@1@V?$allocator@U?$_Tree_node@U?$pair@$$CBKV?$vector@HV?$allocator@H@std@@@std@@@std@@PAX@std@@@1@@?$_Compressed_pair@U?$less@K@std@@V?$_Compressed_pair@V?$allocator@U?$_Tree_node@U?$pair@$$CBKV?$vector@HV?$allocator@H@std@@@std@@@std@@PAX@std@@@std@@V?$_Tree_val@U?$_Tree_simple_types@U?$pair@$$CBKV?$vector@HV?$allocator@H@std@@@std@@@std@@@std@@@2@$00@2@$00@std@@QAE@U_One_then_variadic_args_t@1@$$QAU?$less@K@1@$$QAU21@$$QAV?$allocator@U?$_Tree_node@U?$pair@$$CBKV?$vector@HV?$allocator@H@std@@@std@@@std@@PAX@std@@@1@@Z ; std::_Compressed_pair<std::less<unsigned long>,std::_Compressed_pair<std::allocator<std::_Tree_node<std::pair<unsigned long const ,std::vector<int,std::allocator<int> > >,void *> >,std::_Tree_val<std::_Tree_simple_types<std::pair<unsigned long const ,std::vector<int,std::allocator<int> > > > >,1>,1>::_Compressed_pair<std::less<unsigned long>,std::_Compressed_pair<std::allocator<std::_Tree_node<std::pair<unsigned long const ,std::vector<int,std::allocator<int> > >,void *> >,std::_Tree_val<std::_Tree_simple_types<std::pair<unsigned long const ,std::vector<int,std::allocator<int> > > > >,1>,1><std::less<unsigned long>,std::_One_then_variadic_args_t,std::allocator<std::_Tree_node<std::pair<unsigned long const ,std::vector<int,std::allocator<int> > >,void *> > >
PUBLIC	??$forward@V?$allocator@U?$_Tree_node@U?$pair@$$CBKV?$vector@HV?$allocator@H@std@@@std@@@std@@PAX@std@@@std@@@std@@YA$$QAV?$allocator@U?$_Tree_node@U?$pair@$$CBKV?$vector@HV?$allocator@H@std@@@std@@@std@@PAX@std@@@0@AAV10@@Z ; std::forward<std::allocator<std::_Tree_node<std::pair<unsigned long const ,std::vector<int,std::allocator<int> > >,void *> > >
PUBLIC	?select_on_container_copy_construction@?$_Default_allocator_traits@V?$allocator@H@std@@@std@@SA?AV?$allocator@H@2@ABV32@@Z ; std::_Default_allocator_traits<std::allocator<int> >::select_on_container_copy_construction
PUBLIC	?select_on_container_copy_construction@?$_Default_allocator_traits@V?$allocator@U?$_Tree_node@U?$pair@$$CBKV?$vector@HV?$allocator@H@std@@@std@@@std@@PAX@std@@@std@@@std@@SA?AV?$allocator@U?$_Tree_node@U?$pair@$$CBKV?$vector@HV?$allocator@H@std@@@std@@@std@@PAX@std@@@2@ABV32@@Z ; std::_Default_allocator_traits<std::allocator<std::_Tree_node<std::pair<unsigned long const ,std::vector<int,std::allocator<int> > >,void *> > >::select_on_container_copy_construction
PUBLIC	??$_Construct_n@ABQAHABQAH@?$vector@HV?$allocator@H@std@@@std@@AAEXIABQAH0@Z ; std::vector<int,std::allocator<int> >::_Construct_n<int * const &,int * const &>
PUBLIC	??$?0V?$allocator@H@std@@$$V@?$_Compressed_pair@V?$allocator@H@std@@V?$_Vector_val@U?$_Simple_types@H@std@@@2@$00@std@@QAE@U_One_then_variadic_args_t@1@$$QAV?$allocator@H@1@@Z ; std::_Compressed_pair<std::allocator<int>,std::_Vector_val<std::_Simple_types<int> >,1>::_Compressed_pair<std::allocator<int>,std::_Vector_val<std::_Simple_types<int> >,1><std::allocator<int> >
PUBLIC	??$?0V?$allocator@U?$_Tree_node@U?$pair@$$CBKV?$vector@HV?$allocator@H@std@@@std@@@std@@PAX@std@@@std@@@?$_Tree@V?$_Tmap_traits@KV?$vector@HV?$allocator@H@std@@@std@@U?$less@K@2@V?$allocator@U?$pair@$$CBKV?$vector@HV?$allocator@H@std@@@std@@@std@@@2@$0A@@std@@@std@@QAE@ABV01@$$QAV?$allocator@U?$_Tree_node@U?$pair@$$CBKV?$vector@HV?$allocator@H@std@@@std@@@std@@PAX@std@@@1@@Z ; std::_Tree<std::_Tmap_traits<unsigned long,std::vector<int,std::allocator<int> >,std::less<unsigned long>,std::allocator<std::pair<unsigned long const ,std::vector<int,std::allocator<int> > > >,0> >::_Tree<std::_Tmap_traits<unsigned long,std::vector<int,std::allocator<int> >,std::less<unsigned long>,std::allocator<std::pair<unsigned long const ,std::vector<int,std::allocator<int> > > >,0> ><std::allocator<std::_Tree_node<std::pair<unsigned long const ,std::vector<int,std::allocator<int> > >,void *> > >
PUBLIC	??0?$vector@HV?$allocator@H@std@@@std@@QAE@ABV01@@Z ; std::vector<int,std::allocator<int> >::vector<int,std::allocator<int> >
PUBLIC	??0?$map@KV?$vector@HV?$allocator@H@std@@@std@@U?$less@K@2@V?$allocator@U?$pair@$$CBKV?$vector@HV?$allocator@H@std@@@std@@@std@@@2@@std@@QAE@ABV01@@Z ; std::map<unsigned long,std::vector<int,std::allocator<int> >,std::less<unsigned long>,std::allocator<std::pair<unsigned long const ,std::vector<int,std::allocator<int> > > > >::map<unsigned long,std::vector<int,std::allocator<int> >,std::less<unsigned long>,std::allocator<std::pair<unsigned long const ,std::vector<int,std::allocator<int> > > > >
PUBLIC	?_Get_first@?$_Compressed_pair@V?$allocator@U?$_Tree_node@U?$pair@$$CBKPAUSMobScaleTable@CPythonNonPlayer@@@std@@PAX@std@@@std@@V?$_Tree_val@U?$_Tree_simple_types@U?$pair@$$CBKPAUSMobScaleTable@CPythonNonPlayer@@@std@@@std@@@2@$00@std@@QBEABV?$allocator@U?$_Tree_node@U?$pair@$$CBKPAUSMobScaleTable@CPythonNonPlayer@@@std@@PAX@std@@@2@XZ ; std::_Compressed_pair<std::allocator<std::_Tree_node<std::pair<unsigned long const ,CPythonNonPlayer::SMobScaleTable *>,void *> >,std::_Tree_val<std::_Tree_simple_types<std::pair<unsigned long const ,CPythonNonPlayer::SMobScaleTable *> > >,1>::_Get_first
PUBLIC	?_Get_first@?$_Compressed_pair@V?$allocator@U?$_Tree_node@U?$pair@$$CBV?$basic_string@DU?$char_traits@D@std@@V?$allocator@D@2@@std@@V?$map@KV?$vector@HV?$allocator@H@std@@@std@@U?$less@K@2@V?$allocator@U?$pair@$$CBKV?$vector@HV?$allocator@H@std@@@std@@@std@@@2@@2@@std@@PAX@std@@@std@@V?$_Tree_val@U?$_Tree_simple_types@U?$pair@$$CBV?$basic_string@DU?$char_traits@D@std@@V?$allocator@D@2@@std@@V?$map@KV?$vector@HV?$allocator@H@std@@@std@@U?$less@K@2@V?$allocator@U?$pair@$$CBKV?$vector@HV?$allocator@H@std@@@std@@@std@@@2@@2@@std@@@std@@@2@$00@std@@QBEABV?$allocator@U?$_Tree_node@U?$pair@$$CBV?$basic_string@DU?$char_traits@D@std@@V?$allocator@D@2@@std@@V?$map@KV?$vector@HV?$allocator@H@std@@@std@@U?$less@K@2@V?$allocator@U?$pair@$$CBKV?$vector@HV?$allocator@H@std@@@std@@@std@@@2@@2@@std@@PAX@std@@@2@XZ ; std::_Compressed_pair<std::allocator<std::_Tree_node<std::pair<std::basic_string<char,std::char_traits<char>,std::allocator<char> > const ,std::map<unsigned long,std::vector<int,std::allocator<int> >,std::less<unsigned long>,std::allocator<std::pair<unsigned long const ,std::vector<int,std::allocator<int> > > > > >,void *> >,std::_Tree_val<std::_Tree_simple_types<std::pair<std::basic_string<char,std::char_traits<char>,std::allocator<char> > const ,std::map<unsigned long,std::vector<int,std::allocator<int> >,std::less<unsigned long>,std::allocator<std::pair<unsigned long const ,std::vector<int,std::allocator<int> > > > > > > >,1>::_Get_first
PUBLIC	?_Get_first@?$_Compressed_pair@V?$allocator@U?$_Tree_node@U?$pair@$$CBKV?$vector@HV?$allocator@H@std@@@std@@@std@@PAX@std@@@std@@V?$_Tree_val@U?$_Tree_simple_types@U?$pair@$$CBKV?$vector@HV?$allocator@H@std@@@std@@@std@@@std@@@2@$00@std@@QBEABV?$allocator@U?$_Tree_node@U?$pair@$$CBKV?$vector@HV?$allocator@H@std@@@std@@@std@@PAX@std@@@2@XZ ; std::_Compressed_pair<std::allocator<std::_Tree_node<std::pair<unsigned long const ,std::vector<int,std::allocator<int> > >,void *> >,std::_Tree_val<std::_Tree_simple_types<std::pair<unsigned long const ,std::vector<int,std::allocator<int> > > > >,1>::_Get_first
PUBLIC	??$construct_at@PAU?$_Tree_node@U?$pair@$$CBKPAUSMobScaleTable@CPythonNonPlayer@@@std@@PAX@std@@ABQAU12@@std@@YAPAPAU?$_Tree_node@U?$pair@$$CBKPAUSMobScaleTable@CPythonNonPlayer@@@std@@PAX@0@QAPAU10@ABQAU10@@Z ; std::construct_at<std::_Tree_node<std::pair<unsigned long const ,CPythonNonPlayer::SMobScaleTable *>,void *> *,std::_Tree_node<std::pair<unsigned long const ,CPythonNonPlayer::SMobScaleTable *>,void *> * const &>
PUBLIC	??$forward@ABQAU?$_Tree_node@U?$pair@$$CBKPAUSMobScaleTable@CPythonNonPlayer@@@std@@PAX@std@@@std@@YAABQAU?$_Tree_node@U?$pair@$$CBKPAUSMobScaleTable@CPythonNonPlayer@@@std@@PAX@0@ABQAU10@@Z ; std::forward<std::_Tree_node<std::pair<unsigned long const ,CPythonNonPlayer::SMobScaleTable *>,void *> * const &>
PUBLIC	??$construct_at@PAU?$_Tree_node@U?$pair@$$CBV?$basic_string@DU?$char_traits@D@std@@V?$allocator@D@2@@std@@V?$map@KV?$vector@HV?$allocator@H@std@@@std@@U?$less@K@2@V?$allocator@U?$pair@$$CBKV?$vector@HV?$allocator@H@std@@@std@@@std@@@2@@2@@std@@PAX@std@@ABQAU12@@std@@YAPAPAU?$_Tree_node@U?$pair@$$CBV?$basic_string@DU?$char_traits@D@std@@V?$allocator@D@2@@std@@V?$map@KV?$vector@HV?$allocator@H@std@@@std@@U?$less@K@2@V?$allocator@U?$pair@$$CBKV?$vector@HV?$allocator@H@std@@@std@@@std@@@2@@2@@std@@PAX@0@QAPAU10@ABQAU10@@Z ; std::construct_at<std::_Tree_node<std::pair<std::basic_string<char,std::char_traits<char>,std::allocator<char> > const ,std::map<unsigned long,std::vector<int,std::allocator<int> >,std::less<unsigned long>,std::allocator<std::pair<unsigned long const ,std::vector<int,std::allocator<int> > > > > >,void *> *,std::_Tree_node<std::pair<std::basic_string<char,std::char_traits<char>,std::allocator<char> > const ,std::map<unsigned long,std::vector<int,std::allocator<int> >,std::less<unsigned long>,std::allocator<std::pair<unsigned long const ,std::vector<int,std::allocator<int> > > > > >,void *> * const &>
PUBLIC	??$forward@ABQAU?$_Tree_node@U?$pair@$$CBV?$basic_string@DU?$char_traits@D@std@@V?$allocator@D@2@@std@@V?$map@KV?$vector@HV?$allocator@H@std@@@std@@U?$less@K@2@V?$allocator@U?$pair@$$CBKV?$vector@HV?$allocator@H@std@@@std@@@std@@@2@@2@@std@@PAX@std@@@std@@YAABQAU?$_Tree_node@U?$pair@$$CBV?$basic_string@DU?$char_traits@D@std@@V?$allocator@D@2@@std@@V?$map@KV?$vector@HV?$allocator@H@std@@@std@@U?$less@K@2@V?$allocator@U?$pair@$$CBKV?$vector@HV?$allocator@H@std@@@std@@@std@@@2@@2@@std@@PAX@0@ABQAU10@@Z ; std::forward<std::_Tree_node<std::pair<std::basic_string<char,std::char_traits<char>,std::allocator<char> > const ,std::map<unsigned long,std::vector<int,std::allocator<int> >,std::less<unsigned long>,std::allocator<std::pair<unsigned long const ,std::vector<int,std::allocator<int> > > > > >,void *> * const &>
PUBLIC	??$construct_at@PAU?$_Tree_node@U?$pair@$$CBKV?$vector@HV?$allocator@H@std@@@std@@@std@@PAX@std@@ABQAU12@@std@@YAPAPAU?$_Tree_node@U?$pair@$$CBKV?$vector@HV?$allocator@H@std@@@std@@@std@@PAX@0@QAPAU10@ABQAU10@@Z ; std::construct_at<std::_Tree_node<std::pair<unsigned long const ,std::vector<int,std::allocator<int> > >,void *> *,std::_Tree_node<std::pair<unsigned long const ,std::vector<int,std::allocator<int> > >,void *> * const &>
PUBLIC	??$forward@ABQAU?$_Tree_node@U?$pair@$$CBKV?$vector@HV?$allocator@H@std@@@std@@@std@@PAX@std@@@std@@YAABQAU?$_Tree_node@U?$pair@$$CBKV?$vector@HV?$allocator@H@std@@@std@@@std@@PAX@0@ABQAU10@@Z ; std::forward<std::_Tree_node<std::pair<unsigned long const ,std::vector<int,std::allocator<int> > >,void *> * const &>
PUBLIC	??$construct_at@PAU?$_Tree_node@U?$pair@$$CBKPAUSMobTable@CPythonNonPlayer@@@std@@PAX@std@@ABQAU12@@std@@YAPAPAU?$_Tree_node@U?$pair@$$CBKPAUSMobTable@CPythonNonPlayer@@@std@@PAX@0@QAPAU10@ABQAU10@@Z ; std::construct_at<std::_Tree_node<std::pair<unsigned long const ,CPythonNonPlayer::SMobTable *>,void *> *,std::_Tree_node<std::pair<unsigned long const ,CPythonNonPlayer::SMobTable *>,void *> * const &>
PUBLIC	??$forward@ABQAU?$_Tree_node@U?$pair@$$CBKPAUSMobTable@CPythonNonPlayer@@@std@@PAX@std@@@std@@YAABQAU?$_Tree_node@U?$pair@$$CBKPAUSMobTable@CPythonNonPlayer@@@std@@PAX@0@ABQAU10@@Z ; std::forward<std::_Tree_node<std::pair<unsigned long const ,CPythonNonPlayer::SMobTable *>,void *> * const &>
PUBLIC	??$construct_at@H$$V@std@@YAPAHQAH@Z		; std::construct_at<int>
PUBLIC	??$?0PBDAAV?$map@KV?$vector@HV?$allocator@H@std@@@std@@U?$less@K@2@V?$allocator@U?$pair@$$CBKV?$vector@HV?$allocator@H@std@@@std@@@std@@@2@@std@@$0A@@?$pair@$$CBV?$basic_string@DU?$char_traits@D@std@@V?$allocator@D@2@@std@@V?$map@KV?$vector@HV?$allocator@H@std@@@std@@U?$less@K@2@V?$allocator@U?$pair@$$CBKV?$vector@HV?$allocator@H@std@@@std@@@std@@@2@@2@@std@@QAE@$$QAPBDAAV?$map@KV?$vector@HV?$allocator@H@std@@@std@@U?$less@K@2@V?$allocator@U?$pair@$$CBKV?$vector@HV?$allocator@H@std@@@std@@@std@@@2@@1@@Z ; std::pair<std::basic_string<char,std::char_traits<char>,std::allocator<char> > const ,std::map<unsigned long,std::vector<int,std::allocator<int> >,std::less<unsigned long>,std::allocator<std::pair<unsigned long const ,std::vector<int,std::allocator<int> > > > > >::pair<std::basic_string<char,std::char_traits<char>,std::allocator<char> > const ,std::map<unsigned long,std::vector<int,std::allocator<int> >,std::less<unsigned long>,std::allocator<std::pair<unsigned long const ,std::vector<int,std::allocator<int> > > > > ><char const *,std::map<unsigned long,std::vector<int,std::allocator<int> >,std::less<unsigned long>,std::allocator<std::pair<unsigned long const ,std::vector<int,std::allocator<int> > > > > &,0>
PUBLIC	??$?0ABKAAV?$vector@HV?$allocator@H@std@@@std@@$0A@@?$pair@$$CBKV?$vector@HV?$allocator@H@std@@@std@@@std@@QAE@ABKAAV?$vector@HV?$allocator@H@std@@@1@@Z ; std::pair<unsigned long const ,std::vector<int,std::allocator<int> > >::pair<unsigned long const ,std::vector<int,std::allocator<int> > ><unsigned long const &,std::vector<int,std::allocator<int> > &,0>
PUBLIC	??_G?$pair@$$CBKV?$vector@HV?$allocator@H@std@@@std@@@std@@QAEPAXI@Z ; std::pair<unsigned long const ,std::vector<int,std::allocator<int> > >::`scalar deleting destructor'
PUBLIC	??_G?$pair@$$CBV?$basic_string@DU?$char_traits@D@std@@V?$allocator@D@2@@std@@V?$map@KV?$vector@HV?$allocator@H@std@@@std@@U?$less@K@2@V?$allocator@U?$pair@$$CBKV?$vector@HV?$allocator@H@std@@@std@@@std@@@2@@2@@std@@QAEPAXI@Z ; std::pair<std::basic_string<char,std::char_traits<char>,std::allocator<char> > const ,std::map<unsigned long,std::vector<int,std::allocator<int> >,std::less<unsigned long>,std::allocator<std::pair<unsigned long const ,std::vector<int,std::allocator<int> > > > > >::`scalar deleting destructor'
PUBLIC	??0?$allocator@U?$_Tree_node@U?$pair@$$CBKPAUSMobTable@CPythonNonPlayer@@@std@@PAX@std@@@std@@QAE@XZ ; std::allocator<std::_Tree_node<std::pair<unsigned long const ,CPythonNonPlayer::SMobTable *>,void *> >::allocator<std::_Tree_node<std::pair<unsigned long const ,CPythonNonPlayer::SMobTable *>,void *> >
PUBLIC	?deallocate@?$allocator@U?$_Tree_node@U?$pair@$$CBKPAUSMobTable@CPythonNonPlayer@@@std@@PAX@std@@@std@@QAEXQAU?$_Tree_node@U?$pair@$$CBKPAUSMobTable@CPythonNonPlayer@@@std@@PAX@2@I@Z ; std::allocator<std::_Tree_node<std::pair<unsigned long const ,CPythonNonPlayer::SMobTable *>,void *> >::deallocate
PUBLIC	?allocate@?$allocator@U?$_Tree_node@U?$pair@$$CBKPAUSMobTable@CPythonNonPlayer@@@std@@PAX@std@@@std@@QAEPAU?$_Tree_node@U?$pair@$$CBKPAUSMobTable@CPythonNonPlayer@@@std@@PAX@2@I@Z ; std::allocator<std::_Tree_node<std::pair<unsigned long const ,CPythonNonPlayer::SMobTable *>,void *> >::allocate
PUBLIC	?max_size@?$_Default_allocator_traits@V?$allocator@U?$_Tree_node@U?$pair@$$CBKPAUSMobTable@CPythonNonPlayer@@@std@@PAX@std@@@std@@@std@@SAIABV?$allocator@U?$_Tree_node@U?$pair@$$CBKPAUSMobTable@CPythonNonPlayer@@@std@@PAX@std@@@2@@Z ; std::_Default_allocator_traits<std::allocator<std::_Tree_node<std::pair<unsigned long const ,CPythonNonPlayer::SMobTable *>,void *> > >::max_size
PUBLIC	??0?$_Tree_val@U?$_Tree_simple_types@U?$pair@$$CBKPAUSMobTable@CPythonNonPlayer@@@std@@@std@@@std@@QAE@XZ ; std::_Tree_val<std::_Tree_simple_types<std::pair<unsigned long const ,CPythonNonPlayer::SMobTable *> > >::_Tree_val<std::_Tree_simple_types<std::pair<unsigned long const ,CPythonNonPlayer::SMobTable *> > >
PUBLIC	?_Get_first@?$_Compressed_pair@U?$less@K@std@@V?$_Compressed_pair@V?$allocator@U?$_Tree_node@U?$pair@$$CBKPAUSMobTable@CPythonNonPlayer@@@std@@PAX@std@@@std@@V?$_Tree_val@U?$_Tree_simple_types@U?$pair@$$CBKPAUSMobTable@CPythonNonPlayer@@@std@@@std@@@2@$00@2@$00@std@@QBEABU?$less@K@2@XZ ; std::_Compressed_pair<std::less<unsigned long>,std::_Compressed_pair<std::allocator<std::_Tree_node<std::pair<unsigned long const ,CPythonNonPlayer::SMobTable *>,void *> >,std::_Tree_val<std::_Tree_simple_types<std::pair<unsigned long const ,CPythonNonPlayer::SMobTable *> > >,1>,1>::_Get_first
PUBLIC	?_Getal@?$_Tree@V?$_Tmap_traits@KPAUSMobScaleTable@CPythonNonPlayer@@U?$less@K@std@@V?$allocator@U?$pair@$$CBKPAUSMobScaleTable@CPythonNonPlayer@@@std@@@4@$0A@@std@@@std@@IBEABV?$allocator@U?$_Tree_node@U?$pair@$$CBKPAUSMobScaleTable@CPythonNonPlayer@@@std@@PAX@std@@@2@XZ ; std::_Tree<std::_Tmap_traits<unsigned long,CPythonNonPlayer::SMobScaleTable *,std::less<unsigned long>,std::allocator<std::pair<unsigned long const ,CPythonNonPlayer::SMobScaleTable *> >,0> >::_Getal
PUBLIC	??0?$allocator@U?$_Tree_node@U?$pair@$$CBKPAUSMobScaleTable@CPythonNonPlayer@@@std@@PAX@std@@@std@@QAE@XZ ; std::allocator<std::_Tree_node<std::pair<unsigned long const ,CPythonNonPlayer::SMobScaleTable *>,void *> >::allocator<std::_Tree_node<std::pair<unsigned long const ,CPythonNonPlayer::SMobScaleTable *>,void *> >
PUBLIC	?deallocate@?$allocator@U?$_Tree_node@U?$pair@$$CBKPAUSMobScaleTable@CPythonNonPlayer@@@std@@PAX@std@@@std@@QAEXQAU?$_Tree_node@U?$pair@$$CBKPAUSMobScaleTable@CPythonNonPlayer@@@std@@PAX@2@I@Z ; std::allocator<std::_Tree_node<std::pair<unsigned long const ,CPythonNonPlayer::SMobScaleTable *>,void *> >::deallocate
PUBLIC	?allocate@?$allocator@U?$_Tree_node@U?$pair@$$CBKPAUSMobScaleTable@CPythonNonPlayer@@@std@@PAX@std@@@std@@QAEPAU?$_Tree_node@U?$pair@$$CBKPAUSMobScaleTable@CPythonNonPlayer@@@std@@PAX@2@I@Z ; std::allocator<std::_Tree_node<std::pair<unsigned long const ,CPythonNonPlayer::SMobScaleTable *>,void *> >::allocate
PUBLIC	?max_size@?$_Default_allocator_traits@V?$allocator@U?$_Tree_node@U?$pair@$$CBKPAUSMobScaleTable@CPythonNonPlayer@@@std@@PAX@std@@@std@@@std@@SAIABV?$allocator@U?$_Tree_node@U?$pair@$$CBKPAUSMobScaleTable@CPythonNonPlayer@@@std@@PAX@std@@@2@@Z ; std::_Default_allocator_traits<std::allocator<std::_Tree_node<std::pair<unsigned long const ,CPythonNonPlayer::SMobScaleTable *>,void *> > >::max_size
PUBLIC	??0?$_Tree_val@U?$_Tree_simple_types@U?$pair@$$CBKPAUSMobScaleTable@CPythonNonPlayer@@@std@@@std@@@std@@QAE@XZ ; std::_Tree_val<std::_Tree_simple_types<std::pair<unsigned long const ,CPythonNonPlayer::SMobScaleTable *> > >::_Tree_val<std::_Tree_simple_types<std::pair<unsigned long const ,CPythonNonPlayer::SMobScaleTable *> > >
PUBLIC	?_Get_first@?$_Compressed_pair@U?$less@K@std@@V?$_Compressed_pair@V?$allocator@U?$_Tree_node@U?$pair@$$CBKPAUSMobScaleTable@CPythonNonPlayer@@@std@@PAX@std@@@std@@V?$_Tree_val@U?$_Tree_simple_types@U?$pair@$$CBKPAUSMobScaleTable@CPythonNonPlayer@@@std@@@std@@@2@$00@2@$00@std@@QBEABU?$less@K@2@XZ ; std::_Compressed_pair<std::less<unsigned long>,std::_Compressed_pair<std::allocator<std::_Tree_node<std::pair<unsigned long const ,CPythonNonPlayer::SMobScaleTable *>,void *> >,std::_Tree_val<std::_Tree_simple_types<std::pair<unsigned long const ,CPythonNonPlayer::SMobScaleTable *> > >,1>,1>::_Get_first
PUBLIC	?_Getal@?$_Tree@V?$_Tmap_traits@V?$basic_string@DU?$char_traits@D@std@@V?$allocator@D@2@@std@@V?$map@KV?$vector@HV?$allocator@H@std@@@std@@U?$less@K@2@V?$allocator@U?$pair@$$CBKV?$vector@HV?$allocator@H@std@@@std@@@std@@@2@@2@U?$less@V?$basic_string@DU?$char_traits@D@std@@V?$allocator@D@2@@std@@@2@V?$allocator@U?$pair@$$CBV?$basic_string@DU?$char_traits@D@std@@V?$allocator@D@2@@std@@V?$map@KV?$vector@HV?$allocator@H@std@@@std@@U?$less@K@2@V?$allocator@U?$pair@$$CBKV?$vector@HV?$allocator@H@std@@@std@@@std@@@2@@2@@std@@@2@$0A@@std@@@std@@IBEABV?$allocator@U?$_Tree_node@U?$pair@$$CBV?$basic_string@DU?$char_traits@D@std@@V?$allocator@D@2@@std@@V?$map@KV?$vector@HV?$allocator@H@std@@@std@@U?$less@K@2@V?$allocator@U?$pair@$$CBKV?$vector@HV?$allocator@H@std@@@std@@@std@@@2@@2@@std@@PAX@std@@@2@XZ ; std::_Tree<std::_Tmap_traits<std::basic_string<char,std::char_traits<char>,std::allocator<char> >,std::map<unsigned long,std::vector<int,std::allocator<int> >,std::less<unsigned long>,std::allocator<std::pair<unsigned long const ,std::vector<int,std::allocator<int> > > > >,std::less<std::basic_string<char,std::char_traits<char>,std::allocator<char> > >,std::allocator<std::pair<std::basic_string<char,std::char_traits<char>,std::allocator<char> > const ,std::map<unsigned long,std::vector<int,std::allocator<int> >,std::less<unsigned long>,std::allocator<std::pair<unsigned long const ,std::vector<int,std::allocator<int> > > > > > >,0> >::_Getal
PUBLIC	??0?$allocator@U?$_Tree_node@U?$pair@$$CBV?$basic_string@DU?$char_traits@D@std@@V?$allocator@D@2@@std@@V?$map@KV?$vector@HV?$allocator@H@std@@@std@@U?$less@K@2@V?$allocator@U?$pair@$$CBKV?$vector@HV?$allocator@H@std@@@std@@@std@@@2@@2@@std@@PAX@std@@@std@@QAE@XZ ; std::allocator<std::_Tree_node<std::pair<std::basic_string<char,std::char_traits<char>,std::allocator<char> > const ,std::map<unsigned long,std::vector<int,std::allocator<int> >,std::less<unsigned long>,std::allocator<std::pair<unsigned long const ,std::vector<int,std::allocator<int> > > > > >,void *> >::allocator<std::_Tree_node<std::pair<std::basic_string<char,std::char_traits<char>,std::allocator<char> > const ,std::map<unsigned long,std::vector<int,std::allocator<int> >,std::less<unsigned long>,std::allocator<std::pair<unsigned long const ,std::vector<int,std::allocator<int> > > > > >,void *> >
PUBLIC	?deallocate@?$allocator@U?$_Tree_node@U?$pair@$$CBV?$basic_string@DU?$char_traits@D@std@@V?$allocator@D@2@@std@@V?$map@KV?$vector@HV?$allocator@H@std@@@std@@U?$less@K@2@V?$allocator@U?$pair@$$CBKV?$vector@HV?$allocator@H@std@@@std@@@std@@@2@@2@@std@@PAX@std@@@std@@QAEXQAU?$_Tree_node@U?$pair@$$CBV?$basic_string@DU?$char_traits@D@std@@V?$allocator@D@2@@std@@V?$map@KV?$vector@HV?$allocator@H@std@@@std@@U?$less@K@2@V?$allocator@U?$pair@$$CBKV?$vector@HV?$allocator@H@std@@@std@@@std@@@2@@2@@std@@PAX@2@I@Z ; std::allocator<std::_Tree_node<std::pair<std::basic_string<char,std::char_traits<char>,std::allocator<char> > const ,std::map<unsigned long,std::vector<int,std::allocator<int> >,std::less<unsigned long>,std::allocator<std::pair<unsigned long const ,std::vector<int,std::allocator<int> > > > > >,void *> >::deallocate
PUBLIC	?allocate@?$allocator@U?$_Tree_node@U?$pair@$$CBV?$basic_string@DU?$char_traits@D@std@@V?$allocator@D@2@@std@@V?$map@KV?$vector@HV?$allocator@H@std@@@std@@U?$less@K@2@V?$allocator@U?$pair@$$CBKV?$vector@HV?$allocator@H@std@@@std@@@std@@@2@@2@@std@@PAX@std@@@std@@QAEPAU?$_Tree_node@U?$pair@$$CBV?$basic_string@DU?$char_traits@D@std@@V?$allocator@D@2@@std@@V?$map@KV?$vector@HV?$allocator@H@std@@@std@@U?$less@K@2@V?$allocator@U?$pair@$$CBKV?$vector@HV?$allocator@H@std@@@std@@@std@@@2@@2@@std@@PAX@2@I@Z ; std::allocator<std::_Tree_node<std::pair<std::basic_string<char,std::char_traits<char>,std::allocator<char> > const ,std::map<unsigned long,std::vector<int,std::allocator<int> >,std::less<unsigned long>,std::allocator<std::pair<unsigned long const ,std::vector<int,std::allocator<int> > > > > >,void *> >::allocate
PUBLIC	?max_size@?$_Default_allocator_traits@V?$allocator@U?$_Tree_node@U?$pair@$$CBV?$basic_string@DU?$char_traits@D@std@@V?$allocator@D@2@@std@@V?$map@KV?$vector@HV?$allocator@H@std@@@std@@U?$less@K@2@V?$allocator@U?$pair@$$CBKV?$vector@HV?$allocator@H@std@@@std@@@std@@@2@@2@@std@@PAX@std@@@std@@@std@@SAIABV?$allocator@U?$_Tree_node@U?$pair@$$CBV?$basic_string@DU?$char_traits@D@std@@V?$allocator@D@2@@std@@V?$map@KV?$vector@HV?$allocator@H@std@@@std@@U?$less@K@2@V?$allocator@U?$pair@$$CBKV?$vector@HV?$allocator@H@std@@@std@@@std@@@2@@2@@std@@PAX@std@@@2@@Z ; std::_Default_allocator_traits<std::allocator<std::_Tree_node<std::pair<std::basic_string<char,std::char_traits<char>,std::allocator<char> > const ,std::map<unsigned long,std::vector<int,std::allocator<int> >,std::less<unsigned long>,std::allocator<std::pair<unsigned long const ,std::vector<int,std::allocator<int> > > > > >,void *> > >::max_size
PUBLIC	??0?$_Tree_val@U?$_Tree_simple_types@U?$pair@$$CBV?$basic_string@DU?$char_traits@D@std@@V?$allocator@D@2@@std@@V?$map@KV?$vector@HV?$allocator@H@std@@@std@@U?$less@K@2@V?$allocator@U?$pair@$$CBKV?$vector@HV?$allocator@H@std@@@std@@@std@@@2@@2@@std@@@std@@@std@@QAE@XZ ; std::_Tree_val<std::_Tree_simple_types<std::pair<std::basic_string<char,std::char_traits<char>,std::allocator<char> > const ,std::map<unsigned long,std::vector<int,std::allocator<int> >,std::less<unsigned long>,std::allocator<std::pair<unsigned long const ,std::vector<int,std::allocator<int> > > > > > > >::_Tree_val<std::_Tree_simple_types<std::pair<std::basic_string<char,std::char_traits<char>,std::allocator<char> > const ,std::map<unsigned long,std::vector<int,std::allocator<int> >,std::less<unsigned long>,std::allocator<std::pair<unsigned long const ,std::vector<int,std::allocator<int> > > > > > > >
PUBLIC	?_Get_first@?$_Compressed_pair@U?$less@V?$basic_string@DU?$char_traits@D@std@@V?$allocator@D@2@@std@@@std@@V?$_Compressed_pair@V?$allocator@U?$_Tree_node@U?$pair@$$CBV?$basic_string@DU?$char_traits@D@std@@V?$allocator@D@2@@std@@V?$map@KV?$vector@HV?$allocator@H@std@@@std@@U?$less@K@2@V?$allocator@U?$pair@$$CBKV?$vector@HV?$allocator@H@std@@@std@@@std@@@2@@2@@std@@PAX@std@@@std@@V?$_Tree_val@U?$_Tree_simple_types@U?$pair@$$CBV?$basic_string@DU?$char_traits@D@std@@V?$allocator@D@2@@std@@V?$map@KV?$vector@HV?$allocator@H@std@@@std@@U?$less@K@2@V?$allocator@U?$pair@$$CBKV?$vector@HV?$allocator@H@std@@@std@@@std@@@2@@2@@std@@@std@@@2@$00@2@$00@std@@QBEABU?$less@V?$basic_string@DU?$char_traits@D@std@@V?$allocator@D@2@@std@@@2@XZ ; std::_Compressed_pair<std::less<std::basic_string<char,std::char_traits<char>,std::allocator<char> > >,std::_Compressed_pair<std::allocator<std::_Tree_node<std::pair<std::basic_string<char,std::char_traits<char>,std::allocator<char> > const ,std::map<unsigned long,std::vector<int,std::allocator<int> >,std::less<unsigned long>,std::allocator<std::pair<unsigned long const ,std::vector<int,std::allocator<int> > > > > >,void *> >,std::_Tree_val<std::_Tree_simple_types<std::pair<std::basic_string<char,std::char_traits<char>,std::allocator<char> > const ,std::map<unsigned long,std::vector<int,std::allocator<int> >,std::less<unsigned long>,std::allocator<std::pair<unsigned long const ,std::vector<int,std::allocator<int> > > > > > > >,1>,1>::_Get_first
PUBLIC	?_Getal@?$_Tree@V?$_Tmap_traits@KV?$vector@HV?$allocator@H@std@@@std@@U?$less@K@2@V?$allocator@U?$pair@$$CBKV?$vector@HV?$allocator@H@std@@@std@@@std@@@2@$0A@@std@@@std@@IBEABV?$allocator@U?$_Tree_node@U?$pair@$$CBKV?$vector@HV?$allocator@H@std@@@std@@@std@@PAX@std@@@2@XZ ; std::_Tree<std::_Tmap_traits<unsigned long,std::vector<int,std::allocator<int> >,std::less<unsigned long>,std::allocator<std::pair<unsigned long const ,std::vector<int,std::allocator<int> > > >,0> >::_Getal
PUBLIC	??0?$allocator@U?$_Tree_node@U?$pair@$$CBKV?$vector@HV?$allocator@H@std@@@std@@@std@@PAX@std@@@std@@QAE@XZ ; std::allocator<std::_Tree_node<std::pair<unsigned long const ,std::vector<int,std::allocator<int> > >,void *> >::allocator<std::_Tree_node<std::pair<unsigned long const ,std::vector<int,std::allocator<int> > >,void *> >
PUBLIC	?deallocate@?$allocator@U?$_Tree_node@U?$pair@$$CBKV?$vector@HV?$allocator@H@std@@@std@@@std@@PAX@std@@@std@@QAEXQAU?$_Tree_node@U?$pair@$$CBKV?$vector@HV?$allocator@H@std@@@std@@@std@@PAX@2@I@Z ; std::allocator<std::_Tree_node<std::pair<unsigned long const ,std::vector<int,std::allocator<int> > >,void *> >::deallocate
PUBLIC	?allocate@?$allocator@U?$_Tree_node@U?$pair@$$CBKV?$vector@HV?$allocator@H@std@@@std@@@std@@PAX@std@@@std@@QAEPAU?$_Tree_node@U?$pair@$$CBKV?$vector@HV?$allocator@H@std@@@std@@@std@@PAX@2@I@Z ; std::allocator<std::_Tree_node<std::pair<unsigned long const ,std::vector<int,std::allocator<int> > >,void *> >::allocate
PUBLIC	?max_size@?$_Default_allocator_traits@V?$allocator@U?$_Tree_node@U?$pair@$$CBKV?$vector@HV?$allocator@H@std@@@std@@@std@@PAX@std@@@std@@@std@@SAIABV?$allocator@U?$_Tree_node@U?$pair@$$CBKV?$vector@HV?$allocator@H@std@@@std@@@std@@PAX@std@@@2@@Z ; std::_Default_allocator_traits<std::allocator<std::_Tree_node<std::pair<unsigned long const ,std::vector<int,std::allocator<int> > >,void *> > >::max_size
PUBLIC	??0?$_Tree_val@U?$_Tree_simple_types@U?$pair@$$CBKV?$vector@HV?$allocator@H@std@@@std@@@std@@@std@@@std@@QAE@XZ ; std::_Tree_val<std::_Tree_simple_types<std::pair<unsigned long const ,std::vector<int,std::allocator<int> > > > >::_Tree_val<std::_Tree_simple_types<std::pair<unsigned long const ,std::vector<int,std::allocator<int> > > > >
PUBLIC	?_Get_first@?$_Compressed_pair@U?$less@K@std@@V?$_Compressed_pair@V?$allocator@U?$_Tree_node@U?$pair@$$CBKV?$vector@HV?$allocator@H@std@@@std@@@std@@PAX@std@@@std@@V?$_Tree_val@U?$_Tree_simple_types@U?$pair@$$CBKV?$vector@HV?$allocator@H@std@@@std@@@std@@@std@@@2@$00@2@$00@std@@QBEABU?$less@K@2@XZ ; std::_Compressed_pair<std::less<unsigned long>,std::_Compressed_pair<std::allocator<std::_Tree_node<std::pair<unsigned long const ,std::vector<int,std::allocator<int> > >,void *> >,std::_Tree_val<std::_Tree_simple_types<std::pair<unsigned long const ,std::vector<int,std::allocator<int> > > > >,1>,1>::_Get_first
PUBLIC	??0?$_Alloc_construct_ptr@V?$allocator@U?$_Tree_node@U?$pair@$$CBKPAUSMobTable@CPythonNonPlayer@@@std@@PAX@std@@@std@@@std@@QAE@AAV?$allocator@U?$_Tree_node@U?$pair@$$CBKPAUSMobTable@CPythonNonPlayer@@@std@@PAX@std@@@1@@Z ; std::_Alloc_construct_ptr<std::allocator<std::_Tree_node<std::pair<unsigned long const ,CPythonNonPlayer::SMobTable *>,void *> > >::_Alloc_construct_ptr<std::allocator<std::_Tree_node<std::pair<unsigned long const ,CPythonNonPlayer::SMobTable *>,void *> > >
PUBLIC	?_Allocate@?$_Alloc_construct_ptr@V?$allocator@U?$_Tree_node@U?$pair@$$CBKPAUSMobTable@CPythonNonPlayer@@@std@@PAX@std@@@std@@@std@@QAEXXZ ; std::_Alloc_construct_ptr<std::allocator<std::_Tree_node<std::pair<unsigned long const ,CPythonNonPlayer::SMobTable *>,void *> > >::_Allocate
PUBLIC	??0?$_Alloc_construct_ptr@V?$allocator@U?$_Tree_node@U?$pair@$$CBKPAUSMobScaleTable@CPythonNonPlayer@@@std@@PAX@std@@@std@@@std@@QAE@AAV?$allocator@U?$_Tree_node@U?$pair@$$CBKPAUSMobScaleTable@CPythonNonPlayer@@@std@@PAX@std@@@1@@Z ; std::_Alloc_construct_ptr<std::allocator<std::_Tree_node<std::pair<unsigned long const ,CPythonNonPlayer::SMobScaleTable *>,void *> > >::_Alloc_construct_ptr<std::allocator<std::_Tree_node<std::pair<unsigned long const ,CPythonNonPlayer::SMobScaleTable *>,void *> > >
PUBLIC	?_Allocate@?$_Alloc_construct_ptr@V?$allocator@U?$_Tree_node@U?$pair@$$CBKPAUSMobScaleTable@CPythonNonPlayer@@@std@@PAX@std@@@std@@@std@@QAEXXZ ; std::_Alloc_construct_ptr<std::allocator<std::_Tree_node<std::pair<unsigned long const ,CPythonNonPlayer::SMobScaleTable *>,void *> > >::_Allocate
PUBLIC	??0?$_Alloc_construct_ptr@V?$allocator@U?$_Tree_node@U?$pair@$$CBKV?$vector@HV?$allocator@H@std@@@std@@@std@@PAX@std@@@std@@@std@@QAE@AAV?$allocator@U?$_Tree_node@U?$pair@$$CBKV?$vector@HV?$allocator@H@std@@@std@@@std@@PAX@std@@@1@@Z ; std::_Alloc_construct_ptr<std::allocator<std::_Tree_node<std::pair<unsigned long const ,std::vector<int,std::allocator<int> > >,void *> > >::_Alloc_construct_ptr<std::allocator<std::_Tree_node<std::pair<unsigned long const ,std::vector<int,std::allocator<int> > >,void *> > >
PUBLIC	?_Allocate@?$_Alloc_construct_ptr@V?$allocator@U?$_Tree_node@U?$pair@$$CBKV?$vector@HV?$allocator@H@std@@@std@@@std@@PAX@std@@@std@@@std@@QAEXXZ ; std::_Alloc_construct_ptr<std::allocator<std::_Tree_node<std::pair<unsigned long const ,std::vector<int,std::allocator<int> > >,void *> > >::_Allocate
PUBLIC	??0?$_Alloc_construct_ptr@V?$allocator@U?$_Tree_node@U?$pair@$$CBV?$basic_string@DU?$char_traits@D@std@@V?$allocator@D@2@@std@@V?$map@KV?$vector@HV?$allocator@H@std@@@std@@U?$less@K@2@V?$allocator@U?$pair@$$CBKV?$vector@HV?$allocator@H@std@@@std@@@std@@@2@@2@@std@@PAX@std@@@std@@@std@@QAE@AAV?$allocator@U?$_Tree_node@U?$pair@$$CBV?$basic_string@DU?$char_traits@D@std@@V?$allocator@D@2@@std@@V?$map@KV?$vector@HV?$allocator@H@std@@@std@@U?$less@K@2@V?$allocator@U?$pair@$$CBKV?$vector@HV?$allocator@H@std@@@std@@@std@@@2@@2@@std@@PAX@std@@@1@@Z ; std::_Alloc_construct_ptr<std::allocator<std::_Tree_node<std::pair<std::basic_string<char,std::char_traits<char>,std::allocator<char> > const ,std::map<unsigned long,std::vector<int,std::allocator<int> >,std::less<unsigned long>,std::allocator<std::pair<unsigned long const ,std::vector<int,std::allocator<int> > > > > >,void *> > >::_Alloc_construct_ptr<std::allocator<std::_Tree_node<std::pair<std::basic_string<char,std::char_traits<char>,std::allocator<char> > const ,std::map<unsigned long,std::vector<int,std::allocator<int> >,std::less<unsigned long>,std::allocator<std::pair<unsigned long const ,std::vector<int,std::allocator<int> > > > > >,void *> > >
PUBLIC	?_Allocate@?$_Alloc_construct_ptr@V?$allocator@U?$_Tree_node@U?$pair@$$CBV?$basic_string@DU?$char_traits@D@std@@V?$allocator@D@2@@std@@V?$map@KV?$vector@HV?$allocator@H@std@@@std@@U?$less@K@2@V?$allocator@U?$pair@$$CBKV?$vector@HV?$allocator@H@std@@@std@@@std@@@2@@2@@std@@PAX@std@@@std@@@std@@QAEXXZ ; std::_Alloc_construct_ptr<std::allocator<std::_Tree_node<std::pair<std::basic_string<char,std::char_traits<char>,std::allocator<char> > const ,std::map<unsigned long,std::vector<int,std::allocator<int> >,std::less<unsigned long>,std::allocator<std::pair<unsigned long const ,std::vector<int,std::allocator<int> > > > > >,void *> > >::_Allocate
PUBLIC	??$_Construct_in_place@PAU?$_Tree_node@U?$pair@$$CBKPAUSMobScaleTable@CPythonNonPlayer@@@std@@PAX@std@@ABQAU12@@std@@YAXAAPAU?$_Tree_node@U?$pair@$$CBKPAUSMobScaleTable@CPythonNonPlayer@@@std@@PAX@0@ABQAU10@@Z ; std::_Construct_in_place<std::_Tree_node<std::pair<unsigned long const ,CPythonNonPlayer::SMobScaleTable *>,void *> *,std::_Tree_node<std::pair<unsigned long const ,CPythonNonPlayer::SMobScaleTable *>,void *> * const &>
PUBLIC	??$_Construct_in_place@PAU?$_Tree_node@U?$pair@$$CBV?$basic_string@DU?$char_traits@D@std@@V?$allocator@D@2@@std@@V?$map@KV?$vector@HV?$allocator@H@std@@@std@@U?$less@K@2@V?$allocator@U?$pair@$$CBKV?$vector@HV?$allocator@H@std@@@std@@@std@@@2@@2@@std@@PAX@std@@ABQAU12@@std@@YAXAAPAU?$_Tree_node@U?$pair@$$CBV?$basic_string@DU?$char_traits@D@std@@V?$allocator@D@2@@std@@V?$map@KV?$vector@HV?$allocator@H@std@@@std@@U?$less@K@2@V?$allocator@U?$pair@$$CBKV?$vector@HV?$allocator@H@std@@@std@@@std@@@2@@2@@std@@PAX@0@ABQAU10@@Z ; std::_Construct_in_place<std::_Tree_node<std::pair<std::basic_string<char,std::char_traits<char>,std::allocator<char> > const ,std::map<unsigned long,std::vector<int,std::allocator<int> >,std::less<unsigned long>,std::allocator<std::pair<unsigned long const ,std::vector<int,std::allocator<int> > > > > >,void *> *,std::_Tree_node<std::pair<std::basic_string<char,std::char_traits<char>,std::allocator<char> > const ,std::map<unsigned long,std::vector<int,std::allocator<int> >,std::less<unsigned long>,std::allocator<std::pair<unsigned long const ,std::vector<int,std::allocator<int> > > > > >,void *> * const &>
PUBLIC	??$_Construct_in_place@PAU?$_Tree_node@U?$pair@$$CBKV?$vector@HV?$allocator@H@std@@@std@@@std@@PAX@std@@ABQAU12@@std@@YAXAAPAU?$_Tree_node@U?$pair@$$CBKV?$vector@HV?$allocator@H@std@@@std@@@std@@PAX@0@ABQAU10@@Z ; std::_Construct_in_place<std::_Tree_node<std::pair<unsigned long const ,std::vector<int,std::allocator<int> > >,void *> *,std::_Tree_node<std::pair<unsigned long const ,std::vector<int,std::allocator<int> > >,void *> * const &>
PUBLIC	??$destroy_at@U?$pair@$$CBKPAUSMobScaleTable@CPythonNonPlayer@@@std@@@std@@YAXQAU?$pair@$$CBKPAUSMobScaleTable@CPythonNonPlayer@@@0@@Z ; std::destroy_at<std::pair<unsigned long const ,CPythonNonPlayer::SMobScaleTable *> >
PUBLIC	??1?$pair@$$CBKV?$vector@HV?$allocator@H@std@@@std@@@std@@QAE@XZ ; std::pair<unsigned long const ,std::vector<int,std::allocator<int> > >::~pair<unsigned long const ,std::vector<int,std::allocator<int> > >
PUBLIC	??$destroy_at@U?$pair@$$CBKV?$vector@HV?$allocator@H@std@@@std@@@std@@@std@@YAXQAU?$pair@$$CBKV?$vector@HV?$allocator@H@std@@@std@@@0@@Z ; std::destroy_at<std::pair<unsigned long const ,std::vector<int,std::allocator<int> > > >
PUBLIC	??$_Construct_in_place@PAU?$_Tree_node@U?$pair@$$CBKPAUSMobTable@CPythonNonPlayer@@@std@@PAX@std@@ABQAU12@@std@@YAXAAPAU?$_Tree_node@U?$pair@$$CBKPAUSMobTable@CPythonNonPlayer@@@std@@PAX@0@ABQAU10@@Z ; std::_Construct_in_place<std::_Tree_node<std::pair<unsigned long const ,CPythonNonPlayer::SMobTable *>,void *> *,std::_Tree_node<std::pair<unsigned long const ,CPythonNonPlayer::SMobTable *>,void *> * const &>
PUBLIC	??$destroy_at@U?$pair@$$CBKPAUSMobTable@CPythonNonPlayer@@@std@@@std@@YAXQAU?$pair@$$CBKPAUSMobTable@CPythonNonPlayer@@@0@@Z ; std::destroy_at<std::pair<unsigned long const ,CPythonNonPlayer::SMobTable *> >
PUBLIC	??$construct@H$$V@?$_Default_allocator_traits@V?$allocator@H@std@@@std@@SAXAAV?$allocator@H@1@QAH@Z ; std::_Default_allocator_traits<std::allocator<int> >::construct<int>
PUBLIC	??1?$pair@$$CBV?$basic_string@DU?$char_traits@D@std@@V?$allocator@D@2@@std@@V?$map@KV?$vector@HV?$allocator@H@std@@@std@@U?$less@K@2@V?$allocator@U?$pair@$$CBKV?$vector@HV?$allocator@H@std@@@std@@@std@@@2@@2@@std@@QAE@XZ ; std::pair<std::basic_string<char,std::char_traits<char>,std::allocator<char> > const ,std::map<unsigned long,std::vector<int,std::allocator<int> >,std::less<unsigned long>,std::allocator<std::pair<unsigned long const ,std::vector<int,std::allocator<int> > > > > >::~pair<std::basic_string<char,std::char_traits<char>,std::allocator<char> > const ,std::map<unsigned long,std::vector<int,std::allocator<int> >,std::less<unsigned long>,std::allocator<std::pair<unsigned long const ,std::vector<int,std::allocator<int> > > > > >
PUBLIC	??$destroy_at@U?$pair@$$CBV?$basic_string@DU?$char_traits@D@std@@V?$allocator@D@2@@std@@V?$map@KV?$vector@HV?$allocator@H@std@@@std@@U?$less@K@2@V?$allocator@U?$pair@$$CBKV?$vector@HV?$allocator@H@std@@@std@@@std@@@2@@2@@std@@@std@@YAXQAU?$pair@$$CBV?$basic_string@DU?$char_traits@D@std@@V?$allocator@D@2@@std@@V?$map@KV?$vector@HV?$allocator@H@std@@@std@@U?$less@K@2@V?$allocator@U?$pair@$$CBKV?$vector@HV?$allocator@H@std@@@std@@@std@@@2@@2@@0@@Z ; std::destroy_at<std::pair<std::basic_string<char,std::char_traits<char>,std::allocator<char> > const ,std::map<unsigned long,std::vector<int,std::allocator<int> >,std::less<unsigned long>,std::allocator<std::pair<unsigned long const ,std::vector<int,std::allocator<int> > > > > > >
PUBLIC	??$construct_at@PAU?$_Tree_node@U?$pair@$$CBV?$basic_string@DU?$char_traits@D@std@@V?$allocator@D@2@@std@@V?$map@KV?$vector@HV?$allocator@H@std@@@std@@U?$less@K@2@V?$allocator@U?$pair@$$CBKV?$vector@HV?$allocator@H@std@@@std@@@std@@@2@@2@@std@@PAX@std@@AAPAU12@@std@@YAPAPAU?$_Tree_node@U?$pair@$$CBV?$basic_string@DU?$char_traits@D@std@@V?$allocator@D@2@@std@@V?$map@KV?$vector@HV?$allocator@H@std@@@std@@U?$less@K@2@V?$allocator@U?$pair@$$CBKV?$vector@HV?$allocator@H@std@@@std@@@std@@@2@@2@@std@@PAX@0@QAPAU10@AAPAU10@@Z ; std::construct_at<std::_Tree_node<std::pair<std::basic_string<char,std::char_traits<char>,std::allocator<char> > const ,std::map<unsigned long,std::vector<int,std::allocator<int> >,std::less<unsigned long>,std::allocator<std::pair<unsigned long const ,std::vector<int,std::allocator<int> > > > > >,void *> *,std::_Tree_node<std::pair<std::basic_string<char,std::char_traits<char>,std::allocator<char> > const ,std::map<unsigned long,std::vector<int,std::allocator<int> >,std::less<unsigned long>,std::allocator<std::pair<unsigned long const ,std::vector<int,std::allocator<int> > > > > >,void *> * &>
PUBLIC	??$addressof@PAU?$_Tree_node@U?$pair@$$CBV?$basic_string@DU?$char_traits@D@std@@V?$allocator@D@2@@std@@V?$map@KV?$vector@HV?$allocator@H@std@@@std@@U?$less@K@2@V?$allocator@U?$pair@$$CBKV?$vector@HV?$allocator@H@std@@@std@@@std@@@2@@2@@std@@PAX@std@@@std@@YAPAPAU?$_Tree_node@U?$pair@$$CBV?$basic_string@DU?$char_traits@D@std@@V?$allocator@D@2@@std@@V?$map@KV?$vector@HV?$allocator@H@std@@@std@@U?$less@K@2@V?$allocator@U?$pair@$$CBKV?$vector@HV?$allocator@H@std@@@std@@@std@@@2@@2@@std@@PAX@0@AAPAU10@@Z ; std::addressof<std::_Tree_node<std::pair<std::basic_string<char,std::char_traits<char>,std::allocator<char> > const ,std::map<unsigned long,std::vector<int,std::allocator<int> >,std::less<unsigned long>,std::allocator<std::pair<unsigned long const ,std::vector<int,std::allocator<int> > > > > >,void *> *>
PUBLIC	??$construct_at@U?$pair@$$CBV?$basic_string@DU?$char_traits@D@std@@V?$allocator@D@2@@std@@V?$map@KV?$vector@HV?$allocator@H@std@@@std@@U?$less@K@2@V?$allocator@U?$pair@$$CBKV?$vector@HV?$allocator@H@std@@@std@@@std@@@2@@2@@std@@PBDAAV?$map@KV?$vector@HV?$allocator@H@std@@@std@@U?$less@K@2@V?$allocator@U?$pair@$$CBKV?$vector@HV?$allocator@H@std@@@std@@@std@@@2@@2@@std@@YAPAU?$pair@$$CBV?$basic_string@DU?$char_traits@D@std@@V?$allocator@D@2@@std@@V?$map@KV?$vector@HV?$allocator@H@std@@@std@@U?$less@K@2@V?$allocator@U?$pair@$$CBKV?$vector@HV?$allocator@H@std@@@std@@@std@@@2@@2@@0@QAU10@$$QAPBDAAV?$map@KV?$vector@HV?$allocator@H@std@@@std@@U?$less@K@2@V?$allocator@U?$pair@$$CBKV?$vector@HV?$allocator@H@std@@@std@@@std@@@2@@0@@Z ; std::construct_at<std::pair<std::basic_string<char,std::char_traits<char>,std::allocator<char> > const ,std::map<unsigned long,std::vector<int,std::allocator<int> >,std::less<unsigned long>,std::allocator<std::pair<unsigned long const ,std::vector<int,std::allocator<int> > > > > >,char const *,std::map<unsigned long,std::vector<int,std::allocator<int> >,std::less<unsigned long>,std::allocator<std::pair<unsigned long const ,std::vector<int,std::allocator<int> > > > > &>
PUBLIC	??$construct_at@PAU?$_Tree_node@U?$pair@$$CBKV?$vector@HV?$allocator@H@std@@@std@@@std@@PAX@std@@AAPAU12@@std@@YAPAPAU?$_Tree_node@U?$pair@$$CBKV?$vector@HV?$allocator@H@std@@@std@@@std@@PAX@0@QAPAU10@AAPAU10@@Z ; std::construct_at<std::_Tree_node<std::pair<unsigned long const ,std::vector<int,std::allocator<int> > >,void *> *,std::_Tree_node<std::pair<unsigned long const ,std::vector<int,std::allocator<int> > >,void *> * &>
PUBLIC	??$addressof@PAU?$_Tree_node@U?$pair@$$CBKV?$vector@HV?$allocator@H@std@@@std@@@std@@PAX@std@@@std@@YAPAPAU?$_Tree_node@U?$pair@$$CBKV?$vector@HV?$allocator@H@std@@@std@@@std@@PAX@0@AAPAU10@@Z ; std::addressof<std::_Tree_node<std::pair<unsigned long const ,std::vector<int,std::allocator<int> > >,void *> *>
PUBLIC	??$construct_at@U?$pair@$$CBKV?$vector@HV?$allocator@H@std@@@std@@@std@@ABKAAV?$vector@HV?$allocator@H@std@@@2@@std@@YAPAU?$pair@$$CBKV?$vector@HV?$allocator@H@std@@@std@@@0@QAU10@ABKAAV?$vector@HV?$allocator@H@std@@@0@@Z ; std::construct_at<std::pair<unsigned long const ,std::vector<int,std::allocator<int> > >,unsigned long const &,std::vector<int,std::allocator<int> > &>
PUBLIC	??$construct_at@PAU?$_Tree_node@U?$pair@$$CBKPAUSMobScaleTable@CPythonNonPlayer@@@std@@PAX@std@@AAPAU12@@std@@YAPAPAU?$_Tree_node@U?$pair@$$CBKPAUSMobScaleTable@CPythonNonPlayer@@@std@@PAX@0@QAPAU10@AAPAU10@@Z ; std::construct_at<std::_Tree_node<std::pair<unsigned long const ,CPythonNonPlayer::SMobScaleTable *>,void *> *,std::_Tree_node<std::pair<unsigned long const ,CPythonNonPlayer::SMobScaleTable *>,void *> * &>
PUBLIC	??$addressof@PAU?$_Tree_node@U?$pair@$$CBKPAUSMobScaleTable@CPythonNonPlayer@@@std@@PAX@std@@@std@@YAPAPAU?$_Tree_node@U?$pair@$$CBKPAUSMobScaleTable@CPythonNonPlayer@@@std@@PAX@0@AAPAU10@@Z ; std::addressof<std::_Tree_node<std::pair<unsigned long const ,CPythonNonPlayer::SMobScaleTable *>,void *> *>
PUBLIC	??$construct_at@U?$pair@$$CBKPAUSMobScaleTable@CPythonNonPlayer@@@std@@U12@@std@@YAPAU?$pair@$$CBKPAUSMobScaleTable@CPythonNonPlayer@@@0@QAU10@$$QAU10@@Z ; std::construct_at<std::pair<unsigned long const ,CPythonNonPlayer::SMobScaleTable *>,std::pair<unsigned long const ,CPythonNonPlayer::SMobScaleTable *> >
PUBLIC	??$construct_at@PAU?$_Tree_node@U?$pair@$$CBKPAUSMobTable@CPythonNonPlayer@@@std@@PAX@std@@AAPAU12@@std@@YAPAPAU?$_Tree_node@U?$pair@$$CBKPAUSMobTable@CPythonNonPlayer@@@std@@PAX@0@QAPAU10@AAPAU10@@Z ; std::construct_at<std::_Tree_node<std::pair<unsigned long const ,CPythonNonPlayer::SMobTable *>,void *> *,std::_Tree_node<std::pair<unsigned long const ,CPythonNonPlayer::SMobTable *>,void *> * &>
PUBLIC	??$addressof@PAU?$_Tree_node@U?$pair@$$CBKPAUSMobTable@CPythonNonPlayer@@@std@@PAX@std@@@std@@YAPAPAU?$_Tree_node@U?$pair@$$CBKPAUSMobTable@CPythonNonPlayer@@@std@@PAX@0@AAPAU10@@Z ; std::addressof<std::_Tree_node<std::pair<unsigned long const ,CPythonNonPlayer::SMobTable *>,void *> *>
PUBLIC	??$construct_at@U?$pair@$$CBKPAUSMobTable@CPythonNonPlayer@@@std@@U12@@std@@YAPAU?$pair@$$CBKPAUSMobTable@CPythonNonPlayer@@@0@QAU10@$$QAU10@@Z ; std::construct_at<std::pair<unsigned long const ,CPythonNonPlayer::SMobTable *>,std::pair<unsigned long const ,CPythonNonPlayer::SMobTable *> >
PUBLIC	?max_size@?$_Tree@V?$_Tmap_traits@KPAUSMobTable@CPythonNonPlayer@@U?$less@K@std@@V?$allocator@U?$pair@$$CBKPAUSMobTable@CPythonNonPlayer@@@std@@@4@$0A@@std@@@std@@QBEIXZ ; std::_Tree<std::_Tmap_traits<unsigned long,CPythonNonPlayer::SMobTable *,std::less<unsigned long>,std::allocator<std::pair<unsigned long const ,CPythonNonPlayer::SMobTable *> >,0> >::max_size
PUBLIC	?_Getcomp@?$_Tree@V?$_Tmap_traits@KPAUSMobTable@CPythonNonPlayer@@U?$less@K@std@@V?$allocator@U?$pair@$$CBKPAUSMobTable@CPythonNonPlayer@@@std@@@4@$0A@@std@@@std@@IBEABU?$less@K@2@XZ ; std::_Tree<std::_Tmap_traits<unsigned long,CPythonNonPlayer::SMobTable *,std::less<unsigned long>,std::allocator<std::pair<unsigned long const ,CPythonNonPlayer::SMobTable *> >,0> >::_Getcomp
PUBLIC	?deallocate@?$_Default_allocator_traits@V?$allocator@U?$_Tree_node@U?$pair@$$CBKPAUSMobTable@CPythonNonPlayer@@@std@@PAX@std@@@std@@@std@@SAXAAV?$allocator@U?$_Tree_node@U?$pair@$$CBKPAUSMobTable@CPythonNonPlayer@@@std@@PAX@std@@@2@QAU?$_Tree_node@U?$pair@$$CBKPAUSMobTable@CPythonNonPlayer@@@std@@PAX@2@I@Z ; std::_Default_allocator_traits<std::allocator<std::_Tree_node<std::pair<unsigned long const ,CPythonNonPlayer::SMobTable *>,void *> > >::deallocate
PUBLIC	?_Min@?$_Tree_val@U?$_Tree_simple_types@U?$pair@$$CBKPAUSMobTable@CPythonNonPlayer@@@std@@@std@@@std@@SAPAU?$_Tree_node@U?$pair@$$CBKPAUSMobTable@CPythonNonPlayer@@@std@@PAX@2@PAU32@@Z ; std::_Tree_val<std::_Tree_simple_types<std::pair<unsigned long const ,CPythonNonPlayer::SMobTable *> > >::_Min
PUBLIC	?_Lrotate@?$_Tree_val@U?$_Tree_simple_types@U?$pair@$$CBKPAUSMobTable@CPythonNonPlayer@@@std@@@std@@@std@@QAEXPAU?$_Tree_node@U?$pair@$$CBKPAUSMobTable@CPythonNonPlayer@@@std@@PAX@2@@Z ; std::_Tree_val<std::_Tree_simple_types<std::pair<unsigned long const ,CPythonNonPlayer::SMobTable *> > >::_Lrotate
PUBLIC	?_Rrotate@?$_Tree_val@U?$_Tree_simple_types@U?$pair@$$CBKPAUSMobTable@CPythonNonPlayer@@@std@@@std@@@std@@QAEXPAU?$_Tree_node@U?$pair@$$CBKPAUSMobTable@CPythonNonPlayer@@@std@@PAX@2@@Z ; std::_Tree_val<std::_Tree_simple_types<std::pair<unsigned long const ,CPythonNonPlayer::SMobTable *> > >::_Rrotate
PUBLIC	?max_size@?$_Tree@V?$_Tmap_traits@KPAUSMobScaleTable@CPythonNonPlayer@@U?$less@K@std@@V?$allocator@U?$pair@$$CBKPAUSMobScaleTable@CPythonNonPlayer@@@std@@@4@$0A@@std@@@std@@QBEIXZ ; std::_Tree<std::_Tmap_traits<unsigned long,CPythonNonPlayer::SMobScaleTable *,std::less<unsigned long>,std::allocator<std::pair<unsigned long const ,CPythonNonPlayer::SMobScaleTable *> >,0> >::max_size
PUBLIC	?_Getcomp@?$_Tree@V?$_Tmap_traits@KPAUSMobScaleTable@CPythonNonPlayer@@U?$less@K@std@@V?$allocator@U?$pair@$$CBKPAUSMobScaleTable@CPythonNonPlayer@@@std@@@4@$0A@@std@@@std@@IBEABU?$less@K@2@XZ ; std::_Tree<std::_Tmap_traits<unsigned long,CPythonNonPlayer::SMobScaleTable *,std::less<unsigned long>,std::allocator<std::pair<unsigned long const ,CPythonNonPlayer::SMobScaleTable *> >,0> >::_Getcomp
PUBLIC	?deallocate@?$_Default_allocator_traits@V?$allocator@U?$_Tree_node@U?$pair@$$CBKPAUSMobScaleTable@CPythonNonPlayer@@@std@@PAX@std@@@std@@@std@@SAXAAV?$allocator@U?$_Tree_node@U?$pair@$$CBKPAUSMobScaleTable@CPythonNonPlayer@@@std@@PAX@std@@@2@QAU?$_Tree_node@U?$pair@$$CBKPAUSMobScaleTable@CPythonNonPlayer@@@std@@PAX@2@I@Z ; std::_Default_allocator_traits<std::allocator<std::_Tree_node<std::pair<unsigned long const ,CPythonNonPlayer::SMobScaleTable *>,void *> > >::deallocate
PUBLIC	?_Lrotate@?$_Tree_val@U?$_Tree_simple_types@U?$pair@$$CBKPAUSMobScaleTable@CPythonNonPlayer@@@std@@@std@@@std@@QAEXPAU?$_Tree_node@U?$pair@$$CBKPAUSMobScaleTable@CPythonNonPlayer@@@std@@PAX@2@@Z ; std::_Tree_val<std::_Tree_simple_types<std::pair<unsigned long const ,CPythonNonPlayer::SMobScaleTable *> > >::_Lrotate
PUBLIC	?_Rrotate@?$_Tree_val@U?$_Tree_simple_types@U?$pair@$$CBKPAUSMobScaleTable@CPythonNonPlayer@@@std@@@std@@@std@@QAEXPAU?$_Tree_node@U?$pair@$$CBKPAUSMobScaleTable@CPythonNonPlayer@@@std@@PAX@2@@Z ; std::_Tree_val<std::_Tree_simple_types<std::pair<unsigned long const ,CPythonNonPlayer::SMobScaleTable *> > >::_Rrotate
PUBLIC	?max_size@?$_Tree@V?$_Tmap_traits@V?$basic_string@DU?$char_traits@D@std@@V?$allocator@D@2@@std@@V?$map@KV?$vector@HV?$allocator@H@std@@@std@@U?$less@K@2@V?$allocator@U?$pair@$$CBKV?$vector@HV?$allocator@H@std@@@std@@@std@@@2@@2@U?$less@V?$basic_string@DU?$char_traits@D@std@@V?$allocator@D@2@@std@@@2@V?$allocator@U?$pair@$$CBV?$basic_string@DU?$char_traits@D@std@@V?$allocator@D@2@@std@@V?$map@KV?$vector@HV?$allocator@H@std@@@std@@U?$less@K@2@V?$allocator@U?$pair@$$CBKV?$vector@HV?$allocator@H@std@@@std@@@std@@@2@@2@@std@@@2@$0A@@std@@@std@@QBEIXZ ; std::_Tree<std::_Tmap_traits<std::basic_string<char,std::char_traits<char>,std::allocator<char> >,std::map<unsigned long,std::vector<int,std::allocator<int> >,std::less<unsigned long>,std::allocator<std::pair<unsigned long const ,std::vector<int,std::allocator<int> > > > >,std::less<std::basic_string<char,std::char_traits<char>,std::allocator<char> > >,std::allocator<std::pair<std::basic_string<char,std::char_traits<char>,std::allocator<char> > const ,std::map<unsigned long,std::vector<int,std::allocator<int> >,std::less<unsigned long>,std::allocator<std::pair<unsigned long const ,std::vector<int,std::allocator<int> > > > > > >,0> >::max_size
PUBLIC	?_Getcomp@?$_Tree@V?$_Tmap_traits@V?$basic_string@DU?$char_traits@D@std@@V?$allocator@D@2@@std@@V?$map@KV?$vector@HV?$allocator@H@std@@@std@@U?$less@K@2@V?$allocator@U?$pair@$$CBKV?$vector@HV?$allocator@H@std@@@std@@@std@@@2@@2@U?$less@V?$basic_string@DU?$char_traits@D@std@@V?$allocator@D@2@@std@@@2@V?$allocator@U?$pair@$$CBV?$basic_string@DU?$char_traits@D@std@@V?$allocator@D@2@@std@@V?$map@KV?$vector@HV?$allocator@H@std@@@std@@U?$less@K@2@V?$allocator@U?$pair@$$CBKV?$vector@HV?$allocator@H@std@@@std@@@std@@@2@@2@@std@@@2@$0A@@std@@@std@@IBEABU?$less@V?$basic_string@DU?$char_traits@D@std@@V?$allocator@D@2@@std@@@2@XZ ; std::_Tree<std::_Tmap_traits<std::basic_string<char,std::char_traits<char>,std::allocator<char> >,std::map<unsigned long,std::vector<int,std::allocator<int> >,std::less<unsigned long>,std::allocator<std::pair<unsigned long const ,std::vector<int,std::allocator<int> > > > >,std::less<std::basic_string<char,std::char_traits<char>,std::allocator<char> > >,std::allocator<std::pair<std::basic_string<char,std::char_traits<char>,std::allocator<char> > const ,std::map<unsigned long,std::vector<int,std::allocator<int> >,std::less<unsigned long>,std::allocator<std::pair<unsigned long const ,std::vector<int,std::allocator<int> > > > > > >,0> >::_Getcomp
PUBLIC	?deallocate@?$_Default_allocator_traits@V?$allocator@U?$_Tree_node@U?$pair@$$CBV?$basic_string@DU?$char_traits@D@std@@V?$allocator@D@2@@std@@V?$map@KV?$vector@HV?$allocator@H@std@@@std@@U?$less@K@2@V?$allocator@U?$pair@$$CBKV?$vector@HV?$allocator@H@std@@@std@@@std@@@2@@2@@std@@PAX@std@@@std@@@std@@SAXAAV?$allocator@U?$_Tree_node@U?$pair@$$CBV?$basic_string@DU?$char_traits@D@std@@V?$allocator@D@2@@std@@V?$map@KV?$vector@HV?$allocator@H@std@@@std@@U?$less@K@2@V?$allocator@U?$pair@$$CBKV?$vector@HV?$allocator@H@std@@@std@@@std@@@2@@2@@std@@PAX@std@@@2@QAU?$_Tree_node@U?$pair@$$CBV?$basic_string@DU?$char_traits@D@std@@V?$allocator@D@2@@std@@V?$map@KV?$vector@HV?$allocator@H@std@@@std@@U?$less@K@2@V?$allocator@U?$pair@$$CBKV?$vector@HV?$allocator@H@std@@@std@@@std@@@2@@2@@std@@PAX@2@I@Z ; std::_Default_allocator_traits<std::allocator<std::_Tree_node<std::pair<std::basic_string<char,std::char_traits<char>,std::allocator<char> > const ,std::map<unsigned long,std::vector<int,std::allocator<int> >,std::less<unsigned long>,std::allocator<std::pair<unsigned long const ,std::vector<int,std::allocator<int> > > > > >,void *> > >::deallocate
PUBLIC	?_Lrotate@?$_Tree_val@U?$_Tree_simple_types@U?$pair@$$CBV?$basic_string@DU?$char_traits@D@std@@V?$allocator@D@2@@std@@V?$map@KV?$vector@HV?$allocator@H@std@@@std@@U?$less@K@2@V?$allocator@U?$pair@$$CBKV?$vector@HV?$allocator@H@std@@@std@@@std@@@2@@2@@std@@@std@@@std@@QAEXPAU?$_Tree_node@U?$pair@$$CBV?$basic_string@DU?$char_traits@D@std@@V?$allocator@D@2@@std@@V?$map@KV?$vector@HV?$allocator@H@std@@@std@@U?$less@K@2@V?$allocator@U?$pair@$$CBKV?$vector@HV?$allocator@H@std@@@std@@@std@@@2@@2@@std@@PAX@2@@Z ; std::_Tree_val<std::_Tree_simple_types<std::pair<std::basic_string<char,std::char_traits<char>,std::allocator<char> > const ,std::map<unsigned long,std::vector<int,std::allocator<int> >,std::less<unsigned long>,std::allocator<std::pair<unsigned long const ,std::vector<int,std::allocator<int> > > > > > > >::_Lrotate
PUBLIC	?_Rrotate@?$_Tree_val@U?$_Tree_simple_types@U?$pair@$$CBV?$basic_string@DU?$char_traits@D@std@@V?$allocator@D@2@@std@@V?$map@KV?$vector@HV?$allocator@H@std@@@std@@U?$less@K@2@V?$allocator@U?$pair@$$CBKV?$vector@HV?$allocator@H@std@@@std@@@std@@@2@@2@@std@@@std@@@std@@QAEXPAU?$_Tree_node@U?$pair@$$CBV?$basic_string@DU?$char_traits@D@std@@V?$allocator@D@2@@std@@V?$map@KV?$vector@HV?$allocator@H@std@@@std@@U?$less@K@2@V?$allocator@U?$pair@$$CBKV?$vector@HV?$allocator@H@std@@@std@@@std@@@2@@2@@std@@PAX@2@@Z ; std::_Tree_val<std::_Tree_simple_types<std::pair<std::basic_string<char,std::char_traits<char>,std::allocator<char> > const ,std::map<unsigned long,std::vector<int,std::allocator<int> >,std::less<unsigned long>,std::allocator<std::pair<unsigned long const ,std::vector<int,std::allocator<int> > > > > > > >::_Rrotate
PUBLIC	?max_size@?$_Tree@V?$_Tmap_traits@KV?$vector@HV?$allocator@H@std@@@std@@U?$less@K@2@V?$allocator@U?$pair@$$CBKV?$vector@HV?$allocator@H@std@@@std@@@std@@@2@$0A@@std@@@std@@QBEIXZ ; std::_Tree<std::_Tmap_traits<unsigned long,std::vector<int,std::allocator<int> >,std::less<unsigned long>,std::allocator<std::pair<unsigned long const ,std::vector<int,std::allocator<int> > > >,0> >::max_size
PUBLIC	?_Getcomp@?$_Tree@V?$_Tmap_traits@KV?$vector@HV?$allocator@H@std@@@std@@U?$less@K@2@V?$allocator@U?$pair@$$CBKV?$vector@HV?$allocator@H@std@@@std@@@std@@@2@$0A@@std@@@std@@IBEABU?$less@K@2@XZ ; std::_Tree<std::_Tmap_traits<unsigned long,std::vector<int,std::allocator<int> >,std::less<unsigned long>,std::allocator<std::pair<unsigned long const ,std::vector<int,std::allocator<int> > > >,0> >::_Getcomp
PUBLIC	?deallocate@?$_Default_allocator_traits@V?$allocator@U?$_Tree_node@U?$pair@$$CBKV?$vector@HV?$allocator@H@std@@@std@@@std@@PAX@std@@@std@@@std@@SAXAAV?$allocator@U?$_Tree_node@U?$pair@$$CBKV?$vector@HV?$allocator@H@std@@@std@@@std@@PAX@std@@@2@QAU?$_Tree_node@U?$pair@$$CBKV?$vector@HV?$allocator@H@std@@@std@@@std@@PAX@2@I@Z ; std::_Default_allocator_traits<std::allocator<std::_Tree_node<std::pair<unsigned long const ,std::vector<int,std::allocator<int> > >,void *> > >::deallocate
PUBLIC	?_Lrotate@?$_Tree_val@U?$_Tree_simple_types@U?$pair@$$CBKV?$vector@HV?$allocator@H@std@@@std@@@std@@@std@@@std@@QAEXPAU?$_Tree_node@U?$pair@$$CBKV?$vector@HV?$allocator@H@std@@@std@@@std@@PAX@2@@Z ; std::_Tree_val<std::_Tree_simple_types<std::pair<unsigned long const ,std::vector<int,std::allocator<int> > > > >::_Lrotate
PUBLIC	?_Rrotate@?$_Tree_val@U?$_Tree_simple_types@U?$pair@$$CBKV?$vector@HV?$allocator@H@std@@@std@@@std@@@std@@@std@@QAEXPAU?$_Tree_node@U?$pair@$$CBKV?$vector@HV?$allocator@H@std@@@std@@@std@@PAX@2@@Z ; std::_Tree_val<std::_Tree_simple_types<std::pair<unsigned long const ,std::vector<int,std::allocator<int> > > > >::_Rrotate
PUBLIC	??0?$_Tree_temp_node_alloc@V?$allocator@U?$_Tree_node@U?$pair@$$CBKPAUSMobTable@CPythonNonPlayer@@@std@@PAX@std@@@std@@@std@@QAE@AAV?$allocator@U?$_Tree_node@U?$pair@$$CBKPAUSMobTable@CPythonNonPlayer@@@std@@PAX@std@@@1@@Z ; std::_Tree_temp_node_alloc<std::allocator<std::_Tree_node<std::pair<unsigned long const ,CPythonNonPlayer::SMobTable *>,void *> > >::_Tree_temp_node_alloc<std::allocator<std::_Tree_node<std::pair<unsigned long const ,CPythonNonPlayer::SMobTable *>,void *> > >
PUBLIC	??1?$_Alloc_construct_ptr@V?$allocator@U?$_Tree_node@U?$pair@$$CBKPAUSMobTable@CPythonNonPlayer@@@std@@PAX@std@@@std@@@std@@QAE@XZ ; std::_Alloc_construct_ptr<std::allocator<std::_Tree_node<std::pair<unsigned long const ,CPythonNonPlayer::SMobTable *>,void *> > >::~_Alloc_construct_ptr<std::allocator<std::_Tree_node<std::pair<unsigned long const ,CPythonNonPlayer::SMobTable *>,void *> > >
PUBLIC	??0?$_Tree_temp_node_alloc@V?$allocator@U?$_Tree_node@U?$pair@$$CBKPAUSMobScaleTable@CPythonNonPlayer@@@std@@PAX@std@@@std@@@std@@QAE@AAV?$allocator@U?$_Tree_node@U?$pair@$$CBKPAUSMobScaleTable@CPythonNonPlayer@@@std@@PAX@std@@@1@@Z ; std::_Tree_temp_node_alloc<std::allocator<std::_Tree_node<std::pair<unsigned long const ,CPythonNonPlayer::SMobScaleTable *>,void *> > >::_Tree_temp_node_alloc<std::allocator<std::_Tree_node<std::pair<unsigned long const ,CPythonNonPlayer::SMobScaleTable *>,void *> > >
PUBLIC	??1?$_Alloc_construct_ptr@V?$allocator@U?$_Tree_node@U?$pair@$$CBKPAUSMobScaleTable@CPythonNonPlayer@@@std@@PAX@std@@@std@@@std@@QAE@XZ ; std::_Alloc_construct_ptr<std::allocator<std::_Tree_node<std::pair<unsigned long const ,CPythonNonPlayer::SMobScaleTable *>,void *> > >::~_Alloc_construct_ptr<std::allocator<std::_Tree_node<std::pair<unsigned long const ,CPythonNonPlayer::SMobScaleTable *>,void *> > >
PUBLIC	??0?$_Tree_temp_node_alloc@V?$allocator@U?$_Tree_node@U?$pair@$$CBKV?$vector@HV?$allocator@H@std@@@std@@@std@@PAX@std@@@std@@@std@@QAE@AAV?$allocator@U?$_Tree_node@U?$pair@$$CBKV?$vector@HV?$allocator@H@std@@@std@@@std@@PAX@std@@@1@@Z ; std::_Tree_temp_node_alloc<std::allocator<std::_Tree_node<std::pair<unsigned long const ,std::vector<int,std::allocator<int> > >,void *> > >::_Tree_temp_node_alloc<std::allocator<std::_Tree_node<std::pair<unsigned long const ,std::vector<int,std::allocator<int> > >,void *> > >
PUBLIC	??1?$_Alloc_construct_ptr@V?$allocator@U?$_Tree_node@U?$pair@$$CBKV?$vector@HV?$allocator@H@std@@@std@@@std@@PAX@std@@@std@@@std@@QAE@XZ ; std::_Alloc_construct_ptr<std::allocator<std::_Tree_node<std::pair<unsigned long const ,std::vector<int,std::allocator<int> > >,void *> > >::~_Alloc_construct_ptr<std::allocator<std::_Tree_node<std::pair<unsigned long const ,std::vector<int,std::allocator<int> > >,void *> > >
PUBLIC	??0?$_Tree_temp_node_alloc@V?$allocator@U?$_Tree_node@U?$pair@$$CBV?$basic_string@DU?$char_traits@D@std@@V?$allocator@D@2@@std@@V?$map@KV?$vector@HV?$allocator@H@std@@@std@@U?$less@K@2@V?$allocator@U?$pair@$$CBKV?$vector@HV?$allocator@H@std@@@std@@@std@@@2@@2@@std@@PAX@std@@@std@@@std@@QAE@AAV?$allocator@U?$_Tree_node@U?$pair@$$CBV?$basic_string@DU?$char_traits@D@std@@V?$allocator@D@2@@std@@V?$map@KV?$vector@HV?$allocator@H@std@@@std@@U?$less@K@2@V?$allocator@U?$pair@$$CBKV?$vector@HV?$allocator@H@std@@@std@@@std@@@2@@2@@std@@PAX@std@@@1@@Z ; std::_Tree_temp_node_alloc<std::allocator<std::_Tree_node<std::pair<std::basic_string<char,std::char_traits<char>,std::allocator<char> > const ,std::map<unsigned long,std::vector<int,std::allocator<int> >,std::less<unsigned long>,std::allocator<std::pair<unsigned long const ,std::vector<int,std::allocator<int> > > > > >,void *> > >::_Tree_temp_node_alloc<std::allocator<std::_Tree_node<std::pair<std::basic_string<char,std::char_traits<char>,std::allocator<char> > const ,std::map<unsigned long,std::vector<int,std::allocator<int> >,std::less<unsigned long>,std::allocator<std::pair<unsigned long const ,std::vector<int,std::allocator<int> > > > > >,void *> > >
PUBLIC	??1?$_Alloc_construct_ptr@V?$allocator@U?$_Tree_node@U?$pair@$$CBV?$basic_string@DU?$char_traits@D@std@@V?$allocator@D@2@@std@@V?$map@KV?$vector@HV?$allocator@H@std@@@std@@U?$less@K@2@V?$allocator@U?$pair@$$CBKV?$vector@HV?$allocator@H@std@@@std@@@std@@@2@@2@@std@@PAX@std@@@std@@@std@@QAE@XZ ; std::_Alloc_construct_ptr<std::allocator<std::_Tree_node<std::pair<std::basic_string<char,std::char_traits<char>,std::allocator<char> > const ,std::map<unsigned long,std::vector<int,std::allocator<int> >,std::less<unsigned long>,std::allocator<std::pair<unsigned long const ,std::vector<int,std::allocator<int> > > > > >,void *> > >::~_Alloc_construct_ptr<std::allocator<std::_Tree_node<std::pair<std::basic_string<char,std::char_traits<char>,std::allocator<char> > const ,std::map<unsigned long,std::vector<int,std::allocator<int> >,std::less<unsigned long>,std::allocator<std::pair<unsigned long const ,std::vector<int,std::allocator<int> > > > > >,void *> > >
PUBLIC	??$addressof@$$CBV?$_Tree_val@U?$_Tree_simple_types@U?$pair@$$CBKPAUSMobTable@CPythonNonPlayer@@@std@@@std@@@std@@@std@@YAPBV?$_Tree_val@U?$_Tree_simple_types@U?$pair@$$CBKPAUSMobTable@CPythonNonPlayer@@@std@@@std@@@0@ABV10@@Z ; std::addressof<std::_Tree_val<std::_Tree_simple_types<std::pair<unsigned long const ,CPythonNonPlayer::SMobTable *> > > const >
PUBLIC	??$_Buyheadnode@V?$allocator@U?$_Tree_node@U?$pair@$$CBKPAUSMobScaleTable@CPythonNonPlayer@@@std@@PAX@std@@@std@@@?$_Tree_node@U?$pair@$$CBKPAUSMobScaleTable@CPythonNonPlayer@@@std@@PAX@std@@SAPAU01@AAV?$allocator@U?$_Tree_node@U?$pair@$$CBKPAUSMobScaleTable@CPythonNonPlayer@@@std@@PAX@std@@@1@@Z ; std::_Tree_node<std::pair<unsigned long const ,CPythonNonPlayer::SMobScaleTable *>,void *>::_Buyheadnode<std::allocator<std::_Tree_node<std::pair<unsigned long const ,CPythonNonPlayer::SMobScaleTable *>,void *> > >
PUBLIC	??$addressof@$$CBV?$_Tree_val@U?$_Tree_simple_types@U?$pair@$$CBKPAUSMobScaleTable@CPythonNonPlayer@@@std@@@std@@@std@@@std@@YAPBV?$_Tree_val@U?$_Tree_simple_types@U?$pair@$$CBKPAUSMobScaleTable@CPythonNonPlayer@@@std@@@std@@@0@ABV10@@Z ; std::addressof<std::_Tree_val<std::_Tree_simple_types<std::pair<unsigned long const ,CPythonNonPlayer::SMobScaleTable *> > > const >
PUBLIC	??$_Buyheadnode@V?$allocator@U?$_Tree_node@U?$pair@$$CBV?$basic_string@DU?$char_traits@D@std@@V?$allocator@D@2@@std@@V?$map@KV?$vector@HV?$allocator@H@std@@@std@@U?$less@K@2@V?$allocator@U?$pair@$$CBKV?$vector@HV?$allocator@H@std@@@std@@@std@@@2@@2@@std@@PAX@std@@@std@@@?$_Tree_node@U?$pair@$$CBV?$basic_string@DU?$char_traits@D@std@@V?$allocator@D@2@@std@@V?$map@KV?$vector@HV?$allocator@H@std@@@std@@U?$less@K@2@V?$allocator@U?$pair@$$CBKV?$vector@HV?$allocator@H@std@@@std@@@std@@@2@@2@@std@@PAX@std@@SAPAU01@AAV?$allocator@U?$_Tree_node@U?$pair@$$CBV?$basic_string@DU?$char_traits@D@std@@V?$allocator@D@2@@std@@V?$map@KV?$vector@HV?$allocator@H@std@@@std@@U?$less@K@2@V?$allocator@U?$pair@$$CBKV?$vector@HV?$allocator@H@std@@@std@@@std@@@2@@2@@std@@PAX@std@@@1@@Z ; std::_Tree_node<std::pair<std::basic_string<char,std::char_traits<char>,std::allocator<char> > const ,std::map<unsigned long,std::vector<int,std::allocator<int> >,std::less<unsigned long>,std::allocator<std::pair<unsigned long const ,std::vector<int,std::allocator<int> > > > > >,void *>::_Buyheadnode<std::allocator<std::_Tree_node<std::pair<std::basic_string<char,std::char_traits<char>,std::allocator<char> > const ,std::map<unsigned long,std::vector<int,std::allocator<int> >,std::less<unsigned long>,std::allocator<std::pair<unsigned long const ,std::vector<int,std::allocator<int> > > > > >,void *> > >
PUBLIC	??$addressof@$$CBV?$_Tree_val@U?$_Tree_simple_types@U?$pair@$$CBV?$basic_string@DU?$char_traits@D@std@@V?$allocator@D@2@@std@@V?$map@KV?$vector@HV?$allocator@H@std@@@std@@U?$less@K@2@V?$allocator@U?$pair@$$CBKV?$vector@HV?$allocator@H@std@@@std@@@std@@@2@@2@@std@@@std@@@std@@@std@@YAPBV?$_Tree_val@U?$_Tree_simple_types@U?$pair@$$CBV?$basic_string@DU?$char_traits@D@std@@V?$allocator@D@2@@std@@V?$map@KV?$vector@HV?$allocator@H@std@@@std@@U?$less@K@2@V?$allocator@U?$pair@$$CBKV?$vector@HV?$allocator@H@std@@@std@@@std@@@2@@2@@std@@@std@@@0@ABV10@@Z ; std::addressof<std::_Tree_val<std::_Tree_simple_types<std::pair<std::basic_string<char,std::char_traits<char>,std::allocator<char> > const ,std::map<unsigned long,std::vector<int,std::allocator<int> >,std::less<unsigned long>,std::allocator<std::pair<unsigned long const ,std::vector<int,std::allocator<int> > > > > > > > const >
PUBLIC	??$_Buyheadnode@V?$allocator@U?$_Tree_node@U?$pair@$$CBKV?$vector@HV?$allocator@H@std@@@std@@@std@@PAX@std@@@std@@@?$_Tree_node@U?$pair@$$CBKV?$vector@HV?$allocator@H@std@@@std@@@std@@PAX@std@@SAPAU01@AAV?$allocator@U?$_Tree_node@U?$pair@$$CBKV?$vector@HV?$allocator@H@std@@@std@@@std@@PAX@std@@@1@@Z ; std::_Tree_node<std::pair<unsigned long const ,std::vector<int,std::allocator<int> > >,void *>::_Buyheadnode<std::allocator<std::_Tree_node<std::pair<unsigned long const ,std::vector<int,std::allocator<int> > >,void *> > >
PUBLIC	??$addressof@$$CBV?$_Tree_val@U?$_Tree_simple_types@U?$pair@$$CBKV?$vector@HV?$allocator@H@std@@@std@@@std@@@std@@@std@@@std@@YAPBV?$_Tree_val@U?$_Tree_simple_types@U?$pair@$$CBKV?$vector@HV?$allocator@H@std@@@std@@@std@@@std@@@0@ABV10@@Z ; std::addressof<std::_Tree_val<std::_Tree_simple_types<std::pair<unsigned long const ,std::vector<int,std::allocator<int> > > > > const >
PUBLIC	??$exchange@PAU?$_Tree_node@U?$pair@$$CBKPAUSMobTable@CPythonNonPlayer@@@std@@PAX@std@@$$T@std@@YAPAU?$_Tree_node@U?$pair@$$CBKPAUSMobTable@CPythonNonPlayer@@@std@@PAX@0@AAPAU10@$$QA$$T@Z ; std::exchange<std::_Tree_node<std::pair<unsigned long const ,CPythonNonPlayer::SMobTable *>,void *> *,std::nullptr_t>
PUBLIC	??$destroy@U?$pair@$$CBKPAUSMobScaleTable@CPythonNonPlayer@@@std@@@?$_Default_allocator_traits@V?$allocator@U?$_Tree_node@U?$pair@$$CBKPAUSMobScaleTable@CPythonNonPlayer@@@std@@PAX@std@@@std@@@std@@SAXAAV?$allocator@U?$_Tree_node@U?$pair@$$CBKPAUSMobScaleTable@CPythonNonPlayer@@@std@@PAX@std@@@1@QAU?$pair@$$CBKPAUSMobScaleTable@CPythonNonPlayer@@@1@@Z ; std::_Default_allocator_traits<std::allocator<std::_Tree_node<std::pair<unsigned long const ,CPythonNonPlayer::SMobScaleTable *>,void *> > >::destroy<std::pair<unsigned long const ,CPythonNonPlayer::SMobScaleTable *> >
PUBLIC	??$exchange@PAU?$_Tree_node@U?$pair@$$CBKPAUSMobScaleTable@CPythonNonPlayer@@@std@@PAX@std@@$$T@std@@YAPAU?$_Tree_node@U?$pair@$$CBKPAUSMobScaleTable@CPythonNonPlayer@@@std@@PAX@0@AAPAU10@$$QA$$T@Z ; std::exchange<std::_Tree_node<std::pair<unsigned long const ,CPythonNonPlayer::SMobScaleTable *>,void *> *,std::nullptr_t>
PUBLIC	??$destroy@U?$pair@$$CBKV?$vector@HV?$allocator@H@std@@@std@@@std@@@?$_Default_allocator_traits@V?$allocator@U?$_Tree_node@U?$pair@$$CBKV?$vector@HV?$allocator@H@std@@@std@@@std@@PAX@std@@@std@@@std@@SAXAAV?$allocator@U?$_Tree_node@U?$pair@$$CBKV?$vector@HV?$allocator@H@std@@@std@@@std@@PAX@std@@@1@QAU?$pair@$$CBKV?$vector@HV?$allocator@H@std@@@std@@@1@@Z ; std::_Default_allocator_traits<std::allocator<std::_Tree_node<std::pair<unsigned long const ,std::vector<int,std::allocator<int> > >,void *> > >::destroy<std::pair<unsigned long const ,std::vector<int,std::allocator<int> > > >
PUBLIC	??$exchange@PAU?$_Tree_node@U?$pair@$$CBKV?$vector@HV?$allocator@H@std@@@std@@@std@@PAX@std@@$$T@std@@YAPAU?$_Tree_node@U?$pair@$$CBKV?$vector@HV?$allocator@H@std@@@std@@@std@@PAX@0@AAPAU10@$$QA$$T@Z ; std::exchange<std::_Tree_node<std::pair<unsigned long const ,std::vector<int,std::allocator<int> > >,void *> *,std::nullptr_t>
PUBLIC	??$exchange@PAU?$_Tree_node@U?$pair@$$CBV?$basic_string@DU?$char_traits@D@std@@V?$allocator@D@2@@std@@V?$map@KV?$vector@HV?$allocator@H@std@@@std@@U?$less@K@2@V?$allocator@U?$pair@$$CBKV?$vector@HV?$allocator@H@std@@@std@@@std@@@2@@2@@std@@PAX@std@@$$T@std@@YAPAU?$_Tree_node@U?$pair@$$CBV?$basic_string@DU?$char_traits@D@std@@V?$allocator@D@2@@std@@V?$map@KV?$vector@HV?$allocator@H@std@@@std@@U?$less@K@2@V?$allocator@U?$pair@$$CBKV?$vector@HV?$allocator@H@std@@@std@@@std@@@2@@2@@std@@PAX@0@AAPAU10@$$QA$$T@Z ; std::exchange<std::_Tree_node<std::pair<std::basic_string<char,std::char_traits<char>,std::allocator<char> > const ,std::map<unsigned long,std::vector<int,std::allocator<int> >,std::less<unsigned long>,std::allocator<std::pair<unsigned long const ,std::vector<int,std::allocator<int> > > > > >,void *> *,std::nullptr_t>
PUBLIC	??$_Buyheadnode@V?$allocator@U?$_Tree_node@U?$pair@$$CBKPAUSMobTable@CPythonNonPlayer@@@std@@PAX@std@@@std@@@?$_Tree_node@U?$pair@$$CBKPAUSMobTable@CPythonNonPlayer@@@std@@PAX@std@@SAPAU01@AAV?$allocator@U?$_Tree_node@U?$pair@$$CBKPAUSMobTable@CPythonNonPlayer@@@std@@PAX@std@@@1@@Z ; std::_Tree_node<std::pair<unsigned long const ,CPythonNonPlayer::SMobTable *>,void *>::_Buyheadnode<std::allocator<std::_Tree_node<std::pair<unsigned long const ,CPythonNonPlayer::SMobTable *>,void *> > >
PUBLIC	??$_Destroy_in_place@PAU?$_Tree_node@U?$pair@$$CBKPAUSMobTable@CPythonNonPlayer@@@std@@PAX@std@@@std@@YAXAAPAU?$_Tree_node@U?$pair@$$CBKPAUSMobTable@CPythonNonPlayer@@@std@@PAX@0@@Z ; std::_Destroy_in_place<std::_Tree_node<std::pair<unsigned long const ,CPythonNonPlayer::SMobTable *>,void *> *>
PUBLIC	??$destroy@U?$pair@$$CBKPAUSMobTable@CPythonNonPlayer@@@std@@@?$_Default_allocator_traits@V?$allocator@U?$_Tree_node@U?$pair@$$CBKPAUSMobTable@CPythonNonPlayer@@@std@@PAX@std@@@std@@@std@@SAXAAV?$allocator@U?$_Tree_node@U?$pair@$$CBKPAUSMobTable@CPythonNonPlayer@@@std@@PAX@std@@@1@QAU?$pair@$$CBKPAUSMobTable@CPythonNonPlayer@@@1@@Z ; std::_Default_allocator_traits<std::allocator<std::_Tree_node<std::pair<unsigned long const ,CPythonNonPlayer::SMobTable *>,void *> > >::destroy<std::pair<unsigned long const ,CPythonNonPlayer::SMobTable *> >
PUBLIC	??$_Destroy_in_place@PAU?$_Tree_node@U?$pair@$$CBKPAUSMobScaleTable@CPythonNonPlayer@@@std@@PAX@std@@@std@@YAXAAPAU?$_Tree_node@U?$pair@$$CBKPAUSMobScaleTable@CPythonNonPlayer@@@std@@PAX@0@@Z ; std::_Destroy_in_place<std::_Tree_node<std::pair<unsigned long const ,CPythonNonPlayer::SMobScaleTable *>,void *> *>
PUBLIC	??$_Freenode@V?$allocator@U?$_Tree_node@U?$pair@$$CBKPAUSMobScaleTable@CPythonNonPlayer@@@std@@PAX@std@@@std@@@?$_Tree_node@U?$pair@$$CBKPAUSMobScaleTable@CPythonNonPlayer@@@std@@PAX@std@@SAXAAV?$allocator@U?$_Tree_node@U?$pair@$$CBKPAUSMobScaleTable@CPythonNonPlayer@@@std@@PAX@std@@@1@PAU01@@Z ; std::_Tree_node<std::pair<unsigned long const ,CPythonNonPlayer::SMobScaleTable *>,void *>::_Freenode<std::allocator<std::_Tree_node<std::pair<unsigned long const ,CPythonNonPlayer::SMobScaleTable *>,void *> > >
PUBLIC	??$exchange@PAU?$_Tree_node@U?$pair@$$CBKPAUSMobScaleTable@CPythonNonPlayer@@@std@@PAX@std@@AAPAU12@@std@@YAPAU?$_Tree_node@U?$pair@$$CBKPAUSMobScaleTable@CPythonNonPlayer@@@std@@PAX@0@AAPAU10@0@Z ; std::exchange<std::_Tree_node<std::pair<unsigned long const ,CPythonNonPlayer::SMobScaleTable *>,void *> *,std::_Tree_node<std::pair<unsigned long const ,CPythonNonPlayer::SMobScaleTable *>,void *> * &>
PUBLIC	??$_Emplace_back@$$V@?$_Uninitialized_backout_al@V?$allocator@H@std@@@std@@QAEXXZ ; std::_Uninitialized_backout_al<std::allocator<int> >::_Emplace_back<>
PUBLIC	??$_Zero_range@PAH@std@@YAPAHQAH0@Z		; std::_Zero_range<int *>
PUBLIC	??$_Destroy_in_place@PAU?$_Tree_node@U?$pair@$$CBV?$basic_string@DU?$char_traits@D@std@@V?$allocator@D@2@@std@@V?$map@KV?$vector@HV?$allocator@H@std@@@std@@U?$less@K@2@V?$allocator@U?$pair@$$CBKV?$vector@HV?$allocator@H@std@@@std@@@std@@@2@@2@@std@@PAX@std@@@std@@YAXAAPAU?$_Tree_node@U?$pair@$$CBV?$basic_string@DU?$char_traits@D@std@@V?$allocator@D@2@@std@@V?$map@KV?$vector@HV?$allocator@H@std@@@std@@U?$less@K@2@V?$allocator@U?$pair@$$CBKV?$vector@HV?$allocator@H@std@@@std@@@std@@@2@@2@@std@@PAX@0@@Z ; std::_Destroy_in_place<std::_Tree_node<std::pair<std::basic_string<char,std::char_traits<char>,std::allocator<char> > const ,std::map<unsigned long,std::vector<int,std::allocator<int> >,std::less<unsigned long>,std::allocator<std::pair<unsigned long const ,std::vector<int,std::allocator<int> > > > > >,void *> *>
PUBLIC	??$destroy@U?$pair@$$CBV?$basic_string@DU?$char_traits@D@std@@V?$allocator@D@2@@std@@V?$map@KV?$vector@HV?$allocator@H@std@@@std@@U?$less@K@2@V?$allocator@U?$pair@$$CBKV?$vector@HV?$allocator@H@std@@@std@@@std@@@2@@2@@std@@@?$_Default_allocator_traits@V?$allocator@U?$_Tree_node@U?$pair@$$CBV?$basic_string@DU?$char_traits@D@std@@V?$allocator@D@2@@std@@V?$map@KV?$vector@HV?$allocator@H@std@@@std@@U?$less@K@2@V?$allocator@U?$pair@$$CBKV?$vector@HV?$allocator@H@std@@@std@@@std@@@2@@2@@std@@PAX@std@@@std@@@std@@SAXAAV?$allocator@U?$_Tree_node@U?$pair@$$CBV?$basic_string@DU?$char_traits@D@std@@V?$allocator@D@2@@std@@V?$map@KV?$vector@HV?$allocator@H@std@@@std@@U?$less@K@2@V?$allocator@U?$pair@$$CBKV?$vector@HV?$allocator@H@std@@@std@@@std@@@2@@2@@std@@PAX@std@@@1@QAU?$pair@$$CBV?$basic_string@DU?$char_traits@D@std@@V?$allocator@D@2@@std@@V?$map@KV?$vector@HV?$allocator@H@std@@@std@@U?$less@K@2@V?$allocator@U?$pair@$$CBKV?$vector@HV?$allocator@H@std@@@std@@@std@@@2@@2@@1@@Z ; std::_Default_allocator_traits<std::allocator<std::_Tree_node<std::pair<std::basic_string<char,std::char_traits<char>,std::allocator<char> > const ,std::map<unsigned long,std::vector<int,std::allocator<int> >,std::less<unsigned long>,std::allocator<std::pair<unsigned long const ,std::vector<int,std::allocator<int> > > > > >,void *> > >::destroy<std::pair<std::basic_string<char,std::char_traits<char>,std::allocator<char> > const ,std::map<unsigned long,std::vector<int,std::allocator<int> >,std::less<unsigned long>,std::allocator<std::pair<unsigned long const ,std::vector<int,std::allocator<int> > > > > > >
PUBLIC	??$_Destroy_in_place@PAU?$_Tree_node@U?$pair@$$CBKV?$vector@HV?$allocator@H@std@@@std@@@std@@PAX@std@@@std@@YAXAAPAU?$_Tree_node@U?$pair@$$CBKV?$vector@HV?$allocator@H@std@@@std@@@std@@PAX@0@@Z ; std::_Destroy_in_place<std::_Tree_node<std::pair<unsigned long const ,std::vector<int,std::allocator<int> > >,void *> *>
PUBLIC	??$_Freenode@V?$allocator@U?$_Tree_node@U?$pair@$$CBKV?$vector@HV?$allocator@H@std@@@std@@@std@@PAX@std@@@std@@@?$_Tree_node@U?$pair@$$CBKV?$vector@HV?$allocator@H@std@@@std@@@std@@PAX@std@@SAXAAV?$allocator@U?$_Tree_node@U?$pair@$$CBKV?$vector@HV?$allocator@H@std@@@std@@@std@@PAX@std@@@1@PAU01@@Z ; std::_Tree_node<std::pair<unsigned long const ,std::vector<int,std::allocator<int> > >,void *>::_Freenode<std::allocator<std::_Tree_node<std::pair<unsigned long const ,std::vector<int,std::allocator<int> > >,void *> > >
PUBLIC	??$exchange@PAU?$_Tree_node@U?$pair@$$CBKV?$vector@HV?$allocator@H@std@@@std@@@std@@PAX@std@@AAPAU12@@std@@YAPAU?$_Tree_node@U?$pair@$$CBKV?$vector@HV?$allocator@H@std@@@std@@@std@@PAX@0@AAPAU10@0@Z ; std::exchange<std::_Tree_node<std::pair<unsigned long const ,std::vector<int,std::allocator<int> > >,void *> *,std::_Tree_node<std::pair<unsigned long const ,std::vector<int,std::allocator<int> > >,void *> * &>
PUBLIC	??$forward@PAU?$_Tree_node@U?$pair@$$CBV?$basic_string@DU?$char_traits@D@std@@V?$allocator@D@2@@std@@V?$map@KV?$vector@HV?$allocator@H@std@@@std@@U?$less@K@2@V?$allocator@U?$pair@$$CBKV?$vector@HV?$allocator@H@std@@@std@@@std@@@2@@2@@std@@PAX@std@@@std@@YA$$QAPAU?$_Tree_node@U?$pair@$$CBV?$basic_string@DU?$char_traits@D@std@@V?$allocator@D@2@@std@@V?$map@KV?$vector@HV?$allocator@H@std@@@std@@U?$less@K@2@V?$allocator@U?$pair@$$CBKV?$vector@HV?$allocator@H@std@@@std@@@std@@@2@@2@@std@@PAX@0@AAPAU10@@Z ; std::forward<std::_Tree_node<std::pair<std::basic_string<char,std::char_traits<char>,std::allocator<char> > const ,std::map<unsigned long,std::vector<int,std::allocator<int> >,std::less<unsigned long>,std::allocator<std::pair<unsigned long const ,std::vector<int,std::allocator<int> > > > > >,void *> *>
PUBLIC	??$forward@AAPAU?$_Tree_node@U?$pair@$$CBV?$basic_string@DU?$char_traits@D@std@@V?$allocator@D@2@@std@@V?$map@KV?$vector@HV?$allocator@H@std@@@std@@U?$less@K@2@V?$allocator@U?$pair@$$CBKV?$vector@HV?$allocator@H@std@@@std@@@std@@@2@@2@@std@@PAX@std@@@std@@YAAAPAU?$_Tree_node@U?$pair@$$CBV?$basic_string@DU?$char_traits@D@std@@V?$allocator@D@2@@std@@V?$map@KV?$vector@HV?$allocator@H@std@@@std@@U?$less@K@2@V?$allocator@U?$pair@$$CBKV?$vector@HV?$allocator@H@std@@@std@@@std@@@2@@2@@std@@PAX@0@AAPAU10@@Z ; std::forward<std::_Tree_node<std::pair<std::basic_string<char,std::char_traits<char>,std::allocator<char> > const ,std::map<unsigned long,std::vector<int,std::allocator<int> >,std::less<unsigned long>,std::allocator<std::pair<unsigned long const ,std::vector<int,std::allocator<int> > > > > >,void *> * &>
PUBLIC	??$_Construct_in_place@PAU?$_Tree_node@U?$pair@$$CBV?$basic_string@DU?$char_traits@D@std@@V?$allocator@D@2@@std@@V?$map@KV?$vector@HV?$allocator@H@std@@@std@@U?$less@K@2@V?$allocator@U?$pair@$$CBKV?$vector@HV?$allocator@H@std@@@std@@@std@@@2@@2@@std@@PAX@std@@AAPAU12@@std@@YAXAAPAU?$_Tree_node@U?$pair@$$CBV?$basic_string@DU?$char_traits@D@std@@V?$allocator@D@2@@std@@V?$map@KV?$vector@HV?$allocator@H@std@@@std@@U?$less@K@2@V?$allocator@U?$pair@$$CBKV?$vector@HV?$allocator@H@std@@@std@@@std@@@2@@2@@std@@PAX@0@0@Z ; std::_Construct_in_place<std::_Tree_node<std::pair<std::basic_string<char,std::char_traits<char>,std::allocator<char> > const ,std::map<unsigned long,std::vector<int,std::allocator<int> >,std::less<unsigned long>,std::allocator<std::pair<unsigned long const ,std::vector<int,std::allocator<int> > > > > >,void *> *,std::_Tree_node<std::pair<std::basic_string<char,std::char_traits<char>,std::allocator<char> > const ,std::map<unsigned long,std::vector<int,std::allocator<int> >,std::less<unsigned long>,std::allocator<std::pair<unsigned long const ,std::vector<int,std::allocator<int> > > > > >,void *> * &>
PUBLIC	??$construct@U?$pair@$$CBV?$basic_string@DU?$char_traits@D@std@@V?$allocator@D@2@@std@@V?$map@KV?$vector@HV?$allocator@H@std@@@std@@U?$less@K@2@V?$allocator@U?$pair@$$CBKV?$vector@HV?$allocator@H@std@@@std@@@std@@@2@@2@@std@@PBDAAV?$map@KV?$vector@HV?$allocator@H@std@@@std@@U?$less@K@2@V?$allocator@U?$pair@$$CBKV?$vector@HV?$allocator@H@std@@@std@@@std@@@2@@2@@?$_Default_allocator_traits@V?$allocator@U?$_Tree_node@U?$pair@$$CBV?$basic_string@DU?$char_traits@D@std@@V?$allocator@D@2@@std@@V?$map@KV?$vector@HV?$allocator@H@std@@@std@@U?$less@K@2@V?$allocator@U?$pair@$$CBKV?$vector@HV?$allocator@H@std@@@std@@@std@@@2@@2@@std@@PAX@std@@@std@@@std@@SAXAAV?$allocator@U?$_Tree_node@U?$pair@$$CBV?$basic_string@DU?$char_traits@D@std@@V?$allocator@D@2@@std@@V?$map@KV?$vector@HV?$allocator@H@std@@@std@@U?$less@K@2@V?$allocator@U?$pair@$$CBKV?$vector@HV?$allocator@H@std@@@std@@@std@@@2@@2@@std@@PAX@std@@@1@QAU?$pair@$$CBV?$basic_string@DU?$char_traits@D@std@@V?$allocator@D@2@@std@@V?$map@KV?$vector@HV?$allocator@H@std@@@std@@U?$less@K@2@V?$allocator@U?$pair@$$CBKV?$vector@HV?$allocator@H@std@@@std@@@std@@@2@@2@@1@$$QAPBDAAV?$map@KV?$vector@HV?$allocator@H@std@@@std@@U?$less@K@2@V?$allocator@U?$pair@$$CBKV?$vector@HV?$allocator@H@std@@@std@@@std@@@2@@1@@Z ; std::_Default_allocator_traits<std::allocator<std::_Tree_node<std::pair<std::basic_string<char,std::char_traits<char>,std::allocator<char> > const ,std::map<unsigned long,std::vector<int,std::allocator<int> >,std::less<unsigned long>,std::allocator<std::pair<unsigned long const ,std::vector<int,std::allocator<int> > > > > >,void *> > >::construct<std::pair<std::basic_string<char,std::char_traits<char>,std::allocator<char> > const ,std::map<unsigned long,std::vector<int,std::allocator<int> >,std::less<unsigned long>,std::allocator<std::pair<unsigned long const ,std::vector<int,std::allocator<int> > > > > >,char const *,std::map<unsigned long,std::vector<int,std::allocator<int> >,std::less<unsigned long>,std::allocator<std::pair<unsigned long const ,std::vector<int,std::allocator<int> > > > > &>
PUBLIC	??$forward@PAU?$_Tree_node@U?$pair@$$CBKV?$vector@HV?$allocator@H@std@@@std@@@std@@PAX@std@@@std@@YA$$QAPAU?$_Tree_node@U?$pair@$$CBKV?$vector@HV?$allocator@H@std@@@std@@@std@@PAX@0@AAPAU10@@Z ; std::forward<std::_Tree_node<std::pair<unsigned long const ,std::vector<int,std::allocator<int> > >,void *> *>
PUBLIC	??$forward@AAPAU?$_Tree_node@U?$pair@$$CBKV?$vector@HV?$allocator@H@std@@@std@@@std@@PAX@std@@@std@@YAAAPAU?$_Tree_node@U?$pair@$$CBKV?$vector@HV?$allocator@H@std@@@std@@@std@@PAX@0@AAPAU10@@Z ; std::forward<std::_Tree_node<std::pair<unsigned long const ,std::vector<int,std::allocator<int> > >,void *> * &>
PUBLIC	??$_Construct_in_place@PAU?$_Tree_node@U?$pair@$$CBKV?$vector@HV?$allocator@H@std@@@std@@@std@@PAX@std@@AAPAU12@@std@@YAXAAPAU?$_Tree_node@U?$pair@$$CBKV?$vector@HV?$allocator@H@std@@@std@@@std@@PAX@0@0@Z ; std::_Construct_in_place<std::_Tree_node<std::pair<unsigned long const ,std::vector<int,std::allocator<int> > >,void *> *,std::_Tree_node<std::pair<unsigned long const ,std::vector<int,std::allocator<int> > >,void *> * &>
PUBLIC	??$construct@U?$pair@$$CBKV?$vector@HV?$allocator@H@std@@@std@@@std@@ABKAAV?$vector@HV?$allocator@H@std@@@2@@?$_Default_allocator_traits@V?$allocator@U?$_Tree_node@U?$pair@$$CBKV?$vector@HV?$allocator@H@std@@@std@@@std@@PAX@std@@@std@@@std@@SAXAAV?$allocator@U?$_Tree_node@U?$pair@$$CBKV?$vector@HV?$allocator@H@std@@@std@@@std@@PAX@std@@@1@QAU?$pair@$$CBKV?$vector@HV?$allocator@H@std@@@std@@@1@ABKAAV?$vector@HV?$allocator@H@std@@@1@@Z ; std::_Default_allocator_traits<std::allocator<std::_Tree_node<std::pair<unsigned long const ,std::vector<int,std::allocator<int> > >,void *> > >::construct<std::pair<unsigned long const ,std::vector<int,std::allocator<int> > >,unsigned long const &,std::vector<int,std::allocator<int> > &>
PUBLIC	??$_Kfn@$$CBKV?$vector@HV?$allocator@H@std@@@std@@@?$_Tmap_traits@KV?$vector@HV?$allocator@H@std@@@std@@U?$less@K@2@V?$allocator@U?$pair@$$CBKV?$vector@HV?$allocator@H@std@@@std@@@std@@@2@$0A@@std@@SAABKABU?$pair@$$CBKV?$vector@HV?$allocator@H@std@@@std@@@1@@Z ; std::_Tmap_traits<unsigned long,std::vector<int,std::allocator<int> >,std::less<unsigned long>,std::allocator<std::pair<unsigned long const ,std::vector<int,std::allocator<int> > > >,0>::_Kfn<unsigned long const ,std::vector<int,std::allocator<int> > >
PUBLIC	??$forward@PAU?$_Tree_node@U?$pair@$$CBKPAUSMobScaleTable@CPythonNonPlayer@@@std@@PAX@std@@@std@@YA$$QAPAU?$_Tree_node@U?$pair@$$CBKPAUSMobScaleTable@CPythonNonPlayer@@@std@@PAX@0@AAPAU10@@Z ; std::forward<std::_Tree_node<std::pair<unsigned long const ,CPythonNonPlayer::SMobScaleTable *>,void *> *>
PUBLIC	??$forward@AAPAU?$_Tree_node@U?$pair@$$CBKPAUSMobScaleTable@CPythonNonPlayer@@@std@@PAX@std@@@std@@YAAAPAU?$_Tree_node@U?$pair@$$CBKPAUSMobScaleTable@CPythonNonPlayer@@@std@@PAX@0@AAPAU10@@Z ; std::forward<std::_Tree_node<std::pair<unsigned long const ,CPythonNonPlayer::SMobScaleTable *>,void *> * &>
PUBLIC	??$_Construct_in_place@PAU?$_Tree_node@U?$pair@$$CBKPAUSMobScaleTable@CPythonNonPlayer@@@std@@PAX@std@@AAPAU12@@std@@YAXAAPAU?$_Tree_node@U?$pair@$$CBKPAUSMobScaleTable@CPythonNonPlayer@@@std@@PAX@0@0@Z ; std::_Construct_in_place<std::_Tree_node<std::pair<unsigned long const ,CPythonNonPlayer::SMobScaleTable *>,void *> *,std::_Tree_node<std::pair<unsigned long const ,CPythonNonPlayer::SMobScaleTable *>,void *> * &>
PUBLIC	??$construct@U?$pair@$$CBKPAUSMobScaleTable@CPythonNonPlayer@@@std@@U12@@?$_Default_allocator_traits@V?$allocator@U?$_Tree_node@U?$pair@$$CBKPAUSMobScaleTable@CPythonNonPlayer@@@std@@PAX@std@@@std@@@std@@SAXAAV?$allocator@U?$_Tree_node@U?$pair@$$CBKPAUSMobScaleTable@CPythonNonPlayer@@@std@@PAX@std@@@1@QAU?$pair@$$CBKPAUSMobScaleTable@CPythonNonPlayer@@@1@$$QAU31@@Z ; std::_Default_allocator_traits<std::allocator<std::_Tree_node<std::pair<unsigned long const ,CPythonNonPlayer::SMobScaleTable *>,void *> > >::construct<std::pair<unsigned long const ,CPythonNonPlayer::SMobScaleTable *>,std::pair<unsigned long const ,CPythonNonPlayer::SMobScaleTable *> >
PUBLIC	??$_Kfn@$$CBKPAUSMobScaleTable@CPythonNonPlayer@@@?$_Tmap_traits@KPAUSMobScaleTable@CPythonNonPlayer@@U?$less@K@std@@V?$allocator@U?$pair@$$CBKPAUSMobScaleTable@CPythonNonPlayer@@@std@@@4@$0A@@std@@SAABKABU?$pair@$$CBKPAUSMobScaleTable@CPythonNonPlayer@@@1@@Z ; std::_Tmap_traits<unsigned long,CPythonNonPlayer::SMobScaleTable *,std::less<unsigned long>,std::allocator<std::pair<unsigned long const ,CPythonNonPlayer::SMobScaleTable *> >,0>::_Kfn<unsigned long const ,CPythonNonPlayer::SMobScaleTable *>
PUBLIC	??$forward@PAU?$_Tree_node@U?$pair@$$CBKPAUSMobTable@CPythonNonPlayer@@@std@@PAX@std@@@std@@YA$$QAPAU?$_Tree_node@U?$pair@$$CBKPAUSMobTable@CPythonNonPlayer@@@std@@PAX@0@AAPAU10@@Z ; std::forward<std::_Tree_node<std::pair<unsigned long const ,CPythonNonPlayer::SMobTable *>,void *> *>
PUBLIC	??$forward@AAPAU?$_Tree_node@U?$pair@$$CBKPAUSMobTable@CPythonNonPlayer@@@std@@PAX@std@@@std@@YAAAPAU?$_Tree_node@U?$pair@$$CBKPAUSMobTable@CPythonNonPlayer@@@std@@PAX@0@AAPAU10@@Z ; std::forward<std::_Tree_node<std::pair<unsigned long const ,CPythonNonPlayer::SMobTable *>,void *> * &>
PUBLIC	??$_Construct_in_place@PAU?$_Tree_node@U?$pair@$$CBKPAUSMobTable@CPythonNonPlayer@@@std@@PAX@std@@AAPAU12@@std@@YAXAAPAU?$_Tree_node@U?$pair@$$CBKPAUSMobTable@CPythonNonPlayer@@@std@@PAX@0@0@Z ; std::_Construct_in_place<std::_Tree_node<std::pair<unsigned long const ,CPythonNonPlayer::SMobTable *>,void *> *,std::_Tree_node<std::pair<unsigned long const ,CPythonNonPlayer::SMobTable *>,void *> * &>
PUBLIC	??$construct@U?$pair@$$CBKPAUSMobTable@CPythonNonPlayer@@@std@@U12@@?$_Default_allocator_traits@V?$allocator@U?$_Tree_node@U?$pair@$$CBKPAUSMobTable@CPythonNonPlayer@@@std@@PAX@std@@@std@@@std@@SAXAAV?$allocator@U?$_Tree_node@U?$pair@$$CBKPAUSMobTable@CPythonNonPlayer@@@std@@PAX@std@@@1@QAU?$pair@$$CBKPAUSMobTable@CPythonNonPlayer@@@1@$$QAU31@@Z ; std::_Default_allocator_traits<std::allocator<std::_Tree_node<std::pair<unsigned long const ,CPythonNonPlayer::SMobTable *>,void *> > >::construct<std::pair<unsigned long const ,CPythonNonPlayer::SMobTable *>,std::pair<unsigned long const ,CPythonNonPlayer::SMobTable *> >
PUBLIC	??$_Kfn@$$CBKPAUSMobTable@CPythonNonPlayer@@@?$_Tmap_traits@KPAUSMobTable@CPythonNonPlayer@@U?$less@K@std@@V?$allocator@U?$pair@$$CBKPAUSMobTable@CPythonNonPlayer@@@std@@@4@$0A@@std@@SAABKABU?$pair@$$CBKPAUSMobTable@CPythonNonPlayer@@@1@@Z ; std::_Tmap_traits<unsigned long,CPythonNonPlayer::SMobTable *,std::less<unsigned long>,std::allocator<std::pair<unsigned long const ,CPythonNonPlayer::SMobTable *> >,0>::_Kfn<unsigned long const ,CPythonNonPlayer::SMobTable *>
PUBLIC	??$?0$$V@?$_Compressed_pair@V?$allocator@U?$_Tree_node@U?$pair@$$CBKPAUSMobTable@CPythonNonPlayer@@@std@@PAX@std@@@std@@V?$_Tree_val@U?$_Tree_simple_types@U?$pair@$$CBKPAUSMobTable@CPythonNonPlayer@@@std@@@std@@@2@$00@std@@QAE@U_Zero_then_variadic_args_t@1@@Z ; std::_Compressed_pair<std::allocator<std::_Tree_node<std::pair<unsigned long const ,CPythonNonPlayer::SMobTable *>,void *> >,std::_Tree_val<std::_Tree_simple_types<std::pair<unsigned long const ,CPythonNonPlayer::SMobTable *> > >,1>::_Compressed_pair<std::allocator<std::_Tree_node<std::pair<unsigned long const ,CPythonNonPlayer::SMobTable *>,void *> >,std::_Tree_val<std::_Tree_simple_types<std::pair<unsigned long const ,CPythonNonPlayer::SMobTable *> > >,1><>
PUBLIC	??$?0$$V@?$_Compressed_pair@V?$allocator@U?$_Tree_node@U?$pair@$$CBKPAUSMobScaleTable@CPythonNonPlayer@@@std@@PAX@std@@@std@@V?$_Tree_val@U?$_Tree_simple_types@U?$pair@$$CBKPAUSMobScaleTable@CPythonNonPlayer@@@std@@@std@@@2@$00@std@@QAE@U_Zero_then_variadic_args_t@1@@Z ; std::_Compressed_pair<std::allocator<std::_Tree_node<std::pair<unsigned long const ,CPythonNonPlayer::SMobScaleTable *>,void *> >,std::_Tree_val<std::_Tree_simple_types<std::pair<unsigned long const ,CPythonNonPlayer::SMobScaleTable *> > >,1>::_Compressed_pair<std::allocator<std::_Tree_node<std::pair<unsigned long const ,CPythonNonPlayer::SMobScaleTable *>,void *> >,std::_Tree_val<std::_Tree_simple_types<std::pair<unsigned long const ,CPythonNonPlayer::SMobScaleTable *> > >,1><>
PUBLIC	??$?0$$V@?$_Compressed_pair@V?$allocator@U?$_Tree_node@U?$pair@$$CBV?$basic_string@DU?$char_traits@D@std@@V?$allocator@D@2@@std@@V?$map@KV?$vector@HV?$allocator@H@std@@@std@@U?$less@K@2@V?$allocator@U?$pair@$$CBKV?$vector@HV?$allocator@H@std@@@std@@@std@@@2@@2@@std@@PAX@std@@@std@@V?$_Tree_val@U?$_Tree_simple_types@U?$pair@$$CBV?$basic_string@DU?$char_traits@D@std@@V?$allocator@D@2@@std@@V?$map@KV?$vector@HV?$allocator@H@std@@@std@@U?$less@K@2@V?$allocator@U?$pair@$$CBKV?$vector@HV?$allocator@H@std@@@std@@@std@@@2@@2@@std@@@std@@@2@$00@std@@QAE@U_Zero_then_variadic_args_t@1@@Z ; std::_Compressed_pair<std::allocator<std::_Tree_node<std::pair<std::basic_string<char,std::char_traits<char>,std::allocator<char> > const ,std::map<unsigned long,std::vector<int,std::allocator<int> >,std::less<unsigned long>,std::allocator<std::pair<unsigned long const ,std::vector<int,std::allocator<int> > > > > >,void *> >,std::_Tree_val<std::_Tree_simple_types<std::pair<std::basic_string<char,std::char_traits<char>,std::allocator<char> > const ,std::map<unsigned long,std::vector<int,std::allocator<int> >,std::less<unsigned long>,std::allocator<std::pair<unsigned long const ,std::vector<int,std::allocator<int> > > > > > > >,1>::_Compressed_pair<std::allocator<std::_Tree_node<std::pair<std::basic_string<char,std::char_traits<char>,std::allocator<char> > const ,std::map<unsigned long,std::vector<int,std::allocator<int> >,std::less<unsigned long>,std::allocator<std::pair<unsigned long const ,std::vector<int,std::allocator<int> > > > > >,void *> >,std::_Tree_val<std::_Tree_simple_types<std::pair<std::basic_string<char,std::char_traits<char>,std::allocator<char> > const ,std::map<unsigned long,std::vector<int,std::allocator<int> >,std::less<unsigned long>,std::allocator<std::pair<unsigned long const ,std::vector<int,std::allocator<int> > > > > > > >,1><>
PUBLIC	??$?0$$V@?$_Compressed_pair@V?$allocator@U?$_Tree_node@U?$pair@$$CBKV?$vector@HV?$allocator@H@std@@@std@@@std@@PAX@std@@@std@@V?$_Tree_val@U?$_Tree_simple_types@U?$pair@$$CBKV?$vector@HV?$allocator@H@std@@@std@@@std@@@std@@@2@$00@std@@QAE@U_Zero_then_variadic_args_t@1@@Z ; std::_Compressed_pair<std::allocator<std::_Tree_node<std::pair<unsigned long const ,std::vector<int,std::allocator<int> > >,void *> >,std::_Tree_val<std::_Tree_simple_types<std::pair<unsigned long const ,std::vector<int,std::allocator<int> > > > >,1>::_Compressed_pair<std::allocator<std::_Tree_node<std::pair<unsigned long const ,std::vector<int,std::allocator<int> > >,void *> >,std::_Tree_val<std::_Tree_simple_types<std::pair<unsigned long const ,std::vector<int,std::allocator<int> > > > >,1><>
PUBLIC	??1?$_Tree_temp_node_alloc@V?$allocator@U?$_Tree_node@U?$pair@$$CBV?$basic_string@DU?$char_traits@D@std@@V?$allocator@D@2@@std@@V?$map@KV?$vector@HV?$allocator@H@std@@@std@@U?$less@K@2@V?$allocator@U?$pair@$$CBKV?$vector@HV?$allocator@H@std@@@std@@@std@@@2@@2@@std@@PAX@std@@@std@@@std@@QAE@XZ ; std::_Tree_temp_node_alloc<std::allocator<std::_Tree_node<std::pair<std::basic_string<char,std::char_traits<char>,std::allocator<char> > const ,std::map<unsigned long,std::vector<int,std::allocator<int> >,std::less<unsigned long>,std::allocator<std::pair<unsigned long const ,std::vector<int,std::allocator<int> > > > > >,void *> > >::~_Tree_temp_node_alloc<std::allocator<std::_Tree_node<std::pair<std::basic_string<char,std::char_traits<char>,std::allocator<char> > const ,std::map<unsigned long,std::vector<int,std::allocator<int> >,std::less<unsigned long>,std::allocator<std::pair<unsigned long const ,std::vector<int,std::allocator<int> > > > > >,void *> > >
PUBLIC	??1?$_Tree_temp_node_alloc@V?$allocator@U?$_Tree_node@U?$pair@$$CBKV?$vector@HV?$allocator@H@std@@@std@@@std@@PAX@std@@@std@@@std@@QAE@XZ ; std::_Tree_temp_node_alloc<std::allocator<std::_Tree_node<std::pair<unsigned long const ,std::vector<int,std::allocator<int> > >,void *> > >::~_Tree_temp_node_alloc<std::allocator<std::_Tree_node<std::pair<unsigned long const ,std::vector<int,std::allocator<int> > >,void *> > >
PUBLIC	??1?$_Tree_temp_node_alloc@V?$allocator@U?$_Tree_node@U?$pair@$$CBKPAUSMobScaleTable@CPythonNonPlayer@@@std@@PAX@std@@@std@@@std@@QAE@XZ ; std::_Tree_temp_node_alloc<std::allocator<std::_Tree_node<std::pair<unsigned long const ,CPythonNonPlayer::SMobScaleTable *>,void *> > >::~_Tree_temp_node_alloc<std::allocator<std::_Tree_node<std::pair<unsigned long const ,CPythonNonPlayer::SMobScaleTable *>,void *> > >
PUBLIC	??1?$_Tree_temp_node_alloc@V?$allocator@U?$_Tree_node@U?$pair@$$CBKPAUSMobTable@CPythonNonPlayer@@@std@@PAX@std@@@std@@@std@@QAE@XZ ; std::_Tree_temp_node_alloc<std::allocator<std::_Tree_node<std::pair<unsigned long const ,CPythonNonPlayer::SMobTable *>,void *> > >::~_Tree_temp_node_alloc<std::allocator<std::_Tree_node<std::pair<unsigned long const ,CPythonNonPlayer::SMobTable *>,void *> > >
PUBLIC	?_Check_grow_by_1@?$_Tree@V?$_Tmap_traits@KPAUSMobTable@CPythonNonPlayer@@U?$less@K@std@@V?$allocator@U?$pair@$$CBKPAUSMobTable@CPythonNonPlayer@@@std@@@4@$0A@@std@@@std@@IAEXXZ ; std::_Tree<std::_Tmap_traits<unsigned long,CPythonNonPlayer::SMobTable *,std::less<unsigned long>,std::allocator<std::pair<unsigned long const ,CPythonNonPlayer::SMobTable *> >,0> >::_Check_grow_by_1
PUBLIC	?_Alloc_sentinel_and_proxy@?$_Tree@V?$_Tmap_traits@KPAUSMobTable@CPythonNonPlayer@@U?$less@K@std@@V?$allocator@U?$pair@$$CBKPAUSMobTable@CPythonNonPlayer@@@std@@@4@$0A@@std@@@std@@IAEXXZ ; std::_Tree<std::_Tmap_traits<unsigned long,CPythonNonPlayer::SMobTable *,std::less<unsigned long>,std::allocator<std::pair<unsigned long const ,CPythonNonPlayer::SMobTable *> >,0> >::_Alloc_sentinel_and_proxy
PUBLIC	?_Get_scary@?$_Tree@V?$_Tmap_traits@KPAUSMobTable@CPythonNonPlayer@@U?$less@K@std@@V?$allocator@U?$pair@$$CBKPAUSMobTable@CPythonNonPlayer@@@std@@@4@$0A@@std@@@std@@IBEPBV?$_Tree_val@U?$_Tree_simple_types@U?$pair@$$CBKPAUSMobTable@CPythonNonPlayer@@@std@@@std@@@2@XZ ; std::_Tree<std::_Tmap_traits<unsigned long,CPythonNonPlayer::SMobTable *,std::less<unsigned long>,std::allocator<std::pair<unsigned long const ,CPythonNonPlayer::SMobTable *> >,0> >::_Get_scary
PUBLIC	?_Insert_node@?$_Tree_val@U?$_Tree_simple_types@U?$pair@$$CBKPAUSMobTable@CPythonNonPlayer@@@std@@@std@@@std@@QAEPAU?$_Tree_node@U?$pair@$$CBKPAUSMobTable@CPythonNonPlayer@@@std@@PAX@2@U?$_Tree_id@PAU?$_Tree_node@U?$pair@$$CBKPAUSMobTable@CPythonNonPlayer@@@std@@PAX@std@@@2@QAU32@@Z ; std::_Tree_val<std::_Tree_simple_types<std::pair<unsigned long const ,CPythonNonPlayer::SMobTable *> > >::_Insert_node
PUBLIC	??D?$_Tree_const_iterator@V?$_Tree_val@U?$_Tree_simple_types@U?$pair@$$CBKPAUSMobTable@CPythonNonPlayer@@@std@@@std@@@std@@@std@@QBEABU?$pair@$$CBKPAUSMobTable@CPythonNonPlayer@@@1@XZ ; std::_Tree_const_iterator<std::_Tree_val<std::_Tree_simple_types<std::pair<unsigned long const ,CPythonNonPlayer::SMobTable *> > > >::operator*
PUBLIC	??E?$_Tree_unchecked_const_iterator@V?$_Tree_val@U?$_Tree_simple_types@U?$pair@$$CBKPAUSMobTable@CPythonNonPlayer@@@std@@@std@@@std@@U_Iterator_base0@2@@std@@QAEAAV01@XZ ; std::_Tree_unchecked_const_iterator<std::_Tree_val<std::_Tree_simple_types<std::pair<unsigned long const ,CPythonNonPlayer::SMobTable *> > >,std::_Iterator_base0>::operator++
PUBLIC	?_Get_first@?$_Compressed_pair@V?$allocator@U?$_Tree_node@U?$pair@$$CBKPAUSMobTable@CPythonNonPlayer@@@std@@PAX@std@@@std@@V?$_Tree_val@U?$_Tree_simple_types@U?$pair@$$CBKPAUSMobTable@CPythonNonPlayer@@@std@@@std@@@2@$00@std@@QAEAAV?$allocator@U?$_Tree_node@U?$pair@$$CBKPAUSMobTable@CPythonNonPlayer@@@std@@PAX@std@@@2@XZ ; std::_Compressed_pair<std::allocator<std::_Tree_node<std::pair<unsigned long const ,CPythonNonPlayer::SMobTable *>,void *> >,std::_Tree_val<std::_Tree_simple_types<std::pair<unsigned long const ,CPythonNonPlayer::SMobTable *> > >,1>::_Get_first
PUBLIC	?_Get_first@?$_Compressed_pair@V?$allocator@U?$_Tree_node@U?$pair@$$CBKPAUSMobTable@CPythonNonPlayer@@@std@@PAX@std@@@std@@V?$_Tree_val@U?$_Tree_simple_types@U?$pair@$$CBKPAUSMobTable@CPythonNonPlayer@@@std@@@std@@@2@$00@std@@QBEABV?$allocator@U?$_Tree_node@U?$pair@$$CBKPAUSMobTable@CPythonNonPlayer@@@std@@PAX@std@@@2@XZ ; std::_Compressed_pair<std::allocator<std::_Tree_node<std::pair<unsigned long const ,CPythonNonPlayer::SMobTable *>,void *> >,std::_Tree_val<std::_Tree_simple_types<std::pair<unsigned long const ,CPythonNonPlayer::SMobTable *> > >,1>::_Get_first
PUBLIC	?_Check_grow_by_1@?$_Tree@V?$_Tmap_traits@KPAUSMobScaleTable@CPythonNonPlayer@@U?$less@K@std@@V?$allocator@U?$pair@$$CBKPAUSMobScaleTable@CPythonNonPlayer@@@std@@@4@$0A@@std@@@std@@IAEXXZ ; std::_Tree<std::_Tmap_traits<unsigned long,CPythonNonPlayer::SMobScaleTable *,std::less<unsigned long>,std::allocator<std::pair<unsigned long const ,CPythonNonPlayer::SMobScaleTable *> >,0> >::_Check_grow_by_1
PUBLIC	?_Alloc_sentinel_and_proxy@?$_Tree@V?$_Tmap_traits@KPAUSMobScaleTable@CPythonNonPlayer@@U?$less@K@std@@V?$allocator@U?$pair@$$CBKPAUSMobScaleTable@CPythonNonPlayer@@@std@@@4@$0A@@std@@@std@@IAEXXZ ; std::_Tree<std::_Tmap_traits<unsigned long,CPythonNonPlayer::SMobScaleTable *,std::less<unsigned long>,std::allocator<std::pair<unsigned long const ,CPythonNonPlayer::SMobScaleTable *> >,0> >::_Alloc_sentinel_and_proxy
PUBLIC	?_Get_scary@?$_Tree@V?$_Tmap_traits@KPAUSMobScaleTable@CPythonNonPlayer@@U?$less@K@std@@V?$allocator@U?$pair@$$CBKPAUSMobScaleTable@CPythonNonPlayer@@@std@@@4@$0A@@std@@@std@@IBEPBV?$_Tree_val@U?$_Tree_simple_types@U?$pair@$$CBKPAUSMobScaleTable@CPythonNonPlayer@@@std@@@std@@@2@XZ ; std::_Tree<std::_Tmap_traits<unsigned long,CPythonNonPlayer::SMobScaleTable *,std::less<unsigned long>,std::allocator<std::pair<unsigned long const ,CPythonNonPlayer::SMobScaleTable *> >,0> >::_Get_scary
PUBLIC	?_Insert_node@?$_Tree_val@U?$_Tree_simple_types@U?$pair@$$CBKPAUSMobScaleTable@CPythonNonPlayer@@@std@@@std@@@std@@QAEPAU?$_Tree_node@U?$pair@$$CBKPAUSMobScaleTable@CPythonNonPlayer@@@std@@PAX@2@U?$_Tree_id@PAU?$_Tree_node@U?$pair@$$CBKPAUSMobScaleTable@CPythonNonPlayer@@@std@@PAX@std@@@2@QAU32@@Z ; std::_Tree_val<std::_Tree_simple_types<std::pair<unsigned long const ,CPythonNonPlayer::SMobScaleTable *> > >::_Insert_node
PUBLIC	??D?$_Tree_const_iterator@V?$_Tree_val@U?$_Tree_simple_types@U?$pair@$$CBKPAUSMobScaleTable@CPythonNonPlayer@@@std@@@std@@@std@@@std@@QBEABU?$pair@$$CBKPAUSMobScaleTable@CPythonNonPlayer@@@1@XZ ; std::_Tree_const_iterator<std::_Tree_val<std::_Tree_simple_types<std::pair<unsigned long const ,CPythonNonPlayer::SMobScaleTable *> > > >::operator*
PUBLIC	?_Get_first@?$_Compressed_pair@V?$allocator@U?$_Tree_node@U?$pair@$$CBKPAUSMobScaleTable@CPythonNonPlayer@@@std@@PAX@std@@@std@@V?$_Tree_val@U?$_Tree_simple_types@U?$pair@$$CBKPAUSMobScaleTable@CPythonNonPlayer@@@std@@@std@@@2@$00@std@@QAEAAV?$allocator@U?$_Tree_node@U?$pair@$$CBKPAUSMobScaleTable@CPythonNonPlayer@@@std@@PAX@std@@@2@XZ ; std::_Compressed_pair<std::allocator<std::_Tree_node<std::pair<unsigned long const ,CPythonNonPlayer::SMobScaleTable *>,void *> >,std::_Tree_val<std::_Tree_simple_types<std::pair<unsigned long const ,CPythonNonPlayer::SMobScaleTable *> > >,1>::_Get_first
PUBLIC	?_Check_grow_by_1@?$_Tree@V?$_Tmap_traits@V?$basic_string@DU?$char_traits@D@std@@V?$allocator@D@2@@std@@V?$map@KV?$vector@HV?$allocator@H@std@@@std@@U?$less@K@2@V?$allocator@U?$pair@$$CBKV?$vector@HV?$allocator@H@std@@@std@@@std@@@2@@2@U?$less@V?$basic_string@DU?$char_traits@D@std@@V?$allocator@D@2@@std@@@2@V?$allocator@U?$pair@$$CBV?$basic_string@DU?$char_traits@D@std@@V?$allocator@D@2@@std@@V?$map@KV?$vector@HV?$allocator@H@std@@@std@@U?$less@K@2@V?$allocator@U?$pair@$$CBKV?$vector@HV?$allocator@H@std@@@std@@@std@@@2@@2@@std@@@2@$0A@@std@@@std@@IAEXXZ ; std::_Tree<std::_Tmap_traits<std::basic_string<char,std::char_traits<char>,std::allocator<char> >,std::map<unsigned long,std::vector<int,std::allocator<int> >,std::less<unsigned long>,std::allocator<std::pair<unsigned long const ,std::vector<int,std::allocator<int> > > > >,std::less<std::basic_string<char,std::char_traits<char>,std::allocator<char> > >,std::allocator<std::pair<std::basic_string<char,std::char_traits<char>,std::allocator<char> > const ,std::map<unsigned long,std::vector<int,std::allocator<int> >,std::less<unsigned long>,std::allocator<std::pair<unsigned long const ,std::vector<int,std::allocator<int> > > > > > >,0> >::_Check_grow_by_1
PUBLIC	?_Alloc_sentinel_and_proxy@?$_Tree@V?$_Tmap_traits@V?$basic_string@DU?$char_traits@D@std@@V?$allocator@D@2@@std@@V?$map@KV?$vector@HV?$allocator@H@std@@@std@@U?$less@K@2@V?$allocator@U?$pair@$$CBKV?$vector@HV?$allocator@H@std@@@std@@@std@@@2@@2@U?$less@V?$basic_string@DU?$char_traits@D@std@@V?$allocator@D@2@@std@@@2@V?$allocator@U?$pair@$$CBV?$basic_string@DU?$char_traits@D@std@@V?$allocator@D@2@@std@@V?$map@KV?$vector@HV?$allocator@H@std@@@std@@U?$less@K@2@V?$allocator@U?$pair@$$CBKV?$vector@HV?$allocator@H@std@@@std@@@std@@@2@@2@@std@@@2@$0A@@std@@@std@@IAEXXZ ; std::_Tree<std::_Tmap_traits<std::basic_string<char,std::char_traits<char>,std::allocator<char> >,std::map<unsigned long,std::vector<int,std::allocator<int> >,std::less<unsigned long>,std::allocator<std::pair<unsigned long const ,std::vector<int,std::allocator<int> > > > >,std::less<std::basic_string<char,std::char_traits<char>,std::allocator<char> > >,std::allocator<std::pair<std::basic_string<char,std::char_traits<char>,std::allocator<char> > const ,std::map<unsigned long,std::vector<int,std::allocator<int> >,std::less<unsigned long>,std::allocator<std::pair<unsigned long const ,std::vector<int,std::allocator<int> > > > > > >,0> >::_Alloc_sentinel_and_proxy
PUBLIC	?_Get_scary@?$_Tree@V?$_Tmap_traits@V?$basic_string@DU?$char_traits@D@std@@V?$allocator@D@2@@std@@V?$map@KV?$vector@HV?$allocator@H@std@@@std@@U?$less@K@2@V?$allocator@U?$pair@$$CBKV?$vector@HV?$allocator@H@std@@@std@@@std@@@2@@2@U?$less@V?$basic_string@DU?$char_traits@D@std@@V?$allocator@D@2@@std@@@2@V?$allocator@U?$pair@$$CBV?$basic_string@DU?$char_traits@D@std@@V?$allocator@D@2@@std@@V?$map@KV?$vector@HV?$allocator@H@std@@@std@@U?$less@K@2@V?$allocator@U?$pair@$$CBKV?$vector@HV?$allocator@H@std@@@std@@@std@@@2@@2@@std@@@2@$0A@@std@@@std@@IBEPBV?$_Tree_val@U?$_Tree_simple_types@U?$pair@$$CBV?$basic_string@DU?$char_traits@D@std@@V?$allocator@D@2@@std@@V?$map@KV?$vector@HV?$allocator@H@std@@@std@@U?$less@K@2@V?$allocator@U?$pair@$$CBKV?$vector@HV?$allocator@H@std@@@std@@@std@@@2@@2@@std@@@std@@@2@XZ ; std::_Tree<std::_Tmap_traits<std::basic_string<char,std::char_traits<char>,std::allocator<char> >,std::map<unsigned long,std::vector<int,std::allocator<int> >,std::less<unsigned long>,std::allocator<std::pair<unsigned long const ,std::vector<int,std::allocator<int> > > > >,std::less<std::basic_string<char,std::char_traits<char>,std::allocator<char> > >,std::allocator<std::pair<std::basic_string<char,std::char_traits<char>,std::allocator<char> > const ,std::map<unsigned long,std::vector<int,std::allocator<int> >,std::less<unsigned long>,std::allocator<std::pair<unsigned long const ,std::vector<int,std::allocator<int> > > > > > >,0> >::_Get_scary
PUBLIC	?_Insert_node@?$_Tree_val@U?$_Tree_simple_types@U?$pair@$$CBV?$basic_string@DU?$char_traits@D@std@@V?$allocator@D@2@@std@@V?$map@KV?$vector@HV?$allocator@H@std@@@std@@U?$less@K@2@V?$allocator@U?$pair@$$CBKV?$vector@HV?$allocator@H@std@@@std@@@std@@@2@@2@@std@@@std@@@std@@QAEPAU?$_Tree_node@U?$pair@$$CBV?$basic_string@DU?$char_traits@D@std@@V?$allocator@D@2@@std@@V?$map@KV?$vector@HV?$allocator@H@std@@@std@@U?$less@K@2@V?$allocator@U?$pair@$$CBKV?$vector@HV?$allocator@H@std@@@std@@@std@@@2@@2@@std@@PAX@2@U?$_Tree_id@PAU?$_Tree_node@U?$pair@$$CBV?$basic_string@DU?$char_traits@D@std@@V?$allocator@D@2@@std@@V?$map@KV?$vector@HV?$allocator@H@std@@@std@@U?$less@K@2@V?$allocator@U?$pair@$$CBKV?$vector@HV?$allocator@H@std@@@std@@@std@@@2@@2@@std@@PAX@std@@@2@QAU32@@Z ; std::_Tree_val<std::_Tree_simple_types<std::pair<std::basic_string<char,std::char_traits<char>,std::allocator<char> > const ,std::map<unsigned long,std::vector<int,std::allocator<int> >,std::less<unsigned long>,std::allocator<std::pair<unsigned long const ,std::vector<int,std::allocator<int> > > > > > > >::_Insert_node
PUBLIC	??D?$_Tree_const_iterator@V?$_Tree_val@U?$_Tree_simple_types@U?$pair@$$CBV?$basic_string@DU?$char_traits@D@std@@V?$allocator@D@2@@std@@V?$map@KV?$vector@HV?$allocator@H@std@@@std@@U?$less@K@2@V?$allocator@U?$pair@$$CBKV?$vector@HV?$allocator@H@std@@@std@@@std@@@2@@2@@std@@@std@@@std@@@std@@QBEABU?$pair@$$CBV?$basic_string@DU?$char_traits@D@std@@V?$allocator@D@2@@std@@V?$map@KV?$vector@HV?$allocator@H@std@@@std@@U?$less@K@2@V?$allocator@U?$pair@$$CBKV?$vector@HV?$allocator@H@std@@@std@@@std@@@2@@2@@1@XZ ; std::_Tree_const_iterator<std::_Tree_val<std::_Tree_simple_types<std::pair<std::basic_string<char,std::char_traits<char>,std::allocator<char> > const ,std::map<unsigned long,std::vector<int,std::allocator<int> >,std::less<unsigned long>,std::allocator<std::pair<unsigned long const ,std::vector<int,std::allocator<int> > > > > > > > >::operator*
PUBLIC	?_Get_first@?$_Compressed_pair@V?$allocator@U?$_Tree_node@U?$pair@$$CBV?$basic_string@DU?$char_traits@D@std@@V?$allocator@D@2@@std@@V?$map@KV?$vector@HV?$allocator@H@std@@@std@@U?$less@K@2@V?$allocator@U?$pair@$$CBKV?$vector@HV?$allocator@H@std@@@std@@@std@@@2@@2@@std@@PAX@std@@@std@@V?$_Tree_val@U?$_Tree_simple_types@U?$pair@$$CBV?$basic_string@DU?$char_traits@D@std@@V?$allocator@D@2@@std@@V?$map@KV?$vector@HV?$allocator@H@std@@@std@@U?$less@K@2@V?$allocator@U?$pair@$$CBKV?$vector@HV?$allocator@H@std@@@std@@@std@@@2@@2@@std@@@std@@@2@$00@std@@QAEAAV?$allocator@U?$_Tree_node@U?$pair@$$CBV?$basic_string@DU?$char_traits@D@std@@V?$allocator@D@2@@std@@V?$map@KV?$vector@HV?$allocator@H@std@@@std@@U?$less@K@2@V?$allocator@U?$pair@$$CBKV?$vector@HV?$allocator@H@std@@@std@@@std@@@2@@2@@std@@PAX@std@@@2@XZ ; std::_Compressed_pair<std::allocator<std::_Tree_node<std::pair<std::basic_string<char,std::char_traits<char>,std::allocator<char> > const ,std::map<unsigned long,std::vector<int,std::allocator<int> >,std::less<unsigned long>,std::allocator<std::pair<unsigned long const ,std::vector<int,std::allocator<int> > > > > >,void *> >,std::_Tree_val<std::_Tree_simple_types<std::pair<std::basic_string<char,std::char_traits<char>,std::allocator<char> > const ,std::map<unsigned long,std::vector<int,std::allocator<int> >,std::less<unsigned long>,std::allocator<std::pair<unsigned long const ,std::vector<int,std::allocator<int> > > > > > > >,1>::_Get_first
PUBLIC	?_Check_grow_by_1@?$_Tree@V?$_Tmap_traits@KV?$vector@HV?$allocator@H@std@@@std@@U?$less@K@2@V?$allocator@U?$pair@$$CBKV?$vector@HV?$allocator@H@std@@@std@@@std@@@2@$0A@@std@@@std@@IAEXXZ ; std::_Tree<std::_Tmap_traits<unsigned long,std::vector<int,std::allocator<int> >,std::less<unsigned long>,std::allocator<std::pair<unsigned long const ,std::vector<int,std::allocator<int> > > >,0> >::_Check_grow_by_1
PUBLIC	?_Alloc_sentinel_and_proxy@?$_Tree@V?$_Tmap_traits@KV?$vector@HV?$allocator@H@std@@@std@@U?$less@K@2@V?$allocator@U?$pair@$$CBKV?$vector@HV?$allocator@H@std@@@std@@@std@@@2@$0A@@std@@@std@@IAEXXZ ; std::_Tree<std::_Tmap_traits<unsigned long,std::vector<int,std::allocator<int> >,std::less<unsigned long>,std::allocator<std::pair<unsigned long const ,std::vector<int,std::allocator<int> > > >,0> >::_Alloc_sentinel_and_proxy
PUBLIC	?_Get_scary@?$_Tree@V?$_Tmap_traits@KV?$vector@HV?$allocator@H@std@@@std@@U?$less@K@2@V?$allocator@U?$pair@$$CBKV?$vector@HV?$allocator@H@std@@@std@@@std@@@2@$0A@@std@@@std@@IBEPBV?$_Tree_val@U?$_Tree_simple_types@U?$pair@$$CBKV?$vector@HV?$allocator@H@std@@@std@@@std@@@std@@@2@XZ ; std::_Tree<std::_Tmap_traits<unsigned long,std::vector<int,std::allocator<int> >,std::less<unsigned long>,std::allocator<std::pair<unsigned long const ,std::vector<int,std::allocator<int> > > >,0> >::_Get_scary
PUBLIC	?_Insert_node@?$_Tree_val@U?$_Tree_simple_types@U?$pair@$$CBKV?$vector@HV?$allocator@H@std@@@std@@@std@@@std@@@std@@QAEPAU?$_Tree_node@U?$pair@$$CBKV?$vector@HV?$allocator@H@std@@@std@@@std@@PAX@2@U?$_Tree_id@PAU?$_Tree_node@U?$pair@$$CBKV?$vector@HV?$allocator@H@std@@@std@@@std@@PAX@std@@@2@QAU32@@Z ; std::_Tree_val<std::_Tree_simple_types<std::pair<unsigned long const ,std::vector<int,std::allocator<int> > > > >::_Insert_node
PUBLIC	??D?$_Tree_const_iterator@V?$_Tree_val@U?$_Tree_simple_types@U?$pair@$$CBKV?$vector@HV?$allocator@H@std@@@std@@@std@@@std@@@std@@@std@@QBEABU?$pair@$$CBKV?$vector@HV?$allocator@H@std@@@std@@@1@XZ ; std::_Tree_const_iterator<std::_Tree_val<std::_Tree_simple_types<std::pair<unsigned long const ,std::vector<int,std::allocator<int> > > > > >::operator*
PUBLIC	?_Get_first@?$_Compressed_pair@V?$allocator@U?$_Tree_node@U?$pair@$$CBKV?$vector@HV?$allocator@H@std@@@std@@@std@@PAX@std@@@std@@V?$_Tree_val@U?$_Tree_simple_types@U?$pair@$$CBKV?$vector@HV?$allocator@H@std@@@std@@@std@@@std@@@2@$00@std@@QAEAAV?$allocator@U?$_Tree_node@U?$pair@$$CBKV?$vector@HV?$allocator@H@std@@@std@@@std@@PAX@std@@@2@XZ ; std::_Compressed_pair<std::allocator<std::_Tree_node<std::pair<unsigned long const ,std::vector<int,std::allocator<int> > >,void *> >,std::_Tree_val<std::_Tree_simple_types<std::pair<unsigned long const ,std::vector<int,std::allocator<int> > > > >,1>::_Get_first
PUBLIC	?_Extract@?$_In_place_key_extract_map_impl@KU?$pair@$$CBKPAUSMobTable@CPythonNonPlayer@@@std@@@std@@SAABKABU?$pair@$$CBKPAUSMobTable@CPythonNonPlayer@@@2@@Z ; std::_In_place_key_extract_map_impl<unsigned long,std::pair<unsigned long const ,CPythonNonPlayer::SMobTable *> >::_Extract
PUBLIC	??1?$_Tree_temp_node@V?$allocator@U?$_Tree_node@U?$pair@$$CBKPAUSMobTable@CPythonNonPlayer@@@std@@PAX@std@@@std@@@std@@QAE@XZ ; std::_Tree_temp_node<std::allocator<std::_Tree_node<std::pair<unsigned long const ,CPythonNonPlayer::SMobTable *>,void *> > >::~_Tree_temp_node<std::allocator<std::_Tree_node<std::pair<unsigned long const ,CPythonNonPlayer::SMobTable *>,void *> > >
PUBLIC	?_Release@?$_Alloc_construct_ptr@V?$allocator@U?$_Tree_node@U?$pair@$$CBKPAUSMobTable@CPythonNonPlayer@@@std@@PAX@std@@@std@@@std@@QAEPAU?$_Tree_node@U?$pair@$$CBKPAUSMobTable@CPythonNonPlayer@@@std@@PAX@2@XZ ; std::_Alloc_construct_ptr<std::allocator<std::_Tree_node<std::pair<unsigned long const ,CPythonNonPlayer::SMobTable *>,void *> > >::_Release
PUBLIC	?_Extract@?$_In_place_key_extract_map_impl@KU?$pair@$$CBKPAUSMobScaleTable@CPythonNonPlayer@@@std@@@std@@SAABKABU?$pair@$$CBKPAUSMobScaleTable@CPythonNonPlayer@@@2@@Z ; std::_In_place_key_extract_map_impl<unsigned long,std::pair<unsigned long const ,CPythonNonPlayer::SMobScaleTable *> >::_Extract
PUBLIC	??1?$_Tree_temp_node@V?$allocator@U?$_Tree_node@U?$pair@$$CBKPAUSMobScaleTable@CPythonNonPlayer@@@std@@PAX@std@@@std@@@std@@QAE@XZ ; std::_Tree_temp_node<std::allocator<std::_Tree_node<std::pair<unsigned long const ,CPythonNonPlayer::SMobScaleTable *>,void *> > >::~_Tree_temp_node<std::allocator<std::_Tree_node<std::pair<unsigned long const ,CPythonNonPlayer::SMobScaleTable *>,void *> > >
PUBLIC	?_Release@?$_Alloc_construct_ptr@V?$allocator@U?$_Tree_node@U?$pair@$$CBKPAUSMobScaleTable@CPythonNonPlayer@@@std@@PAX@std@@@std@@@std@@QAEPAU?$_Tree_node@U?$pair@$$CBKPAUSMobScaleTable@CPythonNonPlayer@@@std@@PAX@2@XZ ; std::_Alloc_construct_ptr<std::allocator<std::_Tree_node<std::pair<unsigned long const ,CPythonNonPlayer::SMobScaleTable *>,void *> > >::_Release
PUBLIC	?_Extract@?$_In_place_key_extract_map_impl@KKV?$vector@HV?$allocator@H@std@@@std@@@std@@SAABKABKABV?$vector@HV?$allocator@H@std@@@2@@Z ; std::_In_place_key_extract_map_impl<unsigned long,unsigned long,std::vector<int,std::allocator<int> > >::_Extract
PUBLIC	??1?$_Tree_temp_node@V?$allocator@U?$_Tree_node@U?$pair@$$CBKV?$vector@HV?$allocator@H@std@@@std@@@std@@PAX@std@@@std@@@std@@QAE@XZ ; std::_Tree_temp_node<std::allocator<std::_Tree_node<std::pair<unsigned long const ,std::vector<int,std::allocator<int> > >,void *> > >::~_Tree_temp_node<std::allocator<std::_Tree_node<std::pair<unsigned long const ,std::vector<int,std::allocator<int> > >,void *> > >
PUBLIC	?_Release@?$_Alloc_construct_ptr@V?$allocator@U?$_Tree_node@U?$pair@$$CBKV?$vector@HV?$allocator@H@std@@@std@@@std@@PAX@std@@@std@@@std@@QAEPAU?$_Tree_node@U?$pair@$$CBKV?$vector@HV?$allocator@H@std@@@std@@@std@@PAX@2@XZ ; std::_Alloc_construct_ptr<std::allocator<std::_Tree_node<std::pair<unsigned long const ,std::vector<int,std::allocator<int> > >,void *> > >::_Release
PUBLIC	??1?$_Tree_temp_node@V?$allocator@U?$_Tree_node@U?$pair@$$CBV?$basic_string@DU?$char_traits@D@std@@V?$allocator@D@2@@std@@V?$map@KV?$vector@HV?$allocator@H@std@@@std@@U?$less@K@2@V?$allocator@U?$pair@$$CBKV?$vector@HV?$allocator@H@std@@@std@@@std@@@2@@2@@std@@PAX@std@@@std@@@std@@QAE@XZ ; std::_Tree_temp_node<std::allocator<std::_Tree_node<std::pair<std::basic_string<char,std::char_traits<char>,std::allocator<char> > const ,std::map<unsigned long,std::vector<int,std::allocator<int> >,std::less<unsigned long>,std::allocator<std::pair<unsigned long const ,std::vector<int,std::allocator<int> > > > > >,void *> > >::~_Tree_temp_node<std::allocator<std::_Tree_node<std::pair<std::basic_string<char,std::char_traits<char>,std::allocator<char> > const ,std::map<unsigned long,std::vector<int,std::allocator<int> >,std::less<unsigned long>,std::allocator<std::pair<unsigned long const ,std::vector<int,std::allocator<int> > > > > >,void *> > >
PUBLIC	?_Release@?$_Alloc_construct_ptr@V?$allocator@U?$_Tree_node@U?$pair@$$CBV?$basic_string@DU?$char_traits@D@std@@V?$allocator@D@2@@std@@V?$map@KV?$vector@HV?$allocator@H@std@@@std@@U?$less@K@2@V?$allocator@U?$pair@$$CBKV?$vector@HV?$allocator@H@std@@@std@@@std@@@2@@2@@std@@PAX@std@@@std@@@std@@QAEPAU?$_Tree_node@U?$pair@$$CBV?$basic_string@DU?$char_traits@D@std@@V?$allocator@D@2@@std@@V?$map@KV?$vector@HV?$allocator@H@std@@@std@@U?$less@K@2@V?$allocator@U?$pair@$$CBKV?$vector@HV?$allocator@H@std@@@std@@@std@@@2@@2@@std@@PAX@2@XZ ; std::_Alloc_construct_ptr<std::allocator<std::_Tree_node<std::pair<std::basic_string<char,std::char_traits<char>,std::allocator<char> > const ,std::map<unsigned long,std::vector<int,std::allocator<int> >,std::less<unsigned long>,std::allocator<std::pair<unsigned long const ,std::vector<int,std::allocator<int> > > > > >,void *> > >::_Release
PUBLIC	??$?0ABU?$less@K@std@@U_Zero_then_variadic_args_t@1@@?$_Compressed_pair@U?$less@K@std@@V?$_Compressed_pair@V?$allocator@U?$_Tree_node@U?$pair@$$CBKPAUSMobTable@CPythonNonPlayer@@@std@@PAX@std@@@std@@V?$_Tree_val@U?$_Tree_simple_types@U?$pair@$$CBKPAUSMobTable@CPythonNonPlayer@@@std@@@std@@@2@$00@2@$00@std@@QAE@U_One_then_variadic_args_t@1@ABU?$less@K@1@$$QAU_Zero_then_variadic_args_t@1@@Z ; std::_Compressed_pair<std::less<unsigned long>,std::_Compressed_pair<std::allocator<std::_Tree_node<std::pair<unsigned long const ,CPythonNonPlayer::SMobTable *>,void *> >,std::_Tree_val<std::_Tree_simple_types<std::pair<unsigned long const ,CPythonNonPlayer::SMobTable *> > >,1>,1>::_Compressed_pair<std::less<unsigned long>,std::_Compressed_pair<std::allocator<std::_Tree_node<std::pair<unsigned long const ,CPythonNonPlayer::SMobTable *>,void *> >,std::_Tree_val<std::_Tree_simple_types<std::pair<unsigned long const ,CPythonNonPlayer::SMobTable *> > >,1>,1><std::less<unsigned long> const &,std::_Zero_then_variadic_args_t>
PUBLIC	??$addressof@V?$_Tree_val@U?$_Tree_simple_types@U?$pair@$$CBKPAUSMobTable@CPythonNonPlayer@@@std@@@std@@@std@@@std@@YAPAV?$_Tree_val@U?$_Tree_simple_types@U?$pair@$$CBKPAUSMobTable@CPythonNonPlayer@@@std@@@std@@@0@AAV10@@Z ; std::addressof<std::_Tree_val<std::_Tree_simple_types<std::pair<unsigned long const ,CPythonNonPlayer::SMobTable *> > > >
PUBLIC	??$?0ABU?$less@K@std@@U_Zero_then_variadic_args_t@1@@?$_Compressed_pair@U?$less@K@std@@V?$_Compressed_pair@V?$allocator@U?$_Tree_node@U?$pair@$$CBKPAUSMobScaleTable@CPythonNonPlayer@@@std@@PAX@std@@@std@@V?$_Tree_val@U?$_Tree_simple_types@U?$pair@$$CBKPAUSMobScaleTable@CPythonNonPlayer@@@std@@@std@@@2@$00@2@$00@std@@QAE@U_One_then_variadic_args_t@1@ABU?$less@K@1@$$QAU_Zero_then_variadic_args_t@1@@Z ; std::_Compressed_pair<std::less<unsigned long>,std::_Compressed_pair<std::allocator<std::_Tree_node<std::pair<unsigned long const ,CPythonNonPlayer::SMobScaleTable *>,void *> >,std::_Tree_val<std::_Tree_simple_types<std::pair<unsigned long const ,CPythonNonPlayer::SMobScaleTable *> > >,1>,1>::_Compressed_pair<std::less<unsigned long>,std::_Compressed_pair<std::allocator<std::_Tree_node<std::pair<unsigned long const ,CPythonNonPlayer::SMobScaleTable *>,void *> >,std::_Tree_val<std::_Tree_simple_types<std::pair<unsigned long const ,CPythonNonPlayer::SMobScaleTable *> > >,1>,1><std::less<unsigned long> const &,std::_Zero_then_variadic_args_t>
PUBLIC	??$addressof@V?$_Tree_val@U?$_Tree_simple_types@U?$pair@$$CBKPAUSMobScaleTable@CPythonNonPlayer@@@std@@@std@@@std@@@std@@YAPAV?$_Tree_val@U?$_Tree_simple_types@U?$pair@$$CBKPAUSMobScaleTable@CPythonNonPlayer@@@std@@@std@@@0@AAV10@@Z ; std::addressof<std::_Tree_val<std::_Tree_simple_types<std::pair<unsigned long const ,CPythonNonPlayer::SMobScaleTable *> > > >
PUBLIC	??$?0ABU?$less@V?$basic_string@DU?$char_traits@D@std@@V?$allocator@D@2@@std@@@std@@U_Zero_then_variadic_args_t@1@@?$_Compressed_pair@U?$less@V?$basic_string@DU?$char_traits@D@std@@V?$allocator@D@2@@std@@@std@@V?$_Compressed_pair@V?$allocator@U?$_Tree_node@U?$pair@$$CBV?$basic_string@DU?$char_traits@D@std@@V?$allocator@D@2@@std@@V?$map@KV?$vector@HV?$allocator@H@std@@@std@@U?$less@K@2@V?$allocator@U?$pair@$$CBKV?$vector@HV?$allocator@H@std@@@std@@@std@@@2@@2@@std@@PAX@std@@@std@@V?$_Tree_val@U?$_Tree_simple_types@U?$pair@$$CBV?$basic_string@DU?$char_traits@D@std@@V?$allocator@D@2@@std@@V?$map@KV?$vector@HV?$allocator@H@std@@@std@@U?$less@K@2@V?$allocator@U?$pair@$$CBKV?$vector@HV?$allocator@H@std@@@std@@@std@@@2@@2@@std@@@std@@@2@$00@2@$00@std@@QAE@U_One_then_variadic_args_t@1@ABU?$less@V?$basic_string@DU?$char_traits@D@std@@V?$allocator@D@2@@std@@@1@$$QAU_Zero_then_variadic_args_t@1@@Z ; std::_Compressed_pair<std::less<std::basic_string<char,std::char_traits<char>,std::allocator<char> > >,std::_Compressed_pair<std::allocator<std::_Tree_node<std::pair<std::basic_string<char,std::char_traits<char>,std::allocator<char> > const ,std::map<unsigned long,std::vector<int,std::allocator<int> >,std::less<unsigned long>,std::allocator<std::pair<unsigned long const ,std::vector<int,std::allocator<int> > > > > >,void *> >,std::_Tree_val<std::_Tree_simple_types<std::pair<std::basic_string<char,std::char_traits<char>,std::allocator<char> > const ,std::map<unsigned long,std::vector<int,std::allocator<int> >,std::less<unsigned long>,std::allocator<std::pair<unsigned long const ,std::vector<int,std::allocator<int> > > > > > > >,1>,1>::_Compressed_pair<std::less<std::basic_string<char,std::char_traits<char>,std::allocator<char> > >,std::_Compressed_pair<std::allocator<std::_Tree_node<std::pair<std::basic_string<char,std::char_traits<char>,std::allocator<char> > const ,std::map<unsigned long,std::vector<int,std::allocator<int> >,std::less<unsigned long>,std::allocator<std::pair<unsigned long const ,std::vector<int,std::allocator<int> > > > > >,void *> >,std::_Tree_val<std::_Tree_simple_types<std::pair<std::basic_string<char,std::char_traits<char>,std::allocator<char> > const ,std::map<unsigned long,std::vector<int,std::allocator<int> >,std::less<unsigned long>,std::allocator<std::pair<unsigned long const ,std::vector<int,std::allocator<int> > > > > > > >,1>,1><std::less<std::basic_string<char,std::char_traits<char>,std::allocator<char> > > const &,std::_Zero_then_variadic_args_t>
PUBLIC	??$addressof@V?$_Tree_val@U?$_Tree_simple_types@U?$pair@$$CBV?$basic_string@DU?$char_traits@D@std@@V?$allocator@D@2@@std@@V?$map@KV?$vector@HV?$allocator@H@std@@@std@@U?$less@K@2@V?$allocator@U?$pair@$$CBKV?$vector@HV?$allocator@H@std@@@std@@@std@@@2@@2@@std@@@std@@@std@@@std@@YAPAV?$_Tree_val@U?$_Tree_simple_types@U?$pair@$$CBV?$basic_string@DU?$char_traits@D@std@@V?$allocator@D@2@@std@@V?$map@KV?$vector@HV?$allocator@H@std@@@std@@U?$less@K@2@V?$allocator@U?$pair@$$CBKV?$vector@HV?$allocator@H@std@@@std@@@std@@@2@@2@@std@@@std@@@0@AAV10@@Z ; std::addressof<std::_Tree_val<std::_Tree_simple_types<std::pair<std::basic_string<char,std::char_traits<char>,std::allocator<char> > const ,std::map<unsigned long,std::vector<int,std::allocator<int> >,std::less<unsigned long>,std::allocator<std::pair<unsigned long const ,std::vector<int,std::allocator<int> > > > > > > > >
PUBLIC	??$?0ABU?$less@K@std@@U_Zero_then_variadic_args_t@1@@?$_Compressed_pair@U?$less@K@std@@V?$_Compressed_pair@V?$allocator@U?$_Tree_node@U?$pair@$$CBKV?$vector@HV?$allocator@H@std@@@std@@@std@@PAX@std@@@std@@V?$_Tree_val@U?$_Tree_simple_types@U?$pair@$$CBKV?$vector@HV?$allocator@H@std@@@std@@@std@@@std@@@2@$00@2@$00@std@@QAE@U_One_then_variadic_args_t@1@ABU?$less@K@1@$$QAU_Zero_then_variadic_args_t@1@@Z ; std::_Compressed_pair<std::less<unsigned long>,std::_Compressed_pair<std::allocator<std::_Tree_node<std::pair<unsigned long const ,std::vector<int,std::allocator<int> > >,void *> >,std::_Tree_val<std::_Tree_simple_types<std::pair<unsigned long const ,std::vector<int,std::allocator<int> > > > >,1>,1>::_Compressed_pair<std::less<unsigned long>,std::_Compressed_pair<std::allocator<std::_Tree_node<std::pair<unsigned long const ,std::vector<int,std::allocator<int> > >,void *> >,std::_Tree_val<std::_Tree_simple_types<std::pair<unsigned long const ,std::vector<int,std::allocator<int> > > > >,1>,1><std::less<unsigned long> const &,std::_Zero_then_variadic_args_t>
PUBLIC	??$addressof@V?$_Tree_val@U?$_Tree_simple_types@U?$pair@$$CBKV?$vector@HV?$allocator@H@std@@@std@@@std@@@std@@@std@@@std@@YAPAV?$_Tree_val@U?$_Tree_simple_types@U?$pair@$$CBKV?$vector@HV?$allocator@H@std@@@std@@@std@@@std@@@0@AAV10@@Z ; std::addressof<std::_Tree_val<std::_Tree_simple_types<std::pair<unsigned long const ,std::vector<int,std::allocator<int> > > > > >
PUBLIC	??$addressof@U?$pair@$$CBKV?$vector@HV?$allocator@H@std@@@std@@@std@@@std@@YAPAU?$pair@$$CBKV?$vector@HV?$allocator@H@std@@@std@@@0@AAU10@@Z ; std::addressof<std::pair<unsigned long const ,std::vector<int,std::allocator<int> > > >
PUBLIC	??$addressof@U?$pair@$$CBV?$basic_string@DU?$char_traits@D@std@@V?$allocator@D@2@@std@@V?$map@KV?$vector@HV?$allocator@H@std@@@std@@U?$less@K@2@V?$allocator@U?$pair@$$CBKV?$vector@HV?$allocator@H@std@@@std@@@std@@@2@@2@@std@@@std@@YAPAU?$pair@$$CBV?$basic_string@DU?$char_traits@D@std@@V?$allocator@D@2@@std@@V?$map@KV?$vector@HV?$allocator@H@std@@@std@@U?$less@K@2@V?$allocator@U?$pair@$$CBKV?$vector@HV?$allocator@H@std@@@std@@@std@@@2@@2@@0@AAU10@@Z ; std::addressof<std::pair<std::basic_string<char,std::char_traits<char>,std::allocator<char> > const ,std::map<unsigned long,std::vector<int,std::allocator<int> >,std::less<unsigned long>,std::allocator<std::pair<unsigned long const ,std::vector<int,std::allocator<int> > > > > > >
PUBLIC	??$addressof@U?$pair@$$CBKPAUSMobScaleTable@CPythonNonPlayer@@@std@@@std@@YAPAU?$pair@$$CBKPAUSMobScaleTable@CPythonNonPlayer@@@0@AAU10@@Z ; std::addressof<std::pair<unsigned long const ,CPythonNonPlayer::SMobScaleTable *> >
PUBLIC	??$addressof@U?$pair@$$CBKPAUSMobTable@CPythonNonPlayer@@@std@@@std@@YAPAU?$pair@$$CBKPAUSMobTable@CPythonNonPlayer@@@0@AAU10@@Z ; std::addressof<std::pair<unsigned long const ,CPythonNonPlayer::SMobTable *> >
PUBLIC	??$_Freenode0@V?$allocator@U?$_Tree_node@U?$pair@$$CBKPAUSMobTable@CPythonNonPlayer@@@std@@PAX@std@@@std@@@?$_Tree_node@U?$pair@$$CBKPAUSMobTable@CPythonNonPlayer@@@std@@PAX@std@@SAXAAV?$allocator@U?$_Tree_node@U?$pair@$$CBKPAUSMobTable@CPythonNonPlayer@@@std@@PAX@std@@@1@PAU01@@Z ; std::_Tree_node<std::pair<unsigned long const ,CPythonNonPlayer::SMobTable *>,void *>::_Freenode0<std::allocator<std::_Tree_node<std::pair<unsigned long const ,CPythonNonPlayer::SMobTable *>,void *> > >
PUBLIC	??$_Freenode@V?$allocator@U?$_Tree_node@U?$pair@$$CBKPAUSMobTable@CPythonNonPlayer@@@std@@PAX@std@@@std@@@?$_Tree_node@U?$pair@$$CBKPAUSMobTable@CPythonNonPlayer@@@std@@PAX@std@@SAXAAV?$allocator@U?$_Tree_node@U?$pair@$$CBKPAUSMobTable@CPythonNonPlayer@@@std@@PAX@std@@@1@PAU01@@Z ; std::_Tree_node<std::pair<unsigned long const ,CPythonNonPlayer::SMobTable *>,void *>::_Freenode<std::allocator<std::_Tree_node<std::pair<unsigned long const ,CPythonNonPlayer::SMobTable *>,void *> > >
PUBLIC	??$exchange@PAU?$_Tree_node@U?$pair@$$CBKPAUSMobTable@CPythonNonPlayer@@@std@@PAX@std@@AAPAU12@@std@@YAPAU?$_Tree_node@U?$pair@$$CBKPAUSMobTable@CPythonNonPlayer@@@std@@PAX@0@AAPAU10@0@Z ; std::exchange<std::_Tree_node<std::pair<unsigned long const ,CPythonNonPlayer::SMobTable *>,void *> *,std::_Tree_node<std::pair<unsigned long const ,CPythonNonPlayer::SMobTable *>,void *> * &>
PUBLIC	??$_Freenode0@V?$allocator@U?$_Tree_node@U?$pair@$$CBKPAUSMobScaleTable@CPythonNonPlayer@@@std@@PAX@std@@@std@@@?$_Tree_node@U?$pair@$$CBKPAUSMobScaleTable@CPythonNonPlayer@@@std@@PAX@std@@SAXAAV?$allocator@U?$_Tree_node@U?$pair@$$CBKPAUSMobScaleTable@CPythonNonPlayer@@@std@@PAX@std@@@1@PAU01@@Z ; std::_Tree_node<std::pair<unsigned long const ,CPythonNonPlayer::SMobScaleTable *>,void *>::_Freenode0<std::allocator<std::_Tree_node<std::pair<unsigned long const ,CPythonNonPlayer::SMobScaleTable *>,void *> > >
PUBLIC	??$_Erase_tree@V?$allocator@U?$_Tree_node@U?$pair@$$CBKPAUSMobScaleTable@CPythonNonPlayer@@@std@@PAX@std@@@std@@@?$_Tree_val@U?$_Tree_simple_types@U?$pair@$$CBKPAUSMobScaleTable@CPythonNonPlayer@@@std@@@std@@@std@@QAEXAAV?$allocator@U?$_Tree_node@U?$pair@$$CBKPAUSMobScaleTable@CPythonNonPlayer@@@std@@PAX@std@@@1@PAU?$_Tree_node@U?$pair@$$CBKPAUSMobScaleTable@CPythonNonPlayer@@@std@@PAX@1@@Z ; std::_Tree_val<std::_Tree_simple_types<std::pair<unsigned long const ,CPythonNonPlayer::SMobScaleTable *> > >::_Erase_tree<std::allocator<std::_Tree_node<std::pair<unsigned long const ,CPythonNonPlayer::SMobScaleTable *>,void *> > >
PUBLIC	??$_Uninitialized_value_construct_n@V?$allocator@H@std@@@std@@YAPAHPAHIAAV?$allocator@H@0@@Z ; std::_Uninitialized_value_construct_n<std::allocator<int> >
PUBLIC	??$_Resize_reallocate@U_Value_init_tag@std@@@?$vector@HV?$allocator@H@std@@@std@@AAEXIABU_Value_init_tag@1@@Z ; std::vector<int,std::allocator<int> >::_Resize_reallocate<std::_Value_init_tag>
PUBLIC	??$_Freenode0@V?$allocator@U?$_Tree_node@U?$pair@$$CBV?$basic_string@DU?$char_traits@D@std@@V?$allocator@D@2@@std@@V?$map@KV?$vector@HV?$allocator@H@std@@@std@@U?$less@K@2@V?$allocator@U?$pair@$$CBKV?$vector@HV?$allocator@H@std@@@std@@@std@@@2@@2@@std@@PAX@std@@@std@@@?$_Tree_node@U?$pair@$$CBV?$basic_string@DU?$char_traits@D@std@@V?$allocator@D@2@@std@@V?$map@KV?$vector@HV?$allocator@H@std@@@std@@U?$less@K@2@V?$allocator@U?$pair@$$CBKV?$vector@HV?$allocator@H@std@@@std@@@std@@@2@@2@@std@@PAX@std@@SAXAAV?$allocator@U?$_Tree_node@U?$pair@$$CBV?$basic_string@DU?$char_traits@D@std@@V?$allocator@D@2@@std@@V?$map@KV?$vector@HV?$allocator@H@std@@@std@@U?$less@K@2@V?$allocator@U?$pair@$$CBKV?$vector@HV?$allocator@H@std@@@std@@@std@@@2@@2@@std@@PAX@std@@@1@PAU01@@Z ; std::_Tree_node<std::pair<std::basic_string<char,std::char_traits<char>,std::allocator<char> > const ,std::map<unsigned long,std::vector<int,std::allocator<int> >,std::less<unsigned long>,std::allocator<std::pair<unsigned long const ,std::vector<int,std::allocator<int> > > > > >,void *>::_Freenode0<std::allocator<std::_Tree_node<std::pair<std::basic_string<char,std::char_traits<char>,std::allocator<char> > const ,std::map<unsigned long,std::vector<int,std::allocator<int> >,std::less<unsigned long>,std::allocator<std::pair<unsigned long const ,std::vector<int,std::allocator<int> > > > > >,void *> > >
PUBLIC	??$_Freenode@V?$allocator@U?$_Tree_node@U?$pair@$$CBV?$basic_string@DU?$char_traits@D@std@@V?$allocator@D@2@@std@@V?$map@KV?$vector@HV?$allocator@H@std@@@std@@U?$less@K@2@V?$allocator@U?$pair@$$CBKV?$vector@HV?$allocator@H@std@@@std@@@std@@@2@@2@@std@@PAX@std@@@std@@@?$_Tree_node@U?$pair@$$CBV?$basic_string@DU?$char_traits@D@std@@V?$allocator@D@2@@std@@V?$map@KV?$vector@HV?$allocator@H@std@@@std@@U?$less@K@2@V?$allocator@U?$pair@$$CBKV?$vector@HV?$allocator@H@std@@@std@@@std@@@2@@2@@std@@PAX@std@@SAXAAV?$allocator@U?$_Tree_node@U?$pair@$$CBV?$basic_string@DU?$char_traits@D@std@@V?$allocator@D@2@@std@@V?$map@KV?$vector@HV?$allocator@H@std@@@std@@U?$less@K@2@V?$allocator@U?$pair@$$CBKV?$vector@HV?$allocator@H@std@@@std@@@std@@@2@@2@@std@@PAX@std@@@1@PAU01@@Z ; std::_Tree_node<std::pair<std::basic_string<char,std::char_traits<char>,std::allocator<char> > const ,std::map<unsigned long,std::vector<int,std::allocator<int> >,std::less<unsigned long>,std::allocator<std::pair<unsigned long const ,std::vector<int,std::allocator<int> > > > > >,void *>::_Freenode<std::allocator<std::_Tree_node<std::pair<std::basic_string<char,std::char_traits<char>,std::allocator<char> > const ,std::map<unsigned long,std::vector<int,std::allocator<int> >,std::less<unsigned long>,std::allocator<std::pair<unsigned long const ,std::vector<int,std::allocator<int> > > > > >,void *> > >
PUBLIC	??$exchange@PAU?$_Tree_node@U?$pair@$$CBV?$basic_string@DU?$char_traits@D@std@@V?$allocator@D@2@@std@@V?$map@KV?$vector@HV?$allocator@H@std@@@std@@U?$less@K@2@V?$allocator@U?$pair@$$CBKV?$vector@HV?$allocator@H@std@@@std@@@std@@@2@@2@@std@@PAX@std@@AAPAU12@@std@@YAPAU?$_Tree_node@U?$pair@$$CBV?$basic_string@DU?$char_traits@D@std@@V?$allocator@D@2@@std@@V?$map@KV?$vector@HV?$allocator@H@std@@@std@@U?$less@K@2@V?$allocator@U?$pair@$$CBKV?$vector@HV?$allocator@H@std@@@std@@@std@@@2@@2@@std@@PAX@0@AAPAU10@0@Z ; std::exchange<std::_Tree_node<std::pair<std::basic_string<char,std::char_traits<char>,std::allocator<char> > const ,std::map<unsigned long,std::vector<int,std::allocator<int> >,std::less<unsigned long>,std::allocator<std::pair<unsigned long const ,std::vector<int,std::allocator<int> > > > > >,void *> *,std::_Tree_node<std::pair<std::basic_string<char,std::char_traits<char>,std::allocator<char> > const ,std::map<unsigned long,std::vector<int,std::allocator<int> >,std::less<unsigned long>,std::allocator<std::pair<unsigned long const ,std::vector<int,std::allocator<int> > > > > >,void *> * &>
PUBLIC	??$_Freenode0@V?$allocator@U?$_Tree_node@U?$pair@$$CBKV?$vector@HV?$allocator@H@std@@@std@@@std@@PAX@std@@@std@@@?$_Tree_node@U?$pair@$$CBKV?$vector@HV?$allocator@H@std@@@std@@@std@@PAX@std@@SAXAAV?$allocator@U?$_Tree_node@U?$pair@$$CBKV?$vector@HV?$allocator@H@std@@@std@@@std@@PAX@std@@@1@PAU01@@Z ; std::_Tree_node<std::pair<unsigned long const ,std::vector<int,std::allocator<int> > >,void *>::_Freenode0<std::allocator<std::_Tree_node<std::pair<unsigned long const ,std::vector<int,std::allocator<int> > >,void *> > >
PUBLIC	??$_Erase_tree@V?$allocator@U?$_Tree_node@U?$pair@$$CBKV?$vector@HV?$allocator@H@std@@@std@@@std@@PAX@std@@@std@@@?$_Tree_val@U?$_Tree_simple_types@U?$pair@$$CBKV?$vector@HV?$allocator@H@std@@@std@@@std@@@std@@@std@@QAEXAAV?$allocator@U?$_Tree_node@U?$pair@$$CBKV?$vector@HV?$allocator@H@std@@@std@@@std@@PAX@std@@@1@PAU?$_Tree_node@U?$pair@$$CBKV?$vector@HV?$allocator@H@std@@@std@@@std@@PAX@1@@Z ; std::_Tree_val<std::_Tree_simple_types<std::pair<unsigned long const ,std::vector<int,std::allocator<int> > > > >::_Erase_tree<std::allocator<std::_Tree_node<std::pair<unsigned long const ,std::vector<int,std::allocator<int> > >,void *> > >
PUBLIC	??$forward@V?$_Tree_iterator@V?$_Tree_val@U?$_Tree_simple_types@U?$pair@$$CBV?$basic_string@DU?$char_traits@D@std@@V?$allocator@D@2@@std@@V?$map@KV?$vector@HV?$allocator@H@std@@@std@@U?$less@K@2@V?$allocator@U?$pair@$$CBKV?$vector@HV?$allocator@H@std@@@std@@@std@@@2@@2@@std@@@std@@@std@@@std@@@std@@YA$$QAV?$_Tree_iterator@V?$_Tree_val@U?$_Tree_simple_types@U?$pair@$$CBV?$basic_string@DU?$char_traits@D@std@@V?$allocator@D@2@@std@@V?$map@KV?$vector@HV?$allocator@H@std@@@std@@U?$less@K@2@V?$allocator@U?$pair@$$CBKV?$vector@HV?$allocator@H@std@@@std@@@std@@@2@@2@@std@@@std@@@std@@@0@AAV10@@Z ; std::forward<std::_Tree_iterator<std::_Tree_val<std::_Tree_simple_types<std::pair<std::basic_string<char,std::char_traits<char>,std::allocator<char> > const ,std::map<unsigned long,std::vector<int,std::allocator<int> >,std::less<unsigned long>,std::allocator<std::pair<unsigned long const ,std::vector<int,std::allocator<int> > > > > > > > > >
PUBLIC	??$?0PAU?$_Tree_node@U?$pair@$$CBV?$basic_string@DU?$char_traits@D@std@@V?$allocator@D@2@@std@@V?$map@KV?$vector@HV?$allocator@H@std@@@std@@U?$less@K@2@V?$allocator@U?$pair@$$CBKV?$vector@HV?$allocator@H@std@@@std@@@std@@@2@@2@@std@@PAX@std@@_N$0A@@?$pair@PAU?$_Tree_node@U?$pair@$$CBV?$basic_string@DU?$char_traits@D@std@@V?$allocator@D@2@@std@@V?$map@KV?$vector@HV?$allocator@H@std@@@std@@U?$less@K@2@V?$allocator@U?$pair@$$CBKV?$vector@HV?$allocator@H@std@@@std@@@std@@@2@@2@@std@@PAX@std@@_N@std@@QAE@$$QAPAU?$_Tree_node@U?$pair@$$CBV?$basic_string@DU?$char_traits@D@std@@V?$allocator@D@2@@std@@V?$map@KV?$vector@HV?$allocator@H@std@@@std@@U?$less@K@2@V?$allocator@U?$pair@$$CBKV?$vector@HV?$allocator@H@std@@@std@@@std@@@2@@2@@std@@PAX@1@$$QA_N@Z ; std::pair<std::_Tree_node<std::pair<std::basic_string<char,std::char_traits<char>,std::allocator<char> > const ,std::map<unsigned long,std::vector<int,std::allocator<int> >,std::less<unsigned long>,std::allocator<std::pair<unsigned long const ,std::vector<int,std::allocator<int> > > > > >,void *> *,bool>::pair<std::_Tree_node<std::pair<std::basic_string<char,std::char_traits<char>,std::allocator<char> > const ,std::map<unsigned long,std::vector<int,std::allocator<int> >,std::less<unsigned long>,std::allocator<std::pair<unsigned long const ,std::vector<int,std::allocator<int> > > > > >,void *> *,bool><std::_Tree_node<std::pair<std::basic_string<char,std::char_traits<char>,std::allocator<char> > const ,std::map<unsigned long,std::vector<int,std::allocator<int> >,std::less<unsigned long>,std::allocator<std::pair<unsigned long const ,std::vector<int,std::allocator<int> > > > > >,void *> *,bool,0>
PUBLIC	??$?0AAPAU?$_Tree_node@U?$pair@$$CBV?$basic_string@DU?$char_traits@D@std@@V?$allocator@D@2@@std@@V?$map@KV?$vector@HV?$allocator@H@std@@@std@@U?$less@K@2@V?$allocator@U?$pair@$$CBKV?$vector@HV?$allocator@H@std@@@std@@@std@@@2@@2@@std@@PAX@std@@_N$0A@@?$pair@PAU?$_Tree_node@U?$pair@$$CBV?$basic_string@DU?$char_traits@D@std@@V?$allocator@D@2@@std@@V?$map@KV?$vector@HV?$allocator@H@std@@@std@@U?$less@K@2@V?$allocator@U?$pair@$$CBKV?$vector@HV?$allocator@H@std@@@std@@@std@@@2@@2@@std@@PAX@std@@_N@std@@QAE@AAPAU?$_Tree_node@U?$pair@$$CBV?$basic_string@DU?$char_traits@D@std@@V?$allocator@D@2@@std@@V?$map@KV?$vector@HV?$allocator@H@std@@@std@@U?$less@K@2@V?$allocator@U?$pair@$$CBKV?$vector@HV?$allocator@H@std@@@std@@@std@@@2@@2@@std@@PAX@1@$$QA_N@Z ; std::pair<std::_Tree_node<std::pair<std::basic_string<char,std::char_traits<char>,std::allocator<char> > const ,std::map<unsigned long,std::vector<int,std::allocator<int> >,std::less<unsigned long>,std::allocator<std::pair<unsigned long const ,std::vector<int,std::allocator<int> > > > > >,void *> *,bool>::pair<std::_Tree_node<std::pair<std::basic_string<char,std::char_traits<char>,std::allocator<char> > const ,std::map<unsigned long,std::vector<int,std::allocator<int> >,std::less<unsigned long>,std::allocator<std::pair<unsigned long const ,std::vector<int,std::allocator<int> > > > > >,void *> *,bool><std::_Tree_node<std::pair<std::basic_string<char,std::char_traits<char>,std::allocator<char> > const ,std::map<unsigned long,std::vector<int,std::allocator<int> >,std::less<unsigned long>,std::allocator<std::pair<unsigned long const ,std::vector<int,std::allocator<int> > > > > >,void *> * &,bool,0>
PUBLIC	??$_Lower_bound_duplicate@V?$basic_string@DU?$char_traits@D@std@@V?$allocator@D@2@@std@@@?$_Tree@V?$_Tmap_traits@V?$basic_string@DU?$char_traits@D@std@@V?$allocator@D@2@@std@@V?$map@KV?$vector@HV?$allocator@H@std@@@std@@U?$less@K@2@V?$allocator@U?$pair@$$CBKV?$vector@HV?$allocator@H@std@@@std@@@std@@@2@@2@U?$less@V?$basic_string@DU?$char_traits@D@std@@V?$allocator@D@2@@std@@@2@V?$allocator@U?$pair@$$CBV?$basic_string@DU?$char_traits@D@std@@V?$allocator@D@2@@std@@V?$map@KV?$vector@HV?$allocator@H@std@@@std@@U?$less@K@2@V?$allocator@U?$pair@$$CBKV?$vector@HV?$allocator@H@std@@@std@@@std@@@2@@2@@std@@@2@$0A@@std@@@std@@IBE_NQAU?$_Tree_node@U?$pair@$$CBV?$basic_string@DU?$char_traits@D@std@@V?$allocator@D@2@@std@@V?$map@KV?$vector@HV?$allocator@H@std@@@std@@U?$less@K@2@V?$allocator@U?$pair@$$CBKV?$vector@HV?$allocator@H@std@@@std@@@std@@@2@@2@@std@@PAX@1@ABV?$basic_string@DU?$char_traits@D@std@@V?$allocator@D@2@@1@@Z ; std::_Tree<std::_Tmap_traits<std::basic_string<char,std::char_traits<char>,std::allocator<char> >,std::map<unsigned long,std::vector<int,std::allocator<int> >,std::less<unsigned long>,std::allocator<std::pair<unsigned long const ,std::vector<int,std::allocator<int> > > > >,std::less<std::basic_string<char,std::char_traits<char>,std::allocator<char> > >,std::allocator<std::pair<std::basic_string<char,std::char_traits<char>,std::allocator<char> > const ,std::map<unsigned long,std::vector<int,std::allocator<int> >,std::less<unsigned long>,std::allocator<std::pair<unsigned long const ,std::vector<int,std::allocator<int> > > > > > >,0> >::_Lower_bound_duplicate<std::basic_string<char,std::char_traits<char>,std::allocator<char> > >
PUBLIC	??$_Find_lower_bound@V?$basic_string@DU?$char_traits@D@std@@V?$allocator@D@2@@std@@@?$_Tree@V?$_Tmap_traits@V?$basic_string@DU?$char_traits@D@std@@V?$allocator@D@2@@std@@V?$map@KV?$vector@HV?$allocator@H@std@@@std@@U?$less@K@2@V?$allocator@U?$pair@$$CBKV?$vector@HV?$allocator@H@std@@@std@@@std@@@2@@2@U?$less@V?$basic_string@DU?$char_traits@D@std@@V?$allocator@D@2@@std@@@2@V?$allocator@U?$pair@$$CBV?$basic_string@DU?$char_traits@D@std@@V?$allocator@D@2@@std@@V?$map@KV?$vector@HV?$allocator@H@std@@@std@@U?$less@K@2@V?$allocator@U?$pair@$$CBKV?$vector@HV?$allocator@H@std@@@std@@@std@@@2@@2@@std@@@2@$0A@@std@@@std@@IBE?AU?$_Tree_find_result@PAU?$_Tree_node@U?$pair@$$CBV?$basic_string@DU?$char_traits@D@std@@V?$allocator@D@2@@std@@V?$map@KV?$vector@HV?$allocator@H@std@@@std@@U?$less@K@2@V?$allocator@U?$pair@$$CBKV?$vector@HV?$allocator@H@std@@@std@@@std@@@2@@2@@std@@PAX@std@@@1@ABV?$basic_string@DU?$char_traits@D@std@@V?$allocator@D@2@@1@@Z ; std::_Tree<std::_Tmap_traits<std::basic_string<char,std::char_traits<char>,std::allocator<char> >,std::map<unsigned long,std::vector<int,std::allocator<int> >,std::less<unsigned long>,std::allocator<std::pair<unsigned long const ,std::vector<int,std::allocator<int> > > > >,std::less<std::basic_string<char,std::char_traits<char>,std::allocator<char> > >,std::allocator<std::pair<std::basic_string<char,std::char_traits<char>,std::allocator<char> > const ,std::map<unsigned long,std::vector<int,std::allocator<int> >,std::less<unsigned long>,std::allocator<std::pair<unsigned long const ,std::vector<int,std::allocator<int> > > > > > >,0> >::_Find_lower_bound<std::basic_string<char,std::char_traits<char>,std::allocator<char> > >
PUBLIC	??$_Kfn@$$CBV?$basic_string@DU?$char_traits@D@std@@V?$allocator@D@2@@std@@V?$map@KV?$vector@HV?$allocator@H@std@@@std@@U?$less@K@2@V?$allocator@U?$pair@$$CBKV?$vector@HV?$allocator@H@std@@@std@@@std@@@2@@2@@?$_Tmap_traits@V?$basic_string@DU?$char_traits@D@std@@V?$allocator@D@2@@std@@V?$map@KV?$vector@HV?$allocator@H@std@@@std@@U?$less@K@2@V?$allocator@U?$pair@$$CBKV?$vector@HV?$allocator@H@std@@@std@@@std@@@2@@2@U?$less@V?$basic_string@DU?$char_traits@D@std@@V?$allocator@D@2@@std@@@2@V?$allocator@U?$pair@$$CBV?$basic_string@DU?$char_traits@D@std@@V?$allocator@D@2@@std@@V?$map@KV?$vector@HV?$allocator@H@std@@@std@@U?$less@K@2@V?$allocator@U?$pair@$$CBKV?$vector@HV?$allocator@H@std@@@std@@@std@@@2@@2@@std@@@2@$0A@@std@@SAABV?$basic_string@DU?$char_traits@D@std@@V?$allocator@D@2@@1@ABU?$pair@$$CBV?$basic_string@DU?$char_traits@D@std@@V?$allocator@D@2@@std@@V?$map@KV?$vector@HV?$allocator@H@std@@@std@@U?$less@K@2@V?$allocator@U?$pair@$$CBKV?$vector@HV?$allocator@H@std@@@std@@@std@@@2@@2@@1@@Z ; std::_Tmap_traits<std::basic_string<char,std::char_traits<char>,std::allocator<char> >,std::map<unsigned long,std::vector<int,std::allocator<int> >,std::less<unsigned long>,std::allocator<std::pair<unsigned long const ,std::vector<int,std::allocator<int> > > > >,std::less<std::basic_string<char,std::char_traits<char>,std::allocator<char> > >,std::allocator<std::pair<std::basic_string<char,std::char_traits<char>,std::allocator<char> > const ,std::map<unsigned long,std::vector<int,std::allocator<int> >,std::less<unsigned long>,std::allocator<std::pair<unsigned long const ,std::vector<int,std::allocator<int> > > > > > >,0>::_Kfn<std::basic_string<char,std::char_traits<char>,std::allocator<char> > const ,std::map<unsigned long,std::vector<int,std::allocator<int> >,std::less<unsigned long>,std::allocator<std::pair<unsigned long const ,std::vector<int,std::allocator<int> > > > > >
PUBLIC	??$?0PBDAAV?$map@KV?$vector@HV?$allocator@H@std@@@std@@U?$less@K@2@V?$allocator@U?$pair@$$CBKV?$vector@HV?$allocator@H@std@@@std@@@std@@@2@@std@@@?$_Tree_temp_node@V?$allocator@U?$_Tree_node@U?$pair@$$CBV?$basic_string@DU?$char_traits@D@std@@V?$allocator@D@2@@std@@V?$map@KV?$vector@HV?$allocator@H@std@@@std@@U?$less@K@2@V?$allocator@U?$pair@$$CBKV?$vector@HV?$allocator@H@std@@@std@@@std@@@2@@2@@std@@PAX@std@@@std@@@std@@QAE@AAV?$allocator@U?$_Tree_node@U?$pair@$$CBV?$basic_string@DU?$char_traits@D@std@@V?$allocator@D@2@@std@@V?$map@KV?$vector@HV?$allocator@H@std@@@std@@U?$less@K@2@V?$allocator@U?$pair@$$CBKV?$vector@HV?$allocator@H@std@@@std@@@std@@@2@@2@@std@@PAX@std@@@1@PAU?$_Tree_node@U?$pair@$$CBV?$basic_string@DU?$char_traits@D@std@@V?$allocator@D@2@@std@@V?$map@KV?$vector@HV?$allocator@H@std@@@std@@U?$less@K@2@V?$allocator@U?$pair@$$CBKV?$vector@HV?$allocator@H@std@@@std@@@std@@@2@@2@@std@@PAX@1@$$QAPBDAAV?$map@KV?$vector@HV?$allocator@H@std@@@std@@U?$less@K@2@V?$allocator@U?$pair@$$CBKV?$vector@HV?$allocator@H@std@@@std@@@std@@@2@@1@@Z ; std::_Tree_temp_node<std::allocator<std::_Tree_node<std::pair<std::basic_string<char,std::char_traits<char>,std::allocator<char> > const ,std::map<unsigned long,std::vector<int,std::allocator<int> >,std::less<unsigned long>,std::allocator<std::pair<unsigned long const ,std::vector<int,std::allocator<int> > > > > >,void *> > >::_Tree_temp_node<std::allocator<std::_Tree_node<std::pair<std::basic_string<char,std::char_traits<char>,std::allocator<char> > const ,std::map<unsigned long,std::vector<int,std::allocator<int> >,std::less<unsigned long>,std::allocator<std::pair<unsigned long const ,std::vector<int,std::allocator<int> > > > > >,void *> > ><char const *,std::map<unsigned long,std::vector<int,std::allocator<int> >,std::less<unsigned long>,std::allocator<std::pair<unsigned long const ,std::vector<int,std::allocator<int> > > > > &>
PUBLIC	??$forward@V?$_Tree_iterator@V?$_Tree_val@U?$_Tree_simple_types@U?$pair@$$CBKV?$vector@HV?$allocator@H@std@@@std@@@std@@@std@@@std@@@std@@@std@@YA$$QAV?$_Tree_iterator@V?$_Tree_val@U?$_Tree_simple_types@U?$pair@$$CBKV?$vector@HV?$allocator@H@std@@@std@@@std@@@std@@@std@@@0@AAV10@@Z ; std::forward<std::_Tree_iterator<std::_Tree_val<std::_Tree_simple_types<std::pair<unsigned long const ,std::vector<int,std::allocator<int> > > > > > >
PUBLIC	??$?0PAU?$_Tree_node@U?$pair@$$CBKV?$vector@HV?$allocator@H@std@@@std@@@std@@PAX@std@@_N$0A@@?$pair@PAU?$_Tree_node@U?$pair@$$CBKV?$vector@HV?$allocator@H@std@@@std@@@std@@PAX@std@@_N@std@@QAE@$$QAPAU?$_Tree_node@U?$pair@$$CBKV?$vector@HV?$allocator@H@std@@@std@@@std@@PAX@1@$$QA_N@Z ; std::pair<std::_Tree_node<std::pair<unsigned long const ,std::vector<int,std::allocator<int> > >,void *> *,bool>::pair<std::_Tree_node<std::pair<unsigned long const ,std::vector<int,std::allocator<int> > >,void *> *,bool><std::_Tree_node<std::pair<unsigned long const ,std::vector<int,std::allocator<int> > >,void *> *,bool,0>
PUBLIC	??$?0AAPAU?$_Tree_node@U?$pair@$$CBKV?$vector@HV?$allocator@H@std@@@std@@@std@@PAX@std@@_N$0A@@?$pair@PAU?$_Tree_node@U?$pair@$$CBKV?$vector@HV?$allocator@H@std@@@std@@@std@@PAX@std@@_N@std@@QAE@AAPAU?$_Tree_node@U?$pair@$$CBKV?$vector@HV?$allocator@H@std@@@std@@@std@@PAX@1@$$QA_N@Z ; std::pair<std::_Tree_node<std::pair<unsigned long const ,std::vector<int,std::allocator<int> > >,void *> *,bool>::pair<std::_Tree_node<std::pair<unsigned long const ,std::vector<int,std::allocator<int> > >,void *> *,bool><std::_Tree_node<std::pair<unsigned long const ,std::vector<int,std::allocator<int> > >,void *> * &,bool,0>
PUBLIC	??$?0ABKAAV?$vector@HV?$allocator@H@std@@@std@@@?$_Tree_temp_node@V?$allocator@U?$_Tree_node@U?$pair@$$CBKV?$vector@HV?$allocator@H@std@@@std@@@std@@PAX@std@@@std@@@std@@QAE@AAV?$allocator@U?$_Tree_node@U?$pair@$$CBKV?$vector@HV?$allocator@H@std@@@std@@@std@@PAX@std@@@1@PAU?$_Tree_node@U?$pair@$$CBKV?$vector@HV?$allocator@H@std@@@std@@@std@@PAX@1@ABKAAV?$vector@HV?$allocator@H@std@@@1@@Z ; std::_Tree_temp_node<std::allocator<std::_Tree_node<std::pair<unsigned long const ,std::vector<int,std::allocator<int> > >,void *> > >::_Tree_temp_node<std::allocator<std::_Tree_node<std::pair<unsigned long const ,std::vector<int,std::allocator<int> > >,void *> > ><unsigned long const &,std::vector<int,std::allocator<int> > &>
PUBLIC	??$_Lower_bound_duplicate@K@?$_Tree@V?$_Tmap_traits@KV?$vector@HV?$allocator@H@std@@@std@@U?$less@K@2@V?$allocator@U?$pair@$$CBKV?$vector@HV?$allocator@H@std@@@std@@@std@@@2@$0A@@std@@@std@@IBE_NQAU?$_Tree_node@U?$pair@$$CBKV?$vector@HV?$allocator@H@std@@@std@@@std@@PAX@1@ABK@Z ; std::_Tree<std::_Tmap_traits<unsigned long,std::vector<int,std::allocator<int> >,std::less<unsigned long>,std::allocator<std::pair<unsigned long const ,std::vector<int,std::allocator<int> > > >,0> >::_Lower_bound_duplicate<unsigned long>
PUBLIC	??$_Find_lower_bound@K@?$_Tree@V?$_Tmap_traits@KV?$vector@HV?$allocator@H@std@@@std@@U?$less@K@2@V?$allocator@U?$pair@$$CBKV?$vector@HV?$allocator@H@std@@@std@@@std@@@2@$0A@@std@@@std@@IBE?AU?$_Tree_find_result@PAU?$_Tree_node@U?$pair@$$CBKV?$vector@HV?$allocator@H@std@@@std@@@std@@PAX@std@@@1@ABK@Z ; std::_Tree<std::_Tmap_traits<unsigned long,std::vector<int,std::allocator<int> >,std::less<unsigned long>,std::allocator<std::pair<unsigned long const ,std::vector<int,std::allocator<int> > > >,0> >::_Find_lower_bound<unsigned long>
PUBLIC	??$forward@V?$_Tree_iterator@V?$_Tree_val@U?$_Tree_simple_types@U?$pair@$$CBKPAUSMobScaleTable@CPythonNonPlayer@@@std@@@std@@@std@@@std@@@std@@YA$$QAV?$_Tree_iterator@V?$_Tree_val@U?$_Tree_simple_types@U?$pair@$$CBKPAUSMobScaleTable@CPythonNonPlayer@@@std@@@std@@@std@@@0@AAV10@@Z ; std::forward<std::_Tree_iterator<std::_Tree_val<std::_Tree_simple_types<std::pair<unsigned long const ,CPythonNonPlayer::SMobScaleTable *> > > > >
PUBLIC	??$?0PAU?$_Tree_node@U?$pair@$$CBKPAUSMobScaleTable@CPythonNonPlayer@@@std@@PAX@std@@_N$0A@@?$pair@PAU?$_Tree_node@U?$pair@$$CBKPAUSMobScaleTable@CPythonNonPlayer@@@std@@PAX@std@@_N@std@@QAE@$$QAPAU?$_Tree_node@U?$pair@$$CBKPAUSMobScaleTable@CPythonNonPlayer@@@std@@PAX@1@$$QA_N@Z ; std::pair<std::_Tree_node<std::pair<unsigned long const ,CPythonNonPlayer::SMobScaleTable *>,void *> *,bool>::pair<std::_Tree_node<std::pair<unsigned long const ,CPythonNonPlayer::SMobScaleTable *>,void *> *,bool><std::_Tree_node<std::pair<unsigned long const ,CPythonNonPlayer::SMobScaleTable *>,void *> *,bool,0>
PUBLIC	??$?0AAPAU?$_Tree_node@U?$pair@$$CBKPAUSMobScaleTable@CPythonNonPlayer@@@std@@PAX@std@@_N$0A@@?$pair@PAU?$_Tree_node@U?$pair@$$CBKPAUSMobScaleTable@CPythonNonPlayer@@@std@@PAX@std@@_N@std@@QAE@AAPAU?$_Tree_node@U?$pair@$$CBKPAUSMobScaleTable@CPythonNonPlayer@@@std@@PAX@1@$$QA_N@Z ; std::pair<std::_Tree_node<std::pair<unsigned long const ,CPythonNonPlayer::SMobScaleTable *>,void *> *,bool>::pair<std::_Tree_node<std::pair<unsigned long const ,CPythonNonPlayer::SMobScaleTable *>,void *> *,bool><std::_Tree_node<std::pair<unsigned long const ,CPythonNonPlayer::SMobScaleTable *>,void *> * &,bool,0>
PUBLIC	??$?0U?$pair@$$CBKPAUSMobScaleTable@CPythonNonPlayer@@@std@@@?$_Tree_temp_node@V?$allocator@U?$_Tree_node@U?$pair@$$CBKPAUSMobScaleTable@CPythonNonPlayer@@@std@@PAX@std@@@std@@@std@@QAE@AAV?$allocator@U?$_Tree_node@U?$pair@$$CBKPAUSMobScaleTable@CPythonNonPlayer@@@std@@PAX@std@@@1@PAU?$_Tree_node@U?$pair@$$CBKPAUSMobScaleTable@CPythonNonPlayer@@@std@@PAX@1@$$QAU?$pair@$$CBKPAUSMobScaleTable@CPythonNonPlayer@@@1@@Z ; std::_Tree_temp_node<std::allocator<std::_Tree_node<std::pair<unsigned long const ,CPythonNonPlayer::SMobScaleTable *>,void *> > >::_Tree_temp_node<std::allocator<std::_Tree_node<std::pair<unsigned long const ,CPythonNonPlayer::SMobScaleTable *>,void *> > ><std::pair<unsigned long const ,CPythonNonPlayer::SMobScaleTable *> >
PUBLIC	??$forward@U?$pair@$$CBKPAUSMobScaleTable@CPythonNonPlayer@@@std@@@std@@YA$$QAU?$pair@$$CBKPAUSMobScaleTable@CPythonNonPlayer@@@0@AAU10@@Z ; std::forward<std::pair<unsigned long const ,CPythonNonPlayer::SMobScaleTable *> >
PUBLIC	??$_Lower_bound_duplicate@K@?$_Tree@V?$_Tmap_traits@KPAUSMobScaleTable@CPythonNonPlayer@@U?$less@K@std@@V?$allocator@U?$pair@$$CBKPAUSMobScaleTable@CPythonNonPlayer@@@std@@@4@$0A@@std@@@std@@IBE_NQAU?$_Tree_node@U?$pair@$$CBKPAUSMobScaleTable@CPythonNonPlayer@@@std@@PAX@1@ABK@Z ; std::_Tree<std::_Tmap_traits<unsigned long,CPythonNonPlayer::SMobScaleTable *,std::less<unsigned long>,std::allocator<std::pair<unsigned long const ,CPythonNonPlayer::SMobScaleTable *> >,0> >::_Lower_bound_duplicate<unsigned long>
PUBLIC	??$_Find_lower_bound@K@?$_Tree@V?$_Tmap_traits@KPAUSMobScaleTable@CPythonNonPlayer@@U?$less@K@std@@V?$allocator@U?$pair@$$CBKPAUSMobScaleTable@CPythonNonPlayer@@@std@@@4@$0A@@std@@@std@@IBE?AU?$_Tree_find_result@PAU?$_Tree_node@U?$pair@$$CBKPAUSMobScaleTable@CPythonNonPlayer@@@std@@PAX@std@@@1@ABK@Z ; std::_Tree<std::_Tmap_traits<unsigned long,CPythonNonPlayer::SMobScaleTable *,std::less<unsigned long>,std::allocator<std::pair<unsigned long const ,CPythonNonPlayer::SMobScaleTable *> >,0> >::_Find_lower_bound<unsigned long>
PUBLIC	??$forward@V?$_Tree_iterator@V?$_Tree_val@U?$_Tree_simple_types@U?$pair@$$CBKPAUSMobTable@CPythonNonPlayer@@@std@@@std@@@std@@@std@@@std@@YA$$QAV?$_Tree_iterator@V?$_Tree_val@U?$_Tree_simple_types@U?$pair@$$CBKPAUSMobTable@CPythonNonPlayer@@@std@@@std@@@std@@@0@AAV10@@Z ; std::forward<std::_Tree_iterator<std::_Tree_val<std::_Tree_simple_types<std::pair<unsigned long const ,CPythonNonPlayer::SMobTable *> > > > >
PUBLIC	??$?0PAU?$_Tree_node@U?$pair@$$CBKPAUSMobTable@CPythonNonPlayer@@@std@@PAX@std@@_N$0A@@?$pair@PAU?$_Tree_node@U?$pair@$$CBKPAUSMobTable@CPythonNonPlayer@@@std@@PAX@std@@_N@std@@QAE@$$QAPAU?$_Tree_node@U?$pair@$$CBKPAUSMobTable@CPythonNonPlayer@@@std@@PAX@1@$$QA_N@Z ; std::pair<std::_Tree_node<std::pair<unsigned long const ,CPythonNonPlayer::SMobTable *>,void *> *,bool>::pair<std::_Tree_node<std::pair<unsigned long const ,CPythonNonPlayer::SMobTable *>,void *> *,bool><std::_Tree_node<std::pair<unsigned long const ,CPythonNonPlayer::SMobTable *>,void *> *,bool,0>
PUBLIC	??$?0AAPAU?$_Tree_node@U?$pair@$$CBKPAUSMobTable@CPythonNonPlayer@@@std@@PAX@std@@_N$0A@@?$pair@PAU?$_Tree_node@U?$pair@$$CBKPAUSMobTable@CPythonNonPlayer@@@std@@PAX@std@@_N@std@@QAE@AAPAU?$_Tree_node@U?$pair@$$CBKPAUSMobTable@CPythonNonPlayer@@@std@@PAX@1@$$QA_N@Z ; std::pair<std::_Tree_node<std::pair<unsigned long const ,CPythonNonPlayer::SMobTable *>,void *> *,bool>::pair<std::_Tree_node<std::pair<unsigned long const ,CPythonNonPlayer::SMobTable *>,void *> *,bool><std::_Tree_node<std::pair<unsigned long const ,CPythonNonPlayer::SMobTable *>,void *> * &,bool,0>
PUBLIC	??$?0U?$pair@$$CBKPAUSMobTable@CPythonNonPlayer@@@std@@@?$_Tree_temp_node@V?$allocator@U?$_Tree_node@U?$pair@$$CBKPAUSMobTable@CPythonNonPlayer@@@std@@PAX@std@@@std@@@std@@QAE@AAV?$allocator@U?$_Tree_node@U?$pair@$$CBKPAUSMobTable@CPythonNonPlayer@@@std@@PAX@std@@@1@PAU?$_Tree_node@U?$pair@$$CBKPAUSMobTable@CPythonNonPlayer@@@std@@PAX@1@$$QAU?$pair@$$CBKPAUSMobTable@CPythonNonPlayer@@@1@@Z ; std::_Tree_temp_node<std::allocator<std::_Tree_node<std::pair<unsigned long const ,CPythonNonPlayer::SMobTable *>,void *> > >::_Tree_temp_node<std::allocator<std::_Tree_node<std::pair<unsigned long const ,CPythonNonPlayer::SMobTable *>,void *> > ><std::pair<unsigned long const ,CPythonNonPlayer::SMobTable *> >
PUBLIC	??$forward@U?$pair@$$CBKPAUSMobTable@CPythonNonPlayer@@@std@@@std@@YA$$QAU?$pair@$$CBKPAUSMobTable@CPythonNonPlayer@@@0@AAU10@@Z ; std::forward<std::pair<unsigned long const ,CPythonNonPlayer::SMobTable *> >
PUBLIC	??$_Lower_bound_duplicate@K@?$_Tree@V?$_Tmap_traits@KPAUSMobTable@CPythonNonPlayer@@U?$less@K@std@@V?$allocator@U?$pair@$$CBKPAUSMobTable@CPythonNonPlayer@@@std@@@4@$0A@@std@@@std@@IBE_NQAU?$_Tree_node@U?$pair@$$CBKPAUSMobTable@CPythonNonPlayer@@@std@@PAX@1@ABK@Z ; std::_Tree<std::_Tmap_traits<unsigned long,CPythonNonPlayer::SMobTable *,std::less<unsigned long>,std::allocator<std::pair<unsigned long const ,CPythonNonPlayer::SMobTable *> >,0> >::_Lower_bound_duplicate<unsigned long>
PUBLIC	??$_Find_lower_bound@K@?$_Tree@V?$_Tmap_traits@KPAUSMobTable@CPythonNonPlayer@@U?$less@K@std@@V?$allocator@U?$pair@$$CBKPAUSMobTable@CPythonNonPlayer@@@std@@@4@$0A@@std@@@std@@IBE?AU?$_Tree_find_result@PAU?$_Tree_node@U?$pair@$$CBKPAUSMobTable@CPythonNonPlayer@@@std@@PAX@std@@@1@ABK@Z ; std::_Tree<std::_Tmap_traits<unsigned long,CPythonNonPlayer::SMobTable *,std::less<unsigned long>,std::allocator<std::pair<unsigned long const ,CPythonNonPlayer::SMobTable *> >,0> >::_Find_lower_bound<unsigned long>
PUBLIC	??0?$_Tree@V?$_Tmap_traits@KPAUSMobTable@CPythonNonPlayer@@U?$less@K@std@@V?$allocator@U?$pair@$$CBKPAUSMobTable@CPythonNonPlayer@@@std@@@4@$0A@@std@@@std@@QAE@ABU?$less@K@1@@Z ; std::_Tree<std::_Tmap_traits<unsigned long,CPythonNonPlayer::SMobTable *,std::less<unsigned long>,std::allocator<std::pair<unsigned long const ,CPythonNonPlayer::SMobTable *> >,0> >::_Tree<std::_Tmap_traits<unsigned long,CPythonNonPlayer::SMobTable *,std::less<unsigned long>,std::allocator<std::pair<unsigned long const ,CPythonNonPlayer::SMobTable *> >,0> >
PUBLIC	?_Getal@?$_Tree@V?$_Tmap_traits@KPAUSMobTable@CPythonNonPlayer@@U?$less@K@std@@V?$allocator@U?$pair@$$CBKPAUSMobTable@CPythonNonPlayer@@@std@@@4@$0A@@std@@@std@@IAEAAV?$allocator@U?$_Tree_node@U?$pair@$$CBKPAUSMobTable@CPythonNonPlayer@@@std@@PAX@std@@@2@XZ ; std::_Tree<std::_Tmap_traits<unsigned long,CPythonNonPlayer::SMobTable *,std::less<unsigned long>,std::allocator<std::pair<unsigned long const ,CPythonNonPlayer::SMobTable *> >,0> >::_Getal
PUBLIC	?_Getal@?$_Tree@V?$_Tmap_traits@KPAUSMobTable@CPythonNonPlayer@@U?$less@K@std@@V?$allocator@U?$pair@$$CBKPAUSMobTable@CPythonNonPlayer@@@std@@@4@$0A@@std@@@std@@IBEABV?$allocator@U?$_Tree_node@U?$pair@$$CBKPAUSMobTable@CPythonNonPlayer@@@std@@PAX@std@@@2@XZ ; std::_Tree<std::_Tmap_traits<unsigned long,CPythonNonPlayer::SMobTable *,std::less<unsigned long>,std::allocator<std::pair<unsigned long const ,CPythonNonPlayer::SMobTable *> >,0> >::_Getal
PUBLIC	?_Get_scary@?$_Tree@V?$_Tmap_traits@KPAUSMobTable@CPythonNonPlayer@@U?$less@K@std@@V?$allocator@U?$pair@$$CBKPAUSMobTable@CPythonNonPlayer@@@std@@@4@$0A@@std@@@std@@IAEPAV?$_Tree_val@U?$_Tree_simple_types@U?$pair@$$CBKPAUSMobTable@CPythonNonPlayer@@@std@@@std@@@2@XZ ; std::_Tree<std::_Tmap_traits<unsigned long,CPythonNonPlayer::SMobTable *,std::less<unsigned long>,std::allocator<std::pair<unsigned long const ,CPythonNonPlayer::SMobTable *> >,0> >::_Get_scary
PUBLIC	?_Orphan_ptr@?$_Tree_val@U?$_Tree_simple_types@U?$pair@$$CBKPAUSMobTable@CPythonNonPlayer@@@std@@@std@@@std@@QAEXQAU?$_Tree_node@U?$pair@$$CBKPAUSMobTable@CPythonNonPlayer@@@std@@PAX@2@@Z ; std::_Tree_val<std::_Tree_simple_types<std::pair<unsigned long const ,CPythonNonPlayer::SMobTable *> > >::_Orphan_ptr
PUBLIC	??E?$_Tree_const_iterator@V?$_Tree_val@U?$_Tree_simple_types@U?$pair@$$CBKPAUSMobTable@CPythonNonPlayer@@@std@@@std@@@std@@@std@@QAEAAV01@XZ ; std::_Tree_const_iterator<std::_Tree_val<std::_Tree_simple_types<std::pair<unsigned long const ,CPythonNonPlayer::SMobTable *> > > >::operator++
PUBLIC	??D?$_Tree_iterator@V?$_Tree_val@U?$_Tree_simple_types@U?$pair@$$CBKPAUSMobTable@CPythonNonPlayer@@@std@@@std@@@std@@@std@@QBEAAU?$pair@$$CBKPAUSMobTable@CPythonNonPlayer@@@1@XZ ; std::_Tree_iterator<std::_Tree_val<std::_Tree_simple_types<std::pair<unsigned long const ,CPythonNonPlayer::SMobTable *> > > >::operator*
PUBLIC	??0?$_Tree_unchecked_const_iterator@V?$_Tree_val@U?$_Tree_simple_types@U?$pair@$$CBKPAUSMobTable@CPythonNonPlayer@@@std@@@std@@@std@@U_Iterator_base0@2@@std@@QAE@PAU?$_Tree_node@U?$pair@$$CBKPAUSMobTable@CPythonNonPlayer@@@std@@PAX@1@PBV?$_Tree_val@U?$_Tree_simple_types@U?$pair@$$CBKPAUSMobTable@CPythonNonPlayer@@@std@@@std@@@1@@Z ; std::_Tree_unchecked_const_iterator<std::_Tree_val<std::_Tree_simple_types<std::pair<unsigned long const ,CPythonNonPlayer::SMobTable *> > >,std::_Iterator_base0>::_Tree_unchecked_const_iterator<std::_Tree_val<std::_Tree_simple_types<std::pair<unsigned long const ,CPythonNonPlayer::SMobTable *> > >,std::_Iterator_base0>
PUBLIC	??0?$_Tree@V?$_Tmap_traits@KPAUSMobScaleTable@CPythonNonPlayer@@U?$less@K@std@@V?$allocator@U?$pair@$$CBKPAUSMobScaleTable@CPythonNonPlayer@@@std@@@4@$0A@@std@@@std@@QAE@ABU?$less@K@1@@Z ; std::_Tree<std::_Tmap_traits<unsigned long,CPythonNonPlayer::SMobScaleTable *,std::less<unsigned long>,std::allocator<std::pair<unsigned long const ,CPythonNonPlayer::SMobScaleTable *> >,0> >::_Tree<std::_Tmap_traits<unsigned long,CPythonNonPlayer::SMobScaleTable *,std::less<unsigned long>,std::allocator<std::pair<unsigned long const ,CPythonNonPlayer::SMobScaleTable *> >,0> >
PUBLIC	?_Getal@?$_Tree@V?$_Tmap_traits@KPAUSMobScaleTable@CPythonNonPlayer@@U?$less@K@std@@V?$allocator@U?$pair@$$CBKPAUSMobScaleTable@CPythonNonPlayer@@@std@@@4@$0A@@std@@@std@@IAEAAV?$allocator@U?$_Tree_node@U?$pair@$$CBKPAUSMobScaleTable@CPythonNonPlayer@@@std@@PAX@std@@@2@XZ ; std::_Tree<std::_Tmap_traits<unsigned long,CPythonNonPlayer::SMobScaleTable *,std::less<unsigned long>,std::allocator<std::pair<unsigned long const ,CPythonNonPlayer::SMobScaleTable *> >,0> >::_Getal
PUBLIC	?_Get_scary@?$_Tree@V?$_Tmap_traits@KPAUSMobScaleTable@CPythonNonPlayer@@U?$less@K@std@@V?$allocator@U?$pair@$$CBKPAUSMobScaleTable@CPythonNonPlayer@@@std@@@4@$0A@@std@@@std@@IAEPAV?$_Tree_val@U?$_Tree_simple_types@U?$pair@$$CBKPAUSMobScaleTable@CPythonNonPlayer@@@std@@@std@@@2@XZ ; std::_Tree<std::_Tmap_traits<unsigned long,CPythonNonPlayer::SMobScaleTable *,std::less<unsigned long>,std::allocator<std::pair<unsigned long const ,CPythonNonPlayer::SMobScaleTable *> >,0> >::_Get_scary
PUBLIC	??D?$_Tree_iterator@V?$_Tree_val@U?$_Tree_simple_types@U?$pair@$$CBKPAUSMobScaleTable@CPythonNonPlayer@@@std@@@std@@@std@@@std@@QBEAAU?$pair@$$CBKPAUSMobScaleTable@CPythonNonPlayer@@@1@XZ ; std::_Tree_iterator<std::_Tree_val<std::_Tree_simple_types<std::pair<unsigned long const ,CPythonNonPlayer::SMobScaleTable *> > > >::operator*
PUBLIC	??0?$_Tree_unchecked_const_iterator@V?$_Tree_val@U?$_Tree_simple_types@U?$pair@$$CBKPAUSMobScaleTable@CPythonNonPlayer@@@std@@@std@@@std@@U_Iterator_base0@2@@std@@QAE@PAU?$_Tree_node@U?$pair@$$CBKPAUSMobScaleTable@CPythonNonPlayer@@@std@@PAX@1@PBV?$_Tree_val@U?$_Tree_simple_types@U?$pair@$$CBKPAUSMobScaleTable@CPythonNonPlayer@@@std@@@std@@@1@@Z ; std::_Tree_unchecked_const_iterator<std::_Tree_val<std::_Tree_simple_types<std::pair<unsigned long const ,CPythonNonPlayer::SMobScaleTable *> > >,std::_Iterator_base0>::_Tree_unchecked_const_iterator<std::_Tree_val<std::_Tree_simple_types<std::pair<unsigned long const ,CPythonNonPlayer::SMobScaleTable *> > >,std::_Iterator_base0>
PUBLIC	??0?$_Tree@V?$_Tmap_traits@V?$basic_string@DU?$char_traits@D@std@@V?$allocator@D@2@@std@@V?$map@KV?$vector@HV?$allocator@H@std@@@std@@U?$less@K@2@V?$allocator@U?$pair@$$CBKV?$vector@HV?$allocator@H@std@@@std@@@std@@@2@@2@U?$less@V?$basic_string@DU?$char_traits@D@std@@V?$allocator@D@2@@std@@@2@V?$allocator@U?$pair@$$CBV?$basic_string@DU?$char_traits@D@std@@V?$allocator@D@2@@std@@V?$map@KV?$vector@HV?$allocator@H@std@@@std@@U?$less@K@2@V?$allocator@U?$pair@$$CBKV?$vector@HV?$allocator@H@std@@@std@@@std@@@2@@2@@std@@@2@$0A@@std@@@std@@QAE@ABU?$less@V?$basic_string@DU?$char_traits@D@std@@V?$allocator@D@2@@std@@@1@@Z ; std::_Tree<std::_Tmap_traits<std::basic_string<char,std::char_traits<char>,std::allocator<char> >,std::map<unsigned long,std::vector<int,std::allocator<int> >,std::less<unsigned long>,std::allocator<std::pair<unsigned long const ,std::vector<int,std::allocator<int> > > > >,std::less<std::basic_string<char,std::char_traits<char>,std::allocator<char> > >,std::allocator<std::pair<std::basic_string<char,std::char_traits<char>,std::allocator<char> > const ,std::map<unsigned long,std::vector<int,std::allocator<int> >,std::less<unsigned long>,std::allocator<std::pair<unsigned long const ,std::vector<int,std::allocator<int> > > > > > >,0> >::_Tree<std::_Tmap_traits<std::basic_string<char,std::char_traits<char>,std::allocator<char> >,std::map<unsigned long,std::vector<int,std::allocator<int> >,std::less<unsigned long>,std::allocator<std::pair<unsigned long const ,std::vector<int,std::allocator<int> > > > >,std::less<std::basic_string<char,std::char_traits<char>,std::allocator<char> > >,std::allocator<std::pair<std::basic_string<char,std::char_traits<char>,std::allocator<char> > const ,std::map<unsigned long,std::vector<int,std::allocator<int> >,std::less<unsigned long>,std::allocator<std::pair<unsigned long const ,std::vector<int,std::allocator<int> > > > > > >,0> >
PUBLIC	?_Getal@?$_Tree@V?$_Tmap_traits@V?$basic_string@DU?$char_traits@D@std@@V?$allocator@D@2@@std@@V?$map@KV?$vector@HV?$allocator@H@std@@@std@@U?$less@K@2@V?$allocator@U?$pair@$$CBKV?$vector@HV?$allocator@H@std@@@std@@@std@@@2@@2@U?$less@V?$basic_string@DU?$char_traits@D@std@@V?$allocator@D@2@@std@@@2@V?$allocator@U?$pair@$$CBV?$basic_string@DU?$char_traits@D@std@@V?$allocator@D@2@@std@@V?$map@KV?$vector@HV?$allocator@H@std@@@std@@U?$less@K@2@V?$allocator@U?$pair@$$CBKV?$vector@HV?$allocator@H@std@@@std@@@std@@@2@@2@@std@@@2@$0A@@std@@@std@@IAEAAV?$allocator@U?$_Tree_node@U?$pair@$$CBV?$basic_string@DU?$char_traits@D@std@@V?$allocator@D@2@@std@@V?$map@KV?$vector@HV?$allocator@H@std@@@std@@U?$less@K@2@V?$allocator@U?$pair@$$CBKV?$vector@HV?$allocator@H@std@@@std@@@std@@@2@@2@@std@@PAX@std@@@2@XZ ; std::_Tree<std::_Tmap_traits<std::basic_string<char,std::char_traits<char>,std::allocator<char> >,std::map<unsigned long,std::vector<int,std::allocator<int> >,std::less<unsigned long>,std::allocator<std::pair<unsigned long const ,std::vector<int,std::allocator<int> > > > >,std::less<std::basic_string<char,std::char_traits<char>,std::allocator<char> > >,std::allocator<std::pair<std::basic_string<char,std::char_traits<char>,std::allocator<char> > const ,std::map<unsigned long,std::vector<int,std::allocator<int> >,std::less<unsigned long>,std::allocator<std::pair<unsigned long const ,std::vector<int,std::allocator<int> > > > > > >,0> >::_Getal
PUBLIC	?_Get_scary@?$_Tree@V?$_Tmap_traits@V?$basic_string@DU?$char_traits@D@std@@V?$allocator@D@2@@std@@V?$map@KV?$vector@HV?$allocator@H@std@@@std@@U?$less@K@2@V?$allocator@U?$pair@$$CBKV?$vector@HV?$allocator@H@std@@@std@@@std@@@2@@2@U?$less@V?$basic_string@DU?$char_traits@D@std@@V?$allocator@D@2@@std@@@2@V?$allocator@U?$pair@$$CBV?$basic_string@DU?$char_traits@D@std@@V?$allocator@D@2@@std@@V?$map@KV?$vector@HV?$allocator@H@std@@@std@@U?$less@K@2@V?$allocator@U?$pair@$$CBKV?$vector@HV?$allocator@H@std@@@std@@@std@@@2@@2@@std@@@2@$0A@@std@@@std@@IAEPAV?$_Tree_val@U?$_Tree_simple_types@U?$pair@$$CBV?$basic_string@DU?$char_traits@D@std@@V?$allocator@D@2@@std@@V?$map@KV?$vector@HV?$allocator@H@std@@@std@@U?$less@K@2@V?$allocator@U?$pair@$$CBKV?$vector@HV?$allocator@H@std@@@std@@@std@@@2@@2@@std@@@std@@@2@XZ ; std::_Tree<std::_Tmap_traits<std::basic_string<char,std::char_traits<char>,std::allocator<char> >,std::map<unsigned long,std::vector<int,std::allocator<int> >,std::less<unsigned long>,std::allocator<std::pair<unsigned long const ,std::vector<int,std::allocator<int> > > > >,std::less<std::basic_string<char,std::char_traits<char>,std::allocator<char> > >,std::allocator<std::pair<std::basic_string<char,std::char_traits<char>,std::allocator<char> > const ,std::map<unsigned long,std::vector<int,std::allocator<int> >,std::less<unsigned long>,std::allocator<std::pair<unsigned long const ,std::vector<int,std::allocator<int> > > > > > >,0> >::_Get_scary
PUBLIC	?_Orphan_ptr@?$_Tree_val@U?$_Tree_simple_types@U?$pair@$$CBV?$basic_string@DU?$char_traits@D@std@@V?$allocator@D@2@@std@@V?$map@KV?$vector@HV?$allocator@H@std@@@std@@U?$less@K@2@V?$allocator@U?$pair@$$CBKV?$vector@HV?$allocator@H@std@@@std@@@std@@@2@@2@@std@@@std@@@std@@QAEXQAU?$_Tree_node@U?$pair@$$CBV?$basic_string@DU?$char_traits@D@std@@V?$allocator@D@2@@std@@V?$map@KV?$vector@HV?$allocator@H@std@@@std@@U?$less@K@2@V?$allocator@U?$pair@$$CBKV?$vector@HV?$allocator@H@std@@@std@@@std@@@2@@2@@std@@PAX@2@@Z ; std::_Tree_val<std::_Tree_simple_types<std::pair<std::basic_string<char,std::char_traits<char>,std::allocator<char> > const ,std::map<unsigned long,std::vector<int,std::allocator<int> >,std::less<unsigned long>,std::allocator<std::pair<unsigned long const ,std::vector<int,std::allocator<int> > > > > > > >::_Orphan_ptr
PUBLIC	??D?$_Tree_iterator@V?$_Tree_val@U?$_Tree_simple_types@U?$pair@$$CBV?$basic_string@DU?$char_traits@D@std@@V?$allocator@D@2@@std@@V?$map@KV?$vector@HV?$allocator@H@std@@@std@@U?$less@K@2@V?$allocator@U?$pair@$$CBKV?$vector@HV?$allocator@H@std@@@std@@@std@@@2@@2@@std@@@std@@@std@@@std@@QBEAAU?$pair@$$CBV?$basic_string@DU?$char_traits@D@std@@V?$allocator@D@2@@std@@V?$map@KV?$vector@HV?$allocator@H@std@@@std@@U?$less@K@2@V?$allocator@U?$pair@$$CBKV?$vector@HV?$allocator@H@std@@@std@@@std@@@2@@2@@1@XZ ; std::_Tree_iterator<std::_Tree_val<std::_Tree_simple_types<std::pair<std::basic_string<char,std::char_traits<char>,std::allocator<char> > const ,std::map<unsigned long,std::vector<int,std::allocator<int> >,std::less<unsigned long>,std::allocator<std::pair<unsigned long const ,std::vector<int,std::allocator<int> > > > > > > > >::operator*
PUBLIC	??0?$_Tree_unchecked_const_iterator@V?$_Tree_val@U?$_Tree_simple_types@U?$pair@$$CBV?$basic_string@DU?$char_traits@D@std@@V?$allocator@D@2@@std@@V?$map@KV?$vector@HV?$allocator@H@std@@@std@@U?$less@K@2@V?$allocator@U?$pair@$$CBKV?$vector@HV?$allocator@H@std@@@std@@@std@@@2@@2@@std@@@std@@@std@@U_Iterator_base0@2@@std@@QAE@PAU?$_Tree_node@U?$pair@$$CBV?$basic_string@DU?$char_traits@D@std@@V?$allocator@D@2@@std@@V?$map@KV?$vector@HV?$allocator@H@std@@@std@@U?$less@K@2@V?$allocator@U?$pair@$$CBKV?$vector@HV?$allocator@H@std@@@std@@@std@@@2@@2@@std@@PAX@1@PBV?$_Tree_val@U?$_Tree_simple_types@U?$pair@$$CBV?$basic_string@DU?$char_traits@D@std@@V?$allocator@D@2@@std@@V?$map@KV?$vector@HV?$allocator@H@std@@@std@@U?$less@K@2@V?$allocator@U?$pair@$$CBKV?$vector@HV?$allocator@H@std@@@std@@@std@@@2@@2@@std@@@std@@@1@@Z ; std::_Tree_unchecked_const_iterator<std::_Tree_val<std::_Tree_simple_types<std::pair<std::basic_string<char,std::char_traits<char>,std::allocator<char> > const ,std::map<unsigned long,std::vector<int,std::allocator<int> >,std::less<unsigned long>,std::allocator<std::pair<unsigned long const ,std::vector<int,std::allocator<int> > > > > > > >,std::_Iterator_base0>::_Tree_unchecked_const_iterator<std::_Tree_val<std::_Tree_simple_types<std::pair<std::basic_string<char,std::char_traits<char>,std::allocator<char> > const ,std::map<unsigned long,std::vector<int,std::allocator<int> >,std::less<unsigned long>,std::allocator<std::pair<unsigned long const ,std::vector<int,std::allocator<int> > > > > > > >,std::_Iterator_base0>
PUBLIC	??0?$_Tree@V?$_Tmap_traits@KV?$vector@HV?$allocator@H@std@@@std@@U?$less@K@2@V?$allocator@U?$pair@$$CBKV?$vector@HV?$allocator@H@std@@@std@@@std@@@2@$0A@@std@@@std@@QAE@ABU?$less@K@1@@Z ; std::_Tree<std::_Tmap_traits<unsigned long,std::vector<int,std::allocator<int> >,std::less<unsigned long>,std::allocator<std::pair<unsigned long const ,std::vector<int,std::allocator<int> > > >,0> >::_Tree<std::_Tmap_traits<unsigned long,std::vector<int,std::allocator<int> >,std::less<unsigned long>,std::allocator<std::pair<unsigned long const ,std::vector<int,std::allocator<int> > > >,0> >
PUBLIC	?_Getal@?$_Tree@V?$_Tmap_traits@KV?$vector@HV?$allocator@H@std@@@std@@U?$less@K@2@V?$allocator@U?$pair@$$CBKV?$vector@HV?$allocator@H@std@@@std@@@std@@@2@$0A@@std@@@std@@IAEAAV?$allocator@U?$_Tree_node@U?$pair@$$CBKV?$vector@HV?$allocator@H@std@@@std@@@std@@PAX@std@@@2@XZ ; std::_Tree<std::_Tmap_traits<unsigned long,std::vector<int,std::allocator<int> >,std::less<unsigned long>,std::allocator<std::pair<unsigned long const ,std::vector<int,std::allocator<int> > > >,0> >::_Getal
PUBLIC	?_Get_scary@?$_Tree@V?$_Tmap_traits@KV?$vector@HV?$allocator@H@std@@@std@@U?$less@K@2@V?$allocator@U?$pair@$$CBKV?$vector@HV?$allocator@H@std@@@std@@@std@@@2@$0A@@std@@@std@@IAEPAV?$_Tree_val@U?$_Tree_simple_types@U?$pair@$$CBKV?$vector@HV?$allocator@H@std@@@std@@@std@@@std@@@2@XZ ; std::_Tree<std::_Tmap_traits<unsigned long,std::vector<int,std::allocator<int> >,std::less<unsigned long>,std::allocator<std::pair<unsigned long const ,std::vector<int,std::allocator<int> > > >,0> >::_Get_scary
PUBLIC	??D?$_Tree_iterator@V?$_Tree_val@U?$_Tree_simple_types@U?$pair@$$CBKV?$vector@HV?$allocator@H@std@@@std@@@std@@@std@@@std@@@std@@QBEAAU?$pair@$$CBKV?$vector@HV?$allocator@H@std@@@std@@@1@XZ ; std::_Tree_iterator<std::_Tree_val<std::_Tree_simple_types<std::pair<unsigned long const ,std::vector<int,std::allocator<int> > > > > >::operator*
PUBLIC	??0?$_Tree_unchecked_const_iterator@V?$_Tree_val@U?$_Tree_simple_types@U?$pair@$$CBKV?$vector@HV?$allocator@H@std@@@std@@@std@@@std@@@std@@U_Iterator_base0@2@@std@@QAE@PAU?$_Tree_node@U?$pair@$$CBKV?$vector@HV?$allocator@H@std@@@std@@@std@@PAX@1@PBV?$_Tree_val@U?$_Tree_simple_types@U?$pair@$$CBKV?$vector@HV?$allocator@H@std@@@std@@@std@@@std@@@1@@Z ; std::_Tree_unchecked_const_iterator<std::_Tree_val<std::_Tree_simple_types<std::pair<unsigned long const ,std::vector<int,std::allocator<int> > > > >,std::_Iterator_base0>::_Tree_unchecked_const_iterator<std::_Tree_val<std::_Tree_simple_types<std::pair<unsigned long const ,std::vector<int,std::allocator<int> > > > >,std::_Iterator_base0>
PUBLIC	?pointer_to@?$pointer_traits@PAU?$pair@$$CBKV?$vector@HV?$allocator@H@std@@@std@@@std@@@std@@SAPAU?$pair@$$CBKV?$vector@HV?$allocator@H@std@@@std@@@2@AAU32@@Z ; std::pointer_traits<std::pair<unsigned long const ,std::vector<int,std::allocator<int> > > *>::pointer_to
PUBLIC	?pointer_to@?$pointer_traits@PAU?$pair@$$CBV?$basic_string@DU?$char_traits@D@std@@V?$allocator@D@2@@std@@V?$map@KV?$vector@HV?$allocator@H@std@@@std@@U?$less@K@2@V?$allocator@U?$pair@$$CBKV?$vector@HV?$allocator@H@std@@@std@@@std@@@2@@2@@std@@@std@@SAPAU?$pair@$$CBV?$basic_string@DU?$char_traits@D@std@@V?$allocator@D@2@@std@@V?$map@KV?$vector@HV?$allocator@H@std@@@std@@U?$less@K@2@V?$allocator@U?$pair@$$CBKV?$vector@HV?$allocator@H@std@@@std@@@std@@@2@@2@@2@AAU32@@Z ; std::pointer_traits<std::pair<std::basic_string<char,std::char_traits<char>,std::allocator<char> > const ,std::map<unsigned long,std::vector<int,std::allocator<int> >,std::less<unsigned long>,std::allocator<std::pair<unsigned long const ,std::vector<int,std::allocator<int> > > > > > *>::pointer_to
PUBLIC	?pointer_to@?$pointer_traits@PAU?$pair@$$CBKPAUSMobScaleTable@CPythonNonPlayer@@@std@@@std@@SAPAU?$pair@$$CBKPAUSMobScaleTable@CPythonNonPlayer@@@2@AAU32@@Z ; std::pointer_traits<std::pair<unsigned long const ,CPythonNonPlayer::SMobScaleTable *> *>::pointer_to
PUBLIC	?pointer_to@?$pointer_traits@PAU?$pair@$$CBKPAUSMobTable@CPythonNonPlayer@@@std@@@std@@SAPAU?$pair@$$CBKPAUSMobTable@CPythonNonPlayer@@@2@AAU32@@Z ; std::pointer_traits<std::pair<unsigned long const ,CPythonNonPlayer::SMobTable *> *>::pointer_to
PUBLIC	??$_Erase_head@V?$allocator@U?$_Tree_node@U?$pair@$$CBKPAUSMobTable@CPythonNonPlayer@@@std@@PAX@std@@@std@@@?$_Tree_val@U?$_Tree_simple_types@U?$pair@$$CBKPAUSMobTable@CPythonNonPlayer@@@std@@@std@@@std@@QAEXAAV?$allocator@U?$_Tree_node@U?$pair@$$CBKPAUSMobTable@CPythonNonPlayer@@@std@@PAX@std@@@1@@Z ; std::_Tree_val<std::_Tree_simple_types<std::pair<unsigned long const ,CPythonNonPlayer::SMobTable *> > >::_Erase_head<std::allocator<std::_Tree_node<std::pair<unsigned long const ,CPythonNonPlayer::SMobTable *>,void *> > >
PUBLIC	??$_Erase_tree@V?$allocator@U?$_Tree_node@U?$pair@$$CBKPAUSMobTable@CPythonNonPlayer@@@std@@PAX@std@@@std@@@?$_Tree_val@U?$_Tree_simple_types@U?$pair@$$CBKPAUSMobTable@CPythonNonPlayer@@@std@@@std@@@std@@QAEXAAV?$allocator@U?$_Tree_node@U?$pair@$$CBKPAUSMobTable@CPythonNonPlayer@@@std@@PAX@std@@@1@PAU?$_Tree_node@U?$pair@$$CBKPAUSMobTable@CPythonNonPlayer@@@std@@PAX@1@@Z ; std::_Tree_val<std::_Tree_simple_types<std::pair<unsigned long const ,CPythonNonPlayer::SMobTable *> > >::_Erase_tree<std::allocator<std::_Tree_node<std::pair<unsigned long const ,CPythonNonPlayer::SMobTable *>,void *> > >
PUBLIC	??$_Find@K@?$_Tree@V?$_Tmap_traits@KPAUSMobTable@CPythonNonPlayer@@U?$less@K@std@@V?$allocator@U?$pair@$$CBKPAUSMobTable@CPythonNonPlayer@@@std@@@4@$0A@@std@@@std@@ABEPAU?$_Tree_node@U?$pair@$$CBKPAUSMobTable@CPythonNonPlayer@@@std@@PAX@1@ABK@Z ; std::_Tree<std::_Tmap_traits<unsigned long,CPythonNonPlayer::SMobTable *,std::less<unsigned long>,std::allocator<std::pair<unsigned long const ,CPythonNonPlayer::SMobTable *> >,0> >::_Find<unsigned long>
PUBLIC	??$_Erase_head@V?$allocator@U?$_Tree_node@U?$pair@$$CBKPAUSMobScaleTable@CPythonNonPlayer@@@std@@PAX@std@@@std@@@?$_Tree_val@U?$_Tree_simple_types@U?$pair@$$CBKPAUSMobScaleTable@CPythonNonPlayer@@@std@@@std@@@std@@QAEXAAV?$allocator@U?$_Tree_node@U?$pair@$$CBKPAUSMobScaleTable@CPythonNonPlayer@@@std@@PAX@std@@@1@@Z ; std::_Tree_val<std::_Tree_simple_types<std::pair<unsigned long const ,CPythonNonPlayer::SMobScaleTable *> > >::_Erase_head<std::allocator<std::_Tree_node<std::pair<unsigned long const ,CPythonNonPlayer::SMobScaleTable *>,void *> > >
PUBLIC	??$_Find@K@?$_Tree@V?$_Tmap_traits@KPAUSMobScaleTable@CPythonNonPlayer@@U?$less@K@std@@V?$allocator@U?$pair@$$CBKPAUSMobScaleTable@CPythonNonPlayer@@@std@@@4@$0A@@std@@@std@@ABEPAU?$_Tree_node@U?$pair@$$CBKPAUSMobScaleTable@CPythonNonPlayer@@@std@@PAX@1@ABK@Z ; std::_Tree<std::_Tmap_traits<unsigned long,CPythonNonPlayer::SMobScaleTable *,std::less<unsigned long>,std::allocator<std::pair<unsigned long const ,CPythonNonPlayer::SMobScaleTable *> >,0> >::_Find<unsigned long>
PUBLIC	??$_Resize@U_Value_init_tag@std@@@?$vector@HV?$allocator@H@std@@@std@@AAEXIABU_Value_init_tag@1@@Z ; std::vector<int,std::allocator<int> >::_Resize<std::_Value_init_tag>
PUBLIC	??$_Erase_head@V?$allocator@U?$_Tree_node@U?$pair@$$CBV?$basic_string@DU?$char_traits@D@std@@V?$allocator@D@2@@std@@V?$map@KV?$vector@HV?$allocator@H@std@@@std@@U?$less@K@2@V?$allocator@U?$pair@$$CBKV?$vector@HV?$allocator@H@std@@@std@@@std@@@2@@2@@std@@PAX@std@@@std@@@?$_Tree_val@U?$_Tree_simple_types@U?$pair@$$CBV?$basic_string@DU?$char_traits@D@std@@V?$allocator@D@2@@std@@V?$map@KV?$vector@HV?$allocator@H@std@@@std@@U?$less@K@2@V?$allocator@U?$pair@$$CBKV?$vector@HV?$allocator@H@std@@@std@@@std@@@2@@2@@std@@@std@@@std@@QAEXAAV?$allocator@U?$_Tree_node@U?$pair@$$CBV?$basic_string@DU?$char_traits@D@std@@V?$allocator@D@2@@std@@V?$map@KV?$vector@HV?$allocator@H@std@@@std@@U?$less@K@2@V?$allocator@U?$pair@$$CBKV?$vector@HV?$allocator@H@std@@@std@@@std@@@2@@2@@std@@PAX@std@@@1@@Z ; std::_Tree_val<std::_Tree_simple_types<std::pair<std::basic_string<char,std::char_traits<char>,std::allocator<char> > const ,std::map<unsigned long,std::vector<int,std::allocator<int> >,std::less<unsigned long>,std::allocator<std::pair<unsigned long const ,std::vector<int,std::allocator<int> > > > > > > >::_Erase_head<std::allocator<std::_Tree_node<std::pair<std::basic_string<char,std::char_traits<char>,std::allocator<char> > const ,std::map<unsigned long,std::vector<int,std::allocator<int> >,std::less<unsigned long>,std::allocator<std::pair<unsigned long const ,std::vector<int,std::allocator<int> > > > > >,void *> > >
PUBLIC	??$_Erase_tree@V?$allocator@U?$_Tree_node@U?$pair@$$CBV?$basic_string@DU?$char_traits@D@std@@V?$allocator@D@2@@std@@V?$map@KV?$vector@HV?$allocator@H@std@@@std@@U?$less@K@2@V?$allocator@U?$pair@$$CBKV?$vector@HV?$allocator@H@std@@@std@@@std@@@2@@2@@std@@PAX@std@@@std@@@?$_Tree_val@U?$_Tree_simple_types@U?$pair@$$CBV?$basic_string@DU?$char_traits@D@std@@V?$allocator@D@2@@std@@V?$map@KV?$vector@HV?$allocator@H@std@@@std@@U?$less@K@2@V?$allocator@U?$pair@$$CBKV?$vector@HV?$allocator@H@std@@@std@@@std@@@2@@2@@std@@@std@@@std@@QAEXAAV?$allocator@U?$_Tree_node@U?$pair@$$CBV?$basic_string@DU?$char_traits@D@std@@V?$allocator@D@2@@std@@V?$map@KV?$vector@HV?$allocator@H@std@@@std@@U?$less@K@2@V?$allocator@U?$pair@$$CBKV?$vector@HV?$allocator@H@std@@@std@@@std@@@2@@2@@std@@PAX@std@@@1@PAU?$_Tree_node@U?$pair@$$CBV?$basic_string@DU?$char_traits@D@std@@V?$allocator@D@2@@std@@V?$map@KV?$vector@HV?$allocator@H@std@@@std@@U?$less@K@2@V?$allocator@U?$pair@$$CBKV?$vector@HV?$allocator@H@std@@@std@@@std@@@2@@2@@std@@PAX@1@@Z ; std::_Tree_val<std::_Tree_simple_types<std::pair<std::basic_string<char,std::char_traits<char>,std::allocator<char> > const ,std::map<unsigned long,std::vector<int,std::allocator<int> >,std::less<unsigned long>,std::allocator<std::pair<unsigned long const ,std::vector<int,std::allocator<int> > > > > > > >::_Erase_tree<std::allocator<std::_Tree_node<std::pair<std::basic_string<char,std::char_traits<char>,std::allocator<char> > const ,std::map<unsigned long,std::vector<int,std::allocator<int> >,std::less<unsigned long>,std::allocator<std::pair<unsigned long const ,std::vector<int,std::allocator<int> > > > > >,void *> > >
PUBLIC	??$_Find@V?$basic_string@DU?$char_traits@D@std@@V?$allocator@D@2@@std@@@?$_Tree@V?$_Tmap_traits@V?$basic_string@DU?$char_traits@D@std@@V?$allocator@D@2@@std@@V?$map@KV?$vector@HV?$allocator@H@std@@@std@@U?$less@K@2@V?$allocator@U?$pair@$$CBKV?$vector@HV?$allocator@H@std@@@std@@@std@@@2@@2@U?$less@V?$basic_string@DU?$char_traits@D@std@@V?$allocator@D@2@@std@@@2@V?$allocator@U?$pair@$$CBV?$basic_string@DU?$char_traits@D@std@@V?$allocator@D@2@@std@@V?$map@KV?$vector@HV?$allocator@H@std@@@std@@U?$less@K@2@V?$allocator@U?$pair@$$CBKV?$vector@HV?$allocator@H@std@@@std@@@std@@@2@@2@@std@@@2@$0A@@std@@@std@@ABEPAU?$_Tree_node@U?$pair@$$CBV?$basic_string@DU?$char_traits@D@std@@V?$allocator@D@2@@std@@V?$map@KV?$vector@HV?$allocator@H@std@@@std@@U?$less@K@2@V?$allocator@U?$pair@$$CBKV?$vector@HV?$allocator@H@std@@@std@@@std@@@2@@2@@std@@PAX@1@ABV?$basic_string@DU?$char_traits@D@std@@V?$allocator@D@2@@1@@Z ; std::_Tree<std::_Tmap_traits<std::basic_string<char,std::char_traits<char>,std::allocator<char> >,std::map<unsigned long,std::vector<int,std::allocator<int> >,std::less<unsigned long>,std::allocator<std::pair<unsigned long const ,std::vector<int,std::allocator<int> > > > >,std::less<std::basic_string<char,std::char_traits<char>,std::allocator<char> > >,std::allocator<std::pair<std::basic_string<char,std::char_traits<char>,std::allocator<char> > const ,std::map<unsigned long,std::vector<int,std::allocator<int> >,std::less<unsigned long>,std::allocator<std::pair<unsigned long const ,std::vector<int,std::allocator<int> > > > > > >,0> >::_Find<std::basic_string<char,std::char_traits<char>,std::allocator<char> > >
PUBLIC	??$_Erase_head@V?$allocator@U?$_Tree_node@U?$pair@$$CBKV?$vector@HV?$allocator@H@std@@@std@@@std@@PAX@std@@@std@@@?$_Tree_val@U?$_Tree_simple_types@U?$pair@$$CBKV?$vector@HV?$allocator@H@std@@@std@@@std@@@std@@@std@@QAEXAAV?$allocator@U?$_Tree_node@U?$pair@$$CBKV?$vector@HV?$allocator@H@std@@@std@@@std@@PAX@std@@@1@@Z ; std::_Tree_val<std::_Tree_simple_types<std::pair<unsigned long const ,std::vector<int,std::allocator<int> > > > >::_Erase_head<std::allocator<std::_Tree_node<std::pair<unsigned long const ,std::vector<int,std::allocator<int> > >,void *> > >
PUBLIC	??$_Find@K@?$_Tree@V?$_Tmap_traits@KV?$vector@HV?$allocator@H@std@@@std@@U?$less@K@2@V?$allocator@U?$pair@$$CBKV?$vector@HV?$allocator@H@std@@@std@@@std@@@2@$0A@@std@@@std@@ABEPAU?$_Tree_node@U?$pair@$$CBKV?$vector@HV?$allocator@H@std@@@std@@@std@@PAX@1@ABK@Z ; std::_Tree<std::_Tmap_traits<unsigned long,std::vector<int,std::allocator<int> >,std::less<unsigned long>,std::allocator<std::pair<unsigned long const ,std::vector<int,std::allocator<int> > > >,0> >::_Find<unsigned long>
PUBLIC	??$?0V?$_Tree_iterator@V?$_Tree_val@U?$_Tree_simple_types@U?$pair@$$CBV?$basic_string@DU?$char_traits@D@std@@V?$allocator@D@2@@std@@V?$map@KV?$vector@HV?$allocator@H@std@@@std@@U?$less@K@2@V?$allocator@U?$pair@$$CBKV?$vector@HV?$allocator@H@std@@@std@@@std@@@2@@2@@std@@@std@@@std@@@std@@AB_N$0A@@?$pair@V?$_Tree_iterator@V?$_Tree_val@U?$_Tree_simple_types@U?$pair@$$CBV?$basic_string@DU?$char_traits@D@std@@V?$allocator@D@2@@std@@V?$map@KV?$vector@HV?$allocator@H@std@@@std@@U?$less@K@2@V?$allocator@U?$pair@$$CBKV?$vector@HV?$allocator@H@std@@@std@@@std@@@2@@2@@std@@@std@@@std@@@std@@_N@std@@QAE@$$QAV?$_Tree_iterator@V?$_Tree_val@U?$_Tree_simple_types@U?$pair@$$CBV?$basic_string@DU?$char_traits@D@std@@V?$allocator@D@2@@std@@V?$map@KV?$vector@HV?$allocator@H@std@@@std@@U?$less@K@2@V?$allocator@U?$pair@$$CBKV?$vector@HV?$allocator@H@std@@@std@@@std@@@2@@2@@std@@@std@@@std@@@1@AB_N@Z ; std::pair<std::_Tree_iterator<std::_Tree_val<std::_Tree_simple_types<std::pair<std::basic_string<char,std::char_traits<char>,std::allocator<char> > const ,std::map<unsigned long,std::vector<int,std::allocator<int> >,std::less<unsigned long>,std::allocator<std::pair<unsigned long const ,std::vector<int,std::allocator<int> > > > > > > > >,bool>::pair<std::_Tree_iterator<std::_Tree_val<std::_Tree_simple_types<std::pair<std::basic_string<char,std::char_traits<char>,std::allocator<char> > const ,std::map<unsigned long,std::vector<int,std::allocator<int> >,std::less<unsigned long>,std::allocator<std::pair<unsigned long const ,std::vector<int,std::allocator<int> > > > > > > > >,bool><std::_Tree_iterator<std::_Tree_val<std::_Tree_simple_types<std::pair<std::basic_string<char,std::char_traits<char>,std::allocator<char> > const ,std::map<unsigned long,std::vector<int,std::allocator<int> >,std::less<unsigned long>,std::allocator<std::pair<unsigned long const ,std::vector<int,std::allocator<int> > > > > > > > >,bool const &,0>
PUBLIC	??$_Emplace@PBDAAV?$map@KV?$vector@HV?$allocator@H@std@@@std@@U?$less@K@2@V?$allocator@U?$pair@$$CBKV?$vector@HV?$allocator@H@std@@@std@@@std@@@2@@std@@@?$_Tree@V?$_Tmap_traits@V?$basic_string@DU?$char_traits@D@std@@V?$allocator@D@2@@std@@V?$map@KV?$vector@HV?$allocator@H@std@@@std@@U?$less@K@2@V?$allocator@U?$pair@$$CBKV?$vector@HV?$allocator@H@std@@@std@@@std@@@2@@2@U?$less@V?$basic_string@DU?$char_traits@D@std@@V?$allocator@D@2@@std@@@2@V?$allocator@U?$pair@$$CBV?$basic_string@DU?$char_traits@D@std@@V?$allocator@D@2@@std@@V?$map@KV?$vector@HV?$allocator@H@std@@@std@@U?$less@K@2@V?$allocator@U?$pair@$$CBKV?$vector@HV?$allocator@H@std@@@std@@@std@@@2@@2@@std@@@2@$0A@@std@@@std@@IAE?AU?$pair@PAU?$_Tree_node@U?$pair@$$CBV?$basic_string@DU?$char_traits@D@std@@V?$allocator@D@2@@std@@V?$map@KV?$vector@HV?$allocator@H@std@@@std@@U?$less@K@2@V?$allocator@U?$pair@$$CBKV?$vector@HV?$allocator@H@std@@@std@@@std@@@2@@2@@std@@PAX@std@@_N@1@$$QAPBDAAV?$map@KV?$vector@HV?$allocator@H@std@@@std@@U?$less@K@2@V?$allocator@U?$pair@$$CBKV?$vector@HV?$allocator@H@std@@@std@@@std@@@2@@1@@Z ; std::_Tree<std::_Tmap_traits<std::basic_string<char,std::char_traits<char>,std::allocator<char> >,std::map<unsigned long,std::vector<int,std::allocator<int> >,std::less<unsigned long>,std::allocator<std::pair<unsigned long const ,std::vector<int,std::allocator<int> > > > >,std::less<std::basic_string<char,std::char_traits<char>,std::allocator<char> > >,std::allocator<std::pair<std::basic_string<char,std::char_traits<char>,std::allocator<char> > const ,std::map<unsigned long,std::vector<int,std::allocator<int> >,std::less<unsigned long>,std::allocator<std::pair<unsigned long const ,std::vector<int,std::allocator<int> > > > > > >,0> >::_Emplace<char const *,std::map<unsigned long,std::vector<int,std::allocator<int> >,std::less<unsigned long>,std::allocator<std::pair<unsigned long const ,std::vector<int,std::allocator<int> > > > > &>
PUBLIC	??$forward@AAV?$map@KV?$vector@HV?$allocator@H@std@@@std@@U?$less@K@2@V?$allocator@U?$pair@$$CBKV?$vector@HV?$allocator@H@std@@@std@@@std@@@2@@std@@@std@@YAAAV?$map@KV?$vector@HV?$allocator@H@std@@@std@@U?$less@K@2@V?$allocator@U?$pair@$$CBKV?$vector@HV?$allocator@H@std@@@std@@@std@@@2@@0@AAV10@@Z ; std::forward<std::map<unsigned long,std::vector<int,std::allocator<int> >,std::less<unsigned long>,std::allocator<std::pair<unsigned long const ,std::vector<int,std::allocator<int> > > > > &>
PUBLIC	??$?0V?$_Tree_iterator@V?$_Tree_val@U?$_Tree_simple_types@U?$pair@$$CBKV?$vector@HV?$allocator@H@std@@@std@@@std@@@std@@@std@@@std@@AB_N$0A@@?$pair@V?$_Tree_iterator@V?$_Tree_val@U?$_Tree_simple_types@U?$pair@$$CBKV?$vector@HV?$allocator@H@std@@@std@@@std@@@std@@@std@@@std@@_N@std@@QAE@$$QAV?$_Tree_iterator@V?$_Tree_val@U?$_Tree_simple_types@U?$pair@$$CBKV?$vector@HV?$allocator@H@std@@@std@@@std@@@std@@@std@@@1@AB_N@Z ; std::pair<std::_Tree_iterator<std::_Tree_val<std::_Tree_simple_types<std::pair<unsigned long const ,std::vector<int,std::allocator<int> > > > > >,bool>::pair<std::_Tree_iterator<std::_Tree_val<std::_Tree_simple_types<std::pair<unsigned long const ,std::vector<int,std::allocator<int> > > > > >,bool><std::_Tree_iterator<std::_Tree_val<std::_Tree_simple_types<std::pair<unsigned long const ,std::vector<int,std::allocator<int> > > > > >,bool const &,0>
PUBLIC	??$_Emplace@ABKAAV?$vector@HV?$allocator@H@std@@@std@@@?$_Tree@V?$_Tmap_traits@KV?$vector@HV?$allocator@H@std@@@std@@U?$less@K@2@V?$allocator@U?$pair@$$CBKV?$vector@HV?$allocator@H@std@@@std@@@std@@@2@$0A@@std@@@std@@IAE?AU?$pair@PAU?$_Tree_node@U?$pair@$$CBKV?$vector@HV?$allocator@H@std@@@std@@@std@@PAX@std@@_N@1@ABKAAV?$vector@HV?$allocator@H@std@@@1@@Z ; std::_Tree<std::_Tmap_traits<unsigned long,std::vector<int,std::allocator<int> >,std::less<unsigned long>,std::allocator<std::pair<unsigned long const ,std::vector<int,std::allocator<int> > > >,0> >::_Emplace<unsigned long const &,std::vector<int,std::allocator<int> > &>
PUBLIC	??$forward@AAV?$vector@HV?$allocator@H@std@@@std@@@std@@YAAAV?$vector@HV?$allocator@H@std@@@0@AAV10@@Z ; std::forward<std::vector<int,std::allocator<int> > &>
PUBLIC	??$?0V?$_Tree_iterator@V?$_Tree_val@U?$_Tree_simple_types@U?$pair@$$CBKPAUSMobScaleTable@CPythonNonPlayer@@@std@@@std@@@std@@@std@@AB_N$0A@@?$pair@V?$_Tree_iterator@V?$_Tree_val@U?$_Tree_simple_types@U?$pair@$$CBKPAUSMobScaleTable@CPythonNonPlayer@@@std@@@std@@@std@@@std@@_N@std@@QAE@$$QAV?$_Tree_iterator@V?$_Tree_val@U?$_Tree_simple_types@U?$pair@$$CBKPAUSMobScaleTable@CPythonNonPlayer@@@std@@@std@@@std@@@1@AB_N@Z ; std::pair<std::_Tree_iterator<std::_Tree_val<std::_Tree_simple_types<std::pair<unsigned long const ,CPythonNonPlayer::SMobScaleTable *> > > >,bool>::pair<std::_Tree_iterator<std::_Tree_val<std::_Tree_simple_types<std::pair<unsigned long const ,CPythonNonPlayer::SMobScaleTable *> > > >,bool><std::_Tree_iterator<std::_Tree_val<std::_Tree_simple_types<std::pair<unsigned long const ,CPythonNonPlayer::SMobScaleTable *> > > >,bool const &,0>
PUBLIC	??$_Emplace@U?$pair@$$CBKPAUSMobScaleTable@CPythonNonPlayer@@@std@@@?$_Tree@V?$_Tmap_traits@KPAUSMobScaleTable@CPythonNonPlayer@@U?$less@K@std@@V?$allocator@U?$pair@$$CBKPAUSMobScaleTable@CPythonNonPlayer@@@std@@@4@$0A@@std@@@std@@IAE?AU?$pair@PAU?$_Tree_node@U?$pair@$$CBKPAUSMobScaleTable@CPythonNonPlayer@@@std@@PAX@std@@_N@1@$$QAU?$pair@$$CBKPAUSMobScaleTable@CPythonNonPlayer@@@1@@Z ; std::_Tree<std::_Tmap_traits<unsigned long,CPythonNonPlayer::SMobScaleTable *,std::less<unsigned long>,std::allocator<std::pair<unsigned long const ,CPythonNonPlayer::SMobScaleTable *> >,0> >::_Emplace<std::pair<unsigned long const ,CPythonNonPlayer::SMobScaleTable *> >
PUBLIC	??$move@AAU?$pair@$$CBKPAUSMobScaleTable@CPythonNonPlayer@@@std@@@std@@YA$$QAU?$pair@$$CBKPAUSMobScaleTable@CPythonNonPlayer@@@0@AAU10@@Z ; std::move<std::pair<unsigned long const ,CPythonNonPlayer::SMobScaleTable *> &>
PUBLIC	??$forward@AAPAUSMobScaleTable@CPythonNonPlayer@@@std@@YAAAPAUSMobScaleTable@CPythonNonPlayer@@AAPAU12@@Z ; std::forward<CPythonNonPlayer::SMobScaleTable * &>
PUBLIC	??$?0V?$_Tree_iterator@V?$_Tree_val@U?$_Tree_simple_types@U?$pair@$$CBKPAUSMobTable@CPythonNonPlayer@@@std@@@std@@@std@@@std@@AB_N$0A@@?$pair@V?$_Tree_iterator@V?$_Tree_val@U?$_Tree_simple_types@U?$pair@$$CBKPAUSMobTable@CPythonNonPlayer@@@std@@@std@@@std@@@std@@_N@std@@QAE@$$QAV?$_Tree_iterator@V?$_Tree_val@U?$_Tree_simple_types@U?$pair@$$CBKPAUSMobTable@CPythonNonPlayer@@@std@@@std@@@std@@@1@AB_N@Z ; std::pair<std::_Tree_iterator<std::_Tree_val<std::_Tree_simple_types<std::pair<unsigned long const ,CPythonNonPlayer::SMobTable *> > > >,bool>::pair<std::_Tree_iterator<std::_Tree_val<std::_Tree_simple_types<std::pair<unsigned long const ,CPythonNonPlayer::SMobTable *> > > >,bool><std::_Tree_iterator<std::_Tree_val<std::_Tree_simple_types<std::pair<unsigned long const ,CPythonNonPlayer::SMobTable *> > > >,bool const &,0>
PUBLIC	??$_Emplace@U?$pair@$$CBKPAUSMobTable@CPythonNonPlayer@@@std@@@?$_Tree@V?$_Tmap_traits@KPAUSMobTable@CPythonNonPlayer@@U?$less@K@std@@V?$allocator@U?$pair@$$CBKPAUSMobTable@CPythonNonPlayer@@@std@@@4@$0A@@std@@@std@@IAE?AU?$pair@PAU?$_Tree_node@U?$pair@$$CBKPAUSMobTable@CPythonNonPlayer@@@std@@PAX@std@@_N@1@$$QAU?$pair@$$CBKPAUSMobTable@CPythonNonPlayer@@@1@@Z ; std::_Tree<std::_Tmap_traits<unsigned long,CPythonNonPlayer::SMobTable *,std::less<unsigned long>,std::allocator<std::pair<unsigned long const ,CPythonNonPlayer::SMobTable *> >,0> >::_Emplace<std::pair<unsigned long const ,CPythonNonPlayer::SMobTable *> >
PUBLIC	??$move@AAU?$pair@$$CBKPAUSMobTable@CPythonNonPlayer@@@std@@@std@@YA$$QAU?$pair@$$CBKPAUSMobTable@CPythonNonPlayer@@@0@AAU10@@Z ; std::move<std::pair<unsigned long const ,CPythonNonPlayer::SMobTable *> &>
PUBLIC	??$forward@AAPAUSMobTable@CPythonNonPlayer@@@std@@YAAAPAUSMobTable@CPythonNonPlayer@@AAPAU12@@Z ; std::forward<CPythonNonPlayer::SMobTable * &>
PUBLIC	??0?$_Tree_const_iterator@V?$_Tree_val@U?$_Tree_simple_types@U?$pair@$$CBV?$basic_string@DU?$char_traits@D@std@@V?$allocator@D@2@@std@@V?$map@KV?$vector@HV?$allocator@H@std@@@std@@U?$less@K@2@V?$allocator@U?$pair@$$CBKV?$vector@HV?$allocator@H@std@@@std@@@std@@@2@@2@@std@@@std@@@std@@@std@@QAE@PAU?$_Tree_node@U?$pair@$$CBV?$basic_string@DU?$char_traits@D@std@@V?$allocator@D@2@@std@@V?$map@KV?$vector@HV?$allocator@H@std@@@std@@U?$less@K@2@V?$allocator@U?$pair@$$CBKV?$vector@HV?$allocator@H@std@@@std@@@std@@@2@@2@@std@@PAX@1@PBV?$_Tree_val@U?$_Tree_simple_types@U?$pair@$$CBV?$basic_string@DU?$char_traits@D@std@@V?$allocator@D@2@@std@@V?$map@KV?$vector@HV?$allocator@H@std@@@std@@U?$less@K@2@V?$allocator@U?$pair@$$CBKV?$vector@HV?$allocator@H@std@@@std@@@std@@@2@@2@@std@@@std@@@1@@Z ; std::_Tree_const_iterator<std::_Tree_val<std::_Tree_simple_types<std::pair<std::basic_string<char,std::char_traits<char>,std::allocator<char> > const ,std::map<unsigned long,std::vector<int,std::allocator<int> >,std::less<unsigned long>,std::allocator<std::pair<unsigned long const ,std::vector<int,std::allocator<int> > > > > > > > >::_Tree_const_iterator<std::_Tree_val<std::_Tree_simple_types<std::pair<std::basic_string<char,std::char_traits<char>,std::allocator<char> > const ,std::map<unsigned long,std::vector<int,std::allocator<int> >,std::less<unsigned long>,std::allocator<std::pair<unsigned long const ,std::vector<int,std::allocator<int> > > > > > > > >
PUBLIC	??0?$_Tree_const_iterator@V?$_Tree_val@U?$_Tree_simple_types@U?$pair@$$CBKV?$vector@HV?$allocator@H@std@@@std@@@std@@@std@@@std@@@std@@QAE@PAU?$_Tree_node@U?$pair@$$CBKV?$vector@HV?$allocator@H@std@@@std@@@std@@PAX@1@PBV?$_Tree_val@U?$_Tree_simple_types@U?$pair@$$CBKV?$vector@HV?$allocator@H@std@@@std@@@std@@@std@@@1@@Z ; std::_Tree_const_iterator<std::_Tree_val<std::_Tree_simple_types<std::pair<unsigned long const ,std::vector<int,std::allocator<int> > > > > >::_Tree_const_iterator<std::_Tree_val<std::_Tree_simple_types<std::pair<unsigned long const ,std::vector<int,std::allocator<int> > > > > >
PUBLIC	??0?$_Tree_const_iterator@V?$_Tree_val@U?$_Tree_simple_types@U?$pair@$$CBKPAUSMobScaleTable@CPythonNonPlayer@@@std@@@std@@@std@@@std@@QAE@PAU?$_Tree_node@U?$pair@$$CBKPAUSMobScaleTable@CPythonNonPlayer@@@std@@PAX@1@PBV?$_Tree_val@U?$_Tree_simple_types@U?$pair@$$CBKPAUSMobScaleTable@CPythonNonPlayer@@@std@@@std@@@1@@Z ; std::_Tree_const_iterator<std::_Tree_val<std::_Tree_simple_types<std::pair<unsigned long const ,CPythonNonPlayer::SMobScaleTable *> > > >::_Tree_const_iterator<std::_Tree_val<std::_Tree_simple_types<std::pair<unsigned long const ,CPythonNonPlayer::SMobScaleTable *> > > >
PUBLIC	??0?$_Tree_const_iterator@V?$_Tree_val@U?$_Tree_simple_types@U?$pair@$$CBKPAUSMobTable@CPythonNonPlayer@@@std@@@std@@@std@@@std@@QAE@PAU?$_Tree_node@U?$pair@$$CBKPAUSMobTable@CPythonNonPlayer@@@std@@PAX@1@PBV?$_Tree_val@U?$_Tree_simple_types@U?$pair@$$CBKPAUSMobTable@CPythonNonPlayer@@@std@@@std@@@1@@Z ; std::_Tree_const_iterator<std::_Tree_val<std::_Tree_simple_types<std::pair<unsigned long const ,CPythonNonPlayer::SMobTable *> > > >::_Tree_const_iterator<std::_Tree_val<std::_Tree_simple_types<std::pair<unsigned long const ,CPythonNonPlayer::SMobTable *> > > >
PUBLIC	??_G?$CSingleton@VCPythonNonPlayer@@@@UAEPAXI@Z	; CSingleton<CPythonNonPlayer>::`scalar deleting destructor'
PUBLIC	??0?$_Tree_iterator@V?$_Tree_val@U?$_Tree_simple_types@U?$pair@$$CBV?$basic_string@DU?$char_traits@D@std@@V?$allocator@D@2@@std@@V?$map@KV?$vector@HV?$allocator@H@std@@@std@@U?$less@K@2@V?$allocator@U?$pair@$$CBKV?$vector@HV?$allocator@H@std@@@std@@@std@@@2@@2@@std@@@std@@@std@@@std@@QAE@PAU?$_Tree_node@U?$pair@$$CBV?$basic_string@DU?$char_traits@D@std@@V?$allocator@D@2@@std@@V?$map@KV?$vector@HV?$allocator@H@std@@@std@@U?$less@K@2@V?$allocator@U?$pair@$$CBKV?$vector@HV?$allocator@H@std@@@std@@@std@@@2@@2@@std@@PAX@1@PBV?$_Tree_val@U?$_Tree_simple_types@U?$pair@$$CBV?$basic_string@DU?$char_traits@D@std@@V?$allocator@D@2@@std@@V?$map@KV?$vector@HV?$allocator@H@std@@@std@@U?$less@K@2@V?$allocator@U?$pair@$$CBKV?$vector@HV?$allocator@H@std@@@std@@@std@@@2@@2@@std@@@std@@@1@@Z ; std::_Tree_iterator<std::_Tree_val<std::_Tree_simple_types<std::pair<std::basic_string<char,std::char_traits<char>,std::allocator<char> > const ,std::map<unsigned long,std::vector<int,std::allocator<int> >,std::less<unsigned long>,std::allocator<std::pair<unsigned long const ,std::vector<int,std::allocator<int> > > > > > > > >::_Tree_iterator<std::_Tree_val<std::_Tree_simple_types<std::pair<std::basic_string<char,std::char_traits<char>,std::allocator<char> > const ,std::map<unsigned long,std::vector<int,std::allocator<int> >,std::less<unsigned long>,std::allocator<std::pair<unsigned long const ,std::vector<int,std::allocator<int> > > > > > > > >
PUBLIC	??0?$_Tree_iterator@V?$_Tree_val@U?$_Tree_simple_types@U?$pair@$$CBKV?$vector@HV?$allocator@H@std@@@std@@@std@@@std@@@std@@@std@@QAE@PAU?$_Tree_node@U?$pair@$$CBKV?$vector@HV?$allocator@H@std@@@std@@@std@@PAX@1@PBV?$_Tree_val@U?$_Tree_simple_types@U?$pair@$$CBKV?$vector@HV?$allocator@H@std@@@std@@@std@@@std@@@1@@Z ; std::_Tree_iterator<std::_Tree_val<std::_Tree_simple_types<std::pair<unsigned long const ,std::vector<int,std::allocator<int> > > > > >::_Tree_iterator<std::_Tree_val<std::_Tree_simple_types<std::pair<unsigned long const ,std::vector<int,std::allocator<int> > > > > >
PUBLIC	??0?$_Tree_iterator@V?$_Tree_val@U?$_Tree_simple_types@U?$pair@$$CBKPAUSMobScaleTable@CPythonNonPlayer@@@std@@@std@@@std@@@std@@QAE@PAU?$_Tree_node@U?$pair@$$CBKPAUSMobScaleTable@CPythonNonPlayer@@@std@@PAX@1@PBV?$_Tree_val@U?$_Tree_simple_types@U?$pair@$$CBKPAUSMobScaleTable@CPythonNonPlayer@@@std@@@std@@@1@@Z ; std::_Tree_iterator<std::_Tree_val<std::_Tree_simple_types<std::pair<unsigned long const ,CPythonNonPlayer::SMobScaleTable *> > > >::_Tree_iterator<std::_Tree_val<std::_Tree_simple_types<std::pair<unsigned long const ,CPythonNonPlayer::SMobScaleTable *> > > >
PUBLIC	??0?$_Tree_iterator@V?$_Tree_val@U?$_Tree_simple_types@U?$pair@$$CBKPAUSMobTable@CPythonNonPlayer@@@std@@@std@@@std@@@std@@QAE@PAU?$_Tree_node@U?$pair@$$CBKPAUSMobTable@CPythonNonPlayer@@@std@@PAX@1@PBV?$_Tree_val@U?$_Tree_simple_types@U?$pair@$$CBKPAUSMobTable@CPythonNonPlayer@@@std@@@std@@@1@@Z ; std::_Tree_iterator<std::_Tree_val<std::_Tree_simple_types<std::pair<unsigned long const ,CPythonNonPlayer::SMobTable *> > > >::_Tree_iterator<std::_Tree_val<std::_Tree_simple_types<std::pair<unsigned long const ,CPythonNonPlayer::SMobTable *> > > >
PUBLIC	??0?$CSingleton@VCPythonNonPlayer@@@@QAE@XZ	; CSingleton<CPythonNonPlayer>::CSingleton<CPythonNonPlayer>
PUBLIC	??1?$CSingleton@VCPythonNonPlayer@@@@UAE@XZ	; CSingleton<CPythonNonPlayer>::~CSingleton<CPythonNonPlayer>
PUBLIC	??0?$map@KPAUSMobScaleTable@CPythonNonPlayer@@U?$less@K@std@@V?$allocator@U?$pair@$$CBKPAUSMobScaleTable@CPythonNonPlayer@@@std@@@4@@std@@QAE@XZ ; std::map<unsigned long,CPythonNonPlayer::SMobScaleTable *,std::less<unsigned long>,std::allocator<std::pair<unsigned long const ,CPythonNonPlayer::SMobScaleTable *> > >::map<unsigned long,CPythonNonPlayer::SMobScaleTable *,std::less<unsigned long>,std::allocator<std::pair<unsigned long const ,CPythonNonPlayer::SMobScaleTable *> > >
PUBLIC	??0?$map@KPAUSMobTable@CPythonNonPlayer@@U?$less@K@std@@V?$allocator@U?$pair@$$CBKPAUSMobTable@CPythonNonPlayer@@@std@@@4@@std@@QAE@XZ ; std::map<unsigned long,CPythonNonPlayer::SMobTable *,std::less<unsigned long>,std::allocator<std::pair<unsigned long const ,CPythonNonPlayer::SMobTable *> > >::map<unsigned long,CPythonNonPlayer::SMobTable *,std::less<unsigned long>,std::allocator<std::pair<unsigned long const ,CPythonNonPlayer::SMobTable *> > >
PUBLIC	??1?$_Tree@V?$_Tmap_traits@KPAUSMobTable@CPythonNonPlayer@@U?$less@K@std@@V?$allocator@U?$pair@$$CBKPAUSMobTable@CPythonNonPlayer@@@std@@@4@$0A@@std@@@std@@QAE@XZ ; std::_Tree<std::_Tmap_traits<unsigned long,CPythonNonPlayer::SMobTable *,std::less<unsigned long>,std::allocator<std::pair<unsigned long const ,CPythonNonPlayer::SMobTable *> >,0> >::~_Tree<std::_Tmap_traits<unsigned long,CPythonNonPlayer::SMobTable *,std::less<unsigned long>,std::allocator<std::pair<unsigned long const ,CPythonNonPlayer::SMobTable *> >,0> >
PUBLIC	?begin@?$_Tree@V?$_Tmap_traits@KPAUSMobTable@CPythonNonPlayer@@U?$less@K@std@@V?$allocator@U?$pair@$$CBKPAUSMobTable@CPythonNonPlayer@@@std@@@4@$0A@@std@@@std@@QAE?AV?$_Tree_iterator@V?$_Tree_val@U?$_Tree_simple_types@U?$pair@$$CBKPAUSMobTable@CPythonNonPlayer@@@std@@@std@@@std@@@2@XZ ; std::_Tree<std::_Tmap_traits<unsigned long,CPythonNonPlayer::SMobTable *,std::less<unsigned long>,std::allocator<std::pair<unsigned long const ,CPythonNonPlayer::SMobTable *> >,0> >::begin
PUBLIC	?end@?$_Tree@V?$_Tmap_traits@KPAUSMobTable@CPythonNonPlayer@@U?$less@K@std@@V?$allocator@U?$pair@$$CBKPAUSMobTable@CPythonNonPlayer@@@std@@@4@$0A@@std@@@std@@QAE?AV?$_Tree_iterator@V?$_Tree_val@U?$_Tree_simple_types@U?$pair@$$CBKPAUSMobTable@CPythonNonPlayer@@@std@@@std@@@std@@@2@XZ ; std::_Tree<std::_Tmap_traits<unsigned long,CPythonNonPlayer::SMobTable *,std::less<unsigned long>,std::allocator<std::pair<unsigned long const ,CPythonNonPlayer::SMobTable *> >,0> >::end
PUBLIC	?clear@?$_Tree@V?$_Tmap_traits@KPAUSMobTable@CPythonNonPlayer@@U?$less@K@std@@V?$allocator@U?$pair@$$CBKPAUSMobTable@CPythonNonPlayer@@@std@@@4@$0A@@std@@@std@@QAEXXZ ; std::_Tree<std::_Tmap_traits<unsigned long,CPythonNonPlayer::SMobTable *,std::less<unsigned long>,std::allocator<std::pair<unsigned long const ,CPythonNonPlayer::SMobTable *> >,0> >::clear
PUBLIC	?find@?$_Tree@V?$_Tmap_traits@KPAUSMobTable@CPythonNonPlayer@@U?$less@K@std@@V?$allocator@U?$pair@$$CBKPAUSMobTable@CPythonNonPlayer@@@std@@@4@$0A@@std@@@std@@QAE?AV?$_Tree_iterator@V?$_Tree_val@U?$_Tree_simple_types@U?$pair@$$CBKPAUSMobTable@CPythonNonPlayer@@@std@@@std@@@std@@@2@ABK@Z ; std::_Tree<std::_Tmap_traits<unsigned long,CPythonNonPlayer::SMobTable *,std::less<unsigned long>,std::allocator<std::pair<unsigned long const ,CPythonNonPlayer::SMobTable *> >,0> >::find
PUBLIC	??8?$_Tree_const_iterator@V?$_Tree_val@U?$_Tree_simple_types@U?$pair@$$CBKPAUSMobTable@CPythonNonPlayer@@@std@@@std@@@std@@@std@@QBE_NABV01@@Z ; std::_Tree_const_iterator<std::_Tree_val<std::_Tree_simple_types<std::pair<unsigned long const ,CPythonNonPlayer::SMobTable *> > > >::operator==
PUBLIC	??C?$_Tree_iterator@V?$_Tree_val@U?$_Tree_simple_types@U?$pair@$$CBKPAUSMobTable@CPythonNonPlayer@@@std@@@std@@@std@@@std@@QBEPAU?$pair@$$CBKPAUSMobTable@CPythonNonPlayer@@@1@XZ ; std::_Tree_iterator<std::_Tree_val<std::_Tree_simple_types<std::pair<unsigned long const ,CPythonNonPlayer::SMobTable *> > > >::operator->
PUBLIC	??E?$_Tree_iterator@V?$_Tree_val@U?$_Tree_simple_types@U?$pair@$$CBKPAUSMobTable@CPythonNonPlayer@@@std@@@std@@@std@@@std@@QAEAAV01@XZ ; std::_Tree_iterator<std::_Tree_val<std::_Tree_simple_types<std::pair<unsigned long const ,CPythonNonPlayer::SMobTable *> > > >::operator++
PUBLIC	??1?$_Tree@V?$_Tmap_traits@KPAUSMobScaleTable@CPythonNonPlayer@@U?$less@K@std@@V?$allocator@U?$pair@$$CBKPAUSMobScaleTable@CPythonNonPlayer@@@std@@@4@$0A@@std@@@std@@QAE@XZ ; std::_Tree<std::_Tmap_traits<unsigned long,CPythonNonPlayer::SMobScaleTable *,std::less<unsigned long>,std::allocator<std::pair<unsigned long const ,CPythonNonPlayer::SMobScaleTable *> >,0> >::~_Tree<std::_Tmap_traits<unsigned long,CPythonNonPlayer::SMobScaleTable *,std::less<unsigned long>,std::allocator<std::pair<unsigned long const ,CPythonNonPlayer::SMobScaleTable *> >,0> >
PUBLIC	?end@?$_Tree@V?$_Tmap_traits@KPAUSMobScaleTable@CPythonNonPlayer@@U?$less@K@std@@V?$allocator@U?$pair@$$CBKPAUSMobScaleTable@CPythonNonPlayer@@@std@@@4@$0A@@std@@@std@@QAE?AV?$_Tree_iterator@V?$_Tree_val@U?$_Tree_simple_types@U?$pair@$$CBKPAUSMobScaleTable@CPythonNonPlayer@@@std@@@std@@@std@@@2@XZ ; std::_Tree<std::_Tmap_traits<unsigned long,CPythonNonPlayer::SMobScaleTable *,std::less<unsigned long>,std::allocator<std::pair<unsigned long const ,CPythonNonPlayer::SMobScaleTable *> >,0> >::end
PUBLIC	?find@?$_Tree@V?$_Tmap_traits@KPAUSMobScaleTable@CPythonNonPlayer@@U?$less@K@std@@V?$allocator@U?$pair@$$CBKPAUSMobScaleTable@CPythonNonPlayer@@@std@@@4@$0A@@std@@@std@@QAE?AV?$_Tree_iterator@V?$_Tree_val@U?$_Tree_simple_types@U?$pair@$$CBKPAUSMobScaleTable@CPythonNonPlayer@@@std@@@std@@@std@@@2@ABK@Z ; std::_Tree<std::_Tmap_traits<unsigned long,CPythonNonPlayer::SMobScaleTable *,std::less<unsigned long>,std::allocator<std::pair<unsigned long const ,CPythonNonPlayer::SMobScaleTable *> >,0> >::find
PUBLIC	??8?$_Tree_const_iterator@V?$_Tree_val@U?$_Tree_simple_types@U?$pair@$$CBKPAUSMobScaleTable@CPythonNonPlayer@@@std@@@std@@@std@@@std@@QBE_NABV01@@Z ; std::_Tree_const_iterator<std::_Tree_val<std::_Tree_simple_types<std::pair<unsigned long const ,CPythonNonPlayer::SMobScaleTable *> > > >::operator==
PUBLIC	??C?$_Tree_iterator@V?$_Tree_val@U?$_Tree_simple_types@U?$pair@$$CBKPAUSMobScaleTable@CPythonNonPlayer@@@std@@@std@@@std@@@std@@QBEPAU?$pair@$$CBKPAUSMobScaleTable@CPythonNonPlayer@@@1@XZ ; std::_Tree_iterator<std::_Tree_val<std::_Tree_simple_types<std::pair<unsigned long const ,CPythonNonPlayer::SMobScaleTable *> > > >::operator->
PUBLIC	?resize@?$vector@HV?$allocator@H@std@@@std@@QAEXI@Z ; std::vector<int,std::allocator<int> >::resize
PUBLIC	??0?$map@KV?$vector@HV?$allocator@H@std@@@std@@U?$less@K@2@V?$allocator@U?$pair@$$CBKV?$vector@HV?$allocator@H@std@@@std@@@std@@@2@@std@@QAE@XZ ; std::map<unsigned long,std::vector<int,std::allocator<int> >,std::less<unsigned long>,std::allocator<std::pair<unsigned long const ,std::vector<int,std::allocator<int> > > > >::map<unsigned long,std::vector<int,std::allocator<int> >,std::less<unsigned long>,std::allocator<std::pair<unsigned long const ,std::vector<int,std::allocator<int> > > > >
PUBLIC	??0?$map@V?$basic_string@DU?$char_traits@D@std@@V?$allocator@D@2@@std@@V?$map@KV?$vector@HV?$allocator@H@std@@@std@@U?$less@K@2@V?$allocator@U?$pair@$$CBKV?$vector@HV?$allocator@H@std@@@std@@@std@@@2@@2@U?$less@V?$basic_string@DU?$char_traits@D@std@@V?$allocator@D@2@@std@@@2@V?$allocator@U?$pair@$$CBV?$basic_string@DU?$char_traits@D@std@@V?$allocator@D@2@@std@@V?$map@KV?$vector@HV?$allocator@H@std@@@std@@U?$less@K@2@V?$allocator@U?$pair@$$CBKV?$vector@HV?$allocator@H@std@@@std@@@std@@@2@@2@@std@@@2@@std@@QAE@XZ ; std::map<std::basic_string<char,std::char_traits<char>,std::allocator<char> >,std::map<unsigned long,std::vector<int,std::allocator<int> >,std::less<unsigned long>,std::allocator<std::pair<unsigned long const ,std::vector<int,std::allocator<int> > > > >,std::less<std::basic_string<char,std::char_traits<char>,std::allocator<char> > >,std::allocator<std::pair<std::basic_string<char,std::char_traits<char>,std::allocator<char> > const ,std::map<unsigned long,std::vector<int,std::allocator<int> >,std::less<unsigned long>,std::allocator<std::pair<unsigned long const ,std::vector<int,std::allocator<int> > > > > > > >::map<std::basic_string<char,std::char_traits<char>,std::allocator<char> >,std::map<unsigned long,std::vector<int,std::allocator<int> >,std::less<unsigned long>,std::allocator<std::pair<unsigned long const ,std::vector<int,std::allocator<int> > > > >,std::less<std::basic_string<char,std::char_traits<char>,std::allocator<char> > >,std::allocator<std::pair<std::basic_string<char,std::char_traits<char>,std::allocator<char> > const ,std::map<unsigned long,std::vector<int,std::allocator<int> >,std::less<unsigned long>,std::allocator<std::pair<unsigned long const ,std::vector<int,std::allocator<int> > > > > > > >
PUBLIC	??1?$_Tree@V?$_Tmap_traits@V?$basic_string@DU?$char_traits@D@std@@V?$allocator@D@2@@std@@V?$map@KV?$vector@HV?$allocator@H@std@@@std@@U?$less@K@2@V?$allocator@U?$pair@$$CBKV?$vector@HV?$allocator@H@std@@@std@@@std@@@2@@2@U?$less@V?$basic_string@DU?$char_traits@D@std@@V?$allocator@D@2@@std@@@2@V?$allocator@U?$pair@$$CBV?$basic_string@DU?$char_traits@D@std@@V?$allocator@D@2@@std@@V?$map@KV?$vector@HV?$allocator@H@std@@@std@@U?$less@K@2@V?$allocator@U?$pair@$$CBKV?$vector@HV?$allocator@H@std@@@std@@@std@@@2@@2@@std@@@2@$0A@@std@@@std@@QAE@XZ ; std::_Tree<std::_Tmap_traits<std::basic_string<char,std::char_traits<char>,std::allocator<char> >,std::map<unsigned long,std::vector<int,std::allocator<int> >,std::less<unsigned long>,std::allocator<std::pair<unsigned long const ,std::vector<int,std::allocator<int> > > > >,std::less<std::basic_string<char,std::char_traits<char>,std::allocator<char> > >,std::allocator<std::pair<std::basic_string<char,std::char_traits<char>,std::allocator<char> > const ,std::map<unsigned long,std::vector<int,std::allocator<int> >,std::less<unsigned long>,std::allocator<std::pair<unsigned long const ,std::vector<int,std::allocator<int> > > > > > >,0> >::~_Tree<std::_Tmap_traits<std::basic_string<char,std::char_traits<char>,std::allocator<char> >,std::map<unsigned long,std::vector<int,std::allocator<int> >,std::less<unsigned long>,std::allocator<std::pair<unsigned long const ,std::vector<int,std::allocator<int> > > > >,std::less<std::basic_string<char,std::char_traits<char>,std::allocator<char> > >,std::allocator<std::pair<std::basic_string<char,std::char_traits<char>,std::allocator<char> > const ,std::map<unsigned long,std::vector<int,std::allocator<int> >,std::less<unsigned long>,std::allocator<std::pair<unsigned long const ,std::vector<int,std::allocator<int> > > > > > >,0> >
PUBLIC	?end@?$_Tree@V?$_Tmap_traits@V?$basic_string@DU?$char_traits@D@std@@V?$allocator@D@2@@std@@V?$map@KV?$vector@HV?$allocator@H@std@@@std@@U?$less@K@2@V?$allocator@U?$pair@$$CBKV?$vector@HV?$allocator@H@std@@@std@@@std@@@2@@2@U?$less@V?$basic_string@DU?$char_traits@D@std@@V?$allocator@D@2@@std@@@2@V?$allocator@U?$pair@$$CBV?$basic_string@DU?$char_traits@D@std@@V?$allocator@D@2@@std@@V?$map@KV?$vector@HV?$allocator@H@std@@@std@@U?$less@K@2@V?$allocator@U?$pair@$$CBKV?$vector@HV?$allocator@H@std@@@std@@@std@@@2@@2@@std@@@2@$0A@@std@@@std@@QAE?AV?$_Tree_iterator@V?$_Tree_val@U?$_Tree_simple_types@U?$pair@$$CBV?$basic_string@DU?$char_traits@D@std@@V?$allocator@D@2@@std@@V?$map@KV?$vector@HV?$allocator@H@std@@@std@@U?$less@K@2@V?$allocator@U?$pair@$$CBKV?$vector@HV?$allocator@H@std@@@std@@@std@@@2@@2@@std@@@std@@@std@@@2@XZ ; std::_Tree<std::_Tmap_traits<std::basic_string<char,std::char_traits<char>,std::allocator<char> >,std::map<unsigned long,std::vector<int,std::allocator<int> >,std::less<unsigned long>,std::allocator<std::pair<unsigned long const ,std::vector<int,std::allocator<int> > > > >,std::less<std::basic_string<char,std::char_traits<char>,std::allocator<char> > >,std::allocator<std::pair<std::basic_string<char,std::char_traits<char>,std::allocator<char> > const ,std::map<unsigned long,std::vector<int,std::allocator<int> >,std::less<unsigned long>,std::allocator<std::pair<unsigned long const ,std::vector<int,std::allocator<int> > > > > > >,0> >::end
PUBLIC	?clear@?$_Tree@V?$_Tmap_traits@V?$basic_string@DU?$char_traits@D@std@@V?$allocator@D@2@@std@@V?$map@KV?$vector@HV?$allocator@H@std@@@std@@U?$less@K@2@V?$allocator@U?$pair@$$CBKV?$vector@HV?$allocator@H@std@@@std@@@std@@@2@@2@U?$less@V?$basic_string@DU?$char_traits@D@std@@V?$allocator@D@2@@std@@@2@V?$allocator@U?$pair@$$CBV?$basic_string@DU?$char_traits@D@std@@V?$allocator@D@2@@std@@V?$map@KV?$vector@HV?$allocator@H@std@@@std@@U?$less@K@2@V?$allocator@U?$pair@$$CBKV?$vector@HV?$allocator@H@std@@@std@@@std@@@2@@2@@std@@@2@$0A@@std@@@std@@QAEXXZ ; std::_Tree<std::_Tmap_traits<std::basic_string<char,std::char_traits<char>,std::allocator<char> >,std::map<unsigned long,std::vector<int,std::allocator<int> >,std::less<unsigned long>,std::allocator<std::pair<unsigned long const ,std::vector<int,std::allocator<int> > > > >,std::less<std::basic_string<char,std::char_traits<char>,std::allocator<char> > >,std::allocator<std::pair<std::basic_string<char,std::char_traits<char>,std::allocator<char> > const ,std::map<unsigned long,std::vector<int,std::allocator<int> >,std::less<unsigned long>,std::allocator<std::pair<unsigned long const ,std::vector<int,std::allocator<int> > > > > > >,0> >::clear
PUBLIC	?find@?$_Tree@V?$_Tmap_traits@V?$basic_string@DU?$char_traits@D@std@@V?$allocator@D@2@@std@@V?$map@KV?$vector@HV?$allocator@H@std@@@std@@U?$less@K@2@V?$allocator@U?$pair@$$CBKV?$vector@HV?$allocator@H@std@@@std@@@std@@@2@@2@U?$less@V?$basic_string@DU?$char_traits@D@std@@V?$allocator@D@2@@std@@@2@V?$allocator@U?$pair@$$CBV?$basic_string@DU?$char_traits@D@std@@V?$allocator@D@2@@std@@V?$map@KV?$vector@HV?$allocator@H@std@@@std@@U?$less@K@2@V?$allocator@U?$pair@$$CBKV?$vector@HV?$allocator@H@std@@@std@@@std@@@2@@2@@std@@@2@$0A@@std@@@std@@QAE?AV?$_Tree_iterator@V?$_Tree_val@U?$_Tree_simple_types@U?$pair@$$CBV?$basic_string@DU?$char_traits@D@std@@V?$allocator@D@2@@std@@V?$map@KV?$vector@HV?$allocator@H@std@@@std@@U?$less@K@2@V?$allocator@U?$pair@$$CBKV?$vector@HV?$allocator@H@std@@@std@@@std@@@2@@2@@std@@@std@@@std@@@2@ABV?$basic_string@DU?$char_traits@D@std@@V?$allocator@D@2@@2@@Z ; std::_Tree<std::_Tmap_traits<std::basic_string<char,std::char_traits<char>,std::allocator<char> >,std::map<unsigned long,std::vector<int,std::allocator<int> >,std::less<unsigned long>,std::allocator<std::pair<unsigned long const ,std::vector<int,std::allocator<int> > > > >,std::less<std::basic_string<char,std::char_traits<char>,std::allocator<char> > >,std::allocator<std::pair<std::basic_string<char,std::char_traits<char>,std::allocator<char> > const ,std::map<unsigned long,std::vector<int,std::allocator<int> >,std::less<unsigned long>,std::allocator<std::pair<unsigned long const ,std::vector<int,std::allocator<int> > > > > > >,0> >::find
PUBLIC	??8?$_Tree_const_iterator@V?$_Tree_val@U?$_Tree_simple_types@U?$pair@$$CBV?$basic_string@DU?$char_traits@D@std@@V?$allocator@D@2@@std@@V?$map@KV?$vector@HV?$allocator@H@std@@@std@@U?$less@K@2@V?$allocator@U?$pair@$$CBKV?$vector@HV?$allocator@H@std@@@std@@@std@@@2@@2@@std@@@std@@@std@@@std@@QBE_NABV01@@Z ; std::_Tree_const_iterator<std::_Tree_val<std::_Tree_simple_types<std::pair<std::basic_string<char,std::char_traits<char>,std::allocator<char> > const ,std::map<unsigned long,std::vector<int,std::allocator<int> >,std::less<unsigned long>,std::allocator<std::pair<unsigned long const ,std::vector<int,std::allocator<int> > > > > > > > >::operator==
PUBLIC	??C?$_Tree_iterator@V?$_Tree_val@U?$_Tree_simple_types@U?$pair@$$CBV?$basic_string@DU?$char_traits@D@std@@V?$allocator@D@2@@std@@V?$map@KV?$vector@HV?$allocator@H@std@@@std@@U?$less@K@2@V?$allocator@U?$pair@$$CBKV?$vector@HV?$allocator@H@std@@@std@@@std@@@2@@2@@std@@@std@@@std@@@std@@QBEPAU?$pair@$$CBV?$basic_string@DU?$char_traits@D@std@@V?$allocator@D@2@@std@@V?$map@KV?$vector@HV?$allocator@H@std@@@std@@U?$less@K@2@V?$allocator@U?$pair@$$CBKV?$vector@HV?$allocator@H@std@@@std@@@std@@@2@@2@@1@XZ ; std::_Tree_iterator<std::_Tree_val<std::_Tree_simple_types<std::pair<std::basic_string<char,std::char_traits<char>,std::allocator<char> > const ,std::map<unsigned long,std::vector<int,std::allocator<int> >,std::less<unsigned long>,std::allocator<std::pair<unsigned long const ,std::vector<int,std::allocator<int> > > > > > > > >::operator->
PUBLIC	??1?$_Tree@V?$_Tmap_traits@KV?$vector@HV?$allocator@H@std@@@std@@U?$less@K@2@V?$allocator@U?$pair@$$CBKV?$vector@HV?$allocator@H@std@@@std@@@std@@@2@$0A@@std@@@std@@QAE@XZ ; std::_Tree<std::_Tmap_traits<unsigned long,std::vector<int,std::allocator<int> >,std::less<unsigned long>,std::allocator<std::pair<unsigned long const ,std::vector<int,std::allocator<int> > > >,0> >::~_Tree<std::_Tmap_traits<unsigned long,std::vector<int,std::allocator<int> >,std::less<unsigned long>,std::allocator<std::pair<unsigned long const ,std::vector<int,std::allocator<int> > > >,0> >
PUBLIC	?end@?$_Tree@V?$_Tmap_traits@KV?$vector@HV?$allocator@H@std@@@std@@U?$less@K@2@V?$allocator@U?$pair@$$CBKV?$vector@HV?$allocator@H@std@@@std@@@std@@@2@$0A@@std@@@std@@QAE?AV?$_Tree_iterator@V?$_Tree_val@U?$_Tree_simple_types@U?$pair@$$CBKV?$vector@HV?$allocator@H@std@@@std@@@std@@@std@@@std@@@2@XZ ; std::_Tree<std::_Tmap_traits<unsigned long,std::vector<int,std::allocator<int> >,std::less<unsigned long>,std::allocator<std::pair<unsigned long const ,std::vector<int,std::allocator<int> > > >,0> >::end
PUBLIC	?find@?$_Tree@V?$_Tmap_traits@KV?$vector@HV?$allocator@H@std@@@std@@U?$less@K@2@V?$allocator@U?$pair@$$CBKV?$vector@HV?$allocator@H@std@@@std@@@std@@@2@$0A@@std@@@std@@QAE?AV?$_Tree_iterator@V?$_Tree_val@U?$_Tree_simple_types@U?$pair@$$CBKV?$vector@HV?$allocator@H@std@@@std@@@std@@@std@@@std@@@2@ABK@Z ; std::_Tree<std::_Tmap_traits<unsigned long,std::vector<int,std::allocator<int> >,std::less<unsigned long>,std::allocator<std::pair<unsigned long const ,std::vector<int,std::allocator<int> > > >,0> >::find
PUBLIC	??8?$_Tree_const_iterator@V?$_Tree_val@U?$_Tree_simple_types@U?$pair@$$CBKV?$vector@HV?$allocator@H@std@@@std@@@std@@@std@@@std@@@std@@QBE_NABV01@@Z ; std::_Tree_const_iterator<std::_Tree_val<std::_Tree_simple_types<std::pair<unsigned long const ,std::vector<int,std::allocator<int> > > > > >::operator==
PUBLIC	??C?$_Tree_iterator@V?$_Tree_val@U?$_Tree_simple_types@U?$pair@$$CBKV?$vector@HV?$allocator@H@std@@@std@@@std@@@std@@@std@@@std@@QBEPAU?$pair@$$CBKV?$vector@HV?$allocator@H@std@@@std@@@1@XZ ; std::_Tree_iterator<std::_Tree_val<std::_Tree_simple_types<std::pair<unsigned long const ,std::vector<int,std::allocator<int> > > > > >::operator->
PUBLIC	??$emplace@PBDAAV?$map@KV?$vector@HV?$allocator@H@std@@@std@@U?$less@K@2@V?$allocator@U?$pair@$$CBKV?$vector@HV?$allocator@H@std@@@std@@@std@@@2@@std@@@?$_Tree@V?$_Tmap_traits@V?$basic_string@DU?$char_traits@D@std@@V?$allocator@D@2@@std@@V?$map@KV?$vector@HV?$allocator@H@std@@@std@@U?$less@K@2@V?$allocator@U?$pair@$$CBKV?$vector@HV?$allocator@H@std@@@std@@@std@@@2@@2@U?$less@V?$basic_string@DU?$char_traits@D@std@@V?$allocator@D@2@@std@@@2@V?$allocator@U?$pair@$$CBV?$basic_string@DU?$char_traits@D@std@@V?$allocator@D@2@@std@@V?$map@KV?$vector@HV?$allocator@H@std@@@std@@U?$less@K@2@V?$allocator@U?$pair@$$CBKV?$vector@HV?$allocator@H@std@@@std@@@std@@@2@@2@@std@@@2@$0A@@std@@@std@@QAE?AU?$pair@V?$_Tree_iterator@V?$_Tree_val@U?$_Tree_simple_types@U?$pair@$$CBV?$basic_string@DU?$char_traits@D@std@@V?$allocator@D@2@@std@@V?$map@KV?$vector@HV?$allocator@H@std@@@std@@U?$less@K@2@V?$allocator@U?$pair@$$CBKV?$vector@HV?$allocator@H@std@@@std@@@std@@@2@@2@@std@@@std@@@std@@@std@@_N@1@$$QAPBDAAV?$map@KV?$vector@HV?$allocator@H@std@@@std@@U?$less@K@2@V?$allocator@U?$pair@$$CBKV?$vector@HV?$allocator@H@std@@@std@@@std@@@2@@1@@Z ; std::_Tree<std::_Tmap_traits<std::basic_string<char,std::char_traits<char>,std::allocator<char> >,std::map<unsigned long,std::vector<int,std::allocator<int> >,std::less<unsigned long>,std::allocator<std::pair<unsigned long const ,std::vector<int,std::allocator<int> > > > >,std::less<std::basic_string<char,std::char_traits<char>,std::allocator<char> > >,std::allocator<std::pair<std::basic_string<char,std::char_traits<char>,std::allocator<char> > const ,std::map<unsigned long,std::vector<int,std::allocator<int> >,std::less<unsigned long>,std::allocator<std::pair<unsigned long const ,std::vector<int,std::allocator<int> > > > > > >,0> >::emplace<char const *,std::map<unsigned long,std::vector<int,std::allocator<int> >,std::less<unsigned long>,std::allocator<std::pair<unsigned long const ,std::vector<int,std::allocator<int> > > > > &>
PUBLIC	??$emplace@ABKAAV?$vector@HV?$allocator@H@std@@@std@@@?$_Tree@V?$_Tmap_traits@KV?$vector@HV?$allocator@H@std@@@std@@U?$less@K@2@V?$allocator@U?$pair@$$CBKV?$vector@HV?$allocator@H@std@@@std@@@std@@@2@$0A@@std@@@std@@QAE?AU?$pair@V?$_Tree_iterator@V?$_Tree_val@U?$_Tree_simple_types@U?$pair@$$CBKV?$vector@HV?$allocator@H@std@@@std@@@std@@@std@@@std@@@std@@_N@1@ABKAAV?$vector@HV?$allocator@H@std@@@1@@Z ; std::_Tree<std::_Tmap_traits<unsigned long,std::vector<int,std::allocator<int> >,std::less<unsigned long>,std::allocator<std::pair<unsigned long const ,std::vector<int,std::allocator<int> > > >,0> >::emplace<unsigned long const &,std::vector<int,std::allocator<int> > &>
PUBLIC	??$insert@$0A@$0A@@?$_Tree@V?$_Tmap_traits@KPAUSMobScaleTable@CPythonNonPlayer@@U?$less@K@std@@V?$allocator@U?$pair@$$CBKPAUSMobScaleTable@CPythonNonPlayer@@@std@@@4@$0A@@std@@@std@@QAE?AU?$pair@V?$_Tree_iterator@V?$_Tree_val@U?$_Tree_simple_types@U?$pair@$$CBKPAUSMobScaleTable@CPythonNonPlayer@@@std@@@std@@@std@@@std@@_N@1@$$QAU?$pair@$$CBKPAUSMobScaleTable@CPythonNonPlayer@@@1@@Z ; std::_Tree<std::_Tmap_traits<unsigned long,CPythonNonPlayer::SMobScaleTable *,std::less<unsigned long>,std::allocator<std::pair<unsigned long const ,CPythonNonPlayer::SMobScaleTable *> >,0> >::insert<0,0>
PUBLIC	??$?0AAKAAPAUSMobScaleTable@CPythonNonPlayer@@$0A@@?$pair@$$CBKPAUSMobScaleTable@CPythonNonPlayer@@@std@@QAE@AAKAAPAUSMobScaleTable@CPythonNonPlayer@@@Z ; std::pair<unsigned long const ,CPythonNonPlayer::SMobScaleTable *>::pair<unsigned long const ,CPythonNonPlayer::SMobScaleTable *><unsigned long &,CPythonNonPlayer::SMobScaleTable * &,0>
PUBLIC	??$insert@$0A@$0A@@?$_Tree@V?$_Tmap_traits@KPAUSMobTable@CPythonNonPlayer@@U?$less@K@std@@V?$allocator@U?$pair@$$CBKPAUSMobTable@CPythonNonPlayer@@@std@@@4@$0A@@std@@@std@@QAE?AU?$pair@V?$_Tree_iterator@V?$_Tree_val@U?$_Tree_simple_types@U?$pair@$$CBKPAUSMobTable@CPythonNonPlayer@@@std@@@std@@@std@@@std@@_N@1@$$QAU?$pair@$$CBKPAUSMobTable@CPythonNonPlayer@@@1@@Z ; std::_Tree<std::_Tmap_traits<unsigned long,CPythonNonPlayer::SMobTable *,std::less<unsigned long>,std::allocator<std::pair<unsigned long const ,CPythonNonPlayer::SMobTable *> >,0> >::insert<0,0>
PUBLIC	??$?0AAKAAPAUSMobTable@CPythonNonPlayer@@$0A@@?$pair@$$CBKPAUSMobTable@CPythonNonPlayer@@@std@@QAE@AAKAAPAUSMobTable@CPythonNonPlayer@@@Z ; std::pair<unsigned long const ,CPythonNonPlayer::SMobTable *>::pair<unsigned long const ,CPythonNonPlayer::SMobTable *><unsigned long &,CPythonNonPlayer::SMobTable * &,0>
PUBLIC	??1?$map@V?$basic_string@DU?$char_traits@D@std@@V?$allocator@D@2@@std@@V?$map@KV?$vector@HV?$allocator@H@std@@@std@@U?$less@K@2@V?$allocator@U?$pair@$$CBKV?$vector@HV?$allocator@H@std@@@std@@@std@@@2@@2@U?$less@V?$basic_string@DU?$char_traits@D@std@@V?$allocator@D@2@@std@@@2@V?$allocator@U?$pair@$$CBV?$basic_string@DU?$char_traits@D@std@@V?$allocator@D@2@@std@@V?$map@KV?$vector@HV?$allocator@H@std@@@std@@U?$less@K@2@V?$allocator@U?$pair@$$CBKV?$vector@HV?$allocator@H@std@@@std@@@std@@@2@@2@@std@@@2@@std@@QAE@XZ ; std::map<std::basic_string<char,std::char_traits<char>,std::allocator<char> >,std::map<unsigned long,std::vector<int,std::allocator<int> >,std::less<unsigned long>,std::allocator<std::pair<unsigned long const ,std::vector<int,std::allocator<int> > > > >,std::less<std::basic_string<char,std::char_traits<char>,std::allocator<char> > >,std::allocator<std::pair<std::basic_string<char,std::char_traits<char>,std::allocator<char> > const ,std::map<unsigned long,std::vector<int,std::allocator<int> >,std::less<unsigned long>,std::allocator<std::pair<unsigned long const ,std::vector<int,std::allocator<int> > > > > > > >::~map<std::basic_string<char,std::char_traits<char>,std::allocator<char> >,std::map<unsigned long,std::vector<int,std::allocator<int> >,std::less<unsigned long>,std::allocator<std::pair<unsigned long const ,std::vector<int,std::allocator<int> > > > >,std::less<std::basic_string<char,std::char_traits<char>,std::allocator<char> > >,std::allocator<std::pair<std::basic_string<char,std::char_traits<char>,std::allocator<char> > const ,std::map<unsigned long,std::vector<int,std::allocator<int> >,std::less<unsigned long>,std::allocator<std::pair<unsigned long const ,std::vector<int,std::allocator<int> > > > > > > >
PUBLIC	??1?$map@KPAUSMobScaleTable@CPythonNonPlayer@@U?$less@K@std@@V?$allocator@U?$pair@$$CBKPAUSMobScaleTable@CPythonNonPlayer@@@std@@@4@@std@@QAE@XZ ; std::map<unsigned long,CPythonNonPlayer::SMobScaleTable *,std::less<unsigned long>,std::allocator<std::pair<unsigned long const ,CPythonNonPlayer::SMobScaleTable *> > >::~map<unsigned long,CPythonNonPlayer::SMobScaleTable *,std::less<unsigned long>,std::allocator<std::pair<unsigned long const ,CPythonNonPlayer::SMobScaleTable *> > >
PUBLIC	??_GCPythonNonPlayer@@UAEPAXI@Z			; CPythonNonPlayer::`scalar deleting destructor'
PUBLIC	?Clear@CPythonNonPlayer@@QAEXXZ			; CPythonNonPlayer::Clear
PUBLIC	??1?$map@KV?$vector@HV?$allocator@H@std@@@std@@U?$less@K@2@V?$allocator@U?$pair@$$CBKV?$vector@HV?$allocator@H@std@@@std@@@std@@@2@@std@@QAE@XZ ; std::map<unsigned long,std::vector<int,std::allocator<int> >,std::less<unsigned long>,std::allocator<std::pair<unsigned long const ,std::vector<int,std::allocator<int> > > > >::~map<unsigned long,std::vector<int,std::allocator<int> >,std::less<unsigned long>,std::allocator<std::pair<unsigned long const ,std::vector<int,std::allocator<int> > > > >
PUBLIC	?IsMonsterStone@CPythonNonPlayer@@QAE_NK@Z	; CPythonNonPlayer::IsMonsterStone
PUBLIC	?GetMonsterDX@CPythonNonPlayer@@QAEKK@Z		; CPythonNonPlayer::GetMonsterDX
PUBLIC	?GetMonsterST@CPythonNonPlayer@@QAEKK@Z		; CPythonNonPlayer::GetMonsterST
PUBLIC	?GetMonsterDamageMultiply@CPythonNonPlayer@@QAEMK@Z ; CPythonNonPlayer::GetMonsterDamageMultiply
PUBLIC	?GetMonsterExp@CPythonNonPlayer@@QAEKK@Z	; CPythonNonPlayer::GetMonsterExp
PUBLIC	?GetMonsterDamage2@CPythonNonPlayer@@QAEKK@Z	; CPythonNonPlayer::GetMonsterDamage2
PUBLIC	?GetMonsterDamage1@CPythonNonPlayer@@QAEKK@Z	; CPythonNonPlayer::GetMonsterDamage1
PUBLIC	?GetMonsterLevel@CPythonNonPlayer@@QAEKK@Z	; CPythonNonPlayer::GetMonsterLevel
PUBLIC	?GetMonsterRaceFlag@CPythonNonPlayer@@QAEKK@Z	; CPythonNonPlayer::GetMonsterRaceFlag
PUBLIC	?GetMonsterMaxHP@CPythonNonPlayer@@QAEKK@Z	; CPythonNonPlayer::GetMonsterMaxHP
PUBLIC	?GetMonsterResist@CPythonNonPlayer@@QAEDKE@Z	; CPythonNonPlayer::GetMonsterResist
PUBLIC	?GetMonsterPrice2@CPythonNonPlayer@@QAEKK@Z	; CPythonNonPlayer::GetMonsterPrice2
PUBLIC	?GetMonsterPrice1@CPythonNonPlayer@@QAEKK@Z	; CPythonNonPlayer::GetMonsterPrice1
PUBLIC	?GetScaleTable@CPythonNonPlayer@@QAEPBUSMobScaleTable@1@K@Z ; CPythonNonPlayer::GetScaleTable
PUBLIC	?MonsterHasRaceFlag@CPythonNonPlayer@@QAE_NKPBD@Z ; CPythonNonPlayer::MonsterHasRaceFlag
PUBLIC	?GetMonsterName@CPythonNonPlayer@@QAEPBDK@Z	; CPythonNonPlayer::GetMonsterName
PUBLIC	?GetEventTypeByVID@CPythonNonPlayer@@QAEEK@Z	; CPythonNonPlayer::GetEventTypeByVID
PUBLIC	??1?$map@KPAUSMobTable@CPythonNonPlayer@@U?$less@K@std@@V?$allocator@U?$pair@$$CBKPAUSMobTable@CPythonNonPlayer@@@std@@@4@@std@@QAE@XZ ; std::map<unsigned long,CPythonNonPlayer::SMobTable *,std::less<unsigned long>,std::allocator<std::pair<unsigned long const ,CPythonNonPlayer::SMobTable *> > >::~map<unsigned long,CPythonNonPlayer::SMobTable *,std::less<unsigned long>,std::allocator<std::pair<unsigned long const ,CPythonNonPlayer::SMobTable *> > >
PUBLIC	?GetTable@CPythonNonPlayer@@QAEPBUSMobTable@1@K@Z ; CPythonNonPlayer::GetTable
PUBLIC	?GetEventType@CPythonNonPlayer@@QAEEK@Z		; CPythonNonPlayer::GetEventType
PUBLIC	??0CPythonNonPlayer@@QAE@XZ			; CPythonNonPlayer::CPythonNonPlayer
PUBLIC	??1CPythonNonPlayer@@UAE@XZ			; CPythonNonPlayer::~CPythonNonPlayer
PUBLIC	?Destroy@CPythonNonPlayer@@QAEXXZ		; CPythonNonPlayer::Destroy
PUBLIC	?LoadNonPlayerData@CPythonNonPlayer@@QAE_NPBD@Z	; CPythonNonPlayer::LoadNonPlayerData
PUBLIC	?LoadMobScale@CPythonNonPlayer@@QAE_NPBD@Z	; CPythonNonPlayer::LoadMobScale
PUBLIC	?LoadNPCWear@CPythonNonPlayer@@QAE_NPBD@Z	; CPythonNonPlayer::LoadNPCWear
PUBLIC	?GetInstanceType@CPythonNonPlayer@@QAE_NKPAE@Z	; CPythonNonPlayer::GetInstanceType
PUBLIC	?GetNPCWear@CPythonNonPlayer@@QAEHHE@Z		; CPythonNonPlayer::GetNPCWear
PUBLIC	?GetScale@CPythonNonPlayer@@QAE_NKAAM00@Z	; CPythonNonPlayer::GetScale
PUBLIC	?GetMonsterRank@CPythonNonPlayer@@QAEKK@Z	; CPythonNonPlayer::GetMonsterRank
PUBLIC	?GetMonsterType@CPythonNonPlayer@@QAEKK@Z	; CPythonNonPlayer::GetMonsterType
PUBLIC	?GetMonsterColor@CPythonNonPlayer@@QAEKK@Z	; CPythonNonPlayer::GetMonsterColor
PUBLIC	?GetName@CPythonNonPlayer@@QAE_NKPAPBD@Z	; CPythonNonPlayer::GetName
EXTRN	??_ECPythonNonPlayer@@UAEPAXI@Z:PROC		; CPythonNonPlayer::`vector deleting destructor'
EXTRN	??_E?$CSingleton@VCPythonNonPlayer@@@@UAEPAXI@Z:PROC ; CSingleton<CPythonNonPlayer>::`vector deleting destructor'
;	COMDAT xdata$x
xdata$x	SEGMENT
__ehfuncinfo$?LoadNPCWear@CPythonNonPlayer@@QAE_NPBD@Z DQ 00000000819930522r ; 1.7188e-313
	DD	FLAT:__unwindtable$?LoadNPCWear@CPythonNonPlayer@@QAE_NPBD@Z
	DQ	00000000000000000r		; 0
	DQ	00000000000000000r		; 0
	DQ	00000000100000000r		; 2.122e-314
	ORG $+4
__unwindtable$?LoadNPCWear@CPythonNonPlayer@@QAE_NPBD@Z DD 0ffffffffH
	DD	FLAT:__unwindfunclet$?LoadNPCWear@CPythonNonPlayer@@QAE_NPBD@Z$0
	DD	00H
	DD	FLAT:__unwindfunclet$?LoadNPCWear@CPythonNonPlayer@@QAE_NPBD@Z$1
	DD	01H
	DD	FLAT:__unwindfunclet$?LoadNPCWear@CPythonNonPlayer@@QAE_NPBD@Z$2
	DD	02H
	DD	FLAT:__unwindfunclet$?LoadNPCWear@CPythonNonPlayer@@QAE_NPBD@Z$3
	DD	03H
	DD	FLAT:__unwindfunclet$?LoadNPCWear@CPythonNonPlayer@@QAE_NPBD@Z$5
	DD	04H
	DD	FLAT:__unwindfunclet$?LoadNPCWear@CPythonNonPlayer@@QAE_NPBD@Z$12
	DD	04H
	DD	FLAT:__unwindfunclet$?LoadNPCWear@CPythonNonPlayer@@QAE_NPBD@Z$11
	DD	04H
	DD	FLAT:__unwindfunclet$?LoadNPCWear@CPythonNonPlayer@@QAE_NPBD@Z$17
xdata$x	ENDS
;	COMDAT xdata$x
xdata$x	SEGMENT
__ehfuncinfo$?LoadMobScale@CPythonNonPlayer@@QAE_NPBD@Z DQ 00000000419930522r ; 8.69997e-314
	DD	FLAT:__unwindtable$?LoadMobScale@CPythonNonPlayer@@QAE_NPBD@Z
	DQ	00000000000000000r		; 0
	DQ	00000000000000000r		; 0
	DQ	00000000100000000r		; 2.122e-314
__unwindtable$?LoadMobScale@CPythonNonPlayer@@QAE_NPBD@Z DD 0ffffffffH
	DD	FLAT:__unwindfunclet$?LoadMobScale@CPythonNonPlayer@@QAE_NPBD@Z$0
	DD	00H
	DD	FLAT:__unwindfunclet$?LoadMobScale@CPythonNonPlayer@@QAE_NPBD@Z$1
	DD	01H
	DD	FLAT:__unwindfunclet$?LoadMobScale@CPythonNonPlayer@@QAE_NPBD@Z$2
	DD	02H
	DD	FLAT:__unwindfunclet$?LoadMobScale@CPythonNonPlayer@@QAE_NPBD@Z$5
xdata$x	ENDS
;	COMDAT xdata$x
xdata$x	SEGMENT
__ehfuncinfo$?LoadNonPlayerData@CPythonNonPlayer@@QAE_NPBD@Z DQ 00000000219930522r ; 4.45598e-314
	DD	FLAT:__unwindtable$?LoadNonPlayerData@CPythonNonPlayer@@QAE_NPBD@Z
	DQ	00000000000000000r		; 0
	DQ	00000000000000000r		; 0
	DQ	00000000100000000r		; 2.122e-314
__unwindtable$?LoadNonPlayerData@CPythonNonPlayer@@QAE_NPBD@Z DD 0ffffffffH
	DD	FLAT:__unwindfunclet$?LoadNonPlayerData@CPythonNonPlayer@@QAE_NPBD@Z$0
	DD	00H
