; Listing generated by Microsoft (R) Optimizing Compiler Version 19.44.35219.0 

	TITLE	c:\anka2project\anka2project\source\binary\vs_files\userinterface\release\pythondynamicmodulenames.obj
	.686P
	.XMM
	include listing.inc
	.model	flat

INCLUDELIB OLDNAMES

EXTRN	?isExistInPack@CEterPackManager@@QAE_NPBD@Z:PROC ; CEterPackManager::isExistInPack
EXTRN	__imp__PyString_AsString:PROC
EXTRN	__imp__PyThreadState_Get:PROC
;	COMDAT ?s_methods@?1??initPythonApi@@YAXXZ@4PAUPyMethodDef@@A
_BSS	SEGMENT
?s_methods@?1??initPythonApi@@YAXXZ@4PAUPyMethodDef@@A DB 020H DUP (?) ; `initPythonApi'::`2'::s_methods
_BSS	ENDS
PUBLIC	??A?$basic_string@DU?$char_traits@D@std@@V?$allocator@D@2@@std@@QAEAADI@Z ; std::basic_string<char,std::char_traits<char>,std::allocator<char> >::operator[]
PUBLIC	?initPythonApi@@YAXXZ				; initPythonApi
PUBLIC	?pythonApiGetModuleName@@YAPAU_object@@PAU1@0@Z	; pythonApiGetModuleName
PUBLIC	?CreateModuleNames@@YAXXZ			; CreateModuleNames
PUBLIC	?CreateModuleName@@YA?AV?$basic_string@DU?$char_traits@D@std@@V?$allocator@D@2@@std@@XZ ; CreateModuleName
PUBLIC	?IsUsedName@@YA_NV?$basic_string@DU?$char_traits@D@std@@V?$allocator@D@2@@std@@@Z ; IsUsedName
PUBLIC	??__Fcharset@?1??randomStrGen@@YA?AV?$basic_string@DU?$char_traits@D@std@@V?$allocator@D@2@@std@@H@Z@YAXXZ ; `randomStrGen'::`2'::`dynamic atexit destructor for 'charset''
PUBLIC	?randomStrGen@@YA?AV?$basic_string@DU?$char_traits@D@std@@V?$allocator@D@2@@std@@H@Z ; randomStrGen
PUBLIC	?GetCallerReference_FileName@@YAPBDXZ		; GetCallerReference_FileName
PUBLIC	?GetModuleName@@YA?AV?$basic_string@DU?$char_traits@D@std@@V?$allocator@D@2@@std@@H@Z ; GetModuleName
PUBLIC	?szModuleArray@@3PAV?$basic_string@DU?$char_traits@D@std@@V?$allocator@D@2@@std@@A ; szModuleArray
PUBLIC	?$TSS0@?1??randomStrGen@@YA?AV?$basic_string@DU?$char_traits@D@std@@V?$allocator@D@2@@std@@H@Z@4HA ; `randomStrGen'::`2'::$TSS0
PUBLIC	?charset@?1??randomStrGen@@YA?AV?$basic_string@DU?$char_traits@D@std@@V?$allocator@D@2@@std@@H@Z@4V23@A ; `randomStrGen'::`2'::charset
;	COMDAT ?$TSS0@?1??randomStrGen@@YA?AV?$basic_string@DU?$char_traits@D@std@@V?$allocator@D@2@@std@@H@Z@4HA
_BSS	SEGMENT
?$TSS0@?1??randomStrGen@@YA?AV?$basic_string@DU?$char_traits@D@std@@V?$allocator@D@2@@std@@H@Z@4HA DD 01H DUP (?) ; `randomStrGen'::`2'::$TSS0
_BSS	ENDS
;	COMDAT ?charset@?1??randomStrGen@@YA?AV?$basic_string@DU?$char_traits@D@std@@V?$allocator@D@2@@std@@H@Z@4V23@A
_BSS	SEGMENT
?charset@?1??randomStrGen@@YA?AV?$basic_string@DU?$char_traits@D@std@@V?$allocator@D@2@@std@@H@Z@4V23@A DB 018H DUP (?) ; `randomStrGen'::`2'::charset
_BSS	ENDS
;	COMDAT ?$TSS0@?1??initPythonApi@@YAXXZ@4HA
_BSS	SEGMENT
?$TSS0@?1??initPythonApi@@YAXXZ@4HA DD 01H DUP (?)	; `initPythonApi'::`2'::$TSS0
_BSS	ENDS
;	COMDAT xdata$x
xdata$x	SEGMENT
__ehfuncinfo$?randomStrGen@@YA?AV?$basic_string@DU?$char_traits@D@std@@V?$allocator@D@2@@std@@H@Z DQ 00000000219930522r ; 4.45598e-314
	DD	FLAT:__unwindtable$?randomStrGen@@YA?AV?$basic_string@DU?$char_traits@D@std@@V?$allocator@D@2@@std@@H@Z
	DQ	00000000000000000r		; 0
	DQ	00000000000000000r		; 0
	DQ	00000000100000000r		; 2.122e-314
__unwindtable$?randomStrGen@@YA?AV?$basic_string@DU?$char_traits@D@std@@V?$allocator@D@2@@std@@H@Z DD 0ffffffffH
	DD	FLAT:__unwindfunclet$?randomStrGen@@YA?AV?$basic_string@DU?$char_traits@D@std@@V?$allocator@D@2@@std@@H@Z$1
	DD	00H
	DD	FLAT:__unwindfunclet$?randomStrGen@@YA?AV?$basic_string@DU?$char_traits@D@std@@V?$allocator@D@2@@std@@H@Z$0
xdata$x	ENDS
;	COMDAT xdata$x
xdata$x	SEGMENT
__ehfuncinfo$?CreateModuleName@@YA?AV?$basic_string@DU?$char_traits@D@std@@V?$allocator@D@2@@std@@XZ DQ 00000000119930522r ; 2.33398e-314
	DD	FLAT:__unwindtable$?CreateModuleName@@YA?AV?$basic_string@DU?$char_traits@D@std@@V?$allocator@D@2@@std@@XZ
	DQ	00000000000000000r		; 0
	DQ	00000000000000000r		; 0
	DQ	00000000100000000r		; 2.122e-314
__unwindtable$?CreateModuleName@@YA?AV?$basic_string@DU?$char_traits@D@std@@V?$allocator@D@2@@std@@XZ DD 0ffffffffH
	DD	FLAT:__unwindfunclet$?CreateModuleName@@YA?AV?$basic_string@DU?$char_traits@D@std@@V?$allocator@D@2@@std@@XZ$0
xdata$x	ENDS
;	COMDAT xdata$x
xdata$x	SEGMENT
__ehfuncinfo$?CreateModuleNames@@YAXXZ DQ 00000000119930522r ; 2.33398e-314
	DD	FLAT:__unwindtable$?CreateModuleNames@@YAXXZ
	DQ	00000000000000000r		; 0
	DQ	00000000000000000r		; 0
	DQ	00000000100000000r		; 2.122e-314
__unwindtable$?CreateModuleNames@@YAXXZ DD 0ffffffffH
	DD	FLAT:__unwindfunclet$?CreateModuleNames@@YAXXZ$2
xdata$x	ENDS
;	COMDAT xdata$x
xdata$x	SEGMENT
__ehfuncinfo$?initPythonApi@@YAXXZ DD 019930522H
	DD	01H
	DD	FLAT:__unwindtable$?initPythonApi@@YAXXZ
	DD	2 DUP(00H)
	DD	2 DUP(00H)
	DD	00H
	DD	01H
__unwindtable$?initPythonApi@@YAXXZ DD 0ffffffffH
	DD	FLAT:__unwindfunclet$?initPythonApi@@YAXXZ$1
	ORG $+172
?szModuleArray@@3PAV?$basic_string@DU?$char_traits@D@std@@V?$allocator@D@2@@std@@A DB 00H ; szModuleArray
	DB	00H
	DB	00H
	DB	00H
	DB	00H
	DB	00H
	DB	00H
	DB	00H
	DB	00H
	DB	00H
	DB	00H
	DB	00H
	DB	00H
	DB	00H
	DB	00H
	DB	00H
	DD	00H
	DD	0fH
	DB	00H
	DB	00H
	DB	00H
	DB	00H
	DB	00H
	DB	00H
	DB	00H
	DB	00H
	DB	00H
	DB	00H
	DB	00H
	DB	00H
	DB	00H
	DB	00H
	DB	00H
	DB	00H
	DD	00H
	DD	0fH
	DB	00H
	DB	00H
	DB	00H
	DB	00H
	DB	00H
	DB	00H
	DB	00H
	DB	00H
	DB	00H
	DB	00H
	DB	00H
	DB	00H
	DB	00H
	DB	00H
	DB	00H
	DB	00H
	DD	00H
	DD	0fH
	DB	00H
	DB	00H
	DB	00H
	DB	00H
	DB	00H
	DB	00H
	DB	00H
	DB	00H
	DB	00H
	DB	00H
	DB	00H
	DB	00H
	DB	00H
	DB	00H
	DB	00H
	DB	00H
	DD	00H
	DD	0fH
	DB	00H
	DB	00H
	DB	00H
	DB	00H
	DB	00H
	DB	00H
	DB	00H
	DB	00H
	DB	00H
	DB	00H
	DB	00H
	DB	00H
	DB	00H
	DB	00H
	DB	00H
	DB	00H
	DD	00H
	DD	0fH
	DB	00H
	DB	00H
	DB	00H
	DB	00H
	DB	00H
	DB	00H
	DB	00H
	DB	00H
	DB	00H
	DB	00H
	DB	00H
	DB	00H
	DB	00H
	DB	00H
	DB	00H
	DB	00H
	DD	00H
	DD	0fH
?szModuleArray$initializer$@@3P6AXXZA DD FLAT:??__EszModuleArray@@YAXXZ ; szModuleArray$initializer$
; Function compile flags: /Odtp
; File C:\Anka2Project\Anka2Project\Source\Binary\source\UserInterface\PythonDynamicModuleNames.cpp
;	COMDAT ??__EszModuleArray@@YAXXZ
text$di	SEGMENT
??__EszModuleArray@@YAXXZ PROC				; `dynamic initializer for 'szModuleArray'', COMDAT

; 13   : std::string szModuleArray[MODULE_MAX] = {};

  00000	55		 push	 ebp
  00001	8b ec		 mov	 ebp, esp
  00003	68 00 00 00 00	 push	 OFFSET ??__FszModuleArray@@YAXXZ ; `dynamic atexit destructor for 'szModuleArray''
  00008	e8 00 00 00 00	 call	 _atexit
  0000d	83 c4 04	 add	 esp, 4
  00010	5d		 pop	 ebp
  00011	c3		 ret	 0
??__EszModuleArray@@YAXXZ ENDP				; `dynamic initializer for 'szModuleArray''
text$di	ENDS
; Function compile flags: /Odtp
;	COMDAT ??__FszModuleArray@@YAXXZ
text$yd	SEGMENT
??__FszModuleArray@@YAXXZ PROC				; `dynamic atexit destructor for 'szModuleArray'', COMDAT
  00000	55		 push	 ebp
  00001	8b ec		 mov	 ebp, esp
  00003	68 00 00 00 00	 push	 OFFSET ??1?$basic_string@DU?$char_traits@D@std@@V?$allocator@D@2@@std@@QAE@XZ ; std::basic_string<char,std::char_traits<char>,std::allocator<char> >::~basic_string<char,std::char_traits<char>,std::allocator<char> >
  00008	6a 06		 push	 6
  0000a	6a 18		 push	 24			; 00000018H
  0000c	68 00 00 00 00	 push	 OFFSET ?szModuleArray@@3PAV?$basic_string@DU?$char_traits@D@std@@V?$allocator@D@2@@std@@A ; szModuleArray
  00011	e8 00 00 00 00	 call	 ??_M@YGXPAXIIP6EX0@Z@Z
  00016	90		 npad	 1
  00017	5d		 pop	 ebp
  00018	c3		 ret	 0
??__FszModuleArray@@YAXXZ ENDP				; `dynamic atexit destructor for 'szModuleArray''
text$yd	ENDS
; Function compile flags: /Odtp
; File C:\Anka2Project\Anka2Project\Source\Binary\source\UserInterface\PythonDynamicModuleNames.cpp
;	COMDAT ?GetCallerReference_FileName@@YAPBDXZ
_TEXT	SEGMENT
_c_szCallerFileName$ = -12				; size = 4
_pFrameObject$ = -8					; size = 4
_pThreadState$ = -4					; size = 4
?GetCallerReference_FileName@@YAPBDXZ PROC		; GetCallerReference_FileName, COMDAT

; 16   : {

  00000	55		 push	 ebp
  00001	8b ec		 mov	 ebp, esp
  00003	83 ec 0c	 sub	 esp, 12			; 0000000cH

; 17   : 	PyThreadState* pThreadState = PyThreadState_Get();

  00006	ff 15 00 00 00
	00		 call	 DWORD PTR __imp__PyThreadState_Get
  0000c	89 45 fc	 mov	 DWORD PTR _pThreadState$[ebp], eax

; 18   : 	PyFrameObject* pFrameObject = pThreadState->frame;

  0000f	8b 45 fc	 mov	 eax, DWORD PTR _pThreadState$[ebp]
  00012	8b 48 08	 mov	 ecx, DWORD PTR [eax+8]
  00015	89 4d f8	 mov	 DWORD PTR _pFrameObject$[ebp], ecx

; 19   : 
; 20   : 	char const* c_szCallerFileName = PyString_AsString(pFrameObject->f_code->co_filename);

  00018	8b 55 f8	 mov	 edx, DWORD PTR _pFrameObject$[ebp]
  0001b	8b 42 10	 mov	 eax, DWORD PTR [edx+16]
  0001e	8b 48 30	 mov	 ecx, DWORD PTR [eax+48]
  00021	51		 push	 ecx
  00022	ff 15 00 00 00
	00		 call	 DWORD PTR __imp__PyString_AsString
  00028	83 c4 04	 add	 esp, 4
  0002b	89 45 f4	 mov	 DWORD PTR _c_szCallerFileName$[ebp], eax

; 21   : 	return c_szCallerFileName;

  0002e	8b 45 f4	 mov	 eax, DWORD PTR _c_szCallerFileName$[ebp]

; 22   : }

  00031	8b e5		 mov	 esp, ebp
  00033	5d		 pop	 ebp
  00034	c3		 ret	 0
?GetCallerReference_FileName@@YAPBDXZ ENDP		; GetCallerReference_FileName
_TEXT	ENDS
; Function compile flags: /Odtp
;	COMDAT ??__Fcharset@?1??randomStrGen@@YA?AV?$basic_string@DU?$char_traits@D@std@@V?$allocator@D@2@@std@@H@Z@YAXXZ
text$yd	SEGMENT
??__Fcharset@?1??randomStrGen@@YA?AV?$basic_string@DU?$char_traits@D@std@@V?$allocator@D@2@@std@@H@Z@YAXXZ PROC ; `randomStrGen'::`2'::`dynamic atexit destructor for 'charset'', COMDAT
  00000	55		 push	 ebp
  00001	8b ec		 mov	 ebp, esp
  00003	b9 00 00 00 00	 mov	 ecx, OFFSET ?charset@?1??randomStrGen@@YA?AV?$basic_string@DU?$char_traits@D@std@@V?$allocator@D@2@@std@@H@Z@4V23@A ; `randomStrGen'::`2'::charset
  00008	e8 00 00 00 00	 call	 ??1?$basic_string@DU?$char_traits@D@std@@V?$allocator@D@2@@std@@QAE@XZ ; std::basic_string<char,std::char_traits<char>,std::allocator<char> >::~basic_string<char,std::char_traits<char>,std::allocator<char> >
  0000d	90		 npad	 1
  0000e	5d		 pop	 ebp
  0000f	c3		 ret	 0
??__Fcharset@?1??randomStrGen@@YA?AV?$basic_string@DU?$char_traits@D@std@@V?$allocator@D@2@@std@@H@Z@YAXXZ ENDP ; `randomStrGen'::`2'::`dynamic atexit destructor for 'charset''
text$yd	ENDS
; Function compile flags: /Ogtp
; File C:\Anka2Project\Anka2Project\Source\Binary\source\UserInterface\PythonDynamicModuleNames.cpp
; File C:\Anka2Project\Anka2Project\Source\Binary\source\eterBase\Singleton.h
; File C:\Anka2Project\Anka2Project\Source\Binary\source\UserInterface\PythonDynamicModuleNames.cpp
; File C:\Anka2Project\Anka2Project\Source\Binary\source\eterBase\Singleton.h
; File C:\Anka2Project\Anka2Project\Source\Binary\source\UserInterface\PythonDynamicModuleNames.cpp
; File C:\Program Files\Microsoft Visual Studio\2022\Community\VC\Tools\MSVC\14.44.35207\include\xstring
; File C:\Anka2Project\Anka2Project\Source\Binary\source\UserInterface\PythonDynamicModuleNames.cpp
; File C:\Program Files\Microsoft Visual Studio\2022\Community\VC\Tools\MSVC\14.44.35207\include\xstring
; File C:\Anka2Project\Anka2Project\Source\Binary\source\UserInterface\PythonDynamicModuleNames.cpp
; File C:\Program Files\Microsoft Visual Studio\2022\Community\VC\Tools\MSVC\14.44.35207\include\xstring
; File C:\Anka2Project\Anka2Project\Source\Binary\source\UserInterface\PythonDynamicModuleNames.cpp
; File C:\Program Files\Microsoft Visual Studio\2022\Community\VC\Tools\MSVC\14.44.35207\include\xstring
; File C:\Anka2Project\Anka2Project\Source\Binary\source\UserInterface\PythonDynamicModuleNames.cpp
; File C:\Program Files\Microsoft Visual Studio\2022\Community\VC\Tools\MSVC\14.44.35207\include\xstring
; File C:\Anka2Project\Anka2Project\Source\Binary\source\UserInterface\PythonDynamicModuleNames.cpp
; File C:\Program Files\Microsoft Visual Studio\2022\Community\VC\Tools\MSVC\14.44.35207\include\xstring
; File C:\Anka2Project\Anka2Project\Source\Binary\source\UserInterface\PythonDynamicModuleNames.cpp
;	COMDAT ?pythonApiGetModuleName@@YAPAU_object@@PAU1@0@Z
_TEXT	SEGMENT
_szOldName$ = -68					; size = 4
___player$ = -64					; size = 7
___chrmgr$ = -56					; size = 7
___pack$ = -48						; size = 5
___app$ = -40						; size = 4
___chr$ = -36						; size = 4
___net$ = -32						; size = 4
___s$ = -28						; size = 2
___uiscript$ = -24					; size = 10
___locale$ = -12					; size = 8
__$ArrayPad$ = -4					; size = 4
_poSelf$ = 8						; size = 4
_poArgs$ = 12						; size = 4
?pythonApiGetModuleName@@YAPAU_object@@PAU1@0@Z PROC	; pythonApiGetModuleName, COMDAT

; 85   : {

  00000	55		 push	 ebp
  00001	8b ec		 mov	 ebp, esp
  00003	83 ec 44	 sub	 esp, 68			; 00000044H
  00006	a1 00 00 00 00	 mov	 eax, DWORD PTR ___security_cookie
  0000b	33 c5		 xor	 eax, ebp
  0000d	89 45 fc	 mov	 DWORD PTR __$ArrayPad$[ebp], eax
  00010	8b 45 0c	 mov	 eax, DWORD PTR _poArgs$[ebp]

; 86   : 	CHAR __net[] = { 'n', 'e', 't', 0x0 };
; 87   : 	CHAR __chr[] = { 'c', 'h', 'r', 0x0 };
; 88   : 	CHAR __chrmgr[] = { 'c', 'h', 'r', 'm', 'g', 'r', 0x0 };
; 89   : 	CHAR __app[] = { 'a', 'p', 'p', 0x0 };
; 90   : 	CHAR __pack[] = { 'p', 'a', 'c', 'k', 0x0 };
; 91   : 	CHAR __player[] = { 'p', 'l', 'a', 'y', 'e', 'r', 0x0 };
; 92   : 	CHAR __s[] = { 's', 0x0 };
; 93   : 
; 94   : 	char *szOldName;
; 95   : 	if (!PyTuple_GetString(poArgs, 0, &szOldName))

  00013	8d 4d bc	 lea	 ecx, DWORD PTR _szOldName$[ebp]
  00016	51		 push	 ecx
  00017	6a 00		 push	 0
  00019	50		 push	 eax
  0001a	c7 45 e0 6e 65
	74 00		 mov	 DWORD PTR ___net$[ebp], 7628142 ; 0074656eH
  00021	c7 45 dc 63 68
	72 00		 mov	 DWORD PTR ___chr$[ebp], 7497827 ; 00726863H
  00028	c7 45 c8 63 68
	72 6d		 mov	 DWORD PTR ___chrmgr$[ebp], 1836214371 ; 6d726863H
  0002f	66 c7 45 cc 67
	72		 mov	 WORD PTR ___chrmgr$[ebp+4], 29287 ; 00007267H
  00035	c6 45 ce 00	 mov	 BYTE PTR ___chrmgr$[ebp+6], 0
  00039	c7 45 d8 61 70
	70 00		 mov	 DWORD PTR ___app$[ebp], 7368801 ; 00707061H
  00040	c7 45 d0 70 61
	63 6b		 mov	 DWORD PTR ___pack$[ebp], 1801675120 ; 6b636170H
  00047	c6 45 d4 00	 mov	 BYTE PTR ___pack$[ebp+4], 0
  0004b	c7 45 c0 70 6c
	61 79		 mov	 DWORD PTR ___player$[ebp], 2036427888 ; 79616c70H
  00052	66 c7 45 c4 65
	72		 mov	 WORD PTR ___player$[ebp+4], 29285 ; 00007265H
  00058	c6 45 c6 00	 mov	 BYTE PTR ___player$[ebp+6], 0
  0005c	66 c7 45 e4 73
	00		 mov	 WORD PTR ___s$[ebp], 115 ; 00000073H
  00062	e8 00 00 00 00	 call	 ?PyTuple_GetString@@YA_NPAU_object@@HPAPAD@Z ; PyTuple_GetString
  00067	83 c4 0c	 add	 esp, 12			; 0000000cH
  0006a	84 c0		 test	 al, al
  0006c	75 18		 jne	 SHORT $LN2@pythonApiG

; 96   : 		return Py_BuildException();

  0006e	6a 00		 push	 0
  00070	e8 00 00 00 00	 call	 ?Py_BuildException@@YAPAU_object@@PBDZZ ; Py_BuildException
  00075	83 c4 04	 add	 esp, 4

; 142  : }

  00078	8b 4d fc	 mov	 ecx, DWORD PTR __$ArrayPad$[ebp]
  0007b	33 cd		 xor	 ecx, ebp
  0007d	e8 00 00 00 00	 call	 @__security_check_cookie@4
  00082	8b e5		 mov	 esp, ebp
  00084	5d		 pop	 ebp
  00085	c3		 ret	 0
$LN2@pythonApiG:
  00086	56		 push	 esi

; 97   : 
; 98   : #ifndef ENABLE_PYTHON_DYNAMIC_MODULE_NAME
; 99   : 	return Py_BuildValue(__s, szOldName);
; 100  : #else
; 101  : 	CHAR __locale[] = { 'l', 'o', 'c', 'a', 'l', 'e', '/', 0x0 };

  00087	c7 45 f4 6c 6f
	63 61		 mov	 DWORD PTR ___locale$[ebp], 1633906540 ; 61636f6cH
  0008e	c7 45 f8 6c 65
	2f 00		 mov	 DWORD PTR ___locale$[ebp+4], 3106156 ; 002f656cH

; 102  : 	CHAR __uiscript[] = { 'u', 'i', 's', 'c', 'r', 'i', 'p', 't', '/', 0x0 };

  00095	c7 45 e8 75 69
	73 63		 mov	 DWORD PTR ___uiscript$[ebp], 1668508021 ; 63736975H
  0009c	c7 45 ec 72 69
	70 74		 mov	 DWORD PTR ___uiscript$[ebp+4], 1953524082 ; 74706972H
  000a3	66 c7 45 f0 2f
	00		 mov	 WORD PTR ___uiscript$[ebp+8], 47 ; 0000002fH

; 17   : 	PyThreadState* pThreadState = PyThreadState_Get();

  000a9	ff 15 00 00 00
	00		 call	 DWORD PTR __imp__PyThreadState_Get

; 18   : 	PyFrameObject* pFrameObject = pThreadState->frame;

  000af	8b 40 08	 mov	 eax, DWORD PTR [eax+8]

; 20   : 	char const* c_szCallerFileName = PyString_AsString(pFrameObject->f_code->co_filename);

  000b2	8b 40 10	 mov	 eax, DWORD PTR [eax+16]
  000b5	ff 70 30	 push	 DWORD PTR [eax+48]
  000b8	ff 15 00 00 00
	00		 call	 DWORD PTR __imp__PyString_AsString
; File C:\Anka2Project\Anka2Project\Source\Binary\source\eterBase\Singleton.h

; 26   : 		assert(ms_singleton);

  000be	8b 0d 00 00 00
	00		 mov	 ecx, DWORD PTR ?ms_singleton@?$CSingleton@VCEterPackManager@@@@0PAVCEterPackManager@@A ; CSingleton<CEterPackManager>::ms_singleton
; File C:\Anka2Project\Anka2Project\Source\Binary\source\UserInterface\PythonDynamicModuleNames.cpp

; 20   : 	char const* c_szCallerFileName = PyString_AsString(pFrameObject->f_code->co_filename);

  000c4	83 c4 04	 add	 esp, 4

; 103  : #if defined(__USE_CYTHON__)
; 104  : 	CHAR __rootlib[] = { '<', 's', 't', 'r', 'i', 'n', 'g', '>', 0x0 };
; 105  : #endif
; 106  : 	const char *c_szCallerReference = GetCallerReference_FileName();

  000c7	8b f0		 mov	 esi, eax
; File C:\Anka2Project\Anka2Project\Source\Binary\source\eterBase\Singleton.h

; 26   : 		assert(ms_singleton);

  000c9	85 c9		 test	 ecx, ecx
  000cb	75 1a		 jne	 SHORT $LN20@pythonApiG
  000cd	6a 1a		 push	 26			; 0000001aH
  000cf	68 00 00 00 00	 push	 OFFSET ??_C@_1IO@CAJLEEOI@?$AAC?$AA?3?$AA?2?$AAA?$AAn?$AAk?$AAa?$AA2?$AAP?$AAr?$AAo?$AAj?$AAe?$AAc?$AAt@
  000d4	68 00 00 00 00	 push	 OFFSET ??_C@_1BK@FMEHPMFE@?$AAm?$AAs?$AA_?$AAs?$AAi?$AAn?$AAg?$AAl?$AAe?$AAt?$AAo?$AAn@
  000d9	e8 00 00 00 00	 call	 __wassert
  000de	8b 0d 00 00 00
	00		 mov	 ecx, DWORD PTR ?ms_singleton@?$CSingleton@VCEterPackManager@@@@0PAVCEterPackManager@@A ; CSingleton<CEterPackManager>::ms_singleton
  000e4	83 c4 0c	 add	 esp, 12			; 0000000cH
$LN20@pythonApiG:
; File C:\Anka2Project\Anka2Project\Source\Binary\source\UserInterface\PythonDynamicModuleNames.cpp

; 108  : 		!strstr(c_szCallerReference, __locale) &&

  000e7	56		 push	 esi
  000e8	e8 00 00 00 00	 call	 ?isExistInPack@CEterPackManager@@QAE_NPBD@Z ; CEterPackManager::isExistInPack
  000ed	84 c0		 test	 al, al
  000ef	75 41		 jne	 SHORT $LN3@pythonApiG
  000f1	8d 45 f4	 lea	 eax, DWORD PTR ___locale$[ebp]
  000f4	50		 push	 eax
  000f5	56		 push	 esi
  000f6	e8 00 00 00 00	 call	 _strstr
  000fb	83 c4 08	 add	 esp, 8
  000fe	85 c0		 test	 eax, eax
  00100	75 30		 jne	 SHORT $LN3@pythonApiG
  00102	8d 45 e8	 lea	 eax, DWORD PTR ___uiscript$[ebp]
  00105	50		 push	 eax
  00106	56		 push	 esi
  00107	e8 00 00 00 00	 call	 _strstr
  0010c	83 c4 08	 add	 esp, 8
  0010f	85 c0		 test	 eax, eax
  00111	75 1f		 jne	 SHORT $LN3@pythonApiG

; 109  : 		!strstr(c_szCallerReference, __uiscript)
; 110  : #if defined(__USE_CYTHON__)
; 111  :  && !strstr(c_szCallerReference, __rootlib)
; 112  : #endif
; 113  : 		)
; 114  : 	{
; 115  : #if defined(_DEBUG)
; 116  : 		TraceError("Error! Python module import request from unknown target! %s:%s", GetCallerReference_FileName(), GetCallerReference_FunctionName());
; 117  : #endif
; 118  : 		return Py_BuildValue(__s, szOldName);

  00113	ff 75 bc	 push	 DWORD PTR _szOldName$[ebp]
  00116	8d 45 e4	 lea	 eax, DWORD PTR ___s$[ebp]
  00119	50		 push	 eax
  0011a	ff 15 00 00 00
	00		 call	 DWORD PTR __imp__Py_BuildValue
  00120	83 c4 08	 add	 esp, 8
  00123	5e		 pop	 esi

; 142  : }

  00124	8b 4d fc	 mov	 ecx, DWORD PTR __$ArrayPad$[ebp]
  00127	33 cd		 xor	 ecx, ebp
  00129	e8 00 00 00 00	 call	 @__security_check_cookie@4
  0012e	8b e5		 mov	 esp, ebp
  00130	5d		 pop	 ebp
  00131	c3		 ret	 0
$LN3@pythonApiG:

; 119  : 	}
; 120  : 
; 121  : 
; 122  : 	if (!strcmp(szOldName, __net))

  00132	8b 55 bc	 mov	 edx, DWORD PTR _szOldName$[ebp]
  00135	8d 4d e0	 lea	 ecx, DWORD PTR ___net$[ebp]
  00138	8b c2		 mov	 eax, edx
  0013a	53		 push	 ebx
  0013b	0f 1f 44 00 00	 npad	 5
$LL81@pythonApiG:
  00140	8a 18		 mov	 bl, BYTE PTR [eax]
  00142	3a 19		 cmp	 bl, BYTE PTR [ecx]
  00144	75 1a		 jne	 SHORT $LN82@pythonApiG
  00146	84 db		 test	 bl, bl
  00148	74 12		 je	 SHORT $LN83@pythonApiG
  0014a	8a 58 01	 mov	 bl, BYTE PTR [eax+1]
  0014d	3a 59 01	 cmp	 bl, BYTE PTR [ecx+1]
  00150	75 0e		 jne	 SHORT $LN82@pythonApiG
  00152	83 c0 02	 add	 eax, 2
  00155	83 c1 02	 add	 ecx, 2
  00158	84 db		 test	 bl, bl
  0015a	75 e4		 jne	 SHORT $LL81@pythonApiG
$LN83@pythonApiG:
  0015c	33 c0		 xor	 eax, eax
  0015e	eb 05		 jmp	 SHORT $LN84@pythonApiG
$LN82@pythonApiG:
  00160	1b c0		 sbb	 eax, eax
  00162	83 c8 01	 or	 eax, 1
$LN84@pythonApiG:
  00165	85 c0		 test	 eax, eax
  00167	75 31		 jne	 SHORT $LN4@pythonApiG
; File C:\Program Files\Microsoft Visual Studio\2022\Community\VC\Tools\MSVC\14.44.35207\include\xstring

; 453  :         return _Myres > _Small_string_capacity;

  00169	83 3d 14 00 00
	00 0f		 cmp	 DWORD PTR ?szModuleArray@@3PAV?$basic_string@DU?$char_traits@D@std@@V?$allocator@D@2@@std@@A+20, 15 ; 0000000fH

; 444  :         const value_type* _Result = _Bx._Buf;

  00170	b8 00 00 00 00	 mov	 eax, OFFSET ?szModuleArray@@3PAV?$basic_string@DU?$char_traits@D@std@@V?$allocator@D@2@@std@@A ; szModuleArray

; 445  :         if (_Large_mode_engaged()) {

  00175	0f 47 05 00 00
	00 00		 cmova	 eax, DWORD PTR ?szModuleArray@@3PAV?$basic_string@DU?$char_traits@D@std@@V?$allocator@D@2@@std@@A
; File C:\Anka2Project\Anka2Project\Source\Binary\source\UserInterface\PythonDynamicModuleNames.cpp

; 123  : 		return Py_BuildValue(__s, szModuleArray[NET_MODULE].c_str());

  0017c	50		 push	 eax
  0017d	8d 45 e4	 lea	 eax, DWORD PTR ___s$[ebp]
  00180	50		 push	 eax
  00181	ff 15 00 00 00
	00		 call	 DWORD PTR __imp__Py_BuildValue
  00187	83 c4 08	 add	 esp, 8
  0018a	5b		 pop	 ebx
  0018b	5e		 pop	 esi

; 142  : }

  0018c	8b 4d fc	 mov	 ecx, DWORD PTR __$ArrayPad$[ebp]
  0018f	33 cd		 xor	 ecx, ebp
  00191	e8 00 00 00 00	 call	 @__security_check_cookie@4
  00196	8b e5		 mov	 esp, ebp
  00198	5d		 pop	 ebp
  00199	c3		 ret	 0
$LN4@pythonApiG:

; 124  : 	else if (!strcmp(szOldName, __chr))

  0019a	8d 4d dc	 lea	 ecx, DWORD PTR ___chr$[ebp]
  0019d	8b c2		 mov	 eax, edx
  0019f	90		 npad	 1
$LL85@pythonApiG:
  001a0	8a 18		 mov	 bl, BYTE PTR [eax]
  001a2	3a 19		 cmp	 bl, BYTE PTR [ecx]
  001a4	75 1a		 jne	 SHORT $LN86@pythonApiG
  001a6	84 db		 test	 bl, bl
  001a8	74 12		 je	 SHORT $LN87@pythonApiG
  001aa	8a 58 01	 mov	 bl, BYTE PTR [eax+1]
  001ad	3a 59 01	 cmp	 bl, BYTE PTR [ecx+1]
  001b0	75 0e		 jne	 SHORT $LN86@pythonApiG
  001b2	83 c0 02	 add	 eax, 2
  001b5	83 c1 02	 add	 ecx, 2
  001b8	84 db		 test	 bl, bl
  001ba	75 e4		 jne	 SHORT $LL85@pythonApiG
$LN87@pythonApiG:
  001bc	33 c0		 xor	 eax, eax
  001be	eb 05		 jmp	 SHORT $LN88@pythonApiG
$LN86@pythonApiG:
  001c0	1b c0		 sbb	 eax, eax
  001c2	83 c8 01	 or	 eax, 1
$LN88@pythonApiG:
  001c5	85 c0		 test	 eax, eax
  001c7	75 31		 jne	 SHORT $LN6@pythonApiG
; File C:\Program Files\Microsoft Visual Studio\2022\Community\VC\Tools\MSVC\14.44.35207\include\xstring

; 453  :         return _Myres > _Small_string_capacity;

  001c9	83 3d 2c 00 00
	00 0f		 cmp	 DWORD PTR ?szModuleArray@@3PAV?$basic_string@DU?$char_traits@D@std@@V?$allocator@D@2@@std@@A+44, 15 ; 0000000fH

; 444  :         const value_type* _Result = _Bx._Buf;

  001d0	b8 18 00 00 00	 mov	 eax, OFFSET ?szModuleArray@@3PAV?$basic_string@DU?$char_traits@D@std@@V?$allocator@D@2@@std@@A+24

; 445  :         if (_Large_mode_engaged()) {

  001d5	0f 47 05 18 00
	00 00		 cmova	 eax, DWORD PTR ?szModuleArray@@3PAV?$basic_string@DU?$char_traits@D@std@@V?$allocator@D@2@@std@@A+24
; File C:\Anka2Project\Anka2Project\Source\Binary\source\UserInterface\PythonDynamicModuleNames.cpp

; 125  : 		return Py_BuildValue(__s, szModuleArray[CHR_MODULE].c_str());

  001dc	50		 push	 eax
  001dd	8d 45 e4	 lea	 eax, DWORD PTR ___s$[ebp]
  001e0	50		 push	 eax
  001e1	ff 15 00 00 00
	00		 call	 DWORD PTR __imp__Py_BuildValue
  001e7	83 c4 08	 add	 esp, 8
  001ea	5b		 pop	 ebx
  001eb	5e		 pop	 esi

; 142  : }

  001ec	8b 4d fc	 mov	 ecx, DWORD PTR __$ArrayPad$[ebp]
  001ef	33 cd		 xor	 ecx, ebp
  001f1	e8 00 00 00 00	 call	 @__security_check_cookie@4
  001f6	8b e5		 mov	 esp, ebp
  001f8	5d		 pop	 ebp
  001f9	c3		 ret	 0
$LN6@pythonApiG:

; 126  : 	else if (!strcmp(szOldName, __chrmgr))

  001fa	8d 4d c8	 lea	 ecx, DWORD PTR ___chrmgr$[ebp]
  001fd	8b c2		 mov	 eax, edx
  001ff	90		 npad	 1
$LL89@pythonApiG:
  00200	8a 18		 mov	 bl, BYTE PTR [eax]
  00202	3a 19		 cmp	 bl, BYTE PTR [ecx]
  00204	75 1a		 jne	 SHORT $LN90@pythonApiG
  00206	84 db		 test	 bl, bl
  00208	74 12		 je	 SHORT $LN91@pythonApiG
  0020a	8a 58 01	 mov	 bl, BYTE PTR [eax+1]
  0020d	3a 59 01	 cmp	 bl, BYTE PTR [ecx+1]
  00210	75 0e		 jne	 SHORT $LN90@pythonApiG
  00212	83 c0 02	 add	 eax, 2
  00215	83 c1 02	 add	 ecx, 2
  00218	84 db		 test	 bl, bl
  0021a	75 e4		 jne	 SHORT $LL89@pythonApiG
$LN91@pythonApiG:
  0021c	33 c0		 xor	 eax, eax
  0021e	eb 05		 jmp	 SHORT $LN92@pythonApiG
$LN90@pythonApiG:
  00220	1b c0		 sbb	 eax, eax
  00222	83 c8 01	 or	 eax, 1
$LN92@pythonApiG:
  00225	85 c0		 test	 eax, eax
  00227	75 31		 jne	 SHORT $LN8@pythonApiG
; File C:\Program Files\Microsoft Visual Studio\2022\Community\VC\Tools\MSVC\14.44.35207\include\xstring

; 453  :         return _Myres > _Small_string_capacity;

  00229	83 3d 44 00 00
	00 0f		 cmp	 DWORD PTR ?szModuleArray@@3PAV?$basic_string@DU?$char_traits@D@std@@V?$allocator@D@2@@std@@A+68, 15 ; 0000000fH

; 444  :         const value_type* _Result = _Bx._Buf;

  00230	b8 30 00 00 00	 mov	 eax, OFFSET ?szModuleArray@@3PAV?$basic_string@DU?$char_traits@D@std@@V?$allocator@D@2@@std@@A+48

; 445  :         if (_Large_mode_engaged()) {

  00235	0f 47 05 30 00
	00 00		 cmova	 eax, DWORD PTR ?szModuleArray@@3PAV?$basic_string@DU?$char_traits@D@std@@V?$allocator@D@2@@std@@A+48
; File C:\Anka2Project\Anka2Project\Source\Binary\source\UserInterface\PythonDynamicModuleNames.cpp

; 127  : 		return Py_BuildValue(__s, szModuleArray[CHRMGR_MODULE].c_str());

  0023c	50		 push	 eax
  0023d	8d 45 e4	 lea	 eax, DWORD PTR ___s$[ebp]
  00240	50		 push	 eax
  00241	ff 15 00 00 00
	00		 call	 DWORD PTR __imp__Py_BuildValue
  00247	83 c4 08	 add	 esp, 8
  0024a	5b		 pop	 ebx
  0024b	5e		 pop	 esi

; 142  : }

  0024c	8b 4d fc	 mov	 ecx, DWORD PTR __$ArrayPad$[ebp]
  0024f	33 cd		 xor	 ecx, ebp
  00251	e8 00 00 00 00	 call	 @__security_check_cookie@4
  00256	8b e5		 mov	 esp, ebp
  00258	5d		 pop	 ebp
  00259	c3		 ret	 0
$LN8@pythonApiG:

; 128  : 	else if (!strcmp(szOldName, __app))

  0025a	8d 4d d8	 lea	 ecx, DWORD PTR ___app$[ebp]
  0025d	8b c2		 mov	 eax, edx
  0025f	90		 npad	 1
$LL93@pythonApiG:
  00260	8a 18		 mov	 bl, BYTE PTR [eax]
  00262	3a 19		 cmp	 bl, BYTE PTR [ecx]
  00264	75 1a		 jne	 SHORT $LN94@pythonApiG
  00266	84 db		 test	 bl, bl
  00268	74 12		 je	 SHORT $LN95@pythonApiG
  0026a	8a 58 01	 mov	 bl, BYTE PTR [eax+1]
  0026d	3a 59 01	 cmp	 bl, BYTE PTR [ecx+1]
  00270	75 0e		 jne	 SHORT $LN94@pythonApiG
  00272	83 c0 02	 add	 eax, 2
  00275	83 c1 02	 add	 ecx, 2
  00278	84 db		 test	 bl, bl
  0027a	75 e4		 jne	 SHORT $LL93@pythonApiG
$LN95@pythonApiG:
  0027c	33 c0		 xor	 eax, eax
  0027e	eb 05		 jmp	 SHORT $LN96@pythonApiG
$LN94@pythonApiG:
  00280	1b c0		 sbb	 eax, eax
  00282	83 c8 01	 or	 eax, 1
$LN96@pythonApiG:
  00285	85 c0		 test	 eax, eax
  00287	75 31		 jne	 SHORT $LN10@pythonApiG
; File C:\Program Files\Microsoft Visual Studio\2022\Community\VC\Tools\MSVC\14.44.35207\include\xstring

; 453  :         return _Myres > _Small_string_capacity;

  00289	83 3d 5c 00 00
	00 0f		 cmp	 DWORD PTR ?szModuleArray@@3PAV?$basic_string@DU?$char_traits@D@std@@V?$allocator@D@2@@std@@A+92, 15 ; 0000000fH

; 444  :         const value_type* _Result = _Bx._Buf;

  00290	b8 48 00 00 00	 mov	 eax, OFFSET ?szModuleArray@@3PAV?$basic_string@DU?$char_traits@D@std@@V?$allocator@D@2@@std@@A+72

; 445  :         if (_Large_mode_engaged()) {

  00295	0f 47 05 48 00
	00 00		 cmova	 eax, DWORD PTR ?szModuleArray@@3PAV?$basic_string@DU?$char_traits@D@std@@V?$allocator@D@2@@std@@A+72
; File C:\Anka2Project\Anka2Project\Source\Binary\source\UserInterface\PythonDynamicModuleNames.cpp

; 129  : 		return Py_BuildValue(__s, szModuleArray[APP_MODULE].c_str());

  0029c	50		 push	 eax
  0029d	8d 45 e4	 lea	 eax, DWORD PTR ___s$[ebp]
  002a0	50		 push	 eax
  002a1	ff 15 00 00 00
	00		 call	 DWORD PTR __imp__Py_BuildValue
  002a7	83 c4 08	 add	 esp, 8
  002aa	5b		 pop	 ebx
  002ab	5e		 pop	 esi

; 142  : }

  002ac	8b 4d fc	 mov	 ecx, DWORD PTR __$ArrayPad$[ebp]
  002af	33 cd		 xor	 ecx, ebp
  002b1	e8 00 00 00 00	 call	 @__security_check_cookie@4
  002b6	8b e5		 mov	 esp, ebp
  002b8	5d		 pop	 ebp
  002b9	c3		 ret	 0
$LN10@pythonApiG:

; 130  : 	else if (!strcmp(szOldName, __pack))

  002ba	8d 4d d0	 lea	 ecx, DWORD PTR ___pack$[ebp]
  002bd	8b c2		 mov	 eax, edx
  002bf	90		 npad	 1
$LL97@pythonApiG:
  002c0	8a 18		 mov	 bl, BYTE PTR [eax]
  002c2	3a 19		 cmp	 bl, BYTE PTR [ecx]
  002c4	75 1a		 jne	 SHORT $LN98@pythonApiG
  002c6	84 db		 test	 bl, bl
  002c8	74 12		 je	 SHORT $LN99@pythonApiG
  002ca	8a 58 01	 mov	 bl, BYTE PTR [eax+1]
  002cd	3a 59 01	 cmp	 bl, BYTE PTR [ecx+1]
  002d0	75 0e		 jne	 SHORT $LN98@pythonApiG
  002d2	83 c0 02	 add	 eax, 2
  002d5	83 c1 02	 add	 ecx, 2
  002d8	84 db		 test	 bl, bl
  002da	75 e4		 jne	 SHORT $LL97@pythonApiG
$LN99@pythonApiG:
  002dc	33 c0		 xor	 eax, eax
  002de	eb 05		 jmp	 SHORT $LN100@pythonApiG
$LN98@pythonApiG:
  002e0	1b c0		 sbb	 eax, eax
  002e2	83 c8 01	 or	 eax, 1
$LN100@pythonApiG:
  002e5	85 c0		 test	 eax, eax
  002e7	75 31		 jne	 SHORT $LN12@pythonApiG
; File C:\Program Files\Microsoft Visual Studio\2022\Community\VC\Tools\MSVC\14.44.35207\include\xstring

; 453  :         return _Myres > _Small_string_capacity;

  002e9	83 3d 74 00 00
	00 0f		 cmp	 DWORD PTR ?szModuleArray@@3PAV?$basic_string@DU?$char_traits@D@std@@V?$allocator@D@2@@std@@A+116, 15 ; 0000000fH

; 444  :         const value_type* _Result = _Bx._Buf;

  002f0	b8 60 00 00 00	 mov	 eax, OFFSET ?szModuleArray@@3PAV?$basic_string@DU?$char_traits@D@std@@V?$allocator@D@2@@std@@A+96

; 445  :         if (_Large_mode_engaged()) {

  002f5	0f 47 05 60 00
	00 00		 cmova	 eax, DWORD PTR ?szModuleArray@@3PAV?$basic_string@DU?$char_traits@D@std@@V?$allocator@D@2@@std@@A+96
; File C:\Anka2Project\Anka2Project\Source\Binary\source\UserInterface\PythonDynamicModuleNames.cpp

; 131  : 		return Py_BuildValue(__s, szModuleArray[PACK_MODULE].c_str());

  002fc	50		 push	 eax
  002fd	8d 45 e4	 lea	 eax, DWORD PTR ___s$[ebp]
  00300	50		 push	 eax
  00301	ff 15 00 00 00
	00		 call	 DWORD PTR __imp__Py_BuildValue
  00307	83 c4 08	 add	 esp, 8
  0030a	5b		 pop	 ebx
  0030b	5e		 pop	 esi

; 142  : }

  0030c	8b 4d fc	 mov	 ecx, DWORD PTR __$ArrayPad$[ebp]
  0030f	33 cd		 xor	 ecx, ebp
  00311	e8 00 00 00 00	 call	 @__security_check_cookie@4
  00316	8b e5		 mov	 esp, ebp
  00318	5d		 pop	 ebp
  00319	c3		 ret	 0
$LN12@pythonApiG:

; 132  : 	else if (!strcmp(szOldName, __player))

  0031a	8d 45 c0	 lea	 eax, DWORD PTR ___player$[ebp]
  0031d	0f 1f 00	 npad	 3
$LL101@pythonApiG:
  00320	8a 0a		 mov	 cl, BYTE PTR [edx]
  00322	3a 08		 cmp	 cl, BYTE PTR [eax]
  00324	75 1a		 jne	 SHORT $LN102@pythonApiG
  00326	84 c9		 test	 cl, cl
  00328	74 12		 je	 SHORT $LN103@pythonApiG
  0032a	8a 4a 01	 mov	 cl, BYTE PTR [edx+1]
  0032d	3a 48 01	 cmp	 cl, BYTE PTR [eax+1]
  00330	75 0e		 jne	 SHORT $LN102@pythonApiG
  00332	83 c2 02	 add	 edx, 2
  00335	83 c0 02	 add	 eax, 2
  00338	84 c9		 test	 cl, cl
  0033a	75 e4		 jne	 SHORT $LL101@pythonApiG
$LN103@pythonApiG:
  0033c	33 c0		 xor	 eax, eax
  0033e	eb 05		 jmp	 SHORT $LN104@pythonApiG
$LN102@pythonApiG:
  00340	1b c0		 sbb	 eax, eax
  00342	83 c8 01	 or	 eax, 1
$LN104@pythonApiG:
  00345	85 c0		 test	 eax, eax
  00347	75 31		 jne	 SHORT $LN14@pythonApiG
; File C:\Program Files\Microsoft Visual Studio\2022\Community\VC\Tools\MSVC\14.44.35207\include\xstring

; 453  :         return _Myres > _Small_string_capacity;

  00349	83 3d 8c 00 00
	00 0f		 cmp	 DWORD PTR ?szModuleArray@@3PAV?$basic_string@DU?$char_traits@D@std@@V?$allocator@D@2@@std@@A+140, 15 ; 0000000fH

; 444  :         const value_type* _Result = _Bx._Buf;

  00350	b8 78 00 00 00	 mov	 eax, OFFSET ?szModuleArray@@3PAV?$basic_string@DU?$char_traits@D@std@@V?$allocator@D@2@@std@@A+120

; 445  :         if (_Large_mode_engaged()) {

  00355	0f 47 05 78 00
	00 00		 cmova	 eax, DWORD PTR ?szModuleArray@@3PAV?$basic_string@DU?$char_traits@D@std@@V?$allocator@D@2@@std@@A+120
; File C:\Anka2Project\Anka2Project\Source\Binary\source\UserInterface\PythonDynamicModuleNames.cpp

; 133  : 		return Py_BuildValue(__s, szModuleArray[PLAYER_MODULE].c_str());

  0035c	50		 push	 eax
  0035d	8d 45 e4	 lea	 eax, DWORD PTR ___s$[ebp]
  00360	50		 push	 eax
  00361	ff 15 00 00 00
	00		 call	 DWORD PTR __imp__Py_BuildValue
  00367	83 c4 08	 add	 esp, 8
  0036a	5b		 pop	 ebx
  0036b	5e		 pop	 esi

; 142  : }

  0036c	8b 4d fc	 mov	 ecx, DWORD PTR __$ArrayPad$[ebp]
  0036f	33 cd		 xor	 ecx, ebp
  00371	e8 00 00 00 00	 call	 @__security_check_cookie@4
  00376	8b e5		 mov	 esp, ebp
  00378	5d		 pop	 ebp
  00379	c3		 ret	 0
$LN14@pythonApiG:

; 134  : #if defined(_DEBUG)
; 135  : 	else
; 136  : 		TraceError("Error! Unknown module name request as dynamic! (%s) - From-> %s:%s", szOldName, GetCallerReference_FileName(), GetCallerReference_FunctionName());
; 137  : #endif
; 138  : 
; 139  : #endif
; 140  : 
; 141  : 	return Py_BuildNone();

  0037a	e8 00 00 00 00	 call	 ?Py_BuildNone@@YAPAU_object@@XZ ; Py_BuildNone

; 142  : }

  0037f	8b 4d fc	 mov	 ecx, DWORD PTR __$ArrayPad$[ebp]
  00382	5b		 pop	 ebx
  00383	33 cd		 xor	 ecx, ebp
  00385	5e		 pop	 esi
  00386	e8 00 00 00 00	 call	 @__security_check_cookie@4
  0038b	8b e5		 mov	 esp, ebp
  0038d	5d		 pop	 ebp
  0038e	c3		 ret	 0
?pythonApiGetModuleName@@YAPAU_object@@PAU1@0@Z ENDP	; pythonApiGetModuleName
_TEXT	ENDS
; Function compile flags: /Ogtp
; File C:\Anka2Project\Anka2Project\Source\Binary\source\UserInterface\PythonDynamicModuleNames.cpp
; File C:\Program Files\Microsoft Visual Studio\2022\Community\VC\Tools\MSVC\14.44.35207\include\xstring
; File C:\Anka2Project\Anka2Project\Source\Binary\source\UserInterface\PythonDynamicModuleNames.cpp
; File C:\Program Files\Microsoft Visual Studio\2022\Community\VC\Tools\MSVC\14.44.35207\include\xstring
; File C:\Anka2Project\Anka2Project\Source\Binary\source\UserInterface\PythonDynamicModuleNames.cpp
; File C:\Program Files\Microsoft Visual Studio\2022\Community\VC\Tools\MSVC\14.44.35207\include\xstring
; File C:\Anka2Project\Anka2Project\Source\Binary\source\UserInterface\PythonDynamicModuleNames.cpp
; File C:\Program Files\Microsoft Visual Studio\2022\Community\VC\Tools\MSVC\14.44.35207\include\xstring
; File C:\Anka2Project\Anka2Project\Source\Binary\source\UserInterface\PythonDynamicModuleNames.cpp
; File C:\Program Files\Microsoft Visual Studio\2022\Community\VC\Tools\MSVC\14.44.35207\include\xstring
; File C:\Program Files\Microsoft Visual Studio\2022\Community\VC\Tools\MSVC\14.44.35207\include\xmemory
; File C:\Program Files\Microsoft Visual Studio\2022\Community\VC\Tools\MSVC\14.44.35207\include\xstring
; File C:\Program Files\Microsoft Visual Studio\2022\Community\VC\Tools\MSVC\14.44.35207\include\xmemory
; File C:\Anka2Project\Anka2Project\Source\Binary\source\UserInterface\PythonDynamicModuleNames.cpp
; File C:\Program Files\Microsoft Visual Studio\2022\Community\VC\Tools\MSVC\14.44.35207\include\xmemory
; File C:\Anka2Project\Anka2Project\Source\Binary\source\UserInterface\PythonDynamicModuleNames.cpp
;	COMDAT ?initPythonApi@@YAXXZ
_TEXT	SEGMENT
$T21 = -96						; size = 4
$T1 = -92						; size = 4
$T8 = -88						; size = 24
$T3 = -64						; size = 24
___GetModuleName$ = -40					; size = 14
___pythonApi$ = -24					; size = 6
__$ArrayPad$ = -16					; size = 4
__$EHRec$ = -12						; size = 12
?initPythonApi@@YAXXZ PROC				; initPythonApi, COMDAT

; 145  : {

  00000	55		 push	 ebp
  00001	8b ec		 mov	 ebp, esp
  00003	6a ff		 push	 -1
  00005	68 00 00 00 00	 push	 __ehhandler$?initPythonApi@@YAXXZ
  0000a	64 a1 00 00 00
	00		 mov	 eax, DWORD PTR fs:0
  00010	50		 push	 eax
  00011	83 ec 58	 sub	 esp, 88			; 00000058H
  00014	a1 00 00 00 00	 mov	 eax, DWORD PTR ___security_cookie
  00019	33 c5		 xor	 eax, ebp
  0001b	89 45 f0	 mov	 DWORD PTR __$ArrayPad$[ebp], eax
  0001e	56		 push	 esi
  0001f	57		 push	 edi
  00020	50		 push	 eax
  00021	8d 45 f4	 lea	 eax, DWORD PTR __$EHRec$[ebp]
  00024	64 a3 00 00 00
	00		 mov	 DWORD PTR fs:0, eax
  0002a	33 f6		 xor	 esi, esi
  0002c	89 75 a4	 mov	 DWORD PTR $T1[ebp], esi

; 146  : 	CHAR __GetModuleName[] = { 'G', 'e', 't', 'M', 'o', 'd', 'u', 'l', 'e', 'N', 'a', 'm', 'e', 0x0 };
; 147  : 	CHAR __pythonApi[] = { 'p', 'y', 'a', 'p', 'i', 0x0 };
; 148  : 
; 149  : 	static PyMethodDef s_methods[] =

  0002f	64 a1 00 00 00
	00		 mov	 eax, DWORD PTR fs:__tls_array
  00035	c7 45 d8 47 65
	74 4d		 mov	 DWORD PTR ___GetModuleName$[ebp], 1299473735 ; 4d746547H
  0003c	c7 45 dc 6f 64
	75 6c		 mov	 DWORD PTR ___GetModuleName$[ebp+4], 1819632751 ; 6c75646fH
  00043	c7 45 e0 65 4e
	61 6d		 mov	 DWORD PTR ___GetModuleName$[ebp+8], 1835093605 ; 6d614e65H
  0004a	8b 08		 mov	 ecx, DWORD PTR [eax]
  0004c	a1 00 00 00 00	 mov	 eax, DWORD PTR ?$TSS0@?1??initPythonApi@@YAXXZ@4HA
  00051	66 c7 45 e4 65
	00		 mov	 WORD PTR ___GetModuleName$[ebp+12], 101 ; 00000065H
  00057	c7 45 e8 70 79
	61 70		 mov	 DWORD PTR ___pythonApi$[ebp], 1885436272 ; 70617970H
  0005e	66 c7 45 ec 69
	00		 mov	 WORD PTR ___pythonApi$[ebp+4], 105 ; 00000069H
  00064	3b 81 00 00 00
	00		 cmp	 eax, DWORD PTR __Init_thread_epoch[ecx]
  0006a	7e 5c		 jle	 SHORT $LN2@initPython
  0006c	68 00 00 00 00	 push	 OFFSET ?$TSS0@?1??initPythonApi@@YAXXZ@4HA
  00071	e8 00 00 00 00	 call	 __Init_thread_header
  00076	83 c4 04	 add	 esp, 4
  00079	83 3d 00 00 00
	00 ff		 cmp	 DWORD PTR ?$TSS0@?1??initPythonApi@@YAXXZ@4HA, -1
  00080	75 46		 jne	 SHORT $LN2@initPython

; 150  : 	{
; 151  : 		{ __GetModuleName, pythonApiGetModuleName, METH_VARARGS },

  00082	8d 45 d8	 lea	 eax, DWORD PTR ___GetModuleName$[ebp]
  00085	c7 05 04 00 00
	00 00 00 00 00	 mov	 DWORD PTR ?s_methods@?1??initPythonApi@@YAXXZ@4PAUPyMethodDef@@A+4, OFFSET ?pythonApiGetModuleName@@YAPAU_object@@PAU1@0@Z ; pythonApiGetModuleName
  0008f	0f 57 c0	 xorps	 xmm0, xmm0
  00092	a3 00 00 00 00	 mov	 DWORD PTR ?s_methods@?1??initPythonApi@@YAXXZ@4PAUPyMethodDef@@A, eax

; 152  : 		{ nullptr, nullptr },

  00097	68 00 00 00 00	 push	 OFFSET ?$TSS0@?1??initPythonApi@@YAXXZ@4HA
  0009c	c7 05 08 00 00
	00 01 00 00 00	 mov	 DWORD PTR ?s_methods@?1??initPythonApi@@YAXXZ@4PAUPyMethodDef@@A+8, 1
  000a6	89 35 0c 00 00
	00		 mov	 DWORD PTR ?s_methods@?1??initPythonApi@@YAXXZ@4PAUPyMethodDef@@A+12, esi
  000ac	89 35 10 00 00
	00		 mov	 DWORD PTR ?s_methods@?1??initPythonApi@@YAXXZ@4PAUPyMethodDef@@A+16, esi
  000b2	89 35 14 00 00
	00		 mov	 DWORD PTR ?s_methods@?1??initPythonApi@@YAXXZ@4PAUPyMethodDef@@A+20, esi
  000b8	66 0f d6 05 18
	00 00 00	 movq	 QWORD PTR ?s_methods@?1??initPythonApi@@YAXXZ@4PAUPyMethodDef@@A+24, xmm0
  000c0	e8 00 00 00 00	 call	 __Init_thread_footer
  000c5	83 c4 04	 add	 esp, 4
$LN2@initPython:

; 153  : 	};
; 154  : 
; 155  : 	PyObject *poModule = Py_InitModule(__pythonApi, s_methods);

  000c8	68 f5 03 00 00	 push	 1013			; 000003f5H
  000cd	6a 00		 push	 0
  000cf	6a 00		 push	 0
  000d1	8d 45 e8	 lea	 eax, DWORD PTR ___pythonApi$[ebp]
  000d4	68 00 00 00 00	 push	 OFFSET ?s_methods@?1??initPythonApi@@YAXXZ@4PAUPyMethodDef@@A
  000d9	50		 push	 eax
  000da	ff 15 00 00 00
	00		 call	 DWORD PTR __imp__Py_InitModule4
  000e0	83 c4 14	 add	 esp, 20			; 00000014H
  000e3	bf 00 00 00 00	 mov	 edi, OFFSET ?szModuleArray@@3PAV?$basic_string@DU?$char_traits@D@std@@V?$allocator@D@2@@std@@A ; szModuleArray
  000e8	0f 1f 84 00 00
	00 00 00	 npad	 8
$LL7@initPython:
; File C:\Program Files\Microsoft Visual Studio\2022\Community\VC\Tools\MSVC\14.44.35207\include\xstring

; 2494 :         return _Mypair._Myval2._Mysize == 0;

  000f0	83 7f 10 00	 cmp	 DWORD PTR [edi+16], 0
; File C:\Anka2Project\Anka2Project\Source\Binary\source\UserInterface\PythonDynamicModuleNames.cpp

; 68   : 		if (szModuleArray[i].empty())

  000f4	0f 85 f4 00 00
	00		 jne	 $LN5@initPython

; 70   : 			szModuleArray[i] = CreateModuleName();

  000fa	c7 45 fc 00 00
	00 00		 mov	 DWORD PTR __$EHRec$[ebp+8], 0
  00101	0f 57 c0	 xorps	 xmm0, xmm0

; 59   : 	std::string sztmpName;

  00104	83 ce 01	 or	 esi, 1
; File C:\Program Files\Microsoft Visual Studio\2022\Community\VC\Tools\MSVC\14.44.35207\include\xstring

; 860  :         _My_data._Mysize = 0;

  00107	c7 45 d0 00 00
	00 00		 mov	 DWORD PTR $T3[ebp+16], 0

; 493  :         _CONSTEXPR20 _Bxty() noexcept : _Buf() {} // user-provided, for fancy pointers

  0010e	0f 11 45 c0	 movups	 XMMWORD PTR $T3[ebp], xmm0

; 861  :         _My_data._Myres  = _Small_string_capacity;

  00112	c7 45 d4 0f 00
	00 00		 mov	 DWORD PTR $T3[ebp+20], 15 ; 0000000fH

; 862  :         _My_data._Activate_SSO_buffer();
; 863  : 
; 864  :         // the _Traits::assign is last so the codegen doesn't think the char write can alias this
; 865  :         _Traits::assign(_My_data._Bx._Buf[0], _Elem());

  00119	c6 45 c0 00	 mov	 BYTE PTR $T3[ebp], 0
; File C:\Anka2Project\Anka2Project\Source\Binary\source\UserInterface\PythonDynamicModuleNames.cpp

; 59   : 	std::string sztmpName;

  0011d	89 75 a0	 mov	 DWORD PTR $T21[ebp], esi
  00120	89 75 a4	 mov	 DWORD PTR $T1[ebp], esi
$LL17@initPython:

; 60   : 	do { sztmpName = randomStrGen(12); } while (IsUsedName(sztmpName));

  00123	8d 45 a8	 lea	 eax, DWORD PTR $T8[ebp]
  00126	6a 0c		 push	 12			; 0000000cH
  00128	50		 push	 eax
  00129	e8 00 00 00 00	 call	 ?randomStrGen@@YA?AV?$basic_string@DU?$char_traits@D@std@@V?$allocator@D@2@@std@@H@Z ; randomStrGen
  0012e	8b f0		 mov	 esi, eax
  00130	83 c4 08	 add	 esp, 8
; File C:\Program Files\Microsoft Visual Studio\2022\Community\VC\Tools\MSVC\14.44.35207\include\xstring

; 1226 :         if (this == _STD addressof(_Right)) {

  00133	8d 45 c0	 lea	 eax, DWORD PTR $T3[ebp]
  00136	3b c6		 cmp	 eax, esi
  00138	74 29		 je	 SHORT $LN50@initPython

; 1227 :             return *this;
; 1228 :         }
; 1229 : 
; 1230 :         auto& _Al                 = _Getal();
; 1231 :         auto& _Right_al           = _Right._Getal();
; 1232 :         constexpr auto _Pocma_val = _Choose_pocma_v<_Alty>;
; 1233 :         if constexpr (_Pocma_val == _Pocma_values::_Propagate_allocators) {
; 1234 :             if (_Al != _Right_al) {
; 1235 :                 // intentionally slams into noexcept on OOM, TRANSITION, VSO-466800
; 1236 :                 _Mypair._Myval2._Orphan_all();
; 1237 :                 _Mypair._Myval2._Reload_proxy(_GET_PROXY_ALLOCATOR(_Alty, _Al), _GET_PROXY_ALLOCATOR(_Alty, _Right_al));
; 1238 :             }
; 1239 :         } else if constexpr (_Pocma_val == _Pocma_values::_No_propagate_allocators) {
; 1240 :             if (_Al != _Right_al) {
; 1241 :                 assign(_Right._Mypair._Myval2._Myptr(), _Right._Mypair._Myval2._Mysize);
; 1242 :                 return *this;
; 1243 :             }
; 1244 :         }
; 1245 : 
; 1246 :         _Tidy_deallocate();

  0013a	8b c8		 mov	 ecx, eax
  0013c	e8 00 00 00 00	 call	 ?_Tidy_deallocate@?$basic_string@DU?$char_traits@D@std@@V?$allocator@D@2@@std@@AAEXXZ ; std::basic_string<char,std::char_traits<char>,std::allocator<char> >::_Tidy_deallocate

; 1286 :                 _CSTD memcpy(_My_data_mem, _Right_data_mem, _Memcpy_val_size);

  00141	0f 10 06	 movups	 xmm0, XMMWORD PTR [esi]
  00144	0f 11 45 c0	 movups	 XMMWORD PTR $T3[ebp], xmm0
  00148	f3 0f 7e 46 10	 movq	 xmm0, QWORD PTR [esi+16]
  0014d	66 0f d6 45 d0	 movq	 QWORD PTR $T3[ebp+16], xmm0

; 1287 : 
; 1288 :                 _Right_data._Mysize = 0;

  00152	c7 46 10 00 00
	00 00		 mov	 DWORD PTR [esi+16], 0

; 1289 :                 _Right_data._Myres  = _Small_string_capacity;

  00159	c7 46 14 0f 00
	00 00		 mov	 DWORD PTR [esi+20], 15	; 0000000fH

; 1290 :                 _Right_data._Activate_SSO_buffer();
; 1291 :                 _Traits::assign(_Right_data._Bx._Buf[0], _Elem());

  00160	c6 06 00	 mov	 BYTE PTR [esi], 0
$LN50@initPython:

; 1383 :         _Tidy_deallocate();

  00163	8d 4d a8	 lea	 ecx, DWORD PTR $T8[ebp]
  00166	e8 00 00 00 00	 call	 ?_Tidy_deallocate@?$basic_string@DU?$char_traits@D@std@@V?$allocator@D@2@@std@@AAEXXZ ; std::basic_string<char,std::char_traits<char>,std::allocator<char> >::_Tidy_deallocate
; File C:\Anka2Project\Anka2Project\Source\Binary\source\UserInterface\PythonDynamicModuleNames.cpp

; 60   : 	do { sztmpName = randomStrGen(12); } while (IsUsedName(sztmpName));

  0016b	83 ec 18	 sub	 esp, 24			; 00000018H
  0016e	8d 45 c0	 lea	 eax, DWORD PTR $T3[ebp]
  00171	8b cc		 mov	 ecx, esp
  00173	50		 push	 eax
  00174	e8 00 00 00 00	 call	 ??0?$basic_string@DU?$char_traits@D@std@@V?$allocator@D@2@@std@@QAE@ABV01@@Z ; std::basic_string<char,std::char_traits<char>,std::allocator<char> >::basic_string<char,std::char_traits<char>,std::allocator<char> >
  00179	e8 00 00 00 00	 call	 ?IsUsedName@@YA_NV?$basic_string@DU?$char_traits@D@std@@V?$allocator@D@2@@std@@@Z ; IsUsedName
  0017e	83 c4 18	 add	 esp, 24			; 00000018H
  00181	84 c0		 test	 al, al
  00183	75 9e		 jne	 SHORT $LL17@initPython
; File C:\Program Files\Microsoft Visual Studio\2022\Community\VC\Tools\MSVC\14.44.35207\include\xstring

; 1226 :         if (this == _STD addressof(_Right)) {

  00185	8d 45 c0	 lea	 eax, DWORD PTR $T3[ebp]
  00188	3b f8		 cmp	 edi, eax
  0018a	74 23		 je	 SHORT $LN196@initPython

; 1227 :             return *this;
; 1228 :         }
; 1229 : 
; 1230 :         auto& _Al                 = _Getal();
; 1231 :         auto& _Right_al           = _Right._Getal();
; 1232 :         constexpr auto _Pocma_val = _Choose_pocma_v<_Alty>;
; 1233 :         if constexpr (_Pocma_val == _Pocma_values::_Propagate_allocators) {
; 1234 :             if (_Al != _Right_al) {
; 1235 :                 // intentionally slams into noexcept on OOM, TRANSITION, VSO-466800
; 1236 :                 _Mypair._Myval2._Orphan_all();
; 1237 :                 _Mypair._Myval2._Reload_proxy(_GET_PROXY_ALLOCATOR(_Alty, _Al), _GET_PROXY_ALLOCATOR(_Alty, _Right_al));
; 1238 :             }
; 1239 :         } else if constexpr (_Pocma_val == _Pocma_values::_No_propagate_allocators) {
; 1240 :             if (_Al != _Right_al) {
; 1241 :                 assign(_Right._Mypair._Myval2._Myptr(), _Right._Mypair._Myval2._Mysize);
; 1242 :                 return *this;
; 1243 :             }
; 1244 :         }
; 1245 : 
; 1246 :         _Tidy_deallocate();

  0018c	8b cf		 mov	 ecx, edi
  0018e	e8 00 00 00 00	 call	 ?_Tidy_deallocate@?$basic_string@DU?$char_traits@D@std@@V?$allocator@D@2@@std@@AAEXXZ ; std::basic_string<char,std::char_traits<char>,std::allocator<char> >::_Tidy_deallocate

; 1286 :                 _CSTD memcpy(_My_data_mem, _Right_data_mem, _Memcpy_val_size);

  00193	0f 10 45 c0	 movups	 xmm0, XMMWORD PTR $T3[ebp]

; 1289 :                 _Right_data._Myres  = _Small_string_capacity;

  00197	b8 0f 00 00 00	 mov	 eax, 15			; 0000000fH

; 1290 :                 _Right_data._Activate_SSO_buffer();
; 1291 :                 _Traits::assign(_Right_data._Bx._Buf[0], _Elem());

  0019c	c6 45 c0 00	 mov	 BYTE PTR $T3[ebp], 0
  001a0	0f 11 07	 movups	 XMMWORD PTR [edi], xmm0
  001a3	f3 0f 7e 45 d0	 movq	 xmm0, QWORD PTR $T3[ebp+16]
  001a8	66 0f d6 47 10	 movq	 QWORD PTR [edi+16], xmm0

; 1226 :         if (this == _STD addressof(_Right)) {

  001ad	eb 03		 jmp	 SHORT $LN119@initPython
$LN196@initPython:
  001af	8b 45 d4	 mov	 eax, DWORD PTR $T3[ebp+20]
$LN119@initPython:
; File C:\Anka2Project\Anka2Project\Source\Binary\source\UserInterface\PythonDynamicModuleNames.cpp

; 70   : 			szModuleArray[i] = CreateModuleName();

  001b2	8b 75 a0	 mov	 esi, DWORD PTR $T21[ebp]
  001b5	83 e6 fe	 and	 esi, -2			; fffffffeH
  001b8	c7 45 fc ff ff
	ff ff		 mov	 DWORD PTR __$EHRec$[ebp+8], -1
; File C:\Program Files\Microsoft Visual Studio\2022\Community\VC\Tools\MSVC\14.44.35207\include\xstring

; 453  :         return _Myres > _Small_string_capacity;

  001bf	83 f8 0f	 cmp	 eax, 15			; 0000000fH

; 3083 :         if (_My_data._Large_mode_engaged()) {

  001c2	76 2a		 jbe	 SHORT $LN5@initPython
; File C:\Program Files\Microsoft Visual Studio\2022\Community\VC\Tools\MSVC\14.44.35207\include\xmemory

; 985  :         _STD _Deallocate<_New_alignof<_Ty>>(_Ptr, sizeof(_Ty) * _Count);

  001c4	8b 55 c0	 mov	 edx, DWORD PTR $T3[ebp]
; File C:\Program Files\Microsoft Visual Studio\2022\Community\VC\Tools\MSVC\14.44.35207\include\xstring

; 852  :         _Al.deallocate(_Old_ptr, _Capacity + 1); // +1 for null terminator

  001c7	8d 48 01	 lea	 ecx, DWORD PTR [eax+1]
; File C:\Program Files\Microsoft Visual Studio\2022\Community\VC\Tools\MSVC\14.44.35207\include\xmemory

; 985  :         _STD _Deallocate<_New_alignof<_Ty>>(_Ptr, sizeof(_Ty) * _Count);

  001ca	8b c2		 mov	 eax, edx

; 284  :         if (_Bytes >= _Big_allocation_threshold) {

  001cc	81 f9 00 10 00
	00		 cmp	 ecx, 4096		; 00001000H
  001d2	72 10		 jb	 SHORT $LN161@initPython

; 205  :     const uintptr_t _Ptr_container   = _Ptr_user[-1];

  001d4	8b 50 fc	 mov	 edx, DWORD PTR [eax-4]
  001d7	83 c1 23	 add	 ecx, 35			; 00000023H
  001da	2b c2		 sub	 eax, edx

; 219  :     _STL_VERIFY(_Back_shift >= _Min_back_shift && _Back_shift <= _Non_user_size, "invalid argument");

  001dc	83 c0 fc	 add	 eax, -4			; fffffffcH
  001df	83 f8 1f	 cmp	 eax, 31			; 0000001fH
  001e2	77 34		 ja	 SHORT $LN173@initPython
$LN161@initPython:

; 289  :         ::operator delete(_Ptr, _Bytes);

  001e4	51		 push	 ecx
  001e5	52		 push	 edx
  001e6	e8 00 00 00 00	 call	 ??3@YAXPAXI@Z		; operator delete
  001eb	83 c4 08	 add	 esp, 8
$LN5@initPython:
; File C:\Anka2Project\Anka2Project\Source\Binary\source\UserInterface\PythonDynamicModuleNames.cpp

; 66   : 	for (int i = 0; i < MODULE_MAX; ++i)

  001ee	83 c7 18	 add	 edi, 24			; 00000018H
  001f1	81 ff 90 00 00
	00		 cmp	 edi, OFFSET ?szModuleArray@@3PAV?$basic_string@DU?$char_traits@D@std@@V?$allocator@D@2@@std@@A+144
  001f7	0f 8c f3 fe ff
	ff		 jl	 $LL7@initPython

; 158  : }

  001fd	8b 4d f4	 mov	 ecx, DWORD PTR __$EHRec$[ebp]
  00200	64 89 0d 00 00
	00 00		 mov	 DWORD PTR fs:0, ecx
  00207	59		 pop	 ecx
  00208	5f		 pop	 edi
  00209	5e		 pop	 esi
  0020a	8b 4d f0	 mov	 ecx, DWORD PTR __$ArrayPad$[ebp]
  0020d	33 cd		 xor	 ecx, ebp
  0020f	e8 00 00 00 00	 call	 @__security_check_cookie@4
  00214	8b e5		 mov	 esp, ebp
  00216	5d		 pop	 ebp
  00217	c3		 ret	 0
$LN173@initPython:
; File C:\Program Files\Microsoft Visual Studio\2022\Community\VC\Tools\MSVC\14.44.35207\include\xmemory

; 219  :     _STL_VERIFY(_Back_shift >= _Min_back_shift && _Back_shift <= _Non_user_size, "invalid argument");

  00218	6a 00		 push	 0
  0021a	6a 00		 push	 0
  0021c	6a 00		 push	 0
  0021e	6a 00		 push	 0
  00220	6a 00		 push	 0
  00222	e8 00 00 00 00	 call	 __invoke_watson
$LN198@initPython:
  00227	cc		 int	 3
_TEXT	ENDS
;	COMDAT text$x
text$x	SEGMENT
__unwindfunclet$?initPythonApi@@YAXXZ$1:
  00000	8b 45 a4	 mov	 eax, DWORD PTR $T1[ebp]
  00003	83 e0 01	 and	 eax, 1
  00006	0f 84 0c 00 00
	00		 je	 $LN20@initPython
  0000c	83 65 a4 fe	 and	 DWORD PTR $T1[ebp], -2	; fffffffeH
  00010	8d 4d c0	 lea	 ecx, DWORD PTR $T3[ebp]
  00013	e9 00 00 00 00	 jmp	 ??1?$basic_string@DU?$char_traits@D@std@@V?$allocator@D@2@@std@@QAE@XZ ; std::basic_string<char,std::char_traits<char>,std::allocator<char> >::~basic_string<char,std::char_traits<char>,std::allocator<char> >
$LN20@initPython:
  00018	c3		 ret	 0
  00019	cc		 int	 3
  0001a	cc		 int	 3
  0001b	cc		 int	 3
  0001c	cc		 int	 3
  0001d	cc		 int	 3
__ehhandler$?initPythonApi@@YAXXZ:
  0001e	90		 npad	 1
  0001f	90		 npad	 1
  00020	8b 54 24 08	 mov	 edx, DWORD PTR [esp+8]
  00024	8d 42 0c	 lea	 eax, DWORD PTR [edx+12]
  00027	8b 4a 9c	 mov	 ecx, DWORD PTR [edx-100]
  0002a	33 c8		 xor	 ecx, eax
  0002c	e8 00 00 00 00	 call	 @__security_check_cookie@4
  00031	8b 4a fc	 mov	 ecx, DWORD PTR [edx-4]
  00034	33 c8		 xor	 ecx, eax
  00036	e8 00 00 00 00	 call	 @__security_check_cookie@4
  0003b	b8 00 00 00 00	 mov	 eax, OFFSET __ehfuncinfo$?initPythonApi@@YAXXZ
  00040	e9 00 00 00 00	 jmp	 ___CxxFrameHandler3
text$x	ENDS
?initPythonApi@@YAXXZ ENDP				; initPythonApi
END
