; Listing generated by Microsoft (R) Optimizing Compiler Version 19.44.35219.0 

	TITLE	c:\anka2project\anka2project\source\binary\vs_files\userinterface\release\pythonsystemmodule.obj
	.686P
	.XMM
	include listing.inc
	.model	flat

INCLUDELIB OLDNAMES

PUBLIC	??_C@_0BE@LHLPPLCA@SetInterfaceHandler@		; `string'
PUBLIC	??_C@_08OMBILDHM@GetWidth@			; `string'
PUBLIC	??_C@_0BA@DGMEINM@ReserveResource@		; `string'
PUBLIC	??_C@_0BI@NBDOAHCB@DestroyInterfaceHandler@	; `string'
PUBLIC	??_C@_0BB@DOCGKHHO@SaveWindowStatus@		; `string'
PUBLIC	??_C@_0BC@GGDBAEOO@isInterfaceConfig@		; `string'
PUBLIC	??_C@_0BD@PNJEEMA@GetResolutionCount@		; `string'
PUBLIC	??_C@_0BA@OIPDIACO@GetWindowStatus@		; `string'
PUBLIC	??_C@_0BF@GJHGOKBH@GetCurrentResolution@	; `string'
PUBLIC	??_C@_0BC@MMLDLJCA@GetFrequencyCount@		; `string'
PUBLIC	??_C@_0N@DEDCKOKK@GetFrequency@			; `string'
PUBLIC	??_C@_0O@MCJGAEI@GetResolution@			; `string'
PUBLIC	??_C@_09KJAMEPBE@SetConfig@			; `string'
PUBLIC	??_C@_0M@PHHLFDDI@ApplyConfig@			; `string'
PUBLIC	??_C@_09IHEJGOIG@GetConfig@			; `string'
PUBLIC	??_C@_0L@IJAHDAKP@SaveConfig@			; `string'
PUBLIC	??_C@_08ILEIELBI@isSaveID@			; `string'
PUBLIC	??_C@_09DABJPAIG@SetSaveID@			; `string'
PUBLIC	??_C@_0P@HIIHPFML@GetMusicVolume@		; `string'
PUBLIC	??_C@_09BOFMNBBE@GetSaveID@			; `string'
PUBLIC	??_C@_0BB@BFMNFHIM@IsSoftwareCursor@		; `string'
PUBLIC	??_C@_0P@LCENEDPB@GetSoundVolume@		; `string'
PUBLIC	??_C@_0L@MGMBGKCF@IsViewChat@			; `string'
PUBLIC	??_C@_0BA@MFKECAML@SetViewChatFlag@		; `string'
PUBLIC	??_C@_0BB@NKNDCIFA@IsAlwaysShowName@		; `string'
PUBLIC	??_C@_0BG@GMBDCOC@SetAlwaysShowNameFlag@	; `string'
PUBLIC	??_C@_0N@FLKCLECP@IsShowDamage@			; `string'
PUBLIC	??_C@_0BC@JHKGLKC@SetShowDamageFlag@		; `string'
PUBLIC	??_C@_0BA@GPLIEFHC@IsShowSalesText@		; `string'
PUBLIC	??_C@_0BF@IKKCKDDD@SetShowSalesTextFlag@	; `string'
PUBLIC	??_C@_0L@PMCKOHOM@SetFogMode@			; `string'
PUBLIC	??_C@_0P@FFPBIDPG@GetShadowLevel@		; `string'
PUBLIC	??_C@_0BF@BNPEAANC@SetENBModeStatusFlag@	; `string'
PUBLIC	??_C@_09KEHLALME@IsFogMode@			; `string'
PUBLIC	??_C@_0BD@HJAMJMPF@GetNightModeOption@		; `string'
PUBLIC	??_C@_0BA@JJFEPBJE@IsENBModeStatus@		; `string'
PUBLIC	??_C@_0BC@BPEHENJ@GetSnowModeOption@		; `string'
PUBLIC	??_C@_0BC@CEPPPPMH@SetSnowModeOption@		; `string'
PUBLIC	??_C@_0BJ@NHIMEOE@GetSnowTextureModeOption@	; `string'
PUBLIC	??_C@_0BJ@KONCKJHB@SetSnowTextureModeOption@	; `string'
PUBLIC	??_C@_0P@LJFMBKCI@SetEffectLevel@		; `string'
PUBLIC	??_C@_0P@HHECOAAE@GetEffectLevel@		; `string'
PUBLIC	??_C@_0BE@EMJCKJCE@SetPrivateShopLevel@		; `string'
PUBLIC	??_C@_0BE@OCLJOJFI@GetPrivateShopLevel@		; `string'
PUBLIC	??_C@_0BB@JLDOILPN@SetDropItemLevel@		; `string'
PUBLIC	??_C@_0BB@PPGHDFEP@GetDropItemLevel@		; `string'
PUBLIC	??_C@_0M@FNHDAIIP@IsPetStatus@			; `string'
PUBLIC	??_C@_0BB@HIMOPDMG@SetPetStatusFlag@		; `string'
PUBLIC	??_C@_0BA@IDOPFMJI@IsNpcNameStatus@		; `string'
PUBLIC	??_C@_0BF@HMNBPPFA@SetNpcNameStatusFlag@	; `string'
PUBLIC	??_C@_0BA@LEFGMI@IsShowMobAIFlag@		; `string'
PUBLIC	??_C@_0BB@BHHBOMIC@SetShowMobAIFlag@		; `string'
PUBLIC	??_C@_0P@JFHLFAED@IsShowMobLevel@		; `string'
PUBLIC	??_C@_0BA@OHHPFJNN@SetShowMobLevel@		; `string'
PUBLIC	??_C@_0O@ENDIKLLE@IsShowOutline@		; `string'
PUBLIC	??_C@_0BD@LMAHLJGH@SetShowOutlineFlag@		; `string'
PUBLIC	??_C@_06JOAMIEFO@GetFOV@			; `string'
PUBLIC	??_C@_06NJNDMID@SetFOV@				; `string'
PUBLIC	??_C@_0O@DBDOEDLC@GetStoneScale@		; `string'
PUBLIC	??_C@_0O@EOCAPAMF@SetStoneScale@		; `string'
PUBLIC	??_C@_0BA@CNEEDNIE@GetDungeonTrack@		; `string'
PUBLIC	??_C@_0BA@BPFCEPJN@SetDungeonTrack@		; `string'
PUBLIC	??_C@_0N@HDLKHPPH@GetBossTrack@			; `string'
PUBLIC	??_C@_0N@HAELDLL@SetBossTrack@			; `string'
PUBLIC	??_C@_0O@EDOCFBFG@WINDOW_STATUS@		; `string'
PUBLIC	??_C@_0O@LCPLIAAE@systemSetting@		; `string'
PUBLIC	??_C@_0P@HAOBMPKD@WINDOW_ABILITY@		; `string'
PUBLIC	??_C@_0BB@CHCHLBGG@WINDOW_INVENTORY@		; `string'
PUBLIC	??_C@_0P@FHBHOGAA@WINDOW_JOURNAL@		; `string'
PUBLIC	??_C@_0P@MAFILJL@WINDOW_SOCIETY@		; `string'
PUBLIC	??_C@_0N@BOOBGFI@WINDOW_QUICK@			; `string'
PUBLIC	??_C@_0P@NOILKAON@WINDOW_COMMAND@		; `string'
PUBLIC	??_C@_0P@LEOBHMFL@WINDOW_MINIMAP@		; `string'
PUBLIC	??_C@_0N@MCEEKLOJ@WINDOW_GAUGE@			; `string'
PUBLIC	??_C@_0M@GHKKFINH@WINDOW_CHAT@			; `string'
EXTRN	?PushBackgroundLoadingSet@CResourceManager@@QAEXAAV?$set@V?$basic_string@DU?$char_traits@D@std@@V?$allocator@D@2@@std@@U?$less@V?$basic_string@DU?$char_traits@D@std@@V?$allocator@D@2@@std@@@2@V?$allocator@V?$basic_string@DU?$char_traits@D@std@@V?$allocator@D@2@@std@@@2@@std@@@Z:PROC ; CResourceManager::PushBackgroundLoadingSet
;	COMDAT ?s_methods@?1??initsystem@@YAXXZ@4PAUPyMethodDef@@A
_DATA	SEGMENT
?s_methods@?1??initsystem@@YAXXZ@4PAUPyMethodDef@@A DD FLAT:??_C@_08OMBILDHM@GetWidth@ ; `initsystem'::`2'::s_methods
	DD	FLAT:?systemGetWidth@@YAPAU_object@@PAU1@0@Z
	DD	01H
	ORG $+4
	DD	FLAT:??_C@_09EOGEIJMK@GetHeight@
	DD	FLAT:?systemGetHeight@@YAPAU_object@@PAU1@0@Z
	DD	01H
	ORG $+4
	DD	FLAT:??_C@_0BE@LHLPPLCA@SetInterfaceHandler@
	DD	FLAT:?systemSetInterfaceHandler@@YAPAU_object@@PAU1@0@Z
	DD	01H
	ORG $+4
	DD	FLAT:??_C@_0BI@NBDOAHCB@DestroyInterfaceHandler@
	DD	FLAT:?systemDestroyInterfaceHandler@@YAPAU_object@@PAU1@0@Z
	DD	01H
	ORG $+4
	DD	FLAT:??_C@_0BA@DGMEINM@ReserveResource@
	DD	FLAT:?systemReserveResource@@YAPAU_object@@PAU1@0@Z
	DD	01H
	ORG $+4
	DD	FLAT:??_C@_0BC@GGDBAEOO@isInterfaceConfig@
	DD	FLAT:?systemisInterfaceConfig@@YAPAU_object@@PAU1@0@Z
	DD	01H
	ORG $+4
	DD	FLAT:??_C@_0BB@DOCGKHHO@SaveWindowStatus@
	DD	FLAT:?systemSaveWindowStatus@@YAPAU_object@@PAU1@0@Z
	DD	01H
	ORG $+4
	DD	FLAT:??_C@_0BA@OIPDIACO@GetWindowStatus@
	DD	FLAT:?systemGetWindowStatus@@YAPAU_object@@PAU1@0@Z
	DD	01H
	ORG $+4
	DD	FLAT:??_C@_0BD@PNJEEMA@GetResolutionCount@
	DD	FLAT:?systemGetResolutionCount@@YAPAU_object@@PAU1@0@Z
	DD	01H
	ORG $+4
	DD	FLAT:??_C@_0BC@MMLDLJCA@GetFrequencyCount@
	DD	FLAT:?systemGetFrequencyCount@@YAPAU_object@@PAU1@0@Z
	DD	01H
	ORG $+4
	DD	FLAT:??_C@_0BF@GJHGOKBH@GetCurrentResolution@
	DD	FLAT:?systemGetCurrentResolution@@YAPAU_object@@PAU1@0@Z
	DD	01H
	ORG $+4
	DD	FLAT:??_C@_0O@MCJGAEI@GetResolution@
	DD	FLAT:?systemGetResolution@@YAPAU_object@@PAU1@0@Z
	DD	01H
	ORG $+4
	DD	FLAT:??_C@_0N@DEDCKOKK@GetFrequency@
	DD	FLAT:?systemGetFrequency@@YAPAU_object@@PAU1@0@Z
	DD	01H
	ORG $+4
	DD	FLAT:??_C@_0M@PHHLFDDI@ApplyConfig@
	DD	FLAT:?systemApplyConfig@@YAPAU_object@@PAU1@0@Z
	DD	01H
	ORG $+4
	DD	FLAT:??_C@_09KJAMEPBE@SetConfig@
	DD	FLAT:?systemSetConfig@@YAPAU_object@@PAU1@0@Z
	DD	01H
	ORG $+4
	DD	FLAT:??_C@_0L@IJAHDAKP@SaveConfig@
	DD	FLAT:?systemSaveConfig@@YAPAU_object@@PAU1@0@Z
	DD	01H
	ORG $+4
	DD	FLAT:??_C@_09IHEJGOIG@GetConfig@
	DD	FLAT:?systemGetConfig@@YAPAU_object@@PAU1@0@Z
	DD	01H
	ORG $+4
	DD	FLAT:??_C@_09DABJPAIG@SetSaveID@
	DD	FLAT:?systemSetSaveID@@YAPAU_object@@PAU1@0@Z
	DD	01H
	ORG $+4
	DD	FLAT:??_C@_08ILEIELBI@isSaveID@
	DD	FLAT:?systemisSaveID@@YAPAU_object@@PAU1@0@Z
	DD	01H
	ORG $+4
	DD	FLAT:??_C@_09BOFMNBBE@GetSaveID@
	DD	FLAT:?systemGetSaveID@@YAPAU_object@@PAU1@0@Z
	DD	01H
	ORG $+4
	DD	FLAT:??_C@_0P@HIIHPFML@GetMusicVolume@
	DD	FLAT:?systemGetMusicVolume@@YAPAU_object@@PAU1@0@Z
	DD	01H
	ORG $+4
	DD	FLAT:??_C@_0P@LCENEDPB@GetSoundVolume@
	DD	FLAT:?systemGetSoundVolume@@YAPAU_object@@PAU1@0@Z
	DD	01H
	ORG $+4
	DD	FLAT:??_C@_0P@LGJJAPOH@SetMusicVolume@
	DD	FLAT:?systemSetMusicVolume@@YAPAU_object@@PAU1@0@Z
	DD	01H
	ORG $+4
	DD	FLAT:??_C@_0BA@MLLJDBPB@SetSoundVolumef@
	DD	FLAT:?systemSetSoundVolumef@@YAPAU_object@@PAU1@0@Z
	DD	01H
	ORG $+4
	DD	FLAT:??_C@_0BB@BFMNFHIM@IsSoftwareCursor@
	DD	FLAT:?systemIsSoftwareCursor@@YAPAU_object@@PAU1@0@Z
	DD	01H
	ORG $+4
	DD	FLAT:??_C@_0BA@MFKECAML@SetViewChatFlag@
	DD	FLAT:?systemSetViewChatFlag@@YAPAU_object@@PAU1@0@Z
	DD	01H
	ORG $+4
	DD	FLAT:??_C@_0L@MGMBGKCF@IsViewChat@
	DD	FLAT:?systemIsViewChat@@YAPAU_object@@PAU1@0@Z
	DD	01H
	ORG $+4
	DD	FLAT:??_C@_0BG@GMBDCOC@SetAlwaysShowNameFlag@
	DD	FLAT:?systemSetAlwaysShowNameFlag@@YAPAU_object@@PAU1@0@Z
	DD	01H
	ORG $+4
	DD	FLAT:??_C@_0BB@NKNDCIFA@IsAlwaysShowName@
	DD	FLAT:?systemIsAlwaysShowName@@YAPAU_object@@PAU1@0@Z
	DD	01H
	ORG $+4
	DD	FLAT:??_C@_0BC@JHKGLKC@SetShowDamageFlag@
	DD	FLAT:?systemSetShowDamageFlag@@YAPAU_object@@PAU1@0@Z
	DD	01H
	ORG $+4
	DD	FLAT:??_C@_0N@FLKCLECP@IsShowDamage@
	DD	FLAT:?systemIsShowDamage@@YAPAU_object@@PAU1@0@Z
	DD	01H
	ORG $+4
	DD	FLAT:??_C@_0BF@IKKCKDDD@SetShowSalesTextFlag@
	DD	FLAT:?systemSetShowSalesTextFlag@@YAPAU_object@@PAU1@0@Z
	DD	01H
	ORG $+4
	DD	FLAT:??_C@_0BA@GPLIEFHC@IsShowSalesText@
	DD	FLAT:?systemIsShowSalesText@@YAPAU_object@@PAU1@0@Z
	DD	01H
	ORG $+4
	DD	FLAT:??_C@_0P@FFPBIDPG@GetShadowLevel@
	DD	FLAT:?systemGetShadowLevel@@YAPAU_object@@PAU1@0@Z
	DD	01H
	ORG $+4
	DD	FLAT:??_C@_0P@JLOPHJNK@SetShadowLevel@
	DD	FLAT:?systemSetShadowLevel@@YAPAU_object@@PAU1@0@Z
	DD	01H
	ORG $+4
	DD	FLAT:??_C@_0L@PMCKOHOM@SetFogMode@
	DD	FLAT:?systemSetFogMode@@YAPAU_object@@PAU1@0@Z
	DD	01H
	ORG $+4
	DD	FLAT:??_C@_09KEHLALME@IsFogMode@
	DD	FLAT:?systemIsFogMode@@YAPAU_object@@PAU1@0@Z
	DD	01H
	ORG $+4
	DD	FLAT:??_C@_0BF@BNPEAANC@SetENBModeStatusFlag@
	DD	FLAT:?systemSetENBModeStatusFlag@@YAPAU_object@@PAU1@0@Z
	DD	01H
	ORG $+4
	DD	FLAT:??_C@_0BA@JJFEPBJE@IsENBModeStatus@
	DD	FLAT:?systemIsENBModeStatus@@YAPAU_object@@PAU1@0@Z
	DD	01H
	ORG $+4
	DD	FLAT:??_C@_0BD@IDCGKKBN@SetNightModeOption@
	DD	FLAT:?systemSetNightModeOption@@YAPAU_object@@PAU1@0@Z
	DD	01H
	ORG $+4
	DD	FLAT:??_C@_0BD@HJAMJMPF@GetNightModeOption@
	DD	FLAT:?systemGetNightModeOption@@YAPAU_object@@PAU1@0@Z
	DD	01H
	ORG $+4
	DD	FLAT:??_C@_0BC@CEPPPPMH@SetSnowModeOption@
	DD	FLAT:?systemSetSnowModeOption@@YAPAU_object@@PAU1@0@Z
	DD	01H
	ORG $+4
	DD	FLAT:??_C@_0BC@BPEHENJ@GetSnowModeOption@
	DD	FLAT:?systemGetSnowModeOption@@YAPAU_object@@PAU1@0@Z
	DD	01H
	ORG $+4
	DD	FLAT:??_C@_0BJ@KONCKJHB@SetSnowTextureModeOption@
	DD	FLAT:?systemSetSnowTextureModeOption@@YAPAU_object@@PAU1@0@Z
	DD	01H
	ORG $+4
	DD	FLAT:??_C@_0BJ@NHIMEOE@GetSnowTextureModeOption@
	DD	FLAT:?systemGetSnowTextureModeOption@@YAPAU_object@@PAU1@0@Z
	DD	01H
	ORG $+4
	DD	FLAT:??_C@_0P@HHECOAAE@GetEffectLevel@
	DD	FLAT:?systemGetEffectLevel@@YAPAU_object@@PAU1@0@Z
	DD	01H
	ORG $+4
	DD	FLAT:??_C@_0P@LJFMBKCI@SetEffectLevel@
	DD	FLAT:?systemSetEffectLevel@@YAPAU_object@@PAU1@0@Z
	DD	01H
	ORG $+4
	DD	FLAT:??_C@_0BE@OCLJOJFI@GetPrivateShopLevel@
	DD	FLAT:?systemGetPrivateShopLevel@@YAPAU_object@@PAU1@0@Z
	DD	01H
	ORG $+4
	DD	FLAT:??_C@_0BE@EMJCKJCE@SetPrivateShopLevel@
	DD	FLAT:?systemSetPrivateShopLevel@@YAPAU_object@@PAU1@0@Z
	DD	01H
	ORG $+4
	DD	FLAT:??_C@_0BB@PPGHDFEP@GetDropItemLevel@
	DD	FLAT:?systemGetDropItemLevel@@YAPAU_object@@PAU1@0@Z
	DD	01H
	ORG $+4
	DD	FLAT:??_C@_0BB@JLDOILPN@SetDropItemLevel@
	DD	FLAT:?systemSetDropItemLevel@@YAPAU_object@@PAU1@0@Z
	DD	01H
	ORG $+4
	DD	FLAT:??_C@_0BB@HIMOPDMG@SetPetStatusFlag@
	DD	FLAT:?systemSetPetStatusFlag@@YAPAU_object@@PAU1@0@Z
	DD	01H
	ORG $+4
	DD	FLAT:??_C@_0M@FNHDAIIP@IsPetStatus@
	DD	FLAT:?systemIsPetStatus@@YAPAU_object@@PAU1@0@Z
	DD	01H
	ORG $+4
	DD	FLAT:??_C@_0BF@HMNBPPFA@SetNpcNameStatusFlag@
	DD	FLAT:?systemSetNpcNameStatusFlag@@YAPAU_object@@PAU1@0@Z
	DD	01H
	ORG $+4
	DD	FLAT:??_C@_0BA@IDOPFMJI@IsNpcNameStatus@
	DD	FLAT:?systemIsNpcNameStatus@@YAPAU_object@@PAU1@0@Z
	DD	01H
	ORG $+4
	DD	FLAT:??_C@_0BB@BHHBOMIC@SetShowMobAIFlag@
	DD	FLAT:?systemSetShowMobAIFlag@@YAPAU_object@@PAU1@0@Z
	DD	01H
	ORG $+4
	DD	FLAT:??_C@_0BA@LEFGMI@IsShowMobAIFlag@
	DD	FLAT:?systemIsShowMobAIFlag@@YAPAU_object@@PAU1@0@Z
	DD	01H
	ORG $+4
	DD	FLAT:??_C@_0BA@OHHPFJNN@SetShowMobLevel@
	DD	FLAT:?systemSetShowMobLevel@@YAPAU_object@@PAU1@0@Z
	DD	01H
	ORG $+4
	DD	FLAT:??_C@_0P@JFHLFAED@IsShowMobLevel@
	DD	FLAT:?systemIsShowMobLevel@@YAPAU_object@@PAU1@0@Z
	DD	01H
	ORG $+4
	DD	FLAT:??_C@_0BD@LMAHLJGH@SetShowOutlineFlag@
	DD	FLAT:?systemSetShowOutlineFlag@@YAPAU_object@@PAU1@0@Z
	DD	01H
	ORG $+4
	DD	FLAT:??_C@_0O@ENDIKLLE@IsShowOutline@
	DD	FLAT:?systemIsShowOutline@@YAPAU_object@@PAU1@0@Z
	DD	01H
	ORG $+4
	DD	FLAT:??_C@_06NJNDMID@SetFOV@
	DD	FLAT:?systemSetFOV@@YAPAU_object@@PAU1@0@Z
	DD	01H
	ORG $+4
	DD	FLAT:??_C@_06JOAMIEFO@GetFOV@
	DD	FLAT:?systemGetFOV@@YAPAU_object@@PAU1@0@Z
	DD	01H
	ORG $+4
	DD	FLAT:??_C@_0O@EOCAPAMF@SetStoneScale@
	DD	FLAT:?systemSetStoneScale@@YAPAU_object@@PAU1@0@Z
	DD	01H
	ORG $+4
	DD	FLAT:??_C@_0O@DBDOEDLC@GetStoneScale@
	DD	FLAT:?systemGetStoneScale@@YAPAU_object@@PAU1@0@Z
	DD	01H
	ORG $+4
	DD	FLAT:??_C@_0BA@BPFCEPJN@SetDungeonTrack@
	DD	FLAT:?systemSetDungeonTrack@@YAPAU_object@@PAU1@0@Z
	DD	01H
	ORG $+4
	DD	FLAT:??_C@_0BA@CNEEDNIE@GetDungeonTrack@
	DD	FLAT:?systemGetDungeonTrack@@YAPAU_object@@PAU1@0@Z
	DD	01H
	ORG $+4
	DD	FLAT:??_C@_0N@HAELDLL@SetBossTrack@
	DD	FLAT:?systemSetBossTrack@@YAPAU_object@@PAU1@0@Z
	DD	01H
	ORG $+4
	DD	FLAT:??_C@_0N@HDLKHPPH@GetBossTrack@
	DD	FLAT:?systemGetBossTrack@@YAPAU_object@@PAU1@0@Z
	DD	01H
	ORG $+4
	DD	00H
	DD	00H
	ORG $+8
_DATA	ENDS
;	COMDAT ??_C@_0M@GHKKFINH@WINDOW_CHAT@
CONST	SEGMENT
??_C@_0M@GHKKFINH@WINDOW_CHAT@ DB 'WINDOW_CHAT', 00H	; `string'
CONST	ENDS
;	COMDAT ??_C@_0N@MCEEKLOJ@WINDOW_GAUGE@
CONST	SEGMENT
??_C@_0N@MCEEKLOJ@WINDOW_GAUGE@ DB 'WINDOW_GAUGE', 00H	; `string'
CONST	ENDS
;	COMDAT ??_C@_0P@LEOBHMFL@WINDOW_MINIMAP@
CONST	SEGMENT
??_C@_0P@LEOBHMFL@WINDOW_MINIMAP@ DB 'WINDOW_MINIMAP', 00H ; `string'
CONST	ENDS
;	COMDAT ??_C@_0P@NOILKAON@WINDOW_COMMAND@
CONST	SEGMENT
??_C@_0P@NOILKAON@WINDOW_COMMAND@ DB 'WINDOW_COMMAND', 00H ; `string'
CONST	ENDS
;	COMDAT ??_C@_0N@BOOBGFI@WINDOW_QUICK@
CONST	SEGMENT
??_C@_0N@BOOBGFI@WINDOW_QUICK@ DB 'WINDOW_QUICK', 00H	; `string'
CONST	ENDS
;	COMDAT ??_C@_0P@MAFILJL@WINDOW_SOCIETY@
CONST	SEGMENT
??_C@_0P@MAFILJL@WINDOW_SOCIETY@ DB 'WINDOW_SOCIETY', 00H ; `string'
CONST	ENDS
;	COMDAT ??_C@_0P@FHBHOGAA@WINDOW_JOURNAL@
CONST	SEGMENT
??_C@_0P@FHBHOGAA@WINDOW_JOURNAL@ DB 'WINDOW_JOURNAL', 00H ; `string'
CONST	ENDS
;	COMDAT ??_C@_0BB@CHCHLBGG@WINDOW_INVENTORY@
CONST	SEGMENT
??_C@_0BB@CHCHLBGG@WINDOW_INVENTORY@ DB 'WINDOW_INVENTORY', 00H ; `string'
CONST	ENDS
;	COMDAT ??_C@_0P@HAOBMPKD@WINDOW_ABILITY@
CONST	SEGMENT
??_C@_0P@HAOBMPKD@WINDOW_ABILITY@ DB 'WINDOW_ABILITY', 00H ; `string'
CONST	ENDS
;	COMDAT ??_C@_0O@LCPLIAAE@systemSetting@
CONST	SEGMENT
??_C@_0O@LCPLIAAE@systemSetting@ DB 'systemSetting', 00H ; `string'
CONST	ENDS
;	COMDAT ??_C@_0O@EDOCFBFG@WINDOW_STATUS@
CONST	SEGMENT
??_C@_0O@EDOCFBFG@WINDOW_STATUS@ DB 'WINDOW_STATUS', 00H ; `string'
CONST	ENDS
;	COMDAT ??_C@_0N@HAELDLL@SetBossTrack@
CONST	SEGMENT
??_C@_0N@HAELDLL@SetBossTrack@ DB 'SetBossTrack', 00H	; `string'
CONST	ENDS
;	COMDAT ??_C@_0N@HDLKHPPH@GetBossTrack@
CONST	SEGMENT
??_C@_0N@HDLKHPPH@GetBossTrack@ DB 'GetBossTrack', 00H	; `string'
CONST	ENDS
;	COMDAT ??_C@_0BA@BPFCEPJN@SetDungeonTrack@
CONST	SEGMENT
??_C@_0BA@BPFCEPJN@SetDungeonTrack@ DB 'SetDungeonTrack', 00H ; `string'
CONST	ENDS
;	COMDAT ??_C@_0BA@CNEEDNIE@GetDungeonTrack@
CONST	SEGMENT
??_C@_0BA@CNEEDNIE@GetDungeonTrack@ DB 'GetDungeonTrack', 00H ; `string'
CONST	ENDS
;	COMDAT ??_C@_0O@EOCAPAMF@SetStoneScale@
CONST	SEGMENT
??_C@_0O@EOCAPAMF@SetStoneScale@ DB 'SetStoneScale', 00H ; `string'
CONST	ENDS
;	COMDAT ??_C@_0O@DBDOEDLC@GetStoneScale@
CONST	SEGMENT
??_C@_0O@DBDOEDLC@GetStoneScale@ DB 'GetStoneScale', 00H ; `string'
CONST	ENDS
;	COMDAT ??_C@_06NJNDMID@SetFOV@
CONST	SEGMENT
??_C@_06NJNDMID@SetFOV@ DB 'SetFOV', 00H		; `string'
CONST	ENDS
;	COMDAT ??_C@_06JOAMIEFO@GetFOV@
CONST	SEGMENT
??_C@_06JOAMIEFO@GetFOV@ DB 'GetFOV', 00H		; `string'
CONST	ENDS
;	COMDAT ??_C@_0BD@LMAHLJGH@SetShowOutlineFlag@
CONST	SEGMENT
??_C@_0BD@LMAHLJGH@SetShowOutlineFlag@ DB 'SetShowOutlineFlag', 00H ; `string'
CONST	ENDS
;	COMDAT ??_C@_0O@ENDIKLLE@IsShowOutline@
CONST	SEGMENT
??_C@_0O@ENDIKLLE@IsShowOutline@ DB 'IsShowOutline', 00H ; `string'
CONST	ENDS
;	COMDAT ??_C@_0BA@OHHPFJNN@SetShowMobLevel@
CONST	SEGMENT
??_C@_0BA@OHHPFJNN@SetShowMobLevel@ DB 'SetShowMobLevel', 00H ; `string'
CONST	ENDS
;	COMDAT ??_C@_0P@JFHLFAED@IsShowMobLevel@
CONST	SEGMENT
??_C@_0P@JFHLFAED@IsShowMobLevel@ DB 'IsShowMobLevel', 00H ; `string'
CONST	ENDS
;	COMDAT ??_C@_0BB@BHHBOMIC@SetShowMobAIFlag@
CONST	SEGMENT
??_C@_0BB@BHHBOMIC@SetShowMobAIFlag@ DB 'SetShowMobAIFlag', 00H ; `string'
CONST	ENDS
;	COMDAT ??_C@_0BA@LEFGMI@IsShowMobAIFlag@
CONST	SEGMENT
??_C@_0BA@LEFGMI@IsShowMobAIFlag@ DB 'IsShowMobAIFlag', 00H ; `string'
CONST	ENDS
;	COMDAT ??_C@_0BF@HMNBPPFA@SetNpcNameStatusFlag@
CONST	SEGMENT
??_C@_0BF@HMNBPPFA@SetNpcNameStatusFlag@ DB 'SetNpcNameStatusFlag', 00H ; `string'
CONST	ENDS
;	COMDAT ??_C@_0BA@IDOPFMJI@IsNpcNameStatus@
CONST	SEGMENT
??_C@_0BA@IDOPFMJI@IsNpcNameStatus@ DB 'IsNpcNameStatus', 00H ; `string'
CONST	ENDS
;	COMDAT ??_C@_0BB@HIMOPDMG@SetPetStatusFlag@
CONST	SEGMENT
??_C@_0BB@HIMOPDMG@SetPetStatusFlag@ DB 'SetPetStatusFlag', 00H ; `string'
CONST	ENDS
;	COMDAT ??_C@_0M@FNHDAIIP@IsPetStatus@
CONST	SEGMENT
??_C@_0M@FNHDAIIP@IsPetStatus@ DB 'IsPetStatus', 00H	; `string'
CONST	ENDS
;	COMDAT ??_C@_0BB@PPGHDFEP@GetDropItemLevel@
CONST	SEGMENT
??_C@_0BB@PPGHDFEP@GetDropItemLevel@ DB 'GetDropItemLevel', 00H ; `string'
CONST	ENDS
;	COMDAT ??_C@_0BB@JLDOILPN@SetDropItemLevel@
CONST	SEGMENT
??_C@_0BB@JLDOILPN@SetDropItemLevel@ DB 'SetDropItemLevel', 00H ; `string'
CONST	ENDS
;	COMDAT ??_C@_0BE@OCLJOJFI@GetPrivateShopLevel@
CONST	SEGMENT
??_C@_0BE@OCLJOJFI@GetPrivateShopLevel@ DB 'GetPrivateShopLevel', 00H ; `string'
CONST	ENDS
;	COMDAT ??_C@_0BE@EMJCKJCE@SetPrivateShopLevel@
CONST	SEGMENT
??_C@_0BE@EMJCKJCE@SetPrivateShopLevel@ DB 'SetPrivateShopLevel', 00H ; `string'
CONST	ENDS
;	COMDAT ??_C@_0P@HHECOAAE@GetEffectLevel@
CONST	SEGMENT
??_C@_0P@HHECOAAE@GetEffectLevel@ DB 'GetEffectLevel', 00H ; `string'
CONST	ENDS
;	COMDAT ??_C@_0P@LJFMBKCI@SetEffectLevel@
CONST	SEGMENT
??_C@_0P@LJFMBKCI@SetEffectLevel@ DB 'SetEffectLevel', 00H ; `string'
CONST	ENDS
;	COMDAT ??_C@_0BJ@KONCKJHB@SetSnowTextureModeOption@
CONST	SEGMENT
??_C@_0BJ@KONCKJHB@SetSnowTextureModeOption@ DB 'SetSnowTextureModeOption'
	DB	00H						; `string'
CONST	ENDS
;	COMDAT ??_C@_0BJ@NHIMEOE@GetSnowTextureModeOption@
CONST	SEGMENT
??_C@_0BJ@NHIMEOE@GetSnowTextureModeOption@ DB 'GetSnowTextureModeOption', 00H ; `string'
CONST	ENDS
;	COMDAT ??_C@_0BC@CEPPPPMH@SetSnowModeOption@
CONST	SEGMENT
??_C@_0BC@CEPPPPMH@SetSnowModeOption@ DB 'SetSnowModeOption', 00H ; `string'
CONST	ENDS
;	COMDAT ??_C@_0BC@BPEHENJ@GetSnowModeOption@
CONST	SEGMENT
??_C@_0BC@BPEHENJ@GetSnowModeOption@ DB 'GetSnowModeOption', 00H ; `string'
CONST	ENDS
;	COMDAT ??_C@_0BA@JJFEPBJE@IsENBModeStatus@
CONST	SEGMENT
??_C@_0BA@JJFEPBJE@IsENBModeStatus@ DB 'IsENBModeStatus', 00H ; `string'
CONST	ENDS
;	COMDAT ??_C@_0BD@HJAMJMPF@GetNightModeOption@
CONST	SEGMENT
??_C@_0BD@HJAMJMPF@GetNightModeOption@ DB 'GetNightModeOption', 00H ; `string'
CONST	ENDS
;	COMDAT ??_C@_09KEHLALME@IsFogMode@
CONST	SEGMENT
??_C@_09KEHLALME@IsFogMode@ DB 'IsFogMode', 00H		; `string'
CONST	ENDS
;	COMDAT ??_C@_0BF@BNPEAANC@SetENBModeStatusFlag@
CONST	SEGMENT
??_C@_0BF@BNPEAANC@SetENBModeStatusFlag@ DB 'SetENBModeStatusFlag', 00H ; `string'
CONST	ENDS
;	COMDAT ??_C@_0P@FFPBIDPG@GetShadowLevel@
CONST	SEGMENT
??_C@_0P@FFPBIDPG@GetShadowLevel@ DB 'GetShadowLevel', 00H ; `string'
CONST	ENDS
;	COMDAT ??_C@_0L@PMCKOHOM@SetFogMode@
CONST	SEGMENT
??_C@_0L@PMCKOHOM@SetFogMode@ DB 'SetFogMode', 00H	; `string'
CONST	ENDS
;	COMDAT ??_C@_0BF@IKKCKDDD@SetShowSalesTextFlag@
CONST	SEGMENT
??_C@_0BF@IKKCKDDD@SetShowSalesTextFlag@ DB 'SetShowSalesTextFlag', 00H ; `string'
CONST	ENDS
;	COMDAT ??_C@_0BA@GPLIEFHC@IsShowSalesText@
CONST	SEGMENT
??_C@_0BA@GPLIEFHC@IsShowSalesText@ DB 'IsShowSalesText', 00H ; `string'
CONST	ENDS
;	COMDAT ??_C@_0BC@JHKGLKC@SetShowDamageFlag@
CONST	SEGMENT
??_C@_0BC@JHKGLKC@SetShowDamageFlag@ DB 'SetShowDamageFlag', 00H ; `string'
CONST	ENDS
;	COMDAT ??_C@_0N@FLKCLECP@IsShowDamage@
CONST	SEGMENT
??_C@_0N@FLKCLECP@IsShowDamage@ DB 'IsShowDamage', 00H	; `string'
CONST	ENDS
;	COMDAT ??_C@_0BG@GMBDCOC@SetAlwaysShowNameFlag@
CONST	SEGMENT
??_C@_0BG@GMBDCOC@SetAlwaysShowNameFlag@ DB 'SetAlwaysShowNameFlag', 00H ; `string'
CONST	ENDS
;	COMDAT ??_C@_0BB@NKNDCIFA@IsAlwaysShowName@
CONST	SEGMENT
??_C@_0BB@NKNDCIFA@IsAlwaysShowName@ DB 'IsAlwaysShowName', 00H ; `string'
CONST	ENDS
;	COMDAT ??_C@_0BA@MFKECAML@SetViewChatFlag@
CONST	SEGMENT
??_C@_0BA@MFKECAML@SetViewChatFlag@ DB 'SetViewChatFlag', 00H ; `string'
CONST	ENDS
;	COMDAT ??_C@_0L@MGMBGKCF@IsViewChat@
CONST	SEGMENT
??_C@_0L@MGMBGKCF@IsViewChat@ DB 'IsViewChat', 00H	; `string'
CONST	ENDS
;	COMDAT ??_C@_0P@LCENEDPB@GetSoundVolume@
CONST	SEGMENT
??_C@_0P@LCENEDPB@GetSoundVolume@ DB 'GetSoundVolume', 00H ; `string'
CONST	ENDS
;	COMDAT ??_C@_0BB@BFMNFHIM@IsSoftwareCursor@
CONST	SEGMENT
??_C@_0BB@BFMNFHIM@IsSoftwareCursor@ DB 'IsSoftwareCursor', 00H ; `string'
CONST	ENDS
;	COMDAT ??_C@_09BOFMNBBE@GetSaveID@
CONST	SEGMENT
??_C@_09BOFMNBBE@GetSaveID@ DB 'GetSaveID', 00H		; `string'
CONST	ENDS
;	COMDAT ??_C@_0P@HIIHPFML@GetMusicVolume@
CONST	SEGMENT
??_C@_0P@HIIHPFML@GetMusicVolume@ DB 'GetMusicVolume', 00H ; `string'
CONST	ENDS
;	COMDAT ??_C@_09DABJPAIG@SetSaveID@
CONST	SEGMENT
??_C@_09DABJPAIG@SetSaveID@ DB 'SetSaveID', 00H		; `string'
CONST	ENDS
;	COMDAT ??_C@_08ILEIELBI@isSaveID@
CONST	SEGMENT
??_C@_08ILEIELBI@isSaveID@ DB 'isSaveID', 00H		; `string'
CONST	ENDS
;	COMDAT ??_C@_0L@IJAHDAKP@SaveConfig@
CONST	SEGMENT
??_C@_0L@IJAHDAKP@SaveConfig@ DB 'SaveConfig', 00H	; `string'
CONST	ENDS
;	COMDAT ??_C@_09IHEJGOIG@GetConfig@
CONST	SEGMENT
??_C@_09IHEJGOIG@GetConfig@ DB 'GetConfig', 00H		; `string'
CONST	ENDS
;	COMDAT ??_C@_0M@PHHLFDDI@ApplyConfig@
CONST	SEGMENT
??_C@_0M@PHHLFDDI@ApplyConfig@ DB 'ApplyConfig', 00H	; `string'
CONST	ENDS
;	COMDAT ??_C@_09KJAMEPBE@SetConfig@
CONST	SEGMENT
??_C@_09KJAMEPBE@SetConfig@ DB 'SetConfig', 00H		; `string'
CONST	ENDS
;	COMDAT ??_C@_0O@MCJGAEI@GetResolution@
CONST	SEGMENT
??_C@_0O@MCJGAEI@GetResolution@ DB 'GetResolution', 00H	; `string'
CONST	ENDS
;	COMDAT ??_C@_0N@DEDCKOKK@GetFrequency@
CONST	SEGMENT
??_C@_0N@DEDCKOKK@GetFrequency@ DB 'GetFrequency', 00H	; `string'
CONST	ENDS
;	COMDAT ??_C@_0BC@MMLDLJCA@GetFrequencyCount@
CONST	SEGMENT
??_C@_0BC@MMLDLJCA@GetFrequencyCount@ DB 'GetFrequencyCount', 00H ; `string'
CONST	ENDS
;	COMDAT ??_C@_0BF@GJHGOKBH@GetCurrentResolution@
CONST	SEGMENT
??_C@_0BF@GJHGOKBH@GetCurrentResolution@ DB 'GetCurrentResolution', 00H ; `string'
CONST	ENDS
;	COMDAT ??_C@_0BA@OIPDIACO@GetWindowStatus@
CONST	SEGMENT
??_C@_0BA@OIPDIACO@GetWindowStatus@ DB 'GetWindowStatus', 00H ; `string'
CONST	ENDS
;	COMDAT ??_C@_0BD@PNJEEMA@GetResolutionCount@
CONST	SEGMENT
??_C@_0BD@PNJEEMA@GetResolutionCount@ DB 'GetResolutionCount', 00H ; `string'
CONST	ENDS
;	COMDAT ??_C@_0BC@GGDBAEOO@isInterfaceConfig@
CONST	SEGMENT
??_C@_0BC@GGDBAEOO@isInterfaceConfig@ DB 'isInterfaceConfig', 00H ; `string'
CONST	ENDS
;	COMDAT ??_C@_0BB@DOCGKHHO@SaveWindowStatus@
CONST	SEGMENT
??_C@_0BB@DOCGKHHO@SaveWindowStatus@ DB 'SaveWindowStatus', 00H ; `string'
CONST	ENDS
;	COMDAT ??_C@_0BI@NBDOAHCB@DestroyInterfaceHandler@
CONST	SEGMENT
??_C@_0BI@NBDOAHCB@DestroyInterfaceHandler@ DB 'DestroyInterfaceHandler', 00H ; `string'
CONST	ENDS
;	COMDAT ??_C@_0BA@DGMEINM@ReserveResource@
CONST	SEGMENT
??_C@_0BA@DGMEINM@ReserveResource@ DB 'ReserveResource', 00H ; `string'
CONST	ENDS
;	COMDAT ??_C@_08OMBILDHM@GetWidth@
CONST	SEGMENT
??_C@_08OMBILDHM@GetWidth@ DB 'GetWidth', 00H		; `string'
CONST	ENDS
;	COMDAT ??_C@_0BE@LHLPPLCA@SetInterfaceHandler@
CONST	SEGMENT
??_C@_0BE@LHLPPLCA@SetInterfaceHandler@ DB 'SetInterfaceHandler', 00H ; `string'
PUBLIC	?initsystem@@YAXXZ				; initsystem
PUBLIC	?systemGetBossTrack@@YAPAU_object@@PAU1@0@Z	; systemGetBossTrack
PUBLIC	?systemSetBossTrack@@YAPAU_object@@PAU1@0@Z	; systemSetBossTrack
PUBLIC	?systemGetDungeonTrack@@YAPAU_object@@PAU1@0@Z	; systemGetDungeonTrack
PUBLIC	?systemSetDungeonTrack@@YAPAU_object@@PAU1@0@Z	; systemSetDungeonTrack
PUBLIC	?systemGetStoneScale@@YAPAU_object@@PAU1@0@Z	; systemGetStoneScale
PUBLIC	?systemSetStoneScale@@YAPAU_object@@PAU1@0@Z	; systemSetStoneScale
PUBLIC	?systemGetFOV@@YAPAU_object@@PAU1@0@Z		; systemGetFOV
PUBLIC	?systemSetFOV@@YAPAU_object@@PAU1@0@Z		; systemSetFOV
PUBLIC	?systemSetShowOutlineFlag@@YAPAU_object@@PAU1@0@Z ; systemSetShowOutlineFlag
PUBLIC	?systemIsShowOutline@@YAPAU_object@@PAU1@0@Z	; systemIsShowOutline
PUBLIC	?systemIsShowMobAIFlag@@YAPAU_object@@PAU1@0@Z	; systemIsShowMobAIFlag
PUBLIC	?systemSetShowMobAIFlag@@YAPAU_object@@PAU1@0@Z	; systemSetShowMobAIFlag
PUBLIC	?systemIsShowMobLevel@@YAPAU_object@@PAU1@0@Z	; systemIsShowMobLevel
PUBLIC	?systemSetShowMobLevel@@YAPAU_object@@PAU1@0@Z	; systemSetShowMobLevel
PUBLIC	?systemIsNpcNameStatus@@YAPAU_object@@PAU1@0@Z	; systemIsNpcNameStatus
PUBLIC	?systemSetNpcNameStatusFlag@@YAPAU_object@@PAU1@0@Z ; systemSetNpcNameStatusFlag
PUBLIC	?systemIsPetStatus@@YAPAU_object@@PAU1@0@Z	; systemIsPetStatus
PUBLIC	?systemSetPetStatusFlag@@YAPAU_object@@PAU1@0@Z	; systemSetPetStatusFlag
PUBLIC	?systemSetDropItemLevel@@YAPAU_object@@PAU1@0@Z	; systemSetDropItemLevel
PUBLIC	?systemGetDropItemLevel@@YAPAU_object@@PAU1@0@Z	; systemGetDropItemLevel
PUBLIC	?systemSetPrivateShopLevel@@YAPAU_object@@PAU1@0@Z ; systemSetPrivateShopLevel
PUBLIC	?systemGetPrivateShopLevel@@YAPAU_object@@PAU1@0@Z ; systemGetPrivateShopLevel
PUBLIC	?systemSetEffectLevel@@YAPAU_object@@PAU1@0@Z	; systemSetEffectLevel
PUBLIC	?systemGetEffectLevel@@YAPAU_object@@PAU1@0@Z	; systemGetEffectLevel
PUBLIC	?systemGetSnowTextureModeOption@@YAPAU_object@@PAU1@0@Z ; systemGetSnowTextureModeOption
PUBLIC	?systemGetSnowModeOption@@YAPAU_object@@PAU1@0@Z ; systemGetSnowModeOption
PUBLIC	?systemSetSnowTextureModeOption@@YAPAU_object@@PAU1@0@Z ; systemSetSnowTextureModeOption
PUBLIC	?systemSetSnowModeOption@@YAPAU_object@@PAU1@0@Z ; systemSetSnowModeOption
PUBLIC	?systemGetNightModeOption@@YAPAU_object@@PAU1@0@Z ; systemGetNightModeOption
PUBLIC	?systemSetNightModeOption@@YAPAU_object@@PAU1@0@Z ; systemSetNightModeOption
PUBLIC	?systemIsENBModeStatus@@YAPAU_object@@PAU1@0@Z	; systemIsENBModeStatus
PUBLIC	?systemSetENBModeStatusFlag@@YAPAU_object@@PAU1@0@Z ; systemSetENBModeStatusFlag
PUBLIC	?systemIsFogMode@@YAPAU_object@@PAU1@0@Z	; systemIsFogMode
PUBLIC	?systemSetFogMode@@YAPAU_object@@PAU1@0@Z	; systemSetFogMode
PUBLIC	?systemSetShadowLevel@@YAPAU_object@@PAU1@0@Z	; systemSetShadowLevel
PUBLIC	?systemGetShadowLevel@@YAPAU_object@@PAU1@0@Z	; systemGetShadowLevel
PUBLIC	?systemGetFrequency@@YAPAU_object@@PAU1@0@Z	; systemGetFrequency
PUBLIC	?systemGetCurrentResolution@@YAPAU_object@@PAU1@0@Z ; systemGetCurrentResolution
PUBLIC	?systemGetResolution@@YAPAU_object@@PAU1@0@Z	; systemGetResolution
PUBLIC	?systemGetFrequencyCount@@YAPAU_object@@PAU1@0@Z ; systemGetFrequencyCount
PUBLIC	?systemGetResolutionCount@@YAPAU_object@@PAU1@0@Z ; systemGetResolutionCount
PUBLIC	?systemSaveConfig@@YAPAU_object@@PAU1@0@Z	; systemSaveConfig
PUBLIC	?systemApplyConfig@@YAPAU_object@@PAU1@0@Z	; systemApplyConfig
PUBLIC	?systemSetConfig@@YAPAU_object@@PAU1@0@Z	; systemSetConfig
PUBLIC	?systemIsShowSalesText@@YAPAU_object@@PAU1@0@Z	; systemIsShowSalesText
PUBLIC	?systemIsShowDamage@@YAPAU_object@@PAU1@0@Z	; systemIsShowDamage
PUBLIC	?systemIsAlwaysShowName@@YAPAU_object@@PAU1@0@Z	; systemIsAlwaysShowName
PUBLIC	?systemSetShowSalesTextFlag@@YAPAU_object@@PAU1@0@Z ; systemSetShowSalesTextFlag
PUBLIC	?systemSetShowDamageFlag@@YAPAU_object@@PAU1@0@Z ; systemSetShowDamageFlag
PUBLIC	?systemSetAlwaysShowNameFlag@@YAPAU_object@@PAU1@0@Z ; systemSetAlwaysShowNameFlag
PUBLIC	?systemIsViewChat@@YAPAU_object@@PAU1@0@Z	; systemIsViewChat
PUBLIC	?systemSetViewChatFlag@@YAPAU_object@@PAU1@0@Z	; systemSetViewChatFlag
PUBLIC	?systemIsSoftwareCursor@@YAPAU_object@@PAU1@0@Z	; systemIsSoftwareCursor
PUBLIC	?systemSetSoundVolumef@@YAPAU_object@@PAU1@0@Z	; systemSetSoundVolumef
PUBLIC	?systemSetMusicVolume@@YAPAU_object@@PAU1@0@Z	; systemSetMusicVolume
PUBLIC	?systemGetSoundVolume@@YAPAU_object@@PAU1@0@Z	; systemGetSoundVolume
PUBLIC	?systemGetMusicVolume@@YAPAU_object@@PAU1@0@Z	; systemGetMusicVolume
PUBLIC	?systemGetSaveID@@YAPAU_object@@PAU1@0@Z	; systemGetSaveID
PUBLIC	?systemisSaveID@@YAPAU_object@@PAU1@0@Z		; systemisSaveID
PUBLIC	?systemSetSaveID@@YAPAU_object@@PAU1@0@Z	; systemSetSaveID
PUBLIC	?systemGetConfig@@YAPAU_object@@PAU1@0@Z	; systemGetConfig
PUBLIC	?systemGetWindowStatus@@YAPAU_object@@PAU1@0@Z	; systemGetWindowStatus
PUBLIC	?systemSaveWindowStatus@@YAPAU_object@@PAU1@0@Z	; systemSaveWindowStatus
PUBLIC	?systemisInterfaceConfig@@YAPAU_object@@PAU1@0@Z ; systemisInterfaceConfig
PUBLIC	?systemReserveResource@@YAPAU_object@@PAU1@0@Z	; systemReserveResource
PUBLIC	?systemDestroyInterfaceHandler@@YAPAU_object@@PAU1@0@Z ; systemDestroyInterfaceHandler
PUBLIC	?systemSetInterfaceHandler@@YAPAU_object@@PAU1@0@Z ; systemSetInterfaceHandler
PUBLIC	?systemGetHeight@@YAPAU_object@@PAU1@0@Z	; systemGetHeight
PUBLIC	?systemGetWidth@@YAPAU_object@@PAU1@0@Z		; systemGetWidth
PUBLIC	?SetBossTrack@CPythonSystem@@QAEX_N@Z		; CPythonSystem::SetBossTrack
PUBLIC	?GetBossTrack@CPythonSystem@@QAE_NXZ		; CPythonSystem::GetBossTrack
PUBLIC	?SetDungeonTrack@CPythonSystem@@QAEX_N@Z	; CPythonSystem::SetDungeonTrack
PUBLIC	?GetDungeonTrack@CPythonSystem@@QAE_NXZ		; CPythonSystem::GetDungeonTrack
;	COMDAT ?$TSS0@?1??systemIsShowOutline@@YAPAU_object@@PAU2@0@Z@4HA
_BSS	SEGMENT
?$TSS0@?1??systemIsShowOutline@@YAPAU_object@@PAU2@0@Z@4HA DD 01H DUP (?) ; `systemIsShowOutline'::`2'::$TSS0
_BSS	ENDS
;	COMDAT ?system@?1??systemIsShowOutline@@YAPAU_object@@PAU2@0@Z@4AAVCPythonSystem@@A
_BSS	SEGMENT
?system@?1??systemIsShowOutline@@YAPAU_object@@PAU2@0@Z@4AAVCPythonSystem@@A DD 01H DUP (?) ; `systemIsShowOutline'::`2'::system
_BSS	ENDS
;	COMDAT ?$TSS0@?1??systemSetShowOutlineFlag@@YAPAU_object@@PAU2@0@Z@4HA
_BSS	SEGMENT
?$TSS0@?1??systemSetShowOutlineFlag@@YAPAU_object@@PAU2@0@Z@4HA DD 01H DUP (?) ; `systemSetShowOutlineFlag'::`2'::$TSS0
_BSS	ENDS
;	COMDAT ?system@?1??systemSetShowOutlineFlag@@YAPAU_object@@PAU2@0@Z@4AAVCPythonSystem@@A
_BSS	SEGMENT
?system@?1??systemSetShowOutlineFlag@@YAPAU_object@@PAU2@0@Z@4AAVCPythonSystem@@A DD 01H DUP (?) ; `systemSetShowOutlineFlag'::`2'::system
_BSS	ENDS
;	COMDAT xdata$x
xdata$x	SEGMENT
__ehfuncinfo$?systemReserveResource@@YAPAU_object@@PAU1@0@Z DQ 00000000119930522r ; 2.33398e-314
	DD	FLAT:__unwindtable$?systemReserveResource@@YAPAU_object@@PAU1@0@Z
	DQ	00000000000000000r		; 0
	DQ	00000000000000000r		; 0
	DQ	00000000100000000r		; 2.122e-314
__unwindtable$?systemReserveResource@@YAPAU_object@@PAU1@0@Z DD 0ffffffffH
	DD	FLAT:__unwindfunclet$?systemReserveResource@@YAPAU_object@@PAU1@0@Z$0
END
