; Listing generated by Microsoft (R) Optimizing Compiler Version 19.44.35219.0 

	TITLE	c:\anka2project\anka2project\source\binary\vs_files\userinterface\release\pythonimemodule.obj
	.686P
	.XMM
	include listing.inc
	.model	flat

INCLUDELIB OLDNAMES

PUBLIC	??_C@_06CKGENIKG@Enable@			; `string'
PUBLIC	??_C@_07MIKIFGAL@Disable@			; `string'
PUBLIC	??_C@_0BD@KOHIEJEK@EnableCaptureInput@		; `string'
PUBLIC	??_C@_0BE@BLPFKFGH@DisableCaptureInput@		; `string'
PUBLIC	??_C@_06ODEINJEE@SetMax@			; `string'
PUBLIC	??_C@_0L@DDEFGAIA@SetUserMax@			; `string'
PUBLIC	??_C@_07NIJDBDAG@SetText@			; `string'
PUBLIC	??_C@_07CAGCCMNH@GetText@			; `string'
PUBLIC	??_C@_0M@DJHPBOFH@GetCodePage@			; `string'
PUBLIC	??_C@_0BC@NEACAHDI@GetCandidateCount@		; `string'
PUBLIC	??_C@_0N@MBNDKHML@GetCandidate@			; `string'
PUBLIC	??_C@_0BG@LMHBMBJJ@GetCandidateSelection@	; `string'
PUBLIC	??_C@_0L@LOMGCGNK@GetReading@			; `string'
PUBLIC	??_C@_0BA@OKELCJNA@GetReadingError@		; `string'
PUBLIC	??_C@_09MNJLHJMK@EnableIME@			; `string'
PUBLIC	??_C@_0L@CLOJIMEF@DisableIME@			; `string'
PUBLIC	??_C@_0N@COLAMEMD@GetInputMode@			; `string'
PUBLIC	??_C@_0N@FKAOAIIP@SetInputMode@			; `string'
PUBLIC	??_C@_0O@OBBEEOID@SetNumberMode@		; `string'
PUBLIC	??_C@_0O@BELLPKFF@SetStringMode@		; `string'
PUBLIC	??_C@_0N@BEEPHFCL@AddExceptKey@			; `string'
PUBLIC	??_C@_0P@BMGBGHLF@ClearExceptKey@		; `string'
PUBLIC	??_C@_08HOJDHPPH@MoveLeft@			; `string'
PUBLIC	??_C@_09DJFIPLKJ@MoveRight@			; `string'
PUBLIC	??_C@_08LLCCPFKC@MoveHome@			; `string'
PUBLIC	??_C@_07DGAADNMB@MoveEnd@			; `string'
PUBLIC	??_C@_0BC@BMJNLHPP@SetCursorPosition@		; `string'
PUBLIC	??_C@_06JBKGCNBB@Delete@			; `string'
PUBLIC	??_C@_0M@COHGIEGI@PasteString@			; `string'
PUBLIC	??_C@_0P@BFPBPOKO@PasteBackspace@		; `string'
PUBLIC	??_C@_0M@BBPKKCDI@PasteReturn@			; `string'
PUBLIC	??_C@_0BH@KBLDCMMB@PasteTextFromClipBoard@	; `string'
PUBLIC	??_C@_0M@KGBGFCIC@EnablePaste@			; `string'
PUBLIC	??_C@_03MABAFPPL@ime@				; `string'
EXTRN	?PasteString@CIME@@QAEXPBD@Z:PROC		; CIME::PasteString
EXTRN	?PasteTextFromClipBoard@CIME@@QAEXXZ:PROC	; CIME::PasteTextFromClipBoard
EXTRN	?EnablePaste@CIME@@QAEX_N@Z:PROC		; CIME::EnablePaste
EXTRN	?SetStringMode@CIME@@QAEXXZ:PROC		; CIME::SetStringMode
EXTRN	?GetInputMode@CIME@@QAEKXZ:PROC			; CIME::GetInputMode
EXTRN	?AddExceptKey@CIME@@QAEX_W@Z:PROC		; CIME::AddExceptKey
EXTRN	?ClearExceptKey@CIME@@QAEXXZ:PROC		; CIME::ClearExceptKey
EXTRN	?SetInputMode@CIME@@QAEXK@Z:PROC		; CIME::SetInputMode
EXTRN	?SetNumberMode@CIME@@QAEXXZ:PROC		; CIME::SetNumberMode
EXTRN	?EnableIME@CIME@@QAEX_N@Z:PROC			; CIME::EnableIME
EXTRN	?DisableIME@CIME@@QAEXXZ:PROC			; CIME::DisableIME
EXTRN	?GetReading@CIME@@QAEHAAV?$basic_string@DU?$char_traits@D@std@@V?$allocator@D@2@@std@@@Z:PROC ; CIME::GetReading
EXTRN	?GetReadingError@CIME@@QAEHXZ:PROC		; CIME::GetReadingError
EXTRN	?GetCandidate@CIME@@QAEHKAAV?$basic_string@DU?$char_traits@D@std@@V?$allocator@D@2@@std@@@Z:PROC ; CIME::GetCandidate
EXTRN	?GetCandidateSelection@CIME@@QAEHXZ:PROC	; CIME::GetCandidateSelection
EXTRN	?GetCodePage@CIME@@QAEHXZ:PROC			; CIME::GetCodePage
EXTRN	?GetCandidatePageCount@CIME@@QAEHXZ:PROC	; CIME::GetCandidatePageCount
EXTRN	?SetUserMax@CIME@@QAEXH@Z:PROC			; CIME::SetUserMax
EXTRN	?GetText@CIME@@QAEHAAV?$basic_string@DU?$char_traits@D@std@@V?$allocator@D@2@@std@@_N@Z:PROC ; CIME::GetText
EXTRN	?DisableCaptureInput@CIME@@QAEXXZ:PROC		; CIME::DisableCaptureInput
EXTRN	?SetMax@CIME@@QAEXH@Z:PROC			; CIME::SetMax
EXTRN	?Uninitialize@CIME@@QAEXXZ:PROC			; CIME::Uninitialize
EXTRN	?EnableCaptureInput@CIME@@QAEXXZ:PROC		; CIME::EnableCaptureInput
;	COMDAT ?s_methods@?1??initime@@YAXXZ@4PAUPyMethodDef@@A
_DATA	SEGMENT
?s_methods@?1??initime@@YAXXZ@4PAUPyMethodDef@@A DD FLAT:??_C@_06CKGENIKG@Enable@ ; `initime'::`2'::s_methods
	DD	FLAT:?imeEnable@@YAPAU_object@@PAU1@0@Z
	DD	01H
	ORG $+4
	DD	FLAT:??_C@_07MIKIFGAL@Disable@
	DD	FLAT:?imeDisable@@YAPAU_object@@PAU1@0@Z
	DD	01H
	ORG $+4
	DD	FLAT:??_C@_0BD@KOHIEJEK@EnableCaptureInput@
	DD	FLAT:?imeEnableCaptureInput@@YAPAU_object@@PAU1@0@Z
	DD	01H
	ORG $+4
	DD	FLAT:??_C@_0BE@BLPFKFGH@DisableCaptureInput@
	DD	FLAT:?imeDisableCaptureInput@@YAPAU_object@@PAU1@0@Z
	DD	01H
	ORG $+4
	DD	FLAT:??_C@_06ODEINJEE@SetMax@
	DD	FLAT:?imeSetMax@@YAPAU_object@@PAU1@0@Z
	DD	01H
	ORG $+4
	DD	FLAT:??_C@_0L@DDEFGAIA@SetUserMax@
	DD	FLAT:?imeSetUserMax@@YAPAU_object@@PAU1@0@Z
	DD	01H
	ORG $+4
	DD	FLAT:??_C@_07NIJDBDAG@SetText@
	DD	FLAT:?imeSetText@@YAPAU_object@@PAU1@0@Z
	DD	01H
	ORG $+4
	DD	FLAT:??_C@_07CAGCCMNH@GetText@
	DD	FLAT:?imeGetText@@YAPAU_object@@PAU1@0@Z
	DD	01H
	ORG $+4
	DD	FLAT:??_C@_0M@DJHPBOFH@GetCodePage@
	DD	FLAT:?imeGetCodePage@@YAPAU_object@@PAU1@0@Z
	DD	01H
	ORG $+4
	DD	FLAT:??_C@_0BC@NEACAHDI@GetCandidateCount@
	DD	FLAT:?imeGetCandidateCount@@YAPAU_object@@PAU1@0@Z
	DD	01H
	ORG $+4
	DD	FLAT:??_C@_0N@MBNDKHML@GetCandidate@
	DD	FLAT:?imeGetCandidate@@YAPAU_object@@PAU1@0@Z
	DD	01H
	ORG $+4
	DD	FLAT:??_C@_0BG@LMHBMBJJ@GetCandidateSelection@
	DD	FLAT:?imeGetCandidateSelection@@YAPAU_object@@PAU1@0@Z
	DD	01H
	ORG $+4
	DD	FLAT:??_C@_0L@LOMGCGNK@GetReading@
	DD	FLAT:?imeGetReading@@YAPAU_object@@PAU1@0@Z
	DD	01H
	ORG $+4
	DD	FLAT:??_C@_0BA@OKELCJNA@GetReadingError@
	DD	FLAT:?imeGetReadingError@@YAPAU_object@@PAU1@0@Z
	DD	01H
	ORG $+4
	DD	FLAT:??_C@_09MNJLHJMK@EnableIME@
	DD	FLAT:?imeEnableIME@@YAPAU_object@@PAU1@0@Z
	DD	01H
	ORG $+4
	DD	FLAT:??_C@_0L@CLOJIMEF@DisableIME@
	DD	FLAT:?imeDisableIME@@YAPAU_object@@PAU1@0@Z
	DD	01H
	ORG $+4
	DD	FLAT:??_C@_0N@COLAMEMD@GetInputMode@
	DD	FLAT:?imeGetInputMode@@YAPAU_object@@PAU1@0@Z
	DD	01H
	ORG $+4
	DD	FLAT:??_C@_0N@FKAOAIIP@SetInputMode@
	DD	FLAT:?imeSetInputMode@@YAPAU_object@@PAU1@0@Z
	DD	01H
	ORG $+4
	DD	FLAT:??_C@_0O@OBBEEOID@SetNumberMode@
	DD	FLAT:?imeSetNumberMode@@YAPAU_object@@PAU1@0@Z
	DD	01H
	ORG $+4
	DD	FLAT:??_C@_0O@BELLPKFF@SetStringMode@
	DD	FLAT:?imeSetStringMode@@YAPAU_object@@PAU1@0@Z
	DD	01H
	ORG $+4
	DD	FLAT:??_C@_0N@BEEPHFCL@AddExceptKey@
	DD	FLAT:?imeAddExceptKey@@YAPAU_object@@PAU1@0@Z
	DD	01H
	ORG $+4
	DD	FLAT:??_C@_0P@BMGBGHLF@ClearExceptKey@
	DD	FLAT:?imeClearExceptKey@@YAPAU_object@@PAU1@0@Z
	DD	01H
	ORG $+4
	DD	FLAT:??_C@_08HOJDHPPH@MoveLeft@
	DD	FLAT:?imeMoveLeft@@YAPAU_object@@PAU1@0@Z
	DD	01H
	ORG $+4
	DD	FLAT:??_C@_09DJFIPLKJ@MoveRight@
	DD	FLAT:?imeMoveRight@@YAPAU_object@@PAU1@0@Z
	DD	01H
	ORG $+4
	DD	FLAT:??_C@_08LLCCPFKC@MoveHome@
	DD	FLAT:?imeMoveHome@@YAPAU_object@@PAU1@0@Z
	DD	01H
	ORG $+4
	DD	FLAT:??_C@_07DGAADNMB@MoveEnd@
	DD	FLAT:?imeMoveEnd@@YAPAU_object@@PAU1@0@Z
	DD	01H
	ORG $+4
	DD	FLAT:??_C@_0BC@BMJNLHPP@SetCursorPosition@
	DD	FLAT:?imeSetCursorPosition@@YAPAU_object@@PAU1@0@Z
	DD	01H
	ORG $+4
	DD	FLAT:??_C@_06JBKGCNBB@Delete@
	DD	FLAT:?imeDelete@@YAPAU_object@@PAU1@0@Z
	DD	01H
	ORG $+4
	DD	FLAT:??_C@_0M@COHGIEGI@PasteString@
	DD	FLAT:?imePasteString@@YAPAU_object@@PAU1@0@Z
	DD	01H
	ORG $+4
	DD	FLAT:??_C@_0P@BFPBPOKO@PasteBackspace@
	DD	FLAT:?imePasteBackspace@@YAPAU_object@@PAU1@0@Z
	DD	01H
	ORG $+4
	DD	FLAT:??_C@_0M@BBPKKCDI@PasteReturn@
	DD	FLAT:?imePasteReturn@@YAPAU_object@@PAU1@0@Z
	DD	01H
	ORG $+4
	DD	FLAT:??_C@_0BH@KBLDCMMB@PasteTextFromClipBoard@
	DD	FLAT:?imePasteTextFromClipBoard@@YAPAU_object@@PAU1@0@Z
	DD	01H
	ORG $+4
	DD	FLAT:??_C@_0M@KGBGFCIC@EnablePaste@
	DD	FLAT:?imeEnablePaste@@YAPAU_object@@PAU1@0@Z
	DD	01H
	ORG $+4
	DD	00H
	DD	00H
	DD	00H
	ORG $+4
_DATA	ENDS
;	COMDAT ??_C@_03MABAFPPL@ime@
CONST	SEGMENT
??_C@_03MABAFPPL@ime@ DB 'ime', 00H			; `string'
CONST	ENDS
;	COMDAT ??_C@_0M@KGBGFCIC@EnablePaste@
CONST	SEGMENT
??_C@_0M@KGBGFCIC@EnablePaste@ DB 'EnablePaste', 00H	; `string'
CONST	ENDS
;	COMDAT ??_C@_0BH@KBLDCMMB@PasteTextFromClipBoard@
CONST	SEGMENT
??_C@_0BH@KBLDCMMB@PasteTextFromClipBoard@ DB 'PasteTextFromClipBoard', 00H ; `string'
CONST	ENDS
;	COMDAT ??_C@_0M@BBPKKCDI@PasteReturn@
CONST	SEGMENT
??_C@_0M@BBPKKCDI@PasteReturn@ DB 'PasteReturn', 00H	; `string'
CONST	ENDS
;	COMDAT ??_C@_0P@BFPBPOKO@PasteBackspace@
CONST	SEGMENT
??_C@_0P@BFPBPOKO@PasteBackspace@ DB 'PasteBackspace', 00H ; `string'
CONST	ENDS
;	COMDAT ??_C@_0M@COHGIEGI@PasteString@
CONST	SEGMENT
??_C@_0M@COHGIEGI@PasteString@ DB 'PasteString', 00H	; `string'
CONST	ENDS
;	COMDAT ??_C@_06JBKGCNBB@Delete@
CONST	SEGMENT
??_C@_06JBKGCNBB@Delete@ DB 'Delete', 00H		; `string'
CONST	ENDS
;	COMDAT ??_C@_0BC@BMJNLHPP@SetCursorPosition@
CONST	SEGMENT
??_C@_0BC@BMJNLHPP@SetCursorPosition@ DB 'SetCursorPosition', 00H ; `string'
CONST	ENDS
;	COMDAT ??_C@_07DGAADNMB@MoveEnd@
CONST	SEGMENT
??_C@_07DGAADNMB@MoveEnd@ DB 'MoveEnd', 00H		; `string'
CONST	ENDS
;	COMDAT ??_C@_08LLCCPFKC@MoveHome@
CONST	SEGMENT
??_C@_08LLCCPFKC@MoveHome@ DB 'MoveHome', 00H		; `string'
CONST	ENDS
;	COMDAT ??_C@_09DJFIPLKJ@MoveRight@
CONST	SEGMENT
??_C@_09DJFIPLKJ@MoveRight@ DB 'MoveRight', 00H		; `string'
CONST	ENDS
;	COMDAT ??_C@_08HOJDHPPH@MoveLeft@
CONST	SEGMENT
??_C@_08HOJDHPPH@MoveLeft@ DB 'MoveLeft', 00H		; `string'
CONST	ENDS
;	COMDAT ??_C@_0P@BMGBGHLF@ClearExceptKey@
CONST	SEGMENT
??_C@_0P@BMGBGHLF@ClearExceptKey@ DB 'ClearExceptKey', 00H ; `string'
CONST	ENDS
;	COMDAT ??_C@_0N@BEEPHFCL@AddExceptKey@
CONST	SEGMENT
??_C@_0N@BEEPHFCL@AddExceptKey@ DB 'AddExceptKey', 00H	; `string'
CONST	ENDS
;	COMDAT ??_C@_0O@BELLPKFF@SetStringMode@
CONST	SEGMENT
??_C@_0O@BELLPKFF@SetStringMode@ DB 'SetStringMode', 00H ; `string'
CONST	ENDS
;	COMDAT ??_C@_0O@OBBEEOID@SetNumberMode@
CONST	SEGMENT
??_C@_0O@OBBEEOID@SetNumberMode@ DB 'SetNumberMode', 00H ; `string'
CONST	ENDS
;	COMDAT ??_C@_0N@FKAOAIIP@SetInputMode@
CONST	SEGMENT
??_C@_0N@FKAOAIIP@SetInputMode@ DB 'SetInputMode', 00H	; `string'
CONST	ENDS
;	COMDAT ??_C@_0N@COLAMEMD@GetInputMode@
CONST	SEGMENT
??_C@_0N@COLAMEMD@GetInputMode@ DB 'GetInputMode', 00H	; `string'
CONST	ENDS
;	COMDAT ??_C@_0L@CLOJIMEF@DisableIME@
CONST	SEGMENT
??_C@_0L@CLOJIMEF@DisableIME@ DB 'DisableIME', 00H	; `string'
CONST	ENDS
;	COMDAT ??_C@_09MNJLHJMK@EnableIME@
CONST	SEGMENT
??_C@_09MNJLHJMK@EnableIME@ DB 'EnableIME', 00H		; `string'
CONST	ENDS
;	COMDAT ??_C@_0BA@OKELCJNA@GetReadingError@
CONST	SEGMENT
??_C@_0BA@OKELCJNA@GetReadingError@ DB 'GetReadingError', 00H ; `string'
CONST	ENDS
;	COMDAT ??_C@_0L@LOMGCGNK@GetReading@
CONST	SEGMENT
??_C@_0L@LOMGCGNK@GetReading@ DB 'GetReading', 00H	; `string'
CONST	ENDS
;	COMDAT ??_C@_0BG@LMHBMBJJ@GetCandidateSelection@
CONST	SEGMENT
??_C@_0BG@LMHBMBJJ@GetCandidateSelection@ DB 'GetCandidateSelection', 00H ; `string'
CONST	ENDS
;	COMDAT ??_C@_0N@MBNDKHML@GetCandidate@
CONST	SEGMENT
??_C@_0N@MBNDKHML@GetCandidate@ DB 'GetCandidate', 00H	; `string'
CONST	ENDS
;	COMDAT ??_C@_0BC@NEACAHDI@GetCandidateCount@
CONST	SEGMENT
??_C@_0BC@NEACAHDI@GetCandidateCount@ DB 'GetCandidateCount', 00H ; `string'
CONST	ENDS
;	COMDAT ??_C@_0M@DJHPBOFH@GetCodePage@
CONST	SEGMENT
??_C@_0M@DJHPBOFH@GetCodePage@ DB 'GetCodePage', 00H	; `string'
CONST	ENDS
;	COMDAT ??_C@_07CAGCCMNH@GetText@
CONST	SEGMENT
??_C@_07CAGCCMNH@GetText@ DB 'GetText', 00H		; `string'
CONST	ENDS
;	COMDAT ??_C@_07NIJDBDAG@SetText@
CONST	SEGMENT
??_C@_07NIJDBDAG@SetText@ DB 'SetText', 00H		; `string'
CONST	ENDS
;	COMDAT ??_C@_0L@DDEFGAIA@SetUserMax@
CONST	SEGMENT
??_C@_0L@DDEFGAIA@SetUserMax@ DB 'SetUserMax', 00H	; `string'
CONST	ENDS
;	COMDAT ??_C@_06ODEINJEE@SetMax@
CONST	SEGMENT
??_C@_06ODEINJEE@SetMax@ DB 'SetMax', 00H		; `string'
CONST	ENDS
;	COMDAT ??_C@_0BE@BLPFKFGH@DisableCaptureInput@
CONST	SEGMENT
??_C@_0BE@BLPFKFGH@DisableCaptureInput@ DB 'DisableCaptureInput', 00H ; `string'
CONST	ENDS
;	COMDAT ??_C@_0BD@KOHIEJEK@EnableCaptureInput@
CONST	SEGMENT
??_C@_0BD@KOHIEJEK@EnableCaptureInput@ DB 'EnableCaptureInput', 00H ; `string'
CONST	ENDS
;	COMDAT ??_C@_07MIKIFGAL@Disable@
CONST	SEGMENT
??_C@_07MIKIFGAL@Disable@ DB 'Disable', 00H		; `string'
CONST	ENDS
;	COMDAT ??_C@_06CKGENIKG@Enable@
CONST	SEGMENT
??_C@_06CKGENIKG@Enable@ DB 'Enable', 00H		; `string'
PUBLIC	?initime@@YAXXZ					; initime
PUBLIC	?imePasteReturn@@YAPAU_object@@PAU1@0@Z		; imePasteReturn
PUBLIC	?imePasteBackspace@@YAPAU_object@@PAU1@0@Z	; imePasteBackspace
PUBLIC	?imePasteString@@YAPAU_object@@PAU1@0@Z		; imePasteString
PUBLIC	?imeEnablePaste@@YAPAU_object@@PAU1@0@Z		; imeEnablePaste
PUBLIC	?imePasteTextFromClipBoard@@YAPAU_object@@PAU1@0@Z ; imePasteTextFromClipBoard
PUBLIC	?imeDelete@@YAPAU_object@@PAU1@0@Z		; imeDelete
PUBLIC	?imeSetCursorPosition@@YAPAU_object@@PAU1@0@Z	; imeSetCursorPosition
PUBLIC	?imeMoveEnd@@YAPAU_object@@PAU1@0@Z		; imeMoveEnd
PUBLIC	?imeMoveHome@@YAPAU_object@@PAU1@0@Z		; imeMoveHome
PUBLIC	?imeMoveRight@@YAPAU_object@@PAU1@0@Z		; imeMoveRight
PUBLIC	?imeMoveLeft@@YAPAU_object@@PAU1@0@Z		; imeMoveLeft
PUBLIC	?imeGetInputMode@@YAPAU_object@@PAU1@0@Z	; imeGetInputMode
PUBLIC	?imeSetStringMode@@YAPAU_object@@PAU1@0@Z	; imeSetStringMode
PUBLIC	?imeClearExceptKey@@YAPAU_object@@PAU1@0@Z	; imeClearExceptKey
PUBLIC	?imeAddExceptKey@@YAPAU_object@@PAU1@0@Z	; imeAddExceptKey
PUBLIC	?imeSetNumberMode@@YAPAU_object@@PAU1@0@Z	; imeSetNumberMode
PUBLIC	?imeSetInputMode@@YAPAU_object@@PAU1@0@Z	; imeSetInputMode
PUBLIC	?imeDisableIME@@YAPAU_object@@PAU1@0@Z		; imeDisableIME
PUBLIC	?imeEnableIME@@YAPAU_object@@PAU1@0@Z		; imeEnableIME
PUBLIC	?imeGetReadingError@@YAPAU_object@@PAU1@0@Z	; imeGetReadingError
PUBLIC	?imeGetReading@@YAPAU_object@@PAU1@0@Z		; imeGetReading
PUBLIC	?imeGetCandidateSelection@@YAPAU_object@@PAU1@0@Z ; imeGetCandidateSelection
PUBLIC	?imeGetCandidate@@YAPAU_object@@PAU1@0@Z	; imeGetCandidate
PUBLIC	?imeGetCandidateCount@@YAPAU_object@@PAU1@0@Z	; imeGetCandidateCount
PUBLIC	?imeGetCodePage@@YAPAU_object@@PAU1@0@Z		; imeGetCodePage
PUBLIC	?imeGetText@@YAPAU_object@@PAU1@0@Z		; imeGetText
PUBLIC	?imeSetText@@YAPAU_object@@PAU1@0@Z		; imeSetText
PUBLIC	?imeSetUserMax@@YAPAU_object@@PAU1@0@Z		; imeSetUserMax
PUBLIC	?imeSetMax@@YAPAU_object@@PAU1@0@Z		; imeSetMax
PUBLIC	?imeDisableCaptureInput@@YAPAU_object@@PAU1@0@Z	; imeDisableCaptureInput
PUBLIC	?imeEnableCaptureInput@@YAPAU_object@@PAU1@0@Z	; imeEnableCaptureInput
PUBLIC	?imeDisable@@YAPAU_object@@PAU1@0@Z		; imeDisable
PUBLIC	?imeEnable@@YAPAU_object@@PAU1@0@Z		; imeEnable
?vecDropSoundFileName@@3V?$array@U?$pair@KV?$basic_string@DU?$char_traits@D@std@@V?$allocator@D@2@@std@@@std@@$04@std@@B DB 08cH DUP (?) ; vecDropSoundFileName
?vecEffectList@@3V?$vector@V?$tuple@IPBDPBD_N@std@@V?$allocator@V?$tuple@IPBDPBD_N@std@@@2@@std@@B DB 0cH DUP (?) ; vecEffectList
?characterNameColors@@3V?$map@EV?$array@E$02@std@@U?$less@E@2@V?$allocator@U?$pair@$$CBEV?$array@E$02@std@@@std@@@2@@std@@B DQ 01H DUP (?) ; characterNameColors
?characterTitleColors@@3V?$map@EV?$array@E$02@std@@U?$less@E@2@V?$allocator@U?$pair@$$CBEV?$array@E$02@std@@@std@@@2@@std@@B DQ 01H DUP (?) ; characterTitleColors
?characterTitleSystemColors@@3V?$map@EV?$array@E$02@std@@U?$less@E@2@V?$allocator@U?$pair@$$CBEV?$array@E$02@std@@@std@@@2@@std@@B DQ 01H DUP (?) ; characterTitleSystemColors
?emotionIcons@@3V?$map@EPBDU?$less@E@std@@V?$allocator@U?$pair@$$CBEPBD@std@@@2@@std@@B DQ 01H DUP (?) ; emotionIcons
?skillIndexes@@3V?$map@EV?$map@EV?$vector@EV?$allocator@E@std@@@std@@U?$less@E@2@V?$allocator@U?$pair@$$CBEV?$vector@EV?$allocator@E@std@@@std@@@std@@@2@@std@@U?$less@E@2@V?$allocator@U?$pair@$$CBEV?$map@EV?$vector@EV?$allocator@E@std@@@std@@U?$less@E@2@V?$allocator@U?$pair@$$CBEV?$vector@EV?$allocator@E@std@@@std@@@std@@@2@@std@@@std@@@2@@std@@B DQ 01H DUP (?) ; skillIndexes
?guildSkills@@3V?$map@V?$basic_string@DU?$char_traits@D@std@@V?$allocator@D@2@@std@@V?$vector@EV?$allocator@E@std@@@2@U?$less@V?$basic_string@DU?$char_traits@D@std@@V?$allocator@D@2@@std@@@2@V?$allocator@U?$pair@$$CBV?$basic_string@DU?$char_traits@D@std@@V?$allocator@D@2@@std@@V?$vector@EV?$allocator@E@std@@@2@@std@@@2@@std@@B DQ 01H DUP (?) ; guildSkills
_BSS	ENDS
;	COMDAT xdata$x
xdata$x	SEGMENT
__ehfuncinfo$??__EvecUseSoundFileName@@YAXXZ DQ 00000000619930522r ; 1.2944e-313
	DD	FLAT:__unwindtable$??__EvecUseSoundFileName@@YAXXZ
	DQ	00000000000000000r		; 0
	DQ	00000000000000000r		; 0
	DQ	00000000100000000r		; 2.122e-314
__unwindtable$??__EvecUseSoundFileName@@YAXXZ DD 0ffffffffH
	DD	FLAT:__unwindfunclet$??__EvecUseSoundFileName@@YAXXZ$0
	DD	00H
	DD	FLAT:__unwindfunclet$??__EvecUseSoundFileName@@YAXXZ$1
	DD	01H
	DD	FLAT:__unwindfunclet$??__EvecUseSoundFileName@@YAXXZ$2
	DD	02H
	DD	FLAT:__unwindfunclet$??__EvecUseSoundFileName@@YAXXZ$3
	DD	03H
	DD	FLAT:__unwindfunclet$??__EvecUseSoundFileName@@YAXXZ$4
	DD	04H
	DD	FLAT:__unwindfunclet$??__EvecUseSoundFileName@@YAXXZ$5
xdata$x	ENDS
;	COMDAT xdata$x
xdata$x	SEGMENT
__ehfuncinfo$??__FvecUseSoundFileName@@YAXXZ DQ 00000000119930522r ; 2.33398e-314
	DD	FLAT:__unwindtable$??__FvecUseSoundFileName@@YAXXZ
	DQ	00000000000000000r		; 0
	DQ	00000000000000000r		; 0
	DQ	00000000100000000r		; 2.122e-314
__unwindtable$??__FvecUseSoundFileName@@YAXXZ DD 0ffffffffH
	DD	FLAT:___std_terminate
xdata$x	ENDS
;	COMDAT xdata$x
xdata$x	SEGMENT
__ehfuncinfo$??__EvecDropSoundFileName@@YAXXZ DQ 00000000419930522r ; 8.69997e-314
	DD	FLAT:__unwindtable$??__EvecDropSoundFileName@@YAXXZ
	DQ	00000000000000000r		; 0
	DQ	00000000000000000r		; 0
	DQ	00000000100000000r		; 2.122e-314
__unwindtable$??__EvecDropSoundFileName@@YAXXZ DD 0ffffffffH
	DD	FLAT:__unwindfunclet$??__EvecDropSoundFileName@@YAXXZ$0
	DD	00H
	DD	FLAT:__unwindfunclet$??__EvecDropSoundFileName@@YAXXZ$1
	DD	01H
	DD	FLAT:__unwindfunclet$??__EvecDropSoundFileName@@YAXXZ$2
	DD	02H
	DD	FLAT:__unwindfunclet$??__EvecDropSoundFileName@@YAXXZ$3
xdata$x	ENDS
;	COMDAT xdata$x
xdata$x	SEGMENT
__ehfuncinfo$??__FvecDropSoundFileName@@YAXXZ DQ 00000000119930522r ; 2.33398e-314
	DD	FLAT:__unwindtable$??__FvecDropSoundFileName@@YAXXZ
	DQ	00000000000000000r		; 0
	DQ	00000000000000000r		; 0
	DQ	00000000100000000r		; 2.122e-314
__unwindtable$??__FvecDropSoundFileName@@YAXXZ DD 0ffffffffH
	DD	FLAT:___std_terminate
xdata$x	ENDS
;	COMDAT xdata$x
xdata$x	SEGMENT
__ehfuncinfo$??__EskillIndexes@@YAXXZ DQ 00000002819930522r ; 8.50918e-313
	DD	FLAT:__unwindtable$??__EskillIndexes@@YAXXZ
	DQ	00000000000000000r		; 0
	DQ	00000000000000000r		; 0
	DQ	00000000100000000r		; 2.122e-314
	ORG $+4
__unwindtable$??__EskillIndexes@@YAXXZ DD 0ffffffffH
	DD	FLAT:__unwindfunclet$??__EskillIndexes@@YAXXZ$0
	DD	00H
	DD	FLAT:__unwindfunclet$??__EskillIndexes@@YAXXZ$1
	DD	01H
	DD	FLAT:__unwindfunclet$??__EskillIndexes@@YAXXZ$2
	DD	00H
	DD	FLAT:__unwindfunclet$??__EskillIndexes@@YAXXZ$2
	DD	03H
	DD	FLAT:__unwindfunclet$??__EskillIndexes@@YAXXZ$4
	DD	04H
	DD	FLAT:__unwindfunclet$??__EskillIndexes@@YAXXZ$5
	DD	05H
	DD	FLAT:__unwindfunclet$??__EskillIndexes@@YAXXZ$6
	DD	06H
	DD	FLAT:__unwindfunclet$??__EskillIndexes@@YAXXZ$7
	DD	07H
	DD	FLAT:__unwindfunclet$??__EskillIndexes@@YAXXZ$8
	DD	08H
	DD	FLAT:__unwindfunclet$??__EskillIndexes@@YAXXZ$9
	DD	07H
	DD	FLAT:__unwindfunclet$??__EskillIndexes@@YAXXZ$9
	DD	0aH
	DD	FLAT:__unwindfunclet$??__EskillIndexes@@YAXXZ$11
	DD	0bH
	DD	FLAT:__unwindfunclet$??__EskillIndexes@@YAXXZ$12
	DD	0cH
	DD	FLAT:__unwindfunclet$??__EskillIndexes@@YAXXZ$13
	DD	0dH
	DD	FLAT:__unwindfunclet$??__EskillIndexes@@YAXXZ$14
	DD	0eH
	DD	FLAT:__unwindfunclet$??__EskillIndexes@@YAXXZ$15
	DD	0fH
	DD	FLAT:__unwindfunclet$??__EskillIndexes@@YAXXZ$16
	DD	0eH
	DD	FLAT:__unwindfunclet$??__EskillIndexes@@YAXXZ$16
	DD	011H
	DD	FLAT:__unwindfunclet$??__EskillIndexes@@YAXXZ$18
	DD	012H
	DD	FLAT:__unwindfunclet$??__EskillIndexes@@YAXXZ$19
	DD	013H
	DD	FLAT:__unwindfunclet$??__EskillIndexes@@YAXXZ$20
	DD	014H
	DD	FLAT:__unwindfunclet$??__EskillIndexes@@YAXXZ$21
	DD	015H
	DD	FLAT:__unwindfunclet$??__EskillIndexes@@YAXXZ$22
	DD	016H
	DD	FLAT:__unwindfunclet$??__EskillIndexes@@YAXXZ$23
	DD	015H
	DD	FLAT:__unwindfunclet$??__EskillIndexes@@YAXXZ$23
	DD	018H
	DD	FLAT:__unwindfunclet$??__EskillIndexes@@YAXXZ$25
	DD	019H
	DD	FLAT:__unwindfunclet$??__EskillIndexes@@YAXXZ$26
	DD	05H
	DD	FLAT:__unwindfunclet$??__EskillIndexes@@YAXXZ$7
	DD	01bH
	DD	FLAT:__unwindfunclet$??__EskillIndexes@@YAXXZ$9
	DD	01cH
	DD	FLAT:__unwindfunclet$??__EskillIndexes@@YAXXZ$11
	DD	01dH
	DD	FLAT:__unwindfunclet$??__EskillIndexes@@YAXXZ$12
	DD	01eH
	DD	FLAT:__unwindfunclet$??__EskillIndexes@@YAXXZ$14
	DD	01fH
	DD	FLAT:__unwindfunclet$??__EskillIndexes@@YAXXZ$16
	DD	020H
	DD	FLAT:__unwindfunclet$??__EskillIndexes@@YAXXZ$18
	DD	021H
	DD	FLAT:__unwindfunclet$??__EskillIndexes@@YAXXZ$19
	DD	022H
	DD	FLAT:__unwindfunclet$??__EskillIndexes@@YAXXZ$21
	DD	023H
	DD	FLAT:__unwindfunclet$??__EskillIndexes@@YAXXZ$23
	DD	024H
	DD	FLAT:__unwindfunclet$??__EskillIndexes@@YAXXZ$25
	DD	025H
	DD	FLAT:__unwindfunclet$??__EskillIndexes@@YAXXZ$26
	DD	026H
	DD	FLAT:__unwindfunclet$??__EskillIndexes@@YAXXZ$28
xdata$x	ENDS
;	COMDAT xdata$x
xdata$x	SEGMENT
__ehfuncinfo$??__EguildSkills@@YAXXZ DQ 00000000a19930522r ; 2.14319e-313
	DD	FLAT:__unwindtable$??__EguildSkills@@YAXXZ
	DQ	00000000000000000r		; 0
	DQ	00000000000000000r		; 0
	DQ	00000000100000000r		; 2.122e-314
	ORG $+4
__unwindtable$??__EguildSkills@@YAXXZ DD 0ffffffffH
	DD	FLAT:__unwindfunclet$??__EguildSkills@@YAXXZ$0
	DD	00H
	DD	FLAT:__unwindfunclet$??__EguildSkills@@YAXXZ$1
	DD	01H
	DD	FLAT:__unwindfunclet$??__EguildSkills@@YAXXZ$10
	DD	01H
	DD	FLAT:__unwindfunclet$??__EguildSkills@@YAXXZ$2
	DD	03H
	DD	FLAT:__unwindfunclet$??__EguildSkills@@YAXXZ$3
	DD	04H
	DD	FLAT:__unwindfunclet$??__EguildSkills@@YAXXZ$4
	DD	05H
	DD	FLAT:__unwindfunclet$??__EguildSkills@@YAXXZ$16
	DD	01H
	DD	FLAT:__unwindfunclet$??__EguildSkills@@YAXXZ$3
	DD	07H
	DD	FLAT:__unwindfunclet$??__EguildSkills@@YAXXZ$4
	DD	08H
	DD	FLAT:__unwindfunclet$??__EguildSkills@@YAXXZ$6
xdata$x	ENDS
;	COMDAT xdata$x
xdata$x	SEGMENT
__ehfuncinfo$?imeGetText@@YAPAU_object@@PAU1@0@Z DD 019930522H
	DD	01H
	DD	FLAT:__unwindtable$?imeGetText@@YAPAU_object@@PAU1@0@Z
	DD	2 DUP(00H)
	DD	2 DUP(00H)
	DD	00H
	DD	01H
__unwindtable$?imeGetText@@YAPAU_object@@PAU1@0@Z DD 0ffffffffH
	DD	FLAT:__unwindfunclet$?imeGetText@@YAPAU_object@@PAU1@0@Z$0
xdata$x	ENDS
;	COMDAT xdata$x
xdata$x	SEGMENT
__ehfuncinfo$?imeGetCandidate@@YAPAU_object@@PAU1@0@Z DD 019930522H
	DD	01H
	DD	FLAT:__unwindtable$?imeGetCandidate@@YAPAU_object@@PAU1@0@Z
	DD	2 DUP(00H)
	DD	2 DUP(00H)
	DD	00H
	DD	01H
__unwindtable$?imeGetCandidate@@YAPAU_object@@PAU1@0@Z DD 0ffffffffH
	DD	FLAT:__unwindfunclet$?imeGetCandidate@@YAPAU_object@@PAU1@0@Z$0
xdata$x	ENDS
;	COMDAT xdata$x
xdata$x	SEGMENT
__ehfuncinfo$?imeGetReading@@YAPAU_object@@PAU1@0@Z DD 019930522H
	DD	01H
	DD	FLAT:__unwindtable$?imeGetReading@@YAPAU_object@@PAU1@0@Z
	DD	2 DUP(00H)
	DD	2 DUP(00H)
	DD	00H
	DD	01H
__unwindtable$?imeGetReading@@YAPAU_object@@PAU1@0@Z DD 0ffffffffH
	DD	FLAT:__unwindfunclet$?imeGetReading@@YAPAU_object@@PAU1@0@Z$0
?vecUseSoundFileName@@3V?$array@U?$pair@KV?$basic_string@DU?$char_traits@D@std@@V?$allocator@D@2@@std@@@std@@$06@std@@B DQ 00000000000000001r ; 4.94066e-324 ; vecUseSoundFileName
	DQ	00000000000000000r		; 0
	DQ	00000000000000000r		; 0
	DQ	00000000000000000r		; 0
	DQ	00000000000000000r		; 0
	DQ	00000000000000000r		; 0
	DQ	00000000000000000r		; 0
	DQ	00000000000000000r		; 0
	DQ	00000000000000000r		; 0
	DQ	00000000000000000r		; 0
	DQ	00000000000000000r		; 0
	DQ	00000000000000000r		; 0
	DQ	00000000000000000r		; 0
	DQ	00000000000000000r		; 0
	DQ	00000000000000000r		; 0
	DQ	00000000000000000r		; 0
	DQ	00000000000000000r		; 0
	DQ	00000000000000000r		; 0
	DQ	00000000000000000r		; 0
	DQ	00000000000000000r		; 0
	DQ	00000000000000000r		; 0
	DQ	00000000000000000r		; 0
	DQ	00000000000000000r		; 0
	DQ	00000000000000000r		; 0
	DD	00H
?vecUseSoundFileName$initializer$@@3P6AXXZA DD FLAT:??__EvecUseSoundFileName@@YAXXZ ; vecUseSoundFileName$initializer$
?vecDropSoundFileName$initializer$@@3P6AXXZA DD FLAT:??__EvecDropSoundFileName@@YAXXZ ; vecDropSoundFileName$initializer$
?vecEffectList$initializer$@@3P6AXXZA DD FLAT:??__EvecEffectList@@YAXXZ ; vecEffectList$initializer$
?characterNameColors$initializer$@@3P6AXXZA DD FLAT:??__EcharacterNameColors@@YAXXZ ; characterNameColors$initializer$
?characterTitleColors$initializer$@@3P6AXXZA DD FLAT:??__EcharacterTitleColors@@YAXXZ ; characterTitleColors$initializer$
?characterTitleSystemColors$initializer$@@3P6AXXZA DD FLAT:??__EcharacterTitleSystemColors@@YAXXZ ; characterTitleSystemColors$initializer$
?emotionIcons$initializer$@@3P6AXXZA DD FLAT:??__EemotionIcons@@YAXXZ ; emotionIcons$initializer$
?skillIndexes$initializer$@@3P6AXXZA DD FLAT:??__EskillIndexes@@YAXXZ ; skillIndexes$initializer$
?guildSkills$initializer$@@3P6AXXZA DD FLAT:??__EguildSkills@@YAXXZ ; guildSkills$initializer$
; Function compile flags: /Ogtp
; File C:\Anka2Project\Anka2Project\Source\Binary\source\UserInterface\PythonIMEModule.cpp
; File C:\Program Files\Microsoft Visual Studio\2022\Community\VC\Tools\MSVC\14.44.35207\include\xstring
; File C:\Anka2Project\Anka2Project\Source\Binary\source\UserInterface\PythonIMEModule.cpp
; File C:\Anka2Project\Anka2Project\Source\Binary\source\eterBase\Singleton.h
; File C:\Anka2Project\Anka2Project\Source\Binary\source\UserInterface\PythonIMEModule.cpp
; File C:\Program Files\Microsoft Visual Studio\2022\Community\VC\Tools\MSVC\14.44.35207\include\xstring
; File C:\Anka2Project\Anka2Project\Source\Binary\source\UserInterface\PythonIMEModule.cpp
; File C:\Program Files\Microsoft Visual Studio\2022\Community\VC\Tools\MSVC\14.44.35207\include\xstring
; File C:\Anka2Project\Anka2Project\Source\Binary\source\UserInterface\PythonIMEModule.cpp
; File C:\Program Files\Microsoft Visual Studio\2022\Community\VC\Tools\MSVC\14.44.35207\include\xstring
; File C:\Program Files\Microsoft Visual Studio\2022\Community\VC\Tools\MSVC\14.44.35207\include\xmemory
; File C:\Program Files\Microsoft Visual Studio\2022\Community\VC\Tools\MSVC\14.44.35207\include\xstring
; File C:\Program Files\Microsoft Visual Studio\2022\Community\VC\Tools\MSVC\14.44.35207\include\xmemory
; File C:\Anka2Project\Anka2Project\Source\Binary\source\UserInterface\PythonIMEModule.cpp
; File C:\Program Files\Microsoft Visual Studio\2022\Community\VC\Tools\MSVC\14.44.35207\include\xmemory
; File C:\Anka2Project\Anka2Project\Source\Binary\source\UserInterface\PythonIMEModule.cpp
;	COMDAT ?imeGetText@@YAPAU_object@@PAU1@0@Z
_TEXT	SEGMENT
_bCodePage$ = -44					; size = 4
_strText$ = -40						; size = 24
__$ArrayPad$ = -16					; size = 4
__$EHRec$ = -12						; size = 12
_poSelf$ = 8						; size = 4
_poArgs$ = 12						; size = 4
?imeGetText@@YAPAU_object@@PAU1@0@Z PROC		; imeGetText, COMDAT

; 60   : {	

  00000	55		 push	 ebp
  00001	8b ec		 mov	 ebp, esp
  00003	6a ff		 push	 -1
  00005	68 00 00 00 00	 push	 __ehhandler$?imeGetText@@YAPAU_object@@PAU1@0@Z
  0000a	64 a1 00 00 00
	00		 mov	 eax, DWORD PTR fs:0
  00010	50		 push	 eax
  00011	83 ec 20	 sub	 esp, 32			; 00000020H
  00014	a1 00 00 00 00	 mov	 eax, DWORD PTR ___security_cookie
  00019	33 c5		 xor	 eax, ebp
  0001b	89 45 f0	 mov	 DWORD PTR __$ArrayPad$[ebp], eax
  0001e	56		 push	 esi
  0001f	50		 push	 eax
  00020	8d 45 f4	 lea	 eax, DWORD PTR __$EHRec$[ebp]
  00023	64 a3 00 00 00
	00		 mov	 DWORD PTR fs:0, eax
  00029	8b 45 0c	 mov	 eax, DWORD PTR _poArgs$[ebp]

; 61   : 	int bCodePage;
; 62   : 	if (!PyTuple_GetInteger(poArgs, 0, &bCodePage))

  0002c	8d 4d d4	 lea	 ecx, DWORD PTR _bCodePage$[ebp]
  0002f	51		 push	 ecx
  00030	6a 00		 push	 0
  00032	50		 push	 eax
  00033	e8 00 00 00 00	 call	 ?PyTuple_GetInteger@@YA_NPAU_object@@HPAH@Z ; PyTuple_GetInteger
  00038	83 c4 0c	 add	 esp, 12			; 0000000cH
  0003b	84 c0		 test	 al, al
  0003d	75 07		 jne	 SHORT $LN71@imeGetText

; 63   : 		bCodePage = 0;

  0003f	c7 45 d4 00 00
	00 00		 mov	 DWORD PTR _bCodePage$[ebp], 0
$LN71@imeGetText:
  00046	0f 57 c0	 xorps	 xmm0, xmm0
; File C:\Program Files\Microsoft Visual Studio\2022\Community\VC\Tools\MSVC\14.44.35207\include\xstring

; 860  :         _My_data._Mysize = 0;

  00049	c7 45 e8 00 00
	00 00		 mov	 DWORD PTR _strText$[ebp+16], 0

; 493  :         _CONSTEXPR20 _Bxty() noexcept : _Buf() {} // user-provided, for fancy pointers

  00050	0f 11 45 d8	 movups	 XMMWORD PTR _strText$[ebp], xmm0

; 861  :         _My_data._Myres  = _Small_string_capacity;

  00054	c7 45 ec 0f 00
	00 00		 mov	 DWORD PTR _strText$[ebp+20], 15 ; 0000000fH

; 862  :         _My_data._Activate_SSO_buffer();
; 863  : 
; 864  :         // the _Traits::assign is last so the codegen doesn't think the char write can alias this
; 865  :         _Traits::assign(_My_data._Bx._Buf[0], _Elem());

  0005b	c6 45 d8 00	 mov	 BYTE PTR _strText$[ebp], 0
; File C:\Anka2Project\Anka2Project\Source\Binary\source\UserInterface\PythonIMEModule.cpp

; 65   : 	std::string strText;

  0005f	c7 45 fc 00 00
	00 00		 mov	 DWORD PTR __$EHRec$[ebp+8], 0
; File C:\Anka2Project\Anka2Project\Source\Binary\source\eterBase\Singleton.h

; 26   : 		assert(ms_singleton);

  00066	8b 0d 00 00 00
	00		 mov	 ecx, DWORD PTR ?ms_singleton@?$CSingleton@VCPythonIME@@@@0PAVCPythonIME@@A ; CSingleton<CPythonIME>::ms_singleton
  0006c	85 c9		 test	 ecx, ecx
  0006e	75 1a		 jne	 SHORT $LN27@imeGetText
  00070	6a 1a		 push	 26			; 0000001aH
  00072	68 00 00 00 00	 push	 OFFSET ??_C@_1IO@CAJLEEOI@?$AAC?$AA?3?$AA?2?$AAA?$AAn?$AAk?$AAa?$AA2?$AAP?$AAr?$AAo?$AAj?$AAe?$AAc?$AAt@
  00077	68 00 00 00 00	 push	 OFFSET ??_C@_1BK@FMEHPMFE@?$AAm?$AAs?$AA_?$AAs?$AAi?$AAn?$AAg?$AAl?$AAe?$AAt?$AAo?$AAn@
  0007c	e8 00 00 00 00	 call	 __wassert
  00081	8b 0d 00 00 00
	00		 mov	 ecx, DWORD PTR ?ms_singleton@?$CSingleton@VCPythonIME@@@@0PAVCPythonIME@@A ; CSingleton<CPythonIME>::ms_singleton
  00087	83 c4 0c	 add	 esp, 12			; 0000000cH
$LN27@imeGetText:
; File C:\Anka2Project\Anka2Project\Source\Binary\source\UserInterface\PythonIMEModule.cpp

; 66   : 	CPythonIME::Instance().GetText(strText, bCodePage ? true : false);

  0008a	83 7d d4 00	 cmp	 DWORD PTR _bCodePage$[ebp], 0
  0008e	0f 95 c0	 setne	 al
  00091	83 c1 04	 add	 ecx, 4
  00094	0f b6 c0	 movzx	 eax, al
  00097	50		 push	 eax
  00098	8d 45 d8	 lea	 eax, DWORD PTR _strText$[ebp]
  0009b	50		 push	 eax
  0009c	e8 00 00 00 00	 call	 ?GetText@CIME@@QAEHAAV?$basic_string@DU?$char_traits@D@std@@V?$allocator@D@2@@std@@_N@Z ; CIME::GetText
; File C:\Program Files\Microsoft Visual Studio\2022\Community\VC\Tools\MSVC\14.44.35207\include\xstring

; 453  :         return _Myres > _Small_string_capacity;

  000a1	83 7d ec 0f	 cmp	 DWORD PTR _strText$[ebp+20], 15 ; 0000000fH

; 444  :         const value_type* _Result = _Bx._Buf;

  000a5	8d 45 d8	 lea	 eax, DWORD PTR _strText$[ebp]

; 445  :         if (_Large_mode_engaged()) {

  000a8	0f 47 45 d8	 cmova	 eax, DWORD PTR _strText$[ebp]
; File C:\Anka2Project\Anka2Project\Source\Binary\source\UserInterface\PythonIMEModule.cpp

; 67   : 	return Py_BuildValue("s", strText.c_str());

  000ac	50		 push	 eax
  000ad	68 00 00 00 00	 push	 OFFSET ??_C@_01LKDEMHDF@s@
  000b2	ff 15 00 00 00
	00		 call	 DWORD PTR __imp__Py_BuildValue
; File C:\Program Files\Microsoft Visual Studio\2022\Community\VC\Tools\MSVC\14.44.35207\include\xstring

; 453  :         return _Myres > _Small_string_capacity;

  000b8	8b 4d ec	 mov	 ecx, DWORD PTR _strText$[ebp+20]
; File C:\Anka2Project\Anka2Project\Source\Binary\source\UserInterface\PythonIMEModule.cpp

; 67   : 	return Py_BuildValue("s", strText.c_str());

  000bb	83 c4 08	 add	 esp, 8
  000be	8b f0		 mov	 esi, eax
; File C:\Program Files\Microsoft Visual Studio\2022\Community\VC\Tools\MSVC\14.44.35207\include\xstring

; 453  :         return _Myres > _Small_string_capacity;

  000c0	83 f9 0f	 cmp	 ecx, 15			; 0000000fH

; 3083 :         if (_My_data._Large_mode_engaged()) {

  000c3	76 28		 jbe	 SHORT $LN56@imeGetText
; File C:\Program Files\Microsoft Visual Studio\2022\Community\VC\Tools\MSVC\14.44.35207\include\xmemory

; 985  :         _STD _Deallocate<_New_alignof<_Ty>>(_Ptr, sizeof(_Ty) * _Count);

  000c5	8b 55 d8	 mov	 edx, DWORD PTR _strText$[ebp]
; File C:\Program Files\Microsoft Visual Studio\2022\Community\VC\Tools\MSVC\14.44.35207\include\xstring

; 852  :         _Al.deallocate(_Old_ptr, _Capacity + 1); // +1 for null terminator

  000c8	41		 inc	 ecx
; File C:\Program Files\Microsoft Visual Studio\2022\Community\VC\Tools\MSVC\14.44.35207\include\xmemory

; 985  :         _STD _Deallocate<_New_alignof<_Ty>>(_Ptr, sizeof(_Ty) * _Count);

  000c9	8b c2		 mov	 eax, edx

; 284  :         if (_Bytes >= _Big_allocation_threshold) {

  000cb	81 f9 00 10 00
	00		 cmp	 ecx, 4096		; 00001000H
  000d1	72 10		 jb	 SHORT $LN64@imeGetText

; 205  :     const uintptr_t _Ptr_container   = _Ptr_user[-1];

  000d3	8b 50 fc	 mov	 edx, DWORD PTR [eax-4]
  000d6	83 c1 23	 add	 ecx, 35			; 00000023H
  000d9	2b c2		 sub	 eax, edx

; 219  :     _STL_VERIFY(_Back_shift >= _Min_back_shift && _Back_shift <= _Non_user_size, "invalid argument");

  000db	83 c0 fc	 add	 eax, -4			; fffffffcH
  000de	83 f8 1f	 cmp	 eax, 31			; 0000001fH
  000e1	77 26		 ja	 SHORT $LN75@imeGetText
$LN64@imeGetText:

; 289  :         ::operator delete(_Ptr, _Bytes);

  000e3	51		 push	 ecx
  000e4	52		 push	 edx
  000e5	e8 00 00 00 00	 call	 ??3@YAXPAXI@Z		; operator delete
  000ea	83 c4 08	 add	 esp, 8
$LN56@imeGetText:
; File C:\Anka2Project\Anka2Project\Source\Binary\source\UserInterface\PythonIMEModule.cpp

; 67   : 	return Py_BuildValue("s", strText.c_str());

  000ed	8b c6		 mov	 eax, esi

; 68   : }

  000ef	8b 4d f4	 mov	 ecx, DWORD PTR __$EHRec$[ebp]
  000f2	64 89 0d 00 00
	00 00		 mov	 DWORD PTR fs:0, ecx
  000f9	59		 pop	 ecx
  000fa	5e		 pop	 esi
  000fb	8b 4d f0	 mov	 ecx, DWORD PTR __$ArrayPad$[ebp]
  000fe	33 cd		 xor	 ecx, ebp
  00100	e8 00 00 00 00	 call	 @__security_check_cookie@4
  00105	8b e5		 mov	 esp, ebp
  00107	5d		 pop	 ebp
  00108	c3		 ret	 0
$LN75@imeGetText:
; File C:\Program Files\Microsoft Visual Studio\2022\Community\VC\Tools\MSVC\14.44.35207\include\xmemory

; 219  :     _STL_VERIFY(_Back_shift >= _Min_back_shift && _Back_shift <= _Non_user_size, "invalid argument");

  00109	6a 00		 push	 0
  0010b	6a 00		 push	 0
  0010d	6a 00		 push	 0
  0010f	6a 00		 push	 0
  00111	6a 00		 push	 0
  00113	e8 00 00 00 00	 call	 __invoke_watson
$LN73@imeGetText:
  00118	cc		 int	 3
_TEXT	ENDS
;	COMDAT text$x
text$x	SEGMENT
__unwindfunclet$?imeGetText@@YAPAU_object@@PAU1@0@Z$0:
  00000	8d 4d d8	 lea	 ecx, DWORD PTR _strText$[ebp]
  00003	e9 00 00 00 00	 jmp	 ??1?$basic_string@DU?$char_traits@D@std@@V?$allocator@D@2@@std@@QAE@XZ ; std::basic_string<char,std::char_traits<char>,std::allocator<char> >::~basic_string<char,std::char_traits<char>,std::allocator<char> >
  00008	cc		 int	 3
  00009	cc		 int	 3
  0000a	cc		 int	 3
  0000b	cc		 int	 3
  0000c	cc		 int	 3
__ehhandler$?imeGetText@@YAPAU_object@@PAU1@0@Z:
  0000d	90		 npad	 1
  0000e	90		 npad	 1
  0000f	8b 54 24 08	 mov	 edx, DWORD PTR [esp+8]
  00013	8d 42 0c	 lea	 eax, DWORD PTR [edx+12]
  00016	8b 4a d8	 mov	 ecx, DWORD PTR [edx-40]
  00019	33 c8		 xor	 ecx, eax
  0001b	e8 00 00 00 00	 call	 @__security_check_cookie@4
  00020	8b 4a fc	 mov	 ecx, DWORD PTR [edx-4]
  00023	33 c8		 xor	 ecx, eax
  00025	e8 00 00 00 00	 call	 @__security_check_cookie@4
  0002a	b8 00 00 00 00	 mov	 eax, OFFSET __ehfuncinfo$?imeGetText@@YAPAU_object@@PAU1@0@Z
  0002f	e9 00 00 00 00	 jmp	 ___CxxFrameHandler3
text$x	ENDS
?imeGetText@@YAPAU_object@@PAU1@0@Z ENDP		; imeGetText
; Function compile flags: /Ogtp
; File C:\Anka2Project\Anka2Project\Source\Binary\source\UserInterface\PythonIMEModule.cpp
; File C:\Anka2Project\Anka2Project\Source\Binary\source\eterBase\Singleton.h
; File C:\Anka2Project\Anka2Project\Source\Binary\source\UserInterface\PythonIMEModule.cpp
;	COMDAT ?imeGetCodePage@@YAPAU_object@@PAU1@0@Z
_TEXT	SEGMENT
_poSelf$ = 8						; size = 4
_poArgs$ = 12						; size = 4
?imeGetCodePage@@YAPAU_object@@PAU1@0@Z PROC		; imeGetCodePage, COMDAT
; File C:\Anka2Project\Anka2Project\Source\Binary\source\eterBase\Singleton.h

; 26   : 		assert(ms_singleton);

  00000	8b 0d 00 00 00
	00		 mov	 ecx, DWORD PTR ?ms_singleton@?$CSingleton@VCPythonIME@@@@0PAVCPythonIME@@A ; CSingleton<CPythonIME>::ms_singleton
  00006	85 c9		 test	 ecx, ecx
  00008	75 1a		 jne	 SHORT $LN5@imeGetCode
  0000a	6a 1a		 push	 26			; 0000001aH
  0000c	68 00 00 00 00	 push	 OFFSET ??_C@_1IO@CAJLEEOI@?$AAC?$AA?3?$AA?2?$AAA?$AAn?$AAk?$AAa?$AA2?$AAP?$AAr?$AAo?$AAj?$AAe?$AAc?$AAt@
  00011	68 00 00 00 00	 push	 OFFSET ??_C@_1BK@FMEHPMFE@?$AAm?$AAs?$AA_?$AAs?$AAi?$AAn?$AAg?$AAl?$AAe?$AAt?$AAo?$AAn@
  00016	e8 00 00 00 00	 call	 __wassert
  0001b	8b 0d 00 00 00
	00		 mov	 ecx, DWORD PTR ?ms_singleton@?$CSingleton@VCPythonIME@@@@0PAVCPythonIME@@A ; CSingleton<CPythonIME>::ms_singleton
  00021	83 c4 0c	 add	 esp, 12			; 0000000cH
$LN5@imeGetCode:
; File C:\Anka2Project\Anka2Project\Source\Binary\source\UserInterface\PythonIMEModule.cpp

; 72   : 	return Py_BuildValue("i", CPythonIME::Instance().GetCodePage());

  00024	83 c1 04	 add	 ecx, 4
  00027	e8 00 00 00 00	 call	 ?GetCodePage@CIME@@QAEHXZ ; CIME::GetCodePage
  0002c	50		 push	 eax
  0002d	68 00 00 00 00	 push	 OFFSET ??_C@_01KBJDNOO@i@
  00032	ff 15 00 00 00
	00		 call	 DWORD PTR __imp__Py_BuildValue
  00038	83 c4 08	 add	 esp, 8

; 73   : }

  0003b	c3		 ret	 0
?imeGetCodePage@@YAPAU_object@@PAU1@0@Z ENDP		; imeGetCodePage
_TEXT	ENDS
; Function compile flags: /Ogtp
; File C:\Anka2Project\Anka2Project\Source\Binary\source\UserInterface\PythonIMEModule.cpp
; File C:\Anka2Project\Anka2Project\Source\Binary\source\eterBase\Singleton.h
; File C:\Anka2Project\Anka2Project\Source\Binary\source\UserInterface\PythonIMEModule.cpp
;	COMDAT ?imeGetCandidateCount@@YAPAU_object@@PAU1@0@Z
_TEXT	SEGMENT
_poSelf$ = 8						; size = 4
_poArgs$ = 12						; size = 4
?imeGetCandidateCount@@YAPAU_object@@PAU1@0@Z PROC	; imeGetCandidateCount, COMDAT
; File C:\Anka2Project\Anka2Project\Source\Binary\source\eterBase\Singleton.h

; 26   : 		assert(ms_singleton);

  00000	8b 0d 00 00 00
	00		 mov	 ecx, DWORD PTR ?ms_singleton@?$CSingleton@VCPythonIME@@@@0PAVCPythonIME@@A ; CSingleton<CPythonIME>::ms_singleton
  00006	85 c9		 test	 ecx, ecx
  00008	75 1a		 jne	 SHORT $LN5@imeGetCand
  0000a	6a 1a		 push	 26			; 0000001aH
  0000c	68 00 00 00 00	 push	 OFFSET ??_C@_1IO@CAJLEEOI@?$AAC?$AA?3?$AA?2?$AAA?$AAn?$AAk?$AAa?$AA2?$AAP?$AAr?$AAo?$AAj?$AAe?$AAc?$AAt@
  00011	68 00 00 00 00	 push	 OFFSET ??_C@_1BK@FMEHPMFE@?$AAm?$AAs?$AA_?$AAs?$AAi?$AAn?$AAg?$AAl?$AAe?$AAt?$AAo?$AAn@
  00016	e8 00 00 00 00	 call	 __wassert
  0001b	8b 0d 00 00 00
	00		 mov	 ecx, DWORD PTR ?ms_singleton@?$CSingleton@VCPythonIME@@@@0PAVCPythonIME@@A ; CSingleton<CPythonIME>::ms_singleton
  00021	83 c4 0c	 add	 esp, 12			; 0000000cH
$LN5@imeGetCand:
; File C:\Anka2Project\Anka2Project\Source\Binary\source\UserInterface\PythonIMEModule.cpp

; 77   : 	return Py_BuildValue("i", CPythonIME::Instance().GetCandidatePageCount());

  00024	83 c1 04	 add	 ecx, 4
  00027	e8 00 00 00 00	 call	 ?GetCandidatePageCount@CIME@@QAEHXZ ; CIME::GetCandidatePageCount
  0002c	50		 push	 eax
  0002d	68 00 00 00 00	 push	 OFFSET ??_C@_01KBJDNOO@i@
  00032	ff 15 00 00 00
	00		 call	 DWORD PTR __imp__Py_BuildValue
  00038	83 c4 08	 add	 esp, 8

; 78   : }

  0003b	c3		 ret	 0
?imeGetCandidateCount@@YAPAU_object@@PAU1@0@Z ENDP	; imeGetCandidateCount
_TEXT	ENDS
; Function compile flags: /Ogtp
; File C:\Anka2Project\Anka2Project\Source\Binary\source\UserInterface\PythonIMEModule.cpp
; File C:\Program Files\Microsoft Visual Studio\2022\Community\VC\Tools\MSVC\14.44.35207\include\xstring
; File C:\Anka2Project\Anka2Project\Source\Binary\source\UserInterface\PythonIMEModule.cpp
; File C:\Anka2Project\Anka2Project\Source\Binary\source\eterBase\Singleton.h
; File C:\Anka2Project\Anka2Project\Source\Binary\source\UserInterface\PythonIMEModule.cpp
; File C:\Program Files\Microsoft Visual Studio\2022\Community\VC\Tools\MSVC\14.44.35207\include\xstring
; File C:\Anka2Project\Anka2Project\Source\Binary\source\UserInterface\PythonIMEModule.cpp
; File C:\Program Files\Microsoft Visual Studio\2022\Community\VC\Tools\MSVC\14.44.35207\include\xstring
; File C:\Anka2Project\Anka2Project\Source\Binary\source\UserInterface\PythonIMEModule.cpp
; File C:\Program Files\Microsoft Visual Studio\2022\Community\VC\Tools\MSVC\14.44.35207\include\xstring
; File C:\Anka2Project\Anka2Project\Source\Binary\source\UserInterface\PythonIMEModule.cpp
; File C:\Program Files\Microsoft Visual Studio\2022\Community\VC\Tools\MSVC\14.44.35207\include\xstring
; File C:\Program Files\Microsoft Visual Studio\2022\Community\VC\Tools\MSVC\14.44.35207\include\xmemory
; File C:\Program Files\Microsoft Visual Studio\2022\Community\VC\Tools\MSVC\14.44.35207\include\xstring
; File C:\Program Files\Microsoft Visual Studio\2022\Community\VC\Tools\MSVC\14.44.35207\include\xmemory
; File C:\Anka2Project\Anka2Project\Source\Binary\source\UserInterface\PythonIMEModule.cpp
; File C:\Program Files\Microsoft Visual Studio\2022\Community\VC\Tools\MSVC\14.44.35207\include\xmemory
; File C:\Anka2Project\Anka2Project\Source\Binary\source\UserInterface\PythonIMEModule.cpp
;	COMDAT ?imeGetCandidate@@YAPAU_object@@PAU1@0@Z
_TEXT	SEGMENT
_index$ = -44						; size = 4
_strText$ = -40						; size = 24
__$ArrayPad$ = -16					; size = 4
__$EHRec$ = -12						; size = 12
_poSelf$ = 8						; size = 4
_poArgs$ = 12						; size = 4
?imeGetCandidate@@YAPAU_object@@PAU1@0@Z PROC		; imeGetCandidate, COMDAT

; 81   : {

  00000	55		 push	 ebp
  00001	8b ec		 mov	 ebp, esp
  00003	6a ff		 push	 -1
  00005	68 00 00 00 00	 push	 __ehhandler$?imeGetCandidate@@YAPAU_object@@PAU1@0@Z
  0000a	64 a1 00 00 00
	00		 mov	 eax, DWORD PTR fs:0
  00010	50		 push	 eax
  00011	83 ec 20	 sub	 esp, 32			; 00000020H
  00014	a1 00 00 00 00	 mov	 eax, DWORD PTR ___security_cookie
  00019	33 c5		 xor	 eax, ebp
  0001b	89 45 f0	 mov	 DWORD PTR __$ArrayPad$[ebp], eax
  0001e	56		 push	 esi
  0001f	50		 push	 eax
  00020	8d 45 f4	 lea	 eax, DWORD PTR __$EHRec$[ebp]
  00023	64 a3 00 00 00
	00		 mov	 DWORD PTR fs:0, eax
  00029	8b 45 0c	 mov	 eax, DWORD PTR _poArgs$[ebp]

; 82   : 	int index;
; 83   : 	if (!PyTuple_GetInteger(poArgs, 0, &index))

  0002c	8d 4d d4	 lea	 ecx, DWORD PTR _index$[ebp]
  0002f	51		 push	 ecx
  00030	6a 00		 push	 0
  00032	50		 push	 eax
  00033	e8 00 00 00 00	 call	 ?PyTuple_GetInteger@@YA_NPAU_object@@HPAH@Z ; PyTuple_GetInteger
  00038	83 c4 0c	 add	 esp, 12			; 0000000cH
  0003b	84 c0		 test	 al, al
  0003d	75 0f		 jne	 SHORT $LN2@imeGetCand

; 84   : 		return Py_BuildException();

  0003f	6a 00		 push	 0
  00041	e8 00 00 00 00	 call	 ?Py_BuildException@@YAPAU_object@@PBDZZ ; Py_BuildException
  00046	83 c4 04	 add	 esp, 4
  00049	e9 a2 00 00 00	 jmp	 $LN1@imeGetCand
$LN2@imeGetCand:
  0004e	0f 57 c0	 xorps	 xmm0, xmm0
; File C:\Program Files\Microsoft Visual Studio\2022\Community\VC\Tools\MSVC\14.44.35207\include\xstring

; 860  :         _My_data._Mysize = 0;

  00051	c7 45 e8 00 00
	00 00		 mov	 DWORD PTR _strText$[ebp+16], 0

; 493  :         _CONSTEXPR20 _Bxty() noexcept : _Buf() {} // user-provided, for fancy pointers

  00058	0f 11 45 d8	 movups	 XMMWORD PTR _strText$[ebp], xmm0

; 861  :         _My_data._Myres  = _Small_string_capacity;

  0005c	c7 45 ec 0f 00
	00 00		 mov	 DWORD PTR _strText$[ebp+20], 15 ; 0000000fH

; 862  :         _My_data._Activate_SSO_buffer();
; 863  : 
; 864  :         // the _Traits::assign is last so the codegen doesn't think the char write can alias this
; 865  :         _Traits::assign(_My_data._Bx._Buf[0], _Elem());

  00063	c6 45 d8 00	 mov	 BYTE PTR _strText$[ebp], 0
; File C:\Anka2Project\Anka2Project\Source\Binary\source\UserInterface\PythonIMEModule.cpp

; 86   : 	std::string strText;

  00067	c7 45 fc 00 00
	00 00		 mov	 DWORD PTR __$EHRec$[ebp+8], 0
; File C:\Anka2Project\Anka2Project\Source\Binary\source\eterBase\Singleton.h

; 26   : 		assert(ms_singleton);

  0006e	8b 0d 00 00 00
	00		 mov	 ecx, DWORD PTR ?ms_singleton@?$CSingleton@VCPythonIME@@@@0PAVCPythonIME@@A ; CSingleton<CPythonIME>::ms_singleton
  00074	85 c9		 test	 ecx, ecx
  00076	75 1a		 jne	 SHORT $LN27@imeGetCand
  00078	6a 1a		 push	 26			; 0000001aH
  0007a	68 00 00 00 00	 push	 OFFSET ??_C@_1IO@CAJLEEOI@?$AAC?$AA?3?$AA?2?$AAA?$AAn?$AAk?$AAa?$AA2?$AAP?$AAr?$AAo?$AAj?$AAe?$AAc?$AAt@
  0007f	68 00 00 00 00	 push	 OFFSET ??_C@_1BK@FMEHPMFE@?$AAm?$AAs?$AA_?$AAs?$AAi?$AAn?$AAg?$AAl?$AAe?$AAt?$AAo?$AAn@
  00084	e8 00 00 00 00	 call	 __wassert
  00089	8b 0d 00 00 00
	00		 mov	 ecx, DWORD PTR ?ms_singleton@?$CSingleton@VCPythonIME@@@@0PAVCPythonIME@@A ; CSingleton<CPythonIME>::ms_singleton
  0008f	83 c4 0c	 add	 esp, 12			; 0000000cH
$LN27@imeGetCand:
; File C:\Anka2Project\Anka2Project\Source\Binary\source\UserInterface\PythonIMEModule.cpp

; 87   : 	int iLength = CPythonIME::Instance().GetCandidate(index, strText);

  00092	8d 45 d8	 lea	 eax, DWORD PTR _strText$[ebp]
  00095	83 c1 04	 add	 ecx, 4
  00098	50		 push	 eax
  00099	ff 75 d4	 push	 DWORD PTR _index$[ebp]
  0009c	e8 00 00 00 00	 call	 ?GetCandidate@CIME@@QAEHKAAV?$basic_string@DU?$char_traits@D@std@@V?$allocator@D@2@@std@@@Z ; CIME::GetCandidate
; File C:\Program Files\Microsoft Visual Studio\2022\Community\VC\Tools\MSVC\14.44.35207\include\xstring

; 453  :         return _Myres > _Small_string_capacity;

  000a1	83 7d ec 0f	 cmp	 DWORD PTR _strText$[ebp+20], 15 ; 0000000fH

; 444  :         const value_type* _Result = _Bx._Buf;

  000a5	8d 4d d8	 lea	 ecx, DWORD PTR _strText$[ebp]
; File C:\Anka2Project\Anka2Project\Source\Binary\source\UserInterface\PythonIMEModule.cpp

; 88   : 	return Py_BuildValue("si", strText.c_str(), iLength);

  000a8	50		 push	 eax
; File C:\Program Files\Microsoft Visual Studio\2022\Community\VC\Tools\MSVC\14.44.35207\include\xstring

; 445  :         if (_Large_mode_engaged()) {

  000a9	0f 47 4d d8	 cmova	 ecx, DWORD PTR _strText$[ebp]
; File C:\Anka2Project\Anka2Project\Source\Binary\source\UserInterface\PythonIMEModule.cpp

; 88   : 	return Py_BuildValue("si", strText.c_str(), iLength);

  000ad	51		 push	 ecx
  000ae	68 00 00 00 00	 push	 OFFSET ??_C@_02OCDGCAAK@si@
  000b3	ff 15 00 00 00
	00		 call	 DWORD PTR __imp__Py_BuildValue
; File C:\Program Files\Microsoft Visual Studio\2022\Community\VC\Tools\MSVC\14.44.35207\include\xstring

; 453  :         return _Myres > _Small_string_capacity;

  000b9	8b 4d ec	 mov	 ecx, DWORD PTR _strText$[ebp+20]
; File C:\Anka2Project\Anka2Project\Source\Binary\source\UserInterface\PythonIMEModule.cpp

; 88   : 	return Py_BuildValue("si", strText.c_str(), iLength);

  000bc	83 c4 0c	 add	 esp, 12			; 0000000cH
  000bf	8b f0		 mov	 esi, eax
; File C:\Program Files\Microsoft Visual Studio\2022\Community\VC\Tools\MSVC\14.44.35207\include\xstring

; 453  :         return _Myres > _Small_string_capacity;

  000c1	83 f9 0f	 cmp	 ecx, 15			; 0000000fH

; 3083 :         if (_My_data._Large_mode_engaged()) {

  000c4	76 28		 jbe	 SHORT $LN56@imeGetCand
; File C:\Program Files\Microsoft Visual Studio\2022\Community\VC\Tools\MSVC\14.44.35207\include\xmemory

; 985  :         _STD _Deallocate<_New_alignof<_Ty>>(_Ptr, sizeof(_Ty) * _Count);

  000c6	8b 55 d8	 mov	 edx, DWORD PTR _strText$[ebp]
; File C:\Program Files\Microsoft Visual Studio\2022\Community\VC\Tools\MSVC\14.44.35207\include\xstring

; 852  :         _Al.deallocate(_Old_ptr, _Capacity + 1); // +1 for null terminator

  000c9	41		 inc	 ecx
; File C:\Program Files\Microsoft Visual Studio\2022\Community\VC\Tools\MSVC\14.44.35207\include\xmemory

; 985  :         _STD _Deallocate<_New_alignof<_Ty>>(_Ptr, sizeof(_Ty) * _Count);

  000ca	8b c2		 mov	 eax, edx

; 284  :         if (_Bytes >= _Big_allocation_threshold) {

  000cc	81 f9 00 10 00
	00		 cmp	 ecx, 4096		; 00001000H
  000d2	72 10		 jb	 SHORT $LN64@imeGetCand

; 205  :     const uintptr_t _Ptr_container   = _Ptr_user[-1];

  000d4	8b 50 fc	 mov	 edx, DWORD PTR [eax-4]
  000d7	83 c1 23	 add	 ecx, 35			; 00000023H
  000da	2b c2		 sub	 eax, edx

; 219  :     _STL_VERIFY(_Back_shift >= _Min_back_shift && _Back_shift <= _Non_user_size, "invalid argument");

  000dc	83 c0 fc	 add	 eax, -4			; fffffffcH
  000df	83 f8 1f	 cmp	 eax, 31			; 0000001fH
  000e2	77 26		 ja	 SHORT $LN74@imeGetCand
$LN64@imeGetCand:

; 289  :         ::operator delete(_Ptr, _Bytes);

  000e4	51		 push	 ecx
  000e5	52		 push	 edx
  000e6	e8 00 00 00 00	 call	 ??3@YAXPAXI@Z		; operator delete
  000eb	83 c4 08	 add	 esp, 8
$LN56@imeGetCand:
; File C:\Anka2Project\Anka2Project\Source\Binary\source\UserInterface\PythonIMEModule.cpp

; 88   : 	return Py_BuildValue("si", strText.c_str(), iLength);

  000ee	8b c6		 mov	 eax, esi
$LN1@imeGetCand:

; 89   : }

  000f0	8b 4d f4	 mov	 ecx, DWORD PTR __$EHRec$[ebp]
  000f3	64 89 0d 00 00
	00 00		 mov	 DWORD PTR fs:0, ecx
  000fa	59		 pop	 ecx
  000fb	5e		 pop	 esi
  000fc	8b 4d f0	 mov	 ecx, DWORD PTR __$ArrayPad$[ebp]
  000ff	33 cd		 xor	 ecx, ebp
  00101	e8 00 00 00 00	 call	 @__security_check_cookie@4
  00106	8b e5		 mov	 esp, ebp
  00108	5d		 pop	 ebp
  00109	c3		 ret	 0
$LN74@imeGetCand:
; File C:\Program Files\Microsoft Visual Studio\2022\Community\VC\Tools\MSVC\14.44.35207\include\xmemory

; 219  :     _STL_VERIFY(_Back_shift >= _Min_back_shift && _Back_shift <= _Non_user_size, "invalid argument");

  0010a	6a 00		 push	 0
  0010c	6a 00		 push	 0
  0010e	6a 00		 push	 0
  00110	6a 00		 push	 0
  00112	6a 00		 push	 0
  00114	e8 00 00 00 00	 call	 __invoke_watson
$LN72@imeGetCand:
  00119	cc		 int	 3
_TEXT	ENDS
;	COMDAT text$x
text$x	SEGMENT
__unwindfunclet$?imeGetCandidate@@YAPAU_object@@PAU1@0@Z$0:
  00000	8d 4d d8	 lea	 ecx, DWORD PTR _strText$[ebp]
  00003	e9 00 00 00 00	 jmp	 ??1?$basic_string@DU?$char_traits@D@std@@V?$allocator@D@2@@std@@QAE@XZ ; std::basic_string<char,std::char_traits<char>,std::allocator<char> >::~basic_string<char,std::char_traits<char>,std::allocator<char> >
  00008	cc		 int	 3
  00009	cc		 int	 3
  0000a	cc		 int	 3
  0000b	cc		 int	 3
  0000c	cc		 int	 3
__ehhandler$?imeGetCandidate@@YAPAU_object@@PAU1@0@Z:
  0000d	90		 npad	 1
  0000e	90		 npad	 1
  0000f	8b 54 24 08	 mov	 edx, DWORD PTR [esp+8]
  00013	8d 42 0c	 lea	 eax, DWORD PTR [edx+12]
  00016	8b 4a d8	 mov	 ecx, DWORD PTR [edx-40]
  00019	33 c8		 xor	 ecx, eax
  0001b	e8 00 00 00 00	 call	 @__security_check_cookie@4
  00020	8b 4a fc	 mov	 ecx, DWORD PTR [edx-4]
  00023	33 c8		 xor	 ecx, eax
  00025	e8 00 00 00 00	 call	 @__security_check_cookie@4
  0002a	b8 00 00 00 00	 mov	 eax, OFFSET __ehfuncinfo$?imeGetCandidate@@YAPAU_object@@PAU1@0@Z
  0002f	e9 00 00 00 00	 jmp	 ___CxxFrameHandler3
text$x	ENDS
?imeGetCandidate@@YAPAU_object@@PAU1@0@Z ENDP		; imeGetCandidate
; Function compile flags: /Ogtp
; File C:\Anka2Project\Anka2Project\Source\Binary\source\UserInterface\PythonIMEModule.cpp
; File C:\Anka2Project\Anka2Project\Source\Binary\source\eterBase\Singleton.h
; File C:\Anka2Project\Anka2Project\Source\Binary\source\UserInterface\PythonIMEModule.cpp
;	COMDAT ?imeGetCandidateSelection@@YAPAU_object@@PAU1@0@Z
_TEXT	SEGMENT
_poSelf$ = 8						; size = 4
_poArgs$ = 12						; size = 4
?imeGetCandidateSelection@@YAPAU_object@@PAU1@0@Z PROC	; imeGetCandidateSelection, COMDAT
; File C:\Anka2Project\Anka2Project\Source\Binary\source\eterBase\Singleton.h

; 26   : 		assert(ms_singleton);

  00000	8b 0d 00 00 00
	00		 mov	 ecx, DWORD PTR ?ms_singleton@?$CSingleton@VCPythonIME@@@@0PAVCPythonIME@@A ; CSingleton<CPythonIME>::ms_singleton
  00006	85 c9		 test	 ecx, ecx
  00008	75 1a		 jne	 SHORT $LN5@imeGetCand
  0000a	6a 1a		 push	 26			; 0000001aH
  0000c	68 00 00 00 00	 push	 OFFSET ??_C@_1IO@CAJLEEOI@?$AAC?$AA?3?$AA?2?$AAA?$AAn?$AAk?$AAa?$AA2?$AAP?$AAr?$AAo?$AAj?$AAe?$AAc?$AAt@
  00011	68 00 00 00 00	 push	 OFFSET ??_C@_1BK@FMEHPMFE@?$AAm?$AAs?$AA_?$AAs?$AAi?$AAn?$AAg?$AAl?$AAe?$AAt?$AAo?$AAn@
  00016	e8 00 00 00 00	 call	 __wassert
  0001b	8b 0d 00 00 00
	00		 mov	 ecx, DWORD PTR ?ms_singleton@?$CSingleton@VCPythonIME@@@@0PAVCPythonIME@@A ; CSingleton<CPythonIME>::ms_singleton
  00021	83 c4 0c	 add	 esp, 12			; 0000000cH
$LN5@imeGetCand:
; File C:\Anka2Project\Anka2Project\Source\Binary\source\UserInterface\PythonIMEModule.cpp

; 93   : 	return Py_BuildValue("i", CPythonIME::Instance().GetCandidateSelection());

  00024	83 c1 04	 add	 ecx, 4
  00027	e8 00 00 00 00	 call	 ?GetCandidateSelection@CIME@@QAEHXZ ; CIME::GetCandidateSelection
  0002c	50		 push	 eax
  0002d	68 00 00 00 00	 push	 OFFSET ??_C@_01KBJDNOO@i@
  00032	ff 15 00 00 00
	00		 call	 DWORD PTR __imp__Py_BuildValue
  00038	83 c4 08	 add	 esp, 8

; 94   : }

  0003b	c3		 ret	 0
?imeGetCandidateSelection@@YAPAU_object@@PAU1@0@Z ENDP	; imeGetCandidateSelection
_TEXT	ENDS
; Function compile flags: /Ogtp
; File C:\Anka2Project\Anka2Project\Source\Binary\source\UserInterface\PythonIMEModule.cpp
; File C:\Program Files\Microsoft Visual Studio\2022\Community\VC\Tools\MSVC\14.44.35207\include\xstring
; File C:\Anka2Project\Anka2Project\Source\Binary\source\UserInterface\PythonIMEModule.cpp
; File C:\Anka2Project\Anka2Project\Source\Binary\source\eterBase\Singleton.h
; File C:\Anka2Project\Anka2Project\Source\Binary\source\UserInterface\PythonIMEModule.cpp
; File C:\Program Files\Microsoft Visual Studio\2022\Community\VC\Tools\MSVC\14.44.35207\include\xstring
; File C:\Anka2Project\Anka2Project\Source\Binary\source\UserInterface\PythonIMEModule.cpp
; File C:\Program Files\Microsoft Visual Studio\2022\Community\VC\Tools\MSVC\14.44.35207\include\xstring
; File C:\Anka2Project\Anka2Project\Source\Binary\source\UserInterface\PythonIMEModule.cpp
; File C:\Program Files\Microsoft Visual Studio\2022\Community\VC\Tools\MSVC\14.44.35207\include\xstring
; File C:\Program Files\Microsoft Visual Studio\2022\Community\VC\Tools\MSVC\14.44.35207\include\xmemory
; File C:\Program Files\Microsoft Visual Studio\2022\Community\VC\Tools\MSVC\14.44.35207\include\xstring
; File C:\Program Files\Microsoft Visual Studio\2022\Community\VC\Tools\MSVC\14.44.35207\include\xmemory
; File C:\Anka2Project\Anka2Project\Source\Binary\source\UserInterface\PythonIMEModule.cpp
; File C:\Program Files\Microsoft Visual Studio\2022\Community\VC\Tools\MSVC\14.44.35207\include\xmemory
; File C:\Anka2Project\Anka2Project\Source\Binary\source\UserInterface\PythonIMEModule.cpp
;	COMDAT ?imeGetReading@@YAPAU_object@@PAU1@0@Z
_TEXT	SEGMENT
_strText$ = -40						; size = 24
__$ArrayPad$ = -16					; size = 4
__$EHRec$ = -12						; size = 12
_poSelf$ = 8						; size = 4
_poArgs$ = 12						; size = 4
?imeGetReading@@YAPAU_object@@PAU1@0@Z PROC		; imeGetReading, COMDAT

; 97   : {	

  00000	55		 push	 ebp
  00001	8b ec		 mov	 ebp, esp
  00003	6a ff		 push	 -1
  00005	68 00 00 00 00	 push	 __ehhandler$?imeGetReading@@YAPAU_object@@PAU1@0@Z
  0000a	64 a1 00 00 00
	00		 mov	 eax, DWORD PTR fs:0
  00010	50		 push	 eax
  00011	83 ec 1c	 sub	 esp, 28			; 0000001cH
  00014	a1 00 00 00 00	 mov	 eax, DWORD PTR ___security_cookie
  00019	33 c5		 xor	 eax, ebp
  0001b	89 45 f0	 mov	 DWORD PTR __$ArrayPad$[ebp], eax
  0001e	56		 push	 esi
  0001f	50		 push	 eax
  00020	8d 45 f4	 lea	 eax, DWORD PTR __$EHRec$[ebp]
  00023	64 a3 00 00 00
	00		 mov	 DWORD PTR fs:0, eax
  00029	0f 57 c0	 xorps	 xmm0, xmm0
; File C:\Program Files\Microsoft Visual Studio\2022\Community\VC\Tools\MSVC\14.44.35207\include\xstring

; 860  :         _My_data._Mysize = 0;

  0002c	c7 45 e8 00 00
	00 00		 mov	 DWORD PTR _strText$[ebp+16], 0

; 493  :         _CONSTEXPR20 _Bxty() noexcept : _Buf() {} // user-provided, for fancy pointers

  00033	0f 11 45 d8	 movups	 XMMWORD PTR _strText$[ebp], xmm0

; 861  :         _My_data._Myres  = _Small_string_capacity;

  00037	c7 45 ec 0f 00
	00 00		 mov	 DWORD PTR _strText$[ebp+20], 15 ; 0000000fH

; 862  :         _My_data._Activate_SSO_buffer();
; 863  : 
; 864  :         // the _Traits::assign is last so the codegen doesn't think the char write can alias this
; 865  :         _Traits::assign(_My_data._Bx._Buf[0], _Elem());

  0003e	c6 45 d8 00	 mov	 BYTE PTR _strText$[ebp], 0
; File C:\Anka2Project\Anka2Project\Source\Binary\source\UserInterface\PythonIMEModule.cpp

; 98   : 	std::string strText;

  00042	c7 45 fc 00 00
	00 00		 mov	 DWORD PTR __$EHRec$[ebp+8], 0
; File C:\Anka2Project\Anka2Project\Source\Binary\source\eterBase\Singleton.h

; 26   : 		assert(ms_singleton);

  00049	8b 0d 00 00 00
	00		 mov	 ecx, DWORD PTR ?ms_singleton@?$CSingleton@VCPythonIME@@@@0PAVCPythonIME@@A ; CSingleton<CPythonIME>::ms_singleton
  0004f	85 c9		 test	 ecx, ecx
  00051	75 1a		 jne	 SHORT $LN26@imeGetRead
  00053	6a 1a		 push	 26			; 0000001aH
  00055	68 00 00 00 00	 push	 OFFSET ??_C@_1IO@CAJLEEOI@?$AAC?$AA?3?$AA?2?$AAA?$AAn?$AAk?$AAa?$AA2?$AAP?$AAr?$AAo?$AAj?$AAe?$AAc?$AAt@
  0005a	68 00 00 00 00	 push	 OFFSET ??_C@_1BK@FMEHPMFE@?$AAm?$AAs?$AA_?$AAs?$AAi?$AAn?$AAg?$AAl?$AAe?$AAt?$AAo?$AAn@
  0005f	e8 00 00 00 00	 call	 __wassert
  00064	8b 0d 00 00 00
	00		 mov	 ecx, DWORD PTR ?ms_singleton@?$CSingleton@VCPythonIME@@@@0PAVCPythonIME@@A ; CSingleton<CPythonIME>::ms_singleton
  0006a	83 c4 0c	 add	 esp, 12			; 0000000cH
$LN26@imeGetRead:
; File C:\Anka2Project\Anka2Project\Source\Binary\source\UserInterface\PythonIMEModule.cpp

; 99   : 	CPythonIME::Instance().GetReading(strText);

  0006d	8d 45 d8	 lea	 eax, DWORD PTR _strText$[ebp]
  00070	83 c1 04	 add	 ecx, 4
  00073	50		 push	 eax
  00074	e8 00 00 00 00	 call	 ?GetReading@CIME@@QAEHAAV?$basic_string@DU?$char_traits@D@std@@V?$allocator@D@2@@std@@@Z ; CIME::GetReading
; File C:\Program Files\Microsoft Visual Studio\2022\Community\VC\Tools\MSVC\14.44.35207\include\xstring

; 453  :         return _Myres > _Small_string_capacity;

  00079	83 7d ec 0f	 cmp	 DWORD PTR _strText$[ebp+20], 15 ; 0000000fH

; 444  :         const value_type* _Result = _Bx._Buf;

  0007d	8d 45 d8	 lea	 eax, DWORD PTR _strText$[ebp]

; 445  :         if (_Large_mode_engaged()) {

  00080	0f 47 45 d8	 cmova	 eax, DWORD PTR _strText$[ebp]
; File C:\Anka2Project\Anka2Project\Source\Binary\source\UserInterface\PythonIMEModule.cpp

; 100  : 	return Py_BuildValue("s", strText.c_str());

  00084	50		 push	 eax
  00085	68 00 00 00 00	 push	 OFFSET ??_C@_01LKDEMHDF@s@
  0008a	ff 15 00 00 00
	00		 call	 DWORD PTR __imp__Py_BuildValue
; File C:\Program Files\Microsoft Visual Studio\2022\Community\VC\Tools\MSVC\14.44.35207\include\xstring

; 453  :         return _Myres > _Small_string_capacity;

  00090	8b 4d ec	 mov	 ecx, DWORD PTR _strText$[ebp+20]
; File C:\Anka2Project\Anka2Project\Source\Binary\source\UserInterface\PythonIMEModule.cpp

; 100  : 	return Py_BuildValue("s", strText.c_str());

  00093	83 c4 08	 add	 esp, 8
  00096	8b f0		 mov	 esi, eax
; File C:\Program Files\Microsoft Visual Studio\2022\Community\VC\Tools\MSVC\14.44.35207\include\xstring

; 453  :         return _Myres > _Small_string_capacity;

  00098	83 f9 0f	 cmp	 ecx, 15			; 0000000fH

; 3083 :         if (_My_data._Large_mode_engaged()) {

  0009b	76 28		 jbe	 SHORT $LN55@imeGetRead
; File C:\Program Files\Microsoft Visual Studio\2022\Community\VC\Tools\MSVC\14.44.35207\include\xmemory

; 985  :         _STD _Deallocate<_New_alignof<_Ty>>(_Ptr, sizeof(_Ty) * _Count);

  0009d	8b 55 d8	 mov	 edx, DWORD PTR _strText$[ebp]
; File C:\Program Files\Microsoft Visual Studio\2022\Community\VC\Tools\MSVC\14.44.35207\include\xstring

; 852  :         _Al.deallocate(_Old_ptr, _Capacity + 1); // +1 for null terminator

  000a0	41		 inc	 ecx
; File C:\Program Files\Microsoft Visual Studio\2022\Community\VC\Tools\MSVC\14.44.35207\include\xmemory

; 985  :         _STD _Deallocate<_New_alignof<_Ty>>(_Ptr, sizeof(_Ty) * _Count);

  000a1	8b c2		 mov	 eax, edx

; 284  :         if (_Bytes >= _Big_allocation_threshold) {

  000a3	81 f9 00 10 00
	00		 cmp	 ecx, 4096		; 00001000H
  000a9	72 10		 jb	 SHORT $LN63@imeGetRead

; 205  :     const uintptr_t _Ptr_container   = _Ptr_user[-1];

  000ab	8b 50 fc	 mov	 edx, DWORD PTR [eax-4]
  000ae	83 c1 23	 add	 ecx, 35			; 00000023H
  000b1	2b c2		 sub	 eax, edx

; 219  :     _STL_VERIFY(_Back_shift >= _Min_back_shift && _Back_shift <= _Non_user_size, "invalid argument");

  000b3	83 c0 fc	 add	 eax, -4			; fffffffcH
  000b6	83 f8 1f	 cmp	 eax, 31			; 0000001fH
  000b9	77 26		 ja	 SHORT $LN73@imeGetRead
$LN63@imeGetRead:

; 289  :         ::operator delete(_Ptr, _Bytes);

  000bb	51		 push	 ecx
  000bc	52		 push	 edx
  000bd	e8 00 00 00 00	 call	 ??3@YAXPAXI@Z		; operator delete
  000c2	83 c4 08	 add	 esp, 8
$LN55@imeGetRead:
; File C:\Anka2Project\Anka2Project\Source\Binary\source\UserInterface\PythonIMEModule.cpp

; 100  : 	return Py_BuildValue("s", strText.c_str());

  000c5	8b c6		 mov	 eax, esi

; 101  : }

  000c7	8b 4d f4	 mov	 ecx, DWORD PTR __$EHRec$[ebp]
  000ca	64 89 0d 00 00
	00 00		 mov	 DWORD PTR fs:0, ecx
  000d1	59		 pop	 ecx
  000d2	5e		 pop	 esi
  000d3	8b 4d f0	 mov	 ecx, DWORD PTR __$ArrayPad$[ebp]
  000d6	33 cd		 xor	 ecx, ebp
  000d8	e8 00 00 00 00	 call	 @__security_check_cookie@4
  000dd	8b e5		 mov	 esp, ebp
  000df	5d		 pop	 ebp
  000e0	c3		 ret	 0
$LN73@imeGetRead:
; File C:\Program Files\Microsoft Visual Studio\2022\Community\VC\Tools\MSVC\14.44.35207\include\xmemory

; 219  :     _STL_VERIFY(_Back_shift >= _Min_back_shift && _Back_shift <= _Non_user_size, "invalid argument");

  000e1	6a 00		 push	 0
  000e3	6a 00		 push	 0
  000e5	6a 00		 push	 0
  000e7	6a 00		 push	 0
  000e9	6a 00		 push	 0
  000eb	e8 00 00 00 00	 call	 __invoke_watson
$LN71@imeGetRead:
  000f0	cc		 int	 3
_TEXT	ENDS
;	COMDAT text$x
text$x	SEGMENT
__unwindfunclet$?imeGetReading@@YAPAU_object@@PAU1@0@Z$0:
  00000	8d 4d d8	 lea	 ecx, DWORD PTR _strText$[ebp]
  00003	e9 00 00 00 00	 jmp	 ??1?$basic_string@DU?$char_traits@D@std@@V?$allocator@D@2@@std@@QAE@XZ ; std::basic_string<char,std::char_traits<char>,std::allocator<char> >::~basic_string<char,std::char_traits<char>,std::allocator<char> >
  00008	cc		 int	 3
  00009	cc		 int	 3
  0000a	cc		 int	 3
  0000b	cc		 int	 3
  0000c	cc		 int	 3
__ehhandler$?imeGetReading@@YAPAU_object@@PAU1@0@Z:
  0000d	90		 npad	 1
  0000e	90		 npad	 1
  0000f	8b 54 24 08	 mov	 edx, DWORD PTR [esp+8]
  00013	8d 42 0c	 lea	 eax, DWORD PTR [edx+12]
  00016	8b 4a dc	 mov	 ecx, DWORD PTR [edx-36]
  00019	33 c8		 xor	 ecx, eax
  0001b	e8 00 00 00 00	 call	 @__security_check_cookie@4
  00020	8b 4a fc	 mov	 ecx, DWORD PTR [edx-4]
  00023	33 c8		 xor	 ecx, eax
  00025	e8 00 00 00 00	 call	 @__security_check_cookie@4
  0002a	b8 00 00 00 00	 mov	 eax, OFFSET __ehfuncinfo$?imeGetReading@@YAPAU_object@@PAU1@0@Z
  0002f	e9 00 00 00 00	 jmp	 ___CxxFrameHandler3
text$x	ENDS
?imeGetReading@@YAPAU_object@@PAU1@0@Z ENDP		; imeGetReading
; Function compile flags: /Ogtp
; File C:\Anka2Project\Anka2Project\Source\Binary\source\UserInterface\PythonIMEModule.cpp
; File C:\Anka2Project\Anka2Project\Source\Binary\source\eterBase\Singleton.h
; File C:\Anka2Project\Anka2Project\Source\Binary\source\UserInterface\PythonIMEModule.cpp
;	COMDAT ?imeGetReadingError@@YAPAU_object@@PAU1@0@Z
_TEXT	SEGMENT
_poSelf$ = 8						; size = 4
_poArgs$ = 12						; size = 4
?imeGetReadingError@@YAPAU_object@@PAU1@0@Z PROC	; imeGetReadingError, COMDAT
; File C:\Anka2Project\Anka2Project\Source\Binary\source\eterBase\Singleton.h

; 26   : 		assert(ms_singleton);

  00000	8b 0d 00 00 00
	00		 mov	 ecx, DWORD PTR ?ms_singleton@?$CSingleton@VCPythonIME@@@@0PAVCPythonIME@@A ; CSingleton<CPythonIME>::ms_singleton
  00006	85 c9		 test	 ecx, ecx
  00008	75 1a		 jne	 SHORT $LN5@imeGetRead
  0000a	6a 1a		 push	 26			; 0000001aH
  0000c	68 00 00 00 00	 push	 OFFSET ??_C@_1IO@CAJLEEOI@?$AAC?$AA?3?$AA?2?$AAA?$AAn?$AAk?$AAa?$AA2?$AAP?$AAr?$AAo?$AAj?$AAe?$AAc?$AAt@
  00011	68 00 00 00 00	 push	 OFFSET ??_C@_1BK@FMEHPMFE@?$AAm?$AAs?$AA_?$AAs?$AAi?$AAn?$AAg?$AAl?$AAe?$AAt?$AAo?$AAn@
  00016	e8 00 00 00 00	 call	 __wassert
  0001b	8b 0d 00 00 00
	00		 mov	 ecx, DWORD PTR ?ms_singleton@?$CSingleton@VCPythonIME@@@@0PAVCPythonIME@@A ; CSingleton<CPythonIME>::ms_singleton
  00021	83 c4 0c	 add	 esp, 12			; 0000000cH
$LN5@imeGetRead:
; File C:\Anka2Project\Anka2Project\Source\Binary\source\UserInterface\PythonIMEModule.cpp

; 105  : 	return Py_BuildValue("i", CPythonIME::Instance().GetReadingError());

  00024	83 c1 04	 add	 ecx, 4
  00027	e8 00 00 00 00	 call	 ?GetReadingError@CIME@@QAEHXZ ; CIME::GetReadingError
  0002c	50		 push	 eax
  0002d	68 00 00 00 00	 push	 OFFSET ??_C@_01KBJDNOO@i@
  00032	ff 15 00 00 00
	00		 call	 DWORD PTR __imp__Py_BuildValue
  00038	83 c4 08	 add	 esp, 8

; 106  : }

  0003b	c3		 ret	 0
?imeGetReadingError@@YAPAU_object@@PAU1@0@Z ENDP	; imeGetReadingError
_TEXT	ENDS
; Function compile flags: /Ogtp
; File C:\Anka2Project\Anka2Project\Source\Binary\source\UserInterface\PythonIMEModule.cpp
; File C:\Anka2Project\Anka2Project\Source\Binary\source\eterBase\Singleton.h
; File C:\Anka2Project\Anka2Project\Source\Binary\source\UserInterface\PythonIMEModule.cpp
;	COMDAT ?imeGetInputMode@@YAPAU_object@@PAU1@0@Z
_TEXT	SEGMENT
_poSelf$ = 8						; size = 4
_poArgs$ = 12						; size = 4
?imeGetInputMode@@YAPAU_object@@PAU1@0@Z PROC		; imeGetInputMode, COMDAT
; File C:\Anka2Project\Anka2Project\Source\Binary\source\eterBase\Singleton.h

; 26   : 		assert(ms_singleton);

  00000	8b 0d 00 00 00
	00		 mov	 ecx, DWORD PTR ?ms_singleton@?$CSingleton@VCPythonIME@@@@0PAVCPythonIME@@A ; CSingleton<CPythonIME>::ms_singleton
  00006	85 c9		 test	 ecx, ecx
  00008	75 1a		 jne	 SHORT $LN5@imeGetInpu
  0000a	6a 1a		 push	 26			; 0000001aH
  0000c	68 00 00 00 00	 push	 OFFSET ??_C@_1IO@CAJLEEOI@?$AAC?$AA?3?$AA?2?$AAA?$AAn?$AAk?$AAa?$AA2?$AAP?$AAr?$AAo?$AAj?$AAe?$AAc?$AAt@
  00011	68 00 00 00 00	 push	 OFFSET ??_C@_1BK@FMEHPMFE@?$AAm?$AAs?$AA_?$AAs?$AAi?$AAn?$AAg?$AAl?$AAe?$AAt?$AAo?$AAn@
  00016	e8 00 00 00 00	 call	 __wassert
  0001b	8b 0d 00 00 00
	00		 mov	 ecx, DWORD PTR ?ms_singleton@?$CSingleton@VCPythonIME@@@@0PAVCPythonIME@@A ; CSingleton<CPythonIME>::ms_singleton
  00021	83 c4 0c	 add	 esp, 12			; 0000000cH
$LN5@imeGetInpu:
; File C:\Anka2Project\Anka2Project\Source\Binary\source\UserInterface\PythonIMEModule.cpp

; 160  : 	return Py_BuildValue("i", CPythonIME::Instance().GetInputMode());

  00024	83 c1 04	 add	 ecx, 4
  00027	e8 00 00 00 00	 call	 ?GetInputMode@CIME@@QAEKXZ ; CIME::GetInputMode
  0002c	50		 push	 eax
  0002d	68 00 00 00 00	 push	 OFFSET ??_C@_01KBJDNOO@i@
  00032	ff 15 00 00 00
	00		 call	 DWORD PTR __imp__Py_BuildValue
  00038	83 c4 08	 add	 esp, 8

; 161  : }

  0003b	c3		 ret	 0
?imeGetInputMode@@YAPAU_object@@PAU1@0@Z ENDP		; imeGetInputMode
_TEXT	ENDS
; Function compile flags: /Ogtp
; File C:\Anka2Project\Anka2Project\Source\Binary\source\UserInterface\PythonIMEModule.cpp
;	COMDAT ?initime@@YAXXZ
_TEXT	SEGMENT
?initime@@YAXXZ PROC					; initime, COMDAT

; 246  : 	static PyMethodDef s_methods[] =
; 247  : 	{
; 248  : 		{ "Enable",					imeEnable,					METH_VARARGS },
; 249  : 		{ "Disable",				imeDisable,					METH_VARARGS },
; 250  : 
; 251  : 		{ "EnableCaptureInput",		imeEnableCaptureInput,		METH_VARARGS },
; 252  : 		{ "DisableCaptureInput",	imeDisableCaptureInput,		METH_VARARGS },
; 253  : 		{ "SetMax",					imeSetMax,					METH_VARARGS },
; 254  : 		{ "SetUserMax",				imeSetUserMax,				METH_VARARGS },
; 255  : 		{ "SetText",				imeSetText,					METH_VARARGS },
; 256  : 		{ "GetText",				imeGetText,					METH_VARARGS },
; 257  : 		{ "GetCodePage",			imeGetCodePage,				METH_VARARGS },
; 258  : 		{ "GetCandidateCount",		imeGetCandidateCount,		METH_VARARGS },
; 259  : 		{ "GetCandidate",			imeGetCandidate,			METH_VARARGS },
; 260  : 		{ "GetCandidateSelection",	imeGetCandidateSelection,	METH_VARARGS },
; 261  : 		{ "GetReading",				imeGetReading,				METH_VARARGS },
; 262  : 		{ "GetReadingError",		imeGetReadingError,			METH_VARARGS },
; 263  : 		{ "EnableIME",				imeEnableIME,				METH_VARARGS },
; 264  : 		{ "DisableIME",				imeDisableIME,				METH_VARARGS },
; 265  : 		{ "GetInputMode",			imeGetInputMode,			METH_VARARGS },
; 266  : 		{ "SetInputMode",			imeSetInputMode,			METH_VARARGS },
; 267  : 
; 268  : 		{ "SetNumberMode",			imeSetNumberMode,			METH_VARARGS },
; 269  : 		{ "SetStringMode",			imeSetStringMode,			METH_VARARGS },
; 270  : 		{ "AddExceptKey",			imeAddExceptKey,			METH_VARARGS },
; 271  : 		{ "ClearExceptKey",			imeClearExceptKey,			METH_VARARGS },
; 272  : 		
; 273  : 		{ "MoveLeft",				imeMoveLeft,				METH_VARARGS },
; 274  : 		{ "MoveRight",				imeMoveRight,				METH_VARARGS },
; 275  : 		{ "MoveHome",				imeMoveHome,				METH_VARARGS },
; 276  : 		{ "MoveEnd",				imeMoveEnd,					METH_VARARGS },
; 277  : 		{ "SetCursorPosition",		imeSetCursorPosition,		METH_VARARGS },
; 278  : 		{ "Delete",					imeDelete,					METH_VARARGS },
; 279  : 		{ "PasteString",			imePasteString,				METH_VARARGS },
; 280  : 		{ "PasteBackspace",			imePasteBackspace,			METH_VARARGS },
; 281  : 		{ "PasteReturn",			imePasteReturn,				METH_VARARGS },
; 282  : 		{ "PasteTextFromClipBoard",	imePasteTextFromClipBoard,	METH_VARARGS },
; 283  : 		{ "EnablePaste",			imeEnablePaste,				METH_VARARGS },
; 284  : 
; 285  : 		{ nullptr,						nullptr,						NULL		 },
; 286  : 	};	
; 287  : 
; 288  : 	Py_InitModule("ime", s_methods);

  00000	68 f5 03 00 00	 push	 1013			; 000003f5H
  00005	6a 00		 push	 0
  00007	6a 00		 push	 0
  00009	68 00 00 00 00	 push	 OFFSET ?s_methods@?1??initime@@YAXXZ@4PAUPyMethodDef@@A
  0000e	68 00 00 00 00	 push	 OFFSET ??_C@_03MABAFPPL@ime@
  00013	ff 15 00 00 00
	00		 call	 DWORD PTR __imp__Py_InitModule4
  00019	83 c4 14	 add	 esp, 20			; 00000014H

; 289  : }

  0001c	c3		 ret	 0
?initime@@YAXXZ ENDP					; initime
_TEXT	ENDS
END
