; Listing generated by Microsoft (R) Optimizing Compiler Version 19.44.35219.0 

	TITLE	c:\anka2project\anka2project\source\binary\vs_files\userinterface\release\pythonnetworkstreamphasegameitem.obj
	.686P
	.XMM
	include listing.inc
	.model	flat

INCLUDELIB OLDNAMES

PUBLIC	??_C@_0EC@GGOCNHNP@CPythonNetworkStream?3?3SendSafeB@ ; `string'
PUBLIC	??_C@_1IK@DDJDFHDO@?$AA?$CB?$AA?$CC?$AAC?$AAP?$AAy?$AAt?$AAh?$AAo?$AAn?$AAN?$AAe?$AAt?$AAw?$AAo?$AAr@ ; `string'
PUBLIC	??_C@_1MK@OOIHIAGH@?$AAC?$AA?3?$AA?2?$AAA?$AAn?$AAk?$AAa?$AA2?$AAP?$AAr?$AAo?$AAj?$AAe?$AAc?$AAt@ ; `string'
PUBLIC	??_C@_0BC@GDFDGKCD@OpenSafeboxWindow@		; `string'
PUBLIC	??_C@_0P@BMBKKGBC@OnSafeBoxError@		; `string'
PUBLIC	??_C@_0P@OIFPJOPL@OpenMallWindow@		; `string'
PUBLIC	??_C@_0BE@OHCDIKPF@RefreshSafeboxMoney@		; `string'
PUBLIC	??_C@_0BG@ELBKFGDM@BINARY_Highlight_Item@	; `string'
PUBLIC	??_C@_0DB@JMGJIAKF@?5?$DO?$DO?5CPythonNetworkStream?3?3RecvM@ ; `string'
PUBLIC	??_C@_0BJ@GJICJJME@SendShopBuyPacket?5Error?6@	; `string'
PUBLIC	??_C@_0BJ@ENIABNOP@SendShopEndPacket?5Error?6@	; `string'
PUBLIC	??_C@_0BN@PEGCCLIG@SendShopAddSellPacket?5Error?6@ ; `string'
PUBLIC	??_C@_0BK@NFAAJDME@SendShopSellPacket?5Error?6@	; `string'
PUBLIC	??_C@_0BG@KBOLGOPL@CANNOT_EQUIP_EXCHANGE@	; `string'
PUBLIC	??_C@_0CP@LICKGIJF@?5SendShopSellPacketNew?$CIbySlot?$DN?$CF@ ; `string'
PUBLIC	??_C@_0BC@GKDHAPBC@CANNOT_EQUIP_SHOP@		; `string'
PUBLIC	??_C@_0BL@HGBMODPD@BINARY_AppendNotifyMessage@	; `string'
PUBLIC	??_C@_0BO@FFKONCIG@SendItemUseToItemPacket?5Error@ ; `string'
PUBLIC	??_C@_0BI@ECNPLDED@SendItemUsePacket?5Error@	; `string'
PUBLIC	??_C@_0BM@ICMBBAFL@SendItemDestroyPacket?5Error@ ; `string'
PUBLIC	??_C@_0BJ@OIBPCJHH@SendItemDropPacket?5Error@	; `string'
PUBLIC	??_C@_0BL@DCHNPPOD@SendItemPickUpPacket?5Error@	; `string'
PUBLIC	??_C@_0BJ@LGMFALEM@SendItemMovePacket?5Error@	; `string'
PUBLIC	??_C@_0BN@BNCAGMGN@SendQuickSlotDelPacket?5Error@ ; `string'
PUBLIC	??_C@_0BN@ONNLHEKF@SendQuickSlotAddPacket?5Error@ ; `string'
PUBLIC	??_C@_0DL@PLJBBCEI@?$CFd?5?$LE?B?5?$LO?x?$LE?B?5?$LN?$LK?F?d?$LM?H?5?$MA?L?F?e?F?$KO?5?$LJ?x?H?$KD?$MA?T@ ; `string'
PUBLIC	??_C@_0BO@MHEMOJBJ@SendQuickSlotSwapPacket?5Error@ ; `string'
PUBLIC	??_C@_0BM@PCGGGFKG@sound?1ambience?1gm_alert?4wav@ ; `string'
PUBLIC	??_C@_0BF@HCHHHOJB@yellow_tigerman_24_1@	; `string'
PUBLIC	??_C@_0CJ@JCBKPBPN@BINARY_DragonSoulRefineWindow_R@ ; `string'
PUBLIC	??_C@_0CD@JEDDBPLN@BINARY_DragonSoulRefineWindow_O@ ; `string'
PUBLIC	??_C@_0CA@IKMCFIBE@SendOfflineShopEndPacket?5Error?6@ ; `string'
PUBLIC	??_C@_0CM@IKKNFKOL@BINARY_DragonSoulRefineWindow_R@ ; `string'
PUBLIC	??_C@_0BO@HOGGCLNL@SendAddOfflineShopItem?5Error?6@ ; `string'
PUBLIC	??_C@_0CA@KOMANMDP@SendOfflineShopBuyPacket?5Error?6@ ; `string'
PUBLIC	??_C@_0CI@OOCPGCHH@SendRemoveOfflineShopItem?5Packe@ ; `string'
PUBLIC	??_C@_0CB@EICBIFFE@SendRemoveOfflineShopItem?5Error@ ; `string'
PUBLIC	??_C@_0BP@NBEBKNOJ@SendOpenShopSlot?5Packet?5Error?6@ ; `string'
PUBLIC	??_C@_0BI@ENAMPGCK@SendOpenShopSlot?5Error?6@	; `string'
PUBLIC	??_C@_0CK@KGEOCJID@SendRefreshOfflineShopMoney?5Pac@ ; `string'
PUBLIC	??_C@_0CF@EEECAIFO@SendDestroyOfflineShop?5Packet?5E@ ; `string'
PUBLIC	??_C@_0CD@IOCAECLN@SendOfflineShopCheck?5Packet?5err@ ; `string'
PUBLIC	??_C@_0CJ@HELCMFOP@SendOfflineShopChangeTitle?5Pack@ ; `string'
PUBLIC	??_C@_0CF@IBLCDDNC@SendOfflineOpenWithVID?5Packet?5E@ ; `string'
PUBLIC	??_C@_0CF@EOAPAKEO@SendOfflineOpenWithVID?5Packet?5e@ ; `string'
PUBLIC	??_C@_0CO@KEMJGEBN@SendOfflineShopChangeDecoration@ ; `string'
PUBLIC	??_C@_0CO@GLHEFNIB@SendOfflineShopChangeDecoration@ ; `string'
PUBLIC	??_C@_0CB@NABGIOIB@SendItemNewAttributePacket?5Erro@ ; `string'
PUBLIC	?ms_singleton@?$CSingleton@VCPythonSafeBox@@@@0PAVCPythonSafeBox@@A ; CSingleton<CPythonSafeBox>::ms_singleton
;	COMDAT ?ms_singleton@?$CSingleton@VCPythonSafeBox@@@@0PAVCPythonSafeBox@@A
_BSS	SEGMENT
?ms_singleton@?$CSingleton@VCPythonSafeBox@@@@0PAVCPythonSafeBox@@A DD 01H DUP (?) ; CSingleton<CPythonSafeBox>::ms_singleton
_BSS	ENDS
;	COMDAT ??_C@_0CB@NABGIOIB@SendItemNewAttributePacket?5Erro@
CONST	SEGMENT
??_C@_0CB@NABGIOIB@SendItemNewAttributePacket?5Erro@ DB 'SendItemNewAttri'
	DB	'butePacket Error', 00H			; `string'
CONST	ENDS
;	COMDAT ??_C@_0CO@GLHEFNIB@SendOfflineShopChangeDecoration@
CONST	SEGMENT
??_C@_0CO@GLHEFNIB@SendOfflineShopChangeDecoration@ DB 'SendOfflineShopCh'
	DB	'angeDecoration Packet error', 0aH, 00H	; `string'
CONST	ENDS
;	COMDAT ??_C@_0CO@KEMJGEBN@SendOfflineShopChangeDecoration@
CONST	SEGMENT
??_C@_0CO@KEMJGEBN@SendOfflineShopChangeDecoration@ DB 'SendOfflineShopCh'
	DB	'angeDecoration Packet Error', 0aH, 00H	; `string'
CONST	ENDS
;	COMDAT ??_C@_0CF@EOAPAKEO@SendOfflineOpenWithVID?5Packet?5e@
CONST	SEGMENT
??_C@_0CF@EOAPAKEO@SendOfflineOpenWithVID?5Packet?5e@ DB 'SendOfflineOpen'
	DB	'WithVID Packet error', 0aH, 00H		; `string'
CONST	ENDS
;	COMDAT ??_C@_0CF@IBLCDDNC@SendOfflineOpenWithVID?5Packet?5E@
CONST	SEGMENT
??_C@_0CF@IBLCDDNC@SendOfflineOpenWithVID?5Packet?5E@ DB 'SendOfflineOpen'
	DB	'WithVID Packet Error', 0aH, 00H		; `string'
CONST	ENDS
;	COMDAT ??_C@_0CJ@HELCMFOP@SendOfflineShopChangeTitle?5Pack@
CONST	SEGMENT
??_C@_0CJ@HELCMFOP@SendOfflineShopChangeTitle?5Pack@ DB 'SendOfflineShopC'
	DB	'hangeTitle Packet Error', 0aH, 00H		; `string'
CONST	ENDS
;	COMDAT ??_C@_0CD@IOCAECLN@SendOfflineShopCheck?5Packet?5err@
CONST	SEGMENT
??_C@_0CD@IOCAECLN@SendOfflineShopCheck?5Packet?5err@ DB 'SendOfflineShop'
	DB	'Check Packet error', 0aH, 00H		; `string'
CONST	ENDS
;	COMDAT ??_C@_0CF@EEECAIFO@SendDestroyOfflineShop?5Packet?5E@
CONST	SEGMENT
??_C@_0CF@EEECAIFO@SendDestroyOfflineShop?5Packet?5E@ DB 'SendDestroyOffl'
	DB	'ineShop Packet Error', 0aH, 00H		; `string'
CONST	ENDS
;	COMDAT ??_C@_0CK@KGEOCJID@SendRefreshOfflineShopMoney?5Pac@
CONST	SEGMENT
??_C@_0CK@KGEOCJID@SendRefreshOfflineShopMoney?5Pac@ DB 'SendRefreshOffli'
	DB	'neShopMoney Packet Error', 0aH, 00H		; `string'
CONST	ENDS
;	COMDAT ??_C@_0BI@ENAMPGCK@SendOpenShopSlot?5Error?6@
CONST	SEGMENT
??_C@_0BI@ENAMPGCK@SendOpenShopSlot?5Error?6@ DB 'SendOpenShopSlot Error', 0aH
	DB	00H						; `string'
CONST	ENDS
;	COMDAT ??_C@_0BP@NBEBKNOJ@SendOpenShopSlot?5Packet?5Error?6@
CONST	SEGMENT
??_C@_0BP@NBEBKNOJ@SendOpenShopSlot?5Packet?5Error?6@ DB 'SendOpenShopSlo'
	DB	't Packet Error', 0aH, 00H			; `string'
CONST	ENDS
;	COMDAT ??_C@_0CB@EICBIFFE@SendRemoveOfflineShopItem?5Error@
CONST	SEGMENT
??_C@_0CB@EICBIFFE@SendRemoveOfflineShopItem?5Error@ DB 'SendRemoveOfflin'
	DB	'eShopItem Error', 0aH, 00H			; `string'
CONST	ENDS
;	COMDAT ??_C@_0CI@OOCPGCHH@SendRemoveOfflineShopItem?5Packe@
CONST	SEGMENT
??_C@_0CI@OOCPGCHH@SendRemoveOfflineShopItem?5Packe@ DB 'SendRemoveOfflin'
	DB	'eShopItem Packet Error', 0aH, 00H		; `string'
CONST	ENDS
;	COMDAT ??_C@_0CA@KOMANMDP@SendOfflineShopBuyPacket?5Error?6@
CONST	SEGMENT
??_C@_0CA@KOMANMDP@SendOfflineShopBuyPacket?5Error?6@ DB 'SendOfflineShop'
	DB	'BuyPacket Error', 0aH, 00H			; `string'
CONST	ENDS
;	COMDAT ??_C@_0BO@HOGGCLNL@SendAddOfflineShopItem?5Error?6@
CONST	SEGMENT
??_C@_0BO@HOGGCLNL@SendAddOfflineShopItem?5Error?6@ DB 'SendAddOfflineSho'
	DB	'pItem Error', 0aH, 00H			; `string'
CONST	ENDS
;	COMDAT ??_C@_0CM@IKKNFKOL@BINARY_DragonSoulRefineWindow_R@
CONST	SEGMENT
??_C@_0CM@IKKNFKOL@BINARY_DragonSoulRefineWindow_R@ DB 'BINARY_DragonSoul'
	DB	'RefineWindow_RefineSucceed', 00H		; `string'
CONST	ENDS
;	COMDAT ??_C@_0CA@IKMCFIBE@SendOfflineShopEndPacket?5Error?6@
CONST	SEGMENT
??_C@_0CA@IKMCFIBE@SendOfflineShopEndPacket?5Error?6@ DB 'SendOfflineShop'
	DB	'EndPacket Error', 0aH, 00H			; `string'
CONST	ENDS
;	COMDAT ??_C@_0CD@JEDDBPLN@BINARY_DragonSoulRefineWindow_O@
CONST	SEGMENT
??_C@_0CD@JEDDBPLN@BINARY_DragonSoulRefineWindow_O@ DB 'BINARY_DragonSoul'
	DB	'RefineWindow_Open', 00H			; `string'
CONST	ENDS
;	COMDAT ??_C@_0CJ@JCBKPBPN@BINARY_DragonSoulRefineWindow_R@
CONST	SEGMENT
??_C@_0CJ@JCBKPBPN@BINARY_DragonSoulRefineWindow_R@ DB 'BINARY_DragonSoul'
	DB	'RefineWindow_RefineFail', 00H		; `string'
CONST	ENDS
;	COMDAT ??_C@_0BF@HCHHHOJB@yellow_tigerman_24_1@
CONST	SEGMENT
??_C@_0BF@HCHHHOJB@yellow_tigerman_24_1@ DB 'yellow_tigerman_24_1', 00H ; `string'
CONST	ENDS
;	COMDAT ??_C@_0BM@PCGGGFKG@sound?1ambience?1gm_alert?4wav@
CONST	SEGMENT
??_C@_0BM@PCGGGFKG@sound?1ambience?1gm_alert?4wav@ DB 'sound/ambience/gm_'
	DB	'alert.wav', 00H				; `string'
CONST	ENDS
;	COMDAT ??_C@_0BO@MHEMOJBJ@SendQuickSlotSwapPacket?5Error@
CONST	SEGMENT
??_C@_0BO@MHEMOJBJ@SendQuickSlotSwapPacket?5Error@ DB 'SendQuickSlotSwapP'
	DB	'acket Error', 00H				; `string'
CONST	ENDS
;	COMDAT ??_C@_0DL@PLJBBCEI@?$CFd?5?$LE?B?5?$LO?x?$LE?B?5?$LN?$LK?F?d?$LM?H?5?$MA?L?F?e?F?$KO?5?$LJ?x?H?$KD?$MA?T@
CONST	SEGMENT
??_C@_0DL@PLJBBCEI@?$CFd?5?$LE?B?5?$LO?x?$LE?B?5?$LN?$LK?F?d?$LM?H?5?$MA?L?F?e?F?$KO?5?$LJ?x?H?$KD?$MA?T@ DB '%'
	DB	'd ', 0b4H, 0c2H, ' ', 0beH, 0f8H, 0b4H, 0c2H, ' ', 0bdH, 0baH
	DB	0c6H, 0e4H, 0bcH, 0c8H, ' ', 0c0H, 0ccH, 0c6H, 0e5H, 0c6H, 0aeH
	DB	' ', 0b9H, 0f8H, 0c8H, 0a3H, 0c0H, 0d4H, 0b4H, 0cfH, 0b4H, 0d9H
	DB	'.TPacketGCSpecialEffect', 00H		; `string'
CONST	ENDS
;	COMDAT ??_C@_0BN@ONNLHEKF@SendQuickSlotAddPacket?5Error@
CONST	SEGMENT
??_C@_0BN@ONNLHEKF@SendQuickSlotAddPacket?5Error@ DB 'SendQuickSlotAddPac'
	DB	'ket Error', 00H				; `string'
CONST	ENDS
;	COMDAT ??_C@_0BN@BNCAGMGN@SendQuickSlotDelPacket?5Error@
CONST	SEGMENT
??_C@_0BN@BNCAGMGN@SendQuickSlotDelPacket?5Error@ DB 'SendQuickSlotDelPac'
	DB	'ket Error', 00H				; `string'
CONST	ENDS
;	COMDAT ??_C@_0BJ@LGMFALEM@SendItemMovePacket?5Error@
CONST	SEGMENT
??_C@_0BJ@LGMFALEM@SendItemMovePacket?5Error@ DB 'SendItemMovePacket Erro'
	DB	'r', 00H					; `string'
CONST	ENDS
;	COMDAT ??_C@_0BL@DCHNPPOD@SendItemPickUpPacket?5Error@
CONST	SEGMENT
??_C@_0BL@DCHNPPOD@SendItemPickUpPacket?5Error@ DB 'SendItemPickUpPacket '
	DB	'Error', 00H					; `string'
CONST	ENDS
;	COMDAT ??_C@_0BJ@OIBPCJHH@SendItemDropPacket?5Error@
CONST	SEGMENT
??_C@_0BJ@OIBPCJHH@SendItemDropPacket?5Error@ DB 'SendItemDropPacket Erro'
	DB	'r', 00H					; `string'
CONST	ENDS
;	COMDAT ??_C@_0BM@ICMBBAFL@SendItemDestroyPacket?5Error@
CONST	SEGMENT
??_C@_0BM@ICMBBAFL@SendItemDestroyPacket?5Error@ DB 'SendItemDestroyPacke'
	DB	't Error', 00H				; `string'
CONST	ENDS
;	COMDAT ??_C@_0BI@ECNPLDED@SendItemUsePacket?5Error@
CONST	SEGMENT
??_C@_0BI@ECNPLDED@SendItemUsePacket?5Error@ DB 'SendItemUsePacket Error', 00H ; `string'
CONST	ENDS
;	COMDAT ??_C@_0BO@FFKONCIG@SendItemUseToItemPacket?5Error@
CONST	SEGMENT
??_C@_0BO@FFKONCIG@SendItemUseToItemPacket?5Error@ DB 'SendItemUseToItemP'
	DB	'acket Error', 00H				; `string'
CONST	ENDS
;	COMDAT ??_C@_0BL@HGBMODPD@BINARY_AppendNotifyMessage@
CONST	SEGMENT
??_C@_0BL@HGBMODPD@BINARY_AppendNotifyMessage@ DB 'BINARY_AppendNotifyMes'
	DB	'sage', 00H					; `string'
CONST	ENDS
;	COMDAT ??_C@_0BC@GKDHAPBC@CANNOT_EQUIP_SHOP@
CONST	SEGMENT
??_C@_0BC@GKDHAPBC@CANNOT_EQUIP_SHOP@ DB 'CANNOT_EQUIP_SHOP', 00H ; `string'
CONST	ENDS
;	COMDAT ??_C@_0CP@LICKGIJF@?5SendShopSellPacketNew?$CIbySlot?$DN?$CF@
CONST	SEGMENT
??_C@_0CP@LICKGIJF@?5SendShopSellPacketNew?$CIbySlot?$DN?$CF@ DB ' SendSh'
	DB	'opSellPacketNew(bySlot=%d, byCount=%u)', 0aH, 00H ; `string'
CONST	ENDS
;	COMDAT ??_C@_0BG@KBOLGOPL@CANNOT_EQUIP_EXCHANGE@
CONST	SEGMENT
??_C@_0BG@KBOLGOPL@CANNOT_EQUIP_EXCHANGE@ DB 'CANNOT_EQUIP_EXCHANGE', 00H ; `string'
CONST	ENDS
;	COMDAT ??_C@_0BK@NFAAJDME@SendShopSellPacket?5Error?6@
CONST	SEGMENT
??_C@_0BK@NFAAJDME@SendShopSellPacket?5Error?6@ DB 'SendShopSellPacket Er'
	DB	'ror', 0aH, 00H				; `string'
CONST	ENDS
;	COMDAT ??_C@_0BN@PEGCCLIG@SendShopAddSellPacket?5Error?6@
CONST	SEGMENT
??_C@_0BN@PEGCCLIG@SendShopAddSellPacket?5Error?6@ DB 'SendShopAddSellPac'
	DB	'ket Error', 0aH, 00H			; `string'
CONST	ENDS
;	COMDAT ??_C@_0BJ@ENIABNOP@SendShopEndPacket?5Error?6@
CONST	SEGMENT
??_C@_0BJ@ENIABNOP@SendShopEndPacket?5Error?6@ DB 'SendShopEndPacket Erro'
	DB	'r', 0aH, 00H				; `string'
CONST	ENDS
;	COMDAT ??_C@_0BJ@GJICJJME@SendShopBuyPacket?5Error?6@
CONST	SEGMENT
??_C@_0BJ@GJICJJME@SendShopBuyPacket?5Error?6@ DB 'SendShopBuyPacket Erro'
	DB	'r', 0aH, 00H				; `string'
CONST	ENDS
;	COMDAT ??_C@_0DB@JMGJIAKF@?5?$DO?$DO?5CPythonNetworkStream?3?3RecvM@
CONST	SEGMENT
??_C@_0DB@JMGJIAKF@?5?$DO?$DO?5CPythonNetworkStream?3?3RecvM@ DB ' >> CPy'
	DB	'thonNetworkStream::RecvMallItemDelPacket', 0aH, 00H ; `string'
CONST	ENDS
;	COMDAT ??_C@_0BG@ELBKFGDM@BINARY_Highlight_Item@
CONST	SEGMENT
??_C@_0BG@ELBKFGDM@BINARY_Highlight_Item@ DB 'BINARY_Highlight_Item', 00H ; `string'
CONST	ENDS
;	COMDAT ??_C@_0BE@OHCDIKPF@RefreshSafeboxMoney@
CONST	SEGMENT
??_C@_0BE@OHCDIKPF@RefreshSafeboxMoney@ DB 'RefreshSafeboxMoney', 00H ; `string'
CONST	ENDS
;	COMDAT ??_C@_0P@OIFPJOPL@OpenMallWindow@
CONST	SEGMENT
??_C@_0P@OIFPJOPL@OpenMallWindow@ DB 'OpenMallWindow', 00H ; `string'
CONST	ENDS
;	COMDAT ??_C@_0P@BMBKKGBC@OnSafeBoxError@
CONST	SEGMENT
??_C@_0P@BMBKKGBC@OnSafeBoxError@ DB 'OnSafeBoxError', 00H ; `string'
CONST	ENDS
;	COMDAT ??_C@_0BC@GDFDGKCD@OpenSafeboxWindow@
CONST	SEGMENT
??_C@_0BC@GDFDGKCD@OpenSafeboxWindow@ DB 'OpenSafeboxWindow', 00H ; `string'
CONST	ENDS
;	COMDAT ??_C@_1MK@OOIHIAGH@?$AAC?$AA?3?$AA?2?$AAA?$AAn?$AAk?$AAa?$AA2?$AAP?$AAr?$AAo?$AAj?$AAe?$AAc?$AAt@
CONST	SEGMENT
??_C@_1MK@OOIHIAGH@?$AAC?$AA?3?$AA?2?$AAA?$AAn?$AAk?$AAa?$AA2?$AAP?$AAr?$AAo?$AAj?$AAe?$AAc?$AAt@ DB 'C'
	DB	00H, ':', 00H, '\', 00H, 'A', 00H, 'n', 00H, 'k', 00H, 'a', 00H
	DB	'2', 00H, 'P', 00H, 'r', 00H, 'o', 00H, 'j', 00H, 'e', 00H, 'c'
	DB	00H, 't', 00H, '\', 00H, 'A', 00H, 'n', 00H, 'k', 00H, 'a', 00H
	DB	'2', 00H, 'P', 00H, 'r', 00H, 'o', 00H, 'j', 00H, 'e', 00H, 'c'
	DB	00H, 't', 00H, '\', 00H, 'S', 00H, 'o', 00H, 'u', 00H, 'r', 00H
	DB	'c', 00H, 'e', 00H, '\', 00H, 'B', 00H, 'i', 00H, 'n', 00H, 'a'
	DB	00H, 'r', 00H, 'y', 00H, '\', 00H, 's', 00H, 'o', 00H, 'u', 00H
	DB	'r', 00H, 'c', 00H, 'e', 00H, '\', 00H, 'U', 00H, 's', 00H, 'e'
	DB	00H, 'r', 00H, 'I', 00H, 'n', 00H, 't', 00H, 'e', 00H, 'r', 00H
	DB	'f', 00H, 'a', 00H, 'c', 00H, 'e', 00H, '\', 00H, 'P', 00H, 'y'
	DB	00H, 't', 00H, 'h', 00H, 'o', 00H, 'n', 00H, 'N', 00H, 'e', 00H
	DB	't', 00H, 'w', 00H, 'o', 00H, 'r', 00H, 'k', 00H, 'S', 00H, 't'
	DB	00H, 'r', 00H, 'e', 00H, 'a', 00H, 'm', 00H, 'P', 00H, 'h', 00H
	DB	'a', 00H, 's', 00H, 'e', 00H, 'G', 00H, 'a', 00H, 'm', 00H, 'e'
	DB	00H, 'I', 00H, 't', 00H, 'e', 00H, 'm', 00H, '.', 00H, 'c', 00H
	DB	'p', 00H, 'p', 00H, 00H, 00H			; `string'
CONST	ENDS
;	COMDAT ??_C@_1IK@DDJDFHDO@?$AA?$CB?$AA?$CC?$AAC?$AAP?$AAy?$AAt?$AAh?$AAo?$AAn?$AAN?$AAe?$AAt?$AAw?$AAo?$AAr@
CONST	SEGMENT
??_C@_1IK@DDJDFHDO@?$AA?$CB?$AA?$CC?$AAC?$AAP?$AAy?$AAt?$AAh?$AAo?$AAn?$AAN?$AAe?$AAt?$AAw?$AAo?$AAr@ DB '!'
	DB	00H, '"', 00H, 'C', 00H, 'P', 00H, 'y', 00H, 't', 00H, 'h', 00H
	DB	'o', 00H, 'n', 00H, 'N', 00H, 'e', 00H, 't', 00H, 'w', 00H, 'o'
	DB	00H, 'r', 00H, 'k', 00H, 'S', 00H, 't', 00H, 'r', 00H, 'e', 00H
	DB	'a', 00H, 'm', 00H, ':', 00H, ':', 00H, 'S', 00H, 'e', 00H, 'n'
	DB	00H, 'd', 00H, 'S', 00H, 'a', 00H, 'f', 00H, 'e', 00H, 'B', 00H
	DB	'o', 00H, 'x', 00H, 'M', 00H, 'o', 00H, 'n', 00H, 'e', 00H, 'y'
	DB	00H, 'P', 00H, 'a', 00H, 'c', 00H, 'k', 00H, 'e', 00H, 't', 00H
	DB	' ', 00H, '-', 00H, ' ', 00H, 0bbH, 00H, 0e7H, 00H, 0bfH, 00H, 0ebH
	DB	00H, 0c7H, 00H, 0cfH, 00H, 0c1H, 00H, 0f6H, 00H, ' ', 00H, 0beH
	DB	00H, 0caH, 00H, 0b4H, 00H, 0c2H, 00H, ' ', 00H, 0c7H, 00H, 0d4H
	DB	00H, 0bcH, 00H, 0f6H, 00H, '"', 00H, 00H, 00H ; `string'
CONST	ENDS
;	COMDAT ??_C@_0EC@GGOCNHNP@CPythonNetworkStream?3?3SendSafeB@
CONST	SEGMENT
??_C@_0EC@GGOCNHNP@CPythonNetworkStream?3?3SendSafeB@ DB 'CPythonNetworkS'
	DB	'tream::SendSafeBoxMoneyPacket - ', 0bbH, 0e7H, 0bfH, 0ebH, 0c7H
	DB	0cfH, 0c1H, 0f6H, ' ', 0beH, 0caH, 0b4H, 0c2H, ' ', 0c7H, 0d4H
	DB	0bcH, 0f6H, 00H				; `string'
PUBLIC	?Instance@?$CSingleton@VCPythonSafeBox@@@@SAAAVCPythonSafeBox@@XZ ; CSingleton<CPythonSafeBox>::Instance
PUBLIC	??0command_item_new_attribute@@QAE@XZ		; command_item_new_attribute::command_item_new_attribute
PUBLIC	?SendOfflineShopChangeDecoration@CPythonNetworkStream@@QAE_NPBDKK@Z ; CPythonNetworkStream::SendOfflineShopChangeDecoration
PUBLIC	??0SOfflineShopAddItem@@QAE@XZ			; SOfflineShopAddItem::SOfflineShopAddItem
PUBLIC	?SendQuickSlotMovePacket@CPythonNetworkStream@@QAE_NEE@Z ; CPythonNetworkStream::SendQuickSlotMovePacket
PUBLIC	?SendQuickSlotDelPacket@CPythonNetworkStream@@QAE_NE@Z ; CPythonNetworkStream::SendQuickSlotDelPacket
PUBLIC	?SendQuickSlotAddPacket@CPythonNetworkStream@@QAE_NEEE@Z ; CPythonNetworkStream::SendQuickSlotAddPacket
PUBLIC	?SendItemsPickUpPacket@CPythonNetworkStream@@QAE_NV?$vector@KV?$allocator@K@std@@@std@@@Z ; CPythonNetworkStream::SendItemsPickUpPacket
PUBLIC	?__PlayMallItemDropSound@CPythonNetworkStream@@IAEXI@Z ; CPythonNetworkStream::__PlayMallItemDropSound
PUBLIC	?__PlaySafeBoxItemDropSound@CPythonNetworkStream@@IAEXI@Z ; CPythonNetworkStream::__PlaySafeBoxItemDropSound
PUBLIC	?__PlayInventoryItemUseSound@CPythonNetworkStream@@IAEXUSItemPos@@@Z ; CPythonNetworkStream::__PlayInventoryItemUseSound
PUBLIC	?__IsEquipItemInSlot@CPythonNetworkStream@@IAE_NUSItemPos@@@Z ; CPythonNetworkStream::__IsEquipItemInSlot
PUBLIC	??0command_item_sell@@QAE@XZ			; command_item_sell::command_item_sell
PUBLIC	??0command_item_destroy@@QAE@XZ			; command_item_destroy::command_item_destroy
PUBLIC	??0command_item_drop2@@QAE@XZ			; command_item_drop2::command_item_drop2
PUBLIC	??0command_item_drop@@QAE@XZ			; command_item_drop::command_item_drop
PUBLIC	??0command_item_use_to_item@@QAE@XZ		; command_item_use_to_item::command_item_use_to_item
PUBLIC	??0command_item_use@@QAE@XZ			; command_item_use::command_item_use
PUBLIC	??0packet_update_item@@QAE@XZ			; packet_update_item::packet_update_item
PUBLIC	??0packet_use_item@@QAE@XZ			; packet_use_item::packet_use_item
PUBLIC	??0packet_set_item@@QAE@XZ			; packet_set_item::packet_set_item
PUBLIC	??0command_mall_checkout@@QAE@XZ		; command_mall_checkout::command_mall_checkout
PUBLIC	??0packet_set_item2@@QAE@XZ			; packet_set_item2::packet_set_item2
PUBLIC	??0command_item_move@@QAE@XZ			; command_item_move::command_item_move
PUBLIC	??0command_safebox_checkout@@QAE@XZ		; command_safebox_checkout::command_safebox_checkout
PUBLIC	??0command_safebox_checkin@@QAE@XZ		; command_safebox_checkin::command_safebox_checkin
PUBLIC	??0SPacketGCDragonSoulRefine@@QAE@XZ		; SPacketGCDragonSoulRefine::SPacketGCDragonSoulRefine
PUBLIC	?RecvItemSetPacket@CPythonNetworkStream@@IAE_NXZ ; CPythonNetworkStream::RecvItemSetPacket
PUBLIC	?RecvItemSetPacket2@CPythonNetworkStream@@IAE_NXZ ; CPythonNetworkStream::RecvItemSetPacket2
PUBLIC	?RecvItemUsePacket@CPythonNetworkStream@@IAE_NXZ ; CPythonNetworkStream::RecvItemUsePacket
PUBLIC	?RecvItemUpdatePacket@CPythonNetworkStream@@IAE_NXZ ; CPythonNetworkStream::RecvItemUpdatePacket
PUBLIC	?RecvItemGroundAddPacket@CPythonNetworkStream@@IAE_NXZ ; CPythonNetworkStream::RecvItemGroundAddPacket
PUBLIC	?RecvItemGroundDelPacket@CPythonNetworkStream@@IAE_NXZ ; CPythonNetworkStream::RecvItemGroundDelPacket
PUBLIC	?RecvItemOwnership@CPythonNetworkStream@@IAE_NXZ ; CPythonNetworkStream::RecvItemOwnership
PUBLIC	?RecvQuickSlotAddPacket@CPythonNetworkStream@@IAE_NXZ ; CPythonNetworkStream::RecvQuickSlotAddPacket
PUBLIC	?RecvQuickSlotDelPacket@CPythonNetworkStream@@IAE_NXZ ; CPythonNetworkStream::RecvQuickSlotDelPacket
PUBLIC	?RecvQuickSlotMovePacket@CPythonNetworkStream@@IAE_NXZ ; CPythonNetworkStream::RecvQuickSlotMovePacket
PUBLIC	?RecvSafeBoxSetPacket@CPythonNetworkStream@@IAE_NXZ ; CPythonNetworkStream::RecvSafeBoxSetPacket
PUBLIC	?RecvSafeBoxDelPacket@CPythonNetworkStream@@IAE_NXZ ; CPythonNetworkStream::RecvSafeBoxDelPacket
PUBLIC	?RecvSafeBoxWrongPasswordPacket@CPythonNetworkStream@@IAE_NXZ ; CPythonNetworkStream::RecvSafeBoxWrongPasswordPacket
PUBLIC	?RecvSafeBoxSizePacket@CPythonNetworkStream@@IAE_NXZ ; CPythonNetworkStream::RecvSafeBoxSizePacket
PUBLIC	?RecvSafeBoxMoneyChangePacket@CPythonNetworkStream@@IAE_NXZ ; CPythonNetworkStream::RecvSafeBoxMoneyChangePacket
PUBLIC	?RecvSpecialEffect@CPythonNetworkStream@@IAE_NXZ ; CPythonNetworkStream::RecvSpecialEffect
PUBLIC	?RecvMallOpenPacket@CPythonNetworkStream@@QAE_NXZ ; CPythonNetworkStream::RecvMallOpenPacket
PUBLIC	?RecvMallItemSetPacket@CPythonNetworkStream@@QAE_NXZ ; CPythonNetworkStream::RecvMallItemSetPacket
PUBLIC	?RecvMallItemDelPacket@CPythonNetworkStream@@QAE_NXZ ; CPythonNetworkStream::RecvMallItemDelPacket
PUBLIC	?RecvSpecificEffect@CPythonNetworkStream@@IAE_NXZ ; CPythonNetworkStream::RecvSpecificEffect
PUBLIC	?RecvDragonSoulRefine@CPythonNetworkStream@@IAE_NXZ ; CPythonNetworkStream::RecvDragonSoulRefine
PUBLIC	?__PlayInventoryItemDropSound@CPythonNetworkStream@@IAEXUSItemPos@@@Z ; CPythonNetworkStream::__PlayInventoryItemDropSound
PUBLIC	?SendItemUsePacket@CPythonNetworkStream@@QAE_NUSItemPos@@@Z ; CPythonNetworkStream::SendItemUsePacket
PUBLIC	?SendItemUseToItemPacket@CPythonNetworkStream@@QAE_NUSItemPos@@0@Z ; CPythonNetworkStream::SendItemUseToItemPacket
PUBLIC	?SendItemDropPacket@CPythonNetworkStream@@QAE_NUSItemPos@@K@Z ; CPythonNetworkStream::SendItemDropPacket
PUBLIC	?SendItemDropPacketNew@CPythonNetworkStream@@QAE_NUSItemPos@@KK@Z ; CPythonNetworkStream::SendItemDropPacketNew
PUBLIC	?SendItemMovePacket@CPythonNetworkStream@@QAE_NUSItemPos@@0G@Z ; CPythonNetworkStream::SendItemMovePacket
PUBLIC	?SendItemPickUpPacket@CPythonNetworkStream@@QAE_NK@Z ; CPythonNetworkStream::SendItemPickUpPacket
PUBLIC	?SendShopEndPacket@CPythonNetworkStream@@QAE_NXZ ; CPythonNetworkStream::SendShopEndPacket
PUBLIC	?SendShopBuyPacket@CPythonNetworkStream@@QAE_NE@Z ; CPythonNetworkStream::SendShopBuyPacket
PUBLIC	?SendShopSellPacket@CPythonNetworkStream@@QAE_NE@Z ; CPythonNetworkStream::SendShopSellPacket
PUBLIC	?SendShopSellPacketNew@CPythonNetworkStream@@QAE_NEG@Z ; CPythonNetworkStream::SendShopSellPacketNew
PUBLIC	?SendSafeBoxMoneyPacket@CPythonNetworkStream@@QAE_NEK@Z ; CPythonNetworkStream::SendSafeBoxMoneyPacket
PUBLIC	?SendSafeBoxCheckinPacket@CPythonNetworkStream@@QAE_NUSItemPos@@K@Z ; CPythonNetworkStream::SendSafeBoxCheckinPacket
PUBLIC	?SendSafeBoxCheckoutPacket@CPythonNetworkStream@@QAE_NKUSItemPos@@@Z ; CPythonNetworkStream::SendSafeBoxCheckoutPacket
PUBLIC	?SendSafeBoxItemMovePacket@CPythonNetworkStream@@QAE_NKKG@Z ; CPythonNetworkStream::SendSafeBoxItemMovePacket
PUBLIC	?SendMallCheckoutPacket@CPythonNetworkStream@@QAE_NKUSItemPos@@@Z ; CPythonNetworkStream::SendMallCheckoutPacket
PUBLIC	?SendItemNewAttributePacket@CPythonNetworkStream@@QAE_NUSItemPos@@0PAE@Z ; CPythonNetworkStream::SendItemNewAttributePacket
PUBLIC	?SendItemDestroyPacket@CPythonNetworkStream@@QAE_NUSItemPos@@KG@Z ; CPythonNetworkStream::SendItemDestroyPacket
PUBLIC	?SendItemSellPacket@CPythonNetworkStream@@QAE_NUSItemPos@@K@Z ; CPythonNetworkStream::SendItemSellPacket
PUBLIC	?SendOfflineShopEndPacket@CPythonNetworkStream@@QAE_NXZ ; CPythonNetworkStream::SendOfflineShopEndPacket
PUBLIC	?SendOfflineShopBuyPacket@CPythonNetworkStream@@QAE_NKE@Z ; CPythonNetworkStream::SendOfflineShopBuyPacket
PUBLIC	?SendAddOfflineShopItem@CPythonNetworkStream@@QAE_NUSItemPos@@E_J@Z ; CPythonNetworkStream::SendAddOfflineShopItem
PUBLIC	?SendRemoveOfflineShopItem@CPythonNetworkStream@@QAE_NE@Z ; CPythonNetworkStream::SendRemoveOfflineShopItem
PUBLIC	?SendDestroyOfflineShop@CPythonNetworkStream@@QAE_NXZ ; CPythonNetworkStream::SendDestroyOfflineShop
PUBLIC	?SendTakeOfflineMoney@CPythonNetworkStream@@QAE_NXZ ; CPythonNetworkStream::SendTakeOfflineMoney
PUBLIC	?SendOfflineShopChangeTitle@CPythonNetworkStream@@QAE_NPBD@Z ; CPythonNetworkStream::SendOfflineShopChangeTitle
PUBLIC	?SendOfflineShopCheck@CPythonNetworkStream@@QAE_NXZ ; CPythonNetworkStream::SendOfflineShopCheck
PUBLIC	?SendOfflineShopButton@CPythonNetworkStream@@QAE_NXZ ; CPythonNetworkStream::SendOfflineShopButton
PUBLIC	?SendOfflineShopRemoveLogs@CPythonNetworkStream@@QAE_NXZ ; CPythonNetworkStream::SendOfflineShopRemoveLogs
PUBLIC	?SendOpenShopSlot@CPythonNetworkStream@@QAE_NE@Z ; CPythonNetworkStream::SendOpenShopSlot
PUBLIC	?SendGetBackItems@CPythonNetworkStream@@QAE_NXZ	; CPythonNetworkStream::SendGetBackItems
PUBLIC	?SendAddTime@CPythonNetworkStream@@QAE_NXZ	; CPythonNetworkStream::SendAddTime
PUBLIC	?SendOfflineOpenWithVID@CPythonNetworkStream@@QAE_NK@Z ; CPythonNetworkStream::SendOfflineOpenWithVID
;	COMDAT ?$TSS0@?1??SendTakeOfflineMoney@CPythonNetworkStream@@QAE_NXZ@4HA
_BSS	SEGMENT
?$TSS0@?1??SendTakeOfflineMoney@CPythonNetworkStream@@QAE_NXZ@4HA DD 01H DUP (?) ; `CPythonNetworkStream::SendTakeOfflineMoney'::`2'::$TSS0
_BSS	ENDS
;	COMDAT ?s_LastTime@?1??SendTakeOfflineMoney@CPythonNetworkStream@@QAE_NXZ@4KA
_BSS	SEGMENT
?s_LastTime@?1??SendTakeOfflineMoney@CPythonNetworkStream@@QAE_NXZ@4KA DD 01H DUP (?) ; `CPythonNetworkStream::SendTakeOfflineMoney'::`2'::s_LastTime
_BSS	ENDS
;	COMDAT xdata$x
xdata$x	SEGMENT
__ehfuncinfo$?SendItemsPickUpPacket@CPythonNetworkStream@@QAE_NV?$vector@KV?$allocator@K@std@@@std@@@Z DQ 00000000119930522r ; 2.33398e-314
	DD	FLAT:__unwindtable$?SendItemsPickUpPacket@CPythonNetworkStream@@QAE_NV?$vector@KV?$allocator@K@std@@@std@@@Z
	DQ	00000000000000000r		; 0
	DQ	00000000000000000r		; 0
	DQ	00000000100000000r		; 2.122e-314
__unwindtable$?SendItemsPickUpPacket@CPythonNetworkStream@@QAE_NV?$vector@KV?$allocator@K@std@@@std@@@Z DD 0ffffffffH
	DD	FLAT:__unwindfunclet$?SendItemsPickUpPacket@CPythonNetworkStream@@QAE_NV?$vector@KV?$allocator@K@std@@@std@@@Z$0
; Function compile flags: /Ogtp
; File C:\Anka2Project\Anka2Project\Source\Binary\source\UserInterface\PythonNetworkStreamPhaseGameItem.cpp
;	COMDAT ?SendTakeOfflineMoney@CPythonNetworkStream@@QAE_NXZ
_TEXT	SEGMENT
_PacketShop$ = -64					; size = 59
__$ArrayPad$ = -4					; size = 4
?SendTakeOfflineMoney@CPythonNetworkStream@@QAE_NXZ PROC ; CPythonNetworkStream::SendTakeOfflineMoney, COMDAT
; _this$ = ecx

; 1335 : {

  00000	55		 push	 ebp
  00001	8b ec		 mov	 ebp, esp
  00003	83 ec 40	 sub	 esp, 64			; 00000040H
  00006	a1 00 00 00 00	 mov	 eax, DWORD PTR ___security_cookie
  0000b	33 c5		 xor	 eax, ebp
  0000d	89 45 fc	 mov	 DWORD PTR __$ArrayPad$[ebp], eax

; 1336 : 	static DWORD s_LastTime = timeGetTime() - 5001;

  00010	64 a1 00 00 00
	00		 mov	 eax, DWORD PTR fs:__tls_array
  00016	56		 push	 esi
  00017	8b 35 00 00 00
	00		 mov	 esi, DWORD PTR __imp__timeGetTime@0
  0001d	57		 push	 edi
  0001e	8b f9		 mov	 edi, ecx
  00020	8b 08		 mov	 ecx, DWORD PTR [eax]
  00022	a1 00 00 00 00	 mov	 eax, DWORD PTR ?$TSS0@?1??SendTakeOfflineMoney@CPythonNetworkStream@@QAE_NXZ@4HA
  00027	3b 81 00 00 00
	00		 cmp	 eax, DWORD PTR __Init_thread_epoch[ecx]
  0002d	7e 2f		 jle	 SHORT $LN2@SendTakeOf
  0002f	68 00 00 00 00	 push	 OFFSET ?$TSS0@?1??SendTakeOfflineMoney@CPythonNetworkStream@@QAE_NXZ@4HA
  00034	e8 00 00 00 00	 call	 __Init_thread_header
  00039	83 c4 04	 add	 esp, 4
  0003c	83 3d 00 00 00
	00 ff		 cmp	 DWORD PTR ?$TSS0@?1??SendTakeOfflineMoney@CPythonNetworkStream@@QAE_NXZ@4HA, -1
  00043	75 19		 jne	 SHORT $LN2@SendTakeOf
  00045	ff d6		 call	 esi
  00047	2d 89 13 00 00	 sub	 eax, 5001		; 00001389H
  0004c	68 00 00 00 00	 push	 OFFSET ?$TSS0@?1??SendTakeOfflineMoney@CPythonNetworkStream@@QAE_NXZ@4HA
  00051	a3 00 00 00 00	 mov	 DWORD PTR ?s_LastTime@?1??SendTakeOfflineMoney@CPythonNetworkStream@@QAE_NXZ@4KA, eax
  00056	e8 00 00 00 00	 call	 __Init_thread_footer
  0005b	83 c4 04	 add	 esp, 4
$LN2@SendTakeOf:

; 1337 : 	if (timeGetTime() - s_LastTime < 5000)

  0005e	ff d6		 call	 esi
  00060	2b 05 00 00 00
	00		 sub	 eax, DWORD PTR ?s_LastTime@?1??SendTakeOfflineMoney@CPythonNetworkStream@@QAE_NXZ@4KA
  00066	3d 88 13 00 00	 cmp	 eax, 5000		; 00001388H
  0006b	73 12		 jae	 SHORT $LN3@SendTakeOf

; 1338 : 		return true;

  0006d	5f		 pop	 edi
  0006e	b0 01		 mov	 al, 1

; 1351 : }

  00070	5e		 pop	 esi
  00071	8b 4d fc	 mov	 ecx, DWORD PTR __$ArrayPad$[ebp]
  00074	33 cd		 xor	 ecx, ebp
  00076	e8 00 00 00 00	 call	 @__security_check_cookie@4
  0007b	8b e5		 mov	 esp, ebp
  0007d	5d		 pop	 ebp
  0007e	c3		 ret	 0
$LN3@SendTakeOf:

; 1339 : 
; 1340 : 	s_LastTime = timeGetTime();

  0007f	ff d6		 call	 esi
  00081	a3 00 00 00 00	 mov	 DWORD PTR ?s_LastTime@?1??SendTakeOfflineMoney@CPythonNetworkStream@@QAE_NXZ@4KA, eax

; 1341 : 	TPacketCGShop PacketShop;
; 1342 : 	PacketShop.header = HEADER_CG_OFFLINE_SHOP;
; 1343 : 	PacketShop.subheader = SHOP_SUBHEADER_CG_TAKE_MONEY;
; 1344 : 
; 1345 : 	if (!Send(sizeof(TPacketCGShop), &PacketShop))

  00086	8b cf		 mov	 ecx, edi
  00088	b8 0a 00 00 00	 mov	 eax, 10			; 0000000aH
  0008d	c6 45 c0 39	 mov	 BYTE PTR _PacketShop$[ebp], 57 ; 00000039H
  00091	66 89 45 c1	 mov	 WORD PTR _PacketShop$[ebp+1], ax
  00095	8d 45 c0	 lea	 eax, DWORD PTR _PacketShop$[ebp]
  00098	50		 push	 eax
  00099	6a 3b		 push	 59			; 0000003bH
  0009b	e8 00 00 00 00	 call	 ?Send@CNetworkStream@@QAE_NHPBX@Z ; CNetworkStream::Send
  000a0	84 c0		 test	 al, al
  000a2	75 1f		 jne	 SHORT $LN4@SendTakeOf

; 1346 : 	{
; 1347 : 		Tracef("SendRefreshOfflineShopMoney Packet Error\n");

  000a4	68 00 00 00 00	 push	 OFFSET ??_C@_0CK@KGEOCJID@SendRefreshOfflineShopMoney?5Pac@
  000a9	e8 00 00 00 00	 call	 ?Tracef@@YAXPBDZZ	; Tracef
  000ae	83 c4 04	 add	 esp, 4

; 1348 : 		return false;

  000b1	32 c0		 xor	 al, al
  000b3	5f		 pop	 edi

; 1351 : }

  000b4	5e		 pop	 esi
  000b5	8b 4d fc	 mov	 ecx, DWORD PTR __$ArrayPad$[ebp]
  000b8	33 cd		 xor	 ecx, ebp
  000ba	e8 00 00 00 00	 call	 @__security_check_cookie@4
  000bf	8b e5		 mov	 esp, ebp
  000c1	5d		 pop	 ebp
  000c2	c3		 ret	 0
$LN4@SendTakeOf:

; 1349 : 	}
; 1350 : 	return SendSequence();

  000c3	8b cf		 mov	 ecx, edi
  000c5	e8 00 00 00 00	 call	 ?SendSequence@CNetworkStream@@QAE_NXZ ; CNetworkStream::SendSequence

; 1351 : }

  000ca	8b 4d fc	 mov	 ecx, DWORD PTR __$ArrayPad$[ebp]
  000cd	5f		 pop	 edi
  000ce	33 cd		 xor	 ecx, ebp
  000d0	5e		 pop	 esi
  000d1	e8 00 00 00 00	 call	 @__security_check_cookie@4
  000d6	8b e5		 mov	 esp, ebp
  000d8	5d		 pop	 ebp
  000d9	c3		 ret	 0
?SendTakeOfflineMoney@CPythonNetworkStream@@QAE_NXZ ENDP ; CPythonNetworkStream::SendTakeOfflineMoney
_TEXT	ENDS
; Function compile flags: /Ogtp
; File C:\Anka2Project\Anka2Project\Source\Binary\source\UserInterface\PythonNetworkStreamPhaseGameItem.cpp
;	COMDAT ?SendItemNewAttributePacket@CPythonNetworkStream@@QAE_NUSItemPos@@0PAE@Z
_TEXT	SEGMENT
_itemNewAttributePacket$ = -16				; size = 12
__$ArrayPad$ = -4					; size = 4
_source_pos$ = 8					; size = 3
_target_pos$ = 12					; size = 3
_bValues$ = 16						; size = 4
?SendItemNewAttributePacket@CPythonNetworkStream@@QAE_NUSItemPos@@0PAE@Z PROC ; CPythonNetworkStream::SendItemNewAttributePacket, COMDAT
; _this$ = ecx

; 1459 : {

  00000	55		 push	 ebp
  00001	8b ec		 mov	 ebp, esp
  00003	83 ec 10	 sub	 esp, 16			; 00000010H
  00006	a1 00 00 00 00	 mov	 eax, DWORD PTR ___security_cookie
  0000b	33 c5		 xor	 eax, ebp
  0000d	89 45 fc	 mov	 DWORD PTR __$ArrayPad$[ebp], eax
  00010	56		 push	 esi
  00011	8b f1		 mov	 esi, ecx

; 1460 : 	if (!__CanActMainInstance())

  00013	e8 00 00 00 00	 call	 ?__CanActMainInstance@CPythonNetworkStream@@IAE_NXZ ; CPythonNetworkStream::__CanActMainInstance
  00018	84 c0		 test	 al, al
  0001a	74 71		 je	 SHORT $LN3@SendItemNe

; 1461 : 		return true;
; 1462 : 	TPacketCGItemNewAttribute itemNewAttributePacket;
; 1463 : 	itemNewAttributePacket.header = HEADER_CG_ITEM_USE_NEW_ATTRIBUTE;
; 1464 : 	itemNewAttributePacket.source_pos = source_pos;

  0001c	66 8b 45 08	 mov	 ax, WORD PTR _source_pos$[ebp]

; 1465 : 	itemNewAttributePacket.target_pos = target_pos;
; 1466 : 	itemNewAttributePacket.bValues[0] = bValues[0];
; 1467 : 	itemNewAttributePacket.bValues[1] = bValues[1];
; 1468 : 	itemNewAttributePacket.bValues[2] = bValues[2];
; 1469 : 	itemNewAttributePacket.bValues[3] = bValues[3];
; 1470 : 	itemNewAttributePacket.bValues[4] = bValues[4];
; 1471 : 	if (!Send(sizeof(TPacketCGItemNewAttribute), &itemNewAttributePacket))

  00020	8b ce		 mov	 ecx, esi
  00022	8b 55 10	 mov	 edx, DWORD PTR _bValues$[ebp]
  00025	66 89 45 f1	 mov	 WORD PTR _itemNewAttributePacket$[ebp+1], ax
  00029	8a 45 0a	 mov	 al, BYTE PTR _source_pos$[ebp+2]
  0002c	88 45 f3	 mov	 BYTE PTR _itemNewAttributePacket$[ebp+3], al
  0002f	66 8b 45 0c	 mov	 ax, WORD PTR _target_pos$[ebp]
  00033	66 89 45 f4	 mov	 WORD PTR _itemNewAttributePacket$[ebp+4], ax
  00037	8a 45 0e	 mov	 al, BYTE PTR _target_pos$[ebp+2]
  0003a	88 45 f6	 mov	 BYTE PTR _itemNewAttributePacket$[ebp+6], al
  0003d	8a 02		 mov	 al, BYTE PTR [edx]
  0003f	88 45 f7	 mov	 BYTE PTR _itemNewAttributePacket$[ebp+7], al
  00042	8a 42 01	 mov	 al, BYTE PTR [edx+1]
  00045	88 45 f8	 mov	 BYTE PTR _itemNewAttributePacket$[ebp+8], al
  00048	8a 42 02	 mov	 al, BYTE PTR [edx+2]
  0004b	88 45 f9	 mov	 BYTE PTR _itemNewAttributePacket$[ebp+9], al
  0004e	8a 42 03	 mov	 al, BYTE PTR [edx+3]
  00051	88 45 fa	 mov	 BYTE PTR _itemNewAttributePacket$[ebp+10], al
  00054	8a 42 04	 mov	 al, BYTE PTR [edx+4]
  00057	88 45 fb	 mov	 BYTE PTR _itemNewAttributePacket$[ebp+11], al
  0005a	8d 45 f0	 lea	 eax, DWORD PTR _itemNewAttributePacket$[ebp]
  0005d	50		 push	 eax
  0005e	6a 0c		 push	 12			; 0000000cH
  00060	c6 45 f0 73	 mov	 BYTE PTR _itemNewAttributePacket$[ebp], 115 ; 00000073H
  00064	e8 00 00 00 00	 call	 ?Send@CNetworkStream@@QAE_NHPBX@Z ; CNetworkStream::Send
  00069	84 c0		 test	 al, al
  0006b	75 20		 jne	 SHORT $LN3@SendItemNe

; 1472 : 	{
; 1473 : 		Tracen("SendItemNewAttributePacket Error");

  0006d	68 00 00 00 00	 push	 OFFSET ??_C@_0CB@NABGIOIB@SendItemNewAttributePacket?5Erro@
  00072	e8 00 00 00 00	 call	 ?Tracen@@YAXPBD@Z	; Tracen
  00077	83 c4 04	 add	 esp, 4

; 1474 : 		return false;

  0007a	32 c0		 xor	 al, al
  0007c	5e		 pop	 esi

; 1475 : 	}
; 1476 : 	return true;
; 1477 : }

  0007d	8b 4d fc	 mov	 ecx, DWORD PTR __$ArrayPad$[ebp]
  00080	33 cd		 xor	 ecx, ebp
  00082	e8 00 00 00 00	 call	 @__security_check_cookie@4
  00087	8b e5		 mov	 esp, ebp
  00089	5d		 pop	 ebp
  0008a	c2 0c 00	 ret	 12			; 0000000cH
$LN3@SendItemNe:
  0008d	8b 4d fc	 mov	 ecx, DWORD PTR __$ArrayPad$[ebp]
  00090	b0 01		 mov	 al, 1
  00092	33 cd		 xor	 ecx, ebp
  00094	5e		 pop	 esi
  00095	e8 00 00 00 00	 call	 @__security_check_cookie@4
  0009a	8b e5		 mov	 esp, ebp
  0009c	5d		 pop	 ebp
  0009d	c2 0c 00	 ret	 12			; 0000000cH
?SendItemNewAttributePacket@CPythonNetworkStream@@QAE_NUSItemPos@@0PAE@Z ENDP ; CPythonNetworkStream::SendItemNewAttributePacket
_TEXT	ENDS
; Function compile flags: /Ogtp
; File C:\Anka2Project\Anka2Project\Source\Binary\source\UserInterface\PythonNetworkStreamPhaseGameItem.cpp
; File C:\Anka2Project\Anka2Project\Source\Binary\source\eterBase\Singleton.h
; File C:\Anka2Project\Anka2Project\Source\Binary\source\UserInterface\PythonNetworkStreamPhaseGameItem.cpp
; File C:\Anka2Project\Anka2Project\Source\Binary\source\UserInterface\GameType.h
; File C:\Anka2Project\Anka2Project\Source\Binary\source\UserInterface\PythonNetworkStreamPhaseGameItem.cpp
; File C:\Anka2Project\Anka2Project\Source\Binary\source\eterBase\Singleton.h
; File C:\Anka2Project\Anka2Project\Source\Binary\source\UserInterface\PythonNetworkStreamPhaseGameItem.cpp
; File C:\Anka2Project\Anka2Project\Source\Binary\source\UserInterface\GameType.h
; File C:\Anka2Project\Anka2Project\Source\Binary\source\UserInterface\PythonNetworkStreamPhaseGameItem.cpp
;	COMDAT ?SendItemMovePacket@CPythonNetworkStream@@QAE_NUSItemPos@@0G@Z
_TEXT	SEGMENT
_itemMovePacket$ = -12					; size = 9
_pos$ = 8						; size = 3
_change_pos$ = 12					; size = 3
_num$ = 16						; size = 2
?SendItemMovePacket@CPythonNetworkStream@@QAE_NUSItemPos@@0G@Z PROC ; CPythonNetworkStream::SendItemMovePacket, COMDAT
; _this$ = ecx

; 778  : {	

  00000	55		 push	 ebp
  00001	8b ec		 mov	 ebp, esp
  00003	83 ec 0c	 sub	 esp, 12			; 0000000cH
  00006	53		 push	 ebx
  00007	56		 push	 esi
  00008	57		 push	 edi
  00009	8b f9		 mov	 edi, ecx

; 779  : 	if (!__CanActMainInstance())

  0000b	e8 00 00 00 00	 call	 ?__CanActMainInstance@CPythonNetworkStream@@IAE_NXZ ; CPythonNetworkStream::__CanActMainInstance
  00010	84 c0		 test	 al, al
  00012	0f 84 bb 00 00
	00		 je	 $LN71@SendItemMo

; 780  : 		return true;
; 781  : 	
; 782  : 	if (__IsEquipItemInSlot(pos))

  00018	66 8b 45 08	 mov	 ax, WORD PTR _pos$[ebp]
  0001c	51		 push	 ecx
  0001d	8b d4		 mov	 edx, esp
  0001f	66 89 02	 mov	 WORD PTR [edx], ax
  00022	8a 45 0a	 mov	 al, BYTE PTR _pos$[ebp+2]
  00025	88 42 02	 mov	 BYTE PTR [edx+2], al
  00028	e8 00 00 00 00	 call	 ?__IsEquipItemInSlot@CPythonNetworkStream@@IAE_NUSItemPos@@@Z ; CPythonNetworkStream::__IsEquipItemInSlot
  0002d	84 c0		 test	 al, al
  0002f	0f 84 3b 01 00
	00		 je	 $LN10@SendItemMo
; File C:\Anka2Project\Anka2Project\Source\Binary\source\eterBase\Singleton.h

; 26   : 		assert(ms_singleton);

  00035	8b 0d 00 00 00
	00		 mov	 ecx, DWORD PTR ?ms_singleton@?$CSingleton@VCPythonExchange@@@@0PAVCPythonExchange@@A ; CSingleton<CPythonExchange>::ms_singleton
  0003b	85 c9		 test	 ecx, ecx
  0003d	75 1a		 jne	 SHORT $LN15@SendItemMo
  0003f	6a 1a		 push	 26			; 0000001aH
  00041	68 00 00 00 00	 push	 OFFSET ??_C@_1IO@CAJLEEOI@?$AAC?$AA?3?$AA?2?$AAA?$AAn?$AAk?$AAa?$AA2?$AAP?$AAr?$AAo?$AAj?$AAe?$AAc?$AAt@
  00046	68 00 00 00 00	 push	 OFFSET ??_C@_1BK@FMEHPMFE@?$AAm?$AAs?$AA_?$AAs?$AAi?$AAn?$AAg?$AAl?$AAe?$AAt?$AAo?$AAn@
  0004b	e8 00 00 00 00	 call	 __wassert
  00050	8b 0d 00 00 00
	00		 mov	 ecx, DWORD PTR ?ms_singleton@?$CSingleton@VCPythonExchange@@@@0PAVCPythonExchange@@A ; CSingleton<CPythonExchange>::ms_singleton
  00056	83 c4 0c	 add	 esp, 12			; 0000000cH
$LN15@SendItemMo:
; File C:\Anka2Project\Anka2Project\Source\Binary\source\UserInterface\PythonNetworkStreamPhaseGameItem.cpp

; 784  : 		if (CPythonExchange::Instance().isTrading())

  00059	e8 00 00 00 00	 call	 ?isTrading@CPythonExchange@@QAE_NXZ ; CPythonExchange::isTrading
  0005e	66 8b 55 0d	 mov	 dx, WORD PTR _change_pos$[ebp+1]
  00062	b9 b4 00 00 00	 mov	 ecx, 180		; 000000b4H
  00067	66 8b 75 09	 mov	 si, WORD PTR _pos$[ebp+1]
  0006b	66 8b 5d 08	 mov	 bx, WORD PTR _pos$[ebp]
  0006f	84 c0		 test	 al, al
  00071	74 6b		 je	 SHORT $LN5@SendItemMo
; File C:\Anka2Project\Anka2Project\Source\Binary\source\UserInterface\GameType.h

; 485  : 		switch (window_type)

  00073	0f b6 c3	 movzx	 eax, bl
  00076	48		 dec	 eax
  00077	83 f8 05	 cmp	 eax, 5
  0007a	77 13		 ja	 SHORT $LN21@SendItemMo
  0007c	ff 24 85 00 00
	00 00		 jmp	 DWORD PTR $LN73@SendItemMo[eax*4]
$LN19@SendItemMo:

; 486  : 		{
; 487  : 			case INVENTORY:
; 488  : 			case EQUIPMENT:
; 489  : 				return (c_Equipment_Start + c_Wear_Max > cell) && (c_Equipment_Start <= cell);

  00083	66 8b c6	 mov	 ax, si
  00086	66 2b c1	 sub	 ax, cx
  00089	66 83 f8 3f	 cmp	 ax, 63			; 0000003fH
  0008d	76 20		 jbe	 SHORT $LN6@SendItemMo
$LN21@SendItemMo:

; 485  : 		switch (window_type)

  0008f	66 8b 45 0c	 mov	 ax, WORD PTR _change_pos$[ebp]
  00093	0f b6 c0	 movzx	 eax, al
  00096	48		 dec	 eax
  00097	83 f8 05	 cmp	 eax, 5
  0009a	77 42		 ja	 SHORT $LN5@SendItemMo
  0009c	ff 24 85 00 00
	00 00		 jmp	 DWORD PTR $LN74@SendItemMo[eax*4]
$LN30@SendItemMo:

; 486  : 		{
; 487  : 			case INVENTORY:
; 488  : 			case EQUIPMENT:
; 489  : 				return (c_Equipment_Start + c_Wear_Max > cell) && (c_Equipment_Start <= cell);

  000a3	66 8b c2	 mov	 ax, dx
  000a6	66 2b c1	 sub	 ax, cx
  000a9	66 83 f8 3f	 cmp	 ax, 63			; 0000003fH
  000ad	77 2f		 ja	 SHORT $LN5@SendItemMo
$LN6@SendItemMo:
; File C:\Anka2Project\Anka2Project\Source\Binary\source\UserInterface\PythonNetworkStreamPhaseGameItem.cpp

; 788  : 				PyCallClassMemberFunc(m_apoPhaseWnd[PHASE_WINDOW_GAME], "BINARY_AppendNotifyMessage", Py_BuildValue("(s)", "CANNOT_EQUIP_EXCHANGE"));

  000af	68 00 00 00 00	 push	 OFFSET ??_C@_0BG@KBOLGOPL@CANNOT_EQUIP_EXCHANGE@
$LN90@SendItemMo:

; 821  : }

  000b4	68 00 00 00 00	 push	 OFFSET ??_C@_03KJMMOONA@?$CIs?$CJ@
  000b9	ff 15 00 00 00
	00		 call	 DWORD PTR __imp__Py_BuildValue
  000bf	50		 push	 eax
  000c0	68 00 00 00 00	 push	 OFFSET ??_C@_0BL@HGBMODPD@BINARY_AppendNotifyMessage@
  000c5	ff b7 98 01 00
	00		 push	 DWORD PTR [edi+408]
  000cb	e8 00 00 00 00	 call	 ?PyCallClassMemberFunc@@YA_NPAU_object@@PBD0@Z ; PyCallClassMemberFunc
  000d0	83 c4 14	 add	 esp, 20			; 00000014H
$LN71@SendItemMo:
  000d3	b0 01		 mov	 al, 1
  000d5	5f		 pop	 edi
  000d6	5e		 pop	 esi
  000d7	5b		 pop	 ebx
  000d8	8b e5		 mov	 esp, ebp
  000da	5d		 pop	 ebp
  000db	c2 0c 00	 ret	 12			; 0000000cH
$LN5@SendItemMo:
; File C:\Anka2Project\Anka2Project\Source\Binary\source\eterBase\Singleton.h

; 26   : 		assert(ms_singleton);

  000de	8b 0d 00 00 00
	00		 mov	 ecx, DWORD PTR ?ms_singleton@?$CSingleton@VCPythonShop@@@@0PAVCPythonShop@@A ; CSingleton<CPythonShop>::ms_singleton
  000e4	85 c9		 test	 ecx, ecx
  000e6	75 26		 jne	 SHORT $LN40@SendItemMo
  000e8	6a 1a		 push	 26			; 0000001aH
  000ea	68 00 00 00 00	 push	 OFFSET ??_C@_1IO@CAJLEEOI@?$AAC?$AA?3?$AA?2?$AAA?$AAn?$AAk?$AAa?$AA2?$AAP?$AAr?$AAo?$AAj?$AAe?$AAc?$AAt@
  000ef	68 00 00 00 00	 push	 OFFSET ??_C@_1BK@FMEHPMFE@?$AAm?$AAs?$AA_?$AAs?$AAi?$AAn?$AAg?$AAl?$AAe?$AAt?$AAo?$AAn@
  000f4	e8 00 00 00 00	 call	 __wassert
  000f9	66 8b 55 0d	 mov	 dx, WORD PTR _change_pos$[ebp+1]
  000fd	83 c4 0c	 add	 esp, 12			; 0000000cH
  00100	66 8b 75 09	 mov	 si, WORD PTR _pos$[ebp+1]
  00104	66 8b 5d 08	 mov	 bx, WORD PTR _pos$[ebp]
  00108	8b 0d 00 00 00
	00		 mov	 ecx, DWORD PTR ?ms_singleton@?$CSingleton@VCPythonShop@@@@0PAVCPythonShop@@A ; CSingleton<CPythonShop>::ms_singleton
$LN40@SendItemMo:
; File C:\Anka2Project\Anka2Project\Source\Binary\source\UserInterface\PythonNetworkStreamPhaseGameItem.cpp

; 793  : 		if (CPythonShop::Instance().IsOpen())

  0010e	e8 00 00 00 00	 call	 ?IsOpen@CPythonShop@@QAEHXZ ; CPythonShop::IsOpen
  00113	85 c0		 test	 eax, eax
  00115	74 4c		 je	 SHORT $LN8@SendItemMo
; File C:\Anka2Project\Anka2Project\Source\Binary\source\UserInterface\GameType.h

; 485  : 		switch (window_type)

  00117	0f b6 c3	 movzx	 eax, bl
  0011a	48		 dec	 eax
  0011b	83 f8 05	 cmp	 eax, 5
  0011e	77 17		 ja	 SHORT $LN78@SendItemMo
  00120	ff 24 85 00 00
	00 00		 jmp	 DWORD PTR $LN75@SendItemMo[eax*4]
$LN44@SendItemMo:

; 486  : 		{
; 487  : 			case INVENTORY:
; 488  : 			case EQUIPMENT:
; 489  : 				return (c_Equipment_Start + c_Wear_Max > cell) && (c_Equipment_Start <= cell);

  00127	b9 b4 00 00 00	 mov	 ecx, 180		; 000000b4H
  0012c	66 2b f1	 sub	 si, cx
  0012f	66 83 fe 3f	 cmp	 si, 63			; 0000003fH
  00133	76 24		 jbe	 SHORT $LN9@SendItemMo

; 485  : 		switch (window_type)

  00135	eb 05		 jmp	 SHORT $LN46@SendItemMo
$LN78@SendItemMo:
  00137	b9 b4 00 00 00	 mov	 ecx, 180		; 000000b4H
$LN46@SendItemMo:
  0013c	66 8b 45 0c	 mov	 ax, WORD PTR _change_pos$[ebp]
  00140	0f b6 c0	 movzx	 eax, al
  00143	48		 dec	 eax
  00144	83 f8 05	 cmp	 eax, 5
  00147	77 1a		 ja	 SHORT $LN8@SendItemMo
  00149	ff 24 85 00 00
	00 00		 jmp	 DWORD PTR $LN76@SendItemMo[eax*4]
$LN55@SendItemMo:

; 486  : 		{
; 487  : 			case INVENTORY:
; 488  : 			case EQUIPMENT:
; 489  : 				return (c_Equipment_Start + c_Wear_Max > cell) && (c_Equipment_Start <= cell);

  00150	66 2b d1	 sub	 dx, cx
  00153	66 83 fa 3f	 cmp	 dx, 63			; 0000003fH
  00157	77 0a		 ja	 SHORT $LN8@SendItemMo
$LN9@SendItemMo:
; File C:\Anka2Project\Anka2Project\Source\Binary\source\UserInterface\PythonNetworkStreamPhaseGameItem.cpp

; 797  : 				PyCallClassMemberFunc(m_apoPhaseWnd[PHASE_WINDOW_GAME], "BINARY_AppendNotifyMessage", Py_BuildValue("(s)", "CANNOT_EQUIP_SHOP"));

  00159	68 00 00 00 00	 push	 OFFSET ??_C@_0BC@GKDHAPBC@CANNOT_EQUIP_SHOP@

; 798  : 				return true;

  0015e	e9 51 ff ff ff	 jmp	 $LN90@SendItemMo
$LN8@SendItemMo:

; 799  : 			}
; 800  : 		}
; 801  : 
; 802  : 		if (__IsPlayerAttacking())

  00163	e8 00 00 00 00	 call	 ?__IsPlayerAttacking@CPythonNetworkStream@@IAE_NXZ ; CPythonNetworkStream::__IsPlayerAttacking
  00168	84 c0		 test	 al, al
  0016a	0f 85 63 ff ff
	ff		 jne	 $LN71@SendItemMo
$LN10@SendItemMo:

; 803  : 			return true;
; 804  : 	}
; 805  : 
; 806  : 	__PlayInventoryItemDropSound(pos);

  00170	66 8b 45 08	 mov	 ax, WORD PTR _pos$[ebp]
  00174	51		 push	 ecx
  00175	8b cc		 mov	 ecx, esp
  00177	66 89 01	 mov	 WORD PTR [ecx], ax
  0017a	8a 45 0a	 mov	 al, BYTE PTR _pos$[ebp+2]
  0017d	88 41 02	 mov	 BYTE PTR [ecx+2], al
  00180	e8 00 00 00 00	 call	 ?__PlayInventoryItemDropSound@CPythonNetworkStream@@IAEXUSItemPos@@@Z ; CPythonNetworkStream::__PlayInventoryItemDropSound

; 807  : 
; 808  : 	TPacketCGItemMove	itemMovePacket;
; 809  : 	itemMovePacket.header = HEADER_CG_ITEM_MOVE;
; 810  : 	itemMovePacket.pos = pos;

  00185	66 8b 45 08	 mov	 ax, WORD PTR _pos$[ebp]

; 811  : 	itemMovePacket.change_pos = change_pos;
; 812  : 	itemMovePacket.num = num;
; 813  : 
; 814  : 	if (!Send(sizeof(TPacketCGItemMove), &itemMovePacket))

  00189	8b cf		 mov	 ecx, edi
  0018b	66 89 45 f5	 mov	 WORD PTR _itemMovePacket$[ebp+1], ax
  0018f	8a 45 0a	 mov	 al, BYTE PTR _pos$[ebp+2]
  00192	88 45 f7	 mov	 BYTE PTR _itemMovePacket$[ebp+3], al
  00195	66 8b 45 0c	 mov	 ax, WORD PTR _change_pos$[ebp]
  00199	66 89 45 f8	 mov	 WORD PTR _itemMovePacket$[ebp+4], ax
  0019d	8a 45 0e	 mov	 al, BYTE PTR _change_pos$[ebp+2]
  001a0	88 45 fa	 mov	 BYTE PTR _itemMovePacket$[ebp+6], al
  001a3	66 8b 45 10	 mov	 ax, WORD PTR _num$[ebp]
  001a7	66 89 45 fb	 mov	 WORD PTR _itemMovePacket$[ebp+7], ax
  001ab	8d 45 f4	 lea	 eax, DWORD PTR _itemMovePacket$[ebp]
  001ae	50		 push	 eax
  001af	6a 09		 push	 9
  001b1	c6 45 f4 0d	 mov	 BYTE PTR _itemMovePacket$[ebp], 13 ; 0000000dH
  001b5	e8 00 00 00 00	 call	 ?Send@CNetworkStream@@QAE_NHPBX@Z ; CNetworkStream::Send
  001ba	84 c0		 test	 al, al
  001bc	75 18		 jne	 SHORT $LN11@SendItemMo

; 815  : 	{
; 816  : 		Tracen("SendItemMovePacket Error");

  001be	68 00 00 00 00	 push	 OFFSET ??_C@_0BJ@LGMFALEM@SendItemMovePacket?5Error@
  001c3	e8 00 00 00 00	 call	 ?Tracen@@YAXPBD@Z	; Tracen
  001c8	83 c4 04	 add	 esp, 4

; 817  : 		return false;

  001cb	32 c0		 xor	 al, al

; 821  : }

  001cd	5f		 pop	 edi
  001ce	5e		 pop	 esi
  001cf	5b		 pop	 ebx
  001d0	8b e5		 mov	 esp, ebp
  001d2	5d		 pop	 ebp
  001d3	c2 0c 00	 ret	 12			; 0000000cH
$LN11@SendItemMo:

; 818  : 	}
; 819  : 
; 820  : 	return SendSequence();

  001d6	8b cf		 mov	 ecx, edi
  001d8	e8 00 00 00 00	 call	 ?SendSequence@CNetworkStream@@QAE_NXZ ; CNetworkStream::SendSequence

; 821  : }

  001dd	5f		 pop	 edi
  001de	5e		 pop	 esi
  001df	5b		 pop	 ebx
  001e0	8b e5		 mov	 esp, ebp
  001e2	5d		 pop	 ebp
  001e3	c2 0c 00	 ret	 12			; 0000000cH
  001e6	66 90		 npad	 2
$LN73@SendItemMo:
  001e8	00 00 00 00	 DD	 $LN19@SendItemMo
  001ec	00 00 00 00	 DD	 $LN19@SendItemMo
  001f0	00 00 00 00	 DD	 $LN21@SendItemMo
  001f4	00 00 00 00	 DD	 $LN21@SendItemMo
  001f8	00 00 00 00	 DD	 $LN21@SendItemMo
  001fc	00 00 00 00	 DD	 $LN21@SendItemMo
$LN74@SendItemMo:
  00200	00 00 00 00	 DD	 $LN30@SendItemMo
  00204	00 00 00 00	 DD	 $LN30@SendItemMo
  00208	00 00 00 00	 DD	 $LN5@SendItemMo
  0020c	00 00 00 00	 DD	 $LN5@SendItemMo
  00210	00 00 00 00	 DD	 $LN5@SendItemMo
  00214	00 00 00 00	 DD	 $LN5@SendItemMo
$LN75@SendItemMo:
  00218	00 00 00 00	 DD	 $LN44@SendItemMo
  0021c	00 00 00 00	 DD	 $LN44@SendItemMo
  00220	00 00 00 00	 DD	 $LN78@SendItemMo
  00224	00 00 00 00	 DD	 $LN78@SendItemMo
  00228	00 00 00 00	 DD	 $LN78@SendItemMo
  0022c	00 00 00 00	 DD	 $LN78@SendItemMo
$LN76@SendItemMo:
  00230	00 00 00 00	 DD	 $LN55@SendItemMo
  00234	00 00 00 00	 DD	 $LN55@SendItemMo
  00238	00 00 00 00	 DD	 $LN8@SendItemMo
  0023c	00 00 00 00	 DD	 $LN8@SendItemMo
  00240	00 00 00 00	 DD	 $LN8@SendItemMo
  00244	00 00 00 00	 DD	 $LN8@SendItemMo
?SendItemMovePacket@CPythonNetworkStream@@QAE_NUSItemPos@@0G@Z ENDP ; CPythonNetworkStream::SendItemMovePacket
_TEXT	ENDS
; Function compile flags: /Ogtp
; File C:\Anka2Project\Anka2Project\Source\Binary\source\UserInterface\PythonNetworkStreamPhaseGameItem.cpp
; File C:\Anka2Project\Anka2Project\Source\Binary\source\eterBase\Singleton.h
; File C:\Anka2Project\Anka2Project\Source\Binary\source\UserInterface\PythonNetworkStreamPhaseGameItem.cpp
; File C:\Anka2Project\Anka2Project\Source\Binary\source\eterBase\Singleton.h
; File C:\Anka2Project\Anka2Project\Source\Binary\source\UserInterface\PythonNetworkStreamPhaseGameItem.cpp
;	COMDAT ?SendItemUsePacket@CPythonNetworkStream@@QAE_NUSItemPos@@@Z
_TEXT	SEGMENT
_itemUsePacket$ = -4					; size = 4
_pos$ = 8						; size = 3
?SendItemUsePacket@CPythonNetworkStream@@QAE_NUSItemPos@@@Z PROC ; CPythonNetworkStream::SendItemUsePacket, COMDAT
; _this$ = ecx

; 570  : {

  00000	55		 push	 ebp
  00001	8b ec		 mov	 ebp, esp
  00003	51		 push	 ecx
  00004	56		 push	 esi
  00005	8b f1		 mov	 esi, ecx

; 571  : 	if (!__CanActMainInstance())

  00007	e8 00 00 00 00	 call	 ?__CanActMainInstance@CPythonNetworkStream@@IAE_NXZ ; CPythonNetworkStream::__CanActMainInstance
  0000c	84 c0		 test	 al, al
  0000e	74 6e		 je	 SHORT $LN19@SendItemUs

; 572  : 		return true;
; 573  : 
; 574  : 	if (__IsEquipItemInSlot(pos))

  00010	66 8b 45 08	 mov	 ax, WORD PTR _pos$[ebp]
  00014	51		 push	 ecx
  00015	8b d4		 mov	 edx, esp
  00017	66 89 02	 mov	 WORD PTR [edx], ax
  0001a	8a 45 0a	 mov	 al, BYTE PTR _pos$[ebp+2]
  0001d	88 42 02	 mov	 BYTE PTR [edx+2], al
  00020	e8 00 00 00 00	 call	 ?__IsEquipItemInSlot@CPythonNetworkStream@@IAE_NUSItemPos@@@Z ; CPythonNetworkStream::__IsEquipItemInSlot
  00025	84 c0		 test	 al, al
  00027	0f 84 97 00 00
	00		 je	 $LN6@SendItemUs
; File C:\Anka2Project\Anka2Project\Source\Binary\source\eterBase\Singleton.h

; 26   : 		assert(ms_singleton);

  0002d	8b 0d 00 00 00
	00		 mov	 ecx, DWORD PTR ?ms_singleton@?$CSingleton@VCPythonExchange@@@@0PAVCPythonExchange@@A ; CSingleton<CPythonExchange>::ms_singleton
  00033	85 c9		 test	 ecx, ecx
  00035	75 1a		 jne	 SHORT $LN11@SendItemUs
  00037	6a 1a		 push	 26			; 0000001aH
  00039	68 00 00 00 00	 push	 OFFSET ??_C@_1IO@CAJLEEOI@?$AAC?$AA?3?$AA?2?$AAA?$AAn?$AAk?$AAa?$AA2?$AAP?$AAr?$AAo?$AAj?$AAe?$AAc?$AAt@
  0003e	68 00 00 00 00	 push	 OFFSET ??_C@_1BK@FMEHPMFE@?$AAm?$AAs?$AA_?$AAs?$AAi?$AAn?$AAg?$AAl?$AAe?$AAt?$AAo?$AAn@
  00043	e8 00 00 00 00	 call	 __wassert
  00048	8b 0d 00 00 00
	00		 mov	 ecx, DWORD PTR ?ms_singleton@?$CSingleton@VCPythonExchange@@@@0PAVCPythonExchange@@A ; CSingleton<CPythonExchange>::ms_singleton
  0004e	83 c4 0c	 add	 esp, 12			; 0000000cH
$LN11@SendItemUs:
; File C:\Anka2Project\Anka2Project\Source\Binary\source\UserInterface\PythonNetworkStreamPhaseGameItem.cpp

; 576  : 		if (CPythonExchange::Instance().isTrading())

  00051	e8 00 00 00 00	 call	 ?isTrading@CPythonExchange@@QAE_NXZ ; CPythonExchange::isTrading
  00056	84 c0		 test	 al, al
  00058	74 2d		 je	 SHORT $LN4@SendItemUs

; 577  : 		{
; 578  : 			PyCallClassMemberFunc(m_apoPhaseWnd[PHASE_WINDOW_GAME], "BINARY_AppendNotifyMessage", Py_BuildValue("(s)", "CANNOT_EQUIP_EXCHANGE"));

  0005a	68 00 00 00 00	 push	 OFFSET ??_C@_0BG@KBOLGOPL@CANNOT_EQUIP_EXCHANGE@
$LN28@SendItemUs:

; 605  : }

  0005f	68 00 00 00 00	 push	 OFFSET ??_C@_03KJMMOONA@?$CIs?$CJ@
  00064	ff 15 00 00 00
	00		 call	 DWORD PTR __imp__Py_BuildValue
  0006a	50		 push	 eax
  0006b	68 00 00 00 00	 push	 OFFSET ??_C@_0BL@HGBMODPD@BINARY_AppendNotifyMessage@
  00070	ff b6 98 01 00
	00		 push	 DWORD PTR [esi+408]
  00076	e8 00 00 00 00	 call	 ?PyCallClassMemberFunc@@YA_NPAU_object@@PBD0@Z ; PyCallClassMemberFunc
  0007b	83 c4 14	 add	 esp, 20			; 00000014H
$LN19@SendItemUs:
  0007e	b0 01		 mov	 al, 1
  00080	5e		 pop	 esi
  00081	8b e5		 mov	 esp, ebp
  00083	5d		 pop	 ebp
  00084	c2 04 00	 ret	 4
$LN4@SendItemUs:
; File C:\Anka2Project\Anka2Project\Source\Binary\source\eterBase\Singleton.h

; 26   : 		assert(ms_singleton);

  00087	8b 0d 00 00 00
	00		 mov	 ecx, DWORD PTR ?ms_singleton@?$CSingleton@VCPythonShop@@@@0PAVCPythonShop@@A ; CSingleton<CPythonShop>::ms_singleton
  0008d	85 c9		 test	 ecx, ecx
  0008f	75 1a		 jne	 SHORT $LN14@SendItemUs
  00091	6a 1a		 push	 26			; 0000001aH
  00093	68 00 00 00 00	 push	 OFFSET ??_C@_1IO@CAJLEEOI@?$AAC?$AA?3?$AA?2?$AAA?$AAn?$AAk?$AAa?$AA2?$AAP?$AAr?$AAo?$AAj?$AAe?$AAc?$AAt@
  00098	68 00 00 00 00	 push	 OFFSET ??_C@_1BK@FMEHPMFE@?$AAm?$AAs?$AA_?$AAs?$AAi?$AAn?$AAg?$AAl?$AAe?$AAt?$AAo?$AAn@
  0009d	e8 00 00 00 00	 call	 __wassert
  000a2	8b 0d 00 00 00
	00		 mov	 ecx, DWORD PTR ?ms_singleton@?$CSingleton@VCPythonShop@@@@0PAVCPythonShop@@A ; CSingleton<CPythonShop>::ms_singleton
  000a8	83 c4 0c	 add	 esp, 12			; 0000000cH
$LN14@SendItemUs:
; File C:\Anka2Project\Anka2Project\Source\Binary\source\UserInterface\PythonNetworkStreamPhaseGameItem.cpp

; 582  : 		if (CPythonShop::Instance().IsOpen())

  000ab	e8 00 00 00 00	 call	 ?IsOpen@CPythonShop@@QAEHXZ ; CPythonShop::IsOpen
  000b0	85 c0		 test	 eax, eax
  000b2	74 07		 je	 SHORT $LN5@SendItemUs

; 583  : 		{
; 584  : 			PyCallClassMemberFunc(m_apoPhaseWnd[PHASE_WINDOW_GAME], "BINARY_AppendNotifyMessage", Py_BuildValue("(s)", "CANNOT_EQUIP_SHOP"));

  000b4	68 00 00 00 00	 push	 OFFSET ??_C@_0BC@GKDHAPBC@CANNOT_EQUIP_SHOP@

; 585  : 			return true;

  000b9	eb a4		 jmp	 SHORT $LN28@SendItemUs
$LN5@SendItemUs:

; 586  : 		}
; 587  : 
; 588  : 		if (__IsPlayerAttacking())

  000bb	e8 00 00 00 00	 call	 ?__IsPlayerAttacking@CPythonNetworkStream@@IAE_NXZ ; CPythonNetworkStream::__IsPlayerAttacking
  000c0	84 c0		 test	 al, al
  000c2	75 ba		 jne	 SHORT $LN19@SendItemUs
$LN6@SendItemUs:

; 589  : 			return true;
; 590  : 	}
; 591  : 
; 592  : 	__PlayInventoryItemUseSound(pos);

  000c4	66 8b 45 08	 mov	 ax, WORD PTR _pos$[ebp]
  000c8	51		 push	 ecx
  000c9	8b cc		 mov	 ecx, esp
  000cb	66 89 01	 mov	 WORD PTR [ecx], ax
  000ce	8a 45 0a	 mov	 al, BYTE PTR _pos$[ebp+2]
  000d1	88 41 02	 mov	 BYTE PTR [ecx+2], al
  000d4	e8 00 00 00 00	 call	 ?__PlayInventoryItemUseSound@CPythonNetworkStream@@IAEXUSItemPos@@@Z ; CPythonNetworkStream::__PlayInventoryItemUseSound

; 593  : 
; 594  : 	TPacketCGItemUse itemUsePacket;
; 595  : 	itemUsePacket.header = HEADER_CG_ITEM_USE;
; 596  : 	itemUsePacket.pos = pos;

  000d9	66 8b 45 08	 mov	 ax, WORD PTR _pos$[ebp]

; 597  : 
; 598  : 	if (!Send(sizeof(TPacketCGItemUse), &itemUsePacket))

  000dd	8b ce		 mov	 ecx, esi
  000df	66 89 45 fd	 mov	 WORD PTR _itemUsePacket$[ebp+1], ax
  000e3	8a 45 0a	 mov	 al, BYTE PTR _pos$[ebp+2]
  000e6	88 45 ff	 mov	 BYTE PTR _itemUsePacket$[ebp+3], al
  000e9	8d 45 fc	 lea	 eax, DWORD PTR _itemUsePacket$[ebp]
  000ec	50		 push	 eax
  000ed	6a 04		 push	 4
  000ef	c6 45 fc 0b	 mov	 BYTE PTR _itemUsePacket$[ebp], 11 ; 0000000bH
  000f3	e8 00 00 00 00	 call	 ?Send@CNetworkStream@@QAE_NHPBX@Z ; CNetworkStream::Send
  000f8	84 c0		 test	 al, al
  000fa	75 16		 jne	 SHORT $LN7@SendItemUs

; 599  : 	{
; 600  : 		Tracen("SendItemUsePacket Error");

  000fc	68 00 00 00 00	 push	 OFFSET ??_C@_0BI@ECNPLDED@SendItemUsePacket?5Error@
  00101	e8 00 00 00 00	 call	 ?Tracen@@YAXPBD@Z	; Tracen
  00106	83 c4 04	 add	 esp, 4

; 601  : 		return false;

  00109	32 c0		 xor	 al, al

; 605  : }

  0010b	5e		 pop	 esi
  0010c	8b e5		 mov	 esp, ebp
  0010e	5d		 pop	 ebp
  0010f	c2 04 00	 ret	 4
$LN7@SendItemUs:

; 602  : 	}
; 603  : 
; 604  : 	return SendSequence();

  00112	8b ce		 mov	 ecx, esi
  00114	e8 00 00 00 00	 call	 ?SendSequence@CNetworkStream@@QAE_NXZ ; CNetworkStream::SendSequence

; 605  : }

  00119	5e		 pop	 esi
  0011a	8b e5		 mov	 esp, ebp
  0011c	5d		 pop	 ebp
  0011d	c2 04 00	 ret	 4
?SendItemUsePacket@CPythonNetworkStream@@QAE_NUSItemPos@@@Z ENDP ; CPythonNetworkStream::SendItemUsePacket
_TEXT	ENDS
; Function compile flags: /Ogtp
; File C:\Anka2Project\Anka2Project\Source\Binary\source\UserInterface\PythonNetworkStreamPhaseGameItem.cpp
; File C:\Anka2Project\Anka2Project\Source\Binary\source\UserInterface\AbstractSingleton.h
; File C:\Anka2Project\Anka2Project\Source\Binary\source\UserInterface\PythonNetworkStreamPhaseGameItem.cpp
; File C:\Anka2Project\Anka2Project\Source\Binary\source\UserInterface\AbstractSingleton.h
; File C:\Anka2Project\Anka2Project\Source\Binary\source\UserInterface\PythonNetworkStreamPhaseGameItem.cpp
; File C:\Anka2Project\Anka2Project\Source\Binary\source\eterBase\Singleton.h
; File C:\Anka2Project\Anka2Project\Source\Binary\source\UserInterface\PythonNetworkStreamPhaseGameItem.cpp
; File C:\Anka2Project\Anka2Project\Source\Binary\source\eterBase\Singleton.h
; File C:\Anka2Project\Anka2Project\Source\Binary\source\UserInterface\PythonNetworkStreamPhaseGameItem.cpp
;	COMDAT ?__PlayInventoryItemDropSound@CPythonNetworkStream@@IAEXUSItemPos@@@Z
_TEXT	SEGMENT
_uSlotPos$ = 8						; size = 3
?__PlayInventoryItemDropSound@CPythonNetworkStream@@IAEXUSItemPos@@@Z PROC ; CPythonNetworkStream::__PlayInventoryItemDropSound, COMDAT
; _this$dead$ = ecx

; 732  : {

  00000	55		 push	 ebp
  00001	8b ec		 mov	 ebp, esp
; File C:\Anka2Project\Anka2Project\Source\Binary\source\UserInterface\AbstractSingleton.h

; 24   : 		assert(ms_singleton!=nullptr);

  00003	8b 0d 00 00 00
	00		 mov	 ecx, DWORD PTR ?ms_singleton@?$TAbstractSingleton@VIAbstractPlayer@@@@0PAVIAbstractPlayer@@A ; TAbstractSingleton<IAbstractPlayer>::ms_singleton
; File C:\Anka2Project\Anka2Project\Source\Binary\source\UserInterface\PythonNetworkStreamPhaseGameItem.cpp

; 732  : {

  00009	56		 push	 esi
; File C:\Anka2Project\Anka2Project\Source\Binary\source\UserInterface\AbstractSingleton.h

; 24   : 		assert(ms_singleton!=nullptr);

  0000a	85 c9		 test	 ecx, ecx
  0000c	75 1a		 jne	 SHORT $LN5@PlayInvent
  0000e	6a 18		 push	 24			; 00000018H
  00010	68 00 00 00 00	 push	 OFFSET ??_C@_1KI@FIPHLMOB@?$AAC?$AA?3?$AA?2?$AAA?$AAn?$AAk?$AAa?$AA2?$AAP?$AAr?$AAo?$AAj?$AAe?$AAc?$AAt@
  00015	68 00 00 00 00	 push	 OFFSET ??_C@_1CM@FPMBEAEA@?$AAm?$AAs?$AA_?$AAs?$AAi?$AAn?$AAg?$AAl?$AAe?$AAt?$AAo?$AAn?$AA?$CB?$AA?$DN?$AAn@
  0001a	e8 00 00 00 00	 call	 __wassert
  0001f	8b 0d 00 00 00
	00		 mov	 ecx, DWORD PTR ?ms_singleton@?$TAbstractSingleton@VIAbstractPlayer@@@@0PAVIAbstractPlayer@@A ; TAbstractSingleton<IAbstractPlayer>::ms_singleton
  00025	83 c4 0c	 add	 esp, 12			; 0000000cH
$LN5@PlayInvent:
; File C:\Anka2Project\Anka2Project\Source\Binary\source\UserInterface\PythonNetworkStreamPhaseGameItem.cpp

; 734  : 	DWORD dwItemID=rkPlayer.GetItemIndex(uSlotPos);

  00028	8b 01		 mov	 eax, DWORD PTR [ecx]
  0002a	51		 push	 ecx
  0002b	8b d4		 mov	 edx, esp
  0002d	8b 70 48	 mov	 esi, DWORD PTR [eax+72]
  00030	66 8b 45 08	 mov	 ax, WORD PTR _uSlotPos$[ebp]
  00034	66 89 02	 mov	 WORD PTR [edx], ax
  00037	8a 45 0a	 mov	 al, BYTE PTR _uSlotPos$[ebp+2]
  0003a	88 42 02	 mov	 BYTE PTR [edx+2], al
  0003d	ff d6		 call	 esi
; File C:\Anka2Project\Anka2Project\Source\Binary\source\eterBase\Singleton.h

; 26   : 		assert(ms_singleton);

  0003f	83 3d 00 00 00
	00 00		 cmp	 DWORD PTR ?ms_singleton@?$CSingleton@VCPythonItem@@@@0PAVCPythonItem@@A, 0 ; CSingleton<CPythonItem>::ms_singleton
; File C:\Anka2Project\Anka2Project\Source\Binary\source\UserInterface\PythonNetworkStreamPhaseGameItem.cpp

; 734  : 	DWORD dwItemID=rkPlayer.GetItemIndex(uSlotPos);

  00046	8b f0		 mov	 esi, eax
; File C:\Anka2Project\Anka2Project\Source\Binary\source\eterBase\Singleton.h

; 26   : 		assert(ms_singleton);

  00048	75 14		 jne	 SHORT $LN8@PlayInvent
  0004a	6a 1a		 push	 26			; 0000001aH
  0004c	68 00 00 00 00	 push	 OFFSET ??_C@_1IO@CAJLEEOI@?$AAC?$AA?3?$AA?2?$AAA?$AAn?$AAk?$AAa?$AA2?$AAP?$AAr?$AAo?$AAj?$AAe?$AAc?$AAt@
  00051	68 00 00 00 00	 push	 OFFSET ??_C@_1BK@FMEHPMFE@?$AAm?$AAs?$AA_?$AAs?$AAi?$AAn?$AAg?$AAl?$AAe?$AAt?$AAo?$AAn@
  00056	e8 00 00 00 00	 call	 __wassert
  0005b	83 c4 0c	 add	 esp, 12			; 0000000cH
$LN8@PlayInvent:
; File C:\Anka2Project\Anka2Project\Source\Binary\source\UserInterface\PythonNetworkStreamPhaseGameItem.cpp

; 737  : 	rkItem.PlayDropSound(dwItemID);

  0005e	56		 push	 esi
  0005f	e8 00 00 00 00	 call	 ?PlayDropSound@CPythonItem@@QAEXK@Z ; CPythonItem::PlayDropSound

; 738  : }

  00064	5e		 pop	 esi
  00065	5d		 pop	 ebp
  00066	c2 04 00	 ret	 4
?__PlayInventoryItemDropSound@CPythonNetworkStream@@IAEXUSItemPos@@@Z ENDP ; CPythonNetworkStream::__PlayInventoryItemDropSound
_TEXT	ENDS
; Function compile flags: /Ogtp
; File C:\Anka2Project\Anka2Project\Source\Binary\source\UserInterface\PythonNetworkStreamPhaseGameItem.cpp
; File C:\Anka2Project\Anka2Project\Source\Binary\source\UserInterface\GameType.h
; File C:\Anka2Project\Anka2Project\Source\Binary\source\UserInterface\Packet.h
; File C:\Anka2Project\Anka2Project\Source\Binary\source\UserInterface\PythonNetworkStreamPhaseGameItem.cpp
; File C:\Anka2Project\Anka2Project\Source\Binary\source\UserInterface\GameType.h
; File C:\Anka2Project\Anka2Project\Source\Binary\source\UserInterface\PythonNetworkStreamPhaseGameItem.cpp
; File C:\Anka2Project\Anka2Project\Source\Binary\source\UserInterface\GameType.h
; File C:\Anka2Project\Anka2Project\Source\Binary\source\UserInterface\PythonNetworkStreamPhaseGameItem.cpp
;	COMDAT ?RecvDragonSoulRefine@CPythonNetworkStream@@IAE_NXZ
_TEXT	SEGMENT
_kDragonSoul$ = -8					; size = 5
?RecvDragonSoulRefine@CPythonNetworkStream@@IAE_NXZ PROC ; CPythonNetworkStream::RecvDragonSoulRefine, COMDAT
; _this$ = ecx

; 1155 : {

  00000	55		 push	 ebp
  00001	8b ec		 mov	 ebp, esp
  00003	83 ec 08	 sub	 esp, 8
; File C:\Anka2Project\Anka2Project\Source\Binary\source\UserInterface\GameType.h

; 448  : 		cell = WORD_MAX;

  00006	b8 ff ff 00 00	 mov	 eax, 65535		; 0000ffffH
; File C:\Anka2Project\Anka2Project\Source\Binary\source\UserInterface\Packet.h

; 3378 : 	SPacketGCDragonSoulRefine() : header(HEADER_GC_DRAGON_SOUL_REFINE) {}

  0000b	c6 45 f8 d1	 mov	 BYTE PTR _kDragonSoul$[ebp], 209 ; 000000d1H
; File C:\Anka2Project\Anka2Project\Source\Binary\source\UserInterface\PythonNetworkStreamPhaseGameItem.cpp

; 1155 : {

  0000f	56		 push	 esi
; File C:\Anka2Project\Anka2Project\Source\Binary\source\UserInterface\GameType.h

; 448  : 		cell = WORD_MAX;

  00010	66 89 45 fb	 mov	 WORD PTR _kDragonSoul$[ebp+3], ax
; File C:\Anka2Project\Anka2Project\Source\Binary\source\UserInterface\PythonNetworkStreamPhaseGameItem.cpp

; 1155 : {

  00014	8b f1		 mov	 esi, ecx

; 1158 : 	if (!Recv(sizeof(kDragonSoul), &kDragonSoul))

  00016	8d 45 f8	 lea	 eax, DWORD PTR _kDragonSoul$[ebp]
; File C:\Anka2Project\Anka2Project\Source\Binary\source\UserInterface\GameType.h

; 447  : 		window_type = INVENTORY;

  00019	c6 45 fa 01	 mov	 BYTE PTR _kDragonSoul$[ebp+2], 1
; File C:\Anka2Project\Anka2Project\Source\Binary\source\UserInterface\PythonNetworkStreamPhaseGameItem.cpp

; 1158 : 	if (!Recv(sizeof(kDragonSoul), &kDragonSoul))

  0001d	50		 push	 eax
  0001e	6a 05		 push	 5
  00020	e8 00 00 00 00	 call	 ?Recv@CNetworkStream@@QAE_NHPAX@Z ; CNetworkStream::Recv
  00025	84 c0		 test	 al, al
  00027	75 05		 jne	 SHORT $LN4@RecvDragon
  00029	5e		 pop	 esi

; 1182 : }

  0002a	8b e5		 mov	 esp, ebp
  0002c	5d		 pop	 ebp
  0002d	c3		 ret	 0
$LN4@RecvDragon:

; 1159 : 		return false;
; 1160 : 
; 1161 : 	switch (kDragonSoul.bSubType)

  0002e	0f b6 4d f9	 movzx	 ecx, BYTE PTR _kDragonSoul$[ebp+1]
  00032	83 f9 0b	 cmp	 ecx, 11			; 0000000bH
  00035	0f 87 8e 00 00
	00		 ja	 $LN2@RecvDragon
  0003b	0f b6 81 00 00
	00 00		 movzx	 eax, BYTE PTR $LN18@RecvDragon[ecx]
  00042	ff 24 85 00 00
	00 00		 jmp	 DWORD PTR $LN19@RecvDragon[eax*4]
$LN5@RecvDragon:

; 1162 : 	{
; 1163 : 	case DS_SUB_HEADER_OPEN:
; 1164 : 		PyCallClassMemberFunc(m_apoPhaseWnd[PHASE_WINDOW_GAME], "BINARY_DragonSoulRefineWindow_Open", Py_BuildValue("()"));

  00049	68 00 00 00 00	 push	 OFFSET ??_C@_02HCKGKOFO@?$CI?$CJ@
  0004e	ff 15 00 00 00
	00		 call	 DWORD PTR __imp__Py_BuildValue
  00054	50		 push	 eax
  00055	68 00 00 00 00	 push	 OFFSET ??_C@_0CD@JEDDBPLN@BINARY_DragonSoulRefineWindow_O@
  0005a	ff b6 98 01 00
	00		 push	 DWORD PTR [esi+408]
  00060	e8 00 00 00 00	 call	 ?PyCallClassMemberFunc@@YA_NPAU_object@@PBD0@Z ; PyCallClassMemberFunc
  00065	83 c4 10	 add	 esp, 16			; 00000010H

; 1177 : 				Py_BuildValue("(ii)", kDragonSoul.Pos.window_type, kDragonSoul.Pos.cell));
; 1178 : 		break;
; 1179 : 	}
; 1180 : 
; 1181 : 	return true;

  00068	b0 01		 mov	 al, 1
  0006a	5e		 pop	 esi

; 1182 : }

  0006b	8b e5		 mov	 esp, ebp
  0006d	5d		 pop	 ebp
  0006e	c3		 ret	 0
$LN6@RecvDragon:

; 1165 : 		break;
; 1166 : 	case DS_SUB_HEADER_REFINE_FAIL:
; 1167 : 	case DS_SUB_HEADER_REFINE_FAIL_MAX_REFINE:
; 1168 : 	case DS_SUB_HEADER_REFINE_FAIL_INVALID_MATERIAL:
; 1169 : 	case DS_SUB_HEADER_REFINE_FAIL_NOT_ENOUGH_MONEY:
; 1170 : 	case DS_SUB_HEADER_REFINE_FAIL_NOT_ENOUGH_MATERIAL:
; 1171 : 	case DS_SUB_HEADER_REFINE_FAIL_TOO_MUCH_MATERIAL:
; 1172 : 		PyCallClassMemberFunc(m_apoPhaseWnd[PHASE_WINDOW_GAME], "BINARY_DragonSoulRefineWindow_RefineFail", Py_BuildValue("(iii)", 

  0006f	0f b7 45 fb	 movzx	 eax, WORD PTR _kDragonSoul$[ebp+3]
  00073	50		 push	 eax
  00074	0f b6 45 fa	 movzx	 eax, BYTE PTR _kDragonSoul$[ebp+2]
  00078	50		 push	 eax
  00079	51		 push	 ecx
  0007a	68 00 00 00 00	 push	 OFFSET ??_C@_05HEIOBLPG@?$CIiii?$CJ@
  0007f	ff 15 00 00 00
	00		 call	 DWORD PTR __imp__Py_BuildValue
  00085	50		 push	 eax
  00086	68 00 00 00 00	 push	 OFFSET ??_C@_0CJ@JCBKPBPN@BINARY_DragonSoulRefineWindow_R@
  0008b	ff b6 98 01 00
	00		 push	 DWORD PTR [esi+408]
  00091	e8 00 00 00 00	 call	 ?PyCallClassMemberFunc@@YA_NPAU_object@@PBD0@Z ; PyCallClassMemberFunc
  00096	83 c4 1c	 add	 esp, 28			; 0000001cH

; 1177 : 				Py_BuildValue("(ii)", kDragonSoul.Pos.window_type, kDragonSoul.Pos.cell));
; 1178 : 		break;
; 1179 : 	}
; 1180 : 
; 1181 : 	return true;

  00099	b0 01		 mov	 al, 1
  0009b	5e		 pop	 esi

; 1182 : }

  0009c	8b e5		 mov	 esp, ebp
  0009e	5d		 pop	 ebp
  0009f	c3		 ret	 0
$LN12@RecvDragon:

; 1173 : 			kDragonSoul.bSubType, kDragonSoul.Pos.window_type, kDragonSoul.Pos.cell));
; 1174 : 		break;
; 1175 : 	case DS_SUB_HEADER_REFINE_SUCCEED:
; 1176 : 		PyCallClassMemberFunc(m_apoPhaseWnd[PHASE_WINDOW_GAME], "BINARY_DragonSoulRefineWindow_RefineSucceed", 

  000a0	0f b7 45 fb	 movzx	 eax, WORD PTR _kDragonSoul$[ebp+3]
  000a4	50		 push	 eax
  000a5	0f b6 45 fa	 movzx	 eax, BYTE PTR _kDragonSoul$[ebp+2]
  000a9	50		 push	 eax
  000aa	68 00 00 00 00	 push	 OFFSET ??_C@_04INACLLOK@?$CIii?$CJ@
  000af	ff 15 00 00 00
	00		 call	 DWORD PTR __imp__Py_BuildValue
  000b5	50		 push	 eax
  000b6	68 00 00 00 00	 push	 OFFSET ??_C@_0CM@IKKNFKOL@BINARY_DragonSoulRefineWindow_R@
  000bb	ff b6 98 01 00
	00		 push	 DWORD PTR [esi+408]
  000c1	e8 00 00 00 00	 call	 ?PyCallClassMemberFunc@@YA_NPAU_object@@PBD0@Z ; PyCallClassMemberFunc
  000c6	83 c4 18	 add	 esp, 24			; 00000018H
$LN2@RecvDragon:

; 1177 : 				Py_BuildValue("(ii)", kDragonSoul.Pos.window_type, kDragonSoul.Pos.cell));
; 1178 : 		break;
; 1179 : 	}
; 1180 : 
; 1181 : 	return true;

  000c9	b0 01		 mov	 al, 1
  000cb	5e		 pop	 esi

; 1182 : }

  000cc	8b e5		 mov	 esp, ebp
  000ce	5d		 pop	 ebp
  000cf	c3		 ret	 0
$LN19@RecvDragon:
  000d0	00 00 00 00	 DD	 $LN5@RecvDragon
  000d4	00 00 00 00	 DD	 $LN6@RecvDragon
  000d8	00 00 00 00	 DD	 $LN12@RecvDragon
  000dc	00 00 00 00	 DD	 $LN2@RecvDragon
$LN18@RecvDragon:
  000e0	00		 DB	 0
  000e1	03		 DB	 3
  000e2	03		 DB	 3
  000e3	03		 DB	 3
  000e4	03		 DB	 3
  000e5	01		 DB	 1
  000e6	01		 DB	 1
  000e7	01		 DB	 1
  000e8	01		 DB	 1
  000e9	01		 DB	 1
  000ea	01		 DB	 1
  000eb	02		 DB	 2
?RecvDragonSoulRefine@CPythonNetworkStream@@IAE_NXZ ENDP ; CPythonNetworkStream::RecvDragonSoulRefine
_TEXT	ENDS
; Function compile flags: /Ogtp
; File C:\Anka2Project\Anka2Project\Source\Binary\source\UserInterface\PythonNetworkStreamPhaseGameItem.cpp
; File C:\Anka2Project\Anka2Project\Source\Binary\source\eterBase\Singleton.h
; File C:\Anka2Project\Anka2Project\Source\Binary\source\UserInterface\PythonNetworkStreamPhaseGameItem.cpp
; File C:\Program Files (x86)\Windows Kits\10\Include\10.0.26100.0\ucrt\string.h
; File C:\Anka2Project\Anka2Project\Source\Binary\source\UserInterface\PythonNetworkStreamPhaseGameItem.cpp
; File C:\Anka2Project\Anka2Project\Source\Binary\source\eterBase\Singleton.h
; File C:\Anka2Project\Anka2Project\Source\Binary\source\UserInterface\PythonNetworkStreamPhaseGameItem.cpp
;	COMDAT ?RecvSpecificEffect@CPythonNetworkStream@@IAE_NXZ
_TEXT	SEGMENT
_kSpecificEffect$ = -140				; size = 133
__$ArrayPad$ = -4					; size = 4
?RecvSpecificEffect@CPythonNetworkStream@@IAE_NXZ PROC	; CPythonNetworkStream::RecvSpecificEffect, COMDAT
; _this$ = ecx

; 1131 : {

  00000	55		 push	 ebp
  00001	8b ec		 mov	 ebp, esp
  00003	81 ec 8c 00 00
	00		 sub	 esp, 140		; 0000008cH
  00009	a1 00 00 00 00	 mov	 eax, DWORD PTR ___security_cookie
  0000e	33 c5		 xor	 eax, ebp
  00010	89 45 fc	 mov	 DWORD PTR __$ArrayPad$[ebp], eax

; 1132 : 	TPacketGCSpecificEffect kSpecificEffect;
; 1133 : 	if (!Recv(sizeof(kSpecificEffect), &kSpecificEffect))

  00013	8d 85 74 ff ff
	ff		 lea	 eax, DWORD PTR _kSpecificEffect$[ebp]
  00019	50		 push	 eax
  0001a	68 85 00 00 00	 push	 133			; 00000085H
  0001f	e8 00 00 00 00	 call	 ?Recv@CNetworkStream@@QAE_NHPAX@Z ; CNetworkStream::Recv
  00024	84 c0		 test	 al, al
  00026	75 0e		 jne	 SHORT $LN2@RecvSpecif

; 1148 :     }
; 1149 : 	#endif
; 1150 : 
; 1151 : 	return true;
; 1152 : }

  00028	8b 4d fc	 mov	 ecx, DWORD PTR __$ArrayPad$[ebp]
  0002b	33 cd		 xor	 ecx, ebp
  0002d	e8 00 00 00 00	 call	 @__security_check_cookie@4
  00032	8b e5		 mov	 esp, ebp
  00034	5d		 pop	 ebp
  00035	c3		 ret	 0
$LN2@RecvSpecif:
; File C:\Anka2Project\Anka2Project\Source\Binary\source\eterBase\Singleton.h

; 26   : 		assert(ms_singleton);

  00036	8b 0d 00 00 00
	00		 mov	 ecx, DWORD PTR ?ms_singleton@?$CSingleton@VCPythonCharacterManager@@@@0PAVCPythonCharacterManager@@A ; CSingleton<CPythonCharacterManager>::ms_singleton
  0003c	85 c9		 test	 ecx, ecx
  0003e	75 1a		 jne	 SHORT $LN8@RecvSpecif
  00040	6a 1a		 push	 26			; 0000001aH
  00042	68 00 00 00 00	 push	 OFFSET ??_C@_1IO@CAJLEEOI@?$AAC?$AA?3?$AA?2?$AAA?$AAn?$AAk?$AAa?$AA2?$AAP?$AAr?$AAo?$AAj?$AAe?$AAc?$AAt@
  00047	68 00 00 00 00	 push	 OFFSET ??_C@_1BK@FMEHPMFE@?$AAm?$AAs?$AA_?$AAs?$AAi?$AAn?$AAg?$AAl?$AAe?$AAt?$AAo?$AAn@
  0004c	e8 00 00 00 00	 call	 __wassert
  00051	8b 0d 00 00 00
	00		 mov	 ecx, DWORD PTR ?ms_singleton@?$CSingleton@VCPythonCharacterManager@@@@0PAVCPythonCharacterManager@@A ; CSingleton<CPythonCharacterManager>::ms_singleton
  00057	83 c4 0c	 add	 esp, 12			; 0000000cH
$LN8@RecvSpecif:
; File C:\Anka2Project\Anka2Project\Source\Binary\source\UserInterface\PythonNetworkStreamPhaseGameItem.cpp

; 1136 : 	CInstanceBase * pInstance = CPythonCharacterManager::Instance().GetInstancePtr(kSpecificEffect.vid);

  0005a	8b 41 04	 mov	 eax, DWORD PTR [ecx+4]
  0005d	83 c1 04	 add	 ecx, 4
  00060	56		 push	 esi
  00061	ff b5 75 ff ff
	ff		 push	 DWORD PTR _kSpecificEffect$[ebp+1]
  00067	ff 50 08	 call	 DWORD PTR [eax+8]
  0006a	8b f0		 mov	 esi, eax

; 1137 : 	//EFFECT_TEMP
; 1138 : 	if (pInstance)

  0006c	85 f6		 test	 esi, esi
  0006e	74 31		 je	 SHORT $LN3@RecvSpecif

; 1139 : 	{
; 1140 : 		CInstanceBase::RegisterEffect(CInstanceBase::EFFECT_TEMP, "", kSpecificEffect.effect_file, false);

  00070	6a 00		 push	 0
  00072	8d 85 79 ff ff
	ff		 lea	 eax, DWORD PTR _kSpecificEffect$[ebp+5]
  00078	ba 00 00 00 00	 mov	 edx, OFFSET ??_C@_00CNPNBAHC@@
  0007d	6a 00		 push	 0
  0007f	50		 push	 eax
  00080	b9 29 01 00 00	 mov	 ecx, 297		; 00000129H
  00085	e8 00 00 00 00	 call	 ?RegisterEffect@CInstanceBase@@SA_NIPBD0_N0@Z ; CInstanceBase::RegisterEffect

; 1141 : 		pInstance->AttachSpecialEffect(CInstanceBase::EFFECT_TEMP);

  0008a	f3 0f 10 15 00
	00 00 00	 movss	 xmm2, DWORD PTR __real@3f800000
  00092	83 c4 0c	 add	 esp, 12			; 0000000cH
  00095	8b ce		 mov	 ecx, esi
  00097	68 29 01 00 00	 push	 297			; 00000129H
  0009c	e8 00 00 00 00	 call	 ?AttachSpecialEffect@CInstanceBase@@QAEXKM@Z ; CInstanceBase::AttachSpecialEffect
$LN3@RecvSpecif:
; File C:\Program Files (x86)\Windows Kits\10\Include\10.0.26100.0\ucrt\string.h

; 520  :         return const_cast<char*>(strstr(static_cast<char const*>(_String), _SubString));

  000a1	8d 85 79 ff ff
	ff		 lea	 eax, DWORD PTR _kSpecificEffect$[ebp+5]
  000a7	68 00 00 00 00	 push	 OFFSET ??_C@_0BF@HCHHHOJB@yellow_tigerman_24_1@
  000ac	50		 push	 eax
  000ad	e8 00 00 00 00	 call	 _strstr
  000b2	83 c4 08	 add	 esp, 8
  000b5	5e		 pop	 esi
; File C:\Anka2Project\Anka2Project\Source\Binary\source\UserInterface\PythonNetworkStreamPhaseGameItem.cpp

; 1145 :     if (strstr(kSpecificEffect.effect_file, "yellow_tigerman_24_1"))

  000b6	85 c0		 test	 eax, eax
  000b8	74 2e		 je	 SHORT $LN4@RecvSpecif
; File C:\Anka2Project\Anka2Project\Source\Binary\source\eterBase\Singleton.h

; 26   : 		assert(ms_singleton);

  000ba	8b 0d 00 00 00
	00		 mov	 ecx, DWORD PTR ?ms_singleton@?$CSingleton@VCSoundManager@@@@0PAVCSoundManager@@A ; CSingleton<CSoundManager>::ms_singleton
  000c0	85 c9		 test	 ecx, ecx
  000c2	75 1a		 jne	 SHORT $LN13@RecvSpecif
  000c4	6a 1a		 push	 26			; 0000001aH
  000c6	68 00 00 00 00	 push	 OFFSET ??_C@_1IO@CAJLEEOI@?$AAC?$AA?3?$AA?2?$AAA?$AAn?$AAk?$AAa?$AA2?$AAP?$AAr?$AAo?$AAj?$AAe?$AAc?$AAt@
  000cb	68 00 00 00 00	 push	 OFFSET ??_C@_1BK@FMEHPMFE@?$AAm?$AAs?$AA_?$AAs?$AAi?$AAn?$AAg?$AAl?$AAe?$AAt?$AAo?$AAn@
  000d0	e8 00 00 00 00	 call	 __wassert
  000d5	8b 0d 00 00 00
	00		 mov	 ecx, DWORD PTR ?ms_singleton@?$CSingleton@VCSoundManager@@@@0PAVCSoundManager@@A ; CSingleton<CSoundManager>::ms_singleton
  000db	83 c4 0c	 add	 esp, 12			; 0000000cH
$LN13@RecvSpecif:
; File C:\Anka2Project\Anka2Project\Source\Binary\source\UserInterface\PythonNetworkStreamPhaseGameItem.cpp

; 1147 : 		CSoundManager::Instance().PlaySound2D("sound/ambience/gm_alert.wav");

  000de	68 00 00 00 00	 push	 OFFSET ??_C@_0BM@PCGGGFKG@sound?1ambience?1gm_alert?4wav@
  000e3	e8 00 00 00 00	 call	 ?PlaySound2D@CSoundManager@@QAEXPBD@Z ; CSoundManager::PlaySound2D
$LN4@RecvSpecif:

; 1148 :     }
; 1149 : 	#endif
; 1150 : 
; 1151 : 	return true;
; 1152 : }

  000e8	8b 4d fc	 mov	 ecx, DWORD PTR __$ArrayPad$[ebp]
  000eb	b0 01		 mov	 al, 1
  000ed	33 cd		 xor	 ecx, ebp
  000ef	e8 00 00 00 00	 call	 @__security_check_cookie@4
  000f4	8b e5		 mov	 esp, ebp
  000f6	5d		 pop	 ebp
  000f7	c3		 ret	 0
?RecvSpecificEffect@CPythonNetworkStream@@IAE_NXZ ENDP	; CPythonNetworkStream::RecvSpecificEffect
_TEXT	ENDS
; Function compile flags: /Ogtp
; File C:\Anka2Project\Anka2Project\Source\Binary\source\UserInterface\PythonNetworkStreamPhaseGameItem.cpp
; File C:\Anka2Project\Anka2Project\Source\Binary\source\eterBase\Singleton.h
; File C:\Anka2Project\Anka2Project\Source\Binary\source\UserInterface\PythonNetworkStreamPhaseGameItem.cpp
;	COMDAT ?RecvMallOpenPacket@CPythonNetworkStream@@QAE_NXZ
_TEXT	SEGMENT
_kMallOpen$ = -4					; size = 2
?RecvMallOpenPacket@CPythonNetworkStream@@QAE_NXZ PROC	; CPythonNetworkStream::RecvMallOpenPacket, COMDAT
; _this$ = ecx

; 184  : {

  00000	55		 push	 ebp
  00001	8b ec		 mov	 ebp, esp
  00003	51		 push	 ecx
  00004	56		 push	 esi

; 185  : 	TPacketGCMallOpen kMallOpen;
; 186  : 	if (!Recv(sizeof(kMallOpen), &kMallOpen))

  00005	8d 45 fc	 lea	 eax, DWORD PTR _kMallOpen$[ebp]
  00008	8b f1		 mov	 esi, ecx
  0000a	50		 push	 eax
  0000b	6a 02		 push	 2
  0000d	e8 00 00 00 00	 call	 ?Recv@CNetworkStream@@QAE_NHPAX@Z ; CNetworkStream::Recv
  00012	84 c0		 test	 al, al
  00014	75 05		 jne	 SHORT $LN2@RecvMallOp
  00016	5e		 pop	 esi

; 193  : }

  00017	8b e5		 mov	 esp, ebp
  00019	5d		 pop	 ebp
  0001a	c3		 ret	 0
$LN2@RecvMallOp:
; File C:\Anka2Project\Anka2Project\Source\Binary\source\eterBase\Singleton.h

; 26   : 		assert(ms_singleton);

  0001b	8b 0d 00 00 00
	00		 mov	 ecx, DWORD PTR ?ms_singleton@?$CSingleton@VCPythonSafeBox@@@@0PAVCPythonSafeBox@@A ; CSingleton<CPythonSafeBox>::ms_singleton
  00021	85 c9		 test	 ecx, ecx
  00023	75 1a		 jne	 SHORT $LN6@RecvMallOp
  00025	6a 1a		 push	 26			; 0000001aH
  00027	68 00 00 00 00	 push	 OFFSET ??_C@_1IO@CAJLEEOI@?$AAC?$AA?3?$AA?2?$AAA?$AAn?$AAk?$AAa?$AA2?$AAP?$AAr?$AAo?$AAj?$AAe?$AAc?$AAt@
  0002c	68 00 00 00 00	 push	 OFFSET ??_C@_1BK@FMEHPMFE@?$AAm?$AAs?$AA_?$AAs?$AAi?$AAn?$AAg?$AAl?$AAe?$AAt?$AAo?$AAn@
  00031	e8 00 00 00 00	 call	 __wassert
  00036	8b 0d 00 00 00
	00		 mov	 ecx, DWORD PTR ?ms_singleton@?$CSingleton@VCPythonSafeBox@@@@0PAVCPythonSafeBox@@A ; CSingleton<CPythonSafeBox>::ms_singleton
  0003c	83 c4 0c	 add	 esp, 12			; 0000000cH
$LN6@RecvMallOp:
; File C:\Anka2Project\Anka2Project\Source\Binary\source\UserInterface\PythonNetworkStreamPhaseGameItem.cpp

; 189  : 	CPythonSafeBox::Instance().OpenMall(kMallOpen.bSize);

  0003f	0f b6 45 fd	 movzx	 eax, BYTE PTR _kMallOpen$[ebp+1]
  00043	50		 push	 eax
  00044	e8 00 00 00 00	 call	 ?OpenMall@CPythonSafeBox@@QAEXH@Z ; CPythonSafeBox::OpenMall

; 190  : 	PyCallClassMemberFunc(m_apoPhaseWnd[PHASE_WINDOW_GAME], "OpenMallWindow", Py_BuildValue("(i)", kMallOpen.bSize));

  00049	0f b6 45 fd	 movzx	 eax, BYTE PTR _kMallOpen$[ebp+1]
  0004d	50		 push	 eax
  0004e	68 00 00 00 00	 push	 OFFSET ??_C@_03LIHNMIHG@?$CIi?$CJ@
  00053	ff 15 00 00 00
	00		 call	 DWORD PTR __imp__Py_BuildValue
  00059	50		 push	 eax
  0005a	68 00 00 00 00	 push	 OFFSET ??_C@_0P@OIFPJOPL@OpenMallWindow@
  0005f	ff b6 98 01 00
	00		 push	 DWORD PTR [esi+408]
  00065	e8 00 00 00 00	 call	 ?PyCallClassMemberFunc@@YA_NPAU_object@@PBD0@Z ; PyCallClassMemberFunc
  0006a	83 c4 14	 add	 esp, 20			; 00000014H

; 191  : 
; 192  : 	return true;

  0006d	b0 01		 mov	 al, 1
  0006f	5e		 pop	 esi

; 193  : }

  00070	8b e5		 mov	 esp, ebp
  00072	5d		 pop	 ebp
  00073	c3		 ret	 0
?RecvMallOpenPacket@CPythonNetworkStream@@QAE_NXZ ENDP	; CPythonNetworkStream::RecvMallOpenPacket
_TEXT	ENDS
; Function compile flags: /Ogtp
; File C:\Anka2Project\Anka2Project\Source\Binary\source\UserInterface\PythonNetworkStreamPhaseGameItem.cpp
; File C:\Anka2Project\Anka2Project\Source\Binary\source\UserInterface\AbstractSingleton.h
; File C:\Anka2Project\Anka2Project\Source\Binary\source\UserInterface\PythonNetworkStreamPhaseGameItem.cpp
; File C:\Anka2Project\Anka2Project\Source\Binary\source\eterBase\Singleton.h
; File C:\Anka2Project\Anka2Project\Source\Binary\source\UserInterface\PythonNetworkStreamPhaseGameItem.cpp
; File C:\Anka2Project\Anka2Project\Source\Binary\source\eterBase\Singleton.h
; File C:\Anka2Project\Anka2Project\Source\Binary\source\UserInterface\PythonNetworkStreamPhaseGameItem.cpp
; File C:\Anka2Project\Anka2Project\Source\Binary\source\eterBase\Singleton.h
; File C:\Anka2Project\Anka2Project\Source\Binary\source\UserInterface\PythonNetworkStreamPhaseGameItem.cpp
; File C:\Anka2Project\Anka2Project\Source\Binary\source\eterBase\Singleton.h
; File C:\Anka2Project\Anka2Project\Source\Binary\source\UserInterface\PythonNetworkStreamPhaseGameItem.cpp
; File C:\Anka2Project\Anka2Project\Source\Binary\source\eterBase\Singleton.h
; File C:\Anka2Project\Anka2Project\Source\Binary\source\UserInterface\PythonNetworkStreamPhaseGameItem.cpp
; File C:\Anka2Project\Anka2Project\Source\Binary\source\eterBase\Singleton.h
; File C:\Anka2Project\Anka2Project\Source\Binary\source\UserInterface\PythonNetworkStreamPhaseGameItem.cpp
; File C:\Anka2Project\Anka2Project\Source\Binary\source\UserInterface\AbstractSingleton.h
; File C:\Anka2Project\Anka2Project\Source\Binary\source\UserInterface\PythonNetworkStreamPhaseGameItem.cpp
; File C:\Anka2Project\Anka2Project\Source\Binary\source\eterBase\Singleton.h
; File C:\Anka2Project\Anka2Project\Source\Binary\source\UserInterface\PythonNetworkStreamPhaseGameItem.cpp
; File C:\Anka2Project\Anka2Project\Source\Binary\source\eterBase\Singleton.h
; File C:\Anka2Project\Anka2Project\Source\Binary\source\UserInterface\PythonNetworkStreamPhaseGameItem.cpp
;	COMDAT ?RecvSpecialEffect@CPythonNetworkStream@@IAE_NXZ
_TEXT	SEGMENT
_kSpecialEffect$ = -8					; size = 6
?RecvSpecialEffect@CPythonNetworkStream@@IAE_NXZ PROC	; CPythonNetworkStream::RecvSpecialEffect, COMDAT
; _this$ = ecx

; 926  : {

  00000	55		 push	 ebp
  00001	8b ec		 mov	 ebp, esp
  00003	83 ec 08	 sub	 esp, 8

; 927  : 	TPacketGCSpecialEffect kSpecialEffect;
; 928  : 	if (!Recv(sizeof(kSpecialEffect), &kSpecialEffect))

  00006	8d 45 f8	 lea	 eax, DWORD PTR _kSpecialEffect$[ebp]
  00009	50		 push	 eax
  0000a	6a 06		 push	 6
  0000c	e8 00 00 00 00	 call	 ?Recv@CNetworkStream@@QAE_NHPAX@Z ; CNetworkStream::Recv
  00011	84 c0		 test	 al, al
  00013	75 04		 jne	 SHORT $LN4@RecvSpecia

; 1128 : }

  00015	8b e5		 mov	 esp, ebp
  00017	5d		 pop	 ebp
  00018	c3		 ret	 0
$LN4@RecvSpecia:

; 929  : 		return false;
; 930  : 
; 931  : 	DWORD effect = -1;
; 932  : 	bool bPlayPotionSound = false;
; 933  : 	bool bAttachEffect = true;
; 934  : 
; 935  : 	switch (kSpecialEffect.type)

  00019	0f b6 45 f9	 movzx	 eax, BYTE PTR _kSpecialEffect$[ebp+1]
  0001d	53		 push	 ebx
  0001e	56		 push	 esi
  0001f	b3 01		 mov	 bl, 1
  00021	8d 48 ff	 lea	 ecx, DWORD PTR [eax-1]
  00024	83 f9 1c	 cmp	 ecx, 28			; 0000001cH
  00027	0f 87 f9 02 00
	00		 ja	 $LN34@RecvSpecia
  0002d	ff 24 8d 00 00
	00 00		 jmp	 DWORD PTR $LN83@RecvSpecia[ecx*4]
$LN5@RecvSpecia:

; 936  : 	{
; 937  : 		case SE_HPUP_RED:
; 938  : 			effect = CInstanceBase::EFFECT_HPUP_RED;

  00034	be 0d 00 00 00	 mov	 esi, 13			; 0000000dH

; 939  : 			bPlayPotionSound = true;
; 940  : 			break;

  00039	eb 13		 jmp	 SHORT $LN81@RecvSpecia
$LN6@RecvSpecia:

; 941  : 
; 942  : 		case SE_SPUP_BLUE:
; 943  : 			effect = CInstanceBase::EFFECT_SPUP_BLUE;

  0003b	be 0e 00 00 00	 mov	 esi, 14			; 0000000eH

; 944  : 			bPlayPotionSound = true;
; 945  : 			break;

  00040	eb 0c		 jmp	 SHORT $LN81@RecvSpecia
$LN7@RecvSpecia:

; 946  : 
; 947  : 		case SE_SPEEDUP_GREEN:
; 948  : 			effect = CInstanceBase::EFFECT_SPEEDUP_GREEN;

  00042	be 0f 00 00 00	 mov	 esi, 15			; 0000000fH

; 949  : 			bPlayPotionSound = true;
; 950  : 			break;

  00047	eb 05		 jmp	 SHORT $LN81@RecvSpecia
$LN8@RecvSpecia:

; 951  : 
; 952  : 		case SE_DXUP_PURPLE:
; 953  : 			effect = CInstanceBase::EFFECT_DXUP_PURPLE;

  00049	be 10 00 00 00	 mov	 esi, 16			; 00000010H
$LN81@RecvSpecia:
; File C:\Anka2Project\Anka2Project\Source\Binary\source\UserInterface\AbstractSingleton.h

; 24   : 		assert(ms_singleton!=nullptr);

  0004e	8b 0d 00 00 00
	00		 mov	 ecx, DWORD PTR ?ms_singleton@?$TAbstractSingleton@VIAbstractPlayer@@@@0PAVIAbstractPlayer@@A ; TAbstractSingleton<IAbstractPlayer>::ms_singleton
  00054	85 c9		 test	 ecx, ecx
  00056	75 1a		 jne	 SHORT $LN53@RecvSpecia
  00058	6a 18		 push	 24			; 00000018H
  0005a	68 00 00 00 00	 push	 OFFSET ??_C@_1KI@FIPHLMOB@?$AAC?$AA?3?$AA?2?$AAA?$AAn?$AAk?$AAa?$AA2?$AAP?$AAr?$AAo?$AAj?$AAe?$AAc?$AAt@
  0005f	68 00 00 00 00	 push	 OFFSET ??_C@_1CM@FPMBEAEA@?$AAm?$AAs?$AA_?$AAs?$AAi?$AAn?$AAg?$AAl?$AAe?$AAt?$AAo?$AAn?$AA?$CB?$AA?$DN?$AAn@
  00064	e8 00 00 00 00	 call	 __wassert
  00069	8b 0d 00 00 00
	00		 mov	 ecx, DWORD PTR ?ms_singleton@?$TAbstractSingleton@VIAbstractPlayer@@@@0PAVIAbstractPlayer@@A ; TAbstractSingleton<IAbstractPlayer>::ms_singleton
  0006f	83 c4 0c	 add	 esp, 12			; 0000000cH
$LN53@RecvSpecia:
; File C:\Anka2Project\Anka2Project\Source\Binary\source\UserInterface\PythonNetworkStreamPhaseGameItem.cpp

; 1076 : 		if(rkPlayer.IsMainCharacterIndex(kSpecialEffect.vid))

  00072	8b 01		 mov	 eax, DWORD PTR [ecx]
  00074	ff 75 fa	 push	 DWORD PTR _kSpecialEffect$[ebp+2]
  00077	8b 40 0c	 mov	 eax, DWORD PTR [eax+12]
  0007a	ff d0		 call	 eax
  0007c	84 c0		 test	 al, al
  0007e	0f 84 ef 00 00
	00		 je	 $LN36@RecvSpecia
; File C:\Anka2Project\Anka2Project\Source\Binary\source\eterBase\Singleton.h

; 26   : 		assert(ms_singleton);

  00084	8b 0d 00 00 00
	00		 mov	 ecx, DWORD PTR ?ms_singleton@?$CSingleton@VCPythonItem@@@@0PAVCPythonItem@@A ; CSingleton<CPythonItem>::ms_singleton
  0008a	85 c9		 test	 ecx, ecx
  0008c	75 1a		 jne	 SHORT $LN56@RecvSpecia
  0008e	6a 1a		 push	 26			; 0000001aH
  00090	68 00 00 00 00	 push	 OFFSET ??_C@_1IO@CAJLEEOI@?$AAC?$AA?3?$AA?2?$AAA?$AAn?$AAk?$AAa?$AA2?$AAP?$AAr?$AAo?$AAj?$AAe?$AAc?$AAt@
  00095	68 00 00 00 00	 push	 OFFSET ??_C@_1BK@FMEHPMFE@?$AAm?$AAs?$AA_?$AAs?$AAi?$AAn?$AAg?$AAl?$AAe?$AAt?$AAo?$AAn@
  0009a	e8 00 00 00 00	 call	 __wassert
  0009f	8b 0d 00 00 00
	00		 mov	 ecx, DWORD PTR ?ms_singleton@?$CSingleton@VCPythonItem@@@@0PAVCPythonItem@@A ; CSingleton<CPythonItem>::ms_singleton
  000a5	83 c4 0c	 add	 esp, 12			; 0000000cH
$LN56@RecvSpecia:
; File C:\Anka2Project\Anka2Project\Source\Binary\source\UserInterface\PythonNetworkStreamPhaseGameItem.cpp

; 1079 : 			rkItem.PlayUsePotionSound();

  000a8	e8 00 00 00 00	 call	 ?PlayUsePotionSound@CPythonItem@@QAEXXZ ; CPythonItem::PlayUsePotionSound
  000ad	e9 c1 00 00 00	 jmp	 $LN36@RecvSpecia
$LN9@RecvSpecia:

; 954  : 			bPlayPotionSound = true;
; 955  : 			break;
; 956  : 
; 957  : 		case SE_CRITICAL:
; 958  : 			effect = CInstanceBase::EFFECT_CRITICAL;

  000b2	be 11 00 00 00	 mov	 esi, 17			; 00000011H

; 959  : 			break;

  000b7	e9 b7 00 00 00	 jmp	 $LN36@RecvSpecia
$LN10@RecvSpecia:

; 960  : 
; 961  : 		case SE_PENETRATE:
; 962  : 			effect = CInstanceBase::EFFECT_PENETRATE;

  000bc	be 12 00 00 00	 mov	 esi, 18			; 00000012H

; 963  : 			break;

  000c1	e9 ad 00 00 00	 jmp	 $LN36@RecvSpecia
$LN11@RecvSpecia:

; 964  : 
; 965  : 		case SE_BLOCK:
; 966  : 			effect = CInstanceBase::EFFECT_BLOCK;

  000c6	be 13 00 00 00	 mov	 esi, 19			; 00000013H

; 967  : 			break;

  000cb	e9 a3 00 00 00	 jmp	 $LN36@RecvSpecia
$LN12@RecvSpecia:

; 968  : 
; 969  : 		case SE_DODGE:
; 970  : 			effect = CInstanceBase::EFFECT_DODGE;

  000d0	be 14 00 00 00	 mov	 esi, 20			; 00000014H

; 971  : 			break;

  000d5	e9 99 00 00 00	 jmp	 $LN36@RecvSpecia
$LN13@RecvSpecia:

; 972  : 
; 973  : 		case SE_CHINA_FIREWORK:
; 974  : 			effect = CInstanceBase::EFFECT_FIRECRACKER;

  000da	be 15 00 00 00	 mov	 esi, 21			; 00000015H

; 975  : 			bAttachEffect = false;
; 976  : 			break;

  000df	e9 8d 00 00 00	 jmp	 $LN106@RecvSpecia
$LN14@RecvSpecia:

; 977  : 
; 978  : 		case SE_SPIN_TOP:
; 979  : 			effect = CInstanceBase::EFFECT_SPIN_TOP;

  000e4	be 16 00 00 00	 mov	 esi, 22			; 00000016H

; 980  : 			bAttachEffect = false;
; 981  : 			break;

  000e9	e9 83 00 00 00	 jmp	 $LN106@RecvSpecia
$LN15@RecvSpecia:

; 982  : 
; 983  : 		case SE_SUCCESS :
; 984  : 			effect = CInstanceBase::EFFECT_SUCCESS;

  000ee	be 1d 01 00 00	 mov	 esi, 285		; 0000011dH

; 985  : 			bAttachEffect = false;
; 986  : 			break;

  000f3	eb 7c		 jmp	 SHORT $LN106@RecvSpecia
$LN16@RecvSpecia:

; 987  : 
; 988  : 		case SE_FAIL :
; 989  : 			effect = CInstanceBase::EFFECT_FAIL;

  000f5	be 1e 01 00 00	 mov	 esi, 286		; 0000011eH

; 990  : 			break;

  000fa	eb 77		 jmp	 SHORT $LN36@RecvSpecia
$LN17@RecvSpecia:

; 991  : 
; 992  : 		case SE_FR_SUCCESS:
; 993  : 			effect = CInstanceBase::EFFECT_FR_SUCCESS;

  000fc	be 1f 01 00 00	 mov	 esi, 287		; 0000011fH

; 994  : 			bAttachEffect = false;
; 995  : 			break;

  00101	eb 6e		 jmp	 SHORT $LN106@RecvSpecia
$LN18@RecvSpecia:

; 996  : 
; 997  : 		case SE_PERCENT_DAMAGE1:
; 998  : 			effect = CInstanceBase::EFFECT_PERCENT_DAMAGE1;

  00103	be 20 01 00 00	 mov	 esi, 288		; 00000120H

; 999  : 			break;

  00108	eb 69		 jmp	 SHORT $LN36@RecvSpecia
$LN19@RecvSpecia:

; 1000 : 
; 1001 : 		case SE_PERCENT_DAMAGE2:
; 1002 : 			effect = CInstanceBase::EFFECT_PERCENT_DAMAGE2;

  0010a	be 21 01 00 00	 mov	 esi, 289		; 00000121H

; 1003 : 			break;

  0010f	eb 62		 jmp	 SHORT $LN36@RecvSpecia
$LN20@RecvSpecia:

; 1004 : 
; 1005 : 		case SE_PERCENT_DAMAGE3:
; 1006 : 			effect = CInstanceBase::EFFECT_PERCENT_DAMAGE3;

  00111	be 22 01 00 00	 mov	 esi, 290		; 00000122H

; 1007 : 			break;

  00116	eb 5b		 jmp	 SHORT $LN36@RecvSpecia
$LN21@RecvSpecia:

; 1008 : 
; 1009 : 		case SE_AUTO_HPUP:
; 1010 : 			effect = CInstanceBase::EFFECT_AUTO_HPUP;

  00118	be 23 01 00 00	 mov	 esi, 291		; 00000123H

; 1011 : 			break;

  0011d	eb 54		 jmp	 SHORT $LN36@RecvSpecia
$LN22@RecvSpecia:

; 1012 : 
; 1013 : 		case SE_AUTO_SPUP:
; 1014 : 			effect = CInstanceBase::EFFECT_AUTO_SPUP;

  0011f	be 24 01 00 00	 mov	 esi, 292		; 00000124H

; 1015 : 			break;

  00124	eb 4d		 jmp	 SHORT $LN36@RecvSpecia
$LN23@RecvSpecia:

; 1016 : 
; 1017 : 		case SE_EQUIP_RAMADAN_RING:
; 1018 : 			effect = CInstanceBase::EFFECT_RAMADAN_RING_EQUIP;

  00126	be 25 01 00 00	 mov	 esi, 293		; 00000125H

; 1019 : 			break;

  0012b	eb 46		 jmp	 SHORT $LN36@RecvSpecia
$LN24@RecvSpecia:

; 1020 : 
; 1021 : 		case SE_EQUIP_HALLOWEEN_CANDY:
; 1022 : 			effect = CInstanceBase::EFFECT_HALLOWEEN_CANDY_EQUIP;

  0012d	be 26 01 00 00	 mov	 esi, 294		; 00000126H

; 1023 : 			break;

  00132	eb 3f		 jmp	 SHORT $LN36@RecvSpecia
$LN25@RecvSpecia:

; 1024 : 
; 1025 : 		case SE_EQUIP_HAPPINESS_RING:
; 1026 :  			effect = CInstanceBase::EFFECT_HAPPINESS_RING_EQUIP;

  00134	be 27 01 00 00	 mov	 esi, 295		; 00000127H

; 1027 : 			break;

  00139	eb 38		 jmp	 SHORT $LN36@RecvSpecia
$LN26@RecvSpecia:

; 1028 : 
; 1029 : 		case SE_EQUIP_LOVE_PENDANT:
; 1030 : 			effect = CInstanceBase::EFFECT_LOVE_PENDANT_EQUIP;

  0013b	be 28 01 00 00	 mov	 esi, 296		; 00000128H

; 1031 : 			break;

  00140	eb 31		 jmp	 SHORT $LN36@RecvSpecia
$LN27@RecvSpecia:

; 1032 : 
; 1033 : #ifdef ENABLE_ACCE_COSTUME_SYSTEM
; 1034 : 		case SE_EFFECT_ACCE_SUCCEDED:
; 1035 : 			effect = CInstanceBase::EFFECT_ACCE_SUCCEDED;

  00142	be 2a 01 00 00	 mov	 esi, 298		; 0000012aH

; 1036 : 			break;

  00147	eb 2a		 jmp	 SHORT $LN36@RecvSpecia
$LN28@RecvSpecia:

; 1037 : 
; 1038 : 		case SE_EFFECT_ACCE_EQUIP:
; 1039 : 			effect = CInstanceBase::EFFECT_ACCE_EQUIP;

  00149	be 2b 01 00 00	 mov	 esi, 299		; 0000012bH

; 1040 : 			break;

  0014e	eb 23		 jmp	 SHORT $LN36@RecvSpecia
$LN29@RecvSpecia:

; 1041 : #endif
; 1042 : 
; 1043 : #ifdef ENABLE_RENEWAL_BATTLE_PASS
; 1044 : 		case SE_EFFECT_BP_NORMAL_MISSION_COMPLETED:
; 1045 : 			effect = CInstanceBase::EFFECT_BP_NORMAL_MISSION_COMPLETED;

  00150	be 2d 01 00 00	 mov	 esi, 301		; 0000012dH

; 1046 : 			break;

  00155	eb 1c		 jmp	 SHORT $LN36@RecvSpecia
$LN30@RecvSpecia:

; 1047 : 
; 1048 : 		case SE_EFFECT_BP_PREMIUM_MISSION_COMPLETED:
; 1049 : 			effect = CInstanceBase::EFFECT_BP_PREMIUM_MISSION_COMPLETED;

  00157	be 2e 01 00 00	 mov	 esi, 302		; 0000012eH

; 1050 : 			break;

  0015c	eb 15		 jmp	 SHORT $LN36@RecvSpecia
$LN31@RecvSpecia:

; 1051 : 
; 1052 : 		case SE_EFFECT_BP_NORMAL_BATTLEPASS_COMPLETED:
; 1053 : 			effect = CInstanceBase::EFFECT_BP_NORMAL_BATTLEPASS_COMPLETED;

  0015e	be 2f 01 00 00	 mov	 esi, 303		; 0000012fH

; 1054 : 			break;

  00163	eb 0e		 jmp	 SHORT $LN36@RecvSpecia
$LN32@RecvSpecia:

; 1055 : 
; 1056 : 		case SE_EFFECT_BP_PREMIUM_BATTLEPASS_COMPLETED:
; 1057 : 			effect = CInstanceBase::EFFECT_BP_PREMIUM_BATTLEPASS_COMPLETED;

  00165	be 30 01 00 00	 mov	 esi, 304		; 00000130H

; 1058 : 			break;

  0016a	eb 07		 jmp	 SHORT $LN36@RecvSpecia
$LN33@RecvSpecia:

; 1059 : #endif
; 1060 : 
; 1061 : #ifdef ENABLE_GROWTH_PET_SYSTEM
; 1062 : 		case SE_GYEONGGONG_BOOM:
; 1063 : 			effect = CInstanceBase::EFFECT_GYEONGGONG_BOOM;

  0016c	be 31 01 00 00	 mov	 esi, 305		; 00000131H
$LN106@RecvSpecia:
; File C:\Anka2Project\Anka2Project\Source\Binary\source\eterBase\Singleton.h

; 26   : 		assert(ms_singleton);

  00171	32 db		 xor	 bl, bl
$LN36@RecvSpecia:
  00173	8b 0d 00 00 00
	00		 mov	 ecx, DWORD PTR ?ms_singleton@?$CSingleton@VCPythonSystem@@@@0PAVCPythonSystem@@A ; CSingleton<CPythonSystem>::ms_singleton
  00179	85 c9		 test	 ecx, ecx
  0017b	75 1a		 jne	 SHORT $LN59@RecvSpecia
  0017d	6a 1a		 push	 26			; 0000001aH
  0017f	68 00 00 00 00	 push	 OFFSET ??_C@_1IO@CAJLEEOI@?$AAC?$AA?3?$AA?2?$AAA?$AAn?$AAk?$AAa?$AA2?$AAP?$AAr?$AAo?$AAj?$AAe?$AAc?$AAt@
  00184	68 00 00 00 00	 push	 OFFSET ??_C@_1BK@FMEHPMFE@?$AAm?$AAs?$AA_?$AAs?$AAi?$AAn?$AAg?$AAl?$AAe?$AAt?$AAo?$AAn@
  00189	e8 00 00 00 00	 call	 __wassert
  0018e	8b 0d 00 00 00
	00		 mov	 ecx, DWORD PTR ?ms_singleton@?$CSingleton@VCPythonSystem@@@@0PAVCPythonSystem@@A ; CSingleton<CPythonSystem>::ms_singleton
  00194	83 c4 0c	 add	 esp, 12			; 0000000cH
$LN59@RecvSpecia:
; File C:\Anka2Project\Anka2Project\Source\Binary\source\UserInterface\PythonNetworkStreamPhaseGameItem.cpp

; 1084 : 	if (-1 != effect && CPythonSystem::Instance().GetEffectLevel() != 4)

  00197	e8 00 00 00 00	 call	 ?GetEffectLevel@CPythonSystem@@QAEHXZ ; CPythonSystem::GetEffectLevel
  0019c	83 f8 04	 cmp	 eax, 4
  0019f	0f 84 8f 01 00
	00		 je	 $LN43@RecvSpecia
; File C:\Anka2Project\Anka2Project\Source\Binary\source\eterBase\Singleton.h

; 26   : 		assert(ms_singleton);

  001a5	85 c9		 test	 ecx, ecx
  001a7	75 1a		 jne	 SHORT $LN62@RecvSpecia
  001a9	6a 1a		 push	 26			; 0000001aH
  001ab	68 00 00 00 00	 push	 OFFSET ??_C@_1IO@CAJLEEOI@?$AAC?$AA?3?$AA?2?$AAA?$AAn?$AAk?$AAa?$AA2?$AAP?$AAr?$AAo?$AAj?$AAe?$AAc?$AAt@
  001b0	68 00 00 00 00	 push	 OFFSET ??_C@_1BK@FMEHPMFE@?$AAm?$AAs?$AA_?$AAs?$AAi?$AAn?$AAg?$AAl?$AAe?$AAt?$AAo?$AAn@
  001b5	e8 00 00 00 00	 call	 __wassert
  001ba	8b 0d 00 00 00
	00		 mov	 ecx, DWORD PTR ?ms_singleton@?$CSingleton@VCPythonSystem@@@@0PAVCPythonSystem@@A ; CSingleton<CPythonSystem>::ms_singleton
  001c0	83 c4 0c	 add	 esp, 12			; 0000000cH
$LN62@RecvSpecia:
; File C:\Anka2Project\Anka2Project\Source\Binary\source\UserInterface\PythonNetworkStreamPhaseGameItem.cpp

; 1086 : 		if (CPythonSystem::Instance().GetEffectLevel() == 0 || CPythonSystem::Instance().GetEffectLevel() == 2)

  001c3	e8 00 00 00 00	 call	 ?GetEffectLevel@CPythonSystem@@QAEHXZ ; CPythonSystem::GetEffectLevel
  001c8	85 c0		 test	 eax, eax
  001ca	0f 84 06 01 00
	00		 je	 $LN40@RecvSpecia
; File C:\Anka2Project\Anka2Project\Source\Binary\source\eterBase\Singleton.h

; 26   : 		assert(ms_singleton);

  001d0	85 c9		 test	 ecx, ecx
  001d2	75 1a		 jne	 SHORT $LN65@RecvSpecia
  001d4	6a 1a		 push	 26			; 0000001aH
  001d6	68 00 00 00 00	 push	 OFFSET ??_C@_1IO@CAJLEEOI@?$AAC?$AA?3?$AA?2?$AAA?$AAn?$AAk?$AAa?$AA2?$AAP?$AAr?$AAo?$AAj?$AAe?$AAc?$AAt@
  001db	68 00 00 00 00	 push	 OFFSET ??_C@_1BK@FMEHPMFE@?$AAm?$AAs?$AA_?$AAs?$AAi?$AAn?$AAg?$AAl?$AAe?$AAt?$AAo?$AAn@
  001e0	e8 00 00 00 00	 call	 __wassert
  001e5	8b 0d 00 00 00
	00		 mov	 ecx, DWORD PTR ?ms_singleton@?$CSingleton@VCPythonSystem@@@@0PAVCPythonSystem@@A ; CSingleton<CPythonSystem>::ms_singleton
  001eb	83 c4 0c	 add	 esp, 12			; 0000000cH
$LN65@RecvSpecia:
; File C:\Anka2Project\Anka2Project\Source\Binary\source\UserInterface\PythonNetworkStreamPhaseGameItem.cpp

; 1086 : 		if (CPythonSystem::Instance().GetEffectLevel() == 0 || CPythonSystem::Instance().GetEffectLevel() == 2)

  001ee	e8 00 00 00 00	 call	 ?GetEffectLevel@CPythonSystem@@QAEHXZ ; CPythonSystem::GetEffectLevel
  001f3	83 f8 02	 cmp	 eax, 2
  001f6	0f 84 da 00 00
	00		 je	 $LN40@RecvSpecia
; File C:\Anka2Project\Anka2Project\Source\Binary\source\eterBase\Singleton.h

; 26   : 		assert(ms_singleton);

  001fc	85 c9		 test	 ecx, ecx
  001fe	75 1a		 jne	 SHORT $LN71@RecvSpecia
  00200	6a 1a		 push	 26			; 0000001aH
  00202	68 00 00 00 00	 push	 OFFSET ??_C@_1IO@CAJLEEOI@?$AAC?$AA?3?$AA?2?$AAA?$AAn?$AAk?$AAa?$AA2?$AAP?$AAr?$AAo?$AAj?$AAe?$AAc?$AAt@
  00207	68 00 00 00 00	 push	 OFFSET ??_C@_1BK@FMEHPMFE@?$AAm?$AAs?$AA_?$AAs?$AAi?$AAn?$AAg?$AAl?$AAe?$AAt?$AAo?$AAn@
  0020c	e8 00 00 00 00	 call	 __wassert
  00211	8b 0d 00 00 00
	00		 mov	 ecx, DWORD PTR ?ms_singleton@?$CSingleton@VCPythonSystem@@@@0PAVCPythonSystem@@A ; CSingleton<CPythonSystem>::ms_singleton
  00217	83 c4 0c	 add	 esp, 12			; 0000000cH
$LN71@RecvSpecia:
; File C:\Anka2Project\Anka2Project\Source\Binary\source\UserInterface\PythonNetworkStreamPhaseGameItem.cpp

; 1097 : 		else if (CPythonSystem::Instance().GetEffectLevel() == 1 || CPythonSystem::Instance().GetEffectLevel() == 3)

  0021a	e8 00 00 00 00	 call	 ?GetEffectLevel@CPythonSystem@@QAEHXZ ; CPythonSystem::GetEffectLevel
  0021f	83 f8 01	 cmp	 eax, 1
  00222	74 2c		 je	 SHORT $LN45@RecvSpecia
; File C:\Anka2Project\Anka2Project\Source\Binary\source\eterBase\Singleton.h

; 26   : 		assert(ms_singleton);

  00224	85 c9		 test	 ecx, ecx
  00226	75 1a		 jne	 SHORT $LN74@RecvSpecia
  00228	6a 1a		 push	 26			; 0000001aH
  0022a	68 00 00 00 00	 push	 OFFSET ??_C@_1IO@CAJLEEOI@?$AAC?$AA?3?$AA?2?$AAA?$AAn?$AAk?$AAa?$AA2?$AAP?$AAr?$AAo?$AAj?$AAe?$AAc?$AAt@
  0022f	68 00 00 00 00	 push	 OFFSET ??_C@_1BK@FMEHPMFE@?$AAm?$AAs?$AA_?$AAs?$AAi?$AAn?$AAg?$AAl?$AAe?$AAt?$AAo?$AAn@
  00234	e8 00 00 00 00	 call	 __wassert
  00239	8b 0d 00 00 00
	00		 mov	 ecx, DWORD PTR ?ms_singleton@?$CSingleton@VCPythonSystem@@@@0PAVCPythonSystem@@A ; CSingleton<CPythonSystem>::ms_singleton
  0023f	83 c4 0c	 add	 esp, 12			; 0000000cH
$LN74@RecvSpecia:
; File C:\Anka2Project\Anka2Project\Source\Binary\source\UserInterface\PythonNetworkStreamPhaseGameItem.cpp

; 1097 : 		else if (CPythonSystem::Instance().GetEffectLevel() == 1 || CPythonSystem::Instance().GetEffectLevel() == 3)

  00242	e8 00 00 00 00	 call	 ?GetEffectLevel@CPythonSystem@@QAEHXZ ; CPythonSystem::GetEffectLevel
  00247	83 f8 03	 cmp	 eax, 3
  0024a	0f 85 e4 00 00
	00		 jne	 $LN43@RecvSpecia
$LN45@RecvSpecia:
; File C:\Anka2Project\Anka2Project\Source\Binary\source\UserInterface\AbstractSingleton.h

; 24   : 		assert(ms_singleton!=nullptr);

  00250	8b 0d 00 00 00
	00		 mov	 ecx, DWORD PTR ?ms_singleton@?$TAbstractSingleton@VIAbstractPlayer@@@@0PAVIAbstractPlayer@@A ; TAbstractSingleton<IAbstractPlayer>::ms_singleton
  00256	85 c9		 test	 ecx, ecx
  00258	75 1a		 jne	 SHORT $LN77@RecvSpecia
  0025a	6a 18		 push	 24			; 00000018H
  0025c	68 00 00 00 00	 push	 OFFSET ??_C@_1KI@FIPHLMOB@?$AAC?$AA?3?$AA?2?$AAA?$AAn?$AAk?$AAa?$AA2?$AAP?$AAr?$AAo?$AAj?$AAe?$AAc?$AAt@
  00261	68 00 00 00 00	 push	 OFFSET ??_C@_1CM@FPMBEAEA@?$AAm?$AAs?$AA_?$AAs?$AAi?$AAn?$AAg?$AAl?$AAe?$AAt?$AAo?$AAn?$AA?$CB?$AA?$DN?$AAn@
  00266	e8 00 00 00 00	 call	 __wassert
  0026b	8b 0d 00 00 00
	00		 mov	 ecx, DWORD PTR ?ms_singleton@?$TAbstractSingleton@VIAbstractPlayer@@@@0PAVIAbstractPlayer@@A ; TAbstractSingleton<IAbstractPlayer>::ms_singleton
  00271	83 c4 0c	 add	 esp, 12			; 0000000cH
$LN77@RecvSpecia:
; File C:\Anka2Project\Anka2Project\Source\Binary\source\UserInterface\PythonNetworkStreamPhaseGameItem.cpp

; 1100 : 			if (rkPlayer.IsMainCharacterIndex(kSpecialEffect.vid))

  00274	8b 01		 mov	 eax, DWORD PTR [ecx]
  00276	ff 75 fa	 push	 DWORD PTR _kSpecialEffect$[ebp+2]
  00279	8b 40 0c	 mov	 eax, DWORD PTR [eax+12]
  0027c	ff d0		 call	 eax
  0027e	84 c0		 test	 al, al
  00280	0f 84 ae 00 00
	00		 je	 $LN43@RecvSpecia
; File C:\Anka2Project\Anka2Project\Source\Binary\source\eterBase\Singleton.h

; 26   : 		assert(ms_singleton);

  00286	8b 0d 00 00 00
	00		 mov	 ecx, DWORD PTR ?ms_singleton@?$CSingleton@VCPythonCharacterManager@@@@0PAVCPythonCharacterManager@@A ; CSingleton<CPythonCharacterManager>::ms_singleton
  0028c	85 c9		 test	 ecx, ecx
  0028e	75 1a		 jne	 SHORT $LN80@RecvSpecia
  00290	6a 1a		 push	 26			; 0000001aH
  00292	68 00 00 00 00	 push	 OFFSET ??_C@_1IO@CAJLEEOI@?$AAC?$AA?3?$AA?2?$AAA?$AAn?$AAk?$AAa?$AA2?$AAP?$AAr?$AAo?$AAj?$AAe?$AAc?$AAt@
  00297	68 00 00 00 00	 push	 OFFSET ??_C@_1BK@FMEHPMFE@?$AAm?$AAs?$AA_?$AAs?$AAi?$AAn?$AAg?$AAl?$AAe?$AAt?$AAo?$AAn@
  0029c	e8 00 00 00 00	 call	 __wassert
  002a1	8b 0d 00 00 00
	00		 mov	 ecx, DWORD PTR ?ms_singleton@?$CSingleton@VCPythonCharacterManager@@@@0PAVCPythonCharacterManager@@A ; CSingleton<CPythonCharacterManager>::ms_singleton
  002a7	83 c4 0c	 add	 esp, 12			; 0000000cH
$LN80@RecvSpecia:
; File C:\Anka2Project\Anka2Project\Source\Binary\source\UserInterface\PythonNetworkStreamPhaseGameItem.cpp

; 1102 : 				CInstanceBase * pInstance = CPythonCharacterManager::Instance().GetInstancePtr(kSpecialEffect.vid);

  002aa	8b 41 04	 mov	 eax, DWORD PTR [ecx+4]
  002ad	83 c1 04	 add	 ecx, 4
  002b0	ff 75 fa	 push	 DWORD PTR _kSpecialEffect$[ebp+2]
  002b3	ff 50 08	 call	 DWORD PTR [eax+8]

; 1103 : 				if (pInstance)

  002b6	85 c0		 test	 eax, eax
  002b8	74 7a		 je	 SHORT $LN43@RecvSpecia

; 1104 : 				{
; 1105 : 					if (bAttachEffect)

  002ba	f3 0f 10 15 00
	00 00 00	 movss	 xmm2, DWORD PTR __real@3f800000
  002c2	8b c8		 mov	 ecx, eax
  002c4	56		 push	 esi
  002c5	84 db		 test	 bl, bl
  002c7	75 50		 jne	 SHORT $LN107@RecvSpecia
$LN48@RecvSpecia:

; 1106 : 						pInstance->AttachSpecialEffect(effect);
; 1107 : 					else
; 1108 : 						pInstance->CreateSpecialEffect(effect);
; 1109 : 				}
; 1110 : 			}
; 1111 : 		}
; 1112 : 	}
; 1113 : #else
; 1114 : 	if (-1 != effect)
; 1115 : 	{
; 1116 : 		CInstanceBase * pInstance = CPythonCharacterManager::Instance().GetInstancePtr(kSpecialEffect.vid);
; 1117 : 		if (pInstance)
; 1118 : 		{
; 1119 : 			if(bAttachEffect)
; 1120 : 				pInstance->AttachSpecialEffect(effect);
; 1121 : 			else
; 1122 : 				pInstance->CreateSpecialEffect(effect);
; 1123 : 		}
; 1124 : 	}
; 1125 : #endif
; 1126 : 
; 1127 : 	return true;

  002c9	e8 00 00 00 00	 call	 ?CreateSpecialEffect@CInstanceBase@@QAEXKM@Z ; CInstanceBase::CreateSpecialEffect
  002ce	5e		 pop	 esi
  002cf	b0 01		 mov	 al, 1
  002d1	5b		 pop	 ebx

; 1128 : }

  002d2	8b e5		 mov	 esp, ebp
  002d4	5d		 pop	 ebp
  002d5	c3		 ret	 0
$LN40@RecvSpecia:
; File C:\Anka2Project\Anka2Project\Source\Binary\source\eterBase\Singleton.h

; 26   : 		assert(ms_singleton);

  002d6	8b 0d 00 00 00
	00		 mov	 ecx, DWORD PTR ?ms_singleton@?$CSingleton@VCPythonCharacterManager@@@@0PAVCPythonCharacterManager@@A ; CSingleton<CPythonCharacterManager>::ms_singleton
  002dc	85 c9		 test	 ecx, ecx
  002de	75 1a		 jne	 SHORT $LN68@RecvSpecia
  002e0	6a 1a		 push	 26			; 0000001aH
  002e2	68 00 00 00 00	 push	 OFFSET ??_C@_1IO@CAJLEEOI@?$AAC?$AA?3?$AA?2?$AAA?$AAn?$AAk?$AAa?$AA2?$AAP?$AAr?$AAo?$AAj?$AAe?$AAc?$AAt@
  002e7	68 00 00 00 00	 push	 OFFSET ??_C@_1BK@FMEHPMFE@?$AAm?$AAs?$AA_?$AAs?$AAi?$AAn?$AAg?$AAl?$AAe?$AAt?$AAo?$AAn@
  002ec	e8 00 00 00 00	 call	 __wassert
  002f1	8b 0d 00 00 00
	00		 mov	 ecx, DWORD PTR ?ms_singleton@?$CSingleton@VCPythonCharacterManager@@@@0PAVCPythonCharacterManager@@A ; CSingleton<CPythonCharacterManager>::ms_singleton
  002f7	83 c4 0c	 add	 esp, 12			; 0000000cH
$LN68@RecvSpecia:
; File C:\Anka2Project\Anka2Project\Source\Binary\source\UserInterface\PythonNetworkStreamPhaseGameItem.cpp

; 1088 : 			CInstanceBase * pInstance = CPythonCharacterManager::Instance().GetInstancePtr(kSpecialEffect.vid);

  002fa	8b 41 04	 mov	 eax, DWORD PTR [ecx+4]
  002fd	83 c1 04	 add	 ecx, 4
  00300	ff 75 fa	 push	 DWORD PTR _kSpecialEffect$[ebp+2]
  00303	ff 50 08	 call	 DWORD PTR [eax+8]

; 1089 : 			if (pInstance)

  00306	85 c0		 test	 eax, eax
  00308	74 2a		 je	 SHORT $LN43@RecvSpecia

; 1090 : 			{
; 1091 : 				if (bAttachEffect)

  0030a	f3 0f 10 15 00
	00 00 00	 movss	 xmm2, DWORD PTR __real@3f800000
  00312	8b c8		 mov	 ecx, eax
  00314	56		 push	 esi
  00315	84 db		 test	 bl, bl
  00317	74 b0		 je	 SHORT $LN48@RecvSpecia
$LN107@RecvSpecia:

; 1106 : 						pInstance->AttachSpecialEffect(effect);
; 1107 : 					else
; 1108 : 						pInstance->CreateSpecialEffect(effect);
; 1109 : 				}
; 1110 : 			}
; 1111 : 		}
; 1112 : 	}
; 1113 : #else
; 1114 : 	if (-1 != effect)
; 1115 : 	{
; 1116 : 		CInstanceBase * pInstance = CPythonCharacterManager::Instance().GetInstancePtr(kSpecialEffect.vid);
; 1117 : 		if (pInstance)
; 1118 : 		{
; 1119 : 			if(bAttachEffect)
; 1120 : 				pInstance->AttachSpecialEffect(effect);
; 1121 : 			else
; 1122 : 				pInstance->CreateSpecialEffect(effect);
; 1123 : 		}
; 1124 : 	}
; 1125 : #endif
; 1126 : 
; 1127 : 	return true;

  00319	e8 00 00 00 00	 call	 ?AttachSpecialEffect@CInstanceBase@@QAEXKM@Z ; CInstanceBase::AttachSpecialEffect
  0031e	5e		 pop	 esi
  0031f	b0 01		 mov	 al, 1
  00321	5b		 pop	 ebx

; 1128 : }

  00322	8b e5		 mov	 esp, ebp
  00324	5d		 pop	 ebp
  00325	c3		 ret	 0
$LN34@RecvSpecia:

; 1064 : 			bAttachEffect = false;
; 1065 : 			break;
; 1066 : #endif
; 1067 : 
; 1068 : 		default:
; 1069 : 			TraceError("%d     .TPacketGCSpecialEffect", kSpecialEffect.type);

  00326	50		 push	 eax
  00327	68 00 00 00 00	 push	 OFFSET ??_C@_0DL@PLJBBCEI@?$CFd?5?$LE?B?5?$LO?x?$LE?B?5?$LN?$LK?F?d?$LM?H?5?$MA?L?F?e?F?$KO?5?$LJ?x?H?$KD?$MA?T@
  0032c	e8 00 00 00 00	 call	 ?TraceError@@YAXPBDZZ	; TraceError
  00331	83 c4 08	 add	 esp, 8
$LN43@RecvSpecia:

; 1106 : 						pInstance->AttachSpecialEffect(effect);
; 1107 : 					else
; 1108 : 						pInstance->CreateSpecialEffect(effect);
; 1109 : 				}
; 1110 : 			}
; 1111 : 		}
; 1112 : 	}
; 1113 : #else
; 1114 : 	if (-1 != effect)
; 1115 : 	{
; 1116 : 		CInstanceBase * pInstance = CPythonCharacterManager::Instance().GetInstancePtr(kSpecialEffect.vid);
; 1117 : 		if (pInstance)
; 1118 : 		{
; 1119 : 			if(bAttachEffect)
; 1120 : 				pInstance->AttachSpecialEffect(effect);
; 1121 : 			else
; 1122 : 				pInstance->CreateSpecialEffect(effect);
; 1123 : 		}
; 1124 : 	}
; 1125 : #endif
; 1126 : 
; 1127 : 	return true;

  00334	5e		 pop	 esi
  00335	b0 01		 mov	 al, 1
  00337	5b		 pop	 ebx

; 1128 : }

  00338	8b e5		 mov	 esp, ebp
  0033a	5d		 pop	 ebp
  0033b	c3		 ret	 0
$LN83@RecvSpecia:
  0033c	00 00 00 00	 DD	 $LN5@RecvSpecia
  00340	00 00 00 00	 DD	 $LN6@RecvSpecia
  00344	00 00 00 00	 DD	 $LN7@RecvSpecia
  00348	00 00 00 00	 DD	 $LN8@RecvSpecia
  0034c	00 00 00 00	 DD	 $LN9@RecvSpecia
  00350	00 00 00 00	 DD	 $LN10@RecvSpecia
  00354	00 00 00 00	 DD	 $LN11@RecvSpecia
  00358	00 00 00 00	 DD	 $LN12@RecvSpecia
  0035c	00 00 00 00	 DD	 $LN13@RecvSpecia
  00360	00 00 00 00	 DD	 $LN14@RecvSpecia
  00364	00 00 00 00	 DD	 $LN15@RecvSpecia
  00368	00 00 00 00	 DD	 $LN16@RecvSpecia
  0036c	00 00 00 00	 DD	 $LN17@RecvSpecia
  00370	00 00 00 00	 DD	 $LN18@RecvSpecia
  00374	00 00 00 00	 DD	 $LN19@RecvSpecia
  00378	00 00 00 00	 DD	 $LN20@RecvSpecia
  0037c	00 00 00 00	 DD	 $LN21@RecvSpecia
  00380	00 00 00 00	 DD	 $LN22@RecvSpecia
  00384	00 00 00 00	 DD	 $LN23@RecvSpecia
  00388	00 00 00 00	 DD	 $LN24@RecvSpecia
  0038c	00 00 00 00	 DD	 $LN25@RecvSpecia
  00390	00 00 00 00	 DD	 $LN26@RecvSpecia
  00394	00 00 00 00	 DD	 $LN27@RecvSpecia
  00398	00 00 00 00	 DD	 $LN28@RecvSpecia
  0039c	00 00 00 00	 DD	 $LN29@RecvSpecia
  003a0	00 00 00 00	 DD	 $LN30@RecvSpecia
  003a4	00 00 00 00	 DD	 $LN31@RecvSpecia
  003a8	00 00 00 00	 DD	 $LN32@RecvSpecia
  003ac	00 00 00 00	 DD	 $LN33@RecvSpecia
?RecvSpecialEffect@CPythonNetworkStream@@IAE_NXZ ENDP	; CPythonNetworkStream::RecvSpecialEffect
_TEXT	ENDS
; Function compile flags: /Ogtp
; File C:\Anka2Project\Anka2Project\Source\Binary\source\UserInterface\PythonNetworkStreamPhaseGameItem.cpp
; File C:\Anka2Project\Anka2Project\Source\Binary\source\eterBase\Singleton.h
; File C:\Anka2Project\Anka2Project\Source\Binary\source\UserInterface\PythonNetworkStreamPhaseGameItem.cpp
;	COMDAT ?RecvSafeBoxMoneyChangePacket@CPythonNetworkStream@@IAE_NXZ
_TEXT	SEGMENT
_kMoneyChange$ = -8					; size = 5
?RecvSafeBoxMoneyChangePacket@CPythonNetworkStream@@IAE_NXZ PROC ; CPythonNetworkStream::RecvSafeBoxMoneyChangePacket, COMDAT
; _this$ = ecx

; 149  : {

  00000	55		 push	 ebp
  00001	8b ec		 mov	 ebp, esp
  00003	83 ec 08	 sub	 esp, 8

; 150  : 	TPacketGCSafeboxMoneyChange kMoneyChange;
; 151  : 	if (!Recv(sizeof(kMoneyChange), &kMoneyChange))

  00006	8d 45 f8	 lea	 eax, DWORD PTR _kMoneyChange$[ebp]
  00009	56		 push	 esi
  0000a	50		 push	 eax
  0000b	6a 05		 push	 5
  0000d	8b f1		 mov	 esi, ecx
  0000f	e8 00 00 00 00	 call	 ?Recv@CNetworkStream@@QAE_NHPAX@Z ; CNetworkStream::Recv
  00014	84 c0		 test	 al, al
  00016	75 05		 jne	 SHORT $LN2@RecvSafeBo
  00018	5e		 pop	 esi

; 158  : }

  00019	8b e5		 mov	 esp, ebp
  0001b	5d		 pop	 ebp
  0001c	c3		 ret	 0
$LN2@RecvSafeBo:
; File C:\Anka2Project\Anka2Project\Source\Binary\source\eterBase\Singleton.h

; 26   : 		assert(ms_singleton);

  0001d	8b 0d 00 00 00
	00		 mov	 ecx, DWORD PTR ?ms_singleton@?$CSingleton@VCPythonSafeBox@@@@0PAVCPythonSafeBox@@A ; CSingleton<CPythonSafeBox>::ms_singleton
  00023	85 c9		 test	 ecx, ecx
  00025	75 1a		 jne	 SHORT $LN6@RecvSafeBo
  00027	6a 1a		 push	 26			; 0000001aH
  00029	68 00 00 00 00	 push	 OFFSET ??_C@_1IO@CAJLEEOI@?$AAC?$AA?3?$AA?2?$AAA?$AAn?$AAk?$AAa?$AA2?$AAP?$AAr?$AAo?$AAj?$AAe?$AAc?$AAt@
  0002e	68 00 00 00 00	 push	 OFFSET ??_C@_1BK@FMEHPMFE@?$AAm?$AAs?$AA_?$AAs?$AAi?$AAn?$AAg?$AAl?$AAe?$AAt?$AAo?$AAn@
  00033	e8 00 00 00 00	 call	 __wassert
  00038	8b 0d 00 00 00
	00		 mov	 ecx, DWORD PTR ?ms_singleton@?$CSingleton@VCPythonSafeBox@@@@0PAVCPythonSafeBox@@A ; CSingleton<CPythonSafeBox>::ms_singleton
  0003e	83 c4 0c	 add	 esp, 12			; 0000000cH
$LN6@RecvSafeBo:
; File C:\Anka2Project\Anka2Project\Source\Binary\source\UserInterface\PythonNetworkStreamPhaseGameItem.cpp

; 154  : 	CPythonSafeBox::Instance().SetMoney(kMoneyChange.dwMoney);

  00041	ff 75 f9	 push	 DWORD PTR _kMoneyChange$[ebp+1]
  00044	e8 00 00 00 00	 call	 ?SetMoney@CPythonSafeBox@@QAEXK@Z ; CPythonSafeBox::SetMoney

; 155  : 	PyCallClassMemberFunc(m_apoPhaseWnd[PHASE_WINDOW_GAME], "RefreshSafeboxMoney", Py_BuildValue("()"));

  00049	68 00 00 00 00	 push	 OFFSET ??_C@_02HCKGKOFO@?$CI?$CJ@
  0004e	ff 15 00 00 00
	00		 call	 DWORD PTR __imp__Py_BuildValue
  00054	50		 push	 eax
  00055	68 00 00 00 00	 push	 OFFSET ??_C@_0BE@OHCDIKPF@RefreshSafeboxMoney@
  0005a	ff b6 98 01 00
	00		 push	 DWORD PTR [esi+408]
  00060	e8 00 00 00 00	 call	 ?PyCallClassMemberFunc@@YA_NPAU_object@@PBD0@Z ; PyCallClassMemberFunc
  00065	83 c4 10	 add	 esp, 16			; 00000010H

; 156  : 
; 157  : 	return true;

  00068	b0 01		 mov	 al, 1
  0006a	5e		 pop	 esi

; 158  : }

  0006b	8b e5		 mov	 esp, ebp
  0006d	5d		 pop	 ebp
  0006e	c3		 ret	 0
?RecvSafeBoxMoneyChangePacket@CPythonNetworkStream@@IAE_NXZ ENDP ; CPythonNetworkStream::RecvSafeBoxMoneyChangePacket
_TEXT	ENDS
; Function compile flags: /Ogtp
; File C:\Anka2Project\Anka2Project\Source\Binary\source\UserInterface\PythonNetworkStreamPhaseGameItem.cpp
; File C:\Anka2Project\Anka2Project\Source\Binary\source\eterBase\Singleton.h
; File C:\Anka2Project\Anka2Project\Source\Binary\source\UserInterface\PythonNetworkStreamPhaseGameItem.cpp
;	COMDAT ?RecvSafeBoxSizePacket@CPythonNetworkStream@@IAE_NXZ
_TEXT	SEGMENT
_kSafeBoxSize$ = -4					; size = 2
?RecvSafeBoxSizePacket@CPythonNetworkStream@@IAE_NXZ PROC ; CPythonNetworkStream::RecvSafeBoxSizePacket, COMDAT
; _this$ = ecx

; 137  : {

  00000	55		 push	 ebp
  00001	8b ec		 mov	 ebp, esp
  00003	51		 push	 ecx
  00004	56		 push	 esi

; 138  : 	TPacketGCSafeboxSize kSafeBoxSize;
; 139  : 	if (!Recv(sizeof(kSafeBoxSize), &kSafeBoxSize))

  00005	8d 45 fc	 lea	 eax, DWORD PTR _kSafeBoxSize$[ebp]
  00008	8b f1		 mov	 esi, ecx
  0000a	50		 push	 eax
  0000b	6a 02		 push	 2
  0000d	e8 00 00 00 00	 call	 ?Recv@CNetworkStream@@QAE_NHPAX@Z ; CNetworkStream::Recv
  00012	84 c0		 test	 al, al
  00014	75 05		 jne	 SHORT $LN2@RecvSafeBo
  00016	5e		 pop	 esi

; 146  : }

  00017	8b e5		 mov	 esp, ebp
  00019	5d		 pop	 ebp
  0001a	c3		 ret	 0
$LN2@RecvSafeBo:
; File C:\Anka2Project\Anka2Project\Source\Binary\source\eterBase\Singleton.h

; 26   : 		assert(ms_singleton);

  0001b	8b 0d 00 00 00
	00		 mov	 ecx, DWORD PTR ?ms_singleton@?$CSingleton@VCPythonSafeBox@@@@0PAVCPythonSafeBox@@A ; CSingleton<CPythonSafeBox>::ms_singleton
  00021	85 c9		 test	 ecx, ecx
  00023	75 1a		 jne	 SHORT $LN6@RecvSafeBo
  00025	6a 1a		 push	 26			; 0000001aH
  00027	68 00 00 00 00	 push	 OFFSET ??_C@_1IO@CAJLEEOI@?$AAC?$AA?3?$AA?2?$AAA?$AAn?$AAk?$AAa?$AA2?$AAP?$AAr?$AAo?$AAj?$AAe?$AAc?$AAt@
  0002c	68 00 00 00 00	 push	 OFFSET ??_C@_1BK@FMEHPMFE@?$AAm?$AAs?$AA_?$AAs?$AAi?$AAn?$AAg?$AAl?$AAe?$AAt?$AAo?$AAn@
  00031	e8 00 00 00 00	 call	 __wassert
  00036	8b 0d 00 00 00
	00		 mov	 ecx, DWORD PTR ?ms_singleton@?$CSingleton@VCPythonSafeBox@@@@0PAVCPythonSafeBox@@A ; CSingleton<CPythonSafeBox>::ms_singleton
  0003c	83 c4 0c	 add	 esp, 12			; 0000000cH
$LN6@RecvSafeBo:
; File C:\Anka2Project\Anka2Project\Source\Binary\source\UserInterface\PythonNetworkStreamPhaseGameItem.cpp

; 142  : 	CPythonSafeBox::Instance().OpenSafeBox(kSafeBoxSize.bSize);

  0003f	0f b6 45 fd	 movzx	 eax, BYTE PTR _kSafeBoxSize$[ebp+1]
  00043	50		 push	 eax
  00044	e8 00 00 00 00	 call	 ?OpenSafeBox@CPythonSafeBox@@QAEXH@Z ; CPythonSafeBox::OpenSafeBox

; 143  : 	PyCallClassMemberFunc(m_apoPhaseWnd[PHASE_WINDOW_GAME], "OpenSafeboxWindow", Py_BuildValue("(i)", kSafeBoxSize.bSize));

  00049	0f b6 45 fd	 movzx	 eax, BYTE PTR _kSafeBoxSize$[ebp+1]
  0004d	50		 push	 eax
  0004e	68 00 00 00 00	 push	 OFFSET ??_C@_03LIHNMIHG@?$CIi?$CJ@
  00053	ff 15 00 00 00
	00		 call	 DWORD PTR __imp__Py_BuildValue
  00059	50		 push	 eax
  0005a	68 00 00 00 00	 push	 OFFSET ??_C@_0BC@GDFDGKCD@OpenSafeboxWindow@
  0005f	ff b6 98 01 00
	00		 push	 DWORD PTR [esi+408]
  00065	e8 00 00 00 00	 call	 ?PyCallClassMemberFunc@@YA_NPAU_object@@PBD0@Z ; PyCallClassMemberFunc
  0006a	83 c4 14	 add	 esp, 20			; 00000014H

; 144  : 
; 145  : 	return true;

  0006d	b0 01		 mov	 al, 1
  0006f	5e		 pop	 esi

; 146  : }

  00070	8b e5		 mov	 esp, ebp
  00072	5d		 pop	 ebp
  00073	c3		 ret	 0
?RecvSafeBoxSizePacket@CPythonNetworkStream@@IAE_NXZ ENDP ; CPythonNetworkStream::RecvSafeBoxSizePacket
_TEXT	ENDS
; Function compile flags: /Ogtp
; File C:\Anka2Project\Anka2Project\Source\Binary\source\UserInterface\PythonNetworkStreamPhaseGameItem.cpp
;	COMDAT ?RecvSafeBoxWrongPasswordPacket@CPythonNetworkStream@@IAE_NXZ
_TEXT	SEGMENT
_kSafeboxWrongPassword$ = -1				; size = 1
?RecvSafeBoxWrongPasswordPacket@CPythonNetworkStream@@IAE_NXZ PROC ; CPythonNetworkStream::RecvSafeBoxWrongPasswordPacket, COMDAT
; _this$ = ecx

; 125  : {

  00000	55		 push	 ebp
  00001	8b ec		 mov	 ebp, esp
  00003	51		 push	 ecx
  00004	56		 push	 esi

; 126  : 	TPacketGCSafeboxWrongPassword kSafeboxWrongPassword;
; 127  : 
; 128  : 	if (!Recv(sizeof(kSafeboxWrongPassword), &kSafeboxWrongPassword))

  00005	8d 45 ff	 lea	 eax, DWORD PTR _kSafeboxWrongPassword$[ebp]
  00008	8b f1		 mov	 esi, ecx
  0000a	50		 push	 eax
  0000b	6a 01		 push	 1
  0000d	e8 00 00 00 00	 call	 ?Recv@CNetworkStream@@QAE_NHPAX@Z ; CNetworkStream::Recv
  00012	84 c0		 test	 al, al
  00014	75 05		 jne	 SHORT $LN2@RecvSafeBo
  00016	5e		 pop	 esi

; 134  : }

  00017	8b e5		 mov	 esp, ebp
  00019	5d		 pop	 ebp
  0001a	c3		 ret	 0
$LN2@RecvSafeBo:

; 129  : 		return false;
; 130  : 
; 131  : 	PyCallClassMemberFunc(m_apoPhaseWnd[PHASE_WINDOW_GAME], "OnSafeBoxError", Py_BuildValue("()"));

  0001b	68 00 00 00 00	 push	 OFFSET ??_C@_02HCKGKOFO@?$CI?$CJ@
  00020	ff 15 00 00 00
	00		 call	 DWORD PTR __imp__Py_BuildValue
  00026	50		 push	 eax
  00027	68 00 00 00 00	 push	 OFFSET ??_C@_0P@BMBKKGBC@OnSafeBoxError@
  0002c	ff b6 98 01 00
	00		 push	 DWORD PTR [esi+408]
  00032	e8 00 00 00 00	 call	 ?PyCallClassMemberFunc@@YA_NPAU_object@@PBD0@Z ; PyCallClassMemberFunc
  00037	83 c4 10	 add	 esp, 16			; 00000010H

; 132  : 
; 133  : 	return true;

  0003a	b0 01		 mov	 al, 1
  0003c	5e		 pop	 esi

; 134  : }

  0003d	8b e5		 mov	 esp, ebp
  0003f	5d		 pop	 ebp
  00040	c3		 ret	 0
?RecvSafeBoxWrongPasswordPacket@CPythonNetworkStream@@IAE_NXZ ENDP ; CPythonNetworkStream::RecvSafeBoxWrongPasswordPacket
_TEXT	ENDS
; Function compile flags: /Ogtp
; File C:\Anka2Project\Anka2Project\Source\Binary\source\UserInterface\PythonNetworkStreamPhaseGameItem.cpp
; File C:\Anka2Project\Anka2Project\Source\Binary\source\UserInterface\AbstractSingleton.h
; File C:\Anka2Project\Anka2Project\Source\Binary\source\UserInterface\PythonNetworkStreamPhaseGameItem.cpp
;	COMDAT ?RecvQuickSlotMovePacket@CPythonNetworkStream@@IAE_NXZ
_TEXT	SEGMENT
_packet_quick_slot_swap$ = -4				; size = 3
?RecvQuickSlotMovePacket@CPythonNetworkStream@@IAE_NXZ PROC ; CPythonNetworkStream::RecvQuickSlotMovePacket, COMDAT
; _this$ = ecx

; 424  : {

  00000	55		 push	 ebp
  00001	8b ec		 mov	 ebp, esp
  00003	51		 push	 ecx
  00004	56		 push	 esi

; 425  : 	TPacketGCQuickSlotSwap packet_quick_slot_swap;
; 426  : 
; 427  : 	if (!Recv(sizeof(TPacketGCQuickSlotSwap), &packet_quick_slot_swap))

  00005	8d 45 fc	 lea	 eax, DWORD PTR _packet_quick_slot_swap$[ebp]
  00008	8b f1		 mov	 esi, ecx
  0000a	50		 push	 eax
  0000b	6a 03		 push	 3
  0000d	e8 00 00 00 00	 call	 ?Recv@CNetworkStream@@QAE_NHPAX@Z ; CNetworkStream::Recv
  00012	84 c0		 test	 al, al
  00014	75 05		 jne	 SHORT $LN2@RecvQuickS
  00016	5e		 pop	 esi

; 436  : }

  00017	8b e5		 mov	 esp, ebp
  00019	5d		 pop	 ebp
  0001a	c3		 ret	 0
$LN2@RecvQuickS:
; File C:\Anka2Project\Anka2Project\Source\Binary\source\UserInterface\AbstractSingleton.h

; 24   : 		assert(ms_singleton!=nullptr);

  0001b	8b 0d 00 00 00
	00		 mov	 ecx, DWORD PTR ?ms_singleton@?$TAbstractSingleton@VIAbstractPlayer@@@@0PAVIAbstractPlayer@@A ; TAbstractSingleton<IAbstractPlayer>::ms_singleton
  00021	85 c9		 test	 ecx, ecx
  00023	75 1a		 jne	 SHORT $LN6@RecvQuickS
  00025	6a 18		 push	 24			; 00000018H
  00027	68 00 00 00 00	 push	 OFFSET ??_C@_1KI@FIPHLMOB@?$AAC?$AA?3?$AA?2?$AAA?$AAn?$AAk?$AAa?$AA2?$AAP?$AAr?$AAo?$AAj?$AAe?$AAc?$AAt@
  0002c	68 00 00 00 00	 push	 OFFSET ??_C@_1CM@FPMBEAEA@?$AAm?$AAs?$AA_?$AAs?$AAi?$AAn?$AAg?$AAl?$AAe?$AAt?$AAo?$AAn?$AA?$CB?$AA?$DN?$AAn@
  00031	e8 00 00 00 00	 call	 __wassert
  00036	8b 0d 00 00 00
	00		 mov	 ecx, DWORD PTR ?ms_singleton@?$TAbstractSingleton@VIAbstractPlayer@@@@0PAVIAbstractPlayer@@A ; TAbstractSingleton<IAbstractPlayer>::ms_singleton
  0003c	83 c4 0c	 add	 esp, 12			; 0000000cH
$LN6@RecvQuickS:
; File C:\Anka2Project\Anka2Project\Source\Binary\source\UserInterface\PythonNetworkStreamPhaseGameItem.cpp

; 431  : 	rkPlayer.MoveQuickSlot(packet_quick_slot_swap.pos, packet_quick_slot_swap.change_pos);

  0003f	0f b6 45 fe	 movzx	 eax, BYTE PTR _packet_quick_slot_swap$[ebp+2]
  00043	8b 11		 mov	 edx, DWORD PTR [ecx]
  00045	50		 push	 eax
  00046	0f b6 45 fd	 movzx	 eax, BYTE PTR _packet_quick_slot_swap$[ebp+1]
  0004a	50		 push	 eax
  0004b	ff 52 60	 call	 DWORD PTR [edx+96]

; 432  : 
; 433  : 	__RefreshInventoryWindow();

  0004e	8b ce		 mov	 ecx, esi
  00050	e8 00 00 00 00	 call	 ?__RefreshInventoryWindow@CPythonNetworkStream@@IAEXXZ ; CPythonNetworkStream::__RefreshInventoryWindow

; 434  : 
; 435  : 	return true;

  00055	b0 01		 mov	 al, 1
  00057	5e		 pop	 esi

; 436  : }

  00058	8b e5		 mov	 esp, ebp
  0005a	5d		 pop	 ebp
  0005b	c3		 ret	 0
?RecvQuickSlotMovePacket@CPythonNetworkStream@@IAE_NXZ ENDP ; CPythonNetworkStream::RecvQuickSlotMovePacket
_TEXT	ENDS
; Function compile flags: /Ogtp
; File C:\Anka2Project\Anka2Project\Source\Binary\source\UserInterface\PythonNetworkStreamPhaseGameItem.cpp
; File C:\Anka2Project\Anka2Project\Source\Binary\source\UserInterface\AbstractSingleton.h
; File C:\Anka2Project\Anka2Project\Source\Binary\source\UserInterface\PythonNetworkStreamPhaseGameItem.cpp
;	COMDAT ?RecvQuickSlotDelPacket@CPythonNetworkStream@@IAE_NXZ
_TEXT	SEGMENT
_packet_quick_slot_del$ = -4				; size = 2
?RecvQuickSlotDelPacket@CPythonNetworkStream@@IAE_NXZ PROC ; CPythonNetworkStream::RecvQuickSlotDelPacket, COMDAT
; _this$ = ecx

; 409  : {

  00000	55		 push	 ebp
  00001	8b ec		 mov	 ebp, esp
  00003	51		 push	 ecx
  00004	56		 push	 esi

; 410  : 	TPacketGCQuickSlotDel packet_quick_slot_del;
; 411  : 
; 412  : 	if (!Recv(sizeof(TPacketGCQuickSlotDel), &packet_quick_slot_del))

  00005	8d 45 fc	 lea	 eax, DWORD PTR _packet_quick_slot_del$[ebp]
  00008	8b f1		 mov	 esi, ecx
  0000a	50		 push	 eax
  0000b	6a 02		 push	 2
  0000d	e8 00 00 00 00	 call	 ?Recv@CNetworkStream@@QAE_NHPAX@Z ; CNetworkStream::Recv
  00012	84 c0		 test	 al, al
  00014	75 05		 jne	 SHORT $LN2@RecvQuickS
  00016	5e		 pop	 esi

; 421  : }

  00017	8b e5		 mov	 esp, ebp
  00019	5d		 pop	 ebp
  0001a	c3		 ret	 0
$LN2@RecvQuickS:
; File C:\Anka2Project\Anka2Project\Source\Binary\source\UserInterface\AbstractSingleton.h

; 24   : 		assert(ms_singleton!=nullptr);

  0001b	8b 0d 00 00 00
	00		 mov	 ecx, DWORD PTR ?ms_singleton@?$TAbstractSingleton@VIAbstractPlayer@@@@0PAVIAbstractPlayer@@A ; TAbstractSingleton<IAbstractPlayer>::ms_singleton
  00021	85 c9		 test	 ecx, ecx
  00023	75 1a		 jne	 SHORT $LN6@RecvQuickS
  00025	6a 18		 push	 24			; 00000018H
  00027	68 00 00 00 00	 push	 OFFSET ??_C@_1KI@FIPHLMOB@?$AAC?$AA?3?$AA?2?$AAA?$AAn?$AAk?$AAa?$AA2?$AAP?$AAr?$AAo?$AAj?$AAe?$AAc?$AAt@
  0002c	68 00 00 00 00	 push	 OFFSET ??_C@_1CM@FPMBEAEA@?$AAm?$AAs?$AA_?$AAs?$AAi?$AAn?$AAg?$AAl?$AAe?$AAt?$AAo?$AAn?$AA?$CB?$AA?$DN?$AAn@
  00031	e8 00 00 00 00	 call	 __wassert
  00036	8b 0d 00 00 00
	00		 mov	 ecx, DWORD PTR ?ms_singleton@?$TAbstractSingleton@VIAbstractPlayer@@@@0PAVIAbstractPlayer@@A ; TAbstractSingleton<IAbstractPlayer>::ms_singleton
  0003c	83 c4 0c	 add	 esp, 12			; 0000000cH
$LN6@RecvQuickS:
; File C:\Anka2Project\Anka2Project\Source\Binary\source\UserInterface\PythonNetworkStreamPhaseGameItem.cpp

; 416  : 	rkPlayer.DeleteQuickSlot(packet_quick_slot_del.pos);

  0003f	8b 11		 mov	 edx, DWORD PTR [ecx]
  00041	0f b6 45 fd	 movzx	 eax, BYTE PTR _packet_quick_slot_del$[ebp+1]
  00045	50		 push	 eax
  00046	ff 52 5c	 call	 DWORD PTR [edx+92]

; 417  : 
; 418  : 	__RefreshInventoryWindow();

  00049	8b ce		 mov	 ecx, esi
  0004b	e8 00 00 00 00	 call	 ?__RefreshInventoryWindow@CPythonNetworkStream@@IAEXXZ ; CPythonNetworkStream::__RefreshInventoryWindow

; 419  : 
; 420  : 	return true;

  00050	b0 01		 mov	 al, 1
  00052	5e		 pop	 esi

; 421  : }

  00053	8b e5		 mov	 esp, ebp
  00055	5d		 pop	 ebp
  00056	c3		 ret	 0
?RecvQuickSlotDelPacket@CPythonNetworkStream@@IAE_NXZ ENDP ; CPythonNetworkStream::RecvQuickSlotDelPacket
_TEXT	ENDS
; Function compile flags: /Ogtp
; File C:\Anka2Project\Anka2Project\Source\Binary\source\UserInterface\PythonNetworkStreamPhaseGameItem.cpp
; File C:\Anka2Project\Anka2Project\Source\Binary\source\UserInterface\AbstractSingleton.h
; File C:\Anka2Project\Anka2Project\Source\Binary\source\UserInterface\PythonNetworkStreamPhaseGameItem.cpp
;	COMDAT ?RecvQuickSlotAddPacket@CPythonNetworkStream@@IAE_NXZ
_TEXT	SEGMENT
_packet_quick_slot_add$ = -8				; size = 4
?RecvQuickSlotAddPacket@CPythonNetworkStream@@IAE_NXZ PROC ; CPythonNetworkStream::RecvQuickSlotAddPacket, COMDAT
; _this$ = ecx

; 394  : {

  00000	55		 push	 ebp
  00001	8b ec		 mov	 ebp, esp
  00003	83 ec 08	 sub	 esp, 8

; 395  : 	TPacketGCQuickSlotAdd packet_quick_slot_add;
; 396  : 
; 397  : 	if (!Recv(sizeof(TPacketGCQuickSlotAdd), &packet_quick_slot_add))

  00006	8d 45 f8	 lea	 eax, DWORD PTR _packet_quick_slot_add$[ebp]
  00009	56		 push	 esi
  0000a	50		 push	 eax
  0000b	6a 04		 push	 4
  0000d	8b f1		 mov	 esi, ecx
  0000f	e8 00 00 00 00	 call	 ?Recv@CNetworkStream@@QAE_NHPAX@Z ; CNetworkStream::Recv
  00014	84 c0		 test	 al, al
  00016	75 05		 jne	 SHORT $LN2@RecvQuickS
  00018	5e		 pop	 esi

; 406  : }

  00019	8b e5		 mov	 esp, ebp
  0001b	5d		 pop	 ebp
  0001c	c3		 ret	 0
$LN2@RecvQuickS:
; File C:\Anka2Project\Anka2Project\Source\Binary\source\UserInterface\AbstractSingleton.h

; 24   : 		assert(ms_singleton!=nullptr);

  0001d	8b 0d 00 00 00
	00		 mov	 ecx, DWORD PTR ?ms_singleton@?$TAbstractSingleton@VIAbstractPlayer@@@@0PAVIAbstractPlayer@@A ; TAbstractSingleton<IAbstractPlayer>::ms_singleton
  00023	85 c9		 test	 ecx, ecx
  00025	75 1a		 jne	 SHORT $LN6@RecvQuickS
  00027	6a 18		 push	 24			; 00000018H
  00029	68 00 00 00 00	 push	 OFFSET ??_C@_1KI@FIPHLMOB@?$AAC?$AA?3?$AA?2?$AAA?$AAn?$AAk?$AAa?$AA2?$AAP?$AAr?$AAo?$AAj?$AAe?$AAc?$AAt@
  0002e	68 00 00 00 00	 push	 OFFSET ??_C@_1CM@FPMBEAEA@?$AAm?$AAs?$AA_?$AAs?$AAi?$AAn?$AAg?$AAl?$AAe?$AAt?$AAo?$AAn?$AA?$CB?$AA?$DN?$AAn@
  00033	e8 00 00 00 00	 call	 __wassert
  00038	8b 0d 00 00 00
	00		 mov	 ecx, DWORD PTR ?ms_singleton@?$TAbstractSingleton@VIAbstractPlayer@@@@0PAVIAbstractPlayer@@A ; TAbstractSingleton<IAbstractPlayer>::ms_singleton
  0003e	83 c4 0c	 add	 esp, 12			; 0000000cH
$LN6@RecvQuickS:
; File C:\Anka2Project\Anka2Project\Source\Binary\source\UserInterface\PythonNetworkStreamPhaseGameItem.cpp

; 401  : 	rkPlayer.AddQuickSlot(packet_quick_slot_add.pos, packet_quick_slot_add.slot.Type, packet_quick_slot_add.slot.Position);

  00041	ff 75 fb	 push	 DWORD PTR _packet_quick_slot_add$[ebp+3]
  00044	8b 11		 mov	 edx, DWORD PTR [ecx]
  00046	ff 75 fa	 push	 DWORD PTR _packet_quick_slot_add$[ebp+2]
  00049	0f b6 45 f9	 movzx	 eax, BYTE PTR _packet_quick_slot_add$[ebp+1]
  0004d	50		 push	 eax
  0004e	ff 52 58	 call	 DWORD PTR [edx+88]

; 402  : 
; 403  : 	__RefreshInventoryWindow();

  00051	8b ce		 mov	 ecx, esi
  00053	e8 00 00 00 00	 call	 ?__RefreshInventoryWindow@CPythonNetworkStream@@IAEXXZ ; CPythonNetworkStream::__RefreshInventoryWindow

; 404  : 
; 405  : 	return true;

  00058	b0 01		 mov	 al, 1
  0005a	5e		 pop	 esi

; 406  : }

  0005b	8b e5		 mov	 esp, ebp
  0005d	5d		 pop	 ebp
  0005e	c3		 ret	 0
?RecvQuickSlotAddPacket@CPythonNetworkStream@@IAE_NXZ ENDP ; CPythonNetworkStream::RecvQuickSlotAddPacket
_TEXT	ENDS
; Function compile flags: /Ogtp
; File C:\Anka2Project\Anka2Project\Source\Binary\source\UserInterface\PythonNetworkStreamPhaseGameItem.cpp
; File C:\Anka2Project\Anka2Project\Source\Binary\source\UserInterface\GameType.h
; File C:\Anka2Project\Anka2Project\Source\Binary\source\UserInterface\PythonNetworkStreamPhaseGameItem.cpp
; File C:\Anka2Project\Anka2Project\Source\Binary\source\UserInterface\GameType.h
; File C:\Anka2Project\Anka2Project\Source\Binary\source\UserInterface\PythonNetworkStreamPhaseGameItem.cpp
; File C:\Anka2Project\Anka2Project\Source\Binary\source\UserInterface\GameType.h
; File C:\Anka2Project\Anka2Project\Source\Binary\source\UserInterface\PythonNetworkStreamPhaseGameItem.cpp
; File C:\Anka2Project\Anka2Project\Source\Binary\source\UserInterface\AbstractSingleton.h
; File C:\Anka2Project\Anka2Project\Source\Binary\source\UserInterface\PythonNetworkStreamPhaseGameItem.cpp
;	COMDAT ?RecvItemUpdatePacket@CPythonNetworkStream@@IAE_NXZ
_TEXT	SEGMENT
_this$GSCopy$1$ = -52					; size = 4
_packet_item_update$ = -48				; size = 43
__$ArrayPad$ = -4					; size = 4
?RecvItemUpdatePacket@CPythonNetworkStream@@IAE_NXZ PROC ; CPythonNetworkStream::RecvItemUpdatePacket, COMDAT
; _this$ = ecx

; 327  : {

  00000	55		 push	 ebp
  00001	8b ec		 mov	 ebp, esp
  00003	83 ec 34	 sub	 esp, 52			; 00000034H
  00006	a1 00 00 00 00	 mov	 eax, DWORD PTR ___security_cookie
  0000b	33 c5		 xor	 eax, ebp
  0000d	89 45 fc	 mov	 DWORD PTR __$ArrayPad$[ebp], eax
  00010	53		 push	 ebx
  00011	8b c1		 mov	 eax, ecx
; File C:\Anka2Project\Anka2Project\Source\Binary\source\UserInterface\GameType.h

; 447  : 		window_type = INVENTORY;

  00013	c6 45 d1 01	 mov	 BYTE PTR _packet_item_update$[ebp+1], 1
; File C:\Anka2Project\Anka2Project\Source\Binary\source\UserInterface\PythonNetworkStreamPhaseGameItem.cpp

; 327  : {

  00017	56		 push	 esi
; File C:\Anka2Project\Anka2Project\Source\Binary\source\UserInterface\GameType.h

; 448  : 		cell = WORD_MAX;

  00018	b9 ff ff 00 00	 mov	 ecx, 65535		; 0000ffffH
; File C:\Anka2Project\Anka2Project\Source\Binary\source\UserInterface\PythonNetworkStreamPhaseGameItem.cpp

; 327  : {

  0001d	89 45 cc	 mov	 DWORD PTR _this$GSCopy$1$[ebp], eax
; File C:\Anka2Project\Anka2Project\Source\Binary\source\UserInterface\GameType.h

; 448  : 		cell = WORD_MAX;

  00020	66 89 4d d2	 mov	 WORD PTR _packet_item_update$[ebp+2], cx
; File C:\Anka2Project\Anka2Project\Source\Binary\source\UserInterface\PythonNetworkStreamPhaseGameItem.cpp

; 330  : 	if (!Recv(sizeof(TPacketGCItemUpdate), &packet_item_update))

  00024	8d 4d d0	 lea	 ecx, DWORD PTR _packet_item_update$[ebp]
  00027	57		 push	 edi
  00028	51		 push	 ecx
  00029	6a 2b		 push	 43			; 0000002bH
  0002b	8b c8		 mov	 ecx, eax
  0002d	e8 00 00 00 00	 call	 ?Recv@CNetworkStream@@QAE_NHPAX@Z ; CNetworkStream::Recv
  00032	84 c0		 test	 al, al
  00034	75 11		 jne	 SHORT $LN8@RecvItemUp

; 346  : 	return true;
; 347  : }

  00036	5f		 pop	 edi
  00037	5e		 pop	 esi
  00038	5b		 pop	 ebx
  00039	8b 4d fc	 mov	 ecx, DWORD PTR __$ArrayPad$[ebp]
  0003c	33 cd		 xor	 ecx, ebp
  0003e	e8 00 00 00 00	 call	 @__security_check_cookie@4
  00043	8b e5		 mov	 esp, ebp
  00045	5d		 pop	 ebp
  00046	c3		 ret	 0
$LN8@RecvItemUp:
; File C:\Anka2Project\Anka2Project\Source\Binary\source\UserInterface\AbstractSingleton.h

; 24   : 		assert(ms_singleton!=nullptr);

  00047	8b 35 00 00 00
	00		 mov	 esi, DWORD PTR ?ms_singleton@?$TAbstractSingleton@VIAbstractPlayer@@@@0PAVIAbstractPlayer@@A ; TAbstractSingleton<IAbstractPlayer>::ms_singleton
  0004d	85 f6		 test	 esi, esi
  0004f	75 1a		 jne	 SHORT $LN16@RecvItemUp
  00051	6a 18		 push	 24			; 00000018H
  00053	68 00 00 00 00	 push	 OFFSET ??_C@_1KI@FIPHLMOB@?$AAC?$AA?3?$AA?2?$AAA?$AAn?$AAk?$AAa?$AA2?$AAP?$AAr?$AAo?$AAj?$AAe?$AAc?$AAt@
  00058	68 00 00 00 00	 push	 OFFSET ??_C@_1CM@FPMBEAEA@?$AAm?$AAs?$AA_?$AAs?$AAi?$AAn?$AAg?$AAl?$AAe?$AAt?$AAo?$AAn?$AA?$CB?$AA?$DN?$AAn@
  0005d	e8 00 00 00 00	 call	 __wassert
  00062	8b 35 00 00 00
	00		 mov	 esi, DWORD PTR ?ms_singleton@?$TAbstractSingleton@VIAbstractPlayer@@@@0PAVIAbstractPlayer@@A ; TAbstractSingleton<IAbstractPlayer>::ms_singleton
  00068	83 c4 0c	 add	 esp, 12			; 0000000cH
$LN16@RecvItemUp:
; File C:\Anka2Project\Anka2Project\Source\Binary\source\UserInterface\PythonNetworkStreamPhaseGameItem.cpp

; 334  : 	rkPlayer.SetItemCount(packet_item_update.Cell, packet_item_update.count);

  0006b	ff 75 d4	 push	 DWORD PTR _packet_item_update$[ebp+4]
  0006e	66 8b 45 d1	 mov	 ax, WORD PTR _packet_item_update$[ebp+1]
  00072	8b 16		 mov	 edx, DWORD PTR [esi]
  00074	51		 push	 ecx
  00075	8b cc		 mov	 ecx, esp
  00077	66 89 01	 mov	 WORD PTR [ecx], ax
  0007a	8a 45 d3	 mov	 al, BYTE PTR _packet_item_update$[ebp+3]
  0007d	88 41 02	 mov	 BYTE PTR [ecx+2], al
  00080	8b ce		 mov	 ecx, esi
  00082	ff 52 38	 call	 DWORD PTR [edx+56]
  00085	33 ff		 xor	 edi, edi
  00087	66 0f 1f 84 00
	00 00 00 00	 npad	 9
$LL4@RecvItemUp:

; 335  : 
; 336  : 	for (int i = 0; i < ITEM_SOCKET_SLOT_MAX_NUM; ++i)
; 337  : 		rkPlayer.SetItemMetinSocket(packet_item_update.Cell, i, packet_item_update.alSockets[i]);

  00090	ff 74 bd d6	 push	 DWORD PTR _packet_item_update$[ebp+edi*4+6]
  00094	66 8b 45 d1	 mov	 ax, WORD PTR _packet_item_update$[ebp+1]
  00098	8b 16		 mov	 edx, DWORD PTR [esi]
  0009a	57		 push	 edi
  0009b	51		 push	 ecx
  0009c	8b cc		 mov	 ecx, esp
  0009e	66 89 01	 mov	 WORD PTR [ecx], ax
  000a1	8a 45 d3	 mov	 al, BYTE PTR _packet_item_update$[ebp+3]
  000a4	88 41 02	 mov	 BYTE PTR [ecx+2], al
  000a7	8b ce		 mov	 ecx, esi
  000a9	ff 52 3c	 call	 DWORD PTR [edx+60]
  000ac	47		 inc	 edi
  000ad	83 ff 03	 cmp	 edi, 3
  000b0	7c de		 jl	 SHORT $LL4@RecvItemUp

; 338  : 	for (int j = 0; j < ITEM_ATTRIBUTE_SLOT_MAX_NUM; ++j)

  000b2	33 ff		 xor	 edi, edi
  000b4	8d 5d e2	 lea	 ebx, DWORD PTR _packet_item_update$[ebp+18]
$LL7@RecvItemUp:

; 339  : 		rkPlayer.SetItemAttribute(packet_item_update.Cell, j, packet_item_update.aAttr[j].bType, packet_item_update.aAttr[j].sValue);

  000b7	0f b7 43 01	 movzx	 eax, WORD PTR [ebx+1]
  000bb	8b 16		 mov	 edx, DWORD PTR [esi]
  000bd	50		 push	 eax
  000be	0f b6 03	 movzx	 eax, BYTE PTR [ebx]
  000c1	50		 push	 eax
  000c2	66 8b 45 d1	 mov	 ax, WORD PTR _packet_item_update$[ebp+1]
  000c6	57		 push	 edi
  000c7	51		 push	 ecx
  000c8	8b cc		 mov	 ecx, esp
  000ca	66 89 01	 mov	 WORD PTR [ecx], ax
  000cd	8a 45 d3	 mov	 al, BYTE PTR _packet_item_update$[ebp+3]
  000d0	88 41 02	 mov	 BYTE PTR [ecx+2], al
  000d3	8b ce		 mov	 ecx, esi
  000d5	ff 52 40	 call	 DWORD PTR [edx+64]
  000d8	47		 inc	 edi
  000d9	8d 5b 03	 lea	 ebx, DWORD PTR [ebx+3]
  000dc	83 ff 07	 cmp	 edi, 7
  000df	7c d6		 jl	 SHORT $LL7@RecvItemUp

; 340  : 
; 341  : #ifdef ENABLE_CHANGE_LOOK_SYSTEM
; 342  : 	rkPlayer.SetItemTransmutationVnum(packet_item_update.Cell, packet_item_update.dwTransmutationVnum);

  000e1	ff 75 f7	 push	 DWORD PTR _packet_item_update$[ebp+39]
  000e4	8b 06		 mov	 eax, DWORD PTR [esi]
  000e6	8d 4d d1	 lea	 ecx, DWORD PTR _packet_item_update$[ebp+1]
  000e9	51		 push	 ecx
  000ea	8b ce		 mov	 ecx, esi
  000ec	ff 50 44	 call	 DWORD PTR [eax+68]

; 343  : #endif
; 344  : 
; 345  : 	__RefreshInventoryWindow();

  000ef	8b 4d cc	 mov	 ecx, DWORD PTR _this$GSCopy$1$[ebp]
  000f2	e8 00 00 00 00	 call	 ?__RefreshInventoryWindow@CPythonNetworkStream@@IAEXXZ ; CPythonNetworkStream::__RefreshInventoryWindow

; 346  : 	return true;
; 347  : }

  000f7	8b 4d fc	 mov	 ecx, DWORD PTR __$ArrayPad$[ebp]
  000fa	b0 01		 mov	 al, 1
  000fc	5f		 pop	 edi
  000fd	5e		 pop	 esi
  000fe	33 cd		 xor	 ecx, ebp
  00100	5b		 pop	 ebx
  00101	e8 00 00 00 00	 call	 @__security_check_cookie@4
  00106	8b e5		 mov	 esp, ebp
  00108	5d		 pop	 ebp
  00109	c3		 ret	 0
?RecvItemUpdatePacket@CPythonNetworkStream@@IAE_NXZ ENDP ; CPythonNetworkStream::RecvItemUpdatePacket
_TEXT	ENDS
; Function compile flags: /Ogtp
; File C:\Anka2Project\Anka2Project\Source\Binary\source\UserInterface\PythonNetworkStreamPhaseGameItem.cpp
; File C:\Anka2Project\Anka2Project\Source\Binary\source\UserInterface\GameType.h
; File C:\Anka2Project\Anka2Project\Source\Binary\source\UserInterface\PythonNetworkStreamPhaseGameItem.cpp
; File C:\Anka2Project\Anka2Project\Source\Binary\source\UserInterface\GameType.h
; File C:\Anka2Project\Anka2Project\Source\Binary\source\UserInterface\PythonNetworkStreamPhaseGameItem.cpp
; File C:\Anka2Project\Anka2Project\Source\Binary\source\UserInterface\AbstractSingleton.h
; File C:\Anka2Project\Anka2Project\Source\Binary\source\UserInterface\PythonNetworkStreamPhaseGameItem.cpp
; File C:\Anka2Project\Anka2Project\Source\Binary\source\UserInterface\AbstractSingleton.h
; File C:\Anka2Project\Anka2Project\Source\Binary\source\UserInterface\PythonNetworkStreamPhaseGameItem.cpp
;	COMDAT ?RecvItemSetPacket2@CPythonNetworkStream@@IAE_NXZ
_TEXT	SEGMENT
_packet_item_set$ = -112				; size = 56
_kItemData$ = -56					; size = 51
__$ArrayPad$ = -4					; size = 4
?RecvItemSetPacket2@CPythonNetworkStream@@IAE_NXZ PROC	; CPythonNetworkStream::RecvItemSetPacket2, COMDAT
; _this$ = ecx

; 275  : {

  00000	55		 push	 ebp
  00001	8b ec		 mov	 ebp, esp
  00003	83 e4 f8	 and	 esp, -8			; fffffff8H
  00006	83 ec 70	 sub	 esp, 112		; 00000070H
  00009	a1 00 00 00 00	 mov	 eax, DWORD PTR ___security_cookie
  0000e	33 c4		 xor	 eax, esp
  00010	89 44 24 6c	 mov	 DWORD PTR __$ArrayPad$[esp+112], eax
  00014	56		 push	 esi
; File C:\Anka2Project\Anka2Project\Source\Binary\source\UserInterface\GameType.h

; 448  : 		cell = WORD_MAX;

  00015	b8 ff ff 00 00	 mov	 eax, 65535		; 0000ffffH
  0001a	c6 44 24 05 01	 mov	 BYTE PTR _packet_item_set$[esp+117], 1
; File C:\Anka2Project\Anka2Project\Source\Binary\source\UserInterface\PythonNetworkStreamPhaseGameItem.cpp

; 275  : {

  0001f	57		 push	 edi
; File C:\Anka2Project\Anka2Project\Source\Binary\source\UserInterface\GameType.h

; 448  : 		cell = WORD_MAX;

  00020	66 89 44 24 0a	 mov	 WORD PTR _packet_item_set$[esp+122], ax
; File C:\Anka2Project\Anka2Project\Source\Binary\source\UserInterface\PythonNetworkStreamPhaseGameItem.cpp

; 275  : {

  00025	8b f1		 mov	 esi, ecx

; 276  : 	TPacketGCItemSet2 packet_item_set;
; 277  : 
; 278  : 	if (!Recv(sizeof(TPacketGCItemSet2), &packet_item_set))

  00027	8d 44 24 08	 lea	 eax, DWORD PTR _packet_item_set$[esp+120]
  0002b	50		 push	 eax
  0002c	6a 38		 push	 56			; 00000038H
  0002e	e8 00 00 00 00	 call	 ?Recv@CNetworkStream@@QAE_NHPAX@Z ; CNetworkStream::Recv
  00033	84 c0		 test	 al, al
  00035	75 11		 jne	 SHORT $LN8@RecvItemSe

; 311  : 	return true;
; 312  : }

  00037	5f		 pop	 edi
  00038	5e		 pop	 esi
  00039	8b 4c 24 6c	 mov	 ecx, DWORD PTR __$ArrayPad$[esp+112]
  0003d	33 cc		 xor	 ecx, esp
  0003f	e8 00 00 00 00	 call	 @__security_check_cookie@4
  00044	8b e5		 mov	 esp, ebp
  00046	5d		 pop	 ebp
  00047	c3		 ret	 0
$LN8@RecvItemSe:

; 282  : 	kItemData.vnum = packet_item_set.vnum;

  00048	8b 44 24 0c	 mov	 eax, DWORD PTR _packet_item_set$[esp+124]
  0004c	0f 10 44 24 27	 movups	 xmm0, XMMWORD PTR _packet_item_set$[esp+151]
; File C:\Anka2Project\Anka2Project\Source\Binary\source\UserInterface\AbstractSingleton.h

; 24   : 		assert(ms_singleton!=nullptr);

  00051	8b 3d 00 00 00
	00		 mov	 edi, DWORD PTR ?ms_singleton@?$TAbstractSingleton@VIAbstractPlayer@@@@0PAVIAbstractPlayer@@A ; TAbstractSingleton<IAbstractPlayer>::ms_singleton
; File C:\Anka2Project\Anka2Project\Source\Binary\source\UserInterface\PythonNetworkStreamPhaseGameItem.cpp

; 282  : 	kItemData.vnum = packet_item_set.vnum;

  00057	89 44 24 40	 mov	 DWORD PTR _kItemData$[esp+120], eax

; 283  : 	kItemData.count = packet_item_set.count;

  0005b	66 8b 44 24 10	 mov	 ax, WORD PTR _packet_item_set$[esp+128]
  00060	66 89 44 24 44	 mov	 WORD PTR _kItemData$[esp+124], ax

; 284  : 	kItemData.flags = packet_item_set.flags;

  00065	8b 44 24 12	 mov	 eax, DWORD PTR _packet_item_set$[esp+130]
  00069	89 44 24 46	 mov	 DWORD PTR _kItemData$[esp+126], eax

; 285  : 	kItemData.anti_flags = packet_item_set.anti_flags;

  0006d	8b 44 24 16	 mov	 eax, DWORD PTR _packet_item_set$[esp+134]
  00071	89 44 24 4a	 mov	 DWORD PTR _kItemData$[esp+130], eax

; 286  : 
; 287  : 	for (int i=0; i<ITEM_SOCKET_SLOT_MAX_NUM; ++i)
; 288  : 		kItemData.alSockets[i]=packet_item_set.alSockets[i];

  00075	8b 44 24 1b	 mov	 eax, DWORD PTR _packet_item_set$[esp+139]
  00079	89 44 24 4e	 mov	 DWORD PTR _kItemData$[esp+134], eax
  0007d	8b 44 24 1f	 mov	 eax, DWORD PTR _packet_item_set$[esp+143]
  00081	89 44 24 52	 mov	 DWORD PTR _kItemData$[esp+138], eax
  00085	8b 44 24 23	 mov	 eax, DWORD PTR _packet_item_set$[esp+147]
  00089	89 44 24 56	 mov	 DWORD PTR _kItemData$[esp+142], eax
  0008d	8b 44 24 37	 mov	 eax, DWORD PTR _packet_item_set$[esp+167]
  00091	89 44 24 6a	 mov	 DWORD PTR _kItemData$[esp+162], eax
  00095	8a 44 24 3b	 mov	 al, BYTE PTR _packet_item_set$[esp+171]
  00099	88 44 24 6e	 mov	 BYTE PTR _kItemData$[esp+166], al

; 289  : 	for (int j=0; j<ITEM_ATTRIBUTE_SLOT_MAX_NUM; ++j)
; 290  : 		kItemData.aAttr[j]=packet_item_set.aAttr[j];
; 291  : 
; 292  : #ifdef ENABLE_CHANGE_LOOK_SYSTEM
; 293  : 	kItemData.dwTransmutationVnum = packet_item_set.dwTransmutationVnum;

  0009d	8b 44 24 3c	 mov	 eax, DWORD PTR _packet_item_set$[esp+172]
  000a1	89 44 24 6f	 mov	 DWORD PTR _kItemData$[esp+167], eax
  000a5	0f 11 44 24 5a	 movups	 XMMWORD PTR _kItemData$[esp+146], xmm0
; File C:\Anka2Project\Anka2Project\Source\Binary\source\UserInterface\AbstractSingleton.h

; 24   : 		assert(ms_singleton!=nullptr);

  000aa	85 ff		 test	 edi, edi
  000ac	75 1a		 jne	 SHORT $LN18@RecvItemSe
  000ae	6a 18		 push	 24			; 00000018H
  000b0	68 00 00 00 00	 push	 OFFSET ??_C@_1KI@FIPHLMOB@?$AAC?$AA?3?$AA?2?$AAA?$AAn?$AAk?$AAa?$AA2?$AAP?$AAr?$AAo?$AAj?$AAe?$AAc?$AAt@
  000b5	68 00 00 00 00	 push	 OFFSET ??_C@_1CM@FPMBEAEA@?$AAm?$AAs?$AA_?$AAs?$AAi?$AAn?$AAg?$AAl?$AAe?$AAt?$AAo?$AAn?$AA?$CB?$AA?$DN?$AAn@
  000ba	e8 00 00 00 00	 call	 __wassert
  000bf	8b 3d 00 00 00
	00		 mov	 edi, DWORD PTR ?ms_singleton@?$TAbstractSingleton@VIAbstractPlayer@@@@0PAVIAbstractPlayer@@A ; TAbstractSingleton<IAbstractPlayer>::ms_singleton
  000c5	83 c4 0c	 add	 esp, 12			; 0000000cH
$LN18@RecvItemSe:
; File C:\Anka2Project\Anka2Project\Source\Binary\source\UserInterface\PythonNetworkStreamPhaseGameItem.cpp

; 297  : 	rkPlayer.SetItemData(packet_item_set.Cell, kItemData);

  000c8	8b 17		 mov	 edx, DWORD PTR [edi]
  000ca	8d 44 24 40	 lea	 eax, DWORD PTR _kItemData$[esp+120]
  000ce	50		 push	 eax
  000cf	66 8b 44 24 0d	 mov	 ax, WORD PTR _packet_item_set$[esp+125]
  000d4	51		 push	 ecx
  000d5	8b cc		 mov	 ecx, esp
  000d7	66 89 01	 mov	 WORD PTR [ecx], ax
  000da	8a 44 24 13	 mov	 al, BYTE PTR _packet_item_set$[esp+131]
  000de	88 41 02	 mov	 BYTE PTR [ecx+2], al
  000e1	8b cf		 mov	 ecx, edi
  000e3	ff 52 34	 call	 DWORD PTR [edx+52]

; 298  : 
; 299  : #ifdef ENABLE_RENEWAL_SWITCHBOT
; 300  : 	if (packet_item_set.Cell.window_type == SWITCHBOT)

  000e6	8a 4c 24 09	 mov	 cl, BYTE PTR _packet_item_set$[esp+121]
  000ea	80 f9 07	 cmp	 cl, 7
  000ed	75 32		 jne	 SHORT $LN9@RecvItemSe

; 301  : 	{
; 302  : 		PyCallClassMemberFunc(m_apoPhaseWnd[PHASE_WINDOW_GAME], "RefreshSwitchbotWindow", Py_BuildValue("()"));

  000ef	68 00 00 00 00	 push	 OFFSET ??_C@_02HCKGKOFO@?$CI?$CJ@
  000f4	ff 15 00 00 00
	00		 call	 DWORD PTR __imp__Py_BuildValue
  000fa	50		 push	 eax
  000fb	68 00 00 00 00	 push	 OFFSET ??_C@_0BH@IJBFJHPO@RefreshSwitchbotWindow@
  00100	ff b6 98 01 00
	00		 push	 DWORD PTR [esi+408]
  00106	e8 00 00 00 00	 call	 ?PyCallClassMemberFunc@@YA_NPAU_object@@PBD0@Z ; PyCallClassMemberFunc
  0010b	83 c4 10	 add	 esp, 16			; 00000010H

; 311  : 	return true;
; 312  : }

  0010e	b0 01		 mov	 al, 1
  00110	5f		 pop	 edi
  00111	5e		 pop	 esi
  00112	8b 4c 24 6c	 mov	 ecx, DWORD PTR __$ArrayPad$[esp+112]
  00116	33 cc		 xor	 ecx, esp
  00118	e8 00 00 00 00	 call	 @__security_check_cookie@4
  0011d	8b e5		 mov	 esp, ebp
  0011f	5d		 pop	 ebp
  00120	c3		 ret	 0
$LN9@RecvItemSe:

; 303  : 		return true;
; 304  : 	}
; 305  : #endif
; 306  : 
; 307  : 	if (packet_item_set.highlight)

  00121	80 7c 24 1a 00	 cmp	 BYTE PTR _packet_item_set$[esp+138], 0
  00126	74 29		 je	 SHORT $LN10@RecvItemSe

; 308  : 		PyCallClassMemberFunc(m_apoPhaseWnd[PHASE_WINDOW_GAME], "BINARY_Highlight_Item", Py_BuildValue("(ii)", packet_item_set.Cell.window_type, packet_item_set.Cell.cell));

  00128	0f b7 44 24 0a	 movzx	 eax, WORD PTR _packet_item_set$[esp+122]
  0012d	50		 push	 eax
  0012e	0f b6 c1	 movzx	 eax, cl
  00131	50		 push	 eax
  00132	68 00 00 00 00	 push	 OFFSET ??_C@_04INACLLOK@?$CIii?$CJ@
  00137	ff 15 00 00 00
	00		 call	 DWORD PTR __imp__Py_BuildValue
  0013d	50		 push	 eax
  0013e	68 00 00 00 00	 push	 OFFSET ??_C@_0BG@ELBKFGDM@BINARY_Highlight_Item@
  00143	ff b6 98 01 00
	00		 push	 DWORD PTR [esi+408]
  00149	e8 00 00 00 00	 call	 ?PyCallClassMemberFunc@@YA_NPAU_object@@PBD0@Z ; PyCallClassMemberFunc
  0014e	83 c4 18	 add	 esp, 24			; 00000018H
$LN10@RecvItemSe:

; 309  : 
; 310  : 	__RefreshInventoryWindow();

  00151	8b ce		 mov	 ecx, esi
  00153	e8 00 00 00 00	 call	 ?__RefreshInventoryWindow@CPythonNetworkStream@@IAEXXZ ; CPythonNetworkStream::__RefreshInventoryWindow

; 311  : 	return true;
; 312  : }

  00158	8b 4c 24 74	 mov	 ecx, DWORD PTR __$ArrayPad$[esp+120]
  0015c	b0 01		 mov	 al, 1
  0015e	5f		 pop	 edi
  0015f	5e		 pop	 esi
  00160	33 cc		 xor	 ecx, esp
  00162	e8 00 00 00 00	 call	 @__security_check_cookie@4
  00167	8b e5		 mov	 esp, ebp
  00169	5d		 pop	 ebp
  0016a	c3		 ret	 0
?RecvItemSetPacket2@CPythonNetworkStream@@IAE_NXZ ENDP	; CPythonNetworkStream::RecvItemSetPacket2
_TEXT	ENDS
; Function compile flags: /Ogtp
; File C:\Anka2Project\Anka2Project\Source\Binary\source\UserInterface\PythonNetworkStreamPhaseGameItem.cpp
; File C:\Anka2Project\Anka2Project\Source\Binary\source\UserInterface\GameType.h
; File C:\Anka2Project\Anka2Project\Source\Binary\source\UserInterface\PythonNetworkStreamPhaseGameItem.cpp
; File C:\Anka2Project\Anka2Project\Source\Binary\source\UserInterface\GameType.h
; File C:\Anka2Project\Anka2Project\Source\Binary\source\UserInterface\PythonNetworkStreamPhaseGameItem.cpp
; File C:\Anka2Project\Anka2Project\Source\Binary\source\UserInterface\AbstractSingleton.h
; File C:\Anka2Project\Anka2Project\Source\Binary\source\UserInterface\PythonNetworkStreamPhaseGameItem.cpp
; File C:\Anka2Project\Anka2Project\Source\Binary\source\UserInterface\AbstractSingleton.h
; File C:\Anka2Project\Anka2Project\Source\Binary\source\UserInterface\PythonNetworkStreamPhaseGameItem.cpp
;	COMDAT ?RecvItemSetPacket@CPythonNetworkStream@@IAE_NXZ
_TEXT	SEGMENT
_kItemData$ = -104					; size = 51
_packet_item_set$ = -52					; size = 47
__$ArrayPad$ = -4					; size = 4
?RecvItemSetPacket@CPythonNetworkStream@@IAE_NXZ PROC	; CPythonNetworkStream::RecvItemSetPacket, COMDAT
; _this$ = ecx

; 239  : {

  00000	55		 push	 ebp
  00001	8b ec		 mov	 ebp, esp
  00003	83 ec 68	 sub	 esp, 104		; 00000068H
  00006	a1 00 00 00 00	 mov	 eax, DWORD PTR ___security_cookie
  0000b	33 c5		 xor	 eax, ebp
  0000d	89 45 fc	 mov	 DWORD PTR __$ArrayPad$[ebp], eax
  00010	56		 push	 esi
; File C:\Anka2Project\Anka2Project\Source\Binary\source\UserInterface\GameType.h

; 448  : 		cell = WORD_MAX;

  00011	b8 ff ff 00 00	 mov	 eax, 65535		; 0000ffffH
  00016	c6 45 cd 01	 mov	 BYTE PTR _packet_item_set$[ebp+1], 1
; File C:\Anka2Project\Anka2Project\Source\Binary\source\UserInterface\PythonNetworkStreamPhaseGameItem.cpp

; 239  : {

  0001a	57		 push	 edi
; File C:\Anka2Project\Anka2Project\Source\Binary\source\UserInterface\GameType.h

; 448  : 		cell = WORD_MAX;

  0001b	66 89 45 ce	 mov	 WORD PTR _packet_item_set$[ebp+2], ax
; File C:\Anka2Project\Anka2Project\Source\Binary\source\UserInterface\PythonNetworkStreamPhaseGameItem.cpp

; 239  : {

  0001f	8b f1		 mov	 esi, ecx

; 240  : 	TPacketGCItemSet packet_item_set;
; 241  : 
; 242  : 	if (!Recv(sizeof(TPacketGCItemSet), &packet_item_set))

  00021	8d 45 cc	 lea	 eax, DWORD PTR _packet_item_set$[ebp]
  00024	50		 push	 eax
  00025	6a 2f		 push	 47			; 0000002fH
  00027	e8 00 00 00 00	 call	 ?Recv@CNetworkStream@@QAE_NHPAX@Z ; CNetworkStream::Recv
  0002c	84 c0		 test	 al, al
  0002e	75 10		 jne	 SHORT $LN8@RecvItemSe

; 271  : 	return true;
; 272  : }

  00030	5f		 pop	 edi
  00031	5e		 pop	 esi
  00032	8b 4d fc	 mov	 ecx, DWORD PTR __$ArrayPad$[ebp]
  00035	33 cd		 xor	 ecx, ebp
  00037	e8 00 00 00 00	 call	 @__security_check_cookie@4
  0003c	8b e5		 mov	 esp, ebp
  0003e	5d		 pop	 ebp
  0003f	c3		 ret	 0
$LN8@RecvItemSe:

; 246  : 	kItemData.vnum = packet_item_set.vnum;

  00040	8b 45 d0	 mov	 eax, DWORD PTR _packet_item_set$[ebp+4]
  00043	0f 10 45 e2	 movups	 xmm0, XMMWORD PTR _packet_item_set$[ebp+22]
; File C:\Anka2Project\Anka2Project\Source\Binary\source\UserInterface\AbstractSingleton.h

; 24   : 		assert(ms_singleton!=nullptr);

  00047	8b 3d 00 00 00
	00		 mov	 edi, DWORD PTR ?ms_singleton@?$TAbstractSingleton@VIAbstractPlayer@@@@0PAVIAbstractPlayer@@A ; TAbstractSingleton<IAbstractPlayer>::ms_singleton
; File C:\Anka2Project\Anka2Project\Source\Binary\source\UserInterface\PythonNetworkStreamPhaseGameItem.cpp

; 246  : 	kItemData.vnum = packet_item_set.vnum;

  0004d	89 45 98	 mov	 DWORD PTR _kItemData$[ebp], eax

; 247  : 	kItemData.count = packet_item_set.count;

  00050	66 8b 45 d4	 mov	 ax, WORD PTR _packet_item_set$[ebp+8]
  00054	66 89 45 9c	 mov	 WORD PTR _kItemData$[ebp+4], ax

; 248  : 	kItemData.flags = 0;
; 249  : 	for (int i=0; i<ITEM_SOCKET_SLOT_MAX_NUM; ++i)
; 250  : 		kItemData.alSockets[i]=packet_item_set.alSockets[i];

  00058	8b 45 d6	 mov	 eax, DWORD PTR _packet_item_set$[ebp+10]
  0005b	89 45 a6	 mov	 DWORD PTR _kItemData$[ebp+14], eax
  0005e	8b 45 da	 mov	 eax, DWORD PTR _packet_item_set$[ebp+14]
  00061	89 45 aa	 mov	 DWORD PTR _kItemData$[ebp+18], eax
  00064	8b 45 de	 mov	 eax, DWORD PTR _packet_item_set$[ebp+18]
  00067	89 45 ae	 mov	 DWORD PTR _kItemData$[ebp+22], eax
  0006a	8b 45 f2	 mov	 eax, DWORD PTR _packet_item_set$[ebp+38]
  0006d	89 45 c2	 mov	 DWORD PTR _kItemData$[ebp+42], eax
  00070	8a 45 f6	 mov	 al, BYTE PTR _packet_item_set$[ebp+42]
  00073	88 45 c6	 mov	 BYTE PTR _kItemData$[ebp+46], al

; 251  : 	for (int j=0; j<ITEM_ATTRIBUTE_SLOT_MAX_NUM; ++j)
; 252  : 		kItemData.aAttr[j]=packet_item_set.aAttr[j];
; 253  : 
; 254  : #ifdef ENABLE_CHANGE_LOOK_SYSTEM
; 255  : 	kItemData.dwTransmutationVnum = packet_item_set.dwTransmutationVnum;

  00076	8b 45 f7	 mov	 eax, DWORD PTR _packet_item_set$[ebp+43]
  00079	c7 45 9e 00 00
	00 00		 mov	 DWORD PTR _kItemData$[ebp+6], 0
  00080	89 45 c7	 mov	 DWORD PTR _kItemData$[ebp+47], eax
  00083	0f 11 45 b2	 movups	 XMMWORD PTR _kItemData$[ebp+26], xmm0
; File C:\Anka2Project\Anka2Project\Source\Binary\source\UserInterface\AbstractSingleton.h

; 24   : 		assert(ms_singleton!=nullptr);

  00087	85 ff		 test	 edi, edi
  00089	75 1a		 jne	 SHORT $LN17@RecvItemSe
  0008b	6a 18		 push	 24			; 00000018H
  0008d	68 00 00 00 00	 push	 OFFSET ??_C@_1KI@FIPHLMOB@?$AAC?$AA?3?$AA?2?$AAA?$AAn?$AAk?$AAa?$AA2?$AAP?$AAr?$AAo?$AAj?$AAe?$AAc?$AAt@
  00092	68 00 00 00 00	 push	 OFFSET ??_C@_1CM@FPMBEAEA@?$AAm?$AAs?$AA_?$AAs?$AAi?$AAn?$AAg?$AAl?$AAe?$AAt?$AAo?$AAn?$AA?$CB?$AA?$DN?$AAn@
  00097	e8 00 00 00 00	 call	 __wassert
  0009c	8b 3d 00 00 00
	00		 mov	 edi, DWORD PTR ?ms_singleton@?$TAbstractSingleton@VIAbstractPlayer@@@@0PAVIAbstractPlayer@@A ; TAbstractSingleton<IAbstractPlayer>::ms_singleton
  000a2	83 c4 0c	 add	 esp, 12			; 0000000cH
$LN17@RecvItemSe:
; File C:\Anka2Project\Anka2Project\Source\Binary\source\UserInterface\PythonNetworkStreamPhaseGameItem.cpp

; 260  : 	rkPlayer.SetItemData(packet_item_set.Cell, kItemData);

  000a5	8b 17		 mov	 edx, DWORD PTR [edi]
  000a7	8d 45 98	 lea	 eax, DWORD PTR _kItemData$[ebp]
  000aa	50		 push	 eax
  000ab	66 8b 45 cd	 mov	 ax, WORD PTR _packet_item_set$[ebp+1]
  000af	51		 push	 ecx
  000b0	8b cc		 mov	 ecx, esp
  000b2	66 89 01	 mov	 WORD PTR [ecx], ax
  000b5	8a 45 cf	 mov	 al, BYTE PTR _packet_item_set$[ebp+3]
  000b8	88 41 02	 mov	 BYTE PTR [ecx+2], al
  000bb	8b cf		 mov	 ecx, edi
  000bd	ff 52 34	 call	 DWORD PTR [edx+52]

; 261  : 
; 262  : #ifdef ENABLE_RENEWAL_SWITCHBOT
; 263  : 	if (packet_item_set.Cell.window_type == SWITCHBOT)

  000c0	80 7d cd 07	 cmp	 BYTE PTR _packet_item_set$[ebp+1], 7
  000c4	75 31		 jne	 SHORT $LN9@RecvItemSe

; 264  : 	{
; 265  : 		PyCallClassMemberFunc(m_apoPhaseWnd[PHASE_WINDOW_GAME], "RefreshSwitchbotWindow", Py_BuildValue("()"));

  000c6	68 00 00 00 00	 push	 OFFSET ??_C@_02HCKGKOFO@?$CI?$CJ@
  000cb	ff 15 00 00 00
	00		 call	 DWORD PTR __imp__Py_BuildValue
  000d1	50		 push	 eax
  000d2	68 00 00 00 00	 push	 OFFSET ??_C@_0BH@IJBFJHPO@RefreshSwitchbotWindow@
  000d7	ff b6 98 01 00
	00		 push	 DWORD PTR [esi+408]
  000dd	e8 00 00 00 00	 call	 ?PyCallClassMemberFunc@@YA_NPAU_object@@PBD0@Z ; PyCallClassMemberFunc
  000e2	83 c4 10	 add	 esp, 16			; 00000010H

; 271  : 	return true;
; 272  : }

  000e5	b0 01		 mov	 al, 1
  000e7	5f		 pop	 edi
  000e8	5e		 pop	 esi
  000e9	8b 4d fc	 mov	 ecx, DWORD PTR __$ArrayPad$[ebp]
  000ec	33 cd		 xor	 ecx, ebp
  000ee	e8 00 00 00 00	 call	 @__security_check_cookie@4
  000f3	8b e5		 mov	 esp, ebp
  000f5	5d		 pop	 ebp
  000f6	c3		 ret	 0
$LN9@RecvItemSe:

; 266  : 		return true;
; 267  : 	}
; 268  : #endif
; 269  : 
; 270  : 	__RefreshInventoryWindow();

  000f7	8b ce		 mov	 ecx, esi
  000f9	e8 00 00 00 00	 call	 ?__RefreshInventoryWindow@CPythonNetworkStream@@IAEXXZ ; CPythonNetworkStream::__RefreshInventoryWindow

; 271  : 	return true;
; 272  : }

  000fe	8b 4d fc	 mov	 ecx, DWORD PTR __$ArrayPad$[ebp]
  00101	b0 01		 mov	 al, 1
  00103	5f		 pop	 edi
  00104	33 cd		 xor	 ecx, ebp
  00106	5e		 pop	 esi
  00107	e8 00 00 00 00	 call	 @__security_check_cookie@4
  0010c	8b e5		 mov	 esp, ebp
  0010e	5d		 pop	 ebp
  0010f	c3		 ret	 0
?RecvItemSetPacket@CPythonNetworkStream@@IAE_NXZ ENDP	; CPythonNetworkStream::RecvItemSetPacket
_TEXT	ENDS
; Function compile flags: /Ogtp
; File C:\Anka2Project\Anka2Project\Source\Binary\source\UserInterface\PythonNetworkStreamPhaseGameItem.cpp
; File C:\Anka2Project\Anka2Project\Source\Binary\source\UserInterface\AbstractSingleton.h
; File C:\Anka2Project\Anka2Project\Source\Binary\source\UserInterface\PythonNetworkStreamPhaseGameItem.cpp
; File C:\Anka2Project\Anka2Project\Source\Binary\source\UserInterface\AbstractSingleton.h
; File C:\Anka2Project\Anka2Project\Source\Binary\source\UserInterface\PythonNetworkStreamPhaseGameItem.cpp
;	COMDAT ?__IsEquipItemInSlot@CPythonNetworkStream@@IAE_NUSItemPos@@@Z
_TEXT	SEGMENT
_uSlotPos$ = 8						; size = 3
?__IsEquipItemInSlot@CPythonNetworkStream@@IAE_NUSItemPos@@@Z PROC ; CPythonNetworkStream::__IsEquipItemInSlot, COMDAT
; _this$dead$ = ecx

; 717  : {

  00000	55		 push	 ebp
  00001	8b ec		 mov	 ebp, esp
; File C:\Anka2Project\Anka2Project\Source\Binary\source\UserInterface\AbstractSingleton.h

; 24   : 		assert(ms_singleton!=nullptr);

  00003	8b 0d 00 00 00
	00		 mov	 ecx, DWORD PTR ?ms_singleton@?$TAbstractSingleton@VIAbstractPlayer@@@@0PAVIAbstractPlayer@@A ; TAbstractSingleton<IAbstractPlayer>::ms_singleton
; File C:\Anka2Project\Anka2Project\Source\Binary\source\UserInterface\PythonNetworkStreamPhaseGameItem.cpp

; 717  : {

  00009	56		 push	 esi
; File C:\Anka2Project\Anka2Project\Source\Binary\source\UserInterface\AbstractSingleton.h

; 24   : 		assert(ms_singleton!=nullptr);

  0000a	85 c9		 test	 ecx, ecx
  0000c	75 1a		 jne	 SHORT $LN5@IsEquipIte
  0000e	6a 18		 push	 24			; 00000018H
  00010	68 00 00 00 00	 push	 OFFSET ??_C@_1KI@FIPHLMOB@?$AAC?$AA?3?$AA?2?$AAA?$AAn?$AAk?$AAa?$AA2?$AAP?$AAr?$AAo?$AAj?$AAe?$AAc?$AAt@
  00015	68 00 00 00 00	 push	 OFFSET ??_C@_1CM@FPMBEAEA@?$AAm?$AAs?$AA_?$AAs?$AAi?$AAn?$AAg?$AAl?$AAe?$AAt?$AAo?$AAn?$AA?$CB?$AA?$DN?$AAn@
  0001a	e8 00 00 00 00	 call	 __wassert
  0001f	8b 0d 00 00 00
	00		 mov	 ecx, DWORD PTR ?ms_singleton@?$TAbstractSingleton@VIAbstractPlayer@@@@0PAVIAbstractPlayer@@A ; TAbstractSingleton<IAbstractPlayer>::ms_singleton
  00025	83 c4 0c	 add	 esp, 12			; 0000000cH
$LN5@IsEquipIte:
; File C:\Anka2Project\Anka2Project\Source\Binary\source\UserInterface\PythonNetworkStreamPhaseGameItem.cpp

; 719  : 	return rkPlayer.IsEquipItemInSlot(uSlotPos);

  00028	8b 01		 mov	 eax, DWORD PTR [ecx]
  0002a	51		 push	 ecx
  0002b	8b d4		 mov	 edx, esp
  0002d	8b 70 54	 mov	 esi, DWORD PTR [eax+84]
  00030	66 8b 45 08	 mov	 ax, WORD PTR _uSlotPos$[ebp]
  00034	66 89 02	 mov	 WORD PTR [edx], ax
  00037	8a 45 0a	 mov	 al, BYTE PTR _uSlotPos$[ebp+2]
  0003a	88 42 02	 mov	 BYTE PTR [edx+2], al
  0003d	ff d6		 call	 esi

; 720  : }

  0003f	5e		 pop	 esi
  00040	5d		 pop	 ebp
  00041	c2 04 00	 ret	 4
?__IsEquipItemInSlot@CPythonNetworkStream@@IAE_NUSItemPos@@@Z ENDP ; CPythonNetworkStream::__IsEquipItemInSlot
_TEXT	ENDS
; Function compile flags: /Ogtp
; File C:\Anka2Project\Anka2Project\Source\Binary\source\UserInterface\PythonNetworkStreamPhaseGameItem.cpp
; File C:\Anka2Project\Anka2Project\Source\Binary\source\UserInterface\AbstractSingleton.h
; File C:\Anka2Project\Anka2Project\Source\Binary\source\UserInterface\PythonNetworkStreamPhaseGameItem.cpp
; File C:\Anka2Project\Anka2Project\Source\Binary\source\UserInterface\AbstractSingleton.h
; File C:\Anka2Project\Anka2Project\Source\Binary\source\UserInterface\PythonNetworkStreamPhaseGameItem.cpp
; File C:\Anka2Project\Anka2Project\Source\Binary\source\eterBase\Singleton.h
; File C:\Anka2Project\Anka2Project\Source\Binary\source\UserInterface\PythonNetworkStreamPhaseGameItem.cpp
; File C:\Anka2Project\Anka2Project\Source\Binary\source\eterBase\Singleton.h
; File C:\Anka2Project\Anka2Project\Source\Binary\source\UserInterface\PythonNetworkStreamPhaseGameItem.cpp
;	COMDAT ?__PlayInventoryItemUseSound@CPythonNetworkStream@@IAEXUSItemPos@@@Z
_TEXT	SEGMENT
_uSlotPos$ = 8						; size = 3
?__PlayInventoryItemUseSound@CPythonNetworkStream@@IAEXUSItemPos@@@Z PROC ; CPythonNetworkStream::__PlayInventoryItemUseSound, COMDAT
; _this$dead$ = ecx

; 723  : {

  00000	55		 push	 ebp
  00001	8b ec		 mov	 ebp, esp
; File C:\Anka2Project\Anka2Project\Source\Binary\source\UserInterface\AbstractSingleton.h

; 24   : 		assert(ms_singleton!=nullptr);

  00003	8b 0d 00 00 00
	00		 mov	 ecx, DWORD PTR ?ms_singleton@?$TAbstractSingleton@VIAbstractPlayer@@@@0PAVIAbstractPlayer@@A ; TAbstractSingleton<IAbstractPlayer>::ms_singleton
; File C:\Anka2Project\Anka2Project\Source\Binary\source\UserInterface\PythonNetworkStreamPhaseGameItem.cpp

; 723  : {

  00009	56		 push	 esi
; File C:\Anka2Project\Anka2Project\Source\Binary\source\UserInterface\AbstractSingleton.h

; 24   : 		assert(ms_singleton!=nullptr);

  0000a	85 c9		 test	 ecx, ecx
  0000c	75 1a		 jne	 SHORT $LN5@PlayInvent
  0000e	6a 18		 push	 24			; 00000018H
  00010	68 00 00 00 00	 push	 OFFSET ??_C@_1KI@FIPHLMOB@?$AAC?$AA?3?$AA?2?$AAA?$AAn?$AAk?$AAa?$AA2?$AAP?$AAr?$AAo?$AAj?$AAe?$AAc?$AAt@
  00015	68 00 00 00 00	 push	 OFFSET ??_C@_1CM@FPMBEAEA@?$AAm?$AAs?$AA_?$AAs?$AAi?$AAn?$AAg?$AAl?$AAe?$AAt?$AAo?$AAn?$AA?$CB?$AA?$DN?$AAn@
  0001a	e8 00 00 00 00	 call	 __wassert
  0001f	8b 0d 00 00 00
	00		 mov	 ecx, DWORD PTR ?ms_singleton@?$TAbstractSingleton@VIAbstractPlayer@@@@0PAVIAbstractPlayer@@A ; TAbstractSingleton<IAbstractPlayer>::ms_singleton
  00025	83 c4 0c	 add	 esp, 12			; 0000000cH
$LN5@PlayInvent:
; File C:\Anka2Project\Anka2Project\Source\Binary\source\UserInterface\PythonNetworkStreamPhaseGameItem.cpp

; 725  : 	DWORD dwItemID=rkPlayer.GetItemIndex(uSlotPos);

  00028	8b 01		 mov	 eax, DWORD PTR [ecx]
  0002a	51		 push	 ecx
  0002b	8b d4		 mov	 edx, esp
  0002d	8b 70 48	 mov	 esi, DWORD PTR [eax+72]
  00030	66 8b 45 08	 mov	 ax, WORD PTR _uSlotPos$[ebp]
  00034	66 89 02	 mov	 WORD PTR [edx], ax
  00037	8a 45 0a	 mov	 al, BYTE PTR _uSlotPos$[ebp+2]
  0003a	88 42 02	 mov	 BYTE PTR [edx+2], al
  0003d	ff d6		 call	 esi
; File C:\Anka2Project\Anka2Project\Source\Binary\source\eterBase\Singleton.h

; 26   : 		assert(ms_singleton);

  0003f	8b 0d 00 00 00
	00		 mov	 ecx, DWORD PTR ?ms_singleton@?$CSingleton@VCPythonItem@@@@0PAVCPythonItem@@A ; CSingleton<CPythonItem>::ms_singleton
; File C:\Anka2Project\Anka2Project\Source\Binary\source\UserInterface\PythonNetworkStreamPhaseGameItem.cpp

; 725  : 	DWORD dwItemID=rkPlayer.GetItemIndex(uSlotPos);

  00045	8b f0		 mov	 esi, eax
; File C:\Anka2Project\Anka2Project\Source\Binary\source\eterBase\Singleton.h

; 26   : 		assert(ms_singleton);

  00047	85 c9		 test	 ecx, ecx
  00049	75 1a		 jne	 SHORT $LN8@PlayInvent
  0004b	6a 1a		 push	 26			; 0000001aH
  0004d	68 00 00 00 00	 push	 OFFSET ??_C@_1IO@CAJLEEOI@?$AAC?$AA?3?$AA?2?$AAA?$AAn?$AAk?$AAa?$AA2?$AAP?$AAr?$AAo?$AAj?$AAe?$AAc?$AAt@
  00052	68 00 00 00 00	 push	 OFFSET ??_C@_1BK@FMEHPMFE@?$AAm?$AAs?$AA_?$AAs?$AAi?$AAn?$AAg?$AAl?$AAe?$AAt?$AAo?$AAn@
  00057	e8 00 00 00 00	 call	 __wassert
  0005c	8b 0d 00 00 00
	00		 mov	 ecx, DWORD PTR ?ms_singleton@?$CSingleton@VCPythonItem@@@@0PAVCPythonItem@@A ; CSingleton<CPythonItem>::ms_singleton
  00062	83 c4 0c	 add	 esp, 12			; 0000000cH
$LN8@PlayInvent:
; File C:\Anka2Project\Anka2Project\Source\Binary\source\UserInterface\PythonNetworkStreamPhaseGameItem.cpp

; 728  : 	rkItem.PlayUseSound(dwItemID);

  00065	56		 push	 esi
  00066	e8 00 00 00 00	 call	 ?PlayUseSound@CPythonItem@@QAEXK@Z ; CPythonItem::PlayUseSound

; 729  : }

  0006b	5e		 pop	 esi
  0006c	5d		 pop	 ebp
  0006d	c2 04 00	 ret	 4
?__PlayInventoryItemUseSound@CPythonNetworkStream@@IAEXUSItemPos@@@Z ENDP ; CPythonNetworkStream::__PlayInventoryItemUseSound
_TEXT	ENDS
; Function compile flags: /Ogtp
; File C:\Anka2Project\Anka2Project\Source\Binary\source\UserInterface\GameType.h
;	COMDAT ??0command_item_new_attribute@@QAE@XZ
_TEXT	SEGMENT
??0command_item_new_attribute@@QAE@XZ PROC		; command_item_new_attribute::command_item_new_attribute, COMDAT
; _this$ = ecx

; 448  : 		cell = WORD_MAX;

  00000	b8 ff ff 00 00	 mov	 eax, 65535		; 0000ffffH
  00005	c6 41 01 01	 mov	 BYTE PTR [ecx+1], 1
  00009	66 89 41 02	 mov	 WORD PTR [ecx+2], ax
  0000d	66 89 41 05	 mov	 WORD PTR [ecx+5], ax
  00011	8b c1		 mov	 eax, ecx

; 447  : 		window_type = INVENTORY;

  00013	c6 41 04 01	 mov	 BYTE PTR [ecx+4], 1
  00017	c3		 ret	 0
??0command_item_new_attribute@@QAE@XZ ENDP		; command_item_new_attribute::command_item_new_attribute
_TEXT	ENDS
END
