; Listing generated by Microsoft (R) Optimizing Compiler Version 19.44.35219.0 

	TITLE	c:\anka2project\anka2project\source\binary\vs_files\userinterface\release\pythoncharactermanager.obj
	.686P
	.XMM
	include listing.inc
	.model	flat

INCLUDELIB OLDNAMES

PUBLIC	??_C@_1JE@NHCKLKIG@?$AAC?$AA?3?$AA?2?$AAA?$AAn?$AAk?$AAa?$AA2?$AAP?$AAr?$AAo?$AAj?$AAe?$AAc?$AAt@ ; `string'
PUBLIC	??_C@_1DC@NFJMNKJC@?$AAm?$AAs?$AA_?$AAO?$AAb?$AAj?$AAM?$AAa?$AAn?$AAa?$AAg?$AAe?$AAr?$AA?5?$AA?$DN@ ; `string'
PUBLIC	??_C@_07DDCLDHCF@Actor?3?5@			; `string'
PUBLIC	??_C@_0BN@MCDFNGBH@Container?5?9?5Live?5?$CFd?0?5Dead?5?$CFd@ ; `string'
PUBLIC	??_C@_0EC@KAFJJKBD@CPythonCharacterManager?3?3Create@ ; `string'
PUBLIC	??_C@_0DJ@DCBIHGAA@CPythonCharacterManager?3?3Create@ ; `string'
PUBLIC	??_C@_0CH@HECKLEJN@DeleteCharacterInstance?3?5no?5vid@ ; `string'
PUBLIC	??_C@_0CH@DINFEOPA@SelectCharacterInstance?3?5no?5vid@ ; `string'
PUBLIC	??_R2CPythonCharacterManager@@8			; CPythonCharacterManager::`RTTI Base Class Array'
PUBLIC	??_R2?$CSingleton@VCPythonCharacterManager@@@@8	; CSingleton<CPythonCharacterManager>::`RTTI Base Class Array'
PUBLIC	??_R2IObjectManager@@8				; IObjectManager::`RTTI Base Class Array'
PUBLIC	??_R2IAbstractCharacterManager@@8		; IAbstractCharacterManager::`RTTI Base Class Array'
PUBLIC	??_R2?$TAbstractSingleton@VIAbstractCharacterManager@@@@8 ; TAbstractSingleton<IAbstractCharacterManager>::`RTTI Base Class Array'
PUBLIC	??_R17?0A@EA@IObjectManager@@8			; IObjectManager::`RTTI Base Class Descriptor at (8,-1,0,64)'
PUBLIC	??_R13?0A@EA@?$TAbstractSingleton@VIAbstractCharacterManager@@@@8 ; TAbstractSingleton<IAbstractCharacterManager>::`RTTI Base Class Descriptor at (4,-1,0,64)'
PUBLIC	??_R13?0A@EA@IAbstractCharacterManager@@8	; IAbstractCharacterManager::`RTTI Base Class Descriptor at (4,-1,0,64)'
PUBLIC	??_R1A@?0A@EA@CPythonCharacterManager@@8	; CPythonCharacterManager::`RTTI Base Class Descriptor at (0,-1,0,64)'
PUBLIC	??_R1A@?0A@EA@?$CSingleton@VCPythonCharacterManager@@@@8 ; CSingleton<CPythonCharacterManager>::`RTTI Base Class Descriptor at (0,-1,0,64)'
PUBLIC	??_R1A@?0A@EA@IObjectManager@@8			; IObjectManager::`RTTI Base Class Descriptor at (0,-1,0,64)'
PUBLIC	??_R1A@?0A@EA@IAbstractCharacterManager@@8	; IAbstractCharacterManager::`RTTI Base Class Descriptor at (0,-1,0,64)'
PUBLIC	??_R1A@?0A@EA@?$TAbstractSingleton@VIAbstractCharacterManager@@@@8 ; TAbstractSingleton<IAbstractCharacterManager>::`RTTI Base Class Descriptor at (0,-1,0,64)'
PUBLIC	??_R3?$CSingleton@VCPythonCharacterManager@@@@8	; CSingleton<CPythonCharacterManager>::`RTTI Class Hierarchy Descriptor'
PUBLIC	??_R0?AV?$CSingleton@VCPythonCharacterManager@@@@@8 ; CSingleton<CPythonCharacterManager> `RTTI Type Descriptor'
PUBLIC	??_R3CPythonCharacterManager@@8			; CPythonCharacterManager::`RTTI Class Hierarchy Descriptor'
PUBLIC	??_R0?AVCPythonCharacterManager@@@8		; CPythonCharacterManager `RTTI Type Descriptor'
PUBLIC	??_R3IObjectManager@@8				; IObjectManager::`RTTI Class Hierarchy Descriptor'
PUBLIC	??_R0?AVIObjectManager@@@8			; IObjectManager `RTTI Type Descriptor'
PUBLIC	??_R3?$TAbstractSingleton@VIAbstractCharacterManager@@@@8 ; TAbstractSingleton<IAbstractCharacterManager>::`RTTI Class Hierarchy Descriptor'
PUBLIC	??_R0?AV?$TAbstractSingleton@VIAbstractCharacterManager@@@@@8 ; TAbstractSingleton<IAbstractCharacterManager> `RTTI Type Descriptor'
PUBLIC	??_R3IAbstractCharacterManager@@8		; IAbstractCharacterManager::`RTTI Class Hierarchy Descriptor'
PUBLIC	??_R0?AVIAbstractCharacterManager@@@8		; IAbstractCharacterManager `RTTI Type Descriptor'
PUBLIC	??_R4?$CSingleton@VCPythonCharacterManager@@@@6B@ ; CSingleton<CPythonCharacterManager>::`RTTI Complete Object Locator'
PUBLIC	??_R4CPythonCharacterManager@@6BIObjectManager@@@ ; CPythonCharacterManager::`RTTI Complete Object Locator'
PUBLIC	??_R4CPythonCharacterManager@@6BIAbstractCharacterManager@@@ ; CPythonCharacterManager::`RTTI Complete Object Locator'
PUBLIC	??_R4CPythonCharacterManager@@6B?$CSingleton@VCPythonCharacterManager@@@@@ ; CPythonCharacterManager::`RTTI Complete Object Locator'
PUBLIC	??_R4IObjectManager@@6B@			; IObjectManager::`RTTI Complete Object Locator'
PUBLIC	??_R4?$TAbstractSingleton@VIAbstractCharacterManager@@@@6B@ ; TAbstractSingleton<IAbstractCharacterManager>::`RTTI Complete Object Locator'
PUBLIC	??_R4IAbstractCharacterManager@@6B@		; IAbstractCharacterManager::`RTTI Complete Object Locator'
PUBLIC	?ms_singleton@?$TAbstractSingleton@VIAbstractCharacterManager@@@@0PAVIAbstractCharacterManager@@A ; TAbstractSingleton<IAbstractCharacterManager>::ms_singleton
PUBLIC	??_7?$TAbstractSingleton@VIAbstractCharacterManager@@@@6B@ ; TAbstractSingleton<IAbstractCharacterManager>::`vftable'
PUBLIC	??_7?$CSingleton@VCPythonCharacterManager@@@@6B@ ; CSingleton<CPythonCharacterManager>::`vftable'
PUBLIC	??_7CPythonCharacterManager@@6BIObjectManager@@@ ; CPythonCharacterManager::`vftable'
PUBLIC	??_7CPythonCharacterManager@@6BIAbstractCharacterManager@@@ ; CPythonCharacterManager::`vftable'
PUBLIC	??_7CPythonCharacterManager@@6B?$CSingleton@VCPythonCharacterManager@@@@@ ; CPythonCharacterManager::`vftable'
PUBLIC	??_7IObjectManager@@6B@				; IObjectManager::`vftable'
PUBLIC	??_7IAbstractCharacterManager@@6B@		; IAbstractCharacterManager::`vftable'
PUBLIC	?CHAR_STAGE_VIEW_BOUND@@3HA			; CHAR_STAGE_VIEW_BOUND
EXTRN	?ProjectPosition@CScreen@@QAEXMMMPAM0@Z:PROC	; CScreen::ProjectPosition
EXTRN	?Tracef@@YAXPBDZZ:PROC				; Tracef
EXTRN	?SetTexture@CStateManager@@QAEXKPAUIDirect3DBaseTexture8@@@Z:PROC ; CStateManager::SetTexture
EXTRN	?TestPhysicsBlendingCollision@CActorInstance@@QAEHAAV1@@Z:PROC ; CActorInstance::TestPhysicsBlendingCollision
EXTRN	?ms_ObjManager@IObjectManager@@0PAV1@A:DWORD	; IObjectManager::ms_ObjManager
EXTRN	?ms_pWorld@IPhysicsWorld@@0PAV1@A:DWORD		; IPhysicsWorld::ms_pWorld
;	COMDAT ?ms_singleton@?$TAbstractSingleton@VIAbstractCharacterManager@@@@0PAVIAbstractCharacterManager@@A
_BSS	SEGMENT
?ms_singleton@?$TAbstractSingleton@VIAbstractCharacterManager@@@@0PAVIAbstractCharacterManager@@A DD 01H DUP (?) ; TAbstractSingleton<IAbstractCharacterManager>::ms_singleton
_BSS	ENDS
;	COMDAT ?s_kVct_pkInstDeadSort@?1??__RenderSortedDeadActorList@CPythonCharacterManager@@IAEXXZ@4V?$vector@PAVCInstanceBase@@V?$allocator@PAVCInstanceBase@@@std@@@std@@A
_BSS	SEGMENT
?s_kVct_pkInstDeadSort@?1??__RenderSortedDeadActorList@CPythonCharacterManager@@IAEXXZ@4V?$vector@PAVCInstanceBase@@V?$allocator@PAVCInstanceBase@@@std@@@std@@A DB 0cH DUP (?) ; `CPythonCharacterManager::__RenderSortedDeadActorList'::`2'::s_kVct_pkInstDeadSort
_BSS	ENDS
;	COMDAT ?s_kVct_pkInstAliveSort@?1??__RenderSortedAliveActorList@CPythonCharacterManager@@IAEXXZ@4V?$vector@PAVCInstanceBase@@V?$allocator@PAVCInstanceBase@@@std@@@std@@A
_BSS	SEGMENT
?s_kVct_pkInstAliveSort@?1??__RenderSortedAliveActorList@CPythonCharacterManager@@IAEXXZ@4V?$vector@PAVCInstanceBase@@V?$allocator@PAVCInstanceBase@@@std@@@std@@A DB 0cH DUP (?) ; `CPythonCharacterManager::__RenderSortedAliveActorList'::`2'::s_kVct_pkInstAliveSort
_BSS	ENDS
;	COMDAT ??_7IAbstractCharacterManager@@6B@
CONST	SEGMENT
??_7IAbstractCharacterManager@@6B@ DD FLAT:??_R4IAbstractCharacterManager@@6B@ ; IAbstractCharacterManager::`vftable'
	DD	FLAT:??_EIAbstractCharacterManager@@UAEPAXI@Z
	DD	FLAT:__purecall
	DD	FLAT:__purecall
CONST	ENDS
;	COMDAT ??_7IObjectManager@@6B@
CONST	SEGMENT
??_7IObjectManager@@6B@ DD FLAT:??_R4IObjectManager@@6B@ ; IObjectManager::`vftable'
	DD	FLAT:??_EIObjectManager@@UAEPAXI@Z
	DD	FLAT:__purecall
CONST	ENDS
;	COMDAT ??_7CPythonCharacterManager@@6B?$CSingleton@VCPythonCharacterManager@@@@@
CONST	SEGMENT
??_7CPythonCharacterManager@@6B?$CSingleton@VCPythonCharacterManager@@@@@ DD FLAT:??_R4CPythonCharacterManager@@6B?$CSingleton@VCPythonCharacterManager@@@@@ ; CPythonCharacterManager::`vftable'
	DD	FLAT:??_ECPythonCharacterManager@@UAEPAXI@Z
CONST	ENDS
;	COMDAT ??_7CPythonCharacterManager@@6BIAbstractCharacterManager@@@
CONST	SEGMENT
??_7CPythonCharacterManager@@6BIAbstractCharacterManager@@@ DD FLAT:??_R4CPythonCharacterManager@@6BIAbstractCharacterManager@@@ ; CPythonCharacterManager::`vftable'
	DD	FLAT:??_ECPythonCharacterManager@@W3AEPAXI@Z
	DD	FLAT:?Destroy@CPythonCharacterManager@@UAEXXZ
	DD	FLAT:?GetInstancePtr@CPythonCharacterManager@@UAEPAVCInstanceBase@@K@Z
CONST	ENDS
;	COMDAT ??_7CPythonCharacterManager@@6BIObjectManager@@@
CONST	SEGMENT
??_7CPythonCharacterManager@@6BIObjectManager@@@ DD FLAT:??_R4CPythonCharacterManager@@6BIObjectManager@@@ ; CPythonCharacterManager::`vftable'
	DD	FLAT:??_ECPythonCharacterManager@@W7AEPAXI@Z
	DD	FLAT:?AdjustCollisionWithOtherObjects@CPythonCharacterManager@@UAEXPAVCActorInstance@@@Z
CONST	ENDS
;	COMDAT ??_7?$CSingleton@VCPythonCharacterManager@@@@6B@
CONST	SEGMENT
??_7?$CSingleton@VCPythonCharacterManager@@@@6B@ DD FLAT:??_R4?$CSingleton@VCPythonCharacterManager@@@@6B@ ; CSingleton<CPythonCharacterManager>::`vftable'
	DD	FLAT:??_E?$CSingleton@VCPythonCharacterManager@@@@UAEPAXI@Z
CONST	ENDS
;	COMDAT ??_7?$TAbstractSingleton@VIAbstractCharacterManager@@@@6B@
CONST	SEGMENT
??_7?$TAbstractSingleton@VIAbstractCharacterManager@@@@6B@ DD FLAT:??_R4?$TAbstractSingleton@VIAbstractCharacterManager@@@@6B@ ; TAbstractSingleton<IAbstractCharacterManager>::`vftable'
	DD	FLAT:??_E?$TAbstractSingleton@VIAbstractCharacterManager@@@@UAEPAXI@Z
CONST	ENDS
;	COMDAT ??_R4IAbstractCharacterManager@@6B@
rdata$r	SEGMENT
??_R4IAbstractCharacterManager@@6B@ DD 00H		; IAbstractCharacterManager::`RTTI Complete Object Locator'
	DD	00H
	DD	00H
	DD	FLAT:??_R0?AVIAbstractCharacterManager@@@8
	DD	FLAT:??_R3IAbstractCharacterManager@@8
rdata$r	ENDS
;	COMDAT ??_R4?$TAbstractSingleton@VIAbstractCharacterManager@@@@6B@
rdata$r	SEGMENT
??_R4?$TAbstractSingleton@VIAbstractCharacterManager@@@@6B@ DD 00H ; TAbstractSingleton<IAbstractCharacterManager>::`RTTI Complete Object Locator'
	DD	00H
	DD	00H
	DD	FLAT:??_R0?AV?$TAbstractSingleton@VIAbstractCharacterManager@@@@@8
	DD	FLAT:??_R3?$TAbstractSingleton@VIAbstractCharacterManager@@@@8
rdata$r	ENDS
;	COMDAT ??_R4IObjectManager@@6B@
rdata$r	SEGMENT
??_R4IObjectManager@@6B@ DD 00H				; IObjectManager::`RTTI Complete Object Locator'
	DD	00H
	DD	00H
	DD	FLAT:??_R0?AVIObjectManager@@@8
	DD	FLAT:??_R3IObjectManager@@8
rdata$r	ENDS
;	COMDAT ??_R4CPythonCharacterManager@@6B?$CSingleton@VCPythonCharacterManager@@@@@
rdata$r	SEGMENT
??_R4CPythonCharacterManager@@6B?$CSingleton@VCPythonCharacterManager@@@@@ DD 00H ; CPythonCharacterManager::`RTTI Complete Object Locator'
	DD	00H
	DD	00H
	DD	FLAT:??_R0?AVCPythonCharacterManager@@@8
	DD	FLAT:??_R3CPythonCharacterManager@@8
rdata$r	ENDS
;	COMDAT ??_R4CPythonCharacterManager@@6BIAbstractCharacterManager@@@
rdata$r	SEGMENT
??_R4CPythonCharacterManager@@6BIAbstractCharacterManager@@@ DD 00H ; CPythonCharacterManager::`RTTI Complete Object Locator'
	DD	04H
	DD	00H
	DD	FLAT:??_R0?AVCPythonCharacterManager@@@8
	DD	FLAT:??_R3CPythonCharacterManager@@8
rdata$r	ENDS
;	COMDAT ??_R4CPythonCharacterManager@@6BIObjectManager@@@
rdata$r	SEGMENT
??_R4CPythonCharacterManager@@6BIObjectManager@@@ DD 00H ; CPythonCharacterManager::`RTTI Complete Object Locator'
	DD	08H
	DD	00H
	DD	FLAT:??_R0?AVCPythonCharacterManager@@@8
	DD	FLAT:??_R3CPythonCharacterManager@@8
rdata$r	ENDS
;	COMDAT ??_R4?$CSingleton@VCPythonCharacterManager@@@@6B@
rdata$r	SEGMENT
??_R4?$CSingleton@VCPythonCharacterManager@@@@6B@ DD 00H ; CSingleton<CPythonCharacterManager>::`RTTI Complete Object Locator'
	DD	00H
	DD	00H
	DD	FLAT:??_R0?AV?$CSingleton@VCPythonCharacterManager@@@@@8
	DD	FLAT:??_R3?$CSingleton@VCPythonCharacterManager@@@@8
rdata$r	ENDS
;	COMDAT ??_R0?AVIAbstractCharacterManager@@@8
data$rs	SEGMENT
??_R0?AVIAbstractCharacterManager@@@8 DD FLAT:??_7type_info@@6B@ ; IAbstractCharacterManager `RTTI Type Descriptor'
	DD	00H
	DB	'.?AVIAbstractCharacterManager@@', 00H
data$rs	ENDS
;	COMDAT ??_R3IAbstractCharacterManager@@8
rdata$r	SEGMENT
??_R3IAbstractCharacterManager@@8 DD 00H		; IAbstractCharacterManager::`RTTI Class Hierarchy Descriptor'
	DD	00H
	DD	02H
	DD	FLAT:??_R2IAbstractCharacterManager@@8
rdata$r	ENDS
;	COMDAT ??_R0?AV?$TAbstractSingleton@VIAbstractCharacterManager@@@@@8
data$rs	SEGMENT
??_R0?AV?$TAbstractSingleton@VIAbstractCharacterManager@@@@@8 DD FLAT:??_7type_info@@6B@ ; TAbstractSingleton<IAbstractCharacterManager> `RTTI Type Descriptor'
	DD	00H
	DB	'.?AV?$TAbstractSingleton@VIAbstractCharacterManager@@@@', 00H
data$rs	ENDS
;	COMDAT ??_R3?$TAbstractSingleton@VIAbstractCharacterManager@@@@8
rdata$r	SEGMENT
??_R3?$TAbstractSingleton@VIAbstractCharacterManager@@@@8 DD 00H ; TAbstractSingleton<IAbstractCharacterManager>::`RTTI Class Hierarchy Descriptor'
	DD	00H
	DD	01H
	DD	FLAT:??_R2?$TAbstractSingleton@VIAbstractCharacterManager@@@@8
rdata$r	ENDS
;	COMDAT ??_R0?AVIObjectManager@@@8
data$rs	SEGMENT
??_R0?AVIObjectManager@@@8 DD FLAT:??_7type_info@@6B@	; IObjectManager `RTTI Type Descriptor'
	DD	00H
	DB	'.?AVIObjectManager@@', 00H
data$rs	ENDS
;	COMDAT ??_R3IObjectManager@@8
rdata$r	SEGMENT
??_R3IObjectManager@@8 DD 00H				; IObjectManager::`RTTI Class Hierarchy Descriptor'
	DD	00H
	DD	01H
	DD	FLAT:??_R2IObjectManager@@8
rdata$r	ENDS
;	COMDAT ??_R0?AVCPythonCharacterManager@@@8
data$rs	SEGMENT
??_R0?AVCPythonCharacterManager@@@8 DD FLAT:??_7type_info@@6B@ ; CPythonCharacterManager `RTTI Type Descriptor'
	DD	00H
	DB	'.?AVCPythonCharacterManager@@', 00H
data$rs	ENDS
;	COMDAT ??_R3CPythonCharacterManager@@8
rdata$r	SEGMENT
??_R3CPythonCharacterManager@@8 DD 00H			; CPythonCharacterManager::`RTTI Class Hierarchy Descriptor'
	DD	01H
	DD	05H
	DD	FLAT:??_R2CPythonCharacterManager@@8
rdata$r	ENDS
;	COMDAT ??_R0?AV?$CSingleton@VCPythonCharacterManager@@@@@8
data$rs	SEGMENT
??_R0?AV?$CSingleton@VCPythonCharacterManager@@@@@8 DD FLAT:??_7type_info@@6B@ ; CSingleton<CPythonCharacterManager> `RTTI Type Descriptor'
	DD	00H
	DB	'.?AV?$CSingleton@VCPythonCharacterManager@@@@', 00H
data$rs	ENDS
;	COMDAT ??_R3?$CSingleton@VCPythonCharacterManager@@@@8
rdata$r	SEGMENT
??_R3?$CSingleton@VCPythonCharacterManager@@@@8 DD 00H	; CSingleton<CPythonCharacterManager>::`RTTI Class Hierarchy Descriptor'
	DD	00H
	DD	01H
	DD	FLAT:??_R2?$CSingleton@VCPythonCharacterManager@@@@8
rdata$r	ENDS
;	COMDAT ??_R1A@?0A@EA@?$TAbstractSingleton@VIAbstractCharacterManager@@@@8
rdata$r	SEGMENT
??_R1A@?0A@EA@?$TAbstractSingleton@VIAbstractCharacterManager@@@@8 DD FLAT:??_R0?AV?$TAbstractSingleton@VIAbstractCharacterManager@@@@@8 ; TAbstractSingleton<IAbstractCharacterManager>::`RTTI Base Class Descriptor at (0,-1,0,64)'
	DD	00H
	DD	00H
	DD	0ffffffffH
	DD	00H
	DD	040H
	DD	FLAT:??_R3?$TAbstractSingleton@VIAbstractCharacterManager@@@@8
rdata$r	ENDS
;	COMDAT ??_R1A@?0A@EA@IAbstractCharacterManager@@8
rdata$r	SEGMENT
??_R1A@?0A@EA@IAbstractCharacterManager@@8 DD FLAT:??_R0?AVIAbstractCharacterManager@@@8 ; IAbstractCharacterManager::`RTTI Base Class Descriptor at (0,-1,0,64)'
	DD	01H
	DD	00H
	DD	0ffffffffH
	DD	00H
	DD	040H
	DD	FLAT:??_R3IAbstractCharacterManager@@8
rdata$r	ENDS
;	COMDAT ??_R1A@?0A@EA@IObjectManager@@8
rdata$r	SEGMENT
??_R1A@?0A@EA@IObjectManager@@8 DD FLAT:??_R0?AVIObjectManager@@@8 ; IObjectManager::`RTTI Base Class Descriptor at (0,-1,0,64)'
	DD	00H
	DD	00H
	DD	0ffffffffH
	DD	00H
	DD	040H
	DD	FLAT:??_R3IObjectManager@@8
rdata$r	ENDS
;	COMDAT ??_R1A@?0A@EA@?$CSingleton@VCPythonCharacterManager@@@@8
rdata$r	SEGMENT
??_R1A@?0A@EA@?$CSingleton@VCPythonCharacterManager@@@@8 DD FLAT:??_R0?AV?$CSingleton@VCPythonCharacterManager@@@@@8 ; CSingleton<CPythonCharacterManager>::`RTTI Base Class Descriptor at (0,-1,0,64)'
	DD	00H
	DD	00H
	DD	0ffffffffH
	DD	00H
	DD	040H
	DD	FLAT:??_R3?$CSingleton@VCPythonCharacterManager@@@@8
rdata$r	ENDS
;	COMDAT ??_R1A@?0A@EA@CPythonCharacterManager@@8
rdata$r	SEGMENT
??_R1A@?0A@EA@CPythonCharacterManager@@8 DD FLAT:??_R0?AVCPythonCharacterManager@@@8 ; CPythonCharacterManager::`RTTI Base Class Descriptor at (0,-1,0,64)'
	DD	04H
	DD	00H
	DD	0ffffffffH
	DD	00H
	DD	040H
	DD	FLAT:??_R3CPythonCharacterManager@@8
rdata$r	ENDS
;	COMDAT ??_R13?0A@EA@IAbstractCharacterManager@@8
rdata$r	SEGMENT
??_R13?0A@EA@IAbstractCharacterManager@@8 DD FLAT:??_R0?AVIAbstractCharacterManager@@@8 ; IAbstractCharacterManager::`RTTI Base Class Descriptor at (4,-1,0,64)'
	DD	01H
	DD	04H
	DD	0ffffffffH
	DD	00H
	DD	040H
	DD	FLAT:??_R3IAbstractCharacterManager@@8
rdata$r	ENDS
;	COMDAT ??_R13?0A@EA@?$TAbstractSingleton@VIAbstractCharacterManager@@@@8
rdata$r	SEGMENT
??_R13?0A@EA@?$TAbstractSingleton@VIAbstractCharacterManager@@@@8 DD FLAT:??_R0?AV?$TAbstractSingleton@VIAbstractCharacterManager@@@@@8 ; TAbstractSingleton<IAbstractCharacterManager>::`RTTI Base Class Descriptor at (4,-1,0,64)'
	DD	00H
	DD	04H
	DD	0ffffffffH
	DD	00H
	DD	040H
	DD	FLAT:??_R3?$TAbstractSingleton@VIAbstractCharacterManager@@@@8
rdata$r	ENDS
;	COMDAT ??_R17?0A@EA@IObjectManager@@8
rdata$r	SEGMENT
??_R17?0A@EA@IObjectManager@@8 DD FLAT:??_R0?AVIObjectManager@@@8 ; IObjectManager::`RTTI Base Class Descriptor at (8,-1,0,64)'
	DD	00H
	DD	08H
	DD	0ffffffffH
	DD	00H
	DD	040H
	DD	FLAT:??_R3IObjectManager@@8
rdata$r	ENDS
;	COMDAT ??_R2?$TAbstractSingleton@VIAbstractCharacterManager@@@@8
rdata$r	SEGMENT
??_R2?$TAbstractSingleton@VIAbstractCharacterManager@@@@8 DD FLAT:??_R1A@?0A@EA@?$TAbstractSingleton@VIAbstractCharacterManager@@@@8 ; TAbstractSingleton<IAbstractCharacterManager>::`RTTI Base Class Array'
rdata$r	ENDS
;	COMDAT ??_R2IAbstractCharacterManager@@8
rdata$r	SEGMENT
??_R2IAbstractCharacterManager@@8 DD FLAT:??_R1A@?0A@EA@IAbstractCharacterManager@@8 ; IAbstractCharacterManager::`RTTI Base Class Array'
	DD	FLAT:??_R1A@?0A@EA@?$TAbstractSingleton@VIAbstractCharacterManager@@@@8
rdata$r	ENDS
;	COMDAT ??_R2IObjectManager@@8
rdata$r	SEGMENT
??_R2IObjectManager@@8 DD FLAT:??_R1A@?0A@EA@IObjectManager@@8 ; IObjectManager::`RTTI Base Class Array'
rdata$r	ENDS
;	COMDAT ??_R2?$CSingleton@VCPythonCharacterManager@@@@8
rdata$r	SEGMENT
??_R2?$CSingleton@VCPythonCharacterManager@@@@8 DD FLAT:??_R1A@?0A@EA@?$CSingleton@VCPythonCharacterManager@@@@8 ; CSingleton<CPythonCharacterManager>::`RTTI Base Class Array'
rdata$r	ENDS
;	COMDAT ??_R2CPythonCharacterManager@@8
rdata$r	SEGMENT
??_R2CPythonCharacterManager@@8 DD FLAT:??_R1A@?0A@EA@CPythonCharacterManager@@8 ; CPythonCharacterManager::`RTTI Base Class Array'
	DD	FLAT:??_R1A@?0A@EA@?$CSingleton@VCPythonCharacterManager@@@@8
	DD	FLAT:??_R13?0A@EA@IAbstractCharacterManager@@8
	DD	FLAT:??_R13?0A@EA@?$TAbstractSingleton@VIAbstractCharacterManager@@@@8
	DD	FLAT:??_R17?0A@EA@IObjectManager@@8
rdata$r	ENDS
;	COMDAT ??_C@_0CH@DINFEOPA@SelectCharacterInstance?3?5no?5vid@
CONST	SEGMENT
??_C@_0CH@DINFEOPA@SelectCharacterInstance?3?5no?5vid@ DB 'SelectCharacte'
	DB	'rInstance: no vid by %d', 0aH, 00H		; `string'
CONST	ENDS
;	COMDAT ??_C@_0CH@HECKLEJN@DeleteCharacterInstance?3?5no?5vid@
CONST	SEGMENT
??_C@_0CH@HECKLEJN@DeleteCharacterInstance?3?5no?5vid@ DB 'DeleteCharacte'
	DB	'rInstance: no vid by %d', 0aH, 00H		; `string'
CONST	ENDS
;	COMDAT ??_C@_0DJ@DCBIHGAA@CPythonCharacterManager?3?3Create@
CONST	SEGMENT
??_C@_0DJ@DCBIHGAA@CPythonCharacterManager?3?3Create@ DB 'CPythonCharacte'
	DB	'rManager::CreateInstance VID[%d] Race[%d]', 00H ; `string'
CONST	ENDS
;	COMDAT ??_C@_0EC@KAFJJKBD@CPythonCharacterManager?3?3Create@
CONST	SEGMENT
??_C@_0EC@KAFJJKBD@CPythonCharacterManager?3?3Create@ DB 'CPythonCharacte'
	DB	'rManager::CreateInstance: VID[%d] - ALREADY EXIST', 0aH, 00H ; `string'
CONST	ENDS
;	COMDAT ??_C@_0BN@MCDFNGBH@Container?5?9?5Live?5?$CFd?0?5Dead?5?$CFd@
CONST	SEGMENT
??_C@_0BN@MCDFNGBH@Container?5?9?5Live?5?$CFd?0?5Dead?5?$CFd@ DB 'Contain'
	DB	'er - Live %d, Dead %d', 00H			; `string'
CONST	ENDS
;	COMDAT ??_C@_07DDCLDHCF@Actor?3?5@
CONST	SEGMENT
??_C@_07DDCLDHCF@Actor?3?5@ DB 'Actor: ', 00H		; `string'
CONST	ENDS
;	COMDAT ??_C@_1DC@NFJMNKJC@?$AAm?$AAs?$AA_?$AAO?$AAb?$AAj?$AAM?$AAa?$AAn?$AAa?$AAg?$AAe?$AAr?$AA?5?$AA?$DN@
CONST	SEGMENT
??_C@_1DC@NFJMNKJC@?$AAm?$AAs?$AA_?$AAO?$AAb?$AAj?$AAM?$AAa?$AAn?$AAa?$AAg?$AAe?$AAr?$AA?5?$AA?$DN@ DB 'm'
	DB	00H, 's', 00H, '_', 00H, 'O', 00H, 'b', 00H, 'j', 00H, 'M', 00H
	DB	'a', 00H, 'n', 00H, 'a', 00H, 'g', 00H, 'e', 00H, 'r', 00H, ' '
	DB	00H, '=', 00H, '=', 00H, ' ', 00H, 'n', 00H, 'u', 00H, 'l', 00H
	DB	'l', 00H, 'p', 00H, 't', 00H, 'r', 00H, 00H, 00H ; `string'
CONST	ENDS
;	COMDAT ??_C@_1JE@NHCKLKIG@?$AAC?$AA?3?$AA?2?$AAA?$AAn?$AAk?$AAa?$AA2?$AAP?$AAr?$AAo?$AAj?$AAe?$AAc?$AAt@
CONST	SEGMENT
??_C@_1JE@NHCKLKIG@?$AAC?$AA?3?$AA?2?$AAA?$AAn?$AAk?$AAa?$AA2?$AAP?$AAr?$AAo?$AAj?$AAe?$AAc?$AAt@ DB 'C'
	DB	00H, ':', 00H, '\', 00H, 'A', 00H, 'n', 00H, 'k', 00H, 'a', 00H
	DB	'2', 00H, 'P', 00H, 'r', 00H, 'o', 00H, 'j', 00H, 'e', 00H, 'c'
	DB	00H, 't', 00H, '\', 00H, 'A', 00H, 'n', 00H, 'k', 00H, 'a', 00H
	DB	'2', 00H, 'P', 00H, 'r', 00H, 'o', 00H, 'j', 00H, 'e', 00H, 'c'
	DB	00H, 't', 00H, '\', 00H, 'S', 00H, 'o', 00H, 'u', 00H, 'r', 00H
	DB	'c', 00H, 'e', 00H, '\', 00H, 'B', 00H, 'i', 00H, 'n', 00H, 'a'
	DB	00H, 'r', 00H, 'y', 00H, '\', 00H, 's', 00H, 'o', 00H, 'u', 00H
	DB	'r', 00H, 'c', 00H, 'e', 00H, '\', 00H, 'g', 00H, 'a', 00H, 'm'
	DB	00H, 'e', 00H, 'l', 00H, 'i', 00H, 'b', 00H, '\', 00H, 'P', 00H
	DB	'h', 00H, 'y', 00H, 's', 00H, 'i', 00H, 'c', 00H, 's', 00H, 'O'
	DB	00H, 'b', 00H, 'j', 00H, 'e', 00H, 'c', 00H, 't', 00H, '.', 00H
	DB	'h', 00H, 00H, 00H				; `string'
?CHAR_STAGE_VIEW_BOUND@@3HA DD 04e20H			; CHAR_STAGE_VIEW_BOUND
PUBLIC	??0D3DXVECTOR2@@QAE@MM@Z			; D3DXVECTOR2::D3DXVECTOR2
PUBLIC	??0D3DXVECTOR2@@QAE@XZ				; D3DXVECTOR2::D3DXVECTOR2
PUBLIC	??_ECPythonCharacterManager@@W7AEPAXI@Z		; [thunk]:CPythonCharacterManager::`vector deleting destructor'
PUBLIC	??_ECPythonCharacterManager@@W3AEPAXI@Z		; [thunk]:CPythonCharacterManager::`vector deleting destructor'
PUBLIC	??$construct_at@U?$pair@PAVCInstanceBase@@M@std@@U12@@std@@YAPAU?$pair@PAVCInstanceBase@@M@0@QAU10@$$QAU10@@Z ; std::construct_at<std::pair<CInstanceBase *,float>,std::pair<CInstanceBase *,float> >
PUBLIC	??$move@AAM@std@@YA$$QAMAAM@Z			; std::move<float &>
PUBLIC	?_Get_first@?$_Compressed_pair@V?$allocator@U?$_Tree_node@U?$pair@$$CBKPAVCInstanceBase@@@std@@PAX@std@@@std@@V?$_Tree_val@U?$_Tree_simple_types@U?$pair@$$CBKPAVCInstanceBase@@@std@@@std@@@2@$00@std@@QBEABV?$allocator@U?$_Tree_node@U?$pair@$$CBKPAVCInstanceBase@@@std@@PAX@std@@@2@XZ ; std::_Compressed_pair<std::allocator<std::_Tree_node<std::pair<unsigned long const ,CInstanceBase *>,void *> >,std::_Tree_val<std::_Tree_simple_types<std::pair<unsigned long const ,CInstanceBase *> > >,1>::_Get_first
PUBLIC	?_Get_first@?$_Compressed_pair@V?$allocator@U?$pair@PAVCInstanceBase@@M@std@@@std@@V?$_Vector_val@U?$_Simple_types@U?$pair@PAVCInstanceBase@@M@std@@@std@@@2@$00@std@@QBEABV?$allocator@U?$pair@PAVCInstanceBase@@M@std@@@2@XZ ; std::_Compressed_pair<std::allocator<std::pair<CInstanceBase *,float> >,std::_Vector_val<std::_Simple_types<std::pair<CInstanceBase *,float> > >,1>::_Get_first
PUBLIC	??$construct_at@PAU?$_Tree_node@U?$pair@$$CBKPAVCInstanceBase@@@std@@PAX@std@@ABQAU12@@std@@YAPAPAU?$_Tree_node@U?$pair@$$CBKPAVCInstanceBase@@@std@@PAX@0@QAPAU10@ABQAU10@@Z ; std::construct_at<std::_Tree_node<std::pair<unsigned long const ,CInstanceBase *>,void *> *,std::_Tree_node<std::pair<unsigned long const ,CInstanceBase *>,void *> * const &>
PUBLIC	??$forward@ABQAU?$_Tree_node@U?$pair@$$CBKPAVCInstanceBase@@@std@@PAX@std@@@std@@YAABQAU?$_Tree_node@U?$pair@$$CBKPAVCInstanceBase@@@std@@PAX@0@ABQAU10@@Z ; std::forward<std::_Tree_node<std::pair<unsigned long const ,CInstanceBase *>,void *> * const &>
PUBLIC	??$construct@U?$pair@PAVCInstanceBase@@M@std@@U12@@?$_Default_allocator_traits@V?$allocator@U?$pair@PAVCInstanceBase@@M@std@@@std@@@std@@SAXAAV?$allocator@U?$pair@PAVCInstanceBase@@M@std@@@1@QAU?$pair@PAVCInstanceBase@@M@1@$$QAU31@@Z ; std::_Default_allocator_traits<std::allocator<std::pair<CInstanceBase *,float> > >::construct<std::pair<CInstanceBase *,float>,std::pair<CInstanceBase *,float> >
PUBLIC	??$_Copy_memmove_tail@PAU?$pair@PAVCInstanceBase@@M@std@@@std@@YAPAU?$pair@PAVCInstanceBase@@M@0@QBDQAU10@II@Z ; std::_Copy_memmove_tail<std::pair<CInstanceBase *,float> *>
PUBLIC	??$move@AAPAU?$pair@PAVCInstanceBase@@M@std@@@std@@YA$$QAPAU?$pair@PAVCInstanceBase@@M@0@AAPAU10@@Z ; std::move<std::pair<CInstanceBase *,float> * &>
PUBLIC	??$to_address@U?$pair@PAVCInstanceBase@@M@std@@@std@@YAPAU?$pair@PAVCInstanceBase@@M@0@QAU10@@Z ; std::to_address<std::pair<CInstanceBase *,float> >
PUBLIC	??$swap@M$0A@@std@@YAXAAM0@Z			; std::swap<float,0>
PUBLIC	?_Getal@?$_Tree@V?$_Tmap_traits@KPAVCInstanceBase@@U?$less@K@std@@V?$allocator@U?$pair@$$CBKPAVCInstanceBase@@@std@@@3@$0A@@std@@@std@@IBEABV?$allocator@U?$_Tree_node@U?$pair@$$CBKPAVCInstanceBase@@@std@@PAX@std@@@2@XZ ; std::_Tree<std::_Tmap_traits<unsigned long,CInstanceBase *,std::less<unsigned long>,std::allocator<std::pair<unsigned long const ,CInstanceBase *> >,0> >::_Getal
PUBLIC	??0?$allocator@U?$_Tree_node@U?$pair@$$CBKPAVCInstanceBase@@@std@@PAX@std@@@std@@QAE@XZ ; std::allocator<std::_Tree_node<std::pair<unsigned long const ,CInstanceBase *>,void *> >::allocator<std::_Tree_node<std::pair<unsigned long const ,CInstanceBase *>,void *> >
PUBLIC	?deallocate@?$allocator@U?$_Tree_node@U?$pair@$$CBKPAVCInstanceBase@@@std@@PAX@std@@@std@@QAEXQAU?$_Tree_node@U?$pair@$$CBKPAVCInstanceBase@@@std@@PAX@2@I@Z ; std::allocator<std::_Tree_node<std::pair<unsigned long const ,CInstanceBase *>,void *> >::deallocate
PUBLIC	?allocate@?$allocator@U?$_Tree_node@U?$pair@$$CBKPAVCInstanceBase@@@std@@PAX@std@@@std@@QAEPAU?$_Tree_node@U?$pair@$$CBKPAVCInstanceBase@@@std@@PAX@2@I@Z ; std::allocator<std::_Tree_node<std::pair<unsigned long const ,CInstanceBase *>,void *> >::allocate
PUBLIC	?max_size@?$_Default_allocator_traits@V?$allocator@U?$_Tree_node@U?$pair@$$CBKPAVCInstanceBase@@@std@@PAX@std@@@std@@@std@@SAIABV?$allocator@U?$_Tree_node@U?$pair@$$CBKPAVCInstanceBase@@@std@@PAX@std@@@2@@Z ; std::_Default_allocator_traits<std::allocator<std::_Tree_node<std::pair<unsigned long const ,CInstanceBase *>,void *> > >::max_size
PUBLIC	??0?$_Tree_val@U?$_Tree_simple_types@U?$pair@$$CBKPAVCInstanceBase@@@std@@@std@@@std@@QAE@XZ ; std::_Tree_val<std::_Tree_simple_types<std::pair<unsigned long const ,CInstanceBase *> > >::_Tree_val<std::_Tree_simple_types<std::pair<unsigned long const ,CInstanceBase *> > >
PUBLIC	?_Get_first@?$_Compressed_pair@U?$less@K@std@@V?$_Compressed_pair@V?$allocator@U?$_Tree_node@U?$pair@$$CBKPAVCInstanceBase@@@std@@PAX@std@@@std@@V?$_Tree_val@U?$_Tree_simple_types@U?$pair@$$CBKPAVCInstanceBase@@@std@@@std@@@2@$00@2@$00@std@@QBEABU?$less@K@2@XZ ; std::_Compressed_pair<std::less<unsigned long>,std::_Compressed_pair<std::allocator<std::_Tree_node<std::pair<unsigned long const ,CInstanceBase *>,void *> >,std::_Tree_val<std::_Tree_simple_types<std::pair<unsigned long const ,CInstanceBase *> > >,1>,1>::_Get_first
PUBLIC	?deallocate@?$allocator@U?$_List_node@PAVCInstanceBase@@PAX@std@@@std@@QAEXQAU?$_List_node@PAVCInstanceBase@@PAX@2@I@Z ; std::allocator<std::_List_node<CInstanceBase *,void *> >::deallocate
PUBLIC	?_Get_first@?$_Compressed_pair@V?$allocator@U?$_List_node@PAVCInstanceBase@@PAX@std@@@std@@V?$_List_val@U?$_List_simple_types@PAVCInstanceBase@@@std@@@2@$00@std@@QBEABV?$allocator@U?$_List_node@PAVCInstanceBase@@PAX@std@@@2@XZ ; std::_Compressed_pair<std::allocator<std::_List_node<CInstanceBase *,void *> >,std::_List_val<std::_List_simple_types<CInstanceBase *> >,1>::_Get_first
PUBLIC	?swap@?$pair@PAVCInstanceBase@@M@std@@QAEXAAU12@@Z ; std::pair<CInstanceBase *,float>::swap
PUBLIC	?allocate@?$allocator@U?$pair@PAVCInstanceBase@@M@std@@@std@@QAEPAU?$pair@PAVCInstanceBase@@M@2@I@Z ; std::allocator<std::pair<CInstanceBase *,float> >::allocate
PUBLIC	?capacity@?$vector@U?$pair@PAVCInstanceBase@@M@std@@V?$allocator@U?$pair@PAVCInstanceBase@@M@std@@@2@@std@@QBEIXZ ; std::vector<std::pair<CInstanceBase *,float>,std::allocator<std::pair<CInstanceBase *,float> > >::capacity
PUBLIC	?_Getal@?$vector@U?$pair@PAVCInstanceBase@@M@std@@V?$allocator@U?$pair@PAVCInstanceBase@@M@std@@@2@@std@@ABEABV?$allocator@U?$pair@PAVCInstanceBase@@M@std@@@2@XZ ; std::vector<std::pair<CInstanceBase *,float>,std::allocator<std::pair<CInstanceBase *,float> > >::_Getal
PUBLIC	?max_size@?$_Default_allocator_traits@V?$allocator@U?$pair@PAVCInstanceBase@@M@std@@@std@@@std@@SAIABV?$allocator@U?$pair@PAVCInstanceBase@@M@std@@@2@@Z ; std::_Default_allocator_traits<std::allocator<std::pair<CInstanceBase *,float> > >::max_size
PUBLIC	??0?$_Alloc_construct_ptr@V?$allocator@U?$_Tree_node@U?$pair@$$CBKPAVCInstanceBase@@@std@@PAX@std@@@std@@@std@@QAE@AAV?$allocator@U?$_Tree_node@U?$pair@$$CBKPAVCInstanceBase@@@std@@PAX@std@@@1@@Z ; std::_Alloc_construct_ptr<std::allocator<std::_Tree_node<std::pair<unsigned long const ,CInstanceBase *>,void *> > >::_Alloc_construct_ptr<std::allocator<std::_Tree_node<std::pair<unsigned long const ,CInstanceBase *>,void *> > >
PUBLIC	?_Allocate@?$_Alloc_construct_ptr@V?$allocator@U?$_Tree_node@U?$pair@$$CBKPAVCInstanceBase@@@std@@PAX@std@@@std@@@std@@QAEXXZ ; std::_Alloc_construct_ptr<std::allocator<std::_Tree_node<std::pair<unsigned long const ,CInstanceBase *>,void *> > >::_Allocate
PUBLIC	??0?$_Uninitialized_backout_al@V?$allocator@U?$pair@PAVCInstanceBase@@M@std@@@std@@@std@@QAE@PAU?$pair@PAVCInstanceBase@@M@1@AAV?$allocator@U?$pair@PAVCInstanceBase@@M@std@@@1@@Z ; std::_Uninitialized_backout_al<std::allocator<std::pair<CInstanceBase *,float> > >::_Uninitialized_backout_al<std::allocator<std::pair<CInstanceBase *,float> > >
PUBLIC	??1?$_Uninitialized_backout_al@V?$allocator@U?$pair@PAVCInstanceBase@@M@std@@@std@@@std@@QAE@XZ ; std::_Uninitialized_backout_al<std::allocator<std::pair<CInstanceBase *,float> > >::~_Uninitialized_backout_al<std::allocator<std::pair<CInstanceBase *,float> > >
PUBLIC	?_Release@?$_Uninitialized_backout_al@V?$allocator@U?$pair@PAVCInstanceBase@@M@std@@@std@@@std@@QAEPAU?$pair@PAVCInstanceBase@@M@2@XZ ; std::_Uninitialized_backout_al<std::allocator<std::pair<CInstanceBase *,float> > >::_Release
PUBLIC	??$_Construct_in_place@PAU?$_Tree_node@U?$pair@$$CBKPAVCInstanceBase@@@std@@PAX@std@@ABQAU12@@std@@YAXAAPAU?$_Tree_node@U?$pair@$$CBKPAVCInstanceBase@@@std@@PAX@0@ABQAU10@@Z ; std::_Construct_in_place<std::_Tree_node<std::pair<unsigned long const ,CInstanceBase *>,void *> *,std::_Tree_node<std::pair<unsigned long const ,CInstanceBase *>,void *> * const &>
PUBLIC	??$construct_at@PAU?$_List_node@PAVCInstanceBase@@PAX@std@@ABQAU12@@std@@YAPAPAU?$_List_node@PAVCInstanceBase@@PAX@0@QAPAU10@ABQAU10@@Z ; std::construct_at<std::_List_node<CInstanceBase *,void *> *,std::_List_node<CInstanceBase *,void *> * const &>
PUBLIC	??$forward@ABQAU?$_List_node@PAVCInstanceBase@@PAX@std@@@std@@YAABQAU?$_List_node@PAVCInstanceBase@@PAX@0@ABQAU10@@Z ; std::forward<std::_List_node<CInstanceBase *,void *> * const &>
PUBLIC	??$destroy_at@U?$pair@$$CBKPAVCInstanceBase@@@std@@@std@@YAXQAU?$pair@$$CBKPAVCInstanceBase@@@0@@Z ; std::destroy_at<std::pair<unsigned long const ,CInstanceBase *> >
PUBLIC	??$forward@AAPAU?$pair@PAVCInstanceBase@@M@std@@@std@@YAAAPAU?$pair@PAVCInstanceBase@@M@0@AAPAU10@@Z ; std::forward<std::pair<CInstanceBase *,float> * &>
PUBLIC	??$_Med3_unchecked@PAU?$pair@PAVCInstanceBase@@M@std@@P6A_NABU12@0@Z@std@@YAXPAU?$pair@PAVCInstanceBase@@M@0@00P6A_NABU10@1@Z@Z ; std::_Med3_unchecked<std::pair<CInstanceBase *,float> *,bool (__cdecl*)(std::pair<CInstanceBase *,float> const &,std::pair<CInstanceBase *,float> const &)>
PUBLIC	??$_Pop_heap_hole_unchecked@PAU?$pair@PAVCInstanceBase@@M@std@@U12@P6A_NABU12@0@Z@std@@YAXPAU?$pair@PAVCInstanceBase@@M@0@00$$QAU10@P6A_NABU10@2@Z@Z ; std::_Pop_heap_hole_unchecked<std::pair<CInstanceBase *,float> *,std::pair<CInstanceBase *,float>,bool (__cdecl*)(std::pair<CInstanceBase *,float> const &,std::pair<CInstanceBase *,float> const &)>
PUBLIC	??$_Push_heap_by_index@PAU?$pair@PAVCInstanceBase@@M@std@@U12@P6A_NABU12@0@Z@std@@YAXPAU?$pair@PAVCInstanceBase@@M@0@HH$$QAU10@P6A_NABU10@2@Z@Z ; std::_Push_heap_by_index<std::pair<CInstanceBase *,float> *,std::pair<CInstanceBase *,float>,bool (__cdecl*)(std::pair<CInstanceBase *,float> const &,std::pair<CInstanceBase *,float> const &)>
PUBLIC	??$forward@U?$pair@PAVCInstanceBase@@M@std@@@std@@YA$$QAU?$pair@PAVCInstanceBase@@M@0@AAU10@@Z ; std::forward<std::pair<CInstanceBase *,float> >
PUBLIC	??$_Emplace_back@U?$pair@PAVCInstanceBase@@M@std@@@?$_Uninitialized_backout_al@V?$allocator@U?$pair@PAVCInstanceBase@@M@std@@@std@@@std@@QAEX$$QAU?$pair@PAVCInstanceBase@@M@1@@Z ; std::_Uninitialized_backout_al<std::allocator<std::pair<CInstanceBase *,float> > >::_Emplace_back<std::pair<CInstanceBase *,float> >
PUBLIC	??$_To_address@PAU?$pair@PAVCInstanceBase@@M@std@@@std@@YA?A_PABQAU?$pair@PAVCInstanceBase@@M@0@@Z ; std::_To_address<std::pair<CInstanceBase *,float> *>
PUBLIC	??$_Copy_memmove@PAU?$pair@PAVCInstanceBase@@M@std@@PAU12@@std@@YAPAU?$pair@PAVCInstanceBase@@M@0@PAU10@00@Z ; std::_Copy_memmove<std::pair<CInstanceBase *,float> *,std::pair<CInstanceBase *,float> *>
PUBLIC	??$construct_at@U?$pair@PAVCInstanceBase@@M@std@@AAPAVCInstanceBase@@ABM@std@@YAPAU?$pair@PAVCInstanceBase@@M@0@QAU10@AAPAVCInstanceBase@@ABM@Z ; std::construct_at<std::pair<CInstanceBase *,float>,CInstanceBase * &,float const &>
PUBLIC	??$addressof@U?$pair@PAVCInstanceBase@@M@std@@@std@@YAPAU?$pair@PAVCInstanceBase@@M@0@AAU10@@Z ; std::addressof<std::pair<CInstanceBase *,float> >
PUBLIC	??$construct_at@PAVCInstanceBase@@AAPAV1@@std@@YAPAPAVCInstanceBase@@QAPAV1@AAPAV1@@Z ; std::construct_at<CInstanceBase *,CInstanceBase * &>
PUBLIC	??$_Med3_unchecked@PAPAVCInstanceBase@@U?$_Ref_fn@UCInstanceBase_SLessCameraDistance@@@std@@@std@@YAXPAPAVCInstanceBase@@00U?$_Ref_fn@UCInstanceBase_SLessCameraDistance@@@0@@Z ; std::_Med3_unchecked<CInstanceBase * *,std::_Ref_fn<CInstanceBase_SLessCameraDistance> >
PUBLIC	??$_Pop_heap_hole_unchecked@PAPAVCInstanceBase@@PAV1@U?$_Ref_fn@UCInstanceBase_SLessCameraDistance@@@std@@@std@@YAXPAPAVCInstanceBase@@00$$QAPAV1@U?$_Ref_fn@UCInstanceBase_SLessCameraDistance@@@0@@Z ; std::_Pop_heap_hole_unchecked<CInstanceBase * *,CInstanceBase *,std::_Ref_fn<CInstanceBase_SLessCameraDistance> >
PUBLIC	??$_Push_heap_by_index@PAPAVCInstanceBase@@PAV1@U?$_Ref_fn@UCInstanceBase_SLessCameraDistance@@@std@@@std@@YAXPAPAVCInstanceBase@@HH$$QAPAV1@U?$_Ref_fn@UCInstanceBase_SLessCameraDistance@@@0@@Z ; std::_Push_heap_by_index<CInstanceBase * *,CInstanceBase *,std::_Ref_fn<CInstanceBase_SLessCameraDistance> >
PUBLIC	??$construct_at@PAU?$_Tree_node@U?$pair@$$CBKPAVCInstanceBase@@@std@@PAX@std@@AAPAU12@@std@@YAPAPAU?$_Tree_node@U?$pair@$$CBKPAVCInstanceBase@@@std@@PAX@0@QAPAU10@AAPAU10@@Z ; std::construct_at<std::_Tree_node<std::pair<unsigned long const ,CInstanceBase *>,void *> *,std::_Tree_node<std::pair<unsigned long const ,CInstanceBase *>,void *> * &>
PUBLIC	??$addressof@PAU?$_Tree_node@U?$pair@$$CBKPAVCInstanceBase@@@std@@PAX@std@@@std@@YAPAPAU?$_Tree_node@U?$pair@$$CBKPAVCInstanceBase@@@std@@PAX@0@AAPAU10@@Z ; std::addressof<std::_Tree_node<std::pair<unsigned long const ,CInstanceBase *>,void *> *>
PUBLIC	??$construct_at@U?$pair@$$CBKPAVCInstanceBase@@@std@@U12@@std@@YAPAU?$pair@$$CBKPAVCInstanceBase@@@0@QAU10@$$QAU10@@Z ; std::construct_at<std::pair<unsigned long const ,CInstanceBase *>,std::pair<unsigned long const ,CInstanceBase *> >
PUBLIC	??$forward@AAPAPAVCInstanceBase@@@std@@YAAAPAPAVCInstanceBase@@AAPAPAV1@@Z ; std::forward<CInstanceBase * * &>
PUBLIC	??$_Med3_unchecked@PAPAVCInstanceBase@@ULessCharacterInstancePtrRenderOrder@@@std@@YAXPAPAVCInstanceBase@@00ULessCharacterInstancePtrRenderOrder@@@Z ; std::_Med3_unchecked<CInstanceBase * *,LessCharacterInstancePtrRenderOrder>
PUBLIC	??$_Pop_heap_hole_unchecked@PAPAVCInstanceBase@@PAV1@ULessCharacterInstancePtrRenderOrder@@@std@@YAXPAPAVCInstanceBase@@00$$QAPAV1@ULessCharacterInstancePtrRenderOrder@@@Z ; std::_Pop_heap_hole_unchecked<CInstanceBase * *,CInstanceBase *,LessCharacterInstancePtrRenderOrder>
PUBLIC	??$_Push_heap_by_index@PAPAVCInstanceBase@@PAV1@ULessCharacterInstancePtrRenderOrder@@@std@@YAXPAPAVCInstanceBase@@HH$$QAPAV1@ULessCharacterInstancePtrRenderOrder@@@Z ; std::_Push_heap_by_index<CInstanceBase * *,CInstanceBase *,LessCharacterInstancePtrRenderOrder>
PUBLIC	??$_Copy_backward_memmove@PAPAVCInstanceBase@@PAPAV1@@std@@YAPAPAVCInstanceBase@@PAPAV1@00@Z ; std::_Copy_backward_memmove<CInstanceBase * *,CInstanceBase * *>
PUBLIC	??$?0AAPAVCInstanceBase@@ABM$0A@@?$pair@PAVCInstanceBase@@M@std@@QAE@AAPAVCInstanceBase@@ABM@Z ; std::pair<CInstanceBase *,float>::pair<CInstanceBase *,float><CInstanceBase * &,float const &,0>
PUBLIC	?_Getal@?$list@PAVCInstanceBase@@V?$allocator@PAVCInstanceBase@@@std@@@std@@ABEABV?$allocator@U?$_List_node@PAVCInstanceBase@@PAX@std@@@2@XZ ; std::list<CInstanceBase *,std::allocator<CInstanceBase *> >::_Getal
PUBLIC	?max_size@?$_Tree@V?$_Tmap_traits@KPAVCInstanceBase@@U?$less@K@std@@V?$allocator@U?$pair@$$CBKPAVCInstanceBase@@@std@@@3@$0A@@std@@@std@@QBEIXZ ; std::_Tree<std::_Tmap_traits<unsigned long,CInstanceBase *,std::less<unsigned long>,std::allocator<std::pair<unsigned long const ,CInstanceBase *> >,0> >::max_size
PUBLIC	?_Getcomp@?$_Tree@V?$_Tmap_traits@KPAVCInstanceBase@@U?$less@K@std@@V?$allocator@U?$pair@$$CBKPAVCInstanceBase@@@std@@@3@$0A@@std@@@std@@IBEABU?$less@K@2@XZ ; std::_Tree<std::_Tmap_traits<unsigned long,CInstanceBase *,std::less<unsigned long>,std::allocator<std::pair<unsigned long const ,CInstanceBase *> >,0> >::_Getcomp
PUBLIC	?deallocate@?$_Default_allocator_traits@V?$allocator@U?$_Tree_node@U?$pair@$$CBKPAVCInstanceBase@@@std@@PAX@std@@@std@@@std@@SAXAAV?$allocator@U?$_Tree_node@U?$pair@$$CBKPAVCInstanceBase@@@std@@PAX@std@@@2@QAU?$_Tree_node@U?$pair@$$CBKPAVCInstanceBase@@@std@@PAX@2@I@Z ; std::_Default_allocator_traits<std::allocator<std::_Tree_node<std::pair<unsigned long const ,CInstanceBase *>,void *> > >::deallocate
PUBLIC	?_Max@?$_Tree_val@U?$_Tree_simple_types@U?$pair@$$CBKPAVCInstanceBase@@@std@@@std@@@std@@SAPAU?$_Tree_node@U?$pair@$$CBKPAVCInstanceBase@@@std@@PAX@2@PAU32@@Z ; std::_Tree_val<std::_Tree_simple_types<std::pair<unsigned long const ,CInstanceBase *> > >::_Max
PUBLIC	?_Lrotate@?$_Tree_val@U?$_Tree_simple_types@U?$pair@$$CBKPAVCInstanceBase@@@std@@@std@@@std@@QAEXPAU?$_Tree_node@U?$pair@$$CBKPAVCInstanceBase@@@std@@PAX@2@@Z ; std::_Tree_val<std::_Tree_simple_types<std::pair<unsigned long const ,CInstanceBase *> > >::_Lrotate
PUBLIC	?_Rrotate@?$_Tree_val@U?$_Tree_simple_types@U?$pair@$$CBKPAVCInstanceBase@@@std@@@std@@@std@@QAEXPAU?$_Tree_node@U?$pair@$$CBKPAVCInstanceBase@@@std@@PAX@2@@Z ; std::_Tree_val<std::_Tree_simple_types<std::pair<unsigned long const ,CInstanceBase *> > >::_Rrotate
PUBLIC	?deallocate@?$_Default_allocator_traits@V?$allocator@U?$_List_node@PAVCInstanceBase@@PAX@std@@@std@@@std@@SAXAAV?$allocator@U?$_List_node@PAVCInstanceBase@@PAX@std@@@2@QAU?$_List_node@PAVCInstanceBase@@PAX@2@I@Z ; std::_Default_allocator_traits<std::allocator<std::_List_node<CInstanceBase *,void *> > >::deallocate
PUBLIC	?max_size@?$_Default_allocator_traits@V?$allocator@U?$_List_node@PAVCInstanceBase@@PAX@std@@@std@@@std@@SAIABV?$allocator@U?$_List_node@PAVCInstanceBase@@PAX@std@@@2@@Z ; std::_Default_allocator_traits<std::allocator<std::_List_node<CInstanceBase *,void *> > >::max_size
PUBLIC	?max_size@?$vector@U?$pair@PAVCInstanceBase@@M@std@@V?$allocator@U?$pair@PAVCInstanceBase@@M@std@@@2@@std@@QBEIXZ ; std::vector<std::pair<CInstanceBase *,float>,std::allocator<std::pair<CInstanceBase *,float> > >::max_size
PUBLIC	?_Calculate_growth@?$vector@U?$pair@PAVCInstanceBase@@M@std@@V?$allocator@U?$pair@PAVCInstanceBase@@M@std@@@2@@std@@ABEII@Z ; std::vector<std::pair<CInstanceBase *,float>,std::allocator<std::pair<CInstanceBase *,float> > >::_Calculate_growth
PUBLIC	?_Change_array@?$vector@U?$pair@PAVCInstanceBase@@M@std@@V?$allocator@U?$pair@PAVCInstanceBase@@M@std@@@2@@std@@AAEXQAU?$pair@PAVCInstanceBase@@M@2@II@Z ; std::vector<std::pair<CInstanceBase *,float>,std::allocator<std::pair<CInstanceBase *,float> > >::_Change_array
PUBLIC	?_Xlength@?$vector@U?$pair@PAVCInstanceBase@@M@std@@V?$allocator@U?$pair@PAVCInstanceBase@@M@std@@@2@@std@@CAXXZ ; std::vector<std::pair<CInstanceBase *,float>,std::allocator<std::pair<CInstanceBase *,float> > >::_Xlength
PUBLIC	?_Orphan_range@?$vector@U?$pair@PAVCInstanceBase@@M@std@@V?$allocator@U?$pair@PAVCInstanceBase@@M@std@@@2@@std@@ABEXPAU?$pair@PAVCInstanceBase@@M@2@0@Z ; std::vector<std::pair<CInstanceBase *,float>,std::allocator<std::pair<CInstanceBase *,float> > >::_Orphan_range
PUBLIC	??1_Reallocation_guard@?$vector@U?$pair@PAVCInstanceBase@@M@std@@V?$allocator@U?$pair@PAVCInstanceBase@@M@std@@@2@@std@@QAE@XZ ; std::vector<std::pair<CInstanceBase *,float>,std::allocator<std::pair<CInstanceBase *,float> > >::_Reallocation_guard::~_Reallocation_guard
PUBLIC	?_Get_first@?$_Compressed_pair@V?$allocator@U?$pair@PAVCInstanceBase@@M@std@@@std@@V?$_Vector_val@U?$_Simple_types@U?$pair@PAVCInstanceBase@@M@std@@@std@@@2@$00@std@@QAEAAV?$allocator@U?$pair@PAVCInstanceBase@@M@std@@@2@XZ ; std::_Compressed_pair<std::allocator<std::pair<CInstanceBase *,float> >,std::_Vector_val<std::_Simple_types<std::pair<CInstanceBase *,float> > >,1>::_Get_first
PUBLIC	??0?$_Tree_temp_node_alloc@V?$allocator@U?$_Tree_node@U?$pair@$$CBKPAVCInstanceBase@@@std@@PAX@std@@@std@@@std@@QAE@AAV?$allocator@U?$_Tree_node@U?$pair@$$CBKPAVCInstanceBase@@@std@@PAX@std@@@1@@Z ; std::_Tree_temp_node_alloc<std::allocator<std::_Tree_node<std::pair<unsigned long const ,CInstanceBase *>,void *> > >::_Tree_temp_node_alloc<std::allocator<std::_Tree_node<std::pair<unsigned long const ,CInstanceBase *>,void *> > >
PUBLIC	??1?$_Alloc_construct_ptr@V?$allocator@U?$_Tree_node@U?$pair@$$CBKPAVCInstanceBase@@@std@@PAX@std@@@std@@@std@@QAE@XZ ; std::_Alloc_construct_ptr<std::allocator<std::_Tree_node<std::pair<unsigned long const ,CInstanceBase *>,void *> > >::~_Alloc_construct_ptr<std::allocator<std::_Tree_node<std::pair<unsigned long const ,CInstanceBase *>,void *> > >
PUBLIC	??0?$_Alloc_construct_ptr@V?$allocator@U?$_List_node@PAVCInstanceBase@@PAX@std@@@std@@@std@@QAE@AAV?$allocator@U?$_List_node@PAVCInstanceBase@@PAX@std@@@1@@Z ; std::_Alloc_construct_ptr<std::allocator<std::_List_node<CInstanceBase *,void *> > >::_Alloc_construct_ptr<std::allocator<std::_List_node<CInstanceBase *,void *> > >
PUBLIC	?_Allocate@?$_Alloc_construct_ptr@V?$allocator@U?$_List_node@PAVCInstanceBase@@PAX@std@@@std@@@std@@QAEXXZ ; std::_Alloc_construct_ptr<std::allocator<std::_List_node<CInstanceBase *,void *> > >::_Allocate
PUBLIC	??1?$_Alloc_construct_ptr@V?$allocator@U?$_List_node@PAVCInstanceBase@@PAX@std@@@std@@@std@@QAE@XZ ; std::_Alloc_construct_ptr<std::allocator<std::_List_node<CInstanceBase *,void *> > >::~_Alloc_construct_ptr<std::allocator<std::_List_node<CInstanceBase *,void *> > >
PUBLIC	??$_Buyheadnode@V?$allocator@U?$_Tree_node@U?$pair@$$CBKPAVCInstanceBase@@@std@@PAX@std@@@std@@@?$_Tree_node@U?$pair@$$CBKPAVCInstanceBase@@@std@@PAX@std@@SAPAU01@AAV?$allocator@U?$_Tree_node@U?$pair@$$CBKPAVCInstanceBase@@@std@@PAX@std@@@1@@Z ; std::_Tree_node<std::pair<unsigned long const ,CInstanceBase *>,void *>::_Buyheadnode<std::allocator<std::_Tree_node<std::pair<unsigned long const ,CInstanceBase *>,void *> > >
PUBLIC	??$_Refancy_maybe_null@PAPAVCInstanceBase@@$0A@@std@@YAPAPAVCInstanceBase@@PAPAV1@@Z ; std::_Refancy_maybe_null<CInstanceBase * *,0>
PUBLIC	??$exchange@PAU?$_Tree_node@U?$pair@$$CBKPAVCInstanceBase@@@std@@PAX@std@@$$T@std@@YAPAU?$_Tree_node@U?$pair@$$CBKPAVCInstanceBase@@@std@@PAX@0@AAPAU10@$$QA$$T@Z ; std::exchange<std::_Tree_node<std::pair<unsigned long const ,CInstanceBase *>,void *> *,std::nullptr_t>
PUBLIC	??$_Construct_in_place@PAU?$_List_node@PAVCInstanceBase@@PAX@std@@ABQAU12@@std@@YAXAAPAU?$_List_node@PAVCInstanceBase@@PAX@0@ABQAU10@@Z ; std::_Construct_in_place<std::_List_node<CInstanceBase *,void *> *,std::_List_node<CInstanceBase *,void *> * const &>
PUBLIC	??$construct_at@PAU?$_List_node@PAVCInstanceBase@@PAX@std@@AAPAU12@@std@@YAPAPAU?$_List_node@PAVCInstanceBase@@PAX@0@QAPAU10@AAPAU10@@Z ; std::construct_at<std::_List_node<CInstanceBase *,void *> *,std::_List_node<CInstanceBase *,void *> * &>
PUBLIC	??$forward@AAPAU?$_List_node@PAVCInstanceBase@@PAX@std@@@std@@YAAAPAU?$_List_node@PAVCInstanceBase@@PAX@0@AAPAU10@@Z ; std::forward<std::_List_node<CInstanceBase *,void *> * &>
PUBLIC	??$addressof@PAU?$_List_node@PAVCInstanceBase@@PAX@std@@@std@@YAPAPAU?$_List_node@PAVCInstanceBase@@PAX@0@AAPAU10@@Z ; std::addressof<std::_List_node<CInstanceBase *,void *> *>
PUBLIC	??$construct@PAVCInstanceBase@@ABQAV1@@?$_Default_allocator_traits@V?$allocator@U?$_List_node@PAVCInstanceBase@@PAX@std@@@std@@@std@@SAXAAV?$allocator@U?$_List_node@PAVCInstanceBase@@PAX@std@@@1@QAPAVCInstanceBase@@ABQAV3@@Z ; std::_Default_allocator_traits<std::allocator<std::_List_node<CInstanceBase *,void *> > >::construct<CInstanceBase *,CInstanceBase * const &>
PUBLIC	??$_Destroy_in_place@PAU?$_List_node@PAVCInstanceBase@@PAX@std@@@std@@YAXAAPAU?$_List_node@PAVCInstanceBase@@PAX@0@@Z ; std::_Destroy_in_place<std::_List_node<CInstanceBase *,void *> *>
PUBLIC	??$_Destroy_in_place@PAU?$_Tree_node@U?$pair@$$CBKPAVCInstanceBase@@@std@@PAX@std@@@std@@YAXAAPAU?$_Tree_node@U?$pair@$$CBKPAVCInstanceBase@@@std@@PAX@0@@Z ; std::_Destroy_in_place<std::_Tree_node<std::pair<unsigned long const ,CInstanceBase *>,void *> *>
PUBLIC	??$destroy@U?$pair@$$CBKPAVCInstanceBase@@@std@@@?$_Default_allocator_traits@V?$allocator@U?$_Tree_node@U?$pair@$$CBKPAVCInstanceBase@@@std@@PAX@std@@@std@@@std@@SAXAAV?$allocator@U?$_Tree_node@U?$pair@$$CBKPAVCInstanceBase@@@std@@PAX@std@@@1@QAU?$pair@$$CBKPAVCInstanceBase@@@1@@Z ; std::_Default_allocator_traits<std::allocator<std::_Tree_node<std::pair<unsigned long const ,CInstanceBase *>,void *> > >::destroy<std::pair<unsigned long const ,CInstanceBase *> >
PUBLIC	??$?0AAPAU?$pair@PAVCInstanceBase@@M@std@@AAPAU01@$0A@@?$pair@PAU?$pair@PAVCInstanceBase@@M@std@@PAU12@@std@@QAE@AAPAU?$pair@PAVCInstanceBase@@M@1@0@Z ; std::pair<std::pair<CInstanceBase *,float> *,std::pair<CInstanceBase *,float> *>::pair<std::pair<CInstanceBase *,float> *,std::pair<CInstanceBase *,float> *><std::pair<CInstanceBase *,float> * &,std::pair<CInstanceBase *,float> * &,0>
PUBLIC	??$swap@PAVCInstanceBase@@M$0A@@std@@YAXAAU?$pair@PAVCInstanceBase@@M@0@0@Z ; std::swap<CInstanceBase *,float,0>
PUBLIC	??$_Next_iter@PAU?$pair@PAVCInstanceBase@@M@std@@@std@@YAPAU?$pair@PAVCInstanceBase@@M@0@PAU10@@Z ; std::_Next_iter<std::pair<CInstanceBase *,float> *>
PUBLIC	??$_Guess_median_unchecked@PAU?$pair@PAVCInstanceBase@@M@std@@P6A_NABU12@0@Z@std@@YAXPAU?$pair@PAVCInstanceBase@@M@0@00P6A_NABU10@1@Z@Z ; std::_Guess_median_unchecked<std::pair<CInstanceBase *,float> *,bool (__cdecl*)(std::pair<CInstanceBase *,float> const &,std::pair<CInstanceBase *,float> const &)>
PUBLIC	??$_Prev_iter@PAU?$pair@PAVCInstanceBase@@M@std@@@std@@YAPAU?$pair@PAVCInstanceBase@@M@0@PAU10@@Z ; std::_Prev_iter<std::pair<CInstanceBase *,float> *>
PUBLIC	??$_Pop_heap_unchecked@PAU?$pair@PAVCInstanceBase@@M@std@@P6A_NABU12@0@Z@std@@YAXPAU?$pair@PAVCInstanceBase@@M@0@0P6A_NABU10@1@Z@Z ; std::_Pop_heap_unchecked<std::pair<CInstanceBase *,float> *,bool (__cdecl*)(std::pair<CInstanceBase *,float> const &,std::pair<CInstanceBase *,float> const &)>
PUBLIC	??$_Pop_heap_hole_by_index@PAU?$pair@PAVCInstanceBase@@M@std@@U12@P6A_NABU12@0@Z@std@@YAXPAU?$pair@PAVCInstanceBase@@M@0@HH$$QAU10@P6A_NABU10@2@Z@Z ; std::_Pop_heap_hole_by_index<std::pair<CInstanceBase *,float> *,std::pair<CInstanceBase *,float>,bool (__cdecl*)(std::pair<CInstanceBase *,float> const &,std::pair<CInstanceBase *,float> const &)>
PUBLIC	??$?4U?$pair@PAVCInstanceBase@@M@std@@$0A@@?$pair@PAVCInstanceBase@@M@std@@QAEAAU01@$$QAU01@@Z ; std::pair<CInstanceBase *,float>::operator=<std::pair<CInstanceBase *,float>,0>
PUBLIC	??$_Move_backward_unchecked@PAU?$pair@PAVCInstanceBase@@M@std@@PAU12@@std@@YAPAU?$pair@PAVCInstanceBase@@M@0@PAU10@00@Z ; std::_Move_backward_unchecked<std::pair<CInstanceBase *,float> *,std::pair<CInstanceBase *,float> *>
PUBLIC	??$move@AAU?$pair@PAVCInstanceBase@@M@std@@@std@@YA$$QAU?$pair@PAVCInstanceBase@@M@0@AAU10@@Z ; std::move<std::pair<CInstanceBase *,float> &>
PUBLIC	??$_Uninitialized_move@PAU?$pair@PAVCInstanceBase@@M@std@@V?$allocator@U?$pair@PAVCInstanceBase@@M@std@@@2@@std@@YAPAU?$pair@PAVCInstanceBase@@M@0@QAU10@0PAU10@AAV?$allocator@U?$pair@PAVCInstanceBase@@M@std@@@0@@Z ; std::_Uninitialized_move<std::pair<CInstanceBase *,float> *,std::allocator<std::pair<CInstanceBase *,float> > >
PUBLIC	??$_Get_unwrapped@ABQAU?$pair@PAVCInstanceBase@@M@std@@@std@@YA?A_TABQAU?$pair@PAVCInstanceBase@@M@0@@Z ; std::_Get_unwrapped<std::pair<CInstanceBase *,float> * const &>
PUBLIC	??$construct@U?$pair@PAVCInstanceBase@@M@std@@AAPAVCInstanceBase@@ABM@?$_Default_allocator_traits@V?$allocator@U?$pair@PAVCInstanceBase@@M@std@@@std@@@std@@SAXAAV?$allocator@U?$pair@PAVCInstanceBase@@M@std@@@1@QAU?$pair@PAVCInstanceBase@@M@1@AAPAVCInstanceBase@@ABM@Z ; std::_Default_allocator_traits<std::allocator<std::pair<CInstanceBase *,float> > >::construct<std::pair<CInstanceBase *,float>,CInstanceBase * &,float const &>
PUBLIC	??$_Unfancy@U?$pair@PAVCInstanceBase@@M@std@@@std@@YAPAU?$pair@PAVCInstanceBase@@M@0@PAU10@@Z ; std::_Unfancy<std::pair<CInstanceBase *,float> >
PUBLIC	??$_Allocate_at_least_helper@V?$allocator@U?$pair@PAVCInstanceBase@@M@std@@@std@@@std@@YAPAU?$pair@PAVCInstanceBase@@M@0@AAV?$allocator@U?$pair@PAVCInstanceBase@@M@std@@@0@AAI@Z ; std::_Allocate_at_least_helper<std::allocator<std::pair<CInstanceBase *,float> > >
PUBLIC	??$_Construct_in_place@U?$pair@PAVCInstanceBase@@M@std@@AAPAVCInstanceBase@@ABM@std@@YAXAAU?$pair@PAVCInstanceBase@@M@0@AAPAVCInstanceBase@@ABM@Z ; std::_Construct_in_place<std::pair<CInstanceBase *,float>,CInstanceBase * &,float const &>
PUBLIC	??$construct@PAVCInstanceBase@@AAPAV1@@?$_Default_allocator_traits@V?$allocator@PAVCInstanceBase@@@std@@@std@@SAXAAV?$allocator@PAVCInstanceBase@@@1@QAPAVCInstanceBase@@AAPAV3@@Z ; std::_Default_allocator_traits<std::allocator<CInstanceBase *> >::construct<CInstanceBase *,CInstanceBase * &>
PUBLIC	??$_Construct_in_place@PAVCInstanceBase@@AAPAV1@@std@@YAXAAPAVCInstanceBase@@0@Z ; std::_Construct_in_place<CInstanceBase *,CInstanceBase * &>
PUBLIC	??$_Guess_median_unchecked@PAPAVCInstanceBase@@U?$_Ref_fn@UCInstanceBase_SLessCameraDistance@@@std@@@std@@YAXPAPAVCInstanceBase@@00U?$_Ref_fn@UCInstanceBase_SLessCameraDistance@@@0@@Z ; std::_Guess_median_unchecked<CInstanceBase * *,std::_Ref_fn<CInstanceBase_SLessCameraDistance> >
PUBLIC	??$_Pop_heap_unchecked@PAPAVCInstanceBase@@U?$_Ref_fn@UCInstanceBase_SLessCameraDistance@@@std@@@std@@YAXPAPAVCInstanceBase@@0U?$_Ref_fn@UCInstanceBase_SLessCameraDistance@@@0@@Z ; std::_Pop_heap_unchecked<CInstanceBase * *,std::_Ref_fn<CInstanceBase_SLessCameraDistance> >
PUBLIC	??$_Pop_heap_hole_by_index@PAPAVCInstanceBase@@PAV1@U?$_Ref_fn@UCInstanceBase_SLessCameraDistance@@@std@@@std@@YAXPAPAVCInstanceBase@@HH$$QAPAV1@U?$_Ref_fn@UCInstanceBase_SLessCameraDistance@@@0@@Z ; std::_Pop_heap_hole_by_index<CInstanceBase * *,CInstanceBase *,std::_Ref_fn<CInstanceBase_SLessCameraDistance> >
PUBLIC	??$forward@PAU?$_Tree_node@U?$pair@$$CBKPAVCInstanceBase@@@std@@PAX@std@@@std@@YA$$QAPAU?$_Tree_node@U?$pair@$$CBKPAVCInstanceBase@@@std@@PAX@0@AAPAU10@@Z ; std::forward<std::_Tree_node<std::pair<unsigned long const ,CInstanceBase *>,void *> *>
PUBLIC	??$forward@AAPAU?$_Tree_node@U?$pair@$$CBKPAVCInstanceBase@@@std@@PAX@std@@@std@@YAAAPAU?$_Tree_node@U?$pair@$$CBKPAVCInstanceBase@@@std@@PAX@0@AAPAU10@@Z ; std::forward<std::_Tree_node<std::pair<unsigned long const ,CInstanceBase *>,void *> * &>
PUBLIC	??$_Construct_in_place@PAU?$_Tree_node@U?$pair@$$CBKPAVCInstanceBase@@@std@@PAX@std@@AAPAU12@@std@@YAXAAPAU?$_Tree_node@U?$pair@$$CBKPAVCInstanceBase@@@std@@PAX@0@0@Z ; std::_Construct_in_place<std::_Tree_node<std::pair<unsigned long const ,CInstanceBase *>,void *> *,std::_Tree_node<std::pair<unsigned long const ,CInstanceBase *>,void *> * &>
PUBLIC	??$construct@U?$pair@$$CBKPAVCInstanceBase@@@std@@U12@@?$_Default_allocator_traits@V?$allocator@U?$_Tree_node@U?$pair@$$CBKPAVCInstanceBase@@@std@@PAX@std@@@std@@@std@@SAXAAV?$allocator@U?$_Tree_node@U?$pair@$$CBKPAVCInstanceBase@@@std@@PAX@std@@@1@QAU?$pair@$$CBKPAVCInstanceBase@@@1@$$QAU31@@Z ; std::_Default_allocator_traits<std::allocator<std::_Tree_node<std::pair<unsigned long const ,CInstanceBase *>,void *> > >::construct<std::pair<unsigned long const ,CInstanceBase *>,std::pair<unsigned long const ,CInstanceBase *> >
PUBLIC	??$_Kfn@$$CBKPAVCInstanceBase@@@?$_Tmap_traits@KPAVCInstanceBase@@U?$less@K@std@@V?$allocator@U?$pair@$$CBKPAVCInstanceBase@@@std@@@3@$0A@@std@@SAABKABU?$pair@$$CBKPAVCInstanceBase@@@1@@Z ; std::_Tmap_traits<unsigned long,CInstanceBase *,std::less<unsigned long>,std::allocator<std::pair<unsigned long const ,CInstanceBase *> >,0>::_Kfn<unsigned long const ,CInstanceBase *>
PUBLIC	??$?0AAPAPAVCInstanceBase@@AAPAPAV0@$0A@@?$pair@PAPAVCInstanceBase@@PAPAV1@@std@@QAE@AAPAPAVCInstanceBase@@0@Z ; std::pair<CInstanceBase * *,CInstanceBase * *>::pair<CInstanceBase * *,CInstanceBase * *><CInstanceBase * * &,CInstanceBase * * &,0>
PUBLIC	??$swap@PAVCInstanceBase@@$0A@@std@@YAXAAPAVCInstanceBase@@0@Z ; std::swap<CInstanceBase *,0>
PUBLIC	??$_Next_iter@PAPAVCInstanceBase@@@std@@YAPAPAVCInstanceBase@@PAPAV1@@Z ; std::_Next_iter<CInstanceBase * *>
PUBLIC	??$_Guess_median_unchecked@PAPAVCInstanceBase@@ULessCharacterInstancePtrRenderOrder@@@std@@YAXPAPAVCInstanceBase@@00ULessCharacterInstancePtrRenderOrder@@@Z ; std::_Guess_median_unchecked<CInstanceBase * *,LessCharacterInstancePtrRenderOrder>
PUBLIC	??$_Prev_iter@PAPAVCInstanceBase@@@std@@YAPAPAVCInstanceBase@@PAPAV1@@Z ; std::_Prev_iter<CInstanceBase * *>
PUBLIC	??$_Pop_heap_unchecked@PAPAVCInstanceBase@@ULessCharacterInstancePtrRenderOrder@@@std@@YAXPAPAVCInstanceBase@@0ULessCharacterInstancePtrRenderOrder@@@Z ; std::_Pop_heap_unchecked<CInstanceBase * *,LessCharacterInstancePtrRenderOrder>
PUBLIC	??$_Pop_heap_hole_by_index@PAPAVCInstanceBase@@PAV1@ULessCharacterInstancePtrRenderOrder@@@std@@YAXPAPAVCInstanceBase@@HH$$QAPAV1@ULessCharacterInstancePtrRenderOrder@@@Z ; std::_Pop_heap_hole_by_index<CInstanceBase * *,CInstanceBase *,LessCharacterInstancePtrRenderOrder>
PUBLIC	??$_Move_backward_unchecked@PAPAVCInstanceBase@@PAPAV1@@std@@YAPAPAVCInstanceBase@@PAPAV1@00@Z ; std::_Move_backward_unchecked<CInstanceBase * *,CInstanceBase * *>
PUBLIC	??$?0$$V@?$_Compressed_pair@V?$allocator@U?$_Tree_node@U?$pair@$$CBKPAVCInstanceBase@@@std@@PAX@std@@@std@@V?$_Tree_val@U?$_Tree_simple_types@U?$pair@$$CBKPAVCInstanceBase@@@std@@@std@@@2@$00@std@@QAE@U_Zero_then_variadic_args_t@1@@Z ; std::_Compressed_pair<std::allocator<std::_Tree_node<std::pair<unsigned long const ,CInstanceBase *>,void *> >,std::_Tree_val<std::_Tree_simple_types<std::pair<unsigned long const ,CInstanceBase *> > >,1>::_Compressed_pair<std::allocator<std::_Tree_node<std::pair<unsigned long const ,CInstanceBase *>,void *> >,std::_Tree_val<std::_Tree_simple_types<std::pair<unsigned long const ,CInstanceBase *> > >,1><>
PUBLIC	??1?$_Tree_temp_node_alloc@V?$allocator@U?$_Tree_node@U?$pair@$$CBKPAVCInstanceBase@@@std@@PAX@std@@@std@@@std@@QAE@XZ ; std::_Tree_temp_node_alloc<std::allocator<std::_Tree_node<std::pair<unsigned long const ,CInstanceBase *>,void *> > >::~_Tree_temp_node_alloc<std::allocator<std::_Tree_node<std::pair<unsigned long const ,CInstanceBase *>,void *> > >
PUBLIC	?max_size@?$list@PAVCInstanceBase@@V?$allocator@PAVCInstanceBase@@@std@@@std@@QBEIXZ ; std::list<CInstanceBase *,std::allocator<CInstanceBase *> >::max_size
PUBLIC	?_Check_grow_by_1@?$_Tree@V?$_Tmap_traits@KPAVCInstanceBase@@U?$less@K@std@@V?$allocator@U?$pair@$$CBKPAVCInstanceBase@@@std@@@3@$0A@@std@@@std@@IAEXXZ ; std::_Tree<std::_Tmap_traits<unsigned long,CInstanceBase *,std::less<unsigned long>,std::allocator<std::pair<unsigned long const ,CInstanceBase *> >,0> >::_Check_grow_by_1
PUBLIC	?_Alloc_sentinel_and_proxy@?$_Tree@V?$_Tmap_traits@KPAVCInstanceBase@@U?$less@K@std@@V?$allocator@U?$pair@$$CBKPAVCInstanceBase@@@std@@@3@$0A@@std@@@std@@IAEXXZ ; std::_Tree<std::_Tmap_traits<unsigned long,CInstanceBase *,std::less<unsigned long>,std::allocator<std::pair<unsigned long const ,CInstanceBase *> >,0> >::_Alloc_sentinel_and_proxy
PUBLIC	?_Extract@?$_Tree_val@U?$_Tree_simple_types@U?$pair@$$CBKPAVCInstanceBase@@@std@@@std@@@std@@QAEPAU?$_Tree_node@U?$pair@$$CBKPAVCInstanceBase@@@std@@PAX@2@V?$_Tree_unchecked_const_iterator@V?$_Tree_val@U?$_Tree_simple_types@U?$pair@$$CBKPAVCInstanceBase@@@std@@@std@@@std@@U_Iterator_base0@2@@2@@Z ; std::_Tree_val<std::_Tree_simple_types<std::pair<unsigned long const ,CInstanceBase *> > >::_Extract
PUBLIC	?_Insert_node@?$_Tree_val@U?$_Tree_simple_types@U?$pair@$$CBKPAVCInstanceBase@@@std@@@std@@@std@@QAEPAU?$_Tree_node@U?$pair@$$CBKPAVCInstanceBase@@@std@@PAX@2@U?$_Tree_id@PAU?$_Tree_node@U?$pair@$$CBKPAVCInstanceBase@@@std@@PAX@std@@@2@QAU32@@Z ; std::_Tree_val<std::_Tree_simple_types<std::pair<unsigned long const ,CInstanceBase *> > >::_Insert_node
PUBLIC	?_Get_first@?$_Compressed_pair@V?$allocator@U?$_Tree_node@U?$pair@$$CBKPAVCInstanceBase@@@std@@PAX@std@@@std@@V?$_Tree_val@U?$_Tree_simple_types@U?$pair@$$CBKPAVCInstanceBase@@@std@@@std@@@2@$00@std@@QAEAAV?$allocator@U?$_Tree_node@U?$pair@$$CBKPAVCInstanceBase@@@std@@PAX@std@@@2@XZ ; std::_Compressed_pair<std::allocator<std::_Tree_node<std::pair<unsigned long const ,CInstanceBase *>,void *> >,std::_Tree_val<std::_Tree_simple_types<std::pair<unsigned long const ,CInstanceBase *> > >,1>::_Get_first
PUBLIC	??0?$allocator@U?$_List_node@PAVCInstanceBase@@PAX@std@@@std@@QAE@XZ ; std::allocator<std::_List_node<CInstanceBase *,void *> >::allocator<std::_List_node<CInstanceBase *,void *> >
PUBLIC	?allocate@?$allocator@U?$_List_node@PAVCInstanceBase@@PAX@std@@@std@@QAEPAU?$_List_node@PAVCInstanceBase@@PAX@2@I@Z ; std::allocator<std::_List_node<CInstanceBase *,void *> >::allocate
PUBLIC	??0?$_List_val@U?$_List_simple_types@PAVCInstanceBase@@@std@@@std@@QAE@XZ ; std::_List_val<std::_List_simple_types<CInstanceBase *> >::_List_val<std::_List_simple_types<CInstanceBase *> >
PUBLIC	?_Orphan_ptr2@?$_List_val@U?$_List_simple_types@PAVCInstanceBase@@@std@@@std@@QAEXPAU?$_List_node@PAVCInstanceBase@@PAX@2@@Z ; std::_List_val<std::_List_simple_types<CInstanceBase *> >::_Orphan_ptr2
PUBLIC	??D?$_List_unchecked_const_iterator@V?$_List_val@U?$_List_simple_types@PAVCInstanceBase@@@std@@@std@@U_Iterator_base0@2@@std@@QBEABQAVCInstanceBase@@XZ ; std::_List_unchecked_const_iterator<std::_List_val<std::_List_simple_types<CInstanceBase *> >,std::_Iterator_base0>::operator*
PUBLIC	??E?$_List_unchecked_const_iterator@V?$_List_val@U?$_List_simple_types@PAVCInstanceBase@@@std@@@std@@U_Iterator_base0@2@@std@@QAEAAV01@XZ ; std::_List_unchecked_const_iterator<std::_List_val<std::_List_simple_types<CInstanceBase *> >,std::_Iterator_base0>::operator++
PUBLIC	?_Get_first@?$_Compressed_pair@V?$allocator@U?$_List_node@PAVCInstanceBase@@PAX@std@@@std@@V?$_List_val@U?$_List_simple_types@PAVCInstanceBase@@@std@@@2@$00@std@@QAEAAV?$allocator@U?$_List_node@PAVCInstanceBase@@PAX@std@@@2@XZ ; std::_Compressed_pair<std::allocator<std::_List_node<CInstanceBase *,void *> >,std::_List_val<std::_List_simple_types<CInstanceBase *> >,1>::_Get_first
PUBLIC	?_Seek_to@?$_Vector_const_iterator@V?$_Vector_val@U?$_Simple_types@PAVCInstanceBase@@@std@@@std@@@std@@QAEXPBQAVCInstanceBase@@@Z ; std::_Vector_const_iterator<std::_Vector_val<std::_Simple_types<CInstanceBase *> > >::_Seek_to
PUBLIC	??0?$allocator@U?$pair@PAVCInstanceBase@@M@std@@@std@@QAE@XZ ; std::allocator<std::pair<CInstanceBase *,float> >::allocator<std::pair<CInstanceBase *,float> >
PUBLIC	?deallocate@?$allocator@U?$pair@PAVCInstanceBase@@M@std@@@std@@QAEXQAU?$pair@PAVCInstanceBase@@M@2@I@Z ; std::allocator<std::pair<CInstanceBase *,float> >::deallocate
PUBLIC	?_Getal@?$vector@U?$pair@PAVCInstanceBase@@M@std@@V?$allocator@U?$pair@PAVCInstanceBase@@M@std@@@2@@std@@AAEAAV?$allocator@U?$pair@PAVCInstanceBase@@M@std@@@2@XZ ; std::vector<std::pair<CInstanceBase *,float>,std::allocator<std::pair<CInstanceBase *,float> > >::_Getal
PUBLIC	??0?$_Vector_val@U?$_Simple_types@U?$pair@PAVCInstanceBase@@M@std@@@std@@@std@@QAE@XZ ; std::_Vector_val<std::_Simple_types<std::pair<CInstanceBase *,float> > >::_Vector_val<std::_Simple_types<std::pair<CInstanceBase *,float> > >
PUBLIC	?_Extract@?$_In_place_key_extract_map_impl@KU?$pair@$$CBKPAVCInstanceBase@@@std@@@std@@SAABKABU?$pair@$$CBKPAVCInstanceBase@@@2@@Z ; std::_In_place_key_extract_map_impl<unsigned long,std::pair<unsigned long const ,CInstanceBase *> >::_Extract
PUBLIC	??1?$_Tree_temp_node@V?$allocator@U?$_Tree_node@U?$pair@$$CBKPAVCInstanceBase@@@std@@PAX@std@@@std@@@std@@QAE@XZ ; std::_Tree_temp_node<std::allocator<std::_Tree_node<std::pair<unsigned long const ,CInstanceBase *>,void *> > >::~_Tree_temp_node<std::allocator<std::_Tree_node<std::pair<unsigned long const ,CInstanceBase *>,void *> > >
PUBLIC	?_Release@?$_Alloc_construct_ptr@V?$allocator@U?$_Tree_node@U?$pair@$$CBKPAVCInstanceBase@@@std@@PAX@std@@@std@@@std@@QAEPAU?$_Tree_node@U?$pair@$$CBKPAVCInstanceBase@@@std@@PAX@2@XZ ; std::_Alloc_construct_ptr<std::allocator<std::_Tree_node<std::pair<unsigned long const ,CInstanceBase *>,void *> > >::_Release
PUBLIC	??1?$_List_node_emplace_op2@V?$allocator@U?$_List_node@PAVCInstanceBase@@PAX@std@@@std@@@std@@QAE@XZ ; std::_List_node_emplace_op2<std::allocator<std::_List_node<CInstanceBase *,void *> > >::~_List_node_emplace_op2<std::allocator<std::_List_node<CInstanceBase *,void *> > >
PUBLIC	?_Transfer_before@?$_List_node_emplace_op2@V?$allocator@U?$_List_node@PAVCInstanceBase@@PAX@std@@@std@@@std@@QAEPAU?$_List_node@PAVCInstanceBase@@PAX@2@QAU32@@Z ; std::_List_node_emplace_op2<std::allocator<std::_List_node<CInstanceBase *,void *> > >::_Transfer_before
PUBLIC	??$addressof@$$CBV?$_List_val@U?$_List_simple_types@PAVCInstanceBase@@@std@@@std@@@std@@YAPBV?$_List_val@U?$_List_simple_types@PAVCInstanceBase@@@std@@@0@ABV10@@Z ; std::addressof<std::_List_val<std::_List_simple_types<CInstanceBase *> > const >
PUBLIC	??$_Construct_in_place@PAU?$_List_node@PAVCInstanceBase@@PAX@std@@AAPAU12@@std@@YAXAAPAU?$_List_node@PAVCInstanceBase@@PAX@0@0@Z ; std::_Construct_in_place<std::_List_node<CInstanceBase *,void *> *,std::_List_node<CInstanceBase *,void *> * &>
PUBLIC	??$?0ABU?$less@K@std@@U_Zero_then_variadic_args_t@1@@?$_Compressed_pair@U?$less@K@std@@V?$_Compressed_pair@V?$allocator@U?$_Tree_node@U?$pair@$$CBKPAVCInstanceBase@@@std@@PAX@std@@@std@@V?$_Tree_val@U?$_Tree_simple_types@U?$pair@$$CBKPAVCInstanceBase@@@std@@@std@@@2@$00@2@$00@std@@QAE@U_One_then_variadic_args_t@1@ABU?$less@K@1@$$QAU_Zero_then_variadic_args_t@1@@Z ; std::_Compressed_pair<std::less<unsigned long>,std::_Compressed_pair<std::allocator<std::_Tree_node<std::pair<unsigned long const ,CInstanceBase *>,void *> >,std::_Tree_val<std::_Tree_simple_types<std::pair<unsigned long const ,CInstanceBase *> > >,1>,1>::_Compressed_pair<std::less<unsigned long>,std::_Compressed_pair<std::allocator<std::_Tree_node<std::pair<unsigned long const ,CInstanceBase *>,void *> >,std::_Tree_val<std::_Tree_simple_types<std::pair<unsigned long const ,CInstanceBase *> > >,1>,1><std::less<unsigned long> const &,std::_Zero_then_variadic_args_t>
PUBLIC	??$addressof@$$CBV?$_Tree_val@U?$_Tree_simple_types@U?$pair@$$CBKPAVCInstanceBase@@@std@@@std@@@std@@@std@@YAPBV?$_Tree_val@U?$_Tree_simple_types@U?$pair@$$CBKPAVCInstanceBase@@@std@@@std@@@0@ABV10@@Z ; std::addressof<std::_Tree_val<std::_Tree_simple_types<std::pair<unsigned long const ,CInstanceBase *> > > const >
PUBLIC	??$_Destroy_range@V?$allocator@U?$pair@PAVCInstanceBase@@M@std@@@std@@@std@@YAXPAU?$pair@PAVCInstanceBase@@M@0@QAU10@AAV?$allocator@U?$pair@PAVCInstanceBase@@M@std@@@0@@Z ; std::_Destroy_range<std::allocator<std::pair<CInstanceBase *,float> > >
PUBLIC	??$?0ABQAVCInstanceBase@@@?$_List_node_emplace_op2@V?$allocator@U?$_List_node@PAVCInstanceBase@@PAX@std@@@std@@@std@@QAE@AAV?$allocator@U?$_List_node@PAVCInstanceBase@@PAX@std@@@1@ABQAVCInstanceBase@@@Z ; std::_List_node_emplace_op2<std::allocator<std::_List_node<CInstanceBase *,void *> > >::_List_node_emplace_op2<std::allocator<std::_List_node<CInstanceBase *,void *> > ><CInstanceBase * const &>
PUBLIC	??$_Freenode0@V?$allocator@U?$_List_node@PAVCInstanceBase@@PAX@std@@@std@@@?$_List_node@PAVCInstanceBase@@PAX@std@@SAXAAV?$allocator@U?$_List_node@PAVCInstanceBase@@PAX@std@@@1@PAU01@@Z ; std::_List_node<CInstanceBase *,void *>::_Freenode0<std::allocator<std::_List_node<CInstanceBase *,void *> > >
PUBLIC	??$destroy@PAVCInstanceBase@@@?$_Default_allocator_traits@V?$allocator@U?$_List_node@PAVCInstanceBase@@PAX@std@@@std@@@std@@SAXAAV?$allocator@U?$_List_node@PAVCInstanceBase@@PAX@std@@@1@QAPAVCInstanceBase@@@Z ; std::_Default_allocator_traits<std::allocator<std::_List_node<CInstanceBase *,void *> > >::destroy<CInstanceBase *>
PUBLIC	??$_Freenode0@V?$allocator@U?$_Tree_node@U?$pair@$$CBKPAVCInstanceBase@@@std@@PAX@std@@@std@@@?$_Tree_node@U?$pair@$$CBKPAVCInstanceBase@@@std@@PAX@std@@SAXAAV?$allocator@U?$_Tree_node@U?$pair@$$CBKPAVCInstanceBase@@@std@@PAX@std@@@1@PAU01@@Z ; std::_Tree_node<std::pair<unsigned long const ,CInstanceBase *>,void *>::_Freenode0<std::allocator<std::_Tree_node<std::pair<unsigned long const ,CInstanceBase *>,void *> > >
PUBLIC	??$_Freenode@V?$allocator@U?$_Tree_node@U?$pair@$$CBKPAVCInstanceBase@@@std@@PAX@std@@@std@@@?$_Tree_node@U?$pair@$$CBKPAVCInstanceBase@@@std@@PAX@std@@SAXAAV?$allocator@U?$_Tree_node@U?$pair@$$CBKPAVCInstanceBase@@@std@@PAX@std@@@1@PAU01@@Z ; std::_Tree_node<std::pair<unsigned long const ,CInstanceBase *>,void *>::_Freenode<std::allocator<std::_Tree_node<std::pair<unsigned long const ,CInstanceBase *>,void *> > >
PUBLIC	??$exchange@PAU?$_Tree_node@U?$pair@$$CBKPAVCInstanceBase@@@std@@PAX@std@@AAPAU12@@std@@YAPAU?$_Tree_node@U?$pair@$$CBKPAVCInstanceBase@@@std@@PAX@0@AAPAU10@0@Z ; std::exchange<std::_Tree_node<std::pair<unsigned long const ,CInstanceBase *>,void *> *,std::_Tree_node<std::pair<unsigned long const ,CInstanceBase *>,void *> * &>
PUBLIC	??$_Partition_by_median_guess_unchecked@PAU?$pair@PAVCInstanceBase@@M@std@@P6A_NABU12@0@Z@std@@YA?AU?$pair@PAU?$pair@PAVCInstanceBase@@M@std@@PAU12@@0@PAU?$pair@PAVCInstanceBase@@M@0@0P6A_NABU20@1@Z@Z ; std::_Partition_by_median_guess_unchecked<std::pair<CInstanceBase *,float> *,bool (__cdecl*)(std::pair<CInstanceBase *,float> const &,std::pair<CInstanceBase *,float> const &)>
PUBLIC	??$_Sort_heap_unchecked@PAU?$pair@PAVCInstanceBase@@M@std@@P6A_NABU12@0@Z@std@@YAXPAU?$pair@PAVCInstanceBase@@M@0@0P6A_NABU10@1@Z@Z ; std::_Sort_heap_unchecked<std::pair<CInstanceBase *,float> *,bool (__cdecl*)(std::pair<CInstanceBase *,float> const &,std::pair<CInstanceBase *,float> const &)>
PUBLIC	??$_Make_heap_unchecked@PAU?$pair@PAVCInstanceBase@@M@std@@P6A_NABU12@0@Z@std@@YAXPAU?$pair@PAVCInstanceBase@@M@0@0P6A_NABU10@1@Z@Z ; std::_Make_heap_unchecked<std::pair<CInstanceBase *,float> *,bool (__cdecl*)(std::pair<CInstanceBase *,float> const &,std::pair<CInstanceBase *,float> const &)>
PUBLIC	??$_Insertion_sort_unchecked@PAU?$pair@PAVCInstanceBase@@M@std@@P6A_NABU12@0@Z@std@@YAPAU?$pair@PAVCInstanceBase@@M@0@QAU10@0P6A_NABU10@1@Z@Z ; std::_Insertion_sort_unchecked<std::pair<CInstanceBase *,float> *,bool (__cdecl*)(std::pair<CInstanceBase *,float> const &,std::pair<CInstanceBase *,float> const &)>
PUBLIC	??$_Emplace_reallocate@AAPAVCInstanceBase@@ABM@?$vector@U?$pair@PAVCInstanceBase@@M@std@@V?$allocator@U?$pair@PAVCInstanceBase@@M@std@@@2@@std@@AAEPAU?$pair@PAVCInstanceBase@@M@1@QAU21@AAPAVCInstanceBase@@ABM@Z ; std::vector<std::pair<CInstanceBase *,float>,std::allocator<std::pair<CInstanceBase *,float> > >::_Emplace_reallocate<CInstanceBase * &,float const &>
PUBLIC	??$_Emplace_back_with_unused_capacity@AAPAVCInstanceBase@@ABM@?$vector@U?$pair@PAVCInstanceBase@@M@std@@V?$allocator@U?$pair@PAVCInstanceBase@@M@std@@@2@@std@@AAEAAU?$pair@PAVCInstanceBase@@M@1@AAPAVCInstanceBase@@ABM@Z ; std::vector<std::pair<CInstanceBase *,float>,std::allocator<std::pair<CInstanceBase *,float> > >::_Emplace_back_with_unused_capacity<CInstanceBase * &,float const &>
PUBLIC	??$_Emplace_reallocate@AAPAVCInstanceBase@@@?$vector@PAVCInstanceBase@@V?$allocator@PAVCInstanceBase@@@std@@@std@@AAEPAPAVCInstanceBase@@QAPAV2@AAPAV2@@Z ; std::vector<CInstanceBase *,std::allocator<CInstanceBase *> >::_Emplace_reallocate<CInstanceBase * &>
PUBLIC	??$_Emplace_back_with_unused_capacity@AAPAVCInstanceBase@@@?$vector@PAVCInstanceBase@@V?$allocator@PAVCInstanceBase@@@std@@@std@@AAEAAPAVCInstanceBase@@AAPAV2@@Z ; std::vector<CInstanceBase *,std::allocator<CInstanceBase *> >::_Emplace_back_with_unused_capacity<CInstanceBase * &>
PUBLIC	??$forward@PAPAVCInstanceBase@@@std@@YA$$QAPAPAVCInstanceBase@@AAPAPAV1@@Z ; std::forward<CInstanceBase * *>
PUBLIC	??$_Find_vectorized@PAVCInstanceBase@@PAV1@@std@@YAPAPAVCInstanceBase@@QAPAV1@0QAV1@@Z ; std::_Find_vectorized<CInstanceBase *,CInstanceBase *>
PUBLIC	??$_Could_compare_equal_to_value_type@PAPAVCInstanceBase@@PAV1@@std@@YA_NABQAVCInstanceBase@@@Z ; std::_Could_compare_equal_to_value_type<CInstanceBase * *,CInstanceBase *>
PUBLIC	??$_Partition_by_median_guess_unchecked@PAPAVCInstanceBase@@U?$_Ref_fn@UCInstanceBase_SLessCameraDistance@@@std@@@std@@YA?AU?$pair@PAPAVCInstanceBase@@PAPAV1@@0@PAPAVCInstanceBase@@0U?$_Ref_fn@UCInstanceBase_SLessCameraDistance@@@0@@Z ; std::_Partition_by_median_guess_unchecked<CInstanceBase * *,std::_Ref_fn<CInstanceBase_SLessCameraDistance> >
PUBLIC	??$_Sort_heap_unchecked@PAPAVCInstanceBase@@U?$_Ref_fn@UCInstanceBase_SLessCameraDistance@@@std@@@std@@YAXPAPAVCInstanceBase@@0U?$_Ref_fn@UCInstanceBase_SLessCameraDistance@@@0@@Z ; std::_Sort_heap_unchecked<CInstanceBase * *,std::_Ref_fn<CInstanceBase_SLessCameraDistance> >
PUBLIC	??$_Make_heap_unchecked@PAPAVCInstanceBase@@U?$_Ref_fn@UCInstanceBase_SLessCameraDistance@@@std@@@std@@YAXPAPAVCInstanceBase@@0U?$_Ref_fn@UCInstanceBase_SLessCameraDistance@@@0@@Z ; std::_Make_heap_unchecked<CInstanceBase * *,std::_Ref_fn<CInstanceBase_SLessCameraDistance> >
PUBLIC	??$?RAAPAVCInstanceBase@@AAPAV0@@?$_Ref_fn@UCInstanceBase_SLessCameraDistance@@@std@@QAE?A_TAAPAVCInstanceBase@@0@Z ; std::_Ref_fn<CInstanceBase_SLessCameraDistance>::operator()<CInstanceBase * &,CInstanceBase * &>
PUBLIC	??$_Insertion_sort_unchecked@PAPAVCInstanceBase@@U?$_Ref_fn@UCInstanceBase_SLessCameraDistance@@@std@@@std@@YAPAPAVCInstanceBase@@QAPAV1@0U?$_Ref_fn@UCInstanceBase_SLessCameraDistance@@@0@@Z ; std::_Insertion_sort_unchecked<CInstanceBase * *,std::_Ref_fn<CInstanceBase_SLessCameraDistance> >
PUBLIC	??$forward@V?$_Tree_iterator@V?$_Tree_val@U?$_Tree_simple_types@U?$pair@$$CBKPAVCInstanceBase@@@std@@@std@@@std@@@std@@@std@@YA$$QAV?$_Tree_iterator@V?$_Tree_val@U?$_Tree_simple_types@U?$pair@$$CBKPAVCInstanceBase@@@std@@@std@@@std@@@0@AAV10@@Z ; std::forward<std::_Tree_iterator<std::_Tree_val<std::_Tree_simple_types<std::pair<unsigned long const ,CInstanceBase *> > > > >
PUBLIC	??$?0PAU?$_Tree_node@U?$pair@$$CBKPAVCInstanceBase@@@std@@PAX@std@@_N$0A@@?$pair@PAU?$_Tree_node@U?$pair@$$CBKPAVCInstanceBase@@@std@@PAX@std@@_N@std@@QAE@$$QAPAU?$_Tree_node@U?$pair@$$CBKPAVCInstanceBase@@@std@@PAX@1@$$QA_N@Z ; std::pair<std::_Tree_node<std::pair<unsigned long const ,CInstanceBase *>,void *> *,bool>::pair<std::_Tree_node<std::pair<unsigned long const ,CInstanceBase *>,void *> *,bool><std::_Tree_node<std::pair<unsigned long const ,CInstanceBase *>,void *> *,bool,0>
PUBLIC	??$?0AAPAU?$_Tree_node@U?$pair@$$CBKPAVCInstanceBase@@@std@@PAX@std@@_N$0A@@?$pair@PAU?$_Tree_node@U?$pair@$$CBKPAVCInstanceBase@@@std@@PAX@std@@_N@std@@QAE@AAPAU?$_Tree_node@U?$pair@$$CBKPAVCInstanceBase@@@std@@PAX@1@$$QA_N@Z ; std::pair<std::_Tree_node<std::pair<unsigned long const ,CInstanceBase *>,void *> *,bool>::pair<std::_Tree_node<std::pair<unsigned long const ,CInstanceBase *>,void *> *,bool><std::_Tree_node<std::pair<unsigned long const ,CInstanceBase *>,void *> * &,bool,0>
PUBLIC	??$?0U?$pair@$$CBKPAVCInstanceBase@@@std@@@?$_Tree_temp_node@V?$allocator@U?$_Tree_node@U?$pair@$$CBKPAVCInstanceBase@@@std@@PAX@std@@@std@@@std@@QAE@AAV?$allocator@U?$_Tree_node@U?$pair@$$CBKPAVCInstanceBase@@@std@@PAX@std@@@1@PAU?$_Tree_node@U?$pair@$$CBKPAVCInstanceBase@@@std@@PAX@1@$$QAU?$pair@$$CBKPAVCInstanceBase@@@1@@Z ; std::_Tree_temp_node<std::allocator<std::_Tree_node<std::pair<unsigned long const ,CInstanceBase *>,void *> > >::_Tree_temp_node<std::allocator<std::_Tree_node<std::pair<unsigned long const ,CInstanceBase *>,void *> > ><std::pair<unsigned long const ,CInstanceBase *> >
PUBLIC	??$forward@U?$pair@$$CBKPAVCInstanceBase@@@std@@@std@@YA$$QAU?$pair@$$CBKPAVCInstanceBase@@@0@AAU10@@Z ; std::forward<std::pair<unsigned long const ,CInstanceBase *> >
PUBLIC	??$_Lower_bound_duplicate@K@?$_Tree@V?$_Tmap_traits@KPAVCInstanceBase@@U?$less@K@std@@V?$allocator@U?$pair@$$CBKPAVCInstanceBase@@@std@@@3@$0A@@std@@@std@@IBE_NQAU?$_Tree_node@U?$pair@$$CBKPAVCInstanceBase@@@std@@PAX@1@ABK@Z ; std::_Tree<std::_Tmap_traits<unsigned long,CInstanceBase *,std::less<unsigned long>,std::allocator<std::pair<unsigned long const ,CInstanceBase *> >,0> >::_Lower_bound_duplicate<unsigned long>
PUBLIC	??$_Find_lower_bound@K@?$_Tree@V?$_Tmap_traits@KPAVCInstanceBase@@U?$less@K@std@@V?$allocator@U?$pair@$$CBKPAVCInstanceBase@@@std@@@3@$0A@@std@@@std@@IBE?AU?$_Tree_find_result@PAU?$_Tree_node@U?$pair@$$CBKPAVCInstanceBase@@@std@@PAX@std@@@1@ABK@Z ; std::_Tree<std::_Tmap_traits<unsigned long,CInstanceBase *,std::less<unsigned long>,std::allocator<std::pair<unsigned long const ,CInstanceBase *> >,0> >::_Find_lower_bound<unsigned long>
PUBLIC	??$_Partition_by_median_guess_unchecked@PAPAVCInstanceBase@@ULessCharacterInstancePtrRenderOrder@@@std@@YA?AU?$pair@PAPAVCInstanceBase@@PAPAV1@@0@PAPAVCInstanceBase@@0ULessCharacterInstancePtrRenderOrder@@@Z ; std::_Partition_by_median_guess_unchecked<CInstanceBase * *,LessCharacterInstancePtrRenderOrder>
PUBLIC	??$_Sort_heap_unchecked@PAPAVCInstanceBase@@ULessCharacterInstancePtrRenderOrder@@@std@@YAXPAPAVCInstanceBase@@0ULessCharacterInstancePtrRenderOrder@@@Z ; std::_Sort_heap_unchecked<CInstanceBase * *,LessCharacterInstancePtrRenderOrder>
PUBLIC	??$_Make_heap_unchecked@PAPAVCInstanceBase@@ULessCharacterInstancePtrRenderOrder@@@std@@YAXPAPAVCInstanceBase@@0ULessCharacterInstancePtrRenderOrder@@@Z ; std::_Make_heap_unchecked<CInstanceBase * *,LessCharacterInstancePtrRenderOrder>
PUBLIC	??$_Insertion_sort_unchecked@PAPAVCInstanceBase@@ULessCharacterInstancePtrRenderOrder@@@std@@YAPAPAVCInstanceBase@@QAPAV1@0ULessCharacterInstancePtrRenderOrder@@@Z ; std::_Insertion_sort_unchecked<CInstanceBase * *,LessCharacterInstancePtrRenderOrder>
PUBLIC	??0?$_List_unchecked_iterator@V?$_List_val@U?$_List_simple_types@PAVCInstanceBase@@@std@@@std@@@std@@QAE@PAU?$_List_node@PAVCInstanceBase@@PAX@1@PBV?$_List_val@U?$_List_simple_types@PAVCInstanceBase@@@std@@@1@@Z ; std::_List_unchecked_iterator<std::_List_val<std::_List_simple_types<CInstanceBase *> > >::_List_unchecked_iterator<std::_List_val<std::_List_simple_types<CInstanceBase *> > >
PUBLIC	?_Make_iter@?$list@PAVCInstanceBase@@V?$allocator@PAVCInstanceBase@@@std@@@std@@QBE?AV?$_List_iterator@V?$_List_val@U?$_List_simple_types@PAVCInstanceBase@@@std@@@std@@@2@PAU?$_List_node@PAVCInstanceBase@@PAX@2@@Z ; std::list<CInstanceBase *,std::allocator<CInstanceBase *> >::_Make_iter
PUBLIC	?_Tidy@?$list@PAVCInstanceBase@@V?$allocator@PAVCInstanceBase@@@std@@@std@@AAEXXZ ; std::list<CInstanceBase *,std::allocator<CInstanceBase *> >::_Tidy
PUBLIC	?_Alloc_sentinel_and_proxy@?$list@PAVCInstanceBase@@V?$allocator@PAVCInstanceBase@@@std@@@std@@AAEXXZ ; std::list<CInstanceBase *,std::allocator<CInstanceBase *> >::_Alloc_sentinel_and_proxy
PUBLIC	?_Getal@?$list@PAVCInstanceBase@@V?$allocator@PAVCInstanceBase@@@std@@@std@@AAEAAV?$allocator@U?$_List_node@PAVCInstanceBase@@PAX@std@@@2@XZ ; std::list<CInstanceBase *,std::allocator<CInstanceBase *> >::_Getal
PUBLIC	??0?$_Tree@V?$_Tmap_traits@KPAVCInstanceBase@@U?$less@K@std@@V?$allocator@U?$pair@$$CBKPAVCInstanceBase@@@std@@@3@$0A@@std@@@std@@QAE@ABU?$less@K@1@@Z ; std::_Tree<std::_Tmap_traits<unsigned long,CInstanceBase *,std::less<unsigned long>,std::allocator<std::pair<unsigned long const ,CInstanceBase *> >,0> >::_Tree<std::_Tmap_traits<unsigned long,CInstanceBase *,std::less<unsigned long>,std::allocator<std::pair<unsigned long const ,CInstanceBase *> >,0> >
PUBLIC	?_Erase_unchecked@?$_Tree@V?$_Tmap_traits@KPAVCInstanceBase@@U?$less@K@std@@V?$allocator@U?$pair@$$CBKPAVCInstanceBase@@@std@@@3@$0A@@std@@@std@@AAEPAU?$_Tree_node@U?$pair@$$CBKPAVCInstanceBase@@@std@@PAX@2@V?$_Tree_unchecked_const_iterator@V?$_Tree_val@U?$_Tree_simple_types@U?$pair@$$CBKPAVCInstanceBase@@@std@@@std@@@std@@U_Iterator_base0@2@@2@@Z ; std::_Tree<std::_Tmap_traits<unsigned long,CInstanceBase *,std::less<unsigned long>,std::allocator<std::pair<unsigned long const ,CInstanceBase *> >,0> >::_Erase_unchecked
PUBLIC	?_Getal@?$_Tree@V?$_Tmap_traits@KPAVCInstanceBase@@U?$less@K@std@@V?$allocator@U?$pair@$$CBKPAVCInstanceBase@@@std@@@3@$0A@@std@@@std@@IAEAAV?$allocator@U?$_Tree_node@U?$pair@$$CBKPAVCInstanceBase@@@std@@PAX@std@@@2@XZ ; std::_Tree<std::_Tmap_traits<unsigned long,CInstanceBase *,std::less<unsigned long>,std::allocator<std::pair<unsigned long const ,CInstanceBase *> >,0> >::_Getal
PUBLIC	?_Get_scary@?$_Tree@V?$_Tmap_traits@KPAVCInstanceBase@@U?$less@K@std@@V?$allocator@U?$pair@$$CBKPAVCInstanceBase@@@std@@@3@$0A@@std@@@std@@IBEPBV?$_Tree_val@U?$_Tree_simple_types@U?$pair@$$CBKPAVCInstanceBase@@@std@@@std@@@2@XZ ; std::_Tree<std::_Tmap_traits<unsigned long,CInstanceBase *,std::less<unsigned long>,std::allocator<std::pair<unsigned long const ,CInstanceBase *> >,0> >::_Get_scary
PUBLIC	?_Orphan_ptr@?$_Tree_val@U?$_Tree_simple_types@U?$pair@$$CBKPAVCInstanceBase@@@std@@@std@@@std@@QAEXQAU?$_Tree_node@U?$pair@$$CBKPAVCInstanceBase@@@std@@PAX@2@@Z ; std::_Tree_val<std::_Tree_simple_types<std::pair<unsigned long const ,CInstanceBase *> > >::_Orphan_ptr
PUBLIC	?_Unwrapped@?$_Tree_iterator@V?$_Tree_val@U?$_Tree_simple_types@U?$pair@$$CBKPAVCInstanceBase@@@std@@@std@@@std@@@std@@QBE?AV?$_Tree_unchecked_iterator@V?$_Tree_val@U?$_Tree_simple_types@U?$pair@$$CBKPAVCInstanceBase@@@std@@@std@@@std@@@2@XZ ; std::_Tree_iterator<std::_Tree_val<std::_Tree_simple_types<std::pair<unsigned long const ,CInstanceBase *> > > >::_Unwrapped
PUBLIC	??D?$_Tree_unchecked_const_iterator@V?$_Tree_val@U?$_Tree_simple_types@U?$pair@$$CBKPAVCInstanceBase@@@std@@@std@@@std@@U_Iterator_base0@2@@std@@QBEABU?$pair@$$CBKPAVCInstanceBase@@@1@XZ ; std::_Tree_unchecked_const_iterator<std::_Tree_val<std::_Tree_simple_types<std::pair<unsigned long const ,CInstanceBase *> > >,std::_Iterator_base0>::operator*
PUBLIC	??8?$_Tree_unchecked_const_iterator@V?$_Tree_val@U?$_Tree_simple_types@U?$pair@$$CBKPAVCInstanceBase@@@std@@@std@@@std@@U_Iterator_base0@2@@std@@QBE_NABV01@@Z ; std::_Tree_unchecked_const_iterator<std::_Tree_val<std::_Tree_simple_types<std::pair<unsigned long const ,CInstanceBase *> > >,std::_Iterator_base0>::operator==
PUBLIC	?_Orphan_non_end@?$_List_val@U?$_List_simple_types@PAVCInstanceBase@@@std@@@std@@QAEXXZ ; std::_List_val<std::_List_simple_types<CInstanceBase *> >::_Orphan_non_end
PUBLIC	?_Unlinknode@?$_List_val@U?$_List_simple_types@PAVCInstanceBase@@@std@@@std@@QAEPAU?$_List_node@PAVCInstanceBase@@PAX@2@PAU32@@Z ; std::_List_val<std::_List_simple_types<CInstanceBase *> >::_Unlinknode
PUBLIC	?_Unwrapped@?$_List_iterator@V?$_List_val@U?$_List_simple_types@PAVCInstanceBase@@@std@@@std@@@std@@QBE?AV?$_List_unchecked_iterator@V?$_List_val@U?$_List_simple_types@PAVCInstanceBase@@@std@@@std@@@2@XZ ; std::_List_iterator<std::_List_val<std::_List_simple_types<CInstanceBase *> > >::_Unwrapped
PUBLIC	??D?$_List_const_iterator@V?$_List_val@U?$_List_simple_types@PAVCInstanceBase@@@std@@@std@@@std@@QBEABQAVCInstanceBase@@XZ ; std::_List_const_iterator<std::_List_val<std::_List_simple_types<CInstanceBase *> > >::operator*
PUBLIC	??E?$_List_const_iterator@V?$_List_val@U?$_List_simple_types@PAVCInstanceBase@@@std@@@std@@@std@@QAEAAV01@XZ ; std::_List_const_iterator<std::_List_val<std::_List_simple_types<CInstanceBase *> > >::operator++
PUBLIC	??D?$_List_unchecked_iterator@V?$_List_val@U?$_List_simple_types@PAVCInstanceBase@@@std@@@std@@@std@@QBEAAPAVCInstanceBase@@XZ ; std::_List_unchecked_iterator<std::_List_val<std::_List_simple_types<CInstanceBase *> > >::operator*
PUBLIC	??E?$_List_unchecked_iterator@V?$_List_val@U?$_List_simple_types@PAVCInstanceBase@@@std@@@std@@@std@@QAEAAV01@XZ ; std::_List_unchecked_iterator<std::_List_val<std::_List_simple_types<CInstanceBase *> > >::operator++
PUBLIC	??0?$_List_unchecked_const_iterator@V?$_List_val@U?$_List_simple_types@PAVCInstanceBase@@@std@@@std@@U_Iterator_base0@2@@std@@QAE@PAU?$_List_node@PAVCInstanceBase@@PAX@1@PBV?$_List_val@U?$_List_simple_types@PAVCInstanceBase@@@std@@@1@@Z ; std::_List_unchecked_const_iterator<std::_List_val<std::_List_simple_types<CInstanceBase *> >,std::_Iterator_base0>::_List_unchecked_const_iterator<std::_List_val<std::_List_simple_types<CInstanceBase *> >,std::_Iterator_base0>
PUBLIC	??8?$_List_unchecked_const_iterator@V?$_List_val@U?$_List_simple_types@PAVCInstanceBase@@@std@@@std@@U_Iterator_base0@2@@std@@QBE_NABV01@@Z ; std::_List_unchecked_const_iterator<std::_List_val<std::_List_simple_types<CInstanceBase *> >,std::_Iterator_base0>::operator==
PUBLIC	?_Unwrapped@?$_Vector_iterator@V?$_Vector_val@U?$_Simple_types@PAVCInstanceBase@@@std@@@std@@@std@@QBEPAPAVCInstanceBase@@XZ ; std::_Vector_iterator<std::_Vector_val<std::_Simple_types<CInstanceBase *> > >::_Unwrapped
PUBLIC	??0?$_Vector_const_iterator@V?$_Vector_val@U?$_Simple_types@PAVCInstanceBase@@@std@@@std@@@std@@QAE@PAPAVCInstanceBase@@PBU_Container_base0@1@@Z ; std::_Vector_const_iterator<std::_Vector_val<std::_Simple_types<CInstanceBase *> > >::_Vector_const_iterator<std::_Vector_val<std::_Simple_types<CInstanceBase *> > >
PUBLIC	??D?$_Vector_const_iterator@V?$_Vector_val@U?$_Simple_types@PAVCInstanceBase@@@std@@@std@@@std@@QBEABQAVCInstanceBase@@XZ ; std::_Vector_const_iterator<std::_Vector_val<std::_Simple_types<CInstanceBase *> > >::operator*
PUBLIC	??E?$_Vector_const_iterator@V?$_Vector_val@U?$_Simple_types@PAVCInstanceBase@@@std@@@std@@@std@@QAEAAV01@XZ ; std::_Vector_const_iterator<std::_Vector_val<std::_Simple_types<CInstanceBase *> > >::operator++
PUBLIC	?_Compat@?$_Vector_const_iterator@V?$_Vector_val@U?$_Simple_types@PAVCInstanceBase@@@std@@@std@@@std@@QBEXABV12@@Z ; std::_Vector_const_iterator<std::_Vector_val<std::_Simple_types<CInstanceBase *> > >::_Compat
PUBLIC	?_Tidy@?$vector@U?$pair@PAVCInstanceBase@@M@std@@V?$allocator@U?$pair@PAVCInstanceBase@@M@std@@@2@@std@@AAEXXZ ; std::vector<std::pair<CInstanceBase *,float>,std::allocator<std::pair<CInstanceBase *,float> > >::_Tidy
PUBLIC	??0?$_Vector_const_iterator@V?$_Vector_val@U?$_Simple_types@U?$pair@PAVCInstanceBase@@M@std@@@std@@@std@@@std@@QAE@PAU?$pair@PAVCInstanceBase@@M@1@PBU_Container_base0@1@@Z ; std::_Vector_const_iterator<std::_Vector_val<std::_Simple_types<std::pair<CInstanceBase *,float> > > >::_Vector_const_iterator<std::_Vector_val<std::_Simple_types<std::pair<CInstanceBase *,float> > > >
PUBLIC	??$addressof@V?$_Vector_val@U?$_Simple_types@PAVCInstanceBase@@@std@@@std@@@std@@YAPAV?$_Vector_val@U?$_Simple_types@PAVCInstanceBase@@@std@@@0@AAV10@@Z ; std::addressof<std::_Vector_val<std::_Simple_types<CInstanceBase *> > >
PUBLIC	??$?0$$V@?$_Compressed_pair@V?$allocator@U?$_List_node@PAVCInstanceBase@@PAX@std@@@std@@V?$_List_val@U?$_List_simple_types@PAVCInstanceBase@@@std@@@2@$00@std@@QAE@U_Zero_then_variadic_args_t@1@@Z ; std::_Compressed_pair<std::allocator<std::_List_node<CInstanceBase *,void *> >,std::_List_val<std::_List_simple_types<CInstanceBase *> >,1>::_Compressed_pair<std::allocator<std::_List_node<CInstanceBase *,void *> >,std::_List_val<std::_List_simple_types<CInstanceBase *> >,1><>
PUBLIC	??$addressof@V?$_List_val@U?$_List_simple_types@PAVCInstanceBase@@@std@@@std@@@std@@YAPAV?$_List_val@U?$_List_simple_types@PAVCInstanceBase@@@std@@@0@AAV10@@Z ; std::addressof<std::_List_val<std::_List_simple_types<CInstanceBase *> > >
PUBLIC	??$_Emplace@ABQAVCInstanceBase@@@?$list@PAVCInstanceBase@@V?$allocator@PAVCInstanceBase@@@std@@@std@@QAEPAU?$_List_node@PAVCInstanceBase@@PAX@1@QAU21@ABQAVCInstanceBase@@@Z ; std::list<CInstanceBase *,std::allocator<CInstanceBase *> >::_Emplace<CInstanceBase * const &>
PUBLIC	??$_Freenode@V?$allocator@U?$_List_node@PAVCInstanceBase@@PAX@std@@@std@@@?$_List_node@PAVCInstanceBase@@PAX@std@@SAXAAV?$allocator@U?$_List_node@PAVCInstanceBase@@PAX@std@@@1@PAU01@@Z ; std::_List_node<CInstanceBase *,void *>::_Freenode<std::allocator<std::_List_node<CInstanceBase *,void *> > >
PUBLIC	??$_Free_non_head@V?$allocator@U?$_List_node@PAVCInstanceBase@@PAX@std@@@std@@@?$_List_node@PAVCInstanceBase@@PAX@std@@SAXAAV?$allocator@U?$_List_node@PAVCInstanceBase@@PAX@std@@@1@PAU01@@Z ; std::_List_node<CInstanceBase *,void *>::_Free_non_head<std::allocator<std::_List_node<CInstanceBase *,void *> > >
PUBLIC	??$_Erase_head@V?$allocator@U?$_Tree_node@U?$pair@$$CBKPAVCInstanceBase@@@std@@PAX@std@@@std@@@?$_Tree_val@U?$_Tree_simple_types@U?$pair@$$CBKPAVCInstanceBase@@@std@@@std@@@std@@QAEXAAV?$allocator@U?$_Tree_node@U?$pair@$$CBKPAVCInstanceBase@@@std@@PAX@std@@@1@@Z ; std::_Tree_val<std::_Tree_simple_types<std::pair<unsigned long const ,CInstanceBase *> > >::_Erase_head<std::allocator<std::_Tree_node<std::pair<unsigned long const ,CInstanceBase *>,void *> > >
PUBLIC	??$_Erase_tree@V?$allocator@U?$_Tree_node@U?$pair@$$CBKPAVCInstanceBase@@@std@@PAX@std@@@std@@@?$_Tree_val@U?$_Tree_simple_types@U?$pair@$$CBKPAVCInstanceBase@@@std@@@std@@@std@@QAEXAAV?$allocator@U?$_Tree_node@U?$pair@$$CBKPAVCInstanceBase@@@std@@PAX@std@@@1@PAU?$_Tree_node@U?$pair@$$CBKPAVCInstanceBase@@@std@@PAX@1@@Z ; std::_Tree_val<std::_Tree_simple_types<std::pair<unsigned long const ,CInstanceBase *> > >::_Erase_tree<std::allocator<std::_Tree_node<std::pair<unsigned long const ,CInstanceBase *>,void *> > >
PUBLIC	??$_Find@K@?$_Tree@V?$_Tmap_traits@KPAVCInstanceBase@@U?$less@K@std@@V?$allocator@U?$pair@$$CBKPAVCInstanceBase@@@std@@@3@$0A@@std@@@std@@ABEPAU?$_Tree_node@U?$pair@$$CBKPAVCInstanceBase@@@std@@PAX@1@ABK@Z ; std::_Tree<std::_Tmap_traits<unsigned long,CInstanceBase *,std::less<unsigned long>,std::allocator<std::pair<unsigned long const ,CInstanceBase *> >,0> >::_Find<unsigned long>
PUBLIC	??$?0$$V@?$_Compressed_pair@V?$allocator@U?$pair@PAVCInstanceBase@@M@std@@@std@@V?$_Vector_val@U?$_Simple_types@U?$pair@PAVCInstanceBase@@M@std@@@std@@@2@$00@std@@QAE@U_Zero_then_variadic_args_t@1@@Z ; std::_Compressed_pair<std::allocator<std::pair<CInstanceBase *,float> >,std::_Vector_val<std::_Simple_types<std::pair<CInstanceBase *,float> > >,1>::_Compressed_pair<std::allocator<std::pair<CInstanceBase *,float> >,std::_Vector_val<std::_Simple_types<std::pair<CInstanceBase *,float> > >,1><>
PUBLIC	??$addressof@V?$_Vector_val@U?$_Simple_types@U?$pair@PAVCInstanceBase@@M@std@@@std@@@std@@@std@@YAPAV?$_Vector_val@U?$_Simple_types@U?$pair@PAVCInstanceBase@@M@std@@@std@@@0@AAV10@@Z ; std::addressof<std::_Vector_val<std::_Simple_types<std::pair<CInstanceBase *,float> > > >
PUBLIC	??$_Sort_unchecked@PAU?$pair@PAVCInstanceBase@@M@std@@P6A_NABU12@0@Z@std@@YAXPAU?$pair@PAVCInstanceBase@@M@0@0HP6A_NABU10@1@Z@Z ; std::_Sort_unchecked<std::pair<CInstanceBase *,float> *,bool (__cdecl*)(std::pair<CInstanceBase *,float> const &,std::pair<CInstanceBase *,float> const &)>
PUBLIC	??$_Unfancy_maybe_null@U?$pair@PAVCInstanceBase@@M@std@@@std@@YAPAU?$pair@PAVCInstanceBase@@M@0@PAU10@@Z ; std::_Unfancy_maybe_null<std::pair<CInstanceBase *,float> >
PUBLIC	??$_Adl_verify_range@V?$_Vector_iterator@V?$_Vector_val@U?$_Simple_types@U?$pair@PAVCInstanceBase@@M@std@@@std@@@std@@@std@@V12@@std@@YAXABV?$_Vector_iterator@V?$_Vector_val@U?$_Simple_types@U?$pair@PAVCInstanceBase@@M@std@@@std@@@std@@@0@0@Z ; std::_Adl_verify_range<std::_Vector_iterator<std::_Vector_val<std::_Simple_types<std::pair<CInstanceBase *,float> > > >,std::_Vector_iterator<std::_Vector_val<std::_Simple_types<std::pair<CInstanceBase *,float> > > > >
PUBLIC	??$_Emplace_one_at_back@AAPAVCInstanceBase@@ABM@?$vector@U?$pair@PAVCInstanceBase@@M@std@@V?$allocator@U?$pair@PAVCInstanceBase@@M@std@@@2@@std@@AAEAAU?$pair@PAVCInstanceBase@@M@1@AAPAVCInstanceBase@@ABM@Z ; std::vector<std::pair<CInstanceBase *,float>,std::allocator<std::pair<CInstanceBase *,float> > >::_Emplace_one_at_back<CInstanceBase * &,float const &>
PUBLIC	??$forward@ABM@std@@YAABMABM@Z			; std::forward<float const &>
PUBLIC	??$_Emplace_one_at_back@AAPAVCInstanceBase@@@?$vector@PAVCInstanceBase@@V?$allocator@PAVCInstanceBase@@@std@@@std@@AAEAAPAVCInstanceBase@@AAPAV2@@Z ; std::vector<CInstanceBase *,std::allocator<CInstanceBase *> >::_Emplace_one_at_back<CInstanceBase * &>
PUBLIC	??$_Seek_wrapped@V?$_Vector_iterator@V?$_Vector_val@U?$_Simple_types@PAVCInstanceBase@@@std@@@std@@@std@@PAPAVCInstanceBase@@@std@@YAXAAV?$_Vector_iterator@V?$_Vector_val@U?$_Simple_types@PAVCInstanceBase@@@std@@@std@@@0@$$QAPAPAVCInstanceBase@@@Z ; std::_Seek_wrapped<std::_Vector_iterator<std::_Vector_val<std::_Simple_types<CInstanceBase *> > >,CInstanceBase * *>
PUBLIC	??$_Find_unchecked@PAPAVCInstanceBase@@PAV1@@std@@YAPAPAVCInstanceBase@@PAPAV1@QAPAV1@ABQAV1@@Z ; std::_Find_unchecked<CInstanceBase * *,CInstanceBase *>
PUBLIC	??$_Sort_unchecked@PAPAVCInstanceBase@@U?$_Ref_fn@UCInstanceBase_SLessCameraDistance@@@std@@@std@@YAXPAPAVCInstanceBase@@0HU?$_Ref_fn@UCInstanceBase_SLessCameraDistance@@@0@@Z ; std::_Sort_unchecked<CInstanceBase * *,std::_Ref_fn<CInstanceBase_SLessCameraDistance> >
PUBLIC	??$?0V?$_Tree_iterator@V?$_Tree_val@U?$_Tree_simple_types@U?$pair@$$CBKPAVCInstanceBase@@@std@@@std@@@std@@@std@@AB_N$0A@@?$pair@V?$_Tree_iterator@V?$_Tree_val@U?$_Tree_simple_types@U?$pair@$$CBKPAVCInstanceBase@@@std@@@std@@@std@@@std@@_N@std@@QAE@$$QAV?$_Tree_iterator@V?$_Tree_val@U?$_Tree_simple_types@U?$pair@$$CBKPAVCInstanceBase@@@std@@@std@@@std@@@1@AB_N@Z ; std::pair<std::_Tree_iterator<std::_Tree_val<std::_Tree_simple_types<std::pair<unsigned long const ,CInstanceBase *> > > >,bool>::pair<std::_Tree_iterator<std::_Tree_val<std::_Tree_simple_types<std::pair<unsigned long const ,CInstanceBase *> > > >,bool><std::_Tree_iterator<std::_Tree_val<std::_Tree_simple_types<std::pair<unsigned long const ,CInstanceBase *> > > >,bool const &,0>
PUBLIC	??$_Emplace@U?$pair@$$CBKPAVCInstanceBase@@@std@@@?$_Tree@V?$_Tmap_traits@KPAVCInstanceBase@@U?$less@K@std@@V?$allocator@U?$pair@$$CBKPAVCInstanceBase@@@std@@@3@$0A@@std@@@std@@IAE?AU?$pair@PAU?$_Tree_node@U?$pair@$$CBKPAVCInstanceBase@@@std@@PAX@std@@_N@1@$$QAU?$pair@$$CBKPAVCInstanceBase@@@1@@Z ; std::_Tree<std::_Tmap_traits<unsigned long,CInstanceBase *,std::less<unsigned long>,std::allocator<std::pair<unsigned long const ,CInstanceBase *> >,0> >::_Emplace<std::pair<unsigned long const ,CInstanceBase *> >
PUBLIC	??$move@AAU?$pair@$$CBKPAVCInstanceBase@@@std@@@std@@YA$$QAU?$pair@$$CBKPAVCInstanceBase@@@0@AAU10@@Z ; std::move<std::pair<unsigned long const ,CInstanceBase *> &>
PUBLIC	??$_Sort_unchecked@PAPAVCInstanceBase@@ULessCharacterInstancePtrRenderOrder@@@std@@YAXPAPAVCInstanceBase@@0HULessCharacterInstancePtrRenderOrder@@@Z ; std::_Sort_unchecked<CInstanceBase * *,LessCharacterInstancePtrRenderOrder>
PUBLIC	??$_Adl_verify_range@V?$_Vector_iterator@V?$_Vector_val@U?$_Simple_types@PAVCInstanceBase@@@std@@@std@@@std@@V12@@std@@YAXABV?$_Vector_iterator@V?$_Vector_val@U?$_Simple_types@PAVCInstanceBase@@@std@@@std@@@0@0@Z ; std::_Adl_verify_range<std::_Vector_iterator<std::_Vector_val<std::_Simple_types<CInstanceBase *> > >,std::_Vector_iterator<std::_Vector_val<std::_Simple_types<CInstanceBase *> > > >
PUBLIC	??$_Adl_verify_range@V?$_List_iterator@V?$_List_val@U?$_List_simple_types@PAVCInstanceBase@@@std@@@std@@@std@@V12@@std@@YAXABV?$_List_iterator@V?$_List_val@U?$_List_simple_types@PAVCInstanceBase@@@std@@@std@@@0@0@Z ; std::_Adl_verify_range<std::_List_iterator<std::_List_val<std::_List_simple_types<CInstanceBase *> > >,std::_List_iterator<std::_List_val<std::_List_simple_types<CInstanceBase *> > > >
PUBLIC	??$?0$$CBKPAVCInstanceBase@@$0A@@?$pair@KPAVCInstanceBase@@@std@@QAE@ABU?$pair@$$CBKPAVCInstanceBase@@@1@@Z ; std::pair<unsigned long,CInstanceBase *>::pair<unsigned long,CInstanceBase *><unsigned long const ,CInstanceBase *,0>
PUBLIC	??$_Adl_verify_range@V?$_Tree_iterator@V?$_Tree_val@U?$_Tree_simple_types@U?$pair@$$CBKPAVCInstanceBase@@@std@@@std@@@std@@@std@@V12@@std@@YAXABV?$_Tree_iterator@V?$_Tree_val@U?$_Tree_simple_types@U?$pair@$$CBKPAVCInstanceBase@@@std@@@std@@@std@@@0@0@Z ; std::_Adl_verify_range<std::_Tree_iterator<std::_Tree_val<std::_Tree_simple_types<std::pair<unsigned long const ,CInstanceBase *> > > >,std::_Tree_iterator<std::_Tree_val<std::_Tree_simple_types<std::pair<unsigned long const ,CInstanceBase *> > > > >
PUBLIC	??0?$_List_const_iterator@V?$_List_val@U?$_List_simple_types@PAVCInstanceBase@@@std@@@std@@@std@@QAE@PAU?$_List_node@PAVCInstanceBase@@PAX@1@PBV?$_List_val@U?$_List_simple_types@PAVCInstanceBase@@@std@@@1@@Z ; std::_List_const_iterator<std::_List_val<std::_List_simple_types<CInstanceBase *> > >::_List_const_iterator<std::_List_val<std::_List_simple_types<CInstanceBase *> > >
PUBLIC	??_G?$TAbstractSingleton@VIAbstractCharacterManager@@@@UAEPAXI@Z ; TAbstractSingleton<IAbstractCharacterManager>::`scalar deleting destructor'
PUBLIC	??_G?$CSingleton@VCPythonCharacterManager@@@@UAEPAXI@Z ; CSingleton<CPythonCharacterManager>::`scalar deleting destructor'
PUBLIC	??0?$_List_iterator@V?$_List_val@U?$_List_simple_types@PAVCInstanceBase@@@std@@@std@@@std@@QAE@PAU?$_List_node@PAVCInstanceBase@@PAX@1@PBV?$_List_val@U?$_List_simple_types@PAVCInstanceBase@@@std@@@1@@Z ; std::_List_iterator<std::_List_val<std::_List_simple_types<CInstanceBase *> > >::_List_iterator<std::_List_val<std::_List_simple_types<CInstanceBase *> > >
PUBLIC	??0?$_Tree_unchecked_iterator@V?$_Tree_val@U?$_Tree_simple_types@U?$pair@$$CBKPAVCInstanceBase@@@std@@@std@@@std@@@std@@QAE@PAU?$_Tree_node@U?$pair@$$CBKPAVCInstanceBase@@@std@@PAX@1@PBV?$_Tree_val@U?$_Tree_simple_types@U?$pair@$$CBKPAVCInstanceBase@@@std@@@std@@@1@@Z ; std::_Tree_unchecked_iterator<std::_Tree_val<std::_Tree_simple_types<std::pair<unsigned long const ,CInstanceBase *> > > >::_Tree_unchecked_iterator<std::_Tree_val<std::_Tree_simple_types<std::pair<unsigned long const ,CInstanceBase *> > > >
PUBLIC	?Instance@?$CSingleton@VCPythonGraphic@@@@SAAAVCPythonGraphic@@XZ ; CSingleton<CPythonGraphic>::Instance
PUBLIC	??0?$TAbstractSingleton@VIAbstractCharacterManager@@@@QAE@XZ ; TAbstractSingleton<IAbstractCharacterManager>::TAbstractSingleton<IAbstractCharacterManager>
PUBLIC	??1?$TAbstractSingleton@VIAbstractCharacterManager@@@@UAE@XZ ; TAbstractSingleton<IAbstractCharacterManager>::~TAbstractSingleton<IAbstractCharacterManager>
PUBLIC	?begin@?$vector@PAVCInstanceBase@@V?$allocator@PAVCInstanceBase@@@std@@@std@@QAE?AV?$_Vector_iterator@V?$_Vector_val@U?$_Simple_types@PAVCInstanceBase@@@std@@@std@@@2@XZ ; std::vector<CInstanceBase *,std::allocator<CInstanceBase *> >::begin
PUBLIC	??0?$_Vector_iterator@V?$_Vector_val@U?$_Simple_types@PAVCInstanceBase@@@std@@@std@@@std@@QAE@PAPAVCInstanceBase@@PBU_Container_base0@1@@Z ; std::_Vector_iterator<std::_Vector_val<std::_Simple_types<CInstanceBase *> > >::_Vector_iterator<std::_Vector_val<std::_Simple_types<CInstanceBase *> > >
PUBLIC	?end@?$vector@PAVCInstanceBase@@V?$allocator@PAVCInstanceBase@@@std@@@std@@QAE?AV?$_Vector_iterator@V?$_Vector_val@U?$_Simple_types@PAVCInstanceBase@@@std@@@std@@@2@XZ ; std::vector<CInstanceBase *,std::allocator<CInstanceBase *> >::end
PUBLIC	??0?$CSingleton@VCPythonCharacterManager@@@@QAE@XZ ; CSingleton<CPythonCharacterManager>::CSingleton<CPythonCharacterManager>
PUBLIC	??1?$CSingleton@VCPythonCharacterManager@@@@UAE@XZ ; CSingleton<CPythonCharacterManager>::~CSingleton<CPythonCharacterManager>
PUBLIC	??0?$list@PAVCInstanceBase@@V?$allocator@PAVCInstanceBase@@@std@@@std@@QAE@XZ ; std::list<CInstanceBase *,std::allocator<CInstanceBase *> >::list<CInstanceBase *,std::allocator<CInstanceBase *> >
PUBLIC	??1?$list@PAVCInstanceBase@@V?$allocator@PAVCInstanceBase@@@std@@@std@@QAE@XZ ; std::list<CInstanceBase *,std::allocator<CInstanceBase *> >::~list<CInstanceBase *,std::allocator<CInstanceBase *> >
PUBLIC	?begin@?$list@PAVCInstanceBase@@V?$allocator@PAVCInstanceBase@@@std@@@std@@QAE?AV?$_List_iterator@V?$_List_val@U?$_List_simple_types@PAVCInstanceBase@@@std@@@std@@@2@XZ ; std::list<CInstanceBase *,std::allocator<CInstanceBase *> >::begin
PUBLIC	?end@?$list@PAVCInstanceBase@@V?$allocator@PAVCInstanceBase@@@std@@@std@@QAE?AV?$_List_iterator@V?$_List_val@U?$_List_simple_types@PAVCInstanceBase@@@std@@@std@@@2@XZ ; std::list<CInstanceBase *,std::allocator<CInstanceBase *> >::end
PUBLIC	?size@?$list@PAVCInstanceBase@@V?$allocator@PAVCInstanceBase@@@std@@@std@@QBEIXZ ; std::list<CInstanceBase *,std::allocator<CInstanceBase *> >::size
PUBLIC	?push_back@?$list@PAVCInstanceBase@@V?$allocator@PAVCInstanceBase@@@std@@@std@@QAEXABQAVCInstanceBase@@@Z ; std::list<CInstanceBase *,std::allocator<CInstanceBase *> >::push_back
PUBLIC	?erase@?$list@PAVCInstanceBase@@V?$allocator@PAVCInstanceBase@@@std@@@std@@QAE?AV?$_List_iterator@V?$_List_val@U?$_List_simple_types@PAVCInstanceBase@@@std@@@std@@@2@V?$_List_const_iterator@V?$_List_val@U?$_List_simple_types@PAVCInstanceBase@@@std@@@std@@@2@@Z ; std::list<CInstanceBase *,std::allocator<CInstanceBase *> >::erase
PUBLIC	?clear@?$list@PAVCInstanceBase@@V?$allocator@PAVCInstanceBase@@@std@@@std@@QAEXXZ ; std::list<CInstanceBase *,std::allocator<CInstanceBase *> >::clear
PUBLIC	??0?$map@KPAVCInstanceBase@@U?$less@K@std@@V?$allocator@U?$pair@$$CBKPAVCInstanceBase@@@std@@@3@@std@@QAE@XZ ; std::map<unsigned long,CInstanceBase *,std::less<unsigned long>,std::allocator<std::pair<unsigned long const ,CInstanceBase *> > >::map<unsigned long,CInstanceBase *,std::less<unsigned long>,std::allocator<std::pair<unsigned long const ,CInstanceBase *> > >
PUBLIC	??1?$_Tree@V?$_Tmap_traits@KPAVCInstanceBase@@U?$less@K@std@@V?$allocator@U?$pair@$$CBKPAVCInstanceBase@@@std@@@3@$0A@@std@@@std@@QAE@XZ ; std::_Tree<std::_Tmap_traits<unsigned long,CInstanceBase *,std::less<unsigned long>,std::allocator<std::pair<unsigned long const ,CInstanceBase *> >,0> >::~_Tree<std::_Tmap_traits<unsigned long,CInstanceBase *,std::less<unsigned long>,std::allocator<std::pair<unsigned long const ,CInstanceBase *> >,0> >
PUBLIC	?_Unchecked_begin@?$_Tree@V?$_Tmap_traits@KPAVCInstanceBase@@U?$less@K@std@@V?$allocator@U?$pair@$$CBKPAVCInstanceBase@@@std@@@3@$0A@@std@@@std@@QAE?AV?$_Tree_unchecked_iterator@V?$_Tree_val@U?$_Tree_simple_types@U?$pair@$$CBKPAVCInstanceBase@@@std@@@std@@@std@@@2@XZ ; std::_Tree<std::_Tmap_traits<unsigned long,CInstanceBase *,std::less<unsigned long>,std::allocator<std::pair<unsigned long const ,CInstanceBase *> >,0> >::_Unchecked_begin
PUBLIC	?_Unchecked_end@?$_Tree@V?$_Tmap_traits@KPAVCInstanceBase@@U?$less@K@std@@V?$allocator@U?$pair@$$CBKPAVCInstanceBase@@@std@@@3@$0A@@std@@@std@@QBE?AU_Default_sentinel@2@XZ ; std::_Tree<std::_Tmap_traits<unsigned long,CInstanceBase *,std::less<unsigned long>,std::allocator<std::pair<unsigned long const ,CInstanceBase *> >,0> >::_Unchecked_end
PUBLIC	?size@?$_Tree@V?$_Tmap_traits@KPAVCInstanceBase@@U?$less@K@std@@V?$allocator@U?$pair@$$CBKPAVCInstanceBase@@@std@@@3@$0A@@std@@@std@@QBEIXZ ; std::_Tree<std::_Tmap_traits<unsigned long,CInstanceBase *,std::less<unsigned long>,std::allocator<std::pair<unsigned long const ,CInstanceBase *> >,0> >::size
PUBLIC	?clear@?$_Tree@V?$_Tmap_traits@KPAVCInstanceBase@@U?$less@K@std@@V?$allocator@U?$pair@$$CBKPAVCInstanceBase@@@std@@@3@$0A@@std@@@std@@QAEXXZ ; std::_Tree<std::_Tmap_traits<unsigned long,CInstanceBase *,std::less<unsigned long>,std::allocator<std::pair<unsigned long const ,CInstanceBase *> >,0> >::clear
PUBLIC	?find@?$_Tree@V?$_Tmap_traits@KPAVCInstanceBase@@U?$less@K@std@@V?$allocator@U?$pair@$$CBKPAVCInstanceBase@@@std@@@3@$0A@@std@@@std@@QAE?AV?$_Tree_iterator@V?$_Tree_val@U?$_Tree_simple_types@U?$pair@$$CBKPAVCInstanceBase@@@std@@@std@@@std@@@2@ABK@Z ; std::_Tree<std::_Tmap_traits<unsigned long,CInstanceBase *,std::less<unsigned long>,std::allocator<std::pair<unsigned long const ,CInstanceBase *> >,0> >::find
PUBLIC	??E?$_Tree_iterator@V?$_Tree_val@U?$_Tree_simple_types@U?$pair@$$CBKPAVCInstanceBase@@@std@@@std@@@std@@@std@@QAE?AV01@H@Z ; std::_Tree_iterator<std::_Tree_val<std::_Tree_simple_types<std::pair<unsigned long const ,CInstanceBase *> > > >::operator++
PUBLIC	??8?$_Tree_unchecked_const_iterator@V?$_Tree_val@U?$_Tree_simple_types@U?$pair@$$CBKPAVCInstanceBase@@@std@@@std@@@std@@U_Iterator_base0@2@@std@@QBE_NU_Default_sentinel@1@@Z ; std::_Tree_unchecked_const_iterator<std::_Tree_val<std::_Tree_simple_types<std::pair<unsigned long const ,CInstanceBase *> > >,std::_Iterator_base0>::operator==
PUBLIC	??D?$_Tree_unchecked_iterator@V?$_Tree_val@U?$_Tree_simple_types@U?$pair@$$CBKPAVCInstanceBase@@@std@@@std@@@std@@@std@@QBEAAU?$pair@$$CBKPAVCInstanceBase@@@1@XZ ; std::_Tree_unchecked_iterator<std::_Tree_val<std::_Tree_simple_types<std::pair<unsigned long const ,CInstanceBase *> > > >::operator*
PUBLIC	??E?$_Tree_unchecked_iterator@V?$_Tree_val@U?$_Tree_simple_types@U?$pair@$$CBKPAVCInstanceBase@@@std@@@std@@@std@@@std@@QAEAAV01@XZ ; std::_Tree_unchecked_iterator<std::_Tree_val<std::_Tree_simple_types<std::pair<unsigned long const ,CInstanceBase *> > > >::operator++
PUBLIC	??D?$_List_iterator@V?$_List_val@U?$_List_simple_types@PAVCInstanceBase@@@std@@@std@@@std@@QBEAAPAVCInstanceBase@@XZ ; std::_List_iterator<std::_List_val<std::_List_simple_types<CInstanceBase *> > >::operator*
PUBLIC	??E?$_List_iterator@V?$_List_val@U?$_List_simple_types@PAVCInstanceBase@@@std@@@std@@@std@@QAEAAV01@XZ ; std::_List_iterator<std::_List_val<std::_List_simple_types<CInstanceBase *> > >::operator++
PUBLIC	??8?$_List_const_iterator@V?$_List_val@U?$_List_simple_types@PAVCInstanceBase@@@std@@@std@@@std@@QBE_NABV01@@Z ; std::_List_const_iterator<std::_List_val<std::_List_simple_types<CInstanceBase *> > >::operator==
PUBLIC	??0?$_List_unchecked_const_iterator@V?$_List_val@U?$_List_simple_types@PAVCInstanceBase@@@std@@@std@@U_Iterator_base0@2@@std@@QAE@XZ ; std::_List_unchecked_const_iterator<std::_List_val<std::_List_simple_types<CInstanceBase *> >,std::_Iterator_base0>::_List_unchecked_const_iterator<std::_List_val<std::_List_simple_types<CInstanceBase *> >,std::_Iterator_base0>
PUBLIC	??D?$_Vector_iterator@V?$_Vector_val@U?$_Simple_types@PAVCInstanceBase@@@std@@@std@@@std@@QBEAAPAVCInstanceBase@@XZ ; std::_Vector_iterator<std::_Vector_val<std::_Simple_types<CInstanceBase *> > >::operator*
PUBLIC	??E?$_Vector_iterator@V?$_Vector_val@U?$_Simple_types@PAVCInstanceBase@@@std@@@std@@@std@@QAEAAV01@XZ ; std::_Vector_iterator<std::_Vector_val<std::_Simple_types<CInstanceBase *> > >::operator++
PUBLIC	??0?$_Vector_const_iterator@V?$_Vector_val@U?$_Simple_types@PAVCInstanceBase@@@std@@@std@@@std@@QAE@XZ ; std::_Vector_const_iterator<std::_Vector_val<std::_Simple_types<CInstanceBase *> > >::_Vector_const_iterator<std::_Vector_val<std::_Simple_types<CInstanceBase *> > >
PUBLIC	??8?$_Vector_const_iterator@V?$_Vector_val@U?$_Simple_types@PAVCInstanceBase@@@std@@@std@@@std@@QBE_NABV01@@Z ; std::_Vector_const_iterator<std::_Vector_val<std::_Simple_types<CInstanceBase *> > >::operator==
PUBLIC	??0?$vector@U?$pair@PAVCInstanceBase@@M@std@@V?$allocator@U?$pair@PAVCInstanceBase@@M@std@@@2@@std@@QAE@XZ ; std::vector<std::pair<CInstanceBase *,float>,std::allocator<std::pair<CInstanceBase *,float> > >::vector<std::pair<CInstanceBase *,float>,std::allocator<std::pair<CInstanceBase *,float> > >
PUBLIC	??1?$vector@U?$pair@PAVCInstanceBase@@M@std@@V?$allocator@U?$pair@PAVCInstanceBase@@M@std@@@2@@std@@QAE@XZ ; std::vector<std::pair<CInstanceBase *,float>,std::allocator<std::pair<CInstanceBase *,float> > >::~vector<std::pair<CInstanceBase *,float>,std::allocator<std::pair<CInstanceBase *,float> > >
PUBLIC	?begin@?$vector@U?$pair@PAVCInstanceBase@@M@std@@V?$allocator@U?$pair@PAVCInstanceBase@@M@std@@@2@@std@@QAE?AV?$_Vector_iterator@V?$_Vector_val@U?$_Simple_types@U?$pair@PAVCInstanceBase@@M@std@@@std@@@std@@@2@XZ ; std::vector<std::pair<CInstanceBase *,float>,std::allocator<std::pair<CInstanceBase *,float> > >::begin
PUBLIC	??0?$_Vector_iterator@V?$_Vector_val@U?$_Simple_types@U?$pair@PAVCInstanceBase@@M@std@@@std@@@std@@@std@@QAE@PAU?$pair@PAVCInstanceBase@@M@1@PBU_Container_base0@1@@Z ; std::_Vector_iterator<std::_Vector_val<std::_Simple_types<std::pair<CInstanceBase *,float> > > >::_Vector_iterator<std::_Vector_val<std::_Simple_types<std::pair<CInstanceBase *,float> > > >
PUBLIC	?end@?$vector@U?$pair@PAVCInstanceBase@@M@std@@V?$allocator@U?$pair@PAVCInstanceBase@@M@std@@@2@@std@@QAE?AV?$_Vector_iterator@V?$_Vector_val@U?$_Simple_types@U?$pair@PAVCInstanceBase@@M@std@@@std@@@std@@@2@XZ ; std::vector<std::pair<CInstanceBase *,float>,std::allocator<std::pair<CInstanceBase *,float> > >::end
PUBLIC	?size@?$vector@U?$pair@PAVCInstanceBase@@M@std@@V?$allocator@U?$pair@PAVCInstanceBase@@M@std@@@2@@std@@QBEIXZ ; std::vector<std::pair<CInstanceBase *,float>,std::allocator<std::pair<CInstanceBase *,float> > >::size
PUBLIC	??A?$vector@U?$pair@PAVCInstanceBase@@M@std@@V?$allocator@U?$pair@PAVCInstanceBase@@M@std@@@2@@std@@QAEAAU?$pair@PAVCInstanceBase@@M@1@I@Z ; std::vector<std::pair<CInstanceBase *,float>,std::allocator<std::pair<CInstanceBase *,float> > >::operator[]
PUBLIC	??$_Pass_fn@P6A_NABU?$pair@PAVCInstanceBase@@M@std@@0@Z@std@@YA?A_PAAP6A_NABU?$pair@PAVCInstanceBase@@M@0@0@Z@Z ; std::_Pass_fn<bool (__cdecl*)(std::pair<CInstanceBase *,float> const &,std::pair<CInstanceBase *,float> const &)>
PUBLIC	?_Unwrapped@?$_Vector_iterator@V?$_Vector_val@U?$_Simple_types@U?$pair@PAVCInstanceBase@@M@std@@@std@@@std@@@std@@QBEPAU?$pair@PAVCInstanceBase@@M@2@XZ ; std::_Vector_iterator<std::_Vector_val<std::_Simple_types<std::pair<CInstanceBase *,float> > > >::_Unwrapped
PUBLIC	??$_Get_unwrapped@ABV?$_Vector_iterator@V?$_Vector_val@U?$_Simple_types@U?$pair@PAVCInstanceBase@@M@std@@@std@@@std@@@std@@@std@@YA?A_TABV?$_Vector_iterator@V?$_Vector_val@U?$_Simple_types@U?$pair@PAVCInstanceBase@@M@std@@@std@@@std@@@0@@Z ; std::_Get_unwrapped<std::_Vector_iterator<std::_Vector_val<std::_Simple_types<std::pair<CInstanceBase *,float> > > > const &>
PUBLIC	??$sort@V?$_Vector_iterator@V?$_Vector_val@U?$_Simple_types@U?$pair@PAVCInstanceBase@@M@std@@@std@@@std@@@std@@P6A_NABU?$pair@PAVCInstanceBase@@M@2@0@Z@std@@YAXV?$_Vector_iterator@V?$_Vector_val@U?$_Simple_types@U?$pair@PAVCInstanceBase@@M@std@@@std@@@std@@@0@0P6A_NABU?$pair@PAVCInstanceBase@@M@0@1@Z@Z ; std::sort<std::_Vector_iterator<std::_Vector_val<std::_Simple_types<std::pair<CInstanceBase *,float> > > >,bool (__cdecl*)(std::pair<CInstanceBase *,float> const &,std::pair<CInstanceBase *,float> const &)>
PUBLIC	??$emplace_back@AAPAVCInstanceBase@@ABM@?$vector@U?$pair@PAVCInstanceBase@@M@std@@V?$allocator@U?$pair@PAVCInstanceBase@@M@std@@@2@@std@@QAEAAU?$pair@PAVCInstanceBase@@M@1@AAPAVCInstanceBase@@ABM@Z ; std::vector<std::pair<CInstanceBase *,float>,std::allocator<std::pair<CInstanceBase *,float> > >::emplace_back<CInstanceBase * &,float const &>
PUBLIC	??$emplace_back@AAPAVCInstanceBase@@@?$vector@PAVCInstanceBase@@V?$allocator@PAVCInstanceBase@@@std@@@std@@QAEAAPAVCInstanceBase@@AAPAV2@@Z ; std::vector<CInstanceBase *,std::allocator<CInstanceBase *> >::emplace_back<CInstanceBase * &>
PUBLIC	??$for_each@V?$_List_iterator@V?$_List_val@U?$_List_simple_types@PAVCInstanceBase@@@std@@@std@@@std@@P6AXPAVCInstanceBase@@@Z@std@@YAP6AXPAVCInstanceBase@@@ZV?$_List_iterator@V?$_List_val@U?$_List_simple_types@PAVCInstanceBase@@@std@@@std@@@0@1P6AX0@Z@Z ; std::for_each<std::_List_iterator<std::_List_val<std::_List_simple_types<CInstanceBase *> > >,void (__cdecl*)(CInstanceBase *)>
PUBLIC	??$find@V?$_Vector_iterator@V?$_Vector_val@U?$_Simple_types@PAVCInstanceBase@@@std@@@std@@@std@@PAVCInstanceBase@@@std@@YA?AV?$_Vector_iterator@V?$_Vector_val@U?$_Simple_types@PAVCInstanceBase@@@std@@@std@@@0@V10@V10@ABQAVCInstanceBase@@@Z ; std::find<std::_Vector_iterator<std::_Vector_val<std::_Simple_types<CInstanceBase *> > >,CInstanceBase *>
PUBLIC	??$_Pass_fn@UCInstanceBase_SLessCameraDistance@@@std@@YA?A_PAAUCInstanceBase_SLessCameraDistance@@@Z ; std::_Pass_fn<CInstanceBase_SLessCameraDistance>
PUBLIC	??$sort@V?$_Vector_iterator@V?$_Vector_val@U?$_Simple_types@PAVCInstanceBase@@@std@@@std@@@std@@UCInstanceBase_SLessCameraDistance@@@std@@YAXV?$_Vector_iterator@V?$_Vector_val@U?$_Simple_types@PAVCInstanceBase@@@std@@@std@@@0@0UCInstanceBase_SLessCameraDistance@@@Z ; std::sort<std::_Vector_iterator<std::_Vector_val<std::_Simple_types<CInstanceBase *> > >,CInstanceBase_SLessCameraDistance>
PUBLIC	??$insert@$0A@$0A@@?$_Tree@V?$_Tmap_traits@KPAVCInstanceBase@@U?$less@K@std@@V?$allocator@U?$pair@$$CBKPAVCInstanceBase@@@std@@@3@$0A@@std@@@std@@QAE?AU?$pair@V?$_Tree_iterator@V?$_Tree_val@U?$_Tree_simple_types@U?$pair@$$CBKPAVCInstanceBase@@@std@@@std@@@std@@@std@@_N@1@$$QAU?$pair@$$CBKPAVCInstanceBase@@@1@@Z ; std::_Tree<std::_Tmap_traits<unsigned long,CInstanceBase *,std::less<unsigned long>,std::allocator<std::pair<unsigned long const ,CInstanceBase *> >,0> >::insert<0,0>
PUBLIC	??$?0AAKAAPAVCInstanceBase@@$0A@@?$pair@$$CBKPAVCInstanceBase@@@std@@QAE@AAKAAPAVCInstanceBase@@@Z ; std::pair<unsigned long const ,CInstanceBase *>::pair<unsigned long const ,CInstanceBase *><unsigned long &,CInstanceBase * &,0>
PUBLIC	??$for_each@V?$_Tree_iterator@V?$_Tree_val@U?$_Tree_simple_types@U?$pair@$$CBKPAVCInstanceBase@@@std@@@std@@@std@@@std@@UFCharacterManagerCharacterInstanceRenderCollision@@@std@@YA?AUFCharacterManagerCharacterInstanceRenderCollision@@V?$_Tree_iterator@V?$_Tree_val@U?$_Tree_simple_types@U?$pair@$$CBKPAVCInstanceBase@@@std@@@std@@@std@@@0@0U1@@Z ; std::for_each<std::_Tree_iterator<std::_Tree_val<std::_Tree_simple_types<std::pair<unsigned long const ,CInstanceBase *> > > >,FCharacterManagerCharacterInstanceRenderCollision>
PUBLIC	??$for_each@V?$_Tree_iterator@V?$_Tree_val@U?$_Tree_simple_types@U?$pair@$$CBKPAVCInstanceBase@@@std@@@std@@@std@@@std@@UFCharacterManagerCharacterInstanceRenderToShadowMap@@@std@@YA?AUFCharacterManagerCharacterInstanceRenderToShadowMap@@V?$_Tree_iterator@V?$_Tree_val@U?$_Tree_simple_types@U?$pair@$$CBKPAVCInstanceBase@@@std@@@std@@@std@@@0@0U1@@Z ; std::for_each<std::_Tree_iterator<std::_Tree_val<std::_Tree_simple_types<std::pair<unsigned long const ,CInstanceBase *> > > >,FCharacterManagerCharacterInstanceRenderToShadowMap>
PUBLIC	??$for_each@V?$_Vector_iterator@V?$_Vector_val@U?$_Simple_types@PAVCInstanceBase@@@std@@@std@@@std@@UFCharacterInstanceRenderTrace@@@std@@YA?AUFCharacterInstanceRenderTrace@@V?$_Vector_iterator@V?$_Vector_val@U?$_Simple_types@PAVCInstanceBase@@@std@@@std@@@0@0U1@@Z ; std::for_each<std::_Vector_iterator<std::_Vector_val<std::_Simple_types<CInstanceBase *> > >,FCharacterInstanceRenderTrace>
PUBLIC	??$_Get_unwrapped@AAV?$_Vector_iterator@V?$_Vector_val@U?$_Simple_types@PAVCInstanceBase@@@std@@@std@@@std@@@std@@YA?A_TAAV?$_Vector_iterator@V?$_Vector_val@U?$_Simple_types@PAVCInstanceBase@@@std@@@std@@@0@@Z ; std::_Get_unwrapped<std::_Vector_iterator<std::_Vector_val<std::_Simple_types<CInstanceBase *> > > &>
PUBLIC	??$for_each@V?$_Vector_iterator@V?$_Vector_val@U?$_Simple_types@PAVCInstanceBase@@@std@@@std@@@std@@UFCharacterInstanceRender@@@std@@YA?AUFCharacterInstanceRender@@V?$_Vector_iterator@V?$_Vector_val@U?$_Simple_types@PAVCInstanceBase@@@std@@@std@@@0@0U1@@Z ; std::for_each<std::_Vector_iterator<std::_Vector_val<std::_Simple_types<CInstanceBase *> > >,FCharacterInstanceRender>
PUBLIC	??$_Pass_fn@ULessCharacterInstancePtrRenderOrder@@@std@@YA?A_PAAULessCharacterInstancePtrRenderOrder@@@Z ; std::_Pass_fn<LessCharacterInstancePtrRenderOrder>
PUBLIC	??$_Get_unwrapped@ABV?$_Vector_iterator@V?$_Vector_val@U?$_Simple_types@PAVCInstanceBase@@@std@@@std@@@std@@@std@@YA?A_TABV?$_Vector_iterator@V?$_Vector_val@U?$_Simple_types@PAVCInstanceBase@@@std@@@std@@@0@@Z ; std::_Get_unwrapped<std::_Vector_iterator<std::_Vector_val<std::_Simple_types<CInstanceBase *> > > const &>
PUBLIC	??$sort@V?$_Vector_iterator@V?$_Vector_val@U?$_Simple_types@PAVCInstanceBase@@@std@@@std@@@std@@ULessCharacterInstancePtrRenderOrder@@@std@@YAXV?$_Vector_iterator@V?$_Vector_val@U?$_Simple_types@PAVCInstanceBase@@@std@@@std@@@0@0ULessCharacterInstancePtrRenderOrder@@@Z ; std::sort<std::_Vector_iterator<std::_Vector_val<std::_Simple_types<CInstanceBase *> > >,LessCharacterInstancePtrRenderOrder>
PUBLIC	??$_Get_unwrapped@AAV?$_List_iterator@V?$_List_val@U?$_List_simple_types@PAVCInstanceBase@@@std@@@std@@@std@@@std@@YA?A_TAAV?$_List_iterator@V?$_List_val@U?$_List_simple_types@PAVCInstanceBase@@@std@@@std@@@0@@Z ; std::_Get_unwrapped<std::_List_iterator<std::_List_val<std::_List_simple_types<CInstanceBase *> > > &>
PUBLIC	??$for_each@V?$_List_iterator@V?$_List_val@U?$_List_simple_types@PAVCInstanceBase@@@std@@@std@@@std@@UFCharacterManagerCharacterInstanceListDeform@@@std@@YA?AUFCharacterManagerCharacterInstanceListDeform@@V?$_List_iterator@V?$_List_val@U?$_List_simple_types@PAVCInstanceBase@@@std@@@std@@@0@0U1@@Z ; std::for_each<std::_List_iterator<std::_List_val<std::_List_simple_types<CInstanceBase *> > >,FCharacterManagerCharacterInstanceListDeform>
PUBLIC	??$_Get_unwrapped@AAV?$_Tree_iterator@V?$_Tree_val@U?$_Tree_simple_types@U?$pair@$$CBKPAVCInstanceBase@@@std@@@std@@@std@@@std@@@std@@YA?A_TAAV?$_Tree_iterator@V?$_Tree_val@U?$_Tree_simple_types@U?$pair@$$CBKPAVCInstanceBase@@@std@@@std@@@std@@@0@@Z ; std::_Get_unwrapped<std::_Tree_iterator<std::_Tree_val<std::_Tree_simple_types<std::pair<unsigned long const ,CInstanceBase *> > > > &>
PUBLIC	??$for_each@V?$_Tree_iterator@V?$_Tree_val@U?$_Tree_simple_types@U?$pair@$$CBKPAVCInstanceBase@@@std@@@std@@@std@@@std@@UFCharacterManagerCharacterInstanceDeform@@@std@@YA?AUFCharacterManagerCharacterInstanceDeform@@V?$_Tree_iterator@V?$_Tree_val@U?$_Tree_simple_types@U?$pair@$$CBKPAVCInstanceBase@@@std@@@std@@@std@@@0@0U1@@Z ; std::for_each<std::_Tree_iterator<std::_Tree_val<std::_Tree_simple_types<std::pair<unsigned long const ,CInstanceBase *> > > >,FCharacterManagerCharacterInstanceDeform>
PUBLIC	??$erase@V?$_Tree_iterator@V?$_Tree_val@U?$_Tree_simple_types@U?$pair@$$CBKPAVCInstanceBase@@@std@@@std@@@std@@@std@@$0A@@?$_Tree@V?$_Tmap_traits@KPAVCInstanceBase@@U?$less@K@std@@V?$allocator@U?$pair@$$CBKPAVCInstanceBase@@@std@@@3@$0A@@std@@@std@@QAE?AV?$_Tree_iterator@V?$_Tree_val@U?$_Tree_simple_types@U?$pair@$$CBKPAVCInstanceBase@@@std@@@std@@@std@@@1@V21@@Z ; std::_Tree<std::_Tmap_traits<unsigned long,CInstanceBase *,std::less<unsigned long>,std::allocator<std::pair<unsigned long const ,CInstanceBase *> >,0> >::erase<std::_Tree_iterator<std::_Tree_val<std::_Tree_simple_types<std::pair<unsigned long const ,CInstanceBase *> > > >,0>
PUBLIC	?FindVictim@CPythonCharacterManager@@QAEPAVCInstanceBase@@PAV2@MPAUD3DXVECTOR3@@_N2@Z ; CPythonCharacterManager::FindVictim
PUBLIC	?CanAttackToTarget@CPythonCharacterManager@@QAE_NPAVCInstanceBase@@0@Z ; CPythonCharacterManager::CanAttackToTarget
PUBLIC	?FindLowerDistance@@YA_NABU?$pair@PAVCInstanceBase@@M@std@@0@Z ; FindLowerDistance
PUBLIC	?GetMobWithVnum@CPythonCharacterManager@@QAEXKAAV?$vector@PAVCInstanceBase@@V?$allocator@PAVCInstanceBase@@@std@@@std@@@Z ; CPythonCharacterManager::GetMobWithVnum
PUBLIC	??1?$map@KPAVCInstanceBase@@U?$less@K@std@@V?$allocator@U?$pair@$$CBKPAVCInstanceBase@@@std@@@3@@std@@QAE@XZ ; std::map<unsigned long,CInstanceBase *,std::less<unsigned long>,std::allocator<std::pair<unsigned long const ,CInstanceBase *> > >::~map<unsigned long,CInstanceBase *,std::less<unsigned long>,std::allocator<std::pair<unsigned long const ,CInstanceBase *> > >
PUBLIC	??_GCPythonCharacterManager@@UAEPAXI@Z		; CPythonCharacterManager::`scalar deleting destructor'
PUBLIC	?__Initialize@CPythonCharacterManager@@IAEXXZ	; CPythonCharacterManager::__Initialize
PUBLIC	?Destroy@CPythonCharacterManager@@UAEXXZ	; CPythonCharacterManager::Destroy
PUBLIC	?DestroyAliveInstanceMap@CPythonCharacterManager@@QAEXXZ ; CPythonCharacterManager::DestroyAliveInstanceMap
PUBLIC	?RefreshAllPCTextTail@CPythonCharacterManager@@QAEXXZ ; CPythonCharacterManager::RefreshAllPCTextTail
PUBLIC	?PickAll@CPythonCharacterManager@@QAEHXZ	; CPythonCharacterManager::PickAll
PUBLIC	??0?$_Vector_iterator@V?$_Vector_val@U?$_Simple_types@PAVCInstanceBase@@@std@@@std@@@std@@QAE@XZ ; std::_Vector_iterator<std::_Vector_val<std::_Simple_types<CInstanceBase *> > >::_Vector_iterator<std::_Vector_val<std::_Simple_types<CInstanceBase *> > >
PUBLIC	?__NEW_Pick@CPythonCharacterManager@@IAEXXZ	; CPythonCharacterManager::__NEW_Pick
PUBLIC	??0CInstanceBase_SLessCameraDistance@@QAE@XZ	; CInstanceBase_SLessCameraDistance::CInstanceBase_SLessCameraDistance
PUBLIC	?__SortPickedActorList@CPythonCharacterManager@@IAEXXZ ; CPythonCharacterManager::__SortPickedActorList
PUBLIC	??RCInstanceBase_SLessCameraDistance@@QAE_NPAVCInstanceBase@@0@Z ; CInstanceBase_SLessCameraDistance::operator()
PUBLIC	?__UpdatePickedActorList@CPythonCharacterManager@@IAEXXZ ; CPythonCharacterManager::__UpdatePickedActorList
PUBLIC	?__UpdateSortPickedActorList@CPythonCharacterManager@@IAEXXZ ; CPythonCharacterManager::__UpdateSortPickedActorList
PUBLIC	?GetSelectedInstancePtr@CPythonCharacterManager@@QAEPAVCInstanceBase@@XZ ; CPythonCharacterManager::GetSelectedInstancePtr
PUBLIC	?GetInstancePtrByName@CPythonCharacterManager@@QAEPAVCInstanceBase@@PBD@Z ; CPythonCharacterManager::GetInstancePtrByName
PUBLIC	?GetInstancePtr@CPythonCharacterManager@@UAEPAVCInstanceBase@@K@Z ; CPythonCharacterManager::GetInstancePtr
PUBLIC	?SelectInstance@CPythonCharacterManager@@QAEXK@Z ; CPythonCharacterManager::SelectInstance
PUBLIC	?__DeleteBlendOutInstance@CPythonCharacterManager@@IAEXPAVCInstanceBase@@@Z ; CPythonCharacterManager::__DeleteBlendOutInstance
PUBLIC	?RegisterInstance@CPythonCharacterManager@@QAEPAVCInstanceBase@@K@Z ; CPythonCharacterManager::RegisterInstance
PUBLIC	?RenderCollision@CPythonCharacterManager@@QAEXXZ ; CPythonCharacterManager::RenderCollision
PUBLIC	??RFCharacterManagerCharacterInstanceRenderCollision@@QAEXABU?$pair@KPAVCInstanceBase@@@std@@@Z ; FCharacterManagerCharacterInstanceRenderCollision::operator()
PUBLIC	??RFCharacterManagerCharacterInstanceRenderToShadowMap@@QAEXABU?$pair@KPAVCInstanceBase@@@std@@@Z ; FCharacterManagerCharacterInstanceRenderToShadowMap::operator()
PUBLIC	??0?$_List_const_iterator@V?$_List_val@U?$_List_simple_types@PAVCInstanceBase@@@std@@@std@@@std@@QAE@XZ ; std::_List_const_iterator<std::_List_val<std::_List_simple_types<CInstanceBase *> > >::_List_const_iterator<std::_List_val<std::_List_simple_types<CInstanceBase *> > >
PUBLIC	??0?$_List_iterator@V?$_List_val@U?$_List_simple_types@PAVCInstanceBase@@@std@@@std@@@std@@QAE@XZ ; std::_List_iterator<std::_List_val<std::_List_simple_types<CInstanceBase *> > >::_List_iterator<std::_List_val<std::_List_simple_types<CInstanceBase *> > >
PUBLIC	?__RenderSortedDeadActorList@CPythonCharacterManager@@IAEXXZ ; CPythonCharacterManager::__RenderSortedDeadActorList
PUBLIC	?__RenderSortedAliveActorList@CPythonCharacterManager@@IAEXXZ ; CPythonCharacterManager::__RenderSortedAliveActorList
PUBLIC	??RFCharacterInstanceRenderTrace@@QAEXPAVCInstanceBase@@@Z ; FCharacterInstanceRenderTrace::operator()
PUBLIC	??RFCharacterInstanceRender@@QAEXPAVCInstanceBase@@@Z ; FCharacterInstanceRender::operator()
PUBLIC	??RLessCharacterInstancePtrRenderOrder@@QAE_NPAVCInstanceBase@@0@Z ; LessCharacterInstancePtrRenderOrder::operator()
PUBLIC	?IsAliveVID@CPythonCharacterManager@@QAE_NK@Z	; CPythonCharacterManager::IsAliveVID
PUBLIC	?IsRegisteredVID@CPythonCharacterManager@@QAE_NK@Z ; CPythonCharacterManager::IsRegisteredVID
PUBLIC	?OLD_GetPickedInstancePtr@CPythonCharacterManager@@QAEPAVCInstanceBase@@XZ ; CPythonCharacterManager::OLD_GetPickedInstancePtr
PUBLIC	?OLD_GetPickedInstanceVID@CPythonCharacterManager@@QAE_NPAK@Z ; CPythonCharacterManager::OLD_GetPickedInstanceVID
PUBLIC	??RFCharacterManagerCharacterInstanceListDeform@@QAEXPAVCInstanceBase@@@Z ; FCharacterManagerCharacterInstanceListDeform::operator()
PUBLIC	??RFCharacterManagerCharacterInstanceDeform@@QAEXABU?$pair@KPAVCInstanceBase@@@std@@@Z ; FCharacterManagerCharacterInstanceDeform::operator()
PUBLIC	?UpdateDeleting@CPythonCharacterManager@@IAEXXZ	; CPythonCharacterManager::UpdateDeleting
PUBLIC	?UpdateTransform@CPythonCharacterManager@@IAEXXZ ; CPythonCharacterManager::UpdateTransform
PUBLIC	?RegisterPointEffect@CPythonCharacterManager@@QAE_NKPBD@Z ; CPythonCharacterManager::RegisterPointEffect
PUBLIC	?ShowPointEffect@CPythonCharacterManager@@QAEXKK@Z ; CPythonCharacterManager::ShowPointEffect
PUBLIC	?ChangeGVG@CPythonCharacterManager@@QAEXKK@Z	; CPythonCharacterManager::ChangeGVG
PUBLIC	?RemovePVPKey@CPythonCharacterManager@@QAEXKK@Z	; CPythonCharacterManager::RemovePVPKey
PUBLIC	?InsertPVPKey@CPythonCharacterManager@@QAEXKK@Z	; CPythonCharacterManager::InsertPVPKey
PUBLIC	?AdjustCollisionWithOtherObjects@CPythonCharacterManager@@UAEXPAVCActorInstance@@@Z ; CPythonCharacterManager::AdjustCollisionWithOtherObjects
PUBLIC	??_GIObjectManager@@UAEPAXI@Z			; IObjectManager::`scalar deleting destructor'
PUBLIC	??1IObjectManager@@UAE@XZ			; IObjectManager::~IObjectManager
PUBLIC	??0IObjectManager@@QAE@XZ			; IObjectManager::IObjectManager
PUBLIC	?GetPhysicsWorld@IPhysicsWorld@@SAPAV1@XZ	; IPhysicsWorld::GetPhysicsWorld
PUBLIC	??_GIAbstractCharacterManager@@UAEPAXI@Z	; IAbstractCharacterManager::`scalar deleting destructor'
PUBLIC	??1IAbstractCharacterManager@@UAE@XZ		; IAbstractCharacterManager::~IAbstractCharacterManager
PUBLIC	??0IAbstractCharacterManager@@QAE@XZ		; IAbstractCharacterManager::IAbstractCharacterManager
PUBLIC	?RenderShadowMainInstance@CPythonCharacterManager@@QAEXXZ ; CPythonCharacterManager::RenderShadowMainInstance
PUBLIC	?RenderShadowAllInstances@CPythonCharacterManager@@QAEXXZ ; CPythonCharacterManager::RenderShadowAllInstances
PUBLIC	??0CPythonCharacterManager@@QAE@XZ		; CPythonCharacterManager::CPythonCharacterManager
PUBLIC	??1CPythonCharacterManager@@UAE@XZ		; CPythonCharacterManager::~CPythonCharacterManager
PUBLIC	?GetInfo@CPythonCharacterManager@@QAEXPAV?$basic_string@DU?$char_traits@D@std@@V?$allocator@D@2@@std@@@Z ; CPythonCharacterManager::GetInfo
PUBLIC	?Deform@CPythonCharacterManager@@QAEXXZ		; CPythonCharacterManager::Deform
PUBLIC	?Render@CPythonCharacterManager@@QAEXXZ		; CPythonCharacterManager::Render
PUBLIC	?Update@CPythonCharacterManager@@QAEXXZ		; CPythonCharacterManager::Update
PUBLIC	?DeleteAllInstances@CPythonCharacterManager@@QAEXXZ ; CPythonCharacterManager::DeleteAllInstances
PUBLIC	?DeleteInstance@CPythonCharacterManager@@QAEXK@Z ; CPythonCharacterManager::DeleteInstance
PUBLIC	?DestroyDeadInstanceList@CPythonCharacterManager@@QAEXXZ ; CPythonCharacterManager::DestroyDeadInstanceList
PUBLIC	?DeleteInstanceByFade@CPythonCharacterManager@@QAEXK@Z ; CPythonCharacterManager::DeleteInstanceByFade
PUBLIC	?CreateInstance@CPythonCharacterManager@@QAEPAVCInstanceBase@@ABUSCreateData@2@@Z ; CPythonCharacterManager::CreateInstance
PUBLIC	?IsDeadVID@CPythonCharacterManager@@QAE_NK@Z	; CPythonCharacterManager::IsDeadVID
PUBLIC	?SetMainInstance@CPythonCharacterManager@@QAE_NK@Z ; CPythonCharacterManager::SetMainInstance
PUBLIC	?GetMainInstancePtr@CPythonCharacterManager@@QAEPAVCInstanceBase@@XZ ; CPythonCharacterManager::GetMainInstancePtr
PUBLIC	?ClearMainInstance@CPythonCharacterManager@@QAEXXZ ; CPythonCharacterManager::ClearMainInstance
PUBLIC	?RefreshAllGuildMark@CPythonCharacterManager@@QAEXXZ ; CPythonCharacterManager::RefreshAllGuildMark
EXTRN	??_EIAbstractCharacterManager@@UAEPAXI@Z:PROC	; IAbstractCharacterManager::`vector deleting destructor'
EXTRN	??_E?$TAbstractSingleton@VIAbstractCharacterManager@@@@UAEPAXI@Z:PROC ; TAbstractSingleton<IAbstractCharacterManager>::`vector deleting destructor'
EXTRN	??_EIObjectManager@@UAEPAXI@Z:PROC		; IObjectManager::`vector deleting destructor'
EXTRN	??_ECPythonCharacterManager@@UAEPAXI@Z:PROC	; CPythonCharacterManager::`vector deleting destructor'
EXTRN	??_E?$CSingleton@VCPythonCharacterManager@@@@UAEPAXI@Z:PROC ; CSingleton<CPythonCharacterManager>::`vector deleting destructor'
;	COMDAT ?$TSS0@?1??__RenderSortedAliveActorList@CPythonCharacterManager@@IAEXXZ@4HA
_BSS	SEGMENT
?$TSS0@?1??__RenderSortedAliveActorList@CPythonCharacterManager@@IAEXXZ@4HA DD 01H DUP (?) ; `CPythonCharacterManager::__RenderSortedAliveActorList'::`2'::$TSS0
_BSS	ENDS
;	COMDAT ?$TSS0@?1??__RenderSortedDeadActorList@CPythonCharacterManager@@IAEXXZ@4HA
_BSS	SEGMENT
?$TSS0@?1??__RenderSortedDeadActorList@CPythonCharacterManager@@IAEXXZ@4HA DD 01H DUP (?) ; `CPythonCharacterManager::__RenderSortedDeadActorList'::`2'::$TSS0
_BSS	ENDS
;	COMDAT xdata$x
xdata$x	SEGMENT
__ehfuncinfo$??1CPythonCharacterManager@@UAE@XZ DQ 00000000019930522r ; 2.11987e-315
	DQ	00000000000000000r		; 0
	DQ	00000000000000000r		; 0
	DQ	00000000000000000r		; 0
	DD	05H
xdata$x	ENDS
;	COMDAT xdata$x
xdata$x	SEGMENT
__ehfuncinfo$??0CPythonCharacterManager@@QAE@XZ DQ 00000000419930522r ; 8.69997e-314
	DD	FLAT:__unwindtable$??0CPythonCharacterManager@@QAE@XZ
	DQ	00000000000000000r		; 0
	DQ	00000000000000000r		; 0
	DQ	00000000100000000r		; 2.122e-314
__unwindtable$??0CPythonCharacterManager@@QAE@XZ DD 0ffffffffH
	DD	FLAT:__unwindfunclet$??0CPythonCharacterManager@@QAE@XZ$0
	DD	00H
	DD	FLAT:__unwindfunclet$??0CPythonCharacterManager@@QAE@XZ$1
	DD	01H
	DD	FLAT:__unwindfunclet$??0CPythonCharacterManager@@QAE@XZ$2
	DD	02H
	DD	FLAT:__unwindfunclet$??0CPythonCharacterManager@@QAE@XZ$3
xdata$x	ENDS
;	COMDAT xdata$x
xdata$x	SEGMENT
__ehfuncinfo$?RegisterInstance@CPythonCharacterManager@@QAEPAVCInstanceBase@@K@Z DQ 00000000119930522r ; 2.33398e-314
	DD	FLAT:__unwindtable$?RegisterInstance@CPythonCharacterManager@@QAEPAVCInstanceBase@@K@Z
	DQ	00000000000000000r		; 0
	DQ	00000000000000000r		; 0
	DQ	00000000100000000r		; 2.122e-314
__unwindtable$?RegisterInstance@CPythonCharacterManager@@QAEPAVCInstanceBase@@K@Z DD 0ffffffffH
	DD	FLAT:__unwindfunclet$?RegisterInstance@CPythonCharacterManager@@QAEPAVCInstanceBase@@K@Z$2
xdata$x	ENDS
;	COMDAT xdata$x
xdata$x	SEGMENT
__ehfuncinfo$?__DeleteBlendOutInstance@CPythonCharacterManager@@IAEXPAVCInstanceBase@@@Z DD 019930522H
	DD	01H
	DD	FLAT:__unwindtable$?__DeleteBlendOutInstance@CPythonCharacterManager@@IAEXPAVCInstanceBase@@@Z
	DD	2 DUP(00H)
	DD	2 DUP(00H)
	DD	00H
	DD	01H
__unwindtable$?__DeleteBlendOutInstance@CPythonCharacterManager@@IAEXPAVCInstanceBase@@@Z DD 0ffffffffH
	DD	FLAT:__unwindfunclet$?__DeleteBlendOutInstance@CPythonCharacterManager@@IAEXPAVCInstanceBase@@@Z$1
xdata$x	ENDS
;	COMDAT xdata$x
xdata$x	SEGMENT
__ehfuncinfo$?FindVictim@CPythonCharacterManager@@QAEPAVCInstanceBase@@PAV2@MPAUD3DXVECTOR3@@_N2@Z DD 019930522H
	DD	01H
	DD	FLAT:__unwindtable$?FindVictim@CPythonCharacterManager@@QAEPAVCInstanceBase@@PAV2@MPAUD3DXVECTOR3@@_N2@Z
	DD	2 DUP(00H)
	DD	2 DUP(00H)
	DD	00H
	DD	01H
__unwindtable$?FindVictim@CPythonCharacterManager@@QAEPAVCInstanceBase@@PAV2@MPAUD3DXVECTOR3@@_N2@Z DD 0ffffffffH
	DD	FLAT:__unwindfunclet$?FindVictim@CPythonCharacterManager@@QAEPAVCInstanceBase@@PAV2@MPAUD3DXVECTOR3@@_N2@Z$0
xdata$x	ENDS
;	COMDAT xdata$x
xdata$x	SEGMENT
__ehfuncinfo$??$insert@$0A@$0A@@?$_Tree@V?$_Tmap_traits@KPAVCInstanceBase@@U?$less@K@std@@V?$allocator@U?$pair@$$CBKPAVCInstanceBase@@@std@@@3@$0A@@std@@@std@@QAE?AU?$pair@V?$_Tree_iterator@V?$_Tree_val@U?$_Tree_simple_types@U?$pair@$$CBKPAVCInstanceBase@@@std@@@std@@@std@@@std@@_N@1@$$QAU?$pair@$$CBKPAVCInstanceBase@@@1@@Z DQ 00000000119930522r ; 2.33398e-314
	DD	FLAT:__unwindtable$??$insert@$0A@$0A@@?$_Tree@V?$_Tmap_traits@KPAVCInstanceBase@@U?$less@K@std@@V?$allocator@U?$pair@$$CBKPAVCInstanceBase@@@std@@@3@$0A@@std@@@std@@QAE?AU?$pair@V?$_Tree_iterator@V?$_Tree_val@U?$_Tree_simple_types@U?$pair@$$CBKPAVCInstanceBase@@@std@@@std@@@std@@@std@@_N@1@$$QAU?$pair@$$CBKPAVCInstanceBase@@@1@@Z
	DQ	00000000000000000r		; 0
	DQ	00000000000000000r		; 0
	DQ	00000000100000000r		; 2.122e-314
__unwindtable$??$insert@$0A@$0A@@?$_Tree@V?$_Tmap_traits@KPAVCInstanceBase@@U?$less@K@std@@V?$allocator@U?$pair@$$CBKPAVCInstanceBase@@@std@@@3@$0A@@std@@@std@@QAE?AU?$pair@V?$_Tree_iterator@V?$_Tree_val@U?$_Tree_simple_types@U?$pair@$$CBKPAVCInstanceBase@@@std@@@std@@@std@@@std@@_N@1@$$QAU?$pair@$$CBKPAVCInstanceBase@@@1@@Z DD 0ffffffffH
	DD	FLAT:__unwindfunclet$??$insert@$0A@$0A@@?$_Tree@V?$_Tmap_traits@KPAVCInstanceBase@@U?$less@K@std@@V?$allocator@U?$pair@$$CBKPAVCInstanceBase@@@std@@@3@$0A@@std@@@std@@QAE?AU?$pair@V?$_Tree_iterator@V?$_Tree_val@U?$_Tree_simple_types@U?$pair@$$CBKPAVCInstanceBase@@@std@@@std@@@std@@@std@@_N@1@$$QAU?$pair@$$CBKPAVCInstanceBase@@@1@@Z$2
xdata$x	ENDS
;	COMDAT xdata$x
xdata$x	SEGMENT
__ehfuncinfo$?push_back@?$list@PAVCInstanceBase@@V?$allocator@PAVCInstanceBase@@@std@@@std@@QAEXABQAVCInstanceBase@@@Z DQ 00000000119930522r ; 2.33398e-314
	DD	FLAT:__unwindtable$?push_back@?$list@PAVCInstanceBase@@V?$allocator@PAVCInstanceBase@@@std@@@std@@QAEXABQAVCInstanceBase@@@Z
	DQ	00000000000000000r		; 0
	DQ	00000000000000000r		; 0
	DQ	00000000100000000r		; 2.122e-314
__unwindtable$?push_back@?$list@PAVCInstanceBase@@V?$allocator@PAVCInstanceBase@@@std@@@std@@QAEXABQAVCInstanceBase@@@Z DD 0ffffffffH
	DD	FLAT:__unwindfunclet$?push_back@?$list@PAVCInstanceBase@@V?$allocator@PAVCInstanceBase@@@std@@@std@@QAEXABQAVCInstanceBase@@@Z$1
xdata$x	ENDS
;	COMDAT xdata$x
xdata$x	SEGMENT
__ehfuncinfo$??$_Emplace@U?$pair@$$CBKPAVCInstanceBase@@@std@@@?$_Tree@V?$_Tmap_traits@KPAVCInstanceBase@@U?$less@K@std@@V?$allocator@U?$pair@$$CBKPAVCInstanceBase@@@std@@@3@$0A@@std@@@std@@IAE?AU?$pair@PAU?$_Tree_node@U?$pair@$$CBKPAVCInstanceBase@@@std@@PAX@std@@_N@1@$$QAU?$pair@$$CBKPAVCInstanceBase@@@1@@Z DQ 00000000119930522r ; 2.33398e-314
	DD	FLAT:__unwindtable$??$_Emplace@U?$pair@$$CBKPAVCInstanceBase@@@std@@@?$_Tree@V?$_Tmap_traits@KPAVCInstanceBase@@U?$less@K@std@@V?$allocator@U?$pair@$$CBKPAVCInstanceBase@@@std@@@3@$0A@@std@@@std@@IAE?AU?$pair@PAU?$_Tree_node@U?$pair@$$CBKPAVCInstanceBase@@@std@@PAX@std@@_N@1@$$QAU?$pair@$$CBKPAVCInstanceBase@@@1@@Z
	DQ	00000000000000000r		; 0
	DQ	00000000000000000r		; 0
	DQ	00000000100000000r		; 2.122e-314
__unwindtable$??$_Emplace@U?$pair@$$CBKPAVCInstanceBase@@@std@@@?$_Tree@V?$_Tmap_traits@KPAVCInstanceBase@@U?$less@K@std@@V?$allocator@U?$pair@$$CBKPAVCInstanceBase@@@std@@@3@$0A@@std@@@std@@IAE?AU?$pair@PAU?$_Tree_node@U?$pair@$$CBKPAVCInstanceBase@@@std@@PAX@std@@_N@1@$$QAU?$pair@$$CBKPAVCInstanceBase@@@1@@Z DD 0ffffffffH
	DD	FLAT:__unwindfunclet$??$_Emplace@U?$pair@$$CBKPAVCInstanceBase@@@std@@@?$_Tree@V?$_Tmap_traits@KPAVCInstanceBase@@U?$less@K@std@@V?$allocator@U?$pair@$$CBKPAVCInstanceBase@@@std@@@3@$0A@@std@@@std@@IAE?AU?$pair@PAU?$_Tree_node@U?$pair@$$CBKPAVCInstanceBase@@@std@@PAX@std@@_N@1@$$QAU?$pair@$$CBKPAVCInstanceBase@@@1@@Z$2
xdata$x	ENDS
;	COMDAT xdata$x
xdata$x	SEGMENT
__ehfuncinfo$??$_Emplace@ABQAVCInstanceBase@@@?$list@PAVCInstanceBase@@V?$allocator@PAVCInstanceBase@@@std@@@std@@QAEPAU?$_List_node@PAVCInstanceBase@@PAX@1@QAU21@ABQAVCInstanceBase@@@Z DQ 00000000119930522r ; 2.33398e-314
	DD	FLAT:__unwindtable$??$_Emplace@ABQAVCInstanceBase@@@?$list@PAVCInstanceBase@@V?$allocator@PAVCInstanceBase@@@std@@@std@@QAEPAU?$_List_node@PAVCInstanceBase@@PAX@1@QAU21@ABQAVCInstanceBase@@@Z
	DQ	00000000000000000r		; 0
	DQ	00000000000000000r		; 0
	DQ	00000000100000000r		; 2.122e-314
__unwindtable$??$_Emplace@ABQAVCInstanceBase@@@?$list@PAVCInstanceBase@@V?$allocator@PAVCInstanceBase@@@std@@@std@@QAEPAU?$_List_node@PAVCInstanceBase@@PAX@1@QAU21@ABQAVCInstanceBase@@@Z DD 0ffffffffH
	DD	FLAT:__unwindfunclet$??$_Emplace@ABQAVCInstanceBase@@@?$list@PAVCInstanceBase@@V?$allocator@PAVCInstanceBase@@@std@@@std@@QAEPAU?$_List_node@PAVCInstanceBase@@PAX@1@QAU21@ABQAVCInstanceBase@@@Z$1
xdata$x	ENDS
;	COMDAT xdata$x
xdata$x	SEGMENT
__ehfuncinfo$??$?0U?$pair@$$CBKPAVCInstanceBase@@@std@@@?$_Tree_temp_node@V?$allocator@U?$_Tree_node@U?$pair@$$CBKPAVCInstanceBase@@@std@@PAX@std@@@std@@@std@@QAE@AAV?$allocator@U?$_Tree_node@U?$pair@$$CBKPAVCInstanceBase@@@std@@PAX@std@@@1@PAU?$_Tree_node@U?$pair@$$CBKPAVCInstanceBase@@@std@@PAX@1@$$QAU?$pair@$$CBKPAVCInstanceBase@@@1@@Z DQ 00000000119930522r ; 2.33398e-314
	DD	FLAT:__unwindtable$??$?0U?$pair@$$CBKPAVCInstanceBase@@@std@@@?$_Tree_temp_node@V?$allocator@U?$_Tree_node@U?$pair@$$CBKPAVCInstanceBase@@@std@@PAX@std@@@std@@@std@@QAE@AAV?$allocator@U?$_Tree_node@U?$pair@$$CBKPAVCInstanceBase@@@std@@PAX@std@@@1@PAU?$_Tree_node@U?$pair@$$CBKPAVCInstanceBase@@@std@@PAX@1@$$QAU?$pair@$$CBKPAVCInstanceBase@@@1@@Z
	DQ	00000000000000000r		; 0
	DQ	00000000000000000r		; 0
	DQ	00000000100000000r		; 2.122e-314
__unwindtable$??$?0U?$pair@$$CBKPAVCInstanceBase@@@std@@@?$_Tree_temp_node@V?$allocator@U?$_Tree_node@U?$pair@$$CBKPAVCInstanceBase@@@std@@PAX@std@@@std@@@std@@QAE@AAV?$allocator@U?$_Tree_node@U?$pair@$$CBKPAVCInstanceBase@@@std@@PAX@std@@@1@PAU?$_Tree_node@U?$pair@$$CBKPAVCInstanceBase@@@std@@PAX@1@$$QAU?$pair@$$CBKPAVCInstanceBase@@@1@@Z DD 0ffffffffH
	DD	FLAT:__unwindfunclet$??$?0U?$pair@$$CBKPAVCInstanceBase@@@std@@@?$_Tree_temp_node@V?$allocator@U?$_Tree_node@U?$pair@$$CBKPAVCInstanceBase@@@std@@PAX@std@@@std@@@std@@QAE@AAV?$allocator@U?$_Tree_node@U?$pair@$$CBKPAVCInstanceBase@@@std@@PAX@std@@@1@PAU?$_Tree_node@U?$pair@$$CBKPAVCInstanceBase@@@std@@PAX@1@$$QAU?$pair@$$CBKPAVCInstanceBase@@@1@@Z$1
xdata$x	ENDS
;	COMDAT xdata$x
xdata$x	SEGMENT
__ehfuncinfo$??$?0ABQAVCInstanceBase@@@?$_List_node_emplace_op2@V?$allocator@U?$_List_node@PAVCInstanceBase@@PAX@std@@@std@@@std@@QAE@AAV?$allocator@U?$_List_node@PAVCInstanceBase@@PAX@std@@@1@ABQAVCInstanceBase@@@Z DQ 00000000119930522r ; 2.33398e-314
	DD	FLAT:__unwindtable$??$?0ABQAVCInstanceBase@@@?$_List_node_emplace_op2@V?$allocator@U?$_List_node@PAVCInstanceBase@@PAX@std@@@std@@@std@@QAE@AAV?$allocator@U?$_List_node@PAVCInstanceBase@@PAX@std@@@1@ABQAVCInstanceBase@@@Z
	DQ	00000000000000000r		; 0
	DQ	00000000000000000r		; 0
	DQ	00000000100000000r		; 2.122e-314
__unwindtable$??$?0ABQAVCInstanceBase@@@?$_List_node_emplace_op2@V?$allocator@U?$_List_node@PAVCInstanceBase@@PAX@std@@@std@@@std@@QAE@AAV?$allocator@U?$_List_node@PAVCInstanceBase@@PAX@std@@@1@ABQAVCInstanceBase@@@Z DD 0ffffffffH
	DD	FLAT:__unwindfunclet$??$?0ABQAVCInstanceBase@@@?$_List_node_emplace_op2@V?$allocator@U?$_List_node@PAVCInstanceBase@@PAX@std@@@std@@@std@@QAE@AAV?$allocator@U?$_List_node@PAVCInstanceBase@@PAX@std@@@1@ABQAVCInstanceBase@@@Z$0
xdata$x	ENDS
;	COMDAT xdata$x
xdata$x	SEGMENT
__ehfuncinfo$??0?$_Tree_temp_node_alloc@V?$allocator@U?$_Tree_node@U?$pair@$$CBKPAVCInstanceBase@@@std@@PAX@std@@@std@@@std@@QAE@AAV?$allocator@U?$_Tree_node@U?$pair@$$CBKPAVCInstanceBase@@@std@@PAX@std@@@1@@Z DQ 00000000119930522r ; 2.33398e-314
	DD	FLAT:__unwindtable$??0?$_Tree_temp_node_alloc@V?$allocator@U?$_Tree_node@U?$pair@$$CBKPAVCInstanceBase@@@std@@PAX@std@@@std@@@std@@QAE@AAV?$allocator@U?$_Tree_node@U?$pair@$$CBKPAVCInstanceBase@@@std@@PAX@std@@@1@@Z
	DQ	00000000000000000r		; 0
	DQ	00000000000000000r		; 0
	DQ	00000000100000000r		; 2.122e-314
__unwindtable$??0?$_Tree_temp_node_alloc@V?$allocator@U?$_Tree_node@U?$pair@$$CBKPAVCInstanceBase@@@std@@PAX@std@@@std@@@std@@QAE@AAV?$allocator@U?$_Tree_node@U?$pair@$$CBKPAVCInstanceBase@@@std@@PAX@std@@@1@@Z DD 0ffffffffH
	DD	FLAT:__unwindfunclet$??0?$_Tree_temp_node_alloc@V?$allocator@U?$_Tree_node@U?$pair@$$CBKPAVCInstanceBase@@@std@@PAX@std@@@std@@@std@@QAE@AAV?$allocator@U?$_Tree_node@U?$pair@$$CBKPAVCInstanceBase@@@std@@PAX@std@@@1@@Z$0
; Function compile flags: /Ogtp
; File C:\Anka2Project\Anka2Project\Source\Binary\source\UserInterface\PythonCharacterManager.cpp
;	COMDAT ?SetMainInstance@CPythonCharacterManager@@QAE_NK@Z
_TEXT	SEGMENT
_dwVID$ = 8						; size = 4
?SetMainInstance@CPythonCharacterManager@@QAE_NK@Z PROC	; CPythonCharacterManager::SetMainInstance, COMDAT
; _this$ = ecx

; 105  : {

  00000	55		 push	 ebp
  00001	8b ec		 mov	 ebp, esp
  00003	56		 push	 esi

; 106  : 	m_pkInstMain=GetInstancePtr(dwVID);

  00004	ff 75 08	 push	 DWORD PTR _dwVID$[ebp]
  00007	8b f1		 mov	 esi, ecx
  00009	8b 46 04	 mov	 eax, DWORD PTR [esi+4]
  0000c	8d 4e 04	 lea	 ecx, DWORD PTR [esi+4]
  0000f	ff 50 08	 call	 DWORD PTR [eax+8]

; 107  : 
; 108  : 	if (!m_pkInstMain)

  00012	85 c0		 test	 eax, eax
  00014	89 46 0c	 mov	 DWORD PTR [esi+12], eax

; 109  : 		return false;

  00017	5e		 pop	 esi
  00018	0f 95 c0	 setne	 al

; 110  : 
; 111  : 	return true;
; 112  : }

  0001b	5d		 pop	 ebp
  0001c	c2 04 00	 ret	 4
?SetMainInstance@CPythonCharacterManager@@QAE_NK@Z ENDP	; CPythonCharacterManager::SetMainInstance
_TEXT	ENDS
; Function compile flags: /Ogtp
; File C:\Anka2Project\Anka2Project\Source\Binary\source\UserInterface\PythonCharacterManager.cpp
; File C:\Program Files\Microsoft Visual Studio\2022\Community\VC\Tools\MSVC\14.44.35207\include\list
; File C:\Anka2Project\Anka2Project\Source\Binary\source\UserInterface\PythonCharacterManager.cpp
; File C:\Program Files\Microsoft Visual Studio\2022\Community\VC\Tools\MSVC\14.44.35207\include\list
; File C:\Anka2Project\Anka2Project\Source\Binary\source\UserInterface\PythonCharacterManager.cpp
;	COMDAT ?IsDeadVID@CPythonCharacterManager@@QAE_NK@Z
_TEXT	SEGMENT
_dwVID$ = 8						; size = 4
?IsDeadVID@CPythonCharacterManager@@QAE_NK@Z PROC	; CPythonCharacterManager::IsDeadVID, COMDAT
; _this$ = ecx

; 315  : {

  00000	55		 push	 ebp
  00001	8b ec		 mov	 ebp, esp
  00003	53		 push	 ebx
  00004	56		 push	 esi
  00005	57		 push	 edi
  00006	8b f9		 mov	 edi, ecx
; File C:\Program Files\Microsoft Visual Studio\2022\Community\VC\Tools\MSVC\14.44.35207\include\list

; 1105 :         return iterator(_Mypair._Myval2._Myhead->_Next, _STD addressof(_Mypair._Myval2));

  00008	8b 47 28	 mov	 eax, DWORD PTR [edi+40]

; 37   :     _List_unchecked_const_iterator(_Nodeptr _Pnode, const _Mylist* _Plist) noexcept : _Ptr(_Pnode) {

  0000b	8b 30		 mov	 esi, DWORD PTR [eax]
  0000d	3b f0		 cmp	 esi, eax
; File C:\Anka2Project\Anka2Project\Source\Binary\source\UserInterface\PythonCharacterManager.cpp

; 316  : 	for (TCharacterInstanceList::iterator f=m_kDeadInstList.begin(); f!=m_kDeadInstList.end(); ++f)

  0000f	74 16		 je	 SHORT $LN3@IsDeadVID
  00011	8b 5d 08	 mov	 ebx, DWORD PTR _dwVID$[ebp]
$LL4@IsDeadVID:

; 317  : 	{
; 318  : 		if ((*f)->GetVirtualID()==dwVID)

  00014	8b 4e 08	 mov	 ecx, DWORD PTR [esi+8]
  00017	e8 00 00 00 00	 call	 ?GetVirtualID@CInstanceBase@@QAEKXZ ; CInstanceBase::GetVirtualID
  0001c	3b c3		 cmp	 eax, ebx
  0001e	74 10		 je	 SHORT $LN47@IsDeadVID
; File C:\Program Files\Microsoft Visual Studio\2022\Community\VC\Tools\MSVC\14.44.35207\include\list

; 164  :         this->_Ptr = this->_Ptr->_Next;

  00020	8b 36		 mov	 esi, DWORD PTR [esi]

; 197  :         return this->_Ptr == _Right._Ptr;

  00022	3b 77 28	 cmp	 esi, DWORD PTR [edi+40]
; File C:\Anka2Project\Anka2Project\Source\Binary\source\UserInterface\PythonCharacterManager.cpp

; 316  : 	for (TCharacterInstanceList::iterator f=m_kDeadInstList.begin(); f!=m_kDeadInstList.end(); ++f)

  00025	75 ed		 jne	 SHORT $LL4@IsDeadVID
$LN3@IsDeadVID:
  00027	5f		 pop	 edi

; 319  : 			return true;
; 320  : 	}
; 321  : 
; 322  : 	return false;
; 323  : }

  00028	5e		 pop	 esi
  00029	32 c0		 xor	 al, al
  0002b	5b		 pop	 ebx
  0002c	5d		 pop	 ebp
  0002d	c2 04 00	 ret	 4
$LN47@IsDeadVID:
  00030	5f		 pop	 edi
  00031	5e		 pop	 esi
  00032	b0 01		 mov	 al, 1
  00034	5b		 pop	 ebx
  00035	5d		 pop	 ebp
  00036	c2 04 00	 ret	 4
?IsDeadVID@CPythonCharacterManager@@QAE_NK@Z ENDP	; CPythonCharacterManager::IsDeadVID
_TEXT	ENDS
; Function compile flags: /Ogtp
; File C:\Anka2Project\Anka2Project\Source\Binary\source\UserInterface\PythonCharacterManager.cpp
;	COMDAT ?InsertPVPKey@CPythonCharacterManager@@QAEXKK@Z
_TEXT	SEGMENT
_dwVIDSrc$ = 8						; size = 4
_dwVIDDst$ = 12						; size = 4
?InsertPVPKey@CPythonCharacterManager@@QAEXKK@Z PROC	; CPythonCharacterManager::InsertPVPKey, COMDAT
; _this$ = ecx

; 59   : {

  00000	55		 push	 ebp
  00001	8b ec		 mov	 ebp, esp
  00003	51		 push	 ecx

; 60   : 	CInstanceBase::InsertPVPKey(dwVIDSrc, dwVIDDst);

  00004	8b 55 0c	 mov	 edx, DWORD PTR _dwVIDDst$[ebp]
  00007	56		 push	 esi
  00008	8b f1		 mov	 esi, ecx
  0000a	8b 4d 08	 mov	 ecx, DWORD PTR _dwVIDSrc$[ebp]
  0000d	e8 00 00 00 00	 call	 ?InsertPVPKey@CInstanceBase@@SAXKK@Z ; CInstanceBase::InsertPVPKey

; 61   : 
; 62   : 	CInstanceBase* pkInstSrc=GetInstancePtr(dwVIDSrc);

  00012	8b 46 04	 mov	 eax, DWORD PTR [esi+4]
  00015	8d 4e 04	 lea	 ecx, DWORD PTR [esi+4]
  00018	ff 75 08	 push	 DWORD PTR _dwVIDSrc$[ebp]
  0001b	ff 50 08	 call	 DWORD PTR [eax+8]

; 63   : 	if (pkInstSrc)

  0001e	85 c0		 test	 eax, eax
  00020	74 07		 je	 SHORT $LN2@InsertPVPK

; 64   : 		pkInstSrc->RefreshTextTail();

  00022	8b c8		 mov	 ecx, eax
  00024	e8 00 00 00 00	 call	 ?RefreshTextTail@CInstanceBase@@QAEXXZ ; CInstanceBase::RefreshTextTail
$LN2@InsertPVPK:

; 65   : 
; 66   : 	CInstanceBase* pkInstDst=GetInstancePtr(dwVIDDst);

  00029	8b 46 04	 mov	 eax, DWORD PTR [esi+4]
  0002c	8d 4e 04	 lea	 ecx, DWORD PTR [esi+4]
  0002f	ff 75 0c	 push	 DWORD PTR _dwVIDDst$[ebp]
  00032	ff 50 08	 call	 DWORD PTR [eax+8]

; 67   : 	if (pkInstDst)

  00035	85 c0		 test	 eax, eax
  00037	74 07		 je	 SHORT $LN3@InsertPVPK

; 68   : 		pkInstDst->RefreshTextTail();

  00039	8b c8		 mov	 ecx, eax
  0003b	e8 00 00 00 00	 call	 ?RefreshTextTail@CInstanceBase@@QAEXXZ ; CInstanceBase::RefreshTextTail
$LN3@InsertPVPK:

; 69   : }

  00040	5e		 pop	 esi
  00041	59		 pop	 ecx
  00042	5d		 pop	 ebp
  00043	c2 08 00	 ret	 8
?InsertPVPKey@CPythonCharacterManager@@QAEXKK@Z ENDP	; CPythonCharacterManager::InsertPVPKey
_TEXT	ENDS
; Function compile flags: /Ogtp
; File C:\Anka2Project\Anka2Project\Source\Binary\source\UserInterface\PythonCharacterManager.cpp
;	COMDAT ?RemovePVPKey@CPythonCharacterManager@@QAEXKK@Z
_TEXT	SEGMENT
_dwVIDSrc$ = 8						; size = 4
_dwVIDDst$ = 12						; size = 4
?RemovePVPKey@CPythonCharacterManager@@QAEXKK@Z PROC	; CPythonCharacterManager::RemovePVPKey, COMDAT
; _this$ = ecx

; 72   : {

  00000	55		 push	 ebp
  00001	8b ec		 mov	 ebp, esp
  00003	51		 push	 ecx

; 73   : 	CInstanceBase::RemovePVPKey(dwVIDSrc, dwVIDDst);

  00004	8b 55 0c	 mov	 edx, DWORD PTR _dwVIDDst$[ebp]
  00007	56		 push	 esi
  00008	8b f1		 mov	 esi, ecx
  0000a	8b 4d 08	 mov	 ecx, DWORD PTR _dwVIDSrc$[ebp]
  0000d	e8 00 00 00 00	 call	 ?RemovePVPKey@CInstanceBase@@SAXKK@Z ; CInstanceBase::RemovePVPKey

; 74   : 
; 75   : 	CInstanceBase* pkInstSrc=GetInstancePtr(dwVIDSrc);

  00012	8b 46 04	 mov	 eax, DWORD PTR [esi+4]
  00015	8d 4e 04	 lea	 ecx, DWORD PTR [esi+4]
  00018	ff 75 08	 push	 DWORD PTR _dwVIDSrc$[ebp]
  0001b	ff 50 08	 call	 DWORD PTR [eax+8]

; 76   : 	if (pkInstSrc)

  0001e	85 c0		 test	 eax, eax
  00020	74 07		 je	 SHORT $LN2@RemovePVPK

; 77   : 		pkInstSrc->RefreshTextTail();

  00022	8b c8		 mov	 ecx, eax
  00024	e8 00 00 00 00	 call	 ?RefreshTextTail@CInstanceBase@@QAEXXZ ; CInstanceBase::RefreshTextTail
$LN2@RemovePVPK:

; 78   : 
; 79   : 	CInstanceBase* pkInstDst=GetInstancePtr(dwVIDDst);

  00029	8b 46 04	 mov	 eax, DWORD PTR [esi+4]
  0002c	8d 4e 04	 lea	 ecx, DWORD PTR [esi+4]
  0002f	ff 75 0c	 push	 DWORD PTR _dwVIDDst$[ebp]
  00032	ff 50 08	 call	 DWORD PTR [eax+8]

; 80   : 	if (pkInstDst)

  00035	85 c0		 test	 eax, eax
  00037	74 07		 je	 SHORT $LN3@RemovePVPK

; 81   : 		pkInstDst->RefreshTextTail();

  00039	8b c8		 mov	 ecx, eax
  0003b	e8 00 00 00 00	 call	 ?RefreshTextTail@CInstanceBase@@QAEXXZ ; CInstanceBase::RefreshTextTail
$LN3@RemovePVPK:

; 82   : }

  00040	5e		 pop	 esi
  00041	59		 pop	 ecx
  00042	5d		 pop	 ebp
  00043	c2 08 00	 ret	 8
?RemovePVPKey@CPythonCharacterManager@@QAEXKK@Z ENDP	; CPythonCharacterManager::RemovePVPKey
_TEXT	ENDS
; Function compile flags: /Ogtp
; File C:\Anka2Project\Anka2Project\Source\Binary\source\UserInterface\PythonCharacterManager.cpp
;	COMDAT ?ShowPointEffect@CPythonCharacterManager@@QAEXKK@Z
_TEXT	SEGMENT
_ePoint$ = 8						; size = 4
_dwVID$ = 12						; size = 4
?ShowPointEffect@CPythonCharacterManager@@QAEXKK@Z PROC	; CPythonCharacterManager::ShowPointEffect, COMDAT
; _this$ = ecx

; 184  : {

  00000	55		 push	 ebp
  00001	8b ec		 mov	 ebp, esp

; 185  : 	CInstanceBase * pkInstSel = (dwVID == 0xffffffff) ? GetMainInstancePtr() : GetInstancePtr(dwVID);

  00003	8b 55 0c	 mov	 edx, DWORD PTR _dwVID$[ebp]
  00006	83 fa ff	 cmp	 edx, -1
  00009	75 07		 jne	 SHORT $LN8@ShowPointE
  0000b	e8 00 00 00 00	 call	 ?GetMainInstancePtr@CPythonCharacterManager@@QAEPAVCInstanceBase@@XZ ; CPythonCharacterManager::GetMainInstancePtr
  00010	eb 0a		 jmp	 SHORT $LN10@ShowPointE
$LN8@ShowPointE:
  00012	8b 41 04	 mov	 eax, DWORD PTR [ecx+4]
  00015	83 c1 04	 add	 ecx, 4
  00018	52		 push	 edx
  00019	ff 50 08	 call	 DWORD PTR [eax+8]
$LN10@ShowPointE:

; 186  : 
; 187  : 	if (!pkInstSel)

  0001c	8b c8		 mov	 ecx, eax
  0001e	85 c9		 test	 ecx, ecx
  00020	74 1b		 je	 SHORT $LN2@ShowPointE

; 188  : 		return;
; 189  : 
; 190  : 	switch (ePoint)

  00022	8b 45 08	 mov	 eax, DWORD PTR _ePoint$[ebp]
  00025	83 e8 01	 sub	 eax, 1
  00028	74 0e		 je	 SHORT $LN5@ShowPointE
  0002a	83 e8 18	 sub	 eax, 24			; 00000018H
  0002d	75 0e		 jne	 SHORT $LN2@ShowPointE

; 194  : 			break;
; 195  : 		case POINT_LEVEL_STEP:
; 196  : 			pkInstSel->SkillUp();

  0002f	e8 00 00 00 00	 call	 ?SkillUp@CInstanceBase@@QAEXXZ ; CInstanceBase::SkillUp

; 197  : 			break;
; 198  : 	}
; 199  : }

  00034	5d		 pop	 ebp
  00035	c2 08 00	 ret	 8
$LN5@ShowPointE:

; 191  : 	{
; 192  : 		case POINT_LEVEL:
; 193  : 			pkInstSel->LevelUp();

  00038	e8 00 00 00 00	 call	 ?LevelUp@CInstanceBase@@QAEXXZ ; CInstanceBase::LevelUp
$LN2@ShowPointE:

; 197  : 			break;
; 198  : 	}
; 199  : }

  0003d	5d		 pop	 ebp
  0003e	c2 08 00	 ret	 8
?ShowPointEffect@CPythonCharacterManager@@QAEXKK@Z ENDP	; CPythonCharacterManager::ShowPointEffect
_TEXT	ENDS
; Function compile flags: /Ogtp
; File C:\Program Files\Microsoft Visual Studio\2022\Community\VC\Tools\MSVC\14.44.35207\include\vector
; File C:\Program Files\Microsoft Visual Studio\2022\Community\VC\Tools\MSVC\14.44.35207\include\xmemory
; File C:\Program Files\Microsoft Visual Studio\2022\Community\VC\Tools\MSVC\14.44.35207\include\vector
; File C:\Program Files\Microsoft Visual Studio\2022\Community\VC\Tools\MSVC\14.44.35207\include\xmemory
; File C:\Program Files\Microsoft Visual Studio\2022\Community\VC\Tools\MSVC\14.44.35207\include\vector
; File C:\Program Files\Microsoft Visual Studio\2022\Community\VC\Tools\MSVC\14.44.35207\include\xmemory
;	COMDAT ??__Fs_kVct_pkInstAliveSort@?1??__RenderSortedAliveActorList@CPythonCharacterManager@@IAEXXZ@YAXXZ
text$yd	SEGMENT
??__Fs_kVct_pkInstAliveSort@?1??__RenderSortedAliveActorList@CPythonCharacterManager@@IAEXXZ@YAXXZ PROC ; `CPythonCharacterManager::__RenderSortedAliveActorList'::`2'::`dynamic atexit destructor for 's_kVct_pkInstAliveSort'', COMDAT
; File C:\Program Files\Microsoft Visual Studio\2022\Community\VC\Tools\MSVC\14.44.35207\include\vector

; 2090 :         if (_Myfirst) { // destroy and deallocate old array

  00000	8b 15 00 00 00
	00		 mov	 edx, DWORD PTR ?s_kVct_pkInstAliveSort@?1??__RenderSortedAliveActorList@CPythonCharacterManager@@IAEXXZ@4V?$vector@PAVCInstanceBase@@V?$allocator@PAVCInstanceBase@@@std@@@std@@A
  00006	85 d2		 test	 edx, edx
  00008	74 4d		 je	 SHORT $LN7@dynamic

; 2093 :             _Al.deallocate(_Myfirst, static_cast<size_type>(_Myend - _Myfirst));

  0000a	8b 0d 08 00 00
	00		 mov	 ecx, DWORD PTR ?s_kVct_pkInstAliveSort@?1??__RenderSortedAliveActorList@CPythonCharacterManager@@IAEXXZ@4V?$vector@PAVCInstanceBase@@V?$allocator@PAVCInstanceBase@@@std@@@std@@A+8
; File C:\Program Files\Microsoft Visual Studio\2022\Community\VC\Tools\MSVC\14.44.35207\include\xmemory

; 985  :         _STD _Deallocate<_New_alignof<_Ty>>(_Ptr, sizeof(_Ty) * _Count);

  00010	8b c2		 mov	 eax, edx
; File C:\Program Files\Microsoft Visual Studio\2022\Community\VC\Tools\MSVC\14.44.35207\include\vector

; 2093 :             _Al.deallocate(_Myfirst, static_cast<size_type>(_Myend - _Myfirst));

  00012	2b ca		 sub	 ecx, edx
; File C:\Program Files\Microsoft Visual Studio\2022\Community\VC\Tools\MSVC\14.44.35207\include\xmemory

; 985  :         _STD _Deallocate<_New_alignof<_Ty>>(_Ptr, sizeof(_Ty) * _Count);

  00014	83 e1 fc	 and	 ecx, -4			; fffffffcH

; 284  :         if (_Bytes >= _Big_allocation_threshold) {

  00017	81 f9 00 10 00
	00		 cmp	 ecx, 4096		; 00001000H
  0001d	72 10		 jb	 SHORT $LN21@dynamic

; 205  :     const uintptr_t _Ptr_container   = _Ptr_user[-1];

  0001f	8b 50 fc	 mov	 edx, DWORD PTR [eax-4]
  00022	83 c1 23	 add	 ecx, 35			; 00000023H
  00025	2b c2		 sub	 eax, edx

; 219  :     _STL_VERIFY(_Back_shift >= _Min_back_shift && _Back_shift <= _Non_user_size, "invalid argument");

  00027	83 c0 fc	 add	 eax, -4			; fffffffcH
  0002a	83 f8 1f	 cmp	 eax, 31			; 0000001fH
  0002d	77 29		 ja	 SHORT $LN29@dynamic
$LN21@dynamic:

; 289  :         ::operator delete(_Ptr, _Bytes);

  0002f	51		 push	 ecx
  00030	52		 push	 edx
  00031	e8 00 00 00 00	 call	 ??3@YAXPAXI@Z		; operator delete
  00036	83 c4 08	 add	 esp, 8
; File C:\Program Files\Microsoft Visual Studio\2022\Community\VC\Tools\MSVC\14.44.35207\include\vector

; 2095 :             _Myfirst = nullptr;

  00039	c7 05 00 00 00
	00 00 00 00 00	 mov	 DWORD PTR ?s_kVct_pkInstAliveSort@?1??__RenderSortedAliveActorList@CPythonCharacterManager@@IAEXXZ@4V?$vector@PAVCInstanceBase@@V?$allocator@PAVCInstanceBase@@@std@@@std@@A, 0

; 2096 :             _Mylast  = nullptr;

  00043	c7 05 04 00 00
	00 00 00 00 00	 mov	 DWORD PTR ?s_kVct_pkInstAliveSort@?1??__RenderSortedAliveActorList@CPythonCharacterManager@@IAEXXZ@4V?$vector@PAVCInstanceBase@@V?$allocator@PAVCInstanceBase@@@std@@@std@@A+4, 0

; 2097 :             _Myend   = nullptr;

  0004d	c7 05 08 00 00
	00 00 00 00 00	 mov	 DWORD PTR ?s_kVct_pkInstAliveSort@?1??__RenderSortedAliveActorList@CPythonCharacterManager@@IAEXXZ@4V?$vector@PAVCInstanceBase@@V?$allocator@PAVCInstanceBase@@@std@@@std@@A+8, 0
$LN7@dynamic:
  00057	c3		 ret	 0
$LN29@dynamic:
; File C:\Program Files\Microsoft Visual Studio\2022\Community\VC\Tools\MSVC\14.44.35207\include\xmemory

; 219  :     _STL_VERIFY(_Back_shift >= _Min_back_shift && _Back_shift <= _Non_user_size, "invalid argument");

  00058	6a 00		 push	 0
  0005a	6a 00		 push	 0
  0005c	6a 00		 push	 0
  0005e	6a 00		 push	 0
  00060	6a 00		 push	 0
  00062	e8 00 00 00 00	 call	 __invoke_watson
$LN27@dynamic:
  00067	cc		 int	 3
??__Fs_kVct_pkInstAliveSort@?1??__RenderSortedAliveActorList@CPythonCharacterManager@@IAEXXZ@YAXXZ ENDP ; `CPythonCharacterManager::__RenderSortedAliveActorList'::`2'::`dynamic atexit destructor for 's_kVct_pkInstAliveSort''
text$yd	ENDS
; Function compile flags: /Ogtp
; File C:\Program Files\Microsoft Visual Studio\2022\Community\VC\Tools\MSVC\14.44.35207\include\vector
; File C:\Program Files\Microsoft Visual Studio\2022\Community\VC\Tools\MSVC\14.44.35207\include\xmemory
; File C:\Program Files\Microsoft Visual Studio\2022\Community\VC\Tools\MSVC\14.44.35207\include\vector
; File C:\Program Files\Microsoft Visual Studio\2022\Community\VC\Tools\MSVC\14.44.35207\include\xmemory
; File C:\Program Files\Microsoft Visual Studio\2022\Community\VC\Tools\MSVC\14.44.35207\include\vector
; File C:\Program Files\Microsoft Visual Studio\2022\Community\VC\Tools\MSVC\14.44.35207\include\xmemory
;	COMDAT ??__Fs_kVct_pkInstDeadSort@?1??__RenderSortedDeadActorList@CPythonCharacterManager@@IAEXXZ@YAXXZ
text$yd	SEGMENT
??__Fs_kVct_pkInstDeadSort@?1??__RenderSortedDeadActorList@CPythonCharacterManager@@IAEXXZ@YAXXZ PROC ; `CPythonCharacterManager::__RenderSortedDeadActorList'::`2'::`dynamic atexit destructor for 's_kVct_pkInstDeadSort'', COMDAT
; File C:\Program Files\Microsoft Visual Studio\2022\Community\VC\Tools\MSVC\14.44.35207\include\vector

; 2090 :         if (_Myfirst) { // destroy and deallocate old array

  00000	8b 15 00 00 00
	00		 mov	 edx, DWORD PTR ?s_kVct_pkInstDeadSort@?1??__RenderSortedDeadActorList@CPythonCharacterManager@@IAEXXZ@4V?$vector@PAVCInstanceBase@@V?$allocator@PAVCInstanceBase@@@std@@@std@@A
  00006	85 d2		 test	 edx, edx
  00008	74 4d		 je	 SHORT $LN7@dynamic

; 2093 :             _Al.deallocate(_Myfirst, static_cast<size_type>(_Myend - _Myfirst));

  0000a	8b 0d 08 00 00
	00		 mov	 ecx, DWORD PTR ?s_kVct_pkInstDeadSort@?1??__RenderSortedDeadActorList@CPythonCharacterManager@@IAEXXZ@4V?$vector@PAVCInstanceBase@@V?$allocator@PAVCInstanceBase@@@std@@@std@@A+8
; File C:\Program Files\Microsoft Visual Studio\2022\Community\VC\Tools\MSVC\14.44.35207\include\xmemory

; 985  :         _STD _Deallocate<_New_alignof<_Ty>>(_Ptr, sizeof(_Ty) * _Count);

  00010	8b c2		 mov	 eax, edx
; File C:\Program Files\Microsoft Visual Studio\2022\Community\VC\Tools\MSVC\14.44.35207\include\vector

; 2093 :             _Al.deallocate(_Myfirst, static_cast<size_type>(_Myend - _Myfirst));

  00012	2b ca		 sub	 ecx, edx
; File C:\Program Files\Microsoft Visual Studio\2022\Community\VC\Tools\MSVC\14.44.35207\include\xmemory

; 985  :         _STD _Deallocate<_New_alignof<_Ty>>(_Ptr, sizeof(_Ty) * _Count);

  00014	83 e1 fc	 and	 ecx, -4			; fffffffcH

; 284  :         if (_Bytes >= _Big_allocation_threshold) {

  00017	81 f9 00 10 00
	00		 cmp	 ecx, 4096		; 00001000H
  0001d	72 10		 jb	 SHORT $LN21@dynamic

; 205  :     const uintptr_t _Ptr_container   = _Ptr_user[-1];

  0001f	8b 50 fc	 mov	 edx, DWORD PTR [eax-4]
  00022	83 c1 23	 add	 ecx, 35			; 00000023H
  00025	2b c2		 sub	 eax, edx

; 219  :     _STL_VERIFY(_Back_shift >= _Min_back_shift && _Back_shift <= _Non_user_size, "invalid argument");

  00027	83 c0 fc	 add	 eax, -4			; fffffffcH
  0002a	83 f8 1f	 cmp	 eax, 31			; 0000001fH
  0002d	77 29		 ja	 SHORT $LN29@dynamic
$LN21@dynamic:

; 289  :         ::operator delete(_Ptr, _Bytes);

  0002f	51		 push	 ecx
  00030	52		 push	 edx
  00031	e8 00 00 00 00	 call	 ??3@YAXPAXI@Z		; operator delete
  00036	83 c4 08	 add	 esp, 8
; File C:\Program Files\Microsoft Visual Studio\2022\Community\VC\Tools\MSVC\14.44.35207\include\vector

; 2095 :             _Myfirst = nullptr;

  00039	c7 05 00 00 00
	00 00 00 00 00	 mov	 DWORD PTR ?s_kVct_pkInstDeadSort@?1??__RenderSortedDeadActorList@CPythonCharacterManager@@IAEXXZ@4V?$vector@PAVCInstanceBase@@V?$allocator@PAVCInstanceBase@@@std@@@std@@A, 0

; 2096 :             _Mylast  = nullptr;

  00043	c7 05 04 00 00
	00 00 00 00 00	 mov	 DWORD PTR ?s_kVct_pkInstDeadSort@?1??__RenderSortedDeadActorList@CPythonCharacterManager@@IAEXXZ@4V?$vector@PAVCInstanceBase@@V?$allocator@PAVCInstanceBase@@@std@@@std@@A+4, 0

; 2097 :             _Myend   = nullptr;

  0004d	c7 05 08 00 00
	00 00 00 00 00	 mov	 DWORD PTR ?s_kVct_pkInstDeadSort@?1??__RenderSortedDeadActorList@CPythonCharacterManager@@IAEXXZ@4V?$vector@PAVCInstanceBase@@V?$allocator@PAVCInstanceBase@@@std@@@std@@A+8, 0
$LN7@dynamic:
  00057	c3		 ret	 0
$LN29@dynamic:
; File C:\Program Files\Microsoft Visual Studio\2022\Community\VC\Tools\MSVC\14.44.35207\include\xmemory

; 219  :     _STL_VERIFY(_Back_shift >= _Min_back_shift && _Back_shift <= _Non_user_size, "invalid argument");

  00058	6a 00		 push	 0
  0005a	6a 00		 push	 0
  0005c	6a 00		 push	 0
  0005e	6a 00		 push	 0
  00060	6a 00		 push	 0
  00062	e8 00 00 00 00	 call	 __invoke_watson
$LN27@dynamic:
  00067	cc		 int	 3
??__Fs_kVct_pkInstDeadSort@?1??__RenderSortedDeadActorList@CPythonCharacterManager@@IAEXXZ@YAXXZ ENDP ; `CPythonCharacterManager::__RenderSortedDeadActorList'::`2'::`dynamic atexit destructor for 's_kVct_pkInstDeadSort''
text$yd	ENDS
; Function compile flags: /Ogtp
; File C:\Anka2Project\Anka2Project\Source\Binary\source\UserInterface\PythonCharacterManager.cpp
; File C:\Program Files\Microsoft Visual Studio\2022\Community\VC\Tools\MSVC\14.44.35207\include\list
; File C:\Anka2Project\Anka2Project\Source\Binary\source\UserInterface\PythonCharacterManager.cpp
; File C:\Program Files\Microsoft Visual Studio\2022\Community\VC\Tools\MSVC\14.44.35207\include\list
; File C:\Program Files\Microsoft Visual Studio\2022\Community\VC\Tools\MSVC\14.44.35207\include\xmemory
; File C:\Program Files\Microsoft Visual Studio\2022\Community\VC\Tools\MSVC\14.44.35207\include\list
; File C:\Program Files\Microsoft Visual Studio\2022\Community\VC\Tools\MSVC\14.44.35207\include\xmemory
; File C:\Program Files\Microsoft Visual Studio\2022\Community\VC\Tools\MSVC\14.44.35207\include\list
; File C:\Program Files\Microsoft Visual Studio\2022\Community\VC\Tools\MSVC\14.44.35207\include\xmemory
; File C:\Program Files\Microsoft Visual Studio\2022\Community\VC\Tools\MSVC\14.44.35207\include\list
; File C:\Anka2Project\Anka2Project\Source\Binary\source\UserInterface\AbstractSingleton.h
; File C:\Program Files\Microsoft Visual Studio\2022\Community\VC\Tools\MSVC\14.44.35207\include\list
; File C:\Anka2Project\Anka2Project\Source\Binary\source\UserInterface\AbstractSingleton.h
; File C:\Anka2Project\Anka2Project\Source\Binary\source\UserInterface\PythonCharacterManager.cpp
; File C:\Program Files\Microsoft Visual Studio\2022\Community\VC\Tools\MSVC\14.44.35207\include\list
; File C:\Anka2Project\Anka2Project\Source\Binary\source\UserInterface\PythonCharacterManager.cpp
;	COMDAT ?__DeleteBlendOutInstance@CPythonCharacterManager@@IAEXPAVCInstanceBase@@@Z
_TEXT	SEGMENT
__Op$13 = -20						; size = 8
__$EHRec$ = -12						; size = 12
_pkInstDel$ = 8						; size = 4
?__DeleteBlendOutInstance@CPythonCharacterManager@@IAEXPAVCInstanceBase@@@Z PROC ; CPythonCharacterManager::__DeleteBlendOutInstance, COMDAT
; _this$ = ecx

; 512  : {

  00000	55		 push	 ebp
  00001	8b ec		 mov	 ebp, esp
  00003	6a ff		 push	 -1
  00005	68 00 00 00 00	 push	 __ehhandler$?__DeleteBlendOutInstance@CPythonCharacterManager@@IAEXPAVCInstanceBase@@@Z
  0000a	64 a1 00 00 00
	00		 mov	 eax, DWORD PTR fs:0
  00010	50		 push	 eax
  00011	83 ec 08	 sub	 esp, 8
  00014	53		 push	 ebx
  00015	56		 push	 esi
  00016	57		 push	 edi
  00017	a1 00 00 00 00	 mov	 eax, DWORD PTR ___security_cookie
  0001c	33 c5		 xor	 eax, ebp
  0001e	50		 push	 eax
  0001f	8d 45 f4	 lea	 eax, DWORD PTR __$EHRec$[ebp]
  00022	64 a3 00 00 00
	00		 mov	 DWORD PTR fs:0, eax
  00028	8b f1		 mov	 esi, ecx

; 513  : 	pkInstDel->DeleteBlendOut();

  0002a	8b 5d 08	 mov	 ebx, DWORD PTR _pkInstDel$[ebp]
  0002d	8b cb		 mov	 ecx, ebx
  0002f	e8 00 00 00 00	 call	 ?DeleteBlendOut@CInstanceBase@@QAEXXZ ; CInstanceBase::DeleteBlendOut
; File C:\Program Files\Microsoft Visual Studio\2022\Community\VC\Tools\MSVC\14.44.35207\include\list

; 1274 :         _Emplace(_Mypair._Myval2._Myhead, _Val);

  00034	8b 7e 28	 mov	 edi, DWORD PTR [esi+40]
; File C:\Anka2Project\Anka2Project\Source\Binary\source\UserInterface\PythonCharacterManager.cpp

; 514  : 	m_kDeadInstList.push_back(pkInstDel);	

  00037	83 c6 28	 add	 esi, 40			; 00000028H
; File C:\Program Files\Microsoft Visual Studio\2022\Community\VC\Tools\MSVC\14.44.35207\include\list

; 1030 :         if (_Mysize == max_size()) {

  0003a	81 7e 04 55 55
	55 15		 cmp	 DWORD PTR [esi+4], 357913941 ; 15555555H
  00041	74 7e		 je	 SHORT $LN71@DeleteBlen
; File C:\Program Files\Microsoft Visual Studio\2022\Community\VC\Tools\MSVC\14.44.35207\include\xmemory

; 1160 :     _CONSTEXPR20 explicit _Alloc_construct_ptr(_Alloc& _Al_) : _Al(_Al_), _Ptr(nullptr) {}

  00043	89 75 ec	 mov	 DWORD PTR __Op$13[ebp], esi
; File C:\Program Files\Microsoft Visual Studio\2022\Community\VC\Tools\MSVC\14.44.35207\include\list

; 593  :     explicit _List_node_emplace_op2(_Alnode& _Al_, _Valtys&&... _Vals) : _Alloc_construct_ptr<_Alnode>(_Al_) {

  00046	c7 45 fc 00 00
	00 00		 mov	 DWORD PTR __$EHRec$[ebp+8], 0
; File C:\Program Files\Microsoft Visual Studio\2022\Community\VC\Tools\MSVC\14.44.35207\include\xmemory

; 136  :         return ::operator new(_Bytes);

  0004d	6a 0c		 push	 12			; 0000000cH

; 1167 :         _Ptr = nullptr; // if allocate throws, prevents double-free

  0004f	c7 45 f0 00 00
	00 00		 mov	 DWORD PTR __Op$13[ebp+4], 0

; 136  :         return ::operator new(_Bytes);

  00056	e8 00 00 00 00	 call	 ??2@YAPAXI@Z		; operator new
; File C:\Program Files\Microsoft Visual Studio\2022\Community\VC\Tools\MSVC\14.44.35207\include\list

; 596  :     }

  0005b	c7 45 fc ff ff
	ff ff		 mov	 DWORD PTR __$EHRec$[ebp+8], -1
; File C:\Program Files\Microsoft Visual Studio\2022\Community\VC\Tools\MSVC\14.44.35207\include\xmemory

; 136  :         return ::operator new(_Bytes);

  00062	83 c4 04	 add	 esp, 4
; File C:\Program Files\Microsoft Visual Studio\2022\Community\VC\Tools\MSVC\14.44.35207\include\list

; 595  :         _Alnode_traits::construct(this->_Al, _STD addressof(this->_Ptr->_Myval), _STD forward<_Valtys>(_Vals)...);

  00065	89 58 08	 mov	 DWORD PTR [eax+8], ebx

; 1035 :         ++_Mysize;

  00068	ff 46 04	 inc	 DWORD PTR [esi+4]

; 608  :         const pointer _Insert_after = _Insert_before->_Prev;

  0006b	8b 4f 04	 mov	 ecx, DWORD PTR [edi+4]

; 609  :         _Construct_in_place(this->_Ptr->_Next, _Insert_before);

  0006e	89 38		 mov	 DWORD PTR [eax], edi

; 610  :         _Construct_in_place(this->_Ptr->_Prev, _Insert_after);

  00070	89 48 04	 mov	 DWORD PTR [eax+4], ecx

; 611  :         const auto _Result    = this->_Ptr;
; 612  :         this->_Ptr            = pointer{};
; 613  :         _Insert_before->_Prev = _Result;

  00073	89 47 04	 mov	 DWORD PTR [edi+4], eax
; File C:\Anka2Project\Anka2Project\Source\Binary\source\UserInterface\AbstractSingleton.h

; 24   : 		assert(ms_singleton!=nullptr);

  00076	8b 3d 00 00 00
	00		 mov	 edi, DWORD PTR ?ms_singleton@?$TAbstractSingleton@VIAbstractPlayer@@@@0PAVIAbstractPlayer@@A ; TAbstractSingleton<IAbstractPlayer>::ms_singleton
; File C:\Program Files\Microsoft Visual Studio\2022\Community\VC\Tools\MSVC\14.44.35207\include\list

; 614  :         _Insert_after->_Next  = _Result;

  0007c	89 01		 mov	 DWORD PTR [ecx], eax
; File C:\Anka2Project\Anka2Project\Source\Binary\source\UserInterface\AbstractSingleton.h

; 24   : 		assert(ms_singleton!=nullptr);

  0007e	85 ff		 test	 edi, edi
  00080	75 1a		 jne	 SHORT $LN67@DeleteBlen
  00082	6a 18		 push	 24			; 00000018H
  00084	68 00 00 00 00	 push	 OFFSET ??_C@_1KI@FIPHLMOB@?$AAC?$AA?3?$AA?2?$AAA?$AAn?$AAk?$AAa?$AA2?$AAP?$AAr?$AAo?$AAj?$AAe?$AAc?$AAt@
  00089	68 00 00 00 00	 push	 OFFSET ??_C@_1CM@FPMBEAEA@?$AAm?$AAs?$AA_?$AAs?$AAi?$AAn?$AAg?$AAl?$AAe?$AAt?$AAo?$AAn?$AA?$CB?$AA?$DN?$AAn@
  0008e	e8 00 00 00 00	 call	 __wassert
  00093	8b 3d 00 00 00
	00		 mov	 edi, DWORD PTR ?ms_singleton@?$TAbstractSingleton@VIAbstractPlayer@@@@0PAVIAbstractPlayer@@A ; TAbstractSingleton<IAbstractPlayer>::ms_singleton
  00099	83 c4 0c	 add	 esp, 12			; 0000000cH
$LN67@DeleteBlen:
; File C:\Anka2Project\Anka2Project\Source\Binary\source\UserInterface\PythonCharacterManager.cpp

; 517  : 	rkPlayer.NotifyCharacterDead(pkInstDel->GetVirtualID());

  0009c	8b 07		 mov	 eax, DWORD PTR [edi]
  0009e	8b cb		 mov	 ecx, ebx
  000a0	8b 70 70	 mov	 esi, DWORD PTR [eax+112]
  000a3	e8 00 00 00 00	 call	 ?GetVirtualID@CInstanceBase@@QAEKXZ ; CInstanceBase::GetVirtualID
  000a8	50		 push	 eax
  000a9	8b cf		 mov	 ecx, edi
  000ab	ff d6		 call	 esi

; 518  : }

  000ad	8b 4d f4	 mov	 ecx, DWORD PTR __$EHRec$[ebp]
  000b0	64 89 0d 00 00
	00 00		 mov	 DWORD PTR fs:0, ecx
  000b7	59		 pop	 ecx
  000b8	5f		 pop	 edi
  000b9	5e		 pop	 esi
  000ba	5b		 pop	 ebx
  000bb	8b e5		 mov	 esp, ebp
  000bd	5d		 pop	 ebp
  000be	c2 04 00	 ret	 4
$LN71@DeleteBlen:
; File C:\Program Files\Microsoft Visual Studio\2022\Community\VC\Tools\MSVC\14.44.35207\include\list

; 1031 :             _Xlength_error("list too long");

  000c1	68 00 00 00 00	 push	 OFFSET ??_C@_0O@NKNMEGII@list?5too?5long@
  000c6	e8 00 00 00 00	 call	 ?_Xlength_error@std@@YAXPBD@Z ; std::_Xlength_error
$LN69@DeleteBlen:
  000cb	cc		 int	 3
_TEXT	ENDS
;	COMDAT text$x
text$x	SEGMENT
__unwindfunclet$?__DeleteBlendOutInstance@CPythonCharacterManager@@IAEXPAVCInstanceBase@@@Z$1:
  00000	8d 4d ec	 lea	 ecx, DWORD PTR __Op$13[ebp]
  00003	e9 00 00 00 00	 jmp	 ??1?$_Alloc_construct_ptr@V?$allocator@U?$_List_node@PAVCInstanceBase@@PAX@std@@@std@@@std@@QAE@XZ ; std::_Alloc_construct_ptr<std::allocator<std::_List_node<CInstanceBase *,void *> > >::~_Alloc_construct_ptr<std::allocator<std::_List_node<CInstanceBase *,void *> > >
  00008	cc		 int	 3
  00009	cc		 int	 3
  0000a	cc		 int	 3
  0000b	cc		 int	 3
  0000c	cc		 int	 3
__ehhandler$?__DeleteBlendOutInstance@CPythonCharacterManager@@IAEXPAVCInstanceBase@@@Z:
  0000d	90		 npad	 1
  0000e	90		 npad	 1
  0000f	8b 54 24 08	 mov	 edx, DWORD PTR [esp+8]
  00013	8d 42 0c	 lea	 eax, DWORD PTR [edx+12]
  00016	8b 4a e8	 mov	 ecx, DWORD PTR [edx-24]
  00019	33 c8		 xor	 ecx, eax
  0001b	e8 00 00 00 00	 call	 @__security_check_cookie@4
  00020	b8 00 00 00 00	 mov	 eax, OFFSET __ehfuncinfo$?__DeleteBlendOutInstance@CPythonCharacterManager@@IAEXPAVCInstanceBase@@@Z
  00025	e9 00 00 00 00	 jmp	 ___CxxFrameHandler3
text$x	ENDS
?__DeleteBlendOutInstance@CPythonCharacterManager@@IAEXPAVCInstanceBase@@@Z ENDP ; CPythonCharacterManager::__DeleteBlendOutInstance
; Function compile flags: /Ogtp
; File C:\Anka2Project\Anka2Project\Source\Binary\source\UserInterface\PythonCharacterManager.cpp
; File C:\Anka2Project\Anka2Project\Source\Binary\source\eterBase\Singleton.h
; File C:\Anka2Project\Anka2Project\Source\Binary\source\UserInterface\PythonCharacterManager.cpp
; File C:\Anka2Project\Anka2Project\Source\Binary\source\eterBase\Singleton.h
; File C:\Anka2Project\Anka2Project\Source\Binary\source\UserInterface\PythonCharacterManager.cpp
; File C:\Program Files\Microsoft Visual Studio\2022\Community\VC\Tools\MSVC\14.44.35207\include\vector
; File C:\Anka2Project\Anka2Project\Source\Binary\source\UserInterface\PythonCharacterManager.cpp
; File C:\Program Files\Microsoft Visual Studio\2022\Community\VC\Tools\MSVC\14.44.35207\include\vector
; File C:\Program Files\Microsoft Visual Studio\2022\Community\VC\Tools\MSVC\14.44.35207\include\xtree
; File C:\Anka2Project\Anka2Project\Source\Binary\source\UserInterface\PythonCharacterManager.cpp
; File C:\Program Files\Microsoft Visual Studio\2022\Community\VC\Tools\MSVC\14.44.35207\include\xtree
; File C:\Anka2Project\Anka2Project\Source\Binary\source\UserInterface\PythonCharacterManager.cpp
; File C:\Anka2Project\Anka2Project\Source\Binary\extern\include\d3dx8math.inl
; File C:\Anka2Project\Anka2Project\Source\Binary\source\UserInterface\PythonCharacterManager.cpp
; File C:\Anka2Project\Anka2Project\Source\Binary\extern\include\d3dx8math.inl
; File C:\Anka2Project\Anka2Project\Source\Binary\source\UserInterface\PythonCharacterManager.cpp
; File C:\Anka2Project\Anka2Project\Source\Binary\extern\include\d3dx8math.inl
; File C:\Anka2Project\Anka2Project\Source\Binary\source\UserInterface\PythonCharacterManager.cpp
; File C:\Anka2Project\Anka2Project\Source\Binary\extern\include\d3dx8math.inl
; File C:\Anka2Project\Anka2Project\Source\Binary\source\UserInterface\PythonCharacterManager.cpp
; File C:\Anka2Project\Anka2Project\Source\Binary\extern\include\d3dx8math.inl
; File C:\Anka2Project\Anka2Project\Source\Binary\source\UserInterface\PythonCharacterManager.cpp
; File C:\Anka2Project\Anka2Project\Source\Binary\extern\include\d3dx8math.inl
; File C:\Anka2Project\Anka2Project\Source\Binary\source\UserInterface\PythonCharacterManager.cpp
; File C:\Anka2Project\Anka2Project\Source\Binary\extern\include\d3dx8math.inl
; File C:\Anka2Project\Anka2Project\Source\Binary\source\UserInterface\PythonCharacterManager.cpp
; File C:\Anka2Project\Anka2Project\Source\Binary\extern\include\d3dx8math.inl
; File C:\Anka2Project\Anka2Project\Source\Binary\source\UserInterface\PythonCharacterManager.cpp
; File C:\Anka2Project\Anka2Project\Source\Binary\extern\include\d3dx8math.inl
; File C:\Anka2Project\Anka2Project\Source\Binary\source\UserInterface\PythonCharacterManager.cpp
; File C:\Program Files\Microsoft Visual Studio\2022\Community\VC\Tools\MSVC\14.44.35207\include\vector
; File C:\Program Files\Microsoft Visual Studio\2022\Community\VC\Tools\MSVC\14.44.35207\include\utility
; File C:\Program Files\Microsoft Visual Studio\2022\Community\VC\Tools\MSVC\14.44.35207\include\vector
; File C:\Anka2Project\Anka2Project\Source\Binary\source\UserInterface\PythonCharacterManager.cpp
; File C:\Program Files\Microsoft Visual Studio\2022\Community\VC\Tools\MSVC\14.44.35207\include\xtree
; File C:\Anka2Project\Anka2Project\Source\Binary\source\UserInterface\PythonCharacterManager.cpp
; File C:\Program Files\Microsoft Visual Studio\2022\Community\VC\Tools\MSVC\14.44.35207\include\vector
; File C:\Anka2Project\Anka2Project\Source\Binary\source\UserInterface\PythonCharacterManager.cpp
; File C:\Program Files\Microsoft Visual Studio\2022\Community\VC\Tools\MSVC\14.44.35207\include\algorithm
; File C:\Anka2Project\Anka2Project\Source\Binary\source\UserInterface\PythonCharacterManager.cpp
; File C:\Program Files\Microsoft Visual Studio\2022\Community\VC\Tools\MSVC\14.44.35207\include\vector
; File C:\Program Files\Microsoft Visual Studio\2022\Community\VC\Tools\MSVC\14.44.35207\include\xmemory
; File C:\Program Files\Microsoft Visual Studio\2022\Community\VC\Tools\MSVC\14.44.35207\include\vector
; File C:\Program Files\Microsoft Visual Studio\2022\Community\VC\Tools\MSVC\14.44.35207\include\xmemory
; File C:\Anka2Project\Anka2Project\Source\Binary\source\UserInterface\PythonCharacterManager.cpp
; File C:\Program Files\Microsoft Visual Studio\2022\Community\VC\Tools\MSVC\14.44.35207\include\xmemory
; File C:\Anka2Project\Anka2Project\Source\Binary\source\UserInterface\PythonCharacterManager.cpp
;	COMDAT ?FindVictim@CPythonCharacterManager@@QAEPAVCInstanceBase@@PAV2@MPAUD3DXVECTOR3@@_N2@Z
_TEXT	SEGMENT
_targetPos$ = -112					; size = 12
_pkVictim$33 = -100					; size = 4
_fMaxDistance$1$ = -96					; size = 4
_inc$31$sroa$665$1$ = -92				; size = 4
_inc$31$sroa$667$1$ = -88				; size = 4
_pWorld$1$ = -84					; size = 4
_targetPlayerVID$1$ = -80				; size = 4
_itor$34 = -76						; size = 4
_pkInstMain$GSCopy$1$ = -72				; size = 4
_c_rv3Src$1$ = -68					; size = 4
_m_vecVictimList$ = -64					; size = 12
_fDistance$35 = -52					; size = 4
_inc$31$sroa$664$1$ = -52				; size = 4
_this$GSCopy$1$ = -48					; size = 4
_v3Movement$$sroa$668$1$ = -44				; size = 4
_v3Movement$$sroa$669$1$ = -40				; size = 4
_v3Movement$$sroa$670$1$ = -36				; size = 4
$T13 = -32						; size = 12
__$ArrayPad$ = -20					; size = 4
__$EHRec$ = -12						; size = 12
_pkInstMain$ = 8					; size = 4
_startPoint$ = 12					; size = 4
_m_bAutoHuntMob$ = 16					; size = 1
_m_bAutoHuntStone$ = 20					; size = 1
?FindVictim@CPythonCharacterManager@@QAEPAVCInstanceBase@@PAV2@MPAUD3DXVECTOR3@@_N2@Z PROC ; CPythonCharacterManager::FindVictim, COMDAT
; _this$ = ecx
; _fMaxDistance$ = xmm2s

; 897  : {

  00000	53		 push	 ebx
  00001	8b dc		 mov	 ebx, esp
  00003	83 ec 08	 sub	 esp, 8
  00006	83 e4 f8	 and	 esp, -8			; fffffff8H
  00009	83 c4 04	 add	 esp, 4
  0000c	55		 push	 ebp
  0000d	8b 6b 04	 mov	 ebp, DWORD PTR [ebx+4]
  00010	89 6c 24 04	 mov	 DWORD PTR [esp+4], ebp
  00014	8b ec		 mov	 ebp, esp
  00016	6a ff		 push	 -1
  00018	68 00 00 00 00	 push	 __ehhandler$?FindVictim@CPythonCharacterManager@@QAEPAVCInstanceBase@@PAV2@MPAUD3DXVECTOR3@@_N2@Z
  0001d	64 a1 00 00 00
	00		 mov	 eax, DWORD PTR fs:0
  00023	50		 push	 eax
  00024	53		 push	 ebx
  00025	83 ec 60	 sub	 esp, 96			; 00000060H
  00028	a1 00 00 00 00	 mov	 eax, DWORD PTR ___security_cookie
  0002d	33 c5		 xor	 eax, ebp
  0002f	89 45 ec	 mov	 DWORD PTR __$ArrayPad$[ebp], eax
  00032	56		 push	 esi
  00033	57		 push	 edi
  00034	50		 push	 eax
  00035	8d 45 f4	 lea	 eax, DWORD PTR __$EHRec$[ebp]
  00038	64 a3 00 00 00
	00		 mov	 DWORD PTR fs:0, eax
  0003e	f3 0f 11 55 a0	 movss	 DWORD PTR _fMaxDistance$1$[ebp], xmm2
  00043	89 4d d0	 mov	 DWORD PTR _this$GSCopy$1$[ebp], ecx
  00046	8b 7b 08	 mov	 edi, DWORD PTR _pkInstMain$[ebx]
  00049	89 7d b8	 mov	 DWORD PTR _pkInstMain$GSCopy$1$[ebp], edi

; 898  : 	if (!pkInstMain)

  0004c	85 ff		 test	 edi, edi
  0004e	0f 84 87 02 00
	00		 je	 $LN197@FindVictim

; 899  : 		return NULL;
; 900  : 	IPhysicsWorld* pWorld = IPhysicsWorld::GetPhysicsWorld();

  00054	a1 00 00 00 00	 mov	 eax, DWORD PTR ?ms_pWorld@IPhysicsWorld@@0PAV1@A ; IPhysicsWorld::ms_pWorld
  00059	89 45 ac	 mov	 DWORD PTR _pWorld$1$[ebp], eax

; 901  : 	if (!pWorld)

  0005c	85 c0		 test	 eax, eax
  0005e	0f 84 77 02 00
	00		 je	 $LN197@FindVictim

; 903  : 	const D3DXVECTOR3& c_rv3Src = pkInstMain->GetGraphicThingInstanceRef().GetPosition();

  00064	8b cf		 mov	 ecx, edi
  00066	e8 00 00 00 00	 call	 ?GetGraphicThingInstanceRef@CInstanceBase@@QAEAAVCActorInstance@@XZ ; CInstanceBase::GetGraphicThingInstanceRef
  0006b	8b c8		 mov	 ecx, eax
  0006d	e8 00 00 00 00	 call	 ?GetPosition@CGraphicObjectInstance@@QBEABUD3DXVECTOR3@@XZ ; CGraphicObjectInstance::GetPosition
; File C:\Anka2Project\Anka2Project\Source\Binary\source\eterBase\Singleton.h

; 26   : 		assert(ms_singleton);

  00072	8b 0d 00 00 00
	00		 mov	 ecx, DWORD PTR ?ms_singleton@?$CSingleton@VCPythonPlayer@@@@0PAVCPythonPlayer@@A ; CSingleton<CPythonPlayer>::ms_singleton
; File C:\Anka2Project\Anka2Project\Source\Binary\source\UserInterface\PythonCharacterManager.cpp

; 903  : 	const D3DXVECTOR3& c_rv3Src = pkInstMain->GetGraphicThingInstanceRef().GetPosition();

  00078	89 45 bc	 mov	 DWORD PTR _c_rv3Src$1$[ebp], eax
; File C:\Anka2Project\Anka2Project\Source\Binary\source\eterBase\Singleton.h

; 26   : 		assert(ms_singleton);

  0007b	85 c9		 test	 ecx, ecx
  0007d	75 1a		 jne	 SHORT $LN107@FindVictim
  0007f	6a 1a		 push	 26			; 0000001aH
  00081	68 00 00 00 00	 push	 OFFSET ??_C@_1IO@CAJLEEOI@?$AAC?$AA?3?$AA?2?$AAA?$AAn?$AAk?$AAa?$AA2?$AAP?$AAr?$AAo?$AAj?$AAe?$AAc?$AAt@
  00086	68 00 00 00 00	 push	 OFFSET ??_C@_1BK@FMEHPMFE@?$AAm?$AAs?$AA_?$AAs?$AAi?$AAn?$AAg?$AAl?$AAe?$AAt?$AAo?$AAn@
  0008b	e8 00 00 00 00	 call	 __wassert
  00090	8b 0d 00 00 00
	00		 mov	 ecx, DWORD PTR ?ms_singleton@?$CSingleton@VCPythonPlayer@@@@0PAVCPythonPlayer@@A ; CSingleton<CPythonPlayer>::ms_singleton
  00096	83 c4 0c	 add	 esp, 12			; 0000000cH
$LN107@FindVictim:
; File C:\Anka2Project\Anka2Project\Source\Binary\source\UserInterface\PythonCharacterManager.cpp

; 904  : 	const DWORD targetPlayerVID = CPythonPlayer::Instance().GetTargetVID();

  00099	e8 00 00 00 00	 call	 ?GetTargetVID@CPythonPlayer@@QAEKXZ ; CPythonPlayer::GetTargetVID
; File C:\Program Files\Microsoft Visual Studio\2022\Community\VC\Tools\MSVC\14.44.35207\include\vector

; 400  :     _CONSTEXPR20 _Vector_val() noexcept : _Myfirst(), _Mylast(), _Myend() {}

  0009e	33 f6		 xor	 esi, esi
; File C:\Anka2Project\Anka2Project\Source\Binary\source\UserInterface\PythonCharacterManager.cpp

; 904  : 	const DWORD targetPlayerVID = CPythonPlayer::Instance().GetTargetVID();

  000a0	89 45 b0	 mov	 DWORD PTR _targetPlayerVID$1$[ebp], eax
; File C:\Program Files\Microsoft Visual Studio\2022\Community\VC\Tools\MSVC\14.44.35207\include\vector

; 400  :     _CONSTEXPR20 _Vector_val() noexcept : _Myfirst(), _Mylast(), _Myend() {}

  000a3	89 75 c0	 mov	 DWORD PTR _m_vecVictimList$[ebp], esi
  000a6	89 75 c4	 mov	 DWORD PTR _m_vecVictimList$[ebp+4], esi
  000a9	89 75 c8	 mov	 DWORD PTR _m_vecVictimList$[ebp+8], esi
; File C:\Program Files\Microsoft Visual Studio\2022\Community\VC\Tools\MSVC\14.44.35207\include\xtree

; 1142 :         return iterator(_Scary->_Myhead->_Left, _Scary);

  000ac	8b 45 d0	 mov	 eax, DWORD PTR _this$GSCopy$1$[ebp]
; File C:\Anka2Project\Anka2Project\Source\Binary\source\UserInterface\PythonCharacterManager.cpp

; 907  : 	std::vector<std::pair<CInstanceBase*, float>> m_vecVictimList;

  000af	89 75 fc	 mov	 DWORD PTR __$EHRec$[ebp+8], esi
; File C:\Program Files\Microsoft Visual Studio\2022\Community\VC\Tools\MSVC\14.44.35207\include\xtree

; 1142 :         return iterator(_Scary->_Myhead->_Left, _Scary);

  000b2	8b 48 20	 mov	 ecx, DWORD PTR [eax+32]

; 37   :     _Tree_unchecked_const_iterator(_Nodeptr _Pnode, const _Mytree* _Plist) noexcept : _Ptr(_Pnode) {

  000b5	8b 01		 mov	 eax, DWORD PTR [ecx]
  000b7	89 45 b4	 mov	 DWORD PTR _itor$34[ebp], eax
  000ba	3b c1		 cmp	 eax, ecx
; File C:\Anka2Project\Anka2Project\Source\Binary\source\UserInterface\PythonCharacterManager.cpp

; 909  : 	for (TCharacterInstanceMap::iterator itor = m_kAliveInstMap.begin(); itor != m_kAliveInstMap.end(); ++itor)

  000bc	0f 84 b9 01 00
	00		 je	 $LN3@FindVictim
$LL4@FindVictim:

; 910  : 	{
; 911  : 		CInstanceBase* pkVictim = itor->second;

  000c2	8b 70 14	 mov	 esi, DWORD PTR [eax+20]
  000c5	89 75 9c	 mov	 DWORD PTR _pkVictim$33[ebp], esi
  000c8	3b f7		 cmp	 esi, edi

; 912  : 		if (pkVictim == pkInstMain || pkVictim->IsDead() || pkVictim->GetVirtualID() == targetPlayerVID || !pkInstMain->IsAttackableInstance(*pkVictim))

  000ca	0f 84 91 01 00
	00		 je	 $LN2@FindVictim
  000d0	8b ce		 mov	 ecx, esi
  000d2	e8 00 00 00 00	 call	 ?IsDead@CInstanceBase@@QAEHXZ ; CInstanceBase::IsDead
  000d7	85 c0		 test	 eax, eax
  000d9	0f 85 82 01 00
	00		 jne	 $LN2@FindVictim
  000df	8b ce		 mov	 ecx, esi
  000e1	e8 00 00 00 00	 call	 ?GetVirtualID@CInstanceBase@@QAEKXZ ; CInstanceBase::GetVirtualID
  000e6	3b 45 b0	 cmp	 eax, DWORD PTR _targetPlayerVID$1$[ebp]
  000e9	0f 84 72 01 00
	00		 je	 $LN2@FindVictim
  000ef	56		 push	 esi
  000f0	8b cf		 mov	 ecx, edi
  000f2	e8 00 00 00 00	 call	 ?IsAttackableInstance@CInstanceBase@@QAE_NAAV1@@Z ; CInstanceBase::IsAttackableInstance
  000f7	84 c0		 test	 al, al
  000f9	0f 84 62 01 00
	00		 je	 $LN2@FindVictim

; 913  : 			continue;
; 914  : 		else if (pkVictim->IsEnemy() && !m_bAutoHuntMob)

  000ff	8b ce		 mov	 ecx, esi
  00101	e8 00 00 00 00	 call	 ?IsEnemy@CInstanceBase@@QAEHXZ ; CInstanceBase::IsEnemy
  00106	85 c0		 test	 eax, eax
  00108	74 0a		 je	 SHORT $LN13@FindVictim
  0010a	80 7b 10 00	 cmp	 BYTE PTR _m_bAutoHuntMob$[ebx], 0
  0010e	0f 84 4d 01 00
	00		 je	 $LN2@FindVictim
$LN13@FindVictim:

; 915  : 			continue;
; 916  : 		else if (pkVictim->IsStone() && !m_bAutoHuntStone)

  00114	8b ce		 mov	 ecx, esi
  00116	e8 00 00 00 00	 call	 ?IsStone@CInstanceBase@@QAEHXZ ; CInstanceBase::IsStone
  0011b	85 c0		 test	 eax, eax
  0011d	74 0a		 je	 SHORT $LN15@FindVictim
  0011f	80 7b 14 00	 cmp	 BYTE PTR _m_bAutoHuntStone$[ebx], 0
  00123	0f 84 38 01 00
	00		 je	 $LN2@FindVictim
$LN15@FindVictim:
  00129	0f 57 c0	 xorps	 xmm0, xmm0

; 917  : 			continue;
; 918  : 		v3Movement.x = 0.0, v3Movement.y = 0.0, v3Movement.z = 0.0;
; 919  : 		pkVictim->NEW_GetPixelPosition(&targetPos);

  0012c	8d 45 90	 lea	 eax, DWORD PTR _targetPos$[ebp]
  0012f	50		 push	 eax
  00130	8b ce		 mov	 ecx, esi
  00132	f3 0f 11 45 dc	 movss	 DWORD PTR _v3Movement$$sroa$670$1$[ebp], xmm0
  00137	f3 0f 11 45 d8	 movss	 DWORD PTR _v3Movement$$sroa$669$1$[ebp], xmm0
  0013c	f3 0f 11 45 d4	 movss	 DWORD PTR _v3Movement$$sroa$668$1$[ebp], xmm0
  00141	e8 00 00 00 00	 call	 ?NEW_GetPixelPosition@CInstanceBase@@QAEXPAUD3DXVECTOR3@@@Z ; CInstanceBase::NEW_GetPixelPosition

; 920  : 		c_v3Dst.x = targetPos.x, c_v3Dst.y = -targetPos.y, c_v3Dst.z = c_rv3Src.z;

  00146	8b 4d bc	 mov	 ecx, DWORD PTR _c_rv3Src$1$[ebp]

; 925  : 		for (int i = 0; i < whileCount; ++i)

  00149	33 ff		 xor	 edi, edi
; File C:\Anka2Project\Anka2Project\Source\Binary\extern\include\d3dx8math.inl

; 263  :     return D3DXVECTOR3(x - v.x, y - v.y, z - v.z);

  0014b	f3 0f 10 45 90	 movss	 xmm0, DWORD PTR _targetPos$[ebp]

; 275  :     FLOAT fInv = 1.0f / f;

  00150	f3 0f 10 15 00
	00 00 00	 movss	 xmm2, DWORD PTR __real@3c23d70a

; 263  :     return D3DXVECTOR3(x - v.x, y - v.y, z - v.z);

  00158	f3 0f 5c 01	 subss	 xmm0, DWORD PTR [ecx]
; File C:\Anka2Project\Anka2Project\Source\Binary\source\UserInterface\PythonCharacterManager.cpp

; 920  : 		c_v3Dst.x = targetPos.x, c_v3Dst.y = -targetPos.y, c_v3Dst.z = c_rv3Src.z;

  0015c	f3 0f 10 49 08	 movss	 xmm1, DWORD PTR [ecx+8]
; File C:\Anka2Project\Anka2Project\Source\Binary\extern\include\d3dx8math.inl

; 263  :     return D3DXVECTOR3(x - v.x, y - v.y, z - v.z);

  00161	f3 0f 5c c9	 subss	 xmm1, xmm1

; 275  :     FLOAT fInv = 1.0f / f;

  00165	f3 0f 59 c2	 mulss	 xmm0, xmm2

; 181  :     y = fy;

  00169	f3 0f 59 ca	 mulss	 xmm1, xmm2

; 275  :     FLOAT fInv = 1.0f / f;

  0016d	f3 0f 11 45 a8	 movss	 DWORD PTR _inc$31$sroa$667$1$[ebp], xmm0
; File C:\Anka2Project\Anka2Project\Source\Binary\source\UserInterface\PythonCharacterManager.cpp

; 920  : 		c_v3Dst.x = targetPos.x, c_v3Dst.y = -targetPos.y, c_v3Dst.z = c_rv3Src.z;

  00172	f3 0f 10 45 94	 movss	 xmm0, DWORD PTR _targetPos$[ebp+4]
  00177	0f 57 05 00 00
	00 00		 xorps	 xmm0, DWORD PTR __xmm@80000000800000008000000080000000
; File C:\Anka2Project\Anka2Project\Source\Binary\extern\include\d3dx8math.inl

; 263  :     return D3DXVECTOR3(x - v.x, y - v.y, z - v.z);

  0017e	f3 0f 5c 41 04	 subss	 xmm0, DWORD PTR [ecx+4]

; 181  :     y = fy;

  00183	f3 0f 11 4d cc	 movss	 DWORD PTR _inc$31$sroa$664$1$[ebp], xmm1
  00188	f3 0f 59 c2	 mulss	 xmm0, xmm2
  0018c	f3 0f 11 45 a4	 movss	 DWORD PTR _inc$31$sroa$665$1$[ebp], xmm0
  00191	f3 0f 10 45 dc	 movss	 xmm0, DWORD PTR _v3Movement$$sroa$670$1$[ebp]
  00196	0f 28 c8	 movaps	 xmm1, xmm0
  00199	0f 28 d0	 movaps	 xmm2, xmm0
  0019c	0f 1f 40 00	 npad	 4
$LL7@FindVictim:
; File C:\Anka2Project\Anka2Project\Source\Binary\source\UserInterface\PythonCharacterManager.cpp

; 927  : 			if (pWorld->isPhysicalCollision(c_rv3Src + v3Movement))

  001a0	8b 55 ac	 mov	 edx, DWORD PTR _pWorld$1$[ebp]
; File C:\Anka2Project\Anka2Project\Source\Binary\extern\include\d3dx8math.inl

; 257  :     return D3DXVECTOR3(x + v.x, y + v.y, z + v.z);

  001a3	f3 0f 58 01	 addss	 xmm0, DWORD PTR [ecx]
  001a7	f3 0f 58 49 04	 addss	 xmm1, DWORD PTR [ecx+4]
  001ac	f3 0f 58 51 08	 addss	 xmm2, DWORD PTR [ecx+8]
; File C:\Anka2Project\Anka2Project\Source\Binary\source\UserInterface\PythonCharacterManager.cpp

; 927  : 			if (pWorld->isPhysicalCollision(c_rv3Src + v3Movement))

  001b1	8b 02		 mov	 eax, DWORD PTR [edx]
  001b3	8d 4d e0	 lea	 ecx, DWORD PTR $T13[ebp]
  001b6	51		 push	 ecx
  001b7	8b ca		 mov	 ecx, edx
; File C:\Anka2Project\Anka2Project\Source\Binary\extern\include\d3dx8math.inl

; 180  :     x = fx;

  001b9	f3 0f 11 45 e0	 movss	 DWORD PTR $T13[ebp], xmm0

; 181  :     y = fy;

  001be	f3 0f 11 4d e4	 movss	 DWORD PTR $T13[ebp+4], xmm1
; File C:\Anka2Project\Anka2Project\Source\Binary\source\UserInterface\PythonCharacterManager.cpp

; 927  : 			if (pWorld->isPhysicalCollision(c_rv3Src + v3Movement))

  001c3	8b 40 04	 mov	 eax, DWORD PTR [eax+4]
; File C:\Anka2Project\Anka2Project\Source\Binary\extern\include\d3dx8math.inl

; 182  :     z = fz;

  001c6	f3 0f 11 55 e8	 movss	 DWORD PTR $T13[ebp+8], xmm2
; File C:\Anka2Project\Anka2Project\Source\Binary\source\UserInterface\PythonCharacterManager.cpp

; 927  : 			if (pWorld->isPhysicalCollision(c_rv3Src + v3Movement))

  001cb	ff d0		 call	 eax
  001cd	84 c0		 test	 al, al
  001cf	0f 85 89 00 00
	00		 jne	 $LN200@FindVictim
; File C:\Anka2Project\Anka2Project\Source\Binary\extern\include\d3dx8math.inl

; 204  :     x += v.x;

  001d5	f3 0f 10 45 dc	 movss	 xmm0, DWORD PTR _v3Movement$$sroa$670$1$[ebp]
; File C:\Anka2Project\Anka2Project\Source\Binary\source\UserInterface\PythonCharacterManager.cpp

; 925  : 		for (int i = 0; i < whileCount; ++i)

  001da	47		 inc	 edi
; File C:\Anka2Project\Anka2Project\Source\Binary\extern\include\d3dx8math.inl

; 205  :     y += v.y;

  001db	f3 0f 10 4d d8	 movss	 xmm1, DWORD PTR _v3Movement$$sroa$669$1$[ebp]

; 206  :     z += v.z;

  001e0	f3 0f 10 55 d4	 movss	 xmm2, DWORD PTR _v3Movement$$sroa$668$1$[ebp]
; File C:\Anka2Project\Anka2Project\Source\Binary\source\UserInterface\PythonCharacterManager.cpp

; 925  : 		for (int i = 0; i < whileCount; ++i)

  001e5	8b 4d bc	 mov	 ecx, DWORD PTR _c_rv3Src$1$[ebp]
; File C:\Anka2Project\Anka2Project\Source\Binary\extern\include\d3dx8math.inl

; 204  :     x += v.x;

  001e8	f3 0f 58 45 a8	 addss	 xmm0, DWORD PTR _inc$31$sroa$667$1$[ebp]

; 205  :     y += v.y;

  001ed	f3 0f 58 4d a4	 addss	 xmm1, DWORD PTR _inc$31$sroa$665$1$[ebp]

; 206  :     z += v.z;

  001f2	f3 0f 58 55 cc	 addss	 xmm2, DWORD PTR _inc$31$sroa$664$1$[ebp]
  001f7	f3 0f 11 45 dc	 movss	 DWORD PTR _v3Movement$$sroa$670$1$[ebp], xmm0
  001fc	f3 0f 11 4d d8	 movss	 DWORD PTR _v3Movement$$sroa$669$1$[ebp], xmm1
  00201	f3 0f 11 55 d4	 movss	 DWORD PTR _v3Movement$$sroa$668$1$[ebp], xmm2
; File C:\Anka2Project\Anka2Project\Source\Binary\source\UserInterface\PythonCharacterManager.cpp

; 925  : 		for (int i = 0; i < whileCount; ++i)

  00206	83 ff 64	 cmp	 edi, 100		; 00000064H
  00209	7c 95		 jl	 SHORT $LL7@FindVictim

; 928  : 			{
; 929  : 				hasPhysicalBlock = true;
; 930  : 				break;
; 931  : 			}
; 932  : 			v3Movement += inc;
; 933  : 		}
; 934  : 		if (hasPhysicalBlock || CanAttackToTarget(pkInstMain, pkVictim))

  0020b	8b 7d b8	 mov	 edi, DWORD PTR _pkInstMain$GSCopy$1$[ebp]
  0020e	8b 4d d0	 mov	 ecx, DWORD PTR _this$GSCopy$1$[ebp]
  00211	56		 push	 esi
  00212	57		 push	 edi
  00213	e8 00 00 00 00	 call	 ?CanAttackToTarget@CPythonCharacterManager@@QAE_NPAVCInstanceBase@@0@Z ; CPythonCharacterManager::CanAttackToTarget
  00218	84 c0		 test	 al, al
  0021a	75 45		 jne	 SHORT $LN2@FindVictim

; 935  : 			continue;
; 936  : 		const float fDistance = GetDistanceNew(*startPoint, targetPos);

  0021c	8b 4b 0c	 mov	 ecx, DWORD PTR _startPoint$[ebx]
  0021f	8d 55 90	 lea	 edx, DWORD PTR _targetPos$[ebp]
  00222	e8 00 00 00 00	 call	 ?GetDistanceNew@@YAMABUD3DXVECTOR3@@0@Z ; GetDistanceNew
  00227	f3 0f 10 4d a0	 movss	 xmm1, DWORD PTR _fMaxDistance$1$[ebp]
  0022c	0f 2f c8	 comiss	 xmm1, xmm0
  0022f	f3 0f 11 45 cc	 movss	 DWORD PTR _fDistance$35[ebp], xmm0

; 937  : 		if (fDistance < fMaxDistance)

  00234	76 2b		 jbe	 SHORT $LN2@FindVictim
; File C:\Program Files\Microsoft Visual Studio\2022\Community\VC\Tools\MSVC\14.44.35207\include\vector

; 844  :         if (_Mylast != _My_data._Myend) {

  00236	8b 45 c4	 mov	 eax, DWORD PTR _m_vecVictimList$[ebp+4]
  00239	3b 45 c8	 cmp	 eax, DWORD PTR _m_vecVictimList$[ebp+8]
  0023c	74 0d		 je	 SHORT $LN146@FindVictim
; File C:\Program Files\Microsoft Visual Studio\2022\Community\VC\Tools\MSVC\14.44.35207\include\utility

; 274  :         : first(_STD forward<_Other1>(_Val1)), second(_STD forward<_Other2>(_Val2)) {

  0023e	89 30		 mov	 DWORD PTR [eax], esi
  00240	f3 0f 11 40 04	 movss	 DWORD PTR [eax+4], xmm0
; File C:\Program Files\Microsoft Visual Studio\2022\Community\VC\Tools\MSVC\14.44.35207\include\vector

; 869  :         ++_Mylast;

  00245	83 45 c4 08	 add	 DWORD PTR _m_vecVictimList$[ebp+4], 8

; 845  :             return _Emplace_back_with_unused_capacity(_STD forward<_Valty>(_Val)...);

  00249	eb 16		 jmp	 SHORT $LN2@FindVictim
$LN146@FindVictim:

; 846  :         }
; 847  : 
; 848  :         return *_Emplace_reallocate(_Mylast, _STD forward<_Valty>(_Val)...);

  0024b	8d 4d cc	 lea	 ecx, DWORD PTR _fDistance$35[ebp]
  0024e	51		 push	 ecx
  0024f	8d 4d 9c	 lea	 ecx, DWORD PTR _pkVictim$33[ebp]
  00252	51		 push	 ecx
  00253	50		 push	 eax
  00254	8d 4d c0	 lea	 ecx, DWORD PTR _m_vecVictimList$[ebp]
  00257	e8 00 00 00 00	 call	 ??$_Emplace_reallocate@AAPAVCInstanceBase@@ABM@?$vector@U?$pair@PAVCInstanceBase@@M@std@@V?$allocator@U?$pair@PAVCInstanceBase@@M@std@@@2@@std@@AAEPAU?$pair@PAVCInstanceBase@@M@1@QAU21@AAPAVCInstanceBase@@ABM@Z ; std::vector<std::pair<CInstanceBase *,float>,std::allocator<std::pair<CInstanceBase *,float> > >::_Emplace_reallocate<CInstanceBase * &,float const &>
; File C:\Anka2Project\Anka2Project\Source\Binary\source\UserInterface\PythonCharacterManager.cpp

; 927  : 			if (pWorld->isPhysicalCollision(c_rv3Src + v3Movement))

  0025c	eb 03		 jmp	 SHORT $LN2@FindVictim
$LN200@FindVictim:
  0025e	8b 7d b8	 mov	 edi, DWORD PTR _pkInstMain$GSCopy$1$[ebp]
$LN2@FindVictim:
; File C:\Program Files\Microsoft Visual Studio\2022\Community\VC\Tools\MSVC\14.44.35207\include\xtree

; 198  :         _Mybase::operator++();

  00261	8d 4d b4	 lea	 ecx, DWORD PTR _itor$34[ebp]
  00264	e8 00 00 00 00	 call	 ??E?$_Tree_unchecked_const_iterator@V?$_Tree_val@U?$_Tree_simple_types@U?$pair@$$CBKPAVCInstanceBase@@@std@@@std@@@std@@U_Iterator_base0@2@@std@@QAEAAV01@XZ ; std::_Tree_unchecked_const_iterator<std::_Tree_val<std::_Tree_simple_types<std::pair<unsigned long const ,CInstanceBase *> > >,std::_Iterator_base0>::operator++

; 232  :         return this->_Ptr == _Right._Ptr;

  00269	8b 4d d0	 mov	 ecx, DWORD PTR _this$GSCopy$1$[ebp]
  0026c	8b 45 b4	 mov	 eax, DWORD PTR _itor$34[ebp]
  0026f	3b 41 20	 cmp	 eax, DWORD PTR [ecx+32]
; File C:\Anka2Project\Anka2Project\Source\Binary\source\UserInterface\PythonCharacterManager.cpp

; 909  : 	for (TCharacterInstanceMap::iterator itor = m_kAliveInstMap.begin(); itor != m_kAliveInstMap.end(); ++itor)

  00272	0f 85 4a fe ff
	ff		 jne	 $LL4@FindVictim
  00278	8b 75 c0	 mov	 esi, DWORD PTR _m_vecVictimList$[ebp]
$LN3@FindVictim:
; File C:\Program Files\Microsoft Visual Studio\2022\Community\VC\Tools\MSVC\14.44.35207\include\vector

; 1915 :         return static_cast<size_type>(_My_data._Mylast - _My_data._Myfirst);

  0027b	8b 55 c4	 mov	 edx, DWORD PTR _m_vecVictimList$[ebp+4]
  0027e	8b c2		 mov	 eax, edx
  00280	2b c6		 sub	 eax, esi
  00282	c1 f8 03	 sar	 eax, 3
; File C:\Anka2Project\Anka2Project\Source\Binary\source\UserInterface\PythonCharacterManager.cpp

; 940  : 	if (m_vecVictimList.size())

  00285	85 c0		 test	 eax, eax
  00287	74 1c		 je	 SHORT $LN20@FindVictim

; 941  : 	{
; 942  : 		if (m_vecVictimList.size() > 1)

  00289	83 f8 01	 cmp	 eax, 1
  0028c	76 13		 jbe	 SHORT $LN21@FindVictim
; File C:\Program Files\Microsoft Visual Studio\2022\Community\VC\Tools\MSVC\14.44.35207\include\algorithm

; 8403 :     _STD _Sort_unchecked(_UFirst, _ULast, _ULast - _UFirst, _STD _Pass_fn(_Pred));

  0028e	68 00 00 00 00	 push	 OFFSET ?FindLowerDistance@@YA_NABU?$pair@PAVCInstanceBase@@M@std@@0@Z ; FindLowerDistance
  00293	50		 push	 eax
  00294	8b ce		 mov	 ecx, esi
  00296	e8 00 00 00 00	 call	 ??$_Sort_unchecked@PAU?$pair@PAVCInstanceBase@@M@std@@P6A_NABU12@0@Z@std@@YAXPAU?$pair@PAVCInstanceBase@@M@0@0HP6A_NABU10@1@Z@Z ; std::_Sort_unchecked<std::pair<CInstanceBase *,float> *,bool (__cdecl*)(std::pair<CInstanceBase *,float> const &,std::pair<CInstanceBase *,float> const &)>
  0029b	8b 75 c0	 mov	 esi, DWORD PTR _m_vecVictimList$[ebp]
  0029e	83 c4 08	 add	 esp, 8
$LN21@FindVictim:
  002a1	8b 3e		 mov	 edi, DWORD PTR [esi]
  002a3	eb 02		 jmp	 SHORT $LN24@FindVictim
$LN20@FindVictim:
; File C:\Anka2Project\Anka2Project\Source\Binary\source\UserInterface\PythonCharacterManager.cpp

; 946  : 	return NULL;

  002a5	33 ff		 xor	 edi, edi
$LN24@FindVictim:
; File C:\Program Files\Microsoft Visual Studio\2022\Community\VC\Tools\MSVC\14.44.35207\include\vector

; 2090 :         if (_Myfirst) { // destroy and deallocate old array

  002a7	85 f6		 test	 esi, esi
  002a9	74 2c		 je	 SHORT $LN68@FindVictim

; 2093 :             _Al.deallocate(_Myfirst, static_cast<size_type>(_Myend - _Myfirst));

  002ab	8b 4d c8	 mov	 ecx, DWORD PTR _m_vecVictimList$[ebp+8]
; File C:\Program Files\Microsoft Visual Studio\2022\Community\VC\Tools\MSVC\14.44.35207\include\xmemory

; 985  :         _STD _Deallocate<_New_alignof<_Ty>>(_Ptr, sizeof(_Ty) * _Count);

  002ae	8b c6		 mov	 eax, esi
; File C:\Program Files\Microsoft Visual Studio\2022\Community\VC\Tools\MSVC\14.44.35207\include\vector

; 2093 :             _Al.deallocate(_Myfirst, static_cast<size_type>(_Myend - _Myfirst));

  002b0	2b ce		 sub	 ecx, esi
; File C:\Program Files\Microsoft Visual Studio\2022\Community\VC\Tools\MSVC\14.44.35207\include\xmemory

; 985  :         _STD _Deallocate<_New_alignof<_Ty>>(_Ptr, sizeof(_Ty) * _Count);

  002b2	83 e1 f8	 and	 ecx, -8			; fffffff8H

; 284  :         if (_Bytes >= _Big_allocation_threshold) {

  002b5	81 f9 00 10 00
	00		 cmp	 ecx, 4096		; 00001000H
  002bb	72 10		 jb	 SHORT $LN76@FindVictim

; 205  :     const uintptr_t _Ptr_container   = _Ptr_user[-1];

  002bd	8b 70 fc	 mov	 esi, DWORD PTR [eax-4]
  002c0	83 c1 23	 add	 ecx, 35			; 00000023H
  002c3	2b c6		 sub	 eax, esi

; 219  :     _STL_VERIFY(_Back_shift >= _Min_back_shift && _Back_shift <= _Non_user_size, "invalid argument");

  002c5	83 c0 fc	 add	 eax, -4			; fffffffcH
  002c8	83 f8 1f	 cmp	 eax, 31			; 0000001fH
  002cb	77 30		 ja	 SHORT $LN204@FindVictim
$LN76@FindVictim:

; 289  :         ::operator delete(_Ptr, _Bytes);

  002cd	51		 push	 ecx
  002ce	56		 push	 esi
  002cf	e8 00 00 00 00	 call	 ??3@YAXPAXI@Z		; operator delete
  002d4	83 c4 08	 add	 esp, 8
$LN68@FindVictim:
; File C:\Anka2Project\Anka2Project\Source\Binary\source\UserInterface\PythonCharacterManager.cpp

; 946  : 	return NULL;

  002d7	8b c7		 mov	 eax, edi
  002d9	eb 02		 jmp	 SHORT $LN1@FindVictim
$LN197@FindVictim:

; 902  : 		return NULL;

  002db	33 c0		 xor	 eax, eax
$LN1@FindVictim:

; 947  : }

  002dd	8b 4d f4	 mov	 ecx, DWORD PTR __$EHRec$[ebp]
  002e0	64 89 0d 00 00
	00 00		 mov	 DWORD PTR fs:0, ecx
  002e7	59		 pop	 ecx
  002e8	5f		 pop	 edi
  002e9	5e		 pop	 esi
  002ea	8b 4d ec	 mov	 ecx, DWORD PTR __$ArrayPad$[ebp]
  002ed	33 cd		 xor	 ecx, ebp
  002ef	e8 00 00 00 00	 call	 @__security_check_cookie@4
  002f4	8b e5		 mov	 esp, ebp
  002f6	5d		 pop	 ebp
  002f7	8b e3		 mov	 esp, ebx
  002f9	5b		 pop	 ebx
  002fa	c2 10 00	 ret	 16			; 00000010H
$LN204@FindVictim:
; File C:\Program Files\Microsoft Visual Studio\2022\Community\VC\Tools\MSVC\14.44.35207\include\xmemory

; 219  :     _STL_VERIFY(_Back_shift >= _Min_back_shift && _Back_shift <= _Non_user_size, "invalid argument");

  002fd	6a 00		 push	 0
  002ff	6a 00		 push	 0
  00301	6a 00		 push	 0
  00303	6a 00		 push	 0
  00305	6a 00		 push	 0
  00307	e8 00 00 00 00	 call	 __invoke_watson
$LN202@FindVictim:
  0030c	cc		 int	 3
_TEXT	ENDS
;	COMDAT text$x
text$x	SEGMENT
__unwindfunclet$?FindVictim@CPythonCharacterManager@@QAEPAVCInstanceBase@@PAV2@MPAUD3DXVECTOR3@@_N2@Z$0:
  00000	8d 4d c0	 lea	 ecx, DWORD PTR _m_vecVictimList$[ebp]
  00003	e9 00 00 00 00	 jmp	 ??1?$vector@U?$pair@PAVCInstanceBase@@M@std@@V?$allocator@U?$pair@PAVCInstanceBase@@M@std@@@2@@std@@QAE@XZ ; std::vector<std::pair<CInstanceBase *,float>,std::allocator<std::pair<CInstanceBase *,float> > >::~vector<std::pair<CInstanceBase *,float>,std::allocator<std::pair<CInstanceBase *,float> > >
  00008	cc		 int	 3
  00009	cc		 int	 3
  0000a	cc		 int	 3
  0000b	cc		 int	 3
  0000c	cc		 int	 3
__ehhandler$?FindVictim@CPythonCharacterManager@@QAEPAVCInstanceBase@@PAV2@MPAUD3DXVECTOR3@@_N2@Z:
  0000d	90		 npad	 1
  0000e	90		 npad	 1
  0000f	8b 54 24 08	 mov	 edx, DWORD PTR [esp+8]
  00013	8d 42 0c	 lea	 eax, DWORD PTR [edx+12]
  00016	8b 4a 90	 mov	 ecx, DWORD PTR [edx-112]
  00019	33 c8		 xor	 ecx, eax
  0001b	e8 00 00 00 00	 call	 @__security_check_cookie@4
  00020	8b 4a f8	 mov	 ecx, DWORD PTR [edx-8]
  00023	33 c8		 xor	 ecx, eax
  00025	e8 00 00 00 00	 call	 @__security_check_cookie@4
  0002a	b8 00 00 00 00	 mov	 eax, OFFSET __ehfuncinfo$?FindVictim@CPythonCharacterManager@@QAEPAVCInstanceBase@@PAV2@MPAUD3DXVECTOR3@@_N2@Z
  0002f	e9 00 00 00 00	 jmp	 ___CxxFrameHandler3
text$x	ENDS
?FindVictim@CPythonCharacterManager@@QAEPAVCInstanceBase@@PAV2@MPAUD3DXVECTOR3@@_N2@Z ENDP ; CPythonCharacterManager::FindVictim
; Function compile flags: /Ogtp
; File C:\Program Files\Microsoft Visual Studio\2022\Community\VC\Tools\MSVC\14.44.35207\include\algorithm
; File C:\Program Files\Microsoft Visual Studio\2022\Community\VC\Tools\MSVC\14.44.35207\include\list
; File C:\Program Files\Microsoft Visual Studio\2022\Community\VC\Tools\MSVC\14.44.35207\include\algorithm
; File C:\Program Files\Microsoft Visual Studio\2022\Community\VC\Tools\MSVC\14.44.35207\include\list
; File C:\Program Files\Microsoft Visual Studio\2022\Community\VC\Tools\MSVC\14.44.35207\include\algorithm
; File C:\Program Files\Microsoft Visual Studio\2022\Community\VC\Tools\MSVC\14.44.35207\include\list
; File C:\Program Files\Microsoft Visual Studio\2022\Community\VC\Tools\MSVC\14.44.35207\include\algorithm
; File C:\Program Files\Microsoft Visual Studio\2022\Community\VC\Tools\MSVC\14.44.35207\include\list
; File C:\Program Files\Microsoft Visual Studio\2022\Community\VC\Tools\MSVC\14.44.35207\include\algorithm
;	COMDAT ??$for_each@V?$_List_iterator@V?$_List_val@U?$_List_simple_types@PAVCInstanceBase@@@std@@@std@@@std@@P6AXPAVCInstanceBase@@@Z@std@@YAP6AXPAVCInstanceBase@@@ZV?$_List_iterator@V?$_List_val@U?$_List_simple_types@PAVCInstanceBase@@@std@@@std@@@0@1P6AX0@Z@Z
_TEXT	SEGMENT
__First$ = 8						; size = 4
__Last$ = 12						; size = 4
??$for_each@V?$_List_iterator@V?$_List_val@U?$_List_simple_types@PAVCInstanceBase@@@std@@@std@@@std@@P6AXPAVCInstanceBase@@@Z@std@@YAP6AXPAVCInstanceBase@@@ZV?$_List_iterator@V?$_List_val@U?$_List_simple_types@PAVCInstanceBase@@@std@@@std@@@0@1P6AX0@Z@Z PROC ; std::for_each<std::_List_iterator<std::_List_val<std::_List_simple_types<CInstanceBase *> > >,void (__cdecl*)(CInstanceBase *)>, COMDAT
; __Func$dead$ = ecx

; 397  : _CONSTEXPR20 _Fn for_each(_InIt _First, _InIt _Last, _Fn _Func) { // perform function for each element [_First, _Last)

  00000	55		 push	 ebp
  00001	8b ec		 mov	 ebp, esp
  00003	56		 push	 esi
; File C:\Program Files\Microsoft Visual Studio\2022\Community\VC\Tools\MSVC\14.44.35207\include\list

; 37   :     _List_unchecked_const_iterator(_Nodeptr _Pnode, const _Mylist* _Plist) noexcept : _Ptr(_Pnode) {

  00004	8b 75 08	 mov	 esi, DWORD PTR __First$[ebp]
; File C:\Program Files\Microsoft Visual Studio\2022\Community\VC\Tools\MSVC\14.44.35207\include\algorithm

; 397  : _CONSTEXPR20 _Fn for_each(_InIt _First, _InIt _Last, _Fn _Func) { // perform function for each element [_First, _Last)

  00007	57		 push	 edi
; File C:\Program Files\Microsoft Visual Studio\2022\Community\VC\Tools\MSVC\14.44.35207\include\list

; 37   :     _List_unchecked_const_iterator(_Nodeptr _Pnode, const _Mylist* _Plist) noexcept : _Ptr(_Pnode) {

  00008	8b 7d 0c	 mov	 edi, DWORD PTR __Last$[ebp]

; 72   :         return _Ptr == _Right._Ptr;

  0000b	3b f7		 cmp	 esi, edi
; File C:\Program Files\Microsoft Visual Studio\2022\Community\VC\Tools\MSVC\14.44.35207\include\algorithm

; 401  :     for (; _UFirst != _ULast; ++_UFirst) {

  0000d	74 12		 je	 SHORT $LN49@for_each
  0000f	90		 npad	 1
$LL4@for_each:

; 402  :         _Func(*_UFirst);

  00010	ff 76 08	 push	 DWORD PTR [esi+8]
  00013	e8 00 00 00 00	 call	 ?Delete@CInstanceBase@@SAXPAV1@@Z ; CInstanceBase::Delete
; File C:\Program Files\Microsoft Visual Studio\2022\Community\VC\Tools\MSVC\14.44.35207\include\list

; 50   :         _Ptr = _Ptr->_Next;

  00018	8b 36		 mov	 esi, DWORD PTR [esi]
; File C:\Program Files\Microsoft Visual Studio\2022\Community\VC\Tools\MSVC\14.44.35207\include\algorithm

; 402  :         _Func(*_UFirst);

  0001a	83 c4 04	 add	 esp, 4
; File C:\Program Files\Microsoft Visual Studio\2022\Community\VC\Tools\MSVC\14.44.35207\include\list

; 72   :         return _Ptr == _Right._Ptr;

  0001d	3b f7		 cmp	 esi, edi
; File C:\Program Files\Microsoft Visual Studio\2022\Community\VC\Tools\MSVC\14.44.35207\include\algorithm

; 401  :     for (; _UFirst != _ULast; ++_UFirst) {

  0001f	75 ef		 jne	 SHORT $LL4@for_each
$LN49@for_each:
  00021	5f		 pop	 edi

; 403  :     }
; 404  : 
; 405  :     return _Func;
; 406  : }

  00022	b8 00 00 00 00	 mov	 eax, OFFSET ?Delete@CInstanceBase@@SAXPAV1@@Z ; CInstanceBase::Delete
  00027	5e		 pop	 esi
  00028	5d		 pop	 ebp
  00029	c3		 ret	 0
??$for_each@V?$_List_iterator@V?$_List_val@U?$_List_simple_types@PAVCInstanceBase@@@std@@@std@@@std@@P6AXPAVCInstanceBase@@@Z@std@@YAP6AXPAVCInstanceBase@@@ZV?$_List_iterator@V?$_List_val@U?$_List_simple_types@PAVCInstanceBase@@@std@@@std@@@0@1P6AX0@Z@Z ENDP ; std::for_each<std::_List_iterator<std::_List_val<std::_List_simple_types<CInstanceBase *> > >,void (__cdecl*)(CInstanceBase *)>
_TEXT	ENDS
; Function compile flags: /Ogtp
; File C:\Program Files\Microsoft Visual Studio\2022\Community\VC\Tools\MSVC\14.44.35207\include\algorithm
; File C:\Program Files\Microsoft Visual Studio\2022\Community\VC\Tools\MSVC\14.44.35207\include\xutility
; File C:\Program Files\Microsoft Visual Studio\2022\Community\VC\Tools\MSVC\14.44.35207\include\algorithm
; File C:\Program Files\Microsoft Visual Studio\2022\Community\VC\Tools\MSVC\14.44.35207\include\utility
; File C:\Program Files\Microsoft Visual Studio\2022\Community\VC\Tools\MSVC\14.44.35207\include\xutility
; File C:\Program Files\Microsoft Visual Studio\2022\Community\VC\Tools\MSVC\14.44.35207\include\utility
; File C:\Program Files\Microsoft Visual Studio\2022\Community\VC\Tools\MSVC\14.44.35207\include\xutility
; File C:\Program Files\Microsoft Visual Studio\2022\Community\VC\Tools\MSVC\14.44.35207\include\utility
; File C:\Program Files\Microsoft Visual Studio\2022\Community\VC\Tools\MSVC\14.44.35207\include\algorithm
; File C:\Program Files\Microsoft Visual Studio\2022\Community\VC\Tools\MSVC\14.44.35207\include\utility
; File C:\Program Files\Microsoft Visual Studio\2022\Community\VC\Tools\MSVC\14.44.35207\include\algorithm
; File C:\Program Files\Microsoft Visual Studio\2022\Community\VC\Tools\MSVC\14.44.35207\include\utility
; File C:\Program Files\Microsoft Visual Studio\2022\Community\VC\Tools\MSVC\14.44.35207\include\algorithm
;	COMDAT ??$_Insertion_sort_unchecked@PAU?$pair@PAVCInstanceBase@@M@std@@P6A_NABU12@0@Z@std@@YAPAU?$pair@PAVCInstanceBase@@M@0@QAU10@0P6A_NABU10@1@Z@Z
_TEXT	SEGMENT
__Val$1 = -24						; size = 8
__Last$1$ = -16						; size = 4
__Mid$1$ = -12						; size = 4
tv420 = -8						; size = 4
__Pred$ = 8						; size = 4
??$_Insertion_sort_unchecked@PAU?$pair@PAVCInstanceBase@@M@std@@P6A_NABU12@0@Z@std@@YAPAU?$pair@PAVCInstanceBase@@M@0@QAU10@0P6A_NABU10@1@Z@Z PROC ; std::_Insertion_sort_unchecked<std::pair<CInstanceBase *,float> *,bool (__cdecl*)(std::pair<CInstanceBase *,float> const &,std::pair<CInstanceBase *,float> const &)>, COMDAT
; __First$ = ecx
; __Last$ = edx

; 8241 : _CONSTEXPR20 _BidIt _Insertion_sort_unchecked(const _BidIt _First, const _BidIt _Last, _Pr _Pred) {

  00000	55		 push	 ebp
  00001	8b ec		 mov	 ebp, esp
  00003	83 ec 18	 sub	 esp, 24			; 00000018H
  00006	53		 push	 ebx
  00007	8b c2		 mov	 eax, edx
  00009	8b d9		 mov	 ebx, ecx
  0000b	89 45 f0	 mov	 DWORD PTR __Last$1$[ebp], eax
  0000e	56		 push	 esi
  0000f	57		 push	 edi

; 8242 :     // insertion sort [_First, _Last)
; 8243 :     if (_First != _Last) {

  00010	3b d8		 cmp	 ebx, eax
  00012	0f 84 be 00 00
	00		 je	 $LN3@Insertion_

; 8244 :         for (_BidIt _Mid = _First; ++_Mid != _Last;) { // order next element

  00018	8d 73 08	 lea	 esi, DWORD PTR [ebx+8]
  0001b	89 75 f4	 mov	 DWORD PTR __Mid$1$[ebp], esi
  0001e	3b f0		 cmp	 esi, eax
  00020	0f 84 b0 00 00
	00		 je	 $LN3@Insertion_
  00026	89 5d f8	 mov	 DWORD PTR tv420[ebp], ebx
  00029	0f 1f 80 00 00
	00 00		 npad	 7
$LL4@Insertion_:

; 8245 :             _BidIt _Hole = _Mid;
; 8246 :             _Iter_value_t<_BidIt> _Val(_STD move(*_Mid));

  00030	8b 06		 mov	 eax, DWORD PTR [esi]
  00032	8b fe		 mov	 edi, esi
  00034	8b 4e 04	 mov	 ecx, DWORD PTR [esi+4]
  00037	89 45 e8	 mov	 DWORD PTR __Val$1[ebp], eax

; 8247 : 
; 8248 :             if (_DEBUG_LT_PRED(_Pred, _Val, *_First)) { // found new earliest element, move to front

  0003a	8d 45 e8	 lea	 eax, DWORD PTR __Val$1[ebp]
  0003d	53		 push	 ebx
  0003e	50		 push	 eax
  0003f	89 4d ec	 mov	 DWORD PTR __Val$1[ebp+4], ecx
  00042	ff 55 08	 call	 DWORD PTR __Pred$[ebp]
  00045	83 c4 08	 add	 esp, 8
  00048	84 c0		 test	 al, al
  0004a	74 31		 je	 SHORT $LN9@Insertion_
; File C:\Program Files\Microsoft Visual Studio\2022\Community\VC\Tools\MSVC\14.44.35207\include\xutility

; 5194 :     while (_First != _Last) {

  0004c	3b f3		 cmp	 esi, ebx
  0004e	74 1c		 je	 SHORT $LN14@Insertion_
; File C:\Program Files\Microsoft Visual Studio\2022\Community\VC\Tools\MSVC\14.44.35207\include\algorithm

; 8249 :                 _STD _Move_backward_unchecked(_First, _Mid, ++_Hole);

  00050	8b 55 f8	 mov	 edx, DWORD PTR tv420[ebp]
  00053	83 c2 0c	 add	 edx, 12			; 0000000cH
$LL34@Insertion_:
; File C:\Program Files\Microsoft Visual Studio\2022\Community\VC\Tools\MSVC\14.44.35207\include\utility

; 365  :         first  = _STD forward<_Ty1>(_Right.first);

  00056	8b 42 f4	 mov	 eax, DWORD PTR [edx-12]
; File C:\Program Files\Microsoft Visual Studio\2022\Community\VC\Tools\MSVC\14.44.35207\include\xutility

; 5195 :         *--_Dest = _STD move(*--_Last);

  00059	8b ca		 mov	 ecx, edx
  0005b	83 ea 08	 sub	 edx, 8
; File C:\Program Files\Microsoft Visual Studio\2022\Community\VC\Tools\MSVC\14.44.35207\include\utility

; 365  :         first  = _STD forward<_Ty1>(_Right.first);

  0005e	89 42 04	 mov	 DWORD PTR [edx+4], eax

; 366  :         second = _STD forward<_Ty2>(_Right.second);

  00061	8b 02		 mov	 eax, DWORD PTR [edx]
  00063	89 01		 mov	 DWORD PTR [ecx], eax
; File C:\Program Files\Microsoft Visual Studio\2022\Community\VC\Tools\MSVC\14.44.35207\include\xutility

; 5194 :     while (_First != _Last) {

  00065	8d 42 fc	 lea	 eax, DWORD PTR [edx-4]
  00068	3b c3		 cmp	 eax, ebx
  0006a	75 ea		 jne	 SHORT $LL34@Insertion_
$LN14@Insertion_:
; File C:\Program Files\Microsoft Visual Studio\2022\Community\VC\Tools\MSVC\14.44.35207\include\utility

; 366  :         second = _STD forward<_Ty2>(_Right.second);

  0006c	f3 0f 10 45 ec	 movss	 xmm0, DWORD PTR __Val$1[ebp+4]
  00071	8b 45 e8	 mov	 eax, DWORD PTR __Val$1[ebp]
  00074	89 03		 mov	 DWORD PTR [ebx], eax
  00076	f3 0f 11 43 04	 movss	 DWORD PTR [ebx+4], xmm0
; File C:\Program Files\Microsoft Visual Studio\2022\Community\VC\Tools\MSVC\14.44.35207\include\algorithm

; 8251 :             } else { // look for insertion point after first

  0007b	eb 44		 jmp	 SHORT $LN2@Insertion_
$LN9@Insertion_:

; 8252 :                 for (_BidIt _Prev = _Hole; _DEBUG_LT_PRED(_Pred, _Val, *--_Prev); _Hole = _Prev) {

  0007d	8b 45 f8	 mov	 eax, DWORD PTR tv420[ebp]
  00080	8b f0		 mov	 esi, eax
  00082	50		 push	 eax
  00083	8d 45 e8	 lea	 eax, DWORD PTR __Val$1[ebp]
  00086	50		 push	 eax
  00087	ff 55 08	 call	 DWORD PTR __Pred$[ebp]
  0008a	83 c4 08	 add	 esp, 8
  0008d	84 c0		 test	 al, al
  0008f	74 1e		 je	 SHORT $LN6@Insertion_
$LL7@Insertion_:
; File C:\Program Files\Microsoft Visual Studio\2022\Community\VC\Tools\MSVC\14.44.35207\include\utility

; 365  :         first  = _STD forward<_Ty1>(_Right.first);

  00091	8b 06		 mov	 eax, DWORD PTR [esi]
  00093	89 07		 mov	 DWORD PTR [edi], eax

; 366  :         second = _STD forward<_Ty2>(_Right.second);

  00095	8b 46 04	 mov	 eax, DWORD PTR [esi+4]
  00098	89 47 04	 mov	 DWORD PTR [edi+4], eax
; File C:\Program Files\Microsoft Visual Studio\2022\Community\VC\Tools\MSVC\14.44.35207\include\algorithm

; 8252 :                 for (_BidIt _Prev = _Hole; _DEBUG_LT_PRED(_Pred, _Val, *--_Prev); _Hole = _Prev) {

  0009b	8b fe		 mov	 edi, esi
  0009d	83 ee 08	 sub	 esi, 8
  000a0	8d 45 e8	 lea	 eax, DWORD PTR __Val$1[ebp]
  000a3	56		 push	 esi
  000a4	50		 push	 eax
  000a5	ff 55 08	 call	 DWORD PTR __Pred$[ebp]
  000a8	83 c4 08	 add	 esp, 8
  000ab	84 c0		 test	 al, al
  000ad	75 e2		 jne	 SHORT $LL7@Insertion_
$LN6@Insertion_:
; File C:\Program Files\Microsoft Visual Studio\2022\Community\VC\Tools\MSVC\14.44.35207\include\utility

; 366  :         second = _STD forward<_Ty2>(_Right.second);

  000af	f3 0f 10 45 ec	 movss	 xmm0, DWORD PTR __Val$1[ebp+4]
  000b4	8b 45 e8	 mov	 eax, DWORD PTR __Val$1[ebp]
  000b7	8b 75 f4	 mov	 esi, DWORD PTR __Mid$1$[ebp]

; 365  :         first  = _STD forward<_Ty1>(_Right.first);

  000ba	89 07		 mov	 DWORD PTR [edi], eax

; 366  :         second = _STD forward<_Ty2>(_Right.second);

  000bc	f3 0f 11 47 04	 movss	 DWORD PTR [edi+4], xmm0
$LN2@Insertion_:
; File C:\Program Files\Microsoft Visual Studio\2022\Community\VC\Tools\MSVC\14.44.35207\include\algorithm

; 8244 :         for (_BidIt _Mid = _First; ++_Mid != _Last;) { // order next element

  000c1	83 45 f8 08	 add	 DWORD PTR tv420[ebp], 8
  000c5	83 c6 08	 add	 esi, 8
  000c8	8b 45 f0	 mov	 eax, DWORD PTR __Last$1$[ebp]
  000cb	89 75 f4	 mov	 DWORD PTR __Mid$1$[ebp], esi
  000ce	3b f0		 cmp	 esi, eax
  000d0	0f 85 5a ff ff
	ff		 jne	 $LL4@Insertion_
$LN3@Insertion_:

; 8253 :                     *_Hole = _STD move(*_Prev); // move hole down
; 8254 :                 }
; 8255 : 
; 8256 :                 *_Hole = _STD move(_Val); // insert element in hole
; 8257 :             }
; 8258 :         }
; 8259 :     }
; 8260 : 
; 8261 :     return _Last;
; 8262 : }

  000d6	5f		 pop	 edi
  000d7	5e		 pop	 esi
  000d8	5b		 pop	 ebx
  000d9	8b e5		 mov	 esp, ebp
  000db	5d		 pop	 ebp
  000dc	c3		 ret	 0
??$_Insertion_sort_unchecked@PAU?$pair@PAVCInstanceBase@@M@std@@P6A_NABU12@0@Z@std@@YAPAU?$pair@PAVCInstanceBase@@M@0@QAU10@0P6A_NABU10@1@Z@Z ENDP ; std::_Insertion_sort_unchecked<std::pair<CInstanceBase *,float> *,bool (__cdecl*)(std::pair<CInstanceBase *,float> const &,std::pair<CInstanceBase *,float> const &)>
_TEXT	ENDS
; Function compile flags: /Ogtp
; File C:\Program Files\Microsoft Visual Studio\2022\Community\VC\Tools\MSVC\14.44.35207\include\algorithm
; File C:\Program Files\Microsoft Visual Studio\2022\Community\VC\Tools\MSVC\14.44.35207\include\utility
; File C:\Program Files\Microsoft Visual Studio\2022\Community\VC\Tools\MSVC\14.44.35207\include\algorithm
; File C:\Program Files\Microsoft Visual Studio\2022\Community\VC\Tools\MSVC\14.44.35207\include\utility
; File C:\Program Files\Microsoft Visual Studio\2022\Community\VC\Tools\MSVC\14.44.35207\include\algorithm
; File C:\Program Files\Microsoft Visual Studio\2022\Community\VC\Tools\MSVC\14.44.35207\include\utility
; File C:\Program Files\Microsoft Visual Studio\2022\Community\VC\Tools\MSVC\14.44.35207\include\algorithm
; File C:\Program Files\Microsoft Visual Studio\2022\Community\VC\Tools\MSVC\14.44.35207\include\utility
; File C:\Program Files\Microsoft Visual Studio\2022\Community\VC\Tools\MSVC\14.44.35207\include\algorithm
; File C:\Program Files\Microsoft Visual Studio\2022\Community\VC\Tools\MSVC\14.44.35207\include\utility
; File C:\Program Files\Microsoft Visual Studio\2022\Community\VC\Tools\MSVC\14.44.35207\include\algorithm
; File C:\Program Files\Microsoft Visual Studio\2022\Community\VC\Tools\MSVC\14.44.35207\include\utility
; File C:\Program Files\Microsoft Visual Studio\2022\Community\VC\Tools\MSVC\14.44.35207\include\algorithm
; File C:\Program Files\Microsoft Visual Studio\2022\Community\VC\Tools\MSVC\14.44.35207\include\utility
; File C:\Program Files\Microsoft Visual Studio\2022\Community\VC\Tools\MSVC\14.44.35207\include\algorithm
; File C:\Program Files\Microsoft Visual Studio\2022\Community\VC\Tools\MSVC\14.44.35207\include\utility
; File C:\Program Files\Microsoft Visual Studio\2022\Community\VC\Tools\MSVC\14.44.35207\include\algorithm
; File C:\Program Files\Microsoft Visual Studio\2022\Community\VC\Tools\MSVC\14.44.35207\include\utility
; File C:\Program Files\Microsoft Visual Studio\2022\Community\VC\Tools\MSVC\14.44.35207\include\algorithm
; File C:\Program Files\Microsoft Visual Studio\2022\Community\VC\Tools\MSVC\14.44.35207\include\utility
; File C:\Program Files\Microsoft Visual Studio\2022\Community\VC\Tools\MSVC\14.44.35207\include\algorithm
; File C:\Program Files\Microsoft Visual Studio\2022\Community\VC\Tools\MSVC\14.44.35207\include\utility
; File C:\Program Files\Microsoft Visual Studio\2022\Community\VC\Tools\MSVC\14.44.35207\include\algorithm
; File C:\Program Files\Microsoft Visual Studio\2022\Community\VC\Tools\MSVC\14.44.35207\include\utility
; File C:\Program Files\Microsoft Visual Studio\2022\Community\VC\Tools\MSVC\14.44.35207\include\algorithm
; File C:\Program Files\Microsoft Visual Studio\2022\Community\VC\Tools\MSVC\14.44.35207\include\utility
; File C:\Program Files\Microsoft Visual Studio\2022\Community\VC\Tools\MSVC\14.44.35207\include\algorithm
;	COMDAT ??$_Partition_by_median_guess_unchecked@PAU?$pair@PAVCInstanceBase@@M@std@@P6A_NABU12@0@Z@std@@YA?AU?$pair@PAU?$pair@PAVCInstanceBase@@M@std@@PAU12@@0@PAU?$pair@PAVCInstanceBase@@M@0@0P6A_NABU20@1@Z@Z
_TEXT	SEGMENT
___$ReturnUdt$1$ = -24					; size = 4
__Left$1$ = -20						; size = 4
tv625 = -16						; size = 4
__Gfirst$1$ = -16					; size = 4
__First$1$ = -12					; size = 4
__Glast$1$ = -8						; size = 4
__Plast$1$ = -4						; size = 4
__Last$ = 8						; size = 4
__Pred$ = 12						; size = 4
??$_Partition_by_median_guess_unchecked@PAU?$pair@PAVCInstanceBase@@M@std@@P6A_NABU12@0@Z@std@@YA?AU?$pair@PAU?$pair@PAVCInstanceBase@@M@std@@PAU12@@0@PAU?$pair@PAVCInstanceBase@@M@0@0P6A_NABU20@1@Z@Z PROC ; std::_Partition_by_median_guess_unchecked<std::pair<CInstanceBase *,float> *,bool (__cdecl*)(std::pair<CInstanceBase *,float> const &,std::pair<CInstanceBase *,float> const &)>, COMDAT
; ___$ReturnUdt$ = ecx
; __First$ = edx

; 8298 : _CONSTEXPR20 pair<_RanIt, _RanIt> _Partition_by_median_guess_unchecked(_RanIt _First, _RanIt _Last, _Pr _Pred) {

  00000	55		 push	 ebp
  00001	8b ec		 mov	 ebp, esp
  00003	83 ec 18	 sub	 esp, 24			; 00000018H
  00006	53		 push	 ebx
  00007	8b da		 mov	 ebx, edx
  00009	89 4d e8	 mov	 DWORD PTR ___$ReturnUdt$1$[ebp], ecx

; 8299 :     // partition [_First, _Last)
; 8300 :     _RanIt _Mid = _First + ((_Last - _First) >> 1); // shift for codegen

  0000c	8b 4d 08	 mov	 ecx, DWORD PTR __Last$[ebp]
  0000f	8b c1		 mov	 eax, ecx
  00011	2b c3		 sub	 eax, ebx
  00013	89 5d f4	 mov	 DWORD PTR __First$1$[ebp], ebx
  00016	c1 f8 04	 sar	 eax, 4
  00019	56		 push	 esi
  0001a	57		 push	 edi

; 8301 :     _STD _Guess_median_unchecked(_First, _Mid, _STD _Prev_iter(_Last), _Pred);

  0001b	8b 7d 0c	 mov	 edi, DWORD PTR __Pred$[ebp]
  0001e	8d 34 c3	 lea	 esi, DWORD PTR [ebx+eax*8]
  00021	8d 41 f8	 lea	 eax, DWORD PTR [ecx-8]
  00024	8b d6		 mov	 edx, esi
  00026	57		 push	 edi
  00027	50		 push	 eax
  00028	8b cb		 mov	 ecx, ebx
  0002a	e8 00 00 00 00	 call	 ??$_Guess_median_unchecked@PAU?$pair@PAVCInstanceBase@@M@std@@P6A_NABU12@0@Z@std@@YAXPAU?$pair@PAVCInstanceBase@@M@0@00P6A_NABU10@1@Z@Z ; std::_Guess_median_unchecked<std::pair<CInstanceBase *,float> *,bool (__cdecl*)(std::pair<CInstanceBase *,float> const &,std::pair<CInstanceBase *,float> const &)>
  0002f	83 c4 08	 add	 esp, 8

; 8302 :     _RanIt _Pfirst = _Mid;
; 8303 :     _RanIt _Plast  = _STD _Next_iter(_Pfirst);

  00032	8d 5e 08	 lea	 ebx, DWORD PTR [esi+8]
  00035	89 5d fc	 mov	 DWORD PTR __Plast$1$[ebp], ebx

; 8304 : 
; 8305 :     while (_First < _Pfirst && !_DEBUG_LT_PRED(_Pred, *_STD _Prev_iter(_Pfirst), *_Pfirst)
; 8306 :            && !_Pred(*_Pfirst, *_STD _Prev_iter(_Pfirst))) {

  00038	39 75 f4	 cmp	 DWORD PTR __First$1$[ebp], esi
  0003b	73 2b		 jae	 SHORT $LN123@Partition_
  0003d	8b 5d f4	 mov	 ebx, DWORD PTR __First$1$[ebp]
$LL2@Partition_:
  00040	8d 46 f8	 lea	 eax, DWORD PTR [esi-8]
  00043	56		 push	 esi
  00044	50		 push	 eax
  00045	89 45 f0	 mov	 DWORD PTR tv625[ebp], eax
  00048	ff d7		 call	 edi
  0004a	83 c4 08	 add	 esp, 8
  0004d	84 c0		 test	 al, al
  0004f	75 14		 jne	 SHORT $LN151@Partition_
  00051	ff 75 f0	 push	 DWORD PTR tv625[ebp]
  00054	56		 push	 esi
  00055	ff d7		 call	 edi
  00057	83 c4 08	 add	 esp, 8
  0005a	84 c0		 test	 al, al
  0005c	75 07		 jne	 SHORT $LN151@Partition_

; 8307 :         --_Pfirst;

  0005e	8b 75 f0	 mov	 esi, DWORD PTR tv625[ebp]
  00061	3b de		 cmp	 ebx, esi
  00063	72 db		 jb	 SHORT $LL2@Partition_
$LN151@Partition_:
  00065	8b 5d fc	 mov	 ebx, DWORD PTR __Plast$1$[ebp]
$LN123@Partition_:

; 8308 :     }
; 8309 : 
; 8310 :     while (_Plast < _Last && !_DEBUG_LT_PRED(_Pred, *_Plast, *_Pfirst) && !_Pred(*_Pfirst, *_Plast)) {

  00068	8b 45 08	 mov	 eax, DWORD PTR __Last$[ebp]
  0006b	3b d8		 cmp	 ebx, eax
  0006d	73 29		 jae	 SHORT $LN5@Partition_
  0006f	90		 npad	 1
$LL4@Partition_:
  00070	56		 push	 esi
  00071	53		 push	 ebx
  00072	ff d7		 call	 edi
  00074	83 c4 08	 add	 esp, 8
  00077	84 c0		 test	 al, al
  00079	75 17		 jne	 SHORT $LN156@Partition_
  0007b	53		 push	 ebx
  0007c	56		 push	 esi
  0007d	ff d7		 call	 edi
  0007f	83 c4 08	 add	 esp, 8
  00082	84 c0		 test	 al, al
  00084	8b 45 08	 mov	 eax, DWORD PTR __Last$[ebp]
  00087	75 0c		 jne	 SHORT $LN152@Partition_

; 8311 :         ++_Plast;

  00089	83 c3 08	 add	 ebx, 8
  0008c	3b d8		 cmp	 ebx, eax
  0008e	72 e0		 jb	 SHORT $LL4@Partition_

; 8308 :     }
; 8309 : 
; 8310 :     while (_Plast < _Last && !_DEBUG_LT_PRED(_Pred, *_Plast, *_Pfirst) && !_Pred(*_Pfirst, *_Plast)) {

  00090	eb 03		 jmp	 SHORT $LN152@Partition_
$LN156@Partition_:
  00092	8b 45 08	 mov	 eax, DWORD PTR __Last$[ebp]
$LN152@Partition_:
  00095	89 5d fc	 mov	 DWORD PTR __Plast$1$[ebp], ebx
$LN5@Partition_:

; 8312 :     }
; 8313 : 
; 8314 :     _RanIt _Gfirst = _Plast;

  00098	8b fb		 mov	 edi, ebx

; 8315 :     _RanIt _Glast  = _Pfirst;

  0009a	8b d6		 mov	 edx, esi
$LN181@Partition_:

; 8318 :         for (; _Gfirst < _Last; ++_Gfirst) {

  0009c	89 55 f8	 mov	 DWORD PTR __Glast$1$[ebp], edx
$LN180@Partition_:
  0009f	89 7d f0	 mov	 DWORD PTR __Gfirst$1$[ebp], edi
$LL8@Partition_:
  000a2	3b f8		 cmp	 edi, eax
  000a4	73 48		 jae	 SHORT $LN127@Partition_
$LL11@Partition_:

; 8319 :             if (_DEBUG_LT_PRED(_Pred, *_Pfirst, *_Gfirst)) {

  000a6	57		 push	 edi
  000a7	56		 push	 esi
  000a8	ff 55 0c	 call	 DWORD PTR __Pred$[ebp]
  000ab	83 c4 08	 add	 esp, 8
  000ae	84 c0		 test	 al, al
  000b0	75 2b		 jne	 SHORT $LN9@Partition_

; 8320 :                 continue;
; 8321 :             } else if (_Pred(*_Gfirst, *_Pfirst)) {

  000b2	56		 push	 esi
  000b3	57		 push	 edi
  000b4	ff 55 0c	 call	 DWORD PTR __Pred$[ebp]
  000b7	83 c4 08	 add	 esp, 8
  000ba	84 c0		 test	 al, al
  000bc	75 27		 jne	 SHORT $LN153@Partition_

; 8322 :                 break;
; 8323 :             } else if (_Plast != _Gfirst) {

  000be	3b df		 cmp	 ebx, edi
  000c0	74 18		 je	 SHORT $LN19@Partition_
; File C:\Program Files\Microsoft Visual Studio\2022\Community\VC\Tools\MSVC\14.44.35207\include\utility

; 140  :     _Left    = _STD move(_Right);

  000c2	8b 07		 mov	 eax, DWORD PTR [edi]
  000c4	8b 0b		 mov	 ecx, DWORD PTR [ebx]

; 139  :     _Ty _Tmp = _STD move(_Left);

  000c6	f3 0f 10 43 04	 movss	 xmm0, DWORD PTR [ebx+4]

; 140  :     _Left    = _STD move(_Right);

  000cb	89 03		 mov	 DWORD PTR [ebx], eax
  000cd	8b 47 04	 mov	 eax, DWORD PTR [edi+4]
  000d0	89 43 04	 mov	 DWORD PTR [ebx+4], eax

; 141  :     _Right   = _STD move(_Tmp);

  000d3	89 0f		 mov	 DWORD PTR [edi], ecx
  000d5	f3 0f 11 47 04	 movss	 DWORD PTR [edi+4], xmm0
$LN19@Partition_:
; File C:\Program Files\Microsoft Visual Studio\2022\Community\VC\Tools\MSVC\14.44.35207\include\algorithm

; 8318 :         for (; _Gfirst < _Last; ++_Gfirst) {

  000da	83 c3 08	 add	 ebx, 8
$LN9@Partition_:
  000dd	83 c7 08	 add	 edi, 8
  000e0	3b 7d 08	 cmp	 edi, DWORD PTR __Last$[ebp]
  000e3	72 c1		 jb	 SHORT $LL11@Partition_
$LN153@Partition_:
  000e5	8b 55 f8	 mov	 edx, DWORD PTR __Glast$1$[ebp]
  000e8	89 5d fc	 mov	 DWORD PTR __Plast$1$[ebp], ebx
  000eb	89 7d f0	 mov	 DWORD PTR __Gfirst$1$[ebp], edi
$LN127@Partition_:

; 8331 :         for (; _First < _Glast; --_Glast) {

  000ee	8b 45 f4	 mov	 eax, DWORD PTR __First$1$[ebp]
  000f1	3b d0		 cmp	 edx, eax
  000f3	76 5f		 jbe	 SHORT $LN179@Partition_
  000f5	8b 7d f8	 mov	 edi, DWORD PTR __Glast$1$[ebp]
  000f8	8d 5f f8	 lea	 ebx, DWORD PTR [edi-8]
  000fb	0f 1f 44 00 00	 npad	 5
$LL14@Partition_:

; 8332 :             const auto _Glast_prev = _STD _Prev_iter(_Glast);
; 8333 :             if (_DEBUG_LT_PRED(_Pred, *_Glast_prev, *_Pfirst)) {

  00100	56		 push	 esi
  00101	53		 push	 ebx
  00102	ff 55 0c	 call	 DWORD PTR __Pred$[ebp]
  00105	83 c4 08	 add	 esp, 8
  00108	84 c0		 test	 al, al
  0010a	75 2b		 jne	 SHORT $LN12@Partition_

; 8334 :                 continue;
; 8335 :             } else if (_Pred(*_Pfirst, *_Glast_prev)) {

  0010c	53		 push	 ebx
  0010d	56		 push	 esi
  0010e	ff 55 0c	 call	 DWORD PTR __Pred$[ebp]
  00111	83 c4 08	 add	 esp, 8
  00114	84 c0		 test	 al, al
  00116	75 2e		 jne	 SHORT $LN157@Partition_

; 8336 :                 break;
; 8337 :             } else if (--_Pfirst != _Glast_prev) {

  00118	83 ee 08	 sub	 esi, 8
  0011b	3b f3		 cmp	 esi, ebx
  0011d	74 18		 je	 SHORT $LN12@Partition_
; File C:\Program Files\Microsoft Visual Studio\2022\Community\VC\Tools\MSVC\14.44.35207\include\utility

; 140  :     _Left    = _STD move(_Right);

  0011f	8b 03		 mov	 eax, DWORD PTR [ebx]
  00121	8b 0e		 mov	 ecx, DWORD PTR [esi]

; 139  :     _Ty _Tmp = _STD move(_Left);

  00123	f3 0f 10 46 04	 movss	 xmm0, DWORD PTR [esi+4]

; 140  :     _Left    = _STD move(_Right);

  00128	89 06		 mov	 DWORD PTR [esi], eax
  0012a	8b 43 04	 mov	 eax, DWORD PTR [ebx+4]
  0012d	89 46 04	 mov	 DWORD PTR [esi+4], eax

; 141  :     _Right   = _STD move(_Tmp);

  00130	89 0b		 mov	 DWORD PTR [ebx], ecx
  00132	f3 0f 11 43 04	 movss	 DWORD PTR [ebx+4], xmm0
$LN12@Partition_:
; File C:\Program Files\Microsoft Visual Studio\2022\Community\VC\Tools\MSVC\14.44.35207\include\algorithm

; 8331 :         for (; _First < _Glast; --_Glast) {

  00137	8b 45 f4	 mov	 eax, DWORD PTR __First$1$[ebp]
  0013a	83 ef 08	 sub	 edi, 8
  0013d	83 eb 08	 sub	 ebx, 8
  00140	3b c7		 cmp	 eax, edi
  00142	72 bc		 jb	 SHORT $LL14@Partition_

; 8334 :                 continue;
; 8335 :             } else if (_Pred(*_Pfirst, *_Glast_prev)) {

  00144	eb 03		 jmp	 SHORT $LN154@Partition_
$LN157@Partition_:
  00146	8b 45 f4	 mov	 eax, DWORD PTR __First$1$[ebp]
$LN154@Partition_:
  00149	89 7d f8	 mov	 DWORD PTR __Glast$1$[ebp], edi
  0014c	8b 55 f8	 mov	 edx, DWORD PTR __Glast$1$[ebp]

; 8338 :                 swap(*_Pfirst, *_Glast_prev); // intentional ADL
; 8339 :             }
; 8340 :         }
; 8341 : 
; 8342 :         if (_Glast == _First && _Gfirst == _Last) {

  0014f	3b d0		 cmp	 edx, eax
  00151	8b 7d f0	 mov	 edi, DWORD PTR __Gfirst$1$[ebp]
$LN179@Partition_:
  00154	75 54		 jne	 SHORT $LN27@Partition_
  00156	3b 7d 08	 cmp	 edi, DWORD PTR __Last$[ebp]
  00159	0f 84 ce 00 00
	00		 je	 $LN129@Partition_

; 8344 :         }
; 8345 : 
; 8346 :         if (_Glast == _First) { // no room at bottom, rotate pivot upward
; 8347 :             if (_Plast != _Gfirst) {

  0015f	8b 5d fc	 mov	 ebx, DWORD PTR __Plast$1$[ebp]
  00162	3b df		 cmp	 ebx, edi
  00164	74 18		 je	 SHORT $LN146@Partition_
; File C:\Program Files\Microsoft Visual Studio\2022\Community\VC\Tools\MSVC\14.44.35207\include\utility

; 140  :     _Left    = _STD move(_Right);

  00166	8b 03		 mov	 eax, DWORD PTR [ebx]
  00168	8b 0e		 mov	 ecx, DWORD PTR [esi]

; 139  :     _Ty _Tmp = _STD move(_Left);

  0016a	f3 0f 10 46 04	 movss	 xmm0, DWORD PTR [esi+4]

; 140  :     _Left    = _STD move(_Right);

  0016f	89 06		 mov	 DWORD PTR [esi], eax
  00171	8b 43 04	 mov	 eax, DWORD PTR [ebx+4]
  00174	89 46 04	 mov	 DWORD PTR [esi+4], eax

; 141  :     _Right   = _STD move(_Tmp);

  00177	89 0b		 mov	 DWORD PTR [ebx], ecx
  00179	f3 0f 11 43 04	 movss	 DWORD PTR [ebx+4], xmm0
$LN146@Partition_:

; 140  :     _Left    = _STD move(_Right);

  0017e	8b 07		 mov	 eax, DWORD PTR [edi]
; File C:\Program Files\Microsoft Visual Studio\2022\Community\VC\Tools\MSVC\14.44.35207\include\algorithm

; 8351 :             ++_Plast;

  00180	83 c3 08	 add	 ebx, 8
; File C:\Program Files\Microsoft Visual Studio\2022\Community\VC\Tools\MSVC\14.44.35207\include\utility

; 139  :     _Ty _Tmp = _STD move(_Left);

  00183	8b 0e		 mov	 ecx, DWORD PTR [esi]
  00185	f3 0f 10 46 04	 movss	 xmm0, DWORD PTR [esi+4]

; 140  :     _Left    = _STD move(_Right);

  0018a	89 06		 mov	 DWORD PTR [esi], eax
  0018c	8b 47 04	 mov	 eax, DWORD PTR [edi+4]
  0018f	89 46 04	 mov	 DWORD PTR [esi+4], eax
; File C:\Program Files\Microsoft Visual Studio\2022\Community\VC\Tools\MSVC\14.44.35207\include\algorithm

; 8353 :             ++_Pfirst;

  00192	83 c6 08	 add	 esi, 8

; 8354 :             ++_Gfirst;

  00195	8b 45 08	 mov	 eax, DWORD PTR __Last$[ebp]
; File C:\Program Files\Microsoft Visual Studio\2022\Community\VC\Tools\MSVC\14.44.35207\include\utility

; 141  :     _Right   = _STD move(_Tmp);

  00198	89 0f		 mov	 DWORD PTR [edi], ecx
  0019a	f3 0f 11 47 04	 movss	 DWORD PTR [edi+4], xmm0
; File C:\Program Files\Microsoft Visual Studio\2022\Community\VC\Tools\MSVC\14.44.35207\include\algorithm

; 8354 :             ++_Gfirst;

  0019f	83 c7 08	 add	 edi, 8
  001a2	89 5d fc	 mov	 DWORD PTR __Plast$1$[ebp], ebx
  001a5	e9 f5 fe ff ff	 jmp	 $LN180@Partition_
$LN27@Partition_:

; 8355 :         } else if (_Gfirst == _Last) { // no room at top, rotate pivot downward

  001aa	83 c2 f8	 add	 edx, -8			; fffffff8H
  001ad	89 55 f8	 mov	 DWORD PTR __Glast$1$[ebp], edx
  001b0	3b 7d 08	 cmp	 edi, DWORD PTR __Last$[ebp]
  001b3	75 52		 jne	 SHORT $LN30@Partition_

; 8356 :             if (--_Glast != --_Pfirst) {

  001b5	83 ee 08	 sub	 esi, 8
  001b8	8d 5e 04	 lea	 ebx, DWORD PTR [esi+4]
  001bb	89 5d ec	 mov	 DWORD PTR __Left$1$[ebp], ebx
  001be	3b d6		 cmp	 edx, esi
  001c0	74 18		 je	 SHORT $LN147@Partition_
; File C:\Program Files\Microsoft Visual Studio\2022\Community\VC\Tools\MSVC\14.44.35207\include\utility

; 140  :     _Left    = _STD move(_Right);

  001c2	8b 06		 mov	 eax, DWORD PTR [esi]
  001c4	8b 0a		 mov	 ecx, DWORD PTR [edx]

; 139  :     _Ty _Tmp = _STD move(_Left);

  001c6	f3 0f 10 42 04	 movss	 xmm0, DWORD PTR [edx+4]

; 140  :     _Left    = _STD move(_Right);

  001cb	89 02		 mov	 DWORD PTR [edx], eax
  001cd	8b 03		 mov	 eax, DWORD PTR [ebx]
  001cf	89 42 04	 mov	 DWORD PTR [edx+4], eax

; 141  :     _Right   = _STD move(_Tmp);

  001d2	89 0e		 mov	 DWORD PTR [esi], ecx
  001d4	f3 0f 11 03	 movss	 DWORD PTR [ebx], xmm0
  001d8	eb 03		 jmp	 SHORT $LN140@Partition_
$LN147@Partition_:
  001da	89 5d ec	 mov	 DWORD PTR __Left$1$[ebp], ebx
$LN140@Partition_:
; File C:\Program Files\Microsoft Visual Studio\2022\Community\VC\Tools\MSVC\14.44.35207\include\algorithm

; 8360 :             swap(*_Pfirst, *--_Plast); // intentional ADL

  001dd	8b 5d fc	 mov	 ebx, DWORD PTR __Plast$1$[ebp]
; File C:\Program Files\Microsoft Visual Studio\2022\Community\VC\Tools\MSVC\14.44.35207\include\utility

; 139  :     _Ty _Tmp = _STD move(_Left);

  001e0	8b 0e		 mov	 ecx, DWORD PTR [esi]
; File C:\Program Files\Microsoft Visual Studio\2022\Community\VC\Tools\MSVC\14.44.35207\include\algorithm

; 8360 :             swap(*_Pfirst, *--_Plast); // intentional ADL

  001e2	83 eb 08	 sub	 ebx, 8
  001e5	89 5d fc	 mov	 DWORD PTR __Plast$1$[ebp], ebx
; File C:\Program Files\Microsoft Visual Studio\2022\Community\VC\Tools\MSVC\14.44.35207\include\utility

; 140  :     _Left    = _STD move(_Right);

  001e8	8b 03		 mov	 eax, DWORD PTR [ebx]
  001ea	89 06		 mov	 DWORD PTR [esi], eax
  001ec	8b 43 04	 mov	 eax, DWORD PTR [ebx+4]

; 141  :     _Right   = _STD move(_Tmp);

  001ef	89 0b		 mov	 DWORD PTR [ebx], ecx

; 139  :     _Ty _Tmp = _STD move(_Left);

  001f1	8b 4d ec	 mov	 ecx, DWORD PTR __Left$1$[ebp]
  001f4	f3 0f 10 01	 movss	 xmm0, DWORD PTR [ecx]

; 140  :     _Left    = _STD move(_Right);

  001f8	89 01		 mov	 DWORD PTR [ecx], eax
; File C:\Program Files\Microsoft Visual Studio\2022\Community\VC\Tools\MSVC\14.44.35207\include\algorithm

; 8361 :         } else {

  001fa	8b 45 08	 mov	 eax, DWORD PTR __Last$[ebp]
; File C:\Program Files\Microsoft Visual Studio\2022\Community\VC\Tools\MSVC\14.44.35207\include\utility

; 141  :     _Right   = _STD move(_Tmp);

  001fd	f3 0f 11 43 04	 movss	 DWORD PTR [ebx+4], xmm0
; File C:\Program Files\Microsoft Visual Studio\2022\Community\VC\Tools\MSVC\14.44.35207\include\algorithm

; 8361 :         } else {

  00202	e9 9b fe ff ff	 jmp	 $LL8@Partition_
$LN30@Partition_:
; File C:\Program Files\Microsoft Visual Studio\2022\Community\VC\Tools\MSVC\14.44.35207\include\utility

; 139  :     _Ty _Tmp = _STD move(_Left);

  00207	8b 0f		 mov	 ecx, DWORD PTR [edi]

; 140  :     _Left    = _STD move(_Right);

  00209	8b 02		 mov	 eax, DWORD PTR [edx]

; 139  :     _Ty _Tmp = _STD move(_Left);

  0020b	f3 0f 10 47 04	 movss	 xmm0, DWORD PTR [edi+4]
  00210	8b 5d fc	 mov	 ebx, DWORD PTR __Plast$1$[ebp]

; 140  :     _Left    = _STD move(_Right);

  00213	89 07		 mov	 DWORD PTR [edi], eax
  00215	8b 42 04	 mov	 eax, DWORD PTR [edx+4]
  00218	89 47 04	 mov	 DWORD PTR [edi+4], eax
; File C:\Program Files\Microsoft Visual Studio\2022\Community\VC\Tools\MSVC\14.44.35207\include\algorithm

; 8363 :             ++_Gfirst;

  0021b	83 c7 08	 add	 edi, 8
  0021e	8b 45 08	 mov	 eax, DWORD PTR __Last$[ebp]
; File C:\Program Files\Microsoft Visual Studio\2022\Community\VC\Tools\MSVC\14.44.35207\include\utility

; 141  :     _Right   = _STD move(_Tmp);

  00221	89 0a		 mov	 DWORD PTR [edx], ecx
  00223	f3 0f 11 42 04	 movss	 DWORD PTR [edx+4], xmm0
  00228	e9 6f fe ff ff	 jmp	 $LN181@Partition_
$LN129@Partition_:

; 274  :         : first(_STD forward<_Other1>(_Val1)), second(_STD forward<_Other2>(_Val2)) {

  0022d	8b 4d e8	 mov	 ecx, DWORD PTR ___$ReturnUdt$1$[ebp]
  00230	8b 45 fc	 mov	 eax, DWORD PTR __Plast$1$[ebp]
; File C:\Program Files\Microsoft Visual Studio\2022\Community\VC\Tools\MSVC\14.44.35207\include\algorithm

; 8343 :             return pair<_RanIt, _RanIt>(_Pfirst, _Plast);

  00233	5f		 pop	 edi
; File C:\Program Files\Microsoft Visual Studio\2022\Community\VC\Tools\MSVC\14.44.35207\include\utility

; 274  :         : first(_STD forward<_Other1>(_Val1)), second(_STD forward<_Other2>(_Val2)) {

  00234	89 31		 mov	 DWORD PTR [ecx], esi
; File C:\Program Files\Microsoft Visual Studio\2022\Community\VC\Tools\MSVC\14.44.35207\include\algorithm

; 8343 :             return pair<_RanIt, _RanIt>(_Pfirst, _Plast);

  00236	5e		 pop	 esi
; File C:\Program Files\Microsoft Visual Studio\2022\Community\VC\Tools\MSVC\14.44.35207\include\utility

; 274  :         : first(_STD forward<_Other1>(_Val1)), second(_STD forward<_Other2>(_Val2)) {

  00237	89 41 04	 mov	 DWORD PTR [ecx+4], eax
; File C:\Program Files\Microsoft Visual Studio\2022\Community\VC\Tools\MSVC\14.44.35207\include\algorithm

; 8343 :             return pair<_RanIt, _RanIt>(_Pfirst, _Plast);

  0023a	8b c1		 mov	 eax, ecx
  0023c	5b		 pop	 ebx

; 8364 :         }
; 8365 :     }
; 8366 : }

  0023d	8b e5		 mov	 esp, ebp
  0023f	5d		 pop	 ebp
  00240	c3		 ret	 0
??$_Partition_by_median_guess_unchecked@PAU?$pair@PAVCInstanceBase@@M@std@@P6A_NABU12@0@Z@std@@YA?AU?$pair@PAU?$pair@PAVCInstanceBase@@M@std@@PAU12@@0@PAU?$pair@PAVCInstanceBase@@M@0@0P6A_NABU20@1@Z@Z ENDP ; std::_Partition_by_median_guess_unchecked<std::pair<CInstanceBase *,float> *,bool (__cdecl*)(std::pair<CInstanceBase *,float> const &,std::pair<CInstanceBase *,float> const &)>
_TEXT	ENDS
; Function compile flags: /Ogtp
; File C:\Program Files\Microsoft Visual Studio\2022\Community\VC\Tools\MSVC\14.44.35207\include\__msvc_heap_algorithms.hpp
; File C:\Program Files\Microsoft Visual Studio\2022\Community\VC\Tools\MSVC\14.44.35207\include\utility
; File C:\Program Files\Microsoft Visual Studio\2022\Community\VC\Tools\MSVC\14.44.35207\include\__msvc_heap_algorithms.hpp
; File C:\Program Files\Microsoft Visual Studio\2022\Community\VC\Tools\MSVC\14.44.35207\include\utility
; File C:\Program Files\Microsoft Visual Studio\2022\Community\VC\Tools\MSVC\14.44.35207\include\__msvc_heap_algorithms.hpp
; File C:\Program Files\Microsoft Visual Studio\2022\Community\VC\Tools\MSVC\14.44.35207\include\utility
; File C:\Program Files\Microsoft Visual Studio\2022\Community\VC\Tools\MSVC\14.44.35207\include\__msvc_heap_algorithms.hpp
; File C:\Program Files\Microsoft Visual Studio\2022\Community\VC\Tools\MSVC\14.44.35207\include\utility
; File C:\Program Files\Microsoft Visual Studio\2022\Community\VC\Tools\MSVC\14.44.35207\include\__msvc_heap_algorithms.hpp
; File C:\Program Files\Microsoft Visual Studio\2022\Community\VC\Tools\MSVC\14.44.35207\include\utility
; File C:\Program Files\Microsoft Visual Studio\2022\Community\VC\Tools\MSVC\14.44.35207\include\__msvc_heap_algorithms.hpp
;	COMDAT ??$_Pop_heap_hole_by_index@PAU?$pair@PAVCInstanceBase@@M@std@@U12@P6A_NABU12@0@Z@std@@YAXPAU?$pair@PAVCInstanceBase@@M@0@HH$$QAU10@P6A_NABU10@2@Z@Z
_TEXT	SEGMENT
__Max_sequence_non_leaf$1$ = -8				; size = 4
__Top$1$ = -4						; size = 4
__Bottom$ = 8						; size = 4
__Val$ = 12						; size = 4
__Pred$ = 16						; size = 4
??$_Pop_heap_hole_by_index@PAU?$pair@PAVCInstanceBase@@M@std@@U12@P6A_NABU12@0@Z@std@@YAXPAU?$pair@PAVCInstanceBase@@M@0@HH$$QAU10@P6A_NABU10@2@Z@Z PROC ; std::_Pop_heap_hole_by_index<std::pair<CInstanceBase *,float> *,std::pair<CInstanceBase *,float>,bool (__cdecl*)(std::pair<CInstanceBase *,float> const &,std::pair<CInstanceBase *,float> const &)>, COMDAT
; __First$ = ecx
; __Hole$ = edx

; 58   :     _RanIt _First, _Iter_diff_t<_RanIt> _Hole, _Iter_diff_t<_RanIt> _Bottom, _Ty&& _Val, _Pr _Pred) {

  00000	55		 push	 ebp
  00001	8b ec		 mov	 ebp, esp
  00003	83 ec 08	 sub	 esp, 8

; 59   :     // percolate _Hole to _Bottom, then push _Val
; 60   :     _STL_INTERNAL_CHECK(_Bottom > 0);
; 61   : 
; 62   :     using _Diff      = _Iter_diff_t<_RanIt>;
; 63   :     const _Diff _Top = _Hole;
; 64   :     _Diff _Idx       = _Hole;
; 65   : 
; 66   :     // Check whether _Idx can have a child before calculating that child's index, since
; 67   :     // calculating the child's index can trigger integer overflows
; 68   :     const _Diff _Max_sequence_non_leaf = (_Bottom - 1) >> 1; // shift for codegen

  00006	8b 45 08	 mov	 eax, DWORD PTR __Bottom$[ebp]
  00009	53		 push	 ebx
  0000a	56		 push	 esi
  0000b	48		 dec	 eax
  0000c	8b d9		 mov	 ebx, ecx
  0000e	57		 push	 edi
  0000f	8b fa		 mov	 edi, edx
  00011	d1 f8		 sar	 eax, 1

; 69   :     while (_Idx < _Max_sequence_non_leaf) { // move _Hole down to larger child

  00013	8b 55 10	 mov	 edx, DWORD PTR __Pred$[ebp]
  00016	8b f7		 mov	 esi, edi
  00018	89 75 fc	 mov	 DWORD PTR __Top$1$[ebp], esi
  0001b	8b cf		 mov	 ecx, edi
  0001d	89 45 f8	 mov	 DWORD PTR __Max_sequence_non_leaf$1$[ebp], eax
  00020	3b f8		 cmp	 edi, eax
  00022	7d 3c		 jge	 SHORT $LN3@Pop_heap_h
$LL2@Pop_heap_h:

; 70   :         _Idx = 2 * _Idx + 2;

  00024	8d 34 09	 lea	 esi, DWORD PTR [ecx+ecx]

; 71   :         if (_DEBUG_LT_PRED(_Pred, *(_First + _Idx), *(_First + (_Idx - 1)))) {

  00027	8d 4b 10	 lea	 ecx, DWORD PTR [ebx+16]
  0002a	8d 0c f1	 lea	 ecx, DWORD PTR [ecx+esi*8]
  0002d	8d 41 f8	 lea	 eax, DWORD PTR [ecx-8]
  00030	50		 push	 eax
  00031	51		 push	 ecx
  00032	ff d2		 call	 edx
  00034	8b 55 10	 mov	 edx, DWORD PTR __Pred$[ebp]
  00037	83 c4 08	 add	 esp, 8

; 72   :             --_Idx;
; 73   :         }
; 74   :         *(_First + _Hole) = _STD move(*(_First + _Idx));

  0003a	0f b6 c0	 movzx	 eax, al
  0003d	f7 d8		 neg	 eax
  0003f	1b c0		 sbb	 eax, eax
  00041	8d 48 02	 lea	 ecx, DWORD PTR [eax+2]
  00044	03 ce		 add	 ecx, esi
; File C:\Program Files\Microsoft Visual Studio\2022\Community\VC\Tools\MSVC\14.44.35207\include\utility

; 365  :         first  = _STD forward<_Ty1>(_Right.first);

  00046	8b 04 cb	 mov	 eax, DWORD PTR [ebx+ecx*8]
  00049	89 04 fb	 mov	 DWORD PTR [ebx+edi*8], eax

; 366  :         second = _STD forward<_Ty2>(_Right.second);

  0004c	8b 44 cb 04	 mov	 eax, DWORD PTR [ebx+ecx*8+4]
  00050	89 44 fb 04	 mov	 DWORD PTR [ebx+edi*8+4], eax
; File C:\Program Files\Microsoft Visual Studio\2022\Community\VC\Tools\MSVC\14.44.35207\include\__msvc_heap_algorithms.hpp

; 75   :         _Hole             = _Idx;

  00054	8b f9		 mov	 edi, ecx
  00056	8b 45 f8	 mov	 eax, DWORD PTR __Max_sequence_non_leaf$1$[ebp]
  00059	3b c8		 cmp	 ecx, eax
  0005b	7c c7		 jl	 SHORT $LL2@Pop_heap_h
  0005d	8b 75 fc	 mov	 esi, DWORD PTR __Top$1$[ebp]
$LN3@Pop_heap_h:

; 76   :     }
; 77   : 
; 78   :     if (_Idx == _Max_sequence_non_leaf && _Bottom % 2 == 0) { // only child at bottom, move _Hole down to it

  00060	3b c8		 cmp	 ecx, eax
  00062	75 1a		 jne	 SHORT $LN5@Pop_heap_h
  00064	8b 4d 08	 mov	 ecx, DWORD PTR __Bottom$[ebp]
  00067	f6 c1 01	 test	 cl, 1
  0006a	75 12		 jne	 SHORT $LN5@Pop_heap_h
; File C:\Program Files\Microsoft Visual Studio\2022\Community\VC\Tools\MSVC\14.44.35207\include\utility

; 365  :         first  = _STD forward<_Ty1>(_Right.first);

  0006c	8b 44 cb f8	 mov	 eax, DWORD PTR [ebx+ecx*8-8]
  00070	89 04 fb	 mov	 DWORD PTR [ebx+edi*8], eax

; 366  :         second = _STD forward<_Ty2>(_Right.second);

  00073	8b 44 cb fc	 mov	 eax, DWORD PTR [ebx+ecx*8-4]
  00077	89 44 fb 04	 mov	 DWORD PTR [ebx+edi*8+4], eax
; File C:\Program Files\Microsoft Visual Studio\2022\Community\VC\Tools\MSVC\14.44.35207\include\__msvc_heap_algorithms.hpp

; 80   :         _Hole             = _Bottom - 1;

  0007b	8d 79 ff	 lea	 edi, DWORD PTR [ecx-1]
$LN5@Pop_heap_h:

; 27   :         _Top < _Hole && _DEBUG_LT_PRED(_Pred, *(_First + _Idx), _Val); _Idx = (_Hole - 1) >> 1) { // shift for codegen

  0007e	3b f7		 cmp	 esi, edi
  00080	7d 2d		 jge	 SHORT $LN32@Pop_heap_h
$LL16@Pop_heap_h:
  00082	ff 75 0c	 push	 DWORD PTR __Val$[ebp]
  00085	8d 77 ff	 lea	 esi, DWORD PTR [edi-1]
  00088	d1 fe		 sar	 esi, 1
  0008a	8d 04 f3	 lea	 eax, DWORD PTR [ebx+esi*8]
  0008d	50		 push	 eax
  0008e	ff d2		 call	 edx
  00090	83 c4 08	 add	 esp, 8
  00093	84 c0		 test	 al, al
  00095	74 18		 je	 SHORT $LN32@Pop_heap_h
; File C:\Program Files\Microsoft Visual Studio\2022\Community\VC\Tools\MSVC\14.44.35207\include\utility

; 365  :         first  = _STD forward<_Ty1>(_Right.first);

  00097	8b 04 f3	 mov	 eax, DWORD PTR [ebx+esi*8]
; File C:\Program Files\Microsoft Visual Studio\2022\Community\VC\Tools\MSVC\14.44.35207\include\__msvc_heap_algorithms.hpp

; 27   :         _Top < _Hole && _DEBUG_LT_PRED(_Pred, *(_First + _Idx), _Val); _Idx = (_Hole - 1) >> 1) { // shift for codegen

  0009a	8b 55 10	 mov	 edx, DWORD PTR __Pred$[ebp]
; File C:\Program Files\Microsoft Visual Studio\2022\Community\VC\Tools\MSVC\14.44.35207\include\utility

; 365  :         first  = _STD forward<_Ty1>(_Right.first);

  0009d	89 04 fb	 mov	 DWORD PTR [ebx+edi*8], eax

; 366  :         second = _STD forward<_Ty2>(_Right.second);

  000a0	8b 44 f3 04	 mov	 eax, DWORD PTR [ebx+esi*8+4]
  000a4	89 44 fb 04	 mov	 DWORD PTR [ebx+edi*8+4], eax
; File C:\Program Files\Microsoft Visual Studio\2022\Community\VC\Tools\MSVC\14.44.35207\include\__msvc_heap_algorithms.hpp

; 30   :         _Hole             = _Idx;

  000a8	8b fe		 mov	 edi, esi
  000aa	39 75 fc	 cmp	 DWORD PTR __Top$1$[ebp], esi
  000ad	7c d3		 jl	 SHORT $LL16@Pop_heap_h
$LN32@Pop_heap_h:
; File C:\Program Files\Microsoft Visual Studio\2022\Community\VC\Tools\MSVC\14.44.35207\include\utility

; 365  :         first  = _STD forward<_Ty1>(_Right.first);

  000af	8b 4d 0c	 mov	 ecx, DWORD PTR __Val$[ebp]
  000b2	8b 01		 mov	 eax, DWORD PTR [ecx]
  000b4	89 04 fb	 mov	 DWORD PTR [ebx+edi*8], eax

; 366  :         second = _STD forward<_Ty2>(_Right.second);

  000b7	8b 41 04	 mov	 eax, DWORD PTR [ecx+4]
  000ba	89 44 fb 04	 mov	 DWORD PTR [ebx+edi*8+4], eax
  000be	5f		 pop	 edi
  000bf	5e		 pop	 esi
  000c0	5b		 pop	 ebx
; File C:\Program Files\Microsoft Visual Studio\2022\Community\VC\Tools\MSVC\14.44.35207\include\__msvc_heap_algorithms.hpp

; 84   : }

  000c1	8b e5		 mov	 esp, ebp
  000c3	5d		 pop	 ebp
  000c4	c3		 ret	 0
??$_Pop_heap_hole_by_index@PAU?$pair@PAVCInstanceBase@@M@std@@U12@P6A_NABU12@0@Z@std@@YAXPAU?$pair@PAVCInstanceBase@@M@0@HH$$QAU10@P6A_NABU10@2@Z@Z ENDP ; std::_Pop_heap_hole_by_index<std::pair<CInstanceBase *,float> *,std::pair<CInstanceBase *,float>,bool (__cdecl*)(std::pair<CInstanceBase *,float> const &,std::pair<CInstanceBase *,float> const &)>
_TEXT	ENDS
; Function compile flags: /Ogtp
; File C:\Program Files\Microsoft Visual Studio\2022\Community\VC\Tools\MSVC\14.44.35207\include\__msvc_heap_algorithms.hpp
; File C:\Program Files\Microsoft Visual Studio\2022\Community\VC\Tools\MSVC\14.44.35207\include\utility
; File C:\Program Files\Microsoft Visual Studio\2022\Community\VC\Tools\MSVC\14.44.35207\include\__msvc_heap_algorithms.hpp
; File C:\Program Files\Microsoft Visual Studio\2022\Community\VC\Tools\MSVC\14.44.35207\include\utility
; File C:\Program Files\Microsoft Visual Studio\2022\Community\VC\Tools\MSVC\14.44.35207\include\__msvc_heap_algorithms.hpp
;	COMDAT ??$_Push_heap_by_index@PAU?$pair@PAVCInstanceBase@@M@std@@U12@P6A_NABU12@0@Z@std@@YAXPAU?$pair@PAVCInstanceBase@@M@0@HH$$QAU10@P6A_NABU10@2@Z@Z
_TEXT	SEGMENT
__Top$ = 8						; size = 4
__Val$ = 12						; size = 4
__Pred$ = 16						; size = 4
??$_Push_heap_by_index@PAU?$pair@PAVCInstanceBase@@M@std@@U12@P6A_NABU12@0@Z@std@@YAXPAU?$pair@PAVCInstanceBase@@M@0@HH$$QAU10@P6A_NABU10@2@Z@Z PROC ; std::_Push_heap_by_index<std::pair<CInstanceBase *,float> *,std::pair<CInstanceBase *,float>,bool (__cdecl*)(std::pair<CInstanceBase *,float> const &,std::pair<CInstanceBase *,float> const &)>, COMDAT
; __First$ = ecx
; __Hole$ = edx

; 23   :     _RanIt _First, _Iter_diff_t<_RanIt> _Hole, _Iter_diff_t<_RanIt> _Top, _Ty&& _Val, _Pr _Pred) {

  00000	55		 push	 ebp
  00001	8b ec		 mov	 ebp, esp
  00003	53		 push	 ebx
  00004	57		 push	 edi
  00005	8b fa		 mov	 edi, edx
  00007	8b d9		 mov	 ebx, ecx

; 24   :     // percolate _Hole to _Top or where _Val belongs
; 25   :     using _Diff = _Iter_diff_t<_RanIt>;
; 26   :     for (_Diff _Idx                                                         = (_Hole - 1) >> 1; // shift for codegen
; 27   :         _Top < _Hole && _DEBUG_LT_PRED(_Pred, *(_First + _Idx), _Val); _Idx = (_Hole - 1) >> 1) { // shift for codegen

  00009	39 7d 08	 cmp	 DWORD PTR __Top$[ebp], edi
  0000c	7d 2e		 jge	 SHORT $LN16@Push_heap_
  0000e	56		 push	 esi
  0000f	90		 npad	 1
$LL4@Push_heap_:
  00010	ff 75 0c	 push	 DWORD PTR __Val$[ebp]
  00013	8d 77 ff	 lea	 esi, DWORD PTR [edi-1]
  00016	d1 fe		 sar	 esi, 1
  00018	8d 04 f3	 lea	 eax, DWORD PTR [ebx+esi*8]
  0001b	50		 push	 eax
  0001c	ff 55 10	 call	 DWORD PTR __Pred$[ebp]
  0001f	83 c4 08	 add	 esp, 8
  00022	84 c0		 test	 al, al
  00024	74 15		 je	 SHORT $LN19@Push_heap_
; File C:\Program Files\Microsoft Visual Studio\2022\Community\VC\Tools\MSVC\14.44.35207\include\utility

; 365  :         first  = _STD forward<_Ty1>(_Right.first);

  00026	8b 04 f3	 mov	 eax, DWORD PTR [ebx+esi*8]
  00029	89 04 fb	 mov	 DWORD PTR [ebx+edi*8], eax

; 366  :         second = _STD forward<_Ty2>(_Right.second);

  0002c	8b 44 f3 04	 mov	 eax, DWORD PTR [ebx+esi*8+4]
  00030	89 44 fb 04	 mov	 DWORD PTR [ebx+edi*8+4], eax
; File C:\Program Files\Microsoft Visual Studio\2022\Community\VC\Tools\MSVC\14.44.35207\include\__msvc_heap_algorithms.hpp

; 30   :         _Hole             = _Idx;

  00034	8b fe		 mov	 edi, esi
  00036	39 75 08	 cmp	 DWORD PTR __Top$[ebp], esi
  00039	7c d5		 jl	 SHORT $LL4@Push_heap_
$LN19@Push_heap_:
  0003b	5e		 pop	 esi
$LN16@Push_heap_:
; File C:\Program Files\Microsoft Visual Studio\2022\Community\VC\Tools\MSVC\14.44.35207\include\utility

; 365  :         first  = _STD forward<_Ty1>(_Right.first);

  0003c	8b 4d 0c	 mov	 ecx, DWORD PTR __Val$[ebp]
  0003f	8b 01		 mov	 eax, DWORD PTR [ecx]
  00041	89 04 fb	 mov	 DWORD PTR [ebx+edi*8], eax

; 366  :         second = _STD forward<_Ty2>(_Right.second);

  00044	8b 41 04	 mov	 eax, DWORD PTR [ecx+4]
  00047	89 44 fb 04	 mov	 DWORD PTR [ebx+edi*8+4], eax
  0004b	5f		 pop	 edi
  0004c	5b		 pop	 ebx
; File C:\Program Files\Microsoft Visual Studio\2022\Community\VC\Tools\MSVC\14.44.35207\include\__msvc_heap_algorithms.hpp

; 34   : }

  0004d	5d		 pop	 ebp
  0004e	c3		 ret	 0
??$_Push_heap_by_index@PAU?$pair@PAVCInstanceBase@@M@std@@U12@P6A_NABU12@0@Z@std@@YAXPAU?$pair@PAVCInstanceBase@@M@0@HH$$QAU10@P6A_NABU10@2@Z@Z ENDP ; std::_Push_heap_by_index<std::pair<CInstanceBase *,float> *,std::pair<CInstanceBase *,float>,bool (__cdecl*)(std::pair<CInstanceBase *,float> const &,std::pair<CInstanceBase *,float> const &)>
_TEXT	ENDS
; Function compile flags: /Ogtp
; File C:\Program Files\Microsoft Visual Studio\2022\Community\VC\Tools\MSVC\14.44.35207\include\algorithm
; File C:\Program Files\Microsoft Visual Studio\2022\Community\VC\Tools\MSVC\14.44.35207\include\utility
; File C:\Program Files\Microsoft Visual Studio\2022\Community\VC\Tools\MSVC\14.44.35207\include\algorithm
; File C:\Program Files\Microsoft Visual Studio\2022\Community\VC\Tools\MSVC\14.44.35207\include\utility
; File C:\Program Files\Microsoft Visual Studio\2022\Community\VC\Tools\MSVC\14.44.35207\include\algorithm
; File C:\Program Files\Microsoft Visual Studio\2022\Community\VC\Tools\MSVC\14.44.35207\include\utility
; File C:\Program Files\Microsoft Visual Studio\2022\Community\VC\Tools\MSVC\14.44.35207\include\algorithm
; File C:\Program Files\Microsoft Visual Studio\2022\Community\VC\Tools\MSVC\14.44.35207\include\utility
; File C:\Program Files\Microsoft Visual Studio\2022\Community\VC\Tools\MSVC\14.44.35207\include\algorithm
; File C:\Program Files\Microsoft Visual Studio\2022\Community\VC\Tools\MSVC\14.44.35207\include\utility
; File C:\Program Files\Microsoft Visual Studio\2022\Community\VC\Tools\MSVC\14.44.35207\include\algorithm
;	COMDAT ??$_Med3_unchecked@PAU?$pair@PAVCInstanceBase@@M@std@@P6A_NABU12@0@Z@std@@YAXPAU?$pair@PAVCInstanceBase@@M@0@00P6A_NABU10@1@Z@Z
_TEXT	SEGMENT
__First$1$ = -4						; size = 4
__Last$ = 8						; size = 4
__Pred$ = 12						; size = 4
??$_Med3_unchecked@PAU?$pair@PAVCInstanceBase@@M@std@@P6A_NABU12@0@Z@std@@YAXPAU?$pair@PAVCInstanceBase@@M@0@00P6A_NABU10@1@Z@Z PROC ; std::_Med3_unchecked<std::pair<CInstanceBase *,float> *,bool (__cdecl*)(std::pair<CInstanceBase *,float> const &,std::pair<CInstanceBase *,float> const &)>, COMDAT
; __First$ = ecx
; __Mid$ = edx

; 8265 : _CONSTEXPR20 void _Med3_unchecked(_RanIt _First, _RanIt _Mid, _RanIt _Last, _Pr _Pred) {

  00000	55		 push	 ebp
  00001	8b ec		 mov	 ebp, esp
  00003	51		 push	 ecx
  00004	53		 push	 ebx
  00005	56		 push	 esi
  00006	8b c1		 mov	 eax, ecx
  00008	8b f2		 mov	 esi, edx
  0000a	57		 push	 edi

; 8266 :     // sort median of three elements to middle
; 8267 :     if (_DEBUG_LT_PRED(_Pred, *_Mid, *_First)) {

  0000b	50		 push	 eax
  0000c	56		 push	 esi
  0000d	89 45 fc	 mov	 DWORD PTR __First$1$[ebp], eax
  00010	8d 58 04	 lea	 ebx, DWORD PTR [eax+4]
  00013	ff 55 0c	 call	 DWORD PTR __Pred$[ebp]
  00016	83 c4 08	 add	 esp, 8
  00019	84 c0		 test	 al, al
  0001b	74 19		 je	 SHORT $LN43@Med3_unche
; File C:\Program Files\Microsoft Visual Studio\2022\Community\VC\Tools\MSVC\14.44.35207\include\utility

; 140  :     _Left    = _STD move(_Right);

  0001d	8b 55 fc	 mov	 edx, DWORD PTR __First$1$[ebp]
  00020	8b 0e		 mov	 ecx, DWORD PTR [esi]

; 139  :     _Ty _Tmp = _STD move(_Left);

  00022	f3 0f 10 46 04	 movss	 xmm0, DWORD PTR [esi+4]

; 140  :     _Left    = _STD move(_Right);

  00027	8b 02		 mov	 eax, DWORD PTR [edx]
  00029	89 06		 mov	 DWORD PTR [esi], eax
  0002b	8b 03		 mov	 eax, DWORD PTR [ebx]
  0002d	89 46 04	 mov	 DWORD PTR [esi+4], eax

; 141  :     _Right   = _STD move(_Tmp);

  00030	89 0a		 mov	 DWORD PTR [edx], ecx
  00032	f3 0f 11 03	 movss	 DWORD PTR [ebx], xmm0
$LN43@Med3_unche:
; File C:\Program Files\Microsoft Visual Studio\2022\Community\VC\Tools\MSVC\14.44.35207\include\algorithm

; 8271 :     if (_DEBUG_LT_PRED(_Pred, *_Last, *_Mid)) { // swap middle and last, then test first again

  00036	56		 push	 esi
  00037	ff 75 08	 push	 DWORD PTR __Last$[ebp]
  0003a	ff 55 0c	 call	 DWORD PTR __Pred$[ebp]
  0003d	83 c4 08	 add	 esp, 8
  00040	84 c0		 test	 al, al
  00042	74 42		 je	 SHORT $LN40@Med3_unche
; File C:\Program Files\Microsoft Visual Studio\2022\Community\VC\Tools\MSVC\14.44.35207\include\utility

; 139  :     _Ty _Tmp = _STD move(_Left);

  00044	8b 55 08	 mov	 edx, DWORD PTR __Last$[ebp]

; 140  :     _Left    = _STD move(_Right);

  00047	8b 06		 mov	 eax, DWORD PTR [esi]
; File C:\Program Files\Microsoft Visual Studio\2022\Community\VC\Tools\MSVC\14.44.35207\include\algorithm

; 8274 :         if (_DEBUG_LT_PRED(_Pred, *_Mid, *_First)) {

  00049	ff 75 fc	 push	 DWORD PTR __First$1$[ebp]
; File C:\Program Files\Microsoft Visual Studio\2022\Community\VC\Tools\MSVC\14.44.35207\include\utility

; 139  :     _Ty _Tmp = _STD move(_Left);

  0004c	8b 0a		 mov	 ecx, DWORD PTR [edx]
  0004e	f3 0f 10 42 04	 movss	 xmm0, DWORD PTR [edx+4]

; 140  :     _Left    = _STD move(_Right);

  00053	89 02		 mov	 DWORD PTR [edx], eax
  00055	8b 46 04	 mov	 eax, DWORD PTR [esi+4]
  00058	89 42 04	 mov	 DWORD PTR [edx+4], eax
; File C:\Program Files\Microsoft Visual Studio\2022\Community\VC\Tools\MSVC\14.44.35207\include\algorithm

; 8274 :         if (_DEBUG_LT_PRED(_Pred, *_Mid, *_First)) {

  0005b	56		 push	 esi
; File C:\Program Files\Microsoft Visual Studio\2022\Community\VC\Tools\MSVC\14.44.35207\include\utility

; 141  :     _Right   = _STD move(_Tmp);

  0005c	89 0e		 mov	 DWORD PTR [esi], ecx
  0005e	f3 0f 11 46 04	 movss	 DWORD PTR [esi+4], xmm0
; File C:\Program Files\Microsoft Visual Studio\2022\Community\VC\Tools\MSVC\14.44.35207\include\algorithm

; 8274 :         if (_DEBUG_LT_PRED(_Pred, *_Mid, *_First)) {

  00063	ff 55 0c	 call	 DWORD PTR __Pred$[ebp]
  00066	83 c4 08	 add	 esp, 8
  00069	84 c0		 test	 al, al
  0006b	74 19		 je	 SHORT $LN40@Med3_unche
; File C:\Program Files\Microsoft Visual Studio\2022\Community\VC\Tools\MSVC\14.44.35207\include\utility

; 140  :     _Left    = _STD move(_Right);

  0006d	8b 55 fc	 mov	 edx, DWORD PTR __First$1$[ebp]
  00070	8b 0e		 mov	 ecx, DWORD PTR [esi]

; 139  :     _Ty _Tmp = _STD move(_Left);

  00072	f3 0f 10 46 04	 movss	 xmm0, DWORD PTR [esi+4]

; 140  :     _Left    = _STD move(_Right);

  00077	8b 02		 mov	 eax, DWORD PTR [edx]
  00079	89 06		 mov	 DWORD PTR [esi], eax
  0007b	8b 03		 mov	 eax, DWORD PTR [ebx]
  0007d	89 46 04	 mov	 DWORD PTR [esi+4], eax

; 141  :     _Right   = _STD move(_Tmp);

  00080	89 0a		 mov	 DWORD PTR [edx], ecx
  00082	f3 0f 11 03	 movss	 DWORD PTR [ebx], xmm0
$LN40@Med3_unche:
  00086	5f		 pop	 edi
