; Listing generated by Microsoft (R) Optimizing Compiler Version 19.44.35219.0 

	TITLE	c:\anka2project\anka2project\source\binary\vs_files\userinterface\release\pythonsystem.obj
	.686P
	.XMM
	include listing.inc
	.model	flat

INCLUDELIB OLDNAMES

PUBLIC	??_C@_01EEMJAFIK@?6@				; `string'
PUBLIC	??_C@_0M@POCEELAE@textureset?1@			; `string'
PUBLIC	??_C@_0M@PKDGGBDB@textureset?2@			; `string'
PUBLIC	??_C@_05MFGOEJPC@snow?1@			; `string'
PUBLIC	??_C@_05MBHMGDMH@snow?2@			; `string'
PUBLIC	??_C@_0M@LKGJDIDA@snow_metin2@			; `string'
PUBLIC	??_C@_06DFIONPJA@metin2@			; `string'
PUBLIC	??_C@_0L@PJKCGBDF@metin2?4cfg@			; `string'
PUBLIC	??_C@_0BB@FOCPKMNO@textureset?2snow?2@		; `string'
PUBLIC	??_C@_05ENDGNACA@WIDTH@				; `string'
PUBLIC	??_C@_07IJONGFBP@?5?$CFs?5?$CFs?6@		; `string'
PUBLIC	??_C@_03DJKBMDLB@BPP@				; `string'
PUBLIC	??_C@_06LJJMJONE@HEIGHT@			; `string'
PUBLIC	??_C@_0BA@KHKJCKOL@SOFTWARE_CURSOR@		; `string'
PUBLIC	??_C@_09JJJEBDOD@FREQUENCY@			; `string'
PUBLIC	??_C@_0L@JLMBCMBB@VISIBILITY@			; `string'
PUBLIC	??_C@_0P@HLGCIFEM@OBJECT_CULLING@		; `string'
PUBLIC	??_C@_0N@PBAPMOIE@VOICE_VOLUME@			; `string'
PUBLIC	??_C@_0N@GMIPKHGM@MUSIC_VOLUME@			; `string'
PUBLIC	??_C@_0L@MNJEEPBE@IS_SAVE_ID@			; `string'
PUBLIC	??_C@_05MBKNPFEG@GAMMA@				; `string'
PUBLIC	??_C@_0BH@DLIOKMKH@PRE_LOADING_DELAY_TIME@	; `string'
PUBLIC	??_C@_07JBPMLFBH@SAVE_ID@			; `string'
PUBLIC	??_C@_0BA@LLBGEPPK@USE_DEFAULT_IME@		; `string'
PUBLIC	??_C@_08NHNHGFNP@WINDOWED@			; `string'
PUBLIC	??_C@_0BF@BGGNMKON@DECOMPRESSED_TEXTURE@	; `string'
PUBLIC	??_C@_0N@FFBEOPBM@SHADOW_LEVEL@			; `string'
PUBLIC	??_C@_09EOOFFIKE@VIEW_CHAT@			; `string'
PUBLIC	??_C@_0O@HAABBABC@NO_SOUND_CARD@		; `string'
PUBLIC	??_C@_0M@FJJANDDI@SHOW_DAMAGE@			; `string'
PUBLIC	??_C@_0BB@PPFHKIN@ALWAYS_VIEW_NAME@		; `string'
PUBLIC	??_C@_0M@ENBKKOLK@FOG_MODE_ON@			; `string'
PUBLIC	??_C@_0P@FIIALOBN@SHOW_SALESTEXT@		; `string'
PUBLIC	??_C@_0O@CJEJELCH@NIGHT_MODE_ON@		; `string'
PUBLIC	??_C@_0BA@NFNHMEJC@ENB_MODE_STATUS@		; `string'
PUBLIC	??_C@_0BC@HAGIIEKM@SNOW_TEXTURE_MODE@		; `string'
PUBLIC	??_C@_0N@KMFJICPO@SNOW_MODE_ON@			; `string'
PUBLIC	??_C@_0BD@CPEGLNHL@PRIVATE_SHOP_LEVEL@		; `string'
PUBLIC	??_C@_0N@GIFMPEP@EFFECT_LEVEL@			; `string'
PUBLIC	??_C@_0L@GINCBMMI@PET_STATUS@			; `string'
PUBLIC	??_C@_0BA@FNNEOBHP@DROP_ITEM_LEVEL@		; `string'
PUBLIC	??_C@_0O@OJELEFGI@SHOW_MOBLEVEL@		; `string'
PUBLIC	??_C@_0BA@GCOPFLFP@NPC_NAME_STATUS@		; `string'
PUBLIC	??_C@_0M@GHHEOMFF@SHADOW_TEXT@			; `string'
PUBLIC	??_C@_0P@PPJNJBAN@SHOW_MOBAIFLAG@		; `string'
PUBLIC	??_C@_0M@IIMGGGNJ@STONE_SCALE@			; `string'
PUBLIC	??_C@_03PHODBHCN@FOV@				; `string'
PUBLIC	??_C@_0L@KHDDOOJN@BOSS_TRACK@			; `string'
PUBLIC	??_C@_0O@EDNCBHME@DUNGEON_TRACK@		; `string'
PUBLIC	??_C@_0BA@HPBHGBH@WINDOWED?7?7?7?7?$CFd?6@	; `string'
PUBLIC	??_C@_0BAC@DOGJKKLN@WIDTH?7?7?7?7?7?7?$CFd?6HEIGHT?7?7?7?7?7?7?$CFd?6BP@ ; `string'
PUBLIC	??_C@_0BG@HBKBHOOM@ALWAYS_VIEW_NAME?7?7?$CFd?6@	; `string'
PUBLIC	??_C@_0BB@EKNDKDHN@VIEW_CHAT?7?7?7?7?$CFd?6@	; `string'
PUBLIC	??_C@_0BF@CBDMMBD@SHOW_SALESTEXT?7?7?7?$CFd?6@	; `string'
PUBLIC	??_C@_0BC@GFALNGMC@SHOW_DAMAGE?7?7?7?$CFd?6@	; `string'
PUBLIC	??_C@_0BF@GFEJJOAK@NIGHT_MODE_ON?7?7?7?7?$CFd?6@ ; `string'
PUBLIC	??_C@_0BC@KOPKBKJM@FOG_MODE_ON?7?7?7?$CFd?6@	; `string'
PUBLIC	??_C@_0BI@BNIBNCGL@SNOW_TEXTURE_MODE?7?7?7?$CFd?6@ ; `string'
PUBLIC	??_C@_0BE@NHJCEGGL@SNOW_MODE_ON?7?7?7?7?$CFd?6@	; `string'
PUBLIC	??_C@_0BE@IMIFHAPE@EFFECT_LEVEL?7?7?7?7?$CFd?6@	; `string'
PUBLIC	??_C@_0BG@OBKACNLI@ENB_MODE_STATUS?7?7?7?$CFd?6@ ; `string'
PUBLIC	??_C@_0BG@LPMIGAEG@DROP_ITEM_LEVEL?7?7?7?$CFd?6@ ; `string'
PUBLIC	??_C@_0BJ@JJIGJFIL@PRIVATE_SHOP_LEVEL?7?7?7?$CFd?6@ ; `string'
PUBLIC	??_C@_0BG@OKAOKIMI@NPC_NAME_STATUS?7?7?7?$CFd?6@ ; `string'
PUBLIC	??_C@_0BD@NBDPCEPA@PET_STATUS?7?7?7?7?7?$CFd?6@	; `string'
PUBLIC	??_C@_0BG@MCGLPIEN@SHOW_MOBAIFLAG?7?7?7?7?$CFd?6@ ; `string'
PUBLIC	??_C@_0BF@OBINEHIM@SHOW_MOBLEVEL?7?7?7?7?$CFd?6@ ; `string'
PUBLIC	??_C@_0P@IHONFFJD@FOV?7?7?7?7?7?7?$CF?42f?6@	; `string'
PUBLIC	??_C@_0BD@DINNCNGH@SHADOW_TEXT?7?7?7?7?$CFd?6@	; `string'
PUBLIC	??_C@_0BF@NOAAOLGK@DUNGEON_TRACK?7?7?7?7?$CFd?6@ ; `string'
PUBLIC	??_C@_0BF@FENEKMIE@STONE_SCALE?7?7?7?7?$CF?43f?6@ ; `string'
PUBLIC	??_C@_0BG@EPIJEOEF@USE_DEFAULT_IME?7?7?7?$CFd?6@ ; `string'
PUBLIC	??_C@_0BD@IJEFEFIP@BOSS_TRACK?7?7?7?7?7?$CFd?6@	; `string'
PUBLIC	??_C@_0O@OMHCOGAL@interface?4cfg@		; `string'
PUBLIC	??_C@_0BE@KMMKCIAE@SHADOW_LEVEL?7?7?7?7?$CFd?6@	; `string'
PUBLIC	??_C@_0BK@BDPDEBGA@Cannot?5open?5interface?4cfg@ ; `string'
PUBLIC	??_C@_0BG@OMGMEENH@OnSaveInterfaceStatus@	; `string'
PUBLIC	??_C@_1KC@NKDKBPPP@?$AAC?$AA?3?$AA?2?$AAA?$AAn?$AAk?$AAa?$AA2?$AAP?$AAr?$AAo?$AAj?$AAe?$AAc?$AAt@ ; `string'
PUBLIC	??_C@_0BK@OCPLHOPM@CPythonSystem?5MUST?5CLEAR?$CB@ ; `string'
PUBLIC	??_C@_1HE@NNHPJIFO@?$AAm?$AA_?$AAp?$AAo?$AAI?$AAn?$AAt?$AAe?$AAr?$AAf?$AAa?$AAc?$AAe?$AAH?$AAa@ ; `string'
PUBLIC	??_R2CPythonSystem@@8				; CPythonSystem::`RTTI Base Class Array'
PUBLIC	??_R2?$CSingleton@VCPythonSystem@@@@8		; CSingleton<CPythonSystem>::`RTTI Base Class Array'
PUBLIC	??_R1A@?0A@EA@?$CSingleton@VCPythonSystem@@@@8	; CSingleton<CPythonSystem>::`RTTI Base Class Descriptor at (0,-1,0,64)'
PUBLIC	??_R1A@?0A@EA@CPythonSystem@@8			; CPythonSystem::`RTTI Base Class Descriptor at (0,-1,0,64)'
PUBLIC	??_R0?AV?$CSingleton@VCPythonSystem@@@@@8	; CSingleton<CPythonSystem> `RTTI Type Descriptor'
PUBLIC	??_R3?$CSingleton@VCPythonSystem@@@@8		; CSingleton<CPythonSystem>::`RTTI Class Hierarchy Descriptor'
PUBLIC	??_R0?AVCPythonSystem@@@8			; CPythonSystem `RTTI Type Descriptor'
PUBLIC	??_R3CPythonSystem@@8				; CPythonSystem::`RTTI Class Hierarchy Descriptor'
PUBLIC	??_R4?$CSingleton@VCPythonSystem@@@@6B@		; CSingleton<CPythonSystem>::`RTTI Complete Object Locator'
PUBLIC	??_R4CPythonSystem@@6B@				; CPythonSystem::`RTTI Complete Object Locator'
PUBLIC	??_7?$CSingleton@VCPythonSystem@@@@6B@		; CSingleton<CPythonSystem>::`vftable'
PUBLIC	??_7CPythonSystem@@6B@				; CPythonSystem::`vftable'
EXTRN	?SetGamma@CPythonGraphic@@QAEXM@Z:PROC		; CPythonGraphic::SetGamma
EXTRN	?g_iLoadingDelayTime@@3HA:DWORD			; g_iLoadingDelayTime
EXTRN	__imp__GetSystemMetrics@4:PROC
EXTRN	?GetTextureSet@CTerrainImpl@@SAPAVCTextureSet@@XZ:PROC ; CTerrainImpl::GetTextureSet
EXTRN	?fMINMAX@@YAMMMM@Z:PROC				; fMINMAX
EXTRN	?GetD3D@CPythonGraphic@@QAEPAUIDirect3D8@@XZ:PROC ; CPythonGraphic::GetD3D
;	COMDAT ??_7CPythonSystem@@6B@
CONST	SEGMENT
??_7CPythonSystem@@6B@ DD FLAT:??_R4CPythonSystem@@6B@	; CPythonSystem::`vftable'
	DD	FLAT:??_ECPythonSystem@@UAEPAXI@Z
CONST	ENDS
;	COMDAT ??_7?$CSingleton@VCPythonSystem@@@@6B@
CONST	SEGMENT
??_7?$CSingleton@VCPythonSystem@@@@6B@ DD FLAT:??_R4?$CSingleton@VCPythonSystem@@@@6B@ ; CSingleton<CPythonSystem>::`vftable'
	DD	FLAT:??_E?$CSingleton@VCPythonSystem@@@@UAEPAXI@Z
CONST	ENDS
;	COMDAT ??_R4CPythonSystem@@6B@
rdata$r	SEGMENT
??_R4CPythonSystem@@6B@ DD 00H				; CPythonSystem::`RTTI Complete Object Locator'
	DD	00H
	DD	00H
	DD	FLAT:??_R0?AVCPythonSystem@@@8
	DD	FLAT:??_R3CPythonSystem@@8
rdata$r	ENDS
;	COMDAT ??_R4?$CSingleton@VCPythonSystem@@@@6B@
rdata$r	SEGMENT
??_R4?$CSingleton@VCPythonSystem@@@@6B@ DD 00H		; CSingleton<CPythonSystem>::`RTTI Complete Object Locator'
	DD	00H
	DD	00H
	DD	FLAT:??_R0?AV?$CSingleton@VCPythonSystem@@@@@8
	DD	FLAT:??_R3?$CSingleton@VCPythonSystem@@@@8
rdata$r	ENDS
;	COMDAT ??_R3CPythonSystem@@8
rdata$r	SEGMENT
??_R3CPythonSystem@@8 DD 00H				; CPythonSystem::`RTTI Class Hierarchy Descriptor'
	DD	00H
	DD	02H
	DD	FLAT:??_R2CPythonSystem@@8
rdata$r	ENDS
;	COMDAT ??_R0?AVCPythonSystem@@@8
data$rs	SEGMENT
??_R0?AVCPythonSystem@@@8 DD FLAT:??_7type_info@@6B@	; CPythonSystem `RTTI Type Descriptor'
	DD	00H
	DB	'.?AVCPythonSystem@@', 00H
data$rs	ENDS
;	COMDAT ??_R3?$CSingleton@VCPythonSystem@@@@8
rdata$r	SEGMENT
??_R3?$CSingleton@VCPythonSystem@@@@8 DD 00H		; CSingleton<CPythonSystem>::`RTTI Class Hierarchy Descriptor'
	DD	00H
	DD	01H
	DD	FLAT:??_R2?$CSingleton@VCPythonSystem@@@@8
rdata$r	ENDS
;	COMDAT ??_R0?AV?$CSingleton@VCPythonSystem@@@@@8
data$rs	SEGMENT
??_R0?AV?$CSingleton@VCPythonSystem@@@@@8 DD FLAT:??_7type_info@@6B@ ; CSingleton<CPythonSystem> `RTTI Type Descriptor'
	DD	00H
	DB	'.?AV?$CSingleton@VCPythonSystem@@@@', 00H
data$rs	ENDS
;	COMDAT ??_R1A@?0A@EA@CPythonSystem@@8
rdata$r	SEGMENT
??_R1A@?0A@EA@CPythonSystem@@8 DD FLAT:??_R0?AVCPythonSystem@@@8 ; CPythonSystem::`RTTI Base Class Descriptor at (0,-1,0,64)'
	DD	01H
	DD	00H
	DD	0ffffffffH
	DD	00H
	DD	040H
	DD	FLAT:??_R3CPythonSystem@@8
rdata$r	ENDS
;	COMDAT ??_R1A@?0A@EA@?$CSingleton@VCPythonSystem@@@@8
rdata$r	SEGMENT
??_R1A@?0A@EA@?$CSingleton@VCPythonSystem@@@@8 DD FLAT:??_R0?AV?$CSingleton@VCPythonSystem@@@@@8 ; CSingleton<CPythonSystem>::`RTTI Base Class Descriptor at (0,-1,0,64)'
	DD	00H
	DD	00H
	DD	0ffffffffH
	DD	00H
	DD	040H
	DD	FLAT:??_R3?$CSingleton@VCPythonSystem@@@@8
rdata$r	ENDS
;	COMDAT ??_R2?$CSingleton@VCPythonSystem@@@@8
rdata$r	SEGMENT
??_R2?$CSingleton@VCPythonSystem@@@@8 DD FLAT:??_R1A@?0A@EA@?$CSingleton@VCPythonSystem@@@@8 ; CSingleton<CPythonSystem>::`RTTI Base Class Array'
rdata$r	ENDS
;	COMDAT ??_R2CPythonSystem@@8
rdata$r	SEGMENT
??_R2CPythonSystem@@8 DD FLAT:??_R1A@?0A@EA@CPythonSystem@@8 ; CPythonSystem::`RTTI Base Class Array'
	DD	FLAT:??_R1A@?0A@EA@?$CSingleton@VCPythonSystem@@@@8
rdata$r	ENDS
;	COMDAT ??_C@_1HE@NNHPJIFO@?$AAm?$AA_?$AAp?$AAo?$AAI?$AAn?$AAt?$AAe?$AAr?$AAf?$AAa?$AAc?$AAe?$AAH?$AAa@
CONST	SEGMENT
??_C@_1HE@NNHPJIFO@?$AAm?$AA_?$AAp?$AAo?$AAI?$AAn?$AAt?$AAe?$AAr?$AAf?$AAa?$AAc?$AAe?$AAH?$AAa@ DB 'm'
	DB	00H, '_', 00H, 'p', 00H, 'o', 00H, 'I', 00H, 'n', 00H, 't', 00H
	DB	'e', 00H, 'r', 00H, 'f', 00H, 'a', 00H, 'c', 00H, 'e', 00H, 'H'
	DB	00H, 'a', 00H, 'n', 00H, 'd', 00H, 'l', 00H, 'e', 00H, 'r', 00H
	DB	'=', 00H, '=', 00H, 'N', 00H, 'U', 00H, 'L', 00H, 'L', 00H, ' '
	DB	00H, '&', 00H, '&', 00H, ' ', 00H, '"', 00H, 'C', 00H, 'P', 00H
	DB	'y', 00H, 't', 00H, 'h', 00H, 'o', 00H, 'n', 00H, 'S', 00H, 'y'
	DB	00H, 's', 00H, 't', 00H, 'e', 00H, 'm', 00H, ' ', 00H, 'M', 00H
	DB	'U', 00H, 'S', 00H, 'T', 00H, ' ', 00H, 'C', 00H, 'L', 00H, 'E'
	DB	00H, 'A', 00H, 'R', 00H, '!', 00H, '"', 00H, 00H, 00H ; `string'
CONST	ENDS
;	COMDAT ??_C@_0BK@OCPLHOPM@CPythonSystem?5MUST?5CLEAR?$CB@
CONST	SEGMENT
??_C@_0BK@OCPLHOPM@CPythonSystem?5MUST?5CLEAR?$CB@ DB 'CPythonSystem MUST'
	DB	' CLEAR!', 00H				; `string'
CONST	ENDS
;	COMDAT ??_C@_1KC@NKDKBPPP@?$AAC?$AA?3?$AA?2?$AAA?$AAn?$AAk?$AAa?$AA2?$AAP?$AAr?$AAo?$AAj?$AAe?$AAc?$AAt@
CONST	SEGMENT
??_C@_1KC@NKDKBPPP@?$AAC?$AA?3?$AA?2?$AAA?$AAn?$AAk?$AAa?$AA2?$AAP?$AAr?$AAo?$AAj?$AAe?$AAc?$AAt@ DB 'C'
	DB	00H, ':', 00H, '\', 00H, 'A', 00H, 'n', 00H, 'k', 00H, 'a', 00H
	DB	'2', 00H, 'P', 00H, 'r', 00H, 'o', 00H, 'j', 00H, 'e', 00H, 'c'
	DB	00H, 't', 00H, '\', 00H, 'A', 00H, 'n', 00H, 'k', 00H, 'a', 00H
	DB	'2', 00H, 'P', 00H, 'r', 00H, 'o', 00H, 'j', 00H, 'e', 00H, 'c'
	DB	00H, 't', 00H, '\', 00H, 'S', 00H, 'o', 00H, 'u', 00H, 'r', 00H
	DB	'c', 00H, 'e', 00H, '\', 00H, 'B', 00H, 'i', 00H, 'n', 00H, 'a'
	DB	00H, 'r', 00H, 'y', 00H, '\', 00H, 's', 00H, 'o', 00H, 'u', 00H
	DB	'r', 00H, 'c', 00H, 'e', 00H, '\', 00H, 'U', 00H, 's', 00H, 'e'
	DB	00H, 'r', 00H, 'I', 00H, 'n', 00H, 't', 00H, 'e', 00H, 'r', 00H
	DB	'f', 00H, 'a', 00H, 'c', 00H, 'e', 00H, '\', 00H, 'P', 00H, 'y'
	DB	00H, 't', 00H, 'h', 00H, 'o', 00H, 'n', 00H, 'S', 00H, 'y', 00H
	DB	's', 00H, 't', 00H, 'e', 00H, 'm', 00H, '.', 00H, 'c', 00H, 'p'
	DB	00H, 'p', 00H, 00H, 00H			; `string'
CONST	ENDS
;	COMDAT ??_C@_0BG@OMGMEENH@OnSaveInterfaceStatus@
CONST	SEGMENT
??_C@_0BG@OMGMEENH@OnSaveInterfaceStatus@ DB 'OnSaveInterfaceStatus', 00H ; `string'
CONST	ENDS
;	COMDAT ??_C@_0BK@BDPDEBGA@Cannot?5open?5interface?4cfg@
CONST	SEGMENT
??_C@_0BK@BDPDEBGA@Cannot?5open?5interface?4cfg@ DB 'Cannot open interfac'
	DB	'e.cfg', 00H					; `string'
CONST	ENDS
;	COMDAT ??_C@_0BE@KMMKCIAE@SHADOW_LEVEL?7?7?7?7?$CFd?6@
CONST	SEGMENT
??_C@_0BE@KMMKCIAE@SHADOW_LEVEL?7?7?7?7?$CFd?6@ DB 'SHADOW_LEVEL', 09H, 09H
	DB	09H, 09H, '%d', 0aH, 00H			; `string'
CONST	ENDS
;	COMDAT ??_C@_0O@OMHCOGAL@interface?4cfg@
CONST	SEGMENT
??_C@_0O@OMHCOGAL@interface?4cfg@ DB 'interface.cfg', 00H ; `string'
CONST	ENDS
;	COMDAT ??_C@_0BD@IJEFEFIP@BOSS_TRACK?7?7?7?7?7?$CFd?6@
CONST	SEGMENT
??_C@_0BD@IJEFEFIP@BOSS_TRACK?7?7?7?7?7?$CFd?6@ DB 'BOSS_TRACK', 09H, 09H
	DB	09H, 09H, 09H, '%d', 0aH, 00H		; `string'
CONST	ENDS
;	COMDAT ??_C@_0BG@EPIJEOEF@USE_DEFAULT_IME?7?7?7?$CFd?6@
CONST	SEGMENT
??_C@_0BG@EPIJEOEF@USE_DEFAULT_IME?7?7?7?$CFd?6@ DB 'USE_DEFAULT_IME', 09H
	DB	09H, 09H, '%d', 0aH, 00H			; `string'
CONST	ENDS
;	COMDAT ??_C@_0BF@FENEKMIE@STONE_SCALE?7?7?7?7?$CF?43f?6@
CONST	SEGMENT
??_C@_0BF@FENEKMIE@STONE_SCALE?7?7?7?7?$CF?43f?6@ DB 'STONE_SCALE', 09H, 09H
	DB	09H, 09H, '%.3f', 0aH, 00H			; `string'
CONST	ENDS
;	COMDAT ??_C@_0BF@NOAAOLGK@DUNGEON_TRACK?7?7?7?7?$CFd?6@
CONST	SEGMENT
??_C@_0BF@NOAAOLGK@DUNGEON_TRACK?7?7?7?7?$CFd?6@ DB 'DUNGEON_TRACK', 09H, 09H
	DB	09H, 09H, '%d', 0aH, 00H			; `string'
CONST	ENDS
;	COMDAT ??_C@_0BD@DINNCNGH@SHADOW_TEXT?7?7?7?7?$CFd?6@
CONST	SEGMENT
??_C@_0BD@DINNCNGH@SHADOW_TEXT?7?7?7?7?$CFd?6@ DB 'SHADOW_TEXT', 09H, 09H
	DB	09H, 09H, '%d', 0aH, 00H			; `string'
CONST	ENDS
;	COMDAT ??_C@_0P@IHONFFJD@FOV?7?7?7?7?7?7?$CF?42f?6@
CONST	SEGMENT
??_C@_0P@IHONFFJD@FOV?7?7?7?7?7?7?$CF?42f?6@ DB 'FOV', 09H, 09H, 09H, 09H
	DB	09H, 09H, '%.2f', 0aH, 00H			; `string'
CONST	ENDS
;	COMDAT ??_C@_0BF@OBINEHIM@SHOW_MOBLEVEL?7?7?7?7?$CFd?6@
CONST	SEGMENT
??_C@_0BF@OBINEHIM@SHOW_MOBLEVEL?7?7?7?7?$CFd?6@ DB 'SHOW_MOBLEVEL', 09H, 09H
	DB	09H, 09H, '%d', 0aH, 00H			; `string'
CONST	ENDS
;	COMDAT ??_C@_0BG@MCGLPIEN@SHOW_MOBAIFLAG?7?7?7?7?$CFd?6@
CONST	SEGMENT
??_C@_0BG@MCGLPIEN@SHOW_MOBAIFLAG?7?7?7?7?$CFd?6@ DB 'SHOW_MOBAIFLAG', 09H
	DB	09H, 09H, 09H, '%d', 0aH, 00H		; `string'
CONST	ENDS
;	COMDAT ??_C@_0BD@NBDPCEPA@PET_STATUS?7?7?7?7?7?$CFd?6@
CONST	SEGMENT
??_C@_0BD@NBDPCEPA@PET_STATUS?7?7?7?7?7?$CFd?6@ DB 'PET_STATUS', 09H, 09H
	DB	09H, 09H, 09H, '%d', 0aH, 00H		; `string'
CONST	ENDS
;	COMDAT ??_C@_0BG@OKAOKIMI@NPC_NAME_STATUS?7?7?7?$CFd?6@
CONST	SEGMENT
??_C@_0BG@OKAOKIMI@NPC_NAME_STATUS?7?7?7?$CFd?6@ DB 'NPC_NAME_STATUS', 09H
	DB	09H, 09H, '%d', 0aH, 00H			; `string'
CONST	ENDS
;	COMDAT ??_C@_0BJ@JJIGJFIL@PRIVATE_SHOP_LEVEL?7?7?7?$CFd?6@
CONST	SEGMENT
??_C@_0BJ@JJIGJFIL@PRIVATE_SHOP_LEVEL?7?7?7?$CFd?6@ DB 'PRIVATE_SHOP_LEVE'
	DB	'L', 09H, 09H, 09H, '%d', 0aH, 00H		; `string'
CONST	ENDS
;	COMDAT ??_C@_0BG@LPMIGAEG@DROP_ITEM_LEVEL?7?7?7?$CFd?6@
CONST	SEGMENT
??_C@_0BG@LPMIGAEG@DROP_ITEM_LEVEL?7?7?7?$CFd?6@ DB 'DROP_ITEM_LEVEL', 09H
	DB	09H, 09H, '%d', 0aH, 00H			; `string'
CONST	ENDS
;	COMDAT ??_C@_0BG@OBKACNLI@ENB_MODE_STATUS?7?7?7?$CFd?6@
CONST	SEGMENT
??_C@_0BG@OBKACNLI@ENB_MODE_STATUS?7?7?7?$CFd?6@ DB 'ENB_MODE_STATUS', 09H
	DB	09H, 09H, '%d', 0aH, 00H			; `string'
CONST	ENDS
;	COMDAT ??_C@_0BE@IMIFHAPE@EFFECT_LEVEL?7?7?7?7?$CFd?6@
CONST	SEGMENT
??_C@_0BE@IMIFHAPE@EFFECT_LEVEL?7?7?7?7?$CFd?6@ DB 'EFFECT_LEVEL', 09H, 09H
	DB	09H, 09H, '%d', 0aH, 00H			; `string'
CONST	ENDS
;	COMDAT ??_C@_0BE@NHJCEGGL@SNOW_MODE_ON?7?7?7?7?$CFd?6@
CONST	SEGMENT
??_C@_0BE@NHJCEGGL@SNOW_MODE_ON?7?7?7?7?$CFd?6@ DB 'SNOW_MODE_ON', 09H, 09H
	DB	09H, 09H, '%d', 0aH, 00H			; `string'
CONST	ENDS
;	COMDAT ??_C@_0BI@BNIBNCGL@SNOW_TEXTURE_MODE?7?7?7?$CFd?6@
CONST	SEGMENT
??_C@_0BI@BNIBNCGL@SNOW_TEXTURE_MODE?7?7?7?$CFd?6@ DB 'SNOW_TEXTURE_MODE', 09H
	DB	09H, 09H, '%d', 0aH, 00H			; `string'
CONST	ENDS
;	COMDAT ??_C@_0BC@KOPKBKJM@FOG_MODE_ON?7?7?7?$CFd?6@
CONST	SEGMENT
??_C@_0BC@KOPKBKJM@FOG_MODE_ON?7?7?7?$CFd?6@ DB 'FOG_MODE_ON', 09H, 09H, 09H
	DB	'%d', 0aH, 00H				; `string'
CONST	ENDS
;	COMDAT ??_C@_0BF@GFEJJOAK@NIGHT_MODE_ON?7?7?7?7?$CFd?6@
CONST	SEGMENT
??_C@_0BF@GFEJJOAK@NIGHT_MODE_ON?7?7?7?7?$CFd?6@ DB 'NIGHT_MODE_ON', 09H, 09H
	DB	09H, 09H, '%d', 0aH, 00H			; `string'
CONST	ENDS
;	COMDAT ??_C@_0BC@GFALNGMC@SHOW_DAMAGE?7?7?7?$CFd?6@
CONST	SEGMENT
??_C@_0BC@GFALNGMC@SHOW_DAMAGE?7?7?7?$CFd?6@ DB 'SHOW_DAMAGE', 09H, 09H, 09H
	DB	'%d', 0aH, 00H				; `string'
CONST	ENDS
;	COMDAT ??_C@_0BF@CBDMMBD@SHOW_SALESTEXT?7?7?7?$CFd?6@
CONST	SEGMENT
??_C@_0BF@CBDMMBD@SHOW_SALESTEXT?7?7?7?$CFd?6@ DB 'SHOW_SALESTEXT', 09H, 09H
	DB	09H, '%d', 0aH, 00H				; `string'
CONST	ENDS
;	COMDAT ??_C@_0BB@EKNDKDHN@VIEW_CHAT?7?7?7?7?$CFd?6@
CONST	SEGMENT
??_C@_0BB@EKNDKDHN@VIEW_CHAT?7?7?7?7?$CFd?6@ DB 'VIEW_CHAT', 09H, 09H, 09H
	DB	09H, '%d', 0aH, 00H				; `string'
CONST	ENDS
;	COMDAT ??_C@_0BG@HBKBHOOM@ALWAYS_VIEW_NAME?7?7?$CFd?6@
CONST	SEGMENT
??_C@_0BG@HBKBHOOM@ALWAYS_VIEW_NAME?7?7?$CFd?6@ DB 'ALWAYS_VIEW_NAME', 09H
	DB	09H, '%d', 0aH, 00H				; `string'
CONST	ENDS
;	COMDAT ??_C@_0BAC@DOGJKKLN@WIDTH?7?7?7?7?7?7?$CFd?6HEIGHT?7?7?7?7?7?7?$CFd?6BP@
CONST	SEGMENT
??_C@_0BAC@DOGJKKLN@WIDTH?7?7?7?7?7?7?$CFd?6HEIGHT?7?7?7?7?7?7?$CFd?6BP@ DB 'W'
	DB	'IDTH', 09H, 09H, 09H, 09H, 09H, 09H, '%d', 0aH, 'HEIGHT', 09H
	DB	09H, 09H, 09H, 09H, 09H, '%d', 0aH, 'BPP', 09H, 09H, 09H, 09H, 09H
	DB	09H, '%d', 0aH, 'FREQUENCY', 09H, 09H, 09H, 09H, 09H, '%d', 0aH
	DB	'SOFTWARE_CURSOR', 09H, 09H, 09H, '%d', 0aH, 'OBJECT_CULLING', 09H
	DB	09H, 09H, 09H, '%d', 0aH, 'VISIBILITY', 09H, 09H, 09H, 09H, 09H
	DB	'%d', 0aH, 'MUSIC_VOLUME', 09H, 09H, 09H, 09H, '%.3f', 0aH, 'V'
	DB	'OICE_VOLUME', 09H, 09H, 09H, 09H, '%d', 0aH, 'GAMMA', 09H, 09H
	DB	09H, 09H, 09H, 09H, '%d', 0aH, 'IS_SAVE_ID', 09H, 09H, 09H, 09H
	DB	09H, '%d', 0aH, 'SAVE_ID', 09H, 09H, 09H, 09H, 09H, '%s', 0aH, 'P'
	DB	'RE_LOADING_DELAY_TIME', 09H, 09H, '%d', 0aH, 'DECOMPRESSED_TE'
	DB	'XTURE', 09H, 09H, '%d', 0aH, 00H		; `string'
CONST	ENDS
;	COMDAT ??_C@_0BA@HPBHGBH@WINDOWED?7?7?7?7?$CFd?6@
CONST	SEGMENT
??_C@_0BA@HPBHGBH@WINDOWED?7?7?7?7?$CFd?6@ DB 'WINDOWED', 09H, 09H, 09H, 09H
	DB	'%d', 0aH, 00H				; `string'
CONST	ENDS
;	COMDAT ??_C@_0O@EDNCBHME@DUNGEON_TRACK@
CONST	SEGMENT
??_C@_0O@EDNCBHME@DUNGEON_TRACK@ DB 'DUNGEON_TRACK', 00H ; `string'
CONST	ENDS
;	COMDAT ??_C@_0L@KHDDOOJN@BOSS_TRACK@
CONST	SEGMENT
??_C@_0L@KHDDOOJN@BOSS_TRACK@ DB 'BOSS_TRACK', 00H	; `string'
CONST	ENDS
;	COMDAT ??_C@_03PHODBHCN@FOV@
CONST	SEGMENT
??_C@_03PHODBHCN@FOV@ DB 'FOV', 00H			; `string'
CONST	ENDS
;	COMDAT ??_C@_0M@IIMGGGNJ@STONE_SCALE@
CONST	SEGMENT
??_C@_0M@IIMGGGNJ@STONE_SCALE@ DB 'STONE_SCALE', 00H	; `string'
CONST	ENDS
;	COMDAT ??_C@_0P@PPJNJBAN@SHOW_MOBAIFLAG@
CONST	SEGMENT
??_C@_0P@PPJNJBAN@SHOW_MOBAIFLAG@ DB 'SHOW_MOBAIFLAG', 00H ; `string'
CONST	ENDS
;	COMDAT ??_C@_0M@GHHEOMFF@SHADOW_TEXT@
CONST	SEGMENT
??_C@_0M@GHHEOMFF@SHADOW_TEXT@ DB 'SHADOW_TEXT', 00H	; `string'
CONST	ENDS
;	COMDAT ??_C@_0BA@GCOPFLFP@NPC_NAME_STATUS@
CONST	SEGMENT
??_C@_0BA@GCOPFLFP@NPC_NAME_STATUS@ DB 'NPC_NAME_STATUS', 00H ; `string'
CONST	ENDS
;	COMDAT ??_C@_0O@OJELEFGI@SHOW_MOBLEVEL@
CONST	SEGMENT
??_C@_0O@OJELEFGI@SHOW_MOBLEVEL@ DB 'SHOW_MOBLEVEL', 00H ; `string'
CONST	ENDS
;	COMDAT ??_C@_0BA@FNNEOBHP@DROP_ITEM_LEVEL@
CONST	SEGMENT
??_C@_0BA@FNNEOBHP@DROP_ITEM_LEVEL@ DB 'DROP_ITEM_LEVEL', 00H ; `string'
CONST	ENDS
;	COMDAT ??_C@_0L@GINCBMMI@PET_STATUS@
CONST	SEGMENT
??_C@_0L@GINCBMMI@PET_STATUS@ DB 'PET_STATUS', 00H	; `string'
CONST	ENDS
;	COMDAT ??_C@_0N@GIFMPEP@EFFECT_LEVEL@
CONST	SEGMENT
??_C@_0N@GIFMPEP@EFFECT_LEVEL@ DB 'EFFECT_LEVEL', 00H	; `string'
CONST	ENDS
;	COMDAT ??_C@_0BD@CPEGLNHL@PRIVATE_SHOP_LEVEL@
CONST	SEGMENT
??_C@_0BD@CPEGLNHL@PRIVATE_SHOP_LEVEL@ DB 'PRIVATE_SHOP_LEVEL', 00H ; `string'
CONST	ENDS
;	COMDAT ??_C@_0N@KMFJICPO@SNOW_MODE_ON@
CONST	SEGMENT
??_C@_0N@KMFJICPO@SNOW_MODE_ON@ DB 'SNOW_MODE_ON', 00H	; `string'
CONST	ENDS
;	COMDAT ??_C@_0BC@HAGIIEKM@SNOW_TEXTURE_MODE@
CONST	SEGMENT
??_C@_0BC@HAGIIEKM@SNOW_TEXTURE_MODE@ DB 'SNOW_TEXTURE_MODE', 00H ; `string'
CONST	ENDS
;	COMDAT ??_C@_0BA@NFNHMEJC@ENB_MODE_STATUS@
CONST	SEGMENT
??_C@_0BA@NFNHMEJC@ENB_MODE_STATUS@ DB 'ENB_MODE_STATUS', 00H ; `string'
CONST	ENDS
;	COMDAT ??_C@_0O@CJEJELCH@NIGHT_MODE_ON@
CONST	SEGMENT
??_C@_0O@CJEJELCH@NIGHT_MODE_ON@ DB 'NIGHT_MODE_ON', 00H ; `string'
CONST	ENDS
;	COMDAT ??_C@_0P@FIIALOBN@SHOW_SALESTEXT@
CONST	SEGMENT
??_C@_0P@FIIALOBN@SHOW_SALESTEXT@ DB 'SHOW_SALESTEXT', 00H ; `string'
CONST	ENDS
;	COMDAT ??_C@_0M@ENBKKOLK@FOG_MODE_ON@
CONST	SEGMENT
??_C@_0M@ENBKKOLK@FOG_MODE_ON@ DB 'FOG_MODE_ON', 00H	; `string'
CONST	ENDS
;	COMDAT ??_C@_0BB@PPFHKIN@ALWAYS_VIEW_NAME@
CONST	SEGMENT
??_C@_0BB@PPFHKIN@ALWAYS_VIEW_NAME@ DB 'ALWAYS_VIEW_NAME', 00H ; `string'
CONST	ENDS
;	COMDAT ??_C@_0M@FJJANDDI@SHOW_DAMAGE@
CONST	SEGMENT
??_C@_0M@FJJANDDI@SHOW_DAMAGE@ DB 'SHOW_DAMAGE', 00H	; `string'
CONST	ENDS
;	COMDAT ??_C@_0O@HAABBABC@NO_SOUND_CARD@
CONST	SEGMENT
??_C@_0O@HAABBABC@NO_SOUND_CARD@ DB 'NO_SOUND_CARD', 00H ; `string'
CONST	ENDS
;	COMDAT ??_C@_09EOOFFIKE@VIEW_CHAT@
CONST	SEGMENT
??_C@_09EOOFFIKE@VIEW_CHAT@ DB 'VIEW_CHAT', 00H		; `string'
CONST	ENDS
;	COMDAT ??_C@_0N@FFBEOPBM@SHADOW_LEVEL@
CONST	SEGMENT
??_C@_0N@FFBEOPBM@SHADOW_LEVEL@ DB 'SHADOW_LEVEL', 00H	; `string'
CONST	ENDS
;	COMDAT ??_C@_0BF@BGGNMKON@DECOMPRESSED_TEXTURE@
CONST	SEGMENT
??_C@_0BF@BGGNMKON@DECOMPRESSED_TEXTURE@ DB 'DECOMPRESSED_TEXTURE', 00H ; `string'
CONST	ENDS
;	COMDAT ??_C@_08NHNHGFNP@WINDOWED@
CONST	SEGMENT
??_C@_08NHNHGFNP@WINDOWED@ DB 'WINDOWED', 00H		; `string'
CONST	ENDS
;	COMDAT ??_C@_0BA@LLBGEPPK@USE_DEFAULT_IME@
CONST	SEGMENT
??_C@_0BA@LLBGEPPK@USE_DEFAULT_IME@ DB 'USE_DEFAULT_IME', 00H ; `string'
CONST	ENDS
;	COMDAT ??_C@_07JBPMLFBH@SAVE_ID@
CONST	SEGMENT
??_C@_07JBPMLFBH@SAVE_ID@ DB 'SAVE_ID', 00H		; `string'
CONST	ENDS
;	COMDAT ??_C@_0BH@DLIOKMKH@PRE_LOADING_DELAY_TIME@
CONST	SEGMENT
??_C@_0BH@DLIOKMKH@PRE_LOADING_DELAY_TIME@ DB 'PRE_LOADING_DELAY_TIME', 00H ; `string'
CONST	ENDS
;	COMDAT ??_C@_05MBKNPFEG@GAMMA@
CONST	SEGMENT
??_C@_05MBKNPFEG@GAMMA@ DB 'GAMMA', 00H			; `string'
CONST	ENDS
;	COMDAT ??_C@_0L@MNJEEPBE@IS_SAVE_ID@
CONST	SEGMENT
??_C@_0L@MNJEEPBE@IS_SAVE_ID@ DB 'IS_SAVE_ID', 00H	; `string'
CONST	ENDS
;	COMDAT ??_C@_0N@GMIPKHGM@MUSIC_VOLUME@
CONST	SEGMENT
??_C@_0N@GMIPKHGM@MUSIC_VOLUME@ DB 'MUSIC_VOLUME', 00H	; `string'
CONST	ENDS
;	COMDAT ??_C@_0N@PBAPMOIE@VOICE_VOLUME@
CONST	SEGMENT
??_C@_0N@PBAPMOIE@VOICE_VOLUME@ DB 'VOICE_VOLUME', 00H	; `string'
CONST	ENDS
;	COMDAT ??_C@_0P@HLGCIFEM@OBJECT_CULLING@
CONST	SEGMENT
??_C@_0P@HLGCIFEM@OBJECT_CULLING@ DB 'OBJECT_CULLING', 00H ; `string'
CONST	ENDS
;	COMDAT ??_C@_0L@JLMBCMBB@VISIBILITY@
CONST	SEGMENT
??_C@_0L@JLMBCMBB@VISIBILITY@ DB 'VISIBILITY', 00H	; `string'
CONST	ENDS
;	COMDAT ??_C@_09JJJEBDOD@FREQUENCY@
CONST	SEGMENT
??_C@_09JJJEBDOD@FREQUENCY@ DB 'FREQUENCY', 00H		; `string'
CONST	ENDS
;	COMDAT ??_C@_0BA@KHKJCKOL@SOFTWARE_CURSOR@
CONST	SEGMENT
??_C@_0BA@KHKJCKOL@SOFTWARE_CURSOR@ DB 'SOFTWARE_CURSOR', 00H ; `string'
CONST	ENDS
;	COMDAT ??_C@_06LJJMJONE@HEIGHT@
CONST	SEGMENT
??_C@_06LJJMJONE@HEIGHT@ DB 'HEIGHT', 00H		; `string'
CONST	ENDS
;	COMDAT ??_C@_03DJKBMDLB@BPP@
CONST	SEGMENT
??_C@_03DJKBMDLB@BPP@ DB 'BPP', 00H			; `string'
CONST	ENDS
;	COMDAT ??_C@_07IJONGFBP@?5?$CFs?5?$CFs?6@
CONST	SEGMENT
??_C@_07IJONGFBP@?5?$CFs?5?$CFs?6@ DB ' %s %s', 0aH, 00H ; `string'
CONST	ENDS
;	COMDAT ??_C@_05ENDGNACA@WIDTH@
CONST	SEGMENT
??_C@_05ENDGNACA@WIDTH@ DB 'WIDTH', 00H			; `string'
CONST	ENDS
;	COMDAT ??_C@_0BB@FOCPKMNO@textureset?2snow?2@
CONST	SEGMENT
??_C@_0BB@FOCPKMNO@textureset?2snow?2@ DB 'textureset\snow\', 00H ; `string'
CONST	ENDS
;	COMDAT ??_C@_0L@PJKCGBDF@metin2?4cfg@
CONST	SEGMENT
??_C@_0L@PJKCGBDF@metin2?4cfg@ DB 'metin2.cfg', 00H	; `string'
CONST	ENDS
;	COMDAT ??_C@_06DFIONPJA@metin2@
CONST	SEGMENT
??_C@_06DFIONPJA@metin2@ DB 'metin2', 00H		; `string'
CONST	ENDS
;	COMDAT ??_C@_0M@LKGJDIDA@snow_metin2@
CONST	SEGMENT
??_C@_0M@LKGJDIDA@snow_metin2@ DB 'snow_metin2', 00H	; `string'
CONST	ENDS
;	COMDAT ??_C@_05MBHMGDMH@snow?2@
CONST	SEGMENT
??_C@_05MBHMGDMH@snow?2@ DB 'snow\', 00H		; `string'
CONST	ENDS
;	COMDAT ??_C@_05MFGOEJPC@snow?1@
CONST	SEGMENT
??_C@_05MFGOEJPC@snow?1@ DB 'snow/', 00H		; `string'
CONST	ENDS
;	COMDAT ??_C@_0M@PKDGGBDB@textureset?2@
CONST	SEGMENT
??_C@_0M@PKDGGBDB@textureset?2@ DB 'textureset\', 00H	; `string'
CONST	ENDS
;	COMDAT ??_C@_0M@POCEELAE@textureset?1@
CONST	SEGMENT
??_C@_0M@POCEELAE@textureset?1@ DB 'textureset/', 00H	; `string'
CONST	ENDS
;	COMDAT ??_C@_01EEMJAFIK@?6@
CONST	SEGMENT
??_C@_01EEMJAFIK@?6@ DB 0aH, 00H			; `string'
PUBLIC	?pow@@YAMMM@Z					; pow
PUBLIC	_powf
PUBLIC	??_G?$CSingleton@VCPythonSystem@@@@UAEPAXI@Z	; CSingleton<CPythonSystem>::`scalar deleting destructor'
PUBLIC	?replace@?$basic_string@DU?$char_traits@D@std@@V?$allocator@D@2@@std@@QAEAAV12@IIABV12@@Z ; std::basic_string<char,std::char_traits<char>,std::allocator<char> >::replace
PUBLIC	??0?$CSingleton@VCPythonSystem@@@@QAE@XZ	; CSingleton<CPythonSystem>::CSingleton<CPythonSystem>
PUBLIC	??1?$CSingleton@VCPythonSystem@@@@UAE@XZ	; CSingleton<CPythonSystem>::~CSingleton<CPythonSystem>
PUBLIC	?instance@?$CSingleton@VCPythonBackground@@@@SAAAVCPythonBackground@@XZ ; CSingleton<CPythonBackground>::instance
PUBLIC	??_GCPythonSystem@@UAEPAXI@Z			; CPythonSystem::`scalar deleting destructor'
PUBLIC	?ChangeSystem@CPythonSystem@@QAEXXZ		; CPythonSystem::ChangeSystem
PUBLIC	?ApplyConfig@CPythonSystem@@QAEXXZ		; CPythonSystem::ApplyConfig
PUBLIC	?GetWindowStatusReference@CPythonSystem@@QAEABUSWindowStatus@1@H@Z ; CPythonSystem::GetWindowStatusReference
PUBLIC	?isInterfaceConfig@CPythonSystem@@QAE_NXZ	; CPythonSystem::isInterfaceConfig
PUBLIC	?LoadInterfaceStatus@CPythonSystem@@QAE_NXZ	; CPythonSystem::LoadInterfaceStatus
PUBLIC	?LoadConfig@CPythonSystem@@QAE_NXZ		; CPythonSystem::LoadConfig
PUBLIC	?SetStoneScale@CPythonSystem@@QAEXM@Z		; CPythonSystem::SetStoneScale
PUBLIC	?SetFOV@CPythonSystem@@QAEXM@Z			; CPythonSystem::SetFOV
PUBLIC	?SetShowOutlineFlag@CPythonSystem@@QAEX_N@Z	; CPythonSystem::SetShowOutlineFlag
PUBLIC	?IsShowOutline@CPythonSystem@@QBE_NXZ		; CPythonSystem::IsShowOutline
PUBLIC	?IsShowMobAIFlag@CPythonSystem@@QAE_NXZ		; CPythonSystem::IsShowMobAIFlag
PUBLIC	?SetShowMobAIFlag@CPythonSystem@@QAEXH@Z	; CPythonSystem::SetShowMobAIFlag
PUBLIC	?IsShowMobLevel@CPythonSystem@@QAE_NXZ		; CPythonSystem::IsShowMobLevel
PUBLIC	?SetShowMobLevel@CPythonSystem@@QAEXH@Z		; CPythonSystem::SetShowMobLevel
PUBLIC	?SetNpcNameStatusFlag@CPythonSystem@@QAEXH@Z	; CPythonSystem::SetNpcNameStatusFlag
PUBLIC	?IsNpcNameStatus@CPythonSystem@@QAE_NXZ		; CPythonSystem::IsNpcNameStatus
PUBLIC	?SetPetStatusFlag@CPythonSystem@@QAEXH@Z	; CPythonSystem::SetPetStatusFlag
PUBLIC	?SetDropItemLevel@CPythonSystem@@QAEXI@Z	; CPythonSystem::SetDropItemLevel
PUBLIC	?SetPrivateShopLevel@CPythonSystem@@QAEXI@Z	; CPythonSystem::SetPrivateShopLevel
PUBLIC	?SetEffectLevel@CPythonSystem@@QAEXI@Z		; CPythonSystem::SetEffectLevel
PUBLIC	?GetSnowTextureModeOption@CPythonSystem@@QAE_NXZ ; CPythonSystem::GetSnowTextureModeOption
PUBLIC	?SetSnowTextureModeOption@CPythonSystem@@QAEXH@Z ; CPythonSystem::SetSnowTextureModeOption
PUBLIC	?rem_path@@YAPADV?$basic_string@DU?$char_traits@D@std@@V?$allocator@D@2@@std@@H@Z ; rem_path
PUBLIC	?GetSnowModeOption@CPythonSystem@@QAE_NXZ	; CPythonSystem::GetSnowModeOption
PUBLIC	?SetSnowModeOption@CPythonSystem@@QAEXH@Z	; CPythonSystem::SetSnowModeOption
PUBLIC	?GetNightModeOption@CPythonSystem@@QBE_NXZ	; CPythonSystem::GetNightModeOption
PUBLIC	?SetNightModeOption@CPythonSystem@@QAEX_N@Z	; CPythonSystem::SetNightModeOption
PUBLIC	?SetENBModeStatusFlag@CPythonSystem@@QAEXH@Z	; CPythonSystem::SetENBModeStatusFlag
PUBLIC	?IsENBModeStatus@CPythonSystem@@QAE_NXZ		; CPythonSystem::IsENBModeStatus
PUBLIC	?IsFogMode@CPythonSystem@@QAE_NXZ		; CPythonSystem::IsFogMode
PUBLIC	?SetFogMode@CPythonSystem@@QAEXH@Z		; CPythonSystem::SetFogMode
PUBLIC	?SetShowSalesTextFlag@CPythonSystem@@QAEXH@Z	; CPythonSystem::SetShowSalesTextFlag
PUBLIC	?IsShowSalesText@CPythonSystem@@QAE_NXZ		; CPythonSystem::IsShowSalesText
PUBLIC	?SetShowDamageFlag@CPythonSystem@@QAEXH@Z	; CPythonSystem::SetShowDamageFlag
PUBLIC	?SetAlwaysShowNameFlag@CPythonSystem@@QAEXH@Z	; CPythonSystem::SetAlwaysShowNameFlag
PUBLIC	?IsAlwaysShowName@CPythonSystem@@QAE_NXZ	; CPythonSystem::IsAlwaysShowName
PUBLIC	?SetViewChatFlag@CPythonSystem@@QAEXH@Z		; CPythonSystem::SetViewChatFlag
PUBLIC	?IsViewChat@CPythonSystem@@QAE_NXZ		; CPythonSystem::IsViewChat
PUBLIC	?SetDefaultConfig@CPythonSystem@@QAEXXZ		; CPythonSystem::SetDefaultConfig
PUBLIC	?SetConfig@CPythonSystem@@QAEXPAUSConfig@1@@Z	; CPythonSystem::SetConfig
PUBLIC	?GetConfig@CPythonSystem@@QAEPAUSConfig@1@XZ	; CPythonSystem::GetConfig
PUBLIC	?SetSaveID@CPythonSystem@@QAEXHPBD@Z		; CPythonSystem::SetSaveID
PUBLIC	?GetSaveID@CPythonSystem@@QAEPBDXZ		; CPythonSystem::GetSaveID
PUBLIC	?IsSaveID@CPythonSystem@@QAEHXZ			; CPythonSystem::IsSaveID
PUBLIC	?SetShadowLevel@CPythonSystem@@QAEXI@Z		; CPythonSystem::SetShadowLevel
PUBLIC	?SetSoundVolumef@CPythonSystem@@QAEXM@Z		; CPythonSystem::SetSoundVolumef
PUBLIC	?SetMusicVolume@CPythonSystem@@QAEXM@Z		; CPythonSystem::SetMusicVolume
PUBLIC	?GetSoundVolume@CPythonSystem@@QAEHXZ		; CPythonSystem::GetSoundVolume
PUBLIC	?GetMusicVolume@CPythonSystem@@QAEMXZ		; CPythonSystem::GetMusicVolume
PUBLIC	?GetFrequencyIndex@CPythonSystem@@QAEHHK@Z	; CPythonSystem::GetFrequencyIndex
PUBLIC	?GetResolutionIndex@CPythonSystem@@QAEHKKK@Z	; CPythonSystem::GetResolutionIndex
PUBLIC	?GetFrequency@CPythonSystem@@QAE_NHHPAK@Z	; CPythonSystem::GetFrequency
PUBLIC	?GetResolution@CPythonSystem@@QAE_NHPAK00@Z	; CPythonSystem::GetResolution
PUBLIC	?GetFrequencyCount@CPythonSystem@@QAEHH@Z	; CPythonSystem::GetFrequencyCount
PUBLIC	?GetResolutionCount@CPythonSystem@@QAEHXZ	; CPythonSystem::GetResolutionCount
PUBLIC	?SaveWindowStatus@CPythonSystem@@QAEXHHHHHH@Z	; CPythonSystem::SaveWindowStatus
PUBLIC	?DestroyInterfaceHandler@CPythonSystem@@QAEXXZ	; CPythonSystem::DestroyInterfaceHandler
PUBLIC	?SetInterfaceHandler@CPythonSystem@@QAEXPAU_object@@@Z ; CPythonSystem::SetInterfaceHandler
PUBLIC	?GetFileName@CTextureSet@@QAEPBDXZ		; CTextureSet::GetFileName
PUBLIC	?GetDropItemLevel@CPythonSystem@@QAEHXZ		; CPythonSystem::GetDropItemLevel
PUBLIC	?GetShadowLevel@CPythonSystem@@QAEHXZ		; CPythonSystem::GetShadowLevel
PUBLIC	??0CPythonSystem@@QAE@XZ			; CPythonSystem::CPythonSystem
PUBLIC	??1CPythonSystem@@UAE@XZ			; CPythonSystem::~CPythonSystem
PUBLIC	?GetFOV@CPythonSystem@@QAEMXZ			; CPythonSystem::GetFOV
PUBLIC	?IsWindowed@CPythonSystem@@QAE_NXZ		; CPythonSystem::IsWindowed
PUBLIC	?IsUseDefaultIME@CPythonSystem@@QAE_NXZ		; CPythonSystem::IsUseDefaultIME
PUBLIC	?GetHeight@CPythonSystem@@QAEKXZ		; CPythonSystem::GetHeight
PUBLIC	?GetWidth@CPythonSystem@@QAEKXZ			; CPythonSystem::GetWidth
PUBLIC	?IsNoSoundCard@CPythonSystem@@QAE_NXZ		; CPythonSystem::IsNoSoundCard
PUBLIC	?GetFrequency@CPythonSystem@@QAEKXZ		; CPythonSystem::GetFrequency
PUBLIC	?GetBPP@CPythonSystem@@QAEKXZ			; CPythonSystem::GetBPP
PUBLIC	?GetDisplaySettings@CPythonSystem@@QAEXXZ	; CPythonSystem::GetDisplaySettings
PUBLIC	?IsSoftwareCursor@CPythonSystem@@QAE_NXZ	; CPythonSystem::IsSoftwareCursor
PUBLIC	?Clear@CPythonSystem@@QAEXXZ			; CPythonSystem::Clear
PUBLIC	?SaveConfig@CPythonSystem@@QAE_NXZ		; CPythonSystem::SaveConfig
PUBLIC	?SaveInterfaceStatus@CPythonSystem@@QAEXXZ	; CPythonSystem::SaveInterfaceStatus
PUBLIC	?IsShowDamage@CPythonSystem@@QAE_NXZ		; CPythonSystem::IsShowDamage
PUBLIC	?GetEffectLevel@CPythonSystem@@QAEHXZ		; CPythonSystem::GetEffectLevel
PUBLIC	?IsPetStatus@CPythonSystem@@QAE_NXZ		; CPythonSystem::IsPetStatus
PUBLIC	?GetPrivateShopLevel@CPythonSystem@@QAEHXZ	; CPythonSystem::GetPrivateShopLevel
PUBLIC	?GetStoneScale@CPythonSystem@@QAEMXZ		; CPythonSystem::GetStoneScale
EXTRN	??_ECPythonSystem@@UAEPAXI@Z:PROC		; CPythonSystem::`vector deleting destructor'
EXTRN	??_E?$CSingleton@VCPythonSystem@@@@UAEPAXI@Z:PROC ; CSingleton<CPythonSystem>::`vector deleting destructor'
?vecDropSoundFileName@@3V?$array@U?$pair@KV?$basic_string@DU?$char_traits@D@std@@V?$allocator@D@2@@std@@@std@@$04@std@@B DB 08cH DUP (?) ; vecDropSoundFileName
?vecEffectList@@3V?$vector@V?$tuple@IPBDPBD_N@std@@V?$allocator@V?$tuple@IPBDPBD_N@std@@@2@@std@@B DB 0cH DUP (?) ; vecEffectList
?characterNameColors@@3V?$map@EV?$array@E$02@std@@U?$less@E@2@V?$allocator@U?$pair@$$CBEV?$array@E$02@std@@@std@@@2@@std@@B DQ 01H DUP (?) ; characterNameColors
?characterTitleColors@@3V?$map@EV?$array@E$02@std@@U?$less@E@2@V?$allocator@U?$pair@$$CBEV?$array@E$02@std@@@std@@@2@@std@@B DQ 01H DUP (?) ; characterTitleColors
?characterTitleSystemColors@@3V?$map@EV?$array@E$02@std@@U?$less@E@2@V?$allocator@U?$pair@$$CBEV?$array@E$02@std@@@std@@@2@@std@@B DQ 01H DUP (?) ; characterTitleSystemColors
?emotionIcons@@3V?$map@EPBDU?$less@E@std@@V?$allocator@U?$pair@$$CBEPBD@std@@@2@@std@@B DQ 01H DUP (?) ; emotionIcons
?skillIndexes@@3V?$map@EV?$map@EV?$vector@EV?$allocator@E@std@@@std@@U?$less@E@2@V?$allocator@U?$pair@$$CBEV?$vector@EV?$allocator@E@std@@@std@@@std@@@2@@std@@U?$less@E@2@V?$allocator@U?$pair@$$CBEV?$map@EV?$vector@EV?$allocator@E@std@@@std@@U?$less@E@2@V?$allocator@U?$pair@$$CBEV?$vector@EV?$allocator@E@std@@@std@@@std@@@2@@std@@@std@@@2@@std@@B DQ 01H DUP (?) ; skillIndexes
?guildSkills@@3V?$map@V?$basic_string@DU?$char_traits@D@std@@V?$allocator@D@2@@std@@V?$vector@EV?$allocator@E@std@@@2@U?$less@V?$basic_string@DU?$char_traits@D@std@@V?$allocator@D@2@@std@@@2@V?$allocator@U?$pair@$$CBV?$basic_string@DU?$char_traits@D@std@@V?$allocator@D@2@@std@@V?$vector@EV?$allocator@E@std@@@2@@std@@@2@@std@@B DQ 01H DUP (?) ; guildSkills
_BSS	ENDS
;	COMDAT xdata$x
xdata$x	SEGMENT
__ehfuncinfo$??0CPythonSystem@@QAE@XZ DQ 00000000119930522r ; 2.33398e-314
	DD	FLAT:__unwindtable$??0CPythonSystem@@QAE@XZ
	DQ	00000000000000000r		; 0
	DQ	00000000000000000r		; 0
	DQ	00000000100000000r		; 2.122e-314
__unwindtable$??0CPythonSystem@@QAE@XZ DD 0ffffffffH
	DD	FLAT:__unwindfunclet$??0CPythonSystem@@QAE@XZ$0
xdata$x	ENDS
;	COMDAT xdata$x
xdata$x	SEGMENT
__ehfuncinfo$??__EvecUseSoundFileName@@YAXXZ DQ 00000000619930522r ; 1.2944e-313
	DD	FLAT:__unwindtable$??__EvecUseSoundFileName@@YAXXZ
	DQ	00000000000000000r		; 0
	DQ	00000000000000000r		; 0
	DQ	00000000100000000r		; 2.122e-314
__unwindtable$??__EvecUseSoundFileName@@YAXXZ DD 0ffffffffH
	DD	FLAT:__unwindfunclet$??__EvecUseSoundFileName@@YAXXZ$0
	DD	00H
	DD	FLAT:__unwindfunclet$??__EvecUseSoundFileName@@YAXXZ$1
	DD	01H
	DD	FLAT:__unwindfunclet$??__EvecUseSoundFileName@@YAXXZ$2
	DD	02H
	DD	FLAT:__unwindfunclet$??__EvecUseSoundFileName@@YAXXZ$3
	DD	03H
	DD	FLAT:__unwindfunclet$??__EvecUseSoundFileName@@YAXXZ$4
	DD	04H
	DD	FLAT:__unwindfunclet$??__EvecUseSoundFileName@@YAXXZ$5
xdata$x	ENDS
;	COMDAT xdata$x
xdata$x	SEGMENT
__ehfuncinfo$??__FvecUseSoundFileName@@YAXXZ DQ 00000000119930522r ; 2.33398e-314
	DD	FLAT:__unwindtable$??__FvecUseSoundFileName@@YAXXZ
	DQ	00000000000000000r		; 0
	DQ	00000000000000000r		; 0
	DQ	00000000100000000r		; 2.122e-314
__unwindtable$??__FvecUseSoundFileName@@YAXXZ DD 0ffffffffH
	DD	FLAT:___std_terminate
xdata$x	ENDS
;	COMDAT xdata$x
xdata$x	SEGMENT
__ehfuncinfo$??__EvecDropSoundFileName@@YAXXZ DQ 00000000419930522r ; 8.69997e-314
	DD	FLAT:__unwindtable$??__EvecDropSoundFileName@@YAXXZ
	DQ	00000000000000000r		; 0
	DQ	00000000000000000r		; 0
	DQ	00000000100000000r		; 2.122e-314
__unwindtable$??__EvecDropSoundFileName@@YAXXZ DD 0ffffffffH
	DD	FLAT:__unwindfunclet$??__EvecDropSoundFileName@@YAXXZ$0
	DD	00H
	DD	FLAT:__unwindfunclet$??__EvecDropSoundFileName@@YAXXZ$1
	DD	01H
	DD	FLAT:__unwindfunclet$??__EvecDropSoundFileName@@YAXXZ$2
	DD	02H
	DD	FLAT:__unwindfunclet$??__EvecDropSoundFileName@@YAXXZ$3
xdata$x	ENDS
;	COMDAT xdata$x
xdata$x	SEGMENT
__ehfuncinfo$??__FvecDropSoundFileName@@YAXXZ DQ 00000000119930522r ; 2.33398e-314
	DD	FLAT:__unwindtable$??__FvecDropSoundFileName@@YAXXZ
	DQ	00000000000000000r		; 0
	DQ	00000000000000000r		; 0
	DQ	00000000100000000r		; 2.122e-314
__unwindtable$??__FvecDropSoundFileName@@YAXXZ DD 0ffffffffH
	DD	FLAT:___std_terminate
xdata$x	ENDS
;	COMDAT xdata$x
xdata$x	SEGMENT
__ehfuncinfo$??__EskillIndexes@@YAXXZ DQ 00000002819930522r ; 8.50918e-313
	DD	FLAT:__unwindtable$??__EskillIndexes@@YAXXZ
	DQ	00000000000000000r		; 0
	DQ	00000000000000000r		; 0
	DQ	00000000100000000r		; 2.122e-314
	ORG $+4
__unwindtable$??__EskillIndexes@@YAXXZ DD 0ffffffffH
	DD	FLAT:__unwindfunclet$??__EskillIndexes@@YAXXZ$0
	DD	00H
	DD	FLAT:__unwindfunclet$??__EskillIndexes@@YAXXZ$1
	DD	01H
	DD	FLAT:__unwindfunclet$??__EskillIndexes@@YAXXZ$2
	DD	00H
	DD	FLAT:__unwindfunclet$??__EskillIndexes@@YAXXZ$2
	DD	03H
	DD	FLAT:__unwindfunclet$??__EskillIndexes@@YAXXZ$4
	DD	04H
	DD	FLAT:__unwindfunclet$??__EskillIndexes@@YAXXZ$5
	DD	05H
	DD	FLAT:__unwindfunclet$??__EskillIndexes@@YAXXZ$6
	DD	06H
	DD	FLAT:__unwindfunclet$??__EskillIndexes@@YAXXZ$7
	DD	07H
	DD	FLAT:__unwindfunclet$??__EskillIndexes@@YAXXZ$8
	DD	08H
	DD	FLAT:__unwindfunclet$??__EskillIndexes@@YAXXZ$9
	DD	07H
	DD	FLAT:__unwindfunclet$??__EskillIndexes@@YAXXZ$9
	DD	0aH
	DD	FLAT:__unwindfunclet$??__EskillIndexes@@YAXXZ$11
	DD	0bH
	DD	FLAT:__unwindfunclet$??__EskillIndexes@@YAXXZ$12
	DD	0cH
	DD	FLAT:__unwindfunclet$??__EskillIndexes@@YAXXZ$13
	DD	0dH
	DD	FLAT:__unwindfunclet$??__EskillIndexes@@YAXXZ$14
	DD	0eH
	DD	FLAT:__unwindfunclet$??__EskillIndexes@@YAXXZ$15
	DD	0fH
	DD	FLAT:__unwindfunclet$??__EskillIndexes@@YAXXZ$16
	DD	0eH
	DD	FLAT:__unwindfunclet$??__EskillIndexes@@YAXXZ$16
	DD	011H
	DD	FLAT:__unwindfunclet$??__EskillIndexes@@YAXXZ$18
	DD	012H
	DD	FLAT:__unwindfunclet$??__EskillIndexes@@YAXXZ$19
	DD	013H
	DD	FLAT:__unwindfunclet$??__EskillIndexes@@YAXXZ$20
	DD	014H
	DD	FLAT:__unwindfunclet$??__EskillIndexes@@YAXXZ$21
	DD	015H
	DD	FLAT:__unwindfunclet$??__EskillIndexes@@YAXXZ$22
	DD	016H
	DD	FLAT:__unwindfunclet$??__EskillIndexes@@YAXXZ$23
	DD	015H
	DD	FLAT:__unwindfunclet$??__EskillIndexes@@YAXXZ$23
	DD	018H
	DD	FLAT:__unwindfunclet$??__EskillIndexes@@YAXXZ$25
	DD	019H
	DD	FLAT:__unwindfunclet$??__EskillIndexes@@YAXXZ$26
	DD	05H
	DD	FLAT:__unwindfunclet$??__EskillIndexes@@YAXXZ$7
	DD	01bH
	DD	FLAT:__unwindfunclet$??__EskillIndexes@@YAXXZ$9
	DD	01cH
	DD	FLAT:__unwindfunclet$??__EskillIndexes@@YAXXZ$11
	DD	01dH
	DD	FLAT:__unwindfunclet$??__EskillIndexes@@YAXXZ$12
	DD	01eH
	DD	FLAT:__unwindfunclet$??__EskillIndexes@@YAXXZ$14
	DD	01fH
	DD	FLAT:__unwindfunclet$??__EskillIndexes@@YAXXZ$16
	DD	020H
	DD	FLAT:__unwindfunclet$??__EskillIndexes@@YAXXZ$18
	DD	021H
	DD	FLAT:__unwindfunclet$??__EskillIndexes@@YAXXZ$19
	DD	022H
	DD	FLAT:__unwindfunclet$??__EskillIndexes@@YAXXZ$21
	DD	023H
	DD	FLAT:__unwindfunclet$??__EskillIndexes@@YAXXZ$23
	DD	024H
	DD	FLAT:__unwindfunclet$??__EskillIndexes@@YAXXZ$25
	DD	025H
	DD	FLAT:__unwindfunclet$??__EskillIndexes@@YAXXZ$26
	DD	026H
	DD	FLAT:__unwindfunclet$??__EskillIndexes@@YAXXZ$28
xdata$x	ENDS
;	COMDAT xdata$x
xdata$x	SEGMENT
__ehfuncinfo$??__EguildSkills@@YAXXZ DQ 00000000a19930522r ; 2.14319e-313
	DD	FLAT:__unwindtable$??__EguildSkills@@YAXXZ
	DQ	00000000000000000r		; 0
	DQ	00000000000000000r		; 0
	DQ	00000000100000000r		; 2.122e-314
	ORG $+4
__unwindtable$??__EguildSkills@@YAXXZ DD 0ffffffffH
	DD	FLAT:__unwindfunclet$??__EguildSkills@@YAXXZ$0
	DD	00H
	DD	FLAT:__unwindfunclet$??__EguildSkills@@YAXXZ$1
	DD	01H
	DD	FLAT:__unwindfunclet$??__EguildSkills@@YAXXZ$10
	DD	01H
	DD	FLAT:__unwindfunclet$??__EguildSkills@@YAXXZ$2
	DD	03H
	DD	FLAT:__unwindfunclet$??__EguildSkills@@YAXXZ$3
	DD	04H
	DD	FLAT:__unwindfunclet$??__EguildSkills@@YAXXZ$4
	DD	05H
	DD	FLAT:__unwindfunclet$??__EguildSkills@@YAXXZ$16
	DD	01H
	DD	FLAT:__unwindfunclet$??__EguildSkills@@YAXXZ$3
	DD	07H
	DD	FLAT:__unwindfunclet$??__EguildSkills@@YAXXZ$4
	DD	08H
	DD	FLAT:__unwindfunclet$??__EguildSkills@@YAXXZ$6
xdata$x	ENDS
;	COMDAT xdata$x
xdata$x	SEGMENT
__ehfuncinfo$?rem_path@@YAPADV?$basic_string@DU?$char_traits@D@std@@V?$allocator@D@2@@std@@H@Z DQ 00000000919930522r ; 1.93099e-313
	DD	FLAT:__unwindtable$?rem_path@@YAPADV?$basic_string@DU?$char_traits@D@std@@V?$allocator@D@2@@std@@H@Z
	DQ	00000000000000000r		; 0
	DQ	00000000000000000r		; 0
	DQ	00000000100000000r		; 2.122e-314
	ORG $+4
__unwindtable$?rem_path@@YAPADV?$basic_string@DU?$char_traits@D@std@@V?$allocator@D@2@@std@@H@Z DD 0ffffffffH
	DD	FLAT:__unwindfunclet$?rem_path@@YAPADV?$basic_string@DU?$char_traits@D@std@@V?$allocator@D@2@@std@@H@Z$0
	DD	00H
	DD	FLAT:__unwindfunclet$?rem_path@@YAPADV?$basic_string@DU?$char_traits@D@std@@V?$allocator@D@2@@std@@H@Z$1
	DD	01H
	DD	FLAT:__unwindfunclet$?rem_path@@YAPADV?$basic_string@DU?$char_traits@D@std@@V?$allocator@D@2@@std@@H@Z$2
	DD	02H
	DD	FLAT:__unwindfunclet$?rem_path@@YAPADV?$basic_string@DU?$char_traits@D@std@@V?$allocator@D@2@@std@@H@Z$3
	DD	00H
	DD	FLAT:__unwindfunclet$?rem_path@@YAPADV?$basic_string@DU?$char_traits@D@std@@V?$allocator@D@2@@std@@H@Z$5
	DD	04H
	DD	FLAT:__unwindfunclet$?rem_path@@YAPADV?$basic_string@DU?$char_traits@D@std@@V?$allocator@D@2@@std@@H@Z$6
	DD	05H
	DD	FLAT:__unwindfunclet$?rem_path@@YAPADV?$basic_string@DU?$char_traits@D@std@@V?$allocator@D@2@@std@@H@Z$7
	DD	06H
	DD	FLAT:__unwindfunclet$?rem_path@@YAPADV?$basic_string@DU?$char_traits@D@std@@V?$allocator@D@2@@std@@H@Z$8
	DD	07H
	DD	FLAT:__unwindfunclet$?rem_path@@YAPADV?$basic_string@DU?$char_traits@D@std@@V?$allocator@D@2@@std@@H@Z$9
xdata$x	ENDS
;	COMDAT xdata$x
xdata$x	SEGMENT
__ehfuncinfo$?SetSnowTextureModeOption@CPythonSystem@@QAEXH@Z DQ 00000000119930522r ; 2.33398e-314
	DD	FLAT:__unwindtable$?SetSnowTextureModeOption@CPythonSystem@@QAEXH@Z
	DQ	00000000000000000r		; 0
	DQ	00000000000000000r		; 0
	DQ	00000000100000000r		; 2.122e-314
__unwindtable$?SetSnowTextureModeOption@CPythonSystem@@QAEXH@Z DD 0ffffffffH
	DD	FLAT:__unwindfunclet$?SetSnowTextureModeOption@CPythonSystem@@QAEXH@Z$0
	ORG $+4
?vecUseSoundFileName@@3V?$array@U?$pair@KV?$basic_string@DU?$char_traits@D@std@@V?$allocator@D@2@@std@@@std@@$06@std@@B DQ 00000000000000001r ; 4.94066e-324 ; vecUseSoundFileName
	DQ	00000000000000000r		; 0
	DQ	00000000000000000r		; 0
	DQ	00000000000000000r		; 0
	DQ	00000000000000000r		; 0
	DQ	00000000000000000r		; 0
	DQ	00000000000000000r		; 0
	DQ	00000000000000000r		; 0
	DQ	00000000000000000r		; 0
	DQ	00000000000000000r		; 0
	DQ	00000000000000000r		; 0
	DQ	00000000000000000r		; 0
	DQ	00000000000000000r		; 0
	DQ	00000000000000000r		; 0
	DQ	00000000000000000r		; 0
	DQ	00000000000000000r		; 0
	DQ	00000000000000000r		; 0
	DQ	00000000000000000r		; 0
	DQ	00000000000000000r		; 0
	DQ	00000000000000000r		; 0
	DQ	00000000000000000r		; 0
	DQ	00000000000000000r		; 0
	DQ	00000000000000000r		; 0
	DQ	00000000000000000r		; 0
	DD	00H
?vecUseSoundFileName$initializer$@@3P6AXXZA DD FLAT:??__EvecUseSoundFileName@@YAXXZ ; vecUseSoundFileName$initializer$
?vecDropSoundFileName$initializer$@@3P6AXXZA DD FLAT:??__EvecDropSoundFileName@@YAXXZ ; vecDropSoundFileName$initializer$
?vecEffectList$initializer$@@3P6AXXZA DD FLAT:??__EvecEffectList@@YAXXZ ; vecEffectList$initializer$
?characterNameColors$initializer$@@3P6AXXZA DD FLAT:??__EcharacterNameColors@@YAXXZ ; characterNameColors$initializer$
?characterTitleColors$initializer$@@3P6AXXZA DD FLAT:??__EcharacterTitleColors@@YAXXZ ; characterTitleColors$initializer$
?characterTitleSystemColors$initializer$@@3P6AXXZA DD FLAT:??__EcharacterTitleSystemColors@@YAXXZ ; characterTitleSystemColors$initializer$
?emotionIcons$initializer$@@3P6AXXZA DD FLAT:??__EemotionIcons@@YAXXZ ; emotionIcons$initializer$
?skillIndexes$initializer$@@3P6AXXZA DD FLAT:??__EskillIndexes@@YAXXZ ; skillIndexes$initializer$
?guildSkills$initializer$@@3P6AXXZA DD FLAT:??__EguildSkills@@YAXXZ ; guildSkills$initializer$
; Function compile flags: /Ogtp
; File C:\Anka2Project\Anka2Project\Source\Binary\source\UserInterface\PythonSystem.cpp
;	COMDAT ?SaveInterfaceStatus@CPythonSystem@@QAEXXZ
_TEXT	SEGMENT
?SaveInterfaceStatus@CPythonSystem@@QAEXXZ PROC		; CPythonSystem::SaveInterfaceStatus, COMDAT
; _this$ = ecx

; 863  : {

  00000	56		 push	 esi
  00001	8b f1		 mov	 esi, ecx

; 864  : 	if (!m_poInterfaceHandler)

  00003	83 be 6c 26 00
	00 00		 cmp	 DWORD PTR [esi+9836], 0
  0000a	74 63		 je	 SHORT $LN1@SaveInterf

; 865  : 		return;
; 866  : 
; 867  : 	PyCallClassMemberFunc(m_poInterfaceHandler, "OnSaveInterfaceStatus", Py_BuildValue("()"));

  0000c	57		 push	 edi
  0000d	68 00 00 00 00	 push	 OFFSET ??_C@_02HCKGKOFO@?$CI?$CJ@
  00012	ff 15 00 00 00
	00		 call	 DWORD PTR __imp__Py_BuildValue
  00018	50		 push	 eax
  00019	68 00 00 00 00	 push	 OFFSET ??_C@_0BG@OMGMEENH@OnSaveInterfaceStatus@
  0001e	ff b6 6c 26 00
	00		 push	 DWORD PTR [esi+9836]
  00024	e8 00 00 00 00	 call	 ?PyCallClassMemberFunc@@YA_NPAU_object@@PBD0@Z ; PyCallClassMemberFunc

; 868  : 
; 869  : 	FILE * File;
; 870  : 
; 871  : 	File = fopen("interface.cfg", "wb");

  00029	68 00 00 00 00	 push	 OFFSET ??_C@_02GMLFBBN@wb@
  0002e	68 00 00 00 00	 push	 OFFSET ??_C@_0O@OMHCOGAL@interface?4cfg@
  00033	e8 00 00 00 00	 call	 _fopen
  00038	8b f8		 mov	 edi, eax
  0003a	83 c4 18	 add	 esp, 24			; 00000018H

; 872  : 
; 873  : 	if (!File)

  0003d	85 ff		 test	 edi, edi
  0003f	75 10		 jne	 SHORT $LN3@SaveInterf

; 874  : 	{
; 875  : 		TraceError("Cannot open interface.cfg");

  00041	68 00 00 00 00	 push	 OFFSET ??_C@_0BK@BDPDEBGA@Cannot?5open?5interface?4cfg@
  00046	e8 00 00 00 00	 call	 ?TraceError@@YAXPBDZZ	; TraceError
  0004b	83 c4 04	 add	 esp, 4
  0004e	5f		 pop	 edi
  0004f	5e		 pop	 esi

; 881  : }

  00050	c3		 ret	 0
$LN3@SaveInterf:

; 876  : 		return;
; 877  : 	}
; 878  : 
; 879  : 	fwrite(m_WindowStatus, 1, sizeof(TWindowStatus) * WINDOW_MAX_NUM, File);

  00051	57		 push	 edi
  00052	68 c8 00 00 00	 push	 200			; 000000c8H
  00057	8d 86 70 26 00
	00		 lea	 eax, DWORD PTR [esi+9840]
  0005d	6a 01		 push	 1
  0005f	50		 push	 eax
  00060	e8 00 00 00 00	 call	 _fwrite

; 880  : 	fclose(File);

  00065	57		 push	 edi
  00066	e8 00 00 00 00	 call	 _fclose
  0006b	83 c4 14	 add	 esp, 20			; 00000014H
  0006e	5f		 pop	 edi
$LN1@SaveInterf:

; 881  : }

  0006f	5e		 pop	 esi
  00070	c3		 ret	 0
?SaveInterfaceStatus@CPythonSystem@@QAEXXZ ENDP		; CPythonSystem::SaveInterfaceStatus
_TEXT	ENDS
; Function compile flags: /Ogtp
; File C:\Anka2Project\Anka2Project\Source\Binary\source\UserInterface\PythonSystem.cpp
; File C:\Program Files (x86)\Windows Kits\10\Include\10.0.26100.0\ucrt\string.h
; File C:\Anka2Project\Anka2Project\Source\Binary\source\UserInterface\PythonSystem.cpp
; File C:\Program Files (x86)\Windows Kits\10\Include\10.0.26100.0\ucrt\corecrt_math.h
; File C:\Anka2Project\Anka2Project\Source\Binary\source\UserInterface\PythonSystem.cpp
; File C:\Program Files (x86)\Windows Kits\10\Include\10.0.26100.0\ucrt\corecrt_math.h
; File C:\Anka2Project\Anka2Project\Source\Binary\source\UserInterface\PythonSystem.cpp
; File C:\Program Files (x86)\Windows Kits\10\Include\10.0.26100.0\ucrt\string.h
; File C:\Anka2Project\Anka2Project\Source\Binary\source\UserInterface\PythonSystem.cpp
; File C:\Program Files (x86)\Windows Kits\10\Include\10.0.26100.0\ucrt\corecrt_math.h
; File C:\Anka2Project\Anka2Project\Source\Binary\source\UserInterface\PythonSystem.cpp
; File C:\Program Files (x86)\Windows Kits\10\Include\10.0.26100.0\ucrt\corecrt_math.h
; File C:\Anka2Project\Anka2Project\Source\Binary\source\UserInterface\PythonSystem.cpp
;	COMDAT ?LoadConfig@CPythonSystem@@QAE_NXZ
_TEXT	SEGMENT
_fp$1$ = -780						; size = 4
_buf$ = -776						; size = 256
_command$ = -520					; size = 256
_value$ = -264						; size = 256
__$ArrayPad$ = -4					; size = 4
?LoadConfig@CPythonSystem@@QAE_NXZ PROC			; CPythonSystem::LoadConfig, COMDAT
; _this$ = ecx

; 603  : {

  00000	55		 push	 ebp
  00001	8b ec		 mov	 ebp, esp
  00003	81 ec 0c 03 00
	00		 sub	 esp, 780		; 0000030cH
  00009	a1 00 00 00 00	 mov	 eax, DWORD PTR ___security_cookie
  0000e	33 c5		 xor	 eax, ebp
  00010	89 45 fc	 mov	 DWORD PTR __$ArrayPad$[ebp], eax
  00013	53		 push	 ebx
  00014	56		 push	 esi
  00015	57		 push	 edi

; 604  : 	FILE * fp = nullptr;
; 605  : 
; 606  : 	if (NULL == (fp = fopen("metin2.cfg", "rt")))

  00016	68 00 00 00 00	 push	 OFFSET ??_C@_02BMJICGCB@rt@
  0001b	68 00 00 00 00	 push	 OFFSET ??_C@_0L@PJKCGBDF@metin2?4cfg@
  00020	8b f9		 mov	 edi, ecx
  00022	e8 00 00 00 00	 call	 _fopen
  00027	8b f0		 mov	 esi, eax
  00029	83 c4 08	 add	 esp, 8
  0002c	89 b5 f4 fc ff
	ff		 mov	 DWORD PTR _fp$1$[ebp], esi
  00032	85 f6		 test	 esi, esi
  00034	75 13		 jne	 SHORT $LN151@LoadConfig

; 607  : 		return false;

  00036	32 c0		 xor	 al, al

; 755  : 
; 756  : 	return true;
; 757  : }

  00038	5f		 pop	 edi
  00039	5e		 pop	 esi
  0003a	5b		 pop	 ebx
  0003b	8b 4d fc	 mov	 ecx, DWORD PTR __$ArrayPad$[ebp]
  0003e	33 cd		 xor	 ecx, ebp
  00040	e8 00 00 00 00	 call	 @__security_check_cookie@4
  00045	8b e5		 mov	 esp, ebp
  00047	5d		 pop	 ebp
  00048	c3		 ret	 0
$LN151@LoadConfig:

; 608  : 
; 609  : 	char buf[256];
; 610  : 	char command[256];
; 611  : 	char value[256];
; 612  : 
; 613  : 	while (fgets(buf, 256, fp))

  00049	56		 push	 esi
  0004a	8d 85 f8 fc ff
	ff		 lea	 eax, DWORD PTR _buf$[ebp]
  00050	68 00 01 00 00	 push	 256			; 00000100H
  00055	50		 push	 eax
  00056	e8 00 00 00 00	 call	 _fgets
  0005b	83 c4 0c	 add	 esp, 12			; 0000000cH
  0005e	85 c0		 test	 eax, eax
  00060	0f 84 d8 0a 00
	00		 je	 $LN155@LoadConfig
  00066	66 66 0f 1f 84
	00 00 00 00 00	 npad	 10
$LL2@LoadConfig:

; 614  : 	{
; 615  : 		if (sscanf(buf, " %s %s\n", command, value) == EOF)

  00070	8d 85 f8 fe ff
	ff		 lea	 eax, DWORD PTR _value$[ebp]
  00076	50		 push	 eax
  00077	8d 85 f8 fd ff
	ff		 lea	 eax, DWORD PTR _command$[ebp]
  0007d	50		 push	 eax
  0007e	8d 85 f8 fc ff
	ff		 lea	 eax, DWORD PTR _buf$[ebp]
  00084	68 00 00 00 00	 push	 OFFSET ??_C@_07IJONGFBP@?5?$CFs?5?$CFs?6@
  00089	50		 push	 eax
  0008a	e8 00 00 00 00	 call	 _sscanf
  0008f	83 c4 10	 add	 esp, 16			; 00000010H
  00092	83 f8 ff	 cmp	 eax, -1
  00095	0f 84 a3 0a 00
	00		 je	 $LN155@LoadConfig

; 616  : 			break;
; 617  : 
; 618  : 		if (!stricmp(command, "WIDTH"))

  0009b	8d 85 f8 fd ff
	ff		 lea	 eax, DWORD PTR _command$[ebp]
  000a1	68 00 00 00 00	 push	 OFFSET ??_C@_05ENDGNACA@WIDTH@
  000a6	50		 push	 eax
  000a7	e8 00 00 00 00	 call	 __stricmp
  000ac	83 c4 08	 add	 esp, 8
  000af	85 c0		 test	 eax, eax
  000b1	75 1a		 jne	 SHORT $LN6@LoadConfig

; 619  : 			m_Config.width = atoi(value);

  000b3	8d 85 f8 fe ff
	ff		 lea	 eax, DWORD PTR _value$[ebp]
  000b9	50		 push	 eax
  000ba	e8 00 00 00 00	 call	 __atoi64
  000bf	83 c4 04	 add	 esp, 4
  000c2	89 87 88 25 00
	00		 mov	 DWORD PTR [edi+9608], eax
  000c8	e9 54 0a 00 00	 jmp	 $LN88@LoadConfig
$LN6@LoadConfig:

; 620  : 		else if (!stricmp(command, "HEIGHT"))

  000cd	8d 85 f8 fd ff
	ff		 lea	 eax, DWORD PTR _command$[ebp]
  000d3	68 00 00 00 00	 push	 OFFSET ??_C@_06LJJMJONE@HEIGHT@
  000d8	50		 push	 eax
  000d9	e8 00 00 00 00	 call	 __stricmp
  000de	83 c4 08	 add	 esp, 8
  000e1	85 c0		 test	 eax, eax
  000e3	75 1a		 jne	 SHORT $LN8@LoadConfig

; 621  : 			m_Config.height	= atoi(value);

  000e5	8d 85 f8 fe ff
	ff		 lea	 eax, DWORD PTR _value$[ebp]
  000eb	50		 push	 eax
  000ec	e8 00 00 00 00	 call	 __atoi64
  000f1	83 c4 04	 add	 esp, 4
  000f4	89 87 8c 25 00
	00		 mov	 DWORD PTR [edi+9612], eax
  000fa	e9 22 0a 00 00	 jmp	 $LN88@LoadConfig
$LN8@LoadConfig:

; 622  : 		else if (!stricmp(command, "BPP"))

  000ff	8d 85 f8 fd ff
	ff		 lea	 eax, DWORD PTR _command$[ebp]
  00105	68 00 00 00 00	 push	 OFFSET ??_C@_03DJKBMDLB@BPP@
  0010a	50		 push	 eax
  0010b	e8 00 00 00 00	 call	 __stricmp
  00110	83 c4 08	 add	 esp, 8
  00113	85 c0		 test	 eax, eax
  00115	75 1a		 jne	 SHORT $LN10@LoadConfig

; 623  : 			m_Config.bpp = atoi(value);

  00117	8d 85 f8 fe ff
	ff		 lea	 eax, DWORD PTR _value$[ebp]
  0011d	50		 push	 eax
  0011e	e8 00 00 00 00	 call	 __atoi64
  00123	83 c4 04	 add	 esp, 4
  00126	89 87 90 25 00
	00		 mov	 DWORD PTR [edi+9616], eax
  0012c	e9 f0 09 00 00	 jmp	 $LN88@LoadConfig
$LN10@LoadConfig:

; 624  : 		else if (!stricmp(command, "FREQUENCY"))

  00131	8d 85 f8 fd ff
	ff		 lea	 eax, DWORD PTR _command$[ebp]
  00137	68 00 00 00 00	 push	 OFFSET ??_C@_09JJJEBDOD@FREQUENCY@
  0013c	50		 push	 eax
  0013d	e8 00 00 00 00	 call	 __stricmp
  00142	83 c4 08	 add	 esp, 8
  00145	85 c0		 test	 eax, eax
  00147	75 1a		 jne	 SHORT $LN12@LoadConfig

; 625  : 			m_Config.frequency = atoi(value);

  00149	8d 85 f8 fe ff
	ff		 lea	 eax, DWORD PTR _value$[ebp]
  0014f	50		 push	 eax
  00150	e8 00 00 00 00	 call	 __atoi64
  00155	83 c4 04	 add	 esp, 4
  00158	89 87 94 25 00
	00		 mov	 DWORD PTR [edi+9620], eax
  0015e	e9 be 09 00 00	 jmp	 $LN88@LoadConfig
$LN12@LoadConfig:

; 626  : 		else if (!stricmp(command, "SOFTWARE_CURSOR"))

  00163	8d 85 f8 fd ff
	ff		 lea	 eax, DWORD PTR _command$[ebp]
  00169	68 00 00 00 00	 push	 OFFSET ??_C@_0BA@KHKJCKOL@SOFTWARE_CURSOR@
  0016e	50		 push	 eax
  0016f	e8 00 00 00 00	 call	 __stricmp
  00174	83 c4 08	 add	 esp, 8
  00177	85 c0		 test	 eax, eax
  00179	75 2d		 jne	 SHORT $LN14@LoadConfig

; 627  : 			m_Config.is_software_cursor = atoi(value) ? true : false;

  0017b	8d 85 f8 fe ff
	ff		 lea	 eax, DWORD PTR _value$[ebp]
  00181	50		 push	 eax
  00182	e8 00 00 00 00	 call	 __atoi64
  00187	83 c4 04	 add	 esp, 4
  0018a	0b c2		 or	 eax, edx
  0018c	74 0d		 je	 SHORT $LN93@LoadConfig
  0018e	b0 01		 mov	 al, 1
  00190	88 87 98 25 00
	00		 mov	 BYTE PTR [edi+9624], al
  00196	e9 86 09 00 00	 jmp	 $LN88@LoadConfig
$LN93@LoadConfig:
  0019b	32 c0		 xor	 al, al
  0019d	88 87 98 25 00
	00		 mov	 BYTE PTR [edi+9624], al
  001a3	e9 79 09 00 00	 jmp	 $LN88@LoadConfig
$LN14@LoadConfig:

; 628  : 		else if (!stricmp(command, "OBJECT_CULLING"))

  001a8	8d 85 f8 fd ff
	ff		 lea	 eax, DWORD PTR _command$[ebp]
  001ae	68 00 00 00 00	 push	 OFFSET ??_C@_0P@HLGCIFEM@OBJECT_CULLING@
  001b3	50		 push	 eax
  001b4	e8 00 00 00 00	 call	 __stricmp
  001b9	83 c4 08	 add	 esp, 8
  001bc	85 c0		 test	 eax, eax
  001be	75 2d		 jne	 SHORT $LN16@LoadConfig

; 629  : 			m_Config.is_object_culling = atoi(value) ? true : false;

  001c0	8d 85 f8 fe ff
	ff		 lea	 eax, DWORD PTR _value$[ebp]
  001c6	50		 push	 eax
  001c7	e8 00 00 00 00	 call	 __atoi64
  001cc	83 c4 04	 add	 esp, 4
  001cf	0b c2		 or	 eax, edx
  001d1	74 0d		 je	 SHORT $LN95@LoadConfig
  001d3	b0 01		 mov	 al, 1
  001d5	88 87 99 25 00
	00		 mov	 BYTE PTR [edi+9625], al
  001db	e9 41 09 00 00	 jmp	 $LN88@LoadConfig
$LN95@LoadConfig:
  001e0	32 c0		 xor	 al, al
  001e2	88 87 99 25 00
	00		 mov	 BYTE PTR [edi+9625], al
  001e8	e9 34 09 00 00	 jmp	 $LN88@LoadConfig
$LN16@LoadConfig:

; 630  : 		else if (!stricmp(command, "VISIBILITY"))

  001ed	8d 85 f8 fd ff
	ff		 lea	 eax, DWORD PTR _command$[ebp]
  001f3	68 00 00 00 00	 push	 OFFSET ??_C@_0L@JLMBCMBB@VISIBILITY@
  001f8	50		 push	 eax
  001f9	e8 00 00 00 00	 call	 __stricmp
  001fe	83 c4 08	 add	 esp, 8
  00201	85 c0		 test	 eax, eax
  00203	75 1a		 jne	 SHORT $LN18@LoadConfig

; 631  : 			m_Config.iDistance = atoi(value);

  00205	8d 85 f8 fe ff
	ff		 lea	 eax, DWORD PTR _value$[ebp]
  0020b	50		 push	 eax
  0020c	e8 00 00 00 00	 call	 __atoi64
  00211	83 c4 04	 add	 esp, 4
  00214	89 87 9c 25 00
	00		 mov	 DWORD PTR [edi+9628], eax
  0021a	e9 02 09 00 00	 jmp	 $LN88@LoadConfig
$LN18@LoadConfig:

; 632  : 		else if (!stricmp(command, "MUSIC_VOLUME"))

  0021f	8d 85 f8 fd ff
	ff		 lea	 eax, DWORD PTR _command$[ebp]
  00225	68 00 00 00 00	 push	 OFFSET ??_C@_0N@GMIPKHGM@MUSIC_VOLUME@
  0022a	50		 push	 eax
  0022b	e8 00 00 00 00	 call	 __stricmp
  00230	83 c4 08	 add	 esp, 8
  00233	85 c0		 test	 eax, eax
  00235	0f 85 90 00 00
	00		 jne	 $LN20@LoadConfig
; File C:\Program Files (x86)\Windows Kits\10\Include\10.0.26100.0\ucrt\string.h

; 502  :         return const_cast<char*>(strchr(static_cast<char const*>(_String), _Ch));

  0023b	8d 85 f8 fe ff
	ff		 lea	 eax, DWORD PTR _value$[ebp]
  00241	6a 2e		 push	 46			; 0000002eH
  00243	50		 push	 eax
  00244	e8 00 00 00 00	 call	 _strchr
  00249	83 c4 08	 add	 esp, 8
; File C:\Anka2Project\Anka2Project\Source\Binary\source\UserInterface\PythonSystem.cpp

; 634  : 			if(strchr(value, '.') == 0)

  0024c	85 c0		 test	 eax, eax
  0024e	8d 85 f8 fe ff
	ff		 lea	 eax, DWORD PTR _value$[ebp]
  00254	50		 push	 eax
  00255	75 61		 jne	 SHORT $LN22@LoadConfig

; 636  : 				m_Config.music_volume = pow(10.0f, (-1.0f + (((float) atoi(value)) / 5.0f)));

  00257	e8 00 00 00 00	 call	 __atoi64
  0025c	83 c4 04	 add	 esp, 4
  0025f	8b c8		 mov	 ecx, eax
  00261	e8 00 00 00 00	 call	 __ltof3
  00266	f3 0f 5e 05 00
	00 00 00	 divss	 xmm0, DWORD PTR __real@40a00000
; File C:\Program Files (x86)\Windows Kits\10\Include\10.0.26100.0\ucrt\corecrt_math.h

; 784  :             return (float)pow(_X, _Y);

  0026e	0f 57 c9	 xorps	 xmm1, xmm1
; File C:\Anka2Project\Anka2Project\Source\Binary\source\UserInterface\PythonSystem.cpp

; 636  : 				m_Config.music_volume = pow(10.0f, (-1.0f + (((float) atoi(value)) / 5.0f)));

  00271	f3 0f 5c 05 00
	00 00 00	 subss	 xmm0, DWORD PTR __real@3f800000
; File C:\Program Files (x86)\Windows Kits\10\Include\10.0.26100.0\ucrt\corecrt_math.h

; 784  :             return (float)pow(_X, _Y);

  00279	f3 0f 5a c8	 cvtss2sd xmm1, xmm0
  0027d	f2 0f 10 05 00
	00 00 00	 movsd	 xmm0, QWORD PTR __real@4024000000000000
  00285	e8 00 00 00 00	 call	 __libm_sse2_pow_precise
  0028a	f2 0f 5a c0	 cvtsd2ss xmm0, xmm0
; File C:\Anka2Project\Anka2Project\Source\Binary\source\UserInterface\PythonSystem.cpp

; 637  : 				if(atoi(value) == 0)

  0028e	8d 85 f8 fe ff
	ff		 lea	 eax, DWORD PTR _value$[ebp]
  00294	50		 push	 eax
  00295	f3 0f 11 87 a4
	25 00 00	 movss	 DWORD PTR [edi+9636], xmm0
  0029d	e8 00 00 00 00	 call	 __atoi64
  002a2	83 c4 04	 add	 esp, 4
  002a5	0b c2		 or	 eax, edx
  002a7	0f 85 74 08 00
	00		 jne	 $LN88@LoadConfig

; 638  : 					m_Config.music_volume = 0.0f;

  002ad	89 87 a4 25 00
	00		 mov	 DWORD PTR [edi+9636], eax

; 639  : 			}

  002b3	e9 69 08 00 00	 jmp	 $LN88@LoadConfig
$LN22@LoadConfig:

; 640  : 			else
; 641  : 				m_Config.music_volume = atof(value);

  002b8	e8 00 00 00 00	 call	 _atof
  002bd	d9 9f a4 25 00
	00		 fstp	 DWORD PTR [edi+9636]
  002c3	83 c4 04	 add	 esp, 4

; 642  : 		}

  002c6	e9 56 08 00 00	 jmp	 $LN88@LoadConfig
$LN20@LoadConfig:

; 643  : 		else if (!stricmp(command, "VOICE_VOLUME"))

  002cb	8d 85 f8 fd ff
	ff		 lea	 eax, DWORD PTR _command$[ebp]
  002d1	68 00 00 00 00	 push	 OFFSET ??_C@_0N@PBAPMOIE@VOICE_VOLUME@
  002d6	50		 push	 eax
  002d7	e8 00 00 00 00	 call	 __stricmp
  002dc	83 c4 08	 add	 esp, 8
  002df	85 c0		 test	 eax, eax
  002e1	75 1a		 jne	 SHORT $LN25@LoadConfig

; 644  : 			m_Config.voice_volume = (char) atoi(value);

  002e3	8d 85 f8 fe ff
	ff		 lea	 eax, DWORD PTR _value$[ebp]
  002e9	50		 push	 eax
  002ea	e8 00 00 00 00	 call	 __atoi64
  002ef	83 c4 04	 add	 esp, 4
  002f2	88 87 a8 25 00
	00		 mov	 BYTE PTR [edi+9640], al
  002f8	e9 24 08 00 00	 jmp	 $LN88@LoadConfig
$LN25@LoadConfig:

; 645  : 		else if (!stricmp(command, "GAMMA"))

  002fd	8d 85 f8 fd ff
	ff		 lea	 eax, DWORD PTR _command$[ebp]
  00303	68 00 00 00 00	 push	 OFFSET ??_C@_05MBKNPFEG@GAMMA@
  00308	50		 push	 eax
  00309	e8 00 00 00 00	 call	 __stricmp
  0030e	83 c4 08	 add	 esp, 8
  00311	85 c0		 test	 eax, eax
  00313	75 1a		 jne	 SHORT $LN27@LoadConfig

; 646  : 			m_Config.gamma = atoi(value);

  00315	8d 85 f8 fe ff
	ff		 lea	 eax, DWORD PTR _value$[ebp]
  0031b	50		 push	 eax
  0031c	e8 00 00 00 00	 call	 __atoi64
  00321	83 c4 04	 add	 esp, 4
  00324	89 87 ac 25 00
	00		 mov	 DWORD PTR [edi+9644], eax
  0032a	e9 f2 07 00 00	 jmp	 $LN88@LoadConfig
$LN27@LoadConfig:

; 647  : 		else if (!stricmp(command, "IS_SAVE_ID"))

  0032f	8d 85 f8 fd ff
	ff		 lea	 eax, DWORD PTR _command$[ebp]
  00335	68 00 00 00 00	 push	 OFFSET ??_C@_0L@MNJEEPBE@IS_SAVE_ID@
  0033a	50		 push	 eax
  0033b	e8 00 00 00 00	 call	 __stricmp
  00340	83 c4 08	 add	 esp, 8
  00343	85 c0		 test	 eax, eax
  00345	75 1a		 jne	 SHORT $LN29@LoadConfig

; 648  : 			m_Config.isSaveID = atoi(value);

  00347	8d 85 f8 fe ff
	ff		 lea	 eax, DWORD PTR _value$[ebp]
  0034d	50		 push	 eax
  0034e	e8 00 00 00 00	 call	 __atoi64
  00353	83 c4 04	 add	 esp, 4
  00356	89 87 b0 25 00
	00		 mov	 DWORD PTR [edi+9648], eax
  0035c	e9 c0 07 00 00	 jmp	 $LN88@LoadConfig
$LN29@LoadConfig:

; 649  : 		else if (!stricmp(command, "SAVE_ID"))

  00361	8d 85 f8 fd ff
	ff		 lea	 eax, DWORD PTR _command$[ebp]
  00367	68 00 00 00 00	 push	 OFFSET ??_C@_07JBPMLFBH@SAVE_ID@
  0036c	50		 push	 eax
  0036d	e8 00 00 00 00	 call	 __stricmp
  00372	83 c4 08	 add	 esp, 8
  00375	85 c0		 test	 eax, eax
  00377	75 1d		 jne	 SHORT $LN31@LoadConfig

; 650  : 			strncpy(m_Config.SaveID, value, 20);

  00379	6a 14		 push	 20			; 00000014H
  0037b	8d 85 f8 fe ff
	ff		 lea	 eax, DWORD PTR _value$[ebp]
  00381	50		 push	 eax
  00382	8d 87 b4 25 00
	00		 lea	 eax, DWORD PTR [edi+9652]
  00388	50		 push	 eax
  00389	e8 00 00 00 00	 call	 _strncpy
  0038e	83 c4 0c	 add	 esp, 12			; 0000000cH
  00391	e9 8b 07 00 00	 jmp	 $LN88@LoadConfig
$LN31@LoadConfig:

; 651  : 		else if (!stricmp(command, "PRE_LOADING_DELAY_TIME"))

  00396	8d 85 f8 fd ff
	ff		 lea	 eax, DWORD PTR _command$[ebp]
  0039c	68 00 00 00 00	 push	 OFFSET ??_C@_0BH@DLIOKMKH@PRE_LOADING_DELAY_TIME@
  003a1	50		 push	 eax
  003a2	e8 00 00 00 00	 call	 __stricmp
  003a7	83 c4 08	 add	 esp, 8
  003aa	85 c0		 test	 eax, eax
  003ac	75 19		 jne	 SHORT $LN33@LoadConfig

; 652  : 			g_iLoadingDelayTime = atoi(value);

  003ae	8d 85 f8 fe ff
	ff		 lea	 eax, DWORD PTR _value$[ebp]
  003b4	50		 push	 eax
  003b5	e8 00 00 00 00	 call	 __atoi64
  003ba	83 c4 04	 add	 esp, 4
  003bd	a3 00 00 00 00	 mov	 DWORD PTR ?g_iLoadingDelayTime@@3HA, eax ; g_iLoadingDelayTime
  003c2	e9 5a 07 00 00	 jmp	 $LN88@LoadConfig
$LN33@LoadConfig:

; 653  : 		else if (!stricmp(command, "WINDOWED"))

  003c7	8d 85 f8 fd ff
	ff		 lea	 eax, DWORD PTR _command$[ebp]
  003cd	68 00 00 00 00	 push	 OFFSET ??_C@_08NHNHGFNP@WINDOWED@
  003d2	50		 push	 eax
  003d3	e8 00 00 00 00	 call	 __stricmp
  003d8	83 c4 08	 add	 esp, 8
  003db	85 c0		 test	 eax, eax
  003dd	75 32		 jne	 SHORT $LN35@LoadConfig

; 654  : 		{
; 655  : 			m_Config.bWindowed = atoi(value) == 1 ? true : false;

  003df	8d 85 f8 fe ff
	ff		 lea	 eax, DWORD PTR _value$[ebp]
  003e5	50		 push	 eax
  003e6	e8 00 00 00 00	 call	 __atoi64
  003eb	83 c4 04	 add	 esp, 4
  003ee	83 f8 01	 cmp	 eax, 1
  003f1	75 11		 jne	 SHORT $LN97@LoadConfig
  003f3	85 d2		 test	 edx, edx
  003f5	75 0d		 jne	 SHORT $LN97@LoadConfig
  003f7	8a c0		 mov	 al, al
  003f9	88 87 c8 25 00
	00		 mov	 BYTE PTR [edi+9672], al

; 656  : 		}

  003ff	e9 1d 07 00 00	 jmp	 $LN88@LoadConfig
$LN97@LoadConfig:

; 654  : 		{
; 655  : 			m_Config.bWindowed = atoi(value) == 1 ? true : false;

  00404	32 c0		 xor	 al, al
  00406	88 87 c8 25 00
	00		 mov	 BYTE PTR [edi+9672], al

; 656  : 		}

  0040c	e9 10 07 00 00	 jmp	 $LN88@LoadConfig
$LN35@LoadConfig:

; 657  : 		else if (!stricmp(command, "USE_DEFAULT_IME"))

  00411	8d 85 f8 fd ff
	ff		 lea	 eax, DWORD PTR _command$[ebp]
  00417	68 00 00 00 00	 push	 OFFSET ??_C@_0BA@LLBGEPPK@USE_DEFAULT_IME@
  0041c	50		 push	 eax
  0041d	e8 00 00 00 00	 call	 __stricmp
  00422	83 c4 08	 add	 esp, 8
  00425	85 c0		 test	 eax, eax
  00427	75 32		 jne	 SHORT $LN37@LoadConfig

; 658  : 			m_Config.bUseDefaultIME = atoi(value) == 1 ? true : false;

  00429	8d 85 f8 fe ff
	ff		 lea	 eax, DWORD PTR _value$[ebp]
  0042f	50		 push	 eax
  00430	e8 00 00 00 00	 call	 __atoi64
  00435	83 c4 04	 add	 esp, 4
  00438	83 f8 01	 cmp	 eax, 1
  0043b	75 11		 jne	 SHORT $LN99@LoadConfig
  0043d	85 d2		 test	 edx, edx
  0043f	75 0d		 jne	 SHORT $LN99@LoadConfig
  00441	8a c0		 mov	 al, al
  00443	88 87 cb 25 00
	00		 mov	 BYTE PTR [edi+9675], al
  00449	e9 d3 06 00 00	 jmp	 $LN88@LoadConfig
$LN99@LoadConfig:
  0044e	32 c0		 xor	 al, al
  00450	88 87 cb 25 00
	00		 mov	 BYTE PTR [edi+9675], al
  00456	e9 c6 06 00 00	 jmp	 $LN88@LoadConfig
$LN37@LoadConfig:

; 659  : 		else if (!stricmp(command, "SHADOW_LEVEL"))

  0045b	8d 85 f8 fd ff
	ff		 lea	 eax, DWORD PTR _command$[ebp]
  00461	68 00 00 00 00	 push	 OFFSET ??_C@_0N@FFBEOPBM@SHADOW_LEVEL@
  00466	50		 push	 eax
  00467	e8 00 00 00 00	 call	 __stricmp
  0046c	83 c4 08	 add	 esp, 8
  0046f	85 c0		 test	 eax, eax
  00471	75 1a		 jne	 SHORT $LN39@LoadConfig

; 660  : 			m_Config.iShadowLevel = atoi(value);

  00473	8d 85 f8 fe ff
	ff		 lea	 eax, DWORD PTR _value$[ebp]
  00479	50		 push	 eax
  0047a	e8 00 00 00 00	 call	 __atoi64
  0047f	83 c4 04	 add	 esp, 4
  00482	89 87 a0 25 00
	00		 mov	 DWORD PTR [edi+9632], eax
  00488	e9 94 06 00 00	 jmp	 $LN88@LoadConfig
$LN39@LoadConfig:

; 661  : 		else if (!stricmp(command, "DECOMPRESSED_TEXTURE"))

  0048d	8d 85 f8 fd ff
	ff		 lea	 eax, DWORD PTR _command$[ebp]
  00493	68 00 00 00 00	 push	 OFFSET ??_C@_0BF@BGGNMKON@DECOMPRESSED_TEXTURE@
  00498	50		 push	 eax
  00499	e8 00 00 00 00	 call	 __stricmp
  0049e	83 c4 08	 add	 esp, 8
  004a1	85 c0		 test	 eax, eax
  004a3	75 32		 jne	 SHORT $LN41@LoadConfig

; 662  : 			m_Config.bDecompressDDS = atoi(value) == 1 ? true : false;

  004a5	8d 85 f8 fe ff
	ff		 lea	 eax, DWORD PTR _value$[ebp]
  004ab	50		 push	 eax
  004ac	e8 00 00 00 00	 call	 __atoi64
  004b1	83 c4 04	 add	 esp, 4
  004b4	83 f8 01	 cmp	 eax, 1
  004b7	75 11		 jne	 SHORT $LN101@LoadConfig
  004b9	85 d2		 test	 edx, edx
  004bb	75 0d		 jne	 SHORT $LN101@LoadConfig
  004bd	8a c0		 mov	 al, al
  004bf	88 87 c9 25 00
	00		 mov	 BYTE PTR [edi+9673], al
  004c5	e9 57 06 00 00	 jmp	 $LN88@LoadConfig
$LN101@LoadConfig:
  004ca	32 c0		 xor	 al, al
  004cc	88 87 c9 25 00
	00		 mov	 BYTE PTR [edi+9673], al
  004d2	e9 4a 06 00 00	 jmp	 $LN88@LoadConfig
$LN41@LoadConfig:

; 663  : 		else if (!stricmp(command, "NO_SOUND_CARD"))

  004d7	8d 85 f8 fd ff
	ff		 lea	 eax, DWORD PTR _command$[ebp]
  004dd	68 00 00 00 00	 push	 OFFSET ??_C@_0O@HAABBABC@NO_SOUND_CARD@
  004e2	50		 push	 eax
  004e3	e8 00 00 00 00	 call	 __stricmp
  004e8	83 c4 08	 add	 esp, 8
  004eb	85 c0		 test	 eax, eax
  004ed	75 32		 jne	 SHORT $LN43@LoadConfig

; 664  : 			m_Config.bNoSoundCard = atoi(value) == 1 ? true : false;

  004ef	8d 85 f8 fe ff
	ff		 lea	 eax, DWORD PTR _value$[ebp]
  004f5	50		 push	 eax
  004f6	e8 00 00 00 00	 call	 __atoi64
  004fb	83 c4 04	 add	 esp, 4
  004fe	83 f8 01	 cmp	 eax, 1
  00501	75 11		 jne	 SHORT $LN103@LoadConfig
  00503	85 d2		 test	 edx, edx
  00505	75 0d		 jne	 SHORT $LN103@LoadConfig
  00507	8a c0		 mov	 al, al
  00509	88 87 ca 25 00
	00		 mov	 BYTE PTR [edi+9674], al
  0050f	e9 0d 06 00 00	 jmp	 $LN88@LoadConfig
$LN103@LoadConfig:
  00514	32 c0		 xor	 al, al
  00516	88 87 ca 25 00
	00		 mov	 BYTE PTR [edi+9674], al
  0051c	e9 00 06 00 00	 jmp	 $LN88@LoadConfig
$LN43@LoadConfig:

; 665  : 		else if (!stricmp(command, "VIEW_CHAT"))

  00521	8d 85 f8 fd ff
	ff		 lea	 eax, DWORD PTR _command$[ebp]
  00527	68 00 00 00 00	 push	 OFFSET ??_C@_09EOOFFIKE@VIEW_CHAT@
  0052c	50		 push	 eax
  0052d	e8 00 00 00 00	 call	 __stricmp
  00532	83 c4 08	 add	 esp, 8
  00535	85 c0		 test	 eax, eax
  00537	75 32		 jne	 SHORT $LN45@LoadConfig

; 666  : 			m_Config.bViewChat = atoi(value) == 1 ? true : false;

  00539	8d 85 f8 fe ff
	ff		 lea	 eax, DWORD PTR _value$[ebp]
  0053f	50		 push	 eax
  00540	e8 00 00 00 00	 call	 __atoi64
  00545	83 c4 04	 add	 esp, 4
  00548	83 f8 01	 cmp	 eax, 1
  0054b	75 11		 jne	 SHORT $LN105@LoadConfig
  0054d	85 d2		 test	 edx, edx
  0054f	75 0d		 jne	 SHORT $LN105@LoadConfig
  00551	8a c0		 mov	 al, al
  00553	88 87 cd 25 00
	00		 mov	 BYTE PTR [edi+9677], al
  00559	e9 c3 05 00 00	 jmp	 $LN88@LoadConfig
$LN105@LoadConfig:
  0055e	32 c0		 xor	 al, al
  00560	88 87 cd 25 00
	00		 mov	 BYTE PTR [edi+9677], al
  00566	e9 b6 05 00 00	 jmp	 $LN88@LoadConfig
$LN45@LoadConfig:

; 667  : 		else if (!stricmp(command, "ALWAYS_VIEW_NAME"))

  0056b	8d 85 f8 fd ff
	ff		 lea	 eax, DWORD PTR _command$[ebp]
  00571	68 00 00 00 00	 push	 OFFSET ??_C@_0BB@PPFHKIN@ALWAYS_VIEW_NAME@
  00576	50		 push	 eax
  00577	e8 00 00 00 00	 call	 __stricmp
  0057c	83 c4 08	 add	 esp, 8
  0057f	85 c0		 test	 eax, eax
  00581	75 32		 jne	 SHORT $LN47@LoadConfig

; 668  : 			m_Config.bAlwaysShowName = atoi(value) == 1 ? true : false;

  00583	8d 85 f8 fe ff
	ff		 lea	 eax, DWORD PTR _value$[ebp]
  00589	50		 push	 eax
  0058a	e8 00 00 00 00	 call	 __atoi64
  0058f	83 c4 04	 add	 esp, 4
  00592	83 f8 01	 cmp	 eax, 1
  00595	75 11		 jne	 SHORT $LN107@LoadConfig
  00597	85 d2		 test	 edx, edx
  00599	75 0d		 jne	 SHORT $LN107@LoadConfig
  0059b	8a c0		 mov	 al, al
  0059d	88 87 ce 25 00
	00		 mov	 BYTE PTR [edi+9678], al
  005a3	e9 79 05 00 00	 jmp	 $LN88@LoadConfig
$LN107@LoadConfig:
  005a8	32 c0		 xor	 al, al
  005aa	88 87 ce 25 00
	00		 mov	 BYTE PTR [edi+9678], al
  005b0	e9 6c 05 00 00	 jmp	 $LN88@LoadConfig
$LN47@LoadConfig:

; 669  : 		else if (!stricmp(command, "SHOW_DAMAGE"))

  005b5	8d 85 f8 fd ff
	ff		 lea	 eax, DWORD PTR _command$[ebp]
  005bb	68 00 00 00 00	 push	 OFFSET ??_C@_0M@FJJANDDI@SHOW_DAMAGE@
  005c0	50		 push	 eax
  005c1	e8 00 00 00 00	 call	 __stricmp
  005c6	83 c4 08	 add	 esp, 8
  005c9	85 c0		 test	 eax, eax
  005cb	75 32		 jne	 SHORT $LN49@LoadConfig

; 670  : 			m_Config.bShowDamage = atoi(value) == 1 ? true : false;

  005cd	8d 85 f8 fe ff
	ff		 lea	 eax, DWORD PTR _value$[ebp]
  005d3	50		 push	 eax
  005d4	e8 00 00 00 00	 call	 __atoi64
  005d9	83 c4 04	 add	 esp, 4
  005dc	83 f8 01	 cmp	 eax, 1
  005df	75 11		 jne	 SHORT $LN109@LoadConfig
  005e1	85 d2		 test	 edx, edx
  005e3	75 0d		 jne	 SHORT $LN109@LoadConfig
  005e5	8a c0		 mov	 al, al
  005e7	88 87 cf 25 00
	00		 mov	 BYTE PTR [edi+9679], al
  005ed	e9 2f 05 00 00	 jmp	 $LN88@LoadConfig
$LN109@LoadConfig:
  005f2	32 c0		 xor	 al, al
  005f4	88 87 cf 25 00
	00		 mov	 BYTE PTR [edi+9679], al
  005fa	e9 22 05 00 00	 jmp	 $LN88@LoadConfig
$LN49@LoadConfig:

; 671  : 		else if (!stricmp(command, "SHOW_SALESTEXT"))

  005ff	8d 85 f8 fd ff
	ff		 lea	 eax, DWORD PTR _command$[ebp]
  00605	68 00 00 00 00	 push	 OFFSET ??_C@_0P@FIIALOBN@SHOW_SALESTEXT@
  0060a	50		 push	 eax
  0060b	e8 00 00 00 00	 call	 __stricmp
  00610	83 c4 08	 add	 esp, 8
  00613	85 c0		 test	 eax, eax
  00615	75 32		 jne	 SHORT $LN51@LoadConfig

; 672  : 			m_Config.bShowSalesText = atoi(value) == 1 ? true : false;

  00617	8d 85 f8 fe ff
	ff		 lea	 eax, DWORD PTR _value$[ebp]
  0061d	50		 push	 eax
  0061e	e8 00 00 00 00	 call	 __atoi64
  00623	83 c4 04	 add	 esp, 4
  00626	83 f8 01	 cmp	 eax, 1
  00629	75 11		 jne	 SHORT $LN111@LoadConfig
  0062b	85 d2		 test	 edx, edx
  0062d	75 0d		 jne	 SHORT $LN111@LoadConfig
  0062f	8a c0		 mov	 al, al
  00631	88 87 d0 25 00
	00		 mov	 BYTE PTR [edi+9680], al
  00637	e9 e5 04 00 00	 jmp	 $LN88@LoadConfig
$LN111@LoadConfig:
  0063c	32 c0		 xor	 al, al
  0063e	88 87 d0 25 00
	00		 mov	 BYTE PTR [edi+9680], al
  00644	e9 d8 04 00 00	 jmp	 $LN88@LoadConfig
$LN51@LoadConfig:

; 673  : #ifdef ENABLE_FOG_FIX
; 674  : 		else if (!stricmp(command, "FOG_MODE_ON"))

  00649	8d 85 f8 fd ff
	ff		 lea	 eax, DWORD PTR _command$[ebp]
  0064f	68 00 00 00 00	 push	 OFFSET ??_C@_0M@ENBKKOLK@FOG_MODE_ON@
  00654	50		 push	 eax
  00655	e8 00 00 00 00	 call	 __stricmp
  0065a	83 c4 08	 add	 esp, 8
  0065d	85 c0		 test	 eax, eax
  0065f	75 32		 jne	 SHORT $LN53@LoadConfig

; 675  : 			m_Config.bFogMode = atoi(value) == 1 ? true : false;

  00661	8d 85 f8 fe ff
	ff		 lea	 eax, DWORD PTR _value$[ebp]
  00667	50		 push	 eax
  00668	e8 00 00 00 00	 call	 __atoi64
  0066d	83 c4 04	 add	 esp, 4
  00670	83 f8 01	 cmp	 eax, 1
  00673	75 11		 jne	 SHORT $LN113@LoadConfig
  00675	85 d2		 test	 edx, edx
  00677	75 0d		 jne	 SHORT $LN113@LoadConfig
  00679	8a c0		 mov	 al, al
  0067b	88 87 d1 25 00
	00		 mov	 BYTE PTR [edi+9681], al
  00681	e9 9b 04 00 00	 jmp	 $LN88@LoadConfig
$LN113@LoadConfig:
  00686	32 c0		 xor	 al, al
  00688	88 87 d1 25 00
	00		 mov	 BYTE PTR [edi+9681], al
  0068e	e9 8e 04 00 00	 jmp	 $LN88@LoadConfig
$LN53@LoadConfig:

; 676  : #endif
; 677  : #ifdef ENABLE_ENB_MODE
; 678  : 		else if (!stricmp(command, "ENB_MODE_STATUS"))

  00693	8d 85 f8 fd ff
	ff		 lea	 eax, DWORD PTR _command$[ebp]
  00699	68 00 00 00 00	 push	 OFFSET ??_C@_0BA@NFNHMEJC@ENB_MODE_STATUS@
  0069e	50		 push	 eax
  0069f	e8 00 00 00 00	 call	 __stricmp
  006a4	83 c4 08	 add	 esp, 8
  006a7	85 c0		 test	 eax, eax
  006a9	75 32		 jne	 SHORT $LN55@LoadConfig

; 679  : 			m_Config.bENBModeStatus = atoi(value) == 1 ? true : false;

  006ab	8d 85 f8 fe ff
	ff		 lea	 eax, DWORD PTR _value$[ebp]
  006b1	50		 push	 eax
  006b2	e8 00 00 00 00	 call	 __atoi64
  006b7	83 c4 04	 add	 esp, 4
  006ba	83 f8 01	 cmp	 eax, 1
  006bd	75 11		 jne	 SHORT $LN115@LoadConfig
  006bf	85 d2		 test	 edx, edx
  006c1	75 0d		 jne	 SHORT $LN115@LoadConfig
  006c3	8a c0		 mov	 al, al
  006c5	88 87 d2 25 00
	00		 mov	 BYTE PTR [edi+9682], al
  006cb	e9 51 04 00 00	 jmp	 $LN88@LoadConfig
$LN115@LoadConfig:
  006d0	32 c0		 xor	 al, al
  006d2	88 87 d2 25 00
	00		 mov	 BYTE PTR [edi+9682], al
  006d8	e9 44 04 00 00	 jmp	 $LN88@LoadConfig
$LN55@LoadConfig:

; 680  : #endif
; 681  : #ifdef ENABLE_ENVIRONMENT_EFFECT_OPTION
; 682  : 		else if (!stricmp(command, "NIGHT_MODE_ON"))

  006dd	8d 85 f8 fd ff
	ff		 lea	 eax, DWORD PTR _command$[ebp]
  006e3	68 00 00 00 00	 push	 OFFSET ??_C@_0O@CJEJELCH@NIGHT_MODE_ON@
  006e8	50		 push	 eax
  006e9	e8 00 00 00 00	 call	 __stricmp
  006ee	83 c4 08	 add	 esp, 8
  006f1	85 c0		 test	 eax, eax
  006f3	75 32		 jne	 SHORT $LN57@LoadConfig

; 683  : 			m_Config.bNightMode = atoi(value) == 1 ? true : false;

  006f5	8d 85 f8 fe ff
	ff		 lea	 eax, DWORD PTR _value$[ebp]
  006fb	50		 push	 eax
  006fc	e8 00 00 00 00	 call	 __atoi64
  00701	83 c4 04	 add	 esp, 4
  00704	83 f8 01	 cmp	 eax, 1
  00707	75 11		 jne	 SHORT $LN117@LoadConfig
  00709	85 d2		 test	 edx, edx
  0070b	75 0d		 jne	 SHORT $LN117@LoadConfig
  0070d	8a c0		 mov	 al, al
  0070f	88 87 d3 25 00
	00		 mov	 BYTE PTR [edi+9683], al
  00715	e9 07 04 00 00	 jmp	 $LN88@LoadConfig
$LN117@LoadConfig:
  0071a	32 c0		 xor	 al, al
  0071c	88 87 d3 25 00
	00		 mov	 BYTE PTR [edi+9683], al
  00722	e9 fa 03 00 00	 jmp	 $LN88@LoadConfig
$LN57@LoadConfig:

; 684  : 		else if (!stricmp(command, "SNOW_MODE_ON"))

  00727	8d 85 f8 fd ff
	ff		 lea	 eax, DWORD PTR _command$[ebp]
  0072d	68 00 00 00 00	 push	 OFFSET ??_C@_0N@KMFJICPO@SNOW_MODE_ON@
  00732	50		 push	 eax
  00733	e8 00 00 00 00	 call	 __stricmp
  00738	83 c4 08	 add	 esp, 8
  0073b	85 c0		 test	 eax, eax
  0073d	75 32		 jne	 SHORT $LN59@LoadConfig

; 685  : 			m_Config.bSnowMode = atoi(value) == 1 ? true : false;

  0073f	8d 85 f8 fe ff
	ff		 lea	 eax, DWORD PTR _value$[ebp]
  00745	50		 push	 eax
  00746	e8 00 00 00 00	 call	 __atoi64
  0074b	83 c4 04	 add	 esp, 4
  0074e	83 f8 01	 cmp	 eax, 1
  00751	75 11		 jne	 SHORT $LN119@LoadConfig
  00753	85 d2		 test	 edx, edx
  00755	75 0d		 jne	 SHORT $LN119@LoadConfig
  00757	8a c0		 mov	 al, al
  00759	88 87 d4 25 00
	00		 mov	 BYTE PTR [edi+9684], al
  0075f	e9 bd 03 00 00	 jmp	 $LN88@LoadConfig
$LN119@LoadConfig:
  00764	32 c0		 xor	 al, al
  00766	88 87 d4 25 00
	00		 mov	 BYTE PTR [edi+9684], al
  0076c	e9 b0 03 00 00	 jmp	 $LN88@LoadConfig
$LN59@LoadConfig:

; 686  : 		else if (!stricmp(command, "SNOW_TEXTURE_MODE"))

  00771	8d 85 f8 fd ff
	ff		 lea	 eax, DWORD PTR _command$[ebp]
  00777	68 00 00 00 00	 push	 OFFSET ??_C@_0BC@HAGIIEKM@SNOW_TEXTURE_MODE@
  0077c	50		 push	 eax
  0077d	e8 00 00 00 00	 call	 __stricmp
  00782	83 c4 08	 add	 esp, 8
  00785	85 c0		 test	 eax, eax
  00787	75 32		 jne	 SHORT $LN61@LoadConfig

; 687  : 			m_Config.bSnowTextureMode = atoi(value) == 1 ? true : false;

  00789	8d 85 f8 fe ff
	ff		 lea	 eax, DWORD PTR _value$[ebp]
  0078f	50		 push	 eax
  00790	e8 00 00 00 00	 call	 __atoi64
  00795	83 c4 04	 add	 esp, 4
  00798	83 f8 01	 cmp	 eax, 1
  0079b	75 11		 jne	 SHORT $LN121@LoadConfig
  0079d	85 d2		 test	 edx, edx
  0079f	75 0d		 jne	 SHORT $LN121@LoadConfig
  007a1	8a c0		 mov	 al, al
  007a3	88 87 d5 25 00
	00		 mov	 BYTE PTR [edi+9685], al
  007a9	e9 73 03 00 00	 jmp	 $LN88@LoadConfig
$LN121@LoadConfig:
  007ae	32 c0		 xor	 al, al
  007b0	88 87 d5 25 00
	00		 mov	 BYTE PTR [edi+9685], al
  007b6	e9 66 03 00 00	 jmp	 $LN88@LoadConfig
$LN61@LoadConfig:

; 688  : #endif
; 689  : #ifdef ENABLE_GRAPHIC_ON_OFF
; 690  : 		else if (!stricmp(command, "EFFECT_LEVEL"))

  007bb	8d 85 f8 fd ff
	ff		 lea	 eax, DWORD PTR _command$[ebp]
  007c1	68 00 00 00 00	 push	 OFFSET ??_C@_0N@GIFMPEP@EFFECT_LEVEL@
  007c6	50		 push	 eax
  007c7	e8 00 00 00 00	 call	 __stricmp
  007cc	83 c4 08	 add	 esp, 8
  007cf	85 c0		 test	 eax, eax
  007d1	75 1a		 jne	 SHORT $LN63@LoadConfig

; 691  : 			m_Config.iEffectLevel = atoi(value);

  007d3	8d 85 f8 fe ff
	ff		 lea	 eax, DWORD PTR _value$[ebp]
  007d9	50		 push	 eax
  007da	e8 00 00 00 00	 call	 __atoi64
  007df	83 c4 04	 add	 esp, 4
  007e2	89 87 d8 25 00
	00		 mov	 DWORD PTR [edi+9688], eax
  007e8	e9 34 03 00 00	 jmp	 $LN88@LoadConfig
$LN63@LoadConfig:

; 692  : 		else if (!stricmp(command, "PRIVATE_SHOP_LEVEL"))

  007ed	8d 85 f8 fd ff
	ff		 lea	 eax, DWORD PTR _command$[ebp]
  007f3	68 00 00 00 00	 push	 OFFSET ??_C@_0BD@CPEGLNHL@PRIVATE_SHOP_LEVEL@
  007f8	50		 push	 eax
  007f9	e8 00 00 00 00	 call	 __stricmp
  007fe	83 c4 08	 add	 esp, 8
  00801	85 c0		 test	 eax, eax
  00803	75 1a		 jne	 SHORT $LN65@LoadConfig

; 693  : 			m_Config.iPrivateShopLevel = atoi(value);

  00805	8d 85 f8 fe ff
	ff		 lea	 eax, DWORD PTR _value$[ebp]
  0080b	50		 push	 eax
  0080c	e8 00 00 00 00	 call	 __atoi64
  00811	83 c4 04	 add	 esp, 4
  00814	89 87 dc 25 00
	00		 mov	 DWORD PTR [edi+9692], eax
  0081a	e9 02 03 00 00	 jmp	 $LN88@LoadConfig
$LN65@LoadConfig:

; 694  : 		else if (!stricmp(command, "DROP_ITEM_LEVEL"))

  0081f	8d 85 f8 fd ff
	ff		 lea	 eax, DWORD PTR _command$[ebp]
  00825	68 00 00 00 00	 push	 OFFSET ??_C@_0BA@FNNEOBHP@DROP_ITEM_LEVEL@
  0082a	50		 push	 eax
  0082b	e8 00 00 00 00	 call	 __stricmp
  00830	83 c4 08	 add	 esp, 8
  00833	85 c0		 test	 eax, eax
  00835	75 1a		 jne	 SHORT $LN67@LoadConfig

; 695  : 			m_Config.iDropItemLevel = atoi(value);

  00837	8d 85 f8 fe ff
	ff		 lea	 eax, DWORD PTR _value$[ebp]
  0083d	50		 push	 eax
  0083e	e8 00 00 00 00	 call	 __atoi64
  00843	83 c4 04	 add	 esp, 4
  00846	89 87 e0 25 00
	00		 mov	 DWORD PTR [edi+9696], eax
  0084c	e9 d0 02 00 00	 jmp	 $LN88@LoadConfig
$LN67@LoadConfig:

; 696  : 
; 697  : 		else if (!stricmp(command, "PET_STATUS"))

  00851	8d 85 f8 fd ff
	ff		 lea	 eax, DWORD PTR _command$[ebp]
  00857	68 00 00 00 00	 push	 OFFSET ??_C@_0L@GINCBMMI@PET_STATUS@
  0085c	50		 push	 eax
  0085d	e8 00 00 00 00	 call	 __stricmp
  00862	83 c4 08	 add	 esp, 8
  00865	85 c0		 test	 eax, eax
  00867	75 32		 jne	 SHORT $LN69@LoadConfig

; 698  : 			m_Config.bPetStatus = atoi(value) == 1 ? true : false;

  00869	8d 85 f8 fe ff
	ff		 lea	 eax, DWORD PTR _value$[ebp]
  0086f	50		 push	 eax
  00870	e8 00 00 00 00	 call	 __atoi64
  00875	83 c4 04	 add	 esp, 4
  00878	83 f8 01	 cmp	 eax, 1
  0087b	75 11		 jne	 SHORT $LN123@LoadConfig
  0087d	85 d2		 test	 edx, edx
  0087f	75 0d		 jne	 SHORT $LN123@LoadConfig
  00881	8a c0		 mov	 al, al
  00883	88 87 e4 25 00
	00		 mov	 BYTE PTR [edi+9700], al
  00889	e9 93 02 00 00	 jmp	 $LN88@LoadConfig
$LN123@LoadConfig:
  0088e	32 c0		 xor	 al, al
  00890	88 87 e4 25 00
	00		 mov	 BYTE PTR [edi+9700], al
  00896	e9 86 02 00 00	 jmp	 $LN88@LoadConfig
$LN69@LoadConfig:

; 699  : 		else if (!stricmp(command, "NPC_NAME_STATUS"))

  0089b	8d 85 f8 fd ff
	ff		 lea	 eax, DWORD PTR _command$[ebp]
  008a1	68 00 00 00 00	 push	 OFFSET ??_C@_0BA@GCOPFLFP@NPC_NAME_STATUS@
  008a6	50		 push	 eax
  008a7	e8 00 00 00 00	 call	 __stricmp
  008ac	83 c4 08	 add	 esp, 8
  008af	85 c0		 test	 eax, eax
  008b1	75 32		 jne	 SHORT $LN71@LoadConfig

; 700  : 			m_Config.bNpcNameStatus = atoi(value) == 1 ? true : false;

  008b3	8d 85 f8 fe ff
	ff		 lea	 eax, DWORD PTR _value$[ebp]
  008b9	50		 push	 eax
  008ba	e8 00 00 00 00	 call	 __atoi64
  008bf	83 c4 04	 add	 esp, 4
  008c2	83 f8 01	 cmp	 eax, 1
  008c5	75 11		 jne	 SHORT $LN125@LoadConfig
  008c7	85 d2		 test	 edx, edx
  008c9	75 0d		 jne	 SHORT $LN125@LoadConfig
  008cb	8a c0		 mov	 al, al
  008cd	88 87 e5 25 00
	00		 mov	 BYTE PTR [edi+9701], al
  008d3	e9 49 02 00 00	 jmp	 $LN88@LoadConfig
$LN125@LoadConfig:
  008d8	32 c0		 xor	 al, al
  008da	88 87 e5 25 00
	00		 mov	 BYTE PTR [edi+9701], al
  008e0	e9 3c 02 00 00	 jmp	 $LN88@LoadConfig
$LN71@LoadConfig:

; 701  : #endif
; 702  : #ifdef ENABLE_SHOW_MOB_INFO
; 703  : 		else if (!stricmp(command, "SHOW_MOBLEVEL"))

  008e5	8d 85 f8 fd ff
	ff		 lea	 eax, DWORD PTR _command$[ebp]
  008eb	68 00 00 00 00	 push	 OFFSET ??_C@_0O@OJELEFGI@SHOW_MOBLEVEL@
  008f0	50		 push	 eax
  008f1	e8 00 00 00 00	 call	 __stricmp
  008f6	83 c4 08	 add	 esp, 8
  008f9	85 c0		 test	 eax, eax
  008fb	75 32		 jne	 SHORT $LN73@LoadConfig

; 704  : 			m_Config.bShowMobLevel = atoi(value) == 1 ? true : false;

  008fd	8d 85 f8 fe ff
	ff		 lea	 eax, DWORD PTR _value$[ebp]
  00903	50		 push	 eax
  00904	e8 00 00 00 00	 call	 __atoi64
  00909	83 c4 04	 add	 esp, 4
  0090c	83 f8 01	 cmp	 eax, 1
  0090f	75 11		 jne	 SHORT $LN127@LoadConfig
  00911	85 d2		 test	 edx, edx
  00913	75 0d		 jne	 SHORT $LN127@LoadConfig
  00915	8a c0		 mov	 al, al
  00917	88 87 e6 25 00
	00		 mov	 BYTE PTR [edi+9702], al
  0091d	e9 ff 01 00 00	 jmp	 $LN88@LoadConfig
$LN127@LoadConfig:
  00922	32 c0		 xor	 al, al
  00924	88 87 e6 25 00
	00		 mov	 BYTE PTR [edi+9702], al
  0092a	e9 f2 01 00 00	 jmp	 $LN88@LoadConfig
$LN73@LoadConfig:

; 705  : 		else if (!stricmp(command, "SHOW_MOBAIFLAG"))

  0092f	8d 85 f8 fd ff
	ff		 lea	 eax, DWORD PTR _command$[ebp]
  00935	68 00 00 00 00	 push	 OFFSET ??_C@_0P@PPJNJBAN@SHOW_MOBAIFLAG@
  0093a	50		 push	 eax
  0093b	e8 00 00 00 00	 call	 __stricmp
  00940	83 c4 08	 add	 esp, 8
  00943	85 c0		 test	 eax, eax
  00945	75 32		 jne	 SHORT $LN75@LoadConfig

; 706  : 			m_Config.bShowMobAIFlag = atoi(value) == 1 ? true : false;

  00947	8d 85 f8 fe ff
	ff		 lea	 eax, DWORD PTR _value$[ebp]
  0094d	50		 push	 eax
  0094e	e8 00 00 00 00	 call	 __atoi64
  00953	83 c4 04	 add	 esp, 4
  00956	83 f8 01	 cmp	 eax, 1
  00959	75 11		 jne	 SHORT $LN129@LoadConfig
  0095b	85 d2		 test	 edx, edx
  0095d	75 0d		 jne	 SHORT $LN129@LoadConfig
  0095f	8a c0		 mov	 al, al
  00961	88 87 e7 25 00
	00		 mov	 BYTE PTR [edi+9703], al
  00967	e9 b5 01 00 00	 jmp	 $LN88@LoadConfig
$LN129@LoadConfig:
  0096c	32 c0		 xor	 al, al
  0096e	88 87 e7 25 00
	00		 mov	 BYTE PTR [edi+9703], al
  00974	e9 a8 01 00 00	 jmp	 $LN88@LoadConfig
$LN75@LoadConfig:

; 707  : #endif
; 708  : #ifdef ENABLE_RENEWAL_TEXT_SHADOW
; 709  : 		else if (!stricmp(command, "SHADOW_TEXT"))

  00979	8d 85 f8 fd ff
	ff		 lea	 eax, DWORD PTR _command$[ebp]
  0097f	68 00 00 00 00	 push	 OFFSET ??_C@_0M@GHHEOMFF@SHADOW_TEXT@
  00984	50		 push	 eax
  00985	e8 00 00 00 00	 call	 __stricmp
  0098a	83 c4 08	 add	 esp, 8
  0098d	85 c0		 test	 eax, eax
  0098f	75 32		 jne	 SHORT $LN77@LoadConfig

; 710  : 			m_Config.bShowOutline = atoi(value) == 1 ? true : false;

  00991	8d 85 f8 fe ff
	ff		 lea	 eax, DWORD PTR _value$[ebp]
  00997	50		 push	 eax
  00998	e8 00 00 00 00	 call	 __atoi64
  0099d	83 c4 04	 add	 esp, 4
  009a0	83 f8 01	 cmp	 eax, 1
  009a3	75 11		 jne	 SHORT $LN131@LoadConfig
  009a5	85 d2		 test	 edx, edx
  009a7	75 0d		 jne	 SHORT $LN131@LoadConfig
  009a9	8a c0		 mov	 al, al
  009ab	88 87 e8 25 00
	00		 mov	 BYTE PTR [edi+9704], al
  009b1	e9 6b 01 00 00	 jmp	 $LN88@LoadConfig
$LN131@LoadConfig:
  009b6	32 c0		 xor	 al, al
  009b8	88 87 e8 25 00
	00		 mov	 BYTE PTR [edi+9704], al
  009be	e9 5e 01 00 00	 jmp	 $LN88@LoadConfig
$LN77@LoadConfig:

; 711  : #endif
; 712  : #ifdef ENABLE_FOV_OPTION
; 713  : 		else if (!stricmp(command, "FOV"))

  009c3	8d 85 f8 fd ff
	ff		 lea	 eax, DWORD PTR _command$[ebp]
  009c9	68 00 00 00 00	 push	 OFFSET ??_C@_03PHODBHCN@FOV@
  009ce	50		 push	 eax
  009cf	e8 00 00 00 00	 call	 __stricmp
  009d4	83 c4 08	 add	 esp, 8
  009d7	85 c0		 test	 eax, eax
  009d9	75 1a		 jne	 SHORT $LN79@LoadConfig

; 714  : 			m_Config.fFOV = atof(value);

  009db	8d 85 f8 fe ff
	ff		 lea	 eax, DWORD PTR _value$[ebp]
  009e1	50		 push	 eax
  009e2	e8 00 00 00 00	 call	 _atof
  009e7	d9 9f ec 25 00
	00		 fstp	 DWORD PTR [edi+9708]
  009ed	83 c4 04	 add	 esp, 4
  009f0	e9 2c 01 00 00	 jmp	 $LN88@LoadConfig
$LN79@LoadConfig:

; 715  : #endif
; 716  : #ifdef ENABLE_STONE_SCALE_OPTION
; 717  : 		else if (!stricmp(command, "STONE_SCALE"))

  009f5	8d 85 f8 fd ff
	ff		 lea	 eax, DWORD PTR _command$[ebp]
  009fb	68 00 00 00 00	 push	 OFFSET ??_C@_0M@IIMGGGNJ@STONE_SCALE@
  00a00	50		 push	 eax
  00a01	e8 00 00 00 00	 call	 __stricmp
  00a06	83 c4 08	 add	 esp, 8
  00a09	85 c0		 test	 eax, eax
  00a0b	0f 85 90 00 00
	00		 jne	 $LN81@LoadConfig
; File C:\Program Files (x86)\Windows Kits\10\Include\10.0.26100.0\ucrt\string.h

; 502  :         return const_cast<char*>(strchr(static_cast<char const*>(_String), _Ch));

  00a11	8d 85 f8 fe ff
	ff		 lea	 eax, DWORD PTR _value$[ebp]
  00a17	6a 2e		 push	 46			; 0000002eH
  00a19	50		 push	 eax
  00a1a	e8 00 00 00 00	 call	 _strchr
  00a1f	83 c4 08	 add	 esp, 8
; File C:\Anka2Project\Anka2Project\Source\Binary\source\UserInterface\PythonSystem.cpp

; 718  : 			if (strchr(value, '.') == 0)

  00a22	85 c0		 test	 eax, eax
  00a24	8d 85 f8 fe ff
	ff		 lea	 eax, DWORD PTR _value$[ebp]
  00a2a	50		 push	 eax
  00a2b	75 61		 jne	 SHORT $LN83@LoadConfig

; 720  : 				m_Config.m_fStoneScale = pow(10.0f, (-1.0f + (((float)atoi(value)) / 5.0f)));

  00a2d	e8 00 00 00 00	 call	 __atoi64
  00a32	83 c4 04	 add	 esp, 4
  00a35	8b c8		 mov	 ecx, eax
  00a37	e8 00 00 00 00	 call	 __ltof3
  00a3c	f3 0f 5e 05 00
	00 00 00	 divss	 xmm0, DWORD PTR __real@40a00000
; File C:\Program Files (x86)\Windows Kits\10\Include\10.0.26100.0\ucrt\corecrt_math.h

; 784  :             return (float)pow(_X, _Y);

  00a44	0f 57 c9	 xorps	 xmm1, xmm1
; File C:\Anka2Project\Anka2Project\Source\Binary\source\UserInterface\PythonSystem.cpp

; 720  : 				m_Config.m_fStoneScale = pow(10.0f, (-1.0f + (((float)atoi(value)) / 5.0f)));

  00a47	f3 0f 5c 05 00
	00 00 00	 subss	 xmm0, DWORD PTR __real@3f800000
; File C:\Program Files (x86)\Windows Kits\10\Include\10.0.26100.0\ucrt\corecrt_math.h

; 784  :             return (float)pow(_X, _Y);

  00a4f	f3 0f 5a c8	 cvtss2sd xmm1, xmm0
  00a53	f2 0f 10 05 00
	00 00 00	 movsd	 xmm0, QWORD PTR __real@4024000000000000
  00a5b	e8 00 00 00 00	 call	 __libm_sse2_pow_precise
  00a60	f2 0f 5a c0	 cvtsd2ss xmm0, xmm0
; File C:\Anka2Project\Anka2Project\Source\Binary\source\UserInterface\PythonSystem.cpp

; 721  : 				if (atoi(value) == 0)

  00a64	8d 85 f8 fe ff
	ff		 lea	 eax, DWORD PTR _value$[ebp]
  00a6a	50		 push	 eax
  00a6b	f3 0f 11 87 f0
	25 00 00	 movss	 DWORD PTR [edi+9712], xmm0
  00a73	e8 00 00 00 00	 call	 __atoi64
  00a78	83 c4 04	 add	 esp, 4
  00a7b	0b c2		 or	 eax, edx
  00a7d	0f 85 9e 00 00
	00		 jne	 $LN88@LoadConfig

; 722  : 					m_Config.m_fStoneScale = 0.0f;

  00a83	89 87 f0 25 00
	00		 mov	 DWORD PTR [edi+9712], eax

; 723  : 			}

  00a89	e9 93 00 00 00	 jmp	 $LN88@LoadConfig
$LN83@LoadConfig:

; 724  : 			else
; 725  : 				m_Config.m_fStoneScale = atof(value);

  00a8e	e8 00 00 00 00	 call	 _atof
  00a93	d9 9f f0 25 00
	00		 fstp	 DWORD PTR [edi+9712]
  00a99	83 c4 04	 add	 esp, 4
  00a9c	e9 80 00 00 00	 jmp	 $LN88@LoadConfig
$LN81@LoadConfig:

; 726  : #endif
; 727  : #ifdef ENABLE_DUNGEON_TRACKING_SYSTEM
; 728  : 		else if (!stricmp(command, "DUNGEON_TRACK"))

  00aa1	8d 85 f8 fd ff
	ff		 lea	 eax, DWORD PTR _command$[ebp]
  00aa7	68 00 00 00 00	 push	 OFFSET ??_C@_0O@EDNCBHME@DUNGEON_TRACK@
  00aac	50		 push	 eax
  00aad	e8 00 00 00 00	 call	 __stricmp
  00ab2	83 c4 08	 add	 esp, 8
  00ab5	85 c0		 test	 eax, eax
  00ab7	75 2c		 jne	 SHORT $LN86@LoadConfig

; 729  : 			m_Config.bDungeonTrack = atoi(value) == 1 ? true : false;

  00ab9	8d 85 f8 fe ff
	ff		 lea	 eax, DWORD PTR _value$[ebp]
  00abf	50		 push	 eax
  00ac0	e8 00 00 00 00	 call	 __atoi64
  00ac5	83 c4 04	 add	 esp, 4
  00ac8	83 f8 01	 cmp	 eax, 1
  00acb	75 0e		 jne	 SHORT $LN133@LoadConfig
  00acd	85 d2		 test	 edx, edx
  00acf	75 0a		 jne	 SHORT $LN133@LoadConfig
  00ad1	8a c0		 mov	 al, al
  00ad3	88 87 f4 25 00
	00		 mov	 BYTE PTR [edi+9716], al
  00ad9	eb 46		 jmp	 SHORT $LN88@LoadConfig
$LN133@LoadConfig:
  00adb	32 c0		 xor	 al, al
  00add	88 87 f4 25 00
	00		 mov	 BYTE PTR [edi+9716], al
  00ae3	eb 3c		 jmp	 SHORT $LN88@LoadConfig
$LN86@LoadConfig:

; 730  : 		else if (!stricmp(command, "BOSS_TRACK"))

  00ae5	8d 85 f8 fd ff
	ff		 lea	 eax, DWORD PTR _command$[ebp]
  00aeb	68 00 00 00 00	 push	 OFFSET ??_C@_0L@KHDDOOJN@BOSS_TRACK@
  00af0	50		 push	 eax
  00af1	e8 00 00 00 00	 call	 __stricmp
  00af6	83 c4 08	 add	 esp, 8
  00af9	85 c0		 test	 eax, eax
  00afb	75 24		 jne	 SHORT $LN88@LoadConfig

; 731  : 			m_Config.bBossTrack = atoi(value) == 1 ? true : false;

  00afd	8d 85 f8 fe ff
	ff		 lea	 eax, DWORD PTR _value$[ebp]
  00b03	50		 push	 eax
  00b04	e8 00 00 00 00	 call	 __atoi64
  00b09	83 c4 04	 add	 esp, 4
  00b0c	83 f8 01	 cmp	 eax, 1
  00b0f	75 08		 jne	 SHORT $LN135@LoadConfig
  00b11	85 d2		 test	 edx, edx
  00b13	75 04		 jne	 SHORT $LN135@LoadConfig
  00b15	8a c0		 mov	 al, al
  00b17	eb 02		 jmp	 SHORT $LN136@LoadConfig
$LN135@LoadConfig:
  00b19	32 c0		 xor	 al, al
$LN136@LoadConfig:
  00b1b	88 87 f5 25 00
	00		 mov	 BYTE PTR [edi+9717], al
$LN88@LoadConfig:

; 608  : 
; 609  : 	char buf[256];
; 610  : 	char command[256];
; 611  : 	char value[256];
; 612  : 
; 613  : 	while (fgets(buf, 256, fp))

  00b21	56		 push	 esi
  00b22	8d 85 f8 fc ff
	ff		 lea	 eax, DWORD PTR _buf$[ebp]
  00b28	68 00 01 00 00	 push	 256			; 00000100H
  00b2d	50		 push	 eax
  00b2e	e8 00 00 00 00	 call	 _fgets
  00b33	83 c4 0c	 add	 esp, 12			; 0000000cH
  00b36	85 c0		 test	 eax, eax
  00b38	0f 85 32 f5 ff
	ff		 jne	 $LL2@LoadConfig
$LN155@LoadConfig:

; 732  : #endif
; 733  : 	}
; 734  : 
; 735  : 	if (m_Config.bWindowed)

  00b3e	80 bf c8 25 00
	00 00		 cmp	 BYTE PTR [edi+9672], 0
  00b45	74 2f		 je	 SHORT $LN91@LoadConfig

; 736  : 	{
; 737  : 		unsigned screen_width = GetSystemMetrics(SM_CXFULLSCREEN);

  00b47	8b 35 00 00 00
	00		 mov	 esi, DWORD PTR __imp__GetSystemMetrics@4
  00b4d	6a 10		 push	 16			; 00000010H
  00b4f	ff d6		 call	 esi

; 738  : 		unsigned screen_height = GetSystemMetrics(SM_CYFULLSCREEN);

  00b51	6a 11		 push	 17			; 00000011H
  00b53	8b d8		 mov	 ebx, eax
  00b55	ff d6		 call	 esi

; 739  : 
; 740  : 		if (m_Config.width >= screen_width)

  00b57	39 9f 88 25 00
	00		 cmp	 DWORD PTR [edi+9608], ebx
  00b5d	72 06		 jb	 SHORT $LN90@LoadConfig

; 741  : 		{
; 742  : 			m_Config.width = screen_width;

  00b5f	89 9f 88 25 00
	00		 mov	 DWORD PTR [edi+9608], ebx
$LN90@LoadConfig:

; 743  : 		}
; 744  : 		if (m_Config.height >= screen_height) //Fix

  00b65	39 87 8c 25 00
	00		 cmp	 DWORD PTR [edi+9612], eax
  00b6b	72 09		 jb	 SHORT $LN91@LoadConfig

; 745  : 		{
; 746  : 			int config_height = m_Config.height;
; 747  : 			int difference = (config_height-screen_height)+7;
; 748  : 			m_Config.height = config_height - difference;

  00b6d	83 c0 f9	 add	 eax, -7			; fffffff9H
  00b70	89 87 8c 25 00
	00		 mov	 DWORD PTR [edi+9612], eax
$LN91@LoadConfig:

; 749  : 		}
; 750  : 	}
; 751  : 	
; 752  : 	m_OldConfig = m_Config;
; 753  : 
; 754  : 	fclose(fp);

  00b76	ff b5 f4 fc ff
	ff		 push	 DWORD PTR _fp$1$[ebp]
  00b7c	8d b7 88 25 00
	00		 lea	 esi, DWORD PTR [edi+9608]
  00b82	b9 1c 00 00 00	 mov	 ecx, 28			; 0000001cH
  00b87	81 c7 f8 25 00
	00		 add	 edi, 9720		; 000025f8H
  00b8d	f3 a5		 rep movsd
  00b8f	e8 00 00 00 00	 call	 _fclose

; 755  : 
; 756  : 	return true;
; 757  : }

  00b94	8b 4d fc	 mov	 ecx, DWORD PTR __$ArrayPad$[ebp]
  00b97	83 c4 04	 add	 esp, 4
  00b9a	33 cd		 xor	 ecx, ebp
  00b9c	b0 01		 mov	 al, 1
  00b9e	5f		 pop	 edi
  00b9f	5e		 pop	 esi
  00ba0	5b		 pop	 ebx
  00ba1	e8 00 00 00 00	 call	 @__security_check_cookie@4
  00ba6	8b e5		 mov	 esp, ebp
  00ba8	5d		 pop	 ebp
  00ba9	c3		 ret	 0
?LoadConfig@CPythonSystem@@QAE_NXZ ENDP			; CPythonSystem::LoadConfig
_TEXT	ENDS
END
