; Listing generated by Microsoft (R) Optimizing Compiler Version 19.44.35219.0 

	TITLE	c:\anka2project\anka2project\source\binary\vs_files\userinterface\release\pythonapplicationprocedure.obj
	.686P
	.XMM
	include listing.inc
	.model	flat

INCLUDELIB OLDNAMES

EXTRN	?WindowProcedure@CMSApplication@@MAEJPAUHWND__@@IIJ@Z:PROC ; CMSApplication::WindowProcedure
EXTRN	_WebBrowser_IsVisible:PROC
EXTRN	?ResizeBackBuffer@CGraphicDevice@@QAE_NII@Z:PROC ; CGraphicDevice::ResizeBackBuffer
EXTRN	?RunMouseMiddleButtonDown@CWindowManager@UI@@QAEXJJ@Z:PROC ; UI::CWindowManager::RunMouseMiddleButtonDown
EXTRN	?RunMouseMiddleButtonUp@CWindowManager@UI@@QAEXJJ@Z:PROC ; UI::CWindowManager::RunMouseMiddleButtonUp
EXTRN	__imp__GetCapture@0:PROC
EXTRN	?WMNotify@CIME@@QAEJPAUHWND__@@IIJ@Z:PROC	; CIME::WMNotify
EXTRN	?WMChar@CIME@@QAEJPAUHWND__@@IIJ@Z:PROC		; CIME::WMChar
EXTRN	?WMComposition@CIME@@QAEJPAUHWND__@@IIJ@Z:PROC	; CIME::WMComposition
EXTRN	?WMEndComposition@CIME@@QAEJPAUHWND__@@IIJ@Z:PROC ; CIME::WMEndComposition
EXTRN	?WMInputLanguage@CIME@@QAEJPAUHWND__@@IIJ@Z:PROC ; CIME::WMInputLanguage
EXTRN	?WMStartComposition@CIME@@QAEJPAUHWND__@@IIJ@Z:PROC ; CIME::WMStartComposition
EXTRN	?RestoreVolume@CSoundManager@@QAEXXZ:PROC	; CSoundManager::RestoreVolume
EXTRN	?SaveVolume@CSoundManager@@QAEXXZ:PROC		; CSoundManager::SaveVolume
EXTRN	__imp__ShowWindow@8:PROC
EXTRN	__imp__ChangeDisplaySettingsA@8:PROC
EXTRN	__imp__ReleaseCapture@0:PROC
EXTRN	__imp__SetCapture@4:PROC
;	COMDAT ?s_yDownPosition@?1??WindowProcedure@CPythonApplication@@MAEJPAUHWND__@@IIJ@Z@4HA
_BSS	SEGMENT
?s_yDownPosition@?1??WindowProcedure@CPythonApplication@@MAEJPAUHWND__@@IIJ@Z@4HA DD 01H DUP (?) ; `CPythonApplication::WindowProcedure'::`2'::s_yDownPosition
_BSS	ENDS
;	COMDAT ?s_xDownPosition@?1??WindowProcedure@CPythonApplication@@MAEJPAUHWND__@@IIJ@Z@4HA
_BSS	SEGMENT
?s_xDownPosition@?1??WindowProcedure@CPythonApplication@@MAEJPAUHWND__@@IIJ@Z@4HA DD 01H DUP (?) ; `CPythonApplication::WindowProcedure'::`2'::s_xDownPosition
_BSS	ENDS
PUBLIC	?__MinimizeFullScreenWindow@CPythonApplication@@IAEXPAUHWND__@@KK@Z ; CPythonApplication::__MinimizeFullScreenWindow
PUBLIC	?__SetFullScreenWindow@CPythonApplication@@IAEXPAUHWND__@@KKK@Z ; CPythonApplication::__SetFullScreenWindow
PUBLIC	?SafeReleaseCapture@CPythonApplication@@QAEXXZ	; CPythonApplication::SafeReleaseCapture
PUBLIC	?SafeSetCapture@CPythonApplication@@QAEXXZ	; CPythonApplication::SafeSetCapture
PUBLIC	?WindowProcedure@CPythonApplication@@MAEJPAUHWND__@@IIJ@Z ; CPythonApplication::WindowProcedure
?vecDropSoundFileName@@3V?$array@U?$pair@KV?$basic_string@DU?$char_traits@D@std@@V?$allocator@D@2@@std@@@std@@$04@std@@B DB 08cH DUP (?) ; vecDropSoundFileName
?vecEffectList@@3V?$vector@V?$tuple@IPBDPBD_N@std@@V?$allocator@V?$tuple@IPBDPBD_N@std@@@2@@std@@B DB 0cH DUP (?) ; vecEffectList
?characterNameColors@@3V?$map@EV?$array@E$02@std@@U?$less@E@2@V?$allocator@U?$pair@$$CBEV?$array@E$02@std@@@std@@@2@@std@@B DQ 01H DUP (?) ; characterNameColors
?characterTitleColors@@3V?$map@EV?$array@E$02@std@@U?$less@E@2@V?$allocator@U?$pair@$$CBEV?$array@E$02@std@@@std@@@2@@std@@B DQ 01H DUP (?) ; characterTitleColors
?characterTitleSystemColors@@3V?$map@EV?$array@E$02@std@@U?$less@E@2@V?$allocator@U?$pair@$$CBEV?$array@E$02@std@@@std@@@2@@std@@B DQ 01H DUP (?) ; characterTitleSystemColors
?emotionIcons@@3V?$map@EPBDU?$less@E@std@@V?$allocator@U?$pair@$$CBEPBD@std@@@2@@std@@B DQ 01H DUP (?) ; emotionIcons
?skillIndexes@@3V?$map@EV?$map@EV?$vector@EV?$allocator@E@std@@@std@@U?$less@E@2@V?$allocator@U?$pair@$$CBEV?$vector@EV?$allocator@E@std@@@std@@@std@@@2@@std@@U?$less@E@2@V?$allocator@U?$pair@$$CBEV?$map@EV?$vector@EV?$allocator@E@std@@@std@@U?$less@E@2@V?$allocator@U?$pair@$$CBEV?$vector@EV?$allocator@E@std@@@std@@@std@@@2@@std@@@std@@@2@@std@@B DQ 01H DUP (?) ; skillIndexes
?guildSkills@@3V?$map@V?$basic_string@DU?$char_traits@D@std@@V?$allocator@D@2@@std@@V?$vector@EV?$allocator@E@std@@@2@U?$less@V?$basic_string@DU?$char_traits@D@std@@V?$allocator@D@2@@std@@@2@V?$allocator@U?$pair@$$CBV?$basic_string@DU?$char_traits@D@std@@V?$allocator@D@2@@std@@V?$vector@EV?$allocator@E@std@@@2@@std@@@2@@std@@B DQ 01H DUP (?) ; guildSkills
?gs_nMouseCaptureRef@@3HA DD 01H DUP (?)		; gs_nMouseCaptureRef
_BSS	ENDS
;	COMDAT xdata$x
xdata$x	SEGMENT
__ehfuncinfo$??__EvecUseSoundFileName@@YAXXZ DQ 00000000619930522r ; 1.2944e-313
	DD	FLAT:__unwindtable$??__EvecUseSoundFileName@@YAXXZ
	DQ	00000000000000000r		; 0
	DQ	00000000000000000r		; 0
	DQ	00000000100000000r		; 2.122e-314
__unwindtable$??__EvecUseSoundFileName@@YAXXZ DD 0ffffffffH
	DD	FLAT:__unwindfunclet$??__EvecUseSoundFileName@@YAXXZ$0
	DD	00H
	DD	FLAT:__unwindfunclet$??__EvecUseSoundFileName@@YAXXZ$1
	DD	01H
	DD	FLAT:__unwindfunclet$??__EvecUseSoundFileName@@YAXXZ$2
	DD	02H
	DD	FLAT:__unwindfunclet$??__EvecUseSoundFileName@@YAXXZ$3
	DD	03H
	DD	FLAT:__unwindfunclet$??__EvecUseSoundFileName@@YAXXZ$4
	DD	04H
	DD	FLAT:__unwindfunclet$??__EvecUseSoundFileName@@YAXXZ$5
xdata$x	ENDS
;	COMDAT xdata$x
xdata$x	SEGMENT
__ehfuncinfo$??__FvecUseSoundFileName@@YAXXZ DQ 00000000119930522r ; 2.33398e-314
	DD	FLAT:__unwindtable$??__FvecUseSoundFileName@@YAXXZ
	DQ	00000000000000000r		; 0
	DQ	00000000000000000r		; 0
	DQ	00000000100000000r		; 2.122e-314
__unwindtable$??__FvecUseSoundFileName@@YAXXZ DD 0ffffffffH
	DD	FLAT:___std_terminate
xdata$x	ENDS
;	COMDAT xdata$x
xdata$x	SEGMENT
__ehfuncinfo$??__EvecDropSoundFileName@@YAXXZ DQ 00000000419930522r ; 8.69997e-314
	DD	FLAT:__unwindtable$??__EvecDropSoundFileName@@YAXXZ
	DQ	00000000000000000r		; 0
	DQ	00000000000000000r		; 0
	DQ	00000000100000000r		; 2.122e-314
__unwindtable$??__EvecDropSoundFileName@@YAXXZ DD 0ffffffffH
	DD	FLAT:__unwindfunclet$??__EvecDropSoundFileName@@YAXXZ$0
	DD	00H
	DD	FLAT:__unwindfunclet$??__EvecDropSoundFileName@@YAXXZ$1
	DD	01H
	DD	FLAT:__unwindfunclet$??__EvecDropSoundFileName@@YAXXZ$2
	DD	02H
	DD	FLAT:__unwindfunclet$??__EvecDropSoundFileName@@YAXXZ$3
xdata$x	ENDS
;	COMDAT xdata$x
xdata$x	SEGMENT
__ehfuncinfo$??__FvecDropSoundFileName@@YAXXZ DQ 00000000119930522r ; 2.33398e-314
	DD	FLAT:__unwindtable$??__FvecDropSoundFileName@@YAXXZ
	DQ	00000000000000000r		; 0
	DQ	00000000000000000r		; 0
	DQ	00000000100000000r		; 2.122e-314
__unwindtable$??__FvecDropSoundFileName@@YAXXZ DD 0ffffffffH
	DD	FLAT:___std_terminate
xdata$x	ENDS
;	COMDAT xdata$x
xdata$x	SEGMENT
__ehfuncinfo$??__EskillIndexes@@YAXXZ DQ 00000002819930522r ; 8.50918e-313
	DD	FLAT:__unwindtable$??__EskillIndexes@@YAXXZ
	DQ	00000000000000000r		; 0
	DQ	00000000000000000r		; 0
	DQ	00000000100000000r		; 2.122e-314
	ORG $+4
__unwindtable$??__EskillIndexes@@YAXXZ DD 0ffffffffH
	DD	FLAT:__unwindfunclet$??__EskillIndexes@@YAXXZ$0
	DD	00H
	DD	FLAT:__unwindfunclet$??__EskillIndexes@@YAXXZ$1
	DD	01H
	DD	FLAT:__unwindfunclet$??__EskillIndexes@@YAXXZ$2
	DD	00H
	DD	FLAT:__unwindfunclet$??__EskillIndexes@@YAXXZ$2
	DD	03H
	DD	FLAT:__unwindfunclet$??__EskillIndexes@@YAXXZ$4
	DD	04H
	DD	FLAT:__unwindfunclet$??__EskillIndexes@@YAXXZ$5
	DD	05H
	DD	FLAT:__unwindfunclet$??__EskillIndexes@@YAXXZ$6
	DD	06H
	DD	FLAT:__unwindfunclet$??__EskillIndexes@@YAXXZ$7
	DD	07H
	DD	FLAT:__unwindfunclet$??__EskillIndexes@@YAXXZ$8
	DD	08H
	DD	FLAT:__unwindfunclet$??__EskillIndexes@@YAXXZ$9
	DD	07H
	DD	FLAT:__unwindfunclet$??__EskillIndexes@@YAXXZ$9
	DD	0aH
	DD	FLAT:__unwindfunclet$??__EskillIndexes@@YAXXZ$11
	DD	0bH
	DD	FLAT:__unwindfunclet$??__EskillIndexes@@YAXXZ$12
	DD	0cH
	DD	FLAT:__unwindfunclet$??__EskillIndexes@@YAXXZ$13
	DD	0dH
	DD	FLAT:__unwindfunclet$??__EskillIndexes@@YAXXZ$14
	DD	0eH
	DD	FLAT:__unwindfunclet$??__EskillIndexes@@YAXXZ$15
	DD	0fH
	DD	FLAT:__unwindfunclet$??__EskillIndexes@@YAXXZ$16
	DD	0eH
	DD	FLAT:__unwindfunclet$??__EskillIndexes@@YAXXZ$16
	DD	011H
	DD	FLAT:__unwindfunclet$??__EskillIndexes@@YAXXZ$18
	DD	012H
	DD	FLAT:__unwindfunclet$??__EskillIndexes@@YAXXZ$19
	DD	013H
	DD	FLAT:__unwindfunclet$??__EskillIndexes@@YAXXZ$20
	DD	014H
	DD	FLAT:__unwindfunclet$??__EskillIndexes@@YAXXZ$21
	DD	015H
	DD	FLAT:__unwindfunclet$??__EskillIndexes@@YAXXZ$22
	DD	016H
	DD	FLAT:__unwindfunclet$??__EskillIndexes@@YAXXZ$23
	DD	015H
	DD	FLAT:__unwindfunclet$??__EskillIndexes@@YAXXZ$23
	DD	018H
	DD	FLAT:__unwindfunclet$??__EskillIndexes@@YAXXZ$25
	DD	019H
	DD	FLAT:__unwindfunclet$??__EskillIndexes@@YAXXZ$26
	DD	05H
	DD	FLAT:__unwindfunclet$??__EskillIndexes@@YAXXZ$7
	DD	01bH
	DD	FLAT:__unwindfunclet$??__EskillIndexes@@YAXXZ$9
	DD	01cH
	DD	FLAT:__unwindfunclet$??__EskillIndexes@@YAXXZ$11
	DD	01dH
	DD	FLAT:__unwindfunclet$??__EskillIndexes@@YAXXZ$12
	DD	01eH
	DD	FLAT:__unwindfunclet$??__EskillIndexes@@YAXXZ$14
	DD	01fH
	DD	FLAT:__unwindfunclet$??__EskillIndexes@@YAXXZ$16
	DD	020H
	DD	FLAT:__unwindfunclet$??__EskillIndexes@@YAXXZ$18
	DD	021H
	DD	FLAT:__unwindfunclet$??__EskillIndexes@@YAXXZ$19
	DD	022H
	DD	FLAT:__unwindfunclet$??__EskillIndexes@@YAXXZ$21
	DD	023H
	DD	FLAT:__unwindfunclet$??__EskillIndexes@@YAXXZ$23
	DD	024H
	DD	FLAT:__unwindfunclet$??__EskillIndexes@@YAXXZ$25
	DD	025H
	DD	FLAT:__unwindfunclet$??__EskillIndexes@@YAXXZ$26
	DD	026H
	DD	FLAT:__unwindfunclet$??__EskillIndexes@@YAXXZ$28
xdata$x	ENDS
;	COMDAT xdata$x
xdata$x	SEGMENT
__ehfuncinfo$??__EguildSkills@@YAXXZ DQ 00000000a19930522r ; 2.14319e-313
	DD	FLAT:__unwindtable$??__EguildSkills@@YAXXZ
	DQ	00000000000000000r		; 0
	DQ	00000000000000000r		; 0
	DQ	00000000100000000r		; 2.122e-314
	ORG $+4
__unwindtable$??__EguildSkills@@YAXXZ DD 0ffffffffH
	DD	FLAT:__unwindfunclet$??__EguildSkills@@YAXXZ$0
	DD	00H
	DD	FLAT:__unwindfunclet$??__EguildSkills@@YAXXZ$1
	DD	01H
	DD	FLAT:__unwindfunclet$??__EguildSkills@@YAXXZ$10
	DD	01H
	DD	FLAT:__unwindfunclet$??__EguildSkills@@YAXXZ$2
	DD	03H
	DD	FLAT:__unwindfunclet$??__EguildSkills@@YAXXZ$3
	DD	04H
	DD	FLAT:__unwindfunclet$??__EguildSkills@@YAXXZ$4
	DD	05H
	DD	FLAT:__unwindfunclet$??__EguildSkills@@YAXXZ$16
	DD	01H
	DD	FLAT:__unwindfunclet$??__EguildSkills@@YAXXZ$3
	DD	07H
	DD	FLAT:__unwindfunclet$??__EguildSkills@@YAXXZ$4
	DD	08H
	DD	FLAT:__unwindfunclet$??__EguildSkills@@YAXXZ$6
	ORG $+4
?vecUseSoundFileName@@3V?$array@U?$pair@KV?$basic_string@DU?$char_traits@D@std@@V?$allocator@D@2@@std@@@std@@$06@std@@B DQ 00000000000000001r ; 4.94066e-324 ; vecUseSoundFileName
	DQ	00000000000000000r		; 0
	DQ	00000000000000000r		; 0
	DQ	00000000000000000r		; 0
	DQ	00000000000000000r		; 0
	DQ	00000000000000000r		; 0
	DQ	00000000000000000r		; 0
	DQ	00000000000000000r		; 0
	DQ	00000000000000000r		; 0
	DQ	00000000000000000r		; 0
	DQ	00000000000000000r		; 0
	DQ	00000000000000000r		; 0
	DQ	00000000000000000r		; 0
	DQ	00000000000000000r		; 0
	DQ	00000000000000000r		; 0
	DQ	00000000000000000r		; 0
	DQ	00000000000000000r		; 0
	DQ	00000000000000000r		; 0
	DQ	00000000000000000r		; 0
	DQ	00000000000000000r		; 0
	DQ	00000000000000000r		; 0
	DQ	00000000000000000r		; 0
	DQ	00000000000000000r		; 0
	DQ	00000000000000000r		; 0
	DD	00H
?vecUseSoundFileName$initializer$@@3P6AXXZA DD FLAT:??__EvecUseSoundFileName@@YAXXZ ; vecUseSoundFileName$initializer$
?vecDropSoundFileName$initializer$@@3P6AXXZA DD FLAT:??__EvecDropSoundFileName@@YAXXZ ; vecDropSoundFileName$initializer$
?vecEffectList$initializer$@@3P6AXXZA DD FLAT:??__EvecEffectList@@YAXXZ ; vecEffectList$initializer$
?characterNameColors$initializer$@@3P6AXXZA DD FLAT:??__EcharacterNameColors@@YAXXZ ; characterNameColors$initializer$
?characterTitleColors$initializer$@@3P6AXXZA DD FLAT:??__EcharacterTitleColors@@YAXXZ ; characterTitleColors$initializer$
?characterTitleSystemColors$initializer$@@3P6AXXZA DD FLAT:??__EcharacterTitleSystemColors@@YAXXZ ; characterTitleSystemColors$initializer$
?emotionIcons$initializer$@@3P6AXXZA DD FLAT:??__EemotionIcons@@YAXXZ ; emotionIcons$initializer$
?skillIndexes$initializer$@@3P6AXXZA DD FLAT:??__EskillIndexes@@YAXXZ ; skillIndexes$initializer$
?guildSkills$initializer$@@3P6AXXZA DD FLAT:??__EguildSkills@@YAXXZ ; guildSkills$initializer$
; Function compile flags: /Ogtp
; File C:\Anka2Project\Anka2Project\Source\Binary\source\UserInterface\PythonApplicationProcedure.cpp
; File C:\Anka2Project\Anka2Project\Source\Binary\source\eterBase\Singleton.h
; File C:\Anka2Project\Anka2Project\Source\Binary\source\UserInterface\PythonApplicationProcedure.cpp
; File C:\Anka2Project\Anka2Project\Source\Binary\source\eterBase\Singleton.h
; File C:\Anka2Project\Anka2Project\Source\Binary\source\UserInterface\PythonApplicationProcedure.cpp
; File C:\Anka2Project\Anka2Project\Source\Binary\source\eterBase\Singleton.h
; File C:\Anka2Project\Anka2Project\Source\Binary\source\UserInterface\PythonApplicationProcedure.cpp
; File C:\Anka2Project\Anka2Project\Source\Binary\source\eterBase\Singleton.h
; File C:\Anka2Project\Anka2Project\Source\Binary\source\UserInterface\PythonApplicationProcedure.cpp
; File C:\Anka2Project\Anka2Project\Source\Binary\source\eterBase\Singleton.h
; File C:\Anka2Project\Anka2Project\Source\Binary\source\UserInterface\PythonApplicationProcedure.cpp
; File C:\Anka2Project\Anka2Project\Source\Binary\source\eterBase\Singleton.h
; File C:\Anka2Project\Anka2Project\Source\Binary\source\UserInterface\PythonApplicationProcedure.cpp
; File C:\Anka2Project\Anka2Project\Source\Binary\source\eterBase\Singleton.h
; File C:\Anka2Project\Anka2Project\Source\Binary\source\UserInterface\PythonApplicationProcedure.cpp
; File C:\Anka2Project\Anka2Project\Source\Binary\source\eterBase\Singleton.h
; File C:\Anka2Project\Anka2Project\Source\Binary\source\UserInterface\PythonApplicationProcedure.cpp
;	COMDAT ?WindowProcedure@CPythonApplication@@MAEJPAUHWND__@@IIJ@Z
_TEXT	SEGMENT
_hWnd$GSCopy$1$ = -24					; size = 4
_rcWnd$9 = -20						; size = 16
_rcWnd$10 = -20						; size = 16
__$ArrayPad$ = -4					; size = 4
_hWnd$ = 8						; size = 4
_uiMsg$ = 12						; size = 4
_wParam$ = 16						; size = 4
_lParam$ = 20						; size = 4
?WindowProcedure@CPythonApplication@@MAEJPAUHWND__@@IIJ@Z PROC ; CPythonApplication::WindowProcedure, COMDAT
; _this$ = ecx

; 50   : {

  00000	55		 push	 ebp
  00001	8b ec		 mov	 ebp, esp
  00003	83 ec 18	 sub	 esp, 24			; 00000018H
  00006	a1 00 00 00 00	 mov	 eax, DWORD PTR ___security_cookie
  0000b	33 c5		 xor	 eax, ebp
  0000d	89 45 fc	 mov	 DWORD PTR __$ArrayPad$[ebp], eax
  00010	53		 push	 ebx

; 51   : 	const int c_DoubleClickTime = 300;
; 52   : 	const int c_DoubleClickBox = 5;
; 53   : 	static int s_xDownPosition = 0;
; 54   : 	static int s_yDownPosition = 0;	
; 55   : 
; 56   : 	switch (uiMsg)

  00011	8b 5d 10	 mov	 ebx, DWORD PTR _wParam$[ebp]
  00014	56		 push	 esi
  00015	8b 75 0c	 mov	 esi, DWORD PTR _uiMsg$[ebp]
  00018	57		 push	 edi
  00019	8b f9		 mov	 edi, ecx
  0001b	8b 4d 08	 mov	 ecx, DWORD PTR _hWnd$[ebp]
  0001e	89 4d e8	 mov	 DWORD PTR _hWnd$GSCopy$1$[ebp], ecx
  00021	83 fe 1c	 cmp	 esi, 28			; 0000001cH
  00024	0f 87 00 01 00
	00		 ja	 $LN58@WindowProc
  0002a	74 74		 je	 SHORT $LN10@WindowProc
  0002c	8b c6		 mov	 eax, esi
  0002e	83 e8 02	 sub	 eax, 2
  00031	0f 84 ae 05 00
	00		 je	 $LN33@WindowProc
  00037	83 e8 03	 sub	 eax, 3
  0003a	74 23		 je	 SHORT $LN37@WindowProc
  0003c	83 e8 0b	 sub	 eax, 11			; 0000000bH
  0003f	0f 85 f0 05 00
	00		 jne	 $LN91@WindowProc

; 259  : 					return 0;
; 260  : 				}
; 261  : 			}
; 262  : 			break;
; 263  : 
; 264  : 		case WM_CLOSE:
; 265  : #ifdef _DEBUG
; 266  : 			PostQuitMessage(0);
; 267  : #else	
; 268  : 			RunPressExitKey();

  00045	e8 00 00 00 00	 call	 ?RunPressExitKey@CPythonApplication@@QAEXXZ ; CPythonApplication::RunPressExitKey
  0004a	5f		 pop	 edi

; 279  : }

  0004b	5e		 pop	 esi
  0004c	33 c0		 xor	 eax, eax
  0004e	5b		 pop	 ebx
  0004f	8b 4d fc	 mov	 ecx, DWORD PTR __$ArrayPad$[ebp]
  00052	33 cd		 xor	 ecx, ebp
  00054	e8 00 00 00 00	 call	 @__security_check_cookie@4
  00059	8b e5		 mov	 esp, ebp
  0005b	5d		 pop	 ebp
  0005c	c2 10 00	 ret	 16			; 00000010H
$LN37@WindowProc:

; 187  : 
; 188  : 		case WM_SIZE:
; 189  : 			switch (wParam)

  0005f	8b c3		 mov	 eax, ebx
  00061	83 e8 00	 sub	 eax, 0
  00064	74 05		 je	 SHORT $LN38@WindowProc
  00066	83 e8 02	 sub	 eax, 2
  00069	75 24		 jne	 SHORT $LN4@WindowProc
$LN38@WindowProc:

; 190  : 			{
; 191  : 				case SIZE_RESTORED:
; 192  : 				case SIZE_MAXIMIZED:
; 193  : 					{
; 194  : 						RECT rcWnd; 
; 195  : 						GetClientRect(&rcWnd); 

  0006b	8d 45 ec	 lea	 eax, DWORD PTR _rcWnd$9[ebp]
  0006e	8b cf		 mov	 ecx, edi
  00070	50		 push	 eax
  00071	e8 00 00 00 00	 call	 ?GetClientRect@CMSWindow@@QAEXPAUtagRECT@@@Z ; CMSWindow::GetClientRect

; 196  : 				
; 197  : 						UINT uWidth=rcWnd.right-rcWnd.left; 
; 198  : 						UINT uHeight=rcWnd.bottom-rcWnd.left; 

  00076	8b 45 f8	 mov	 eax, DWORD PTR _rcWnd$9[ebp+12]

; 199  : 						m_grpDevice.ResizeBackBuffer(uWidth, uHeight);				

  00079	8d 8f b4 aa 03
	00		 lea	 ecx, DWORD PTR [edi+240308]
  0007f	2b 45 ec	 sub	 eax, DWORD PTR _rcWnd$9[ebp]
  00082	50		 push	 eax
  00083	8b 45 f4	 mov	 eax, DWORD PTR _rcWnd$9[ebp+8]
  00086	2b 45 ec	 sub	 eax, DWORD PTR _rcWnd$9[ebp]
  00089	50		 push	 eax
  0008a	e8 00 00 00 00	 call	 ?ResizeBackBuffer@CGraphicDevice@@QAE_NII@Z ; CGraphicDevice::ResizeBackBuffer
$LN4@WindowProc:

; 200  : 					}
; 201  : 					break;
; 202  : 			}
; 203  : 
; 204  : 			if (wParam==SIZE_MINIMIZED)
; 205  : 				m_isMinimizedWnd=true;
; 206  : 			else
; 207  : 				m_isMinimizedWnd=false;
; 208  : 
; 209  : 			OnSizeChange(short(LOWORD(lParam)), short(HIWORD(lParam)));
; 210  : 
; 211  : 			break;

  0008f	83 fb 01	 cmp	 ebx, 1
  00092	0f 94 c0	 sete	 al
  00095	88 87 f0 d7 03
	00		 mov	 BYTE PTR [edi+251888], al
  0009b	e9 95 05 00 00	 jmp	 $LN91@WindowProc
$LN10@WindowProc:

; 57   : 	{
; 58   : 		case WM_ACTIVATEAPP:
; 59   : 			{
; 60   : 				m_isActivateWnd = (wParam == WA_ACTIVE) || (wParam == WA_CLICKACTIVE);

  000a0	83 fb 01	 cmp	 ebx, 1
  000a3	74 43		 je	 SHORT $LN56@WindowProc
  000a5	83 fb 02	 cmp	 ebx, 2
  000a8	74 3e		 je	 SHORT $LN56@WindowProc
  000aa	8d 8f f0 00 00
	00		 lea	 ecx, DWORD PTR [edi+240]
  000b0	c6 87 f1 d7 03
	00 00		 mov	 BYTE PTR [edi+251889], 0

; 71   : 				else
; 72   : 				{
; 73   : 					m_SoundManager.SaveVolume();

  000b7	e8 00 00 00 00	 call	 ?SaveVolume@CSoundManager@@QAEXXZ ; CSoundManager::SaveVolume

; 74   : 
; 75   : 					if (m_isWindowFullScreenEnable)

  000bc	83 bf f4 d7 03
	00 00		 cmp	 DWORD PTR [edi+251892], 0
  000c3	74 14		 je	 SHORT $LN14@WindowProc

; 76   : 					{
; 77   : 						__MinimizeFullScreenWindow(hWnd, m_dwWidth, m_dwHeight);

  000c5	ff b7 c8 d6 03
	00		 push	 DWORD PTR [edi+251592]
  000cb	ff b7 c4 d6 03
	00		 push	 DWORD PTR [edi+251588]
  000d1	ff 75 e8	 push	 DWORD PTR _hWnd$GSCopy$1$[ebp]
  000d4	e8 00 00 00 00	 call	 ?__MinimizeFullScreenWindow@CPythonApplication@@IAEXPAUHWND__@@KK@Z ; CPythonApplication::__MinimizeFullScreenWindow
$LN14@WindowProc:

; 78   : 					}
; 79   : 
; 80   : 					OnMouseMiddleButtonUp(0, 0);

  000d9	83 ec 08	 sub	 esp, 8
  000dc	8b cf		 mov	 ecx, edi
  000de	e8 00 00 00 00	 call	 ?OnMouseMiddleButtonUp@CPythonApplication@@IAEXHH@Z ; CPythonApplication::OnMouseMiddleButtonUp

; 81   : 				}
; 82   : 			}
; 83   : 			break;

  000e3	e9 4d 05 00 00	 jmp	 $LN91@WindowProc
$LN56@WindowProc:

; 57   : 	{
; 58   : 		case WM_ACTIVATEAPP:
; 59   : 			{
; 60   : 				m_isActivateWnd = (wParam == WA_ACTIVE) || (wParam == WA_CLICKACTIVE);

  000e8	8d 8f f0 00 00
	00		 lea	 ecx, DWORD PTR [edi+240]
  000ee	c6 87 f1 d7 03
	00 01		 mov	 BYTE PTR [edi+251889], 1

; 61   : 
; 62   : 				if (m_isActivateWnd)
; 63   : 				{
; 64   : 					m_SoundManager.RestoreVolume();

  000f5	e8 00 00 00 00	 call	 ?RestoreVolume@CSoundManager@@QAEXXZ ; CSoundManager::RestoreVolume

; 65   : 
; 66   : 					if (m_isWindowFullScreenEnable)

  000fa	83 bf f4 d7 03
	00 00		 cmp	 DWORD PTR [edi+251892], 0
  00101	0f 84 2e 05 00
	00		 je	 $LN91@WindowProc

; 67   : 					{
; 68   : 						__SetFullScreenWindow(hWnd, m_dwWidth, m_dwHeight, m_pySystem.GetBPP());

  00107	8d 8f d0 aa 03
	00		 lea	 ecx, DWORD PTR [edi+240336]
  0010d	e8 00 00 00 00	 call	 ?GetBPP@CPythonSystem@@QAEKXZ ; CPythonSystem::GetBPP
  00112	50		 push	 eax
  00113	ff b7 c8 d6 03
	00		 push	 DWORD PTR [edi+251592]
  00119	ff b7 c4 d6 03
	00		 push	 DWORD PTR [edi+251588]
  0011f	51		 push	 ecx
  00120	e8 00 00 00 00	 call	 ?__SetFullScreenWindow@CPythonApplication@@IAEXPAUHWND__@@KKK@Z ; CPythonApplication::__SetFullScreenWindow

; 69   : 					}
; 70   : 				}

  00125	e9 0b 05 00 00	 jmp	 $LN91@WindowProc
$LN58@WindowProc:

; 51   : 	const int c_DoubleClickTime = 300;
; 52   : 	const int c_DoubleClickBox = 5;
; 53   : 	static int s_xDownPosition = 0;
; 54   : 	static int s_yDownPosition = 0;	
; 55   : 
; 56   : 	switch (uiMsg)

  0012a	81 fe 0d 01 00
	00		 cmp	 esi, 269		; 0000010dH
  00130	0f 87 9b 01 00
	00		 ja	 $LN59@WindowProc
  00136	0f 84 4c 01 00
	00		 je	 $LN16@WindowProc
  0013c	8d 46 e0	 lea	 eax, DWORD PTR [esi-32]
  0013f	3d e5 00 00 00	 cmp	 eax, 229		; 000000e5H
  00144	0f 87 eb 04 00
	00		 ja	 $LN91@WindowProc
  0014a	0f b6 80 00 00
	00 00		 movzx	 eax, BYTE PTR $LN87@WindowProc[eax]
  00151	ff 24 85 00 00
	00 00		 jmp	 DWORD PTR $LN88@WindowProc[eax*4]
$LN15@WindowProc:
; File C:\Anka2Project\Anka2Project\Source\Binary\source\eterBase\Singleton.h

; 26   : 		assert(ms_singleton);

  00158	8b 0d 00 00 00
	00		 mov	 ecx, DWORD PTR ?ms_singleton@?$CSingleton@VCPythonIME@@@@0PAVCPythonIME@@A ; CSingleton<CPythonIME>::ms_singleton
  0015e	85 c9		 test	 ecx, ecx
  00160	75 1a		 jne	 SHORT $LN63@WindowProc
  00162	6a 1a		 push	 26			; 0000001aH
  00164	68 00 00 00 00	 push	 OFFSET ??_C@_1IO@CAJLEEOI@?$AAC?$AA?3?$AA?2?$AAA?$AAn?$AAk?$AAa?$AA2?$AAP?$AAr?$AAo?$AAj?$AAe?$AAc?$AAt@
  00169	68 00 00 00 00	 push	 OFFSET ??_C@_1BK@FMEHPMFE@?$AAm?$AAs?$AA_?$AAs?$AAi?$AAn?$AAg?$AAl?$AAe?$AAt?$AAo?$AAn@
  0016e	e8 00 00 00 00	 call	 __wassert
  00173	8b 0d 00 00 00
	00		 mov	 ecx, DWORD PTR ?ms_singleton@?$CSingleton@VCPythonIME@@@@0PAVCPythonIME@@A ; CSingleton<CPythonIME>::ms_singleton
  00179	83 c4 0c	 add	 esp, 12			; 0000000cH
$LN63@WindowProc:
; File C:\Anka2Project\Anka2Project\Source\Binary\source\UserInterface\PythonApplicationProcedure.cpp

; 86   : 			return CPythonIME::Instance().WMInputLanguage(hWnd, uiMsg, wParam, lParam);

  0017c	ff 75 14	 push	 DWORD PTR _lParam$[ebp]
  0017f	83 c1 04	 add	 ecx, 4
  00182	ff 75 10	 push	 DWORD PTR _wParam$[ebp]
  00185	56		 push	 esi
  00186	ff 75 e8	 push	 DWORD PTR _hWnd$GSCopy$1$[ebp]
  00189	e8 00 00 00 00	 call	 ?WMInputLanguage@CIME@@QAEJPAUHWND__@@IIJ@Z ; CIME::WMInputLanguage
  0018e	5f		 pop	 edi

; 279  : }

  0018f	5e		 pop	 esi
  00190	5b		 pop	 ebx
  00191	8b 4d fc	 mov	 ecx, DWORD PTR __$ArrayPad$[ebp]
  00194	33 cd		 xor	 ecx, ebp
  00196	e8 00 00 00 00	 call	 @__security_check_cookie@4
  0019b	8b e5		 mov	 esp, ebp
  0019d	5d		 pop	 ebp
  0019e	c2 10 00	 ret	 16			; 00000010H
$LN21@WindowProc:
; File C:\Anka2Project\Anka2Project\Source\Binary\source\eterBase\Singleton.h

; 26   : 		assert(ms_singleton);

  001a1	8b 0d 00 00 00
	00		 mov	 ecx, DWORD PTR ?ms_singleton@?$CSingleton@VCPythonIME@@@@0PAVCPythonIME@@A ; CSingleton<CPythonIME>::ms_singleton
  001a7	85 c9		 test	 ecx, ecx
  001a9	75 1a		 jne	 SHORT $LN78@WindowProc
  001ab	6a 1a		 push	 26			; 0000001aH
  001ad	68 00 00 00 00	 push	 OFFSET ??_C@_1IO@CAJLEEOI@?$AAC?$AA?3?$AA?2?$AAA?$AAn?$AAk?$AAa?$AA2?$AAP?$AAr?$AAo?$AAj?$AAe?$AAc?$AAt@
  001b2	68 00 00 00 00	 push	 OFFSET ??_C@_1BK@FMEHPMFE@?$AAm?$AAs?$AA_?$AAs?$AAi?$AAn?$AAg?$AAl?$AAe?$AAt?$AAo?$AAn@
  001b7	e8 00 00 00 00	 call	 __wassert
  001bc	8b 0d 00 00 00
	00		 mov	 ecx, DWORD PTR ?ms_singleton@?$CSingleton@VCPythonIME@@@@0PAVCPythonIME@@A ; CSingleton<CPythonIME>::ms_singleton
  001c2	83 c4 0c	 add	 esp, 12			; 0000000cH
$LN78@WindowProc:
; File C:\Anka2Project\Anka2Project\Source\Binary\source\UserInterface\PythonApplicationProcedure.cpp

; 110  : 			return CPythonIME::Instance().WMChar(hWnd, uiMsg, wParam, lParam);

  001c5	ff 75 14	 push	 DWORD PTR _lParam$[ebp]
  001c8	83 c1 04	 add	 ecx, 4
  001cb	ff 75 10	 push	 DWORD PTR _wParam$[ebp]
  001ce	56		 push	 esi
  001cf	ff 75 e8	 push	 DWORD PTR _hWnd$GSCopy$1$[ebp]
  001d2	e8 00 00 00 00	 call	 ?WMChar@CIME@@QAEJPAUHWND__@@IIJ@Z ; CIME::WMChar
  001d7	5f		 pop	 edi

; 279  : }

  001d8	5e		 pop	 esi
  001d9	5b		 pop	 ebx
  001da	8b 4d fc	 mov	 ecx, DWORD PTR __$ArrayPad$[ebp]
  001dd	33 cd		 xor	 ecx, ebp
  001df	e8 00 00 00 00	 call	 @__security_check_cookie@4
  001e4	8b e5		 mov	 esp, ebp
  001e6	5d		 pop	 ebp
  001e7	c2 10 00	 ret	 16			; 00000010H
$LN22@WindowProc:

; 111  : 			break;
; 112  : 
; 113  : 		case WM_KEYDOWN:
; 114  : 			OnIMEKeyDown(LOWORD(wParam));

  001ea	0f b7 c3	 movzx	 eax, bx
  001ed	50		 push	 eax
  001ee	e8 00 00 00 00	 call	 ?OnIMEKeyDown@CPythonApplication@@IAEXH@Z ; CPythonApplication::OnIMEKeyDown

; 115  : 			break;

  001f3	e9 3d 04 00 00	 jmp	 $LN91@WindowProc
$LN43@WindowProc:

; 221  : 				OnSizeChange(short(LOWORD(lParam)), short(HIWORD(lParam)));
; 222  : 			}
; 223  : 			break; 
; 224  : 
; 225  : 		case WM_SYSKEYDOWN:
; 226  : 			switch (LOWORD(wParam))

  001f8	66 83 fb 79	 cmp	 bx, 121			; 00000079H
  001fc	0f 85 33 04 00
	00		 jne	 $LN91@WindowProc

; 279  : }

  00202	5f		 pop	 edi
  00203	5e		 pop	 esi
  00204	b8 01 00 00 00	 mov	 eax, 1
  00209	5b		 pop	 ebx
  0020a	8b 4d fc	 mov	 ecx, DWORD PTR __$ArrayPad$[ebp]
  0020d	33 cd		 xor	 ecx, ebp
  0020f	e8 00 00 00 00	 call	 @__security_check_cookie@4
  00214	8b e5		 mov	 esp, ebp
  00216	5d		 pop	 ebp
  00217	c2 10 00	 ret	 16			; 00000010H
$LN45@WindowProc:

; 227  : 			{
; 228  : 				case VK_F10:
; 229  : #ifndef DISABLE_MENU_IF_KEY_F10
; 230  : 					return (LRESULT)1;
; 231  : #else
; 232  : 					break;
; 233  : #endif
; 234  : 			}
; 235  : 			break;
; 236  : 
; 237  : 		case WM_SYSKEYUP:
; 238  : 			switch(LOWORD(wParam))

  0021a	66 83 fb 12	 cmp	 bx, 18			; 00000012H
  0021e	0f 84 c1 03 00
	00		 je	 $LN33@WindowProc
  00224	e9 0c 04 00 00	 jmp	 $LN91@WindowProc
$LN48@WindowProc:

; 239  : 			{
; 240  : 				case 18:
; 241  : 					return FALSE;
; 242  : 					break;
; 243  : 				case VK_F10:
; 244  : 					break;
; 245  : 			}
; 246  : 			break;
; 247  : 
; 248  : 		case WM_SETCURSOR:
; 249  : 			if (IsActive())

  00229	8b cf		 mov	 ecx, edi
  0022b	e8 00 00 00 00	 call	 ?IsActive@CMSWindow@@QAE_NXZ ; CMSWindow::IsActive
  00230	84 c0		 test	 al, al
  00232	0f 84 fd 03 00
	00		 je	 $LN91@WindowProc

; 250  : 			{
; 251  : 				if (m_bCursorVisible && CURSOR_MODE_HARDWARE == m_iCursorMode)

  00238	83 bf c4 d7 03
	00 00		 cmp	 DWORD PTR [edi+251844], 0
  0023f	74 2a		 je	 SHORT $LN50@WindowProc
  00241	83 bf cc d7 03
	00 00		 cmp	 DWORD PTR [edi+251852], 0
  00248	75 21		 jne	 SHORT $LN50@WindowProc

; 252  : 				{
; 253  : 					SetCursor((HCURSOR) m_hCurrentCursor);

  0024a	ff b7 c0 d7 03
	00		 push	 DWORD PTR [edi+251840]
  00250	ff 15 00 00 00
	00		 call	 DWORD PTR __imp__SetCursor@4
  00256	5f		 pop	 edi

; 279  : }

  00257	5e		 pop	 esi
  00258	33 c0		 xor	 eax, eax
  0025a	5b		 pop	 ebx
  0025b	8b 4d fc	 mov	 ecx, DWORD PTR __$ArrayPad$[ebp]
  0025e	33 cd		 xor	 ecx, ebp
  00260	e8 00 00 00 00	 call	 @__security_check_cookie@4
  00265	8b e5		 mov	 esp, ebp
  00267	5d		 pop	 ebp
  00268	c2 10 00	 ret	 16			; 00000010H
$LN50@WindowProc:

; 254  : 					return 0;
; 255  : 				}
; 256  : 				else
; 257  : 				{
; 258  : 					SetCursor(nullptr);

  0026b	6a 00		 push	 0
  0026d	ff 15 00 00 00
	00		 call	 DWORD PTR __imp__SetCursor@4
  00273	5f		 pop	 edi

; 279  : }

  00274	5e		 pop	 esi
  00275	33 c0		 xor	 eax, eax
  00277	5b		 pop	 ebx
  00278	8b 4d fc	 mov	 ecx, DWORD PTR __$ArrayPad$[ebp]
  0027b	33 cd		 xor	 ecx, ebp
  0027d	e8 00 00 00 00	 call	 @__security_check_cookie@4
  00282	8b e5		 mov	 esp, ebp
  00284	5d		 pop	 ebp
  00285	c2 10 00	 ret	 16			; 00000010H
$LN16@WindowProc:
; File C:\Anka2Project\Anka2Project\Source\Binary\source\eterBase\Singleton.h

; 26   : 		assert(ms_singleton);

  00288	8b 0d 00 00 00
	00		 mov	 ecx, DWORD PTR ?ms_singleton@?$CSingleton@VCPythonIME@@@@0PAVCPythonIME@@A ; CSingleton<CPythonIME>::ms_singleton
  0028e	85 c9		 test	 ecx, ecx
  00290	75 1a		 jne	 SHORT $LN66@WindowProc
  00292	6a 1a		 push	 26			; 0000001aH
  00294	68 00 00 00 00	 push	 OFFSET ??_C@_1IO@CAJLEEOI@?$AAC?$AA?3?$AA?2?$AAA?$AAn?$AAk?$AAa?$AA2?$AAP?$AAr?$AAo?$AAj?$AAe?$AAc?$AAt@
  00299	68 00 00 00 00	 push	 OFFSET ??_C@_1BK@FMEHPMFE@?$AAm?$AAs?$AA_?$AAs?$AAi?$AAn?$AAg?$AAl?$AAe?$AAt?$AAo?$AAn@
  0029e	e8 00 00 00 00	 call	 __wassert
  002a3	8b 0d 00 00 00
	00		 mov	 ecx, DWORD PTR ?ms_singleton@?$CSingleton@VCPythonIME@@@@0PAVCPythonIME@@A ; CSingleton<CPythonIME>::ms_singleton
  002a9	83 c4 0c	 add	 esp, 12			; 0000000cH
$LN66@WindowProc:
; File C:\Anka2Project\Anka2Project\Source\Binary\source\UserInterface\PythonApplicationProcedure.cpp

; 90   : 			return CPythonIME::Instance().WMStartComposition(hWnd, uiMsg, wParam, lParam);

  002ac	ff 75 14	 push	 DWORD PTR _lParam$[ebp]
  002af	83 c1 04	 add	 ecx, 4
  002b2	ff 75 10	 push	 DWORD PTR _wParam$[ebp]
  002b5	56		 push	 esi
  002b6	ff 75 e8	 push	 DWORD PTR _hWnd$GSCopy$1$[ebp]
  002b9	e8 00 00 00 00	 call	 ?WMStartComposition@CIME@@QAEJPAUHWND__@@IIJ@Z ; CIME::WMStartComposition
  002be	5f		 pop	 edi

; 279  : }

  002bf	5e		 pop	 esi
  002c0	5b		 pop	 ebx
  002c1	8b 4d fc	 mov	 ecx, DWORD PTR __$ArrayPad$[ebp]
  002c4	33 cd		 xor	 ecx, ebp
  002c6	e8 00 00 00 00	 call	 @__security_check_cookie@4
  002cb	8b e5		 mov	 esp, ebp
  002cd	5d		 pop	 ebp
  002ce	c2 10 00	 ret	 16			; 00000010H
$LN59@WindowProc:

; 51   : 	const int c_DoubleClickTime = 300;
; 52   : 	const int c_DoubleClickBox = 5;
; 53   : 	static int s_xDownPosition = 0;
; 54   : 	static int s_yDownPosition = 0;	
; 55   : 
; 56   : 	switch (uiMsg)

  002d1	81 fe 01 02 00
	00		 cmp	 esi, 513		; 00000201H
  002d7	0f 87 53 01 00
	00		 ja	 $LN60@WindowProc
  002dd	0f 84 a4 00 00
	00		 je	 $LN23@WindowProc
  002e3	8b c6		 mov	 eax, esi
  002e5	2d 0e 01 00 00	 sub	 eax, 270		; 0000010eH
  002ea	74 52		 je	 SHORT $LN18@WindowProc
  002ec	83 e8 01	 sub	 eax, 1
  002ef	0f 85 40 03 00
	00		 jne	 $LN91@WindowProc
; File C:\Anka2Project\Anka2Project\Source\Binary\source\eterBase\Singleton.h

; 26   : 		assert(ms_singleton);

  002f5	8b 0d 00 00 00
	00		 mov	 ecx, DWORD PTR ?ms_singleton@?$CSingleton@VCPythonIME@@@@0PAVCPythonIME@@A ; CSingleton<CPythonIME>::ms_singleton
  002fb	85 c9		 test	 ecx, ecx
  002fd	75 1a		 jne	 SHORT $LN69@WindowProc
  002ff	6a 1a		 push	 26			; 0000001aH
  00301	68 00 00 00 00	 push	 OFFSET ??_C@_1IO@CAJLEEOI@?$AAC?$AA?3?$AA?2?$AAA?$AAn?$AAk?$AAa?$AA2?$AAP?$AAr?$AAo?$AAj?$AAe?$AAc?$AAt@
  00306	68 00 00 00 00	 push	 OFFSET ??_C@_1BK@FMEHPMFE@?$AAm?$AAs?$AA_?$AAs?$AAi?$AAn?$AAg?$AAl?$AAe?$AAt?$AAo?$AAn@
  0030b	e8 00 00 00 00	 call	 __wassert
  00310	8b 0d 00 00 00
	00		 mov	 ecx, DWORD PTR ?ms_singleton@?$CSingleton@VCPythonIME@@@@0PAVCPythonIME@@A ; CSingleton<CPythonIME>::ms_singleton
  00316	83 c4 0c	 add	 esp, 12			; 0000000cH
$LN69@WindowProc:
; File C:\Anka2Project\Anka2Project\Source\Binary\source\UserInterface\PythonApplicationProcedure.cpp

; 94   : 			return CPythonIME::Instance().WMComposition(hWnd, uiMsg, wParam, lParam);

  00319	ff 75 14	 push	 DWORD PTR _lParam$[ebp]
  0031c	83 c1 04	 add	 ecx, 4
  0031f	ff 75 10	 push	 DWORD PTR _wParam$[ebp]
  00322	56		 push	 esi
  00323	ff 75 e8	 push	 DWORD PTR _hWnd$GSCopy$1$[ebp]
  00326	e8 00 00 00 00	 call	 ?WMComposition@CIME@@QAEJPAUHWND__@@IIJ@Z ; CIME::WMComposition
  0032b	5f		 pop	 edi

; 279  : }

  0032c	5e		 pop	 esi
  0032d	5b		 pop	 ebx
  0032e	8b 4d fc	 mov	 ecx, DWORD PTR __$ArrayPad$[ebp]
  00331	33 cd		 xor	 ecx, ebp
  00333	e8 00 00 00 00	 call	 @__security_check_cookie@4
  00338	8b e5		 mov	 esp, ebp
  0033a	5d		 pop	 ebp
  0033b	c2 10 00	 ret	 16			; 00000010H
$LN18@WindowProc:
; File C:\Anka2Project\Anka2Project\Source\Binary\source\eterBase\Singleton.h

; 26   : 		assert(ms_singleton);

  0033e	8b 0d 00 00 00
	00		 mov	 ecx, DWORD PTR ?ms_singleton@?$CSingleton@VCPythonIME@@@@0PAVCPythonIME@@A ; CSingleton<CPythonIME>::ms_singleton
  00344	85 c9		 test	 ecx, ecx
  00346	75 1a		 jne	 SHORT $LN72@WindowProc
  00348	6a 1a		 push	 26			; 0000001aH
  0034a	68 00 00 00 00	 push	 OFFSET ??_C@_1IO@CAJLEEOI@?$AAC?$AA?3?$AA?2?$AAA?$AAn?$AAk?$AAa?$AA2?$AAP?$AAr?$AAo?$AAj?$AAe?$AAc?$AAt@
  0034f	68 00 00 00 00	 push	 OFFSET ??_C@_1BK@FMEHPMFE@?$AAm?$AAs?$AA_?$AAs?$AAi?$AAn?$AAg?$AAl?$AAe?$AAt?$AAo?$AAn@
  00354	e8 00 00 00 00	 call	 __wassert
  00359	8b 0d 00 00 00
	00		 mov	 ecx, DWORD PTR ?ms_singleton@?$CSingleton@VCPythonIME@@@@0PAVCPythonIME@@A ; CSingleton<CPythonIME>::ms_singleton
  0035f	83 c4 0c	 add	 esp, 12			; 0000000cH
$LN72@WindowProc:
; File C:\Anka2Project\Anka2Project\Source\Binary\source\UserInterface\PythonApplicationProcedure.cpp

; 98   : 			return CPythonIME::Instance().WMEndComposition(hWnd, uiMsg, wParam, lParam);

  00362	ff 75 14	 push	 DWORD PTR _lParam$[ebp]
  00365	83 c1 04	 add	 ecx, 4
  00368	ff 75 10	 push	 DWORD PTR _wParam$[ebp]
  0036b	56		 push	 esi
  0036c	ff 75 e8	 push	 DWORD PTR _hWnd$GSCopy$1$[ebp]
  0036f	e8 00 00 00 00	 call	 ?WMEndComposition@CIME@@QAEJPAUHWND__@@IIJ@Z ; CIME::WMEndComposition
  00374	5f		 pop	 edi

; 279  : }

  00375	5e		 pop	 esi
  00376	5b		 pop	 ebx
  00377	8b 4d fc	 mov	 ecx, DWORD PTR __$ArrayPad$[ebp]
  0037a	33 cd		 xor	 ecx, ebp
  0037c	e8 00 00 00 00	 call	 @__security_check_cookie@4
  00381	8b e5		 mov	 esp, ebp
  00383	5d		 pop	 ebp
  00384	c2 10 00	 ret	 16			; 00000010H
$LN23@WindowProc:

; 116  : 
; 117  : 		case WM_LBUTTONDOWN:
; 118  : 			SafeSetCapture();

  00387	8b cf		 mov	 ecx, edi
  00389	e8 00 00 00 00	 call	 ?SafeSetCapture@CPythonApplication@@QAEXXZ ; CPythonApplication::SafeSetCapture

; 119  : 
; 120  : 			if (ELTimer_GetMSec() - m_dwLButtonDownTime < c_DoubleClickTime &&
; 121  : 				abs(LOWORD(lParam) - s_xDownPosition) < c_DoubleClickBox &&

  0038e	8b b7 b0 d7 03
	00		 mov	 esi, DWORD PTR [edi+251824]
  00394	e8 00 00 00 00	 call	 ?ELTimer_GetMSec@@YAKXZ	; ELTimer_GetMSec
  00399	2b c6		 sub	 eax, esi
  0039b	3d 2c 01 00 00	 cmp	 eax, 300		; 0000012cH
  003a0	73 46		 jae	 SHORT $LN24@WindowProc
  003a2	8b 75 14	 mov	 esi, DWORD PTR _lParam$[ebp]
  003a5	0f b7 de	 movzx	 ebx, si
  003a8	8b c3		 mov	 eax, ebx
  003aa	2b 05 00 00 00
	00		 sub	 eax, DWORD PTR ?s_xDownPosition@?1??WindowProcedure@CPythonApplication@@MAEJPAUHWND__@@IIJ@Z@4HA
  003b0	99		 cdq
  003b1	33 c2		 xor	 eax, edx
  003b3	2b c2		 sub	 eax, edx
  003b5	83 f8 05	 cmp	 eax, 5
  003b8	7d 2e		 jge	 SHORT $LN24@WindowProc
  003ba	c1 ee 10	 shr	 esi, 16			; 00000010H
  003bd	8b c6		 mov	 eax, esi
  003bf	2b 05 00 00 00
	00		 sub	 eax, DWORD PTR ?s_yDownPosition@?1??WindowProcedure@CPythonApplication@@MAEJPAUHWND__@@IIJ@Z@4HA
  003c5	99		 cdq
  003c6	33 c2		 xor	 eax, edx
  003c8	2b c2		 sub	 eax, edx
  003ca	83 f8 05	 cmp	 eax, 5
  003cd	7d 19		 jge	 SHORT $LN24@WindowProc

; 122  : 				abs(HIWORD(lParam) - s_yDownPosition) < c_DoubleClickBox)
; 123  : 			{
; 124  : 				m_dwLButtonDownTime = 0;
; 125  : 
; 126  : 				OnMouseLeftButtonDoubleClick(short(LOWORD(lParam)), short(HIWORD(lParam)));

  003cf	0f bf c6	 movsx	 eax, si
  003d2	50		 push	 eax
  003d3	0f bf c3	 movsx	 eax, bx
  003d6	50		 push	 eax
  003d7	c7 87 b0 d7 03
	00 00 00 00 00	 mov	 DWORD PTR [edi+251824], 0
  003e1	e8 00 00 00 00	 call	 ?OnMouseLeftButtonDoubleClick@CPythonApplication@@IAEXHH@Z ; CPythonApplication::OnMouseLeftButtonDoubleClick

; 127  : 			}

  003e6	eb 23		 jmp	 SHORT $LN25@WindowProc
$LN24@WindowProc:

; 128  : 			else
; 129  : 			{
; 130  : 				m_dwLButtonDownTime = ELTimer_GetMSec();

  003e8	e8 00 00 00 00	 call	 ?ELTimer_GetMSec@@YAKXZ	; ELTimer_GetMSec
  003ed	89 87 b0 d7 03
	00		 mov	 DWORD PTR [edi+251824], eax

; 131  : 
; 132  : 				OnMouseLeftButtonDown(short(LOWORD(lParam)), short(HIWORD(lParam)));

  003f3	8b 45 14	 mov	 eax, DWORD PTR _lParam$[ebp]
  003f6	8b f0		 mov	 esi, eax
  003f8	c1 ee 10	 shr	 esi, 16			; 00000010H
  003fb	0f b7 d8	 movzx	 ebx, ax
  003fe	0f bf c6	 movsx	 eax, si
  00401	50		 push	 eax
  00402	0f bf c3	 movsx	 eax, bx
  00405	50		 push	 eax
  00406	e8 00 00 00 00	 call	 ?OnMouseLeftButtonDown@CPythonApplication@@IAEXHH@Z ; CPythonApplication::OnMouseLeftButtonDown
$LN25@WindowProc:

; 133  : 			}
; 134  : 
; 135  : 			s_xDownPosition = LOWORD(lParam);

  0040b	0f b7 c3	 movzx	 eax, bx
  0040e	a3 00 00 00 00	 mov	 DWORD PTR ?s_xDownPosition@?1??WindowProcedure@CPythonApplication@@MAEJPAUHWND__@@IIJ@Z@4HA, eax

; 136  : 			s_yDownPosition = HIWORD(lParam);

  00413	0f b7 c6	 movzx	 eax, si
  00416	5f		 pop	 edi

; 279  : }

  00417	5e		 pop	 esi
  00418	a3 00 00 00 00	 mov	 DWORD PTR ?s_yDownPosition@?1??WindowProcedure@CPythonApplication@@MAEJPAUHWND__@@IIJ@Z@4HA, eax
  0041d	33 c0		 xor	 eax, eax
  0041f	5b		 pop	 ebx
  00420	8b 4d fc	 mov	 ecx, DWORD PTR __$ArrayPad$[ebp]
  00423	33 cd		 xor	 ecx, ebp
  00425	e8 00 00 00 00	 call	 @__security_check_cookie@4
  0042a	8b e5		 mov	 esp, ebp
  0042c	5d		 pop	 ebp
  0042d	c2 10 00	 ret	 16			; 00000010H
$LN60@WindowProc:

; 51   : 	const int c_DoubleClickTime = 300;
; 52   : 	const int c_DoubleClickBox = 5;
; 53   : 	static int s_xDownPosition = 0;
; 54   : 	static int s_yDownPosition = 0;	
; 55   : 
; 56   : 	switch (uiMsg)

  00430	8d 86 fe fd ff
	ff		 lea	 eax, DWORD PTR [esi-514]
  00436	3d 80 00 00 00	 cmp	 eax, 128		; 00000080H
  0043b	0f 87 f4 01 00
	00		 ja	 $LN91@WindowProc
  00441	0f b6 80 00 00
	00 00		 movzx	 eax, BYTE PTR $LN89@WindowProc[eax]
  00448	ff 24 85 00 00
	00 00		 jmp	 DWORD PTR $LN90@WindowProc[eax*4]
$LN19@WindowProc:
; File C:\Anka2Project\Anka2Project\Source\Binary\source\eterBase\Singleton.h

; 26   : 		assert(ms_singleton);

  0044f	8b 0d 00 00 00
	00		 mov	 ecx, DWORD PTR ?ms_singleton@?$CSingleton@VCPythonIME@@@@0PAVCPythonIME@@A ; CSingleton<CPythonIME>::ms_singleton
  00455	85 c9		 test	 ecx, ecx
  00457	75 1a		 jne	 SHORT $LN75@WindowProc
  00459	6a 1a		 push	 26			; 0000001aH
  0045b	68 00 00 00 00	 push	 OFFSET ??_C@_1IO@CAJLEEOI@?$AAC?$AA?3?$AA?2?$AAA?$AAn?$AAk?$AAa?$AA2?$AAP?$AAr?$AAo?$AAj?$AAe?$AAc?$AAt@
  00460	68 00 00 00 00	 push	 OFFSET ??_C@_1BK@FMEHPMFE@?$AAm?$AAs?$AA_?$AAs?$AAi?$AAn?$AAg?$AAl?$AAe?$AAt?$AAo?$AAn@
  00465	e8 00 00 00 00	 call	 __wassert
  0046a	8b 0d 00 00 00
	00		 mov	 ecx, DWORD PTR ?ms_singleton@?$CSingleton@VCPythonIME@@@@0PAVCPythonIME@@A ; CSingleton<CPythonIME>::ms_singleton
  00470	83 c4 0c	 add	 esp, 12			; 0000000cH
$LN75@WindowProc:
; File C:\Anka2Project\Anka2Project\Source\Binary\source\UserInterface\PythonApplicationProcedure.cpp

; 102  : 			return CPythonIME::Instance().WMNotify(hWnd, uiMsg, wParam, lParam);

  00473	ff 75 14	 push	 DWORD PTR _lParam$[ebp]
  00476	83 c1 04	 add	 ecx, 4
  00479	ff 75 10	 push	 DWORD PTR _wParam$[ebp]
  0047c	56		 push	 esi
  0047d	ff 75 e8	 push	 DWORD PTR _hWnd$GSCopy$1$[ebp]
  00480	e8 00 00 00 00	 call	 ?WMNotify@CIME@@QAEJPAUHWND__@@IIJ@Z ; CIME::WMNotify
  00485	5f		 pop	 edi

; 279  : }

  00486	5e		 pop	 esi
  00487	5b		 pop	 ebx
  00488	8b 4d fc	 mov	 ecx, DWORD PTR __$ArrayPad$[ebp]
  0048b	33 cd		 xor	 ecx, ebp
  0048d	e8 00 00 00 00	 call	 @__security_check_cookie@4
  00492	8b e5		 mov	 esp, ebp
  00494	5d		 pop	 ebp
  00495	c2 10 00	 ret	 16			; 00000010H
$LN20@WindowProc:

; 103  : 			break;
; 104  : 
; 105  : 		case WM_IME_SETCONTEXT:
; 106  : 			lParam &= ~(ISC_SHOWUICOMPOSITIONWINDOW | ISC_SHOWUIALLCANDIDATEWINDOW);

  00498	81 65 14 f0 ff
	ff 7f		 and	 DWORD PTR _lParam$[ebp], 2147483632 ; 7ffffff0H

; 107  : 			break;

  0049f	e9 91 01 00 00	 jmp	 $LN91@WindowProc
$LN26@WindowProc:

; 137  : 			return 0;
; 138  : 
; 139  : 		case WM_LBUTTONUP:
; 140  : 			m_dwLButtonUpTime = ELTimer_GetMSec();

  004a4	e8 00 00 00 00	 call	 ?ELTimer_GetMSec@@YAKXZ	; ELTimer_GetMSec
  004a9	89 87 b4 d7 03
	00		 mov	 DWORD PTR [edi+251828], eax

; 141  : 
; 142  : 			if (hWnd == GetCapture())

  004af	ff 15 00 00 00
	00		 call	 DWORD PTR __imp__GetCapture@0
  004b5	39 45 e8	 cmp	 DWORD PTR _hWnd$GSCopy$1$[ebp], eax
  004b8	0f 85 27 01 00
	00		 jne	 $LN33@WindowProc

; 143  : 			{
; 144  : 				SafeReleaseCapture();

  004be	e8 00 00 00 00	 call	 ?SafeReleaseCapture@CPythonApplication@@QAEXXZ ; CPythonApplication::SafeReleaseCapture

; 145  : 				OnMouseLeftButtonUp(short(LOWORD(lParam)), short(HIWORD(lParam)));

  004c3	8b 45 14	 mov	 eax, DWORD PTR _lParam$[ebp]
  004c6	8b d0		 mov	 edx, eax
  004c8	c1 ea 10	 shr	 edx, 16			; 00000010H
  004cb	0f b7 c8	 movzx	 ecx, ax
  004ce	0f bf c2	 movsx	 eax, dx
  004d1	50		 push	 eax
  004d2	0f bf c1	 movsx	 eax, cx
  004d5	50		 push	 eax
  004d6	e8 00 00 00 00	 call	 ?OnMouseLeftButtonUp@CPythonApplication@@IAEXHH@Z ; CPythonApplication::OnMouseLeftButtonUp
  004db	5f		 pop	 edi

; 279  : }

  004dc	5e		 pop	 esi
  004dd	33 c0		 xor	 eax, eax
  004df	5b		 pop	 ebx
  004e0	8b 4d fc	 mov	 ecx, DWORD PTR __$ArrayPad$[ebp]
  004e3	33 cd		 xor	 ecx, ebp
  004e5	e8 00 00 00 00	 call	 @__security_check_cookie@4
  004ea	8b e5		 mov	 esp, ebp
  004ec	5d		 pop	 ebp
  004ed	c2 10 00	 ret	 16			; 00000010H
$LN28@WindowProc:

; 146  : 			}
; 147  : 			return 0;
; 148  : 
; 149  : 		case WM_MBUTTONDOWN:
; 150  : 			SafeSetCapture();

  004f0	8b cf		 mov	 ecx, edi
  004f2	e8 00 00 00 00	 call	 ?SafeSetCapture@CPythonApplication@@QAEXXZ ; CPythonApplication::SafeSetCapture
; File C:\Anka2Project\Anka2Project\Source\Binary\source\eterBase\Singleton.h

; 26   : 		assert(ms_singleton);

  004f7	8b 0d 00 00 00
	00		 mov	 ecx, DWORD PTR ?ms_singleton@?$CSingleton@VCWindowManager@UI@@@@0PAVCWindowManager@UI@@A ; CSingleton<UI::CWindowManager>::ms_singleton
  004fd	85 c9		 test	 ecx, ecx
  004ff	75 1a		 jne	 SHORT $LN81@WindowProc
  00501	6a 1a		 push	 26			; 0000001aH
  00503	68 00 00 00 00	 push	 OFFSET ??_C@_1IO@CAJLEEOI@?$AAC?$AA?3?$AA?2?$AAA?$AAn?$AAk?$AAa?$AA2?$AAP?$AAr?$AAo?$AAj?$AAe?$AAc?$AAt@
  00508	68 00 00 00 00	 push	 OFFSET ??_C@_1BK@FMEHPMFE@?$AAm?$AAs?$AA_?$AAs?$AAi?$AAn?$AAg?$AAl?$AAe?$AAt?$AAo?$AAn@
  0050d	e8 00 00 00 00	 call	 __wassert
  00512	8b 0d 00 00 00
	00		 mov	 ecx, DWORD PTR ?ms_singleton@?$CSingleton@VCWindowManager@UI@@@@0PAVCWindowManager@UI@@A ; CSingleton<UI::CWindowManager>::ms_singleton
  00518	83 c4 0c	 add	 esp, 12			; 0000000cH
$LN81@WindowProc:
; File C:\Anka2Project\Anka2Project\Source\Binary\source\UserInterface\PythonApplicationProcedure.cpp

; 152  : 			UI::CWindowManager::Instance().RunMouseMiddleButtonDown(short(LOWORD(lParam)), short(HIWORD(lParam)));

  0051b	8b 55 14	 mov	 edx, DWORD PTR _lParam$[ebp]
  0051e	8b c2		 mov	 eax, edx
  00520	c1 e8 10	 shr	 eax, 16			; 00000010H
  00523	98		 cwde
  00524	0f b7 d2	 movzx	 edx, dx
  00527	50		 push	 eax
  00528	0f bf c2	 movsx	 eax, dx
  0052b	50		 push	 eax
  0052c	e8 00 00 00 00	 call	 ?RunMouseMiddleButtonDown@CWindowManager@UI@@QAEXJJ@Z ; UI::CWindowManager::RunMouseMiddleButtonDown

; 153  : 			break;

  00531	e9 ff 00 00 00	 jmp	 $LN91@WindowProc
$LN29@WindowProc:

; 154  : 
; 155  : 		case WM_MBUTTONUP:
; 156  : 			if (GetCapture() == hWnd)

  00536	ff 15 00 00 00
	00		 call	 DWORD PTR __imp__GetCapture@0
  0053c	3b 45 e8	 cmp	 eax, DWORD PTR _hWnd$GSCopy$1$[ebp]
  0053f	0f 85 f0 00 00
	00		 jne	 $LN91@WindowProc

; 157  : 			{
; 158  : 				SafeReleaseCapture();

  00545	e8 00 00 00 00	 call	 ?SafeReleaseCapture@CPythonApplication@@QAEXXZ ; CPythonApplication::SafeReleaseCapture
; File C:\Anka2Project\Anka2Project\Source\Binary\source\eterBase\Singleton.h

; 26   : 		assert(ms_singleton);

  0054a	8b 0d 00 00 00
	00		 mov	 ecx, DWORD PTR ?ms_singleton@?$CSingleton@VCWindowManager@UI@@@@0PAVCWindowManager@UI@@A ; CSingleton<UI::CWindowManager>::ms_singleton
  00550	85 c9		 test	 ecx, ecx
  00552	75 1a		 jne	 SHORT $LN84@WindowProc
  00554	6a 1a		 push	 26			; 0000001aH
  00556	68 00 00 00 00	 push	 OFFSET ??_C@_1IO@CAJLEEOI@?$AAC?$AA?3?$AA?2?$AAA?$AAn?$AAk?$AAa?$AA2?$AAP?$AAr?$AAo?$AAj?$AAe?$AAc?$AAt@
  0055b	68 00 00 00 00	 push	 OFFSET ??_C@_1BK@FMEHPMFE@?$AAm?$AAs?$AA_?$AAs?$AAi?$AAn?$AAg?$AAl?$AAe?$AAt?$AAo?$AAn@
  00560	e8 00 00 00 00	 call	 __wassert
  00565	8b 0d 00 00 00
	00		 mov	 ecx, DWORD PTR ?ms_singleton@?$CSingleton@VCWindowManager@UI@@@@0PAVCWindowManager@UI@@A ; CSingleton<UI::CWindowManager>::ms_singleton
  0056b	83 c4 0c	 add	 esp, 12			; 0000000cH
$LN84@WindowProc:
; File C:\Anka2Project\Anka2Project\Source\Binary\source\UserInterface\PythonApplicationProcedure.cpp

; 160  : 				UI::CWindowManager::Instance().RunMouseMiddleButtonUp(short(LOWORD(lParam)), short(HIWORD(lParam)));

  0056e	8b 55 14	 mov	 edx, DWORD PTR _lParam$[ebp]
  00571	8b c2		 mov	 eax, edx
  00573	c1 e8 10	 shr	 eax, 16			; 00000010H
  00576	98		 cwde
  00577	0f b7 d2	 movzx	 edx, dx
  0057a	50		 push	 eax
  0057b	0f bf c2	 movsx	 eax, dx
  0057e	50		 push	 eax
  0057f	e8 00 00 00 00	 call	 ?RunMouseMiddleButtonUp@CWindowManager@UI@@QAEXJJ@Z ; UI::CWindowManager::RunMouseMiddleButtonUp

; 161  : 			}
; 162  : 			break;

  00584	e9 ac 00 00 00	 jmp	 $LN91@WindowProc
$LN31@WindowProc:

; 163  : 
; 164  : 		case WM_RBUTTONDOWN:
; 165  : 			SafeSetCapture();

  00589	8b cf		 mov	 ecx, edi
  0058b	e8 00 00 00 00	 call	 ?SafeSetCapture@CPythonApplication@@QAEXXZ ; CPythonApplication::SafeSetCapture

; 166  : 			OnMouseRightButtonDown(short(LOWORD(lParam)), short(HIWORD(lParam)));

  00590	8b 45 14	 mov	 eax, DWORD PTR _lParam$[ebp]
  00593	8b d0		 mov	 edx, eax
  00595	c1 ea 10	 shr	 edx, 16			; 00000010H
  00598	0f b7 c8	 movzx	 ecx, ax
  0059b	0f bf c2	 movsx	 eax, dx
  0059e	50		 push	 eax
  0059f	0f bf c1	 movsx	 eax, cx
  005a2	50		 push	 eax
  005a3	e8 00 00 00 00	 call	 ?OnMouseRightButtonDown@CPythonApplication@@IAEXHH@Z ; CPythonApplication::OnMouseRightButtonDown
  005a8	5f		 pop	 edi

; 279  : }

  005a9	5e		 pop	 esi
  005aa	33 c0		 xor	 eax, eax
  005ac	5b		 pop	 ebx
  005ad	8b 4d fc	 mov	 ecx, DWORD PTR __$ArrayPad$[ebp]
  005b0	33 cd		 xor	 ecx, ebp
  005b2	e8 00 00 00 00	 call	 @__security_check_cookie@4
  005b7	8b e5		 mov	 esp, ebp
  005b9	5d		 pop	 ebp
  005ba	c2 10 00	 ret	 16			; 00000010H
$LN32@WindowProc:

; 167  : 			return 0;
; 168  : 
; 169  : 		case WM_RBUTTONUP:
; 170  : 			if (hWnd == GetCapture()) 

  005bd	ff 15 00 00 00
	00		 call	 DWORD PTR __imp__GetCapture@0
  005c3	39 45 e8	 cmp	 DWORD PTR _hWnd$GSCopy$1$[ebp], eax
  005c6	75 1d		 jne	 SHORT $LN33@WindowProc

; 171  : 			{
; 172  : 				SafeReleaseCapture();

  005c8	e8 00 00 00 00	 call	 ?SafeReleaseCapture@CPythonApplication@@QAEXXZ ; CPythonApplication::SafeReleaseCapture

; 173  : 
; 174  : 				OnMouseRightButtonUp(short(LOWORD(lParam)), short(HIWORD(lParam)));

  005cd	8b 45 14	 mov	 eax, DWORD PTR _lParam$[ebp]
  005d0	8b d0		 mov	 edx, eax
  005d2	c1 ea 10	 shr	 edx, 16			; 00000010H
  005d5	0f b7 c8	 movzx	 ecx, ax
  005d8	0f bf c2	 movsx	 eax, dx
  005db	50		 push	 eax
  005dc	0f bf c1	 movsx	 eax, cx
  005df	50		 push	 eax
  005e0	e8 00 00 00 00	 call	 ?OnMouseRightButtonUp@CPythonApplication@@IAEXHH@Z ; CPythonApplication::OnMouseRightButtonUp
$LN33@WindowProc:

; 279  : }

  005e5	5f		 pop	 edi
  005e6	5e		 pop	 esi
  005e7	33 c0		 xor	 eax, eax
  005e9	5b		 pop	 ebx
  005ea	8b 4d fc	 mov	 ecx, DWORD PTR __$ArrayPad$[ebp]
  005ed	33 cd		 xor	 ecx, ebp
  005ef	e8 00 00 00 00	 call	 @__security_check_cookie@4
  005f4	8b e5		 mov	 esp, ebp
  005f6	5d		 pop	 ebp
  005f7	c2 10 00	 ret	 16			; 00000010H
$LN34@WindowProc:

; 175  : 			}
; 176  : 			return 0;
; 177  : 
; 178  : 		case 0x20a:
; 179  : 			if (WebBrowser_IsVisible())

  005fa	e8 00 00 00 00	 call	 _WebBrowser_IsVisible
  005ff	85 c0		 test	 eax, eax
  00601	75 32		 jne	 SHORT $LN91@WindowProc

; 180  : 			{
; 181  : 			}
; 182  : 			else
; 183  : 			{
; 184  : 				OnMouseWheel(short(HIWORD(wParam)));

  00603	8b c3		 mov	 eax, ebx
  00605	c1 e8 10	 shr	 eax, 16			; 00000010H
  00608	98		 cwde
  00609	50		 push	 eax
  0060a	e8 00 00 00 00	 call	 ?OnMouseWheel@CPythonApplication@@IAEXH@Z ; CPythonApplication::OnMouseWheel

; 185  : 			}
; 186  : 			break;

  0060f	eb 24		 jmp	 SHORT $LN91@WindowProc
$LN42@WindowProc:

; 212  : 
; 213  : 		case WM_EXITSIZEMOVE:
; 214  : 			{
; 215  : 				RECT rcWnd;
; 216  : 				GetClientRect(&rcWnd);

  00611	8d 45 ec	 lea	 eax, DWORD PTR _rcWnd$10[ebp]
  00614	8b cf		 mov	 ecx, edi
  00616	50		 push	 eax
  00617	e8 00 00 00 00	 call	 ?GetClientRect@CMSWindow@@QAEXPAUtagRECT@@@Z ; CMSWindow::GetClientRect

; 217  : 
; 218  : 				UINT uWidth=rcWnd.right-rcWnd.left;
; 219  : 				UINT uHeight=rcWnd.bottom-rcWnd.left;

  0061c	8b 45 f8	 mov	 eax, DWORD PTR _rcWnd$10[ebp+12]

; 220  : 				m_grpDevice.ResizeBackBuffer(uWidth, uHeight);

  0061f	8d 8f b4 aa 03
	00		 lea	 ecx, DWORD PTR [edi+240308]
  00625	2b 45 ec	 sub	 eax, DWORD PTR _rcWnd$10[ebp]
  00628	50		 push	 eax
  00629	8b 45 f4	 mov	 eax, DWORD PTR _rcWnd$10[ebp+8]
  0062c	2b 45 ec	 sub	 eax, DWORD PTR _rcWnd$10[ebp]
  0062f	50		 push	 eax
  00630	e8 00 00 00 00	 call	 ?ResizeBackBuffer@CGraphicDevice@@QAE_NII@Z ; CGraphicDevice::ResizeBackBuffer
$LN91@WindowProc:

; 269  : #endif
; 270  : 			return 0;
; 271  : 
; 272  : 		case WM_DESTROY:
; 273  : 			return 0;
; 274  : 		default:
; 275  : 			break;
; 276  : 	}
; 277  : 
; 278  : 	return CMSApplication::WindowProcedure(hWnd, uiMsg, wParam, lParam);

  00635	ff 75 14	 push	 DWORD PTR _lParam$[ebp]
  00638	8b cf		 mov	 ecx, edi
  0063a	53		 push	 ebx
  0063b	56		 push	 esi
  0063c	ff 75 e8	 push	 DWORD PTR _hWnd$GSCopy$1$[ebp]
  0063f	e8 00 00 00 00	 call	 ?WindowProcedure@CMSApplication@@MAEJPAUHWND__@@IIJ@Z ; CMSApplication::WindowProcedure

; 279  : }

  00644	8b 4d fc	 mov	 ecx, DWORD PTR __$ArrayPad$[ebp]
  00647	5f		 pop	 edi
  00648	5e		 pop	 esi
  00649	33 cd		 xor	 ecx, ebp
  0064b	5b		 pop	 ebx
  0064c	e8 00 00 00 00	 call	 @__security_check_cookie@4
  00651	8b e5		 mov	 esp, ebp
  00653	5d		 pop	 ebp
  00654	c2 10 00	 ret	 16			; 00000010H
  00657	90		 npad	 1
$LN88@WindowProc:
  00658	00 00 00 00	 DD	 $LN48@WindowProc
  0065c	00 00 00 00	 DD	 $LN15@WindowProc
  00660	00 00 00 00	 DD	 $LN22@WindowProc
  00664	00 00 00 00	 DD	 $LN21@WindowProc
  00668	00 00 00 00	 DD	 $LN43@WindowProc
  0066c	00 00 00 00	 DD	 $LN45@WindowProc
  00670	00 00 00 00	 DD	 $LN91@WindowProc
$LN87@WindowProc:
  00674	00		 DB	 0
  00675	06		 DB	 6
  00676	06		 DB	 6
  00677	06		 DB	 6
  00678	06		 DB	 6
  00679	06		 DB	 6
  0067a	06		 DB	 6
  0067b	06		 DB	 6
  0067c	06		 DB	 6
  0067d	06		 DB	 6
  0067e	06		 DB	 6
  0067f	06		 DB	 6
  00680	06		 DB	 6
  00681	06		 DB	 6
  00682	06		 DB	 6
  00683	06		 DB	 6
  00684	06		 DB	 6
  00685	06		 DB	 6
  00686	06		 DB	 6
  00687	06		 DB	 6
  00688	06		 DB	 6
  00689	06		 DB	 6
  0068a	06		 DB	 6
  0068b	06		 DB	 6
  0068c	06		 DB	 6
  0068d	06		 DB	 6
  0068e	06		 DB	 6
  0068f	06		 DB	 6
  00690	06		 DB	 6
  00691	06		 DB	 6
  00692	06		 DB	 6
  00693	06		 DB	 6
  00694	06		 DB	 6
  00695	06		 DB	 6
  00696	06		 DB	 6
  00697	06		 DB	 6
  00698	06		 DB	 6
  00699	06		 DB	 6
  0069a	06		 DB	 6
  0069b	06		 DB	 6
  0069c	06		 DB	 6
  0069d	06		 DB	 6
  0069e	06		 DB	 6
  0069f	06		 DB	 6
  006a0	06		 DB	 6
  006a1	06		 DB	 6
  006a2	06		 DB	 6
  006a3	06		 DB	 6
  006a4	06		 DB	 6
  006a5	01		 DB	 1
  006a6	06		 DB	 6
  006a7	06		 DB	 6
  006a8	06		 DB	 6
  006a9	06		 DB	 6
  006aa	06		 DB	 6
  006ab	06		 DB	 6
  006ac	06		 DB	 6
  006ad	06		 DB	 6
  006ae	06		 DB	 6
  006af	06		 DB	 6
  006b0	06		 DB	 6
  006b1	06		 DB	 6
  006b2	06		 DB	 6
  006b3	06		 DB	 6
  006b4	06		 DB	 6
  006b5	06		 DB	 6
  006b6	06		 DB	 6
  006b7	06		 DB	 6
  006b8	06		 DB	 6
  006b9	06		 DB	 6
  006ba	06		 DB	 6
  006bb	06		 DB	 6
  006bc	06		 DB	 6
  006bd	06		 DB	 6
  006be	06		 DB	 6
  006bf	06		 DB	 6
  006c0	06		 DB	 6
  006c1	06		 DB	 6
  006c2	06		 DB	 6
  006c3	06		 DB	 6
  006c4	06		 DB	 6
  006c5	06		 DB	 6
  006c6	06		 DB	 6
  006c7	06		 DB	 6
  006c8	06		 DB	 6
  006c9	06		 DB	 6
  006ca	06		 DB	 6
  006cb	06		 DB	 6
  006cc	06		 DB	 6
  006cd	06		 DB	 6
  006ce	06		 DB	 6
  006cf	06		 DB	 6
  006d0	06		 DB	 6
  006d1	06		 DB	 6
  006d2	06		 DB	 6
  006d3	06		 DB	 6
  006d4	06		 DB	 6
  006d5	06		 DB	 6
  006d6	06		 DB	 6
  006d7	06		 DB	 6
  006d8	06		 DB	 6
  006d9	06		 DB	 6
  006da	06		 DB	 6
  006db	06		 DB	 6
  006dc	06		 DB	 6
  006dd	06		 DB	 6
  006de	06		 DB	 6
  006df	06		 DB	 6
  006e0	06		 DB	 6
  006e1	06		 DB	 6
  006e2	06		 DB	 6
  006e3	06		 DB	 6
  006e4	06		 DB	 6
  006e5	06		 DB	 6
  006e6	06		 DB	 6
  006e7	06		 DB	 6
  006e8	06		 DB	 6
  006e9	06		 DB	 6
  006ea	06		 DB	 6
  006eb	06		 DB	 6
  006ec	06		 DB	 6
  006ed	06		 DB	 6
  006ee	06		 DB	 6
  006ef	06		 DB	 6
  006f0	06		 DB	 6
  006f1	06		 DB	 6
  006f2	06		 DB	 6
  006f3	06		 DB	 6
  006f4	06		 DB	 6
  006f5	06		 DB	 6
  006f6	06		 DB	 6
  006f7	06		 DB	 6
  006f8	06		 DB	 6
  006f9	06		 DB	 6
  006fa	06		 DB	 6
  006fb	06		 DB	 6
  006fc	06		 DB	 6
  006fd	06		 DB	 6
  006fe	06		 DB	 6
  006ff	06		 DB	 6
  00700	06		 DB	 6
  00701	06		 DB	 6
  00702	06		 DB	 6
  00703	06		 DB	 6
  00704	06		 DB	 6
  00705	06		 DB	 6
  00706	06		 DB	 6
  00707	06		 DB	 6
  00708	06		 DB	 6
  00709	06		 DB	 6
  0070a	06		 DB	 6
  0070b	06		 DB	 6
  0070c	06		 DB	 6
  0070d	06		 DB	 6
  0070e	06		 DB	 6
  0070f	06		 DB	 6
  00710	06		 DB	 6
  00711	06		 DB	 6
  00712	06		 DB	 6
  00713	06		 DB	 6
  00714	06		 DB	 6
  00715	06		 DB	 6
  00716	06		 DB	 6
  00717	06		 DB	 6
  00718	06		 DB	 6
  00719	06		 DB	 6
  0071a	06		 DB	 6
  0071b	06		 DB	 6
  0071c	06		 DB	 6
  0071d	06		 DB	 6
  0071e	06		 DB	 6
  0071f	06		 DB	 6
  00720	06		 DB	 6
  00721	06		 DB	 6
  00722	06		 DB	 6
  00723	06		 DB	 6
  00724	06		 DB	 6
  00725	06		 DB	 6
  00726	06		 DB	 6
  00727	06		 DB	 6
  00728	06		 DB	 6
  00729	06		 DB	 6
  0072a	06		 DB	 6
  0072b	06		 DB	 6
  0072c	06		 DB	 6
  0072d	06		 DB	 6
  0072e	06		 DB	 6
  0072f	06		 DB	 6
  00730	06		 DB	 6
  00731	06		 DB	 6
  00732	06		 DB	 6
  00733	06		 DB	 6
  00734	06		 DB	 6
  00735	06		 DB	 6
  00736	06		 DB	 6
  00737	06		 DB	 6
  00738	06		 DB	 6
  00739	06		 DB	 6
  0073a	06		 DB	 6
  0073b	06		 DB	 6
  0073c	06		 DB	 6
  0073d	06		 DB	 6
  0073e	06		 DB	 6
  0073f	06		 DB	 6
  00740	06		 DB	 6
  00741	06		 DB	 6
  00742	06		 DB	 6
  00743	06		 DB	 6
  00744	06		 DB	 6
  00745	06		 DB	 6
  00746	06		 DB	 6
  00747	06		 DB	 6
  00748	06		 DB	 6
  00749	06		 DB	 6
  0074a	06		 DB	 6
  0074b	06		 DB	 6
  0074c	06		 DB	 6
  0074d	06		 DB	 6
  0074e	06		 DB	 6
  0074f	06		 DB	 6
  00750	06		 DB	 6
  00751	06		 DB	 6
  00752	06		 DB	 6
  00753	06		 DB	 6
  00754	02		 DB	 2
  00755	06		 DB	 6
  00756	03		 DB	 3
  00757	06		 DB	 6
  00758	04		 DB	 4
  00759	05		 DB	 5
  0075a	66 90		 npad	 2
$LN90@WindowProc:
  0075c	00 00 00 00	 DD	 $LN26@WindowProc
  00760	00 00 00 00	 DD	 $LN31@WindowProc
  00764	00 00 00 00	 DD	 $LN32@WindowProc
  00768	00 00 00 00	 DD	 $LN28@WindowProc
  0076c	00 00 00 00	 DD	 $LN29@WindowProc
  00770	00 00 00 00	 DD	 $LN34@WindowProc
  00774	00 00 00 00	 DD	 $LN42@WindowProc
  00778	00 00 00 00	 DD	 $LN20@WindowProc
  0077c	00 00 00 00	 DD	 $LN19@WindowProc
  00780	00 00 00 00	 DD	 $LN91@WindowProc
$LN89@WindowProc:
  00784	00		 DB	 0
  00785	09		 DB	 9
  00786	01		 DB	 1
  00787	02		 DB	 2
  00788	09		 DB	 9
  00789	03		 DB	 3
  0078a	04		 DB	 4
  0078b	09		 DB	 9
  0078c	05		 DB	 5
  0078d	09		 DB	 9
  0078e	09		 DB	 9
  0078f	09		 DB	 9
  00790	09		 DB	 9
  00791	09		 DB	 9
  00792	09		 DB	 9
  00793	09		 DB	 9
  00794	09		 DB	 9
  00795	09		 DB	 9
  00796	09		 DB	 9
  00797	09		 DB	 9
  00798	09		 DB	 9
  00799	09		 DB	 9
  0079a	09		 DB	 9
  0079b	09		 DB	 9
  0079c	09		 DB	 9
  0079d	09		 DB	 9
  0079e	09		 DB	 9
  0079f	09		 DB	 9
  007a0	09		 DB	 9
  007a1	09		 DB	 9
  007a2	09		 DB	 9
  007a3	09		 DB	 9
  007a4	09		 DB	 9
  007a5	09		 DB	 9
  007a6	09		 DB	 9
  007a7	09		 DB	 9
  007a8	09		 DB	 9
  007a9	09		 DB	 9
  007aa	09		 DB	 9
  007ab	09		 DB	 9
  007ac	09		 DB	 9
  007ad	09		 DB	 9
  007ae	09		 DB	 9
  007af	09		 DB	 9
  007b0	09		 DB	 9
  007b1	09		 DB	 9
  007b2	09		 DB	 9
  007b3	09		 DB	 9
  007b4	06		 DB	 6
  007b5	09		 DB	 9
  007b6	09		 DB	 9
  007b7	09		 DB	 9
  007b8	09		 DB	 9
  007b9	09		 DB	 9
  007ba	09		 DB	 9
  007bb	09		 DB	 9
  007bc	09		 DB	 9
  007bd	09		 DB	 9
  007be	09		 DB	 9
  007bf	09		 DB	 9
  007c0	09		 DB	 9
  007c1	09		 DB	 9
  007c2	09		 DB	 9
  007c3	09		 DB	 9
  007c4	09		 DB	 9
  007c5	09		 DB	 9
  007c6	09		 DB	 9
  007c7	09		 DB	 9
  007c8	09		 DB	 9
  007c9	09		 DB	 9
  007ca	09		 DB	 9
  007cb	09		 DB	 9
  007cc	09		 DB	 9
  007cd	09		 DB	 9
  007ce	09		 DB	 9
  007cf	09		 DB	 9
  007d0	09		 DB	 9
  007d1	09		 DB	 9
  007d2	09		 DB	 9
  007d3	09		 DB	 9
  007d4	09		 DB	 9
  007d5	09		 DB	 9
  007d6	09		 DB	 9
  007d7	09		 DB	 9
  007d8	09		 DB	 9
  007d9	09		 DB	 9
  007da	09		 DB	 9
  007db	09		 DB	 9
  007dc	09		 DB	 9
  007dd	09		 DB	 9
  007de	09		 DB	 9
  007df	09		 DB	 9
  007e0	09		 DB	 9
  007e1	09		 DB	 9
  007e2	09		 DB	 9
  007e3	09		 DB	 9
  007e4	09		 DB	 9
  007e5	09		 DB	 9
  007e6	09		 DB	 9
  007e7	09		 DB	 9
  007e8	09		 DB	 9
  007e9	09		 DB	 9
  007ea	09		 DB	 9
  007eb	09		 DB	 9
  007ec	09		 DB	 9
  007ed	09		 DB	 9
  007ee	09		 DB	 9
  007ef	09		 DB	 9
  007f0	09		 DB	 9
  007f1	09		 DB	 9
  007f2	09		 DB	 9
  007f3	09		 DB	 9
  007f4	09		 DB	 9
  007f5	09		 DB	 9
  007f6	09		 DB	 9
  007f7	09		 DB	 9
  007f8	09		 DB	 9
  007f9	09		 DB	 9
  007fa	09		 DB	 9
  007fb	09		 DB	 9
  007fc	09		 DB	 9
  007fd	09		 DB	 9
  007fe	09		 DB	 9
  007ff	09		 DB	 9
  00800	09		 DB	 9
  00801	09		 DB	 9
  00802	09		 DB	 9
  00803	07		 DB	 7
  00804	08		 DB	 8
?WindowProcedure@CPythonApplication@@MAEJPAUHWND__@@IIJ@Z ENDP ; CPythonApplication::WindowProcedure
_TEXT	ENDS
; Function compile flags: /Ogtp
; File C:\Anka2Project\Anka2Project\Source\Binary\source\UserInterface\PythonApplicationProcedure.cpp
;	COMDAT ?SafeSetCapture@CPythonApplication@@QAEXXZ
_TEXT	SEGMENT
?SafeSetCapture@CPythonApplication@@QAEXXZ PROC		; CPythonApplication::SafeSetCapture, COMDAT
; _this$ = ecx

; 12   : 	SetCapture(m_hWnd);

  00000	ff 71 04	 push	 DWORD PTR [ecx+4]
  00003	ff 15 00 00 00
	00		 call	 DWORD PTR __imp__SetCapture@4

; 13   : 	gs_nMouseCaptureRef++;

  00009	ff 05 00 00 00
	00		 inc	 DWORD PTR ?gs_nMouseCaptureRef@@3HA

; 14   : }

  0000f	c3		 ret	 0
?SafeSetCapture@CPythonApplication@@QAEXXZ ENDP		; CPythonApplication::SafeSetCapture
_TEXT	ENDS
; Function compile flags: /Ogtp
; File C:\Anka2Project\Anka2Project\Source\Binary\source\UserInterface\PythonApplicationProcedure.cpp
;	COMDAT ?SafeReleaseCapture@CPythonApplication@@QAEXXZ
_TEXT	SEGMENT
tv128 = -4						; size = 4
?SafeReleaseCapture@CPythonApplication@@QAEXXZ PROC	; CPythonApplication::SafeReleaseCapture, COMDAT
; _this$dead$ = ecx

; 17   : {

  00000	55		 push	 ebp
  00001	8b ec		 mov	 ebp, esp
  00003	51		 push	 ecx

; 18   : 	gs_nMouseCaptureRef--;

  00004	a1 00 00 00 00	 mov	 eax, DWORD PTR ?gs_nMouseCaptureRef@@3HA
  00009	83 e8 01	 sub	 eax, 1
  0000c	a3 00 00 00 00	 mov	 DWORD PTR ?gs_nMouseCaptureRef@@3HA, eax

; 19   : 	if (gs_nMouseCaptureRef==0)

  00011	75 06		 jne	 SHORT $LN2@SafeReleas

; 20   : 		ReleaseCapture();

  00013	ff 15 00 00 00
	00		 call	 DWORD PTR __imp__ReleaseCapture@0
$LN2@SafeReleas:

; 21   : }

  00019	8b e5		 mov	 esp, ebp
  0001b	5d		 pop	 ebp
  0001c	c3		 ret	 0
?SafeReleaseCapture@CPythonApplication@@QAEXXZ ENDP	; CPythonApplication::SafeReleaseCapture
_TEXT	ENDS
; Function compile flags: /Ogtp
; File C:\Anka2Project\Anka2Project\Source\Binary\source\UserInterface\PythonApplicationProcedure.cpp
;	COMDAT ?__SetFullScreenWindow@CPythonApplication@@IAEXPAUHWND__@@KKK@Z
_TEXT	SEGMENT
_DevMode$ = -160					; size = 156
__$ArrayPad$ = -4					; size = 4
_hWnd$dead$ = 8						; size = 4
_dwWidth$ = 12						; size = 4
_dwHeight$ = 16						; size = 4
_dwBPP$ = 20						; size = 4
?__SetFullScreenWindow@CPythonApplication@@IAEXPAUHWND__@@KKK@Z PROC ; CPythonApplication::__SetFullScreenWindow, COMDAT
; _this$dead$ = ecx

; 24   : {

  00000	55		 push	 ebp
  00001	8b ec		 mov	 ebp, esp
  00003	81 ec a0 00 00
	00		 sub	 esp, 160		; 000000a0H
  00009	a1 00 00 00 00	 mov	 eax, DWORD PTR ___security_cookie
  0000e	33 c5		 xor	 eax, ebp
  00010	89 45 fc	 mov	 DWORD PTR __$ArrayPad$[ebp], eax

; 25   : 	DEVMODE DevMode;
; 26   : 	DevMode.dmSize = sizeof(DevMode);

  00013	b8 9c 00 00 00	 mov	 eax, 156		; 0000009cH

; 27   : 	DevMode.dmBitsPerPel = dwBPP;
; 28   : 	DevMode.dmPelsWidth = dwWidth;
; 29   : 	DevMode.dmPelsHeight = dwHeight;
; 30   : 	DevMode.dmFields = DM_BITSPERPEL | DM_PELSWIDTH | DM_PELSHEIGHT;

  00018	c7 45 88 00 00
	1c 00		 mov	 DWORD PTR _DevMode$[ebp+40], 1835008 ; 001c0000H
  0001f	66 89 45 84	 mov	 WORD PTR _DevMode$[ebp+36], ax
  00023	8b 45 14	 mov	 eax, DWORD PTR _dwBPP$[ebp]
  00026	89 45 c8	 mov	 DWORD PTR _DevMode$[ebp+104], eax
  00029	8b 45 0c	 mov	 eax, DWORD PTR _dwWidth$[ebp]
  0002c	89 45 cc	 mov	 DWORD PTR _DevMode$[ebp+108], eax
  0002f	8b 45 10	 mov	 eax, DWORD PTR _dwHeight$[ebp]
  00032	89 45 d0	 mov	 DWORD PTR _DevMode$[ebp+112], eax

; 31   : 
; 32   : 	LONG Error = ChangeDisplaySettings(&DevMode, CDS_FULLSCREEN);

  00035	8d 85 60 ff ff
	ff		 lea	 eax, DWORD PTR _DevMode$[ebp]
  0003b	6a 04		 push	 4
  0003d	50		 push	 eax
  0003e	ff 15 00 00 00
	00		 call	 DWORD PTR __imp__ChangeDisplaySettingsA@8

; 33   : 	if(Error == DISP_CHANGE_RESTART)

  00044	83 f8 01	 cmp	 eax, 1
  00047	75 0a		 jne	 SHORT $LN2@SetFullScr

; 34   : 	{
; 35   : 		ChangeDisplaySettings(0,0);

  00049	6a 00		 push	 0
  0004b	6a 00		 push	 0
  0004d	ff 15 00 00 00
	00		 call	 DWORD PTR __imp__ChangeDisplaySettingsA@8
$LN2@SetFullScr:

; 36   : 	}
; 37   : }

  00053	8b 4d fc	 mov	 ecx, DWORD PTR __$ArrayPad$[ebp]
  00056	33 cd		 xor	 ecx, ebp
  00058	e8 00 00 00 00	 call	 @__security_check_cookie@4
  0005d	8b e5		 mov	 esp, ebp
  0005f	5d		 pop	 ebp
  00060	c2 10 00	 ret	 16			; 00000010H
?__SetFullScreenWindow@CPythonApplication@@IAEXPAUHWND__@@KKK@Z ENDP ; CPythonApplication::__SetFullScreenWindow
_TEXT	ENDS
; Function compile flags: /Ogtp
; File C:\Anka2Project\Anka2Project\Source\Binary\source\UserInterface\PythonApplicationProcedure.cpp
;	COMDAT ?__MinimizeFullScreenWindow@CPythonApplication@@IAEXPAUHWND__@@KK@Z
_TEXT	SEGMENT
_hWnd$ = 8						; size = 4
_dwWidth$ = 12						; size = 4
_dwHeight$ = 16						; size = 4
?__MinimizeFullScreenWindow@CPythonApplication@@IAEXPAUHWND__@@KK@Z PROC ; CPythonApplication::__MinimizeFullScreenWindow, COMDAT
; _this$dead$ = ecx

; 40   : {

  00000	55		 push	 ebp
  00001	8b ec		 mov	 ebp, esp

; 41   : 	ChangeDisplaySettings(0, 0);

  00003	6a 00		 push	 0
  00005	6a 00		 push	 0
  00007	ff 15 00 00 00
	00		 call	 DWORD PTR __imp__ChangeDisplaySettingsA@8

; 42   : 	SetWindowPos(hWnd, 0, 0, 0,

  0000d	6a 40		 push	 64			; 00000040H
  0000f	ff 75 10	 push	 DWORD PTR _dwHeight$[ebp]
  00012	ff 75 0c	 push	 DWORD PTR _dwWidth$[ebp]
  00015	6a 00		 push	 0
  00017	6a 00		 push	 0
  00019	6a 00		 push	 0
  0001b	ff 75 08	 push	 DWORD PTR _hWnd$[ebp]
  0001e	ff 15 00 00 00
	00		 call	 DWORD PTR __imp__SetWindowPos@28

; 43   : 				 dwWidth,
; 44   : 				 dwHeight,
; 45   : 				 SWP_SHOWWINDOW);
; 46   : 	ShowWindow(hWnd, SW_MINIMIZE);

  00024	6a 06		 push	 6
  00026	ff 75 08	 push	 DWORD PTR _hWnd$[ebp]
  00029	ff 15 00 00 00
	00		 call	 DWORD PTR __imp__ShowWindow@8

; 47   : }

  0002f	5d		 pop	 ebp
  00030	c2 0c 00	 ret	 12			; 0000000cH
?__MinimizeFullScreenWindow@CPythonApplication@@IAEXPAUHWND__@@KK@Z ENDP ; CPythonApplication::__MinimizeFullScreenWindow
_TEXT	ENDS
END
