; Listing generated by Microsoft (R) Optimizing Compiler Version 19.44.35219.0 

	TITLE	c:\anka2project\anka2project\source\binary\vs_files\userinterface\release\pythonmountupgrade.obj
	.686P
	.XMM
	include listing.inc
	.model	flat

INCLUDELIB OLDNAMES

PUBLIC	??_C@_04NKFKOIHC@Chat@				; `string'
PUBLIC	??_C@_0CL@ONJHGFJI@CPythonMountUpGrade?3?3Chat?5inval@ ; `string'
PUBLIC	??_C@_05CCGMLFNG@Reset@				; `string'
PUBLIC	??_C@_04JEOPCEB@Send@				; `string'
PUBLIC	??_C@_0BF@NDJLEEGN@GetMountUpGradePrice@	; `string'
PUBLIC	??_C@_0O@LHILFBPA@GetHorseLevel@		; `string'
PUBLIC	??_C@_0BE@LNOBKKDO@GetMountExistingExp@		; `string'
PUBLIC	??_C@_0BD@HMPOLNFM@IsMountUpGradeFail@		; `string'
PUBLIC	??_C@_09IICLCLM@SetWindow@			; `string'
PUBLIC	??_C@_0BF@BHEIPIMF@GetMountNecessaryExp@	; `string'
PUBLIC	??_C@_06NKNKKMDO@mupgrd@			; `string'
PUBLIC	??_C@_0O@MCOBDHHO@DestroyWindow@		; `string'
PUBLIC	??_C@_0BI@HFGFBNDI@MOUNT_UP_GRADE_LEVEL_UP@	; `string'
PUBLIC	??_C@_0BD@PBDICIML@MOUNT_UP_GRADE_EXP@		; `string'
PUBLIC	??_C@_0CL@FGAPGPAG@CHAT_TYPE_LEVEL_UP_YANG_OR_FEED@ ; `string'
PUBLIC	??_C@_0BO@GDHHJMOB@CHAT_TYPE_BANN_WHILE_MOUNTING@ ; `string'
PUBLIC	??_C@_0CG@EPAIHKCH@CHAT_TYPE_LEVEL_UP_PERCENT_SUCC@ ; `string'
PUBLIC	??_C@_0CC@KGCCKOBD@CHAT_TYPE_LEVEL_UP_GEM_NOT_ENOU@ ; `string'
PUBLIC	??_C@_0BJ@CJFJIHI@CHAT_TYPE_EXP_HORSE_FEED@	; `string'
PUBLIC	??_C@_0CA@HCAAACPK@CHAT_TYPE_LEVEL_UP_PERCENT_FAIL@ ; `string'
PUBLIC	??_C@_0BI@KHDJDGIA@MOUNT_UP_GRADE_FAIL_OFF@	; `string'
PUBLIC	??_C@_0BD@KDKAHPPK@CHAT_TYPE_NO_VALUE@		; `string'
PUBLIC	??_C@_0BD@JEHGJLMJ@HORSE_FEED_ITEM_ID@		; `string'
PUBLIC	??_C@_0BH@JHGIPEJ@MOUNT_UP_GRADE_FAIL_ON@	; `string'
PUBLIC	??_C@_0BF@PCNFCMKP@HORSE_FEED_EXP_COUNT@	; `string'
PUBLIC	??_C@_0BH@JNACCMEO@HORSE_FEED_LEVEL_COUNT@	; `string'
PUBLIC	??_C@_0M@CKIHJKGI@TOOLTIP_GEM@			; `string'
PUBLIC	??_C@_0N@KOIPLHNP@TOOLTIP_YANG@			; `string'
PUBLIC	??_C@_0CB@BGHCFJKM@HORSE_LOWER_LEVEL_RETRY_GEM_COS@ ; `string'
PUBLIC	??_C@_0CA@JHMKHENJ@HORSE_LEVEL_DETERMINES_GEM_COST@ ; `string'
PUBLIC	??_C@_05OOFGFHKO@RESET@				; `string'
PUBLIC	??_C@_0CB@NOAMOHI@HORSE_UPPER_LEVEL_RETRY_GEM_COS@ ; `string'
PUBLIC	??_R2CPythonMountUpGrade@@8			; CPythonMountUpGrade::`RTTI Base Class Array'
PUBLIC	??_R2?$CSingleton@VCPythonMountUpGrade@@@@8	; CSingleton<CPythonMountUpGrade>::`RTTI Base Class Array'
PUBLIC	??_R1A@?0A@EA@CPythonMountUpGrade@@8		; CPythonMountUpGrade::`RTTI Base Class Descriptor at (0,-1,0,64)'
PUBLIC	??_R1A@?0A@EA@?$CSingleton@VCPythonMountUpGrade@@@@8 ; CSingleton<CPythonMountUpGrade>::`RTTI Base Class Descriptor at (0,-1,0,64)'
PUBLIC	??_R3?$CSingleton@VCPythonMountUpGrade@@@@8	; CSingleton<CPythonMountUpGrade>::`RTTI Class Hierarchy Descriptor'
PUBLIC	??_R3CPythonMountUpGrade@@8			; CPythonMountUpGrade::`RTTI Class Hierarchy Descriptor'
PUBLIC	??_R0?AV?$CSingleton@VCPythonMountUpGrade@@@@@8	; CSingleton<CPythonMountUpGrade> `RTTI Type Descriptor'
PUBLIC	??_R0?AVCPythonMountUpGrade@@@8			; CPythonMountUpGrade `RTTI Type Descriptor'
PUBLIC	??_R4CPythonMountUpGrade@@6B@			; CPythonMountUpGrade::`RTTI Complete Object Locator'
PUBLIC	??_R4?$CSingleton@VCPythonMountUpGrade@@@@6B@	; CSingleton<CPythonMountUpGrade>::`RTTI Complete Object Locator'
PUBLIC	?ms_singleton@?$CSingleton@VCPythonMountUpGrade@@@@0PAVCPythonMountUpGrade@@A ; CSingleton<CPythonMountUpGrade>::ms_singleton
PUBLIC	??_7?$CSingleton@VCPythonMountUpGrade@@@@6B@	; CSingleton<CPythonMountUpGrade>::`vftable'
PUBLIC	??_7CPythonMountUpGrade@@6B@			; CPythonMountUpGrade::`vftable'
;	COMDAT ?ms_singleton@?$CSingleton@VCPythonMountUpGrade@@@@0PAVCPythonMountUpGrade@@A
_BSS	SEGMENT
?ms_singleton@?$CSingleton@VCPythonMountUpGrade@@@@0PAVCPythonMountUpGrade@@A DD 01H DUP (?) ; CSingleton<CPythonMountUpGrade>::ms_singleton
_BSS	ENDS
;	COMDAT ??_7CPythonMountUpGrade@@6B@
CONST	SEGMENT
??_7CPythonMountUpGrade@@6B@ DD FLAT:??_R4CPythonMountUpGrade@@6B@ ; CPythonMountUpGrade::`vftable'
	DD	FLAT:??_ECPythonMountUpGrade@@UAEPAXI@Z
CONST	ENDS
;	COMDAT ?s_methods@?1??initmountupgrade@@YAXXZ@4PAUPyMethodDef@@A
_DATA	SEGMENT
?s_methods@?1??initmountupgrade@@YAXXZ@4PAUPyMethodDef@@A DD FLAT:??_C@_04JEOPCEB@Send@ ; `initmountupgrade'::`2'::s_methods
	DD	FLAT:?Send@@YAPAU_object@@PAU1@0@Z
	DD	01H
	ORG $+4
	DD	FLAT:??_C@_05CCGMLFNG@Reset@
	DD	FLAT:?Reset@@YAPAU_object@@PAU1@0@Z
	DD	01H
	ORG $+4
	DD	FLAT:??_C@_0O@LHILFBPA@GetHorseLevel@
	DD	FLAT:?GetHorseLevel@@YAPAU_object@@PAU1@0@Z
	DD	01H
	ORG $+4
	DD	FLAT:??_C@_0BF@NDJLEEGN@GetMountUpGradePrice@
	DD	FLAT:?GetMountUpGradePrice@@YAPAU_object@@PAU1@0@Z
	DD	01H
	ORG $+4
	DD	FLAT:??_C@_0BD@HMPOLNFM@IsMountUpGradeFail@
	DD	FLAT:?IsMountUpGradeFail@@YAPAU_object@@PAU1@0@Z
	DD	01H
	ORG $+4
	DD	FLAT:??_C@_0BE@LNOBKKDO@GetMountExistingExp@
	DD	FLAT:?GetMountUpGradeExistingExp@@YAPAU_object@@PAU1@0@Z
	DD	01H
	ORG $+4
	DD	FLAT:??_C@_0BF@BHEIPIMF@GetMountNecessaryExp@
	DD	FLAT:?GetMountUpGradeNecessaryExp@@YAPAU_object@@PAU1@0@Z
	DD	01H
	ORG $+4
	DD	FLAT:??_C@_09IICLCLM@SetWindow@
	DD	FLAT:?SetWindow@@YAPAU_object@@PAU1@0@Z
	DD	01H
	ORG $+4
	DD	FLAT:??_C@_0O@MCOBDHHO@DestroyWindow@
	DD	FLAT:?DestroyWindow@@YAPAU_object@@PAU1@0@Z
	DD	01H
	ORG $+4
	DD	00H
	DD	00H
	DD	00H
	ORG $+4
_DATA	ENDS
;	COMDAT ??_7?$CSingleton@VCPythonMountUpGrade@@@@6B@
CONST	SEGMENT
??_7?$CSingleton@VCPythonMountUpGrade@@@@6B@ DD FLAT:??_R4?$CSingleton@VCPythonMountUpGrade@@@@6B@ ; CSingleton<CPythonMountUpGrade>::`vftable'
	DD	FLAT:??_E?$CSingleton@VCPythonMountUpGrade@@@@UAEPAXI@Z
CONST	ENDS
;	COMDAT ??_R4?$CSingleton@VCPythonMountUpGrade@@@@6B@
rdata$r	SEGMENT
??_R4?$CSingleton@VCPythonMountUpGrade@@@@6B@ DD 00H	; CSingleton<CPythonMountUpGrade>::`RTTI Complete Object Locator'
	DD	00H
	DD	00H
	DD	FLAT:??_R0?AV?$CSingleton@VCPythonMountUpGrade@@@@@8
	DD	FLAT:??_R3?$CSingleton@VCPythonMountUpGrade@@@@8
rdata$r	ENDS
;	COMDAT ??_R4CPythonMountUpGrade@@6B@
rdata$r	SEGMENT
??_R4CPythonMountUpGrade@@6B@ DD 00H			; CPythonMountUpGrade::`RTTI Complete Object Locator'
	DD	00H
	DD	00H
	DD	FLAT:??_R0?AVCPythonMountUpGrade@@@8
	DD	FLAT:??_R3CPythonMountUpGrade@@8
rdata$r	ENDS
;	COMDAT ??_R0?AVCPythonMountUpGrade@@@8
data$rs	SEGMENT
??_R0?AVCPythonMountUpGrade@@@8 DD FLAT:??_7type_info@@6B@ ; CPythonMountUpGrade `RTTI Type Descriptor'
	DD	00H
	DB	'.?AVCPythonMountUpGrade@@', 00H
data$rs	ENDS
;	COMDAT ??_R0?AV?$CSingleton@VCPythonMountUpGrade@@@@@8
data$rs	SEGMENT
??_R0?AV?$CSingleton@VCPythonMountUpGrade@@@@@8 DD FLAT:??_7type_info@@6B@ ; CSingleton<CPythonMountUpGrade> `RTTI Type Descriptor'
	DD	00H
	DB	'.?AV?$CSingleton@VCPythonMountUpGrade@@@@', 00H
data$rs	ENDS
;	COMDAT ??_R3CPythonMountUpGrade@@8
rdata$r	SEGMENT
??_R3CPythonMountUpGrade@@8 DD 00H			; CPythonMountUpGrade::`RTTI Class Hierarchy Descriptor'
	DD	00H
	DD	02H
	DD	FLAT:??_R2CPythonMountUpGrade@@8
rdata$r	ENDS
;	COMDAT ??_R3?$CSingleton@VCPythonMountUpGrade@@@@8
rdata$r	SEGMENT
??_R3?$CSingleton@VCPythonMountUpGrade@@@@8 DD 00H	; CSingleton<CPythonMountUpGrade>::`RTTI Class Hierarchy Descriptor'
	DD	00H
	DD	01H
	DD	FLAT:??_R2?$CSingleton@VCPythonMountUpGrade@@@@8
rdata$r	ENDS
;	COMDAT ??_R1A@?0A@EA@?$CSingleton@VCPythonMountUpGrade@@@@8
rdata$r	SEGMENT
??_R1A@?0A@EA@?$CSingleton@VCPythonMountUpGrade@@@@8 DD FLAT:??_R0?AV?$CSingleton@VCPythonMountUpGrade@@@@@8 ; CSingleton<CPythonMountUpGrade>::`RTTI Base Class Descriptor at (0,-1,0,64)'
	DD	00H
	DD	00H
	DD	0ffffffffH
	DD	00H
	DD	040H
	DD	FLAT:??_R3?$CSingleton@VCPythonMountUpGrade@@@@8
rdata$r	ENDS
;	COMDAT ??_R1A@?0A@EA@CPythonMountUpGrade@@8
rdata$r	SEGMENT
??_R1A@?0A@EA@CPythonMountUpGrade@@8 DD FLAT:??_R0?AVCPythonMountUpGrade@@@8 ; CPythonMountUpGrade::`RTTI Base Class Descriptor at (0,-1,0,64)'
	DD	01H
	DD	00H
	DD	0ffffffffH
	DD	00H
	DD	040H
	DD	FLAT:??_R3CPythonMountUpGrade@@8
rdata$r	ENDS
;	COMDAT ??_R2?$CSingleton@VCPythonMountUpGrade@@@@8
rdata$r	SEGMENT
??_R2?$CSingleton@VCPythonMountUpGrade@@@@8 DD FLAT:??_R1A@?0A@EA@?$CSingleton@VCPythonMountUpGrade@@@@8 ; CSingleton<CPythonMountUpGrade>::`RTTI Base Class Array'
rdata$r	ENDS
;	COMDAT ??_R2CPythonMountUpGrade@@8
rdata$r	SEGMENT
??_R2CPythonMountUpGrade@@8 DD FLAT:??_R1A@?0A@EA@CPythonMountUpGrade@@8 ; CPythonMountUpGrade::`RTTI Base Class Array'
	DD	FLAT:??_R1A@?0A@EA@?$CSingleton@VCPythonMountUpGrade@@@@8
rdata$r	ENDS
;	COMDAT ??_C@_0CB@NOAMOHI@HORSE_UPPER_LEVEL_RETRY_GEM_COS@
CONST	SEGMENT
??_C@_0CB@NOAMOHI@HORSE_UPPER_LEVEL_RETRY_GEM_COS@ DB 'HORSE_UPPER_LEVEL_'
	DB	'RETRY_GEM_COST', 00H			; `string'
CONST	ENDS
;	COMDAT ??_C@_05OOFGFHKO@RESET@
CONST	SEGMENT
??_C@_05OOFGFHKO@RESET@ DB 'RESET', 00H			; `string'
CONST	ENDS
;	COMDAT ??_C@_0CA@JHMKHENJ@HORSE_LEVEL_DETERMINES_GEM_COST@
CONST	SEGMENT
??_C@_0CA@JHMKHENJ@HORSE_LEVEL_DETERMINES_GEM_COST@ DB 'HORSE_LEVEL_DETER'
	DB	'MINES_GEM_COST', 00H			; `string'
CONST	ENDS
;	COMDAT ??_C@_0CB@BGHCFJKM@HORSE_LOWER_LEVEL_RETRY_GEM_COS@
CONST	SEGMENT
??_C@_0CB@BGHCFJKM@HORSE_LOWER_LEVEL_RETRY_GEM_COS@ DB 'HORSE_LOWER_LEVEL'
	DB	'_RETRY_GEM_COST', 00H			; `string'
CONST	ENDS
;	COMDAT ??_C@_0N@KOIPLHNP@TOOLTIP_YANG@
CONST	SEGMENT
??_C@_0N@KOIPLHNP@TOOLTIP_YANG@ DB 'TOOLTIP_YANG', 00H	; `string'
CONST	ENDS
;	COMDAT ??_C@_0M@CKIHJKGI@TOOLTIP_GEM@
CONST	SEGMENT
??_C@_0M@CKIHJKGI@TOOLTIP_GEM@ DB 'TOOLTIP_GEM', 00H	; `string'
CONST	ENDS
;	COMDAT ??_C@_0BH@JNACCMEO@HORSE_FEED_LEVEL_COUNT@
CONST	SEGMENT
??_C@_0BH@JNACCMEO@HORSE_FEED_LEVEL_COUNT@ DB 'HORSE_FEED_LEVEL_COUNT', 00H ; `string'
CONST	ENDS
;	COMDAT ??_C@_0BF@PCNFCMKP@HORSE_FEED_EXP_COUNT@
CONST	SEGMENT
??_C@_0BF@PCNFCMKP@HORSE_FEED_EXP_COUNT@ DB 'HORSE_FEED_EXP_COUNT', 00H ; `string'
CONST	ENDS
;	COMDAT ??_C@_0BH@JHGIPEJ@MOUNT_UP_GRADE_FAIL_ON@
CONST	SEGMENT
??_C@_0BH@JHGIPEJ@MOUNT_UP_GRADE_FAIL_ON@ DB 'MOUNT_UP_GRADE_FAIL_ON', 00H ; `string'
CONST	ENDS
;	COMDAT ??_C@_0BD@JEHGJLMJ@HORSE_FEED_ITEM_ID@
CONST	SEGMENT
??_C@_0BD@JEHGJLMJ@HORSE_FEED_ITEM_ID@ DB 'HORSE_FEED_ITEM_ID', 00H ; `string'
CONST	ENDS
;	COMDAT ??_C@_0BD@KDKAHPPK@CHAT_TYPE_NO_VALUE@
CONST	SEGMENT
??_C@_0BD@KDKAHPPK@CHAT_TYPE_NO_VALUE@ DB 'CHAT_TYPE_NO_VALUE', 00H ; `string'
CONST	ENDS
;	COMDAT ??_C@_0BI@KHDJDGIA@MOUNT_UP_GRADE_FAIL_OFF@
CONST	SEGMENT
??_C@_0BI@KHDJDGIA@MOUNT_UP_GRADE_FAIL_OFF@ DB 'MOUNT_UP_GRADE_FAIL_OFF', 00H ; `string'
CONST	ENDS
;	COMDAT ??_C@_0CA@HCAAACPK@CHAT_TYPE_LEVEL_UP_PERCENT_FAIL@
CONST	SEGMENT
??_C@_0CA@HCAAACPK@CHAT_TYPE_LEVEL_UP_PERCENT_FAIL@ DB 'CHAT_TYPE_LEVEL_U'
	DB	'P_PERCENT_FAIL', 00H			; `string'
CONST	ENDS
;	COMDAT ??_C@_0BJ@CJFJIHI@CHAT_TYPE_EXP_HORSE_FEED@
CONST	SEGMENT
??_C@_0BJ@CJFJIHI@CHAT_TYPE_EXP_HORSE_FEED@ DB 'CHAT_TYPE_EXP_HORSE_FEED', 00H ; `string'
CONST	ENDS
;	COMDAT ??_C@_0CC@KGCCKOBD@CHAT_TYPE_LEVEL_UP_GEM_NOT_ENOU@
CONST	SEGMENT
??_C@_0CC@KGCCKOBD@CHAT_TYPE_LEVEL_UP_GEM_NOT_ENOU@ DB 'CHAT_TYPE_LEVEL_U'
	DB	'P_GEM_NOT_ENOUGH', 00H			; `string'
CONST	ENDS
;	COMDAT ??_C@_0CG@EPAIHKCH@CHAT_TYPE_LEVEL_UP_PERCENT_SUCC@
CONST	SEGMENT
??_C@_0CG@EPAIHKCH@CHAT_TYPE_LEVEL_UP_PERCENT_SUCC@ DB 'CHAT_TYPE_LEVEL_U'
	DB	'P_PERCENT_SUCCESSFUL', 00H			; `string'
CONST	ENDS
;	COMDAT ??_C@_0BO@GDHHJMOB@CHAT_TYPE_BANN_WHILE_MOUNTING@
CONST	SEGMENT
??_C@_0BO@GDHHJMOB@CHAT_TYPE_BANN_WHILE_MOUNTING@ DB 'CHAT_TYPE_BANN_WHIL'
	DB	'E_MOUNTING', 00H				; `string'
CONST	ENDS
;	COMDAT ??_C@_0CL@FGAPGPAG@CHAT_TYPE_LEVEL_UP_YANG_OR_FEED@
CONST	SEGMENT
??_C@_0CL@FGAPGPAG@CHAT_TYPE_LEVEL_UP_YANG_OR_FEED@ DB 'CHAT_TYPE_LEVEL_U'
	DB	'P_YANG_OR_FEED_NOT_ENOUGH', 00H		; `string'
CONST	ENDS
;	COMDAT ??_C@_0BD@PBDICIML@MOUNT_UP_GRADE_EXP@
CONST	SEGMENT
??_C@_0BD@PBDICIML@MOUNT_UP_GRADE_EXP@ DB 'MOUNT_UP_GRADE_EXP', 00H ; `string'
CONST	ENDS
;	COMDAT ??_C@_0BI@HFGFBNDI@MOUNT_UP_GRADE_LEVEL_UP@
CONST	SEGMENT
??_C@_0BI@HFGFBNDI@MOUNT_UP_GRADE_LEVEL_UP@ DB 'MOUNT_UP_GRADE_LEVEL_UP', 00H ; `string'
CONST	ENDS
;	COMDAT ??_C@_0O@MCOBDHHO@DestroyWindow@
CONST	SEGMENT
??_C@_0O@MCOBDHHO@DestroyWindow@ DB 'DestroyWindow', 00H ; `string'
CONST	ENDS
;	COMDAT ??_C@_06NKNKKMDO@mupgrd@
CONST	SEGMENT
??_C@_06NKNKKMDO@mupgrd@ DB 'mupgrd', 00H		; `string'
CONST	ENDS
;	COMDAT ??_C@_0BF@BHEIPIMF@GetMountNecessaryExp@
CONST	SEGMENT
??_C@_0BF@BHEIPIMF@GetMountNecessaryExp@ DB 'GetMountNecessaryExp', 00H ; `string'
CONST	ENDS
;	COMDAT ??_C@_09IICLCLM@SetWindow@
CONST	SEGMENT
??_C@_09IICLCLM@SetWindow@ DB 'SetWindow', 00H		; `string'
CONST	ENDS
;	COMDAT ??_C@_0BD@HMPOLNFM@IsMountUpGradeFail@
CONST	SEGMENT
??_C@_0BD@HMPOLNFM@IsMountUpGradeFail@ DB 'IsMountUpGradeFail', 00H ; `string'
CONST	ENDS
;	COMDAT ??_C@_0BE@LNOBKKDO@GetMountExistingExp@
CONST	SEGMENT
??_C@_0BE@LNOBKKDO@GetMountExistingExp@ DB 'GetMountExistingExp', 00H ; `string'
CONST	ENDS
;	COMDAT ??_C@_0O@LHILFBPA@GetHorseLevel@
CONST	SEGMENT
??_C@_0O@LHILFBPA@GetHorseLevel@ DB 'GetHorseLevel', 00H ; `string'
CONST	ENDS
;	COMDAT ??_C@_0BF@NDJLEEGN@GetMountUpGradePrice@
CONST	SEGMENT
??_C@_0BF@NDJLEEGN@GetMountUpGradePrice@ DB 'GetMountUpGradePrice', 00H ; `string'
CONST	ENDS
;	COMDAT ??_C@_04JEOPCEB@Send@
CONST	SEGMENT
??_C@_04JEOPCEB@Send@ DB 'Send', 00H			; `string'
CONST	ENDS
;	COMDAT ??_C@_05CCGMLFNG@Reset@
CONST	SEGMENT
??_C@_05CCGMLFNG@Reset@ DB 'Reset', 00H			; `string'
CONST	ENDS
;	COMDAT ??_C@_0CL@ONJHGFJI@CPythonMountUpGrade?3?3Chat?5inval@
CONST	SEGMENT
??_C@_0CL@ONJHGFJI@CPythonMountUpGrade?3?3Chat?5inval@ DB 'CPythonMountUp'
	DB	'Grade::Chat invalid type: %d', 00H		; `string'
CONST	ENDS
;	COMDAT ??_C@_04NKFKOIHC@Chat@
CONST	SEGMENT
??_C@_04NKFKOIHC@Chat@ DB 'Chat', 00H			; `string'
?mount_up_grade_price_table@@3QBIB DD 00H		; mount_up_grade_price_table
	DD	00H
	DD	00H
	DD	00H
	DD	00H
	DD	00H
	DD	00H
	DD	00H
	DD	00H
	DD	00H
	DD	00H
	DD	00H
	DD	00H
	DD	00H
	DD	00H
	DD	00H
	DD	00H
	DD	00H
	DD	00H
	DD	00H
	DD	00H
	DD	00H
	DD	07a120H
	DD	0f4240H
	DD	016e360H
	DD	01e8480H
	DD	02625a0H
	DD	02dc6c0H
	DD	03567e0H
	DD	03d0900H
	DD	044aa20H
	DD	04c4b40H
	DD	04c4b40H
	DD	04c4b40H
	DD	04c4b40H
	DD	04c4b40H
	DD	04c4b40H
	DD	04c4b40H
	DD	04c4b40H
	DD	04c4b40H
	DD	04c4b40H
?mount_up_grade_exp_table@@3QBIB DD 00H			; mount_up_grade_exp_table
	DD	00H
	DD	00H
	DD	00H
	DD	00H
	DD	00H
	DD	00H
	DD	00H
	DD	00H
	DD	00H
	DD	00H
	DD	00H
	DD	00H
	DD	00H
	DD	00H
	DD	00H
	DD	00H
	DD	00H
	DD	00H
	DD	00H
	DD	00H
	DD	00H
	DD	030d4H
	DD	0320aH
	DD	0334aH
	DD	03480H
	DD	036ecH
	DD	0382cH
	DD	03962H
	DD	03a98H
	DD	0493eH
	DD	0927cH
	DD	0bea0H
	DD	0f802H
	DD	010572H
	DD	0142bcH
	DD	01a3f6H
	DD	022272H
	DD	02c70eH
	DD	039d3cH
	DD	04b3e8H
PUBLIC	??_G?$CSingleton@VCPythonMountUpGrade@@@@UAEPAXI@Z ; CSingleton<CPythonMountUpGrade>::`scalar deleting destructor'
PUBLIC	??0?$CSingleton@VCPythonMountUpGrade@@@@QAE@XZ	; CSingleton<CPythonMountUpGrade>::CSingleton<CPythonMountUpGrade>
PUBLIC	??1?$CSingleton@VCPythonMountUpGrade@@@@UAE@XZ	; CSingleton<CPythonMountUpGrade>::~CSingleton<CPythonMountUpGrade>
PUBLIC	?Instance@?$CSingleton@VCPythonMountUpGrade@@@@SAAAVCPythonMountUpGrade@@XZ ; CSingleton<CPythonMountUpGrade>::Instance
PUBLIC	?initmountupgrade@@YAXXZ			; initmountupgrade
PUBLIC	?Send@@YAPAU_object@@PAU1@0@Z			; Send
PUBLIC	?Reset@@YAPAU_object@@PAU1@0@Z			; Reset
PUBLIC	?GetMountUpGradeNecessaryExp@@YAPAU_object@@PAU1@0@Z ; GetMountUpGradeNecessaryExp
PUBLIC	?GetMountUpGradeExistingExp@@YAPAU_object@@PAU1@0@Z ; GetMountUpGradeExistingExp
PUBLIC	?IsMountUpGradeFail@@YAPAU_object@@PAU1@0@Z	; IsMountUpGradeFail
PUBLIC	?GetMountUpGradePrice@@YAPAU_object@@PAU1@0@Z	; GetMountUpGradePrice
PUBLIC	?GetHorseLevel@@YAPAU_object@@PAU1@0@Z		; GetHorseLevel
PUBLIC	?DestroyWindow@@YAPAU_object@@PAU1@0@Z		; DestroyWindow
PUBLIC	?SetWindow@@YAPAU_object@@PAU1@0@Z		; SetWindow
PUBLIC	?GetMountUpGradePrice@CPythonMountUpGrade@@QBEIXZ ; CPythonMountUpGrade::GetMountUpGradePrice
PUBLIC	?GetMountUpGradeNecessaryExp@CPythonMountUpGrade@@QBEIXZ ; CPythonMountUpGrade::GetMountUpGradeNecessaryExp
PUBLIC	?GetMountUpGradeExistingExp@CPythonMountUpGrade@@QBEIXZ ; CPythonMountUpGrade::GetMountUpGradeExistingExp
PUBLIC	?SetMountUpGradeExistingExp@CPythonMountUpGrade@@QAEXI@Z ; CPythonMountUpGrade::SetMountUpGradeExistingExp
PUBLIC	?IsMountUpGradeFail@CPythonMountUpGrade@@QBEEXZ	; CPythonMountUpGrade::IsMountUpGradeFail
PUBLIC	?SetMountUpGradeFail@CPythonMountUpGrade@@QAEXE@Z ; CPythonMountUpGrade::SetMountUpGradeFail
PUBLIC	?GetHorseLevel@CPythonMountUpGrade@@QBEEXZ	; CPythonMountUpGrade::GetHorseLevel
PUBLIC	?SetHorseLevel@CPythonMountUpGrade@@QAEXE@Z	; CPythonMountUpGrade::SetHorseLevel
PUBLIC	?Chat@CPythonMountUpGrade@@QAEXEE@Z		; CPythonMountUpGrade::Chat
PUBLIC	?Refresh@CPythonMountUpGrade@@QAEXXZ		; CPythonMountUpGrade::Refresh
PUBLIC	?DestroyWindow@CPythonMountUpGrade@@QAEXXZ	; CPythonMountUpGrade::DestroyWindow
PUBLIC	?SetWindow@CPythonMountUpGrade@@QAEXPAU_object@@@Z ; CPythonMountUpGrade::SetWindow
PUBLIC	?Reset@CPythonMountUpGrade@@QAEXXZ		; CPythonMountUpGrade::Reset
PUBLIC	??_GCPythonMountUpGrade@@UAEPAXI@Z		; CPythonMountUpGrade::`scalar deleting destructor'
PUBLIC	??0CPythonMountUpGrade@@QAE@XZ			; CPythonMountUpGrade::CPythonMountUpGrade
PUBLIC	??1CPythonMountUpGrade@@UAE@XZ			; CPythonMountUpGrade::~CPythonMountUpGrade
EXTRN	??_ECPythonMountUpGrade@@UAEPAXI@Z:PROC		; CPythonMountUpGrade::`vector deleting destructor'
EXTRN	??_E?$CSingleton@VCPythonMountUpGrade@@@@UAEPAXI@Z:PROC ; CSingleton<CPythonMountUpGrade>::`vector deleting destructor'
; Function compile flags: /Ogtp
; File C:\Anka2Project\Anka2Project\Source\Binary\source\UserInterface\PythonMountUpGrade.cpp
;	COMDAT ?Refresh@CPythonMountUpGrade@@QAEXXZ
_TEXT	SEGMENT
?Refresh@CPythonMountUpGrade@@QAEXXZ PROC		; CPythonMountUpGrade::Refresh, COMDAT
; _this$ = ecx

; 30   : {

  00000	56		 push	 esi

; 31   : 	PyCallClassMemberFunc(m_window, "Refresh", Py_BuildValue("()"));

  00001	68 00 00 00 00	 push	 OFFSET ??_C@_02HCKGKOFO@?$CI?$CJ@
  00006	8b f1		 mov	 esi, ecx
  00008	ff 15 00 00 00
	00		 call	 DWORD PTR __imp__Py_BuildValue
  0000e	50		 push	 eax
  0000f	68 00 00 00 00	 push	 OFFSET ??_C@_07POIENIBA@Refresh@
  00014	ff 76 0c	 push	 DWORD PTR [esi+12]
  00017	e8 00 00 00 00	 call	 ?PyCallClassMemberFunc@@YA_NPAU_object@@PBD0@Z ; PyCallClassMemberFunc
  0001c	83 c4 10	 add	 esp, 16			; 00000010H
  0001f	5e		 pop	 esi

; 32   : }

  00020	c3		 ret	 0
?Refresh@CPythonMountUpGrade@@QAEXXZ ENDP		; CPythonMountUpGrade::Refresh
_TEXT	ENDS
; Function compile flags: /Ogtp
; File C:\Anka2Project\Anka2Project\Source\Binary\source\UserInterface\PythonMountUpGrade.cpp
;	COMDAT ?Chat@CPythonMountUpGrade@@QAEXEE@Z
_TEXT	SEGMENT
_type$ = 8						; size = 1
_value$ = 12						; size = 1
?Chat@CPythonMountUpGrade@@QAEXEE@Z PROC		; CPythonMountUpGrade::Chat, COMDAT
; _this$ = ecx

; 35   : {

  00000	55		 push	 ebp
  00001	8b ec		 mov	 ebp, esp

; 36   : 	if (type >= CPythonMountUpGrade::EMountUpGradeChatType::CHAT_TYPE_MAX)

  00003	80 7d 08 06	 cmp	 BYTE PTR _type$[ebp], 6
  00007	0f b6 55 08	 movzx	 edx, BYTE PTR _type$[ebp]
  0000b	56		 push	 esi
  0000c	8b f1		 mov	 esi, ecx
  0000e	72 13		 jb	 SHORT $LN2@Chat

; 37   : 	{
; 38   : 		TraceError("CPythonMountUpGrade::Chat invalid type: %d", type);

  00010	52		 push	 edx
  00011	68 00 00 00 00	 push	 OFFSET ??_C@_0CL@ONJHGFJI@CPythonMountUpGrade?3?3Chat?5inval@
  00016	e8 00 00 00 00	 call	 ?TraceError@@YAXPBDZZ	; TraceError
  0001b	83 c4 08	 add	 esp, 8
  0001e	5e		 pop	 esi

; 43   : }

  0001f	5d		 pop	 ebp
  00020	c2 08 00	 ret	 8
$LN2@Chat:

; 39   : 		return;
; 40   : 	}
; 41   : 	
; 42   : 	PyCallClassMemberFunc(m_window, "Chat", Py_BuildValue("(ii)", type, value));

  00023	0f b6 45 0c	 movzx	 eax, BYTE PTR _value$[ebp]
  00027	50		 push	 eax
  00028	52		 push	 edx
  00029	68 00 00 00 00	 push	 OFFSET ??_C@_04INACLLOK@?$CIii?$CJ@
  0002e	ff 15 00 00 00
	00		 call	 DWORD PTR __imp__Py_BuildValue
  00034	50		 push	 eax
  00035	68 00 00 00 00	 push	 OFFSET ??_C@_04NKFKOIHC@Chat@
  0003a	ff 76 0c	 push	 DWORD PTR [esi+12]
  0003d	e8 00 00 00 00	 call	 ?PyCallClassMemberFunc@@YA_NPAU_object@@PBD0@Z ; PyCallClassMemberFunc
  00042	83 c4 18	 add	 esp, 24			; 00000018H
  00045	5e		 pop	 esi

; 43   : }

  00046	5d		 pop	 ebp
  00047	c2 08 00	 ret	 8
?Chat@CPythonMountUpGrade@@QAEXEE@Z ENDP		; CPythonMountUpGrade::Chat
_TEXT	ENDS
; Function compile flags: /Ogtp
; File C:\Anka2Project\Anka2Project\Source\Binary\source\UserInterface\PythonMountUpGrade.cpp
; File C:\Anka2Project\Anka2Project\Source\Binary\source\eterBase\Singleton.h
; File C:\Anka2Project\Anka2Project\Source\Binary\source\UserInterface\PythonMountUpGrade.cpp
;	COMDAT ?GetHorseLevel@@YAPAU_object@@PAU1@0@Z
_TEXT	SEGMENT
_poSelf$ = 8						; size = 4
_poArgs$ = 12						; size = 4
?GetHorseLevel@@YAPAU_object@@PAU1@0@Z PROC		; GetHorseLevel, COMDAT
; File C:\Anka2Project\Anka2Project\Source\Binary\source\eterBase\Singleton.h

; 26   : 		assert(ms_singleton);

  00000	8b 0d 00 00 00
	00		 mov	 ecx, DWORD PTR ?ms_singleton@?$CSingleton@VCPythonMountUpGrade@@@@0PAVCPythonMountUpGrade@@A ; CSingleton<CPythonMountUpGrade>::ms_singleton
  00006	85 c9		 test	 ecx, ecx
  00008	75 1a		 jne	 SHORT $LN5@GetHorseLe
  0000a	6a 1a		 push	 26			; 0000001aH
  0000c	68 00 00 00 00	 push	 OFFSET ??_C@_1IO@CAJLEEOI@?$AAC?$AA?3?$AA?2?$AAA?$AAn?$AAk?$AAa?$AA2?$AAP?$AAr?$AAo?$AAj?$AAe?$AAc?$AAt@
  00011	68 00 00 00 00	 push	 OFFSET ??_C@_1BK@FMEHPMFE@?$AAm?$AAs?$AA_?$AAs?$AAi?$AAn?$AAg?$AAl?$AAe?$AAt?$AAo?$AAn@
  00016	e8 00 00 00 00	 call	 __wassert
  0001b	8b 0d 00 00 00
	00		 mov	 ecx, DWORD PTR ?ms_singleton@?$CSingleton@VCPythonMountUpGrade@@@@0PAVCPythonMountUpGrade@@A ; CSingleton<CPythonMountUpGrade>::ms_singleton
  00021	83 c4 0c	 add	 esp, 12			; 0000000cH
$LN5@GetHorseLe:
; File C:\Anka2Project\Anka2Project\Source\Binary\source\UserInterface\PythonMountUpGrade.cpp

; 104  : 	return Py_BuildValue("i", CPythonMountUpGrade::Instance().GetHorseLevel());

  00024	e8 00 00 00 00	 call	 ?GetHorseLevel@CPythonMountUpGrade@@QBEEXZ ; CPythonMountUpGrade::GetHorseLevel
  00029	0f b6 c0	 movzx	 eax, al
  0002c	50		 push	 eax
  0002d	68 00 00 00 00	 push	 OFFSET ??_C@_01KBJDNOO@i@
  00032	ff 15 00 00 00
	00		 call	 DWORD PTR __imp__Py_BuildValue
  00038	83 c4 08	 add	 esp, 8

; 105  : }

  0003b	c3		 ret	 0
?GetHorseLevel@@YAPAU_object@@PAU1@0@Z ENDP		; GetHorseLevel
_TEXT	ENDS
; Function compile flags: /Ogtp
; File C:\Anka2Project\Anka2Project\Source\Binary\source\UserInterface\PythonMountUpGrade.cpp
; File C:\Anka2Project\Anka2Project\Source\Binary\source\eterBase\Singleton.h
; File C:\Anka2Project\Anka2Project\Source\Binary\source\UserInterface\PythonMountUpGrade.cpp
;	COMDAT ?GetMountUpGradePrice@@YAPAU_object@@PAU1@0@Z
_TEXT	SEGMENT
_poSelf$ = 8						; size = 4
_poArgs$ = 12						; size = 4
?GetMountUpGradePrice@@YAPAU_object@@PAU1@0@Z PROC	; GetMountUpGradePrice, COMDAT
; File C:\Anka2Project\Anka2Project\Source\Binary\source\eterBase\Singleton.h

; 26   : 		assert(ms_singleton);

  00000	8b 0d 00 00 00
	00		 mov	 ecx, DWORD PTR ?ms_singleton@?$CSingleton@VCPythonMountUpGrade@@@@0PAVCPythonMountUpGrade@@A ; CSingleton<CPythonMountUpGrade>::ms_singleton
  00006	85 c9		 test	 ecx, ecx
  00008	75 1a		 jne	 SHORT $LN5@GetMountUp
  0000a	6a 1a		 push	 26			; 0000001aH
  0000c	68 00 00 00 00	 push	 OFFSET ??_C@_1IO@CAJLEEOI@?$AAC?$AA?3?$AA?2?$AAA?$AAn?$AAk?$AAa?$AA2?$AAP?$AAr?$AAo?$AAj?$AAe?$AAc?$AAt@
  00011	68 00 00 00 00	 push	 OFFSET ??_C@_1BK@FMEHPMFE@?$AAm?$AAs?$AA_?$AAs?$AAi?$AAn?$AAg?$AAl?$AAe?$AAt?$AAo?$AAn@
  00016	e8 00 00 00 00	 call	 __wassert
  0001b	8b 0d 00 00 00
	00		 mov	 ecx, DWORD PTR ?ms_singleton@?$CSingleton@VCPythonMountUpGrade@@@@0PAVCPythonMountUpGrade@@A ; CSingleton<CPythonMountUpGrade>::ms_singleton
  00021	83 c4 0c	 add	 esp, 12			; 0000000cH
$LN5@GetMountUp:
; File C:\Anka2Project\Anka2Project\Source\Binary\source\UserInterface\PythonMountUpGrade.cpp

; 109  : 	return Py_BuildValue("i", CPythonMountUpGrade::Instance().GetMountUpGradePrice());

  00024	e8 00 00 00 00	 call	 ?GetMountUpGradePrice@CPythonMountUpGrade@@QBEIXZ ; CPythonMountUpGrade::GetMountUpGradePrice
  00029	50		 push	 eax
  0002a	68 00 00 00 00	 push	 OFFSET ??_C@_01KBJDNOO@i@
  0002f	ff 15 00 00 00
	00		 call	 DWORD PTR __imp__Py_BuildValue
  00035	83 c4 08	 add	 esp, 8

; 110  : }

  00038	c3		 ret	 0
?GetMountUpGradePrice@@YAPAU_object@@PAU1@0@Z ENDP	; GetMountUpGradePrice
_TEXT	ENDS
; Function compile flags: /Ogtp
; File C:\Anka2Project\Anka2Project\Source\Binary\source\UserInterface\PythonMountUpGrade.cpp
; File C:\Anka2Project\Anka2Project\Source\Binary\source\eterBase\Singleton.h
; File C:\Anka2Project\Anka2Project\Source\Binary\source\UserInterface\PythonMountUpGrade.cpp
;	COMDAT ?IsMountUpGradeFail@@YAPAU_object@@PAU1@0@Z
_TEXT	SEGMENT
_poSelf$ = 8						; size = 4
_poArgs$ = 12						; size = 4
?IsMountUpGradeFail@@YAPAU_object@@PAU1@0@Z PROC	; IsMountUpGradeFail, COMDAT
; File C:\Anka2Project\Anka2Project\Source\Binary\source\eterBase\Singleton.h

; 26   : 		assert(ms_singleton);

  00000	8b 0d 00 00 00
	00		 mov	 ecx, DWORD PTR ?ms_singleton@?$CSingleton@VCPythonMountUpGrade@@@@0PAVCPythonMountUpGrade@@A ; CSingleton<CPythonMountUpGrade>::ms_singleton
  00006	85 c9		 test	 ecx, ecx
  00008	75 1a		 jne	 SHORT $LN5@IsMountUpG
  0000a	6a 1a		 push	 26			; 0000001aH
  0000c	68 00 00 00 00	 push	 OFFSET ??_C@_1IO@CAJLEEOI@?$AAC?$AA?3?$AA?2?$AAA?$AAn?$AAk?$AAa?$AA2?$AAP?$AAr?$AAo?$AAj?$AAe?$AAc?$AAt@
  00011	68 00 00 00 00	 push	 OFFSET ??_C@_1BK@FMEHPMFE@?$AAm?$AAs?$AA_?$AAs?$AAi?$AAn?$AAg?$AAl?$AAe?$AAt?$AAo?$AAn@
  00016	e8 00 00 00 00	 call	 __wassert
  0001b	8b 0d 00 00 00
	00		 mov	 ecx, DWORD PTR ?ms_singleton@?$CSingleton@VCPythonMountUpGrade@@@@0PAVCPythonMountUpGrade@@A ; CSingleton<CPythonMountUpGrade>::ms_singleton
  00021	83 c4 0c	 add	 esp, 12			; 0000000cH
$LN5@IsMountUpG:
; File C:\Anka2Project\Anka2Project\Source\Binary\source\UserInterface\PythonMountUpGrade.cpp

; 114  : 	return Py_BuildValue("i", CPythonMountUpGrade::Instance().IsMountUpGradeFail());

  00024	e8 00 00 00 00	 call	 ?IsMountUpGradeFail@CPythonMountUpGrade@@QBEEXZ ; CPythonMountUpGrade::IsMountUpGradeFail
  00029	0f b6 c0	 movzx	 eax, al
  0002c	50		 push	 eax
  0002d	68 00 00 00 00	 push	 OFFSET ??_C@_01KBJDNOO@i@
  00032	ff 15 00 00 00
	00		 call	 DWORD PTR __imp__Py_BuildValue
  00038	83 c4 08	 add	 esp, 8

; 115  : }

  0003b	c3		 ret	 0
?IsMountUpGradeFail@@YAPAU_object@@PAU1@0@Z ENDP	; IsMountUpGradeFail
_TEXT	ENDS
; Function compile flags: /Ogtp
; File C:\Anka2Project\Anka2Project\Source\Binary\source\UserInterface\PythonMountUpGrade.cpp
; File C:\Anka2Project\Anka2Project\Source\Binary\source\eterBase\Singleton.h
; File C:\Anka2Project\Anka2Project\Source\Binary\source\UserInterface\PythonMountUpGrade.cpp
;	COMDAT ?GetMountUpGradeExistingExp@@YAPAU_object@@PAU1@0@Z
_TEXT	SEGMENT
_poSelf$ = 8						; size = 4
_poArgs$ = 12						; size = 4
?GetMountUpGradeExistingExp@@YAPAU_object@@PAU1@0@Z PROC ; GetMountUpGradeExistingExp, COMDAT
; File C:\Anka2Project\Anka2Project\Source\Binary\source\eterBase\Singleton.h

; 26   : 		assert(ms_singleton);

  00000	8b 0d 00 00 00
	00		 mov	 ecx, DWORD PTR ?ms_singleton@?$CSingleton@VCPythonMountUpGrade@@@@0PAVCPythonMountUpGrade@@A ; CSingleton<CPythonMountUpGrade>::ms_singleton
  00006	85 c9		 test	 ecx, ecx
  00008	75 1a		 jne	 SHORT $LN5@GetMountUp
  0000a	6a 1a		 push	 26			; 0000001aH
  0000c	68 00 00 00 00	 push	 OFFSET ??_C@_1IO@CAJLEEOI@?$AAC?$AA?3?$AA?2?$AAA?$AAn?$AAk?$AAa?$AA2?$AAP?$AAr?$AAo?$AAj?$AAe?$AAc?$AAt@
  00011	68 00 00 00 00	 push	 OFFSET ??_C@_1BK@FMEHPMFE@?$AAm?$AAs?$AA_?$AAs?$AAi?$AAn?$AAg?$AAl?$AAe?$AAt?$AAo?$AAn@
  00016	e8 00 00 00 00	 call	 __wassert
  0001b	8b 0d 00 00 00
	00		 mov	 ecx, DWORD PTR ?ms_singleton@?$CSingleton@VCPythonMountUpGrade@@@@0PAVCPythonMountUpGrade@@A ; CSingleton<CPythonMountUpGrade>::ms_singleton
  00021	83 c4 0c	 add	 esp, 12			; 0000000cH
$LN5@GetMountUp:
; File C:\Anka2Project\Anka2Project\Source\Binary\source\UserInterface\PythonMountUpGrade.cpp

; 119  : 	return Py_BuildValue("i", CPythonMountUpGrade::Instance().GetMountUpGradeExistingExp());

  00024	e8 00 00 00 00	 call	 ?GetMountUpGradeExistingExp@CPythonMountUpGrade@@QBEIXZ ; CPythonMountUpGrade::GetMountUpGradeExistingExp
  00029	50		 push	 eax
  0002a	68 00 00 00 00	 push	 OFFSET ??_C@_01KBJDNOO@i@
  0002f	ff 15 00 00 00
	00		 call	 DWORD PTR __imp__Py_BuildValue
  00035	83 c4 08	 add	 esp, 8

; 120  : }

  00038	c3		 ret	 0
?GetMountUpGradeExistingExp@@YAPAU_object@@PAU1@0@Z ENDP ; GetMountUpGradeExistingExp
_TEXT	ENDS
; Function compile flags: /Ogtp
; File C:\Anka2Project\Anka2Project\Source\Binary\source\UserInterface\PythonMountUpGrade.cpp
; File C:\Anka2Project\Anka2Project\Source\Binary\source\eterBase\Singleton.h
; File C:\Anka2Project\Anka2Project\Source\Binary\source\UserInterface\PythonMountUpGrade.cpp
;	COMDAT ?GetMountUpGradeNecessaryExp@@YAPAU_object@@PAU1@0@Z
_TEXT	SEGMENT
_poSelf$ = 8						; size = 4
_poArgs$ = 12						; size = 4
?GetMountUpGradeNecessaryExp@@YAPAU_object@@PAU1@0@Z PROC ; GetMountUpGradeNecessaryExp, COMDAT
; File C:\Anka2Project\Anka2Project\Source\Binary\source\eterBase\Singleton.h

; 26   : 		assert(ms_singleton);

  00000	8b 0d 00 00 00
	00		 mov	 ecx, DWORD PTR ?ms_singleton@?$CSingleton@VCPythonMountUpGrade@@@@0PAVCPythonMountUpGrade@@A ; CSingleton<CPythonMountUpGrade>::ms_singleton
  00006	85 c9		 test	 ecx, ecx
  00008	75 1a		 jne	 SHORT $LN5@GetMountUp
  0000a	6a 1a		 push	 26			; 0000001aH
  0000c	68 00 00 00 00	 push	 OFFSET ??_C@_1IO@CAJLEEOI@?$AAC?$AA?3?$AA?2?$AAA?$AAn?$AAk?$AAa?$AA2?$AAP?$AAr?$AAo?$AAj?$AAe?$AAc?$AAt@
  00011	68 00 00 00 00	 push	 OFFSET ??_C@_1BK@FMEHPMFE@?$AAm?$AAs?$AA_?$AAs?$AAi?$AAn?$AAg?$AAl?$AAe?$AAt?$AAo?$AAn@
  00016	e8 00 00 00 00	 call	 __wassert
  0001b	8b 0d 00 00 00
	00		 mov	 ecx, DWORD PTR ?ms_singleton@?$CSingleton@VCPythonMountUpGrade@@@@0PAVCPythonMountUpGrade@@A ; CSingleton<CPythonMountUpGrade>::ms_singleton
  00021	83 c4 0c	 add	 esp, 12			; 0000000cH
$LN5@GetMountUp:
; File C:\Anka2Project\Anka2Project\Source\Binary\source\UserInterface\PythonMountUpGrade.cpp

; 124  : 	return Py_BuildValue("i", CPythonMountUpGrade::Instance().GetMountUpGradeNecessaryExp());

  00024	e8 00 00 00 00	 call	 ?GetMountUpGradeNecessaryExp@CPythonMountUpGrade@@QBEIXZ ; CPythonMountUpGrade::GetMountUpGradeNecessaryExp
  00029	50		 push	 eax
  0002a	68 00 00 00 00	 push	 OFFSET ??_C@_01KBJDNOO@i@
  0002f	ff 15 00 00 00
	00		 call	 DWORD PTR __imp__Py_BuildValue
  00035	83 c4 08	 add	 esp, 8

; 125  : }

  00038	c3		 ret	 0
?GetMountUpGradeNecessaryExp@@YAPAU_object@@PAU1@0@Z ENDP ; GetMountUpGradeNecessaryExp
_TEXT	ENDS
; Function compile flags: /Ogtp
; File C:\Anka2Project\Anka2Project\Source\Binary\source\UserInterface\PythonMountUpGrade.cpp
;	COMDAT ?initmountupgrade@@YAXXZ
_TEXT	SEGMENT
?initmountupgrade@@YAXXZ PROC				; initmountupgrade, COMDAT

; 144  : {

  00000	56		 push	 esi
  00001	57		 push	 edi

; 145  : 	static PyMethodDef s_methods[] =
; 146  : 	{
; 147  : 		{ "Send", Send, METH_VARARGS },
; 148  : 		{ "Reset", Reset, METH_VARARGS },
; 149  : 		{ "GetHorseLevel", GetHorseLevel, METH_VARARGS },
; 150  : 		{ "GetMountUpGradePrice", GetMountUpGradePrice, METH_VARARGS },
; 151  : 		{ "IsMountUpGradeFail", IsMountUpGradeFail, METH_VARARGS },
; 152  : 		{ "GetMountExistingExp", GetMountUpGradeExistingExp, METH_VARARGS },
; 153  : 		{ "GetMountNecessaryExp", GetMountUpGradeNecessaryExp, METH_VARARGS },
; 154  : 		{ "SetWindow", SetWindow, METH_VARARGS },
; 155  : 		{ "DestroyWindow", DestroyWindow, METH_VARARGS },
; 156  : 
; 157  : 		{ NULL, NULL, NULL },
; 158  : 	};
; 159  : 
; 160  : 	PyObject * poModule = Py_InitModule("mupgrd", s_methods);

  00002	68 f5 03 00 00	 push	 1013			; 000003f5H
  00007	6a 00		 push	 0
  00009	6a 00		 push	 0
  0000b	68 00 00 00 00	 push	 OFFSET ?s_methods@?1??initmountupgrade@@YAXXZ@4PAUPyMethodDef@@A
  00010	68 00 00 00 00	 push	 OFFSET ??_C@_06NKNKKMDO@mupgrd@
  00015	ff 15 00 00 00
	00		 call	 DWORD PTR __imp__Py_InitModule4

; 161  : 
; 162  : 	/* CG SubHeader */
; 163  : 	PyModule_AddIntConstant(poModule, "MOUNT_UP_GRADE_EXP", CPythonMountUpGrade::EMountUpGradeCGSubheaderType::SUBHEADER_CG_MOUNT_UP_GRADE_EXP);

  0001b	8b 35 00 00 00
	00		 mov	 esi, DWORD PTR __imp__PyModule_AddIntConstant
  00021	8b f8		 mov	 edi, eax
  00023	6a 00		 push	 0
  00025	68 00 00 00 00	 push	 OFFSET ??_C@_0BD@PBDICIML@MOUNT_UP_GRADE_EXP@
  0002a	57		 push	 edi
  0002b	ff d6		 call	 esi

; 164  : 	PyModule_AddIntConstant(poModule, "MOUNT_UP_GRADE_LEVEL_UP", CPythonMountUpGrade::EMountUpGradeCGSubheaderType::SUBHEADER_CG_MOUNT_UP_GRADE_LEVEL_UP);

  0002d	6a 01		 push	 1
  0002f	68 00 00 00 00	 push	 OFFSET ??_C@_0BI@HFGFBNDI@MOUNT_UP_GRADE_LEVEL_UP@
  00034	57		 push	 edi
  00035	ff d6		 call	 esi

; 165  : 
; 166  : 	/* Chat Type */
; 167  : 	PyModule_AddIntConstant(poModule, "CHAT_TYPE_BANN_WHILE_MOUNTING", CPythonMountUpGrade::EMountUpGradeChatType::CHAT_TYPE_BANN_WHILE_MOUNTING);

  00037	6a 00		 push	 0
  00039	68 00 00 00 00	 push	 OFFSET ??_C@_0BO@GDHHJMOB@CHAT_TYPE_BANN_WHILE_MOUNTING@
  0003e	57		 push	 edi
  0003f	ff d6		 call	 esi

; 168  : 	PyModule_AddIntConstant(poModule, "CHAT_TYPE_LEVEL_UP_YANG_OR_FEED_NOT_ENOUGH", CPythonMountUpGrade::EMountUpGradeChatType::CHAT_TYPE_LEVEL_UP_YANG_OR_FEED_NOT_ENOUGH);

  00041	6a 01		 push	 1
  00043	68 00 00 00 00	 push	 OFFSET ??_C@_0CL@FGAPGPAG@CHAT_TYPE_LEVEL_UP_YANG_OR_FEED@
  00048	57		 push	 edi
  00049	ff d6		 call	 esi
  0004b	83 c4 44	 add	 esp, 68			; 00000044H

; 169  : 	PyModule_AddIntConstant(poModule, "CHAT_TYPE_LEVEL_UP_GEM_NOT_ENOUGH", CPythonMountUpGrade::EMountUpGradeChatType::CHAT_TYPE_LEVEL_UP_GEM_NOT_ENOUGH);

  0004e	6a 02		 push	 2
  00050	68 00 00 00 00	 push	 OFFSET ??_C@_0CC@KGCCKOBD@CHAT_TYPE_LEVEL_UP_GEM_NOT_ENOU@
  00055	57		 push	 edi
  00056	ff d6		 call	 esi

; 170  : 	PyModule_AddIntConstant(poModule, "CHAT_TYPE_LEVEL_UP_PERCENT_SUCCESSFUL", CPythonMountUpGrade::EMountUpGradeChatType::CHAT_TYPE_LEVEL_UP_PERCENT_SUCCESSFUL);

  00058	6a 03		 push	 3
  0005a	68 00 00 00 00	 push	 OFFSET ??_C@_0CG@EPAIHKCH@CHAT_TYPE_LEVEL_UP_PERCENT_SUCC@
  0005f	57		 push	 edi
  00060	ff d6		 call	 esi

; 171  : 	PyModule_AddIntConstant(poModule, "CHAT_TYPE_LEVEL_UP_PERCENT_FAIL", CPythonMountUpGrade::EMountUpGradeChatType::CHAT_TYPE_LEVEL_UP_PERCENT_FAIL);

  00062	6a 04		 push	 4
  00064	68 00 00 00 00	 push	 OFFSET ??_C@_0CA@HCAAACPK@CHAT_TYPE_LEVEL_UP_PERCENT_FAIL@
  00069	57		 push	 edi
  0006a	ff d6		 call	 esi

; 172  : 	PyModule_AddIntConstant(poModule, "CHAT_TYPE_EXP_HORSE_FEED", CPythonMountUpGrade::EMountUpGradeChatType::CHAT_TYPE_EXP_HORSE_FEED);

  0006c	6a 05		 push	 5
  0006e	68 00 00 00 00	 push	 OFFSET ??_C@_0BJ@CJFJIHI@CHAT_TYPE_EXP_HORSE_FEED@
  00073	57		 push	 edi
  00074	ff d6		 call	 esi

; 173  : 
; 174  : 	/* Chat Value */
; 175  : 	PyModule_AddIntConstant(poModule, "CHAT_TYPE_NO_VALUE", CPythonMountUpGrade::EMountUpGradeChatValue::CHAT_TYPE_NO_VALUE);

  00076	6a 00		 push	 0
  00078	68 00 00 00 00	 push	 OFFSET ??_C@_0BD@KDKAHPPK@CHAT_TYPE_NO_VALUE@
  0007d	57		 push	 edi
  0007e	ff d6		 call	 esi

; 176  : 
; 177  : 	/* Fail State */
; 178  : 	PyModule_AddIntConstant(poModule, "MOUNT_UP_GRADE_FAIL_OFF", CPythonMountUpGrade::EMountUpGradeFailType::MOUNT_UP_GRADE_FAIL_OFF);

  00080	6a 00		 push	 0
  00082	68 00 00 00 00	 push	 OFFSET ??_C@_0BI@KHDJDGIA@MOUNT_UP_GRADE_FAIL_OFF@
  00087	57		 push	 edi
  00088	ff d6		 call	 esi
  0008a	83 c4 48	 add	 esp, 72			; 00000048H

; 179  : 	PyModule_AddIntConstant(poModule, "MOUNT_UP_GRADE_FAIL_ON", CPythonMountUpGrade::EMountUpGradeFailType::MOUNT_UP_GRADE_FAIL_ON);

  0008d	6a 01		 push	 1
  0008f	68 00 00 00 00	 push	 OFFSET ??_C@_0BH@JHGIPEJ@MOUNT_UP_GRADE_FAIL_ON@
  00094	57		 push	 edi
  00095	ff d6		 call	 esi

; 180  : 
; 181  : 	/* LevelUp -> Item ID - Horse Feed */
; 182  : 	PyModule_AddIntConstant(poModule, "HORSE_FEED_ITEM_ID", CPythonMountUpGrade::EMountUpGradeItem::HORSE_FEED_ITEM_ID);

  00097	68 80 c3 00 00	 push	 50048			; 0000c380H
  0009c	68 00 00 00 00	 push	 OFFSET ??_C@_0BD@JEHGJLMJ@HORSE_FEED_ITEM_ID@
  000a1	57		 push	 edi
  000a2	ff d6		 call	 esi

; 183  : 	PyModule_AddIntConstant(poModule, "HORSE_FEED_LEVEL_COUNT", CPythonMountUpGrade::EMountUpGradeItem::HORSE_FEED_LEVEL_COUNT);

  000a4	6a 32		 push	 50			; 00000032H
  000a6	68 00 00 00 00	 push	 OFFSET ??_C@_0BH@JNACCMEO@HORSE_FEED_LEVEL_COUNT@
  000ab	57		 push	 edi
  000ac	ff d6		 call	 esi

; 184  : 
; 185  : 	/* Exp - Horse Feed */
; 186  : 	PyModule_AddIntConstant(poModule, "HORSE_FEED_EXP_COUNT", CPythonMountUpGrade::EMountUpGradeItem::HORSE_FEED_EXP_COUNT);

  000ae	6a 01		 push	 1
  000b0	68 00 00 00 00	 push	 OFFSET ??_C@_0BF@PCNFCMKP@HORSE_FEED_EXP_COUNT@
  000b5	57		 push	 edi
  000b6	ff d6		 call	 esi

; 187  : 
; 188  : 	/* Tooltip Price */
; 189  : 	PyModule_AddIntConstant(poModule, "TOOLTIP_YANG", CPythonMountUpGrade::EMountUpGradeTooltip::YANG);

  000b8	6a 00		 push	 0
  000ba	68 00 00 00 00	 push	 OFFSET ??_C@_0N@KOIPLHNP@TOOLTIP_YANG@
  000bf	57		 push	 edi
  000c0	ff d6		 call	 esi

; 190  : 	PyModule_AddIntConstant(poModule, "TOOLTIP_GEM", CPythonMountUpGrade::EMountUpGradeTooltip::GEM);

  000c2	6a 01		 push	 1
  000c4	68 00 00 00 00	 push	 OFFSET ??_C@_0M@CKIHJKGI@TOOLTIP_GEM@
  000c9	57		 push	 edi
  000ca	ff d6		 call	 esi
  000cc	83 c4 48	 add	 esp, 72			; 00000048H

; 191  : 
; 192  : 	/* Cost Gem */
; 193  : 	PyModule_AddIntConstant(poModule, "HORSE_LEVEL_DETERMINES_GEM_COST", CPythonMountUpGrade::EMountUpGradeRetryGemCost::HORSE_LEVEL_DETERMINES_GEM_COST);

  000cf	6a 1e		 push	 30			; 0000001eH
  000d1	68 00 00 00 00	 push	 OFFSET ??_C@_0CA@JHMKHENJ@HORSE_LEVEL_DETERMINES_GEM_COST@
  000d6	57		 push	 edi
  000d7	ff d6		 call	 esi

; 194  : 	PyModule_AddIntConstant(poModule, "HORSE_LOWER_LEVEL_RETRY_GEM_COST", CPythonMountUpGrade::EMountUpGradeRetryGemCost::HORSE_LOWER_LEVEL_RETRY_GEM_COST);

  000d9	6a 32		 push	 50			; 00000032H
  000db	68 00 00 00 00	 push	 OFFSET ??_C@_0CB@BGHCFJKM@HORSE_LOWER_LEVEL_RETRY_GEM_COS@
  000e0	57		 push	 edi
  000e1	ff d6		 call	 esi

; 195  : 	PyModule_AddIntConstant(poModule, "HORSE_UPPER_LEVEL_RETRY_GEM_COST", CPythonMountUpGrade::EMountUpGradeRetryGemCost::HORSE_UPPER_LEVEL_RETRY_GEM_COST);

  000e3	6a 64		 push	 100			; 00000064H
  000e5	68 00 00 00 00	 push	 OFFSET ??_C@_0CB@NOAMOHI@HORSE_UPPER_LEVEL_RETRY_GEM_COS@
  000ea	57		 push	 edi
  000eb	ff d6		 call	 esi

; 196  : 
; 197  : 	/* Reset */
; 198  : 	PyModule_AddIntConstant(poModule, "RESET", CPythonMountUpGrade::EMountUpGradeReset::RESET);

  000ed	6a 00		 push	 0
  000ef	68 00 00 00 00	 push	 OFFSET ??_C@_05OOFGFHKO@RESET@
  000f4	57		 push	 edi
  000f5	ff d6		 call	 esi
  000f7	83 c4 30	 add	 esp, 48			; 00000030H
  000fa	5f		 pop	 edi
  000fb	5e		 pop	 esi

; 199  : }

  000fc	c3		 ret	 0
?initmountupgrade@@YAXXZ ENDP				; initmountupgrade
_TEXT	ENDS
END
