; Listing generated by Microsoft (R) Optimizing Compiler Version 19.44.35219.0 

	TITLE	c:\anka2project\anka2project\source\binary\vs_files\userinterface\release\pythonnetworkstreamphasegameitem.obj
	.686P
	.XMM
	include listing.inc
	.model	flat

INCLUDELIB OLDNAMES

PUBLIC	??_C@_1MK@OOIHIAGH@?$AAC?$AA?3?$AA?2?$AAA?$AAn?$AAk?$AAa?$AA2?$AAP?$AAr?$AAo?$AAj?$AAe?$AAc?$AAt@ ; `string'
PUBLIC	??_C@_0EC@GGOCNHNP@CPythonNetworkStream?3?3SendSafeB@ ; `string'
PUBLIC	??_C@_0P@BMBKKGBC@OnSafeBoxError@		; `string'
PUBLIC	??_C@_1IK@DDJDFHDO@?$AA?$CB?$AA?$CC?$AAC?$AAP?$AAy?$AAt?$AAh?$AAo?$AAn?$AAN?$AAe?$AAt?$AAw?$AAo?$AAr@ ; `string'
PUBLIC	??_C@_0BE@OHCDIKPF@RefreshSafeboxMoney@		; `string'
PUBLIC	??_C@_0BC@GDFDGKCD@OpenSafeboxWindow@		; `string'
PUBLIC	??_C@_0DB@JMGJIAKF@?5?$DO?$DO?5CPythonNetworkStream?3?3RecvM@ ; `string'
PUBLIC	??_C@_0P@OIFPJOPL@OpenMallWindow@		; `string'
PUBLIC	??_C@_0BJ@ENIABNOP@SendShopEndPacket?5Error?6@	; `string'
PUBLIC	??_C@_0BG@ELBKFGDM@BINARY_Highlight_Item@	; `string'
PUBLIC	??_C@_0BK@NFAAJDME@SendShopSellPacket?5Error?6@	; `string'
PUBLIC	??_C@_0BJ@GJICJJME@SendShopBuyPacket?5Error?6@	; `string'
PUBLIC	??_C@_0CP@LICKGIJF@?5SendShopSellPacketNew?$CIbySlot?$DN?$CF@ ; `string'
PUBLIC	??_C@_0BN@PEGCCLIG@SendShopAddSellPacket?5Error?6@ ; `string'
PUBLIC	??_C@_0BL@HGBMODPD@BINARY_AppendNotifyMessage@	; `string'
PUBLIC	??_C@_0BG@KBOLGOPL@CANNOT_EQUIP_EXCHANGE@	; `string'
PUBLIC	??_C@_0BI@ECNPLDED@SendItemUsePacket?5Error@	; `string'
PUBLIC	??_C@_0BC@GKDHAPBC@CANNOT_EQUIP_SHOP@		; `string'
PUBLIC	??_C@_0BJ@OIBPCJHH@SendItemDropPacket?5Error@	; `string'
PUBLIC	??_C@_0BO@FFKONCIG@SendItemUseToItemPacket?5Error@ ; `string'
PUBLIC	??_C@_0BJ@LGMFALEM@SendItemMovePacket?5Error@	; `string'
PUBLIC	??_C@_0BM@ICMBBAFL@SendItemDestroyPacket?5Error@ ; `string'
PUBLIC	??_C@_0BN@ONNLHEKF@SendQuickSlotAddPacket?5Error@ ; `string'
PUBLIC	??_C@_0BL@DCHNPPOD@SendItemPickUpPacket?5Error@	; `string'
PUBLIC	??_C@_0BO@MHEMOJBJ@SendQuickSlotSwapPacket?5Error@ ; `string'
PUBLIC	??_C@_0BN@BNCAGMGN@SendQuickSlotDelPacket?5Error@ ; `string'
PUBLIC	??_C@_0BF@HCHHHOJB@yellow_tigerman_24_1@	; `string'
PUBLIC	??_C@_0DL@PLJBBCEI@?$CFd?5?$LE?B?5?$LO?x?$LE?B?5?$LN?$LK?F?d?$LM?H?5?$MA?L?F?e?F?$KO?5?$LJ?x?H?$KD?$MA?T@ ; `string'
PUBLIC	??_C@_0CD@JEDDBPLN@BINARY_DragonSoulRefineWindow_O@ ; `string'
PUBLIC	??_C@_0BM@PCGGGFKG@sound?1ambience?1gm_alert?4wav@ ; `string'
PUBLIC	??_C@_0CM@IKKNFKOL@BINARY_DragonSoulRefineWindow_R@ ; `string'
PUBLIC	??_C@_0CJ@JCBKPBPN@BINARY_DragonSoulRefineWindow_R@ ; `string'
PUBLIC	??_C@_0CA@KOMANMDP@SendOfflineShopBuyPacket?5Error?6@ ; `string'
PUBLIC	??_C@_0CA@IKMCFIBE@SendOfflineShopEndPacket?5Error?6@ ; `string'
PUBLIC	??_C@_0CB@EICBIFFE@SendRemoveOfflineShopItem?5Error@ ; `string'
PUBLIC	??_C@_0BO@HOGGCLNL@SendAddOfflineShopItem?5Error?6@ ; `string'
PUBLIC	??_C@_0BI@ENAMPGCK@SendOpenShopSlot?5Error?6@	; `string'
PUBLIC	??_C@_0CI@OOCPGCHH@SendRemoveOfflineShopItem?5Packe@ ; `string'
PUBLIC	??_C@_0CF@EEECAIFO@SendDestroyOfflineShop?5Packet?5E@ ; `string'
PUBLIC	??_C@_0BP@NBEBKNOJ@SendOpenShopSlot?5Packet?5Error?6@ ; `string'
PUBLIC	??_C@_0CJ@HELCMFOP@SendOfflineShopChangeTitle?5Pack@ ; `string'
PUBLIC	??_C@_0CK@KGEOCJID@SendRefreshOfflineShopMoney?5Pac@ ; `string'
PUBLIC	??_C@_0CF@EOAPAKEO@SendOfflineOpenWithVID?5Packet?5e@ ; `string'
PUBLIC	??_C@_0CD@IOCAECLN@SendOfflineShopCheck?5Packet?5err@ ; `string'
PUBLIC	??_C@_0CO@GLHEFNIB@SendOfflineShopChangeDecoration@ ; `string'
PUBLIC	??_C@_0CF@IBLCDDNC@SendOfflineOpenWithVID?5Packet?5E@ ; `string'
PUBLIC	??_C@_0CB@NABGIOIB@SendItemNewAttributePacket?5Erro@ ; `string'
PUBLIC	??_C@_0CO@KEMJGEBN@SendOfflineShopChangeDecoration@ ; `string'
PUBLIC	?ms_singleton@?$CSingleton@VCPythonSafeBox@@@@0PAVCPythonSafeBox@@A ; CSingleton<CPythonSafeBox>::ms_singleton
;	COMDAT ?ms_singleton@?$CSingleton@VCPythonSafeBox@@@@0PAVCPythonSafeBox@@A
_BSS	SEGMENT
?ms_singleton@?$CSingleton@VCPythonSafeBox@@@@0PAVCPythonSafeBox@@A DD 01H DUP (?) ; CSingleton<CPythonSafeBox>::ms_singleton
_BSS	ENDS
;	COMDAT ??_C@_0CO@KEMJGEBN@SendOfflineShopChangeDecoration@
CONST	SEGMENT
??_C@_0CO@KEMJGEBN@SendOfflineShopChangeDecoration@ DB 'SendOfflineShopCh'
	DB	'angeDecoration Packet Error', 0aH, 00H	; `string'
CONST	ENDS
;	COMDAT ??_C@_0CB@NABGIOIB@SendItemNewAttributePacket?5Erro@
CONST	SEGMENT
??_C@_0CB@NABGIOIB@SendItemNewAttributePacket?5Erro@ DB 'SendItemNewAttri'
	DB	'butePacket Error', 00H			; `string'
CONST	ENDS
;	COMDAT ??_C@_0CF@IBLCDDNC@SendOfflineOpenWithVID?5Packet?5E@
CONST	SEGMENT
??_C@_0CF@IBLCDDNC@SendOfflineOpenWithVID?5Packet?5E@ DB 'SendOfflineOpen'
	DB	'WithVID Packet Error', 0aH, 00H		; `string'
CONST	ENDS
;	COMDAT ??_C@_0CO@GLHEFNIB@SendOfflineShopChangeDecoration@
CONST	SEGMENT
??_C@_0CO@GLHEFNIB@SendOfflineShopChangeDecoration@ DB 'SendOfflineShopCh'
	DB	'angeDecoration Packet error', 0aH, 00H	; `string'
CONST	ENDS
;	COMDAT ??_C@_0CD@IOCAECLN@SendOfflineShopCheck?5Packet?5err@
CONST	SEGMENT
??_C@_0CD@IOCAECLN@SendOfflineShopCheck?5Packet?5err@ DB 'SendOfflineShop'
	DB	'Check Packet error', 0aH, 00H		; `string'
CONST	ENDS
;	COMDAT ??_C@_0CF@EOAPAKEO@SendOfflineOpenWithVID?5Packet?5e@
CONST	SEGMENT
??_C@_0CF@EOAPAKEO@SendOfflineOpenWithVID?5Packet?5e@ DB 'SendOfflineOpen'
	DB	'WithVID Packet error', 0aH, 00H		; `string'
CONST	ENDS
;	COMDAT ??_C@_0CK@KGEOCJID@SendRefreshOfflineShopMoney?5Pac@
CONST	SEGMENT
??_C@_0CK@KGEOCJID@SendRefreshOfflineShopMoney?5Pac@ DB 'SendRefreshOffli'
	DB	'neShopMoney Packet Error', 0aH, 00H		; `string'
CONST	ENDS
;	COMDAT ??_C@_0CJ@HELCMFOP@SendOfflineShopChangeTitle?5Pack@
CONST	SEGMENT
??_C@_0CJ@HELCMFOP@SendOfflineShopChangeTitle?5Pack@ DB 'SendOfflineShopC'
	DB	'hangeTitle Packet Error', 0aH, 00H		; `string'
CONST	ENDS
;	COMDAT ??_C@_0BP@NBEBKNOJ@SendOpenShopSlot?5Packet?5Error?6@
CONST	SEGMENT
??_C@_0BP@NBEBKNOJ@SendOpenShopSlot?5Packet?5Error?6@ DB 'SendOpenShopSlo'
	DB	't Packet Error', 0aH, 00H			; `string'
CONST	ENDS
;	COMDAT ??_C@_0CF@EEECAIFO@SendDestroyOfflineShop?5Packet?5E@
CONST	SEGMENT
??_C@_0CF@EEECAIFO@SendDestroyOfflineShop?5Packet?5E@ DB 'SendDestroyOffl'
	DB	'ineShop Packet Error', 0aH, 00H		; `string'
CONST	ENDS
;	COMDAT ??_C@_0CI@OOCPGCHH@SendRemoveOfflineShopItem?5Packe@
CONST	SEGMENT
??_C@_0CI@OOCPGCHH@SendRemoveOfflineShopItem?5Packe@ DB 'SendRemoveOfflin'
	DB	'eShopItem Packet Error', 0aH, 00H		; `string'
CONST	ENDS
;	COMDAT ??_C@_0BI@ENAMPGCK@SendOpenShopSlot?5Error?6@
CONST	SEGMENT
??_C@_0BI@ENAMPGCK@SendOpenShopSlot?5Error?6@ DB 'SendOpenShopSlot Error', 0aH
	DB	00H						; `string'
CONST	ENDS
;	COMDAT ??_C@_0BO@HOGGCLNL@SendAddOfflineShopItem?5Error?6@
CONST	SEGMENT
??_C@_0BO@HOGGCLNL@SendAddOfflineShopItem?5Error?6@ DB 'SendAddOfflineSho'
	DB	'pItem Error', 0aH, 00H			; `string'
CONST	ENDS
;	COMDAT ??_C@_0CB@EICBIFFE@SendRemoveOfflineShopItem?5Error@
CONST	SEGMENT
??_C@_0CB@EICBIFFE@SendRemoveOfflineShopItem?5Error@ DB 'SendRemoveOfflin'
	DB	'eShopItem Error', 0aH, 00H			; `string'
CONST	ENDS
;	COMDAT ??_C@_0CA@IKMCFIBE@SendOfflineShopEndPacket?5Error?6@
CONST	SEGMENT
??_C@_0CA@IKMCFIBE@SendOfflineShopEndPacket?5Error?6@ DB 'SendOfflineShop'
	DB	'EndPacket Error', 0aH, 00H			; `string'
CONST	ENDS
;	COMDAT ??_C@_0CA@KOMANMDP@SendOfflineShopBuyPacket?5Error?6@
CONST	SEGMENT
??_C@_0CA@KOMANMDP@SendOfflineShopBuyPacket?5Error?6@ DB 'SendOfflineShop'
	DB	'BuyPacket Error', 0aH, 00H			; `string'
CONST	ENDS
;	COMDAT ??_C@_0CJ@JCBKPBPN@BINARY_DragonSoulRefineWindow_R@
CONST	SEGMENT
??_C@_0CJ@JCBKPBPN@BINARY_DragonSoulRefineWindow_R@ DB 'BINARY_DragonSoul'
	DB	'RefineWindow_RefineFail', 00H		; `string'
CONST	ENDS
;	COMDAT ??_C@_0CM@IKKNFKOL@BINARY_DragonSoulRefineWindow_R@
CONST	SEGMENT
??_C@_0CM@IKKNFKOL@BINARY_DragonSoulRefineWindow_R@ DB 'BINARY_DragonSoul'
	DB	'RefineWindow_RefineSucceed', 00H		; `string'
CONST	ENDS
;	COMDAT ??_C@_0BM@PCGGGFKG@sound?1ambience?1gm_alert?4wav@
CONST	SEGMENT
??_C@_0BM@PCGGGFKG@sound?1ambience?1gm_alert?4wav@ DB 'sound/ambience/gm_'
	DB	'alert.wav', 00H				; `string'
CONST	ENDS
;	COMDAT ??_C@_0CD@JEDDBPLN@BINARY_DragonSoulRefineWindow_O@
CONST	SEGMENT
??_C@_0CD@JEDDBPLN@BINARY_DragonSoulRefineWindow_O@ DB 'BINARY_DragonSoul'
	DB	'RefineWindow_Open', 00H			; `string'
CONST	ENDS
;	COMDAT ??_C@_0DL@PLJBBCEI@?$CFd?5?$LE?B?5?$LO?x?$LE?B?5?$LN?$LK?F?d?$LM?H?5?$MA?L?F?e?F?$KO?5?$LJ?x?H?$KD?$MA?T@
CONST	SEGMENT
??_C@_0DL@PLJBBCEI@?$CFd?5?$LE?B?5?$LO?x?$LE?B?5?$LN?$LK?F?d?$LM?H?5?$MA?L?F?e?F?$KO?5?$LJ?x?H?$KD?$MA?T@ DB '%'
	DB	'd ', 0b4H, 0c2H, ' ', 0beH, 0f8H, 0b4H, 0c2H, ' ', 0bdH, 0baH
	DB	0c6H, 0e4H, 0bcH, 0c8H, ' ', 0c0H, 0ccH, 0c6H, 0e5H, 0c6H, 0aeH
	DB	' ', 0b9H, 0f8H, 0c8H, 0a3H, 0c0H, 0d4H, 0b4H, 0cfH, 0b4H, 0d9H
	DB	'.TPacketGCSpecialEffect', 00H		; `string'
CONST	ENDS
;	COMDAT ??_C@_0BF@HCHHHOJB@yellow_tigerman_24_1@
CONST	SEGMENT
??_C@_0BF@HCHHHOJB@yellow_tigerman_24_1@ DB 'yellow_tigerman_24_1', 00H ; `string'
CONST	ENDS
;	COMDAT ??_C@_0BN@BNCAGMGN@SendQuickSlotDelPacket?5Error@
CONST	SEGMENT
??_C@_0BN@BNCAGMGN@SendQuickSlotDelPacket?5Error@ DB 'SendQuickSlotDelPac'
	DB	'ket Error', 00H				; `string'
CONST	ENDS
;	COMDAT ??_C@_0BO@MHEMOJBJ@SendQuickSlotSwapPacket?5Error@
CONST	SEGMENT
??_C@_0BO@MHEMOJBJ@SendQuickSlotSwapPacket?5Error@ DB 'SendQuickSlotSwapP'
	DB	'acket Error', 00H				; `string'
CONST	ENDS
;	COMDAT ??_C@_0BL@DCHNPPOD@SendItemPickUpPacket?5Error@
CONST	SEGMENT
??_C@_0BL@DCHNPPOD@SendItemPickUpPacket?5Error@ DB 'SendItemPickUpPacket '
	DB	'Error', 00H					; `string'
CONST	ENDS
;	COMDAT ??_C@_0BN@ONNLHEKF@SendQuickSlotAddPacket?5Error@
CONST	SEGMENT
??_C@_0BN@ONNLHEKF@SendQuickSlotAddPacket?5Error@ DB 'SendQuickSlotAddPac'
	DB	'ket Error', 00H				; `string'
CONST	ENDS
;	COMDAT ??_C@_0BM@ICMBBAFL@SendItemDestroyPacket?5Error@
CONST	SEGMENT
??_C@_0BM@ICMBBAFL@SendItemDestroyPacket?5Error@ DB 'SendItemDestroyPacke'
	DB	't Error', 00H				; `string'
CONST	ENDS
;	COMDAT ??_C@_0BJ@LGMFALEM@SendItemMovePacket?5Error@
CONST	SEGMENT
??_C@_0BJ@LGMFALEM@SendItemMovePacket?5Error@ DB 'SendItemMovePacket Erro'
	DB	'r', 00H					; `string'
CONST	ENDS
;	COMDAT ??_C@_0BO@FFKONCIG@SendItemUseToItemPacket?5Error@
CONST	SEGMENT
??_C@_0BO@FFKONCIG@SendItemUseToItemPacket?5Error@ DB 'SendItemUseToItemP'
	DB	'acket Error', 00H				; `string'
CONST	ENDS
;	COMDAT ??_C@_0BJ@OIBPCJHH@SendItemDropPacket?5Error@
CONST	SEGMENT
??_C@_0BJ@OIBPCJHH@SendItemDropPacket?5Error@ DB 'SendItemDropPacket Erro'
	DB	'r', 00H					; `string'
CONST	ENDS
;	COMDAT ??_C@_0BC@GKDHAPBC@CANNOT_EQUIP_SHOP@
CONST	SEGMENT
??_C@_0BC@GKDHAPBC@CANNOT_EQUIP_SHOP@ DB 'CANNOT_EQUIP_SHOP', 00H ; `string'
CONST	ENDS
;	COMDAT ??_C@_0BI@ECNPLDED@SendItemUsePacket?5Error@
CONST	SEGMENT
??_C@_0BI@ECNPLDED@SendItemUsePacket?5Error@ DB 'SendItemUsePacket Error', 00H ; `string'
CONST	ENDS
;	COMDAT ??_C@_0BG@KBOLGOPL@CANNOT_EQUIP_EXCHANGE@
CONST	SEGMENT
??_C@_0BG@KBOLGOPL@CANNOT_EQUIP_EXCHANGE@ DB 'CANNOT_EQUIP_EXCHANGE', 00H ; `string'
CONST	ENDS
;	COMDAT ??_C@_0BL@HGBMODPD@BINARY_AppendNotifyMessage@
CONST	SEGMENT
??_C@_0BL@HGBMODPD@BINARY_AppendNotifyMessage@ DB 'BINARY_AppendNotifyMes'
	DB	'sage', 00H					; `string'
CONST	ENDS
;	COMDAT ??_C@_0BN@PEGCCLIG@SendShopAddSellPacket?5Error?6@
CONST	SEGMENT
??_C@_0BN@PEGCCLIG@SendShopAddSellPacket?5Error?6@ DB 'SendShopAddSellPac'
	DB	'ket Error', 0aH, 00H			; `string'
CONST	ENDS
;	COMDAT ??_C@_0CP@LICKGIJF@?5SendShopSellPacketNew?$CIbySlot?$DN?$CF@
CONST	SEGMENT
??_C@_0CP@LICKGIJF@?5SendShopSellPacketNew?$CIbySlot?$DN?$CF@ DB ' SendSh'
	DB	'opSellPacketNew(bySlot=%d, byCount=%u)', 0aH, 00H ; `string'
CONST	ENDS
;	COMDAT ??_C@_0BJ@GJICJJME@SendShopBuyPacket?5Error?6@
CONST	SEGMENT
??_C@_0BJ@GJICJJME@SendShopBuyPacket?5Error?6@ DB 'SendShopBuyPacket Erro'
	DB	'r', 0aH, 00H				; `string'
CONST	ENDS
;	COMDAT ??_C@_0BK@NFAAJDME@SendShopSellPacket?5Error?6@
CONST	SEGMENT
??_C@_0BK@NFAAJDME@SendShopSellPacket?5Error?6@ DB 'SendShopSellPacket Er'
	DB	'ror', 0aH, 00H				; `string'
CONST	ENDS
;	COMDAT ??_C@_0BG@ELBKFGDM@BINARY_Highlight_Item@
CONST	SEGMENT
??_C@_0BG@ELBKFGDM@BINARY_Highlight_Item@ DB 'BINARY_Highlight_Item', 00H ; `string'
CONST	ENDS
;	COMDAT ??_C@_0BJ@ENIABNOP@SendShopEndPacket?5Error?6@
CONST	SEGMENT
??_C@_0BJ@ENIABNOP@SendShopEndPacket?5Error?6@ DB 'SendShopEndPacket Erro'
	DB	'r', 0aH, 00H				; `string'
CONST	ENDS
;	COMDAT ??_C@_0P@OIFPJOPL@OpenMallWindow@
CONST	SEGMENT
??_C@_0P@OIFPJOPL@OpenMallWindow@ DB 'OpenMallWindow', 00H ; `string'
CONST	ENDS
;	COMDAT ??_C@_0DB@JMGJIAKF@?5?$DO?$DO?5CPythonNetworkStream?3?3RecvM@
CONST	SEGMENT
??_C@_0DB@JMGJIAKF@?5?$DO?$DO?5CPythonNetworkStream?3?3RecvM@ DB ' >> CPy'
	DB	'thonNetworkStream::RecvMallItemDelPacket', 0aH, 00H ; `string'
CONST	ENDS
;	COMDAT ??_C@_0BC@GDFDGKCD@OpenSafeboxWindow@
CONST	SEGMENT
??_C@_0BC@GDFDGKCD@OpenSafeboxWindow@ DB 'OpenSafeboxWindow', 00H ; `string'
CONST	ENDS
;	COMDAT ??_C@_0BE@OHCDIKPF@RefreshSafeboxMoney@
CONST	SEGMENT
??_C@_0BE@OHCDIKPF@RefreshSafeboxMoney@ DB 'RefreshSafeboxMoney', 00H ; `string'
CONST	ENDS
;	COMDAT ??_C@_1IK@DDJDFHDO@?$AA?$CB?$AA?$CC?$AAC?$AAP?$AAy?$AAt?$AAh?$AAo?$AAn?$AAN?$AAe?$AAt?$AAw?$AAo?$AAr@
CONST	SEGMENT
??_C@_1IK@DDJDFHDO@?$AA?$CB?$AA?$CC?$AAC?$AAP?$AAy?$AAt?$AAh?$AAo?$AAn?$AAN?$AAe?$AAt?$AAw?$AAo?$AAr@ DB '!'
	DB	00H, '"', 00H, 'C', 00H, 'P', 00H, 'y', 00H, 't', 00H, 'h', 00H
	DB	'o', 00H, 'n', 00H, 'N', 00H, 'e', 00H, 't', 00H, 'w', 00H, 'o'
	DB	00H, 'r', 00H, 'k', 00H, 'S', 00H, 't', 00H, 'r', 00H, 'e', 00H
	DB	'a', 00H, 'm', 00H, ':', 00H, ':', 00H, 'S', 00H, 'e', 00H, 'n'
	DB	00H, 'd', 00H, 'S', 00H, 'a', 00H, 'f', 00H, 'e', 00H, 'B', 00H
	DB	'o', 00H, 'x', 00H, 'M', 00H, 'o', 00H, 'n', 00H, 'e', 00H, 'y'
	DB	00H, 'P', 00H, 'a', 00H, 'c', 00H, 'k', 00H, 'e', 00H, 't', 00H
	DB	' ', 00H, '-', 00H, ' ', 00H, 0bbH, 00H, 0e7H, 00H, 0bfH, 00H, 0ebH
	DB	00H, 0c7H, 00H, 0cfH, 00H, 0c1H, 00H, 0f6H, 00H, ' ', 00H, 0beH
	DB	00H, 0caH, 00H, 0b4H, 00H, 0c2H, 00H, ' ', 00H, 0c7H, 00H, 0d4H
	DB	00H, 0bcH, 00H, 0f6H, 00H, '"', 00H, 00H, 00H ; `string'
CONST	ENDS
;	COMDAT ??_C@_0P@BMBKKGBC@OnSafeBoxError@
CONST	SEGMENT
??_C@_0P@BMBKKGBC@OnSafeBoxError@ DB 'OnSafeBoxError', 00H ; `string'
CONST	ENDS
;	COMDAT ??_C@_0EC@GGOCNHNP@CPythonNetworkStream?3?3SendSafeB@
CONST	SEGMENT
??_C@_0EC@GGOCNHNP@CPythonNetworkStream?3?3SendSafeB@ DB 'CPythonNetworkS'
	DB	'tream::SendSafeBoxMoneyPacket - ', 0bbH, 0e7H, 0bfH, 0ebH, 0c7H
	DB	0cfH, 0c1H, 0f6H, ' ', 0beH, 0caH, 0b4H, 0c2H, ' ', 0c7H, 0d4H
	DB	0bcH, 0f6H, 00H				; `string'
CONST	ENDS
;	COMDAT ??_C@_1MK@OOIHIAGH@?$AAC?$AA?3?$AA?2?$AAA?$AAn?$AAk?$AAa?$AA2?$AAP?$AAr?$AAo?$AAj?$AAe?$AAc?$AAt@
CONST	SEGMENT
??_C@_1MK@OOIHIAGH@?$AAC?$AA?3?$AA?2?$AAA?$AAn?$AAk?$AAa?$AA2?$AAP?$AAr?$AAo?$AAj?$AAe?$AAc?$AAt@ DB 'C'
	DB	00H, ':', 00H, '\', 00H, 'A', 00H, 'n', 00H, 'k', 00H, 'a', 00H
	DB	'2', 00H, 'P', 00H, 'r', 00H, 'o', 00H, 'j', 00H, 'e', 00H, 'c'
	DB	00H, 't', 00H, '\', 00H, 'A', 00H, 'n', 00H, 'k', 00H, 'a', 00H
	DB	'2', 00H, 'P', 00H, 'r', 00H, 'o', 00H, 'j', 00H, 'e', 00H, 'c'
	DB	00H, 't', 00H, '\', 00H, 'S', 00H, 'o', 00H, 'u', 00H, 'r', 00H
	DB	'c', 00H, 'e', 00H, '\', 00H, 'B', 00H, 'i', 00H, 'n', 00H, 'a'
	DB	00H, 'r', 00H, 'y', 00H, '\', 00H, 's', 00H, 'o', 00H, 'u', 00H
	DB	'r', 00H, 'c', 00H, 'e', 00H, '\', 00H, 'U', 00H, 's', 00H, 'e'
	DB	00H, 'r', 00H, 'I', 00H, 'n', 00H, 't', 00H, 'e', 00H, 'r', 00H
	DB	'f', 00H, 'a', 00H, 'c', 00H, 'e', 00H, '\', 00H, 'P', 00H, 'y'
	DB	00H, 't', 00H, 'h', 00H, 'o', 00H, 'n', 00H, 'N', 00H, 'e', 00H
	DB	't', 00H, 'w', 00H, 'o', 00H, 'r', 00H, 'k', 00H, 'S', 00H, 't'
	DB	00H, 'r', 00H, 'e', 00H, 'a', 00H, 'm', 00H, 'P', 00H, 'h', 00H
	DB	'a', 00H, 's', 00H, 'e', 00H, 'G', 00H, 'a', 00H, 'm', 00H, 'e'
	DB	00H, 'I', 00H, 't', 00H, 'e', 00H, 'm', 00H, '.', 00H, 'c', 00H
	DB	'p', 00H, 'p', 00H, 00H, 00H			; `string'
PUBLIC	?Instance@?$CSingleton@VCPythonSafeBox@@@@SAAAVCPythonSafeBox@@XZ ; CSingleton<CPythonSafeBox>::Instance
PUBLIC	??0command_item_new_attribute@@QAE@XZ		; command_item_new_attribute::command_item_new_attribute
PUBLIC	?SendOfflineShopChangeDecoration@CPythonNetworkStream@@QAE_NPBDKK@Z ; CPythonNetworkStream::SendOfflineShopChangeDecoration
PUBLIC	??0SOfflineShopAddItem@@QAE@XZ			; SOfflineShopAddItem::SOfflineShopAddItem
PUBLIC	?SendQuickSlotMovePacket@CPythonNetworkStream@@QAE_NEE@Z ; CPythonNetworkStream::SendQuickSlotMovePacket
PUBLIC	?SendQuickSlotDelPacket@CPythonNetworkStream@@QAE_NE@Z ; CPythonNetworkStream::SendQuickSlotDelPacket
PUBLIC	?SendQuickSlotAddPacket@CPythonNetworkStream@@QAE_NEEE@Z ; CPythonNetworkStream::SendQuickSlotAddPacket
PUBLIC	?SendItemsPickUpPacket@CPythonNetworkStream@@QAE_NV?$vector@KV?$allocator@K@std@@@std@@@Z ; CPythonNetworkStream::SendItemsPickUpPacket
PUBLIC	?__PlayMallItemDropSound@CPythonNetworkStream@@IAEXI@Z ; CPythonNetworkStream::__PlayMallItemDropSound
PUBLIC	?__PlaySafeBoxItemDropSound@CPythonNetworkStream@@IAEXI@Z ; CPythonNetworkStream::__PlaySafeBoxItemDropSound
PUBLIC	?__PlayInventoryItemUseSound@CPythonNetworkStream@@IAEXUSItemPos@@@Z ; CPythonNetworkStream::__PlayInventoryItemUseSound
PUBLIC	?__IsEquipItemInSlot@CPythonNetworkStream@@IAE_NUSItemPos@@@Z ; CPythonNetworkStream::__IsEquipItemInSlot
PUBLIC	??0command_item_sell@@QAE@XZ			; command_item_sell::command_item_sell
PUBLIC	??0command_item_destroy@@QAE@XZ			; command_item_destroy::command_item_destroy
PUBLIC	??0command_item_drop2@@QAE@XZ			; command_item_drop2::command_item_drop2
PUBLIC	??0command_item_drop@@QAE@XZ			; command_item_drop::command_item_drop
PUBLIC	??0command_item_use_to_item@@QAE@XZ		; command_item_use_to_item::command_item_use_to_item
PUBLIC	??0command_item_use@@QAE@XZ			; command_item_use::command_item_use
PUBLIC	??0packet_update_item@@QAE@XZ			; packet_update_item::packet_update_item
PUBLIC	??0packet_use_item@@QAE@XZ			; packet_use_item::packet_use_item
PUBLIC	??0packet_set_item@@QAE@XZ			; packet_set_item::packet_set_item
PUBLIC	??0command_mall_checkout@@QAE@XZ		; command_mall_checkout::command_mall_checkout
PUBLIC	??0packet_set_item2@@QAE@XZ			; packet_set_item2::packet_set_item2
PUBLIC	??0command_item_move@@QAE@XZ			; command_item_move::command_item_move
PUBLIC	??0command_safebox_checkout@@QAE@XZ		; command_safebox_checkout::command_safebox_checkout
PUBLIC	??0command_safebox_checkin@@QAE@XZ		; command_safebox_checkin::command_safebox_checkin
PUBLIC	??0SPacketGCDragonSoulRefine@@QAE@XZ		; SPacketGCDragonSoulRefine::SPacketGCDragonSoulRefine
PUBLIC	?RecvItemSetPacket@CPythonNetworkStream@@IAE_NXZ ; CPythonNetworkStream::RecvItemSetPacket
PUBLIC	?RecvItemSetPacket2@CPythonNetworkStream@@IAE_NXZ ; CPythonNetworkStream::RecvItemSetPacket2
PUBLIC	?RecvItemUsePacket@CPythonNetworkStream@@IAE_NXZ ; CPythonNetworkStream::RecvItemUsePacket
PUBLIC	?RecvItemUpdatePacket@CPythonNetworkStream@@IAE_NXZ ; CPythonNetworkStream::RecvItemUpdatePacket
PUBLIC	?RecvItemGroundAddPacket@CPythonNetworkStream@@IAE_NXZ ; CPythonNetworkStream::RecvItemGroundAddPacket
PUBLIC	?RecvItemGroundDelPacket@CPythonNetworkStream@@IAE_NXZ ; CPythonNetworkStream::RecvItemGroundDelPacket
PUBLIC	?RecvItemOwnership@CPythonNetworkStream@@IAE_NXZ ; CPythonNetworkStream::RecvItemOwnership
PUBLIC	?RecvQuickSlotAddPacket@CPythonNetworkStream@@IAE_NXZ ; CPythonNetworkStream::RecvQuickSlotAddPacket
PUBLIC	?RecvQuickSlotDelPacket@CPythonNetworkStream@@IAE_NXZ ; CPythonNetworkStream::RecvQuickSlotDelPacket
PUBLIC	?RecvQuickSlotMovePacket@CPythonNetworkStream@@IAE_NXZ ; CPythonNetworkStream::RecvQuickSlotMovePacket
PUBLIC	?RecvSafeBoxSetPacket@CPythonNetworkStream@@IAE_NXZ ; CPythonNetworkStream::RecvSafeBoxSetPacket
PUBLIC	?RecvSafeBoxDelPacket@CPythonNetworkStream@@IAE_NXZ ; CPythonNetworkStream::RecvSafeBoxDelPacket
PUBLIC	?RecvSafeBoxWrongPasswordPacket@CPythonNetworkStream@@IAE_NXZ ; CPythonNetworkStream::RecvSafeBoxWrongPasswordPacket
PUBLIC	?RecvSafeBoxSizePacket@CPythonNetworkStream@@IAE_NXZ ; CPythonNetworkStream::RecvSafeBoxSizePacket
PUBLIC	?RecvSafeBoxMoneyChangePacket@CPythonNetworkStream@@IAE_NXZ ; CPythonNetworkStream::RecvSafeBoxMoneyChangePacket
PUBLIC	?RecvSpecialEffect@CPythonNetworkStream@@IAE_NXZ ; CPythonNetworkStream::RecvSpecialEffect
PUBLIC	?RecvMallOpenPacket@CPythonNetworkStream@@QAE_NXZ ; CPythonNetworkStream::RecvMallOpenPacket
PUBLIC	?RecvMallItemSetPacket@CPythonNetworkStream@@QAE_NXZ ; CPythonNetworkStream::RecvMallItemSetPacket
PUBLIC	?RecvMallItemDelPacket@CPythonNetworkStream@@QAE_NXZ ; CPythonNetworkStream::RecvMallItemDelPacket
PUBLIC	?RecvSpecificEffect@CPythonNetworkStream@@IAE_NXZ ; CPythonNetworkStream::RecvSpecificEffect
PUBLIC	?RecvDragonSoulRefine@CPythonNetworkStream@@IAE_NXZ ; CPythonNetworkStream::RecvDragonSoulRefine
PUBLIC	?__PlayInventoryItemDropSound@CPythonNetworkStream@@IAEXUSItemPos@@@Z ; CPythonNetworkStream::__PlayInventoryItemDropSound
PUBLIC	?SendItemUsePacket@CPythonNetworkStream@@QAE_NUSItemPos@@@Z ; CPythonNetworkStream::SendItemUsePacket
PUBLIC	?SendItemUseToItemPacket@CPythonNetworkStream@@QAE_NUSItemPos@@0@Z ; CPythonNetworkStream::SendItemUseToItemPacket
PUBLIC	?SendItemDropPacket@CPythonNetworkStream@@QAE_NUSItemPos@@K@Z ; CPythonNetworkStream::SendItemDropPacket
PUBLIC	?SendItemDropPacketNew@CPythonNetworkStream@@QAE_NUSItemPos@@KK@Z ; CPythonNetworkStream::SendItemDropPacketNew
PUBLIC	?SendItemMovePacket@CPythonNetworkStream@@QAE_NUSItemPos@@0G@Z ; CPythonNetworkStream::SendItemMovePacket
PUBLIC	?SendItemPickUpPacket@CPythonNetworkStream@@QAE_NK@Z ; CPythonNetworkStream::SendItemPickUpPacket
PUBLIC	?SendShopEndPacket@CPythonNetworkStream@@QAE_NXZ ; CPythonNetworkStream::SendShopEndPacket
PUBLIC	?SendShopBuyPacket@CPythonNetworkStream@@QAE_NE@Z ; CPythonNetworkStream::SendShopBuyPacket
PUBLIC	?SendShopSellPacket@CPythonNetworkStream@@QAE_NE@Z ; CPythonNetworkStream::SendShopSellPacket
PUBLIC	?SendShopSellPacketNew@CPythonNetworkStream@@QAE_NEG@Z ; CPythonNetworkStream::SendShopSellPacketNew
PUBLIC	?SendSafeBoxMoneyPacket@CPythonNetworkStream@@QAE_NEK@Z ; CPythonNetworkStream::SendSafeBoxMoneyPacket
PUBLIC	?SendSafeBoxCheckinPacket@CPythonNetworkStream@@QAE_NUSItemPos@@K@Z ; CPythonNetworkStream::SendSafeBoxCheckinPacket
PUBLIC	?SendSafeBoxCheckoutPacket@CPythonNetworkStream@@QAE_NKUSItemPos@@@Z ; CPythonNetworkStream::SendSafeBoxCheckoutPacket
PUBLIC	?SendSafeBoxItemMovePacket@CPythonNetworkStream@@QAE_NKKG@Z ; CPythonNetworkStream::SendSafeBoxItemMovePacket
PUBLIC	?SendMallCheckoutPacket@CPythonNetworkStream@@QAE_NKUSItemPos@@@Z ; CPythonNetworkStream::SendMallCheckoutPacket
PUBLIC	?SendItemNewAttributePacket@CPythonNetworkStream@@QAE_NUSItemPos@@0PAE@Z ; CPythonNetworkStream::SendItemNewAttributePacket
PUBLIC	?SendItemDestroyPacket@CPythonNetworkStream@@QAE_NUSItemPos@@KG@Z ; CPythonNetworkStream::SendItemDestroyPacket
PUBLIC	?SendItemSellPacket@CPythonNetworkStream@@QAE_NUSItemPos@@K@Z ; CPythonNetworkStream::SendItemSellPacket
PUBLIC	?SendOfflineShopEndPacket@CPythonNetworkStream@@QAE_NXZ ; CPythonNetworkStream::SendOfflineShopEndPacket
PUBLIC	?SendOfflineShopBuyPacket@CPythonNetworkStream@@QAE_NKE@Z ; CPythonNetworkStream::SendOfflineShopBuyPacket
PUBLIC	?SendAddOfflineShopItem@CPythonNetworkStream@@QAE_NUSItemPos@@E_J@Z ; CPythonNetworkStream::SendAddOfflineShopItem
PUBLIC	?SendRemoveOfflineShopItem@CPythonNetworkStream@@QAE_NE@Z ; CPythonNetworkStream::SendRemoveOfflineShopItem
PUBLIC	?SendDestroyOfflineShop@CPythonNetworkStream@@QAE_NXZ ; CPythonNetworkStream::SendDestroyOfflineShop
PUBLIC	?SendTakeOfflineMoney@CPythonNetworkStream@@QAE_NXZ ; CPythonNetworkStream::SendTakeOfflineMoney
PUBLIC	?SendOfflineShopChangeTitle@CPythonNetworkStream@@QAE_NPBD@Z ; CPythonNetworkStream::SendOfflineShopChangeTitle
PUBLIC	?SendOfflineShopCheck@CPythonNetworkStream@@QAE_NXZ ; CPythonNetworkStream::SendOfflineShopCheck
PUBLIC	?SendOfflineShopButton@CPythonNetworkStream@@QAE_NXZ ; CPythonNetworkStream::SendOfflineShopButton
PUBLIC	?SendOfflineShopRemoveLogs@CPythonNetworkStream@@QAE_NXZ ; CPythonNetworkStream::SendOfflineShopRemoveLogs
PUBLIC	?SendOpenShopSlot@CPythonNetworkStream@@QAE_NE@Z ; CPythonNetworkStream::SendOpenShopSlot
PUBLIC	?SendGetBackItems@CPythonNetworkStream@@QAE_NXZ	; CPythonNetworkStream::SendGetBackItems
PUBLIC	?SendAddTime@CPythonNetworkStream@@QAE_NXZ	; CPythonNetworkStream::SendAddTime
PUBLIC	?SendOfflineOpenWithVID@CPythonNetworkStream@@QAE_NK@Z ; CPythonNetworkStream::SendOfflineOpenWithVID
;	COMDAT ?$TSS0@?1??SendTakeOfflineMoney@CPythonNetworkStream@@QAE_NXZ@4HA
_BSS	SEGMENT
?$TSS0@?1??SendTakeOfflineMoney@CPythonNetworkStream@@QAE_NXZ@4HA DD 01H DUP (?) ; `CPythonNetworkStream::SendTakeOfflineMoney'::`2'::$TSS0
_BSS	ENDS
;	COMDAT ?s_LastTime@?1??SendTakeOfflineMoney@CPythonNetworkStream@@QAE_NXZ@4KA
_BSS	SEGMENT
?s_LastTime@?1??SendTakeOfflineMoney@CPythonNetworkStream@@QAE_NXZ@4KA DD 01H DUP (?) ; `CPythonNetworkStream::SendTakeOfflineMoney'::`2'::s_LastTime
_BSS	ENDS
;	COMDAT xdata$x
xdata$x	SEGMENT
__ehfuncinfo$?SendItemsPickUpPacket@CPythonNetworkStream@@QAE_NV?$vector@KV?$allocator@K@std@@@std@@@Z DQ 00000000119930522r ; 2.33398e-314
	DD	FLAT:__unwindtable$?SendItemsPickUpPacket@CPythonNetworkStream@@QAE_NV?$vector@KV?$allocator@K@std@@@std@@@Z
	DQ	00000000000000000r		; 0
	DQ	00000000000000000r		; 0
	DQ	00000000100000000r		; 2.122e-314
__unwindtable$?SendItemsPickUpPacket@CPythonNetworkStream@@QAE_NV?$vector@KV?$allocator@K@std@@@std@@@Z DD 0ffffffffH
	DD	FLAT:__unwindfunclet$?SendItemsPickUpPacket@CPythonNetworkStream@@QAE_NV?$vector@KV?$allocator@K@std@@@std@@@Z$0
END
