; Listing generated by Microsoft (R) Optimizing Compiler Version 19.44.35219.0 

	TITLE	c:\anka2project\anka2project\source\binary\vs_files\userinterface\release\pythontexttailmodule.obj
	.686P
	.XMM
	include listing.inc
	.model	flat

INCLUDELIB OLDNAMES

PUBLIC	??_C@_0BG@CGLFBHI@UpdateShowingTextTail@	; `string'
PUBLIC	??_C@_0BC@HIDLOAIP@UpdateAllTextTail@		; `string'
PUBLIC	??_C@_0BB@NMNDPCFJ@ShowItemTextTail@		; `string'
PUBLIC	??_C@_0BG@LIPEMMLC@ShowCharacterTextTail@	; `string'
PUBLIC	??_C@_06NNDBIPNE@IsChat@			; `string'
PUBLIC	??_C@_0M@GFJLCLIA@GetPosition@			; `string'
PUBLIC	??_C@_0BA@PONNLPCF@HideAllTextTail@		; `string'
PUBLIC	??_C@_0BA@FCGIHNAB@ArrangeTextTail@		; `string'
PUBLIC	??_C@_0P@KGIJNKFO@SelectItemName@		; `string'
PUBLIC	??_C@_0BA@GALJFJJC@ShowAllTextTail@		; `string'
PUBLIC	??_C@_0BK@HJNOJEAA@RegisterCharacterTextTail@	; `string'
PUBLIC	??_C@_0O@NECGPBDE@EnablePKTitle@		; `string'
PUBLIC	??_C@_0BB@IFAJCDPP@RegisterInfoTail@		; `string'
PUBLIC	??_C@_0BB@HKPOGMDA@RegisterChatTail@		; `string'
PUBLIC	??_C@_08KDMBCLKF@textTail@			; `string'
PUBLIC	??_C@_0M@INLHDDBB@AttachTitle@			; `string'
;	COMDAT ?s_methods@?1??initTextTail@@YAXXZ@4PAUPyMethodDef@@A
_DATA	SEGMENT
?s_methods@?1??initTextTail@@YAXXZ@4PAUPyMethodDef@@A DD FLAT:??_C@_05MDNHABIA@Clear@ ; `initTextTail'::`2'::s_methods
	DD	FLAT:?textTailClear@@YAPAU_object@@PAU1@0@Z
	DD	01H
	ORG $+4
	DD	FLAT:??_C@_0BC@HIDLOAIP@UpdateAllTextTail@
	DD	FLAT:?textTailUpdateAllTextTail@@YAPAU_object@@PAU1@0@Z
	DD	01H
	ORG $+4
	DD	FLAT:??_C@_0BG@CGLFBHI@UpdateShowingTextTail@
	DD	FLAT:?textTailUpdateShowingTextTail@@YAPAU_object@@PAU1@0@Z
	DD	01H
	ORG $+4
	DD	FLAT:??_C@_06EPLDPNDB@Render@
	DD	FLAT:?textTailRender@@YAPAU_object@@PAU1@0@Z
	DD	01H
	ORG $+4
	DD	FLAT:??_C@_0BG@LIPEMMLC@ShowCharacterTextTail@
	DD	FLAT:?textTailShowCharacterTextTail@@YAPAU_object@@PAU1@0@Z
	DD	01H
	ORG $+4
	DD	FLAT:??_C@_0BB@NMNDPCFJ@ShowItemTextTail@
	DD	FLAT:?textTailShowItemTextTail@@YAPAU_object@@PAU1@0@Z
	DD	01H
	ORG $+4
	DD	FLAT:??_C@_0M@GFJLCLIA@GetPosition@
	DD	FLAT:?textTailGetPosition@@YAPAU_object@@PAU1@0@Z
	DD	01H
	ORG $+4
	DD	FLAT:??_C@_06NNDBIPNE@IsChat@
	DD	FLAT:?textTailIsChat@@YAPAU_object@@PAU1@0@Z
	DD	01H
	ORG $+4
	DD	FLAT:??_C@_0BA@FCGIHNAB@ArrangeTextTail@
	DD	FLAT:?textTailArrangeTextTail@@YAPAU_object@@PAU1@0@Z
	DD	01H
	ORG $+4
	DD	FLAT:??_C@_0BA@PONNLPCF@HideAllTextTail@
	DD	FLAT:?textTailHideAllTextTail@@YAPAU_object@@PAU1@0@Z
	DD	01H
	ORG $+4
	DD	FLAT:??_C@_0BA@GALJFJJC@ShowAllTextTail@
	DD	FLAT:?textTailShowAllTextTail@@YAPAU_object@@PAU1@0@Z
	DD	01H
	ORG $+4
	DD	FLAT:??_C@_04ILHILILF@Pick@
	DD	FLAT:?textTailPick@@YAPAU_object@@PAU1@0@Z
	DD	01H
	ORG $+4
	DD	FLAT:??_C@_0P@KGIJNKFO@SelectItemName@
	DD	FLAT:?textTailSelectItemName@@YAPAU_object@@PAU1@0@Z
	DD	01H
	ORG $+4
	DD	FLAT:??_C@_0O@NECGPBDE@EnablePKTitle@
	DD	FLAT:?textTailEnablePKTitle@@YAPAU_object@@PAU1@0@Z
	DD	01H
	ORG $+4
	DD	FLAT:??_C@_0BK@HJNOJEAA@RegisterCharacterTextTail@
	DD	FLAT:?textTailRegisterCharacterTextTail@@YAPAU_object@@PAU1@0@Z
	DD	01H
	ORG $+4
	DD	FLAT:??_C@_0BB@HKPOGMDA@RegisterChatTail@
	DD	FLAT:?textTailRegisterChatTail@@YAPAU_object@@PAU1@0@Z
	DD	01H
	ORG $+4
	DD	FLAT:??_C@_0BB@IFAJCDPP@RegisterInfoTail@
	DD	FLAT:?textTailRegisterInfoTail@@YAPAU_object@@PAU1@0@Z
	DD	01H
	ORG $+4
	DD	FLAT:??_C@_0M@INLHDDBB@AttachTitle@
	DD	FLAT:?textTailAttachTitle@@YAPAU_object@@PAU1@0@Z
	DD	01H
	ORG $+4
	DD	00H
	DD	00H
	ORG $+8
_DATA	ENDS
;	COMDAT ??_C@_0M@INLHDDBB@AttachTitle@
CONST	SEGMENT
??_C@_0M@INLHDDBB@AttachTitle@ DB 'AttachTitle', 00H	; `string'
CONST	ENDS
;	COMDAT ??_C@_08KDMBCLKF@textTail@
CONST	SEGMENT
??_C@_08KDMBCLKF@textTail@ DB 'textTail', 00H		; `string'
CONST	ENDS
;	COMDAT ??_C@_0BB@HKPOGMDA@RegisterChatTail@
CONST	SEGMENT
??_C@_0BB@HKPOGMDA@RegisterChatTail@ DB 'RegisterChatTail', 00H ; `string'
CONST	ENDS
;	COMDAT ??_C@_0BB@IFAJCDPP@RegisterInfoTail@
CONST	SEGMENT
??_C@_0BB@IFAJCDPP@RegisterInfoTail@ DB 'RegisterInfoTail', 00H ; `string'
CONST	ENDS
;	COMDAT ??_C@_0O@NECGPBDE@EnablePKTitle@
CONST	SEGMENT
??_C@_0O@NECGPBDE@EnablePKTitle@ DB 'EnablePKTitle', 00H ; `string'
CONST	ENDS
;	COMDAT ??_C@_0BK@HJNOJEAA@RegisterCharacterTextTail@
CONST	SEGMENT
??_C@_0BK@HJNOJEAA@RegisterCharacterTextTail@ DB 'RegisterCharacterTextTa'
	DB	'il', 00H					; `string'
CONST	ENDS
;	COMDAT ??_C@_0BA@GALJFJJC@ShowAllTextTail@
CONST	SEGMENT
??_C@_0BA@GALJFJJC@ShowAllTextTail@ DB 'ShowAllTextTail', 00H ; `string'
CONST	ENDS
;	COMDAT ??_C@_0P@KGIJNKFO@SelectItemName@
CONST	SEGMENT
??_C@_0P@KGIJNKFO@SelectItemName@ DB 'SelectItemName', 00H ; `string'
CONST	ENDS
;	COMDAT ??_C@_0BA@FCGIHNAB@ArrangeTextTail@
CONST	SEGMENT
??_C@_0BA@FCGIHNAB@ArrangeTextTail@ DB 'ArrangeTextTail', 00H ; `string'
CONST	ENDS
;	COMDAT ??_C@_0BA@PONNLPCF@HideAllTextTail@
CONST	SEGMENT
??_C@_0BA@PONNLPCF@HideAllTextTail@ DB 'HideAllTextTail', 00H ; `string'
CONST	ENDS
;	COMDAT ??_C@_0M@GFJLCLIA@GetPosition@
CONST	SEGMENT
??_C@_0M@GFJLCLIA@GetPosition@ DB 'GetPosition', 00H	; `string'
CONST	ENDS
;	COMDAT ??_C@_06NNDBIPNE@IsChat@
CONST	SEGMENT
??_C@_06NNDBIPNE@IsChat@ DB 'IsChat', 00H		; `string'
CONST	ENDS
;	COMDAT ??_C@_0BG@LIPEMMLC@ShowCharacterTextTail@
CONST	SEGMENT
??_C@_0BG@LIPEMMLC@ShowCharacterTextTail@ DB 'ShowCharacterTextTail', 00H ; `string'
CONST	ENDS
;	COMDAT ??_C@_0BB@NMNDPCFJ@ShowItemTextTail@
CONST	SEGMENT
??_C@_0BB@NMNDPCFJ@ShowItemTextTail@ DB 'ShowItemTextTail', 00H ; `string'
CONST	ENDS
;	COMDAT ??_C@_0BC@HIDLOAIP@UpdateAllTextTail@
CONST	SEGMENT
??_C@_0BC@HIDLOAIP@UpdateAllTextTail@ DB 'UpdateAllTextTail', 00H ; `string'
CONST	ENDS
;	COMDAT ??_C@_0BG@CGLFBHI@UpdateShowingTextTail@
CONST	SEGMENT
??_C@_0BG@CGLFBHI@UpdateShowingTextTail@ DB 'UpdateShowingTextTail', 00H ; `string'
PUBLIC	?initTextTail@@YAXXZ				; initTextTail
PUBLIC	?textTailEnablePKTitle@@YAPAU_object@@PAU1@0@Z	; textTailEnablePKTitle
PUBLIC	?textTailSelectItemName@@YAPAU_object@@PAU1@0@Z	; textTailSelectItemName
PUBLIC	?textTailPick@@YAPAU_object@@PAU1@0@Z		; textTailPick
PUBLIC	?textTailShowAllTextTail@@YAPAU_object@@PAU1@0@Z ; textTailShowAllTextTail
PUBLIC	?textTailHideAllTextTail@@YAPAU_object@@PAU1@0@Z ; textTailHideAllTextTail
PUBLIC	?textTailArrangeTextTail@@YAPAU_object@@PAU1@0@Z ; textTailArrangeTextTail
PUBLIC	?textTailShowItemTextTail@@YAPAU_object@@PAU1@0@Z ; textTailShowItemTextTail
PUBLIC	?textTailShowCharacterTextTail@@YAPAU_object@@PAU1@0@Z ; textTailShowCharacterTextTail
PUBLIC	?textTailAttachTitle@@YAPAU_object@@PAU1@0@Z	; textTailAttachTitle
PUBLIC	?textTailRegisterInfoTail@@YAPAU_object@@PAU1@0@Z ; textTailRegisterInfoTail
PUBLIC	?textTailRegisterChatTail@@YAPAU_object@@PAU1@0@Z ; textTailRegisterChatTail
PUBLIC	?textTailIsChat@@YAPAU_object@@PAU1@0@Z		; textTailIsChat
PUBLIC	?textTailGetPosition@@YAPAU_object@@PAU1@0@Z	; textTailGetPosition
PUBLIC	?textTailRegisterCharacterTextTail@@YAPAU_object@@PAU1@0@Z ; textTailRegisterCharacterTextTail
PUBLIC	?textTailRender@@YAPAU_object@@PAU1@0@Z		; textTailRender
PUBLIC	?textTailUpdateShowingTextTail@@YAPAU_object@@PAU1@0@Z ; textTailUpdateShowingTextTail
PUBLIC	?textTailUpdateAllTextTail@@YAPAU_object@@PAU1@0@Z ; textTailUpdateAllTextTail
PUBLIC	?textTailClear@@YAPAU_object@@PAU1@0@Z		; textTailClear
END
