; Listing generated by Microsoft (R) Optimizing Compiler Version 19.44.35219.0 

	TITLE	c:\anka2project\anka2project\source\binary\vs_files\userinterface\release\pythonapplicationcamera.obj
	.686P
	.XMM
	include listing.inc
	.model	flat

INCLUDELIB OLDNAMES

PUBLIC	??_C@_0BE@DMOOAJEE@CenterPos?5?$CFf?5?$CFf?5?$CFf?6@ ; `string'
PUBLIC	??_C@_0BI@PHEEAALI@CameraSetting?5?$CFf?5?$CFf?5?$CFf?6@ ; `string'
PUBLIC	??_C@_0BB@KBBGALHE@CmrPos?5?$CFf?5?$CFf?5?$CFf?6@ ; `string'
PUBLIC	??_C@_0EK@OFJKBEAJ@Line?5?$CCx?$DL?$CFd?$HMy?$DL?$CFd?$HMz?$DL?$CFd?$HMdistance?$DL?$CF@ ; `string'
PUBLIC	??_C@_09BKJKIBFC@centerpos@			; `string'
PUBLIC	??_C@_0O@GKCMOHOF@camerasetting@		; `string'
PUBLIC	??_C@_06MDBDNPGG@cmrpos@			; `string'
PUBLIC	??_C@_0BJ@DHFDPMIM@invalid?5vector?5subscript@	; `string'
EXTRN	?_Xout_of_range@std@@YAXPBD@Z:PROC		; std::_Xout_of_range
EXTRN	_atof:PROC
EXTRN	?GetTokenVector@CTextFileLoader@@QAEHABV?$basic_string@DU?$char_traits@D@std@@V?$allocator@D@2@@std@@PAPAV?$vector@V?$basic_string@DU?$char_traits@D@std@@V?$allocator@D@2@@std@@V?$allocator@V?$basic_string@DU?$char_traits@D@std@@V?$allocator@D@2@@std@@@2@@3@@Z:PROC ; CTextFileLoader::GetTokenVector
EXTRN	?GetTokenVector3@CTextFileLoader@@QAEHABV?$basic_string@DU?$char_traits@D@std@@V?$allocator@D@2@@std@@PAUD3DXVECTOR3@@@Z:PROC ; CTextFileLoader::GetTokenVector3
EXTRN	?SetTop@CTextFileLoader@@QAEXXZ:PROC		; CTextFileLoader::SetTop
EXTRN	?Load@CTextFileLoader@@QAE_NPBD@Z:PROC		; CTextFileLoader::Load
EXTRN	??1CTextFileLoader@@UAE@XZ:PROC			; CTextFileLoader::~CTextFileLoader
EXTRN	??0CTextFileLoader@@QAE@XZ:PROC			; CTextFileLoader::CTextFileLoader
EXTRN	__imp__SetFileAttributesA@8:PROC
EXTRN	?SetCurrentCamera@CCameraManager@@QAEXE@Z:PROC	; CCameraManager::SetCurrentCamera
EXTRN	?GetCurrentCameraNum@CCameraManager@@QAEEXZ:PROC ; CCameraManager::GetCurrentCameraNum
EXTRN	?IsLock@CCamera@@QAE_NXZ:PROC			; CCamera::IsLock
EXTRN	__imp__GetKeyState@4:PROC
EXTRN	?Update@CSoundManager@@QAEXXZ:PROC		; CSoundManager::Update
EXTRN	?SetDirection@CSoundManager@@QAEXMMMMMM@Z:PROC	; CSoundManager::SetDirection
EXTRN	?SetPosition@CSoundManager@@QAEXMMM@Z:PROC	; CSoundManager::SetPosition
EXTRN	?IsDraging@CCamera@@QAE_NXZ:PROC		; CCamera::IsDraging
EXTRN	?Zoom@CCamera@@QAEXM@Z:PROC			; CCamera::Zoom
EXTRN	?Pitch@CCamera@@QAEXM@Z:PROC			; CCamera::Pitch
EXTRN	?Roll@CCamera@@QAEXM@Z:PROC			; CCamera::Roll
EXTRN	?GetTargetHeight@CCamera@@QAEMXZ:PROC		; CCamera::GetTargetHeight
EXTRN	?Lock@CCamera@@QAEXXZ:PROC			; CCamera::Lock
EXTRN	?MoveAlongCross@CCamera@@QAEXM@Z:PROC		; CCamera::MoveAlongCross
EXTRN	?MoveFront@CCamera@@QAEXM@Z:PROC		; CCamera::MoveFront
EXTRN	?MoveVertical@CCamera@@QAEXM@Z:PROC		; CCamera::MoveVertical
EXTRN	?SetPositionCamera@CGraphicBase@@QAEXMMMMMM@Z:PROC ; CGraphicBase::SetPositionCamera
EXTRN	?Unlock@CCamera@@QAEXXZ:PROC			; CCamera::Unlock
EXTRN	?PrintfTabs@@YAXPAU_iobuf@@HPBDZZ:PROC		; PrintfTabs
;	COMDAT ??_C@_0BJ@DHFDPMIM@invalid?5vector?5subscript@
CONST	SEGMENT
??_C@_0BJ@DHFDPMIM@invalid?5vector?5subscript@ DB 'invalid vector subscri'
	DB	'pt', 00H					; `string'
CONST	ENDS
;	COMDAT ??_C@_06MDBDNPGG@cmrpos@
CONST	SEGMENT
??_C@_06MDBDNPGG@cmrpos@ DB 'cmrpos', 00H		; `string'
CONST	ENDS
;	COMDAT ??_C@_0O@GKCMOHOF@camerasetting@
CONST	SEGMENT
??_C@_0O@GKCMOHOF@camerasetting@ DB 'camerasetting', 00H ; `string'
CONST	ENDS
;	COMDAT ??_C@_09BKJKIBFC@centerpos@
CONST	SEGMENT
??_C@_09BKJKIBFC@centerpos@ DB 'centerpos', 00H		; `string'
CONST	ENDS
;	COMDAT ??_C@_0EK@OFJKBEAJ@Line?5?$CCx?$DL?$CFd?$HMy?$DL?$CFd?$HMz?$DL?$CFd?$HMdistance?$DL?$CF@
CONST	SEGMENT
??_C@_0EK@OFJKBEAJ@Line?5?$CCx?$DL?$CFd?$HMy?$DL?$CFd?$HMz?$DL?$CFd?$HMdistance?$DL?$CF@ DB 'L'
	DB	'ine "x;%d|y;%d|z;%d|distance;%d|pitch;%d|rot;%d|up;%d|view;%d'
	DB	'|cross;%d"', 0aH, 00H			; `string'
CONST	ENDS
;	COMDAT ??_C@_0BB@KBBGALHE@CmrPos?5?$CFf?5?$CFf?5?$CFf?6@
CONST	SEGMENT
??_C@_0BB@KBBGALHE@CmrPos?5?$CFf?5?$CFf?5?$CFf?6@ DB 'CmrPos %f %f %f', 0aH
	DB	00H						; `string'
CONST	ENDS
;	COMDAT ??_C@_0BI@PHEEAALI@CameraSetting?5?$CFf?5?$CFf?5?$CFf?6@
CONST	SEGMENT
??_C@_0BI@PHEEAALI@CameraSetting?5?$CFf?5?$CFf?5?$CFf?6@ DB 'CameraSettin'
	DB	'g %f %f %f', 0aH, 00H			; `string'
CONST	ENDS
;	COMDAT ??_C@_0BE@DMOOAJEE@CenterPos?5?$CFf?5?$CFf?5?$CFf?6@
CONST	SEGMENT
??_C@_0BE@DMOOAJEE@CenterPos?5?$CFf?5?$CFf?5?$CFf?6@ DB 'CenterPos %f %f '
	DB	'%f', 0aH, 00H				; `string'
PUBLIC	?_Xrange@?$vector@V?$basic_string@DU?$char_traits@D@std@@V?$allocator@D@2@@std@@V?$allocator@V?$basic_string@DU?$char_traits@D@std@@V?$allocator@D@2@@std@@@2@@std@@CAXXZ ; std::vector<std::basic_string<char,std::char_traits<char>,std::allocator<char> >,std::allocator<std::basic_string<char,std::char_traits<char>,std::allocator<char> > > >::_Xrange
PUBLIC	?size@?$vector@V?$basic_string@DU?$char_traits@D@std@@V?$allocator@D@2@@std@@V?$allocator@V?$basic_string@DU?$char_traits@D@std@@V?$allocator@D@2@@std@@@2@@std@@QBEIXZ ; std::vector<std::basic_string<char,std::char_traits<char>,std::allocator<char> >,std::allocator<std::basic_string<char,std::char_traits<char>,std::allocator<char> > > >::size
PUBLIC	?at@?$vector@V?$basic_string@DU?$char_traits@D@std@@V?$allocator@D@2@@std@@V?$allocator@V?$basic_string@DU?$char_traits@D@std@@V?$allocator@D@2@@std@@@2@@std@@QAEAAV?$basic_string@DU?$char_traits@D@std@@V?$allocator@D@2@@2@I@Z ; std::vector<std::basic_string<char,std::char_traits<char>,std::allocator<char> >,std::allocator<std::basic_string<char,std::char_traits<char>,std::allocator<char> > > >::at
PUBLIC	?LoadCameraSetting@CPythonApplication@@QAE_NPBD@Z ; CPythonApplication::LoadCameraSetting
PUBLIC	?SaveCameraSetting@CPythonApplication@@QAEXPBD@Z ; CPythonApplication::SaveCameraSetting
PUBLIC	?GetCameraSetting@CPythonApplication@@QAEXPAUSCameraSetting@IAbstractApplication@@@Z ; CPythonApplication::GetCameraSetting
PUBLIC	?SetCameraSetting@CPythonApplication@@QAEXABUSCameraSetting@IAbstractApplication@@@Z ; CPythonApplication::SetCameraSetting
PUBLIC	?IsLockCurrentCamera@CPythonApplication@@QAE_NXZ ; CPythonApplication::IsLockCurrentCamera
PUBLIC	?GetPitch@CPythonApplication@@QAEMXZ		; CPythonApplication::GetPitch
PUBLIC	?GetRotation@CPythonApplication@@QAEMXZ		; CPythonApplication::GetRotation
PUBLIC	?MovieResetCamera@CPythonApplication@@QAEXXZ	; CPythonApplication::MovieResetCamera
PUBLIC	?MovieZoomCamera@CPythonApplication@@QAEXH@Z	; CPythonApplication::MovieZoomCamera
PUBLIC	?MoviePitchCamera@CPythonApplication@@QAEXH@Z	; CPythonApplication::MoviePitchCamera
PUBLIC	?MovieRotateCamera@CPythonApplication@@QAEXH@Z	; CPythonApplication::MovieRotateCamera
PUBLIC	?ZoomCamera@CPythonApplication@@QAEXH@Z		; CPythonApplication::ZoomCamera
PUBLIC	?PitchCamera@CPythonApplication@@QAEXH@Z	; CPythonApplication::PitchCamera
PUBLIC	?RotateCamera@CPythonApplication@@QAEXH@Z	; CPythonApplication::RotateCamera
PUBLIC	?GetCamera@CPythonApplication@@QAEXPAM000@Z	; CPythonApplication::GetCamera
PUBLIC	?SetCamera@CPythonApplication@@QAEXMMMM@Z	; CPythonApplication::SetCamera
PUBLIC	?SetUpDirCameraSpeed@CPythonApplication@@QAEXM@Z ; CPythonApplication::SetUpDirCameraSpeed
PUBLIC	?SetCrossDirCameraSpeed@CPythonApplication@@QAEXM@Z ; CPythonApplication::SetCrossDirCameraSpeed
PUBLIC	?SetViewDirCameraSpeed@CPythonApplication@@QAEXM@Z ; CPythonApplication::SetViewDirCameraSpeed
PUBLIC	?BlendValueByLinear@@YAMMMMM@Z			; BlendValueByLinear
PUBLIC	?GetRoll@CCamera@@QBEMXZ			; CCamera::GetRoll
PUBLIC	?GetPitch@CCamera@@QBEMXZ			; CCamera::GetPitch
PUBLIC	?GetView@CCamera@@QBEABUD3DXVECTOR3@@XZ		; CCamera::GetView
PUBLIC	?GetUp@CCamera@@QBEABUD3DXVECTOR3@@XZ		; CCamera::GetUp
PUBLIC	?__UpdateCamera@CPythonApplication@@IAEXXZ	; CPythonApplication::__UpdateCamera
PUBLIC	?SetEventCamera@CPythonApplication@@UAEXABUSCameraSetting@IAbstractApplication@@@Z ; CPythonApplication::SetEventCamera
PUBLIC	?BlendEventCamera@CPythonApplication@@UAEXABUSCameraSetting@IAbstractApplication@@M@Z ; CPythonApplication::BlendEventCamera
PUBLIC	?SetDefaultCamera@CPythonApplication@@UAEXXZ	; CPythonApplication::SetDefaultCamera
?vecDropSoundFileName@@3V?$array@U?$pair@KV?$basic_string@DU?$char_traits@D@std@@V?$allocator@D@2@@std@@@std@@$04@std@@B DB 08cH DUP (?) ; vecDropSoundFileName
?vecEffectList@@3V?$vector@V?$tuple@IPBDPBD_N@std@@V?$allocator@V?$tuple@IPBDPBD_N@std@@@2@@std@@B DB 0cH DUP (?) ; vecEffectList
?characterNameColors@@3V?$map@EV?$array@E$02@std@@U?$less@E@2@V?$allocator@U?$pair@$$CBEV?$array@E$02@std@@@std@@@2@@std@@B DQ 01H DUP (?) ; characterNameColors
?characterTitleColors@@3V?$map@EV?$array@E$02@std@@U?$less@E@2@V?$allocator@U?$pair@$$CBEV?$array@E$02@std@@@std@@@2@@std@@B DQ 01H DUP (?) ; characterTitleColors
?characterTitleSystemColors@@3V?$map@EV?$array@E$02@std@@U?$less@E@2@V?$allocator@U?$pair@$$CBEV?$array@E$02@std@@@std@@@2@@std@@B DQ 01H DUP (?) ; characterTitleSystemColors
?emotionIcons@@3V?$map@EPBDU?$less@E@std@@V?$allocator@U?$pair@$$CBEPBD@std@@@2@@std@@B DQ 01H DUP (?) ; emotionIcons
?skillIndexes@@3V?$map@EV?$map@EV?$vector@EV?$allocator@E@std@@@std@@U?$less@E@2@V?$allocator@U?$pair@$$CBEV?$vector@EV?$allocator@E@std@@@std@@@std@@@2@@std@@U?$less@E@2@V?$allocator@U?$pair@$$CBEV?$map@EV?$vector@EV?$allocator@E@std@@@std@@U?$less@E@2@V?$allocator@U?$pair@$$CBEV?$vector@EV?$allocator@E@std@@@std@@@std@@@2@@std@@@std@@@2@@std@@B DQ 01H DUP (?) ; skillIndexes
?guildSkills@@3V?$map@V?$basic_string@DU?$char_traits@D@std@@V?$allocator@D@2@@std@@V?$vector@EV?$allocator@E@std@@@2@U?$less@V?$basic_string@DU?$char_traits@D@std@@V?$allocator@D@2@@std@@@2@V?$allocator@U?$pair@$$CBV?$basic_string@DU?$char_traits@D@std@@V?$allocator@D@2@@std@@V?$vector@EV?$allocator@E@std@@@2@@std@@@2@@std@@B DQ 01H DUP (?) ; guildSkills
_BSS	ENDS
;	COMDAT xdata$x
xdata$x	SEGMENT
__ehfuncinfo$??__EvecUseSoundFileName@@YAXXZ DQ 00000000619930522r ; 1.2944e-313
	DD	FLAT:__unwindtable$??__EvecUseSoundFileName@@YAXXZ
	DQ	00000000000000000r		; 0
	DQ	00000000000000000r		; 0
	DQ	00000000100000000r		; 2.122e-314
__unwindtable$??__EvecUseSoundFileName@@YAXXZ DD 0ffffffffH
	DD	FLAT:__unwindfunclet$??__EvecUseSoundFileName@@YAXXZ$0
	DD	00H
	DD	FLAT:__unwindfunclet$??__EvecUseSoundFileName@@YAXXZ$1
	DD	01H
	DD	FLAT:__unwindfunclet$??__EvecUseSoundFileName@@YAXXZ$2
	DD	02H
	DD	FLAT:__unwindfunclet$??__EvecUseSoundFileName@@YAXXZ$3
	DD	03H
	DD	FLAT:__unwindfunclet$??__EvecUseSoundFileName@@YAXXZ$4
	DD	04H
	DD	FLAT:__unwindfunclet$??__EvecUseSoundFileName@@YAXXZ$5
xdata$x	ENDS
;	COMDAT xdata$x
xdata$x	SEGMENT
__ehfuncinfo$??__FvecUseSoundFileName@@YAXXZ DQ 00000000119930522r ; 2.33398e-314
	DD	FLAT:__unwindtable$??__FvecUseSoundFileName@@YAXXZ
	DQ	00000000000000000r		; 0
	DQ	00000000000000000r		; 0
	DQ	00000000100000000r		; 2.122e-314
__unwindtable$??__FvecUseSoundFileName@@YAXXZ DD 0ffffffffH
	DD	FLAT:___std_terminate
xdata$x	ENDS
;	COMDAT xdata$x
xdata$x	SEGMENT
__ehfuncinfo$??__EvecDropSoundFileName@@YAXXZ DQ 00000000419930522r ; 8.69997e-314
	DD	FLAT:__unwindtable$??__EvecDropSoundFileName@@YAXXZ
	DQ	00000000000000000r		; 0
	DQ	00000000000000000r		; 0
	DQ	00000000100000000r		; 2.122e-314
__unwindtable$??__EvecDropSoundFileName@@YAXXZ DD 0ffffffffH
	DD	FLAT:__unwindfunclet$??__EvecDropSoundFileName@@YAXXZ$0
	DD	00H
	DD	FLAT:__unwindfunclet$??__EvecDropSoundFileName@@YAXXZ$1
	DD	01H
	DD	FLAT:__unwindfunclet$??__EvecDropSoundFileName@@YAXXZ$2
	DD	02H
	DD	FLAT:__unwindfunclet$??__EvecDropSoundFileName@@YAXXZ$3
xdata$x	ENDS
;	COMDAT xdata$x
xdata$x	SEGMENT
__ehfuncinfo$??__FvecDropSoundFileName@@YAXXZ DQ 00000000119930522r ; 2.33398e-314
	DD	FLAT:__unwindtable$??__FvecDropSoundFileName@@YAXXZ
	DQ	00000000000000000r		; 0
	DQ	00000000000000000r		; 0
	DQ	00000000100000000r		; 2.122e-314
__unwindtable$??__FvecDropSoundFileName@@YAXXZ DD 0ffffffffH
	DD	FLAT:___std_terminate
xdata$x	ENDS
;	COMDAT xdata$x
xdata$x	SEGMENT
__ehfuncinfo$??__EskillIndexes@@YAXXZ DQ 00000002819930522r ; 8.50918e-313
	DD	FLAT:__unwindtable$??__EskillIndexes@@YAXXZ
	DQ	00000000000000000r		; 0
	DQ	00000000000000000r		; 0
	DQ	00000000100000000r		; 2.122e-314
	ORG $+4
__unwindtable$??__EskillIndexes@@YAXXZ DD 0ffffffffH
	DD	FLAT:__unwindfunclet$??__EskillIndexes@@YAXXZ$0
	DD	00H
	DD	FLAT:__unwindfunclet$??__EskillIndexes@@YAXXZ$1
	DD	01H
	DD	FLAT:__unwindfunclet$??__EskillIndexes@@YAXXZ$2
	DD	00H
	DD	FLAT:__unwindfunclet$??__EskillIndexes@@YAXXZ$2
	DD	03H
	DD	FLAT:__unwindfunclet$??__EskillIndexes@@YAXXZ$4
	DD	04H
	DD	FLAT:__unwindfunclet$??__EskillIndexes@@YAXXZ$5
	DD	05H
	DD	FLAT:__unwindfunclet$??__EskillIndexes@@YAXXZ$6
	DD	06H
	DD	FLAT:__unwindfunclet$??__EskillIndexes@@YAXXZ$7
	DD	07H
	DD	FLAT:__unwindfunclet$??__EskillIndexes@@YAXXZ$8
	DD	08H
	DD	FLAT:__unwindfunclet$??__EskillIndexes@@YAXXZ$9
	DD	07H
	DD	FLAT:__unwindfunclet$??__EskillIndexes@@YAXXZ$9
	DD	0aH
	DD	FLAT:__unwindfunclet$??__EskillIndexes@@YAXXZ$11
	DD	0bH
	DD	FLAT:__unwindfunclet$??__EskillIndexes@@YAXXZ$12
	DD	0cH
	DD	FLAT:__unwindfunclet$??__EskillIndexes@@YAXXZ$13
	DD	0dH
	DD	FLAT:__unwindfunclet$??__EskillIndexes@@YAXXZ$14
	DD	0eH
	DD	FLAT:__unwindfunclet$??__EskillIndexes@@YAXXZ$15
	DD	0fH
	DD	FLAT:__unwindfunclet$??__EskillIndexes@@YAXXZ$16
	DD	0eH
	DD	FLAT:__unwindfunclet$??__EskillIndexes@@YAXXZ$16
	DD	011H
	DD	FLAT:__unwindfunclet$??__EskillIndexes@@YAXXZ$18
	DD	012H
	DD	FLAT:__unwindfunclet$??__EskillIndexes@@YAXXZ$19
	DD	013H
	DD	FLAT:__unwindfunclet$??__EskillIndexes@@YAXXZ$20
	DD	014H
	DD	FLAT:__unwindfunclet$??__EskillIndexes@@YAXXZ$21
	DD	015H
	DD	FLAT:__unwindfunclet$??__EskillIndexes@@YAXXZ$22
	DD	016H
	DD	FLAT:__unwindfunclet$??__EskillIndexes@@YAXXZ$23
	DD	015H
	DD	FLAT:__unwindfunclet$??__EskillIndexes@@YAXXZ$23
	DD	018H
	DD	FLAT:__unwindfunclet$??__EskillIndexes@@YAXXZ$25
	DD	019H
	DD	FLAT:__unwindfunclet$??__EskillIndexes@@YAXXZ$26
	DD	05H
	DD	FLAT:__unwindfunclet$??__EskillIndexes@@YAXXZ$7
	DD	01bH
	DD	FLAT:__unwindfunclet$??__EskillIndexes@@YAXXZ$9
	DD	01cH
	DD	FLAT:__unwindfunclet$??__EskillIndexes@@YAXXZ$11
	DD	01dH
	DD	FLAT:__unwindfunclet$??__EskillIndexes@@YAXXZ$12
	DD	01eH
	DD	FLAT:__unwindfunclet$??__EskillIndexes@@YAXXZ$14
	DD	01fH
	DD	FLAT:__unwindfunclet$??__EskillIndexes@@YAXXZ$16
	DD	020H
	DD	FLAT:__unwindfunclet$??__EskillIndexes@@YAXXZ$18
	DD	021H
	DD	FLAT:__unwindfunclet$??__EskillIndexes@@YAXXZ$19
	DD	022H
	DD	FLAT:__unwindfunclet$??__EskillIndexes@@YAXXZ$21
	DD	023H
	DD	FLAT:__unwindfunclet$??__EskillIndexes@@YAXXZ$23
	DD	024H
	DD	FLAT:__unwindfunclet$??__EskillIndexes@@YAXXZ$25
	DD	025H
	DD	FLAT:__unwindfunclet$??__EskillIndexes@@YAXXZ$26
	DD	026H
	DD	FLAT:__unwindfunclet$??__EskillIndexes@@YAXXZ$28
xdata$x	ENDS
;	COMDAT xdata$x
xdata$x	SEGMENT
__ehfuncinfo$??__EguildSkills@@YAXXZ DQ 00000000a19930522r ; 2.14319e-313
	DD	FLAT:__unwindtable$??__EguildSkills@@YAXXZ
	DQ	00000000000000000r		; 0
	DQ	00000000000000000r		; 0
	DQ	00000000100000000r		; 2.122e-314
	ORG $+4
__unwindtable$??__EguildSkills@@YAXXZ DD 0ffffffffH
	DD	FLAT:__unwindfunclet$??__EguildSkills@@YAXXZ$0
	DD	00H
	DD	FLAT:__unwindfunclet$??__EguildSkills@@YAXXZ$1
	DD	01H
	DD	FLAT:__unwindfunclet$??__EguildSkills@@YAXXZ$10
	DD	01H
	DD	FLAT:__unwindfunclet$??__EguildSkills@@YAXXZ$2
	DD	03H
	DD	FLAT:__unwindfunclet$??__EguildSkills@@YAXXZ$3
	DD	04H
	DD	FLAT:__unwindfunclet$??__EguildSkills@@YAXXZ$4
	DD	05H
	DD	FLAT:__unwindfunclet$??__EguildSkills@@YAXXZ$16
	DD	01H
	DD	FLAT:__unwindfunclet$??__EguildSkills@@YAXXZ$3
	DD	07H
	DD	FLAT:__unwindfunclet$??__EguildSkills@@YAXXZ$4
	DD	08H
	DD	FLAT:__unwindfunclet$??__EguildSkills@@YAXXZ$6
xdata$x	ENDS
;	COMDAT xdata$x
xdata$x	SEGMENT
__ehfuncinfo$?LoadCameraSetting@CPythonApplication@@QAE_NPBD@Z DD 019930522H
	DD	04H
	DD	FLAT:__unwindtable$?LoadCameraSetting@CPythonApplication@@QAE_NPBD@Z
	DD	2 DUP(00H)
	DD	2 DUP(00H)
	DD	00H
	DD	01H
__unwindtable$?LoadCameraSetting@CPythonApplication@@QAE_NPBD@Z DD 0ffffffffH
	DD	FLAT:__unwindfunclet$?LoadCameraSetting@CPythonApplication@@QAE_NPBD@Z$0
	DD	00H
	DD	FLAT:__unwindfunclet$?LoadCameraSetting@CPythonApplication@@QAE_NPBD@Z$1
	DD	00H
	DD	FLAT:__unwindfunclet$?LoadCameraSetting@CPythonApplication@@QAE_NPBD@Z$2
	DD	00H
	DD	FLAT:__unwindfunclet$?LoadCameraSetting@CPythonApplication@@QAE_NPBD@Z$3
	ORG $+4
?vecUseSoundFileName@@3V?$array@U?$pair@KV?$basic_string@DU?$char_traits@D@std@@V?$allocator@D@2@@std@@@std@@$06@std@@B DQ 00000000000000001r ; 4.94066e-324 ; vecUseSoundFileName
	DQ	00000000000000000r		; 0
	DQ	00000000000000000r		; 0
	DQ	00000000000000000r		; 0
	DQ	00000000000000000r		; 0
	DQ	00000000000000000r		; 0
	DQ	00000000000000000r		; 0
	DQ	00000000000000000r		; 0
	DQ	00000000000000000r		; 0
	DQ	00000000000000000r		; 0
	DQ	00000000000000000r		; 0
	DQ	00000000000000000r		; 0
	DQ	00000000000000000r		; 0
	DQ	00000000000000000r		; 0
	DQ	00000000000000000r		; 0
	DQ	00000000000000000r		; 0
	DQ	00000000000000000r		; 0
	DQ	00000000000000000r		; 0
	DQ	00000000000000000r		; 0
	DQ	00000000000000000r		; 0
	DQ	00000000000000000r		; 0
	DQ	00000000000000000r		; 0
	DQ	00000000000000000r		; 0
	DQ	00000000000000000r		; 0
	DD	00H
?vecUseSoundFileName$initializer$@@3P6AXXZA DD FLAT:??__EvecUseSoundFileName@@YAXXZ ; vecUseSoundFileName$initializer$
?vecDropSoundFileName$initializer$@@3P6AXXZA DD FLAT:??__EvecDropSoundFileName@@YAXXZ ; vecDropSoundFileName$initializer$
?vecEffectList$initializer$@@3P6AXXZA DD FLAT:??__EvecEffectList@@YAXXZ ; vecEffectList$initializer$
?characterNameColors$initializer$@@3P6AXXZA DD FLAT:??__EcharacterNameColors@@YAXXZ ; characterNameColors$initializer$
?characterTitleColors$initializer$@@3P6AXXZA DD FLAT:??__EcharacterTitleColors@@YAXXZ ; characterTitleColors$initializer$
?characterTitleSystemColors$initializer$@@3P6AXXZA DD FLAT:??__EcharacterTitleSystemColors@@YAXXZ ; characterTitleSystemColors$initializer$
?emotionIcons$initializer$@@3P6AXXZA DD FLAT:??__EemotionIcons@@YAXXZ ; emotionIcons$initializer$
?skillIndexes$initializer$@@3P6AXXZA DD FLAT:??__EskillIndexes@@YAXXZ ; skillIndexes$initializer$
?guildSkills$initializer$@@3P6AXXZA DD FLAT:??__EguildSkills@@YAXXZ ; guildSkills$initializer$
; Function compile flags: /Ogtp
; File C:\Anka2Project\Anka2Project\Source\Binary\source\UserInterface\PythonApplicationCamera.cpp
; File C:\Anka2Project\Anka2Project\Source\Binary\source\eterBase\Singleton.h
; File C:\Anka2Project\Anka2Project\Source\Binary\source\UserInterface\PythonApplicationCamera.cpp
; File C:\Anka2Project\Anka2Project\Source\Binary\source\eterBase\Singleton.h
; File C:\Anka2Project\Anka2Project\Source\Binary\source\UserInterface\PythonApplicationCamera.cpp
;	COMDAT ?__UpdateCamera@CPythonApplication@@IAEXXZ
_TEXT	SEGMENT
_fHeight$3 = -36					; size = 4
_fHeight$4 = -36					; size = 4
tv74 = -36						; size = 4
tv136 = -36						; size = 4
tv301 = -36						; size = 4
tv355 = -36						; size = 4
_fCrossDir$1$ = -36					; size = 4
_fRotation$5 = -32					; size = 4
_fRotation$6 = -32					; size = 4
_fViewDir$1$ = -32					; size = 4
_fPitch$7 = -28						; size = 4
_fPitch$8 = -28						; size = 4
_fUpDir$1$ = -28					; size = 4
_fDistance$9 = -24					; size = 4
_fDistance$10 = -24					; size = 4
_fxCenter$1$ = -24					; size = 4
_fyCenter$1$ = -20					; size = 4
_fzCenter$1$ = -16					; size = 4
_fDistance$1$ = -12					; size = 4
_fPitch$1$ = -8						; size = 4
_fcurTime$11 = -4					; size = 4
_fRotation$1$ = -4					; size = 4
?__UpdateCamera@CPythonApplication@@IAEXXZ PROC		; CPythonApplication::__UpdateCamera, COMDAT
; _this$ = ecx

; 16   : {

  00000	55		 push	 ebp
  00001	8b ec		 mov	 ebp, esp
  00003	83 ec 24	 sub	 esp, 36			; 00000024H
  00006	53		 push	 ebx
  00007	57		 push	 edi
  00008	8b f9		 mov	 edi, ecx
; File C:\Anka2Project\Anka2Project\Source\Binary\source\eterBase\Singleton.h

; 26   : 		assert(ms_singleton);

  0000a	8b 0d 00 00 00
	00		 mov	 ecx, DWORD PTR ?ms_singleton@?$CSingleton@VCCameraManager@@@@0PAVCCameraManager@@A ; CSingleton<CCameraManager>::ms_singleton
  00010	85 c9		 test	 ecx, ecx
  00012	75 1a		 jne	 SHORT $LN21@UpdateCame
  00014	6a 1a		 push	 26			; 0000001aH
  00016	68 00 00 00 00	 push	 OFFSET ??_C@_1IO@CAJLEEOI@?$AAC?$AA?3?$AA?2?$AAA?$AAn?$AAk?$AAa?$AA2?$AAP?$AAr?$AAo?$AAj?$AAe?$AAc?$AAt@
  0001b	68 00 00 00 00	 push	 OFFSET ??_C@_1BK@FMEHPMFE@?$AAm?$AAs?$AA_?$AAs?$AAi?$AAn?$AAg?$AAl?$AAe?$AAt?$AAo?$AAn@
  00020	e8 00 00 00 00	 call	 __wassert
  00025	8b 0d 00 00 00
	00		 mov	 ecx, DWORD PTR ?ms_singleton@?$CSingleton@VCCameraManager@@@@0PAVCCameraManager@@A ; CSingleton<CCameraManager>::ms_singleton
  0002b	83 c4 0c	 add	 esp, 12			; 0000000cH
$LN21@UpdateCame:
; File C:\Anka2Project\Anka2Project\Source\Binary\source\UserInterface\PythonApplicationCamera.cpp

; 19   : 	CCamera * pMainCamera = CCameraManager::Instance().GetCurrentCamera();

  0002e	e8 00 00 00 00	 call	 ?GetCurrentCamera@CCameraManager@@QAEPAVCCamera@@XZ ; CCameraManager::GetCurrentCamera
  00033	8b d8		 mov	 ebx, eax

; 20   : 	if (!pMainCamera)

  00035	85 db		 test	 ebx, ebx
  00037	0f 84 c9 04 00
	00		 je	 $LN1@UpdateCame

; 21   : 		return;
; 22   : 
; 23   : 	if (CAMERA_MODE_BLEND == m_iCameraMode)

  0003d	8b 87 2c d7 03
	00		 mov	 eax, DWORD PTR [edi+251692]
  00043	83 f8 02	 cmp	 eax, 2
  00046	0f 85 de 01 00
	00		 jne	 $LN3@UpdateCame
; File C:\Anka2Project\Anka2Project\Source\Binary\source\eterBase\Singleton.h

; 26   : 		assert(ms_singleton);

  0004c	8b 0d 00 00 00
	00		 mov	 ecx, DWORD PTR ?ms_singleton@?$CSingleton@VCTimer@@@@0PAVCTimer@@A ; CSingleton<CTimer>::ms_singleton
  00052	85 c9		 test	 ecx, ecx
  00054	75 1a		 jne	 SHORT $LN24@UpdateCame
  00056	6a 1a		 push	 26			; 0000001aH
  00058	68 00 00 00 00	 push	 OFFSET ??_C@_1IO@CAJLEEOI@?$AAC?$AA?3?$AA?2?$AAA?$AAn?$AAk?$AAa?$AA2?$AAP?$AAr?$AAo?$AAj?$AAe?$AAc?$AAt@
  0005d	68 00 00 00 00	 push	 OFFSET ??_C@_1BK@FMEHPMFE@?$AAm?$AAs?$AA_?$AAs?$AAi?$AAn?$AAg?$AAl?$AAe?$AAt?$AAo?$AAn@
  00062	e8 00 00 00 00	 call	 __wassert
  00067	8b 0d 00 00 00
	00		 mov	 ecx, DWORD PTR ?ms_singleton@?$CSingleton@VCTimer@@@@0PAVCTimer@@A ; CSingleton<CTimer>::ms_singleton
  0006d	83 c4 0c	 add	 esp, 12			; 0000000cH
$LN24@UpdateCame:
; File C:\Anka2Project\Anka2Project\Source\Binary\source\UserInterface\PythonApplicationCamera.cpp

; 25   : 		float fcurTime = CTimer::Instance().GetCurrentSecond();

  00070	e8 00 00 00 00	 call	 ?GetCurrentSecond@CTimer@@QAEMXZ ; CTimer::GetCurrentSecond

; 26   : 		float fElapsedTime = fcurTime - m_fBlendCameraStartTime;
; 27   : 
; 28   : 		float fxCenter = BlendValueByLinear(fElapsedTime, m_fBlendCameraBlendTime, m_kEventCameraSetting.v3CenterPosition.x, m_kEndBlendCameraSetting.v3CenterPosition.x);

  00075	f3 0f 10 8f 34
	d7 03 00	 movss	 xmm1, DWORD PTR [edi+251700]
  0007d	f3 0f 10 9f 38
	d7 03 00	 movss	 xmm3, DWORD PTR [edi+251704]
  00085	f3 0f 10 97 08
	d7 03 00	 movss	 xmm2, DWORD PTR [edi+251656]
  0008d	d9 5d fc	 fstp	 DWORD PTR _fcurTime$11[ebp]
  00090	f3 0f 10 65 fc	 movss	 xmm4, DWORD PTR _fcurTime$11[ebp]
  00095	f3 0f 5c a7 30
	d7 03 00	 subss	 xmm4, DWORD PTR [edi+251696]
  0009d	0f 28 c4	 movaps	 xmm0, xmm4
  000a0	e8 00 00 00 00	 call	 ?BlendValueByLinear@@YAMMMMM@Z ; BlendValueByLinear

; 29   : 		float fyCenter = BlendValueByLinear(fElapsedTime, m_fBlendCameraBlendTime, m_kEventCameraSetting.v3CenterPosition.y, m_kEndBlendCameraSetting.v3CenterPosition.y);

  000a5	f3 0f 10 9f 3c
	d7 03 00	 movss	 xmm3, DWORD PTR [edi+251708]
  000ad	f3 0f 10 97 0c
	d7 03 00	 movss	 xmm2, DWORD PTR [edi+251660]
  000b5	f3 0f 11 45 e8	 movss	 DWORD PTR _fxCenter$1$[ebp], xmm0
  000ba	0f 28 c4	 movaps	 xmm0, xmm4
  000bd	e8 00 00 00 00	 call	 ?BlendValueByLinear@@YAMMMMM@Z ; BlendValueByLinear

; 30   : 		float fzCenter = BlendValueByLinear(fElapsedTime, m_fBlendCameraBlendTime, m_kEventCameraSetting.v3CenterPosition.z, m_kEndBlendCameraSetting.v3CenterPosition.z);

  000c2	f3 0f 10 9f 40
	d7 03 00	 movss	 xmm3, DWORD PTR [edi+251712]
  000ca	f3 0f 10 97 10
	d7 03 00	 movss	 xmm2, DWORD PTR [edi+251664]
  000d2	f3 0f 11 45 ec	 movss	 DWORD PTR _fyCenter$1$[ebp], xmm0
  000d7	0f 28 c4	 movaps	 xmm0, xmm4
  000da	e8 00 00 00 00	 call	 ?BlendValueByLinear@@YAMMMMM@Z ; BlendValueByLinear

; 31   : 
; 32   : 		float fDistance = BlendValueByLinear(fElapsedTime, m_fBlendCameraBlendTime, m_kEventCameraSetting.fZoom, m_kEndBlendCameraSetting.fZoom);

  000df	f3 0f 10 9f 58
	d7 03 00	 movss	 xmm3, DWORD PTR [edi+251736]
  000e7	f3 0f 10 97 28
	d7 03 00	 movss	 xmm2, DWORD PTR [edi+251688]
  000ef	f3 0f 11 45 f0	 movss	 DWORD PTR _fzCenter$1$[ebp], xmm0
  000f4	0f 28 c4	 movaps	 xmm0, xmm4
  000f7	e8 00 00 00 00	 call	 ?BlendValueByLinear@@YAMMMMM@Z ; BlendValueByLinear

; 33   : 		float fPitch = BlendValueByLinear(fElapsedTime, m_fBlendCameraBlendTime, m_kEventCameraSetting.fPitch, m_kEndBlendCameraSetting.fPitch);

  000fc	f3 0f 10 9f 54
	d7 03 00	 movss	 xmm3, DWORD PTR [edi+251732]
  00104	f3 0f 10 97 24
	d7 03 00	 movss	 xmm2, DWORD PTR [edi+251684]
  0010c	f3 0f 11 45 f4	 movss	 DWORD PTR _fDistance$1$[ebp], xmm0
  00111	0f 28 c4	 movaps	 xmm0, xmm4
  00114	e8 00 00 00 00	 call	 ?BlendValueByLinear@@YAMMMMM@Z ; BlendValueByLinear

; 34   : 		float fRotation = BlendValueByLinear(fElapsedTime, m_fBlendCameraBlendTime, m_kEventCameraSetting.fRotation, m_kEndBlendCameraSetting.fRotation);

  00119	f3 0f 10 9f 50
	d7 03 00	 movss	 xmm3, DWORD PTR [edi+251728]
  00121	f3 0f 10 97 20
	d7 03 00	 movss	 xmm2, DWORD PTR [edi+251680]
  00129	f3 0f 11 45 f8	 movss	 DWORD PTR _fPitch$1$[ebp], xmm0
  0012e	0f 28 c4	 movaps	 xmm0, xmm4
  00131	e8 00 00 00 00	 call	 ?BlendValueByLinear@@YAMMMMM@Z ; BlendValueByLinear

; 35   : 
; 36   : 		float fUpDir = BlendValueByLinear(fElapsedTime, m_fBlendCameraBlendTime, m_kEventCameraSetting.kCmrPos.m_fUpDir, m_kEndBlendCameraSetting.kCmrPos.m_fUpDir);

  00136	f3 0f 10 9f 44
	d7 03 00	 movss	 xmm3, DWORD PTR [edi+251716]
  0013e	f3 0f 10 97 14
	d7 03 00	 movss	 xmm2, DWORD PTR [edi+251668]
  00146	f3 0f 11 45 fc	 movss	 DWORD PTR _fRotation$1$[ebp], xmm0
  0014b	0f 28 c4	 movaps	 xmm0, xmm4
  0014e	e8 00 00 00 00	 call	 ?BlendValueByLinear@@YAMMMMM@Z ; BlendValueByLinear

; 37   : 		float fViewDir = BlendValueByLinear(fElapsedTime, m_fBlendCameraBlendTime, m_kEventCameraSetting.kCmrPos.m_fViewDir, m_kEndBlendCameraSetting.kCmrPos.m_fViewDir);

  00153	f3 0f 10 9f 48
	d7 03 00	 movss	 xmm3, DWORD PTR [edi+251720]
  0015b	f3 0f 10 97 18
	d7 03 00	 movss	 xmm2, DWORD PTR [edi+251672]
  00163	f3 0f 11 45 e4	 movss	 DWORD PTR _fUpDir$1$[ebp], xmm0
  00168	0f 28 c4	 movaps	 xmm0, xmm4
  0016b	e8 00 00 00 00	 call	 ?BlendValueByLinear@@YAMMMMM@Z ; BlendValueByLinear

; 38   : 		float fCrossDir = BlendValueByLinear(fElapsedTime, m_fBlendCameraBlendTime, m_kEventCameraSetting.kCmrPos.m_fCrossDir, m_kEndBlendCameraSetting.kCmrPos.m_fCrossDir);

  00170	f3 0f 10 9f 4c
	d7 03 00	 movss	 xmm3, DWORD PTR [edi+251724]
  00178	f3 0f 10 97 1c
	d7 03 00	 movss	 xmm2, DWORD PTR [edi+251676]
  00180	f3 0f 11 45 e0	 movss	 DWORD PTR _fViewDir$1$[ebp], xmm0
  00185	0f 28 c4	 movaps	 xmm0, xmm4
  00188	e8 00 00 00 00	 call	 ?BlendValueByLinear@@YAMMMMM@Z ; BlendValueByLinear

; 39   : 
; 40   : 		// Temporary. Have to fix that this work in camera class. - [levites]
; 41   : 		pMainCamera->Unlock();

  0018d	8b cb		 mov	 ecx, ebx
  0018f	f3 0f 11 45 dc	 movss	 DWORD PTR _fCrossDir$1$[ebp], xmm0
  00194	e8 00 00 00 00	 call	 ?Unlock@CCamera@@QAEXXZ	; CCamera::Unlock

; 42   : 		m_pyGraphic.SetPositionCamera(fxCenter, fyCenter, fzCenter, fDistance, fPitch, fRotation);

  00199	f3 0f 10 45 fc	 movss	 xmm0, DWORD PTR _fRotation$1$[ebp]
  0019e	8d 8f 84 07 00
	00		 lea	 ecx, DWORD PTR [edi+1924]
  001a4	83 ec 18	 sub	 esp, 24			; 00000018H
  001a7	f3 0f 11 44 24
	14		 movss	 DWORD PTR [esp+20], xmm0
  001ad	f3 0f 10 45 f8	 movss	 xmm0, DWORD PTR _fPitch$1$[ebp]
  001b2	f3 0f 11 44 24
	10		 movss	 DWORD PTR [esp+16], xmm0
  001b8	f3 0f 10 45 f4	 movss	 xmm0, DWORD PTR _fDistance$1$[ebp]
  001bd	f3 0f 11 44 24
	0c		 movss	 DWORD PTR [esp+12], xmm0
  001c3	f3 0f 10 45 f0	 movss	 xmm0, DWORD PTR _fzCenter$1$[ebp]
  001c8	f3 0f 11 44 24
	08		 movss	 DWORD PTR [esp+8], xmm0
  001ce	f3 0f 10 45 ec	 movss	 xmm0, DWORD PTR _fyCenter$1$[ebp]
  001d3	f3 0f 11 44 24
	04		 movss	 DWORD PTR [esp+4], xmm0
  001d9	f3 0f 10 45 e8	 movss	 xmm0, DWORD PTR _fxCenter$1$[ebp]
  001de	f3 0f 11 04 24	 movss	 DWORD PTR [esp], xmm0
  001e3	e8 00 00 00 00	 call	 ?SetPositionCamera@CGraphicBase@@QAEXMMMMMM@Z ; CGraphicBase::SetPositionCamera

; 43   : 		pMainCamera->MoveVertical(fUpDir);

  001e8	f3 0f 10 45 e4	 movss	 xmm0, DWORD PTR _fUpDir$1$[ebp]
  001ed	51		 push	 ecx
  001ee	8b cb		 mov	 ecx, ebx
  001f0	f3 0f 11 04 24	 movss	 DWORD PTR [esp], xmm0
  001f5	e8 00 00 00 00	 call	 ?MoveVertical@CCamera@@QAEXM@Z ; CCamera::MoveVertical

; 44   : 		pMainCamera->MoveFront(fViewDir);

  001fa	f3 0f 10 45 e0	 movss	 xmm0, DWORD PTR _fViewDir$1$[ebp]
  001ff	51		 push	 ecx
  00200	8b cb		 mov	 ecx, ebx
  00202	f3 0f 11 04 24	 movss	 DWORD PTR [esp], xmm0
  00207	e8 00 00 00 00	 call	 ?MoveFront@CCamera@@QAEXM@Z ; CCamera::MoveFront

; 45   : 		pMainCamera->MoveAlongCross(fCrossDir);

  0020c	f3 0f 10 45 dc	 movss	 xmm0, DWORD PTR _fCrossDir$1$[ebp]
  00211	51		 push	 ecx
  00212	f3 0f 11 04 24	 movss	 DWORD PTR [esp], xmm0
  00217	8b cb		 mov	 ecx, ebx
  00219	e8 00 00 00 00	 call	 ?MoveAlongCross@CCamera@@QAEXM@Z ; CCamera::MoveAlongCross

; 46   : 		pMainCamera->Lock();

  0021e	8b cb		 mov	 ecx, ebx
  00220	e8 00 00 00 00	 call	 ?Lock@CCamera@@QAEXXZ	; CCamera::Lock

; 47   : 	}

  00225	e9 07 01 00 00	 jmp	 $LN7@UpdateCame
$LN3@UpdateCame:

; 48   : 	else if (CAMERA_MODE_STAND == m_iCameraMode)

  0022a	83 f8 01	 cmp	 eax, 1
  0022d	75 76		 jne	 SHORT $LN5@UpdateCame

; 49   : 	{
; 50   : 		float fDistance, fPitch, fRotation, fHeight;
; 51   : 		GetCamera(&fDistance, &fPitch, &fRotation, &fHeight);

  0022f	8d 45 dc	 lea	 eax, DWORD PTR _fHeight$3[ebp]
  00232	50		 push	 eax
  00233	8d 45 e0	 lea	 eax, DWORD PTR _fRotation$5[ebp]
  00236	50		 push	 eax
  00237	8d 45 e4	 lea	 eax, DWORD PTR _fPitch$7[ebp]
  0023a	50		 push	 eax
  0023b	8d 45 e8	 lea	 eax, DWORD PTR _fDistance$9[ebp]
  0023e	50		 push	 eax
  0023f	e8 00 00 00 00	 call	 ?GetCamera@CPythonApplication@@QAEXPAM000@Z ; CPythonApplication::GetCamera

; 52   : 		m_pyGraphic.SetPositionCamera(m_kEventCameraSetting.v3CenterPosition.x,

  00244	f3 0f 10 87 10
	d7 03 00	 movss	 xmm0, DWORD PTR [edi+251664]
  0024c	8b cb		 mov	 ecx, ebx
  0024e	f3 0f 11 45 dc	 movss	 DWORD PTR tv74[ebp], xmm0
  00253	e8 00 00 00 00	 call	 ?GetTargetHeight@CCamera@@QAEMXZ ; CCamera::GetTargetHeight
  00258	f3 0f 10 45 e0	 movss	 xmm0, DWORD PTR _fRotation$5[ebp]
  0025d	83 ec 18	 sub	 esp, 24			; 00000018H
  00260	d8 45 dc	 fadd	 DWORD PTR tv74[ebp]
  00263	f3 0f 11 44 24
	14		 movss	 DWORD PTR [esp+20], xmm0
  00269	f3 0f 10 45 e4	 movss	 xmm0, DWORD PTR _fPitch$7[ebp]
  0026e	f3 0f 11 44 24
	10		 movss	 DWORD PTR [esp+16], xmm0
  00274	f3 0f 10 45 e8	 movss	 xmm0, DWORD PTR _fDistance$9[ebp]
  00279	f3 0f 11 44 24
	0c		 movss	 DWORD PTR [esp+12], xmm0
  0027f	d9 5d dc	 fstp	 DWORD PTR tv301[ebp]
  00282	f3 0f 10 45 dc	 movss	 xmm0, DWORD PTR tv301[ebp]
  00287	f3 0f 11 44 24
	08		 movss	 DWORD PTR [esp+8], xmm0
  0028d	f3 0f 10 87 0c
	d7 03 00	 movss	 xmm0, DWORD PTR [edi+251660]
  00295	f3 0f 11 44 24
	04		 movss	 DWORD PTR [esp+4], xmm0
  0029b	f3 0f 10 87 08
	d7 03 00	 movss	 xmm0, DWORD PTR [edi+251656]

; 53   : 									  m_kEventCameraSetting.v3CenterPosition.y,
; 54   : 									  m_kEventCameraSetting.v3CenterPosition.z + pMainCamera->GetTargetHeight(),
; 55   : 									  fDistance, fPitch, fRotation);
; 56   : 	}

  002a3	eb 7c		 jmp	 SHORT $LN47@UpdateCame
$LN5@UpdateCame:

; 57   : 	else if (CAMERA_MODE_NORMAL == m_iCameraMode)

  002a5	85 c0		 test	 eax, eax
  002a7	0f 85 84 00 00
	00		 jne	 $LN7@UpdateCame

; 58   : 	{
; 59   : 		float fDistance, fPitch, fRotation, fHeight;
; 60   : 		GetCamera(&fDistance, &fPitch, &fRotation, &fHeight);

  002ad	8d 45 dc	 lea	 eax, DWORD PTR _fHeight$4[ebp]
  002b0	50		 push	 eax
  002b1	8d 45 e0	 lea	 eax, DWORD PTR _fRotation$6[ebp]
  002b4	50		 push	 eax
  002b5	8d 45 e4	 lea	 eax, DWORD PTR _fPitch$8[ebp]
  002b8	50		 push	 eax
  002b9	8d 45 e8	 lea	 eax, DWORD PTR _fDistance$10[ebp]
  002bc	50		 push	 eax
  002bd	e8 00 00 00 00	 call	 ?GetCamera@CPythonApplication@@QAEXPAM000@Z ; CPythonApplication::GetCamera

; 61   : 		m_pyGraphic.SetPositionCamera(m_v3CenterPosition.x, m_v3CenterPosition.y, m_v3CenterPosition.z + pMainCamera->GetTargetHeight(), fDistance, fPitch, fRotation);

  002c2	f3 0f 10 87 ac
	d6 03 00	 movss	 xmm0, DWORD PTR [edi+251564]
  002ca	8b cb		 mov	 ecx, ebx
  002cc	f3 0f 11 45 dc	 movss	 DWORD PTR tv136[ebp], xmm0
  002d1	e8 00 00 00 00	 call	 ?GetTargetHeight@CCamera@@QAEMXZ ; CCamera::GetTargetHeight
  002d6	f3 0f 10 45 e0	 movss	 xmm0, DWORD PTR _fRotation$6[ebp]
  002db	83 ec 18	 sub	 esp, 24			; 00000018H
  002de	d8 45 dc	 fadd	 DWORD PTR tv136[ebp]
  002e1	f3 0f 11 44 24
	14		 movss	 DWORD PTR [esp+20], xmm0
  002e7	f3 0f 10 45 e4	 movss	 xmm0, DWORD PTR _fPitch$8[ebp]
  002ec	f3 0f 11 44 24
	10		 movss	 DWORD PTR [esp+16], xmm0
  002f2	f3 0f 10 45 e8	 movss	 xmm0, DWORD PTR _fDistance$10[ebp]
  002f7	f3 0f 11 44 24
	0c		 movss	 DWORD PTR [esp+12], xmm0
  002fd	d9 5d dc	 fstp	 DWORD PTR tv355[ebp]
  00300	f3 0f 10 45 dc	 movss	 xmm0, DWORD PTR tv355[ebp]
  00305	f3 0f 11 44 24
	08		 movss	 DWORD PTR [esp+8], xmm0
  0030b	f3 0f 10 87 a8
	d6 03 00	 movss	 xmm0, DWORD PTR [edi+251560]
  00313	f3 0f 11 44 24
	04		 movss	 DWORD PTR [esp+4], xmm0
  00319	f3 0f 10 87 a4
	d6 03 00	 movss	 xmm0, DWORD PTR [edi+251556]
$LN47@UpdateCame:

; 62   : 	}
; 63   : 
; 64   : 	if (0.0f != m_fRotationSpeed)

  00321	8d 8f 84 07 00
	00		 lea	 ecx, DWORD PTR [edi+1924]
  00327	f3 0f 11 04 24	 movss	 DWORD PTR [esp], xmm0
  0032c	e8 00 00 00 00	 call	 ?SetPositionCamera@CGraphicBase@@QAEXMMMMMM@Z ; CGraphicBase::SetPositionCamera
$LN7@UpdateCame:
  00331	f3 0f 10 8f 5c
	d7 03 00	 movss	 xmm1, DWORD PTR [edi+251740]
  00339	0f 57 c0	 xorps	 xmm0, xmm0
  0033c	0f 2e c1	 ucomiss xmm0, xmm1
  0033f	9f		 lahf
  00340	f6 c4 44	 test	 ah, 68			; 00000044H
  00343	7b 10		 jnp	 SHORT $LN8@UpdateCame

; 65   : 		pMainCamera->Roll(m_fRotationSpeed);

  00345	51		 push	 ecx
  00346	8b cb		 mov	 ecx, ebx
  00348	f3 0f 11 0c 24	 movss	 DWORD PTR [esp], xmm1
  0034d	e8 00 00 00 00	 call	 ?Roll@CCamera@@QAEXM@Z	; CCamera::Roll
  00352	0f 57 c0	 xorps	 xmm0, xmm0
$LN8@UpdateCame:

; 66   : 	if (0.0f != m_fPitchSpeed)

  00355	f3 0f 10 8f 60
	d7 03 00	 movss	 xmm1, DWORD PTR [edi+251744]
  0035d	0f 2e c1	 ucomiss xmm0, xmm1
  00360	9f		 lahf
  00361	f6 c4 44	 test	 ah, 68			; 00000044H
  00364	7b 10		 jnp	 SHORT $LN9@UpdateCame

; 67   : 		pMainCamera->Pitch(m_fPitchSpeed);

  00366	51		 push	 ecx
  00367	8b cb		 mov	 ecx, ebx
  00369	f3 0f 11 0c 24	 movss	 DWORD PTR [esp], xmm1
  0036e	e8 00 00 00 00	 call	 ?Pitch@CCamera@@QAEXM@Z	; CCamera::Pitch
  00373	0f 57 c0	 xorps	 xmm0, xmm0
$LN9@UpdateCame:

; 68   : 	if (0.0f != m_fZoomSpeed)

  00376	f3 0f 10 8f 64
	d7 03 00	 movss	 xmm1, DWORD PTR [edi+251748]
  0037e	0f 2e c1	 ucomiss xmm0, xmm1
  00381	9f		 lahf
  00382	f6 c4 44	 test	 ah, 68			; 00000044H
  00385	7b 10		 jnp	 SHORT $LN10@UpdateCame

; 69   : 		pMainCamera->Zoom(m_fZoomSpeed);

  00387	51		 push	 ecx
  00388	8b cb		 mov	 ecx, ebx
  0038a	f3 0f 11 0c 24	 movss	 DWORD PTR [esp], xmm1
  0038f	e8 00 00 00 00	 call	 ?Zoom@CCamera@@QAEXM@Z	; CCamera::Zoom
  00394	0f 57 c0	 xorps	 xmm0, xmm0
$LN10@UpdateCame:

; 70   : 
; 71   : 	if (0.0f !=m_kCmrSpd.m_fViewDir)

  00397	f3 0f 10 8f 84
	d7 03 00	 movss	 xmm1, DWORD PTR [edi+251780]
  0039f	0f 2e c1	 ucomiss xmm0, xmm1
  003a2	9f		 lahf
  003a3	f6 c4 44	 test	 ah, 68			; 00000044H
  003a6	7b 10		 jnp	 SHORT $LN28@UpdateCame

; 72   : 		m_kCmrPos.m_fViewDir+=m_kCmrSpd.m_fViewDir;

  003a8	f3 0f 58 8f 78
	d7 03 00	 addss	 xmm1, DWORD PTR [edi+251768]
  003b0	f3 0f 11 8f 78
	d7 03 00	 movss	 DWORD PTR [edi+251768], xmm1
$LN28@UpdateCame:

; 73   : 	if (0.0f !=m_kCmrSpd.m_fCrossDir)

  003b8	f3 0f 10 8f 88
	d7 03 00	 movss	 xmm1, DWORD PTR [edi+251784]
  003c0	0f 2e c1	 ucomiss xmm0, xmm1
  003c3	9f		 lahf
  003c4	f6 c4 44	 test	 ah, 68			; 00000044H
  003c7	7b 10		 jnp	 SHORT $LN29@UpdateCame

; 74   : 		m_kCmrPos.m_fCrossDir+=m_kCmrSpd.m_fCrossDir;

  003c9	f3 0f 58 8f 7c
	d7 03 00	 addss	 xmm1, DWORD PTR [edi+251772]
  003d1	f3 0f 11 8f 7c
	d7 03 00	 movss	 DWORD PTR [edi+251772], xmm1
$LN29@UpdateCame:

; 75   : 	if (0.0f !=m_kCmrSpd.m_fUpDir)

  003d9	f3 0f 10 8f 80
	d7 03 00	 movss	 xmm1, DWORD PTR [edi+251776]
  003e1	0f 2e c1	 ucomiss xmm0, xmm1
  003e4	9f		 lahf
  003e5	f6 c4 44	 test	 ah, 68			; 00000044H
  003e8	7b 10		 jnp	 SHORT $LN30@UpdateCame

; 76   : 		m_kCmrPos.m_fUpDir+=m_kCmrSpd.m_fUpDir;

  003ea	f3 0f 58 8f 74
	d7 03 00	 addss	 xmm1, DWORD PTR [edi+251764]
  003f2	f3 0f 11 8f 74
	d7 03 00	 movss	 DWORD PTR [edi+251764], xmm1
$LN30@UpdateCame:

; 77   : 
; 78   : 	if (0.0f != m_kCmrPos.m_fViewDir)

  003fa	f3 0f 10 8f 78
	d7 03 00	 movss	 xmm1, DWORD PTR [edi+251768]
  00402	0f 2e c1	 ucomiss xmm0, xmm1
  00405	9f		 lahf
  00406	f6 c4 44	 test	 ah, 68			; 00000044H
  00409	7b 10		 jnp	 SHORT $LN14@UpdateCame

; 79   : 		pMainCamera->MoveFront(m_kCmrPos.m_fViewDir);

  0040b	51		 push	 ecx
  0040c	8b cb		 mov	 ecx, ebx
  0040e	f3 0f 11 0c 24	 movss	 DWORD PTR [esp], xmm1
  00413	e8 00 00 00 00	 call	 ?MoveFront@CCamera@@QAEXM@Z ; CCamera::MoveFront
  00418	0f 57 c0	 xorps	 xmm0, xmm0
$LN14@UpdateCame:

; 80   : 	if (0.0f != m_kCmrPos.m_fCrossDir)

  0041b	f3 0f 10 8f 7c
	d7 03 00	 movss	 xmm1, DWORD PTR [edi+251772]
  00423	0f 2e c1	 ucomiss xmm0, xmm1
  00426	9f		 lahf
  00427	f6 c4 44	 test	 ah, 68			; 00000044H
  0042a	7b 10		 jnp	 SHORT $LN15@UpdateCame

; 81   : 		pMainCamera->MoveAlongCross(m_kCmrPos.m_fCrossDir);

  0042c	51		 push	 ecx
  0042d	8b cb		 mov	 ecx, ebx
  0042f	f3 0f 11 0c 24	 movss	 DWORD PTR [esp], xmm1
  00434	e8 00 00 00 00	 call	 ?MoveAlongCross@CCamera@@QAEXM@Z ; CCamera::MoveAlongCross
  00439	0f 57 c0	 xorps	 xmm0, xmm0
$LN15@UpdateCame:

; 82   : 	if (0.0f != m_kCmrPos.m_fUpDir)

  0043c	f3 0f 10 8f 74
	d7 03 00	 movss	 xmm1, DWORD PTR [edi+251764]
  00444	0f 2e c1	 ucomiss xmm0, xmm1
  00447	9f		 lahf
  00448	f6 c4 44	 test	 ah, 68			; 00000044H
  0044b	7b 0d		 jnp	 SHORT $LN16@UpdateCame

; 83   : 		pMainCamera->MoveVertical(m_kCmrPos.m_fUpDir);

  0044d	51		 push	 ecx
  0044e	8b cb		 mov	 ecx, ebx
  00450	f3 0f 11 0c 24	 movss	 DWORD PTR [esp], xmm1
  00455	e8 00 00 00 00	 call	 ?MoveVertical@CCamera@@QAEXM@Z ; CCamera::MoveVertical
$LN16@UpdateCame:

; 84   : 
; 85   : 	//////////////////////
; 86   : 
; 87   : 	if (pMainCamera->IsDraging())

  0045a	8b cb		 mov	 ecx, ebx
  0045c	e8 00 00 00 00	 call	 ?IsDraging@CCamera@@QAE_NXZ ; CCamera::IsDraging
  00461	84 c0		 test	 al, al
  00463	74 0e		 je	 SHORT $LN17@UpdateCame

; 88   : 		SkipRenderBuffering(3000);

  00465	8b 47 20	 mov	 eax, DWORD PTR [edi+32]
  00468	8d 4f 20	 lea	 ecx, DWORD PTR [edi+32]
  0046b	68 b8 0b 00 00	 push	 3000			; 00000bb8H
  00470	ff 50 10	 call	 DWORD PTR [eax+16]
$LN17@UpdateCame:

; 89   : 
; 90   : 	//////////////////////
; 91   : 	// Sound Setting
; 92   : 	const D3DXVECTOR3 & c_rv3CameraDirection = pMainCamera->GetView();
; 93   : 	const D3DXVECTOR3 & c_rv3CameraUp = pMainCamera->GetUp();
; 94   : 	m_SoundManager.SetPosition(m_v3CenterPosition.x, m_v3CenterPosition.y, m_v3CenterPosition.z);	// Listener - 캐릭터 위치

  00473	f3 0f 10 87 ac
	d6 03 00	 movss	 xmm0, DWORD PTR [edi+251564]
  0047b	8d 8f f0 00 00
	00		 lea	 ecx, DWORD PTR [edi+240]
  00481	56		 push	 esi
  00482	83 ec 0c	 sub	 esp, 12			; 0000000cH
  00485	f3 0f 11 44 24
	08		 movss	 DWORD PTR [esp+8], xmm0
  0048b	f3 0f 10 87 a8
	d6 03 00	 movss	 xmm0, DWORD PTR [edi+251560]
  00493	f3 0f 11 44 24
	04		 movss	 DWORD PTR [esp+4], xmm0
  00499	f3 0f 10 87 a4
	d6 03 00	 movss	 xmm0, DWORD PTR [edi+251556]
  004a1	f3 0f 11 04 24	 movss	 DWORD PTR [esp], xmm0
  004a6	e8 00 00 00 00	 call	 ?SetPosition@CSoundManager@@QAEXMMM@Z ; CSoundManager::SetPosition

; 95   : 	m_SoundManager.SetDirection(c_rv3CameraDirection.x, c_rv3CameraDirection.y, c_rv3CameraDirection.z, c_rv3CameraUp.x, c_rv3CameraUp.y, c_rv3CameraUp.z);

  004ab	f3 0f 10 43 50	 movss	 xmm0, DWORD PTR [ebx+80]
  004b0	8d 8f f0 00 00
	00		 lea	 ecx, DWORD PTR [edi+240]
  004b6	83 ec 18	 sub	 esp, 24			; 00000018H
  004b9	f3 0f 11 44 24
	14		 movss	 DWORD PTR [esp+20], xmm0
  004bf	f3 0f 10 43 4c	 movss	 xmm0, DWORD PTR [ebx+76]
  004c4	f3 0f 11 44 24
	10		 movss	 DWORD PTR [esp+16], xmm0
  004ca	f3 0f 10 43 48	 movss	 xmm0, DWORD PTR [ebx+72]
  004cf	f3 0f 11 44 24
	0c		 movss	 DWORD PTR [esp+12], xmm0
  004d5	f3 0f 10 43 5c	 movss	 xmm0, DWORD PTR [ebx+92]
  004da	f3 0f 11 44 24
	08		 movss	 DWORD PTR [esp+8], xmm0
  004e0	f3 0f 10 43 58	 movss	 xmm0, DWORD PTR [ebx+88]
  004e5	f3 0f 11 44 24
	04		 movss	 DWORD PTR [esp+4], xmm0
  004eb	f3 0f 10 43 54	 movss	 xmm0, DWORD PTR [ebx+84]
  004f0	f3 0f 11 04 24	 movss	 DWORD PTR [esp], xmm0
  004f5	e8 00 00 00 00	 call	 ?SetDirection@CSoundManager@@QAEXMMMMMM@Z ; CSoundManager::SetDirection

; 96   : 	m_SoundManager.Update();

  004fa	8d 8f f0 00 00
	00		 lea	 ecx, DWORD PTR [edi+240]
  00500	e8 00 00 00 00	 call	 ?Update@CSoundManager@@QAEXXZ ; CSoundManager::Update
  00505	5e		 pop	 esi
$LN1@UpdateCame:

; 97   : 	//////////////////////
; 98   : }

  00506	5f		 pop	 edi
  00507	5b		 pop	 ebx
  00508	8b e5		 mov	 esp, ebp
  0050a	5d		 pop	 ebp
  0050b	c3		 ret	 0
?__UpdateCamera@CPythonApplication@@IAEXXZ ENDP		; CPythonApplication::__UpdateCamera
_TEXT	ENDS
; Function compile flags: /Ogtp
; File C:\Anka2Project\Anka2Project\Source\Binary\source\UserInterface\PythonApplicationCamera.cpp
;	COMDAT ?MovieRotateCamera@CPythonApplication@@QAEXH@Z
_TEXT	SEGMENT
_iDirection$ = 8					; size = 4
_fDegree$1$ = 8						; size = 4
?MovieRotateCamera@CPythonApplication@@QAEXH@Z PROC	; CPythonApplication::MovieRotateCamera, COMDAT
; _this$ = ecx

; 178  : {

  00000	55		 push	 ebp
  00001	8b ec		 mov	 ebp, esp
  00003	56		 push	 esi
  00004	8b f1		 mov	 esi, ecx

; 179  : 	if (IsLockCurrentCamera())

  00006	e8 00 00 00 00	 call	 ?IsLockCurrentCamera@CPythonApplication@@QAE_NXZ ; CPythonApplication::IsLockCurrentCamera
  0000b	84 c0		 test	 al, al
  0000d	75 5a		 jne	 SHORT $LN1@MovieRotat

; 180  : 		return;
; 181  : 
; 182  : 	float fDegree = m_fCameraRotateSpeed * float(iDirection);
; 183  : 	if (m_isSpecialCameraMode)

  0000f	83 be 8c d7 03
	00 00		 cmp	 DWORD PTR [esi+251788], 0
  00016	66 0f 6e 45 08	 movd	 xmm0, DWORD PTR _iDirection$[ebp]
  0001b	0f 5b c0	 cvtdq2ps xmm0, xmm0
  0001e	f3 0f 59 86 68
	d7 03 00	 mulss	 xmm0, DWORD PTR [esi+251752]
  00026	f3 0f 11 45 08	 movss	 DWORD PTR _fDegree$1$[ebp], xmm0
  0002b	74 34		 je	 SHORT $LN4@MovieRotat

; 184  : 	{
; 185  : 		if (GetKeyState(VK_SCROLL) & 1)

  0002d	68 91 00 00 00	 push	 145			; 00000091H
  00032	ff 15 00 00 00
	00		 call	 DWORD PTR __imp__GetKeyState@4
  00038	a8 01		 test	 al, 1
  0003a	74 20		 je	 SHORT $LN6@MovieRotat

; 186  : 		{
; 187  : 			SetCrossDirCameraSpeed(-fDegree * 6.0f);

  0003c	f3 0f 10 4d 08	 movss	 xmm1, DWORD PTR _fDegree$1$[ebp]
  00041	8b ce		 mov	 ecx, esi
  00043	0f 57 0d 00 00
	00 00		 xorps	 xmm1, DWORD PTR __xmm@80000000800000008000000080000000
  0004a	f3 0f 59 0d 00
	00 00 00	 mulss	 xmm1, DWORD PTR __real@40c00000
  00052	e8 00 00 00 00	 call	 ?SetCrossDirCameraSpeed@CPythonApplication@@QAEXM@Z ; CPythonApplication::SetCrossDirCameraSpeed
  00057	5e		 pop	 esi

; 192  : }

  00058	5d		 pop	 ebp
  00059	c2 04 00	 ret	 4
$LN6@MovieRotat:

; 184  : 	{
; 185  : 		if (GetKeyState(VK_SCROLL) & 1)

  0005c	f3 0f 10 45 08	 movss	 xmm0, DWORD PTR _fDegree$1$[ebp]
$LN4@MovieRotat:

; 188  : 			return;
; 189  : 		}
; 190  : 	}
; 191  : 	m_fRotationSpeed = fDegree;

  00061	f3 0f 11 86 5c
	d7 03 00	 movss	 DWORD PTR [esi+251740], xmm0
$LN1@MovieRotat:
  00069	5e		 pop	 esi

; 192  : }

  0006a	5d		 pop	 ebp
  0006b	c2 04 00	 ret	 4
?MovieRotateCamera@CPythonApplication@@QAEXH@Z ENDP	; CPythonApplication::MovieRotateCamera
_TEXT	ENDS
; Function compile flags: /Ogtp
; File C:\Anka2Project\Anka2Project\Source\Binary\source\UserInterface\PythonApplicationCamera.cpp
;	COMDAT ?MoviePitchCamera@CPythonApplication@@QAEXH@Z
_TEXT	SEGMENT
_iDirection$ = 8					; size = 4
_fDegree$1$ = 8						; size = 4
?MoviePitchCamera@CPythonApplication@@QAEXH@Z PROC	; CPythonApplication::MoviePitchCamera, COMDAT
; _this$ = ecx

; 195  : {

  00000	55		 push	 ebp
  00001	8b ec		 mov	 ebp, esp
  00003	56		 push	 esi
  00004	8b f1		 mov	 esi, ecx

; 196  : 	if (IsLockCurrentCamera())

  00006	e8 00 00 00 00	 call	 ?IsLockCurrentCamera@CPythonApplication@@QAE_NXZ ; CPythonApplication::IsLockCurrentCamera
  0000b	84 c0		 test	 al, al
  0000d	75 5a		 jne	 SHORT $LN1@MoviePitch

; 197  : 		return;
; 198  : 
; 199  : 	float fDegree = m_fCameraPitchSpeed * float(iDirection);
; 200  : 	if (m_isSpecialCameraMode)

  0000f	83 be 8c d7 03
	00 00		 cmp	 DWORD PTR [esi+251788], 0
  00016	66 0f 6e 45 08	 movd	 xmm0, DWORD PTR _iDirection$[ebp]
  0001b	0f 5b c0	 cvtdq2ps xmm0, xmm0
  0001e	f3 0f 59 86 6c
	d7 03 00	 mulss	 xmm0, DWORD PTR [esi+251756]
  00026	f3 0f 11 45 08	 movss	 DWORD PTR _fDegree$1$[ebp], xmm0
  0002b	74 34		 je	 SHORT $LN4@MoviePitch

; 201  : 	{
; 202  : 		if (GetKeyState(VK_SCROLL) & 1)

  0002d	68 91 00 00 00	 push	 145			; 00000091H
  00032	ff 15 00 00 00
	00		 call	 DWORD PTR __imp__GetKeyState@4
  00038	a8 01		 test	 al, 1
  0003a	74 20		 je	 SHORT $LN6@MoviePitch

; 203  : 		{
; 204  : 			SetViewDirCameraSpeed(-fDegree * 6.0f);

  0003c	f3 0f 10 4d 08	 movss	 xmm1, DWORD PTR _fDegree$1$[ebp]
  00041	8b ce		 mov	 ecx, esi
  00043	0f 57 0d 00 00
	00 00		 xorps	 xmm1, DWORD PTR __xmm@80000000800000008000000080000000
  0004a	f3 0f 59 0d 00
	00 00 00	 mulss	 xmm1, DWORD PTR __real@40c00000
  00052	e8 00 00 00 00	 call	 ?SetViewDirCameraSpeed@CPythonApplication@@QAEXM@Z ; CPythonApplication::SetViewDirCameraSpeed
  00057	5e		 pop	 esi

; 209  : }

  00058	5d		 pop	 ebp
  00059	c2 04 00	 ret	 4
$LN6@MoviePitch:

; 201  : 	{
; 202  : 		if (GetKeyState(VK_SCROLL) & 1)

  0005c	f3 0f 10 45 08	 movss	 xmm0, DWORD PTR _fDegree$1$[ebp]
$LN4@MoviePitch:

; 205  : 			return;
; 206  : 		}
; 207  : 	}
; 208  : 	m_fPitchSpeed = fDegree;

  00061	f3 0f 11 86 60
	d7 03 00	 movss	 DWORD PTR [esi+251744], xmm0
$LN1@MoviePitch:
  00069	5e		 pop	 esi

; 209  : }

  0006a	5d		 pop	 ebp
  0006b	c2 04 00	 ret	 4
?MoviePitchCamera@CPythonApplication@@QAEXH@Z ENDP	; CPythonApplication::MoviePitchCamera
_TEXT	ENDS
; Function compile flags: /Ogtp
; File C:\Anka2Project\Anka2Project\Source\Binary\source\UserInterface\PythonApplicationCamera.cpp
;	COMDAT ?MovieZoomCamera@CPythonApplication@@QAEXH@Z
_TEXT	SEGMENT
_iDirection$ = 8					; size = 4
_fRatio$1$ = 8						; size = 4
?MovieZoomCamera@CPythonApplication@@QAEXH@Z PROC	; CPythonApplication::MovieZoomCamera, COMDAT
; _this$ = ecx

; 212  : {

  00000	55		 push	 ebp
  00001	8b ec		 mov	 ebp, esp
  00003	56		 push	 esi
  00004	8b f1		 mov	 esi, ecx

; 213  : 	if (IsLockCurrentCamera())

  00006	e8 00 00 00 00	 call	 ?IsLockCurrentCamera@CPythonApplication@@QAE_NXZ ; CPythonApplication::IsLockCurrentCamera
  0000b	84 c0		 test	 al, al
  0000d	75 63		 jne	 SHORT $LN1@MovieZoomC

; 214  : 		return;
; 215  : 
; 216  : 	float fRatio = 1.0f + m_fCameraZoomSpeed * float(iDirection);
; 217  : 	if (m_isSpecialCameraMode)

  0000f	83 be 8c d7 03
	00 00		 cmp	 DWORD PTR [esi+251788], 0
  00016	66 0f 6e 45 08	 movd	 xmm0, DWORD PTR _iDirection$[ebp]
  0001b	0f 5b c0	 cvtdq2ps xmm0, xmm0
  0001e	f3 0f 59 86 70
	d7 03 00	 mulss	 xmm0, DWORD PTR [esi+251760]
  00026	f3 0f 58 05 00
	00 00 00	 addss	 xmm0, DWORD PTR __real@3f800000
  0002e	f3 0f 11 45 08	 movss	 DWORD PTR _fRatio$1$[ebp], xmm0
  00033	74 35		 je	 SHORT $LN4@MovieZoomC

; 218  : 	{
; 219  : 		if (GetKeyState(VK_SCROLL) & 1)

  00035	68 91 00 00 00	 push	 145			; 00000091H
  0003a	ff 15 00 00 00
	00		 call	 DWORD PTR __imp__GetKeyState@4
  00040	a8 01		 test	 al, 1
  00042	74 21		 je	 SHORT $LN6@MovieZoomC

; 220  : 		{
; 221  : 			SetUpDirCameraSpeed((1.0f - fRatio) * 200.0f);

  00044	f3 0f 10 0d 00
	00 00 00	 movss	 xmm1, DWORD PTR __real@3f800000
  0004c	8b ce		 mov	 ecx, esi
  0004e	f3 0f 5c 4d 08	 subss	 xmm1, DWORD PTR _fRatio$1$[ebp]
  00053	f3 0f 59 0d 00
	00 00 00	 mulss	 xmm1, DWORD PTR __real@43480000
  0005b	e8 00 00 00 00	 call	 ?SetUpDirCameraSpeed@CPythonApplication@@QAEXM@Z ; CPythonApplication::SetUpDirCameraSpeed
  00060	5e		 pop	 esi

; 226  : }

  00061	5d		 pop	 ebp
  00062	c2 04 00	 ret	 4
$LN6@MovieZoomC:

; 218  : 	{
; 219  : 		if (GetKeyState(VK_SCROLL) & 1)

  00065	f3 0f 10 45 08	 movss	 xmm0, DWORD PTR _fRatio$1$[ebp]
$LN4@MovieZoomC:

; 222  : 			return;
; 223  : 		}
; 224  : 	}
; 225  : 	m_fZoomSpeed = fRatio;

  0006a	f3 0f 11 86 64
	d7 03 00	 movss	 DWORD PTR [esi+251748], xmm0
$LN1@MovieZoomC:
  00072	5e		 pop	 esi

; 226  : }

  00073	5d		 pop	 ebp
  00074	c2 04 00	 ret	 4
?MovieZoomCamera@CPythonApplication@@QAEXH@Z ENDP	; CPythonApplication::MovieZoomCamera
_TEXT	ENDS
; Function compile flags: /Ogtp
; File C:\Anka2Project\Anka2Project\Source\Binary\source\UserInterface\PythonApplicationCamera.cpp
; File C:\Anka2Project\Anka2Project\Source\Binary\source\UserInterface\AbstractApplication.h
; File C:\Anka2Project\Anka2Project\Source\Binary\source\UserInterface\PythonApplicationCamera.cpp
; File C:\Anka2Project\Anka2Project\Source\Binary\extern\include\d3dx8math.inl
; File C:\Anka2Project\Anka2Project\Source\Binary\source\UserInterface\AbstractApplication.h
; File C:\Anka2Project\Anka2Project\Source\Binary\source\UserInterface\PythonApplicationCamera.cpp
;	COMDAT ?SaveCameraSetting@CPythonApplication@@QAEXPBD@Z
_TEXT	SEGMENT
_CameraSetting$ = -36					; size = 36
_c_szFileName$ = 8					; size = 4
?SaveCameraSetting@CPythonApplication@@QAEXPBD@Z PROC	; CPythonApplication::SaveCameraSetting, COMDAT
; _this$ = ecx

; 358  : {

  00000	55		 push	 ebp
  00001	8b ec		 mov	 ebp, esp
  00003	83 e4 c0	 and	 esp, -64		; ffffffc0H
  00006	83 ec 38	 sub	 esp, 56			; 00000038H
  00009	56		 push	 esi
  0000a	8b 75 08	 mov	 esi, DWORD PTR _c_szFileName$[ebp]

; 360  : 	GetCameraSetting(&CameraSetting);

  0000d	8d 44 24 18	 lea	 eax, DWORD PTR _CameraSetting$[esp+60]
  00011	57		 push	 edi
  00012	0f 57 c0	 xorps	 xmm0, xmm0
; File C:\Anka2Project\Anka2Project\Source\Binary\source\UserInterface\AbstractApplication.h

; 28   : 								fZoom(0.0f) {}

  00015	c7 44 24 3c 00
	00 00 00	 mov	 DWORD PTR _CameraSetting$[esp+96], 0
; File C:\Anka2Project\Anka2Project\Source\Binary\source\UserInterface\PythonApplicationCamera.cpp

; 360  : 	GetCameraSetting(&CameraSetting);

  0001d	50		 push	 eax
; File C:\Anka2Project\Anka2Project\Source\Binary\extern\include\d3dx8math.inl

; 180  :     x = fx;

  0001e	0f 11 44 24 20	 movups	 XMMWORD PTR _CameraSetting$[esp+68], xmm0
; File C:\Anka2Project\Anka2Project\Source\Binary\source\UserInterface\AbstractApplication.h

; 14   : 			SCameraPos() : m_fUpDir(0.0f), m_fViewDir(0.0f), m_fCrossDir(0.0f) {}

  00023	0f 11 44 24 30	 movups	 XMMWORD PTR _CameraSetting$[esp+84], xmm0
; File C:\Anka2Project\Anka2Project\Source\Binary\source\UserInterface\PythonApplicationCamera.cpp

; 360  : 	GetCameraSetting(&CameraSetting);

  00028	e8 00 00 00 00	 call	 ?GetCameraSetting@CPythonApplication@@QAEXPAUSCameraSetting@IAbstractApplication@@@Z ; CPythonApplication::GetCameraSetting

; 361  : 
; 362  : 	FILE * File = fopen(c_szFileName, "w");

  0002d	68 00 00 00 00	 push	 OFFSET ??_C@_01NOFIACDB@w@
  00032	56		 push	 esi
  00033	e8 00 00 00 00	 call	 _fopen
  00038	83 c4 08	 add	 esp, 8
  0003b	8b f8		 mov	 edi, eax

; 363  : 	SetFileAttributes(c_szFileName, FILE_ATTRIBUTE_NORMAL);

  0003d	68 80 00 00 00	 push	 128			; 00000080H
  00042	56		 push	 esi
  00043	ff 15 00 00 00
	00		 call	 DWORD PTR __imp__SetFileAttributesA@8
  00049	f3 0f 10 44 24
	24		 movss	 xmm0, DWORD PTR _CameraSetting$[esp+72]

; 364  : 
; 365  : 	PrintfTabs(File, 0, "CenterPos %f %f %f\n", CameraSetting.v3CenterPosition.x, CameraSetting.v3CenterPosition.y, CameraSetting.v3CenterPosition.z);

  0004f	83 ec 18	 sub	 esp, 24			; 00000018H
  00052	0f 5a c0	 cvtps2pd xmm0, xmm0
  00055	f2 0f 11 44 24
	10		 movsd	 QWORD PTR [esp+16], xmm0
  0005b	f3 0f 10 44 24
	38		 movss	 xmm0, DWORD PTR _CameraSetting$[esp+92]
  00061	0f 5a c0	 cvtps2pd xmm0, xmm0
  00064	f2 0f 11 44 24
	08		 movsd	 QWORD PTR [esp+8], xmm0
  0006a	f3 0f 10 44 24
	34		 movss	 xmm0, DWORD PTR _CameraSetting$[esp+88]
  00070	0f 5a c0	 cvtps2pd xmm0, xmm0
  00073	f2 0f 11 04 24	 movsd	 QWORD PTR [esp], xmm0
  00078	68 00 00 00 00	 push	 OFFSET ??_C@_0BE@DMOOAJEE@CenterPos?5?$CFf?5?$CFf?5?$CFf?6@
  0007d	6a 00		 push	 0
  0007f	57		 push	 edi
  00080	e8 00 00 00 00	 call	 ?PrintfTabs@@YAXPAU_iobuf@@HPBDZZ ; PrintfTabs
  00085	f3 0f 10 44 24
	58		 movss	 xmm0, DWORD PTR _CameraSetting$[esp+124]

; 366  : 	PrintfTabs(File, 0, "CameraSetting %f %f %f\n", CameraSetting.fZoom, CameraSetting.fPitch, CameraSetting.fRotation);

  0008b	83 c4 0c	 add	 esp, 12			; 0000000cH
  0008e	0f 5a c0	 cvtps2pd xmm0, xmm0
  00091	f2 0f 11 44 24
	10		 movsd	 QWORD PTR [esp+16], xmm0
  00097	f3 0f 10 44 24
	50		 movss	 xmm0, DWORD PTR _CameraSetting$[esp+116]
  0009d	0f 5a c0	 cvtps2pd xmm0, xmm0
  000a0	f2 0f 11 44 24
	08		 movsd	 QWORD PTR [esp+8], xmm0
  000a6	f3 0f 10 44 24
	54		 movss	 xmm0, DWORD PTR _CameraSetting$[esp+120]
  000ac	0f 5a c0	 cvtps2pd xmm0, xmm0
  000af	f2 0f 11 04 24	 movsd	 QWORD PTR [esp], xmm0
  000b4	68 00 00 00 00	 push	 OFFSET ??_C@_0BI@PHEEAALI@CameraSetting?5?$CFf?5?$CFf?5?$CFf?6@
  000b9	6a 00		 push	 0
  000bb	57		 push	 edi
  000bc	e8 00 00 00 00	 call	 ?PrintfTabs@@YAXPAU_iobuf@@HPBDZZ ; PrintfTabs
  000c1	f3 0f 10 44 24
	54		 movss	 xmm0, DWORD PTR _CameraSetting$[esp+120]

; 367  : 	PrintfTabs(File, 0, "CmrPos %f %f %f\n", CameraSetting.kCmrPos.m_fUpDir, CameraSetting.kCmrPos.m_fViewDir, CameraSetting.kCmrPos.m_fCrossDir);

  000c7	83 c4 0c	 add	 esp, 12			; 0000000cH
  000ca	0f 5a c0	 cvtps2pd xmm0, xmm0
  000cd	f2 0f 11 44 24
	10		 movsd	 QWORD PTR [esp+16], xmm0
  000d3	f3 0f 10 44 24
	44		 movss	 xmm0, DWORD PTR _CameraSetting$[esp+104]
  000d9	0f 5a c0	 cvtps2pd xmm0, xmm0
  000dc	f2 0f 11 44 24
	08		 movsd	 QWORD PTR [esp+8], xmm0
  000e2	f3 0f 10 44 24
	40		 movss	 xmm0, DWORD PTR _CameraSetting$[esp+100]
  000e8	0f 5a c0	 cvtps2pd xmm0, xmm0
  000eb	f2 0f 11 04 24	 movsd	 QWORD PTR [esp], xmm0
  000f0	68 00 00 00 00	 push	 OFFSET ??_C@_0BB@KBBGALHE@CmrPos?5?$CFf?5?$CFf?5?$CFf?6@
  000f5	6a 00		 push	 0
  000f7	57		 push	 edi
  000f8	e8 00 00 00 00	 call	 ?PrintfTabs@@YAXPAU_iobuf@@HPBDZZ ; PrintfTabs

; 368  : 	PrintfTabs(File, 0, "Line \"x;%d|y;%d|z;%d|distance;%d|pitch;%d|rot;%d|up;%d|view;%d|cross;%d\"\n",

  000fd	f3 0f 2c 44 24
	54		 cvttss2si eax, DWORD PTR _CameraSetting$[esp+120]
  00103	50		 push	 eax
  00104	f3 0f 2c 44 24
	54		 cvttss2si eax, DWORD PTR _CameraSetting$[esp+120]
  0010a	50		 push	 eax
  0010b	f3 0f 2c 44 24
	54		 cvttss2si eax, DWORD PTR _CameraSetting$[esp+120]
  00111	50		 push	 eax
  00112	f3 0f 2c 44 24
	64		 cvttss2si eax, DWORD PTR _CameraSetting$[esp+136]
  00118	50		 push	 eax
  00119	f3 0f 2c 44 24
	6c		 cvttss2si eax, DWORD PTR _CameraSetting$[esp+144]
  0011f	50		 push	 eax
  00120	f3 0f 2c 44 24
	74		 cvttss2si eax, DWORD PTR _CameraSetting$[esp+152]
  00126	50		 push	 eax
  00127	f3 0f 2c 44 24
	60		 cvttss2si eax, DWORD PTR _CameraSetting$[esp+132]
  0012d	50		 push	 eax
  0012e	f3 0f 2c 44 24
	60		 cvttss2si eax, DWORD PTR _CameraSetting$[esp+132]
  00134	50		 push	 eax
  00135	f3 0f 2c 44 24
	60		 cvttss2si eax, DWORD PTR _CameraSetting$[esp+132]
  0013b	50		 push	 eax
  0013c	68 00 00 00 00	 push	 OFFSET ??_C@_0EK@OFJKBEAJ@Line?5?$CCx?$DL?$CFd?$HMy?$DL?$CFd?$HMz?$DL?$CFd?$HMdistance?$DL?$CF@
  00141	6a 00		 push	 0
  00143	57		 push	 edi
  00144	e8 00 00 00 00	 call	 ?PrintfTabs@@YAXPAU_iobuf@@HPBDZZ ; PrintfTabs
  00149	83 c4 54	 add	 esp, 84			; 00000054H

; 369  : 												int(CameraSetting.v3CenterPosition.x),
; 370  : 												int(CameraSetting.v3CenterPosition.y),
; 371  : 												int(CameraSetting.v3CenterPosition.z),
; 372  : 												int(CameraSetting.fZoom),
; 373  : 												int(CameraSetting.fPitch),
; 374  : 												int(CameraSetting.fRotation),
; 375  : 												int(CameraSetting.kCmrPos.m_fUpDir),
; 376  : 												int(CameraSetting.kCmrPos.m_fViewDir),
; 377  : 												int(CameraSetting.kCmrPos.m_fCrossDir));
; 378  : 
; 379  : 	fclose(File);

  0014c	57		 push	 edi
  0014d	e8 00 00 00 00	 call	 _fclose
  00152	83 c4 04	 add	 esp, 4

; 380  : }

  00155	5f		 pop	 edi
  00156	5e		 pop	 esi
  00157	8b e5		 mov	 esp, ebp
  00159	5d		 pop	 ebp
  0015a	c2 04 00	 ret	 4
?SaveCameraSetting@CPythonApplication@@QAEXPBD@Z ENDP	; CPythonApplication::SaveCameraSetting
_TEXT	ENDS
; Function compile flags: /Ogtp
; File C:\Anka2Project\Anka2Project\Source\Binary\source\UserInterface\PythonApplicationCamera.cpp
; File C:\Program Files\Microsoft Visual Studio\2022\Community\VC\Tools\MSVC\14.44.35207\include\__msvc_string_view.hpp
; File C:\Program Files\Microsoft Visual Studio\2022\Community\VC\Tools\MSVC\14.44.35207\include\xstring
; File C:\Program Files\Microsoft Visual Studio\2022\Community\VC\Tools\MSVC\14.44.35207\include\__msvc_string_view.hpp
; File C:\Program Files\Microsoft Visual Studio\2022\Community\VC\Tools\MSVC\14.44.35207\include\xstring
; File C:\Program Files\Microsoft Visual Studio\2022\Community\VC\Tools\MSVC\14.44.35207\include\__msvc_string_view.hpp
; File C:\Program Files\Microsoft Visual Studio\2022\Community\VC\Tools\MSVC\14.44.35207\include\xstring
; File C:\Anka2Project\Anka2Project\Source\Binary\source\UserInterface\PythonApplicationCamera.cpp
; File C:\Program Files\Microsoft Visual Studio\2022\Community\VC\Tools\MSVC\14.44.35207\include\xstring
; File C:\Program Files\Microsoft Visual Studio\2022\Community\VC\Tools\MSVC\14.44.35207\include\xmemory
; File C:\Program Files\Microsoft Visual Studio\2022\Community\VC\Tools\MSVC\14.44.35207\include\xstring
; File C:\Program Files\Microsoft Visual Studio\2022\Community\VC\Tools\MSVC\14.44.35207\include\xmemory
; File C:\Anka2Project\Anka2Project\Source\Binary\source\UserInterface\PythonApplicationCamera.cpp
; File C:\Program Files\Microsoft Visual Studio\2022\Community\VC\Tools\MSVC\14.44.35207\include\__msvc_string_view.hpp
; File C:\Program Files\Microsoft Visual Studio\2022\Community\VC\Tools\MSVC\14.44.35207\include\xstring
; File C:\Program Files\Microsoft Visual Studio\2022\Community\VC\Tools\MSVC\14.44.35207\include\__msvc_string_view.hpp
; File C:\Program Files\Microsoft Visual Studio\2022\Community\VC\Tools\MSVC\14.44.35207\include\xstring
; File C:\Program Files\Microsoft Visual Studio\2022\Community\VC\Tools\MSVC\14.44.35207\include\__msvc_string_view.hpp
; File C:\Program Files\Microsoft Visual Studio\2022\Community\VC\Tools\MSVC\14.44.35207\include\xstring
; File C:\Anka2Project\Anka2Project\Source\Binary\source\UserInterface\PythonApplicationCamera.cpp
; File C:\Program Files\Microsoft Visual Studio\2022\Community\VC\Tools\MSVC\14.44.35207\include\xstring
; File C:\Program Files\Microsoft Visual Studio\2022\Community\VC\Tools\MSVC\14.44.35207\include\xmemory
; File C:\Program Files\Microsoft Visual Studio\2022\Community\VC\Tools\MSVC\14.44.35207\include\xstring
; File C:\Program Files\Microsoft Visual Studio\2022\Community\VC\Tools\MSVC\14.44.35207\include\xmemory
; File C:\Anka2Project\Anka2Project\Source\Binary\source\UserInterface\PythonApplicationCamera.cpp
; File C:\Program Files\Microsoft Visual Studio\2022\Community\VC\Tools\MSVC\14.44.35207\include\__msvc_string_view.hpp
; File C:\Program Files\Microsoft Visual Studio\2022\Community\VC\Tools\MSVC\14.44.35207\include\xstring
; File C:\Program Files\Microsoft Visual Studio\2022\Community\VC\Tools\MSVC\14.44.35207\include\__msvc_string_view.hpp
; File C:\Program Files\Microsoft Visual Studio\2022\Community\VC\Tools\MSVC\14.44.35207\include\xstring
; File C:\Program Files\Microsoft Visual Studio\2022\Community\VC\Tools\MSVC\14.44.35207\include\__msvc_string_view.hpp
; File C:\Program Files\Microsoft Visual Studio\2022\Community\VC\Tools\MSVC\14.44.35207\include\xstring
; File C:\Anka2Project\Anka2Project\Source\Binary\source\UserInterface\PythonApplicationCamera.cpp
; File C:\Program Files\Microsoft Visual Studio\2022\Community\VC\Tools\MSVC\14.44.35207\include\xstring
; File C:\Program Files\Microsoft Visual Studio\2022\Community\VC\Tools\MSVC\14.44.35207\include\xmemory
; File C:\Program Files\Microsoft Visual Studio\2022\Community\VC\Tools\MSVC\14.44.35207\include\xstring
; File C:\Program Files\Microsoft Visual Studio\2022\Community\VC\Tools\MSVC\14.44.35207\include\xmemory
; File C:\Anka2Project\Anka2Project\Source\Binary\source\UserInterface\PythonApplicationCamera.cpp
; File C:\Program Files\Microsoft Visual Studio\2022\Community\VC\Tools\MSVC\14.44.35207\include\vector
; File C:\Anka2Project\Anka2Project\Source\Binary\source\UserInterface\PythonApplicationCamera.cpp
; File C:\Program Files\Microsoft Visual Studio\2022\Community\VC\Tools\MSVC\14.44.35207\include\vector
; File C:\Anka2Project\Anka2Project\Source\Binary\source\UserInterface\PythonApplicationCamera.cpp
; File C:\Program Files\Microsoft Visual Studio\2022\Community\VC\Tools\MSVC\14.44.35207\include\xstring
; File C:\Anka2Project\Anka2Project\Source\Binary\source\UserInterface\PythonApplicationCamera.cpp
; File C:\Program Files\Microsoft Visual Studio\2022\Community\VC\Tools\MSVC\14.44.35207\include\vector
; File C:\Anka2Project\Anka2Project\Source\Binary\source\UserInterface\PythonApplicationCamera.cpp
; File C:\Program Files\Microsoft Visual Studio\2022\Community\VC\Tools\MSVC\14.44.35207\include\vector
; File C:\Program Files\Microsoft Visual Studio\2022\Community\VC\Tools\MSVC\14.44.35207\include\xstring
; File C:\Program Files\Microsoft Visual Studio\2022\Community\VC\Tools\MSVC\14.44.35207\include\vector
; File C:\Program Files\Microsoft Visual Studio\2022\Community\VC\Tools\MSVC\14.44.35207\include\xstring
; File C:\Anka2Project\Anka2Project\Source\Binary\source\UserInterface\PythonApplicationCamera.cpp
; File C:\Program Files\Microsoft Visual Studio\2022\Community\VC\Tools\MSVC\14.44.35207\include\vector
; File C:\Anka2Project\Anka2Project\Source\Binary\source\UserInterface\PythonApplicationCamera.cpp
; File C:\Program Files\Microsoft Visual Studio\2022\Community\VC\Tools\MSVC\14.44.35207\include\vector
; File C:\Program Files\Microsoft Visual Studio\2022\Community\VC\Tools\MSVC\14.44.35207\include\xstring
; File C:\Program Files\Microsoft Visual Studio\2022\Community\VC\Tools\MSVC\14.44.35207\include\vector
; File C:\Program Files\Microsoft Visual Studio\2022\Community\VC\Tools\MSVC\14.44.35207\include\xstring
; File C:\Anka2Project\Anka2Project\Source\Binary\source\UserInterface\PythonApplicationCamera.cpp
; File C:\Program Files\Microsoft Visual Studio\2022\Community\VC\Tools\MSVC\14.44.35207\include\vector
; File C:\Anka2Project\Anka2Project\Source\Binary\source\UserInterface\PythonApplicationCamera.cpp
; File C:\Program Files\Microsoft Visual Studio\2022\Community\VC\Tools\MSVC\14.44.35207\include\vector
; File C:\Program Files\Microsoft Visual Studio\2022\Community\VC\Tools\MSVC\14.44.35207\include\xstring
; File C:\Anka2Project\Anka2Project\Source\Binary\source\UserInterface\PythonApplicationCamera.cpp
; File C:\Program Files\Microsoft Visual Studio\2022\Community\VC\Tools\MSVC\14.44.35207\include\vector
; File C:\Anka2Project\Anka2Project\Source\Binary\source\UserInterface\PythonApplicationCamera.cpp
; File C:\Program Files\Microsoft Visual Studio\2022\Community\VC\Tools\MSVC\14.44.35207\include\vector
; File C:\Program Files\Microsoft Visual Studio\2022\Community\VC\Tools\MSVC\14.44.35207\include\xstring
; File C:\Program Files\Microsoft Visual Studio\2022\Community\VC\Tools\MSVC\14.44.35207\include\vector
; File C:\Program Files\Microsoft Visual Studio\2022\Community\VC\Tools\MSVC\14.44.35207\include\xstring
; File C:\Anka2Project\Anka2Project\Source\Binary\source\UserInterface\PythonApplicationCamera.cpp
; File C:\Program Files\Microsoft Visual Studio\2022\Community\VC\Tools\MSVC\14.44.35207\include\vector
; File C:\Anka2Project\Anka2Project\Source\Binary\source\UserInterface\PythonApplicationCamera.cpp
; File C:\Program Files\Microsoft Visual Studio\2022\Community\VC\Tools\MSVC\14.44.35207\include\vector
; File C:\Program Files\Microsoft Visual Studio\2022\Community\VC\Tools\MSVC\14.44.35207\include\xstring
; File C:\Program Files\Microsoft Visual Studio\2022\Community\VC\Tools\MSVC\14.44.35207\include\vector
; File C:\Program Files\Microsoft Visual Studio\2022\Community\VC\Tools\MSVC\14.44.35207\include\xstring
; File C:\Anka2Project\Anka2Project\Source\Binary\source\UserInterface\PythonApplicationCamera.cpp
; File C:\Program Files\Microsoft Visual Studio\2022\Community\VC\Tools\MSVC\14.44.35207\include\xmemory
; File C:\Program Files\Microsoft Visual Studio\2022\Community\VC\Tools\MSVC\14.44.35207\include\vector
; File C:\Anka2Project\Anka2Project\Source\Binary\source\UserInterface\PythonApplicationCamera.cpp
;	COMDAT ?LoadCameraSetting@CPythonApplication@@QAE_NPBD@Z
_TEXT	SEGMENT
_pCameraSetting$ = -212					; size = 4
_pCmrPos$ = -208					; size = 4
$T95 = -201						; size = 1
_TextFileLoader$ = -200					; size = 128
_v3CenterPosition$ = -68				; size = 12
_CameraSetting$96 = -56					; size = 36
$T3 = -44						; size = 24
$T24 = -44						; size = 24
$T45 = -44						; size = 24
__$ArrayPad$ = -20					; size = 4
__$EHRec$ = -12						; size = 12
_c_szFileName$ = 8					; size = 4
?LoadCameraSetting@CPythonApplication@@QAE_NPBD@Z PROC	; CPythonApplication::LoadCameraSetting, COMDAT
; _this$ = ecx

; 383  : {

  00000	53		 push	 ebx
  00001	8b dc		 mov	 ebx, esp
  00003	83 ec 08	 sub	 esp, 8
  00006	83 e4 f8	 and	 esp, -8			; fffffff8H
  00009	83 c4 04	 add	 esp, 4
  0000c	55		 push	 ebp
  0000d	8b 6b 04	 mov	 ebp, DWORD PTR [ebx+4]
  00010	89 6c 24 04	 mov	 DWORD PTR [esp+4], ebp
  00014	8b ec		 mov	 ebp, esp
  00016	6a ff		 push	 -1
  00018	68 00 00 00 00	 push	 __ehhandler$?LoadCameraSetting@CPythonApplication@@QAE_NPBD@Z
  0001d	64 a1 00 00 00
	00		 mov	 eax, DWORD PTR fs:0
  00023	50		 push	 eax
  00024	53		 push	 ebx
  00025	81 ec c8 00 00
	00		 sub	 esp, 200		; 000000c8H
  0002b	a1 00 00 00 00	 mov	 eax, DWORD PTR ___security_cookie
  00030	33 c5		 xor	 eax, ebp
  00032	89 45 ec	 mov	 DWORD PTR __$ArrayPad$[ebp], eax
  00035	56		 push	 esi
  00036	57		 push	 edi
  00037	50		 push	 eax
  00038	8d 45 f4	 lea	 eax, DWORD PTR __$EHRec$[ebp]
  0003b	64 a3 00 00 00
	00		 mov	 DWORD PTR fs:0, eax
  00041	8b f9		 mov	 edi, ecx
  00043	8b 73 08	 mov	 esi, DWORD PTR _c_szFileName$[ebx]

; 384  : 	CTextFileLoader TextFileLoader;

  00046	8d 8d 38 ff ff
	ff		 lea	 ecx, DWORD PTR _TextFileLoader$[ebp]
  0004c	e8 00 00 00 00	 call	 ??0CTextFileLoader@@QAE@XZ ; CTextFileLoader::CTextFileLoader

; 385  : 	if (!TextFileLoader.Load(c_szFileName))

  00051	56		 push	 esi
  00052	8d 8d 38 ff ff
	ff		 lea	 ecx, DWORD PTR _TextFileLoader$[ebp]
  00058	c7 45 fc 00 00
	00 00		 mov	 DWORD PTR __$EHRec$[ebp+8], 0
  0005f	e8 00 00 00 00	 call	 ?Load@CTextFileLoader@@QAE_NPBD@Z ; CTextFileLoader::Load
  00064	84 c0		 test	 al, al
  00066	0f 84 45 03 00
	00		 je	 $LN7@LoadCamera

; 386  : 		return false;
; 387  : 
; 388  : 	TextFileLoader.SetTop();

  0006c	8d 8d 38 ff ff
	ff		 lea	 ecx, DWORD PTR _TextFileLoader$[ebp]
  00072	e8 00 00 00 00	 call	 ?SetTop@CTextFileLoader@@QAEXXZ ; CTextFileLoader::SetTop
; File C:\Program Files\Microsoft Visual Studio\2022\Community\VC\Tools\MSVC\14.44.35207\include\__msvc_string_view.hpp

; 121  :         _CSTD memcpy(_First1, _First2, _Count * sizeof(_Elem));

  00077	a0 08 00 00 00	 mov	 al, BYTE PTR ??_C@_09BKJKIBFC@centerpos@+8
  0007c	0f 57 c0	 xorps	 xmm0, xmm0
; File C:\Program Files\Microsoft Visual Studio\2022\Community\VC\Tools\MSVC\14.44.35207\include\xstring

; 493  :         _CONSTEXPR20 _Bxty() noexcept : _Buf() {} // user-provided, for fancy pointers

  0007f	0f 11 45 d4	 movups	 XMMWORD PTR $T3[ebp], xmm0

; 890  :             _My_data._Mysize = _Count;

  00083	c7 45 e4 09 00
	00 00		 mov	 DWORD PTR $T3[ebp+16], 9
; File C:\Program Files\Microsoft Visual Studio\2022\Community\VC\Tools\MSVC\14.44.35207\include\__msvc_string_view.hpp

; 121  :         _CSTD memcpy(_First1, _First2, _Count * sizeof(_Elem));

  0008a	f3 0f 7e 05 00
	00 00 00	 movq	 xmm0, QWORD PTR ??_C@_09BKJKIBFC@centerpos@
; File C:\Program Files\Microsoft Visual Studio\2022\Community\VC\Tools\MSVC\14.44.35207\include\xstring

; 891  :             _My_data._Myres  = _Small_string_capacity;

  00092	c7 45 e8 0f 00
	00 00		 mov	 DWORD PTR $T3[ebp+20], 15 ; 0000000fH
; File C:\Program Files\Microsoft Visual Studio\2022\Community\VC\Tools\MSVC\14.44.35207\include\__msvc_string_view.hpp

; 121  :         _CSTD memcpy(_First1, _First2, _Count * sizeof(_Elem));

  00099	66 0f d6 45 d4	 movq	 QWORD PTR $T3[ebp], xmm0
  0009e	88 45 dc	 mov	 BYTE PTR $T3[ebp+8], al
; File C:\Program Files\Microsoft Visual Studio\2022\Community\VC\Tools\MSVC\14.44.35207\include\xstring

; 898  :                 _Traits::assign(_My_data._Bx._Buf[_Count], _Elem());

  000a1	c6 45 dd 00	 mov	 BYTE PTR $T3[ebp+9], 0
; File C:\Anka2Project\Anka2Project\Source\Binary\source\UserInterface\PythonApplicationCamera.cpp

; 393  : 	if (TextFileLoader.GetTokenVector3("centerpos", &v3CenterPosition))

  000a5	8d 45 bc	 lea	 eax, DWORD PTR _v3CenterPosition$[ebp]
  000a8	c6 45 fc 01	 mov	 BYTE PTR __$EHRec$[ebp+8], 1
  000ac	50		 push	 eax
  000ad	8d 45 d4	 lea	 eax, DWORD PTR $T3[ebp]
  000b0	50		 push	 eax
  000b1	8d 8d 38 ff ff
	ff		 lea	 ecx, DWORD PTR _TextFileLoader$[ebp]
  000b7	e8 00 00 00 00	 call	 ?GetTokenVector3@CTextFileLoader@@QAEHABV?$basic_string@DU?$char_traits@D@std@@V?$allocator@D@2@@std@@PAUD3DXVECTOR3@@@Z ; CTextFileLoader::GetTokenVector3
  000bc	c6 45 fc 00	 mov	 BYTE PTR __$EHRec$[ebp+8], 0
  000c0	8b f0		 mov	 esi, eax
; File C:\Program Files\Microsoft Visual Studio\2022\Community\VC\Tools\MSVC\14.44.35207\include\xstring

; 453  :         return _Myres > _Small_string_capacity;

  000c2	8b 4d e8	 mov	 ecx, DWORD PTR $T3[ebp+20]
  000c5	83 f9 0f	 cmp	 ecx, 15			; 0000000fH

; 3083 :         if (_My_data._Large_mode_engaged()) {

  000c8	76 2c		 jbe	 SHORT $LN103@LoadCamera
; File C:\Program Files\Microsoft Visual Studio\2022\Community\VC\Tools\MSVC\14.44.35207\include\xmemory

; 985  :         _STD _Deallocate<_New_alignof<_Ty>>(_Ptr, sizeof(_Ty) * _Count);

  000ca	8b 55 d4	 mov	 edx, DWORD PTR $T3[ebp]
; File C:\Program Files\Microsoft Visual Studio\2022\Community\VC\Tools\MSVC\14.44.35207\include\xstring

; 852  :         _Al.deallocate(_Old_ptr, _Capacity + 1); // +1 for null terminator

  000cd	41		 inc	 ecx
; File C:\Program Files\Microsoft Visual Studio\2022\Community\VC\Tools\MSVC\14.44.35207\include\xmemory

; 985  :         _STD _Deallocate<_New_alignof<_Ty>>(_Ptr, sizeof(_Ty) * _Count);

  000ce	8b c2		 mov	 eax, edx

; 284  :         if (_Bytes >= _Big_allocation_threshold) {

  000d0	81 f9 00 10 00
	00		 cmp	 ecx, 4096		; 00001000H
  000d6	72 14		 jb	 SHORT $LN111@LoadCamera

; 205  :     const uintptr_t _Ptr_container   = _Ptr_user[-1];

  000d8	8b 50 fc	 mov	 edx, DWORD PTR [eax-4]
  000db	83 c1 23	 add	 ecx, 35			; 00000023H
  000de	2b c2		 sub	 eax, edx

; 219  :     _STL_VERIFY(_Back_shift >= _Min_back_shift && _Back_shift <= _Non_user_size, "invalid argument");

  000e0	83 c0 fc	 add	 eax, -4			; fffffffcH
  000e3	83 f8 1f	 cmp	 eax, 31			; 0000001fH
  000e6	0f 87 fd 02 00
	00		 ja	 $LN456@LoadCamera
$LN111@LoadCamera:

; 289  :         ::operator delete(_Ptr, _Bytes);

  000ec	51		 push	 ecx
  000ed	52		 push	 edx
  000ee	e8 00 00 00 00	 call	 ??3@YAXPAXI@Z		; operator delete
  000f3	83 c4 08	 add	 esp, 8
$LN103@LoadCamera:
; File C:\Anka2Project\Anka2Project\Source\Binary\source\UserInterface\PythonApplicationCamera.cpp

; 393  : 	if (TextFileLoader.GetTokenVector3("centerpos", &v3CenterPosition))

  000f6	85 f6		 test	 esi, esi
  000f8	0f 84 b3 02 00
	00		 je	 $LN7@LoadCamera
; File C:\Program Files\Microsoft Visual Studio\2022\Community\VC\Tools\MSVC\14.44.35207\include\__msvc_string_view.hpp

; 121  :         _CSTD memcpy(_First1, _First2, _Count * sizeof(_Elem));

  000fe	a1 08 00 00 00	 mov	 eax, DWORD PTR ??_C@_0O@GKCMOHOF@camerasetting@+8
  00103	0f 57 c0	 xorps	 xmm0, xmm0
; File C:\Program Files\Microsoft Visual Studio\2022\Community\VC\Tools\MSVC\14.44.35207\include\xstring

; 493  :         _CONSTEXPR20 _Bxty() noexcept : _Buf() {} // user-provided, for fancy pointers

  00106	0f 11 45 d4	 movups	 XMMWORD PTR $T24[ebp], xmm0
; File C:\Program Files\Microsoft Visual Studio\2022\Community\VC\Tools\MSVC\14.44.35207\include\__msvc_string_view.hpp

; 121  :         _CSTD memcpy(_First1, _First2, _Count * sizeof(_Elem));

  0010a	89 45 dc	 mov	 DWORD PTR $T24[ebp+8], eax
  0010d	f3 0f 7e 05 00
	00 00 00	 movq	 xmm0, QWORD PTR ??_C@_0O@GKCMOHOF@camerasetting@
  00115	a0 0c 00 00 00	 mov	 al, BYTE PTR ??_C@_0O@GKCMOHOF@camerasetting@+12
; File C:\Program Files\Microsoft Visual Studio\2022\Community\VC\Tools\MSVC\14.44.35207\include\xstring

; 890  :             _My_data._Mysize = _Count;

  0011a	c7 45 e4 0d 00
	00 00		 mov	 DWORD PTR $T24[ebp+16], 13 ; 0000000dH

; 891  :             _My_data._Myres  = _Small_string_capacity;

  00121	c7 45 e8 0f 00
	00 00		 mov	 DWORD PTR $T24[ebp+20], 15 ; 0000000fH
; File C:\Program Files\Microsoft Visual Studio\2022\Community\VC\Tools\MSVC\14.44.35207\include\__msvc_string_view.hpp

; 121  :         _CSTD memcpy(_First1, _First2, _Count * sizeof(_Elem));

  00128	66 0f d6 45 d4	 movq	 QWORD PTR $T24[ebp], xmm0
  0012d	88 45 e0	 mov	 BYTE PTR $T24[ebp+12], al
; File C:\Program Files\Microsoft Visual Studio\2022\Community\VC\Tools\MSVC\14.44.35207\include\xstring

; 898  :                 _Traits::assign(_My_data._Bx._Buf[_Count], _Elem());

  00130	c6 45 e1 00	 mov	 BYTE PTR $T24[ebp+13], 0
; File C:\Anka2Project\Anka2Project\Source\Binary\source\UserInterface\PythonApplicationCamera.cpp

; 394  : 	if (TextFileLoader.GetTokenVector("camerasetting", &pCameraSetting))

  00134	8d 85 2c ff ff
	ff		 lea	 eax, DWORD PTR _pCameraSetting$[ebp]
  0013a	c6 45 fc 02	 mov	 BYTE PTR __$EHRec$[ebp+8], 2
  0013e	50		 push	 eax
  0013f	8d 45 d4	 lea	 eax, DWORD PTR $T24[ebp]
  00142	50		 push	 eax
  00143	8d 8d 38 ff ff
	ff		 lea	 ecx, DWORD PTR _TextFileLoader$[ebp]
  00149	e8 00 00 00 00	 call	 ?GetTokenVector@CTextFileLoader@@QAEHABV?$basic_string@DU?$char_traits@D@std@@V?$allocator@D@2@@std@@PAPAV?$vector@V?$basic_string@DU?$char_traits@D@std@@V?$allocator@D@2@@std@@V?$allocator@V?$basic_string@DU?$char_traits@D@std@@V?$allocator@D@2@@std@@@2@@3@@Z ; CTextFileLoader::GetTokenVector
  0014e	c6 45 fc 00	 mov	 BYTE PTR __$EHRec$[ebp+8], 0
  00152	8b f0		 mov	 esi, eax
; File C:\Program Files\Microsoft Visual Studio\2022\Community\VC\Tools\MSVC\14.44.35207\include\xstring

; 453  :         return _Myres > _Small_string_capacity;

  00154	8b 4d e8	 mov	 ecx, DWORD PTR $T24[ebp+20]
  00157	83 f9 0f	 cmp	 ecx, 15			; 0000000fH

; 3083 :         if (_My_data._Large_mode_engaged()) {

  0015a	76 2c		 jbe	 SHORT $LN202@LoadCamera
; File C:\Program Files\Microsoft Visual Studio\2022\Community\VC\Tools\MSVC\14.44.35207\include\xmemory

; 985  :         _STD _Deallocate<_New_alignof<_Ty>>(_Ptr, sizeof(_Ty) * _Count);

  0015c	8b 55 d4	 mov	 edx, DWORD PTR $T24[ebp]
; File C:\Program Files\Microsoft Visual Studio\2022\Community\VC\Tools\MSVC\14.44.35207\include\xstring

; 852  :         _Al.deallocate(_Old_ptr, _Capacity + 1); // +1 for null terminator

  0015f	41		 inc	 ecx
; File C:\Program Files\Microsoft Visual Studio\2022\Community\VC\Tools\MSVC\14.44.35207\include\xmemory

; 985  :         _STD _Deallocate<_New_alignof<_Ty>>(_Ptr, sizeof(_Ty) * _Count);

  00160	8b c2		 mov	 eax, edx

; 284  :         if (_Bytes >= _Big_allocation_threshold) {

  00162	81 f9 00 10 00
	00		 cmp	 ecx, 4096		; 00001000H
  00168	72 14		 jb	 SHORT $LN210@LoadCamera

; 205  :     const uintptr_t _Ptr_container   = _Ptr_user[-1];

  0016a	8b 50 fc	 mov	 edx, DWORD PTR [eax-4]
  0016d	83 c1 23	 add	 ecx, 35			; 00000023H
  00170	2b c2		 sub	 eax, edx

; 219  :     _STL_VERIFY(_Back_shift >= _Min_back_shift && _Back_shift <= _Non_user_size, "invalid argument");

  00172	83 c0 fc	 add	 eax, -4			; fffffffcH
  00175	83 f8 1f	 cmp	 eax, 31			; 0000001fH
  00178	0f 87 7a 02 00
	00		 ja	 $LN457@LoadCamera
$LN210@LoadCamera:

; 289  :         ::operator delete(_Ptr, _Bytes);

  0017e	51		 push	 ecx
  0017f	52		 push	 edx
  00180	e8 00 00 00 00	 call	 ??3@YAXPAXI@Z		; operator delete
  00185	83 c4 08	 add	 esp, 8
$LN202@LoadCamera:
; File C:\Anka2Project\Anka2Project\Source\Binary\source\UserInterface\PythonApplicationCamera.cpp

; 394  : 	if (TextFileLoader.GetTokenVector("camerasetting", &pCameraSetting))

  00188	85 f6		 test	 esi, esi
  0018a	0f 84 21 02 00
	00		 je	 $LN7@LoadCamera
; File C:\Program Files\Microsoft Visual Studio\2022\Community\VC\Tools\MSVC\14.44.35207\include\__msvc_string_view.hpp

; 121  :         _CSTD memcpy(_First1, _First2, _Count * sizeof(_Elem));

  00190	a1 00 00 00 00	 mov	 eax, DWORD PTR ??_C@_06MDBDNPGG@cmrpos@
  00195	0f 57 c0	 xorps	 xmm0, xmm0
; File C:\Program Files\Microsoft Visual Studio\2022\Community\VC\Tools\MSVC\14.44.35207\include\xstring

; 493  :         _CONSTEXPR20 _Bxty() noexcept : _Buf() {} // user-provided, for fancy pointers

  00198	0f 11 45 d4	 movups	 XMMWORD PTR $T45[ebp], xmm0
; File C:\Program Files\Microsoft Visual Studio\2022\Community\VC\Tools\MSVC\14.44.35207\include\__msvc_string_view.hpp

; 121  :         _CSTD memcpy(_First1, _First2, _Count * sizeof(_Elem));

  0019c	89 45 d4	 mov	 DWORD PTR $T45[ebp], eax
  0019f	66 a1 04 00 00
	00		 mov	 ax, WORD PTR ??_C@_06MDBDNPGG@cmrpos@+4
; File C:\Program Files\Microsoft Visual Studio\2022\Community\VC\Tools\MSVC\14.44.35207\include\xstring

; 890  :             _My_data._Mysize = _Count;

  001a5	c7 45 e4 06 00
	00 00		 mov	 DWORD PTR $T45[ebp+16], 6

; 891  :             _My_data._Myres  = _Small_string_capacity;

  001ac	c7 45 e8 0f 00
	00 00		 mov	 DWORD PTR $T45[ebp+20], 15 ; 0000000fH
; File C:\Program Files\Microsoft Visual Studio\2022\Community\VC\Tools\MSVC\14.44.35207\include\__msvc_string_view.hpp

; 121  :         _CSTD memcpy(_First1, _First2, _Count * sizeof(_Elem));

  001b3	66 89 45 d8	 mov	 WORD PTR $T45[ebp+4], ax
; File C:\Program Files\Microsoft Visual Studio\2022\Community\VC\Tools\MSVC\14.44.35207\include\xstring

; 898  :                 _Traits::assign(_My_data._Bx._Buf[_Count], _Elem());

  001b7	c6 45 da 00	 mov	 BYTE PTR $T45[ebp+6], 0
; File C:\Anka2Project\Anka2Project\Source\Binary\source\UserInterface\PythonApplicationCamera.cpp

; 395  : 	if (TextFileLoader.GetTokenVector("cmrpos", &pCmrPos))

  001bb	8d 85 30 ff ff
	ff		 lea	 eax, DWORD PTR _pCmrPos$[ebp]
  001c1	c6 45 fc 03	 mov	 BYTE PTR __$EHRec$[ebp+8], 3
  001c5	50		 push	 eax
  001c6	8d 45 d4	 lea	 eax, DWORD PTR $T45[ebp]
  001c9	50		 push	 eax
  001ca	8d 8d 38 ff ff
	ff		 lea	 ecx, DWORD PTR _TextFileLoader$[ebp]
  001d0	e8 00 00 00 00	 call	 ?GetTokenVector@CTextFileLoader@@QAEHABV?$basic_string@DU?$char_traits@D@std@@V?$allocator@D@2@@std@@PAPAV?$vector@V?$basic_string@DU?$char_traits@D@std@@V?$allocator@D@2@@std@@V?$allocator@V?$basic_string@DU?$char_traits@D@std@@V?$allocator@D@2@@std@@@2@@3@@Z ; CTextFileLoader::GetTokenVector
  001d5	c6 45 fc 00	 mov	 BYTE PTR __$EHRec$[ebp+8], 0
  001d9	8b f0		 mov	 esi, eax
; File C:\Program Files\Microsoft Visual Studio\2022\Community\VC\Tools\MSVC\14.44.35207\include\xstring

; 453  :         return _Myres > _Small_string_capacity;

  001db	8b 4d e8	 mov	 ecx, DWORD PTR $T45[ebp+20]
  001de	83 f9 0f	 cmp	 ecx, 15			; 0000000fH

; 3083 :         if (_My_data._Large_mode_engaged()) {

  001e1	76 2c		 jbe	 SHORT $LN301@LoadCamera
; File C:\Program Files\Microsoft Visual Studio\2022\Community\VC\Tools\MSVC\14.44.35207\include\xmemory

; 985  :         _STD _Deallocate<_New_alignof<_Ty>>(_Ptr, sizeof(_Ty) * _Count);

  001e3	8b 55 d4	 mov	 edx, DWORD PTR $T45[ebp]
; File C:\Program Files\Microsoft Visual Studio\2022\Community\VC\Tools\MSVC\14.44.35207\include\xstring

; 852  :         _Al.deallocate(_Old_ptr, _Capacity + 1); // +1 for null terminator

  001e6	41		 inc	 ecx
; File C:\Program Files\Microsoft Visual Studio\2022\Community\VC\Tools\MSVC\14.44.35207\include\xmemory

; 985  :         _STD _Deallocate<_New_alignof<_Ty>>(_Ptr, sizeof(_Ty) * _Count);

  001e7	8b c2		 mov	 eax, edx

; 284  :         if (_Bytes >= _Big_allocation_threshold) {

  001e9	81 f9 00 10 00
	00		 cmp	 ecx, 4096		; 00001000H
  001ef	72 14		 jb	 SHORT $LN309@LoadCamera

; 205  :     const uintptr_t _Ptr_container   = _Ptr_user[-1];

  001f1	8b 50 fc	 mov	 edx, DWORD PTR [eax-4]
  001f4	83 c1 23	 add	 ecx, 35			; 00000023H
  001f7	2b c2		 sub	 eax, edx

; 219  :     _STL_VERIFY(_Back_shift >= _Min_back_shift && _Back_shift <= _Non_user_size, "invalid argument");

  001f9	83 c0 fc	 add	 eax, -4			; fffffffcH
  001fc	83 f8 1f	 cmp	 eax, 31			; 0000001fH
  001ff	0f 87 02 02 00
	00		 ja	 $LN458@LoadCamera
$LN309@LoadCamera:

; 289  :         ::operator delete(_Ptr, _Bytes);

  00205	51		 push	 ecx
  00206	52		 push	 edx
  00207	e8 00 00 00 00	 call	 ??3@YAXPAXI@Z		; operator delete
  0020c	83 c4 08	 add	 esp, 8
$LN301@LoadCamera:
; File C:\Anka2Project\Anka2Project\Source\Binary\source\UserInterface\PythonApplicationCamera.cpp

; 395  : 	if (TextFileLoader.GetTokenVector("cmrpos", &pCmrPos))

  0020f	85 f6		 test	 esi, esi
  00211	0f 84 9a 01 00
	00		 je	 $LN7@LoadCamera
; File C:\Program Files\Microsoft Visual Studio\2022\Community\VC\Tools\MSVC\14.44.35207\include\vector

; 1915 :         return static_cast<size_type>(_My_data._Mylast - _My_data._Myfirst);

  00217	8b 85 2c ff ff
	ff		 mov	 eax, DWORD PTR _pCameraSetting$[ebp]
  0021d	8b 10		 mov	 edx, DWORD PTR [eax]
  0021f	8b 40 04	 mov	 eax, DWORD PTR [eax+4]
  00222	2b c2		 sub	 eax, edx
; File C:\Anka2Project\Anka2Project\Source\Binary\source\UserInterface\PythonApplicationCamera.cpp

; 396  : 	if (3 == pCameraSetting->size())

  00224	83 e8 48	 sub	 eax, 72			; 00000048H
  00227	83 f8 18	 cmp	 eax, 24			; 00000018H
  0022a	0f 83 81 01 00
	00		 jae	 $LN7@LoadCamera
; File C:\Program Files\Microsoft Visual Studio\2022\Community\VC\Tools\MSVC\14.44.35207\include\vector

; 1915 :         return static_cast<size_type>(_My_data._Mylast - _My_data._Myfirst);

  00230	8b 85 30 ff ff
	ff		 mov	 eax, DWORD PTR _pCmrPos$[ebp]
  00236	8b 48 04	 mov	 ecx, DWORD PTR [eax+4]
  00239	2b 08		 sub	 ecx, DWORD PTR [eax]
; File C:\Anka2Project\Anka2Project\Source\Binary\source\UserInterface\PythonApplicationCamera.cpp

; 397  : 	if (3 == pCmrPos->size())

  0023b	83 e9 48	 sub	 ecx, 72			; 00000048H
  0023e	83 f9 18	 cmp	 ecx, 24			; 00000018H
  00241	0f 83 6a 01 00
	00		 jae	 $LN7@LoadCamera

; 398  : 	{
; 399  : 		SCameraSetting CameraSetting;
; 400  : 		CameraSetting.v3CenterPosition = v3CenterPosition;

  00247	f3 0f 7e 45 bc	 movq	 xmm0, QWORD PTR _v3CenterPosition$[ebp]
  0024c	8b 45 c4	 mov	 eax, DWORD PTR _v3CenterPosition$[ebp+8]
  0024f	66 0f d6 45 c8	 movq	 QWORD PTR _CameraSetting$96[ebp], xmm0
  00254	89 45 d0	 mov	 DWORD PTR _CameraSetting$96[ebp+8], eax
; File C:\Program Files\Microsoft Visual Studio\2022\Community\VC\Tools\MSVC\14.44.35207\include\xstring

; 453  :         return _Myres > _Small_string_capacity;

  00257	83 7a 14 0f	 cmp	 DWORD PTR [edx+20], 15	; 0000000fH

; 445  :         if (_Large_mode_engaged()) {

  0025b	76 02		 jbe	 SHORT $LN334@LoadCamera

; 446  :             _Result = _Unfancy(_Bx._Ptr);

  0025d	8b 12		 mov	 edx, DWORD PTR [edx]
$LN334@LoadCamera:
; File C:\Anka2Project\Anka2Project\Source\Binary\source\UserInterface\PythonApplicationCamera.cpp

; 402  : 		CameraSetting.fZoom					= atof(pCameraSetting->at(0).c_str());

  0025f	52		 push	 edx
  00260	e8 00 00 00 00	 call	 _atof
; File C:\Program Files\Microsoft Visual Studio\2022\Community\VC\Tools\MSVC\14.44.35207\include\vector

; 1949 :         if (static_cast<size_type>(_My_data._Mylast - _My_data._Myfirst) <= _Pos) {

  00265	8b 85 2c ff ff
	ff		 mov	 eax, DWORD PTR _pCameraSetting$[ebp]
; File C:\Anka2Project\Anka2Project\Source\Binary\source\UserInterface\PythonApplicationCamera.cpp

; 402  : 		CameraSetting.fZoom					= atof(pCameraSetting->at(0).c_str());

  0026b	83 c4 04	 add	 esp, 4
  0026e	d9 5d e8	 fstp	 DWORD PTR _CameraSetting$96[ebp+32]
; File C:\Program Files\Microsoft Visual Studio\2022\Community\VC\Tools\MSVC\14.44.35207\include\vector

; 1949 :         if (static_cast<size_type>(_My_data._Mylast - _My_data._Myfirst) <= _Pos) {

  00271	8b 48 04	 mov	 ecx, DWORD PTR [eax+4]
  00274	8b 30		 mov	 esi, DWORD PTR [eax]
  00276	2b ce		 sub	 ecx, esi
  00278	b8 ab aa aa 2a	 mov	 eax, 715827883		; 2aaaaaabH
  0027d	f7 e9		 imul	 ecx
  0027f	c1 fa 02	 sar	 edx, 2
  00282	8b c2		 mov	 eax, edx
  00284	c1 e8 1f	 shr	 eax, 31			; 0000001fH
  00287	03 c2		 add	 eax, edx
  00289	83 f8 01	 cmp	 eax, 1
  0028c	0f 86 84 01 00
	00		 jbe	 $LN448@LoadCamera
; File C:\Program Files\Microsoft Visual Studio\2022\Community\VC\Tools\MSVC\14.44.35207\include\xstring

; 453  :         return _Myres > _Small_string_capacity;

  00292	83 7e 2c 0f	 cmp	 DWORD PTR [esi+44], 15	; 0000000fH
; File C:\Program Files\Microsoft Visual Studio\2022\Community\VC\Tools\MSVC\14.44.35207\include\vector

; 1953 :         return _My_data._Myfirst[_Pos];

  00296	8d 46 18	 lea	 eax, DWORD PTR [esi+24]
; File C:\Program Files\Microsoft Visual Studio\2022\Community\VC\Tools\MSVC\14.44.35207\include\xstring

; 445  :         if (_Large_mode_engaged()) {

  00299	76 02		 jbe	 SHORT $LN347@LoadCamera

; 446  :             _Result = _Unfancy(_Bx._Ptr);

  0029b	8b 00		 mov	 eax, DWORD PTR [eax]
$LN347@LoadCamera:
; File C:\Anka2Project\Anka2Project\Source\Binary\source\UserInterface\PythonApplicationCamera.cpp

; 403  : 		CameraSetting.fPitch				= atof(pCameraSetting->at(1).c_str());

  0029d	50		 push	 eax
  0029e	e8 00 00 00 00	 call	 _atof
; File C:\Program Files\Microsoft Visual Studio\2022\Community\VC\Tools\MSVC\14.44.35207\include\vector

; 1949 :         if (static_cast<size_type>(_My_data._Mylast - _My_data._Myfirst) <= _Pos) {

  002a3	8b 85 2c ff ff
	ff		 mov	 eax, DWORD PTR _pCameraSetting$[ebp]
; File C:\Anka2Project\Anka2Project\Source\Binary\source\UserInterface\PythonApplicationCamera.cpp

; 403  : 		CameraSetting.fPitch				= atof(pCameraSetting->at(1).c_str());

  002a9	83 c4 04	 add	 esp, 4
  002ac	d9 5d e4	 fstp	 DWORD PTR _CameraSetting$96[ebp+28]
; File C:\Program Files\Microsoft Visual Studio\2022\Community\VC\Tools\MSVC\14.44.35207\include\vector

; 1949 :         if (static_cast<size_type>(_My_data._Mylast - _My_data._Myfirst) <= _Pos) {

  002af	8b 48 04	 mov	 ecx, DWORD PTR [eax+4]
  002b2	8b 30		 mov	 esi, DWORD PTR [eax]
  002b4	2b ce		 sub	 ecx, esi
  002b6	b8 ab aa aa 2a	 mov	 eax, 715827883		; 2aaaaaabH
  002bb	f7 e9		 imul	 ecx
  002bd	c1 fa 02	 sar	 edx, 2
  002c0	8b c2		 mov	 eax, edx
  002c2	c1 e8 1f	 shr	 eax, 31			; 0000001fH
  002c5	03 c2		 add	 eax, edx
  002c7	83 f8 02	 cmp	 eax, 2
  002ca	0f 86 46 01 00
	00		 jbe	 $LN448@LoadCamera
; File C:\Program Files\Microsoft Visual Studio\2022\Community\VC\Tools\MSVC\14.44.35207\include\xstring

; 453  :         return _Myres > _Small_string_capacity;

  002d0	83 7e 44 0f	 cmp	 DWORD PTR [esi+68], 15	; 0000000fH
; File C:\Program Files\Microsoft Visual Studio\2022\Community\VC\Tools\MSVC\14.44.35207\include\vector

; 1953 :         return _My_data._Myfirst[_Pos];

  002d4	8d 46 30	 lea	 eax, DWORD PTR [esi+48]
; File C:\Program Files\Microsoft Visual Studio\2022\Community\VC\Tools\MSVC\14.44.35207\include\xstring

; 445  :         if (_Large_mode_engaged()) {

  002d7	76 02		 jbe	 SHORT $LN360@LoadCamera

; 446  :             _Result = _Unfancy(_Bx._Ptr);

  002d9	8b 00		 mov	 eax, DWORD PTR [eax]
$LN360@LoadCamera:
; File C:\Anka2Project\Anka2Project\Source\Binary\source\UserInterface\PythonApplicationCamera.cpp

; 404  : 		CameraSetting.fRotation				= atof(pCameraSetting->at(2).c_str());

  002db	50		 push	 eax
  002dc	e8 00 00 00 00	 call	 _atof
; File C:\Program Files\Microsoft Visual Studio\2022\Community\VC\Tools\MSVC\14.44.35207\include\vector

; 1949 :         if (static_cast<size_type>(_My_data._Mylast - _My_data._Myfirst) <= _Pos) {

  002e1	8b 85 30 ff ff
	ff		 mov	 eax, DWORD PTR _pCmrPos$[ebp]
; File C:\Anka2Project\Anka2Project\Source\Binary\source\UserInterface\PythonApplicationCamera.cpp

; 404  : 		CameraSetting.fRotation				= atof(pCameraSetting->at(2).c_str());

  002e7	83 c4 04	 add	 esp, 4
  002ea	d9 5d e0	 fstp	 DWORD PTR _CameraSetting$96[ebp+24]
; File C:\Program Files\Microsoft Visual Studio\2022\Community\VC\Tools\MSVC\14.44.35207\include\vector

; 1949 :         if (static_cast<size_type>(_My_data._Mylast - _My_data._Myfirst) <= _Pos) {

  002ed	8b 48 04	 mov	 ecx, DWORD PTR [eax+4]
  002f0	8b 30		 mov	 esi, DWORD PTR [eax]
  002f2	2b ce		 sub	 ecx, esi
  002f4	b8 ab aa aa 2a	 mov	 eax, 715827883		; 2aaaaaabH
  002f9	f7 e9		 imul	 ecx
  002fb	c1 fa 02	 sar	 edx, 2
  002fe	8b c2		 mov	 eax, edx
  00300	c1 e8 1f	 shr	 eax, 31			; 0000001fH
  00303	03 c2		 add	 eax, edx
  00305	0f 84 0b 01 00
	00		 je	 $LN448@LoadCamera
; File C:\Program Files\Microsoft Visual Studio\2022\Community\VC\Tools\MSVC\14.44.35207\include\xstring

; 453  :         return _Myres > _Small_string_capacity;

  0030b	83 7e 14 0f	 cmp	 DWORD PTR [esi+20], 15	; 0000000fH

; 445  :         if (_Large_mode_engaged()) {

  0030f	76 02		 jbe	 SHORT $LN373@LoadCamera

; 446  :             _Result = _Unfancy(_Bx._Ptr);

  00311	8b 36		 mov	 esi, DWORD PTR [esi]
$LN373@LoadCamera:
; File C:\Anka2Project\Anka2Project\Source\Binary\source\UserInterface\PythonApplicationCamera.cpp

; 406  : 		CameraSetting.kCmrPos.m_fUpDir		= atof(pCmrPos->at(0).c_str());

  00313	56		 push	 esi
  00314	e8 00 00 00 00	 call	 _atof
; File C:\Program Files\Microsoft Visual Studio\2022\Community\VC\Tools\MSVC\14.44.35207\include\vector

; 1949 :         if (static_cast<size_type>(_My_data._Mylast - _My_data._Myfirst) <= _Pos) {

  00319	8b 85 30 ff ff
	ff		 mov	 eax, DWORD PTR _pCmrPos$[ebp]
; File C:\Anka2Project\Anka2Project\Source\Binary\source\UserInterface\PythonApplicationCamera.cpp

; 406  : 		CameraSetting.kCmrPos.m_fUpDir		= atof(pCmrPos->at(0).c_str());

  0031f	83 c4 04	 add	 esp, 4
  00322	d9 5d d4	 fstp	 DWORD PTR _CameraSetting$96[ebp+12]
; File C:\Program Files\Microsoft Visual Studio\2022\Community\VC\Tools\MSVC\14.44.35207\include\vector

; 1949 :         if (static_cast<size_type>(_My_data._Mylast - _My_data._Myfirst) <= _Pos) {

  00325	8b 48 04	 mov	 ecx, DWORD PTR [eax+4]
  00328	8b 30		 mov	 esi, DWORD PTR [eax]
  0032a	2b ce		 sub	 ecx, esi
  0032c	b8 ab aa aa 2a	 mov	 eax, 715827883		; 2aaaaaabH
  00331	f7 e9		 imul	 ecx
  00333	c1 fa 02	 sar	 edx, 2
  00336	8b c2		 mov	 eax, edx
  00338	c1 e8 1f	 shr	 eax, 31			; 0000001fH
  0033b	03 c2		 add	 eax, edx
  0033d	83 f8 01	 cmp	 eax, 1
  00340	0f 86 d0 00 00
	00		 jbe	 $LN448@LoadCamera
; File C:\Program Files\Microsoft Visual Studio\2022\Community\VC\Tools\MSVC\14.44.35207\include\xstring

; 453  :         return _Myres > _Small_string_capacity;

  00346	83 7e 2c 0f	 cmp	 DWORD PTR [esi+44], 15	; 0000000fH
; File C:\Program Files\Microsoft Visual Studio\2022\Community\VC\Tools\MSVC\14.44.35207\include\vector

; 1953 :         return _My_data._Myfirst[_Pos];

  0034a	8d 46 18	 lea	 eax, DWORD PTR [esi+24]
; File C:\Program Files\Microsoft Visual Studio\2022\Community\VC\Tools\MSVC\14.44.35207\include\xstring

; 445  :         if (_Large_mode_engaged()) {

  0034d	76 02		 jbe	 SHORT $LN386@LoadCamera

; 446  :             _Result = _Unfancy(_Bx._Ptr);

  0034f	8b 00		 mov	 eax, DWORD PTR [eax]
$LN386@LoadCamera:
; File C:\Anka2Project\Anka2Project\Source\Binary\source\UserInterface\PythonApplicationCamera.cpp

; 407  : 		CameraSetting.kCmrPos.m_fViewDir	= atof(pCmrPos->at(1).c_str());

  00351	50		 push	 eax
  00352	e8 00 00 00 00	 call	 _atof
; File C:\Program Files\Microsoft Visual Studio\2022\Community\VC\Tools\MSVC\14.44.35207\include\vector

; 1949 :         if (static_cast<size_type>(_My_data._Mylast - _My_data._Myfirst) <= _Pos) {

  00357	8b 8d 30 ff ff
	ff		 mov	 ecx, DWORD PTR _pCmrPos$[ebp]
  0035d	b8 ab aa aa 2a	 mov	 eax, 715827883		; 2aaaaaabH
; File C:\Anka2Project\Anka2Project\Source\Binary\source\UserInterface\PythonApplicationCamera.cpp

; 407  : 		CameraSetting.kCmrPos.m_fViewDir	= atof(pCmrPos->at(1).c_str());

  00362	d9 5d d8	 fstp	 DWORD PTR _CameraSetting$96[ebp+16]
  00365	83 c4 04	 add	 esp, 4
; File C:\Program Files\Microsoft Visual Studio\2022\Community\VC\Tools\MSVC\14.44.35207\include\vector

; 1949 :         if (static_cast<size_type>(_My_data._Mylast - _My_data._Myfirst) <= _Pos) {

  00368	8b 31		 mov	 esi, DWORD PTR [ecx]
  0036a	8b 49 04	 mov	 ecx, DWORD PTR [ecx+4]
  0036d	2b ce		 sub	 ecx, esi
  0036f	f7 e9		 imul	 ecx
  00371	c1 fa 02	 sar	 edx, 2
  00374	8b c2		 mov	 eax, edx
  00376	c1 e8 1f	 shr	 eax, 31			; 0000001fH
  00379	03 c2		 add	 eax, edx
  0037b	83 f8 02	 cmp	 eax, 2
  0037e	0f 86 92 00 00
	00		 jbe	 $LN448@LoadCamera
; File C:\Program Files\Microsoft Visual Studio\2022\Community\VC\Tools\MSVC\14.44.35207\include\xstring

; 453  :         return _Myres > _Small_string_capacity;

  00384	83 7e 44 0f	 cmp	 DWORD PTR [esi+68], 15	; 0000000fH
; File C:\Program Files\Microsoft Visual Studio\2022\Community\VC\Tools\MSVC\14.44.35207\include\vector

; 1953 :         return _My_data._Myfirst[_Pos];

  00388	8d 46 30	 lea	 eax, DWORD PTR [esi+48]
; File C:\Program Files\Microsoft Visual Studio\2022\Community\VC\Tools\MSVC\14.44.35207\include\xstring

; 445  :         if (_Large_mode_engaged()) {

  0038b	76 02		 jbe	 SHORT $LN399@LoadCamera

; 446  :             _Result = _Unfancy(_Bx._Ptr);

  0038d	8b 00		 mov	 eax, DWORD PTR [eax]
$LN399@LoadCamera:
; File C:\Anka2Project\Anka2Project\Source\Binary\source\UserInterface\PythonApplicationCamera.cpp

; 408  : 		CameraSetting.kCmrPos.m_fCrossDir	= atof(pCmrPos->at(2).c_str());

  0038f	50		 push	 eax
  00390	e8 00 00 00 00	 call	 _atof

; 409  : 
; 410  : 		SetEventCamera(CameraSetting);

  00395	8b 47 20	 mov	 eax, DWORD PTR [edi+32]
  00398	8d 4f 20	 lea	 ecx, DWORD PTR [edi+32]
  0039b	83 c4 04	 add	 esp, 4
  0039e	8d 55 c8	 lea	 edx, DWORD PTR _CameraSetting$96[ebp]
  003a1	d9 5d dc	 fstp	 DWORD PTR _CameraSetting$96[ebp+20]
  003a4	52		 push	 edx
  003a5	ff 50 1c	 call	 DWORD PTR [eax+28]

; 411  : 		return true;

  003a8	c6 85 37 ff ff
	ff 01		 mov	 BYTE PTR $T95[ebp], 1
  003af	eb 07		 jmp	 SHORT $LN14@LoadCamera
$LN7@LoadCamera:

; 412  : 	}
; 413  : 
; 414  : 	return false;

  003b1	c6 85 37 ff ff
	ff 00		 mov	 BYTE PTR $T95[ebp], 0
$LN14@LoadCamera:
  003b8	8d 8d 38 ff ff
	ff		 lea	 ecx, DWORD PTR _TextFileLoader$[ebp]
  003be	e8 00 00 00 00	 call	 ??1CTextFileLoader@@UAE@XZ ; CTextFileLoader::~CTextFileLoader
  003c3	8a 85 37 ff ff
	ff		 mov	 al, BYTE PTR $T95[ebp]

; 415  : }

  003c9	8b 4d f4	 mov	 ecx, DWORD PTR __$EHRec$[ebp]
  003cc	64 89 0d 00 00
	00 00		 mov	 DWORD PTR fs:0, ecx
  003d3	59		 pop	 ecx
  003d4	5f		 pop	 edi
  003d5	5e		 pop	 esi
  003d6	8b 4d ec	 mov	 ecx, DWORD PTR __$ArrayPad$[ebp]
  003d9	33 cd		 xor	 ecx, ebp
  003db	e8 00 00 00 00	 call	 @__security_check_cookie@4
  003e0	8b e5		 mov	 esp, ebp
  003e2	5d		 pop	 ebp
  003e3	8b e3		 mov	 esp, ebx
  003e5	5b		 pop	 ebx
  003e6	c2 04 00	 ret	 4
$LN456@LoadCamera:
; File C:\Program Files\Microsoft Visual Studio\2022\Community\VC\Tools\MSVC\14.44.35207\include\xmemory

; 219  :     _STL_VERIFY(_Back_shift >= _Min_back_shift && _Back_shift <= _Non_user_size, "invalid argument");

  003e9	6a 00		 push	 0
  003eb	6a 00		 push	 0
  003ed	6a 00		 push	 0
  003ef	6a 00		 push	 0
  003f1	6a 00		 push	 0
  003f3	e8 00 00 00 00	 call	 __invoke_watson
$LN457@LoadCamera:
  003f8	6a 00		 push	 0
  003fa	6a 00		 push	 0
  003fc	6a 00		 push	 0
  003fe	6a 00		 push	 0
  00400	6a 00		 push	 0
  00402	e8 00 00 00 00	 call	 __invoke_watson
$LN458@LoadCamera:
  00407	6a 00		 push	 0
  00409	6a 00		 push	 0
  0040b	6a 00		 push	 0
  0040d	6a 00		 push	 0
  0040f	6a 00		 push	 0
  00411	e8 00 00 00 00	 call	 __invoke_watson
$LN448@LoadCamera:
; File C:\Program Files\Microsoft Visual Studio\2022\Community\VC\Tools\MSVC\14.44.35207\include\vector

; 1950 :             _Xrange();

  00416	e8 00 00 00 00	 call	 ?_Xrange@?$vector@V?$basic_string@DU?$char_traits@D@std@@V?$allocator@D@2@@std@@V?$allocator@V?$basic_string@DU?$char_traits@D@std@@V?$allocator@D@2@@std@@@2@@std@@CAXXZ ; std::vector<std::basic_string<char,std::char_traits<char>,std::allocator<char> >,std::allocator<std::basic_string<char,std::char_traits<char>,std::allocator<char> > > >::_Xrange
$LN454@LoadCamera:
  0041b	cc		 int	 3
_TEXT	ENDS
;	COMDAT text$x
text$x	SEGMENT
__unwindfunclet$?LoadCameraSetting@CPythonApplication@@QAE_NPBD@Z$0:
  00000	8d 8d 38 ff ff
	ff		 lea	 ecx, DWORD PTR _TextFileLoader$[ebp]
  00006	e9 00 00 00 00	 jmp	 ??1CTextFileLoader@@UAE@XZ ; CTextFileLoader::~CTextFileLoader
__unwindfunclet$?LoadCameraSetting@CPythonApplication@@QAE_NPBD@Z$1:
  0000b	8d 4d d4	 lea	 ecx, DWORD PTR $T3[ebp]
  0000e	e9 00 00 00 00	 jmp	 ??1?$basic_string@DU?$char_traits@D@std@@V?$allocator@D@2@@std@@QAE@XZ ; std::basic_string<char,std::char_traits<char>,std::allocator<char> >::~basic_string<char,std::char_traits<char>,std::allocator<char> >
__unwindfunclet$?LoadCameraSetting@CPythonApplication@@QAE_NPBD@Z$2:
  00013	8d 4d d4	 lea	 ecx, DWORD PTR $T24[ebp]
  00016	e9 00 00 00 00	 jmp	 ??1?$basic_string@DU?$char_traits@D@std@@V?$allocator@D@2@@std@@QAE@XZ ; std::basic_string<char,std::char_traits<char>,std::allocator<char> >::~basic_string<char,std::char_traits<char>,std::allocator<char> >
__unwindfunclet$?LoadCameraSetting@CPythonApplication@@QAE_NPBD@Z$3:
  0001b	8d 4d d4	 lea	 ecx, DWORD PTR $T45[ebp]
  0001e	e9 00 00 00 00	 jmp	 ??1?$basic_string@DU?$char_traits@D@std@@V?$allocator@D@2@@std@@QAE@XZ ; std::basic_string<char,std::char_traits<char>,std::allocator<char> >::~basic_string<char,std::char_traits<char>,std::allocator<char> >
  00023	cc		 int	 3
  00024	cc		 int	 3
  00025	cc		 int	 3
  00026	cc		 int	 3
  00027	cc		 int	 3
__ehhandler$?LoadCameraSetting@CPythonApplication@@QAE_NPBD@Z:
  00028	90		 npad	 1
  00029	90		 npad	 1
  0002a	8b 54 24 08	 mov	 edx, DWORD PTR [esp+8]
  0002e	8d 42 0c	 lea	 eax, DWORD PTR [edx+12]
  00031	8b 8a 28 ff ff
	ff		 mov	 ecx, DWORD PTR [edx-216]
  00037	33 c8		 xor	 ecx, eax
  00039	e8 00 00 00 00	 call	 @__security_check_cookie@4
  0003e	8b 4a f8	 mov	 ecx, DWORD PTR [edx-8]
  00041	33 c8		 xor	 ecx, eax
  00043	e8 00 00 00 00	 call	 @__security_check_cookie@4
  00048	b8 00 00 00 00	 mov	 eax, OFFSET __ehfuncinfo$?LoadCameraSetting@CPythonApplication@@QAE_NPBD@Z
  0004d	e9 00 00 00 00	 jmp	 ___CxxFrameHandler3
text$x	ENDS
?LoadCameraSetting@CPythonApplication@@QAE_NPBD@Z ENDP	; CPythonApplication::LoadCameraSetting
END
