; Listing generated by Microsoft (R) Optimizing Compiler Version 19.44.35219.0 

	TITLE	c:\anka2project\anka2project\source\binary\vs_files\userinterface\release\pythonshop.obj
	.686P
	.XMM
	include listing.inc
	.model	flat

INCLUDELIB OLDNAMES

PUBLIC	??_C@_0FC@PFANBFHB@Out?5of?5Index?4?5tabIdx?$CI?$CFd?$CJ?5must?5b@ ; `string'
PUBLIC	??_C@_0CP@FJEENICJ@Out?5of?5Index?4?5tabIdx?$CI?$CFd?$CJ?5must?5b@ ; `string'
PUBLIC	??_C@_01OCOKONAJ@L@				; `string'
PUBLIC	??_C@_04OKGDLNCL@NONE@				; `string'
PUBLIC	??_C@_06DKEIEPKC@IsOpen@			; `string'
PUBLIC	??_C@_04DNCDCIAE@Open@				; `string'
PUBLIC	??_C@_0BI@HHPKCPJD@IsMainPlayerPrivateShop@	; `string'
PUBLIC	??_C@_0O@EDCBOPPA@IsPrivateShop@		; `string'
PUBLIC	??_C@_0M@PGHDAHMM@GetTabCount@			; `string'
PUBLIC	??_C@_0N@OIFMMAOE@GetItemPrice@			; `string'
PUBLIC	??_C@_0P@CFALBIIJ@GetTabCoinType@		; `string'
PUBLIC	??_C@_0L@HEMHLKHB@GetTabName@			; `string'
PUBLIC	??_C@_0BB@JOKODNDH@GetItemPriceVnum@		; `string'
PUBLIC	??_C@_0BB@OHLCEJJC@GetItemPriceType@		; `string'
PUBLIC	??_C@_0BI@JLNKJOOM@AddPrivateShopItemStock@	; `string'
PUBLIC	??_C@_0BG@BMKKEDKK@ClearPrivateShopStock@	; `string'
PUBLIC	??_C@_0BI@KLFPJJHF@GetPrivateShopItemPrice@	; `string'
PUBLIC	??_C@_0BI@FBMJKJEA@DelPrivateShopItemStock@	; `string'
PUBLIC	??_C@_0CA@JPBLMNKD@GetOfflineShopItemTransmutation@ ; `string'
PUBLIC	??_C@_0BB@MDMPBIAN@BuildPrivateShop@		; `string'
PUBLIC	??_C@_0BF@BLIEEIGK@GetOfflineShopItemID@	; `string'
PUBLIC	??_C@_0O@PLCMGBGD@IsOfflineShop@		; `string'
PUBLIC	??_C@_0BH@EIEDKBFD@GetOfflineShopItemVnum@	; `string'
PUBLIC	??_C@_0BI@NFEEPLNM@GetOfflineShopItemCount@	; `string'
PUBLIC	??_C@_0BO@HEAPKDCE@GetOfflineShopItemMetinSocket@ ; `string'
PUBLIC	??_C@_0BI@IJLIIALO@GetOfflineShopItemPrice@	; `string'
PUBLIC	??_C@_07HPMDFBOJ@GetSign@			; `string'
PUBLIC	??_C@_0BM@LKCCPGFH@GetOfflineShopItemAttribute@	; `string'
PUBLIC	??_C@_0BI@LJDNIHCH@AddOfflineShopItemStock@	; `string'
PUBLIC	??_C@_0BG@KDEOGIIB@ClearOfflineShopStock@	; `string'
PUBLIC	??_C@_0BM@GKJGCDDL@GetOfflineShopItemPriceReal@	; `string'
PUBLIC	??_C@_0BI@HDCOLAIL@DelOfflineShopItemStock@	; `string'
PUBLIC	??_C@_0BM@NOLOIGOM@GetOfflineShopItemBuyerName@	; `string'
PUBLIC	??_C@_0BJ@COGLHCCJ@GetOfflineShopItemStatus@	; `string'
PUBLIC	??_C@_0BC@BGGPLLFN@GetDisplayedCount@		; `string'
PUBLIC	??_C@_0BB@HLMCJGJO@BuildOfflineShop@		; `string'
PUBLIC	??_C@_0BL@KFFFJEDN@GetCurrentOfflineShopMoney@	; `string'
PUBLIC	??_C@_0BB@OMKHKKDA@GetOfflineShopID@		; `string'
PUBLIC	??_C@_0BE@EDLJNLOK@GetRealWatcherCount@		; `string'
PUBLIC	??_C@_0P@GALMKFH@HasOfflineShop@		; `string'
PUBLIC	??_C@_0M@OFBHDGCC@GetShopFlag@			; `string'
PUBLIC	??_C@_0BB@HKMACCCG@ChangeDecoration@		; `string'
PUBLIC	??_C@_0M@LHCCPOKI@GetShopType@			; `string'
PUBLIC	??_C@_0M@OKAJOAKB@SetShopFlag@			; `string'
PUBLIC	??_C@_0M@PDMFJJBE@GetShopTime@			; `string'
PUBLIC	??_C@_0M@LIDMCICL@SetShopType@			; `string'
PUBLIC	??_C@_04BFIJLIPK@shop@				; `string'
PUBLIC	??_C@_0M@PMNLEPJH@SetShopTime@			; `string'
PUBLIC	??_C@_0BE@FOBHCAAH@SHOP_COIN_TYPE_GOLD@		; `string'
PUBLIC	??_C@_0BA@MMIAEKCC@SHOP_SLOT_COUNT@		; `string'
PUBLIC	??_C@_0M@PGAJLHHB@SHOPEX_GOLD@			; `string'
PUBLIC	??_C@_0BO@GEPHLMDC@SHOP_COIN_TYPE_SECONDARY_COIN@ ; `string'
PUBLIC	??_C@_0M@BADCFJEI@SHOPEX_ITEM@			; `string'
PUBLIC	??_C@_0N@BHLKHBHI@SHOPEX_COINS@			; `string'
PUBLIC	??_C@_0L@IKKNLFGH@SHOPEX_MAX@			; `string'
PUBLIC	??_C@_0L@JEDHIPHP@SHOPEX_EXP@			; `string'
PUBLIC	??_C@_0BI@BDLFABJN@OFFLINE_SHOP_SLOT_COUNT@	; `string'
PUBLIC	??_R2CPythonShop@@8				; CPythonShop::`RTTI Base Class Array'
PUBLIC	??_R2?$CSingleton@VCPythonShop@@@@8		; CSingleton<CPythonShop>::`RTTI Base Class Array'
PUBLIC	??_R1A@?0A@EA@CPythonShop@@8			; CPythonShop::`RTTI Base Class Descriptor at (0,-1,0,64)'
PUBLIC	??_R1A@?0A@EA@?$CSingleton@VCPythonShop@@@@8	; CSingleton<CPythonShop>::`RTTI Base Class Descriptor at (0,-1,0,64)'
PUBLIC	??_R0?AV?$CSingleton@VCPythonShop@@@@@8		; CSingleton<CPythonShop> `RTTI Type Descriptor'
PUBLIC	??_R3?$CSingleton@VCPythonShop@@@@8		; CSingleton<CPythonShop>::`RTTI Class Hierarchy Descriptor'
PUBLIC	??_R0?AVCPythonShop@@@8				; CPythonShop `RTTI Type Descriptor'
PUBLIC	??_R3CPythonShop@@8				; CPythonShop::`RTTI Class Hierarchy Descriptor'
PUBLIC	??_R4?$CSingleton@VCPythonShop@@@@6B@		; CSingleton<CPythonShop>::`RTTI Complete Object Locator'
PUBLIC	??_R4CPythonShop@@6B@				; CPythonShop::`RTTI Complete Object Locator'
PUBLIC	??_7?$CSingleton@VCPythonShop@@@@6B@		; CSingleton<CPythonShop>::`vftable'
PUBLIC	??_7CPythonShop@@6B@				; CPythonShop::`vftable'
;	COMDAT ??_7CPythonShop@@6B@
CONST	SEGMENT
??_7CPythonShop@@6B@ DD FLAT:??_R4CPythonShop@@6B@	; CPythonShop::`vftable'
	DD	FLAT:??_ECPythonShop@@UAEPAXI@Z
CONST	ENDS
;	COMDAT ?s_methods@?1??initshop@@YAXXZ@4PAUPyMethodDef@@A
_DATA	SEGMENT
?s_methods@?1??initshop@@YAXXZ@4PAUPyMethodDef@@A DD FLAT:??_C@_04DNCDCIAE@Open@ ; `initshop'::`2'::s_methods
	DD	FLAT:?shopOpen@@YAPAU_object@@PAU1@0@Z
	DD	01H
	ORG $+4
	DD	FLAT:??_C@_05LGELBCGM@Close@
	DD	FLAT:?shopClose@@YAPAU_object@@PAU1@0@Z
	DD	01H
	ORG $+4
	DD	FLAT:??_C@_05MDNHABIA@Clear@
	DD	FLAT:?shopClear@@YAPAU_object@@PAU1@0@Z
	DD	01H
	ORG $+4
	DD	FLAT:??_C@_06DKEIEPKC@IsOpen@
	DD	FLAT:?shopIsOpen@@YAPAU_object@@PAU1@0@Z
	DD	01H
	ORG $+4
	DD	FLAT:??_C@_0O@EDCBOPPA@IsPrivateShop@
	DD	FLAT:?shopIsPrviateShop@@YAPAU_object@@PAU1@0@Z
	DD	01H
	ORG $+4
	DD	FLAT:??_C@_0BI@HHPKCPJD@IsMainPlayerPrivateShop@
	DD	FLAT:?shopIsMainPlayerPrivateShop@@YAPAU_object@@PAU1@0@Z
	DD	01H
	ORG $+4
	DD	FLAT:??_C@_09GMBNEEAB@GetItemID@
	DD	FLAT:?shopGetItemID@@YAPAU_object@@PAU1@0@Z
	DD	01H
	ORG $+4
	DD	FLAT:??_C@_0N@LEKALLIG@GetItemCount@
	DD	FLAT:?shopGetItemCount@@YAPAU_object@@PAU1@0@Z
	DD	01H
	ORG $+4
	DD	FLAT:??_C@_0N@OIFMMAOE@GetItemPrice@
	DD	FLAT:?shopGetItemPrice@@YAPAU_object@@PAU1@0@Z
	DD	01H
	ORG $+4
	DD	FLAT:??_C@_0BD@JBOBKHIE@GetItemMetinSocket@
	DD	FLAT:?shopGetItemMetinSocket@@YAPAU_object@@PAU1@0@Z
	DD	01H
	ORG $+4
	DD	FLAT:??_C@_0BB@GOKPPDHH@GetItemAttribute@
	DD	FLAT:?shopGetItemAttribute@@YAPAU_object@@PAU1@0@Z
	DD	01H
	ORG $+4
	DD	FLAT:??_C@_0M@PGHDAHMM@GetTabCount@
	DD	FLAT:?shopGetTabCount@@YAPAU_object@@PAU1@0@Z
	DD	01H
	ORG $+4
	DD	FLAT:??_C@_0L@HEMHLKHB@GetTabName@
	DD	FLAT:?shopGetTabName@@YAPAU_object@@PAU1@0@Z
	DD	01H
	ORG $+4
	DD	FLAT:??_C@_0P@CFALBIIJ@GetTabCoinType@
	DD	FLAT:?shopGetTabCoinType@@YAPAU_object@@PAU1@0@Z
	DD	01H
	ORG $+4
	DD	FLAT:??_C@_0BB@OHLCEJJC@GetItemPriceType@
	DD	FLAT:?shopGetItemPriceType@@YAPAU_object@@PAU1@0@Z
	DD	01H
	ORG $+4
	DD	FLAT:??_C@_0BB@JOKODNDH@GetItemPriceVnum@
	DD	FLAT:?shopGetItemPriceVnum@@YAPAU_object@@PAU1@0@Z
	DD	01H
	ORG $+4
	DD	FLAT:??_C@_0BG@BMKKEDKK@ClearPrivateShopStock@
	DD	FLAT:?shopClearPrivateShopStock@@YAPAU_object@@PAU1@0@Z
	DD	01H
	ORG $+4
	DD	FLAT:??_C@_0BI@JLNKJOOM@AddPrivateShopItemStock@
	DD	FLAT:?shopAddPrivateShopItemStock@@YAPAU_object@@PAU1@0@Z
	DD	01H
	ORG $+4
	DD	FLAT:??_C@_0BI@FBMJKJEA@DelPrivateShopItemStock@
	DD	FLAT:?shopDelPrivateShopItemStock@@YAPAU_object@@PAU1@0@Z
	DD	01H
	ORG $+4
	DD	FLAT:??_C@_0BI@KLFPJJHF@GetPrivateShopItemPrice@
	DD	FLAT:?shopGetPrivateShopItemPrice@@YAPAU_object@@PAU1@0@Z
	DD	01H
	ORG $+4
	DD	FLAT:??_C@_0BB@MDMPBIAN@BuildPrivateShop@
	DD	FLAT:?shopBuildPrivateShop@@YAPAU_object@@PAU1@0@Z
	DD	01H
	ORG $+4
	DD	FLAT:??_C@_0CA@JPBLMNKD@GetOfflineShopItemTransmutation@
	DD	FLAT:?shopGetOfflineShopItemTransmutation@@YAPAU_object@@PAU1@0@Z
	DD	01H
	ORG $+4
	DD	FLAT:??_C@_0O@PLCMGBGD@IsOfflineShop@
	DD	FLAT:?shopIsOfflineShop@@YAPAU_object@@PAU1@0@Z
	DD	01H
	ORG $+4
	DD	FLAT:??_C@_0BF@BLIEEIGK@GetOfflineShopItemID@
	DD	FLAT:?shopGetOfflineShopItemID@@YAPAU_object@@PAU1@0@Z
	DD	01H
	ORG $+4
	DD	FLAT:??_C@_0BI@NFEEPLNM@GetOfflineShopItemCount@
	DD	FLAT:?shopGetOfflineShopItemCount@@YAPAU_object@@PAU1@0@Z
	DD	01H
	ORG $+4
	DD	FLAT:??_C@_0BH@EIEDKBFD@GetOfflineShopItemVnum@
	DD	FLAT:?shopGetOfflineShopItemVnum@@YAPAU_object@@PAU1@0@Z
	DD	01H
	ORG $+4
	DD	FLAT:??_C@_0BI@IJLIIALO@GetOfflineShopItemPrice@
	DD	FLAT:?shopGetOfflineShopItemPrice@@YAPAU_object@@PAU1@0@Z
	DD	01H
	ORG $+4
	DD	FLAT:??_C@_0BO@HEAPKDCE@GetOfflineShopItemMetinSocket@
	DD	FLAT:?shopGetOfflineShopItemMetinSocket@@YAPAU_object@@PAU1@0@Z
	DD	01H
	ORG $+4
	DD	FLAT:??_C@_0BM@LKCCPGFH@GetOfflineShopItemAttribute@
	DD	FLAT:?shopGetOfflineShopItemAttribute@@YAPAU_object@@PAU1@0@Z
	DD	01H
	ORG $+4
	DD	FLAT:??_C@_07HPMDFBOJ@GetSign@
	DD	FLAT:?shopGetSign@@YAPAU_object@@PAU1@0@Z
	DD	01H
	ORG $+4
	DD	FLAT:??_C@_0BG@KDEOGIIB@ClearOfflineShopStock@
	DD	FLAT:?shopClearOfflineShopStock@@YAPAU_object@@PAU1@0@Z
	DD	01H
	ORG $+4
	DD	FLAT:??_C@_0BI@LJDNIHCH@AddOfflineShopItemStock@
	DD	FLAT:?shopAddOfflineShopItemStock@@YAPAU_object@@PAU1@0@Z
	DD	01H
	ORG $+4
	DD	FLAT:??_C@_0BI@HDCOLAIL@DelOfflineShopItemStock@
	DD	FLAT:?shopDelOfflineShopItemStock@@YAPAU_object@@PAU1@0@Z
	DD	01H
	ORG $+4
	DD	FLAT:??_C@_0BM@GKJGCDDL@GetOfflineShopItemPriceReal@
	DD	FLAT:?shopGetOfflineShopItemPriceReal@@YAPAU_object@@PAU1@0@Z
	DD	01H
	ORG $+4
	DD	FLAT:??_C@_0BJ@COGLHCCJ@GetOfflineShopItemStatus@
	DD	FLAT:?shopGetOfflineShopItemGetStatus@@YAPAU_object@@PAU1@0@Z
	DD	01H
	ORG $+4
	DD	FLAT:??_C@_0BM@NOLOIGOM@GetOfflineShopItemBuyerName@
	DD	FLAT:?shopGetOfflineShopItemGetBuyerName@@YAPAU_object@@PAU1@0@Z
	DD	01H
	ORG $+4
	DD	FLAT:??_C@_0BB@HLMCJGJO@BuildOfflineShop@
	DD	FLAT:?shopBuildOfflineShop@@YAPAU_object@@PAU1@0@Z
	DD	01H
	ORG $+4
	DD	FLAT:??_C@_0BC@BGGPLLFN@GetDisplayedCount@
	DD	FLAT:?shopGetDisplayedCount@@YAPAU_object@@PAU1@0@Z
	DD	01H
	ORG $+4
	DD	FLAT:??_C@_0BB@OMKHKKDA@GetOfflineShopID@
	DD	FLAT:?shopGetOfflineShopID@@YAPAU_object@@PAU1@0@Z
	DD	01H
	ORG $+4
	DD	FLAT:??_C@_0BL@KFFFJEDN@GetCurrentOfflineShopMoney@
	DD	FLAT:?shopGetCurrentOfflineShopMoney@@YAPAU_object@@PAU1@0@Z
	DD	01H
	ORG $+4
	DD	FLAT:??_C@_0P@GALMKFH@HasOfflineShop@
	DD	FLAT:?shopHasOfflineShop@@YAPAU_object@@PAU1@0@Z
	DD	01H
	ORG $+4
	DD	FLAT:??_C@_0BE@EDLJNLOK@GetRealWatcherCount@
	DD	FLAT:?shopGetRealWatcherCount@@YAPAU_object@@PAU1@0@Z
	DD	01H
	ORG $+4
	DD	FLAT:??_C@_0BB@HKMACCCG@ChangeDecoration@
	DD	FLAT:?shopChangeDecoration@@YAPAU_object@@PAU1@0@Z
	DD	01H
	ORG $+4
	DD	FLAT:??_C@_0M@OFBHDGCC@GetShopFlag@
	DD	FLAT:?shopGetShopFlag@@YAPAU_object@@PAU1@0@Z
	DD	01H
	ORG $+4
	DD	FLAT:??_C@_0M@OKAJOAKB@SetShopFlag@
	DD	FLAT:?shopSetShopFlag@@YAPAU_object@@PAU1@0@Z
	DD	01H
	ORG $+4
	DD	FLAT:??_C@_0M@LHCCPOKI@GetShopType@
	DD	FLAT:?shopGetShopType@@YAPAU_object@@PAU1@0@Z
	DD	01H
	ORG $+4
	DD	FLAT:??_C@_0M@LIDMCICL@SetShopType@
	DD	FLAT:?shopSetShopType@@YAPAU_object@@PAU1@0@Z
	DD	01H
	ORG $+4
	DD	FLAT:??_C@_0M@PDMFJJBE@GetShopTime@
	DD	FLAT:?shopGetShopTime@@YAPAU_object@@PAU1@0@Z
	DD	01H
	ORG $+4
	DD	FLAT:??_C@_0M@PMNLEPJH@SetShopTime@
	DD	FLAT:?shopSetShopTime@@YAPAU_object@@PAU1@0@Z
	DD	01H
	ORG $+4
	DD	FLAT:??_C@_0BG@IJOJLONA@GetItemChangeLookVnum@
	DD	FLAT:?shopGetItemChangeLookVnum@@YAPAU_object@@PAU1@0@Z
	DD	01H
	ORG $+4
	DD	00H
	DD	00H
	ORG $+8
_DATA	ENDS
;	COMDAT ??_7?$CSingleton@VCPythonShop@@@@6B@
CONST	SEGMENT
??_7?$CSingleton@VCPythonShop@@@@6B@ DD FLAT:??_R4?$CSingleton@VCPythonShop@@@@6B@ ; CSingleton<CPythonShop>::`vftable'
	DD	FLAT:??_E?$CSingleton@VCPythonShop@@@@UAEPAXI@Z
CONST	ENDS
;	COMDAT ??_R4CPythonShop@@6B@
rdata$r	SEGMENT
??_R4CPythonShop@@6B@ DD 00H				; CPythonShop::`RTTI Complete Object Locator'
	DD	00H
	DD	00H
	DD	FLAT:??_R0?AVCPythonShop@@@8
	DD	FLAT:??_R3CPythonShop@@8
rdata$r	ENDS
;	COMDAT ??_R4?$CSingleton@VCPythonShop@@@@6B@
rdata$r	SEGMENT
??_R4?$CSingleton@VCPythonShop@@@@6B@ DD 00H		; CSingleton<CPythonShop>::`RTTI Complete Object Locator'
	DD	00H
	DD	00H
	DD	FLAT:??_R0?AV?$CSingleton@VCPythonShop@@@@@8
	DD	FLAT:??_R3?$CSingleton@VCPythonShop@@@@8
rdata$r	ENDS
;	COMDAT ??_R3CPythonShop@@8
rdata$r	SEGMENT
??_R3CPythonShop@@8 DD 00H				; CPythonShop::`RTTI Class Hierarchy Descriptor'
	DD	00H
	DD	02H
	DD	FLAT:??_R2CPythonShop@@8
rdata$r	ENDS
;	COMDAT ??_R0?AVCPythonShop@@@8
data$rs	SEGMENT
??_R0?AVCPythonShop@@@8 DD FLAT:??_7type_info@@6B@	; CPythonShop `RTTI Type Descriptor'
	DD	00H
	DB	'.?AVCPythonShop@@', 00H
data$rs	ENDS
;	COMDAT ??_R3?$CSingleton@VCPythonShop@@@@8
rdata$r	SEGMENT
??_R3?$CSingleton@VCPythonShop@@@@8 DD 00H		; CSingleton<CPythonShop>::`RTTI Class Hierarchy Descriptor'
	DD	00H
	DD	01H
	DD	FLAT:??_R2?$CSingleton@VCPythonShop@@@@8
rdata$r	ENDS
;	COMDAT ??_R0?AV?$CSingleton@VCPythonShop@@@@@8
data$rs	SEGMENT
??_R0?AV?$CSingleton@VCPythonShop@@@@@8 DD FLAT:??_7type_info@@6B@ ; CSingleton<CPythonShop> `RTTI Type Descriptor'
	DD	00H
	DB	'.?AV?$CSingleton@VCPythonShop@@@@', 00H
data$rs	ENDS
;	COMDAT ??_R1A@?0A@EA@?$CSingleton@VCPythonShop@@@@8
rdata$r	SEGMENT
??_R1A@?0A@EA@?$CSingleton@VCPythonShop@@@@8 DD FLAT:??_R0?AV?$CSingleton@VCPythonShop@@@@@8 ; CSingleton<CPythonShop>::`RTTI Base Class Descriptor at (0,-1,0,64)'
	DD	00H
	DD	00H
	DD	0ffffffffH
	DD	00H
	DD	040H
	DD	FLAT:??_R3?$CSingleton@VCPythonShop@@@@8
rdata$r	ENDS
;	COMDAT ??_R1A@?0A@EA@CPythonShop@@8
rdata$r	SEGMENT
??_R1A@?0A@EA@CPythonShop@@8 DD FLAT:??_R0?AVCPythonShop@@@8 ; CPythonShop::`RTTI Base Class Descriptor at (0,-1,0,64)'
	DD	01H
	DD	00H
	DD	0ffffffffH
	DD	00H
	DD	040H
	DD	FLAT:??_R3CPythonShop@@8
rdata$r	ENDS
;	COMDAT ??_R2?$CSingleton@VCPythonShop@@@@8
rdata$r	SEGMENT
??_R2?$CSingleton@VCPythonShop@@@@8 DD FLAT:??_R1A@?0A@EA@?$CSingleton@VCPythonShop@@@@8 ; CSingleton<CPythonShop>::`RTTI Base Class Array'
rdata$r	ENDS
;	COMDAT ??_R2CPythonShop@@8
rdata$r	SEGMENT
??_R2CPythonShop@@8 DD FLAT:??_R1A@?0A@EA@CPythonShop@@8 ; CPythonShop::`RTTI Base Class Array'
	DD	FLAT:??_R1A@?0A@EA@?$CSingleton@VCPythonShop@@@@8
rdata$r	ENDS
;	COMDAT ??_C@_0BI@BDLFABJN@OFFLINE_SHOP_SLOT_COUNT@
CONST	SEGMENT
??_C@_0BI@BDLFABJN@OFFLINE_SHOP_SLOT_COUNT@ DB 'OFFLINE_SHOP_SLOT_COUNT', 00H ; `string'
CONST	ENDS
;	COMDAT ??_C@_0L@JEDHIPHP@SHOPEX_EXP@
CONST	SEGMENT
??_C@_0L@JEDHIPHP@SHOPEX_EXP@ DB 'SHOPEX_EXP', 00H	; `string'
CONST	ENDS
;	COMDAT ??_C@_0L@IKKNLFGH@SHOPEX_MAX@
CONST	SEGMENT
??_C@_0L@IKKNLFGH@SHOPEX_MAX@ DB 'SHOPEX_MAX', 00H	; `string'
CONST	ENDS
;	COMDAT ??_C@_0N@BHLKHBHI@SHOPEX_COINS@
CONST	SEGMENT
??_C@_0N@BHLKHBHI@SHOPEX_COINS@ DB 'SHOPEX_COINS', 00H	; `string'
CONST	ENDS
;	COMDAT ??_C@_0M@BADCFJEI@SHOPEX_ITEM@
CONST	SEGMENT
??_C@_0M@BADCFJEI@SHOPEX_ITEM@ DB 'SHOPEX_ITEM', 00H	; `string'
CONST	ENDS
;	COMDAT ??_C@_0BO@GEPHLMDC@SHOP_COIN_TYPE_SECONDARY_COIN@
CONST	SEGMENT
??_C@_0BO@GEPHLMDC@SHOP_COIN_TYPE_SECONDARY_COIN@ DB 'SHOP_COIN_TYPE_SECO'
	DB	'NDARY_COIN', 00H				; `string'
CONST	ENDS
;	COMDAT ??_C@_0M@PGAJLHHB@SHOPEX_GOLD@
CONST	SEGMENT
??_C@_0M@PGAJLHHB@SHOPEX_GOLD@ DB 'SHOPEX_GOLD', 00H	; `string'
CONST	ENDS
;	COMDAT ??_C@_0BA@MMIAEKCC@SHOP_SLOT_COUNT@
CONST	SEGMENT
??_C@_0BA@MMIAEKCC@SHOP_SLOT_COUNT@ DB 'SHOP_SLOT_COUNT', 00H ; `string'
CONST	ENDS
;	COMDAT ??_C@_0BE@FOBHCAAH@SHOP_COIN_TYPE_GOLD@
CONST	SEGMENT
??_C@_0BE@FOBHCAAH@SHOP_COIN_TYPE_GOLD@ DB 'SHOP_COIN_TYPE_GOLD', 00H ; `string'
CONST	ENDS
;	COMDAT ??_C@_0M@PMNLEPJH@SetShopTime@
CONST	SEGMENT
??_C@_0M@PMNLEPJH@SetShopTime@ DB 'SetShopTime', 00H	; `string'
CONST	ENDS
;	COMDAT ??_C@_04BFIJLIPK@shop@
CONST	SEGMENT
??_C@_04BFIJLIPK@shop@ DB 'shop', 00H			; `string'
CONST	ENDS
;	COMDAT ??_C@_0M@LIDMCICL@SetShopType@
CONST	SEGMENT
??_C@_0M@LIDMCICL@SetShopType@ DB 'SetShopType', 00H	; `string'
CONST	ENDS
;	COMDAT ??_C@_0M@PDMFJJBE@GetShopTime@
CONST	SEGMENT
??_C@_0M@PDMFJJBE@GetShopTime@ DB 'GetShopTime', 00H	; `string'
CONST	ENDS
;	COMDAT ??_C@_0M@OKAJOAKB@SetShopFlag@
CONST	SEGMENT
??_C@_0M@OKAJOAKB@SetShopFlag@ DB 'SetShopFlag', 00H	; `string'
CONST	ENDS
;	COMDAT ??_C@_0M@LHCCPOKI@GetShopType@
CONST	SEGMENT
??_C@_0M@LHCCPOKI@GetShopType@ DB 'GetShopType', 00H	; `string'
CONST	ENDS
;	COMDAT ??_C@_0BB@HKMACCCG@ChangeDecoration@
CONST	SEGMENT
??_C@_0BB@HKMACCCG@ChangeDecoration@ DB 'ChangeDecoration', 00H ; `string'
CONST	ENDS
;	COMDAT ??_C@_0M@OFBHDGCC@GetShopFlag@
CONST	SEGMENT
??_C@_0M@OFBHDGCC@GetShopFlag@ DB 'GetShopFlag', 00H	; `string'
CONST	ENDS
;	COMDAT ??_C@_0P@GALMKFH@HasOfflineShop@
CONST	SEGMENT
??_C@_0P@GALMKFH@HasOfflineShop@ DB 'HasOfflineShop', 00H ; `string'
CONST	ENDS
;	COMDAT ??_C@_0BE@EDLJNLOK@GetRealWatcherCount@
CONST	SEGMENT
??_C@_0BE@EDLJNLOK@GetRealWatcherCount@ DB 'GetRealWatcherCount', 00H ; `string'
CONST	ENDS
;	COMDAT ??_C@_0BB@OMKHKKDA@GetOfflineShopID@
CONST	SEGMENT
??_C@_0BB@OMKHKKDA@GetOfflineShopID@ DB 'GetOfflineShopID', 00H ; `string'
CONST	ENDS
;	COMDAT ??_C@_0BL@KFFFJEDN@GetCurrentOfflineShopMoney@
CONST	SEGMENT
??_C@_0BL@KFFFJEDN@GetCurrentOfflineShopMoney@ DB 'GetCurrentOfflineShopM'
	DB	'oney', 00H					; `string'
CONST	ENDS
;	COMDAT ??_C@_0BB@HLMCJGJO@BuildOfflineShop@
CONST	SEGMENT
??_C@_0BB@HLMCJGJO@BuildOfflineShop@ DB 'BuildOfflineShop', 00H ; `string'
CONST	ENDS
;	COMDAT ??_C@_0BC@BGGPLLFN@GetDisplayedCount@
CONST	SEGMENT
??_C@_0BC@BGGPLLFN@GetDisplayedCount@ DB 'GetDisplayedCount', 00H ; `string'
CONST	ENDS
;	COMDAT ??_C@_0BJ@COGLHCCJ@GetOfflineShopItemStatus@
CONST	SEGMENT
??_C@_0BJ@COGLHCCJ@GetOfflineShopItemStatus@ DB 'GetOfflineShopItemStatus'
	DB	00H						; `string'
CONST	ENDS
;	COMDAT ??_C@_0BM@NOLOIGOM@GetOfflineShopItemBuyerName@
CONST	SEGMENT
??_C@_0BM@NOLOIGOM@GetOfflineShopItemBuyerName@ DB 'GetOfflineShopItemBuy'
	DB	'erName', 00H				; `string'
CONST	ENDS
;	COMDAT ??_C@_0BI@HDCOLAIL@DelOfflineShopItemStock@
CONST	SEGMENT
??_C@_0BI@HDCOLAIL@DelOfflineShopItemStock@ DB 'DelOfflineShopItemStock', 00H ; `string'
CONST	ENDS
;	COMDAT ??_C@_0BM@GKJGCDDL@GetOfflineShopItemPriceReal@
CONST	SEGMENT
??_C@_0BM@GKJGCDDL@GetOfflineShopItemPriceReal@ DB 'GetOfflineShopItemPri'
	DB	'ceReal', 00H				; `string'
CONST	ENDS
;	COMDAT ??_C@_0BG@KDEOGIIB@ClearOfflineShopStock@
CONST	SEGMENT
??_C@_0BG@KDEOGIIB@ClearOfflineShopStock@ DB 'ClearOfflineShopStock', 00H ; `string'
CONST	ENDS
;	COMDAT ??_C@_0BI@LJDNIHCH@AddOfflineShopItemStock@
CONST	SEGMENT
??_C@_0BI@LJDNIHCH@AddOfflineShopItemStock@ DB 'AddOfflineShopItemStock', 00H ; `string'
CONST	ENDS
;	COMDAT ??_C@_0BM@LKCCPGFH@GetOfflineShopItemAttribute@
CONST	SEGMENT
??_C@_0BM@LKCCPGFH@GetOfflineShopItemAttribute@ DB 'GetOfflineShopItemAtt'
	DB	'ribute', 00H				; `string'
CONST	ENDS
;	COMDAT ??_C@_07HPMDFBOJ@GetSign@
CONST	SEGMENT
??_C@_07HPMDFBOJ@GetSign@ DB 'GetSign', 00H		; `string'
CONST	ENDS
;	COMDAT ??_C@_0BI@IJLIIALO@GetOfflineShopItemPrice@
CONST	SEGMENT
??_C@_0BI@IJLIIALO@GetOfflineShopItemPrice@ DB 'GetOfflineShopItemPrice', 00H ; `string'
CONST	ENDS
;	COMDAT ??_C@_0BO@HEAPKDCE@GetOfflineShopItemMetinSocket@
CONST	SEGMENT
??_C@_0BO@HEAPKDCE@GetOfflineShopItemMetinSocket@ DB 'GetOfflineShopItemM'
	DB	'etinSocket', 00H				; `string'
CONST	ENDS
;	COMDAT ??_C@_0BI@NFEEPLNM@GetOfflineShopItemCount@
CONST	SEGMENT
??_C@_0BI@NFEEPLNM@GetOfflineShopItemCount@ DB 'GetOfflineShopItemCount', 00H ; `string'
CONST	ENDS
;	COMDAT ??_C@_0BH@EIEDKBFD@GetOfflineShopItemVnum@
CONST	SEGMENT
??_C@_0BH@EIEDKBFD@GetOfflineShopItemVnum@ DB 'GetOfflineShopItemVnum', 00H ; `string'
CONST	ENDS
;	COMDAT ??_C@_0O@PLCMGBGD@IsOfflineShop@
CONST	SEGMENT
??_C@_0O@PLCMGBGD@IsOfflineShop@ DB 'IsOfflineShop', 00H ; `string'
CONST	ENDS
;	COMDAT ??_C@_0BF@BLIEEIGK@GetOfflineShopItemID@
CONST	SEGMENT
??_C@_0BF@BLIEEIGK@GetOfflineShopItemID@ DB 'GetOfflineShopItemID', 00H ; `string'
CONST	ENDS
;	COMDAT ??_C@_0BB@MDMPBIAN@BuildPrivateShop@
CONST	SEGMENT
??_C@_0BB@MDMPBIAN@BuildPrivateShop@ DB 'BuildPrivateShop', 00H ; `string'
CONST	ENDS
;	COMDAT ??_C@_0CA@JPBLMNKD@GetOfflineShopItemTransmutation@
CONST	SEGMENT
??_C@_0CA@JPBLMNKD@GetOfflineShopItemTransmutation@ DB 'GetOfflineShopIte'
	DB	'mTransmutation', 00H			; `string'
CONST	ENDS
;	COMDAT ??_C@_0BI@FBMJKJEA@DelPrivateShopItemStock@
CONST	SEGMENT
??_C@_0BI@FBMJKJEA@DelPrivateShopItemStock@ DB 'DelPrivateShopItemStock', 00H ; `string'
CONST	ENDS
;	COMDAT ??_C@_0BI@KLFPJJHF@GetPrivateShopItemPrice@
CONST	SEGMENT
??_C@_0BI@KLFPJJHF@GetPrivateShopItemPrice@ DB 'GetPrivateShopItemPrice', 00H ; `string'
CONST	ENDS
;	COMDAT ??_C@_0BG@BMKKEDKK@ClearPrivateShopStock@
CONST	SEGMENT
??_C@_0BG@BMKKEDKK@ClearPrivateShopStock@ DB 'ClearPrivateShopStock', 00H ; `string'
CONST	ENDS
;	COMDAT ??_C@_0BI@JLNKJOOM@AddPrivateShopItemStock@
CONST	SEGMENT
??_C@_0BI@JLNKJOOM@AddPrivateShopItemStock@ DB 'AddPrivateShopItemStock', 00H ; `string'
CONST	ENDS
;	COMDAT ??_C@_0BB@OHLCEJJC@GetItemPriceType@
CONST	SEGMENT
??_C@_0BB@OHLCEJJC@GetItemPriceType@ DB 'GetItemPriceType', 00H ; `string'
CONST	ENDS
;	COMDAT ??_C@_0BB@JOKODNDH@GetItemPriceVnum@
CONST	SEGMENT
??_C@_0BB@JOKODNDH@GetItemPriceVnum@ DB 'GetItemPriceVnum', 00H ; `string'
CONST	ENDS
;	COMDAT ??_C@_0L@HEMHLKHB@GetTabName@
CONST	SEGMENT
??_C@_0L@HEMHLKHB@GetTabName@ DB 'GetTabName', 00H	; `string'
CONST	ENDS
;	COMDAT ??_C@_0P@CFALBIIJ@GetTabCoinType@
CONST	SEGMENT
??_C@_0P@CFALBIIJ@GetTabCoinType@ DB 'GetTabCoinType', 00H ; `string'
CONST	ENDS
;	COMDAT ??_C@_0N@OIFMMAOE@GetItemPrice@
CONST	SEGMENT
??_C@_0N@OIFMMAOE@GetItemPrice@ DB 'GetItemPrice', 00H	; `string'
CONST	ENDS
;	COMDAT ??_C@_0M@PGHDAHMM@GetTabCount@
CONST	SEGMENT
??_C@_0M@PGHDAHMM@GetTabCount@ DB 'GetTabCount', 00H	; `string'
CONST	ENDS
;	COMDAT ??_C@_0O@EDCBOPPA@IsPrivateShop@
CONST	SEGMENT
??_C@_0O@EDCBOPPA@IsPrivateShop@ DB 'IsPrivateShop', 00H ; `string'
CONST	ENDS
;	COMDAT ??_C@_0BI@HHPKCPJD@IsMainPlayerPrivateShop@
CONST	SEGMENT
??_C@_0BI@HHPKCPJD@IsMainPlayerPrivateShop@ DB 'IsMainPlayerPrivateShop', 00H ; `string'
CONST	ENDS
;	COMDAT ??_C@_04DNCDCIAE@Open@
CONST	SEGMENT
??_C@_04DNCDCIAE@Open@ DB 'Open', 00H			; `string'
CONST	ENDS
;	COMDAT ??_C@_06DKEIEPKC@IsOpen@
CONST	SEGMENT
??_C@_06DKEIEPKC@IsOpen@ DB 'IsOpen', 00H		; `string'
CONST	ENDS
;	COMDAT ??_C@_04OKGDLNCL@NONE@
CONST	SEGMENT
??_C@_04OKGDLNCL@NONE@ DB 'NONE', 00H			; `string'
CONST	ENDS
;	COMDAT ??_C@_01OCOKONAJ@L@
CONST	SEGMENT
??_C@_01OCOKONAJ@L@ DB 'L', 00H				; `string'
CONST	ENDS
;	COMDAT ??_C@_0CP@FJEENICJ@Out?5of?5Index?4?5tabIdx?$CI?$CFd?$CJ?5must?5b@
CONST	SEGMENT
??_C@_0CP@FJEENICJ@Out?5of?5Index?4?5tabIdx?$CI?$CFd?$CJ?5must?5b@ DB 'Ou'
	DB	't of Index. tabIdx(%d) must be less than %d.', 00H ; `string'
CONST	ENDS
;	COMDAT ??_C@_0FC@PFANBFHB@Out?5of?5Index?4?5tabIdx?$CI?$CFd?$CJ?5must?5b@
CONST	SEGMENT
??_C@_0FC@PFANBFHB@Out?5of?5Index?4?5tabIdx?$CI?$CFd?$CJ?5must?5b@ DB 'Ou'
	DB	't of Index. tabIdx(%d) must be less than %d. dwSlotPos(%d) mu'
	DB	'st be less than %d', 00H			; `string'
PUBLIC	??MSItemPos@@QBE_NABU0@@Z			; SItemPos::operator<
PUBLIC	??$forward@USItemPos@@@std@@YA$$QAUSItemPos@@AAU1@@Z ; std::forward<SItemPos>
PUBLIC	?_Get_first@?$_Compressed_pair@V?$allocator@U?$_Tree_node@U?$pair@$$CBUSItemPos@@USOfflineShopItemTable@@@std@@PAX@std@@@std@@V?$_Tree_val@U?$_Tree_simple_types@U?$pair@$$CBUSItemPos@@USOfflineShopItemTable@@@std@@@std@@@2@$00@std@@QBEABV?$allocator@U?$_Tree_node@U?$pair@$$CBUSItemPos@@USOfflineShopItemTable@@@std@@PAX@std@@@2@XZ ; std::_Compressed_pair<std::allocator<std::_Tree_node<std::pair<SItemPos const ,SOfflineShopItemTable>,void *> >,std::_Tree_val<std::_Tree_simple_types<std::pair<SItemPos const ,SOfflineShopItemTable> > >,1>::_Get_first
PUBLIC	?_Get_first@?$_Compressed_pair@V?$allocator@U?$_Tree_node@U?$pair@$$CBUSItemPos@@USShopItemTable@@@std@@PAX@std@@@std@@V?$_Tree_val@U?$_Tree_simple_types@U?$pair@$$CBUSItemPos@@USShopItemTable@@@std@@@std@@@2@$00@std@@QBEABV?$allocator@U?$_Tree_node@U?$pair@$$CBUSItemPos@@USShopItemTable@@@std@@PAX@std@@@2@XZ ; std::_Compressed_pair<std::allocator<std::_Tree_node<std::pair<SItemPos const ,SShopItemTable>,void *> >,std::_Tree_val<std::_Tree_simple_types<std::pair<SItemPos const ,SShopItemTable> > >,1>::_Get_first
PUBLIC	??$?0USItemPos@@USOfflineShopItemTable@@$0A@@?$pair@$$CBUSItemPos@@USOfflineShopItemTable@@@std@@QAE@$$QAU?$pair@USItemPos@@USOfflineShopItemTable@@@1@@Z ; std::pair<SItemPos const ,SOfflineShopItemTable>::pair<SItemPos const ,SOfflineShopItemTable><SItemPos,SOfflineShopItemTable,0>
PUBLIC	??$?0USItemPos@@USShopItemTable@@$0A@@?$pair@$$CBUSItemPos@@USShopItemTable@@@std@@QAE@$$QAU?$pair@USItemPos@@USShopItemTable@@@1@@Z ; std::pair<SItemPos const ,SShopItemTable>::pair<SItemPos const ,SShopItemTable><SItemPos,SShopItemTable,0>
PUBLIC	?_Getal@?$_Tree@V?$_Tmap_traits@USItemPos@@USOfflineShopItemTable@@U?$less@USItemPos@@@std@@V?$allocator@U?$pair@$$CBUSItemPos@@USOfflineShopItemTable@@@std@@@4@$0A@@std@@@std@@IBEABV?$allocator@U?$_Tree_node@U?$pair@$$CBUSItemPos@@USOfflineShopItemTable@@@std@@PAX@std@@@2@XZ ; std::_Tree<std::_Tmap_traits<SItemPos,SOfflineShopItemTable,std::less<SItemPos>,std::allocator<std::pair<SItemPos const ,SOfflineShopItemTable> >,0> >::_Getal
PUBLIC	?max_size@?$_Default_allocator_traits@V?$allocator@U?$_Tree_node@U?$pair@$$CBUSItemPos@@USOfflineShopItemTable@@@std@@PAX@std@@@std@@@std@@SAIABV?$allocator@U?$_Tree_node@U?$pair@$$CBUSItemPos@@USOfflineShopItemTable@@@std@@PAX@std@@@2@@Z ; std::_Default_allocator_traits<std::allocator<std::_Tree_node<std::pair<SItemPos const ,SOfflineShopItemTable>,void *> > >::max_size
PUBLIC	?_Max@?$_Tree_val@U?$_Tree_simple_types@U?$pair@$$CBUSItemPos@@USOfflineShopItemTable@@@std@@@std@@@std@@SAPAU?$_Tree_node@U?$pair@$$CBUSItemPos@@USOfflineShopItemTable@@@std@@PAX@2@PAU32@@Z ; std::_Tree_val<std::_Tree_simple_types<std::pair<SItemPos const ,SOfflineShopItemTable> > >::_Max
PUBLIC	?_Getal@?$_Tree@V?$_Tmap_traits@USItemPos@@USShopItemTable@@U?$less@USItemPos@@@std@@V?$allocator@U?$pair@$$CBUSItemPos@@USShopItemTable@@@std@@@4@$0A@@std@@@std@@IBEABV?$allocator@U?$_Tree_node@U?$pair@$$CBUSItemPos@@USShopItemTable@@@std@@PAX@std@@@2@XZ ; std::_Tree<std::_Tmap_traits<SItemPos,SShopItemTable,std::less<SItemPos>,std::allocator<std::pair<SItemPos const ,SShopItemTable> >,0> >::_Getal
PUBLIC	?max_size@?$_Default_allocator_traits@V?$allocator@U?$_Tree_node@U?$pair@$$CBUSItemPos@@USShopItemTable@@@std@@PAX@std@@@std@@@std@@SAIABV?$allocator@U?$_Tree_node@U?$pair@$$CBUSItemPos@@USShopItemTable@@@std@@PAX@std@@@2@@Z ; std::_Default_allocator_traits<std::allocator<std::_Tree_node<std::pair<SItemPos const ,SShopItemTable>,void *> > >::max_size
PUBLIC	?_Max@?$_Tree_val@U?$_Tree_simple_types@U?$pair@$$CBUSItemPos@@USShopItemTable@@@std@@@std@@@std@@SAPAU?$_Tree_node@U?$pair@$$CBUSItemPos@@USShopItemTable@@@std@@PAX@2@PAU32@@Z ; std::_Tree_val<std::_Tree_simple_types<std::pair<SItemPos const ,SShopItemTable> > >::_Max
PUBLIC	??0?$_Alloc_construct_ptr@V?$allocator@U?$_Tree_node@U?$pair@$$CBUSItemPos@@USShopItemTable@@@std@@PAX@std@@@std@@@std@@QAE@AAV?$allocator@U?$_Tree_node@U?$pair@$$CBUSItemPos@@USShopItemTable@@@std@@PAX@std@@@1@@Z ; std::_Alloc_construct_ptr<std::allocator<std::_Tree_node<std::pair<SItemPos const ,SShopItemTable>,void *> > >::_Alloc_construct_ptr<std::allocator<std::_Tree_node<std::pair<SItemPos const ,SShopItemTable>,void *> > >
PUBLIC	?_Allocate@?$_Alloc_construct_ptr@V?$allocator@U?$_Tree_node@U?$pair@$$CBUSItemPos@@USShopItemTable@@@std@@PAX@std@@@std@@@std@@QAEXXZ ; std::_Alloc_construct_ptr<std::allocator<std::_Tree_node<std::pair<SItemPos const ,SShopItemTable>,void *> > >::_Allocate
PUBLIC	??0?$_Alloc_construct_ptr@V?$allocator@U?$_Tree_node@U?$pair@$$CBUSItemPos@@USOfflineShopItemTable@@@std@@PAX@std@@@std@@@std@@QAE@AAV?$allocator@U?$_Tree_node@U?$pair@$$CBUSItemPos@@USOfflineShopItemTable@@@std@@PAX@std@@@1@@Z ; std::_Alloc_construct_ptr<std::allocator<std::_Tree_node<std::pair<SItemPos const ,SOfflineShopItemTable>,void *> > >::_Alloc_construct_ptr<std::allocator<std::_Tree_node<std::pair<SItemPos const ,SOfflineShopItemTable>,void *> > >
PUBLIC	?_Allocate@?$_Alloc_construct_ptr@V?$allocator@U?$_Tree_node@U?$pair@$$CBUSItemPos@@USOfflineShopItemTable@@@std@@PAX@std@@@std@@@std@@QAEXXZ ; std::_Alloc_construct_ptr<std::allocator<std::_Tree_node<std::pair<SItemPos const ,SOfflineShopItemTable>,void *> > >::_Allocate
PUBLIC	??$_Get_size_of_n@$0EM@@std@@YAII@Z		; std::_Get_size_of_n<76>
PUBLIC	??$construct_at@PAU?$_Tree_node@U?$pair@$$CBUSItemPos@@USOfflineShopItemTable@@@std@@PAX@std@@ABQAU12@@std@@YAPAPAU?$_Tree_node@U?$pair@$$CBUSItemPos@@USOfflineShopItemTable@@@std@@PAX@0@QAPAU10@ABQAU10@@Z ; std::construct_at<std::_Tree_node<std::pair<SItemPos const ,SOfflineShopItemTable>,void *> *,std::_Tree_node<std::pair<SItemPos const ,SOfflineShopItemTable>,void *> * const &>
PUBLIC	??$forward@ABQAU?$_Tree_node@U?$pair@$$CBUSItemPos@@USOfflineShopItemTable@@@std@@PAX@std@@@std@@YAABQAU?$_Tree_node@U?$pair@$$CBUSItemPos@@USOfflineShopItemTable@@@std@@PAX@0@ABQAU10@@Z ; std::forward<std::_Tree_node<std::pair<SItemPos const ,SOfflineShopItemTable>,void *> * const &>
PUBLIC	??$construct_at@PAU?$_Tree_node@U?$pair@$$CBUSItemPos@@USShopItemTable@@@std@@PAX@std@@ABQAU12@@std@@YAPAPAU?$_Tree_node@U?$pair@$$CBUSItemPos@@USShopItemTable@@@std@@PAX@0@QAPAU10@ABQAU10@@Z ; std::construct_at<std::_Tree_node<std::pair<SItemPos const ,SShopItemTable>,void *> *,std::_Tree_node<std::pair<SItemPos const ,SShopItemTable>,void *> * const &>
PUBLIC	??$forward@ABQAU?$_Tree_node@U?$pair@$$CBUSItemPos@@USShopItemTable@@@std@@PAX@std@@@std@@YAABQAU?$_Tree_node@U?$pair@$$CBUSItemPos@@USShopItemTable@@@std@@PAX@0@ABQAU10@@Z ; std::forward<std::_Tree_node<std::pair<SItemPos const ,SShopItemTable>,void *> * const &>
PUBLIC	??$construct_at@USOfflineShopItemTable@@U1@@std@@YAPAUSOfflineShopItemTable@@QAU1@$$QAU1@@Z ; std::construct_at<SOfflineShopItemTable,SOfflineShopItemTable>
PUBLIC	??$construct_at@USShopItemTable@@U1@@std@@YAPAUSShopItemTable@@QAU1@$$QAU1@@Z ; std::construct_at<SShopItemTable,SShopItemTable>
PUBLIC	??$construct_at@PAU?$_Tree_node@U?$pair@$$CBUSItemPos@@USOfflineShopItemTable@@@std@@PAX@std@@AAPAU12@@std@@YAPAPAU?$_Tree_node@U?$pair@$$CBUSItemPos@@USOfflineShopItemTable@@@std@@PAX@0@QAPAU10@AAPAU10@@Z ; std::construct_at<std::_Tree_node<std::pair<SItemPos const ,SOfflineShopItemTable>,void *> *,std::_Tree_node<std::pair<SItemPos const ,SOfflineShopItemTable>,void *> * &>
PUBLIC	??$addressof@PAU?$_Tree_node@U?$pair@$$CBUSItemPos@@USOfflineShopItemTable@@@std@@PAX@std@@@std@@YAPAPAU?$_Tree_node@U?$pair@$$CBUSItemPos@@USOfflineShopItemTable@@@std@@PAX@0@AAPAU10@@Z ; std::addressof<std::_Tree_node<std::pair<SItemPos const ,SOfflineShopItemTable>,void *> *>
PUBLIC	??$construct_at@U?$pair@$$CBUSItemPos@@USOfflineShopItemTable@@@std@@U?$pair@USItemPos@@USOfflineShopItemTable@@@2@@std@@YAPAU?$pair@$$CBUSItemPos@@USOfflineShopItemTable@@@0@QAU10@$$QAU?$pair@USItemPos@@USOfflineShopItemTable@@@0@@Z ; std::construct_at<std::pair<SItemPos const ,SOfflineShopItemTable>,std::pair<SItemPos,SOfflineShopItemTable> >
PUBLIC	??$construct_at@PAU?$_Tree_node@U?$pair@$$CBUSItemPos@@USShopItemTable@@@std@@PAX@std@@AAPAU12@@std@@YAPAPAU?$_Tree_node@U?$pair@$$CBUSItemPos@@USShopItemTable@@@std@@PAX@0@QAPAU10@AAPAU10@@Z ; std::construct_at<std::_Tree_node<std::pair<SItemPos const ,SShopItemTable>,void *> *,std::_Tree_node<std::pair<SItemPos const ,SShopItemTable>,void *> * &>
PUBLIC	??$addressof@PAU?$_Tree_node@U?$pair@$$CBUSItemPos@@USShopItemTable@@@std@@PAX@std@@@std@@YAPAPAU?$_Tree_node@U?$pair@$$CBUSItemPos@@USShopItemTable@@@std@@PAX@0@AAPAU10@@Z ; std::addressof<std::_Tree_node<std::pair<SItemPos const ,SShopItemTable>,void *> *>
PUBLIC	??$construct_at@U?$pair@$$CBUSItemPos@@USShopItemTable@@@std@@U?$pair@USItemPos@@USShopItemTable@@@2@@std@@YAPAU?$pair@$$CBUSItemPos@@USShopItemTable@@@0@QAU10@$$QAU?$pair@USItemPos@@USShopItemTable@@@0@@Z ; std::construct_at<std::pair<SItemPos const ,SShopItemTable>,std::pair<SItemPos,SShopItemTable> >
PUBLIC	?max_size@?$_Tree@V?$_Tmap_traits@USItemPos@@USOfflineShopItemTable@@U?$less@USItemPos@@@std@@V?$allocator@U?$pair@$$CBUSItemPos@@USOfflineShopItemTable@@@std@@@4@$0A@@std@@@std@@QBEIXZ ; std::_Tree<std::_Tmap_traits<SItemPos,SOfflineShopItemTable,std::less<SItemPos>,std::allocator<std::pair<SItemPos const ,SOfflineShopItemTable> >,0> >::max_size
PUBLIC	??0?$allocator@U?$_Tree_node@U?$pair@$$CBUSItemPos@@USOfflineShopItemTable@@@std@@PAX@std@@@std@@QAE@XZ ; std::allocator<std::_Tree_node<std::pair<SItemPos const ,SOfflineShopItemTable>,void *> >::allocator<std::_Tree_node<std::pair<SItemPos const ,SOfflineShopItemTable>,void *> >
PUBLIC	?deallocate@?$allocator@U?$_Tree_node@U?$pair@$$CBUSItemPos@@USOfflineShopItemTable@@@std@@PAX@std@@@std@@QAEXQAU?$_Tree_node@U?$pair@$$CBUSItemPos@@USOfflineShopItemTable@@@std@@PAX@2@I@Z ; std::allocator<std::_Tree_node<std::pair<SItemPos const ,SOfflineShopItemTable>,void *> >::deallocate
PUBLIC	?allocate@?$allocator@U?$_Tree_node@U?$pair@$$CBUSItemPos@@USOfflineShopItemTable@@@std@@PAX@std@@@std@@QAEPAU?$_Tree_node@U?$pair@$$CBUSItemPos@@USOfflineShopItemTable@@@std@@PAX@2@I@Z ; std::allocator<std::_Tree_node<std::pair<SItemPos const ,SOfflineShopItemTable>,void *> >::allocate
PUBLIC	??0?$_Tree_val@U?$_Tree_simple_types@U?$pair@$$CBUSItemPos@@USOfflineShopItemTable@@@std@@@std@@@std@@QAE@XZ ; std::_Tree_val<std::_Tree_simple_types<std::pair<SItemPos const ,SOfflineShopItemTable> > >::_Tree_val<std::_Tree_simple_types<std::pair<SItemPos const ,SOfflineShopItemTable> > >
PUBLIC	?_Lrotate@?$_Tree_val@U?$_Tree_simple_types@U?$pair@$$CBUSItemPos@@USOfflineShopItemTable@@@std@@@std@@@std@@QAEXPAU?$_Tree_node@U?$pair@$$CBUSItemPos@@USOfflineShopItemTable@@@std@@PAX@2@@Z ; std::_Tree_val<std::_Tree_simple_types<std::pair<SItemPos const ,SOfflineShopItemTable> > >::_Lrotate
PUBLIC	?_Rrotate@?$_Tree_val@U?$_Tree_simple_types@U?$pair@$$CBUSItemPos@@USOfflineShopItemTable@@@std@@@std@@@std@@QAEXPAU?$_Tree_node@U?$pair@$$CBUSItemPos@@USOfflineShopItemTable@@@std@@PAX@2@@Z ; std::_Tree_val<std::_Tree_simple_types<std::pair<SItemPos const ,SOfflineShopItemTable> > >::_Rrotate
PUBLIC	?_Extract@?$_Tree_val@U?$_Tree_simple_types@U?$pair@$$CBUSItemPos@@USOfflineShopItemTable@@@std@@@std@@@std@@QAEPAU?$_Tree_node@U?$pair@$$CBUSItemPos@@USOfflineShopItemTable@@@std@@PAX@2@V?$_Tree_unchecked_const_iterator@V?$_Tree_val@U?$_Tree_simple_types@U?$pair@$$CBUSItemPos@@USOfflineShopItemTable@@@std@@@std@@@std@@U_Iterator_base0@2@@2@@Z ; std::_Tree_val<std::_Tree_simple_types<std::pair<SItemPos const ,SOfflineShopItemTable> > >::_Extract
PUBLIC	?max_size@?$_Tree@V?$_Tmap_traits@USItemPos@@USShopItemTable@@U?$less@USItemPos@@@std@@V?$allocator@U?$pair@$$CBUSItemPos@@USShopItemTable@@@std@@@4@$0A@@std@@@std@@QBEIXZ ; std::_Tree<std::_Tmap_traits<SItemPos,SShopItemTable,std::less<SItemPos>,std::allocator<std::pair<SItemPos const ,SShopItemTable> >,0> >::max_size
PUBLIC	??0?$allocator@U?$_Tree_node@U?$pair@$$CBUSItemPos@@USShopItemTable@@@std@@PAX@std@@@std@@QAE@XZ ; std::allocator<std::_Tree_node<std::pair<SItemPos const ,SShopItemTable>,void *> >::allocator<std::_Tree_node<std::pair<SItemPos const ,SShopItemTable>,void *> >
PUBLIC	?deallocate@?$allocator@U?$_Tree_node@U?$pair@$$CBUSItemPos@@USShopItemTable@@@std@@PAX@std@@@std@@QAEXQAU?$_Tree_node@U?$pair@$$CBUSItemPos@@USShopItemTable@@@std@@PAX@2@I@Z ; std::allocator<std::_Tree_node<std::pair<SItemPos const ,SShopItemTable>,void *> >::deallocate
PUBLIC	?allocate@?$allocator@U?$_Tree_node@U?$pair@$$CBUSItemPos@@USShopItemTable@@@std@@PAX@std@@@std@@QAEPAU?$_Tree_node@U?$pair@$$CBUSItemPos@@USShopItemTable@@@std@@PAX@2@I@Z ; std::allocator<std::_Tree_node<std::pair<SItemPos const ,SShopItemTable>,void *> >::allocate
PUBLIC	??0?$_Tree_val@U?$_Tree_simple_types@U?$pair@$$CBUSItemPos@@USShopItemTable@@@std@@@std@@@std@@QAE@XZ ; std::_Tree_val<std::_Tree_simple_types<std::pair<SItemPos const ,SShopItemTable> > >::_Tree_val<std::_Tree_simple_types<std::pair<SItemPos const ,SShopItemTable> > >
PUBLIC	?_Lrotate@?$_Tree_val@U?$_Tree_simple_types@U?$pair@$$CBUSItemPos@@USShopItemTable@@@std@@@std@@@std@@QAEXPAU?$_Tree_node@U?$pair@$$CBUSItemPos@@USShopItemTable@@@std@@PAX@2@@Z ; std::_Tree_val<std::_Tree_simple_types<std::pair<SItemPos const ,SShopItemTable> > >::_Lrotate
PUBLIC	?_Rrotate@?$_Tree_val@U?$_Tree_simple_types@U?$pair@$$CBUSItemPos@@USShopItemTable@@@std@@@std@@@std@@QAEXPAU?$_Tree_node@U?$pair@$$CBUSItemPos@@USShopItemTable@@@std@@PAX@2@@Z ; std::_Tree_val<std::_Tree_simple_types<std::pair<SItemPos const ,SShopItemTable> > >::_Rrotate
PUBLIC	?_Extract@?$_Tree_val@U?$_Tree_simple_types@U?$pair@$$CBUSItemPos@@USShopItemTable@@@std@@@std@@@std@@QAEPAU?$_Tree_node@U?$pair@$$CBUSItemPos@@USShopItemTable@@@std@@PAX@2@V?$_Tree_unchecked_const_iterator@V?$_Tree_val@U?$_Tree_simple_types@U?$pair@$$CBUSItemPos@@USShopItemTable@@@std@@@std@@@std@@U_Iterator_base0@2@@2@@Z ; std::_Tree_val<std::_Tree_simple_types<std::pair<SItemPos const ,SShopItemTable> > >::_Extract
PUBLIC	??0?$_Tree_temp_node_alloc@V?$allocator@U?$_Tree_node@U?$pair@$$CBUSItemPos@@USShopItemTable@@@std@@PAX@std@@@std@@@std@@QAE@AAV?$allocator@U?$_Tree_node@U?$pair@$$CBUSItemPos@@USShopItemTable@@@std@@PAX@std@@@1@@Z ; std::_Tree_temp_node_alloc<std::allocator<std::_Tree_node<std::pair<SItemPos const ,SShopItemTable>,void *> > >::_Tree_temp_node_alloc<std::allocator<std::_Tree_node<std::pair<SItemPos const ,SShopItemTable>,void *> > >
PUBLIC	??1?$_Alloc_construct_ptr@V?$allocator@U?$_Tree_node@U?$pair@$$CBUSItemPos@@USShopItemTable@@@std@@PAX@std@@@std@@@std@@QAE@XZ ; std::_Alloc_construct_ptr<std::allocator<std::_Tree_node<std::pair<SItemPos const ,SShopItemTable>,void *> > >::~_Alloc_construct_ptr<std::allocator<std::_Tree_node<std::pair<SItemPos const ,SShopItemTable>,void *> > >
PUBLIC	??0?$_Tree_temp_node_alloc@V?$allocator@U?$_Tree_node@U?$pair@$$CBUSItemPos@@USOfflineShopItemTable@@@std@@PAX@std@@@std@@@std@@QAE@AAV?$allocator@U?$_Tree_node@U?$pair@$$CBUSItemPos@@USOfflineShopItemTable@@@std@@PAX@std@@@1@@Z ; std::_Tree_temp_node_alloc<std::allocator<std::_Tree_node<std::pair<SItemPos const ,SOfflineShopItemTable>,void *> > >::_Tree_temp_node_alloc<std::allocator<std::_Tree_node<std::pair<SItemPos const ,SOfflineShopItemTable>,void *> > >
PUBLIC	??1?$_Alloc_construct_ptr@V?$allocator@U?$_Tree_node@U?$pair@$$CBUSItemPos@@USOfflineShopItemTable@@@std@@PAX@std@@@std@@@std@@QAE@XZ ; std::_Alloc_construct_ptr<std::allocator<std::_Tree_node<std::pair<SItemPos const ,SOfflineShopItemTable>,void *> > >::~_Alloc_construct_ptr<std::allocator<std::_Tree_node<std::pair<SItemPos const ,SOfflineShopItemTable>,void *> > >
PUBLIC	??$exchange@PAU?$_Tree_node@U?$pair@$$CBUSItemPos@@USShopItemTable@@@std@@PAX@std@@$$T@std@@YAPAU?$_Tree_node@U?$pair@$$CBUSItemPos@@USShopItemTable@@@std@@PAX@0@AAPAU10@$$QA$$T@Z ; std::exchange<std::_Tree_node<std::pair<SItemPos const ,SShopItemTable>,void *> *,std::nullptr_t>
PUBLIC	??$exchange@PAU?$_Tree_node@U?$pair@$$CBUSItemPos@@USOfflineShopItemTable@@@std@@PAX@std@@$$T@std@@YAPAU?$_Tree_node@U?$pair@$$CBUSItemPos@@USOfflineShopItemTable@@@std@@PAX@0@AAPAU10@$$QA$$T@Z ; std::exchange<std::_Tree_node<std::pair<SItemPos const ,SOfflineShopItemTable>,void *> *,std::nullptr_t>
PUBLIC	??$_Construct_in_place@PAU?$_Tree_node@U?$pair@$$CBUSItemPos@@USOfflineShopItemTable@@@std@@PAX@std@@ABQAU12@@std@@YAXAAPAU?$_Tree_node@U?$pair@$$CBUSItemPos@@USOfflineShopItemTable@@@std@@PAX@0@ABQAU10@@Z ; std::_Construct_in_place<std::_Tree_node<std::pair<SItemPos const ,SOfflineShopItemTable>,void *> *,std::_Tree_node<std::pair<SItemPos const ,SOfflineShopItemTable>,void *> * const &>
PUBLIC	??$_Construct_in_place@PAU?$_Tree_node@U?$pair@$$CBUSItemPos@@USShopItemTable@@@std@@PAX@std@@ABQAU12@@std@@YAXAAPAU?$_Tree_node@U?$pair@$$CBUSItemPos@@USShopItemTable@@@std@@PAX@0@ABQAU10@@Z ; std::_Construct_in_place<std::_Tree_node<std::pair<SItemPos const ,SShopItemTable>,void *> *,std::_Tree_node<std::pair<SItemPos const ,SShopItemTable>,void *> * const &>
PUBLIC	??$destroy_at@U?$pair@$$CBUSItemPos@@USOfflineShopItemTable@@@std@@@std@@YAXQAU?$pair@$$CBUSItemPos@@USOfflineShopItemTable@@@0@@Z ; std::destroy_at<std::pair<SItemPos const ,SOfflineShopItemTable> >
PUBLIC	??$destroy_at@U?$pair@$$CBUSItemPos@@USShopItemTable@@@std@@@std@@YAXQAU?$pair@$$CBUSItemPos@@USShopItemTable@@@0@@Z ; std::destroy_at<std::pair<SItemPos const ,SShopItemTable> >
PUBLIC	??$construct_at@USOfflineShopItemTable@@ABU1@@std@@YAPAUSOfflineShopItemTable@@QAU1@ABU1@@Z ; std::construct_at<SOfflineShopItemTable,SOfflineShopItemTable const &>
PUBLIC	??$addressof@USOfflineShopItemTable@@@std@@YAPAUSOfflineShopItemTable@@AAU1@@Z ; std::addressof<SOfflineShopItemTable>
PUBLIC	??$construct@USOfflineShopItemTable@@U1@@?$_Default_allocator_traits@V?$allocator@USOfflineShopItemTable@@@std@@@std@@SAXAAV?$allocator@USOfflineShopItemTable@@@1@QAUSOfflineShopItemTable@@$$QAU3@@Z ; std::_Default_allocator_traits<std::allocator<SOfflineShopItemTable> >::construct<SOfflineShopItemTable,SOfflineShopItemTable>
PUBLIC	??$_Copy_memmove_tail@PAUSOfflineShopItemTable@@@std@@YAPAUSOfflineShopItemTable@@QBDQAU1@II@Z ; std::_Copy_memmove_tail<SOfflineShopItemTable *>
PUBLIC	??$move@AAPAUSOfflineShopItemTable@@@std@@YA$$QAPAUSOfflineShopItemTable@@AAPAU1@@Z ; std::move<SOfflineShopItemTable * &>
PUBLIC	??$to_address@USOfflineShopItemTable@@@std@@YAPAUSOfflineShopItemTable@@QAU1@@Z ; std::to_address<SOfflineShopItemTable>
PUBLIC	??$construct_at@USShopItemTable@@ABU1@@std@@YAPAUSShopItemTable@@QAU1@ABU1@@Z ; std::construct_at<SShopItemTable,SShopItemTable const &>
PUBLIC	??$addressof@USShopItemTable@@@std@@YAPAUSShopItemTable@@AAU1@@Z ; std::addressof<SShopItemTable>
PUBLIC	??$construct@USShopItemTable@@U1@@?$_Default_allocator_traits@V?$allocator@USShopItemTable@@@std@@@std@@SAXAAV?$allocator@USShopItemTable@@@1@QAUSShopItemTable@@$$QAU3@@Z ; std::_Default_allocator_traits<std::allocator<SShopItemTable> >::construct<SShopItemTable,SShopItemTable>
PUBLIC	??$_Copy_memmove_tail@PAUSShopItemTable@@@std@@YAPAUSShopItemTable@@QBDQAU1@II@Z ; std::_Copy_memmove_tail<SShopItemTable *>
PUBLIC	??$move@AAPAUSShopItemTable@@@std@@YA$$QAPAUSShopItemTable@@AAPAU1@@Z ; std::move<SShopItemTable * &>
PUBLIC	??$to_address@USShopItemTable@@@std@@YAPAUSShopItemTable@@QAU1@@Z ; std::to_address<SShopItemTable>
PUBLIC	??$forward@AAPAUSOfflineShopItemTable@@@std@@YAAAPAUSOfflineShopItemTable@@AAPAU1@@Z ; std::forward<SOfflineShopItemTable * &>
PUBLIC	??$_Med3_unchecked@PAUSOfflineShopItemTable@@UOfflineShopItemStockSortFunc@@@std@@YAXPAUSOfflineShopItemTable@@00UOfflineShopItemStockSortFunc@@@Z ; std::_Med3_unchecked<SOfflineShopItemTable *,OfflineShopItemStockSortFunc>
PUBLIC	??$_Pop_heap_hole_unchecked@PAUSOfflineShopItemTable@@U1@UOfflineShopItemStockSortFunc@@@std@@YAXPAUSOfflineShopItemTable@@00$$QAU1@UOfflineShopItemStockSortFunc@@@Z ; std::_Pop_heap_hole_unchecked<SOfflineShopItemTable *,SOfflineShopItemTable,OfflineShopItemStockSortFunc>
PUBLIC	??$_Push_heap_by_index@PAUSOfflineShopItemTable@@U1@UOfflineShopItemStockSortFunc@@@std@@YAXPAUSOfflineShopItemTable@@HH$$QAU1@UOfflineShopItemStockSortFunc@@@Z ; std::_Push_heap_by_index<SOfflineShopItemTable *,SOfflineShopItemTable,OfflineShopItemStockSortFunc>
PUBLIC	??$forward@USOfflineShopItemTable@@@std@@YA$$QAUSOfflineShopItemTable@@AAU1@@Z ; std::forward<SOfflineShopItemTable>
PUBLIC	??$_Copy_backward_memmove@PAUSOfflineShopItemTable@@PAU1@@std@@YAPAUSOfflineShopItemTable@@PAU1@00@Z ; std::_Copy_backward_memmove<SOfflineShopItemTable *,SOfflineShopItemTable *>
PUBLIC	??$forward@PAU?$_Tree_node@U?$pair@$$CBUSItemPos@@USOfflineShopItemTable@@@std@@PAX@std@@@std@@YA$$QAPAU?$_Tree_node@U?$pair@$$CBUSItemPos@@USOfflineShopItemTable@@@std@@PAX@0@AAPAU10@@Z ; std::forward<std::_Tree_node<std::pair<SItemPos const ,SOfflineShopItemTable>,void *> *>
PUBLIC	??$_Construct_in_place@PAU?$_Tree_node@U?$pair@$$CBUSItemPos@@USOfflineShopItemTable@@@std@@PAX@std@@AAPAU12@@std@@YAXAAPAU?$_Tree_node@U?$pair@$$CBUSItemPos@@USOfflineShopItemTable@@@std@@PAX@0@0@Z ; std::_Construct_in_place<std::_Tree_node<std::pair<SItemPos const ,SOfflineShopItemTable>,void *> *,std::_Tree_node<std::pair<SItemPos const ,SOfflineShopItemTable>,void *> * &>
PUBLIC	??$construct@U?$pair@$$CBUSItemPos@@USOfflineShopItemTable@@@std@@U?$pair@USItemPos@@USOfflineShopItemTable@@@2@@?$_Default_allocator_traits@V?$allocator@U?$_Tree_node@U?$pair@$$CBUSItemPos@@USOfflineShopItemTable@@@std@@PAX@std@@@std@@@std@@SAXAAV?$allocator@U?$_Tree_node@U?$pair@$$CBUSItemPos@@USOfflineShopItemTable@@@std@@PAX@std@@@1@QAU?$pair@$$CBUSItemPos@@USOfflineShopItemTable@@@1@$$QAU?$pair@USItemPos@@USOfflineShopItemTable@@@1@@Z ; std::_Default_allocator_traits<std::allocator<std::_Tree_node<std::pair<SItemPos const ,SOfflineShopItemTable>,void *> > >::construct<std::pair<SItemPos const ,SOfflineShopItemTable>,std::pair<SItemPos,SOfflineShopItemTable> >
PUBLIC	??$forward@AAPAUSShopItemTable@@@std@@YAAAPAUSShopItemTable@@AAPAU1@@Z ; std::forward<SShopItemTable * &>
PUBLIC	??$_Med3_unchecked@PAUSShopItemTable@@UItemStockSortFunc@@@std@@YAXPAUSShopItemTable@@00UItemStockSortFunc@@@Z ; std::_Med3_unchecked<SShopItemTable *,ItemStockSortFunc>
PUBLIC	??$_Pop_heap_hole_unchecked@PAUSShopItemTable@@U1@UItemStockSortFunc@@@std@@YAXPAUSShopItemTable@@00$$QAU1@UItemStockSortFunc@@@Z ; std::_Pop_heap_hole_unchecked<SShopItemTable *,SShopItemTable,ItemStockSortFunc>
PUBLIC	??$_Push_heap_by_index@PAUSShopItemTable@@U1@UItemStockSortFunc@@@std@@YAXPAUSShopItemTable@@HH$$QAU1@UItemStockSortFunc@@@Z ; std::_Push_heap_by_index<SShopItemTable *,SShopItemTable,ItemStockSortFunc>
PUBLIC	??$forward@USShopItemTable@@@std@@YA$$QAUSShopItemTable@@AAU1@@Z ; std::forward<SShopItemTable>
PUBLIC	??$_Copy_backward_memmove@PAUSShopItemTable@@PAU1@@std@@YAPAUSShopItemTable@@PAU1@00@Z ; std::_Copy_backward_memmove<SShopItemTable *,SShopItemTable *>
PUBLIC	??$forward@PAU?$_Tree_node@U?$pair@$$CBUSItemPos@@USShopItemTable@@@std@@PAX@std@@@std@@YA$$QAPAU?$_Tree_node@U?$pair@$$CBUSItemPos@@USShopItemTable@@@std@@PAX@0@AAPAU10@@Z ; std::forward<std::_Tree_node<std::pair<SItemPos const ,SShopItemTable>,void *> *>
PUBLIC	??$_Construct_in_place@PAU?$_Tree_node@U?$pair@$$CBUSItemPos@@USShopItemTable@@@std@@PAX@std@@AAPAU12@@std@@YAXAAPAU?$_Tree_node@U?$pair@$$CBUSItemPos@@USShopItemTable@@@std@@PAX@0@0@Z ; std::_Construct_in_place<std::_Tree_node<std::pair<SItemPos const ,SShopItemTable>,void *> *,std::_Tree_node<std::pair<SItemPos const ,SShopItemTable>,void *> * &>
PUBLIC	??$construct@U?$pair@$$CBUSItemPos@@USShopItemTable@@@std@@U?$pair@USItemPos@@USShopItemTable@@@2@@?$_Default_allocator_traits@V?$allocator@U?$_Tree_node@U?$pair@$$CBUSItemPos@@USShopItemTable@@@std@@PAX@std@@@std@@@std@@SAXAAV?$allocator@U?$_Tree_node@U?$pair@$$CBUSItemPos@@USShopItemTable@@@std@@PAX@std@@@1@QAU?$pair@$$CBUSItemPos@@USShopItemTable@@@1@$$QAU?$pair@USItemPos@@USShopItemTable@@@1@@Z ; std::_Default_allocator_traits<std::allocator<std::_Tree_node<std::pair<SItemPos const ,SShopItemTable>,void *> > >::construct<std::pair<SItemPos const ,SShopItemTable>,std::pair<SItemPos,SShopItemTable> >
PUBLIC	??0?$_Tree_unchecked_iterator@V?$_Tree_val@U?$_Tree_simple_types@U?$pair@$$CBUSItemPos@@USOfflineShopItemTable@@@std@@@std@@@std@@@std@@QAE@PAU?$_Tree_node@U?$pair@$$CBUSItemPos@@USOfflineShopItemTable@@@std@@PAX@1@PBV?$_Tree_val@U?$_Tree_simple_types@U?$pair@$$CBUSItemPos@@USOfflineShopItemTable@@@std@@@std@@@1@@Z ; std::_Tree_unchecked_iterator<std::_Tree_val<std::_Tree_simple_types<std::pair<SItemPos const ,SOfflineShopItemTable> > > >::_Tree_unchecked_iterator<std::_Tree_val<std::_Tree_simple_types<std::pair<SItemPos const ,SOfflineShopItemTable> > > >
PUBLIC	??0?$_Tree_unchecked_iterator@V?$_Tree_val@U?$_Tree_simple_types@U?$pair@$$CBUSItemPos@@USShopItemTable@@@std@@@std@@@std@@@std@@QAE@PAU?$_Tree_node@U?$pair@$$CBUSItemPos@@USShopItemTable@@@std@@PAX@1@PBV?$_Tree_val@U?$_Tree_simple_types@U?$pair@$$CBUSItemPos@@USShopItemTable@@@std@@@std@@@1@@Z ; std::_Tree_unchecked_iterator<std::_Tree_val<std::_Tree_simple_types<std::pair<SItemPos const ,SShopItemTable> > > >::_Tree_unchecked_iterator<std::_Tree_val<std::_Tree_simple_types<std::pair<SItemPos const ,SShopItemTable> > > >
PUBLIC	??1?$_Tree_temp_node_alloc@V?$allocator@U?$_Tree_node@U?$pair@$$CBUSItemPos@@USOfflineShopItemTable@@@std@@PAX@std@@@std@@@std@@QAE@XZ ; std::_Tree_temp_node_alloc<std::allocator<std::_Tree_node<std::pair<SItemPos const ,SOfflineShopItemTable>,void *> > >::~_Tree_temp_node_alloc<std::allocator<std::_Tree_node<std::pair<SItemPos const ,SOfflineShopItemTable>,void *> > >
PUBLIC	??1?$_Tree_temp_node_alloc@V?$allocator@U?$_Tree_node@U?$pair@$$CBUSItemPos@@USShopItemTable@@@std@@PAX@std@@@std@@@std@@QAE@XZ ; std::_Tree_temp_node_alloc<std::allocator<std::_Tree_node<std::pair<SItemPos const ,SShopItemTable>,void *> > >::~_Tree_temp_node_alloc<std::allocator<std::_Tree_node<std::pair<SItemPos const ,SShopItemTable>,void *> > >
PUBLIC	?_Unchecked_begin@?$_Tree@V?$_Tmap_traits@USItemPos@@USOfflineShopItemTable@@U?$less@USItemPos@@@std@@V?$allocator@U?$pair@$$CBUSItemPos@@USOfflineShopItemTable@@@std@@@4@$0A@@std@@@std@@QAE?AV?$_Tree_unchecked_iterator@V?$_Tree_val@U?$_Tree_simple_types@U?$pair@$$CBUSItemPos@@USOfflineShopItemTable@@@std@@@std@@@std@@@2@XZ ; std::_Tree<std::_Tmap_traits<SItemPos,SOfflineShopItemTable,std::less<SItemPos>,std::allocator<std::pair<SItemPos const ,SOfflineShopItemTable> >,0> >::_Unchecked_begin
PUBLIC	?_Erase_unchecked@?$_Tree@V?$_Tmap_traits@USItemPos@@USOfflineShopItemTable@@U?$less@USItemPos@@@std@@V?$allocator@U?$pair@$$CBUSItemPos@@USOfflineShopItemTable@@@std@@@4@$0A@@std@@@std@@AAEPAU?$_Tree_node@U?$pair@$$CBUSItemPos@@USOfflineShopItemTable@@@std@@PAX@2@V?$_Tree_unchecked_const_iterator@V?$_Tree_val@U?$_Tree_simple_types@U?$pair@$$CBUSItemPos@@USOfflineShopItemTable@@@std@@@std@@@std@@U_Iterator_base0@2@@2@@Z ; std::_Tree<std::_Tmap_traits<SItemPos,SOfflineShopItemTable,std::less<SItemPos>,std::allocator<std::pair<SItemPos const ,SOfflineShopItemTable> >,0> >::_Erase_unchecked
PUBLIC	?_Check_grow_by_1@?$_Tree@V?$_Tmap_traits@USItemPos@@USOfflineShopItemTable@@U?$less@USItemPos@@@std@@V?$allocator@U?$pair@$$CBUSItemPos@@USOfflineShopItemTable@@@std@@@4@$0A@@std@@@std@@IAEXXZ ; std::_Tree<std::_Tmap_traits<SItemPos,SOfflineShopItemTable,std::less<SItemPos>,std::allocator<std::pair<SItemPos const ,SOfflineShopItemTable> >,0> >::_Check_grow_by_1
PUBLIC	?deallocate@?$_Default_allocator_traits@V?$allocator@U?$_Tree_node@U?$pair@$$CBUSItemPos@@USOfflineShopItemTable@@@std@@PAX@std@@@std@@@std@@SAXAAV?$allocator@U?$_Tree_node@U?$pair@$$CBUSItemPos@@USOfflineShopItemTable@@@std@@PAX@std@@@2@QAU?$_Tree_node@U?$pair@$$CBUSItemPos@@USOfflineShopItemTable@@@std@@PAX@2@I@Z ; std::_Default_allocator_traits<std::allocator<std::_Tree_node<std::pair<SItemPos const ,SOfflineShopItemTable>,void *> > >::deallocate
PUBLIC	?_Min@?$_Tree_val@U?$_Tree_simple_types@U?$pair@$$CBUSItemPos@@USOfflineShopItemTable@@@std@@@std@@@std@@SAPAU?$_Tree_node@U?$pair@$$CBUSItemPos@@USOfflineShopItemTable@@@std@@PAX@2@PAU32@@Z ; std::_Tree_val<std::_Tree_simple_types<std::pair<SItemPos const ,SOfflineShopItemTable> > >::_Min
PUBLIC	?_Insert_node@?$_Tree_val@U?$_Tree_simple_types@U?$pair@$$CBUSItemPos@@USOfflineShopItemTable@@@std@@@std@@@std@@QAEPAU?$_Tree_node@U?$pair@$$CBUSItemPos@@USOfflineShopItemTable@@@std@@PAX@2@U?$_Tree_id@PAU?$_Tree_node@U?$pair@$$CBUSItemPos@@USOfflineShopItemTable@@@std@@PAX@std@@@2@QAU32@@Z ; std::_Tree_val<std::_Tree_simple_types<std::pair<SItemPos const ,SOfflineShopItemTable> > >::_Insert_node
PUBLIC	??E?$_Tree_unchecked_const_iterator@V?$_Tree_val@U?$_Tree_simple_types@U?$pair@$$CBUSItemPos@@USOfflineShopItemTable@@@std@@@std@@@std@@U_Iterator_base0@2@@std@@QAE?AV01@H@Z ; std::_Tree_unchecked_const_iterator<std::_Tree_val<std::_Tree_simple_types<std::pair<SItemPos const ,SOfflineShopItemTable> > >,std::_Iterator_base0>::operator++
PUBLIC	??8?$_Tree_unchecked_const_iterator@V?$_Tree_val@U?$_Tree_simple_types@U?$pair@$$CBUSItemPos@@USOfflineShopItemTable@@@std@@@std@@@std@@U_Iterator_base0@2@@std@@QBE_NABV01@@Z ; std::_Tree_unchecked_const_iterator<std::_Tree_val<std::_Tree_simple_types<std::pair<SItemPos const ,SOfflineShopItemTable> > >,std::_Iterator_base0>::operator==
PUBLIC	?_Get_first@?$_Compressed_pair@U?$less@USItemPos@@@std@@V?$_Compressed_pair@V?$allocator@U?$_Tree_node@U?$pair@$$CBUSItemPos@@USOfflineShopItemTable@@@std@@PAX@std@@@std@@V?$_Tree_val@U?$_Tree_simple_types@U?$pair@$$CBUSItemPos@@USOfflineShopItemTable@@@std@@@std@@@2@$00@2@$00@std@@QBEABU?$less@USItemPos@@@2@XZ ; std::_Compressed_pair<std::less<SItemPos>,std::_Compressed_pair<std::allocator<std::_Tree_node<std::pair<SItemPos const ,SOfflineShopItemTable>,void *> >,std::_Tree_val<std::_Tree_simple_types<std::pair<SItemPos const ,SOfflineShopItemTable> > >,1>,1>::_Get_first
PUBLIC	?_Unchecked_begin@?$_Tree@V?$_Tmap_traits@USItemPos@@USShopItemTable@@U?$less@USItemPos@@@std@@V?$allocator@U?$pair@$$CBUSItemPos@@USShopItemTable@@@std@@@4@$0A@@std@@@std@@QAE?AV?$_Tree_unchecked_iterator@V?$_Tree_val@U?$_Tree_simple_types@U?$pair@$$CBUSItemPos@@USShopItemTable@@@std@@@std@@@std@@@2@XZ ; std::_Tree<std::_Tmap_traits<SItemPos,SShopItemTable,std::less<SItemPos>,std::allocator<std::pair<SItemPos const ,SShopItemTable> >,0> >::_Unchecked_begin
PUBLIC	?_Erase_unchecked@?$_Tree@V?$_Tmap_traits@USItemPos@@USShopItemTable@@U?$less@USItemPos@@@std@@V?$allocator@U?$pair@$$CBUSItemPos@@USShopItemTable@@@std@@@4@$0A@@std@@@std@@AAEPAU?$_Tree_node@U?$pair@$$CBUSItemPos@@USShopItemTable@@@std@@PAX@2@V?$_Tree_unchecked_const_iterator@V?$_Tree_val@U?$_Tree_simple_types@U?$pair@$$CBUSItemPos@@USShopItemTable@@@std@@@std@@@std@@U_Iterator_base0@2@@2@@Z ; std::_Tree<std::_Tmap_traits<SItemPos,SShopItemTable,std::less<SItemPos>,std::allocator<std::pair<SItemPos const ,SShopItemTable> >,0> >::_Erase_unchecked
PUBLIC	?_Check_grow_by_1@?$_Tree@V?$_Tmap_traits@USItemPos@@USShopItemTable@@U?$less@USItemPos@@@std@@V?$allocator@U?$pair@$$CBUSItemPos@@USShopItemTable@@@std@@@4@$0A@@std@@@std@@IAEXXZ ; std::_Tree<std::_Tmap_traits<SItemPos,SShopItemTable,std::less<SItemPos>,std::allocator<std::pair<SItemPos const ,SShopItemTable> >,0> >::_Check_grow_by_1
PUBLIC	?deallocate@?$_Default_allocator_traits@V?$allocator@U?$_Tree_node@U?$pair@$$CBUSItemPos@@USShopItemTable@@@std@@PAX@std@@@std@@@std@@SAXAAV?$allocator@U?$_Tree_node@U?$pair@$$CBUSItemPos@@USShopItemTable@@@std@@PAX@std@@@2@QAU?$_Tree_node@U?$pair@$$CBUSItemPos@@USShopItemTable@@@std@@PAX@2@I@Z ; std::_Default_allocator_traits<std::allocator<std::_Tree_node<std::pair<SItemPos const ,SShopItemTable>,void *> > >::deallocate
PUBLIC	?_Min@?$_Tree_val@U?$_Tree_simple_types@U?$pair@$$CBUSItemPos@@USShopItemTable@@@std@@@std@@@std@@SAPAU?$_Tree_node@U?$pair@$$CBUSItemPos@@USShopItemTable@@@std@@PAX@2@PAU32@@Z ; std::_Tree_val<std::_Tree_simple_types<std::pair<SItemPos const ,SShopItemTable> > >::_Min
PUBLIC	?_Insert_node@?$_Tree_val@U?$_Tree_simple_types@U?$pair@$$CBUSItemPos@@USShopItemTable@@@std@@@std@@@std@@QAEPAU?$_Tree_node@U?$pair@$$CBUSItemPos@@USShopItemTable@@@std@@PAX@2@U?$_Tree_id@PAU?$_Tree_node@U?$pair@$$CBUSItemPos@@USShopItemTable@@@std@@PAX@std@@@2@QAU32@@Z ; std::_Tree_val<std::_Tree_simple_types<std::pair<SItemPos const ,SShopItemTable> > >::_Insert_node
PUBLIC	??E?$_Tree_unchecked_const_iterator@V?$_Tree_val@U?$_Tree_simple_types@U?$pair@$$CBUSItemPos@@USShopItemTable@@@std@@@std@@@std@@U_Iterator_base0@2@@std@@QAE?AV01@H@Z ; std::_Tree_unchecked_const_iterator<std::_Tree_val<std::_Tree_simple_types<std::pair<SItemPos const ,SShopItemTable> > >,std::_Iterator_base0>::operator++
PUBLIC	??8?$_Tree_unchecked_const_iterator@V?$_Tree_val@U?$_Tree_simple_types@U?$pair@$$CBUSItemPos@@USShopItemTable@@@std@@@std@@@std@@U_Iterator_base0@2@@std@@QBE_NABV01@@Z ; std::_Tree_unchecked_const_iterator<std::_Tree_val<std::_Tree_simple_types<std::pair<SItemPos const ,SShopItemTable> > >,std::_Iterator_base0>::operator==
PUBLIC	?_Get_first@?$_Compressed_pair@U?$less@USItemPos@@@std@@V?$_Compressed_pair@V?$allocator@U?$_Tree_node@U?$pair@$$CBUSItemPos@@USShopItemTable@@@std@@PAX@std@@@std@@V?$_Tree_val@U?$_Tree_simple_types@U?$pair@$$CBUSItemPos@@USShopItemTable@@@std@@@std@@@2@$00@2@$00@std@@QBEABU?$less@USItemPos@@@2@XZ ; std::_Compressed_pair<std::less<SItemPos>,std::_Compressed_pair<std::allocator<std::_Tree_node<std::pair<SItemPos const ,SShopItemTable>,void *> >,std::_Tree_val<std::_Tree_simple_types<std::pair<SItemPos const ,SShopItemTable> > >,1>,1>::_Get_first
PUBLIC	?allocate@?$allocator@USOfflineShopItemTable@@@std@@QAEPAUSOfflineShopItemTable@@I@Z ; std::allocator<SOfflineShopItemTable>::allocate
PUBLIC	?_Calculate_growth@?$vector@USOfflineShopItemTable@@V?$allocator@USOfflineShopItemTable@@@std@@@std@@ABEII@Z ; std::vector<SOfflineShopItemTable,std::allocator<SOfflineShopItemTable> >::_Calculate_growth
PUBLIC	?_Orphan_range@?$vector@USOfflineShopItemTable@@V?$allocator@USOfflineShopItemTable@@@std@@@std@@ABEXPAUSOfflineShopItemTable@@0@Z ; std::vector<SOfflineShopItemTable,std::allocator<SOfflineShopItemTable> >::_Orphan_range
PUBLIC	?allocate@?$allocator@USShopItemTable@@@std@@QAEPAUSShopItemTable@@I@Z ; std::allocator<SShopItemTable>::allocate
PUBLIC	?_Calculate_growth@?$vector@USShopItemTable@@V?$allocator@USShopItemTable@@@std@@@std@@ABEII@Z ; std::vector<SShopItemTable,std::allocator<SShopItemTable> >::_Calculate_growth
PUBLIC	?_Orphan_range@?$vector@USShopItemTable@@V?$allocator@USShopItemTable@@@std@@@std@@ABEXPAUSShopItemTable@@0@Z ; std::vector<SShopItemTable,std::allocator<SShopItemTable> >::_Orphan_range
PUBLIC	??1_Reallocation_guard@?$vector@USShopItemTable@@V?$allocator@USShopItemTable@@@std@@@std@@QAE@XZ ; std::vector<SShopItemTable,std::allocator<SShopItemTable> >::_Reallocation_guard::~_Reallocation_guard
PUBLIC	?_Get_first@?$_Compressed_pair@V?$allocator@USShopItemTable@@@std@@V?$_Vector_val@U?$_Simple_types@USShopItemTable@@@std@@@2@$00@std@@QAEAAV?$allocator@USShopItemTable@@@2@XZ ; std::_Compressed_pair<std::allocator<SShopItemTable>,std::_Vector_val<std::_Simple_types<SShopItemTable> >,1>::_Get_first
PUBLIC	?_Get_first@?$_Compressed_pair@V?$allocator@USShopItemTable@@@std@@V?$_Vector_val@U?$_Simple_types@USShopItemTable@@@std@@@2@$00@std@@QBEABV?$allocator@USShopItemTable@@@2@XZ ; std::_Compressed_pair<std::allocator<SShopItemTable>,std::_Vector_val<std::_Simple_types<SShopItemTable> >,1>::_Get_first
PUBLIC	??1_Reallocation_guard@?$vector@USOfflineShopItemTable@@V?$allocator@USOfflineShopItemTable@@@std@@@std@@QAE@XZ ; std::vector<SOfflineShopItemTable,std::allocator<SOfflineShopItemTable> >::_Reallocation_guard::~_Reallocation_guard
PUBLIC	?_Get_first@?$_Compressed_pair@V?$allocator@USOfflineShopItemTable@@@std@@V?$_Vector_val@U?$_Simple_types@USOfflineShopItemTable@@@std@@@2@$00@std@@QAEAAV?$allocator@USOfflineShopItemTable@@@2@XZ ; std::_Compressed_pair<std::allocator<SOfflineShopItemTable>,std::_Vector_val<std::_Simple_types<SOfflineShopItemTable> >,1>::_Get_first
PUBLIC	?_Get_first@?$_Compressed_pair@V?$allocator@USOfflineShopItemTable@@@std@@V?$_Vector_val@U?$_Simple_types@USOfflineShopItemTable@@@std@@@2@$00@std@@QBEABV?$allocator@USOfflineShopItemTable@@@2@XZ ; std::_Compressed_pair<std::allocator<SOfflineShopItemTable>,std::_Vector_val<std::_Simple_types<SOfflineShopItemTable> >,1>::_Get_first
PUBLIC	?_Extract@?$_In_place_key_extract_map_impl@USItemPos@@U?$pair@USItemPos@@USShopItemTable@@@std@@@std@@SAABUSItemPos@@ABU?$pair@USItemPos@@USShopItemTable@@@2@@Z ; std::_In_place_key_extract_map_impl<SItemPos,std::pair<SItemPos,SShopItemTable> >::_Extract
PUBLIC	??1?$_Tree_temp_node@V?$allocator@U?$_Tree_node@U?$pair@$$CBUSItemPos@@USShopItemTable@@@std@@PAX@std@@@std@@@std@@QAE@XZ ; std::_Tree_temp_node<std::allocator<std::_Tree_node<std::pair<SItemPos const ,SShopItemTable>,void *> > >::~_Tree_temp_node<std::allocator<std::_Tree_node<std::pair<SItemPos const ,SShopItemTable>,void *> > >
PUBLIC	?_Release@?$_Alloc_construct_ptr@V?$allocator@U?$_Tree_node@U?$pair@$$CBUSItemPos@@USShopItemTable@@@std@@PAX@std@@@std@@@std@@QAEPAU?$_Tree_node@U?$pair@$$CBUSItemPos@@USShopItemTable@@@std@@PAX@2@XZ ; std::_Alloc_construct_ptr<std::allocator<std::_Tree_node<std::pair<SItemPos const ,SShopItemTable>,void *> > >::_Release
PUBLIC	?_Extract@?$_In_place_key_extract_map_impl@USItemPos@@U?$pair@USItemPos@@USOfflineShopItemTable@@@std@@@std@@SAABUSItemPos@@ABU?$pair@USItemPos@@USOfflineShopItemTable@@@2@@Z ; std::_In_place_key_extract_map_impl<SItemPos,std::pair<SItemPos,SOfflineShopItemTable> >::_Extract
PUBLIC	??1?$_Tree_temp_node@V?$allocator@U?$_Tree_node@U?$pair@$$CBUSItemPos@@USOfflineShopItemTable@@@std@@PAX@std@@@std@@@std@@QAE@XZ ; std::_Tree_temp_node<std::allocator<std::_Tree_node<std::pair<SItemPos const ,SOfflineShopItemTable>,void *> > >::~_Tree_temp_node<std::allocator<std::_Tree_node<std::pair<SItemPos const ,SOfflineShopItemTable>,void *> > >
PUBLIC	?_Release@?$_Alloc_construct_ptr@V?$allocator@U?$_Tree_node@U?$pair@$$CBUSItemPos@@USOfflineShopItemTable@@@std@@PAX@std@@@std@@@std@@QAEPAU?$_Tree_node@U?$pair@$$CBUSItemPos@@USOfflineShopItemTable@@@std@@PAX@2@XZ ; std::_Alloc_construct_ptr<std::allocator<std::_Tree_node<std::pair<SItemPos const ,SOfflineShopItemTable>,void *> > >::_Release
PUBLIC	??0?$_Uninitialized_backout_al@V?$allocator@USShopItemTable@@@std@@@std@@QAE@PAUSShopItemTable@@AAV?$allocator@USShopItemTable@@@1@@Z ; std::_Uninitialized_backout_al<std::allocator<SShopItemTable> >::_Uninitialized_backout_al<std::allocator<SShopItemTable> >
PUBLIC	??1?$_Uninitialized_backout_al@V?$allocator@USShopItemTable@@@std@@@std@@QAE@XZ ; std::_Uninitialized_backout_al<std::allocator<SShopItemTable> >::~_Uninitialized_backout_al<std::allocator<SShopItemTable> >
PUBLIC	?_Release@?$_Uninitialized_backout_al@V?$allocator@USShopItemTable@@@std@@@std@@QAEPAUSShopItemTable@@XZ ; std::_Uninitialized_backout_al<std::allocator<SShopItemTable> >::_Release
PUBLIC	??0?$_Uninitialized_backout_al@V?$allocator@USOfflineShopItemTable@@@std@@@std@@QAE@PAUSOfflineShopItemTable@@AAV?$allocator@USOfflineShopItemTable@@@1@@Z ; std::_Uninitialized_backout_al<std::allocator<SOfflineShopItemTable> >::_Uninitialized_backout_al<std::allocator<SOfflineShopItemTable> >
PUBLIC	??1?$_Uninitialized_backout_al@V?$allocator@USOfflineShopItemTable@@@std@@@std@@QAE@XZ ; std::_Uninitialized_backout_al<std::allocator<SOfflineShopItemTable> >::~_Uninitialized_backout_al<std::allocator<SOfflineShopItemTable> >
PUBLIC	?_Release@?$_Uninitialized_backout_al@V?$allocator@USOfflineShopItemTable@@@std@@@std@@QAEPAUSOfflineShopItemTable@@XZ ; std::_Uninitialized_backout_al<std::allocator<SOfflineShopItemTable> >::_Release
PUBLIC	??$_Buyheadnode@V?$allocator@U?$_Tree_node@U?$pair@$$CBUSItemPos@@USOfflineShopItemTable@@@std@@PAX@std@@@std@@@?$_Tree_node@U?$pair@$$CBUSItemPos@@USOfflineShopItemTable@@@std@@PAX@std@@SAPAU01@AAV?$allocator@U?$_Tree_node@U?$pair@$$CBUSItemPos@@USOfflineShopItemTable@@@std@@PAX@std@@@1@@Z ; std::_Tree_node<std::pair<SItemPos const ,SOfflineShopItemTable>,void *>::_Buyheadnode<std::allocator<std::_Tree_node<std::pair<SItemPos const ,SOfflineShopItemTable>,void *> > >
PUBLIC	??$_Buyheadnode@V?$allocator@U?$_Tree_node@U?$pair@$$CBUSItemPos@@USShopItemTable@@@std@@PAX@std@@@std@@@?$_Tree_node@U?$pair@$$CBUSItemPos@@USShopItemTable@@@std@@PAX@std@@SAPAU01@AAV?$allocator@U?$_Tree_node@U?$pair@$$CBUSItemPos@@USShopItemTable@@@std@@PAX@std@@@1@@Z ; std::_Tree_node<std::pair<SItemPos const ,SShopItemTable>,void *>::_Buyheadnode<std::allocator<std::_Tree_node<std::pair<SItemPos const ,SShopItemTable>,void *> > >
PUBLIC	??$_Adl_verify_range@V?$_Tree_unchecked_const_iterator@V?$_Tree_val@U?$_Tree_simple_types@U?$pair@$$CBUSItemPos@@USOfflineShopItemTable@@@std@@@std@@@std@@U_Iterator_base0@2@@std@@V12@@std@@YAXABV?$_Tree_unchecked_const_iterator@V?$_Tree_val@U?$_Tree_simple_types@U?$pair@$$CBUSItemPos@@USOfflineShopItemTable@@@std@@@std@@@std@@U_Iterator_base0@2@@0@0@Z ; std::_Adl_verify_range<std::_Tree_unchecked_const_iterator<std::_Tree_val<std::_Tree_simple_types<std::pair<SItemPos const ,SOfflineShopItemTable> > >,std::_Iterator_base0>,std::_Tree_unchecked_const_iterator<std::_Tree_val<std::_Tree_simple_types<std::pair<SItemPos const ,SOfflineShopItemTable> > >,std::_Iterator_base0> >
PUBLIC	??$forward@ABU?$less@USItemPos@@@std@@@std@@YAABU?$less@USItemPos@@@0@ABU10@@Z ; std::forward<std::less<SItemPos> const &>
PUBLIC	??$_Adl_verify_range@V?$_Tree_unchecked_const_iterator@V?$_Tree_val@U?$_Tree_simple_types@U?$pair@$$CBUSItemPos@@USShopItemTable@@@std@@@std@@@std@@U_Iterator_base0@2@@std@@V12@@std@@YAXABV?$_Tree_unchecked_const_iterator@V?$_Tree_val@U?$_Tree_simple_types@U?$pair@$$CBUSItemPos@@USShopItemTable@@@std@@@std@@@std@@U_Iterator_base0@2@@0@0@Z ; std::_Adl_verify_range<std::_Tree_unchecked_const_iterator<std::_Tree_val<std::_Tree_simple_types<std::pair<SItemPos const ,SShopItemTable> > >,std::_Iterator_base0>,std::_Tree_unchecked_const_iterator<std::_Tree_val<std::_Tree_simple_types<std::pair<SItemPos const ,SShopItemTable> > >,std::_Iterator_base0> >
PUBLIC	??$_Destroy_in_place@PAU?$_Tree_node@U?$pair@$$CBUSItemPos@@USOfflineShopItemTable@@@std@@PAX@std@@@std@@YAXAAPAU?$_Tree_node@U?$pair@$$CBUSItemPos@@USOfflineShopItemTable@@@std@@PAX@0@@Z ; std::_Destroy_in_place<std::_Tree_node<std::pair<SItemPos const ,SOfflineShopItemTable>,void *> *>
PUBLIC	??$destroy@U?$pair@$$CBUSItemPos@@USOfflineShopItemTable@@@std@@@?$_Default_allocator_traits@V?$allocator@U?$_Tree_node@U?$pair@$$CBUSItemPos@@USOfflineShopItemTable@@@std@@PAX@std@@@std@@@std@@SAXAAV?$allocator@U?$_Tree_node@U?$pair@$$CBUSItemPos@@USOfflineShopItemTable@@@std@@PAX@std@@@1@QAU?$pair@$$CBUSItemPos@@USOfflineShopItemTable@@@1@@Z ; std::_Default_allocator_traits<std::allocator<std::_Tree_node<std::pair<SItemPos const ,SOfflineShopItemTable>,void *> > >::destroy<std::pair<SItemPos const ,SOfflineShopItemTable> >
PUBLIC	??$_Destroy_in_place@PAU?$_Tree_node@U?$pair@$$CBUSItemPos@@USShopItemTable@@@std@@PAX@std@@@std@@YAXAAPAU?$_Tree_node@U?$pair@$$CBUSItemPos@@USShopItemTable@@@std@@PAX@0@@Z ; std::_Destroy_in_place<std::_Tree_node<std::pair<SItemPos const ,SShopItemTable>,void *> *>
PUBLIC	??$destroy@U?$pair@$$CBUSItemPos@@USShopItemTable@@@std@@@?$_Default_allocator_traits@V?$allocator@U?$_Tree_node@U?$pair@$$CBUSItemPos@@USShopItemTable@@@std@@PAX@std@@@std@@@std@@SAXAAV?$allocator@U?$_Tree_node@U?$pair@$$CBUSItemPos@@USShopItemTable@@@std@@PAX@std@@@1@QAU?$pair@$$CBUSItemPos@@USShopItemTable@@@1@@Z ; std::_Default_allocator_traits<std::allocator<std::_Tree_node<std::pair<SItemPos const ,SShopItemTable>,void *> > >::destroy<std::pair<SItemPos const ,SShopItemTable> >
PUBLIC	??$construct@USOfflineShopItemTable@@ABU1@@?$_Default_allocator_traits@V?$allocator@USOfflineShopItemTable@@@std@@@std@@SAXAAV?$allocator@USOfflineShopItemTable@@@1@QAUSOfflineShopItemTable@@ABU3@@Z ; std::_Default_allocator_traits<std::allocator<SOfflineShopItemTable> >::construct<SOfflineShopItemTable,SOfflineShopItemTable const &>
PUBLIC	??$_Construct_in_place@USOfflineShopItemTable@@ABU1@@std@@YAXAAUSOfflineShopItemTable@@ABU1@@Z ; std::_Construct_in_place<SOfflineShopItemTable,SOfflineShopItemTable const &>
PUBLIC	??$_Emplace_back@USOfflineShopItemTable@@@?$_Uninitialized_backout_al@V?$allocator@USOfflineShopItemTable@@@std@@@std@@QAEX$$QAUSOfflineShopItemTable@@@Z ; std::_Uninitialized_backout_al<std::allocator<SOfflineShopItemTable> >::_Emplace_back<SOfflineShopItemTable>
PUBLIC	??$_To_address@PAUSOfflineShopItemTable@@@std@@YA?A_PABQAUSOfflineShopItemTable@@@Z ; std::_To_address<SOfflineShopItemTable *>
PUBLIC	??$_Copy_memmove@PAUSOfflineShopItemTable@@PAU1@@std@@YAPAUSOfflineShopItemTable@@PAU1@00@Z ; std::_Copy_memmove<SOfflineShopItemTable *,SOfflineShopItemTable *>
PUBLIC	??$_Unfancy@USOfflineShopItemTable@@@std@@YAPAUSOfflineShopItemTable@@PAU1@@Z ; std::_Unfancy<SOfflineShopItemTable>
PUBLIC	??$construct@USShopItemTable@@ABU1@@?$_Default_allocator_traits@V?$allocator@USShopItemTable@@@std@@@std@@SAXAAV?$allocator@USShopItemTable@@@1@QAUSShopItemTable@@ABU3@@Z ; std::_Default_allocator_traits<std::allocator<SShopItemTable> >::construct<SShopItemTable,SShopItemTable const &>
PUBLIC	??$_Construct_in_place@USShopItemTable@@ABU1@@std@@YAXAAUSShopItemTable@@ABU1@@Z ; std::_Construct_in_place<SShopItemTable,SShopItemTable const &>
PUBLIC	??$_Emplace_back@USShopItemTable@@@?$_Uninitialized_backout_al@V?$allocator@USShopItemTable@@@std@@@std@@QAEX$$QAUSShopItemTable@@@Z ; std::_Uninitialized_backout_al<std::allocator<SShopItemTable> >::_Emplace_back<SShopItemTable>
PUBLIC	??$_To_address@PAUSShopItemTable@@@std@@YA?A_PABQAUSShopItemTable@@@Z ; std::_To_address<SShopItemTable *>
PUBLIC	??$_Copy_memmove@PAUSShopItemTable@@PAU1@@std@@YAPAUSShopItemTable@@PAU1@00@Z ; std::_Copy_memmove<SShopItemTable *,SShopItemTable *>
PUBLIC	??$_Unfancy@USShopItemTable@@@std@@YAPAUSShopItemTable@@PAU1@@Z ; std::_Unfancy<SShopItemTable>
PUBLIC	??$?0AAPAUSOfflineShopItemTable@@AAPAU0@$0A@@?$pair@PAUSOfflineShopItemTable@@PAU1@@std@@QAE@AAPAUSOfflineShopItemTable@@0@Z ; std::pair<SOfflineShopItemTable *,SOfflineShopItemTable *>::pair<SOfflineShopItemTable *,SOfflineShopItemTable *><SOfflineShopItemTable * &,SOfflineShopItemTable * &,0>
PUBLIC	??$swap@USOfflineShopItemTable@@$0A@@std@@YAXAAUSOfflineShopItemTable@@0@Z ; std::swap<SOfflineShopItemTable,0>
PUBLIC	??$_Next_iter@PAUSOfflineShopItemTable@@@std@@YAPAUSOfflineShopItemTable@@PAU1@@Z ; std::_Next_iter<SOfflineShopItemTable *>
PUBLIC	??$_Guess_median_unchecked@PAUSOfflineShopItemTable@@UOfflineShopItemStockSortFunc@@@std@@YAXPAUSOfflineShopItemTable@@00UOfflineShopItemStockSortFunc@@@Z ; std::_Guess_median_unchecked<SOfflineShopItemTable *,OfflineShopItemStockSortFunc>
PUBLIC	??$_Prev_iter@PAUSOfflineShopItemTable@@@std@@YAPAUSOfflineShopItemTable@@PAU1@@Z ; std::_Prev_iter<SOfflineShopItemTable *>
PUBLIC	??$_Pop_heap_unchecked@PAUSOfflineShopItemTable@@UOfflineShopItemStockSortFunc@@@std@@YAXPAUSOfflineShopItemTable@@0UOfflineShopItemStockSortFunc@@@Z ; std::_Pop_heap_unchecked<SOfflineShopItemTable *,OfflineShopItemStockSortFunc>
PUBLIC	??$_Pop_heap_hole_by_index@PAUSOfflineShopItemTable@@U1@UOfflineShopItemStockSortFunc@@@std@@YAXPAUSOfflineShopItemTable@@HH$$QAU1@UOfflineShopItemStockSortFunc@@@Z ; std::_Pop_heap_hole_by_index<SOfflineShopItemTable *,SOfflineShopItemTable,OfflineShopItemStockSortFunc>
PUBLIC	??$_Move_backward_unchecked@PAUSOfflineShopItemTable@@PAU1@@std@@YAPAUSOfflineShopItemTable@@PAU1@00@Z ; std::_Move_backward_unchecked<SOfflineShopItemTable *,SOfflineShopItemTable *>
PUBLIC	??$move@AAUSOfflineShopItemTable@@@std@@YA$$QAUSOfflineShopItemTable@@AAU1@@Z ; std::move<SOfflineShopItemTable &>
PUBLIC	??$forward@V?$_Tree_iterator@V?$_Tree_val@U?$_Tree_simple_types@U?$pair@$$CBUSItemPos@@USOfflineShopItemTable@@@std@@@std@@@std@@@std@@@std@@YA$$QAV?$_Tree_iterator@V?$_Tree_val@U?$_Tree_simple_types@U?$pair@$$CBUSItemPos@@USOfflineShopItemTable@@@std@@@std@@@std@@@0@AAV10@@Z ; std::forward<std::_Tree_iterator<std::_Tree_val<std::_Tree_simple_types<std::pair<SItemPos const ,SOfflineShopItemTable> > > > >
PUBLIC	??$?0PAU?$_Tree_node@U?$pair@$$CBUSItemPos@@USOfflineShopItemTable@@@std@@PAX@std@@_N$0A@@?$pair@PAU?$_Tree_node@U?$pair@$$CBUSItemPos@@USOfflineShopItemTable@@@std@@PAX@std@@_N@std@@QAE@$$QAPAU?$_Tree_node@U?$pair@$$CBUSItemPos@@USOfflineShopItemTable@@@std@@PAX@1@$$QA_N@Z ; std::pair<std::_Tree_node<std::pair<SItemPos const ,SOfflineShopItemTable>,void *> *,bool>::pair<std::_Tree_node<std::pair<SItemPos const ,SOfflineShopItemTable>,void *> *,bool><std::_Tree_node<std::pair<SItemPos const ,SOfflineShopItemTable>,void *> *,bool,0>
PUBLIC	??$?0AAPAU?$_Tree_node@U?$pair@$$CBUSItemPos@@USOfflineShopItemTable@@@std@@PAX@std@@_N$0A@@?$pair@PAU?$_Tree_node@U?$pair@$$CBUSItemPos@@USOfflineShopItemTable@@@std@@PAX@std@@_N@std@@QAE@AAPAU?$_Tree_node@U?$pair@$$CBUSItemPos@@USOfflineShopItemTable@@@std@@PAX@1@$$QA_N@Z ; std::pair<std::_Tree_node<std::pair<SItemPos const ,SOfflineShopItemTable>,void *> *,bool>::pair<std::_Tree_node<std::pair<SItemPos const ,SOfflineShopItemTable>,void *> *,bool><std::_Tree_node<std::pair<SItemPos const ,SOfflineShopItemTable>,void *> * &,bool,0>
PUBLIC	??$?0U?$pair@USItemPos@@USOfflineShopItemTable@@@std@@@?$_Tree_temp_node@V?$allocator@U?$_Tree_node@U?$pair@$$CBUSItemPos@@USOfflineShopItemTable@@@std@@PAX@std@@@std@@@std@@QAE@AAV?$allocator@U?$_Tree_node@U?$pair@$$CBUSItemPos@@USOfflineShopItemTable@@@std@@PAX@std@@@1@PAU?$_Tree_node@U?$pair@$$CBUSItemPos@@USOfflineShopItemTable@@@std@@PAX@1@$$QAU?$pair@USItemPos@@USOfflineShopItemTable@@@1@@Z ; std::_Tree_temp_node<std::allocator<std::_Tree_node<std::pair<SItemPos const ,SOfflineShopItemTable>,void *> > >::_Tree_temp_node<std::allocator<std::_Tree_node<std::pair<SItemPos const ,SOfflineShopItemTable>,void *> > ><std::pair<SItemPos,SOfflineShopItemTable> >
PUBLIC	??$?0AAPAUSShopItemTable@@AAPAU0@$0A@@?$pair@PAUSShopItemTable@@PAU1@@std@@QAE@AAPAUSShopItemTable@@0@Z ; std::pair<SShopItemTable *,SShopItemTable *>::pair<SShopItemTable *,SShopItemTable *><SShopItemTable * &,SShopItemTable * &,0>
PUBLIC	??$swap@USShopItemTable@@$0A@@std@@YAXAAUSShopItemTable@@0@Z ; std::swap<SShopItemTable,0>
PUBLIC	??$_Next_iter@PAUSShopItemTable@@@std@@YAPAUSShopItemTable@@PAU1@@Z ; std::_Next_iter<SShopItemTable *>
PUBLIC	??$_Guess_median_unchecked@PAUSShopItemTable@@UItemStockSortFunc@@@std@@YAXPAUSShopItemTable@@00UItemStockSortFunc@@@Z ; std::_Guess_median_unchecked<SShopItemTable *,ItemStockSortFunc>
PUBLIC	??$_Prev_iter@PAUSShopItemTable@@@std@@YAPAUSShopItemTable@@PAU1@@Z ; std::_Prev_iter<SShopItemTable *>
PUBLIC	??$_Pop_heap_unchecked@PAUSShopItemTable@@UItemStockSortFunc@@@std@@YAXPAUSShopItemTable@@0UItemStockSortFunc@@@Z ; std::_Pop_heap_unchecked<SShopItemTable *,ItemStockSortFunc>
PUBLIC	??$_Pop_heap_hole_by_index@PAUSShopItemTable@@U1@UItemStockSortFunc@@@std@@YAXPAUSShopItemTable@@HH$$QAU1@UItemStockSortFunc@@@Z ; std::_Pop_heap_hole_by_index<SShopItemTable *,SShopItemTable,ItemStockSortFunc>
PUBLIC	??$_Move_backward_unchecked@PAUSShopItemTable@@PAU1@@std@@YAPAUSShopItemTable@@PAU1@00@Z ; std::_Move_backward_unchecked<SShopItemTable *,SShopItemTable *>
PUBLIC	??$move@AAUSShopItemTable@@@std@@YA$$QAUSShopItemTable@@AAU1@@Z ; std::move<SShopItemTable &>
PUBLIC	??$forward@V?$_Tree_iterator@V?$_Tree_val@U?$_Tree_simple_types@U?$pair@$$CBUSItemPos@@USShopItemTable@@@std@@@std@@@std@@@std@@@std@@YA$$QAV?$_Tree_iterator@V?$_Tree_val@U?$_Tree_simple_types@U?$pair@$$CBUSItemPos@@USShopItemTable@@@std@@@std@@@std@@@0@AAV10@@Z ; std::forward<std::_Tree_iterator<std::_Tree_val<std::_Tree_simple_types<std::pair<SItemPos const ,SShopItemTable> > > > >
PUBLIC	??$?0PAU?$_Tree_node@U?$pair@$$CBUSItemPos@@USShopItemTable@@@std@@PAX@std@@_N$0A@@?$pair@PAU?$_Tree_node@U?$pair@$$CBUSItemPos@@USShopItemTable@@@std@@PAX@std@@_N@std@@QAE@$$QAPAU?$_Tree_node@U?$pair@$$CBUSItemPos@@USShopItemTable@@@std@@PAX@1@$$QA_N@Z ; std::pair<std::_Tree_node<std::pair<SItemPos const ,SShopItemTable>,void *> *,bool>::pair<std::_Tree_node<std::pair<SItemPos const ,SShopItemTable>,void *> *,bool><std::_Tree_node<std::pair<SItemPos const ,SShopItemTable>,void *> *,bool,0>
PUBLIC	??$?0AAPAU?$_Tree_node@U?$pair@$$CBUSItemPos@@USShopItemTable@@@std@@PAX@std@@_N$0A@@?$pair@PAU?$_Tree_node@U?$pair@$$CBUSItemPos@@USShopItemTable@@@std@@PAX@std@@_N@std@@QAE@AAPAU?$_Tree_node@U?$pair@$$CBUSItemPos@@USShopItemTable@@@std@@PAX@1@$$QA_N@Z ; std::pair<std::_Tree_node<std::pair<SItemPos const ,SShopItemTable>,void *> *,bool>::pair<std::_Tree_node<std::pair<SItemPos const ,SShopItemTable>,void *> *,bool><std::_Tree_node<std::pair<SItemPos const ,SShopItemTable>,void *> * &,bool,0>
PUBLIC	??$?0U?$pair@USItemPos@@USShopItemTable@@@std@@@?$_Tree_temp_node@V?$allocator@U?$_Tree_node@U?$pair@$$CBUSItemPos@@USShopItemTable@@@std@@PAX@std@@@std@@@std@@QAE@AAV?$allocator@U?$_Tree_node@U?$pair@$$CBUSItemPos@@USShopItemTable@@@std@@PAX@std@@@1@PAU?$_Tree_node@U?$pair@$$CBUSItemPos@@USShopItemTable@@@std@@PAX@1@$$QAU?$pair@USItemPos@@USShopItemTable@@@1@@Z ; std::_Tree_temp_node<std::allocator<std::_Tree_node<std::pair<SItemPos const ,SShopItemTable>,void *> > >::_Tree_temp_node<std::allocator<std::_Tree_node<std::pair<SItemPos const ,SShopItemTable>,void *> > ><std::pair<SItemPos,SShopItemTable> >
PUBLIC	??$forward@AAPAU?$_Tree_node@U?$pair@$$CBUSItemPos@@USOfflineShopItemTable@@@std@@PAX@std@@@std@@YAAAPAU?$_Tree_node@U?$pair@$$CBUSItemPos@@USOfflineShopItemTable@@@std@@PAX@0@AAPAU10@@Z ; std::forward<std::_Tree_node<std::pair<SItemPos const ,SOfflineShopItemTable>,void *> * &>
PUBLIC	??$forward@AAPAU?$_Tree_node@U?$pair@$$CBUSItemPos@@USShopItemTable@@@std@@PAX@std@@@std@@YAAAPAU?$_Tree_node@U?$pair@$$CBUSItemPos@@USShopItemTable@@@std@@PAX@0@AAPAU10@@Z ; std::forward<std::_Tree_node<std::pair<SItemPos const ,SShopItemTable>,void *> * &>
PUBLIC	??$?0$$V@?$_Compressed_pair@V?$allocator@U?$_Tree_node@U?$pair@$$CBUSItemPos@@USOfflineShopItemTable@@@std@@PAX@std@@@std@@V?$_Tree_val@U?$_Tree_simple_types@U?$pair@$$CBUSItemPos@@USOfflineShopItemTable@@@std@@@std@@@2@$00@std@@QAE@U_Zero_then_variadic_args_t@1@@Z ; std::_Compressed_pair<std::allocator<std::_Tree_node<std::pair<SItemPos const ,SOfflineShopItemTable>,void *> >,std::_Tree_val<std::_Tree_simple_types<std::pair<SItemPos const ,SOfflineShopItemTable> > >,1>::_Compressed_pair<std::allocator<std::_Tree_node<std::pair<SItemPos const ,SOfflineShopItemTable>,void *> >,std::_Tree_val<std::_Tree_simple_types<std::pair<SItemPos const ,SOfflineShopItemTable> > >,1><>
PUBLIC	??$?0$$V@?$_Compressed_pair@V?$allocator@U?$_Tree_node@U?$pair@$$CBUSItemPos@@USShopItemTable@@@std@@PAX@std@@@std@@V?$_Tree_val@U?$_Tree_simple_types@U?$pair@$$CBUSItemPos@@USShopItemTable@@@std@@@std@@@2@$00@std@@QAE@U_Zero_then_variadic_args_t@1@@Z ; std::_Compressed_pair<std::allocator<std::_Tree_node<std::pair<SItemPos const ,SShopItemTable>,void *> >,std::_Tree_val<std::_Tree_simple_types<std::pair<SItemPos const ,SShopItemTable> > >,1>::_Compressed_pair<std::allocator<std::_Tree_node<std::pair<SItemPos const ,SShopItemTable>,void *> >,std::_Tree_val<std::_Tree_simple_types<std::pair<SItemPos const ,SShopItemTable> > >,1><>
PUBLIC	??R?$less@USItemPos@@@std@@QBE_NABUSItemPos@@0@Z ; std::less<SItemPos>::operator()
PUBLIC	?_Erase_unchecked@?$_Tree@V?$_Tmap_traits@USItemPos@@USOfflineShopItemTable@@U?$less@USItemPos@@@std@@V?$allocator@U?$pair@$$CBUSItemPos@@USOfflineShopItemTable@@@std@@@4@$0A@@std@@@std@@AAEPAU?$_Tree_node@U?$pair@$$CBUSItemPos@@USOfflineShopItemTable@@@std@@PAX@2@V?$_Tree_unchecked_const_iterator@V?$_Tree_val@U?$_Tree_simple_types@U?$pair@$$CBUSItemPos@@USOfflineShopItemTable@@@std@@@std@@@std@@U_Iterator_base0@2@@2@0@Z ; std::_Tree<std::_Tmap_traits<SItemPos,SOfflineShopItemTable,std::less<SItemPos>,std::allocator<std::pair<SItemPos const ,SOfflineShopItemTable> >,0> >::_Erase_unchecked
PUBLIC	?_Alloc_sentinel_and_proxy@?$_Tree@V?$_Tmap_traits@USItemPos@@USOfflineShopItemTable@@U?$less@USItemPos@@@std@@V?$allocator@U?$pair@$$CBUSItemPos@@USOfflineShopItemTable@@@std@@@4@$0A@@std@@@std@@IAEXXZ ; std::_Tree<std::_Tmap_traits<SItemPos,SOfflineShopItemTable,std::less<SItemPos>,std::allocator<std::pair<SItemPos const ,SOfflineShopItemTable> >,0> >::_Alloc_sentinel_and_proxy
PUBLIC	?_Getcomp@?$_Tree@V?$_Tmap_traits@USItemPos@@USOfflineShopItemTable@@U?$less@USItemPos@@@std@@V?$allocator@U?$pair@$$CBUSItemPos@@USOfflineShopItemTable@@@std@@@4@$0A@@std@@@std@@IBEABU?$less@USItemPos@@@2@XZ ; std::_Tree<std::_Tmap_traits<SItemPos,SOfflineShopItemTable,std::less<SItemPos>,std::allocator<std::pair<SItemPos const ,SOfflineShopItemTable> >,0> >::_Getcomp
PUBLIC	??D?$_Tree_const_iterator@V?$_Tree_val@U?$_Tree_simple_types@U?$pair@$$CBUSItemPos@@USOfflineShopItemTable@@@std@@@std@@@std@@@std@@QBEABU?$pair@$$CBUSItemPos@@USOfflineShopItemTable@@@1@XZ ; std::_Tree_const_iterator<std::_Tree_val<std::_Tree_simple_types<std::pair<SItemPos const ,SOfflineShopItemTable> > > >::operator*
PUBLIC	??E?$_Tree_unchecked_const_iterator@V?$_Tree_val@U?$_Tree_simple_types@U?$pair@$$CBUSItemPos@@USOfflineShopItemTable@@@std@@@std@@@std@@U_Iterator_base0@2@@std@@QAEAAV01@XZ ; std::_Tree_unchecked_const_iterator<std::_Tree_val<std::_Tree_simple_types<std::pair<SItemPos const ,SOfflineShopItemTable> > >,std::_Iterator_base0>::operator++
PUBLIC	?_Get_first@?$_Compressed_pair@V?$allocator@U?$_Tree_node@U?$pair@$$CBUSItemPos@@USOfflineShopItemTable@@@std@@PAX@std@@@std@@V?$_Tree_val@U?$_Tree_simple_types@U?$pair@$$CBUSItemPos@@USOfflineShopItemTable@@@std@@@std@@@2@$00@std@@QAEAAV?$allocator@U?$_Tree_node@U?$pair@$$CBUSItemPos@@USOfflineShopItemTable@@@std@@PAX@std@@@2@XZ ; std::_Compressed_pair<std::allocator<std::_Tree_node<std::pair<SItemPos const ,SOfflineShopItemTable>,void *> >,std::_Tree_val<std::_Tree_simple_types<std::pair<SItemPos const ,SOfflineShopItemTable> > >,1>::_Get_first
PUBLIC	?_Erase_unchecked@?$_Tree@V?$_Tmap_traits@USItemPos@@USShopItemTable@@U?$less@USItemPos@@@std@@V?$allocator@U?$pair@$$CBUSItemPos@@USShopItemTable@@@std@@@4@$0A@@std@@@std@@AAEPAU?$_Tree_node@U?$pair@$$CBUSItemPos@@USShopItemTable@@@std@@PAX@2@V?$_Tree_unchecked_const_iterator@V?$_Tree_val@U?$_Tree_simple_types@U?$pair@$$CBUSItemPos@@USShopItemTable@@@std@@@std@@@std@@U_Iterator_base0@2@@2@0@Z ; std::_Tree<std::_Tmap_traits<SItemPos,SShopItemTable,std::less<SItemPos>,std::allocator<std::pair<SItemPos const ,SShopItemTable> >,0> >::_Erase_unchecked
PUBLIC	?_Alloc_sentinel_and_proxy@?$_Tree@V?$_Tmap_traits@USItemPos@@USShopItemTable@@U?$less@USItemPos@@@std@@V?$allocator@U?$pair@$$CBUSItemPos@@USShopItemTable@@@std@@@4@$0A@@std@@@std@@IAEXXZ ; std::_Tree<std::_Tmap_traits<SItemPos,SShopItemTable,std::less<SItemPos>,std::allocator<std::pair<SItemPos const ,SShopItemTable> >,0> >::_Alloc_sentinel_and_proxy
PUBLIC	?_Getcomp@?$_Tree@V?$_Tmap_traits@USItemPos@@USShopItemTable@@U?$less@USItemPos@@@std@@V?$allocator@U?$pair@$$CBUSItemPos@@USShopItemTable@@@std@@@4@$0A@@std@@@std@@IBEABU?$less@USItemPos@@@2@XZ ; std::_Tree<std::_Tmap_traits<SItemPos,SShopItemTable,std::less<SItemPos>,std::allocator<std::pair<SItemPos const ,SShopItemTable> >,0> >::_Getcomp
PUBLIC	??D?$_Tree_const_iterator@V?$_Tree_val@U?$_Tree_simple_types@U?$pair@$$CBUSItemPos@@USShopItemTable@@@std@@@std@@@std@@@std@@QBEABU?$pair@$$CBUSItemPos@@USShopItemTable@@@1@XZ ; std::_Tree_const_iterator<std::_Tree_val<std::_Tree_simple_types<std::pair<SItemPos const ,SShopItemTable> > > >::operator*
PUBLIC	??E?$_Tree_unchecked_const_iterator@V?$_Tree_val@U?$_Tree_simple_types@U?$pair@$$CBUSItemPos@@USShopItemTable@@@std@@@std@@@std@@U_Iterator_base0@2@@std@@QAEAAV01@XZ ; std::_Tree_unchecked_const_iterator<std::_Tree_val<std::_Tree_simple_types<std::pair<SItemPos const ,SShopItemTable> > >,std::_Iterator_base0>::operator++
PUBLIC	?_Get_first@?$_Compressed_pair@V?$allocator@U?$_Tree_node@U?$pair@$$CBUSItemPos@@USShopItemTable@@@std@@PAX@std@@@std@@V?$_Tree_val@U?$_Tree_simple_types@U?$pair@$$CBUSItemPos@@USShopItemTable@@@std@@@std@@@2@$00@std@@QAEAAV?$allocator@U?$_Tree_node@U?$pair@$$CBUSItemPos@@USShopItemTable@@@std@@PAX@std@@@2@XZ ; std::_Compressed_pair<std::allocator<std::_Tree_node<std::pair<SItemPos const ,SShopItemTable>,void *> >,std::_Tree_val<std::_Tree_simple_types<std::pair<SItemPos const ,SShopItemTable> > >,1>::_Get_first
PUBLIC	??0?$allocator@USOfflineShopItemTable@@@std@@QAE@XZ ; std::allocator<SOfflineShopItemTable>::allocator<SOfflineShopItemTable>
PUBLIC	?deallocate@?$allocator@USOfflineShopItemTable@@@std@@QAEXQAUSOfflineShopItemTable@@I@Z ; std::allocator<SOfflineShopItemTable>::deallocate
PUBLIC	?_Change_array@?$vector@USOfflineShopItemTable@@V?$allocator@USOfflineShopItemTable@@@std@@@std@@AAEXQAUSOfflineShopItemTable@@II@Z ; std::vector<SOfflineShopItemTable,std::allocator<SOfflineShopItemTable> >::_Change_array
PUBLIC	?_Getal@?$vector@USOfflineShopItemTable@@V?$allocator@USOfflineShopItemTable@@@std@@@std@@AAEAAV?$allocator@USOfflineShopItemTable@@@2@XZ ; std::vector<SOfflineShopItemTable,std::allocator<SOfflineShopItemTable> >::_Getal
PUBLIC	?_Getal@?$vector@USOfflineShopItemTable@@V?$allocator@USOfflineShopItemTable@@@std@@@std@@ABEABV?$allocator@USOfflineShopItemTable@@@2@XZ ; std::vector<SOfflineShopItemTable,std::allocator<SOfflineShopItemTable> >::_Getal
PUBLIC	??0?$allocator@USShopItemTable@@@std@@QAE@XZ	; std::allocator<SShopItemTable>::allocator<SShopItemTable>
PUBLIC	?deallocate@?$allocator@USShopItemTable@@@std@@QAEXQAUSShopItemTable@@I@Z ; std::allocator<SShopItemTable>::deallocate
PUBLIC	?_Change_array@?$vector@USShopItemTable@@V?$allocator@USShopItemTable@@@std@@@std@@AAEXQAUSShopItemTable@@II@Z ; std::vector<SShopItemTable,std::allocator<SShopItemTable> >::_Change_array
PUBLIC	?_Getal@?$vector@USShopItemTable@@V?$allocator@USShopItemTable@@@std@@@std@@AAEAAV?$allocator@USShopItemTable@@@2@XZ ; std::vector<SShopItemTable,std::allocator<SShopItemTable> >::_Getal
PUBLIC	?_Getal@?$vector@USShopItemTable@@V?$allocator@USShopItemTable@@@std@@@std@@ABEABV?$allocator@USShopItemTable@@@2@XZ ; std::vector<SShopItemTable,std::allocator<SShopItemTable> >::_Getal
PUBLIC	?max_size@?$_Default_allocator_traits@V?$allocator@USShopItemTable@@@std@@@std@@SAIABV?$allocator@USShopItemTable@@@2@@Z ; std::_Default_allocator_traits<std::allocator<SShopItemTable> >::max_size
PUBLIC	??0?$_Vector_val@U?$_Simple_types@USShopItemTable@@@std@@@std@@QAE@XZ ; std::_Vector_val<std::_Simple_types<SShopItemTable> >::_Vector_val<std::_Simple_types<SShopItemTable> >
PUBLIC	??1_Simple_reallocation_guard@?$vector@USShopItemTable@@V?$allocator@USShopItemTable@@@std@@@std@@QAE@XZ ; std::vector<SShopItemTable,std::allocator<SShopItemTable> >::_Simple_reallocation_guard::~_Simple_reallocation_guard
PUBLIC	?max_size@?$_Default_allocator_traits@V?$allocator@USOfflineShopItemTable@@@std@@@std@@SAIABV?$allocator@USOfflineShopItemTable@@@2@@Z ; std::_Default_allocator_traits<std::allocator<SOfflineShopItemTable> >::max_size
PUBLIC	??0?$_Vector_val@U?$_Simple_types@USOfflineShopItemTable@@@std@@@std@@QAE@XZ ; std::_Vector_val<std::_Simple_types<SOfflineShopItemTable> >::_Vector_val<std::_Simple_types<SOfflineShopItemTable> >
PUBLIC	??1_Simple_reallocation_guard@?$vector@USOfflineShopItemTable@@V?$allocator@USOfflineShopItemTable@@@std@@@std@@QAE@XZ ; std::vector<SOfflineShopItemTable,std::allocator<SOfflineShopItemTable> >::_Simple_reallocation_guard::~_Simple_reallocation_guard
PUBLIC	??$?0ABU?$less@USItemPos@@@std@@U_Zero_then_variadic_args_t@1@@?$_Compressed_pair@U?$less@USItemPos@@@std@@V?$_Compressed_pair@V?$allocator@U?$_Tree_node@U?$pair@$$CBUSItemPos@@USOfflineShopItemTable@@@std@@PAX@std@@@std@@V?$_Tree_val@U?$_Tree_simple_types@U?$pair@$$CBUSItemPos@@USOfflineShopItemTable@@@std@@@std@@@2@$00@2@$00@std@@QAE@U_One_then_variadic_args_t@1@ABU?$less@USItemPos@@@1@$$QAU_Zero_then_variadic_args_t@1@@Z ; std::_Compressed_pair<std::less<SItemPos>,std::_Compressed_pair<std::allocator<std::_Tree_node<std::pair<SItemPos const ,SOfflineShopItemTable>,void *> >,std::_Tree_val<std::_Tree_simple_types<std::pair<SItemPos const ,SOfflineShopItemTable> > >,1>,1>::_Compressed_pair<std::less<SItemPos>,std::_Compressed_pair<std::allocator<std::_Tree_node<std::pair<SItemPos const ,SOfflineShopItemTable>,void *> >,std::_Tree_val<std::_Tree_simple_types<std::pair<SItemPos const ,SOfflineShopItemTable> > >,1>,1><std::less<SItemPos> const &,std::_Zero_then_variadic_args_t>
PUBLIC	??$_Get_unwrapped@AAV?$_Tree_unchecked_const_iterator@V?$_Tree_val@U?$_Tree_simple_types@U?$pair@$$CBUSItemPos@@USOfflineShopItemTable@@@std@@@std@@@std@@U_Iterator_base0@2@@std@@@std@@YA?A_TAAV?$_Tree_unchecked_const_iterator@V?$_Tree_val@U?$_Tree_simple_types@U?$pair@$$CBUSItemPos@@USOfflineShopItemTable@@@std@@@std@@@std@@U_Iterator_base0@2@@0@@Z ; std::_Get_unwrapped<std::_Tree_unchecked_const_iterator<std::_Tree_val<std::_Tree_simple_types<std::pair<SItemPos const ,SOfflineShopItemTable> > >,std::_Iterator_base0> &>
PUBLIC	??$distance@V?$_Tree_unchecked_const_iterator@V?$_Tree_val@U?$_Tree_simple_types@U?$pair@$$CBUSItemPos@@USOfflineShopItemTable@@@std@@@std@@@std@@U_Iterator_base0@2@@std@@@std@@YAHV?$_Tree_unchecked_const_iterator@V?$_Tree_val@U?$_Tree_simple_types@U?$pair@$$CBUSItemPos@@USOfflineShopItemTable@@@std@@@std@@@std@@U_Iterator_base0@2@@0@0@Z ; std::distance<std::_Tree_unchecked_const_iterator<std::_Tree_val<std::_Tree_simple_types<std::pair<SItemPos const ,SOfflineShopItemTable> > >,std::_Iterator_base0> >
PUBLIC	??$addressof@V?$_Tree_val@U?$_Tree_simple_types@U?$pair@$$CBUSItemPos@@USOfflineShopItemTable@@@std@@@std@@@std@@@std@@YAPAV?$_Tree_val@U?$_Tree_simple_types@U?$pair@$$CBUSItemPos@@USOfflineShopItemTable@@@std@@@std@@@0@AAV10@@Z ; std::addressof<std::_Tree_val<std::_Tree_simple_types<std::pair<SItemPos const ,SOfflineShopItemTable> > > >
PUBLIC	??$addressof@$$CBV?$_Tree_val@U?$_Tree_simple_types@U?$pair@$$CBUSItemPos@@USOfflineShopItemTable@@@std@@@std@@@std@@@std@@YAPBV?$_Tree_val@U?$_Tree_simple_types@U?$pair@$$CBUSItemPos@@USOfflineShopItemTable@@@std@@@std@@@0@ABV10@@Z ; std::addressof<std::_Tree_val<std::_Tree_simple_types<std::pair<SItemPos const ,SOfflineShopItemTable> > > const >
PUBLIC	??$?0ABU?$less@USItemPos@@@std@@U_Zero_then_variadic_args_t@1@@?$_Compressed_pair@U?$less@USItemPos@@@std@@V?$_Compressed_pair@V?$allocator@U?$_Tree_node@U?$pair@$$CBUSItemPos@@USShopItemTable@@@std@@PAX@std@@@std@@V?$_Tree_val@U?$_Tree_simple_types@U?$pair@$$CBUSItemPos@@USShopItemTable@@@std@@@std@@@2@$00@2@$00@std@@QAE@U_One_then_variadic_args_t@1@ABU?$less@USItemPos@@@1@$$QAU_Zero_then_variadic_args_t@1@@Z ; std::_Compressed_pair<std::less<SItemPos>,std::_Compressed_pair<std::allocator<std::_Tree_node<std::pair<SItemPos const ,SShopItemTable>,void *> >,std::_Tree_val<std::_Tree_simple_types<std::pair<SItemPos const ,SShopItemTable> > >,1>,1>::_Compressed_pair<std::less<SItemPos>,std::_Compressed_pair<std::allocator<std::_Tree_node<std::pair<SItemPos const ,SShopItemTable>,void *> >,std::_Tree_val<std::_Tree_simple_types<std::pair<SItemPos const ,SShopItemTable> > >,1>,1><std::less<SItemPos> const &,std::_Zero_then_variadic_args_t>
PUBLIC	??$_Get_unwrapped@AAV?$_Tree_unchecked_const_iterator@V?$_Tree_val@U?$_Tree_simple_types@U?$pair@$$CBUSItemPos@@USShopItemTable@@@std@@@std@@@std@@U_Iterator_base0@2@@std@@@std@@YA?A_TAAV?$_Tree_unchecked_const_iterator@V?$_Tree_val@U?$_Tree_simple_types@U?$pair@$$CBUSItemPos@@USShopItemTable@@@std@@@std@@@std@@U_Iterator_base0@2@@0@@Z ; std::_Get_unwrapped<std::_Tree_unchecked_const_iterator<std::_Tree_val<std::_Tree_simple_types<std::pair<SItemPos const ,SShopItemTable> > >,std::_Iterator_base0> &>
PUBLIC	??$distance@V?$_Tree_unchecked_const_iterator@V?$_Tree_val@U?$_Tree_simple_types@U?$pair@$$CBUSItemPos@@USShopItemTable@@@std@@@std@@@std@@U_Iterator_base0@2@@std@@@std@@YAHV?$_Tree_unchecked_const_iterator@V?$_Tree_val@U?$_Tree_simple_types@U?$pair@$$CBUSItemPos@@USShopItemTable@@@std@@@std@@@std@@U_Iterator_base0@2@@0@0@Z ; std::distance<std::_Tree_unchecked_const_iterator<std::_Tree_val<std::_Tree_simple_types<std::pair<SItemPos const ,SShopItemTable> > >,std::_Iterator_base0> >
PUBLIC	??$addressof@V?$_Tree_val@U?$_Tree_simple_types@U?$pair@$$CBUSItemPos@@USShopItemTable@@@std@@@std@@@std@@@std@@YAPAV?$_Tree_val@U?$_Tree_simple_types@U?$pair@$$CBUSItemPos@@USShopItemTable@@@std@@@std@@@0@AAV10@@Z ; std::addressof<std::_Tree_val<std::_Tree_simple_types<std::pair<SItemPos const ,SShopItemTable> > > >
PUBLIC	??$addressof@$$CBV?$_Tree_val@U?$_Tree_simple_types@U?$pair@$$CBUSItemPos@@USShopItemTable@@@std@@@std@@@std@@@std@@YAPBV?$_Tree_val@U?$_Tree_simple_types@U?$pair@$$CBUSItemPos@@USShopItemTable@@@std@@@std@@@0@ABV10@@Z ; std::addressof<std::_Tree_val<std::_Tree_simple_types<std::pair<SItemPos const ,SShopItemTable> > > const >
PUBLIC	??$_Destroy_range@V?$allocator@USOfflineShopItemTable@@@std@@@std@@YAXPAUSOfflineShopItemTable@@QAU1@AAV?$allocator@USOfflineShopItemTable@@@0@@Z ; std::_Destroy_range<std::allocator<SOfflineShopItemTable> >
PUBLIC	??$_Destroy_range@V?$allocator@USShopItemTable@@@std@@@std@@YAXPAUSShopItemTable@@QAU1@AAV?$allocator@USShopItemTable@@@0@@Z ; std::_Destroy_range<std::allocator<SShopItemTable> >
PUBLIC	??$addressof@U?$pair@$$CBUSItemPos@@USShopItemTable@@@std@@@std@@YAPAU?$pair@$$CBUSItemPos@@USShopItemTable@@@0@AAU10@@Z ; std::addressof<std::pair<SItemPos const ,SShopItemTable> >
PUBLIC	??$addressof@U?$pair@$$CBUSItemPos@@USOfflineShopItemTable@@@std@@@std@@YAPAU?$pair@$$CBUSItemPos@@USOfflineShopItemTable@@@0@AAU10@@Z ; std::addressof<std::pair<SItemPos const ,SOfflineShopItemTable> >
PUBLIC	??$_Freenode0@V?$allocator@U?$_Tree_node@U?$pair@$$CBUSItemPos@@USOfflineShopItemTable@@@std@@PAX@std@@@std@@@?$_Tree_node@U?$pair@$$CBUSItemPos@@USOfflineShopItemTable@@@std@@PAX@std@@SAXAAV?$allocator@U?$_Tree_node@U?$pair@$$CBUSItemPos@@USOfflineShopItemTable@@@std@@PAX@std@@@1@PAU01@@Z ; std::_Tree_node<std::pair<SItemPos const ,SOfflineShopItemTable>,void *>::_Freenode0<std::allocator<std::_Tree_node<std::pair<SItemPos const ,SOfflineShopItemTable>,void *> > >
PUBLIC	??$_Freenode@V?$allocator@U?$_Tree_node@U?$pair@$$CBUSItemPos@@USOfflineShopItemTable@@@std@@PAX@std@@@std@@@?$_Tree_node@U?$pair@$$CBUSItemPos@@USOfflineShopItemTable@@@std@@PAX@std@@SAXAAV?$allocator@U?$_Tree_node@U?$pair@$$CBUSItemPos@@USOfflineShopItemTable@@@std@@PAX@std@@@1@PAU01@@Z ; std::_Tree_node<std::pair<SItemPos const ,SOfflineShopItemTable>,void *>::_Freenode<std::allocator<std::_Tree_node<std::pair<SItemPos const ,SOfflineShopItemTable>,void *> > >
PUBLIC	??$exchange@PAU?$_Tree_node@U?$pair@$$CBUSItemPos@@USOfflineShopItemTable@@@std@@PAX@std@@AAPAU12@@std@@YAPAU?$_Tree_node@U?$pair@$$CBUSItemPos@@USOfflineShopItemTable@@@std@@PAX@0@AAPAU10@0@Z ; std::exchange<std::_Tree_node<std::pair<SItemPos const ,SOfflineShopItemTable>,void *> *,std::_Tree_node<std::pair<SItemPos const ,SOfflineShopItemTable>,void *> * &>
PUBLIC	??$_Lower_bound_duplicate@USItemPos@@@?$_Tree@V?$_Tmap_traits@USItemPos@@USOfflineShopItemTable@@U?$less@USItemPos@@@std@@V?$allocator@U?$pair@$$CBUSItemPos@@USOfflineShopItemTable@@@std@@@4@$0A@@std@@@std@@IBE_NQAU?$_Tree_node@U?$pair@$$CBUSItemPos@@USOfflineShopItemTable@@@std@@PAX@1@ABUSItemPos@@@Z ; std::_Tree<std::_Tmap_traits<SItemPos,SOfflineShopItemTable,std::less<SItemPos>,std::allocator<std::pair<SItemPos const ,SOfflineShopItemTable> >,0> >::_Lower_bound_duplicate<SItemPos>
PUBLIC	??$_Find_lower_bound@USItemPos@@@?$_Tree@V?$_Tmap_traits@USItemPos@@USOfflineShopItemTable@@U?$less@USItemPos@@@std@@V?$allocator@U?$pair@$$CBUSItemPos@@USOfflineShopItemTable@@@std@@@4@$0A@@std@@@std@@IBE?AU?$_Tree_find_result@PAU?$_Tree_node@U?$pair@$$CBUSItemPos@@USOfflineShopItemTable@@@std@@PAX@std@@@1@ABUSItemPos@@@Z ; std::_Tree<std::_Tmap_traits<SItemPos,SOfflineShopItemTable,std::less<SItemPos>,std::allocator<std::pair<SItemPos const ,SOfflineShopItemTable> >,0> >::_Find_lower_bound<SItemPos>
PUBLIC	??$_Freenode0@V?$allocator@U?$_Tree_node@U?$pair@$$CBUSItemPos@@USShopItemTable@@@std@@PAX@std@@@std@@@?$_Tree_node@U?$pair@$$CBUSItemPos@@USShopItemTable@@@std@@PAX@std@@SAXAAV?$allocator@U?$_Tree_node@U?$pair@$$CBUSItemPos@@USShopItemTable@@@std@@PAX@std@@@1@PAU01@@Z ; std::_Tree_node<std::pair<SItemPos const ,SShopItemTable>,void *>::_Freenode0<std::allocator<std::_Tree_node<std::pair<SItemPos const ,SShopItemTable>,void *> > >
PUBLIC	??$_Freenode@V?$allocator@U?$_Tree_node@U?$pair@$$CBUSItemPos@@USShopItemTable@@@std@@PAX@std@@@std@@@?$_Tree_node@U?$pair@$$CBUSItemPos@@USShopItemTable@@@std@@PAX@std@@SAXAAV?$allocator@U?$_Tree_node@U?$pair@$$CBUSItemPos@@USShopItemTable@@@std@@PAX@std@@@1@PAU01@@Z ; std::_Tree_node<std::pair<SItemPos const ,SShopItemTable>,void *>::_Freenode<std::allocator<std::_Tree_node<std::pair<SItemPos const ,SShopItemTable>,void *> > >
PUBLIC	??$exchange@PAU?$_Tree_node@U?$pair@$$CBUSItemPos@@USShopItemTable@@@std@@PAX@std@@AAPAU12@@std@@YAPAU?$_Tree_node@U?$pair@$$CBUSItemPos@@USShopItemTable@@@std@@PAX@0@AAPAU10@0@Z ; std::exchange<std::_Tree_node<std::pair<SItemPos const ,SShopItemTable>,void *> *,std::_Tree_node<std::pair<SItemPos const ,SShopItemTable>,void *> * &>
PUBLIC	??$_Lower_bound_duplicate@USItemPos@@@?$_Tree@V?$_Tmap_traits@USItemPos@@USShopItemTable@@U?$less@USItemPos@@@std@@V?$allocator@U?$pair@$$CBUSItemPos@@USShopItemTable@@@std@@@4@$0A@@std@@@std@@IBE_NQAU?$_Tree_node@U?$pair@$$CBUSItemPos@@USShopItemTable@@@std@@PAX@1@ABUSItemPos@@@Z ; std::_Tree<std::_Tmap_traits<SItemPos,SShopItemTable,std::less<SItemPos>,std::allocator<std::pair<SItemPos const ,SShopItemTable> >,0> >::_Lower_bound_duplicate<SItemPos>
PUBLIC	??$_Find_lower_bound@USItemPos@@@?$_Tree@V?$_Tmap_traits@USItemPos@@USShopItemTable@@U?$less@USItemPos@@@std@@V?$allocator@U?$pair@$$CBUSItemPos@@USShopItemTable@@@std@@@4@$0A@@std@@@std@@IBE?AU?$_Tree_find_result@PAU?$_Tree_node@U?$pair@$$CBUSItemPos@@USShopItemTable@@@std@@PAX@std@@@1@ABUSItemPos@@@Z ; std::_Tree<std::_Tmap_traits<SItemPos,SShopItemTable,std::less<SItemPos>,std::allocator<std::pair<SItemPos const ,SShopItemTable> >,0> >::_Find_lower_bound<SItemPos>
PUBLIC	??$_Emplace_reallocate@ABUSOfflineShopItemTable@@@?$vector@USOfflineShopItemTable@@V?$allocator@USOfflineShopItemTable@@@std@@@std@@AAEPAUSOfflineShopItemTable@@QAU2@ABU2@@Z ; std::vector<SOfflineShopItemTable,std::allocator<SOfflineShopItemTable> >::_Emplace_reallocate<SOfflineShopItemTable const &>
PUBLIC	??$_Emplace_back_with_unused_capacity@ABUSOfflineShopItemTable@@@?$vector@USOfflineShopItemTable@@V?$allocator@USOfflineShopItemTable@@@std@@@std@@AAEAAUSOfflineShopItemTable@@ABU2@@Z ; std::vector<SOfflineShopItemTable,std::allocator<SOfflineShopItemTable> >::_Emplace_back_with_unused_capacity<SOfflineShopItemTable const &>
PUBLIC	??$forward@ABUSOfflineShopItemTable@@@std@@YAABUSOfflineShopItemTable@@ABU1@@Z ; std::forward<SOfflineShopItemTable const &>
PUBLIC	??$_Uninitialized_move@PAUSOfflineShopItemTable@@V?$allocator@USOfflineShopItemTable@@@std@@@std@@YAPAUSOfflineShopItemTable@@QAU1@0PAU1@AAV?$allocator@USOfflineShopItemTable@@@0@@Z ; std::_Uninitialized_move<SOfflineShopItemTable *,std::allocator<SOfflineShopItemTable> >
PUBLIC	??$_Get_unwrapped@ABQAUSOfflineShopItemTable@@@std@@YA?A_TABQAUSOfflineShopItemTable@@@Z ; std::_Get_unwrapped<SOfflineShopItemTable * const &>
PUBLIC	??$_Allocate_at_least_helper@V?$allocator@USOfflineShopItemTable@@@std@@@std@@YAPAUSOfflineShopItemTable@@AAV?$allocator@USOfflineShopItemTable@@@0@AAI@Z ; std::_Allocate_at_least_helper<std::allocator<SOfflineShopItemTable> >
PUBLIC	??$_Emplace_reallocate@ABUSShopItemTable@@@?$vector@USShopItemTable@@V?$allocator@USShopItemTable@@@std@@@std@@AAEPAUSShopItemTable@@QAU2@ABU2@@Z ; std::vector<SShopItemTable,std::allocator<SShopItemTable> >::_Emplace_reallocate<SShopItemTable const &>
PUBLIC	??$_Emplace_back_with_unused_capacity@ABUSShopItemTable@@@?$vector@USShopItemTable@@V?$allocator@USShopItemTable@@@std@@@std@@AAEAAUSShopItemTable@@ABU2@@Z ; std::vector<SShopItemTable,std::allocator<SShopItemTable> >::_Emplace_back_with_unused_capacity<SShopItemTable const &>
PUBLIC	??$forward@ABUSShopItemTable@@@std@@YAABUSShopItemTable@@ABU1@@Z ; std::forward<SShopItemTable const &>
PUBLIC	??$_Uninitialized_move@PAUSShopItemTable@@V?$allocator@USShopItemTable@@@std@@@std@@YAPAUSShopItemTable@@QAU1@0PAU1@AAV?$allocator@USShopItemTable@@@0@@Z ; std::_Uninitialized_move<SShopItemTable *,std::allocator<SShopItemTable> >
PUBLIC	??$_Get_unwrapped@ABQAUSShopItemTable@@@std@@YA?A_TABQAUSShopItemTable@@@Z ; std::_Get_unwrapped<SShopItemTable * const &>
PUBLIC	??$_Allocate_at_least_helper@V?$allocator@USShopItemTable@@@std@@@std@@YAPAUSShopItemTable@@AAV?$allocator@USShopItemTable@@@0@AAI@Z ; std::_Allocate_at_least_helper<std::allocator<SShopItemTable> >
PUBLIC	??$_Partition_by_median_guess_unchecked@PAUSOfflineShopItemTable@@UOfflineShopItemStockSortFunc@@@std@@YA?AU?$pair@PAUSOfflineShopItemTable@@PAU1@@0@PAUSOfflineShopItemTable@@0UOfflineShopItemStockSortFunc@@@Z ; std::_Partition_by_median_guess_unchecked<SOfflineShopItemTable *,OfflineShopItemStockSortFunc>
PUBLIC	??$_Sort_heap_unchecked@PAUSOfflineShopItemTable@@UOfflineShopItemStockSortFunc@@@std@@YAXPAUSOfflineShopItemTable@@0UOfflineShopItemStockSortFunc@@@Z ; std::_Sort_heap_unchecked<SOfflineShopItemTable *,OfflineShopItemStockSortFunc>
PUBLIC	??$_Make_heap_unchecked@PAUSOfflineShopItemTable@@UOfflineShopItemStockSortFunc@@@std@@YAXPAUSOfflineShopItemTable@@0UOfflineShopItemStockSortFunc@@@Z ; std::_Make_heap_unchecked<SOfflineShopItemTable *,OfflineShopItemStockSortFunc>
PUBLIC	??$_Insertion_sort_unchecked@PAUSOfflineShopItemTable@@UOfflineShopItemStockSortFunc@@@std@@YAPAUSOfflineShopItemTable@@QAU1@0UOfflineShopItemStockSortFunc@@@Z ; std::_Insertion_sort_unchecked<SOfflineShopItemTable *,OfflineShopItemStockSortFunc>
PUBLIC	??$?0V?$_Tree_iterator@V?$_Tree_val@U?$_Tree_simple_types@U?$pair@$$CBUSItemPos@@USOfflineShopItemTable@@@std@@@std@@@std@@@std@@AB_N$0A@@?$pair@V?$_Tree_iterator@V?$_Tree_val@U?$_Tree_simple_types@U?$pair@$$CBUSItemPos@@USOfflineShopItemTable@@@std@@@std@@@std@@@std@@_N@std@@QAE@$$QAV?$_Tree_iterator@V?$_Tree_val@U?$_Tree_simple_types@U?$pair@$$CBUSItemPos@@USOfflineShopItemTable@@@std@@@std@@@std@@@1@AB_N@Z ; std::pair<std::_Tree_iterator<std::_Tree_val<std::_Tree_simple_types<std::pair<SItemPos const ,SOfflineShopItemTable> > > >,bool>::pair<std::_Tree_iterator<std::_Tree_val<std::_Tree_simple_types<std::pair<SItemPos const ,SOfflineShopItemTable> > > >,bool><std::_Tree_iterator<std::_Tree_val<std::_Tree_simple_types<std::pair<SItemPos const ,SOfflineShopItemTable> > > >,bool const &,0>
PUBLIC	??$_Emplace@U?$pair@USItemPos@@USOfflineShopItemTable@@@std@@@?$_Tree@V?$_Tmap_traits@USItemPos@@USOfflineShopItemTable@@U?$less@USItemPos@@@std@@V?$allocator@U?$pair@$$CBUSItemPos@@USOfflineShopItemTable@@@std@@@4@$0A@@std@@@std@@IAE?AU?$pair@PAU?$_Tree_node@U?$pair@$$CBUSItemPos@@USOfflineShopItemTable@@@std@@PAX@std@@_N@1@$$QAU?$pair@USItemPos@@USOfflineShopItemTable@@@1@@Z ; std::_Tree<std::_Tmap_traits<SItemPos,SOfflineShopItemTable,std::less<SItemPos>,std::allocator<std::pair<SItemPos const ,SOfflineShopItemTable> >,0> >::_Emplace<std::pair<SItemPos,SOfflineShopItemTable> >
PUBLIC	??$_Partition_by_median_guess_unchecked@PAUSShopItemTable@@UItemStockSortFunc@@@std@@YA?AU?$pair@PAUSShopItemTable@@PAU1@@0@PAUSShopItemTable@@0UItemStockSortFunc@@@Z ; std::_Partition_by_median_guess_unchecked<SShopItemTable *,ItemStockSortFunc>
PUBLIC	??$_Sort_heap_unchecked@PAUSShopItemTable@@UItemStockSortFunc@@@std@@YAXPAUSShopItemTable@@0UItemStockSortFunc@@@Z ; std::_Sort_heap_unchecked<SShopItemTable *,ItemStockSortFunc>
PUBLIC	??$_Make_heap_unchecked@PAUSShopItemTable@@UItemStockSortFunc@@@std@@YAXPAUSShopItemTable@@0UItemStockSortFunc@@@Z ; std::_Make_heap_unchecked<SShopItemTable *,ItemStockSortFunc>
PUBLIC	??$_Insertion_sort_unchecked@PAUSShopItemTable@@UItemStockSortFunc@@@std@@YAPAUSShopItemTable@@QAU1@0UItemStockSortFunc@@@Z ; std::_Insertion_sort_unchecked<SShopItemTable *,ItemStockSortFunc>
PUBLIC	??$?0V?$_Tree_iterator@V?$_Tree_val@U?$_Tree_simple_types@U?$pair@$$CBUSItemPos@@USShopItemTable@@@std@@@std@@@std@@@std@@AB_N$0A@@?$pair@V?$_Tree_iterator@V?$_Tree_val@U?$_Tree_simple_types@U?$pair@$$CBUSItemPos@@USShopItemTable@@@std@@@std@@@std@@@std@@_N@std@@QAE@$$QAV?$_Tree_iterator@V?$_Tree_val@U?$_Tree_simple_types@U?$pair@$$CBUSItemPos@@USShopItemTable@@@std@@@std@@@std@@@1@AB_N@Z ; std::pair<std::_Tree_iterator<std::_Tree_val<std::_Tree_simple_types<std::pair<SItemPos const ,SShopItemTable> > > >,bool>::pair<std::_Tree_iterator<std::_Tree_val<std::_Tree_simple_types<std::pair<SItemPos const ,SShopItemTable> > > >,bool><std::_Tree_iterator<std::_Tree_val<std::_Tree_simple_types<std::pair<SItemPos const ,SShopItemTable> > > >,bool const &,0>
PUBLIC	??$_Emplace@U?$pair@USItemPos@@USShopItemTable@@@std@@@?$_Tree@V?$_Tmap_traits@USItemPos@@USShopItemTable@@U?$less@USItemPos@@@std@@V?$allocator@U?$pair@$$CBUSItemPos@@USShopItemTable@@@std@@@4@$0A@@std@@@std@@IAE?AU?$pair@PAU?$_Tree_node@U?$pair@$$CBUSItemPos@@USShopItemTable@@@std@@PAX@std@@_N@1@$$QAU?$pair@USItemPos@@USShopItemTable@@@1@@Z ; std::_Tree<std::_Tmap_traits<SItemPos,SShopItemTable,std::less<SItemPos>,std::allocator<std::pair<SItemPos const ,SShopItemTable> >,0> >::_Emplace<std::pair<SItemPos,SShopItemTable> >
PUBLIC	??$?0AAPAU?$_Tree_node@U?$pair@$$CBUSItemPos@@USOfflineShopItemTable@@@std@@PAX@std@@AAPAU01@$0A@@?$pair@PAU?$_Tree_node@U?$pair@$$CBUSItemPos@@USOfflineShopItemTable@@@std@@PAX@std@@PAU12@@std@@QAE@AAPAU?$_Tree_node@U?$pair@$$CBUSItemPos@@USOfflineShopItemTable@@@std@@PAX@1@0@Z ; std::pair<std::_Tree_node<std::pair<SItemPos const ,SOfflineShopItemTable>,void *> *,std::_Tree_node<std::pair<SItemPos const ,SOfflineShopItemTable>,void *> *>::pair<std::_Tree_node<std::pair<SItemPos const ,SOfflineShopItemTable>,void *> *,std::_Tree_node<std::pair<SItemPos const ,SOfflineShopItemTable>,void *> *><std::_Tree_node<std::pair<SItemPos const ,SOfflineShopItemTable>,void *> * &,std::_Tree_node<std::pair<SItemPos const ,SOfflineShopItemTable>,void *> * &,0>
PUBLIC	??$_Kfn@$$CBUSItemPos@@USOfflineShopItemTable@@@?$_Tmap_traits@USItemPos@@USOfflineShopItemTable@@U?$less@USItemPos@@@std@@V?$allocator@U?$pair@$$CBUSItemPos@@USOfflineShopItemTable@@@std@@@4@$0A@@std@@SAABUSItemPos@@ABU?$pair@$$CBUSItemPos@@USOfflineShopItemTable@@@1@@Z ; std::_Tmap_traits<SItemPos,SOfflineShopItemTable,std::less<SItemPos>,std::allocator<std::pair<SItemPos const ,SOfflineShopItemTable> >,0>::_Kfn<SItemPos const ,SOfflineShopItemTable>
PUBLIC	??$?0AAPAU?$_Tree_node@U?$pair@$$CBUSItemPos@@USShopItemTable@@@std@@PAX@std@@AAPAU01@$0A@@?$pair@PAU?$_Tree_node@U?$pair@$$CBUSItemPos@@USShopItemTable@@@std@@PAX@std@@PAU12@@std@@QAE@AAPAU?$_Tree_node@U?$pair@$$CBUSItemPos@@USShopItemTable@@@std@@PAX@1@0@Z ; std::pair<std::_Tree_node<std::pair<SItemPos const ,SShopItemTable>,void *> *,std::_Tree_node<std::pair<SItemPos const ,SShopItemTable>,void *> *>::pair<std::_Tree_node<std::pair<SItemPos const ,SShopItemTable>,void *> *,std::_Tree_node<std::pair<SItemPos const ,SShopItemTable>,void *> *><std::_Tree_node<std::pair<SItemPos const ,SShopItemTable>,void *> * &,std::_Tree_node<std::pair<SItemPos const ,SShopItemTable>,void *> * &,0>
PUBLIC	??$_Kfn@$$CBUSItemPos@@USShopItemTable@@@?$_Tmap_traits@USItemPos@@USShopItemTable@@U?$less@USItemPos@@@std@@V?$allocator@U?$pair@$$CBUSItemPos@@USShopItemTable@@@std@@@4@$0A@@std@@SAABUSItemPos@@ABU?$pair@$$CBUSItemPos@@USShopItemTable@@@1@@Z ; std::_Tmap_traits<SItemPos,SShopItemTable,std::less<SItemPos>,std::allocator<std::pair<SItemPos const ,SShopItemTable> >,0>::_Kfn<SItemPos const ,SShopItemTable>
PUBLIC	??0?$_Tree@V?$_Tmap_traits@USItemPos@@USOfflineShopItemTable@@U?$less@USItemPos@@@std@@V?$allocator@U?$pair@$$CBUSItemPos@@USOfflineShopItemTable@@@std@@@4@$0A@@std@@@std@@QAE@ABU?$less@USItemPos@@@1@@Z ; std::_Tree<std::_Tmap_traits<SItemPos,SOfflineShopItemTable,std::less<SItemPos>,std::allocator<std::pair<SItemPos const ,SOfflineShopItemTable> >,0> >::_Tree<std::_Tmap_traits<SItemPos,SOfflineShopItemTable,std::less<SItemPos>,std::allocator<std::pair<SItemPos const ,SOfflineShopItemTable> >,0> >
PUBLIC	?_Erase@?$_Tree@V?$_Tmap_traits@USItemPos@@USOfflineShopItemTable@@U?$less@USItemPos@@@std@@V?$allocator@U?$pair@$$CBUSItemPos@@USOfflineShopItemTable@@@std@@@4@$0A@@std@@@std@@AAEIU?$pair@PAU?$_Tree_node@U?$pair@$$CBUSItemPos@@USOfflineShopItemTable@@@std@@PAX@std@@PAU12@@2@@Z ; std::_Tree<std::_Tmap_traits<SItemPos,SOfflineShopItemTable,std::less<SItemPos>,std::allocator<std::pair<SItemPos const ,SOfflineShopItemTable> >,0> >::_Erase
PUBLIC	?_Getal@?$_Tree@V?$_Tmap_traits@USItemPos@@USOfflineShopItemTable@@U?$less@USItemPos@@@std@@V?$allocator@U?$pair@$$CBUSItemPos@@USOfflineShopItemTable@@@std@@@4@$0A@@std@@@std@@IAEAAV?$allocator@U?$_Tree_node@U?$pair@$$CBUSItemPos@@USOfflineShopItemTable@@@std@@PAX@std@@@2@XZ ; std::_Tree<std::_Tmap_traits<SItemPos,SOfflineShopItemTable,std::less<SItemPos>,std::allocator<std::pair<SItemPos const ,SOfflineShopItemTable> >,0> >::_Getal
PUBLIC	?_Get_scary@?$_Tree@V?$_Tmap_traits@USItemPos@@USOfflineShopItemTable@@U?$less@USItemPos@@@std@@V?$allocator@U?$pair@$$CBUSItemPos@@USOfflineShopItemTable@@@std@@@4@$0A@@std@@@std@@IAEPAV?$_Tree_val@U?$_Tree_simple_types@U?$pair@$$CBUSItemPos@@USOfflineShopItemTable@@@std@@@std@@@2@XZ ; std::_Tree<std::_Tmap_traits<SItemPos,SOfflineShopItemTable,std::less<SItemPos>,std::allocator<std::pair<SItemPos const ,SOfflineShopItemTable> >,0> >::_Get_scary
PUBLIC	?_Get_scary@?$_Tree@V?$_Tmap_traits@USItemPos@@USOfflineShopItemTable@@U?$less@USItemPos@@@std@@V?$allocator@U?$pair@$$CBUSItemPos@@USOfflineShopItemTable@@@std@@@4@$0A@@std@@@std@@IBEPBV?$_Tree_val@U?$_Tree_simple_types@U?$pair@$$CBUSItemPos@@USOfflineShopItemTable@@@std@@@std@@@2@XZ ; std::_Tree<std::_Tmap_traits<SItemPos,SOfflineShopItemTable,std::less<SItemPos>,std::allocator<std::pair<SItemPos const ,SOfflineShopItemTable> >,0> >::_Get_scary
PUBLIC	?_Orphan_ptr@?$_Tree_val@U?$_Tree_simple_types@U?$pair@$$CBUSItemPos@@USOfflineShopItemTable@@@std@@@std@@@std@@QAEXQAU?$_Tree_node@U?$pair@$$CBUSItemPos@@USOfflineShopItemTable@@@std@@PAX@2@@Z ; std::_Tree_val<std::_Tree_simple_types<std::pair<SItemPos const ,SOfflineShopItemTable> > >::_Orphan_ptr
PUBLIC	??E?$_Tree_const_iterator@V?$_Tree_val@U?$_Tree_simple_types@U?$pair@$$CBUSItemPos@@USOfflineShopItemTable@@@std@@@std@@@std@@@std@@QAEAAV01@XZ ; std::_Tree_const_iterator<std::_Tree_val<std::_Tree_simple_types<std::pair<SItemPos const ,SOfflineShopItemTable> > > >::operator++
PUBLIC	??D?$_Tree_iterator@V?$_Tree_val@U?$_Tree_simple_types@U?$pair@$$CBUSItemPos@@USOfflineShopItemTable@@@std@@@std@@@std@@@std@@QBEAAU?$pair@$$CBUSItemPos@@USOfflineShopItemTable@@@1@XZ ; std::_Tree_iterator<std::_Tree_val<std::_Tree_simple_types<std::pair<SItemPos const ,SOfflineShopItemTable> > > >::operator*
PUBLIC	??0?$_Tree_unchecked_const_iterator@V?$_Tree_val@U?$_Tree_simple_types@U?$pair@$$CBUSItemPos@@USOfflineShopItemTable@@@std@@@std@@@std@@U_Iterator_base0@2@@std@@QAE@PAU?$_Tree_node@U?$pair@$$CBUSItemPos@@USOfflineShopItemTable@@@std@@PAX@1@PBV?$_Tree_val@U?$_Tree_simple_types@U?$pair@$$CBUSItemPos@@USOfflineShopItemTable@@@std@@@std@@@1@@Z ; std::_Tree_unchecked_const_iterator<std::_Tree_val<std::_Tree_simple_types<std::pair<SItemPos const ,SOfflineShopItemTable> > >,std::_Iterator_base0>::_Tree_unchecked_const_iterator<std::_Tree_val<std::_Tree_simple_types<std::pair<SItemPos const ,SOfflineShopItemTable> > >,std::_Iterator_base0>
PUBLIC	??0?$_Tree@V?$_Tmap_traits@USItemPos@@USShopItemTable@@U?$less@USItemPos@@@std@@V?$allocator@U?$pair@$$CBUSItemPos@@USShopItemTable@@@std@@@4@$0A@@std@@@std@@QAE@ABU?$less@USItemPos@@@1@@Z ; std::_Tree<std::_Tmap_traits<SItemPos,SShopItemTable,std::less<SItemPos>,std::allocator<std::pair<SItemPos const ,SShopItemTable> >,0> >::_Tree<std::_Tmap_traits<SItemPos,SShopItemTable,std::less<SItemPos>,std::allocator<std::pair<SItemPos const ,SShopItemTable> >,0> >
PUBLIC	?_Erase@?$_Tree@V?$_Tmap_traits@USItemPos@@USShopItemTable@@U?$less@USItemPos@@@std@@V?$allocator@U?$pair@$$CBUSItemPos@@USShopItemTable@@@std@@@4@$0A@@std@@@std@@AAEIU?$pair@PAU?$_Tree_node@U?$pair@$$CBUSItemPos@@USShopItemTable@@@std@@PAX@std@@PAU12@@2@@Z ; std::_Tree<std::_Tmap_traits<SItemPos,SShopItemTable,std::less<SItemPos>,std::allocator<std::pair<SItemPos const ,SShopItemTable> >,0> >::_Erase
PUBLIC	?_Getal@?$_Tree@V?$_Tmap_traits@USItemPos@@USShopItemTable@@U?$less@USItemPos@@@std@@V?$allocator@U?$pair@$$CBUSItemPos@@USShopItemTable@@@std@@@4@$0A@@std@@@std@@IAEAAV?$allocator@U?$_Tree_node@U?$pair@$$CBUSItemPos@@USShopItemTable@@@std@@PAX@std@@@2@XZ ; std::_Tree<std::_Tmap_traits<SItemPos,SShopItemTable,std::less<SItemPos>,std::allocator<std::pair<SItemPos const ,SShopItemTable> >,0> >::_Getal
PUBLIC	?_Get_scary@?$_Tree@V?$_Tmap_traits@USItemPos@@USShopItemTable@@U?$less@USItemPos@@@std@@V?$allocator@U?$pair@$$CBUSItemPos@@USShopItemTable@@@std@@@4@$0A@@std@@@std@@IAEPAV?$_Tree_val@U?$_Tree_simple_types@U?$pair@$$CBUSItemPos@@USShopItemTable@@@std@@@std@@@2@XZ ; std::_Tree<std::_Tmap_traits<SItemPos,SShopItemTable,std::less<SItemPos>,std::allocator<std::pair<SItemPos const ,SShopItemTable> >,0> >::_Get_scary
PUBLIC	?_Get_scary@?$_Tree@V?$_Tmap_traits@USItemPos@@USShopItemTable@@U?$less@USItemPos@@@std@@V?$allocator@U?$pair@$$CBUSItemPos@@USShopItemTable@@@std@@@4@$0A@@std@@@std@@IBEPBV?$_Tree_val@U?$_Tree_simple_types@U?$pair@$$CBUSItemPos@@USShopItemTable@@@std@@@std@@@2@XZ ; std::_Tree<std::_Tmap_traits<SItemPos,SShopItemTable,std::less<SItemPos>,std::allocator<std::pair<SItemPos const ,SShopItemTable> >,0> >::_Get_scary
PUBLIC	?_Orphan_ptr@?$_Tree_val@U?$_Tree_simple_types@U?$pair@$$CBUSItemPos@@USShopItemTable@@@std@@@std@@@std@@QAEXQAU?$_Tree_node@U?$pair@$$CBUSItemPos@@USShopItemTable@@@std@@PAX@2@@Z ; std::_Tree_val<std::_Tree_simple_types<std::pair<SItemPos const ,SShopItemTable> > >::_Orphan_ptr
PUBLIC	??E?$_Tree_const_iterator@V?$_Tree_val@U?$_Tree_simple_types@U?$pair@$$CBUSItemPos@@USShopItemTable@@@std@@@std@@@std@@@std@@QAEAAV01@XZ ; std::_Tree_const_iterator<std::_Tree_val<std::_Tree_simple_types<std::pair<SItemPos const ,SShopItemTable> > > >::operator++
PUBLIC	??D?$_Tree_iterator@V?$_Tree_val@U?$_Tree_simple_types@U?$pair@$$CBUSItemPos@@USShopItemTable@@@std@@@std@@@std@@@std@@QBEAAU?$pair@$$CBUSItemPos@@USShopItemTable@@@1@XZ ; std::_Tree_iterator<std::_Tree_val<std::_Tree_simple_types<std::pair<SItemPos const ,SShopItemTable> > > >::operator*
PUBLIC	??0?$_Tree_unchecked_const_iterator@V?$_Tree_val@U?$_Tree_simple_types@U?$pair@$$CBUSItemPos@@USShopItemTable@@@std@@@std@@@std@@U_Iterator_base0@2@@std@@QAE@PAU?$_Tree_node@U?$pair@$$CBUSItemPos@@USShopItemTable@@@std@@PAX@1@PBV?$_Tree_val@U?$_Tree_simple_types@U?$pair@$$CBUSItemPos@@USShopItemTable@@@std@@@std@@@1@@Z ; std::_Tree_unchecked_const_iterator<std::_Tree_val<std::_Tree_simple_types<std::pair<SItemPos const ,SShopItemTable> > >,std::_Iterator_base0>::_Tree_unchecked_const_iterator<std::_Tree_val<std::_Tree_simple_types<std::pair<SItemPos const ,SShopItemTable> > >,std::_Iterator_base0>
PUBLIC	?max_size@?$vector@USOfflineShopItemTable@@V?$allocator@USOfflineShopItemTable@@@std@@@std@@QBEIXZ ; std::vector<SOfflineShopItemTable,std::allocator<SOfflineShopItemTable> >::max_size
PUBLIC	?capacity@?$vector@USOfflineShopItemTable@@V?$allocator@USOfflineShopItemTable@@@std@@@std@@QBEIXZ ; std::vector<SOfflineShopItemTable,std::allocator<SOfflineShopItemTable> >::capacity
PUBLIC	?_Tidy@?$vector@USOfflineShopItemTable@@V?$allocator@USOfflineShopItemTable@@@std@@@std@@AAEXXZ ; std::vector<SOfflineShopItemTable,std::allocator<SOfflineShopItemTable> >::_Tidy
PUBLIC	?_Xlength@?$vector@USOfflineShopItemTable@@V?$allocator@USOfflineShopItemTable@@@std@@@std@@CAXXZ ; std::vector<SOfflineShopItemTable,std::allocator<SOfflineShopItemTable> >::_Xlength
PUBLIC	?max_size@?$vector@USShopItemTable@@V?$allocator@USShopItemTable@@@std@@@std@@QBEIXZ ; std::vector<SShopItemTable,std::allocator<SShopItemTable> >::max_size
PUBLIC	?capacity@?$vector@USShopItemTable@@V?$allocator@USShopItemTable@@@std@@@std@@QBEIXZ ; std::vector<SShopItemTable,std::allocator<SShopItemTable> >::capacity
PUBLIC	?_Tidy@?$vector@USShopItemTable@@V?$allocator@USShopItemTable@@@std@@@std@@AAEXXZ ; std::vector<SShopItemTable,std::allocator<SShopItemTable> >::_Tidy
PUBLIC	?_Xlength@?$vector@USShopItemTable@@V?$allocator@USShopItemTable@@@std@@@std@@CAXXZ ; std::vector<SShopItemTable,std::allocator<SShopItemTable> >::_Xlength
PUBLIC	?pointer_to@?$pointer_traits@PAU?$pair@$$CBUSItemPos@@USShopItemTable@@@std@@@std@@SAPAU?$pair@$$CBUSItemPos@@USShopItemTable@@@2@AAU32@@Z ; std::pointer_traits<std::pair<SItemPos const ,SShopItemTable> *>::pointer_to
PUBLIC	?pointer_to@?$pointer_traits@PAU?$pair@$$CBUSItemPos@@USOfflineShopItemTable@@@std@@@std@@SAPAU?$pair@$$CBUSItemPos@@USOfflineShopItemTable@@@2@AAU32@@Z ; std::pointer_traits<std::pair<SItemPos const ,SOfflineShopItemTable> *>::pointer_to
PUBLIC	??$_Erase_head@V?$allocator@U?$_Tree_node@U?$pair@$$CBUSItemPos@@USOfflineShopItemTable@@@std@@PAX@std@@@std@@@?$_Tree_val@U?$_Tree_simple_types@U?$pair@$$CBUSItemPos@@USOfflineShopItemTable@@@std@@@std@@@std@@QAEXAAV?$allocator@U?$_Tree_node@U?$pair@$$CBUSItemPos@@USOfflineShopItemTable@@@std@@PAX@std@@@1@@Z ; std::_Tree_val<std::_Tree_simple_types<std::pair<SItemPos const ,SOfflineShopItemTable> > >::_Erase_head<std::allocator<std::_Tree_node<std::pair<SItemPos const ,SOfflineShopItemTable>,void *> > >
PUBLIC	??$_Erase_tree@V?$allocator@U?$_Tree_node@U?$pair@$$CBUSItemPos@@USOfflineShopItemTable@@@std@@PAX@std@@@std@@@?$_Tree_val@U?$_Tree_simple_types@U?$pair@$$CBUSItemPos@@USOfflineShopItemTable@@@std@@@std@@@std@@QAEXAAV?$allocator@U?$_Tree_node@U?$pair@$$CBUSItemPos@@USOfflineShopItemTable@@@std@@PAX@std@@@1@PAU?$_Tree_node@U?$pair@$$CBUSItemPos@@USOfflineShopItemTable@@@std@@PAX@1@@Z ; std::_Tree_val<std::_Tree_simple_types<std::pair<SItemPos const ,SOfflineShopItemTable> > >::_Erase_tree<std::allocator<std::_Tree_node<std::pair<SItemPos const ,SOfflineShopItemTable>,void *> > >
PUBLIC	??$_Find@USItemPos@@@?$_Tree@V?$_Tmap_traits@USItemPos@@USOfflineShopItemTable@@U?$less@USItemPos@@@std@@V?$allocator@U?$pair@$$CBUSItemPos@@USOfflineShopItemTable@@@std@@@4@$0A@@std@@@std@@ABEPAU?$_Tree_node@U?$pair@$$CBUSItemPos@@USOfflineShopItemTable@@@std@@PAX@1@ABUSItemPos@@@Z ; std::_Tree<std::_Tmap_traits<SItemPos,SOfflineShopItemTable,std::less<SItemPos>,std::allocator<std::pair<SItemPos const ,SOfflineShopItemTable> >,0> >::_Find<SItemPos>
PUBLIC	??$_Erase_head@V?$allocator@U?$_Tree_node@U?$pair@$$CBUSItemPos@@USShopItemTable@@@std@@PAX@std@@@std@@@?$_Tree_val@U?$_Tree_simple_types@U?$pair@$$CBUSItemPos@@USShopItemTable@@@std@@@std@@@std@@QAEXAAV?$allocator@U?$_Tree_node@U?$pair@$$CBUSItemPos@@USShopItemTable@@@std@@PAX@std@@@1@@Z ; std::_Tree_val<std::_Tree_simple_types<std::pair<SItemPos const ,SShopItemTable> > >::_Erase_head<std::allocator<std::_Tree_node<std::pair<SItemPos const ,SShopItemTable>,void *> > >
PUBLIC	??$_Erase_tree@V?$allocator@U?$_Tree_node@U?$pair@$$CBUSItemPos@@USShopItemTable@@@std@@PAX@std@@@std@@@?$_Tree_val@U?$_Tree_simple_types@U?$pair@$$CBUSItemPos@@USShopItemTable@@@std@@@std@@@std@@QAEXAAV?$allocator@U?$_Tree_node@U?$pair@$$CBUSItemPos@@USShopItemTable@@@std@@PAX@std@@@1@PAU?$_Tree_node@U?$pair@$$CBUSItemPos@@USShopItemTable@@@std@@PAX@1@@Z ; std::_Tree_val<std::_Tree_simple_types<std::pair<SItemPos const ,SShopItemTable> > >::_Erase_tree<std::allocator<std::_Tree_node<std::pair<SItemPos const ,SShopItemTable>,void *> > >
PUBLIC	??$_Find@USItemPos@@@?$_Tree@V?$_Tmap_traits@USItemPos@@USShopItemTable@@U?$less@USItemPos@@@std@@V?$allocator@U?$pair@$$CBUSItemPos@@USShopItemTable@@@std@@@4@$0A@@std@@@std@@ABEPAU?$_Tree_node@U?$pair@$$CBUSItemPos@@USShopItemTable@@@std@@PAX@1@ABUSItemPos@@@Z ; std::_Tree<std::_Tmap_traits<SItemPos,SShopItemTable,std::less<SItemPos>,std::allocator<std::pair<SItemPos const ,SShopItemTable> >,0> >::_Find<SItemPos>
PUBLIC	??$?0$$V@?$_Compressed_pair@V?$allocator@USOfflineShopItemTable@@@std@@V?$_Vector_val@U?$_Simple_types@USOfflineShopItemTable@@@std@@@2@$00@std@@QAE@U_Zero_then_variadic_args_t@1@@Z ; std::_Compressed_pair<std::allocator<SOfflineShopItemTable>,std::_Vector_val<std::_Simple_types<SOfflineShopItemTable> >,1>::_Compressed_pair<std::allocator<SOfflineShopItemTable>,std::_Vector_val<std::_Simple_types<SOfflineShopItemTable> >,1><>
PUBLIC	??$_Emplace_one_at_back@ABUSOfflineShopItemTable@@@?$vector@USOfflineShopItemTable@@V?$allocator@USOfflineShopItemTable@@@std@@@std@@AAEAAUSOfflineShopItemTable@@ABU2@@Z ; std::vector<SOfflineShopItemTable,std::allocator<SOfflineShopItemTable> >::_Emplace_one_at_back<SOfflineShopItemTable const &>
PUBLIC	??$_Reallocate@$0A@@?$vector@USOfflineShopItemTable@@V?$allocator@USOfflineShopItemTable@@@std@@@std@@AAEXAAI@Z ; std::vector<SOfflineShopItemTable,std::allocator<SOfflineShopItemTable> >::_Reallocate<0>
PUBLIC	??$addressof@V?$_Vector_val@U?$_Simple_types@USOfflineShopItemTable@@@std@@@std@@@std@@YAPAV?$_Vector_val@U?$_Simple_types@USOfflineShopItemTable@@@std@@@0@AAV10@@Z ; std::addressof<std::_Vector_val<std::_Simple_types<SOfflineShopItemTable> > >
PUBLIC	??$?0$$V@?$_Compressed_pair@V?$allocator@USShopItemTable@@@std@@V?$_Vector_val@U?$_Simple_types@USShopItemTable@@@std@@@2@$00@std@@QAE@U_Zero_then_variadic_args_t@1@@Z ; std::_Compressed_pair<std::allocator<SShopItemTable>,std::_Vector_val<std::_Simple_types<SShopItemTable> >,1>::_Compressed_pair<std::allocator<SShopItemTable>,std::_Vector_val<std::_Simple_types<SShopItemTable> >,1><>
PUBLIC	??$_Emplace_one_at_back@ABUSShopItemTable@@@?$vector@USShopItemTable@@V?$allocator@USShopItemTable@@@std@@@std@@AAEAAUSShopItemTable@@ABU2@@Z ; std::vector<SShopItemTable,std::allocator<SShopItemTable> >::_Emplace_one_at_back<SShopItemTable const &>
PUBLIC	??$_Reallocate@$0A@@?$vector@USShopItemTable@@V?$allocator@USShopItemTable@@@std@@@std@@AAEXAAI@Z ; std::vector<SShopItemTable,std::allocator<SShopItemTable> >::_Reallocate<0>
PUBLIC	??$addressof@V?$_Vector_val@U?$_Simple_types@USShopItemTable@@@std@@@std@@@std@@YAPAV?$_Vector_val@U?$_Simple_types@USShopItemTable@@@std@@@0@AAV10@@Z ; std::addressof<std::_Vector_val<std::_Simple_types<SShopItemTable> > >
PUBLIC	??$_Sort_unchecked@PAUSOfflineShopItemTable@@UOfflineShopItemStockSortFunc@@@std@@YAXPAUSOfflineShopItemTable@@0HUOfflineShopItemStockSortFunc@@@Z ; std::_Sort_unchecked<SOfflineShopItemTable *,OfflineShopItemStockSortFunc>
PUBLIC	??$_Adl_verify_range@V?$_Vector_iterator@V?$_Vector_val@U?$_Simple_types@USOfflineShopItemTable@@@std@@@std@@@std@@V12@@std@@YAXABV?$_Vector_iterator@V?$_Vector_val@U?$_Simple_types@USOfflineShopItemTable@@@std@@@std@@@0@0@Z ; std::_Adl_verify_range<std::_Vector_iterator<std::_Vector_val<std::_Simple_types<SOfflineShopItemTable> > >,std::_Vector_iterator<std::_Vector_val<std::_Simple_types<SOfflineShopItemTable> > > >
PUBLIC	??$emplace@U?$pair@USItemPos@@USOfflineShopItemTable@@@std@@@?$_Tree@V?$_Tmap_traits@USItemPos@@USOfflineShopItemTable@@U?$less@USItemPos@@@std@@V?$allocator@U?$pair@$$CBUSItemPos@@USOfflineShopItemTable@@@std@@@4@$0A@@std@@@std@@QAE?AU?$pair@V?$_Tree_iterator@V?$_Tree_val@U?$_Tree_simple_types@U?$pair@$$CBUSItemPos@@USOfflineShopItemTable@@@std@@@std@@@std@@@std@@_N@1@$$QAU?$pair@USItemPos@@USOfflineShopItemTable@@@1@@Z ; std::_Tree<std::_Tmap_traits<SItemPos,SOfflineShopItemTable,std::less<SItemPos>,std::allocator<std::pair<SItemPos const ,SOfflineShopItemTable> >,0> >::emplace<std::pair<SItemPos,SOfflineShopItemTable> >
PUBLIC	??$forward@U?$pair@USItemPos@@USOfflineShopItemTable@@@std@@@std@@YA$$QAU?$pair@USItemPos@@USOfflineShopItemTable@@@0@AAU10@@Z ; std::forward<std::pair<SItemPos,SOfflineShopItemTable> >
PUBLIC	??$?0AAUSItemPos@@AAUSOfflineShopItemTable@@$0A@@?$pair@USItemPos@@USOfflineShopItemTable@@@std@@QAE@AAUSItemPos@@AAUSOfflineShopItemTable@@@Z ; std::pair<SItemPos,SOfflineShopItemTable>::pair<SItemPos,SOfflineShopItemTable><SItemPos &,SOfflineShopItemTable &,0>
PUBLIC	??$forward@AAUSOfflineShopItemTable@@@std@@YAAAUSOfflineShopItemTable@@AAU1@@Z ; std::forward<SOfflineShopItemTable &>
PUBLIC	??$_Sort_unchecked@PAUSShopItemTable@@UItemStockSortFunc@@@std@@YAXPAUSShopItemTable@@0HUItemStockSortFunc@@@Z ; std::_Sort_unchecked<SShopItemTable *,ItemStockSortFunc>
PUBLIC	??$_Adl_verify_range@V?$_Vector_iterator@V?$_Vector_val@U?$_Simple_types@USShopItemTable@@@std@@@std@@@std@@V12@@std@@YAXABV?$_Vector_iterator@V?$_Vector_val@U?$_Simple_types@USShopItemTable@@@std@@@std@@@0@0@Z ; std::_Adl_verify_range<std::_Vector_iterator<std::_Vector_val<std::_Simple_types<SShopItemTable> > >,std::_Vector_iterator<std::_Vector_val<std::_Simple_types<SShopItemTable> > > >
PUBLIC	??$emplace@U?$pair@USItemPos@@USShopItemTable@@@std@@@?$_Tree@V?$_Tmap_traits@USItemPos@@USShopItemTable@@U?$less@USItemPos@@@std@@V?$allocator@U?$pair@$$CBUSItemPos@@USShopItemTable@@@std@@@4@$0A@@std@@@std@@QAE?AU?$pair@V?$_Tree_iterator@V?$_Tree_val@U?$_Tree_simple_types@U?$pair@$$CBUSItemPos@@USShopItemTable@@@std@@@std@@@std@@@std@@_N@1@$$QAU?$pair@USItemPos@@USShopItemTable@@@1@@Z ; std::_Tree<std::_Tmap_traits<SItemPos,SShopItemTable,std::less<SItemPos>,std::allocator<std::pair<SItemPos const ,SShopItemTable> >,0> >::emplace<std::pair<SItemPos,SShopItemTable> >
PUBLIC	??$forward@U?$pair@USItemPos@@USShopItemTable@@@std@@@std@@YA$$QAU?$pair@USItemPos@@USShopItemTable@@@0@AAU10@@Z ; std::forward<std::pair<SItemPos,SShopItemTable> >
PUBLIC	??$?0AAUSItemPos@@AAUSShopItemTable@@$0A@@?$pair@USItemPos@@USShopItemTable@@@std@@QAE@AAUSItemPos@@AAUSShopItemTable@@@Z ; std::pair<SItemPos,SShopItemTable>::pair<SItemPos,SShopItemTable><SItemPos &,SShopItemTable &,0>
PUBLIC	??$forward@AAUSShopItemTable@@@std@@YAAAUSShopItemTable@@AAU1@@Z ; std::forward<SShopItemTable &>
PUBLIC	??$forward@AAUSItemPos@@@std@@YAAAUSItemPos@@AAU1@@Z ; std::forward<SItemPos &>
PUBLIC	??$_Eqrange@USItemPos@@@?$_Tree@V?$_Tmap_traits@USItemPos@@USOfflineShopItemTable@@U?$less@USItemPos@@@std@@V?$allocator@U?$pair@$$CBUSItemPos@@USOfflineShopItemTable@@@std@@@4@$0A@@std@@@std@@IBE?AU?$pair@PAU?$_Tree_node@U?$pair@$$CBUSItemPos@@USOfflineShopItemTable@@@std@@PAX@std@@PAU12@@1@ABUSItemPos@@@Z ; std::_Tree<std::_Tmap_traits<SItemPos,SOfflineShopItemTable,std::less<SItemPos>,std::allocator<std::pair<SItemPos const ,SOfflineShopItemTable> >,0> >::_Eqrange<SItemPos>
PUBLIC	??$_Eqrange@USItemPos@@@?$_Tree@V?$_Tmap_traits@USItemPos@@USShopItemTable@@U?$less@USItemPos@@@std@@V?$allocator@U?$pair@$$CBUSItemPos@@USShopItemTable@@@std@@@4@$0A@@std@@@std@@IBE?AU?$pair@PAU?$_Tree_node@U?$pair@$$CBUSItemPos@@USShopItemTable@@@std@@PAX@std@@PAU12@@1@ABUSItemPos@@@Z ; std::_Tree<std::_Tmap_traits<SItemPos,SShopItemTable,std::less<SItemPos>,std::allocator<std::pair<SItemPos const ,SShopItemTable> >,0> >::_Eqrange<SItemPos>
PUBLIC	??0?$_Tree_const_iterator@V?$_Tree_val@U?$_Tree_simple_types@U?$pair@$$CBUSItemPos@@USOfflineShopItemTable@@@std@@@std@@@std@@@std@@QAE@PAU?$_Tree_node@U?$pair@$$CBUSItemPos@@USOfflineShopItemTable@@@std@@PAX@1@PBV?$_Tree_val@U?$_Tree_simple_types@U?$pair@$$CBUSItemPos@@USOfflineShopItemTable@@@std@@@std@@@1@@Z ; std::_Tree_const_iterator<std::_Tree_val<std::_Tree_simple_types<std::pair<SItemPos const ,SOfflineShopItemTable> > > >::_Tree_const_iterator<std::_Tree_val<std::_Tree_simple_types<std::pair<SItemPos const ,SOfflineShopItemTable> > > >
PUBLIC	??0?$_Tree_const_iterator@V?$_Tree_val@U?$_Tree_simple_types@U?$pair@$$CBUSItemPos@@USShopItemTable@@@std@@@std@@@std@@@std@@QAE@PAU?$_Tree_node@U?$pair@$$CBUSItemPos@@USShopItemTable@@@std@@PAX@1@PBV?$_Tree_val@U?$_Tree_simple_types@U?$pair@$$CBUSItemPos@@USShopItemTable@@@std@@@std@@@1@@Z ; std::_Tree_const_iterator<std::_Tree_val<std::_Tree_simple_types<std::pair<SItemPos const ,SShopItemTable> > > >::_Tree_const_iterator<std::_Tree_val<std::_Tree_simple_types<std::pair<SItemPos const ,SShopItemTable> > > >
PUBLIC	??_G?$CSingleton@VCPythonShop@@@@UAEPAXI@Z	; CSingleton<CPythonShop>::`scalar deleting destructor'
PUBLIC	??0?$_Tree_iterator@V?$_Tree_val@U?$_Tree_simple_types@U?$pair@$$CBUSItemPos@@USOfflineShopItemTable@@@std@@@std@@@std@@@std@@QAE@PAU?$_Tree_node@U?$pair@$$CBUSItemPos@@USOfflineShopItemTable@@@std@@PAX@1@PBV?$_Tree_val@U?$_Tree_simple_types@U?$pair@$$CBUSItemPos@@USOfflineShopItemTable@@@std@@@std@@@1@@Z ; std::_Tree_iterator<std::_Tree_val<std::_Tree_simple_types<std::pair<SItemPos const ,SOfflineShopItemTable> > > >::_Tree_iterator<std::_Tree_val<std::_Tree_simple_types<std::pair<SItemPos const ,SOfflineShopItemTable> > > >
PUBLIC	??0?$_Tree_iterator@V?$_Tree_val@U?$_Tree_simple_types@U?$pair@$$CBUSItemPos@@USShopItemTable@@@std@@@std@@@std@@@std@@QAE@PAU?$_Tree_node@U?$pair@$$CBUSItemPos@@USShopItemTable@@@std@@PAX@1@PBV?$_Tree_val@U?$_Tree_simple_types@U?$pair@$$CBUSItemPos@@USShopItemTable@@@std@@@std@@@1@@Z ; std::_Tree_iterator<std::_Tree_val<std::_Tree_simple_types<std::pair<SItemPos const ,SShopItemTable> > > >::_Tree_iterator<std::_Tree_val<std::_Tree_simple_types<std::pair<SItemPos const ,SShopItemTable> > > >
PUBLIC	??0?$CSingleton@VCPythonShop@@@@QAE@XZ		; CSingleton<CPythonShop>::CSingleton<CPythonShop>
PUBLIC	??1?$CSingleton@VCPythonShop@@@@UAE@XZ		; CSingleton<CPythonShop>::~CSingleton<CPythonShop>
PUBLIC	??0?$map@USItemPos@@USOfflineShopItemTable@@U?$less@USItemPos@@@std@@V?$allocator@U?$pair@$$CBUSItemPos@@USOfflineShopItemTable@@@std@@@4@@std@@QAE@XZ ; std::map<SItemPos,SOfflineShopItemTable,std::less<SItemPos>,std::allocator<std::pair<SItemPos const ,SOfflineShopItemTable> > >::map<SItemPos,SOfflineShopItemTable,std::less<SItemPos>,std::allocator<std::pair<SItemPos const ,SOfflineShopItemTable> > >
PUBLIC	??1?$_Tree@V?$_Tmap_traits@USItemPos@@USOfflineShopItemTable@@U?$less@USItemPos@@@std@@V?$allocator@U?$pair@$$CBUSItemPos@@USOfflineShopItemTable@@@std@@@4@$0A@@std@@@std@@QAE@XZ ; std::_Tree<std::_Tmap_traits<SItemPos,SOfflineShopItemTable,std::less<SItemPos>,std::allocator<std::pair<SItemPos const ,SOfflineShopItemTable> >,0> >::~_Tree<std::_Tmap_traits<SItemPos,SOfflineShopItemTable,std::less<SItemPos>,std::allocator<std::pair<SItemPos const ,SOfflineShopItemTable> >,0> >
PUBLIC	?begin@?$_Tree@V?$_Tmap_traits@USItemPos@@USOfflineShopItemTable@@U?$less@USItemPos@@@std@@V?$allocator@U?$pair@$$CBUSItemPos@@USOfflineShopItemTable@@@std@@@4@$0A@@std@@@std@@QAE?AV?$_Tree_iterator@V?$_Tree_val@U?$_Tree_simple_types@U?$pair@$$CBUSItemPos@@USOfflineShopItemTable@@@std@@@std@@@std@@@2@XZ ; std::_Tree<std::_Tmap_traits<SItemPos,SOfflineShopItemTable,std::less<SItemPos>,std::allocator<std::pair<SItemPos const ,SOfflineShopItemTable> >,0> >::begin
PUBLIC	?end@?$_Tree@V?$_Tmap_traits@USItemPos@@USOfflineShopItemTable@@U?$less@USItemPos@@@std@@V?$allocator@U?$pair@$$CBUSItemPos@@USOfflineShopItemTable@@@std@@@4@$0A@@std@@@std@@QAE?AV?$_Tree_iterator@V?$_Tree_val@U?$_Tree_simple_types@U?$pair@$$CBUSItemPos@@USOfflineShopItemTable@@@std@@@std@@@std@@@2@XZ ; std::_Tree<std::_Tmap_traits<SItemPos,SOfflineShopItemTable,std::less<SItemPos>,std::allocator<std::pair<SItemPos const ,SOfflineShopItemTable> >,0> >::end
PUBLIC	?size@?$_Tree@V?$_Tmap_traits@USItemPos@@USOfflineShopItemTable@@U?$less@USItemPos@@@std@@V?$allocator@U?$pair@$$CBUSItemPos@@USOfflineShopItemTable@@@std@@@4@$0A@@std@@@std@@QBEIXZ ; std::_Tree<std::_Tmap_traits<SItemPos,SOfflineShopItemTable,std::less<SItemPos>,std::allocator<std::pair<SItemPos const ,SOfflineShopItemTable> >,0> >::size
PUBLIC	?erase@?$_Tree@V?$_Tmap_traits@USItemPos@@USOfflineShopItemTable@@U?$less@USItemPos@@@std@@V?$allocator@U?$pair@$$CBUSItemPos@@USOfflineShopItemTable@@@std@@@4@$0A@@std@@@std@@QAEIABUSItemPos@@@Z ; std::_Tree<std::_Tmap_traits<SItemPos,SOfflineShopItemTable,std::less<SItemPos>,std::allocator<std::pair<SItemPos const ,SOfflineShopItemTable> >,0> >::erase
PUBLIC	?clear@?$_Tree@V?$_Tmap_traits@USItemPos@@USOfflineShopItemTable@@U?$less@USItemPos@@@std@@V?$allocator@U?$pair@$$CBUSItemPos@@USOfflineShopItemTable@@@std@@@4@$0A@@std@@@std@@QAEXXZ ; std::_Tree<std::_Tmap_traits<SItemPos,SOfflineShopItemTable,std::less<SItemPos>,std::allocator<std::pair<SItemPos const ,SOfflineShopItemTable> >,0> >::clear
PUBLIC	?find@?$_Tree@V?$_Tmap_traits@USItemPos@@USOfflineShopItemTable@@U?$less@USItemPos@@@std@@V?$allocator@U?$pair@$$CBUSItemPos@@USOfflineShopItemTable@@@std@@@4@$0A@@std@@@std@@QAE?AV?$_Tree_iterator@V?$_Tree_val@U?$_Tree_simple_types@U?$pair@$$CBUSItemPos@@USOfflineShopItemTable@@@std@@@std@@@std@@@2@ABUSItemPos@@@Z ; std::_Tree<std::_Tmap_traits<SItemPos,SOfflineShopItemTable,std::less<SItemPos>,std::allocator<std::pair<SItemPos const ,SOfflineShopItemTable> >,0> >::find
PUBLIC	??8?$_Tree_const_iterator@V?$_Tree_val@U?$_Tree_simple_types@U?$pair@$$CBUSItemPos@@USOfflineShopItemTable@@@std@@@std@@@std@@@std@@QBE_NABV01@@Z ; std::_Tree_const_iterator<std::_Tree_val<std::_Tree_simple_types<std::pair<SItemPos const ,SOfflineShopItemTable> > > >::operator==
PUBLIC	??C?$_Tree_iterator@V?$_Tree_val@U?$_Tree_simple_types@U?$pair@$$CBUSItemPos@@USOfflineShopItemTable@@@std@@@std@@@std@@@std@@QBEPAU?$pair@$$CBUSItemPos@@USOfflineShopItemTable@@@1@XZ ; std::_Tree_iterator<std::_Tree_val<std::_Tree_simple_types<std::pair<SItemPos const ,SOfflineShopItemTable> > > >::operator->
PUBLIC	??E?$_Tree_iterator@V?$_Tree_val@U?$_Tree_simple_types@U?$pair@$$CBUSItemPos@@USOfflineShopItemTable@@@std@@@std@@@std@@@std@@QAEAAV01@XZ ; std::_Tree_iterator<std::_Tree_val<std::_Tree_simple_types<std::pair<SItemPos const ,SOfflineShopItemTable> > > >::operator++
PUBLIC	??0?$map@USItemPos@@USShopItemTable@@U?$less@USItemPos@@@std@@V?$allocator@U?$pair@$$CBUSItemPos@@USShopItemTable@@@std@@@4@@std@@QAE@XZ ; std::map<SItemPos,SShopItemTable,std::less<SItemPos>,std::allocator<std::pair<SItemPos const ,SShopItemTable> > >::map<SItemPos,SShopItemTable,std::less<SItemPos>,std::allocator<std::pair<SItemPos const ,SShopItemTable> > >
PUBLIC	??1?$_Tree@V?$_Tmap_traits@USItemPos@@USShopItemTable@@U?$less@USItemPos@@@std@@V?$allocator@U?$pair@$$CBUSItemPos@@USShopItemTable@@@std@@@4@$0A@@std@@@std@@QAE@XZ ; std::_Tree<std::_Tmap_traits<SItemPos,SShopItemTable,std::less<SItemPos>,std::allocator<std::pair<SItemPos const ,SShopItemTable> >,0> >::~_Tree<std::_Tmap_traits<SItemPos,SShopItemTable,std::less<SItemPos>,std::allocator<std::pair<SItemPos const ,SShopItemTable> >,0> >
PUBLIC	?begin@?$_Tree@V?$_Tmap_traits@USItemPos@@USShopItemTable@@U?$less@USItemPos@@@std@@V?$allocator@U?$pair@$$CBUSItemPos@@USShopItemTable@@@std@@@4@$0A@@std@@@std@@QAE?AV?$_Tree_iterator@V?$_Tree_val@U?$_Tree_simple_types@U?$pair@$$CBUSItemPos@@USShopItemTable@@@std@@@std@@@std@@@2@XZ ; std::_Tree<std::_Tmap_traits<SItemPos,SShopItemTable,std::less<SItemPos>,std::allocator<std::pair<SItemPos const ,SShopItemTable> >,0> >::begin
PUBLIC	?end@?$_Tree@V?$_Tmap_traits@USItemPos@@USShopItemTable@@U?$less@USItemPos@@@std@@V?$allocator@U?$pair@$$CBUSItemPos@@USShopItemTable@@@std@@@4@$0A@@std@@@std@@QAE?AV?$_Tree_iterator@V?$_Tree_val@U?$_Tree_simple_types@U?$pair@$$CBUSItemPos@@USShopItemTable@@@std@@@std@@@std@@@2@XZ ; std::_Tree<std::_Tmap_traits<SItemPos,SShopItemTable,std::less<SItemPos>,std::allocator<std::pair<SItemPos const ,SShopItemTable> >,0> >::end
PUBLIC	?size@?$_Tree@V?$_Tmap_traits@USItemPos@@USShopItemTable@@U?$less@USItemPos@@@std@@V?$allocator@U?$pair@$$CBUSItemPos@@USShopItemTable@@@std@@@4@$0A@@std@@@std@@QBEIXZ ; std::_Tree<std::_Tmap_traits<SItemPos,SShopItemTable,std::less<SItemPos>,std::allocator<std::pair<SItemPos const ,SShopItemTable> >,0> >::size
PUBLIC	?erase@?$_Tree@V?$_Tmap_traits@USItemPos@@USShopItemTable@@U?$less@USItemPos@@@std@@V?$allocator@U?$pair@$$CBUSItemPos@@USShopItemTable@@@std@@@4@$0A@@std@@@std@@QAEIABUSItemPos@@@Z ; std::_Tree<std::_Tmap_traits<SItemPos,SShopItemTable,std::less<SItemPos>,std::allocator<std::pair<SItemPos const ,SShopItemTable> >,0> >::erase
PUBLIC	?clear@?$_Tree@V?$_Tmap_traits@USItemPos@@USShopItemTable@@U?$less@USItemPos@@@std@@V?$allocator@U?$pair@$$CBUSItemPos@@USShopItemTable@@@std@@@4@$0A@@std@@@std@@QAEXXZ ; std::_Tree<std::_Tmap_traits<SItemPos,SShopItemTable,std::less<SItemPos>,std::allocator<std::pair<SItemPos const ,SShopItemTable> >,0> >::clear
PUBLIC	?find@?$_Tree@V?$_Tmap_traits@USItemPos@@USShopItemTable@@U?$less@USItemPos@@@std@@V?$allocator@U?$pair@$$CBUSItemPos@@USShopItemTable@@@std@@@4@$0A@@std@@@std@@QAE?AV?$_Tree_iterator@V?$_Tree_val@U?$_Tree_simple_types@U?$pair@$$CBUSItemPos@@USShopItemTable@@@std@@@std@@@std@@@2@ABUSItemPos@@@Z ; std::_Tree<std::_Tmap_traits<SItemPos,SShopItemTable,std::less<SItemPos>,std::allocator<std::pair<SItemPos const ,SShopItemTable> >,0> >::find
PUBLIC	??8?$_Tree_const_iterator@V?$_Tree_val@U?$_Tree_simple_types@U?$pair@$$CBUSItemPos@@USShopItemTable@@@std@@@std@@@std@@@std@@QBE_NABV01@@Z ; std::_Tree_const_iterator<std::_Tree_val<std::_Tree_simple_types<std::pair<SItemPos const ,SShopItemTable> > > >::operator==
PUBLIC	??C?$_Tree_iterator@V?$_Tree_val@U?$_Tree_simple_types@U?$pair@$$CBUSItemPos@@USShopItemTable@@@std@@@std@@@std@@@std@@QBEPAU?$pair@$$CBUSItemPos@@USShopItemTable@@@1@XZ ; std::_Tree_iterator<std::_Tree_val<std::_Tree_simple_types<std::pair<SItemPos const ,SShopItemTable> > > >::operator->
PUBLIC	??E?$_Tree_iterator@V?$_Tree_val@U?$_Tree_simple_types@U?$pair@$$CBUSItemPos@@USShopItemTable@@@std@@@std@@@std@@@std@@QAEAAV01@XZ ; std::_Tree_iterator<std::_Tree_val<std::_Tree_simple_types<std::pair<SItemPos const ,SShopItemTable> > > >::operator++
PUBLIC	??0?$vector@USOfflineShopItemTable@@V?$allocator@USOfflineShopItemTable@@@std@@@std@@QAE@XZ ; std::vector<SOfflineShopItemTable,std::allocator<SOfflineShopItemTable> >::vector<SOfflineShopItemTable,std::allocator<SOfflineShopItemTable> >
PUBLIC	??1?$vector@USOfflineShopItemTable@@V?$allocator@USOfflineShopItemTable@@@std@@@std@@QAE@XZ ; std::vector<SOfflineShopItemTable,std::allocator<SOfflineShopItemTable> >::~vector<SOfflineShopItemTable,std::allocator<SOfflineShopItemTable> >
PUBLIC	?push_back@?$vector@USOfflineShopItemTable@@V?$allocator@USOfflineShopItemTable@@@std@@@std@@QAEXABUSOfflineShopItemTable@@@Z ; std::vector<SOfflineShopItemTable,std::allocator<SOfflineShopItemTable> >::push_back
PUBLIC	?reserve@?$vector@USOfflineShopItemTable@@V?$allocator@USOfflineShopItemTable@@@std@@@std@@QAEXI@Z ; std::vector<SOfflineShopItemTable,std::allocator<SOfflineShopItemTable> >::reserve
PUBLIC	?begin@?$vector@USOfflineShopItemTable@@V?$allocator@USOfflineShopItemTable@@@std@@@std@@QAE?AV?$_Vector_iterator@V?$_Vector_val@U?$_Simple_types@USOfflineShopItemTable@@@std@@@std@@@2@XZ ; std::vector<SOfflineShopItemTable,std::allocator<SOfflineShopItemTable> >::begin
PUBLIC	??0?$_Vector_iterator@V?$_Vector_val@U?$_Simple_types@USOfflineShopItemTable@@@std@@@std@@@std@@QAE@PAUSOfflineShopItemTable@@PBU_Container_base0@1@@Z ; std::_Vector_iterator<std::_Vector_val<std::_Simple_types<SOfflineShopItemTable> > >::_Vector_iterator<std::_Vector_val<std::_Simple_types<SOfflineShopItemTable> > >
PUBLIC	?end@?$vector@USOfflineShopItemTable@@V?$allocator@USOfflineShopItemTable@@@std@@@std@@QAE?AV?$_Vector_iterator@V?$_Vector_val@U?$_Simple_types@USOfflineShopItemTable@@@std@@@std@@@2@XZ ; std::vector<SOfflineShopItemTable,std::allocator<SOfflineShopItemTable> >::end
PUBLIC	??0?$vector@USShopItemTable@@V?$allocator@USShopItemTable@@@std@@@std@@QAE@XZ ; std::vector<SShopItemTable,std::allocator<SShopItemTable> >::vector<SShopItemTable,std::allocator<SShopItemTable> >
PUBLIC	??1?$vector@USShopItemTable@@V?$allocator@USShopItemTable@@@std@@@std@@QAE@XZ ; std::vector<SShopItemTable,std::allocator<SShopItemTable> >::~vector<SShopItemTable,std::allocator<SShopItemTable> >
PUBLIC	?push_back@?$vector@USShopItemTable@@V?$allocator@USShopItemTable@@@std@@@std@@QAEXABUSShopItemTable@@@Z ; std::vector<SShopItemTable,std::allocator<SShopItemTable> >::push_back
PUBLIC	?reserve@?$vector@USShopItemTable@@V?$allocator@USShopItemTable@@@std@@@std@@QAEXI@Z ; std::vector<SShopItemTable,std::allocator<SShopItemTable> >::reserve
PUBLIC	?begin@?$vector@USShopItemTable@@V?$allocator@USShopItemTable@@@std@@@std@@QAE?AV?$_Vector_iterator@V?$_Vector_val@U?$_Simple_types@USShopItemTable@@@std@@@std@@@2@XZ ; std::vector<SShopItemTable,std::allocator<SShopItemTable> >::begin
PUBLIC	??0?$_Vector_iterator@V?$_Vector_val@U?$_Simple_types@USShopItemTable@@@std@@@std@@@std@@QAE@PAUSShopItemTable@@PBU_Container_base0@1@@Z ; std::_Vector_iterator<std::_Vector_val<std::_Simple_types<SShopItemTable> > >::_Vector_iterator<std::_Vector_val<std::_Simple_types<SShopItemTable> > >
PUBLIC	?end@?$vector@USShopItemTable@@V?$allocator@USShopItemTable@@@std@@@std@@QAE?AV?$_Vector_iterator@V?$_Vector_val@U?$_Simple_types@USShopItemTable@@@std@@@std@@@2@XZ ; std::vector<SShopItemTable,std::allocator<SShopItemTable> >::end
PUBLIC	??$_Pass_fn@UOfflineShopItemStockSortFunc@@@std@@YA?A_PAAUOfflineShopItemStockSortFunc@@@Z ; std::_Pass_fn<OfflineShopItemStockSortFunc>
PUBLIC	?_Unwrapped@?$_Vector_iterator@V?$_Vector_val@U?$_Simple_types@USOfflineShopItemTable@@@std@@@std@@@std@@QBEPAUSOfflineShopItemTable@@XZ ; std::_Vector_iterator<std::_Vector_val<std::_Simple_types<SOfflineShopItemTable> > >::_Unwrapped
PUBLIC	??$_Get_unwrapped@ABV?$_Vector_iterator@V?$_Vector_val@U?$_Simple_types@USOfflineShopItemTable@@@std@@@std@@@std@@@std@@YA?A_TABV?$_Vector_iterator@V?$_Vector_val@U?$_Simple_types@USOfflineShopItemTable@@@std@@@std@@@0@@Z ; std::_Get_unwrapped<std::_Vector_iterator<std::_Vector_val<std::_Simple_types<SOfflineShopItemTable> > > const &>
PUBLIC	??$sort@V?$_Vector_iterator@V?$_Vector_val@U?$_Simple_types@USOfflineShopItemTable@@@std@@@std@@@std@@UOfflineShopItemStockSortFunc@@@std@@YAXV?$_Vector_iterator@V?$_Vector_val@U?$_Simple_types@USOfflineShopItemTable@@@std@@@std@@@0@0UOfflineShopItemStockSortFunc@@@Z ; std::sort<std::_Vector_iterator<std::_Vector_val<std::_Simple_types<SOfflineShopItemTable> > >,OfflineShopItemStockSortFunc>
PUBLIC	??$insert@U?$pair@USItemPos@@USOfflineShopItemTable@@@std@@$0A@@?$map@USItemPos@@USOfflineShopItemTable@@U?$less@USItemPos@@@std@@V?$allocator@U?$pair@$$CBUSItemPos@@USOfflineShopItemTable@@@std@@@4@@std@@QAE?AU?$pair@V?$_Tree_iterator@V?$_Tree_val@U?$_Tree_simple_types@U?$pair@$$CBUSItemPos@@USOfflineShopItemTable@@@std@@@std@@@std@@@std@@_N@1@$$QAU?$pair@USItemPos@@USOfflineShopItemTable@@@1@@Z ; std::map<SItemPos,SOfflineShopItemTable,std::less<SItemPos>,std::allocator<std::pair<SItemPos const ,SOfflineShopItemTable> > >::insert<std::pair<SItemPos,SOfflineShopItemTable>,0>
PUBLIC	??$make_pair@AAUSItemPos@@AAUSOfflineShopItemTable@@@std@@YA?AU?$pair@USItemPos@@USOfflineShopItemTable@@@0@AAUSItemPos@@AAUSOfflineShopItemTable@@@Z ; std::make_pair<SItemPos &,SOfflineShopItemTable &>
PUBLIC	??$_Pass_fn@UItemStockSortFunc@@@std@@YA?A_PAAUItemStockSortFunc@@@Z ; std::_Pass_fn<ItemStockSortFunc>
PUBLIC	?_Unwrapped@?$_Vector_iterator@V?$_Vector_val@U?$_Simple_types@USShopItemTable@@@std@@@std@@@std@@QBEPAUSShopItemTable@@XZ ; std::_Vector_iterator<std::_Vector_val<std::_Simple_types<SShopItemTable> > >::_Unwrapped
PUBLIC	??$_Get_unwrapped@ABV?$_Vector_iterator@V?$_Vector_val@U?$_Simple_types@USShopItemTable@@@std@@@std@@@std@@@std@@YA?A_TABV?$_Vector_iterator@V?$_Vector_val@U?$_Simple_types@USShopItemTable@@@std@@@std@@@0@@Z ; std::_Get_unwrapped<std::_Vector_iterator<std::_Vector_val<std::_Simple_types<SShopItemTable> > > const &>
PUBLIC	??$sort@V?$_Vector_iterator@V?$_Vector_val@U?$_Simple_types@USShopItemTable@@@std@@@std@@@std@@UItemStockSortFunc@@@std@@YAXV?$_Vector_iterator@V?$_Vector_val@U?$_Simple_types@USShopItemTable@@@std@@@std@@@0@0UItemStockSortFunc@@@Z ; std::sort<std::_Vector_iterator<std::_Vector_val<std::_Simple_types<SShopItemTable> > >,ItemStockSortFunc>
PUBLIC	??$insert@U?$pair@USItemPos@@USShopItemTable@@@std@@$0A@@?$map@USItemPos@@USShopItemTable@@U?$less@USItemPos@@@std@@V?$allocator@U?$pair@$$CBUSItemPos@@USShopItemTable@@@std@@@4@@std@@QAE?AU?$pair@V?$_Tree_iterator@V?$_Tree_val@U?$_Tree_simple_types@U?$pair@$$CBUSItemPos@@USShopItemTable@@@std@@@std@@@std@@@std@@_N@1@$$QAU?$pair@USItemPos@@USShopItemTable@@@1@@Z ; std::map<SItemPos,SShopItemTable,std::less<SItemPos>,std::allocator<std::pair<SItemPos const ,SShopItemTable> > >::insert<std::pair<SItemPos,SShopItemTable>,0>
PUBLIC	??$make_pair@AAUSItemPos@@AAUSShopItemTable@@@std@@YA?AU?$pair@USItemPos@@USShopItemTable@@@0@AAUSItemPos@@AAUSShopItemTable@@@Z ; std::make_pair<SItemPos &,SShopItemTable &>
PUBLIC	?initshop@@YAXXZ				; initshop
PUBLIC	?shopGetItemChangeLookVnum@@YAPAU_object@@PAU1@0@Z ; shopGetItemChangeLookVnum
PUBLIC	?shopSetShopTime@@YAPAU_object@@PAU1@0@Z	; shopSetShopTime
PUBLIC	?shopGetShopTime@@YAPAU_object@@PAU1@0@Z	; shopGetShopTime
PUBLIC	?shopSetShopType@@YAPAU_object@@PAU1@0@Z	; shopSetShopType
PUBLIC	?shopGetShopType@@YAPAU_object@@PAU1@0@Z	; shopGetShopType
PUBLIC	?shopSetShopFlag@@YAPAU_object@@PAU1@0@Z	; shopSetShopFlag
PUBLIC	?shopGetShopFlag@@YAPAU_object@@PAU1@0@Z	; shopGetShopFlag
PUBLIC	?shopGetRealWatcherCount@@YAPAU_object@@PAU1@0@Z ; shopGetRealWatcherCount
PUBLIC	?shopChangeDecoration@@YAPAU_object@@PAU1@0@Z	; shopChangeDecoration
PUBLIC	?shopHasOfflineShop@@YAPAU_object@@PAU1@0@Z	; shopHasOfflineShop
PUBLIC	?shopGetCurrentOfflineShopMoney@@YAPAU_object@@PAU1@0@Z ; shopGetCurrentOfflineShopMoney
PUBLIC	?shopGetOfflineShopID@@YAPAU_object@@PAU1@0@Z	; shopGetOfflineShopID
PUBLIC	?shopGetDisplayedCount@@YAPAU_object@@PAU1@0@Z	; shopGetDisplayedCount
PUBLIC	?shopBuildOfflineShop@@YAPAU_object@@PAU1@0@Z	; shopBuildOfflineShop
PUBLIC	?shopGetOfflineShopItemGetBuyerName@@YAPAU_object@@PAU1@0@Z ; shopGetOfflineShopItemGetBuyerName
PUBLIC	?shopGetOfflineShopItemGetStatus@@YAPAU_object@@PAU1@0@Z ; shopGetOfflineShopItemGetStatus
PUBLIC	?shopGetOfflineShopItemPriceReal@@YAPAU_object@@PAU1@0@Z ; shopGetOfflineShopItemPriceReal
PUBLIC	?shopDelOfflineShopItemStock@@YAPAU_object@@PAU1@0@Z ; shopDelOfflineShopItemStock
PUBLIC	?shopAddOfflineShopItemStock@@YAPAU_object@@PAU1@0@Z ; shopAddOfflineShopItemStock
PUBLIC	?shopClearOfflineShopStock@@YAPAU_object@@PAU1@0@Z ; shopClearOfflineShopStock
PUBLIC	?shopGetOfflineShopItemAttribute@@YAPAU_object@@PAU1@0@Z ; shopGetOfflineShopItemAttribute
PUBLIC	?shopGetOfflineShopItemMetinSocket@@YAPAU_object@@PAU1@0@Z ; shopGetOfflineShopItemMetinSocket
PUBLIC	?shopGetSign@@YAPAU_object@@PAU1@0@Z		; shopGetSign
PUBLIC	?shopGetOfflineShopItemPrice@@YAPAU_object@@PAU1@0@Z ; shopGetOfflineShopItemPrice
PUBLIC	?shopGetOfflineShopItemVnum@@YAPAU_object@@PAU1@0@Z ; shopGetOfflineShopItemVnum
PUBLIC	?shopGetOfflineShopItemCount@@YAPAU_object@@PAU1@0@Z ; shopGetOfflineShopItemCount
PUBLIC	?shopGetOfflineShopItemID@@YAPAU_object@@PAU1@0@Z ; shopGetOfflineShopItemID
PUBLIC	?shopIsOfflineShop@@YAPAU_object@@PAU1@0@Z	; shopIsOfflineShop
PUBLIC	?shopGetOfflineShopItemTransmutation@@YAPAU_object@@PAU1@0@Z ; shopGetOfflineShopItemTransmutation
PUBLIC	?BuildOfflineShop@CPythonShop@@QAEXPBDKE@Z	; CPythonShop::BuildOfflineShop
PUBLIC	?GetOfflineShopItemPrice@CPythonShop@@QAE_JUSItemPos@@@Z ; CPythonShop::GetOfflineShopItemPrice
PUBLIC	?DelOfflineShopItemStock@CPythonShop@@QAEXUSItemPos@@@Z ; CPythonShop::DelOfflineShopItemStock
PUBLIC	??0SOfflineShopItemTable@@QAE@XZ		; SOfflineShopItemTable::SOfflineShopItemTable
PUBLIC	?AddOfflineShopItemStock@CPythonShop@@QAEXUSItemPos@@E_J@Z ; CPythonShop::AddOfflineShopItemStock
PUBLIC	??ROfflineShopItemStockSortFunc@@QAE_NAAUSOfflineShopItemTable@@0@Z ; OfflineShopItemStockSortFunc::operator()
PUBLIC	?GetOfflineShopItemData@CPythonShop@@QAEHEKPAPBUpacket_offline_shop_item@@@Z ; CPythonShop::GetOfflineShopItemData
PUBLIC	?GetOfflineShopItemData@CPythonShop@@QAEHKPAPBUpacket_offline_shop_item@@@Z ; CPythonShop::GetOfflineShopItemData
PUBLIC	?SetOfflineShopItemData@CPythonShop@@QAEXEKABUpacket_offline_shop_item@@@Z ; CPythonShop::SetOfflineShopItemData
PUBLIC	?shopGetItemPriceVnum@@YAPAU_object@@PAU1@0@Z	; shopGetItemPriceVnum
PUBLIC	?shopGetItemPriceType@@YAPAU_object@@PAU1@0@Z	; shopGetItemPriceType
PUBLIC	?shopGetTabCoinType@@YAPAU_object@@PAU1@0@Z	; shopGetTabCoinType
PUBLIC	?shopGetTabName@@YAPAU_object@@PAU1@0@Z		; shopGetTabName
PUBLIC	?shopGetTabCount@@YAPAU_object@@PAU1@0@Z	; shopGetTabCount
PUBLIC	?shopBuildPrivateShop@@YAPAU_object@@PAU1@0@Z	; shopBuildPrivateShop
PUBLIC	?shopGetPrivateShopItemPrice@@YAPAU_object@@PAU1@0@Z ; shopGetPrivateShopItemPrice
PUBLIC	?shopDelPrivateShopItemStock@@YAPAU_object@@PAU1@0@Z ; shopDelPrivateShopItemStock
PUBLIC	?shopAddPrivateShopItemStock@@YAPAU_object@@PAU1@0@Z ; shopAddPrivateShopItemStock
PUBLIC	?shopClearPrivateShopStock@@YAPAU_object@@PAU1@0@Z ; shopClearPrivateShopStock
PUBLIC	?shopGetItemAttribute@@YAPAU_object@@PAU1@0@Z	; shopGetItemAttribute
PUBLIC	?shopGetItemMetinSocket@@YAPAU_object@@PAU1@0@Z	; shopGetItemMetinSocket
PUBLIC	?shopGetItemPrice@@YAPAU_object@@PAU1@0@Z	; shopGetItemPrice
PUBLIC	?shopGetItemCount@@YAPAU_object@@PAU1@0@Z	; shopGetItemCount
PUBLIC	?shopGetItemID@@YAPAU_object@@PAU1@0@Z		; shopGetItemID
PUBLIC	?shopIsMainPlayerPrivateShop@@YAPAU_object@@PAU1@0@Z ; shopIsMainPlayerPrivateShop
PUBLIC	?shopIsPrviateShop@@YAPAU_object@@PAU1@0@Z	; shopIsPrviateShop
PUBLIC	?shopIsOpen@@YAPAU_object@@PAU1@0@Z		; shopIsOpen
PUBLIC	?shopClear@@YAPAU_object@@PAU1@0@Z		; shopClear
PUBLIC	?shopClose@@YAPAU_object@@PAU1@0@Z		; shopClose
PUBLIC	?shopOpen@@YAPAU_object@@PAU1@0@Z		; shopOpen
PUBLIC	??1?$map@USItemPos@@USShopItemTable@@U?$less@USItemPos@@@std@@V?$allocator@U?$pair@$$CBUSItemPos@@USShopItemTable@@@std@@@4@@std@@QAE@XZ ; std::map<SItemPos,SShopItemTable,std::less<SItemPos>,std::allocator<std::pair<SItemPos const ,SShopItemTable> > >::~map<SItemPos,SShopItemTable,std::less<SItemPos>,std::allocator<std::pair<SItemPos const ,SShopItemTable> > >
PUBLIC	??1ShopTab@CPythonShop@@QAE@XZ			; CPythonShop::ShopTab::~ShopTab
PUBLIC	??1?$map@USItemPos@@USOfflineShopItemTable@@U?$less@USItemPos@@@std@@V?$allocator@U?$pair@$$CBUSItemPos@@USOfflineShopItemTable@@@std@@@4@@std@@QAE@XZ ; std::map<SItemPos,SOfflineShopItemTable,std::less<SItemPos>,std::allocator<std::pair<SItemPos const ,SOfflineShopItemTable> > >::~map<SItemPos,SOfflineShopItemTable,std::less<SItemPos>,std::allocator<std::pair<SItemPos const ,SOfflineShopItemTable> > >
PUBLIC	??_GCPythonShop@@UAEPAXI@Z			; CPythonShop::`scalar deleting destructor'
PUBLIC	?IsMainPlayerPrivateShop@CPythonShop@@QAEHXZ	; CPythonShop::IsMainPlayerPrivateShop
PUBLIC	?IsPrivateShop@CPythonShop@@QAEHXZ		; CPythonShop::IsPrivateShop
PUBLIC	?Close@CPythonShop@@QAEXXZ			; CPythonShop::Close
PUBLIC	?Open@CPythonShop@@QAEXHH@Z			; CPythonShop::Open
PUBLIC	?BuildPrivateShop@CPythonShop@@QAEXPBD@Z	; CPythonShop::BuildPrivateShop
PUBLIC	??RItemStockSortFunc@@QAE_NAAUSShopItemTable@@0@Z ; ItemStockSortFunc::operator()
PUBLIC	?GetPrivateShopItemPrice@CPythonShop@@QAE_JUSItemPos@@@Z ; CPythonShop::GetPrivateShopItemPrice
PUBLIC	?DelPrivateShopItemStock@CPythonShop@@QAEXUSItemPos@@@Z ; CPythonShop::DelPrivateShopItemStock
PUBLIC	?AddPrivateShopItemStock@CPythonShop@@QAEXUSItemPos@@E_J@Z ; CPythonShop::AddPrivateShopItemStock
PUBLIC	?ClearPrivateShopStock@CPythonShop@@QAEXXZ	; CPythonShop::ClearPrivateShopStock
PUBLIC	?GetItemData@CPythonShop@@QAEHEKPAPBUpacket_shop_item@@@Z ; CPythonShop::GetItemData
PUBLIC	?GetItemData@CPythonShop@@QAEHKPAPBUpacket_shop_item@@@Z ; CPythonShop::GetItemData
PUBLIC	?GetTabName@CPythonShop@@QAEPBDE@Z		; CPythonShop::GetTabName
PUBLIC	?GetTabCoinType@CPythonShop@@QAEEE@Z		; CPythonShop::GetTabCoinType
PUBLIC	??0ShopTab@CPythonShop@@QAE@XZ			; CPythonShop::ShopTab::ShopTab
PUBLIC	?GetShopType@CPythonShop@@QAEKXZ		; CPythonShop::GetShopType
PUBLIC	?GetShopTime@CPythonShop@@QAEHXZ		; CPythonShop::GetShopTime
PUBLIC	?GetShopFlag@CPythonShop@@QAE_KXZ		; CPythonShop::GetShopFlag
PUBLIC	?GetRealWatcherCount@CPythonShop@@QAEKXZ	; CPythonShop::GetRealWatcherCount
PUBLIC	?HasOfflineShop@CPythonShop@@QAE_NXZ		; CPythonShop::HasOfflineShop
PUBLIC	?GetCurrentOfflineShopMoney@CPythonShop@@QAE_JXZ ; CPythonShop::GetCurrentOfflineShopMoney
PUBLIC	?ClearOfflineShopStock@CPythonShop@@QAEXXZ	; CPythonShop::ClearOfflineShopStock
PUBLIC	?IsOfflineShop@CPythonShop@@QAEHXZ		; CPythonShop::IsOfflineShop
PUBLIC	?GetShopDisplayedCount@CPythonShop@@QAEKXZ	; CPythonShop::GetShopDisplayedCount
PUBLIC	?GetShopSign@CPythonShop@@QAEPBDXZ		; CPythonShop::GetShopSign
PUBLIC	?GetTabCount@CPythonShop@@QAEEXZ		; CPythonShop::GetTabCount
PUBLIC	??0SShopItemTable@@QAE@XZ			; SShopItemTable::SShopItemTable
PUBLIC	?IsOpen@CPythonShop@@QAEHXZ			; CPythonShop::IsOpen
PUBLIC	?Clear@CPythonShop@@QAEXXZ			; CPythonShop::Clear
PUBLIC	?SetItemData@CPythonShop@@QAEXKABUpacket_shop_item@@@Z ; CPythonShop::SetItemData
PUBLIC	?SetTabCoinType@CPythonShop@@QAEXEE@Z		; CPythonShop::SetTabCoinType
PUBLIC	?SetTabName@CPythonShop@@QAEXEPBD@Z		; CPythonShop::SetTabName
PUBLIC	?SetItemData@CPythonShop@@QAEXEKABUpacket_shop_item@@@Z ; CPythonShop::SetItemData
PUBLIC	?SetOfflineShopItemData@CPythonShop@@QAEXKABUpacket_offline_shop_item@@@Z ; CPythonShop::SetOfflineShopItemData
PUBLIC	??0CPythonShop@@QAE@XZ				; CPythonShop::CPythonShop
PUBLIC	??1CPythonShop@@UAE@XZ				; CPythonShop::~CPythonShop
EXTRN	??_ECPythonShop@@UAEPAXI@Z:PROC			; CPythonShop::`vector deleting destructor'
EXTRN	??_E?$CSingleton@VCPythonShop@@@@UAEPAXI@Z:PROC	; CSingleton<CPythonShop>::`vector deleting destructor'
;	COMDAT xdata$x
xdata$x	SEGMENT
__ehfuncinfo$??1CPythonShop@@UAE@XZ DQ 00000000019930522r ; 2.11987e-315
	DQ	00000000000000000r		; 0
	DQ	00000000000000000r		; 0
	DQ	00000000000000000r		; 0
	DD	05H
xdata$x	ENDS
;	COMDAT xdata$x
xdata$x	SEGMENT
__ehfuncinfo$??0CPythonShop@@QAE@XZ DQ 00000000319930522r ; 6.57797e-314
	DD	FLAT:__unwindtable$??0CPythonShop@@QAE@XZ
	DQ	00000000000000000r		; 0
	DQ	00000000000000000r		; 0
	DQ	00000000100000000r		; 2.122e-314
__unwindtable$??0CPythonShop@@QAE@XZ DD 0ffffffffH
	DD	FLAT:__unwindfunclet$??0CPythonShop@@QAE@XZ$0
	DD	00H
	DD	FLAT:__unwindfunclet$??0CPythonShop@@QAE@XZ$1
	DD	01H
	DD	FLAT:__unwindfunclet$??0CPythonShop@@QAE@XZ$2
xdata$x	ENDS
;	COMDAT xdata$x
xdata$x	SEGMENT
__ehfuncinfo$?AddPrivateShopItemStock@CPythonShop@@QAEXUSItemPos@@E_J@Z DQ 00000000119930522r ; 2.33398e-314
	DD	FLAT:__unwindtable$?AddPrivateShopItemStock@CPythonShop@@QAEXUSItemPos@@E_J@Z
	DQ	00000000000000000r		; 0
	DQ	00000000000000000r		; 0
	DQ	00000000100000000r		; 2.122e-314
__unwindtable$?AddPrivateShopItemStock@CPythonShop@@QAEXUSItemPos@@E_J@Z DD 0ffffffffH
	DD	FLAT:__unwindfunclet$?AddPrivateShopItemStock@CPythonShop@@QAEXUSItemPos@@E_J@Z$2
xdata$x	ENDS
;	COMDAT xdata$x
xdata$x	SEGMENT
__ehfuncinfo$?BuildPrivateShop@CPythonShop@@QAEXPBD@Z DQ 00000000119930522r ; 2.33398e-314
	DD	FLAT:__unwindtable$?BuildPrivateShop@CPythonShop@@QAEXPBD@Z
	DQ	00000000000000000r		; 0
	DQ	00000000000000000r		; 0
	DQ	00000000100000000r		; 2.122e-314
__unwindtable$?BuildPrivateShop@CPythonShop@@QAEXPBD@Z DD 0ffffffffH
	DD	FLAT:__unwindfunclet$?BuildPrivateShop@CPythonShop@@QAEXPBD@Z$0
xdata$x	ENDS
;	COMDAT xdata$x
xdata$x	SEGMENT
__ehfuncinfo$?AddOfflineShopItemStock@CPythonShop@@QAEXUSItemPos@@E_J@Z DQ 00000000119930522r ; 2.33398e-314
	DD	FLAT:__unwindtable$?AddOfflineShopItemStock@CPythonShop@@QAEXUSItemPos@@E_J@Z
	DQ	00000000000000000r		; 0
	DQ	00000000000000000r		; 0
	DQ	00000000100000000r		; 2.122e-314
__unwindtable$?AddOfflineShopItemStock@CPythonShop@@QAEXUSItemPos@@E_J@Z DD 0ffffffffH
	DD	FLAT:__unwindfunclet$?AddOfflineShopItemStock@CPythonShop@@QAEXUSItemPos@@E_J@Z$2
xdata$x	ENDS
;	COMDAT xdata$x
xdata$x	SEGMENT
__ehfuncinfo$?BuildOfflineShop@CPythonShop@@QAEXPBDKE@Z DQ 00000000119930522r ; 2.33398e-314
	DD	FLAT:__unwindtable$?BuildOfflineShop@CPythonShop@@QAEXPBDKE@Z
	DQ	00000000000000000r		; 0
	DQ	00000000000000000r		; 0
	DQ	00000000100000000r		; 2.122e-314
__unwindtable$?BuildOfflineShop@CPythonShop@@QAEXPBDKE@Z DD 0ffffffffH
	DD	FLAT:__unwindfunclet$?BuildOfflineShop@CPythonShop@@QAEXPBDKE@Z$0
xdata$x	ENDS
;	COMDAT xdata$x
xdata$x	SEGMENT
__ehfuncinfo$??$insert@U?$pair@USItemPos@@USShopItemTable@@@std@@$0A@@?$map@USItemPos@@USShopItemTable@@U?$less@USItemPos@@@std@@V?$allocator@U?$pair@$$CBUSItemPos@@USShopItemTable@@@std@@@4@@std@@QAE?AU?$pair@V?$_Tree_iterator@V?$_Tree_val@U?$_Tree_simple_types@U?$pair@$$CBUSItemPos@@USShopItemTable@@@std@@@std@@@std@@@std@@_N@1@$$QAU?$pair@USItemPos@@USShopItemTable@@@1@@Z DQ 00000000119930522r ; 2.33398e-314
	DD	FLAT:__unwindtable$??$insert@U?$pair@USItemPos@@USShopItemTable@@@std@@$0A@@?$map@USItemPos@@USShopItemTable@@U?$less@USItemPos@@@std@@V?$allocator@U?$pair@$$CBUSItemPos@@USShopItemTable@@@std@@@4@@std@@QAE?AU?$pair@V?$_Tree_iterator@V?$_Tree_val@U?$_Tree_simple_types@U?$pair@$$CBUSItemPos@@USShopItemTable@@@std@@@std@@@std@@@std@@_N@1@$$QAU?$pair@USItemPos@@USShopItemTable@@@1@@Z
	DQ	00000000000000000r		; 0
	DQ	00000000000000000r		; 0
	DQ	00000000100000000r		; 2.122e-314
__unwindtable$??$insert@U?$pair@USItemPos@@USShopItemTable@@@std@@$0A@@?$map@USItemPos@@USShopItemTable@@U?$less@USItemPos@@@std@@V?$allocator@U?$pair@$$CBUSItemPos@@USShopItemTable@@@std@@@4@@std@@QAE?AU?$pair@V?$_Tree_iterator@V?$_Tree_val@U?$_Tree_simple_types@U?$pair@$$CBUSItemPos@@USShopItemTable@@@std@@@std@@@std@@@std@@_N@1@$$QAU?$pair@USItemPos@@USShopItemTable@@@1@@Z DD 0ffffffffH
	DD	FLAT:__unwindfunclet$??$insert@U?$pair@USItemPos@@USShopItemTable@@@std@@$0A@@?$map@USItemPos@@USShopItemTable@@U?$less@USItemPos@@@std@@V?$allocator@U?$pair@$$CBUSItemPos@@USShopItemTable@@@std@@@4@@std@@QAE?AU?$pair@V?$_Tree_iterator@V?$_Tree_val@U?$_Tree_simple_types@U?$pair@$$CBUSItemPos@@USShopItemTable@@@std@@@std@@@std@@@std@@_N@1@$$QAU?$pair@USItemPos@@USShopItemTable@@@1@@Z$2
xdata$x	ENDS
;	COMDAT xdata$x
xdata$x	SEGMENT
__ehfuncinfo$??$insert@U?$pair@USItemPos@@USOfflineShopItemTable@@@std@@$0A@@?$map@USItemPos@@USOfflineShopItemTable@@U?$less@USItemPos@@@std@@V?$allocator@U?$pair@$$CBUSItemPos@@USOfflineShopItemTable@@@std@@@4@@std@@QAE?AU?$pair@V?$_Tree_iterator@V?$_Tree_val@U?$_Tree_simple_types@U?$pair@$$CBUSItemPos@@USOfflineShopItemTable@@@std@@@std@@@std@@@std@@_N@1@$$QAU?$pair@USItemPos@@USOfflineShopItemTable@@@1@@Z DQ 00000000119930522r ; 2.33398e-314
	DD	FLAT:__unwindtable$??$insert@U?$pair@USItemPos@@USOfflineShopItemTable@@@std@@$0A@@?$map@USItemPos@@USOfflineShopItemTable@@U?$less@USItemPos@@@std@@V?$allocator@U?$pair@$$CBUSItemPos@@USOfflineShopItemTable@@@std@@@4@@std@@QAE?AU?$pair@V?$_Tree_iterator@V?$_Tree_val@U?$_Tree_simple_types@U?$pair@$$CBUSItemPos@@USOfflineShopItemTable@@@std@@@std@@@std@@@std@@_N@1@$$QAU?$pair@USItemPos@@USOfflineShopItemTable@@@1@@Z
	DQ	00000000000000000r		; 0
	DQ	00000000000000000r		; 0
	DQ	00000000100000000r		; 2.122e-314
__unwindtable$??$insert@U?$pair@USItemPos@@USOfflineShopItemTable@@@std@@$0A@@?$map@USItemPos@@USOfflineShopItemTable@@U?$less@USItemPos@@@std@@V?$allocator@U?$pair@$$CBUSItemPos@@USOfflineShopItemTable@@@std@@@4@@std@@QAE?AU?$pair@V?$_Tree_iterator@V?$_Tree_val@U?$_Tree_simple_types@U?$pair@$$CBUSItemPos@@USOfflineShopItemTable@@@std@@@std@@@std@@@std@@_N@1@$$QAU?$pair@USItemPos@@USOfflineShopItemTable@@@1@@Z DD 0ffffffffH
	DD	FLAT:__unwindfunclet$??$insert@U?$pair@USItemPos@@USOfflineShopItemTable@@@std@@$0A@@?$map@USItemPos@@USOfflineShopItemTable@@U?$less@USItemPos@@@std@@V?$allocator@U?$pair@$$CBUSItemPos@@USOfflineShopItemTable@@@std@@@4@@std@@QAE?AU?$pair@V?$_Tree_iterator@V?$_Tree_val@U?$_Tree_simple_types@U?$pair@$$CBUSItemPos@@USOfflineShopItemTable@@@std@@@std@@@std@@@std@@_N@1@$$QAU?$pair@USItemPos@@USOfflineShopItemTable@@@1@@Z$2
xdata$x	ENDS
;	COMDAT xdata$x
xdata$x	SEGMENT
__ehfuncinfo$??$emplace@U?$pair@USItemPos@@USShopItemTable@@@std@@@?$_Tree@V?$_Tmap_traits@USItemPos@@USShopItemTable@@U?$less@USItemPos@@@std@@V?$allocator@U?$pair@$$CBUSItemPos@@USShopItemTable@@@std@@@4@$0A@@std@@@std@@QAE?AU?$pair@V?$_Tree_iterator@V?$_Tree_val@U?$_Tree_simple_types@U?$pair@$$CBUSItemPos@@USShopItemTable@@@std@@@std@@@std@@@std@@_N@1@$$QAU?$pair@USItemPos@@USShopItemTable@@@1@@Z DQ 00000000119930522r ; 2.33398e-314
	DD	FLAT:__unwindtable$??$emplace@U?$pair@USItemPos@@USShopItemTable@@@std@@@?$_Tree@V?$_Tmap_traits@USItemPos@@USShopItemTable@@U?$less@USItemPos@@@std@@V?$allocator@U?$pair@$$CBUSItemPos@@USShopItemTable@@@std@@@4@$0A@@std@@@std@@QAE?AU?$pair@V?$_Tree_iterator@V?$_Tree_val@U?$_Tree_simple_types@U?$pair@$$CBUSItemPos@@USShopItemTable@@@std@@@std@@@std@@@std@@_N@1@$$QAU?$pair@USItemPos@@USShopItemTable@@@1@@Z
	DQ	00000000000000000r		; 0
	DQ	00000000000000000r		; 0
	DQ	00000000100000000r		; 2.122e-314
__unwindtable$??$emplace@U?$pair@USItemPos@@USShopItemTable@@@std@@@?$_Tree@V?$_Tmap_traits@USItemPos@@USShopItemTable@@U?$less@USItemPos@@@std@@V?$allocator@U?$pair@$$CBUSItemPos@@USShopItemTable@@@std@@@4@$0A@@std@@@std@@QAE?AU?$pair@V?$_Tree_iterator@V?$_Tree_val@U?$_Tree_simple_types@U?$pair@$$CBUSItemPos@@USShopItemTable@@@std@@@std@@@std@@@std@@_N@1@$$QAU?$pair@USItemPos@@USShopItemTable@@@1@@Z DD 0ffffffffH
	DD	FLAT:__unwindfunclet$??$emplace@U?$pair@USItemPos@@USShopItemTable@@@std@@@?$_Tree@V?$_Tmap_traits@USItemPos@@USShopItemTable@@U?$less@USItemPos@@@std@@V?$allocator@U?$pair@$$CBUSItemPos@@USShopItemTable@@@std@@@4@$0A@@std@@@std@@QAE?AU?$pair@V?$_Tree_iterator@V?$_Tree_val@U?$_Tree_simple_types@U?$pair@$$CBUSItemPos@@USShopItemTable@@@std@@@std@@@std@@@std@@_N@1@$$QAU?$pair@USItemPos@@USShopItemTable@@@1@@Z$2
xdata$x	ENDS
;	COMDAT xdata$x
xdata$x	SEGMENT
__ehfuncinfo$??$emplace@U?$pair@USItemPos@@USOfflineShopItemTable@@@std@@@?$_Tree@V?$_Tmap_traits@USItemPos@@USOfflineShopItemTable@@U?$less@USItemPos@@@std@@V?$allocator@U?$pair@$$CBUSItemPos@@USOfflineShopItemTable@@@std@@@4@$0A@@std@@@std@@QAE?AU?$pair@V?$_Tree_iterator@V?$_Tree_val@U?$_Tree_simple_types@U?$pair@$$CBUSItemPos@@USOfflineShopItemTable@@@std@@@std@@@std@@@std@@_N@1@$$QAU?$pair@USItemPos@@USOfflineShopItemTable@@@1@@Z DQ 00000000119930522r ; 2.33398e-314
	DD	FLAT:__unwindtable$??$emplace@U?$pair@USItemPos@@USOfflineShopItemTable@@@std@@@?$_Tree@V?$_Tmap_traits@USItemPos@@USOfflineShopItemTable@@U?$less@USItemPos@@@std@@V?$allocator@U?$pair@$$CBUSItemPos@@USOfflineShopItemTable@@@std@@@4@$0A@@std@@@std@@QAE?AU?$pair@V?$_Tree_iterator@V?$_Tree_val@U?$_Tree_simple_types@U?$pair@$$CBUSItemPos@@USOfflineShopItemTable@@@std@@@std@@@std@@@std@@_N@1@$$QAU?$pair@USItemPos@@USOfflineShopItemTable@@@1@@Z
	DQ	00000000000000000r		; 0
	DQ	00000000000000000r		; 0
	DQ	00000000100000000r		; 2.122e-314
__unwindtable$??$emplace@U?$pair@USItemPos@@USOfflineShopItemTable@@@std@@@?$_Tree@V?$_Tmap_traits@USItemPos@@USOfflineShopItemTable@@U?$less@USItemPos@@@std@@V?$allocator@U?$pair@$$CBUSItemPos@@USOfflineShopItemTable@@@std@@@4@$0A@@std@@@std@@QAE?AU?$pair@V?$_Tree_iterator@V?$_Tree_val@U?$_Tree_simple_types@U?$pair@$$CBUSItemPos@@USOfflineShopItemTable@@@std@@@std@@@std@@@std@@_N@1@$$QAU?$pair@USItemPos@@USOfflineShopItemTable@@@1@@Z DD 0ffffffffH
	DD	FLAT:__unwindfunclet$??$emplace@U?$pair@USItemPos@@USOfflineShopItemTable@@@std@@@?$_Tree@V?$_Tmap_traits@USItemPos@@USOfflineShopItemTable@@U?$less@USItemPos@@@std@@V?$allocator@U?$pair@$$CBUSItemPos@@USOfflineShopItemTable@@@std@@@4@$0A@@std@@@std@@QAE?AU?$pair@V?$_Tree_iterator@V?$_Tree_val@U?$_Tree_simple_types@U?$pair@$$CBUSItemPos@@USOfflineShopItemTable@@@std@@@std@@@std@@@std@@_N@1@$$QAU?$pair@USItemPos@@USOfflineShopItemTable@@@1@@Z$2
xdata$x	ENDS
;	COMDAT xdata$x
xdata$x	SEGMENT
__ehfuncinfo$??$_Emplace@U?$pair@USItemPos@@USShopItemTable@@@std@@@?$_Tree@V?$_Tmap_traits@USItemPos@@USShopItemTable@@U?$less@USItemPos@@@std@@V?$allocator@U?$pair@$$CBUSItemPos@@USShopItemTable@@@std@@@4@$0A@@std@@@std@@IAE?AU?$pair@PAU?$_Tree_node@U?$pair@$$CBUSItemPos@@USShopItemTable@@@std@@PAX@std@@_N@1@$$QAU?$pair@USItemPos@@USShopItemTable@@@1@@Z DQ 00000000119930522r ; 2.33398e-314
	DD	FLAT:__unwindtable$??$_Emplace@U?$pair@USItemPos@@USShopItemTable@@@std@@@?$_Tree@V?$_Tmap_traits@USItemPos@@USShopItemTable@@U?$less@USItemPos@@@std@@V?$allocator@U?$pair@$$CBUSItemPos@@USShopItemTable@@@std@@@4@$0A@@std@@@std@@IAE?AU?$pair@PAU?$_Tree_node@U?$pair@$$CBUSItemPos@@USShopItemTable@@@std@@PAX@std@@_N@1@$$QAU?$pair@USItemPos@@USShopItemTable@@@1@@Z
	DQ	00000000000000000r		; 0
	DQ	00000000000000000r		; 0
	DQ	00000000100000000r		; 2.122e-314
__unwindtable$??$_Emplace@U?$pair@USItemPos@@USShopItemTable@@@std@@@?$_Tree@V?$_Tmap_traits@USItemPos@@USShopItemTable@@U?$less@USItemPos@@@std@@V?$allocator@U?$pair@$$CBUSItemPos@@USShopItemTable@@@std@@@4@$0A@@std@@@std@@IAE?AU?$pair@PAU?$_Tree_node@U?$pair@$$CBUSItemPos@@USShopItemTable@@@std@@PAX@std@@_N@1@$$QAU?$pair@USItemPos@@USShopItemTable@@@1@@Z DD 0ffffffffH
	DD	FLAT:__unwindfunclet$??$_Emplace@U?$pair@USItemPos@@USShopItemTable@@@std@@@?$_Tree@V?$_Tmap_traits@USItemPos@@USShopItemTable@@U?$less@USItemPos@@@std@@V?$allocator@U?$pair@$$CBUSItemPos@@USShopItemTable@@@std@@@4@$0A@@std@@@std@@IAE?AU?$pair@PAU?$_Tree_node@U?$pair@$$CBUSItemPos@@USShopItemTable@@@std@@PAX@std@@_N@1@$$QAU?$pair@USItemPos@@USShopItemTable@@@1@@Z$2
xdata$x	ENDS
;	COMDAT xdata$x
xdata$x	SEGMENT
__ehfuncinfo$??$_Emplace@U?$pair@USItemPos@@USOfflineShopItemTable@@@std@@@?$_Tree@V?$_Tmap_traits@USItemPos@@USOfflineShopItemTable@@U?$less@USItemPos@@@std@@V?$allocator@U?$pair@$$CBUSItemPos@@USOfflineShopItemTable@@@std@@@4@$0A@@std@@@std@@IAE?AU?$pair@PAU?$_Tree_node@U?$pair@$$CBUSItemPos@@USOfflineShopItemTable@@@std@@PAX@std@@_N@1@$$QAU?$pair@USItemPos@@USOfflineShopItemTable@@@1@@Z DQ 00000000119930522r ; 2.33398e-314
	DD	FLAT:__unwindtable$??$_Emplace@U?$pair@USItemPos@@USOfflineShopItemTable@@@std@@@?$_Tree@V?$_Tmap_traits@USItemPos@@USOfflineShopItemTable@@U?$less@USItemPos@@@std@@V?$allocator@U?$pair@$$CBUSItemPos@@USOfflineShopItemTable@@@std@@@4@$0A@@std@@@std@@IAE?AU?$pair@PAU?$_Tree_node@U?$pair@$$CBUSItemPos@@USOfflineShopItemTable@@@std@@PAX@std@@_N@1@$$QAU?$pair@USItemPos@@USOfflineShopItemTable@@@1@@Z
	DQ	00000000000000000r		; 0
	DQ	00000000000000000r		; 0
	DQ	00000000100000000r		; 2.122e-314
__unwindtable$??$_Emplace@U?$pair@USItemPos@@USOfflineShopItemTable@@@std@@@?$_Tree@V?$_Tmap_traits@USItemPos@@USOfflineShopItemTable@@U?$less@USItemPos@@@std@@V?$allocator@U?$pair@$$CBUSItemPos@@USOfflineShopItemTable@@@std@@@4@$0A@@std@@@std@@IAE?AU?$pair@PAU?$_Tree_node@U?$pair@$$CBUSItemPos@@USOfflineShopItemTable@@@std@@PAX@std@@_N@1@$$QAU?$pair@USItemPos@@USOfflineShopItemTable@@@1@@Z DD 0ffffffffH
	DD	FLAT:__unwindfunclet$??$_Emplace@U?$pair@USItemPos@@USOfflineShopItemTable@@@std@@@?$_Tree@V?$_Tmap_traits@USItemPos@@USOfflineShopItemTable@@U?$less@USItemPos@@@std@@V?$allocator@U?$pair@$$CBUSItemPos@@USOfflineShopItemTable@@@std@@@4@$0A@@std@@@std@@IAE?AU?$pair@PAU?$_Tree_node@U?$pair@$$CBUSItemPos@@USOfflineShopItemTable@@@std@@PAX@std@@_N@1@$$QAU?$pair@USItemPos@@USOfflineShopItemTable@@@1@@Z$2
xdata$x	ENDS
;	COMDAT xdata$x
xdata$x	SEGMENT
__ehfuncinfo$??$?0U?$pair@USItemPos@@USShopItemTable@@@std@@@?$_Tree_temp_node@V?$allocator@U?$_Tree_node@U?$pair@$$CBUSItemPos@@USShopItemTable@@@std@@PAX@std@@@std@@@std@@QAE@AAV?$allocator@U?$_Tree_node@U?$pair@$$CBUSItemPos@@USShopItemTable@@@std@@PAX@std@@@1@PAU?$_Tree_node@U?$pair@$$CBUSItemPos@@USShopItemTable@@@std@@PAX@1@$$QAU?$pair@USItemPos@@USShopItemTable@@@1@@Z DQ 00000000119930522r ; 2.33398e-314
	DD	FLAT:__unwindtable$??$?0U?$pair@USItemPos@@USShopItemTable@@@std@@@?$_Tree_temp_node@V?$allocator@U?$_Tree_node@U?$pair@$$CBUSItemPos@@USShopItemTable@@@std@@PAX@std@@@std@@@std@@QAE@AAV?$allocator@U?$_Tree_node@U?$pair@$$CBUSItemPos@@USShopItemTable@@@std@@PAX@std@@@1@PAU?$_Tree_node@U?$pair@$$CBUSItemPos@@USShopItemTable@@@std@@PAX@1@$$QAU?$pair@USItemPos@@USShopItemTable@@@1@@Z
	DQ	00000000000000000r		; 0
	DQ	00000000000000000r		; 0
	DQ	00000000100000000r		; 2.122e-314
__unwindtable$??$?0U?$pair@USItemPos@@USShopItemTable@@@std@@@?$_Tree_temp_node@V?$allocator@U?$_Tree_node@U?$pair@$$CBUSItemPos@@USShopItemTable@@@std@@PAX@std@@@std@@@std@@QAE@AAV?$allocator@U?$_Tree_node@U?$pair@$$CBUSItemPos@@USShopItemTable@@@std@@PAX@std@@@1@PAU?$_Tree_node@U?$pair@$$CBUSItemPos@@USShopItemTable@@@std@@PAX@1@$$QAU?$pair@USItemPos@@USShopItemTable@@@1@@Z DD 0ffffffffH
	DD	FLAT:__unwindfunclet$??$?0U?$pair@USItemPos@@USShopItemTable@@@std@@@?$_Tree_temp_node@V?$allocator@U?$_Tree_node@U?$pair@$$CBUSItemPos@@USShopItemTable@@@std@@PAX@std@@@std@@@std@@QAE@AAV?$allocator@U?$_Tree_node@U?$pair@$$CBUSItemPos@@USShopItemTable@@@std@@PAX@std@@@1@PAU?$_Tree_node@U?$pair@$$CBUSItemPos@@USShopItemTable@@@std@@PAX@1@$$QAU?$pair@USItemPos@@USShopItemTable@@@1@@Z$1
xdata$x	ENDS
;	COMDAT xdata$x
xdata$x	SEGMENT
__ehfuncinfo$??$?0U?$pair@USItemPos@@USOfflineShopItemTable@@@std@@@?$_Tree_temp_node@V?$allocator@U?$_Tree_node@U?$pair@$$CBUSItemPos@@USOfflineShopItemTable@@@std@@PAX@std@@@std@@@std@@QAE@AAV?$allocator@U?$_Tree_node@U?$pair@$$CBUSItemPos@@USOfflineShopItemTable@@@std@@PAX@std@@@1@PAU?$_Tree_node@U?$pair@$$CBUSItemPos@@USOfflineShopItemTable@@@std@@PAX@1@$$QAU?$pair@USItemPos@@USOfflineShopItemTable@@@1@@Z DQ 00000000119930522r ; 2.33398e-314
	DD	FLAT:__unwindtable$??$?0U?$pair@USItemPos@@USOfflineShopItemTable@@@std@@@?$_Tree_temp_node@V?$allocator@U?$_Tree_node@U?$pair@$$CBUSItemPos@@USOfflineShopItemTable@@@std@@PAX@std@@@std@@@std@@QAE@AAV?$allocator@U?$_Tree_node@U?$pair@$$CBUSItemPos@@USOfflineShopItemTable@@@std@@PAX@std@@@1@PAU?$_Tree_node@U?$pair@$$CBUSItemPos@@USOfflineShopItemTable@@@std@@PAX@1@$$QAU?$pair@USItemPos@@USOfflineShopItemTable@@@1@@Z
	DQ	00000000000000000r		; 0
	DQ	00000000000000000r		; 0
	DQ	00000000100000000r		; 2.122e-314
__unwindtable$??$?0U?$pair@USItemPos@@USOfflineShopItemTable@@@std@@@?$_Tree_temp_node@V?$allocator@U?$_Tree_node@U?$pair@$$CBUSItemPos@@USOfflineShopItemTable@@@std@@PAX@std@@@std@@@std@@QAE@AAV?$allocator@U?$_Tree_node@U?$pair@$$CBUSItemPos@@USOfflineShopItemTable@@@std@@PAX@std@@@1@PAU?$_Tree_node@U?$pair@$$CBUSItemPos@@USOfflineShopItemTable@@@std@@PAX@1@$$QAU?$pair@USItemPos@@USOfflineShopItemTable@@@1@@Z DD 0ffffffffH
	DD	FLAT:__unwindfunclet$??$?0U?$pair@USItemPos@@USOfflineShopItemTable@@@std@@@?$_Tree_temp_node@V?$allocator@U?$_Tree_node@U?$pair@$$CBUSItemPos@@USOfflineShopItemTable@@@std@@PAX@std@@@std@@@std@@QAE@AAV?$allocator@U?$_Tree_node@U?$pair@$$CBUSItemPos@@USOfflineShopItemTable@@@std@@PAX@std@@@1@PAU?$_Tree_node@U?$pair@$$CBUSItemPos@@USOfflineShopItemTable@@@std@@PAX@1@$$QAU?$pair@USItemPos@@USOfflineShopItemTable@@@1@@Z$1
xdata$x	ENDS
;	COMDAT xdata$x
xdata$x	SEGMENT
__ehfuncinfo$??0?$_Tree_temp_node_alloc@V?$allocator@U?$_Tree_node@U?$pair@$$CBUSItemPos@@USOfflineShopItemTable@@@std@@PAX@std@@@std@@@std@@QAE@AAV?$allocator@U?$_Tree_node@U?$pair@$$CBUSItemPos@@USOfflineShopItemTable@@@std@@PAX@std@@@1@@Z DQ 00000000119930522r ; 2.33398e-314
	DD	FLAT:__unwindtable$??0?$_Tree_temp_node_alloc@V?$allocator@U?$_Tree_node@U?$pair@$$CBUSItemPos@@USOfflineShopItemTable@@@std@@PAX@std@@@std@@@std@@QAE@AAV?$allocator@U?$_Tree_node@U?$pair@$$CBUSItemPos@@USOfflineShopItemTable@@@std@@PAX@std@@@1@@Z
	DQ	00000000000000000r		; 0
	DQ	00000000000000000r		; 0
	DQ	00000000100000000r		; 2.122e-314
__unwindtable$??0?$_Tree_temp_node_alloc@V?$allocator@U?$_Tree_node@U?$pair@$$CBUSItemPos@@USOfflineShopItemTable@@@std@@PAX@std@@@std@@@std@@QAE@AAV?$allocator@U?$_Tree_node@U?$pair@$$CBUSItemPos@@USOfflineShopItemTable@@@std@@PAX@std@@@1@@Z DD 0ffffffffH
	DD	FLAT:__unwindfunclet$??0?$_Tree_temp_node_alloc@V?$allocator@U?$_Tree_node@U?$pair@$$CBUSItemPos@@USOfflineShopItemTable@@@std@@PAX@std@@@std@@@std@@QAE@AAV?$allocator@U?$_Tree_node@U?$pair@$$CBUSItemPos@@USOfflineShopItemTable@@@std@@PAX@std@@@1@@Z$0
xdata$x	ENDS
;	COMDAT xdata$x
xdata$x	SEGMENT
__ehfuncinfo$??0?$_Tree_temp_node_alloc@V?$allocator@U?$_Tree_node@U?$pair@$$CBUSItemPos@@USShopItemTable@@@std@@PAX@std@@@std@@@std@@QAE@AAV?$allocator@U?$_Tree_node@U?$pair@$$CBUSItemPos@@USShopItemTable@@@std@@PAX@std@@@1@@Z DQ 00000000119930522r ; 2.33398e-314
	DD	FLAT:__unwindtable$??0?$_Tree_temp_node_alloc@V?$allocator@U?$_Tree_node@U?$pair@$$CBUSItemPos@@USShopItemTable@@@std@@PAX@std@@@std@@@std@@QAE@AAV?$allocator@U?$_Tree_node@U?$pair@$$CBUSItemPos@@USShopItemTable@@@std@@PAX@std@@@1@@Z
	DQ	00000000000000000r		; 0
	DQ	00000000000000000r		; 0
	DQ	00000000100000000r		; 2.122e-314
__unwindtable$??0?$_Tree_temp_node_alloc@V?$allocator@U?$_Tree_node@U?$pair@$$CBUSItemPos@@USShopItemTable@@@std@@PAX@std@@@std@@@std@@QAE@AAV?$allocator@U?$_Tree_node@U?$pair@$$CBUSItemPos@@USShopItemTable@@@std@@PAX@std@@@1@@Z DD 0ffffffffH
	DD	FLAT:__unwindfunclet$??0?$_Tree_temp_node_alloc@V?$allocator@U?$_Tree_node@U?$pair@$$CBUSItemPos@@USShopItemTable@@@std@@PAX@std@@@std@@@std@@QAE@AAV?$allocator@U?$_Tree_node@U?$pair@$$CBUSItemPos@@USShopItemTable@@@std@@PAX@std@@@1@@Z$0
END
