; Listing generated by Microsoft (R) Optimizing Compiler Version 19.44.35219.0 

	TITLE	c:\anka2project\anka2project\source\binary\vs_files\userinterface\release\pythonnetworkstreamphasehandshake.obj
	.686P
	.XMM
	include listing.inc
	.model	flat

INCLUDELIB OLDNAMES

PUBLIC	??_C@_1MM@JLFAGGBG@?$AAC?$AA?3?$AA?2?$AAA?$AAn?$AAk?$AAa?$AA2?$AAP?$AAr?$AAo?$AAj?$AAe?$AAc?$AAt@ ; `string'
PUBLIC	??_C@_0BJ@KOHJIAEM@Failed?5Sending?5Handshake@	; `string'
PUBLIC	??_C@_09JMFCPCNF@HandShake@			; `string'
PUBLIC	??_C@_1DI@CKGKJOEO@?$AA?$CB?$AA?$CC?$AAF?$AAa?$AAi?$AAl?$AAe?$AAd?$AA?5?$AAS?$AAe?$AAn?$AAd?$AAi?$AAn@ ; `string'
PUBLIC	??_C@_0M@EEFIMJHD@OnHandShake@			; `string'
PUBLIC	??_C@_0CB@IOMBLCGI@?$CD?$CD?5Network?5?9?5Hand?5Shake?5Phase?5?$CD@ ; `string'
PUBLIC	??_C@_0BI@JCCALMCB@HANDSHAKE?5OK?5RECV?5?$CFu?5?$CFu@ ; `string'
EXTRN	?SetBaseTime@CTimer@@QAEXXZ:PROC		; CTimer::SetBaseTime
;	COMDAT ??_C@_0BI@JCCALMCB@HANDSHAKE?5OK?5RECV?5?$CFu?5?$CFu@
CONST	SEGMENT
??_C@_0BI@JCCALMCB@HANDSHAKE?5OK?5RECV?5?$CFu?5?$CFu@ DB 'HANDSHAKE OK RE'
	DB	'CV %u %u', 00H				; `string'
CONST	ENDS
;	COMDAT ??_C@_0CB@IOMBLCGI@?$CD?$CD?5Network?5?9?5Hand?5Shake?5Phase?5?$CD@
CONST	SEGMENT
??_C@_0CB@IOMBLCGI@?$CD?$CD?5Network?5?9?5Hand?5Shake?5Phase?5?$CD@ DB '#'
	DB	'# Network - Hand Shake Phase ##', 00H	; `string'
CONST	ENDS
;	COMDAT ??_C@_0M@EEFIMJHD@OnHandShake@
CONST	SEGMENT
??_C@_0M@EEFIMJHD@OnHandShake@ DB 'OnHandShake', 00H	; `string'
CONST	ENDS
;	COMDAT ??_C@_1DI@CKGKJOEO@?$AA?$CB?$AA?$CC?$AAF?$AAa?$AAi?$AAl?$AAe?$AAd?$AA?5?$AAS?$AAe?$AAn?$AAd?$AAi?$AAn@
CONST	SEGMENT
??_C@_1DI@CKGKJOEO@?$AA?$CB?$AA?$CC?$AAF?$AAa?$AAi?$AAl?$AAe?$AAd?$AA?5?$AAS?$AAe?$AAn?$AAd?$AAi?$AAn@ DB '!'
	DB	00H, '"', 00H, 'F', 00H, 'a', 00H, 'i', 00H, 'l', 00H, 'e', 00H
	DB	'd', 00H, ' ', 00H, 'S', 00H, 'e', 00H, 'n', 00H, 'd', 00H, 'i'
	DB	00H, 'n', 00H, 'g', 00H, ' ', 00H, 'H', 00H, 'a', 00H, 'n', 00H
	DB	'd', 00H, 's', 00H, 'h', 00H, 'a', 00H, 'k', 00H, 'e', 00H, '"'
	DB	00H, 00H, 00H				; `string'
CONST	ENDS
;	COMDAT ??_C@_09JMFCPCNF@HandShake@
CONST	SEGMENT
??_C@_09JMFCPCNF@HandShake@ DB 'HandShake', 00H		; `string'
CONST	ENDS
;	COMDAT ??_C@_0BJ@KOHJIAEM@Failed?5Sending?5Handshake@
CONST	SEGMENT
??_C@_0BJ@KOHJIAEM@Failed?5Sending?5Handshake@ DB 'Failed Sending Handsha'
	DB	'ke', 00H					; `string'
CONST	ENDS
;	COMDAT ??_C@_1MM@JLFAGGBG@?$AAC?$AA?3?$AA?2?$AAA?$AAn?$AAk?$AAa?$AA2?$AAP?$AAr?$AAo?$AAj?$AAe?$AAc?$AAt@
CONST	SEGMENT
??_C@_1MM@JLFAGGBG@?$AAC?$AA?3?$AA?2?$AAA?$AAn?$AAk?$AAa?$AA2?$AAP?$AAr?$AAo?$AAj?$AAe?$AAc?$AAt@ DB 'C'
	DB	00H, ':', 00H, '\', 00H, 'A', 00H, 'n', 00H, 'k', 00H, 'a', 00H
	DB	'2', 00H, 'P', 00H, 'r', 00H, 'o', 00H, 'j', 00H, 'e', 00H, 'c'
	DB	00H, 't', 00H, '\', 00H, 'A', 00H, 'n', 00H, 'k', 00H, 'a', 00H
	DB	'2', 00H, 'P', 00H, 'r', 00H, 'o', 00H, 'j', 00H, 'e', 00H, 'c'
	DB	00H, 't', 00H, '\', 00H, 'S', 00H, 'o', 00H, 'u', 00H, 'r', 00H
	DB	'c', 00H, 'e', 00H, '\', 00H, 'B', 00H, 'i', 00H, 'n', 00H, 'a'
	DB	00H, 'r', 00H, 'y', 00H, '\', 00H, 's', 00H, 'o', 00H, 'u', 00H
	DB	'r', 00H, 'c', 00H, 'e', 00H, '\', 00H, 'U', 00H, 's', 00H, 'e'
	DB	00H, 'r', 00H, 'I', 00H, 'n', 00H, 't', 00H, 'e', 00H, 'r', 00H
	DB	'f', 00H, 'a', 00H, 'c', 00H, 'e', 00H, '\', 00H, 'P', 00H, 'y'
	DB	00H, 't', 00H, 'h', 00H, 'o', 00H, 'n', 00H, 'N', 00H, 'e', 00H
	DB	't', 00H, 'w', 00H, 'o', 00H, 'r', 00H, 'k', 00H, 'S', 00H, 't'
	DB	00H, 'r', 00H, 'e', 00H, 'a', 00H, 'm', 00H, 'P', 00H, 'h', 00H
	DB	'a', 00H, 's', 00H, 'e', 00H, 'H', 00H, 'a', 00H, 'n', 00H, 'd'
	DB	00H, 'S', 00H, 'h', 00H, 'a', 00H, 'k', 00H, 'e', 00H, '.', 00H
	DB	'c', 00H, 'p', 00H, 'p', 00H, 00H, 00H	; `string'
PUBLIC	?HandShakePhase@CPythonNetworkStream@@IAEXXZ	; CPythonNetworkStream::HandShakePhase
PUBLIC	?__LeaveHandshakePhase@CPythonNetworkStream@@IAEXXZ ; CPythonNetworkStream::__LeaveHandshakePhase
PUBLIC	?RecvHandshakePacket@CPythonNetworkStream@@QAE_NXZ ; CPythonNetworkStream::RecvHandshakePacket
PUBLIC	?RecvHandshakeOKPacket@CPythonNetworkStream@@QAE_NXZ ; CPythonNetworkStream::RecvHandshakeOKPacket
PUBLIC	?SetHandShakePhase@CPythonNetworkStream@@QAEXXZ	; CPythonNetworkStream::SetHandShakePhase
?vecDropSoundFileName@@3V?$array@U?$pair@KV?$basic_string@DU?$char_traits@D@std@@V?$allocator@D@2@@std@@@std@@$04@std@@B DB 08cH DUP (?) ; vecDropSoundFileName
?vecEffectList@@3V?$vector@V?$tuple@IPBDPBD_N@std@@V?$allocator@V?$tuple@IPBDPBD_N@std@@@2@@std@@B DB 0cH DUP (?) ; vecEffectList
?characterNameColors@@3V?$map@EV?$array@E$02@std@@U?$less@E@2@V?$allocator@U?$pair@$$CBEV?$array@E$02@std@@@std@@@2@@std@@B DQ 01H DUP (?) ; characterNameColors
?characterTitleColors@@3V?$map@EV?$array@E$02@std@@U?$less@E@2@V?$allocator@U?$pair@$$CBEV?$array@E$02@std@@@std@@@2@@std@@B DQ 01H DUP (?) ; characterTitleColors
?characterTitleSystemColors@@3V?$map@EV?$array@E$02@std@@U?$less@E@2@V?$allocator@U?$pair@$$CBEV?$array@E$02@std@@@std@@@2@@std@@B DQ 01H DUP (?) ; characterTitleSystemColors
?emotionIcons@@3V?$map@EPBDU?$less@E@std@@V?$allocator@U?$pair@$$CBEPBD@std@@@2@@std@@B DQ 01H DUP (?) ; emotionIcons
?skillIndexes@@3V?$map@EV?$map@EV?$vector@EV?$allocator@E@std@@@std@@U?$less@E@2@V?$allocator@U?$pair@$$CBEV?$vector@EV?$allocator@E@std@@@std@@@std@@@2@@std@@U?$less@E@2@V?$allocator@U?$pair@$$CBEV?$map@EV?$vector@EV?$allocator@E@std@@@std@@U?$less@E@2@V?$allocator@U?$pair@$$CBEV?$vector@EV?$allocator@E@std@@@std@@@std@@@2@@std@@@std@@@2@@std@@B DQ 01H DUP (?) ; skillIndexes
?guildSkills@@3V?$map@V?$basic_string@DU?$char_traits@D@std@@V?$allocator@D@2@@std@@V?$vector@EV?$allocator@E@std@@@2@U?$less@V?$basic_string@DU?$char_traits@D@std@@V?$allocator@D@2@@std@@@2@V?$allocator@U?$pair@$$CBV?$basic_string@DU?$char_traits@D@std@@V?$allocator@D@2@@std@@V?$vector@EV?$allocator@E@std@@@2@@std@@@2@@std@@B DQ 01H DUP (?) ; guildSkills
_BSS	ENDS
;	COMDAT xdata$x
xdata$x	SEGMENT
__ehfuncinfo$??__EvecUseSoundFileName@@YAXXZ DQ 00000000619930522r ; 1.2944e-313
	DD	FLAT:__unwindtable$??__EvecUseSoundFileName@@YAXXZ
	DQ	00000000000000000r		; 0
	DQ	00000000000000000r		; 0
	DQ	00000000100000000r		; 2.122e-314
__unwindtable$??__EvecUseSoundFileName@@YAXXZ DD 0ffffffffH
	DD	FLAT:__unwindfunclet$??__EvecUseSoundFileName@@YAXXZ$0
	DD	00H
	DD	FLAT:__unwindfunclet$??__EvecUseSoundFileName@@YAXXZ$1
	DD	01H
	DD	FLAT:__unwindfunclet$??__EvecUseSoundFileName@@YAXXZ$2
	DD	02H
	DD	FLAT:__unwindfunclet$??__EvecUseSoundFileName@@YAXXZ$3
	DD	03H
	DD	FLAT:__unwindfunclet$??__EvecUseSoundFileName@@YAXXZ$4
	DD	04H
	DD	FLAT:__unwindfunclet$??__EvecUseSoundFileName@@YAXXZ$5
xdata$x	ENDS
;	COMDAT xdata$x
xdata$x	SEGMENT
__ehfuncinfo$??__FvecUseSoundFileName@@YAXXZ DQ 00000000119930522r ; 2.33398e-314
	DD	FLAT:__unwindtable$??__FvecUseSoundFileName@@YAXXZ
	DQ	00000000000000000r		; 0
	DQ	00000000000000000r		; 0
	DQ	00000000100000000r		; 2.122e-314
__unwindtable$??__FvecUseSoundFileName@@YAXXZ DD 0ffffffffH
	DD	FLAT:___std_terminate
xdata$x	ENDS
;	COMDAT xdata$x
xdata$x	SEGMENT
__ehfuncinfo$??__EvecDropSoundFileName@@YAXXZ DQ 00000000419930522r ; 8.69997e-314
	DD	FLAT:__unwindtable$??__EvecDropSoundFileName@@YAXXZ
	DQ	00000000000000000r		; 0
	DQ	00000000000000000r		; 0
	DQ	00000000100000000r		; 2.122e-314
__unwindtable$??__EvecDropSoundFileName@@YAXXZ DD 0ffffffffH
	DD	FLAT:__unwindfunclet$??__EvecDropSoundFileName@@YAXXZ$0
	DD	00H
	DD	FLAT:__unwindfunclet$??__EvecDropSoundFileName@@YAXXZ$1
	DD	01H
	DD	FLAT:__unwindfunclet$??__EvecDropSoundFileName@@YAXXZ$2
	DD	02H
	DD	FLAT:__unwindfunclet$??__EvecDropSoundFileName@@YAXXZ$3
xdata$x	ENDS
;	COMDAT xdata$x
xdata$x	SEGMENT
__ehfuncinfo$??__FvecDropSoundFileName@@YAXXZ DQ 00000000119930522r ; 2.33398e-314
	DD	FLAT:__unwindtable$??__FvecDropSoundFileName@@YAXXZ
	DQ	00000000000000000r		; 0
	DQ	00000000000000000r		; 0
	DQ	00000000100000000r		; 2.122e-314
__unwindtable$??__FvecDropSoundFileName@@YAXXZ DD 0ffffffffH
	DD	FLAT:___std_terminate
xdata$x	ENDS
;	COMDAT xdata$x
xdata$x	SEGMENT
__ehfuncinfo$??__EskillIndexes@@YAXXZ DQ 00000002819930522r ; 8.50918e-313
	DD	FLAT:__unwindtable$??__EskillIndexes@@YAXXZ
	DQ	00000000000000000r		; 0
	DQ	00000000000000000r		; 0
	DQ	00000000100000000r		; 2.122e-314
	ORG $+4
__unwindtable$??__EskillIndexes@@YAXXZ DD 0ffffffffH
	DD	FLAT:__unwindfunclet$??__EskillIndexes@@YAXXZ$0
	DD	00H
	DD	FLAT:__unwindfunclet$??__EskillIndexes@@YAXXZ$1
	DD	01H
	DD	FLAT:__unwindfunclet$??__EskillIndexes@@YAXXZ$2
	DD	00H
	DD	FLAT:__unwindfunclet$??__EskillIndexes@@YAXXZ$2
	DD	03H
	DD	FLAT:__unwindfunclet$??__EskillIndexes@@YAXXZ$4
	DD	04H
	DD	FLAT:__unwindfunclet$??__EskillIndexes@@YAXXZ$5
	DD	05H
	DD	FLAT:__unwindfunclet$??__EskillIndexes@@YAXXZ$6
	DD	06H
	DD	FLAT:__unwindfunclet$??__EskillIndexes@@YAXXZ$7
	DD	07H
	DD	FLAT:__unwindfunclet$??__EskillIndexes@@YAXXZ$8
	DD	08H
	DD	FLAT:__unwindfunclet$??__EskillIndexes@@YAXXZ$9
	DD	07H
	DD	FLAT:__unwindfunclet$??__EskillIndexes@@YAXXZ$9
	DD	0aH
	DD	FLAT:__unwindfunclet$??__EskillIndexes@@YAXXZ$11
	DD	0bH
	DD	FLAT:__unwindfunclet$??__EskillIndexes@@YAXXZ$12
	DD	0cH
	DD	FLAT:__unwindfunclet$??__EskillIndexes@@YAXXZ$13
	DD	0dH
	DD	FLAT:__unwindfunclet$??__EskillIndexes@@YAXXZ$14
	DD	0eH
	DD	FLAT:__unwindfunclet$??__EskillIndexes@@YAXXZ$15
	DD	0fH
	DD	FLAT:__unwindfunclet$??__EskillIndexes@@YAXXZ$16
	DD	0eH
	DD	FLAT:__unwindfunclet$??__EskillIndexes@@YAXXZ$16
	DD	011H
	DD	FLAT:__unwindfunclet$??__EskillIndexes@@YAXXZ$18
	DD	012H
	DD	FLAT:__unwindfunclet$??__EskillIndexes@@YAXXZ$19
	DD	013H
	DD	FLAT:__unwindfunclet$??__EskillIndexes@@YAXXZ$20
	DD	014H
	DD	FLAT:__unwindfunclet$??__EskillIndexes@@YAXXZ$21
	DD	015H
	DD	FLAT:__unwindfunclet$??__EskillIndexes@@YAXXZ$22
	DD	016H
	DD	FLAT:__unwindfunclet$??__EskillIndexes@@YAXXZ$23
	DD	015H
	DD	FLAT:__unwindfunclet$??__EskillIndexes@@YAXXZ$23
	DD	018H
	DD	FLAT:__unwindfunclet$??__EskillIndexes@@YAXXZ$25
	DD	019H
	DD	FLAT:__unwindfunclet$??__EskillIndexes@@YAXXZ$26
	DD	05H
	DD	FLAT:__unwindfunclet$??__EskillIndexes@@YAXXZ$7
	DD	01bH
	DD	FLAT:__unwindfunclet$??__EskillIndexes@@YAXXZ$9
	DD	01cH
	DD	FLAT:__unwindfunclet$??__EskillIndexes@@YAXXZ$11
	DD	01dH
	DD	FLAT:__unwindfunclet$??__EskillIndexes@@YAXXZ$12
	DD	01eH
	DD	FLAT:__unwindfunclet$??__EskillIndexes@@YAXXZ$14
	DD	01fH
	DD	FLAT:__unwindfunclet$??__EskillIndexes@@YAXXZ$16
	DD	020H
	DD	FLAT:__unwindfunclet$??__EskillIndexes@@YAXXZ$18
	DD	021H
	DD	FLAT:__unwindfunclet$??__EskillIndexes@@YAXXZ$19
	DD	022H
	DD	FLAT:__unwindfunclet$??__EskillIndexes@@YAXXZ$21
	DD	023H
	DD	FLAT:__unwindfunclet$??__EskillIndexes@@YAXXZ$23
	DD	024H
	DD	FLAT:__unwindfunclet$??__EskillIndexes@@YAXXZ$25
	DD	025H
	DD	FLAT:__unwindfunclet$??__EskillIndexes@@YAXXZ$26
	DD	026H
	DD	FLAT:__unwindfunclet$??__EskillIndexes@@YAXXZ$28
xdata$x	ENDS
;	COMDAT xdata$x
xdata$x	SEGMENT
__ehfuncinfo$??__EguildSkills@@YAXXZ DQ 00000000a19930522r ; 2.14319e-313
	DD	FLAT:__unwindtable$??__EguildSkills@@YAXXZ
	DQ	00000000000000000r		; 0
	DQ	00000000000000000r		; 0
	DQ	00000000100000000r		; 2.122e-314
	ORG $+4
__unwindtable$??__EguildSkills@@YAXXZ DD 0ffffffffH
	DD	FLAT:__unwindfunclet$??__EguildSkills@@YAXXZ$0
	DD	00H
	DD	FLAT:__unwindfunclet$??__EguildSkills@@YAXXZ$1
	DD	01H
	DD	FLAT:__unwindfunclet$??__EguildSkills@@YAXXZ$10
	DD	01H
	DD	FLAT:__unwindfunclet$??__EguildSkills@@YAXXZ$2
	DD	03H
	DD	FLAT:__unwindfunclet$??__EguildSkills@@YAXXZ$3
	DD	04H
	DD	FLAT:__unwindfunclet$??__EguildSkills@@YAXXZ$4
	DD	05H
	DD	FLAT:__unwindfunclet$??__EguildSkills@@YAXXZ$16
	DD	01H
	DD	FLAT:__unwindfunclet$??__EguildSkills@@YAXXZ$3
	DD	07H
	DD	FLAT:__unwindfunclet$??__EguildSkills@@YAXXZ$4
	DD	08H
	DD	FLAT:__unwindfunclet$??__EguildSkills@@YAXXZ$6
	ORG $+4
?vecUseSoundFileName@@3V?$array@U?$pair@KV?$basic_string@DU?$char_traits@D@std@@V?$allocator@D@2@@std@@@std@@$06@std@@B DQ 00000000000000001r ; 4.94066e-324 ; vecUseSoundFileName
	DQ	00000000000000000r		; 0
	DQ	00000000000000000r		; 0
	DQ	00000000000000000r		; 0
	DQ	00000000000000000r		; 0
	DQ	00000000000000000r		; 0
	DQ	00000000000000000r		; 0
	DQ	00000000000000000r		; 0
	DQ	00000000000000000r		; 0
	DQ	00000000000000000r		; 0
	DQ	00000000000000000r		; 0
	DQ	00000000000000000r		; 0
	DQ	00000000000000000r		; 0
	DQ	00000000000000000r		; 0
	DQ	00000000000000000r		; 0
	DQ	00000000000000000r		; 0
	DQ	00000000000000000r		; 0
	DQ	00000000000000000r		; 0
	DQ	00000000000000000r		; 0
	DQ	00000000000000000r		; 0
	DQ	00000000000000000r		; 0
	DQ	00000000000000000r		; 0
	DQ	00000000000000000r		; 0
	DQ	00000000000000000r		; 0
	DD	00H
?vecUseSoundFileName$initializer$@@3P6AXXZA DD FLAT:??__EvecUseSoundFileName@@YAXXZ ; vecUseSoundFileName$initializer$
?vecDropSoundFileName$initializer$@@3P6AXXZA DD FLAT:??__EvecDropSoundFileName@@YAXXZ ; vecDropSoundFileName$initializer$
?vecEffectList$initializer$@@3P6AXXZA DD FLAT:??__EvecEffectList@@YAXXZ ; vecEffectList$initializer$
?characterNameColors$initializer$@@3P6AXXZA DD FLAT:??__EcharacterNameColors@@YAXXZ ; characterNameColors$initializer$
?characterTitleColors$initializer$@@3P6AXXZA DD FLAT:??__EcharacterTitleColors@@YAXXZ ; characterTitleColors$initializer$
?characterTitleSystemColors$initializer$@@3P6AXXZA DD FLAT:??__EcharacterTitleSystemColors@@YAXXZ ; characterTitleSystemColors$initializer$
?emotionIcons$initializer$@@3P6AXXZA DD FLAT:??__EemotionIcons@@YAXXZ ; emotionIcons$initializer$
?skillIndexes$initializer$@@3P6AXXZA DD FLAT:??__EskillIndexes@@YAXXZ ; skillIndexes$initializer$
?guildSkills$initializer$@@3P6AXXZA DD FLAT:??__EguildSkills@@YAXXZ ; guildSkills$initializer$
; Function compile flags: /Ogtp
; File C:\Anka2Project\Anka2Project\Source\Binary\source\UserInterface\PythonNetworkStreamPhaseHandShake.cpp
; File C:\Program Files\Microsoft Visual Studio\2022\Community\VC\Tools\MSVC\14.44.35207\include\xstring
; File C:\Anka2Project\Anka2Project\Source\Binary\source\UserInterface\PythonNetworkStreamPhaseHandShake.cpp
; File C:\Anka2Project\Anka2Project\Source\Binary\source\EterLib\FuncObject.h
; File C:\Anka2Project\Anka2Project\Source\Binary\source\UserInterface\PythonNetworkStreamPhaseHandShake.cpp
; File C:\Program Files\Microsoft Visual Studio\2022\Community\VC\Tools\MSVC\14.44.35207\include\xstring
; File C:\Anka2Project\Anka2Project\Source\Binary\source\UserInterface\PythonNetworkStreamPhaseHandShake.cpp
; File C:\Anka2Project\Anka2Project\Source\Binary\source\EterLib\FuncObject.h
; File C:\Anka2Project\Anka2Project\Source\Binary\source\UserInterface\PythonNetworkStreamPhaseHandShake.cpp
;	COMDAT ?SetHandShakePhase@CPythonNetworkStream@@QAEXXZ
_TEXT	SEGMENT
?SetHandShakePhase@CPythonNetworkStream@@QAEXXZ PROC	; CPythonNetworkStream::SetHandShakePhase, COMDAT
; _this$ = ecx

; 70   : {

  00000	51		 push	 ecx
  00001	56		 push	 esi
  00002	8b f1		 mov	 esi, ecx
  00004	57		 push	 edi
; File C:\Program Files\Microsoft Visual Studio\2022\Community\VC\Tools\MSVC\14.44.35207\include\xstring

; 453  :         return _Myres > _Small_string_capacity;

  00005	83 be 28 01 00
	00 0f		 cmp	 DWORD PTR [esi+296], 15	; 0000000fH

; 444  :         const value_type* _Result = _Bx._Buf;

  0000c	8d 86 14 01 00
	00		 lea	 eax, DWORD PTR [esi+276]

; 445  :         if (_Large_mode_engaged()) {

  00012	76 06		 jbe	 SHORT $LN16@SetHandSha

; 446  :             _Result = _Unfancy(_Bx._Ptr);

  00014	8b 86 14 01 00
	00		 mov	 eax, DWORD PTR [esi+276]
$LN16@SetHandSha:

; 2854 :         return _Traits_equal<_Traits>(_Mypair._Myval2._Myptr(), _Mypair._Myval2._Mysize, _Ptr, _Traits::length(_Ptr));

  0001a	6a 09		 push	 9
  0001c	68 00 00 00 00	 push	 OFFSET ??_C@_09JMFCPCNF@HandShake@
  00021	ff b6 24 01 00
	00		 push	 DWORD PTR [esi+292]
  00027	50		 push	 eax
  00028	e8 00 00 00 00	 call	 ??$_Traits_equal@U?$char_traits@D@std@@@std@@YA_NQBDI0I@Z ; std::_Traits_equal<std::char_traits<char> >
  0002d	83 c4 10	 add	 esp, 16			; 00000010H
; File C:\Anka2Project\Anka2Project\Source\Binary\source\UserInterface\PythonNetworkStreamPhaseHandShake.cpp

; 71   : 	if ("HandShake"!=m_strPhase)

  00030	84 c0		 test	 al, al
  00032	75 1e		 jne	 SHORT $LN24@SetHandSha
; File C:\Anka2Project\Anka2Project\Source\Binary\source\EterLib\FuncObject.h

; 41   : 			if (m_pSelfObject)

  00034	8b 86 70 01 00
	00		 mov	 eax, DWORD PTR [esi+368]
  0003a	85 c0		 test	 eax, eax
  0003c	74 14		 je	 SHORT $LN24@SetHandSha

; 42   : 				if (m_pFuncObject)

  0003e	8b 96 78 01 00
	00		 mov	 edx, DWORD PTR [esi+376]
  00044	85 d2		 test	 edx, edx
  00046	74 0a		 je	 SHORT $LN24@SetHandSha

; 43   : 					(m_pSelfObject->*m_pFuncObject)();

  00048	8b 8e 7c 01 00
	00		 mov	 ecx, DWORD PTR [esi+380]
  0004e	03 c8		 add	 ecx, eax
  00050	ff d2		 call	 edx
$LN24@SetHandSha:
; File C:\Anka2Project\Anka2Project\Source\Binary\source\UserInterface\PythonNetworkStreamPhaseHandShake.cpp

; 74   : 	Tracen("");

  00052	68 00 00 00 00	 push	 OFFSET ??_C@_00CNPNBAHC@@
  00057	e8 00 00 00 00	 call	 ?Tracen@@YAXPBD@Z	; Tracen
  0005c	83 c4 04	 add	 esp, 4

; 75   : 	Tracen("## Network - Hand Shake Phase ##");

  0005f	68 00 00 00 00	 push	 OFFSET ??_C@_0CB@IOMBLCGI@?$CD?$CD?5Network?5?9?5Hand?5Shake?5Phase?5?$CD@
  00064	e8 00 00 00 00	 call	 ?Tracen@@YAXPBD@Z	; Tracen
  00069	83 c4 04	 add	 esp, 4

; 76   : 	Tracen("");

  0006c	68 00 00 00 00	 push	 OFFSET ??_C@_00CNPNBAHC@@
  00071	e8 00 00 00 00	 call	 ?Tracen@@YAXPBD@Z	; Tracen
  00076	83 c4 04	 add	 esp, 4
; File C:\Program Files\Microsoft Visual Studio\2022\Community\VC\Tools\MSVC\14.44.35207\include\xstring

; 1638 :         return assign(_Ptr, _Convert_size<size_type>(_Traits::length(_Ptr)));

  00079	8d 8e 14 01 00
	00		 lea	 ecx, DWORD PTR [esi+276]
  0007f	6a 09		 push	 9
  00081	68 00 00 00 00	 push	 OFFSET ??_C@_09JMFCPCNF@HandShake@
  00086	e8 00 00 00 00	 call	 ?assign@?$basic_string@DU?$char_traits@D@std@@V?$allocator@D@2@@std@@QAEAAV12@QBDI@Z ; std::basic_string<char,std::char_traits<char>,std::allocator<char> >::assign
; File C:\Anka2Project\Anka2Project\Source\Binary\source\UserInterface\PythonNetworkStreamPhaseHandShake.cpp

; 80   : 	m_dwChangingPhaseTime = ELTimer_GetMSec();

  0008b	e8 00 00 00 00	 call	 ?ELTimer_GetMSec@@YAKXZ	; ELTimer_GetMSec
  00090	89 86 8c 00 00
	00		 mov	 DWORD PTR [esi+140], eax

; 84   : 	SetGameOnline();

  00096	8b ce		 mov	 ecx, esi
; File C:\Anka2Project\Anka2Project\Source\Binary\source\EterLib\FuncObject.h

; 24   : 			m_pSelfObject = pSelfObject;

  00098	89 b6 58 01 00
	00		 mov	 DWORD PTR [esi+344], esi

; 25   : 			m_pFuncObject = pFuncObject;

  0009e	c7 86 60 01 00
	00 00 00 00 00	 mov	 DWORD PTR [esi+352], OFFSET ?HandShakePhase@CPythonNetworkStream@@IAEXXZ ; CPythonNetworkStream::HandShakePhase
  000a8	c7 86 64 01 00
	00 00 00 00 00	 mov	 DWORD PTR [esi+356], 0

; 24   : 			m_pSelfObject = pSelfObject;

  000b2	89 b6 70 01 00
	00		 mov	 DWORD PTR [esi+368], esi

; 25   : 			m_pFuncObject = pFuncObject;

  000b8	c7 86 78 01 00
	00 00 00 00 00	 mov	 DWORD PTR [esi+376], OFFSET ?__LeaveHandshakePhase@CPythonNetworkStream@@IAEXXZ ; CPythonNetworkStream::__LeaveHandshakePhase
  000c2	c7 86 7c 01 00
	00 00 00 00 00	 mov	 DWORD PTR [esi+380], 0
; File C:\Anka2Project\Anka2Project\Source\Binary\source\UserInterface\PythonNetworkStreamPhaseHandShake.cpp

; 84   : 	SetGameOnline();

  000cc	e8 00 00 00 00	 call	 ?SetGameOnline@CPythonNetworkStream@@IAEXXZ ; CPythonNetworkStream::SetGameOnline

; 85   : 
; 86   : 	if (__DirectEnterMode_IsSet())

  000d1	e8 00 00 00 00	 call	 ?__DirectEnterMode_IsSet@CPythonNetworkStream@@AAE_NXZ ; CPythonNetworkStream::__DirectEnterMode_IsSet
  000d6	84 c0		 test	 al, al
  000d8	75 22		 jne	 SHORT $LN4@SetHandSha

; 87   : 	{
; 88   : 		// None
; 89   : 	}
; 90   : 	else
; 91   : 	{
; 92   : 		PyCallClassMemberFunc(m_apoPhaseWnd[PHASE_WINDOW_LOGIN], "OnHandShake", Py_BuildValue("()"));

  000da	68 00 00 00 00	 push	 OFFSET ??_C@_02HCKGKOFO@?$CI?$CJ@
  000df	ff 15 00 00 00
	00		 call	 DWORD PTR __imp__Py_BuildValue
  000e5	83 c4 04	 add	 esp, 4
  000e8	50		 push	 eax
  000e9	68 00 00 00 00	 push	 OFFSET ??_C@_0M@EEFIMJHD@OnHandShake@
  000ee	ff b6 88 01 00
	00		 push	 DWORD PTR [esi+392]
  000f4	e8 00 00 00 00	 call	 ?PyCallClassMemberFunc@@YA_NPAU_object@@PBD0@Z ; PyCallClassMemberFunc
  000f9	83 c4 0c	 add	 esp, 12			; 0000000cH
$LN4@SetHandSha:

; 93   : 	}
; 94   : }

  000fc	5f		 pop	 edi
  000fd	5e		 pop	 esi
  000fe	59		 pop	 ecx
  000ff	c3		 ret	 0
?SetHandShakePhase@CPythonNetworkStream@@QAEXXZ ENDP	; CPythonNetworkStream::SetHandShakePhase
_TEXT	ENDS
END
