; Listing generated by Microsoft (R) Optimizing Compiler Version 19.44.35219.0 

	TITLE	c:\anka2project\anka2project\source\binary\vs_files\userinterface\release\pythonnetworkstreamcommand.obj
	.686P
	.XMM
	include listing.inc
	.model	flat

INCLUDELIB OLDNAMES

PUBLIC	??_C@_02KEGNLNML@?0?5@				; `string'
PUBLIC	??_C@_0O@NGPLKLCI@ConsoleEnable@		; `string'
PUBLIC	??_C@_01BJJEKLCA@?$CC@				; `string'
PUBLIC	??_C@_04KNNLNNGO@quit@				; `string'
PUBLIC	??_C@_0BJ@GKNJMEFC@BINARY_ServerCommand_Run@	; `string'
PUBLIC	??_C@_0FD@MGEFFJHF@CPythonNetworkStream?3?3ServerCom@ ; `string'
PUBLIC	??_C@_0N@JEPOMHGB@BettingMoney@			; `string'
PUBLIC	??_C@_09MBHMFCFC@Gift_Show@			; `string'
PUBLIC	??_C@_04FDOIBAFG@gift@				; `string'
PUBLIC	??_C@_04OIHHNFHN@cube@				; `string'
PUBLIC	??_C@_09MMOBFBOD@auto_hunt@			; `string'
PUBLIC	??_C@_05LBOHBHFK@close@				; `string'
PUBLIC	??_C@_0BB@OJMMNJOG@BINARY_Cube_Open@		; `string'
PUBLIC	??_C@_04NIDJFNBE@info@				; `string'
PUBLIC	??_C@_0BC@PIJLHOMJ@BINARY_Cube_Close@		; `string'
PUBLIC	??_C@_0BH@DMGJNFKF@BINARY_Cube_UpdateInfo@	; `string'
PUBLIC	??_C@_05HEIOBLPG@?$CIiii?$CJ@			; `string'
PUBLIC	??_C@_0BE@HLNHNAAA@BINARY_Cube_Succeed@		; `string'
PUBLIC	??_C@_07IPNMCAN@success@			; `string'
PUBLIC	??_C@_0BD@IKENMBNJ@BINARY_Cube_Failed@		; `string'
PUBLIC	??_C@_04CCHLMOGN@fail@				; `string'
PUBLIC	??_C@_0FD@MDMGNNOD@CPythonNetworkStream?3?3ServerCom@ ; `string'
PUBLIC	??_C@_06ODLEBDJP@r_list@			; `string'
PUBLIC	??_C@_06JEMOOCHA@m_info@			; `string'
PUBLIC	??_C@_0BH@JONCIELM@BINARY_Cube_ResultList@	; `string'
PUBLIC	??_C@_0O@HADNNBFL@ObserverCount@		; `string'
PUBLIC	??_C@_0BJ@DLFAEHHE@BINARY_Cube_MaterialInfo@	; `string'
PUBLIC	??_C@_0N@EBGNMPMN@ObserverMode@			; `string'
PUBLIC	??_C@_0CL@MFEDAABM@BINARY_BettingGuildWar_UpdateOb@ ; `string'
PUBLIC	??_C@_0BD@MOHAGFLO@OfflineShopSetFlag@		; `string'
PUBLIC	??_C@_0CH@OENJEHPK@BINARY_BettingGuildWar_SetObser@ ; `string'
PUBLIC	??_C@_0BB@MALBLMJA@ObserverTeamInfo@		; `string'
PUBLIC	??_C@_0BD@ONBKDON@RefreshOfflineShop@		; `string'
PUBLIC	??_C@_0BC@LPPJJIKI@BINARY_Cards_Open@		; `string'
PUBLIC	??_C@_05OOPFFMIL@cards@				; `string'
PUBLIC	??_C@_0BI@MDGMJFNB@BINARY_Cards_UpdateInfo@	; `string'
PUBLIC	??_C@_0P@KIOAGGHK@?$CIiiiiiiiiiiii?$CJ@		; `string'
PUBLIC	??_C@_09JPACMNJH@?$CIiiiiiii?$CJ@		; `string'
PUBLIC	??_C@_05HBHEOHON@finfo@				; `string'
PUBLIC	??_C@_06NPNBMBEO@reward@			; `string'
PUBLIC	??_C@_0BN@IKHHNCEI@BINARY_Cards_FieldUpdateInfo@ ; `string'
PUBLIC	??_C@_04DMJJIPAH@icon@				; `string'
PUBLIC	??_C@_0BH@GELOKGEA@BINARY_Cards_PutReward@	; `string'
PUBLIC	??_C@_0BG@HEDPDHJK@BINARY_OpenWarpWindow@	; `string'
PUBLIC	??_C@_0BG@EEPJBDEM@BINARY_Cards_ShowIcon@	; `string'
PUBLIC	??_C@_0DD@COMEEBAO@StoneDetect?5?$FLVID?3?$CFd?$FN?5?$FLDistance?3@ ; `string'
PUBLIC	??_C@_0M@EEGHHMDP@StoneDetect@			; `string'
PUBLIC	??_C@_0DB@CJFLAJFC@d?3?1ymir?5work?1effect?1etc?1firecra@ ; `string'
PUBLIC	??_C@_0EJ@MCLCAHNB@CPythonNetworkStream?3?3ServerCom@ ; `string'
PUBLIC	??_C@_0DC@MDCBLGBM@d?3?1ymir?5work?1effect?1etc?1compass@ ; `string'
PUBLIC	??_C@_0DB@KDMGCNFI@d?3?1ymir?5work?1effect?1etc?1compass@ ; `string'
PUBLIC	??_C@_0EH@NKAADCPI@CPythonNetworkStream?3?3ServerCom@ ; `string'
PUBLIC	??_C@_0DB@EEGLDHND@d?3?1ymir?5work?1effect?1etc?1compass@ ; `string'
PUBLIC	??_C@_0BD@IEDOLMCO@StopStaminaConsume@		; `string'
PUBLIC	??_C@_0BE@FMEJBOHN@StartStaminaConsume@		; `string'
PUBLIC	??_C@_0BN@HFJFNDOJ@OnMessengerAddFriendQuestion@ ; `string'
PUBLIC	??_C@_0P@EGMHBKG@messenger_auth@		; `string'
PUBLIC	??_C@_0N@OCOPIGOC@setblockmode@			; `string'
PUBLIC	??_C@_05LLEFIEMM@combo@				; `string'
PUBLIC	??_C@_0M@KHOIJDFJ@french_kiss@			; `string'
PUBLIC	??_C@_0M@KBLDJFEH@OnBlockMode@			; `string'
PUBLIC	??_C@_04JAHFACKH@slap@				; `string'
PUBLIC	??_C@_04MDLEAKAL@kiss@				; `string'
PUBLIC	??_C@_06PAGILPEO@cheer1@			; `string'
PUBLIC	??_C@_04PAJFJFCF@clap@				; `string'
PUBLIC	??_C@_06FJBCALDA@dance1@			; `string'
PUBLIC	??_C@_06NLEFOMIN@cheer2@			; `string'
PUBLIC	??_C@_0L@MMJCNAM@dig_motion@			; `string'
PUBLIC	??_C@_06HCDPFIPD@dance2@			; `string'
PUBLIC	??_C@_06GLCEGJLC@dance3@			; `string'
PUBLIC	??_C@_0M@FGFACKME@horse_state@			; `string'
PUBLIC	??_C@_06DNHOMODE@dance5@			; `string'
PUBLIC	??_C@_06CEGFPPHF@dance4@			; `string'
PUBLIC	??_C@_0P@KFFKPMLJ@congratulation@		; `string'
PUBLIC	??_C@_06BGFDJNPH@dance6@			; `string'
PUBLIC	??_C@_06PEIKMLG@dance7@				; `string'
PUBLIC	??_C@_06PKCJCJAA@selfie@			; `string'
PUBLIC	??_C@_08DJFCJGOI@exercise@			; `string'
PUBLIC	??_C@_04HHMGEMFO@doze@				; `string'
PUBLIC	??_C@_07CPIFOEHD@worship@			; `string'
PUBLIC	??_C@_06OIPBPKGG@pushup@			; `string'
PUBLIC	??_C@_0L@FDKNDBIE@breakdance@			; `string'
PUBLIC	??_C@_08KAPEAILI@backflip@			; `string'
PUBLIC	??_C@_03HECBOIIF@dab@				; `string'
PUBLIC	??_C@_06IINALAHJ@dance8@			; `string'
PUBLIC	??_C@_07EODDNBGI@fuckoff@			; `string'
PUBLIC	??_C@_08CDHPCMMM@facepalm@			; `string'
PUBLIC	??_C@_08FCMNLMBD@shake_it@			; `string'
PUBLIC	??_C@_04DFPFPABN@wank@				; `string'
PUBLIC	??_C@_06JBMLIBDI@dance9@			; `string'
PUBLIC	??_C@_0M@IPAPFJDN@throw_money@			; `string'
PUBLIC	??_C@_05JJCABFLI@samba@				; `string'
PUBLIC	??_C@_05EIPICEDH@twerk@				; `string'
PUBLIC	??_C@_05EAMCHGIO@slow2@				; `string'
PUBLIC	??_C@_06LICIMHCO@shimmy@			; `string'
PUBLIC	??_C@_05BFMHFDOK@flair@				; `string'
PUBLIC	??_C@_09FLAALDCI@bestmates@			; `string'
PUBLIC	??_C@_0L@MPHGGMML@robotdance@			; `string'
PUBLIC	??_C@_05MIDLJBNE@horon@				; `string'
PUBLIC	??_C@_0L@NFPFHLMN@surprised2@			; `string'
PUBLIC	??_C@_08JGINAFBJ@snowball@			; `string'
PUBLIC	??_C@_05KEOOPKLE@angry@				; `string'
PUBLIC	??_C@_07JCIHIBLI@forgive@			; `string'
PUBLIC	??_C@_03OPLFCACF@sad@				; `string'
PUBLIC	??_C@_0L@BIJBGJBO@attractive@			; `string'
PUBLIC	??_C@_07MJDIFIMC@cheerup@			; `string'
PUBLIC	??_C@_03BPAIHHLG@shy@				; `string'
PUBLIC	??_C@_03DHFGHJCG@joy@				; `string'
PUBLIC	??_C@_06CMFIENOK@banter@			; `string'
PUBLIC	??_C@_0BP@HJIPKFJO@Unknown?5Server?5Command?5?$CFs?5?$HM?5?$CFs@ ; `string'
PUBLIC	?ms_singleton@?$CSingleton@VCPythonShop@@@@0PAVCPythonShop@@A ; CSingleton<CPythonShop>::ms_singleton
EXTRN	__strcmpi:PROC
EXTRN	?PyCallClassMemberFunc@@YA_NPAU_object@@PBD0PA_N@Z:PROC ; PyCallClassMemberFunc
EXTRN	_isspace:PROC
;	COMDAT ?ms_singleton@?$CSingleton@VCPythonShop@@@@0PAVCPythonShop@@A
_BSS	SEGMENT
?ms_singleton@?$CSingleton@VCPythonShop@@@@0PAVCPythonShop@@A DD 01H DUP (?) ; CSingleton<CPythonShop>::ms_singleton
_BSS	ENDS
;	COMDAT ?s_isFirst@?BAB@??ServerCommand@CPythonNetworkStream@@QAEXPAD@Z@4_NA
_DATA	SEGMENT
?s_isFirst@?BAB@??ServerCommand@CPythonNetworkStream@@QAEXPAD@Z@4_NA DB 01H ; `CPythonNetworkStream::ServerCommand'::`257'::s_isFirst
_DATA	ENDS
;	COMDAT ??_C@_0BP@HJIPKFJO@Unknown?5Server?5Command?5?$CFs?5?$HM?5?$CFs@
CONST	SEGMENT
??_C@_0BP@HJIPKFJO@Unknown?5Server?5Command?5?$CFs?5?$HM?5?$CFs@ DB 'Unkn'
	DB	'own Server Command %s | %s', 00H		; `string'
CONST	ENDS
;	COMDAT ??_C@_06CMFIENOK@banter@
CONST	SEGMENT
??_C@_06CMFIENOK@banter@ DB 'banter', 00H		; `string'
CONST	ENDS
;	COMDAT ??_C@_03DHFGHJCG@joy@
CONST	SEGMENT
??_C@_03DHFGHJCG@joy@ DB 'joy', 00H			; `string'
CONST	ENDS
;	COMDAT ??_C@_03BPAIHHLG@shy@
CONST	SEGMENT
??_C@_03BPAIHHLG@shy@ DB 'shy', 00H			; `string'
CONST	ENDS
;	COMDAT ??_C@_07MJDIFIMC@cheerup@
CONST	SEGMENT
??_C@_07MJDIFIMC@cheerup@ DB 'cheerup', 00H		; `string'
CONST	ENDS
;	COMDAT ??_C@_0L@BIJBGJBO@attractive@
CONST	SEGMENT
??_C@_0L@BIJBGJBO@attractive@ DB 'attractive', 00H	; `string'
CONST	ENDS
;	COMDAT ??_C@_03OPLFCACF@sad@
CONST	SEGMENT
??_C@_03OPLFCACF@sad@ DB 'sad', 00H			; `string'
CONST	ENDS
;	COMDAT ??_C@_07JCIHIBLI@forgive@
CONST	SEGMENT
??_C@_07JCIHIBLI@forgive@ DB 'forgive', 00H		; `string'
CONST	ENDS
;	COMDAT ??_C@_05KEOOPKLE@angry@
CONST	SEGMENT
??_C@_05KEOOPKLE@angry@ DB 'angry', 00H			; `string'
CONST	ENDS
;	COMDAT ??_C@_08JGINAFBJ@snowball@
CONST	SEGMENT
??_C@_08JGINAFBJ@snowball@ DB 'snowball', 00H		; `string'
CONST	ENDS
;	COMDAT ??_C@_0L@NFPFHLMN@surprised2@
CONST	SEGMENT
??_C@_0L@NFPFHLMN@surprised2@ DB 'surprised2', 00H	; `string'
CONST	ENDS
;	COMDAT ??_C@_05MIDLJBNE@horon@
CONST	SEGMENT
??_C@_05MIDLJBNE@horon@ DB 'horon', 00H			; `string'
CONST	ENDS
;	COMDAT ??_C@_0L@MPHGGMML@robotdance@
CONST	SEGMENT
??_C@_0L@MPHGGMML@robotdance@ DB 'robotdance', 00H	; `string'
CONST	ENDS
;	COMDAT ??_C@_09FLAALDCI@bestmates@
CONST	SEGMENT
??_C@_09FLAALDCI@bestmates@ DB 'bestmates', 00H		; `string'
CONST	ENDS
;	COMDAT ??_C@_05BFMHFDOK@flair@
CONST	SEGMENT
??_C@_05BFMHFDOK@flair@ DB 'flair', 00H			; `string'
CONST	ENDS
;	COMDAT ??_C@_06LICIMHCO@shimmy@
CONST	SEGMENT
??_C@_06LICIMHCO@shimmy@ DB 'shimmy', 00H		; `string'
CONST	ENDS
;	COMDAT ??_C@_05EAMCHGIO@slow2@
CONST	SEGMENT
??_C@_05EAMCHGIO@slow2@ DB 'slow2', 00H			; `string'
CONST	ENDS
;	COMDAT ??_C@_05EIPICEDH@twerk@
CONST	SEGMENT
??_C@_05EIPICEDH@twerk@ DB 'twerk', 00H			; `string'
CONST	ENDS
;	COMDAT ??_C@_05JJCABFLI@samba@
CONST	SEGMENT
??_C@_05JJCABFLI@samba@ DB 'samba', 00H			; `string'
CONST	ENDS
;	COMDAT ??_C@_0M@IPAPFJDN@throw_money@
CONST	SEGMENT
??_C@_0M@IPAPFJDN@throw_money@ DB 'throw_money', 00H	; `string'
CONST	ENDS
;	COMDAT ??_C@_06JBMLIBDI@dance9@
CONST	SEGMENT
??_C@_06JBMLIBDI@dance9@ DB 'dance9', 00H		; `string'
CONST	ENDS
;	COMDAT ??_C@_04DFPFPABN@wank@
CONST	SEGMENT
??_C@_04DFPFPABN@wank@ DB 'wank', 00H			; `string'
CONST	ENDS
;	COMDAT ??_C@_08FCMNLMBD@shake_it@
CONST	SEGMENT
??_C@_08FCMNLMBD@shake_it@ DB 'shake_it', 00H		; `string'
CONST	ENDS
;	COMDAT ??_C@_08CDHPCMMM@facepalm@
CONST	SEGMENT
??_C@_08CDHPCMMM@facepalm@ DB 'facepalm', 00H		; `string'
CONST	ENDS
;	COMDAT ??_C@_07EODDNBGI@fuckoff@
CONST	SEGMENT
??_C@_07EODDNBGI@fuckoff@ DB 'fuckoff', 00H		; `string'
CONST	ENDS
;	COMDAT ??_C@_06IINALAHJ@dance8@
CONST	SEGMENT
??_C@_06IINALAHJ@dance8@ DB 'dance8', 00H		; `string'
CONST	ENDS
;	COMDAT ??_C@_03HECBOIIF@dab@
CONST	SEGMENT
??_C@_03HECBOIIF@dab@ DB 'dab', 00H			; `string'
CONST	ENDS
;	COMDAT ??_C@_08KAPEAILI@backflip@
CONST	SEGMENT
??_C@_08KAPEAILI@backflip@ DB 'backflip', 00H		; `string'
CONST	ENDS
;	COMDAT ??_C@_0L@FDKNDBIE@breakdance@
CONST	SEGMENT
??_C@_0L@FDKNDBIE@breakdance@ DB 'breakdance', 00H	; `string'
CONST	ENDS
;	COMDAT ??_C@_06OIPBPKGG@pushup@
CONST	SEGMENT
??_C@_06OIPBPKGG@pushup@ DB 'pushup', 00H		; `string'
CONST	ENDS
;	COMDAT ??_C@_07CPIFOEHD@worship@
CONST	SEGMENT
??_C@_07CPIFOEHD@worship@ DB 'worship', 00H		; `string'
CONST	ENDS
;	COMDAT ??_C@_04HHMGEMFO@doze@
CONST	SEGMENT
??_C@_04HHMGEMFO@doze@ DB 'doze', 00H			; `string'
CONST	ENDS
;	COMDAT ??_C@_08DJFCJGOI@exercise@
CONST	SEGMENT
??_C@_08DJFCJGOI@exercise@ DB 'exercise', 00H		; `string'
CONST	ENDS
;	COMDAT ??_C@_06PKCJCJAA@selfie@
CONST	SEGMENT
??_C@_06PKCJCJAA@selfie@ DB 'selfie', 00H		; `string'
CONST	ENDS
;	COMDAT ??_C@_06PEIKMLG@dance7@
CONST	SEGMENT
??_C@_06PEIKMLG@dance7@ DB 'dance7', 00H		; `string'
CONST	ENDS
;	COMDAT ??_C@_06BGFDJNPH@dance6@
CONST	SEGMENT
??_C@_06BGFDJNPH@dance6@ DB 'dance6', 00H		; `string'
CONST	ENDS
;	COMDAT ??_C@_0P@KFFKPMLJ@congratulation@
CONST	SEGMENT
??_C@_0P@KFFKPMLJ@congratulation@ DB 'congratulation', 00H ; `string'
CONST	ENDS
;	COMDAT ??_C@_06CEGFPPHF@dance4@
CONST	SEGMENT
??_C@_06CEGFPPHF@dance4@ DB 'dance4', 00H		; `string'
CONST	ENDS
;	COMDAT ??_C@_06DNHOMODE@dance5@
CONST	SEGMENT
??_C@_06DNHOMODE@dance5@ DB 'dance5', 00H		; `string'
CONST	ENDS
;	COMDAT ??_C@_0M@FGFACKME@horse_state@
CONST	SEGMENT
??_C@_0M@FGFACKME@horse_state@ DB 'horse_state', 00H	; `string'
CONST	ENDS
;	COMDAT ??_C@_06GLCEGJLC@dance3@
CONST	SEGMENT
??_C@_06GLCEGJLC@dance3@ DB 'dance3', 00H		; `string'
CONST	ENDS
;	COMDAT ??_C@_06HCDPFIPD@dance2@
CONST	SEGMENT
??_C@_06HCDPFIPD@dance2@ DB 'dance2', 00H		; `string'
CONST	ENDS
;	COMDAT ??_C@_0L@MMJCNAM@dig_motion@
CONST	SEGMENT
??_C@_0L@MMJCNAM@dig_motion@ DB 'dig_motion', 00H	; `string'
CONST	ENDS
;	COMDAT ??_C@_06NLEFOMIN@cheer2@
CONST	SEGMENT
??_C@_06NLEFOMIN@cheer2@ DB 'cheer2', 00H		; `string'
CONST	ENDS
;	COMDAT ??_C@_06FJBCALDA@dance1@
CONST	SEGMENT
??_C@_06FJBCALDA@dance1@ DB 'dance1', 00H		; `string'
CONST	ENDS
;	COMDAT ??_C@_04PAJFJFCF@clap@
CONST	SEGMENT
??_C@_04PAJFJFCF@clap@ DB 'clap', 00H			; `string'
CONST	ENDS
;	COMDAT ??_C@_06PAGILPEO@cheer1@
CONST	SEGMENT
??_C@_06PAGILPEO@cheer1@ DB 'cheer1', 00H		; `string'
CONST	ENDS
;	COMDAT ??_C@_04MDLEAKAL@kiss@
CONST	SEGMENT
??_C@_04MDLEAKAL@kiss@ DB 'kiss', 00H			; `string'
CONST	ENDS
;	COMDAT ??_C@_04JAHFACKH@slap@
CONST	SEGMENT
??_C@_04JAHFACKH@slap@ DB 'slap', 00H			; `string'
CONST	ENDS
;	COMDAT ??_C@_0M@KBLDJFEH@OnBlockMode@
CONST	SEGMENT
??_C@_0M@KBLDJFEH@OnBlockMode@ DB 'OnBlockMode', 00H	; `string'
CONST	ENDS
;	COMDAT ??_C@_0M@KHOIJDFJ@french_kiss@
CONST	SEGMENT
??_C@_0M@KHOIJDFJ@french_kiss@ DB 'french_kiss', 00H	; `string'
CONST	ENDS
;	COMDAT ??_C@_05LLEFIEMM@combo@
CONST	SEGMENT
??_C@_05LLEFIEMM@combo@ DB 'combo', 00H			; `string'
CONST	ENDS
;	COMDAT ??_C@_0N@OCOPIGOC@setblockmode@
CONST	SEGMENT
??_C@_0N@OCOPIGOC@setblockmode@ DB 'setblockmode', 00H	; `string'
CONST	ENDS
;	COMDAT ??_C@_0P@EGMHBKG@messenger_auth@
CONST	SEGMENT
??_C@_0P@EGMHBKG@messenger_auth@ DB 'messenger_auth', 00H ; `string'
CONST	ENDS
;	COMDAT ??_C@_0BN@HFJFNDOJ@OnMessengerAddFriendQuestion@
CONST	SEGMENT
??_C@_0BN@HFJFNDOJ@OnMessengerAddFriendQuestion@ DB 'OnMessengerAddFriend'
	DB	'Question', 00H				; `string'
CONST	ENDS
;	COMDAT ??_C@_0BE@FMEJBOHN@StartStaminaConsume@
CONST	SEGMENT
??_C@_0BE@FMEJBOHN@StartStaminaConsume@ DB 'StartStaminaConsume', 00H ; `string'
CONST	ENDS
;	COMDAT ??_C@_0BD@IEDOLMCO@StopStaminaConsume@
CONST	SEGMENT
??_C@_0BD@IEDOLMCO@StopStaminaConsume@ DB 'StopStaminaConsume', 00H ; `string'
CONST	ENDS
;	COMDAT ??_C@_0DB@EEGLDHND@d?3?1ymir?5work?1effect?1etc?1compass@
CONST	SEGMENT
??_C@_0DB@EEGLDHND@d?3?1ymir?5work?1effect?1etc?1compass@ DB 'd:/ymir wor'
	DB	'k/effect/etc/compass/appear_large.mse', 00H	; `string'
CONST	ENDS
;	COMDAT ??_C@_0EH@NKAADCPI@CPythonNetworkStream?3?3ServerCom@
CONST	SEGMENT
??_C@_0EH@NKAADCPI@CPythonNetworkStream?3?3ServerCom@ DB 'CPythonNetworkS'
	DB	'tream::ServerCommand(c_szCommand=%s) - Strange Distance', 00H ; `string'
CONST	ENDS
;	COMDAT ??_C@_0DB@KDMGCNFI@d?3?1ymir?5work?1effect?1etc?1compass@
CONST	SEGMENT
??_C@_0DB@KDMGCNFI@d?3?1ymir?5work?1effect?1etc?1compass@ DB 'd:/ymir wor'
	DB	'k/effect/etc/compass/appear_small.mse', 00H	; `string'
CONST	ENDS
;	COMDAT ??_C@_0DC@MDCBLGBM@d?3?1ymir?5work?1effect?1etc?1compass@
CONST	SEGMENT
??_C@_0DC@MDCBLGBM@d?3?1ymir?5work?1effect?1etc?1compass@ DB 'd:/ymir wor'
	DB	'k/effect/etc/compass/appear_middle.mse', 00H ; `string'
CONST	ENDS
;	COMDAT ??_C@_0EJ@MCLCAHNB@CPythonNetworkStream?3?3ServerCom@
CONST	SEGMENT
??_C@_0EJ@MCLCAHNB@CPythonNetworkStream?3?3ServerCom@ DB 'CPythonNetworkS'
	DB	'tream::ServerCommand(c_szCommand=%s) - Not Exist Instance', 00H ; `string'
CONST	ENDS
;	COMDAT ??_C@_0DB@CJFLAJFC@d?3?1ymir?5work?1effect?1etc?1firecra@
CONST	SEGMENT
??_C@_0DB@CJFLAJFC@d?3?1ymir?5work?1effect?1etc?1firecra@ DB 'd:/ymir wor'
	DB	'k/effect/etc/firecracker/find_out.mse', 00H	; `string'
CONST	ENDS
;	COMDAT ??_C@_0M@EEGHHMDP@StoneDetect@
CONST	SEGMENT
??_C@_0M@EEGHHMDP@StoneDetect@ DB 'StoneDetect', 00H	; `string'
CONST	ENDS
;	COMDAT ??_C@_0DD@COMEEBAO@StoneDetect?5?$FLVID?3?$CFd?$FN?5?$FLDistance?3@
CONST	SEGMENT
??_C@_0DD@COMEEBAO@StoneDetect?5?$FLVID?3?$CFd?$FN?5?$FLDistance?3@ DB 'S'
	DB	'toneDetect [VID:%d] [Distance:%d] [Angle:%d->%f]', 0aH, 00H ; `string'
CONST	ENDS
;	COMDAT ??_C@_0BG@EEPJBDEM@BINARY_Cards_ShowIcon@
CONST	SEGMENT
??_C@_0BG@EEPJBDEM@BINARY_Cards_ShowIcon@ DB 'BINARY_Cards_ShowIcon', 00H ; `string'
CONST	ENDS
;	COMDAT ??_C@_0BG@HEDPDHJK@BINARY_OpenWarpWindow@
CONST	SEGMENT
??_C@_0BG@HEDPDHJK@BINARY_OpenWarpWindow@ DB 'BINARY_OpenWarpWindow', 00H ; `string'
CONST	ENDS
;	COMDAT ??_C@_0BH@GELOKGEA@BINARY_Cards_PutReward@
CONST	SEGMENT
??_C@_0BH@GELOKGEA@BINARY_Cards_PutReward@ DB 'BINARY_Cards_PutReward', 00H ; `string'
CONST	ENDS
;	COMDAT ??_C@_04DMJJIPAH@icon@
CONST	SEGMENT
??_C@_04DMJJIPAH@icon@ DB 'icon', 00H			; `string'
CONST	ENDS
;	COMDAT ??_C@_0BN@IKHHNCEI@BINARY_Cards_FieldUpdateInfo@
CONST	SEGMENT
??_C@_0BN@IKHHNCEI@BINARY_Cards_FieldUpdateInfo@ DB 'BINARY_Cards_FieldUp'
	DB	'dateInfo', 00H				; `string'
CONST	ENDS
;	COMDAT ??_C@_06NPNBMBEO@reward@
CONST	SEGMENT
??_C@_06NPNBMBEO@reward@ DB 'reward', 00H		; `string'
CONST	ENDS
;	COMDAT ??_C@_05HBHEOHON@finfo@
CONST	SEGMENT
??_C@_05HBHEOHON@finfo@ DB 'finfo', 00H			; `string'
CONST	ENDS
;	COMDAT ??_C@_09JPACMNJH@?$CIiiiiiii?$CJ@
CONST	SEGMENT
??_C@_09JPACMNJH@?$CIiiiiiii?$CJ@ DB '(iiiiiii)', 00H	; `string'
CONST	ENDS
;	COMDAT ??_C@_0P@KIOAGGHK@?$CIiiiiiiiiiiii?$CJ@
CONST	SEGMENT
??_C@_0P@KIOAGGHK@?$CIiiiiiiiiiiii?$CJ@ DB '(iiiiiiiiiiii)', 00H ; `string'
CONST	ENDS
;	COMDAT ??_C@_0BI@MDGMJFNB@BINARY_Cards_UpdateInfo@
CONST	SEGMENT
??_C@_0BI@MDGMJFNB@BINARY_Cards_UpdateInfo@ DB 'BINARY_Cards_UpdateInfo', 00H ; `string'
CONST	ENDS
;	COMDAT ??_C@_05OOPFFMIL@cards@
CONST	SEGMENT
??_C@_05OOPFFMIL@cards@ DB 'cards', 00H			; `string'
CONST	ENDS
;	COMDAT ??_C@_0BC@LPPJJIKI@BINARY_Cards_Open@
CONST	SEGMENT
??_C@_0BC@LPPJJIKI@BINARY_Cards_Open@ DB 'BINARY_Cards_Open', 00H ; `string'
CONST	ENDS
;	COMDAT ??_C@_0BD@ONBKDON@RefreshOfflineShop@
CONST	SEGMENT
??_C@_0BD@ONBKDON@RefreshOfflineShop@ DB 'RefreshOfflineShop', 00H ; `string'
CONST	ENDS
;	COMDAT ??_C@_0BB@MALBLMJA@ObserverTeamInfo@
CONST	SEGMENT
??_C@_0BB@MALBLMJA@ObserverTeamInfo@ DB 'ObserverTeamInfo', 00H ; `string'
CONST	ENDS
;	COMDAT ??_C@_0CH@OENJEHPK@BINARY_BettingGuildWar_SetObser@
CONST	SEGMENT
??_C@_0CH@OENJEHPK@BINARY_BettingGuildWar_SetObser@ DB 'BINARY_BettingGui'
	DB	'ldWar_SetObserverMode', 00H			; `string'
CONST	ENDS
;	COMDAT ??_C@_0BD@MOHAGFLO@OfflineShopSetFlag@
CONST	SEGMENT
??_C@_0BD@MOHAGFLO@OfflineShopSetFlag@ DB 'OfflineShopSetFlag', 00H ; `string'
CONST	ENDS
;	COMDAT ??_C@_0CL@MFEDAABM@BINARY_BettingGuildWar_UpdateOb@
CONST	SEGMENT
??_C@_0CL@MFEDAABM@BINARY_BettingGuildWar_UpdateOb@ DB 'BINARY_BettingGui'
	DB	'ldWar_UpdateObserverCount', 00H		; `string'
CONST	ENDS
;	COMDAT ??_C@_0N@EBGNMPMN@ObserverMode@
CONST	SEGMENT
??_C@_0N@EBGNMPMN@ObserverMode@ DB 'ObserverMode', 00H	; `string'
CONST	ENDS
;	COMDAT ??_C@_0BJ@DLFAEHHE@BINARY_Cube_MaterialInfo@
CONST	SEGMENT
??_C@_0BJ@DLFAEHHE@BINARY_Cube_MaterialInfo@ DB 'BINARY_Cube_MaterialInfo'
	DB	00H						; `string'
CONST	ENDS
;	COMDAT ??_C@_0O@HADNNBFL@ObserverCount@
CONST	SEGMENT
??_C@_0O@HADNNBFL@ObserverCount@ DB 'ObserverCount', 00H ; `string'
CONST	ENDS
;	COMDAT ??_C@_0BH@JONCIELM@BINARY_Cube_ResultList@
CONST	SEGMENT
??_C@_0BH@JONCIELM@BINARY_Cube_ResultList@ DB 'BINARY_Cube_ResultList', 00H ; `string'
CONST	ENDS
;	COMDAT ??_C@_06JEMOOCHA@m_info@
CONST	SEGMENT
??_C@_06JEMOOCHA@m_info@ DB 'm_info', 00H		; `string'
CONST	ENDS
;	COMDAT ??_C@_06ODLEBDJP@r_list@
CONST	SEGMENT
??_C@_06ODLEBDJP@r_list@ DB 'r_list', 00H		; `string'
CONST	ENDS
;	COMDAT ??_C@_0FD@MDMGNNOD@CPythonNetworkStream?3?3ServerCom@
CONST	SEGMENT
??_C@_0FD@MDMGNNOD@CPythonNetworkStream?3?3ServerCom@ DB 'CPythonNetworkS'
	DB	'tream::ServerCommand(c_szCommand=%s) - Strange Parameter Coun'
	DB	't : %d', 00H				; `string'
CONST	ENDS
;	COMDAT ??_C@_04CCHLMOGN@fail@
CONST	SEGMENT
??_C@_04CCHLMOGN@fail@ DB 'fail', 00H			; `string'
CONST	ENDS
;	COMDAT ??_C@_0BD@IKENMBNJ@BINARY_Cube_Failed@
CONST	SEGMENT
??_C@_0BD@IKENMBNJ@BINARY_Cube_Failed@ DB 'BINARY_Cube_Failed', 00H ; `string'
CONST	ENDS
;	COMDAT ??_C@_07IPNMCAN@success@
CONST	SEGMENT
??_C@_07IPNMCAN@success@ DB 'success', 00H		; `string'
CONST	ENDS
;	COMDAT ??_C@_0BE@HLNHNAAA@BINARY_Cube_Succeed@
CONST	SEGMENT
??_C@_0BE@HLNHNAAA@BINARY_Cube_Succeed@ DB 'BINARY_Cube_Succeed', 00H ; `string'
CONST	ENDS
;	COMDAT ??_C@_05HEIOBLPG@?$CIiii?$CJ@
CONST	SEGMENT
??_C@_05HEIOBLPG@?$CIiii?$CJ@ DB '(iii)', 00H		; `string'
CONST	ENDS
;	COMDAT ??_C@_0BH@DMGJNFKF@BINARY_Cube_UpdateInfo@
CONST	SEGMENT
??_C@_0BH@DMGJNFKF@BINARY_Cube_UpdateInfo@ DB 'BINARY_Cube_UpdateInfo', 00H ; `string'
CONST	ENDS
;	COMDAT ??_C@_0BC@PIJLHOMJ@BINARY_Cube_Close@
CONST	SEGMENT
??_C@_0BC@PIJLHOMJ@BINARY_Cube_Close@ DB 'BINARY_Cube_Close', 00H ; `string'
CONST	ENDS
;	COMDAT ??_C@_04NIDJFNBE@info@
CONST	SEGMENT
??_C@_04NIDJFNBE@info@ DB 'info', 00H			; `string'
CONST	ENDS
;	COMDAT ??_C@_0BB@OJMMNJOG@BINARY_Cube_Open@
CONST	SEGMENT
??_C@_0BB@OJMMNJOG@BINARY_Cube_Open@ DB 'BINARY_Cube_Open', 00H ; `string'
CONST	ENDS
;	COMDAT ??_C@_05LBOHBHFK@close@
CONST	SEGMENT
??_C@_05LBOHBHFK@close@ DB 'close', 00H			; `string'
CONST	ENDS
;	COMDAT ??_C@_09MMOBFBOD@auto_hunt@
CONST	SEGMENT
??_C@_09MMOBFBOD@auto_hunt@ DB 'auto_hunt', 00H		; `string'
CONST	ENDS
;	COMDAT ??_C@_04OIHHNFHN@cube@
CONST	SEGMENT
??_C@_04OIHHNFHN@cube@ DB 'cube', 00H			; `string'
CONST	ENDS
;	COMDAT ??_C@_04FDOIBAFG@gift@
CONST	SEGMENT
??_C@_04FDOIBAFG@gift@ DB 'gift', 00H			; `string'
CONST	ENDS
;	COMDAT ??_C@_09MBHMFCFC@Gift_Show@
CONST	SEGMENT
??_C@_09MBHMFCFC@Gift_Show@ DB 'Gift_Show', 00H		; `string'
CONST	ENDS
;	COMDAT ??_C@_0N@JEPOMHGB@BettingMoney@
CONST	SEGMENT
??_C@_0N@JEPOMHGB@BettingMoney@ DB 'BettingMoney', 00H	; `string'
CONST	ENDS
;	COMDAT ??_C@_0FD@MGEFFJHF@CPythonNetworkStream?3?3ServerCom@
CONST	SEGMENT
??_C@_0FD@MGEFFJHF@CPythonNetworkStream?3?3ServerCom@ DB 'CPythonNetworkS'
	DB	'tream::ServerCommand(c_szCommand=%s) - Strange Parameter Coun'
	DB	't : %s', 00H				; `string'
CONST	ENDS
;	COMDAT ??_C@_0BJ@GKNJMEFC@BINARY_ServerCommand_Run@
CONST	SEGMENT
??_C@_0BJ@GKNJMEFC@BINARY_ServerCommand_Run@ DB 'BINARY_ServerCommand_Run'
	DB	00H						; `string'
CONST	ENDS
;	COMDAT ??_C@_04KNNLNNGO@quit@
CONST	SEGMENT
??_C@_04KNNLNNGO@quit@ DB 'quit', 00H			; `string'
CONST	ENDS
;	COMDAT ??_C@_01BJJEKLCA@?$CC@
CONST	SEGMENT
??_C@_01BJJEKLCA@?$CC@ DB '"', 00H			; `string'
CONST	ENDS
;	COMDAT ??_C@_0O@NGPLKLCI@ConsoleEnable@
CONST	SEGMENT
??_C@_0O@NGPLKLCI@ConsoleEnable@ DB 'ConsoleEnable', 00H ; `string'
CONST	ENDS
;	COMDAT ??_C@_02KEGNLNML@?0?5@
CONST	SEGMENT
??_C@_02KEGNLNML@?0?5@ DB ', ', 00H			; `string'
PUBLIC	??1_Simple_reallocation_guard@?$vector@V?$basic_string@DU?$char_traits@D@std@@V?$allocator@D@2@@std@@V?$allocator@V?$basic_string@DU?$char_traits@D@std@@V?$allocator@D@2@@std@@@2@@std@@QAE@XZ ; std::vector<std::basic_string<char,std::char_traits<char>,std::allocator<char> >,std::allocator<std::basic_string<char,std::char_traits<char>,std::allocator<char> > > >::_Simple_reallocation_guard::~_Simple_reallocation_guard
PUBLIC	??$_Traits_find_first_not_of@U?$char_traits@D@std@@@std@@YAIQBDII0I@Z ; std::_Traits_find_first_not_of<std::char_traits<char> >
PUBLIC	??$_Reallocate@$0A@@?$vector@V?$basic_string@DU?$char_traits@D@std@@V?$allocator@D@2@@std@@V?$allocator@V?$basic_string@DU?$char_traits@D@std@@V?$allocator@D@2@@std@@@2@@std@@AAEXAAI@Z ; std::vector<std::basic_string<char,std::char_traits<char>,std::allocator<char> >,std::allocator<std::basic_string<char,std::char_traits<char>,std::allocator<char> > > >::_Reallocate<0>
PUBLIC	?find_first_not_of@?$basic_string@DU?$char_traits@D@std@@V?$allocator@D@2@@std@@QBEIQBDI@Z ; std::basic_string<char,std::char_traits<char>,std::allocator<char> >::find_first_not_of
PUBLIC	?reserve@?$vector@V?$basic_string@DU?$char_traits@D@std@@V?$allocator@D@2@@std@@V?$allocator@V?$basic_string@DU?$char_traits@D@std@@V?$allocator@D@2@@std@@@2@@std@@QAEXI@Z ; std::vector<std::basic_string<char,std::char_traits<char>,std::allocator<char> >,std::allocator<std::basic_string<char,std::char_traits<char>,std::allocator<char> > > >::reserve
PUBLIC	?GetSingleton@?$TAbstractSingleton@VIAbstractCharacterManager@@@@SAAAVIAbstractCharacterManager@@XZ ; TAbstractSingleton<IAbstractCharacterManager>::GetSingleton
PUBLIC	?Instance@?$CSingleton@VCPythonShop@@@@SAAAVCPythonShop@@XZ ; CSingleton<CPythonShop>::Instance
PUBLIC	?ServerCommand@CPythonNetworkStream@@QAEXPAD@Z	; CPythonNetworkStream::ServerCommand
PUBLIC	?SplitToken@@YA_NPBDPAV?$vector@V?$basic_string@DU?$char_traits@D@std@@V?$allocator@D@2@@std@@V?$allocator@V?$basic_string@DU?$char_traits@D@std@@V?$allocator@D@2@@std@@@2@@std@@0@Z ; SplitToken
PUBLIC	?ClientCommand@CPythonNetworkStream@@QAE_NPBD@Z	; CPythonNetworkStream::ClientCommand
PUBLIC	?SetShopFlag@CPythonShop@@QAEX_K@Z		; CPythonShop::SetShopFlag
;	COMDAT ?$TSS0@?BAB@??ServerCommand@CPythonNetworkStream@@QAEXPAD@Z@4HA
_BSS	SEGMENT
?$TSS0@?BAB@??ServerCommand@CPythonNetworkStream@@QAEXPAD@Z@4HA DD 01H DUP (?) ; `CPythonNetworkStream::ServerCommand'::`257'::$TSS0
_BSS	ENDS
;	COMDAT ?s_emotionDict@?BAB@??ServerCommand@CPythonNetworkStream@@QAEXPAD@Z@4V?$map@V?$basic_string@DU?$char_traits@D@std@@V?$allocator@D@2@@std@@HU?$less@V?$basic_string@DU?$char_traits@D@std@@V?$allocator@D@2@@std@@@2@V?$allocator@U?$pair@$$CBV?$basic_string@DU?$char_traits@D@std@@V?$allocator@D@2@@std@@H@std@@@2@@std@@A
_BSS	SEGMENT
?s_emotionDict@?BAB@??ServerCommand@CPythonNetworkStream@@QAEXPAD@Z@4V?$map@V?$basic_string@DU?$char_traits@D@std@@V?$allocator@D@2@@std@@HU?$less@V?$basic_string@DU?$char_traits@D@std@@V?$allocator@D@2@@std@@@2@V?$allocator@U?$pair@$$CBV?$basic_string@DU?$char_traits@D@std@@V?$allocator@D@2@@std@@H@std@@@2@@std@@A DQ 01H DUP (?) ; `CPythonNetworkStream::ServerCommand'::`257'::s_emotionDict
_BSS	ENDS
;	COMDAT xdata$x
xdata$x	SEGMENT
__ehfuncinfo$?SplitToken@@YA_NPBDPAV?$vector@V?$basic_string@DU?$char_traits@D@std@@V?$allocator@D@2@@std@@V?$allocator@V?$basic_string@DU?$char_traits@D@std@@V?$allocator@D@2@@std@@@2@@std@@0@Z DQ 00000000319930522r ; 6.57797e-314
	DD	FLAT:__unwindtable$?SplitToken@@YA_NPBDPAV?$vector@V?$basic_string@DU?$char_traits@D@std@@V?$allocator@D@2@@std@@V?$allocator@V?$basic_string@DU?$char_traits@D@std@@V?$allocator@D@2@@std@@@2@@std@@0@Z
	DQ	00000000000000000r		; 0
	DQ	00000000000000000r		; 0
	DQ	00000000100000000r		; 2.122e-314
__unwindtable$?SplitToken@@YA_NPBDPAV?$vector@V?$basic_string@DU?$char_traits@D@std@@V?$allocator@D@2@@std@@V?$allocator@V?$basic_string@DU?$char_traits@D@std@@V?$allocator@D@2@@std@@@2@@std@@0@Z DD 0ffffffffH
	DD	FLAT:__unwindfunclet$?SplitToken@@YA_NPBDPAV?$vector@V?$basic_string@DU?$char_traits@D@std@@V?$allocator@D@2@@std@@V?$allocator@V?$basic_string@DU?$char_traits@D@std@@V?$allocator@D@2@@std@@@2@@std@@0@Z$0
	DD	00H
	DD	FLAT:__unwindfunclet$?SplitToken@@YA_NPBDPAV?$vector@V?$basic_string@DU?$char_traits@D@std@@V?$allocator@D@2@@std@@V?$allocator@V?$basic_string@DU?$char_traits@D@std@@V?$allocator@D@2@@std@@@2@@std@@0@Z$1
	DD	01H
	DD	FLAT:__unwindfunclet$?SplitToken@@YA_NPBDPAV?$vector@V?$basic_string@DU?$char_traits@D@std@@V?$allocator@D@2@@std@@V?$allocator@V?$basic_string@DU?$char_traits@D@std@@V?$allocator@D@2@@std@@@2@@std@@0@Z$2
xdata$x	ENDS
;	COMDAT xdata$x
xdata$x	SEGMENT
__ehfuncinfo$?ServerCommand@CPythonNetworkStream@@QAEXPAD@Z DD 019930522H
	DD	02aH
	DD	FLAT:__unwindtable$?ServerCommand@CPythonNetworkStream@@QAEXPAD@Z
	DD	2 DUP(00H)
	DD	2 DUP(00H)
	DD	00H
	DD	01H
	ORG $+4
__unwindtable$?ServerCommand@CPythonNetworkStream@@QAEXPAD@Z DD 0ffffffffH
	DD	FLAT:__unwindfunclet$?ServerCommand@CPythonNetworkStream@@QAEXPAD@Z$0
	DD	00H
	DD	FLAT:__unwindfunclet$?ServerCommand@CPythonNetworkStream@@QAEXPAD@Z$1
	DD	00H
	DD	FLAT:__unwindfunclet$?ServerCommand@CPythonNetworkStream@@QAEXPAD@Z$2
	DD	00H
	DD	FLAT:__unwindfunclet$?ServerCommand@CPythonNetworkStream@@QAEXPAD@Z$3
	DD	00H
	DD	FLAT:__unwindfunclet$?ServerCommand@CPythonNetworkStream@@QAEXPAD@Z$4
	DD	00H
	DD	FLAT:__unwindfunclet$?ServerCommand@CPythonNetworkStream@@QAEXPAD@Z$5
	DD	00H
	DD	FLAT:__unwindfunclet$?ServerCommand@CPythonNetworkStream@@QAEXPAD@Z$6
	DD	00H
	DD	FLAT:__unwindfunclet$?ServerCommand@CPythonNetworkStream@@QAEXPAD@Z$7
	DD	00H
	DD	FLAT:__unwindfunclet$?ServerCommand@CPythonNetworkStream@@QAEXPAD@Z$8
	DD	00H
	DD	FLAT:__unwindfunclet$?ServerCommand@CPythonNetworkStream@@QAEXPAD@Z$9
	DD	00H
	DD	FLAT:__unwindfunclet$?ServerCommand@CPythonNetworkStream@@QAEXPAD@Z$10
	DD	00H
	DD	FLAT:__unwindfunclet$?ServerCommand@CPythonNetworkStream@@QAEXPAD@Z$11
	DD	00H
	DD	FLAT:__unwindfunclet$?ServerCommand@CPythonNetworkStream@@QAEXPAD@Z$12
	DD	00H
	DD	FLAT:__unwindfunclet$?ServerCommand@CPythonNetworkStream@@QAEXPAD@Z$13
	DD	00H
	DD	FLAT:__unwindfunclet$?ServerCommand@CPythonNetworkStream@@QAEXPAD@Z$14
	DD	00H
	DD	FLAT:__unwindfunclet$?ServerCommand@CPythonNetworkStream@@QAEXPAD@Z$15
	DD	00H
	DD	FLAT:__unwindfunclet$?ServerCommand@CPythonNetworkStream@@QAEXPAD@Z$16
	DD	00H
	DD	FLAT:__unwindfunclet$?ServerCommand@CPythonNetworkStream@@QAEXPAD@Z$17
	DD	00H
	DD	FLAT:__unwindfunclet$?ServerCommand@CPythonNetworkStream@@QAEXPAD@Z$18
	DD	00H
	DD	FLAT:__unwindfunclet$?ServerCommand@CPythonNetworkStream@@QAEXPAD@Z$19
	DD	00H
	DD	FLAT:__unwindfunclet$?ServerCommand@CPythonNetworkStream@@QAEXPAD@Z$20
	DD	00H
	DD	FLAT:__unwindfunclet$?ServerCommand@CPythonNetworkStream@@QAEXPAD@Z$21
	DD	00H
	DD	FLAT:__unwindfunclet$?ServerCommand@CPythonNetworkStream@@QAEXPAD@Z$22
	DD	00H
	DD	FLAT:__unwindfunclet$?ServerCommand@CPythonNetworkStream@@QAEXPAD@Z$23
	DD	00H
	DD	FLAT:__unwindfunclet$?ServerCommand@CPythonNetworkStream@@QAEXPAD@Z$24
	DD	00H
	DD	FLAT:__unwindfunclet$?ServerCommand@CPythonNetworkStream@@QAEXPAD@Z$25
	DD	00H
	DD	FLAT:__unwindfunclet$?ServerCommand@CPythonNetworkStream@@QAEXPAD@Z$26
	DD	00H
	DD	FLAT:__unwindfunclet$?ServerCommand@CPythonNetworkStream@@QAEXPAD@Z$27
	DD	00H
	DD	FLAT:__unwindfunclet$?ServerCommand@CPythonNetworkStream@@QAEXPAD@Z$28
	DD	00H
	DD	FLAT:__unwindfunclet$?ServerCommand@CPythonNetworkStream@@QAEXPAD@Z$29
	DD	00H
	DD	FLAT:__unwindfunclet$?ServerCommand@CPythonNetworkStream@@QAEXPAD@Z$30
	DD	00H
	DD	FLAT:__unwindfunclet$?ServerCommand@CPythonNetworkStream@@QAEXPAD@Z$31
	DD	00H
	DD	FLAT:__unwindfunclet$?ServerCommand@CPythonNetworkStream@@QAEXPAD@Z$32
	DD	00H
	DD	FLAT:__unwindfunclet$?ServerCommand@CPythonNetworkStream@@QAEXPAD@Z$33
	DD	00H
	DD	FLAT:__unwindfunclet$?ServerCommand@CPythonNetworkStream@@QAEXPAD@Z$34
	DD	00H
	DD	FLAT:__unwindfunclet$?ServerCommand@CPythonNetworkStream@@QAEXPAD@Z$35
	DD	00H
	DD	FLAT:__unwindfunclet$?ServerCommand@CPythonNetworkStream@@QAEXPAD@Z$36
	DD	00H
	DD	FLAT:__unwindfunclet$?ServerCommand@CPythonNetworkStream@@QAEXPAD@Z$37
	DD	00H
	DD	FLAT:__unwindfunclet$?ServerCommand@CPythonNetworkStream@@QAEXPAD@Z$38
	DD	00H
	DD	FLAT:__unwindfunclet$?ServerCommand@CPythonNetworkStream@@QAEXPAD@Z$39
	DD	00H
	DD	FLAT:__unwindfunclet$?ServerCommand@CPythonNetworkStream@@QAEXPAD@Z$40
	DD	00H
	DD	FLAT:__unwindfunclet$?ServerCommand@CPythonNetworkStream@@QAEXPAD@Z$41
; Function compile flags: /Ogtp
; File C:\Anka2Project\Anka2Project\Source\Binary\source\UserInterface\PythonNetworkStreamCommand.cpp
; File C:\Program Files\Microsoft Visual Studio\2022\Community\VC\Tools\MSVC\14.44.35207\include\vector
; File C:\Anka2Project\Anka2Project\Source\Binary\source\UserInterface\PythonNetworkStreamCommand.cpp
; File C:\Program Files\Microsoft Visual Studio\2022\Community\VC\Tools\MSVC\14.44.35207\include\vector
; File C:\Anka2Project\Anka2Project\Source\Binary\source\UserInterface\PythonNetworkStreamCommand.cpp
; File C:\Program Files\Microsoft Visual Studio\2022\Community\VC\Tools\MSVC\14.44.35207\include\xstring
; File C:\Anka2Project\Anka2Project\Source\Binary\source\UserInterface\PythonNetworkStreamCommand.cpp
; File C:\Anka2Project\Anka2Project\Source\Binary\source\eterBase\Singleton.h
; File C:\Anka2Project\Anka2Project\Source\Binary\source\UserInterface\PythonNetworkStreamCommand.cpp
; File C:\Program Files\Microsoft Visual Studio\2022\Community\VC\Tools\MSVC\14.44.35207\include\vector
; File C:\Anka2Project\Anka2Project\Source\Binary\source\UserInterface\PythonNetworkStreamCommand.cpp
; File C:\Program Files\Microsoft Visual Studio\2022\Community\VC\Tools\MSVC\14.44.35207\include\vector
; File C:\Program Files\Microsoft Visual Studio\2022\Community\VC\Tools\MSVC\14.44.35207\include\xstring
; File C:\Anka2Project\Anka2Project\Source\Binary\source\UserInterface\PythonNetworkStreamCommand.cpp
; File C:\Program Files\Microsoft Visual Studio\2022\Community\VC\Tools\MSVC\14.44.35207\include\vector
; File C:\Program Files\Microsoft Visual Studio\2022\Community\VC\Tools\MSVC\14.44.35207\include\xstring
; File C:\Anka2Project\Anka2Project\Source\Binary\source\UserInterface\PythonNetworkStreamCommand.cpp
; File C:\Program Files\Microsoft Visual Studio\2022\Community\VC\Tools\MSVC\14.44.35207\include\xstring
; File C:\Anka2Project\Anka2Project\Source\Binary\source\UserInterface\PythonNetworkStreamCommand.cpp
; File C:\Program Files\Microsoft Visual Studio\2022\Community\VC\Tools\MSVC\14.44.35207\include\vector
; File C:\Program Files\Microsoft Visual Studio\2022\Community\VC\Tools\MSVC\14.44.35207\include\xstring
; File C:\Anka2Project\Anka2Project\Source\Binary\source\UserInterface\PythonNetworkStreamCommand.cpp
; File C:\Program Files\Microsoft Visual Studio\2022\Community\VC\Tools\MSVC\14.44.35207\include\vector
; File C:\Program Files\Microsoft Visual Studio\2022\Community\VC\Tools\MSVC\14.44.35207\include\xstring
; File C:\Anka2Project\Anka2Project\Source\Binary\source\UserInterface\PythonNetworkStreamCommand.cpp
; File C:\Program Files\Microsoft Visual Studio\2022\Community\VC\Tools\MSVC\14.44.35207\include\vector
; File C:\Anka2Project\Anka2Project\Source\Binary\source\UserInterface\PythonNetworkStreamCommand.cpp
; File C:\Program Files\Microsoft Visual Studio\2022\Community\VC\Tools\MSVC\14.44.35207\include\vector
; File C:\Anka2Project\Anka2Project\Source\Binary\source\UserInterface\PythonNetworkStreamCommand.cpp
; File C:\Program Files\Microsoft Visual Studio\2022\Community\VC\Tools\MSVC\14.44.35207\include\xstring
; File C:\Anka2Project\Anka2Project\Source\Binary\source\UserInterface\PythonNetworkStreamCommand.cpp
; File C:\Program Files\Microsoft Visual Studio\2022\Community\VC\Tools\MSVC\14.44.35207\include\vector
; File C:\Anka2Project\Anka2Project\Source\Binary\source\UserInterface\PythonNetworkStreamCommand.cpp
; File C:\Program Files\Microsoft Visual Studio\2022\Community\VC\Tools\MSVC\14.44.35207\include\vector
; File C:\Anka2Project\Anka2Project\Source\Binary\source\UserInterface\PythonNetworkStreamCommand.cpp
; File C:\Program Files\Microsoft Visual Studio\2022\Community\VC\Tools\MSVC\14.44.35207\include\xstring
; File C:\Anka2Project\Anka2Project\Source\Binary\source\UserInterface\PythonNetworkStreamCommand.cpp
; File C:\Program Files\Microsoft Visual Studio\2022\Community\VC\Tools\MSVC\14.44.35207\include\xstring
; File C:\Program Files\Microsoft Visual Studio\2022\Community\VC\Tools\MSVC\14.44.35207\include\vector
; File C:\Program Files\Microsoft Visual Studio\2022\Community\VC\Tools\MSVC\14.44.35207\include\xstring
; File C:\Anka2Project\Anka2Project\Source\Binary\source\UserInterface\PythonNetworkStreamCommand.cpp
; File C:\Program Files\Microsoft Visual Studio\2022\Community\VC\Tools\MSVC\14.44.35207\include\vector
; File C:\Program Files\Microsoft Visual Studio\2022\Community\VC\Tools\MSVC\14.44.35207\include\xstring
; File C:\Anka2Project\Anka2Project\Source\Binary\source\UserInterface\PythonNetworkStreamCommand.cpp
; File C:\Program Files\Microsoft Visual Studio\2022\Community\VC\Tools\MSVC\14.44.35207\include\vector
; File C:\Anka2Project\Anka2Project\Source\Binary\source\UserInterface\PythonNetworkStreamCommand.cpp
; File C:\Program Files\Microsoft Visual Studio\2022\Community\VC\Tools\MSVC\14.44.35207\include\vector
; File C:\Anka2Project\Anka2Project\Source\Binary\source\UserInterface\PythonNetworkStreamCommand.cpp
; File C:\Program Files\Microsoft Visual Studio\2022\Community\VC\Tools\MSVC\14.44.35207\include\xstring
; File C:\Anka2Project\Anka2Project\Source\Binary\source\UserInterface\PythonNetworkStreamCommand.cpp
; File C:\Program Files\Microsoft Visual Studio\2022\Community\VC\Tools\MSVC\14.44.35207\include\vector
; File C:\Program Files\Microsoft Visual Studio\2022\Community\VC\Tools\MSVC\14.44.35207\include\xstring
; File C:\Anka2Project\Anka2Project\Source\Binary\source\UserInterface\PythonNetworkStreamCommand.cpp
; File C:\Program Files\Microsoft Visual Studio\2022\Community\VC\Tools\MSVC\14.44.35207\include\vector
; File C:\Program Files\Microsoft Visual Studio\2022\Community\VC\Tools\MSVC\14.44.35207\include\xstring
; File C:\Anka2Project\Anka2Project\Source\Binary\source\UserInterface\PythonNetworkStreamCommand.cpp
; File C:\Program Files\Microsoft Visual Studio\2022\Community\VC\Tools\MSVC\14.44.35207\include\vector
; File C:\Program Files\Microsoft Visual Studio\2022\Community\VC\Tools\MSVC\14.44.35207\include\xstring
; File C:\Anka2Project\Anka2Project\Source\Binary\source\UserInterface\PythonNetworkStreamCommand.cpp
; File C:\Program Files\Microsoft Visual Studio\2022\Community\VC\Tools\MSVC\14.44.35207\include\vector
; File C:\Anka2Project\Anka2Project\Source\Binary\source\UserInterface\PythonNetworkStreamCommand.cpp
; File C:\Program Files\Microsoft Visual Studio\2022\Community\VC\Tools\MSVC\14.44.35207\include\vector
; File C:\Program Files\Microsoft Visual Studio\2022\Community\VC\Tools\MSVC\14.44.35207\include\xstring
; File C:\Anka2Project\Anka2Project\Source\Binary\source\UserInterface\PythonNetworkStreamCommand.cpp
; File C:\Program Files\Microsoft Visual Studio\2022\Community\VC\Tools\MSVC\14.44.35207\include\xstring
; File C:\Program Files\Microsoft Visual Studio\2022\Community\VC\Tools\MSVC\14.44.35207\include\vector
; File C:\Program Files\Microsoft Visual Studio\2022\Community\VC\Tools\MSVC\14.44.35207\include\xstring
; File C:\Anka2Project\Anka2Project\Source\Binary\source\UserInterface\PythonNetworkStreamCommand.cpp
; File C:\Program Files\Microsoft Visual Studio\2022\Community\VC\Tools\MSVC\14.44.35207\include\vector
; File C:\Program Files\Microsoft Visual Studio\2022\Community\VC\Tools\MSVC\14.44.35207\include\xstring
; File C:\Anka2Project\Anka2Project\Source\Binary\source\UserInterface\PythonNetworkStreamCommand.cpp
; File C:\Program Files\Microsoft Visual Studio\2022\Community\VC\Tools\MSVC\14.44.35207\include\vector
; File C:\Anka2Project\Anka2Project\Source\Binary\source\UserInterface\PythonNetworkStreamCommand.cpp
; File C:\Program Files\Microsoft Visual Studio\2022\Community\VC\Tools\MSVC\14.44.35207\include\vector
; File C:\Anka2Project\Anka2Project\Source\Binary\source\UserInterface\PythonNetworkStreamCommand.cpp
; File C:\Program Files\Microsoft Visual Studio\2022\Community\VC\Tools\MSVC\14.44.35207\include\xstring
; File C:\Anka2Project\Anka2Project\Source\Binary\source\UserInterface\PythonNetworkStreamCommand.cpp
; File C:\Program Files\Microsoft Visual Studio\2022\Community\VC\Tools\MSVC\14.44.35207\include\vector
; File C:\Anka2Project\Anka2Project\Source\Binary\source\UserInterface\PythonNetworkStreamCommand.cpp
; File C:\Program Files\Microsoft Visual Studio\2022\Community\VC\Tools\MSVC\14.44.35207\include\vector
; File C:\Program Files\Microsoft Visual Studio\2022\Community\VC\Tools\MSVC\14.44.35207\include\xstring
; File C:\Anka2Project\Anka2Project\Source\Binary\source\UserInterface\PythonNetworkStreamCommand.cpp
; File C:\Program Files\Microsoft Visual Studio\2022\Community\VC\Tools\MSVC\14.44.35207\include\xstring
; File C:\Program Files\Microsoft Visual Studio\2022\Community\VC\Tools\MSVC\14.44.35207\include\vector
; File C:\Program Files\Microsoft Visual Studio\2022\Community\VC\Tools\MSVC\14.44.35207\include\xstring
; File C:\Anka2Project\Anka2Project\Source\Binary\source\UserInterface\PythonNetworkStreamCommand.cpp
; File C:\Program Files\Microsoft Visual Studio\2022\Community\VC\Tools\MSVC\14.44.35207\include\xstring
; File C:\Program Files\Microsoft Visual Studio\2022\Community\VC\Tools\MSVC\14.44.35207\include\vector
; File C:\Program Files\Microsoft Visual Studio\2022\Community\VC\Tools\MSVC\14.44.35207\include\xstring
; File C:\Anka2Project\Anka2Project\Source\Binary\source\UserInterface\PythonNetworkStreamCommand.cpp
; File C:\Anka2Project\Anka2Project\Source\Binary\source\UserInterface\AbstractSingleton.h
; File C:\Anka2Project\Anka2Project\Source\Binary\source\UserInterface\PythonNetworkStreamCommand.cpp
; File C:\Anka2Project\Anka2Project\Source\Binary\source\UserInterface\AbstractSingleton.h
; File C:\Anka2Project\Anka2Project\Source\Binary\source\UserInterface\PythonNetworkStreamCommand.cpp
; File C:\Program Files\Microsoft Visual Studio\2022\Community\VC\Tools\MSVC\14.44.35207\include\vector
; File C:\Program Files\Microsoft Visual Studio\2022\Community\VC\Tools\MSVC\14.44.35207\include\xstring
; File C:\Anka2Project\Anka2Project\Source\Binary\source\UserInterface\PythonNetworkStreamCommand.cpp
; File C:\Anka2Project\Anka2Project\Source\Binary\source\eterBase\Singleton.h
; File C:\Anka2Project\Anka2Project\Source\Binary\source\UserInterface\PythonNetworkStreamCommand.cpp
; File C:\Anka2Project\Anka2Project\Source\Binary\source\eterBase\Singleton.h
; File C:\Anka2Project\Anka2Project\Source\Binary\source\UserInterface\PythonNetworkStreamCommand.cpp
; File C:\Program Files\Microsoft Visual Studio\2022\Community\VC\Tools\MSVC\14.44.35207\include\vector
; File C:\Anka2Project\Anka2Project\Source\Binary\source\UserInterface\PythonNetworkStreamCommand.cpp
; File C:\Program Files\Microsoft Visual Studio\2022\Community\VC\Tools\MSVC\14.44.35207\include\vector
; File C:\Program Files\Microsoft Visual Studio\2022\Community\VC\Tools\MSVC\14.44.35207\include\xstring
; File C:\Anka2Project\Anka2Project\Source\Binary\source\UserInterface\PythonNetworkStreamCommand.cpp
; File C:\Program Files\Microsoft Visual Studio\2022\Community\VC\Tools\MSVC\14.44.35207\include\vector
; File C:\Program Files\Microsoft Visual Studio\2022\Community\VC\Tools\MSVC\14.44.35207\include\xstring
; File C:\Anka2Project\Anka2Project\Source\Binary\source\UserInterface\PythonNetworkStreamCommand.cpp
; File C:\Program Files\Microsoft Visual Studio\2022\Community\VC\Tools\MSVC\14.44.35207\include\xstring
; File C:\Anka2Project\Anka2Project\Source\Binary\source\UserInterface\PythonNetworkStreamCommand.cpp
; File C:\Program Files\Microsoft Visual Studio\2022\Community\VC\Tools\MSVC\14.44.35207\include\vector
; File C:\Program Files\Microsoft Visual Studio\2022\Community\VC\Tools\MSVC\14.44.35207\include\xstring
; File C:\Anka2Project\Anka2Project\Source\Binary\source\UserInterface\PythonNetworkStreamCommand.cpp
; File C:\Program Files\Microsoft Visual Studio\2022\Community\VC\Tools\MSVC\14.44.35207\include\vector
; File C:\Anka2Project\Anka2Project\Source\Binary\source\UserInterface\PythonNetworkStreamCommand.cpp
; File C:\Program Files\Microsoft Visual Studio\2022\Community\VC\Tools\MSVC\14.44.35207\include\vector
; File C:\Anka2Project\Anka2Project\Source\Binary\source\UserInterface\PythonNetworkStreamCommand.cpp
; File C:\Program Files\Microsoft Visual Studio\2022\Community\VC\Tools\MSVC\14.44.35207\include\xstring
; File C:\Anka2Project\Anka2Project\Source\Binary\source\UserInterface\PythonNetworkStreamCommand.cpp
; File C:\Program Files\Microsoft Visual Studio\2022\Community\VC\Tools\MSVC\14.44.35207\include\vector
; File C:\Anka2Project\Anka2Project\Source\Binary\source\UserInterface\PythonNetworkStreamCommand.cpp
; File C:\Program Files\Microsoft Visual Studio\2022\Community\VC\Tools\MSVC\14.44.35207\include\vector
; File C:\Anka2Project\Anka2Project\Source\Binary\source\UserInterface\PythonNetworkStreamCommand.cpp
; File C:\Program Files\Microsoft Visual Studio\2022\Community\VC\Tools\MSVC\14.44.35207\include\xstring
; File C:\Anka2Project\Anka2Project\Source\Binary\source\UserInterface\PythonNetworkStreamCommand.cpp
; File C:\Program Files\Microsoft Visual Studio\2022\Community\VC\Tools\MSVC\14.44.35207\include\vector
; File C:\Anka2Project\Anka2Project\Source\Binary\source\UserInterface\PythonNetworkStreamCommand.cpp
; File C:\Program Files\Microsoft Visual Studio\2022\Community\VC\Tools\MSVC\14.44.35207\include\vector
; File C:\Anka2Project\Anka2Project\Source\Binary\source\UserInterface\PythonNetworkStreamCommand.cpp
; File C:\Program Files\Microsoft Visual Studio\2022\Community\VC\Tools\MSVC\14.44.35207\include\xstring
; File C:\Anka2Project\Anka2Project\Source\Binary\source\UserInterface\PythonNetworkStreamCommand.cpp
; File C:\Program Files\Microsoft Visual Studio\2022\Community\VC\Tools\MSVC\14.44.35207\include\vector
; File C:\Anka2Project\Anka2Project\Source\Binary\source\UserInterface\PythonNetworkStreamCommand.cpp
; File C:\Program Files\Microsoft Visual Studio\2022\Community\VC\Tools\MSVC\14.44.35207\include\vector
; File C:\Anka2Project\Anka2Project\Source\Binary\source\UserInterface\PythonNetworkStreamCommand.cpp
; File C:\Program Files\Microsoft Visual Studio\2022\Community\VC\Tools\MSVC\14.44.35207\include\xstring
; File C:\Anka2Project\Anka2Project\Source\Binary\source\UserInterface\PythonNetworkStreamCommand.cpp
; File C:\Program Files\Microsoft Visual Studio\2022\Community\VC\Tools\MSVC\14.44.35207\include\vector
; File C:\Anka2Project\Anka2Project\Source\Binary\source\UserInterface\PythonNetworkStreamCommand.cpp
; File C:\Program Files\Microsoft Visual Studio\2022\Community\VC\Tools\MSVC\14.44.35207\include\vector
; File C:\Anka2Project\Anka2Project\Source\Binary\source\UserInterface\PythonNetworkStreamCommand.cpp
; File C:\Program Files\Microsoft Visual Studio\2022\Community\VC\Tools\MSVC\14.44.35207\include\xstring
; File C:\Anka2Project\Anka2Project\Source\Binary\source\UserInterface\PythonNetworkStreamCommand.cpp
; File C:\Program Files\Microsoft Visual Studio\2022\Community\VC\Tools\MSVC\14.44.35207\include\vector
; File C:\Anka2Project\Anka2Project\Source\Binary\source\UserInterface\PythonNetworkStreamCommand.cpp
; File C:\Program Files\Microsoft Visual Studio\2022\Community\VC\Tools\MSVC\14.44.35207\include\vector
; File C:\Anka2Project\Anka2Project\Source\Binary\source\UserInterface\PythonNetworkStreamCommand.cpp
; File C:\Program Files\Microsoft Visual Studio\2022\Community\VC\Tools\MSVC\14.44.35207\include\xstring
; File C:\Anka2Project\Anka2Project\Source\Binary\source\UserInterface\PythonNetworkStreamCommand.cpp
; File C:\Program Files\Microsoft Visual Studio\2022\Community\VC\Tools\MSVC\14.44.35207\include\vector
; File C:\Anka2Project\Anka2Project\Source\Binary\source\UserInterface\PythonNetworkStreamCommand.cpp
; File C:\Program Files\Microsoft Visual Studio\2022\Community\VC\Tools\MSVC\14.44.35207\include\vector
; File C:\Anka2Project\Anka2Project\Source\Binary\source\UserInterface\PythonNetworkStreamCommand.cpp
; File C:\Program Files\Microsoft Visual Studio\2022\Community\VC\Tools\MSVC\14.44.35207\include\xstring
; File C:\Anka2Project\Anka2Project\Source\Binary\source\UserInterface\PythonNetworkStreamCommand.cpp
; File C:\Program Files\Microsoft Visual Studio\2022\Community\VC\Tools\MSVC\14.44.35207\include\vector
; File C:\Anka2Project\Anka2Project\Source\Binary\source\UserInterface\PythonNetworkStreamCommand.cpp
; File C:\Program Files\Microsoft Visual Studio\2022\Community\VC\Tools\MSVC\14.44.35207\include\vector
; File C:\Anka2Project\Anka2Project\Source\Binary\source\UserInterface\PythonNetworkStreamCommand.cpp
; File C:\Program Files\Microsoft Visual Studio\2022\Community\VC\Tools\MSVC\14.44.35207\include\xstring
; File C:\Anka2Project\Anka2Project\Source\Binary\source\UserInterface\PythonNetworkStreamCommand.cpp
; File C:\Program Files\Microsoft Visual Studio\2022\Community\VC\Tools\MSVC\14.44.35207\include\vector
; File C:\Anka2Project\Anka2Project\Source\Binary\source\UserInterface\PythonNetworkStreamCommand.cpp
; File C:\Program Files\Microsoft Visual Studio\2022\Community\VC\Tools\MSVC\14.44.35207\include\vector
; File C:\Anka2Project\Anka2Project\Source\Binary\source\UserInterface\PythonNetworkStreamCommand.cpp
; File C:\Program Files\Microsoft Visual Studio\2022\Community\VC\Tools\MSVC\14.44.35207\include\xstring
; File C:\Anka2Project\Anka2Project\Source\Binary\source\UserInterface\PythonNetworkStreamCommand.cpp
; File C:\Program Files\Microsoft Visual Studio\2022\Community\VC\Tools\MSVC\14.44.35207\include\vector
; File C:\Anka2Project\Anka2Project\Source\Binary\source\UserInterface\PythonNetworkStreamCommand.cpp
; File C:\Program Files\Microsoft Visual Studio\2022\Community\VC\Tools\MSVC\14.44.35207\include\vector
; File C:\Anka2Project\Anka2Project\Source\Binary\source\UserInterface\PythonNetworkStreamCommand.cpp
; File C:\Program Files\Microsoft Visual Studio\2022\Community\VC\Tools\MSVC\14.44.35207\include\xstring
; File C:\Anka2Project\Anka2Project\Source\Binary\source\UserInterface\PythonNetworkStreamCommand.cpp
; File C:\Program Files\Microsoft Visual Studio\2022\Community\VC\Tools\MSVC\14.44.35207\include\vector
; File C:\Anka2Project\Anka2Project\Source\Binary\source\UserInterface\PythonNetworkStreamCommand.cpp
; File C:\Program Files\Microsoft Visual Studio\2022\Community\VC\Tools\MSVC\14.44.35207\include\vector
; File C:\Anka2Project\Anka2Project\Source\Binary\source\UserInterface\PythonNetworkStreamCommand.cpp
; File C:\Program Files\Microsoft Visual Studio\2022\Community\VC\Tools\MSVC\14.44.35207\include\xstring
; File C:\Anka2Project\Anka2Project\Source\Binary\source\UserInterface\PythonNetworkStreamCommand.cpp
; File C:\Program Files\Microsoft Visual Studio\2022\Community\VC\Tools\MSVC\14.44.35207\include\vector
; File C:\Program Files\Microsoft Visual Studio\2022\Community\VC\Tools\MSVC\14.44.35207\include\xstring
; File C:\Anka2Project\Anka2Project\Source\Binary\source\UserInterface\PythonNetworkStreamCommand.cpp
; File C:\Program Files\Microsoft Visual Studio\2022\Community\VC\Tools\MSVC\14.44.35207\include\vector
; File C:\Program Files\Microsoft Visual Studio\2022\Community\VC\Tools\MSVC\14.44.35207\include\xstring
; File C:\Anka2Project\Anka2Project\Source\Binary\source\UserInterface\PythonNetworkStreamCommand.cpp
; File C:\Program Files\Microsoft Visual Studio\2022\Community\VC\Tools\MSVC\14.44.35207\include\vector
; File C:\Anka2Project\Anka2Project\Source\Binary\source\UserInterface\PythonNetworkStreamCommand.cpp
; File C:\Program Files\Microsoft Visual Studio\2022\Community\VC\Tools\MSVC\14.44.35207\include\vector
; File C:\Anka2Project\Anka2Project\Source\Binary\source\UserInterface\PythonNetworkStreamCommand.cpp
; File C:\Program Files\Microsoft Visual Studio\2022\Community\VC\Tools\MSVC\14.44.35207\include\xstring
; File C:\Anka2Project\Anka2Project\Source\Binary\source\UserInterface\PythonNetworkStreamCommand.cpp
; File C:\Program Files\Microsoft Visual Studio\2022\Community\VC\Tools\MSVC\14.44.35207\include\vector
; File C:\Anka2Project\Anka2Project\Source\Binary\source\UserInterface\PythonNetworkStreamCommand.cpp
; File C:\Program Files\Microsoft Visual Studio\2022\Community\VC\Tools\MSVC\14.44.35207\include\vector
; File C:\Anka2Project\Anka2Project\Source\Binary\source\UserInterface\PythonNetworkStreamCommand.cpp
; File C:\Program Files\Microsoft Visual Studio\2022\Community\VC\Tools\MSVC\14.44.35207\include\xstring
; File C:\Anka2Project\Anka2Project\Source\Binary\source\UserInterface\PythonNetworkStreamCommand.cpp
; File C:\Program Files\Microsoft Visual Studio\2022\Community\VC\Tools\MSVC\14.44.35207\include\vector
; File C:\Anka2Project\Anka2Project\Source\Binary\source\UserInterface\PythonNetworkStreamCommand.cpp
; File C:\Program Files\Microsoft Visual Studio\2022\Community\VC\Tools\MSVC\14.44.35207\include\vector
; File C:\Anka2Project\Anka2Project\Source\Binary\source\UserInterface\PythonNetworkStreamCommand.cpp
; File C:\Program Files\Microsoft Visual Studio\2022\Community\VC\Tools\MSVC\14.44.35207\include\xstring
; File C:\Anka2Project\Anka2Project\Source\Binary\source\UserInterface\PythonNetworkStreamCommand.cpp
; File C:\Program Files\Microsoft Visual Studio\2022\Community\VC\Tools\MSVC\14.44.35207\include\vector
; File C:\Anka2Project\Anka2Project\Source\Binary\source\UserInterface\PythonNetworkStreamCommand.cpp
; File C:\Program Files\Microsoft Visual Studio\2022\Community\VC\Tools\MSVC\14.44.35207\include\vector
; File C:\Anka2Project\Anka2Project\Source\Binary\source\UserInterface\PythonNetworkStreamCommand.cpp
; File C:\Program Files\Microsoft Visual Studio\2022\Community\VC\Tools\MSVC\14.44.35207\include\xstring
; File C:\Anka2Project\Anka2Project\Source\Binary\source\UserInterface\PythonNetworkStreamCommand.cpp
; File C:\Program Files\Microsoft Visual Studio\2022\Community\VC\Tools\MSVC\14.44.35207\include\vector
; File C:\Anka2Project\Anka2Project\Source\Binary\source\UserInterface\PythonNetworkStreamCommand.cpp
; File C:\Program Files\Microsoft Visual Studio\2022\Community\VC\Tools\MSVC\14.44.35207\include\vector
; File C:\Anka2Project\Anka2Project\Source\Binary\source\UserInterface\PythonNetworkStreamCommand.cpp
; File C:\Program Files\Microsoft Visual Studio\2022\Community\VC\Tools\MSVC\14.44.35207\include\xstring
; File C:\Anka2Project\Anka2Project\Source\Binary\source\UserInterface\PythonNetworkStreamCommand.cpp
; File C:\Program Files\Microsoft Visual Studio\2022\Community\VC\Tools\MSVC\14.44.35207\include\vector
; File C:\Anka2Project\Anka2Project\Source\Binary\source\UserInterface\PythonNetworkStreamCommand.cpp
; File C:\Program Files\Microsoft Visual Studio\2022\Community\VC\Tools\MSVC\14.44.35207\include\vector
; File C:\Anka2Project\Anka2Project\Source\Binary\source\UserInterface\PythonNetworkStreamCommand.cpp
; File C:\Program Files\Microsoft Visual Studio\2022\Community\VC\Tools\MSVC\14.44.35207\include\xstring
; File C:\Anka2Project\Anka2Project\Source\Binary\source\UserInterface\PythonNetworkStreamCommand.cpp
; File C:\Program Files\Microsoft Visual Studio\2022\Community\VC\Tools\MSVC\14.44.35207\include\xstring
; File C:\Program Files\Microsoft Visual Studio\2022\Community\VC\Tools\MSVC\14.44.35207\include\vector
; File C:\Program Files\Microsoft Visual Studio\2022\Community\VC\Tools\MSVC\14.44.35207\include\xstring
; File C:\Anka2Project\Anka2Project\Source\Binary\source\UserInterface\PythonNetworkStreamCommand.cpp
; File C:\Program Files\Microsoft Visual Studio\2022\Community\VC\Tools\MSVC\14.44.35207\include\vector
; File C:\Program Files\Microsoft Visual Studio\2022\Community\VC\Tools\MSVC\14.44.35207\include\xstring
; File C:\Anka2Project\Anka2Project\Source\Binary\source\UserInterface\PythonNetworkStreamCommand.cpp
; File C:\Program Files\Microsoft Visual Studio\2022\Community\VC\Tools\MSVC\14.44.35207\include\vector
; File C:\Anka2Project\Anka2Project\Source\Binary\source\UserInterface\PythonNetworkStreamCommand.cpp
; File C:\Program Files\Microsoft Visual Studio\2022\Community\VC\Tools\MSVC\14.44.35207\include\vector
; File C:\Anka2Project\Anka2Project\Source\Binary\source\UserInterface\PythonNetworkStreamCommand.cpp
; File C:\Program Files\Microsoft Visual Studio\2022\Community\VC\Tools\MSVC\14.44.35207\include\xstring
; File C:\Anka2Project\Anka2Project\Source\Binary\source\UserInterface\PythonNetworkStreamCommand.cpp
; File C:\Program Files\Microsoft Visual Studio\2022\Community\VC\Tools\MSVC\14.44.35207\include\vector
; File C:\Anka2Project\Anka2Project\Source\Binary\source\UserInterface\PythonNetworkStreamCommand.cpp
; File C:\Program Files\Microsoft Visual Studio\2022\Community\VC\Tools\MSVC\14.44.35207\include\vector
; File C:\Anka2Project\Anka2Project\Source\Binary\source\UserInterface\PythonNetworkStreamCommand.cpp
; File C:\Program Files\Microsoft Visual Studio\2022\Community\VC\Tools\MSVC\14.44.35207\include\xstring
; File C:\Anka2Project\Anka2Project\Source\Binary\source\UserInterface\PythonNetworkStreamCommand.cpp
; File C:\Program Files\Microsoft Visual Studio\2022\Community\VC\Tools\MSVC\14.44.35207\include\vector
; File C:\Anka2Project\Anka2Project\Source\Binary\source\UserInterface\PythonNetworkStreamCommand.cpp
; File C:\Program Files\Microsoft Visual Studio\2022\Community\VC\Tools\MSVC\14.44.35207\include\vector
; File C:\Anka2Project\Anka2Project\Source\Binary\source\UserInterface\PythonNetworkStreamCommand.cpp
; File C:\Program Files\Microsoft Visual Studio\2022\Community\VC\Tools\MSVC\14.44.35207\include\xstring
; File C:\Anka2Project\Anka2Project\Source\Binary\source\UserInterface\PythonNetworkStreamCommand.cpp
; File C:\Program Files\Microsoft Visual Studio\2022\Community\VC\Tools\MSVC\14.44.35207\include\vector
; File C:\Anka2Project\Anka2Project\Source\Binary\source\UserInterface\PythonNetworkStreamCommand.cpp
; File C:\Program Files\Microsoft Visual Studio\2022\Community\VC\Tools\MSVC\14.44.35207\include\vector
; File C:\Anka2Project\Anka2Project\Source\Binary\source\UserInterface\PythonNetworkStreamCommand.cpp
; File C:\Program Files\Microsoft Visual Studio\2022\Community\VC\Tools\MSVC\14.44.35207\include\xstring
; File C:\Anka2Project\Anka2Project\Source\Binary\source\UserInterface\PythonNetworkStreamCommand.cpp
; File C:\Program Files\Microsoft Visual Studio\2022\Community\VC\Tools\MSVC\14.44.35207\include\vector
; File C:\Anka2Project\Anka2Project\Source\Binary\source\UserInterface\PythonNetworkStreamCommand.cpp
; File C:\Program Files\Microsoft Visual Studio\2022\Community\VC\Tools\MSVC\14.44.35207\include\vector
; File C:\Anka2Project\Anka2Project\Source\Binary\source\UserInterface\PythonNetworkStreamCommand.cpp
; File C:\Program Files\Microsoft Visual Studio\2022\Community\VC\Tools\MSVC\14.44.35207\include\xstring
; File C:\Anka2Project\Anka2Project\Source\Binary\source\UserInterface\PythonNetworkStreamCommand.cpp
; File C:\Program Files\Microsoft Visual Studio\2022\Community\VC\Tools\MSVC\14.44.35207\include\vector
; File C:\Anka2Project\Anka2Project\Source\Binary\source\UserInterface\PythonNetworkStreamCommand.cpp
; File C:\Program Files\Microsoft Visual Studio\2022\Community\VC\Tools\MSVC\14.44.35207\include\vector
; File C:\Anka2Project\Anka2Project\Source\Binary\source\UserInterface\PythonNetworkStreamCommand.cpp
; File C:\Program Files\Microsoft Visual Studio\2022\Community\VC\Tools\MSVC\14.44.35207\include\xstring
; File C:\Anka2Project\Anka2Project\Source\Binary\source\UserInterface\PythonNetworkStreamCommand.cpp
; File C:\Program Files\Microsoft Visual Studio\2022\Community\VC\Tools\MSVC\14.44.35207\include\vector
; File C:\Program Files\Microsoft Visual Studio\2022\Community\VC\Tools\MSVC\14.44.35207\include\xstring
; File C:\Anka2Project\Anka2Project\Source\Binary\source\UserInterface\PythonNetworkStreamCommand.cpp
; File C:\Program Files\Microsoft Visual Studio\2022\Community\VC\Tools\MSVC\14.44.35207\include\xstring
; File C:\Program Files\Microsoft Visual Studio\2022\Community\VC\Tools\MSVC\14.44.35207\include\vector
; File C:\Program Files\Microsoft Visual Studio\2022\Community\VC\Tools\MSVC\14.44.35207\include\xstring
; File C:\Anka2Project\Anka2Project\Source\Binary\source\UserInterface\PythonNetworkStreamCommand.cpp
; File C:\Program Files\Microsoft Visual Studio\2022\Community\VC\Tools\MSVC\14.44.35207\include\vector
; File C:\Anka2Project\Anka2Project\Source\Binary\source\UserInterface\PythonNetworkStreamCommand.cpp
; File C:\Program Files\Microsoft Visual Studio\2022\Community\VC\Tools\MSVC\14.44.35207\include\vector
; File C:\Anka2Project\Anka2Project\Source\Binary\source\UserInterface\PythonNetworkStreamCommand.cpp
; File C:\Program Files\Microsoft Visual Studio\2022\Community\VC\Tools\MSVC\14.44.35207\include\xstring
; File C:\Anka2Project\Anka2Project\Source\Binary\source\UserInterface\PythonNetworkStreamCommand.cpp
; File C:\Program Files\Microsoft Visual Studio\2022\Community\VC\Tools\MSVC\14.44.35207\include\vector
; File C:\Anka2Project\Anka2Project\Source\Binary\source\UserInterface\PythonNetworkStreamCommand.cpp
; File C:\Program Files\Microsoft Visual Studio\2022\Community\VC\Tools\MSVC\14.44.35207\include\vector
; File C:\Anka2Project\Anka2Project\Source\Binary\source\UserInterface\PythonNetworkStreamCommand.cpp
; File C:\Program Files\Microsoft Visual Studio\2022\Community\VC\Tools\MSVC\14.44.35207\include\xstring
; File C:\Anka2Project\Anka2Project\Source\Binary\source\UserInterface\PythonNetworkStreamCommand.cpp
; File C:\Program Files\Microsoft Visual Studio\2022\Community\VC\Tools\MSVC\14.44.35207\include\cmath
; File C:\Anka2Project\Anka2Project\Source\Binary\source\UserInterface\PythonNetworkStreamCommand.cpp
; File C:\Program Files\Microsoft Visual Studio\2022\Community\VC\Tools\MSVC\14.44.35207\include\cmath
; File C:\Program Files\Microsoft Visual Studio\2022\Community\VC\Tools\MSVC\14.44.35207\include\vector
; File C:\Program Files\Microsoft Visual Studio\2022\Community\VC\Tools\MSVC\14.44.35207\include\cmath
; File C:\Program Files\Microsoft Visual Studio\2022\Community\VC\Tools\MSVC\14.44.35207\include\xstring
; File C:\Anka2Project\Anka2Project\Source\Binary\source\UserInterface\PythonNetworkStreamCommand.cpp
; File C:\Anka2Project\Anka2Project\Source\Binary\source\UserInterface\AbstractSingleton.h
; File C:\Anka2Project\Anka2Project\Source\Binary\source\UserInterface\PythonNetworkStreamCommand.cpp
; File C:\Anka2Project\Anka2Project\Source\Binary\source\UserInterface\AbstractSingleton.h
; File C:\Anka2Project\Anka2Project\Source\Binary\source\UserInterface\PythonNetworkStreamCommand.cpp
; File C:\Anka2Project\Anka2Project\Source\Binary\extern\include\d3dx8math.inl
; File C:\Anka2Project\Anka2Project\Source\Binary\source\UserInterface\PythonNetworkStreamCommand.cpp
; File C:\Anka2Project\Anka2Project\Source\Binary\extern\include\d3dx8math.inl
; File C:\Anka2Project\Anka2Project\Source\Binary\source\UserInterface\PythonNetworkStreamCommand.cpp
; File C:\Anka2Project\Anka2Project\Source\Binary\source\eterBase\Singleton.h
; File C:\Anka2Project\Anka2Project\Source\Binary\source\UserInterface\PythonNetworkStreamCommand.cpp
; File C:\Anka2Project\Anka2Project\Source\Binary\source\eterBase\Singleton.h
; File C:\Anka2Project\Anka2Project\Source\Binary\source\UserInterface\PythonNetworkStreamCommand.cpp
; File C:\Anka2Project\Anka2Project\Source\Binary\source\eterBase\Singleton.h
; File C:\Anka2Project\Anka2Project\Source\Binary\source\UserInterface\PythonNetworkStreamCommand.cpp
; File C:\Anka2Project\Anka2Project\Source\Binary\source\eterBase\Singleton.h
; File C:\Anka2Project\Anka2Project\Source\Binary\source\UserInterface\PythonNetworkStreamCommand.cpp
; File C:\Anka2Project\Anka2Project\Source\Binary\source\eterBase\Singleton.h
; File C:\Anka2Project\Anka2Project\Source\Binary\source\UserInterface\PythonNetworkStreamCommand.cpp
; File C:\Anka2Project\Anka2Project\Source\Binary\source\eterBase\Singleton.h
; File C:\Anka2Project\Anka2Project\Source\Binary\source\UserInterface\PythonNetworkStreamCommand.cpp
; File C:\Anka2Project\Anka2Project\Source\Binary\source\eterBase\Singleton.h
; File C:\Anka2Project\Anka2Project\Source\Binary\source\UserInterface\PythonNetworkStreamCommand.cpp
; File C:\Anka2Project\Anka2Project\Source\Binary\source\eterBase\Singleton.h
; File C:\Anka2Project\Anka2Project\Source\Binary\source\UserInterface\PythonNetworkStreamCommand.cpp
; File C:\Program Files\Microsoft Visual Studio\2022\Community\VC\Tools\MSVC\14.44.35207\include\xstring
; File C:\Program Files\Microsoft Visual Studio\2022\Community\VC\Tools\MSVC\14.44.35207\include\vector
; File C:\Program Files\Microsoft Visual Studio\2022\Community\VC\Tools\MSVC\14.44.35207\include\xstring
; File C:\Anka2Project\Anka2Project\Source\Binary\source\UserInterface\PythonNetworkStreamCommand.cpp
; File C:\Program Files\Microsoft Visual Studio\2022\Community\VC\Tools\MSVC\14.44.35207\include\vector
; File C:\Anka2Project\Anka2Project\Source\Binary\source\UserInterface\PythonNetworkStreamCommand.cpp
; File C:\Program Files\Microsoft Visual Studio\2022\Community\VC\Tools\MSVC\14.44.35207\include\vector
; File C:\Anka2Project\Anka2Project\Source\Binary\source\UserInterface\PythonNetworkStreamCommand.cpp
; File C:\Program Files\Microsoft Visual Studio\2022\Community\VC\Tools\MSVC\14.44.35207\include\xstring
; File C:\Anka2Project\Anka2Project\Source\Binary\source\UserInterface\PythonNetworkStreamCommand.cpp
; File C:\Anka2Project\Anka2Project\Source\Binary\source\UserInterface\AbstractSingleton.h
; File C:\Anka2Project\Anka2Project\Source\Binary\source\UserInterface\PythonNetworkStreamCommand.cpp
; File C:\Anka2Project\Anka2Project\Source\Binary\source\UserInterface\AbstractSingleton.h
; File C:\Anka2Project\Anka2Project\Source\Binary\source\UserInterface\PythonNetworkStreamCommand.cpp
; File C:\Program Files\Microsoft Visual Studio\2022\Community\VC\Tools\MSVC\14.44.35207\include\vector
; File C:\Anka2Project\Anka2Project\Source\Binary\source\UserInterface\PythonNetworkStreamCommand.cpp
; File C:\Program Files\Microsoft Visual Studio\2022\Community\VC\Tools\MSVC\14.44.35207\include\xstring
; File C:\Program Files\Microsoft Visual Studio\2022\Community\VC\Tools\MSVC\14.44.35207\include\vector
; File C:\Program Files\Microsoft Visual Studio\2022\Community\VC\Tools\MSVC\14.44.35207\include\xstring
; File C:\Anka2Project\Anka2Project\Source\Binary\source\UserInterface\PythonNetworkStreamCommand.cpp
; File C:\Anka2Project\Anka2Project\Source\Binary\source\UserInterface\AbstractSingleton.h
; File C:\Anka2Project\Anka2Project\Source\Binary\source\UserInterface\PythonNetworkStreamCommand.cpp
; File C:\Anka2Project\Anka2Project\Source\Binary\source\UserInterface\AbstractSingleton.h
; File C:\Anka2Project\Anka2Project\Source\Binary\source\UserInterface\PythonNetworkStreamCommand.cpp
; File C:\Program Files\Microsoft Visual Studio\2022\Community\VC\Tools\MSVC\14.44.35207\include\vector
; File C:\Program Files\Microsoft Visual Studio\2022\Community\VC\Tools\MSVC\14.44.35207\include\xstring
; File C:\Program Files\Microsoft Visual Studio\2022\Community\VC\Tools\MSVC\14.44.35207\include\__msvc_string_view.hpp
; File C:\Program Files\Microsoft Visual Studio\2022\Community\VC\Tools\MSVC\14.44.35207\include\xstring
; File C:\Program Files\Microsoft Visual Studio\2022\Community\VC\Tools\MSVC\14.44.35207\include\__msvc_string_view.hpp
; File C:\Program Files\Microsoft Visual Studio\2022\Community\VC\Tools\MSVC\14.44.35207\include\xstring
; File C:\Anka2Project\Anka2Project\Source\Binary\source\UserInterface\PythonNetworkStreamCommand.cpp
; File C:\Program Files\Microsoft Visual Studio\2022\Community\VC\Tools\MSVC\14.44.35207\include\xstring
; File C:\Anka2Project\Anka2Project\Source\Binary\source\UserInterface\PythonNetworkStreamCommand.cpp
; File C:\Program Files\Microsoft Visual Studio\2022\Community\VC\Tools\MSVC\14.44.35207\include\xstring
; File C:\Anka2Project\Anka2Project\Source\Binary\source\UserInterface\PythonNetworkStreamCommand.cpp
; File C:\Program Files\Microsoft Visual Studio\2022\Community\VC\Tools\MSVC\14.44.35207\include\vector
; File C:\Program Files\Microsoft Visual Studio\2022\Community\VC\Tools\MSVC\14.44.35207\include\xstring
; File C:\Anka2Project\Anka2Project\Source\Binary\source\UserInterface\PythonNetworkStreamCommand.cpp
; File C:\Anka2Project\Anka2Project\Source\Binary\source\UserInterface\AbstractSingleton.h
; File C:\Anka2Project\Anka2Project\Source\Binary\source\UserInterface\PythonNetworkStreamCommand.cpp
; File C:\Anka2Project\Anka2Project\Source\Binary\source\UserInterface\AbstractSingleton.h
; File C:\Anka2Project\Anka2Project\Source\Binary\source\UserInterface\PythonNetworkStreamCommand.cpp
; File C:\Program Files\Microsoft Visual Studio\2022\Community\VC\Tools\MSVC\14.44.35207\include\vector
; File C:\Program Files\Microsoft Visual Studio\2022\Community\VC\Tools\MSVC\14.44.35207\include\xstring
; File C:\Anka2Project\Anka2Project\Source\Binary\source\UserInterface\PythonNetworkStreamCommand.cpp
; File C:\Program Files\Microsoft Visual Studio\2022\Community\VC\Tools\MSVC\14.44.35207\include\vector
; File C:\Program Files\Microsoft Visual Studio\2022\Community\VC\Tools\MSVC\14.44.35207\include\xstring
; File C:\Anka2Project\Anka2Project\Source\Binary\source\UserInterface\PythonNetworkStreamCommand.cpp
; File C:\Program Files\Microsoft Visual Studio\2022\Community\VC\Tools\MSVC\14.44.35207\include\vector
; File C:\Anka2Project\Anka2Project\Source\Binary\source\UserInterface\PythonNetworkStreamCommand.cpp
; File C:\Program Files\Microsoft Visual Studio\2022\Community\VC\Tools\MSVC\14.44.35207\include\vector
; File C:\Anka2Project\Anka2Project\Source\Binary\source\UserInterface\PythonNetworkStreamCommand.cpp
; File C:\Program Files\Microsoft Visual Studio\2022\Community\VC\Tools\MSVC\14.44.35207\include\xstring
; File C:\Anka2Project\Anka2Project\Source\Binary\source\UserInterface\PythonNetworkStreamCommand.cpp
; File C:\Anka2Project\Anka2Project\Source\Binary\source\UserInterface\AbstractSingleton.h
; File C:\Anka2Project\Anka2Project\Source\Binary\source\UserInterface\PythonNetworkStreamCommand.cpp
; File C:\Anka2Project\Anka2Project\Source\Binary\source\UserInterface\AbstractSingleton.h
; File C:\Anka2Project\Anka2Project\Source\Binary\source\UserInterface\PythonNetworkStreamCommand.cpp
; File C:\Program Files\Microsoft Visual Studio\2022\Community\VC\Tools\MSVC\14.44.35207\include\vector
; File C:\Program Files\Microsoft Visual Studio\2022\Community\VC\Tools\MSVC\14.44.35207\include\xstring
; File C:\Anka2Project\Anka2Project\Source\Binary\source\UserInterface\PythonNetworkStreamCommand.cpp
; File C:\Program Files\Microsoft Visual Studio\2022\Community\VC\Tools\MSVC\14.44.35207\include\vector
; File C:\Anka2Project\Anka2Project\Source\Binary\source\UserInterface\PythonNetworkStreamCommand.cpp
; File C:\Program Files\Microsoft Visual Studio\2022\Community\VC\Tools\MSVC\14.44.35207\include\vector
; File C:\Anka2Project\Anka2Project\Source\Binary\source\UserInterface\PythonNetworkStreamCommand.cpp
; File C:\Program Files\Microsoft Visual Studio\2022\Community\VC\Tools\MSVC\14.44.35207\include\xstring
; File C:\Anka2Project\Anka2Project\Source\Binary\source\UserInterface\PythonNetworkStreamCommand.cpp
; File C:\Anka2Project\Anka2Project\Source\Binary\source\UserInterface\AbstractSingleton.h
; File C:\Anka2Project\Anka2Project\Source\Binary\source\UserInterface\PythonNetworkStreamCommand.cpp
; File C:\Anka2Project\Anka2Project\Source\Binary\source\UserInterface\AbstractSingleton.h
; File C:\Anka2Project\Anka2Project\Source\Binary\source\UserInterface\PythonNetworkStreamCommand.cpp
; File C:\Program Files\Microsoft Visual Studio\2022\Community\VC\Tools\MSVC\14.44.35207\include\vector
; File C:\Program Files\Microsoft Visual Studio\2022\Community\VC\Tools\MSVC\14.44.35207\include\xstring
; File C:\Anka2Project\Anka2Project\Source\Binary\source\UserInterface\PythonNetworkStreamCommand.cpp
; File C:\Program Files\Microsoft Visual Studio\2022\Community\VC\Tools\MSVC\14.44.35207\include\vector
; File C:\Anka2Project\Anka2Project\Source\Binary\source\UserInterface\PythonNetworkStreamCommand.cpp
; File C:\Program Files\Microsoft Visual Studio\2022\Community\VC\Tools\MSVC\14.44.35207\include\vector
; File C:\Anka2Project\Anka2Project\Source\Binary\source\UserInterface\PythonNetworkStreamCommand.cpp
; File C:\Program Files\Microsoft Visual Studio\2022\Community\VC\Tools\MSVC\14.44.35207\include\xstring
; File C:\Anka2Project\Anka2Project\Source\Binary\source\UserInterface\PythonNetworkStreamCommand.cpp
; File C:\Anka2Project\Anka2Project\Source\Binary\source\UserInterface\AbstractSingleton.h
; File C:\Anka2Project\Anka2Project\Source\Binary\source\UserInterface\PythonNetworkStreamCommand.cpp
; File C:\Anka2Project\Anka2Project\Source\Binary\source\UserInterface\AbstractSingleton.h
; File C:\Anka2Project\Anka2Project\Source\Binary\source\UserInterface\PythonNetworkStreamCommand.cpp
; File C:\Program Files\Microsoft Visual Studio\2022\Community\VC\Tools\MSVC\14.44.35207\include\vector
; File C:\Program Files\Microsoft Visual Studio\2022\Community\VC\Tools\MSVC\14.44.35207\include\xstring
; File C:\Anka2Project\Anka2Project\Source\Binary\source\UserInterface\PythonNetworkStreamCommand.cpp
; File C:\Anka2Project\Anka2Project\Source\Binary\source\UserInterface\AbstractSingleton.h
; File C:\Anka2Project\Anka2Project\Source\Binary\source\UserInterface\PythonNetworkStreamCommand.cpp
; File C:\Anka2Project\Anka2Project\Source\Binary\source\UserInterface\AbstractSingleton.h
; File C:\Anka2Project\Anka2Project\Source\Binary\source\UserInterface\PythonNetworkStreamCommand.cpp
; File C:\Program Files\Microsoft Visual Studio\2022\Community\VC\Tools\MSVC\14.44.35207\include\vector
; File C:\Program Files\Microsoft Visual Studio\2022\Community\VC\Tools\MSVC\14.44.35207\include\xstring
; File C:\Anka2Project\Anka2Project\Source\Binary\source\UserInterface\PythonNetworkStreamCommand.cpp
; File C:\Anka2Project\Anka2Project\Source\Binary\source\UserInterface\AbstractSingleton.h
; File C:\Anka2Project\Anka2Project\Source\Binary\source\UserInterface\PythonNetworkStreamCommand.cpp
; File C:\Anka2Project\Anka2Project\Source\Binary\source\UserInterface\AbstractSingleton.h
; File C:\Anka2Project\Anka2Project\Source\Binary\source\UserInterface\PythonNetworkStreamCommand.cpp
; File C:\Program Files\Microsoft Visual Studio\2022\Community\VC\Tools\MSVC\14.44.35207\include\vector
; File C:\Program Files\Microsoft Visual Studio\2022\Community\VC\Tools\MSVC\14.44.35207\include\xstring
; File C:\Anka2Project\Anka2Project\Source\Binary\source\UserInterface\PythonNetworkStreamCommand.cpp
; File C:\Anka2Project\Anka2Project\Source\Binary\source\UserInterface\AbstractSingleton.h
; File C:\Anka2Project\Anka2Project\Source\Binary\source\UserInterface\PythonNetworkStreamCommand.cpp
; File C:\Anka2Project\Anka2Project\Source\Binary\source\UserInterface\AbstractSingleton.h
; File C:\Anka2Project\Anka2Project\Source\Binary\source\UserInterface\PythonNetworkStreamCommand.cpp
; File C:\Program Files\Microsoft Visual Studio\2022\Community\VC\Tools\MSVC\14.44.35207\include\vector
; File C:\Program Files\Microsoft Visual Studio\2022\Community\VC\Tools\MSVC\14.44.35207\include\xstring
; File C:\Anka2Project\Anka2Project\Source\Binary\source\UserInterface\PythonNetworkStreamCommand.cpp
; File C:\Anka2Project\Anka2Project\Source\Binary\source\UserInterface\AbstractSingleton.h
; File C:\Anka2Project\Anka2Project\Source\Binary\source\UserInterface\PythonNetworkStreamCommand.cpp
; File C:\Anka2Project\Anka2Project\Source\Binary\source\UserInterface\AbstractSingleton.h
; File C:\Anka2Project\Anka2Project\Source\Binary\source\UserInterface\PythonNetworkStreamCommand.cpp
; File C:\Program Files\Microsoft Visual Studio\2022\Community\VC\Tools\MSVC\14.44.35207\include\vector
; File C:\Program Files\Microsoft Visual Studio\2022\Community\VC\Tools\MSVC\14.44.35207\include\xstring
; File C:\Anka2Project\Anka2Project\Source\Binary\source\UserInterface\PythonNetworkStreamCommand.cpp
; File C:\Anka2Project\Anka2Project\Source\Binary\source\UserInterface\AbstractSingleton.h
; File C:\Anka2Project\Anka2Project\Source\Binary\source\UserInterface\PythonNetworkStreamCommand.cpp
; File C:\Anka2Project\Anka2Project\Source\Binary\source\UserInterface\AbstractSingleton.h
; File C:\Anka2Project\Anka2Project\Source\Binary\source\UserInterface\PythonNetworkStreamCommand.cpp
; File C:\Program Files\Microsoft Visual Studio\2022\Community\VC\Tools\MSVC\14.44.35207\include\vector
; File C:\Program Files\Microsoft Visual Studio\2022\Community\VC\Tools\MSVC\14.44.35207\include\xstring
; File C:\Anka2Project\Anka2Project\Source\Binary\source\UserInterface\PythonNetworkStreamCommand.cpp
; File C:\Anka2Project\Anka2Project\Source\Binary\source\UserInterface\AbstractSingleton.h
; File C:\Anka2Project\Anka2Project\Source\Binary\source\UserInterface\PythonNetworkStreamCommand.cpp
; File C:\Anka2Project\Anka2Project\Source\Binary\source\UserInterface\AbstractSingleton.h
; File C:\Anka2Project\Anka2Project\Source\Binary\source\UserInterface\PythonNetworkStreamCommand.cpp
; File C:\Program Files\Microsoft Visual Studio\2022\Community\VC\Tools\MSVC\14.44.35207\include\vector
; File C:\Anka2Project\Anka2Project\Source\Binary\source\UserInterface\PythonNetworkStreamCommand.cpp
; File C:\Program Files\Microsoft Visual Studio\2022\Community\VC\Tools\MSVC\14.44.35207\include\vector
; File C:\Anka2Project\Anka2Project\Source\Binary\source\UserInterface\PythonNetworkStreamCommand.cpp
; File C:\Program Files\Microsoft Visual Studio\2022\Community\VC\Tools\MSVC\14.44.35207\include\xmemory
; File C:\Program Files\Microsoft Visual Studio\2022\Community\VC\Tools\MSVC\14.44.35207\include\xtree
; File C:\Program Files\Microsoft Visual Studio\2022\Community\VC\Tools\MSVC\14.44.35207\include\xmemory
; File C:\Program Files\Microsoft Visual Studio\2022\Community\VC\Tools\MSVC\14.44.35207\include\xtree
; File C:\Anka2Project\Anka2Project\Source\Binary\source\UserInterface\PythonNetworkStreamCommand.cpp
; File C:\Program Files\Microsoft Visual Studio\2022\Community\VC\Tools\MSVC\14.44.35207\include\xtree
; File C:\Anka2Project\Anka2Project\Source\Binary\source\UserInterface\PythonNetworkStreamCommand.cpp
; File C:\Program Files\Microsoft Visual Studio\2022\Community\VC\Tools\MSVC\14.44.35207\include\__msvc_string_view.hpp
; File C:\Program Files\Microsoft Visual Studio\2022\Community\VC\Tools\MSVC\14.44.35207\include\xstring
; File C:\Program Files\Microsoft Visual Studio\2022\Community\VC\Tools\MSVC\14.44.35207\include\__msvc_string_view.hpp
; File C:\Anka2Project\Anka2Project\Source\Binary\source\UserInterface\PythonNetworkStreamCommand.cpp
; File C:\Program Files\Microsoft Visual Studio\2022\Community\VC\Tools\MSVC\14.44.35207\include\xstring
; File C:\Program Files\Microsoft Visual Studio\2022\Community\VC\Tools\MSVC\14.44.35207\include\__msvc_string_view.hpp
; File C:\Program Files\Microsoft Visual Studio\2022\Community\VC\Tools\MSVC\14.44.35207\include\xstring
; File C:\Anka2Project\Anka2Project\Source\Binary\source\UserInterface\PythonNetworkStreamCommand.cpp
; File C:\Program Files\Microsoft Visual Studio\2022\Community\VC\Tools\MSVC\14.44.35207\include\xstring
; File C:\Program Files\Microsoft Visual Studio\2022\Community\VC\Tools\MSVC\14.44.35207\include\__msvc_string_view.hpp
; File C:\Program Files\Microsoft Visual Studio\2022\Community\VC\Tools\MSVC\14.44.35207\include\xstring
; File C:\Program Files\Microsoft Visual Studio\2022\Community\VC\Tools\MSVC\14.44.35207\include\__msvc_string_view.hpp
; File C:\Program Files\Microsoft Visual Studio\2022\Community\VC\Tools\MSVC\14.44.35207\include\xstring
; File C:\Program Files\Microsoft Visual Studio\2022\Community\VC\Tools\MSVC\14.44.35207\include\__msvc_string_view.hpp
; File C:\Program Files\Microsoft Visual Studio\2022\Community\VC\Tools\MSVC\14.44.35207\include\xstring
; File C:\Anka2Project\Anka2Project\Source\Binary\source\UserInterface\PythonNetworkStreamCommand.cpp
; File C:\Program Files\Microsoft Visual Studio\2022\Community\VC\Tools\MSVC\14.44.35207\include\xstring
; File C:\Program Files\Microsoft Visual Studio\2022\Community\VC\Tools\MSVC\14.44.35207\include\__msvc_string_view.hpp
; File C:\Program Files\Microsoft Visual Studio\2022\Community\VC\Tools\MSVC\14.44.35207\include\xstring
; File C:\Program Files\Microsoft Visual Studio\2022\Community\VC\Tools\MSVC\14.44.35207\include\__msvc_string_view.hpp
; File C:\Program Files\Microsoft Visual Studio\2022\Community\VC\Tools\MSVC\14.44.35207\include\xstring
; File C:\Program Files\Microsoft Visual Studio\2022\Community\VC\Tools\MSVC\14.44.35207\include\__msvc_string_view.hpp
; File C:\Program Files\Microsoft Visual Studio\2022\Community\VC\Tools\MSVC\14.44.35207\include\xstring
; File C:\Anka2Project\Anka2Project\Source\Binary\source\UserInterface\PythonNetworkStreamCommand.cpp
; File C:\Program Files\Microsoft Visual Studio\2022\Community\VC\Tools\MSVC\14.44.35207\include\xstring
; File C:\Program Files\Microsoft Visual Studio\2022\Community\VC\Tools\MSVC\14.44.35207\include\__msvc_string_view.hpp
; File C:\Program Files\Microsoft Visual Studio\2022\Community\VC\Tools\MSVC\14.44.35207\include\xstring
; File C:\Program Files\Microsoft Visual Studio\2022\Community\VC\Tools\MSVC\14.44.35207\include\__msvc_string_view.hpp
; File C:\Program Files\Microsoft Visual Studio\2022\Community\VC\Tools\MSVC\14.44.35207\include\xstring
; File C:\Program Files\Microsoft Visual Studio\2022\Community\VC\Tools\MSVC\14.44.35207\include\__msvc_string_view.hpp
; File C:\Program Files\Microsoft Visual Studio\2022\Community\VC\Tools\MSVC\14.44.35207\include\xstring
; File C:\Anka2Project\Anka2Project\Source\Binary\source\UserInterface\PythonNetworkStreamCommand.cpp
; File C:\Program Files\Microsoft Visual Studio\2022\Community\VC\Tools\MSVC\14.44.35207\include\xstring
; File C:\Anka2Project\Anka2Project\Source\Binary\source\UserInterface\PythonNetworkStreamCommand.cpp
; File C:\Program Files\Microsoft Visual Studio\2022\Community\VC\Tools\MSVC\14.44.35207\include\xstring
; File C:\Anka2Project\Anka2Project\Source\Binary\source\UserInterface\PythonNetworkStreamCommand.cpp
; File C:\Program Files\Microsoft Visual Studio\2022\Community\VC\Tools\MSVC\14.44.35207\include\xstring
; File C:\Anka2Project\Anka2Project\Source\Binary\source\UserInterface\PythonNetworkStreamCommand.cpp
; File C:\Program Files\Microsoft Visual Studio\2022\Community\VC\Tools\MSVC\14.44.35207\include\xstring
; File C:\Anka2Project\Anka2Project\Source\Binary\source\UserInterface\PythonNetworkStreamCommand.cpp
; File C:\Program Files\Microsoft Visual Studio\2022\Community\VC\Tools\MSVC\14.44.35207\include\xstring
; File C:\Anka2Project\Anka2Project\Source\Binary\source\UserInterface\PythonNetworkStreamCommand.cpp
; File C:\Program Files\Microsoft Visual Studio\2022\Community\VC\Tools\MSVC\14.44.35207\include\xstring
; File C:\Anka2Project\Anka2Project\Source\Binary\source\UserInterface\PythonNetworkStreamCommand.cpp
; File C:\Program Files\Microsoft Visual Studio\2022\Community\VC\Tools\MSVC\14.44.35207\include\xstring
; File C:\Anka2Project\Anka2Project\Source\Binary\source\UserInterface\PythonNetworkStreamCommand.cpp
; File C:\Program Files\Microsoft Visual Studio\2022\Community\VC\Tools\MSVC\14.44.35207\include\xstring
; File C:\Anka2Project\Anka2Project\Source\Binary\source\UserInterface\PythonNetworkStreamCommand.cpp
; File C:\Program Files\Microsoft Visual Studio\2022\Community\VC\Tools\MSVC\14.44.35207\include\xstring
; File C:\Anka2Project\Anka2Project\Source\Binary\source\UserInterface\PythonNetworkStreamCommand.cpp
; File C:\Program Files\Microsoft Visual Studio\2022\Community\VC\Tools\MSVC\14.44.35207\include\xstring
; File C:\Anka2Project\Anka2Project\Source\Binary\source\UserInterface\PythonNetworkStreamCommand.cpp
; File C:\Program Files\Microsoft Visual Studio\2022\Community\VC\Tools\MSVC\14.44.35207\include\xstring
; File C:\Anka2Project\Anka2Project\Source\Binary\source\UserInterface\PythonNetworkStreamCommand.cpp
; File C:\Program Files\Microsoft Visual Studio\2022\Community\VC\Tools\MSVC\14.44.35207\include\xstring
; File C:\Anka2Project\Anka2Project\Source\Binary\source\UserInterface\PythonNetworkStreamCommand.cpp
; File C:\Program Files\Microsoft Visual Studio\2022\Community\VC\Tools\MSVC\14.44.35207\include\xstring
; File C:\Anka2Project\Anka2Project\Source\Binary\source\UserInterface\PythonNetworkStreamCommand.cpp
; File C:\Program Files\Microsoft Visual Studio\2022\Community\VC\Tools\MSVC\14.44.35207\include\xstring
; File C:\Anka2Project\Anka2Project\Source\Binary\source\UserInterface\PythonNetworkStreamCommand.cpp
; File C:\Program Files\Microsoft Visual Studio\2022\Community\VC\Tools\MSVC\14.44.35207\include\xstring
; File C:\Anka2Project\Anka2Project\Source\Binary\source\UserInterface\PythonNetworkStreamCommand.cpp
; File C:\Program Files\Microsoft Visual Studio\2022\Community\VC\Tools\MSVC\14.44.35207\include\xstring
; File C:\Anka2Project\Anka2Project\Source\Binary\source\UserInterface\PythonNetworkStreamCommand.cpp
; File C:\Program Files\Microsoft Visual Studio\2022\Community\VC\Tools\MSVC\14.44.35207\include\xstring
; File C:\Anka2Project\Anka2Project\Source\Binary\source\UserInterface\PythonNetworkStreamCommand.cpp
; File C:\Program Files\Microsoft Visual Studio\2022\Community\VC\Tools\MSVC\14.44.35207\include\xstring
; File C:\Anka2Project\Anka2Project\Source\Binary\source\UserInterface\PythonNetworkStreamCommand.cpp
; File C:\Program Files\Microsoft Visual Studio\2022\Community\VC\Tools\MSVC\14.44.35207\include\xstring
; File C:\Anka2Project\Anka2Project\Source\Binary\source\UserInterface\PythonNetworkStreamCommand.cpp
; File C:\Program Files\Microsoft Visual Studio\2022\Community\VC\Tools\MSVC\14.44.35207\include\xstring
; File C:\Anka2Project\Anka2Project\Source\Binary\source\UserInterface\PythonNetworkStreamCommand.cpp
; File C:\Program Files\Microsoft Visual Studio\2022\Community\VC\Tools\MSVC\14.44.35207\include\xstring
; File C:\Anka2Project\Anka2Project\Source\Binary\source\UserInterface\PythonNetworkStreamCommand.cpp
; File C:\Program Files\Microsoft Visual Studio\2022\Community\VC\Tools\MSVC\14.44.35207\include\xstring
; File C:\Anka2Project\Anka2Project\Source\Binary\source\UserInterface\PythonNetworkStreamCommand.cpp
; File C:\Program Files\Microsoft Visual Studio\2022\Community\VC\Tools\MSVC\14.44.35207\include\xstring
; File C:\Anka2Project\Anka2Project\Source\Binary\source\UserInterface\PythonNetworkStreamCommand.cpp
; File C:\Program Files\Microsoft Visual Studio\2022\Community\VC\Tools\MSVC\14.44.35207\include\xstring
; File C:\Anka2Project\Anka2Project\Source\Binary\source\UserInterface\PythonNetworkStreamCommand.cpp
; File C:\Program Files\Microsoft Visual Studio\2022\Community\VC\Tools\MSVC\14.44.35207\include\xstring
; File C:\Anka2Project\Anka2Project\Source\Binary\source\UserInterface\PythonNetworkStreamCommand.cpp
; File C:\Program Files\Microsoft Visual Studio\2022\Community\VC\Tools\MSVC\14.44.35207\include\xstring
; File C:\Anka2Project\Anka2Project\Source\Binary\source\UserInterface\PythonNetworkStreamCommand.cpp
; File C:\Program Files\Microsoft Visual Studio\2022\Community\VC\Tools\MSVC\14.44.35207\include\xstring
; File C:\Anka2Project\Anka2Project\Source\Binary\source\UserInterface\PythonNetworkStreamCommand.cpp
; File C:\Program Files\Microsoft Visual Studio\2022\Community\VC\Tools\MSVC\14.44.35207\include\xstring
; File C:\Anka2Project\Anka2Project\Source\Binary\source\UserInterface\PythonNetworkStreamCommand.cpp
; File C:\Program Files\Microsoft Visual Studio\2022\Community\VC\Tools\MSVC\14.44.35207\include\xstring
; File C:\Anka2Project\Anka2Project\Source\Binary\source\UserInterface\PythonNetworkStreamCommand.cpp
; File C:\Program Files\Microsoft Visual Studio\2022\Community\VC\Tools\MSVC\14.44.35207\include\xstring
; File C:\Anka2Project\Anka2Project\Source\Binary\source\UserInterface\PythonNetworkStreamCommand.cpp
; File C:\Program Files\Microsoft Visual Studio\2022\Community\VC\Tools\MSVC\14.44.35207\include\xstring
; File C:\Anka2Project\Anka2Project\Source\Binary\source\UserInterface\PythonNetworkStreamCommand.cpp
; File C:\Program Files\Microsoft Visual Studio\2022\Community\VC\Tools\MSVC\14.44.35207\include\xstring
; File C:\Anka2Project\Anka2Project\Source\Binary\source\UserInterface\PythonNetworkStreamCommand.cpp
; File C:\Program Files\Microsoft Visual Studio\2022\Community\VC\Tools\MSVC\14.44.35207\include\xstring
; File C:\Anka2Project\Anka2Project\Source\Binary\source\UserInterface\PythonNetworkStreamCommand.cpp
; File C:\Program Files\Microsoft Visual Studio\2022\Community\VC\Tools\MSVC\14.44.35207\include\xstring
; File C:\Anka2Project\Anka2Project\Source\Binary\source\UserInterface\PythonNetworkStreamCommand.cpp
; File C:\Program Files\Microsoft Visual Studio\2022\Community\VC\Tools\MSVC\14.44.35207\include\xstring
; File C:\Anka2Project\Anka2Project\Source\Binary\source\UserInterface\PythonNetworkStreamCommand.cpp
; File C:\Program Files\Microsoft Visual Studio\2022\Community\VC\Tools\MSVC\14.44.35207\include\xstring
; File C:\Anka2Project\Anka2Project\Source\Binary\source\UserInterface\PythonNetworkStreamCommand.cpp
; File C:\Program Files\Microsoft Visual Studio\2022\Community\VC\Tools\MSVC\14.44.35207\include\xstring
; File C:\Anka2Project\Anka2Project\Source\Binary\source\UserInterface\PythonNetworkStreamCommand.cpp
; File C:\Program Files\Microsoft Visual Studio\2022\Community\VC\Tools\MSVC\14.44.35207\include\xstring
; File C:\Anka2Project\Anka2Project\Source\Binary\source\UserInterface\PythonNetworkStreamCommand.cpp
; File C:\Program Files\Microsoft Visual Studio\2022\Community\VC\Tools\MSVC\14.44.35207\include\xstring
; File C:\Anka2Project\Anka2Project\Source\Binary\source\UserInterface\PythonNetworkStreamCommand.cpp
; File C:\Program Files\Microsoft Visual Studio\2022\Community\VC\Tools\MSVC\14.44.35207\include\xstring
; File C:\Anka2Project\Anka2Project\Source\Binary\source\UserInterface\PythonNetworkStreamCommand.cpp
; File C:\Program Files\Microsoft Visual Studio\2022\Community\VC\Tools\MSVC\14.44.35207\include\xstring
; File C:\Anka2Project\Anka2Project\Source\Binary\source\UserInterface\PythonNetworkStreamCommand.cpp
; File C:\Program Files\Microsoft Visual Studio\2022\Community\VC\Tools\MSVC\14.44.35207\include\xstring
; File C:\Anka2Project\Anka2Project\Source\Binary\source\UserInterface\PythonNetworkStreamCommand.cpp
; File C:\Program Files\Microsoft Visual Studio\2022\Community\VC\Tools\MSVC\14.44.35207\include\xstring
; File C:\Anka2Project\Anka2Project\Source\Binary\source\UserInterface\PythonNetworkStreamCommand.cpp
; File C:\Program Files\Microsoft Visual Studio\2022\Community\VC\Tools\MSVC\14.44.35207\include\xstring
; File C:\Anka2Project\Anka2Project\Source\Binary\source\UserInterface\PythonNetworkStreamCommand.cpp
; File C:\Program Files\Microsoft Visual Studio\2022\Community\VC\Tools\MSVC\14.44.35207\include\xstring
; File C:\Anka2Project\Anka2Project\Source\Binary\source\UserInterface\PythonNetworkStreamCommand.cpp
; File C:\Program Files\Microsoft Visual Studio\2022\Community\VC\Tools\MSVC\14.44.35207\include\xstring
; File C:\Anka2Project\Anka2Project\Source\Binary\source\UserInterface\PythonNetworkStreamCommand.cpp
; File C:\Program Files\Microsoft Visual Studio\2022\Community\VC\Tools\MSVC\14.44.35207\include\xstring
; File C:\Anka2Project\Anka2Project\Source\Binary\source\UserInterface\PythonNetworkStreamCommand.cpp
; File C:\Program Files\Microsoft Visual Studio\2022\Community\VC\Tools\MSVC\14.44.35207\include\xstring
; File C:\Anka2Project\Anka2Project\Source\Binary\source\UserInterface\PythonNetworkStreamCommand.cpp
; File C:\Program Files\Microsoft Visual Studio\2022\Community\VC\Tools\MSVC\14.44.35207\include\xstring
; File C:\Anka2Project\Anka2Project\Source\Binary\source\UserInterface\PythonNetworkStreamCommand.cpp
; File C:\Program Files\Microsoft Visual Studio\2022\Community\VC\Tools\MSVC\14.44.35207\include\xstring
; File C:\Anka2Project\Anka2Project\Source\Binary\source\UserInterface\PythonNetworkStreamCommand.cpp
; File C:\Program Files\Microsoft Visual Studio\2022\Community\VC\Tools\MSVC\14.44.35207\include\xstring
; File C:\Anka2Project\Anka2Project\Source\Binary\source\UserInterface\PythonNetworkStreamCommand.cpp
; File C:\Program Files\Microsoft Visual Studio\2022\Community\VC\Tools\MSVC\14.44.35207\include\xstring
; File C:\Anka2Project\Anka2Project\Source\Binary\source\UserInterface\PythonNetworkStreamCommand.cpp
; File C:\Program Files\Microsoft Visual Studio\2022\Community\VC\Tools\MSVC\14.44.35207\include\xstring
; File C:\Anka2Project\Anka2Project\Source\Binary\source\UserInterface\PythonNetworkStreamCommand.cpp
; File C:\Program Files\Microsoft Visual Studio\2022\Community\VC\Tools\MSVC\14.44.35207\include\xstring
; File C:\Anka2Project\Anka2Project\Source\Binary\source\UserInterface\PythonNetworkStreamCommand.cpp
; File C:\Program Files\Microsoft Visual Studio\2022\Community\VC\Tools\MSVC\14.44.35207\include\xstring
; File C:\Anka2Project\Anka2Project\Source\Binary\source\UserInterface\PythonNetworkStreamCommand.cpp
; File C:\Program Files\Microsoft Visual Studio\2022\Community\VC\Tools\MSVC\14.44.35207\include\xstring
; File C:\Anka2Project\Anka2Project\Source\Binary\source\UserInterface\PythonNetworkStreamCommand.cpp
; File C:\Program Files\Microsoft Visual Studio\2022\Community\VC\Tools\MSVC\14.44.35207\include\xstring
; File C:\Anka2Project\Anka2Project\Source\Binary\source\UserInterface\PythonNetworkStreamCommand.cpp
; File C:\Program Files\Microsoft Visual Studio\2022\Community\VC\Tools\MSVC\14.44.35207\include\xstring
; File C:\Anka2Project\Anka2Project\Source\Binary\source\UserInterface\PythonNetworkStreamCommand.cpp
; File C:\Program Files\Microsoft Visual Studio\2022\Community\VC\Tools\MSVC\14.44.35207\include\xstring
; File C:\Anka2Project\Anka2Project\Source\Binary\source\UserInterface\PythonNetworkStreamCommand.cpp
; File C:\Program Files\Microsoft Visual Studio\2022\Community\VC\Tools\MSVC\14.44.35207\include\xstring
; File C:\Anka2Project\Anka2Project\Source\Binary\source\UserInterface\PythonNetworkStreamCommand.cpp
; File C:\Program Files\Microsoft Visual Studio\2022\Community\VC\Tools\MSVC\14.44.35207\include\xstring
; File C:\Anka2Project\Anka2Project\Source\Binary\source\UserInterface\PythonNetworkStreamCommand.cpp
; File C:\Program Files\Microsoft Visual Studio\2022\Community\VC\Tools\MSVC\14.44.35207\include\xstring
; File C:\Anka2Project\Anka2Project\Source\Binary\source\UserInterface\PythonNetworkStreamCommand.cpp
; File C:\Program Files\Microsoft Visual Studio\2022\Community\VC\Tools\MSVC\14.44.35207\include\xstring
; File C:\Anka2Project\Anka2Project\Source\Binary\source\UserInterface\PythonNetworkStreamCommand.cpp
; File C:\Program Files\Microsoft Visual Studio\2022\Community\VC\Tools\MSVC\14.44.35207\include\xstring
; File C:\Anka2Project\Anka2Project\Source\Binary\source\UserInterface\PythonNetworkStreamCommand.cpp
; File C:\Program Files\Microsoft Visual Studio\2022\Community\VC\Tools\MSVC\14.44.35207\include\xstring
; File C:\Anka2Project\Anka2Project\Source\Binary\source\UserInterface\PythonNetworkStreamCommand.cpp
; File C:\Program Files\Microsoft Visual Studio\2022\Community\VC\Tools\MSVC\14.44.35207\include\xstring
; File C:\Anka2Project\Anka2Project\Source\Binary\source\UserInterface\PythonNetworkStreamCommand.cpp
; File C:\Program Files\Microsoft Visual Studio\2022\Community\VC\Tools\MSVC\14.44.35207\include\xstring
; File C:\Anka2Project\Anka2Project\Source\Binary\source\UserInterface\PythonNetworkStreamCommand.cpp
; File C:\Program Files\Microsoft Visual Studio\2022\Community\VC\Tools\MSVC\14.44.35207\include\xstring
; File C:\Anka2Project\Anka2Project\Source\Binary\source\UserInterface\PythonNetworkStreamCommand.cpp
; File C:\Program Files\Microsoft Visual Studio\2022\Community\VC\Tools\MSVC\14.44.35207\include\xstring
; File C:\Anka2Project\Anka2Project\Source\Binary\source\UserInterface\PythonNetworkStreamCommand.cpp
; File C:\Program Files\Microsoft Visual Studio\2022\Community\VC\Tools\MSVC\14.44.35207\include\xstring
; File C:\Anka2Project\Anka2Project\Source\Binary\source\UserInterface\PythonNetworkStreamCommand.cpp
; File C:\Program Files\Microsoft Visual Studio\2022\Community\VC\Tools\MSVC\14.44.35207\include\xstring
; File C:\Anka2Project\Anka2Project\Source\Binary\source\UserInterface\PythonNetworkStreamCommand.cpp
; File C:\Program Files\Microsoft Visual Studio\2022\Community\VC\Tools\MSVC\14.44.35207\include\xstring
; File C:\Anka2Project\Anka2Project\Source\Binary\source\UserInterface\PythonNetworkStreamCommand.cpp
; File C:\Program Files\Microsoft Visual Studio\2022\Community\VC\Tools\MSVC\14.44.35207\include\xstring
; File C:\Program Files\Microsoft Visual Studio\2022\Community\VC\Tools\MSVC\14.44.35207\include\xtree
; File C:\Anka2Project\Anka2Project\Source\Binary\source\UserInterface\PythonNetworkStreamCommand.cpp
; File C:\Anka2Project\Anka2Project\Source\Binary\source\UserInterface\AbstractSingleton.h
; File C:\Anka2Project\Anka2Project\Source\Binary\source\UserInterface\PythonNetworkStreamCommand.cpp
; File C:\Anka2Project\Anka2Project\Source\Binary\source\UserInterface\AbstractSingleton.h
; File C:\Anka2Project\Anka2Project\Source\Binary\source\UserInterface\PythonNetworkStreamCommand.cpp
; File C:\Program Files\Microsoft Visual Studio\2022\Community\VC\Tools\MSVC\14.44.35207\include\vector
; File C:\Anka2Project\Anka2Project\Source\Binary\source\UserInterface\PythonNetworkStreamCommand.cpp
;	COMDAT ?ServerCommand@CPythonNetworkStream@@QAEXPAD@Z
_TEXT	SEGMENT
_hand_2$1$ = -112					; size = 4
_hand_2$1$ = -112					; size = 4
_card_in_hand_2$1$ = -112				; size = 4
_hand_1_v$1$ = -108					; size = 4
_card_in_hand_2_v$1$ = -108				; size = 4
_hand_1_v$1$ = -108					; size = 4
tv8830 = -104						; size = 4
_card_in_hand_5$1$ = -104				; size = 4
_hand_2_v$1$ = -100					; size = 4
tv8852 = -100						; size = 4
_hand_2_v$1$ = -100					; size = 4
_card_in_hand_1_v$1$ = -100				; size = 4
_card_in_hand_3_v$1$ = -96				; size = 4
tv8857 = -96						; size = 4
__Result$1$ = -96					; size = 4
_card_in_hand_4_v$1$ = -92				; size = 4
tv8820 = -92						; size = 4
tv8864 = -92						; size = 4
__Result$1$ = -92					; size = 4
tv8829 = -88						; size = 4
tv8819 = -88						; size = 4
_card_in_hand_4$1$ = -88				; size = 4
tv8861 = -88						; size = 4
_c_szCommand$GSCopy$1$ = -84				; size = 4
_card_in_hand_3$1$ = -84				; size = 4
_hand_1$1$ = -80					; size = 4
_hand_1$1$ = -80					; size = 4
tv8831 = -80						; size = 4
_card_in_hand_5_v$1$ = -80				; size = 4
_gold$1$ = -80						; size = 4
_flag$1$ = -80						; size = 4
tv8818 = -76						; size = 4
_hand_3$1$ = -76					; size = 4
_card_in_hand_1$1$ = -76				; size = 4
_hand_3$1$ = -76					; size = 4
_f$467 = -76						; size = 4
tv9339 = -76						; size = 4
_iVID2$1$ = -76						; size = 4
_iVID2$1$ = -76						; size = 4
_fAngle$1$ = -76					; size = 4
_iVID2$1$ = -76						; size = 4
tv9342 = -76						; size = 4
_isTrue$468 = -69					; size = 1
_isTrue$469 = -69					; size = 1
_byDistance$1$ = -69					; size = 1
_TokenVector$ = -68					; size = 12
_v3Rotation$470 = -56					; size = 12
$T458 = -44						; size = 24
$T417 = -44						; size = 24
_$S12$471 = -44						; size = 24
$T393 = -44						; size = 24
$T401 = -44						; size = 24
$T409 = -44						; size = 24
$T423 = -44						; size = 24
$T457 = -44						; size = 24
$T424 = -44						; size = 24
$T425 = -44						; size = 24
$T426 = -44						; size = 24
$T427 = -44						; size = 24
$T428 = -44						; size = 24
$T429 = -44						; size = 24
$T430 = -44						; size = 24
$T431 = -44						; size = 24
$T432 = -44						; size = 24
$T434 = -44						; size = 24
$T435 = -44						; size = 24
$T436 = -44						; size = 24
$T437 = -44						; size = 24
$T438 = -44						; size = 24
$T439 = -44						; size = 24
$T440 = -44						; size = 24
$T441 = -44						; size = 24
$T442 = -44						; size = 24
$T443 = -44						; size = 24
$T444 = -44						; size = 24
$T445 = -44						; size = 24
$T446 = -44						; size = 24
$T447 = -44						; size = 24
$T448 = -44						; size = 24
$T449 = -44						; size = 24
$T450 = -44						; size = 24
$T451 = -44						; size = 24
$T452 = -44						; size = 24
$T453 = -44						; size = 24
$T454 = -44						; size = 24
$T455 = -44						; size = 24
$T456 = -44						; size = 24
$T433 = -44						; size = 24
_PixelPosition$472 = -32				; size = 12
__$ArrayPad$ = -20					; size = 4
__$EHRec$ = -12						; size = 12
_c_szCommand$ = 8					; size = 4
?ServerCommand@CPythonNetworkStream@@QAEXPAD@Z PROC	; CPythonNetworkStream::ServerCommand, COMDAT
; _this$ = ecx

; 141  : {

  00000	53		 push	 ebx
  00001	8b dc		 mov	 ebx, esp
  00003	83 ec 08	 sub	 esp, 8
  00006	83 e4 f8	 and	 esp, -8			; fffffff8H
  00009	83 c4 04	 add	 esp, 4
  0000c	55		 push	 ebp
  0000d	8b 6b 04	 mov	 ebp, DWORD PTR [ebx+4]
  00010	89 6c 24 04	 mov	 DWORD PTR [esp+4], ebp
  00014	8b ec		 mov	 ebp, esp
  00016	6a ff		 push	 -1
  00018	68 00 00 00 00	 push	 __ehhandler$?ServerCommand@CPythonNetworkStream@@QAEXPAD@Z
  0001d	64 a1 00 00 00
	00		 mov	 eax, DWORD PTR fs:0
  00023	50		 push	 eax
  00024	53		 push	 ebx
  00025	83 ec 60	 sub	 esp, 96			; 00000060H
  00028	a1 00 00 00 00	 mov	 eax, DWORD PTR ___security_cookie
  0002d	33 c5		 xor	 eax, ebp
  0002f	89 45 ec	 mov	 DWORD PTR __$ArrayPad$[ebp], eax
  00032	56		 push	 esi
  00033	57		 push	 edi
  00034	50		 push	 eax
  00035	8d 45 f4	 lea	 eax, DWORD PTR __$EHRec$[ebp]
  00038	64 a3 00 00 00
	00		 mov	 DWORD PTR fs:0, eax
  0003e	8b f9		 mov	 edi, ecx
  00040	8b 73 08	 mov	 esi, DWORD PTR _c_szCommand$[ebx]

; 142  : 	// #0000811: [M2EU]    
; 143  : 	if (strcmpi(c_szCommand, "ConsoleEnable") == 0)

  00043	68 00 00 00 00	 push	 OFFSET ??_C@_0O@NGPLKLCI@ConsoleEnable@
  00048	56		 push	 esi
  00049	89 75 ac	 mov	 DWORD PTR _c_szCommand$GSCopy$1$[ebp], esi
  0004c	e8 00 00 00 00	 call	 __strcmpi
  00051	83 c4 08	 add	 esp, 8
  00054	85 c0		 test	 eax, eax
  00056	0f 84 ab 1f 00
	00		 je	 $LN194@ServerComm

; 144  : 		return;
; 145  : 
; 146  : 	if (m_apoPhaseWnd[PHASE_WINDOW_GAME])

  0005c	83 bf 98 01 00
	00 00		 cmp	 DWORD PTR [edi+408], 0
  00063	a1 00 00 00 00	 mov	 eax, DWORD PTR __imp__Py_BuildValue
  00068	74 1a		 je	 SHORT $LN6@ServerComm

; 147  : 	{
; 148  : 		bool isTrue;
; 149  : 		if (PyCallClassMemberFunc(m_apoPhaseWnd[PHASE_WINDOW_GAME], 

  0006a	56		 push	 esi
  0006b	68 00 00 00 00	 push	 OFFSET ??_C@_03KJMMOONA@?$CIs?$CJ@
  00070	ff d0		 call	 eax
  00072	8d 4d bb	 lea	 ecx, DWORD PTR _isTrue$469[ebp]
  00075	51		 push	 ecx
  00076	50		 push	 eax
  00077	68 00 00 00 00	 push	 OFFSET ??_C@_0BJ@GKNJMEFC@BINARY_ServerCommand_Run@
  0007c	ff b7 98 01 00
	00		 push	 DWORD PTR [edi+408]

; 150  : 			"BINARY_ServerCommand_Run", 
; 151  : 			Py_BuildValue("(s)", c_szCommand),
; 152  : 			&isTrue
; 153  : 		))
; 154  : 		{
; 155  : 			if (isTrue)
; 156  : 				return;
; 157  : 		}
; 158  : 	}

  00082	eb 21		 jmp	 SHORT $LN3235@ServerComm
$LN6@ServerComm:

; 159  : 	else if (m_poSerCommandParserWnd)

  00084	83 bf a0 01 00
	00 00		 cmp	 DWORD PTR [edi+416], 0
  0008b	74 2e		 je	 SHORT $LN12@ServerComm

; 160  : 	{
; 161  : 		bool isTrue;
; 162  : 		if (PyCallClassMemberFunc(m_poSerCommandParserWnd, 

  0008d	56		 push	 esi
  0008e	68 00 00 00 00	 push	 OFFSET ??_C@_03KJMMOONA@?$CIs?$CJ@
  00093	ff d0		 call	 eax
  00095	8d 4d bb	 lea	 ecx, DWORD PTR _isTrue$468[ebp]
  00098	51		 push	 ecx
  00099	50		 push	 eax
  0009a	68 00 00 00 00	 push	 OFFSET ??_C@_0BJ@GKNJMEFC@BINARY_ServerCommand_Run@
  0009f	ff b7 a0 01 00
	00		 push	 DWORD PTR [edi+416]
$LN3235@ServerComm:
; File C:\Program Files\Microsoft Visual Studio\2022\Community\VC\Tools\MSVC\14.44.35207\include\vector

; 400  :     _CONSTEXPR20 _Vector_val() noexcept : _Myfirst(), _Mylast(), _Myend() {}

  000a5	e8 00 00 00 00	 call	 ?PyCallClassMemberFunc@@YA_NPAU_object@@PBD0PA_N@Z ; PyCallClassMemberFunc
  000aa	83 c4 18	 add	 esp, 24			; 00000018H
  000ad	84 c0		 test	 al, al
  000af	74 0a		 je	 SHORT $LN12@ServerComm
  000b1	80 7d bb 00	 cmp	 BYTE PTR _isTrue$468[ebp], 0
  000b5	0f 85 4c 1f 00
	00		 jne	 $LN194@ServerComm
$LN12@ServerComm:
  000bb	c7 45 bc 00 00
	00 00		 mov	 DWORD PTR _TokenVector$[ebp], 0
  000c2	c7 45 c0 00 00
	00 00		 mov	 DWORD PTR _TokenVector$[ebp+4], 0
  000c9	c7 45 c4 00 00
	00 00		 mov	 DWORD PTR _TokenVector$[ebp+8], 0
; File C:\Anka2Project\Anka2Project\Source\Binary\source\UserInterface\PythonNetworkStreamCommand.cpp

; 174  : 	if (!SplitToken(c_szCommand, &TokenVector))

  000d0	51		 push	 ecx
  000d1	8d 55 bc	 lea	 edx, DWORD PTR _TokenVector$[ebp]
  000d4	c7 45 fc 00 00
	00 00		 mov	 DWORD PTR __$EHRec$[ebp+8], 0
  000db	8b ce		 mov	 ecx, esi
  000dd	e8 00 00 00 00	 call	 ?SplitToken@@YA_NPBDPAV?$vector@V?$basic_string@DU?$char_traits@D@std@@V?$allocator@D@2@@std@@V?$allocator@V?$basic_string@DU?$char_traits@D@std@@V?$allocator@D@2@@std@@@2@@std@@0@Z ; SplitToken
  000e2	83 c4 04	 add	 esp, 4
  000e5	84 c0		 test	 al, al
  000e7	0f 84 12 1f 00
	00		 je	 $LN127@ServerComm
; File C:\Program Files\Microsoft Visual Studio\2022\Community\VC\Tools\MSVC\14.44.35207\include\vector

; 1910 :         return _My_data._Myfirst == _My_data._Mylast;

  000ed	8b 75 bc	 mov	 esi, DWORD PTR _TokenVector$[ebp]
  000f0	3b 75 c0	 cmp	 esi, DWORD PTR _TokenVector$[ebp+4]
; File C:\Anka2Project\Anka2Project\Source\Binary\source\UserInterface\PythonNetworkStreamCommand.cpp

; 176  : 	if (TokenVector.empty())

  000f3	0f 84 06 1f 00
	00		 je	 $LN127@ServerComm
; File C:\Program Files\Microsoft Visual Studio\2022\Community\VC\Tools\MSVC\14.44.35207\include\xstring

; 453  :         return _Myres > _Small_string_capacity;

  000f9	83 7e 14 0f	 cmp	 DWORD PTR [esi+20], 15	; 0000000fH

; 445  :         if (_Large_mode_engaged()) {

  000fd	76 02		 jbe	 SHORT $LN215@ServerComm

; 446  :             _Result = _Unfancy(_Bx._Ptr);

  000ff	8b 36		 mov	 esi, DWORD PTR [esi]
$LN215@ServerComm:
; File C:\Anka2Project\Anka2Project\Source\Binary\source\UserInterface\PythonNetworkStreamCommand.cpp

; 181  : 	if (!strcmpi(szCmd, "quit"))

  00101	68 00 00 00 00	 push	 OFFSET ??_C@_04KNNLNNGO@quit@
  00106	56		 push	 esi
  00107	e8 00 00 00 00	 call	 __strcmpi
  0010c	83 c4 08	 add	 esp, 8
  0010f	85 c0		 test	 eax, eax
  00111	75 0c		 jne	 SHORT $LN15@ServerComm

; 182  : 	{
; 183  : 		PostQuitMessage(0);

  00113	50		 push	 eax
  00114	ff 15 00 00 00
	00		 call	 DWORD PTR __imp__PostQuitMessage@4

; 184  : 	}

  0011a	e9 e0 1e 00 00	 jmp	 $LN127@ServerComm
$LN15@ServerComm:

; 185  : 	else if (!strcmpi(szCmd, "BettingMoney"))

  0011f	68 00 00 00 00	 push	 OFFSET ??_C@_0N@JEPOMHGB@BettingMoney@
  00124	56		 push	 esi
  00125	e8 00 00 00 00	 call	 __strcmpi
  0012a	83 c4 08	 add	 esp, 8
  0012d	85 c0		 test	 eax, eax
  0012f	75 17		 jne	 SHORT $LN17@ServerComm

; 186  : 	{
; 187  : 		if (2 != TokenVector.size())

  00131	8b 45 c0	 mov	 eax, DWORD PTR _TokenVector$[ebp+4]
  00134	2b 45 bc	 sub	 eax, DWORD PTR _TokenVector$[ebp]
  00137	83 e8 30	 sub	 eax, 48			; 00000030H
  0013a	83 f8 18	 cmp	 eax, 24			; 00000018H
  0013d	0f 83 42 15 00
	00		 jae	 $LN3210@ServerComm
  00143	e9 b7 1e 00 00	 jmp	 $LN127@ServerComm
$LN17@ServerComm:

; 188  : 		{
; 189  : 			TraceError("CPythonNetworkStream::ServerCommand(c_szCommand=%s) - Strange Parameter Count : %s", c_szCommand);
; 190  : 			return;
; 191  : 		}
; 192  : 	}
; 193  : 	else if (!strcmpi(szCmd, "gift"))

  00148	68 00 00 00 00	 push	 OFFSET ??_C@_04FDOIBAFG@gift@
  0014d	56		 push	 esi
  0014e	e8 00 00 00 00	 call	 __strcmpi
  00153	83 c4 08	 add	 esp, 8
  00156	85 c0		 test	 eax, eax
  00158	75 28		 jne	 SHORT $LN20@ServerComm

; 194  : 	{
; 195  : 		PyCallClassMemberFunc(m_apoPhaseWnd[PHASE_WINDOW_GAME], "Gift_Show", Py_BuildValue("()")); 	

  0015a	a1 00 00 00 00	 mov	 eax, DWORD PTR __imp__Py_BuildValue
  0015f	68 00 00 00 00	 push	 OFFSET ??_C@_02HCKGKOFO@?$CI?$CJ@
  00164	ff d0		 call	 eax
  00166	83 c4 04	 add	 esp, 4
  00169	50		 push	 eax
  0016a	68 00 00 00 00	 push	 OFFSET ??_C@_09MBHMFCFC@Gift_Show@
  0016f	ff b7 98 01 00
	00		 push	 DWORD PTR [edi+408]
  00175	e8 00 00 00 00	 call	 ?PyCallClassMemberFunc@@YA_NPAU_object@@PBD0@Z ; PyCallClassMemberFunc
  0017a	83 c4 0c	 add	 esp, 12			; 0000000cH

; 196  : 	}

  0017d	e9 7d 1e 00 00	 jmp	 $LN127@ServerComm
$LN20@ServerComm:

; 197  : 
; 198  : #ifdef __AUTO_HUNT__
; 199  : 	else if (!strcmpi(szCmd, "auto_hunt"))

  00182	68 00 00 00 00	 push	 OFFSET ??_C@_09MMOBFBOD@auto_hunt@
  00187	56		 push	 esi
  00188	e8 00 00 00 00	 call	 __strcmpi
  0018d	83 c4 08	 add	 esp, 8
  00190	85 c0		 test	 eax, eax
  00192	75 31		 jne	 SHORT $LN22@ServerComm
; File C:\Anka2Project\Anka2Project\Source\Binary\source\eterBase\Singleton.h

; 26   : 		assert(ms_singleton);

  00194	8b 0d 00 00 00
	00		 mov	 ecx, DWORD PTR ?ms_singleton@?$CSingleton@VCPythonPlayer@@@@0PAVCPythonPlayer@@A ; CSingleton<CPythonPlayer>::ms_singleton
  0019a	85 c9		 test	 ecx, ecx
  0019c	75 1a		 jne	 SHORT $LN226@ServerComm
  0019e	6a 1a		 push	 26			; 0000001aH
  001a0	68 00 00 00 00	 push	 OFFSET ??_C@_1IO@CAJLEEOI@?$AAC?$AA?3?$AA?2?$AAA?$AAn?$AAk?$AAa?$AA2?$AAP?$AAr?$AAo?$AAj?$AAe?$AAc?$AAt@
  001a5	68 00 00 00 00	 push	 OFFSET ??_C@_1BK@FMEHPMFE@?$AAm?$AAs?$AA_?$AAs?$AAi?$AAn?$AAg?$AAl?$AAe?$AAt?$AAo?$AAn@
  001aa	e8 00 00 00 00	 call	 __wassert
  001af	8b 0d 00 00 00
	00		 mov	 ecx, DWORD PTR ?ms_singleton@?$CSingleton@VCPythonPlayer@@@@0PAVCPythonPlayer@@A ; CSingleton<CPythonPlayer>::ms_singleton
  001b5	83 c4 0c	 add	 esp, 12			; 0000000cH
$LN226@ServerComm:
; File C:\Anka2Project\Anka2Project\Source\Binary\source\UserInterface\PythonNetworkStreamCommand.cpp

; 201  : 		CPythonPlayer::Instance().AutoHuntSettings(c_szCommand);

  001b8	ff 75 ac	 push	 DWORD PTR _c_szCommand$GSCopy$1$[ebp]
  001bb	e8 00 00 00 00	 call	 ?AutoHuntSettings@CPythonPlayer@@QAEXPBD@Z ; CPythonPlayer::AutoHuntSettings

; 202  : 	}

  001c0	e9 3a 1e 00 00	 jmp	 $LN127@ServerComm
$LN22@ServerComm:

; 203  : #endif
; 204  : 
; 205  : 	else if (!strcmpi(szCmd, "cube"))

  001c5	68 00 00 00 00	 push	 OFFSET ??_C@_04OIHHNFHN@cube@
  001ca	56		 push	 esi
  001cb	e8 00 00 00 00	 call	 __strcmpi
  001d0	83 c4 08	 add	 esp, 8
  001d3	85 c0		 test	 eax, eax
  001d5	0f 85 9b 03 00
	00		 jne	 $LN24@ServerComm
; File C:\Program Files\Microsoft Visual Studio\2022\Community\VC\Tools\MSVC\14.44.35207\include\vector

; 1915 :         return static_cast<size_type>(_My_data._Mylast - _My_data._Myfirst);

  001db	8b 75 c0	 mov	 esi, DWORD PTR _TokenVector$[ebp+4]
  001de	b8 ab aa aa 2a	 mov	 eax, 715827883		; 2aaaaaabH
  001e3	8b ce		 mov	 ecx, esi
  001e5	2b 4d bc	 sub	 ecx, DWORD PTR _TokenVector$[ebp]
  001e8	f7 e9		 imul	 ecx
  001ea	c1 fa 02	 sar	 edx, 2
  001ed	8b c2		 mov	 eax, edx
  001ef	c1 e8 1f	 shr	 eax, 31			; 0000001fH
  001f2	03 c2		 add	 eax, edx
  001f4	89 45 b0	 mov	 DWORD PTR tv8831[ebp], eax
; File C:\Anka2Project\Anka2Project\Source\Binary\source\UserInterface\PythonNetworkStreamCommand.cpp

; 207  : 		if (TokenVector.size() < 2)

  001f7	83 f8 02	 cmp	 eax, 2
  001fa	0f 82 85 14 00
	00		 jb	 $LN3210@ServerComm
; File C:\Program Files\Microsoft Visual Studio\2022\Community\VC\Tools\MSVC\14.44.35207\include\vector

; 1934 :         return _My_data._Myfirst[_Pos];

  00200	8b 45 bc	 mov	 eax, DWORD PTR _TokenVector$[ebp]
  00203	83 c0 18	 add	 eax, 24			; 00000018H
  00206	89 45 a0	 mov	 DWORD PTR __Result$1$[ebp], eax
; File C:\Program Files\Microsoft Visual Studio\2022\Community\VC\Tools\MSVC\14.44.35207\include\xstring

; 453  :         return _Myres > _Small_string_capacity;

  00209	8b 50 14	 mov	 edx, DWORD PTR [eax+20]

; 2854 :         return _Traits_equal<_Traits>(_Mypair._Myval2._Myptr(), _Mypair._Myval2._Mysize, _Ptr, _Traits::length(_Ptr));

  0020c	8b 48 10	 mov	 ecx, DWORD PTR [eax+16]
  0020f	89 4d a4	 mov	 DWORD PTR tv8864[ebp], ecx

; 453  :         return _Myres > _Small_string_capacity;

  00212	89 55 a8	 mov	 DWORD PTR tv8829[ebp], edx
  00215	83 fa 0f	 cmp	 edx, 15			; 0000000fH

; 445  :         if (_Large_mode_engaged()) {

  00218	76 02		 jbe	 SHORT $LN3200@ServerComm

; 446  :             _Result = _Unfancy(_Bx._Ptr);

  0021a	8b 00		 mov	 eax, DWORD PTR [eax]
$LN3200@ServerComm:

; 2854 :         return _Traits_equal<_Traits>(_Mypair._Myval2._Myptr(), _Mypair._Myval2._Mysize, _Ptr, _Traits::length(_Ptr));

  0021c	6a 04		 push	 4
  0021e	68 00 00 00 00	 push	 OFFSET ??_C@_04PMOCAHAA@open@
  00223	51		 push	 ecx
  00224	50		 push	 eax
  00225	e8 00 00 00 00	 call	 ??$_Traits_equal@U?$char_traits@D@std@@@std@@YA_NQBDI0I@Z ; std::_Traits_equal<std::char_traits<char> >
  0022a	83 c4 10	 add	 esp, 16			; 00000010H
; File C:\Anka2Project\Anka2Project\Source\Binary\source\UserInterface\PythonNetworkStreamCommand.cpp

; 213  : 		if ("open" == TokenVector[1])

  0022d	84 c0		 test	 al, al
  0022f	74 47		 je	 SHORT $LN27@ServerComm

; 214  : 		{
; 215  : 			if (3 > TokenVector.size())

  00231	83 7d b0 03	 cmp	 DWORD PTR tv8831[ebp], 3
  00235	0f 82 4a 14 00
	00		 jb	 $LN3210@ServerComm
; File C:\Program Files\Microsoft Visual Studio\2022\Community\VC\Tools\MSVC\14.44.35207\include\vector

; 1934 :         return _My_data._Myfirst[_Pos];

  0023b	8b 45 bc	 mov	 eax, DWORD PTR _TokenVector$[ebp]
  0023e	83 c0 30	 add	 eax, 48			; 00000030H
; File C:\Program Files\Microsoft Visual Studio\2022\Community\VC\Tools\MSVC\14.44.35207\include\xstring

; 453  :         return _Myres > _Small_string_capacity;

  00241	83 78 14 0f	 cmp	 DWORD PTR [eax+20], 15	; 0000000fH

; 445  :         if (_Large_mode_engaged()) {

  00245	76 02		 jbe	 SHORT $LN329@ServerComm

; 446  :             _Result = _Unfancy(_Bx._Ptr);

  00247	8b 00		 mov	 eax, DWORD PTR [eax]
$LN329@ServerComm:
; File C:\Anka2Project\Anka2Project\Source\Binary\source\UserInterface\PythonNetworkStreamCommand.cpp

; 221  : 			DWORD npcVNUM = (DWORD)atoi(TokenVector[2].c_str());

  00249	50		 push	 eax
  0024a	e8 00 00 00 00	 call	 __atoi64
  0024f	83 c4 04	 add	 esp, 4

; 222  : 			PyCallClassMemberFunc(m_apoPhaseWnd[PHASE_WINDOW_GAME], "BINARY_Cube_Open", Py_BuildValue("(i)", npcVNUM));

  00252	50		 push	 eax
  00253	a1 00 00 00 00	 mov	 eax, DWORD PTR __imp__Py_BuildValue
  00258	68 00 00 00 00	 push	 OFFSET ??_C@_03LIHNMIHG@?$CIi?$CJ@
  0025d	ff d0		 call	 eax
  0025f	50		 push	 eax
  00260	68 00 00 00 00	 push	 OFFSET ??_C@_0BB@OJMMNJOG@BINARY_Cube_Open@
  00265	ff b7 98 01 00
	00		 push	 DWORD PTR [edi+408]
  0026b	e8 00 00 00 00	 call	 ?PyCallClassMemberFunc@@YA_NPAU_object@@PBD0@Z ; PyCallClassMemberFunc
  00270	83 c4 14	 add	 esp, 20			; 00000014H

; 223  : 		}

  00273	e9 87 1d 00 00	 jmp	 $LN127@ServerComm
$LN27@ServerComm:
; File C:\Program Files\Microsoft Visual Studio\2022\Community\VC\Tools\MSVC\14.44.35207\include\xstring

; 453  :         return _Myres > _Small_string_capacity;

  00278	83 7d a8 0f	 cmp	 DWORD PTR tv8829[ebp], 15 ; 0000000fH

; 445  :         if (_Large_mode_engaged()) {

  0027c	8b 45 a0	 mov	 eax, DWORD PTR __Result$1$[ebp]
  0027f	76 02		 jbe	 SHORT $LN3201@ServerComm

; 446  :             _Result = _Unfancy(_Bx._Ptr);

  00281	8b 00		 mov	 eax, DWORD PTR [eax]
$LN3201@ServerComm:

; 2854 :         return _Traits_equal<_Traits>(_Mypair._Myval2._Myptr(), _Mypair._Myval2._Mysize, _Ptr, _Traits::length(_Ptr));

  00283	6a 05		 push	 5
  00285	68 00 00 00 00	 push	 OFFSET ??_C@_05LBOHBHFK@close@
  0028a	ff 75 a4	 push	 DWORD PTR tv8864[ebp]
  0028d	50		 push	 eax
  0028e	e8 00 00 00 00	 call	 ??$_Traits_equal@U?$char_traits@D@std@@@std@@YA_NQBDI0I@Z ; std::_Traits_equal<std::char_traits<char> >
  00293	83 c4 10	 add	 esp, 16			; 00000010H
; File C:\Anka2Project\Anka2Project\Source\Binary\source\UserInterface\PythonNetworkStreamCommand.cpp

; 224  : 		else if ("close" == TokenVector[1])

  00296	84 c0		 test	 al, al
  00298	74 28		 je	 SHORT $LN30@ServerComm

; 225  : 		{
; 226  : 			PyCallClassMemberFunc(m_apoPhaseWnd[PHASE_WINDOW_GAME], "BINARY_Cube_Close", Py_BuildValue("()"));

  0029a	a1 00 00 00 00	 mov	 eax, DWORD PTR __imp__Py_BuildValue
  0029f	68 00 00 00 00	 push	 OFFSET ??_C@_02HCKGKOFO@?$CI?$CJ@
  002a4	ff d0		 call	 eax
  002a6	83 c4 04	 add	 esp, 4
  002a9	50		 push	 eax
  002aa	68 00 00 00 00	 push	 OFFSET ??_C@_0BC@PIJLHOMJ@BINARY_Cube_Close@
  002af	ff b7 98 01 00
	00		 push	 DWORD PTR [edi+408]
  002b5	e8 00 00 00 00	 call	 ?PyCallClassMemberFunc@@YA_NPAU_object@@PBD0@Z ; PyCallClassMemberFunc
  002ba	83 c4 0c	 add	 esp, 12			; 0000000cH

; 227  : 		}

  002bd	e9 3d 1d 00 00	 jmp	 $LN127@ServerComm
$LN30@ServerComm:
; File C:\Program Files\Microsoft Visual Studio\2022\Community\VC\Tools\MSVC\14.44.35207\include\vector

; 1934 :         return _My_data._Myfirst[_Pos];

  002c2	8b 45 bc	 mov	 eax, DWORD PTR _TokenVector$[ebp]
  002c5	83 c0 18	 add	 eax, 24			; 00000018H
; File C:\Program Files\Microsoft Visual Studio\2022\Community\VC\Tools\MSVC\14.44.35207\include\xstring

; 453  :         return _Myres > _Small_string_capacity;

  002c8	83 7d a8 0f	 cmp	 DWORD PTR tv8829[ebp], 15 ; 0000000fH

; 445  :         if (_Large_mode_engaged()) {

  002cc	76 02		 jbe	 SHORT $LN3202@ServerComm

; 446  :             _Result = _Unfancy(_Bx._Ptr);

  002ce	8b 00		 mov	 eax, DWORD PTR [eax]
$LN3202@ServerComm:

; 2854 :         return _Traits_equal<_Traits>(_Mypair._Myval2._Myptr(), _Mypair._Myval2._Mysize, _Ptr, _Traits::length(_Ptr));

  002d0	6a 04		 push	 4
  002d2	68 00 00 00 00	 push	 OFFSET ??_C@_04NIDJFNBE@info@
  002d7	ff 75 a4	 push	 DWORD PTR tv8864[ebp]
  002da	50		 push	 eax
  002db	e8 00 00 00 00	 call	 ??$_Traits_equal@U?$char_traits@D@std@@@std@@YA_NQBDI0I@Z ; std::_Traits_equal<std::char_traits<char> >
  002e0	83 c4 10	 add	 esp, 16			; 00000010H
; File C:\Anka2Project\Anka2Project\Source\Binary\source\UserInterface\PythonNetworkStreamCommand.cpp

; 228  : 		else if ("info" == TokenVector[1])

  002e3	84 c0		 test	 al, al
  002e5	8b 45 bc	 mov	 eax, DWORD PTR _TokenVector$[ebp]
  002e8	74 7f		 je	 SHORT $LN32@ServerComm

; 229  : 		{
; 230  : 			if (5 != TokenVector.size())

  002ea	2b f0		 sub	 esi, eax
  002ec	83 ee 78	 sub	 esi, 120		; 00000078H
  002ef	83 fe 18	 cmp	 esi, 24			; 00000018H
  002f2	0f 83 8d 13 00
	00		 jae	 $LN3210@ServerComm
; File C:\Program Files\Microsoft Visual Studio\2022\Community\VC\Tools\MSVC\14.44.35207\include\vector

; 1934 :         return _My_data._Myfirst[_Pos];

  002f8	83 c0 30	 add	 eax, 48			; 00000030H
; File C:\Program Files\Microsoft Visual Studio\2022\Community\VC\Tools\MSVC\14.44.35207\include\xstring

; 453  :         return _Myres > _Small_string_capacity;

  002fb	83 78 14 0f	 cmp	 DWORD PTR [eax+20], 15	; 0000000fH

; 445  :         if (_Large_mode_engaged()) {

  002ff	76 02		 jbe	 SHORT $LN418@ServerComm

; 446  :             _Result = _Unfancy(_Bx._Ptr);

  00301	8b 00		 mov	 eax, DWORD PTR [eax]
$LN418@ServerComm:
; File C:\Anka2Project\Anka2Project\Source\Binary\source\UserInterface\PythonNetworkStreamCommand.cpp

; 236  : 			UINT gold = atoi(TokenVector[2].c_str());

  00303	50		 push	 eax
  00304	e8 00 00 00 00	 call	 __atoi64
; File C:\Program Files\Microsoft Visual Studio\2022\Community\VC\Tools\MSVC\14.44.35207\include\vector

; 1934 :         return _My_data._Myfirst[_Pos];

  00309	8b 4d bc	 mov	 ecx, DWORD PTR _TokenVector$[ebp]
; File C:\Anka2Project\Anka2Project\Source\Binary\source\UserInterface\PythonNetworkStreamCommand.cpp

; 236  : 			UINT gold = atoi(TokenVector[2].c_str());

  0030c	83 c4 04	 add	 esp, 4
; File C:\Program Files\Microsoft Visual Studio\2022\Community\VC\Tools\MSVC\14.44.35207\include\vector

; 1934 :         return _My_data._Myfirst[_Pos];

  0030f	83 c1 48	 add	 ecx, 72			; 00000048H
; File C:\Anka2Project\Anka2Project\Source\Binary\source\UserInterface\PythonNetworkStreamCommand.cpp

; 236  : 			UINT gold = atoi(TokenVector[2].c_str());

  00312	89 45 b0	 mov	 DWORD PTR _gold$1$[ebp], eax
; File C:\Program Files\Microsoft Visual Studio\2022\Community\VC\Tools\MSVC\14.44.35207\include\xstring

; 453  :         return _Myres > _Small_string_capacity;

  00315	83 79 14 0f	 cmp	 DWORD PTR [ecx+20], 15	; 0000000fH

; 445  :         if (_Large_mode_engaged()) {

  00319	76 02		 jbe	 SHORT $LN434@ServerComm

; 446  :             _Result = _Unfancy(_Bx._Ptr);

  0031b	8b 09		 mov	 ecx, DWORD PTR [ecx]
$LN434@ServerComm:
; File C:\Anka2Project\Anka2Project\Source\Binary\source\UserInterface\PythonNetworkStreamCommand.cpp

; 237  : 			UINT itemVnum = atoi(TokenVector[3].c_str());

  0031d	51		 push	 ecx
  0031e	e8 00 00 00 00	 call	 __atoi64
; File C:\Program Files\Microsoft Visual Studio\2022\Community\VC\Tools\MSVC\14.44.35207\include\vector

; 1934 :         return _My_data._Myfirst[_Pos];

  00323	8b 4d bc	 mov	 ecx, DWORD PTR _TokenVector$[ebp]
; File C:\Anka2Project\Anka2Project\Source\Binary\source\UserInterface\PythonNetworkStreamCommand.cpp

; 237  : 			UINT itemVnum = atoi(TokenVector[3].c_str());

  00326	83 c4 04	 add	 esp, 4
; File C:\Program Files\Microsoft Visual Studio\2022\Community\VC\Tools\MSVC\14.44.35207\include\vector

; 1934 :         return _My_data._Myfirst[_Pos];

  00329	83 c1 60	 add	 ecx, 96			; 00000060H
; File C:\Anka2Project\Anka2Project\Source\Binary\source\UserInterface\PythonNetworkStreamCommand.cpp

; 237  : 			UINT itemVnum = atoi(TokenVector[3].c_str());

  0032c	8b f0		 mov	 esi, eax
; File C:\Program Files\Microsoft Visual Studio\2022\Community\VC\Tools\MSVC\14.44.35207\include\xstring

; 453  :         return _Myres > _Small_string_capacity;

  0032e	83 79 14 0f	 cmp	 DWORD PTR [ecx+20], 15	; 0000000fH

; 445  :         if (_Large_mode_engaged()) {

  00332	76 02		 jbe	 SHORT $LN383@ServerComm

; 446  :             _Result = _Unfancy(_Bx._Ptr);

  00334	8b 09		 mov	 ecx, DWORD PTR [ecx]
$LN383@ServerComm:
; File C:\Anka2Project\Anka2Project\Source\Binary\source\UserInterface\PythonNetworkStreamCommand.cpp

; 238  : 			UINT count = atoi(TokenVector[4].c_str());

  00336	51		 push	 ecx
  00337	e8 00 00 00 00	 call	 __atoi64
  0033c	83 c4 04	 add	 esp, 4

; 239  : 			PyCallClassMemberFunc(m_apoPhaseWnd[PHASE_WINDOW_GAME], "BINARY_Cube_UpdateInfo", Py_BuildValue("(iii)", gold, itemVnum, count));

  0033f	50		 push	 eax
  00340	a1 00 00 00 00	 mov	 eax, DWORD PTR __imp__Py_BuildValue
  00345	56		 push	 esi
  00346	ff 75 b0	 push	 DWORD PTR _gold$1$[ebp]
  00349	68 00 00 00 00	 push	 OFFSET ??_C@_05HEIOBLPG@?$CIiii?$CJ@
  0034e	ff d0		 call	 eax
  00350	50		 push	 eax
  00351	68 00 00 00 00	 push	 OFFSET ??_C@_0BH@DMGJNFKF@BINARY_Cube_UpdateInfo@
  00356	ff b7 98 01 00
	00		 push	 DWORD PTR [edi+408]
  0035c	e8 00 00 00 00	 call	 ?PyCallClassMemberFunc@@YA_NPAU_object@@PBD0@Z ; PyCallClassMemberFunc
  00361	83 c4 1c	 add	 esp, 28			; 0000001cH

; 240  : 		}

  00364	e9 96 1c 00 00	 jmp	 $LN127@ServerComm
$LN32@ServerComm:
; File C:\Program Files\Microsoft Visual Studio\2022\Community\VC\Tools\MSVC\14.44.35207\include\xstring

; 453  :         return _Myres > _Small_string_capacity;

  00369	8b 50 2c	 mov	 edx, DWORD PTR [eax+44]
; File C:\Program Files\Microsoft Visual Studio\2022\Community\VC\Tools\MSVC\14.44.35207\include\vector

; 1934 :         return _My_data._Myfirst[_Pos];

  0036c	83 c0 18	 add	 eax, 24			; 00000018H
; File C:\Program Files\Microsoft Visual Studio\2022\Community\VC\Tools\MSVC\14.44.35207\include\xstring

; 453  :         return _Myres > _Small_string_capacity;

  0036f	89 55 a4	 mov	 DWORD PTR tv8820[ebp], edx

; 2854 :         return _Traits_equal<_Traits>(_Mypair._Myval2._Myptr(), _Mypair._Myval2._Mysize, _Ptr, _Traits::length(_Ptr));

  00372	8b 48 10	 mov	 ecx, DWORD PTR [eax+16]
  00375	89 4d a8	 mov	 DWORD PTR tv8861[ebp], ecx

; 453  :         return _Myres > _Small_string_capacity;

  00378	83 fa 0f	 cmp	 edx, 15			; 0000000fH

; 445  :         if (_Large_mode_engaged()) {

  0037b	76 02		 jbe	 SHORT $LN3203@ServerComm

; 446  :             _Result = _Unfancy(_Bx._Ptr);

  0037d	8b 00		 mov	 eax, DWORD PTR [eax]
$LN3203@ServerComm:

; 2854 :         return _Traits_equal<_Traits>(_Mypair._Myval2._Myptr(), _Mypair._Myval2._Mysize, _Ptr, _Traits::length(_Ptr));

  0037f	6a 07		 push	 7
  00381	68 00 00 00 00	 push	 OFFSET ??_C@_07IPNMCAN@success@
  00386	51		 push	 ecx
  00387	50		 push	 eax
  00388	e8 00 00 00 00	 call	 ??$_Traits_equal@U?$char_traits@D@std@@@std@@YA_NQBDI0I@Z ; std::_Traits_equal<std::char_traits<char> >
  0038d	83 c4 10	 add	 esp, 16			; 00000010H
; File C:\Anka2Project\Anka2Project\Source\Binary\source\UserInterface\PythonNetworkStreamCommand.cpp

; 241  : 		else if ("success" == TokenVector[1])

  00390	84 c0		 test	 al, al
  00392	8b 45 bc	 mov	 eax, DWORD PTR _TokenVector$[ebp]
  00395	74 65		 je	 SHORT $LN35@ServerComm

; 242  : 		{
; 243  : 			if (4 != TokenVector.size())

  00397	2b f0		 sub	 esi, eax
  00399	83 ee 60	 sub	 esi, 96			; 00000060H
  0039c	83 fe 18	 cmp	 esi, 24			; 00000018H
  0039f	0f 83 e0 12 00
	00		 jae	 $LN3210@ServerComm
; File C:\Program Files\Microsoft Visual Studio\2022\Community\VC\Tools\MSVC\14.44.35207\include\vector

; 1934 :         return _My_data._Myfirst[_Pos];

  003a5	83 c0 30	 add	 eax, 48			; 00000030H
; File C:\Program Files\Microsoft Visual Studio\2022\Community\VC\Tools\MSVC\14.44.35207\include\xstring

; 453  :         return _Myres > _Small_string_capacity;

  003a8	83 78 14 0f	 cmp	 DWORD PTR [eax+20], 15	; 0000000fH

; 445  :         if (_Large_mode_engaged()) {

  003ac	76 02		 jbe	 SHORT $LN460@ServerComm

; 446  :             _Result = _Unfancy(_Bx._Ptr);

  003ae	8b 00		 mov	 eax, DWORD PTR [eax]
$LN460@ServerComm:
; File C:\Anka2Project\Anka2Project\Source\Binary\source\UserInterface\PythonNetworkStreamCommand.cpp

; 249  : 			UINT itemVnum = atoi(TokenVector[2].c_str());

  003b0	50		 push	 eax
  003b1	e8 00 00 00 00	 call	 __atoi64
; File C:\Program Files\Microsoft Visual Studio\2022\Community\VC\Tools\MSVC\14.44.35207\include\vector

; 1934 :         return _My_data._Myfirst[_Pos];

  003b6	8b 4d bc	 mov	 ecx, DWORD PTR _TokenVector$[ebp]
; File C:\Anka2Project\Anka2Project\Source\Binary\source\UserInterface\PythonNetworkStreamCommand.cpp

; 249  : 			UINT itemVnum = atoi(TokenVector[2].c_str());

  003b9	83 c4 04	 add	 esp, 4
; File C:\Program Files\Microsoft Visual Studio\2022\Community\VC\Tools\MSVC\14.44.35207\include\vector

; 1934 :         return _My_data._Myfirst[_Pos];

  003bc	83 c1 48	 add	 ecx, 72			; 00000048H
; File C:\Anka2Project\Anka2Project\Source\Binary\source\UserInterface\PythonNetworkStreamCommand.cpp

; 249  : 			UINT itemVnum = atoi(TokenVector[2].c_str());

  003bf	8b f0		 mov	 esi, eax
; File C:\Program Files\Microsoft Visual Studio\2022\Community\VC\Tools\MSVC\14.44.35207\include\xstring

; 453  :         return _Myres > _Small_string_capacity;

  003c1	83 79 14 0f	 cmp	 DWORD PTR [ecx+20], 15	; 0000000fH

; 445  :         if (_Large_mode_engaged()) {

  003c5	76 02		 jbe	 SHORT $LN447@ServerComm

; 446  :             _Result = _Unfancy(_Bx._Ptr);

  003c7	8b 09		 mov	 ecx, DWORD PTR [ecx]
$LN447@ServerComm:
; File C:\Anka2Project\Anka2Project\Source\Binary\source\UserInterface\PythonNetworkStreamCommand.cpp

; 250  : 			UINT count = atoi(TokenVector[3].c_str());

  003c9	51		 push	 ecx
  003ca	e8 00 00 00 00	 call	 __atoi64
  003cf	83 c4 04	 add	 esp, 4

; 251  : 			PyCallClassMemberFunc(m_apoPhaseWnd[PHASE_WINDOW_GAME], "BINARY_Cube_Succeed", Py_BuildValue("(ii)", itemVnum, count));

  003d2	50		 push	 eax
  003d3	a1 00 00 00 00	 mov	 eax, DWORD PTR __imp__Py_BuildValue
  003d8	56		 push	 esi
  003d9	68 00 00 00 00	 push	 OFFSET ??_C@_04INACLLOK@?$CIii?$CJ@
  003de	ff d0		 call	 eax
  003e0	83 c4 0c	 add	 esp, 12			; 0000000cH
  003e3	50		 push	 eax
  003e4	68 00 00 00 00	 push	 OFFSET ??_C@_0BE@HLNHNAAA@BINARY_Cube_Succeed@
  003e9	ff b7 98 01 00
	00		 push	 DWORD PTR [edi+408]
  003ef	e8 00 00 00 00	 call	 ?PyCallClassMemberFunc@@YA_NPAU_object@@PBD0@Z ; PyCallClassMemberFunc
  003f4	83 c4 0c	 add	 esp, 12			; 0000000cH

; 252  : 		}

  003f7	e9 03 1c 00 00	 jmp	 $LN127@ServerComm
$LN35@ServerComm:
; File C:\Program Files\Microsoft Visual Studio\2022\Community\VC\Tools\MSVC\14.44.35207\include\vector

; 1934 :         return _My_data._Myfirst[_Pos];

  003fc	83 c0 18	 add	 eax, 24			; 00000018H
; File C:\Program Files\Microsoft Visual Studio\2022\Community\VC\Tools\MSVC\14.44.35207\include\xstring

; 453  :         return _Myres > _Small_string_capacity;

  003ff	83 7d a4 0f	 cmp	 DWORD PTR tv8820[ebp], 15 ; 0000000fH

; 445  :         if (_Large_mode_engaged()) {

  00403	76 02		 jbe	 SHORT $LN3204@ServerComm

; 446  :             _Result = _Unfancy(_Bx._Ptr);

  00405	8b 00		 mov	 eax, DWORD PTR [eax]
$LN3204@ServerComm:

; 2854 :         return _Traits_equal<_Traits>(_Mypair._Myval2._Myptr(), _Mypair._Myval2._Mysize, _Ptr, _Traits::length(_Ptr));

  00407	6a 04		 push	 4
  00409	68 00 00 00 00	 push	 OFFSET ??_C@_04CCHLMOGN@fail@
  0040e	ff 75 a8	 push	 DWORD PTR tv8861[ebp]
  00411	50		 push	 eax
  00412	e8 00 00 00 00	 call	 ??$_Traits_equal@U?$char_traits@D@std@@@std@@YA_NQBDI0I@Z ; std::_Traits_equal<std::char_traits<char> >
  00417	83 c4 10	 add	 esp, 16			; 00000010H
; File C:\Anka2Project\Anka2Project\Source\Binary\source\UserInterface\PythonNetworkStreamCommand.cpp

; 253  : 		else if ("fail" == TokenVector[1])

  0041a	84 c0		 test	 al, al
  0041c	74 28		 je	 SHORT $LN38@ServerComm

; 254  : 		{
; 255  : 			PyCallClassMemberFunc(m_apoPhaseWnd[PHASE_WINDOW_GAME], "BINARY_Cube_Failed", Py_BuildValue("()"));

  0041e	a1 00 00 00 00	 mov	 eax, DWORD PTR __imp__Py_BuildValue
  00423	68 00 00 00 00	 push	 OFFSET ??_C@_02HCKGKOFO@?$CI?$CJ@
  00428	ff d0		 call	 eax
  0042a	83 c4 04	 add	 esp, 4
  0042d	50		 push	 eax
  0042e	68 00 00 00 00	 push	 OFFSET ??_C@_0BD@IKENMBNJ@BINARY_Cube_Failed@
  00433	ff b7 98 01 00
	00		 push	 DWORD PTR [edi+408]
  00439	e8 00 00 00 00	 call	 ?PyCallClassMemberFunc@@YA_NPAU_object@@PBD0@Z ; PyCallClassMemberFunc
  0043e	83 c4 0c	 add	 esp, 12			; 0000000cH

; 256  : 		}

  00441	e9 b9 1b 00 00	 jmp	 $LN127@ServerComm
$LN38@ServerComm:
; File C:\Program Files\Microsoft Visual Studio\2022\Community\VC\Tools\MSVC\14.44.35207\include\vector

; 1934 :         return _My_data._Myfirst[_Pos];

  00446	8b 45 bc	 mov	 eax, DWORD PTR _TokenVector$[ebp]
  00449	83 c0 18	 add	 eax, 24			; 00000018H
; File C:\Program Files\Microsoft Visual Studio\2022\Community\VC\Tools\MSVC\14.44.35207\include\xstring

; 453  :         return _Myres > _Small_string_capacity;

  0044c	83 7d a4 0f	 cmp	 DWORD PTR tv8820[ebp], 15 ; 0000000fH

; 445  :         if (_Large_mode_engaged()) {

  00450	76 02		 jbe	 SHORT $LN3205@ServerComm

; 446  :             _Result = _Unfancy(_Bx._Ptr);

  00452	8b 00		 mov	 eax, DWORD PTR [eax]
$LN3205@ServerComm:

; 2854 :         return _Traits_equal<_Traits>(_Mypair._Myval2._Myptr(), _Mypair._Myval2._Mysize, _Ptr, _Traits::length(_Ptr));

  00454	6a 06		 push	 6
  00456	68 00 00 00 00	 push	 OFFSET ??_C@_06ODLEBDJP@r_list@
  0045b	ff 75 a8	 push	 DWORD PTR tv8861[ebp]
  0045e	50		 push	 eax
  0045f	e8 00 00 00 00	 call	 ??$_Traits_equal@U?$char_traits@D@std@@@std@@YA_NQBDI0I@Z ; std::_Traits_equal<std::char_traits<char> >
  00464	83 c4 10	 add	 esp, 16			; 00000010H
; File C:\Anka2Project\Anka2Project\Source\Binary\source\UserInterface\PythonNetworkStreamCommand.cpp

; 257  : 		else if ("r_list" == TokenVector[1])

  00467	84 c0		 test	 al, al
  00469	8b 45 bc	 mov	 eax, DWORD PTR _TokenVector$[ebp]
  0046c	74 5a		 je	 SHORT $LN40@ServerComm

; 258  : 		{
; 259  : 			// result list (/cube r_list npcVNUM resultCount resultText)
; 260  : 			if (5 != TokenVector.size())

  0046e	2b f0		 sub	 esi, eax
  00470	83 ee 78	 sub	 esi, 120		; 00000078H
  00473	83 fe 18	 cmp	 esi, 24			; 00000018H
  00476	0f 83 80 00 00
	00		 jae	 $LN3219@ServerComm
; File C:\Program Files\Microsoft Visual Studio\2022\Community\VC\Tools\MSVC\14.44.35207\include\vector

; 1934 :         return _My_data._Myfirst[_Pos];

  0047c	83 c0 30	 add	 eax, 48			; 00000030H
; File C:\Program Files\Microsoft Visual Studio\2022\Community\VC\Tools\MSVC\14.44.35207\include\xstring

; 453  :         return _Myres > _Small_string_capacity;

  0047f	83 78 14 0f	 cmp	 DWORD PTR [eax+20], 15	; 0000000fH

; 445  :         if (_Large_mode_engaged()) {

  00483	76 02		 jbe	 SHORT $LN568@ServerComm

; 446  :             _Result = _Unfancy(_Bx._Ptr);

  00485	8b 00		 mov	 eax, DWORD PTR [eax]
$LN568@ServerComm:
; File C:\Anka2Project\Anka2Project\Source\Binary\source\UserInterface\PythonNetworkStreamCommand.cpp

; 266  : 			DWORD npcVNUM = (DWORD)atoi(TokenVector[2].c_str());

  00487	50		 push	 eax
  00488	e8 00 00 00 00	 call	 __atoi64
; File C:\Program Files\Microsoft Visual Studio\2022\Community\VC\Tools\MSVC\14.44.35207\include\vector

; 1934 :         return _My_data._Myfirst[_Pos];

  0048d	8b 4d bc	 mov	 ecx, DWORD PTR _TokenVector$[ebp]
; File C:\Anka2Project\Anka2Project\Source\Binary\source\UserInterface\PythonNetworkStreamCommand.cpp

; 266  : 			DWORD npcVNUM = (DWORD)atoi(TokenVector[2].c_str());

  00490	83 c4 04	 add	 esp, 4
; File C:\Program Files\Microsoft Visual Studio\2022\Community\VC\Tools\MSVC\14.44.35207\include\vector

; 1934 :         return _My_data._Myfirst[_Pos];

  00493	83 c1 60	 add	 ecx, 96			; 00000060H
; File C:\Program Files\Microsoft Visual Studio\2022\Community\VC\Tools\MSVC\14.44.35207\include\xstring

; 453  :         return _Myres > _Small_string_capacity;

  00496	83 79 14 0f	 cmp	 DWORD PTR [ecx+20], 15	; 0000000fH

; 445  :         if (_Large_mode_engaged()) {

  0049a	76 02		 jbe	 SHORT $LN584@ServerComm

; 446  :             _Result = _Unfancy(_Bx._Ptr);

  0049c	8b 09		 mov	 ecx, DWORD PTR [ecx]
$LN584@ServerComm:
; File C:\Anka2Project\Anka2Project\Source\Binary\source\UserInterface\PythonNetworkStreamCommand.cpp

; 268  : 			PyCallClassMemberFunc(m_apoPhaseWnd[PHASE_WINDOW_GAME], "BINARY_Cube_ResultList", Py_BuildValue("(is)", npcVNUM, TokenVector[4].c_str()));

  0049e	51		 push	 ecx
  0049f	50		 push	 eax
  004a0	a1 00 00 00 00	 mov	 eax, DWORD PTR __imp__Py_BuildValue
  004a5	68 00 00 00 00	 push	 OFFSET ??_C@_04JMLDJNEM@?$CIis?$CJ@
  004aa	ff d0		 call	 eax
  004ac	83 c4 0c	 add	 esp, 12			; 0000000cH
  004af	50		 push	 eax
  004b0	68 00 00 00 00	 push	 OFFSET ??_C@_0BH@JONCIELM@BINARY_Cube_ResultList@
  004b5	ff b7 98 01 00
	00		 push	 DWORD PTR [edi+408]
  004bb	e8 00 00 00 00	 call	 ?PyCallClassMemberFunc@@YA_NPAU_object@@PBD0@Z ; PyCallClassMemberFunc
  004c0	83 c4 0c	 add	 esp, 12			; 0000000cH

; 269  : 		}

  004c3	e9 37 1b 00 00	 jmp	 $LN127@ServerComm
$LN40@ServerComm:
; File C:\Program Files\Microsoft Visual Studio\2022\Community\VC\Tools\MSVC\14.44.35207\include\xstring

; 2854 :         return _Traits_equal<_Traits>(_Mypair._Myval2._Myptr(), _Mypair._Myval2._Mysize, _Ptr, _Traits::length(_Ptr));

  004c8	8b 48 28	 mov	 ecx, DWORD PTR [eax+40]
; File C:\Program Files\Microsoft Visual Studio\2022\Community\VC\Tools\MSVC\14.44.35207\include\vector

; 1934 :         return _My_data._Myfirst[_Pos];

  004cb	83 c0 18	 add	 eax, 24			; 00000018H
; File C:\Program Files\Microsoft Visual Studio\2022\Community\VC\Tools\MSVC\14.44.35207\include\xstring

; 453  :         return _Myres > _Small_string_capacity;

  004ce	83 78 14 0f	 cmp	 DWORD PTR [eax+20], 15	; 0000000fH

; 445  :         if (_Large_mode_engaged()) {

  004d2	76 02		 jbe	 SHORT $LN536@ServerComm

; 446  :             _Result = _Unfancy(_Bx._Ptr);

  004d4	8b 00		 mov	 eax, DWORD PTR [eax]
$LN536@ServerComm:

; 2854 :         return _Traits_equal<_Traits>(_Mypair._Myval2._Myptr(), _Mypair._Myval2._Mysize, _Ptr, _Traits::length(_Ptr));

  004d6	6a 06		 push	 6
  004d8	68 00 00 00 00	 push	 OFFSET ??_C@_06JEMOOCHA@m_info@
  004dd	51		 push	 ecx
  004de	50		 push	 eax
  004df	e8 00 00 00 00	 call	 ??$_Traits_equal@U?$char_traits@D@std@@@std@@YA_NQBDI0I@Z ; std::_Traits_equal<std::char_traits<char> >
  004e4	83 c4 10	 add	 esp, 16			; 00000010H
; File C:\Anka2Project\Anka2Project\Source\Binary\source\UserInterface\PythonNetworkStreamCommand.cpp

; 270  : 		else if ("m_info" == TokenVector[1])

  004e7	84 c0		 test	 al, al
  004e9	0f 84 10 1b 00
	00		 je	 $LN127@ServerComm

; 271  : 		{
; 272  : 			// material list (/cube m_info requestStartIndex resultCount MaterialText)
; 273  : 			if (5 != TokenVector.size())

  004ef	8b 45 bc	 mov	 eax, DWORD PTR _TokenVector$[ebp]
  004f2	2b f0		 sub	 esi, eax
  004f4	83 ee 78	 sub	 esi, 120		; 00000078H
  004f7	83 fe 18	 cmp	 esi, 24			; 00000018H
  004fa	72 17		 jb	 SHORT $LN44@ServerComm
$LN3219@ServerComm:

; 274  : 			{
; 275  : 				TraceError("CPythonNetworkStream::ServerCommand(c_szCommand=%s) - Strange Parameter Count : %d", c_szCommand, 5);

  004fc	6a 05		 push	 5
$LN3237@ServerComm:
; File C:\Program Files\Microsoft Visual Studio\2022\Community\VC\Tools\MSVC\14.44.35207\include\vector

; 830  :         _Tidy();

  004fe	ff 75 ac	 push	 DWORD PTR _c_szCommand$GSCopy$1$[ebp]
  00501	68 00 00 00 00	 push	 OFFSET ??_C@_0FD@MDMGNNOD@CPythonNetworkStream?3?3ServerCom@
  00506	e8 00 00 00 00	 call	 ?TraceError@@YAXPBDZZ	; TraceError
  0050b	83 c4 0c	 add	 esp, 12			; 0000000cH
  0050e	e9 ec 1a 00 00	 jmp	 $LN127@ServerComm
$LN44@ServerComm:

; 1934 :         return _My_data._Myfirst[_Pos];

  00513	83 c0 30	 add	 eax, 48			; 00000030H
; File C:\Program Files\Microsoft Visual Studio\2022\Community\VC\Tools\MSVC\14.44.35207\include\xstring

; 453  :         return _Myres > _Small_string_capacity;

  00516	83 78 14 0f	 cmp	 DWORD PTR [eax+20], 15	; 0000000fH

; 445  :         if (_Large_mode_engaged()) {

  0051a	76 02		 jbe	 SHORT $LN901@ServerComm

; 446  :             _Result = _Unfancy(_Bx._Ptr);

  0051c	8b 00		 mov	 eax, DWORD PTR [eax]
$LN901@ServerComm:
; File C:\Anka2Project\Anka2Project\Source\Binary\source\UserInterface\PythonNetworkStreamCommand.cpp

; 279  : 			UINT requestStartIndex = (UINT)atoi(TokenVector[2].c_str());

  0051e	50		 push	 eax
  0051f	e8 00 00 00 00	 call	 __atoi64
; File C:\Program Files\Microsoft Visual Studio\2022\Community\VC\Tools\MSVC\14.44.35207\include\vector

; 1934 :         return _My_data._Myfirst[_Pos];

  00524	8b 4d bc	 mov	 ecx, DWORD PTR _TokenVector$[ebp]
; File C:\Anka2Project\Anka2Project\Source\Binary\source\UserInterface\PythonNetworkStreamCommand.cpp

; 279  : 			UINT requestStartIndex = (UINT)atoi(TokenVector[2].c_str());

  00527	83 c4 04	 add	 esp, 4
; File C:\Program Files\Microsoft Visual Studio\2022\Community\VC\Tools\MSVC\14.44.35207\include\vector

; 1934 :         return _My_data._Myfirst[_Pos];

  0052a	83 c1 48	 add	 ecx, 72			; 00000048H
; File C:\Anka2Project\Anka2Project\Source\Binary\source\UserInterface\PythonNetworkStreamCommand.cpp

; 279  : 			UINT requestStartIndex = (UINT)atoi(TokenVector[2].c_str());

  0052d	8b f0		 mov	 esi, eax
; File C:\Program Files\Microsoft Visual Studio\2022\Community\VC\Tools\MSVC\14.44.35207\include\xstring

; 453  :         return _Myres > _Small_string_capacity;

  0052f	83 79 14 0f	 cmp	 DWORD PTR [ecx+20], 15	; 0000000fH

; 445  :         if (_Large_mode_engaged()) {

  00533	76 02		 jbe	 SHORT $LN679@ServerComm

; 446  :             _Result = _Unfancy(_Bx._Ptr);

  00535	8b 09		 mov	 ecx, DWORD PTR [ecx]
$LN679@ServerComm:
; File C:\Anka2Project\Anka2Project\Source\Binary\source\UserInterface\PythonNetworkStreamCommand.cpp

; 280  : 			UINT resultCount = (UINT)atoi(TokenVector[3].c_str());

  00537	51		 push	 ecx
  00538	e8 00 00 00 00	 call	 __atoi64
; File C:\Program Files\Microsoft Visual Studio\2022\Community\VC\Tools\MSVC\14.44.35207\include\vector

; 1934 :         return _My_data._Myfirst[_Pos];

  0053d	8b 4d bc	 mov	 ecx, DWORD PTR _TokenVector$[ebp]
; File C:\Anka2Project\Anka2Project\Source\Binary\source\UserInterface\PythonNetworkStreamCommand.cpp

; 280  : 			UINT resultCount = (UINT)atoi(TokenVector[3].c_str());

  00540	83 c4 04	 add	 esp, 4
; File C:\Program Files\Microsoft Visual Studio\2022\Community\VC\Tools\MSVC\14.44.35207\include\vector

; 1934 :         return _My_data._Myfirst[_Pos];

  00543	83 c1 60	 add	 ecx, 96			; 00000060H
; File C:\Program Files\Microsoft Visual Studio\2022\Community\VC\Tools\MSVC\14.44.35207\include\xstring

; 453  :         return _Myres > _Small_string_capacity;

  00546	83 79 14 0f	 cmp	 DWORD PTR [ecx+20], 15	; 0000000fH

; 445  :         if (_Large_mode_engaged()) {

  0054a	76 02		 jbe	 SHORT $LN848@ServerComm

; 446  :             _Result = _Unfancy(_Bx._Ptr);

  0054c	8b 09		 mov	 ecx, DWORD PTR [ecx]
$LN848@ServerComm:
; File C:\Anka2Project\Anka2Project\Source\Binary\source\UserInterface\PythonNetworkStreamCommand.cpp

; 282  : 			PyCallClassMemberFunc(m_apoPhaseWnd[PHASE_WINDOW_GAME], "BINARY_Cube_MaterialInfo", Py_BuildValue("(iis)", requestStartIndex, resultCount, TokenVector[4].c_str()));

  0054e	51		 push	 ecx
  0054f	50		 push	 eax
  00550	a1 00 00 00 00	 mov	 eax, DWORD PTR __imp__Py_BuildValue
  00555	56		 push	 esi
  00556	68 00 00 00 00	 push	 OFFSET ??_C@_05GFDPDNFA@?$CIiis?$CJ@
  0055b	ff d0		 call	 eax
  0055d	50		 push	 eax
  0055e	68 00 00 00 00	 push	 OFFSET ??_C@_0BJ@DLFAEHHE@BINARY_Cube_MaterialInfo@
  00563	ff b7 98 01 00
	00		 push	 DWORD PTR [edi+408]
  00569	e8 00 00 00 00	 call	 ?PyCallClassMemberFunc@@YA_NPAU_object@@PBD0@Z ; PyCallClassMemberFunc
  0056e	83 c4 1c	 add	 esp, 28			; 0000001cH

; 283  : 		}
; 284  : 	}

  00571	e9 89 1a 00 00	 jmp	 $LN127@ServerComm
$LN24@ServerComm:

; 285  : 	// CUEBE_END
; 286  : 	else if (!strcmpi(szCmd, "ObserverCount"))

  00576	68 00 00 00 00	 push	 OFFSET ??_C@_0O@HADNNBFL@ObserverCount@
  0057b	56		 push	 esi
  0057c	e8 00 00 00 00	 call	 __strcmpi
  00581	83 c4 08	 add	 esp, 8
  00584	85 c0		 test	 eax, eax
  00586	75 4e		 jne	 SHORT $LN45@ServerComm

; 287  : 	{
; 288  : 		if (2 != TokenVector.size())

  00588	8b 45 c0	 mov	 eax, DWORD PTR _TokenVector$[ebp+4]
  0058b	8b 4d bc	 mov	 ecx, DWORD PTR _TokenVector$[ebp]
  0058e	2b c1		 sub	 eax, ecx
  00590	83 e8 30	 sub	 eax, 48			; 00000030H
  00593	83 f8 18	 cmp	 eax, 24			; 00000018H
  00596	0f 83 e9 10 00
	00		 jae	 $LN3210@ServerComm
; File C:\Program Files\Microsoft Visual Studio\2022\Community\VC\Tools\MSVC\14.44.35207\include\xstring

; 453  :         return _Myres > _Small_string_capacity;

  0059c	83 79 2c 0f	 cmp	 DWORD PTR [ecx+44], 15	; 0000000fH
; File C:\Program Files\Microsoft Visual Studio\2022\Community\VC\Tools\MSVC\14.44.35207\include\vector

; 1934 :         return _My_data._Myfirst[_Pos];

  005a0	8d 41 18	 lea	 eax, DWORD PTR [ecx+24]
; File C:\Program Files\Microsoft Visual Studio\2022\Community\VC\Tools\MSVC\14.44.35207\include\xstring

; 445  :         if (_Large_mode_engaged()) {

  005a3	76 02		 jbe	 SHORT $LN265@ServerComm

; 446  :             _Result = _Unfancy(_Bx._Ptr);

  005a5	8b 00		 mov	 eax, DWORD PTR [eax]
$LN265@ServerComm:
; File C:\Anka2Project\Anka2Project\Source\Binary\source\UserInterface\PythonNetworkStreamCommand.cpp

; 294  : 		UINT uObserverCount= atoi(TokenVector[1].c_str());

  005a7	50		 push	 eax
  005a8	e8 00 00 00 00	 call	 __atoi64
  005ad	83 c4 04	 add	 esp, 4

; 295  : 
; 296  : 		PyCallClassMemberFunc(m_apoPhaseWnd[PHASE_WINDOW_GAME], "BINARY_BettingGuildWar_UpdateObserverCount", Py_BuildValue("(i)", uObserverCount)

  005b0	50		 push	 eax
  005b1	a1 00 00 00 00	 mov	 eax, DWORD PTR __imp__Py_BuildValue
  005b6	68 00 00 00 00	 push	 OFFSET ??_C@_03LIHNMIHG@?$CIi?$CJ@
  005bb	ff d0		 call	 eax
  005bd	50		 push	 eax
  005be	68 00 00 00 00	 push	 OFFSET ??_C@_0CL@MFEDAABM@BINARY_BettingGuildWar_UpdateOb@
  005c3	ff b7 98 01 00
	00		 push	 DWORD PTR [edi+408]
  005c9	e8 00 00 00 00	 call	 ?PyCallClassMemberFunc@@YA_NPAU_object@@PBD0@Z ; PyCallClassMemberFunc
  005ce	83 c4 14	 add	 esp, 20			; 00000014H

; 297  : 		);
; 298  : 	}

  005d1	e9 29 1a 00 00	 jmp	 $LN127@ServerComm
$LN45@ServerComm:

; 299  : 	else if (!strcmpi(szCmd, "ObserverMode"))

  005d6	68 00 00 00 00	 push	 OFFSET ??_C@_0N@EBGNMPMN@ObserverMode@
  005db	56		 push	 esi
  005dc	e8 00 00 00 00	 call	 __strcmpi
  005e1	83 c4 08	 add	 esp, 8
  005e4	85 c0		 test	 eax, eax
  005e6	0f 85 82 00 00
	00		 jne	 $LN48@ServerComm

; 300  : 	{
; 301  : 		if (2 != TokenVector.size())

  005ec	8b 45 c0	 mov	 eax, DWORD PTR _TokenVector$[ebp+4]
  005ef	8b 4d bc	 mov	 ecx, DWORD PTR _TokenVector$[ebp]
  005f2	2b c1		 sub	 eax, ecx
  005f4	83 e8 30	 sub	 eax, 48			; 00000030H
  005f7	83 f8 18	 cmp	 eax, 24			; 00000018H
  005fa	0f 83 85 10 00
	00		 jae	 $LN3210@ServerComm
; File C:\Program Files\Microsoft Visual Studio\2022\Community\VC\Tools\MSVC\14.44.35207\include\xstring

; 453  :         return _Myres > _Small_string_capacity;

  00600	83 79 2c 0f	 cmp	 DWORD PTR [ecx+44], 15	; 0000000fH
; File C:\Program Files\Microsoft Visual Studio\2022\Community\VC\Tools\MSVC\14.44.35207\include\vector

; 1934 :         return _My_data._Myfirst[_Pos];

  00604	8d 41 18	 lea	 eax, DWORD PTR [ecx+24]
; File C:\Program Files\Microsoft Visual Studio\2022\Community\VC\Tools\MSVC\14.44.35207\include\xstring

; 445  :         if (_Large_mode_engaged()) {

  00607	76 02		 jbe	 SHORT $LN319@ServerComm

; 446  :             _Result = _Unfancy(_Bx._Ptr);

  00609	8b 00		 mov	 eax, DWORD PTR [eax]
$LN319@ServerComm:
; File C:\Anka2Project\Anka2Project\Source\Binary\source\UserInterface\PythonNetworkStreamCommand.cpp

; 307  : 		UINT uMode= atoi(TokenVector[1].c_str());

  0060b	50		 push	 eax
  0060c	e8 00 00 00 00	 call	 __atoi64
; File C:\Anka2Project\Anka2Project\Source\Binary\source\UserInterface\AbstractSingleton.h

; 24   : 		assert(ms_singleton!=nullptr);

  00611	8b 0d 00 00 00
	00		 mov	 ecx, DWORD PTR ?ms_singleton@?$TAbstractSingleton@VIAbstractPlayer@@@@0PAVIAbstractPlayer@@A ; TAbstractSingleton<IAbstractPlayer>::ms_singleton
; File C:\Anka2Project\Anka2Project\Source\Binary\source\UserInterface\PythonNetworkStreamCommand.cpp

; 307  : 		UINT uMode= atoi(TokenVector[1].c_str());

  00617	83 c4 04	 add	 esp, 4
  0061a	8b f0		 mov	 esi, eax
; File C:\Anka2Project\Anka2Project\Source\Binary\source\UserInterface\AbstractSingleton.h

; 24   : 		assert(ms_singleton!=nullptr);

  0061c	85 c9		 test	 ecx, ecx
  0061e	75 1a		 jne	 SHORT $LN298@ServerComm
  00620	6a 18		 push	 24			; 00000018H
  00622	68 00 00 00 00	 push	 OFFSET ??_C@_1KI@FIPHLMOB@?$AAC?$AA?3?$AA?2?$AAA?$AAn?$AAk?$AAa?$AA2?$AAP?$AAr?$AAo?$AAj?$AAe?$AAc?$AAt@
  00627	68 00 00 00 00	 push	 OFFSET ??_C@_1CM@FPMBEAEA@?$AAm?$AAs?$AA_?$AAs?$AAi?$AAn?$AAg?$AAl?$AAe?$AAt?$AAo?$AAn?$AA?$CB?$AA?$DN?$AAn@
  0062c	e8 00 00 00 00	 call	 __wassert
  00631	8b 0d 00 00 00
	00		 mov	 ecx, DWORD PTR ?ms_singleton@?$TAbstractSingleton@VIAbstractPlayer@@@@0PAVIAbstractPlayer@@A ; TAbstractSingleton<IAbstractPlayer>::ms_singleton
  00637	83 c4 0c	 add	 esp, 12			; 0000000cH
$LN298@ServerComm:
; File C:\Anka2Project\Anka2Project\Source\Binary\source\UserInterface\PythonNetworkStreamCommand.cpp

; 310  : 		rkPlayer.SetObserverMode(uMode ? true : false);

  0063a	8b 11		 mov	 edx, DWORD PTR [ecx]
  0063c	85 f6		 test	 esi, esi
  0063e	0f 95 c0	 setne	 al
  00641	0f b6 c0	 movzx	 eax, al
  00644	50		 push	 eax
  00645	ff 52 7c	 call	 DWORD PTR [edx+124]

; 311  : 
; 312  : 		PyCallClassMemberFunc(m_apoPhaseWnd[PHASE_WINDOW_GAME], 

  00648	a1 00 00 00 00	 mov	 eax, DWORD PTR __imp__Py_BuildValue
  0064d	56		 push	 esi
  0064e	68 00 00 00 00	 push	 OFFSET ??_C@_03LIHNMIHG@?$CIi?$CJ@
  00653	ff d0		 call	 eax
  00655	50		 push	 eax
  00656	68 00 00 00 00	 push	 OFFSET ??_C@_0CH@OENJEHPK@BINARY_BettingGuildWar_SetObser@
  0065b	ff b7 98 01 00
	00		 push	 DWORD PTR [edi+408]
  00661	e8 00 00 00 00	 call	 ?PyCallClassMemberFunc@@YA_NPAU_object@@PBD0@Z ; PyCallClassMemberFunc
  00666	83 c4 14	 add	 esp, 20			; 00000014H

; 313  : 			"BINARY_BettingGuildWar_SetObserverMode", 
; 314  : 			Py_BuildValue("(i)", uMode)
; 315  : 		);
; 316  : 	}

  00669	e9 91 19 00 00	 jmp	 $LN127@ServerComm
$LN48@ServerComm:

; 317  : #ifdef ENABLE_RENEWAL_OFFLINESHOP
; 318  : 	else if (!strcmpi(szCmd, "OfflineShopSetFlag"))

  0066e	68 00 00 00 00	 push	 OFFSET ??_C@_0BD@MOHAGFLO@OfflineShopSetFlag@
  00673	56		 push	 esi
  00674	e8 00 00 00 00	 call	 __strcmpi
  00679	83 c4 08	 add	 esp, 8
  0067c	85 c0		 test	 eax, eax
  0067e	75 79		 jne	 SHORT $LN51@ServerComm
; File C:\Program Files\Microsoft Visual Studio\2022\Community\VC\Tools\MSVC\14.44.35207\include\vector

; 1934 :         return _My_data._Myfirst[_Pos];

  00680	8b 45 bc	 mov	 eax, DWORD PTR _TokenVector$[ebp]
  00683	83 c0 18	 add	 eax, 24			; 00000018H
; File C:\Program Files\Microsoft Visual Studio\2022\Community\VC\Tools\MSVC\14.44.35207\include\xstring

; 453  :         return _Myres > _Small_string_capacity;

  00686	83 78 14 0f	 cmp	 DWORD PTR [eax+20], 15	; 0000000fH

; 445  :         if (_Large_mode_engaged()) {

  0068a	76 02		 jbe	 SHORT $LN303@ServerComm

; 446  :             _Result = _Unfancy(_Bx._Ptr);

  0068c	8b 00		 mov	 eax, DWORD PTR [eax]
$LN303@ServerComm:
; File C:\Anka2Project\Anka2Project\Source\Binary\source\UserInterface\PythonNetworkStreamCommand.cpp

; 320  : 		unsigned long long flag = atoi(TokenVector[1].c_str());

  0068e	50		 push	 eax
  0068f	e8 00 00 00 00	 call	 __atoi64
; File C:\Anka2Project\Anka2Project\Source\Binary\source\eterBase\Singleton.h

; 26   : 		assert(ms_singleton);

  00694	8b 0d 00 00 00
	00		 mov	 ecx, DWORD PTR ?ms_singleton@?$CSingleton@VCPythonShop@@@@0PAVCPythonShop@@A ; CSingleton<CPythonShop>::ms_singleton
; File C:\Anka2Project\Anka2Project\Source\Binary\source\UserInterface\PythonNetworkStreamCommand.cpp

; 320  : 		unsigned long long flag = atoi(TokenVector[1].c_str());

  0069a	8b f0		 mov	 esi, eax
  0069c	83 c4 04	 add	 esp, 4
  0069f	8b c2		 mov	 eax, edx
  006a1	89 45 b0	 mov	 DWORD PTR _flag$1$[ebp], eax
; File C:\Anka2Project\Anka2Project\Source\Binary\source\eterBase\Singleton.h

; 26   : 		assert(ms_singleton);

  006a4	85 c9		 test	 ecx, ecx
  006a6	75 1d		 jne	 SHORT $LN295@ServerComm
  006a8	6a 1a		 push	 26			; 0000001aH
  006aa	68 00 00 00 00	 push	 OFFSET ??_C@_1IO@CAJLEEOI@?$AAC?$AA?3?$AA?2?$AAA?$AAn?$AAk?$AAa?$AA2?$AAP?$AAr?$AAo?$AAj?$AAe?$AAc?$AAt@
  006af	68 00 00 00 00	 push	 OFFSET ??_C@_1BK@FMEHPMFE@?$AAm?$AAs?$AA_?$AAs?$AAi?$AAn?$AAg?$AAl?$AAe?$AAt?$AAo?$AAn@
  006b4	e8 00 00 00 00	 call	 __wassert
  006b9	8b 0d 00 00 00
	00		 mov	 ecx, DWORD PTR ?ms_singleton@?$CSingleton@VCPythonShop@@@@0PAVCPythonShop@@A ; CSingleton<CPythonShop>::ms_singleton
  006bf	83 c4 0c	 add	 esp, 12			; 0000000cH
  006c2	8b 45 b0	 mov	 eax, DWORD PTR _flag$1$[ebp]
$LN295@ServerComm:
; File C:\Anka2Project\Anka2Project\Source\Binary\source\UserInterface\PythonNetworkStreamCommand.cpp

; 321  : 		CPythonShop::Instance().SetShopFlag(flag);

  006c5	89 81 54 f5 00
	00		 mov	 DWORD PTR [ecx+62804], eax

; 322  : 		PyCallClassMemberFunc(m_apoPhaseWnd[PHASE_WINDOW_GAME], "RefreshOfflineShop", Py_BuildValue("()"));

  006cb	a1 00 00 00 00	 mov	 eax, DWORD PTR __imp__Py_BuildValue
  006d0	68 00 00 00 00	 push	 OFFSET ??_C@_02HCKGKOFO@?$CI?$CJ@
  006d5	89 b1 50 f5 00
	00		 mov	 DWORD PTR [ecx+62800], esi
  006db	ff d0		 call	 eax
  006dd	83 c4 04	 add	 esp, 4
  006e0	50		 push	 eax
  006e1	68 00 00 00 00	 push	 OFFSET ??_C@_0BD@ONBKDON@RefreshOfflineShop@
  006e6	ff b7 98 01 00
	00		 push	 DWORD PTR [edi+408]
  006ec	e8 00 00 00 00	 call	 ?PyCallClassMemberFunc@@YA_NPAU_object@@PBD0@Z ; PyCallClassMemberFunc
  006f1	83 c4 0c	 add	 esp, 12			; 0000000cH

; 323  : 	}

  006f4	e9 06 19 00 00	 jmp	 $LN127@ServerComm
$LN51@ServerComm:

; 324  : #endif
; 325  : 	else if (!strcmpi(szCmd, "ObserverTeamInfo"))

  006f9	68 00 00 00 00	 push	 OFFSET ??_C@_0BB@MALBLMJA@ObserverTeamInfo@
  006fe	56		 push	 esi
  006ff	e8 00 00 00 00	 call	 __strcmpi
  00704	83 c4 08	 add	 esp, 8
  00707	85 c0		 test	 eax, eax
  00709	0f 84 f0 18 00
	00		 je	 $LN127@ServerComm

; 326  : 	{
; 327  : 	}
; 328  : #ifdef ENABLE_MINIGAME_OKEY_CARDS_SYSTEM
; 329  : 	else if (!strcmpi(szCmd, "cards"))

  0070f	68 00 00 00 00	 push	 OFFSET ??_C@_05OOPFFMIL@cards@
  00714	56		 push	 esi
  00715	e8 00 00 00 00	 call	 __strcmpi
  0071a	83 c4 08	 add	 esp, 8
  0071d	85 c0		 test	 eax, eax
  0071f	0f 85 10 05 00
	00		 jne	 $LN55@ServerComm
; File C:\Program Files\Microsoft Visual Studio\2022\Community\VC\Tools\MSVC\14.44.35207\include\vector

; 1915 :         return static_cast<size_type>(_My_data._Mylast - _My_data._Myfirst);

  00725	8b 75 c0	 mov	 esi, DWORD PTR _TokenVector$[ebp+4]
  00728	b8 ab aa aa 2a	 mov	 eax, 715827883		; 2aaaaaabH
  0072d	8b ce		 mov	 ecx, esi
  0072f	2b 4d bc	 sub	 ecx, DWORD PTR _TokenVector$[ebp]
  00732	f7 e9		 imul	 ecx
  00734	c1 fa 02	 sar	 edx, 2
  00737	8b c2		 mov	 eax, edx
  00739	c1 e8 1f	 shr	 eax, 31			; 0000001fH
  0073c	03 c2		 add	 eax, edx
  0073e	89 45 98	 mov	 DWORD PTR tv8830[ebp], eax
; File C:\Anka2Project\Anka2Project\Source\Binary\source\UserInterface\PythonNetworkStreamCommand.cpp

; 331  : 		if (TokenVector.size() < 2)

  00741	83 f8 02	 cmp	 eax, 2
  00744	0f 82 3b 0f 00
	00		 jb	 $LN3210@ServerComm
; File C:\Program Files\Microsoft Visual Studio\2022\Community\VC\Tools\MSVC\14.44.35207\include\vector

; 1934 :         return _My_data._Myfirst[_Pos];

  0074a	8b 45 bc	 mov	 eax, DWORD PTR _TokenVector$[ebp]
  0074d	83 c0 18	 add	 eax, 24			; 00000018H
  00750	89 45 a4	 mov	 DWORD PTR __Result$1$[ebp], eax
; File C:\Program Files\Microsoft Visual Studio\2022\Community\VC\Tools\MSVC\14.44.35207\include\xstring

; 453  :         return _Myres > _Small_string_capacity;

  00753	8b 50 14	 mov	 edx, DWORD PTR [eax+20]

; 2854 :         return _Traits_equal<_Traits>(_Mypair._Myval2._Myptr(), _Mypair._Myval2._Mysize, _Ptr, _Traits::length(_Ptr));

  00756	8b 48 10	 mov	 ecx, DWORD PTR [eax+16]
  00759	89 4d a0	 mov	 DWORD PTR tv8857[ebp], ecx

; 453  :         return _Myres > _Small_string_capacity;

  0075c	89 55 a8	 mov	 DWORD PTR tv8819[ebp], edx
  0075f	83 fa 0f	 cmp	 edx, 15			; 0000000fH

; 445  :         if (_Large_mode_engaged()) {

  00762	76 02		 jbe	 SHORT $LN3206@ServerComm

; 446  :             _Result = _Unfancy(_Bx._Ptr);

  00764	8b 00		 mov	 eax, DWORD PTR [eax]
$LN3206@ServerComm:

; 2854 :         return _Traits_equal<_Traits>(_Mypair._Myval2._Myptr(), _Mypair._Myval2._Mysize, _Ptr, _Traits::length(_Ptr));

  00766	6a 04		 push	 4
  00768	68 00 00 00 00	 push	 OFFSET ??_C@_04PMOCAHAA@open@
  0076d	51		 push	 ecx
  0076e	50		 push	 eax
  0076f	e8 00 00 00 00	 call	 ??$_Traits_equal@U?$char_traits@D@std@@@std@@YA_NQBDI0I@Z ; std::_Traits_equal<std::char_traits<char> >
  00774	83 c4 10	 add	 esp, 16			; 00000010H
; File C:\Anka2Project\Anka2Project\Source\Binary\source\UserInterface\PythonNetworkStreamCommand.cpp

; 336  : 		if ("open" == TokenVector[1])

  00777	84 c0		 test	 al, al
  00779	74 3d		 je	 SHORT $LN58@ServerComm
; File C:\Program Files\Microsoft Visual Studio\2022\Community\VC\Tools\MSVC\14.44.35207\include\vector

; 1934 :         return _My_data._Myfirst[_Pos];

  0077b	8b 45 bc	 mov	 eax, DWORD PTR _TokenVector$[ebp]
  0077e	83 c0 30	 add	 eax, 48			; 00000030H
; File C:\Program Files\Microsoft Visual Studio\2022\Community\VC\Tools\MSVC\14.44.35207\include\xstring

; 453  :         return _Myres > _Small_string_capacity;

  00781	83 78 14 0f	 cmp	 DWORD PTR [eax+20], 15	; 0000000fH

; 445  :         if (_Large_mode_engaged()) {

  00785	76 02		 jbe	 SHORT $LN514@ServerComm

; 446  :             _Result = _Unfancy(_Bx._Ptr);

  00787	8b 00		 mov	 eax, DWORD PTR [eax]
$LN514@ServerComm:
; File C:\Anka2Project\Anka2Project\Source\Binary\source\UserInterface\PythonNetworkStreamCommand.cpp

; 338  : 			DWORD safemode = atoi(TokenVector[2].c_str());

  00789	50		 push	 eax
  0078a	e8 00 00 00 00	 call	 __atoi64
  0078f	83 c4 04	 add	 esp, 4

; 339  : 			PyCallClassMemberFunc(m_apoPhaseWnd[PHASE_WINDOW_GAME], "BINARY_Cards_Open", Py_BuildValue("(i)", safemode));

  00792	50		 push	 eax
  00793	a1 00 00 00 00	 mov	 eax, DWORD PTR __imp__Py_BuildValue
  00798	68 00 00 00 00	 push	 OFFSET ??_C@_03LIHNMIHG@?$CIi?$CJ@
  0079d	ff d0		 call	 eax
  0079f	50		 push	 eax
  007a0	68 00 00 00 00	 push	 OFFSET ??_C@_0BC@LPPJJIKI@BINARY_Cards_Open@
  007a5	ff b7 98 01 00
	00		 push	 DWORD PTR [edi+408]
  007ab	e8 00 00 00 00	 call	 ?PyCallClassMemberFunc@@YA_NPAU_object@@PBD0@Z ; PyCallClassMemberFunc
  007b0	83 c4 14	 add	 esp, 20			; 00000014H

; 340  : 		}

  007b3	e9 47 18 00 00	 jmp	 $LN127@ServerComm
$LN58@ServerComm:
; File C:\Program Files\Microsoft Visual Studio\2022\Community\VC\Tools\MSVC\14.44.35207\include\xstring

; 453  :         return _Myres > _Small_string_capacity;

  007b8	83 7d a8 0f	 cmp	 DWORD PTR tv8819[ebp], 15 ; 0000000fH

; 445  :         if (_Large_mode_engaged()) {

  007bc	8b 45 a4	 mov	 eax, DWORD PTR __Result$1$[ebp]
  007bf	76 02		 jbe	 SHORT $LN3207@ServerComm

; 446  :             _Result = _Unfancy(_Bx._Ptr);

  007c1	8b 00		 mov	 eax, DWORD PTR [eax]
$LN3207@ServerComm:

; 2854 :         return _Traits_equal<_Traits>(_Mypair._Myval2._Myptr(), _Mypair._Myval2._Mysize, _Ptr, _Traits::length(_Ptr));

  007c3	6a 04		 push	 4
  007c5	68 00 00 00 00	 push	 OFFSET ??_C@_04NIDJFNBE@info@
  007ca	ff 75 a0	 push	 DWORD PTR tv8857[ebp]
  007cd	50		 push	 eax
  007ce	e8 00 00 00 00	 call	 ??$_Traits_equal@U?$char_traits@D@std@@@std@@YA_NQBDI0I@Z ; std::_Traits_equal<std::char_traits<char> >
  007d3	83 c4 10	 add	 esp, 16			; 00000010H
; File C:\Anka2Project\Anka2Project\Source\Binary\source\UserInterface\PythonNetworkStreamCommand.cpp

; 341  : 		else if ("info" == TokenVector[1])

  007d6	84 c0		 test	 al, al
  007d8	0f 84 9e 01 00
	00		 je	 $LN60@ServerComm

; 342  : 		{
; 343  : 			if (14 != TokenVector.size())

  007de	83 7d 98 0e	 cmp	 DWORD PTR tv8830[ebp], 14 ; 0000000eH
  007e2	0f 85 9d 0e 00
	00		 jne	 $LN3210@ServerComm
; File C:\Program Files\Microsoft Visual Studio\2022\Community\VC\Tools\MSVC\14.44.35207\include\vector

; 1934 :         return _My_data._Myfirst[_Pos];

  007e8	8b 45 bc	 mov	 eax, DWORD PTR _TokenVector$[ebp]
  007eb	83 c0 30	 add	 eax, 48			; 00000030H
; File C:\Program Files\Microsoft Visual Studio\2022\Community\VC\Tools\MSVC\14.44.35207\include\xstring

; 453  :         return _Myres > _Small_string_capacity;

  007ee	83 78 14 0f	 cmp	 DWORD PTR [eax+20], 15	; 0000000fH

; 445  :         if (_Large_mode_engaged()) {

  007f2	76 02		 jbe	 SHORT $LN692@ServerComm

; 446  :             _Result = _Unfancy(_Bx._Ptr);

  007f4	8b 00		 mov	 eax, DWORD PTR [eax]
$LN692@ServerComm:
; File C:\Anka2Project\Anka2Project\Source\Binary\source\UserInterface\PythonNetworkStreamCommand.cpp

; 348  : 			DWORD card_in_hand_1 = atoi(TokenVector[2].c_str());

  007f6	50		 push	 eax
  007f7	e8 00 00 00 00	 call	 __atoi64
; File C:\Program Files\Microsoft Visual Studio\2022\Community\VC\Tools\MSVC\14.44.35207\include\vector

; 1934 :         return _My_data._Myfirst[_Pos];

  007fc	8b 4d bc	 mov	 ecx, DWORD PTR _TokenVector$[ebp]
; File C:\Anka2Project\Anka2Project\Source\Binary\source\UserInterface\PythonNetworkStreamCommand.cpp

; 348  : 			DWORD card_in_hand_1 = atoi(TokenVector[2].c_str());

  007ff	83 c4 04	 add	 esp, 4
; File C:\Program Files\Microsoft Visual Studio\2022\Community\VC\Tools\MSVC\14.44.35207\include\vector

; 1934 :         return _My_data._Myfirst[_Pos];

  00802	83 c1 48	 add	 ecx, 72			; 00000048H
; File C:\Anka2Project\Anka2Project\Source\Binary\source\UserInterface\PythonNetworkStreamCommand.cpp

; 348  : 			DWORD card_in_hand_1 = atoi(TokenVector[2].c_str());

  00805	89 45 b4	 mov	 DWORD PTR _card_in_hand_1$1$[ebp], eax
; File C:\Program Files\Microsoft Visual Studio\2022\Community\VC\Tools\MSVC\14.44.35207\include\xstring

; 453  :         return _Myres > _Small_string_capacity;

  00808	83 79 14 0f	 cmp	 DWORD PTR [ecx+20], 15	; 0000000fH

; 445  :         if (_Large_mode_engaged()) {

  0080c	76 02		 jbe	 SHORT $LN705@ServerComm

; 446  :             _Result = _Unfancy(_Bx._Ptr);

  0080e	8b 09		 mov	 ecx, DWORD PTR [ecx]
$LN705@ServerComm:
; File C:\Anka2Project\Anka2Project\Source\Binary\source\UserInterface\PythonNetworkStreamCommand.cpp

; 349  : 			DWORD card_in_hand_1_v = atoi(TokenVector[3].c_str());

  00810	51		 push	 ecx
  00811	e8 00 00 00 00	 call	 __atoi64
; File C:\Program Files\Microsoft Visual Studio\2022\Community\VC\Tools\MSVC\14.44.35207\include\vector

; 1934 :         return _My_data._Myfirst[_Pos];

  00816	8b 4d bc	 mov	 ecx, DWORD PTR _TokenVector$[ebp]
; File C:\Anka2Project\Anka2Project\Source\Binary\source\UserInterface\PythonNetworkStreamCommand.cpp

; 349  : 			DWORD card_in_hand_1_v = atoi(TokenVector[3].c_str());

  00819	83 c4 04	 add	 esp, 4
; File C:\Program Files\Microsoft Visual Studio\2022\Community\VC\Tools\MSVC\14.44.35207\include\vector

; 1934 :         return _My_data._Myfirst[_Pos];

  0081c	83 c1 60	 add	 ecx, 96			; 00000060H
; File C:\Anka2Project\Anka2Project\Source\Binary\source\UserInterface\PythonNetworkStreamCommand.cpp

; 349  : 			DWORD card_in_hand_1_v = atoi(TokenVector[3].c_str());

  0081f	89 45 9c	 mov	 DWORD PTR _card_in_hand_1_v$1$[ebp], eax
; File C:\Program Files\Microsoft Visual Studio\2022\Community\VC\Tools\MSVC\14.44.35207\include\xstring

; 453  :         return _Myres > _Small_string_capacity;

  00822	83 79 14 0f	 cmp	 DWORD PTR [ecx+20], 15	; 0000000fH

; 445  :         if (_Large_mode_engaged()) {

  00826	76 02		 jbe	 SHORT $LN718@ServerComm

; 446  :             _Result = _Unfancy(_Bx._Ptr);

  00828	8b 09		 mov	 ecx, DWORD PTR [ecx]
$LN718@ServerComm:
; File C:\Anka2Project\Anka2Project\Source\Binary\source\UserInterface\PythonNetworkStreamCommand.cpp

; 350  : 			DWORD card_in_hand_2 = atoi(TokenVector[4].c_str());

  0082a	51		 push	 ecx
  0082b	e8 00 00 00 00	 call	 __atoi64
; File C:\Program Files\Microsoft Visual Studio\2022\Community\VC\Tools\MSVC\14.44.35207\include\vector

; 1934 :         return _My_data._Myfirst[_Pos];

  00830	8b 4d bc	 mov	 ecx, DWORD PTR _TokenVector$[ebp]
; File C:\Anka2Project\Anka2Project\Source\Binary\source\UserInterface\PythonNetworkStreamCommand.cpp

; 350  : 			DWORD card_in_hand_2 = atoi(TokenVector[4].c_str());

  00833	83 c4 04	 add	 esp, 4
; File C:\Program Files\Microsoft Visual Studio\2022\Community\VC\Tools\MSVC\14.44.35207\include\vector

; 1934 :         return _My_data._Myfirst[_Pos];

  00836	83 c1 78	 add	 ecx, 120		; 00000078H
; File C:\Anka2Project\Anka2Project\Source\Binary\source\UserInterface\PythonNetworkStreamCommand.cpp

; 350  : 			DWORD card_in_hand_2 = atoi(TokenVector[4].c_str());

  00839	89 45 90	 mov	 DWORD PTR _card_in_hand_2$1$[ebp], eax
; File C:\Program Files\Microsoft Visual Studio\2022\Community\VC\Tools\MSVC\14.44.35207\include\xstring

; 453  :         return _Myres > _Small_string_capacity;

  0083c	83 79 14 0f	 cmp	 DWORD PTR [ecx+20], 15	; 0000000fH

; 445  :         if (_Large_mode_engaged()) {

  00840	76 02		 jbe	 SHORT $LN731@ServerComm

; 446  :             _Result = _Unfancy(_Bx._Ptr);

  00842	8b 09		 mov	 ecx, DWORD PTR [ecx]
$LN731@ServerComm:
; File C:\Anka2Project\Anka2Project\Source\Binary\source\UserInterface\PythonNetworkStreamCommand.cpp

; 351  : 			DWORD card_in_hand_2_v = atoi(TokenVector[5].c_str());

  00844	51		 push	 ecx
  00845	e8 00 00 00 00	 call	 __atoi64
; File C:\Program Files\Microsoft Visual Studio\2022\Community\VC\Tools\MSVC\14.44.35207\include\vector

; 1934 :         return _My_data._Myfirst[_Pos];

  0084a	8b 4d bc	 mov	 ecx, DWORD PTR _TokenVector$[ebp]
; File C:\Anka2Project\Anka2Project\Source\Binary\source\UserInterface\PythonNetworkStreamCommand.cpp

; 351  : 			DWORD card_in_hand_2_v = atoi(TokenVector[5].c_str());

  0084d	83 c4 04	 add	 esp, 4
; File C:\Program Files\Microsoft Visual Studio\2022\Community\VC\Tools\MSVC\14.44.35207\include\vector

; 1934 :         return _My_data._Myfirst[_Pos];

  00850	81 c1 90 00 00
	00		 add	 ecx, 144		; 00000090H
; File C:\Anka2Project\Anka2Project\Source\Binary\source\UserInterface\PythonNetworkStreamCommand.cpp

; 351  : 			DWORD card_in_hand_2_v = atoi(TokenVector[5].c_str());

  00856	89 45 94	 mov	 DWORD PTR _card_in_hand_2_v$1$[ebp], eax
; File C:\Program Files\Microsoft Visual Studio\2022\Community\VC\Tools\MSVC\14.44.35207\include\xstring

; 453  :         return _Myres > _Small_string_capacity;

  00859	83 79 14 0f	 cmp	 DWORD PTR [ecx+20], 15	; 0000000fH

; 445  :         if (_Large_mode_engaged()) {

  0085d	76 02		 jbe	 SHORT $LN744@ServerComm

; 446  :             _Result = _Unfancy(_Bx._Ptr);

  0085f	8b 09		 mov	 ecx, DWORD PTR [ecx]
$LN744@ServerComm:
; File C:\Anka2Project\Anka2Project\Source\Binary\source\UserInterface\PythonNetworkStreamCommand.cpp

; 352  : 			DWORD card_in_hand_3 = atoi(TokenVector[6].c_str());

  00861	51		 push	 ecx
  00862	e8 00 00 00 00	 call	 __atoi64
; File C:\Program Files\Microsoft Visual Studio\2022\Community\VC\Tools\MSVC\14.44.35207\include\vector

; 1934 :         return _My_data._Myfirst[_Pos];

  00867	8b 4d bc	 mov	 ecx, DWORD PTR _TokenVector$[ebp]
; File C:\Anka2Project\Anka2Project\Source\Binary\source\UserInterface\PythonNetworkStreamCommand.cpp

; 352  : 			DWORD card_in_hand_3 = atoi(TokenVector[6].c_str());

  0086a	83 c4 04	 add	 esp, 4
; File C:\Program Files\Microsoft Visual Studio\2022\Community\VC\Tools\MSVC\14.44.35207\include\vector

; 1934 :         return _My_data._Myfirst[_Pos];

  0086d	81 c1 a8 00 00
	00		 add	 ecx, 168		; 000000a8H
; File C:\Anka2Project\Anka2Project\Source\Binary\source\UserInterface\PythonNetworkStreamCommand.cpp

; 352  : 			DWORD card_in_hand_3 = atoi(TokenVector[6].c_str());

  00873	89 45 ac	 mov	 DWORD PTR _card_in_hand_3$1$[ebp], eax
; File C:\Program Files\Microsoft Visual Studio\2022\Community\VC\Tools\MSVC\14.44.35207\include\xstring

; 453  :         return _Myres > _Small_string_capacity;

  00876	83 79 14 0f	 cmp	 DWORD PTR [ecx+20], 15	; 0000000fH

; 445  :         if (_Large_mode_engaged()) {

  0087a	76 02		 jbe	 SHORT $LN757@ServerComm

; 446  :             _Result = _Unfancy(_Bx._Ptr);

  0087c	8b 09		 mov	 ecx, DWORD PTR [ecx]
$LN757@ServerComm:
; File C:\Anka2Project\Anka2Project\Source\Binary\source\UserInterface\PythonNetworkStreamCommand.cpp

; 353  : 			DWORD card_in_hand_3_v = atoi(TokenVector[7].c_str());

  0087e	51		 push	 ecx
  0087f	e8 00 00 00 00	 call	 __atoi64
; File C:\Program Files\Microsoft Visual Studio\2022\Community\VC\Tools\MSVC\14.44.35207\include\vector

; 1934 :         return _My_data._Myfirst[_Pos];

  00884	8b 4d bc	 mov	 ecx, DWORD PTR _TokenVector$[ebp]
; File C:\Anka2Project\Anka2Project\Source\Binary\source\UserInterface\PythonNetworkStreamCommand.cpp

; 353  : 			DWORD card_in_hand_3_v = atoi(TokenVector[7].c_str());

  00887	83 c4 04	 add	 esp, 4
; File C:\Program Files\Microsoft Visual Studio\2022\Community\VC\Tools\MSVC\14.44.35207\include\vector

; 1934 :         return _My_data._Myfirst[_Pos];

  0088a	81 c1 c0 00 00
	00		 add	 ecx, 192		; 000000c0H
; File C:\Anka2Project\Anka2Project\Source\Binary\source\UserInterface\PythonNetworkStreamCommand.cpp

; 353  : 			DWORD card_in_hand_3_v = atoi(TokenVector[7].c_str());

  00890	89 45 a0	 mov	 DWORD PTR _card_in_hand_3_v$1$[ebp], eax
; File C:\Program Files\Microsoft Visual Studio\2022\Community\VC\Tools\MSVC\14.44.35207\include\xstring

; 453  :         return _Myres > _Small_string_capacity;

  00893	83 79 14 0f	 cmp	 DWORD PTR [ecx+20], 15	; 0000000fH

; 445  :         if (_Large_mode_engaged()) {

  00897	76 02		 jbe	 SHORT $LN770@ServerComm

; 446  :             _Result = _Unfancy(_Bx._Ptr);

  00899	8b 09		 mov	 ecx, DWORD PTR [ecx]
$LN770@ServerComm:
; File C:\Anka2Project\Anka2Project\Source\Binary\source\UserInterface\PythonNetworkStreamCommand.cpp

; 354  : 			DWORD card_in_hand_4 = atoi(TokenVector[8].c_str());

  0089b	51		 push	 ecx
  0089c	e8 00 00 00 00	 call	 __atoi64
; File C:\Program Files\Microsoft Visual Studio\2022\Community\VC\Tools\MSVC\14.44.35207\include\vector

; 1934 :         return _My_data._Myfirst[_Pos];

  008a1	8b 4d bc	 mov	 ecx, DWORD PTR _TokenVector$[ebp]
; File C:\Anka2Project\Anka2Project\Source\Binary\source\UserInterface\PythonNetworkStreamCommand.cpp

; 354  : 			DWORD card_in_hand_4 = atoi(TokenVector[8].c_str());

  008a4	83 c4 04	 add	 esp, 4
; File C:\Program Files\Microsoft Visual Studio\2022\Community\VC\Tools\MSVC\14.44.35207\include\vector

; 1934 :         return _My_data._Myfirst[_Pos];

  008a7	81 c1 d8 00 00
	00		 add	 ecx, 216		; 000000d8H
; File C:\Anka2Project\Anka2Project\Source\Binary\source\UserInterface\PythonNetworkStreamCommand.cpp

; 354  : 			DWORD card_in_hand_4 = atoi(TokenVector[8].c_str());

  008ad	89 45 a8	 mov	 DWORD PTR _card_in_hand_4$1$[ebp], eax
; File C:\Program Files\Microsoft Visual Studio\2022\Community\VC\Tools\MSVC\14.44.35207\include\xstring

; 453  :         return _Myres > _Small_string_capacity;

  008b0	83 79 14 0f	 cmp	 DWORD PTR [ecx+20], 15	; 0000000fH

; 445  :         if (_Large_mode_engaged()) {

  008b4	76 02		 jbe	 SHORT $LN783@ServerComm

; 446  :             _Result = _Unfancy(_Bx._Ptr);

  008b6	8b 09		 mov	 ecx, DWORD PTR [ecx]
$LN783@ServerComm:
; File C:\Anka2Project\Anka2Project\Source\Binary\source\UserInterface\PythonNetworkStreamCommand.cpp

; 355  : 			DWORD card_in_hand_4_v = atoi(TokenVector[9].c_str());

  008b8	51		 push	 ecx
  008b9	e8 00 00 00 00	 call	 __atoi64
; File C:\Program Files\Microsoft Visual Studio\2022\Community\VC\Tools\MSVC\14.44.35207\include\vector

; 1934 :         return _My_data._Myfirst[_Pos];

  008be	8b 4d bc	 mov	 ecx, DWORD PTR _TokenVector$[ebp]
; File C:\Anka2Project\Anka2Project\Source\Binary\source\UserInterface\PythonNetworkStreamCommand.cpp

; 355  : 			DWORD card_in_hand_4_v = atoi(TokenVector[9].c_str());

  008c1	83 c4 04	 add	 esp, 4
; File C:\Program Files\Microsoft Visual Studio\2022\Community\VC\Tools\MSVC\14.44.35207\include\vector

; 1934 :         return _My_data._Myfirst[_Pos];

  008c4	81 c1 f0 00 00
	00		 add	 ecx, 240		; 000000f0H
; File C:\Anka2Project\Anka2Project\Source\Binary\source\UserInterface\PythonNetworkStreamCommand.cpp

; 355  : 			DWORD card_in_hand_4_v = atoi(TokenVector[9].c_str());

  008ca	89 45 a4	 mov	 DWORD PTR _card_in_hand_4_v$1$[ebp], eax
; File C:\Program Files\Microsoft Visual Studio\2022\Community\VC\Tools\MSVC\14.44.35207\include\xstring

; 453  :         return _Myres > _Small_string_capacity;

  008cd	83 79 14 0f	 cmp	 DWORD PTR [ecx+20], 15	; 0000000fH

; 445  :         if (_Large_mode_engaged()) {

  008d1	76 02		 jbe	 SHORT $LN796@ServerComm

; 446  :             _Result = _Unfancy(_Bx._Ptr);

  008d3	8b 09		 mov	 ecx, DWORD PTR [ecx]
$LN796@ServerComm:
; File C:\Anka2Project\Anka2Project\Source\Binary\source\UserInterface\PythonNetworkStreamCommand.cpp

; 356  : 			DWORD card_in_hand_5 = atoi(TokenVector[10].c_str());

  008d5	51		 push	 ecx
  008d6	e8 00 00 00 00	 call	 __atoi64
; File C:\Program Files\Microsoft Visual Studio\2022\Community\VC\Tools\MSVC\14.44.35207\include\vector

; 1934 :         return _My_data._Myfirst[_Pos];

  008db	8b 4d bc	 mov	 ecx, DWORD PTR _TokenVector$[ebp]
; File C:\Anka2Project\Anka2Project\Source\Binary\source\UserInterface\PythonNetworkStreamCommand.cpp

; 356  : 			DWORD card_in_hand_5 = atoi(TokenVector[10].c_str());

  008de	83 c4 04	 add	 esp, 4
; File C:\Program Files\Microsoft Visual Studio\2022\Community\VC\Tools\MSVC\14.44.35207\include\vector

; 1934 :         return _My_data._Myfirst[_Pos];

  008e1	81 c1 08 01 00
	00		 add	 ecx, 264		; 00000108H
; File C:\Anka2Project\Anka2Project\Source\Binary\source\UserInterface\PythonNetworkStreamCommand.cpp

; 356  : 			DWORD card_in_hand_5 = atoi(TokenVector[10].c_str());

  008e7	89 45 98	 mov	 DWORD PTR _card_in_hand_5$1$[ebp], eax
; File C:\Program Files\Microsoft Visual Studio\2022\Community\VC\Tools\MSVC\14.44.35207\include\xstring

; 453  :         return _Myres > _Small_string_capacity;

  008ea	83 79 14 0f	 cmp	 DWORD PTR [ecx+20], 15	; 0000000fH

; 445  :         if (_Large_mode_engaged()) {

  008ee	76 02		 jbe	 SHORT $LN809@ServerComm

; 446  :             _Result = _Unfancy(_Bx._Ptr);

  008f0	8b 09		 mov	 ecx, DWORD PTR [ecx]
$LN809@ServerComm:
; File C:\Anka2Project\Anka2Project\Source\Binary\source\UserInterface\PythonNetworkStreamCommand.cpp

; 357  : 			DWORD card_in_hand_5_v = atoi(TokenVector[11].c_str());

  008f2	51		 push	 ecx
  008f3	e8 00 00 00 00	 call	 __atoi64
; File C:\Program Files\Microsoft Visual Studio\2022\Community\VC\Tools\MSVC\14.44.35207\include\vector

; 1934 :         return _My_data._Myfirst[_Pos];

  008f8	8b 4d bc	 mov	 ecx, DWORD PTR _TokenVector$[ebp]
; File C:\Anka2Project\Anka2Project\Source\Binary\source\UserInterface\PythonNetworkStreamCommand.cpp

; 357  : 			DWORD card_in_hand_5_v = atoi(TokenVector[11].c_str());

  008fb	83 c4 04	 add	 esp, 4
; File C:\Program Files\Microsoft Visual Studio\2022\Community\VC\Tools\MSVC\14.44.35207\include\vector

; 1934 :         return _My_data._Myfirst[_Pos];

  008fe	81 c1 20 01 00
	00		 add	 ecx, 288		; 00000120H
; File C:\Anka2Project\Anka2Project\Source\Binary\source\UserInterface\PythonNetworkStreamCommand.cpp

; 357  : 			DWORD card_in_hand_5_v = atoi(TokenVector[11].c_str());

  00904	89 45 b0	 mov	 DWORD PTR _card_in_hand_5_v$1$[ebp], eax
; File C:\Program Files\Microsoft Visual Studio\2022\Community\VC\Tools\MSVC\14.44.35207\include\xstring

; 453  :         return _Myres > _Small_string_capacity;

  00907	83 79 14 0f	 cmp	 DWORD PTR [ecx+20], 15	; 0000000fH

; 445  :         if (_Large_mode_engaged()) {

  0090b	76 02		 jbe	 SHORT $LN822@ServerComm

; 446  :             _Result = _Unfancy(_Bx._Ptr);

  0090d	8b 09		 mov	 ecx, DWORD PTR [ecx]
$LN822@ServerComm:
; File C:\Anka2Project\Anka2Project\Source\Binary\source\UserInterface\PythonNetworkStreamCommand.cpp

; 358  : 			DWORD cards_left = atoi(TokenVector[12].c_str());

  0090f	51		 push	 ecx
  00910	e8 00 00 00 00	 call	 __atoi64
; File C:\Program Files\Microsoft Visual Studio\2022\Community\VC\Tools\MSVC\14.44.35207\include\vector

; 1934 :         return _My_data._Myfirst[_Pos];

  00915	8b 4d bc	 mov	 ecx, DWORD PTR _TokenVector$[ebp]
; File C:\Anka2Project\Anka2Project\Source\Binary\source\UserInterface\PythonNetworkStreamCommand.cpp

; 358  : 			DWORD cards_left = atoi(TokenVector[12].c_str());

  00918	83 c4 04	 add	 esp, 4
; File C:\Program Files\Microsoft Visual Studio\2022\Community\VC\Tools\MSVC\14.44.35207\include\vector

; 1934 :         return _My_data._Myfirst[_Pos];

  0091b	81 c1 38 01 00
	00		 add	 ecx, 312		; 00000138H
; File C:\Anka2Project\Anka2Project\Source\Binary\source\UserInterface\PythonNetworkStreamCommand.cpp

; 358  : 			DWORD cards_left = atoi(TokenVector[12].c_str());

  00921	8b f0		 mov	 esi, eax
; File C:\Program Files\Microsoft Visual Studio\2022\Community\VC\Tools\MSVC\14.44.35207\include\xstring

; 453  :         return _Myres > _Small_string_capacity;

  00923	83 79 14 0f	 cmp	 DWORD PTR [ecx+20], 15	; 0000000fH

; 445  :         if (_Large_mode_engaged()) {

  00927	76 02		 jbe	 SHORT $LN835@ServerComm

; 446  :             _Result = _Unfancy(_Bx._Ptr);

  00929	8b 09		 mov	 ecx, DWORD PTR [ecx]
$LN835@ServerComm:
; File C:\Anka2Project\Anka2Project\Source\Binary\source\UserInterface\PythonNetworkStreamCommand.cpp

; 359  : 			DWORD points = atoi(TokenVector[13].c_str());

  0092b	51		 push	 ecx
  0092c	e8 00 00 00 00	 call	 __atoi64
  00931	83 c4 04	 add	 esp, 4

; 360  : 			PyCallClassMemberFunc(m_apoPhaseWnd[PHASE_WINDOW_GAME], "BINARY_Cards_UpdateInfo", Py_BuildValue("(iiiiiiiiiiii)", card_in_hand_1, card_in_hand_1_v, card_in_hand_2, card_in_hand_2_v,

  00934	50		 push	 eax
  00935	56		 push	 esi
  00936	ff 75 b0	 push	 DWORD PTR _card_in_hand_5_v$1$[ebp]
  00939	a1 00 00 00 00	 mov	 eax, DWORD PTR __imp__Py_BuildValue
  0093e	ff 75 98	 push	 DWORD PTR _card_in_hand_5$1$[ebp]
  00941	ff 75 a4	 push	 DWORD PTR _card_in_hand_4_v$1$[ebp]
  00944	ff 75 a8	 push	 DWORD PTR _card_in_hand_4$1$[ebp]
  00947	ff 75 a0	 push	 DWORD PTR _card_in_hand_3_v$1$[ebp]
  0094a	ff 75 ac	 push	 DWORD PTR _card_in_hand_3$1$[ebp]
  0094d	ff 75 94	 push	 DWORD PTR _card_in_hand_2_v$1$[ebp]
  00950	ff 75 90	 push	 DWORD PTR _card_in_hand_2$1$[ebp]
  00953	ff 75 9c	 push	 DWORD PTR _card_in_hand_1_v$1$[ebp]
  00956	ff 75 b4	 push	 DWORD PTR _card_in_hand_1$1$[ebp]
  00959	68 00 00 00 00	 push	 OFFSET ??_C@_0P@KIOAGGHK@?$CIiiiiiiiiiiii?$CJ@
  0095e	ff d0		 call	 eax
  00960	83 c4 34	 add	 esp, 52			; 00000034H
  00963	50		 push	 eax
  00964	68 00 00 00 00	 push	 OFFSET ??_C@_0BI@MDGMJFNB@BINARY_Cards_UpdateInfo@
  00969	ff b7 98 01 00
	00		 push	 DWORD PTR [edi+408]
  0096f	e8 00 00 00 00	 call	 ?PyCallClassMemberFunc@@YA_NPAU_object@@PBD0@Z ; PyCallClassMemberFunc
  00974	83 c4 0c	 add	 esp, 12			; 0000000cH

; 361  : 																								card_in_hand_3, card_in_hand_3_v, card_in_hand_4, card_in_hand_4_v, card_in_hand_5, card_in_hand_5_v,
; 362  : 																								cards_left, points));
; 363  : 		}

  00977	e9 83 16 00 00	 jmp	 $LN127@ServerComm
$LN60@ServerComm:
; File C:\Program Files\Microsoft Visual Studio\2022\Community\VC\Tools\MSVC\14.44.35207\include\vector

; 1934 :         return _My_data._Myfirst[_Pos];

  0097c	8b 45 bc	 mov	 eax, DWORD PTR _TokenVector$[ebp]
  0097f	83 c0 18	 add	 eax, 24			; 00000018H
; File C:\Program Files\Microsoft Visual Studio\2022\Community\VC\Tools\MSVC\14.44.35207\include\xstring

; 453  :         return _Myres > _Small_string_capacity;

  00982	83 7d a8 0f	 cmp	 DWORD PTR tv8819[ebp], 15 ; 0000000fH

; 445  :         if (_Large_mode_engaged()) {

  00986	76 02		 jbe	 SHORT $LN3208@ServerComm

; 446  :             _Result = _Unfancy(_Bx._Ptr);

  00988	8b 00		 mov	 eax, DWORD PTR [eax]
$LN3208@ServerComm:

; 2854 :         return _Traits_equal<_Traits>(_Mypair._Myval2._Myptr(), _Mypair._Myval2._Mysize, _Ptr, _Traits::length(_Ptr));

  0098a	6a 05		 push	 5
  0098c	68 00 00 00 00	 push	 OFFSET ??_C@_05HBHEOHON@finfo@
  00991	ff 75 a0	 push	 DWORD PTR tv8857[ebp]
  00994	50		 push	 eax
  00995	e8 00 00 00 00	 call	 ??$_Traits_equal@U?$char_traits@D@std@@@std@@YA_NQBDI0I@Z ; std::_Traits_equal<std::char_traits<char> >
  0099a	83 c4 10	 add	 esp, 16			; 00000010H
; File C:\Anka2Project\Anka2Project\Source\Binary\source\UserInterface\PythonNetworkStreamCommand.cpp

; 364  : 		else if ("finfo" == TokenVector[1])

  0099d	84 c0		 test	 al, al
  0099f	8b 45 bc	 mov	 eax, DWORD PTR _TokenVector$[ebp]
  009a2	0f 84 ff 00 00
	00		 je	 $LN63@ServerComm

; 365  : 		{
; 366  : 			if (9 != TokenVector.size())

  009a8	2b f0		 sub	 esi, eax
  009aa	81 ee d8 00 00
	00		 sub	 esi, 216		; 000000d8H
  009b0	83 fe 18	 cmp	 esi, 24			; 00000018H
  009b3	0f 83 cc 0c 00
	00		 jae	 $LN3210@ServerComm
; File C:\Program Files\Microsoft Visual Studio\2022\Community\VC\Tools\MSVC\14.44.35207\include\vector

; 1934 :         return _My_data._Myfirst[_Pos];

  009b9	83 c0 30	 add	 eax, 48			; 00000030H
; File C:\Program Files\Microsoft Visual Studio\2022\Community\VC\Tools\MSVC\14.44.35207\include\xstring

; 453  :         return _Myres > _Small_string_capacity;

  009bc	83 78 14 0f	 cmp	 DWORD PTR [eax+20], 15	; 0000000fH

; 445  :         if (_Large_mode_engaged()) {

  009c0	76 02		 jbe	 SHORT $LN1006@ServerComm

; 446  :             _Result = _Unfancy(_Bx._Ptr);

  009c2	8b 00		 mov	 eax, DWORD PTR [eax]
$LN1006@ServerComm:
; File C:\Anka2Project\Anka2Project\Source\Binary\source\UserInterface\PythonNetworkStreamCommand.cpp

; 371  : 			DWORD hand_1 = atoi(TokenVector[2].c_str());

  009c4	50		 push	 eax
  009c5	e8 00 00 00 00	 call	 __atoi64
; File C:\Program Files\Microsoft Visual Studio\2022\Community\VC\Tools\MSVC\14.44.35207\include\vector

; 1934 :         return _My_data._Myfirst[_Pos];

  009ca	8b 4d bc	 mov	 ecx, DWORD PTR _TokenVector$[ebp]
; File C:\Anka2Project\Anka2Project\Source\Binary\source\UserInterface\PythonNetworkStreamCommand.cpp

; 371  : 			DWORD hand_1 = atoi(TokenVector[2].c_str());

  009cd	83 c4 04	 add	 esp, 4
; File C:\Program Files\Microsoft Visual Studio\2022\Community\VC\Tools\MSVC\14.44.35207\include\vector

; 1934 :         return _My_data._Myfirst[_Pos];

  009d0	83 c1 48	 add	 ecx, 72			; 00000048H
; File C:\Anka2Project\Anka2Project\Source\Binary\source\UserInterface\PythonNetworkStreamCommand.cpp

; 371  : 			DWORD hand_1 = atoi(TokenVector[2].c_str());

  009d3	89 45 b0	 mov	 DWORD PTR _hand_1$1$[ebp], eax
; File C:\Program Files\Microsoft Visual Studio\2022\Community\VC\Tools\MSVC\14.44.35207\include\xstring

; 453  :         return _Myres > _Small_string_capacity;

  009d6	83 79 14 0f	 cmp	 DWORD PTR [ecx+20], 15	; 0000000fH

; 445  :         if (_Large_mode_engaged()) {

  009da	76 02		 jbe	 SHORT $LN1022@ServerComm

; 446  :             _Result = _Unfancy(_Bx._Ptr);

  009dc	8b 09		 mov	 ecx, DWORD PTR [ecx]
$LN1022@ServerComm:
; File C:\Anka2Project\Anka2Project\Source\Binary\source\UserInterface\PythonNetworkStreamCommand.cpp

; 372  : 			DWORD hand_1_v = atoi(TokenVector[3].c_str());

  009de	51		 push	 ecx
  009df	e8 00 00 00 00	 call	 __atoi64
; File C:\Program Files\Microsoft Visual Studio\2022\Community\VC\Tools\MSVC\14.44.35207\include\vector

; 1934 :         return _My_data._Myfirst[_Pos];

  009e4	8b 4d bc	 mov	 ecx, DWORD PTR _TokenVector$[ebp]
; File C:\Anka2Project\Anka2Project\Source\Binary\source\UserInterface\PythonNetworkStreamCommand.cpp

; 372  : 			DWORD hand_1_v = atoi(TokenVector[3].c_str());

  009e7	83 c4 04	 add	 esp, 4
; File C:\Program Files\Microsoft Visual Studio\2022\Community\VC\Tools\MSVC\14.44.35207\include\vector

; 1934 :         return _My_data._Myfirst[_Pos];

  009ea	83 c1 60	 add	 ecx, 96			; 00000060H
; File C:\Anka2Project\Anka2Project\Source\Binary\source\UserInterface\PythonNetworkStreamCommand.cpp

; 372  : 			DWORD hand_1_v = atoi(TokenVector[3].c_str());

  009ed	89 45 94	 mov	 DWORD PTR _hand_1_v$1$[ebp], eax
; File C:\Program Files\Microsoft Visual Studio\2022\Community\VC\Tools\MSVC\14.44.35207\include\xstring

; 453  :         return _Myres > _Small_string_capacity;

  009f0	83 79 14 0f	 cmp	 DWORD PTR [ecx+20], 15	; 0000000fH

; 445  :         if (_Large_mode_engaged()) {

  009f4	76 02		 jbe	 SHORT $LN1035@ServerComm

; 446  :             _Result = _Unfancy(_Bx._Ptr);

  009f6	8b 09		 mov	 ecx, DWORD PTR [ecx]
$LN1035@ServerComm:
; File C:\Anka2Project\Anka2Project\Source\Binary\source\UserInterface\PythonNetworkStreamCommand.cpp

; 373  : 			DWORD hand_2 = atoi(TokenVector[4].c_str());

  009f8	51		 push	 ecx
  009f9	e8 00 00 00 00	 call	 __atoi64
; File C:\Program Files\Microsoft Visual Studio\2022\Community\VC\Tools\MSVC\14.44.35207\include\vector

; 1934 :         return _My_data._Myfirst[_Pos];

  009fe	8b 4d bc	 mov	 ecx, DWORD PTR _TokenVector$[ebp]
; File C:\Anka2Project\Anka2Project\Source\Binary\source\UserInterface\PythonNetworkStreamCommand.cpp

; 373  : 			DWORD hand_2 = atoi(TokenVector[4].c_str());

  00a01	83 c4 04	 add	 esp, 4
; File C:\Program Files\Microsoft Visual Studio\2022\Community\VC\Tools\MSVC\14.44.35207\include\vector

; 1934 :         return _My_data._Myfirst[_Pos];

  00a04	83 c1 78	 add	 ecx, 120		; 00000078H
; File C:\Anka2Project\Anka2Project\Source\Binary\source\UserInterface\PythonNetworkStreamCommand.cpp

; 373  : 			DWORD hand_2 = atoi(TokenVector[4].c_str());

  00a07	89 45 90	 mov	 DWORD PTR _hand_2$1$[ebp], eax
; File C:\Program Files\Microsoft Visual Studio\2022\Community\VC\Tools\MSVC\14.44.35207\include\xstring

; 453  :         return _Myres > _Small_string_capacity;

  00a0a	83 79 14 0f	 cmp	 DWORD PTR [ecx+20], 15	; 0000000fH

; 445  :         if (_Large_mode_engaged()) {

  00a0e	76 02		 jbe	 SHORT $LN1048@ServerComm

; 446  :             _Result = _Unfancy(_Bx._Ptr);

  00a10	8b 09		 mov	 ecx, DWORD PTR [ecx]
$LN1048@ServerComm:
; File C:\Anka2Project\Anka2Project\Source\Binary\source\UserInterface\PythonNetworkStreamCommand.cpp

; 374  : 			DWORD hand_2_v = atoi(TokenVector[5].c_str());

  00a12	51		 push	 ecx
  00a13	e8 00 00 00 00	 call	 __atoi64
; File C:\Program Files\Microsoft Visual Studio\2022\Community\VC\Tools\MSVC\14.44.35207\include\vector

; 1934 :         return _My_data._Myfirst[_Pos];

  00a18	8b 4d bc	 mov	 ecx, DWORD PTR _TokenVector$[ebp]
; File C:\Anka2Project\Anka2Project\Source\Binary\source\UserInterface\PythonNetworkStreamCommand.cpp

; 374  : 			DWORD hand_2_v = atoi(TokenVector[5].c_str());

  00a1b	83 c4 04	 add	 esp, 4
; File C:\Program Files\Microsoft Visual Studio\2022\Community\VC\Tools\MSVC\14.44.35207\include\vector

; 1934 :         return _My_data._Myfirst[_Pos];

  00a1e	81 c1 90 00 00
	00		 add	 ecx, 144		; 00000090H
; File C:\Anka2Project\Anka2Project\Source\Binary\source\UserInterface\PythonNetworkStreamCommand.cpp

; 374  : 			DWORD hand_2_v = atoi(TokenVector[5].c_str());

  00a24	89 45 9c	 mov	 DWORD PTR _hand_2_v$1$[ebp], eax
; File C:\Program Files\Microsoft Visual Studio\2022\Community\VC\Tools\MSVC\14.44.35207\include\xstring

; 453  :         return _Myres > _Small_string_capacity;

  00a27	83 79 14 0f	 cmp	 DWORD PTR [ecx+20], 15	; 0000000fH

; 445  :         if (_Large_mode_engaged()) {

  00a2b	76 02		 jbe	 SHORT $LN1061@ServerComm

; 446  :             _Result = _Unfancy(_Bx._Ptr);

  00a2d	8b 09		 mov	 ecx, DWORD PTR [ecx]
$LN1061@ServerComm:
; File C:\Anka2Project\Anka2Project\Source\Binary\source\UserInterface\PythonNetworkStreamCommand.cpp

; 375  : 			DWORD hand_3 = atoi(TokenVector[6].c_str());

  00a2f	51		 push	 ecx
  00a30	e8 00 00 00 00	 call	 __atoi64
; File C:\Program Files\Microsoft Visual Studio\2022\Community\VC\Tools\MSVC\14.44.35207\include\vector

; 1934 :         return _My_data._Myfirst[_Pos];

  00a35	8b 4d bc	 mov	 ecx, DWORD PTR _TokenVector$[ebp]
; File C:\Anka2Project\Anka2Project\Source\Binary\source\UserInterface\PythonNetworkStreamCommand.cpp

; 375  : 			DWORD hand_3 = atoi(TokenVector[6].c_str());

  00a38	83 c4 04	 add	 esp, 4
; File C:\Program Files\Microsoft Visual Studio\2022\Community\VC\Tools\MSVC\14.44.35207\include\vector

; 1934 :         return _My_data._Myfirst[_Pos];

  00a3b	81 c1 a8 00 00
	00		 add	 ecx, 168		; 000000a8H
; File C:\Anka2Project\Anka2Project\Source\Binary\source\UserInterface\PythonNetworkStreamCommand.cpp

; 375  : 			DWORD hand_3 = atoi(TokenVector[6].c_str());

  00a41	89 45 b4	 mov	 DWORD PTR _hand_3$1$[ebp], eax
; File C:\Program Files\Microsoft Visual Studio\2022\Community\VC\Tools\MSVC\14.44.35207\include\xstring

; 453  :         return _Myres > _Small_string_capacity;

  00a44	83 79 14 0f	 cmp	 DWORD PTR [ecx+20], 15	; 0000000fH

; 445  :         if (_Large_mode_engaged()) {

  00a48	76 02		 jbe	 SHORT $LN933@ServerComm

; 446  :             _Result = _Unfancy(_Bx._Ptr);

  00a4a	8b 09		 mov	 ecx, DWORD PTR [ecx]
$LN933@ServerComm:
; File C:\Anka2Project\Anka2Project\Source\Binary\source\UserInterface\PythonNetworkStreamCommand.cpp

; 376  : 			DWORD hand_3_v = atoi(TokenVector[7].c_str());

  00a4c	51		 push	 ecx
  00a4d	e8 00 00 00 00	 call	 __atoi64
; File C:\Program Files\Microsoft Visual Studio\2022\Community\VC\Tools\MSVC\14.44.35207\include\vector

; 1934 :         return _My_data._Myfirst[_Pos];

  00a52	8b 4d bc	 mov	 ecx, DWORD PTR _TokenVector$[ebp]
; File C:\Anka2Project\Anka2Project\Source\Binary\source\UserInterface\PythonNetworkStreamCommand.cpp

; 376  : 			DWORD hand_3_v = atoi(TokenVector[7].c_str());

  00a55	83 c4 04	 add	 esp, 4
; File C:\Program Files\Microsoft Visual Studio\2022\Community\VC\Tools\MSVC\14.44.35207\include\vector

; 1934 :         return _My_data._Myfirst[_Pos];

  00a58	81 c1 c0 00 00
	00		 add	 ecx, 192		; 000000c0H
; File C:\Anka2Project\Anka2Project\Source\Binary\source\UserInterface\PythonNetworkStreamCommand.cpp

; 376  : 			DWORD hand_3_v = atoi(TokenVector[7].c_str());

  00a5e	8b f0		 mov	 esi, eax
; File C:\Program Files\Microsoft Visual Studio\2022\Community\VC\Tools\MSVC\14.44.35207\include\xstring

; 453  :         return _Myres > _Small_string_capacity;

  00a60	83 79 14 0f	 cmp	 DWORD PTR [ecx+20], 15	; 0000000fH

; 445  :         if (_Large_mode_engaged()) {

  00a64	76 02		 jbe	 SHORT $LN946@ServerComm

; 446  :             _Result = _Unfancy(_Bx._Ptr);

  00a66	8b 09		 mov	 ecx, DWORD PTR [ecx]
$LN946@ServerComm:
; File C:\Anka2Project\Anka2Project\Source\Binary\source\UserInterface\PythonNetworkStreamCommand.cpp

; 377  : 			DWORD points = atoi(TokenVector[8].c_str());

  00a68	51		 push	 ecx
  00a69	e8 00 00 00 00	 call	 __atoi64
  00a6e	83 c4 04	 add	 esp, 4

; 378  : 			PyCallClassMemberFunc(m_apoPhaseWnd[PHASE_WINDOW_GAME], "BINARY_Cards_FieldUpdateInfo", Py_BuildValue("(iiiiiii)", hand_1, hand_1_v, hand_2, hand_2_v, hand_3, hand_3_v, points));

  00a71	50		 push	 eax
  00a72	a1 00 00 00 00	 mov	 eax, DWORD PTR __imp__Py_BuildValue
  00a77	56		 push	 esi
  00a78	ff 75 b4	 push	 DWORD PTR _hand_3$1$[ebp]
  00a7b	ff 75 9c	 push	 DWORD PTR _hand_2_v$1$[ebp]
  00a7e	ff 75 90	 push	 DWORD PTR _hand_2$1$[ebp]
  00a81	ff 75 94	 push	 DWORD PTR _hand_1_v$1$[ebp]
  00a84	ff 75 b0	 push	 DWORD PTR _hand_1$1$[ebp]
  00a87	68 00 00 00 00	 push	 OFFSET ??_C@_09JPACMNJH@?$CIiiiiiii?$CJ@
  00a8c	ff d0		 call	 eax
  00a8e	50		 push	 eax
  00a8f	68 00 00 00 00	 push	 OFFSET ??_C@_0BN@IKHHNCEI@BINARY_Cards_FieldUpdateInfo@
  00a94	ff b7 98 01 00
	00		 push	 DWORD PTR [edi+408]
  00a9a	e8 00 00 00 00	 call	 ?PyCallClassMemberFunc@@YA_NPAU_object@@PBD0@Z ; PyCallClassMemberFunc
  00a9f	83 c4 2c	 add	 esp, 44			; 0000002cH

; 379  : 		}

  00aa2	e9 58 15 00 00	 jmp	 $LN127@ServerComm
$LN63@ServerComm:
; File C:\Program Files\Microsoft Visual Studio\2022\Community\VC\Tools\MSVC\14.44.35207\include\xstring

; 453  :         return _Myres > _Small_string_capacity;

  00aa7	8b 50 2c	 mov	 edx, DWORD PTR [eax+44]
; File C:\Program Files\Microsoft Visual Studio\2022\Community\VC\Tools\MSVC\14.44.35207\include\vector

; 1934 :         return _My_data._Myfirst[_Pos];

  00aaa	83 c0 18	 add	 eax, 24			; 00000018H
; File C:\Program Files\Microsoft Visual Studio\2022\Community\VC\Tools\MSVC\14.44.35207\include\xstring

; 453  :         return _Myres > _Small_string_capacity;

  00aad	89 55 b4	 mov	 DWORD PTR tv8818[ebp], edx

; 2854 :         return _Traits_equal<_Traits>(_Mypair._Myval2._Myptr(), _Mypair._Myval2._Mysize, _Ptr, _Traits::length(_Ptr));

  00ab0	8b 48 10	 mov	 ecx, DWORD PTR [eax+16]
  00ab3	89 4d 9c	 mov	 DWORD PTR tv8852[ebp], ecx

; 453  :         return _Myres > _Small_string_capacity;

  00ab6	83 fa 0f	 cmp	 edx, 15			; 0000000fH

; 445  :         if (_Large_mode_engaged()) {

  00ab9	76 02		 jbe	 SHORT $LN3209@ServerComm

; 446  :             _Result = _Unfancy(_Bx._Ptr);

  00abb	8b 00		 mov	 eax, DWORD PTR [eax]
$LN3209@ServerComm:

; 2854 :         return _Traits_equal<_Traits>(_Mypair._Myval2._Myptr(), _Mypair._Myval2._Mysize, _Ptr, _Traits::length(_Ptr));

  00abd	6a 06		 push	 6
  00abf	68 00 00 00 00	 push	 OFFSET ??_C@_06NPNBMBEO@reward@
  00ac4	51		 push	 ecx
  00ac5	50		 push	 eax
  00ac6	e8 00 00 00 00	 call	 ??$_Traits_equal@U?$char_traits@D@std@@@std@@YA_NQBDI0I@Z ; std::_Traits_equal<std::char_traits<char> >
  00acb	83 c4 10	 add	 esp, 16			; 00000010H
; File C:\Anka2Project\Anka2Project\Source\Binary\source\UserInterface\PythonNetworkStreamCommand.cpp

; 380  : 		else if ("reward" == TokenVector[1])

  00ace	84 c0		 test	 al, al
  00ad0	8b 45 bc	 mov	 eax, DWORD PTR _TokenVector$[ebp]
  00ad3	0f 84 ff 00 00
	00		 je	 $LN66@ServerComm

; 381  : 		{
; 382  : 			if (9 != TokenVector.size())

  00ad9	2b f0		 sub	 esi, eax
  00adb	81 ee d8 00 00
	00		 sub	 esi, 216		; 000000d8H
  00ae1	83 fe 18	 cmp	 esi, 24			; 00000018H
  00ae4	0f 83 9b 0b 00
	00		 jae	 $LN3210@ServerComm
; File C:\Program Files\Microsoft Visual Studio\2022\Community\VC\Tools\MSVC\14.44.35207\include\vector

; 1934 :         return _My_data._Myfirst[_Pos];

  00aea	83 c0 30	 add	 eax, 48			; 00000030H
; File C:\Program Files\Microsoft Visual Studio\2022\Community\VC\Tools\MSVC\14.44.35207\include\xstring

; 453  :         return _Myres > _Small_string_capacity;

  00aed	83 78 14 0f	 cmp	 DWORD PTR [eax+20], 15	; 0000000fH

; 445  :         if (_Large_mode_engaged()) {

  00af1	76 02		 jbe	 SHORT $LN1185@ServerComm

; 446  :             _Result = _Unfancy(_Bx._Ptr);

  00af3	8b 00		 mov	 eax, DWORD PTR [eax]
$LN1185@ServerComm:
; File C:\Anka2Project\Anka2Project\Source\Binary\source\UserInterface\PythonNetworkStreamCommand.cpp

; 387  : 			DWORD hand_1 = atoi(TokenVector[2].c_str());

  00af5	50		 push	 eax
  00af6	e8 00 00 00 00	 call	 __atoi64
; File C:\Program Files\Microsoft Visual Studio\2022\Community\VC\Tools\MSVC\14.44.35207\include\vector

; 1934 :         return _My_data._Myfirst[_Pos];

  00afb	8b 4d bc	 mov	 ecx, DWORD PTR _TokenVector$[ebp]
; File C:\Anka2Project\Anka2Project\Source\Binary\source\UserInterface\PythonNetworkStreamCommand.cpp

; 387  : 			DWORD hand_1 = atoi(TokenVector[2].c_str());

  00afe	83 c4 04	 add	 esp, 4
; File C:\Program Files\Microsoft Visual Studio\2022\Community\VC\Tools\MSVC\14.44.35207\include\vector

; 1934 :         return _My_data._Myfirst[_Pos];

  00b01	83 c1 48	 add	 ecx, 72			; 00000048H
; File C:\Anka2Project\Anka2Project\Source\Binary\source\UserInterface\PythonNetworkStreamCommand.cpp

; 387  : 			DWORD hand_1 = atoi(TokenVector[2].c_str());

  00b04	89 45 b0	 mov	 DWORD PTR _hand_1$1$[ebp], eax
; File C:\Program Files\Microsoft Visual Studio\2022\Community\VC\Tools\MSVC\14.44.35207\include\xstring

; 453  :         return _Myres > _Small_string_capacity;

  00b07	83 79 14 0f	 cmp	 DWORD PTR [ecx+20], 15	; 0000000fH

; 445  :         if (_Large_mode_engaged()) {

  00b0b	76 02		 jbe	 SHORT $LN1198@ServerComm

; 446  :             _Result = _Unfancy(_Bx._Ptr);

  00b0d	8b 09		 mov	 ecx, DWORD PTR [ecx]
$LN1198@ServerComm:
; File C:\Anka2Project\Anka2Project\Source\Binary\source\UserInterface\PythonNetworkStreamCommand.cpp

; 388  : 			DWORD hand_1_v = atoi(TokenVector[3].c_str());

  00b0f	51		 push	 ecx
  00b10	e8 00 00 00 00	 call	 __atoi64
; File C:\Program Files\Microsoft Visual Studio\2022\Community\VC\Tools\MSVC\14.44.35207\include\vector

; 1934 :         return _My_data._Myfirst[_Pos];

  00b15	8b 4d bc	 mov	 ecx, DWORD PTR _TokenVector$[ebp]
; File C:\Anka2Project\Anka2Project\Source\Binary\source\UserInterface\PythonNetworkStreamCommand.cpp

; 388  : 			DWORD hand_1_v = atoi(TokenVector[3].c_str());

  00b18	83 c4 04	 add	 esp, 4
; File C:\Program Files\Microsoft Visual Studio\2022\Community\VC\Tools\MSVC\14.44.35207\include\vector

; 1934 :         return _My_data._Myfirst[_Pos];

  00b1b	83 c1 60	 add	 ecx, 96			; 00000060H
; File C:\Anka2Project\Anka2Project\Source\Binary\source\UserInterface\PythonNetworkStreamCommand.cpp

; 388  : 			DWORD hand_1_v = atoi(TokenVector[3].c_str());

  00b1e	89 45 94	 mov	 DWORD PTR _hand_1_v$1$[ebp], eax
; File C:\Program Files\Microsoft Visual Studio\2022\Community\VC\Tools\MSVC\14.44.35207\include\xstring

; 453  :         return _Myres > _Small_string_capacity;

  00b21	83 79 14 0f	 cmp	 DWORD PTR [ecx+20], 15	; 0000000fH

; 445  :         if (_Large_mode_engaged()) {

  00b25	76 02		 jbe	 SHORT $LN1208@ServerComm

; 446  :             _Result = _Unfancy(_Bx._Ptr);

  00b27	8b 09		 mov	 ecx, DWORD PTR [ecx]
$LN1208@ServerComm:
; File C:\Anka2Project\Anka2Project\Source\Binary\source\UserInterface\PythonNetworkStreamCommand.cpp

; 389  : 			DWORD hand_2 = atoi(TokenVector[4].c_str());

  00b29	51		 push	 ecx
  00b2a	e8 00 00 00 00	 call	 __atoi64
; File C:\Program Files\Microsoft Visual Studio\2022\Community\VC\Tools\MSVC\14.44.35207\include\vector

; 1934 :         return _My_data._Myfirst[_Pos];

  00b2f	8b 4d bc	 mov	 ecx, DWORD PTR _TokenVector$[ebp]
; File C:\Anka2Project\Anka2Project\Source\Binary\source\UserInterface\PythonNetworkStreamCommand.cpp

; 389  : 			DWORD hand_2 = atoi(TokenVector[4].c_str());

  00b32	83 c4 04	 add	 esp, 4
; File C:\Program Files\Microsoft Visual Studio\2022\Community\VC\Tools\MSVC\14.44.35207\include\vector

; 1934 :         return _My_data._Myfirst[_Pos];

  00b35	83 c1 78	 add	 ecx, 120		; 00000078H
; File C:\Anka2Project\Anka2Project\Source\Binary\source\UserInterface\PythonNetworkStreamCommand.cpp

; 389  : 			DWORD hand_2 = atoi(TokenVector[4].c_str());

  00b38	89 45 90	 mov	 DWORD PTR _hand_2$1$[ebp], eax
; File C:\Program Files\Microsoft Visual Studio\2022\Community\VC\Tools\MSVC\14.44.35207\include\xstring

; 453  :         return _Myres > _Small_string_capacity;

  00b3b	83 79 14 0f	 cmp	 DWORD PTR [ecx+20], 15	; 0000000fH

; 445  :         if (_Large_mode_engaged()) {

  00b3f	76 02		 jbe	 SHORT $LN1111@ServerComm

; 446  :             _Result = _Unfancy(_Bx._Ptr);

  00b41	8b 09		 mov	 ecx, DWORD PTR [ecx]
$LN1111@ServerComm:
; File C:\Anka2Project\Anka2Project\Source\Binary\source\UserInterface\PythonNetworkStreamCommand.cpp

; 390  : 			DWORD hand_2_v = atoi(TokenVector[5].c_str());

  00b43	51		 push	 ecx
  00b44	e8 00 00 00 00	 call	 __atoi64
; File C:\Program Files\Microsoft Visual Studio\2022\Community\VC\Tools\MSVC\14.44.35207\include\vector

; 1934 :         return _My_data._Myfirst[_Pos];

  00b49	8b 4d bc	 mov	 ecx, DWORD PTR _TokenVector$[ebp]
; File C:\Anka2Project\Anka2Project\Source\Binary\source\UserInterface\PythonNetworkStreamCommand.cpp

; 390  : 			DWORD hand_2_v = atoi(TokenVector[5].c_str());

  00b4c	83 c4 04	 add	 esp, 4
; File C:\Program Files\Microsoft Visual Studio\2022\Community\VC\Tools\MSVC\14.44.35207\include\vector

; 1934 :         return _My_data._Myfirst[_Pos];

  00b4f	81 c1 90 00 00
	00		 add	 ecx, 144		; 00000090H
; File C:\Anka2Project\Anka2Project\Source\Binary\source\UserInterface\PythonNetworkStreamCommand.cpp

; 390  : 			DWORD hand_2_v = atoi(TokenVector[5].c_str());

  00b55	89 45 9c	 mov	 DWORD PTR _hand_2_v$1$[ebp], eax
; File C:\Program Files\Microsoft Visual Studio\2022\Community\VC\Tools\MSVC\14.44.35207\include\xstring

; 453  :         return _Myres > _Small_string_capacity;

  00b58	83 79 14 0f	 cmp	 DWORD PTR [ecx+20], 15	; 0000000fH

; 445  :         if (_Large_mode_engaged()) {

  00b5c	76 02		 jbe	 SHORT $LN1124@ServerComm

; 446  :             _Result = _Unfancy(_Bx._Ptr);

  00b5e	8b 09		 mov	 ecx, DWORD PTR [ecx]
$LN1124@ServerComm:
; File C:\Anka2Project\Anka2Project\Source\Binary\source\UserInterface\PythonNetworkStreamCommand.cpp

; 391  : 			DWORD hand_3 = atoi(TokenVector[6].c_str());

  00b60	51		 push	 ecx
  00b61	e8 00 00 00 00	 call	 __atoi64
; File C:\Program Files\Microsoft Visual Studio\2022\Community\VC\Tools\MSVC\14.44.35207\include\vector

; 1934 :         return _My_data._Myfirst[_Pos];

  00b66	8b 4d bc	 mov	 ecx, DWORD PTR _TokenVector$[ebp]
; File C:\Anka2Project\Anka2Project\Source\Binary\source\UserInterface\PythonNetworkStreamCommand.cpp

; 391  : 			DWORD hand_3 = atoi(TokenVector[6].c_str());

  00b69	83 c4 04	 add	 esp, 4
; File C:\Program Files\Microsoft Visual Studio\2022\Community\VC\Tools\MSVC\14.44.35207\include\vector

; 1934 :         return _My_data._Myfirst[_Pos];

  00b6c	81 c1 a8 00 00
	00		 add	 ecx, 168		; 000000a8H
; File C:\Anka2Project\Anka2Project\Source\Binary\source\UserInterface\PythonNetworkStreamCommand.cpp

; 391  : 			DWORD hand_3 = atoi(TokenVector[6].c_str());

  00b72	89 45 b4	 mov	 DWORD PTR _hand_3$1$[ebp], eax
; File C:\Program Files\Microsoft Visual Studio\2022\Community\VC\Tools\MSVC\14.44.35207\include\xstring

; 453  :         return _Myres > _Small_string_capacity;

  00b75	83 79 14 0f	 cmp	 DWORD PTR [ecx+20], 15	; 0000000fH

; 445  :         if (_Large_mode_engaged()) {

  00b79	76 02		 jbe	 SHORT $LN1137@ServerComm

; 446  :             _Result = _Unfancy(_Bx._Ptr);

  00b7b	8b 09		 mov	 ecx, DWORD PTR [ecx]
$LN1137@ServerComm:
; File C:\Anka2Project\Anka2Project\Source\Binary\source\UserInterface\PythonNetworkStreamCommand.cpp

; 392  : 			DWORD hand_3_v = atoi(TokenVector[7].c_str());

  00b7d	51		 push	 ecx
  00b7e	e8 00 00 00 00	 call	 __atoi64
; File C:\Program Files\Microsoft Visual Studio\2022\Community\VC\Tools\MSVC\14.44.35207\include\vector

; 1934 :         return _My_data._Myfirst[_Pos];

  00b83	8b 4d bc	 mov	 ecx, DWORD PTR _TokenVector$[ebp]
; File C:\Anka2Project\Anka2Project\Source\Binary\source\UserInterface\PythonNetworkStreamCommand.cpp

; 392  : 			DWORD hand_3_v = atoi(TokenVector[7].c_str());

  00b86	83 c4 04	 add	 esp, 4
; File C:\Program Files\Microsoft Visual Studio\2022\Community\VC\Tools\MSVC\14.44.35207\include\vector

; 1934 :         return _My_data._Myfirst[_Pos];

  00b89	81 c1 c0 00 00
	00		 add	 ecx, 192		; 000000c0H
; File C:\Anka2Project\Anka2Project\Source\Binary\source\UserInterface\PythonNetworkStreamCommand.cpp

; 392  : 			DWORD hand_3_v = atoi(TokenVector[7].c_str());

  00b8f	8b f0		 mov	 esi, eax
; File C:\Program Files\Microsoft Visual Studio\2022\Community\VC\Tools\MSVC\14.44.35207\include\xstring

; 453  :         return _Myres > _Small_string_capacity;

  00b91	83 79 14 0f	 cmp	 DWORD PTR [ecx+20], 15	; 0000000fH

; 445  :         if (_Large_mode_engaged()) {

  00b95	76 02		 jbe	 SHORT $LN1150@ServerComm

; 446  :             _Result = _Unfancy(_Bx._Ptr);

  00b97	8b 09		 mov	 ecx, DWORD PTR [ecx]
$LN1150@ServerComm:
; File C:\Anka2Project\Anka2Project\Source\Binary\source\UserInterface\PythonNetworkStreamCommand.cpp

; 393  : 			DWORD points = atoi(TokenVector[8].c_str());

  00b99	51		 push	 ecx
  00b9a	e8 00 00 00 00	 call	 __atoi64
  00b9f	83 c4 04	 add	 esp, 4

; 394  : 			PyCallClassMemberFunc(m_apoPhaseWnd[PHASE_WINDOW_GAME], "BINARY_Cards_PutReward", Py_BuildValue("(iiiiiii)", hand_1, hand_1_v, hand_2, hand_2_v, hand_3, hand_3_v, points));

  00ba2	50		 push	 eax
  00ba3	a1 00 00 00 00	 mov	 eax, DWORD PTR __imp__Py_BuildValue
  00ba8	56		 push	 esi
  00ba9	ff 75 b4	 push	 DWORD PTR _hand_3$1$[ebp]
  00bac	ff 75 9c	 push	 DWORD PTR _hand_2_v$1$[ebp]
  00baf	ff 75 90	 push	 DWORD PTR _hand_2$1$[ebp]
  00bb2	ff 75 94	 push	 DWORD PTR _hand_1_v$1$[ebp]
  00bb5	ff 75 b0	 push	 DWORD PTR _hand_1$1$[ebp]
  00bb8	68 00 00 00 00	 push	 OFFSET ??_C@_09JPACMNJH@?$CIiiiiiii?$CJ@
  00bbd	ff d0		 call	 eax
  00bbf	50		 push	 eax
  00bc0	68 00 00 00 00	 push	 OFFSET ??_C@_0BH@GELOKGEA@BINARY_Cards_PutReward@
  00bc5	ff b7 98 01 00
	00		 push	 DWORD PTR [edi+408]
  00bcb	e8 00 00 00 00	 call	 ?PyCallClassMemberFunc@@YA_NPAU_object@@PBD0@Z ; PyCallClassMemberFunc
  00bd0	83 c4 2c	 add	 esp, 44			; 0000002cH

; 395  : 		}

  00bd3	e9 27 14 00 00	 jmp	 $LN127@ServerComm
$LN66@ServerComm:
; File C:\Program Files\Microsoft Visual Studio\2022\Community\VC\Tools\MSVC\14.44.35207\include\vector

; 1934 :         return _My_data._Myfirst[_Pos];

  00bd8	83 c0 18	 add	 eax, 24			; 00000018H
; File C:\Program Files\Microsoft Visual Studio\2022\Community\VC\Tools\MSVC\14.44.35207\include\xstring

; 453  :         return _Myres > _Small_string_capacity;

  00bdb	83 7d b4 0f	 cmp	 DWORD PTR tv8818[ebp], 15 ; 0000000fH

; 445  :         if (_Large_mode_engaged()) {

  00bdf	76 02		 jbe	 SHORT $LN1098@ServerComm

; 446  :             _Result = _Unfancy(_Bx._Ptr);

  00be1	8b 00		 mov	 eax, DWORD PTR [eax]
$LN1098@ServerComm:

; 2854 :         return _Traits_equal<_Traits>(_Mypair._Myval2._Myptr(), _Mypair._Myval2._Mysize, _Ptr, _Traits::length(_Ptr));

  00be3	6a 04		 push	 4
  00be5	68 00 00 00 00	 push	 OFFSET ??_C@_04DMJJIPAH@icon@
  00bea	ff 75 9c	 push	 DWORD PTR tv8852[ebp]
  00bed	50		 push	 eax
  00bee	e8 00 00 00 00	 call	 ??$_Traits_equal@U?$char_traits@D@std@@@std@@YA_NQBDI0I@Z ; std::_Traits_equal<std::char_traits<char> >
  00bf3	83 c4 10	 add	 esp, 16			; 00000010H
; File C:\Anka2Project\Anka2Project\Source\Binary\source\UserInterface\PythonNetworkStreamCommand.cpp

; 396  : 		else if ("icon" == TokenVector[1])

  00bf6	84 c0		 test	 al, al
  00bf8	0f 84 01 14 00
	00		 je	 $LN127@ServerComm

; 397  : 		{
; 398  : 			if (2 != TokenVector.size())

  00bfe	2b 75 bc	 sub	 esi, DWORD PTR _TokenVector$[ebp]
  00c01	83 ee 30	 sub	 esi, 48			; 00000030H
  00c04	83 fe 18	 cmp	 esi, 24			; 00000018H
  00c07	0f 83 78 0a 00
	00		 jae	 $LN3210@ServerComm

; 399  : 			{
; 400  : 				TraceError("CPythonNetworkStream::ServerCommand(c_szCommand=%s) - Strange Parameter Count : %s", c_szCommand);
; 401  : 				return;
; 402  : 			}
; 403  : 			PyCallClassMemberFunc(m_apoPhaseWnd[PHASE_WINDOW_GAME], "BINARY_Cards_ShowIcon", Py_BuildValue("()"));

  00c0d	a1 00 00 00 00	 mov	 eax, DWORD PTR __imp__Py_BuildValue
  00c12	68 00 00 00 00	 push	 OFFSET ??_C@_02HCKGKOFO@?$CI?$CJ@
  00c17	ff d0		 call	 eax
  00c19	83 c4 04	 add	 esp, 4
  00c1c	50		 push	 eax
  00c1d	68 00 00 00 00	 push	 OFFSET ??_C@_0BG@EEPJBDEM@BINARY_Cards_ShowIcon@
  00c22	ff b7 98 01 00
	00		 push	 DWORD PTR [edi+408]
  00c28	e8 00 00 00 00	 call	 ?PyCallClassMemberFunc@@YA_NPAU_object@@PBD0@Z ; PyCallClassMemberFunc
  00c2d	83 c4 0c	 add	 esp, 12			; 0000000cH

; 404  : 		}
; 405  : 	}

  00c30	e9 ca 13 00 00	 jmp	 $LN127@ServerComm
$LN55@ServerComm:

; 406  : #endif
; 407  : #ifdef ENABLE_RENEWAL_TELEPORT_SYSTEM
; 408  : 	else if (!strcmpi(szCmd, "BINARY_OpenWarpWindow"))

  00c35	68 00 00 00 00	 push	 OFFSET ??_C@_0BG@HEDPDHJK@BINARY_OpenWarpWindow@
  00c3a	56		 push	 esi
  00c3b	e8 00 00 00 00	 call	 __strcmpi
  00c40	83 c4 08	 add	 esp, 8
  00c43	85 c0		 test	 eax, eax
  00c45	75 28		 jne	 SHORT $LN71@ServerComm

; 409  : 	{
; 410  : 		PyCallClassMemberFunc(m_apoPhaseWnd[PHASE_WINDOW_GAME], "BINARY_OpenWarpWindow", Py_BuildValue("()"));

  00c47	a1 00 00 00 00	 mov	 eax, DWORD PTR __imp__Py_BuildValue
  00c4c	68 00 00 00 00	 push	 OFFSET ??_C@_02HCKGKOFO@?$CI?$CJ@
  00c51	ff d0		 call	 eax
  00c53	83 c4 04	 add	 esp, 4
  00c56	50		 push	 eax
  00c57	68 00 00 00 00	 push	 OFFSET ??_C@_0BG@HEDPDHJK@BINARY_OpenWarpWindow@
  00c5c	ff b7 98 01 00
	00		 push	 DWORD PTR [edi+408]
  00c62	e8 00 00 00 00	 call	 ?PyCallClassMemberFunc@@YA_NPAU_object@@PBD0@Z ; PyCallClassMemberFunc
  00c67	83 c4 0c	 add	 esp, 12			; 0000000cH

; 411  : 	}

  00c6a	e9 90 13 00 00	 jmp	 $LN127@ServerComm
$LN71@ServerComm:

; 412  : #endif
; 413  : 	else if (!strcmpi(szCmd, "StoneDetect"))

  00c6f	68 00 00 00 00	 push	 OFFSET ??_C@_0M@EEGHHMDP@StoneDetect@
  00c74	56		 push	 esi
  00c75	e8 00 00 00 00	 call	 __strcmpi
  00c7a	83 c4 08	 add	 esp, 8
  00c7d	85 c0		 test	 eax, eax
  00c7f	0f 85 14 03 00
	00		 jne	 $LN73@ServerComm

; 414  : 	{
; 415  : 		if (4 != TokenVector.size())

  00c85	8b 45 c0	 mov	 eax, DWORD PTR _TokenVector$[ebp+4]
  00c88	8b 4d bc	 mov	 ecx, DWORD PTR _TokenVector$[ebp]
  00c8b	2b c1		 sub	 eax, ecx
  00c8d	83 e8 60	 sub	 eax, 96			; 00000060H
  00c90	83 f8 18	 cmp	 eax, 24			; 00000018H
  00c93	0f 83 ec 09 00
	00		 jae	 $LN3210@ServerComm
; File C:\Program Files\Microsoft Visual Studio\2022\Community\VC\Tools\MSVC\14.44.35207\include\xstring

; 453  :         return _Myres > _Small_string_capacity;

  00c99	83 79 2c 0f	 cmp	 DWORD PTR [ecx+44], 15	; 0000000fH
; File C:\Program Files\Microsoft Visual Studio\2022\Community\VC\Tools\MSVC\14.44.35207\include\vector

; 1934 :         return _My_data._Myfirst[_Pos];

  00c9d	8d 41 18	 lea	 eax, DWORD PTR [ecx+24]
; File C:\Program Files\Microsoft Visual Studio\2022\Community\VC\Tools\MSVC\14.44.35207\include\xstring

; 445  :         if (_Large_mode_engaged()) {

  00ca0	76 02		 jbe	 SHORT $LN639@ServerComm

; 446  :             _Result = _Unfancy(_Bx._Ptr);

  00ca2	8b 00		 mov	 eax, DWORD PTR [eax]
$LN639@ServerComm:
; File C:\Anka2Project\Anka2Project\Source\Binary\source\UserInterface\PythonNetworkStreamCommand.cpp

; 422  : 		DWORD dwVID = atoi(TokenVector[1].c_str());

  00ca4	50		 push	 eax
  00ca5	e8 00 00 00 00	 call	 __atoi64
; File C:\Program Files\Microsoft Visual Studio\2022\Community\VC\Tools\MSVC\14.44.35207\include\vector

; 1934 :         return _My_data._Myfirst[_Pos];

  00caa	8b 4d bc	 mov	 ecx, DWORD PTR _TokenVector$[ebp]
; File C:\Anka2Project\Anka2Project\Source\Binary\source\UserInterface\PythonNetworkStreamCommand.cpp

; 422  : 		DWORD dwVID = atoi(TokenVector[1].c_str());

  00cad	83 c4 04	 add	 esp, 4
; File C:\Program Files\Microsoft Visual Studio\2022\Community\VC\Tools\MSVC\14.44.35207\include\vector

; 1934 :         return _My_data._Myfirst[_Pos];

  00cb0	83 c1 30	 add	 ecx, 48			; 00000030H
; File C:\Anka2Project\Anka2Project\Source\Binary\source\UserInterface\PythonNetworkStreamCommand.cpp

; 422  : 		DWORD dwVID = atoi(TokenVector[1].c_str());

  00cb3	8b f8		 mov	 edi, eax
; File C:\Program Files\Microsoft Visual Studio\2022\Community\VC\Tools\MSVC\14.44.35207\include\xstring

; 453  :         return _Myres > _Small_string_capacity;

  00cb5	83 79 14 0f	 cmp	 DWORD PTR [ecx+20], 15	; 0000000fH

; 445  :         if (_Large_mode_engaged()) {

  00cb9	76 02		 jbe	 SHORT $LN613@ServerComm

; 446  :             _Result = _Unfancy(_Bx._Ptr);

  00cbb	8b 09		 mov	 ecx, DWORD PTR [ecx]
$LN613@ServerComm:
; File C:\Anka2Project\Anka2Project\Source\Binary\source\UserInterface\PythonNetworkStreamCommand.cpp

; 423  : 		BYTE byDistance = atoi(TokenVector[2].c_str());

  00cbd	51		 push	 ecx
  00cbe	e8 00 00 00 00	 call	 __atoi64
; File C:\Program Files\Microsoft Visual Studio\2022\Community\VC\Tools\MSVC\14.44.35207\include\vector

; 1934 :         return _My_data._Myfirst[_Pos];

  00cc3	8b 4d bc	 mov	 ecx, DWORD PTR _TokenVector$[ebp]
; File C:\Anka2Project\Anka2Project\Source\Binary\source\UserInterface\PythonNetworkStreamCommand.cpp

; 423  : 		BYTE byDistance = atoi(TokenVector[2].c_str());

  00cc6	83 c4 04	 add	 esp, 4
; File C:\Program Files\Microsoft Visual Studio\2022\Community\VC\Tools\MSVC\14.44.35207\include\vector

; 1934 :         return _My_data._Myfirst[_Pos];

  00cc9	83 c1 48	 add	 ecx, 72			; 00000048H
; File C:\Anka2Project\Anka2Project\Source\Binary\source\UserInterface\PythonNetworkStreamCommand.cpp

; 423  : 		BYTE byDistance = atoi(TokenVector[2].c_str());

  00ccc	88 45 bb	 mov	 BYTE PTR _byDistance$1$[ebp], al
; File C:\Program Files\Microsoft Visual Studio\2022\Community\VC\Tools\MSVC\14.44.35207\include\xstring

; 453  :         return _Myres > _Small_string_capacity;

  00ccf	83 79 14 0f	 cmp	 DWORD PTR [ecx+20], 15	; 0000000fH

; 445  :         if (_Large_mode_engaged()) {

  00cd3	76 02		 jbe	 SHORT $LN600@ServerComm

; 446  :             _Result = _Unfancy(_Bx._Ptr);

  00cd5	8b 09		 mov	 ecx, DWORD PTR [ecx]
$LN600@ServerComm:
; File C:\Anka2Project\Anka2Project\Source\Binary\source\UserInterface\PythonNetworkStreamCommand.cpp

; 424  : 		float fAngle = atof(TokenVector[3].c_str());

  00cd7	51		 push	 ecx
  00cd8	e8 00 00 00 00	 call	 _atof
; File C:\Program Files\Microsoft Visual Studio\2022\Community\VC\Tools\MSVC\14.44.35207\include\cmath

; 147  :     return _CSTD fmodf(_Xx, _Yx);

  00cdd	f3 0f 10 0d 00
	00 00 00	 movss	 xmm1, DWORD PTR __real@43b40000
; File C:\Anka2Project\Anka2Project\Source\Binary\source\UserInterface\PythonNetworkStreamCommand.cpp

; 424  : 		float fAngle = atof(TokenVector[3].c_str());

  00ce5	83 c4 04	 add	 esp, 4
  00ce8	d9 5d b4	 fstp	 DWORD PTR tv9342[ebp]
  00ceb	d9 45 b4	 fld	 DWORD PTR tv9342[ebp]

; 425  : 		fAngle = fmod(540.0f - fAngle, 360.0f);

  00cee	d8 2d 00 00 00
	00		 fsubr	 DWORD PTR __real@44070000
  00cf4	d9 5d b4	 fstp	 DWORD PTR tv9339[ebp]
; File C:\Program Files\Microsoft Visual Studio\2022\Community\VC\Tools\MSVC\14.44.35207\include\cmath

; 147  :     return _CSTD fmodf(_Xx, _Yx);

  00cf7	f3 0f 10 45 b4	 movss	 xmm0, DWORD PTR tv9339[ebp]
  00cfc	e8 00 00 00 00	 call	 _fmodf
; File C:\Program Files\Microsoft Visual Studio\2022\Community\VC\Tools\MSVC\14.44.35207\include\vector

; 1934 :         return _My_data._Myfirst[_Pos];

  00d01	8b 45 bc	 mov	 eax, DWORD PTR _TokenVector$[ebp]
  00d04	83 c0 48	 add	 eax, 72			; 00000048H
; File C:\Program Files\Microsoft Visual Studio\2022\Community\VC\Tools\MSVC\14.44.35207\include\cmath

; 147  :     return _CSTD fmodf(_Xx, _Yx);

  00d07	f3 0f 11 45 b4	 movss	 DWORD PTR _fAngle$1$[ebp], xmm0
; File C:\Program Files\Microsoft Visual Studio\2022\Community\VC\Tools\MSVC\14.44.35207\include\xstring

; 453  :         return _Myres > _Small_string_capacity;

  00d0c	83 78 14 0f	 cmp	 DWORD PTR [eax+20], 15	; 0000000fH

; 445  :         if (_Large_mode_engaged()) {

  00d10	76 02		 jbe	 SHORT $LN623@ServerComm

; 446  :             _Result = _Unfancy(_Bx._Ptr);

  00d12	8b 00		 mov	 eax, DWORD PTR [eax]
$LN623@ServerComm:
; File C:\Anka2Project\Anka2Project\Source\Binary\source\UserInterface\PythonNetworkStreamCommand.cpp

; 426  : 		Tracef("StoneDetect [VID:%d] [Distance:%d] [Angle:%d->%f]\n", dwVID, byDistance, atoi(TokenVector[3].c_str()), fAngle);

  00d14	0f b6 75 bb	 movzx	 esi, BYTE PTR _byDistance$1$[ebp]
  00d18	83 ec 08	 sub	 esp, 8
  00d1b	f3 0f 5a c0	 cvtss2sd xmm0, xmm0
  00d1f	f2 0f 11 04 24	 movsd	 QWORD PTR [esp], xmm0
  00d24	50		 push	 eax
  00d25	e8 00 00 00 00	 call	 __atoi64
  00d2a	83 c4 04	 add	 esp, 4
  00d2d	52		 push	 edx
  00d2e	50		 push	 eax
  00d2f	56		 push	 esi
  00d30	57		 push	 edi
  00d31	68 00 00 00 00	 push	 OFFSET ??_C@_0DD@COMEEBAO@StoneDetect?5?$FLVID?3?$CFd?$FN?5?$FLDistance?3@
  00d36	e8 00 00 00 00	 call	 ?Tracef@@YAXPBDZZ	; Tracef
; File C:\Anka2Project\Anka2Project\Source\Binary\source\UserInterface\AbstractSingleton.h

; 24   : 		assert(ms_singleton!=nullptr);

  00d3b	8b 0d 00 00 00
	00		 mov	 ecx, DWORD PTR ?ms_singleton@?$TAbstractSingleton@VIAbstractCharacterManager@@@@0PAVIAbstractCharacterManager@@A ; TAbstractSingleton<IAbstractCharacterManager>::ms_singleton
; File C:\Anka2Project\Anka2Project\Source\Binary\source\UserInterface\PythonNetworkStreamCommand.cpp

; 426  : 		Tracef("StoneDetect [VID:%d] [Distance:%d] [Angle:%d->%f]\n", dwVID, byDistance, atoi(TokenVector[3].c_str()), fAngle);

  00d41	83 c4 1c	 add	 esp, 28			; 0000001cH
; File C:\Anka2Project\Anka2Project\Source\Binary\source\UserInterface\AbstractSingleton.h

; 24   : 		assert(ms_singleton!=nullptr);

  00d44	85 c9		 test	 ecx, ecx
  00d46	75 1a		 jne	 SHORT $LN576@ServerComm
  00d48	6a 18		 push	 24			; 00000018H
  00d4a	68 00 00 00 00	 push	 OFFSET ??_C@_1KI@FIPHLMOB@?$AAC?$AA?3?$AA?2?$AAA?$AAn?$AAk?$AAa?$AA2?$AAP?$AAr?$AAo?$AAj?$AAe?$AAc?$AAt@
  00d4f	68 00 00 00 00	 push	 OFFSET ??_C@_1CM@FPMBEAEA@?$AAm?$AAs?$AA_?$AAs?$AAi?$AAn?$AAg?$AAl?$AAe?$AAt?$AAo?$AAn?$AA?$CB?$AA?$DN?$AAn@
  00d54	e8 00 00 00 00	 call	 __wassert
  00d59	8b 0d 00 00 00
	00		 mov	 ecx, DWORD PTR ?ms_singleton@?$TAbstractSingleton@VIAbstractCharacterManager@@@@0PAVIAbstractCharacterManager@@A ; TAbstractSingleton<IAbstractCharacterManager>::ms_singleton
  00d5f	83 c4 0c	 add	 esp, 12			; 0000000cH
$LN576@ServerComm:
; File C:\Anka2Project\Anka2Project\Source\Binary\source\UserInterface\PythonNetworkStreamCommand.cpp

; 430  : 		CInstanceBase * pInstance = rkChrMgr.GetInstancePtr(dwVID);

  00d62	8b 01		 mov	 eax, DWORD PTR [ecx]
  00d64	57		 push	 edi
  00d65	8b 40 08	 mov	 eax, DWORD PTR [eax+8]
  00d68	ff d0		 call	 eax

; 431  : 		if (!pInstance)

  00d6a	85 c0		 test	 eax, eax
  00d6c	75 15		 jne	 SHORT $LN76@ServerComm

; 432  : 		{
; 433  : 			TraceError("CPythonNetworkStream::ServerCommand(c_szCommand=%s) - Not Exist Instance", c_szCommand);

  00d6e	ff 75 ac	 push	 DWORD PTR _c_szCommand$GSCopy$1$[ebp]
  00d71	68 00 00 00 00	 push	 OFFSET ??_C@_0EJ@MCLCAHNB@CPythonNetworkStream?3?3ServerCom@
  00d76	e8 00 00 00 00	 call	 ?TraceError@@YAXPBDZZ	; TraceError
  00d7b	83 c4 08	 add	 esp, 8
  00d7e	e9 7c 12 00 00	 jmp	 $LN127@ServerComm
$LN76@ServerComm:
; File C:\Anka2Project\Anka2Project\Source\Binary\extern\include\d3dx8math.inl

; 182  :     z = fz;

  00d83	f3 0f 10 45 b4	 movss	 xmm0, DWORD PTR _fAngle$1$[ebp]
; File C:\Anka2Project\Anka2Project\Source\Binary\source\UserInterface\PythonNetworkStreamCommand.cpp

; 439  : 		pInstance->NEW_GetPixelPosition(&PixelPosition);

  00d88	8d 4d e0	 lea	 ecx, DWORD PTR _PixelPosition$472[ebp]
  00d8b	51		 push	 ecx
  00d8c	8b c8		 mov	 ecx, eax
; File C:\Anka2Project\Anka2Project\Source\Binary\extern\include\d3dx8math.inl

; 180  :     x = fx;

  00d8e	c7 45 c8 00 00
	00 00		 mov	 DWORD PTR _v3Rotation$470[ebp], 0

; 181  :     y = fy;

  00d95	c7 45 cc 00 00
	00 00		 mov	 DWORD PTR _v3Rotation$470[ebp+4], 0

; 182  :     z = fz;

  00d9c	f3 0f 11 45 d0	 movss	 DWORD PTR _v3Rotation$470[ebp+8], xmm0
; File C:\Anka2Project\Anka2Project\Source\Binary\source\UserInterface\PythonNetworkStreamCommand.cpp

; 439  : 		pInstance->NEW_GetPixelPosition(&PixelPosition);

  00da1	e8 00 00 00 00	 call	 ?NEW_GetPixelPosition@CInstanceBase@@QAEXPAUD3DXVECTOR3@@@Z ; CInstanceBase::NEW_GetPixelPosition

; 440  : 
; 441  : 		PixelPosition.y *= -1.0f;

  00da6	f3 0f 10 45 e4	 movss	 xmm0, DWORD PTR _PixelPosition$472[ebp+4]
  00dab	f3 0f 59 05 00
	00 00 00	 mulss	 xmm0, DWORD PTR __real@bf800000
  00db3	f3 0f 11 45 e4	 movss	 DWORD PTR _PixelPosition$472[ebp+4], xmm0

; 442  : 
; 443  : 		switch (byDistance)

  00db8	83 fe 03	 cmp	 esi, 3
  00dbb	0f 87 c3 01 00
	00		 ja	 $LN81@ServerComm
  00dc1	ff 24 b5 00 00
	00 00		 jmp	 DWORD PTR $LN3226@ServerComm[esi*4]
$LN77@ServerComm:
; File C:\Anka2Project\Anka2Project\Source\Binary\source\eterBase\Singleton.h

; 26   : 		assert(ms_singleton);

  00dc8	8b 0d 00 00 00
	00		 mov	 ecx, DWORD PTR ?ms_singleton@?$CSingleton@VCEffectManager@@@@0PAVCEffectManager@@A ; CSingleton<CEffectManager>::ms_singleton
  00dce	85 c9		 test	 ecx, ecx
  00dd0	75 1a		 jne	 SHORT $LN1250@ServerComm
  00dd2	6a 1a		 push	 26			; 0000001aH
  00dd4	68 00 00 00 00	 push	 OFFSET ??_C@_1IO@CAJLEEOI@?$AAC?$AA?3?$AA?2?$AAA?$AAn?$AAk?$AAa?$AA2?$AAP?$AAr?$AAo?$AAj?$AAe?$AAc?$AAt@
  00dd9	68 00 00 00 00	 push	 OFFSET ??_C@_1BK@FMEHPMFE@?$AAm?$AAs?$AA_?$AAs?$AAi?$AAn?$AAg?$AAl?$AAe?$AAt?$AAo?$AAn@
  00dde	e8 00 00 00 00	 call	 __wassert
  00de3	8b 0d 00 00 00
	00		 mov	 ecx, DWORD PTR ?ms_singleton@?$CSingleton@VCEffectManager@@@@0PAVCEffectManager@@A ; CSingleton<CEffectManager>::ms_singleton
  00de9	83 c4 0c	 add	 esp, 12			; 0000000cH
$LN1250@ServerComm:
; File C:\Anka2Project\Anka2Project\Source\Binary\source\UserInterface\PythonNetworkStreamCommand.cpp

; 446  : 				CEffectManager::Instance().RegisterEffect("d:/ymir work/effect/etc/firecracker/find_out.mse");

  00dec	6a 00		 push	 0
  00dee	6a 00		 push	 0
  00df0	6a 00		 push	 0
  00df2	68 00 00 00 00	 push	 OFFSET ??_C@_0DB@CJFLAJFC@d?3?1ymir?5work?1effect?1etc?1firecra@
  00df7	e8 00 00 00 00	 call	 ?RegisterEffect@CEffectManager@@QAEHPBD_N10@Z ; CEffectManager::RegisterEffect
; File C:\Anka2Project\Anka2Project\Source\Binary\source\eterBase\Singleton.h

; 26   : 		assert(ms_singleton);

  00dfc	8b 0d 00 00 00
	00		 mov	 ecx, DWORD PTR ?ms_singleton@?$CSingleton@VCEffectManager@@@@0PAVCEffectManager@@A ; CSingleton<CEffectManager>::ms_singleton
  00e02	85 c9		 test	 ecx, ecx
  00e04	75 1a		 jne	 SHORT $LN1247@ServerComm
  00e06	6a 1a		 push	 26			; 0000001aH
  00e08	68 00 00 00 00	 push	 OFFSET ??_C@_1IO@CAJLEEOI@?$AAC?$AA?3?$AA?2?$AAA?$AAn?$AAk?$AAa?$AA2?$AAP?$AAr?$AAo?$AAj?$AAe?$AAc?$AAt@
  00e0d	68 00 00 00 00	 push	 OFFSET ??_C@_1BK@FMEHPMFE@?$AAm?$AAs?$AA_?$AAs?$AAi?$AAn?$AAg?$AAl?$AAe?$AAt?$AAo?$AAn@
  00e12	e8 00 00 00 00	 call	 __wassert
  00e17	8b 0d 00 00 00
	00		 mov	 ecx, DWORD PTR ?ms_singleton@?$CSingleton@VCEffectManager@@@@0PAVCEffectManager@@A ; CSingleton<CEffectManager>::ms_singleton
  00e1d	83 c4 0c	 add	 esp, 12			; 0000000cH
$LN1247@ServerComm:
; File C:\Anka2Project\Anka2Project\Source\Binary\source\UserInterface\PythonNetworkStreamCommand.cpp

; 447  : 				CEffectManager::Instance().CreateEffect("d:/ymir work/effect/etc/firecracker/find_out.mse", PixelPosition, v3Rotation);

  00e20	8d 45 c8	 lea	 eax, DWORD PTR _v3Rotation$470[ebp]
  00e23	50		 push	 eax
  00e24	8d 45 e0	 lea	 eax, DWORD PTR _PixelPosition$472[ebp]
  00e27	50		 push	 eax
  00e28	68 00 00 00 00	 push	 OFFSET ??_C@_0DB@CJFLAJFC@d?3?1ymir?5work?1effect?1etc?1firecra@
  00e2d	e8 00 00 00 00	 call	 ?CreateEffect@CEffectManager@@QAEHPBDABUD3DXVECTOR3@@1@Z ; CEffectManager::CreateEffect

; 448  : 				break;

  00e32	e9 c8 11 00 00	 jmp	 $LN127@ServerComm
$LN78@ServerComm:
; File C:\Anka2Project\Anka2Project\Source\Binary\source\eterBase\Singleton.h

; 26   : 		assert(ms_singleton);

  00e37	8b 0d 00 00 00
	00		 mov	 ecx, DWORD PTR ?ms_singleton@?$CSingleton@VCEffectManager@@@@0PAVCEffectManager@@A ; CSingleton<CEffectManager>::ms_singleton
  00e3d	85 c9		 test	 ecx, ecx
  00e3f	75 1a		 jne	 SHORT $LN1244@ServerComm
  00e41	6a 1a		 push	 26			; 0000001aH
  00e43	68 00 00 00 00	 push	 OFFSET ??_C@_1IO@CAJLEEOI@?$AAC?$AA?3?$AA?2?$AAA?$AAn?$AAk?$AAa?$AA2?$AAP?$AAr?$AAo?$AAj?$AAe?$AAc?$AAt@
  00e48	68 00 00 00 00	 push	 OFFSET ??_C@_1BK@FMEHPMFE@?$AAm?$AAs?$AA_?$AAs?$AAi?$AAn?$AAg?$AAl?$AAe?$AAt?$AAo?$AAn@
  00e4d	e8 00 00 00 00	 call	 __wassert
  00e52	8b 0d 00 00 00
	00		 mov	 ecx, DWORD PTR ?ms_singleton@?$CSingleton@VCEffectManager@@@@0PAVCEffectManager@@A ; CSingleton<CEffectManager>::ms_singleton
  00e58	83 c4 0c	 add	 esp, 12			; 0000000cH
$LN1244@ServerComm:
; File C:\Anka2Project\Anka2Project\Source\Binary\source\UserInterface\PythonNetworkStreamCommand.cpp

; 450  : 				CEffectManager::Instance().RegisterEffect("d:/ymir work/effect/etc/compass/appear_small.mse");

  00e5b	6a 00		 push	 0
  00e5d	6a 00		 push	 0
  00e5f	6a 00		 push	 0
  00e61	68 00 00 00 00	 push	 OFFSET ??_C@_0DB@KDMGCNFI@d?3?1ymir?5work?1effect?1etc?1compass@
  00e66	e8 00 00 00 00	 call	 ?RegisterEffect@CEffectManager@@QAEHPBD_N10@Z ; CEffectManager::RegisterEffect
; File C:\Anka2Project\Anka2Project\Source\Binary\source\eterBase\Singleton.h

; 26   : 		assert(ms_singleton);

  00e6b	8b 0d 00 00 00
	00		 mov	 ecx, DWORD PTR ?ms_singleton@?$CSingleton@VCEffectManager@@@@0PAVCEffectManager@@A ; CSingleton<CEffectManager>::ms_singleton
  00e71	85 c9		 test	 ecx, ecx
  00e73	75 1a		 jne	 SHORT $LN1238@ServerComm
  00e75	6a 1a		 push	 26			; 0000001aH
  00e77	68 00 00 00 00	 push	 OFFSET ??_C@_1IO@CAJLEEOI@?$AAC?$AA?3?$AA?2?$AAA?$AAn?$AAk?$AAa?$AA2?$AAP?$AAr?$AAo?$AAj?$AAe?$AAc?$AAt@
  00e7c	68 00 00 00 00	 push	 OFFSET ??_C@_1BK@FMEHPMFE@?$AAm?$AAs?$AA_?$AAs?$AAi?$AAn?$AAg?$AAl?$AAe?$AAt?$AAo?$AAn@
  00e81	e8 00 00 00 00	 call	 __wassert
  00e86	8b 0d 00 00 00
	00		 mov	 ecx, DWORD PTR ?ms_singleton@?$CSingleton@VCEffectManager@@@@0PAVCEffectManager@@A ; CSingleton<CEffectManager>::ms_singleton
  00e8c	83 c4 0c	 add	 esp, 12			; 0000000cH
$LN1238@ServerComm:
; File C:\Anka2Project\Anka2Project\Source\Binary\source\UserInterface\PythonNetworkStreamCommand.cpp

; 451  : 				CEffectManager::Instance().CreateEffect("d:/ymir work/effect/etc/compass/appear_small.mse", PixelPosition, v3Rotation);

  00e8f	8d 45 c8	 lea	 eax, DWORD PTR _v3Rotation$470[ebp]
  00e92	50		 push	 eax
  00e93	8d 45 e0	 lea	 eax, DWORD PTR _PixelPosition$472[ebp]
  00e96	50		 push	 eax
  00e97	68 00 00 00 00	 push	 OFFSET ??_C@_0DB@KDMGCNFI@d?3?1ymir?5work?1effect?1etc?1compass@
  00e9c	e8 00 00 00 00	 call	 ?CreateEffect@CEffectManager@@QAEHPBDABUD3DXVECTOR3@@1@Z ; CEffectManager::CreateEffect

; 452  : 				break;

  00ea1	e9 59 11 00 00	 jmp	 $LN127@ServerComm
$LN79@ServerComm:
; File C:\Anka2Project\Anka2Project\Source\Binary\source\eterBase\Singleton.h

; 26   : 		assert(ms_singleton);

  00ea6	8b 0d 00 00 00
	00		 mov	 ecx, DWORD PTR ?ms_singleton@?$CSingleton@VCEffectManager@@@@0PAVCEffectManager@@A ; CSingleton<CEffectManager>::ms_singleton
  00eac	85 c9		 test	 ecx, ecx
  00eae	75 1a		 jne	 SHORT $LN1241@ServerComm
  00eb0	6a 1a		 push	 26			; 0000001aH
  00eb2	68 00 00 00 00	 push	 OFFSET ??_C@_1IO@CAJLEEOI@?$AAC?$AA?3?$AA?2?$AAA?$AAn?$AAk?$AAa?$AA2?$AAP?$AAr?$AAo?$AAj?$AAe?$AAc?$AAt@
  00eb7	68 00 00 00 00	 push	 OFFSET ??_C@_1BK@FMEHPMFE@?$AAm?$AAs?$AA_?$AAs?$AAi?$AAn?$AAg?$AAl?$AAe?$AAt?$AAo?$AAn@
  00ebc	e8 00 00 00 00	 call	 __wassert
  00ec1	8b 0d 00 00 00
	00		 mov	 ecx, DWORD PTR ?ms_singleton@?$CSingleton@VCEffectManager@@@@0PAVCEffectManager@@A ; CSingleton<CEffectManager>::ms_singleton
  00ec7	83 c4 0c	 add	 esp, 12			; 0000000cH
$LN1241@ServerComm:
; File C:\Anka2Project\Anka2Project\Source\Binary\source\UserInterface\PythonNetworkStreamCommand.cpp

; 454  : 				CEffectManager::Instance().RegisterEffect("d:/ymir work/effect/etc/compass/appear_middle.mse");

  00eca	6a 00		 push	 0
  00ecc	6a 00		 push	 0
  00ece	6a 00		 push	 0
  00ed0	68 00 00 00 00	 push	 OFFSET ??_C@_0DC@MDCBLGBM@d?3?1ymir?5work?1effect?1etc?1compass@
  00ed5	e8 00 00 00 00	 call	 ?RegisterEffect@CEffectManager@@QAEHPBD_N10@Z ; CEffectManager::RegisterEffect
; File C:\Anka2Project\Anka2Project\Source\Binary\source\eterBase\Singleton.h

; 26   : 		assert(ms_singleton);

  00eda	8b 0d 00 00 00
	00		 mov	 ecx, DWORD PTR ?ms_singleton@?$CSingleton@VCEffectManager@@@@0PAVCEffectManager@@A ; CSingleton<CEffectManager>::ms_singleton
  00ee0	85 c9		 test	 ecx, ecx
  00ee2	75 1a		 jne	 SHORT $LN1235@ServerComm
  00ee4	6a 1a		 push	 26			; 0000001aH
  00ee6	68 00 00 00 00	 push	 OFFSET ??_C@_1IO@CAJLEEOI@?$AAC?$AA?3?$AA?2?$AAA?$AAn?$AAk?$AAa?$AA2?$AAP?$AAr?$AAo?$AAj?$AAe?$AAc?$AAt@
  00eeb	68 00 00 00 00	 push	 OFFSET ??_C@_1BK@FMEHPMFE@?$AAm?$AAs?$AA_?$AAs?$AAi?$AAn?$AAg?$AAl?$AAe?$AAt?$AAo?$AAn@
  00ef0	e8 00 00 00 00	 call	 __wassert
  00ef5	8b 0d 00 00 00
	00		 mov	 ecx, DWORD PTR ?ms_singleton@?$CSingleton@VCEffectManager@@@@0PAVCEffectManager@@A ; CSingleton<CEffectManager>::ms_singleton
  00efb	83 c4 0c	 add	 esp, 12			; 0000000cH
$LN1235@ServerComm:
; File C:\Anka2Project\Anka2Project\Source\Binary\source\UserInterface\PythonNetworkStreamCommand.cpp

; 455  : 				CEffectManager::Instance().CreateEffect("d:/ymir work/effect/etc/compass/appear_middle.mse", PixelPosition, v3Rotation);

  00efe	8d 45 c8	 lea	 eax, DWORD PTR _v3Rotation$470[ebp]
  00f01	50		 push	 eax
  00f02	8d 45 e0	 lea	 eax, DWORD PTR _PixelPosition$472[ebp]
  00f05	50		 push	 eax
  00f06	68 00 00 00 00	 push	 OFFSET ??_C@_0DC@MDCBLGBM@d?3?1ymir?5work?1effect?1etc?1compass@
  00f0b	e8 00 00 00 00	 call	 ?CreateEffect@CEffectManager@@QAEHPBDABUD3DXVECTOR3@@1@Z ; CEffectManager::CreateEffect

; 456  : 				break;

  00f10	e9 ea 10 00 00	 jmp	 $LN127@ServerComm
$LN80@ServerComm:
; File C:\Anka2Project\Anka2Project\Source\Binary\source\eterBase\Singleton.h

; 26   : 		assert(ms_singleton);

  00f15	8b 0d 00 00 00
	00		 mov	 ecx, DWORD PTR ?ms_singleton@?$CSingleton@VCEffectManager@@@@0PAVCEffectManager@@A ; CSingleton<CEffectManager>::ms_singleton
  00f1b	85 c9		 test	 ecx, ecx
  00f1d	75 1a		 jne	 SHORT $LN1232@ServerComm
  00f1f	6a 1a		 push	 26			; 0000001aH
  00f21	68 00 00 00 00	 push	 OFFSET ??_C@_1IO@CAJLEEOI@?$AAC?$AA?3?$AA?2?$AAA?$AAn?$AAk?$AAa?$AA2?$AAP?$AAr?$AAo?$AAj?$AAe?$AAc?$AAt@
  00f26	68 00 00 00 00	 push	 OFFSET ??_C@_1BK@FMEHPMFE@?$AAm?$AAs?$AA_?$AAs?$AAi?$AAn?$AAg?$AAl?$AAe?$AAt?$AAo?$AAn@
  00f2b	e8 00 00 00 00	 call	 __wassert
  00f30	8b 0d 00 00 00
	00		 mov	 ecx, DWORD PTR ?ms_singleton@?$CSingleton@VCEffectManager@@@@0PAVCEffectManager@@A ; CSingleton<CEffectManager>::ms_singleton
  00f36	83 c4 0c	 add	 esp, 12			; 0000000cH
$LN1232@ServerComm:
; File C:\Anka2Project\Anka2Project\Source\Binary\source\UserInterface\PythonNetworkStreamCommand.cpp

; 458  : 				CEffectManager::Instance().RegisterEffect("d:/ymir work/effect/etc/compass/appear_large.mse");

  00f39	6a 00		 push	 0
  00f3b	6a 00		 push	 0
  00f3d	6a 00		 push	 0
  00f3f	68 00 00 00 00	 push	 OFFSET ??_C@_0DB@EEGLDHND@d?3?1ymir?5work?1effect?1etc?1compass@
  00f44	e8 00 00 00 00	 call	 ?RegisterEffect@CEffectManager@@QAEHPBD_N10@Z ; CEffectManager::RegisterEffect
; File C:\Anka2Project\Anka2Project\Source\Binary\source\eterBase\Singleton.h

; 26   : 		assert(ms_singleton);

  00f49	8b 0d 00 00 00
	00		 mov	 ecx, DWORD PTR ?ms_singleton@?$CSingleton@VCEffectManager@@@@0PAVCEffectManager@@A ; CSingleton<CEffectManager>::ms_singleton
  00f4f	85 c9		 test	 ecx, ecx
  00f51	75 1a		 jne	 SHORT $LN1229@ServerComm
  00f53	6a 1a		 push	 26			; 0000001aH
  00f55	68 00 00 00 00	 push	 OFFSET ??_C@_1IO@CAJLEEOI@?$AAC?$AA?3?$AA?2?$AAA?$AAn?$AAk?$AAa?$AA2?$AAP?$AAr?$AAo?$AAj?$AAe?$AAc?$AAt@
  00f5a	68 00 00 00 00	 push	 OFFSET ??_C@_1BK@FMEHPMFE@?$AAm?$AAs?$AA_?$AAs?$AAi?$AAn?$AAg?$AAl?$AAe?$AAt?$AAo?$AAn@
  00f5f	e8 00 00 00 00	 call	 __wassert
  00f64	8b 0d 00 00 00
	00		 mov	 ecx, DWORD PTR ?ms_singleton@?$CSingleton@VCEffectManager@@@@0PAVCEffectManager@@A ; CSingleton<CEffectManager>::ms_singleton
  00f6a	83 c4 0c	 add	 esp, 12			; 0000000cH
$LN1229@ServerComm:
; File C:\Anka2Project\Anka2Project\Source\Binary\source\UserInterface\PythonNetworkStreamCommand.cpp

; 459  : 				CEffectManager::Instance().CreateEffect("d:/ymir work/effect/etc/compass/appear_large.mse", PixelPosition, v3Rotation);

  00f6d	8d 45 c8	 lea	 eax, DWORD PTR _v3Rotation$470[ebp]
  00f70	50		 push	 eax
  00f71	8d 45 e0	 lea	 eax, DWORD PTR _PixelPosition$472[ebp]
  00f74	50		 push	 eax
  00f75	68 00 00 00 00	 push	 OFFSET ??_C@_0DB@EEGLDHND@d?3?1ymir?5work?1effect?1etc?1compass@
  00f7a	e8 00 00 00 00	 call	 ?CreateEffect@CEffectManager@@QAEHPBDABUD3DXVECTOR3@@1@Z ; CEffectManager::CreateEffect

; 460  : 				break;

  00f7f	e9 7b 10 00 00	 jmp	 $LN127@ServerComm
$LN81@ServerComm:

; 461  : 			default:
; 462  : 				TraceError("CPythonNetworkStream::ServerCommand(c_szCommand=%s) - Strange Distance", c_szCommand);

  00f84	ff 75 ac	 push	 DWORD PTR _c_szCommand$GSCopy$1$[ebp]
  00f87	68 00 00 00 00	 push	 OFFSET ??_C@_0EH@NKAADCPI@CPythonNetworkStream?3?3ServerCom@
  00f8c	e8 00 00 00 00	 call	 ?TraceError@@YAXPBDZZ	; TraceError
  00f91	83 c4 08	 add	 esp, 8

; 463  : 				break;
; 464  : 		}
; 465  : 
; 466  : #ifdef _DEBUG
; 467  : 		IAbstractChat& rkChat=IAbstractChat::GetSingleton();
; 468  : 		rkChat.AppendChat(CHAT_TYPE_INFO, c_szCommand);
; 469  : #endif
; 470  : 	}

  00f94	e9 66 10 00 00	 jmp	 $LN127@ServerComm
$LN73@ServerComm:

; 471  : 	else if (!strcmpi(szCmd, "StartStaminaConsume"))

  00f99	68 00 00 00 00	 push	 OFFSET ??_C@_0BE@FMEJBOHN@StartStaminaConsume@
  00f9e	56		 push	 esi
  00f9f	e8 00 00 00 00	 call	 __strcmpi
  00fa4	83 c4 08	 add	 esp, 8
  00fa7	85 c0		 test	 eax, eax
  00fa9	75 73		 jne	 SHORT $LN82@ServerComm

; 472  : 	{
; 473  : 		if (3 != TokenVector.size())

  00fab	8b 45 c0	 mov	 eax, DWORD PTR _TokenVector$[ebp+4]
  00fae	8b 4d bc	 mov	 ecx, DWORD PTR _TokenVector$[ebp]
  00fb1	2b c1		 sub	 eax, ecx
  00fb3	83 e8 48	 sub	 eax, 72			; 00000048H
  00fb6	83 f8 18	 cmp	 eax, 24			; 00000018H
  00fb9	0f 83 c6 06 00
	00		 jae	 $LN3210@ServerComm
; File C:\Program Files\Microsoft Visual Studio\2022\Community\VC\Tools\MSVC\14.44.35207\include\xstring

; 453  :         return _Myres > _Small_string_capacity;

  00fbf	83 79 2c 0f	 cmp	 DWORD PTR [ecx+44], 15	; 0000000fH
; File C:\Program Files\Microsoft Visual Studio\2022\Community\VC\Tools\MSVC\14.44.35207\include\vector

; 1934 :         return _My_data._Myfirst[_Pos];

  00fc3	8d 41 18	 lea	 eax, DWORD PTR [ecx+24]
; File C:\Program Files\Microsoft Visual Studio\2022\Community\VC\Tools\MSVC\14.44.35207\include\xstring

; 445  :         if (_Large_mode_engaged()) {

  00fc6	76 02		 jbe	 SHORT $LN872@ServerComm

; 446  :             _Result = _Unfancy(_Bx._Ptr);

  00fc8	8b 00		 mov	 eax, DWORD PTR [eax]
$LN872@ServerComm:
; File C:\Anka2Project\Anka2Project\Source\Binary\source\UserInterface\PythonNetworkStreamCommand.cpp

; 479  : 		DWORD dwConsumePerSec = atoi(TokenVector[1].c_str());

  00fca	50		 push	 eax
  00fcb	e8 00 00 00 00	 call	 __atoi64
; File C:\Program Files\Microsoft Visual Studio\2022\Community\VC\Tools\MSVC\14.44.35207\include\vector

; 1934 :         return _My_data._Myfirst[_Pos];

  00fd0	8b 4d bc	 mov	 ecx, DWORD PTR _TokenVector$[ebp]
; File C:\Anka2Project\Anka2Project\Source\Binary\source\UserInterface\PythonNetworkStreamCommand.cpp

; 479  : 		DWORD dwConsumePerSec = atoi(TokenVector[1].c_str());

  00fd3	83 c4 04	 add	 esp, 4
; File C:\Program Files\Microsoft Visual Studio\2022\Community\VC\Tools\MSVC\14.44.35207\include\vector

; 1934 :         return _My_data._Myfirst[_Pos];

  00fd6	83 c1 30	 add	 ecx, 48			; 00000030H
; File C:\Anka2Project\Anka2Project\Source\Binary\source\UserInterface\PythonNetworkStreamCommand.cpp

; 479  : 		DWORD dwConsumePerSec = atoi(TokenVector[1].c_str());

  00fd9	8b f8		 mov	 edi, eax
; File C:\Program Files\Microsoft Visual Studio\2022\Community\VC\Tools\MSVC\14.44.35207\include\xstring

; 453  :         return _Myres > _Small_string_capacity;

  00fdb	83 79 14 0f	 cmp	 DWORD PTR [ecx+20], 15	; 0000000fH

; 445  :         if (_Large_mode_engaged()) {

  00fdf	76 02		 jbe	 SHORT $LN885@ServerComm

; 446  :             _Result = _Unfancy(_Bx._Ptr);

  00fe1	8b 09		 mov	 ecx, DWORD PTR [ecx]
$LN885@ServerComm:
; File C:\Anka2Project\Anka2Project\Source\Binary\source\UserInterface\PythonNetworkStreamCommand.cpp

; 480  : 		DWORD dwCurrentStamina = atoi(TokenVector[2].c_str());

  00fe3	51		 push	 ecx
  00fe4	e8 00 00 00 00	 call	 __atoi64
; File C:\Anka2Project\Anka2Project\Source\Binary\source\UserInterface\AbstractSingleton.h

; 24   : 		assert(ms_singleton!=nullptr);

  00fe9	8b 0d 00 00 00
	00		 mov	 ecx, DWORD PTR ?ms_singleton@?$TAbstractSingleton@VIAbstractPlayer@@@@0PAVIAbstractPlayer@@A ; TAbstractSingleton<IAbstractPlayer>::ms_singleton
; File C:\Anka2Project\Anka2Project\Source\Binary\source\UserInterface\PythonNetworkStreamCommand.cpp

; 480  : 		DWORD dwCurrentStamina = atoi(TokenVector[2].c_str());

  00fef	83 c4 04	 add	 esp, 4
  00ff2	8b f0		 mov	 esi, eax
; File C:\Anka2Project\Anka2Project\Source\Binary\source\UserInterface\AbstractSingleton.h

; 24   : 		assert(ms_singleton!=nullptr);

  00ff4	85 c9		 test	 ecx, ecx
  00ff6	75 1a		 jne	 SHORT $LN893@ServerComm
  00ff8	6a 18		 push	 24			; 00000018H
  00ffa	68 00 00 00 00	 push	 OFFSET ??_C@_1KI@FIPHLMOB@?$AAC?$AA?3?$AA?2?$AAA?$AAn?$AAk?$AAa?$AA2?$AAP?$AAr?$AAo?$AAj?$AAe?$AAc?$AAt@
  00fff	68 00 00 00 00	 push	 OFFSET ??_C@_1CM@FPMBEAEA@?$AAm?$AAs?$AA_?$AAs?$AAi?$AAn?$AAg?$AAl?$AAe?$AAt?$AAo?$AAn?$AA?$CB?$AA?$DN?$AAn@
  01004	e8 00 00 00 00	 call	 __wassert
  01009	8b 0d 00 00 00
	00		 mov	 ecx, DWORD PTR ?ms_singleton@?$TAbstractSingleton@VIAbstractPlayer@@@@0PAVIAbstractPlayer@@A ; TAbstractSingleton<IAbstractPlayer>::ms_singleton
  0100f	83 c4 0c	 add	 esp, 12			; 0000000cH
$LN893@ServerComm:
; File C:\Anka2Project\Anka2Project\Source\Binary\source\UserInterface\PythonNetworkStreamCommand.cpp

; 483  : 		rPlayer.StartStaminaConsume(dwConsumePerSec, dwCurrentStamina);

  01012	8b 01		 mov	 eax, DWORD PTR [ecx]
  01014	56		 push	 esi
  01015	57		 push	 edi
  01016	ff 50 20	 call	 DWORD PTR [eax+32]

; 484  : 	}

  01019	e9 e1 0f 00 00	 jmp	 $LN127@ServerComm
$LN82@ServerComm:

; 485  : 	
; 486  : 	else if (!strcmpi(szCmd, "StopStaminaConsume"))

  0101e	68 00 00 00 00	 push	 OFFSET ??_C@_0BD@IEDOLMCO@StopStaminaConsume@
  01023	56		 push	 esi
  01024	e8 00 00 00 00	 call	 __strcmpi
  01029	83 c4 08	 add	 esp, 8
  0102c	85 c0		 test	 eax, eax
  0102e	75 6c		 jne	 SHORT $LN85@ServerComm
; File C:\Program Files\Microsoft Visual Studio\2022\Community\VC\Tools\MSVC\14.44.35207\include\vector

; 1915 :         return static_cast<size_type>(_My_data._Mylast - _My_data._Myfirst);

  01030	8b 4d c0	 mov	 ecx, DWORD PTR _TokenVector$[ebp+4]
  01033	8b 55 bc	 mov	 edx, DWORD PTR _TokenVector$[ebp]
  01036	2b ca		 sub	 ecx, edx
; File C:\Anka2Project\Anka2Project\Source\Binary\source\UserInterface\PythonNetworkStreamCommand.cpp

; 488  : 		if (2 != TokenVector.size())

  01038	8d 41 d0	 lea	 eax, DWORD PTR [ecx-48]
  0103b	83 f8 18	 cmp	 eax, 24			; 00000018H
  0103e	72 17		 jb	 SHORT $LN87@ServerComm

; 489  : 		{
; 490  : 			TraceError("CPythonNetworkStream::ServerCommand(c_szCommand=%s) - Strange Parameter Count : %d", c_szCommand, TokenVector.size());

  01040	b8 ab aa aa 2a	 mov	 eax, 715827883		; 2aaaaaabH
  01045	f7 e9		 imul	 ecx
  01047	c1 fa 02	 sar	 edx, 2
  0104a	8b c2		 mov	 eax, edx
  0104c	c1 e8 1f	 shr	 eax, 31			; 0000001fH
  0104f	03 c2		 add	 eax, edx
  01051	50		 push	 eax
  01052	e9 a7 f4 ff ff	 jmp	 $LN3237@ServerComm
$LN87@ServerComm:
; File C:\Program Files\Microsoft Visual Studio\2022\Community\VC\Tools\MSVC\14.44.35207\include\xstring

; 453  :         return _Myres > _Small_string_capacity;

  01057	83 7a 2c 0f	 cmp	 DWORD PTR [edx+44], 15	; 0000000fH
; File C:\Program Files\Microsoft Visual Studio\2022\Community\VC\Tools\MSVC\14.44.35207\include\vector

; 1934 :         return _My_data._Myfirst[_Pos];

  0105b	8d 42 18	 lea	 eax, DWORD PTR [edx+24]
; File C:\Program Files\Microsoft Visual Studio\2022\Community\VC\Tools\MSVC\14.44.35207\include\xstring

; 445  :         if (_Large_mode_engaged()) {

  0105e	76 02		 jbe	 SHORT $LN993@ServerComm

; 446  :             _Result = _Unfancy(_Bx._Ptr);

  01060	8b 00		 mov	 eax, DWORD PTR [eax]
$LN993@ServerComm:
; File C:\Anka2Project\Anka2Project\Source\Binary\source\UserInterface\PythonNetworkStreamCommand.cpp

; 494  : 		DWORD dwCurrentStamina = atoi(TokenVector[1].c_str());

  01062	50		 push	 eax
  01063	e8 00 00 00 00	 call	 __atoi64
; File C:\Anka2Project\Anka2Project\Source\Binary\source\UserInterface\AbstractSingleton.h

; 24   : 		assert(ms_singleton!=nullptr);

  01068	8b 0d 00 00 00
	00		 mov	 ecx, DWORD PTR ?ms_singleton@?$TAbstractSingleton@VIAbstractPlayer@@@@0PAVIAbstractPlayer@@A ; TAbstractSingleton<IAbstractPlayer>::ms_singleton
; File C:\Anka2Project\Anka2Project\Source\Binary\source\UserInterface\PythonNetworkStreamCommand.cpp

; 494  : 		DWORD dwCurrentStamina = atoi(TokenVector[1].c_str());

  0106e	83 c4 04	 add	 esp, 4
  01071	8b f0		 mov	 esi, eax
; File C:\Anka2Project\Anka2Project\Source\Binary\source\UserInterface\AbstractSingleton.h

; 24   : 		assert(ms_singleton!=nullptr);

  01073	85 c9		 test	 ecx, ecx
  01075	75 1a		 jne	 SHORT $LN988@ServerComm
  01077	6a 18		 push	 24			; 00000018H
  01079	68 00 00 00 00	 push	 OFFSET ??_C@_1KI@FIPHLMOB@?$AAC?$AA?3?$AA?2?$AAA?$AAn?$AAk?$AAa?$AA2?$AAP?$AAr?$AAo?$AAj?$AAe?$AAc?$AAt@
  0107e	68 00 00 00 00	 push	 OFFSET ??_C@_1CM@FPMBEAEA@?$AAm?$AAs?$AA_?$AAs?$AAi?$AAn?$AAg?$AAl?$AAe?$AAt?$AAo?$AAn?$AA?$CB?$AA?$DN?$AAn@
  01083	e8 00 00 00 00	 call	 __wassert
  01088	8b 0d 00 00 00
	00		 mov	 ecx, DWORD PTR ?ms_singleton@?$TAbstractSingleton@VIAbstractPlayer@@@@0PAVIAbstractPlayer@@A ; TAbstractSingleton<IAbstractPlayer>::ms_singleton
  0108e	83 c4 0c	 add	 esp, 12			; 0000000cH
$LN988@ServerComm:
; File C:\Anka2Project\Anka2Project\Source\Binary\source\UserInterface\PythonNetworkStreamCommand.cpp

; 497  : 		rPlayer.StopStaminaConsume(dwCurrentStamina);

  01091	8b 01		 mov	 eax, DWORD PTR [ecx]
  01093	56		 push	 esi
  01094	ff 50 24	 call	 DWORD PTR [eax+36]

; 498  : 	}

  01097	e9 63 0f 00 00	 jmp	 $LN127@ServerComm
$LN85@ServerComm:

; 499  : 	else if (!strcmpi(szCmd, "messenger_auth"))

  0109c	68 00 00 00 00	 push	 OFFSET ??_C@_0P@EGMHBKG@messenger_auth@
  010a1	56		 push	 esi
  010a2	e8 00 00 00 00	 call	 __strcmpi
  010a7	83 c4 08	 add	 esp, 8
  010aa	85 c0		 test	 eax, eax
  010ac	75 78		 jne	 SHORT $LN88@ServerComm
; File C:\Program Files\Microsoft Visual Studio\2022\Community\VC\Tools\MSVC\14.44.35207\include\vector

; 1934 :         return _My_data._Myfirst[_Pos];

  010ae	8b 55 bc	 mov	 edx, DWORD PTR _TokenVector$[ebp]
  010b1	83 c2 18	 add	 edx, 24			; 00000018H
; File C:\Program Files\Microsoft Visual Studio\2022\Community\VC\Tools\MSVC\14.44.35207\include\xstring

; 453  :         return _Myres > _Small_string_capacity;

  010b4	83 7a 14 0f	 cmp	 DWORD PTR [edx+20], 15	; 0000000fH

; 445  :         if (_Large_mode_engaged()) {

  010b8	76 02		 jbe	 SHORT $LN977@ServerComm

; 446  :             _Result = _Unfancy(_Bx._Ptr);

  010ba	8b 12		 mov	 edx, DWORD PTR [edx]
$LN977@ServerComm:
; File C:\Program Files\Microsoft Visual Studio\2022\Community\VC\Tools\MSVC\14.44.35207\include\__msvc_string_view.hpp

; 456  :             return __builtin_strlen(_First);

  010bc	8b ca		 mov	 ecx, edx
; File C:\Program Files\Microsoft Visual Studio\2022\Community\VC\Tools\MSVC\14.44.35207\include\xstring

; 517  :     size_type _Mysize = 0; // current length of string (size)

  010be	c7 45 e4 00 00
	00 00		 mov	 DWORD PTR _$S12$471[ebp+16], 0
  010c5	0f 57 c0	 xorps	 xmm0, xmm0

; 518  :     size_type _Myres  = 0; // current storage reserved for string (capacity)

  010c8	c7 45 e8 00 00
	00 00		 mov	 DWORD PTR _$S12$471[ebp+20], 0

; 493  :         _CONSTEXPR20 _Bxty() noexcept : _Buf() {} // user-provided, for fancy pointers

  010cf	0f 11 45 d4	 movups	 XMMWORD PTR _$S12$471[ebp], xmm0
; File C:\Program Files\Microsoft Visual Studio\2022\Community\VC\Tools\MSVC\14.44.35207\include\__msvc_string_view.hpp

; 456  :             return __builtin_strlen(_First);

  010d3	8d 71 01	 lea	 esi, DWORD PTR [ecx+1]
$LL3227@ServerComm:
  010d6	8a 01		 mov	 al, BYTE PTR [ecx]
  010d8	41		 inc	 ecx
  010d9	84 c0		 test	 al, al
  010db	75 f9		 jne	 SHORT $LL3227@ServerComm
  010dd	2b ce		 sub	 ecx, esi
; File C:\Program Files\Microsoft Visual Studio\2022\Community\VC\Tools\MSVC\14.44.35207\include\xstring

; 769  :         _Construct<_Construct_strategy::_From_ptr>(_Ptr, _Convert_size<size_type>(_Traits::length(_Ptr)));

  010df	51		 push	 ecx
  010e0	52		 push	 edx
  010e1	8d 4d d4	 lea	 ecx, DWORD PTR _$S12$471[ebp]
  010e4	e8 00 00 00 00	 call	 ??$_Construct@$00PBD@?$basic_string@DU?$char_traits@D@std@@V?$allocator@D@2@@std@@AAEXQBDI@Z ; std::basic_string<char,std::char_traits<char>,std::allocator<char> >::_Construct<1,char const *>
; File C:\Anka2Project\Anka2Project\Source\Binary\source\UserInterface\PythonNetworkStreamCommand.cpp

; 501  : 		const std::string & c_rstrName = TokenVector[1].c_str();

  010e9	c6 45 fc 01	 mov	 BYTE PTR __$EHRec$[ebp+8], 1
; File C:\Program Files\Microsoft Visual Studio\2022\Community\VC\Tools\MSVC\14.44.35207\include\xstring

; 444  :         const value_type* _Result = _Bx._Buf;

  010ed	8d 45 d4	 lea	 eax, DWORD PTR _$S12$471[ebp]

; 453  :         return _Myres > _Small_string_capacity;

  010f0	83 7d e8 0f	 cmp	 DWORD PTR _$S12$471[ebp+20], 15 ; 0000000fH

; 445  :         if (_Large_mode_engaged()) {

  010f4	0f 47 45 d4	 cmova	 eax, DWORD PTR _$S12$471[ebp]
; File C:\Anka2Project\Anka2Project\Source\Binary\source\UserInterface\PythonNetworkStreamCommand.cpp

; 502  : 		PyCallClassMemberFunc(m_apoPhaseWnd[PHASE_WINDOW_GAME], "OnMessengerAddFriendQuestion", Py_BuildValue("(s)", c_rstrName.c_str()));

  010f8	50		 push	 eax
  010f9	a1 00 00 00 00	 mov	 eax, DWORD PTR __imp__Py_BuildValue
  010fe	68 00 00 00 00	 push	 OFFSET ??_C@_03KJMMOONA@?$CIs?$CJ@
  01103	ff d0		 call	 eax
  01105	50		 push	 eax
  01106	68 00 00 00 00	 push	 OFFSET ??_C@_0BN@HFJFNDOJ@OnMessengerAddFriendQuestion@
  0110b	ff b7 98 01 00
	00		 push	 DWORD PTR [edi+408]
  01111	e8 00 00 00 00	 call	 ?PyCallClassMemberFunc@@YA_NPAU_object@@PBD0@Z ; PyCallClassMemberFunc
  01116	83 c4 14	 add	 esp, 20			; 00000014H
; File C:\Program Files\Microsoft Visual Studio\2022\Community\VC\Tools\MSVC\14.44.35207\include\xstring

; 1383 :         _Tidy_deallocate();

  01119	8d 4d d4	 lea	 ecx, DWORD PTR _$S12$471[ebp]
  0111c	e8 00 00 00 00	 call	 ?_Tidy_deallocate@?$basic_string@DU?$char_traits@D@std@@V?$allocator@D@2@@std@@AAEXXZ ; std::basic_string<char,std::char_traits<char>,std::allocator<char> >::_Tidy_deallocate
; File C:\Anka2Project\Anka2Project\Source\Binary\source\UserInterface\PythonNetworkStreamCommand.cpp

; 503  : 	}

  01121	e9 d9 0e 00 00	 jmp	 $LN127@ServerComm
$LN88@ServerComm:

; 504  : 	else if (!strcmpi(szCmd, "combo"))

  01126	68 00 00 00 00	 push	 OFFSET ??_C@_05LLEFIEMM@combo@
  0112b	56		 push	 esi
  0112c	e8 00 00 00 00	 call	 __strcmpi
  01131	83 c4 08	 add	 esp, 8
  01134	85 c0		 test	 eax, eax
  01136	75 56		 jne	 SHORT $LN90@ServerComm
; File C:\Program Files\Microsoft Visual Studio\2022\Community\VC\Tools\MSVC\14.44.35207\include\vector

; 1934 :         return _My_data._Myfirst[_Pos];

  01138	8b 45 bc	 mov	 eax, DWORD PTR _TokenVector$[ebp]
  0113b	83 c0 18	 add	 eax, 24			; 00000018H
; File C:\Program Files\Microsoft Visual Studio\2022\Community\VC\Tools\MSVC\14.44.35207\include\xstring

; 453  :         return _Myres > _Small_string_capacity;

  0113e	83 78 14 0f	 cmp	 DWORD PTR [eax+20], 15	; 0000000fH

; 445  :         if (_Large_mode_engaged()) {

  01142	76 02		 jbe	 SHORT $LN1169@ServerComm

; 446  :             _Result = _Unfancy(_Bx._Ptr);

  01144	8b 00		 mov	 eax, DWORD PTR [eax]
$LN1169@ServerComm:
; File C:\Anka2Project\Anka2Project\Source\Binary\source\UserInterface\PythonNetworkStreamCommand.cpp

; 506  : 		int iFlag = atoi(TokenVector[1].c_str());

  01146	50		 push	 eax
  01147	e8 00 00 00 00	 call	 __atoi64
; File C:\Anka2Project\Anka2Project\Source\Binary\source\UserInterface\AbstractSingleton.h

; 24   : 		assert(ms_singleton!=nullptr);

  0114c	8b 0d 00 00 00
	00		 mov	 ecx, DWORD PTR ?ms_singleton@?$TAbstractSingleton@VIAbstractPlayer@@@@0PAVIAbstractPlayer@@A ; TAbstractSingleton<IAbstractPlayer>::ms_singleton
; File C:\Anka2Project\Anka2Project\Source\Binary\source\UserInterface\PythonNetworkStreamCommand.cpp

; 506  : 		int iFlag = atoi(TokenVector[1].c_str());

  01152	83 c4 04	 add	 esp, 4
  01155	8b f0		 mov	 esi, eax
; File C:\Anka2Project\Anka2Project\Source\Binary\source\UserInterface\AbstractSingleton.h

; 24   : 		assert(ms_singleton!=nullptr);

  01157	85 c9		 test	 ecx, ecx
  01159	75 1a		 jne	 SHORT $LN1177@ServerComm
  0115b	6a 18		 push	 24			; 00000018H
  0115d	68 00 00 00 00	 push	 OFFSET ??_C@_1KI@FIPHLMOB@?$AAC?$AA?3?$AA?2?$AAA?$AAn?$AAk?$AAa?$AA2?$AAP?$AAr?$AAo?$AAj?$AAe?$AAc?$AAt@
  01162	68 00 00 00 00	 push	 OFFSET ??_C@_1CM@FPMBEAEA@?$AAm?$AAs?$AA_?$AAs?$AAi?$AAn?$AAg?$AAl?$AAe?$AAt?$AAo?$AAn?$AA?$CB?$AA?$DN?$AAn@
  01167	e8 00 00 00 00	 call	 __wassert
  0116c	8b 0d 00 00 00
	00		 mov	 ecx, DWORD PTR ?ms_singleton@?$TAbstractSingleton@VIAbstractPlayer@@@@0PAVIAbstractPlayer@@A ; TAbstractSingleton<IAbstractPlayer>::ms_singleton
  01172	83 c4 0c	 add	 esp, 12			; 0000000cH
$LN1177@ServerComm:
; File C:\Anka2Project\Anka2Project\Source\Binary\source\UserInterface\PythonNetworkStreamCommand.cpp

; 508  : 		rPlayer.SetComboSkillFlag(iFlag);

  01175	8b 01		 mov	 eax, DWORD PTR [ecx]
  01177	56		 push	 esi
  01178	ff 90 80 00 00
	00		 call	 DWORD PTR [eax+128]

; 509  : 		m_bComboSkillFlag = iFlag ? true : false;

  0117e	85 f6		 test	 esi, esi
  01180	0f 95 c0	 setne	 al
  01183	88 87 3d 7a 00
	00		 mov	 BYTE PTR [edi+31293], al

; 510  : 	}

  01189	e9 71 0e 00 00	 jmp	 $LN127@ServerComm
$LN90@ServerComm:

; 511  : 	else if (!strcmpi(szCmd, "setblockmode"))

  0118e	68 00 00 00 00	 push	 OFFSET ??_C@_0N@OCOPIGOC@setblockmode@
  01193	56		 push	 esi
  01194	e8 00 00 00 00	 call	 __strcmpi
  01199	83 c4 08	 add	 esp, 8
  0119c	85 c0		 test	 eax, eax
  0119e	75 3d		 jne	 SHORT $LN92@ServerComm
; File C:\Program Files\Microsoft Visual Studio\2022\Community\VC\Tools\MSVC\14.44.35207\include\vector

; 1934 :         return _My_data._Myfirst[_Pos];

  011a0	8b 45 bc	 mov	 eax, DWORD PTR _TokenVector$[ebp]
  011a3	83 c0 18	 add	 eax, 24			; 00000018H
; File C:\Program Files\Microsoft Visual Studio\2022\Community\VC\Tools\MSVC\14.44.35207\include\xstring

; 453  :         return _Myres > _Small_string_capacity;

  011a6	83 78 14 0f	 cmp	 DWORD PTR [eax+20], 15	; 0000000fH

; 445  :         if (_Large_mode_engaged()) {

  011aa	76 02		 jbe	 SHORT $LN1221@ServerComm

; 446  :             _Result = _Unfancy(_Bx._Ptr);

  011ac	8b 00		 mov	 eax, DWORD PTR [eax]
$LN1221@ServerComm:
; File C:\Anka2Project\Anka2Project\Source\Binary\source\UserInterface\PythonNetworkStreamCommand.cpp

; 513  : 		int iFlag = atoi(TokenVector[1].c_str());

  011ae	50		 push	 eax
  011af	e8 00 00 00 00	 call	 __atoi64
  011b4	83 c4 04	 add	 esp, 4

; 514  : 		PyCallClassMemberFunc(m_apoPhaseWnd[PHASE_WINDOW_GAME], "OnBlockMode", Py_BuildValue("(i)", iFlag));

  011b7	50		 push	 eax
  011b8	a1 00 00 00 00	 mov	 eax, DWORD PTR __imp__Py_BuildValue
  011bd	68 00 00 00 00	 push	 OFFSET ??_C@_03LIHNMIHG@?$CIi?$CJ@
  011c2	ff d0		 call	 eax
  011c4	50		 push	 eax
  011c5	68 00 00 00 00	 push	 OFFSET ??_C@_0M@KBLDJFEH@OnBlockMode@
  011ca	ff b7 98 01 00
	00		 push	 DWORD PTR [edi+408]
  011d0	e8 00 00 00 00	 call	 ?PyCallClassMemberFunc@@YA_NPAU_object@@PBD0@Z ; PyCallClassMemberFunc
  011d5	83 c4 14	 add	 esp, 20			; 00000014H

; 515  : 	}

  011d8	e9 22 0e 00 00	 jmp	 $LN127@ServerComm
$LN92@ServerComm:

; 516  : 	else if (!strcmpi(szCmd, "french_kiss"))

  011dd	68 00 00 00 00	 push	 OFFSET ??_C@_0M@KHOIJDFJ@french_kiss@
  011e2	56		 push	 esi
  011e3	e8 00 00 00 00	 call	 __strcmpi
  011e8	83 c4 08	 add	 esp, 8
  011eb	85 c0		 test	 eax, eax
  011ed	0f 85 96 00 00
	00		 jne	 $LN94@ServerComm
; File C:\Program Files\Microsoft Visual Studio\2022\Community\VC\Tools\MSVC\14.44.35207\include\vector

; 1934 :         return _My_data._Myfirst[_Pos];

  011f3	8b 45 bc	 mov	 eax, DWORD PTR _TokenVector$[ebp]
  011f6	83 c0 18	 add	 eax, 24			; 00000018H
; File C:\Program Files\Microsoft Visual Studio\2022\Community\VC\Tools\MSVC\14.44.35207\include\xstring

; 453  :         return _Myres > _Small_string_capacity;

  011f9	83 78 14 0f	 cmp	 DWORD PTR [eax+20], 15	; 0000000fH

; 445  :         if (_Large_mode_engaged()) {

  011fd	76 02		 jbe	 SHORT $LN1255@ServerComm

; 446  :             _Result = _Unfancy(_Bx._Ptr);

  011ff	8b 00		 mov	 eax, DWORD PTR [eax]
$LN1255@ServerComm:
; File C:\Anka2Project\Anka2Project\Source\Binary\source\UserInterface\PythonNetworkStreamCommand.cpp

; 518  : 		int iVID1 = atoi(TokenVector[1].c_str());

  01201	50		 push	 eax
  01202	e8 00 00 00 00	 call	 __atoi64
; File C:\Program Files\Microsoft Visual Studio\2022\Community\VC\Tools\MSVC\14.44.35207\include\vector

; 1934 :         return _My_data._Myfirst[_Pos];

  01207	8b 4d bc	 mov	 ecx, DWORD PTR _TokenVector$[ebp]
; File C:\Anka2Project\Anka2Project\Source\Binary\source\UserInterface\PythonNetworkStreamCommand.cpp

; 518  : 		int iVID1 = atoi(TokenVector[1].c_str());

  0120a	83 c4 04	 add	 esp, 4
; File C:\Program Files\Microsoft Visual Studio\2022\Community\VC\Tools\MSVC\14.44.35207\include\vector

; 1934 :         return _My_data._Myfirst[_Pos];

  0120d	83 c1 30	 add	 ecx, 48			; 00000030H
; File C:\Anka2Project\Anka2Project\Source\Binary\source\UserInterface\PythonNetworkStreamCommand.cpp

; 518  : 		int iVID1 = atoi(TokenVector[1].c_str());

  01210	8b f8		 mov	 edi, eax
; File C:\Program Files\Microsoft Visual Studio\2022\Community\VC\Tools\MSVC\14.44.35207\include\xstring

; 453  :         return _Myres > _Small_string_capacity;

  01212	83 79 14 0f	 cmp	 DWORD PTR [ecx+20], 15	; 0000000fH

; 445  :         if (_Large_mode_engaged()) {

  01216	76 02		 jbe	 SHORT $LN1268@ServerComm

; 446  :             _Result = _Unfancy(_Bx._Ptr);

  01218	8b 09		 mov	 ecx, DWORD PTR [ecx]
$LN1268@ServerComm:
; File C:\Anka2Project\Anka2Project\Source\Binary\source\UserInterface\PythonNetworkStreamCommand.cpp

; 519  : 		int iVID2 = atoi(TokenVector[2].c_str());

  0121a	51		 push	 ecx
  0121b	e8 00 00 00 00	 call	 __atoi64
; File C:\Anka2Project\Anka2Project\Source\Binary\source\UserInterface\AbstractSingleton.h

; 24   : 		assert(ms_singleton!=nullptr);

  01220	8b 35 00 00 00
	00		 mov	 esi, DWORD PTR ?ms_singleton@?$TAbstractSingleton@VIAbstractCharacterManager@@@@0PAVIAbstractCharacterManager@@A ; TAbstractSingleton<IAbstractCharacterManager>::ms_singleton
; File C:\Anka2Project\Anka2Project\Source\Binary\source\UserInterface\PythonNetworkStreamCommand.cpp

; 519  : 		int iVID2 = atoi(TokenVector[2].c_str());

  01226	83 c4 04	 add	 esp, 4
  01229	89 45 b4	 mov	 DWORD PTR _iVID2$1$[ebp], eax
; File C:\Anka2Project\Anka2Project\Source\Binary\source\UserInterface\AbstractSingleton.h

; 24   : 		assert(ms_singleton!=nullptr);

  0122c	85 f6		 test	 esi, esi
  0122e	75 1a		 jne	 SHORT $LN1276@ServerComm
  01230	6a 18		 push	 24			; 00000018H
  01232	68 00 00 00 00	 push	 OFFSET ??_C@_1KI@FIPHLMOB@?$AAC?$AA?3?$AA?2?$AAA?$AAn?$AAk?$AAa?$AA2?$AAP?$AAr?$AAo?$AAj?$AAe?$AAc?$AAt@
  01237	68 00 00 00 00	 push	 OFFSET ??_C@_1CM@FPMBEAEA@?$AAm?$AAs?$AA_?$AAs?$AAi?$AAn?$AAg?$AAl?$AAe?$AAt?$AAo?$AAn?$AA?$CB?$AA?$DN?$AAn@
  0123c	e8 00 00 00 00	 call	 __wassert
  01241	8b 35 00 00 00
	00		 mov	 esi, DWORD PTR ?ms_singleton@?$TAbstractSingleton@VIAbstractCharacterManager@@@@0PAVIAbstractCharacterManager@@A ; TAbstractSingleton<IAbstractCharacterManager>::ms_singleton
  01247	83 c4 0c	 add	 esp, 12			; 0000000cH
$LN1276@ServerComm:
; File C:\Anka2Project\Anka2Project\Source\Binary\source\UserInterface\PythonNetworkStreamCommand.cpp

; 522  : 		CInstanceBase * pInstance1 = rkChrMgr.GetInstancePtr(iVID1);

  0124a	8b 06		 mov	 eax, DWORD PTR [esi]
  0124c	8b ce		 mov	 ecx, esi
  0124e	57		 push	 edi
  0124f	8b 40 08	 mov	 eax, DWORD PTR [eax+8]
  01252	ff d0		 call	 eax

; 523  : 		CInstanceBase * pInstance2 = rkChrMgr.GetInstancePtr(iVID2);

  01254	8b 16		 mov	 edx, DWORD PTR [esi]
  01256	8b ce		 mov	 ecx, esi
  01258	ff 75 b4	 push	 DWORD PTR _iVID2$1$[ebp]
  0125b	8b f8		 mov	 edi, eax
  0125d	8b 52 08	 mov	 edx, DWORD PTR [edx+8]
  01260	ff d2		 call	 edx

; 524  : 		if (pInstance1 && pInstance2)

  01262	85 ff		 test	 edi, edi
  01264	0f 84 95 0d 00
	00		 je	 $LN127@ServerComm
  0126a	85 c0		 test	 eax, eax
  0126c	0f 84 8d 0d 00
	00		 je	 $LN127@ServerComm

; 525  : 			pInstance1->ActDualEmotion(*pInstance2, CRaceMotionData::NAME_FRENCH_KISS_START, CRaceMotionData::NAME_FRENCH_KISS_START);

  01272	68 39 01 00 00	 push	 313			; 00000139H
  01277	68 39 01 00 00	 push	 313			; 00000139H
  0127c	50		 push	 eax
  0127d	8b cf		 mov	 ecx, edi
  0127f	e8 00 00 00 00	 call	 ?ActDualEmotion@CInstanceBase@@QAEXAAV1@GG@Z ; CInstanceBase::ActDualEmotion

; 526  : 	}

  01284	e9 76 0d 00 00	 jmp	 $LN127@ServerComm
$LN94@ServerComm:

; 527  : 	else if (!strcmpi(szCmd, "kiss"))

  01289	68 00 00 00 00	 push	 OFFSET ??_C@_04MDLEAKAL@kiss@
  0128e	56		 push	 esi
  0128f	e8 00 00 00 00	 call	 __strcmpi
  01294	83 c4 08	 add	 esp, 8
  01297	85 c0		 test	 eax, eax
  01299	0f 85 96 00 00
	00		 jne	 $LN97@ServerComm
; File C:\Program Files\Microsoft Visual Studio\2022\Community\VC\Tools\MSVC\14.44.35207\include\vector

; 1934 :         return _My_data._Myfirst[_Pos];

  0129f	8b 45 bc	 mov	 eax, DWORD PTR _TokenVector$[ebp]
  012a2	83 c0 18	 add	 eax, 24			; 00000018H
; File C:\Program Files\Microsoft Visual Studio\2022\Community\VC\Tools\MSVC\14.44.35207\include\xstring

; 453  :         return _Myres > _Small_string_capacity;

  012a5	83 78 14 0f	 cmp	 DWORD PTR [eax+20], 15	; 0000000fH

; 445  :         if (_Large_mode_engaged()) {

  012a9	76 02		 jbe	 SHORT $LN1287@ServerComm

; 446  :             _Result = _Unfancy(_Bx._Ptr);

  012ab	8b 00		 mov	 eax, DWORD PTR [eax]
$LN1287@ServerComm:
; File C:\Anka2Project\Anka2Project\Source\Binary\source\UserInterface\PythonNetworkStreamCommand.cpp

; 529  : 		int iVID1 = atoi(TokenVector[1].c_str());

  012ad	50		 push	 eax
  012ae	e8 00 00 00 00	 call	 __atoi64
; File C:\Program Files\Microsoft Visual Studio\2022\Community\VC\Tools\MSVC\14.44.35207\include\vector

; 1934 :         return _My_data._Myfirst[_Pos];

  012b3	8b 4d bc	 mov	 ecx, DWORD PTR _TokenVector$[ebp]
; File C:\Anka2Project\Anka2Project\Source\Binary\source\UserInterface\PythonNetworkStreamCommand.cpp

; 529  : 		int iVID1 = atoi(TokenVector[1].c_str());

  012b6	83 c4 04	 add	 esp, 4
; File C:\Program Files\Microsoft Visual Studio\2022\Community\VC\Tools\MSVC\14.44.35207\include\vector

; 1934 :         return _My_data._Myfirst[_Pos];

  012b9	83 c1 30	 add	 ecx, 48			; 00000030H
; File C:\Anka2Project\Anka2Project\Source\Binary\source\UserInterface\PythonNetworkStreamCommand.cpp

; 529  : 		int iVID1 = atoi(TokenVector[1].c_str());

  012bc	8b f8		 mov	 edi, eax
; File C:\Program Files\Microsoft Visual Studio\2022\Community\VC\Tools\MSVC\14.44.35207\include\xstring

; 453  :         return _Myres > _Small_string_capacity;

  012be	83 79 14 0f	 cmp	 DWORD PTR [ecx+20], 15	; 0000000fH

; 445  :         if (_Large_mode_engaged()) {

  012c2	76 02		 jbe	 SHORT $LN1300@ServerComm

; 446  :             _Result = _Unfancy(_Bx._Ptr);

  012c4	8b 09		 mov	 ecx, DWORD PTR [ecx]
$LN1300@ServerComm:
; File C:\Anka2Project\Anka2Project\Source\Binary\source\UserInterface\PythonNetworkStreamCommand.cpp

; 530  : 		int iVID2 = atoi(TokenVector[2].c_str());

  012c6	51		 push	 ecx
  012c7	e8 00 00 00 00	 call	 __atoi64
; File C:\Anka2Project\Anka2Project\Source\Binary\source\UserInterface\AbstractSingleton.h

; 24   : 		assert(ms_singleton!=nullptr);

  012cc	8b 35 00 00 00
	00		 mov	 esi, DWORD PTR ?ms_singleton@?$TAbstractSingleton@VIAbstractCharacterManager@@@@0PAVIAbstractCharacterManager@@A ; TAbstractSingleton<IAbstractCharacterManager>::ms_singleton
; File C:\Anka2Project\Anka2Project\Source\Binary\source\UserInterface\PythonNetworkStreamCommand.cpp

; 530  : 		int iVID2 = atoi(TokenVector[2].c_str());

  012d2	83 c4 04	 add	 esp, 4
  012d5	89 45 b4	 mov	 DWORD PTR _iVID2$1$[ebp], eax
; File C:\Anka2Project\Anka2Project\Source\Binary\source\UserInterface\AbstractSingleton.h

; 24   : 		assert(ms_singleton!=nullptr);

  012d8	85 f6		 test	 esi, esi
  012da	75 1a		 jne	 SHORT $LN1308@ServerComm
  012dc	6a 18		 push	 24			; 00000018H
  012de	68 00 00 00 00	 push	 OFFSET ??_C@_1KI@FIPHLMOB@?$AAC?$AA?3?$AA?2?$AAA?$AAn?$AAk?$AAa?$AA2?$AAP?$AAr?$AAo?$AAj?$AAe?$AAc?$AAt@
  012e3	68 00 00 00 00	 push	 OFFSET ??_C@_1CM@FPMBEAEA@?$AAm?$AAs?$AA_?$AAs?$AAi?$AAn?$AAg?$AAl?$AAe?$AAt?$AAo?$AAn?$AA?$CB?$AA?$DN?$AAn@
  012e8	e8 00 00 00 00	 call	 __wassert
  012ed	8b 35 00 00 00
	00		 mov	 esi, DWORD PTR ?ms_singleton@?$TAbstractSingleton@VIAbstractCharacterManager@@@@0PAVIAbstractCharacterManager@@A ; TAbstractSingleton<IAbstractCharacterManager>::ms_singleton
  012f3	83 c4 0c	 add	 esp, 12			; 0000000cH
$LN1308@ServerComm:
; File C:\Anka2Project\Anka2Project\Source\Binary\source\UserInterface\PythonNetworkStreamCommand.cpp

; 533  : 		CInstanceBase * pInstance1 = rkChrMgr.GetInstancePtr(iVID1);

  012f6	8b 06		 mov	 eax, DWORD PTR [esi]
  012f8	8b ce		 mov	 ecx, esi
  012fa	57		 push	 edi
  012fb	8b 40 08	 mov	 eax, DWORD PTR [eax+8]
  012fe	ff d0		 call	 eax

; 534  : 		CInstanceBase * pInstance2 = rkChrMgr.GetInstancePtr(iVID2);

  01300	8b 16		 mov	 edx, DWORD PTR [esi]
  01302	8b ce		 mov	 ecx, esi
  01304	ff 75 b4	 push	 DWORD PTR _iVID2$1$[ebp]
  01307	8b f8		 mov	 edi, eax
  01309	8b 52 08	 mov	 edx, DWORD PTR [edx+8]
  0130c	ff d2		 call	 edx

; 535  : 		if (pInstance1 && pInstance2)

  0130e	85 ff		 test	 edi, edi
  01310	0f 84 e9 0c 00
	00		 je	 $LN127@ServerComm
  01316	85 c0		 test	 eax, eax
  01318	0f 84 e1 0c 00
	00		 je	 $LN127@ServerComm

; 536  : 			pInstance1->ActDualEmotion(*pInstance2, CRaceMotionData::NAME_KISS_START, CRaceMotionData::NAME_KISS_START);

  0131e	68 35 01 00 00	 push	 309			; 00000135H
  01323	68 35 01 00 00	 push	 309			; 00000135H
  01328	50		 push	 eax
  01329	8b cf		 mov	 ecx, edi
  0132b	e8 00 00 00 00	 call	 ?ActDualEmotion@CInstanceBase@@QAEXAAV1@GG@Z ; CInstanceBase::ActDualEmotion

; 537  : 	}

  01330	e9 ca 0c 00 00	 jmp	 $LN127@ServerComm
$LN97@ServerComm:

; 538  : 	else if (!strcmpi(szCmd, "slap"))

  01335	68 00 00 00 00	 push	 OFFSET ??_C@_04JAHFACKH@slap@
  0133a	56		 push	 esi
  0133b	e8 00 00 00 00	 call	 __strcmpi
  01340	83 c4 08	 add	 esp, 8
  01343	85 c0		 test	 eax, eax
  01345	0f 85 96 00 00
	00		 jne	 $LN100@ServerComm
; File C:\Program Files\Microsoft Visual Studio\2022\Community\VC\Tools\MSVC\14.44.35207\include\vector

; 1934 :         return _My_data._Myfirst[_Pos];

  0134b	8b 45 bc	 mov	 eax, DWORD PTR _TokenVector$[ebp]
  0134e	83 c0 18	 add	 eax, 24			; 00000018H
; File C:\Program Files\Microsoft Visual Studio\2022\Community\VC\Tools\MSVC\14.44.35207\include\xstring

; 453  :         return _Myres > _Small_string_capacity;

  01351	83 78 14 0f	 cmp	 DWORD PTR [eax+20], 15	; 0000000fH

; 445  :         if (_Large_mode_engaged()) {

  01355	76 02		 jbe	 SHORT $LN1329@ServerComm

; 446  :             _Result = _Unfancy(_Bx._Ptr);

  01357	8b 00		 mov	 eax, DWORD PTR [eax]
$LN1329@ServerComm:
; File C:\Anka2Project\Anka2Project\Source\Binary\source\UserInterface\PythonNetworkStreamCommand.cpp

; 540  : 		int iVID1 = atoi(TokenVector[1].c_str());

  01359	50		 push	 eax
  0135a	e8 00 00 00 00	 call	 __atoi64
; File C:\Program Files\Microsoft Visual Studio\2022\Community\VC\Tools\MSVC\14.44.35207\include\vector

; 1934 :         return _My_data._Myfirst[_Pos];

  0135f	8b 4d bc	 mov	 ecx, DWORD PTR _TokenVector$[ebp]
; File C:\Anka2Project\Anka2Project\Source\Binary\source\UserInterface\PythonNetworkStreamCommand.cpp

; 540  : 		int iVID1 = atoi(TokenVector[1].c_str());

  01362	83 c4 04	 add	 esp, 4
; File C:\Program Files\Microsoft Visual Studio\2022\Community\VC\Tools\MSVC\14.44.35207\include\vector

; 1934 :         return _My_data._Myfirst[_Pos];

  01365	83 c1 30	 add	 ecx, 48			; 00000030H
; File C:\Anka2Project\Anka2Project\Source\Binary\source\UserInterface\PythonNetworkStreamCommand.cpp

; 540  : 		int iVID1 = atoi(TokenVector[1].c_str());

  01368	8b f8		 mov	 edi, eax
; File C:\Program Files\Microsoft Visual Studio\2022\Community\VC\Tools\MSVC\14.44.35207\include\xstring

; 453  :         return _Myres > _Small_string_capacity;

  0136a	83 79 14 0f	 cmp	 DWORD PTR [ecx+20], 15	; 0000000fH

; 445  :         if (_Large_mode_engaged()) {

  0136e	76 02		 jbe	 SHORT $LN1313@ServerComm

; 446  :             _Result = _Unfancy(_Bx._Ptr);

  01370	8b 09		 mov	 ecx, DWORD PTR [ecx]
$LN1313@ServerComm:
; File C:\Anka2Project\Anka2Project\Source\Binary\source\UserInterface\PythonNetworkStreamCommand.cpp

; 541  : 		int iVID2 = atoi(TokenVector[2].c_str());

  01372	51		 push	 ecx
  01373	e8 00 00 00 00	 call	 __atoi64
; File C:\Anka2Project\Anka2Project\Source\Binary\source\UserInterface\AbstractSingleton.h

; 24   : 		assert(ms_singleton!=nullptr);

  01378	8b 35 00 00 00
	00		 mov	 esi, DWORD PTR ?ms_singleton@?$TAbstractSingleton@VIAbstractCharacterManager@@@@0PAVIAbstractCharacterManager@@A ; TAbstractSingleton<IAbstractCharacterManager>::ms_singleton
; File C:\Anka2Project\Anka2Project\Source\Binary\source\UserInterface\PythonNetworkStreamCommand.cpp

; 541  : 		int iVID2 = atoi(TokenVector[2].c_str());

  0137e	83 c4 04	 add	 esp, 4
  01381	89 45 b4	 mov	 DWORD PTR _iVID2$1$[ebp], eax
; File C:\Anka2Project\Anka2Project\Source\Binary\source\UserInterface\AbstractSingleton.h

; 24   : 		assert(ms_singleton!=nullptr);

  01384	85 f6		 test	 esi, esi
  01386	75 1a		 jne	 SHORT $LN1321@ServerComm
  01388	6a 18		 push	 24			; 00000018H
  0138a	68 00 00 00 00	 push	 OFFSET ??_C@_1KI@FIPHLMOB@?$AAC?$AA?3?$AA?2?$AAA?$AAn?$AAk?$AAa?$AA2?$AAP?$AAr?$AAo?$AAj?$AAe?$AAc?$AAt@
  0138f	68 00 00 00 00	 push	 OFFSET ??_C@_1CM@FPMBEAEA@?$AAm?$AAs?$AA_?$AAs?$AAi?$AAn?$AAg?$AAl?$AAe?$AAt?$AAo?$AAn?$AA?$CB?$AA?$DN?$AAn@
  01394	e8 00 00 00 00	 call	 __wassert
  01399	8b 35 00 00 00
	00		 mov	 esi, DWORD PTR ?ms_singleton@?$TAbstractSingleton@VIAbstractCharacterManager@@@@0PAVIAbstractCharacterManager@@A ; TAbstractSingleton<IAbstractCharacterManager>::ms_singleton
  0139f	83 c4 0c	 add	 esp, 12			; 0000000cH
$LN1321@ServerComm:
; File C:\Anka2Project\Anka2Project\Source\Binary\source\UserInterface\PythonNetworkStreamCommand.cpp

; 544  : 		CInstanceBase * pInstance1 = rkChrMgr.GetInstancePtr(iVID1);

  013a2	8b 06		 mov	 eax, DWORD PTR [esi]
  013a4	8b ce		 mov	 ecx, esi
  013a6	57		 push	 edi
  013a7	8b 40 08	 mov	 eax, DWORD PTR [eax+8]
  013aa	ff d0		 call	 eax

; 545  : 		CInstanceBase * pInstance2 = rkChrMgr.GetInstancePtr(iVID2);

  013ac	8b 16		 mov	 edx, DWORD PTR [esi]
  013ae	8b ce		 mov	 ecx, esi
  013b0	ff 75 b4	 push	 DWORD PTR _iVID2$1$[ebp]
  013b3	8b f8		 mov	 edi, eax
  013b5	8b 52 08	 mov	 edx, DWORD PTR [edx+8]
  013b8	ff d2		 call	 edx

; 546  : 		if (pInstance1 && pInstance2)

  013ba	85 ff		 test	 edi, edi
  013bc	0f 84 3d 0c 00
	00		 je	 $LN127@ServerComm
  013c2	85 c0		 test	 eax, eax
  013c4	0f 84 35 0c 00
	00		 je	 $LN127@ServerComm

; 547  : 			pInstance1->ActDualEmotion(*pInstance2, CRaceMotionData::NAME_SLAP_HURT_START, CRaceMotionData::NAME_SLAP_HIT_START);

  013ca	68 3d 01 00 00	 push	 317			; 0000013dH
  013cf	68 41 01 00 00	 push	 321			; 00000141H
  013d4	50		 push	 eax
  013d5	8b cf		 mov	 ecx, edi
  013d7	e8 00 00 00 00	 call	 ?ActDualEmotion@CInstanceBase@@QAEXAAV1@GG@Z ; CInstanceBase::ActDualEmotion

; 548  : 	}

  013dc	e9 1e 0c 00 00	 jmp	 $LN127@ServerComm
$LN100@ServerComm:

; 549  : 	else if (!strcmpi(szCmd, "clap"))

  013e1	68 00 00 00 00	 push	 OFFSET ??_C@_04PAJFJFCF@clap@
  013e6	56		 push	 esi
  013e7	e8 00 00 00 00	 call	 __strcmpi
  013ec	83 c4 08	 add	 esp, 8
  013ef	85 c0		 test	 eax, eax
  013f1	75 57		 jne	 SHORT $LN103@ServerComm
; File C:\Program Files\Microsoft Visual Studio\2022\Community\VC\Tools\MSVC\14.44.35207\include\vector

; 1934 :         return _My_data._Myfirst[_Pos];

  013f3	8b 45 bc	 mov	 eax, DWORD PTR _TokenVector$[ebp]
  013f6	83 c0 18	 add	 eax, 24			; 00000018H
; File C:\Program Files\Microsoft Visual Studio\2022\Community\VC\Tools\MSVC\14.44.35207\include\xstring

; 453  :         return _Myres > _Small_string_capacity;

  013f9	83 78 14 0f	 cmp	 DWORD PTR [eax+20], 15	; 0000000fH

; 445  :         if (_Large_mode_engaged()) {

  013fd	76 02		 jbe	 SHORT $LN1348@ServerComm

; 446  :             _Result = _Unfancy(_Bx._Ptr);

  013ff	8b 00		 mov	 eax, DWORD PTR [eax]
$LN1348@ServerComm:
; File C:\Anka2Project\Anka2Project\Source\Binary\source\UserInterface\PythonNetworkStreamCommand.cpp

; 551  : 		int iVID = atoi(TokenVector[1].c_str());

  01401	50		 push	 eax
  01402	e8 00 00 00 00	 call	 __atoi64
; File C:\Anka2Project\Anka2Project\Source\Binary\source\UserInterface\AbstractSingleton.h

; 24   : 		assert(ms_singleton!=nullptr);

  01407	8b 0d 00 00 00
	00		 mov	 ecx, DWORD PTR ?ms_singleton@?$TAbstractSingleton@VIAbstractCharacterManager@@@@0PAVIAbstractCharacterManager@@A ; TAbstractSingleton<IAbstractCharacterManager>::ms_singleton
; File C:\Anka2Project\Anka2Project\Source\Binary\source\UserInterface\PythonNetworkStreamCommand.cpp

; 551  : 		int iVID = atoi(TokenVector[1].c_str());

  0140d	83 c4 04	 add	 esp, 4
  01410	8b f0		 mov	 esi, eax
; File C:\Anka2Project\Anka2Project\Source\Binary\source\UserInterface\AbstractSingleton.h

; 24   : 		assert(ms_singleton!=nullptr);

  01412	85 c9		 test	 ecx, ecx
  01414	75 1a		 jne	 SHORT $LN1340@ServerComm
  01416	6a 18		 push	 24			; 00000018H
  01418	68 00 00 00 00	 push	 OFFSET ??_C@_1KI@FIPHLMOB@?$AAC?$AA?3?$AA?2?$AAA?$AAn?$AAk?$AAa?$AA2?$AAP?$AAr?$AAo?$AAj?$AAe?$AAc?$AAt@
  0141d	68 00 00 00 00	 push	 OFFSET ??_C@_1CM@FPMBEAEA@?$AAm?$AAs?$AA_?$AAs?$AAi?$AAn?$AAg?$AAl?$AAe?$AAt?$AAo?$AAn?$AA?$CB?$AA?$DN?$AAn@
  01422	e8 00 00 00 00	 call	 __wassert
  01427	8b 0d 00 00 00
	00		 mov	 ecx, DWORD PTR ?ms_singleton@?$TAbstractSingleton@VIAbstractCharacterManager@@@@0PAVIAbstractCharacterManager@@A ; TAbstractSingleton<IAbstractCharacterManager>::ms_singleton
  0142d	83 c4 0c	 add	 esp, 12			; 0000000cH
$LN1340@ServerComm:
; File C:\Anka2Project\Anka2Project\Source\Binary\source\UserInterface\PythonNetworkStreamCommand.cpp

; 553  : 		CInstanceBase * pInstance = rkChrMgr.GetInstancePtr(iVID);

  01430	8b 01		 mov	 eax, DWORD PTR [ecx]
  01432	56		 push	 esi
  01433	8b 40 08	 mov	 eax, DWORD PTR [eax+8]
  01436	ff d0		 call	 eax

; 554  : 		if (pInstance)

  01438	85 c0		 test	 eax, eax
  0143a	0f 84 bf 0b 00
	00		 je	 $LN127@ServerComm

; 555  : 			pInstance->ActEmotion(CRaceMotionData::NAME_CLAP);

  01440	68 32 01 00 00	 push	 306			; 00000132H

; 556  : 	}

  01445	e9 ae 0b 00 00	 jmp	 $LN3236@ServerComm
$LN103@ServerComm:

; 557  : 	else if (!strcmpi(szCmd, "cheer1"))

  0144a	68 00 00 00 00	 push	 OFFSET ??_C@_06PAGILPEO@cheer1@
  0144f	56		 push	 esi
  01450	e8 00 00 00 00	 call	 __strcmpi
  01455	83 c4 08	 add	 esp, 8
  01458	85 c0		 test	 eax, eax
  0145a	75 57		 jne	 SHORT $LN106@ServerComm
; File C:\Program Files\Microsoft Visual Studio\2022\Community\VC\Tools\MSVC\14.44.35207\include\vector

; 1934 :         return _My_data._Myfirst[_Pos];

  0145c	8b 45 bc	 mov	 eax, DWORD PTR _TokenVector$[ebp]
  0145f	83 c0 18	 add	 eax, 24			; 00000018H
; File C:\Program Files\Microsoft Visual Studio\2022\Community\VC\Tools\MSVC\14.44.35207\include\xstring

; 453  :         return _Myres > _Small_string_capacity;

  01462	83 78 14 0f	 cmp	 DWORD PTR [eax+20], 15	; 0000000fH

; 445  :         if (_Large_mode_engaged()) {

  01466	76 02		 jbe	 SHORT $LN1361@ServerComm

; 446  :             _Result = _Unfancy(_Bx._Ptr);

  01468	8b 00		 mov	 eax, DWORD PTR [eax]
$LN1361@ServerComm:
; File C:\Anka2Project\Anka2Project\Source\Binary\source\UserInterface\PythonNetworkStreamCommand.cpp

; 559  : 		int iVID = atoi(TokenVector[1].c_str());

  0146a	50		 push	 eax
  0146b	e8 00 00 00 00	 call	 __atoi64
; File C:\Anka2Project\Anka2Project\Source\Binary\source\UserInterface\AbstractSingleton.h

; 24   : 		assert(ms_singleton!=nullptr);

  01470	8b 0d 00 00 00
	00		 mov	 ecx, DWORD PTR ?ms_singleton@?$TAbstractSingleton@VIAbstractCharacterManager@@@@0PAVIAbstractCharacterManager@@A ; TAbstractSingleton<IAbstractCharacterManager>::ms_singleton
; File C:\Anka2Project\Anka2Project\Source\Binary\source\UserInterface\PythonNetworkStreamCommand.cpp

; 559  : 		int iVID = atoi(TokenVector[1].c_str());

  01476	83 c4 04	 add	 esp, 4
  01479	8b f0		 mov	 esi, eax
; File C:\Anka2Project\Anka2Project\Source\Binary\source\UserInterface\AbstractSingleton.h

; 24   : 		assert(ms_singleton!=nullptr);

  0147b	85 c9		 test	 ecx, ecx
  0147d	75 1a		 jne	 SHORT $LN1369@ServerComm
  0147f	6a 18		 push	 24			; 00000018H
  01481	68 00 00 00 00	 push	 OFFSET ??_C@_1KI@FIPHLMOB@?$AAC?$AA?3?$AA?2?$AAA?$AAn?$AAk?$AAa?$AA2?$AAP?$AAr?$AAo?$AAj?$AAe?$AAc?$AAt@
  01486	68 00 00 00 00	 push	 OFFSET ??_C@_1CM@FPMBEAEA@?$AAm?$AAs?$AA_?$AAs?$AAi?$AAn?$AAg?$AAl?$AAe?$AAt?$AAo?$AAn?$AA?$CB?$AA?$DN?$AAn@
  0148b	e8 00 00 00 00	 call	 __wassert
  01490	8b 0d 00 00 00
	00		 mov	 ecx, DWORD PTR ?ms_singleton@?$TAbstractSingleton@VIAbstractCharacterManager@@@@0PAVIAbstractCharacterManager@@A ; TAbstractSingleton<IAbstractCharacterManager>::ms_singleton
  01496	83 c4 0c	 add	 esp, 12			; 0000000cH
$LN1369@ServerComm:
; File C:\Anka2Project\Anka2Project\Source\Binary\source\UserInterface\PythonNetworkStreamCommand.cpp

; 561  : 		CInstanceBase * pInstance = rkChrMgr.GetInstancePtr(iVID);

  01499	8b 01		 mov	 eax, DWORD PTR [ecx]
  0149b	56		 push	 esi
  0149c	8b 40 08	 mov	 eax, DWORD PTR [eax+8]
  0149f	ff d0		 call	 eax

; 562  : 		if (pInstance)

  014a1	85 c0		 test	 eax, eax
  014a3	0f 84 56 0b 00
	00		 je	 $LN127@ServerComm

; 563  : 			pInstance->ActEmotion(CRaceMotionData::NAME_CHEERS_1);

  014a9	68 33 01 00 00	 push	 307			; 00000133H

; 564  : 	}

  014ae	e9 45 0b 00 00	 jmp	 $LN3236@ServerComm
$LN106@ServerComm:

; 565  : 	else if (!strcmpi(szCmd, "cheer2"))

  014b3	68 00 00 00 00	 push	 OFFSET ??_C@_06NLEFOMIN@cheer2@
  014b8	56		 push	 esi
  014b9	e8 00 00 00 00	 call	 __strcmpi
  014be	83 c4 08	 add	 esp, 8
  014c1	85 c0		 test	 eax, eax
  014c3	75 57		 jne	 SHORT $LN109@ServerComm
; File C:\Program Files\Microsoft Visual Studio\2022\Community\VC\Tools\MSVC\14.44.35207\include\vector

; 1934 :         return _My_data._Myfirst[_Pos];

  014c5	8b 45 bc	 mov	 eax, DWORD PTR _TokenVector$[ebp]
  014c8	83 c0 18	 add	 eax, 24			; 00000018H
; File C:\Program Files\Microsoft Visual Studio\2022\Community\VC\Tools\MSVC\14.44.35207\include\xstring

; 453  :         return _Myres > _Small_string_capacity;

  014cb	83 78 14 0f	 cmp	 DWORD PTR [eax+20], 15	; 0000000fH

; 445  :         if (_Large_mode_engaged()) {

  014cf	76 02		 jbe	 SHORT $LN1386@ServerComm

; 446  :             _Result = _Unfancy(_Bx._Ptr);

  014d1	8b 00		 mov	 eax, DWORD PTR [eax]
$LN1386@ServerComm:
; File C:\Anka2Project\Anka2Project\Source\Binary\source\UserInterface\PythonNetworkStreamCommand.cpp

; 567  : 		int iVID = atoi(TokenVector[1].c_str());

  014d3	50		 push	 eax
  014d4	e8 00 00 00 00	 call	 __atoi64
; File C:\Anka2Project\Anka2Project\Source\Binary\source\UserInterface\AbstractSingleton.h

; 24   : 		assert(ms_singleton!=nullptr);

  014d9	8b 0d 00 00 00
	00		 mov	 ecx, DWORD PTR ?ms_singleton@?$TAbstractSingleton@VIAbstractCharacterManager@@@@0PAVIAbstractCharacterManager@@A ; TAbstractSingleton<IAbstractCharacterManager>::ms_singleton
; File C:\Anka2Project\Anka2Project\Source\Binary\source\UserInterface\PythonNetworkStreamCommand.cpp

; 567  : 		int iVID = atoi(TokenVector[1].c_str());

  014df	83 c4 04	 add	 esp, 4
  014e2	8b f0		 mov	 esi, eax
; File C:\Anka2Project\Anka2Project\Source\Binary\source\UserInterface\AbstractSingleton.h

; 24   : 		assert(ms_singleton!=nullptr);

  014e4	85 c9		 test	 ecx, ecx
  014e6	75 1a		 jne	 SHORT $LN1381@ServerComm
  014e8	6a 18		 push	 24			; 00000018H
  014ea	68 00 00 00 00	 push	 OFFSET ??_C@_1KI@FIPHLMOB@?$AAC?$AA?3?$AA?2?$AAA?$AAn?$AAk?$AAa?$AA2?$AAP?$AAr?$AAo?$AAj?$AAe?$AAc?$AAt@
  014ef	68 00 00 00 00	 push	 OFFSET ??_C@_1CM@FPMBEAEA@?$AAm?$AAs?$AA_?$AAs?$AAi?$AAn?$AAg?$AAl?$AAe?$AAt?$AAo?$AAn?$AA?$CB?$AA?$DN?$AAn@
  014f4	e8 00 00 00 00	 call	 __wassert
  014f9	8b 0d 00 00 00
	00		 mov	 ecx, DWORD PTR ?ms_singleton@?$TAbstractSingleton@VIAbstractCharacterManager@@@@0PAVIAbstractCharacterManager@@A ; TAbstractSingleton<IAbstractCharacterManager>::ms_singleton
  014ff	83 c4 0c	 add	 esp, 12			; 0000000cH
$LN1381@ServerComm:
; File C:\Anka2Project\Anka2Project\Source\Binary\source\UserInterface\PythonNetworkStreamCommand.cpp

; 569  : 		CInstanceBase * pInstance = rkChrMgr.GetInstancePtr(iVID);

  01502	8b 01		 mov	 eax, DWORD PTR [ecx]
  01504	56		 push	 esi
  01505	8b 40 08	 mov	 eax, DWORD PTR [eax+8]
  01508	ff d0		 call	 eax

; 570  : 		if (pInstance)

  0150a	85 c0		 test	 eax, eax
  0150c	0f 84 ed 0a 00
	00		 je	 $LN127@ServerComm

; 571  : 			pInstance->ActEmotion(CRaceMotionData::NAME_CHEERS_2);

  01512	68 34 01 00 00	 push	 308			; 00000134H

; 572  : 	}

  01517	e9 dc 0a 00 00	 jmp	 $LN3236@ServerComm
$LN109@ServerComm:

; 573  : 	else if (!strcmpi(szCmd, "dance1"))

  0151c	68 00 00 00 00	 push	 OFFSET ??_C@_06FJBCALDA@dance1@
  01521	56		 push	 esi
  01522	e8 00 00 00 00	 call	 __strcmpi
  01527	83 c4 08	 add	 esp, 8
  0152a	85 c0		 test	 eax, eax
  0152c	75 57		 jne	 SHORT $LN112@ServerComm
; File C:\Program Files\Microsoft Visual Studio\2022\Community\VC\Tools\MSVC\14.44.35207\include\vector

; 1934 :         return _My_data._Myfirst[_Pos];

  0152e	8b 45 bc	 mov	 eax, DWORD PTR _TokenVector$[ebp]
  01531	83 c0 18	 add	 eax, 24			; 00000018H
; File C:\Program Files\Microsoft Visual Studio\2022\Community\VC\Tools\MSVC\14.44.35207\include\xstring

; 453  :         return _Myres > _Small_string_capacity;

  01534	83 78 14 0f	 cmp	 DWORD PTR [eax+20], 15	; 0000000fH

; 445  :         if (_Large_mode_engaged()) {

  01538	76 02		 jbe	 SHORT $LN1396@ServerComm

; 446  :             _Result = _Unfancy(_Bx._Ptr);

  0153a	8b 00		 mov	 eax, DWORD PTR [eax]
$LN1396@ServerComm:
; File C:\Anka2Project\Anka2Project\Source\Binary\source\UserInterface\PythonNetworkStreamCommand.cpp

; 575  : 		int iVID = atoi(TokenVector[1].c_str());

  0153c	50		 push	 eax
  0153d	e8 00 00 00 00	 call	 __atoi64
; File C:\Anka2Project\Anka2Project\Source\Binary\source\UserInterface\AbstractSingleton.h

; 24   : 		assert(ms_singleton!=nullptr);

  01542	8b 0d 00 00 00
	00		 mov	 ecx, DWORD PTR ?ms_singleton@?$TAbstractSingleton@VIAbstractCharacterManager@@@@0PAVIAbstractCharacterManager@@A ; TAbstractSingleton<IAbstractCharacterManager>::ms_singleton
; File C:\Anka2Project\Anka2Project\Source\Binary\source\UserInterface\PythonNetworkStreamCommand.cpp

; 575  : 		int iVID = atoi(TokenVector[1].c_str());

  01548	83 c4 04	 add	 esp, 4
  0154b	8b f0		 mov	 esi, eax
; File C:\Anka2Project\Anka2Project\Source\Binary\source\UserInterface\AbstractSingleton.h

; 24   : 		assert(ms_singleton!=nullptr);

  0154d	85 c9		 test	 ecx, ecx
  0154f	75 1a		 jne	 SHORT $LN1375@ServerComm
  01551	6a 18		 push	 24			; 00000018H
  01553	68 00 00 00 00	 push	 OFFSET ??_C@_1KI@FIPHLMOB@?$AAC?$AA?3?$AA?2?$AAA?$AAn?$AAk?$AAa?$AA2?$AAP?$AAr?$AAo?$AAj?$AAe?$AAc?$AAt@
  01558	68 00 00 00 00	 push	 OFFSET ??_C@_1CM@FPMBEAEA@?$AAm?$AAs?$AA_?$AAs?$AAi?$AAn?$AAg?$AAl?$AAe?$AAt?$AAo?$AAn?$AA?$CB?$AA?$DN?$AAn@
  0155d	e8 00 00 00 00	 call	 __wassert
  01562	8b 0d 00 00 00
	00		 mov	 ecx, DWORD PTR ?ms_singleton@?$TAbstractSingleton@VIAbstractCharacterManager@@@@0PAVIAbstractCharacterManager@@A ; TAbstractSingleton<IAbstractCharacterManager>::ms_singleton
  01568	83 c4 0c	 add	 esp, 12			; 0000000cH
$LN1375@ServerComm:
; File C:\Anka2Project\Anka2Project\Source\Binary\source\UserInterface\PythonNetworkStreamCommand.cpp

; 577  : 		CInstanceBase * pInstance = rkChrMgr.GetInstancePtr(iVID);

  0156b	8b 01		 mov	 eax, DWORD PTR [ecx]
  0156d	56		 push	 esi
  0156e	8b 40 08	 mov	 eax, DWORD PTR [eax+8]
  01571	ff d0		 call	 eax

; 578  : 		if (pInstance)

  01573	85 c0		 test	 eax, eax
  01575	0f 84 84 0a 00
	00		 je	 $LN127@ServerComm

; 579  : 			pInstance->ActEmotion(CRaceMotionData::NAME_DANCE_1);

  0157b	68 46 01 00 00	 push	 326			; 00000146H

; 580  : 	}

  01580	e9 73 0a 00 00	 jmp	 $LN3236@ServerComm
$LN112@ServerComm:

; 581  : 	else if (!strcmpi(szCmd, "dance2"))

  01585	68 00 00 00 00	 push	 OFFSET ??_C@_06HCDPFIPD@dance2@
  0158a	56		 push	 esi
  0158b	e8 00 00 00 00	 call	 __strcmpi
  01590	83 c4 08	 add	 esp, 8
  01593	85 c0		 test	 eax, eax
  01595	75 57		 jne	 SHORT $LN115@ServerComm
; File C:\Program Files\Microsoft Visual Studio\2022\Community\VC\Tools\MSVC\14.44.35207\include\vector

; 1934 :         return _My_data._Myfirst[_Pos];

  01597	8b 45 bc	 mov	 eax, DWORD PTR _TokenVector$[ebp]
  0159a	83 c0 18	 add	 eax, 24			; 00000018H
; File C:\Program Files\Microsoft Visual Studio\2022\Community\VC\Tools\MSVC\14.44.35207\include\xstring

; 453  :         return _Myres > _Small_string_capacity;

  0159d	83 78 14 0f	 cmp	 DWORD PTR [eax+20], 15	; 0000000fH

; 445  :         if (_Large_mode_engaged()) {

  015a1	76 02		 jbe	 SHORT $LN1922@ServerComm

; 446  :             _Result = _Unfancy(_Bx._Ptr);

  015a3	8b 00		 mov	 eax, DWORD PTR [eax]
$LN1922@ServerComm:
; File C:\Anka2Project\Anka2Project\Source\Binary\source\UserInterface\PythonNetworkStreamCommand.cpp

; 583  : 		int iVID = atoi(TokenVector[1].c_str());

  015a5	50		 push	 eax
  015a6	e8 00 00 00 00	 call	 __atoi64
; File C:\Anka2Project\Anka2Project\Source\Binary\source\UserInterface\AbstractSingleton.h

; 24   : 		assert(ms_singleton!=nullptr);

  015ab	8b 0d 00 00 00
	00		 mov	 ecx, DWORD PTR ?ms_singleton@?$TAbstractSingleton@VIAbstractCharacterManager@@@@0PAVIAbstractCharacterManager@@A ; TAbstractSingleton<IAbstractCharacterManager>::ms_singleton
; File C:\Anka2Project\Anka2Project\Source\Binary\source\UserInterface\PythonNetworkStreamCommand.cpp

; 583  : 		int iVID = atoi(TokenVector[1].c_str());

  015b1	83 c4 04	 add	 esp, 4
  015b4	8b f0		 mov	 esi, eax
; File C:\Anka2Project\Anka2Project\Source\Binary\source\UserInterface\AbstractSingleton.h

; 24   : 		assert(ms_singleton!=nullptr);

  015b6	85 c9		 test	 ecx, ecx
  015b8	75 1a		 jne	 SHORT $LN1930@ServerComm
  015ba	6a 18		 push	 24			; 00000018H
  015bc	68 00 00 00 00	 push	 OFFSET ??_C@_1KI@FIPHLMOB@?$AAC?$AA?3?$AA?2?$AAA?$AAn?$AAk?$AAa?$AA2?$AAP?$AAr?$AAo?$AAj?$AAe?$AAc?$AAt@
  015c1	68 00 00 00 00	 push	 OFFSET ??_C@_1CM@FPMBEAEA@?$AAm?$AAs?$AA_?$AAs?$AAi?$AAn?$AAg?$AAl?$AAe?$AAt?$AAo?$AAn?$AA?$CB?$AA?$DN?$AAn@
  015c6	e8 00 00 00 00	 call	 __wassert
  015cb	8b 0d 00 00 00
	00		 mov	 ecx, DWORD PTR ?ms_singleton@?$TAbstractSingleton@VIAbstractCharacterManager@@@@0PAVIAbstractCharacterManager@@A ; TAbstractSingleton<IAbstractCharacterManager>::ms_singleton
  015d1	83 c4 0c	 add	 esp, 12			; 0000000cH
$LN1930@ServerComm:
; File C:\Anka2Project\Anka2Project\Source\Binary\source\UserInterface\PythonNetworkStreamCommand.cpp

; 585  : 		CInstanceBase * pInstance = rkChrMgr.GetInstancePtr(iVID);

  015d4	8b 01		 mov	 eax, DWORD PTR [ecx]
  015d6	56		 push	 esi
  015d7	8b 40 08	 mov	 eax, DWORD PTR [eax+8]
  015da	ff d0		 call	 eax

; 586  : 		if (pInstance)

  015dc	85 c0		 test	 eax, eax
  015de	0f 84 1b 0a 00
	00		 je	 $LN127@ServerComm

; 587  : 			pInstance->ActEmotion(CRaceMotionData::NAME_DANCE_2);

  015e4	68 47 01 00 00	 push	 327			; 00000147H

; 588  : 	}

  015e9	e9 0a 0a 00 00	 jmp	 $LN3236@ServerComm
$LN115@ServerComm:

; 589  : 	else if (!strcmpi(szCmd, "dig_motion"))

  015ee	68 00 00 00 00	 push	 OFFSET ??_C@_0L@MMJCNAM@dig_motion@
  015f3	56		 push	 esi
  015f4	e8 00 00 00 00	 call	 __strcmpi
  015f9	83 c4 08	 add	 esp, 8
  015fc	85 c0		 test	 eax, eax
  015fe	75 57		 jne	 SHORT $LN118@ServerComm
; File C:\Program Files\Microsoft Visual Studio\2022\Community\VC\Tools\MSVC\14.44.35207\include\vector

; 1934 :         return _My_data._Myfirst[_Pos];

  01600	8b 45 bc	 mov	 eax, DWORD PTR _TokenVector$[ebp]
  01603	83 c0 18	 add	 eax, 24			; 00000018H
; File C:\Program Files\Microsoft Visual Studio\2022\Community\VC\Tools\MSVC\14.44.35207\include\xstring

; 453  :         return _Myres > _Small_string_capacity;

  01606	83 78 14 0f	 cmp	 DWORD PTR [eax+20], 15	; 0000000fH

; 445  :         if (_Large_mode_engaged()) {

  0160a	76 02		 jbe	 SHORT $LN1938@ServerComm

; 446  :             _Result = _Unfancy(_Bx._Ptr);

  0160c	8b 00		 mov	 eax, DWORD PTR [eax]
$LN1938@ServerComm:
; File C:\Anka2Project\Anka2Project\Source\Binary\source\UserInterface\PythonNetworkStreamCommand.cpp

; 591  : 		int iVID = atoi(TokenVector[1].c_str());

  0160e	50		 push	 eax
  0160f	e8 00 00 00 00	 call	 __atoi64
; File C:\Anka2Project\Anka2Project\Source\Binary\source\UserInterface\AbstractSingleton.h

; 24   : 		assert(ms_singleton!=nullptr);

  01614	8b 0d 00 00 00
	00		 mov	 ecx, DWORD PTR ?ms_singleton@?$TAbstractSingleton@VIAbstractCharacterManager@@@@0PAVIAbstractCharacterManager@@A ; TAbstractSingleton<IAbstractCharacterManager>::ms_singleton
; File C:\Anka2Project\Anka2Project\Source\Binary\source\UserInterface\PythonNetworkStreamCommand.cpp

; 591  : 		int iVID = atoi(TokenVector[1].c_str());

  0161a	83 c4 04	 add	 esp, 4
  0161d	8b f0		 mov	 esi, eax
; File C:\Anka2Project\Anka2Project\Source\Binary\source\UserInterface\AbstractSingleton.h

; 24   : 		assert(ms_singleton!=nullptr);

  0161f	85 c9		 test	 ecx, ecx
  01621	75 1a		 jne	 SHORT $LN1946@ServerComm
  01623	6a 18		 push	 24			; 00000018H
  01625	68 00 00 00 00	 push	 OFFSET ??_C@_1KI@FIPHLMOB@?$AAC?$AA?3?$AA?2?$AAA?$AAn?$AAk?$AAa?$AA2?$AAP?$AAr?$AAo?$AAj?$AAe?$AAc?$AAt@
  0162a	68 00 00 00 00	 push	 OFFSET ??_C@_1CM@FPMBEAEA@?$AAm?$AAs?$AA_?$AAs?$AAi?$AAn?$AAg?$AAl?$AAe?$AAt?$AAo?$AAn?$AA?$CB?$AA?$DN?$AAn@
  0162f	e8 00 00 00 00	 call	 __wassert
  01634	8b 0d 00 00 00
	00		 mov	 ecx, DWORD PTR ?ms_singleton@?$TAbstractSingleton@VIAbstractCharacterManager@@@@0PAVIAbstractCharacterManager@@A ; TAbstractSingleton<IAbstractCharacterManager>::ms_singleton
  0163a	83 c4 0c	 add	 esp, 12			; 0000000cH
$LN1946@ServerComm:
; File C:\Anka2Project\Anka2Project\Source\Binary\source\UserInterface\PythonNetworkStreamCommand.cpp

; 593  : 		CInstanceBase * pInstance = rkChrMgr.GetInstancePtr(iVID);

  0163d	8b 01		 mov	 eax, DWORD PTR [ecx]
  0163f	56		 push	 esi
  01640	8b 40 08	 mov	 eax, DWORD PTR [eax+8]
  01643	ff d0		 call	 eax

; 594  : 		if (pInstance)

  01645	85 c0		 test	 eax, eax
  01647	0f 84 b2 09 00
	00		 je	 $LN127@ServerComm

; 595  : 			pInstance->ActEmotion(CRaceMotionData::NAME_DIG);

  0164d	68 45 01 00 00	 push	 325			; 00000145H

; 596  : 	}

  01652	e9 a1 09 00 00	 jmp	 $LN3236@ServerComm
$LN118@ServerComm:

; 597  : 	// Emotion End
; 598  : #ifdef ENABLE_STANDING_MOUNT
; 599  : 	else if (!strcmpi(szCmd, "horse_state"))

  01657	68 00 00 00 00	 push	 OFFSET ??_C@_0M@FGFACKME@horse_state@
  0165c	56		 push	 esi
  0165d	e8 00 00 00 00	 call	 __strcmpi
  01662	83 c4 08	 add	 esp, 8
  01665	85 c0		 test	 eax, eax
  01667	75 59		 jne	 SHORT $LN121@ServerComm
; File C:\Program Files\Microsoft Visual Studio\2022\Community\VC\Tools\MSVC\14.44.35207\include\vector

; 1915 :         return static_cast<size_type>(_My_data._Mylast - _My_data._Myfirst);

  01669	8b 4d c0	 mov	 ecx, DWORD PTR _TokenVector$[ebp+4]
  0166c	b8 ab aa aa 2a	 mov	 eax, 715827883		; 2aaaaaabH
  01671	2b 4d bc	 sub	 ecx, DWORD PTR _TokenVector$[ebp]
  01674	f7 e9		 imul	 ecx
  01676	c1 fa 02	 sar	 edx, 2
  01679	8b c2		 mov	 eax, edx
  0167b	c1 e8 1f	 shr	 eax, 31			; 0000001fH
  0167e	03 c2		 add	 eax, edx
; File C:\Anka2Project\Anka2Project\Source\Binary\source\UserInterface\PythonNetworkStreamCommand.cpp

; 601  : 		if (TokenVector.size() < 4)

  01680	83 f8 04	 cmp	 eax, 4
  01683	73 15		 jae	 SHORT $LN123@ServerComm
$LN3210@ServerComm:
; File C:\Program Files\Microsoft Visual Studio\2022\Community\VC\Tools\MSVC\14.44.35207\include\vector

; 830  :         _Tidy();

  01685	ff 75 ac	 push	 DWORD PTR _c_szCommand$GSCopy$1$[ebp]
  01688	68 00 00 00 00	 push	 OFFSET ??_C@_0FD@MGEFFJHF@CPythonNetworkStream?3?3ServerCom@
  0168d	e8 00 00 00 00	 call	 ?TraceError@@YAXPBDZZ	; TraceError
  01692	83 c4 08	 add	 esp, 8
  01695	e9 65 09 00 00	 jmp	 $LN127@ServerComm
$LN123@ServerComm:
; File C:\Anka2Project\Anka2Project\Source\Binary\source\UserInterface\PythonNetworkStreamCommand.cpp

; 607  : 		PyCallClassMemberFunc(m_apoPhaseWnd[PHASE_WINDOW_GAME],

  0169a	ff 75 ac	 push	 DWORD PTR _c_szCommand$GSCopy$1$[ebp]
  0169d	a1 00 00 00 00	 mov	 eax, DWORD PTR __imp__Py_BuildValue
  016a2	68 00 00 00 00	 push	 OFFSET ??_C@_03KJMMOONA@?$CIs?$CJ@
  016a7	ff d0		 call	 eax
  016a9	50		 push	 eax
  016aa	68 00 00 00 00	 push	 OFFSET ??_C@_0BJ@GKNJMEFC@BINARY_ServerCommand_Run@
  016af	ff b7 98 01 00
	00		 push	 DWORD PTR [edi+408]
  016b5	e8 00 00 00 00	 call	 ?PyCallClassMemberFunc@@YA_NPAU_object@@PBD0@Z ; PyCallClassMemberFunc
  016ba	83 c4 14	 add	 esp, 20			; 00000014H

; 608  : 			"BINARY_ServerCommand_Run",
; 609  : 			Py_BuildValue("(s)", c_szCommand)
; 610  : 		);
; 611  : 	}

  016bd	e9 3d 09 00 00	 jmp	 $LN127@ServerComm
$LN121@ServerComm:

; 615  : 		static std::map<std::string, int> s_emotionDict;

  016c2	64 a1 00 00 00
	00		 mov	 eax, DWORD PTR fs:__tls_array
  016c8	8b 08		 mov	 ecx, DWORD PTR [eax]
  016ca	a1 00 00 00 00	 mov	 eax, DWORD PTR ?$TSS0@?BAB@??ServerCommand@CPythonNetworkStream@@QAEXPAD@Z@4HA
  016cf	3b 81 00 00 00
	00		 cmp	 eax, DWORD PTR __Init_thread_epoch[ecx]
  016d5	7e 69		 jle	 SHORT $LN4@ServerComm
  016d7	68 00 00 00 00	 push	 OFFSET ?$TSS0@?BAB@??ServerCommand@CPythonNetworkStream@@QAEXPAD@Z@4HA
  016dc	e8 00 00 00 00	 call	 __Init_thread_header
  016e1	83 c4 04	 add	 esp, 4
  016e4	83 3d 00 00 00
	00 ff		 cmp	 DWORD PTR ?$TSS0@?BAB@??ServerCommand@CPythonNetworkStream@@QAEXPAD@Z@4HA, -1
  016eb	75 53		 jne	 SHORT $LN4@ServerComm
  016ed	c6 45 fc 02	 mov	 BYTE PTR __$EHRec$[ebp+8], 2
; File C:\Program Files\Microsoft Visual Studio\2022\Community\VC\Tools\MSVC\14.44.35207\include\xmemory

; 136  :         return ::operator new(_Bytes);

  016f1	6a 2c		 push	 44			; 0000002cH
; File C:\Program Files\Microsoft Visual Studio\2022\Community\VC\Tools\MSVC\14.44.35207\include\xtree

; 450  :     _Tree_val() noexcept : _Myhead(), _Mysize(0) {}

  016f3	c7 05 00 00 00
	00 00 00 00 00	 mov	 DWORD PTR ?s_emotionDict@?BAB@??ServerCommand@CPythonNetworkStream@@QAEXPAD@Z@4V?$map@V?$basic_string@DU?$char_traits@D@std@@V?$allocator@D@2@@std@@HU?$less@V?$basic_string@DU?$char_traits@D@std@@V?$allocator@D@2@@std@@@2@V?$allocator@U?$pair@$$CBV?$basic_string@DU?$char_traits@D@std@@V?$allocator@D@2@@std@@H@std@@@2@@std@@A, 0
  016fd	c7 05 04 00 00
	00 00 00 00 00	 mov	 DWORD PTR ?s_emotionDict@?BAB@??ServerCommand@CPythonNetworkStream@@QAEXPAD@Z@4V?$map@V?$basic_string@DU?$char_traits@D@std@@V?$allocator@D@2@@std@@HU?$less@V?$basic_string@DU?$char_traits@D@std@@V?$allocator@D@2@@std@@@2@V?$allocator@U?$pair@$$CBV?$basic_string@DU?$char_traits@D@std@@V?$allocator@D@2@@std@@H@std@@@2@@std@@A+4, 0
; File C:\Program Files\Microsoft Visual Studio\2022\Community\VC\Tools\MSVC\14.44.35207\include\xmemory

; 136  :         return ::operator new(_Bytes);

  01707	e8 00 00 00 00	 call	 ??2@YAPAXI@Z		; operator new
  0170c	83 c4 04	 add	 esp, 4
; File C:\Program Files\Microsoft Visual Studio\2022\Community\VC\Tools\MSVC\14.44.35207\include\xtree

; 346  :         _Construct_in_place(_Pnode->_Left, _Pnode);

  0170f	89 00		 mov	 DWORD PTR [eax], eax

; 347  :         _Construct_in_place(_Pnode->_Parent, _Pnode);

  01711	89 40 04	 mov	 DWORD PTR [eax+4], eax

; 348  :         _Construct_in_place(_Pnode->_Right, _Pnode);

  01714	89 40 08	 mov	 DWORD PTR [eax+8], eax

; 349  :         _Pnode->_Color = _Black;

  01717	66 c7 40 0c 01
	01		 mov	 WORD PTR [eax+12], 257	; 00000101H
; File C:\Anka2Project\Anka2Project\Source\Binary\source\UserInterface\PythonNetworkStreamCommand.cpp

; 615  : 		static std::map<std::string, int> s_emotionDict;

  0171d	68 00 00 00 00	 push	 OFFSET ??__Fs_emotionDict@?BAB@??ServerCommand@CPythonNetworkStream@@QAEXPAD@Z@YAXXZ ; `CPythonNetworkStream::ServerCommand'::`257'::`dynamic atexit destructor for 's_emotionDict''
; File C:\Program Files\Microsoft Visual Studio\2022\Community\VC\Tools\MSVC\14.44.35207\include\xtree

; 1957 :         _Scary->_Myhead = _Node::_Buyheadnode(_Getal());

  01722	a3 00 00 00 00	 mov	 DWORD PTR ?s_emotionDict@?BAB@??ServerCommand@CPythonNetworkStream@@QAEXPAD@Z@4V?$map@V?$basic_string@DU?$char_traits@D@std@@V?$allocator@D@2@@std@@HU?$less@V?$basic_string@DU?$char_traits@D@std@@V?$allocator@D@2@@std@@@2@V?$allocator@U?$pair@$$CBV?$basic_string@DU?$char_traits@D@std@@V?$allocator@D@2@@std@@H@std@@@2@@std@@A, eax
; File C:\Anka2Project\Anka2Project\Source\Binary\source\UserInterface\PythonNetworkStreamCommand.cpp

; 615  : 		static std::map<std::string, int> s_emotionDict;

  01727	e8 00 00 00 00	 call	 _atexit
  0172c	83 c4 04	 add	 esp, 4
  0172f	c6 45 fc 00	 mov	 BYTE PTR __$EHRec$[ebp+8], 0
  01733	68 00 00 00 00	 push	 OFFSET ?$TSS0@?BAB@??ServerCommand@CPythonNetworkStream@@QAEXPAD@Z@4HA
  01738	e8 00 00 00 00	 call	 __Init_thread_footer
  0173d	83 c4 04	 add	 esp, 4
$LN4@ServerComm:

; 616  : 
; 617  : 		static bool s_isFirst = true;
; 618  : 		if (s_isFirst)

  01740	80 3d 00 00 00
	00 00		 cmp	 BYTE PTR ?s_isFirst@?BAB@??ServerCommand@CPythonNetworkStream@@QAEXPAD@Z@4_NA, 0
  01747	0f 84 1a 08 00
	00		 je	 $LN3106@ServerComm
; File C:\Program Files\Microsoft Visual Studio\2022\Community\VC\Tools\MSVC\14.44.35207\include\__msvc_string_view.hpp

; 121  :         _CSTD memcpy(_First1, _First2, _Count * sizeof(_Elem));

  0174d	a1 00 00 00 00	 mov	 eax, DWORD PTR ??_C@_06GLCEGJLC@dance3@
  01752	0f 57 c0	 xorps	 xmm0, xmm0
; File C:\Program Files\Microsoft Visual Studio\2022\Community\VC\Tools\MSVC\14.44.35207\include\xstring

; 493  :         _CONSTEXPR20 _Bxty() noexcept : _Buf() {} // user-provided, for fancy pointers

  01755	0f 11 45 d4	 movups	 XMMWORD PTR $T393[ebp], xmm0
; File C:\Program Files\Microsoft Visual Studio\2022\Community\VC\Tools\MSVC\14.44.35207\include\__msvc_string_view.hpp

; 121  :         _CSTD memcpy(_First1, _First2, _Count * sizeof(_Elem));

  01759	89 45 d4	 mov	 DWORD PTR $T393[ebp], eax
  0175c	66 a1 04 00 00
	00		 mov	 ax, WORD PTR ??_C@_06GLCEGJLC@dance3@+4
; File C:\Anka2Project\Anka2Project\Source\Binary\source\UserInterface\PythonNetworkStreamCommand.cpp

; 620  : 			s_isFirst = false;

  01762	c6 05 00 00 00
	00 00		 mov	 BYTE PTR ?s_isFirst@?BAB@??ServerCommand@CPythonNetworkStream@@QAEXPAD@Z@4_NA, 0
; File C:\Program Files\Microsoft Visual Studio\2022\Community\VC\Tools\MSVC\14.44.35207\include\xstring

; 890  :             _My_data._Mysize = _Count;

  01769	c7 45 e4 06 00
	00 00		 mov	 DWORD PTR $T393[ebp+16], 6

; 891  :             _My_data._Myres  = _Small_string_capacity;

  01770	c7 45 e8 0f 00
	00 00		 mov	 DWORD PTR $T393[ebp+20], 15 ; 0000000fH
; File C:\Program Files\Microsoft Visual Studio\2022\Community\VC\Tools\MSVC\14.44.35207\include\__msvc_string_view.hpp

; 121  :         _CSTD memcpy(_First1, _First2, _Count * sizeof(_Elem));

  01777	66 89 45 d8	 mov	 WORD PTR $T393[ebp+4], ax
; File C:\Program Files\Microsoft Visual Studio\2022\Community\VC\Tools\MSVC\14.44.35207\include\xstring

; 898  :                 _Traits::assign(_My_data._Bx._Buf[_Count], _Elem());

  0177b	c6 45 da 00	 mov	 BYTE PTR $T393[ebp+6], 0
; File C:\Anka2Project\Anka2Project\Source\Binary\source\UserInterface\PythonNetworkStreamCommand.cpp

; 622  : 			s_emotionDict["dance3"] = CRaceMotionData::NAME_DANCE_3;

  0177f	8d 45 d4	 lea	 eax, DWORD PTR $T393[ebp]
  01782	c6 45 fc 03	 mov	 BYTE PTR __$EHRec$[ebp+8], 3
  01786	50		 push	 eax
  01787	b9 00 00 00 00	 mov	 ecx, OFFSET ?s_emotionDict@?BAB@??ServerCommand@CPythonNetworkStream@@QAEXPAD@Z@4V?$map@V?$basic_string@DU?$char_traits@D@std@@V?$allocator@D@2@@std@@HU?$less@V?$basic_string@DU?$char_traits@D@std@@V?$allocator@D@2@@std@@@2@V?$allocator@U?$pair@$$CBV?$basic_string@DU?$char_traits@D@std@@V?$allocator@D@2@@std@@H@std@@@2@@std@@A
  0178c	e8 00 00 00 00	 call	 ??A?$map@V?$basic_string@DU?$char_traits@D@std@@V?$allocator@D@2@@std@@HU?$less@V?$basic_string@DU?$char_traits@D@std@@V?$allocator@D@2@@std@@@2@V?$allocator@U?$pair@$$CBV?$basic_string@DU?$char_traits@D@std@@V?$allocator@D@2@@std@@H@std@@@2@@std@@QAEAAH$$QAV?$basic_string@DU?$char_traits@D@std@@V?$allocator@D@2@@1@@Z ; std::map<std::basic_string<char,std::char_traits<char>,std::allocator<char> >,int,std::less<std::basic_string<char,std::char_traits<char>,std::allocator<char> > >,std::allocator<std::pair<std::basic_string<char,std::char_traits<char>,std::allocator<char> > const ,int> > >::operator[]
  01791	c7 00 48 01 00
	00		 mov	 DWORD PTR [eax], 328	; 00000148H
; File C:\Program Files\Microsoft Visual Studio\2022\Community\VC\Tools\MSVC\14.44.35207\include\xstring

; 453  :         return _Myres > _Small_string_capacity;

  01797	8b 45 e8	 mov	 eax, DWORD PTR $T393[ebp+20]
  0179a	83 f8 0f	 cmp	 eax, 15			; 0000000fH

; 3083 :         if (_My_data._Large_mode_engaged()) {

  0179d	76 10		 jbe	 SHORT $LN2257@ServerComm

; 3084 :             _ASAN_STRING_REMOVE(*this);
; 3085 :             auto& _Al = _Getal();
; 3086 :             _Deallocate_for_capacity(_Al, _My_data._Bx._Ptr, _My_data._Myres);

  0179f	50		 push	 eax
  017a0	ff 75 d4	 push	 DWORD PTR $T393[ebp]
  017a3	8d 45 d4	 lea	 eax, DWORD PTR $T393[ebp]
  017a6	50		 push	 eax
  017a7	e8 00 00 00 00	 call	 ?_Deallocate_for_capacity@?$basic_string@DU?$char_traits@D@std@@V?$allocator@D@2@@std@@CAXAAV?$allocator@D@2@QADI@Z ; std::basic_string<char,std::char_traits<char>,std::allocator<char> >::_Deallocate_for_capacity
  017ac	83 c4 0c	 add	 esp, 12			; 0000000cH
$LN2257@ServerComm:
; File C:\Program Files\Microsoft Visual Studio\2022\Community\VC\Tools\MSVC\14.44.35207\include\__msvc_string_view.hpp

; 121  :         _CSTD memcpy(_First1, _First2, _Count * sizeof(_Elem));

  017af	a1 00 00 00 00	 mov	 eax, DWORD PTR ??_C@_06CEGFPPHF@dance4@
  017b4	0f 57 c0	 xorps	 xmm0, xmm0
; File C:\Program Files\Microsoft Visual Studio\2022\Community\VC\Tools\MSVC\14.44.35207\include\xstring

; 493  :         _CONSTEXPR20 _Bxty() noexcept : _Buf() {} // user-provided, for fancy pointers

  017b7	0f 11 45 d4	 movups	 XMMWORD PTR $T401[ebp], xmm0
; File C:\Program Files\Microsoft Visual Studio\2022\Community\VC\Tools\MSVC\14.44.35207\include\__msvc_string_view.hpp

; 121  :         _CSTD memcpy(_First1, _First2, _Count * sizeof(_Elem));

  017bb	89 45 d4	 mov	 DWORD PTR $T401[ebp], eax
  017be	66 a1 04 00 00
	00		 mov	 ax, WORD PTR ??_C@_06CEGFPPHF@dance4@+4
; File C:\Program Files\Microsoft Visual Studio\2022\Community\VC\Tools\MSVC\14.44.35207\include\xstring

; 890  :             _My_data._Mysize = _Count;

  017c4	c7 45 e4 06 00
	00 00		 mov	 DWORD PTR $T401[ebp+16], 6

; 891  :             _My_data._Myres  = _Small_string_capacity;

  017cb	c7 45 e8 0f 00
	00 00		 mov	 DWORD PTR $T401[ebp+20], 15 ; 0000000fH
; File C:\Program Files\Microsoft Visual Studio\2022\Community\VC\Tools\MSVC\14.44.35207\include\__msvc_string_view.hpp

; 121  :         _CSTD memcpy(_First1, _First2, _Count * sizeof(_Elem));

  017d2	66 89 45 d8	 mov	 WORD PTR $T401[ebp+4], ax
; File C:\Program Files\Microsoft Visual Studio\2022\Community\VC\Tools\MSVC\14.44.35207\include\xstring

; 898  :                 _Traits::assign(_My_data._Bx._Buf[_Count], _Elem());

  017d6	c6 45 da 00	 mov	 BYTE PTR $T401[ebp+6], 0
; File C:\Anka2Project\Anka2Project\Source\Binary\source\UserInterface\PythonNetworkStreamCommand.cpp

; 623  : 			s_emotionDict["dance4"] = CRaceMotionData::NAME_DANCE_4;

  017da	8d 45 d4	 lea	 eax, DWORD PTR $T401[ebp]
  017dd	c6 45 fc 04	 mov	 BYTE PTR __$EHRec$[ebp+8], 4
  017e1	50		 push	 eax
  017e2	b9 00 00 00 00	 mov	 ecx, OFFSET ?s_emotionDict@?BAB@??ServerCommand@CPythonNetworkStream@@QAEXPAD@Z@4V?$map@V?$basic_string@DU?$char_traits@D@std@@V?$allocator@D@2@@std@@HU?$less@V?$basic_string@DU?$char_traits@D@std@@V?$allocator@D@2@@std@@@2@V?$allocator@U?$pair@$$CBV?$basic_string@DU?$char_traits@D@std@@V?$allocator@D@2@@std@@H@std@@@2@@std@@A
  017e7	e8 00 00 00 00	 call	 ??A?$map@V?$basic_string@DU?$char_traits@D@std@@V?$allocator@D@2@@std@@HU?$less@V?$basic_string@DU?$char_traits@D@std@@V?$allocator@D@2@@std@@@2@V?$allocator@U?$pair@$$CBV?$basic_string@DU?$char_traits@D@std@@V?$allocator@D@2@@std@@H@std@@@2@@std@@QAEAAH$$QAV?$basic_string@DU?$char_traits@D@std@@V?$allocator@D@2@@1@@Z ; std::map<std::basic_string<char,std::char_traits<char>,std::allocator<char> >,int,std::less<std::basic_string<char,std::char_traits<char>,std::allocator<char> > >,std::allocator<std::pair<std::basic_string<char,std::char_traits<char>,std::allocator<char> > const ,int> > >::operator[]
  017ec	c7 00 49 01 00
	00		 mov	 DWORD PTR [eax], 329	; 00000149H
; File C:\Program Files\Microsoft Visual Studio\2022\Community\VC\Tools\MSVC\14.44.35207\include\xstring

; 453  :         return _Myres > _Small_string_capacity;

  017f2	8b 45 e8	 mov	 eax, DWORD PTR $T401[ebp+20]
  017f5	83 f8 0f	 cmp	 eax, 15			; 0000000fH

; 3083 :         if (_My_data._Large_mode_engaged()) {

  017f8	76 10		 jbe	 SHORT $LN2504@ServerComm

; 3084 :             _ASAN_STRING_REMOVE(*this);
; 3085 :             auto& _Al = _Getal();
; 3086 :             _Deallocate_for_capacity(_Al, _My_data._Bx._Ptr, _My_data._Myres);

  017fa	50		 push	 eax
  017fb	ff 75 d4	 push	 DWORD PTR $T401[ebp]
  017fe	8d 45 d4	 lea	 eax, DWORD PTR $T401[ebp]
  01801	50		 push	 eax
  01802	e8 00 00 00 00	 call	 ?_Deallocate_for_capacity@?$basic_string@DU?$char_traits@D@std@@V?$allocator@D@2@@std@@CAXAAV?$allocator@D@2@QADI@Z ; std::basic_string<char,std::char_traits<char>,std::allocator<char> >::_Deallocate_for_capacity
  01807	83 c4 0c	 add	 esp, 12			; 0000000cH
$LN2504@ServerComm:
; File C:\Program Files\Microsoft Visual Studio\2022\Community\VC\Tools\MSVC\14.44.35207\include\__msvc_string_view.hpp

; 121  :         _CSTD memcpy(_First1, _First2, _Count * sizeof(_Elem));

  0180a	a1 00 00 00 00	 mov	 eax, DWORD PTR ??_C@_06DNHOMODE@dance5@
  0180f	0f 57 c0	 xorps	 xmm0, xmm0
; File C:\Program Files\Microsoft Visual Studio\2022\Community\VC\Tools\MSVC\14.44.35207\include\xstring

; 493  :         _CONSTEXPR20 _Bxty() noexcept : _Buf() {} // user-provided, for fancy pointers

  01812	0f 11 45 d4	 movups	 XMMWORD PTR $T409[ebp], xmm0
; File C:\Program Files\Microsoft Visual Studio\2022\Community\VC\Tools\MSVC\14.44.35207\include\__msvc_string_view.hpp

; 121  :         _CSTD memcpy(_First1, _First2, _Count * sizeof(_Elem));

  01816	89 45 d4	 mov	 DWORD PTR $T409[ebp], eax
  01819	66 a1 04 00 00
	00		 mov	 ax, WORD PTR ??_C@_06DNHOMODE@dance5@+4
; File C:\Program Files\Microsoft Visual Studio\2022\Community\VC\Tools\MSVC\14.44.35207\include\xstring

; 890  :             _My_data._Mysize = _Count;

  0181f	c7 45 e4 06 00
	00 00		 mov	 DWORD PTR $T409[ebp+16], 6

; 891  :             _My_data._Myres  = _Small_string_capacity;

  01826	c7 45 e8 0f 00
	00 00		 mov	 DWORD PTR $T409[ebp+20], 15 ; 0000000fH
; File C:\Program Files\Microsoft Visual Studio\2022\Community\VC\Tools\MSVC\14.44.35207\include\__msvc_string_view.hpp

; 121  :         _CSTD memcpy(_First1, _First2, _Count * sizeof(_Elem));

  0182d	66 89 45 d8	 mov	 WORD PTR $T409[ebp+4], ax
; File C:\Program Files\Microsoft Visual Studio\2022\Community\VC\Tools\MSVC\14.44.35207\include\xstring

; 898  :                 _Traits::assign(_My_data._Bx._Buf[_Count], _Elem());

  01831	c6 45 da 00	 mov	 BYTE PTR $T409[ebp+6], 0
; File C:\Anka2Project\Anka2Project\Source\Binary\source\UserInterface\PythonNetworkStreamCommand.cpp

; 624  : 			s_emotionDict["dance5"] = CRaceMotionData::NAME_DANCE_5;

  01835	8d 45 d4	 lea	 eax, DWORD PTR $T409[ebp]
  01838	c6 45 fc 05	 mov	 BYTE PTR __$EHRec$[ebp+8], 5
  0183c	50		 push	 eax
  0183d	b9 00 00 00 00	 mov	 ecx, OFFSET ?s_emotionDict@?BAB@??ServerCommand@CPythonNetworkStream@@QAEXPAD@Z@4V?$map@V?$basic_string@DU?$char_traits@D@std@@V?$allocator@D@2@@std@@HU?$less@V?$basic_string@DU?$char_traits@D@std@@V?$allocator@D@2@@std@@@2@V?$allocator@U?$pair@$$CBV?$basic_string@DU?$char_traits@D@std@@V?$allocator@D@2@@std@@H@std@@@2@@std@@A
  01842	e8 00 00 00 00	 call	 ??A?$map@V?$basic_string@DU?$char_traits@D@std@@V?$allocator@D@2@@std@@HU?$less@V?$basic_string@DU?$char_traits@D@std@@V?$allocator@D@2@@std@@@2@V?$allocator@U?$pair@$$CBV?$basic_string@DU?$char_traits@D@std@@V?$allocator@D@2@@std@@H@std@@@2@@std@@QAEAAH$$QAV?$basic_string@DU?$char_traits@D@std@@V?$allocator@D@2@@1@@Z ; std::map<std::basic_string<char,std::char_traits<char>,std::allocator<char> >,int,std::less<std::basic_string<char,std::char_traits<char>,std::allocator<char> > >,std::allocator<std::pair<std::basic_string<char,std::char_traits<char>,std::allocator<char> > const ,int> > >::operator[]
  01847	c7 00 4a 01 00
	00		 mov	 DWORD PTR [eax], 330	; 0000014aH
; File C:\Program Files\Microsoft Visual Studio\2022\Community\VC\Tools\MSVC\14.44.35207\include\xstring

; 453  :         return _Myres > _Small_string_capacity;

  0184d	8b 45 e8	 mov	 eax, DWORD PTR $T409[ebp+20]
  01850	83 f8 0f	 cmp	 eax, 15			; 0000000fH

; 3083 :         if (_My_data._Large_mode_engaged()) {

  01853	76 10		 jbe	 SHORT $LN2751@ServerComm

; 3084 :             _ASAN_STRING_REMOVE(*this);
; 3085 :             auto& _Al = _Getal();
; 3086 :             _Deallocate_for_capacity(_Al, _My_data._Bx._Ptr, _My_data._Myres);

  01855	50		 push	 eax
  01856	ff 75 d4	 push	 DWORD PTR $T409[ebp]
  01859	8d 45 d4	 lea	 eax, DWORD PTR $T409[ebp]
  0185c	50		 push	 eax
  0185d	e8 00 00 00 00	 call	 ?_Deallocate_for_capacity@?$basic_string@DU?$char_traits@D@std@@V?$allocator@D@2@@std@@CAXAAV?$allocator@D@2@QADI@Z ; std::basic_string<char,std::char_traits<char>,std::allocator<char> >::_Deallocate_for_capacity
  01862	83 c4 0c	 add	 esp, 12			; 0000000cH
$LN2751@ServerComm:
; File C:\Program Files\Microsoft Visual Studio\2022\Community\VC\Tools\MSVC\14.44.35207\include\__msvc_string_view.hpp

; 121  :         _CSTD memcpy(_First1, _First2, _Count * sizeof(_Elem));

  01865	a1 00 00 00 00	 mov	 eax, DWORD PTR ??_C@_06BGFDJNPH@dance6@
  0186a	0f 57 c0	 xorps	 xmm0, xmm0
; File C:\Program Files\Microsoft Visual Studio\2022\Community\VC\Tools\MSVC\14.44.35207\include\xstring

; 493  :         _CONSTEXPR20 _Bxty() noexcept : _Buf() {} // user-provided, for fancy pointers

  0186d	0f 11 45 d4	 movups	 XMMWORD PTR $T417[ebp], xmm0
; File C:\Program Files\Microsoft Visual Studio\2022\Community\VC\Tools\MSVC\14.44.35207\include\__msvc_string_view.hpp

; 121  :         _CSTD memcpy(_First1, _First2, _Count * sizeof(_Elem));

  01871	89 45 d4	 mov	 DWORD PTR $T417[ebp], eax
  01874	66 a1 04 00 00
	00		 mov	 ax, WORD PTR ??_C@_06BGFDJNPH@dance6@+4
; File C:\Program Files\Microsoft Visual Studio\2022\Community\VC\Tools\MSVC\14.44.35207\include\xstring

; 890  :             _My_data._Mysize = _Count;

  0187a	c7 45 e4 06 00
	00 00		 mov	 DWORD PTR $T417[ebp+16], 6

; 891  :             _My_data._Myres  = _Small_string_capacity;

  01881	c7 45 e8 0f 00
	00 00		 mov	 DWORD PTR $T417[ebp+20], 15 ; 0000000fH
; File C:\Program Files\Microsoft Visual Studio\2022\Community\VC\Tools\MSVC\14.44.35207\include\__msvc_string_view.hpp

; 121  :         _CSTD memcpy(_First1, _First2, _Count * sizeof(_Elem));

  01888	66 89 45 d8	 mov	 WORD PTR $T417[ebp+4], ax
; File C:\Program Files\Microsoft Visual Studio\2022\Community\VC\Tools\MSVC\14.44.35207\include\xstring

; 898  :                 _Traits::assign(_My_data._Bx._Buf[_Count], _Elem());

  0188c	c6 45 da 00	 mov	 BYTE PTR $T417[ebp+6], 0
; File C:\Anka2Project\Anka2Project\Source\Binary\source\UserInterface\PythonNetworkStreamCommand.cpp

; 625  : 			s_emotionDict["dance6"] = CRaceMotionData::NAME_DANCE_6;

  01890	8d 45 d4	 lea	 eax, DWORD PTR $T417[ebp]
  01893	c6 45 fc 06	 mov	 BYTE PTR __$EHRec$[ebp+8], 6
  01897	50		 push	 eax
  01898	b9 00 00 00 00	 mov	 ecx, OFFSET ?s_emotionDict@?BAB@??ServerCommand@CPythonNetworkStream@@QAEXPAD@Z@4V?$map@V?$basic_string@DU?$char_traits@D@std@@V?$allocator@D@2@@std@@HU?$less@V?$basic_string@DU?$char_traits@D@std@@V?$allocator@D@2@@std@@@2@V?$allocator@U?$pair@$$CBV?$basic_string@DU?$char_traits@D@std@@V?$allocator@D@2@@std@@H@std@@@2@@std@@A
  0189d	e8 00 00 00 00	 call	 ??A?$map@V?$basic_string@DU?$char_traits@D@std@@V?$allocator@D@2@@std@@HU?$less@V?$basic_string@DU?$char_traits@D@std@@V?$allocator@D@2@@std@@@2@V?$allocator@U?$pair@$$CBV?$basic_string@DU?$char_traits@D@std@@V?$allocator@D@2@@std@@H@std@@@2@@std@@QAEAAH$$QAV?$basic_string@DU?$char_traits@D@std@@V?$allocator@D@2@@1@@Z ; std::map<std::basic_string<char,std::char_traits<char>,std::allocator<char> >,int,std::less<std::basic_string<char,std::char_traits<char>,std::allocator<char> > >,std::allocator<std::pair<std::basic_string<char,std::char_traits<char>,std::allocator<char> > const ,int> > >::operator[]
; File C:\Program Files\Microsoft Visual Studio\2022\Community\VC\Tools\MSVC\14.44.35207\include\xstring

; 1383 :         _Tidy_deallocate();

  018a2	8d 4d d4	 lea	 ecx, DWORD PTR $T417[ebp]
; File C:\Anka2Project\Anka2Project\Source\Binary\source\UserInterface\PythonNetworkStreamCommand.cpp

; 625  : 			s_emotionDict["dance6"] = CRaceMotionData::NAME_DANCE_6;

  018a5	c6 45 fc 00	 mov	 BYTE PTR __$EHRec$[ebp+8], 0
  018a9	c7 00 4b 01 00
	00		 mov	 DWORD PTR [eax], 331	; 0000014bH
; File C:\Program Files\Microsoft Visual Studio\2022\Community\VC\Tools\MSVC\14.44.35207\include\xstring

; 1383 :         _Tidy_deallocate();

  018af	e8 00 00 00 00	 call	 ?_Tidy_deallocate@?$basic_string@DU?$char_traits@D@std@@V?$allocator@D@2@@std@@AAEXXZ ; std::basic_string<char,std::char_traits<char>,std::allocator<char> >::_Tidy_deallocate
; File C:\Anka2Project\Anka2Project\Source\Binary\source\UserInterface\PythonNetworkStreamCommand.cpp

; 626  : 			s_emotionDict["congratulation"] = CRaceMotionData::NAME_CONGRATULATION;

  018b4	68 00 00 00 00	 push	 OFFSET ??_C@_0P@KFFKPMLJ@congratulation@
  018b9	8d 4d d4	 lea	 ecx, DWORD PTR $T423[ebp]
  018bc	e8 00 00 00 00	 call	 ??0?$basic_string@DU?$char_traits@D@std@@V?$allocator@D@2@@std@@QAE@QBD@Z ; std::basic_string<char,std::char_traits<char>,std::allocator<char> >::basic_string<char,std::char_traits<char>,std::allocator<char> >
  018c1	8d 45 d4	 lea	 eax, DWORD PTR $T423[ebp]
  018c4	c6 45 fc 07	 mov	 BYTE PTR __$EHRec$[ebp+8], 7
  018c8	50		 push	 eax
  018c9	b9 00 00 00 00	 mov	 ecx, OFFSET ?s_emotionDict@?BAB@??ServerCommand@CPythonNetworkStream@@QAEXPAD@Z@4V?$map@V?$basic_string@DU?$char_traits@D@std@@V?$allocator@D@2@@std@@HU?$less@V?$basic_string@DU?$char_traits@D@std@@V?$allocator@D@2@@std@@@2@V?$allocator@U?$pair@$$CBV?$basic_string@DU?$char_traits@D@std@@V?$allocator@D@2@@std@@H@std@@@2@@std@@A
  018ce	e8 00 00 00 00	 call	 ??A?$map@V?$basic_string@DU?$char_traits@D@std@@V?$allocator@D@2@@std@@HU?$less@V?$basic_string@DU?$char_traits@D@std@@V?$allocator@D@2@@std@@@2@V?$allocator@U?$pair@$$CBV?$basic_string@DU?$char_traits@D@std@@V?$allocator@D@2@@std@@H@std@@@2@@std@@QAEAAH$$QAV?$basic_string@DU?$char_traits@D@std@@V?$allocator@D@2@@1@@Z ; std::map<std::basic_string<char,std::char_traits<char>,std::allocator<char> >,int,std::less<std::basic_string<char,std::char_traits<char>,std::allocator<char> > >,std::allocator<std::pair<std::basic_string<char,std::char_traits<char>,std::allocator<char> > const ,int> > >::operator[]
; File C:\Program Files\Microsoft Visual Studio\2022\Community\VC\Tools\MSVC\14.44.35207\include\xstring

; 1383 :         _Tidy_deallocate();

  018d3	8d 4d d4	 lea	 ecx, DWORD PTR $T423[ebp]
; File C:\Anka2Project\Anka2Project\Source\Binary\source\UserInterface\PythonNetworkStreamCommand.cpp

; 626  : 			s_emotionDict["congratulation"] = CRaceMotionData::NAME_CONGRATULATION;

  018d6	c6 45 fc 00	 mov	 BYTE PTR __$EHRec$[ebp+8], 0
  018da	c7 00 57 01 00
	00		 mov	 DWORD PTR [eax], 343	; 00000157H
; File C:\Program Files\Microsoft Visual Studio\2022\Community\VC\Tools\MSVC\14.44.35207\include\xstring

; 1383 :         _Tidy_deallocate();

  018e0	e8 00 00 00 00	 call	 ?_Tidy_deallocate@?$basic_string@DU?$char_traits@D@std@@V?$allocator@D@2@@std@@AAEXXZ ; std::basic_string<char,std::char_traits<char>,std::allocator<char> >::_Tidy_deallocate
; File C:\Anka2Project\Anka2Project\Source\Binary\source\UserInterface\PythonNetworkStreamCommand.cpp

; 627  : 			s_emotionDict["selfie"] = CRaceMotionData::NAME_SELFIE;

  018e5	68 00 00 00 00	 push	 OFFSET ??_C@_06PKCJCJAA@selfie@
  018ea	8d 4d d4	 lea	 ecx, DWORD PTR $T424[ebp]
  018ed	e8 00 00 00 00	 call	 ??0?$basic_string@DU?$char_traits@D@std@@V?$allocator@D@2@@std@@QAE@QBD@Z ; std::basic_string<char,std::char_traits<char>,std::allocator<char> >::basic_string<char,std::char_traits<char>,std::allocator<char> >
  018f2	8d 45 d4	 lea	 eax, DWORD PTR $T424[ebp]
  018f5	c6 45 fc 08	 mov	 BYTE PTR __$EHRec$[ebp+8], 8
  018f9	50		 push	 eax
  018fa	b9 00 00 00 00	 mov	 ecx, OFFSET ?s_emotionDict@?BAB@??ServerCommand@CPythonNetworkStream@@QAEXPAD@Z@4V?$map@V?$basic_string@DU?$char_traits@D@std@@V?$allocator@D@2@@std@@HU?$less@V?$basic_string@DU?$char_traits@D@std@@V?$allocator@D@2@@std@@@2@V?$allocator@U?$pair@$$CBV?$basic_string@DU?$char_traits@D@std@@V?$allocator@D@2@@std@@H@std@@@2@@std@@A
  018ff	e8 00 00 00 00	 call	 ??A?$map@V?$basic_string@DU?$char_traits@D@std@@V?$allocator@D@2@@std@@HU?$less@V?$basic_string@DU?$char_traits@D@std@@V?$allocator@D@2@@std@@@2@V?$allocator@U?$pair@$$CBV?$basic_string@DU?$char_traits@D@std@@V?$allocator@D@2@@std@@H@std@@@2@@std@@QAEAAH$$QAV?$basic_string@DU?$char_traits@D@std@@V?$allocator@D@2@@1@@Z ; std::map<std::basic_string<char,std::char_traits<char>,std::allocator<char> >,int,std::less<std::basic_string<char,std::char_traits<char>,std::allocator<char> > >,std::allocator<std::pair<std::basic_string<char,std::char_traits<char>,std::allocator<char> > const ,int> > >::operator[]
; File C:\Program Files\Microsoft Visual Studio\2022\Community\VC\Tools\MSVC\14.44.35207\include\xstring

; 1383 :         _Tidy_deallocate();

  01904	8d 4d d4	 lea	 ecx, DWORD PTR $T424[ebp]
; File C:\Anka2Project\Anka2Project\Source\Binary\source\UserInterface\PythonNetworkStreamCommand.cpp

; 627  : 			s_emotionDict["selfie"] = CRaceMotionData::NAME_SELFIE;

  01907	c6 45 fc 00	 mov	 BYTE PTR __$EHRec$[ebp+8], 0
  0190b	c7 00 59 01 00
	00		 mov	 DWORD PTR [eax], 345	; 00000159H
; File C:\Program Files\Microsoft Visual Studio\2022\Community\VC\Tools\MSVC\14.44.35207\include\xstring

; 1383 :         _Tidy_deallocate();

  01911	e8 00 00 00 00	 call	 ?_Tidy_deallocate@?$basic_string@DU?$char_traits@D@std@@V?$allocator@D@2@@std@@AAEXXZ ; std::basic_string<char,std::char_traits<char>,std::allocator<char> >::_Tidy_deallocate
; File C:\Anka2Project\Anka2Project\Source\Binary\source\UserInterface\PythonNetworkStreamCommand.cpp

; 628  : 			s_emotionDict["dance7"] = CRaceMotionData::NAME_DANCE_7;

  01916	68 00 00 00 00	 push	 OFFSET ??_C@_06PEIKMLG@dance7@
  0191b	8d 4d d4	 lea	 ecx, DWORD PTR $T425[ebp]
  0191e	e8 00 00 00 00	 call	 ??0?$basic_string@DU?$char_traits@D@std@@V?$allocator@D@2@@std@@QAE@QBD@Z ; std::basic_string<char,std::char_traits<char>,std::allocator<char> >::basic_string<char,std::char_traits<char>,std::allocator<char> >
  01923	8d 45 d4	 lea	 eax, DWORD PTR $T425[ebp]
  01926	c6 45 fc 09	 mov	 BYTE PTR __$EHRec$[ebp+8], 9
  0192a	50		 push	 eax
  0192b	b9 00 00 00 00	 mov	 ecx, OFFSET ?s_emotionDict@?BAB@??ServerCommand@CPythonNetworkStream@@QAEXPAD@Z@4V?$map@V?$basic_string@DU?$char_traits@D@std@@V?$allocator@D@2@@std@@HU?$less@V?$basic_string@DU?$char_traits@D@std@@V?$allocator@D@2@@std@@@2@V?$allocator@U?$pair@$$CBV?$basic_string@DU?$char_traits@D@std@@V?$allocator@D@2@@std@@H@std@@@2@@std@@A
  01930	e8 00 00 00 00	 call	 ??A?$map@V?$basic_string@DU?$char_traits@D@std@@V?$allocator@D@2@@std@@HU?$less@V?$basic_string@DU?$char_traits@D@std@@V?$allocator@D@2@@std@@@2@V?$allocator@U?$pair@$$CBV?$basic_string@DU?$char_traits@D@std@@V?$allocator@D@2@@std@@H@std@@@2@@std@@QAEAAH$$QAV?$basic_string@DU?$char_traits@D@std@@V?$allocator@D@2@@1@@Z ; std::map<std::basic_string<char,std::char_traits<char>,std::allocator<char> >,int,std::less<std::basic_string<char,std::char_traits<char>,std::allocator<char> > >,std::allocator<std::pair<std::basic_string<char,std::char_traits<char>,std::allocator<char> > const ,int> > >::operator[]
; File C:\Program Files\Microsoft Visual Studio\2022\Community\VC\Tools\MSVC\14.44.35207\include\xstring

; 1383 :         _Tidy_deallocate();

  01935	8d 4d d4	 lea	 ecx, DWORD PTR $T425[ebp]
; File C:\Anka2Project\Anka2Project\Source\Binary\source\UserInterface\PythonNetworkStreamCommand.cpp

; 628  : 			s_emotionDict["dance7"] = CRaceMotionData::NAME_DANCE_7;

  01938	c6 45 fc 00	 mov	 BYTE PTR __$EHRec$[ebp+8], 0
  0193c	c7 00 58 01 00
	00		 mov	 DWORD PTR [eax], 344	; 00000158H
; File C:\Program Files\Microsoft Visual Studio\2022\Community\VC\Tools\MSVC\14.44.35207\include\xstring

; 1383 :         _Tidy_deallocate();

  01942	e8 00 00 00 00	 call	 ?_Tidy_deallocate@?$basic_string@DU?$char_traits@D@std@@V?$allocator@D@2@@std@@AAEXXZ ; std::basic_string<char,std::char_traits<char>,std::allocator<char> >::_Tidy_deallocate
; File C:\Anka2Project\Anka2Project\Source\Binary\source\UserInterface\PythonNetworkStreamCommand.cpp

; 629  : 			s_emotionDict["doze"] = CRaceMotionData::NAME_DOZE;

  01947	68 00 00 00 00	 push	 OFFSET ??_C@_04HHMGEMFO@doze@
  0194c	8d 4d d4	 lea	 ecx, DWORD PTR $T426[ebp]
  0194f	e8 00 00 00 00	 call	 ??0?$basic_string@DU?$char_traits@D@std@@V?$allocator@D@2@@std@@QAE@QBD@Z ; std::basic_string<char,std::char_traits<char>,std::allocator<char> >::basic_string<char,std::char_traits<char>,std::allocator<char> >
  01954	8d 45 d4	 lea	 eax, DWORD PTR $T426[ebp]
  01957	c6 45 fc 0a	 mov	 BYTE PTR __$EHRec$[ebp+8], 10 ; 0000000aH
  0195b	50		 push	 eax
  0195c	b9 00 00 00 00	 mov	 ecx, OFFSET ?s_emotionDict@?BAB@??ServerCommand@CPythonNetworkStream@@QAEXPAD@Z@4V?$map@V?$basic_string@DU?$char_traits@D@std@@V?$allocator@D@2@@std@@HU?$less@V?$basic_string@DU?$char_traits@D@std@@V?$allocator@D@2@@std@@@2@V?$allocator@U?$pair@$$CBV?$basic_string@DU?$char_traits@D@std@@V?$allocator@D@2@@std@@H@std@@@2@@std@@A
  01961	e8 00 00 00 00	 call	 ??A?$map@V?$basic_string@DU?$char_traits@D@std@@V?$allocator@D@2@@std@@HU?$less@V?$basic_string@DU?$char_traits@D@std@@V?$allocator@D@2@@std@@@2@V?$allocator@U?$pair@$$CBV?$basic_string@DU?$char_traits@D@std@@V?$allocator@D@2@@std@@H@std@@@2@@std@@QAEAAH$$QAV?$basic_string@DU?$char_traits@D@std@@V?$allocator@D@2@@1@@Z ; std::map<std::basic_string<char,std::char_traits<char>,std::allocator<char> >,int,std::less<std::basic_string<char,std::char_traits<char>,std::allocator<char> > >,std::allocator<std::pair<std::basic_string<char,std::char_traits<char>,std::allocator<char> > const ,int> > >::operator[]
; File C:\Program Files\Microsoft Visual Studio\2022\Community\VC\Tools\MSVC\14.44.35207\include\xstring

; 1383 :         _Tidy_deallocate();

  01966	8d 4d d4	 lea	 ecx, DWORD PTR $T426[ebp]
; File C:\Anka2Project\Anka2Project\Source\Binary\source\UserInterface\PythonNetworkStreamCommand.cpp

; 629  : 			s_emotionDict["doze"] = CRaceMotionData::NAME_DOZE;

  01969	c6 45 fc 00	 mov	 BYTE PTR __$EHRec$[ebp+8], 0
  0196d	c7 00 5a 01 00
	00		 mov	 DWORD PTR [eax], 346	; 0000015aH
; File C:\Program Files\Microsoft Visual Studio\2022\Community\VC\Tools\MSVC\14.44.35207\include\xstring

; 1383 :         _Tidy_deallocate();

  01973	e8 00 00 00 00	 call	 ?_Tidy_deallocate@?$basic_string@DU?$char_traits@D@std@@V?$allocator@D@2@@std@@AAEXXZ ; std::basic_string<char,std::char_traits<char>,std::allocator<char> >::_Tidy_deallocate
; File C:\Anka2Project\Anka2Project\Source\Binary\source\UserInterface\PythonNetworkStreamCommand.cpp

; 630  : 			s_emotionDict["exercise"] = CRaceMotionData::NAME_EXERCISE;

  01978	68 00 00 00 00	 push	 OFFSET ??_C@_08DJFCJGOI@exercise@
  0197d	8d 4d d4	 lea	 ecx, DWORD PTR $T427[ebp]
  01980	e8 00 00 00 00	 call	 ??0?$basic_string@DU?$char_traits@D@std@@V?$allocator@D@2@@std@@QAE@QBD@Z ; std::basic_string<char,std::char_traits<char>,std::allocator<char> >::basic_string<char,std::char_traits<char>,std::allocator<char> >
  01985	8d 45 d4	 lea	 eax, DWORD PTR $T427[ebp]
  01988	c6 45 fc 0b	 mov	 BYTE PTR __$EHRec$[ebp+8], 11 ; 0000000bH
  0198c	50		 push	 eax
  0198d	b9 00 00 00 00	 mov	 ecx, OFFSET ?s_emotionDict@?BAB@??ServerCommand@CPythonNetworkStream@@QAEXPAD@Z@4V?$map@V?$basic_string@DU?$char_traits@D@std@@V?$allocator@D@2@@std@@HU?$less@V?$basic_string@DU?$char_traits@D@std@@V?$allocator@D@2@@std@@@2@V?$allocator@U?$pair@$$CBV?$basic_string@DU?$char_traits@D@std@@V?$allocator@D@2@@std@@H@std@@@2@@std@@A
  01992	e8 00 00 00 00	 call	 ??A?$map@V?$basic_string@DU?$char_traits@D@std@@V?$allocator@D@2@@std@@HU?$less@V?$basic_string@DU?$char_traits@D@std@@V?$allocator@D@2@@std@@@2@V?$allocator@U?$pair@$$CBV?$basic_string@DU?$char_traits@D@std@@V?$allocator@D@2@@std@@H@std@@@2@@std@@QAEAAH$$QAV?$basic_string@DU?$char_traits@D@std@@V?$allocator@D@2@@1@@Z ; std::map<std::basic_string<char,std::char_traits<char>,std::allocator<char> >,int,std::less<std::basic_string<char,std::char_traits<char>,std::allocator<char> > >,std::allocator<std::pair<std::basic_string<char,std::char_traits<char>,std::allocator<char> > const ,int> > >::operator[]
  01997	c7 00 5b 01 00
	00		 mov	 DWORD PTR [eax], 347	; 0000015bH
; File C:\Program Files\Microsoft Visual Studio\2022\Community\VC\Tools\MSVC\14.44.35207\include\xstring

; 1383 :         _Tidy_deallocate();

  0199d	8d 4d d4	 lea	 ecx, DWORD PTR $T427[ebp]
; File C:\Anka2Project\Anka2Project\Source\Binary\source\UserInterface\PythonNetworkStreamCommand.cpp

; 630  : 			s_emotionDict["exercise"] = CRaceMotionData::NAME_EXERCISE;

  019a0	c6 45 fc 00	 mov	 BYTE PTR __$EHRec$[ebp+8], 0
; File C:\Program Files\Microsoft Visual Studio\2022\Community\VC\Tools\MSVC\14.44.35207\include\xstring

; 1383 :         _Tidy_deallocate();

  019a4	e8 00 00 00 00	 call	 ?_Tidy_deallocate@?$basic_string@DU?$char_traits@D@std@@V?$allocator@D@2@@std@@AAEXXZ ; std::basic_string<char,std::char_traits<char>,std::allocator<char> >::_Tidy_deallocate
; File C:\Anka2Project\Anka2Project\Source\Binary\source\UserInterface\PythonNetworkStreamCommand.cpp

; 631  : 			s_emotionDict["pushup"] = CRaceMotionData::NAME_PUSHUP;

  019a9	68 00 00 00 00	 push	 OFFSET ??_C@_06OIPBPKGG@pushup@
  019ae	8d 4d d4	 lea	 ecx, DWORD PTR $T428[ebp]
  019b1	e8 00 00 00 00	 call	 ??0?$basic_string@DU?$char_traits@D@std@@V?$allocator@D@2@@std@@QAE@QBD@Z ; std::basic_string<char,std::char_traits<char>,std::allocator<char> >::basic_string<char,std::char_traits<char>,std::allocator<char> >
  019b6	8d 45 d4	 lea	 eax, DWORD PTR $T428[ebp]
  019b9	c6 45 fc 0c	 mov	 BYTE PTR __$EHRec$[ebp+8], 12 ; 0000000cH
  019bd	50		 push	 eax
  019be	b9 00 00 00 00	 mov	 ecx, OFFSET ?s_emotionDict@?BAB@??ServerCommand@CPythonNetworkStream@@QAEXPAD@Z@4V?$map@V?$basic_string@DU?$char_traits@D@std@@V?$allocator@D@2@@std@@HU?$less@V?$basic_string@DU?$char_traits@D@std@@V?$allocator@D@2@@std@@@2@V?$allocator@U?$pair@$$CBV?$basic_string@DU?$char_traits@D@std@@V?$allocator@D@2@@std@@H@std@@@2@@std@@A
  019c3	e8 00 00 00 00	 call	 ??A?$map@V?$basic_string@DU?$char_traits@D@std@@V?$allocator@D@2@@std@@HU?$less@V?$basic_string@DU?$char_traits@D@std@@V?$allocator@D@2@@std@@@2@V?$allocator@U?$pair@$$CBV?$basic_string@DU?$char_traits@D@std@@V?$allocator@D@2@@std@@H@std@@@2@@std@@QAEAAH$$QAV?$basic_string@DU?$char_traits@D@std@@V?$allocator@D@2@@1@@Z ; std::map<std::basic_string<char,std::char_traits<char>,std::allocator<char> >,int,std::less<std::basic_string<char,std::char_traits<char>,std::allocator<char> > >,std::allocator<std::pair<std::basic_string<char,std::char_traits<char>,std::allocator<char> > const ,int> > >::operator[]
; File C:\Program Files\Microsoft Visual Studio\2022\Community\VC\Tools\MSVC\14.44.35207\include\xstring

; 1383 :         _Tidy_deallocate();

  019c8	8d 4d d4	 lea	 ecx, DWORD PTR $T428[ebp]
; File C:\Anka2Project\Anka2Project\Source\Binary\source\UserInterface\PythonNetworkStreamCommand.cpp

; 631  : 			s_emotionDict["pushup"] = CRaceMotionData::NAME_PUSHUP;

  019cb	c6 45 fc 00	 mov	 BYTE PTR __$EHRec$[ebp+8], 0
  019cf	c7 00 5c 01 00
	00		 mov	 DWORD PTR [eax], 348	; 0000015cH
; File C:\Program Files\Microsoft Visual Studio\2022\Community\VC\Tools\MSVC\14.44.35207\include\xstring

; 1383 :         _Tidy_deallocate();

  019d5	e8 00 00 00 00	 call	 ?_Tidy_deallocate@?$basic_string@DU?$char_traits@D@std@@V?$allocator@D@2@@std@@AAEXXZ ; std::basic_string<char,std::char_traits<char>,std::allocator<char> >::_Tidy_deallocate
; File C:\Anka2Project\Anka2Project\Source\Binary\source\UserInterface\PythonNetworkStreamCommand.cpp

; 632  : 			s_emotionDict["worship"] = CRaceMotionData::NAME_EMOTION_1;

  019da	68 00 00 00 00	 push	 OFFSET ??_C@_07CPIFOEHD@worship@
  019df	8d 4d d4	 lea	 ecx, DWORD PTR $T429[ebp]
  019e2	e8 00 00 00 00	 call	 ??0?$basic_string@DU?$char_traits@D@std@@V?$allocator@D@2@@std@@QAE@QBD@Z ; std::basic_string<char,std::char_traits<char>,std::allocator<char> >::basic_string<char,std::char_traits<char>,std::allocator<char> >
  019e7	8d 45 d4	 lea	 eax, DWORD PTR $T429[ebp]
  019ea	c6 45 fc 0d	 mov	 BYTE PTR __$EHRec$[ebp+8], 13 ; 0000000dH
  019ee	50		 push	 eax
  019ef	b9 00 00 00 00	 mov	 ecx, OFFSET ?s_emotionDict@?BAB@??ServerCommand@CPythonNetworkStream@@QAEXPAD@Z@4V?$map@V?$basic_string@DU?$char_traits@D@std@@V?$allocator@D@2@@std@@HU?$less@V?$basic_string@DU?$char_traits@D@std@@V?$allocator@D@2@@std@@@2@V?$allocator@U?$pair@$$CBV?$basic_string@DU?$char_traits@D@std@@V?$allocator@D@2@@std@@H@std@@@2@@std@@A
  019f4	e8 00 00 00 00	 call	 ??A?$map@V?$basic_string@DU?$char_traits@D@std@@V?$allocator@D@2@@std@@HU?$less@V?$basic_string@DU?$char_traits@D@std@@V?$allocator@D@2@@std@@@2@V?$allocator@U?$pair@$$CBV?$basic_string@DU?$char_traits@D@std@@V?$allocator@D@2@@std@@H@std@@@2@@std@@QAEAAH$$QAV?$basic_string@DU?$char_traits@D@std@@V?$allocator@D@2@@1@@Z ; std::map<std::basic_string<char,std::char_traits<char>,std::allocator<char> >,int,std::less<std::basic_string<char,std::char_traits<char>,std::allocator<char> > >,std::allocator<std::pair<std::basic_string<char,std::char_traits<char>,std::allocator<char> > const ,int> > >::operator[]
; File C:\Program Files\Microsoft Visual Studio\2022\Community\VC\Tools\MSVC\14.44.35207\include\xstring

; 1383 :         _Tidy_deallocate();

  019f9	8d 4d d4	 lea	 ecx, DWORD PTR $T429[ebp]
; File C:\Anka2Project\Anka2Project\Source\Binary\source\UserInterface\PythonNetworkStreamCommand.cpp

; 632  : 			s_emotionDict["worship"] = CRaceMotionData::NAME_EMOTION_1;

  019fc	c6 45 fc 00	 mov	 BYTE PTR __$EHRec$[ebp+8], 0
  01a00	c7 00 5d 01 00
	00		 mov	 DWORD PTR [eax], 349	; 0000015dH
; File C:\Program Files\Microsoft Visual Studio\2022\Community\VC\Tools\MSVC\14.44.35207\include\xstring

; 1383 :         _Tidy_deallocate();

  01a06	e8 00 00 00 00	 call	 ?_Tidy_deallocate@?$basic_string@DU?$char_traits@D@std@@V?$allocator@D@2@@std@@AAEXXZ ; std::basic_string<char,std::char_traits<char>,std::allocator<char> >::_Tidy_deallocate
; File C:\Anka2Project\Anka2Project\Source\Binary\source\UserInterface\PythonNetworkStreamCommand.cpp

; 633  : 			s_emotionDict["backflip"] = CRaceMotionData::NAME_EMOTION_2;

  01a0b	68 00 00 00 00	 push	 OFFSET ??_C@_08KAPEAILI@backflip@
  01a10	8d 4d d4	 lea	 ecx, DWORD PTR $T430[ebp]
  01a13	e8 00 00 00 00	 call	 ??0?$basic_string@DU?$char_traits@D@std@@V?$allocator@D@2@@std@@QAE@QBD@Z ; std::basic_string<char,std::char_traits<char>,std::allocator<char> >::basic_string<char,std::char_traits<char>,std::allocator<char> >
  01a18	8d 45 d4	 lea	 eax, DWORD PTR $T430[ebp]
  01a1b	c6 45 fc 0e	 mov	 BYTE PTR __$EHRec$[ebp+8], 14 ; 0000000eH
  01a1f	50		 push	 eax
  01a20	b9 00 00 00 00	 mov	 ecx, OFFSET ?s_emotionDict@?BAB@??ServerCommand@CPythonNetworkStream@@QAEXPAD@Z@4V?$map@V?$basic_string@DU?$char_traits@D@std@@V?$allocator@D@2@@std@@HU?$less@V?$basic_string@DU?$char_traits@D@std@@V?$allocator@D@2@@std@@@2@V?$allocator@U?$pair@$$CBV?$basic_string@DU?$char_traits@D@std@@V?$allocator@D@2@@std@@H@std@@@2@@std@@A
  01a25	e8 00 00 00 00	 call	 ??A?$map@V?$basic_string@DU?$char_traits@D@std@@V?$allocator@D@2@@std@@HU?$less@V?$basic_string@DU?$char_traits@D@std@@V?$allocator@D@2@@std@@@2@V?$allocator@U?$pair@$$CBV?$basic_string@DU?$char_traits@D@std@@V?$allocator@D@2@@std@@H@std@@@2@@std@@QAEAAH$$QAV?$basic_string@DU?$char_traits@D@std@@V?$allocator@D@2@@1@@Z ; std::map<std::basic_string<char,std::char_traits<char>,std::allocator<char> >,int,std::less<std::basic_string<char,std::char_traits<char>,std::allocator<char> > >,std::allocator<std::pair<std::basic_string<char,std::char_traits<char>,std::allocator<char> > const ,int> > >::operator[]
; File C:\Program Files\Microsoft Visual Studio\2022\Community\VC\Tools\MSVC\14.44.35207\include\xstring

; 1383 :         _Tidy_deallocate();

  01a2a	8d 4d d4	 lea	 ecx, DWORD PTR $T430[ebp]
; File C:\Anka2Project\Anka2Project\Source\Binary\source\UserInterface\PythonNetworkStreamCommand.cpp

; 633  : 			s_emotionDict["backflip"] = CRaceMotionData::NAME_EMOTION_2;

  01a2d	c6 45 fc 00	 mov	 BYTE PTR __$EHRec$[ebp+8], 0
  01a31	c7 00 5e 01 00
	00		 mov	 DWORD PTR [eax], 350	; 0000015eH
; File C:\Program Files\Microsoft Visual Studio\2022\Community\VC\Tools\MSVC\14.44.35207\include\xstring

; 1383 :         _Tidy_deallocate();

  01a37	e8 00 00 00 00	 call	 ?_Tidy_deallocate@?$basic_string@DU?$char_traits@D@std@@V?$allocator@D@2@@std@@AAEXXZ ; std::basic_string<char,std::char_traits<char>,std::allocator<char> >::_Tidy_deallocate
; File C:\Anka2Project\Anka2Project\Source\Binary\source\UserInterface\PythonNetworkStreamCommand.cpp

; 634  : 			s_emotionDict["breakdance"] = CRaceMotionData::NAME_EMOTION_3;

  01a3c	68 00 00 00 00	 push	 OFFSET ??_C@_0L@FDKNDBIE@breakdance@
  01a41	8d 4d d4	 lea	 ecx, DWORD PTR $T431[ebp]
  01a44	e8 00 00 00 00	 call	 ??0?$basic_string@DU?$char_traits@D@std@@V?$allocator@D@2@@std@@QAE@QBD@Z ; std::basic_string<char,std::char_traits<char>,std::allocator<char> >::basic_string<char,std::char_traits<char>,std::allocator<char> >
  01a49	8d 45 d4	 lea	 eax, DWORD PTR $T431[ebp]
  01a4c	c6 45 fc 0f	 mov	 BYTE PTR __$EHRec$[ebp+8], 15 ; 0000000fH
  01a50	50		 push	 eax
  01a51	b9 00 00 00 00	 mov	 ecx, OFFSET ?s_emotionDict@?BAB@??ServerCommand@CPythonNetworkStream@@QAEXPAD@Z@4V?$map@V?$basic_string@DU?$char_traits@D@std@@V?$allocator@D@2@@std@@HU?$less@V?$basic_string@DU?$char_traits@D@std@@V?$allocator@D@2@@std@@@2@V?$allocator@U?$pair@$$CBV?$basic_string@DU?$char_traits@D@std@@V?$allocator@D@2@@std@@H@std@@@2@@std@@A
  01a56	e8 00 00 00 00	 call	 ??A?$map@V?$basic_string@DU?$char_traits@D@std@@V?$allocator@D@2@@std@@HU?$less@V?$basic_string@DU?$char_traits@D@std@@V?$allocator@D@2@@std@@@2@V?$allocator@U?$pair@$$CBV?$basic_string@DU?$char_traits@D@std@@V?$allocator@D@2@@std@@H@std@@@2@@std@@QAEAAH$$QAV?$basic_string@DU?$char_traits@D@std@@V?$allocator@D@2@@1@@Z ; std::map<std::basic_string<char,std::char_traits<char>,std::allocator<char> >,int,std::less<std::basic_string<char,std::char_traits<char>,std::allocator<char> > >,std::allocator<std::pair<std::basic_string<char,std::char_traits<char>,std::allocator<char> > const ,int> > >::operator[]
; File C:\Program Files\Microsoft Visual Studio\2022\Community\VC\Tools\MSVC\14.44.35207\include\xstring

; 1383 :         _Tidy_deallocate();

  01a5b	8d 4d d4	 lea	 ecx, DWORD PTR $T431[ebp]
; File C:\Anka2Project\Anka2Project\Source\Binary\source\UserInterface\PythonNetworkStreamCommand.cpp

; 634  : 			s_emotionDict["breakdance"] = CRaceMotionData::NAME_EMOTION_3;

  01a5e	c6 45 fc 00	 mov	 BYTE PTR __$EHRec$[ebp+8], 0
  01a62	c7 00 5f 01 00
	00		 mov	 DWORD PTR [eax], 351	; 0000015fH
; File C:\Program Files\Microsoft Visual Studio\2022\Community\VC\Tools\MSVC\14.44.35207\include\xstring

; 1383 :         _Tidy_deallocate();

  01a68	e8 00 00 00 00	 call	 ?_Tidy_deallocate@?$basic_string@DU?$char_traits@D@std@@V?$allocator@D@2@@std@@AAEXXZ ; std::basic_string<char,std::char_traits<char>,std::allocator<char> >::_Tidy_deallocate
; File C:\Anka2Project\Anka2Project\Source\Binary\source\UserInterface\PythonNetworkStreamCommand.cpp

; 635  : 			s_emotionDict["dance8"] = CRaceMotionData::NAME_EMOTION_4;

  01a6d	68 00 00 00 00	 push	 OFFSET ??_C@_06IINALAHJ@dance8@
  01a72	8d 4d d4	 lea	 ecx, DWORD PTR $T432[ebp]
  01a75	e8 00 00 00 00	 call	 ??0?$basic_string@DU?$char_traits@D@std@@V?$allocator@D@2@@std@@QAE@QBD@Z ; std::basic_string<char,std::char_traits<char>,std::allocator<char> >::basic_string<char,std::char_traits<char>,std::allocator<char> >
  01a7a	8d 45 d4	 lea	 eax, DWORD PTR $T432[ebp]
  01a7d	c6 45 fc 10	 mov	 BYTE PTR __$EHRec$[ebp+8], 16 ; 00000010H
  01a81	50		 push	 eax
  01a82	b9 00 00 00 00	 mov	 ecx, OFFSET ?s_emotionDict@?BAB@??ServerCommand@CPythonNetworkStream@@QAEXPAD@Z@4V?$map@V?$basic_string@DU?$char_traits@D@std@@V?$allocator@D@2@@std@@HU?$less@V?$basic_string@DU?$char_traits@D@std@@V?$allocator@D@2@@std@@@2@V?$allocator@U?$pair@$$CBV?$basic_string@DU?$char_traits@D@std@@V?$allocator@D@2@@std@@H@std@@@2@@std@@A
  01a87	e8 00 00 00 00	 call	 ??A?$map@V?$basic_string@DU?$char_traits@D@std@@V?$allocator@D@2@@std@@HU?$less@V?$basic_string@DU?$char_traits@D@std@@V?$allocator@D@2@@std@@@2@V?$allocator@U?$pair@$$CBV?$basic_string@DU?$char_traits@D@std@@V?$allocator@D@2@@std@@H@std@@@2@@std@@QAEAAH$$QAV?$basic_string@DU?$char_traits@D@std@@V?$allocator@D@2@@1@@Z ; std::map<std::basic_string<char,std::char_traits<char>,std::allocator<char> >,int,std::less<std::basic_string<char,std::char_traits<char>,std::allocator<char> > >,std::allocator<std::pair<std::basic_string<char,std::char_traits<char>,std::allocator<char> > const ,int> > >::operator[]
; File C:\Program Files\Microsoft Visual Studio\2022\Community\VC\Tools\MSVC\14.44.35207\include\xstring

; 1383 :         _Tidy_deallocate();

  01a8c	8d 4d d4	 lea	 ecx, DWORD PTR $T432[ebp]
; File C:\Anka2Project\Anka2Project\Source\Binary\source\UserInterface\PythonNetworkStreamCommand.cpp

; 635  : 			s_emotionDict["dance8"] = CRaceMotionData::NAME_EMOTION_4;

  01a8f	c6 45 fc 00	 mov	 BYTE PTR __$EHRec$[ebp+8], 0
  01a93	c7 00 60 01 00
	00		 mov	 DWORD PTR [eax], 352	; 00000160H
; File C:\Program Files\Microsoft Visual Studio\2022\Community\VC\Tools\MSVC\14.44.35207\include\xstring

; 1383 :         _Tidy_deallocate();

  01a99	e8 00 00 00 00	 call	 ?_Tidy_deallocate@?$basic_string@DU?$char_traits@D@std@@V?$allocator@D@2@@std@@AAEXXZ ; std::basic_string<char,std::char_traits<char>,std::allocator<char> >::_Tidy_deallocate
; File C:\Anka2Project\Anka2Project\Source\Binary\source\UserInterface\PythonNetworkStreamCommand.cpp

; 636  : 			s_emotionDict["dab"] = CRaceMotionData::NAME_EMOTION_5;

  01a9e	68 00 00 00 00	 push	 OFFSET ??_C@_03HECBOIIF@dab@
  01aa3	8d 4d d4	 lea	 ecx, DWORD PTR $T433[ebp]
  01aa6	e8 00 00 00 00	 call	 ??0?$basic_string@DU?$char_traits@D@std@@V?$allocator@D@2@@std@@QAE@QBD@Z ; std::basic_string<char,std::char_traits<char>,std::allocator<char> >::basic_string<char,std::char_traits<char>,std::allocator<char> >
  01aab	8d 45 d4	 lea	 eax, DWORD PTR $T433[ebp]
  01aae	c6 45 fc 11	 mov	 BYTE PTR __$EHRec$[ebp+8], 17 ; 00000011H
  01ab2	50		 push	 eax
  01ab3	b9 00 00 00 00	 mov	 ecx, OFFSET ?s_emotionDict@?BAB@??ServerCommand@CPythonNetworkStream@@QAEXPAD@Z@4V?$map@V?$basic_string@DU?$char_traits@D@std@@V?$allocator@D@2@@std@@HU?$less@V?$basic_string@DU?$char_traits@D@std@@V?$allocator@D@2@@std@@@2@V?$allocator@U?$pair@$$CBV?$basic_string@DU?$char_traits@D@std@@V?$allocator@D@2@@std@@H@std@@@2@@std@@A
  01ab8	e8 00 00 00 00	 call	 ??A?$map@V?$basic_string@DU?$char_traits@D@std@@V?$allocator@D@2@@std@@HU?$less@V?$basic_string@DU?$char_traits@D@std@@V?$allocator@D@2@@std@@@2@V?$allocator@U?$pair@$$CBV?$basic_string@DU?$char_traits@D@std@@V?$allocator@D@2@@std@@H@std@@@2@@std@@QAEAAH$$QAV?$basic_string@DU?$char_traits@D@std@@V?$allocator@D@2@@1@@Z ; std::map<std::basic_string<char,std::char_traits<char>,std::allocator<char> >,int,std::less<std::basic_string<char,std::char_traits<char>,std::allocator<char> > >,std::allocator<std::pair<std::basic_string<char,std::char_traits<char>,std::allocator<char> > const ,int> > >::operator[]
; File C:\Program Files\Microsoft Visual Studio\2022\Community\VC\Tools\MSVC\14.44.35207\include\xstring

; 1383 :         _Tidy_deallocate();

  01abd	8d 4d d4	 lea	 ecx, DWORD PTR $T433[ebp]
; File C:\Anka2Project\Anka2Project\Source\Binary\source\UserInterface\PythonNetworkStreamCommand.cpp

; 636  : 			s_emotionDict["dab"] = CRaceMotionData::NAME_EMOTION_5;

  01ac0	c6 45 fc 00	 mov	 BYTE PTR __$EHRec$[ebp+8], 0
  01ac4	c7 00 61 01 00
	00		 mov	 DWORD PTR [eax], 353	; 00000161H
; File C:\Program Files\Microsoft Visual Studio\2022\Community\VC\Tools\MSVC\14.44.35207\include\xstring

; 1383 :         _Tidy_deallocate();

  01aca	e8 00 00 00 00	 call	 ?_Tidy_deallocate@?$basic_string@DU?$char_traits@D@std@@V?$allocator@D@2@@std@@AAEXXZ ; std::basic_string<char,std::char_traits<char>,std::allocator<char> >::_Tidy_deallocate
; File C:\Anka2Project\Anka2Project\Source\Binary\source\UserInterface\PythonNetworkStreamCommand.cpp

; 637  : 			s_emotionDict["facepalm"] = CRaceMotionData::NAME_EMOTION_6;

  01acf	68 00 00 00 00	 push	 OFFSET ??_C@_08CDHPCMMM@facepalm@
  01ad4	8d 4d d4	 lea	 ecx, DWORD PTR $T434[ebp]
  01ad7	e8 00 00 00 00	 call	 ??0?$basic_string@DU?$char_traits@D@std@@V?$allocator@D@2@@std@@QAE@QBD@Z ; std::basic_string<char,std::char_traits<char>,std::allocator<char> >::basic_string<char,std::char_traits<char>,std::allocator<char> >
  01adc	8d 45 d4	 lea	 eax, DWORD PTR $T434[ebp]
  01adf	c6 45 fc 12	 mov	 BYTE PTR __$EHRec$[ebp+8], 18 ; 00000012H
  01ae3	50		 push	 eax
  01ae4	b9 00 00 00 00	 mov	 ecx, OFFSET ?s_emotionDict@?BAB@??ServerCommand@CPythonNetworkStream@@QAEXPAD@Z@4V?$map@V?$basic_string@DU?$char_traits@D@std@@V?$allocator@D@2@@std@@HU?$less@V?$basic_string@DU?$char_traits@D@std@@V?$allocator@D@2@@std@@@2@V?$allocator@U?$pair@$$CBV?$basic_string@DU?$char_traits@D@std@@V?$allocator@D@2@@std@@H@std@@@2@@std@@A
  01ae9	e8 00 00 00 00	 call	 ??A?$map@V?$basic_string@DU?$char_traits@D@std@@V?$allocator@D@2@@std@@HU?$less@V?$basic_string@DU?$char_traits@D@std@@V?$allocator@D@2@@std@@@2@V?$allocator@U?$pair@$$CBV?$basic_string@DU?$char_traits@D@std@@V?$allocator@D@2@@std@@H@std@@@2@@std@@QAEAAH$$QAV?$basic_string@DU?$char_traits@D@std@@V?$allocator@D@2@@1@@Z ; std::map<std::basic_string<char,std::char_traits<char>,std::allocator<char> >,int,std::less<std::basic_string<char,std::char_traits<char>,std::allocator<char> > >,std::allocator<std::pair<std::basic_string<char,std::char_traits<char>,std::allocator<char> > const ,int> > >::operator[]
; File C:\Program Files\Microsoft Visual Studio\2022\Community\VC\Tools\MSVC\14.44.35207\include\xstring

; 1383 :         _Tidy_deallocate();

  01aee	8d 4d d4	 lea	 ecx, DWORD PTR $T434[ebp]
; File C:\Anka2Project\Anka2Project\Source\Binary\source\UserInterface\PythonNetworkStreamCommand.cpp

; 637  : 			s_emotionDict["facepalm"] = CRaceMotionData::NAME_EMOTION_6;

  01af1	c6 45 fc 00	 mov	 BYTE PTR __$EHRec$[ebp+8], 0
  01af5	c7 00 62 01 00
	00		 mov	 DWORD PTR [eax], 354	; 00000162H
; File C:\Program Files\Microsoft Visual Studio\2022\Community\VC\Tools\MSVC\14.44.35207\include\xstring

; 1383 :         _Tidy_deallocate();

  01afb	e8 00 00 00 00	 call	 ?_Tidy_deallocate@?$basic_string@DU?$char_traits@D@std@@V?$allocator@D@2@@std@@AAEXXZ ; std::basic_string<char,std::char_traits<char>,std::allocator<char> >::_Tidy_deallocate
; File C:\Anka2Project\Anka2Project\Source\Binary\source\UserInterface\PythonNetworkStreamCommand.cpp

; 638  : 			s_emotionDict["fuckoff"] = CRaceMotionData::NAME_EMOTION_7;

  01b00	68 00 00 00 00	 push	 OFFSET ??_C@_07EODDNBGI@fuckoff@
  01b05	8d 4d d4	 lea	 ecx, DWORD PTR $T435[ebp]
  01b08	e8 00 00 00 00	 call	 ??0?$basic_string@DU?$char_traits@D@std@@V?$allocator@D@2@@std@@QAE@QBD@Z ; std::basic_string<char,std::char_traits<char>,std::allocator<char> >::basic_string<char,std::char_traits<char>,std::allocator<char> >
  01b0d	8d 45 d4	 lea	 eax, DWORD PTR $T435[ebp]
  01b10	c6 45 fc 13	 mov	 BYTE PTR __$EHRec$[ebp+8], 19 ; 00000013H
  01b14	50		 push	 eax
  01b15	b9 00 00 00 00	 mov	 ecx, OFFSET ?s_emotionDict@?BAB@??ServerCommand@CPythonNetworkStream@@QAEXPAD@Z@4V?$map@V?$basic_string@DU?$char_traits@D@std@@V?$allocator@D@2@@std@@HU?$less@V?$basic_string@DU?$char_traits@D@std@@V?$allocator@D@2@@std@@@2@V?$allocator@U?$pair@$$CBV?$basic_string@DU?$char_traits@D@std@@V?$allocator@D@2@@std@@H@std@@@2@@std@@A
  01b1a	e8 00 00 00 00	 call	 ??A?$map@V?$basic_string@DU?$char_traits@D@std@@V?$allocator@D@2@@std@@HU?$less@V?$basic_string@DU?$char_traits@D@std@@V?$allocator@D@2@@std@@@2@V?$allocator@U?$pair@$$CBV?$basic_string@DU?$char_traits@D@std@@V?$allocator@D@2@@std@@H@std@@@2@@std@@QAEAAH$$QAV?$basic_string@DU?$char_traits@D@std@@V?$allocator@D@2@@1@@Z ; std::map<std::basic_string<char,std::char_traits<char>,std::allocator<char> >,int,std::less<std::basic_string<char,std::char_traits<char>,std::allocator<char> > >,std::allocator<std::pair<std::basic_string<char,std::char_traits<char>,std::allocator<char> > const ,int> > >::operator[]
; File C:\Program Files\Microsoft Visual Studio\2022\Community\VC\Tools\MSVC\14.44.35207\include\xstring

; 1383 :         _Tidy_deallocate();

  01b1f	8d 4d d4	 lea	 ecx, DWORD PTR $T435[ebp]
; File C:\Anka2Project\Anka2Project\Source\Binary\source\UserInterface\PythonNetworkStreamCommand.cpp

; 638  : 			s_emotionDict["fuckoff"] = CRaceMotionData::NAME_EMOTION_7;

  01b22	c6 45 fc 00	 mov	 BYTE PTR __$EHRec$[ebp+8], 0
  01b26	c7 00 63 01 00
	00		 mov	 DWORD PTR [eax], 355	; 00000163H
; File C:\Program Files\Microsoft Visual Studio\2022\Community\VC\Tools\MSVC\14.44.35207\include\xstring

; 1383 :         _Tidy_deallocate();

  01b2c	e8 00 00 00 00	 call	 ?_Tidy_deallocate@?$basic_string@DU?$char_traits@D@std@@V?$allocator@D@2@@std@@AAEXXZ ; std::basic_string<char,std::char_traits<char>,std::allocator<char> >::_Tidy_deallocate
; File C:\Anka2Project\Anka2Project\Source\Binary\source\UserInterface\PythonNetworkStreamCommand.cpp

; 639  : 			s_emotionDict["wank"] = CRaceMotionData::NAME_EMOTION_8;

  01b31	68 00 00 00 00	 push	 OFFSET ??_C@_04DFPFPABN@wank@
  01b36	8d 4d d4	 lea	 ecx, DWORD PTR $T436[ebp]
  01b39	e8 00 00 00 00	 call	 ??0?$basic_string@DU?$char_traits@D@std@@V?$allocator@D@2@@std@@QAE@QBD@Z ; std::basic_string<char,std::char_traits<char>,std::allocator<char> >::basic_string<char,std::char_traits<char>,std::allocator<char> >
  01b3e	8d 45 d4	 lea	 eax, DWORD PTR $T436[ebp]
  01b41	c6 45 fc 14	 mov	 BYTE PTR __$EHRec$[ebp+8], 20 ; 00000014H
  01b45	50		 push	 eax
  01b46	b9 00 00 00 00	 mov	 ecx, OFFSET ?s_emotionDict@?BAB@??ServerCommand@CPythonNetworkStream@@QAEXPAD@Z@4V?$map@V?$basic_string@DU?$char_traits@D@std@@V?$allocator@D@2@@std@@HU?$less@V?$basic_string@DU?$char_traits@D@std@@V?$allocator@D@2@@std@@@2@V?$allocator@U?$pair@$$CBV?$basic_string@DU?$char_traits@D@std@@V?$allocator@D@2@@std@@H@std@@@2@@std@@A
  01b4b	e8 00 00 00 00	 call	 ??A?$map@V?$basic_string@DU?$char_traits@D@std@@V?$allocator@D@2@@std@@HU?$less@V?$basic_string@DU?$char_traits@D@std@@V?$allocator@D@2@@std@@@2@V?$allocator@U?$pair@$$CBV?$basic_string@DU?$char_traits@D@std@@V?$allocator@D@2@@std@@H@std@@@2@@std@@QAEAAH$$QAV?$basic_string@DU?$char_traits@D@std@@V?$allocator@D@2@@1@@Z ; std::map<std::basic_string<char,std::char_traits<char>,std::allocator<char> >,int,std::less<std::basic_string<char,std::char_traits<char>,std::allocator<char> > >,std::allocator<std::pair<std::basic_string<char,std::char_traits<char>,std::allocator<char> > const ,int> > >::operator[]
; File C:\Program Files\Microsoft Visual Studio\2022\Community\VC\Tools\MSVC\14.44.35207\include\xstring

; 1383 :         _Tidy_deallocate();

  01b50	8d 4d d4	 lea	 ecx, DWORD PTR $T436[ebp]
; File C:\Anka2Project\Anka2Project\Source\Binary\source\UserInterface\PythonNetworkStreamCommand.cpp

; 639  : 			s_emotionDict["wank"] = CRaceMotionData::NAME_EMOTION_8;

  01b53	c6 45 fc 00	 mov	 BYTE PTR __$EHRec$[ebp+8], 0
  01b57	c7 00 64 01 00
	00		 mov	 DWORD PTR [eax], 356	; 00000164H
; File C:\Program Files\Microsoft Visual Studio\2022\Community\VC\Tools\MSVC\14.44.35207\include\xstring

; 1383 :         _Tidy_deallocate();

  01b5d	e8 00 00 00 00	 call	 ?_Tidy_deallocate@?$basic_string@DU?$char_traits@D@std@@V?$allocator@D@2@@std@@AAEXXZ ; std::basic_string<char,std::char_traits<char>,std::allocator<char> >::_Tidy_deallocate
; File C:\Anka2Project\Anka2Project\Source\Binary\source\UserInterface\PythonNetworkStreamCommand.cpp

; 640  : 			s_emotionDict["shake_it"] = CRaceMotionData::NAME_EMOTION_9;

  01b62	68 00 00 00 00	 push	 OFFSET ??_C@_08FCMNLMBD@shake_it@
  01b67	8d 4d d4	 lea	 ecx, DWORD PTR $T437[ebp]
  01b6a	e8 00 00 00 00	 call	 ??0?$basic_string@DU?$char_traits@D@std@@V?$allocator@D@2@@std@@QAE@QBD@Z ; std::basic_string<char,std::char_traits<char>,std::allocator<char> >::basic_string<char,std::char_traits<char>,std::allocator<char> >
  01b6f	8d 45 d4	 lea	 eax, DWORD PTR $T437[ebp]
  01b72	c6 45 fc 15	 mov	 BYTE PTR __$EHRec$[ebp+8], 21 ; 00000015H
  01b76	50		 push	 eax
  01b77	b9 00 00 00 00	 mov	 ecx, OFFSET ?s_emotionDict@?BAB@??ServerCommand@CPythonNetworkStream@@QAEXPAD@Z@4V?$map@V?$basic_string@DU?$char_traits@D@std@@V?$allocator@D@2@@std@@HU?$less@V?$basic_string@DU?$char_traits@D@std@@V?$allocator@D@2@@std@@@2@V?$allocator@U?$pair@$$CBV?$basic_string@DU?$char_traits@D@std@@V?$allocator@D@2@@std@@H@std@@@2@@std@@A
  01b7c	e8 00 00 00 00	 call	 ??A?$map@V?$basic_string@DU?$char_traits@D@std@@V?$allocator@D@2@@std@@HU?$less@V?$basic_string@DU?$char_traits@D@std@@V?$allocator@D@2@@std@@@2@V?$allocator@U?$pair@$$CBV?$basic_string@DU?$char_traits@D@std@@V?$allocator@D@2@@std@@H@std@@@2@@std@@QAEAAH$$QAV?$basic_string@DU?$char_traits@D@std@@V?$allocator@D@2@@1@@Z ; std::map<std::basic_string<char,std::char_traits<char>,std::allocator<char> >,int,std::less<std::basic_string<char,std::char_traits<char>,std::allocator<char> > >,std::allocator<std::pair<std::basic_string<char,std::char_traits<char>,std::allocator<char> > const ,int> > >::operator[]
; File C:\Program Files\Microsoft Visual Studio\2022\Community\VC\Tools\MSVC\14.44.35207\include\xstring

; 1383 :         _Tidy_deallocate();

  01b81	8d 4d d4	 lea	 ecx, DWORD PTR $T437[ebp]
; File C:\Anka2Project\Anka2Project\Source\Binary\source\UserInterface\PythonNetworkStreamCommand.cpp

; 640  : 			s_emotionDict["shake_it"] = CRaceMotionData::NAME_EMOTION_9;

  01b84	c6 45 fc 00	 mov	 BYTE PTR __$EHRec$[ebp+8], 0
  01b88	c7 00 65 01 00
	00		 mov	 DWORD PTR [eax], 357	; 00000165H
; File C:\Program Files\Microsoft Visual Studio\2022\Community\VC\Tools\MSVC\14.44.35207\include\xstring

; 1383 :         _Tidy_deallocate();

  01b8e	e8 00 00 00 00	 call	 ?_Tidy_deallocate@?$basic_string@DU?$char_traits@D@std@@V?$allocator@D@2@@std@@AAEXXZ ; std::basic_string<char,std::char_traits<char>,std::allocator<char> >::_Tidy_deallocate
; File C:\Anka2Project\Anka2Project\Source\Binary\source\UserInterface\PythonNetworkStreamCommand.cpp

; 641  : 			s_emotionDict["throw_money"] = CRaceMotionData::NAME_EMOTION_10;

  01b93	68 00 00 00 00	 push	 OFFSET ??_C@_0M@IPAPFJDN@throw_money@
  01b98	8d 4d d4	 lea	 ecx, DWORD PTR $T438[ebp]
  01b9b	e8 00 00 00 00	 call	 ??0?$basic_string@DU?$char_traits@D@std@@V?$allocator@D@2@@std@@QAE@QBD@Z ; std::basic_string<char,std::char_traits<char>,std::allocator<char> >::basic_string<char,std::char_traits<char>,std::allocator<char> >
  01ba0	8d 45 d4	 lea	 eax, DWORD PTR $T438[ebp]
  01ba3	c6 45 fc 16	 mov	 BYTE PTR __$EHRec$[ebp+8], 22 ; 00000016H
  01ba7	50		 push	 eax
  01ba8	b9 00 00 00 00	 mov	 ecx, OFFSET ?s_emotionDict@?BAB@??ServerCommand@CPythonNetworkStream@@QAEXPAD@Z@4V?$map@V?$basic_string@DU?$char_traits@D@std@@V?$allocator@D@2@@std@@HU?$less@V?$basic_string@DU?$char_traits@D@std@@V?$allocator@D@2@@std@@@2@V?$allocator@U?$pair@$$CBV?$basic_string@DU?$char_traits@D@std@@V?$allocator@D@2@@std@@H@std@@@2@@std@@A
  01bad	e8 00 00 00 00	 call	 ??A?$map@V?$basic_string@DU?$char_traits@D@std@@V?$allocator@D@2@@std@@HU?$less@V?$basic_string@DU?$char_traits@D@std@@V?$allocator@D@2@@std@@@2@V?$allocator@U?$pair@$$CBV?$basic_string@DU?$char_traits@D@std@@V?$allocator@D@2@@std@@H@std@@@2@@std@@QAEAAH$$QAV?$basic_string@DU?$char_traits@D@std@@V?$allocator@D@2@@1@@Z ; std::map<std::basic_string<char,std::char_traits<char>,std::allocator<char> >,int,std::less<std::basic_string<char,std::char_traits<char>,std::allocator<char> > >,std::allocator<std::pair<std::basic_string<char,std::char_traits<char>,std::allocator<char> > const ,int> > >::operator[]
; File C:\Program Files\Microsoft Visual Studio\2022\Community\VC\Tools\MSVC\14.44.35207\include\xstring

; 1383 :         _Tidy_deallocate();

  01bb2	8d 4d d4	 lea	 ecx, DWORD PTR $T438[ebp]
; File C:\Anka2Project\Anka2Project\Source\Binary\source\UserInterface\PythonNetworkStreamCommand.cpp

; 641  : 			s_emotionDict["throw_money"] = CRaceMotionData::NAME_EMOTION_10;

  01bb5	c6 45 fc 00	 mov	 BYTE PTR __$EHRec$[ebp+8], 0
  01bb9	c7 00 66 01 00
	00		 mov	 DWORD PTR [eax], 358	; 00000166H
; File C:\Program Files\Microsoft Visual Studio\2022\Community\VC\Tools\MSVC\14.44.35207\include\xstring

; 1383 :         _Tidy_deallocate();

  01bbf	e8 00 00 00 00	 call	 ?_Tidy_deallocate@?$basic_string@DU?$char_traits@D@std@@V?$allocator@D@2@@std@@AAEXXZ ; std::basic_string<char,std::char_traits<char>,std::allocator<char> >::_Tidy_deallocate
; File C:\Anka2Project\Anka2Project\Source\Binary\source\UserInterface\PythonNetworkStreamCommand.cpp

; 642  : 			s_emotionDict["dance9"] = CRaceMotionData::NAME_EMOTION_11;

  01bc4	68 00 00 00 00	 push	 OFFSET ??_C@_06JBMLIBDI@dance9@
  01bc9	8d 4d d4	 lea	 ecx, DWORD PTR $T439[ebp]
  01bcc	e8 00 00 00 00	 call	 ??0?$basic_string@DU?$char_traits@D@std@@V?$allocator@D@2@@std@@QAE@QBD@Z ; std::basic_string<char,std::char_traits<char>,std::allocator<char> >::basic_string<char,std::char_traits<char>,std::allocator<char> >
  01bd1	8d 45 d4	 lea	 eax, DWORD PTR $T439[ebp]
  01bd4	c6 45 fc 17	 mov	 BYTE PTR __$EHRec$[ebp+8], 23 ; 00000017H
  01bd8	50		 push	 eax
  01bd9	b9 00 00 00 00	 mov	 ecx, OFFSET ?s_emotionDict@?BAB@??ServerCommand@CPythonNetworkStream@@QAEXPAD@Z@4V?$map@V?$basic_string@DU?$char_traits@D@std@@V?$allocator@D@2@@std@@HU?$less@V?$basic_string@DU?$char_traits@D@std@@V?$allocator@D@2@@std@@@2@V?$allocator@U?$pair@$$CBV?$basic_string@DU?$char_traits@D@std@@V?$allocator@D@2@@std@@H@std@@@2@@std@@A
  01bde	e8 00 00 00 00	 call	 ??A?$map@V?$basic_string@DU?$char_traits@D@std@@V?$allocator@D@2@@std@@HU?$less@V?$basic_string@DU?$char_traits@D@std@@V?$allocator@D@2@@std@@@2@V?$allocator@U?$pair@$$CBV?$basic_string@DU?$char_traits@D@std@@V?$allocator@D@2@@std@@H@std@@@2@@std@@QAEAAH$$QAV?$basic_string@DU?$char_traits@D@std@@V?$allocator@D@2@@1@@Z ; std::map<std::basic_string<char,std::char_traits<char>,std::allocator<char> >,int,std::less<std::basic_string<char,std::char_traits<char>,std::allocator<char> > >,std::allocator<std::pair<std::basic_string<char,std::char_traits<char>,std::allocator<char> > const ,int> > >::operator[]
; File C:\Program Files\Microsoft Visual Studio\2022\Community\VC\Tools\MSVC\14.44.35207\include\xstring

; 1383 :         _Tidy_deallocate();

  01be3	8d 4d d4	 lea	 ecx, DWORD PTR $T439[ebp]
; File C:\Anka2Project\Anka2Project\Source\Binary\source\UserInterface\PythonNetworkStreamCommand.cpp

; 642  : 			s_emotionDict["dance9"] = CRaceMotionData::NAME_EMOTION_11;

  01be6	c6 45 fc 00	 mov	 BYTE PTR __$EHRec$[ebp+8], 0
  01bea	c7 00 67 01 00
	00		 mov	 DWORD PTR [eax], 359	; 00000167H
; File C:\Program Files\Microsoft Visual Studio\2022\Community\VC\Tools\MSVC\14.44.35207\include\xstring

; 1383 :         _Tidy_deallocate();

  01bf0	e8 00 00 00 00	 call	 ?_Tidy_deallocate@?$basic_string@DU?$char_traits@D@std@@V?$allocator@D@2@@std@@AAEXXZ ; std::basic_string<char,std::char_traits<char>,std::allocator<char> >::_Tidy_deallocate
; File C:\Anka2Project\Anka2Project\Source\Binary\source\UserInterface\PythonNetworkStreamCommand.cpp

; 643  : 			s_emotionDict["twerk"] = CRaceMotionData::NAME_EMOTION_12;

  01bf5	68 00 00 00 00	 push	 OFFSET ??_C@_05EIPICEDH@twerk@
  01bfa	8d 4d d4	 lea	 ecx, DWORD PTR $T440[ebp]
  01bfd	e8 00 00 00 00	 call	 ??0?$basic_string@DU?$char_traits@D@std@@V?$allocator@D@2@@std@@QAE@QBD@Z ; std::basic_string<char,std::char_traits<char>,std::allocator<char> >::basic_string<char,std::char_traits<char>,std::allocator<char> >
  01c02	8d 45 d4	 lea	 eax, DWORD PTR $T440[ebp]
  01c05	c6 45 fc 18	 mov	 BYTE PTR __$EHRec$[ebp+8], 24 ; 00000018H
  01c09	50		 push	 eax
  01c0a	b9 00 00 00 00	 mov	 ecx, OFFSET ?s_emotionDict@?BAB@??ServerCommand@CPythonNetworkStream@@QAEXPAD@Z@4V?$map@V?$basic_string@DU?$char_traits@D@std@@V?$allocator@D@2@@std@@HU?$less@V?$basic_string@DU?$char_traits@D@std@@V?$allocator@D@2@@std@@@2@V?$allocator@U?$pair@$$CBV?$basic_string@DU?$char_traits@D@std@@V?$allocator@D@2@@std@@H@std@@@2@@std@@A
  01c0f	e8 00 00 00 00	 call	 ??A?$map@V?$basic_string@DU?$char_traits@D@std@@V?$allocator@D@2@@std@@HU?$less@V?$basic_string@DU?$char_traits@D@std@@V?$allocator@D@2@@std@@@2@V?$allocator@U?$pair@$$CBV?$basic_string@DU?$char_traits@D@std@@V?$allocator@D@2@@std@@H@std@@@2@@std@@QAEAAH$$QAV?$basic_string@DU?$char_traits@D@std@@V?$allocator@D@2@@1@@Z ; std::map<std::basic_string<char,std::char_traits<char>,std::allocator<char> >,int,std::less<std::basic_string<char,std::char_traits<char>,std::allocator<char> > >,std::allocator<std::pair<std::basic_string<char,std::char_traits<char>,std::allocator<char> > const ,int> > >::operator[]
; File C:\Program Files\Microsoft Visual Studio\2022\Community\VC\Tools\MSVC\14.44.35207\include\xstring

; 1383 :         _Tidy_deallocate();

  01c14	8d 4d d4	 lea	 ecx, DWORD PTR $T440[ebp]
; File C:\Anka2Project\Anka2Project\Source\Binary\source\UserInterface\PythonNetworkStreamCommand.cpp

; 643  : 			s_emotionDict["twerk"] = CRaceMotionData::NAME_EMOTION_12;

  01c17	c6 45 fc 00	 mov	 BYTE PTR __$EHRec$[ebp+8], 0
  01c1b	c7 00 68 01 00
	00		 mov	 DWORD PTR [eax], 360	; 00000168H
; File C:\Program Files\Microsoft Visual Studio\2022\Community\VC\Tools\MSVC\14.44.35207\include\xstring

; 1383 :         _Tidy_deallocate();

  01c21	e8 00 00 00 00	 call	 ?_Tidy_deallocate@?$basic_string@DU?$char_traits@D@std@@V?$allocator@D@2@@std@@AAEXXZ ; std::basic_string<char,std::char_traits<char>,std::allocator<char> >::_Tidy_deallocate
; File C:\Anka2Project\Anka2Project\Source\Binary\source\UserInterface\PythonNetworkStreamCommand.cpp

; 645  : 			s_emotionDict["samba"] = CRaceMotionData::NAME_EMOTION_13;

  01c26	68 00 00 00 00	 push	 OFFSET ??_C@_05JJCABFLI@samba@
  01c2b	8d 4d d4	 lea	 ecx, DWORD PTR $T441[ebp]
  01c2e	e8 00 00 00 00	 call	 ??0?$basic_string@DU?$char_traits@D@std@@V?$allocator@D@2@@std@@QAE@QBD@Z ; std::basic_string<char,std::char_traits<char>,std::allocator<char> >::basic_string<char,std::char_traits<char>,std::allocator<char> >
  01c33	8d 45 d4	 lea	 eax, DWORD PTR $T441[ebp]
  01c36	c6 45 fc 19	 mov	 BYTE PTR __$EHRec$[ebp+8], 25 ; 00000019H
  01c3a	50		 push	 eax
  01c3b	b9 00 00 00 00	 mov	 ecx, OFFSET ?s_emotionDict@?BAB@??ServerCommand@CPythonNetworkStream@@QAEXPAD@Z@4V?$map@V?$basic_string@DU?$char_traits@D@std@@V?$allocator@D@2@@std@@HU?$less@V?$basic_string@DU?$char_traits@D@std@@V?$allocator@D@2@@std@@@2@V?$allocator@U?$pair@$$CBV?$basic_string@DU?$char_traits@D@std@@V?$allocator@D@2@@std@@H@std@@@2@@std@@A
  01c40	e8 00 00 00 00	 call	 ??A?$map@V?$basic_string@DU?$char_traits@D@std@@V?$allocator@D@2@@std@@HU?$less@V?$basic_string@DU?$char_traits@D@std@@V?$allocator@D@2@@std@@@2@V?$allocator@U?$pair@$$CBV?$basic_string@DU?$char_traits@D@std@@V?$allocator@D@2@@std@@H@std@@@2@@std@@QAEAAH$$QAV?$basic_string@DU?$char_traits@D@std@@V?$allocator@D@2@@1@@Z ; std::map<std::basic_string<char,std::char_traits<char>,std::allocator<char> >,int,std::less<std::basic_string<char,std::char_traits<char>,std::allocator<char> > >,std::allocator<std::pair<std::basic_string<char,std::char_traits<char>,std::allocator<char> > const ,int> > >::operator[]
; File C:\Program Files\Microsoft Visual Studio\2022\Community\VC\Tools\MSVC\14.44.35207\include\xstring

; 1383 :         _Tidy_deallocate();

  01c45	8d 4d d4	 lea	 ecx, DWORD PTR $T441[ebp]
; File C:\Anka2Project\Anka2Project\Source\Binary\source\UserInterface\PythonNetworkStreamCommand.cpp

; 645  : 			s_emotionDict["samba"] = CRaceMotionData::NAME_EMOTION_13;

  01c48	c6 45 fc 00	 mov	 BYTE PTR __$EHRec$[ebp+8], 0
  01c4c	c7 00 69 01 00
	00		 mov	 DWORD PTR [eax], 361	; 00000169H
; File C:\Program Files\Microsoft Visual Studio\2022\Community\VC\Tools\MSVC\14.44.35207\include\xstring

; 1383 :         _Tidy_deallocate();

  01c52	e8 00 00 00 00	 call	 ?_Tidy_deallocate@?$basic_string@DU?$char_traits@D@std@@V?$allocator@D@2@@std@@AAEXXZ ; std::basic_string<char,std::char_traits<char>,std::allocator<char> >::_Tidy_deallocate
; File C:\Anka2Project\Anka2Project\Source\Binary\source\UserInterface\PythonNetworkStreamCommand.cpp

; 646  : 			s_emotionDict["shimmy"] = CRaceMotionData::NAME_EMOTION_14;

  01c57	68 00 00 00 00	 push	 OFFSET ??_C@_06LICIMHCO@shimmy@
  01c5c	8d 4d d4	 lea	 ecx, DWORD PTR $T442[ebp]
  01c5f	e8 00 00 00 00	 call	 ??0?$basic_string@DU?$char_traits@D@std@@V?$allocator@D@2@@std@@QAE@QBD@Z ; std::basic_string<char,std::char_traits<char>,std::allocator<char> >::basic_string<char,std::char_traits<char>,std::allocator<char> >
  01c64	8d 45 d4	 lea	 eax, DWORD PTR $T442[ebp]
  01c67	c6 45 fc 1a	 mov	 BYTE PTR __$EHRec$[ebp+8], 26 ; 0000001aH
  01c6b	50		 push	 eax
  01c6c	b9 00 00 00 00	 mov	 ecx, OFFSET ?s_emotionDict@?BAB@??ServerCommand@CPythonNetworkStream@@QAEXPAD@Z@4V?$map@V?$basic_string@DU?$char_traits@D@std@@V?$allocator@D@2@@std@@HU?$less@V?$basic_string@DU?$char_traits@D@std@@V?$allocator@D@2@@std@@@2@V?$allocator@U?$pair@$$CBV?$basic_string@DU?$char_traits@D@std@@V?$allocator@D@2@@std@@H@std@@@2@@std@@A
  01c71	e8 00 00 00 00	 call	 ??A?$map@V?$basic_string@DU?$char_traits@D@std@@V?$allocator@D@2@@std@@HU?$less@V?$basic_string@DU?$char_traits@D@std@@V?$allocator@D@2@@std@@@2@V?$allocator@U?$pair@$$CBV?$basic_string@DU?$char_traits@D@std@@V?$allocator@D@2@@std@@H@std@@@2@@std@@QAEAAH$$QAV?$basic_string@DU?$char_traits@D@std@@V?$allocator@D@2@@1@@Z ; std::map<std::basic_string<char,std::char_traits<char>,std::allocator<char> >,int,std::less<std::basic_string<char,std::char_traits<char>,std::allocator<char> > >,std::allocator<std::pair<std::basic_string<char,std::char_traits<char>,std::allocator<char> > const ,int> > >::operator[]
; File C:\Program Files\Microsoft Visual Studio\2022\Community\VC\Tools\MSVC\14.44.35207\include\xstring

; 1383 :         _Tidy_deallocate();

  01c76	8d 4d d4	 lea	 ecx, DWORD PTR $T442[ebp]
; File C:\Anka2Project\Anka2Project\Source\Binary\source\UserInterface\PythonNetworkStreamCommand.cpp

; 646  : 			s_emotionDict["shimmy"] = CRaceMotionData::NAME_EMOTION_14;

  01c79	c6 45 fc 00	 mov	 BYTE PTR __$EHRec$[ebp+8], 0
  01c7d	c7 00 6a 01 00
	00		 mov	 DWORD PTR [eax], 362	; 0000016aH
; File C:\Program Files\Microsoft Visual Studio\2022\Community\VC\Tools\MSVC\14.44.35207\include\xstring

; 1383 :         _Tidy_deallocate();

  01c83	e8 00 00 00 00	 call	 ?_Tidy_deallocate@?$basic_string@DU?$char_traits@D@std@@V?$allocator@D@2@@std@@AAEXXZ ; std::basic_string<char,std::char_traits<char>,std::allocator<char> >::_Tidy_deallocate
; File C:\Anka2Project\Anka2Project\Source\Binary\source\UserInterface\PythonNetworkStreamCommand.cpp

; 647  : 			s_emotionDict["slow2"] = CRaceMotionData::NAME_EMOTION_15;

  01c88	68 00 00 00 00	 push	 OFFSET ??_C@_05EAMCHGIO@slow2@
  01c8d	8d 4d d4	 lea	 ecx, DWORD PTR $T443[ebp]
  01c90	e8 00 00 00 00	 call	 ??0?$basic_string@DU?$char_traits@D@std@@V?$allocator@D@2@@std@@QAE@QBD@Z ; std::basic_string<char,std::char_traits<char>,std::allocator<char> >::basic_string<char,std::char_traits<char>,std::allocator<char> >
  01c95	8d 45 d4	 lea	 eax, DWORD PTR $T443[ebp]
  01c98	c6 45 fc 1b	 mov	 BYTE PTR __$EHRec$[ebp+8], 27 ; 0000001bH
  01c9c	50		 push	 eax
  01c9d	b9 00 00 00 00	 mov	 ecx, OFFSET ?s_emotionDict@?BAB@??ServerCommand@CPythonNetworkStream@@QAEXPAD@Z@4V?$map@V?$basic_string@DU?$char_traits@D@std@@V?$allocator@D@2@@std@@HU?$less@V?$basic_string@DU?$char_traits@D@std@@V?$allocator@D@2@@std@@@2@V?$allocator@U?$pair@$$CBV?$basic_string@DU?$char_traits@D@std@@V?$allocator@D@2@@std@@H@std@@@2@@std@@A
  01ca2	e8 00 00 00 00	 call	 ??A?$map@V?$basic_string@DU?$char_traits@D@std@@V?$allocator@D@2@@std@@HU?$less@V?$basic_string@DU?$char_traits@D@std@@V?$allocator@D@2@@std@@@2@V?$allocator@U?$pair@$$CBV?$basic_string@DU?$char_traits@D@std@@V?$allocator@D@2@@std@@H@std@@@2@@std@@QAEAAH$$QAV?$basic_string@DU?$char_traits@D@std@@V?$allocator@D@2@@1@@Z ; std::map<std::basic_string<char,std::char_traits<char>,std::allocator<char> >,int,std::less<std::basic_string<char,std::char_traits<char>,std::allocator<char> > >,std::allocator<std::pair<std::basic_string<char,std::char_traits<char>,std::allocator<char> > const ,int> > >::operator[]
; File C:\Program Files\Microsoft Visual Studio\2022\Community\VC\Tools\MSVC\14.44.35207\include\xstring

; 1383 :         _Tidy_deallocate();

  01ca7	8d 4d d4	 lea	 ecx, DWORD PTR $T443[ebp]
; File C:\Anka2Project\Anka2Project\Source\Binary\source\UserInterface\PythonNetworkStreamCommand.cpp

; 647  : 			s_emotionDict["slow2"] = CRaceMotionData::NAME_EMOTION_15;

  01caa	c6 45 fc 00	 mov	 BYTE PTR __$EHRec$[ebp+8], 0
  01cae	c7 00 6b 01 00
	00		 mov	 DWORD PTR [eax], 363	; 0000016bH
; File C:\Program Files\Microsoft Visual Studio\2022\Community\VC\Tools\MSVC\14.44.35207\include\xstring

; 1383 :         _Tidy_deallocate();

  01cb4	e8 00 00 00 00	 call	 ?_Tidy_deallocate@?$basic_string@DU?$char_traits@D@std@@V?$allocator@D@2@@std@@AAEXXZ ; std::basic_string<char,std::char_traits<char>,std::allocator<char> >::_Tidy_deallocate
; File C:\Anka2Project\Anka2Project\Source\Binary\source\UserInterface\PythonNetworkStreamCommand.cpp

; 648  : 			s_emotionDict["bestmates"] = CRaceMotionData::NAME_EMOTION_16;

  01cb9	68 00 00 00 00	 push	 OFFSET ??_C@_09FLAALDCI@bestmates@
  01cbe	8d 4d d4	 lea	 ecx, DWORD PTR $T444[ebp]
  01cc1	e8 00 00 00 00	 call	 ??0?$basic_string@DU?$char_traits@D@std@@V?$allocator@D@2@@std@@QAE@QBD@Z ; std::basic_string<char,std::char_traits<char>,std::allocator<char> >::basic_string<char,std::char_traits<char>,std::allocator<char> >
  01cc6	8d 45 d4	 lea	 eax, DWORD PTR $T444[ebp]
  01cc9	c6 45 fc 1c	 mov	 BYTE PTR __$EHRec$[ebp+8], 28 ; 0000001cH
  01ccd	50		 push	 eax
  01cce	b9 00 00 00 00	 mov	 ecx, OFFSET ?s_emotionDict@?BAB@??ServerCommand@CPythonNetworkStream@@QAEXPAD@Z@4V?$map@V?$basic_string@DU?$char_traits@D@std@@V?$allocator@D@2@@std@@HU?$less@V?$basic_string@DU?$char_traits@D@std@@V?$allocator@D@2@@std@@@2@V?$allocator@U?$pair@$$CBV?$basic_string@DU?$char_traits@D@std@@V?$allocator@D@2@@std@@H@std@@@2@@std@@A
  01cd3	e8 00 00 00 00	 call	 ??A?$map@V?$basic_string@DU?$char_traits@D@std@@V?$allocator@D@2@@std@@HU?$less@V?$basic_string@DU?$char_traits@D@std@@V?$allocator@D@2@@std@@@2@V?$allocator@U?$pair@$$CBV?$basic_string@DU?$char_traits@D@std@@V?$allocator@D@2@@std@@H@std@@@2@@std@@QAEAAH$$QAV?$basic_string@DU?$char_traits@D@std@@V?$allocator@D@2@@1@@Z ; std::map<std::basic_string<char,std::char_traits<char>,std::allocator<char> >,int,std::less<std::basic_string<char,std::char_traits<char>,std::allocator<char> > >,std::allocator<std::pair<std::basic_string<char,std::char_traits<char>,std::allocator<char> > const ,int> > >::operator[]
; File C:\Program Files\Microsoft Visual Studio\2022\Community\VC\Tools\MSVC\14.44.35207\include\xstring

; 1383 :         _Tidy_deallocate();

  01cd8	8d 4d d4	 lea	 ecx, DWORD PTR $T444[ebp]
; File C:\Anka2Project\Anka2Project\Source\Binary\source\UserInterface\PythonNetworkStreamCommand.cpp

; 648  : 			s_emotionDict["bestmates"] = CRaceMotionData::NAME_EMOTION_16;

  01cdb	c6 45 fc 00	 mov	 BYTE PTR __$EHRec$[ebp+8], 0
  01cdf	c7 00 6c 01 00
	00		 mov	 DWORD PTR [eax], 364	; 0000016cH
; File C:\Program Files\Microsoft Visual Studio\2022\Community\VC\Tools\MSVC\14.44.35207\include\xstring

; 1383 :         _Tidy_deallocate();

  01ce5	e8 00 00 00 00	 call	 ?_Tidy_deallocate@?$basic_string@DU?$char_traits@D@std@@V?$allocator@D@2@@std@@AAEXXZ ; std::basic_string<char,std::char_traits<char>,std::allocator<char> >::_Tidy_deallocate
; File C:\Anka2Project\Anka2Project\Source\Binary\source\UserInterface\PythonNetworkStreamCommand.cpp

; 649  : 			s_emotionDict["flair"] = CRaceMotionData::NAME_EMOTION_17;

  01cea	68 00 00 00 00	 push	 OFFSET ??_C@_05BFMHFDOK@flair@
  01cef	8d 4d d4	 lea	 ecx, DWORD PTR $T445[ebp]
  01cf2	e8 00 00 00 00	 call	 ??0?$basic_string@DU?$char_traits@D@std@@V?$allocator@D@2@@std@@QAE@QBD@Z ; std::basic_string<char,std::char_traits<char>,std::allocator<char> >::basic_string<char,std::char_traits<char>,std::allocator<char> >
  01cf7	8d 45 d4	 lea	 eax, DWORD PTR $T445[ebp]
  01cfa	c6 45 fc 1d	 mov	 BYTE PTR __$EHRec$[ebp+8], 29 ; 0000001dH
  01cfe	50		 push	 eax
  01cff	b9 00 00 00 00	 mov	 ecx, OFFSET ?s_emotionDict@?BAB@??ServerCommand@CPythonNetworkStream@@QAEXPAD@Z@4V?$map@V?$basic_string@DU?$char_traits@D@std@@V?$allocator@D@2@@std@@HU?$less@V?$basic_string@DU?$char_traits@D@std@@V?$allocator@D@2@@std@@@2@V?$allocator@U?$pair@$$CBV?$basic_string@DU?$char_traits@D@std@@V?$allocator@D@2@@std@@H@std@@@2@@std@@A
  01d04	e8 00 00 00 00	 call	 ??A?$map@V?$basic_string@DU?$char_traits@D@std@@V?$allocator@D@2@@std@@HU?$less@V?$basic_string@DU?$char_traits@D@std@@V?$allocator@D@2@@std@@@2@V?$allocator@U?$pair@$$CBV?$basic_string@DU?$char_traits@D@std@@V?$allocator@D@2@@std@@H@std@@@2@@std@@QAEAAH$$QAV?$basic_string@DU?$char_traits@D@std@@V?$allocator@D@2@@1@@Z ; std::map<std::basic_string<char,std::char_traits<char>,std::allocator<char> >,int,std::less<std::basic_string<char,std::char_traits<char>,std::allocator<char> > >,std::allocator<std::pair<std::basic_string<char,std::char_traits<char>,std::allocator<char> > const ,int> > >::operator[]
; File C:\Program Files\Microsoft Visual Studio\2022\Community\VC\Tools\MSVC\14.44.35207\include\xstring

; 1383 :         _Tidy_deallocate();

  01d09	8d 4d d4	 lea	 ecx, DWORD PTR $T445[ebp]
; File C:\Anka2Project\Anka2Project\Source\Binary\source\UserInterface\PythonNetworkStreamCommand.cpp

; 649  : 			s_emotionDict["flair"] = CRaceMotionData::NAME_EMOTION_17;

  01d0c	c6 45 fc 00	 mov	 BYTE PTR __$EHRec$[ebp+8], 0
  01d10	c7 00 6d 01 00
	00		 mov	 DWORD PTR [eax], 365	; 0000016dH
; File C:\Program Files\Microsoft Visual Studio\2022\Community\VC\Tools\MSVC\14.44.35207\include\xstring

; 1383 :         _Tidy_deallocate();

  01d16	e8 00 00 00 00	 call	 ?_Tidy_deallocate@?$basic_string@DU?$char_traits@D@std@@V?$allocator@D@2@@std@@AAEXXZ ; std::basic_string<char,std::char_traits<char>,std::allocator<char> >::_Tidy_deallocate
; File C:\Anka2Project\Anka2Project\Source\Binary\source\UserInterface\PythonNetworkStreamCommand.cpp

; 650  : 			s_emotionDict["horon"] = CRaceMotionData::NAME_EMOTION_18;

  01d1b	68 00 00 00 00	 push	 OFFSET ??_C@_05MIDLJBNE@horon@
  01d20	8d 4d d4	 lea	 ecx, DWORD PTR $T446[ebp]
  01d23	e8 00 00 00 00	 call	 ??0?$basic_string@DU?$char_traits@D@std@@V?$allocator@D@2@@std@@QAE@QBD@Z ; std::basic_string<char,std::char_traits<char>,std::allocator<char> >::basic_string<char,std::char_traits<char>,std::allocator<char> >
  01d28	c6 45 fc 1e	 mov	 BYTE PTR __$EHRec$[ebp+8], 30 ; 0000001eH
  01d2c	8d 45 d4	 lea	 eax, DWORD PTR $T446[ebp]
  01d2f	50		 push	 eax
  01d30	b9 00 00 00 00	 mov	 ecx, OFFSET ?s_emotionDict@?BAB@??ServerCommand@CPythonNetworkStream@@QAEXPAD@Z@4V?$map@V?$basic_string@DU?$char_traits@D@std@@V?$allocator@D@2@@std@@HU?$less@V?$basic_string@DU?$char_traits@D@std@@V?$allocator@D@2@@std@@@2@V?$allocator@U?$pair@$$CBV?$basic_string@DU?$char_traits@D@std@@V?$allocator@D@2@@std@@H@std@@@2@@std@@A
  01d35	e8 00 00 00 00	 call	 ??A?$map@V?$basic_string@DU?$char_traits@D@std@@V?$allocator@D@2@@std@@HU?$less@V?$basic_string@DU?$char_traits@D@std@@V?$allocator@D@2@@std@@@2@V?$allocator@U?$pair@$$CBV?$basic_string@DU?$char_traits@D@std@@V?$allocator@D@2@@std@@H@std@@@2@@std@@QAEAAH$$QAV?$basic_string@DU?$char_traits@D@std@@V?$allocator@D@2@@1@@Z ; std::map<std::basic_string<char,std::char_traits<char>,std::allocator<char> >,int,std::less<std::basic_string<char,std::char_traits<char>,std::allocator<char> > >,std::allocator<std::pair<std::basic_string<char,std::char_traits<char>,std::allocator<char> > const ,int> > >::operator[]
; File C:\Program Files\Microsoft Visual Studio\2022\Community\VC\Tools\MSVC\14.44.35207\include\xstring

; 1383 :         _Tidy_deallocate();

  01d3a	8d 4d d4	 lea	 ecx, DWORD PTR $T446[ebp]
; File C:\Anka2Project\Anka2Project\Source\Binary\source\UserInterface\PythonNetworkStreamCommand.cpp

; 650  : 			s_emotionDict["horon"] = CRaceMotionData::NAME_EMOTION_18;

  01d3d	c6 45 fc 00	 mov	 BYTE PTR __$EHRec$[ebp+8], 0
  01d41	c7 00 6e 01 00
	00		 mov	 DWORD PTR [eax], 366	; 0000016eH
; File C:\Program Files\Microsoft Visual Studio\2022\Community\VC\Tools\MSVC\14.44.35207\include\xstring

; 1383 :         _Tidy_deallocate();

  01d47	e8 00 00 00 00	 call	 ?_Tidy_deallocate@?$basic_string@DU?$char_traits@D@std@@V?$allocator@D@2@@std@@AAEXXZ ; std::basic_string<char,std::char_traits<char>,std::allocator<char> >::_Tidy_deallocate
; File C:\Anka2Project\Anka2Project\Source\Binary\source\UserInterface\PythonNetworkStreamCommand.cpp

; 651  : 			s_emotionDict["robotdance"] = CRaceMotionData::NAME_EMOTION_19;

  01d4c	68 00 00 00 00	 push	 OFFSET ??_C@_0L@MPHGGMML@robotdance@
  01d51	8d 4d d4	 lea	 ecx, DWORD PTR $T447[ebp]
  01d54	e8 00 00 00 00	 call	 ??0?$basic_string@DU?$char_traits@D@std@@V?$allocator@D@2@@std@@QAE@QBD@Z ; std::basic_string<char,std::char_traits<char>,std::allocator<char> >::basic_string<char,std::char_traits<char>,std::allocator<char> >
  01d59	8d 45 d4	 lea	 eax, DWORD PTR $T447[ebp]
  01d5c	c6 45 fc 1f	 mov	 BYTE PTR __$EHRec$[ebp+8], 31 ; 0000001fH
  01d60	50		 push	 eax
  01d61	b9 00 00 00 00	 mov	 ecx, OFFSET ?s_emotionDict@?BAB@??ServerCommand@CPythonNetworkStream@@QAEXPAD@Z@4V?$map@V?$basic_string@DU?$char_traits@D@std@@V?$allocator@D@2@@std@@HU?$less@V?$basic_string@DU?$char_traits@D@std@@V?$allocator@D@2@@std@@@2@V?$allocator@U?$pair@$$CBV?$basic_string@DU?$char_traits@D@std@@V?$allocator@D@2@@std@@H@std@@@2@@std@@A
  01d66	e8 00 00 00 00	 call	 ??A?$map@V?$basic_string@DU?$char_traits@D@std@@V?$allocator@D@2@@std@@HU?$less@V?$basic_string@DU?$char_traits@D@std@@V?$allocator@D@2@@std@@@2@V?$allocator@U?$pair@$$CBV?$basic_string@DU?$char_traits@D@std@@V?$allocator@D@2@@std@@H@std@@@2@@std@@QAEAAH$$QAV?$basic_string@DU?$char_traits@D@std@@V?$allocator@D@2@@1@@Z ; std::map<std::basic_string<char,std::char_traits<char>,std::allocator<char> >,int,std::less<std::basic_string<char,std::char_traits<char>,std::allocator<char> > >,std::allocator<std::pair<std::basic_string<char,std::char_traits<char>,std::allocator<char> > const ,int> > >::operator[]
; File C:\Program Files\Microsoft Visual Studio\2022\Community\VC\Tools\MSVC\14.44.35207\include\xstring

; 1383 :         _Tidy_deallocate();

  01d6b	8d 4d d4	 lea	 ecx, DWORD PTR $T447[ebp]
; File C:\Anka2Project\Anka2Project\Source\Binary\source\UserInterface\PythonNetworkStreamCommand.cpp

; 651  : 			s_emotionDict["robotdance"] = CRaceMotionData::NAME_EMOTION_19;

  01d6e	c6 45 fc 00	 mov	 BYTE PTR __$EHRec$[ebp+8], 0
  01d72	c7 00 6f 01 00
	00		 mov	 DWORD PTR [eax], 367	; 0000016fH
; File C:\Program Files\Microsoft Visual Studio\2022\Community\VC\Tools\MSVC\14.44.35207\include\xstring

; 1383 :         _Tidy_deallocate();

  01d78	e8 00 00 00 00	 call	 ?_Tidy_deallocate@?$basic_string@DU?$char_traits@D@std@@V?$allocator@D@2@@std@@AAEXXZ ; std::basic_string<char,std::char_traits<char>,std::allocator<char> >::_Tidy_deallocate
; File C:\Anka2Project\Anka2Project\Source\Binary\source\UserInterface\PythonNetworkStreamCommand.cpp

; 652  : 			s_emotionDict["snowball"] = CRaceMotionData::NAME_EMOTION_20;

  01d7d	68 00 00 00 00	 push	 OFFSET ??_C@_08JGINAFBJ@snowball@
  01d82	8d 4d d4	 lea	 ecx, DWORD PTR $T448[ebp]
  01d85	e8 00 00 00 00	 call	 ??0?$basic_string@DU?$char_traits@D@std@@V?$allocator@D@2@@std@@QAE@QBD@Z ; std::basic_string<char,std::char_traits<char>,std::allocator<char> >::basic_string<char,std::char_traits<char>,std::allocator<char> >
  01d8a	8d 45 d4	 lea	 eax, DWORD PTR $T448[ebp]
  01d8d	c6 45 fc 20	 mov	 BYTE PTR __$EHRec$[ebp+8], 32 ; 00000020H
  01d91	50		 push	 eax
  01d92	b9 00 00 00 00	 mov	 ecx, OFFSET ?s_emotionDict@?BAB@??ServerCommand@CPythonNetworkStream@@QAEXPAD@Z@4V?$map@V?$basic_string@DU?$char_traits@D@std@@V?$allocator@D@2@@std@@HU?$less@V?$basic_string@DU?$char_traits@D@std@@V?$allocator@D@2@@std@@@2@V?$allocator@U?$pair@$$CBV?$basic_string@DU?$char_traits@D@std@@V?$allocator@D@2@@std@@H@std@@@2@@std@@A
  01d97	e8 00 00 00 00	 call	 ??A?$map@V?$basic_string@DU?$char_traits@D@std@@V?$allocator@D@2@@std@@HU?$less@V?$basic_string@DU?$char_traits@D@std@@V?$allocator@D@2@@std@@@2@V?$allocator@U?$pair@$$CBV?$basic_string@DU?$char_traits@D@std@@V?$allocator@D@2@@std@@H@std@@@2@@std@@QAEAAH$$QAV?$basic_string@DU?$char_traits@D@std@@V?$allocator@D@2@@1@@Z ; std::map<std::basic_string<char,std::char_traits<char>,std::allocator<char> >,int,std::less<std::basic_string<char,std::char_traits<char>,std::allocator<char> > >,std::allocator<std::pair<std::basic_string<char,std::char_traits<char>,std::allocator<char> > const ,int> > >::operator[]
; File C:\Program Files\Microsoft Visual Studio\2022\Community\VC\Tools\MSVC\14.44.35207\include\xstring

; 1383 :         _Tidy_deallocate();

  01d9c	8d 4d d4	 lea	 ecx, DWORD PTR $T448[ebp]
; File C:\Anka2Project\Anka2Project\Source\Binary\source\UserInterface\PythonNetworkStreamCommand.cpp

; 652  : 			s_emotionDict["snowball"] = CRaceMotionData::NAME_EMOTION_20;

  01d9f	c6 45 fc 00	 mov	 BYTE PTR __$EHRec$[ebp+8], 0
  01da3	c7 00 70 01 00
	00		 mov	 DWORD PTR [eax], 368	; 00000170H
; File C:\Program Files\Microsoft Visual Studio\2022\Community\VC\Tools\MSVC\14.44.35207\include\xstring

; 1383 :         _Tidy_deallocate();

  01da9	e8 00 00 00 00	 call	 ?_Tidy_deallocate@?$basic_string@DU?$char_traits@D@std@@V?$allocator@D@2@@std@@AAEXXZ ; std::basic_string<char,std::char_traits<char>,std::allocator<char> >::_Tidy_deallocate
; File C:\Anka2Project\Anka2Project\Source\Binary\source\UserInterface\PythonNetworkStreamCommand.cpp

; 653  : 			s_emotionDict["surprised2"] = CRaceMotionData::NAME_EMOTION_21;

  01dae	68 00 00 00 00	 push	 OFFSET ??_C@_0L@NFPFHLMN@surprised2@
  01db3	8d 4d d4	 lea	 ecx, DWORD PTR $T449[ebp]
  01db6	e8 00 00 00 00	 call	 ??0?$basic_string@DU?$char_traits@D@std@@V?$allocator@D@2@@std@@QAE@QBD@Z ; std::basic_string<char,std::char_traits<char>,std::allocator<char> >::basic_string<char,std::char_traits<char>,std::allocator<char> >
  01dbb	8d 45 d4	 lea	 eax, DWORD PTR $T449[ebp]
  01dbe	c6 45 fc 21	 mov	 BYTE PTR __$EHRec$[ebp+8], 33 ; 00000021H
  01dc2	50		 push	 eax
  01dc3	b9 00 00 00 00	 mov	 ecx, OFFSET ?s_emotionDict@?BAB@??ServerCommand@CPythonNetworkStream@@QAEXPAD@Z@4V?$map@V?$basic_string@DU?$char_traits@D@std@@V?$allocator@D@2@@std@@HU?$less@V?$basic_string@DU?$char_traits@D@std@@V?$allocator@D@2@@std@@@2@V?$allocator@U?$pair@$$CBV?$basic_string@DU?$char_traits@D@std@@V?$allocator@D@2@@std@@H@std@@@2@@std@@A
  01dc8	e8 00 00 00 00	 call	 ??A?$map@V?$basic_string@DU?$char_traits@D@std@@V?$allocator@D@2@@std@@HU?$less@V?$basic_string@DU?$char_traits@D@std@@V?$allocator@D@2@@std@@@2@V?$allocator@U?$pair@$$CBV?$basic_string@DU?$char_traits@D@std@@V?$allocator@D@2@@std@@H@std@@@2@@std@@QAEAAH$$QAV?$basic_string@DU?$char_traits@D@std@@V?$allocator@D@2@@1@@Z ; std::map<std::basic_string<char,std::char_traits<char>,std::allocator<char> >,int,std::less<std::basic_string<char,std::char_traits<char>,std::allocator<char> > >,std::allocator<std::pair<std::basic_string<char,std::char_traits<char>,std::allocator<char> > const ,int> > >::operator[]
; File C:\Program Files\Microsoft Visual Studio\2022\Community\VC\Tools\MSVC\14.44.35207\include\xstring

; 1383 :         _Tidy_deallocate();

  01dcd	8d 4d d4	 lea	 ecx, DWORD PTR $T449[ebp]
; File C:\Anka2Project\Anka2Project\Source\Binary\source\UserInterface\PythonNetworkStreamCommand.cpp

; 653  : 			s_emotionDict["surprised2"] = CRaceMotionData::NAME_EMOTION_21;

  01dd0	c6 45 fc 00	 mov	 BYTE PTR __$EHRec$[ebp+8], 0
  01dd4	c7 00 71 01 00
	00		 mov	 DWORD PTR [eax], 369	; 00000171H
; File C:\Program Files\Microsoft Visual Studio\2022\Community\VC\Tools\MSVC\14.44.35207\include\xstring

; 1383 :         _Tidy_deallocate();

  01dda	e8 00 00 00 00	 call	 ?_Tidy_deallocate@?$basic_string@DU?$char_traits@D@std@@V?$allocator@D@2@@std@@AAEXXZ ; std::basic_string<char,std::char_traits<char>,std::allocator<char> >::_Tidy_deallocate
; File C:\Anka2Project\Anka2Project\Source\Binary\source\UserInterface\PythonNetworkStreamCommand.cpp

; 654  : 			s_emotionDict["forgive"] = CRaceMotionData::NAME_FORGIVE;

  01ddf	68 00 00 00 00	 push	 OFFSET ??_C@_07JCIHIBLI@forgive@
  01de4	8d 4d d4	 lea	 ecx, DWORD PTR $T450[ebp]
  01de7	e8 00 00 00 00	 call	 ??0?$basic_string@DU?$char_traits@D@std@@V?$allocator@D@2@@std@@QAE@QBD@Z ; std::basic_string<char,std::char_traits<char>,std::allocator<char> >::basic_string<char,std::char_traits<char>,std::allocator<char> >
  01dec	8d 45 d4	 lea	 eax, DWORD PTR $T450[ebp]
  01def	c6 45 fc 22	 mov	 BYTE PTR __$EHRec$[ebp+8], 34 ; 00000022H
  01df3	50		 push	 eax
  01df4	b9 00 00 00 00	 mov	 ecx, OFFSET ?s_emotionDict@?BAB@??ServerCommand@CPythonNetworkStream@@QAEXPAD@Z@4V?$map@V?$basic_string@DU?$char_traits@D@std@@V?$allocator@D@2@@std@@HU?$less@V?$basic_string@DU?$char_traits@D@std@@V?$allocator@D@2@@std@@@2@V?$allocator@U?$pair@$$CBV?$basic_string@DU?$char_traits@D@std@@V?$allocator@D@2@@std@@H@std@@@2@@std@@A
  01df9	e8 00 00 00 00	 call	 ??A?$map@V?$basic_string@DU?$char_traits@D@std@@V?$allocator@D@2@@std@@HU?$less@V?$basic_string@DU?$char_traits@D@std@@V?$allocator@D@2@@std@@@2@V?$allocator@U?$pair@$$CBV?$basic_string@DU?$char_traits@D@std@@V?$allocator@D@2@@std@@H@std@@@2@@std@@QAEAAH$$QAV?$basic_string@DU?$char_traits@D@std@@V?$allocator@D@2@@1@@Z ; std::map<std::basic_string<char,std::char_traits<char>,std::allocator<char> >,int,std::less<std::basic_string<char,std::char_traits<char>,std::allocator<char> > >,std::allocator<std::pair<std::basic_string<char,std::char_traits<char>,std::allocator<char> > const ,int> > >::operator[]
; File C:\Program Files\Microsoft Visual Studio\2022\Community\VC\Tools\MSVC\14.44.35207\include\xstring

; 1383 :         _Tidy_deallocate();

  01dfe	8d 4d d4	 lea	 ecx, DWORD PTR $T450[ebp]
; File C:\Anka2Project\Anka2Project\Source\Binary\source\UserInterface\PythonNetworkStreamCommand.cpp

; 654  : 			s_emotionDict["forgive"] = CRaceMotionData::NAME_FORGIVE;

  01e01	c6 45 fc 00	 mov	 BYTE PTR __$EHRec$[ebp+8], 0
  01e05	c7 00 72 01 00
	00		 mov	 DWORD PTR [eax], 370	; 00000172H
; File C:\Program Files\Microsoft Visual Studio\2022\Community\VC\Tools\MSVC\14.44.35207\include\xstring

; 1383 :         _Tidy_deallocate();

  01e0b	e8 00 00 00 00	 call	 ?_Tidy_deallocate@?$basic_string@DU?$char_traits@D@std@@V?$allocator@D@2@@std@@AAEXXZ ; std::basic_string<char,std::char_traits<char>,std::allocator<char> >::_Tidy_deallocate
; File C:\Anka2Project\Anka2Project\Source\Binary\source\UserInterface\PythonNetworkStreamCommand.cpp

; 655  : 			s_emotionDict["angry"] = CRaceMotionData::NAME_ANGRY;

  01e10	68 00 00 00 00	 push	 OFFSET ??_C@_05KEOOPKLE@angry@
  01e15	8d 4d d4	 lea	 ecx, DWORD PTR $T451[ebp]
  01e18	e8 00 00 00 00	 call	 ??0?$basic_string@DU?$char_traits@D@std@@V?$allocator@D@2@@std@@QAE@QBD@Z ; std::basic_string<char,std::char_traits<char>,std::allocator<char> >::basic_string<char,std::char_traits<char>,std::allocator<char> >
  01e1d	8d 45 d4	 lea	 eax, DWORD PTR $T451[ebp]
  01e20	c6 45 fc 23	 mov	 BYTE PTR __$EHRec$[ebp+8], 35 ; 00000023H
  01e24	50		 push	 eax
  01e25	b9 00 00 00 00	 mov	 ecx, OFFSET ?s_emotionDict@?BAB@??ServerCommand@CPythonNetworkStream@@QAEXPAD@Z@4V?$map@V?$basic_string@DU?$char_traits@D@std@@V?$allocator@D@2@@std@@HU?$less@V?$basic_string@DU?$char_traits@D@std@@V?$allocator@D@2@@std@@@2@V?$allocator@U?$pair@$$CBV?$basic_string@DU?$char_traits@D@std@@V?$allocator@D@2@@std@@H@std@@@2@@std@@A
  01e2a	e8 00 00 00 00	 call	 ??A?$map@V?$basic_string@DU?$char_traits@D@std@@V?$allocator@D@2@@std@@HU?$less@V?$basic_string@DU?$char_traits@D@std@@V?$allocator@D@2@@std@@@2@V?$allocator@U?$pair@$$CBV?$basic_string@DU?$char_traits@D@std@@V?$allocator@D@2@@std@@H@std@@@2@@std@@QAEAAH$$QAV?$basic_string@DU?$char_traits@D@std@@V?$allocator@D@2@@1@@Z ; std::map<std::basic_string<char,std::char_traits<char>,std::allocator<char> >,int,std::less<std::basic_string<char,std::char_traits<char>,std::allocator<char> > >,std::allocator<std::pair<std::basic_string<char,std::char_traits<char>,std::allocator<char> > const ,int> > >::operator[]
; File C:\Program Files\Microsoft Visual Studio\2022\Community\VC\Tools\MSVC\14.44.35207\include\xstring

; 1383 :         _Tidy_deallocate();

  01e2f	8d 4d d4	 lea	 ecx, DWORD PTR $T451[ebp]
; File C:\Anka2Project\Anka2Project\Source\Binary\source\UserInterface\PythonNetworkStreamCommand.cpp

; 655  : 			s_emotionDict["angry"] = CRaceMotionData::NAME_ANGRY;

  01e32	c6 45 fc 00	 mov	 BYTE PTR __$EHRec$[ebp+8], 0
  01e36	c7 00 73 01 00
	00		 mov	 DWORD PTR [eax], 371	; 00000173H
; File C:\Program Files\Microsoft Visual Studio\2022\Community\VC\Tools\MSVC\14.44.35207\include\xstring

; 1383 :         _Tidy_deallocate();

  01e3c	e8 00 00 00 00	 call	 ?_Tidy_deallocate@?$basic_string@DU?$char_traits@D@std@@V?$allocator@D@2@@std@@AAEXXZ ; std::basic_string<char,std::char_traits<char>,std::allocator<char> >::_Tidy_deallocate
; File C:\Anka2Project\Anka2Project\Source\Binary\source\UserInterface\PythonNetworkStreamCommand.cpp

; 656  : 			s_emotionDict["attractive"] = CRaceMotionData::NAME_ATTRACTIVE;

  01e41	68 00 00 00 00	 push	 OFFSET ??_C@_0L@BIJBGJBO@attractive@
  01e46	8d 4d d4	 lea	 ecx, DWORD PTR $T452[ebp]
  01e49	e8 00 00 00 00	 call	 ??0?$basic_string@DU?$char_traits@D@std@@V?$allocator@D@2@@std@@QAE@QBD@Z ; std::basic_string<char,std::char_traits<char>,std::allocator<char> >::basic_string<char,std::char_traits<char>,std::allocator<char> >
  01e4e	8d 45 d4	 lea	 eax, DWORD PTR $T452[ebp]
  01e51	c6 45 fc 24	 mov	 BYTE PTR __$EHRec$[ebp+8], 36 ; 00000024H
  01e55	50		 push	 eax
  01e56	b9 00 00 00 00	 mov	 ecx, OFFSET ?s_emotionDict@?BAB@??ServerCommand@CPythonNetworkStream@@QAEXPAD@Z@4V?$map@V?$basic_string@DU?$char_traits@D@std@@V?$allocator@D@2@@std@@HU?$less@V?$basic_string@DU?$char_traits@D@std@@V?$allocator@D@2@@std@@@2@V?$allocator@U?$pair@$$CBV?$basic_string@DU?$char_traits@D@std@@V?$allocator@D@2@@std@@H@std@@@2@@std@@A
  01e5b	e8 00 00 00 00	 call	 ??A?$map@V?$basic_string@DU?$char_traits@D@std@@V?$allocator@D@2@@std@@HU?$less@V?$basic_string@DU?$char_traits@D@std@@V?$allocator@D@2@@std@@@2@V?$allocator@U?$pair@$$CBV?$basic_string@DU?$char_traits@D@std@@V?$allocator@D@2@@std@@H@std@@@2@@std@@QAEAAH$$QAV?$basic_string@DU?$char_traits@D@std@@V?$allocator@D@2@@1@@Z ; std::map<std::basic_string<char,std::char_traits<char>,std::allocator<char> >,int,std::less<std::basic_string<char,std::char_traits<char>,std::allocator<char> > >,std::allocator<std::pair<std::basic_string<char,std::char_traits<char>,std::allocator<char> > const ,int> > >::operator[]
; File C:\Program Files\Microsoft Visual Studio\2022\Community\VC\Tools\MSVC\14.44.35207\include\xstring

; 1383 :         _Tidy_deallocate();

  01e60	8d 4d d4	 lea	 ecx, DWORD PTR $T452[ebp]
; File C:\Anka2Project\Anka2Project\Source\Binary\source\UserInterface\PythonNetworkStreamCommand.cpp

; 656  : 			s_emotionDict["attractive"] = CRaceMotionData::NAME_ATTRACTIVE;

  01e63	c7 00 74 01 00
	00		 mov	 DWORD PTR [eax], 372	; 00000174H
  01e69	c6 45 fc 00	 mov	 BYTE PTR __$EHRec$[ebp+8], 0
; File C:\Program Files\Microsoft Visual Studio\2022\Community\VC\Tools\MSVC\14.44.35207\include\xstring

; 1383 :         _Tidy_deallocate();

  01e6d	e8 00 00 00 00	 call	 ?_Tidy_deallocate@?$basic_string@DU?$char_traits@D@std@@V?$allocator@D@2@@std@@AAEXXZ ; std::basic_string<char,std::char_traits<char>,std::allocator<char> >::_Tidy_deallocate
; File C:\Anka2Project\Anka2Project\Source\Binary\source\UserInterface\PythonNetworkStreamCommand.cpp

; 657  : 			s_emotionDict["sad"] = CRaceMotionData::NAME_SAD;

  01e72	68 00 00 00 00	 push	 OFFSET ??_C@_03OPLFCACF@sad@
  01e77	8d 4d d4	 lea	 ecx, DWORD PTR $T453[ebp]
  01e7a	e8 00 00 00 00	 call	 ??0?$basic_string@DU?$char_traits@D@std@@V?$allocator@D@2@@std@@QAE@QBD@Z ; std::basic_string<char,std::char_traits<char>,std::allocator<char> >::basic_string<char,std::char_traits<char>,std::allocator<char> >
  01e7f	8d 45 d4	 lea	 eax, DWORD PTR $T453[ebp]
  01e82	c6 45 fc 25	 mov	 BYTE PTR __$EHRec$[ebp+8], 37 ; 00000025H
  01e86	50		 push	 eax
  01e87	b9 00 00 00 00	 mov	 ecx, OFFSET ?s_emotionDict@?BAB@??ServerCommand@CPythonNetworkStream@@QAEXPAD@Z@4V?$map@V?$basic_string@DU?$char_traits@D@std@@V?$allocator@D@2@@std@@HU?$less@V?$basic_string@DU?$char_traits@D@std@@V?$allocator@D@2@@std@@@2@V?$allocator@U?$pair@$$CBV?$basic_string@DU?$char_traits@D@std@@V?$allocator@D@2@@std@@H@std@@@2@@std@@A
  01e8c	e8 00 00 00 00	 call	 ??A?$map@V?$basic_string@DU?$char_traits@D@std@@V?$allocator@D@2@@std@@HU?$less@V?$basic_string@DU?$char_traits@D@std@@V?$allocator@D@2@@std@@@2@V?$allocator@U?$pair@$$CBV?$basic_string@DU?$char_traits@D@std@@V?$allocator@D@2@@std@@H@std@@@2@@std@@QAEAAH$$QAV?$basic_string@DU?$char_traits@D@std@@V?$allocator@D@2@@1@@Z ; std::map<std::basic_string<char,std::char_traits<char>,std::allocator<char> >,int,std::less<std::basic_string<char,std::char_traits<char>,std::allocator<char> > >,std::allocator<std::pair<std::basic_string<char,std::char_traits<char>,std::allocator<char> > const ,int> > >::operator[]
; File C:\Program Files\Microsoft Visual Studio\2022\Community\VC\Tools\MSVC\14.44.35207\include\xstring

; 1383 :         _Tidy_deallocate();

  01e91	8d 4d d4	 lea	 ecx, DWORD PTR $T453[ebp]
; File C:\Anka2Project\Anka2Project\Source\Binary\source\UserInterface\PythonNetworkStreamCommand.cpp

; 657  : 			s_emotionDict["sad"] = CRaceMotionData::NAME_SAD;

  01e94	c6 45 fc 00	 mov	 BYTE PTR __$EHRec$[ebp+8], 0
  01e98	c7 00 75 01 00
	00		 mov	 DWORD PTR [eax], 373	; 00000175H
; File C:\Program Files\Microsoft Visual Studio\2022\Community\VC\Tools\MSVC\14.44.35207\include\xstring

; 1383 :         _Tidy_deallocate();

  01e9e	e8 00 00 00 00	 call	 ?_Tidy_deallocate@?$basic_string@DU?$char_traits@D@std@@V?$allocator@D@2@@std@@AAEXXZ ; std::basic_string<char,std::char_traits<char>,std::allocator<char> >::_Tidy_deallocate
; File C:\Anka2Project\Anka2Project\Source\Binary\source\UserInterface\PythonNetworkStreamCommand.cpp

; 658  : 			s_emotionDict["shy"] = CRaceMotionData::NAME_SHY;

  01ea3	68 00 00 00 00	 push	 OFFSET ??_C@_03BPAIHHLG@shy@
  01ea8	8d 4d d4	 lea	 ecx, DWORD PTR $T454[ebp]
  01eab	e8 00 00 00 00	 call	 ??0?$basic_string@DU?$char_traits@D@std@@V?$allocator@D@2@@std@@QAE@QBD@Z ; std::basic_string<char,std::char_traits<char>,std::allocator<char> >::basic_string<char,std::char_traits<char>,std::allocator<char> >
  01eb0	8d 45 d4	 lea	 eax, DWORD PTR $T454[ebp]
  01eb3	c6 45 fc 26	 mov	 BYTE PTR __$EHRec$[ebp+8], 38 ; 00000026H
  01eb7	50		 push	 eax
  01eb8	b9 00 00 00 00	 mov	 ecx, OFFSET ?s_emotionDict@?BAB@??ServerCommand@CPythonNetworkStream@@QAEXPAD@Z@4V?$map@V?$basic_string@DU?$char_traits@D@std@@V?$allocator@D@2@@std@@HU?$less@V?$basic_string@DU?$char_traits@D@std@@V?$allocator@D@2@@std@@@2@V?$allocator@U?$pair@$$CBV?$basic_string@DU?$char_traits@D@std@@V?$allocator@D@2@@std@@H@std@@@2@@std@@A
  01ebd	e8 00 00 00 00	 call	 ??A?$map@V?$basic_string@DU?$char_traits@D@std@@V?$allocator@D@2@@std@@HU?$less@V?$basic_string@DU?$char_traits@D@std@@V?$allocator@D@2@@std@@@2@V?$allocator@U?$pair@$$CBV?$basic_string@DU?$char_traits@D@std@@V?$allocator@D@2@@std@@H@std@@@2@@std@@QAEAAH$$QAV?$basic_string@DU?$char_traits@D@std@@V?$allocator@D@2@@1@@Z ; std::map<std::basic_string<char,std::char_traits<char>,std::allocator<char> >,int,std::less<std::basic_string<char,std::char_traits<char>,std::allocator<char> > >,std::allocator<std::pair<std::basic_string<char,std::char_traits<char>,std::allocator<char> > const ,int> > >::operator[]
; File C:\Program Files\Microsoft Visual Studio\2022\Community\VC\Tools\MSVC\14.44.35207\include\xstring

; 1383 :         _Tidy_deallocate();

  01ec2	8d 4d d4	 lea	 ecx, DWORD PTR $T454[ebp]
; File C:\Anka2Project\Anka2Project\Source\Binary\source\UserInterface\PythonNetworkStreamCommand.cpp

; 658  : 			s_emotionDict["shy"] = CRaceMotionData::NAME_SHY;

  01ec5	c6 45 fc 00	 mov	 BYTE PTR __$EHRec$[ebp+8], 0
  01ec9	c7 00 76 01 00
	00		 mov	 DWORD PTR [eax], 374	; 00000176H
; File C:\Program Files\Microsoft Visual Studio\2022\Community\VC\Tools\MSVC\14.44.35207\include\xstring

; 1383 :         _Tidy_deallocate();

  01ecf	e8 00 00 00 00	 call	 ?_Tidy_deallocate@?$basic_string@DU?$char_traits@D@std@@V?$allocator@D@2@@std@@AAEXXZ ; std::basic_string<char,std::char_traits<char>,std::allocator<char> >::_Tidy_deallocate
; File C:\Anka2Project\Anka2Project\Source\Binary\source\UserInterface\PythonNetworkStreamCommand.cpp

; 659  : 			s_emotionDict["cheerup"] = CRaceMotionData::NAME_CHEERUP;

  01ed4	68 00 00 00 00	 push	 OFFSET ??_C@_07MJDIFIMC@cheerup@
  01ed9	8d 4d d4	 lea	 ecx, DWORD PTR $T455[ebp]
  01edc	e8 00 00 00 00	 call	 ??0?$basic_string@DU?$char_traits@D@std@@V?$allocator@D@2@@std@@QAE@QBD@Z ; std::basic_string<char,std::char_traits<char>,std::allocator<char> >::basic_string<char,std::char_traits<char>,std::allocator<char> >
  01ee1	8d 45 d4	 lea	 eax, DWORD PTR $T455[ebp]
  01ee4	c6 45 fc 27	 mov	 BYTE PTR __$EHRec$[ebp+8], 39 ; 00000027H
  01ee8	50		 push	 eax
  01ee9	b9 00 00 00 00	 mov	 ecx, OFFSET ?s_emotionDict@?BAB@??ServerCommand@CPythonNetworkStream@@QAEXPAD@Z@4V?$map@V?$basic_string@DU?$char_traits@D@std@@V?$allocator@D@2@@std@@HU?$less@V?$basic_string@DU?$char_traits@D@std@@V?$allocator@D@2@@std@@@2@V?$allocator@U?$pair@$$CBV?$basic_string@DU?$char_traits@D@std@@V?$allocator@D@2@@std@@H@std@@@2@@std@@A
  01eee	e8 00 00 00 00	 call	 ??A?$map@V?$basic_string@DU?$char_traits@D@std@@V?$allocator@D@2@@std@@HU?$less@V?$basic_string@DU?$char_traits@D@std@@V?$allocator@D@2@@std@@@2@V?$allocator@U?$pair@$$CBV?$basic_string@DU?$char_traits@D@std@@V?$allocator@D@2@@std@@H@std@@@2@@std@@QAEAAH$$QAV?$basic_string@DU?$char_traits@D@std@@V?$allocator@D@2@@1@@Z ; std::map<std::basic_string<char,std::char_traits<char>,std::allocator<char> >,int,std::less<std::basic_string<char,std::char_traits<char>,std::allocator<char> > >,std::allocator<std::pair<std::basic_string<char,std::char_traits<char>,std::allocator<char> > const ,int> > >::operator[]
; File C:\Program Files\Microsoft Visual Studio\2022\Community\VC\Tools\MSVC\14.44.35207\include\xstring

; 1383 :         _Tidy_deallocate();

  01ef3	8d 4d d4	 lea	 ecx, DWORD PTR $T455[ebp]
; File C:\Anka2Project\Anka2Project\Source\Binary\source\UserInterface\PythonNetworkStreamCommand.cpp

; 659  : 			s_emotionDict["cheerup"] = CRaceMotionData::NAME_CHEERUP;

  01ef6	c6 45 fc 00	 mov	 BYTE PTR __$EHRec$[ebp+8], 0
  01efa	c7 00 77 01 00
	00		 mov	 DWORD PTR [eax], 375	; 00000177H
; File C:\Program Files\Microsoft Visual Studio\2022\Community\VC\Tools\MSVC\14.44.35207\include\xstring

; 1383 :         _Tidy_deallocate();

  01f00	e8 00 00 00 00	 call	 ?_Tidy_deallocate@?$basic_string@DU?$char_traits@D@std@@V?$allocator@D@2@@std@@AAEXXZ ; std::basic_string<char,std::char_traits<char>,std::allocator<char> >::_Tidy_deallocate
; File C:\Anka2Project\Anka2Project\Source\Binary\source\UserInterface\PythonNetworkStreamCommand.cpp

; 660  : 			s_emotionDict["banter"] = CRaceMotionData::NAME_BANTER;

  01f05	68 00 00 00 00	 push	 OFFSET ??_C@_06CMFIENOK@banter@
  01f0a	8d 4d d4	 lea	 ecx, DWORD PTR $T456[ebp]
  01f0d	e8 00 00 00 00	 call	 ??0?$basic_string@DU?$char_traits@D@std@@V?$allocator@D@2@@std@@QAE@QBD@Z ; std::basic_string<char,std::char_traits<char>,std::allocator<char> >::basic_string<char,std::char_traits<char>,std::allocator<char> >
  01f12	8d 45 d4	 lea	 eax, DWORD PTR $T456[ebp]
  01f15	c6 45 fc 28	 mov	 BYTE PTR __$EHRec$[ebp+8], 40 ; 00000028H
  01f19	50		 push	 eax
  01f1a	b9 00 00 00 00	 mov	 ecx, OFFSET ?s_emotionDict@?BAB@??ServerCommand@CPythonNetworkStream@@QAEXPAD@Z@4V?$map@V?$basic_string@DU?$char_traits@D@std@@V?$allocator@D@2@@std@@HU?$less@V?$basic_string@DU?$char_traits@D@std@@V?$allocator@D@2@@std@@@2@V?$allocator@U?$pair@$$CBV?$basic_string@DU?$char_traits@D@std@@V?$allocator@D@2@@std@@H@std@@@2@@std@@A
  01f1f	e8 00 00 00 00	 call	 ??A?$map@V?$basic_string@DU?$char_traits@D@std@@V?$allocator@D@2@@std@@HU?$less@V?$basic_string@DU?$char_traits@D@std@@V?$allocator@D@2@@std@@@2@V?$allocator@U?$pair@$$CBV?$basic_string@DU?$char_traits@D@std@@V?$allocator@D@2@@std@@H@std@@@2@@std@@QAEAAH$$QAV?$basic_string@DU?$char_traits@D@std@@V?$allocator@D@2@@1@@Z ; std::map<std::basic_string<char,std::char_traits<char>,std::allocator<char> >,int,std::less<std::basic_string<char,std::char_traits<char>,std::allocator<char> > >,std::allocator<std::pair<std::basic_string<char,std::char_traits<char>,std::allocator<char> > const ,int> > >::operator[]
; File C:\Program Files\Microsoft Visual Studio\2022\Community\VC\Tools\MSVC\14.44.35207\include\xstring

; 1383 :         _Tidy_deallocate();

  01f24	8d 4d d4	 lea	 ecx, DWORD PTR $T456[ebp]
; File C:\Anka2Project\Anka2Project\Source\Binary\source\UserInterface\PythonNetworkStreamCommand.cpp

; 660  : 			s_emotionDict["banter"] = CRaceMotionData::NAME_BANTER;

  01f27	c6 45 fc 00	 mov	 BYTE PTR __$EHRec$[ebp+8], 0
  01f2b	c7 00 78 01 00
	00		 mov	 DWORD PTR [eax], 376	; 00000178H
; File C:\Program Files\Microsoft Visual Studio\2022\Community\VC\Tools\MSVC\14.44.35207\include\xstring

; 1383 :         _Tidy_deallocate();

  01f31	e8 00 00 00 00	 call	 ?_Tidy_deallocate@?$basic_string@DU?$char_traits@D@std@@V?$allocator@D@2@@std@@AAEXXZ ; std::basic_string<char,std::char_traits<char>,std::allocator<char> >::_Tidy_deallocate
; File C:\Anka2Project\Anka2Project\Source\Binary\source\UserInterface\PythonNetworkStreamCommand.cpp

; 661  : 			s_emotionDict["joy"] = CRaceMotionData::NAME_JOY;

  01f36	68 00 00 00 00	 push	 OFFSET ??_C@_03DHFGHJCG@joy@
  01f3b	8d 4d d4	 lea	 ecx, DWORD PTR $T457[ebp]
  01f3e	e8 00 00 00 00	 call	 ??0?$basic_string@DU?$char_traits@D@std@@V?$allocator@D@2@@std@@QAE@QBD@Z ; std::basic_string<char,std::char_traits<char>,std::allocator<char> >::basic_string<char,std::char_traits<char>,std::allocator<char> >
  01f43	8d 45 d4	 lea	 eax, DWORD PTR $T457[ebp]
  01f46	c6 45 fc 29	 mov	 BYTE PTR __$EHRec$[ebp+8], 41 ; 00000029H
  01f4a	50		 push	 eax
  01f4b	b9 00 00 00 00	 mov	 ecx, OFFSET ?s_emotionDict@?BAB@??ServerCommand@CPythonNetworkStream@@QAEXPAD@Z@4V?$map@V?$basic_string@DU?$char_traits@D@std@@V?$allocator@D@2@@std@@HU?$less@V?$basic_string@DU?$char_traits@D@std@@V?$allocator@D@2@@std@@@2@V?$allocator@U?$pair@$$CBV?$basic_string@DU?$char_traits@D@std@@V?$allocator@D@2@@std@@H@std@@@2@@std@@A
  01f50	e8 00 00 00 00	 call	 ??A?$map@V?$basic_string@DU?$char_traits@D@std@@V?$allocator@D@2@@std@@HU?$less@V?$basic_string@DU?$char_traits@D@std@@V?$allocator@D@2@@std@@@2@V?$allocator@U?$pair@$$CBV?$basic_string@DU?$char_traits@D@std@@V?$allocator@D@2@@std@@H@std@@@2@@std@@QAEAAH$$QAV?$basic_string@DU?$char_traits@D@std@@V?$allocator@D@2@@1@@Z ; std::map<std::basic_string<char,std::char_traits<char>,std::allocator<char> >,int,std::less<std::basic_string<char,std::char_traits<char>,std::allocator<char> > >,std::allocator<std::pair<std::basic_string<char,std::char_traits<char>,std::allocator<char> > const ,int> > >::operator[]
; File C:\Program Files\Microsoft Visual Studio\2022\Community\VC\Tools\MSVC\14.44.35207\include\xstring

; 1383 :         _Tidy_deallocate();

  01f55	8d 4d d4	 lea	 ecx, DWORD PTR $T457[ebp]
; File C:\Anka2Project\Anka2Project\Source\Binary\source\UserInterface\PythonNetworkStreamCommand.cpp

; 661  : 			s_emotionDict["joy"] = CRaceMotionData::NAME_JOY;

  01f58	c6 45 fc 00	 mov	 BYTE PTR __$EHRec$[ebp+8], 0
  01f5c	c7 00 79 01 00
	00		 mov	 DWORD PTR [eax], 377	; 00000179H
; File C:\Program Files\Microsoft Visual Studio\2022\Community\VC\Tools\MSVC\14.44.35207\include\xstring

; 1383 :         _Tidy_deallocate();

  01f62	e8 00 00 00 00	 call	 ?_Tidy_deallocate@?$basic_string@DU?$char_traits@D@std@@V?$allocator@D@2@@std@@AAEXXZ ; std::basic_string<char,std::char_traits<char>,std::allocator<char> >::_Tidy_deallocate
$LN3106@ServerComm:
; File C:\Anka2Project\Anka2Project\Source\Binary\source\UserInterface\PythonNetworkStreamCommand.cpp

; 664  : 		std::map<std::string, int>::iterator f = s_emotionDict.find(szCmd);

  01f67	56		 push	 esi
  01f68	8d 4d d4	 lea	 ecx, DWORD PTR $T458[ebp]
  01f6b	e8 00 00 00 00	 call	 ??0?$basic_string@DU?$char_traits@D@std@@V?$allocator@D@2@@std@@QAE@QBD@Z ; std::basic_string<char,std::char_traits<char>,std::allocator<char> >::basic_string<char,std::char_traits<char>,std::allocator<char> >
  01f70	8d 45 d4	 lea	 eax, DWORD PTR $T458[ebp]
  01f73	b9 00 00 00 00	 mov	 ecx, OFFSET ?s_emotionDict@?BAB@??ServerCommand@CPythonNetworkStream@@QAEXPAD@Z@4V?$map@V?$basic_string@DU?$char_traits@D@std@@V?$allocator@D@2@@std@@HU?$less@V?$basic_string@DU?$char_traits@D@std@@V?$allocator@D@2@@std@@@2@V?$allocator@U?$pair@$$CBV?$basic_string@DU?$char_traits@D@std@@V?$allocator@D@2@@std@@H@std@@@2@@std@@A
  01f78	50		 push	 eax
  01f79	8d 45 b4	 lea	 eax, DWORD PTR _f$467[ebp]
  01f7c	50		 push	 eax
  01f7d	e8 00 00 00 00	 call	 ?find@?$_Tree@V?$_Tmap_traits@V?$basic_string@DU?$char_traits@D@std@@V?$allocator@D@2@@std@@HU?$less@V?$basic_string@DU?$char_traits@D@std@@V?$allocator@D@2@@std@@@2@V?$allocator@U?$pair@$$CBV?$basic_string@DU?$char_traits@D@std@@V?$allocator@D@2@@std@@H@std@@@2@$0A@@std@@@std@@QAE?AV?$_Tree_iterator@V?$_Tree_val@U?$_Tree_simple_types@U?$pair@$$CBV?$basic_string@DU?$char_traits@D@std@@V?$allocator@D@2@@std@@H@std@@@std@@@std@@@2@ABV?$basic_string@DU?$char_traits@D@std@@V?$allocator@D@2@@2@@Z ; std::_Tree<std::_Tmap_traits<std::basic_string<char,std::char_traits<char>,std::allocator<char> >,int,std::less<std::basic_string<char,std::char_traits<char>,std::allocator<char> > >,std::allocator<std::pair<std::basic_string<char,std::char_traits<char>,std::allocator<char> > const ,int> >,0> >::find
; File C:\Program Files\Microsoft Visual Studio\2022\Community\VC\Tools\MSVC\14.44.35207\include\xstring

; 1383 :         _Tidy_deallocate();

  01f82	8d 4d d4	 lea	 ecx, DWORD PTR $T458[ebp]
  01f85	e8 00 00 00 00	 call	 ?_Tidy_deallocate@?$basic_string@DU?$char_traits@D@std@@V?$allocator@D@2@@std@@AAEXXZ ; std::basic_string<char,std::char_traits<char>,std::allocator<char> >::_Tidy_deallocate
; File C:\Program Files\Microsoft Visual Studio\2022\Community\VC\Tools\MSVC\14.44.35207\include\xtree

; 37   :     _Tree_unchecked_const_iterator(_Nodeptr _Pnode, const _Mytree* _Plist) noexcept : _Ptr(_Pnode) {

  01f8a	8b 45 b4	 mov	 eax, DWORD PTR _f$467[ebp]
  01f8d	3b 05 00 00 00
	00		 cmp	 eax, DWORD PTR ?s_emotionDict@?BAB@??ServerCommand@CPythonNetworkStream@@QAEXPAD@Z@4V?$map@V?$basic_string@DU?$char_traits@D@std@@V?$allocator@D@2@@std@@HU?$less@V?$basic_string@DU?$char_traits@D@std@@V?$allocator@D@2@@std@@@2@V?$allocator@U?$pair@$$CBV?$basic_string@DU?$char_traits@D@std@@V?$allocator@D@2@@std@@H@std@@@2@@std@@A
; File C:\Anka2Project\Anka2Project\Source\Binary\source\UserInterface\PythonNetworkStreamCommand.cpp

; 665  : 		if (f == s_emotionDict.end())

  01f93	75 13		 jne	 SHORT $LN125@ServerComm

; 666  : 		{
; 667  : 			TraceError("Unknown Server Command %s | %s", c_szCommand, szCmd);

  01f95	56		 push	 esi
  01f96	ff 75 ac	 push	 DWORD PTR _c_szCommand$GSCopy$1$[ebp]
  01f99	68 00 00 00 00	 push	 OFFSET ??_C@_0BP@HJIPKFJO@Unknown?5Server?5Command?5?$CFs?5?$HM?5?$CFs@
  01f9e	e8 00 00 00 00	 call	 ?TraceError@@YAXPBDZZ	; TraceError
  01fa3	83 c4 0c	 add	 esp, 12			; 0000000cH

; 668  : 		}

  01fa6	eb 57		 jmp	 SHORT $LN127@ServerComm
$LN125@ServerComm:

; 669  : 		else
; 670  : 		{
; 671  : 			int emotionIndex = f->second;

  01fa8	8b 70 28	 mov	 esi, DWORD PTR [eax+40]

; 673  : 			int iVID = atoi(TokenVector[1].c_str());

  01fab	8d 4d bc	 lea	 ecx, DWORD PTR _TokenVector$[ebp]
  01fae	6a 01		 push	 1
  01fb0	e8 00 00 00 00	 call	 ??A?$vector@V?$basic_string@DU?$char_traits@D@std@@V?$allocator@D@2@@std@@V?$allocator@V?$basic_string@DU?$char_traits@D@std@@V?$allocator@D@2@@std@@@2@@std@@QAEAAV?$basic_string@DU?$char_traits@D@std@@V?$allocator@D@2@@1@I@Z ; std::vector<std::basic_string<char,std::char_traits<char>,std::allocator<char> >,std::allocator<std::basic_string<char,std::char_traits<char>,std::allocator<char> > > >::operator[]
  01fb5	8b c8		 mov	 ecx, eax
  01fb7	e8 00 00 00 00	 call	 ?c_str@?$basic_string@DU?$char_traits@D@std@@V?$allocator@D@2@@std@@QBEPBDXZ ; std::basic_string<char,std::char_traits<char>,std::allocator<char> >::c_str
  01fbc	50		 push	 eax
  01fbd	e8 00 00 00 00	 call	 __atoi64
; File C:\Anka2Project\Anka2Project\Source\Binary\source\UserInterface\AbstractSingleton.h

; 24   : 		assert(ms_singleton!=nullptr);

  01fc2	8b 0d 00 00 00
	00		 mov	 ecx, DWORD PTR ?ms_singleton@?$TAbstractSingleton@VIAbstractCharacterManager@@@@0PAVIAbstractCharacterManager@@A ; TAbstractSingleton<IAbstractCharacterManager>::ms_singleton
; File C:\Anka2Project\Anka2Project\Source\Binary\source\UserInterface\PythonNetworkStreamCommand.cpp

; 673  : 			int iVID = atoi(TokenVector[1].c_str());

  01fc8	83 c4 04	 add	 esp, 4
  01fcb	8b f8		 mov	 edi, eax
; File C:\Anka2Project\Anka2Project\Source\Binary\source\UserInterface\AbstractSingleton.h

; 24   : 		assert(ms_singleton!=nullptr);

  01fcd	85 c9		 test	 ecx, ecx
  01fcf	75 1a		 jne	 SHORT $LN3141@ServerComm
  01fd1	6a 18		 push	 24			; 00000018H
  01fd3	68 00 00 00 00	 push	 OFFSET ??_C@_1KI@FIPHLMOB@?$AAC?$AA?3?$AA?2?$AAA?$AAn?$AAk?$AAa?$AA2?$AAP?$AAr?$AAo?$AAj?$AAe?$AAc?$AAt@
  01fd8	68 00 00 00 00	 push	 OFFSET ??_C@_1CM@FPMBEAEA@?$AAm?$AAs?$AA_?$AAs?$AAi?$AAn?$AAg?$AAl?$AAe?$AAt?$AAo?$AAn?$AA?$CB?$AA?$DN?$AAn@
  01fdd	e8 00 00 00 00	 call	 __wassert
  01fe2	8b 0d 00 00 00
	00		 mov	 ecx, DWORD PTR ?ms_singleton@?$TAbstractSingleton@VIAbstractCharacterManager@@@@0PAVIAbstractCharacterManager@@A ; TAbstractSingleton<IAbstractCharacterManager>::ms_singleton
  01fe8	83 c4 0c	 add	 esp, 12			; 0000000cH
$LN3141@ServerComm:
; File C:\Anka2Project\Anka2Project\Source\Binary\source\UserInterface\PythonNetworkStreamCommand.cpp

; 675  : 			CInstanceBase * pInstance = rkChrMgr.GetInstancePtr(iVID);

  01feb	8b 01		 mov	 eax, DWORD PTR [ecx]
  01fed	57		 push	 edi
  01fee	8b 40 08	 mov	 eax, DWORD PTR [eax+8]
  01ff1	ff d0		 call	 eax

; 676  : 
; 677  : 			if (pInstance)

  01ff3	85 c0		 test	 eax, eax
  01ff5	74 08		 je	 SHORT $LN127@ServerComm

; 678  : 				pInstance->ActEmotion(emotionIndex);

  01ff7	56		 push	 esi
$LN3236@ServerComm:
; File C:\Program Files\Microsoft Visual Studio\2022\Community\VC\Tools\MSVC\14.44.35207\include\vector

; 830  :         _Tidy();

  01ff8	8b c8		 mov	 ecx, eax
  01ffa	e8 00 00 00 00	 call	 ?ActEmotion@CInstanceBase@@QAEXK@Z ; CInstanceBase::ActEmotion
$LN127@ServerComm:
  01fff	8d 4d bc	 lea	 ecx, DWORD PTR _TokenVector$[ebp]
  02002	e8 00 00 00 00	 call	 ?_Tidy@?$vector@V?$basic_string@DU?$char_traits@D@std@@V?$allocator@D@2@@std@@V?$allocator@V?$basic_string@DU?$char_traits@D@std@@V?$allocator@D@2@@std@@@2@@std@@AAEXXZ ; std::vector<std::basic_string<char,std::char_traits<char>,std::allocator<char> >,std::allocator<std::basic_string<char,std::char_traits<char>,std::allocator<char> > > >::_Tidy
$LN194@ServerComm:
; File C:\Anka2Project\Anka2Project\Source\Binary\source\UserInterface\PythonNetworkStreamCommand.cpp

; 681  : }

  02007	8b 4d f4	 mov	 ecx, DWORD PTR __$EHRec$[ebp]
  0200a	64 89 0d 00 00
	00 00		 mov	 DWORD PTR fs:0, ecx
  02011	59		 pop	 ecx
  02012	5f		 pop	 edi
  02013	5e		 pop	 esi
  02014	8b 4d ec	 mov	 ecx, DWORD PTR __$ArrayPad$[ebp]
  02017	33 cd		 xor	 ecx, ebp
  02019	e8 00 00 00 00	 call	 @__security_check_cookie@4
  0201e	8b e5		 mov	 esp, ebp
  02020	5d		 pop	 ebp
  02021	8b e3		 mov	 esp, ebx
  02023	5b		 pop	 ebx
  02024	c2 04 00	 ret	 4
  02027	90		 npad	 1
$LN3226@ServerComm:
  02028	00 00 00 00	 DD	 $LN77@ServerComm
  0202c	00 00 00 00	 DD	 $LN78@ServerComm
  02030	00 00 00 00	 DD	 $LN79@ServerComm
  02034	00 00 00 00	 DD	 $LN80@ServerComm
_TEXT	ENDS
;	COMDAT text$x
text$x	SEGMENT
__unwindfunclet$?ServerCommand@CPythonNetworkStream@@QAEXPAD@Z$0:
  00000	8d 4d bc	 lea	 ecx, DWORD PTR _TokenVector$[ebp]
  00003	e9 00 00 00 00	 jmp	 ??1?$vector@V?$basic_string@DU?$char_traits@D@std@@V?$allocator@D@2@@std@@V?$allocator@V?$basic_string@DU?$char_traits@D@std@@V?$allocator@D@2@@std@@@2@@std@@QAE@XZ ; std::vector<std::basic_string<char,std::char_traits<char>,std::allocator<char> >,std::allocator<std::basic_string<char,std::char_traits<char>,std::allocator<char> > > >::~vector<std::basic_string<char,std::char_traits<char>,std::allocator<char> >,std::allocator<std::basic_string<char,std::char_traits<char>,std::allocator<char> > > >
__unwindfunclet$?ServerCommand@CPythonNetworkStream@@QAEXPAD@Z$1:
  00008	8d 4d d4	 lea	 ecx, DWORD PTR _$S12$471[ebp]
  0000b	e9 00 00 00 00	 jmp	 ??1?$basic_string@DU?$char_traits@D@std@@V?$allocator@D@2@@std@@QAE@XZ ; std::basic_string<char,std::char_traits<char>,std::allocator<char> >::~basic_string<char,std::char_traits<char>,std::allocator<char> >
__unwindfunclet$?ServerCommand@CPythonNetworkStream@@QAEXPAD@Z$2:
  00010	68 00 00 00 00	 push	 OFFSET ?$TSS0@?BAB@??ServerCommand@CPythonNetworkStream@@QAEXPAD@Z@4HA
  00015	e8 00 00 00 00	 call	 __Init_thread_abort
  0001a	59		 pop	 ecx
  0001b	c3		 ret	 0
__unwindfunclet$?ServerCommand@CPythonNetworkStream@@QAEXPAD@Z$3:
  0001c	8d 4d d4	 lea	 ecx, DWORD PTR $T393[ebp]
  0001f	e9 00 00 00 00	 jmp	 ??1?$basic_string@DU?$char_traits@D@std@@V?$allocator@D@2@@std@@QAE@XZ ; std::basic_string<char,std::char_traits<char>,std::allocator<char> >::~basic_string<char,std::char_traits<char>,std::allocator<char> >
__unwindfunclet$?ServerCommand@CPythonNetworkStream@@QAEXPAD@Z$4:
  00024	8d 4d d4	 lea	 ecx, DWORD PTR $T401[ebp]
  00027	e9 00 00 00 00	 jmp	 ??1?$basic_string@DU?$char_traits@D@std@@V?$allocator@D@2@@std@@QAE@XZ ; std::basic_string<char,std::char_traits<char>,std::allocator<char> >::~basic_string<char,std::char_traits<char>,std::allocator<char> >
__unwindfunclet$?ServerCommand@CPythonNetworkStream@@QAEXPAD@Z$5:
  0002c	8d 4d d4	 lea	 ecx, DWORD PTR $T409[ebp]
  0002f	e9 00 00 00 00	 jmp	 ??1?$basic_string@DU?$char_traits@D@std@@V?$allocator@D@2@@std@@QAE@XZ ; std::basic_string<char,std::char_traits<char>,std::allocator<char> >::~basic_string<char,std::char_traits<char>,std::allocator<char> >
__unwindfunclet$?ServerCommand@CPythonNetworkStream@@QAEXPAD@Z$6:
  00034	8d 4d d4	 lea	 ecx, DWORD PTR $T417[ebp]
  00037	e9 00 00 00 00	 jmp	 ??1?$basic_string@DU?$char_traits@D@std@@V?$allocator@D@2@@std@@QAE@XZ ; std::basic_string<char,std::char_traits<char>,std::allocator<char> >::~basic_string<char,std::char_traits<char>,std::allocator<char> >
__unwindfunclet$?ServerCommand@CPythonNetworkStream@@QAEXPAD@Z$7:
  0003c	8d 4d d4	 lea	 ecx, DWORD PTR $T423[ebp]
  0003f	e9 00 00 00 00	 jmp	 ??1?$basic_string@DU?$char_traits@D@std@@V?$allocator@D@2@@std@@QAE@XZ ; std::basic_string<char,std::char_traits<char>,std::allocator<char> >::~basic_string<char,std::char_traits<char>,std::allocator<char> >
__unwindfunclet$?ServerCommand@CPythonNetworkStream@@QAEXPAD@Z$8:
  00044	8d 4d d4	 lea	 ecx, DWORD PTR $T424[ebp]
  00047	e9 00 00 00 00	 jmp	 ??1?$basic_string@DU?$char_traits@D@std@@V?$allocator@D@2@@std@@QAE@XZ ; std::basic_string<char,std::char_traits<char>,std::allocator<char> >::~basic_string<char,std::char_traits<char>,std::allocator<char> >
__unwindfunclet$?ServerCommand@CPythonNetworkStream@@QAEXPAD@Z$9:
  0004c	8d 4d d4	 lea	 ecx, DWORD PTR $T425[ebp]
  0004f	e9 00 00 00 00	 jmp	 ??1?$basic_string@DU?$char_traits@D@std@@V?$allocator@D@2@@std@@QAE@XZ ; std::basic_string<char,std::char_traits<char>,std::allocator<char> >::~basic_string<char,std::char_traits<char>,std::allocator<char> >
__unwindfunclet$?ServerCommand@CPythonNetworkStream@@QAEXPAD@Z$10:
  00054	8d 4d d4	 lea	 ecx, DWORD PTR $T426[ebp]
  00057	e9 00 00 00 00	 jmp	 ??1?$basic_string@DU?$char_traits@D@std@@V?$allocator@D@2@@std@@QAE@XZ ; std::basic_string<char,std::char_traits<char>,std::allocator<char> >::~basic_string<char,std::char_traits<char>,std::allocator<char> >
__unwindfunclet$?ServerCommand@CPythonNetworkStream@@QAEXPAD@Z$11:
  0005c	8d 4d d4	 lea	 ecx, DWORD PTR $T427[ebp]
  0005f	e9 00 00 00 00	 jmp	 ??1?$basic_string@DU?$char_traits@D@std@@V?$allocator@D@2@@std@@QAE@XZ ; std::basic_string<char,std::char_traits<char>,std::allocator<char> >::~basic_string<char,std::char_traits<char>,std::allocator<char> >
__unwindfunclet$?ServerCommand@CPythonNetworkStream@@QAEXPAD@Z$12:
  00064	8d 4d d4	 lea	 ecx, DWORD PTR $T428[ebp]
  00067	e9 00 00 00 00	 jmp	 ??1?$basic_string@DU?$char_traits@D@std@@V?$allocator@D@2@@std@@QAE@XZ ; std::basic_string<char,std::char_traits<char>,std::allocator<char> >::~basic_string<char,std::char_traits<char>,std::allocator<char> >
__unwindfunclet$?ServerCommand@CPythonNetworkStream@@QAEXPAD@Z$13:
  0006c	8d 4d d4	 lea	 ecx, DWORD PTR $T429[ebp]
  0006f	e9 00 00 00 00	 jmp	 ??1?$basic_string@DU?$char_traits@D@std@@V?$allocator@D@2@@std@@QAE@XZ ; std::basic_string<char,std::char_traits<char>,std::allocator<char> >::~basic_string<char,std::char_traits<char>,std::allocator<char> >
__unwindfunclet$?ServerCommand@CPythonNetworkStream@@QAEXPAD@Z$14:
  00074	8d 4d d4	 lea	 ecx, DWORD PTR $T430[ebp]
  00077	e9 00 00 00 00	 jmp	 ??1?$basic_string@DU?$char_traits@D@std@@V?$allocator@D@2@@std@@QAE@XZ ; std::basic_string<char,std::char_traits<char>,std::allocator<char> >::~basic_string<char,std::char_traits<char>,std::allocator<char> >
__unwindfunclet$?ServerCommand@CPythonNetworkStream@@QAEXPAD@Z$15:
  0007c	8d 4d d4	 lea	 ecx, DWORD PTR $T431[ebp]
  0007f	e9 00 00 00 00	 jmp	 ??1?$basic_string@DU?$char_traits@D@std@@V?$allocator@D@2@@std@@QAE@XZ ; std::basic_string<char,std::char_traits<char>,std::allocator<char> >::~basic_string<char,std::char_traits<char>,std::allocator<char> >
__unwindfunclet$?ServerCommand@CPythonNetworkStream@@QAEXPAD@Z$16:
  00084	8d 4d d4	 lea	 ecx, DWORD PTR $T432[ebp]
  00087	e9 00 00 00 00	 jmp	 ??1?$basic_string@DU?$char_traits@D@std@@V?$allocator@D@2@@std@@QAE@XZ ; std::basic_string<char,std::char_traits<char>,std::allocator<char> >::~basic_string<char,std::char_traits<char>,std::allocator<char> >
__unwindfunclet$?ServerCommand@CPythonNetworkStream@@QAEXPAD@Z$17:
  0008c	8d 4d d4	 lea	 ecx, DWORD PTR $T433[ebp]
  0008f	e9 00 00 00 00	 jmp	 ??1?$basic_string@DU?$char_traits@D@std@@V?$allocator@D@2@@std@@QAE@XZ ; std::basic_string<char,std::char_traits<char>,std::allocator<char> >::~basic_string<char,std::char_traits<char>,std::allocator<char> >
__unwindfunclet$?ServerCommand@CPythonNetworkStream@@QAEXPAD@Z$18:
  00094	8d 4d d4	 lea	 ecx, DWORD PTR $T434[ebp]
  00097	e9 00 00 00 00	 jmp	 ??1?$basic_string@DU?$char_traits@D@std@@V?$allocator@D@2@@std@@QAE@XZ ; std::basic_string<char,std::char_traits<char>,std::allocator<char> >::~basic_string<char,std::char_traits<char>,std::allocator<char> >
__unwindfunclet$?ServerCommand@CPythonNetworkStream@@QAEXPAD@Z$19:
  0009c	8d 4d d4	 lea	 ecx, DWORD PTR $T435[ebp]
  0009f	e9 00 00 00 00	 jmp	 ??1?$basic_string@DU?$char_traits@D@std@@V?$allocator@D@2@@std@@QAE@XZ ; std::basic_string<char,std::char_traits<char>,std::allocator<char> >::~basic_string<char,std::char_traits<char>,std::allocator<char> >
__unwindfunclet$?ServerCommand@CPythonNetworkStream@@QAEXPAD@Z$20:
  000a4	8d 4d d4	 lea	 ecx, DWORD PTR $T436[ebp]
  000a7	e9 00 00 00 00	 jmp	 ??1?$basic_string@DU?$char_traits@D@std@@V?$allocator@D@2@@std@@QAE@XZ ; std::basic_string<char,std::char_traits<char>,std::allocator<char> >::~basic_string<char,std::char_traits<char>,std::allocator<char> >
__unwindfunclet$?ServerCommand@CPythonNetworkStream@@QAEXPAD@Z$21:
  000ac	8d 4d d4	 lea	 ecx, DWORD PTR $T437[ebp]
  000af	e9 00 00 00 00	 jmp	 ??1?$basic_string@DU?$char_traits@D@std@@V?$allocator@D@2@@std@@QAE@XZ ; std::basic_string<char,std::char_traits<char>,std::allocator<char> >::~basic_string<char,std::char_traits<char>,std::allocator<char> >
__unwindfunclet$?ServerCommand@CPythonNetworkStream@@QAEXPAD@Z$22:
  000b4	8d 4d d4	 lea	 ecx, DWORD PTR $T438[ebp]
  000b7	e9 00 00 00 00	 jmp	 ??1?$basic_string@DU?$char_traits@D@std@@V?$allocator@D@2@@std@@QAE@XZ ; std::basic_string<char,std::char_traits<char>,std::allocator<char> >::~basic_string<char,std::char_traits<char>,std::allocator<char> >
__unwindfunclet$?ServerCommand@CPythonNetworkStream@@QAEXPAD@Z$23:
  000bc	8d 4d d4	 lea	 ecx, DWORD PTR $T439[ebp]
  000bf	e9 00 00 00 00	 jmp	 ??1?$basic_string@DU?$char_traits@D@std@@V?$allocator@D@2@@std@@QAE@XZ ; std::basic_string<char,std::char_traits<char>,std::allocator<char> >::~basic_string<char,std::char_traits<char>,std::allocator<char> >
__unwindfunclet$?ServerCommand@CPythonNetworkStream@@QAEXPAD@Z$24:
  000c4	8d 4d d4	 lea	 ecx, DWORD PTR $T440[ebp]
  000c7	e9 00 00 00 00	 jmp	 ??1?$basic_string@DU?$char_traits@D@std@@V?$allocator@D@2@@std@@QAE@XZ ; std::basic_string<char,std::char_traits<char>,std::allocator<char> >::~basic_string<char,std::char_traits<char>,std::allocator<char> >
__unwindfunclet$?ServerCommand@CPythonNetworkStream@@QAEXPAD@Z$25:
  000cc	8d 4d d4	 lea	 ecx, DWORD PTR $T441[ebp]
  000cf	e9 00 00 00 00	 jmp	 ??1?$basic_string@DU?$char_traits@D@std@@V?$allocator@D@2@@std@@QAE@XZ ; std::basic_string<char,std::char_traits<char>,std::allocator<char> >::~basic_string<char,std::char_traits<char>,std::allocator<char> >
__unwindfunclet$?ServerCommand@CPythonNetworkStream@@QAEXPAD@Z$26:
  000d4	8d 4d d4	 lea	 ecx, DWORD PTR $T442[ebp]
  000d7	e9 00 00 00 00	 jmp	 ??1?$basic_string@DU?$char_traits@D@std@@V?$allocator@D@2@@std@@QAE@XZ ; std::basic_string<char,std::char_traits<char>,std::allocator<char> >::~basic_string<char,std::char_traits<char>,std::allocator<char> >
__unwindfunclet$?ServerCommand@CPythonNetworkStream@@QAEXPAD@Z$27:
  000dc	8d 4d d4	 lea	 ecx, DWORD PTR $T443[ebp]
  000df	e9 00 00 00 00	 jmp	 ??1?$basic_string@DU?$char_traits@D@std@@V?$allocator@D@2@@std@@QAE@XZ ; std::basic_string<char,std::char_traits<char>,std::allocator<char> >::~basic_string<char,std::char_traits<char>,std::allocator<char> >
__unwindfunclet$?ServerCommand@CPythonNetworkStream@@QAEXPAD@Z$28:
  000e4	8d 4d d4	 lea	 ecx, DWORD PTR $T444[ebp]
  000e7	e9 00 00 00 00	 jmp	 ??1?$basic_string@DU?$char_traits@D@std@@V?$allocator@D@2@@std@@QAE@XZ ; std::basic_string<char,std::char_traits<char>,std::allocator<char> >::~basic_string<char,std::char_traits<char>,std::allocator<char> >
__unwindfunclet$?ServerCommand@CPythonNetworkStream@@QAEXPAD@Z$29:
  000ec	8d 4d d4	 lea	 ecx, DWORD PTR $T445[ebp]
  000ef	e9 00 00 00 00	 jmp	 ??1?$basic_string@DU?$char_traits@D@std@@V?$allocator@D@2@@std@@QAE@XZ ; std::basic_string<char,std::char_traits<char>,std::allocator<char> >::~basic_string<char,std::char_traits<char>,std::allocator<char> >
__unwindfunclet$?ServerCommand@CPythonNetworkStream@@QAEXPAD@Z$30:
  000f4	8d 4d d4	 lea	 ecx, DWORD PTR $T446[ebp]
  000f7	e9 00 00 00 00	 jmp	 ??1?$basic_string@DU?$char_traits@D@std@@V?$allocator@D@2@@std@@QAE@XZ ; std::basic_string<char,std::char_traits<char>,std::allocator<char> >::~basic_string<char,std::char_traits<char>,std::allocator<char> >
__unwindfunclet$?ServerCommand@CPythonNetworkStream@@QAEXPAD@Z$31:
  000fc	8d 4d d4	 lea	 ecx, DWORD PTR $T447[ebp]
  000ff	e9 00 00 00 00	 jmp	 ??1?$basic_string@DU?$char_traits@D@std@@V?$allocator@D@2@@std@@QAE@XZ ; std::basic_string<char,std::char_traits<char>,std::allocator<char> >::~basic_string<char,std::char_traits<char>,std::allocator<char> >
__unwindfunclet$?ServerCommand@CPythonNetworkStream@@QAEXPAD@Z$32:
  00104	8d 4d d4	 lea	 ecx, DWORD PTR $T448[ebp]
  00107	e9 00 00 00 00	 jmp	 ??1?$basic_string@DU?$char_traits@D@std@@V?$allocator@D@2@@std@@QAE@XZ ; std::basic_string<char,std::char_traits<char>,std::allocator<char> >::~basic_string<char,std::char_traits<char>,std::allocator<char> >
__unwindfunclet$?ServerCommand@CPythonNetworkStream@@QAEXPAD@Z$33:
  0010c	8d 4d d4	 lea	 ecx, DWORD PTR $T449[ebp]
  0010f	e9 00 00 00 00	 jmp	 ??1?$basic_string@DU?$char_traits@D@std@@V?$allocator@D@2@@std@@QAE@XZ ; std::basic_string<char,std::char_traits<char>,std::allocator<char> >::~basic_string<char,std::char_traits<char>,std::allocator<char> >
__unwindfunclet$?ServerCommand@CPythonNetworkStream@@QAEXPAD@Z$34:
  00114	8d 4d d4	 lea	 ecx, DWORD PTR $T450[ebp]
  00117	e9 00 00 00 00	 jmp	 ??1?$basic_string@DU?$char_traits@D@std@@V?$allocator@D@2@@std@@QAE@XZ ; std::basic_string<char,std::char_traits<char>,std::allocator<char> >::~basic_string<char,std::char_traits<char>,std::allocator<char> >
__unwindfunclet$?ServerCommand@CPythonNetworkStream@@QAEXPAD@Z$35:
  0011c	8d 4d d4	 lea	 ecx, DWORD PTR $T451[ebp]
  0011f	e9 00 00 00 00	 jmp	 ??1?$basic_string@DU?$char_traits@D@std@@V?$allocator@D@2@@std@@QAE@XZ ; std::basic_string<char,std::char_traits<char>,std::allocator<char> >::~basic_string<char,std::char_traits<char>,std::allocator<char> >
__unwindfunclet$?ServerCommand@CPythonNetworkStream@@QAEXPAD@Z$36:
  00124	8d 4d d4	 lea	 ecx, DWORD PTR $T452[ebp]
  00127	e9 00 00 00 00	 jmp	 ??1?$basic_string@DU?$char_traits@D@std@@V?$allocator@D@2@@std@@QAE@XZ ; std::basic_string<char,std::char_traits<char>,std::allocator<char> >::~basic_string<char,std::char_traits<char>,std::allocator<char> >
__unwindfunclet$?ServerCommand@CPythonNetworkStream@@QAEXPAD@Z$37:
  0012c	8d 4d d4	 lea	 ecx, DWORD PTR $T453[ebp]
  0012f	e9 00 00 00 00	 jmp	 ??1?$basic_string@DU?$char_traits@D@std@@V?$allocator@D@2@@std@@QAE@XZ ; std::basic_string<char,std::char_traits<char>,std::allocator<char> >::~basic_string<char,std::char_traits<char>,std::allocator<char> >
__unwindfunclet$?ServerCommand@CPythonNetworkStream@@QAEXPAD@Z$38:
  00134	8d 4d d4	 lea	 ecx, DWORD PTR $T454[ebp]
  00137	e9 00 00 00 00	 jmp	 ??1?$basic_string@DU?$char_traits@D@std@@V?$allocator@D@2@@std@@QAE@XZ ; std::basic_string<char,std::char_traits<char>,std::allocator<char> >::~basic_string<char,std::char_traits<char>,std::allocator<char> >
__unwindfunclet$?ServerCommand@CPythonNetworkStream@@QAEXPAD@Z$39:
  0013c	8d 4d d4	 lea	 ecx, DWORD PTR $T455[ebp]
  0013f	e9 00 00 00 00	 jmp	 ??1?$basic_string@DU?$char_traits@D@std@@V?$allocator@D@2@@std@@QAE@XZ ; std::basic_string<char,std::char_traits<char>,std::allocator<char> >::~basic_string<char,std::char_traits<char>,std::allocator<char> >
__unwindfunclet$?ServerCommand@CPythonNetworkStream@@QAEXPAD@Z$40:
  00144	8d 4d d4	 lea	 ecx, DWORD PTR $T456[ebp]
  00147	e9 00 00 00 00	 jmp	 ??1?$basic_string@DU?$char_traits@D@std@@V?$allocator@D@2@@std@@QAE@XZ ; std::basic_string<char,std::char_traits<char>,std::allocator<char> >::~basic_string<char,std::char_traits<char>,std::allocator<char> >
__unwindfunclet$?ServerCommand@CPythonNetworkStream@@QAEXPAD@Z$41:
  0014c	8d 4d d4	 lea	 ecx, DWORD PTR $T457[ebp]
  0014f	e9 00 00 00 00	 jmp	 ??1?$basic_string@DU?$char_traits@D@std@@V?$allocator@D@2@@std@@QAE@XZ ; std::basic_string<char,std::char_traits<char>,std::allocator<char> >::~basic_string<char,std::char_traits<char>,std::allocator<char> >
  00154	cc		 int	 3
  00155	cc		 int	 3
  00156	cc		 int	 3
  00157	cc		 int	 3
  00158	cc		 int	 3
__ehhandler$?ServerCommand@CPythonNetworkStream@@QAEXPAD@Z:
  00159	90		 npad	 1
  0015a	90		 npad	 1
  0015b	8b 54 24 08	 mov	 edx, DWORD PTR [esp+8]
  0015f	8d 42 0c	 lea	 eax, DWORD PTR [edx+12]
  00162	8b 4a 90	 mov	 ecx, DWORD PTR [edx-112]
  00165	33 c8		 xor	 ecx, eax
  00167	e8 00 00 00 00	 call	 @__security_check_cookie@4
  0016c	8b 4a f8	 mov	 ecx, DWORD PTR [edx-8]
  0016f	33 c8		 xor	 ecx, eax
  00171	e8 00 00 00 00	 call	 @__security_check_cookie@4
  00176	b8 00 00 00 00	 mov	 eax, OFFSET __ehfuncinfo$?ServerCommand@CPythonNetworkStream@@QAEXPAD@Z
  0017b	e9 00 00 00 00	 jmp	 ___CxxFrameHandler3
text$x	ENDS
?ServerCommand@CPythonNetworkStream@@QAEXPAD@Z ENDP	; CPythonNetworkStream::ServerCommand
END
