; Listing generated by Microsoft (R) Optimizing Compiler Version 19.44.35219.0 

	TITLE	c:\anka2project\anka2project\source\binary\vs_files\userinterface\release\pythonplayerskill.obj
	.686P
	.XMM
	include listing.inc
	.model	flat

INCLUDELIB OLDNAMES

PUBLIC	??_C@_0M@HBOAHMLO@ResetAffect@			; `string'
PUBLIC	??_C@_0N@OADAMGHE@ClearAffects@			; `string'
PUBLIC	??_C@_0BA@MEPOIIPE@NOT_HORSE_SKILL@		; `string'
PUBLIC	??_C@_0BD@IOEPNDLO@ChangeCurrentSkill@		; `string'
PUBLIC	??_C@_0BC@DDKDAKLO@NEED_EMPTY_BOTTLE@		; `string'
PUBLIC	??_C@_0N@DJBFACMO@HAVE_TO_RIDE@			; `string'
PUBLIC	??_C@_0BD@LIIMHBCN@REMOVE_FISHING_ROD@		; `string'
PUBLIC	??_C@_0BD@HPCMPHGF@NEED_POISON_BOTTLE@		; `string'
PUBLIC	??_C@_0BF@KPLOMIJE@NOT_MATCHABLE_WEAPON@	; `string'
PUBLIC	??_C@_0O@PFLGBNMN@NOT_YET_LEARN@		; `string'
PUBLIC	??_C@_0O@CILBJNOC@NOT_ENOUGH_HP@		; `string'
PUBLIC	??_C@_0O@CCJDKKCC@WAIT_COOLTIME@		; `string'
PUBLIC	??_C@_0DF@OHCKPFBO@?$CB?$CB?$CB?5Find?5strange?5game?5data?4?5Ple@ ; `string'
PUBLIC	??_C@_0O@DIMCNBHD@NOT_ENOUGH_SP@		; `string'
PUBLIC	??_C@_0EP@OENNGPFB@CPythonPlayer?3?3__UseSkill?$CIdwSlo@ ; `string'
PUBLIC	??_C@_0BA@CFBPJACC@CANNOT_APPROACH@		; `string'
PUBLIC	??_C@_0EC@MMFCNDJC@CPythonPlayer?3?3__UseSkill?$CIdwSlo@ ; `string'
PUBLIC	??_C@_0EB@JKMJGFLB@CPythonPlayer?3?3__UseSkill?$CIdwSlo@ ; `string'
PUBLIC	??_C@_0FC@NMOECDOK@?5?$FLALERT?$FN?5?$LF?$LP?$LH?a?$LP?$KB?$LA?T?5?$LL?g?$LP?k?G?O?$LE?B?5?$LB?b?$LM?z@ ; `string'
PUBLIC	??_C@_0BA@GMGJKDGM@CANNOT_USE_SELF@		; `string'
PUBLIC	??_C@_0CB@HEDIGIHC@CANNOT_ATTACK_ENEMY_IN_SAFE_ARE@ ; `string'
PUBLIC	??_C@_0BC@CKDFNGK@ONLY_FOR_ALLIANCE@		; `string'
PUBLIC	??_C@_0CI@EKHACINO@?5?$FLALERT?$FN?5The?5target?5is?5set?5to?5y@ ; `string'
PUBLIC	??_C@_0O@BIOLCACO@CANNOT_ATTACK@		; `string'
PUBLIC	??_C@_0DN@DLLIDDMA@CPythonPlayer?3?3__UseSkill?$CI?$CFd?$CJ?5?9@ ; `string'
PUBLIC	??_C@_0BA@FPMNLALM@ONLY_FOR_CORPSE@		; `string'
PUBLIC	??_C@_0DP@EKGIGFIO@CPythonPlayer?3?3__SendUseSkill?$CId@ ; `string'
PUBLIC	??_C@_0EB@LKBFGOEE@CPythonPlayer?3?3__UseSkill?$CI?$CFd?$CJ?5?9@ ; `string'
PUBLIC	??_C@_0BB@GJACMMFG@RunUseSkillEvent@		; `string'
PUBLIC	??_C@_04IGFOPMNH@?$CIif?$CJ@			; `string'
PUBLIC	??_C@_0BD@OHHCPGPG@ONLY_FOR_GUILD_WAR@		; `string'
PUBLIC	??_C@_0FH@CAACOELN@CPythonPlayer?3?3UseGuildSkill?$CIdw@ ; `string'
PUBLIC	??_C@_0EI@OMJBNOHB@CPythonPlayer?3?3SetComboSkillFla@ ; `string'
PUBLIC	??_C@_0EE@GICPADML@CPythonPlayer?3?3UseGuildSkill?$CI?$CFd@ ; `string'
PUBLIC	??_C@_0BC@ENEHNNJB@EQUIP_FISHING_ROD@		; `string'
PUBLIC	??_C@_0FM@DHHFNKGI@CPythonPlayer?3?3SetComboSkillFla@ ; `string'
;	COMDAT ??_C@_0FM@DHHFNKGI@CPythonPlayer?3?3SetComboSkillFla@
CONST	SEGMENT
??_C@_0FM@DHHFNKGI@CPythonPlayer?3?3SetComboSkillFla@ DB 'CPythonPlayer::'
	DB	'SetComboSkillFlag(skillIndex=%d, skillLevel=%d) - Invalid Com'
	DB	'bo Skill Level', 0aH, 00H			; `string'
CONST	ENDS
;	COMDAT ??_C@_0BC@ENEHNNJB@EQUIP_FISHING_ROD@
CONST	SEGMENT
??_C@_0BC@ENEHNNJB@EQUIP_FISHING_ROD@ DB 'EQUIP_FISHING_ROD', 00H ; `string'
CONST	ENDS
;	COMDAT ??_C@_0EE@GICPADML@CPythonPlayer?3?3UseGuildSkill?$CI?$CFd@
CONST	SEGMENT
??_C@_0EE@GICPADML@CPythonPlayer?3?3UseGuildSkill?$CI?$CFd@ DB 'CPythonPl'
	DB	'ayer::UseGuildSkill(%d) - pkInstMain->NEW_UseSkill - ERROR', 00H ; `string'
CONST	ENDS
;	COMDAT ??_C@_0EI@OMJBNOHB@CPythonPlayer?3?3SetComboSkillFla@
CONST	SEGMENT
??_C@_0EI@OMJBNOHB@CPythonPlayer?3?3SetComboSkillFla@ DB 'CPythonPlayer::'
	DB	'SetComboSkillFlag(killIndex=%d) - Can''t Find Slot Index', 0aH
	DB	00H						; `string'
CONST	ENDS
;	COMDAT ??_C@_0FH@CAACOELN@CPythonPlayer?3?3UseGuildSkill?$CIdw@
CONST	SEGMENT
??_C@_0FH@CAACOELN@CPythonPlayer?3?3UseGuildSkill?$CIdw@ DB 'CPythonPlaye'
	DB	'r::UseGuildSkill(dwSkillSlotIndex=%d) It''s not available ski'
	DB	'll slot number', 00H			; `string'
CONST	ENDS
;	COMDAT ??_C@_0BD@OHHCPGPG@ONLY_FOR_GUILD_WAR@
CONST	SEGMENT
??_C@_0BD@OHHCPGPG@ONLY_FOR_GUILD_WAR@ DB 'ONLY_FOR_GUILD_WAR', 00H ; `string'
CONST	ENDS
;	COMDAT ??_C@_04IGFOPMNH@?$CIif?$CJ@
CONST	SEGMENT
??_C@_04IGFOPMNH@?$CIif?$CJ@ DB '(if)', 00H		; `string'
CONST	ENDS
;	COMDAT ??_C@_0BB@GJACMMFG@RunUseSkillEvent@
CONST	SEGMENT
??_C@_0BB@GJACMMFG@RunUseSkillEvent@ DB 'RunUseSkillEvent', 00H ; `string'
CONST	ENDS
;	COMDAT ??_C@_0EB@LKBFGOEE@CPythonPlayer?3?3__UseSkill?$CI?$CFd?$CJ?5?9@
CONST	SEGMENT
??_C@_0EB@LKBFGOEE@CPythonPlayer?3?3__UseSkill?$CI?$CFd?$CJ?5?9@ DB 'CPyt'
	DB	'honPlayer::__UseSkill(%d) - pkInstMain->NEW_UseSkill - ERROR', 00H ; `string'
CONST	ENDS
;	COMDAT ??_C@_0DP@EKGIGFIO@CPythonPlayer?3?3__SendUseSkill?$CId@
CONST	SEGMENT
??_C@_0DP@EKGIGFIO@CPythonPlayer?3?3__SendUseSkill?$CId@ DB 'CPythonPlaye'
	DB	'r::__SendUseSkill(dwSkillSlotIndex=%d) - NOT CHECK', 00H ; `string'
CONST	ENDS
;	COMDAT ??_C@_0BA@FPMNLALM@ONLY_FOR_CORPSE@
CONST	SEGMENT
??_C@_0BA@FPMNLALM@ONLY_FOR_CORPSE@ DB 'ONLY_FOR_CORPSE', 00H ; `string'
CONST	ENDS
;	COMDAT ??_C@_0DN@DLLIDDMA@CPythonPlayer?3?3__UseSkill?$CI?$CFd?$CJ?5?9@
CONST	SEGMENT
??_C@_0DN@DLLIDDMA@CPythonPlayer?3?3__UseSkill?$CI?$CFd?$CJ?5?9@ DB 'CPyt'
	DB	'honPlayer::__UseSkill(%d) - ', 0c8H, 0adH, 0b8H, 0e9H, ' ', 0b1H
	DB	0e2H, 0c1H, 0d8H, ' ', 0b9H, 0e6H, 0c7H, 0e2H, ' ', 0bcH, 0b3H
	DB	0c1H, 0a4H, 0c0H, 0bbH, ' ', 0c7H, 0d8H, 0beH, 0dfH, 0c7H, 0d4H
	DB	00H						; `string'
CONST	ENDS
;	COMDAT ??_C@_0O@BIOLCACO@CANNOT_ATTACK@
CONST	SEGMENT
??_C@_0O@BIOLCACO@CANNOT_ATTACK@ DB 'CANNOT_ATTACK', 00H ; `string'
CONST	ENDS
;	COMDAT ??_C@_0CI@EKHACINO@?5?$FLALERT?$FN?5The?5target?5is?5set?5to?5y@
CONST	SEGMENT
??_C@_0CI@EKHACINO@?5?$FLALERT?$FN?5The?5target?5is?5set?5to?5y@ DB ' [AL'
	DB	'ERT] The target is set to yourself', 0aH, 00H ; `string'
CONST	ENDS
;	COMDAT ??_C@_0BC@CKDFNGK@ONLY_FOR_ALLIANCE@
CONST	SEGMENT
??_C@_0BC@CKDFNGK@ONLY_FOR_ALLIANCE@ DB 'ONLY_FOR_ALLIANCE', 00H ; `string'
CONST	ENDS
;	COMDAT ??_C@_0CB@HEDIGIHC@CANNOT_ATTACK_ENEMY_IN_SAFE_ARE@
CONST	SEGMENT
??_C@_0CB@HEDIGIHC@CANNOT_ATTACK_ENEMY_IN_SAFE_ARE@ DB 'CANNOT_ATTACK_ENE'
	DB	'MY_IN_SAFE_AREA', 00H			; `string'
CONST	ENDS
;	COMDAT ??_C@_0BA@GMGJKDGM@CANNOT_USE_SELF@
CONST	SEGMENT
??_C@_0BA@GMGJKDGM@CANNOT_USE_SELF@ DB 'CANNOT_USE_SELF', 00H ; `string'
CONST	ENDS
;	COMDAT ??_C@_0FC@NMOECDOK@?5?$FLALERT?$FN?5?$LF?$LP?$LH?a?$LP?$KB?$LA?T?5?$LL?g?$LP?k?G?O?$LE?B?5?$LB?b?$LM?z@
CONST	SEGMENT
??_C@_0FC@NMOECDOK@?5?$FLALERT?$FN?5?$LF?$LP?$LH?a?$LP?$KB?$LA?T?5?$LL?g?$LP?k?G?O?$LE?B?5?$LB?b?$LM?z@ DB ' '
	DB	'[ALERT] ', 0b5H, 0bfH, 0b7H, 0e1H, 0bfH, 0a1H, 0b0H, 0d4H, ' '
	DB	0bbH, 0e7H, 0bfH, 0ebH, 0c7H, 0cfH, 0b4H, 0c2H, ' ', 0b1H, 0e2H
	DB	0bcH, 0faH, 0c0H, 0d3H, 0bfH, 0a1H, 0b5H, 0b5H, ' ', 0c0H, 0fbH
	DB	0bfH, 0a1H, 0b0H, 0d4H, ' ', 0c5H, 0b8H, 0b0H, 0d9H, 0c6H, 0c3H
	DB	' ', 0b5H, 0c7H, 0beH, 0eeH, 0c0H, 0d6H, 0beH, 0eeH, 0bcH, 0adH
	DB	' ', 0c0H, 0daH, 0bdH, 0c5H, 0bfH, 0a1H, 0b0H, 0d4H, 0b7H, 0ceH
	DB	' ', 0c0H, 0e7H, 0bcH, 0b3H, 0c1H, 0a4H, 0aH, 00H ; `string'
CONST	ENDS
;	COMDAT ??_C@_0EB@JKMJGFLB@CPythonPlayer?3?3__UseSkill?$CIdwSlo@
CONST	SEGMENT
??_C@_0EB@JKMJGFLB@CPythonPlayer?3?3__UseSkill?$CIdwSlo@ DB 'CPythonPlaye'
	DB	'r::__UseSkill(dwSlotIndex=%d) There is no skill data', 00H ; `string'
CONST	ENDS
;	COMDAT ??_C@_0EC@MMFCNDJC@CPythonPlayer?3?3__UseSkill?$CIdwSlo@
CONST	SEGMENT
??_C@_0EC@MMFCNDJC@CPythonPlayer?3?3__UseSkill?$CIdwSlo@ DB 'CPythonPlaye'
	DB	'r::__UseSkill(dwSlotIndex=%d) There is no main player', 00H ; `string'
CONST	ENDS
;	COMDAT ??_C@_0BA@CFBPJACC@CANNOT_APPROACH@
CONST	SEGMENT
??_C@_0BA@CFBPJACC@CANNOT_APPROACH@ DB 'CANNOT_APPROACH', 00H ; `string'
CONST	ENDS
;	COMDAT ??_C@_0EP@OENNGPFB@CPythonPlayer?3?3__UseSkill?$CIdwSlo@
CONST	SEGMENT
??_C@_0EP@OENNGPFB@CPythonPlayer?3?3__UseSkill?$CIdwSlo@ DB 'CPythonPlaye'
	DB	'r::__UseSkill(dwSlotIndex=%d) It''s not available skill slot '
	DB	'number', 00H				; `string'
CONST	ENDS
;	COMDAT ??_C@_0O@DIMCNBHD@NOT_ENOUGH_SP@
CONST	SEGMENT
??_C@_0O@DIMCNBHD@NOT_ENOUGH_SP@ DB 'NOT_ENOUGH_SP', 00H ; `string'
CONST	ENDS
;	COMDAT ??_C@_0DF@OHCKPFBO@?$CB?$CB?$CB?5Find?5strange?5game?5data?4?5Ple@
CONST	SEGMENT
??_C@_0DF@OHCKPFBO@?$CB?$CB?$CB?5Find?5strange?5game?5data?4?5Ple@ DB '!!'
	DB	'! Find strange game data. Please reinstall metin2.', 00H ; `string'
CONST	ENDS
;	COMDAT ??_C@_0O@CCJDKKCC@WAIT_COOLTIME@
CONST	SEGMENT
??_C@_0O@CCJDKKCC@WAIT_COOLTIME@ DB 'WAIT_COOLTIME', 00H ; `string'
CONST	ENDS
;	COMDAT ??_C@_0O@CILBJNOC@NOT_ENOUGH_HP@
CONST	SEGMENT
??_C@_0O@CILBJNOC@NOT_ENOUGH_HP@ DB 'NOT_ENOUGH_HP', 00H ; `string'
CONST	ENDS
;	COMDAT ??_C@_0O@PFLGBNMN@NOT_YET_LEARN@
CONST	SEGMENT
??_C@_0O@PFLGBNMN@NOT_YET_LEARN@ DB 'NOT_YET_LEARN', 00H ; `string'
CONST	ENDS
;	COMDAT ??_C@_0BF@KPLOMIJE@NOT_MATCHABLE_WEAPON@
CONST	SEGMENT
??_C@_0BF@KPLOMIJE@NOT_MATCHABLE_WEAPON@ DB 'NOT_MATCHABLE_WEAPON', 00H ; `string'
CONST	ENDS
;	COMDAT ??_C@_0BD@HPCMPHGF@NEED_POISON_BOTTLE@
CONST	SEGMENT
??_C@_0BD@HPCMPHGF@NEED_POISON_BOTTLE@ DB 'NEED_POISON_BOTTLE', 00H ; `string'
CONST	ENDS
;	COMDAT ??_C@_0BD@LIIMHBCN@REMOVE_FISHING_ROD@
CONST	SEGMENT
??_C@_0BD@LIIMHBCN@REMOVE_FISHING_ROD@ DB 'REMOVE_FISHING_ROD', 00H ; `string'
CONST	ENDS
;	COMDAT ??_C@_0N@DJBFACMO@HAVE_TO_RIDE@
CONST	SEGMENT
??_C@_0N@DJBFACMO@HAVE_TO_RIDE@ DB 'HAVE_TO_RIDE', 00H	; `string'
CONST	ENDS
;	COMDAT ??_C@_0BC@DDKDAKLO@NEED_EMPTY_BOTTLE@
CONST	SEGMENT
??_C@_0BC@DDKDAKLO@NEED_EMPTY_BOTTLE@ DB 'NEED_EMPTY_BOTTLE', 00H ; `string'
CONST	ENDS
;	COMDAT ??_C@_0BD@IOEPNDLO@ChangeCurrentSkill@
CONST	SEGMENT
??_C@_0BD@IOEPNDLO@ChangeCurrentSkill@ DB 'ChangeCurrentSkill', 00H ; `string'
CONST	ENDS
;	COMDAT ??_C@_0BA@MEPOIIPE@NOT_HORSE_SKILL@
CONST	SEGMENT
??_C@_0BA@MEPOIIPE@NOT_HORSE_SKILL@ DB 'NOT_HORSE_SKILL', 00H ; `string'
CONST	ENDS
;	COMDAT ??_C@_0N@OADAMGHE@ClearAffects@
CONST	SEGMENT
??_C@_0N@OADAMGHE@ClearAffects@ DB 'ClearAffects', 00H	; `string'
CONST	ENDS
;	COMDAT ??_C@_0M@HBOAHMLO@ResetAffect@
CONST	SEGMENT
??_C@_0M@HBOAHMLO@ResetAffect@ DB 'ResetAffect', 00H	; `string'
PUBLIC	?Instance@?$CSingleton@VIBackground@@@@SAAAVIBackground@@XZ ; CSingleton<IBackground>::Instance
PUBLIC	?__CheckSpecialSkill@CPythonPlayer@@IAE_NK@Z	; CPythonPlayer::__CheckSpecialSkill
PUBLIC	?__HasItem@CPythonPlayer@@IAE_NK@Z		; CPythonPlayer::__HasItem
PUBLIC	?__RunCoolTime@CPythonPlayer@@IAEXK@Z		; CPythonPlayer::__RunCoolTime
PUBLIC	?__SendUseSkill@CPythonPlayer@@IAEXKK@Z		; CPythonPlayer::__SendUseSkill
PUBLIC	?__CanUseSkill@CPythonPlayer@@IAE_NXZ		; CPythonPlayer::__CanUseSkill
PUBLIC	?__GetSkillTargetRange@CPythonPlayer@@IAEKAAUSSkillData@CPythonSkill@@@Z ; CPythonPlayer::__GetSkillTargetRange
PUBLIC	?__CheckShortLife@CPythonPlayer@@IAE_NAAUSSkillInstance@1@AAUSSkillData@CPythonSkill@@@Z ; CPythonPlayer::__CheckShortLife
PUBLIC	?__CheckShortMana@CPythonPlayer@@IAE_NAAUSSkillInstance@1@AAUSSkillData@CPythonSkill@@@Z ; CPythonPlayer::__CheckShortMana
PUBLIC	?__CheckShortArrow@CPythonPlayer@@IAE_NAAUSSkillInstance@1@AAUSSkillData@CPythonSkill@@@Z ; CPythonPlayer::__CheckShortArrow
PUBLIC	?UseGuildSkill@CPythonPlayer@@QAEXK@Z		; CPythonPlayer::UseGuildSkill
PUBLIC	?ChangeCurrentSkillNumberOnly@CPythonPlayer@@QAEXK@Z ; CPythonPlayer::ChangeCurrentSkillNumberOnly
PUBLIC	?__UseCurrentSkill@CPythonPlayer@@IAEXXZ	; CPythonPlayer::__UseCurrentSkill
PUBLIC	?__HasEnoughArrow@CPythonPlayer@@IAE_NXZ	; CPythonPlayer::__HasEnoughArrow
PUBLIC	?ClearAffects@CPythonPlayer@@QAEXXZ		; CPythonPlayer::ClearAffects
PUBLIC	?SetAffect@CPythonPlayer@@QAEXI@Z		; CPythonPlayer::SetAffect
PUBLIC	?ResetAffect@CPythonPlayer@@QAEXI@Z		; CPythonPlayer::ResetAffect
PUBLIC	?__CheckDashAffect@CPythonPlayer@@IAE_NAAVCInstanceBase@@@Z ; CPythonPlayer::__CheckDashAffect
PUBLIC	?ClickSkillSlot@CPythonPlayer@@QAEXK@Z		; CPythonPlayer::ClickSkillSlot
PUBLIC	?__CheckRestSkillCoolTime@CPythonPlayer@@IAE_NK@Z ; CPythonPlayer::__CheckRestSkillCoolTime
PUBLIC	?__GetSkillType@CPythonPlayer@@IAEEK@Z		; CPythonPlayer::__GetSkillType
PUBLIC	?FindSkillSlotIndexBySkillIndex@CPythonPlayer@@QAE_NKPAK@Z ; CPythonPlayer::FindSkillSlotIndexBySkillIndex
PUBLIC	?__CheckSkillUsable@CPythonPlayer@@IAE_NK@Z	; CPythonPlayer::__CheckSkillUsable
PUBLIC	?__UseSkill@CPythonPlayer@@IAE_NK@Z		; CPythonPlayer::__UseSkill
PUBLIC	?__ProcessEnemySkillTargetRange@CPythonPlayer@@IAE_NAAVCInstanceBase@@0AAUSSkillData@CPythonSkill@@K@Z ; CPythonPlayer::__ProcessEnemySkillTargetRange
PUBLIC	?SetComboSkillFlag@CPythonPlayer@@UAEXH@Z	; CPythonPlayer::SetComboSkillFlag
;	COMDAT xdata$x
xdata$x	SEGMENT
__ehfuncinfo$?__UseSkill@CPythonPlayer@@IAE_NK@Z DD 019930522H
	DD	01H
	DD	FLAT:__unwindtable$?__UseSkill@CPythonPlayer@@IAE_NK@Z
	DD	2 DUP(00H)
	DD	2 DUP(00H)
	DD	00H
	DD	01H
__unwindtable$?__UseSkill@CPythonPlayer@@IAE_NK@Z DD 0ffffffffH
	DD	FLAT:__unwindfunclet$?__UseSkill@CPythonPlayer@@IAE_NK@Z$0
; Function compile flags: /Ogtp
; File C:\Anka2Project\Anka2Project\Source\Binary\source\UserInterface\PythonPlayerSkill.cpp
; File C:\Anka2Project\Anka2Project\Source\Binary\source\eterBase\Singleton.h
; File C:\Anka2Project\Anka2Project\Source\Binary\source\UserInterface\PythonPlayerSkill.cpp
;	COMDAT ?__ProcessEnemySkillTargetRange@CPythonPlayer@@IAE_NAAVCInstanceBase@@0AAUSSkillData@CPythonSkill@@K@Z
_TEXT	SEGMENT
_kPPosTarget$ = -20					; size = 12
_dwSkillTargetRange$1$ = -8				; size = 4
_fSkillTargetRange$1$ = -4				; size = 4
_rkInstMain$ = 8					; size = 4
_rkInstTarget$ = 12					; size = 4
_rkSkillData$ = 16					; size = 4
_fTargetDistance$1$ = 16				; size = 4
_dwSkillSlotIndex$ = 20					; size = 4
?__ProcessEnemySkillTargetRange@CPythonPlayer@@IAE_NAAVCInstanceBase@@0AAUSSkillData@CPythonSkill@@K@Z PROC ; CPythonPlayer::__ProcessEnemySkillTargetRange, COMDAT
; _this$ = ecx

; 418  : {

  00000	55		 push	 ebp
  00001	8b ec		 mov	 ebp, esp
  00003	83 ec 14	 sub	 esp, 20			; 00000014H
  00006	53		 push	 ebx
  00007	56		 push	 esi
  00008	57		 push	 edi

; 419  : 	DWORD dwSkillTargetRange=__GetSkillTargetRange(rkSkillData);

  00009	8b 7d 10	 mov	 edi, DWORD PTR _rkSkillData$[ebp]
  0000c	8b f1		 mov	 esi, ecx
  0000e	57		 push	 edi
  0000f	e8 00 00 00 00	 call	 ?__GetSkillTargetRange@CPythonPlayer@@IAEKAAUSSkillData@CPythonSkill@@@Z ; CPythonPlayer::__GetSkillTargetRange

; 420  : 	float fSkillTargetRange = float(dwSkillTargetRange);

  00014	8b c8		 mov	 ecx, eax
  00016	89 45 f8	 mov	 DWORD PTR _dwSkillTargetRange$1$[ebp], eax
  00019	c1 e9 1f	 shr	 ecx, 31			; 0000001fH
  0001c	66 0f 6e c0	 movd	 xmm0, eax
  00020	f3 0f e6 c0	 cvtdq2pd xmm0, xmm0
  00024	f2 0f 58 04 cd
	00 00 00 00	 addsd	 xmm0, QWORD PTR __xmm@41f00000000000000000000000000000[ecx*8]
  0002d	66 0f 5a c8	 cvtpd2ps xmm1, xmm0
  00031	0f 57 c0	 xorps	 xmm0, xmm0

; 421  : 	if (fSkillTargetRange <= 0.0f)

  00034	0f 2f c1	 comiss	 xmm0, xmm1
  00037	f3 0f 11 4d fc	 movss	 DWORD PTR _fSkillTargetRange$1$[ebp], xmm1
  0003c	0f 83 f7 00 00
	00		 jae	 $LN7@ProcessEne

; 422  : 		return true;
; 423  : 
; 424  : 	float fTargetDistance = rkInstMain.GetDistance(&rkInstTarget);

  00042	8b 5d 0c	 mov	 ebx, DWORD PTR _rkInstTarget$[ebp]
  00045	8b 4d 08	 mov	 ecx, DWORD PTR _rkInstMain$[ebp]
  00048	53		 push	 ebx
  00049	e8 00 00 00 00	 call	 ?GetDistance@CInstanceBase@@QAEMPAV1@@Z ; CInstanceBase::GetDistance

; 425  : 
; 426  : 	extern bool IS_HUGE_RACE(unsigned int vnum);
; 427  : 	if (IS_HUGE_RACE(rkInstTarget.GetRace()))

  0004e	8b cb		 mov	 ecx, ebx
  00050	f3 0f 11 45 10	 movss	 DWORD PTR _fTargetDistance$1$[ebp], xmm0
  00055	e8 00 00 00 00	 call	 ?GetRace@CInstanceBase@@QAEKXZ ; CInstanceBase::GetRace
  0005a	50		 push	 eax
  0005b	e8 00 00 00 00	 call	 ?IS_HUGE_RACE@@YA_NI@Z	; IS_HUGE_RACE
  00060	f3 0f 10 45 10	 movss	 xmm0, DWORD PTR _fTargetDistance$1$[ebp]
  00065	83 c4 04	 add	 esp, 4
  00068	84 c0		 test	 al, al
  0006a	74 08		 je	 SHORT $LN3@ProcessEne

; 428  : 	{
; 429  : 		fTargetDistance -= 200.0f;

  0006c	f3 0f 5c 05 00
	00 00 00	 subss	 xmm0, DWORD PTR __real@43480000
$LN3@ProcessEne:

; 430  : 	}
; 431  : 
; 432  : 	if (fTargetDistance >= fSkillTargetRange)

  00074	0f 2f 45 fc	 comiss	 xmm0, DWORD PTR _fSkillTargetRange$1$[ebp]
  00078	72 40		 jb	 SHORT $LN4@ProcessEne

; 433  : 	{
; 434  : 		if (rkSkillData.IsChargeSkill())

  0007a	8b cf		 mov	 ecx, edi
  0007c	e8 00 00 00 00	 call	 ?IsChargeSkill@SSkillData@CPythonSkill@@QAEHXZ ; CPythonSkill::SSkillData::IsChargeSkill
  00081	8b 7d 14	 mov	 edi, DWORD PTR _dwSkillSlotIndex$[ebp]
  00084	85 c0		 test	 eax, eax
  00086	74 14		 je	 SHORT $LN6@ProcessEne

; 435  : 		{
; 436  : 			if (!__IsReservedUseSkill(dwSkillSlotIndex))

  00088	57		 push	 edi
  00089	8b ce		 mov	 ecx, esi
  0008b	e8 00 00 00 00	 call	 ?__IsReservedUseSkill@CPythonPlayer@@IAE_NK@Z ; CPythonPlayer::__IsReservedUseSkill
  00090	84 c0		 test	 al, al
  00092	75 08		 jne	 SHORT $LN6@ProcessEne

; 437  : 				__SendUseSkill(dwSkillSlotIndex, 0);

  00094	6a 00		 push	 0
  00096	57		 push	 edi
  00097	e8 00 00 00 00	 call	 ?__SendUseSkill@CPythonPlayer@@IAEXKK@Z ; CPythonPlayer::__SendUseSkill
$LN6@ProcessEne:

; 438  : 		}
; 439  : 
; 440  : 		__ReserveUseSkill(rkInstTarget.GetVirtualID(), dwSkillSlotIndex, dwSkillTargetRange);

  0009c	ff 75 f8	 push	 DWORD PTR _dwSkillTargetRange$1$[ebp]
  0009f	8b cb		 mov	 ecx, ebx
  000a1	57		 push	 edi
  000a2	e8 00 00 00 00	 call	 ?GetVirtualID@CInstanceBase@@QAEKXZ ; CInstanceBase::GetVirtualID
  000a7	50		 push	 eax
  000a8	8b ce		 mov	 ecx, esi
  000aa	e8 00 00 00 00	 call	 ?__ReserveUseSkill@CPythonPlayer@@IAEXKKK@Z ; CPythonPlayer::__ReserveUseSkill

; 441  : 
; 442  : 		return false;

  000af	32 c0		 xor	 al, al

; 453  : 	}
; 454  : 
; 455  : 	return true;
; 456  : }

  000b1	5f		 pop	 edi
  000b2	5e		 pop	 esi
  000b3	5b		 pop	 ebx
  000b4	8b e5		 mov	 esp, ebp
  000b6	5d		 pop	 ebp
  000b7	c2 10 00	 ret	 16			; 00000010H
$LN4@ProcessEne:

; 443  : 	}
; 444  : 
; 445  : 	TPixelPosition kPPosTarget;
; 446  : 	rkInstTarget.NEW_GetPixelPosition(&kPPosTarget);

  000ba	8d 45 ec	 lea	 eax, DWORD PTR _kPPosTarget$[ebp]
  000bd	8b cb		 mov	 ecx, ebx
  000bf	50		 push	 eax
  000c0	e8 00 00 00 00	 call	 ?NEW_GetPixelPosition@CInstanceBase@@QAEXPAUD3DXVECTOR3@@@Z ; CInstanceBase::NEW_GetPixelPosition
; File C:\Anka2Project\Anka2Project\Source\Binary\source\eterBase\Singleton.h

; 26   : 		assert(ms_singleton);

  000c5	8b 0d 00 00 00
	00		 mov	 ecx, DWORD PTR ?ms_singleton@?$CSingleton@VIBackground@@@@0PAVIBackground@@A ; CSingleton<IBackground>::ms_singleton
  000cb	85 c9		 test	 ecx, ecx
  000cd	75 1a		 jne	 SHORT $LN11@ProcessEne
  000cf	6a 1a		 push	 26			; 0000001aH
  000d1	68 00 00 00 00	 push	 OFFSET ??_C@_1IO@CAJLEEOI@?$AAC?$AA?3?$AA?2?$AAA?$AAn?$AAk?$AAa?$AA2?$AAP?$AAr?$AAo?$AAj?$AAe?$AAc?$AAt@
  000d6	68 00 00 00 00	 push	 OFFSET ??_C@_1BK@FMEHPMFE@?$AAm?$AAs?$AA_?$AAs?$AAi?$AAn?$AAg?$AAl?$AAe?$AAt?$AAo?$AAn@
  000db	e8 00 00 00 00	 call	 __wassert
  000e0	8b 0d 00 00 00
	00		 mov	 ecx, DWORD PTR ?ms_singleton@?$CSingleton@VIBackground@@@@0PAVIBackground@@A ; CSingleton<IBackground>::ms_singleton
  000e6	83 c4 0c	 add	 esp, 12			; 0000000cH
$LN11@ProcessEne:
; File C:\Anka2Project\Anka2Project\Source\Binary\source\UserInterface\PythonPlayerSkill.cpp

; 449  : 	if (rkBG.IsBlock(kPPosTarget.x, kPPosTarget.y))

  000e9	8b 01		 mov	 eax, DWORD PTR [ecx]
  000eb	8b 50 04	 mov	 edx, DWORD PTR [eax+4]
  000ee	f3 0f 2c 45 f0	 cvttss2si eax, DWORD PTR _kPPosTarget$[ebp+4]
  000f3	50		 push	 eax
  000f4	f3 0f 2c 45 ec	 cvttss2si eax, DWORD PTR _kPPosTarget$[ebp]
  000f9	50		 push	 eax
  000fa	ff d2		 call	 edx
  000fc	84 c0		 test	 al, al
  000fe	74 39		 je	 SHORT $LN7@ProcessEne

; 450  : 	{
; 451  : 		PyCallClassMemberFunc(m_ppyGameWindow, "OnCannotUseSkill", Py_BuildValue("(is)", GetMainCharacterIndex(), "CANNOT_APPROACH"));

  00100	8b 46 04	 mov	 eax, DWORD PTR [esi+4]
  00103	8d 4e 04	 lea	 ecx, DWORD PTR [esi+4]
  00106	68 00 00 00 00	 push	 OFFSET ??_C@_0BA@CFBPJACC@CANNOT_APPROACH@
  0010b	ff 50 04	 call	 DWORD PTR [eax+4]
  0010e	50		 push	 eax
  0010f	68 00 00 00 00	 push	 OFFSET ??_C@_04JMLDJNEM@?$CIis?$CJ@
  00114	ff 15 00 00 00
	00		 call	 DWORD PTR __imp__Py_BuildValue
  0011a	83 c4 0c	 add	 esp, 12			; 0000000cH
  0011d	50		 push	 eax
  0011e	68 00 00 00 00	 push	 OFFSET ??_C@_0BB@BOHMBBJL@OnCannotUseSkill@
  00123	ff 76 08	 push	 DWORD PTR [esi+8]
  00126	e8 00 00 00 00	 call	 ?PyCallClassMemberFunc@@YA_NPAU_object@@PBD0@Z ; PyCallClassMemberFunc
  0012b	83 c4 0c	 add	 esp, 12			; 0000000cH

; 452  : 		return false;

  0012e	32 c0		 xor	 al, al

; 453  : 	}
; 454  : 
; 455  : 	return true;
; 456  : }

  00130	5f		 pop	 edi
  00131	5e		 pop	 esi
  00132	5b		 pop	 ebx
  00133	8b e5		 mov	 esp, ebp
  00135	5d		 pop	 ebp
  00136	c2 10 00	 ret	 16			; 00000010H
$LN7@ProcessEne:
  00139	5f		 pop	 edi
  0013a	5e		 pop	 esi
  0013b	b0 01		 mov	 al, 1
  0013d	5b		 pop	 ebx
  0013e	8b e5		 mov	 esp, ebp
  00140	5d		 pop	 ebp
  00141	c2 10 00	 ret	 16			; 00000010H
?__ProcessEnemySkillTargetRange@CPythonPlayer@@IAE_NAAVCInstanceBase@@0AAUSSkillData@CPythonSkill@@K@Z ENDP ; CPythonPlayer::__ProcessEnemySkillTargetRange
_TEXT	ENDS
; Function compile flags: /Ogtp
; File C:\Anka2Project\Anka2Project\Source\Binary\source\UserInterface\PythonPlayerSkill.cpp
; File C:\Anka2Project\Anka2Project\Source\Binary\source\eterBase\Singleton.h
; File C:\Anka2Project\Anka2Project\Source\Binary\source\UserInterface\PythonPlayerSkill.cpp
; File C:\Anka2Project\Anka2Project\Source\Binary\source\eterBase\Singleton.h
; File C:\Anka2Project\Anka2Project\Source\Binary\source\UserInterface\PythonPlayerSkill.cpp
; File C:\Program Files\Microsoft Visual Studio\2022\Community\VC\Tools\MSVC\14.44.35207\include\vector
; File C:\Anka2Project\Anka2Project\Source\Binary\source\UserInterface\PythonPlayerSkill.cpp
; File C:\Program Files\Microsoft Visual Studio\2022\Community\VC\Tools\MSVC\14.44.35207\include\vector
; File C:\Anka2Project\Anka2Project\Source\Binary\source\UserInterface\PythonPlayerSkill.cpp
; File C:\Program Files\Microsoft Visual Studio\2022\Community\VC\Tools\MSVC\14.44.35207\include\vector
; File C:\Anka2Project\Anka2Project\Source\Binary\source\UserInterface\PythonPlayerSkill.cpp
; File C:\Anka2Project\Anka2Project\Source\Binary\source\eterBase\Singleton.h
; File C:\Anka2Project\Anka2Project\Source\Binary\source\UserInterface\PythonPlayerSkill.cpp
; File C:\Program Files\Microsoft Visual Studio\2022\Community\VC\Tools\MSVC\14.44.35207\include\vector
; File C:\Anka2Project\Anka2Project\Source\Binary\source\UserInterface\PythonPlayerSkill.cpp
; File C:\Program Files\Microsoft Visual Studio\2022\Community\VC\Tools\MSVC\14.44.35207\include\vector
; File C:\Anka2Project\Anka2Project\Source\Binary\source\UserInterface\PythonPlayerSkill.cpp
; File C:\Anka2Project\Anka2Project\Source\Binary\source\eterBase\Singleton.h
; File C:\Anka2Project\Anka2Project\Source\Binary\source\UserInterface\PythonPlayerSkill.cpp
; File C:\Program Files\Microsoft Visual Studio\2022\Community\VC\Tools\MSVC\14.44.35207\include\vector
; File C:\Anka2Project\Anka2Project\Source\Binary\source\UserInterface\PythonPlayerSkill.cpp
; File C:\Anka2Project\Anka2Project\Source\Binary\source\eterBase\Singleton.h
; File C:\Anka2Project\Anka2Project\Source\Binary\source\UserInterface\PythonPlayerSkill.cpp
; File C:\Program Files\Microsoft Visual Studio\2022\Community\VC\Tools\MSVC\14.44.35207\include\vector
; File C:\Program Files\Microsoft Visual Studio\2022\Community\VC\Tools\MSVC\14.44.35207\include\xmemory
; File C:\Program Files\Microsoft Visual Studio\2022\Community\VC\Tools\MSVC\14.44.35207\include\vector
; File C:\Program Files\Microsoft Visual Studio\2022\Community\VC\Tools\MSVC\14.44.35207\include\xmemory
; File C:\Program Files\Microsoft Visual Studio\2022\Community\VC\Tools\MSVC\14.44.35207\include\vector
; File C:\Anka2Project\Anka2Project\Source\Binary\source\UserInterface\PythonPlayerSkill.cpp
; File C:\Program Files\Microsoft Visual Studio\2022\Community\VC\Tools\MSVC\14.44.35207\include\xmemory
; File C:\Anka2Project\Anka2Project\Source\Binary\source\UserInterface\PythonPlayerSkill.cpp
;	COMDAT ?__UseSkill@CPythonPlayer@@IAE_NK@Z
_TEXT	SEGMENT
_pkInstMain$1$ = -96					; size = 4
_kVct_pkInstTarget$26 = -92				; size = 12
_dwSlotIndex$GSCopy$1$ = -80				; size = 4
tv1110 = -76						; size = 4
_dwTargetCount$1$ = -72					; size = 4
_pkInstTarget$ = -68					; size = 4
_pkInstEach$1$ = -68					; size = 4
_pkInstEach$1$ = -68					; size = 4
_dwPickedActorID$27 = -64				; size = 4
_dwSkillRange$1$ = -64					; size = 4
tv1195 = -64						; size = 4
?ms_singleton@?$CSingleton@VCPythonNetworkStream@@@@0PAVCPythonNetworkStream@@A$2 = -64 ; size = 4
?ms_singleton@?$CSingleton@VCPythonNetworkStream@@@@0PAVCPythonNetworkStream@@A$3 = -64 ; size = 4
_dwTargetMaxCount$1$ = -60				; size = 4
tv1193 = -60						; size = 4
_pkInstTarget$2$ = -56					; size = 4
_this$GSCopy$1$ = -52					; size = 4
_pSkillData$ = -48					; size = 4
_kPPosPickedGround$28 = -44				; size = 12
$T14 = -44						; size = 12
$T23 = -44						; size = 12
_kPPosDst$29 = -32					; size = 12
__$ArrayPad$ = -20					; size = 4
__$EHRec$ = -12						; size = 12
_dwSlotIndex$ = 8					; size = 4
?__UseSkill@CPythonPlayer@@IAE_NK@Z PROC		; CPythonPlayer::__UseSkill, COMDAT
; _this$ = ecx

; 484  : {

  00000	53		 push	 ebx
  00001	8b dc		 mov	 ebx, esp
  00003	83 ec 08	 sub	 esp, 8
  00006	83 e4 f8	 and	 esp, -8			; fffffff8H
  00009	83 c4 04	 add	 esp, 4
  0000c	55		 push	 ebp
  0000d	8b 6b 04	 mov	 ebp, DWORD PTR [ebx+4]
  00010	89 6c 24 04	 mov	 DWORD PTR [esp+4], ebp
  00014	8b ec		 mov	 ebp, esp
  00016	6a ff		 push	 -1
  00018	68 00 00 00 00	 push	 __ehhandler$?__UseSkill@CPythonPlayer@@IAE_NK@Z
  0001d	64 a1 00 00 00
	00		 mov	 eax, DWORD PTR fs:0
  00023	50		 push	 eax
  00024	53		 push	 ebx
  00025	83 ec 50	 sub	 esp, 80			; 00000050H
  00028	a1 00 00 00 00	 mov	 eax, DWORD PTR ___security_cookie
  0002d	33 c5		 xor	 eax, ebp
  0002f	89 45 ec	 mov	 DWORD PTR __$ArrayPad$[ebp], eax
  00032	56		 push	 esi
  00033	57		 push	 edi
  00034	50		 push	 eax
  00035	8d 45 f4	 lea	 eax, DWORD PTR __$EHRec$[ebp]
  00038	64 a3 00 00 00
	00		 mov	 DWORD PTR fs:0, eax
  0003e	8b f1		 mov	 esi, ecx
  00040	89 75 cc	 mov	 DWORD PTR _this$GSCopy$1$[ebp], esi
  00043	8b 7b 08	 mov	 edi, DWORD PTR _dwSlotIndex$[ebx]
  00046	89 7d b0	 mov	 DWORD PTR _dwSlotIndex$GSCopy$1$[ebp], edi

; 485  : 	// PrivateShop
; 486  : 	if (IsOpenPrivateShop())

  00049	e8 00 00 00 00	 call	 ?IsOpenPrivateShop@CPythonPlayer@@QAE_NXZ ; CPythonPlayer::IsOpenPrivateShop
  0004e	84 c0		 test	 al, al
  00050	0f 85 f5 07 00
	00		 jne	 $LN218@UseSkill

; 487  : 	{
; 488  : 		return true;
; 489  : 	}
; 490  : 
; 491  : 	if (!__CanUseSkill())

  00056	e8 00 00 00 00	 call	 ?__CanUseSkill@CPythonPlayer@@IAE_NXZ ; CPythonPlayer::__CanUseSkill
  0005b	84 c0		 test	 al, al
  0005d	74 16		 je	 SHORT $LN213@UseSkill

; 492  : 	{
; 493  : 		return false;
; 494  : 	}
; 495  : 
; 496  : 	if (dwSlotIndex >= SKILL_MAX_NUM)

  0005f	81 ff ff 00 00
	00		 cmp	 edi, 255		; 000000ffH
  00065	72 15		 jb	 SHORT $LN12@UseSkill

; 497  : 	{
; 498  : 		Tracenf("CPythonPlayer::__UseSkill(dwSlotIndex=%d) It's not available skill slot number", dwSlotIndex);

  00067	57		 push	 edi
  00068	68 00 00 00 00	 push	 OFFSET ??_C@_0EP@OENNGPFB@CPythonPlayer?3?3__UseSkill?$CIdwSlo@
  0006d	e8 00 00 00 00	 call	 ?Tracenf@@YAXPBDZZ	; Tracenf
  00072	83 c4 08	 add	 esp, 8
$LN213@UseSkill:

; 796  : }

  00075	32 c0		 xor	 al, al
  00077	e9 d1 07 00 00	 jmp	 $LN1@UseSkill
$LN12@UseSkill:

; 499  : 		return false;
; 500  : 	}
; 501  : 
; 502  : 	TSkillInstance & rkSkillInst = m_playerStatus.aSkill[dwSlotIndex];

  0007c	8d 04 bf	 lea	 eax, DWORD PTR [edi+edi*4]

; 503  : 
; 504  : 	if (__CheckSpecialSkill(rkSkillInst.dwIndex))

  0007f	8b ce		 mov	 ecx, esi
  00081	ff b4 c6 04 83
	01 00		 push	 DWORD PTR [esi+eax*8+99076]
  00088	89 45 b4	 mov	 DWORD PTR tv1110[ebp], eax
  0008b	e8 00 00 00 00	 call	 ?__CheckSpecialSkill@CPythonPlayer@@IAE_NK@Z ; CPythonPlayer::__CheckSpecialSkill
  00090	84 c0		 test	 al, al
  00092	0f 85 b3 07 00
	00		 jne	 $LN218@UseSkill
; File C:\Anka2Project\Anka2Project\Source\Binary\source\eterBase\Singleton.h

; 26   : 		assert(ms_singleton);

  00098	8b 0d 00 00 00
	00		 mov	 ecx, DWORD PTR ?ms_singleton@?$CSingleton@VCPythonSkill@@@@0PAVCPythonSkill@@A ; CSingleton<CPythonSkill>::ms_singleton
  0009e	85 c9		 test	 ecx, ecx
  000a0	75 1a		 jne	 SHORT $LN84@UseSkill
  000a2	6a 1a		 push	 26			; 0000001aH
  000a4	68 00 00 00 00	 push	 OFFSET ??_C@_1IO@CAJLEEOI@?$AAC?$AA?3?$AA?2?$AAA?$AAn?$AAk?$AAa?$AA2?$AAP?$AAr?$AAo?$AAj?$AAe?$AAc?$AAt@
  000a9	68 00 00 00 00	 push	 OFFSET ??_C@_1BK@FMEHPMFE@?$AAm?$AAs?$AA_?$AAs?$AAi?$AAn?$AAg?$AAl?$AAe?$AAt?$AAo?$AAn@
  000ae	e8 00 00 00 00	 call	 __wassert
  000b3	8b 0d 00 00 00
	00		 mov	 ecx, DWORD PTR ?ms_singleton@?$CSingleton@VCPythonSkill@@@@0PAVCPythonSkill@@A ; CSingleton<CPythonSkill>::ms_singleton
  000b9	83 c4 0c	 add	 esp, 12			; 0000000cH
$LN84@UseSkill:
; File C:\Anka2Project\Anka2Project\Source\Binary\source\UserInterface\PythonPlayerSkill.cpp

; 510  : 	if (!CPythonSkill::Instance().GetSkillData(rkSkillInst.dwIndex, &pSkillData))

  000bc	8d 45 d0	 lea	 eax, DWORD PTR _pSkillData$[ebp]
  000bf	50		 push	 eax
  000c0	8b 45 b4	 mov	 eax, DWORD PTR tv1110[ebp]
  000c3	ff b4 c6 04 83
	01 00		 push	 DWORD PTR [esi+eax*8+99076]
  000ca	e8 00 00 00 00	 call	 ?GetSkillData@CPythonSkill@@QAEHKPAPAUSSkillData@1@@Z ; CPythonSkill::GetSkillData
  000cf	85 c0		 test	 eax, eax
  000d1	75 15		 jne	 SHORT $LN14@UseSkill

; 511  : 	{
; 512  : 		Tracenf("CPythonPlayer::__UseSkill(dwSlotIndex=%d) There is no skill data", dwSlotIndex);

  000d3	57		 push	 edi
  000d4	68 00 00 00 00	 push	 OFFSET ??_C@_0EB@JKMJGFLB@CPythonPlayer?3?3__UseSkill?$CIdwSlo@
  000d9	e8 00 00 00 00	 call	 ?Tracenf@@YAXPBDZZ	; Tracenf
  000de	83 c4 08	 add	 esp, 8

; 513  : 		return false;

  000e1	32 c0		 xor	 al, al
  000e3	e9 65 07 00 00	 jmp	 $LN1@UseSkill
$LN14@UseSkill:

; 514  : 	}
; 515  : 
; 516  : 	if (pSkillData->IsToggleSkill())

  000e8	8b 4d d0	 mov	 ecx, DWORD PTR _pSkillData$[ebp]
  000eb	e8 00 00 00 00	 call	 ?IsToggleSkill@SSkillData@CPythonSkill@@QAEHXZ ; CPythonSkill::SSkillData::IsToggleSkill
  000f0	85 c0		 test	 eax, eax
  000f2	74 47		 je	 SHORT $LN16@UseSkill

; 517  : 	{
; 518  : 		if (IsSkillActive(dwSlotIndex))

  000f4	57		 push	 edi
  000f5	8b ce		 mov	 ecx, esi
  000f7	e8 00 00 00 00	 call	 ?IsSkillActive@CPythonPlayer@@QAEHK@Z ; CPythonPlayer::IsSkillActive
  000fc	85 c0		 test	 eax, eax
  000fe	74 3b		 je	 SHORT $LN16@UseSkill
; File C:\Anka2Project\Anka2Project\Source\Binary\source\eterBase\Singleton.h

; 26   : 		assert(ms_singleton);

  00100	8b 0d 00 00 00
	00		 mov	 ecx, DWORD PTR ?ms_singleton@?$CSingleton@VCPythonNetworkStream@@@@0PAVCPythonNetworkStream@@A ; CSingleton<CPythonNetworkStream>::ms_singleton
  00106	85 c9		 test	 ecx, ecx
  00108	75 1a		 jne	 SHORT $LN87@UseSkill
  0010a	6a 1a		 push	 26			; 0000001aH
  0010c	68 00 00 00 00	 push	 OFFSET ??_C@_1IO@CAJLEEOI@?$AAC?$AA?3?$AA?2?$AAA?$AAn?$AAk?$AAa?$AA2?$AAP?$AAr?$AAo?$AAj?$AAe?$AAc?$AAt@
  00111	68 00 00 00 00	 push	 OFFSET ??_C@_1BK@FMEHPMFE@?$AAm?$AAs?$AA_?$AAs?$AAi?$AAn?$AAg?$AAl?$AAe?$AAt?$AAo?$AAn@
  00116	e8 00 00 00 00	 call	 __wassert
  0011b	8b 0d 00 00 00
	00		 mov	 ecx, DWORD PTR ?ms_singleton@?$CSingleton@VCPythonNetworkStream@@@@0PAVCPythonNetworkStream@@A ; CSingleton<CPythonNetworkStream>::ms_singleton
  00121	83 c4 0c	 add	 esp, 12			; 0000000cH
$LN87@UseSkill:
; File C:\Anka2Project\Anka2Project\Source\Binary\source\UserInterface\PythonPlayerSkill.cpp

; 520  : 			CPythonNetworkStream::Instance().SendUseSkillPacket(rkSkillInst.dwIndex, dwSlotIndex);

  00124	8b 45 b4	 mov	 eax, DWORD PTR tv1110[ebp]
  00127	57		 push	 edi
  00128	ff b4 c6 04 83
	01 00		 push	 DWORD PTR [esi+eax*8+99076]
  0012f	e8 00 00 00 00	 call	 ?SendUseSkillPacket@CPythonNetworkStream@@QAE_NKK@Z ; CPythonNetworkStream::SendUseSkillPacket

; 521  : 			return false;

  00134	32 c0		 xor	 al, al
  00136	e9 12 07 00 00	 jmp	 $LN1@UseSkill
$LN16@UseSkill:

; 522  : 		}
; 523  : 	}
; 524  : 
; 525  : 	if (!__CheckSkillUsable(dwSlotIndex))

  0013b	57		 push	 edi
  0013c	8b ce		 mov	 ecx, esi
  0013e	e8 00 00 00 00	 call	 ?__CheckSkillUsable@CPythonPlayer@@IAE_NK@Z ; CPythonPlayer::__CheckSkillUsable
  00143	84 c0		 test	 al, al
  00145	0f 84 2a ff ff
	ff		 je	 $LN213@UseSkill

; 526  : 	{
; 527  : 		return false;
; 528  : 	}
; 529  : 
; 530  : 	CInstanceBase * pkInstMain = NEW_GetMainActorPtr();

  0014b	8b 46 04	 mov	 eax, DWORD PTR [esi+4]
  0014e	8d 4e 04	 lea	 ecx, DWORD PTR [esi+4]
  00151	89 4d c4	 mov	 DWORD PTR tv1193[ebp], ecx
  00154	8b 80 8c 00 00
	00		 mov	 eax, DWORD PTR [eax+140]
  0015a	ff d0		 call	 eax
  0015c	8b f0		 mov	 esi, eax
  0015e	89 75 a0	 mov	 DWORD PTR _pkInstMain$1$[ebp], esi

; 531  : 	if (!pkInstMain)

  00161	85 f6		 test	 esi, esi
  00163	75 15		 jne	 SHORT $LN18@UseSkill

; 532  : 	{
; 533  : 		Tracenf("CPythonPlayer::__UseSkill(dwSlotIndex=%d) There is no main player", dwSlotIndex);

  00165	57		 push	 edi
  00166	68 00 00 00 00	 push	 OFFSET ??_C@_0EC@MMFCNDJC@CPythonPlayer?3?3__UseSkill?$CIdwSlo@
  0016b	e8 00 00 00 00	 call	 ?Tracenf@@YAXPBDZZ	; Tracenf
  00170	83 c4 08	 add	 esp, 8

; 534  : 		return false;

  00173	32 c0		 xor	 al, al
  00175	e9 d3 06 00 00	 jmp	 $LN1@UseSkill
$LN18@UseSkill:

; 535  : 	}
; 536  : 
; 537  : 	if (pkInstMain->IsUsingSkill())

  0017a	8b ce		 mov	 ecx, esi
  0017c	e8 00 00 00 00	 call	 ?IsUsingSkill@CInstanceBase@@QAEHXZ ; CInstanceBase::IsUsingSkill
  00181	85 c0		 test	 eax, eax
  00183	0f 85 ec fe ff
	ff		 jne	 $LN213@UseSkill

; 538  : 	{
; 539  : 		return false;
; 540  : 	}
; 541  : 
; 542  : 	CInstanceBase * pkInstTarget = nullptr;
; 543  : 
; 544  : 	if (pSkillData->IsNeedTarget() ||
; 545  : 		pSkillData->CanChangeDirection() ||

  00189	8b 4d d0	 mov	 ecx, DWORD PTR _pSkillData$[ebp]
  0018c	33 ff		 xor	 edi, edi
  0018e	89 7d c8	 mov	 DWORD PTR _pkInstTarget$2$[ebp], edi
  00191	e8 00 00 00 00	 call	 ?IsNeedTarget@SSkillData@CPythonSkill@@QAEHXZ ; CPythonSkill::SSkillData::IsNeedTarget
  00196	85 c0		 test	 eax, eax
  00198	75 16		 jne	 SHORT $LN21@UseSkill
  0019a	e8 00 00 00 00	 call	 ?CanChangeDirection@SSkillData@CPythonSkill@@QAEHXZ ; CPythonSkill::SSkillData::CanChangeDirection
  0019f	85 c0		 test	 eax, eax
  001a1	75 0d		 jne	 SHORT $LN21@UseSkill
  001a3	e8 00 00 00 00	 call	 ?IsAutoSearchTarget@SSkillData@CPythonSkill@@QAEHXZ ; CPythonSkill::SSkillData::IsAutoSearchTarget
  001a8	85 c0		 test	 eax, eax
  001aa	0f 84 a2 02 00
	00		 je	 $LN54@UseSkill
$LN21@UseSkill:

; 546  : 		pSkillData->IsAutoSearchTarget())
; 547  : 	{
; 548  : 		if (pSkillData->IsNeedCorpse())

  001b0	e8 00 00 00 00	 call	 ?IsNeedCorpse@SSkillData@CPythonSkill@@QAEHXZ ; CPythonSkill::SSkillData::IsNeedCorpse
  001b5	8b 4d cc	 mov	 ecx, DWORD PTR _this$GSCopy$1$[ebp]
  001b8	85 c0		 test	 eax, eax
  001ba	74 07		 je	 SHORT $LN22@UseSkill

; 549  : 			pkInstTarget=__GetDeadTargetInstancePtr();

  001bc	e8 00 00 00 00	 call	 ?__GetDeadTargetInstancePtr@CPythonPlayer@@IAEPAVCInstanceBase@@XZ ; CPythonPlayer::__GetDeadTargetInstancePtr
  001c1	eb 05		 jmp	 SHORT $LN235@UseSkill
$LN22@UseSkill:

; 550  : 		else
; 551  : 			pkInstTarget=__GetAliveTargetInstancePtr();

  001c3	e8 00 00 00 00	 call	 ?__GetAliveTargetInstancePtr@CPythonPlayer@@IAEPAVCInstanceBase@@XZ ; CPythonPlayer::__GetAliveTargetInstancePtr
$LN235@UseSkill:

; 552  : 
; 553  : 		if (!pkInstTarget)

  001c8	8b f8		 mov	 edi, eax
  001ca	89 7d c8	 mov	 DWORD PTR _pkInstTarget$2$[ebp], edi
  001cd	85 ff		 test	 edi, edi
  001cf	0f 85 19 01 00
	00		 jne	 $LN211@UseSkill

; 554  : 		{
; 555  : 			__ChangeTargetToPickedInstance();

  001d5	8b 7d cc	 mov	 edi, DWORD PTR _this$GSCopy$1$[ebp]
  001d8	8b cf		 mov	 ecx, edi
  001da	e8 00 00 00 00	 call	 ?__ChangeTargetToPickedInstance@CPythonPlayer@@IAE_NXZ ; CPythonPlayer::__ChangeTargetToPickedInstance

; 556  : 
; 557  : 			if (pSkillData->IsNeedCorpse())

  001df	8b 4d d0	 mov	 ecx, DWORD PTR _pSkillData$[ebp]
  001e2	e8 00 00 00 00	 call	 ?IsNeedCorpse@SSkillData@CPythonSkill@@QAEHXZ ; CPythonSkill::SSkillData::IsNeedCorpse
  001e7	8b cf		 mov	 ecx, edi
  001e9	85 c0		 test	 eax, eax
  001eb	74 07		 je	 SHORT $LN25@UseSkill

; 558  : 				pkInstTarget=__GetDeadTargetInstancePtr();

  001ed	e8 00 00 00 00	 call	 ?__GetDeadTargetInstancePtr@CPythonPlayer@@IAEPAVCInstanceBase@@XZ ; CPythonPlayer::__GetDeadTargetInstancePtr
  001f2	eb 05		 jmp	 SHORT $LN236@UseSkill
$LN25@UseSkill:

; 559  : 			else
; 560  : 				pkInstTarget=__GetAliveTargetInstancePtr();

  001f4	e8 00 00 00 00	 call	 ?__GetAliveTargetInstancePtr@CPythonPlayer@@IAEPAVCInstanceBase@@XZ ; CPythonPlayer::__GetAliveTargetInstancePtr
$LN236@UseSkill:

; 561  : 		}
; 562  : 
; 563  : 		if (pkInstTarget)

  001f9	8b f8		 mov	 edi, eax
  001fb	89 7d c8	 mov	 DWORD PTR _pkInstTarget$2$[ebp], edi
  001fe	89 7d bc	 mov	 DWORD PTR _pkInstTarget$[ebp], edi
  00201	85 ff		 test	 edi, edi
  00203	0f 85 e5 00 00
	00		 jne	 $LN211@UseSkill

; 634  : 				}
; 635  : 			}
; 636  : 		}
; 637  : 		else
; 638  : 		{
; 639  : 			if (pSkillData->IsAutoSearchTarget())

  00209	8b 4d d0	 mov	 ecx, DWORD PTR _pSkillData$[ebp]
  0020c	e8 00 00 00 00	 call	 ?IsAutoSearchTarget@SSkillData@CPythonSkill@@QAEHXZ ; CPythonSkill::SSkillData::IsAutoSearchTarget
  00211	85 c0		 test	 eax, eax
  00213	0f 84 89 00 00
	00		 je	 $LN227@UseSkill

; 640  : 			{
; 641  : 				if (pkInstMain->NEW_GetFrontInstance(&pkInstTarget, 2000.0f))

  00219	f3 0f 10 15 00
	00 00 00	 movss	 xmm2, DWORD PTR __real@44fa0000
  00221	8d 45 bc	 lea	 eax, DWORD PTR _pkInstTarget$[ebp]
  00224	50		 push	 eax
  00225	8b ce		 mov	 ecx, esi
  00227	e8 00 00 00 00	 call	 ?NEW_GetFrontInstance@CInstanceBase@@QAE_NPAPAV1@M@Z ; CInstanceBase::NEW_GetFrontInstance
  0022c	8b 7d c4	 mov	 edi, DWORD PTR tv1193[ebp]
  0022f	8b 17		 mov	 edx, DWORD PTR [edi]
  00231	89 55 c0	 mov	 DWORD PTR tv1195[ebp], edx
  00234	84 c0		 test	 al, al
  00236	74 60		 je	 SHORT $LN48@UseSkill

; 642  : 				{
; 643  : 					SetTarget(pkInstTarget->GetVirtualID());

  00238	8b 75 bc	 mov	 esi, DWORD PTR _pkInstTarget$[ebp]
  0023b	8b ce		 mov	 ecx, esi
  0023d	e8 00 00 00 00	 call	 ?GetVirtualID@CInstanceBase@@QAEKXZ ; CInstanceBase::GetVirtualID
  00242	6a 00		 push	 0
  00244	6a 01		 push	 1
  00246	50		 push	 eax
  00247	8b 45 c0	 mov	 eax, DWORD PTR tv1195[ebp]
  0024a	8b cf		 mov	 ecx, edi
  0024c	ff 50 68	 call	 DWORD PTR [eax+104]

; 644  : 					if (!__ProcessEnemySkillTargetRange(*pkInstMain, *pkInstTarget, *pSkillData, dwSlotIndex))

  0024f	ff 75 b0	 push	 DWORD PTR _dwSlotIndex$GSCopy$1$[ebp]
  00252	8b 45 d0	 mov	 eax, DWORD PTR _pSkillData$[ebp]
  00255	8b 7d cc	 mov	 edi, DWORD PTR _this$GSCopy$1$[ebp]
  00258	8b cf		 mov	 ecx, edi
  0025a	50		 push	 eax
  0025b	56		 push	 esi
  0025c	8b 75 a0	 mov	 esi, DWORD PTR _pkInstMain$1$[ebp]
  0025f	56		 push	 esi
  00260	e8 00 00 00 00	 call	 ?__ProcessEnemySkillTargetRange@CPythonPlayer@@IAE_NAAVCInstanceBase@@0AAUSSkillData@CPythonSkill@@K@Z ; CPythonPlayer::__ProcessEnemySkillTargetRange
  00265	84 c0		 test	 al, al
  00267	0f 84 08 fe ff
	ff		 je	 $LN213@UseSkill
  0026d	8b 4d d0	 mov	 ecx, DWORD PTR _pSkillData$[ebp]
$LN49@UseSkill:

; 651  : 				}
; 652  : 			}
; 653  : 
; 654  : 			if (pSkillData->CanUseForMe())

  00270	e8 00 00 00 00	 call	 ?CanUseForMe@SSkillData@CPythonSkill@@QAEHXZ ; CPythonSkill::SSkillData::CanUseForMe
  00275	85 c0		 test	 eax, eax
  00277	74 2e		 je	 SHORT $LN51@UseSkill

; 655  : 			{
; 656  : 				pkInstTarget = pkInstMain;

  00279	8b fe		 mov	 edi, esi

; 657  : 				pkInstMain->SetFlyTargetInstance(*pkInstMain);

  0027b	8b ce		 mov	 ecx, esi
  0027d	56		 push	 esi
  0027e	89 7d c8	 mov	 DWORD PTR _pkInstTarget$2$[ebp], edi
  00281	e8 00 00 00 00	 call	 ?SetFlyTargetInstance@CInstanceBase@@QAEXAAV1@@Z ; CInstanceBase::SetFlyTargetInstance

; 658  : 				Tracef(" [ALERT] The target is set to yourself\n");

  00286	68 00 00 00 00	 push	 OFFSET ??_C@_0CI@EKHACINO@?5?$FLALERT?$FN?5The?5target?5is?5set?5to?5y@
  0028b	e8 00 00 00 00	 call	 ?Tracef@@YAXPBDZZ	; Tracef
  00290	83 c4 04	 add	 esp, 4
  00293	e9 ba 01 00 00	 jmp	 $LN54@UseSkill
$LN48@UseSkill:

; 645  : 						return false;
; 646  : 				}
; 647  : 				else
; 648  : 				{
; 649  : 					PyCallClassMemberFunc(m_ppyGameWindow, "OnCannotUseSkill", Py_BuildValue("(is)", GetMainCharacterIndex(), "NEED_TARGET"));

  00298	8b 42 04	 mov	 eax, DWORD PTR [edx+4]
  0029b	68 00 00 00 00	 push	 OFFSET ??_C@_0M@HCIEKIGP@NEED_TARGET@

; 650  : 					return false;

  002a0	eb 7a		 jmp	 SHORT $LN241@UseSkill
$LN227@UseSkill:

; 634  : 				}
; 635  : 			}
; 636  : 		}
; 637  : 		else
; 638  : 		{
; 639  : 			if (pSkillData->IsAutoSearchTarget())

  002a2	8b 7d cc	 mov	 edi, DWORD PTR _this$GSCopy$1$[ebp]
  002a5	eb c9		 jmp	 SHORT $LN49@UseSkill
$LN51@UseSkill:

; 659  : 			}
; 660  : 			else if (pSkillData->IsNeedCorpse())

  002a7	8b 77 04	 mov	 esi, DWORD PTR [edi+4]
  002aa	e8 00 00 00 00	 call	 ?IsNeedCorpse@SSkillData@CPythonSkill@@QAEHXZ ; CPythonSkill::SSkillData::IsNeedCorpse
  002af	85 c0		 test	 eax, eax
  002b1	8d 4f 04	 lea	 ecx, DWORD PTR [edi+4]
  002b4	8b 46 04	 mov	 eax, DWORD PTR [esi+4]
  002b7	74 2e		 je	 SHORT $LN53@UseSkill

; 661  : 			{
; 662  : 				PyCallClassMemberFunc(m_ppyGameWindow, "OnCannotUseSkill", Py_BuildValue("(is)", GetMainCharacterIndex(), "ONLY_FOR_CORPSE"));

  002b9	68 00 00 00 00	 push	 OFFSET ??_C@_0BA@FPMNLALM@ONLY_FOR_CORPSE@
$LN242@UseSkill:

; 796  : }

  002be	ff d0		 call	 eax
  002c0	50		 push	 eax
  002c1	68 00 00 00 00	 push	 OFFSET ??_C@_04JMLDJNEM@?$CIis?$CJ@
  002c6	ff 15 00 00 00
	00		 call	 DWORD PTR __imp__Py_BuildValue
  002cc	83 c4 0c	 add	 esp, 12			; 0000000cH
  002cf	50		 push	 eax
  002d0	68 00 00 00 00	 push	 OFFSET ??_C@_0BB@BOHMBBJL@OnCannotUseSkill@
  002d5	ff 77 08	 push	 DWORD PTR [edi+8]
  002d8	e8 00 00 00 00	 call	 ?PyCallClassMemberFunc@@YA_NPAU_object@@PBD0@Z ; PyCallClassMemberFunc
  002dd	83 c4 0c	 add	 esp, 12			; 0000000cH
  002e0	32 c0		 xor	 al, al
  002e2	e9 66 05 00 00	 jmp	 $LN1@UseSkill
$LN53@UseSkill:

; 663  : 				return false;
; 664  : 			}
; 665  : 			else
; 666  : 			{
; 667  : 				PyCallClassMemberFunc(m_ppyGameWindow, "OnCannotUseSkill", Py_BuildValue("(is)", GetMainCharacterIndex(), "NEED_TARGET"));

  002e7	68 00 00 00 00	 push	 OFFSET ??_C@_0M@HCIEKIGP@NEED_TARGET@

; 668  : 				return false;

  002ec	eb d0		 jmp	 SHORT $LN242@UseSkill
$LN211@UseSkill:

; 564  : 		{
; 565  : 			if (pSkillData->IsOnlyForAlliance())

  002ee	8b 4d d0	 mov	 ecx, DWORD PTR _pSkillData$[ebp]
  002f1	e8 00 00 00 00	 call	 ?IsOnlyForAlliance@SSkillData@CPythonSkill@@QAEHXZ ; CPythonSkill::SSkillData::IsOnlyForAlliance
  002f6	85 c0		 test	 eax, eax
  002f8	0f 84 f0 00 00
	00		 je	 $LN29@UseSkill

; 566  : 			{
; 567  : 				if (pkInstMain == pkInstTarget)

  002fe	3b f7		 cmp	 esi, edi
  00300	75 48		 jne	 SHORT $LN31@UseSkill

; 568  : 				{
; 569  : 					if (!pSkillData->CanUseForMe())

  00302	e8 00 00 00 00	 call	 ?CanUseForMe@SSkillData@CPythonSkill@@QAEHXZ ; CPythonSkill::SSkillData::CanUseForMe
  00307	85 c0		 test	 eax, eax
  00309	0f 85 1d 01 00
	00		 jne	 $LN43@UseSkill

; 570  : 					{
; 571  : 						PyCallClassMemberFunc(m_ppyGameWindow, "OnCannotUseSkill", Py_BuildValue("(is)", GetMainCharacterIndex(), "CANNOT_USE_SELF"));

  0030f	68 00 00 00 00	 push	 OFFSET ??_C@_0BA@GMGJKDGM@CANNOT_USE_SELF@
$LN237@UseSkill:

; 796  : }

  00314	8b 7d c4	 mov	 edi, DWORD PTR tv1193[ebp]
  00317	8b 07		 mov	 eax, DWORD PTR [edi]
  00319	8b 40 04	 mov	 eax, DWORD PTR [eax+4]
$LN241@UseSkill:
  0031c	8b cf		 mov	 ecx, edi
  0031e	ff d0		 call	 eax
  00320	50		 push	 eax
  00321	68 00 00 00 00	 push	 OFFSET ??_C@_04JMLDJNEM@?$CIis?$CJ@
  00326	ff 15 00 00 00
	00		 call	 DWORD PTR __imp__Py_BuildValue
  0032c	83 c4 0c	 add	 esp, 12			; 0000000cH
  0032f	50		 push	 eax
  00330	8b 45 cc	 mov	 eax, DWORD PTR _this$GSCopy$1$[ebp]
  00333	68 00 00 00 00	 push	 OFFSET ??_C@_0BB@BOHMBBJL@OnCannotUseSkill@
  00338	ff 70 08	 push	 DWORD PTR [eax+8]
  0033b	e8 00 00 00 00	 call	 ?PyCallClassMemberFunc@@YA_NPAU_object@@PBD0@Z ; PyCallClassMemberFunc
  00340	83 c4 0c	 add	 esp, 12			; 0000000cH
  00343	32 c0		 xor	 al, al
  00345	e9 03 05 00 00	 jmp	 $LN1@UseSkill
$LN31@UseSkill:

; 572  : 						return false;
; 573  : 					}
; 574  : 				}
; 575  : 				else if (!pkInstMain->IsAttackableInstance(*pkInstTarget) && pkInstTarget->IsPC())

  0034a	57		 push	 edi
  0034b	8b ce		 mov	 ecx, esi
  0034d	e8 00 00 00 00	 call	 ?IsAttackableInstance@CInstanceBase@@QAE_NAAV1@@Z ; CInstanceBase::IsAttackableInstance
  00352	84 c0		 test	 al, al
  00354	75 6e		 jne	 SHORT $LN34@UseSkill
  00356	8b cf		 mov	 ecx, edi
  00358	e8 00 00 00 00	 call	 ?IsPC@CInstanceBase@@QAEHXZ ; CInstanceBase::IsPC
  0035d	85 c0		 test	 eax, eax
  0035f	74 63		 je	 SHORT $LN34@UseSkill

; 576  : 				{
; 577  : 					DWORD dwSkillRange = __GetSkillTargetRange(*pSkillData);

  00361	8b 45 d0	 mov	 eax, DWORD PTR _pSkillData$[ebp]
  00364	8b 4d cc	 mov	 ecx, DWORD PTR _this$GSCopy$1$[ebp]
  00367	50		 push	 eax
  00368	e8 00 00 00 00	 call	 ?__GetSkillTargetRange@CPythonPlayer@@IAEKAAUSSkillData@CPythonSkill@@@Z ; CPythonPlayer::__GetSkillTargetRange
  0036d	89 45 c0	 mov	 DWORD PTR _dwSkillRange$1$[ebp], eax

; 578  : 
; 579  : 					if (dwSkillRange > 0)

  00370	85 c0		 test	 eax, eax
  00372	0f 84 b4 00 00
	00		 je	 $LN43@UseSkill

; 580  : 					{
; 581  : 						float fDistance=pkInstMain->GetDistance(pkInstTarget);

  00378	57		 push	 edi
  00379	8b ce		 mov	 ecx, esi
  0037b	e8 00 00 00 00	 call	 ?GetDistance@CInstanceBase@@QAEMPAV1@@Z ; CInstanceBase::GetDistance

; 582  : 						if (fDistance>=float(dwSkillRange))

  00380	8b 4d c0	 mov	 ecx, DWORD PTR _dwSkillRange$1$[ebp]
  00383	0f 28 d0	 movaps	 xmm2, xmm0
  00386	8b c1		 mov	 eax, ecx
  00388	c1 e8 1f	 shr	 eax, 31			; 0000001fH
  0038b	66 0f 6e c9	 movd	 xmm1, ecx
  0038f	f3 0f e6 c9	 cvtdq2pd xmm1, xmm1
  00393	f2 0f 58 0c c5
	00 00 00 00	 addsd	 xmm1, QWORD PTR __xmm@41f00000000000000000000000000000[eax*8]
  0039c	66 0f 5a c1	 cvtpd2ps xmm0, xmm1
  003a0	0f 2f d0	 comiss	 xmm2, xmm0
  003a3	0f 82 83 00 00
	00		 jb	 $LN43@UseSkill

; 583  : 						{
; 584  : 							__ReserveUseSkill(pkInstTarget->GetVirtualID(), dwSlotIndex, dwSkillRange);

  003a9	51		 push	 ecx
  003aa	ff 75 b0	 push	 DWORD PTR _dwSlotIndex$GSCopy$1$[ebp]
  003ad	8b cf		 mov	 ecx, edi
  003af	e8 00 00 00 00	 call	 ?GetVirtualID@CInstanceBase@@QAEKXZ ; CInstanceBase::GetVirtualID
  003b4	8b 4d cc	 mov	 ecx, DWORD PTR _this$GSCopy$1$[ebp]
  003b7	50		 push	 eax
  003b8	e8 00 00 00 00	 call	 ?__ReserveUseSkill@CPythonPlayer@@IAEXKKK@Z ; CPythonPlayer::__ReserveUseSkill

; 585  : 							return false;

  003bd	32 c0		 xor	 al, al
  003bf	e9 89 04 00 00	 jmp	 $LN1@UseSkill
$LN34@UseSkill:

; 586  : 						}
; 587  : 					}
; 588  : 				}
; 589  : 				else
; 590  : 				{
; 591  : 					if (pSkillData->CanUseForMe())

  003c4	8b 4d d0	 mov	 ecx, DWORD PTR _pSkillData$[ebp]
  003c7	e8 00 00 00 00	 call	 ?CanUseForMe@SSkillData@CPythonSkill@@QAEHXZ ; CPythonSkill::SSkillData::CanUseForMe
  003cc	85 c0		 test	 eax, eax
  003ce	74 14		 je	 SHORT $LN38@UseSkill

; 592  : 					{
; 593  : 						pkInstTarget = pkInstMain;

  003d0	8b fe		 mov	 edi, esi

; 594  : 						Tracef(" [ALERT] 동료에게 사용하는 기술임에도 적에게 타겟팅 되어있어서 자신에게로 재설정\n");

  003d2	68 00 00 00 00	 push	 OFFSET ??_C@_0FC@NMOECDOK@?5?$FLALERT?$FN?5?$LF?$LP?$LH?a?$LP?$KB?$LA?T?5?$LL?g?$LP?k?G?O?$LE?B?5?$LB?b?$LM?z@
  003d7	89 7d c8	 mov	 DWORD PTR _pkInstTarget$2$[ebp], edi
  003da	e8 00 00 00 00	 call	 ?Tracef@@YAXPBDZZ	; Tracef
  003df	83 c4 04	 add	 esp, 4

; 600  : 					}
; 601  : 				}
; 602  : 			}

  003e2	eb 48		 jmp	 SHORT $LN43@UseSkill
$LN38@UseSkill:

; 595  : 					}
; 596  : 					else
; 597  : 					{
; 598  : 						PyCallClassMemberFunc(m_ppyGameWindow, "OnCannotUseSkill", Py_BuildValue("(is)", GetMainCharacterIndex(), "ONLY_FOR_ALLIANCE"));

  003e4	68 00 00 00 00	 push	 OFFSET ??_C@_0BC@CKDFNGK@ONLY_FOR_ALLIANCE@

; 599  : 						return false;

  003e9	e9 26 ff ff ff	 jmp	 $LN237@UseSkill
$LN29@UseSkill:

; 603  : 			else
; 604  : 			{
; 605  : 				if (pkInstTarget->IsInSafe())

  003ee	8b cf		 mov	 ecx, edi
  003f0	e8 00 00 00 00	 call	 ?IsInSafe@CInstanceBase@@QAEHXZ ; CInstanceBase::IsInSafe
  003f5	85 c0		 test	 eax, eax
  003f7	74 0a		 je	 SHORT $LN40@UseSkill

; 606  : 				{
; 607  : 					PyCallClassMemberFunc(m_ppyGameWindow, "OnCannotUseSkill", Py_BuildValue("(is)", GetMainCharacterIndex(), "CANNOT_ATTACK_ENEMY_IN_SAFE_AREA"));

  003f9	68 00 00 00 00	 push	 OFFSET ??_C@_0CB@HEDIGIHC@CANNOT_ATTACK_ENEMY_IN_SAFE_ARE@

; 608  : 					return false;

  003fe	e9 11 ff ff ff	 jmp	 $LN237@UseSkill
$LN40@UseSkill:

; 609  : 				}
; 610  : 
; 611  : 				if (pkInstMain->IsAttackableInstance(*pkInstTarget))

  00403	57		 push	 edi
  00404	8b ce		 mov	 ecx, esi
  00406	e8 00 00 00 00	 call	 ?IsAttackableInstance@CInstanceBase@@QAE_NAAV1@@Z ; CInstanceBase::IsAttackableInstance
  0040b	84 c0		 test	 al, al
  0040d	0f 84 5a 04 00
	00		 je	 $LN41@UseSkill

; 612  : 				{
; 613  : 					if (!__ProcessEnemySkillTargetRange(*pkInstMain, *pkInstTarget, *pSkillData, dwSlotIndex))

  00413	ff 75 b0	 push	 DWORD PTR _dwSlotIndex$GSCopy$1$[ebp]
  00416	8b 45 d0	 mov	 eax, DWORD PTR _pSkillData$[ebp]
  00419	8b 4d cc	 mov	 ecx, DWORD PTR _this$GSCopy$1$[ebp]
  0041c	50		 push	 eax
  0041d	57		 push	 edi
  0041e	56		 push	 esi
  0041f	e8 00 00 00 00	 call	 ?__ProcessEnemySkillTargetRange@CPythonPlayer@@IAE_NAAVCInstanceBase@@0AAUSSkillData@CPythonSkill@@K@Z ; CPythonPlayer::__ProcessEnemySkillTargetRange
  00424	84 c0		 test	 al, al
  00426	0f 84 49 fc ff
	ff		 je	 $LN213@UseSkill
$LN43@UseSkill:

; 620  : 				}
; 621  : 			}
; 622  : 
; 623  : 			pkInstMain->SetFlyTargetInstance(*pkInstTarget);

  0042c	57		 push	 edi
  0042d	8b ce		 mov	 ecx, esi
  0042f	e8 00 00 00 00	 call	 ?SetFlyTargetInstance@CInstanceBase@@QAEXAAV1@@Z ; CInstanceBase::SetFlyTargetInstance

; 624  : 
; 625  : 			if (pkInstMain != pkInstTarget)

  00434	3b f7		 cmp	 esi, edi
  00436	74 1a		 je	 SHORT $LN54@UseSkill

; 626  : 			{
; 627  : 				if (pkInstMain->IsFlyTargetObject())

  00438	8b ce		 mov	 ecx, esi
  0043a	e8 00 00 00 00	 call	 ?IsFlyTargetObject@CInstanceBase@@QAE_NXZ ; CInstanceBase::IsFlyTargetObject
  0043f	8b ce		 mov	 ecx, esi
  00441	84 c0		 test	 al, al
  00443	74 07		 je	 SHORT $LN45@UseSkill

; 628  : 				{
; 629  : 					pkInstMain->NEW_LookAtFlyTarget();

  00445	e8 00 00 00 00	 call	 ?NEW_LookAtFlyTarget@CInstanceBase@@QAEXXZ ; CInstanceBase::NEW_LookAtFlyTarget

; 630  : 				}

  0044a	eb 06		 jmp	 SHORT $LN54@UseSkill
$LN45@UseSkill:

; 631  : 				else
; 632  : 				{
; 633  : 					pkInstMain->NEW_LookAtDestInstance(*pkInstTarget);

  0044c	57		 push	 edi
  0044d	e8 00 00 00 00	 call	 ?NEW_LookAtDestInstance@CInstanceBase@@QAEXAAV1@@Z ; CInstanceBase::NEW_LookAtDestInstance
$LN54@UseSkill:

; 669  : 			}
; 670  : 		}
; 671  : 	}
; 672  : 
; 673  : 	if (pSkillData->CanChangeDirection())

  00452	8b 4d d0	 mov	 ecx, DWORD PTR _pSkillData$[ebp]
  00455	e8 00 00 00 00	 call	 ?CanChangeDirection@SSkillData@CPythonSkill@@QAEHXZ ; CPythonSkill::SSkillData::CanChangeDirection
  0045a	85 c0		 test	 eax, eax
  0045c	74 5f		 je	 SHORT $LN62@UseSkill

; 674  : 	{
; 675  : 		DWORD dwPickedActorID;
; 676  : 		TPixelPosition kPPosPickedGround;
; 677  : 
; 678  : 		if (pkInstTarget && pkInstTarget!=pkInstMain)

  0045e	85 ff		 test	 edi, edi
  00460	74 0e		 je	 SHORT $LN56@UseSkill
  00462	3b fe		 cmp	 edi, esi
  00464	74 0a		 je	 SHORT $LN56@UseSkill

; 679  : 		{
; 680  : 			pkInstMain->NEW_LookAtDestInstance(*pkInstTarget);

  00466	57		 push	 edi
  00467	8b ce		 mov	 ecx, esi
  00469	e8 00 00 00 00	 call	 ?NEW_LookAtDestInstance@CInstanceBase@@QAEXAAV1@@Z ; CInstanceBase::NEW_LookAtDestInstance

; 681  : 		}

  0046e	eb 4d		 jmp	 SHORT $LN62@UseSkill
$LN56@UseSkill:

; 682  : 		else if (__GetPickedActorID(&dwPickedActorID))

  00470	8d 45 c0	 lea	 eax, DWORD PTR _dwPickedActorID$27[ebp]
  00473	50		 push	 eax
  00474	e8 00 00 00 00	 call	 ?__GetPickedActorID@CPythonPlayer@@IAE_NPAK@Z ; CPythonPlayer::__GetPickedActorID
  00479	84 c0		 test	 al, al
  0047b	74 16		 je	 SHORT $LN58@UseSkill

; 683  : 		{
; 684  : 			CInstanceBase* pkInstVictim=NEW_FindActorPtr(dwPickedActorID);

  0047d	ff 75 c0	 push	 DWORD PTR _dwPickedActorID$27[ebp]
  00480	e8 00 00 00 00	 call	 ?NEW_FindActorPtr@CPythonPlayer@@QAEPAVCInstanceBase@@K@Z ; CPythonPlayer::NEW_FindActorPtr

; 685  : 			if (pkInstVictim)

  00485	85 c0		 test	 eax, eax
  00487	74 34		 je	 SHORT $LN62@UseSkill

; 686  : 				pkInstMain->NEW_LookAtDestInstance(*pkInstVictim);

  00489	50		 push	 eax
  0048a	8b ce		 mov	 ecx, esi
  0048c	e8 00 00 00 00	 call	 ?NEW_LookAtDestInstance@CInstanceBase@@QAEXAAV1@@Z ; CInstanceBase::NEW_LookAtDestInstance

; 687  : 		}

  00491	eb 2a		 jmp	 SHORT $LN62@UseSkill
$LN58@UseSkill:

; 688  : 		else if (__GetPickedGroundPos(&kPPosPickedGround))

  00493	8d 45 d4	 lea	 eax, DWORD PTR _kPPosPickedGround$28[ebp]
  00496	50		 push	 eax
  00497	e8 00 00 00 00	 call	 ?__GetPickedGroundPos@CPythonPlayer@@IAE_NPAUD3DXVECTOR3@@@Z ; CPythonPlayer::__GetPickedGroundPos
  0049c	84 c0		 test	 al, al
  0049e	74 0d		 je	 SHORT $LN61@UseSkill

; 689  : 		{
; 690  : 			pkInstMain->NEW_LookAtDestPixelPosition(kPPosPickedGround);

  004a0	8d 45 d4	 lea	 eax, DWORD PTR _kPPosPickedGround$28[ebp]
  004a3	8b ce		 mov	 ecx, esi
  004a5	50		 push	 eax
  004a6	e8 00 00 00 00	 call	 ?NEW_LookAtDestPixelPosition@CInstanceBase@@QAEXABUD3DXVECTOR3@@@Z ; CInstanceBase::NEW_LookAtDestPixelPosition

; 691  : 		}

  004ab	eb 10		 jmp	 SHORT $LN62@UseSkill
$LN61@UseSkill:

; 692  : 		else
; 693  : 		{
; 694  : 			Tracenf("CPythonPlayer::__UseSkill(%d) - 화면 기준 방향 설정을 해야함", dwSlotIndex);

  004ad	ff 75 b0	 push	 DWORD PTR _dwSlotIndex$GSCopy$1$[ebp]
  004b0	68 00 00 00 00	 push	 OFFSET ??_C@_0DN@DLLIDDMA@CPythonPlayer?3?3__UseSkill?$CI?$CFd?$CJ?5?9@
  004b5	e8 00 00 00 00	 call	 ?Tracenf@@YAXPBDZZ	; Tracenf
  004ba	83 c4 08	 add	 esp, 8
$LN62@UseSkill:

; 695  : 		}
; 696  : 	}
; 697  : 
; 698  : 	DWORD dwTargetMaxCount = pSkillData->GetTargetCount(rkSkillInst.fcurEfficientPercentage);

  004bd	8b 45 cc	 mov	 eax, DWORD PTR _this$GSCopy$1$[ebp]
  004c0	8b 4d b4	 mov	 ecx, DWORD PTR tv1110[ebp]
  004c3	f3 0f 10 8c c8
	14 83 01 00	 movss	 xmm1, DWORD PTR [eax+ecx*8+99092]
  004cc	8b 4d d0	 mov	 ecx, DWORD PTR _pSkillData$[ebp]
  004cf	e8 00 00 00 00	 call	 ?GetTargetCount@SSkillData@CPythonSkill@@QAEKM@Z ; CPythonSkill::SSkillData::GetTargetCount

; 699  : 	DWORD dwRange = __GetSkillTargetRange(*pSkillData);

  004d4	ff 75 d0	 push	 DWORD PTR _pSkillData$[ebp]
  004d7	8b 4d cc	 mov	 ecx, DWORD PTR _this$GSCopy$1$[ebp]
  004da	89 45 c4	 mov	 DWORD PTR _dwTargetMaxCount$1$[ebp], eax
  004dd	e8 00 00 00 00	 call	 ?__GetSkillTargetRange@CPythonPlayer@@IAEKAAUSSkillData@CPythonSkill@@@Z ; CPythonPlayer::__GetSkillTargetRange

; 700  : 	if (dwTargetMaxCount>0 && pkInstTarget)

  004e2	83 7d c4 00	 cmp	 DWORD PTR _dwTargetMaxCount$1$[ebp], 0
  004e6	8b d0		 mov	 edx, eax
  004e8	0f 86 b3 02 00
	00		 jbe	 $LN95@UseSkill
  004ee	85 ff		 test	 edi, edi
  004f0	0f 84 ab 02 00
	00		 je	 $LN95@UseSkill
; File C:\Program Files\Microsoft Visual Studio\2022\Community\VC\Tools\MSVC\14.44.35207\include\vector

; 400  :     _CONSTEXPR20 _Vector_val() noexcept : _Myfirst(), _Mylast(), _Myend() {}

  004f6	33 ff		 xor	 edi, edi
; File C:\Anka2Project\Anka2Project\Source\Binary\source\UserInterface\PythonPlayerSkill.cpp

; 702  : 		DWORD dwTargetCount=1;

  004f8	c7 45 b8 01 00
	00 00		 mov	 DWORD PTR _dwTargetCount$1$[ebp], 1
; File C:\Program Files\Microsoft Visual Studio\2022\Community\VC\Tools\MSVC\14.44.35207\include\vector

; 400  :     _CONSTEXPR20 _Vector_val() noexcept : _Myfirst(), _Mylast(), _Myend() {}

  004ff	89 7d a4	 mov	 DWORD PTR _kVct_pkInstTarget$26[ebp], edi
  00502	89 7d a8	 mov	 DWORD PTR _kVct_pkInstTarget$26[ebp+4], edi
  00505	89 7d ac	 mov	 DWORD PTR _kVct_pkInstTarget$26[ebp+8], edi
; File C:\Anka2Project\Anka2Project\Source\Binary\source\UserInterface\PythonPlayerSkill.cpp

; 703  : 		std::vector<CInstanceBase*> kVct_pkInstTarget;

  00508	89 7d fc	 mov	 DWORD PTR __$EHRec$[ebp+8], edi

; 704  : 
; 705  : 		if (pSkillData->IsFanRange())

  0050b	8b 4d d0	 mov	 ecx, DWORD PTR _pSkillData$[ebp]
  0050e	e8 00 00 00 00	 call	 ?IsFanRange@SSkillData@CPythonSkill@@QAEHXZ ; CPythonSkill::SSkillData::IsFanRange
  00513	85 c0		 test	 eax, eax
  00515	0f 84 e2 00 00
	00		 je	 $LN64@UseSkill

; 706  : 		{
; 707  : 			if (pkInstMain->NEW_GetInstanceVectorInFanRange(float(dwRange), *pkInstTarget, &kVct_pkInstTarget))

  0051b	66 0f 6e c2	 movd	 xmm0, edx
  0051f	8d 45 a4	 lea	 eax, DWORD PTR _kVct_pkInstTarget$26[ebp]
  00522	f3 0f e6 c0	 cvtdq2pd xmm0, xmm0
  00526	c1 ea 1f	 shr	 edx, 31			; 0000001fH
  00529	8b ce		 mov	 ecx, esi
  0052b	50		 push	 eax
  0052c	ff 75 c8	 push	 DWORD PTR _pkInstTarget$2$[ebp]
  0052f	f2 0f 58 04 d5
	00 00 00 00	 addsd	 xmm0, QWORD PTR __xmm@41f00000000000000000000000000000[edx*8]
  00538	66 0f 5a c8	 cvtpd2ps xmm1, xmm0
  0053c	e8 00 00 00 00	 call	 ?NEW_GetInstanceVectorInFanRange@CInstanceBase@@QAE_NMAAV1@PAV?$vector@PAVCInstanceBase@@V?$allocator@PAVCInstanceBase@@@std@@@std@@@Z ; CInstanceBase::NEW_GetInstanceVectorInFanRange
  00541	84 c0		 test	 al, al
  00543	0f 84 95 01 00
	00		 je	 $LN223@UseSkill
; File C:\Program Files\Microsoft Visual Studio\2022\Community\VC\Tools\MSVC\14.44.35207\include\vector

; 166  :         return _Ptr == _Right._Ptr;

  00549	8b 7d a4	 mov	 edi, DWORD PTR _kVct_pkInstTarget$26[ebp]
  0054c	3b 7d a8	 cmp	 edi, DWORD PTR _kVct_pkInstTarget$26[ebp+4]
; File C:\Anka2Project\Anka2Project\Source\Binary\source\UserInterface\PythonPlayerSkill.cpp

; 710  : 				for (i=kVct_pkInstTarget.begin(); i!=kVct_pkInstTarget.end(); ++i)

  0054f	0f 84 8c 01 00
	00		 je	 $LN200@UseSkill
  00555	b8 01 00 00 00	 mov	 eax, 1
  0055a	66 0f 1f 44 00
	00		 npad	 6
$LL4@UseSkill:

; 711  : 				{
; 712  : 					if (dwTargetCount>=dwTargetMaxCount)

  00560	3b 45 c4	 cmp	 eax, DWORD PTR _dwTargetMaxCount$1$[ebp]
  00563	0f 83 e5 01 00
	00		 jae	 $LN226@UseSkill

; 713  : 						break;
; 714  : 
; 715  : 					CInstanceBase* pkInstEach=*i;

  00569	8b 07		 mov	 eax, DWORD PTR [edi]
  0056b	89 45 bc	 mov	 DWORD PTR _pkInstEach$1$[ebp], eax

; 716  : 
; 717  : 					if (pkInstTarget!=pkInstEach && !pkInstEach->IsDead())

  0056e	39 45 c8	 cmp	 DWORD PTR _pkInstTarget$2$[ebp], eax
  00571	74 76		 je	 SHORT $LN230@UseSkill
  00573	8b c8		 mov	 ecx, eax
  00575	e8 00 00 00 00	 call	 ?IsDead@CInstanceBase@@QAEHXZ ; CInstanceBase::IsDead
  0057a	85 c0		 test	 eax, eax
  0057c	75 6b		 jne	 SHORT $LN230@UseSkill

; 718  : 					{
; 719  : 						pkInstMain->AddFlyTargetInstance(*pkInstEach);

  0057e	ff 75 bc	 push	 DWORD PTR _pkInstEach$1$[ebp]
  00581	8b ce		 mov	 ecx, esi
  00583	e8 00 00 00 00	 call	 ?AddFlyTargetInstance@CInstanceBase@@QAEXAAV1@@Z ; CInstanceBase::AddFlyTargetInstance
; File C:\Anka2Project\Anka2Project\Source\Binary\source\eterBase\Singleton.h

; 26   : 		assert(ms_singleton);

  00588	a1 00 00 00 00	 mov	 eax, DWORD PTR ?ms_singleton@?$CSingleton@VCPythonNetworkStream@@@@0PAVCPythonNetworkStream@@A ; CSingleton<CPythonNetworkStream>::ms_singleton
  0058d	89 45 c0	 mov	 DWORD PTR ?ms_singleton@?$CSingleton@VCPythonNetworkStream@@@@0PAVCPythonNetworkStream@@A$2[ebp], eax
  00590	85 c0		 test	 eax, eax
  00592	75 1c		 jne	 SHORT $LN177@UseSkill
  00594	6a 1a		 push	 26			; 0000001aH
  00596	68 00 00 00 00	 push	 OFFSET ??_C@_1IO@CAJLEEOI@?$AAC?$AA?3?$AA?2?$AAA?$AAn?$AAk?$AAa?$AA2?$AAP?$AAr?$AAo?$AAj?$AAe?$AAc?$AAt@
  0059b	68 00 00 00 00	 push	 OFFSET ??_C@_1BK@FMEHPMFE@?$AAm?$AAs?$AA_?$AAs?$AAi?$AAn?$AAg?$AAl?$AAe?$AAt?$AAo?$AAn@
  005a0	e8 00 00 00 00	 call	 __wassert
  005a5	a1 00 00 00 00	 mov	 eax, DWORD PTR ?ms_singleton@?$CSingleton@VCPythonNetworkStream@@@@0PAVCPythonNetworkStream@@A ; CSingleton<CPythonNetworkStream>::ms_singleton
  005aa	83 c4 0c	 add	 esp, 12			; 0000000cH
  005ad	89 45 c0	 mov	 DWORD PTR ?ms_singleton@?$CSingleton@VCPythonNetworkStream@@@@0PAVCPythonNetworkStream@@A$2[ebp], eax
$LN177@UseSkill:
; File C:\Anka2Project\Anka2Project\Source\Binary\source\UserInterface\PythonPlayerSkill.cpp

; 720  : 						CPythonNetworkStream::Instance().SendAddFlyTargetingPacket(pkInstEach->GetVirtualID(), pkInstEach->GetGraphicThingInstanceRef().OnGetFlyTargetPosition());

  005b0	8b 4d bc	 mov	 ecx, DWORD PTR _pkInstEach$1$[ebp]
  005b3	e8 00 00 00 00	 call	 ?GetGraphicThingInstanceRef@CInstanceBase@@QAEAAVCActorInstance@@XZ ; CInstanceBase::GetGraphicThingInstanceRef
  005b8	8d 55 d4	 lea	 edx, DWORD PTR $T14[ebp]
  005bb	52		 push	 edx
  005bc	8d 88 7c 03 00
	00		 lea	 ecx, DWORD PTR [eax+892]
  005c2	8b 01		 mov	 eax, DWORD PTR [ecx]
  005c4	8b 40 04	 mov	 eax, DWORD PTR [eax+4]
  005c7	ff d0		 call	 eax
  005c9	8b 4d bc	 mov	 ecx, DWORD PTR _pkInstEach$1$[ebp]
  005cc	8b f0		 mov	 esi, eax
  005ce	e8 00 00 00 00	 call	 ?GetVirtualID@CInstanceBase@@QAEKXZ ; CInstanceBase::GetVirtualID
  005d3	8b 4d c0	 mov	 ecx, DWORD PTR ?ms_singleton@?$CSingleton@VCPythonNetworkStream@@@@0PAVCPythonNetworkStream@@A$2[ebp]
  005d6	56		 push	 esi
  005d7	50		 push	 eax
  005d8	e8 00 00 00 00	 call	 ?SendAddFlyTargetingPacket@CPythonNetworkStream@@QAE_NKABUD3DXVECTOR3@@@Z ; CPythonNetworkStream::SendAddFlyTargetingPacket

; 721  : 
; 722  : 						dwTargetCount++;

  005dd	8b 45 b8	 mov	 eax, DWORD PTR _dwTargetCount$1$[ebp]
  005e0	8b 75 a0	 mov	 esi, DWORD PTR _pkInstMain$1$[ebp]
  005e3	40		 inc	 eax
  005e4	89 45 b8	 mov	 DWORD PTR _dwTargetCount$1$[ebp], eax
  005e7	eb 03		 jmp	 SHORT $LN2@UseSkill
$LN230@UseSkill:
; File C:\Program Files\Microsoft Visual Studio\2022\Community\VC\Tools\MSVC\14.44.35207\include\vector

; 82   :         ++_Ptr;

  005e9	8b 45 b8	 mov	 eax, DWORD PTR _dwTargetCount$1$[ebp]
$LN2@UseSkill:
  005ec	83 c7 04	 add	 edi, 4

; 166  :         return _Ptr == _Right._Ptr;

  005ef	3b 7d a8	 cmp	 edi, DWORD PTR _kVct_pkInstTarget$26[ebp+4]
; File C:\Anka2Project\Anka2Project\Source\Binary\source\UserInterface\PythonPlayerSkill.cpp

; 710  : 				for (i=kVct_pkInstTarget.begin(); i!=kVct_pkInstTarget.end(); ++i)

  005f2	0f 85 68 ff ff
	ff		 jne	 $LL4@UseSkill

; 723  : 					}
; 724  : 				}
; 725  : 			}
; 726  : 		}

  005f8	e9 e1 00 00 00	 jmp	 $LN223@UseSkill
$LN64@UseSkill:

; 727  : 		else if (pSkillData->IsCircleRange())

  005fd	e8 00 00 00 00	 call	 ?IsCircleRange@SSkillData@CPythonSkill@@QAEHXZ ; CPythonSkill::SSkillData::IsCircleRange
  00602	85 c0		 test	 eax, eax
  00604	0f 84 d7 00 00
	00		 je	 $LN200@UseSkill

; 728  : 		{
; 729  : 			if (pkInstMain->NEW_GetInstanceVectorInCircleRange(float(dwRange), &kVct_pkInstTarget))

  0060a	66 0f 6e c2	 movd	 xmm0, edx
  0060e	8d 45 a4	 lea	 eax, DWORD PTR _kVct_pkInstTarget$26[ebp]
  00611	f3 0f e6 c0	 cvtdq2pd xmm0, xmm0
  00615	c1 ea 1f	 shr	 edx, 31			; 0000001fH
  00618	8b ce		 mov	 ecx, esi
  0061a	50		 push	 eax
  0061b	f2 0f 58 04 d5
	00 00 00 00	 addsd	 xmm0, QWORD PTR __xmm@41f00000000000000000000000000000[edx*8]
  00624	66 0f 5a c8	 cvtpd2ps xmm1, xmm0
  00628	e8 00 00 00 00	 call	 ?NEW_GetInstanceVectorInCircleRange@CInstanceBase@@QAE_NMPAV?$vector@PAVCInstanceBase@@V?$allocator@PAVCInstanceBase@@@std@@@std@@@Z ; CInstanceBase::NEW_GetInstanceVectorInCircleRange
  0062d	84 c0		 test	 al, al
  0062f	0f 84 a9 00 00
	00		 je	 $LN223@UseSkill
; File C:\Program Files\Microsoft Visual Studio\2022\Community\VC\Tools\MSVC\14.44.35207\include\vector

; 166  :         return _Ptr == _Right._Ptr;

  00635	8b 7d a4	 mov	 edi, DWORD PTR _kVct_pkInstTarget$26[ebp]
  00638	3b 7d a8	 cmp	 edi, DWORD PTR _kVct_pkInstTarget$26[ebp+4]
; File C:\Anka2Project\Anka2Project\Source\Binary\source\UserInterface\PythonPlayerSkill.cpp

; 732  : 				for (i=kVct_pkInstTarget.begin(); i!=kVct_pkInstTarget.end(); ++i)

  0063b	0f 84 a0 00 00
	00		 je	 $LN200@UseSkill
  00641	b8 01 00 00 00	 mov	 eax, 1
$LL7@UseSkill:

; 733  : 				{
; 734  : 					if (dwTargetCount>=dwTargetMaxCount)

  00646	3b 45 c4	 cmp	 eax, DWORD PTR _dwTargetMaxCount$1$[ebp]
  00649	0f 83 ff 00 00
	00		 jae	 $LN226@UseSkill

; 735  : 						break;
; 736  : 
; 737  : 					CInstanceBase* pkInstEach=*i;

  0064f	8b 07		 mov	 eax, DWORD PTR [edi]
  00651	89 45 bc	 mov	 DWORD PTR _pkInstEach$1$[ebp], eax

; 738  : 
; 739  : 					if (pkInstTarget!=pkInstEach && !pkInstEach->IsDead())

  00654	39 45 c8	 cmp	 DWORD PTR _pkInstTarget$2$[ebp], eax
  00657	74 76		 je	 SHORT $LN232@UseSkill
  00659	8b c8		 mov	 ecx, eax
  0065b	e8 00 00 00 00	 call	 ?IsDead@CInstanceBase@@QAEHXZ ; CInstanceBase::IsDead
  00660	85 c0		 test	 eax, eax
  00662	75 6b		 jne	 SHORT $LN232@UseSkill

; 740  : 					{
; 741  : 						pkInstMain->AddFlyTargetInstance(*pkInstEach);

  00664	ff 75 bc	 push	 DWORD PTR _pkInstEach$1$[ebp]
  00667	8b ce		 mov	 ecx, esi
  00669	e8 00 00 00 00	 call	 ?AddFlyTargetInstance@CInstanceBase@@QAEXAAV1@@Z ; CInstanceBase::AddFlyTargetInstance
; File C:\Anka2Project\Anka2Project\Source\Binary\source\eterBase\Singleton.h

; 26   : 		assert(ms_singleton);

  0066e	a1 00 00 00 00	 mov	 eax, DWORD PTR ?ms_singleton@?$CSingleton@VCPythonNetworkStream@@@@0PAVCPythonNetworkStream@@A ; CSingleton<CPythonNetworkStream>::ms_singleton
  00673	89 45 c0	 mov	 DWORD PTR ?ms_singleton@?$CSingleton@VCPythonNetworkStream@@@@0PAVCPythonNetworkStream@@A$3[ebp], eax
  00676	85 c0		 test	 eax, eax
  00678	75 1c		 jne	 SHORT $LN195@UseSkill
  0067a	6a 1a		 push	 26			; 0000001aH
  0067c	68 00 00 00 00	 push	 OFFSET ??_C@_1IO@CAJLEEOI@?$AAC?$AA?3?$AA?2?$AAA?$AAn?$AAk?$AAa?$AA2?$AAP?$AAr?$AAo?$AAj?$AAe?$AAc?$AAt@
  00681	68 00 00 00 00	 push	 OFFSET ??_C@_1BK@FMEHPMFE@?$AAm?$AAs?$AA_?$AAs?$AAi?$AAn?$AAg?$AAl?$AAe?$AAt?$AAo?$AAn@
  00686	e8 00 00 00 00	 call	 __wassert
  0068b	a1 00 00 00 00	 mov	 eax, DWORD PTR ?ms_singleton@?$CSingleton@VCPythonNetworkStream@@@@0PAVCPythonNetworkStream@@A ; CSingleton<CPythonNetworkStream>::ms_singleton
  00690	83 c4 0c	 add	 esp, 12			; 0000000cH
  00693	89 45 c0	 mov	 DWORD PTR ?ms_singleton@?$CSingleton@VCPythonNetworkStream@@@@0PAVCPythonNetworkStream@@A$3[ebp], eax
$LN195@UseSkill:
; File C:\Anka2Project\Anka2Project\Source\Binary\source\UserInterface\PythonPlayerSkill.cpp

; 742  : 						CPythonNetworkStream::Instance().SendAddFlyTargetingPacket(pkInstEach->GetVirtualID(), pkInstEach->GetGraphicThingInstanceRef().OnGetFlyTargetPosition());

  00696	8b 4d bc	 mov	 ecx, DWORD PTR _pkInstEach$1$[ebp]
  00699	e8 00 00 00 00	 call	 ?GetGraphicThingInstanceRef@CInstanceBase@@QAEAAVCActorInstance@@XZ ; CInstanceBase::GetGraphicThingInstanceRef
  0069e	8d 55 d4	 lea	 edx, DWORD PTR $T23[ebp]
  006a1	52		 push	 edx
  006a2	8d 88 7c 03 00
	00		 lea	 ecx, DWORD PTR [eax+892]
  006a8	8b 01		 mov	 eax, DWORD PTR [ecx]
  006aa	8b 40 04	 mov	 eax, DWORD PTR [eax+4]
  006ad	ff d0		 call	 eax
  006af	8b 4d bc	 mov	 ecx, DWORD PTR _pkInstEach$1$[ebp]
  006b2	8b f0		 mov	 esi, eax
  006b4	e8 00 00 00 00	 call	 ?GetVirtualID@CInstanceBase@@QAEKXZ ; CInstanceBase::GetVirtualID
  006b9	8b 4d c0	 mov	 ecx, DWORD PTR ?ms_singleton@?$CSingleton@VCPythonNetworkStream@@@@0PAVCPythonNetworkStream@@A$3[ebp]
  006bc	56		 push	 esi
  006bd	50		 push	 eax
  006be	e8 00 00 00 00	 call	 ?SendAddFlyTargetingPacket@CPythonNetworkStream@@QAE_NKABUD3DXVECTOR3@@@Z ; CPythonNetworkStream::SendAddFlyTargetingPacket

; 743  : 
; 744  : 						dwTargetCount++;

  006c3	8b 45 b8	 mov	 eax, DWORD PTR _dwTargetCount$1$[ebp]
  006c6	8b 75 a0	 mov	 esi, DWORD PTR _pkInstMain$1$[ebp]
  006c9	40		 inc	 eax
  006ca	89 45 b8	 mov	 DWORD PTR _dwTargetCount$1$[ebp], eax
  006cd	eb 03		 jmp	 SHORT $LN5@UseSkill
$LN232@UseSkill:
; File C:\Program Files\Microsoft Visual Studio\2022\Community\VC\Tools\MSVC\14.44.35207\include\vector

; 82   :         ++_Ptr;

  006cf	8b 45 b8	 mov	 eax, DWORD PTR _dwTargetCount$1$[ebp]
$LN5@UseSkill:
  006d2	83 c7 04	 add	 edi, 4

; 166  :         return _Ptr == _Right._Ptr;

  006d5	3b 7d a8	 cmp	 edi, DWORD PTR _kVct_pkInstTarget$26[ebp+4]
; File C:\Anka2Project\Anka2Project\Source\Binary\source\UserInterface\PythonPlayerSkill.cpp

; 732  : 				for (i=kVct_pkInstTarget.begin(); i!=kVct_pkInstTarget.end(); ++i)

  006d8	0f 85 68 ff ff
	ff		 jne	 $LL7@UseSkill
$LN223@UseSkill:

; 745  : 					}
; 746  : 				}
; 747  : 			}
; 748  : 		}
; 749  : 
; 750  : 		if (dwTargetCount<dwTargetMaxCount)

  006de	8b 7d a4	 mov	 edi, DWORD PTR _kVct_pkInstTarget$26[ebp]
$LN200@UseSkill:
  006e1	8b 45 b8	 mov	 eax, DWORD PTR _dwTargetCount$1$[ebp]
  006e4	3b 45 c4	 cmp	 eax, DWORD PTR _dwTargetMaxCount$1$[ebp]
  006e7	73 68		 jae	 SHORT $LN9@UseSkill
  006e9	8b 7d c4	 mov	 edi, DWORD PTR _dwTargetMaxCount$1$[ebp]
  006ec	2b f8		 sub	 edi, eax
  006ee	66 90		 npad	 2
$LL8@UseSkill:

; 751  : 		{
; 752  : 			while (dwTargetCount<dwTargetMaxCount)
; 753  : 			{
; 754  : 				TPixelPosition kPPosDst;
; 755  : 				pkInstMain->NEW_GetRandomPositionInFanRange(*pkInstTarget, &kPPosDst);

  006f0	8d 45 e0	 lea	 eax, DWORD PTR _kPPosDst$29[ebp]
  006f3	8b ce		 mov	 ecx, esi
  006f5	50		 push	 eax
  006f6	ff 75 c8	 push	 DWORD PTR _pkInstTarget$2$[ebp]
  006f9	e8 00 00 00 00	 call	 ?NEW_GetRandomPositionInFanRange@CInstanceBase@@QAEXAAV1@PAUD3DXVECTOR3@@@Z ; CInstanceBase::NEW_GetRandomPositionInFanRange

; 756  : 
; 757  : 				kPPosDst.x=kPPosDst.x;
; 758  : 				kPPosDst.y=-kPPosDst.y;

  006fe	f3 0f 10 45 e4	 movss	 xmm0, DWORD PTR _kPPosDst$29[ebp+4]

; 759  : 
; 760  : 				pkInstMain->AddFlyTargetPosition(kPPosDst);

  00703	8d 45 e0	 lea	 eax, DWORD PTR _kPPosDst$29[ebp]
  00706	0f 57 05 00 00
	00 00		 xorps	 xmm0, DWORD PTR __xmm@80000000800000008000000080000000
  0070d	8b ce		 mov	 ecx, esi
  0070f	50		 push	 eax
  00710	f3 0f 11 45 e4	 movss	 DWORD PTR _kPPosDst$29[ebp+4], xmm0
  00715	e8 00 00 00 00	 call	 ?AddFlyTargetPosition@CInstanceBase@@QAEXABUD3DXVECTOR3@@@Z ; CInstanceBase::AddFlyTargetPosition
; File C:\Anka2Project\Anka2Project\Source\Binary\source\eterBase\Singleton.h

; 26   : 		assert(ms_singleton);

  0071a	8b 0d 00 00 00
	00		 mov	 ecx, DWORD PTR ?ms_singleton@?$CSingleton@VCPythonNetworkStream@@@@0PAVCPythonNetworkStream@@A ; CSingleton<CPythonNetworkStream>::ms_singleton
  00720	85 c9		 test	 ecx, ecx
  00722	75 1a		 jne	 SHORT $LN90@UseSkill
  00724	6a 1a		 push	 26			; 0000001aH
  00726	68 00 00 00 00	 push	 OFFSET ??_C@_1IO@CAJLEEOI@?$AAC?$AA?3?$AA?2?$AAA?$AAn?$AAk?$AAa?$AA2?$AAP?$AAr?$AAo?$AAj?$AAe?$AAc?$AAt@
  0072b	68 00 00 00 00	 push	 OFFSET ??_C@_1BK@FMEHPMFE@?$AAm?$AAs?$AA_?$AAs?$AAi?$AAn?$AAg?$AAl?$AAe?$AAt?$AAo?$AAn@
  00730	e8 00 00 00 00	 call	 __wassert
  00735	8b 0d 00 00 00
	00		 mov	 ecx, DWORD PTR ?ms_singleton@?$CSingleton@VCPythonNetworkStream@@@@0PAVCPythonNetworkStream@@A ; CSingleton<CPythonNetworkStream>::ms_singleton
  0073b	83 c4 0c	 add	 esp, 12			; 0000000cH
$LN90@UseSkill:
; File C:\Anka2Project\Anka2Project\Source\Binary\source\UserInterface\PythonPlayerSkill.cpp

; 761  : 				CPythonNetworkStream::Instance().SendAddFlyTargetingPacket(0, kPPosDst);

  0073e	8d 45 e0	 lea	 eax, DWORD PTR _kPPosDst$29[ebp]
  00741	50		 push	 eax
  00742	6a 00		 push	 0
  00744	e8 00 00 00 00	 call	 ?SendAddFlyTargetingPacket@CPythonNetworkStream@@QAE_NKABUD3DXVECTOR3@@@Z ; CPythonNetworkStream::SendAddFlyTargetingPacket
  00749	83 ef 01	 sub	 edi, 1
  0074c	75 a2		 jne	 SHORT $LL8@UseSkill
$LN226@UseSkill:

; 762  : 
; 763  : 				dwTargetCount++;
; 764  : 			}
; 765  : 		}
; 766  : 	}

  0074e	8b 7d a4	 mov	 edi, DWORD PTR _kVct_pkInstTarget$26[ebp]
$LN9@UseSkill:
  00751	c7 45 fc ff ff
	ff ff		 mov	 DWORD PTR __$EHRec$[ebp+8], -1
; File C:\Program Files\Microsoft Visual Studio\2022\Community\VC\Tools\MSVC\14.44.35207\include\vector

; 2090 :         if (_Myfirst) { // destroy and deallocate old array

  00758	85 ff		 test	 edi, edi
  0075a	74 45		 je	 SHORT $LN95@UseSkill

; 2093 :             _Al.deallocate(_Myfirst, static_cast<size_type>(_Myend - _Myfirst));

  0075c	8b 4d ac	 mov	 ecx, DWORD PTR _kVct_pkInstTarget$26[ebp+8]
; File C:\Program Files\Microsoft Visual Studio\2022\Community\VC\Tools\MSVC\14.44.35207\include\xmemory

; 985  :         _STD _Deallocate<_New_alignof<_Ty>>(_Ptr, sizeof(_Ty) * _Count);

  0075f	8b c7		 mov	 eax, edi
; File C:\Program Files\Microsoft Visual Studio\2022\Community\VC\Tools\MSVC\14.44.35207\include\vector

; 2093 :             _Al.deallocate(_Myfirst, static_cast<size_type>(_Myend - _Myfirst));

  00761	2b cf		 sub	 ecx, edi
; File C:\Program Files\Microsoft Visual Studio\2022\Community\VC\Tools\MSVC\14.44.35207\include\xmemory

; 985  :         _STD _Deallocate<_New_alignof<_Ty>>(_Ptr, sizeof(_Ty) * _Count);

  00763	83 e1 fc	 and	 ecx, -4			; fffffffcH

; 284  :         if (_Bytes >= _Big_allocation_threshold) {

  00766	81 f9 00 10 00
	00		 cmp	 ecx, 4096		; 00001000H
  0076c	72 14		 jb	 SHORT $LN109@UseSkill

; 205  :     const uintptr_t _Ptr_container   = _Ptr_user[-1];

  0076e	8b 78 fc	 mov	 edi, DWORD PTR [eax-4]
  00771	83 c1 23	 add	 ecx, 35			; 00000023H
  00774	2b c7		 sub	 eax, edi

; 219  :     _STL_VERIFY(_Back_shift >= _Min_back_shift && _Back_shift <= _Non_user_size, "invalid argument");

  00776	83 c0 fc	 add	 eax, -4			; fffffffcH
  00779	83 f8 1f	 cmp	 eax, 31			; 0000001fH
  0077c	0f 87 f5 00 00
	00		 ja	 $LN244@UseSkill
$LN109@UseSkill:

; 289  :         ::operator delete(_Ptr, _Bytes);

  00782	51		 push	 ecx
  00783	57		 push	 edi
  00784	e8 00 00 00 00	 call	 ??3@YAXPAXI@Z		; operator delete
  00789	83 c4 08	 add	 esp, 8
; File C:\Program Files\Microsoft Visual Studio\2022\Community\VC\Tools\MSVC\14.44.35207\include\vector

; 2095 :             _Myfirst = nullptr;

  0078c	c7 45 a4 00 00
	00 00		 mov	 DWORD PTR _kVct_pkInstTarget$26[ebp], 0

; 2096 :             _Mylast  = nullptr;

  00793	c7 45 a8 00 00
	00 00		 mov	 DWORD PTR _kVct_pkInstTarget$26[ebp+4], 0

; 2097 :             _Myend   = nullptr;

  0079a	c7 45 ac 00 00
	00 00		 mov	 DWORD PTR _kVct_pkInstTarget$26[ebp+8], 0
$LN95@UseSkill:
; File C:\Anka2Project\Anka2Project\Source\Binary\source\UserInterface\PythonPlayerSkill.cpp

; 768  : 	__ClearReservedAction();

  007a1	8b 7d cc	 mov	 edi, DWORD PTR _this$GSCopy$1$[ebp]
  007a4	8b cf		 mov	 ecx, edi
  007a6	e8 00 00 00 00	 call	 ?__ClearReservedAction@CPythonPlayer@@IAEXXZ ; CPythonPlayer::__ClearReservedAction

; 769  : 
; 770  : 	if (pkInstMain->IsMountingHorse()
; 771  : #ifdef ENABLE_STANDING_MOUNT
; 772  : 		 && !pkInstMain->IsMountingHoverBoard()  // Standing mount iin animasyon gster!

  007ab	8b ce		 mov	 ecx, esi
  007ad	e8 00 00 00 00	 call	 ?IsMountingHorse@CInstanceBase@@QAEHXZ ; CInstanceBase::IsMountingHorse
  007b2	85 c0		 test	 eax, eax
  007b4	74 0b		 je	 SHORT $LN74@UseSkill
  007b6	8b ce		 mov	 ecx, esi
  007b8	e8 00 00 00 00	 call	 ?IsMountingHoverBoard@CInstanceBase@@QAEHXZ ; CInstanceBase::IsMountingHoverBoard
  007bd	85 c0		 test	 eax, eax
  007bf	74 6d		 je	 SHORT $LN77@UseSkill
$LN74@UseSkill:

; 773  : #endif
; 774  : 		)
; 775  : 	{
; 776  : 		// Horse zerindeyken skill kullanm iin zel ilemler
; 777  : 	}
; 778  : 	else
; 779  : 	{
; 780  : 		if (!pSkillData->IsNoMotion())

  007c1	8b 4d d0	 mov	 ecx, DWORD PTR _pSkillData$[ebp]
  007c4	e8 00 00 00 00	 call	 ?IsNoMotion@SSkillData@CPythonSkill@@QAEHXZ ; CPythonSkill::SSkillData::IsNoMotion
  007c9	85 c0		 test	 eax, eax
  007cb	75 61		 jne	 SHORT $LN77@UseSkill

; 781  : 		{
; 782  : 			DWORD dwMotionIndex = pSkillData->GetSkillMotionIndex(rkSkillInst.iGrade);

  007cd	8b 45 b4	 mov	 eax, DWORD PTR tv1110[ebp]
  007d0	ff b4 c7 0c 83
	01 00		 push	 DWORD PTR [edi+eax*8+99084]
  007d7	e8 00 00 00 00	 call	 ?GetSkillMotionIndex@SSkillData@CPythonSkill@@QAEKH@Z ; CPythonSkill::SSkillData::GetSkillMotionIndex

; 783  : 			DWORD dwLoopCount = pSkillData->GetMotionLoopCount(rkSkillInst.fcurEfficientPercentage);

  007dc	8b 4d d0	 mov	 ecx, DWORD PTR _pSkillData$[ebp]
  007df	8b f0		 mov	 esi, eax
  007e1	8b 45 b4	 mov	 eax, DWORD PTR tv1110[ebp]
  007e4	f3 0f 10 8c c7
	14 83 01 00	 movss	 xmm1, DWORD PTR [edi+eax*8+99092]
  007ed	e8 00 00 00 00	 call	 ?GetMotionLoopCount@SSkillData@CPythonSkill@@QAEKM@Z ; CPythonSkill::SSkillData::GetMotionLoopCount

; 784  : 			if (!pkInstMain->NEW_UseSkill(rkSkillInst.dwIndex, dwMotionIndex, dwLoopCount, pSkillData->IsMovingSkill() ? true : false))

  007f2	8b 4d d0	 mov	 ecx, DWORD PTR _pSkillData$[ebp]
  007f5	8b d0		 mov	 edx, eax
  007f7	e8 00 00 00 00	 call	 ?IsMovingSkill@SSkillData@CPythonSkill@@QAEHXZ ; CPythonSkill::SSkillData::IsMovingSkill
  007fc	85 c0		 test	 eax, eax
  007fe	8b 45 b4	 mov	 eax, DWORD PTR tv1110[ebp]
  00801	0f 95 c1	 setne	 cl
  00804	51		 push	 ecx
  00805	8b 4d a0	 mov	 ecx, DWORD PTR _pkInstMain$1$[ebp]
  00808	52		 push	 edx
  00809	56		 push	 esi
  0080a	ff b4 c7 04 83
	01 00		 push	 DWORD PTR [edi+eax*8+99076]
  00811	e8 00 00 00 00	 call	 ?NEW_UseSkill@CInstanceBase@@QAE_NIII_N@Z ; CInstanceBase::NEW_UseSkill
  00816	84 c0		 test	 al, al
  00818	75 14		 jne	 SHORT $LN77@UseSkill

; 785  : 			{
; 786  : 				Tracenf("CPythonPlayer::__UseSkill(%d) - pkInstMain->NEW_UseSkill - ERROR", dwSlotIndex);

  0081a	ff 75 b0	 push	 DWORD PTR _dwSlotIndex$GSCopy$1$[ebp]
  0081d	68 00 00 00 00	 push	 OFFSET ??_C@_0EB@LKBFGOEE@CPythonPlayer?3?3__UseSkill?$CI?$CFd?$CJ?5?9@
  00822	e8 00 00 00 00	 call	 ?Tracenf@@YAXPBDZZ	; Tracenf
  00827	83 c4 08	 add	 esp, 8

; 796  : }

  0082a	32 c0		 xor	 al, al
  0082c	eb 1f		 jmp	 SHORT $LN1@UseSkill
$LN77@UseSkill:

; 787  : 				return false;
; 788  : 			}
; 789  : 		}
; 790  : 	}
; 791  : 
; 792  : 	DWORD dwTargetVID=pkInstTarget ? pkInstTarget->GetVirtualID() : 0;

  0082e	8b 45 c8	 mov	 eax, DWORD PTR _pkInstTarget$2$[ebp]
  00831	85 c0		 test	 eax, eax
  00833	74 09		 je	 SHORT $LN79@UseSkill
  00835	8b c8		 mov	 ecx, eax
  00837	e8 00 00 00 00	 call	 ?GetVirtualID@CInstanceBase@@QAEKXZ ; CInstanceBase::GetVirtualID
  0083c	eb 02		 jmp	 SHORT $LN80@UseSkill
$LN79@UseSkill:
  0083e	33 c0		 xor	 eax, eax
$LN80@UseSkill:

; 793  : 
; 794  : 	__SendUseSkill(dwSlotIndex, dwTargetVID);

  00840	50		 push	 eax
  00841	ff 75 b0	 push	 DWORD PTR _dwSlotIndex$GSCopy$1$[ebp]
  00844	8b cf		 mov	 ecx, edi
  00846	e8 00 00 00 00	 call	 ?__SendUseSkill@CPythonPlayer@@IAEXKK@Z ; CPythonPlayer::__SendUseSkill
$LN218@UseSkill:

; 796  : }

  0084b	b0 01		 mov	 al, 1
$LN1@UseSkill:
  0084d	8b 4d f4	 mov	 ecx, DWORD PTR __$EHRec$[ebp]
  00850	64 89 0d 00 00
	00 00		 mov	 DWORD PTR fs:0, ecx
  00857	59		 pop	 ecx
  00858	5f		 pop	 edi
  00859	5e		 pop	 esi
  0085a	8b 4d ec	 mov	 ecx, DWORD PTR __$ArrayPad$[ebp]
  0085d	33 cd		 xor	 ecx, ebp
  0085f	e8 00 00 00 00	 call	 @__security_check_cookie@4
  00864	8b e5		 mov	 esp, ebp
  00866	5d		 pop	 ebp
  00867	8b e3		 mov	 esp, ebx
  00869	5b		 pop	 ebx
  0086a	c2 04 00	 ret	 4
$LN41@UseSkill:

; 614  : 						return false;
; 615  : 				}
; 616  : 				else
; 617  : 				{
; 618  : 					PyCallClassMemberFunc(m_ppyGameWindow, "OnCannotUseSkill", Py_BuildValue("(is)", GetMainCharacterIndex(), "CANNOT_ATTACK"));

  0086d	68 00 00 00 00	 push	 OFFSET ??_C@_0O@BIOLCACO@CANNOT_ATTACK@

; 619  : 					return false;

  00872	e9 9d fa ff ff	 jmp	 $LN237@UseSkill
$LN244@UseSkill:
; File C:\Program Files\Microsoft Visual Studio\2022\Community\VC\Tools\MSVC\14.44.35207\include\xmemory

; 219  :     _STL_VERIFY(_Back_shift >= _Min_back_shift && _Back_shift <= _Non_user_size, "invalid argument");

  00877	6a 00		 push	 0
  00879	6a 00		 push	 0
  0087b	6a 00		 push	 0
  0087d	6a 00		 push	 0
  0087f	6a 00		 push	 0
  00881	e8 00 00 00 00	 call	 __invoke_watson
$LN234@UseSkill:
  00886	cc		 int	 3
_TEXT	ENDS
;	COMDAT text$x
text$x	SEGMENT
__unwindfunclet$?__UseSkill@CPythonPlayer@@IAE_NK@Z$0:
  00000	8d 4d a4	 lea	 ecx, DWORD PTR _kVct_pkInstTarget$26[ebp]
  00003	e9 00 00 00 00	 jmp	 ??1?$vector@PAVCInstanceBase@@V?$allocator@PAVCInstanceBase@@@std@@@std@@QAE@XZ ; std::vector<CInstanceBase *,std::allocator<CInstanceBase *> >::~vector<CInstanceBase *,std::allocator<CInstanceBase *> >
  00008	cc		 int	 3
  00009	cc		 int	 3
  0000a	cc		 int	 3
  0000b	cc		 int	 3
  0000c	cc		 int	 3
__ehhandler$?__UseSkill@CPythonPlayer@@IAE_NK@Z:
  0000d	90		 npad	 1
  0000e	90		 npad	 1
  0000f	8b 54 24 08	 mov	 edx, DWORD PTR [esp+8]
  00013	8d 42 0c	 lea	 eax, DWORD PTR [edx+12]
  00016	8b 4a a0	 mov	 ecx, DWORD PTR [edx-96]
  00019	33 c8		 xor	 ecx, eax
  0001b	e8 00 00 00 00	 call	 @__security_check_cookie@4
  00020	8b 4a f8	 mov	 ecx, DWORD PTR [edx-8]
  00023	33 c8		 xor	 ecx, eax
  00025	e8 00 00 00 00	 call	 @__security_check_cookie@4
  0002a	b8 00 00 00 00	 mov	 eax, OFFSET __ehfuncinfo$?__UseSkill@CPythonPlayer@@IAE_NK@Z
  0002f	e9 00 00 00 00	 jmp	 ___CxxFrameHandler3
text$x	ENDS
?__UseSkill@CPythonPlayer@@IAE_NK@Z ENDP		; CPythonPlayer::__UseSkill
; Function compile flags: /Ogtp
; File C:\Anka2Project\Anka2Project\Source\Binary\source\UserInterface\PythonPlayerSkill.cpp
; File C:\Anka2Project\Anka2Project\Source\Binary\source\eterBase\Singleton.h
; File C:\Anka2Project\Anka2Project\Source\Binary\source\UserInterface\PythonPlayerSkill.cpp
; File C:\Anka2Project\Anka2Project\Source\Binary\source\eterBase\Singleton.h
; File C:\Anka2Project\Anka2Project\Source\Binary\source\UserInterface\PythonPlayerSkill.cpp
;	COMDAT ?__CheckSkillUsable@CPythonPlayer@@IAE_NK@Z
_TEXT	SEGMENT
_pSkillData$ = -12					; size = 4
_rkSkillInst$1$ = -8					; size = 4
_pkInstMain$1$ = -4					; size = 4
_dwSlotIndex$ = 8					; size = 4
?__CheckSkillUsable@CPythonPlayer@@IAE_NK@Z PROC	; CPythonPlayer::__CheckSkillUsable, COMDAT
; _this$ = ecx

; 168  : {

  00000	55		 push	 ebp
  00001	8b ec		 mov	 ebp, esp
  00003	83 ec 10	 sub	 esp, 16			; 00000010H
  00006	53		 push	 ebx
  00007	56		 push	 esi
  00008	8b f1		 mov	 esi, ecx
  0000a	57		 push	 edi

; 169  : 	CInstanceBase * pkInstMain = NEW_GetMainActorPtr();

  0000b	8b 46 04	 mov	 eax, DWORD PTR [esi+4]
  0000e	8d 4e 04	 lea	 ecx, DWORD PTR [esi+4]
  00011	ff 90 8c 00 00
	00		 call	 DWORD PTR [eax+140]
  00017	89 45 fc	 mov	 DWORD PTR _pkInstMain$1$[ebp], eax

; 170  : 	if (!pkInstMain)

  0001a	85 c0		 test	 eax, eax
  0001c	0f 84 a5 00 00
	00		 je	 $LN41@CheckSkill

; 171  : 		return false;
; 172  : 
; 173  : 	if (dwSlotIndex >= SKILL_MAX_NUM)

  00022	8b 45 08	 mov	 eax, DWORD PTR _dwSlotIndex$[ebp]
  00025	3d ff 00 00 00	 cmp	 eax, 255		; 000000ffH
  0002a	0f 83 97 00 00
	00		 jae	 $LN41@CheckSkill

; 176  : 	TSkillInstance & rkSkillInst = m_playerStatus.aSkill[dwSlotIndex];

  00030	8d 0c 80	 lea	 ecx, DWORD PTR [eax+eax*4]
  00033	8d 1c cd 04 83
	01 00		 lea	 ebx, DWORD PTR [ecx*8+99076]
; File C:\Anka2Project\Anka2Project\Source\Binary\source\eterBase\Singleton.h

; 26   : 		assert(ms_singleton);

  0003a	8b 0d 00 00 00
	00		 mov	 ecx, DWORD PTR ?ms_singleton@?$CSingleton@VCPythonSkill@@@@0PAVCPythonSkill@@A ; CSingleton<CPythonSkill>::ms_singleton
; File C:\Anka2Project\Anka2Project\Source\Binary\source\UserInterface\PythonPlayerSkill.cpp

; 176  : 	TSkillInstance & rkSkillInst = m_playerStatus.aSkill[dwSlotIndex];

  00040	03 de		 add	 ebx, esi
  00042	89 5d f8	 mov	 DWORD PTR _rkSkillInst$1$[ebp], ebx
; File C:\Anka2Project\Anka2Project\Source\Binary\source\eterBase\Singleton.h

; 26   : 		assert(ms_singleton);

  00045	85 c9		 test	 ecx, ecx
  00047	75 1a		 jne	 SHORT $LN39@CheckSkill
  00049	6a 1a		 push	 26			; 0000001aH
  0004b	68 00 00 00 00	 push	 OFFSET ??_C@_1IO@CAJLEEOI@?$AAC?$AA?3?$AA?2?$AAA?$AAn?$AAk?$AAa?$AA2?$AAP?$AAr?$AAo?$AAj?$AAe?$AAc?$AAt@
  00050	68 00 00 00 00	 push	 OFFSET ??_C@_1BK@FMEHPMFE@?$AAm?$AAs?$AA_?$AAs?$AAi?$AAn?$AAg?$AAl?$AAe?$AAt?$AAo?$AAn@
  00055	e8 00 00 00 00	 call	 __wassert
  0005a	8b 0d 00 00 00
	00		 mov	 ecx, DWORD PTR ?ms_singleton@?$CSingleton@VCPythonSkill@@@@0PAVCPythonSkill@@A ; CSingleton<CPythonSkill>::ms_singleton
  00060	83 c4 0c	 add	 esp, 12			; 0000000cH
$LN39@CheckSkill:
; File C:\Anka2Project\Anka2Project\Source\Binary\source\UserInterface\PythonPlayerSkill.cpp

; 179  : 	if (!CPythonSkill::Instance().GetSkillData(rkSkillInst.dwIndex, &pSkillData))

  00063	8d 45 f4	 lea	 eax, DWORD PTR _pSkillData$[ebp]
  00066	50		 push	 eax
  00067	ff 33		 push	 DWORD PTR [ebx]
  00069	e8 00 00 00 00	 call	 ?GetSkillData@CPythonSkill@@QAEHKPAPAUSSkillData@1@@Z ; CPythonSkill::GetSkillData
  0006e	85 c0		 test	 eax, eax
  00070	74 55		 je	 SHORT $LN41@CheckSkill

; 180  : 		return false;
; 181  : 
; 182  : 	if (pkInstMain->IsMountingHorse())

  00072	8b 55 fc	 mov	 edx, DWORD PTR _pkInstMain$1$[ebp]
  00075	8b ca		 mov	 ecx, edx
  00077	e8 00 00 00 00	 call	 ?IsMountingHorse@CInstanceBase@@QAEHXZ ; CInstanceBase::IsMountingHorse
  0007c	8b 5d f4	 mov	 ebx, DWORD PTR _pSkillData$[ebp]
  0007f	85 c0		 test	 eax, eax
  00081	74 5b		 je	 SHORT $LN10@CheckSkill

; 183  : 	{
; 184  : #ifdef ENABLE_STANDING_MOUNT
; 185  : 		// Standing mount kontrol
; 186  : 		bool bIsStandingMount = false;
; 187  : 		if (pkInstMain->IsMountingHoverBoard())

  00083	8b ca		 mov	 ecx, edx
  00085	e8 00 00 00 00	 call	 ?IsMountingHoverBoard@CInstanceBase@@QAEHXZ ; CInstanceBase::IsMountingHoverBoard
  0008a	8b cb		 mov	 ecx, ebx
  0008c	85 c0		 test	 eax, eax
  0008e	74 42		 je	 SHORT $LN7@CheckSkill

; 188  : 		{
; 189  : 			bIsStandingMount = true;
; 190  : 		}
; 191  : 		
; 192  : 		if (bIsStandingMount)
; 193  : 		{
; 194  : 			// Standing mount zerindeyken: character skill'leri kullanlabilir, horse skill'leri kullanlamaz
; 195  : 			if (pSkillData->IsHorseSkill())

  00090	e8 00 00 00 00	 call	 ?IsHorseSkill@SSkillData@CPythonSkill@@QAEHXZ ; CPythonSkill::SSkillData::IsHorseSkill
  00095	85 c0		 test	 eax, eax
  00097	74 42		 je	 SHORT $LN48@CheckSkill
$LN49@CheckSkill:

; 326  : 		}
; 327  : 	}
; 328  : 
; 329  : 	return true;
; 330  : }

  00099	68 00 00 00 00	 push	 OFFSET ??_C@_0BA@MEPOIIPE@NOT_HORSE_SKILL@
$LN50@CheckSkill:
  0009e	8b 46 04	 mov	 eax, DWORD PTR [esi+4]
  000a1	8d 4e 04	 lea	 ecx, DWORD PTR [esi+4]
  000a4	ff 50 04	 call	 DWORD PTR [eax+4]
  000a7	50		 push	 eax
  000a8	68 00 00 00 00	 push	 OFFSET ??_C@_04JMLDJNEM@?$CIis?$CJ@
  000ad	ff 15 00 00 00
	00		 call	 DWORD PTR __imp__Py_BuildValue
  000b3	83 c4 0c	 add	 esp, 12			; 0000000cH
  000b6	50		 push	 eax
  000b7	68 00 00 00 00	 push	 OFFSET ??_C@_0BB@BOHMBBJL@OnCannotUseSkill@
  000bc	ff 76 08	 push	 DWORD PTR [esi+8]
  000bf	e8 00 00 00 00	 call	 ?PyCallClassMemberFunc@@YA_NPAU_object@@PBD0@Z ; PyCallClassMemberFunc
  000c4	83 c4 0c	 add	 esp, 12			; 0000000cH
$LN41@CheckSkill:
  000c7	32 c0		 xor	 al, al
  000c9	5f		 pop	 edi
  000ca	5e		 pop	 esi
  000cb	5b		 pop	 ebx
  000cc	8b e5		 mov	 esp, ebp
  000ce	5d		 pop	 ebp
  000cf	c2 04 00	 ret	 4
$LN7@CheckSkill:

; 196  : 			{
; 197  : 				PyCallClassMemberFunc(m_ppyGameWindow, "OnCannotUseSkill", Py_BuildValue("(is)", GetMainCharacterIndex(), "NOT_HORSE_SKILL"));
; 198  : 				return false;
; 199  : 			}
; 200  : 			// Character skill'leri iin kontrol yok, kullanabilir
; 201  : 		}
; 202  : 		else
; 203  : 		{
; 204  : #endif
; 205  : 		// Normal at zerindeyken: sadece horse skill'leri kullanlabilir
; 206  : 		if (!pSkillData->IsHorseSkill())

  000d2	e8 00 00 00 00	 call	 ?IsHorseSkill@SSkillData@CPythonSkill@@QAEHXZ ; CPythonSkill::SSkillData::IsHorseSkill
  000d7	85 c0		 test	 eax, eax
  000d9	74 be		 je	 SHORT $LN49@CheckSkill
$LN48@CheckSkill:

; 207  : 		{
; 208  : 			PyCallClassMemberFunc(m_ppyGameWindow, "OnCannotUseSkill", Py_BuildValue("(is)", GetMainCharacterIndex(), "NOT_HORSE_SKILL"));
; 209  : 			return false;
; 210  : 		}
; 211  : #ifdef ENABLE_STANDING_MOUNT
; 212  : 		}
; 213  : #endif
; 214  : 	}
; 215  : 
; 216  : 	if (pSkillData->IsHorseSkill())

  000db	8b 55 fc	 mov	 edx, DWORD PTR _pkInstMain$1$[ebp]
$LN10@CheckSkill:
  000de	8b cb		 mov	 ecx, ebx
  000e0	e8 00 00 00 00	 call	 ?IsHorseSkill@SSkillData@CPythonSkill@@QAEHXZ ; CPythonSkill::SSkillData::IsHorseSkill
  000e5	85 c0		 test	 eax, eax
  000e7	74 1d		 je	 SHORT $LN13@CheckSkill

; 217  : 	{
; 218  : 		if (!pkInstMain->IsMountingHorse())

  000e9	8b ca		 mov	 ecx, edx
  000eb	e8 00 00 00 00	 call	 ?IsMountingHorse@CInstanceBase@@QAEHXZ ; CInstanceBase::IsMountingHorse
  000f0	85 c0		 test	 eax, eax
  000f2	75 07		 jne	 SHORT $LN12@CheckSkill

; 219  : 		{
; 220  : 			PyCallClassMemberFunc(m_ppyGameWindow, "OnCannotUseSkill", Py_BuildValue("(is)", GetMainCharacterIndex(), "HAVE_TO_RIDE"));

  000f4	68 00 00 00 00	 push	 OFFSET ??_C@_0N@DJBFACMO@HAVE_TO_RIDE@

; 221  : 			return false;

  000f9	eb a3		 jmp	 SHORT $LN50@CheckSkill
$LN12@CheckSkill:

; 222  : 		}
; 223  : #ifdef ENABLE_STANDING_MOUNT
; 224  : 		// Standing mount zerindeyken horse skill kullanlamaz
; 225  : 		if (pkInstMain->IsMountingHoverBoard())

  000fb	8b ca		 mov	 ecx, edx
  000fd	e8 00 00 00 00	 call	 ?IsMountingHoverBoard@CInstanceBase@@QAEHXZ ; CInstanceBase::IsMountingHoverBoard
  00102	85 c0		 test	 eax, eax
  00104	75 93		 jne	 SHORT $LN49@CheckSkill
$LN13@CheckSkill:

; 226  : 		{
; 227  : 			PyCallClassMemberFunc(m_ppyGameWindow, "OnCannotUseSkill", Py_BuildValue("(is)", GetMainCharacterIndex(), "NOT_HORSE_SKILL"));
; 228  : 			return false;
; 229  : 		}
; 230  : #endif
; 231  : 	}
; 232  : 
; 233  : 	if (pSkillData->IsAttackSkill())

  00106	8b cb		 mov	 ecx, ebx
  00108	e8 00 00 00 00	 call	 ?IsAttackSkill@SSkillData@CPythonSkill@@QAEHXZ ; CPythonSkill::SSkillData::IsAttackSkill
  0010d	85 c0		 test	 eax, eax
  0010f	74 16		 je	 SHORT $LN15@CheckSkill

; 234  : 	{
; 235  : 		if (pkInstMain->IsInSafe())

  00111	8b 4d fc	 mov	 ecx, DWORD PTR _pkInstMain$1$[ebp]
  00114	e8 00 00 00 00	 call	 ?IsInSafe@CInstanceBase@@QAEHXZ ; CInstanceBase::IsInSafe
  00119	85 c0		 test	 eax, eax
  0011b	74 0a		 je	 SHORT $LN15@CheckSkill

; 236  : 		{
; 237  : 			PyCallClassMemberFunc(m_ppyGameWindow, "OnCannotUseSkill", Py_BuildValue("(is)", GetMainCharacterIndex(), "IN_SAFE"));

  0011d	68 00 00 00 00	 push	 OFFSET ??_C@_07OAOBINCH@IN_SAFE@

; 238  : 
; 239  : 			return false;

  00122	e9 77 ff ff ff	 jmp	 $LN50@CheckSkill
$LN15@CheckSkill:

; 240  : 		}
; 241  : 	}
; 242  : 
; 243  : 	if (!pSkillData->IsCanUseSkill())

  00127	8b cb		 mov	 ecx, ebx
  00129	e8 00 00 00 00	 call	 ?IsCanUseSkill@SSkillData@CPythonSkill@@QAE_NXZ ; CPythonSkill::SSkillData::IsCanUseSkill
  0012e	84 c0		 test	 al, al
  00130	74 95		 je	 SHORT $LN41@CheckSkill

; 244  : 		return false;
; 245  : 
; 246  : 	if (pSkillData->IsNeedEmptyBottle())

  00132	e8 00 00 00 00	 call	 ?IsNeedEmptyBottle@SSkillData@CPythonSkill@@QAEHXZ ; CPythonSkill::SSkillData::IsNeedEmptyBottle
  00137	85 c0		 test	 eax, eax
  00139	74 1a		 je	 SHORT $LN18@CheckSkill

; 247  : 	{
; 248  : 		if (!__HasItem(27995))

  0013b	68 5b 6d 00 00	 push	 27995			; 00006d5bH
  00140	8b ce		 mov	 ecx, esi
  00142	e8 00 00 00 00	 call	 ?__HasItem@CPythonPlayer@@IAE_NK@Z ; CPythonPlayer::__HasItem
  00147	84 c0		 test	 al, al
  00149	75 0a		 jne	 SHORT $LN18@CheckSkill

; 249  : 		{
; 250  : 			PyCallClassMemberFunc(m_ppyGameWindow, "OnCannotUseSkill", Py_BuildValue("(is)", GetMainCharacterIndex(), "NEED_EMPTY_BOTTLE"));

  0014b	68 00 00 00 00	 push	 OFFSET ??_C@_0BC@DDKDAKLO@NEED_EMPTY_BOTTLE@

; 251  : 			return false;

  00150	e9 49 ff ff ff	 jmp	 $LN50@CheckSkill
$LN18@CheckSkill:

; 252  : 		}
; 253  : 	}
; 254  : 
; 255  : 	if (pSkillData->IsNeedPoisonBottle())

  00155	8b cb		 mov	 ecx, ebx
  00157	e8 00 00 00 00	 call	 ?IsNeedPoisonBottle@SSkillData@CPythonSkill@@QAEHXZ ; CPythonSkill::SSkillData::IsNeedPoisonBottle
  0015c	85 c0		 test	 eax, eax
  0015e	74 1a		 je	 SHORT $LN20@CheckSkill

; 256  : 	{
; 257  : 		if (!__HasItem(27996))

  00160	68 5c 6d 00 00	 push	 27996			; 00006d5cH
  00165	8b ce		 mov	 ecx, esi
  00167	e8 00 00 00 00	 call	 ?__HasItem@CPythonPlayer@@IAE_NK@Z ; CPythonPlayer::__HasItem
  0016c	84 c0		 test	 al, al
  0016e	75 0a		 jne	 SHORT $LN20@CheckSkill

; 258  : 		{
; 259  : 			PyCallClassMemberFunc(m_ppyGameWindow, "OnCannotUseSkill", Py_BuildValue("(is)", GetMainCharacterIndex(), "NEED_POISON_BOTTLE"));

  00170	68 00 00 00 00	 push	 OFFSET ??_C@_0BD@HPCMPHGF@NEED_POISON_BOTTLE@

; 260  : 			return false;

  00175	e9 24 ff ff ff	 jmp	 $LN50@CheckSkill
$LN20@CheckSkill:

; 261  : 		}
; 262  : 	}
; 263  : 
; 264  : 	if (pkInstMain->IsFishingMode())

  0017a	8b 4d fc	 mov	 ecx, DWORD PTR _pkInstMain$1$[ebp]
  0017d	e8 00 00 00 00	 call	 ?IsFishingMode@CInstanceBase@@QAEHXZ ; CInstanceBase::IsFishingMode
  00182	85 c0		 test	 eax, eax
  00184	74 0a		 je	 SHORT $LN21@CheckSkill

; 265  : 	{
; 266  : 		PyCallClassMemberFunc(m_ppyGameWindow, "OnCannotUseSkill", Py_BuildValue("(is)", GetMainCharacterIndex(), "REMOVE_FISHING_ROD"));

  00186	68 00 00 00 00	 push	 OFFSET ??_C@_0BD@LIIMHBCN@REMOVE_FISHING_ROD@

; 267  : 		return false;

  0018b	e9 0e ff ff ff	 jmp	 $LN50@CheckSkill
$LN21@CheckSkill:

; 268  : 	}
; 269  : 
; 270  : 	if (m_sysIsLevelLimit)

  00190	83 be 5c b3 01
	00 00		 cmp	 DWORD PTR [esi+111452], 0
  00197	74 13		 je	 SHORT $LN23@CheckSkill

; 271  : 	{
; 272  : 		if (rkSkillInst.iLevel <= 0)

  00199	8b 45 f8	 mov	 eax, DWORD PTR _rkSkillInst$1$[ebp]
  0019c	83 78 0c 00	 cmp	 DWORD PTR [eax+12], 0
  001a0	7f 0a		 jg	 SHORT $LN23@CheckSkill

; 273  : 		{
; 274  : 			PyCallClassMemberFunc(m_ppyGameWindow, "OnCannotUseSkill", Py_BuildValue("(is)", GetMainCharacterIndex(), "NOT_YET_LEARN"));

  001a2	68 00 00 00 00	 push	 OFFSET ??_C@_0O@PFLGBNMN@NOT_YET_LEARN@

; 275  : 			return false;

  001a7	e9 f2 fe ff ff	 jmp	 $LN50@CheckSkill
$LN23@CheckSkill:

; 276  : 		}
; 277  : 	}
; 278  : 
; 279  : 	if (!pSkillData->CanUseWeaponType(pkInstMain->GetWeaponType()))

  001ac	8b 4d fc	 mov	 ecx, DWORD PTR _pkInstMain$1$[ebp]
  001af	e8 00 00 00 00	 call	 ?GetWeaponType@CInstanceBase@@QAEKXZ ; CInstanceBase::GetWeaponType
  001b4	50		 push	 eax
  001b5	8b cb		 mov	 ecx, ebx
  001b7	e8 00 00 00 00	 call	 ?CanUseWeaponType@SSkillData@CPythonSkill@@QAEHK@Z ; CPythonSkill::SSkillData::CanUseWeaponType
  001bc	85 c0		 test	 eax, eax
  001be	75 0a		 jne	 SHORT $LN24@CheckSkill

; 280  : 	{
; 281  : 		PyCallClassMemberFunc(m_ppyGameWindow, "OnCannotUseSkill", Py_BuildValue("(is)", GetMainCharacterIndex(), "NOT_MATCHABLE_WEAPON"));

  001c0	68 00 00 00 00	 push	 OFFSET ??_C@_0BF@KPLOMIJE@NOT_MATCHABLE_WEAPON@

; 282  : 		return false;

  001c5	e9 d4 fe ff ff	 jmp	 $LN50@CheckSkill
$LN24@CheckSkill:

; 283  : 	}
; 284  : 
; 285  : 	if (!pSkillData->IsHorseSkill())

  001ca	8b cb		 mov	 ecx, ebx
  001cc	e8 00 00 00 00	 call	 ?IsHorseSkill@SSkillData@CPythonSkill@@QAEHXZ ; CPythonSkill::SSkillData::IsHorseSkill
  001d1	85 c0		 test	 eax, eax
  001d3	75 2b		 jne	 SHORT $LN28@CheckSkill

; 286  : 	{
; 287  : 		if (__CheckShortArrow(rkSkillInst, *pSkillData))

  001d5	53		 push	 ebx
  001d6	51		 push	 ecx
  001d7	8b ce		 mov	 ecx, esi
  001d9	e8 00 00 00 00	 call	 ?__CheckShortArrow@CPythonPlayer@@IAE_NAAUSSkillInstance@1@AAUSSkillData@CPythonSkill@@@Z ; CPythonPlayer::__CheckShortArrow
  001de	84 c0		 test	 al, al
  001e0	0f 85 e1 fe ff
	ff		 jne	 $LN41@CheckSkill

; 288  : 			return false;
; 289  : 
; 290  : 		if (pSkillData->IsNeedBow())

  001e6	8b cb		 mov	 ecx, ebx
  001e8	e8 00 00 00 00	 call	 ?IsNeedBow@SSkillData@CPythonSkill@@QAEHXZ ; CPythonSkill::SSkillData::IsNeedBow
  001ed	85 c0		 test	 eax, eax
  001ef	74 0f		 je	 SHORT $LN28@CheckSkill

; 291  : 		{
; 292  : 			if (!__HasEnoughArrow())

  001f1	8b ce		 mov	 ecx, esi
  001f3	e8 00 00 00 00	 call	 ?__HasEnoughArrow@CPythonPlayer@@IAE_NXZ ; CPythonPlayer::__HasEnoughArrow
  001f8	84 c0		 test	 al, al
  001fa	0f 84 c7 fe ff
	ff		 je	 $LN41@CheckSkill
$LN28@CheckSkill:

; 293  : 				return false;
; 294  : 		}
; 295  : 	}
; 296  : 
; 297  : 	if (__CheckDashAffect(*pkInstMain))

  00200	ff 75 fc	 push	 DWORD PTR _pkInstMain$1$[ebp]
  00203	e8 00 00 00 00	 call	 ?__CheckDashAffect@CPythonPlayer@@IAE_NAAVCInstanceBase@@@Z ; CPythonPlayer::__CheckDashAffect
  00208	84 c0		 test	 al, al
  0020a	74 23		 je	 SHORT $LN29@CheckSkill

; 298  : 	{
; 299  : 		if (!pSkillData->IsChargeSkill())

  0020c	8b cb		 mov	 ecx, ebx
  0020e	e8 00 00 00 00	 call	 ?IsChargeSkill@SSkillData@CPythonSkill@@QAEHXZ ; CPythonSkill::SSkillData::IsChargeSkill
  00213	85 c0		 test	 eax, eax
  00215	75 58		 jne	 SHORT $LN35@CheckSkill

; 300  : 		{
; 301  : 			if (__CheckRestSkillCoolTime(dwSlotIndex))

  00217	ff 75 08	 push	 DWORD PTR _dwSlotIndex$[ebp]
  0021a	8b ce		 mov	 ecx, esi
  0021c	e8 00 00 00 00	 call	 ?__CheckRestSkillCoolTime@CPythonPlayer@@IAE_NK@Z ; CPythonPlayer::__CheckRestSkillCoolTime
  00221	84 c0		 test	 al, al
  00223	74 4a		 je	 SHORT $LN35@CheckSkill
$LN51@CheckSkill:

; 326  : 		}
; 327  : 	}
; 328  : 
; 329  : 	return true;
; 330  : }

  00225	68 00 00 00 00	 push	 OFFSET ??_C@_0O@CCJDKKCC@WAIT_COOLTIME@
  0022a	e9 6f fe ff ff	 jmp	 $LN50@CheckSkill
$LN29@CheckSkill:

; 302  : 			{
; 303  : 				PyCallClassMemberFunc(m_ppyGameWindow, "OnCannotUseSkill", Py_BuildValue("(is)", GetMainCharacterIndex(), "WAIT_COOLTIME"));
; 304  : 				return false;
; 305  : 			}
; 306  : 		}
; 307  : 	}
; 308  : 	else
; 309  : 	{
; 310  : 		if (__CheckRestSkillCoolTime(dwSlotIndex))

  0022f	ff 75 08	 push	 DWORD PTR _dwSlotIndex$[ebp]
  00232	8b ce		 mov	 ecx, esi
  00234	e8 00 00 00 00	 call	 ?__CheckRestSkillCoolTime@CPythonPlayer@@IAE_NK@Z ; CPythonPlayer::__CheckRestSkillCoolTime
  00239	84 c0		 test	 al, al
  0023b	75 e8		 jne	 SHORT $LN51@CheckSkill

; 311  : 		{
; 312  : 			PyCallClassMemberFunc(m_ppyGameWindow, "OnCannotUseSkill", Py_BuildValue("(is)", GetMainCharacterIndex(), "WAIT_COOLTIME"));
; 313  : 			return false;
; 314  : 		}
; 315  : 
; 316  : 		if (__CheckShortLife(rkSkillInst, *pSkillData))

  0023d	53		 push	 ebx
  0023e	ff 75 f8	 push	 DWORD PTR _rkSkillInst$1$[ebp]
  00241	8b ce		 mov	 ecx, esi
  00243	e8 00 00 00 00	 call	 ?__CheckShortLife@CPythonPlayer@@IAE_NAAUSSkillInstance@1@AAUSSkillData@CPythonSkill@@@Z ; CPythonPlayer::__CheckShortLife
  00248	84 c0		 test	 al, al
  0024a	74 0a		 je	 SHORT $LN34@CheckSkill

; 317  : 		{
; 318  : 			PyCallClassMemberFunc(m_ppyGameWindow, "OnCannotUseSkill", Py_BuildValue("(is)", GetMainCharacterIndex(), "NOT_ENOUGH_HP"));

  0024c	68 00 00 00 00	 push	 OFFSET ??_C@_0O@CILBJNOC@NOT_ENOUGH_HP@

; 319  : 			return false;

  00251	e9 48 fe ff ff	 jmp	 $LN50@CheckSkill
$LN34@CheckSkill:

; 320  : 		}
; 321  : 
; 322  : 		if (__CheckShortMana(rkSkillInst, *pSkillData))

  00256	53		 push	 ebx
  00257	ff 75 f8	 push	 DWORD PTR _rkSkillInst$1$[ebp]
  0025a	8b ce		 mov	 ecx, esi
  0025c	e8 00 00 00 00	 call	 ?__CheckShortMana@CPythonPlayer@@IAE_NAAUSSkillInstance@1@AAUSSkillData@CPythonSkill@@@Z ; CPythonPlayer::__CheckShortMana
  00261	84 c0		 test	 al, al
  00263	74 0a		 je	 SHORT $LN35@CheckSkill

; 323  : 		{
; 324  : 			PyCallClassMemberFunc(m_ppyGameWindow, "OnCannotUseSkill", Py_BuildValue("(is)", GetMainCharacterIndex(), "NOT_ENOUGH_SP"));

  00265	68 00 00 00 00	 push	 OFFSET ??_C@_0O@DIMCNBHD@NOT_ENOUGH_SP@

; 325  : 			return false;

  0026a	e9 2f fe ff ff	 jmp	 $LN50@CheckSkill
$LN35@CheckSkill:

; 326  : 		}
; 327  : 	}
; 328  : 
; 329  : 	return true;
; 330  : }

  0026f	5f		 pop	 edi
  00270	5e		 pop	 esi
  00271	b0 01		 mov	 al, 1
  00273	5b		 pop	 ebx
  00274	8b e5		 mov	 esp, ebp
  00276	5d		 pop	 ebp
  00277	c2 04 00	 ret	 4
?__CheckSkillUsable@CPythonPlayer@@IAE_NK@Z ENDP	; CPythonPlayer::__CheckSkillUsable
_TEXT	ENDS
; Function compile flags: /Ogtp
; File C:\Anka2Project\Anka2Project\Source\Binary\source\UserInterface\PythonPlayerSkill.cpp
; File C:\Anka2Project\Anka2Project\Source\Binary\source\eterBase\Singleton.h
; File C:\Anka2Project\Anka2Project\Source\Binary\source\UserInterface\PythonPlayerSkill.cpp
; File C:\Anka2Project\Anka2Project\Source\Binary\source\eterBase\Singleton.h
; File C:\Anka2Project\Anka2Project\Source\Binary\source\UserInterface\PythonPlayerSkill.cpp
; File C:\Anka2Project\Anka2Project\Source\Binary\source\eterBase\Singleton.h
; File C:\Anka2Project\Anka2Project\Source\Binary\source\UserInterface\PythonPlayerSkill.cpp
;	COMDAT ?ClickSkillSlot@CPythonPlayer@@QAEXK@Z
_TEXT	SEGMENT
_dwSlotIndex$ = 8					; size = 4
_pSkillData$ = 8					; size = 4
?ClickSkillSlot@CPythonPlayer@@QAEXK@Z PROC		; CPythonPlayer::ClickSkillSlot, COMDAT
; _this$ = ecx

; 106  : {

  00000	55		 push	 ebp
  00001	8b ec		 mov	 ebp, esp
  00003	53		 push	 ebx
  00004	56		 push	 esi
  00005	57		 push	 edi

; 107  : 	if (dwSlotIndex >= SKILL_MAX_NUM)

  00006	8b 7d 08	 mov	 edi, DWORD PTR _dwSlotIndex$[ebp]
  00009	8b f1		 mov	 esi, ecx
  0000b	81 ff ff 00 00
	00		 cmp	 edi, 255		; 000000ffH
  00011	0f 83 4f 01 00
	00		 jae	 $LN14@ClickSkill
; File C:\Anka2Project\Anka2Project\Source\Binary\source\eterBase\Singleton.h

; 26   : 		assert(ms_singleton);

  00017	8b 0d 00 00 00
	00		 mov	 ecx, DWORD PTR ?ms_singleton@?$CSingleton@VCPythonSkill@@@@0PAVCPythonSkill@@A ; CSingleton<CPythonSkill>::ms_singleton
; File C:\Anka2Project\Anka2Project\Source\Binary\source\UserInterface\PythonPlayerSkill.cpp

; 110  : 	TSkillInstance & rkSkillInst = m_playerStatus.aSkill[dwSlotIndex];

  0001d	8d 04 bf	 lea	 eax, DWORD PTR [edi+edi*4]
  00020	8d 1c c6	 lea	 ebx, DWORD PTR [esi+eax*8]
; File C:\Anka2Project\Anka2Project\Source\Binary\source\eterBase\Singleton.h

; 26   : 		assert(ms_singleton);

  00023	85 c9		 test	 ecx, ecx
  00025	75 1a		 jne	 SHORT $LN18@ClickSkill
  00027	6a 1a		 push	 26			; 0000001aH
  00029	68 00 00 00 00	 push	 OFFSET ??_C@_1IO@CAJLEEOI@?$AAC?$AA?3?$AA?2?$AAA?$AAn?$AAk?$AAa?$AA2?$AAP?$AAr?$AAo?$AAj?$AAe?$AAc?$AAt@
  0002e	68 00 00 00 00	 push	 OFFSET ??_C@_1BK@FMEHPMFE@?$AAm?$AAs?$AA_?$AAs?$AAi?$AAn?$AAg?$AAl?$AAe?$AAt?$AAo?$AAn@
  00033	e8 00 00 00 00	 call	 __wassert
  00038	8b 0d 00 00 00
	00		 mov	 ecx, DWORD PTR ?ms_singleton@?$CSingleton@VCPythonSkill@@@@0PAVCPythonSkill@@A ; CSingleton<CPythonSkill>::ms_singleton
  0003e	83 c4 0c	 add	 esp, 12			; 0000000cH
$LN18@ClickSkill:
; File C:\Anka2Project\Anka2Project\Source\Binary\source\UserInterface\PythonPlayerSkill.cpp

; 113  : 	if (!CPythonSkill::Instance().GetSkillData(rkSkillInst.dwIndex, &pSkillData))

  00041	8d 45 08	 lea	 eax, DWORD PTR _pSkillData$[ebp]
  00044	50		 push	 eax
  00045	ff b3 04 83 01
	00		 push	 DWORD PTR [ebx+99076]
  0004b	e8 00 00 00 00	 call	 ?GetSkillData@CPythonSkill@@QAEHKPAPAUSSkillData@1@@Z ; CPythonSkill::GetSkillData
  00050	85 c0		 test	 eax, eax
  00052	0f 84 0e 01 00
	00		 je	 $LN14@ClickSkill

; 114  : 		return;
; 115  : 
; 116  : 	if (CPythonSkill::SKILL_TYPE_GUILD == pSkillData->byType)

  00058	8b 4d 08	 mov	 ecx, DWORD PTR _pSkillData$[ebp]
  0005b	80 39 03	 cmp	 BYTE PTR [ecx], 3
  0005e	75 0f		 jne	 SHORT $LN4@ClickSkill

; 117  : 	{
; 118  : 		UseGuildSkill(dwSlotIndex);

  00060	57		 push	 edi
  00061	8b ce		 mov	 ecx, esi
  00063	e8 00 00 00 00	 call	 ?UseGuildSkill@CPythonPlayer@@QAEXK@Z ; CPythonPlayer::UseGuildSkill

; 164  : 	}
; 165  : }

  00068	5f		 pop	 edi
  00069	5e		 pop	 esi
  0006a	5b		 pop	 ebx
  0006b	5d		 pop	 ebp
  0006c	c2 04 00	 ret	 4
$LN4@ClickSkill:

; 119  : 		return;
; 120  : 	}
; 121  : 
; 122  : 	if (!pSkillData->IsCanUseSkill())

  0006f	e8 00 00 00 00	 call	 ?IsCanUseSkill@SSkillData@CPythonSkill@@QAE_NXZ ; CPythonSkill::SSkillData::IsCanUseSkill
  00074	84 c0		 test	 al, al
  00076	0f 84 ea 00 00
	00		 je	 $LN14@ClickSkill

; 123  : 		return;
; 124  : 
; 125  : 	if (pSkillData->IsStandingSkill())

  0007c	e8 00 00 00 00	 call	 ?IsStandingSkill@SSkillData@CPythonSkill@@QAEHXZ ; CPythonSkill::SSkillData::IsStandingSkill
  00081	85 c0		 test	 eax, eax
  00083	0f 84 89 00 00
	00		 je	 $LN6@ClickSkill

; 126  : 	{
; 127  : 		if (pSkillData->IsToggleSkill())

  00089	e8 00 00 00 00	 call	 ?IsToggleSkill@SSkillData@CPythonSkill@@QAEHXZ ; CPythonSkill::SSkillData::IsToggleSkill
  0008e	85 c0		 test	 eax, eax
  00090	0f 84 9e 00 00
	00		 je	 $LN22@ClickSkill

; 128  : 		{
; 129  : 			if (IsSkillActive(dwSlotIndex))

  00096	57		 push	 edi
  00097	8b ce		 mov	 ecx, esi
  00099	e8 00 00 00 00	 call	 ?IsSkillActive@CPythonPlayer@@QAEHK@Z ; CPythonPlayer::IsSkillActive
  0009e	85 c0		 test	 eax, eax
  000a0	0f 84 8e 00 00
	00		 je	 $LN22@ClickSkill

; 130  : 			{
; 131  : 				CInstanceBase * pkInstMain = NEW_GetMainActorPtr();

  000a6	8b 46 04	 mov	 eax, DWORD PTR [esi+4]
  000a9	8d 4e 04	 lea	 ecx, DWORD PTR [esi+4]
  000ac	ff 90 8c 00 00
	00		 call	 DWORD PTR [eax+140]
  000b2	8b f0		 mov	 esi, eax

; 132  : 				if (!pkInstMain)

  000b4	85 f6		 test	 esi, esi
  000b6	0f 84 aa 00 00
	00		 je	 $LN14@ClickSkill

; 133  : 					return;
; 134  : 
; 135  : 				if (pkInstMain->IsUsingSkill())

  000bc	8b ce		 mov	 ecx, esi
  000be	e8 00 00 00 00	 call	 ?IsUsingSkill@CInstanceBase@@QAEHXZ ; CInstanceBase::IsUsingSkill
  000c3	85 c0		 test	 eax, eax
  000c5	0f 85 9b 00 00
	00		 jne	 $LN14@ClickSkill

; 136  : 					return;
; 137  : 
; 138  : 				if (pkInstMain->IsDead())

  000cb	8b ce		 mov	 ecx, esi
  000cd	e8 00 00 00 00	 call	 ?IsDead@CInstanceBase@@QAEHXZ ; CInstanceBase::IsDead
  000d2	85 c0		 test	 eax, eax
  000d4	0f 85 8c 00 00
	00		 jne	 $LN14@ClickSkill
; File C:\Anka2Project\Anka2Project\Source\Binary\source\eterBase\Singleton.h

; 26   : 		assert(ms_singleton);

  000da	8b 0d 00 00 00
	00		 mov	 ecx, DWORD PTR ?ms_singleton@?$CSingleton@VCPythonNetworkStream@@@@0PAVCPythonNetworkStream@@A ; CSingleton<CPythonNetworkStream>::ms_singleton
  000e0	85 c9		 test	 ecx, ecx
  000e2	75 1a		 jne	 SHORT $LN21@ClickSkill
  000e4	6a 1a		 push	 26			; 0000001aH
  000e6	68 00 00 00 00	 push	 OFFSET ??_C@_1IO@CAJLEEOI@?$AAC?$AA?3?$AA?2?$AAA?$AAn?$AAk?$AAa?$AA2?$AAP?$AAr?$AAo?$AAj?$AAe?$AAc?$AAt@
  000eb	68 00 00 00 00	 push	 OFFSET ??_C@_1BK@FMEHPMFE@?$AAm?$AAs?$AA_?$AAs?$AAi?$AAn?$AAg?$AAl?$AAe?$AAt?$AAo?$AAn@
  000f0	e8 00 00 00 00	 call	 __wassert
  000f5	8b 0d 00 00 00
	00		 mov	 ecx, DWORD PTR ?ms_singleton@?$CSingleton@VCPythonNetworkStream@@@@0PAVCPythonNetworkStream@@A ; CSingleton<CPythonNetworkStream>::ms_singleton
  000fb	83 c4 0c	 add	 esp, 12			; 0000000cH
$LN21@ClickSkill:
; File C:\Anka2Project\Anka2Project\Source\Binary\source\UserInterface\PythonPlayerSkill.cpp

; 141  : 				CPythonNetworkStream::Instance().SendUseSkillPacket(rkSkillInst.dwIndex);

  000fe	6a 00		 push	 0
  00100	ff b3 04 83 01
	00		 push	 DWORD PTR [ebx+99076]
  00106	e8 00 00 00 00	 call	 ?SendUseSkillPacket@CPythonNetworkStream@@QAE_NKK@Z ; CPythonNetworkStream::SendUseSkillPacket

; 164  : 	}
; 165  : }

  0010b	5f		 pop	 edi
  0010c	5e		 pop	 esi
  0010d	5b		 pop	 ebx
  0010e	5d		 pop	 ebp
  0010f	c2 04 00	 ret	 4
$LN6@ClickSkill:

; 142  : 				return;
; 143  : 			}
; 144  : 		}
; 145  : 
; 146  : 		__UseSkill(dwSlotIndex);
; 147  : 		return;
; 148  : 	}
; 149  : 
; 150  : 	if (m_dwcurSkillSlotIndex == dwSlotIndex)

  00112	8b 86 ec b2 01
	00		 mov	 eax, DWORD PTR [esi+111340]
  00118	8b ce		 mov	 ecx, esi
  0011a	3b c7		 cmp	 eax, edi
  0011c	75 0d		 jne	 SHORT $LN12@ClickSkill

; 151  : 	{
; 152  : 		__UseSkill(m_dwcurSkillSlotIndex);

  0011e	50		 push	 eax
  0011f	e8 00 00 00 00	 call	 ?__UseSkill@CPythonPlayer@@IAE_NK@Z ; CPythonPlayer::__UseSkill

; 164  : 	}
; 165  : }

  00124	5f		 pop	 edi
  00125	5e		 pop	 esi
  00126	5b		 pop	 ebx
  00127	5d		 pop	 ebp
  00128	c2 04 00	 ret	 4
$LN12@ClickSkill:

; 153  : 		return;
; 154  : 	}
; 155  : 
; 156  : 	if (!__IsRightButtonSkillMode())

  0012b	e8 00 00 00 00	 call	 ?__IsRightButtonSkillMode@CPythonPlayer@@IAEHXZ ; CPythonPlayer::__IsRightButtonSkillMode
  00130	85 c0		 test	 eax, eax
  00132	75 0f		 jne	 SHORT $LN13@ClickSkill
$LN22@ClickSkill:

; 157  : 	{
; 158  : 		__UseSkill(dwSlotIndex);

  00134	57		 push	 edi
  00135	8b ce		 mov	 ecx, esi
  00137	e8 00 00 00 00	 call	 ?__UseSkill@CPythonPlayer@@IAE_NK@Z ; CPythonPlayer::__UseSkill

; 164  : 	}
; 165  : }

  0013c	5f		 pop	 edi
  0013d	5e		 pop	 esi
  0013e	5b		 pop	 ebx
  0013f	5d		 pop	 ebp
  00140	c2 04 00	 ret	 4
$LN13@ClickSkill:

; 159  : 	}
; 160  : 	else
; 161  : 	{
; 162  : 		m_dwcurSkillSlotIndex = dwSlotIndex;
; 163  : 		PyCallClassMemberFunc(m_ppyGameWindow, "ChangeCurrentSkill", Py_BuildValue("(i)", dwSlotIndex));

  00143	57		 push	 edi
  00144	68 00 00 00 00	 push	 OFFSET ??_C@_03LIHNMIHG@?$CIi?$CJ@
  00149	89 be ec b2 01
	00		 mov	 DWORD PTR [esi+111340], edi
  0014f	ff 15 00 00 00
	00		 call	 DWORD PTR __imp__Py_BuildValue
  00155	50		 push	 eax
  00156	68 00 00 00 00	 push	 OFFSET ??_C@_0BD@IOEPNDLO@ChangeCurrentSkill@
  0015b	ff 76 08	 push	 DWORD PTR [esi+8]
  0015e	e8 00 00 00 00	 call	 ?PyCallClassMemberFunc@@YA_NPAU_object@@PBD0@Z ; PyCallClassMemberFunc
  00163	83 c4 14	 add	 esp, 20			; 00000014H
$LN14@ClickSkill:

; 164  : 	}
; 165  : }

  00166	5f		 pop	 edi
  00167	5e		 pop	 esi
  00168	5b		 pop	 ebx
  00169	5d		 pop	 ebp
  0016a	c2 04 00	 ret	 4
?ClickSkillSlot@CPythonPlayer@@QAEXK@Z ENDP		; CPythonPlayer::ClickSkillSlot
_TEXT	ENDS
; Function compile flags: /Ogtp
; File C:\Anka2Project\Anka2Project\Source\Binary\source\UserInterface\PythonPlayerSkill.cpp
; File C:\Anka2Project\Anka2Project\Source\Binary\source\eterBase\Singleton.h
; File C:\Anka2Project\Anka2Project\Source\Binary\source\UserInterface\PythonPlayerSkill.cpp
;	COMDAT ?ResetAffect@CPythonPlayer@@QAEXI@Z
_TEXT	SEGMENT
_pSkillData$ = -4					; size = 4
_uAffect$ = 8						; size = 4
_dwSkillIndex$ = 8					; size = 4
_dwSkillSlotIndex$ = 8					; size = 4
?ResetAffect@CPythonPlayer@@QAEXI@Z PROC		; CPythonPlayer::ResetAffect, COMDAT
; _this$ = ecx

; 38   : {

  00000	55		 push	 ebp
  00001	8b ec		 mov	 ebp, esp
  00003	51		 push	 ecx
  00004	56		 push	 esi

; 39   : 	PyCallClassMemberFunc(m_ppyGameWindow, "ResetAffect", Py_BuildValue("(i)", uAffect));

  00005	8b 75 08	 mov	 esi, DWORD PTR _uAffect$[ebp]
  00008	57		 push	 edi
  00009	56		 push	 esi
  0000a	68 00 00 00 00	 push	 OFFSET ??_C@_03LIHNMIHG@?$CIi?$CJ@
  0000f	8b f9		 mov	 edi, ecx
  00011	ff 15 00 00 00
	00		 call	 DWORD PTR __imp__Py_BuildValue
  00017	50		 push	 eax
  00018	68 00 00 00 00	 push	 OFFSET ??_C@_0M@HBOAHMLO@ResetAffect@
  0001d	ff 77 08	 push	 DWORD PTR [edi+8]
  00020	e8 00 00 00 00	 call	 ?PyCallClassMemberFunc@@YA_NPAU_object@@PBD0@Z ; PyCallClassMemberFunc
  00025	83 c4 14	 add	 esp, 20			; 00000014H

; 40   : 
; 41   : 	DWORD dwSkillIndex;
; 42   : 	if (!AffectIndexToSkillIndex(uAffect, &dwSkillIndex))

  00028	8d 45 08	 lea	 eax, DWORD PTR _dwSkillIndex$[ebp]
  0002b	8b cf		 mov	 ecx, edi
  0002d	50		 push	 eax
  0002e	56		 push	 esi
  0002f	e8 00 00 00 00	 call	 ?AffectIndexToSkillIndex@CPythonPlayer@@QAE_NKPAK@Z ; CPythonPlayer::AffectIndexToSkillIndex
  00034	84 c0		 test	 al, al
  00036	74 5b		 je	 SHORT $LN1@ResetAffec
; File C:\Anka2Project\Anka2Project\Source\Binary\source\eterBase\Singleton.h

; 26   : 		assert(ms_singleton);

  00038	8b 0d 00 00 00
	00		 mov	 ecx, DWORD PTR ?ms_singleton@?$CSingleton@VCPythonSkill@@@@0PAVCPythonSkill@@A ; CSingleton<CPythonSkill>::ms_singleton
  0003e	85 c9		 test	 ecx, ecx
  00040	75 1a		 jne	 SHORT $LN9@ResetAffec
  00042	6a 1a		 push	 26			; 0000001aH
  00044	68 00 00 00 00	 push	 OFFSET ??_C@_1IO@CAJLEEOI@?$AAC?$AA?3?$AA?2?$AAA?$AAn?$AAk?$AAa?$AA2?$AAP?$AAr?$AAo?$AAj?$AAe?$AAc?$AAt@
  00049	68 00 00 00 00	 push	 OFFSET ??_C@_1BK@FMEHPMFE@?$AAm?$AAs?$AA_?$AAs?$AAi?$AAn?$AAg?$AAl?$AAe?$AAt?$AAo?$AAn@
  0004e	e8 00 00 00 00	 call	 __wassert
  00053	8b 0d 00 00 00
	00		 mov	 ecx, DWORD PTR ?ms_singleton@?$CSingleton@VCPythonSkill@@@@0PAVCPythonSkill@@A ; CSingleton<CPythonSkill>::ms_singleton
  00059	83 c4 0c	 add	 esp, 12			; 0000000cH
$LN9@ResetAffec:
; File C:\Anka2Project\Anka2Project\Source\Binary\source\UserInterface\PythonPlayerSkill.cpp

; 46   : 	if (!CPythonSkill::Instance().GetSkillData(dwSkillIndex, &pSkillData))

  0005c	8b 75 08	 mov	 esi, DWORD PTR _dwSkillIndex$[ebp]
  0005f	8d 45 fc	 lea	 eax, DWORD PTR _pSkillData$[ebp]
  00062	50		 push	 eax
  00063	56		 push	 esi
  00064	e8 00 00 00 00	 call	 ?GetSkillData@CPythonSkill@@QAEHKPAPAUSSkillData@1@@Z ; CPythonSkill::GetSkillData
  00069	85 c0		 test	 eax, eax
  0006b	74 26		 je	 SHORT $LN1@ResetAffec

; 47   : 		return;
; 48   : 
; 49   : 	if (!pSkillData->IsToggleSkill())

  0006d	8b 4d fc	 mov	 ecx, DWORD PTR _pSkillData$[ebp]
  00070	e8 00 00 00 00	 call	 ?IsToggleSkill@SSkillData@CPythonSkill@@QAEHXZ ; CPythonSkill::SSkillData::IsToggleSkill
  00075	85 c0		 test	 eax, eax
  00077	74 1a		 je	 SHORT $LN1@ResetAffec

; 50   : 		return;
; 51   : 
; 52   : 	DWORD dwSkillSlotIndex;
; 53   : 	if (!GetSkillSlotIndex(dwSkillIndex, &dwSkillSlotIndex))

  00079	8d 45 08	 lea	 eax, DWORD PTR _dwSkillSlotIndex$[ebp]
  0007c	8b cf		 mov	 ecx, edi
  0007e	50		 push	 eax
  0007f	56		 push	 esi
  00080	e8 00 00 00 00	 call	 ?GetSkillSlotIndex@CPythonPlayer@@QAE_NKPAK@Z ; CPythonPlayer::GetSkillSlotIndex
  00085	84 c0		 test	 al, al
  00087	74 0a		 je	 SHORT $LN1@ResetAffec

; 54   : 		return;
; 55   : 
; 56   : 	__DeactivateSkillSlot(dwSkillSlotIndex);

  00089	ff 75 08	 push	 DWORD PTR _dwSkillSlotIndex$[ebp]
  0008c	8b cf		 mov	 ecx, edi
  0008e	e8 00 00 00 00	 call	 ?__DeactivateSkillSlot@CPythonPlayer@@IAEXK@Z ; CPythonPlayer::__DeactivateSkillSlot
$LN1@ResetAffec:

; 57   : }

  00093	5f		 pop	 edi
  00094	5e		 pop	 esi
  00095	8b e5		 mov	 esp, ebp
  00097	5d		 pop	 ebp
  00098	c2 04 00	 ret	 4
?ResetAffect@CPythonPlayer@@QAEXI@Z ENDP		; CPythonPlayer::ResetAffect
_TEXT	ENDS
; Function compile flags: /Ogtp
; File C:\Anka2Project\Anka2Project\Source\Binary\source\UserInterface\PythonPlayerSkill.cpp
; File C:\Anka2Project\Anka2Project\Source\Binary\source\eterBase\Singleton.h
; File C:\Anka2Project\Anka2Project\Source\Binary\source\UserInterface\PythonPlayerSkill.cpp
;	COMDAT ?SetAffect@CPythonPlayer@@QAEXI@Z
_TEXT	SEGMENT
_pSkillData$ = -4					; size = 4
_uAffect$ = 8						; size = 4
_dwSkillIndex$ = 8					; size = 4
_dwSkillSlotIndex$ = 8					; size = 4
?SetAffect@CPythonPlayer@@QAEXI@Z PROC			; CPythonPlayer::SetAffect, COMDAT
; _this$ = ecx

; 16   : {

  00000	55		 push	 ebp
  00001	8b ec		 mov	 ebp, esp
  00003	51		 push	 ecx
  00004	56		 push	 esi

; 17   : 	PyCallClassMemberFunc(m_ppyGameWindow, "SetAffect", Py_BuildValue("(i)", uAffect));

  00005	8b 75 08	 mov	 esi, DWORD PTR _uAffect$[ebp]
  00008	57		 push	 edi
  00009	56		 push	 esi
  0000a	68 00 00 00 00	 push	 OFFSET ??_C@_03LIHNMIHG@?$CIi?$CJ@
  0000f	8b f9		 mov	 edi, ecx
  00011	ff 15 00 00 00
	00		 call	 DWORD PTR __imp__Py_BuildValue
  00017	50		 push	 eax
  00018	68 00 00 00 00	 push	 OFFSET ??_C@_09FHCBCPJO@SetAffect@
  0001d	ff 77 08	 push	 DWORD PTR [edi+8]
  00020	e8 00 00 00 00	 call	 ?PyCallClassMemberFunc@@YA_NPAU_object@@PBD0@Z ; PyCallClassMemberFunc
  00025	83 c4 14	 add	 esp, 20			; 00000014H

; 18   : 
; 19   : 	DWORD dwSkillIndex;
; 20   : 	if (!AffectIndexToSkillIndex(uAffect, &dwSkillIndex))

  00028	8d 45 08	 lea	 eax, DWORD PTR _dwSkillIndex$[ebp]
  0002b	8b cf		 mov	 ecx, edi
  0002d	50		 push	 eax
  0002e	56		 push	 esi
  0002f	e8 00 00 00 00	 call	 ?AffectIndexToSkillIndex@CPythonPlayer@@QAE_NKPAK@Z ; CPythonPlayer::AffectIndexToSkillIndex
  00034	84 c0		 test	 al, al
  00036	74 5b		 je	 SHORT $LN1@SetAffect
; File C:\Anka2Project\Anka2Project\Source\Binary\source\eterBase\Singleton.h

; 26   : 		assert(ms_singleton);

  00038	8b 0d 00 00 00
	00		 mov	 ecx, DWORD PTR ?ms_singleton@?$CSingleton@VCPythonSkill@@@@0PAVCPythonSkill@@A ; CSingleton<CPythonSkill>::ms_singleton
  0003e	85 c9		 test	 ecx, ecx
  00040	75 1a		 jne	 SHORT $LN9@SetAffect
  00042	6a 1a		 push	 26			; 0000001aH
  00044	68 00 00 00 00	 push	 OFFSET ??_C@_1IO@CAJLEEOI@?$AAC?$AA?3?$AA?2?$AAA?$AAn?$AAk?$AAa?$AA2?$AAP?$AAr?$AAo?$AAj?$AAe?$AAc?$AAt@
  00049	68 00 00 00 00	 push	 OFFSET ??_C@_1BK@FMEHPMFE@?$AAm?$AAs?$AA_?$AAs?$AAi?$AAn?$AAg?$AAl?$AAe?$AAt?$AAo?$AAn@
  0004e	e8 00 00 00 00	 call	 __wassert
  00053	8b 0d 00 00 00
	00		 mov	 ecx, DWORD PTR ?ms_singleton@?$CSingleton@VCPythonSkill@@@@0PAVCPythonSkill@@A ; CSingleton<CPythonSkill>::ms_singleton
  00059	83 c4 0c	 add	 esp, 12			; 0000000cH
$LN9@SetAffect:
; File C:\Anka2Project\Anka2Project\Source\Binary\source\UserInterface\PythonPlayerSkill.cpp

; 24   : 	if (!CPythonSkill::Instance().GetSkillData(dwSkillIndex, &pSkillData))

  0005c	8b 75 08	 mov	 esi, DWORD PTR _dwSkillIndex$[ebp]
  0005f	8d 45 fc	 lea	 eax, DWORD PTR _pSkillData$[ebp]
  00062	50		 push	 eax
  00063	56		 push	 esi
  00064	e8 00 00 00 00	 call	 ?GetSkillData@CPythonSkill@@QAEHKPAPAUSSkillData@1@@Z ; CPythonSkill::GetSkillData
  00069	85 c0		 test	 eax, eax
  0006b	74 26		 je	 SHORT $LN1@SetAffect

; 25   : 		return;
; 26   : 
; 27   : 	if (!pSkillData->IsToggleSkill())

  0006d	8b 4d fc	 mov	 ecx, DWORD PTR _pSkillData$[ebp]
  00070	e8 00 00 00 00	 call	 ?IsToggleSkill@SSkillData@CPythonSkill@@QAEHXZ ; CPythonSkill::SSkillData::IsToggleSkill
  00075	85 c0		 test	 eax, eax
  00077	74 1a		 je	 SHORT $LN1@SetAffect

; 28   : 		return;
; 29   : 
; 30   : 	DWORD dwSkillSlotIndex;
; 31   : 	if (!GetSkillSlotIndex(dwSkillIndex, &dwSkillSlotIndex))

  00079	8d 45 08	 lea	 eax, DWORD PTR _dwSkillSlotIndex$[ebp]
  0007c	8b cf		 mov	 ecx, edi
  0007e	50		 push	 eax
  0007f	56		 push	 esi
  00080	e8 00 00 00 00	 call	 ?GetSkillSlotIndex@CPythonPlayer@@QAE_NKPAK@Z ; CPythonPlayer::GetSkillSlotIndex
  00085	84 c0		 test	 al, al
  00087	74 0a		 je	 SHORT $LN1@SetAffect

; 32   : 		return;
; 33   : 
; 34   : 	__ActivateSkillSlot(dwSkillSlotIndex);

  00089	ff 75 08	 push	 DWORD PTR _dwSkillSlotIndex$[ebp]
  0008c	8b cf		 mov	 ecx, edi
  0008e	e8 00 00 00 00	 call	 ?__ActivateSkillSlot@CPythonPlayer@@IAEXK@Z ; CPythonPlayer::__ActivateSkillSlot
$LN1@SetAffect:

; 35   : }

  00093	5f		 pop	 edi
  00094	5e		 pop	 esi
  00095	8b e5		 mov	 esp, ebp
  00097	5d		 pop	 ebp
  00098	c2 04 00	 ret	 4
?SetAffect@CPythonPlayer@@QAEXI@Z ENDP			; CPythonPlayer::SetAffect
_TEXT	ENDS
; Function compile flags: /Ogtp
; File C:\Anka2Project\Anka2Project\Source\Binary\source\UserInterface\PythonPlayerSkill.cpp
;	COMDAT ?ClearAffects@CPythonPlayer@@QAEXXZ
_TEXT	SEGMENT
?ClearAffects@CPythonPlayer@@QAEXXZ PROC		; CPythonPlayer::ClearAffects, COMDAT
; _this$ = ecx

; 11   : {

  00000	56		 push	 esi

; 12   : 	PyCallClassMemberFunc(m_ppyGameWindow, "ClearAffects", Py_BuildValue("()"));

  00001	68 00 00 00 00	 push	 OFFSET ??_C@_02HCKGKOFO@?$CI?$CJ@
  00006	8b f1		 mov	 esi, ecx
  00008	ff 15 00 00 00
	00		 call	 DWORD PTR __imp__Py_BuildValue
  0000e	50		 push	 eax
  0000f	68 00 00 00 00	 push	 OFFSET ??_C@_0N@OADAMGHE@ClearAffects@
  00014	ff 76 08	 push	 DWORD PTR [esi+8]
  00017	e8 00 00 00 00	 call	 ?PyCallClassMemberFunc@@YA_NPAU_object@@PBD0@Z ; PyCallClassMemberFunc
  0001c	83 c4 10	 add	 esp, 16			; 00000010H
  0001f	5e		 pop	 esi

; 13   : }

  00020	c3		 ret	 0
?ClearAffects@CPythonPlayer@@QAEXXZ ENDP		; CPythonPlayer::ClearAffects
_TEXT	ENDS
; Function compile flags: /Ogtp
; File C:\Anka2Project\Anka2Project\Source\Binary\source\UserInterface\PythonPlayerSkill.cpp
; File C:\Anka2Project\Anka2Project\Source\Binary\source\eterBase\Singleton.h
; File C:\Anka2Project\Anka2Project\Source\Binary\source\UserInterface\PythonPlayerSkill.cpp
; File C:\Anka2Project\Anka2Project\Source\Binary\source\eterBase\Singleton.h
; File C:\Anka2Project\Anka2Project\Source\Binary\source\UserInterface\PythonPlayerSkill.cpp
;	COMDAT ?__HasEnoughArrow@CPythonPlayer@@IAE_NXZ
_TEXT	SEGMENT
_pItemData$ = -8					; size = 4
$T4 = -4						; size = 3
?__HasEnoughArrow@CPythonPlayer@@IAE_NXZ PROC		; CPythonPlayer::__HasEnoughArrow, COMDAT
; _this$ = ecx

; 851  : {

  00000	55		 push	 ebp
  00001	8b ec		 mov	 ebp, esp
  00003	83 ec 0c	 sub	 esp, 12			; 0000000cH
  00006	53		 push	 ebx
  00007	56		 push	 esi
  00008	57		 push	 edi
; File C:\Anka2Project\Anka2Project\Source\Binary\source\eterBase\Singleton.h

; 26   : 		assert(ms_singleton);

  00009	8b 3d 00 00 00
	00		 mov	 edi, DWORD PTR ?ms_singleton@?$CSingleton@VCItemManager@@@@0PAVCItemManager@@A ; CSingleton<CItemManager>::ms_singleton
; File C:\Anka2Project\Anka2Project\Source\Binary\source\UserInterface\PythonPlayerSkill.cpp

; 851  : {

  0000f	8b d9		 mov	 ebx, ecx
; File C:\Anka2Project\Anka2Project\Source\Binary\source\eterBase\Singleton.h

; 26   : 		assert(ms_singleton);

  00011	85 ff		 test	 edi, edi
  00013	75 1a		 jne	 SHORT $LN8@HasEnoughA
  00015	6a 1a		 push	 26			; 0000001aH
  00017	68 00 00 00 00	 push	 OFFSET ??_C@_1IO@CAJLEEOI@?$AAC?$AA?3?$AA?2?$AAA?$AAn?$AAk?$AAa?$AA2?$AAP?$AAr?$AAo?$AAj?$AAe?$AAc?$AAt@
  0001c	68 00 00 00 00	 push	 OFFSET ??_C@_1BK@FMEHPMFE@?$AAm?$AAs?$AA_?$AAs?$AAi?$AAn?$AAg?$AAl?$AAe?$AAt?$AAo?$AAn@
  00021	e8 00 00 00 00	 call	 __wassert
  00026	8b 3d 00 00 00
	00		 mov	 edi, DWORD PTR ?ms_singleton@?$CSingleton@VCItemManager@@@@0PAVCItemManager@@A ; CSingleton<CItemManager>::ms_singleton
  0002c	83 c4 0c	 add	 esp, 12			; 0000000cH
$LN8@HasEnoughA:
; File C:\Anka2Project\Anka2Project\Source\Binary\source\UserInterface\PythonPlayerSkill.cpp

; 853  : 	if (CItemManager::Instance().GetItemDataPointer(GetItemIndex(TItemPos(INVENTORY, c_Equipment_Arrow)), &pItemData))

  0002f	8b 43 04	 mov	 eax, DWORD PTR [ebx+4]
  00032	51		 push	 ecx
  00033	8b d4		 mov	 edx, esp
  00035	c6 45 fc 01	 mov	 BYTE PTR $T4[ebp], 1
  00039	8d 4b 04	 lea	 ecx, DWORD PTR [ebx+4]
  0003c	8b 70 48	 mov	 esi, DWORD PTR [eax+72]
  0003f	b8 bd 00 00 00	 mov	 eax, 189		; 000000bdH
  00044	66 89 45 fd	 mov	 WORD PTR $T4[ebp+1], ax
  00048	66 8b 45 fc	 mov	 ax, WORD PTR $T4[ebp]
  0004c	66 89 02	 mov	 WORD PTR [edx], ax
  0004f	8a 45 fe	 mov	 al, BYTE PTR $T4[ebp+2]
  00052	88 42 02	 mov	 BYTE PTR [edx+2], al
  00055	ff d6		 call	 esi
  00057	8d 4d f8	 lea	 ecx, DWORD PTR _pItemData$[ebp]
  0005a	51		 push	 ecx
  0005b	50		 push	 eax
  0005c	8b cf		 mov	 ecx, edi
  0005e	e8 00 00 00 00	 call	 ?GetItemDataPointer@CItemManager@@QAEHKPAPAVCItemData@@@Z ; CItemManager::GetItemDataPointer
  00063	85 c0		 test	 eax, eax
  00065	74 21		 je	 SHORT $LN4@HasEnoughA

; 854  : 	if (CItemData::ITEM_TYPE_WEAPON == pItemData->GetType())

  00067	8b 4d f8	 mov	 ecx, DWORD PTR _pItemData$[ebp]
  0006a	e8 00 00 00 00	 call	 ?GetType@CItemData@@QBEEXZ ; CItemData::GetType
  0006f	3c 01		 cmp	 al, 1
  00071	75 15		 jne	 SHORT $LN4@HasEnoughA

; 855  : 	if (CItemData::WEAPON_ARROW == pItemData->GetSubType())

  00073	8b 4d f8	 mov	 ecx, DWORD PTR _pItemData$[ebp]
  00076	e8 00 00 00 00	 call	 ?GetSubType@CItemData@@QBEEXZ ; CItemData::GetSubType
  0007b	3c 06		 cmp	 al, 6
  0007d	75 09		 jne	 SHORT $LN4@HasEnoughA

; 856  : 	{
; 857  : 		return true;

  0007f	b0 01		 mov	 al, 1

; 862  : }

  00081	5f		 pop	 edi
  00082	5e		 pop	 esi
  00083	5b		 pop	 ebx
  00084	8b e5		 mov	 esp, ebp
  00086	5d		 pop	 ebp
  00087	c3		 ret	 0
$LN4@HasEnoughA:

; 858  : 	}
; 859  : 
; 860  : 	PyCallClassMemberFunc(m_ppyGameWindow, "OnCannotShotError", Py_BuildValue("(is)", GetMainCharacterIndex(), "EMPTY_ARROW"));

  00088	8b 43 04	 mov	 eax, DWORD PTR [ebx+4]
  0008b	8d 4b 04	 lea	 ecx, DWORD PTR [ebx+4]
  0008e	68 00 00 00 00	 push	 OFFSET ??_C@_0M@FBIHMJDM@EMPTY_ARROW@
  00093	ff 50 04	 call	 DWORD PTR [eax+4]
  00096	50		 push	 eax
  00097	68 00 00 00 00	 push	 OFFSET ??_C@_04JMLDJNEM@?$CIis?$CJ@
  0009c	ff 15 00 00 00
	00		 call	 DWORD PTR __imp__Py_BuildValue
  000a2	50		 push	 eax
  000a3	8b c3		 mov	 eax, ebx
  000a5	68 00 00 00 00	 push	 OFFSET ??_C@_0BC@FKINMGLI@OnCannotShotError@
  000aa	ff 70 08	 push	 DWORD PTR [eax+8]
  000ad	e8 00 00 00 00	 call	 ?PyCallClassMemberFunc@@YA_NPAU_object@@PBD0@Z ; PyCallClassMemberFunc
  000b2	83 c4 18	 add	 esp, 24			; 00000018H

; 861  : 	return false;

  000b5	32 c0		 xor	 al, al

; 862  : }

  000b7	5f		 pop	 edi
  000b8	5e		 pop	 esi
  000b9	5b		 pop	 ebx
  000ba	8b e5		 mov	 esp, ebp
  000bc	5d		 pop	 ebp
  000bd	c3		 ret	 0
?__HasEnoughArrow@CPythonPlayer@@IAE_NXZ ENDP		; CPythonPlayer::__HasEnoughArrow
_TEXT	ENDS
; Function compile flags: /Ogtp
; File C:\Anka2Project\Anka2Project\Source\Binary\source\UserInterface\PythonPlayerSkill.cpp
; File C:\Anka2Project\Anka2Project\Source\Binary\source\eterBase\Singleton.h
; File C:\Anka2Project\Anka2Project\Source\Binary\source\UserInterface\PythonPlayerSkill.cpp
; File C:\Anka2Project\Anka2Project\Source\Binary\source\eterBase\Singleton.h
; File C:\Anka2Project\Anka2Project\Source\Binary\source\UserInterface\PythonPlayerSkill.cpp
;	COMDAT ?ChangeCurrentSkillNumberOnly@CPythonPlayer@@QAEXK@Z
_TEXT	SEGMENT
_dwSlotIndex$ = 8					; size = 4
_pSkillData$ = 8					; size = 4
?ChangeCurrentSkillNumberOnly@CPythonPlayer@@QAEXK@Z PROC ; CPythonPlayer::ChangeCurrentSkillNumberOnly, COMDAT
; _this$ = ecx

; 75   : {

  00000	55		 push	 ebp
  00001	8b ec		 mov	 ebp, esp
  00003	53		 push	 ebx
  00004	56		 push	 esi
  00005	57		 push	 edi

; 76   : 	if (dwSlotIndex >= SKILL_MAX_NUM)

  00006	8b 7d 08	 mov	 edi, DWORD PTR _dwSlotIndex$[ebp]
  00009	8b f1		 mov	 esi, ecx
  0000b	81 ff ff 00 00
	00		 cmp	 edi, 255		; 000000ffH
  00011	0f 83 c6 00 00
	00		 jae	 $LN6@ChangeCurr
; File C:\Anka2Project\Anka2Project\Source\Binary\source\eterBase\Singleton.h

; 26   : 		assert(ms_singleton);

  00017	8b 0d 00 00 00
	00		 mov	 ecx, DWORD PTR ?ms_singleton@?$CSingleton@VCPythonSkill@@@@0PAVCPythonSkill@@A ; CSingleton<CPythonSkill>::ms_singleton
; File C:\Anka2Project\Anka2Project\Source\Binary\source\UserInterface\PythonPlayerSkill.cpp

; 79   : 	TSkillInstance & rkSkillInst = m_playerStatus.aSkill[dwSlotIndex];

  0001d	8d 04 bf	 lea	 eax, DWORD PTR [edi+edi*4]
  00020	8d 1c c6	 lea	 ebx, DWORD PTR [esi+eax*8]
; File C:\Anka2Project\Anka2Project\Source\Binary\source\eterBase\Singleton.h

; 26   : 		assert(ms_singleton);

  00023	85 c9		 test	 ecx, ecx
  00025	75 1a		 jne	 SHORT $LN11@ChangeCurr
  00027	6a 1a		 push	 26			; 0000001aH
  00029	68 00 00 00 00	 push	 OFFSET ??_C@_1IO@CAJLEEOI@?$AAC?$AA?3?$AA?2?$AAA?$AAn?$AAk?$AAa?$AA2?$AAP?$AAr?$AAo?$AAj?$AAe?$AAc?$AAt@
  0002e	68 00 00 00 00	 push	 OFFSET ??_C@_1BK@FMEHPMFE@?$AAm?$AAs?$AA_?$AAs?$AAi?$AAn?$AAg?$AAl?$AAe?$AAt?$AAo?$AAn@
  00033	e8 00 00 00 00	 call	 __wassert
  00038	8b 0d 00 00 00
	00		 mov	 ecx, DWORD PTR ?ms_singleton@?$CSingleton@VCPythonSkill@@@@0PAVCPythonSkill@@A ; CSingleton<CPythonSkill>::ms_singleton
  0003e	83 c4 0c	 add	 esp, 12			; 0000000cH
$LN11@ChangeCurr:
; File C:\Anka2Project\Anka2Project\Source\Binary\source\UserInterface\PythonPlayerSkill.cpp

; 82   : 	if (!CPythonSkill::Instance().GetSkillData(rkSkillInst.dwIndex, &pSkillData))

  00041	8d 45 08	 lea	 eax, DWORD PTR _pSkillData$[ebp]
  00044	50		 push	 eax
  00045	ff b3 04 83 01
	00		 push	 DWORD PTR [ebx+99076]
  0004b	e8 00 00 00 00	 call	 ?GetSkillData@CPythonSkill@@QAEHKPAPAUSSkillData@1@@Z ; CPythonSkill::GetSkillData
  00050	85 c0		 test	 eax, eax
  00052	0f 84 85 00 00
	00		 je	 $LN6@ChangeCurr

; 83   : 		return;
; 84   : 
; 85   : 	if (!pSkillData->IsCanUseSkill())

  00058	8b 4d 08	 mov	 ecx, DWORD PTR _pSkillData$[ebp]
  0005b	e8 00 00 00 00	 call	 ?IsCanUseSkill@SSkillData@CPythonSkill@@QAE_NXZ ; CPythonSkill::SSkillData::IsCanUseSkill
  00060	84 c0		 test	 al, al
  00062	74 79		 je	 SHORT $LN6@ChangeCurr

; 86   : 		return;
; 87   : 
; 88   : 	if (!__IsRightButtonSkillMode())

  00064	8b ce		 mov	 ecx, esi
  00066	e8 00 00 00 00	 call	 ?__IsRightButtonSkillMode@CPythonPlayer@@IAEHXZ ; CPythonPlayer::__IsRightButtonSkillMode
  0006b	85 c0		 test	 eax, eax
  0006d	75 4b		 jne	 SHORT $LN5@ChangeCurr

; 89   : 	{
; 90   : 		if (!__IsTarget())

  0006f	e8 00 00 00 00	 call	 ?__IsTarget@CPythonPlayer@@IAE_NXZ ; CPythonPlayer::__IsTarget
  00074	84 c0		 test	 al, al
  00076	75 35		 jne	 SHORT $LN7@ChangeCurr

; 91   : 		{
; 92   : 			PyCallClassMemberFunc(m_ppyGameWindow, "OnCannotUseSkill", Py_BuildValue("(is)", GetMainCharacterIndex(), "NEED_TARGET"));

  00078	8b 46 04	 mov	 eax, DWORD PTR [esi+4]
  0007b	8d 4e 04	 lea	 ecx, DWORD PTR [esi+4]
  0007e	68 00 00 00 00	 push	 OFFSET ??_C@_0M@HCIEKIGP@NEED_TARGET@
  00083	ff 50 04	 call	 DWORD PTR [eax+4]
  00086	50		 push	 eax
  00087	68 00 00 00 00	 push	 OFFSET ??_C@_04JMLDJNEM@?$CIis?$CJ@
  0008c	ff 15 00 00 00
	00		 call	 DWORD PTR __imp__Py_BuildValue
  00092	83 c4 0c	 add	 esp, 12			; 0000000cH
  00095	50		 push	 eax
  00096	68 00 00 00 00	 push	 OFFSET ??_C@_0BB@BOHMBBJL@OnCannotUseSkill@
  0009b	ff 76 08	 push	 DWORD PTR [esi+8]
  0009e	e8 00 00 00 00	 call	 ?PyCallClassMemberFunc@@YA_NPAU_object@@PBD0@Z ; PyCallClassMemberFunc
  000a3	83 c4 0c	 add	 esp, 12			; 0000000cH

; 102  : 	}
; 103  : }

  000a6	5f		 pop	 edi
  000a7	5e		 pop	 esi
  000a8	5b		 pop	 ebx
  000a9	5d		 pop	 ebp
  000aa	c2 04 00	 ret	 4
$LN7@ChangeCurr:

; 93   : 			return;
; 94   : 		}
; 95   : 
; 96   : 		ClickSkillSlot(dwSlotIndex);

  000ad	57		 push	 edi
  000ae	e8 00 00 00 00	 call	 ?ClickSkillSlot@CPythonPlayer@@QAEXK@Z ; CPythonPlayer::ClickSkillSlot

; 102  : 	}
; 103  : }

  000b3	5f		 pop	 edi
  000b4	5e		 pop	 esi
  000b5	5b		 pop	 ebx
  000b6	5d		 pop	 ebp
  000b7	c2 04 00	 ret	 4
$LN5@ChangeCurr:

; 97   : 	}
; 98   : 	else
; 99   : 	{
; 100  : 		m_dwcurSkillSlotIndex = dwSlotIndex;
; 101  : 		PyCallClassMemberFunc(m_ppyGameWindow, "ChangeCurrentSkill", Py_BuildValue("(i)", dwSlotIndex));

  000ba	57		 push	 edi
  000bb	68 00 00 00 00	 push	 OFFSET ??_C@_03LIHNMIHG@?$CIi?$CJ@
  000c0	89 be ec b2 01
	00		 mov	 DWORD PTR [esi+111340], edi
  000c6	ff 15 00 00 00
	00		 call	 DWORD PTR __imp__Py_BuildValue
  000cc	50		 push	 eax
  000cd	68 00 00 00 00	 push	 OFFSET ??_C@_0BD@IOEPNDLO@ChangeCurrentSkill@
  000d2	ff 76 08	 push	 DWORD PTR [esi+8]
  000d5	e8 00 00 00 00	 call	 ?PyCallClassMemberFunc@@YA_NPAU_object@@PBD0@Z ; PyCallClassMemberFunc
  000da	83 c4 14	 add	 esp, 20			; 00000014H
$LN6@ChangeCurr:

; 102  : 	}
; 103  : }

  000dd	5f		 pop	 edi
  000de	5e		 pop	 esi
  000df	5b		 pop	 ebx
  000e0	5d		 pop	 ebp
  000e1	c2 04 00	 ret	 4
?ChangeCurrentSkillNumberOnly@CPythonPlayer@@QAEXK@Z ENDP ; CPythonPlayer::ChangeCurrentSkillNumberOnly
_TEXT	ENDS
; Function compile flags: /Ogtp
; File C:\Anka2Project\Anka2Project\Source\Binary\source\UserInterface\PythonPlayerSkill.cpp
; File C:\Anka2Project\Anka2Project\Source\Binary\source\eterBase\Singleton.h
; File C:\Anka2Project\Anka2Project\Source\Binary\source\UserInterface\PythonPlayerSkill.cpp
; File C:\Anka2Project\Anka2Project\Source\Binary\source\eterBase\Singleton.h
; File C:\Anka2Project\Anka2Project\Source\Binary\source\UserInterface\PythonPlayerSkill.cpp
; File C:\Anka2Project\Anka2Project\Source\Binary\source\eterBase\Singleton.h
; File C:\Anka2Project\Anka2Project\Source\Binary\source\UserInterface\PythonPlayerSkill.cpp
; File C:\Anka2Project\Anka2Project\Source\Binary\source\eterBase\Singleton.h
; File C:\Anka2Project\Anka2Project\Source\Binary\source\UserInterface\PythonPlayerSkill.cpp
;	COMDAT ?UseGuildSkill@CPythonPlayer@@QAEXK@Z
_TEXT	SEGMENT
_pkInstMain$1$ = -4					; size = 4
_dwSkillSlotIndex$ = 8					; size = 4
_pSkillData$ = 8					; size = 4
?UseGuildSkill@CPythonPlayer@@QAEXK@Z PROC		; CPythonPlayer::UseGuildSkill, COMDAT
; _this$ = ecx

; 892  : {

  00000	55		 push	 ebp
  00001	8b ec		 mov	 ebp, esp
  00003	83 ec 08	 sub	 esp, 8
  00006	53		 push	 ebx
  00007	8b d9		 mov	 ebx, ecx

; 893  : 	CInstanceBase* pkInstMain = NEW_GetMainActorPtr();

  00009	8b 43 04	 mov	 eax, DWORD PTR [ebx+4]
  0000c	8d 4b 04	 lea	 ecx, DWORD PTR [ebx+4]
  0000f	56		 push	 esi
  00010	57		 push	 edi
  00011	ff 90 8c 00 00
	00		 call	 DWORD PTR [eax+140]
  00017	89 45 fc	 mov	 DWORD PTR _pkInstMain$1$[ebp], eax

; 894  : 	if (!pkInstMain)

  0001a	85 c0		 test	 eax, eax
  0001c	0f 84 82 01 00
	00		 je	 $LN1@UseGuildSk

; 895  : 		return;
; 896  : 	if (!pkInstMain->CanUseSkill())

  00022	8b c8		 mov	 ecx, eax
  00024	e8 00 00 00 00	 call	 ?CanUseSkill@CInstanceBase@@QAE_NXZ ; CInstanceBase::CanUseSkill
  00029	84 c0		 test	 al, al
  0002b	0f 84 73 01 00
	00		 je	 $LN1@UseGuildSk

; 897  : 		return;
; 898  : 
; 899  : 	if (dwSkillSlotIndex >= SKILL_MAX_NUM)

  00031	8b 75 08	 mov	 esi, DWORD PTR _dwSkillSlotIndex$[ebp]
  00034	81 fe ff 00 00
	00		 cmp	 esi, 255		; 000000ffH
  0003a	72 17		 jb	 SHORT $LN4@UseGuildSk

; 900  : 	{
; 901  : 		Tracenf("CPythonPlayer::UseGuildSkill(dwSkillSlotIndex=%d) It's not available skill slot number", dwSkillSlotIndex);

  0003c	56		 push	 esi
  0003d	68 00 00 00 00	 push	 OFFSET ??_C@_0FH@CAACOELN@CPythonPlayer?3?3UseGuildSkill?$CIdw@
  00042	e8 00 00 00 00	 call	 ?Tracenf@@YAXPBDZZ	; Tracenf
  00047	83 c4 08	 add	 esp, 8

; 936  : }

  0004a	5f		 pop	 edi
  0004b	5e		 pop	 esi
  0004c	5b		 pop	 ebx
  0004d	8b e5		 mov	 esp, ebp
  0004f	5d		 pop	 ebp
  00050	c2 04 00	 ret	 4
$LN4@UseGuildSk:
; File C:\Anka2Project\Anka2Project\Source\Binary\source\eterBase\Singleton.h

; 26   : 		assert(ms_singleton);

  00053	8b 0d 00 00 00
	00		 mov	 ecx, DWORD PTR ?ms_singleton@?$CSingleton@VCPythonSkill@@@@0PAVCPythonSkill@@A ; CSingleton<CPythonSkill>::ms_singleton
; File C:\Anka2Project\Anka2Project\Source\Binary\source\UserInterface\PythonPlayerSkill.cpp

; 905  : 	TSkillInstance & rkSkillInst = m_playerStatus.aSkill[dwSkillSlotIndex];

  00059	8d 04 b6	 lea	 eax, DWORD PTR [esi+esi*4]

; 906  : 
; 907  : 	DWORD dwSkillIndex = rkSkillInst.dwIndex;

  0005c	8b bc c3 04 83
	01 00		 mov	 edi, DWORD PTR [ebx+eax*8+99076]
; File C:\Anka2Project\Anka2Project\Source\Binary\source\eterBase\Singleton.h

; 26   : 		assert(ms_singleton);

  00063	85 c9		 test	 ecx, ecx
  00065	75 1a		 jne	 SHORT $LN13@UseGuildSk
  00067	6a 1a		 push	 26			; 0000001aH
  00069	68 00 00 00 00	 push	 OFFSET ??_C@_1IO@CAJLEEOI@?$AAC?$AA?3?$AA?2?$AAA?$AAn?$AAk?$AAa?$AA2?$AAP?$AAr?$AAo?$AAj?$AAe?$AAc?$AAt@
  0006e	68 00 00 00 00	 push	 OFFSET ??_C@_1BK@FMEHPMFE@?$AAm?$AAs?$AA_?$AAs?$AAi?$AAn?$AAg?$AAl?$AAe?$AAt?$AAo?$AAn@
  00073	e8 00 00 00 00	 call	 __wassert
  00078	8b 0d 00 00 00
	00		 mov	 ecx, DWORD PTR ?ms_singleton@?$CSingleton@VCPythonSkill@@@@0PAVCPythonSkill@@A ; CSingleton<CPythonSkill>::ms_singleton
  0007e	83 c4 0c	 add	 esp, 12			; 0000000cH
$LN13@UseGuildSk:
; File C:\Anka2Project\Anka2Project\Source\Binary\source\UserInterface\PythonPlayerSkill.cpp

; 910  : 	if (!CPythonSkill::Instance().GetSkillData(dwSkillIndex, &pSkillData))

  00081	8d 45 08	 lea	 eax, DWORD PTR _pSkillData$[ebp]
  00084	50		 push	 eax
  00085	57		 push	 edi
  00086	e8 00 00 00 00	 call	 ?GetSkillData@CPythonSkill@@QAEHKPAPAUSSkillData@1@@Z ; CPythonSkill::GetSkillData
  0008b	85 c0		 test	 eax, eax
  0008d	0f 84 11 01 00
	00		 je	 $LN1@UseGuildSk

; 911  : 		return;
; 912  : 
; 913  : 	if (__CheckRestSkillCoolTime(dwSkillSlotIndex))

  00093	56		 push	 esi
  00094	8b cb		 mov	 ecx, ebx
  00096	e8 00 00 00 00	 call	 ?__CheckRestSkillCoolTime@CPythonPlayer@@IAE_NK@Z ; CPythonPlayer::__CheckRestSkillCoolTime
  0009b	84 c0		 test	 al, al
  0009d	74 37		 je	 SHORT $LN6@UseGuildSk

; 914  : 	{
; 915  : 		PyCallClassMemberFunc(m_ppyGameWindow, "OnCannotUseSkill", Py_BuildValue("(is)", GetMainCharacterIndex(), "WAIT_COOLTIME"));

  0009f	8b 43 04	 mov	 eax, DWORD PTR [ebx+4]
  000a2	8d 4b 04	 lea	 ecx, DWORD PTR [ebx+4]
  000a5	68 00 00 00 00	 push	 OFFSET ??_C@_0O@CCJDKKCC@WAIT_COOLTIME@
  000aa	ff 50 04	 call	 DWORD PTR [eax+4]
  000ad	50		 push	 eax
  000ae	68 00 00 00 00	 push	 OFFSET ??_C@_04JMLDJNEM@?$CIis?$CJ@
  000b3	ff 15 00 00 00
	00		 call	 DWORD PTR __imp__Py_BuildValue
  000b9	83 c4 0c	 add	 esp, 12			; 0000000cH
  000bc	50		 push	 eax
  000bd	68 00 00 00 00	 push	 OFFSET ??_C@_0BB@BOHMBBJL@OnCannotUseSkill@
  000c2	ff 73 08	 push	 DWORD PTR [ebx+8]
  000c5	e8 00 00 00 00	 call	 ?PyCallClassMemberFunc@@YA_NPAU_object@@PBD0@Z ; PyCallClassMemberFunc
  000ca	83 c4 0c	 add	 esp, 12			; 0000000cH

; 936  : }

  000cd	5f		 pop	 edi
  000ce	5e		 pop	 esi
  000cf	5b		 pop	 ebx
  000d0	8b e5		 mov	 esp, ebp
  000d2	5d		 pop	 ebp
  000d3	c2 04 00	 ret	 4
$LN6@UseGuildSk:

; 916  : 		return;
; 917  : 	}
; 918  : 
; 919  : 	if (pSkillData->IsOnlyForGuildWar())

  000d6	8b 4d 08	 mov	 ecx, DWORD PTR _pSkillData$[ebp]
  000d9	e8 00 00 00 00	 call	 ?IsOnlyForGuildWar@SSkillData@CPythonSkill@@QAEHXZ ; CPythonSkill::SSkillData::IsOnlyForGuildWar
  000de	85 c0		 test	 eax, eax
  000e0	74 64		 je	 SHORT $LN8@UseGuildSk
; File C:\Anka2Project\Anka2Project\Source\Binary\source\eterBase\Singleton.h

; 26   : 		assert(ms_singleton);

  000e2	8b 0d 00 00 00
	00		 mov	 ecx, DWORD PTR ?ms_singleton@?$CSingleton@VCPythonGuild@@@@0PAVCPythonGuild@@A ; CSingleton<CPythonGuild>::ms_singleton
  000e8	85 c9		 test	 ecx, ecx
  000ea	75 1a		 jne	 SHORT $LN16@UseGuildSk
  000ec	6a 1a		 push	 26			; 0000001aH
  000ee	68 00 00 00 00	 push	 OFFSET ??_C@_1IO@CAJLEEOI@?$AAC?$AA?3?$AA?2?$AAA?$AAn?$AAk?$AAa?$AA2?$AAP?$AAr?$AAo?$AAj?$AAe?$AAc?$AAt@
  000f3	68 00 00 00 00	 push	 OFFSET ??_C@_1BK@FMEHPMFE@?$AAm?$AAs?$AA_?$AAs?$AAi?$AAn?$AAg?$AAl?$AAe?$AAt?$AAo?$AAn@
  000f8	e8 00 00 00 00	 call	 __wassert
  000fd	8b 0d 00 00 00
	00		 mov	 ecx, DWORD PTR ?ms_singleton@?$CSingleton@VCPythonGuild@@@@0PAVCPythonGuild@@A ; CSingleton<CPythonGuild>::ms_singleton
  00103	83 c4 0c	 add	 esp, 12			; 0000000cH
$LN16@UseGuildSk:
; File C:\Anka2Project\Anka2Project\Source\Binary\source\UserInterface\PythonPlayerSkill.cpp

; 921  : 		if (!CPythonGuild::Instance().IsDoingGuildWar())

  00106	e8 00 00 00 00	 call	 ?IsDoingGuildWar@CPythonGuild@@QAEHXZ ; CPythonGuild::IsDoingGuildWar
  0010b	85 c0		 test	 eax, eax
  0010d	75 37		 jne	 SHORT $LN8@UseGuildSk

; 922  : 		{
; 923  : 			PyCallClassMemberFunc(m_ppyGameWindow, "OnCannotUseSkill", Py_BuildValue("(is)", GetMainCharacterIndex(), "ONLY_FOR_GUILD_WAR"));

  0010f	8b 43 04	 mov	 eax, DWORD PTR [ebx+4]
  00112	8d 4b 04	 lea	 ecx, DWORD PTR [ebx+4]
  00115	68 00 00 00 00	 push	 OFFSET ??_C@_0BD@OHHCPGPG@ONLY_FOR_GUILD_WAR@
  0011a	ff 50 04	 call	 DWORD PTR [eax+4]
  0011d	50		 push	 eax
  0011e	68 00 00 00 00	 push	 OFFSET ??_C@_04JMLDJNEM@?$CIis?$CJ@
  00123	ff 15 00 00 00
	00		 call	 DWORD PTR __imp__Py_BuildValue
  00129	83 c4 0c	 add	 esp, 12			; 0000000cH
  0012c	50		 push	 eax
  0012d	68 00 00 00 00	 push	 OFFSET ??_C@_0BB@BOHMBBJL@OnCannotUseSkill@
  00132	ff 73 08	 push	 DWORD PTR [ebx+8]
  00135	e8 00 00 00 00	 call	 ?PyCallClassMemberFunc@@YA_NPAU_object@@PBD0@Z ; PyCallClassMemberFunc
  0013a	83 c4 0c	 add	 esp, 12			; 0000000cH

; 936  : }

  0013d	5f		 pop	 edi
  0013e	5e		 pop	 esi
  0013f	5b		 pop	 ebx
  00140	8b e5		 mov	 esp, ebp
  00142	5d		 pop	 ebp
  00143	c2 04 00	 ret	 4
$LN8@UseGuildSk:

; 924  : 			return;
; 925  : 		}
; 926  : 	}
; 927  : 
; 928  : 	DWORD dwMotionIndex = pSkillData->GetSkillMotionIndex();

  00146	8b 4d 08	 mov	 ecx, DWORD PTR _pSkillData$[ebp]
  00149	6a ff		 push	 -1
  0014b	e8 00 00 00 00	 call	 ?GetSkillMotionIndex@SSkillData@CPythonSkill@@QAEKH@Z ; CPythonSkill::SSkillData::GetSkillMotionIndex

; 929  : 	if (!pkInstMain->NEW_UseSkill(dwSkillIndex, dwMotionIndex, 1, false))

  00150	8b 4d fc	 mov	 ecx, DWORD PTR _pkInstMain$1$[ebp]
  00153	6a 00		 push	 0
  00155	6a 01		 push	 1
  00157	50		 push	 eax
  00158	57		 push	 edi
  00159	e8 00 00 00 00	 call	 ?NEW_UseSkill@CInstanceBase@@QAE_NIII_N@Z ; CInstanceBase::NEW_UseSkill
  0015e	84 c0		 test	 al, al
  00160	75 0e		 jne	 SHORT $LN9@UseGuildSk

; 930  : 	{
; 931  : 		Tracenf("CPythonPlayer::UseGuildSkill(%d) - pkInstMain->NEW_UseSkill - ERROR", dwSkillIndex);

  00162	57		 push	 edi
  00163	68 00 00 00 00	 push	 OFFSET ??_C@_0EE@GICPADML@CPythonPlayer?3?3UseGuildSkill?$CI?$CFd@
  00168	e8 00 00 00 00	 call	 ?Tracenf@@YAXPBDZZ	; Tracenf
  0016d	83 c4 08	 add	 esp, 8
$LN9@UseGuildSk:
; File C:\Anka2Project\Anka2Project\Source\Binary\source\eterBase\Singleton.h

; 26   : 		assert(ms_singleton);

  00170	8b 0d 00 00 00
	00		 mov	 ecx, DWORD PTR ?ms_singleton@?$CSingleton@VCPythonNetworkStream@@@@0PAVCPythonNetworkStream@@A ; CSingleton<CPythonNetworkStream>::ms_singleton
  00176	85 c9		 test	 ecx, ecx
  00178	75 1a		 jne	 SHORT $LN19@UseGuildSk
  0017a	6a 1a		 push	 26			; 0000001aH
  0017c	68 00 00 00 00	 push	 OFFSET ??_C@_1IO@CAJLEEOI@?$AAC?$AA?3?$AA?2?$AAA?$AAn?$AAk?$AAa?$AA2?$AAP?$AAr?$AAo?$AAj?$AAe?$AAc?$AAt@
  00181	68 00 00 00 00	 push	 OFFSET ??_C@_1BK@FMEHPMFE@?$AAm?$AAs?$AA_?$AAs?$AAi?$AAn?$AAg?$AAl?$AAe?$AAt?$AAo?$AAn@
  00186	e8 00 00 00 00	 call	 __wassert
  0018b	8b 0d 00 00 00
	00		 mov	 ecx, DWORD PTR ?ms_singleton@?$CSingleton@VCPythonNetworkStream@@@@0PAVCPythonNetworkStream@@A ; CSingleton<CPythonNetworkStream>::ms_singleton
  00191	83 c4 0c	 add	 esp, 12			; 0000000cH
$LN19@UseGuildSk:
; File C:\Anka2Project\Anka2Project\Source\Binary\source\UserInterface\PythonPlayerSkill.cpp

; 934  : 	CPythonNetworkStream::Instance().SendGuildUseSkillPacket(dwSkillIndex, 0);

  00194	6a 00		 push	 0
  00196	57		 push	 edi
  00197	e8 00 00 00 00	 call	 ?SendGuildUseSkillPacket@CPythonNetworkStream@@QAE_NKK@Z ; CPythonNetworkStream::SendGuildUseSkillPacket

; 935  : 	__RunCoolTime(dwSkillSlotIndex);

  0019c	56		 push	 esi
  0019d	8b cb		 mov	 ecx, ebx
  0019f	e8 00 00 00 00	 call	 ?__RunCoolTime@CPythonPlayer@@IAEXK@Z ; CPythonPlayer::__RunCoolTime
$LN1@UseGuildSk:

; 936  : }

  001a4	5f		 pop	 edi
  001a5	5e		 pop	 esi
  001a6	5b		 pop	 ebx
  001a7	8b e5		 mov	 esp, ebp
  001a9	5d		 pop	 ebp
  001aa	c2 04 00	 ret	 4
?UseGuildSkill@CPythonPlayer@@QAEXK@Z ENDP		; CPythonPlayer::UseGuildSkill
_TEXT	ENDS
; Function compile flags: /Ogtp
; File C:\Anka2Project\Anka2Project\Source\Binary\source\UserInterface\PythonPlayerSkill.cpp
; File C:\Anka2Project\Anka2Project\Source\Binary\source\eterBase\Singleton.h
; File C:\Anka2Project\Anka2Project\Source\Binary\source\UserInterface\PythonPlayerSkill.cpp
;	COMDAT ?__CheckShortMana@CPythonPlayer@@IAE_NAAUSSkillInstance@1@AAUSSkillData@CPythonSkill@@@Z
_TEXT	SEGMENT
_rkSkillInst$ = 8					; size = 4
_rkSkillData$ = 12					; size = 4
?__CheckShortMana@CPythonPlayer@@IAE_NAAUSSkillInstance@1@AAUSSkillData@CPythonSkill@@@Z PROC ; CPythonPlayer::__CheckShortMana, COMDAT
; _this$ = ecx

; 344  : {

  00000	55		 push	 ebp
  00001	8b ec		 mov	 ebp, esp
  00003	51		 push	 ecx

; 345  : 	if (c_iSkillIndex_Summon == rkSkillInst.dwIndex)

  00004	8b 45 08	 mov	 eax, DWORD PTR _rkSkillInst$[ebp]
  00007	53		 push	 ebx
  00008	56		 push	 esi
  00009	57		 push	 edi
  0000a	81 38 83 00 00
	00		 cmp	 DWORD PTR [eax], 131	; 00000083H
  00010	8b d9		 mov	 ebx, ecx
  00012	0f 84 96 00 00
	00		 je	 $LN9@CheckShort

; 346  : 		return false;
; 347  : 
; 348  : 	int iNeedSP = rkSkillData.GetNeedSP(rkSkillInst.fcurEfficientPercentage);

  00018	8b 7d 0c	 mov	 edi, DWORD PTR _rkSkillData$[ebp]
  0001b	8b cf		 mov	 ecx, edi
  0001d	f3 0f 10 48 10	 movss	 xmm1, DWORD PTR [eax+16]
  00022	e8 00 00 00 00	 call	 ?GetNeedSP@SSkillData@CPythonSkill@@QAEHM@Z ; CPythonSkill::SSkillData::GetNeedSP

; 349  : 	int icurSP = GetStatus(POINT_SP);

  00027	8b 53 04	 mov	 edx, DWORD PTR [ebx+4]
  0002a	8d 4b 04	 lea	 ecx, DWORD PTR [ebx+4]
  0002d	6a 07		 push	 7
  0002f	8b f0		 mov	 esi, eax
  00031	8b 52 10	 mov	 edx, DWORD PTR [edx+16]
  00034	ff d2		 call	 edx

; 350  : 
; 351  : 	if (!rkSkillData.IsToggleSkill())

  00036	8b cf		 mov	 ecx, edi
  00038	8b d0		 mov	 edx, eax
  0003a	e8 00 00 00 00	 call	 ?IsToggleSkill@SSkillData@CPythonSkill@@QAEHXZ ; CPythonSkill::SSkillData::IsToggleSkill
  0003f	85 c0		 test	 eax, eax
  00041	75 42		 jne	 SHORT $LN4@CheckShort

; 352  : 	{
; 353  : 		if (iNeedSP == 0)

  00043	85 f6		 test	 esi, esi
  00045	75 3e		 jne	 SHORT $LN4@CheckShort
; File C:\Anka2Project\Anka2Project\Source\Binary\source\eterBase\Singleton.h

; 26   : 		assert(ms_singleton);

  00047	8b 0d 00 00 00
	00		 mov	 ecx, DWORD PTR ?ms_singleton@?$CSingleton@VCPythonChat@@@@0PAVCPythonChat@@A ; CSingleton<CPythonChat>::ms_singleton
  0004d	85 c9		 test	 ecx, ecx
  0004f	75 1a		 jne	 SHORT $LN13@CheckShort
  00051	6a 1a		 push	 26			; 0000001aH
  00053	68 00 00 00 00	 push	 OFFSET ??_C@_1IO@CAJLEEOI@?$AAC?$AA?3?$AA?2?$AAA?$AAn?$AAk?$AAa?$AA2?$AAP?$AAr?$AAo?$AAj?$AAe?$AAc?$AAt@
  00058	68 00 00 00 00	 push	 OFFSET ??_C@_1BK@FMEHPMFE@?$AAm?$AAs?$AA_?$AAs?$AAi?$AAn?$AAg?$AAl?$AAe?$AAt?$AAo?$AAn@
  0005d	e8 00 00 00 00	 call	 __wassert
  00062	8b 0d 00 00 00
	00		 mov	 ecx, DWORD PTR ?ms_singleton@?$CSingleton@VCPythonChat@@@@0PAVCPythonChat@@A ; CSingleton<CPythonChat>::ms_singleton
  00068	83 c4 0c	 add	 esp, 12			; 0000000cH
$LN13@CheckShort:
; File C:\Anka2Project\Anka2Project\Source\Binary\source\UserInterface\PythonPlayerSkill.cpp

; 355  : 			CPythonChat::Instance().AppendChat(CHAT_TYPE_INFO, "!!! Find strange game data. Please reinstall metin2.");

  0006b	8b 41 04	 mov	 eax, DWORD PTR [ecx+4]
  0006e	83 c1 04	 add	 ecx, 4
  00071	68 00 00 00 00	 push	 OFFSET ??_C@_0DF@OHCKPFBO@?$CB?$CB?$CB?5Find?5strange?5game?5data?4?5Ple@
  00076	6a 01		 push	 1
  00078	ff 50 04	 call	 DWORD PTR [eax+4]

; 356  : 			return true;

  0007b	b0 01		 mov	 al, 1

; 370  : 	}
; 371  : 
; 372  : 	return false;
; 373  : }

  0007d	5f		 pop	 edi
  0007e	5e		 pop	 esi
  0007f	5b		 pop	 ebx
  00080	59		 pop	 ecx
  00081	5d		 pop	 ebp
  00082	c2 08 00	 ret	 8
$LN4@CheckShort:

; 357  : 		}
; 358  : 	}
; 359  : 
; 360  : 	if (rkSkillData.CanUseIfNotEnough())

  00085	e8 00 00 00 00	 call	 ?CanUseIfNotEnough@SSkillData@CPythonSkill@@QAEHXZ ; CPythonSkill::SSkillData::CanUseIfNotEnough
  0008a	85 c0		 test	 eax, eax
  0008c	74 0e		 je	 SHORT $LN5@CheckShort

; 361  : 	{
; 362  : 		if (icurSP <= 0)

  0008e	85 d2		 test	 edx, edx
  00090	7f 1c		 jg	 SHORT $LN9@CheckShort

; 369  : 				return true;

  00092	b0 01		 mov	 al, 1

; 370  : 	}
; 371  : 
; 372  : 	return false;
; 373  : }

  00094	5f		 pop	 edi
  00095	5e		 pop	 esi
  00096	5b		 pop	 ebx
  00097	59		 pop	 ecx
  00098	5d		 pop	 ebp
  00099	c2 08 00	 ret	 8
$LN5@CheckShort:

; 363  : 			return true;
; 364  : 	}
; 365  : 	else
; 366  : 	{
; 367  : 		if (-1 != iNeedSP)

  0009c	83 fe ff	 cmp	 esi, -1
  0009f	74 0d		 je	 SHORT $LN9@CheckShort

; 368  : 			if (iNeedSP > icurSP)

  000a1	3b f2		 cmp	 esi, edx
  000a3	0f 9f c0	 setg	 al

; 370  : 	}
; 371  : 
; 372  : 	return false;
; 373  : }

  000a6	5f		 pop	 edi
  000a7	5e		 pop	 esi
  000a8	5b		 pop	 ebx
  000a9	59		 pop	 ecx
  000aa	5d		 pop	 ebp
  000ab	c2 08 00	 ret	 8
$LN9@CheckShort:
  000ae	5f		 pop	 edi
  000af	5e		 pop	 esi
  000b0	32 c0		 xor	 al, al
  000b2	5b		 pop	 ebx
  000b3	59		 pop	 ecx
  000b4	5d		 pop	 ebp
  000b5	c2 08 00	 ret	 8
?__CheckShortMana@CPythonPlayer@@IAE_NAAUSSkillInstance@1@AAUSSkillData@CPythonSkill@@@Z ENDP ; CPythonPlayer::__CheckShortMana
_TEXT	ENDS
; Function compile flags: /Ogtp
; File C:\Anka2Project\Anka2Project\Source\Binary\source\UserInterface\PythonPlayerSkill.cpp
; File C:\Anka2Project\Anka2Project\Source\Binary\source\eterBase\Singleton.h
; File C:\Anka2Project\Anka2Project\Source\Binary\source\UserInterface\PythonPlayerSkill.cpp
; File C:\Anka2Project\Anka2Project\Source\Binary\source\eterBase\Singleton.h
; File C:\Anka2Project\Anka2Project\Source\Binary\source\UserInterface\PythonPlayerSkill.cpp
; File C:\Anka2Project\Anka2Project\Source\Binary\source\eterBase\Singleton.h
; File C:\Anka2Project\Anka2Project\Source\Binary\source\UserInterface\PythonPlayerSkill.cpp
;	COMDAT ?__RunCoolTime@CPythonPlayer@@IAEXK@Z
_TEXT	SEGMENT
_pkSkillData$ = -4					; size = 4
_dwSkillSlotIndex$ = 8					; size = 4
?__RunCoolTime@CPythonPlayer@@IAEXK@Z PROC		; CPythonPlayer::__RunCoolTime, COMDAT
; _this$ = ecx

; 822  : {

  00000	55		 push	 ebp
  00001	8b ec		 mov	 ebp, esp
  00003	83 e4 c0	 and	 esp, -64		; ffffffc0H
  00006	83 ec 34	 sub	 esp, 52			; 00000034H
  00009	53		 push	 ebx
  0000a	56		 push	 esi
  0000b	57		 push	 edi

; 823  : 	TSkillInstance & rkSkillInst = m_playerStatus.aSkill[dwSkillSlotIndex];

  0000c	8b 7d 08	 mov	 edi, DWORD PTR _dwSkillSlotIndex$[ebp]
  0000f	8b f1		 mov	 esi, ecx
; File C:\Anka2Project\Anka2Project\Source\Binary\source\eterBase\Singleton.h

; 26   : 		assert(ms_singleton);

  00011	8b 0d 00 00 00
	00		 mov	 ecx, DWORD PTR ?ms_singleton@?$CSingleton@VCPythonSkill@@@@0PAVCPythonSkill@@A ; CSingleton<CPythonSkill>::ms_singleton
; File C:\Anka2Project\Anka2Project\Source\Binary\source\UserInterface\PythonPlayerSkill.cpp

; 823  : 	TSkillInstance & rkSkillInst = m_playerStatus.aSkill[dwSkillSlotIndex];

  00017	8d 1c bf	 lea	 ebx, DWORD PTR [edi+edi*4]
; File C:\Anka2Project\Anka2Project\Source\Binary\source\eterBase\Singleton.h

; 26   : 		assert(ms_singleton);

  0001a	85 c9		 test	 ecx, ecx
  0001c	75 1a		 jne	 SHORT $LN10@RunCoolTim
  0001e	6a 1a		 push	 26			; 0000001aH
  00020	68 00 00 00 00	 push	 OFFSET ??_C@_1IO@CAJLEEOI@?$AAC?$AA?3?$AA?2?$AAA?$AAn?$AAk?$AAa?$AA2?$AAP?$AAr?$AAo?$AAj?$AAe?$AAc?$AAt@
  00025	68 00 00 00 00	 push	 OFFSET ??_C@_1BK@FMEHPMFE@?$AAm?$AAs?$AA_?$AAs?$AAi?$AAn?$AAg?$AAl?$AAe?$AAt?$AAo?$AAn@
  0002a	e8 00 00 00 00	 call	 __wassert
  0002f	8b 0d 00 00 00
	00		 mov	 ecx, DWORD PTR ?ms_singleton@?$CSingleton@VCPythonSkill@@@@0PAVCPythonSkill@@A ; CSingleton<CPythonSkill>::ms_singleton
  00035	83 c4 0c	 add	 esp, 12			; 0000000cH
$LN10@RunCoolTim:
; File C:\Anka2Project\Anka2Project\Source\Binary\source\UserInterface\PythonPlayerSkill.cpp

; 826  : 	if (!CPythonSkill::Instance().GetSkillData(rkSkillInst.dwIndex, &pkSkillData))

  00038	8d 44 24 3c	 lea	 eax, DWORD PTR _pkSkillData$[esp+64]
  0003c	50		 push	 eax
  0003d	ff b4 de 04 83
	01 00		 push	 DWORD PTR [esi+ebx*8+99076]
  00044	e8 00 00 00 00	 call	 ?GetSkillData@CPythonSkill@@QAEHKPAPAUSSkillData@1@@Z ; CPythonSkill::GetSkillData
  00049	85 c0		 test	 eax, eax
  0004b	75 17		 jne	 SHORT $LN2@RunCoolTim

; 827  : 	{
; 828  : 		TraceError("CPythonPlayer::__SendUseSkill(dwSkillSlotIndex=%d) - NOT CHECK", dwSkillSlotIndex);

  0004d	57		 push	 edi
  0004e	68 00 00 00 00	 push	 OFFSET ??_C@_0DP@EKGIGFIO@CPythonPlayer?3?3__SendUseSkill?$CId@
  00053	e8 00 00 00 00	 call	 ?TraceError@@YAXPBDZZ	; TraceError
  00058	83 c4 08	 add	 esp, 8

; 848  : }

  0005b	5f		 pop	 edi
  0005c	5e		 pop	 esi
  0005d	5b		 pop	 ebx
  0005e	8b e5		 mov	 esp, ebp
  00060	5d		 pop	 ebp
  00061	c2 04 00	 ret	 4
$LN2@RunCoolTim:

; 829  : 		return;
; 830  : 	}
; 831  : 
; 832  : 	CPythonSkill::TSkillData& rkSkillData=*pkSkillData;
; 833  : 
; 834  : 	rkSkillInst.fCoolTime = rkSkillData.GetSkillCoolTime(rkSkillInst.fcurEfficientPercentage);

  00064	f3 0f 10 8c de
	14 83 01 00	 movss	 xmm1, DWORD PTR [esi+ebx*8+99092]
  0006d	8b 4c 24 3c	 mov	 ecx, DWORD PTR _pkSkillData$[esp+64]
  00071	e8 00 00 00 00	 call	 ?GetSkillCoolTime@SSkillData@CPythonSkill@@QAEKM@Z ; CPythonSkill::SSkillData::GetSkillCoolTime
  00076	66 0f 6e c0	 movd	 xmm0, eax
  0007a	f3 0f e6 c0	 cvtdq2pd xmm0, xmm0
  0007e	c1 e8 1f	 shr	 eax, 31			; 0000001fH
  00081	f2 0f 58 04 c5
	00 00 00 00	 addsd	 xmm0, QWORD PTR __xmm@41f00000000000000000000000000000[eax*8]
  0008a	66 0f 5a c0	 cvtpd2ps xmm0, xmm0
  0008e	f3 0f 11 84 de
	20 83 01 00	 movss	 DWORD PTR [esi+ebx*8+99104], xmm0
; File C:\Anka2Project\Anka2Project\Source\Binary\source\eterBase\Singleton.h

; 26   : 		assert(ms_singleton);

  00097	8b 0d 00 00 00
	00		 mov	 ecx, DWORD PTR ?ms_singleton@?$CSingleton@VCTimer@@@@0PAVCTimer@@A ; CSingleton<CTimer>::ms_singleton
  0009d	85 c9		 test	 ecx, ecx
  0009f	75 1a		 jne	 SHORT $LN13@RunCoolTim
  000a1	6a 1a		 push	 26			; 0000001aH
  000a3	68 00 00 00 00	 push	 OFFSET ??_C@_1IO@CAJLEEOI@?$AAC?$AA?3?$AA?2?$AAA?$AAn?$AAk?$AAa?$AA2?$AAP?$AAr?$AAo?$AAj?$AAe?$AAc?$AAt@
  000a8	68 00 00 00 00	 push	 OFFSET ??_C@_1BK@FMEHPMFE@?$AAm?$AAs?$AA_?$AAs?$AAi?$AAn?$AAg?$AAl?$AAe?$AAt?$AAo?$AAn@
  000ad	e8 00 00 00 00	 call	 __wassert
  000b2	8b 0d 00 00 00
	00		 mov	 ecx, DWORD PTR ?ms_singleton@?$CSingleton@VCTimer@@@@0PAVCTimer@@A ; CSingleton<CTimer>::ms_singleton
  000b8	83 c4 0c	 add	 esp, 12			; 0000000cH
$LN13@RunCoolTim:
; File C:\Anka2Project\Anka2Project\Source\Binary\source\UserInterface\PythonPlayerSkill.cpp

; 835  : 	rkSkillInst.fLastUsedTime = CTimer::Instance().GetCurrentSecond();

  000bb	e8 00 00 00 00	 call	 ?GetCurrentSecond@CTimer@@QAEMXZ ; CTimer::GetCurrentSecond

; 836  : 
; 837  : 	int iSpd = 100 - GetStatus(POINT_CASTING_SPEED);

  000c0	8d 4e 04	 lea	 ecx, DWORD PTR [esi+4]
  000c3	d9 9c de 24 83
	01 00		 fstp	 DWORD PTR [esi+ebx*8+99108]
  000ca	8b 01		 mov	 eax, DWORD PTR [ecx]
  000cc	6a 15		 push	 21			; 00000015H
  000ce	8b 40 10	 mov	 eax, DWORD PTR [eax+16]
  000d1	ff d0		 call	 eax
  000d3	8b c8		 mov	 ecx, eax
  000d5	b8 64 00 00 00	 mov	 eax, 100		; 00000064H
  000da	2b c1		 sub	 eax, ecx

; 838  : 	if (iSpd > 0)

  000dc	85 c0		 test	 eax, eax
  000de	7e 05		 jle	 SHORT $LN14@RunCoolTim

; 839  : 		iSpd = 100 + iSpd;

  000e0	83 c0 64	 add	 eax, 100		; 00000064H
  000e3	eb 11		 jmp	 SHORT $LN6@RunCoolTim
$LN14@RunCoolTim:

; 840  : 	else if (iSpd < 0)

  000e5	79 0a		 jns	 SHORT $LN5@RunCoolTim

; 841  : 		iSpd = 10000 / (100 - iSpd);

  000e7	b8 10 27 00 00	 mov	 eax, 10000		; 00002710H
  000ec	99		 cdq
  000ed	f7 f9		 idiv	 ecx
  000ef	eb 05		 jmp	 SHORT $LN6@RunCoolTim
$LN5@RunCoolTim:

; 842  : 	else
; 843  : 		iSpd = 100;

  000f1	b8 64 00 00 00	 mov	 eax, 100		; 00000064H
$LN6@RunCoolTim:
  000f6	66 0f 6e c0	 movd	 xmm0, eax

; 844  : 
; 845  : 	rkSkillInst.fCoolTime = rkSkillInst.fCoolTime * iSpd / 100;
; 846  : 
; 847  : 	PyCallClassMemberFunc(m_ppyGameWindow, "RunUseSkillEvent", Py_BuildValue("(if)", dwSkillSlotIndex, rkSkillInst.fCoolTime));

  000fa	83 ec 08	 sub	 esp, 8
  000fd	0f 5b c0	 cvtdq2ps xmm0, xmm0
  00100	f3 0f 59 84 de
	20 83 01 00	 mulss	 xmm0, DWORD PTR [esi+ebx*8+99104]
  00109	f3 0f 5e 05 00
	00 00 00	 divss	 xmm0, DWORD PTR __real@42c80000
  00111	f3 0f 11 84 de
	20 83 01 00	 movss	 DWORD PTR [esi+ebx*8+99104], xmm0
  0011a	0f 5a c0	 cvtps2pd xmm0, xmm0
  0011d	f2 0f 11 04 24	 movsd	 QWORD PTR [esp], xmm0
  00122	57		 push	 edi
  00123	68 00 00 00 00	 push	 OFFSET ??_C@_04IGFOPMNH@?$CIif?$CJ@
  00128	ff 15 00 00 00
	00		 call	 DWORD PTR __imp__Py_BuildValue
  0012e	50		 push	 eax
  0012f	68 00 00 00 00	 push	 OFFSET ??_C@_0BB@GJACMMFG@RunUseSkillEvent@
  00134	ff 76 08	 push	 DWORD PTR [esi+8]
  00137	e8 00 00 00 00	 call	 ?PyCallClassMemberFunc@@YA_NPAU_object@@PBD0@Z ; PyCallClassMemberFunc
  0013c	83 c4 1c	 add	 esp, 28			; 0000001cH

; 848  : }

  0013f	5f		 pop	 edi
  00140	5e		 pop	 esi
  00141	5b		 pop	 ebx
  00142	8b e5		 mov	 esp, ebp
  00144	5d		 pop	 ebp
  00145	c2 04 00	 ret	 4
?__RunCoolTime@CPythonPlayer@@IAEXK@Z ENDP		; CPythonPlayer::__RunCoolTime
_TEXT	ENDS
; Function compile flags: /Ogtp
; File C:\Anka2Project\Anka2Project\Source\Binary\source\UserInterface\PythonPlayerSkill.cpp
; File C:\Anka2Project\Anka2Project\Source\Binary\source\eterBase\Singleton.h
; File C:\Anka2Project\Anka2Project\Source\Binary\source\UserInterface\PythonPlayerSkill.cpp
;	COMDAT ?__CheckSpecialSkill@CPythonPlayer@@IAE_NK@Z
_TEXT	SEGMENT
_dwSkillIndex$ = 8					; size = 4
_dwSlotIndex$2 = 8					; size = 4
?__CheckSpecialSkill@CPythonPlayer@@IAE_NK@Z PROC	; CPythonPlayer::__CheckSpecialSkill, COMDAT
; _this$ = ecx

; 973  : {

  00000	55		 push	 ebp
  00001	8b ec		 mov	 ebp, esp
  00003	51		 push	 ecx
  00004	56		 push	 esi
  00005	8b f1		 mov	 esi, ecx
  00007	57		 push	 edi

; 974  : 	CInstanceBase* pkInstMain = NEW_GetMainActorPtr();

  00008	8b 46 04	 mov	 eax, DWORD PTR [esi+4]
  0000b	8d 4e 04	 lea	 ecx, DWORD PTR [esi+4]
  0000e	ff 90 8c 00 00
	00		 call	 DWORD PTR [eax+140]

; 975  : 	if (!pkInstMain)

  00014	85 c0		 test	 eax, eax
  00016	0f 84 be 00 00
	00		 je	 $LN7@CheckSpeci

; 976  : 		return false;
; 977  : 
; 978  : 	// Fishing
; 979  : 	if (c_iSkillIndex_Fishing == dwSkillIndex)

  0001c	8b 4d 08	 mov	 ecx, DWORD PTR _dwSkillIndex$[ebp]
  0001f	83 f9 7b	 cmp	 ecx, 123		; 0000007bH
  00022	75 22		 jne	 SHORT $LN3@CheckSpeci

; 980  : 	{
; 981  : 		if (pkInstMain->IsFishingMode())

  00024	8b c8		 mov	 ecx, eax
  00026	e8 00 00 00 00	 call	 ?IsFishingMode@CInstanceBase@@QAEHXZ ; CInstanceBase::IsFishingMode
  0002b	85 c0		 test	 eax, eax
  0002d	74 10		 je	 SHORT $LN5@CheckSpeci

; 982  : 		{
; 983  : 			NEW_Fishing();

  0002f	8b ce		 mov	 ecx, esi
  00031	e8 00 00 00 00	 call	 ?NEW_Fishing@CPythonPlayer@@QAEXXZ ; CPythonPlayer::NEW_Fishing

; 1007 : 		}
; 1008 : 
; 1009 : 		return true;

  00036	b0 01		 mov	 al, 1

; 1010 : 	}
; 1011 : 
; 1012 : 	return false;
; 1013 : }

  00038	5f		 pop	 edi
  00039	5e		 pop	 esi
  0003a	59		 pop	 ecx
  0003b	5d		 pop	 ebp
  0003c	c2 04 00	 ret	 4
$LN5@CheckSpeci:

; 984  : 		}
; 985  : 		else
; 986  : 		{
; 987  : 			PyCallClassMemberFunc(m_ppyGameWindow, "OnCannotUseSkill", Py_BuildValue("(is)", GetMainCharacterIndex(), "EQUIP_FISHING_ROD"));

  0003f	68 00 00 00 00	 push	 OFFSET ??_C@_0BC@ENEHNNJB@EQUIP_FISHING_ROD@

; 994  : 	{
; 995  : 		DWORD dwSlotIndex;
; 996  : 		if (!GetSkillSlotIndex(dwSkillIndex, &dwSlotIndex))

  00044	eb 62		 jmp	 SHORT $LN17@CheckSpeci
$LN3@CheckSpeci:

; 988  : 		}
; 989  : 		return true;
; 990  : 	}
; 991  : 
; 992  : 	// Combo
; 993  : 	else if (c_iSkillIndex_Combo == dwSkillIndex)

  00046	83 f9 7a	 cmp	 ecx, 122		; 0000007aH
  00049	0f 85 8b 00 00
	00		 jne	 $LN7@CheckSpeci

; 994  : 	{
; 995  : 		DWORD dwSlotIndex;
; 996  : 		if (!GetSkillSlotIndex(dwSkillIndex, &dwSlotIndex))

  0004f	8d 45 08	 lea	 eax, DWORD PTR _dwSlotIndex$2[ebp]
  00052	50		 push	 eax
  00053	51		 push	 ecx
  00054	8b ce		 mov	 ecx, esi
  00056	e8 00 00 00 00	 call	 ?GetSkillSlotIndex@CPythonPlayer@@QAE_NKPAK@Z ; CPythonPlayer::GetSkillSlotIndex
  0005b	84 c0		 test	 al, al
  0005d	74 7b		 je	 SHORT $LN7@CheckSpeci

; 997  : 			return false;
; 998  : 
; 999  : 		int iLevel = GetSkillLevel(dwSlotIndex);

  0005f	ff 75 08	 push	 DWORD PTR _dwSlotIndex$2[ebp]
  00062	8b ce		 mov	 ecx, esi
  00064	e8 00 00 00 00	 call	 ?GetSkillLevel@CPythonPlayer@@QAEHK@Z ; CPythonPlayer::GetSkillLevel

; 1000 : 		if (iLevel > 0)

  00069	85 c0		 test	 eax, eax
  0006b	7e 36		 jle	 SHORT $LN9@CheckSpeci
; File C:\Anka2Project\Anka2Project\Source\Binary\source\eterBase\Singleton.h

; 26   : 		assert(ms_singleton);

  0006d	8b 0d 00 00 00
	00		 mov	 ecx, DWORD PTR ?ms_singleton@?$CSingleton@VCPythonNetworkStream@@@@0PAVCPythonNetworkStream@@A ; CSingleton<CPythonNetworkStream>::ms_singleton
  00073	85 c9		 test	 ecx, ecx
  00075	75 1a		 jne	 SHORT $LN14@CheckSpeci
  00077	6a 1a		 push	 26			; 0000001aH
  00079	68 00 00 00 00	 push	 OFFSET ??_C@_1IO@CAJLEEOI@?$AAC?$AA?3?$AA?2?$AAA?$AAn?$AAk?$AAa?$AA2?$AAP?$AAr?$AAo?$AAj?$AAe?$AAc?$AAt@
  0007e	68 00 00 00 00	 push	 OFFSET ??_C@_1BK@FMEHPMFE@?$AAm?$AAs?$AA_?$AAs?$AAi?$AAn?$AAg?$AAl?$AAe?$AAt?$AAo?$AAn@
  00083	e8 00 00 00 00	 call	 __wassert
  00088	8b 0d 00 00 00
	00		 mov	 ecx, DWORD PTR ?ms_singleton@?$CSingleton@VCPythonNetworkStream@@@@0PAVCPythonNetworkStream@@A ; CSingleton<CPythonNetworkStream>::ms_singleton
  0008e	83 c4 0c	 add	 esp, 12			; 0000000cH
$LN14@CheckSpeci:
; File C:\Anka2Project\Anka2Project\Source\Binary\source\UserInterface\PythonPlayerSkill.cpp

; 1002 : 			CPythonNetworkStream::Instance().SendUseSkillPacket(dwSkillIndex);

  00091	6a 00		 push	 0
  00093	6a 7a		 push	 122			; 0000007aH
  00095	e8 00 00 00 00	 call	 ?SendUseSkillPacket@CPythonNetworkStream@@QAE_NKK@Z ; CPythonNetworkStream::SendUseSkillPacket

; 1007 : 		}
; 1008 : 
; 1009 : 		return true;

  0009a	b0 01		 mov	 al, 1

; 1010 : 	}
; 1011 : 
; 1012 : 	return false;
; 1013 : }

  0009c	5f		 pop	 edi
  0009d	5e		 pop	 esi
  0009e	59		 pop	 ecx
  0009f	5d		 pop	 ebp
  000a0	c2 04 00	 ret	 4
$LN9@CheckSpeci:

; 1003 : 		}
; 1004 : 		else
; 1005 : 		{
; 1006 : 			PyCallClassMemberFunc(m_ppyGameWindow, "OnCannotUseSkill", Py_BuildValue("(is)", GetMainCharacterIndex(), "NOT_YET_LEARN"));

  000a3	68 00 00 00 00	 push	 OFFSET ??_C@_0O@PFLGBNMN@NOT_YET_LEARN@
$LN17@CheckSpeci:

; 1007 : 		}
; 1008 : 
; 1009 : 		return true;

  000a8	8b 46 04	 mov	 eax, DWORD PTR [esi+4]
  000ab	8d 4e 04	 lea	 ecx, DWORD PTR [esi+4]
  000ae	ff 50 04	 call	 DWORD PTR [eax+4]
  000b1	50		 push	 eax
  000b2	68 00 00 00 00	 push	 OFFSET ??_C@_04JMLDJNEM@?$CIis?$CJ@
  000b7	ff 15 00 00 00
	00		 call	 DWORD PTR __imp__Py_BuildValue
  000bd	83 c4 0c	 add	 esp, 12			; 0000000cH
  000c0	50		 push	 eax
  000c1	68 00 00 00 00	 push	 OFFSET ??_C@_0BB@BOHMBBJL@OnCannotUseSkill@
  000c6	ff 76 08	 push	 DWORD PTR [esi+8]
  000c9	e8 00 00 00 00	 call	 ?PyCallClassMemberFunc@@YA_NPAU_object@@PBD0@Z ; PyCallClassMemberFunc
  000ce	83 c4 0c	 add	 esp, 12			; 0000000cH
  000d1	b0 01		 mov	 al, 1

; 1010 : 	}
; 1011 : 
; 1012 : 	return false;
; 1013 : }

  000d3	5f		 pop	 edi
  000d4	5e		 pop	 esi
  000d5	59		 pop	 ecx
  000d6	5d		 pop	 ebp
  000d7	c2 04 00	 ret	 4
$LN7@CheckSpeci:
  000da	5f		 pop	 edi
  000db	32 c0		 xor	 al, al
  000dd	5e		 pop	 esi
  000de	59		 pop	 ecx
  000df	5d		 pop	 ebp
  000e0	c2 04 00	 ret	 4
?__CheckSpecialSkill@CPythonPlayer@@IAE_NK@Z ENDP	; CPythonPlayer::__CheckSpecialSkill
_TEXT	ENDS
END
