; Listing generated by Microsoft (R) Optimizing Compiler Version 19.44.35219.0 

	TITLE	c:\anka2project\anka2project\source\binary\vs_files\userinterface\release\pythonexceptionsender.obj
	.686P
	.XMM
	include listing.inc
	.model	flat

INCLUDELIB OLDNAMES

PUBLIC	??_R2CPythonExceptionSender@@8			; CPythonExceptionSender::`RTTI Base Class Array'
PUBLIC	??_R2IPythonExceptionSender@@8			; IPythonExceptionSender::`RTTI Base Class Array'
PUBLIC	??_R1A@?0A@EA@CPythonExceptionSender@@8		; CPythonExceptionSender::`RTTI Base Class Descriptor at (0,-1,0,64)'
PUBLIC	??_R1A@?0A@EA@IPythonExceptionSender@@8		; IPythonExceptionSender::`RTTI Base Class Descriptor at (0,-1,0,64)'
PUBLIC	??_R3CPythonExceptionSender@@8			; CPythonExceptionSender::`RTTI Class Hierarchy Descriptor'
PUBLIC	??_R0?AVCPythonExceptionSender@@@8		; CPythonExceptionSender `RTTI Type Descriptor'
PUBLIC	??_R3IPythonExceptionSender@@8			; IPythonExceptionSender::`RTTI Class Hierarchy Descriptor'
PUBLIC	??_R0?AVIPythonExceptionSender@@@8		; IPythonExceptionSender `RTTI Type Descriptor'
PUBLIC	??_R4CPythonExceptionSender@@6B@		; CPythonExceptionSender::`RTTI Complete Object Locator'
PUBLIC	??_R4IPythonExceptionSender@@6B@		; IPythonExceptionSender::`RTTI Complete Object Locator'
PUBLIC	??_7IPythonExceptionSender@@6B@			; IPythonExceptionSender::`vftable'
PUBLIC	??_7CPythonExceptionSender@@6B@			; CPythonExceptionSender::`vftable'
;	COMDAT ??_7CPythonExceptionSender@@6B@
CONST	SEGMENT
??_7CPythonExceptionSender@@6B@ DD FLAT:??_R4CPythonExceptionSender@@6B@ ; CPythonExceptionSender::`vftable'
	DD	FLAT:?Send@CPythonExceptionSender@@UAEXXZ
	DD	FLAT:??_ECPythonExceptionSender@@UAEPAXI@Z
CONST	ENDS
;	COMDAT ??_7IPythonExceptionSender@@6B@
CONST	SEGMENT
??_7IPythonExceptionSender@@6B@ DD FLAT:??_R4IPythonExceptionSender@@6B@ ; IPythonExceptionSender::`vftable'
	DD	FLAT:__purecall
CONST	ENDS
;	COMDAT ??_R4IPythonExceptionSender@@6B@
rdata$r	SEGMENT
??_R4IPythonExceptionSender@@6B@ DD 00H			; IPythonExceptionSender::`RTTI Complete Object Locator'
	DD	00H
	DD	00H
	DD	FLAT:??_R0?AVIPythonExceptionSender@@@8
	DD	FLAT:??_R3IPythonExceptionSender@@8
rdata$r	ENDS
;	COMDAT ??_R4CPythonExceptionSender@@6B@
rdata$r	SEGMENT
??_R4CPythonExceptionSender@@6B@ DD 00H			; CPythonExceptionSender::`RTTI Complete Object Locator'
	DD	00H
	DD	00H
	DD	FLAT:??_R0?AVCPythonExceptionSender@@@8
	DD	FLAT:??_R3CPythonExceptionSender@@8
rdata$r	ENDS
;	COMDAT ??_R0?AVIPythonExceptionSender@@@8
data$rs	SEGMENT
??_R0?AVIPythonExceptionSender@@@8 DD FLAT:??_7type_info@@6B@ ; IPythonExceptionSender `RTTI Type Descriptor'
	DD	00H
	DB	'.?AVIPythonExceptionSender@@', 00H
data$rs	ENDS
;	COMDAT ??_R3IPythonExceptionSender@@8
rdata$r	SEGMENT
??_R3IPythonExceptionSender@@8 DD 00H			; IPythonExceptionSender::`RTTI Class Hierarchy Descriptor'
	DD	00H
	DD	01H
	DD	FLAT:??_R2IPythonExceptionSender@@8
rdata$r	ENDS
;	COMDAT ??_R0?AVCPythonExceptionSender@@@8
data$rs	SEGMENT
??_R0?AVCPythonExceptionSender@@@8 DD FLAT:??_7type_info@@6B@ ; CPythonExceptionSender `RTTI Type Descriptor'
	DD	00H
	DB	'.?AVCPythonExceptionSender@@', 00H
data$rs	ENDS
;	COMDAT ??_R3CPythonExceptionSender@@8
rdata$r	SEGMENT
??_R3CPythonExceptionSender@@8 DD 00H			; CPythonExceptionSender::`RTTI Class Hierarchy Descriptor'
	DD	00H
	DD	02H
	DD	FLAT:??_R2CPythonExceptionSender@@8
rdata$r	ENDS
;	COMDAT ??_R1A@?0A@EA@IPythonExceptionSender@@8
rdata$r	SEGMENT
??_R1A@?0A@EA@IPythonExceptionSender@@8 DD FLAT:??_R0?AVIPythonExceptionSender@@@8 ; IPythonExceptionSender::`RTTI Base Class Descriptor at (0,-1,0,64)'
	DD	00H
	DD	00H
	DD	0ffffffffH
	DD	00H
	DD	040H
	DD	FLAT:??_R3IPythonExceptionSender@@8
rdata$r	ENDS
;	COMDAT ??_R1A@?0A@EA@CPythonExceptionSender@@8
rdata$r	SEGMENT
??_R1A@?0A@EA@CPythonExceptionSender@@8 DD FLAT:??_R0?AVCPythonExceptionSender@@@8 ; CPythonExceptionSender::`RTTI Base Class Descriptor at (0,-1,0,64)'
	DD	01H
	DD	00H
	DD	0ffffffffH
	DD	00H
	DD	040H
	DD	FLAT:??_R3CPythonExceptionSender@@8
rdata$r	ENDS
;	COMDAT ??_R2IPythonExceptionSender@@8
rdata$r	SEGMENT
??_R2IPythonExceptionSender@@8 DD FLAT:??_R1A@?0A@EA@IPythonExceptionSender@@8 ; IPythonExceptionSender::`RTTI Base Class Array'
rdata$r	ENDS
;	COMDAT ??_R2CPythonExceptionSender@@8
rdata$r	SEGMENT
??_R2CPythonExceptionSender@@8 DD FLAT:??_R1A@?0A@EA@CPythonExceptionSender@@8 ; CPythonExceptionSender::`RTTI Base Class Array'
	DD	FLAT:??_R1A@?0A@EA@IPythonExceptionSender@@8
PUBLIC	??1CPythonExceptionSender@@UAE@XZ		; CPythonExceptionSender::~CPythonExceptionSender
PUBLIC	??1IPythonExceptionSender@@QAE@XZ		; IPythonExceptionSender::~IPythonExceptionSender
PUBLIC	??0IPythonExceptionSender@@QAE@XZ		; IPythonExceptionSender::IPythonExceptionSender
PUBLIC	??_GCPythonExceptionSender@@UAEPAXI@Z		; CPythonExceptionSender::`scalar deleting destructor'
PUBLIC	??0CPythonExceptionSender@@QAE@XZ		; CPythonExceptionSender::CPythonExceptionSender
PUBLIC	?Send@CPythonExceptionSender@@UAEXXZ		; CPythonExceptionSender::Send
EXTRN	??_ECPythonExceptionSender@@UAEPAXI@Z:PROC	; CPythonExceptionSender::`vector deleting destructor'
;	COMDAT xdata$x
xdata$x	SEGMENT
__ehfuncinfo$??0CPythonExceptionSender@@QAE@XZ DQ 00000000119930522r ; 2.33398e-314
	DD	FLAT:__unwindtable$??0CPythonExceptionSender@@QAE@XZ
	DQ	00000000000000000r		; 0
	DQ	00000000000000000r		; 0
	DQ	00000000100000000r		; 2.122e-314
__unwindtable$??0CPythonExceptionSender@@QAE@XZ DD 0ffffffffH
	DD	FLAT:__unwindfunclet$??0CPythonExceptionSender@@QAE@XZ$0
END
