; Listing generated by Microsoft (R) Optimizing Compiler Version 19.44.35219.0 

	TITLE	c:\anka2project\anka2project\source\binary\vs_files\userinterface\release\pythonsystemmodule.obj
	.686P
	.XMM
	include listing.inc
	.model	flat

INCLUDELIB OLDNAMES

PUBLIC	??_C@_0BE@LHLPPLCA@SetInterfaceHandler@		; `string'
PUBLIC	??_C@_08OMBILDHM@GetWidth@			; `string'
PUBLIC	??_C@_0BA@DGMEINM@ReserveResource@		; `string'
PUBLIC	??_C@_0BI@NBDOAHCB@DestroyInterfaceHandler@	; `string'
PUBLIC	??_C@_0BB@DOCGKHHO@SaveWindowStatus@		; `string'
PUBLIC	??_C@_0BC@GGDBAEOO@isInterfaceConfig@		; `string'
PUBLIC	??_C@_0BD@PNJEEMA@GetResolutionCount@		; `string'
PUBLIC	??_C@_0BA@OIPDIACO@GetWindowStatus@		; `string'
PUBLIC	??_C@_0BF@GJHGOKBH@GetCurrentResolution@	; `string'
PUBLIC	??_C@_0BC@MMLDLJCA@GetFrequencyCount@		; `string'
PUBLIC	??_C@_0N@DEDCKOKK@GetFrequency@			; `string'
PUBLIC	??_C@_0O@MCJGAEI@GetResolution@			; `string'
PUBLIC	??_C@_09KJAMEPBE@SetConfig@			; `string'
PUBLIC	??_C@_0M@PHHLFDDI@ApplyConfig@			; `string'
PUBLIC	??_C@_09IHEJGOIG@GetConfig@			; `string'
PUBLIC	??_C@_0L@IJAHDAKP@SaveConfig@			; `string'
PUBLIC	??_C@_08ILEIELBI@isSaveID@			; `string'
PUBLIC	??_C@_09DABJPAIG@SetSaveID@			; `string'
PUBLIC	??_C@_0P@HIIHPFML@GetMusicVolume@		; `string'
PUBLIC	??_C@_09BOFMNBBE@GetSaveID@			; `string'
PUBLIC	??_C@_0BB@BFMNFHIM@IsSoftwareCursor@		; `string'
PUBLIC	??_C@_0P@LCENEDPB@GetSoundVolume@		; `string'
PUBLIC	??_C@_0L@MGMBGKCF@IsViewChat@			; `string'
PUBLIC	??_C@_0BA@MFKECAML@SetViewChatFlag@		; `string'
PUBLIC	??_C@_0BB@NKNDCIFA@IsAlwaysShowName@		; `string'
PUBLIC	??_C@_0BG@GMBDCOC@SetAlwaysShowNameFlag@	; `string'
PUBLIC	??_C@_0N@FLKCLECP@IsShowDamage@			; `string'
PUBLIC	??_C@_0BC@JHKGLKC@SetShowDamageFlag@		; `string'
PUBLIC	??_C@_0BA@GPLIEFHC@IsShowSalesText@		; `string'
PUBLIC	??_C@_0BF@IKKCKDDD@SetShowSalesTextFlag@	; `string'
PUBLIC	??_C@_0L@PMCKOHOM@SetFogMode@			; `string'
PUBLIC	??_C@_0P@FFPBIDPG@GetShadowLevel@		; `string'
PUBLIC	??_C@_0BF@BNPEAANC@SetENBModeStatusFlag@	; `string'
PUBLIC	??_C@_09KEHLALME@IsFogMode@			; `string'
PUBLIC	??_C@_0BD@HJAMJMPF@GetNightModeOption@		; `string'
PUBLIC	??_C@_0BA@JJFEPBJE@IsENBModeStatus@		; `string'
PUBLIC	??_C@_0BC@BPEHENJ@GetSnowModeOption@		; `string'
PUBLIC	??_C@_0BC@CEPPPPMH@SetSnowModeOption@		; `string'
PUBLIC	??_C@_0BJ@NHIMEOE@GetSnowTextureModeOption@	; `string'
PUBLIC	??_C@_0BJ@KONCKJHB@SetSnowTextureModeOption@	; `string'
PUBLIC	??_C@_0P@LJFMBKCI@SetEffectLevel@		; `string'
PUBLIC	??_C@_0P@HHECOAAE@GetEffectLevel@		; `string'
PUBLIC	??_C@_0BE@EMJCKJCE@SetPrivateShopLevel@		; `string'
PUBLIC	??_C@_0BE@OCLJOJFI@GetPrivateShopLevel@		; `string'
PUBLIC	??_C@_0BB@JLDOILPN@SetDropItemLevel@		; `string'
PUBLIC	??_C@_0BB@PPGHDFEP@GetDropItemLevel@		; `string'
PUBLIC	??_C@_0M@FNHDAIIP@IsPetStatus@			; `string'
PUBLIC	??_C@_0BB@HIMOPDMG@SetPetStatusFlag@		; `string'
PUBLIC	??_C@_0BA@IDOPFMJI@IsNpcNameStatus@		; `string'
PUBLIC	??_C@_0BF@HMNBPPFA@SetNpcNameStatusFlag@	; `string'
PUBLIC	??_C@_0BA@LEFGMI@IsShowMobAIFlag@		; `string'
PUBLIC	??_C@_0BB@BHHBOMIC@SetShowMobAIFlag@		; `string'
PUBLIC	??_C@_0P@JFHLFAED@IsShowMobLevel@		; `string'
PUBLIC	??_C@_0BA@OHHPFJNN@SetShowMobLevel@		; `string'
PUBLIC	??_C@_0O@ENDIKLLE@IsShowOutline@		; `string'
PUBLIC	??_C@_0BD@LMAHLJGH@SetShowOutlineFlag@		; `string'
PUBLIC	??_C@_06JOAMIEFO@GetFOV@			; `string'
PUBLIC	??_C@_06NJNDMID@SetFOV@				; `string'
PUBLIC	??_C@_0O@DBDOEDLC@GetStoneScale@		; `string'
PUBLIC	??_C@_0O@EOCAPAMF@SetStoneScale@		; `string'
PUBLIC	??_C@_0BA@CNEEDNIE@GetDungeonTrack@		; `string'
PUBLIC	??_C@_0BA@BPFCEPJN@SetDungeonTrack@		; `string'
PUBLIC	??_C@_0N@HDLKHPPH@GetBossTrack@			; `string'
PUBLIC	??_C@_0N@HAELDLL@SetBossTrack@			; `string'
PUBLIC	??_C@_0O@EDOCFBFG@WINDOW_STATUS@		; `string'
PUBLIC	??_C@_0O@LCPLIAAE@systemSetting@		; `string'
PUBLIC	??_C@_0P@HAOBMPKD@WINDOW_ABILITY@		; `string'
PUBLIC	??_C@_0BB@CHCHLBGG@WINDOW_INVENTORY@		; `string'
PUBLIC	??_C@_0P@FHBHOGAA@WINDOW_JOURNAL@		; `string'
PUBLIC	??_C@_0P@MAFILJL@WINDOW_SOCIETY@		; `string'
PUBLIC	??_C@_0N@BOOBGFI@WINDOW_QUICK@			; `string'
PUBLIC	??_C@_0P@NOILKAON@WINDOW_COMMAND@		; `string'
PUBLIC	??_C@_0P@LEOBHMFL@WINDOW_MINIMAP@		; `string'
PUBLIC	??_C@_0N@MCEEKLOJ@WINDOW_GAUGE@			; `string'
PUBLIC	??_C@_0M@GHKKFINH@WINDOW_CHAT@			; `string'
EXTRN	?PushBackgroundLoadingSet@CResourceManager@@QAEXAAV?$set@V?$basic_string@DU?$char_traits@D@std@@V?$allocator@D@2@@std@@U?$less@V?$basic_string@DU?$char_traits@D@std@@V?$allocator@D@2@@std@@@2@V?$allocator@V?$basic_string@DU?$char_traits@D@std@@V?$allocator@D@2@@std@@@2@@std@@@Z:PROC ; CResourceManager::PushBackgroundLoadingSet
;	COMDAT ?s_methods@?1??initsystem@@YAXXZ@4PAUPyMethodDef@@A
_DATA	SEGMENT
?s_methods@?1??initsystem@@YAXXZ@4PAUPyMethodDef@@A DD FLAT:??_C@_08OMBILDHM@GetWidth@ ; `initsystem'::`2'::s_methods
	DD	FLAT:?systemGetWidth@@YAPAU_object@@PAU1@0@Z
	DD	01H
	ORG $+4
	DD	FLAT:??_C@_09EOGEIJMK@GetHeight@
	DD	FLAT:?systemGetHeight@@YAPAU_object@@PAU1@0@Z
	DD	01H
	ORG $+4
	DD	FLAT:??_C@_0BE@LHLPPLCA@SetInterfaceHandler@
	DD	FLAT:?systemSetInterfaceHandler@@YAPAU_object@@PAU1@0@Z
	DD	01H
	ORG $+4
	DD	FLAT:??_C@_0BI@NBDOAHCB@DestroyInterfaceHandler@
	DD	FLAT:?systemDestroyInterfaceHandler@@YAPAU_object@@PAU1@0@Z
	DD	01H
	ORG $+4
	DD	FLAT:??_C@_0BA@DGMEINM@ReserveResource@
	DD	FLAT:?systemReserveResource@@YAPAU_object@@PAU1@0@Z
	DD	01H
	ORG $+4
	DD	FLAT:??_C@_0BC@GGDBAEOO@isInterfaceConfig@
	DD	FLAT:?systemisInterfaceConfig@@YAPAU_object@@PAU1@0@Z
	DD	01H
	ORG $+4
	DD	FLAT:??_C@_0BB@DOCGKHHO@SaveWindowStatus@
	DD	FLAT:?systemSaveWindowStatus@@YAPAU_object@@PAU1@0@Z
	DD	01H
	ORG $+4
	DD	FLAT:??_C@_0BA@OIPDIACO@GetWindowStatus@
	DD	FLAT:?systemGetWindowStatus@@YAPAU_object@@PAU1@0@Z
	DD	01H
	ORG $+4
	DD	FLAT:??_C@_0BD@PNJEEMA@GetResolutionCount@
	DD	FLAT:?systemGetResolutionCount@@YAPAU_object@@PAU1@0@Z
	DD	01H
	ORG $+4
	DD	FLAT:??_C@_0BC@MMLDLJCA@GetFrequencyCount@
	DD	FLAT:?systemGetFrequencyCount@@YAPAU_object@@PAU1@0@Z
	DD	01H
	ORG $+4
	DD	FLAT:??_C@_0BF@GJHGOKBH@GetCurrentResolution@
	DD	FLAT:?systemGetCurrentResolution@@YAPAU_object@@PAU1@0@Z
	DD	01H
	ORG $+4
	DD	FLAT:??_C@_0O@MCJGAEI@GetResolution@
	DD	FLAT:?systemGetResolution@@YAPAU_object@@PAU1@0@Z
	DD	01H
	ORG $+4
	DD	FLAT:??_C@_0N@DEDCKOKK@GetFrequency@
	DD	FLAT:?systemGetFrequency@@YAPAU_object@@PAU1@0@Z
	DD	01H
	ORG $+4
	DD	FLAT:??_C@_0M@PHHLFDDI@ApplyConfig@
	DD	FLAT:?systemApplyConfig@@YAPAU_object@@PAU1@0@Z
	DD	01H
	ORG $+4
	DD	FLAT:??_C@_09KJAMEPBE@SetConfig@
	DD	FLAT:?systemSetConfig@@YAPAU_object@@PAU1@0@Z
	DD	01H
	ORG $+4
	DD	FLAT:??_C@_0L@IJAHDAKP@SaveConfig@
	DD	FLAT:?systemSaveConfig@@YAPAU_object@@PAU1@0@Z
	DD	01H
	ORG $+4
	DD	FLAT:??_C@_09IHEJGOIG@GetConfig@
	DD	FLAT:?systemGetConfig@@YAPAU_object@@PAU1@0@Z
	DD	01H
	ORG $+4
	DD	FLAT:??_C@_09DABJPAIG@SetSaveID@
	DD	FLAT:?systemSetSaveID@@YAPAU_object@@PAU1@0@Z
	DD	01H
	ORG $+4
	DD	FLAT:??_C@_08ILEIELBI@isSaveID@
	DD	FLAT:?systemisSaveID@@YAPAU_object@@PAU1@0@Z
	DD	01H
	ORG $+4
	DD	FLAT:??_C@_09BOFMNBBE@GetSaveID@
	DD	FLAT:?systemGetSaveID@@YAPAU_object@@PAU1@0@Z
	DD	01H
	ORG $+4
	DD	FLAT:??_C@_0P@HIIHPFML@GetMusicVolume@
	DD	FLAT:?systemGetMusicVolume@@YAPAU_object@@PAU1@0@Z
	DD	01H
	ORG $+4
	DD	FLAT:??_C@_0P@LCENEDPB@GetSoundVolume@
	DD	FLAT:?systemGetSoundVolume@@YAPAU_object@@PAU1@0@Z
	DD	01H
	ORG $+4
	DD	FLAT:??_C@_0P@LGJJAPOH@SetMusicVolume@
	DD	FLAT:?systemSetMusicVolume@@YAPAU_object@@PAU1@0@Z
	DD	01H
	ORG $+4
	DD	FLAT:??_C@_0BA@MLLJDBPB@SetSoundVolumef@
	DD	FLAT:?systemSetSoundVolumef@@YAPAU_object@@PAU1@0@Z
	DD	01H
	ORG $+4
	DD	FLAT:??_C@_0BB@BFMNFHIM@IsSoftwareCursor@
	DD	FLAT:?systemIsSoftwareCursor@@YAPAU_object@@PAU1@0@Z
	DD	01H
	ORG $+4
	DD	FLAT:??_C@_0BA@MFKECAML@SetViewChatFlag@
	DD	FLAT:?systemSetViewChatFlag@@YAPAU_object@@PAU1@0@Z
	DD	01H
	ORG $+4
	DD	FLAT:??_C@_0L@MGMBGKCF@IsViewChat@
	DD	FLAT:?systemIsViewChat@@YAPAU_object@@PAU1@0@Z
	DD	01H
	ORG $+4
	DD	FLAT:??_C@_0BG@GMBDCOC@SetAlwaysShowNameFlag@
	DD	FLAT:?systemSetAlwaysShowNameFlag@@YAPAU_object@@PAU1@0@Z
	DD	01H
	ORG $+4
	DD	FLAT:??_C@_0BB@NKNDCIFA@IsAlwaysShowName@
	DD	FLAT:?systemIsAlwaysShowName@@YAPAU_object@@PAU1@0@Z
	DD	01H
	ORG $+4
	DD	FLAT:??_C@_0BC@JHKGLKC@SetShowDamageFlag@
	DD	FLAT:?systemSetShowDamageFlag@@YAPAU_object@@PAU1@0@Z
	DD	01H
	ORG $+4
	DD	FLAT:??_C@_0N@FLKCLECP@IsShowDamage@
	DD	FLAT:?systemIsShowDamage@@YAPAU_object@@PAU1@0@Z
	DD	01H
	ORG $+4
	DD	FLAT:??_C@_0BF@IKKCKDDD@SetShowSalesTextFlag@
	DD	FLAT:?systemSetShowSalesTextFlag@@YAPAU_object@@PAU1@0@Z
	DD	01H
	ORG $+4
	DD	FLAT:??_C@_0BA@GPLIEFHC@IsShowSalesText@
	DD	FLAT:?systemIsShowSalesText@@YAPAU_object@@PAU1@0@Z
	DD	01H
	ORG $+4
	DD	FLAT:??_C@_0P@FFPBIDPG@GetShadowLevel@
	DD	FLAT:?systemGetShadowLevel@@YAPAU_object@@PAU1@0@Z
	DD	01H
	ORG $+4
	DD	FLAT:??_C@_0P@JLOPHJNK@SetShadowLevel@
	DD	FLAT:?systemSetShadowLevel@@YAPAU_object@@PAU1@0@Z
	DD	01H
	ORG $+4
	DD	FLAT:??_C@_0L@PMCKOHOM@SetFogMode@
	DD	FLAT:?systemSetFogMode@@YAPAU_object@@PAU1@0@Z
	DD	01H
	ORG $+4
	DD	FLAT:??_C@_09KEHLALME@IsFogMode@
	DD	FLAT:?systemIsFogMode@@YAPAU_object@@PAU1@0@Z
	DD	01H
	ORG $+4
	DD	FLAT:??_C@_0BF@BNPEAANC@SetENBModeStatusFlag@
	DD	FLAT:?systemSetENBModeStatusFlag@@YAPAU_object@@PAU1@0@Z
	DD	01H
	ORG $+4
	DD	FLAT:??_C@_0BA@JJFEPBJE@IsENBModeStatus@
	DD	FLAT:?systemIsENBModeStatus@@YAPAU_object@@PAU1@0@Z
	DD	01H
	ORG $+4
	DD	FLAT:??_C@_0BD@IDCGKKBN@SetNightModeOption@
	DD	FLAT:?systemSetNightModeOption@@YAPAU_object@@PAU1@0@Z
	DD	01H
	ORG $+4
	DD	FLAT:??_C@_0BD@HJAMJMPF@GetNightModeOption@
	DD	FLAT:?systemGetNightModeOption@@YAPAU_object@@PAU1@0@Z
	DD	01H
	ORG $+4
	DD	FLAT:??_C@_0BC@CEPPPPMH@SetSnowModeOption@
	DD	FLAT:?systemSetSnowModeOption@@YAPAU_object@@PAU1@0@Z
	DD	01H
	ORG $+4
	DD	FLAT:??_C@_0BC@BPEHENJ@GetSnowModeOption@
	DD	FLAT:?systemGetSnowModeOption@@YAPAU_object@@PAU1@0@Z
	DD	01H
	ORG $+4
	DD	FLAT:??_C@_0BJ@KONCKJHB@SetSnowTextureModeOption@
	DD	FLAT:?systemSetSnowTextureModeOption@@YAPAU_object@@PAU1@0@Z
	DD	01H
	ORG $+4
	DD	FLAT:??_C@_0BJ@NHIMEOE@GetSnowTextureModeOption@
	DD	FLAT:?systemGetSnowTextureModeOption@@YAPAU_object@@PAU1@0@Z
	DD	01H
	ORG $+4
	DD	FLAT:??_C@_0P@HHECOAAE@GetEffectLevel@
	DD	FLAT:?systemGetEffectLevel@@YAPAU_object@@PAU1@0@Z
	DD	01H
	ORG $+4
	DD	FLAT:??_C@_0P@LJFMBKCI@SetEffectLevel@
	DD	FLAT:?systemSetEffectLevel@@YAPAU_object@@PAU1@0@Z
	DD	01H
	ORG $+4
	DD	FLAT:??_C@_0BE@OCLJOJFI@GetPrivateShopLevel@
	DD	FLAT:?systemGetPrivateShopLevel@@YAPAU_object@@PAU1@0@Z
	DD	01H
	ORG $+4
	DD	FLAT:??_C@_0BE@EMJCKJCE@SetPrivateShopLevel@
	DD	FLAT:?systemSetPrivateShopLevel@@YAPAU_object@@PAU1@0@Z
	DD	01H
	ORG $+4
	DD	FLAT:??_C@_0BB@PPGHDFEP@GetDropItemLevel@
	DD	FLAT:?systemGetDropItemLevel@@YAPAU_object@@PAU1@0@Z
	DD	01H
	ORG $+4
	DD	FLAT:??_C@_0BB@JLDOILPN@SetDropItemLevel@
	DD	FLAT:?systemSetDropItemLevel@@YAPAU_object@@PAU1@0@Z
	DD	01H
	ORG $+4
	DD	FLAT:??_C@_0BB@HIMOPDMG@SetPetStatusFlag@
	DD	FLAT:?systemSetPetStatusFlag@@YAPAU_object@@PAU1@0@Z
	DD	01H
	ORG $+4
	DD	FLAT:??_C@_0M@FNHDAIIP@IsPetStatus@
	DD	FLAT:?systemIsPetStatus@@YAPAU_object@@PAU1@0@Z
	DD	01H
	ORG $+4
	DD	FLAT:??_C@_0BF@HMNBPPFA@SetNpcNameStatusFlag@
	DD	FLAT:?systemSetNpcNameStatusFlag@@YAPAU_object@@PAU1@0@Z
	DD	01H
	ORG $+4
	DD	FLAT:??_C@_0BA@IDOPFMJI@IsNpcNameStatus@
	DD	FLAT:?systemIsNpcNameStatus@@YAPAU_object@@PAU1@0@Z
	DD	01H
	ORG $+4
	DD	FLAT:??_C@_0BB@BHHBOMIC@SetShowMobAIFlag@
	DD	FLAT:?systemSetShowMobAIFlag@@YAPAU_object@@PAU1@0@Z
	DD	01H
	ORG $+4
	DD	FLAT:??_C@_0BA@LEFGMI@IsShowMobAIFlag@
	DD	FLAT:?systemIsShowMobAIFlag@@YAPAU_object@@PAU1@0@Z
	DD	01H
	ORG $+4
	DD	FLAT:??_C@_0BA@OHHPFJNN@SetShowMobLevel@
	DD	FLAT:?systemSetShowMobLevel@@YAPAU_object@@PAU1@0@Z
	DD	01H
	ORG $+4
	DD	FLAT:??_C@_0P@JFHLFAED@IsShowMobLevel@
	DD	FLAT:?systemIsShowMobLevel@@YAPAU_object@@PAU1@0@Z
	DD	01H
	ORG $+4
	DD	FLAT:??_C@_0BD@LMAHLJGH@SetShowOutlineFlag@
	DD	FLAT:?systemSetShowOutlineFlag@@YAPAU_object@@PAU1@0@Z
	DD	01H
	ORG $+4
	DD	FLAT:??_C@_0O@ENDIKLLE@IsShowOutline@
	DD	FLAT:?systemIsShowOutline@@YAPAU_object@@PAU1@0@Z
	DD	01H
	ORG $+4
	DD	FLAT:??_C@_06NJNDMID@SetFOV@
	DD	FLAT:?systemSetFOV@@YAPAU_object@@PAU1@0@Z
	DD	01H
	ORG $+4
	DD	FLAT:??_C@_06JOAMIEFO@GetFOV@
	DD	FLAT:?systemGetFOV@@YAPAU_object@@PAU1@0@Z
	DD	01H
	ORG $+4
	DD	FLAT:??_C@_0O@EOCAPAMF@SetStoneScale@
	DD	FLAT:?systemSetStoneScale@@YAPAU_object@@PAU1@0@Z
	DD	01H
	ORG $+4
	DD	FLAT:??_C@_0O@DBDOEDLC@GetStoneScale@
	DD	FLAT:?systemGetStoneScale@@YAPAU_object@@PAU1@0@Z
	DD	01H
	ORG $+4
	DD	FLAT:??_C@_0BA@BPFCEPJN@SetDungeonTrack@
	DD	FLAT:?systemSetDungeonTrack@@YAPAU_object@@PAU1@0@Z
	DD	01H
	ORG $+4
	DD	FLAT:??_C@_0BA@CNEEDNIE@GetDungeonTrack@
	DD	FLAT:?systemGetDungeonTrack@@YAPAU_object@@PAU1@0@Z
	DD	01H
	ORG $+4
	DD	FLAT:??_C@_0N@HAELDLL@SetBossTrack@
	DD	FLAT:?systemSetBossTrack@@YAPAU_object@@PAU1@0@Z
	DD	01H
	ORG $+4
	DD	FLAT:??_C@_0N@HDLKHPPH@GetBossTrack@
	DD	FLAT:?systemGetBossTrack@@YAPAU_object@@PAU1@0@Z
	DD	01H
	ORG $+4
	DD	00H
	DD	00H
	ORG $+8
_DATA	ENDS
;	COMDAT ??_C@_0M@GHKKFINH@WINDOW_CHAT@
CONST	SEGMENT
??_C@_0M@GHKKFINH@WINDOW_CHAT@ DB 'WINDOW_CHAT', 00H	; `string'
CONST	ENDS
;	COMDAT ??_C@_0N@MCEEKLOJ@WINDOW_GAUGE@
CONST	SEGMENT
??_C@_0N@MCEEKLOJ@WINDOW_GAUGE@ DB 'WINDOW_GAUGE', 00H	; `string'
CONST	ENDS
;	COMDAT ??_C@_0P@LEOBHMFL@WINDOW_MINIMAP@
CONST	SEGMENT
??_C@_0P@LEOBHMFL@WINDOW_MINIMAP@ DB 'WINDOW_MINIMAP', 00H ; `string'
CONST	ENDS
;	COMDAT ??_C@_0P@NOILKAON@WINDOW_COMMAND@
CONST	SEGMENT
??_C@_0P@NOILKAON@WINDOW_COMMAND@ DB 'WINDOW_COMMAND', 00H ; `string'
CONST	ENDS
;	COMDAT ??_C@_0N@BOOBGFI@WINDOW_QUICK@
CONST	SEGMENT
??_C@_0N@BOOBGFI@WINDOW_QUICK@ DB 'WINDOW_QUICK', 00H	; `string'
CONST	ENDS
;	COMDAT ??_C@_0P@MAFILJL@WINDOW_SOCIETY@
CONST	SEGMENT
??_C@_0P@MAFILJL@WINDOW_SOCIETY@ DB 'WINDOW_SOCIETY', 00H ; `string'
CONST	ENDS
;	COMDAT ??_C@_0P@FHBHOGAA@WINDOW_JOURNAL@
CONST	SEGMENT
??_C@_0P@FHBHOGAA@WINDOW_JOURNAL@ DB 'WINDOW_JOURNAL', 00H ; `string'
CONST	ENDS
;	COMDAT ??_C@_0BB@CHCHLBGG@WINDOW_INVENTORY@
CONST	SEGMENT
??_C@_0BB@CHCHLBGG@WINDOW_INVENTORY@ DB 'WINDOW_INVENTORY', 00H ; `string'
CONST	ENDS
;	COMDAT ??_C@_0P@HAOBMPKD@WINDOW_ABILITY@
CONST	SEGMENT
??_C@_0P@HAOBMPKD@WINDOW_ABILITY@ DB 'WINDOW_ABILITY', 00H ; `string'
CONST	ENDS
;	COMDAT ??_C@_0O@LCPLIAAE@systemSetting@
CONST	SEGMENT
??_C@_0O@LCPLIAAE@systemSetting@ DB 'systemSetting', 00H ; `string'
CONST	ENDS
;	COMDAT ??_C@_0O@EDOCFBFG@WINDOW_STATUS@
CONST	SEGMENT
??_C@_0O@EDOCFBFG@WINDOW_STATUS@ DB 'WINDOW_STATUS', 00H ; `string'
CONST	ENDS
;	COMDAT ??_C@_0N@HAELDLL@SetBossTrack@
CONST	SEGMENT
??_C@_0N@HAELDLL@SetBossTrack@ DB 'SetBossTrack', 00H	; `string'
CONST	ENDS
;	COMDAT ??_C@_0N@HDLKHPPH@GetBossTrack@
CONST	SEGMENT
??_C@_0N@HDLKHPPH@GetBossTrack@ DB 'GetBossTrack', 00H	; `string'
CONST	ENDS
;	COMDAT ??_C@_0BA@BPFCEPJN@SetDungeonTrack@
CONST	SEGMENT
??_C@_0BA@BPFCEPJN@SetDungeonTrack@ DB 'SetDungeonTrack', 00H ; `string'
CONST	ENDS
;	COMDAT ??_C@_0BA@CNEEDNIE@GetDungeonTrack@
CONST	SEGMENT
??_C@_0BA@CNEEDNIE@GetDungeonTrack@ DB 'GetDungeonTrack', 00H ; `string'
CONST	ENDS
;	COMDAT ??_C@_0O@EOCAPAMF@SetStoneScale@
CONST	SEGMENT
??_C@_0O@EOCAPAMF@SetStoneScale@ DB 'SetStoneScale', 00H ; `string'
CONST	ENDS
;	COMDAT ??_C@_0O@DBDOEDLC@GetStoneScale@
CONST	SEGMENT
??_C@_0O@DBDOEDLC@GetStoneScale@ DB 'GetStoneScale', 00H ; `string'
CONST	ENDS
;	COMDAT ??_C@_06NJNDMID@SetFOV@
CONST	SEGMENT
??_C@_06NJNDMID@SetFOV@ DB 'SetFOV', 00H		; `string'
CONST	ENDS
;	COMDAT ??_C@_06JOAMIEFO@GetFOV@
CONST	SEGMENT
??_C@_06JOAMIEFO@GetFOV@ DB 'GetFOV', 00H		; `string'
CONST	ENDS
;	COMDAT ??_C@_0BD@LMAHLJGH@SetShowOutlineFlag@
CONST	SEGMENT
??_C@_0BD@LMAHLJGH@SetShowOutlineFlag@ DB 'SetShowOutlineFlag', 00H ; `string'
CONST	ENDS
;	COMDAT ??_C@_0O@ENDIKLLE@IsShowOutline@
CONST	SEGMENT
??_C@_0O@ENDIKLLE@IsShowOutline@ DB 'IsShowOutline', 00H ; `string'
CONST	ENDS
;	COMDAT ??_C@_0BA@OHHPFJNN@SetShowMobLevel@
CONST	SEGMENT
??_C@_0BA@OHHPFJNN@SetShowMobLevel@ DB 'SetShowMobLevel', 00H ; `string'
CONST	ENDS
;	COMDAT ??_C@_0P@JFHLFAED@IsShowMobLevel@
CONST	SEGMENT
??_C@_0P@JFHLFAED@IsShowMobLevel@ DB 'IsShowMobLevel', 00H ; `string'
CONST	ENDS
;	COMDAT ??_C@_0BB@BHHBOMIC@SetShowMobAIFlag@
CONST	SEGMENT
??_C@_0BB@BHHBOMIC@SetShowMobAIFlag@ DB 'SetShowMobAIFlag', 00H ; `string'
CONST	ENDS
;	COMDAT ??_C@_0BA@LEFGMI@IsShowMobAIFlag@
CONST	SEGMENT
??_C@_0BA@LEFGMI@IsShowMobAIFlag@ DB 'IsShowMobAIFlag', 00H ; `string'
CONST	ENDS
;	COMDAT ??_C@_0BF@HMNBPPFA@SetNpcNameStatusFlag@
CONST	SEGMENT
??_C@_0BF@HMNBPPFA@SetNpcNameStatusFlag@ DB 'SetNpcNameStatusFlag', 00H ; `string'
CONST	ENDS
;	COMDAT ??_C@_0BA@IDOPFMJI@IsNpcNameStatus@
CONST	SEGMENT
??_C@_0BA@IDOPFMJI@IsNpcNameStatus@ DB 'IsNpcNameStatus', 00H ; `string'
CONST	ENDS
;	COMDAT ??_C@_0BB@HIMOPDMG@SetPetStatusFlag@
CONST	SEGMENT
??_C@_0BB@HIMOPDMG@SetPetStatusFlag@ DB 'SetPetStatusFlag', 00H ; `string'
CONST	ENDS
;	COMDAT ??_C@_0M@FNHDAIIP@IsPetStatus@
CONST	SEGMENT
??_C@_0M@FNHDAIIP@IsPetStatus@ DB 'IsPetStatus', 00H	; `string'
CONST	ENDS
;	COMDAT ??_C@_0BB@PPGHDFEP@GetDropItemLevel@
CONST	SEGMENT
??_C@_0BB@PPGHDFEP@GetDropItemLevel@ DB 'GetDropItemLevel', 00H ; `string'
CONST	ENDS
;	COMDAT ??_C@_0BB@JLDOILPN@SetDropItemLevel@
CONST	SEGMENT
??_C@_0BB@JLDOILPN@SetDropItemLevel@ DB 'SetDropItemLevel', 00H ; `string'
CONST	ENDS
;	COMDAT ??_C@_0BE@OCLJOJFI@GetPrivateShopLevel@
CONST	SEGMENT
??_C@_0BE@OCLJOJFI@GetPrivateShopLevel@ DB 'GetPrivateShopLevel', 00H ; `string'
CONST	ENDS
;	COMDAT ??_C@_0BE@EMJCKJCE@SetPrivateShopLevel@
CONST	SEGMENT
??_C@_0BE@EMJCKJCE@SetPrivateShopLevel@ DB 'SetPrivateShopLevel', 00H ; `string'
CONST	ENDS
;	COMDAT ??_C@_0P@HHECOAAE@GetEffectLevel@
CONST	SEGMENT
??_C@_0P@HHECOAAE@GetEffectLevel@ DB 'GetEffectLevel', 00H ; `string'
CONST	ENDS
;	COMDAT ??_C@_0P@LJFMBKCI@SetEffectLevel@
CONST	SEGMENT
??_C@_0P@LJFMBKCI@SetEffectLevel@ DB 'SetEffectLevel', 00H ; `string'
CONST	ENDS
;	COMDAT ??_C@_0BJ@KONCKJHB@SetSnowTextureModeOption@
CONST	SEGMENT
??_C@_0BJ@KONCKJHB@SetSnowTextureModeOption@ DB 'SetSnowTextureModeOption'
	DB	00H						; `string'
CONST	ENDS
;	COMDAT ??_C@_0BJ@NHIMEOE@GetSnowTextureModeOption@
CONST	SEGMENT
??_C@_0BJ@NHIMEOE@GetSnowTextureModeOption@ DB 'GetSnowTextureModeOption', 00H ; `string'
CONST	ENDS
;	COMDAT ??_C@_0BC@CEPPPPMH@SetSnowModeOption@
CONST	SEGMENT
??_C@_0BC@CEPPPPMH@SetSnowModeOption@ DB 'SetSnowModeOption', 00H ; `string'
CONST	ENDS
;	COMDAT ??_C@_0BC@BPEHENJ@GetSnowModeOption@
CONST	SEGMENT
??_C@_0BC@BPEHENJ@GetSnowModeOption@ DB 'GetSnowModeOption', 00H ; `string'
CONST	ENDS
;	COMDAT ??_C@_0BA@JJFEPBJE@IsENBModeStatus@
CONST	SEGMENT
??_C@_0BA@JJFEPBJE@IsENBModeStatus@ DB 'IsENBModeStatus', 00H ; `string'
CONST	ENDS
;	COMDAT ??_C@_0BD@HJAMJMPF@GetNightModeOption@
CONST	SEGMENT
??_C@_0BD@HJAMJMPF@GetNightModeOption@ DB 'GetNightModeOption', 00H ; `string'
CONST	ENDS
;	COMDAT ??_C@_09KEHLALME@IsFogMode@
CONST	SEGMENT
??_C@_09KEHLALME@IsFogMode@ DB 'IsFogMode', 00H		; `string'
CONST	ENDS
;	COMDAT ??_C@_0BF@BNPEAANC@SetENBModeStatusFlag@
CONST	SEGMENT
??_C@_0BF@BNPEAANC@SetENBModeStatusFlag@ DB 'SetENBModeStatusFlag', 00H ; `string'
CONST	ENDS
;	COMDAT ??_C@_0P@FFPBIDPG@GetShadowLevel@
CONST	SEGMENT
??_C@_0P@FFPBIDPG@GetShadowLevel@ DB 'GetShadowLevel', 00H ; `string'
CONST	ENDS
;	COMDAT ??_C@_0L@PMCKOHOM@SetFogMode@
CONST	SEGMENT
??_C@_0L@PMCKOHOM@SetFogMode@ DB 'SetFogMode', 00H	; `string'
CONST	ENDS
;	COMDAT ??_C@_0BF@IKKCKDDD@SetShowSalesTextFlag@
CONST	SEGMENT
??_C@_0BF@IKKCKDDD@SetShowSalesTextFlag@ DB 'SetShowSalesTextFlag', 00H ; `string'
CONST	ENDS
;	COMDAT ??_C@_0BA@GPLIEFHC@IsShowSalesText@
CONST	SEGMENT
??_C@_0BA@GPLIEFHC@IsShowSalesText@ DB 'IsShowSalesText', 00H ; `string'
CONST	ENDS
;	COMDAT ??_C@_0BC@JHKGLKC@SetShowDamageFlag@
CONST	SEGMENT
??_C@_0BC@JHKGLKC@SetShowDamageFlag@ DB 'SetShowDamageFlag', 00H ; `string'
CONST	ENDS
;	COMDAT ??_C@_0N@FLKCLECP@IsShowDamage@
CONST	SEGMENT
??_C@_0N@FLKCLECP@IsShowDamage@ DB 'IsShowDamage', 00H	; `string'
CONST	ENDS
;	COMDAT ??_C@_0BG@GMBDCOC@SetAlwaysShowNameFlag@
CONST	SEGMENT
??_C@_0BG@GMBDCOC@SetAlwaysShowNameFlag@ DB 'SetAlwaysShowNameFlag', 00H ; `string'
CONST	ENDS
;	COMDAT ??_C@_0BB@NKNDCIFA@IsAlwaysShowName@
CONST	SEGMENT
??_C@_0BB@NKNDCIFA@IsAlwaysShowName@ DB 'IsAlwaysShowName', 00H ; `string'
CONST	ENDS
;	COMDAT ??_C@_0BA@MFKECAML@SetViewChatFlag@
CONST	SEGMENT
??_C@_0BA@MFKECAML@SetViewChatFlag@ DB 'SetViewChatFlag', 00H ; `string'
CONST	ENDS
;	COMDAT ??_C@_0L@MGMBGKCF@IsViewChat@
CONST	SEGMENT
??_C@_0L@MGMBGKCF@IsViewChat@ DB 'IsViewChat', 00H	; `string'
CONST	ENDS
;	COMDAT ??_C@_0P@LCENEDPB@GetSoundVolume@
CONST	SEGMENT
??_C@_0P@LCENEDPB@GetSoundVolume@ DB 'GetSoundVolume', 00H ; `string'
CONST	ENDS
;	COMDAT ??_C@_0BB@BFMNFHIM@IsSoftwareCursor@
CONST	SEGMENT
??_C@_0BB@BFMNFHIM@IsSoftwareCursor@ DB 'IsSoftwareCursor', 00H ; `string'
CONST	ENDS
;	COMDAT ??_C@_09BOFMNBBE@GetSaveID@
CONST	SEGMENT
??_C@_09BOFMNBBE@GetSaveID@ DB 'GetSaveID', 00H		; `string'
CONST	ENDS
;	COMDAT ??_C@_0P@HIIHPFML@GetMusicVolume@
CONST	SEGMENT
??_C@_0P@HIIHPFML@GetMusicVolume@ DB 'GetMusicVolume', 00H ; `string'
CONST	ENDS
;	COMDAT ??_C@_09DABJPAIG@SetSaveID@
CONST	SEGMENT
??_C@_09DABJPAIG@SetSaveID@ DB 'SetSaveID', 00H		; `string'
CONST	ENDS
;	COMDAT ??_C@_08ILEIELBI@isSaveID@
CONST	SEGMENT
??_C@_08ILEIELBI@isSaveID@ DB 'isSaveID', 00H		; `string'
CONST	ENDS
;	COMDAT ??_C@_0L@IJAHDAKP@SaveConfig@
CONST	SEGMENT
??_C@_0L@IJAHDAKP@SaveConfig@ DB 'SaveConfig', 00H	; `string'
CONST	ENDS
;	COMDAT ??_C@_09IHEJGOIG@GetConfig@
CONST	SEGMENT
??_C@_09IHEJGOIG@GetConfig@ DB 'GetConfig', 00H		; `string'
CONST	ENDS
;	COMDAT ??_C@_0M@PHHLFDDI@ApplyConfig@
CONST	SEGMENT
??_C@_0M@PHHLFDDI@ApplyConfig@ DB 'ApplyConfig', 00H	; `string'
CONST	ENDS
;	COMDAT ??_C@_09KJAMEPBE@SetConfig@
CONST	SEGMENT
??_C@_09KJAMEPBE@SetConfig@ DB 'SetConfig', 00H		; `string'
CONST	ENDS
;	COMDAT ??_C@_0O@MCJGAEI@GetResolution@
CONST	SEGMENT
??_C@_0O@MCJGAEI@GetResolution@ DB 'GetResolution', 00H	; `string'
CONST	ENDS
;	COMDAT ??_C@_0N@DEDCKOKK@GetFrequency@
CONST	SEGMENT
??_C@_0N@DEDCKOKK@GetFrequency@ DB 'GetFrequency', 00H	; `string'
CONST	ENDS
;	COMDAT ??_C@_0BC@MMLDLJCA@GetFrequencyCount@
CONST	SEGMENT
??_C@_0BC@MMLDLJCA@GetFrequencyCount@ DB 'GetFrequencyCount', 00H ; `string'
CONST	ENDS
;	COMDAT ??_C@_0BF@GJHGOKBH@GetCurrentResolution@
CONST	SEGMENT
??_C@_0BF@GJHGOKBH@GetCurrentResolution@ DB 'GetCurrentResolution', 00H ; `string'
CONST	ENDS
;	COMDAT ??_C@_0BA@OIPDIACO@GetWindowStatus@
CONST	SEGMENT
??_C@_0BA@OIPDIACO@GetWindowStatus@ DB 'GetWindowStatus', 00H ; `string'
CONST	ENDS
;	COMDAT ??_C@_0BD@PNJEEMA@GetResolutionCount@
CONST	SEGMENT
??_C@_0BD@PNJEEMA@GetResolutionCount@ DB 'GetResolutionCount', 00H ; `string'
CONST	ENDS
;	COMDAT ??_C@_0BC@GGDBAEOO@isInterfaceConfig@
CONST	SEGMENT
??_C@_0BC@GGDBAEOO@isInterfaceConfig@ DB 'isInterfaceConfig', 00H ; `string'
CONST	ENDS
;	COMDAT ??_C@_0BB@DOCGKHHO@SaveWindowStatus@
CONST	SEGMENT
??_C@_0BB@DOCGKHHO@SaveWindowStatus@ DB 'SaveWindowStatus', 00H ; `string'
CONST	ENDS
;	COMDAT ??_C@_0BI@NBDOAHCB@DestroyInterfaceHandler@
CONST	SEGMENT
??_C@_0BI@NBDOAHCB@DestroyInterfaceHandler@ DB 'DestroyInterfaceHandler', 00H ; `string'
CONST	ENDS
;	COMDAT ??_C@_0BA@DGMEINM@ReserveResource@
CONST	SEGMENT
??_C@_0BA@DGMEINM@ReserveResource@ DB 'ReserveResource', 00H ; `string'
CONST	ENDS
;	COMDAT ??_C@_08OMBILDHM@GetWidth@
CONST	SEGMENT
??_C@_08OMBILDHM@GetWidth@ DB 'GetWidth', 00H		; `string'
CONST	ENDS
;	COMDAT ??_C@_0BE@LHLPPLCA@SetInterfaceHandler@
CONST	SEGMENT
??_C@_0BE@LHLPPLCA@SetInterfaceHandler@ DB 'SetInterfaceHandler', 00H ; `string'
PUBLIC	?initsystem@@YAXXZ				; initsystem
PUBLIC	?systemGetBossTrack@@YAPAU_object@@PAU1@0@Z	; systemGetBossTrack
PUBLIC	?systemSetBossTrack@@YAPAU_object@@PAU1@0@Z	; systemSetBossTrack
PUBLIC	?systemGetDungeonTrack@@YAPAU_object@@PAU1@0@Z	; systemGetDungeonTrack
PUBLIC	?systemSetDungeonTrack@@YAPAU_object@@PAU1@0@Z	; systemSetDungeonTrack
PUBLIC	?systemGetStoneScale@@YAPAU_object@@PAU1@0@Z	; systemGetStoneScale
PUBLIC	?systemSetStoneScale@@YAPAU_object@@PAU1@0@Z	; systemSetStoneScale
PUBLIC	?systemGetFOV@@YAPAU_object@@PAU1@0@Z		; systemGetFOV
PUBLIC	?systemSetFOV@@YAPAU_object@@PAU1@0@Z		; systemSetFOV
PUBLIC	?systemSetShowOutlineFlag@@YAPAU_object@@PAU1@0@Z ; systemSetShowOutlineFlag
PUBLIC	?systemIsShowOutline@@YAPAU_object@@PAU1@0@Z	; systemIsShowOutline
PUBLIC	?systemIsShowMobAIFlag@@YAPAU_object@@PAU1@0@Z	; systemIsShowMobAIFlag
PUBLIC	?systemSetShowMobAIFlag@@YAPAU_object@@PAU1@0@Z	; systemSetShowMobAIFlag
PUBLIC	?systemIsShowMobLevel@@YAPAU_object@@PAU1@0@Z	; systemIsShowMobLevel
PUBLIC	?systemSetShowMobLevel@@YAPAU_object@@PAU1@0@Z	; systemSetShowMobLevel
PUBLIC	?systemIsNpcNameStatus@@YAPAU_object@@PAU1@0@Z	; systemIsNpcNameStatus
PUBLIC	?systemSetNpcNameStatusFlag@@YAPAU_object@@PAU1@0@Z ; systemSetNpcNameStatusFlag
PUBLIC	?systemIsPetStatus@@YAPAU_object@@PAU1@0@Z	; systemIsPetStatus
PUBLIC	?systemSetPetStatusFlag@@YAPAU_object@@PAU1@0@Z	; systemSetPetStatusFlag
PUBLIC	?systemSetDropItemLevel@@YAPAU_object@@PAU1@0@Z	; systemSetDropItemLevel
PUBLIC	?systemGetDropItemLevel@@YAPAU_object@@PAU1@0@Z	; systemGetDropItemLevel
PUBLIC	?systemSetPrivateShopLevel@@YAPAU_object@@PAU1@0@Z ; systemSetPrivateShopLevel
PUBLIC	?systemGetPrivateShopLevel@@YAPAU_object@@PAU1@0@Z ; systemGetPrivateShopLevel
PUBLIC	?systemSetEffectLevel@@YAPAU_object@@PAU1@0@Z	; systemSetEffectLevel
PUBLIC	?systemGetEffectLevel@@YAPAU_object@@PAU1@0@Z	; systemGetEffectLevel
PUBLIC	?systemGetSnowTextureModeOption@@YAPAU_object@@PAU1@0@Z ; systemGetSnowTextureModeOption
PUBLIC	?systemGetSnowModeOption@@YAPAU_object@@PAU1@0@Z ; systemGetSnowModeOption
PUBLIC	?systemSetSnowTextureModeOption@@YAPAU_object@@PAU1@0@Z ; systemSetSnowTextureModeOption
PUBLIC	?systemSetSnowModeOption@@YAPAU_object@@PAU1@0@Z ; systemSetSnowModeOption
PUBLIC	?systemGetNightModeOption@@YAPAU_object@@PAU1@0@Z ; systemGetNightModeOption
PUBLIC	?systemSetNightModeOption@@YAPAU_object@@PAU1@0@Z ; systemSetNightModeOption
PUBLIC	?systemIsENBModeStatus@@YAPAU_object@@PAU1@0@Z	; systemIsENBModeStatus
PUBLIC	?systemSetENBModeStatusFlag@@YAPAU_object@@PAU1@0@Z ; systemSetENBModeStatusFlag
PUBLIC	?systemIsFogMode@@YAPAU_object@@PAU1@0@Z	; systemIsFogMode
PUBLIC	?systemSetFogMode@@YAPAU_object@@PAU1@0@Z	; systemSetFogMode
PUBLIC	?systemSetShadowLevel@@YAPAU_object@@PAU1@0@Z	; systemSetShadowLevel
PUBLIC	?systemGetShadowLevel@@YAPAU_object@@PAU1@0@Z	; systemGetShadowLevel
PUBLIC	?systemGetFrequency@@YAPAU_object@@PAU1@0@Z	; systemGetFrequency
PUBLIC	?systemGetCurrentResolution@@YAPAU_object@@PAU1@0@Z ; systemGetCurrentResolution
PUBLIC	?systemGetResolution@@YAPAU_object@@PAU1@0@Z	; systemGetResolution
PUBLIC	?systemGetFrequencyCount@@YAPAU_object@@PAU1@0@Z ; systemGetFrequencyCount
PUBLIC	?systemGetResolutionCount@@YAPAU_object@@PAU1@0@Z ; systemGetResolutionCount
PUBLIC	?systemSaveConfig@@YAPAU_object@@PAU1@0@Z	; systemSaveConfig
PUBLIC	?systemApplyConfig@@YAPAU_object@@PAU1@0@Z	; systemApplyConfig
PUBLIC	?systemSetConfig@@YAPAU_object@@PAU1@0@Z	; systemSetConfig
PUBLIC	?systemIsShowSalesText@@YAPAU_object@@PAU1@0@Z	; systemIsShowSalesText
PUBLIC	?systemIsShowDamage@@YAPAU_object@@PAU1@0@Z	; systemIsShowDamage
PUBLIC	?systemIsAlwaysShowName@@YAPAU_object@@PAU1@0@Z	; systemIsAlwaysShowName
PUBLIC	?systemSetShowSalesTextFlag@@YAPAU_object@@PAU1@0@Z ; systemSetShowSalesTextFlag
PUBLIC	?systemSetShowDamageFlag@@YAPAU_object@@PAU1@0@Z ; systemSetShowDamageFlag
PUBLIC	?systemSetAlwaysShowNameFlag@@YAPAU_object@@PAU1@0@Z ; systemSetAlwaysShowNameFlag
PUBLIC	?systemIsViewChat@@YAPAU_object@@PAU1@0@Z	; systemIsViewChat
PUBLIC	?systemSetViewChatFlag@@YAPAU_object@@PAU1@0@Z	; systemSetViewChatFlag
PUBLIC	?systemIsSoftwareCursor@@YAPAU_object@@PAU1@0@Z	; systemIsSoftwareCursor
PUBLIC	?systemSetSoundVolumef@@YAPAU_object@@PAU1@0@Z	; systemSetSoundVolumef
PUBLIC	?systemSetMusicVolume@@YAPAU_object@@PAU1@0@Z	; systemSetMusicVolume
PUBLIC	?systemGetSoundVolume@@YAPAU_object@@PAU1@0@Z	; systemGetSoundVolume
PUBLIC	?systemGetMusicVolume@@YAPAU_object@@PAU1@0@Z	; systemGetMusicVolume
PUBLIC	?systemGetSaveID@@YAPAU_object@@PAU1@0@Z	; systemGetSaveID
PUBLIC	?systemisSaveID@@YAPAU_object@@PAU1@0@Z		; systemisSaveID
PUBLIC	?systemSetSaveID@@YAPAU_object@@PAU1@0@Z	; systemSetSaveID
PUBLIC	?systemGetConfig@@YAPAU_object@@PAU1@0@Z	; systemGetConfig
PUBLIC	?systemGetWindowStatus@@YAPAU_object@@PAU1@0@Z	; systemGetWindowStatus
PUBLIC	?systemSaveWindowStatus@@YAPAU_object@@PAU1@0@Z	; systemSaveWindowStatus
PUBLIC	?systemisInterfaceConfig@@YAPAU_object@@PAU1@0@Z ; systemisInterfaceConfig
PUBLIC	?systemReserveResource@@YAPAU_object@@PAU1@0@Z	; systemReserveResource
PUBLIC	?systemDestroyInterfaceHandler@@YAPAU_object@@PAU1@0@Z ; systemDestroyInterfaceHandler
PUBLIC	?systemSetInterfaceHandler@@YAPAU_object@@PAU1@0@Z ; systemSetInterfaceHandler
PUBLIC	?systemGetHeight@@YAPAU_object@@PAU1@0@Z	; systemGetHeight
PUBLIC	?systemGetWidth@@YAPAU_object@@PAU1@0@Z		; systemGetWidth
PUBLIC	?SetBossTrack@CPythonSystem@@QAEX_N@Z		; CPythonSystem::SetBossTrack
PUBLIC	?GetBossTrack@CPythonSystem@@QAE_NXZ		; CPythonSystem::GetBossTrack
PUBLIC	?SetDungeonTrack@CPythonSystem@@QAEX_N@Z	; CPythonSystem::SetDungeonTrack
PUBLIC	?GetDungeonTrack@CPythonSystem@@QAE_NXZ		; CPythonSystem::GetDungeonTrack
;	COMDAT ?$TSS0@?1??systemIsShowOutline@@YAPAU_object@@PAU2@0@Z@4HA
_BSS	SEGMENT
?$TSS0@?1??systemIsShowOutline@@YAPAU_object@@PAU2@0@Z@4HA DD 01H DUP (?) ; `systemIsShowOutline'::`2'::$TSS0
_BSS	ENDS
;	COMDAT ?system@?1??systemIsShowOutline@@YAPAU_object@@PAU2@0@Z@4AAVCPythonSystem@@A
_BSS	SEGMENT
?system@?1??systemIsShowOutline@@YAPAU_object@@PAU2@0@Z@4AAVCPythonSystem@@A DD 01H DUP (?) ; `systemIsShowOutline'::`2'::system
_BSS	ENDS
;	COMDAT ?$TSS0@?1??systemSetShowOutlineFlag@@YAPAU_object@@PAU2@0@Z@4HA
_BSS	SEGMENT
?$TSS0@?1??systemSetShowOutlineFlag@@YAPAU_object@@PAU2@0@Z@4HA DD 01H DUP (?) ; `systemSetShowOutlineFlag'::`2'::$TSS0
_BSS	ENDS
;	COMDAT ?system@?1??systemSetShowOutlineFlag@@YAPAU_object@@PAU2@0@Z@4AAVCPythonSystem@@A
_BSS	SEGMENT
?system@?1??systemSetShowOutlineFlag@@YAPAU_object@@PAU2@0@Z@4AAVCPythonSystem@@A DD 01H DUP (?) ; `systemSetShowOutlineFlag'::`2'::system
_BSS	ENDS
;	COMDAT xdata$x
xdata$x	SEGMENT
__ehfuncinfo$?systemReserveResource@@YAPAU_object@@PAU1@0@Z DQ 00000000119930522r ; 2.33398e-314
	DD	FLAT:__unwindtable$?systemReserveResource@@YAPAU_object@@PAU1@0@Z
	DQ	00000000000000000r		; 0
	DQ	00000000000000000r		; 0
	DQ	00000000100000000r		; 2.122e-314
__unwindtable$?systemReserveResource@@YAPAU_object@@PAU1@0@Z DD 0ffffffffH
	DD	FLAT:__unwindfunclet$?systemReserveResource@@YAPAU_object@@PAU1@0@Z$0
; Function compile flags: /Ogtp
; File C:\Anka2Project\Anka2Project\Source\Binary\source\UserInterface\PythonSystemModule.cpp
; File C:\Anka2Project\Anka2Project\Source\Binary\source\eterBase\Singleton.h
; File C:\Anka2Project\Anka2Project\Source\Binary\source\UserInterface\PythonSystemModule.cpp
;	COMDAT ?systemGetWidth@@YAPAU_object@@PAU1@0@Z
_TEXT	SEGMENT
_poSelf$ = 8						; size = 4
_poArgs$ = 12						; size = 4
?systemGetWidth@@YAPAU_object@@PAU1@0@Z PROC		; systemGetWidth, COMDAT
; File C:\Anka2Project\Anka2Project\Source\Binary\source\eterBase\Singleton.h

; 26   : 		assert(ms_singleton);

  00000	8b 0d 00 00 00
	00		 mov	 ecx, DWORD PTR ?ms_singleton@?$CSingleton@VCPythonSystem@@@@0PAVCPythonSystem@@A ; CSingleton<CPythonSystem>::ms_singleton
  00006	85 c9		 test	 ecx, ecx
  00008	75 1a		 jne	 SHORT $LN5@systemGetW
  0000a	6a 1a		 push	 26			; 0000001aH
  0000c	68 00 00 00 00	 push	 OFFSET ??_C@_1IO@CAJLEEOI@?$AAC?$AA?3?$AA?2?$AAA?$AAn?$AAk?$AAa?$AA2?$AAP?$AAr?$AAo?$AAj?$AAe?$AAc?$AAt@
  00011	68 00 00 00 00	 push	 OFFSET ??_C@_1BK@FMEHPMFE@?$AAm?$AAs?$AA_?$AAs?$AAi?$AAn?$AAg?$AAl?$AAe?$AAt?$AAo?$AAn@
  00016	e8 00 00 00 00	 call	 __wassert
  0001b	8b 0d 00 00 00
	00		 mov	 ecx, DWORD PTR ?ms_singleton@?$CSingleton@VCPythonSystem@@@@0PAVCPythonSystem@@A ; CSingleton<CPythonSystem>::ms_singleton
  00021	83 c4 0c	 add	 esp, 12			; 0000000cH
$LN5@systemGetW:
; File C:\Anka2Project\Anka2Project\Source\Binary\source\UserInterface\PythonSystemModule.cpp

; 8    : 	return Py_BuildValue("i", CPythonSystem::Instance().GetWidth());

  00024	e8 00 00 00 00	 call	 ?GetWidth@CPythonSystem@@QAEKXZ ; CPythonSystem::GetWidth
  00029	50		 push	 eax
  0002a	68 00 00 00 00	 push	 OFFSET ??_C@_01KBJDNOO@i@
  0002f	ff 15 00 00 00
	00		 call	 DWORD PTR __imp__Py_BuildValue
  00035	83 c4 08	 add	 esp, 8

; 9    : }

  00038	c3		 ret	 0
?systemGetWidth@@YAPAU_object@@PAU1@0@Z ENDP		; systemGetWidth
_TEXT	ENDS
; Function compile flags: /Ogtp
; File C:\Anka2Project\Anka2Project\Source\Binary\source\UserInterface\PythonSystemModule.cpp
; File C:\Anka2Project\Anka2Project\Source\Binary\source\eterBase\Singleton.h
; File C:\Anka2Project\Anka2Project\Source\Binary\source\UserInterface\PythonSystemModule.cpp
;	COMDAT ?systemGetHeight@@YAPAU_object@@PAU1@0@Z
_TEXT	SEGMENT
_poSelf$ = 8						; size = 4
_poArgs$ = 12						; size = 4
?systemGetHeight@@YAPAU_object@@PAU1@0@Z PROC		; systemGetHeight, COMDAT
; File C:\Anka2Project\Anka2Project\Source\Binary\source\eterBase\Singleton.h

; 26   : 		assert(ms_singleton);

  00000	8b 0d 00 00 00
	00		 mov	 ecx, DWORD PTR ?ms_singleton@?$CSingleton@VCPythonSystem@@@@0PAVCPythonSystem@@A ; CSingleton<CPythonSystem>::ms_singleton
  00006	85 c9		 test	 ecx, ecx
  00008	75 1a		 jne	 SHORT $LN5@systemGetH
  0000a	6a 1a		 push	 26			; 0000001aH
  0000c	68 00 00 00 00	 push	 OFFSET ??_C@_1IO@CAJLEEOI@?$AAC?$AA?3?$AA?2?$AAA?$AAn?$AAk?$AAa?$AA2?$AAP?$AAr?$AAo?$AAj?$AAe?$AAc?$AAt@
  00011	68 00 00 00 00	 push	 OFFSET ??_C@_1BK@FMEHPMFE@?$AAm?$AAs?$AA_?$AAs?$AAi?$AAn?$AAg?$AAl?$AAe?$AAt?$AAo?$AAn@
  00016	e8 00 00 00 00	 call	 __wassert
  0001b	8b 0d 00 00 00
	00		 mov	 ecx, DWORD PTR ?ms_singleton@?$CSingleton@VCPythonSystem@@@@0PAVCPythonSystem@@A ; CSingleton<CPythonSystem>::ms_singleton
  00021	83 c4 0c	 add	 esp, 12			; 0000000cH
$LN5@systemGetH:
; File C:\Anka2Project\Anka2Project\Source\Binary\source\UserInterface\PythonSystemModule.cpp

; 13   : 	return Py_BuildValue("i", CPythonSystem::Instance().GetHeight());

  00024	e8 00 00 00 00	 call	 ?GetHeight@CPythonSystem@@QAEKXZ ; CPythonSystem::GetHeight
  00029	50		 push	 eax
  0002a	68 00 00 00 00	 push	 OFFSET ??_C@_01KBJDNOO@i@
  0002f	ff 15 00 00 00
	00		 call	 DWORD PTR __imp__Py_BuildValue
  00035	83 c4 08	 add	 esp, 8

; 14   : }

  00038	c3		 ret	 0
?systemGetHeight@@YAPAU_object@@PAU1@0@Z ENDP		; systemGetHeight
_TEXT	ENDS
; Function compile flags: /Ogtp
; File C:\Anka2Project\Anka2Project\Source\Binary\source\UserInterface\PythonSystemModule.cpp
; File C:\Anka2Project\Anka2Project\Source\Binary\source\eterBase\Singleton.h
; File C:\Anka2Project\Anka2Project\Source\Binary\source\UserInterface\PythonSystemModule.cpp
;	COMDAT ?systemisInterfaceConfig@@YAPAU_object@@PAU1@0@Z
_TEXT	SEGMENT
_poSelf$ = 8						; size = 4
_poArgs$ = 12						; size = 4
?systemisInterfaceConfig@@YAPAU_object@@PAU1@0@Z PROC	; systemisInterfaceConfig, COMDAT
; File C:\Anka2Project\Anka2Project\Source\Binary\source\eterBase\Singleton.h

; 26   : 		assert(ms_singleton);

  00000	8b 0d 00 00 00
	00		 mov	 ecx, DWORD PTR ?ms_singleton@?$CSingleton@VCPythonSystem@@@@0PAVCPythonSystem@@A ; CSingleton<CPythonSystem>::ms_singleton
  00006	85 c9		 test	 ecx, ecx
  00008	75 1a		 jne	 SHORT $LN5@systemisIn
  0000a	6a 1a		 push	 26			; 0000001aH
  0000c	68 00 00 00 00	 push	 OFFSET ??_C@_1IO@CAJLEEOI@?$AAC?$AA?3?$AA?2?$AAA?$AAn?$AAk?$AAa?$AA2?$AAP?$AAr?$AAo?$AAj?$AAe?$AAc?$AAt@
  00011	68 00 00 00 00	 push	 OFFSET ??_C@_1BK@FMEHPMFE@?$AAm?$AAs?$AA_?$AAs?$AAi?$AAn?$AAg?$AAl?$AAe?$AAt?$AAo?$AAn@
  00016	e8 00 00 00 00	 call	 __wassert
  0001b	8b 0d 00 00 00
	00		 mov	 ecx, DWORD PTR ?ms_singleton@?$CSingleton@VCPythonSystem@@@@0PAVCPythonSystem@@A ; CSingleton<CPythonSystem>::ms_singleton
  00021	83 c4 0c	 add	 esp, 12			; 0000000cH
$LN5@systemisIn:
; File C:\Anka2Project\Anka2Project\Source\Binary\source\UserInterface\PythonSystemModule.cpp

; 41   : 	int isInterfaceConfig = CPythonSystem::Instance().isInterfaceConfig();

  00024	e8 00 00 00 00	 call	 ?isInterfaceConfig@CPythonSystem@@QAE_NXZ ; CPythonSystem::isInterfaceConfig
  00029	0f b6 c0	 movzx	 eax, al

; 42   : 	return Py_BuildValue("i", isInterfaceConfig);

  0002c	50		 push	 eax
  0002d	68 00 00 00 00	 push	 OFFSET ??_C@_01KBJDNOO@i@
  00032	ff 15 00 00 00
	00		 call	 DWORD PTR __imp__Py_BuildValue
  00038	83 c4 08	 add	 esp, 8

; 43   : }

  0003b	c3		 ret	 0
?systemisInterfaceConfig@@YAPAU_object@@PAU1@0@Z ENDP	; systemisInterfaceConfig
_TEXT	ENDS
; Function compile flags: /Ogtp
; File C:\Anka2Project\Anka2Project\Source\Binary\source\UserInterface\PythonSystemModule.cpp
; File C:\Anka2Project\Anka2Project\Source\Binary\source\eterBase\Singleton.h
; File C:\Anka2Project\Anka2Project\Source\Binary\source\UserInterface\PythonSystemModule.cpp
;	COMDAT ?systemGetWindowStatus@@YAPAU_object@@PAU1@0@Z
_TEXT	SEGMENT
_iIndex$ = -4						; size = 4
_poSelf$ = 8						; size = 4
_poArgs$ = 12						; size = 4
?systemGetWindowStatus@@YAPAU_object@@PAU1@0@Z PROC	; systemGetWindowStatus, COMDAT

; 76   : {

  00000	55		 push	 ebp
  00001	8b ec		 mov	 ebp, esp
  00003	51		 push	 ecx

; 77   : 	int iIndex;
; 78   : 	if (!PyTuple_GetInteger(poArgs, 0, &iIndex))

  00004	8d 45 fc	 lea	 eax, DWORD PTR _iIndex$[ebp]
  00007	50		 push	 eax
  00008	6a 00		 push	 0
  0000a	ff 75 0c	 push	 DWORD PTR _poArgs$[ebp]
  0000d	e8 00 00 00 00	 call	 ?PyTuple_GetInteger@@YA_NPAU_object@@HPAH@Z ; PyTuple_GetInteger
  00012	83 c4 0c	 add	 esp, 12			; 0000000cH
  00015	84 c0		 test	 al, al
  00017	75 0e		 jne	 SHORT $LN2@systemGetW

; 79   : 		return Py_BuildException();

  00019	6a 00		 push	 0
  0001b	e8 00 00 00 00	 call	 ?Py_BuildException@@YAPAU_object@@PBDZZ ; Py_BuildException
  00020	83 c4 04	 add	 esp, 4

; 83   : 								  c_rWindowStatus.isMinimized,
; 84   : 								  c_rWindowStatus.ixPosition,
; 85   : 								  c_rWindowStatus.iyPosition,
; 86   : 								  c_rWindowStatus.iHeight);
; 87   : }

  00023	8b e5		 mov	 esp, ebp
  00025	5d		 pop	 ebp
  00026	c3		 ret	 0
$LN2@systemGetW:
; File C:\Anka2Project\Anka2Project\Source\Binary\source\eterBase\Singleton.h

; 26   : 		assert(ms_singleton);

  00027	8b 0d 00 00 00
	00		 mov	 ecx, DWORD PTR ?ms_singleton@?$CSingleton@VCPythonSystem@@@@0PAVCPythonSystem@@A ; CSingleton<CPythonSystem>::ms_singleton
  0002d	85 c9		 test	 ecx, ecx
  0002f	75 1a		 jne	 SHORT $LN6@systemGetW
  00031	6a 1a		 push	 26			; 0000001aH
  00033	68 00 00 00 00	 push	 OFFSET ??_C@_1IO@CAJLEEOI@?$AAC?$AA?3?$AA?2?$AAA?$AAn?$AAk?$AAa?$AA2?$AAP?$AAr?$AAo?$AAj?$AAe?$AAc?$AAt@
  00038	68 00 00 00 00	 push	 OFFSET ??_C@_1BK@FMEHPMFE@?$AAm?$AAs?$AA_?$AAs?$AAi?$AAn?$AAg?$AAl?$AAe?$AAt?$AAo?$AAn@
  0003d	e8 00 00 00 00	 call	 __wassert
  00042	8b 0d 00 00 00
	00		 mov	 ecx, DWORD PTR ?ms_singleton@?$CSingleton@VCPythonSystem@@@@0PAVCPythonSystem@@A ; CSingleton<CPythonSystem>::ms_singleton
  00048	83 c4 0c	 add	 esp, 12			; 0000000cH
$LN6@systemGetW:
; File C:\Anka2Project\Anka2Project\Source\Binary\source\UserInterface\PythonSystemModule.cpp

; 81   : 	const CPythonSystem::TWindowStatus & c_rWindowStatus = CPythonSystem::Instance().GetWindowStatusReference(iIndex);

  0004b	ff 75 fc	 push	 DWORD PTR _iIndex$[ebp]
  0004e	e8 00 00 00 00	 call	 ?GetWindowStatusReference@CPythonSystem@@QAEABUSWindowStatus@1@H@Z ; CPythonSystem::GetWindowStatusReference

; 82   : 	return Py_BuildValue("iiiii", c_rWindowStatus.isVisible,

  00053	ff 70 10	 push	 DWORD PTR [eax+16]
  00056	ff 70 0c	 push	 DWORD PTR [eax+12]
  00059	ff 70 08	 push	 DWORD PTR [eax+8]
  0005c	ff 70 04	 push	 DWORD PTR [eax+4]
  0005f	ff 30		 push	 DWORD PTR [eax]
  00061	68 00 00 00 00	 push	 OFFSET ??_C@_05EAPDINDK@iiiii@
  00066	ff 15 00 00 00
	00		 call	 DWORD PTR __imp__Py_BuildValue
  0006c	83 c4 18	 add	 esp, 24			; 00000018H

; 83   : 								  c_rWindowStatus.isMinimized,
; 84   : 								  c_rWindowStatus.ixPosition,
; 85   : 								  c_rWindowStatus.iyPosition,
; 86   : 								  c_rWindowStatus.iHeight);
; 87   : }

  0006f	8b e5		 mov	 esp, ebp
  00071	5d		 pop	 ebp
  00072	c3		 ret	 0
?systemGetWindowStatus@@YAPAU_object@@PAU1@0@Z ENDP	; systemGetWindowStatus
_TEXT	ENDS
; Function compile flags: /Ogtp
; File C:\Anka2Project\Anka2Project\Source\Binary\source\UserInterface\PythonSystemModule.cpp
; File C:\Anka2Project\Anka2Project\Source\Binary\source\eterBase\Singleton.h
; File C:\Anka2Project\Anka2Project\Source\Binary\source\UserInterface\PythonSystemModule.cpp
; File C:\Anka2Project\Anka2Project\Source\Binary\source\eterBase\Singleton.h
; File C:\Anka2Project\Anka2Project\Source\Binary\source\UserInterface\PythonSystemModule.cpp
; File C:\Anka2Project\Anka2Project\Source\Binary\source\eterBase\Singleton.h
; File C:\Anka2Project\Anka2Project\Source\Binary\source\UserInterface\PythonSystemModule.cpp
; File C:\Anka2Project\Anka2Project\Source\Binary\source\eterBase\Singleton.h
; File C:\Anka2Project\Anka2Project\Source\Binary\source\UserInterface\PythonSystemModule.cpp
;	COMDAT ?systemGetConfig@@YAPAU_object@@PAU1@0@Z
_TEXT	SEGMENT
_poSelf$ = 8						; size = 4
_poArgs$ = 12						; size = 4
?systemGetConfig@@YAPAU_object@@PAU1@0@Z PROC		; systemGetConfig, COMDAT

; 90   : {

  00000	53		 push	 ebx
  00001	56		 push	 esi
; File C:\Anka2Project\Anka2Project\Source\Binary\source\eterBase\Singleton.h

; 26   : 		assert(ms_singleton);

  00002	8b 35 00 00 00
	00		 mov	 esi, DWORD PTR ?ms_singleton@?$CSingleton@VCPythonSystem@@@@0PAVCPythonSystem@@A ; CSingleton<CPythonSystem>::ms_singleton
; File C:\Anka2Project\Anka2Project\Source\Binary\source\UserInterface\PythonSystemModule.cpp

; 90   : {

  00008	57		 push	 edi
; File C:\Anka2Project\Anka2Project\Source\Binary\source\eterBase\Singleton.h

; 26   : 		assert(ms_singleton);

  00009	85 f6		 test	 esi, esi
  0000b	75 1a		 jne	 SHORT $LN5@systemGetC
  0000d	6a 1a		 push	 26			; 0000001aH
  0000f	68 00 00 00 00	 push	 OFFSET ??_C@_1IO@CAJLEEOI@?$AAC?$AA?3?$AA?2?$AAA?$AAn?$AAk?$AAa?$AA2?$AAP?$AAr?$AAo?$AAj?$AAe?$AAc?$AAt@
  00014	68 00 00 00 00	 push	 OFFSET ??_C@_1BK@FMEHPMFE@?$AAm?$AAs?$AA_?$AAs?$AAi?$AAn?$AAg?$AAl?$AAe?$AAt?$AAo?$AAn@
  00019	e8 00 00 00 00	 call	 __wassert
  0001e	8b 35 00 00 00
	00		 mov	 esi, DWORD PTR ?ms_singleton@?$CSingleton@VCPythonSystem@@@@0PAVCPythonSystem@@A ; CSingleton<CPythonSystem>::ms_singleton
  00024	83 c4 0c	 add	 esp, 12			; 0000000cH
$LN5@systemGetC:
; File C:\Anka2Project\Anka2Project\Source\Binary\source\UserInterface\PythonSystemModule.cpp

; 91   : 	CPythonSystem::TConfig *tmp = CPythonSystem::Instance().GetConfig();

  00027	8b ce		 mov	 ecx, esi
  00029	e8 00 00 00 00	 call	 ?GetConfig@CPythonSystem@@QAEPAUSConfig@1@XZ ; CPythonSystem::GetConfig
  0002e	8b f8		 mov	 edi, eax
; File C:\Anka2Project\Anka2Project\Source\Binary\source\eterBase\Singleton.h

; 26   : 		assert(ms_singleton);

  00030	85 f6		 test	 esi, esi
  00032	75 1a		 jne	 SHORT $LN8@systemGetC
  00034	6a 1a		 push	 26			; 0000001aH
  00036	68 00 00 00 00	 push	 OFFSET ??_C@_1IO@CAJLEEOI@?$AAC?$AA?3?$AA?2?$AAA?$AAn?$AAk?$AAa?$AA2?$AAP?$AAr?$AAo?$AAj?$AAe?$AAc?$AAt@
  0003b	68 00 00 00 00	 push	 OFFSET ??_C@_1BK@FMEHPMFE@?$AAm?$AAs?$AA_?$AAs?$AAi?$AAn?$AAg?$AAl?$AAe?$AAt?$AAo?$AAn@
  00040	e8 00 00 00 00	 call	 __wassert
  00045	8b 35 00 00 00
	00		 mov	 esi, DWORD PTR ?ms_singleton@?$CSingleton@VCPythonSystem@@@@0PAVCPythonSystem@@A ; CSingleton<CPythonSystem>::ms_singleton
  0004b	83 c4 0c	 add	 esp, 12			; 0000000cH
$LN8@systemGetC:
; File C:\Anka2Project\Anka2Project\Source\Binary\source\UserInterface\PythonSystemModule.cpp

; 93   : 	int iRes = CPythonSystem::Instance().GetResolutionIndex(tmp->width, tmp->height, tmp->bpp);

  0004e	ff 77 08	 push	 DWORD PTR [edi+8]
  00051	8b ce		 mov	 ecx, esi
  00053	ff 77 04	 push	 DWORD PTR [edi+4]
  00056	ff 37		 push	 DWORD PTR [edi]
  00058	e8 00 00 00 00	 call	 ?GetResolutionIndex@CPythonSystem@@QAEHKKK@Z ; CPythonSystem::GetResolutionIndex
  0005d	8b d8		 mov	 ebx, eax
; File C:\Anka2Project\Anka2Project\Source\Binary\source\eterBase\Singleton.h

; 26   : 		assert(ms_singleton);

  0005f	85 f6		 test	 esi, esi
  00061	75 1a		 jne	 SHORT $LN11@systemGetC
  00063	6a 1a		 push	 26			; 0000001aH
  00065	68 00 00 00 00	 push	 OFFSET ??_C@_1IO@CAJLEEOI@?$AAC?$AA?3?$AA?2?$AAA?$AAn?$AAk?$AAa?$AA2?$AAP?$AAr?$AAo?$AAj?$AAe?$AAc?$AAt@
  0006a	68 00 00 00 00	 push	 OFFSET ??_C@_1BK@FMEHPMFE@?$AAm?$AAs?$AA_?$AAs?$AAi?$AAn?$AAg?$AAl?$AAe?$AAt?$AAo?$AAn@
  0006f	e8 00 00 00 00	 call	 __wassert
  00074	8b 35 00 00 00
	00		 mov	 esi, DWORD PTR ?ms_singleton@?$CSingleton@VCPythonSystem@@@@0PAVCPythonSystem@@A ; CSingleton<CPythonSystem>::ms_singleton
  0007a	83 c4 0c	 add	 esp, 12			; 0000000cH
$LN11@systemGetC:
; File C:\Anka2Project\Anka2Project\Source\Binary\source\UserInterface\PythonSystemModule.cpp

; 94   : 	int iFrequency = CPythonSystem::Instance().GetFrequencyIndex(iRes, tmp->frequency);

  0007d	ff 77 0c	 push	 DWORD PTR [edi+12]
  00080	8b ce		 mov	 ecx, esi
  00082	53		 push	 ebx
  00083	e8 00 00 00 00	 call	 ?GetFrequencyIndex@CPythonSystem@@QAEHHK@Z ; CPythonSystem::GetFrequencyIndex

; 95   : 
; 96   : 	return Py_BuildValue("iiiiiiii",  iRes,

  00088	ff 77 14	 push	 DWORD PTR [edi+20]
  0008b	f3 0f 10 47 1c	 movss	 xmm0, DWORD PTR [edi+28]
  00090	8b d0		 mov	 edx, eax
  00092	ff 77 24	 push	 DWORD PTR [edi+36]
  00095	0f b6 4f 20	 movzx	 ecx, BYTE PTR [edi+32]
  00099	0f b6 47 11	 movzx	 eax, BYTE PTR [edi+17]
  0009d	51		 push	 ecx
  0009e	83 ec 08	 sub	 esp, 8
  000a1	0f 5a c0	 cvtps2pd xmm0, xmm0
  000a4	f2 0f 11 04 24	 movsd	 QWORD PTR [esp], xmm0
  000a9	50		 push	 eax
  000aa	0f b6 47 10	 movzx	 eax, BYTE PTR [edi+16]
  000ae	50		 push	 eax
  000af	52		 push	 edx
  000b0	53		 push	 ebx
  000b1	68 00 00 00 00	 push	 OFFSET ??_C@_08DGHCLNGO@iiiiiiii@
  000b6	ff 15 00 00 00
	00		 call	 DWORD PTR __imp__Py_BuildValue
  000bc	83 c4 28	 add	 esp, 40			; 00000028H
  000bf	5f		 pop	 edi
  000c0	5e		 pop	 esi
  000c1	5b		 pop	 ebx

; 97   : 									  iFrequency,
; 98   : 									  tmp->is_software_cursor,
; 99   : 									  tmp->is_object_culling,
; 100  : 									  tmp->music_volume,
; 101  : 									  tmp->voice_volume,
; 102  : 									  tmp->gamma,
; 103  : 									  tmp->iDistance);
; 104  : }

  000c2	c3		 ret	 0
?systemGetConfig@@YAPAU_object@@PAU1@0@Z ENDP		; systemGetConfig
_TEXT	ENDS
; Function compile flags: /Ogtp
; File C:\Anka2Project\Anka2Project\Source\Binary\source\UserInterface\PythonSystemModule.cpp
; File C:\Anka2Project\Anka2Project\Source\Binary\source\eterBase\Singleton.h
; File C:\Anka2Project\Anka2Project\Source\Binary\source\UserInterface\PythonSystemModule.cpp
;	COMDAT ?systemisSaveID@@YAPAU_object@@PAU1@0@Z
_TEXT	SEGMENT
_poSelf$ = 8						; size = 4
_poArgs$ = 12						; size = 4
?systemisSaveID@@YAPAU_object@@PAU1@0@Z PROC		; systemisSaveID, COMDAT
; File C:\Anka2Project\Anka2Project\Source\Binary\source\eterBase\Singleton.h

; 26   : 		assert(ms_singleton);

  00000	8b 0d 00 00 00
	00		 mov	 ecx, DWORD PTR ?ms_singleton@?$CSingleton@VCPythonSystem@@@@0PAVCPythonSystem@@A ; CSingleton<CPythonSystem>::ms_singleton
  00006	85 c9		 test	 ecx, ecx
  00008	75 1a		 jne	 SHORT $LN5@systemisSa
  0000a	6a 1a		 push	 26			; 0000001aH
  0000c	68 00 00 00 00	 push	 OFFSET ??_C@_1IO@CAJLEEOI@?$AAC?$AA?3?$AA?2?$AAA?$AAn?$AAk?$AAa?$AA2?$AAP?$AAr?$AAo?$AAj?$AAe?$AAc?$AAt@
  00011	68 00 00 00 00	 push	 OFFSET ??_C@_1BK@FMEHPMFE@?$AAm?$AAs?$AA_?$AAs?$AAi?$AAn?$AAg?$AAl?$AAe?$AAt?$AAo?$AAn@
  00016	e8 00 00 00 00	 call	 __wassert
  0001b	8b 0d 00 00 00
	00		 mov	 ecx, DWORD PTR ?ms_singleton@?$CSingleton@VCPythonSystem@@@@0PAVCPythonSystem@@A ; CSingleton<CPythonSystem>::ms_singleton
  00021	83 c4 0c	 add	 esp, 12			; 0000000cH
$LN5@systemisSa:
; File C:\Anka2Project\Anka2Project\Source\Binary\source\UserInterface\PythonSystemModule.cpp

; 122  : 	int value = CPythonSystem::Instance().IsSaveID();

  00024	e8 00 00 00 00	 call	 ?IsSaveID@CPythonSystem@@QAEHXZ ; CPythonSystem::IsSaveID

; 123  : 	return Py_BuildValue("i", value);

  00029	50		 push	 eax
  0002a	68 00 00 00 00	 push	 OFFSET ??_C@_01KBJDNOO@i@
  0002f	ff 15 00 00 00
	00		 call	 DWORD PTR __imp__Py_BuildValue
  00035	83 c4 08	 add	 esp, 8

; 124  : }

  00038	c3		 ret	 0
?systemisSaveID@@YAPAU_object@@PAU1@0@Z ENDP		; systemisSaveID
_TEXT	ENDS
; Function compile flags: /Ogtp
; File C:\Anka2Project\Anka2Project\Source\Binary\source\UserInterface\PythonSystemModule.cpp
; File C:\Anka2Project\Anka2Project\Source\Binary\source\eterBase\Singleton.h
; File C:\Anka2Project\Anka2Project\Source\Binary\source\UserInterface\PythonSystemModule.cpp
;	COMDAT ?systemGetSaveID@@YAPAU_object@@PAU1@0@Z
_TEXT	SEGMENT
_poSelf$ = 8						; size = 4
_poArgs$ = 12						; size = 4
?systemGetSaveID@@YAPAU_object@@PAU1@0@Z PROC		; systemGetSaveID, COMDAT
; File C:\Anka2Project\Anka2Project\Source\Binary\source\eterBase\Singleton.h

; 26   : 		assert(ms_singleton);

  00000	8b 0d 00 00 00
	00		 mov	 ecx, DWORD PTR ?ms_singleton@?$CSingleton@VCPythonSystem@@@@0PAVCPythonSystem@@A ; CSingleton<CPythonSystem>::ms_singleton
  00006	85 c9		 test	 ecx, ecx
  00008	75 1a		 jne	 SHORT $LN5@systemGetS
  0000a	6a 1a		 push	 26			; 0000001aH
  0000c	68 00 00 00 00	 push	 OFFSET ??_C@_1IO@CAJLEEOI@?$AAC?$AA?3?$AA?2?$AAA?$AAn?$AAk?$AAa?$AA2?$AAP?$AAr?$AAo?$AAj?$AAe?$AAc?$AAt@
  00011	68 00 00 00 00	 push	 OFFSET ??_C@_1BK@FMEHPMFE@?$AAm?$AAs?$AA_?$AAs?$AAi?$AAn?$AAg?$AAl?$AAe?$AAt?$AAo?$AAn@
  00016	e8 00 00 00 00	 call	 __wassert
  0001b	8b 0d 00 00 00
	00		 mov	 ecx, DWORD PTR ?ms_singleton@?$CSingleton@VCPythonSystem@@@@0PAVCPythonSystem@@A ; CSingleton<CPythonSystem>::ms_singleton
  00021	83 c4 0c	 add	 esp, 12			; 0000000cH
$LN5@systemGetS:
; File C:\Anka2Project\Anka2Project\Source\Binary\source\UserInterface\PythonSystemModule.cpp

; 128  : 	const char *c_szSaveID = CPythonSystem::Instance().GetSaveID();

  00024	e8 00 00 00 00	 call	 ?GetSaveID@CPythonSystem@@QAEPBDXZ ; CPythonSystem::GetSaveID

; 129  : 	return Py_BuildValue("s", c_szSaveID);

  00029	50		 push	 eax
  0002a	68 00 00 00 00	 push	 OFFSET ??_C@_01LKDEMHDF@s@
  0002f	ff 15 00 00 00
	00		 call	 DWORD PTR __imp__Py_BuildValue
  00035	83 c4 08	 add	 esp, 8

; 130  : }

  00038	c3		 ret	 0
?systemGetSaveID@@YAPAU_object@@PAU1@0@Z ENDP		; systemGetSaveID
_TEXT	ENDS
; Function compile flags: /Ogtp
; File C:\Anka2Project\Anka2Project\Source\Binary\source\UserInterface\PythonSystemModule.cpp
; File C:\Anka2Project\Anka2Project\Source\Binary\source\eterBase\Singleton.h
; File C:\Anka2Project\Anka2Project\Source\Binary\source\UserInterface\PythonSystemModule.cpp
;	COMDAT ?systemGetMusicVolume@@YAPAU_object@@PAU1@0@Z
_TEXT	SEGMENT
_poSelf$ = 8						; size = 4
_poArgs$ = 12						; size = 4
?systemGetMusicVolume@@YAPAU_object@@PAU1@0@Z PROC	; systemGetMusicVolume, COMDAT
; File C:\Anka2Project\Anka2Project\Source\Binary\source\eterBase\Singleton.h

; 26   : 		assert(ms_singleton);

  00000	8b 0d 00 00 00
	00		 mov	 ecx, DWORD PTR ?ms_singleton@?$CSingleton@VCPythonSystem@@@@0PAVCPythonSystem@@A ; CSingleton<CPythonSystem>::ms_singleton
  00006	85 c9		 test	 ecx, ecx
  00008	75 1a		 jne	 SHORT $LN5@systemGetM
  0000a	6a 1a		 push	 26			; 0000001aH
  0000c	68 00 00 00 00	 push	 OFFSET ??_C@_1IO@CAJLEEOI@?$AAC?$AA?3?$AA?2?$AAA?$AAn?$AAk?$AAa?$AA2?$AAP?$AAr?$AAo?$AAj?$AAe?$AAc?$AAt@
  00011	68 00 00 00 00	 push	 OFFSET ??_C@_1BK@FMEHPMFE@?$AAm?$AAs?$AA_?$AAs?$AAi?$AAn?$AAg?$AAl?$AAe?$AAt?$AAo?$AAn@
  00016	e8 00 00 00 00	 call	 __wassert
  0001b	8b 0d 00 00 00
	00		 mov	 ecx, DWORD PTR ?ms_singleton@?$CSingleton@VCPythonSystem@@@@0PAVCPythonSystem@@A ; CSingleton<CPythonSystem>::ms_singleton
  00021	83 c4 0c	 add	 esp, 12			; 0000000cH
$LN5@systemGetM:
; File C:\Anka2Project\Anka2Project\Source\Binary\source\UserInterface\PythonSystemModule.cpp

; 134  : 	return Py_BuildValue("f", CPythonSystem::Instance().GetMusicVolume());

  00024	e8 00 00 00 00	 call	 ?GetMusicVolume@CPythonSystem@@QAEMXZ ; CPythonSystem::GetMusicVolume
  00029	f3 0f 5a c0	 cvtss2sd xmm0, xmm0
  0002d	83 ec 08	 sub	 esp, 8
  00030	f2 0f 11 04 24	 movsd	 QWORD PTR [esp], xmm0
  00035	68 00 00 00 00	 push	 OFFSET ??_C@_01INIBCBCB@f@
  0003a	ff 15 00 00 00
	00		 call	 DWORD PTR __imp__Py_BuildValue
  00040	83 c4 0c	 add	 esp, 12			; 0000000cH

; 135  : }

  00043	c3		 ret	 0
?systemGetMusicVolume@@YAPAU_object@@PAU1@0@Z ENDP	; systemGetMusicVolume
_TEXT	ENDS
; Function compile flags: /Ogtp
; File C:\Anka2Project\Anka2Project\Source\Binary\source\UserInterface\PythonSystemModule.cpp
; File C:\Anka2Project\Anka2Project\Source\Binary\source\eterBase\Singleton.h
; File C:\Anka2Project\Anka2Project\Source\Binary\source\UserInterface\PythonSystemModule.cpp
;	COMDAT ?systemGetSoundVolume@@YAPAU_object@@PAU1@0@Z
_TEXT	SEGMENT
_poSelf$ = 8						; size = 4
_poArgs$ = 12						; size = 4
?systemGetSoundVolume@@YAPAU_object@@PAU1@0@Z PROC	; systemGetSoundVolume, COMDAT
; File C:\Anka2Project\Anka2Project\Source\Binary\source\eterBase\Singleton.h

; 26   : 		assert(ms_singleton);

  00000	8b 0d 00 00 00
	00		 mov	 ecx, DWORD PTR ?ms_singleton@?$CSingleton@VCPythonSystem@@@@0PAVCPythonSystem@@A ; CSingleton<CPythonSystem>::ms_singleton
  00006	85 c9		 test	 ecx, ecx
  00008	75 1a		 jne	 SHORT $LN5@systemGetS
  0000a	6a 1a		 push	 26			; 0000001aH
  0000c	68 00 00 00 00	 push	 OFFSET ??_C@_1IO@CAJLEEOI@?$AAC?$AA?3?$AA?2?$AAA?$AAn?$AAk?$AAa?$AA2?$AAP?$AAr?$AAo?$AAj?$AAe?$AAc?$AAt@
  00011	68 00 00 00 00	 push	 OFFSET ??_C@_1BK@FMEHPMFE@?$AAm?$AAs?$AA_?$AAs?$AAi?$AAn?$AAg?$AAl?$AAe?$AAt?$AAo?$AAn@
  00016	e8 00 00 00 00	 call	 __wassert
  0001b	8b 0d 00 00 00
	00		 mov	 ecx, DWORD PTR ?ms_singleton@?$CSingleton@VCPythonSystem@@@@0PAVCPythonSystem@@A ; CSingleton<CPythonSystem>::ms_singleton
  00021	83 c4 0c	 add	 esp, 12			; 0000000cH
$LN5@systemGetS:
; File C:\Anka2Project\Anka2Project\Source\Binary\source\UserInterface\PythonSystemModule.cpp

; 139  : 	return Py_BuildValue("i", CPythonSystem::Instance().GetSoundVolume());

  00024	e8 00 00 00 00	 call	 ?GetSoundVolume@CPythonSystem@@QAEHXZ ; CPythonSystem::GetSoundVolume
  00029	50		 push	 eax
  0002a	68 00 00 00 00	 push	 OFFSET ??_C@_01KBJDNOO@i@
  0002f	ff 15 00 00 00
	00		 call	 DWORD PTR __imp__Py_BuildValue
  00035	83 c4 08	 add	 esp, 8

; 140  : }

  00038	c3		 ret	 0
?systemGetSoundVolume@@YAPAU_object@@PAU1@0@Z ENDP	; systemGetSoundVolume
_TEXT	ENDS
; Function compile flags: /Ogtp
; File C:\Anka2Project\Anka2Project\Source\Binary\source\UserInterface\PythonSystemModule.cpp
; File C:\Anka2Project\Anka2Project\Source\Binary\source\eterBase\Singleton.h
; File C:\Anka2Project\Anka2Project\Source\Binary\source\UserInterface\PythonSystemModule.cpp
;	COMDAT ?systemIsSoftwareCursor@@YAPAU_object@@PAU1@0@Z
_TEXT	SEGMENT
_poSelf$ = 8						; size = 4
_poArgs$ = 12						; size = 4
?systemIsSoftwareCursor@@YAPAU_object@@PAU1@0@Z PROC	; systemIsSoftwareCursor, COMDAT
; File C:\Anka2Project\Anka2Project\Source\Binary\source\eterBase\Singleton.h

; 26   : 		assert(ms_singleton);

  00000	8b 0d 00 00 00
	00		 mov	 ecx, DWORD PTR ?ms_singleton@?$CSingleton@VCPythonSystem@@@@0PAVCPythonSystem@@A ; CSingleton<CPythonSystem>::ms_singleton
  00006	85 c9		 test	 ecx, ecx
  00008	75 1a		 jne	 SHORT $LN5@systemIsSo
  0000a	6a 1a		 push	 26			; 0000001aH
  0000c	68 00 00 00 00	 push	 OFFSET ??_C@_1IO@CAJLEEOI@?$AAC?$AA?3?$AA?2?$AAA?$AAn?$AAk?$AAa?$AA2?$AAP?$AAr?$AAo?$AAj?$AAe?$AAc?$AAt@
  00011	68 00 00 00 00	 push	 OFFSET ??_C@_1BK@FMEHPMFE@?$AAm?$AAs?$AA_?$AAs?$AAi?$AAn?$AAg?$AAl?$AAe?$AAt?$AAo?$AAn@
  00016	e8 00 00 00 00	 call	 __wassert
  0001b	8b 0d 00 00 00
	00		 mov	 ecx, DWORD PTR ?ms_singleton@?$CSingleton@VCPythonSystem@@@@0PAVCPythonSystem@@A ; CSingleton<CPythonSystem>::ms_singleton
  00021	83 c4 0c	 add	 esp, 12			; 0000000cH
$LN5@systemIsSo:
; File C:\Anka2Project\Anka2Project\Source\Binary\source\UserInterface\PythonSystemModule.cpp

; 164  : 	return Py_BuildValue("i", CPythonSystem::Instance().IsSoftwareCursor());

  00024	e8 00 00 00 00	 call	 ?IsSoftwareCursor@CPythonSystem@@QAE_NXZ ; CPythonSystem::IsSoftwareCursor
  00029	0f b6 c0	 movzx	 eax, al
  0002c	50		 push	 eax
  0002d	68 00 00 00 00	 push	 OFFSET ??_C@_01KBJDNOO@i@
  00032	ff 15 00 00 00
	00		 call	 DWORD PTR __imp__Py_BuildValue
  00038	83 c4 08	 add	 esp, 8

; 165  : }

  0003b	c3		 ret	 0
?systemIsSoftwareCursor@@YAPAU_object@@PAU1@0@Z ENDP	; systemIsSoftwareCursor
_TEXT	ENDS
; Function compile flags: /Ogtp
; File C:\Anka2Project\Anka2Project\Source\Binary\source\UserInterface\PythonSystemModule.cpp
; File C:\Anka2Project\Anka2Project\Source\Binary\source\eterBase\Singleton.h
; File C:\Anka2Project\Anka2Project\Source\Binary\source\UserInterface\PythonSystemModule.cpp
;	COMDAT ?systemIsViewChat@@YAPAU_object@@PAU1@0@Z
_TEXT	SEGMENT
_poSelf$ = 8						; size = 4
_poArgs$ = 12						; size = 4
?systemIsViewChat@@YAPAU_object@@PAU1@0@Z PROC		; systemIsViewChat, COMDAT
; File C:\Anka2Project\Anka2Project\Source\Binary\source\eterBase\Singleton.h

; 26   : 		assert(ms_singleton);

  00000	8b 0d 00 00 00
	00		 mov	 ecx, DWORD PTR ?ms_singleton@?$CSingleton@VCPythonSystem@@@@0PAVCPythonSystem@@A ; CSingleton<CPythonSystem>::ms_singleton
  00006	85 c9		 test	 ecx, ecx
  00008	75 1a		 jne	 SHORT $LN5@systemIsVi
  0000a	6a 1a		 push	 26			; 0000001aH
  0000c	68 00 00 00 00	 push	 OFFSET ??_C@_1IO@CAJLEEOI@?$AAC?$AA?3?$AA?2?$AAA?$AAn?$AAk?$AAa?$AA2?$AAP?$AAr?$AAo?$AAj?$AAe?$AAc?$AAt@
  00011	68 00 00 00 00	 push	 OFFSET ??_C@_1BK@FMEHPMFE@?$AAm?$AAs?$AA_?$AAs?$AAi?$AAn?$AAg?$AAl?$AAe?$AAt?$AAo?$AAn@
  00016	e8 00 00 00 00	 call	 __wassert
  0001b	8b 0d 00 00 00
	00		 mov	 ecx, DWORD PTR ?ms_singleton@?$CSingleton@VCPythonSystem@@@@0PAVCPythonSystem@@A ; CSingleton<CPythonSystem>::ms_singleton
  00021	83 c4 0c	 add	 esp, 12			; 0000000cH
$LN5@systemIsVi:
; File C:\Anka2Project\Anka2Project\Source\Binary\source\UserInterface\PythonSystemModule.cpp

; 180  : 	return Py_BuildValue("i", CPythonSystem::Instance().IsViewChat());

  00024	e8 00 00 00 00	 call	 ?IsViewChat@CPythonSystem@@QAE_NXZ ; CPythonSystem::IsViewChat
  00029	0f b6 c0	 movzx	 eax, al
  0002c	50		 push	 eax
  0002d	68 00 00 00 00	 push	 OFFSET ??_C@_01KBJDNOO@i@
  00032	ff 15 00 00 00
	00		 call	 DWORD PTR __imp__Py_BuildValue
  00038	83 c4 08	 add	 esp, 8

; 181  : }

  0003b	c3		 ret	 0
?systemIsViewChat@@YAPAU_object@@PAU1@0@Z ENDP		; systemIsViewChat
_TEXT	ENDS
; Function compile flags: /Ogtp
; File C:\Anka2Project\Anka2Project\Source\Binary\source\UserInterface\PythonSystemModule.cpp
; File C:\Anka2Project\Anka2Project\Source\Binary\source\eterBase\Singleton.h
; File C:\Anka2Project\Anka2Project\Source\Binary\source\UserInterface\PythonSystemModule.cpp
;	COMDAT ?systemIsAlwaysShowName@@YAPAU_object@@PAU1@0@Z
_TEXT	SEGMENT
_poSelf$ = 8						; size = 4
_poArgs$ = 12						; size = 4
?systemIsAlwaysShowName@@YAPAU_object@@PAU1@0@Z PROC	; systemIsAlwaysShowName, COMDAT
; File C:\Anka2Project\Anka2Project\Source\Binary\source\eterBase\Singleton.h

; 26   : 		assert(ms_singleton);

  00000	8b 0d 00 00 00
	00		 mov	 ecx, DWORD PTR ?ms_singleton@?$CSingleton@VCPythonSystem@@@@0PAVCPythonSystem@@A ; CSingleton<CPythonSystem>::ms_singleton
  00006	85 c9		 test	 ecx, ecx
  00008	75 1a		 jne	 SHORT $LN5@systemIsAl
  0000a	6a 1a		 push	 26			; 0000001aH
  0000c	68 00 00 00 00	 push	 OFFSET ??_C@_1IO@CAJLEEOI@?$AAC?$AA?3?$AA?2?$AAA?$AAn?$AAk?$AAa?$AA2?$AAP?$AAr?$AAo?$AAj?$AAe?$AAc?$AAt@
  00011	68 00 00 00 00	 push	 OFFSET ??_C@_1BK@FMEHPMFE@?$AAm?$AAs?$AA_?$AAs?$AAi?$AAn?$AAg?$AAl?$AAe?$AAt?$AAo?$AAn@
  00016	e8 00 00 00 00	 call	 __wassert
  0001b	8b 0d 00 00 00
	00		 mov	 ecx, DWORD PTR ?ms_singleton@?$CSingleton@VCPythonSystem@@@@0PAVCPythonSystem@@A ; CSingleton<CPythonSystem>::ms_singleton
  00021	83 c4 0c	 add	 esp, 12			; 0000000cH
$LN5@systemIsAl:
; File C:\Anka2Project\Anka2Project\Source\Binary\source\UserInterface\PythonSystemModule.cpp

; 218  : 	return Py_BuildValue("i", CPythonSystem::Instance().IsAlwaysShowName());

  00024	e8 00 00 00 00	 call	 ?IsAlwaysShowName@CPythonSystem@@QAE_NXZ ; CPythonSystem::IsAlwaysShowName
  00029	0f b6 c0	 movzx	 eax, al
  0002c	50		 push	 eax
  0002d	68 00 00 00 00	 push	 OFFSET ??_C@_01KBJDNOO@i@
  00032	ff 15 00 00 00
	00		 call	 DWORD PTR __imp__Py_BuildValue
  00038	83 c4 08	 add	 esp, 8

; 219  : }

  0003b	c3		 ret	 0
?systemIsAlwaysShowName@@YAPAU_object@@PAU1@0@Z ENDP	; systemIsAlwaysShowName
_TEXT	ENDS
; Function compile flags: /Ogtp
; File C:\Anka2Project\Anka2Project\Source\Binary\source\UserInterface\PythonSystemModule.cpp
; File C:\Anka2Project\Anka2Project\Source\Binary\source\eterBase\Singleton.h
; File C:\Anka2Project\Anka2Project\Source\Binary\source\UserInterface\PythonSystemModule.cpp
;	COMDAT ?systemIsShowDamage@@YAPAU_object@@PAU1@0@Z
_TEXT	SEGMENT
_poSelf$ = 8						; size = 4
_poArgs$ = 12						; size = 4
?systemIsShowDamage@@YAPAU_object@@PAU1@0@Z PROC	; systemIsShowDamage, COMDAT
; File C:\Anka2Project\Anka2Project\Source\Binary\source\eterBase\Singleton.h

; 26   : 		assert(ms_singleton);

  00000	8b 0d 00 00 00
	00		 mov	 ecx, DWORD PTR ?ms_singleton@?$CSingleton@VCPythonSystem@@@@0PAVCPythonSystem@@A ; CSingleton<CPythonSystem>::ms_singleton
  00006	85 c9		 test	 ecx, ecx
  00008	75 1a		 jne	 SHORT $LN5@systemIsSh
  0000a	6a 1a		 push	 26			; 0000001aH
  0000c	68 00 00 00 00	 push	 OFFSET ??_C@_1IO@CAJLEEOI@?$AAC?$AA?3?$AA?2?$AAA?$AAn?$AAk?$AAa?$AA2?$AAP?$AAr?$AAo?$AAj?$AAe?$AAc?$AAt@
  00011	68 00 00 00 00	 push	 OFFSET ??_C@_1BK@FMEHPMFE@?$AAm?$AAs?$AA_?$AAs?$AAi?$AAn?$AAg?$AAl?$AAe?$AAt?$AAo?$AAn@
  00016	e8 00 00 00 00	 call	 __wassert
  0001b	8b 0d 00 00 00
	00		 mov	 ecx, DWORD PTR ?ms_singleton@?$CSingleton@VCPythonSystem@@@@0PAVCPythonSystem@@A ; CSingleton<CPythonSystem>::ms_singleton
  00021	83 c4 0c	 add	 esp, 12			; 0000000cH
$LN5@systemIsSh:
; File C:\Anka2Project\Anka2Project\Source\Binary\source\UserInterface\PythonSystemModule.cpp

; 223  : 	return Py_BuildValue("i", CPythonSystem::Instance().IsShowDamage());

  00024	e8 00 00 00 00	 call	 ?IsShowDamage@CPythonSystem@@QAE_NXZ ; CPythonSystem::IsShowDamage
  00029	0f b6 c0	 movzx	 eax, al
  0002c	50		 push	 eax
  0002d	68 00 00 00 00	 push	 OFFSET ??_C@_01KBJDNOO@i@
  00032	ff 15 00 00 00
	00		 call	 DWORD PTR __imp__Py_BuildValue
  00038	83 c4 08	 add	 esp, 8

; 224  : }

  0003b	c3		 ret	 0
?systemIsShowDamage@@YAPAU_object@@PAU1@0@Z ENDP	; systemIsShowDamage
_TEXT	ENDS
; Function compile flags: /Ogtp
; File C:\Anka2Project\Anka2Project\Source\Binary\source\UserInterface\PythonSystemModule.cpp
; File C:\Anka2Project\Anka2Project\Source\Binary\source\eterBase\Singleton.h
; File C:\Anka2Project\Anka2Project\Source\Binary\source\UserInterface\PythonSystemModule.cpp
;	COMDAT ?systemIsShowSalesText@@YAPAU_object@@PAU1@0@Z
_TEXT	SEGMENT
_poSelf$ = 8						; size = 4
_poArgs$ = 12						; size = 4
?systemIsShowSalesText@@YAPAU_object@@PAU1@0@Z PROC	; systemIsShowSalesText, COMDAT
; File C:\Anka2Project\Anka2Project\Source\Binary\source\eterBase\Singleton.h

; 26   : 		assert(ms_singleton);

  00000	8b 0d 00 00 00
	00		 mov	 ecx, DWORD PTR ?ms_singleton@?$CSingleton@VCPythonSystem@@@@0PAVCPythonSystem@@A ; CSingleton<CPythonSystem>::ms_singleton
  00006	85 c9		 test	 ecx, ecx
  00008	75 1a		 jne	 SHORT $LN5@systemIsSh
  0000a	6a 1a		 push	 26			; 0000001aH
  0000c	68 00 00 00 00	 push	 OFFSET ??_C@_1IO@CAJLEEOI@?$AAC?$AA?3?$AA?2?$AAA?$AAn?$AAk?$AAa?$AA2?$AAP?$AAr?$AAo?$AAj?$AAe?$AAc?$AAt@
  00011	68 00 00 00 00	 push	 OFFSET ??_C@_1BK@FMEHPMFE@?$AAm?$AAs?$AA_?$AAs?$AAi?$AAn?$AAg?$AAl?$AAe?$AAt?$AAo?$AAn@
  00016	e8 00 00 00 00	 call	 __wassert
  0001b	8b 0d 00 00 00
	00		 mov	 ecx, DWORD PTR ?ms_singleton@?$CSingleton@VCPythonSystem@@@@0PAVCPythonSystem@@A ; CSingleton<CPythonSystem>::ms_singleton
  00021	83 c4 0c	 add	 esp, 12			; 0000000cH
$LN5@systemIsSh:
; File C:\Anka2Project\Anka2Project\Source\Binary\source\UserInterface\PythonSystemModule.cpp

; 228  : 	return Py_BuildValue("i", CPythonSystem::Instance().IsShowSalesText());

  00024	e8 00 00 00 00	 call	 ?IsShowSalesText@CPythonSystem@@QAE_NXZ ; CPythonSystem::IsShowSalesText
  00029	0f b6 c0	 movzx	 eax, al
  0002c	50		 push	 eax
  0002d	68 00 00 00 00	 push	 OFFSET ??_C@_01KBJDNOO@i@
  00032	ff 15 00 00 00
	00		 call	 DWORD PTR __imp__Py_BuildValue
  00038	83 c4 08	 add	 esp, 8

; 229  : }

  0003b	c3		 ret	 0
?systemIsShowSalesText@@YAPAU_object@@PAU1@0@Z ENDP	; systemIsShowSalesText
_TEXT	ENDS
; Function compile flags: /Ogtp
; File C:\Anka2Project\Anka2Project\Source\Binary\source\UserInterface\PythonSystemModule.cpp
; File C:\Anka2Project\Anka2Project\Source\Binary\source\eterBase\Singleton.h
; File C:\Anka2Project\Anka2Project\Source\Binary\source\UserInterface\PythonSystemModule.cpp
;	COMDAT ?systemSaveConfig@@YAPAU_object@@PAU1@0@Z
_TEXT	SEGMENT
_poSelf$ = 8						; size = 4
_poArgs$ = 12						; size = 4
?systemSaveConfig@@YAPAU_object@@PAU1@0@Z PROC		; systemSaveConfig, COMDAT
; File C:\Anka2Project\Anka2Project\Source\Binary\source\eterBase\Singleton.h

; 26   : 		assert(ms_singleton);

  00000	8b 0d 00 00 00
	00		 mov	 ecx, DWORD PTR ?ms_singleton@?$CSingleton@VCPythonSystem@@@@0PAVCPythonSystem@@A ; CSingleton<CPythonSystem>::ms_singleton
  00006	85 c9		 test	 ecx, ecx
  00008	75 1a		 jne	 SHORT $LN5@systemSave
  0000a	6a 1a		 push	 26			; 0000001aH
  0000c	68 00 00 00 00	 push	 OFFSET ??_C@_1IO@CAJLEEOI@?$AAC?$AA?3?$AA?2?$AAA?$AAn?$AAk?$AAa?$AA2?$AAP?$AAr?$AAo?$AAj?$AAe?$AAc?$AAt@
  00011	68 00 00 00 00	 push	 OFFSET ??_C@_1BK@FMEHPMFE@?$AAm?$AAs?$AA_?$AAs?$AAi?$AAn?$AAg?$AAl?$AAe?$AAt?$AAo?$AAn@
  00016	e8 00 00 00 00	 call	 __wassert
  0001b	8b 0d 00 00 00
	00		 mov	 ecx, DWORD PTR ?ms_singleton@?$CSingleton@VCPythonSystem@@@@0PAVCPythonSystem@@A ; CSingleton<CPythonSystem>::ms_singleton
  00021	83 c4 0c	 add	 esp, 12			; 0000000cH
$LN5@systemSave:
; File C:\Anka2Project\Anka2Project\Source\Binary\source\UserInterface\PythonSystemModule.cpp

; 307  : 	int ret = CPythonSystem::Instance().SaveConfig();

  00024	e8 00 00 00 00	 call	 ?SaveConfig@CPythonSystem@@QAE_NXZ ; CPythonSystem::SaveConfig
  00029	0f b6 c0	 movzx	 eax, al

; 308  : 	return Py_BuildValue("i", ret);

  0002c	50		 push	 eax
  0002d	68 00 00 00 00	 push	 OFFSET ??_C@_01KBJDNOO@i@
  00032	ff 15 00 00 00
	00		 call	 DWORD PTR __imp__Py_BuildValue
  00038	83 c4 08	 add	 esp, 8

; 309  : }

  0003b	c3		 ret	 0
?systemSaveConfig@@YAPAU_object@@PAU1@0@Z ENDP		; systemSaveConfig
_TEXT	ENDS
; Function compile flags: /Ogtp
; File C:\Anka2Project\Anka2Project\Source\Binary\source\UserInterface\PythonSystemModule.cpp
; File C:\Anka2Project\Anka2Project\Source\Binary\source\eterBase\Singleton.h
; File C:\Anka2Project\Anka2Project\Source\Binary\source\UserInterface\PythonSystemModule.cpp
;	COMDAT ?systemGetResolutionCount@@YAPAU_object@@PAU1@0@Z
_TEXT	SEGMENT
_poSelf$ = 8						; size = 4
_poArgs$ = 12						; size = 4
?systemGetResolutionCount@@YAPAU_object@@PAU1@0@Z PROC	; systemGetResolutionCount, COMDAT
; File C:\Anka2Project\Anka2Project\Source\Binary\source\eterBase\Singleton.h

; 26   : 		assert(ms_singleton);

  00000	8b 0d 00 00 00
	00		 mov	 ecx, DWORD PTR ?ms_singleton@?$CSingleton@VCPythonSystem@@@@0PAVCPythonSystem@@A ; CSingleton<CPythonSystem>::ms_singleton
  00006	85 c9		 test	 ecx, ecx
  00008	75 1a		 jne	 SHORT $LN5@systemGetR
  0000a	6a 1a		 push	 26			; 0000001aH
  0000c	68 00 00 00 00	 push	 OFFSET ??_C@_1IO@CAJLEEOI@?$AAC?$AA?3?$AA?2?$AAA?$AAn?$AAk?$AAa?$AA2?$AAP?$AAr?$AAo?$AAj?$AAe?$AAc?$AAt@
  00011	68 00 00 00 00	 push	 OFFSET ??_C@_1BK@FMEHPMFE@?$AAm?$AAs?$AA_?$AAs?$AAi?$AAn?$AAg?$AAl?$AAe?$AAt?$AAo?$AAn@
  00016	e8 00 00 00 00	 call	 __wassert
  0001b	8b 0d 00 00 00
	00		 mov	 ecx, DWORD PTR ?ms_singleton@?$CSingleton@VCPythonSystem@@@@0PAVCPythonSystem@@A ; CSingleton<CPythonSystem>::ms_singleton
  00021	83 c4 0c	 add	 esp, 12			; 0000000cH
$LN5@systemGetR:
; File C:\Anka2Project\Anka2Project\Source\Binary\source\UserInterface\PythonSystemModule.cpp

; 313  : 	return Py_BuildValue("i", CPythonSystem::Instance().GetResolutionCount());

  00024	e8 00 00 00 00	 call	 ?GetResolutionCount@CPythonSystem@@QAEHXZ ; CPythonSystem::GetResolutionCount
  00029	50		 push	 eax
  0002a	68 00 00 00 00	 push	 OFFSET ??_C@_01KBJDNOO@i@
  0002f	ff 15 00 00 00
	00		 call	 DWORD PTR __imp__Py_BuildValue
  00035	83 c4 08	 add	 esp, 8

; 314  : }

  00038	c3		 ret	 0
?systemGetResolutionCount@@YAPAU_object@@PAU1@0@Z ENDP	; systemGetResolutionCount
_TEXT	ENDS
; Function compile flags: /Ogtp
; File C:\Anka2Project\Anka2Project\Source\Binary\source\UserInterface\PythonSystemModule.cpp
; File C:\Anka2Project\Anka2Project\Source\Binary\source\eterBase\Singleton.h
; File C:\Anka2Project\Anka2Project\Source\Binary\source\UserInterface\PythonSystemModule.cpp
;	COMDAT ?systemGetFrequencyCount@@YAPAU_object@@PAU1@0@Z
_TEXT	SEGMENT
_index$ = -4						; size = 4
_poSelf$ = 8						; size = 4
_poArgs$ = 12						; size = 4
?systemGetFrequencyCount@@YAPAU_object@@PAU1@0@Z PROC	; systemGetFrequencyCount, COMDAT

; 317  : {

  00000	55		 push	 ebp
  00001	8b ec		 mov	 ebp, esp
  00003	51		 push	 ecx

; 318  : 	int	index;
; 319  : 
; 320  : 	if (!PyTuple_GetInteger(poArgs, 0, &index))

  00004	8d 45 fc	 lea	 eax, DWORD PTR _index$[ebp]
  00007	50		 push	 eax
  00008	6a 00		 push	 0
  0000a	ff 75 0c	 push	 DWORD PTR _poArgs$[ebp]
  0000d	e8 00 00 00 00	 call	 ?PyTuple_GetInteger@@YA_NPAU_object@@HPAH@Z ; PyTuple_GetInteger
  00012	83 c4 0c	 add	 esp, 12			; 0000000cH
  00015	84 c0		 test	 al, al
  00017	75 0e		 jne	 SHORT $LN2@systemGetF

; 321  : 		return Py_BuildException();

  00019	6a 00		 push	 0
  0001b	e8 00 00 00 00	 call	 ?Py_BuildException@@YAPAU_object@@PBDZZ ; Py_BuildException
  00020	83 c4 04	 add	 esp, 4

; 324  : }

  00023	8b e5		 mov	 esp, ebp
  00025	5d		 pop	 ebp
  00026	c3		 ret	 0
$LN2@systemGetF:
; File C:\Anka2Project\Anka2Project\Source\Binary\source\eterBase\Singleton.h

; 26   : 		assert(ms_singleton);

  00027	8b 0d 00 00 00
	00		 mov	 ecx, DWORD PTR ?ms_singleton@?$CSingleton@VCPythonSystem@@@@0PAVCPythonSystem@@A ; CSingleton<CPythonSystem>::ms_singleton
  0002d	85 c9		 test	 ecx, ecx
  0002f	75 1a		 jne	 SHORT $LN6@systemGetF
  00031	6a 1a		 push	 26			; 0000001aH
  00033	68 00 00 00 00	 push	 OFFSET ??_C@_1IO@CAJLEEOI@?$AAC?$AA?3?$AA?2?$AAA?$AAn?$AAk?$AAa?$AA2?$AAP?$AAr?$AAo?$AAj?$AAe?$AAc?$AAt@
  00038	68 00 00 00 00	 push	 OFFSET ??_C@_1BK@FMEHPMFE@?$AAm?$AAs?$AA_?$AAs?$AAi?$AAn?$AAg?$AAl?$AAe?$AAt?$AAo?$AAn@
  0003d	e8 00 00 00 00	 call	 __wassert
  00042	8b 0d 00 00 00
	00		 mov	 ecx, DWORD PTR ?ms_singleton@?$CSingleton@VCPythonSystem@@@@0PAVCPythonSystem@@A ; CSingleton<CPythonSystem>::ms_singleton
  00048	83 c4 0c	 add	 esp, 12			; 0000000cH
$LN6@systemGetF:
; File C:\Anka2Project\Anka2Project\Source\Binary\source\UserInterface\PythonSystemModule.cpp

; 323  : 	return Py_BuildValue("i", CPythonSystem::Instance().GetFrequencyCount(index));

  0004b	ff 75 fc	 push	 DWORD PTR _index$[ebp]
  0004e	e8 00 00 00 00	 call	 ?GetFrequencyCount@CPythonSystem@@QAEHH@Z ; CPythonSystem::GetFrequencyCount
  00053	50		 push	 eax
  00054	68 00 00 00 00	 push	 OFFSET ??_C@_01KBJDNOO@i@
  00059	ff 15 00 00 00
	00		 call	 DWORD PTR __imp__Py_BuildValue
  0005f	83 c4 08	 add	 esp, 8

; 324  : }

  00062	8b e5		 mov	 esp, ebp
  00064	5d		 pop	 ebp
  00065	c3		 ret	 0
?systemGetFrequencyCount@@YAPAU_object@@PAU1@0@Z ENDP	; systemGetFrequencyCount
_TEXT	ENDS
; Function compile flags: /Ogtp
; File C:\Anka2Project\Anka2Project\Source\Binary\source\UserInterface\PythonSystemModule.cpp
; File C:\Anka2Project\Anka2Project\Source\Binary\source\eterBase\Singleton.h
; File C:\Anka2Project\Anka2Project\Source\Binary\source\UserInterface\PythonSystemModule.cpp
;	COMDAT ?systemGetResolution@@YAPAU_object@@PAU1@0@Z
_TEXT	SEGMENT
_index$ = -16						; size = 4
_width$ = -12						; size = 4
_height$ = -8						; size = 4
_bpp$ = -4						; size = 4
_poSelf$ = 8						; size = 4
_poArgs$ = 12						; size = 4
?systemGetResolution@@YAPAU_object@@PAU1@0@Z PROC	; systemGetResolution, COMDAT

; 327  : {

  00000	55		 push	 ebp
  00001	8b ec		 mov	 ebp, esp
  00003	83 ec 10	 sub	 esp, 16			; 00000010H

; 328  : 	int	index;
; 329  : 	DWORD width = 0, height = 0, bpp = 0;
; 330  : 
; 331  : 	if (!PyTuple_GetInteger(poArgs, 0, &index))

  00006	8d 45 f0	 lea	 eax, DWORD PTR _index$[ebp]
  00009	c7 45 f4 00 00
	00 00		 mov	 DWORD PTR _width$[ebp], 0
  00010	50		 push	 eax
  00011	6a 00		 push	 0
  00013	ff 75 0c	 push	 DWORD PTR _poArgs$[ebp]
  00016	c7 45 f8 00 00
	00 00		 mov	 DWORD PTR _height$[ebp], 0
  0001d	c7 45 fc 00 00
	00 00		 mov	 DWORD PTR _bpp$[ebp], 0
  00024	e8 00 00 00 00	 call	 ?PyTuple_GetInteger@@YA_NPAU_object@@HPAH@Z ; PyTuple_GetInteger
  00029	83 c4 0c	 add	 esp, 12			; 0000000cH
  0002c	84 c0		 test	 al, al
  0002e	75 0e		 jne	 SHORT $LN2@systemGetR

; 332  : 		return Py_BuildException();

  00030	6a 00		 push	 0
  00032	e8 00 00 00 00	 call	 ?Py_BuildException@@YAPAU_object@@PBDZZ ; Py_BuildException
  00037	83 c4 04	 add	 esp, 4

; 336  : }

  0003a	8b e5		 mov	 esp, ebp
  0003c	5d		 pop	 ebp
  0003d	c3		 ret	 0
$LN2@systemGetR:
; File C:\Anka2Project\Anka2Project\Source\Binary\source\eterBase\Singleton.h

; 26   : 		assert(ms_singleton);

  0003e	8b 0d 00 00 00
	00		 mov	 ecx, DWORD PTR ?ms_singleton@?$CSingleton@VCPythonSystem@@@@0PAVCPythonSystem@@A ; CSingleton<CPythonSystem>::ms_singleton
  00044	85 c9		 test	 ecx, ecx
  00046	75 1a		 jne	 SHORT $LN6@systemGetR
  00048	6a 1a		 push	 26			; 0000001aH
  0004a	68 00 00 00 00	 push	 OFFSET ??_C@_1IO@CAJLEEOI@?$AAC?$AA?3?$AA?2?$AAA?$AAn?$AAk?$AAa?$AA2?$AAP?$AAr?$AAo?$AAj?$AAe?$AAc?$AAt@
  0004f	68 00 00 00 00	 push	 OFFSET ??_C@_1BK@FMEHPMFE@?$AAm?$AAs?$AA_?$AAs?$AAi?$AAn?$AAg?$AAl?$AAe?$AAt?$AAo?$AAn@
  00054	e8 00 00 00 00	 call	 __wassert
  00059	8b 0d 00 00 00
	00		 mov	 ecx, DWORD PTR ?ms_singleton@?$CSingleton@VCPythonSystem@@@@0PAVCPythonSystem@@A ; CSingleton<CPythonSystem>::ms_singleton
  0005f	83 c4 0c	 add	 esp, 12			; 0000000cH
$LN6@systemGetR:
; File C:\Anka2Project\Anka2Project\Source\Binary\source\UserInterface\PythonSystemModule.cpp

; 334  : 	CPythonSystem::Instance().GetResolution(index, &width, &height, &bpp);

  00062	8d 45 fc	 lea	 eax, DWORD PTR _bpp$[ebp]
  00065	50		 push	 eax
  00066	8d 45 f8	 lea	 eax, DWORD PTR _height$[ebp]
  00069	50		 push	 eax
  0006a	8d 45 f4	 lea	 eax, DWORD PTR _width$[ebp]
  0006d	50		 push	 eax
  0006e	ff 75 f0	 push	 DWORD PTR _index$[ebp]
  00071	e8 00 00 00 00	 call	 ?GetResolution@CPythonSystem@@QAE_NHPAK00@Z ; CPythonSystem::GetResolution

; 335  : 	return Py_BuildValue("iii", width, height, bpp);

  00076	ff 75 fc	 push	 DWORD PTR _bpp$[ebp]
  00079	ff 75 f8	 push	 DWORD PTR _height$[ebp]
  0007c	ff 75 f4	 push	 DWORD PTR _width$[ebp]
  0007f	68 00 00 00 00	 push	 OFFSET ??_C@_03GLKMLICL@iii@
  00084	ff 15 00 00 00
	00		 call	 DWORD PTR __imp__Py_BuildValue
  0008a	83 c4 10	 add	 esp, 16			; 00000010H

; 336  : }

  0008d	8b e5		 mov	 esp, ebp
  0008f	5d		 pop	 ebp
  00090	c3		 ret	 0
?systemGetResolution@@YAPAU_object@@PAU1@0@Z ENDP	; systemGetResolution
_TEXT	ENDS
; Function compile flags: /Ogtp
; File C:\Anka2Project\Anka2Project\Source\Binary\source\UserInterface\PythonSystemModule.cpp
; File C:\Anka2Project\Anka2Project\Source\Binary\source\eterBase\Singleton.h
; File C:\Anka2Project\Anka2Project\Source\Binary\source\UserInterface\PythonSystemModule.cpp
;	COMDAT ?systemGetCurrentResolution@@YAPAU_object@@PAU1@0@Z
_TEXT	SEGMENT
_poSelf$ = 8						; size = 4
_poArgs$ = 12						; size = 4
?systemGetCurrentResolution@@YAPAU_object@@PAU1@0@Z PROC ; systemGetCurrentResolution, COMDAT
; File C:\Anka2Project\Anka2Project\Source\Binary\source\eterBase\Singleton.h

; 26   : 		assert(ms_singleton);

  00000	8b 0d 00 00 00
	00		 mov	 ecx, DWORD PTR ?ms_singleton@?$CSingleton@VCPythonSystem@@@@0PAVCPythonSystem@@A ; CSingleton<CPythonSystem>::ms_singleton
  00006	85 c9		 test	 ecx, ecx
  00008	75 1a		 jne	 SHORT $LN5@systemGetC
  0000a	6a 1a		 push	 26			; 0000001aH
  0000c	68 00 00 00 00	 push	 OFFSET ??_C@_1IO@CAJLEEOI@?$AAC?$AA?3?$AA?2?$AAA?$AAn?$AAk?$AAa?$AA2?$AAP?$AAr?$AAo?$AAj?$AAe?$AAc?$AAt@
  00011	68 00 00 00 00	 push	 OFFSET ??_C@_1BK@FMEHPMFE@?$AAm?$AAs?$AA_?$AAs?$AAi?$AAn?$AAg?$AAl?$AAe?$AAt?$AAo?$AAn@
  00016	e8 00 00 00 00	 call	 __wassert
  0001b	8b 0d 00 00 00
	00		 mov	 ecx, DWORD PTR ?ms_singleton@?$CSingleton@VCPythonSystem@@@@0PAVCPythonSystem@@A ; CSingleton<CPythonSystem>::ms_singleton
  00021	83 c4 0c	 add	 esp, 12			; 0000000cH
$LN5@systemGetC:
; File C:\Anka2Project\Anka2Project\Source\Binary\source\UserInterface\PythonSystemModule.cpp

; 340  : 	CPythonSystem::TConfig *tmp = CPythonSystem::Instance().GetConfig();

  00024	e8 00 00 00 00	 call	 ?GetConfig@CPythonSystem@@QAEPAUSConfig@1@XZ ; CPythonSystem::GetConfig

; 341  : 	return Py_BuildValue("iii", tmp->width, tmp->height, tmp->bpp);

  00029	ff 70 08	 push	 DWORD PTR [eax+8]
  0002c	ff 70 04	 push	 DWORD PTR [eax+4]
  0002f	ff 30		 push	 DWORD PTR [eax]
  00031	68 00 00 00 00	 push	 OFFSET ??_C@_03GLKMLICL@iii@
  00036	ff 15 00 00 00
	00		 call	 DWORD PTR __imp__Py_BuildValue
  0003c	83 c4 10	 add	 esp, 16			; 00000010H

; 342  : }

  0003f	c3		 ret	 0
?systemGetCurrentResolution@@YAPAU_object@@PAU1@0@Z ENDP ; systemGetCurrentResolution
_TEXT	ENDS
; Function compile flags: /Ogtp
; File C:\Anka2Project\Anka2Project\Source\Binary\source\UserInterface\PythonSystemModule.cpp
; File C:\Anka2Project\Anka2Project\Source\Binary\source\eterBase\Singleton.h
; File C:\Anka2Project\Anka2Project\Source\Binary\source\UserInterface\PythonSystemModule.cpp
;	COMDAT ?systemGetFrequency@@YAPAU_object@@PAU1@0@Z
_TEXT	SEGMENT
_index$ = -12						; size = 4
_frequency_index$ = -8					; size = 4
_frequency$ = -4					; size = 4
_poSelf$ = 8						; size = 4
_poArgs$ = 12						; size = 4
?systemGetFrequency@@YAPAU_object@@PAU1@0@Z PROC	; systemGetFrequency, COMDAT

; 345  : {

  00000	55		 push	 ebp
  00001	8b ec		 mov	 ebp, esp
  00003	83 ec 0c	 sub	 esp, 12			; 0000000cH

; 346  : 	int	index, frequency_index;
; 347  : 	DWORD frequency = 0;
; 348  : 
; 349  : 	if (!PyTuple_GetInteger(poArgs, 0, &index))

  00006	8d 45 f4	 lea	 eax, DWORD PTR _index$[ebp]
  00009	c7 45 fc 00 00
	00 00		 mov	 DWORD PTR _frequency$[ebp], 0
  00010	50		 push	 eax
  00011	6a 00		 push	 0
  00013	ff 75 0c	 push	 DWORD PTR _poArgs$[ebp]
  00016	e8 00 00 00 00	 call	 ?PyTuple_GetInteger@@YA_NPAU_object@@HPAH@Z ; PyTuple_GetInteger
  0001b	83 c4 0c	 add	 esp, 12			; 0000000cH
  0001e	84 c0		 test	 al, al
  00020	75 0e		 jne	 SHORT $LN2@systemGetF
$LN8@systemGetF:

; 357  : }

  00022	6a 00		 push	 0
  00024	e8 00 00 00 00	 call	 ?Py_BuildException@@YAPAU_object@@PBDZZ ; Py_BuildException
  00029	83 c4 04	 add	 esp, 4
  0002c	8b e5		 mov	 esp, ebp
  0002e	5d		 pop	 ebp
  0002f	c3		 ret	 0
$LN2@systemGetF:

; 350  : 		return Py_BuildException();
; 351  : 
; 352  : 	if (!PyTuple_GetInteger(poArgs, 1, &frequency_index))

  00030	8d 45 f8	 lea	 eax, DWORD PTR _frequency_index$[ebp]
  00033	50		 push	 eax
  00034	6a 01		 push	 1
  00036	ff 75 0c	 push	 DWORD PTR _poArgs$[ebp]
  00039	e8 00 00 00 00	 call	 ?PyTuple_GetInteger@@YA_NPAU_object@@HPAH@Z ; PyTuple_GetInteger
  0003e	83 c4 0c	 add	 esp, 12			; 0000000cH
  00041	84 c0		 test	 al, al
  00043	74 dd		 je	 SHORT $LN8@systemGetF
; File C:\Anka2Project\Anka2Project\Source\Binary\source\eterBase\Singleton.h

; 26   : 		assert(ms_singleton);

  00045	8b 0d 00 00 00
	00		 mov	 ecx, DWORD PTR ?ms_singleton@?$CSingleton@VCPythonSystem@@@@0PAVCPythonSystem@@A ; CSingleton<CPythonSystem>::ms_singleton
  0004b	85 c9		 test	 ecx, ecx
  0004d	75 1a		 jne	 SHORT $LN7@systemGetF
  0004f	6a 1a		 push	 26			; 0000001aH
  00051	68 00 00 00 00	 push	 OFFSET ??_C@_1IO@CAJLEEOI@?$AAC?$AA?3?$AA?2?$AAA?$AAn?$AAk?$AAa?$AA2?$AAP?$AAr?$AAo?$AAj?$AAe?$AAc?$AAt@
  00056	68 00 00 00 00	 push	 OFFSET ??_C@_1BK@FMEHPMFE@?$AAm?$AAs?$AA_?$AAs?$AAi?$AAn?$AAg?$AAl?$AAe?$AAt?$AAo?$AAn@
  0005b	e8 00 00 00 00	 call	 __wassert
  00060	8b 0d 00 00 00
	00		 mov	 ecx, DWORD PTR ?ms_singleton@?$CSingleton@VCPythonSystem@@@@0PAVCPythonSystem@@A ; CSingleton<CPythonSystem>::ms_singleton
  00066	83 c4 0c	 add	 esp, 12			; 0000000cH
$LN7@systemGetF:
; File C:\Anka2Project\Anka2Project\Source\Binary\source\UserInterface\PythonSystemModule.cpp

; 355  : 	CPythonSystem::Instance().GetFrequency(index, frequency_index, &frequency);

  00069	8d 45 fc	 lea	 eax, DWORD PTR _frequency$[ebp]
  0006c	50		 push	 eax
  0006d	ff 75 f8	 push	 DWORD PTR _frequency_index$[ebp]
  00070	ff 75 f4	 push	 DWORD PTR _index$[ebp]
  00073	e8 00 00 00 00	 call	 ?GetFrequency@CPythonSystem@@QAE_NHHPAK@Z ; CPythonSystem::GetFrequency

; 356  : 	return Py_BuildValue("i", frequency);

  00078	ff 75 fc	 push	 DWORD PTR _frequency$[ebp]
  0007b	68 00 00 00 00	 push	 OFFSET ??_C@_01KBJDNOO@i@
  00080	ff 15 00 00 00
	00		 call	 DWORD PTR __imp__Py_BuildValue
  00086	83 c4 08	 add	 esp, 8

; 357  : }

  00089	8b e5		 mov	 esp, ebp
  0008b	5d		 pop	 ebp
  0008c	c3		 ret	 0
?systemGetFrequency@@YAPAU_object@@PAU1@0@Z ENDP	; systemGetFrequency
_TEXT	ENDS
; Function compile flags: /Ogtp
; File C:\Anka2Project\Anka2Project\Source\Binary\source\UserInterface\PythonSystemModule.cpp
; File C:\Anka2Project\Anka2Project\Source\Binary\source\eterBase\Singleton.h
; File C:\Anka2Project\Anka2Project\Source\Binary\source\UserInterface\PythonSystemModule.cpp
;	COMDAT ?systemGetShadowLevel@@YAPAU_object@@PAU1@0@Z
_TEXT	SEGMENT
_poSelf$ = 8						; size = 4
_poArgs$ = 12						; size = 4
?systemGetShadowLevel@@YAPAU_object@@PAU1@0@Z PROC	; systemGetShadowLevel, COMDAT
; File C:\Anka2Project\Anka2Project\Source\Binary\source\eterBase\Singleton.h

; 26   : 		assert(ms_singleton);

  00000	8b 0d 00 00 00
	00		 mov	 ecx, DWORD PTR ?ms_singleton@?$CSingleton@VCPythonSystem@@@@0PAVCPythonSystem@@A ; CSingleton<CPythonSystem>::ms_singleton
  00006	85 c9		 test	 ecx, ecx
  00008	75 1a		 jne	 SHORT $LN5@systemGetS
  0000a	6a 1a		 push	 26			; 0000001aH
  0000c	68 00 00 00 00	 push	 OFFSET ??_C@_1IO@CAJLEEOI@?$AAC?$AA?3?$AA?2?$AAA?$AAn?$AAk?$AAa?$AA2?$AAP?$AAr?$AAo?$AAj?$AAe?$AAc?$AAt@
  00011	68 00 00 00 00	 push	 OFFSET ??_C@_1BK@FMEHPMFE@?$AAm?$AAs?$AA_?$AAs?$AAi?$AAn?$AAg?$AAl?$AAe?$AAt?$AAo?$AAn@
  00016	e8 00 00 00 00	 call	 __wassert
  0001b	8b 0d 00 00 00
	00		 mov	 ecx, DWORD PTR ?ms_singleton@?$CSingleton@VCPythonSystem@@@@0PAVCPythonSystem@@A ; CSingleton<CPythonSystem>::ms_singleton
  00021	83 c4 0c	 add	 esp, 12			; 0000000cH
$LN5@systemGetS:
; File C:\Anka2Project\Anka2Project\Source\Binary\source\UserInterface\PythonSystemModule.cpp

; 361  : 	return Py_BuildValue("i", CPythonSystem::Instance().GetShadowLevel());

  00024	e8 00 00 00 00	 call	 ?GetShadowLevel@CPythonSystem@@QAEHXZ ; CPythonSystem::GetShadowLevel
  00029	50		 push	 eax
  0002a	68 00 00 00 00	 push	 OFFSET ??_C@_01KBJDNOO@i@
  0002f	ff 15 00 00 00
	00		 call	 DWORD PTR __imp__Py_BuildValue
  00035	83 c4 08	 add	 esp, 8

; 362  : }

  00038	c3		 ret	 0
?systemGetShadowLevel@@YAPAU_object@@PAU1@0@Z ENDP	; systemGetShadowLevel
_TEXT	ENDS
; Function compile flags: /Ogtp
; File C:\Anka2Project\Anka2Project\Source\Binary\source\UserInterface\PythonSystemModule.cpp
; File C:\Anka2Project\Anka2Project\Source\Binary\source\eterBase\Singleton.h
; File C:\Anka2Project\Anka2Project\Source\Binary\source\UserInterface\PythonSystemModule.cpp
;	COMDAT ?systemIsFogMode@@YAPAU_object@@PAU1@0@Z
_TEXT	SEGMENT
_poSelf$ = 8						; size = 4
_poArgs$ = 12						; size = 4
?systemIsFogMode@@YAPAU_object@@PAU1@0@Z PROC		; systemIsFogMode, COMDAT
; File C:\Anka2Project\Anka2Project\Source\Binary\source\eterBase\Singleton.h

; 26   : 		assert(ms_singleton);

  00000	8b 0d 00 00 00
	00		 mov	 ecx, DWORD PTR ?ms_singleton@?$CSingleton@VCPythonSystem@@@@0PAVCPythonSystem@@A ; CSingleton<CPythonSystem>::ms_singleton
  00006	85 c9		 test	 ecx, ecx
  00008	75 1a		 jne	 SHORT $LN5@systemIsFo
  0000a	6a 1a		 push	 26			; 0000001aH
  0000c	68 00 00 00 00	 push	 OFFSET ??_C@_1IO@CAJLEEOI@?$AAC?$AA?3?$AA?2?$AAA?$AAn?$AAk?$AAa?$AA2?$AAP?$AAr?$AAo?$AAj?$AAe?$AAc?$AAt@
  00011	68 00 00 00 00	 push	 OFFSET ??_C@_1BK@FMEHPMFE@?$AAm?$AAs?$AA_?$AAs?$AAi?$AAn?$AAg?$AAl?$AAe?$AAt?$AAo?$AAn@
  00016	e8 00 00 00 00	 call	 __wassert
  0001b	8b 0d 00 00 00
	00		 mov	 ecx, DWORD PTR ?ms_singleton@?$CSingleton@VCPythonSystem@@@@0PAVCPythonSystem@@A ; CSingleton<CPythonSystem>::ms_singleton
  00021	83 c4 0c	 add	 esp, 12			; 0000000cH
$LN5@systemIsFo:
; File C:\Anka2Project\Anka2Project\Source\Binary\source\UserInterface\PythonSystemModule.cpp

; 391  : 	return Py_BuildValue("i", CPythonSystem::Instance().IsFogMode());

  00024	e8 00 00 00 00	 call	 ?IsFogMode@CPythonSystem@@QAE_NXZ ; CPythonSystem::IsFogMode
  00029	0f b6 c0	 movzx	 eax, al
  0002c	50		 push	 eax
  0002d	68 00 00 00 00	 push	 OFFSET ??_C@_01KBJDNOO@i@
  00032	ff 15 00 00 00
	00		 call	 DWORD PTR __imp__Py_BuildValue
  00038	83 c4 08	 add	 esp, 8

; 392  : }

  0003b	c3		 ret	 0
?systemIsFogMode@@YAPAU_object@@PAU1@0@Z ENDP		; systemIsFogMode
_TEXT	ENDS
; Function compile flags: /Ogtp
; File C:\Anka2Project\Anka2Project\Source\Binary\source\UserInterface\PythonSystemModule.cpp
; File C:\Anka2Project\Anka2Project\Source\Binary\source\eterBase\Singleton.h
; File C:\Anka2Project\Anka2Project\Source\Binary\source\UserInterface\PythonSystemModule.cpp
;	COMDAT ?systemIsENBModeStatus@@YAPAU_object@@PAU1@0@Z
_TEXT	SEGMENT
_poSelf$ = 8						; size = 4
_poArgs$ = 12						; size = 4
?systemIsENBModeStatus@@YAPAU_object@@PAU1@0@Z PROC	; systemIsENBModeStatus, COMDAT
; File C:\Anka2Project\Anka2Project\Source\Binary\source\eterBase\Singleton.h

; 26   : 		assert(ms_singleton);

  00000	8b 0d 00 00 00
	00		 mov	 ecx, DWORD PTR ?ms_singleton@?$CSingleton@VCPythonSystem@@@@0PAVCPythonSystem@@A ; CSingleton<CPythonSystem>::ms_singleton
  00006	85 c9		 test	 ecx, ecx
  00008	75 1a		 jne	 SHORT $LN5@systemIsEN
  0000a	6a 1a		 push	 26			; 0000001aH
  0000c	68 00 00 00 00	 push	 OFFSET ??_C@_1IO@CAJLEEOI@?$AAC?$AA?3?$AA?2?$AAA?$AAn?$AAk?$AAa?$AA2?$AAP?$AAr?$AAo?$AAj?$AAe?$AAc?$AAt@
  00011	68 00 00 00 00	 push	 OFFSET ??_C@_1BK@FMEHPMFE@?$AAm?$AAs?$AA_?$AAs?$AAi?$AAn?$AAg?$AAl?$AAe?$AAt?$AAo?$AAn@
  00016	e8 00 00 00 00	 call	 __wassert
  0001b	8b 0d 00 00 00
	00		 mov	 ecx, DWORD PTR ?ms_singleton@?$CSingleton@VCPythonSystem@@@@0PAVCPythonSystem@@A ; CSingleton<CPythonSystem>::ms_singleton
  00021	83 c4 0c	 add	 esp, 12			; 0000000cH
$LN5@systemIsEN:
; File C:\Anka2Project\Anka2Project\Source\Binary\source\UserInterface\PythonSystemModule.cpp

; 407  : 	return Py_BuildValue("i", CPythonSystem::Instance().IsENBModeStatus());

  00024	e8 00 00 00 00	 call	 ?IsENBModeStatus@CPythonSystem@@QAE_NXZ ; CPythonSystem::IsENBModeStatus
  00029	0f b6 c0	 movzx	 eax, al
  0002c	50		 push	 eax
  0002d	68 00 00 00 00	 push	 OFFSET ??_C@_01KBJDNOO@i@
  00032	ff 15 00 00 00
	00		 call	 DWORD PTR __imp__Py_BuildValue
  00038	83 c4 08	 add	 esp, 8

; 408  : }

  0003b	c3		 ret	 0
?systemIsENBModeStatus@@YAPAU_object@@PAU1@0@Z ENDP	; systemIsENBModeStatus
_TEXT	ENDS
; Function compile flags: /Ogtp
; File C:\Anka2Project\Anka2Project\Source\Binary\source\UserInterface\PythonSystemModule.cpp
; File C:\Anka2Project\Anka2Project\Source\Binary\source\eterBase\Singleton.h
; File C:\Anka2Project\Anka2Project\Source\Binary\source\UserInterface\PythonSystemModule.cpp
;	COMDAT ?systemGetNightModeOption@@YAPAU_object@@PAU1@0@Z
_TEXT	SEGMENT
_poSelf$ = 8						; size = 4
_poArgs$ = 12						; size = 4
?systemGetNightModeOption@@YAPAU_object@@PAU1@0@Z PROC	; systemGetNightModeOption, COMDAT
; File C:\Anka2Project\Anka2Project\Source\Binary\source\eterBase\Singleton.h

; 26   : 		assert(ms_singleton);

  00000	8b 0d 00 00 00
	00		 mov	 ecx, DWORD PTR ?ms_singleton@?$CSingleton@VCPythonSystem@@@@0PAVCPythonSystem@@A ; CSingleton<CPythonSystem>::ms_singleton
  00006	85 c9		 test	 ecx, ecx
  00008	75 1a		 jne	 SHORT $LN5@systemGetN
  0000a	6a 1a		 push	 26			; 0000001aH
  0000c	68 00 00 00 00	 push	 OFFSET ??_C@_1IO@CAJLEEOI@?$AAC?$AA?3?$AA?2?$AAA?$AAn?$AAk?$AAa?$AA2?$AAP?$AAr?$AAo?$AAj?$AAe?$AAc?$AAt@
  00011	68 00 00 00 00	 push	 OFFSET ??_C@_1BK@FMEHPMFE@?$AAm?$AAs?$AA_?$AAs?$AAi?$AAn?$AAg?$AAl?$AAe?$AAt?$AAo?$AAn@
  00016	e8 00 00 00 00	 call	 __wassert
  0001b	8b 0d 00 00 00
	00		 mov	 ecx, DWORD PTR ?ms_singleton@?$CSingleton@VCPythonSystem@@@@0PAVCPythonSystem@@A ; CSingleton<CPythonSystem>::ms_singleton
  00021	83 c4 0c	 add	 esp, 12			; 0000000cH
$LN5@systemGetN:
; File C:\Anka2Project\Anka2Project\Source\Binary\source\UserInterface\PythonSystemModule.cpp

; 424  : 	return Py_BuildValue("i", CPythonSystem::Instance().GetNightModeOption());

  00024	e8 00 00 00 00	 call	 ?GetNightModeOption@CPythonSystem@@QBE_NXZ ; CPythonSystem::GetNightModeOption
  00029	0f b6 c0	 movzx	 eax, al
  0002c	50		 push	 eax
  0002d	68 00 00 00 00	 push	 OFFSET ??_C@_01KBJDNOO@i@
  00032	ff 15 00 00 00
	00		 call	 DWORD PTR __imp__Py_BuildValue
  00038	83 c4 08	 add	 esp, 8

; 425  : }

  0003b	c3		 ret	 0
?systemGetNightModeOption@@YAPAU_object@@PAU1@0@Z ENDP	; systemGetNightModeOption
_TEXT	ENDS
; Function compile flags: /Ogtp
; File C:\Anka2Project\Anka2Project\Source\Binary\source\UserInterface\PythonSystemModule.cpp
; File C:\Anka2Project\Anka2Project\Source\Binary\source\eterBase\Singleton.h
; File C:\Anka2Project\Anka2Project\Source\Binary\source\UserInterface\PythonSystemModule.cpp
;	COMDAT ?systemGetSnowModeOption@@YAPAU_object@@PAU1@0@Z
_TEXT	SEGMENT
_poSelf$ = 8						; size = 4
_poArgs$ = 12						; size = 4
?systemGetSnowModeOption@@YAPAU_object@@PAU1@0@Z PROC	; systemGetSnowModeOption, COMDAT
; File C:\Anka2Project\Anka2Project\Source\Binary\source\eterBase\Singleton.h

; 26   : 		assert(ms_singleton);

  00000	8b 0d 00 00 00
	00		 mov	 ecx, DWORD PTR ?ms_singleton@?$CSingleton@VCPythonSystem@@@@0PAVCPythonSystem@@A ; CSingleton<CPythonSystem>::ms_singleton
  00006	85 c9		 test	 ecx, ecx
  00008	75 1a		 jne	 SHORT $LN5@systemGetS
  0000a	6a 1a		 push	 26			; 0000001aH
  0000c	68 00 00 00 00	 push	 OFFSET ??_C@_1IO@CAJLEEOI@?$AAC?$AA?3?$AA?2?$AAA?$AAn?$AAk?$AAa?$AA2?$AAP?$AAr?$AAo?$AAj?$AAe?$AAc?$AAt@
  00011	68 00 00 00 00	 push	 OFFSET ??_C@_1BK@FMEHPMFE@?$AAm?$AAs?$AA_?$AAs?$AAi?$AAn?$AAg?$AAl?$AAe?$AAt?$AAo?$AAn@
  00016	e8 00 00 00 00	 call	 __wassert
  0001b	8b 0d 00 00 00
	00		 mov	 ecx, DWORD PTR ?ms_singleton@?$CSingleton@VCPythonSystem@@@@0PAVCPythonSystem@@A ; CSingleton<CPythonSystem>::ms_singleton
  00021	83 c4 0c	 add	 esp, 12			; 0000000cH
$LN5@systemGetS:
; File C:\Anka2Project\Anka2Project\Source\Binary\source\UserInterface\PythonSystemModule.cpp

; 451  : 	return Py_BuildValue("i", CPythonSystem::Instance().GetSnowModeOption());

  00024	e8 00 00 00 00	 call	 ?GetSnowModeOption@CPythonSystem@@QAE_NXZ ; CPythonSystem::GetSnowModeOption
  00029	0f b6 c0	 movzx	 eax, al
  0002c	50		 push	 eax
  0002d	68 00 00 00 00	 push	 OFFSET ??_C@_01KBJDNOO@i@
  00032	ff 15 00 00 00
	00		 call	 DWORD PTR __imp__Py_BuildValue
  00038	83 c4 08	 add	 esp, 8

; 452  : }

  0003b	c3		 ret	 0
?systemGetSnowModeOption@@YAPAU_object@@PAU1@0@Z ENDP	; systemGetSnowModeOption
_TEXT	ENDS
; Function compile flags: /Ogtp
; File C:\Anka2Project\Anka2Project\Source\Binary\source\UserInterface\PythonSystemModule.cpp
; File C:\Anka2Project\Anka2Project\Source\Binary\source\eterBase\Singleton.h
; File C:\Anka2Project\Anka2Project\Source\Binary\source\UserInterface\PythonSystemModule.cpp
;	COMDAT ?systemGetSnowTextureModeOption@@YAPAU_object@@PAU1@0@Z
_TEXT	SEGMENT
_poSelf$ = 8						; size = 4
_poArgs$ = 12						; size = 4
?systemGetSnowTextureModeOption@@YAPAU_object@@PAU1@0@Z PROC ; systemGetSnowTextureModeOption, COMDAT
; File C:\Anka2Project\Anka2Project\Source\Binary\source\eterBase\Singleton.h

; 26   : 		assert(ms_singleton);

  00000	8b 0d 00 00 00
	00		 mov	 ecx, DWORD PTR ?ms_singleton@?$CSingleton@VCPythonSystem@@@@0PAVCPythonSystem@@A ; CSingleton<CPythonSystem>::ms_singleton
  00006	85 c9		 test	 ecx, ecx
  00008	75 1a		 jne	 SHORT $LN5@systemGetS
  0000a	6a 1a		 push	 26			; 0000001aH
  0000c	68 00 00 00 00	 push	 OFFSET ??_C@_1IO@CAJLEEOI@?$AAC?$AA?3?$AA?2?$AAA?$AAn?$AAk?$AAa?$AA2?$AAP?$AAr?$AAo?$AAj?$AAe?$AAc?$AAt@
  00011	68 00 00 00 00	 push	 OFFSET ??_C@_1BK@FMEHPMFE@?$AAm?$AAs?$AA_?$AAs?$AAi?$AAn?$AAg?$AAl?$AAe?$AAt?$AAo?$AAn@
  00016	e8 00 00 00 00	 call	 __wassert
  0001b	8b 0d 00 00 00
	00		 mov	 ecx, DWORD PTR ?ms_singleton@?$CSingleton@VCPythonSystem@@@@0PAVCPythonSystem@@A ; CSingleton<CPythonSystem>::ms_singleton
  00021	83 c4 0c	 add	 esp, 12			; 0000000cH
$LN5@systemGetS:
; File C:\Anka2Project\Anka2Project\Source\Binary\source\UserInterface\PythonSystemModule.cpp

; 456  : 	return Py_BuildValue("i", CPythonSystem::Instance().GetSnowTextureModeOption());

  00024	e8 00 00 00 00	 call	 ?GetSnowTextureModeOption@CPythonSystem@@QAE_NXZ ; CPythonSystem::GetSnowTextureModeOption
  00029	0f b6 c0	 movzx	 eax, al
  0002c	50		 push	 eax
  0002d	68 00 00 00 00	 push	 OFFSET ??_C@_01KBJDNOO@i@
  00032	ff 15 00 00 00
	00		 call	 DWORD PTR __imp__Py_BuildValue
  00038	83 c4 08	 add	 esp, 8

; 457  : }

  0003b	c3		 ret	 0
?systemGetSnowTextureModeOption@@YAPAU_object@@PAU1@0@Z ENDP ; systemGetSnowTextureModeOption
_TEXT	ENDS
; Function compile flags: /Ogtp
; File C:\Anka2Project\Anka2Project\Source\Binary\source\UserInterface\PythonSystemModule.cpp
; File C:\Anka2Project\Anka2Project\Source\Binary\source\eterBase\Singleton.h
; File C:\Anka2Project\Anka2Project\Source\Binary\source\UserInterface\PythonSystemModule.cpp
;	COMDAT ?systemGetEffectLevel@@YAPAU_object@@PAU1@0@Z
_TEXT	SEGMENT
_poSelf$ = 8						; size = 4
_poArgs$ = 12						; size = 4
?systemGetEffectLevel@@YAPAU_object@@PAU1@0@Z PROC	; systemGetEffectLevel, COMDAT
; File C:\Anka2Project\Anka2Project\Source\Binary\source\eterBase\Singleton.h

; 26   : 		assert(ms_singleton);

  00000	8b 0d 00 00 00
	00		 mov	 ecx, DWORD PTR ?ms_singleton@?$CSingleton@VCPythonSystem@@@@0PAVCPythonSystem@@A ; CSingleton<CPythonSystem>::ms_singleton
  00006	85 c9		 test	 ecx, ecx
  00008	75 1a		 jne	 SHORT $LN5@systemGetE
  0000a	6a 1a		 push	 26			; 0000001aH
  0000c	68 00 00 00 00	 push	 OFFSET ??_C@_1IO@CAJLEEOI@?$AAC?$AA?3?$AA?2?$AAA?$AAn?$AAk?$AAa?$AA2?$AAP?$AAr?$AAo?$AAj?$AAe?$AAc?$AAt@
  00011	68 00 00 00 00	 push	 OFFSET ??_C@_1BK@FMEHPMFE@?$AAm?$AAs?$AA_?$AAs?$AAi?$AAn?$AAg?$AAl?$AAe?$AAt?$AAo?$AAn@
  00016	e8 00 00 00 00	 call	 __wassert
  0001b	8b 0d 00 00 00
	00		 mov	 ecx, DWORD PTR ?ms_singleton@?$CSingleton@VCPythonSystem@@@@0PAVCPythonSystem@@A ; CSingleton<CPythonSystem>::ms_singleton
  00021	83 c4 0c	 add	 esp, 12			; 0000000cH
$LN5@systemGetE:
; File C:\Anka2Project\Anka2Project\Source\Binary\source\UserInterface\PythonSystemModule.cpp

; 463  : 	return Py_BuildValue("i", CPythonSystem::Instance().GetEffectLevel());

  00024	e8 00 00 00 00	 call	 ?GetEffectLevel@CPythonSystem@@QAEHXZ ; CPythonSystem::GetEffectLevel
  00029	50		 push	 eax
  0002a	68 00 00 00 00	 push	 OFFSET ??_C@_01KBJDNOO@i@
  0002f	ff 15 00 00 00
	00		 call	 DWORD PTR __imp__Py_BuildValue
  00035	83 c4 08	 add	 esp, 8

; 464  : }

  00038	c3		 ret	 0
?systemGetEffectLevel@@YAPAU_object@@PAU1@0@Z ENDP	; systemGetEffectLevel
_TEXT	ENDS
; Function compile flags: /Ogtp
; File C:\Anka2Project\Anka2Project\Source\Binary\source\UserInterface\PythonSystemModule.cpp
; File C:\Anka2Project\Anka2Project\Source\Binary\source\eterBase\Singleton.h
; File C:\Anka2Project\Anka2Project\Source\Binary\source\UserInterface\PythonSystemModule.cpp
;	COMDAT ?systemGetPrivateShopLevel@@YAPAU_object@@PAU1@0@Z
_TEXT	SEGMENT
_poSelf$ = 8						; size = 4
_poArgs$ = 12						; size = 4
?systemGetPrivateShopLevel@@YAPAU_object@@PAU1@0@Z PROC	; systemGetPrivateShopLevel, COMDAT
; File C:\Anka2Project\Anka2Project\Source\Binary\source\eterBase\Singleton.h

; 26   : 		assert(ms_singleton);

  00000	8b 0d 00 00 00
	00		 mov	 ecx, DWORD PTR ?ms_singleton@?$CSingleton@VCPythonSystem@@@@0PAVCPythonSystem@@A ; CSingleton<CPythonSystem>::ms_singleton
  00006	85 c9		 test	 ecx, ecx
  00008	75 1a		 jne	 SHORT $LN5@systemGetP
  0000a	6a 1a		 push	 26			; 0000001aH
  0000c	68 00 00 00 00	 push	 OFFSET ??_C@_1IO@CAJLEEOI@?$AAC?$AA?3?$AA?2?$AAA?$AAn?$AAk?$AAa?$AA2?$AAP?$AAr?$AAo?$AAj?$AAe?$AAc?$AAt@
  00011	68 00 00 00 00	 push	 OFFSET ??_C@_1BK@FMEHPMFE@?$AAm?$AAs?$AA_?$AAs?$AAi?$AAn?$AAg?$AAl?$AAe?$AAt?$AAo?$AAn@
  00016	e8 00 00 00 00	 call	 __wassert
  0001b	8b 0d 00 00 00
	00		 mov	 ecx, DWORD PTR ?ms_singleton@?$CSingleton@VCPythonSystem@@@@0PAVCPythonSystem@@A ; CSingleton<CPythonSystem>::ms_singleton
  00021	83 c4 0c	 add	 esp, 12			; 0000000cH
$LN5@systemGetP:
; File C:\Anka2Project\Anka2Project\Source\Binary\source\UserInterface\PythonSystemModule.cpp

; 481  : 	return Py_BuildValue("i", CPythonSystem::Instance().GetPrivateShopLevel());

  00024	e8 00 00 00 00	 call	 ?GetPrivateShopLevel@CPythonSystem@@QAEHXZ ; CPythonSystem::GetPrivateShopLevel
  00029	50		 push	 eax
  0002a	68 00 00 00 00	 push	 OFFSET ??_C@_01KBJDNOO@i@
  0002f	ff 15 00 00 00
	00		 call	 DWORD PTR __imp__Py_BuildValue
  00035	83 c4 08	 add	 esp, 8

; 482  : }

  00038	c3		 ret	 0
?systemGetPrivateShopLevel@@YAPAU_object@@PAU1@0@Z ENDP	; systemGetPrivateShopLevel
_TEXT	ENDS
; Function compile flags: /Ogtp
; File C:\Anka2Project\Anka2Project\Source\Binary\source\UserInterface\PythonSystemModule.cpp
; File C:\Anka2Project\Anka2Project\Source\Binary\source\eterBase\Singleton.h
; File C:\Anka2Project\Anka2Project\Source\Binary\source\UserInterface\PythonSystemModule.cpp
;	COMDAT ?systemGetDropItemLevel@@YAPAU_object@@PAU1@0@Z
_TEXT	SEGMENT
_poSelf$ = 8						; size = 4
_poArgs$ = 12						; size = 4
?systemGetDropItemLevel@@YAPAU_object@@PAU1@0@Z PROC	; systemGetDropItemLevel, COMDAT
; File C:\Anka2Project\Anka2Project\Source\Binary\source\eterBase\Singleton.h

; 26   : 		assert(ms_singleton);

  00000	8b 0d 00 00 00
	00		 mov	 ecx, DWORD PTR ?ms_singleton@?$CSingleton@VCPythonSystem@@@@0PAVCPythonSystem@@A ; CSingleton<CPythonSystem>::ms_singleton
  00006	85 c9		 test	 ecx, ecx
  00008	75 1a		 jne	 SHORT $LN5@systemGetD
  0000a	6a 1a		 push	 26			; 0000001aH
  0000c	68 00 00 00 00	 push	 OFFSET ??_C@_1IO@CAJLEEOI@?$AAC?$AA?3?$AA?2?$AAA?$AAn?$AAk?$AAa?$AA2?$AAP?$AAr?$AAo?$AAj?$AAe?$AAc?$AAt@
  00011	68 00 00 00 00	 push	 OFFSET ??_C@_1BK@FMEHPMFE@?$AAm?$AAs?$AA_?$AAs?$AAi?$AAn?$AAg?$AAl?$AAe?$AAt?$AAo?$AAn@
  00016	e8 00 00 00 00	 call	 __wassert
  0001b	8b 0d 00 00 00
	00		 mov	 ecx, DWORD PTR ?ms_singleton@?$CSingleton@VCPythonSystem@@@@0PAVCPythonSystem@@A ; CSingleton<CPythonSystem>::ms_singleton
  00021	83 c4 0c	 add	 esp, 12			; 0000000cH
$LN5@systemGetD:
; File C:\Anka2Project\Anka2Project\Source\Binary\source\UserInterface\PythonSystemModule.cpp

; 499  : 	return Py_BuildValue("i", CPythonSystem::Instance().GetDropItemLevel());

  00024	e8 00 00 00 00	 call	 ?GetDropItemLevel@CPythonSystem@@QAEHXZ ; CPythonSystem::GetDropItemLevel
  00029	50		 push	 eax
  0002a	68 00 00 00 00	 push	 OFFSET ??_C@_01KBJDNOO@i@
  0002f	ff 15 00 00 00
	00		 call	 DWORD PTR __imp__Py_BuildValue
  00035	83 c4 08	 add	 esp, 8

; 500  : }

  00038	c3		 ret	 0
?systemGetDropItemLevel@@YAPAU_object@@PAU1@0@Z ENDP	; systemGetDropItemLevel
_TEXT	ENDS
; Function compile flags: /Ogtp
; File C:\Anka2Project\Anka2Project\Source\Binary\source\UserInterface\PythonSystemModule.cpp
; File C:\Anka2Project\Anka2Project\Source\Binary\source\eterBase\Singleton.h
; File C:\Anka2Project\Anka2Project\Source\Binary\source\UserInterface\PythonSystemModule.cpp
;	COMDAT ?systemIsPetStatus@@YAPAU_object@@PAU1@0@Z
_TEXT	SEGMENT
_poSelf$ = 8						; size = 4
_poArgs$ = 12						; size = 4
?systemIsPetStatus@@YAPAU_object@@PAU1@0@Z PROC		; systemIsPetStatus, COMDAT
; File C:\Anka2Project\Anka2Project\Source\Binary\source\eterBase\Singleton.h

; 26   : 		assert(ms_singleton);

  00000	8b 0d 00 00 00
	00		 mov	 ecx, DWORD PTR ?ms_singleton@?$CSingleton@VCPythonSystem@@@@0PAVCPythonSystem@@A ; CSingleton<CPythonSystem>::ms_singleton
  00006	85 c9		 test	 ecx, ecx
  00008	75 1a		 jne	 SHORT $LN5@systemIsPe
  0000a	6a 1a		 push	 26			; 0000001aH
  0000c	68 00 00 00 00	 push	 OFFSET ??_C@_1IO@CAJLEEOI@?$AAC?$AA?3?$AA?2?$AAA?$AAn?$AAk?$AAa?$AA2?$AAP?$AAr?$AAo?$AAj?$AAe?$AAc?$AAt@
  00011	68 00 00 00 00	 push	 OFFSET ??_C@_1BK@FMEHPMFE@?$AAm?$AAs?$AA_?$AAs?$AAi?$AAn?$AAg?$AAl?$AAe?$AAt?$AAo?$AAn@
  00016	e8 00 00 00 00	 call	 __wassert
  0001b	8b 0d 00 00 00
	00		 mov	 ecx, DWORD PTR ?ms_singleton@?$CSingleton@VCPythonSystem@@@@0PAVCPythonSystem@@A ; CSingleton<CPythonSystem>::ms_singleton
  00021	83 c4 0c	 add	 esp, 12			; 0000000cH
$LN5@systemIsPe:
; File C:\Anka2Project\Anka2Project\Source\Binary\source\UserInterface\PythonSystemModule.cpp

; 526  : 	return Py_BuildValue("i", CPythonSystem::Instance().IsPetStatus());

  00024	e8 00 00 00 00	 call	 ?IsPetStatus@CPythonSystem@@QAE_NXZ ; CPythonSystem::IsPetStatus
  00029	0f b6 c0	 movzx	 eax, al
  0002c	50		 push	 eax
  0002d	68 00 00 00 00	 push	 OFFSET ??_C@_01KBJDNOO@i@
  00032	ff 15 00 00 00
	00		 call	 DWORD PTR __imp__Py_BuildValue
  00038	83 c4 08	 add	 esp, 8

; 527  : }

  0003b	c3		 ret	 0
?systemIsPetStatus@@YAPAU_object@@PAU1@0@Z ENDP		; systemIsPetStatus
_TEXT	ENDS
; Function compile flags: /Ogtp
; File C:\Anka2Project\Anka2Project\Source\Binary\source\UserInterface\PythonSystemModule.cpp
; File C:\Anka2Project\Anka2Project\Source\Binary\source\eterBase\Singleton.h
; File C:\Anka2Project\Anka2Project\Source\Binary\source\UserInterface\PythonSystemModule.cpp
;	COMDAT ?systemIsNpcNameStatus@@YAPAU_object@@PAU1@0@Z
_TEXT	SEGMENT
_poSelf$ = 8						; size = 4
_poArgs$ = 12						; size = 4
?systemIsNpcNameStatus@@YAPAU_object@@PAU1@0@Z PROC	; systemIsNpcNameStatus, COMDAT
; File C:\Anka2Project\Anka2Project\Source\Binary\source\eterBase\Singleton.h

; 26   : 		assert(ms_singleton);

  00000	8b 0d 00 00 00
	00		 mov	 ecx, DWORD PTR ?ms_singleton@?$CSingleton@VCPythonSystem@@@@0PAVCPythonSystem@@A ; CSingleton<CPythonSystem>::ms_singleton
  00006	85 c9		 test	 ecx, ecx
  00008	75 1a		 jne	 SHORT $LN5@systemIsNp
  0000a	6a 1a		 push	 26			; 0000001aH
  0000c	68 00 00 00 00	 push	 OFFSET ??_C@_1IO@CAJLEEOI@?$AAC?$AA?3?$AA?2?$AAA?$AAn?$AAk?$AAa?$AA2?$AAP?$AAr?$AAo?$AAj?$AAe?$AAc?$AAt@
  00011	68 00 00 00 00	 push	 OFFSET ??_C@_1BK@FMEHPMFE@?$AAm?$AAs?$AA_?$AAs?$AAi?$AAn?$AAg?$AAl?$AAe?$AAt?$AAo?$AAn@
  00016	e8 00 00 00 00	 call	 __wassert
  0001b	8b 0d 00 00 00
	00		 mov	 ecx, DWORD PTR ?ms_singleton@?$CSingleton@VCPythonSystem@@@@0PAVCPythonSystem@@A ; CSingleton<CPythonSystem>::ms_singleton
  00021	83 c4 0c	 add	 esp, 12			; 0000000cH
$LN5@systemIsNp:
; File C:\Anka2Project\Anka2Project\Source\Binary\source\UserInterface\PythonSystemModule.cpp

; 540  : 	return Py_BuildValue("i", CPythonSystem::Instance().IsNpcNameStatus());

  00024	e8 00 00 00 00	 call	 ?IsNpcNameStatus@CPythonSystem@@QAE_NXZ ; CPythonSystem::IsNpcNameStatus
  00029	0f b6 c0	 movzx	 eax, al
  0002c	50		 push	 eax
  0002d	68 00 00 00 00	 push	 OFFSET ??_C@_01KBJDNOO@i@
  00032	ff 15 00 00 00
	00		 call	 DWORD PTR __imp__Py_BuildValue
  00038	83 c4 08	 add	 esp, 8

; 541  : }

  0003b	c3		 ret	 0
?systemIsNpcNameStatus@@YAPAU_object@@PAU1@0@Z ENDP	; systemIsNpcNameStatus
_TEXT	ENDS
; Function compile flags: /Ogtp
; File C:\Anka2Project\Anka2Project\Source\Binary\source\UserInterface\PythonSystemModule.cpp
; File C:\Anka2Project\Anka2Project\Source\Binary\source\eterBase\Singleton.h
; File C:\Anka2Project\Anka2Project\Source\Binary\source\UserInterface\PythonSystemModule.cpp
;	COMDAT ?systemIsShowMobLevel@@YAPAU_object@@PAU1@0@Z
_TEXT	SEGMENT
_poSelf$ = 8						; size = 4
_poArgs$ = 12						; size = 4
?systemIsShowMobLevel@@YAPAU_object@@PAU1@0@Z PROC	; systemIsShowMobLevel, COMDAT
; File C:\Anka2Project\Anka2Project\Source\Binary\source\eterBase\Singleton.h

; 26   : 		assert(ms_singleton);

  00000	8b 0d 00 00 00
	00		 mov	 ecx, DWORD PTR ?ms_singleton@?$CSingleton@VCPythonSystem@@@@0PAVCPythonSystem@@A ; CSingleton<CPythonSystem>::ms_singleton
  00006	85 c9		 test	 ecx, ecx
  00008	75 1a		 jne	 SHORT $LN5@systemIsSh
  0000a	6a 1a		 push	 26			; 0000001aH
  0000c	68 00 00 00 00	 push	 OFFSET ??_C@_1IO@CAJLEEOI@?$AAC?$AA?3?$AA?2?$AAA?$AAn?$AAk?$AAa?$AA2?$AAP?$AAr?$AAo?$AAj?$AAe?$AAc?$AAt@
  00011	68 00 00 00 00	 push	 OFFSET ??_C@_1BK@FMEHPMFE@?$AAm?$AAs?$AA_?$AAs?$AAi?$AAn?$AAg?$AAl?$AAe?$AAt?$AAo?$AAn@
  00016	e8 00 00 00 00	 call	 __wassert
  0001b	8b 0d 00 00 00
	00		 mov	 ecx, DWORD PTR ?ms_singleton@?$CSingleton@VCPythonSystem@@@@0PAVCPythonSystem@@A ; CSingleton<CPythonSystem>::ms_singleton
  00021	83 c4 0c	 add	 esp, 12			; 0000000cH
$LN5@systemIsSh:
; File C:\Anka2Project\Anka2Project\Source\Binary\source\UserInterface\PythonSystemModule.cpp

; 557  : 	return Py_BuildValue("i", CPythonSystem::Instance().IsShowMobLevel());

  00024	e8 00 00 00 00	 call	 ?IsShowMobLevel@CPythonSystem@@QAE_NXZ ; CPythonSystem::IsShowMobLevel
  00029	0f b6 c0	 movzx	 eax, al
  0002c	50		 push	 eax
  0002d	68 00 00 00 00	 push	 OFFSET ??_C@_01KBJDNOO@i@
  00032	ff 15 00 00 00
	00		 call	 DWORD PTR __imp__Py_BuildValue
  00038	83 c4 08	 add	 esp, 8

; 558  : }

  0003b	c3		 ret	 0
?systemIsShowMobLevel@@YAPAU_object@@PAU1@0@Z ENDP	; systemIsShowMobLevel
_TEXT	ENDS
; Function compile flags: /Ogtp
; File C:\Anka2Project\Anka2Project\Source\Binary\source\UserInterface\PythonSystemModule.cpp
; File C:\Anka2Project\Anka2Project\Source\Binary\source\eterBase\Singleton.h
; File C:\Anka2Project\Anka2Project\Source\Binary\source\UserInterface\PythonSystemModule.cpp
;	COMDAT ?systemIsShowMobAIFlag@@YAPAU_object@@PAU1@0@Z
_TEXT	SEGMENT
_poSelf$ = 8						; size = 4
_poArgs$ = 12						; size = 4
?systemIsShowMobAIFlag@@YAPAU_object@@PAU1@0@Z PROC	; systemIsShowMobAIFlag, COMDAT
; File C:\Anka2Project\Anka2Project\Source\Binary\source\eterBase\Singleton.h

; 26   : 		assert(ms_singleton);

  00000	8b 0d 00 00 00
	00		 mov	 ecx, DWORD PTR ?ms_singleton@?$CSingleton@VCPythonSystem@@@@0PAVCPythonSystem@@A ; CSingleton<CPythonSystem>::ms_singleton
  00006	85 c9		 test	 ecx, ecx
  00008	75 1a		 jne	 SHORT $LN5@systemIsSh
  0000a	6a 1a		 push	 26			; 0000001aH
  0000c	68 00 00 00 00	 push	 OFFSET ??_C@_1IO@CAJLEEOI@?$AAC?$AA?3?$AA?2?$AAA?$AAn?$AAk?$AAa?$AA2?$AAP?$AAr?$AAo?$AAj?$AAe?$AAc?$AAt@
  00011	68 00 00 00 00	 push	 OFFSET ??_C@_1BK@FMEHPMFE@?$AAm?$AAs?$AA_?$AAs?$AAi?$AAn?$AAg?$AAl?$AAe?$AAt?$AAo?$AAn@
  00016	e8 00 00 00 00	 call	 __wassert
  0001b	8b 0d 00 00 00
	00		 mov	 ecx, DWORD PTR ?ms_singleton@?$CSingleton@VCPythonSystem@@@@0PAVCPythonSystem@@A ; CSingleton<CPythonSystem>::ms_singleton
  00021	83 c4 0c	 add	 esp, 12			; 0000000cH
$LN5@systemIsSh:
; File C:\Anka2Project\Anka2Project\Source\Binary\source\UserInterface\PythonSystemModule.cpp

; 572  : 	return Py_BuildValue("i", CPythonSystem::Instance().IsShowMobAIFlag());

  00024	e8 00 00 00 00	 call	 ?IsShowMobAIFlag@CPythonSystem@@QAE_NXZ ; CPythonSystem::IsShowMobAIFlag
  00029	0f b6 c0	 movzx	 eax, al
  0002c	50		 push	 eax
  0002d	68 00 00 00 00	 push	 OFFSET ??_C@_01KBJDNOO@i@
  00032	ff 15 00 00 00
	00		 call	 DWORD PTR __imp__Py_BuildValue
  00038	83 c4 08	 add	 esp, 8

; 573  : }

  0003b	c3		 ret	 0
?systemIsShowMobAIFlag@@YAPAU_object@@PAU1@0@Z ENDP	; systemIsShowMobAIFlag
_TEXT	ENDS
; Function compile flags: /Ogtp
; File C:\Anka2Project\Anka2Project\Source\Binary\source\UserInterface\PythonSystemModule.cpp
; File C:\Anka2Project\Anka2Project\Source\Binary\source\eterBase\Singleton.h
; File C:\Anka2Project\Anka2Project\Source\Binary\source\UserInterface\PythonSystemModule.cpp
;	COMDAT ?systemIsShowOutline@@YAPAU_object@@PAU1@0@Z
_TEXT	SEGMENT
_poSelf$ = 8						; size = 4
_poArgs$ = 12						; size = 4
?systemIsShowOutline@@YAPAU_object@@PAU1@0@Z PROC	; systemIsShowOutline, COMDAT

; 579  : 	static auto& system = CPythonSystem::Instance();

  00000	64 a1 00 00 00
	00		 mov	 eax, DWORD PTR fs:__tls_array
  00006	8b 08		 mov	 ecx, DWORD PTR [eax]
  00008	a1 00 00 00 00	 mov	 eax, DWORD PTR ?$TSS0@?1??systemIsShowOutline@@YAPAU_object@@PAU2@0@Z@4HA
  0000d	3b 81 00 00 00
	00		 cmp	 eax, DWORD PTR __Init_thread_epoch[ecx]
  00013	7e 4a		 jle	 SHORT $LN2@systemIsSh
  00015	68 00 00 00 00	 push	 OFFSET ?$TSS0@?1??systemIsShowOutline@@YAPAU_object@@PAU2@0@Z@4HA
  0001a	e8 00 00 00 00	 call	 __Init_thread_header
  0001f	83 c4 04	 add	 esp, 4
  00022	83 3d 00 00 00
	00 ff		 cmp	 DWORD PTR ?$TSS0@?1??systemIsShowOutline@@YAPAU_object@@PAU2@0@Z@4HA, -1
  00029	75 34		 jne	 SHORT $LN2@systemIsSh
; File C:\Anka2Project\Anka2Project\Source\Binary\source\eterBase\Singleton.h

; 26   : 		assert(ms_singleton);

  0002b	a1 00 00 00 00	 mov	 eax, DWORD PTR ?ms_singleton@?$CSingleton@VCPythonSystem@@@@0PAVCPythonSystem@@A ; CSingleton<CPythonSystem>::ms_singleton
  00030	85 c0		 test	 eax, eax
  00032	75 19		 jne	 SHORT $LN6@systemIsSh
  00034	6a 1a		 push	 26			; 0000001aH
  00036	68 00 00 00 00	 push	 OFFSET ??_C@_1IO@CAJLEEOI@?$AAC?$AA?3?$AA?2?$AAA?$AAn?$AAk?$AAa?$AA2?$AAP?$AAr?$AAo?$AAj?$AAe?$AAc?$AAt@
  0003b	68 00 00 00 00	 push	 OFFSET ??_C@_1BK@FMEHPMFE@?$AAm?$AAs?$AA_?$AAs?$AAi?$AAn?$AAg?$AAl?$AAe?$AAt?$AAo?$AAn@
  00040	e8 00 00 00 00	 call	 __wassert
  00045	a1 00 00 00 00	 mov	 eax, DWORD PTR ?ms_singleton@?$CSingleton@VCPythonSystem@@@@0PAVCPythonSystem@@A ; CSingleton<CPythonSystem>::ms_singleton
  0004a	83 c4 0c	 add	 esp, 12			; 0000000cH
$LN6@systemIsSh:
; File C:\Anka2Project\Anka2Project\Source\Binary\source\UserInterface\PythonSystemModule.cpp

; 579  : 	static auto& system = CPythonSystem::Instance();

  0004d	68 00 00 00 00	 push	 OFFSET ?$TSS0@?1??systemIsShowOutline@@YAPAU_object@@PAU2@0@Z@4HA
  00052	a3 00 00 00 00	 mov	 DWORD PTR ?system@?1??systemIsShowOutline@@YAPAU_object@@PAU2@0@Z@4AAVCPythonSystem@@A, eax
  00057	e8 00 00 00 00	 call	 __Init_thread_footer
  0005c	83 c4 04	 add	 esp, 4
$LN2@systemIsSh:

; 580  : 	return Py_BuildValue("b", system.IsShowOutline());

  0005f	8b 0d 00 00 00
	00		 mov	 ecx, DWORD PTR ?system@?1??systemIsShowOutline@@YAPAU_object@@PAU2@0@Z@4AAVCPythonSystem@@A
  00065	e8 00 00 00 00	 call	 ?IsShowOutline@CPythonSystem@@QBE_NXZ ; CPythonSystem::IsShowOutline
  0006a	0f b6 c0	 movzx	 eax, al
  0006d	50		 push	 eax
  0006e	68 00 00 00 00	 push	 OFFSET ??_C@_01OJONOECF@b@
  00073	ff 15 00 00 00
	00		 call	 DWORD PTR __imp__Py_BuildValue
  00079	83 c4 08	 add	 esp, 8

; 581  : }

  0007c	c3		 ret	 0
?systemIsShowOutline@@YAPAU_object@@PAU1@0@Z ENDP	; systemIsShowOutline
_TEXT	ENDS
; Function compile flags: /Ogtp
; File C:\Anka2Project\Anka2Project\Source\Binary\source\UserInterface\PythonSystemModule.cpp
; File C:\Anka2Project\Anka2Project\Source\Binary\source\eterBase\Singleton.h
; File C:\Anka2Project\Anka2Project\Source\Binary\source\UserInterface\PythonSystemModule.cpp
;	COMDAT ?systemGetFOV@@YAPAU_object@@PAU1@0@Z
_TEXT	SEGMENT
_poSelf$ = 8						; size = 4
_poArgs$ = 12						; size = 4
?systemGetFOV@@YAPAU_object@@PAU1@0@Z PROC		; systemGetFOV, COMDAT
; File C:\Anka2Project\Anka2Project\Source\Binary\source\eterBase\Singleton.h

; 26   : 		assert(ms_singleton);

  00000	8b 0d 00 00 00
	00		 mov	 ecx, DWORD PTR ?ms_singleton@?$CSingleton@VCPythonSystem@@@@0PAVCPythonSystem@@A ; CSingleton<CPythonSystem>::ms_singleton
  00006	85 c9		 test	 ecx, ecx
  00008	75 1a		 jne	 SHORT $LN5@systemGetF
  0000a	6a 1a		 push	 26			; 0000001aH
  0000c	68 00 00 00 00	 push	 OFFSET ??_C@_1IO@CAJLEEOI@?$AAC?$AA?3?$AA?2?$AAA?$AAn?$AAk?$AAa?$AA2?$AAP?$AAr?$AAo?$AAj?$AAe?$AAc?$AAt@
  00011	68 00 00 00 00	 push	 OFFSET ??_C@_1BK@FMEHPMFE@?$AAm?$AAs?$AA_?$AAs?$AAi?$AAn?$AAg?$AAl?$AAe?$AAt?$AAo?$AAn@
  00016	e8 00 00 00 00	 call	 __wassert
  0001b	8b 0d 00 00 00
	00		 mov	 ecx, DWORD PTR ?ms_singleton@?$CSingleton@VCPythonSystem@@@@0PAVCPythonSystem@@A ; CSingleton<CPythonSystem>::ms_singleton
  00021	83 c4 0c	 add	 esp, 12			; 0000000cH
$LN5@systemGetF:
; File C:\Anka2Project\Anka2Project\Source\Binary\source\UserInterface\PythonSystemModule.cpp

; 607  : 	return Py_BuildValue("f", CPythonSystem::Instance().GetFOV());

  00024	e8 00 00 00 00	 call	 ?GetFOV@CPythonSystem@@QAEMXZ ; CPythonSystem::GetFOV
  00029	f3 0f 5a c0	 cvtss2sd xmm0, xmm0
  0002d	83 ec 08	 sub	 esp, 8
  00030	f2 0f 11 04 24	 movsd	 QWORD PTR [esp], xmm0
  00035	68 00 00 00 00	 push	 OFFSET ??_C@_01INIBCBCB@f@
  0003a	ff 15 00 00 00
	00		 call	 DWORD PTR __imp__Py_BuildValue
  00040	83 c4 0c	 add	 esp, 12			; 0000000cH

; 608  : }

  00043	c3		 ret	 0
?systemGetFOV@@YAPAU_object@@PAU1@0@Z ENDP		; systemGetFOV
_TEXT	ENDS
; Function compile flags: /Ogtp
; File C:\Anka2Project\Anka2Project\Source\Binary\source\UserInterface\PythonSystemModule.cpp
; File C:\Anka2Project\Anka2Project\Source\Binary\source\eterBase\Singleton.h
; File C:\Anka2Project\Anka2Project\Source\Binary\source\UserInterface\PythonSystemModule.cpp
;	COMDAT ?systemGetStoneScale@@YAPAU_object@@PAU1@0@Z
_TEXT	SEGMENT
_poSelf$ = 8						; size = 4
_poArgs$ = 12						; size = 4
?systemGetStoneScale@@YAPAU_object@@PAU1@0@Z PROC	; systemGetStoneScale, COMDAT
; File C:\Anka2Project\Anka2Project\Source\Binary\source\eterBase\Singleton.h

; 26   : 		assert(ms_singleton);

  00000	8b 0d 00 00 00
	00		 mov	 ecx, DWORD PTR ?ms_singleton@?$CSingleton@VCPythonSystem@@@@0PAVCPythonSystem@@A ; CSingleton<CPythonSystem>::ms_singleton
  00006	85 c9		 test	 ecx, ecx
  00008	75 1a		 jne	 SHORT $LN5@systemGetS
  0000a	6a 1a		 push	 26			; 0000001aH
  0000c	68 00 00 00 00	 push	 OFFSET ??_C@_1IO@CAJLEEOI@?$AAC?$AA?3?$AA?2?$AAA?$AAn?$AAk?$AAa?$AA2?$AAP?$AAr?$AAo?$AAj?$AAe?$AAc?$AAt@
  00011	68 00 00 00 00	 push	 OFFSET ??_C@_1BK@FMEHPMFE@?$AAm?$AAs?$AA_?$AAs?$AAi?$AAn?$AAg?$AAl?$AAe?$AAt?$AAo?$AAn@
  00016	e8 00 00 00 00	 call	 __wassert
  0001b	8b 0d 00 00 00
	00		 mov	 ecx, DWORD PTR ?ms_singleton@?$CSingleton@VCPythonSystem@@@@0PAVCPythonSystem@@A ; CSingleton<CPythonSystem>::ms_singleton
  00021	83 c4 0c	 add	 esp, 12			; 0000000cH
$LN5@systemGetS:
; File C:\Anka2Project\Anka2Project\Source\Binary\source\UserInterface\PythonSystemModule.cpp

; 624  : 	return Py_BuildValue("f", CPythonSystem::Instance().GetStoneScale());

  00024	e8 00 00 00 00	 call	 ?GetStoneScale@CPythonSystem@@QAEMXZ ; CPythonSystem::GetStoneScale
  00029	f3 0f 5a c0	 cvtss2sd xmm0, xmm0
  0002d	83 ec 08	 sub	 esp, 8
  00030	f2 0f 11 04 24	 movsd	 QWORD PTR [esp], xmm0
  00035	68 00 00 00 00	 push	 OFFSET ??_C@_01INIBCBCB@f@
  0003a	ff 15 00 00 00
	00		 call	 DWORD PTR __imp__Py_BuildValue
  00040	83 c4 0c	 add	 esp, 12			; 0000000cH

; 625  : }

  00043	c3		 ret	 0
?systemGetStoneScale@@YAPAU_object@@PAU1@0@Z ENDP	; systemGetStoneScale
_TEXT	ENDS
; Function compile flags: /Ogtp
; File C:\Anka2Project\Anka2Project\Source\Binary\source\UserInterface\PythonSystemModule.cpp
; File C:\Anka2Project\Anka2Project\Source\Binary\source\eterBase\Singleton.h
; File C:\Anka2Project\Anka2Project\Source\Binary\source\UserInterface\PythonSystemModule.cpp
;	COMDAT ?systemGetDungeonTrack@@YAPAU_object@@PAU1@0@Z
_TEXT	SEGMENT
_poSelf$ = 8						; size = 4
_poArgs$ = 12						; size = 4
?systemGetDungeonTrack@@YAPAU_object@@PAU1@0@Z PROC	; systemGetDungeonTrack, COMDAT
; File C:\Anka2Project\Anka2Project\Source\Binary\source\eterBase\Singleton.h

; 26   : 		assert(ms_singleton);

  00000	a1 00 00 00 00	 mov	 eax, DWORD PTR ?ms_singleton@?$CSingleton@VCPythonSystem@@@@0PAVCPythonSystem@@A ; CSingleton<CPythonSystem>::ms_singleton
  00005	85 c0		 test	 eax, eax
  00007	75 19		 jne	 SHORT $LN5@systemGetD
  00009	6a 1a		 push	 26			; 0000001aH
  0000b	68 00 00 00 00	 push	 OFFSET ??_C@_1IO@CAJLEEOI@?$AAC?$AA?3?$AA?2?$AAA?$AAn?$AAk?$AAa?$AA2?$AAP?$AAr?$AAo?$AAj?$AAe?$AAc?$AAt@
  00010	68 00 00 00 00	 push	 OFFSET ??_C@_1BK@FMEHPMFE@?$AAm?$AAs?$AA_?$AAs?$AAi?$AAn?$AAg?$AAl?$AAe?$AAt?$AAo?$AAn@
  00015	e8 00 00 00 00	 call	 __wassert
  0001a	a1 00 00 00 00	 mov	 eax, DWORD PTR ?ms_singleton@?$CSingleton@VCPythonSystem@@@@0PAVCPythonSystem@@A ; CSingleton<CPythonSystem>::ms_singleton
  0001f	83 c4 0c	 add	 esp, 12			; 0000000cH
$LN5@systemGetD:
; File C:\Anka2Project\Anka2Project\Source\Binary\source\UserInterface\PythonSystemModule.cpp

; 641  : 	return Py_BuildValue("i", CPythonSystem::Instance().GetDungeonTrack());

  00022	0f b6 80 f4 25
	00 00		 movzx	 eax, BYTE PTR [eax+9716]
  00029	50		 push	 eax
  0002a	68 00 00 00 00	 push	 OFFSET ??_C@_01KBJDNOO@i@
  0002f	ff 15 00 00 00
	00		 call	 DWORD PTR __imp__Py_BuildValue
  00035	83 c4 08	 add	 esp, 8

; 642  : }

  00038	c3		 ret	 0
?systemGetDungeonTrack@@YAPAU_object@@PAU1@0@Z ENDP	; systemGetDungeonTrack
_TEXT	ENDS
; Function compile flags: /Ogtp
; File C:\Anka2Project\Anka2Project\Source\Binary\source\UserInterface\PythonSystemModule.cpp
; File C:\Anka2Project\Anka2Project\Source\Binary\source\eterBase\Singleton.h
; File C:\Anka2Project\Anka2Project\Source\Binary\source\UserInterface\PythonSystemModule.cpp
;	COMDAT ?systemGetBossTrack@@YAPAU_object@@PAU1@0@Z
_TEXT	SEGMENT
_poSelf$ = 8						; size = 4
_poArgs$ = 12						; size = 4
?systemGetBossTrack@@YAPAU_object@@PAU1@0@Z PROC	; systemGetBossTrack, COMDAT
; File C:\Anka2Project\Anka2Project\Source\Binary\source\eterBase\Singleton.h

; 26   : 		assert(ms_singleton);

  00000	a1 00 00 00 00	 mov	 eax, DWORD PTR ?ms_singleton@?$CSingleton@VCPythonSystem@@@@0PAVCPythonSystem@@A ; CSingleton<CPythonSystem>::ms_singleton
  00005	85 c0		 test	 eax, eax
  00007	75 19		 jne	 SHORT $LN5@systemGetB
  00009	6a 1a		 push	 26			; 0000001aH
  0000b	68 00 00 00 00	 push	 OFFSET ??_C@_1IO@CAJLEEOI@?$AAC?$AA?3?$AA?2?$AAA?$AAn?$AAk?$AAa?$AA2?$AAP?$AAr?$AAo?$AAj?$AAe?$AAc?$AAt@
  00010	68 00 00 00 00	 push	 OFFSET ??_C@_1BK@FMEHPMFE@?$AAm?$AAs?$AA_?$AAs?$AAi?$AAn?$AAg?$AAl?$AAe?$AAt?$AAo?$AAn@
  00015	e8 00 00 00 00	 call	 __wassert
  0001a	a1 00 00 00 00	 mov	 eax, DWORD PTR ?ms_singleton@?$CSingleton@VCPythonSystem@@@@0PAVCPythonSystem@@A ; CSingleton<CPythonSystem>::ms_singleton
  0001f	83 c4 0c	 add	 esp, 12			; 0000000cH
$LN5@systemGetB:
; File C:\Anka2Project\Anka2Project\Source\Binary\source\UserInterface\PythonSystemModule.cpp

; 656  : 	return Py_BuildValue("i", CPythonSystem::Instance().GetBossTrack());

  00022	0f b6 80 f5 25
	00 00		 movzx	 eax, BYTE PTR [eax+9717]
  00029	50		 push	 eax
  0002a	68 00 00 00 00	 push	 OFFSET ??_C@_01KBJDNOO@i@
  0002f	ff 15 00 00 00
	00		 call	 DWORD PTR __imp__Py_BuildValue
  00035	83 c4 08	 add	 esp, 8

; 657  : }

  00038	c3		 ret	 0
?systemGetBossTrack@@YAPAU_object@@PAU1@0@Z ENDP	; systemGetBossTrack
_TEXT	ENDS
; Function compile flags: /Ogtp
; File C:\Anka2Project\Anka2Project\Source\Binary\source\UserInterface\PythonSystemModule.cpp
;	COMDAT ?initsystem@@YAXXZ
_TEXT	SEGMENT
?initsystem@@YAXXZ PROC					; initsystem, COMDAT

; 661  : {

  00000	56		 push	 esi
  00001	57		 push	 edi

; 662  : 	static PyMethodDef s_methods[] =
; 663  : 	{
; 664  : 		{ "GetWidth", systemGetWidth, METH_VARARGS },
; 665  : 		{ "GetHeight", systemGetHeight, METH_VARARGS },
; 666  : 
; 667  : 		{ "SetInterfaceHandler", systemSetInterfaceHandler, METH_VARARGS },
; 668  : 		{ "DestroyInterfaceHandler", systemDestroyInterfaceHandler, METH_VARARGS },
; 669  : 		{ "ReserveResource", systemReserveResource, METH_VARARGS },
; 670  : 
; 671  : 		{ "isInterfaceConfig", systemisInterfaceConfig, METH_VARARGS },
; 672  : 		{ "SaveWindowStatus", systemSaveWindowStatus, METH_VARARGS },
; 673  : 		{ "GetWindowStatus", systemGetWindowStatus, METH_VARARGS },
; 674  : 
; 675  : 		{ "GetResolutionCount", systemGetResolutionCount, METH_VARARGS },
; 676  : 		{ "GetFrequencyCount", systemGetFrequencyCount, METH_VARARGS },
; 677  : 
; 678  : 		{ "GetCurrentResolution", systemGetCurrentResolution, METH_VARARGS },
; 679  : 
; 680  : 		{ "GetResolution", systemGetResolution, METH_VARARGS },
; 681  : 		{ "GetFrequency", systemGetFrequency, METH_VARARGS },
; 682  : 
; 683  : 		{ "ApplyConfig", systemApplyConfig, METH_VARARGS },
; 684  : 		{ "SetConfig", systemSetConfig, METH_VARARGS },
; 685  : 		{ "SaveConfig", systemSaveConfig, METH_VARARGS },
; 686  : 		{ "GetConfig", systemGetConfig, METH_VARARGS },
; 687  : 
; 688  : 		{ "SetSaveID", systemSetSaveID, METH_VARARGS },
; 689  : 		{ "isSaveID", systemisSaveID, METH_VARARGS },
; 690  : 		{ "GetSaveID", systemGetSaveID, METH_VARARGS },
; 691  : 
; 692  : 		{ "GetMusicVolume", systemGetMusicVolume, METH_VARARGS },
; 693  : 		{ "GetSoundVolume", systemGetSoundVolume, METH_VARARGS },
; 694  : 
; 695  : 		{ "SetMusicVolume", systemSetMusicVolume, METH_VARARGS },
; 696  : 		{ "SetSoundVolumef", systemSetSoundVolumef, METH_VARARGS },
; 697  : 		{ "IsSoftwareCursor", systemIsSoftwareCursor, METH_VARARGS },
; 698  : 
; 699  : 		{ "SetViewChatFlag", systemSetViewChatFlag, METH_VARARGS },
; 700  : 		{ "IsViewChat", systemIsViewChat, METH_VARARGS },
; 701  : 
; 702  : 		{ "SetAlwaysShowNameFlag", systemSetAlwaysShowNameFlag, METH_VARARGS },
; 703  : 		{ "IsAlwaysShowName", systemIsAlwaysShowName, METH_VARARGS },
; 704  : 
; 705  : 		{ "SetShowDamageFlag", systemSetShowDamageFlag, METH_VARARGS },
; 706  : 		{ "IsShowDamage", systemIsShowDamage, METH_VARARGS },
; 707  : 
; 708  : 		{ "SetShowSalesTextFlag", systemSetShowSalesTextFlag, METH_VARARGS },
; 709  : 		{ "IsShowSalesText", systemIsShowSalesText, METH_VARARGS },
; 710  : 
; 711  : 		{ "GetShadowLevel", systemGetShadowLevel, METH_VARARGS },
; 712  : 		{ "SetShadowLevel", systemSetShadowLevel, METH_VARARGS },
; 713  : 
; 714  : #ifdef ENABLE_FOG_FIX
; 715  : 		{ "SetFogMode", systemSetFogMode, METH_VARARGS },
; 716  : 		{ "IsFogMode", systemIsFogMode, METH_VARARGS },
; 717  : #endif
; 718  : 
; 719  : #ifdef ENABLE_ENB_MODE
; 720  : 		{ "SetENBModeStatusFlag", systemSetENBModeStatusFlag, METH_VARARGS },
; 721  : 		{ "IsENBModeStatus", systemIsENBModeStatus, METH_VARARGS },
; 722  : #endif
; 723  : 
; 724  : #ifdef ENABLE_ENVIRONMENT_EFFECT_OPTION
; 725  : 		{ "SetNightModeOption", systemSetNightModeOption, METH_VARARGS },
; 726  : 		{ "GetNightModeOption", systemGetNightModeOption, METH_VARARGS },
; 727  : 
; 728  : 		{ "SetSnowModeOption", systemSetSnowModeOption, METH_VARARGS },
; 729  : 		{ "GetSnowModeOption", systemGetSnowModeOption, METH_VARARGS },
; 730  : 
; 731  : 		{ "SetSnowTextureModeOption", systemSetSnowTextureModeOption, METH_VARARGS },
; 732  : 		{ "GetSnowTextureModeOption", systemGetSnowTextureModeOption, METH_VARARGS },
; 733  : #endif
; 734  : 
; 735  : #ifdef ENABLE_GRAPHIC_ON_OFF
; 736  : 		{ "GetEffectLevel", systemGetEffectLevel, METH_VARARGS },
; 737  : 		{ "SetEffectLevel", systemSetEffectLevel, METH_VARARGS },
; 738  : 
; 739  : 		{ "GetPrivateShopLevel", systemGetPrivateShopLevel, METH_VARARGS },
; 740  : 		{ "SetPrivateShopLevel", systemSetPrivateShopLevel, METH_VARARGS },
; 741  : 
; 742  : 		{ "GetDropItemLevel", systemGetDropItemLevel, METH_VARARGS },
; 743  : 		{ "SetDropItemLevel", systemSetDropItemLevel, METH_VARARGS },
; 744  : 
; 745  : 		{ "SetPetStatusFlag", systemSetPetStatusFlag, METH_VARARGS },
; 746  : 		{ "IsPetStatus", systemIsPetStatus, METH_VARARGS },
; 747  : 
; 748  : 		{ "SetNpcNameStatusFlag", systemSetNpcNameStatusFlag, METH_VARARGS },
; 749  : 		{ "IsNpcNameStatus", systemIsNpcNameStatus, METH_VARARGS },
; 750  : #endif
; 751  : 
; 752  : #ifdef ENABLE_SHOW_MOB_INFO
; 753  : 		{ "SetShowMobAIFlag", systemSetShowMobAIFlag, METH_VARARGS },
; 754  : 		{ "IsShowMobAIFlag", systemIsShowMobAIFlag, METH_VARARGS },
; 755  : 
; 756  : 		{ "SetShowMobLevel", systemSetShowMobLevel, METH_VARARGS },
; 757  : 		{ "IsShowMobLevel", systemIsShowMobLevel, METH_VARARGS },
; 758  : #endif
; 759  : 
; 760  : #ifdef ENABLE_RENEWAL_TEXT_SHADOW
; 761  : 		{"SetShowOutlineFlag", systemSetShowOutlineFlag, METH_VARARGS},
; 762  : 		{"IsShowOutline", systemIsShowOutline, METH_VARARGS},
; 763  : #endif
; 764  : 
; 765  : #ifdef ENABLE_FOV_OPTION
; 766  : 		{ "SetFOV", systemSetFOV, METH_VARARGS },
; 767  : 		{ "GetFOV", systemGetFOV, METH_VARARGS },
; 768  : #endif
; 769  : 
; 770  : #ifdef ENABLE_STONE_SCALE_OPTION
; 771  : 		{ "SetStoneScale", systemSetStoneScale, METH_VARARGS },
; 772  : 		{ "GetStoneScale", systemGetStoneScale, METH_VARARGS },
; 773  : 	#endif
; 774  : 
; 775  : #ifdef ENABLE_DUNGEON_TRACKING_SYSTEM
; 776  : 		{ "SetDungeonTrack", systemSetDungeonTrack, METH_VARARGS },
; 777  : 		{ "GetDungeonTrack", systemGetDungeonTrack, METH_VARARGS },
; 778  : 		{ "SetBossTrack", systemSetBossTrack, METH_VARARGS },
; 779  : 		{ "GetBossTrack", systemGetBossTrack, METH_VARARGS },
; 780  : #endif
; 781  : 
; 782  : 		{ nullptr, nullptr }
; 783  : 	};
; 784  : 
; 785  : 	PyObject *poModule = Py_InitModule("systemSetting", s_methods);

  00002	68 f5 03 00 00	 push	 1013			; 000003f5H
  00007	6a 00		 push	 0
  00009	6a 00		 push	 0
  0000b	68 00 00 00 00	 push	 OFFSET ?s_methods@?1??initsystem@@YAXXZ@4PAUPyMethodDef@@A
  00010	68 00 00 00 00	 push	 OFFSET ??_C@_0O@LCPLIAAE@systemSetting@
  00015	ff 15 00 00 00
	00		 call	 DWORD PTR __imp__Py_InitModule4

; 786  : 
; 787  : 	PyModule_AddIntConstant(poModule, "WINDOW_STATUS", CPythonSystem::WINDOW_STATUS);

  0001b	8b 35 00 00 00
	00		 mov	 esi, DWORD PTR __imp__PyModule_AddIntConstant
  00021	8b f8		 mov	 edi, eax
  00023	6a 00		 push	 0
  00025	68 00 00 00 00	 push	 OFFSET ??_C@_0O@EDOCFBFG@WINDOW_STATUS@
  0002a	57		 push	 edi
  0002b	ff d6		 call	 esi

; 788  : 	PyModule_AddIntConstant(poModule, "WINDOW_INVENTORY", CPythonSystem::WINDOW_INVENTORY);

  0002d	6a 01		 push	 1
  0002f	68 00 00 00 00	 push	 OFFSET ??_C@_0BB@CHCHLBGG@WINDOW_INVENTORY@
  00034	57		 push	 edi
  00035	ff d6		 call	 esi

; 789  : 	PyModule_AddIntConstant(poModule, "WINDOW_ABILITY", CPythonSystem::WINDOW_ABILITY);

  00037	6a 02		 push	 2
  00039	68 00 00 00 00	 push	 OFFSET ??_C@_0P@HAOBMPKD@WINDOW_ABILITY@
  0003e	57		 push	 edi
  0003f	ff d6		 call	 esi

; 790  : 	PyModule_AddIntConstant(poModule, "WINDOW_SOCIETY", CPythonSystem::WINDOW_SOCIETY);

  00041	6a 03		 push	 3
  00043	68 00 00 00 00	 push	 OFFSET ??_C@_0P@MAFILJL@WINDOW_SOCIETY@
  00048	57		 push	 edi
  00049	ff d6		 call	 esi
  0004b	83 c4 44	 add	 esp, 68			; 00000044H

; 791  : 	PyModule_AddIntConstant(poModule, "WINDOW_JOURNAL", CPythonSystem::WINDOW_JOURNAL);

  0004e	6a 04		 push	 4
  00050	68 00 00 00 00	 push	 OFFSET ??_C@_0P@FHBHOGAA@WINDOW_JOURNAL@
  00055	57		 push	 edi
  00056	ff d6		 call	 esi

; 792  : 	PyModule_AddIntConstant(poModule, "WINDOW_COMMAND", CPythonSystem::WINDOW_COMMAND);

  00058	6a 05		 push	 5
  0005a	68 00 00 00 00	 push	 OFFSET ??_C@_0P@NOILKAON@WINDOW_COMMAND@
  0005f	57		 push	 edi
  00060	ff d6		 call	 esi

; 793  : 
; 794  : 	PyModule_AddIntConstant(poModule, "WINDOW_QUICK", CPythonSystem::WINDOW_QUICK);

  00062	6a 06		 push	 6
  00064	68 00 00 00 00	 push	 OFFSET ??_C@_0N@BOOBGFI@WINDOW_QUICK@
  00069	57		 push	 edi
  0006a	ff d6		 call	 esi

; 795  : 	PyModule_AddIntConstant(poModule, "WINDOW_GAUGE", CPythonSystem::WINDOW_GAUGE);

  0006c	6a 07		 push	 7
  0006e	68 00 00 00 00	 push	 OFFSET ??_C@_0N@MCEEKLOJ@WINDOW_GAUGE@
  00073	57		 push	 edi
  00074	ff d6		 call	 esi

; 796  : 	PyModule_AddIntConstant(poModule, "WINDOW_MINIMAP", CPythonSystem::WINDOW_MINIMAP);

  00076	6a 08		 push	 8
  00078	68 00 00 00 00	 push	 OFFSET ??_C@_0P@LEOBHMFL@WINDOW_MINIMAP@
  0007d	57		 push	 edi
  0007e	ff d6		 call	 esi

; 797  : 	PyModule_AddIntConstant(poModule, "WINDOW_CHAT", CPythonSystem::WINDOW_CHAT);

  00080	6a 09		 push	 9
  00082	68 00 00 00 00	 push	 OFFSET ??_C@_0M@GHKKFINH@WINDOW_CHAT@
  00087	57		 push	 edi
  00088	ff d6		 call	 esi
  0008a	83 c4 48	 add	 esp, 72			; 00000048H
  0008d	5f		 pop	 edi
  0008e	5e		 pop	 esi

; 798  : }

  0008f	c3		 ret	 0
?initsystem@@YAXXZ ENDP					; initsystem
_TEXT	ENDS
END
