; Listing generated by Microsoft (R) Optimizing Compiler Version 19.44.35219.0 

	TITLE	c:\anka2project\anka2project\source\binary\vs_files\userinterface\release\pythonimemodule.obj
	.686P
	.XMM
	include listing.inc
	.model	flat

INCLUDELIB OLDNAMES

PUBLIC	??_C@_06CKGENIKG@Enable@			; `string'
PUBLIC	??_C@_07MIKIFGAL@Disable@			; `string'
PUBLIC	??_C@_0BD@KOHIEJEK@EnableCaptureInput@		; `string'
PUBLIC	??_C@_0BE@BLPFKFGH@DisableCaptureInput@		; `string'
PUBLIC	??_C@_06ODEINJEE@SetMax@			; `string'
PUBLIC	??_C@_0L@DDEFGAIA@SetUserMax@			; `string'
PUBLIC	??_C@_07NIJDBDAG@SetText@			; `string'
PUBLIC	??_C@_07CAGCCMNH@GetText@			; `string'
PUBLIC	??_C@_0M@DJHPBOFH@GetCodePage@			; `string'
PUBLIC	??_C@_0BC@NEACAHDI@GetCandidateCount@		; `string'
PUBLIC	??_C@_0N@MBNDKHML@GetCandidate@			; `string'
PUBLIC	??_C@_0BG@LMHBMBJJ@GetCandidateSelection@	; `string'
PUBLIC	??_C@_0L@LOMGCGNK@GetReading@			; `string'
PUBLIC	??_C@_0BA@OKELCJNA@GetReadingError@		; `string'
PUBLIC	??_C@_09MNJLHJMK@EnableIME@			; `string'
PUBLIC	??_C@_0L@CLOJIMEF@DisableIME@			; `string'
PUBLIC	??_C@_0N@COLAMEMD@GetInputMode@			; `string'
PUBLIC	??_C@_0N@FKAOAIIP@SetInputMode@			; `string'
PUBLIC	??_C@_0O@OBBEEOID@SetNumberMode@		; `string'
PUBLIC	??_C@_0O@BELLPKFF@SetStringMode@		; `string'
PUBLIC	??_C@_0N@BEEPHFCL@AddExceptKey@			; `string'
PUBLIC	??_C@_0P@BMGBGHLF@ClearExceptKey@		; `string'
PUBLIC	??_C@_08HOJDHPPH@MoveLeft@			; `string'
PUBLIC	??_C@_09DJFIPLKJ@MoveRight@			; `string'
PUBLIC	??_C@_08LLCCPFKC@MoveHome@			; `string'
PUBLIC	??_C@_07DGAADNMB@MoveEnd@			; `string'
PUBLIC	??_C@_0BC@BMJNLHPP@SetCursorPosition@		; `string'
PUBLIC	??_C@_06JBKGCNBB@Delete@			; `string'
PUBLIC	??_C@_0M@COHGIEGI@PasteString@			; `string'
PUBLIC	??_C@_0P@BFPBPOKO@PasteBackspace@		; `string'
PUBLIC	??_C@_0M@BBPKKCDI@PasteReturn@			; `string'
PUBLIC	??_C@_0BH@KBLDCMMB@PasteTextFromClipBoard@	; `string'
PUBLIC	??_C@_0M@KGBGFCIC@EnablePaste@			; `string'
PUBLIC	??_C@_03MABAFPPL@ime@				; `string'
EXTRN	?PasteString@CIME@@QAEXPBD@Z:PROC		; CIME::PasteString
EXTRN	?PasteTextFromClipBoard@CIME@@QAEXXZ:PROC	; CIME::PasteTextFromClipBoard
EXTRN	?EnablePaste@CIME@@QAEX_N@Z:PROC		; CIME::EnablePaste
EXTRN	?SetStringMode@CIME@@QAEXXZ:PROC		; CIME::SetStringMode
EXTRN	?GetInputMode@CIME@@QAEKXZ:PROC			; CIME::GetInputMode
EXTRN	?AddExceptKey@CIME@@QAEX_W@Z:PROC		; CIME::AddExceptKey
EXTRN	?ClearExceptKey@CIME@@QAEXXZ:PROC		; CIME::ClearExceptKey
EXTRN	?SetInputMode@CIME@@QAEXK@Z:PROC		; CIME::SetInputMode
EXTRN	?SetNumberMode@CIME@@QAEXXZ:PROC		; CIME::SetNumberMode
EXTRN	?EnableIME@CIME@@QAEX_N@Z:PROC			; CIME::EnableIME
EXTRN	?DisableIME@CIME@@QAEXXZ:PROC			; CIME::DisableIME
EXTRN	?GetReading@CIME@@QAEHAAV?$basic_string@DU?$char_traits@D@std@@V?$allocator@D@2@@std@@@Z:PROC ; CIME::GetReading
EXTRN	?GetReadingError@CIME@@QAEHXZ:PROC		; CIME::GetReadingError
EXTRN	?GetCandidate@CIME@@QAEHKAAV?$basic_string@DU?$char_traits@D@std@@V?$allocator@D@2@@std@@@Z:PROC ; CIME::GetCandidate
EXTRN	?GetCandidateSelection@CIME@@QAEHXZ:PROC	; CIME::GetCandidateSelection
EXTRN	?GetCodePage@CIME@@QAEHXZ:PROC			; CIME::GetCodePage
EXTRN	?GetCandidatePageCount@CIME@@QAEHXZ:PROC	; CIME::GetCandidatePageCount
EXTRN	?SetUserMax@CIME@@QAEXH@Z:PROC			; CIME::SetUserMax
EXTRN	?GetText@CIME@@QAEHAAV?$basic_string@DU?$char_traits@D@std@@V?$allocator@D@2@@std@@_N@Z:PROC ; CIME::GetText
EXTRN	?DisableCaptureInput@CIME@@QAEXXZ:PROC		; CIME::DisableCaptureInput
EXTRN	?SetMax@CIME@@QAEXH@Z:PROC			; CIME::SetMax
EXTRN	?Uninitialize@CIME@@QAEXXZ:PROC			; CIME::Uninitialize
EXTRN	?EnableCaptureInput@CIME@@QAEXXZ:PROC		; CIME::EnableCaptureInput
;	COMDAT ?s_methods@?1??initime@@YAXXZ@4PAUPyMethodDef@@A
_DATA	SEGMENT
?s_methods@?1??initime@@YAXXZ@4PAUPyMethodDef@@A DD FLAT:??_C@_06CKGENIKG@Enable@ ; `initime'::`2'::s_methods
	DD	FLAT:?imeEnable@@YAPAU_object@@PAU1@0@Z
	DD	01H
	ORG $+4
	DD	FLAT:??_C@_07MIKIFGAL@Disable@
	DD	FLAT:?imeDisable@@YAPAU_object@@PAU1@0@Z
	DD	01H
	ORG $+4
	DD	FLAT:??_C@_0BD@KOHIEJEK@EnableCaptureInput@
	DD	FLAT:?imeEnableCaptureInput@@YAPAU_object@@PAU1@0@Z
	DD	01H
	ORG $+4
	DD	FLAT:??_C@_0BE@BLPFKFGH@DisableCaptureInput@
	DD	FLAT:?imeDisableCaptureInput@@YAPAU_object@@PAU1@0@Z
	DD	01H
	ORG $+4
	DD	FLAT:??_C@_06ODEINJEE@SetMax@
	DD	FLAT:?imeSetMax@@YAPAU_object@@PAU1@0@Z
	DD	01H
	ORG $+4
	DD	FLAT:??_C@_0L@DDEFGAIA@SetUserMax@
	DD	FLAT:?imeSetUserMax@@YAPAU_object@@PAU1@0@Z
	DD	01H
	ORG $+4
	DD	FLAT:??_C@_07NIJDBDAG@SetText@
	DD	FLAT:?imeSetText@@YAPAU_object@@PAU1@0@Z
	DD	01H
	ORG $+4
	DD	FLAT:??_C@_07CAGCCMNH@GetText@
	DD	FLAT:?imeGetText@@YAPAU_object@@PAU1@0@Z
	DD	01H
	ORG $+4
	DD	FLAT:??_C@_0M@DJHPBOFH@GetCodePage@
	DD	FLAT:?imeGetCodePage@@YAPAU_object@@PAU1@0@Z
	DD	01H
	ORG $+4
	DD	FLAT:??_C@_0BC@NEACAHDI@GetCandidateCount@
	DD	FLAT:?imeGetCandidateCount@@YAPAU_object@@PAU1@0@Z
	DD	01H
	ORG $+4
	DD	FLAT:??_C@_0N@MBNDKHML@GetCandidate@
	DD	FLAT:?imeGetCandidate@@YAPAU_object@@PAU1@0@Z
	DD	01H
	ORG $+4
	DD	FLAT:??_C@_0BG@LMHBMBJJ@GetCandidateSelection@
	DD	FLAT:?imeGetCandidateSelection@@YAPAU_object@@PAU1@0@Z
	DD	01H
	ORG $+4
	DD	FLAT:??_C@_0L@LOMGCGNK@GetReading@
	DD	FLAT:?imeGetReading@@YAPAU_object@@PAU1@0@Z
	DD	01H
	ORG $+4
	DD	FLAT:??_C@_0BA@OKELCJNA@GetReadingError@
	DD	FLAT:?imeGetReadingError@@YAPAU_object@@PAU1@0@Z
	DD	01H
	ORG $+4
	DD	FLAT:??_C@_09MNJLHJMK@EnableIME@
	DD	FLAT:?imeEnableIME@@YAPAU_object@@PAU1@0@Z
	DD	01H
	ORG $+4
	DD	FLAT:??_C@_0L@CLOJIMEF@DisableIME@
	DD	FLAT:?imeDisableIME@@YAPAU_object@@PAU1@0@Z
	DD	01H
	ORG $+4
	DD	FLAT:??_C@_0N@COLAMEMD@GetInputMode@
	DD	FLAT:?imeGetInputMode@@YAPAU_object@@PAU1@0@Z
	DD	01H
	ORG $+4
	DD	FLAT:??_C@_0N@FKAOAIIP@SetInputMode@
	DD	FLAT:?imeSetInputMode@@YAPAU_object@@PAU1@0@Z
	DD	01H
	ORG $+4
	DD	FLAT:??_C@_0O@OBBEEOID@SetNumberMode@
	DD	FLAT:?imeSetNumberMode@@YAPAU_object@@PAU1@0@Z
	DD	01H
	ORG $+4
	DD	FLAT:??_C@_0O@BELLPKFF@SetStringMode@
	DD	FLAT:?imeSetStringMode@@YAPAU_object@@PAU1@0@Z
	DD	01H
	ORG $+4
	DD	FLAT:??_C@_0N@BEEPHFCL@AddExceptKey@
	DD	FLAT:?imeAddExceptKey@@YAPAU_object@@PAU1@0@Z
	DD	01H
	ORG $+4
	DD	FLAT:??_C@_0P@BMGBGHLF@ClearExceptKey@
	DD	FLAT:?imeClearExceptKey@@YAPAU_object@@PAU1@0@Z
	DD	01H
	ORG $+4
	DD	FLAT:??_C@_08HOJDHPPH@MoveLeft@
	DD	FLAT:?imeMoveLeft@@YAPAU_object@@PAU1@0@Z
	DD	01H
	ORG $+4
	DD	FLAT:??_C@_09DJFIPLKJ@MoveRight@
	DD	FLAT:?imeMoveRight@@YAPAU_object@@PAU1@0@Z
	DD	01H
	ORG $+4
	DD	FLAT:??_C@_08LLCCPFKC@MoveHome@
	DD	FLAT:?imeMoveHome@@YAPAU_object@@PAU1@0@Z
	DD	01H
	ORG $+4
	DD	FLAT:??_C@_07DGAADNMB@MoveEnd@
	DD	FLAT:?imeMoveEnd@@YAPAU_object@@PAU1@0@Z
	DD	01H
	ORG $+4
	DD	FLAT:??_C@_0BC@BMJNLHPP@SetCursorPosition@
	DD	FLAT:?imeSetCursorPosition@@YAPAU_object@@PAU1@0@Z
	DD	01H
	ORG $+4
	DD	FLAT:??_C@_06JBKGCNBB@Delete@
	DD	FLAT:?imeDelete@@YAPAU_object@@PAU1@0@Z
	DD	01H
	ORG $+4
	DD	FLAT:??_C@_0M@COHGIEGI@PasteString@
	DD	FLAT:?imePasteString@@YAPAU_object@@PAU1@0@Z
	DD	01H
	ORG $+4
	DD	FLAT:??_C@_0P@BFPBPOKO@PasteBackspace@
	DD	FLAT:?imePasteBackspace@@YAPAU_object@@PAU1@0@Z
	DD	01H
	ORG $+4
	DD	FLAT:??_C@_0M@BBPKKCDI@PasteReturn@
	DD	FLAT:?imePasteReturn@@YAPAU_object@@PAU1@0@Z
	DD	01H
	ORG $+4
	DD	FLAT:??_C@_0BH@KBLDCMMB@PasteTextFromClipBoard@
	DD	FLAT:?imePasteTextFromClipBoard@@YAPAU_object@@PAU1@0@Z
	DD	01H
	ORG $+4
	DD	FLAT:??_C@_0M@KGBGFCIC@EnablePaste@
	DD	FLAT:?imeEnablePaste@@YAPAU_object@@PAU1@0@Z
	DD	01H
	ORG $+4
	DD	00H
	DD	00H
	DD	00H
	ORG $+4
_DATA	ENDS
;	COMDAT ??_C@_03MABAFPPL@ime@
CONST	SEGMENT
??_C@_03MABAFPPL@ime@ DB 'ime', 00H			; `string'
CONST	ENDS
;	COMDAT ??_C@_0M@KGBGFCIC@EnablePaste@
CONST	SEGMENT
??_C@_0M@KGBGFCIC@EnablePaste@ DB 'EnablePaste', 00H	; `string'
CONST	ENDS
;	COMDAT ??_C@_0BH@KBLDCMMB@PasteTextFromClipBoard@
CONST	SEGMENT
??_C@_0BH@KBLDCMMB@PasteTextFromClipBoard@ DB 'PasteTextFromClipBoard', 00H ; `string'
CONST	ENDS
;	COMDAT ??_C@_0M@BBPKKCDI@PasteReturn@
CONST	SEGMENT
??_C@_0M@BBPKKCDI@PasteReturn@ DB 'PasteReturn', 00H	; `string'
CONST	ENDS
;	COMDAT ??_C@_0P@BFPBPOKO@PasteBackspace@
CONST	SEGMENT
??_C@_0P@BFPBPOKO@PasteBackspace@ DB 'PasteBackspace', 00H ; `string'
CONST	ENDS
;	COMDAT ??_C@_0M@COHGIEGI@PasteString@
CONST	SEGMENT
??_C@_0M@COHGIEGI@PasteString@ DB 'PasteString', 00H	; `string'
CONST	ENDS
;	COMDAT ??_C@_06JBKGCNBB@Delete@
CONST	SEGMENT
??_C@_06JBKGCNBB@Delete@ DB 'Delete', 00H		; `string'
CONST	ENDS
;	COMDAT ??_C@_0BC@BMJNLHPP@SetCursorPosition@
CONST	SEGMENT
??_C@_0BC@BMJNLHPP@SetCursorPosition@ DB 'SetCursorPosition', 00H ; `string'
CONST	ENDS
;	COMDAT ??_C@_07DGAADNMB@MoveEnd@
CONST	SEGMENT
??_C@_07DGAADNMB@MoveEnd@ DB 'MoveEnd', 00H		; `string'
CONST	ENDS
;	COMDAT ??_C@_08LLCCPFKC@MoveHome@
CONST	SEGMENT
??_C@_08LLCCPFKC@MoveHome@ DB 'MoveHome', 00H		; `string'
CONST	ENDS
;	COMDAT ??_C@_09DJFIPLKJ@MoveRight@
CONST	SEGMENT
??_C@_09DJFIPLKJ@MoveRight@ DB 'MoveRight', 00H		; `string'
CONST	ENDS
;	COMDAT ??_C@_08HOJDHPPH@MoveLeft@
CONST	SEGMENT
??_C@_08HOJDHPPH@MoveLeft@ DB 'MoveLeft', 00H		; `string'
CONST	ENDS
;	COMDAT ??_C@_0P@BMGBGHLF@ClearExceptKey@
CONST	SEGMENT
??_C@_0P@BMGBGHLF@ClearExceptKey@ DB 'ClearExceptKey', 00H ; `string'
CONST	ENDS
;	COMDAT ??_C@_0N@BEEPHFCL@AddExceptKey@
CONST	SEGMENT
??_C@_0N@BEEPHFCL@AddExceptKey@ DB 'AddExceptKey', 00H	; `string'
CONST	ENDS
;	COMDAT ??_C@_0O@BELLPKFF@SetStringMode@
CONST	SEGMENT
??_C@_0O@BELLPKFF@SetStringMode@ DB 'SetStringMode', 00H ; `string'
CONST	ENDS
;	COMDAT ??_C@_0O@OBBEEOID@SetNumberMode@
CONST	SEGMENT
??_C@_0O@OBBEEOID@SetNumberMode@ DB 'SetNumberMode', 00H ; `string'
CONST	ENDS
;	COMDAT ??_C@_0N@FKAOAIIP@SetInputMode@
CONST	SEGMENT
??_C@_0N@FKAOAIIP@SetInputMode@ DB 'SetInputMode', 00H	; `string'
CONST	ENDS
;	COMDAT ??_C@_0N@COLAMEMD@GetInputMode@
CONST	SEGMENT
??_C@_0N@COLAMEMD@GetInputMode@ DB 'GetInputMode', 00H	; `string'
CONST	ENDS
;	COMDAT ??_C@_0L@CLOJIMEF@DisableIME@
CONST	SEGMENT
??_C@_0L@CLOJIMEF@DisableIME@ DB 'DisableIME', 00H	; `string'
CONST	ENDS
;	COMDAT ??_C@_09MNJLHJMK@EnableIME@
CONST	SEGMENT
??_C@_09MNJLHJMK@EnableIME@ DB 'EnableIME', 00H		; `string'
CONST	ENDS
;	COMDAT ??_C@_0BA@OKELCJNA@GetReadingError@
CONST	SEGMENT
??_C@_0BA@OKELCJNA@GetReadingError@ DB 'GetReadingError', 00H ; `string'
CONST	ENDS
;	COMDAT ??_C@_0L@LOMGCGNK@GetReading@
CONST	SEGMENT
??_C@_0L@LOMGCGNK@GetReading@ DB 'GetReading', 00H	; `string'
CONST	ENDS
;	COMDAT ??_C@_0BG@LMHBMBJJ@GetCandidateSelection@
CONST	SEGMENT
??_C@_0BG@LMHBMBJJ@GetCandidateSelection@ DB 'GetCandidateSelection', 00H ; `string'
CONST	ENDS
;	COMDAT ??_C@_0N@MBNDKHML@GetCandidate@
CONST	SEGMENT
??_C@_0N@MBNDKHML@GetCandidate@ DB 'GetCandidate', 00H	; `string'
CONST	ENDS
;	COMDAT ??_C@_0BC@NEACAHDI@GetCandidateCount@
CONST	SEGMENT
??_C@_0BC@NEACAHDI@GetCandidateCount@ DB 'GetCandidateCount', 00H ; `string'
CONST	ENDS
;	COMDAT ??_C@_0M@DJHPBOFH@GetCodePage@
CONST	SEGMENT
??_C@_0M@DJHPBOFH@GetCodePage@ DB 'GetCodePage', 00H	; `string'
CONST	ENDS
;	COMDAT ??_C@_07CAGCCMNH@GetText@
CONST	SEGMENT
??_C@_07CAGCCMNH@GetText@ DB 'GetText', 00H		; `string'
CONST	ENDS
;	COMDAT ??_C@_07NIJDBDAG@SetText@
CONST	SEGMENT
??_C@_07NIJDBDAG@SetText@ DB 'SetText', 00H		; `string'
CONST	ENDS
;	COMDAT ??_C@_0L@DDEFGAIA@SetUserMax@
CONST	SEGMENT
??_C@_0L@DDEFGAIA@SetUserMax@ DB 'SetUserMax', 00H	; `string'
CONST	ENDS
;	COMDAT ??_C@_06ODEINJEE@SetMax@
CONST	SEGMENT
??_C@_06ODEINJEE@SetMax@ DB 'SetMax', 00H		; `string'
CONST	ENDS
;	COMDAT ??_C@_0BE@BLPFKFGH@DisableCaptureInput@
CONST	SEGMENT
??_C@_0BE@BLPFKFGH@DisableCaptureInput@ DB 'DisableCaptureInput', 00H ; `string'
CONST	ENDS
;	COMDAT ??_C@_0BD@KOHIEJEK@EnableCaptureInput@
CONST	SEGMENT
??_C@_0BD@KOHIEJEK@EnableCaptureInput@ DB 'EnableCaptureInput', 00H ; `string'
CONST	ENDS
;	COMDAT ??_C@_07MIKIFGAL@Disable@
CONST	SEGMENT
??_C@_07MIKIFGAL@Disable@ DB 'Disable', 00H		; `string'
CONST	ENDS
;	COMDAT ??_C@_06CKGENIKG@Enable@
CONST	SEGMENT
??_C@_06CKGENIKG@Enable@ DB 'Enable', 00H		; `string'
PUBLIC	?initime@@YAXXZ					; initime
PUBLIC	?imePasteReturn@@YAPAU_object@@PAU1@0@Z		; imePasteReturn
PUBLIC	?imePasteBackspace@@YAPAU_object@@PAU1@0@Z	; imePasteBackspace
PUBLIC	?imePasteString@@YAPAU_object@@PAU1@0@Z		; imePasteString
PUBLIC	?imeEnablePaste@@YAPAU_object@@PAU1@0@Z		; imeEnablePaste
PUBLIC	?imePasteTextFromClipBoard@@YAPAU_object@@PAU1@0@Z ; imePasteTextFromClipBoard
PUBLIC	?imeDelete@@YAPAU_object@@PAU1@0@Z		; imeDelete
PUBLIC	?imeSetCursorPosition@@YAPAU_object@@PAU1@0@Z	; imeSetCursorPosition
PUBLIC	?imeMoveEnd@@YAPAU_object@@PAU1@0@Z		; imeMoveEnd
PUBLIC	?imeMoveHome@@YAPAU_object@@PAU1@0@Z		; imeMoveHome
PUBLIC	?imeMoveRight@@YAPAU_object@@PAU1@0@Z		; imeMoveRight
PUBLIC	?imeMoveLeft@@YAPAU_object@@PAU1@0@Z		; imeMoveLeft
PUBLIC	?imeGetInputMode@@YAPAU_object@@PAU1@0@Z	; imeGetInputMode
PUBLIC	?imeSetStringMode@@YAPAU_object@@PAU1@0@Z	; imeSetStringMode
PUBLIC	?imeClearExceptKey@@YAPAU_object@@PAU1@0@Z	; imeClearExceptKey
PUBLIC	?imeAddExceptKey@@YAPAU_object@@PAU1@0@Z	; imeAddExceptKey
PUBLIC	?imeSetNumberMode@@YAPAU_object@@PAU1@0@Z	; imeSetNumberMode
PUBLIC	?imeSetInputMode@@YAPAU_object@@PAU1@0@Z	; imeSetInputMode
PUBLIC	?imeDisableIME@@YAPAU_object@@PAU1@0@Z		; imeDisableIME
PUBLIC	?imeEnableIME@@YAPAU_object@@PAU1@0@Z		; imeEnableIME
PUBLIC	?imeGetReadingError@@YAPAU_object@@PAU1@0@Z	; imeGetReadingError
PUBLIC	?imeGetReading@@YAPAU_object@@PAU1@0@Z		; imeGetReading
PUBLIC	?imeGetCandidateSelection@@YAPAU_object@@PAU1@0@Z ; imeGetCandidateSelection
PUBLIC	?imeGetCandidate@@YAPAU_object@@PAU1@0@Z	; imeGetCandidate
PUBLIC	?imeGetCandidateCount@@YAPAU_object@@PAU1@0@Z	; imeGetCandidateCount
PUBLIC	?imeGetCodePage@@YAPAU_object@@PAU1@0@Z		; imeGetCodePage
PUBLIC	?imeGetText@@YAPAU_object@@PAU1@0@Z		; imeGetText
PUBLIC	?imeSetText@@YAPAU_object@@PAU1@0@Z		; imeSetText
PUBLIC	?imeSetUserMax@@YAPAU_object@@PAU1@0@Z		; imeSetUserMax
PUBLIC	?imeSetMax@@YAPAU_object@@PAU1@0@Z		; imeSetMax
PUBLIC	?imeDisableCaptureInput@@YAPAU_object@@PAU1@0@Z	; imeDisableCaptureInput
PUBLIC	?imeEnableCaptureInput@@YAPAU_object@@PAU1@0@Z	; imeEnableCaptureInput
PUBLIC	?imeDisable@@YAPAU_object@@PAU1@0@Z		; imeDisable
PUBLIC	?imeEnable@@YAPAU_object@@PAU1@0@Z		; imeEnable
?vecDropSoundFileName@@3V?$array@U?$pair@KV?$basic_string@DU?$char_traits@D@std@@V?$allocator@D@2@@std@@@std@@$04@std@@B DB 08cH DUP (?) ; vecDropSoundFileName
?vecEffectList@@3V?$vector@V?$tuple@IPBDPBD_N@std@@V?$allocator@V?$tuple@IPBDPBD_N@std@@@2@@std@@B DB 0cH DUP (?) ; vecEffectList
?characterNameColors@@3V?$map@EV?$array@E$02@std@@U?$less@E@2@V?$allocator@U?$pair@$$CBEV?$array@E$02@std@@@std@@@2@@std@@B DQ 01H DUP (?) ; characterNameColors
?characterTitleColors@@3V?$map@EV?$array@E$02@std@@U?$less@E@2@V?$allocator@U?$pair@$$CBEV?$array@E$02@std@@@std@@@2@@std@@B DQ 01H DUP (?) ; characterTitleColors
?characterTitleSystemColors@@3V?$map@EV?$array@E$02@std@@U?$less@E@2@V?$allocator@U?$pair@$$CBEV?$array@E$02@std@@@std@@@2@@std@@B DQ 01H DUP (?) ; characterTitleSystemColors
?emotionIcons@@3V?$map@EPBDU?$less@E@std@@V?$allocator@U?$pair@$$CBEPBD@std@@@2@@std@@B DQ 01H DUP (?) ; emotionIcons
?skillIndexes@@3V?$map@EV?$map@EV?$vector@EV?$allocator@E@std@@@std@@U?$less@E@2@V?$allocator@U?$pair@$$CBEV?$vector@EV?$allocator@E@std@@@std@@@std@@@2@@std@@U?$less@E@2@V?$allocator@U?$pair@$$CBEV?$map@EV?$vector@EV?$allocator@E@std@@@std@@U?$less@E@2@V?$allocator@U?$pair@$$CBEV?$vector@EV?$allocator@E@std@@@std@@@std@@@2@@std@@@std@@@2@@std@@B DQ 01H DUP (?) ; skillIndexes
?guildSkills@@3V?$map@V?$basic_string@DU?$char_traits@D@std@@V?$allocator@D@2@@std@@V?$vector@EV?$allocator@E@std@@@2@U?$less@V?$basic_string@DU?$char_traits@D@std@@V?$allocator@D@2@@std@@@2@V?$allocator@U?$pair@$$CBV?$basic_string@DU?$char_traits@D@std@@V?$allocator@D@2@@std@@V?$vector@EV?$allocator@E@std@@@2@@std@@@2@@std@@B DQ 01H DUP (?) ; guildSkills
_BSS	ENDS
;	COMDAT xdata$x
xdata$x	SEGMENT
__ehfuncinfo$??__EvecUseSoundFileName@@YAXXZ DQ 00000000619930522r ; 1.2944e-313
	DD	FLAT:__unwindtable$??__EvecUseSoundFileName@@YAXXZ
	DQ	00000000000000000r		; 0
	DQ	00000000000000000r		; 0
	DQ	00000000100000000r		; 2.122e-314
__unwindtable$??__EvecUseSoundFileName@@YAXXZ DD 0ffffffffH
	DD	FLAT:__unwindfunclet$??__EvecUseSoundFileName@@YAXXZ$0
	DD	00H
	DD	FLAT:__unwindfunclet$??__EvecUseSoundFileName@@YAXXZ$1
	DD	01H
	DD	FLAT:__unwindfunclet$??__EvecUseSoundFileName@@YAXXZ$2
	DD	02H
	DD	FLAT:__unwindfunclet$??__EvecUseSoundFileName@@YAXXZ$3
	DD	03H
	DD	FLAT:__unwindfunclet$??__EvecUseSoundFileName@@YAXXZ$4
	DD	04H
	DD	FLAT:__unwindfunclet$??__EvecUseSoundFileName@@YAXXZ$5
xdata$x	ENDS
;	COMDAT xdata$x
xdata$x	SEGMENT
__ehfuncinfo$??__FvecUseSoundFileName@@YAXXZ DQ 00000000119930522r ; 2.33398e-314
	DD	FLAT:__unwindtable$??__FvecUseSoundFileName@@YAXXZ
	DQ	00000000000000000r		; 0
	DQ	00000000000000000r		; 0
	DQ	00000000100000000r		; 2.122e-314
__unwindtable$??__FvecUseSoundFileName@@YAXXZ DD 0ffffffffH
	DD	FLAT:___std_terminate
xdata$x	ENDS
;	COMDAT xdata$x
xdata$x	SEGMENT
__ehfuncinfo$??__EvecDropSoundFileName@@YAXXZ DQ 00000000419930522r ; 8.69997e-314
	DD	FLAT:__unwindtable$??__EvecDropSoundFileName@@YAXXZ
	DQ	00000000000000000r		; 0
	DQ	00000000000000000r		; 0
	DQ	00000000100000000r		; 2.122e-314
__unwindtable$??__EvecDropSoundFileName@@YAXXZ DD 0ffffffffH
	DD	FLAT:__unwindfunclet$??__EvecDropSoundFileName@@YAXXZ$0
	DD	00H
	DD	FLAT:__unwindfunclet$??__EvecDropSoundFileName@@YAXXZ$1
	DD	01H
	DD	FLAT:__unwindfunclet$??__EvecDropSoundFileName@@YAXXZ$2
	DD	02H
	DD	FLAT:__unwindfunclet$??__EvecDropSoundFileName@@YAXXZ$3
xdata$x	ENDS
;	COMDAT xdata$x
xdata$x	SEGMENT
__ehfuncinfo$??__FvecDropSoundFileName@@YAXXZ DQ 00000000119930522r ; 2.33398e-314
	DD	FLAT:__unwindtable$??__FvecDropSoundFileName@@YAXXZ
	DQ	00000000000000000r		; 0
	DQ	00000000000000000r		; 0
	DQ	00000000100000000r		; 2.122e-314
__unwindtable$??__FvecDropSoundFileName@@YAXXZ DD 0ffffffffH
	DD	FLAT:___std_terminate
xdata$x	ENDS
;	COMDAT xdata$x
xdata$x	SEGMENT
__ehfuncinfo$??__EskillIndexes@@YAXXZ DQ 00000002819930522r ; 8.50918e-313
	DD	FLAT:__unwindtable$??__EskillIndexes@@YAXXZ
	DQ	00000000000000000r		; 0
	DQ	00000000000000000r		; 0
	DQ	00000000100000000r		; 2.122e-314
	ORG $+4
__unwindtable$??__EskillIndexes@@YAXXZ DD 0ffffffffH
	DD	FLAT:__unwindfunclet$??__EskillIndexes@@YAXXZ$0
	DD	00H
	DD	FLAT:__unwindfunclet$??__EskillIndexes@@YAXXZ$1
	DD	01H
	DD	FLAT:__unwindfunclet$??__EskillIndexes@@YAXXZ$2
	DD	00H
	DD	FLAT:__unwindfunclet$??__EskillIndexes@@YAXXZ$2
	DD	03H
	DD	FLAT:__unwindfunclet$??__EskillIndexes@@YAXXZ$4
	DD	04H
	DD	FLAT:__unwindfunclet$??__EskillIndexes@@YAXXZ$5
	DD	05H
	DD	FLAT:__unwindfunclet$??__EskillIndexes@@YAXXZ$6
	DD	06H
	DD	FLAT:__unwindfunclet$??__EskillIndexes@@YAXXZ$7
	DD	07H
	DD	FLAT:__unwindfunclet$??__EskillIndexes@@YAXXZ$8
	DD	08H
	DD	FLAT:__unwindfunclet$??__EskillIndexes@@YAXXZ$9
	DD	07H
	DD	FLAT:__unwindfunclet$??__EskillIndexes@@YAXXZ$9
	DD	0aH
	DD	FLAT:__unwindfunclet$??__EskillIndexes@@YAXXZ$11
	DD	0bH
	DD	FLAT:__unwindfunclet$??__EskillIndexes@@YAXXZ$12
	DD	0cH
	DD	FLAT:__unwindfunclet$??__EskillIndexes@@YAXXZ$13
	DD	0dH
	DD	FLAT:__unwindfunclet$??__EskillIndexes@@YAXXZ$14
	DD	0eH
	DD	FLAT:__unwindfunclet$??__EskillIndexes@@YAXXZ$15
	DD	0fH
	DD	FLAT:__unwindfunclet$??__EskillIndexes@@YAXXZ$16
	DD	0eH
	DD	FLAT:__unwindfunclet$??__EskillIndexes@@YAXXZ$16
	DD	011H
	DD	FLAT:__unwindfunclet$??__EskillIndexes@@YAXXZ$18
	DD	012H
	DD	FLAT:__unwindfunclet$??__EskillIndexes@@YAXXZ$19
	DD	013H
	DD	FLAT:__unwindfunclet$??__EskillIndexes@@YAXXZ$20
	DD	014H
	DD	FLAT:__unwindfunclet$??__EskillIndexes@@YAXXZ$21
	DD	015H
	DD	FLAT:__unwindfunclet$??__EskillIndexes@@YAXXZ$22
	DD	016H
	DD	FLAT:__unwindfunclet$??__EskillIndexes@@YAXXZ$23
	DD	015H
	DD	FLAT:__unwindfunclet$??__EskillIndexes@@YAXXZ$23
	DD	018H
	DD	FLAT:__unwindfunclet$??__EskillIndexes@@YAXXZ$25
	DD	019H
	DD	FLAT:__unwindfunclet$??__EskillIndexes@@YAXXZ$26
	DD	05H
	DD	FLAT:__unwindfunclet$??__EskillIndexes@@YAXXZ$7
	DD	01bH
	DD	FLAT:__unwindfunclet$??__EskillIndexes@@YAXXZ$9
	DD	01cH
	DD	FLAT:__unwindfunclet$??__EskillIndexes@@YAXXZ$11
	DD	01dH
	DD	FLAT:__unwindfunclet$??__EskillIndexes@@YAXXZ$12
	DD	01eH
	DD	FLAT:__unwindfunclet$??__EskillIndexes@@YAXXZ$14
	DD	01fH
	DD	FLAT:__unwindfunclet$??__EskillIndexes@@YAXXZ$16
	DD	020H
	DD	FLAT:__unwindfunclet$??__EskillIndexes@@YAXXZ$18
	DD	021H
	DD	FLAT:__unwindfunclet$??__EskillIndexes@@YAXXZ$19
	DD	022H
	DD	FLAT:__unwindfunclet$??__EskillIndexes@@YAXXZ$21
	DD	023H
	DD	FLAT:__unwindfunclet$??__EskillIndexes@@YAXXZ$23
	DD	024H
	DD	FLAT:__unwindfunclet$??__EskillIndexes@@YAXXZ$25
	DD	025H
	DD	FLAT:__unwindfunclet$??__EskillIndexes@@YAXXZ$26
	DD	026H
	DD	FLAT:__unwindfunclet$??__EskillIndexes@@YAXXZ$28
xdata$x	ENDS
;	COMDAT xdata$x
xdata$x	SEGMENT
__ehfuncinfo$??__EguildSkills@@YAXXZ DQ 00000000a19930522r ; 2.14319e-313
	DD	FLAT:__unwindtable$??__EguildSkills@@YAXXZ
	DQ	00000000000000000r		; 0
	DQ	00000000000000000r		; 0
	DQ	00000000100000000r		; 2.122e-314
	ORG $+4
__unwindtable$??__EguildSkills@@YAXXZ DD 0ffffffffH
	DD	FLAT:__unwindfunclet$??__EguildSkills@@YAXXZ$0
	DD	00H
	DD	FLAT:__unwindfunclet$??__EguildSkills@@YAXXZ$1
	DD	01H
	DD	FLAT:__unwindfunclet$??__EguildSkills@@YAXXZ$10
	DD	01H
	DD	FLAT:__unwindfunclet$??__EguildSkills@@YAXXZ$2
	DD	03H
	DD	FLAT:__unwindfunclet$??__EguildSkills@@YAXXZ$3
	DD	04H
	DD	FLAT:__unwindfunclet$??__EguildSkills@@YAXXZ$4
	DD	05H
	DD	FLAT:__unwindfunclet$??__EguildSkills@@YAXXZ$16
	DD	01H
	DD	FLAT:__unwindfunclet$??__EguildSkills@@YAXXZ$3
	DD	07H
	DD	FLAT:__unwindfunclet$??__EguildSkills@@YAXXZ$4
	DD	08H
	DD	FLAT:__unwindfunclet$??__EguildSkills@@YAXXZ$6
xdata$x	ENDS
;	COMDAT xdata$x
xdata$x	SEGMENT
__ehfuncinfo$?imeGetText@@YAPAU_object@@PAU1@0@Z DQ 00000000119930522r ; 2.33398e-314
	DD	FLAT:__unwindtable$?imeGetText@@YAPAU_object@@PAU1@0@Z
	DQ	00000000000000000r		; 0
	DQ	00000000000000000r		; 0
	DQ	00000000100000000r		; 2.122e-314
__unwindtable$?imeGetText@@YAPAU_object@@PAU1@0@Z DD 0ffffffffH
	DD	FLAT:__unwindfunclet$?imeGetText@@YAPAU_object@@PAU1@0@Z$0
xdata$x	ENDS
;	COMDAT xdata$x
xdata$x	SEGMENT
__ehfuncinfo$?imeGetCandidate@@YAPAU_object@@PAU1@0@Z DQ 00000000119930522r ; 2.33398e-314
	DD	FLAT:__unwindtable$?imeGetCandidate@@YAPAU_object@@PAU1@0@Z
	DQ	00000000000000000r		; 0
	DQ	00000000000000000r		; 0
	DQ	00000000100000000r		; 2.122e-314
__unwindtable$?imeGetCandidate@@YAPAU_object@@PAU1@0@Z DD 0ffffffffH
	DD	FLAT:__unwindfunclet$?imeGetCandidate@@YAPAU_object@@PAU1@0@Z$0
xdata$x	ENDS
;	COMDAT xdata$x
xdata$x	SEGMENT
__ehfuncinfo$?imeGetReading@@YAPAU_object@@PAU1@0@Z DQ 00000000119930522r ; 2.33398e-314
	DD	FLAT:__unwindtable$?imeGetReading@@YAPAU_object@@PAU1@0@Z
	DQ	00000000000000000r		; 0
	DQ	00000000000000000r		; 0
	DQ	00000000100000000r		; 2.122e-314
__unwindtable$?imeGetReading@@YAPAU_object@@PAU1@0@Z DD 0ffffffffH
	DD	FLAT:__unwindfunclet$?imeGetReading@@YAPAU_object@@PAU1@0@Z$0
?vecUseSoundFileName@@3V?$array@U?$pair@KV?$basic_string@DU?$char_traits@D@std@@V?$allocator@D@2@@std@@@std@@$06@std@@B DQ 00000000000000001r ; 4.94066e-324 ; vecUseSoundFileName
	DQ	00000000000000000r		; 0
	DQ	00000000000000000r		; 0
	DQ	00000000000000000r		; 0
	DQ	00000000000000000r		; 0
	DQ	00000000000000000r		; 0
	DQ	00000000000000000r		; 0
	DQ	00000000000000000r		; 0
	DQ	00000000000000000r		; 0
	DQ	00000000000000000r		; 0
	DQ	00000000000000000r		; 0
	DQ	00000000000000000r		; 0
	DQ	00000000000000000r		; 0
	DQ	00000000000000000r		; 0
	DQ	00000000000000000r		; 0
	DQ	00000000000000000r		; 0
	DQ	00000000000000000r		; 0
	DQ	00000000000000000r		; 0
	DQ	00000000000000000r		; 0
	DQ	00000000000000000r		; 0
	DQ	00000000000000000r		; 0
	DQ	00000000000000000r		; 0
	DQ	00000000000000000r		; 0
	DQ	00000000000000000r		; 0
	DD	00H
?vecUseSoundFileName$initializer$@@3P6AXXZA DD FLAT:??__EvecUseSoundFileName@@YAXXZ ; vecUseSoundFileName$initializer$
?vecDropSoundFileName$initializer$@@3P6AXXZA DD FLAT:??__EvecDropSoundFileName@@YAXXZ ; vecDropSoundFileName$initializer$
?vecEffectList$initializer$@@3P6AXXZA DD FLAT:??__EvecEffectList@@YAXXZ ; vecEffectList$initializer$
?characterNameColors$initializer$@@3P6AXXZA DD FLAT:??__EcharacterNameColors@@YAXXZ ; characterNameColors$initializer$
?characterTitleColors$initializer$@@3P6AXXZA DD FLAT:??__EcharacterTitleColors@@YAXXZ ; characterTitleColors$initializer$
?characterTitleSystemColors$initializer$@@3P6AXXZA DD FLAT:??__EcharacterTitleSystemColors@@YAXXZ ; characterTitleSystemColors$initializer$
?emotionIcons$initializer$@@3P6AXXZA DD FLAT:??__EemotionIcons@@YAXXZ ; emotionIcons$initializer$
?skillIndexes$initializer$@@3P6AXXZA DD FLAT:??__EskillIndexes@@YAXXZ ; skillIndexes$initializer$
?guildSkills$initializer$@@3P6AXXZA DD FLAT:??__EguildSkills@@YAXXZ ; guildSkills$initializer$
END
