; Listing generated by Microsoft (R) Optimizing Compiler Version 19.44.35219.0 

	TITLE	c:\anka2project\anka2project\source\binary\vs_files\userinterface\release\pythonchat.obj
	.686P
	.XMM
	include listing.inc
	.model	flat

INCLUDELIB OLDNAMES

PUBLIC	??_C@_1JO@BKKCKGMI@?$AAC?$AA?3?$AA?2?$AAA?$AAn?$AAk?$AAa?$AA2?$AAP?$AAr?$AAo?$AAj?$AAe?$AAc?$AAt@ ; `string'
PUBLIC	??_C@_1EK@MBNDAGHK@?$AAd?$AAw?$AAI?$AAD?$AA?5?$AA?$DM?$AA?5?$AAC?$AAH?$AAA?$AAT?$AA_?$AAL?$AAI?$AAN@ ; `string'
PUBLIC	??_C@_02IDICCPIJ@?$HMT@				; `string'
PUBLIC	??_C@_0O@HCJHBEJP@lib?1emoji?4cfg@		; `string'
PUBLIC	??_C@_06FKNHHIAI@?$CFd?7?$CFs?6@		; `string'
PUBLIC	??_C@_02BGAGALCL@?$HMt@				; `string'
PUBLIC	??_C@_02DPKJAMEF@?$CFd@				; `string'
PUBLIC	??_C@_06EEAEEKCL@?$CFs?7?$CFs?6@		; `string'
PUBLIC	??_C@_0DD@ICBOAHOH@CPythonChat?3?3AppendChat?5?9?5CANNO@ ; `string'
PUBLIC	??_C@_06ICJOKKEK@?$CDstart@			; `string'
PUBLIC	??_C@_05DOFHPMGD@?$CDsend@			; `string'
PUBLIC	??_C@_04PAJMBCIO@?$CDend@			; `string'
PUBLIC	??_C@_0DG@MAMEDMHN@CPythonChat?3?3AppendChatLog?5?9?5CA@ ; `string'
PUBLIC	??_C@_0BC@CFOGNAGP@MakeWhisperButton@		; `string'
PUBLIC	??_C@_1DA@DJLLCIIF@?$AAm?$AA_?$AAC?$AAh?$AAa?$AAt?$AAL?$AAi?$AAn?$AAe?$AAD?$AAe?$AAq?$AAu?$AAe@ ; `string'
PUBLIC	??_C@_1DM@FEONBMHD@?$AAm?$AA_?$AAS?$AAh?$AAo?$AAw?$AAi?$AAn?$AAg?$AAC?$AAh?$AAa?$AAt?$AAL?$AAi@ ; `string'
PUBLIC	??_C@_1CK@IFLLLGL@?$AAm?$AA_?$AAC?$AAh?$AAa?$AAt?$AAS?$AAe?$AAt?$AAM?$AAa?$AAp?$AA?4?$AAe?$AAm@ ; `string'
PUBLIC	??_C@_1CK@DLAIKIIE@?$AAm?$AA_?$AAW?$AAh?$AAi?$AAs?$AAp?$AAe?$AAr?$AAM?$AAa?$AAp?$AA?4?$AAe?$AAm@ ; `string'
PUBLIC	??_C@_1DG@IPJIGBJE@?$AAm?$AA_?$AAC?$AAh?$AAa?$AAt?$AAL?$AAo?$AAg?$AAL?$AAi?$AAn?$AAe?$AAD?$AAe@ ; `string'
PUBLIC	??_C@_1EC@HFKLJFBF@?$AAm?$AA_?$AAS?$AAh?$AAo?$AAw?$AAi?$AAn?$AAg?$AAC?$AAh?$AAa?$AAt?$AAL?$AAo@ ; `string'
PUBLIC	??_C@_0DA@OLBPLOPJ@CWhisper?3?3AppendChat?5?9?5CANNOT_F@ ; `string'
PUBLIC	??_C@_1FE@MOIMDFDD@?$AAi?$AA?5?$AA?$DO?$AA?$DN?$AA?5?$AA0?$AA?5?$AA?$CG?$AA?$CG?$AA?5?$AAi?$AA?5?$AA?$DM?$AA?5?$AAi@ ; `string'
PUBLIC	??_R2?$CDynamicPool@USChatLine@CPythonChat@@@@8	; CDynamicPool<CPythonChat::SChatLine>::`RTTI Base Class Array'
PUBLIC	??_R2SChatLine@CPythonChat@@8			; CPythonChat::SChatLine::`RTTI Base Class Array'
PUBLIC	??_R2CPythonChat@@8				; CPythonChat::`RTTI Base Class Array'
PUBLIC	??_R2?$CSingleton@VCPythonChat@@@@8		; CSingleton<CPythonChat>::`RTTI Base Class Array'
PUBLIC	??_R2?$CDynamicPool@VCWhisper@@@@8		; CDynamicPool<CWhisper>::`RTTI Base Class Array'
PUBLIC	??_R2?$CDynamicPool@USChatLine@CWhisper@@@@8	; CDynamicPool<CWhisper::SChatLine>::`RTTI Base Class Array'
PUBLIC	??_R2IAbstractChat@@8				; IAbstractChat::`RTTI Base Class Array'
PUBLIC	??_R2?$TAbstractSingleton@VIAbstractChat@@@@8	; TAbstractSingleton<IAbstractChat>::`RTTI Base Class Array'
PUBLIC	??_R1A@?0A@EA@?$CDynamicPool@USChatLine@CPythonChat@@@@8 ; CDynamicPool<CPythonChat::SChatLine>::`RTTI Base Class Descriptor at (0,-1,0,64)'
PUBLIC	??_R1A@?0A@EA@SChatLine@CPythonChat@@8		; CPythonChat::SChatLine::`RTTI Base Class Descriptor at (0,-1,0,64)'
PUBLIC	??_R13?0A@EA@?$TAbstractSingleton@VIAbstractChat@@@@8 ; TAbstractSingleton<IAbstractChat>::`RTTI Base Class Descriptor at (4,-1,0,64)'
PUBLIC	??_R13?0A@EA@IAbstractChat@@8			; IAbstractChat::`RTTI Base Class Descriptor at (4,-1,0,64)'
PUBLIC	??_R1A@?0A@EA@CPythonChat@@8			; CPythonChat::`RTTI Base Class Descriptor at (0,-1,0,64)'
PUBLIC	??_R1A@?0A@EA@?$CSingleton@VCPythonChat@@@@8	; CSingleton<CPythonChat>::`RTTI Base Class Descriptor at (0,-1,0,64)'
PUBLIC	??_R1A@?0A@EA@?$CDynamicPool@VCWhisper@@@@8	; CDynamicPool<CWhisper>::`RTTI Base Class Descriptor at (0,-1,0,64)'
PUBLIC	??_R1A@?0A@EA@?$CDynamicPool@USChatLine@CWhisper@@@@8 ; CDynamicPool<CWhisper::SChatLine>::`RTTI Base Class Descriptor at (0,-1,0,64)'
PUBLIC	??_R1A@?0A@EA@IAbstractChat@@8			; IAbstractChat::`RTTI Base Class Descriptor at (0,-1,0,64)'
PUBLIC	??_R1A@?0A@EA@?$TAbstractSingleton@VIAbstractChat@@@@8 ; TAbstractSingleton<IAbstractChat>::`RTTI Base Class Descriptor at (0,-1,0,64)'
PUBLIC	??_R3?$CDynamicPool@USChatLine@CPythonChat@@@@8	; CDynamicPool<CPythonChat::SChatLine>::`RTTI Class Hierarchy Descriptor'
PUBLIC	??_R0?AV?$CDynamicPool@USChatLine@CPythonChat@@@@@8 ; CDynamicPool<CPythonChat::SChatLine> `RTTI Type Descriptor'
PUBLIC	??_R3SChatLine@CPythonChat@@8			; CPythonChat::SChatLine::`RTTI Class Hierarchy Descriptor'
PUBLIC	??_R0?AUSChatLine@CPythonChat@@@8		; CPythonChat::SChatLine `RTTI Type Descriptor'
PUBLIC	??_R3?$CSingleton@VCPythonChat@@@@8		; CSingleton<CPythonChat>::`RTTI Class Hierarchy Descriptor'
PUBLIC	??_R0?AV?$CSingleton@VCPythonChat@@@@@8		; CSingleton<CPythonChat> `RTTI Type Descriptor'
PUBLIC	??_R3CPythonChat@@8				; CPythonChat::`RTTI Class Hierarchy Descriptor'
PUBLIC	??_R0?AVCPythonChat@@@8				; CPythonChat `RTTI Type Descriptor'
PUBLIC	??_R3?$CDynamicPool@VCWhisper@@@@8		; CDynamicPool<CWhisper>::`RTTI Class Hierarchy Descriptor'
PUBLIC	??_R0?AV?$CDynamicPool@VCWhisper@@@@@8		; CDynamicPool<CWhisper> `RTTI Type Descriptor'
PUBLIC	??_R3?$CDynamicPool@USChatLine@CWhisper@@@@8	; CDynamicPool<CWhisper::SChatLine>::`RTTI Class Hierarchy Descriptor'
PUBLIC	??_R0?AV?$CDynamicPool@USChatLine@CWhisper@@@@@8 ; CDynamicPool<CWhisper::SChatLine> `RTTI Type Descriptor'
PUBLIC	??_R3?$TAbstractSingleton@VIAbstractChat@@@@8	; TAbstractSingleton<IAbstractChat>::`RTTI Class Hierarchy Descriptor'
PUBLIC	??_R0?AV?$TAbstractSingleton@VIAbstractChat@@@@@8 ; TAbstractSingleton<IAbstractChat> `RTTI Type Descriptor'
PUBLIC	??_R3IAbstractChat@@8				; IAbstractChat::`RTTI Class Hierarchy Descriptor'
PUBLIC	??_R0?AVIAbstractChat@@@8			; IAbstractChat `RTTI Type Descriptor'
PUBLIC	??_R4?$CDynamicPool@USChatLine@CPythonChat@@@@6B@ ; CDynamicPool<CPythonChat::SChatLine>::`RTTI Complete Object Locator'
PUBLIC	??_R4SChatLine@CPythonChat@@6B@			; CPythonChat::SChatLine::`RTTI Complete Object Locator'
PUBLIC	??_R4?$CSingleton@VCPythonChat@@@@6B@		; CSingleton<CPythonChat>::`RTTI Complete Object Locator'
PUBLIC	??_R4CPythonChat@@6BIAbstractChat@@@		; CPythonChat::`RTTI Complete Object Locator'
PUBLIC	??_R4CPythonChat@@6B?$CSingleton@VCPythonChat@@@@@ ; CPythonChat::`RTTI Complete Object Locator'
PUBLIC	??_R4?$CDynamicPool@VCWhisper@@@@6B@		; CDynamicPool<CWhisper>::`RTTI Complete Object Locator'
PUBLIC	??_R4?$CDynamicPool@USChatLine@CWhisper@@@@6B@	; CDynamicPool<CWhisper::SChatLine>::`RTTI Complete Object Locator'
PUBLIC	??_R4?$TAbstractSingleton@VIAbstractChat@@@@6B@	; TAbstractSingleton<IAbstractChat>::`RTTI Complete Object Locator'
PUBLIC	??_R4IAbstractChat@@6B@				; IAbstractChat::`RTTI Complete Object Locator'
PUBLIC	??_C@_0BI@CFPLBAOH@invalid?5string?5position@	; `string'
PUBLIC	?ms_singleton@?$TAbstractSingleton@VIAbstractChat@@@@0PAVIAbstractChat@@A ; TAbstractSingleton<IAbstractChat>::ms_singleton
PUBLIC	??_7?$TAbstractSingleton@VIAbstractChat@@@@6B@	; TAbstractSingleton<IAbstractChat>::`vftable'
PUBLIC	??_7?$CDynamicPool@USChatLine@CWhisper@@@@6B@	; CDynamicPool<CWhisper::SChatLine>::`vftable'
PUBLIC	??_7?$CDynamicPool@VCWhisper@@@@6B@		; CDynamicPool<CWhisper>::`vftable'
PUBLIC	?ms_singleton@?$CSingleton@VCPythonChat@@@@0PAVCPythonChat@@A ; CSingleton<CPythonChat>::ms_singleton
PUBLIC	??_7?$CSingleton@VCPythonChat@@@@6B@		; CSingleton<CPythonChat>::`vftable'
PUBLIC	??_7?$CDynamicPool@USChatLine@CPythonChat@@@@6B@ ; CDynamicPool<CPythonChat::SChatLine>::`vftable'
PUBLIC	??_7CPythonChat@@6BIAbstractChat@@@		; CPythonChat::`vftable'
PUBLIC	??_7CPythonChat@@6B?$CSingleton@VCPythonChat@@@@@ ; CPythonChat::`vftable'
PUBLIC	??_7SChatLine@CPythonChat@@6B@			; CPythonChat::SChatLine::`vftable'
PUBLIC	?ms_iChatModeSize@SChatSet@CPythonChat@@2HA	; CPythonChat::SChatSet::ms_iChatModeSize
PUBLIC	??_7IAbstractChat@@6B@				; IAbstractChat::`vftable'
EXTRN	?GetDefaultCodePage@@YAKXZ:PROC			; GetDefaultCodePage
EXTRN	?GetTextLineCount@CGraphicTextInstance@@QAEGXZ:PROC ; CGraphicTextInstance::GetTextLineCount
EXTRN	?SetMultiLine@CGraphicTextInstance@@QAEX_N@Z:PROC ; CGraphicTextInstance::SetMultiLine
EXTRN	?SetLimitWidth@CGraphicTextInstance@@QAEXM@Z:PROC ; CGraphicTextInstance::SetLimitWidth
EXTRN	?SetTextPointer@CGraphicTextInstance@@QAEXPAVCGraphicText@@@Z:PROC ; CGraphicTextInstance::SetTextPointer
EXTRN	?SetValue@CGraphicTextInstance@@QAEXPBDI@Z:PROC	; CGraphicTextInstance::SetValue
EXTRN	?GetTypeResourcePointer@CResourceManager@@QAEPAVCResource@@PBDH@Z:PROC ; CResourceManager::GetTypeResourcePointer
EXTRN	___std_search_1@16:PROC
EXTRN	?Render@CGraphicTextInstance@@QAEXPAUtagRECT@@@Z:PROC ; CGraphicTextInstance::Render
EXTRN	?GetCurrentMillisecond@CTimer@@QAEKXZ:PROC	; CTimer::GetCurrentMillisecond
EXTRN	?SetColor@CGraphicTextInstance@@QAEXK@Z:PROC	; CGraphicTextInstance::SetColor
EXTRN	?Update@CGraphicTextInstance@@QAEXXZ:PROC	; CGraphicTextInstance::Update
EXTRN	?SetPosition@CGraphicTextInstance@@QAEXMMM@Z:PROC ; CGraphicTextInstance::SetPosition
EXTRN	?Destroy@CGraphicTextInstance@@QAEXXZ:PROC	; CGraphicTextInstance::Destroy
EXTRN	??0CGraphicTextInstance@@QAE@XZ:PROC		; CGraphicTextInstance::CGraphicTextInstance
EXTRN	??1CGraphicTextInstance@@UAE@XZ:PROC		; CGraphicTextInstance::~CGraphicTextInstance
;	COMDAT ?ms_singleton@?$TAbstractSingleton@VIAbstractChat@@@@0PAVIAbstractChat@@A
_BSS	SEGMENT
?ms_singleton@?$TAbstractSingleton@VIAbstractChat@@@@0PAVIAbstractChat@@A DD 01H DUP (?) ; TAbstractSingleton<IAbstractChat>::ms_singleton
_BSS	ENDS
;	COMDAT ?ms_singleton@?$CSingleton@VCPythonChat@@@@0PAVCPythonChat@@A
_BSS	SEGMENT
?ms_singleton@?$CSingleton@VCPythonChat@@@@0PAVCPythonChat@@A DD 01H DUP (?) ; CSingleton<CPythonChat>::ms_singleton
_BSS	ENDS
;	COMDAT ??_7IAbstractChat@@6B@
CONST	SEGMENT
??_7IAbstractChat@@6B@ DD FLAT:??_R4IAbstractChat@@6B@	; IAbstractChat::`vftable'
	DD	FLAT:??_EIAbstractChat@@UAEPAXI@Z
	DD	FLAT:__purecall
CONST	ENDS
;	COMDAT ??_7SChatLine@CPythonChat@@6B@
CONST	SEGMENT
??_7SChatLine@CPythonChat@@6B@ DD FLAT:??_R4SChatLine@CPythonChat@@6B@ ; CPythonChat::SChatLine::`vftable'
	DD	FLAT:??_ESChatLine@CPythonChat@@UAEPAXI@Z
CONST	ENDS
;	COMDAT ??_7CPythonChat@@6B?$CSingleton@VCPythonChat@@@@@
CONST	SEGMENT
??_7CPythonChat@@6B?$CSingleton@VCPythonChat@@@@@ DD FLAT:??_R4CPythonChat@@6B?$CSingleton@VCPythonChat@@@@@ ; CPythonChat::`vftable'
	DD	FLAT:??_ECPythonChat@@UAEPAXI@Z
CONST	ENDS
;	COMDAT ??_7CPythonChat@@6BIAbstractChat@@@
CONST	SEGMENT
??_7CPythonChat@@6BIAbstractChat@@@ DD FLAT:??_R4CPythonChat@@6BIAbstractChat@@@ ; CPythonChat::`vftable'
	DD	FLAT:??_ECPythonChat@@W3AEPAXI@Z
	DD	FLAT:?AppendChat@CPythonChat@@UAEXHPBD@Z
CONST	ENDS
;	COMDAT ??_7?$CDynamicPool@USChatLine@CPythonChat@@@@6B@
CONST	SEGMENT
??_7?$CDynamicPool@USChatLine@CPythonChat@@@@6B@ DD FLAT:??_R4?$CDynamicPool@USChatLine@CPythonChat@@@@6B@ ; CDynamicPool<CPythonChat::SChatLine>::`vftable'
	DD	FLAT:??_E?$CDynamicPool@USChatLine@CPythonChat@@@@UAEPAXI@Z
CONST	ENDS
;	COMDAT ??_7?$CSingleton@VCPythonChat@@@@6B@
CONST	SEGMENT
??_7?$CSingleton@VCPythonChat@@@@6B@ DD FLAT:??_R4?$CSingleton@VCPythonChat@@@@6B@ ; CSingleton<CPythonChat>::`vftable'
	DD	FLAT:??_E?$CSingleton@VCPythonChat@@@@UAEPAXI@Z
CONST	ENDS
;	COMDAT ??_7?$CDynamicPool@VCWhisper@@@@6B@
CONST	SEGMENT
??_7?$CDynamicPool@VCWhisper@@@@6B@ DD FLAT:??_R4?$CDynamicPool@VCWhisper@@@@6B@ ; CDynamicPool<CWhisper>::`vftable'
	DD	FLAT:??_E?$CDynamicPool@VCWhisper@@@@UAEPAXI@Z
CONST	ENDS
;	COMDAT ??_7?$CDynamicPool@USChatLine@CWhisper@@@@6B@
CONST	SEGMENT
??_7?$CDynamicPool@USChatLine@CWhisper@@@@6B@ DD FLAT:??_R4?$CDynamicPool@USChatLine@CWhisper@@@@6B@ ; CDynamicPool<CWhisper::SChatLine>::`vftable'
	DD	FLAT:??_E?$CDynamicPool@USChatLine@CWhisper@@@@UAEPAXI@Z
CONST	ENDS
;	COMDAT ??_7?$TAbstractSingleton@VIAbstractChat@@@@6B@
CONST	SEGMENT
??_7?$TAbstractSingleton@VIAbstractChat@@@@6B@ DD FLAT:??_R4?$TAbstractSingleton@VIAbstractChat@@@@6B@ ; TAbstractSingleton<IAbstractChat>::`vftable'
	DD	FLAT:??_E?$TAbstractSingleton@VIAbstractChat@@@@UAEPAXI@Z
CONST	ENDS
;	COMDAT ??_C@_0BI@CFPLBAOH@invalid?5string?5position@
CONST	SEGMENT
??_C@_0BI@CFPLBAOH@invalid?5string?5position@ DB 'invalid string position'
	DB	00H						; `string'
CONST	ENDS
;	COMDAT ??_R4IAbstractChat@@6B@
rdata$r	SEGMENT
??_R4IAbstractChat@@6B@ DD 00H				; IAbstractChat::`RTTI Complete Object Locator'
	DD	00H
	DD	00H
	DD	FLAT:??_R0?AVIAbstractChat@@@8
	DD	FLAT:??_R3IAbstractChat@@8
rdata$r	ENDS
;	COMDAT ??_R4?$TAbstractSingleton@VIAbstractChat@@@@6B@
rdata$r	SEGMENT
??_R4?$TAbstractSingleton@VIAbstractChat@@@@6B@ DD 00H	; TAbstractSingleton<IAbstractChat>::`RTTI Complete Object Locator'
	DD	00H
	DD	00H
	DD	FLAT:??_R0?AV?$TAbstractSingleton@VIAbstractChat@@@@@8
	DD	FLAT:??_R3?$TAbstractSingleton@VIAbstractChat@@@@8
rdata$r	ENDS
;	COMDAT ??_R4?$CDynamicPool@USChatLine@CWhisper@@@@6B@
rdata$r	SEGMENT
??_R4?$CDynamicPool@USChatLine@CWhisper@@@@6B@ DD 00H	; CDynamicPool<CWhisper::SChatLine>::`RTTI Complete Object Locator'
	DD	00H
	DD	00H
	DD	FLAT:??_R0?AV?$CDynamicPool@USChatLine@CWhisper@@@@@8
	DD	FLAT:??_R3?$CDynamicPool@USChatLine@CWhisper@@@@8
rdata$r	ENDS
;	COMDAT ??_R4?$CDynamicPool@VCWhisper@@@@6B@
rdata$r	SEGMENT
??_R4?$CDynamicPool@VCWhisper@@@@6B@ DD 00H		; CDynamicPool<CWhisper>::`RTTI Complete Object Locator'
	DD	00H
	DD	00H
	DD	FLAT:??_R0?AV?$CDynamicPool@VCWhisper@@@@@8
	DD	FLAT:??_R3?$CDynamicPool@VCWhisper@@@@8
rdata$r	ENDS
;	COMDAT ??_R4CPythonChat@@6B?$CSingleton@VCPythonChat@@@@@
rdata$r	SEGMENT
??_R4CPythonChat@@6B?$CSingleton@VCPythonChat@@@@@ DD 00H ; CPythonChat::`RTTI Complete Object Locator'
	DD	00H
	DD	00H
	DD	FLAT:??_R0?AVCPythonChat@@@8
	DD	FLAT:??_R3CPythonChat@@8
rdata$r	ENDS
;	COMDAT ??_R4CPythonChat@@6BIAbstractChat@@@
rdata$r	SEGMENT
??_R4CPythonChat@@6BIAbstractChat@@@ DD 00H		; CPythonChat::`RTTI Complete Object Locator'
	DD	04H
	DD	00H
	DD	FLAT:??_R0?AVCPythonChat@@@8
	DD	FLAT:??_R3CPythonChat@@8
rdata$r	ENDS
;	COMDAT ??_R4?$CSingleton@VCPythonChat@@@@6B@
rdata$r	SEGMENT
??_R4?$CSingleton@VCPythonChat@@@@6B@ DD 00H		; CSingleton<CPythonChat>::`RTTI Complete Object Locator'
	DD	00H
	DD	00H
	DD	FLAT:??_R0?AV?$CSingleton@VCPythonChat@@@@@8
	DD	FLAT:??_R3?$CSingleton@VCPythonChat@@@@8
rdata$r	ENDS
;	COMDAT ??_R4SChatLine@CPythonChat@@6B@
rdata$r	SEGMENT
??_R4SChatLine@CPythonChat@@6B@ DD 00H			; CPythonChat::SChatLine::`RTTI Complete Object Locator'
	DD	00H
	DD	00H
	DD	FLAT:??_R0?AUSChatLine@CPythonChat@@@8
	DD	FLAT:??_R3SChatLine@CPythonChat@@8
rdata$r	ENDS
;	COMDAT ??_R4?$CDynamicPool@USChatLine@CPythonChat@@@@6B@
rdata$r	SEGMENT
??_R4?$CDynamicPool@USChatLine@CPythonChat@@@@6B@ DD 00H ; CDynamicPool<CPythonChat::SChatLine>::`RTTI Complete Object Locator'
	DD	00H
	DD	00H
	DD	FLAT:??_R0?AV?$CDynamicPool@USChatLine@CPythonChat@@@@@8
	DD	FLAT:??_R3?$CDynamicPool@USChatLine@CPythonChat@@@@8
rdata$r	ENDS
;	COMDAT ??_R0?AVIAbstractChat@@@8
data$rs	SEGMENT
??_R0?AVIAbstractChat@@@8 DD FLAT:??_7type_info@@6B@	; IAbstractChat `RTTI Type Descriptor'
	DD	00H
	DB	'.?AVIAbstractChat@@', 00H
data$rs	ENDS
;	COMDAT ??_R3IAbstractChat@@8
rdata$r	SEGMENT
??_R3IAbstractChat@@8 DD 00H				; IAbstractChat::`RTTI Class Hierarchy Descriptor'
	DD	00H
	DD	02H
	DD	FLAT:??_R2IAbstractChat@@8
rdata$r	ENDS
;	COMDAT ??_R0?AV?$TAbstractSingleton@VIAbstractChat@@@@@8
data$rs	SEGMENT
??_R0?AV?$TAbstractSingleton@VIAbstractChat@@@@@8 DD FLAT:??_7type_info@@6B@ ; TAbstractSingleton<IAbstractChat> `RTTI Type Descriptor'
	DD	00H
	DB	'.?AV?$TAbstractSingleton@VIAbstractChat@@@@', 00H
data$rs	ENDS
;	COMDAT ??_R3?$TAbstractSingleton@VIAbstractChat@@@@8
rdata$r	SEGMENT
??_R3?$TAbstractSingleton@VIAbstractChat@@@@8 DD 00H	; TAbstractSingleton<IAbstractChat>::`RTTI Class Hierarchy Descriptor'
	DD	00H
	DD	01H
	DD	FLAT:??_R2?$TAbstractSingleton@VIAbstractChat@@@@8
rdata$r	ENDS
;	COMDAT ??_R0?AV?$CDynamicPool@USChatLine@CWhisper@@@@@8
data$rs	SEGMENT
??_R0?AV?$CDynamicPool@USChatLine@CWhisper@@@@@8 DD FLAT:??_7type_info@@6B@ ; CDynamicPool<CWhisper::SChatLine> `RTTI Type Descriptor'
	DD	00H
	DB	'.?AV?$CDynamicPool@USChatLine@CWhisper@@@@', 00H
data$rs	ENDS
;	COMDAT ??_R3?$CDynamicPool@USChatLine@CWhisper@@@@8
rdata$r	SEGMENT
??_R3?$CDynamicPool@USChatLine@CWhisper@@@@8 DD 00H	; CDynamicPool<CWhisper::SChatLine>::`RTTI Class Hierarchy Descriptor'
	DD	00H
	DD	01H
	DD	FLAT:??_R2?$CDynamicPool@USChatLine@CWhisper@@@@8
rdata$r	ENDS
;	COMDAT ??_R0?AV?$CDynamicPool@VCWhisper@@@@@8
data$rs	SEGMENT
??_R0?AV?$CDynamicPool@VCWhisper@@@@@8 DD FLAT:??_7type_info@@6B@ ; CDynamicPool<CWhisper> `RTTI Type Descriptor'
	DD	00H
	DB	'.?AV?$CDynamicPool@VCWhisper@@@@', 00H
data$rs	ENDS
;	COMDAT ??_R3?$CDynamicPool@VCWhisper@@@@8
rdata$r	SEGMENT
??_R3?$CDynamicPool@VCWhisper@@@@8 DD 00H		; CDynamicPool<CWhisper>::`RTTI Class Hierarchy Descriptor'
	DD	00H
	DD	01H
	DD	FLAT:??_R2?$CDynamicPool@VCWhisper@@@@8
rdata$r	ENDS
;	COMDAT ??_R0?AVCPythonChat@@@8
data$rs	SEGMENT
??_R0?AVCPythonChat@@@8 DD FLAT:??_7type_info@@6B@	; CPythonChat `RTTI Type Descriptor'
	DD	00H
	DB	'.?AVCPythonChat@@', 00H
data$rs	ENDS
;	COMDAT ??_R3CPythonChat@@8
rdata$r	SEGMENT
??_R3CPythonChat@@8 DD 00H				; CPythonChat::`RTTI Class Hierarchy Descriptor'
	DD	01H
	DD	04H
	DD	FLAT:??_R2CPythonChat@@8
rdata$r	ENDS
;	COMDAT ??_R0?AV?$CSingleton@VCPythonChat@@@@@8
data$rs	SEGMENT
??_R0?AV?$CSingleton@VCPythonChat@@@@@8 DD FLAT:??_7type_info@@6B@ ; CSingleton<CPythonChat> `RTTI Type Descriptor'
	DD	00H
	DB	'.?AV?$CSingleton@VCPythonChat@@@@', 00H
data$rs	ENDS
;	COMDAT ??_R3?$CSingleton@VCPythonChat@@@@8
rdata$r	SEGMENT
??_R3?$CSingleton@VCPythonChat@@@@8 DD 00H		; CSingleton<CPythonChat>::`RTTI Class Hierarchy Descriptor'
	DD	00H
	DD	01H
	DD	FLAT:??_R2?$CSingleton@VCPythonChat@@@@8
rdata$r	ENDS
;	COMDAT ??_R0?AUSChatLine@CPythonChat@@@8
data$rs	SEGMENT
??_R0?AUSChatLine@CPythonChat@@@8 DD FLAT:??_7type_info@@6B@ ; CPythonChat::SChatLine `RTTI Type Descriptor'
	DD	00H
	DB	'.?AUSChatLine@CPythonChat@@', 00H
data$rs	ENDS
;	COMDAT ??_R3SChatLine@CPythonChat@@8
rdata$r	SEGMENT
??_R3SChatLine@CPythonChat@@8 DD 00H			; CPythonChat::SChatLine::`RTTI Class Hierarchy Descriptor'
	DD	00H
	DD	01H
	DD	FLAT:??_R2SChatLine@CPythonChat@@8
rdata$r	ENDS
;	COMDAT ??_R0?AV?$CDynamicPool@USChatLine@CPythonChat@@@@@8
data$rs	SEGMENT
??_R0?AV?$CDynamicPool@USChatLine@CPythonChat@@@@@8 DD FLAT:??_7type_info@@6B@ ; CDynamicPool<CPythonChat::SChatLine> `RTTI Type Descriptor'
	DD	00H
	DB	'.?AV?$CDynamicPool@USChatLine@CPythonChat@@@@', 00H
data$rs	ENDS
;	COMDAT ??_R3?$CDynamicPool@USChatLine@CPythonChat@@@@8
rdata$r	SEGMENT
??_R3?$CDynamicPool@USChatLine@CPythonChat@@@@8 DD 00H	; CDynamicPool<CPythonChat::SChatLine>::`RTTI Class Hierarchy Descriptor'
	DD	00H
	DD	01H
	DD	FLAT:??_R2?$CDynamicPool@USChatLine@CPythonChat@@@@8
rdata$r	ENDS
;	COMDAT ??_R1A@?0A@EA@?$TAbstractSingleton@VIAbstractChat@@@@8
rdata$r	SEGMENT
??_R1A@?0A@EA@?$TAbstractSingleton@VIAbstractChat@@@@8 DD FLAT:??_R0?AV?$TAbstractSingleton@VIAbstractChat@@@@@8 ; TAbstractSingleton<IAbstractChat>::`RTTI Base Class Descriptor at (0,-1,0,64)'
	DD	00H
	DD	00H
	DD	0ffffffffH
	DD	00H
	DD	040H
	DD	FLAT:??_R3?$TAbstractSingleton@VIAbstractChat@@@@8
rdata$r	ENDS
;	COMDAT ??_R1A@?0A@EA@IAbstractChat@@8
rdata$r	SEGMENT
??_R1A@?0A@EA@IAbstractChat@@8 DD FLAT:??_R0?AVIAbstractChat@@@8 ; IAbstractChat::`RTTI Base Class Descriptor at (0,-1,0,64)'
	DD	01H
	DD	00H
	DD	0ffffffffH
	DD	00H
	DD	040H
	DD	FLAT:??_R3IAbstractChat@@8
rdata$r	ENDS
;	COMDAT ??_R1A@?0A@EA@?$CDynamicPool@USChatLine@CWhisper@@@@8
rdata$r	SEGMENT
??_R1A@?0A@EA@?$CDynamicPool@USChatLine@CWhisper@@@@8 DD FLAT:??_R0?AV?$CDynamicPool@USChatLine@CWhisper@@@@@8 ; CDynamicPool<CWhisper::SChatLine>::`RTTI Base Class Descriptor at (0,-1,0,64)'
	DD	00H
	DD	00H
	DD	0ffffffffH
	DD	00H
	DD	040H
	DD	FLAT:??_R3?$CDynamicPool@USChatLine@CWhisper@@@@8
rdata$r	ENDS
;	COMDAT ??_R1A@?0A@EA@?$CDynamicPool@VCWhisper@@@@8
rdata$r	SEGMENT
??_R1A@?0A@EA@?$CDynamicPool@VCWhisper@@@@8 DD FLAT:??_R0?AV?$CDynamicPool@VCWhisper@@@@@8 ; CDynamicPool<CWhisper>::`RTTI Base Class Descriptor at (0,-1,0,64)'
	DD	00H
	DD	00H
	DD	0ffffffffH
	DD	00H
	DD	040H
	DD	FLAT:??_R3?$CDynamicPool@VCWhisper@@@@8
rdata$r	ENDS
;	COMDAT ??_R1A@?0A@EA@?$CSingleton@VCPythonChat@@@@8
rdata$r	SEGMENT
??_R1A@?0A@EA@?$CSingleton@VCPythonChat@@@@8 DD FLAT:??_R0?AV?$CSingleton@VCPythonChat@@@@@8 ; CSingleton<CPythonChat>::`RTTI Base Class Descriptor at (0,-1,0,64)'
	DD	00H
	DD	00H
	DD	0ffffffffH
	DD	00H
	DD	040H
	DD	FLAT:??_R3?$CSingleton@VCPythonChat@@@@8
rdata$r	ENDS
;	COMDAT ??_R1A@?0A@EA@CPythonChat@@8
rdata$r	SEGMENT
??_R1A@?0A@EA@CPythonChat@@8 DD FLAT:??_R0?AVCPythonChat@@@8 ; CPythonChat::`RTTI Base Class Descriptor at (0,-1,0,64)'
	DD	03H
	DD	00H
	DD	0ffffffffH
	DD	00H
	DD	040H
	DD	FLAT:??_R3CPythonChat@@8
rdata$r	ENDS
;	COMDAT ??_R13?0A@EA@IAbstractChat@@8
rdata$r	SEGMENT
??_R13?0A@EA@IAbstractChat@@8 DD FLAT:??_R0?AVIAbstractChat@@@8 ; IAbstractChat::`RTTI Base Class Descriptor at (4,-1,0,64)'
	DD	01H
	DD	04H
	DD	0ffffffffH
	DD	00H
	DD	040H
	DD	FLAT:??_R3IAbstractChat@@8
rdata$r	ENDS
;	COMDAT ??_R13?0A@EA@?$TAbstractSingleton@VIAbstractChat@@@@8
rdata$r	SEGMENT
??_R13?0A@EA@?$TAbstractSingleton@VIAbstractChat@@@@8 DD FLAT:??_R0?AV?$TAbstractSingleton@VIAbstractChat@@@@@8 ; TAbstractSingleton<IAbstractChat>::`RTTI Base Class Descriptor at (4,-1,0,64)'
	DD	00H
	DD	04H
	DD	0ffffffffH
	DD	00H
	DD	040H
	DD	FLAT:??_R3?$TAbstractSingleton@VIAbstractChat@@@@8
rdata$r	ENDS
;	COMDAT ??_R1A@?0A@EA@SChatLine@CPythonChat@@8
rdata$r	SEGMENT
??_R1A@?0A@EA@SChatLine@CPythonChat@@8 DD FLAT:??_R0?AUSChatLine@CPythonChat@@@8 ; CPythonChat::SChatLine::`RTTI Base Class Descriptor at (0,-1,0,64)'
	DD	00H
	DD	00H
	DD	0ffffffffH
	DD	00H
	DD	040H
	DD	FLAT:??_R3SChatLine@CPythonChat@@8
rdata$r	ENDS
;	COMDAT ??_R1A@?0A@EA@?$CDynamicPool@USChatLine@CPythonChat@@@@8
rdata$r	SEGMENT
??_R1A@?0A@EA@?$CDynamicPool@USChatLine@CPythonChat@@@@8 DD FLAT:??_R0?AV?$CDynamicPool@USChatLine@CPythonChat@@@@@8 ; CDynamicPool<CPythonChat::SChatLine>::`RTTI Base Class Descriptor at (0,-1,0,64)'
	DD	00H
	DD	00H
	DD	0ffffffffH
	DD	00H
	DD	040H
	DD	FLAT:??_R3?$CDynamicPool@USChatLine@CPythonChat@@@@8
rdata$r	ENDS
;	COMDAT ??_R2?$TAbstractSingleton@VIAbstractChat@@@@8
rdata$r	SEGMENT
??_R2?$TAbstractSingleton@VIAbstractChat@@@@8 DD FLAT:??_R1A@?0A@EA@?$TAbstractSingleton@VIAbstractChat@@@@8 ; TAbstractSingleton<IAbstractChat>::`RTTI Base Class Array'
rdata$r	ENDS
;	COMDAT ??_R2IAbstractChat@@8
rdata$r	SEGMENT
??_R2IAbstractChat@@8 DD FLAT:??_R1A@?0A@EA@IAbstractChat@@8 ; IAbstractChat::`RTTI Base Class Array'
	DD	FLAT:??_R1A@?0A@EA@?$TAbstractSingleton@VIAbstractChat@@@@8
rdata$r	ENDS
;	COMDAT ??_R2?$CDynamicPool@USChatLine@CWhisper@@@@8
rdata$r	SEGMENT
??_R2?$CDynamicPool@USChatLine@CWhisper@@@@8 DD FLAT:??_R1A@?0A@EA@?$CDynamicPool@USChatLine@CWhisper@@@@8 ; CDynamicPool<CWhisper::SChatLine>::`RTTI Base Class Array'
rdata$r	ENDS
;	COMDAT ??_R2?$CDynamicPool@VCWhisper@@@@8
rdata$r	SEGMENT
??_R2?$CDynamicPool@VCWhisper@@@@8 DD FLAT:??_R1A@?0A@EA@?$CDynamicPool@VCWhisper@@@@8 ; CDynamicPool<CWhisper>::`RTTI Base Class Array'
rdata$r	ENDS
;	COMDAT ??_R2?$CSingleton@VCPythonChat@@@@8
rdata$r	SEGMENT
??_R2?$CSingleton@VCPythonChat@@@@8 DD FLAT:??_R1A@?0A@EA@?$CSingleton@VCPythonChat@@@@8 ; CSingleton<CPythonChat>::`RTTI Base Class Array'
rdata$r	ENDS
;	COMDAT ??_R2CPythonChat@@8
rdata$r	SEGMENT
??_R2CPythonChat@@8 DD FLAT:??_R1A@?0A@EA@CPythonChat@@8 ; CPythonChat::`RTTI Base Class Array'
	DD	FLAT:??_R1A@?0A@EA@?$CSingleton@VCPythonChat@@@@8
	DD	FLAT:??_R13?0A@EA@IAbstractChat@@8
	DD	FLAT:??_R13?0A@EA@?$TAbstractSingleton@VIAbstractChat@@@@8
rdata$r	ENDS
;	COMDAT ??_R2SChatLine@CPythonChat@@8
rdata$r	SEGMENT
??_R2SChatLine@CPythonChat@@8 DD FLAT:??_R1A@?0A@EA@SChatLine@CPythonChat@@8 ; CPythonChat::SChatLine::`RTTI Base Class Array'
rdata$r	ENDS
;	COMDAT ??_R2?$CDynamicPool@USChatLine@CPythonChat@@@@8
rdata$r	SEGMENT
??_R2?$CDynamicPool@USChatLine@CPythonChat@@@@8 DD FLAT:??_R1A@?0A@EA@?$CDynamicPool@USChatLine@CPythonChat@@@@8 ; CDynamicPool<CPythonChat::SChatLine>::`RTTI Base Class Array'
rdata$r	ENDS
;	COMDAT ??_C@_1FE@MOIMDFDD@?$AAi?$AA?5?$AA?$DO?$AA?$DN?$AA?5?$AA0?$AA?5?$AA?$CG?$AA?$CG?$AA?5?$AAi?$AA?5?$AA?$DM?$AA?5?$AAi@
CONST	SEGMENT
??_C@_1FE@MOIMDFDD@?$AAi?$AA?5?$AA?$DO?$AA?$DN?$AA?5?$AA0?$AA?5?$AA?$CG?$AA?$CG?$AA?5?$AAi?$AA?5?$AA?$DM?$AA?5?$AAi@ DB 'i'
	DB	00H, ' ', 00H, '>', 00H, '=', 00H, ' ', 00H, '0', 00H, ' ', 00H
	DB	'&', 00H, '&', 00H, ' ', 00H, 'i', 00H, ' ', 00H, '<', 00H, ' '
	DB	00H, 'i', 00H, 'n', 00H, 't', 00H, '(', 00H, 'm', 00H, '_', 00H
	DB	'C', 00H, 'h', 00H, 'a', 00H, 't', 00H, 'L', 00H, 'i', 00H, 'n'
	DB	00H, 'e', 00H, 'D', 00H, 'e', 00H, 'q', 00H, 'u', 00H, 'e', 00H
	DB	'.', 00H, 's', 00H, 'i', 00H, 'z', 00H, 'e', 00H, '(', 00H, ')'
	DB	00H, ')', 00H, 00H, 00H			; `string'
CONST	ENDS
;	COMDAT ??_C@_0DA@OLBPLOPJ@CWhisper?3?3AppendChat?5?9?5CANNOT_F@
CONST	SEGMENT
??_C@_0DA@OLBPLOPJ@CWhisper?3?3AppendChat?5?9?5CANNOT_F@ DB 'CWhisper::Ap'
	DB	'pendChat - CANNOT_FIND_DEFAULT_FONT', 00H	; `string'
CONST	ENDS
;	COMDAT ??_C@_1EC@HFKLJFBF@?$AAm?$AA_?$AAS?$AAh?$AAo?$AAw?$AAi?$AAn?$AAg?$AAC?$AAh?$AAa?$AAt?$AAL?$AAo@
CONST	SEGMENT
??_C@_1EC@HFKLJFBF@?$AAm?$AA_?$AAS?$AAh?$AAo?$AAw?$AAi?$AAn?$AAg?$AAC?$AAh?$AAa?$AAt?$AAL?$AAo@ DB 'm'
	DB	00H, '_', 00H, 'S', 00H, 'h', 00H, 'o', 00H, 'w', 00H, 'i', 00H
	DB	'n', 00H, 'g', 00H, 'C', 00H, 'h', 00H, 'a', 00H, 't', 00H, 'L'
	DB	00H, 'o', 00H, 'g', 00H, 'L', 00H, 'i', 00H, 'n', 00H, 'e', 00H
	DB	'L', 00H, 'i', 00H, 's', 00H, 't', 00H, '.', 00H, 'e', 00H, 'm'
	DB	00H, 'p', 00H, 't', 00H, 'y', 00H, '(', 00H, ')', 00H, 00H, 00H ; `string'
CONST	ENDS
;	COMDAT ??_C@_1DG@IPJIGBJE@?$AAm?$AA_?$AAC?$AAh?$AAa?$AAt?$AAL?$AAo?$AAg?$AAL?$AAi?$AAn?$AAe?$AAD?$AAe@
CONST	SEGMENT
??_C@_1DG@IPJIGBJE@?$AAm?$AA_?$AAC?$AAh?$AAa?$AAt?$AAL?$AAo?$AAg?$AAL?$AAi?$AAn?$AAe?$AAD?$AAe@ DB 'm'
	DB	00H, '_', 00H, 'C', 00H, 'h', 00H, 'a', 00H, 't', 00H, 'L', 00H
	DB	'o', 00H, 'g', 00H, 'L', 00H, 'i', 00H, 'n', 00H, 'e', 00H, 'D'
	DB	00H, 'e', 00H, 'q', 00H, 'u', 00H, 'e', 00H, '.', 00H, 'e', 00H
	DB	'm', 00H, 'p', 00H, 't', 00H, 'y', 00H, '(', 00H, ')', 00H, 00H
	DB	00H						; `string'
CONST	ENDS
;	COMDAT ??_C@_1CK@DLAIKIIE@?$AAm?$AA_?$AAW?$AAh?$AAi?$AAs?$AAp?$AAe?$AAr?$AAM?$AAa?$AAp?$AA?4?$AAe?$AAm@
CONST	SEGMENT
??_C@_1CK@DLAIKIIE@?$AAm?$AA_?$AAW?$AAh?$AAi?$AAs?$AAp?$AAe?$AAr?$AAM?$AAa?$AAp?$AA?4?$AAe?$AAm@ DB 'm'
	DB	00H, '_', 00H, 'W', 00H, 'h', 00H, 'i', 00H, 's', 00H, 'p', 00H
	DB	'e', 00H, 'r', 00H, 'M', 00H, 'a', 00H, 'p', 00H, '.', 00H, 'e'
	DB	00H, 'm', 00H, 'p', 00H, 't', 00H, 'y', 00H, '(', 00H, ')', 00H
	DB	00H, 00H					; `string'
CONST	ENDS
;	COMDAT ??_C@_1CK@IFLLLGL@?$AAm?$AA_?$AAC?$AAh?$AAa?$AAt?$AAS?$AAe?$AAt?$AAM?$AAa?$AAp?$AA?4?$AAe?$AAm@
CONST	SEGMENT
??_C@_1CK@IFLLLGL@?$AAm?$AA_?$AAC?$AAh?$AAa?$AAt?$AAS?$AAe?$AAt?$AAM?$AAa?$AAp?$AA?4?$AAe?$AAm@ DB 'm'
	DB	00H, '_', 00H, 'C', 00H, 'h', 00H, 'a', 00H, 't', 00H, 'S', 00H
	DB	'e', 00H, 't', 00H, 'M', 00H, 'a', 00H, 'p', 00H, '.', 00H, 'e'
	DB	00H, 'm', 00H, 'p', 00H, 't', 00H, 'y', 00H, '(', 00H, ')', 00H
	DB	00H, 00H					; `string'
CONST	ENDS
;	COMDAT ??_C@_1DM@FEONBMHD@?$AAm?$AA_?$AAS?$AAh?$AAo?$AAw?$AAi?$AAn?$AAg?$AAC?$AAh?$AAa?$AAt?$AAL?$AAi@
CONST	SEGMENT
??_C@_1DM@FEONBMHD@?$AAm?$AA_?$AAS?$AAh?$AAo?$AAw?$AAi?$AAn?$AAg?$AAC?$AAh?$AAa?$AAt?$AAL?$AAi@ DB 'm'
	DB	00H, '_', 00H, 'S', 00H, 'h', 00H, 'o', 00H, 'w', 00H, 'i', 00H
	DB	'n', 00H, 'g', 00H, 'C', 00H, 'h', 00H, 'a', 00H, 't', 00H, 'L'
	DB	00H, 'i', 00H, 'n', 00H, 'e', 00H, 'L', 00H, 'i', 00H, 's', 00H
	DB	't', 00H, '.', 00H, 'e', 00H, 'm', 00H, 'p', 00H, 't', 00H, 'y'
	DB	00H, '(', 00H, ')', 00H, 00H, 00H		; `string'
CONST	ENDS
;	COMDAT ??_C@_1DA@DJLLCIIF@?$AAm?$AA_?$AAC?$AAh?$AAa?$AAt?$AAL?$AAi?$AAn?$AAe?$AAD?$AAe?$AAq?$AAu?$AAe@
CONST	SEGMENT
??_C@_1DA@DJLLCIIF@?$AAm?$AA_?$AAC?$AAh?$AAa?$AAt?$AAL?$AAi?$AAn?$AAe?$AAD?$AAe?$AAq?$AAu?$AAe@ DB 'm'
	DB	00H, '_', 00H, 'C', 00H, 'h', 00H, 'a', 00H, 't', 00H, 'L', 00H
	DB	'i', 00H, 'n', 00H, 'e', 00H, 'D', 00H, 'e', 00H, 'q', 00H, 'u'
	DB	00H, 'e', 00H, '.', 00H, 'e', 00H, 'm', 00H, 'p', 00H, 't', 00H
	DB	'y', 00H, '(', 00H, ')', 00H, 00H, 00H	; `string'
CONST	ENDS
;	COMDAT ??_C@_0BC@CFOGNAGP@MakeWhisperButton@
CONST	SEGMENT
??_C@_0BC@CFOGNAGP@MakeWhisperButton@ DB 'MakeWhisperButton', 00H ; `string'
CONST	ENDS
;	COMDAT ??_C@_0DG@MAMEDMHN@CPythonChat?3?3AppendChatLog?5?9?5CA@
CONST	SEGMENT
??_C@_0DG@MAMEDMHN@CPythonChat?3?3AppendChatLog?5?9?5CA@ DB 'CPythonChat:'
	DB	':AppendChatLog - CANNOT_FIND_DEFAULT_FONT', 00H ; `string'
CONST	ENDS
;	COMDAT ??_C@_04PAJMBCIO@?$CDend@
CONST	SEGMENT
??_C@_04PAJMBCIO@?$CDend@ DB '#end', 00H		; `string'
CONST	ENDS
;	COMDAT ??_C@_05DOFHPMGD@?$CDsend@
CONST	SEGMENT
??_C@_05DOFHPMGD@?$CDsend@ DB '#send', 00H		; `string'
CONST	ENDS
;	COMDAT ??_C@_06ICJOKKEK@?$CDstart@
CONST	SEGMENT
??_C@_06ICJOKKEK@?$CDstart@ DB '#start', 00H		; `string'
CONST	ENDS
;	COMDAT ??_C@_0DD@ICBOAHOH@CPythonChat?3?3AppendChat?5?9?5CANNO@
CONST	SEGMENT
??_C@_0DD@ICBOAHOH@CPythonChat?3?3AppendChat?5?9?5CANNO@ DB 'CPythonChat:'
	DB	':AppendChat - CANNOT_FIND_DEFAULT_FONT', 00H ; `string'
CONST	ENDS
;	COMDAT ??_C@_06EEAEEKCL@?$CFs?7?$CFs?6@
CONST	SEGMENT
??_C@_06EEAEEKCL@?$CFs?7?$CFs?6@ DB '%s', 09H, '%s', 0aH, 00H ; `string'
CONST	ENDS
;	COMDAT ??_C@_02DPKJAMEF@?$CFd@
CONST	SEGMENT
??_C@_02DPKJAMEF@?$CFd@ DB '%d', 00H			; `string'
CONST	ENDS
;	COMDAT ??_C@_02BGAGALCL@?$HMt@
CONST	SEGMENT
??_C@_02BGAGALCL@?$HMt@ DB '|t', 00H			; `string'
CONST	ENDS
;	COMDAT ??_C@_06FKNHHIAI@?$CFd?7?$CFs?6@
CONST	SEGMENT
??_C@_06FKNHHIAI@?$CFd?7?$CFs?6@ DB '%d', 09H, '%s', 0aH, 00H ; `string'
CONST	ENDS
;	COMDAT ??_C@_0O@HCJHBEJP@lib?1emoji?4cfg@
CONST	SEGMENT
??_C@_0O@HCJHBEJP@lib?1emoji?4cfg@ DB 'lib/emoji.cfg', 00H ; `string'
CONST	ENDS
;	COMDAT ??_C@_02IDICCPIJ@?$HMT@
CONST	SEGMENT
??_C@_02IDICCPIJ@?$HMT@ DB '|T', 00H			; `string'
CONST	ENDS
;	COMDAT ??_C@_1EK@MBNDAGHK@?$AAd?$AAw?$AAI?$AAD?$AA?5?$AA?$DM?$AA?5?$AAC?$AAH?$AAA?$AAT?$AA_?$AAL?$AAI?$AAN@
CONST	SEGMENT
??_C@_1EK@MBNDAGHK@?$AAd?$AAw?$AAI?$AAD?$AA?5?$AA?$DM?$AA?5?$AAC?$AAH?$AAA?$AAT?$AA_?$AAL?$AAI?$AAN@ DB 'd'
	DB	00H, 'w', 00H, 'I', 00H, 'D', 00H, ' ', 00H, '<', 00H, ' ', 00H
	DB	'C', 00H, 'H', 00H, 'A', 00H, 'T', 00H, '_', 00H, 'L', 00H, 'I'
	DB	00H, 'N', 00H, 'E', 00H, '_', 00H, 'C', 00H, 'O', 00H, 'L', 00H
	DB	'O', 00H, 'R', 00H, '_', 00H, 'A', 00H, 'R', 00H, 'R', 00H, 'A'
	DB	00H, 'Y', 00H, '_', 00H, 'M', 00H, 'A', 00H, 'X', 00H, '_', 00H
	DB	'N', 00H, 'U', 00H, 'M', 00H, 00H, 00H	; `string'
CONST	ENDS
;	COMDAT ??_C@_1JO@BKKCKGMI@?$AAC?$AA?3?$AA?2?$AAA?$AAn?$AAk?$AAa?$AA2?$AAP?$AAr?$AAo?$AAj?$AAe?$AAc?$AAt@
CONST	SEGMENT
??_C@_1JO@BKKCKGMI@?$AAC?$AA?3?$AA?2?$AAA?$AAn?$AAk?$AAa?$AA2?$AAP?$AAr?$AAo?$AAj?$AAe?$AAc?$AAt@ DB 'C'
	DB	00H, ':', 00H, '\', 00H, 'A', 00H, 'n', 00H, 'k', 00H, 'a', 00H
	DB	'2', 00H, 'P', 00H, 'r', 00H, 'o', 00H, 'j', 00H, 'e', 00H, 'c'
	DB	00H, 't', 00H, '\', 00H, 'A', 00H, 'n', 00H, 'k', 00H, 'a', 00H
	DB	'2', 00H, 'P', 00H, 'r', 00H, 'o', 00H, 'j', 00H, 'e', 00H, 'c'
	DB	00H, 't', 00H, '\', 00H, 'S', 00H, 'o', 00H, 'u', 00H, 'r', 00H
	DB	'c', 00H, 'e', 00H, '\', 00H, 'B', 00H, 'i', 00H, 'n', 00H, 'a'
	DB	00H, 'r', 00H, 'y', 00H, '\', 00H, 's', 00H, 'o', 00H, 'u', 00H
	DB	'r', 00H, 'c', 00H, 'e', 00H, '\', 00H, 'U', 00H, 's', 00H, 'e'
	DB	00H, 'r', 00H, 'I', 00H, 'n', 00H, 't', 00H, 'e', 00H, 'r', 00H
	DB	'f', 00H, 'a', 00H, 'c', 00H, 'e', 00H, '\', 00H, 'P', 00H, 'y'
	DB	00H, 't', 00H, 'h', 00H, 'o', 00H, 'n', 00H, 'C', 00H, 'h', 00H
	DB	'a', 00H, 't', 00H, '.', 00H, 'c', 00H, 'p', 00H, 'p', 00H, 00H
	DB	00H						; `string'
?ms_iChatModeSize@SChatSet@CPythonChat@@2HA DD 0bH	; CPythonChat::SChatSet::ms_iChatModeSize
PUBLIC	?find@?$basic_string@DU?$char_traits@D@std@@V?$allocator@D@2@@std@@QBEIQBDI@Z ; std::basic_string<char,std::char_traits<char>,std::allocator<char> >::find
PUBLIC	??$_Traits_find@U?$char_traits@D@std@@@std@@YAIQBDII0I@Z ; std::_Traits_find<std::char_traits<char> >
PUBLIC	??$_Search_vectorized@$$CBD$$CBD@std@@YAPBDQBD00I@Z ; std::_Search_vectorized<char const ,char const >
PUBLIC	??0?$basic_string@DU?$char_traits@D@std@@V?$allocator@D@2@@std@@QAE@ABV01@IIABV?$allocator@D@1@@Z ; std::basic_string<char,std::char_traits<char>,std::allocator<char> >::basic_string<char,std::char_traits<char>,std::allocator<char> >
PUBLIC	?_Clamp_suffix_size@?$_String_val@U?$_Simple_types@D@std@@@std@@QBEIII@Z ; std::_String_val<std::_Simple_types<char> >::_Clamp_suffix_size
PUBLIC	?_Check_offset@?$_String_val@U?$_Simple_types@D@std@@@std@@QBEXI@Z ; std::_String_val<std::_Simple_types<char> >::_Check_offset
PUBLIC	?_Xran@?$_String_val@U?$_Simple_types@D@std@@@std@@SAXXZ ; std::_String_val<std::_Simple_types<char> >::_Xran
PUBLIC	??$?0ABV?$allocator@D@std@@$$V@?$_Compressed_pair@V?$allocator@D@std@@V?$_String_val@U?$_Simple_types@D@std@@@2@$00@std@@QAE@U_One_then_variadic_args_t@1@ABV?$allocator@D@1@@Z ; std::_Compressed_pair<std::allocator<char>,std::_String_val<std::_Simple_types<char> >,1>::_Compressed_pair<std::allocator<char>,std::_String_val<std::_Simple_types<char> >,1><std::allocator<char> const &>
PUBLIC	??$forward@ABV?$allocator@D@std@@@std@@YAABV?$allocator@D@0@ABV10@@Z ; std::forward<std::allocator<char> const &>
PUBLIC	?_Release@_Basic_container_proxy_ptr12@std@@QAEXXZ ; std::_Basic_container_proxy_ptr12::_Release
PUBLIC	?_Getcont@_Iterator_base12@std@@QBEPBU_Container_base12@2@XZ ; std::_Iterator_base12::_Getcont
PUBLIC	??0_Iterator_base12@std@@QAE@XZ			; std::_Iterator_base12::_Iterator_base12
PUBLIC	??0_Basic_container_proxy_ptr12@std@@IAE@XZ	; std::_Basic_container_proxy_ptr12::_Basic_container_proxy_ptr12
PUBLIC	??$addressof@U_Container_base12@std@@@std@@YAPAU_Container_base12@0@AAU10@@Z ; std::addressof<std::_Container_base12>
PUBLIC	?_Adopt@_Iterator_base12@std@@QAEXPBU_Container_base12@2@@Z ; std::_Iterator_base12::_Adopt
PUBLIC	??$move@AAH@std@@YA$$QAHAAH@Z			; std::move<int &>
PUBLIC	??$swap@I$0A@@std@@YAXAAI0@Z			; std::swap<unsigned int,0>
PUBLIC	??$move@AAI@std@@YA$$QAIAAI@Z			; std::move<unsigned int &>
PUBLIC	??_ECPythonChat@@W3AEPAXI@Z			; [thunk]:CPythonChat::`vector deleting destructor'
PUBLIC	??$construct_at@PAUSChatLine@CPythonChat@@PAU12@@std@@YAPAPAUSChatLine@CPythonChat@@QAPAU12@$$QAPAU12@@Z ; std::construct_at<CPythonChat::SChatLine *,CPythonChat::SChatLine *>
PUBLIC	??$construct_at@PAVCWhisper@@PAV1@@std@@YAPAPAVCWhisper@@QAPAV1@$$QAPAV1@@Z ; std::construct_at<CWhisper *,CWhisper *>
PUBLIC	??$construct_at@PAUSChatLine@CWhisper@@PAU12@@std@@YAPAPAUSChatLine@CWhisper@@QAPAU12@$$QAPAU12@@Z ; std::construct_at<CWhisper::SChatLine *,CWhisper::SChatLine *>
PUBLIC	??$addressof@PAPAUSChatLine@CWhisper@@@std@@YAPAPAPAUSChatLine@CWhisper@@AAPAPAU12@@Z ; std::addressof<CWhisper::SChatLine * *>
PUBLIC	??$addressof@PAPAUSChatLine@CPythonChat@@@std@@YAPAPAPAUSChatLine@CPythonChat@@AAPAPAU12@@Z ; std::addressof<CPythonChat::SChatLine * *>
PUBLIC	?_Get_first@?$_Compressed_pair@V?$allocator@U?$_Tree_node@U?$pair@$$CBHUSChatSet@CPythonChat@@@std@@PAX@std@@@std@@V?$_Tree_val@U?$_Tree_simple_types@U?$pair@$$CBHUSChatSet@CPythonChat@@@std@@@std@@@2@$00@std@@QBEABV?$allocator@U?$_Tree_node@U?$pair@$$CBHUSChatSet@CPythonChat@@@std@@PAX@std@@@2@XZ ; std::_Compressed_pair<std::allocator<std::_Tree_node<std::pair<int const ,CPythonChat::SChatSet>,void *> >,std::_Tree_val<std::_Tree_simple_types<std::pair<int const ,CPythonChat::SChatSet> > >,1>::_Get_first
PUBLIC	?_Get_first@?$_Compressed_pair@V?$allocator@PAUSChatLine@CPythonChat@@@std@@V?$_Vector_val@U?$_Simple_types@PAUSChatLine@CPythonChat@@@std@@@2@$00@std@@QBEABV?$allocator@PAUSChatLine@CPythonChat@@@2@XZ ; std::_Compressed_pair<std::allocator<CPythonChat::SChatLine *>,std::_Vector_val<std::_Simple_types<CPythonChat::SChatLine *> >,1>::_Get_first
PUBLIC	?_Get_first@?$_Compressed_pair@V?$allocator@PAVCWhisper@@@std@@V?$_Vector_val@U?$_Simple_types@PAVCWhisper@@@std@@@2@$00@std@@QBEABV?$allocator@PAVCWhisper@@@2@XZ ; std::_Compressed_pair<std::allocator<CWhisper *>,std::_Vector_val<std::_Simple_types<CWhisper *> >,1>::_Get_first
PUBLIC	?_Get_first@?$_Compressed_pair@V?$allocator@PAUSChatLine@CWhisper@@@std@@V?$_Vector_val@U?$_Simple_types@PAUSChatLine@CWhisper@@@std@@@2@$00@std@@QBEABV?$allocator@PAUSChatLine@CWhisper@@@2@XZ ; std::_Compressed_pair<std::allocator<CWhisper::SChatLine *>,std::_Vector_val<std::_Simple_types<CWhisper::SChatLine *> >,1>::_Get_first
PUBLIC	??$_Construct_in_place_by_deref@PAPAUSChatLine@CWhisper@@PAPAPAU12@@std@@YAXAAPAPAUSChatLine@CWhisper@@AAPAPAPAU12@@Z ; std::_Construct_in_place_by_deref<CWhisper::SChatLine * *,CWhisper::SChatLine * * *>
PUBLIC	??$_Copy_memmove_tail@PAPAPAUSChatLine@CWhisper@@@std@@YAPAPAPAUSChatLine@CWhisper@@QBDQAPAPAU12@II@Z ; std::_Copy_memmove_tail<CWhisper::SChatLine * * *>
PUBLIC	??$move@AAPAPAPAUSChatLine@CWhisper@@@std@@YA$$QAPAPAPAUSChatLine@CWhisper@@AAPAPAPAU12@@Z ; std::move<CWhisper::SChatLine * * * &>
PUBLIC	??$_Construct_in_place_by_deref@PAPAUSChatLine@CPythonChat@@PAPAPAU12@@std@@YAXAAPAPAUSChatLine@CPythonChat@@AAPAPAPAU12@@Z ; std::_Construct_in_place_by_deref<CPythonChat::SChatLine * *,CPythonChat::SChatLine * * *>
PUBLIC	??$_Copy_memmove_tail@PAPAPAUSChatLine@CPythonChat@@@std@@YAPAPAPAUSChatLine@CPythonChat@@QBDQAPAPAU12@II@Z ; std::_Copy_memmove_tail<CPythonChat::SChatLine * * *>
PUBLIC	??$move@AAPAPAPAUSChatLine@CPythonChat@@@std@@YA$$QAPAPAPAUSChatLine@CPythonChat@@AAPAPAPAU12@@Z ; std::move<CPythonChat::SChatLine * * * &>
PUBLIC	??$construct@PAUSChatLine@CPythonChat@@PAU12@@?$_Default_allocator_traits@V?$allocator@PAUSChatLine@CPythonChat@@@std@@@std@@SAXAAV?$allocator@PAUSChatLine@CPythonChat@@@1@QAPAUSChatLine@CPythonChat@@$$QAPAU34@@Z ; std::_Default_allocator_traits<std::allocator<CPythonChat::SChatLine *> >::construct<CPythonChat::SChatLine *,CPythonChat::SChatLine *>
PUBLIC	??$forward@PAUSChatLine@CPythonChat@@@std@@YA$$QAPAUSChatLine@CPythonChat@@AAPAU12@@Z ; std::forward<CPythonChat::SChatLine *>
PUBLIC	??$_Copy_memmove_tail@PAPAUSChatLine@CPythonChat@@@std@@YAPAPAUSChatLine@CPythonChat@@QBDQAPAU12@II@Z ; std::_Copy_memmove_tail<CPythonChat::SChatLine * *>
PUBLIC	??$move@AAPAPAUSChatLine@CPythonChat@@@std@@YA$$QAPAPAUSChatLine@CPythonChat@@AAPAPAU12@@Z ; std::move<CPythonChat::SChatLine * * &>
PUBLIC	??$to_address@PAUSChatLine@CPythonChat@@@std@@YAPAPAUSChatLine@CPythonChat@@QAPAU12@@Z ; std::to_address<CPythonChat::SChatLine *>
PUBLIC	??$construct@PAVCWhisper@@PAV1@@?$_Default_allocator_traits@V?$allocator@PAVCWhisper@@@std@@@std@@SAXAAV?$allocator@PAVCWhisper@@@1@QAPAVCWhisper@@$$QAPAV3@@Z ; std::_Default_allocator_traits<std::allocator<CWhisper *> >::construct<CWhisper *,CWhisper *>
PUBLIC	??$forward@PAVCWhisper@@@std@@YA$$QAPAVCWhisper@@AAPAV1@@Z ; std::forward<CWhisper *>
PUBLIC	??$_Copy_memmove_tail@PAPAVCWhisper@@@std@@YAPAPAVCWhisper@@QBDQAPAV1@II@Z ; std::_Copy_memmove_tail<CWhisper * *>
PUBLIC	??$move@AAPAPAVCWhisper@@@std@@YA$$QAPAPAVCWhisper@@AAPAPAV1@@Z ; std::move<CWhisper * * &>
PUBLIC	??$to_address@PAVCWhisper@@@std@@YAPAPAVCWhisper@@QAPAV1@@Z ; std::to_address<CWhisper *>
PUBLIC	??$construct@PAUSChatLine@CWhisper@@PAU12@@?$_Default_allocator_traits@V?$allocator@PAUSChatLine@CWhisper@@@std@@@std@@SAXAAV?$allocator@PAUSChatLine@CWhisper@@@1@QAPAUSChatLine@CWhisper@@$$QAPAU34@@Z ; std::_Default_allocator_traits<std::allocator<CWhisper::SChatLine *> >::construct<CWhisper::SChatLine *,CWhisper::SChatLine *>
PUBLIC	??$forward@PAUSChatLine@CWhisper@@@std@@YA$$QAPAUSChatLine@CWhisper@@AAPAU12@@Z ; std::forward<CWhisper::SChatLine *>
PUBLIC	??$_Copy_memmove_tail@PAPAUSChatLine@CWhisper@@@std@@YAPAPAUSChatLine@CWhisper@@QBDQAPAU12@II@Z ; std::_Copy_memmove_tail<CWhisper::SChatLine * *>
PUBLIC	??$move@AAPAPAUSChatLine@CWhisper@@@std@@YA$$QAPAPAUSChatLine@CWhisper@@AAPAPAU12@@Z ; std::move<CWhisper::SChatLine * * &>
PUBLIC	??$to_address@PAUSChatLine@CWhisper@@@std@@YAPAPAUSChatLine@CWhisper@@QAPAU12@@Z ; std::to_address<CWhisper::SChatLine *>
PUBLIC	??$construct_at@HH@std@@YAPAHQAH$$QAH@Z		; std::construct_at<int,int>
PUBLIC	??$construct_at@USEmoticonsRecentChat@CPythonChat@@U12@@std@@YAPAUSEmoticonsRecentChat@CPythonChat@@QAU12@$$QAU12@@Z ; std::construct_at<CPythonChat::SEmoticonsRecentChat,CPythonChat::SEmoticonsRecentChat>
PUBLIC	??$?0KUSChatSet@CPythonChat@@$0A@@?$pair@$$CBHUSChatSet@CPythonChat@@@std@@QAE@$$QAU?$pair@KUSChatSet@CPythonChat@@@1@@Z ; std::pair<int const ,CPythonChat::SChatSet>::pair<int const ,CPythonChat::SChatSet><unsigned long,CPythonChat::SChatSet,0>
PUBLIC	?_Get_first@?$_Compressed_pair@V?$allocator@PAUSChatLine@CWhisper@@@std@@V?$_Deque_val@U?$_Deque_simple_types@PAUSChatLine@CWhisper@@@std@@@2@$00@std@@QBEABV?$allocator@PAUSChatLine@CWhisper@@@2@XZ ; std::_Compressed_pair<std::allocator<CWhisper::SChatLine *>,std::_Deque_val<std::_Deque_simple_types<CWhisper::SChatLine *> >,1>::_Get_first
PUBLIC	?_Get_first@?$_Compressed_pair@V?$allocator@H@std@@V?$_Vector_val@U?$_Simple_types@H@std@@@2@$00@std@@QBEABV?$allocator@H@2@XZ ; std::_Compressed_pair<std::allocator<int>,std::_Vector_val<std::_Simple_types<int> >,1>::_Get_first
PUBLIC	?_Getal@?$_Tree@V?$_Tmap_traits@HUSChatSet@CPythonChat@@U?$less@H@std@@V?$allocator@U?$pair@$$CBHUSChatSet@CPythonChat@@@std@@@4@$0A@@std@@@std@@IBEABV?$allocator@U?$_Tree_node@U?$pair@$$CBHUSChatSet@CPythonChat@@@std@@PAX@std@@@2@XZ ; std::_Tree<std::_Tmap_traits<int,CPythonChat::SChatSet,std::less<int>,std::allocator<std::pair<int const ,CPythonChat::SChatSet> >,0> >::_Getal
PUBLIC	?max_size@?$_Default_allocator_traits@V?$allocator@U?$_Tree_node@U?$pair@$$CBHUSChatSet@CPythonChat@@@std@@PAX@std@@@std@@@std@@SAIABV?$allocator@U?$_Tree_node@U?$pair@$$CBHUSChatSet@CPythonChat@@@std@@PAX@std@@@2@@Z ; std::_Default_allocator_traits<std::allocator<std::_Tree_node<std::pair<int const ,CPythonChat::SChatSet>,void *> > >::max_size
PUBLIC	?_Get_first@?$_Compressed_pair@V?$allocator@U?$_Tree_node@U?$pair@$$CBV?$basic_string@DU?$char_traits@D@std@@V?$allocator@D@2@@std@@PAVCWhisper@@@std@@PAX@std@@@std@@V?$_Tree_val@U?$_Tree_simple_types@U?$pair@$$CBV?$basic_string@DU?$char_traits@D@std@@V?$allocator@D@2@@std@@PAVCWhisper@@@std@@@std@@@2@$00@std@@QBEABV?$allocator@U?$_Tree_node@U?$pair@$$CBV?$basic_string@DU?$char_traits@D@std@@V?$allocator@D@2@@std@@PAVCWhisper@@@std@@PAX@std@@@2@XZ ; std::_Compressed_pair<std::allocator<std::_Tree_node<std::pair<std::basic_string<char,std::char_traits<char>,std::allocator<char> > const ,CWhisper *>,void *> >,std::_Tree_val<std::_Tree_simple_types<std::pair<std::basic_string<char,std::char_traits<char>,std::allocator<char> > const ,CWhisper *> > >,1>::_Get_first
PUBLIC	?_Get_first@?$_Compressed_pair@V?$allocator@U?$_Tree_node@U?$pair@$$CBV?$basic_string@DU?$char_traits@D@std@@V?$allocator@D@2@@std@@USEmoticonsRecentChat@CPythonChat@@@std@@PAX@std@@@std@@V?$_Tree_val@U?$_Tree_simple_types@U?$pair@$$CBV?$basic_string@DU?$char_traits@D@std@@V?$allocator@D@2@@std@@USEmoticonsRecentChat@CPythonChat@@@std@@@std@@@2@$00@std@@QBEABV?$allocator@U?$_Tree_node@U?$pair@$$CBV?$basic_string@DU?$char_traits@D@std@@V?$allocator@D@2@@std@@USEmoticonsRecentChat@CPythonChat@@@std@@PAX@std@@@2@XZ ; std::_Compressed_pair<std::allocator<std::_Tree_node<std::pair<std::basic_string<char,std::char_traits<char>,std::allocator<char> > const ,CPythonChat::SEmoticonsRecentChat>,void *> >,std::_Tree_val<std::_Tree_simple_types<std::pair<std::basic_string<char,std::char_traits<char>,std::allocator<char> > const ,CPythonChat::SEmoticonsRecentChat> > >,1>::_Get_first
PUBLIC	?_Get_first@?$_Compressed_pair@V?$allocator@USEmoticonsRecentChat@CPythonChat@@@std@@V?$_Vector_val@U?$_Simple_types@USEmoticonsRecentChat@CPythonChat@@@std@@@2@$00@std@@QBEABV?$allocator@USEmoticonsRecentChat@CPythonChat@@@2@XZ ; std::_Compressed_pair<std::allocator<CPythonChat::SEmoticonsRecentChat>,std::_Vector_val<std::_Simple_types<CPythonChat::SEmoticonsRecentChat> >,1>::_Get_first
PUBLIC	?capacity@?$vector@PAUSChatLine@CPythonChat@@V?$allocator@PAUSChatLine@CPythonChat@@@std@@@std@@QBEIXZ ; std::vector<CPythonChat::SChatLine *,std::allocator<CPythonChat::SChatLine *> >::capacity
PUBLIC	?_Getal@?$vector@PAUSChatLine@CPythonChat@@V?$allocator@PAUSChatLine@CPythonChat@@@std@@@std@@ABEABV?$allocator@PAUSChatLine@CPythonChat@@@2@XZ ; std::vector<CPythonChat::SChatLine *,std::allocator<CPythonChat::SChatLine *> >::_Getal
PUBLIC	?allocate@?$allocator@PAVCWhisper@@@std@@QAEPAPAVCWhisper@@I@Z ; std::allocator<CWhisper *>::allocate
PUBLIC	?capacity@?$vector@PAVCWhisper@@V?$allocator@PAVCWhisper@@@std@@@std@@QBEIXZ ; std::vector<CWhisper *,std::allocator<CWhisper *> >::capacity
PUBLIC	?_Getal@?$vector@PAVCWhisper@@V?$allocator@PAVCWhisper@@@std@@@std@@ABEABV?$allocator@PAVCWhisper@@@2@XZ ; std::vector<CWhisper *,std::allocator<CWhisper *> >::_Getal
PUBLIC	?max_size@?$_Default_allocator_traits@V?$allocator@PAVCWhisper@@@std@@@std@@SAIABV?$allocator@PAVCWhisper@@@2@@Z ; std::_Default_allocator_traits<std::allocator<CWhisper *> >::max_size
PUBLIC	?capacity@?$vector@PAUSChatLine@CWhisper@@V?$allocator@PAUSChatLine@CWhisper@@@std@@@std@@QBEIXZ ; std::vector<CWhisper::SChatLine *,std::allocator<CWhisper::SChatLine *> >::capacity
PUBLIC	?_Getal@?$vector@PAUSChatLine@CWhisper@@V?$allocator@PAUSChatLine@CWhisper@@@std@@@std@@ABEABV?$allocator@PAUSChatLine@CWhisper@@@2@XZ ; std::vector<CWhisper::SChatLine *,std::allocator<CWhisper::SChatLine *> >::_Getal
PUBLIC	??0?$_Alloc_construct_ptr@V?$allocator@U?$_Tree_node@U?$pair@$$CBHUSChatSet@CPythonChat@@@std@@PAX@std@@@std@@@std@@QAE@AAV?$allocator@U?$_Tree_node@U?$pair@$$CBHUSChatSet@CPythonChat@@@std@@PAX@std@@@1@@Z ; std::_Alloc_construct_ptr<std::allocator<std::_Tree_node<std::pair<int const ,CPythonChat::SChatSet>,void *> > >::_Alloc_construct_ptr<std::allocator<std::_Tree_node<std::pair<int const ,CPythonChat::SChatSet>,void *> > >
PUBLIC	?_Allocate@?$_Alloc_construct_ptr@V?$allocator@U?$_Tree_node@U?$pair@$$CBHUSChatSet@CPythonChat@@@std@@PAX@std@@@std@@@std@@QAEXXZ ; std::_Alloc_construct_ptr<std::allocator<std::_Tree_node<std::pair<int const ,CPythonChat::SChatSet>,void *> > >::_Allocate
PUBLIC	??0?$_Uninitialized_backout_al@V?$allocator@PAUSChatLine@CWhisper@@@std@@@std@@QAE@PAPAUSChatLine@CWhisper@@AAV?$allocator@PAUSChatLine@CWhisper@@@1@@Z ; std::_Uninitialized_backout_al<std::allocator<CWhisper::SChatLine *> >::_Uninitialized_backout_al<std::allocator<CWhisper::SChatLine *> >
PUBLIC	??1?$_Uninitialized_backout_al@V?$allocator@PAUSChatLine@CWhisper@@@std@@@std@@QAE@XZ ; std::_Uninitialized_backout_al<std::allocator<CWhisper::SChatLine *> >::~_Uninitialized_backout_al<std::allocator<CWhisper::SChatLine *> >
PUBLIC	?_Release@?$_Uninitialized_backout_al@V?$allocator@PAUSChatLine@CWhisper@@@std@@@std@@QAEPAPAUSChatLine@CWhisper@@XZ ; std::_Uninitialized_backout_al<std::allocator<CWhisper::SChatLine *> >::_Release
PUBLIC	??0?$_Uninitialized_backout_al@V?$allocator@PAVCWhisper@@@std@@@std@@QAE@PAPAVCWhisper@@AAV?$allocator@PAVCWhisper@@@1@@Z ; std::_Uninitialized_backout_al<std::allocator<CWhisper *> >::_Uninitialized_backout_al<std::allocator<CWhisper *> >
PUBLIC	??1?$_Uninitialized_backout_al@V?$allocator@PAVCWhisper@@@std@@@std@@QAE@XZ ; std::_Uninitialized_backout_al<std::allocator<CWhisper *> >::~_Uninitialized_backout_al<std::allocator<CWhisper *> >
PUBLIC	?_Release@?$_Uninitialized_backout_al@V?$allocator@PAVCWhisper@@@std@@@std@@QAEPAPAVCWhisper@@XZ ; std::_Uninitialized_backout_al<std::allocator<CWhisper *> >::_Release
PUBLIC	??0?$_Uninitialized_backout_al@V?$allocator@PAUSChatLine@CPythonChat@@@std@@@std@@QAE@PAPAUSChatLine@CPythonChat@@AAV?$allocator@PAUSChatLine@CPythonChat@@@1@@Z ; std::_Uninitialized_backout_al<std::allocator<CPythonChat::SChatLine *> >::_Uninitialized_backout_al<std::allocator<CPythonChat::SChatLine *> >
PUBLIC	??1?$_Uninitialized_backout_al@V?$allocator@PAUSChatLine@CPythonChat@@@std@@@std@@QAE@XZ ; std::_Uninitialized_backout_al<std::allocator<CPythonChat::SChatLine *> >::~_Uninitialized_backout_al<std::allocator<CPythonChat::SChatLine *> >
PUBLIC	?_Release@?$_Uninitialized_backout_al@V?$allocator@PAUSChatLine@CPythonChat@@@std@@@std@@QAEPAPAUSChatLine@CPythonChat@@XZ ; std::_Uninitialized_backout_al<std::allocator<CPythonChat::SChatLine *> >::_Release
PUBLIC	??0?$_Uninitialized_backout@PAPAPAUSChatLine@CPythonChat@@@std@@QAE@PAPAPAUSChatLine@CPythonChat@@@Z ; std::_Uninitialized_backout<CPythonChat::SChatLine * * *>::_Uninitialized_backout<CPythonChat::SChatLine * * *>
PUBLIC	??1?$_Uninitialized_backout@PAPAPAUSChatLine@CPythonChat@@@std@@QAE@XZ ; std::_Uninitialized_backout<CPythonChat::SChatLine * * *>::~_Uninitialized_backout<CPythonChat::SChatLine * * *>
PUBLIC	?_Release@?$_Uninitialized_backout@PAPAPAUSChatLine@CPythonChat@@@std@@QAEPAPAPAUSChatLine@CPythonChat@@XZ ; std::_Uninitialized_backout<CPythonChat::SChatLine * * *>::_Release
PUBLIC	??0?$_Uninitialized_backout@PAPAPAUSChatLine@CWhisper@@@std@@QAE@PAPAPAUSChatLine@CWhisper@@@Z ; std::_Uninitialized_backout<CWhisper::SChatLine * * *>::_Uninitialized_backout<CWhisper::SChatLine * * *>
PUBLIC	??1?$_Uninitialized_backout@PAPAPAUSChatLine@CWhisper@@@std@@QAE@XZ ; std::_Uninitialized_backout<CWhisper::SChatLine * * *>::~_Uninitialized_backout<CWhisper::SChatLine * * *>
PUBLIC	?_Release@?$_Uninitialized_backout@PAPAPAUSChatLine@CWhisper@@@std@@QAEPAPAPAUSChatLine@CWhisper@@XZ ; std::_Uninitialized_backout<CWhisper::SChatLine * * *>::_Release
PUBLIC	??$_Get_size_of_n@$0EI@@std@@YAII@Z		; std::_Get_size_of_n<72>
PUBLIC	??$move@AAPAU?$_List_node@PAUSChatLine@CPythonChat@@PAX@std@@@std@@YA$$QAPAU?$_List_node@PAUSChatLine@CPythonChat@@PAX@0@AAPAU10@@Z ; std::move<std::_List_node<CPythonChat::SChatLine *,void *> * &>
PUBLIC	??$to_address@PAPAUSChatLine@CWhisper@@@std@@YAPAPAPAUSChatLine@CWhisper@@QAPAPAU12@@Z ; std::to_address<CWhisper::SChatLine * *>
PUBLIC	??$forward@PAPAPAUSChatLine@CWhisper@@@std@@YA$$QAPAPAPAUSChatLine@CWhisper@@AAPAPAPAU12@@Z ; std::forward<CWhisper::SChatLine * * *>
PUBLIC	??$_Emplace_back_deref@PAPAPAUSChatLine@CWhisper@@@?$_Uninitialized_backout@PAPAPAUSChatLine@CWhisper@@@std@@QAEXAAPAPAPAUSChatLine@CWhisper@@@Z ; std::_Uninitialized_backout<CWhisper::SChatLine * * *>::_Emplace_back_deref<CWhisper::SChatLine * * *>
PUBLIC	??$_Copy_memmove@PAPAPAUSChatLine@CWhisper@@PAPAPAU12@@std@@YAPAPAPAUSChatLine@CWhisper@@PAPAPAU12@00@Z ; std::_Copy_memmove<CWhisper::SChatLine * * *,CWhisper::SChatLine * * *>
PUBLIC	??$to_address@PAPAUSChatLine@CPythonChat@@@std@@YAPAPAPAUSChatLine@CPythonChat@@QAPAPAU12@@Z ; std::to_address<CPythonChat::SChatLine * *>
PUBLIC	??$forward@PAPAPAUSChatLine@CPythonChat@@@std@@YA$$QAPAPAPAUSChatLine@CPythonChat@@AAPAPAPAU12@@Z ; std::forward<CPythonChat::SChatLine * * *>
PUBLIC	??$_Emplace_back_deref@PAPAPAUSChatLine@CPythonChat@@@?$_Uninitialized_backout@PAPAPAUSChatLine@CPythonChat@@@std@@QAEXAAPAPAPAUSChatLine@CPythonChat@@@Z ; std::_Uninitialized_backout<CPythonChat::SChatLine * * *>::_Emplace_back_deref<CPythonChat::SChatLine * * *>
PUBLIC	??$_Copy_memmove@PAPAPAUSChatLine@CPythonChat@@PAPAPAU12@@std@@YAPAPAPAUSChatLine@CPythonChat@@PAPAPAU12@00@Z ; std::_Copy_memmove<CPythonChat::SChatLine * * *,CPythonChat::SChatLine * * *>
PUBLIC	??$construct_at@PAU?$_Tree_node@U?$pair@$$CBHUSChatSet@CPythonChat@@@std@@PAX@std@@ABQAU12@@std@@YAPAPAU?$_Tree_node@U?$pair@$$CBHUSChatSet@CPythonChat@@@std@@PAX@0@QAPAU10@ABQAU10@@Z ; std::construct_at<std::_Tree_node<std::pair<int const ,CPythonChat::SChatSet>,void *> *,std::_Tree_node<std::pair<int const ,CPythonChat::SChatSet>,void *> * const &>
PUBLIC	??$forward@ABQAU?$_Tree_node@U?$pair@$$CBHUSChatSet@CPythonChat@@@std@@PAX@std@@@std@@YAABQAU?$_Tree_node@U?$pair@$$CBHUSChatSet@CPythonChat@@@std@@PAX@0@ABQAU10@@Z ; std::forward<std::_Tree_node<std::pair<int const ,CPythonChat::SChatSet>,void *> * const &>
PUBLIC	??$construct_at@PAU?$_Tree_node@U?$pair@$$CBV?$basic_string@DU?$char_traits@D@std@@V?$allocator@D@2@@std@@PAVCWhisper@@@std@@PAX@std@@ABQAU12@@std@@YAPAPAU?$_Tree_node@U?$pair@$$CBV?$basic_string@DU?$char_traits@D@std@@V?$allocator@D@2@@std@@PAVCWhisper@@@std@@PAX@0@QAPAU10@ABQAU10@@Z ; std::construct_at<std::_Tree_node<std::pair<std::basic_string<char,std::char_traits<char>,std::allocator<char> > const ,CWhisper *>,void *> *,std::_Tree_node<std::pair<std::basic_string<char,std::char_traits<char>,std::allocator<char> > const ,CWhisper *>,void *> * const &>
PUBLIC	??$forward@ABQAU?$_Tree_node@U?$pair@$$CBV?$basic_string@DU?$char_traits@D@std@@V?$allocator@D@2@@std@@PAVCWhisper@@@std@@PAX@std@@@std@@YAABQAU?$_Tree_node@U?$pair@$$CBV?$basic_string@DU?$char_traits@D@std@@V?$allocator@D@2@@std@@PAVCWhisper@@@std@@PAX@0@ABQAU10@@Z ; std::forward<std::_Tree_node<std::pair<std::basic_string<char,std::char_traits<char>,std::allocator<char> > const ,CWhisper *>,void *> * const &>
PUBLIC	??$construct_at@PAU?$_Tree_node@U?$pair@$$CBV?$basic_string@DU?$char_traits@D@std@@V?$allocator@D@2@@std@@USEmoticonsRecentChat@CPythonChat@@@std@@PAX@std@@ABQAU12@@std@@YAPAPAU?$_Tree_node@U?$pair@$$CBV?$basic_string@DU?$char_traits@D@std@@V?$allocator@D@2@@std@@USEmoticonsRecentChat@CPythonChat@@@std@@PAX@0@QAPAU10@ABQAU10@@Z ; std::construct_at<std::_Tree_node<std::pair<std::basic_string<char,std::char_traits<char>,std::allocator<char> > const ,CPythonChat::SEmoticonsRecentChat>,void *> *,std::_Tree_node<std::pair<std::basic_string<char,std::char_traits<char>,std::allocator<char> > const ,CPythonChat::SEmoticonsRecentChat>,void *> * const &>
PUBLIC	??$forward@ABQAU?$_Tree_node@U?$pair@$$CBV?$basic_string@DU?$char_traits@D@std@@V?$allocator@D@2@@std@@USEmoticonsRecentChat@CPythonChat@@@std@@PAX@std@@@std@@YAABQAU?$_Tree_node@U?$pair@$$CBV?$basic_string@DU?$char_traits@D@std@@V?$allocator@D@2@@std@@USEmoticonsRecentChat@CPythonChat@@@std@@PAX@0@ABQAU10@@Z ; std::forward<std::_Tree_node<std::pair<std::basic_string<char,std::char_traits<char>,std::allocator<char> > const ,CPythonChat::SEmoticonsRecentChat>,void *> * const &>
PUBLIC	??$_Emplace_back@PAUSChatLine@CPythonChat@@@?$_Uninitialized_backout_al@V?$allocator@PAUSChatLine@CPythonChat@@@std@@@std@@QAEX$$QAPAUSChatLine@CPythonChat@@@Z ; std::_Uninitialized_backout_al<std::allocator<CPythonChat::SChatLine *> >::_Emplace_back<CPythonChat::SChatLine *>
PUBLIC	??$_To_address@PAPAUSChatLine@CPythonChat@@@std@@YA?A_PABQAPAUSChatLine@CPythonChat@@@Z ; std::_To_address<CPythonChat::SChatLine * *>
PUBLIC	??$_Copy_memmove@PAPAUSChatLine@CPythonChat@@PAPAU12@@std@@YAPAPAUSChatLine@CPythonChat@@PAPAU12@00@Z ; std::_Copy_memmove<CPythonChat::SChatLine * *,CPythonChat::SChatLine * *>
PUBLIC	??$_Emplace_back@PAVCWhisper@@@?$_Uninitialized_backout_al@V?$allocator@PAVCWhisper@@@std@@@std@@QAEX$$QAPAVCWhisper@@@Z ; std::_Uninitialized_backout_al<std::allocator<CWhisper *> >::_Emplace_back<CWhisper *>
PUBLIC	??$_To_address@PAPAVCWhisper@@@std@@YA?A_PABQAPAVCWhisper@@@Z ; std::_To_address<CWhisper * *>
PUBLIC	??$_Copy_memmove@PAPAVCWhisper@@PAPAV1@@std@@YAPAPAVCWhisper@@PAPAV1@00@Z ; std::_Copy_memmove<CWhisper * *,CWhisper * *>
PUBLIC	??$move@AAPAVCWhisper@@@std@@YA$$QAPAVCWhisper@@AAPAV1@@Z ; std::move<CWhisper * &>
PUBLIC	??$construct_at@PAVCWhisper@@ABQAV1@@std@@YAPAPAVCWhisper@@QAPAV1@ABQAV1@@Z ; std::construct_at<CWhisper *,CWhisper * const &>
PUBLIC	??$addressof@PAVCWhisper@@@std@@YAPAPAVCWhisper@@AAPAV1@@Z ; std::addressof<CWhisper *>
PUBLIC	??$_Emplace_back@PAUSChatLine@CWhisper@@@?$_Uninitialized_backout_al@V?$allocator@PAUSChatLine@CWhisper@@@std@@@std@@QAEX$$QAPAUSChatLine@CWhisper@@@Z ; std::_Uninitialized_backout_al<std::allocator<CWhisper::SChatLine *> >::_Emplace_back<CWhisper::SChatLine *>
PUBLIC	??$_To_address@PAPAUSChatLine@CWhisper@@@std@@YA?A_PABQAPAUSChatLine@CWhisper@@@Z ; std::_To_address<CWhisper::SChatLine * *>
PUBLIC	??$_Copy_memmove@PAPAUSChatLine@CWhisper@@PAPAU12@@std@@YAPAPAUSChatLine@CWhisper@@PAPAU12@00@Z ; std::_Copy_memmove<CWhisper::SChatLine * *,CWhisper::SChatLine * *>
PUBLIC	??$move@AAPAUSChatLine@CWhisper@@@std@@YA$$QAPAUSChatLine@CWhisper@@AAPAU12@@Z ; std::move<CWhisper::SChatLine * &>
PUBLIC	??$construct@HH@?$_Default_allocator_traits@V?$allocator@H@std@@@std@@SAXAAV?$allocator@H@1@QAH$$QAH@Z ; std::_Default_allocator_traits<std::allocator<int> >::construct<int,int>
PUBLIC	??$_Copy_memmove_tail@PAH@std@@YAPAHQBDQAHII@Z	; std::_Copy_memmove_tail<int *>
PUBLIC	??$move@AAPAH@std@@YA$$QAPAHAAPAH@Z		; std::move<int * &>
PUBLIC	??$construct@USEmoticonsRecentChat@CPythonChat@@U12@@?$_Default_allocator_traits@V?$allocator@USEmoticonsRecentChat@CPythonChat@@@std@@@std@@SAXAAV?$allocator@USEmoticonsRecentChat@CPythonChat@@@1@QAUSEmoticonsRecentChat@CPythonChat@@$$QAU34@@Z ; std::_Default_allocator_traits<std::allocator<CPythonChat::SEmoticonsRecentChat> >::construct<CPythonChat::SEmoticonsRecentChat,CPythonChat::SEmoticonsRecentChat>
PUBLIC	??$forward@USEmoticonsRecentChat@CPythonChat@@@std@@YA$$QAUSEmoticonsRecentChat@CPythonChat@@AAU12@@Z ; std::forward<CPythonChat::SEmoticonsRecentChat>
PUBLIC	??$construct_at@PAU?$_Tree_node@U?$pair@$$CBHUSChatSet@CPythonChat@@@std@@PAX@std@@AAPAU12@@std@@YAPAPAU?$_Tree_node@U?$pair@$$CBHUSChatSet@CPythonChat@@@std@@PAX@0@QAPAU10@AAPAU10@@Z ; std::construct_at<std::_Tree_node<std::pair<int const ,CPythonChat::SChatSet>,void *> *,std::_Tree_node<std::pair<int const ,CPythonChat::SChatSet>,void *> * &>
PUBLIC	??$addressof@PAU?$_Tree_node@U?$pair@$$CBHUSChatSet@CPythonChat@@@std@@PAX@std@@@std@@YAPAPAU?$_Tree_node@U?$pair@$$CBHUSChatSet@CPythonChat@@@std@@PAX@0@AAPAU10@@Z ; std::addressof<std::_Tree_node<std::pair<int const ,CPythonChat::SChatSet>,void *> *>
PUBLIC	??$construct_at@U?$pair@$$CBHUSChatSet@CPythonChat@@@std@@U?$pair@KUSChatSet@CPythonChat@@@2@@std@@YAPAU?$pair@$$CBHUSChatSet@CPythonChat@@@0@QAU10@$$QAU?$pair@KUSChatSet@CPythonChat@@@0@@Z ; std::construct_at<std::pair<int const ,CPythonChat::SChatSet>,std::pair<unsigned long,CPythonChat::SChatSet> >
PUBLIC	??0SWaitChat@CPythonChat@@QAE@ABU01@@Z		; CPythonChat::SWaitChat::SWaitChat
PUBLIC	??_G?$pair@$$CBHUSChatSet@CPythonChat@@@std@@QAEPAXI@Z ; std::pair<int const ,CPythonChat::SChatSet>::`scalar deleting destructor'
PUBLIC	??_G?$pair@$$CBV?$basic_string@DU?$char_traits@D@std@@V?$allocator@D@2@@std@@PAVCWhisper@@@std@@QAEPAXI@Z ; std::pair<std::basic_string<char,std::char_traits<char>,std::allocator<char> > const ,CWhisper *>::`scalar deleting destructor'
PUBLIC	??_G?$pair@$$CBV?$basic_string@DU?$char_traits@D@std@@V?$allocator@D@2@@std@@USEmoticonsRecentChat@CPythonChat@@@std@@QAEPAXI@Z ; std::pair<std::basic_string<char,std::char_traits<char>,std::allocator<char> > const ,CPythonChat::SEmoticonsRecentChat>::`scalar deleting destructor'
PUBLIC	??0?$pair@$$CBV?$basic_string@DU?$char_traits@D@std@@V?$allocator@D@2@@std@@PAVCWhisper@@@std@@QAE@$$QAU01@@Z ; std::pair<std::basic_string<char,std::char_traits<char>,std::allocator<char> > const ,CWhisper *>::pair<std::basic_string<char,std::char_traits<char>,std::allocator<char> > const ,CWhisper *>
PUBLIC	??0SEmoticonsRecentChat@CPythonChat@@QAE@$$QAU01@@Z ; CPythonChat::SEmoticonsRecentChat::SEmoticonsRecentChat
PUBLIC	??0?$pair@$$CBV?$basic_string@DU?$char_traits@D@std@@V?$allocator@D@2@@std@@USEmoticonsRecentChat@CPythonChat@@@std@@QAE@$$QAU01@@Z ; std::pair<std::basic_string<char,std::char_traits<char>,std::allocator<char> > const ,CPythonChat::SEmoticonsRecentChat>::pair<std::basic_string<char,std::char_traits<char>,std::allocator<char> > const ,CPythonChat::SEmoticonsRecentChat>
PUBLIC	?allocate@?$allocator@H@std@@QAEPAHI@Z		; std::allocator<int>::allocate
PUBLIC	?_Getal@?$deque@PAUSChatLine@CWhisper@@V?$allocator@PAUSChatLine@CWhisper@@@std@@@std@@ABEABV?$allocator@PAUSChatLine@CWhisper@@@2@XZ ; std::deque<CWhisper::SChatLine *,std::allocator<CWhisper::SChatLine *> >::_Getal
PUBLIC	?max_size@?$_Default_allocator_traits@V?$allocator@PAUSChatLine@CWhisper@@@std@@@std@@SAIABV?$allocator@PAUSChatLine@CWhisper@@@2@@Z ; std::_Default_allocator_traits<std::allocator<CWhisper::SChatLine *> >::max_size
PUBLIC	?allocate@?$allocator@PAPAUSChatLine@CWhisper@@@std@@QAEPAPAPAUSChatLine@CWhisper@@I@Z ; std::allocator<CWhisper::SChatLine * *>::allocate
PUBLIC	?deallocate@?$allocator@U?$_List_node@PAUSChatLine@CWhisper@@PAX@std@@@std@@QAEXQAU?$_List_node@PAUSChatLine@CWhisper@@PAX@2@I@Z ; std::allocator<std::_List_node<CWhisper::SChatLine *,void *> >::deallocate
PUBLIC	?capacity@?$vector@HV?$allocator@H@std@@@std@@QBEIXZ ; std::vector<int,std::allocator<int> >::capacity
PUBLIC	?_Getal@?$vector@HV?$allocator@H@std@@@std@@ABEABV?$allocator@H@2@XZ ; std::vector<int,std::allocator<int> >::_Getal
PUBLIC	?max_size@?$_Default_allocator_traits@V?$allocator@H@std@@@std@@SAIABV?$allocator@H@2@@Z ; std::_Default_allocator_traits<std::allocator<int> >::max_size
PUBLIC	??0?$_Vector_val@U?$_Simple_types@H@std@@@std@@QAE@PAH00@Z ; std::_Vector_val<std::_Simple_types<int> >::_Vector_val<std::_Simple_types<int> >
PUBLIC	?max_size@?$_Default_allocator_traits@V?$allocator@PAUSChatLine@CPythonChat@@@std@@@std@@SAIABV?$allocator@PAUSChatLine@CPythonChat@@@2@@Z ; std::_Default_allocator_traits<std::allocator<CPythonChat::SChatLine *> >::max_size
PUBLIC	?deallocate@?$allocator@U?$_List_node@PAUSChatLine@CPythonChat@@PAX@std@@@std@@QAEXQAU?$_List_node@PAUSChatLine@CPythonChat@@PAX@2@I@Z ; std::allocator<std::_List_node<CPythonChat::SChatLine *,void *> >::deallocate
PUBLIC	?_Get_first@?$_Compressed_pair@V?$allocator@U?$_List_node@PAUSChatLine@CPythonChat@@PAX@std@@@std@@V?$_List_val@U?$_List_simple_types@PAUSChatLine@CPythonChat@@@std@@@2@$00@std@@QBEABV?$allocator@U?$_List_node@PAUSChatLine@CPythonChat@@PAX@std@@@2@XZ ; std::_Compressed_pair<std::allocator<std::_List_node<CPythonChat::SChatLine *,void *> >,std::_List_val<std::_List_simple_types<CPythonChat::SChatLine *> >,1>::_Get_first
PUBLIC	?allocate@?$allocator@USEmoticonsRecentChat@CPythonChat@@@std@@QAEPAUSEmoticonsRecentChat@CPythonChat@@I@Z ; std::allocator<CPythonChat::SEmoticonsRecentChat>::allocate
PUBLIC	?capacity@?$vector@USEmoticonsRecentChat@CPythonChat@@V?$allocator@USEmoticonsRecentChat@CPythonChat@@@std@@@std@@QBEIXZ ; std::vector<CPythonChat::SEmoticonsRecentChat,std::allocator<CPythonChat::SEmoticonsRecentChat> >::capacity
PUBLIC	?_Getal@?$vector@USEmoticonsRecentChat@CPythonChat@@V?$allocator@USEmoticonsRecentChat@CPythonChat@@@std@@@std@@ABEABV?$allocator@USEmoticonsRecentChat@CPythonChat@@@2@XZ ; std::vector<CPythonChat::SEmoticonsRecentChat,std::allocator<CPythonChat::SEmoticonsRecentChat> >::_Getal
PUBLIC	?allocate@?$allocator@PAPAUSChatLine@CPythonChat@@@std@@QAEPAPAPAUSChatLine@CPythonChat@@I@Z ; std::allocator<CPythonChat::SChatLine * *>::allocate
PUBLIC	?max_size@?$_Tree@V?$_Tmap_traits@HUSChatSet@CPythonChat@@U?$less@H@std@@V?$allocator@U?$pair@$$CBHUSChatSet@CPythonChat@@@std@@@4@$0A@@std@@@std@@QBEIXZ ; std::_Tree<std::_Tmap_traits<int,CPythonChat::SChatSet,std::less<int>,std::allocator<std::pair<int const ,CPythonChat::SChatSet> >,0> >::max_size
PUBLIC	??0?$allocator@U?$_Tree_node@U?$pair@$$CBHUSChatSet@CPythonChat@@@std@@PAX@std@@@std@@QAE@XZ ; std::allocator<std::_Tree_node<std::pair<int const ,CPythonChat::SChatSet>,void *> >::allocator<std::_Tree_node<std::pair<int const ,CPythonChat::SChatSet>,void *> >
PUBLIC	?deallocate@?$allocator@U?$_Tree_node@U?$pair@$$CBHUSChatSet@CPythonChat@@@std@@PAX@std@@@std@@QAEXQAU?$_Tree_node@U?$pair@$$CBHUSChatSet@CPythonChat@@@std@@PAX@2@I@Z ; std::allocator<std::_Tree_node<std::pair<int const ,CPythonChat::SChatSet>,void *> >::deallocate
PUBLIC	?allocate@?$allocator@U?$_Tree_node@U?$pair@$$CBHUSChatSet@CPythonChat@@@std@@PAX@std@@@std@@QAEPAU?$_Tree_node@U?$pair@$$CBHUSChatSet@CPythonChat@@@std@@PAX@2@I@Z ; std::allocator<std::_Tree_node<std::pair<int const ,CPythonChat::SChatSet>,void *> >::allocate
PUBLIC	??0?$_Tree_val@U?$_Tree_simple_types@U?$pair@$$CBHUSChatSet@CPythonChat@@@std@@@std@@@std@@QAE@XZ ; std::_Tree_val<std::_Tree_simple_types<std::pair<int const ,CPythonChat::SChatSet> > >::_Tree_val<std::_Tree_simple_types<std::pair<int const ,CPythonChat::SChatSet> > >
PUBLIC	?_Lrotate@?$_Tree_val@U?$_Tree_simple_types@U?$pair@$$CBHUSChatSet@CPythonChat@@@std@@@std@@@std@@QAEXPAU?$_Tree_node@U?$pair@$$CBHUSChatSet@CPythonChat@@@std@@PAX@2@@Z ; std::_Tree_val<std::_Tree_simple_types<std::pair<int const ,CPythonChat::SChatSet> > >::_Lrotate
PUBLIC	?_Rrotate@?$_Tree_val@U?$_Tree_simple_types@U?$pair@$$CBHUSChatSet@CPythonChat@@@std@@@std@@@std@@QAEXPAU?$_Tree_node@U?$pair@$$CBHUSChatSet@CPythonChat@@@std@@PAX@2@@Z ; std::_Tree_val<std::_Tree_simple_types<std::pair<int const ,CPythonChat::SChatSet> > >::_Rrotate
PUBLIC	?_Get_first@?$_Compressed_pair@U?$less@H@std@@V?$_Compressed_pair@V?$allocator@U?$_Tree_node@U?$pair@$$CBHUSChatSet@CPythonChat@@@std@@PAX@std@@@std@@V?$_Tree_val@U?$_Tree_simple_types@U?$pair@$$CBHUSChatSet@CPythonChat@@@std@@@std@@@2@$00@2@$00@std@@QBEABU?$less@H@2@XZ ; std::_Compressed_pair<std::less<int>,std::_Compressed_pair<std::allocator<std::_Tree_node<std::pair<int const ,CPythonChat::SChatSet>,void *> >,std::_Tree_val<std::_Tree_simple_types<std::pair<int const ,CPythonChat::SChatSet> > >,1>,1>::_Get_first
PUBLIC	?_Getal@?$_Tree@V?$_Tmap_traits@V?$basic_string@DU?$char_traits@D@std@@V?$allocator@D@2@@std@@PAVCWhisper@@U?$less@V?$basic_string@DU?$char_traits@D@std@@V?$allocator@D@2@@std@@@2@V?$allocator@U?$pair@$$CBV?$basic_string@DU?$char_traits@D@std@@V?$allocator@D@2@@std@@PAVCWhisper@@@std@@@2@$0A@@std@@@std@@IBEABV?$allocator@U?$_Tree_node@U?$pair@$$CBV?$basic_string@DU?$char_traits@D@std@@V?$allocator@D@2@@std@@PAVCWhisper@@@std@@PAX@std@@@2@XZ ; std::_Tree<std::_Tmap_traits<std::basic_string<char,std::char_traits<char>,std::allocator<char> >,CWhisper *,std::less<std::basic_string<char,std::char_traits<char>,std::allocator<char> > >,std::allocator<std::pair<std::basic_string<char,std::char_traits<char>,std::allocator<char> > const ,CWhisper *> >,0> >::_Getal
PUBLIC	??0?$allocator@U?$_Tree_node@U?$pair@$$CBV?$basic_string@DU?$char_traits@D@std@@V?$allocator@D@2@@std@@PAVCWhisper@@@std@@PAX@std@@@std@@QAE@XZ ; std::allocator<std::_Tree_node<std::pair<std::basic_string<char,std::char_traits<char>,std::allocator<char> > const ,CWhisper *>,void *> >::allocator<std::_Tree_node<std::pair<std::basic_string<char,std::char_traits<char>,std::allocator<char> > const ,CWhisper *>,void *> >
PUBLIC	?deallocate@?$allocator@U?$_Tree_node@U?$pair@$$CBV?$basic_string@DU?$char_traits@D@std@@V?$allocator@D@2@@std@@PAVCWhisper@@@std@@PAX@std@@@std@@QAEXQAU?$_Tree_node@U?$pair@$$CBV?$basic_string@DU?$char_traits@D@std@@V?$allocator@D@2@@std@@PAVCWhisper@@@std@@PAX@2@I@Z ; std::allocator<std::_Tree_node<std::pair<std::basic_string<char,std::char_traits<char>,std::allocator<char> > const ,CWhisper *>,void *> >::deallocate
PUBLIC	?allocate@?$allocator@U?$_Tree_node@U?$pair@$$CBV?$basic_string@DU?$char_traits@D@std@@V?$allocator@D@2@@std@@PAVCWhisper@@@std@@PAX@std@@@std@@QAEPAU?$_Tree_node@U?$pair@$$CBV?$basic_string@DU?$char_traits@D@std@@V?$allocator@D@2@@std@@PAVCWhisper@@@std@@PAX@2@I@Z ; std::allocator<std::_Tree_node<std::pair<std::basic_string<char,std::char_traits<char>,std::allocator<char> > const ,CWhisper *>,void *> >::allocate
PUBLIC	?max_size@?$_Default_allocator_traits@V?$allocator@U?$_Tree_node@U?$pair@$$CBV?$basic_string@DU?$char_traits@D@std@@V?$allocator@D@2@@std@@PAVCWhisper@@@std@@PAX@std@@@std@@@std@@SAIABV?$allocator@U?$_Tree_node@U?$pair@$$CBV?$basic_string@DU?$char_traits@D@std@@V?$allocator@D@2@@std@@PAVCWhisper@@@std@@PAX@std@@@2@@Z ; std::_Default_allocator_traits<std::allocator<std::_Tree_node<std::pair<std::basic_string<char,std::char_traits<char>,std::allocator<char> > const ,CWhisper *>,void *> > >::max_size
PUBLIC	??0?$_Tree_val@U?$_Tree_simple_types@U?$pair@$$CBV?$basic_string@DU?$char_traits@D@std@@V?$allocator@D@2@@std@@PAVCWhisper@@@std@@@std@@@std@@QAE@XZ ; std::_Tree_val<std::_Tree_simple_types<std::pair<std::basic_string<char,std::char_traits<char>,std::allocator<char> > const ,CWhisper *> > >::_Tree_val<std::_Tree_simple_types<std::pair<std::basic_string<char,std::char_traits<char>,std::allocator<char> > const ,CWhisper *> > >
PUBLIC	?_Get_first@?$_Compressed_pair@U?$less@V?$basic_string@DU?$char_traits@D@std@@V?$allocator@D@2@@std@@@std@@V?$_Compressed_pair@V?$allocator@U?$_Tree_node@U?$pair@$$CBV?$basic_string@DU?$char_traits@D@std@@V?$allocator@D@2@@std@@PAVCWhisper@@@std@@PAX@std@@@std@@V?$_Tree_val@U?$_Tree_simple_types@U?$pair@$$CBV?$basic_string@DU?$char_traits@D@std@@V?$allocator@D@2@@std@@PAVCWhisper@@@std@@@std@@@2@$00@2@$00@std@@QBEABU?$less@V?$basic_string@DU?$char_traits@D@std@@V?$allocator@D@2@@std@@@2@XZ ; std::_Compressed_pair<std::less<std::basic_string<char,std::char_traits<char>,std::allocator<char> > >,std::_Compressed_pair<std::allocator<std::_Tree_node<std::pair<std::basic_string<char,std::char_traits<char>,std::allocator<char> > const ,CWhisper *>,void *> >,std::_Tree_val<std::_Tree_simple_types<std::pair<std::basic_string<char,std::char_traits<char>,std::allocator<char> > const ,CWhisper *> > >,1>,1>::_Get_first
PUBLIC	?deallocate@?$allocator@U?$_List_node@USWaitChat@CPythonChat@@PAX@std@@@std@@QAEXQAU?$_List_node@USWaitChat@CPythonChat@@PAX@2@I@Z ; std::allocator<std::_List_node<CPythonChat::SWaitChat,void *> >::deallocate
PUBLIC	?_Get_first@?$_Compressed_pair@V?$allocator@U?$_List_node@USWaitChat@CPythonChat@@PAX@std@@@std@@V?$_List_val@U?$_List_simple_types@USWaitChat@CPythonChat@@@std@@@2@$00@std@@QBEABV?$allocator@U?$_List_node@USWaitChat@CPythonChat@@PAX@std@@@2@XZ ; std::_Compressed_pair<std::allocator<std::_List_node<CPythonChat::SWaitChat,void *> >,std::_List_val<std::_List_simple_types<CPythonChat::SWaitChat> >,1>::_Get_first
PUBLIC	?_Getal@?$_Tree@V?$_Tmap_traits@V?$basic_string@DU?$char_traits@D@std@@V?$allocator@D@2@@std@@USEmoticonsRecentChat@CPythonChat@@U?$less@V?$basic_string@DU?$char_traits@D@std@@V?$allocator@D@2@@std@@@2@V?$allocator@U?$pair@$$CBV?$basic_string@DU?$char_traits@D@std@@V?$allocator@D@2@@std@@USEmoticonsRecentChat@CPythonChat@@@std@@@2@$0A@@std@@@std@@IBEABV?$allocator@U?$_Tree_node@U?$pair@$$CBV?$basic_string@DU?$char_traits@D@std@@V?$allocator@D@2@@std@@USEmoticonsRecentChat@CPythonChat@@@std@@PAX@std@@@2@XZ ; std::_Tree<std::_Tmap_traits<std::basic_string<char,std::char_traits<char>,std::allocator<char> >,CPythonChat::SEmoticonsRecentChat,std::less<std::basic_string<char,std::char_traits<char>,std::allocator<char> > >,std::allocator<std::pair<std::basic_string<char,std::char_traits<char>,std::allocator<char> > const ,CPythonChat::SEmoticonsRecentChat> >,0> >::_Getal
PUBLIC	??0?$allocator@U?$_Tree_node@U?$pair@$$CBV?$basic_string@DU?$char_traits@D@std@@V?$allocator@D@2@@std@@USEmoticonsRecentChat@CPythonChat@@@std@@PAX@std@@@std@@QAE@XZ ; std::allocator<std::_Tree_node<std::pair<std::basic_string<char,std::char_traits<char>,std::allocator<char> > const ,CPythonChat::SEmoticonsRecentChat>,void *> >::allocator<std::_Tree_node<std::pair<std::basic_string<char,std::char_traits<char>,std::allocator<char> > const ,CPythonChat::SEmoticonsRecentChat>,void *> >
PUBLIC	?deallocate@?$allocator@U?$_Tree_node@U?$pair@$$CBV?$basic_string@DU?$char_traits@D@std@@V?$allocator@D@2@@std@@USEmoticonsRecentChat@CPythonChat@@@std@@PAX@std@@@std@@QAEXQAU?$_Tree_node@U?$pair@$$CBV?$basic_string@DU?$char_traits@D@std@@V?$allocator@D@2@@std@@USEmoticonsRecentChat@CPythonChat@@@std@@PAX@2@I@Z ; std::allocator<std::_Tree_node<std::pair<std::basic_string<char,std::char_traits<char>,std::allocator<char> > const ,CPythonChat::SEmoticonsRecentChat>,void *> >::deallocate
PUBLIC	?allocate@?$allocator@U?$_Tree_node@U?$pair@$$CBV?$basic_string@DU?$char_traits@D@std@@V?$allocator@D@2@@std@@USEmoticonsRecentChat@CPythonChat@@@std@@PAX@std@@@std@@QAEPAU?$_Tree_node@U?$pair@$$CBV?$basic_string@DU?$char_traits@D@std@@V?$allocator@D@2@@std@@USEmoticonsRecentChat@CPythonChat@@@std@@PAX@2@I@Z ; std::allocator<std::_Tree_node<std::pair<std::basic_string<char,std::char_traits<char>,std::allocator<char> > const ,CPythonChat::SEmoticonsRecentChat>,void *> >::allocate
PUBLIC	?max_size@?$_Default_allocator_traits@V?$allocator@U?$_Tree_node@U?$pair@$$CBV?$basic_string@DU?$char_traits@D@std@@V?$allocator@D@2@@std@@USEmoticonsRecentChat@CPythonChat@@@std@@PAX@std@@@std@@@std@@SAIABV?$allocator@U?$_Tree_node@U?$pair@$$CBV?$basic_string@DU?$char_traits@D@std@@V?$allocator@D@2@@std@@USEmoticonsRecentChat@CPythonChat@@@std@@PAX@std@@@2@@Z ; std::_Default_allocator_traits<std::allocator<std::_Tree_node<std::pair<std::basic_string<char,std::char_traits<char>,std::allocator<char> > const ,CPythonChat::SEmoticonsRecentChat>,void *> > >::max_size
PUBLIC	??0?$_Tree_val@U?$_Tree_simple_types@U?$pair@$$CBV?$basic_string@DU?$char_traits@D@std@@V?$allocator@D@2@@std@@USEmoticonsRecentChat@CPythonChat@@@std@@@std@@@std@@QAE@XZ ; std::_Tree_val<std::_Tree_simple_types<std::pair<std::basic_string<char,std::char_traits<char>,std::allocator<char> > const ,CPythonChat::SEmoticonsRecentChat> > >::_Tree_val<std::_Tree_simple_types<std::pair<std::basic_string<char,std::char_traits<char>,std::allocator<char> > const ,CPythonChat::SEmoticonsRecentChat> > >
PUBLIC	?_Get_first@?$_Compressed_pair@U?$less@V?$basic_string@DU?$char_traits@D@std@@V?$allocator@D@2@@std@@@std@@V?$_Compressed_pair@V?$allocator@U?$_Tree_node@U?$pair@$$CBV?$basic_string@DU?$char_traits@D@std@@V?$allocator@D@2@@std@@USEmoticonsRecentChat@CPythonChat@@@std@@PAX@std@@@std@@V?$_Tree_val@U?$_Tree_simple_types@U?$pair@$$CBV?$basic_string@DU?$char_traits@D@std@@V?$allocator@D@2@@std@@USEmoticonsRecentChat@CPythonChat@@@std@@@std@@@2@$00@2@$00@std@@QBEABU?$less@V?$basic_string@DU?$char_traits@D@std@@V?$allocator@D@2@@std@@@2@XZ ; std::_Compressed_pair<std::less<std::basic_string<char,std::char_traits<char>,std::allocator<char> > >,std::_Compressed_pair<std::allocator<std::_Tree_node<std::pair<std::basic_string<char,std::char_traits<char>,std::allocator<char> > const ,CPythonChat::SEmoticonsRecentChat>,void *> >,std::_Tree_val<std::_Tree_simple_types<std::pair<std::basic_string<char,std::char_traits<char>,std::allocator<char> > const ,CPythonChat::SEmoticonsRecentChat> > >,1>,1>::_Get_first
PUBLIC	?max_size@?$_Default_allocator_traits@V?$allocator@USEmoticonsRecentChat@CPythonChat@@@std@@@std@@SAIABV?$allocator@USEmoticonsRecentChat@CPythonChat@@@2@@Z ; std::_Default_allocator_traits<std::allocator<CPythonChat::SEmoticonsRecentChat> >::max_size
PUBLIC	?max_size@?$vector@PAUSChatLine@CPythonChat@@V?$allocator@PAUSChatLine@CPythonChat@@@std@@@std@@QBEIXZ ; std::vector<CPythonChat::SChatLine *,std::allocator<CPythonChat::SChatLine *> >::max_size
PUBLIC	?_Calculate_growth@?$vector@PAUSChatLine@CPythonChat@@V?$allocator@PAUSChatLine@CPythonChat@@@std@@@std@@ABEII@Z ; std::vector<CPythonChat::SChatLine *,std::allocator<CPythonChat::SChatLine *> >::_Calculate_growth
PUBLIC	?_Change_array@?$vector@PAUSChatLine@CPythonChat@@V?$allocator@PAUSChatLine@CPythonChat@@@std@@@std@@AAEXQAPAUSChatLine@CPythonChat@@II@Z ; std::vector<CPythonChat::SChatLine *,std::allocator<CPythonChat::SChatLine *> >::_Change_array
PUBLIC	?_Xlength@?$vector@PAUSChatLine@CPythonChat@@V?$allocator@PAUSChatLine@CPythonChat@@@std@@@std@@CAXXZ ; std::vector<CPythonChat::SChatLine *,std::allocator<CPythonChat::SChatLine *> >::_Xlength
PUBLIC	??1_Reallocation_guard@?$vector@PAUSChatLine@CPythonChat@@V?$allocator@PAUSChatLine@CPythonChat@@@std@@@std@@QAE@XZ ; std::vector<CPythonChat::SChatLine *,std::allocator<CPythonChat::SChatLine *> >::_Reallocation_guard::~_Reallocation_guard
PUBLIC	?max_size@?$vector@PAVCWhisper@@V?$allocator@PAVCWhisper@@@std@@@std@@QBEIXZ ; std::vector<CWhisper *,std::allocator<CWhisper *> >::max_size
PUBLIC	?_Calculate_growth@?$vector@PAVCWhisper@@V?$allocator@PAVCWhisper@@@std@@@std@@ABEII@Z ; std::vector<CWhisper *,std::allocator<CWhisper *> >::_Calculate_growth
PUBLIC	?_Change_array@?$vector@PAVCWhisper@@V?$allocator@PAVCWhisper@@@std@@@std@@AAEXQAPAVCWhisper@@II@Z ; std::vector<CWhisper *,std::allocator<CWhisper *> >::_Change_array
PUBLIC	?_Xlength@?$vector@PAVCWhisper@@V?$allocator@PAVCWhisper@@@std@@@std@@CAXXZ ; std::vector<CWhisper *,std::allocator<CWhisper *> >::_Xlength
PUBLIC	??1_Reallocation_guard@?$vector@PAVCWhisper@@V?$allocator@PAVCWhisper@@@std@@@std@@QAE@XZ ; std::vector<CWhisper *,std::allocator<CWhisper *> >::_Reallocation_guard::~_Reallocation_guard
PUBLIC	?max_size@?$vector@PAUSChatLine@CWhisper@@V?$allocator@PAUSChatLine@CWhisper@@@std@@@std@@QBEIXZ ; std::vector<CWhisper::SChatLine *,std::allocator<CWhisper::SChatLine *> >::max_size
PUBLIC	?_Calculate_growth@?$vector@PAUSChatLine@CWhisper@@V?$allocator@PAUSChatLine@CWhisper@@@std@@@std@@ABEII@Z ; std::vector<CWhisper::SChatLine *,std::allocator<CWhisper::SChatLine *> >::_Calculate_growth
PUBLIC	?_Change_array@?$vector@PAUSChatLine@CWhisper@@V?$allocator@PAUSChatLine@CWhisper@@@std@@@std@@AAEXQAPAUSChatLine@CWhisper@@II@Z ; std::vector<CWhisper::SChatLine *,std::allocator<CWhisper::SChatLine *> >::_Change_array
PUBLIC	?_Xlength@?$vector@PAUSChatLine@CWhisper@@V?$allocator@PAUSChatLine@CWhisper@@@std@@@std@@CAXXZ ; std::vector<CWhisper::SChatLine *,std::allocator<CWhisper::SChatLine *> >::_Xlength
PUBLIC	??1_Reallocation_guard@?$vector@PAUSChatLine@CWhisper@@V?$allocator@PAUSChatLine@CWhisper@@@std@@@std@@QAE@XZ ; std::vector<CWhisper::SChatLine *,std::allocator<CWhisper::SChatLine *> >::_Reallocation_guard::~_Reallocation_guard
PUBLIC	??0?$_Alloc_construct_ptr@V?$allocator@U?$_Tree_node@U?$pair@$$CBV?$basic_string@DU?$char_traits@D@std@@V?$allocator@D@2@@std@@USEmoticonsRecentChat@CPythonChat@@@std@@PAX@std@@@std@@@std@@QAE@AAV?$allocator@U?$_Tree_node@U?$pair@$$CBV?$basic_string@DU?$char_traits@D@std@@V?$allocator@D@2@@std@@USEmoticonsRecentChat@CPythonChat@@@std@@PAX@std@@@1@@Z ; std::_Alloc_construct_ptr<std::allocator<std::_Tree_node<std::pair<std::basic_string<char,std::char_traits<char>,std::allocator<char> > const ,CPythonChat::SEmoticonsRecentChat>,void *> > >::_Alloc_construct_ptr<std::allocator<std::_Tree_node<std::pair<std::basic_string<char,std::char_traits<char>,std::allocator<char> > const ,CPythonChat::SEmoticonsRecentChat>,void *> > >
PUBLIC	?_Allocate@?$_Alloc_construct_ptr@V?$allocator@U?$_Tree_node@U?$pair@$$CBV?$basic_string@DU?$char_traits@D@std@@V?$allocator@D@2@@std@@USEmoticonsRecentChat@CPythonChat@@@std@@PAX@std@@@std@@@std@@QAEXXZ ; std::_Alloc_construct_ptr<std::allocator<std::_Tree_node<std::pair<std::basic_string<char,std::char_traits<char>,std::allocator<char> > const ,CPythonChat::SEmoticonsRecentChat>,void *> > >::_Allocate
PUBLIC	??0?$_Alloc_construct_ptr@V?$allocator@U?$_Tree_node@U?$pair@$$CBV?$basic_string@DU?$char_traits@D@std@@V?$allocator@D@2@@std@@PAVCWhisper@@@std@@PAX@std@@@std@@@std@@QAE@AAV?$allocator@U?$_Tree_node@U?$pair@$$CBV?$basic_string@DU?$char_traits@D@std@@V?$allocator@D@2@@std@@PAVCWhisper@@@std@@PAX@std@@@1@@Z ; std::_Alloc_construct_ptr<std::allocator<std::_Tree_node<std::pair<std::basic_string<char,std::char_traits<char>,std::allocator<char> > const ,CWhisper *>,void *> > >::_Alloc_construct_ptr<std::allocator<std::_Tree_node<std::pair<std::basic_string<char,std::char_traits<char>,std::allocator<char> > const ,CWhisper *>,void *> > >
PUBLIC	?_Allocate@?$_Alloc_construct_ptr@V?$allocator@U?$_Tree_node@U?$pair@$$CBV?$basic_string@DU?$char_traits@D@std@@V?$allocator@D@2@@std@@PAVCWhisper@@@std@@PAX@std@@@std@@@std@@QAEXXZ ; std::_Alloc_construct_ptr<std::allocator<std::_Tree_node<std::pair<std::basic_string<char,std::char_traits<char>,std::allocator<char> > const ,CWhisper *>,void *> > >::_Allocate
PUBLIC	??0?$_Tree_temp_node_alloc@V?$allocator@U?$_Tree_node@U?$pair@$$CBHUSChatSet@CPythonChat@@@std@@PAX@std@@@std@@@std@@QAE@AAV?$allocator@U?$_Tree_node@U?$pair@$$CBHUSChatSet@CPythonChat@@@std@@PAX@std@@@1@@Z ; std::_Tree_temp_node_alloc<std::allocator<std::_Tree_node<std::pair<int const ,CPythonChat::SChatSet>,void *> > >::_Tree_temp_node_alloc<std::allocator<std::_Tree_node<std::pair<int const ,CPythonChat::SChatSet>,void *> > >
PUBLIC	??1?$_Alloc_construct_ptr@V?$allocator@U?$_Tree_node@U?$pair@$$CBHUSChatSet@CPythonChat@@@std@@PAX@std@@@std@@@std@@QAE@XZ ; std::_Alloc_construct_ptr<std::allocator<std::_Tree_node<std::pair<int const ,CPythonChat::SChatSet>,void *> > >::~_Alloc_construct_ptr<std::allocator<std::_Tree_node<std::pair<int const ,CPythonChat::SChatSet>,void *> > >
PUBLIC	??0?$_Uninitialized_backout_al@V?$allocator@USEmoticonsRecentChat@CPythonChat@@@std@@@std@@QAE@PAUSEmoticonsRecentChat@CPythonChat@@AAV?$allocator@USEmoticonsRecentChat@CPythonChat@@@1@@Z ; std::_Uninitialized_backout_al<std::allocator<CPythonChat::SEmoticonsRecentChat> >::_Uninitialized_backout_al<std::allocator<CPythonChat::SEmoticonsRecentChat> >
PUBLIC	??1?$_Uninitialized_backout_al@V?$allocator@USEmoticonsRecentChat@CPythonChat@@@std@@@std@@QAE@XZ ; std::_Uninitialized_backout_al<std::allocator<CPythonChat::SEmoticonsRecentChat> >::~_Uninitialized_backout_al<std::allocator<CPythonChat::SEmoticonsRecentChat> >
PUBLIC	?_Release@?$_Uninitialized_backout_al@V?$allocator@USEmoticonsRecentChat@CPythonChat@@@std@@@std@@QAEPAUSEmoticonsRecentChat@CPythonChat@@XZ ; std::_Uninitialized_backout_al<std::allocator<CPythonChat::SEmoticonsRecentChat> >::_Release
PUBLIC	??$swap@PAU?$_List_node@PAUSChatLine@CPythonChat@@PAX@std@@$0A@@std@@YAXAAPAU?$_List_node@PAUSChatLine@CPythonChat@@PAX@0@0@Z ; std::swap<std::_List_node<CPythonChat::SChatLine *,void *> *,0>
PUBLIC	??$exchange@PAU?$_Tree_node@U?$pair@$$CBHUSChatSet@CPythonChat@@@std@@PAX@std@@$$T@std@@YAPAU?$_Tree_node@U?$pair@$$CBHUSChatSet@CPythonChat@@@std@@PAX@0@AAPAU10@$$QA$$T@Z ; std::exchange<std::_Tree_node<std::pair<int const ,CPythonChat::SChatSet>,void *> *,std::nullptr_t>
PUBLIC	??$_To_address@PAPAPAUSChatLine@CWhisper@@@std@@YA?A_PABQAPAPAUSChatLine@CWhisper@@@Z ; std::_To_address<CWhisper::SChatLine * * *>
PUBLIC	??$_Zero_range@PAPAPAUSChatLine@CWhisper@@@std@@YAPAPAPAUSChatLine@CWhisper@@QAPAPAU12@0@Z ; std::_Zero_range<CWhisper::SChatLine * * *>
PUBLIC	??$_Seek_wrapped@PAPAPAUSChatLine@CWhisper@@PAPAPAU12@@std@@YAXAAPAPAPAUSChatLine@CWhisper@@$$QAPAPAPAU12@@Z ; std::_Seek_wrapped<CWhisper::SChatLine * * *,CWhisper::SChatLine * * *>
PUBLIC	??$_Uninitialized_copy_unchecked@PAPAPAUSChatLine@CWhisper@@PAPAPAU12@@std@@YAPAPAPAUSChatLine@CWhisper@@PAPAPAU12@QAPAPAU12@0@Z ; std::_Uninitialized_copy_unchecked<CWhisper::SChatLine * * *,CWhisper::SChatLine * * *>
PUBLIC	??$_Adl_verify_range@PAPAPAUSChatLine@CWhisper@@PAPAPAU12@@std@@YAXABQAPAPAUSChatLine@CWhisper@@0@Z ; std::_Adl_verify_range<CWhisper::SChatLine * * *,CWhisper::SChatLine * * *>
PUBLIC	??$_To_address@PAPAPAUSChatLine@CPythonChat@@@std@@YA?A_PABQAPAPAUSChatLine@CPythonChat@@@Z ; std::_To_address<CPythonChat::SChatLine * * *>
PUBLIC	??$_Zero_range@PAPAPAUSChatLine@CPythonChat@@@std@@YAPAPAPAUSChatLine@CPythonChat@@QAPAPAU12@0@Z ; std::_Zero_range<CPythonChat::SChatLine * * *>
PUBLIC	??$_Seek_wrapped@PAPAPAUSChatLine@CPythonChat@@PAPAPAU12@@std@@YAXAAPAPAPAUSChatLine@CPythonChat@@$$QAPAPAPAU12@@Z ; std::_Seek_wrapped<CPythonChat::SChatLine * * *,CPythonChat::SChatLine * * *>
PUBLIC	??$_Uninitialized_copy_unchecked@PAPAPAUSChatLine@CPythonChat@@PAPAPAU12@@std@@YAPAPAPAUSChatLine@CPythonChat@@PAPAPAU12@QAPAPAU12@0@Z ; std::_Uninitialized_copy_unchecked<CPythonChat::SChatLine * * *,CPythonChat::SChatLine * * *>
PUBLIC	??$_Adl_verify_range@PAPAPAUSChatLine@CPythonChat@@PAPAPAU12@@std@@YAXABQAPAPAUSChatLine@CPythonChat@@0@Z ; std::_Adl_verify_range<CPythonChat::SChatLine * * *,CPythonChat::SChatLine * * *>
PUBLIC	??$forward@V?$allocator@U?$_List_node@PAUSChatLine@CPythonChat@@PAX@std@@@std@@@std@@YA$$QAV?$allocator@U?$_List_node@PAUSChatLine@CPythonChat@@PAX@std@@@0@AAV10@@Z ; std::forward<std::allocator<std::_List_node<CPythonChat::SChatLine *,void *> > >
PUBLIC	??$forward@PAH@std@@YA$$QAPAHAAPAH@Z		; std::forward<int *>
PUBLIC	??$forward@V?$allocator@H@std@@@std@@YA$$QAV?$allocator@H@0@AAV10@@Z ; std::forward<std::allocator<int> >
PUBLIC	??$_Construct_in_place@PAU?$_Tree_node@U?$pair@$$CBHUSChatSet@CPythonChat@@@std@@PAX@std@@ABQAU12@@std@@YAXAAPAU?$_Tree_node@U?$pair@$$CBHUSChatSet@CPythonChat@@@std@@PAX@0@ABQAU10@@Z ; std::_Construct_in_place<std::_Tree_node<std::pair<int const ,CPythonChat::SChatSet>,void *> *,std::_Tree_node<std::pair<int const ,CPythonChat::SChatSet>,void *> * const &>
PUBLIC	??$_Construct_in_place@PAU?$_Tree_node@U?$pair@$$CBV?$basic_string@DU?$char_traits@D@std@@V?$allocator@D@2@@std@@PAVCWhisper@@@std@@PAX@std@@ABQAU12@@std@@YAXAAPAU?$_Tree_node@U?$pair@$$CBV?$basic_string@DU?$char_traits@D@std@@V?$allocator@D@2@@std@@PAVCWhisper@@@std@@PAX@0@ABQAU10@@Z ; std::_Construct_in_place<std::_Tree_node<std::pair<std::basic_string<char,std::char_traits<char>,std::allocator<char> > const ,CWhisper *>,void *> *,std::_Tree_node<std::pair<std::basic_string<char,std::char_traits<char>,std::allocator<char> > const ,CWhisper *>,void *> * const &>
PUBLIC	??$_Construct_in_place@PAU?$_Tree_node@U?$pair@$$CBV?$basic_string@DU?$char_traits@D@std@@V?$allocator@D@2@@std@@USEmoticonsRecentChat@CPythonChat@@@std@@PAX@std@@ABQAU12@@std@@YAXAAPAU?$_Tree_node@U?$pair@$$CBV?$basic_string@DU?$char_traits@D@std@@V?$allocator@D@2@@std@@USEmoticonsRecentChat@CPythonChat@@@std@@PAX@0@ABQAU10@@Z ; std::_Construct_in_place<std::_Tree_node<std::pair<std::basic_string<char,std::char_traits<char>,std::allocator<char> > const ,CPythonChat::SEmoticonsRecentChat>,void *> *,std::_Tree_node<std::pair<std::basic_string<char,std::char_traits<char>,std::allocator<char> > const ,CPythonChat::SEmoticonsRecentChat>,void *> * const &>
PUBLIC	??$construct_at@PAU?$_List_node@PAUSChatLine@CPythonChat@@PAX@std@@ABQAU12@@std@@YAPAPAU?$_List_node@PAUSChatLine@CPythonChat@@PAX@0@QAPAU10@ABQAU10@@Z ; std::construct_at<std::_List_node<CPythonChat::SChatLine *,void *> *,std::_List_node<CPythonChat::SChatLine *,void *> * const &>
PUBLIC	??$forward@ABQAU?$_List_node@PAUSChatLine@CPythonChat@@PAX@std@@@std@@YAABQAU?$_List_node@PAUSChatLine@CPythonChat@@PAX@0@ABQAU10@@Z ; std::forward<std::_List_node<CPythonChat::SChatLine *,void *> * const &>
PUBLIC	??$construct_at@PAU?$_List_node@USWaitChat@CPythonChat@@PAX@std@@ABQAU12@@std@@YAPAPAU?$_List_node@USWaitChat@CPythonChat@@PAX@0@QAPAU10@ABQAU10@@Z ; std::construct_at<std::_List_node<CPythonChat::SWaitChat,void *> *,std::_List_node<CPythonChat::SWaitChat,void *> * const &>
PUBLIC	??$forward@ABQAU?$_List_node@USWaitChat@CPythonChat@@PAX@std@@@std@@YAABQAU?$_List_node@USWaitChat@CPythonChat@@PAX@0@ABQAU10@@Z ; std::forward<std::_List_node<CPythonChat::SWaitChat,void *> * const &>
PUBLIC	??$_Uninitialized_move@PAPAUSChatLine@CPythonChat@@V?$allocator@PAUSChatLine@CPythonChat@@@std@@@std@@YAPAPAUSChatLine@CPythonChat@@QAPAU12@0PAPAU12@AAV?$allocator@PAUSChatLine@CPythonChat@@@0@@Z ; std::_Uninitialized_move<CPythonChat::SChatLine * *,std::allocator<CPythonChat::SChatLine *> >
PUBLIC	??$_Get_unwrapped@ABQAPAUSChatLine@CPythonChat@@@std@@YA?A_TABQAPAUSChatLine@CPythonChat@@@Z ; std::_Get_unwrapped<CPythonChat::SChatLine * * const &>
PUBLIC	??$_Allocate_at_least_helper@V?$allocator@PAUSChatLine@CPythonChat@@@std@@@std@@YAPAPAUSChatLine@CPythonChat@@AAV?$allocator@PAUSChatLine@CPythonChat@@@0@AAI@Z ; std::_Allocate_at_least_helper<std::allocator<CPythonChat::SChatLine *> >
PUBLIC	??$_Construct_in_place@PAUSChatLine@CPythonChat@@ABQAU12@@std@@YAXAAPAUSChatLine@CPythonChat@@ABQAU12@@Z ; std::_Construct_in_place<CPythonChat::SChatLine *,CPythonChat::SChatLine * const &>
PUBLIC	??$_Uninitialized_move@PAPAVCWhisper@@V?$allocator@PAVCWhisper@@@std@@@std@@YAPAPAVCWhisper@@QAPAV1@0PAPAV1@AAV?$allocator@PAVCWhisper@@@0@@Z ; std::_Uninitialized_move<CWhisper * *,std::allocator<CWhisper *> >
PUBLIC	??$_Get_unwrapped@ABQAPAVCWhisper@@@std@@YA?A_TABQAPAVCWhisper@@@Z ; std::_Get_unwrapped<CWhisper * * const &>
PUBLIC	??$construct@PAVCWhisper@@ABQAV1@@?$_Default_allocator_traits@V?$allocator@PAVCWhisper@@@std@@@std@@SAXAAV?$allocator@PAVCWhisper@@@1@QAPAVCWhisper@@ABQAV3@@Z ; std::_Default_allocator_traits<std::allocator<CWhisper *> >::construct<CWhisper *,CWhisper * const &>
PUBLIC	??$_Allocate_at_least_helper@V?$allocator@PAVCWhisper@@@std@@@std@@YAPAPAVCWhisper@@AAV?$allocator@PAVCWhisper@@@0@AAI@Z ; std::_Allocate_at_least_helper<std::allocator<CWhisper *> >
PUBLIC	??$_Construct_in_place@PAVCWhisper@@ABQAV1@@std@@YAXAAPAVCWhisper@@ABQAV1@@Z ; std::_Construct_in_place<CWhisper *,CWhisper * const &>
PUBLIC	??$_Uninitialized_move@PAPAUSChatLine@CWhisper@@V?$allocator@PAUSChatLine@CWhisper@@@std@@@std@@YAPAPAUSChatLine@CWhisper@@QAPAU12@0PAPAU12@AAV?$allocator@PAUSChatLine@CWhisper@@@0@@Z ; std::_Uninitialized_move<CWhisper::SChatLine * *,std::allocator<CWhisper::SChatLine *> >
PUBLIC	??$_Get_unwrapped@ABQAPAUSChatLine@CWhisper@@@std@@YA?A_TABQAPAUSChatLine@CWhisper@@@Z ; std::_Get_unwrapped<CWhisper::SChatLine * * const &>
PUBLIC	??$_Allocate_at_least_helper@V?$allocator@PAUSChatLine@CWhisper@@@std@@@std@@YAPAPAUSChatLine@CWhisper@@AAV?$allocator@PAUSChatLine@CWhisper@@@0@AAI@Z ; std::_Allocate_at_least_helper<std::allocator<CWhisper::SChatLine *> >
PUBLIC	??$_Construct_in_place@PAUSChatLine@CWhisper@@ABQAU12@@std@@YAXAAPAUSChatLine@CWhisper@@ABQAU12@@Z ; std::_Construct_in_place<CWhisper::SChatLine *,CWhisper::SChatLine * const &>
PUBLIC	??$construct_at@USWaitChat@CPythonChat@@ABU12@@std@@YAPAUSWaitChat@CPythonChat@@QAU12@ABU12@@Z ; std::construct_at<CPythonChat::SWaitChat,CPythonChat::SWaitChat const &>
PUBLIC	??$construct@HABH@?$_Default_allocator_traits@V?$allocator@H@std@@@std@@SAXAAV?$allocator@H@1@QAHABH@Z ; std::_Default_allocator_traits<std::allocator<int> >::construct<int,int const &>
PUBLIC	??$to_address@H@std@@YAPAHQAH@Z			; std::to_address<int>
PUBLIC	??$_Emplace_back@H@?$_Uninitialized_backout_al@V?$allocator@H@std@@@std@@QAEX$$QAH@Z ; std::_Uninitialized_backout_al<std::allocator<int> >::_Emplace_back<int>
PUBLIC	??$_Copy_memmove@PAHPAH@std@@YAPAHPAH00@Z	; std::_Copy_memmove<int *,int *>
PUBLIC	??$_Emplace_back@USEmoticonsRecentChat@CPythonChat@@@?$_Uninitialized_backout_al@V?$allocator@USEmoticonsRecentChat@CPythonChat@@@std@@@std@@QAEX$$QAUSEmoticonsRecentChat@CPythonChat@@@Z ; std::_Uninitialized_backout_al<std::allocator<CPythonChat::SEmoticonsRecentChat> >::_Emplace_back<CPythonChat::SEmoticonsRecentChat>
PUBLIC	??$move@AAUSEmoticonsRecentChat@CPythonChat@@@std@@YA$$QAUSEmoticonsRecentChat@CPythonChat@@AAU12@@Z ; std::move<CPythonChat::SEmoticonsRecentChat &>
PUBLIC	??$construct_at@USEmoticonsRecentChat@CPythonChat@@ABU12@@std@@YAPAUSEmoticonsRecentChat@CPythonChat@@QAU12@ABU12@@Z ; std::construct_at<CPythonChat::SEmoticonsRecentChat,CPythonChat::SEmoticonsRecentChat const &>
PUBLIC	??1?$pair@$$CBHUSChatSet@CPythonChat@@@std@@QAE@XZ ; std::pair<int const ,CPythonChat::SChatSet>::~pair<int const ,CPythonChat::SChatSet>
PUBLIC	??$destroy_at@U?$pair@$$CBHUSChatSet@CPythonChat@@@std@@@std@@YAXQAU?$pair@$$CBHUSChatSet@CPythonChat@@@0@@Z ; std::destroy_at<std::pair<int const ,CPythonChat::SChatSet> >
PUBLIC	??$destroy_at@U?$pair@$$CBV?$basic_string@DU?$char_traits@D@std@@V?$allocator@D@2@@std@@PAVCWhisper@@@std@@@std@@YAXQAU?$pair@$$CBV?$basic_string@DU?$char_traits@D@std@@V?$allocator@D@2@@std@@PAVCWhisper@@@0@@Z ; std::destroy_at<std::pair<std::basic_string<char,std::char_traits<char>,std::allocator<char> > const ,CWhisper *> >
PUBLIC	??$destroy_at@U?$pair@$$CBV?$basic_string@DU?$char_traits@D@std@@V?$allocator@D@2@@std@@USEmoticonsRecentChat@CPythonChat@@@std@@@std@@YAXQAU?$pair@$$CBV?$basic_string@DU?$char_traits@D@std@@V?$allocator@D@2@@std@@USEmoticonsRecentChat@CPythonChat@@@0@@Z ; std::destroy_at<std::pair<std::basic_string<char,std::char_traits<char>,std::allocator<char> > const ,CPythonChat::SEmoticonsRecentChat> >
PUBLIC	??$construct_at@PAU?$_Tree_node@U?$pair@$$CBV?$basic_string@DU?$char_traits@D@std@@V?$allocator@D@2@@std@@PAVCWhisper@@@std@@PAX@std@@AAPAU12@@std@@YAPAPAU?$_Tree_node@U?$pair@$$CBV?$basic_string@DU?$char_traits@D@std@@V?$allocator@D@2@@std@@PAVCWhisper@@@std@@PAX@0@QAPAU10@AAPAU10@@Z ; std::construct_at<std::_Tree_node<std::pair<std::basic_string<char,std::char_traits<char>,std::allocator<char> > const ,CWhisper *>,void *> *,std::_Tree_node<std::pair<std::basic_string<char,std::char_traits<char>,std::allocator<char> > const ,CWhisper *>,void *> * &>
PUBLIC	??$addressof@PAU?$_Tree_node@U?$pair@$$CBV?$basic_string@DU?$char_traits@D@std@@V?$allocator@D@2@@std@@PAVCWhisper@@@std@@PAX@std@@@std@@YAPAPAU?$_Tree_node@U?$pair@$$CBV?$basic_string@DU?$char_traits@D@std@@V?$allocator@D@2@@std@@PAVCWhisper@@@std@@PAX@0@AAPAU10@@Z ; std::addressof<std::_Tree_node<std::pair<std::basic_string<char,std::char_traits<char>,std::allocator<char> > const ,CWhisper *>,void *> *>
PUBLIC	??$construct_at@U?$pair@$$CBV?$basic_string@DU?$char_traits@D@std@@V?$allocator@D@2@@std@@PAVCWhisper@@@std@@U12@@std@@YAPAU?$pair@$$CBV?$basic_string@DU?$char_traits@D@std@@V?$allocator@D@2@@std@@PAVCWhisper@@@0@QAU10@$$QAU10@@Z ; std::construct_at<std::pair<std::basic_string<char,std::char_traits<char>,std::allocator<char> > const ,CWhisper *>,std::pair<std::basic_string<char,std::char_traits<char>,std::allocator<char> > const ,CWhisper *> >
PUBLIC	??$construct_at@PAU?$_Tree_node@U?$pair@$$CBV?$basic_string@DU?$char_traits@D@std@@V?$allocator@D@2@@std@@USEmoticonsRecentChat@CPythonChat@@@std@@PAX@std@@AAPAU12@@std@@YAPAPAU?$_Tree_node@U?$pair@$$CBV?$basic_string@DU?$char_traits@D@std@@V?$allocator@D@2@@std@@USEmoticonsRecentChat@CPythonChat@@@std@@PAX@0@QAPAU10@AAPAU10@@Z ; std::construct_at<std::_Tree_node<std::pair<std::basic_string<char,std::char_traits<char>,std::allocator<char> > const ,CPythonChat::SEmoticonsRecentChat>,void *> *,std::_Tree_node<std::pair<std::basic_string<char,std::char_traits<char>,std::allocator<char> > const ,CPythonChat::SEmoticonsRecentChat>,void *> * &>
PUBLIC	??$addressof@PAU?$_Tree_node@U?$pair@$$CBV?$basic_string@DU?$char_traits@D@std@@V?$allocator@D@2@@std@@USEmoticonsRecentChat@CPythonChat@@@std@@PAX@std@@@std@@YAPAPAU?$_Tree_node@U?$pair@$$CBV?$basic_string@DU?$char_traits@D@std@@V?$allocator@D@2@@std@@USEmoticonsRecentChat@CPythonChat@@@std@@PAX@0@AAPAU10@@Z ; std::addressof<std::_Tree_node<std::pair<std::basic_string<char,std::char_traits<char>,std::allocator<char> > const ,CPythonChat::SEmoticonsRecentChat>,void *> *>
PUBLIC	??$construct_at@U?$pair@$$CBV?$basic_string@DU?$char_traits@D@std@@V?$allocator@D@2@@std@@USEmoticonsRecentChat@CPythonChat@@@std@@U12@@std@@YAPAU?$pair@$$CBV?$basic_string@DU?$char_traits@D@std@@V?$allocator@D@2@@std@@USEmoticonsRecentChat@CPythonChat@@@0@QAU10@$$QAU10@@Z ; std::construct_at<std::pair<std::basic_string<char,std::char_traits<char>,std::allocator<char> > const ,CPythonChat::SEmoticonsRecentChat>,std::pair<std::basic_string<char,std::char_traits<char>,std::allocator<char> > const ,CPythonChat::SEmoticonsRecentChat> >
PUBLIC	??$forward@PAU?$_Tree_node@U?$pair@$$CBHUSChatSet@CPythonChat@@@std@@PAX@std@@@std@@YA$$QAPAU?$_Tree_node@U?$pair@$$CBHUSChatSet@CPythonChat@@@std@@PAX@0@AAPAU10@@Z ; std::forward<std::_Tree_node<std::pair<int const ,CPythonChat::SChatSet>,void *> *>
PUBLIC	??$forward@AAPAU?$_Tree_node@U?$pair@$$CBHUSChatSet@CPythonChat@@@std@@PAX@std@@@std@@YAAAPAU?$_Tree_node@U?$pair@$$CBHUSChatSet@CPythonChat@@@std@@PAX@0@AAPAU10@@Z ; std::forward<std::_Tree_node<std::pair<int const ,CPythonChat::SChatSet>,void *> * &>
PUBLIC	??$_Construct_in_place@PAU?$_Tree_node@U?$pair@$$CBHUSChatSet@CPythonChat@@@std@@PAX@std@@AAPAU12@@std@@YAXAAPAU?$_Tree_node@U?$pair@$$CBHUSChatSet@CPythonChat@@@std@@PAX@0@0@Z ; std::_Construct_in_place<std::_Tree_node<std::pair<int const ,CPythonChat::SChatSet>,void *> *,std::_Tree_node<std::pair<int const ,CPythonChat::SChatSet>,void *> * &>
PUBLIC	??$construct@U?$pair@$$CBHUSChatSet@CPythonChat@@@std@@U?$pair@KUSChatSet@CPythonChat@@@2@@?$_Default_allocator_traits@V?$allocator@U?$_Tree_node@U?$pair@$$CBHUSChatSet@CPythonChat@@@std@@PAX@std@@@std@@@std@@SAXAAV?$allocator@U?$_Tree_node@U?$pair@$$CBHUSChatSet@CPythonChat@@@std@@PAX@std@@@1@QAU?$pair@$$CBHUSChatSet@CPythonChat@@@1@$$QAU?$pair@KUSChatSet@CPythonChat@@@1@@Z ; std::_Default_allocator_traits<std::allocator<std::_Tree_node<std::pair<int const ,CPythonChat::SChatSet>,void *> > >::construct<std::pair<int const ,CPythonChat::SChatSet>,std::pair<unsigned long,CPythonChat::SChatSet> >
PUBLIC	??_GSWaitChat@CPythonChat@@QAEPAXI@Z		; CPythonChat::SWaitChat::`scalar deleting destructor'
PUBLIC	??_GSEmoticonsRecentChat@CPythonChat@@QAEPAXI@Z	; CPythonChat::SEmoticonsRecentChat::`scalar deleting destructor'
PUBLIC	??1?$_Tree_temp_node_alloc@V?$allocator@U?$_Tree_node@U?$pair@$$CBHUSChatSet@CPythonChat@@@std@@PAX@std@@@std@@@std@@QAE@XZ ; std::_Tree_temp_node_alloc<std::allocator<std::_Tree_node<std::pair<int const ,CPythonChat::SChatSet>,void *> > >::~_Tree_temp_node_alloc<std::allocator<std::_Tree_node<std::pair<int const ,CPythonChat::SChatSet>,void *> > >
PUBLIC	?deallocate@?$allocator@PAUSChatLine@CWhisper@@@std@@QAEXQAPAUSChatLine@CWhisper@@I@Z ; std::allocator<CWhisper::SChatLine *>::deallocate
PUBLIC	?max_size@?$deque@PAUSChatLine@CWhisper@@V?$allocator@PAUSChatLine@CWhisper@@@std@@@std@@QBEIXZ ; std::deque<CWhisper::SChatLine *,std::allocator<CWhisper::SChatLine *> >::max_size
PUBLIC	?_Xlen@?$deque@PAUSChatLine@CWhisper@@V?$allocator@PAUSChatLine@CWhisper@@@std@@@std@@CAXXZ ; std::deque<CWhisper::SChatLine *,std::allocator<CWhisper::SChatLine *> >::_Xlen
PUBLIC	?_Map_distance@?$deque@PAUSChatLine@CWhisper@@V?$allocator@PAUSChatLine@CWhisper@@@std@@@std@@ABEHXZ ; std::deque<CWhisper::SChatLine *,std::allocator<CWhisper::SChatLine *> >::_Map_distance
PUBLIC	?deallocate@?$allocator@PAPAUSChatLine@CWhisper@@@std@@QAEXQAPAPAUSChatLine@CWhisper@@I@Z ; std::allocator<CWhisper::SChatLine * *>::deallocate
PUBLIC	?_Getblock@?$_Deque_val@U?$_Deque_simple_types@PAUSChatLine@CWhisper@@@std@@@std@@QBEHI@Z ; std::_Deque_val<std::_Deque_simple_types<CWhisper::SChatLine *> >::_Getblock
PUBLIC	?deallocate@?$_Default_allocator_traits@V?$allocator@U?$_List_node@PAUSChatLine@CWhisper@@PAX@std@@@std@@@std@@SAXAAV?$allocator@U?$_List_node@PAUSChatLine@CWhisper@@PAX@std@@@2@QAU?$_List_node@PAUSChatLine@CWhisper@@PAX@2@I@Z ; std::_Default_allocator_traits<std::allocator<std::_List_node<CWhisper::SChatLine *,void *> > >::deallocate
PUBLIC	?deallocate@?$allocator@PAUSChatLine@CPythonChat@@@std@@QAEXQAPAUSChatLine@CPythonChat@@I@Z ; std::allocator<CPythonChat::SChatLine *>::deallocate
PUBLIC	?max_size@?$deque@PAUSChatLine@CPythonChat@@V?$allocator@PAUSChatLine@CPythonChat@@@std@@@std@@QBEIXZ ; std::deque<CPythonChat::SChatLine *,std::allocator<CPythonChat::SChatLine *> >::max_size
PUBLIC	?_Xlen@?$deque@PAUSChatLine@CPythonChat@@V?$allocator@PAUSChatLine@CPythonChat@@@std@@@std@@CAXXZ ; std::deque<CPythonChat::SChatLine *,std::allocator<CPythonChat::SChatLine *> >::_Xlen
PUBLIC	?_Map_distance@?$deque@PAUSChatLine@CPythonChat@@V?$allocator@PAUSChatLine@CPythonChat@@@std@@@std@@ABEHXZ ; std::deque<CPythonChat::SChatLine *,std::allocator<CPythonChat::SChatLine *> >::_Map_distance
PUBLIC	?_Swap_val@?$list@PAUSChatLine@CPythonChat@@V?$allocator@PAUSChatLine@CPythonChat@@@std@@@std@@AAEXAAV12@@Z ; std::list<CPythonChat::SChatLine *,std::allocator<CPythonChat::SChatLine *> >::_Swap_val
PUBLIC	?_Getal@?$list@PAUSChatLine@CPythonChat@@V?$allocator@PAUSChatLine@CPythonChat@@@std@@@std@@ABEABV?$allocator@U?$_List_node@PAUSChatLine@CPythonChat@@PAX@std@@@2@XZ ; std::list<CPythonChat::SChatLine *,std::allocator<CPythonChat::SChatLine *> >::_Getal
PUBLIC	?_Getal@?$list@USWaitChat@CPythonChat@@V?$allocator@USWaitChat@CPythonChat@@@std@@@std@@ABEABV?$allocator@U?$_List_node@USWaitChat@CPythonChat@@PAX@std@@@2@XZ ; std::list<CPythonChat::SWaitChat,std::allocator<CPythonChat::SWaitChat> >::_Getal
PUBLIC	?max_size@?$vector@HV?$allocator@H@std@@@std@@QBEIXZ ; std::vector<int,std::allocator<int> >::max_size
PUBLIC	?_Calculate_growth@?$vector@HV?$allocator@H@std@@@std@@ABEII@Z ; std::vector<int,std::allocator<int> >::_Calculate_growth
PUBLIC	?_Change_array@?$vector@HV?$allocator@H@std@@@std@@AAEXQAHII@Z ; std::vector<int,std::allocator<int> >::_Change_array
PUBLIC	?_Xlength@?$vector@HV?$allocator@H@std@@@std@@CAXXZ ; std::vector<int,std::allocator<int> >::_Xlength
PUBLIC	??1_Reallocation_guard@?$vector@HV?$allocator@H@std@@@std@@QAE@XZ ; std::vector<int,std::allocator<int> >::_Reallocation_guard::~_Reallocation_guard
PUBLIC	?deallocate@?$_Default_allocator_traits@V?$allocator@U?$_List_node@PAUSChatLine@CPythonChat@@PAX@std@@@std@@@std@@SAXAAV?$allocator@U?$_List_node@PAUSChatLine@CPythonChat@@PAX@std@@@2@QAU?$_List_node@PAUSChatLine@CPythonChat@@PAX@2@I@Z ; std::_Default_allocator_traits<std::allocator<std::_List_node<CPythonChat::SChatLine *,void *> > >::deallocate
PUBLIC	?max_size@?$_Default_allocator_traits@V?$allocator@U?$_List_node@PAUSChatLine@CPythonChat@@PAX@std@@@std@@@std@@SAIABV?$allocator@U?$_List_node@PAUSChatLine@CPythonChat@@PAX@std@@@2@@Z ; std::_Default_allocator_traits<std::allocator<std::_List_node<CPythonChat::SChatLine *,void *> > >::max_size
PUBLIC	?max_size@?$vector@USEmoticonsRecentChat@CPythonChat@@V?$allocator@USEmoticonsRecentChat@CPythonChat@@@std@@@std@@QBEIXZ ; std::vector<CPythonChat::SEmoticonsRecentChat,std::allocator<CPythonChat::SEmoticonsRecentChat> >::max_size
PUBLIC	?_Calculate_growth@?$vector@USEmoticonsRecentChat@CPythonChat@@V?$allocator@USEmoticonsRecentChat@CPythonChat@@@std@@@std@@ABEII@Z ; std::vector<CPythonChat::SEmoticonsRecentChat,std::allocator<CPythonChat::SEmoticonsRecentChat> >::_Calculate_growth
PUBLIC	?_Change_array@?$vector@USEmoticonsRecentChat@CPythonChat@@V?$allocator@USEmoticonsRecentChat@CPythonChat@@@std@@@std@@AAEXQAUSEmoticonsRecentChat@CPythonChat@@II@Z ; std::vector<CPythonChat::SEmoticonsRecentChat,std::allocator<CPythonChat::SEmoticonsRecentChat> >::_Change_array
PUBLIC	?_Xlength@?$vector@USEmoticonsRecentChat@CPythonChat@@V?$allocator@USEmoticonsRecentChat@CPythonChat@@@std@@@std@@CAXXZ ; std::vector<CPythonChat::SEmoticonsRecentChat,std::allocator<CPythonChat::SEmoticonsRecentChat> >::_Xlength
PUBLIC	?_Orphan_range@?$vector@USEmoticonsRecentChat@CPythonChat@@V?$allocator@USEmoticonsRecentChat@CPythonChat@@@std@@@std@@ABEXPAUSEmoticonsRecentChat@CPythonChat@@0@Z ; std::vector<CPythonChat::SEmoticonsRecentChat,std::allocator<CPythonChat::SEmoticonsRecentChat> >::_Orphan_range
PUBLIC	?deallocate@?$allocator@PAPAUSChatLine@CPythonChat@@@std@@QAEXQAPAPAUSChatLine@CPythonChat@@I@Z ; std::allocator<CPythonChat::SChatLine * *>::deallocate
PUBLIC	?_Check_grow_by_1@?$_Tree@V?$_Tmap_traits@HUSChatSet@CPythonChat@@U?$less@H@std@@V?$allocator@U?$pair@$$CBHUSChatSet@CPythonChat@@@std@@@4@$0A@@std@@@std@@IAEXXZ ; std::_Tree<std::_Tmap_traits<int,CPythonChat::SChatSet,std::less<int>,std::allocator<std::pair<int const ,CPythonChat::SChatSet> >,0> >::_Check_grow_by_1
PUBLIC	?_Getcomp@?$_Tree@V?$_Tmap_traits@HUSChatSet@CPythonChat@@U?$less@H@std@@V?$allocator@U?$pair@$$CBHUSChatSet@CPythonChat@@@std@@@4@$0A@@std@@@std@@IBEABU?$less@H@2@XZ ; std::_Tree<std::_Tmap_traits<int,CPythonChat::SChatSet,std::less<int>,std::allocator<std::pair<int const ,CPythonChat::SChatSet> >,0> >::_Getcomp
PUBLIC	?deallocate@?$_Default_allocator_traits@V?$allocator@U?$_Tree_node@U?$pair@$$CBHUSChatSet@CPythonChat@@@std@@PAX@std@@@std@@@std@@SAXAAV?$allocator@U?$_Tree_node@U?$pair@$$CBHUSChatSet@CPythonChat@@@std@@PAX@std@@@2@QAU?$_Tree_node@U?$pair@$$CBHUSChatSet@CPythonChat@@@std@@PAX@2@I@Z ; std::_Default_allocator_traits<std::allocator<std::_Tree_node<std::pair<int const ,CPythonChat::SChatSet>,void *> > >::deallocate
PUBLIC	?_Min@?$_Tree_val@U?$_Tree_simple_types@U?$pair@$$CBHUSChatSet@CPythonChat@@@std@@@std@@@std@@SAPAU?$_Tree_node@U?$pair@$$CBHUSChatSet@CPythonChat@@@std@@PAX@2@PAU32@@Z ; std::_Tree_val<std::_Tree_simple_types<std::pair<int const ,CPythonChat::SChatSet> > >::_Min
PUBLIC	?_Insert_node@?$_Tree_val@U?$_Tree_simple_types@U?$pair@$$CBHUSChatSet@CPythonChat@@@std@@@std@@@std@@QAEPAU?$_Tree_node@U?$pair@$$CBHUSChatSet@CPythonChat@@@std@@PAX@2@U?$_Tree_id@PAU?$_Tree_node@U?$pair@$$CBHUSChatSet@CPythonChat@@@std@@PAX@std@@@2@QAU32@@Z ; std::_Tree_val<std::_Tree_simple_types<std::pair<int const ,CPythonChat::SChatSet> > >::_Insert_node
PUBLIC	?max_size@?$_Tree@V?$_Tmap_traits@V?$basic_string@DU?$char_traits@D@std@@V?$allocator@D@2@@std@@PAVCWhisper@@U?$less@V?$basic_string@DU?$char_traits@D@std@@V?$allocator@D@2@@std@@@2@V?$allocator@U?$pair@$$CBV?$basic_string@DU?$char_traits@D@std@@V?$allocator@D@2@@std@@PAVCWhisper@@@std@@@2@$0A@@std@@@std@@QBEIXZ ; std::_Tree<std::_Tmap_traits<std::basic_string<char,std::char_traits<char>,std::allocator<char> >,CWhisper *,std::less<std::basic_string<char,std::char_traits<char>,std::allocator<char> > >,std::allocator<std::pair<std::basic_string<char,std::char_traits<char>,std::allocator<char> > const ,CWhisper *> >,0> >::max_size
PUBLIC	?_Getcomp@?$_Tree@V?$_Tmap_traits@V?$basic_string@DU?$char_traits@D@std@@V?$allocator@D@2@@std@@PAVCWhisper@@U?$less@V?$basic_string@DU?$char_traits@D@std@@V?$allocator@D@2@@std@@@2@V?$allocator@U?$pair@$$CBV?$basic_string@DU?$char_traits@D@std@@V?$allocator@D@2@@std@@PAVCWhisper@@@std@@@2@$0A@@std@@@std@@IBEABU?$less@V?$basic_string@DU?$char_traits@D@std@@V?$allocator@D@2@@std@@@2@XZ ; std::_Tree<std::_Tmap_traits<std::basic_string<char,std::char_traits<char>,std::allocator<char> >,CWhisper *,std::less<std::basic_string<char,std::char_traits<char>,std::allocator<char> > >,std::allocator<std::pair<std::basic_string<char,std::char_traits<char>,std::allocator<char> > const ,CWhisper *> >,0> >::_Getcomp
PUBLIC	?deallocate@?$_Default_allocator_traits@V?$allocator@U?$_Tree_node@U?$pair@$$CBV?$basic_string@DU?$char_traits@D@std@@V?$allocator@D@2@@std@@PAVCWhisper@@@std@@PAX@std@@@std@@@std@@SAXAAV?$allocator@U?$_Tree_node@U?$pair@$$CBV?$basic_string@DU?$char_traits@D@std@@V?$allocator@D@2@@std@@PAVCWhisper@@@std@@PAX@std@@@2@QAU?$_Tree_node@U?$pair@$$CBV?$basic_string@DU?$char_traits@D@std@@V?$allocator@D@2@@std@@PAVCWhisper@@@std@@PAX@2@I@Z ; std::_Default_allocator_traits<std::allocator<std::_Tree_node<std::pair<std::basic_string<char,std::char_traits<char>,std::allocator<char> > const ,CWhisper *>,void *> > >::deallocate
PUBLIC	?_Max@?$_Tree_val@U?$_Tree_simple_types@U?$pair@$$CBV?$basic_string@DU?$char_traits@D@std@@V?$allocator@D@2@@std@@PAVCWhisper@@@std@@@std@@@std@@SAPAU?$_Tree_node@U?$pair@$$CBV?$basic_string@DU?$char_traits@D@std@@V?$allocator@D@2@@std@@PAVCWhisper@@@std@@PAX@2@PAU32@@Z ; std::_Tree_val<std::_Tree_simple_types<std::pair<std::basic_string<char,std::char_traits<char>,std::allocator<char> > const ,CWhisper *> > >::_Max
PUBLIC	?_Min@?$_Tree_val@U?$_Tree_simple_types@U?$pair@$$CBV?$basic_string@DU?$char_traits@D@std@@V?$allocator@D@2@@std@@PAVCWhisper@@@std@@@std@@@std@@SAPAU?$_Tree_node@U?$pair@$$CBV?$basic_string@DU?$char_traits@D@std@@V?$allocator@D@2@@std@@PAVCWhisper@@@std@@PAX@2@PAU32@@Z ; std::_Tree_val<std::_Tree_simple_types<std::pair<std::basic_string<char,std::char_traits<char>,std::allocator<char> > const ,CWhisper *> > >::_Min
PUBLIC	?_Lrotate@?$_Tree_val@U?$_Tree_simple_types@U?$pair@$$CBV?$basic_string@DU?$char_traits@D@std@@V?$allocator@D@2@@std@@PAVCWhisper@@@std@@@std@@@std@@QAEXPAU?$_Tree_node@U?$pair@$$CBV?$basic_string@DU?$char_traits@D@std@@V?$allocator@D@2@@std@@PAVCWhisper@@@std@@PAX@2@@Z ; std::_Tree_val<std::_Tree_simple_types<std::pair<std::basic_string<char,std::char_traits<char>,std::allocator<char> > const ,CWhisper *> > >::_Lrotate
PUBLIC	?_Rrotate@?$_Tree_val@U?$_Tree_simple_types@U?$pair@$$CBV?$basic_string@DU?$char_traits@D@std@@V?$allocator@D@2@@std@@PAVCWhisper@@@std@@@std@@@std@@QAEXPAU?$_Tree_node@U?$pair@$$CBV?$basic_string@DU?$char_traits@D@std@@V?$allocator@D@2@@std@@PAVCWhisper@@@std@@PAX@2@@Z ; std::_Tree_val<std::_Tree_simple_types<std::pair<std::basic_string<char,std::char_traits<char>,std::allocator<char> > const ,CWhisper *> > >::_Rrotate
PUBLIC	?_Max@?$_Tree_val@U?$_Tree_simple_types@V?$basic_string@DU?$char_traits@D@std@@V?$allocator@D@2@@std@@@std@@@std@@SAPAU?$_Tree_node@V?$basic_string@DU?$char_traits@D@std@@V?$allocator@D@2@@std@@PAX@2@PAU32@@Z ; std::_Tree_val<std::_Tree_simple_types<std::basic_string<char,std::char_traits<char>,std::allocator<char> > > >::_Max
PUBLIC	?_Min@?$_Tree_val@U?$_Tree_simple_types@V?$basic_string@DU?$char_traits@D@std@@V?$allocator@D@2@@std@@@std@@@std@@SAPAU?$_Tree_node@V?$basic_string@DU?$char_traits@D@std@@V?$allocator@D@2@@std@@PAX@2@PAU32@@Z ; std::_Tree_val<std::_Tree_simple_types<std::basic_string<char,std::char_traits<char>,std::allocator<char> > > >::_Min
PUBLIC	?deallocate@?$_Default_allocator_traits@V?$allocator@U?$_List_node@USWaitChat@CPythonChat@@PAX@std@@@std@@@std@@SAXAAV?$allocator@U?$_List_node@USWaitChat@CPythonChat@@PAX@std@@@2@QAU?$_List_node@USWaitChat@CPythonChat@@PAX@2@I@Z ; std::_Default_allocator_traits<std::allocator<std::_List_node<CPythonChat::SWaitChat,void *> > >::deallocate
PUBLIC	?max_size@?$_Default_allocator_traits@V?$allocator@U?$_List_node@USWaitChat@CPythonChat@@PAX@std@@@std@@@std@@SAIABV?$allocator@U?$_List_node@USWaitChat@CPythonChat@@PAX@std@@@2@@Z ; std::_Default_allocator_traits<std::allocator<std::_List_node<CPythonChat::SWaitChat,void *> > >::max_size
PUBLIC	?max_size@?$_Tree@V?$_Tmap_traits@V?$basic_string@DU?$char_traits@D@std@@V?$allocator@D@2@@std@@USEmoticonsRecentChat@CPythonChat@@U?$less@V?$basic_string@DU?$char_traits@D@std@@V?$allocator@D@2@@std@@@2@V?$allocator@U?$pair@$$CBV?$basic_string@DU?$char_traits@D@std@@V?$allocator@D@2@@std@@USEmoticonsRecentChat@CPythonChat@@@std@@@2@$0A@@std@@@std@@QBEIXZ ; std::_Tree<std::_Tmap_traits<std::basic_string<char,std::char_traits<char>,std::allocator<char> >,CPythonChat::SEmoticonsRecentChat,std::less<std::basic_string<char,std::char_traits<char>,std::allocator<char> > >,std::allocator<std::pair<std::basic_string<char,std::char_traits<char>,std::allocator<char> > const ,CPythonChat::SEmoticonsRecentChat> >,0> >::max_size
PUBLIC	?_Getcomp@?$_Tree@V?$_Tmap_traits@V?$basic_string@DU?$char_traits@D@std@@V?$allocator@D@2@@std@@USEmoticonsRecentChat@CPythonChat@@U?$less@V?$basic_string@DU?$char_traits@D@std@@V?$allocator@D@2@@std@@@2@V?$allocator@U?$pair@$$CBV?$basic_string@DU?$char_traits@D@std@@V?$allocator@D@2@@std@@USEmoticonsRecentChat@CPythonChat@@@std@@@2@$0A@@std@@@std@@IBEABU?$less@V?$basic_string@DU?$char_traits@D@std@@V?$allocator@D@2@@std@@@2@XZ ; std::_Tree<std::_Tmap_traits<std::basic_string<char,std::char_traits<char>,std::allocator<char> >,CPythonChat::SEmoticonsRecentChat,std::less<std::basic_string<char,std::char_traits<char>,std::allocator<char> > >,std::allocator<std::pair<std::basic_string<char,std::char_traits<char>,std::allocator<char> > const ,CPythonChat::SEmoticonsRecentChat> >,0> >::_Getcomp
PUBLIC	?deallocate@?$_Default_allocator_traits@V?$allocator@U?$_Tree_node@U?$pair@$$CBV?$basic_string@DU?$char_traits@D@std@@V?$allocator@D@2@@std@@USEmoticonsRecentChat@CPythonChat@@@std@@PAX@std@@@std@@@std@@SAXAAV?$allocator@U?$_Tree_node@U?$pair@$$CBV?$basic_string@DU?$char_traits@D@std@@V?$allocator@D@2@@std@@USEmoticonsRecentChat@CPythonChat@@@std@@PAX@std@@@2@QAU?$_Tree_node@U?$pair@$$CBV?$basic_string@DU?$char_traits@D@std@@V?$allocator@D@2@@std@@USEmoticonsRecentChat@CPythonChat@@@std@@PAX@2@I@Z ; std::_Default_allocator_traits<std::allocator<std::_Tree_node<std::pair<std::basic_string<char,std::char_traits<char>,std::allocator<char> > const ,CPythonChat::SEmoticonsRecentChat>,void *> > >::deallocate
PUBLIC	?_Min@?$_Tree_val@U?$_Tree_simple_types@U?$pair@$$CBV?$basic_string@DU?$char_traits@D@std@@V?$allocator@D@2@@std@@USEmoticonsRecentChat@CPythonChat@@@std@@@std@@@std@@SAPAU?$_Tree_node@U?$pair@$$CBV?$basic_string@DU?$char_traits@D@std@@V?$allocator@D@2@@std@@USEmoticonsRecentChat@CPythonChat@@@std@@PAX@2@PAU32@@Z ; std::_Tree_val<std::_Tree_simple_types<std::pair<std::basic_string<char,std::char_traits<char>,std::allocator<char> > const ,CPythonChat::SEmoticonsRecentChat> > >::_Min
PUBLIC	?_Lrotate@?$_Tree_val@U?$_Tree_simple_types@U?$pair@$$CBV?$basic_string@DU?$char_traits@D@std@@V?$allocator@D@2@@std@@USEmoticonsRecentChat@CPythonChat@@@std@@@std@@@std@@QAEXPAU?$_Tree_node@U?$pair@$$CBV?$basic_string@DU?$char_traits@D@std@@V?$allocator@D@2@@std@@USEmoticonsRecentChat@CPythonChat@@@std@@PAX@2@@Z ; std::_Tree_val<std::_Tree_simple_types<std::pair<std::basic_string<char,std::char_traits<char>,std::allocator<char> > const ,CPythonChat::SEmoticonsRecentChat> > >::_Lrotate
PUBLIC	?_Rrotate@?$_Tree_val@U?$_Tree_simple_types@U?$pair@$$CBV?$basic_string@DU?$char_traits@D@std@@V?$allocator@D@2@@std@@USEmoticonsRecentChat@CPythonChat@@@std@@@std@@@std@@QAEXPAU?$_Tree_node@U?$pair@$$CBV?$basic_string@DU?$char_traits@D@std@@V?$allocator@D@2@@std@@USEmoticonsRecentChat@CPythonChat@@@std@@PAX@2@@Z ; std::_Tree_val<std::_Tree_simple_types<std::pair<std::basic_string<char,std::char_traits<char>,std::allocator<char> > const ,CPythonChat::SEmoticonsRecentChat> > >::_Rrotate
PUBLIC	??1_Reallocation_guard@?$vector@USEmoticonsRecentChat@CPythonChat@@V?$allocator@USEmoticonsRecentChat@CPythonChat@@@std@@@std@@QAE@XZ ; std::vector<CPythonChat::SEmoticonsRecentChat,std::allocator<CPythonChat::SEmoticonsRecentChat> >::_Reallocation_guard::~_Reallocation_guard
PUBLIC	??0?$_Vector_val@U?$_Simple_types@PAUSChatLine@CPythonChat@@@std@@@std@@QAE@XZ ; std::_Vector_val<std::_Simple_types<CPythonChat::SChatLine *> >::_Vector_val<std::_Simple_types<CPythonChat::SChatLine *> >
PUBLIC	?_Get_first@?$_Compressed_pair@V?$allocator@PAUSChatLine@CPythonChat@@@std@@V?$_Vector_val@U?$_Simple_types@PAUSChatLine@CPythonChat@@@std@@@2@$00@std@@QAEAAV?$allocator@PAUSChatLine@CPythonChat@@@2@XZ ; std::_Compressed_pair<std::allocator<CPythonChat::SChatLine *>,std::_Vector_val<std::_Simple_types<CPythonChat::SChatLine *> >,1>::_Get_first
PUBLIC	??0?$allocator@PAVCWhisper@@@std@@QAE@XZ	; std::allocator<CWhisper *>::allocator<CWhisper *>
PUBLIC	?deallocate@?$allocator@PAVCWhisper@@@std@@QAEXQAPAVCWhisper@@I@Z ; std::allocator<CWhisper *>::deallocate
PUBLIC	??0?$_Vector_val@U?$_Simple_types@PAVCWhisper@@@std@@@std@@QAE@XZ ; std::_Vector_val<std::_Simple_types<CWhisper *> >::_Vector_val<std::_Simple_types<CWhisper *> >
PUBLIC	?_Get_first@?$_Compressed_pair@V?$allocator@PAVCWhisper@@@std@@V?$_Vector_val@U?$_Simple_types@PAVCWhisper@@@std@@@2@$00@std@@QAEAAV?$allocator@PAVCWhisper@@@2@XZ ; std::_Compressed_pair<std::allocator<CWhisper *>,std::_Vector_val<std::_Simple_types<CWhisper *> >,1>::_Get_first
PUBLIC	??0?$_Vector_val@U?$_Simple_types@PAUSChatLine@CWhisper@@@std@@@std@@QAE@XZ ; std::_Vector_val<std::_Simple_types<CWhisper::SChatLine *> >::_Vector_val<std::_Simple_types<CWhisper::SChatLine *> >
PUBLIC	?_Get_first@?$_Compressed_pair@V?$allocator@PAUSChatLine@CWhisper@@@std@@V?$_Vector_val@U?$_Simple_types@PAUSChatLine@CWhisper@@@std@@@2@$00@std@@QAEAAV?$allocator@PAUSChatLine@CWhisper@@@2@XZ ; std::_Compressed_pair<std::allocator<CWhisper::SChatLine *>,std::_Vector_val<std::_Simple_types<CWhisper::SChatLine *> >,1>::_Get_first
PUBLIC	??0?$_Tree_temp_node_alloc@V?$allocator@U?$_Tree_node@U?$pair@$$CBV?$basic_string@DU?$char_traits@D@std@@V?$allocator@D@2@@std@@USEmoticonsRecentChat@CPythonChat@@@std@@PAX@std@@@std@@@std@@QAE@AAV?$allocator@U?$_Tree_node@U?$pair@$$CBV?$basic_string@DU?$char_traits@D@std@@V?$allocator@D@2@@std@@USEmoticonsRecentChat@CPythonChat@@@std@@PAX@std@@@1@@Z ; std::_Tree_temp_node_alloc<std::allocator<std::_Tree_node<std::pair<std::basic_string<char,std::char_traits<char>,std::allocator<char> > const ,CPythonChat::SEmoticonsRecentChat>,void *> > >::_Tree_temp_node_alloc<std::allocator<std::_Tree_node<std::pair<std::basic_string<char,std::char_traits<char>,std::allocator<char> > const ,CPythonChat::SEmoticonsRecentChat>,void *> > >
PUBLIC	??1?$_Alloc_construct_ptr@V?$allocator@U?$_Tree_node@U?$pair@$$CBV?$basic_string@DU?$char_traits@D@std@@V?$allocator@D@2@@std@@USEmoticonsRecentChat@CPythonChat@@@std@@PAX@std@@@std@@@std@@QAE@XZ ; std::_Alloc_construct_ptr<std::allocator<std::_Tree_node<std::pair<std::basic_string<char,std::char_traits<char>,std::allocator<char> > const ,CPythonChat::SEmoticonsRecentChat>,void *> > >::~_Alloc_construct_ptr<std::allocator<std::_Tree_node<std::pair<std::basic_string<char,std::char_traits<char>,std::allocator<char> > const ,CPythonChat::SEmoticonsRecentChat>,void *> > >
PUBLIC	??0?$_Alloc_construct_ptr@V?$allocator@U?$_List_node@PAUSChatLine@CPythonChat@@PAX@std@@@std@@@std@@QAE@AAV?$allocator@U?$_List_node@PAUSChatLine@CPythonChat@@PAX@std@@@1@@Z ; std::_Alloc_construct_ptr<std::allocator<std::_List_node<CPythonChat::SChatLine *,void *> > >::_Alloc_construct_ptr<std::allocator<std::_List_node<CPythonChat::SChatLine *,void *> > >
PUBLIC	?_Allocate@?$_Alloc_construct_ptr@V?$allocator@U?$_List_node@PAUSChatLine@CPythonChat@@PAX@std@@@std@@@std@@QAEXXZ ; std::_Alloc_construct_ptr<std::allocator<std::_List_node<CPythonChat::SChatLine *,void *> > >::_Allocate
PUBLIC	??1?$_Alloc_construct_ptr@V?$allocator@U?$_List_node@PAUSChatLine@CPythonChat@@PAX@std@@@std@@@std@@QAE@XZ ; std::_Alloc_construct_ptr<std::allocator<std::_List_node<CPythonChat::SChatLine *,void *> > >::~_Alloc_construct_ptr<std::allocator<std::_List_node<CPythonChat::SChatLine *,void *> > >
PUBLIC	??0?$_Tree_temp_node_alloc@V?$allocator@U?$_Tree_node@U?$pair@$$CBV?$basic_string@DU?$char_traits@D@std@@V?$allocator@D@2@@std@@PAVCWhisper@@@std@@PAX@std@@@std@@@std@@QAE@AAV?$allocator@U?$_Tree_node@U?$pair@$$CBV?$basic_string@DU?$char_traits@D@std@@V?$allocator@D@2@@std@@PAVCWhisper@@@std@@PAX@std@@@1@@Z ; std::_Tree_temp_node_alloc<std::allocator<std::_Tree_node<std::pair<std::basic_string<char,std::char_traits<char>,std::allocator<char> > const ,CWhisper *>,void *> > >::_Tree_temp_node_alloc<std::allocator<std::_Tree_node<std::pair<std::basic_string<char,std::char_traits<char>,std::allocator<char> > const ,CWhisper *>,void *> > >
PUBLIC	??1?$_Alloc_construct_ptr@V?$allocator@U?$_Tree_node@U?$pair@$$CBV?$basic_string@DU?$char_traits@D@std@@V?$allocator@D@2@@std@@PAVCWhisper@@@std@@PAX@std@@@std@@@std@@QAE@XZ ; std::_Alloc_construct_ptr<std::allocator<std::_Tree_node<std::pair<std::basic_string<char,std::char_traits<char>,std::allocator<char> > const ,CWhisper *>,void *> > >::~_Alloc_construct_ptr<std::allocator<std::_Tree_node<std::pair<std::basic_string<char,std::char_traits<char>,std::allocator<char> > const ,CWhisper *>,void *> > >
PUBLIC	??0?$_Alloc_construct_ptr@V?$allocator@U?$_List_node@USWaitChat@CPythonChat@@PAX@std@@@std@@@std@@QAE@AAV?$allocator@U?$_List_node@USWaitChat@CPythonChat@@PAX@std@@@1@@Z ; std::_Alloc_construct_ptr<std::allocator<std::_List_node<CPythonChat::SWaitChat,void *> > >::_Alloc_construct_ptr<std::allocator<std::_List_node<CPythonChat::SWaitChat,void *> > >
PUBLIC	?_Allocate@?$_Alloc_construct_ptr@V?$allocator@U?$_List_node@USWaitChat@CPythonChat@@PAX@std@@@std@@@std@@QAEXXZ ; std::_Alloc_construct_ptr<std::allocator<std::_List_node<CPythonChat::SWaitChat,void *> > >::_Allocate
PUBLIC	??1?$_Alloc_construct_ptr@V?$allocator@U?$_List_node@USWaitChat@CPythonChat@@PAX@std@@@std@@@std@@QAE@XZ ; std::_Alloc_construct_ptr<std::allocator<std::_List_node<CPythonChat::SWaitChat,void *> > >::~_Alloc_construct_ptr<std::allocator<std::_List_node<CPythonChat::SWaitChat,void *> > >
PUBLIC	??1?$_Tree_temp_node@V?$allocator@U?$_Tree_node@U?$pair@$$CBHUSChatSet@CPythonChat@@@std@@PAX@std@@@std@@@std@@QAE@XZ ; std::_Tree_temp_node<std::allocator<std::_Tree_node<std::pair<int const ,CPythonChat::SChatSet>,void *> > >::~_Tree_temp_node<std::allocator<std::_Tree_node<std::pair<int const ,CPythonChat::SChatSet>,void *> > >
PUBLIC	?_Release@?$_Alloc_construct_ptr@V?$allocator@U?$_Tree_node@U?$pair@$$CBHUSChatSet@CPythonChat@@@std@@PAX@std@@@std@@@std@@QAEPAU?$_Tree_node@U?$pair@$$CBHUSChatSet@CPythonChat@@@std@@PAX@2@XZ ; std::_Alloc_construct_ptr<std::allocator<std::_Tree_node<std::pair<int const ,CPythonChat::SChatSet>,void *> > >::_Release
PUBLIC	??0?$_Uninitialized_backout_al@V?$allocator@H@std@@@std@@QAE@PAHAAV?$allocator@H@1@@Z ; std::_Uninitialized_backout_al<std::allocator<int> >::_Uninitialized_backout_al<std::allocator<int> >
PUBLIC	??1?$_Uninitialized_backout_al@V?$allocator@H@std@@@std@@QAE@XZ ; std::_Uninitialized_backout_al<std::allocator<int> >::~_Uninitialized_backout_al<std::allocator<int> >
PUBLIC	?_Release@?$_Uninitialized_backout_al@V?$allocator@H@std@@@std@@QAEPAHXZ ; std::_Uninitialized_backout_al<std::allocator<int> >::_Release
PUBLIC	??$_Destroy_range@PAPAPAUSChatLine@CWhisper@@PAPAPAU12@@std@@YAXPAPAPAUSChatLine@CWhisper@@QAPAPAU12@@Z ; std::_Destroy_range<CWhisper::SChatLine * * *,CWhisper::SChatLine * * *>
PUBLIC	??$_Uninitialized_value_construct_n_unchecked1@PAPAPAUSChatLine@CWhisper@@I@std@@YAPAPAPAUSChatLine@CWhisper@@PAPAPAU12@I@Z ; std::_Uninitialized_value_construct_n_unchecked1<CWhisper::SChatLine * * *,unsigned int>
PUBLIC	??$_Get_unwrapped_n@AAPAPAPAUSChatLine@CWhisper@@H@std@@YA?A_TAAPAPAPAUSChatLine@CWhisper@@H@Z ; std::_Get_unwrapped_n<CWhisper::SChatLine * * * &,int>
PUBLIC	??$_Idl_distance@PAPAPAUSChatLine@CWhisper@@PAPAPAU12@@std@@YA?A_PABQAPAPAUSChatLine@CWhisper@@0@Z ; std::_Idl_distance<CWhisper::SChatLine * * *,CWhisper::SChatLine * * *>
PUBLIC	??$_Get_unwrapped@ABQAPAPAUSChatLine@CWhisper@@@std@@YA?A_TABQAPAPAUSChatLine@CWhisper@@@Z ; std::_Get_unwrapped<CWhisper::SChatLine * * * const &>
PUBLIC	??$uninitialized_copy@PAPAPAUSChatLine@CWhisper@@PAPAPAU12@@std@@YAPAPAPAUSChatLine@CWhisper@@QAPAPAU12@0PAPAPAU12@@Z ; std::uninitialized_copy<CWhisper::SChatLine * * *,CWhisper::SChatLine * * *>
PUBLIC	??$_Allocate_at_least_helper@V?$allocator@PAPAUSChatLine@CWhisper@@@std@@@std@@YAPAPAPAUSChatLine@CWhisper@@AAV?$allocator@PAPAUSChatLine@CWhisper@@@0@AAI@Z ; std::_Allocate_at_least_helper<std::allocator<CWhisper::SChatLine * *> >
PUBLIC	??$?0PAUSChatLine@CWhisper@@@?$allocator@PAPAUSChatLine@CWhisper@@@std@@QAE@ABV?$allocator@PAUSChatLine@CWhisper@@@1@@Z ; std::allocator<CWhisper::SChatLine * *>::allocator<CWhisper::SChatLine * *><CWhisper::SChatLine *>
PUBLIC	??$_Destroy_in_place@PAPAUSChatLine@CWhisper@@@std@@YAXAAPAPAUSChatLine@CWhisper@@@Z ; std::_Destroy_in_place<CWhisper::SChatLine * *>
PUBLIC	??$_Destroy_range@PAPAPAUSChatLine@CPythonChat@@PAPAPAU12@@std@@YAXPAPAPAUSChatLine@CPythonChat@@QAPAPAU12@@Z ; std::_Destroy_range<CPythonChat::SChatLine * * *,CPythonChat::SChatLine * * *>
PUBLIC	??$_Uninitialized_value_construct_n_unchecked1@PAPAPAUSChatLine@CPythonChat@@I@std@@YAPAPAPAUSChatLine@CPythonChat@@PAPAPAU12@I@Z ; std::_Uninitialized_value_construct_n_unchecked1<CPythonChat::SChatLine * * *,unsigned int>
PUBLIC	??$_Get_unwrapped_n@AAPAPAPAUSChatLine@CPythonChat@@H@std@@YA?A_TAAPAPAPAUSChatLine@CPythonChat@@H@Z ; std::_Get_unwrapped_n<CPythonChat::SChatLine * * * &,int>
PUBLIC	??$_Idl_distance@PAPAPAUSChatLine@CPythonChat@@PAPAPAU12@@std@@YA?A_PABQAPAPAUSChatLine@CPythonChat@@0@Z ; std::_Idl_distance<CPythonChat::SChatLine * * *,CPythonChat::SChatLine * * *>
PUBLIC	??$_Get_unwrapped@ABQAPAPAUSChatLine@CPythonChat@@@std@@YA?A_TABQAPAPAUSChatLine@CPythonChat@@@Z ; std::_Get_unwrapped<CPythonChat::SChatLine * * * const &>
PUBLIC	??$uninitialized_copy@PAPAPAUSChatLine@CPythonChat@@PAPAPAU12@@std@@YAPAPAPAUSChatLine@CPythonChat@@QAPAPAU12@0PAPAPAU12@@Z ; std::uninitialized_copy<CPythonChat::SChatLine * * *,CPythonChat::SChatLine * * *>
PUBLIC	??$_Allocate_at_least_helper@V?$allocator@PAPAUSChatLine@CPythonChat@@@std@@@std@@YAPAPAPAUSChatLine@CPythonChat@@AAV?$allocator@PAPAUSChatLine@CPythonChat@@@0@AAI@Z ; std::_Allocate_at_least_helper<std::allocator<CPythonChat::SChatLine * *> >
PUBLIC	??$?0PAUSChatLine@CPythonChat@@@?$allocator@PAPAUSChatLine@CPythonChat@@@std@@QAE@ABV?$allocator@PAUSChatLine@CPythonChat@@@1@@Z ; std::allocator<CPythonChat::SChatLine * *>::allocator<CPythonChat::SChatLine * *><CPythonChat::SChatLine *>
PUBLIC	??$_Destroy_in_place@PAPAUSChatLine@CPythonChat@@@std@@YAXAAPAPAUSChatLine@CPythonChat@@@Z ; std::_Destroy_in_place<CPythonChat::SChatLine * *>
PUBLIC	??$?0V?$allocator@U?$_List_node@PAUSChatLine@CPythonChat@@PAX@std@@@std@@$$V@?$_Compressed_pair@V?$allocator@U?$_List_node@PAUSChatLine@CPythonChat@@PAX@std@@@std@@V?$_List_val@U?$_List_simple_types@PAUSChatLine@CPythonChat@@@std@@@2@$00@std@@QAE@U_One_then_variadic_args_t@1@$$QAV?$allocator@U?$_List_node@PAUSChatLine@CPythonChat@@PAX@std@@@1@@Z ; std::_Compressed_pair<std::allocator<std::_List_node<CPythonChat::SChatLine *,void *> >,std::_List_val<std::_List_simple_types<CPythonChat::SChatLine *> >,1>::_Compressed_pair<std::allocator<std::_List_node<CPythonChat::SChatLine *,void *> >,std::_List_val<std::_List_simple_types<CPythonChat::SChatLine *> >,1><std::allocator<std::_List_node<CPythonChat::SChatLine *,void *> > >
PUBLIC	??$move@AAV?$allocator@U?$_List_node@PAUSChatLine@CPythonChat@@PAX@std@@@std@@@std@@YA$$QAV?$allocator@U?$_List_node@PAUSChatLine@CPythonChat@@PAX@std@@@0@AAV10@@Z ; std::move<std::allocator<std::_List_node<CPythonChat::SChatLine *,void *> > &>
PUBLIC	??$?0V?$allocator@H@std@@PAHPAHPAH@?$_Compressed_pair@V?$allocator@H@std@@V?$_Vector_val@U?$_Simple_types@H@std@@@2@$00@std@@QAE@U_One_then_variadic_args_t@1@$$QAV?$allocator@H@1@$$QAPAH22@Z ; std::_Compressed_pair<std::allocator<int>,std::_Vector_val<std::_Simple_types<int> >,1>::_Compressed_pair<std::allocator<int>,std::_Vector_val<std::_Simple_types<int> >,1><std::allocator<int>,int *,int *,int *>
PUBLIC	??$exchange@PAH$$T@std@@YAPAHAAPAH$$QA$$T@Z	; std::exchange<int *,std::nullptr_t>
PUBLIC	??$move@AAV?$allocator@H@std@@@std@@YA$$QAV?$allocator@H@0@AAV10@@Z ; std::move<std::allocator<int> &>
PUBLIC	??$_Buyheadnode@V?$allocator@U?$_Tree_node@U?$pair@$$CBHUSChatSet@CPythonChat@@@std@@PAX@std@@@std@@@?$_Tree_node@U?$pair@$$CBHUSChatSet@CPythonChat@@@std@@PAX@std@@SAPAU01@AAV?$allocator@U?$_Tree_node@U?$pair@$$CBHUSChatSet@CPythonChat@@@std@@PAX@std@@@1@@Z ; std::_Tree_node<std::pair<int const ,CPythonChat::SChatSet>,void *>::_Buyheadnode<std::allocator<std::_Tree_node<std::pair<int const ,CPythonChat::SChatSet>,void *> > >
PUBLIC	??$_Buyheadnode@V?$allocator@U?$_Tree_node@U?$pair@$$CBV?$basic_string@DU?$char_traits@D@std@@V?$allocator@D@2@@std@@PAVCWhisper@@@std@@PAX@std@@@std@@@?$_Tree_node@U?$pair@$$CBV?$basic_string@DU?$char_traits@D@std@@V?$allocator@D@2@@std@@PAVCWhisper@@@std@@PAX@std@@SAPAU01@AAV?$allocator@U?$_Tree_node@U?$pair@$$CBV?$basic_string@DU?$char_traits@D@std@@V?$allocator@D@2@@std@@PAVCWhisper@@@std@@PAX@std@@@1@@Z ; std::_Tree_node<std::pair<std::basic_string<char,std::char_traits<char>,std::allocator<char> > const ,CWhisper *>,void *>::_Buyheadnode<std::allocator<std::_Tree_node<std::pair<std::basic_string<char,std::char_traits<char>,std::allocator<char> > const ,CWhisper *>,void *> > >
PUBLIC	??$_Buyheadnode@V?$allocator@U?$_Tree_node@U?$pair@$$CBV?$basic_string@DU?$char_traits@D@std@@V?$allocator@D@2@@std@@USEmoticonsRecentChat@CPythonChat@@@std@@PAX@std@@@std@@@?$_Tree_node@U?$pair@$$CBV?$basic_string@DU?$char_traits@D@std@@V?$allocator@D@2@@std@@USEmoticonsRecentChat@CPythonChat@@@std@@PAX@std@@SAPAU01@AAV?$allocator@U?$_Tree_node@U?$pair@$$CBV?$basic_string@DU?$char_traits@D@std@@V?$allocator@D@2@@std@@USEmoticonsRecentChat@CPythonChat@@@std@@PAX@std@@@1@@Z ; std::_Tree_node<std::pair<std::basic_string<char,std::char_traits<char>,std::allocator<char> > const ,CPythonChat::SEmoticonsRecentChat>,void *>::_Buyheadnode<std::allocator<std::_Tree_node<std::pair<std::basic_string<char,std::char_traits<char>,std::allocator<char> > const ,CPythonChat::SEmoticonsRecentChat>,void *> > >
PUBLIC	??$addressof@$$CBV?$_Tree_val@U?$_Tree_simple_types@U?$pair@$$CBV?$basic_string@DU?$char_traits@D@std@@V?$allocator@D@2@@std@@USEmoticonsRecentChat@CPythonChat@@@std@@@std@@@std@@@std@@YAPBV?$_Tree_val@U?$_Tree_simple_types@U?$pair@$$CBV?$basic_string@DU?$char_traits@D@std@@V?$allocator@D@2@@std@@USEmoticonsRecentChat@CPythonChat@@@std@@@std@@@0@ABV10@@Z ; std::addressof<std::_Tree_val<std::_Tree_simple_types<std::pair<std::basic_string<char,std::char_traits<char>,std::allocator<char> > const ,CPythonChat::SEmoticonsRecentChat> > > const >
PUBLIC	??$exchange@PAU?$_Tree_node@U?$pair@$$CBV?$basic_string@DU?$char_traits@D@std@@V?$allocator@D@2@@std@@USEmoticonsRecentChat@CPythonChat@@@std@@PAX@std@@$$T@std@@YAPAU?$_Tree_node@U?$pair@$$CBV?$basic_string@DU?$char_traits@D@std@@V?$allocator@D@2@@std@@USEmoticonsRecentChat@CPythonChat@@@std@@PAX@0@AAPAU10@$$QA$$T@Z ; std::exchange<std::_Tree_node<std::pair<std::basic_string<char,std::char_traits<char>,std::allocator<char> > const ,CPythonChat::SEmoticonsRecentChat>,void *> *,std::nullptr_t>
PUBLIC	??$_Construct_in_place@PAU?$_List_node@PAUSChatLine@CPythonChat@@PAX@std@@ABQAU12@@std@@YAXAAPAU?$_List_node@PAUSChatLine@CPythonChat@@PAX@0@ABQAU10@@Z ; std::_Construct_in_place<std::_List_node<CPythonChat::SChatLine *,void *> *,std::_List_node<CPythonChat::SChatLine *,void *> * const &>
PUBLIC	??$exchange@PAU?$_Tree_node@U?$pair@$$CBV?$basic_string@DU?$char_traits@D@std@@V?$allocator@D@2@@std@@PAVCWhisper@@@std@@PAX@std@@$$T@std@@YAPAU?$_Tree_node@U?$pair@$$CBV?$basic_string@DU?$char_traits@D@std@@V?$allocator@D@2@@std@@PAVCWhisper@@@std@@PAX@0@AAPAU10@$$QA$$T@Z ; std::exchange<std::_Tree_node<std::pair<std::basic_string<char,std::char_traits<char>,std::allocator<char> > const ,CWhisper *>,void *> *,std::nullptr_t>
PUBLIC	??$_Construct_in_place@PAU?$_List_node@USWaitChat@CPythonChat@@PAX@std@@ABQAU12@@std@@YAXAAPAU?$_List_node@USWaitChat@CPythonChat@@PAX@0@ABQAU10@@Z ; std::_Construct_in_place<std::_List_node<CPythonChat::SWaitChat,void *> *,std::_List_node<CPythonChat::SWaitChat,void *> * const &>
PUBLIC	??$_Destroy_in_place@PAU?$_List_node@PAUSChatLine@CWhisper@@PAX@std@@@std@@YAXAAPAU?$_List_node@PAUSChatLine@CWhisper@@PAX@0@@Z ; std::_Destroy_in_place<std::_List_node<CWhisper::SChatLine *,void *> *>
PUBLIC	??$construct_at@PAU?$_List_node@PAUSChatLine@CWhisper@@PAX@std@@AAPAU12@@std@@YAPAPAU?$_List_node@PAUSChatLine@CWhisper@@PAX@0@QAPAU10@AAPAU10@@Z ; std::construct_at<std::_List_node<CWhisper::SChatLine *,void *> *,std::_List_node<CWhisper::SChatLine *,void *> * &>
PUBLIC	??$forward@AAPAU?$_List_node@PAUSChatLine@CWhisper@@PAX@std@@@std@@YAAAPAU?$_List_node@PAUSChatLine@CWhisper@@PAX@0@AAPAU10@@Z ; std::forward<std::_List_node<CWhisper::SChatLine *,void *> * &>
PUBLIC	??$addressof@PAU?$_List_node@PAUSChatLine@CWhisper@@PAX@std@@@std@@YAPAPAU?$_List_node@PAUSChatLine@CWhisper@@PAX@0@AAPAU10@@Z ; std::addressof<std::_List_node<CWhisper::SChatLine *,void *> *>
PUBLIC	??$construct_at@PAU?$_List_node@PAUSChatLine@CPythonChat@@PAX@std@@AAPAU12@@std@@YAPAPAU?$_List_node@PAUSChatLine@CPythonChat@@PAX@0@QAPAU10@AAPAU10@@Z ; std::construct_at<std::_List_node<CPythonChat::SChatLine *,void *> *,std::_List_node<CPythonChat::SChatLine *,void *> * &>
PUBLIC	??$forward@AAPAU?$_List_node@PAUSChatLine@CPythonChat@@PAX@std@@@std@@YAAAPAU?$_List_node@PAUSChatLine@CPythonChat@@PAX@0@AAPAU10@@Z ; std::forward<std::_List_node<CPythonChat::SChatLine *,void *> * &>
PUBLIC	??$addressof@PAU?$_List_node@PAUSChatLine@CPythonChat@@PAX@std@@@std@@YAPAPAU?$_List_node@PAUSChatLine@CPythonChat@@PAX@0@AAPAU10@@Z ; std::addressof<std::_List_node<CPythonChat::SChatLine *,void *> *>
PUBLIC	??$construct_at@PAU?$_List_node@USWaitChat@CPythonChat@@PAX@std@@AAPAU12@@std@@YAPAPAU?$_List_node@USWaitChat@CPythonChat@@PAX@0@QAPAU10@AAPAU10@@Z ; std::construct_at<std::_List_node<CPythonChat::SWaitChat,void *> *,std::_List_node<CPythonChat::SWaitChat,void *> * &>
PUBLIC	??$forward@AAPAU?$_List_node@USWaitChat@CPythonChat@@PAX@std@@@std@@YAAAPAU?$_List_node@USWaitChat@CPythonChat@@PAX@0@AAPAU10@@Z ; std::forward<std::_List_node<CPythonChat::SWaitChat,void *> * &>
PUBLIC	??$addressof@PAU?$_List_node@USWaitChat@CPythonChat@@PAX@std@@@std@@YAPAPAU?$_List_node@USWaitChat@CPythonChat@@PAX@0@AAPAU10@@Z ; std::addressof<std::_List_node<CPythonChat::SWaitChat,void *> *>
PUBLIC	??$_Emplace_reallocate@ABQAUSChatLine@CPythonChat@@@?$vector@PAUSChatLine@CPythonChat@@V?$allocator@PAUSChatLine@CPythonChat@@@std@@@std@@AAEPAPAUSChatLine@CPythonChat@@QAPAU23@ABQAU23@@Z ; std::vector<CPythonChat::SChatLine *,std::allocator<CPythonChat::SChatLine *> >::_Emplace_reallocate<CPythonChat::SChatLine * const &>
PUBLIC	??$_Emplace_back_with_unused_capacity@ABQAUSChatLine@CPythonChat@@@?$vector@PAUSChatLine@CPythonChat@@V?$allocator@PAUSChatLine@CPythonChat@@@std@@@std@@AAEAAPAUSChatLine@CPythonChat@@ABQAU23@@Z ; std::vector<CPythonChat::SChatLine *,std::allocator<CPythonChat::SChatLine *> >::_Emplace_back_with_unused_capacity<CPythonChat::SChatLine * const &>
PUBLIC	??$_Emplace_reallocate@ABQAVCWhisper@@@?$vector@PAVCWhisper@@V?$allocator@PAVCWhisper@@@std@@@std@@AAEPAPAVCWhisper@@QAPAV2@ABQAV2@@Z ; std::vector<CWhisper *,std::allocator<CWhisper *> >::_Emplace_reallocate<CWhisper * const &>
PUBLIC	??$_Emplace_back_with_unused_capacity@ABQAVCWhisper@@@?$vector@PAVCWhisper@@V?$allocator@PAVCWhisper@@@std@@@std@@AAEAAPAVCWhisper@@ABQAV2@@Z ; std::vector<CWhisper *,std::allocator<CWhisper *> >::_Emplace_back_with_unused_capacity<CWhisper * const &>
PUBLIC	??$forward@ABQAVCWhisper@@@std@@YAABQAVCWhisper@@ABQAV1@@Z ; std::forward<CWhisper * const &>
PUBLIC	??$destroy_at@PAVCWhisper@@@std@@YAXQAPAVCWhisper@@@Z ; std::destroy_at<CWhisper *>
PUBLIC	??$_Emplace_reallocate@ABQAUSChatLine@CWhisper@@@?$vector@PAUSChatLine@CWhisper@@V?$allocator@PAUSChatLine@CWhisper@@@std@@@std@@AAEPAPAUSChatLine@CWhisper@@QAPAU23@ABQAU23@@Z ; std::vector<CWhisper::SChatLine *,std::allocator<CWhisper::SChatLine *> >::_Emplace_reallocate<CWhisper::SChatLine * const &>
PUBLIC	??$_Emplace_back_with_unused_capacity@ABQAUSChatLine@CWhisper@@@?$vector@PAUSChatLine@CWhisper@@V?$allocator@PAUSChatLine@CWhisper@@@std@@@std@@AAEAAPAUSChatLine@CWhisper@@ABQAU23@@Z ; std::vector<CWhisper::SChatLine *,std::allocator<CWhisper::SChatLine *> >::_Emplace_back_with_unused_capacity<CWhisper::SChatLine * const &>
PUBLIC	??$destroy_at@PAUSChatLine@CWhisper@@@std@@YAXQAPAUSChatLine@CWhisper@@@Z ; std::destroy_at<CWhisper::SChatLine *>
PUBLIC	??$construct_at@PAUSChatLine@CWhisper@@ABQAU12@@std@@YAPAPAUSChatLine@CWhisper@@QAPAU12@ABQAU12@@Z ; std::construct_at<CWhisper::SChatLine *,CWhisper::SChatLine * const &>
PUBLIC	??$destroy@PAUSChatLine@CWhisper@@@?$_Default_allocator_traits@V?$allocator@U?$_List_node@PAUSChatLine@CWhisper@@PAX@std@@@std@@@std@@SAXAAV?$allocator@U?$_List_node@PAUSChatLine@CWhisper@@PAX@std@@@1@QAPAUSChatLine@CWhisper@@@Z ; std::_Default_allocator_traits<std::allocator<std::_List_node<CWhisper::SChatLine *,void *> > >::destroy<CWhisper::SChatLine *>
PUBLIC	??$addressof@PAUSChatLine@CWhisper@@@std@@YAPAPAUSChatLine@CWhisper@@AAPAU12@@Z ; std::addressof<CWhisper::SChatLine *>
PUBLIC	??$construct_at@PAUSChatLine@CPythonChat@@ABQAU12@@std@@YAPAPAUSChatLine@CPythonChat@@QAPAU12@ABQAU12@@Z ; std::construct_at<CPythonChat::SChatLine *,CPythonChat::SChatLine * const &>
PUBLIC	??$construct@PAUSChatLine@CPythonChat@@ABQAU12@@?$_Default_allocator_traits@V?$allocator@U?$_List_node@PAUSChatLine@CPythonChat@@PAX@std@@@std@@@std@@SAXAAV?$allocator@U?$_List_node@PAUSChatLine@CPythonChat@@PAX@std@@@1@QAPAUSChatLine@CPythonChat@@ABQAU34@@Z ; std::_Default_allocator_traits<std::allocator<std::_List_node<CPythonChat::SChatLine *,void *> > >::construct<CPythonChat::SChatLine *,CPythonChat::SChatLine * const &>
PUBLIC	??$_Destroy_in_place@PAU?$_List_node@PAUSChatLine@CPythonChat@@PAX@std@@@std@@YAXAAPAU?$_List_node@PAUSChatLine@CPythonChat@@PAX@0@@Z ; std::_Destroy_in_place<std::_List_node<CPythonChat::SChatLine *,void *> *>
PUBLIC	??$construct@USWaitChat@CPythonChat@@ABU12@@?$_Default_allocator_traits@V?$allocator@U?$_List_node@USWaitChat@CPythonChat@@PAX@std@@@std@@@std@@SAXAAV?$allocator@U?$_List_node@USWaitChat@CPythonChat@@PAX@std@@@1@QAUSWaitChat@CPythonChat@@ABU34@@Z ; std::_Default_allocator_traits<std::allocator<std::_List_node<CPythonChat::SWaitChat,void *> > >::construct<CPythonChat::SWaitChat,CPythonChat::SWaitChat const &>
PUBLIC	??$_Destroy_in_place@PAU?$_List_node@USWaitChat@CPythonChat@@PAX@std@@@std@@YAXAAPAU?$_List_node@USWaitChat@CPythonChat@@PAX@0@@Z ; std::_Destroy_in_place<std::_List_node<CPythonChat::SWaitChat,void *> *>
PUBLIC	??$destroy_at@USWaitChat@CPythonChat@@@std@@YAXQAUSWaitChat@CPythonChat@@@Z ; std::destroy_at<CPythonChat::SWaitChat>
PUBLIC	??$_Emplace_back@ABH@?$_Uninitialized_backout_al@V?$allocator@H@std@@@std@@QAEXABH@Z ; std::_Uninitialized_backout_al<std::allocator<int> >::_Emplace_back<int const &>
PUBLIC	??$_To_address@PAH@std@@YA?A_PABQAH@Z		; std::_To_address<int *>
PUBLIC	??$_Fill_zero_memset@PAH@std@@YAXPAHI@Z		; std::_Fill_zero_memset<int *>
PUBLIC	??$_Unfancy@H@std@@YAPAHPAH@Z			; std::_Unfancy<int>
PUBLIC	??$_Is_all_bits_zero@H@std@@YA_NABH@Z		; std::_Is_all_bits_zero<int>
PUBLIC	??$_Uninitialized_move@PAHV?$allocator@H@std@@@std@@YAPAHQAH0PAHAAV?$allocator@H@0@@Z ; std::_Uninitialized_move<int *,std::allocator<int> >
PUBLIC	??$_Get_unwrapped@ABQAH@std@@YA?A_TABQAH@Z	; std::_Get_unwrapped<int * const &>
PUBLIC	??$_Allocate_at_least_helper@V?$allocator@H@std@@@std@@YAPAHAAV?$allocator@H@0@AAI@Z ; std::_Allocate_at_least_helper<std::allocator<int> >
PUBLIC	??$_Uninitialized_move@PAUSEmoticonsRecentChat@CPythonChat@@V?$allocator@USEmoticonsRecentChat@CPythonChat@@@std@@@std@@YAPAUSEmoticonsRecentChat@CPythonChat@@QAU12@0PAU12@AAV?$allocator@USEmoticonsRecentChat@CPythonChat@@@0@@Z ; std::_Uninitialized_move<CPythonChat::SEmoticonsRecentChat *,std::allocator<CPythonChat::SEmoticonsRecentChat> >
PUBLIC	??$_Get_unwrapped@ABQAUSEmoticonsRecentChat@CPythonChat@@@std@@YA?A_TABQAUSEmoticonsRecentChat@CPythonChat@@@Z ; std::_Get_unwrapped<CPythonChat::SEmoticonsRecentChat * const &>
PUBLIC	??$_Allocate_at_least_helper@V?$allocator@USEmoticonsRecentChat@CPythonChat@@@std@@@std@@YAPAUSEmoticonsRecentChat@CPythonChat@@AAV?$allocator@USEmoticonsRecentChat@CPythonChat@@@0@AAI@Z ; std::_Allocate_at_least_helper<std::allocator<CPythonChat::SEmoticonsRecentChat> >
PUBLIC	??$construct@USEmoticonsRecentChat@CPythonChat@@ABU12@@?$_Default_allocator_traits@V?$allocator@USEmoticonsRecentChat@CPythonChat@@@std@@@std@@SAXAAV?$allocator@USEmoticonsRecentChat@CPythonChat@@@1@QAUSEmoticonsRecentChat@CPythonChat@@ABU34@@Z ; std::_Default_allocator_traits<std::allocator<CPythonChat::SEmoticonsRecentChat> >::construct<CPythonChat::SEmoticonsRecentChat,CPythonChat::SEmoticonsRecentChat const &>
PUBLIC	??$destroy_at@USEmoticonsRecentChat@CPythonChat@@@std@@YAXQAUSEmoticonsRecentChat@CPythonChat@@@Z ; std::destroy_at<CPythonChat::SEmoticonsRecentChat>
PUBLIC	??$_Destroy_in_place@PAU?$_Tree_node@U?$pair@$$CBHUSChatSet@CPythonChat@@@std@@PAX@std@@@std@@YAXAAPAU?$_Tree_node@U?$pair@$$CBHUSChatSet@CPythonChat@@@std@@PAX@0@@Z ; std::_Destroy_in_place<std::_Tree_node<std::pair<int const ,CPythonChat::SChatSet>,void *> *>
PUBLIC	??$destroy@U?$pair@$$CBHUSChatSet@CPythonChat@@@std@@@?$_Default_allocator_traits@V?$allocator@U?$_Tree_node@U?$pair@$$CBHUSChatSet@CPythonChat@@@std@@PAX@std@@@std@@@std@@SAXAAV?$allocator@U?$_Tree_node@U?$pair@$$CBHUSChatSet@CPythonChat@@@std@@PAX@std@@@1@QAU?$pair@$$CBHUSChatSet@CPythonChat@@@1@@Z ; std::_Default_allocator_traits<std::allocator<std::_Tree_node<std::pair<int const ,CPythonChat::SChatSet>,void *> > >::destroy<std::pair<int const ,CPythonChat::SChatSet> >
PUBLIC	??$_Destroy_in_place@PAU?$_Tree_node@U?$pair@$$CBV?$basic_string@DU?$char_traits@D@std@@V?$allocator@D@2@@std@@PAVCWhisper@@@std@@PAX@std@@@std@@YAXAAPAU?$_Tree_node@U?$pair@$$CBV?$basic_string@DU?$char_traits@D@std@@V?$allocator@D@2@@std@@PAVCWhisper@@@std@@PAX@0@@Z ; std::_Destroy_in_place<std::_Tree_node<std::pair<std::basic_string<char,std::char_traits<char>,std::allocator<char> > const ,CWhisper *>,void *> *>
PUBLIC	??$destroy@U?$pair@$$CBV?$basic_string@DU?$char_traits@D@std@@V?$allocator@D@2@@std@@PAVCWhisper@@@std@@@?$_Default_allocator_traits@V?$allocator@U?$_Tree_node@U?$pair@$$CBV?$basic_string@DU?$char_traits@D@std@@V?$allocator@D@2@@std@@PAVCWhisper@@@std@@PAX@std@@@std@@@std@@SAXAAV?$allocator@U?$_Tree_node@U?$pair@$$CBV?$basic_string@DU?$char_traits@D@std@@V?$allocator@D@2@@std@@PAVCWhisper@@@std@@PAX@std@@@1@QAU?$pair@$$CBV?$basic_string@DU?$char_traits@D@std@@V?$allocator@D@2@@std@@PAVCWhisper@@@1@@Z ; std::_Default_allocator_traits<std::allocator<std::_Tree_node<std::pair<std::basic_string<char,std::char_traits<char>,std::allocator<char> > const ,CWhisper *>,void *> > >::destroy<std::pair<std::basic_string<char,std::char_traits<char>,std::allocator<char> > const ,CWhisper *> >
PUBLIC	??$_Destroy_in_place@PAU?$_Tree_node@U?$pair@$$CBV?$basic_string@DU?$char_traits@D@std@@V?$allocator@D@2@@std@@USEmoticonsRecentChat@CPythonChat@@@std@@PAX@std@@@std@@YAXAAPAU?$_Tree_node@U?$pair@$$CBV?$basic_string@DU?$char_traits@D@std@@V?$allocator@D@2@@std@@USEmoticonsRecentChat@CPythonChat@@@std@@PAX@0@@Z ; std::_Destroy_in_place<std::_Tree_node<std::pair<std::basic_string<char,std::char_traits<char>,std::allocator<char> > const ,CPythonChat::SEmoticonsRecentChat>,void *> *>
PUBLIC	??$destroy@U?$pair@$$CBV?$basic_string@DU?$char_traits@D@std@@V?$allocator@D@2@@std@@USEmoticonsRecentChat@CPythonChat@@@std@@@?$_Default_allocator_traits@V?$allocator@U?$_Tree_node@U?$pair@$$CBV?$basic_string@DU?$char_traits@D@std@@V?$allocator@D@2@@std@@USEmoticonsRecentChat@CPythonChat@@@std@@PAX@std@@@std@@@std@@SAXAAV?$allocator@U?$_Tree_node@U?$pair@$$CBV?$basic_string@DU?$char_traits@D@std@@V?$allocator@D@2@@std@@USEmoticonsRecentChat@CPythonChat@@@std@@PAX@std@@@1@QAU?$pair@$$CBV?$basic_string@DU?$char_traits@D@std@@V?$allocator@D@2@@std@@USEmoticonsRecentChat@CPythonChat@@@1@@Z ; std::_Default_allocator_traits<std::allocator<std::_Tree_node<std::pair<std::basic_string<char,std::char_traits<char>,std::allocator<char> > const ,CPythonChat::SEmoticonsRecentChat>,void *> > >::destroy<std::pair<std::basic_string<char,std::char_traits<char>,std::allocator<char> > const ,CPythonChat::SEmoticonsRecentChat> >
PUBLIC	??$forward@PAU?$_Tree_node@U?$pair@$$CBV?$basic_string@DU?$char_traits@D@std@@V?$allocator@D@2@@std@@PAVCWhisper@@@std@@PAX@std@@@std@@YA$$QAPAU?$_Tree_node@U?$pair@$$CBV?$basic_string@DU?$char_traits@D@std@@V?$allocator@D@2@@std@@PAVCWhisper@@@std@@PAX@0@AAPAU10@@Z ; std::forward<std::_Tree_node<std::pair<std::basic_string<char,std::char_traits<char>,std::allocator<char> > const ,CWhisper *>,void *> *>
PUBLIC	??$forward@AAPAU?$_Tree_node@U?$pair@$$CBV?$basic_string@DU?$char_traits@D@std@@V?$allocator@D@2@@std@@PAVCWhisper@@@std@@PAX@std@@@std@@YAAAPAU?$_Tree_node@U?$pair@$$CBV?$basic_string@DU?$char_traits@D@std@@V?$allocator@D@2@@std@@PAVCWhisper@@@std@@PAX@0@AAPAU10@@Z ; std::forward<std::_Tree_node<std::pair<std::basic_string<char,std::char_traits<char>,std::allocator<char> > const ,CWhisper *>,void *> * &>
PUBLIC	??$_Construct_in_place@PAU?$_Tree_node@U?$pair@$$CBV?$basic_string@DU?$char_traits@D@std@@V?$allocator@D@2@@std@@PAVCWhisper@@@std@@PAX@std@@AAPAU12@@std@@YAXAAPAU?$_Tree_node@U?$pair@$$CBV?$basic_string@DU?$char_traits@D@std@@V?$allocator@D@2@@std@@PAVCWhisper@@@std@@PAX@0@0@Z ; std::_Construct_in_place<std::_Tree_node<std::pair<std::basic_string<char,std::char_traits<char>,std::allocator<char> > const ,CWhisper *>,void *> *,std::_Tree_node<std::pair<std::basic_string<char,std::char_traits<char>,std::allocator<char> > const ,CWhisper *>,void *> * &>
PUBLIC	??$construct@U?$pair@$$CBV?$basic_string@DU?$char_traits@D@std@@V?$allocator@D@2@@std@@PAVCWhisper@@@std@@U12@@?$_Default_allocator_traits@V?$allocator@U?$_Tree_node@U?$pair@$$CBV?$basic_string@DU?$char_traits@D@std@@V?$allocator@D@2@@std@@PAVCWhisper@@@std@@PAX@std@@@std@@@std@@SAXAAV?$allocator@U?$_Tree_node@U?$pair@$$CBV?$basic_string@DU?$char_traits@D@std@@V?$allocator@D@2@@std@@PAVCWhisper@@@std@@PAX@std@@@1@QAU?$pair@$$CBV?$basic_string@DU?$char_traits@D@std@@V?$allocator@D@2@@std@@PAVCWhisper@@@1@$$QAU31@@Z ; std::_Default_allocator_traits<std::allocator<std::_Tree_node<std::pair<std::basic_string<char,std::char_traits<char>,std::allocator<char> > const ,CWhisper *>,void *> > >::construct<std::pair<std::basic_string<char,std::char_traits<char>,std::allocator<char> > const ,CWhisper *>,std::pair<std::basic_string<char,std::char_traits<char>,std::allocator<char> > const ,CWhisper *> >
PUBLIC	??$_Kfn@$$CBV?$basic_string@DU?$char_traits@D@std@@V?$allocator@D@2@@std@@PAVCWhisper@@@?$_Tmap_traits@V?$basic_string@DU?$char_traits@D@std@@V?$allocator@D@2@@std@@PAVCWhisper@@U?$less@V?$basic_string@DU?$char_traits@D@std@@V?$allocator@D@2@@std@@@2@V?$allocator@U?$pair@$$CBV?$basic_string@DU?$char_traits@D@std@@V?$allocator@D@2@@std@@PAVCWhisper@@@std@@@2@$0A@@std@@SAABV?$basic_string@DU?$char_traits@D@std@@V?$allocator@D@2@@1@ABU?$pair@$$CBV?$basic_string@DU?$char_traits@D@std@@V?$allocator@D@2@@std@@PAVCWhisper@@@1@@Z ; std::_Tmap_traits<std::basic_string<char,std::char_traits<char>,std::allocator<char> >,CWhisper *,std::less<std::basic_string<char,std::char_traits<char>,std::allocator<char> > >,std::allocator<std::pair<std::basic_string<char,std::char_traits<char>,std::allocator<char> > const ,CWhisper *> >,0>::_Kfn<std::basic_string<char,std::char_traits<char>,std::allocator<char> > const ,CWhisper *>
PUBLIC	??$construct@PAUSChatLine@CPythonChat@@AAPAU12@@?$_Default_allocator_traits@V?$allocator@U?$_List_node@PAUSChatLine@CPythonChat@@PAX@std@@@std@@@std@@SAXAAV?$allocator@U?$_List_node@PAUSChatLine@CPythonChat@@PAX@std@@@1@QAPAUSChatLine@CPythonChat@@AAPAU34@@Z ; std::_Default_allocator_traits<std::allocator<std::_List_node<CPythonChat::SChatLine *,void *> > >::construct<CPythonChat::SChatLine *,CPythonChat::SChatLine * &>
PUBLIC	??$construct_at@PAUSChatLine@CPythonChat@@AAPAU12@@std@@YAPAPAUSChatLine@CPythonChat@@QAPAU12@AAPAU12@@Z ; std::construct_at<CPythonChat::SChatLine *,CPythonChat::SChatLine * &>
PUBLIC	??$forward@PAU?$_Tree_node@U?$pair@$$CBV?$basic_string@DU?$char_traits@D@std@@V?$allocator@D@2@@std@@USEmoticonsRecentChat@CPythonChat@@@std@@PAX@std@@@std@@YA$$QAPAU?$_Tree_node@U?$pair@$$CBV?$basic_string@DU?$char_traits@D@std@@V?$allocator@D@2@@std@@USEmoticonsRecentChat@CPythonChat@@@std@@PAX@0@AAPAU10@@Z ; std::forward<std::_Tree_node<std::pair<std::basic_string<char,std::char_traits<char>,std::allocator<char> > const ,CPythonChat::SEmoticonsRecentChat>,void *> *>
PUBLIC	??$forward@AAPAU?$_Tree_node@U?$pair@$$CBV?$basic_string@DU?$char_traits@D@std@@V?$allocator@D@2@@std@@USEmoticonsRecentChat@CPythonChat@@@std@@PAX@std@@@std@@YAAAPAU?$_Tree_node@U?$pair@$$CBV?$basic_string@DU?$char_traits@D@std@@V?$allocator@D@2@@std@@USEmoticonsRecentChat@CPythonChat@@@std@@PAX@0@AAPAU10@@Z ; std::forward<std::_Tree_node<std::pair<std::basic_string<char,std::char_traits<char>,std::allocator<char> > const ,CPythonChat::SEmoticonsRecentChat>,void *> * &>
PUBLIC	??$_Construct_in_place@PAU?$_Tree_node@U?$pair@$$CBV?$basic_string@DU?$char_traits@D@std@@V?$allocator@D@2@@std@@USEmoticonsRecentChat@CPythonChat@@@std@@PAX@std@@AAPAU12@@std@@YAXAAPAU?$_Tree_node@U?$pair@$$CBV?$basic_string@DU?$char_traits@D@std@@V?$allocator@D@2@@std@@USEmoticonsRecentChat@CPythonChat@@@std@@PAX@0@0@Z ; std::_Construct_in_place<std::_Tree_node<std::pair<std::basic_string<char,std::char_traits<char>,std::allocator<char> > const ,CPythonChat::SEmoticonsRecentChat>,void *> *,std::_Tree_node<std::pair<std::basic_string<char,std::char_traits<char>,std::allocator<char> > const ,CPythonChat::SEmoticonsRecentChat>,void *> * &>
PUBLIC	??$construct@U?$pair@$$CBV?$basic_string@DU?$char_traits@D@std@@V?$allocator@D@2@@std@@USEmoticonsRecentChat@CPythonChat@@@std@@U12@@?$_Default_allocator_traits@V?$allocator@U?$_Tree_node@U?$pair@$$CBV?$basic_string@DU?$char_traits@D@std@@V?$allocator@D@2@@std@@USEmoticonsRecentChat@CPythonChat@@@std@@PAX@std@@@std@@@std@@SAXAAV?$allocator@U?$_Tree_node@U?$pair@$$CBV?$basic_string@DU?$char_traits@D@std@@V?$allocator@D@2@@std@@USEmoticonsRecentChat@CPythonChat@@@std@@PAX@std@@@1@QAU?$pair@$$CBV?$basic_string@DU?$char_traits@D@std@@V?$allocator@D@2@@std@@USEmoticonsRecentChat@CPythonChat@@@1@$$QAU31@@Z ; std::_Default_allocator_traits<std::allocator<std::_Tree_node<std::pair<std::basic_string<char,std::char_traits<char>,std::allocator<char> > const ,CPythonChat::SEmoticonsRecentChat>,void *> > >::construct<std::pair<std::basic_string<char,std::char_traits<char>,std::allocator<char> > const ,CPythonChat::SEmoticonsRecentChat>,std::pair<std::basic_string<char,std::char_traits<char>,std::allocator<char> > const ,CPythonChat::SEmoticonsRecentChat> >
PUBLIC	??$_Kfn@$$CBV?$basic_string@DU?$char_traits@D@std@@V?$allocator@D@2@@std@@USEmoticonsRecentChat@CPythonChat@@@?$_Tmap_traits@V?$basic_string@DU?$char_traits@D@std@@V?$allocator@D@2@@std@@USEmoticonsRecentChat@CPythonChat@@U?$less@V?$basic_string@DU?$char_traits@D@std@@V?$allocator@D@2@@std@@@2@V?$allocator@U?$pair@$$CBV?$basic_string@DU?$char_traits@D@std@@V?$allocator@D@2@@std@@USEmoticonsRecentChat@CPythonChat@@@std@@@2@$0A@@std@@SAABV?$basic_string@DU?$char_traits@D@std@@V?$allocator@D@2@@1@ABU?$pair@$$CBV?$basic_string@DU?$char_traits@D@std@@V?$allocator@D@2@@std@@USEmoticonsRecentChat@CPythonChat@@@1@@Z ; std::_Tmap_traits<std::basic_string<char,std::char_traits<char>,std::allocator<char> >,CPythonChat::SEmoticonsRecentChat,std::less<std::basic_string<char,std::char_traits<char>,std::allocator<char> > >,std::allocator<std::pair<std::basic_string<char,std::char_traits<char>,std::allocator<char> > const ,CPythonChat::SEmoticonsRecentChat> >,0>::_Kfn<std::basic_string<char,std::char_traits<char>,std::allocator<char> > const ,CPythonChat::SEmoticonsRecentChat>
PUBLIC	??$forward@V?$_Tree_iterator@V?$_Tree_val@U?$_Tree_simple_types@U?$pair@$$CBHUSChatSet@CPythonChat@@@std@@@std@@@std@@@std@@@std@@YA$$QAV?$_Tree_iterator@V?$_Tree_val@U?$_Tree_simple_types@U?$pair@$$CBHUSChatSet@CPythonChat@@@std@@@std@@@std@@@0@AAV10@@Z ; std::forward<std::_Tree_iterator<std::_Tree_val<std::_Tree_simple_types<std::pair<int const ,CPythonChat::SChatSet> > > > >
PUBLIC	??$?0PAU?$_Tree_node@U?$pair@$$CBHUSChatSet@CPythonChat@@@std@@PAX@std@@_N$0A@@?$pair@PAU?$_Tree_node@U?$pair@$$CBHUSChatSet@CPythonChat@@@std@@PAX@std@@_N@std@@QAE@$$QAPAU?$_Tree_node@U?$pair@$$CBHUSChatSet@CPythonChat@@@std@@PAX@1@$$QA_N@Z ; std::pair<std::_Tree_node<std::pair<int const ,CPythonChat::SChatSet>,void *> *,bool>::pair<std::_Tree_node<std::pair<int const ,CPythonChat::SChatSet>,void *> *,bool><std::_Tree_node<std::pair<int const ,CPythonChat::SChatSet>,void *> *,bool,0>
PUBLIC	??$?0AAPAU?$_Tree_node@U?$pair@$$CBHUSChatSet@CPythonChat@@@std@@PAX@std@@_N$0A@@?$pair@PAU?$_Tree_node@U?$pair@$$CBHUSChatSet@CPythonChat@@@std@@PAX@std@@_N@std@@QAE@AAPAU?$_Tree_node@U?$pair@$$CBHUSChatSet@CPythonChat@@@std@@PAX@1@$$QA_N@Z ; std::pair<std::_Tree_node<std::pair<int const ,CPythonChat::SChatSet>,void *> *,bool>::pair<std::_Tree_node<std::pair<int const ,CPythonChat::SChatSet>,void *> *,bool><std::_Tree_node<std::pair<int const ,CPythonChat::SChatSet>,void *> * &,bool,0>
PUBLIC	??$_Kfn@$$CBHUSChatSet@CPythonChat@@@?$_Tmap_traits@HUSChatSet@CPythonChat@@U?$less@H@std@@V?$allocator@U?$pair@$$CBHUSChatSet@CPythonChat@@@std@@@4@$0A@@std@@SAABHABU?$pair@$$CBHUSChatSet@CPythonChat@@@1@@Z ; std::_Tmap_traits<int,CPythonChat::SChatSet,std::less<int>,std::allocator<std::pair<int const ,CPythonChat::SChatSet> >,0>::_Kfn<int const ,CPythonChat::SChatSet>
PUBLIC	??$?0U?$pair@KUSChatSet@CPythonChat@@@std@@@?$_Tree_temp_node@V?$allocator@U?$_Tree_node@U?$pair@$$CBHUSChatSet@CPythonChat@@@std@@PAX@std@@@std@@@std@@QAE@AAV?$allocator@U?$_Tree_node@U?$pair@$$CBHUSChatSet@CPythonChat@@@std@@PAX@std@@@1@PAU?$_Tree_node@U?$pair@$$CBHUSChatSet@CPythonChat@@@std@@PAX@1@$$QAU?$pair@KUSChatSet@CPythonChat@@@1@@Z ; std::_Tree_temp_node<std::allocator<std::_Tree_node<std::pair<int const ,CPythonChat::SChatSet>,void *> > >::_Tree_temp_node<std::allocator<std::_Tree_node<std::pair<int const ,CPythonChat::SChatSet>,void *> > ><std::pair<unsigned long,CPythonChat::SChatSet> >
PUBLIC	??$?0$$V@?$_Compressed_pair@V?$allocator@U?$_Tree_node@U?$pair@$$CBHUSChatSet@CPythonChat@@@std@@PAX@std@@@std@@V?$_Tree_val@U?$_Tree_simple_types@U?$pair@$$CBHUSChatSet@CPythonChat@@@std@@@std@@@2@$00@std@@QAE@U_Zero_then_variadic_args_t@1@@Z ; std::_Compressed_pair<std::allocator<std::_Tree_node<std::pair<int const ,CPythonChat::SChatSet>,void *> >,std::_Tree_val<std::_Tree_simple_types<std::pair<int const ,CPythonChat::SChatSet> > >,1>::_Compressed_pair<std::allocator<std::_Tree_node<std::pair<int const ,CPythonChat::SChatSet>,void *> >,std::_Tree_val<std::_Tree_simple_types<std::pair<int const ,CPythonChat::SChatSet> > >,1><>
PUBLIC	??$?0$$V@?$_Compressed_pair@V?$allocator@U?$_Tree_node@U?$pair@$$CBV?$basic_string@DU?$char_traits@D@std@@V?$allocator@D@2@@std@@PAVCWhisper@@@std@@PAX@std@@@std@@V?$_Tree_val@U?$_Tree_simple_types@U?$pair@$$CBV?$basic_string@DU?$char_traits@D@std@@V?$allocator@D@2@@std@@PAVCWhisper@@@std@@@std@@@2@$00@std@@QAE@U_Zero_then_variadic_args_t@1@@Z ; std::_Compressed_pair<std::allocator<std::_Tree_node<std::pair<std::basic_string<char,std::char_traits<char>,std::allocator<char> > const ,CWhisper *>,void *> >,std::_Tree_val<std::_Tree_simple_types<std::pair<std::basic_string<char,std::char_traits<char>,std::allocator<char> > const ,CWhisper *> > >,1>::_Compressed_pair<std::allocator<std::_Tree_node<std::pair<std::basic_string<char,std::char_traits<char>,std::allocator<char> > const ,CWhisper *>,void *> >,std::_Tree_val<std::_Tree_simple_types<std::pair<std::basic_string<char,std::char_traits<char>,std::allocator<char> > const ,CWhisper *> > >,1><>
PUBLIC	??$?0$$V@?$_Compressed_pair@V?$allocator@U?$_Tree_node@U?$pair@$$CBV?$basic_string@DU?$char_traits@D@std@@V?$allocator@D@2@@std@@USEmoticonsRecentChat@CPythonChat@@@std@@PAX@std@@@std@@V?$_Tree_val@U?$_Tree_simple_types@U?$pair@$$CBV?$basic_string@DU?$char_traits@D@std@@V?$allocator@D@2@@std@@USEmoticonsRecentChat@CPythonChat@@@std@@@std@@@2@$00@std@@QAE@U_Zero_then_variadic_args_t@1@@Z ; std::_Compressed_pair<std::allocator<std::_Tree_node<std::pair<std::basic_string<char,std::char_traits<char>,std::allocator<char> > const ,CPythonChat::SEmoticonsRecentChat>,void *> >,std::_Tree_val<std::_Tree_simple_types<std::pair<std::basic_string<char,std::char_traits<char>,std::allocator<char> > const ,CPythonChat::SEmoticonsRecentChat> > >,1>::_Compressed_pair<std::allocator<std::_Tree_node<std::pair<std::basic_string<char,std::char_traits<char>,std::allocator<char> > const ,CPythonChat::SEmoticonsRecentChat>,void *> >,std::_Tree_val<std::_Tree_simple_types<std::pair<std::basic_string<char,std::char_traits<char>,std::allocator<char> > const ,CPythonChat::SEmoticonsRecentChat> > >,1><>
PUBLIC	??1?$_Tree_temp_node_alloc@V?$allocator@U?$_Tree_node@U?$pair@$$CBV?$basic_string@DU?$char_traits@D@std@@V?$allocator@D@2@@std@@PAVCWhisper@@@std@@PAX@std@@@std@@@std@@QAE@XZ ; std::_Tree_temp_node_alloc<std::allocator<std::_Tree_node<std::pair<std::basic_string<char,std::char_traits<char>,std::allocator<char> > const ,CWhisper *>,void *> > >::~_Tree_temp_node_alloc<std::allocator<std::_Tree_node<std::pair<std::basic_string<char,std::char_traits<char>,std::allocator<char> > const ,CWhisper *>,void *> > >
PUBLIC	??1?$_Tree_temp_node_alloc@V?$allocator@U?$_Tree_node@U?$pair@$$CBV?$basic_string@DU?$char_traits@D@std@@V?$allocator@D@2@@std@@USEmoticonsRecentChat@CPythonChat@@@std@@PAX@std@@@std@@@std@@QAE@XZ ; std::_Tree_temp_node_alloc<std::allocator<std::_Tree_node<std::pair<std::basic_string<char,std::char_traits<char>,std::allocator<char> > const ,CPythonChat::SEmoticonsRecentChat>,void *> > >::~_Tree_temp_node_alloc<std::allocator<std::_Tree_node<std::pair<std::basic_string<char,std::char_traits<char>,std::allocator<char> > const ,CPythonChat::SEmoticonsRecentChat>,void *> > >
PUBLIC	??0?$allocator@H@std@@QAE@XZ			; std::allocator<int>::allocator<int>
PUBLIC	?deallocate@?$allocator@H@std@@QAEXQAHI@Z	; std::allocator<int>::deallocate
PUBLIC	??0?$allocator@PAUSChatLine@CWhisper@@@std@@QAE@XZ ; std::allocator<CWhisper::SChatLine *>::allocator<CWhisper::SChatLine *>
PUBLIC	?allocate@?$allocator@PAUSChatLine@CWhisper@@@std@@QAEPAPAUSChatLine@CWhisper@@I@Z ; std::allocator<CWhisper::SChatLine *>::allocate
PUBLIC	?pop_back@?$deque@PAUSChatLine@CWhisper@@V?$allocator@PAUSChatLine@CWhisper@@@std@@@std@@QAEXXZ ; std::deque<CWhisper::SChatLine *,std::allocator<CWhisper::SChatLine *> >::pop_back
PUBLIC	?_Growmap@?$deque@PAUSChatLine@CWhisper@@V?$allocator@PAUSChatLine@CWhisper@@@std@@@std@@AAEXI@Z ; std::deque<CWhisper::SChatLine *,std::allocator<CWhisper::SChatLine *> >::_Growmap
PUBLIC	?_Reset_map@?$deque@PAUSChatLine@CWhisper@@V?$allocator@PAUSChatLine@CWhisper@@@std@@@std@@AAEXXZ ; std::deque<CWhisper::SChatLine *,std::allocator<CWhisper::SChatLine *> >::_Reset_map
PUBLIC	?_Getblock@?$deque@PAUSChatLine@CWhisper@@V?$allocator@PAUSChatLine@CWhisper@@@std@@@std@@ABEHI@Z ; std::deque<CWhisper::SChatLine *,std::allocator<CWhisper::SChatLine *> >::_Getblock
PUBLIC	?_Get_data@?$deque@PAUSChatLine@CWhisper@@V?$allocator@PAUSChatLine@CWhisper@@@std@@@std@@ABEABV?$_Deque_val@U?$_Deque_simple_types@PAUSChatLine@CWhisper@@@std@@@2@XZ ; std::deque<CWhisper::SChatLine *,std::allocator<CWhisper::SChatLine *> >::_Get_data
PUBLIC	?_Map@?$deque@PAUSChatLine@CWhisper@@V?$allocator@PAUSChatLine@CWhisper@@@std@@@std@@AAEAAPAPAPAUSChatLine@CWhisper@@XZ ; std::deque<CWhisper::SChatLine *,std::allocator<CWhisper::SChatLine *> >::_Map
PUBLIC	?_Mapsize@?$deque@PAUSChatLine@CWhisper@@V?$allocator@PAUSChatLine@CWhisper@@@std@@@std@@AAEAAIXZ ; std::deque<CWhisper::SChatLine *,std::allocator<CWhisper::SChatLine *> >::_Mapsize
PUBLIC	??0?$_Deque_val@U?$_Deque_simple_types@PAUSChatLine@CWhisper@@@std@@@std@@QAE@XZ ; std::_Deque_val<std::_Deque_simple_types<CWhisper::SChatLine *> >::_Deque_val<std::_Deque_simple_types<CWhisper::SChatLine *> >
PUBLIC	?_Subscript@?$_Deque_val@U?$_Deque_simple_types@PAUSChatLine@CWhisper@@@std@@@std@@QAEAAPAUSChatLine@CWhisper@@I@Z ; std::_Deque_val<std::_Deque_simple_types<CWhisper::SChatLine *> >::_Subscript
PUBLIC	?_Subscript@?$_Deque_val@U?$_Deque_simple_types@PAUSChatLine@CWhisper@@@std@@@std@@QBEABQAUSChatLine@CWhisper@@I@Z ; std::_Deque_val<std::_Deque_simple_types<CWhisper::SChatLine *> >::_Subscript
PUBLIC	?_Address_subscript@?$_Deque_val@U?$_Deque_simple_types@PAUSChatLine@CWhisper@@@std@@@std@@QAEPAPAUSChatLine@CWhisper@@I@Z ; std::_Deque_val<std::_Deque_simple_types<CWhisper::SChatLine *> >::_Address_subscript
PUBLIC	?_Setcont@?$_Deque_const_iterator@V?$_Deque_val@U?$_Deque_simple_types@PAUSChatLine@CWhisper@@@std@@@std@@@std@@QAEXPBV?$_Deque_val@U?$_Deque_simple_types@PAUSChatLine@CWhisper@@@std@@@2@@Z ; std::_Deque_const_iterator<std::_Deque_val<std::_Deque_simple_types<CWhisper::SChatLine *> > >::_Setcont
PUBLIC	??0?$_Deque_unchecked_const_iterator@V?$_Deque_val@U?$_Deque_simple_types@PAUSChatLine@CWhisper@@@std@@@std@@@std@@QAE@IPBU_Container_base12@1@@Z ; std::_Deque_unchecked_const_iterator<std::_Deque_val<std::_Deque_simple_types<CWhisper::SChatLine *> > >::_Deque_unchecked_const_iterator<std::_Deque_val<std::_Deque_simple_types<CWhisper::SChatLine *> > >
PUBLIC	??D?$_Deque_unchecked_const_iterator@V?$_Deque_val@U?$_Deque_simple_types@PAUSChatLine@CWhisper@@@std@@@std@@@std@@QBEABQAUSChatLine@CWhisper@@XZ ; std::_Deque_unchecked_const_iterator<std::_Deque_val<std::_Deque_simple_types<CWhisper::SChatLine *> > >::operator*
PUBLIC	??E?$_Deque_unchecked_const_iterator@V?$_Deque_val@U?$_Deque_simple_types@PAUSChatLine@CWhisper@@@std@@@std@@@std@@QAEAAV01@XZ ; std::_Deque_unchecked_const_iterator<std::_Deque_val<std::_Deque_simple_types<CWhisper::SChatLine *> > >::operator++
PUBLIC	?_Get_first@?$_Compressed_pair@V?$allocator@PAUSChatLine@CWhisper@@@std@@V?$_Deque_val@U?$_Deque_simple_types@PAUSChatLine@CWhisper@@@std@@@2@$00@std@@QAEAAV?$allocator@PAUSChatLine@CWhisper@@@2@XZ ; std::_Compressed_pair<std::allocator<CWhisper::SChatLine *>,std::_Deque_val<std::_Deque_simple_types<CWhisper::SChatLine *> >,1>::_Get_first
PUBLIC	??0?$allocator@U?$_List_node@PAUSChatLine@CWhisper@@PAX@std@@@std@@QAE@XZ ; std::allocator<std::_List_node<CWhisper::SChatLine *,void *> >::allocator<std::_List_node<CWhisper::SChatLine *,void *> >
PUBLIC	?allocate@?$allocator@U?$_List_node@PAUSChatLine@CWhisper@@PAX@std@@@std@@QAEPAU?$_List_node@PAUSChatLine@CWhisper@@PAX@2@I@Z ; std::allocator<std::_List_node<CWhisper::SChatLine *,void *> >::allocate
PUBLIC	??0?$_List_val@U?$_List_simple_types@PAUSChatLine@CWhisper@@@std@@@std@@QAE@XZ ; std::_List_val<std::_List_simple_types<CWhisper::SChatLine *> >::_List_val<std::_List_simple_types<CWhisper::SChatLine *> >
PUBLIC	?_Get_first@?$_Compressed_pair@V?$allocator@U?$_List_node@PAUSChatLine@CWhisper@@PAX@std@@@std@@V?$_List_val@U?$_List_simple_types@PAUSChatLine@CWhisper@@@std@@@2@$00@std@@QAEAAV?$allocator@U?$_List_node@PAUSChatLine@CWhisper@@PAX@std@@@2@XZ ; std::_Compressed_pair<std::allocator<std::_List_node<CWhisper::SChatLine *,void *> >,std::_List_val<std::_List_simple_types<CWhisper::SChatLine *> >,1>::_Get_first
PUBLIC	??0?$allocator@PAUSChatLine@CPythonChat@@@std@@QAE@XZ ; std::allocator<CPythonChat::SChatLine *>::allocator<CPythonChat::SChatLine *>
PUBLIC	?allocate@?$allocator@PAUSChatLine@CPythonChat@@@std@@QAEPAPAUSChatLine@CPythonChat@@I@Z ; std::allocator<CPythonChat::SChatLine *>::allocate
PUBLIC	?pop_back@?$deque@PAUSChatLine@CPythonChat@@V?$allocator@PAUSChatLine@CPythonChat@@@std@@@std@@QAEXXZ ; std::deque<CPythonChat::SChatLine *,std::allocator<CPythonChat::SChatLine *> >::pop_back
PUBLIC	?_Growmap@?$deque@PAUSChatLine@CPythonChat@@V?$allocator@PAUSChatLine@CPythonChat@@@std@@@std@@AAEXI@Z ; std::deque<CPythonChat::SChatLine *,std::allocator<CPythonChat::SChatLine *> >::_Growmap
PUBLIC	?_Reset_map@?$deque@PAUSChatLine@CPythonChat@@V?$allocator@PAUSChatLine@CPythonChat@@@std@@@std@@AAEXXZ ; std::deque<CPythonChat::SChatLine *,std::allocator<CPythonChat::SChatLine *> >::_Reset_map
PUBLIC	?_Getblock@?$deque@PAUSChatLine@CPythonChat@@V?$allocator@PAUSChatLine@CPythonChat@@@std@@@std@@ABEHI@Z ; std::deque<CPythonChat::SChatLine *,std::allocator<CPythonChat::SChatLine *> >::_Getblock
PUBLIC	?_Get_data@?$deque@PAUSChatLine@CPythonChat@@V?$allocator@PAUSChatLine@CPythonChat@@@std@@@std@@ABEABV?$_Deque_val@U?$_Deque_simple_types@PAUSChatLine@CPythonChat@@@std@@@2@XZ ; std::deque<CPythonChat::SChatLine *,std::allocator<CPythonChat::SChatLine *> >::_Get_data
PUBLIC	?_Map@?$deque@PAUSChatLine@CPythonChat@@V?$allocator@PAUSChatLine@CPythonChat@@@std@@@std@@AAEAAPAPAPAUSChatLine@CPythonChat@@XZ ; std::deque<CPythonChat::SChatLine *,std::allocator<CPythonChat::SChatLine *> >::_Map
PUBLIC	?_Mapsize@?$deque@PAUSChatLine@CPythonChat@@V?$allocator@PAUSChatLine@CPythonChat@@@std@@@std@@AAEAAIXZ ; std::deque<CPythonChat::SChatLine *,std::allocator<CPythonChat::SChatLine *> >::_Mapsize
PUBLIC	?_Myoff@?$deque@PAUSChatLine@CPythonChat@@V?$allocator@PAUSChatLine@CPythonChat@@@std@@@std@@ABEABIXZ ; std::deque<CPythonChat::SChatLine *,std::allocator<CPythonChat::SChatLine *> >::_Myoff
PUBLIC	??0?$list@PAUSChatLine@CPythonChat@@V?$allocator@PAUSChatLine@CPythonChat@@@std@@@std@@QAE@$$QAV01@@Z ; std::list<CPythonChat::SChatLine *,std::allocator<CPythonChat::SChatLine *> >::list<CPythonChat::SChatLine *,std::allocator<CPythonChat::SChatLine *> >
PUBLIC	?max_size@?$list@PAUSChatLine@CPythonChat@@V?$allocator@PAUSChatLine@CPythonChat@@@std@@@std@@QBEIXZ ; std::list<CPythonChat::SChatLine *,std::allocator<CPythonChat::SChatLine *> >::max_size
PUBLIC	?max_size@?$list@USWaitChat@CPythonChat@@V?$allocator@USWaitChat@CPythonChat@@@std@@@std@@QBEIXZ ; std::list<CPythonChat::SWaitChat,std::allocator<CPythonChat::SWaitChat> >::max_size
PUBLIC	??0?$vector@HV?$allocator@H@std@@@std@@QAE@$$QAV01@@Z ; std::vector<int,std::allocator<int> >::vector<int,std::allocator<int> >
PUBLIC	?_Orphan_range@?$vector@HV?$allocator@H@std@@@std@@ABEXPAH0@Z ; std::vector<int,std::allocator<int> >::_Orphan_range
PUBLIC	??0?$_Vector_val@U?$_Simple_types@H@std@@@std@@QAE@XZ ; std::_Vector_val<std::_Simple_types<int> >::_Vector_val<std::_Simple_types<int> >
PUBLIC	?_Get_first@?$_Compressed_pair@V?$allocator@H@std@@V?$_Vector_val@U?$_Simple_types@H@std@@@2@$00@std@@QAEAAV?$allocator@H@2@XZ ; std::_Compressed_pair<std::allocator<int>,std::_Vector_val<std::_Simple_types<int> >,1>::_Get_first
PUBLIC	??0?$allocator@U?$_List_node@PAUSChatLine@CPythonChat@@PAX@std@@@std@@QAE@XZ ; std::allocator<std::_List_node<CPythonChat::SChatLine *,void *> >::allocator<std::_List_node<CPythonChat::SChatLine *,void *> >
PUBLIC	?allocate@?$allocator@U?$_List_node@PAUSChatLine@CPythonChat@@PAX@std@@@std@@QAEPAU?$_List_node@PAUSChatLine@CPythonChat@@PAX@2@I@Z ; std::allocator<std::_List_node<CPythonChat::SChatLine *,void *> >::allocate
PUBLIC	??0?$_List_val@U?$_List_simple_types@PAUSChatLine@CPythonChat@@@std@@@std@@QAE@XZ ; std::_List_val<std::_List_simple_types<CPythonChat::SChatLine *> >::_List_val<std::_List_simple_types<CPythonChat::SChatLine *> >
PUBLIC	?_Orphan_ptr2@?$_List_val@U?$_List_simple_types@PAUSChatLine@CPythonChat@@@std@@@std@@QAEXPAU?$_List_node@PAUSChatLine@CPythonChat@@PAX@2@@Z ; std::_List_val<std::_List_simple_types<CPythonChat::SChatLine *> >::_Orphan_ptr2
PUBLIC	??F?$_List_const_iterator@V?$_List_val@U?$_List_simple_types@PAUSChatLine@CPythonChat@@@std@@@std@@@std@@QAEAAV01@XZ ; std::_List_const_iterator<std::_List_val<std::_List_simple_types<CPythonChat::SChatLine *> > >::operator--
PUBLIC	?_Get_first@?$_Compressed_pair@V?$allocator@U?$_List_node@PAUSChatLine@CPythonChat@@PAX@std@@@std@@V?$_List_val@U?$_List_simple_types@PAUSChatLine@CPythonChat@@@std@@@2@$00@std@@QAEAAV?$allocator@U?$_List_node@PAUSChatLine@CPythonChat@@PAX@std@@@2@XZ ; std::_Compressed_pair<std::allocator<std::_List_node<CPythonChat::SChatLine *,void *> >,std::_List_val<std::_List_simple_types<CPythonChat::SChatLine *> >,1>::_Get_first
PUBLIC	??0?$allocator@USEmoticonsRecentChat@CPythonChat@@@std@@QAE@XZ ; std::allocator<CPythonChat::SEmoticonsRecentChat>::allocator<CPythonChat::SEmoticonsRecentChat>
PUBLIC	?deallocate@?$allocator@USEmoticonsRecentChat@CPythonChat@@@std@@QAEXQAUSEmoticonsRecentChat@CPythonChat@@I@Z ; std::allocator<CPythonChat::SEmoticonsRecentChat>::deallocate
PUBLIC	??1?$_Tidy_guard@V?$deque@PAUSChatLine@CPythonChat@@V?$allocator@PAUSChatLine@CPythonChat@@@std@@@std@@@std@@QAE@XZ ; std::_Tidy_guard<std::deque<CPythonChat::SChatLine *,std::allocator<CPythonChat::SChatLine *> > >::~_Tidy_guard<std::deque<CPythonChat::SChatLine *,std::allocator<CPythonChat::SChatLine *> > >
PUBLIC	??0?$_Deque_val@U?$_Deque_simple_types@PAUSChatLine@CPythonChat@@@std@@@std@@QAE@XZ ; std::_Deque_val<std::_Deque_simple_types<CPythonChat::SChatLine *> >::_Deque_val<std::_Deque_simple_types<CPythonChat::SChatLine *> >
PUBLIC	?_Getblock@?$_Deque_val@U?$_Deque_simple_types@PAUSChatLine@CPythonChat@@@std@@@std@@QBEHI@Z ; std::_Deque_val<std::_Deque_simple_types<CPythonChat::SChatLine *> >::_Getblock
PUBLIC	?_Subscript@?$_Deque_val@U?$_Deque_simple_types@PAUSChatLine@CPythonChat@@@std@@@std@@QAEAAPAUSChatLine@CPythonChat@@I@Z ; std::_Deque_val<std::_Deque_simple_types<CPythonChat::SChatLine *> >::_Subscript
PUBLIC	?_Subscript@?$_Deque_val@U?$_Deque_simple_types@PAUSChatLine@CPythonChat@@@std@@@std@@QBEABQAUSChatLine@CPythonChat@@I@Z ; std::_Deque_val<std::_Deque_simple_types<CPythonChat::SChatLine *> >::_Subscript
PUBLIC	?_Setcont@?$_Deque_const_iterator@V?$_Deque_val@U?$_Deque_simple_types@PAUSChatLine@CPythonChat@@@std@@@std@@@std@@QAEXPBV?$_Deque_val@U?$_Deque_simple_types@PAUSChatLine@CPythonChat@@@std@@@2@@Z ; std::_Deque_const_iterator<std::_Deque_val<std::_Deque_simple_types<CPythonChat::SChatLine *> > >::_Setcont
PUBLIC	??0?$_Deque_unchecked_const_iterator@V?$_Deque_val@U?$_Deque_simple_types@PAUSChatLine@CPythonChat@@@std@@@std@@@std@@QAE@IPBU_Container_base12@1@@Z ; std::_Deque_unchecked_const_iterator<std::_Deque_val<std::_Deque_simple_types<CPythonChat::SChatLine *> > >::_Deque_unchecked_const_iterator<std::_Deque_val<std::_Deque_simple_types<CPythonChat::SChatLine *> > >
PUBLIC	??D?$_Deque_unchecked_const_iterator@V?$_Deque_val@U?$_Deque_simple_types@PAUSChatLine@CPythonChat@@@std@@@std@@@std@@QBEABQAUSChatLine@CPythonChat@@XZ ; std::_Deque_unchecked_const_iterator<std::_Deque_val<std::_Deque_simple_types<CPythonChat::SChatLine *> > >::operator*
PUBLIC	??E?$_Deque_unchecked_const_iterator@V?$_Deque_val@U?$_Deque_simple_types@PAUSChatLine@CPythonChat@@@std@@@std@@@std@@QAEAAV01@XZ ; std::_Deque_unchecked_const_iterator<std::_Deque_val<std::_Deque_simple_types<CPythonChat::SChatLine *> > >::operator++
PUBLIC	??8?$_Deque_unchecked_const_iterator@V?$_Deque_val@U?$_Deque_simple_types@PAUSChatLine@CPythonChat@@@std@@@std@@@std@@QBE_NABV01@@Z ; std::_Deque_unchecked_const_iterator<std::_Deque_val<std::_Deque_simple_types<CPythonChat::SChatLine *> > >::operator==
PUBLIC	?_Get_first@?$_Compressed_pair@V?$allocator@PAUSChatLine@CPythonChat@@@std@@V?$_Deque_val@U?$_Deque_simple_types@PAUSChatLine@CPythonChat@@@std@@@2@$00@std@@QAEAAV?$allocator@PAUSChatLine@CPythonChat@@@2@XZ ; std::_Compressed_pair<std::allocator<CPythonChat::SChatLine *>,std::_Deque_val<std::_Deque_simple_types<CPythonChat::SChatLine *> >,1>::_Get_first
PUBLIC	?_Get_first@?$_Compressed_pair@V?$allocator@PAUSChatLine@CPythonChat@@@std@@V?$_Deque_val@U?$_Deque_simple_types@PAUSChatLine@CPythonChat@@@std@@@2@$00@std@@QBEABV?$allocator@PAUSChatLine@CPythonChat@@@2@XZ ; std::_Compressed_pair<std::allocator<CPythonChat::SChatLine *>,std::_Deque_val<std::_Deque_simple_types<CPythonChat::SChatLine *> >,1>::_Get_first
PUBLIC	?_Alloc_sentinel_and_proxy@?$_Tree@V?$_Tmap_traits@HUSChatSet@CPythonChat@@U?$less@H@std@@V?$allocator@U?$pair@$$CBHUSChatSet@CPythonChat@@@std@@@4@$0A@@std@@@std@@IAEXXZ ; std::_Tree<std::_Tmap_traits<int,CPythonChat::SChatSet,std::less<int>,std::allocator<std::pair<int const ,CPythonChat::SChatSet> >,0> >::_Alloc_sentinel_and_proxy
PUBLIC	??D?$_Tree_const_iterator@V?$_Tree_val@U?$_Tree_simple_types@U?$pair@$$CBHUSChatSet@CPythonChat@@@std@@@std@@@std@@@std@@QBEABU?$pair@$$CBHUSChatSet@CPythonChat@@@1@XZ ; std::_Tree_const_iterator<std::_Tree_val<std::_Tree_simple_types<std::pair<int const ,CPythonChat::SChatSet> > > >::operator*
PUBLIC	??E?$_Tree_unchecked_const_iterator@V?$_Tree_val@U?$_Tree_simple_types@U?$pair@$$CBHUSChatSet@CPythonChat@@@std@@@std@@@std@@U_Iterator_base0@2@@std@@QAEAAV01@XZ ; std::_Tree_unchecked_const_iterator<std::_Tree_val<std::_Tree_simple_types<std::pair<int const ,CPythonChat::SChatSet> > >,std::_Iterator_base0>::operator++
PUBLIC	?_Get_first@?$_Compressed_pair@V?$allocator@U?$_Tree_node@U?$pair@$$CBHUSChatSet@CPythonChat@@@std@@PAX@std@@@std@@V?$_Tree_val@U?$_Tree_simple_types@U?$pair@$$CBHUSChatSet@CPythonChat@@@std@@@std@@@2@$00@std@@QAEAAV?$allocator@U?$_Tree_node@U?$pair@$$CBHUSChatSet@CPythonChat@@@std@@PAX@std@@@2@XZ ; std::_Compressed_pair<std::allocator<std::_Tree_node<std::pair<int const ,CPythonChat::SChatSet>,void *> >,std::_Tree_val<std::_Tree_simple_types<std::pair<int const ,CPythonChat::SChatSet> > >,1>::_Get_first
PUBLIC	?_Check_grow_by_1@?$_Tree@V?$_Tmap_traits@V?$basic_string@DU?$char_traits@D@std@@V?$allocator@D@2@@std@@PAVCWhisper@@U?$less@V?$basic_string@DU?$char_traits@D@std@@V?$allocator@D@2@@std@@@2@V?$allocator@U?$pair@$$CBV?$basic_string@DU?$char_traits@D@std@@V?$allocator@D@2@@std@@PAVCWhisper@@@std@@@2@$0A@@std@@@std@@IAEXXZ ; std::_Tree<std::_Tmap_traits<std::basic_string<char,std::char_traits<char>,std::allocator<char> >,CWhisper *,std::less<std::basic_string<char,std::char_traits<char>,std::allocator<char> > >,std::allocator<std::pair<std::basic_string<char,std::char_traits<char>,std::allocator<char> > const ,CWhisper *> >,0> >::_Check_grow_by_1
PUBLIC	?_Alloc_sentinel_and_proxy@?$_Tree@V?$_Tmap_traits@V?$basic_string@DU?$char_traits@D@std@@V?$allocator@D@2@@std@@PAVCWhisper@@U?$less@V?$basic_string@DU?$char_traits@D@std@@V?$allocator@D@2@@std@@@2@V?$allocator@U?$pair@$$CBV?$basic_string@DU?$char_traits@D@std@@V?$allocator@D@2@@std@@PAVCWhisper@@@std@@@2@$0A@@std@@@std@@IAEXXZ ; std::_Tree<std::_Tmap_traits<std::basic_string<char,std::char_traits<char>,std::allocator<char> >,CWhisper *,std::less<std::basic_string<char,std::char_traits<char>,std::allocator<char> > >,std::allocator<std::pair<std::basic_string<char,std::char_traits<char>,std::allocator<char> > const ,CWhisper *> >,0> >::_Alloc_sentinel_and_proxy
PUBLIC	?_Extract@?$_Tree_val@U?$_Tree_simple_types@U?$pair@$$CBV?$basic_string@DU?$char_traits@D@std@@V?$allocator@D@2@@std@@PAVCWhisper@@@std@@@std@@@std@@QAEPAU?$_Tree_node@U?$pair@$$CBV?$basic_string@DU?$char_traits@D@std@@V?$allocator@D@2@@std@@PAVCWhisper@@@std@@PAX@2@V?$_Tree_unchecked_const_iterator@V?$_Tree_val@U?$_Tree_simple_types@U?$pair@$$CBV?$basic_string@DU?$char_traits@D@std@@V?$allocator@D@2@@std@@PAVCWhisper@@@std@@@std@@@std@@U_Iterator_base0@2@@2@@Z ; std::_Tree_val<std::_Tree_simple_types<std::pair<std::basic_string<char,std::char_traits<char>,std::allocator<char> > const ,CWhisper *> > >::_Extract
PUBLIC	?_Insert_node@?$_Tree_val@U?$_Tree_simple_types@U?$pair@$$CBV?$basic_string@DU?$char_traits@D@std@@V?$allocator@D@2@@std@@PAVCWhisper@@@std@@@std@@@std@@QAEPAU?$_Tree_node@U?$pair@$$CBV?$basic_string@DU?$char_traits@D@std@@V?$allocator@D@2@@std@@PAVCWhisper@@@std@@PAX@2@U?$_Tree_id@PAU?$_Tree_node@U?$pair@$$CBV?$basic_string@DU?$char_traits@D@std@@V?$allocator@D@2@@std@@PAVCWhisper@@@std@@PAX@std@@@2@QAU32@@Z ; std::_Tree_val<std::_Tree_simple_types<std::pair<std::basic_string<char,std::char_traits<char>,std::allocator<char> > const ,CWhisper *> > >::_Insert_node
PUBLIC	??D?$_Tree_const_iterator@V?$_Tree_val@U?$_Tree_simple_types@U?$pair@$$CBV?$basic_string@DU?$char_traits@D@std@@V?$allocator@D@2@@std@@PAVCWhisper@@@std@@@std@@@std@@@std@@QBEABU?$pair@$$CBV?$basic_string@DU?$char_traits@D@std@@V?$allocator@D@2@@std@@PAVCWhisper@@@1@XZ ; std::_Tree_const_iterator<std::_Tree_val<std::_Tree_simple_types<std::pair<std::basic_string<char,std::char_traits<char>,std::allocator<char> > const ,CWhisper *> > > >::operator*
PUBLIC	??E?$_Tree_unchecked_const_iterator@V?$_Tree_val@U?$_Tree_simple_types@U?$pair@$$CBV?$basic_string@DU?$char_traits@D@std@@V?$allocator@D@2@@std@@PAVCWhisper@@@std@@@std@@@std@@U_Iterator_base0@2@@std@@QAEAAV01@XZ ; std::_Tree_unchecked_const_iterator<std::_Tree_val<std::_Tree_simple_types<std::pair<std::basic_string<char,std::char_traits<char>,std::allocator<char> > const ,CWhisper *> > >,std::_Iterator_base0>::operator++
PUBLIC	?_Get_first@?$_Compressed_pair@V?$allocator@U?$_Tree_node@U?$pair@$$CBV?$basic_string@DU?$char_traits@D@std@@V?$allocator@D@2@@std@@PAVCWhisper@@@std@@PAX@std@@@std@@V?$_Tree_val@U?$_Tree_simple_types@U?$pair@$$CBV?$basic_string@DU?$char_traits@D@std@@V?$allocator@D@2@@std@@PAVCWhisper@@@std@@@std@@@2@$00@std@@QAEAAV?$allocator@U?$_Tree_node@U?$pair@$$CBV?$basic_string@DU?$char_traits@D@std@@V?$allocator@D@2@@std@@PAVCWhisper@@@std@@PAX@std@@@2@XZ ; std::_Compressed_pair<std::allocator<std::_Tree_node<std::pair<std::basic_string<char,std::char_traits<char>,std::allocator<char> > const ,CWhisper *>,void *> >,std::_Tree_val<std::_Tree_simple_types<std::pair<std::basic_string<char,std::char_traits<char>,std::allocator<char> > const ,CWhisper *> > >,1>::_Get_first
PUBLIC	?_Extract@?$_Tree_val@U?$_Tree_simple_types@V?$basic_string@DU?$char_traits@D@std@@V?$allocator@D@2@@std@@@std@@@std@@QAEPAU?$_Tree_node@V?$basic_string@DU?$char_traits@D@std@@V?$allocator@D@2@@std@@PAX@2@V?$_Tree_unchecked_const_iterator@V?$_Tree_val@U?$_Tree_simple_types@V?$basic_string@DU?$char_traits@D@std@@V?$allocator@D@2@@std@@@std@@@std@@U_Iterator_base0@2@@2@@Z ; std::_Tree_val<std::_Tree_simple_types<std::basic_string<char,std::char_traits<char>,std::allocator<char> > > >::_Extract
PUBLIC	?_Orphan_ptr@?$_Tree_val@U?$_Tree_simple_types@V?$basic_string@DU?$char_traits@D@std@@V?$allocator@D@2@@std@@@std@@@std@@QAEXQAU?$_Tree_node@V?$basic_string@DU?$char_traits@D@std@@V?$allocator@D@2@@std@@PAX@2@@Z ; std::_Tree_val<std::_Tree_simple_types<std::basic_string<char,std::char_traits<char>,std::allocator<char> > > >::_Orphan_ptr
PUBLIC	??E?$_Tree_unchecked_const_iterator@V?$_Tree_val@U?$_Tree_simple_types@V?$basic_string@DU?$char_traits@D@std@@V?$allocator@D@2@@std@@@std@@@std@@U_Iterator_base0@2@@std@@QAEAAV01@XZ ; std::_Tree_unchecked_const_iterator<std::_Tree_val<std::_Tree_simple_types<std::basic_string<char,std::char_traits<char>,std::allocator<char> > > >,std::_Iterator_base0>::operator++
PUBLIC	??0?$allocator@U?$_List_node@USWaitChat@CPythonChat@@PAX@std@@@std@@QAE@XZ ; std::allocator<std::_List_node<CPythonChat::SWaitChat,void *> >::allocator<std::_List_node<CPythonChat::SWaitChat,void *> >
PUBLIC	?allocate@?$allocator@U?$_List_node@USWaitChat@CPythonChat@@PAX@std@@@std@@QAEPAU?$_List_node@USWaitChat@CPythonChat@@PAX@2@I@Z ; std::allocator<std::_List_node<CPythonChat::SWaitChat,void *> >::allocate
PUBLIC	??0?$_List_val@U?$_List_simple_types@USWaitChat@CPythonChat@@@std@@@std@@QAE@XZ ; std::_List_val<std::_List_simple_types<CPythonChat::SWaitChat> >::_List_val<std::_List_simple_types<CPythonChat::SWaitChat> >
PUBLIC	?_Orphan_ptr2@?$_List_val@U?$_List_simple_types@USWaitChat@CPythonChat@@@std@@@std@@QAEXPAU?$_List_node@USWaitChat@CPythonChat@@PAX@2@@Z ; std::_List_val<std::_List_simple_types<CPythonChat::SWaitChat> >::_Orphan_ptr2
PUBLIC	?_Get_first@?$_Compressed_pair@V?$allocator@U?$_List_node@USWaitChat@CPythonChat@@PAX@std@@@std@@V?$_List_val@U?$_List_simple_types@USWaitChat@CPythonChat@@@std@@@2@$00@std@@QAEAAV?$allocator@U?$_List_node@USWaitChat@CPythonChat@@PAX@std@@@2@XZ ; std::_Compressed_pair<std::allocator<std::_List_node<CPythonChat::SWaitChat,void *> >,std::_List_val<std::_List_simple_types<CPythonChat::SWaitChat> >,1>::_Get_first
PUBLIC	?_Check_grow_by_1@?$_Tree@V?$_Tmap_traits@V?$basic_string@DU?$char_traits@D@std@@V?$allocator@D@2@@std@@USEmoticonsRecentChat@CPythonChat@@U?$less@V?$basic_string@DU?$char_traits@D@std@@V?$allocator@D@2@@std@@@2@V?$allocator@U?$pair@$$CBV?$basic_string@DU?$char_traits@D@std@@V?$allocator@D@2@@std@@USEmoticonsRecentChat@CPythonChat@@@std@@@2@$0A@@std@@@std@@IAEXXZ ; std::_Tree<std::_Tmap_traits<std::basic_string<char,std::char_traits<char>,std::allocator<char> >,CPythonChat::SEmoticonsRecentChat,std::less<std::basic_string<char,std::char_traits<char>,std::allocator<char> > >,std::allocator<std::pair<std::basic_string<char,std::char_traits<char>,std::allocator<char> > const ,CPythonChat::SEmoticonsRecentChat> >,0> >::_Check_grow_by_1
PUBLIC	?_Alloc_sentinel_and_proxy@?$_Tree@V?$_Tmap_traits@V?$basic_string@DU?$char_traits@D@std@@V?$allocator@D@2@@std@@USEmoticonsRecentChat@CPythonChat@@U?$less@V?$basic_string@DU?$char_traits@D@std@@V?$allocator@D@2@@std@@@2@V?$allocator@U?$pair@$$CBV?$basic_string@DU?$char_traits@D@std@@V?$allocator@D@2@@std@@USEmoticonsRecentChat@CPythonChat@@@std@@@2@$0A@@std@@@std@@IAEXXZ ; std::_Tree<std::_Tmap_traits<std::basic_string<char,std::char_traits<char>,std::allocator<char> >,CPythonChat::SEmoticonsRecentChat,std::less<std::basic_string<char,std::char_traits<char>,std::allocator<char> > >,std::allocator<std::pair<std::basic_string<char,std::char_traits<char>,std::allocator<char> > const ,CPythonChat::SEmoticonsRecentChat> >,0> >::_Alloc_sentinel_and_proxy
PUBLIC	?_Get_scary@?$_Tree@V?$_Tmap_traits@V?$basic_string@DU?$char_traits@D@std@@V?$allocator@D@2@@std@@USEmoticonsRecentChat@CPythonChat@@U?$less@V?$basic_string@DU?$char_traits@D@std@@V?$allocator@D@2@@std@@@2@V?$allocator@U?$pair@$$CBV?$basic_string@DU?$char_traits@D@std@@V?$allocator@D@2@@std@@USEmoticonsRecentChat@CPythonChat@@@std@@@2@$0A@@std@@@std@@IBEPBV?$_Tree_val@U?$_Tree_simple_types@U?$pair@$$CBV?$basic_string@DU?$char_traits@D@std@@V?$allocator@D@2@@std@@USEmoticonsRecentChat@CPythonChat@@@std@@@std@@@2@XZ ; std::_Tree<std::_Tmap_traits<std::basic_string<char,std::char_traits<char>,std::allocator<char> >,CPythonChat::SEmoticonsRecentChat,std::less<std::basic_string<char,std::char_traits<char>,std::allocator<char> > >,std::allocator<std::pair<std::basic_string<char,std::char_traits<char>,std::allocator<char> > const ,CPythonChat::SEmoticonsRecentChat> >,0> >::_Get_scary
PUBLIC	?_Insert_node@?$_Tree_val@U?$_Tree_simple_types@U?$pair@$$CBV?$basic_string@DU?$char_traits@D@std@@V?$allocator@D@2@@std@@USEmoticonsRecentChat@CPythonChat@@@std@@@std@@@std@@QAEPAU?$_Tree_node@U?$pair@$$CBV?$basic_string@DU?$char_traits@D@std@@V?$allocator@D@2@@std@@USEmoticonsRecentChat@CPythonChat@@@std@@PAX@2@U?$_Tree_id@PAU?$_Tree_node@U?$pair@$$CBV?$basic_string@DU?$char_traits@D@std@@V?$allocator@D@2@@std@@USEmoticonsRecentChat@CPythonChat@@@std@@PAX@std@@@2@QAU32@@Z ; std::_Tree_val<std::_Tree_simple_types<std::pair<std::basic_string<char,std::char_traits<char>,std::allocator<char> > const ,CPythonChat::SEmoticonsRecentChat> > >::_Insert_node
PUBLIC	??D?$_Tree_const_iterator@V?$_Tree_val@U?$_Tree_simple_types@U?$pair@$$CBV?$basic_string@DU?$char_traits@D@std@@V?$allocator@D@2@@std@@USEmoticonsRecentChat@CPythonChat@@@std@@@std@@@std@@@std@@QBEABU?$pair@$$CBV?$basic_string@DU?$char_traits@D@std@@V?$allocator@D@2@@std@@USEmoticonsRecentChat@CPythonChat@@@1@XZ ; std::_Tree_const_iterator<std::_Tree_val<std::_Tree_simple_types<std::pair<std::basic_string<char,std::char_traits<char>,std::allocator<char> > const ,CPythonChat::SEmoticonsRecentChat> > > >::operator*
PUBLIC	??E?$_Tree_unchecked_const_iterator@V?$_Tree_val@U?$_Tree_simple_types@U?$pair@$$CBV?$basic_string@DU?$char_traits@D@std@@V?$allocator@D@2@@std@@USEmoticonsRecentChat@CPythonChat@@@std@@@std@@@std@@U_Iterator_base0@2@@std@@QAEAAV01@XZ ; std::_Tree_unchecked_const_iterator<std::_Tree_val<std::_Tree_simple_types<std::pair<std::basic_string<char,std::char_traits<char>,std::allocator<char> > const ,CPythonChat::SEmoticonsRecentChat> > >,std::_Iterator_base0>::operator++
PUBLIC	?_Get_first@?$_Compressed_pair@V?$allocator@U?$_Tree_node@U?$pair@$$CBV?$basic_string@DU?$char_traits@D@std@@V?$allocator@D@2@@std@@USEmoticonsRecentChat@CPythonChat@@@std@@PAX@std@@@std@@V?$_Tree_val@U?$_Tree_simple_types@U?$pair@$$CBV?$basic_string@DU?$char_traits@D@std@@V?$allocator@D@2@@std@@USEmoticonsRecentChat@CPythonChat@@@std@@@std@@@2@$00@std@@QAEAAV?$allocator@U?$_Tree_node@U?$pair@$$CBV?$basic_string@DU?$char_traits@D@std@@V?$allocator@D@2@@std@@USEmoticonsRecentChat@CPythonChat@@@std@@PAX@std@@@2@XZ ; std::_Compressed_pair<std::allocator<std::_Tree_node<std::pair<std::basic_string<char,std::char_traits<char>,std::allocator<char> > const ,CPythonChat::SEmoticonsRecentChat>,void *> >,std::_Tree_val<std::_Tree_simple_types<std::pair<std::basic_string<char,std::char_traits<char>,std::allocator<char> > const ,CPythonChat::SEmoticonsRecentChat> > >,1>::_Get_first
PUBLIC	??0?$_Vector_val@U?$_Simple_types@USEmoticonsRecentChat@CPythonChat@@@std@@@std@@QAE@XZ ; std::_Vector_val<std::_Simple_types<CPythonChat::SEmoticonsRecentChat> >::_Vector_val<std::_Simple_types<CPythonChat::SEmoticonsRecentChat> >
PUBLIC	?_Get_first@?$_Compressed_pair@V?$allocator@USEmoticonsRecentChat@CPythonChat@@@std@@V?$_Vector_val@U?$_Simple_types@USEmoticonsRecentChat@CPythonChat@@@std@@@2@$00@std@@QAEAAV?$allocator@USEmoticonsRecentChat@CPythonChat@@@2@XZ ; std::_Compressed_pair<std::allocator<CPythonChat::SEmoticonsRecentChat>,std::_Vector_val<std::_Simple_types<CPythonChat::SEmoticonsRecentChat> >,1>::_Get_first
PUBLIC	?_Tidy@?$vector@PAUSChatLine@CPythonChat@@V?$allocator@PAUSChatLine@CPythonChat@@@std@@@std@@AAEXXZ ; std::vector<CPythonChat::SChatLine *,std::allocator<CPythonChat::SChatLine *> >::_Tidy
PUBLIC	?_Orphan_range@?$vector@PAUSChatLine@CPythonChat@@V?$allocator@PAUSChatLine@CPythonChat@@@std@@@std@@ABEXPAPAUSChatLine@CPythonChat@@0@Z ; std::vector<CPythonChat::SChatLine *,std::allocator<CPythonChat::SChatLine *> >::_Orphan_range
PUBLIC	?_Getal@?$vector@PAUSChatLine@CPythonChat@@V?$allocator@PAUSChatLine@CPythonChat@@@std@@@std@@AAEAAV?$allocator@PAUSChatLine@CPythonChat@@@2@XZ ; std::vector<CPythonChat::SChatLine *,std::allocator<CPythonChat::SChatLine *> >::_Getal
PUBLIC	?_Tidy@?$vector@PAVCWhisper@@V?$allocator@PAVCWhisper@@@std@@@std@@AAEXXZ ; std::vector<CWhisper *,std::allocator<CWhisper *> >::_Tidy
PUBLIC	?_Orphan_range@?$vector@PAVCWhisper@@V?$allocator@PAVCWhisper@@@std@@@std@@ABEXPAPAVCWhisper@@0@Z ; std::vector<CWhisper *,std::allocator<CWhisper *> >::_Orphan_range
PUBLIC	?_Getal@?$vector@PAVCWhisper@@V?$allocator@PAVCWhisper@@@std@@@std@@AAEAAV?$allocator@PAVCWhisper@@@2@XZ ; std::vector<CWhisper *,std::allocator<CWhisper *> >::_Getal
PUBLIC	?_Tidy@?$vector@PAUSChatLine@CWhisper@@V?$allocator@PAUSChatLine@CWhisper@@@std@@@std@@AAEXXZ ; std::vector<CWhisper::SChatLine *,std::allocator<CWhisper::SChatLine *> >::_Tidy
PUBLIC	?_Orphan_range@?$vector@PAUSChatLine@CWhisper@@V?$allocator@PAUSChatLine@CWhisper@@@std@@@std@@ABEXPAPAUSChatLine@CWhisper@@0@Z ; std::vector<CWhisper::SChatLine *,std::allocator<CWhisper::SChatLine *> >::_Orphan_range
PUBLIC	?_Getal@?$vector@PAUSChatLine@CWhisper@@V?$allocator@PAUSChatLine@CWhisper@@@std@@@std@@AAEAAV?$allocator@PAUSChatLine@CWhisper@@@2@XZ ; std::vector<CWhisper::SChatLine *,std::allocator<CWhisper::SChatLine *> >::_Getal
PUBLIC	?_Extract@?$_In_place_key_extract_map_impl@V?$basic_string@DU?$char_traits@D@std@@V?$allocator@D@2@@std@@U?$pair@$$CBV?$basic_string@DU?$char_traits@D@std@@V?$allocator@D@2@@std@@USEmoticonsRecentChat@CPythonChat@@@2@@std@@SAABV?$basic_string@DU?$char_traits@D@std@@V?$allocator@D@2@@2@ABU?$pair@$$CBV?$basic_string@DU?$char_traits@D@std@@V?$allocator@D@2@@std@@USEmoticonsRecentChat@CPythonChat@@@2@@Z ; std::_In_place_key_extract_map_impl<std::basic_string<char,std::char_traits<char>,std::allocator<char> >,std::pair<std::basic_string<char,std::char_traits<char>,std::allocator<char> > const ,CPythonChat::SEmoticonsRecentChat> >::_Extract
PUBLIC	??1?$_Tree_temp_node@V?$allocator@U?$_Tree_node@U?$pair@$$CBV?$basic_string@DU?$char_traits@D@std@@V?$allocator@D@2@@std@@USEmoticonsRecentChat@CPythonChat@@@std@@PAX@std@@@std@@@std@@QAE@XZ ; std::_Tree_temp_node<std::allocator<std::_Tree_node<std::pair<std::basic_string<char,std::char_traits<char>,std::allocator<char> > const ,CPythonChat::SEmoticonsRecentChat>,void *> > >::~_Tree_temp_node<std::allocator<std::_Tree_node<std::pair<std::basic_string<char,std::char_traits<char>,std::allocator<char> > const ,CPythonChat::SEmoticonsRecentChat>,void *> > >
PUBLIC	?_Release@?$_Alloc_construct_ptr@V?$allocator@U?$_Tree_node@U?$pair@$$CBV?$basic_string@DU?$char_traits@D@std@@V?$allocator@D@2@@std@@USEmoticonsRecentChat@CPythonChat@@@std@@PAX@std@@@std@@@std@@QAEPAU?$_Tree_node@U?$pair@$$CBV?$basic_string@DU?$char_traits@D@std@@V?$allocator@D@2@@std@@USEmoticonsRecentChat@CPythonChat@@@std@@PAX@2@XZ ; std::_Alloc_construct_ptr<std::allocator<std::_Tree_node<std::pair<std::basic_string<char,std::char_traits<char>,std::allocator<char> > const ,CPythonChat::SEmoticonsRecentChat>,void *> > >::_Release
PUBLIC	??1?$_List_node_emplace_op2@V?$allocator@U?$_List_node@PAUSChatLine@CPythonChat@@PAX@std@@@std@@@std@@QAE@XZ ; std::_List_node_emplace_op2<std::allocator<std::_List_node<CPythonChat::SChatLine *,void *> > >::~_List_node_emplace_op2<std::allocator<std::_List_node<CPythonChat::SChatLine *,void *> > >
PUBLIC	?_Transfer_before@?$_List_node_emplace_op2@V?$allocator@U?$_List_node@PAUSChatLine@CPythonChat@@PAX@std@@@std@@@std@@QAEPAU?$_List_node@PAUSChatLine@CPythonChat@@PAX@2@QAU32@@Z ; std::_List_node_emplace_op2<std::allocator<std::_List_node<CPythonChat::SChatLine *,void *> > >::_Transfer_before
PUBLIC	?_Extract@?$_In_place_key_extract_map_impl@V?$basic_string@DU?$char_traits@D@std@@V?$allocator@D@2@@std@@U?$pair@$$CBV?$basic_string@DU?$char_traits@D@std@@V?$allocator@D@2@@std@@PAVCWhisper@@@2@@std@@SAABV?$basic_string@DU?$char_traits@D@std@@V?$allocator@D@2@@2@ABU?$pair@$$CBV?$basic_string@DU?$char_traits@D@std@@V?$allocator@D@2@@std@@PAVCWhisper@@@2@@Z ; std::_In_place_key_extract_map_impl<std::basic_string<char,std::char_traits<char>,std::allocator<char> >,std::pair<std::basic_string<char,std::char_traits<char>,std::allocator<char> > const ,CWhisper *> >::_Extract
PUBLIC	??1?$_Tree_temp_node@V?$allocator@U?$_Tree_node@U?$pair@$$CBV?$basic_string@DU?$char_traits@D@std@@V?$allocator@D@2@@std@@PAVCWhisper@@@std@@PAX@std@@@std@@@std@@QAE@XZ ; std::_Tree_temp_node<std::allocator<std::_Tree_node<std::pair<std::basic_string<char,std::char_traits<char>,std::allocator<char> > const ,CWhisper *>,void *> > >::~_Tree_temp_node<std::allocator<std::_Tree_node<std::pair<std::basic_string<char,std::char_traits<char>,std::allocator<char> > const ,CWhisper *>,void *> > >
PUBLIC	?_Release@?$_Alloc_construct_ptr@V?$allocator@U?$_Tree_node@U?$pair@$$CBV?$basic_string@DU?$char_traits@D@std@@V?$allocator@D@2@@std@@PAVCWhisper@@@std@@PAX@std@@@std@@@std@@QAEPAU?$_Tree_node@U?$pair@$$CBV?$basic_string@DU?$char_traits@D@std@@V?$allocator@D@2@@std@@PAVCWhisper@@@std@@PAX@2@XZ ; std::_Alloc_construct_ptr<std::allocator<std::_Tree_node<std::pair<std::basic_string<char,std::char_traits<char>,std::allocator<char> > const ,CWhisper *>,void *> > >::_Release
PUBLIC	??1?$_List_node_emplace_op2@V?$allocator@U?$_List_node@USWaitChat@CPythonChat@@PAX@std@@@std@@@std@@QAE@XZ ; std::_List_node_emplace_op2<std::allocator<std::_List_node<CPythonChat::SWaitChat,void *> > >::~_List_node_emplace_op2<std::allocator<std::_List_node<CPythonChat::SWaitChat,void *> > >
PUBLIC	?_Transfer_before@?$_List_node_emplace_op2@V?$allocator@U?$_List_node@USWaitChat@CPythonChat@@PAX@std@@@std@@@std@@QAEPAU?$_List_node@USWaitChat@CPythonChat@@PAX@2@QAU32@@Z ; std::_List_node_emplace_op2<std::allocator<std::_List_node<CPythonChat::SWaitChat,void *> > >::_Transfer_before
PUBLIC	??0?$_Container_proxy_ptr12@V?$allocator@U_Container_proxy@std@@@std@@@std@@QAE@AAV?$allocator@U_Container_proxy@std@@@1@AAU_Container_base12@1@@Z ; std::_Container_proxy_ptr12<std::allocator<std::_Container_proxy> >::_Container_proxy_ptr12<std::allocator<std::_Container_proxy> >
PUBLIC	??1?$_Container_proxy_ptr12@V?$allocator@U_Container_proxy@std@@@std@@@std@@QAE@XZ ; std::_Container_proxy_ptr12<std::allocator<std::_Container_proxy> >::~_Container_proxy_ptr12<std::allocator<std::_Container_proxy> >
PUBLIC	??$_Freenode0@V?$allocator@U?$_List_node@PAUSChatLine@CWhisper@@PAX@std@@@std@@@?$_List_node@PAUSChatLine@CWhisper@@PAX@std@@SAXAAV?$allocator@U?$_List_node@PAUSChatLine@CWhisper@@PAX@std@@@1@PAU01@@Z ; std::_List_node<CWhisper::SChatLine *,void *>::_Freenode0<std::allocator<std::_List_node<CWhisper::SChatLine *,void *> > >
PUBLIC	??$_Construct_in_place@PAU?$_List_node@PAUSChatLine@CWhisper@@PAX@std@@AAPAU12@@std@@YAXAAPAU?$_List_node@PAUSChatLine@CWhisper@@PAX@0@0@Z ; std::_Construct_in_place<std::_List_node<CWhisper::SChatLine *,void *> *,std::_List_node<CWhisper::SChatLine *,void *> * &>
PUBLIC	??$addressof@$$CBV?$_Deque_val@U?$_Deque_simple_types@PAUSChatLine@CPythonChat@@@std@@@std@@@std@@YAPBV?$_Deque_val@U?$_Deque_simple_types@PAUSChatLine@CPythonChat@@@std@@@0@ABV10@@Z ; std::addressof<std::_Deque_val<std::_Deque_simple_types<CPythonChat::SChatLine *> > const >
PUBLIC	??$addressof@$$CBV?$_List_val@U?$_List_simple_types@PAUSChatLine@CPythonChat@@@std@@@std@@@std@@YAPBV?$_List_val@U?$_List_simple_types@PAUSChatLine@CPythonChat@@@std@@@0@ABV10@@Z ; std::addressof<std::_List_val<std::_List_simple_types<CPythonChat::SChatLine *> > const >
PUBLIC	??$_Construct_in_place@PAU?$_List_node@PAUSChatLine@CPythonChat@@PAX@std@@AAPAU12@@std@@YAXAAPAU?$_List_node@PAUSChatLine@CPythonChat@@PAX@0@0@Z ; std::_Construct_in_place<std::_List_node<CPythonChat::SChatLine *,void *> *,std::_List_node<CPythonChat::SChatLine *,void *> * &>
PUBLIC	??$addressof@$$CBV?$_List_val@U?$_List_simple_types@USWaitChat@CPythonChat@@@std@@@std@@@std@@YAPBV?$_List_val@U?$_List_simple_types@USWaitChat@CPythonChat@@@std@@@0@ABV10@@Z ; std::addressof<std::_List_val<std::_List_simple_types<CPythonChat::SWaitChat> > const >
PUBLIC	??$_Free_non_head@V?$allocator@U?$_List_node@USWaitChat@CPythonChat@@PAX@std@@@std@@@?$_List_node@USWaitChat@CPythonChat@@PAX@std@@SAXAAV?$allocator@U?$_List_node@USWaitChat@CPythonChat@@PAX@std@@@1@PAU01@@Z ; std::_List_node<CPythonChat::SWaitChat,void *>::_Free_non_head<std::allocator<std::_List_node<CPythonChat::SWaitChat,void *> > >
PUBLIC	??$_Construct_in_place@PAU?$_List_node@USWaitChat@CPythonChat@@PAX@std@@AAPAU12@@std@@YAXAAPAU?$_List_node@USWaitChat@CPythonChat@@PAX@0@0@Z ; std::_Construct_in_place<std::_List_node<CPythonChat::SWaitChat,void *> *,std::_List_node<CPythonChat::SWaitChat,void *> * &>
PUBLIC	??$move@AAV?$_List_iterator@V?$_List_val@U?$_List_simple_types@PAUSChatLine@CPythonChat@@@std@@@std@@@std@@@std@@YA$$QAV?$_List_iterator@V?$_List_val@U?$_List_simple_types@PAUSChatLine@CPythonChat@@@std@@@std@@@0@AAV10@@Z ; std::move<std::_List_iterator<std::_List_val<std::_List_simple_types<CPythonChat::SChatLine *> > > &>
PUBLIC	??$?0ABU?$less@H@std@@U_Zero_then_variadic_args_t@1@@?$_Compressed_pair@U?$less@H@std@@V?$_Compressed_pair@V?$allocator@U?$_Tree_node@U?$pair@$$CBHUSChatSet@CPythonChat@@@std@@PAX@std@@@std@@V?$_Tree_val@U?$_Tree_simple_types@U?$pair@$$CBHUSChatSet@CPythonChat@@@std@@@std@@@2@$00@2@$00@std@@QAE@U_One_then_variadic_args_t@1@ABU?$less@H@1@$$QAU_Zero_then_variadic_args_t@1@@Z ; std::_Compressed_pair<std::less<int>,std::_Compressed_pair<std::allocator<std::_Tree_node<std::pair<int const ,CPythonChat::SChatSet>,void *> >,std::_Tree_val<std::_Tree_simple_types<std::pair<int const ,CPythonChat::SChatSet> > >,1>,1>::_Compressed_pair<std::less<int>,std::_Compressed_pair<std::allocator<std::_Tree_node<std::pair<int const ,CPythonChat::SChatSet>,void *> >,std::_Tree_val<std::_Tree_simple_types<std::pair<int const ,CPythonChat::SChatSet> > >,1>,1><std::less<int> const &,std::_Zero_then_variadic_args_t>
PUBLIC	??$addressof@V?$_Tree_val@U?$_Tree_simple_types@U?$pair@$$CBHUSChatSet@CPythonChat@@@std@@@std@@@std@@@std@@YAPAV?$_Tree_val@U?$_Tree_simple_types@U?$pair@$$CBHUSChatSet@CPythonChat@@@std@@@std@@@0@AAV10@@Z ; std::addressof<std::_Tree_val<std::_Tree_simple_types<std::pair<int const ,CPythonChat::SChatSet> > > >
PUBLIC	??$addressof@$$CBV?$_Tree_val@U?$_Tree_simple_types@U?$pair@$$CBHUSChatSet@CPythonChat@@@std@@@std@@@std@@@std@@YAPBV?$_Tree_val@U?$_Tree_simple_types@U?$pair@$$CBHUSChatSet@CPythonChat@@@std@@@std@@@0@ABV10@@Z ; std::addressof<std::_Tree_val<std::_Tree_simple_types<std::pair<int const ,CPythonChat::SChatSet> > > const >
PUBLIC	??$?0ABU?$less@V?$basic_string@DU?$char_traits@D@std@@V?$allocator@D@2@@std@@@std@@U_Zero_then_variadic_args_t@1@@?$_Compressed_pair@U?$less@V?$basic_string@DU?$char_traits@D@std@@V?$allocator@D@2@@std@@@std@@V?$_Compressed_pair@V?$allocator@U?$_Tree_node@U?$pair@$$CBV?$basic_string@DU?$char_traits@D@std@@V?$allocator@D@2@@std@@PAVCWhisper@@@std@@PAX@std@@@std@@V?$_Tree_val@U?$_Tree_simple_types@U?$pair@$$CBV?$basic_string@DU?$char_traits@D@std@@V?$allocator@D@2@@std@@PAVCWhisper@@@std@@@std@@@2@$00@2@$00@std@@QAE@U_One_then_variadic_args_t@1@ABU?$less@V?$basic_string@DU?$char_traits@D@std@@V?$allocator@D@2@@std@@@1@$$QAU_Zero_then_variadic_args_t@1@@Z ; std::_Compressed_pair<std::less<std::basic_string<char,std::char_traits<char>,std::allocator<char> > >,std::_Compressed_pair<std::allocator<std::_Tree_node<std::pair<std::basic_string<char,std::char_traits<char>,std::allocator<char> > const ,CWhisper *>,void *> >,std::_Tree_val<std::_Tree_simple_types<std::pair<std::basic_string<char,std::char_traits<char>,std::allocator<char> > const ,CWhisper *> > >,1>,1>::_Compressed_pair<std::less<std::basic_string<char,std::char_traits<char>,std::allocator<char> > >,std::_Compressed_pair<std::allocator<std::_Tree_node<std::pair<std::basic_string<char,std::char_traits<char>,std::allocator<char> > const ,CWhisper *>,void *> >,std::_Tree_val<std::_Tree_simple_types<std::pair<std::basic_string<char,std::char_traits<char>,std::allocator<char> > const ,CWhisper *> > >,1>,1><std::less<std::basic_string<char,std::char_traits<char>,std::allocator<char> > > const &,std::_Zero_then_variadic_args_t>
PUBLIC	??$addressof@V?$_Tree_val@U?$_Tree_simple_types@U?$pair@$$CBV?$basic_string@DU?$char_traits@D@std@@V?$allocator@D@2@@std@@PAVCWhisper@@@std@@@std@@@std@@@std@@YAPAV?$_Tree_val@U?$_Tree_simple_types@U?$pair@$$CBV?$basic_string@DU?$char_traits@D@std@@V?$allocator@D@2@@std@@PAVCWhisper@@@std@@@std@@@0@AAV10@@Z ; std::addressof<std::_Tree_val<std::_Tree_simple_types<std::pair<std::basic_string<char,std::char_traits<char>,std::allocator<char> > const ,CWhisper *> > > >
PUBLIC	??$addressof@$$CBV?$_Tree_val@U?$_Tree_simple_types@U?$pair@$$CBV?$basic_string@DU?$char_traits@D@std@@V?$allocator@D@2@@std@@PAVCWhisper@@@std@@@std@@@std@@@std@@YAPBV?$_Tree_val@U?$_Tree_simple_types@U?$pair@$$CBV?$basic_string@DU?$char_traits@D@std@@V?$allocator@D@2@@std@@PAVCWhisper@@@std@@@std@@@0@ABV10@@Z ; std::addressof<std::_Tree_val<std::_Tree_simple_types<std::pair<std::basic_string<char,std::char_traits<char>,std::allocator<char> > const ,CWhisper *> > > const >
PUBLIC	??$?0ABU?$less@V?$basic_string@DU?$char_traits@D@std@@V?$allocator@D@2@@std@@@std@@U_Zero_then_variadic_args_t@1@@?$_Compressed_pair@U?$less@V?$basic_string@DU?$char_traits@D@std@@V?$allocator@D@2@@std@@@std@@V?$_Compressed_pair@V?$allocator@U?$_Tree_node@U?$pair@$$CBV?$basic_string@DU?$char_traits@D@std@@V?$allocator@D@2@@std@@USEmoticonsRecentChat@CPythonChat@@@std@@PAX@std@@@std@@V?$_Tree_val@U?$_Tree_simple_types@U?$pair@$$CBV?$basic_string@DU?$char_traits@D@std@@V?$allocator@D@2@@std@@USEmoticonsRecentChat@CPythonChat@@@std@@@std@@@2@$00@2@$00@std@@QAE@U_One_then_variadic_args_t@1@ABU?$less@V?$basic_string@DU?$char_traits@D@std@@V?$allocator@D@2@@std@@@1@$$QAU_Zero_then_variadic_args_t@1@@Z ; std::_Compressed_pair<std::less<std::basic_string<char,std::char_traits<char>,std::allocator<char> > >,std::_Compressed_pair<std::allocator<std::_Tree_node<std::pair<std::basic_string<char,std::char_traits<char>,std::allocator<char> > const ,CPythonChat::SEmoticonsRecentChat>,void *> >,std::_Tree_val<std::_Tree_simple_types<std::pair<std::basic_string<char,std::char_traits<char>,std::allocator<char> > const ,CPythonChat::SEmoticonsRecentChat> > >,1>,1>::_Compressed_pair<std::less<std::basic_string<char,std::char_traits<char>,std::allocator<char> > >,std::_Compressed_pair<std::allocator<std::_Tree_node<std::pair<std::basic_string<char,std::char_traits<char>,std::allocator<char> > const ,CPythonChat::SEmoticonsRecentChat>,void *> >,std::_Tree_val<std::_Tree_simple_types<std::pair<std::basic_string<char,std::char_traits<char>,std::allocator<char> > const ,CPythonChat::SEmoticonsRecentChat> > >,1>,1><std::less<std::basic_string<char,std::char_traits<char>,std::allocator<char> > > const &,std::_Zero_then_variadic_args_t>
PUBLIC	??$addressof@V?$_Tree_val@U?$_Tree_simple_types@U?$pair@$$CBV?$basic_string@DU?$char_traits@D@std@@V?$allocator@D@2@@std@@USEmoticonsRecentChat@CPythonChat@@@std@@@std@@@std@@@std@@YAPAV?$_Tree_val@U?$_Tree_simple_types@U?$pair@$$CBV?$basic_string@DU?$char_traits@D@std@@V?$allocator@D@2@@std@@USEmoticonsRecentChat@CPythonChat@@@std@@@std@@@0@AAV10@@Z ; std::addressof<std::_Tree_val<std::_Tree_simple_types<std::pair<std::basic_string<char,std::char_traits<char>,std::allocator<char> > const ,CPythonChat::SEmoticonsRecentChat> > > >
PUBLIC	??$?0$$V@?$_Compressed_pair@V?$allocator@PAUSChatLine@CPythonChat@@@std@@V?$_Vector_val@U?$_Simple_types@PAUSChatLine@CPythonChat@@@std@@@2@$00@std@@QAE@U_Zero_then_variadic_args_t@1@@Z ; std::_Compressed_pair<std::allocator<CPythonChat::SChatLine *>,std::_Vector_val<std::_Simple_types<CPythonChat::SChatLine *> >,1>::_Compressed_pair<std::allocator<CPythonChat::SChatLine *>,std::_Vector_val<std::_Simple_types<CPythonChat::SChatLine *> >,1><>
PUBLIC	??$_Emplace_one_at_back@ABQAUSChatLine@CPythonChat@@@?$vector@PAUSChatLine@CPythonChat@@V?$allocator@PAUSChatLine@CPythonChat@@@std@@@std@@AAEAAPAUSChatLine@CPythonChat@@ABQAU23@@Z ; std::vector<CPythonChat::SChatLine *,std::allocator<CPythonChat::SChatLine *> >::_Emplace_one_at_back<CPythonChat::SChatLine * const &>
PUBLIC	??$_Unfancy@PAUSChatLine@CPythonChat@@@std@@YAPAPAUSChatLine@CPythonChat@@PAPAU12@@Z ; std::_Unfancy<CPythonChat::SChatLine *>
PUBLIC	??$_Destroy_range@V?$allocator@PAUSChatLine@CPythonChat@@@std@@@std@@YAXPAPAUSChatLine@CPythonChat@@QAPAU12@AAV?$allocator@PAUSChatLine@CPythonChat@@@0@@Z ; std::_Destroy_range<std::allocator<CPythonChat::SChatLine *> >
PUBLIC	??$_Unfancy_maybe_null@PAUSChatLine@CPythonChat@@@std@@YAPAPAUSChatLine@CPythonChat@@PAPAU12@@Z ; std::_Unfancy_maybe_null<CPythonChat::SChatLine *>
PUBLIC	??$?0$$V@?$_Compressed_pair@V?$allocator@PAVCWhisper@@@std@@V?$_Vector_val@U?$_Simple_types@PAVCWhisper@@@std@@@2@$00@std@@QAE@U_Zero_then_variadic_args_t@1@@Z ; std::_Compressed_pair<std::allocator<CWhisper *>,std::_Vector_val<std::_Simple_types<CWhisper *> >,1>::_Compressed_pair<std::allocator<CWhisper *>,std::_Vector_val<std::_Simple_types<CWhisper *> >,1><>
PUBLIC	??$_Emplace_one_at_back@ABQAVCWhisper@@@?$vector@PAVCWhisper@@V?$allocator@PAVCWhisper@@@std@@@std@@AAEAAPAVCWhisper@@ABQAV2@@Z ; std::vector<CWhisper *,std::allocator<CWhisper *> >::_Emplace_one_at_back<CWhisper * const &>
PUBLIC	??$destroy@PAVCWhisper@@@?$_Default_allocator_traits@V?$allocator@PAVCWhisper@@@std@@@std@@SAXAAV?$allocator@PAVCWhisper@@@1@QAPAVCWhisper@@@Z ; std::_Default_allocator_traits<std::allocator<CWhisper *> >::destroy<CWhisper *>
PUBLIC	??$_Unfancy@PAVCWhisper@@@std@@YAPAPAVCWhisper@@PAPAV1@@Z ; std::_Unfancy<CWhisper *>
PUBLIC	??$_Destroy_range@V?$allocator@PAVCWhisper@@@std@@@std@@YAXPAPAVCWhisper@@QAPAV1@AAV?$allocator@PAVCWhisper@@@0@@Z ; std::_Destroy_range<std::allocator<CWhisper *> >
PUBLIC	??$_Unfancy_maybe_null@PAVCWhisper@@@std@@YAPAPAVCWhisper@@PAPAV1@@Z ; std::_Unfancy_maybe_null<CWhisper *>
PUBLIC	??$?0$$V@?$_Compressed_pair@V?$allocator@PAUSChatLine@CWhisper@@@std@@V?$_Vector_val@U?$_Simple_types@PAUSChatLine@CWhisper@@@std@@@2@$00@std@@QAE@U_Zero_then_variadic_args_t@1@@Z ; std::_Compressed_pair<std::allocator<CWhisper::SChatLine *>,std::_Vector_val<std::_Simple_types<CWhisper::SChatLine *> >,1>::_Compressed_pair<std::allocator<CWhisper::SChatLine *>,std::_Vector_val<std::_Simple_types<CWhisper::SChatLine *> >,1><>
PUBLIC	??$_Emplace_one_at_back@ABQAUSChatLine@CWhisper@@@?$vector@PAUSChatLine@CWhisper@@V?$allocator@PAUSChatLine@CWhisper@@@std@@@std@@AAEAAPAUSChatLine@CWhisper@@ABQAU23@@Z ; std::vector<CWhisper::SChatLine *,std::allocator<CWhisper::SChatLine *> >::_Emplace_one_at_back<CWhisper::SChatLine * const &>
PUBLIC	??$destroy@PAUSChatLine@CWhisper@@@?$_Default_allocator_traits@V?$allocator@PAUSChatLine@CWhisper@@@std@@@std@@SAXAAV?$allocator@PAUSChatLine@CWhisper@@@1@QAPAUSChatLine@CWhisper@@@Z ; std::_Default_allocator_traits<std::allocator<CWhisper::SChatLine *> >::destroy<CWhisper::SChatLine *>
PUBLIC	??$_Unfancy@PAUSChatLine@CWhisper@@@std@@YAPAPAUSChatLine@CWhisper@@PAPAU12@@Z ; std::_Unfancy<CWhisper::SChatLine *>
PUBLIC	??$_Destroy_range@V?$allocator@PAUSChatLine@CWhisper@@@std@@@std@@YAXPAPAUSChatLine@CWhisper@@QAPAU12@AAV?$allocator@PAUSChatLine@CWhisper@@@0@@Z ; std::_Destroy_range<std::allocator<CWhisper::SChatLine *> >
PUBLIC	??$_Unfancy_maybe_null@PAUSChatLine@CWhisper@@@std@@YAPAPAUSChatLine@CWhisper@@PAPAU12@@Z ; std::_Unfancy_maybe_null<CWhisper::SChatLine *>
PUBLIC	??$addressof@U?$pair@$$CBV?$basic_string@DU?$char_traits@D@std@@V?$allocator@D@2@@std@@USEmoticonsRecentChat@CPythonChat@@@std@@@std@@YAPAU?$pair@$$CBV?$basic_string@DU?$char_traits@D@std@@V?$allocator@D@2@@std@@USEmoticonsRecentChat@CPythonChat@@@0@AAU10@@Z ; std::addressof<std::pair<std::basic_string<char,std::char_traits<char>,std::allocator<char> > const ,CPythonChat::SEmoticonsRecentChat> >
PUBLIC	??$addressof@U?$pair@$$CBV?$basic_string@DU?$char_traits@D@std@@V?$allocator@D@2@@std@@PAVCWhisper@@@std@@@std@@YAPAU?$pair@$$CBV?$basic_string@DU?$char_traits@D@std@@V?$allocator@D@2@@std@@PAVCWhisper@@@0@AAU10@@Z ; std::addressof<std::pair<std::basic_string<char,std::char_traits<char>,std::allocator<char> > const ,CWhisper *> >
PUBLIC	??$addressof@U?$pair@$$CBHUSChatSet@CPythonChat@@@std@@@std@@YAPAU?$pair@$$CBHUSChatSet@CPythonChat@@@0@AAU10@@Z ; std::addressof<std::pair<int const ,CPythonChat::SChatSet> >
PUBLIC	??$_Emplace_reallocate@ABV?$basic_string@DU?$char_traits@D@std@@V?$allocator@D@2@@std@@@?$vector@V?$basic_string@DU?$char_traits@D@std@@V?$allocator@D@2@@std@@V?$allocator@V?$basic_string@DU?$char_traits@D@std@@V?$allocator@D@2@@std@@@2@@std@@AAEPAV?$basic_string@DU?$char_traits@D@std@@V?$allocator@D@2@@1@QAV21@ABV21@@Z ; std::vector<std::basic_string<char,std::char_traits<char>,std::allocator<char> >,std::allocator<std::basic_string<char,std::char_traits<char>,std::allocator<char> > > >::_Emplace_reallocate<std::basic_string<char,std::char_traits<char>,std::allocator<char> > const &>
PUBLIC	??$_Emplace_back_with_unused_capacity@ABV?$basic_string@DU?$char_traits@D@std@@V?$allocator@D@2@@std@@@?$vector@V?$basic_string@DU?$char_traits@D@std@@V?$allocator@D@2@@std@@V?$allocator@V?$basic_string@DU?$char_traits@D@std@@V?$allocator@D@2@@std@@@2@@std@@AAEAAV?$basic_string@DU?$char_traits@D@std@@V?$allocator@D@2@@1@ABV21@@Z ; std::vector<std::basic_string<char,std::char_traits<char>,std::allocator<char> >,std::allocator<std::basic_string<char,std::char_traits<char>,std::allocator<char> > > >::_Emplace_back_with_unused_capacity<std::basic_string<char,std::char_traits<char>,std::allocator<char> > const &>
PUBLIC	??$construct@PAUSChatLine@CWhisper@@ABQAU12@@?$_Default_allocator_traits@V?$allocator@PAUSChatLine@CWhisper@@@std@@@std@@SAXAAV?$allocator@PAUSChatLine@CWhisper@@@1@QAPAUSChatLine@CWhisper@@ABQAU34@@Z ; std::_Default_allocator_traits<std::allocator<CWhisper::SChatLine *> >::construct<CWhisper::SChatLine *,CWhisper::SChatLine * const &>
PUBLIC	??$forward@ABQAUSChatLine@CWhisper@@@std@@YAABQAUSChatLine@CWhisper@@ABQAU12@@Z ; std::forward<CWhisper::SChatLine * const &>
PUBLIC	??$_Freenode@V?$allocator@U?$_List_node@PAUSChatLine@CWhisper@@PAX@std@@@std@@@?$_List_node@PAUSChatLine@CWhisper@@PAX@std@@SAXAAV?$allocator@U?$_List_node@PAUSChatLine@CWhisper@@PAX@std@@@1@PAU01@@Z ; std::_List_node<CWhisper::SChatLine *,void *>::_Freenode<std::allocator<std::_List_node<CWhisper::SChatLine *,void *> > >
PUBLIC	??$forward@V?$allocator@PAUSChatLine@CPythonChat@@@std@@@std@@YA$$QAV?$allocator@PAUSChatLine@CPythonChat@@@0@AAV10@@Z ; std::forward<std::allocator<CPythonChat::SChatLine *> >
PUBLIC	??$construct@PAUSChatLine@CPythonChat@@ABQAU12@@?$_Default_allocator_traits@V?$allocator@PAUSChatLine@CPythonChat@@@std@@@std@@SAXAAV?$allocator@PAUSChatLine@CPythonChat@@@1@QAPAUSChatLine@CPythonChat@@ABQAU34@@Z ; std::_Default_allocator_traits<std::allocator<CPythonChat::SChatLine *> >::construct<CPythonChat::SChatLine *,CPythonChat::SChatLine * const &>
PUBLIC	??$destroy_at@PAUSChatLine@CPythonChat@@@std@@YAXQAPAUSChatLine@CPythonChat@@@Z ; std::destroy_at<CPythonChat::SChatLine *>
PUBLIC	??$?0ABQAUSChatLine@CPythonChat@@@?$_List_node_emplace_op2@V?$allocator@U?$_List_node@PAUSChatLine@CPythonChat@@PAX@std@@@std@@@std@@QAE@AAV?$allocator@U?$_List_node@PAUSChatLine@CPythonChat@@PAX@std@@@1@ABQAUSChatLine@CPythonChat@@@Z ; std::_List_node_emplace_op2<std::allocator<std::_List_node<CPythonChat::SChatLine *,void *> > >::_List_node_emplace_op2<std::allocator<std::_List_node<CPythonChat::SChatLine *,void *> > ><CPythonChat::SChatLine * const &>
PUBLIC	??$forward@ABQAUSChatLine@CPythonChat@@@std@@YAABQAUSChatLine@CPythonChat@@ABQAU12@@Z ; std::forward<CPythonChat::SChatLine * const &>
PUBLIC	??$_Freenode0@V?$allocator@U?$_List_node@PAUSChatLine@CPythonChat@@PAX@std@@@std@@@?$_List_node@PAUSChatLine@CPythonChat@@PAX@std@@SAXAAV?$allocator@U?$_List_node@PAUSChatLine@CPythonChat@@PAX@std@@@1@PAU01@@Z ; std::_List_node<CPythonChat::SChatLine *,void *>::_Freenode0<std::allocator<std::_List_node<CPythonChat::SChatLine *,void *> > >
PUBLIC	??$destroy@PAUSChatLine@CPythonChat@@@?$_Default_allocator_traits@V?$allocator@U?$_List_node@PAUSChatLine@CPythonChat@@PAX@std@@@std@@@std@@SAXAAV?$allocator@U?$_List_node@PAUSChatLine@CPythonChat@@PAX@std@@@1@QAPAUSChatLine@CPythonChat@@@Z ; std::_Default_allocator_traits<std::allocator<std::_List_node<CPythonChat::SChatLine *,void *> > >::destroy<CPythonChat::SChatLine *>
PUBLIC	??$addressof@PAUSChatLine@CPythonChat@@@std@@YAPAPAUSChatLine@CPythonChat@@AAPAU12@@Z ; std::addressof<CPythonChat::SChatLine *>
PUBLIC	??$?0ABUSWaitChat@CPythonChat@@@?$_List_node_emplace_op2@V?$allocator@U?$_List_node@USWaitChat@CPythonChat@@PAX@std@@@std@@@std@@QAE@AAV?$allocator@U?$_List_node@USWaitChat@CPythonChat@@PAX@std@@@1@ABUSWaitChat@CPythonChat@@@Z ; std::_List_node_emplace_op2<std::allocator<std::_List_node<CPythonChat::SWaitChat,void *> > >::_List_node_emplace_op2<std::allocator<std::_List_node<CPythonChat::SWaitChat,void *> > ><CPythonChat::SWaitChat const &>
PUBLIC	??$forward@ABUSWaitChat@CPythonChat@@@std@@YAABUSWaitChat@CPythonChat@@ABU12@@Z ; std::forward<CPythonChat::SWaitChat const &>
PUBLIC	??$_Freenode0@V?$allocator@U?$_List_node@USWaitChat@CPythonChat@@PAX@std@@@std@@@?$_List_node@USWaitChat@CPythonChat@@PAX@std@@SAXAAV?$allocator@U?$_List_node@USWaitChat@CPythonChat@@PAX@std@@@1@PAU01@@Z ; std::_List_node<CPythonChat::SWaitChat,void *>::_Freenode0<std::allocator<std::_List_node<CPythonChat::SWaitChat,void *> > >
PUBLIC	??$destroy@USWaitChat@CPythonChat@@@?$_Default_allocator_traits@V?$allocator@U?$_List_node@USWaitChat@CPythonChat@@PAX@std@@@std@@@std@@SAXAAV?$allocator@U?$_List_node@USWaitChat@CPythonChat@@PAX@std@@@1@QAUSWaitChat@CPythonChat@@@Z ; std::_Default_allocator_traits<std::allocator<std::_List_node<CPythonChat::SWaitChat,void *> > >::destroy<CPythonChat::SWaitChat>
PUBLIC	??$addressof@USWaitChat@CPythonChat@@@std@@YAPAUSWaitChat@CPythonChat@@AAU12@@Z ; std::addressof<CPythonChat::SWaitChat>
PUBLIC	??$_Uninitialized_fill_n@V?$allocator@H@std@@@std@@YAPAHPAHIABHAAV?$allocator@H@0@@Z ; std::_Uninitialized_fill_n<std::allocator<int> >
PUBLIC	??$_Resize_reallocate@H@?$vector@HV?$allocator@H@std@@@std@@AAEXIABH@Z ; std::vector<int,std::allocator<int> >::_Resize_reallocate<int>
PUBLIC	??$_Emplace_reallocate@ABUSEmoticonsRecentChat@CPythonChat@@@?$vector@USEmoticonsRecentChat@CPythonChat@@V?$allocator@USEmoticonsRecentChat@CPythonChat@@@std@@@std@@AAEPAUSEmoticonsRecentChat@CPythonChat@@QAU23@ABU23@@Z ; std::vector<CPythonChat::SEmoticonsRecentChat,std::allocator<CPythonChat::SEmoticonsRecentChat> >::_Emplace_reallocate<CPythonChat::SEmoticonsRecentChat const &>
PUBLIC	??$_Emplace_back_with_unused_capacity@ABUSEmoticonsRecentChat@CPythonChat@@@?$vector@USEmoticonsRecentChat@CPythonChat@@V?$allocator@USEmoticonsRecentChat@CPythonChat@@@std@@@std@@AAEAAUSEmoticonsRecentChat@CPythonChat@@ABU23@@Z ; std::vector<CPythonChat::SEmoticonsRecentChat,std::allocator<CPythonChat::SEmoticonsRecentChat> >::_Emplace_back_with_unused_capacity<CPythonChat::SEmoticonsRecentChat const &>
PUBLIC	??$forward@ABUSEmoticonsRecentChat@CPythonChat@@@std@@YAABUSEmoticonsRecentChat@CPythonChat@@ABU12@@Z ; std::forward<CPythonChat::SEmoticonsRecentChat const &>
PUBLIC	??$destroy@USEmoticonsRecentChat@CPythonChat@@@?$_Default_allocator_traits@V?$allocator@USEmoticonsRecentChat@CPythonChat@@@std@@@std@@SAXAAV?$allocator@USEmoticonsRecentChat@CPythonChat@@@1@QAUSEmoticonsRecentChat@CPythonChat@@@Z ; std::_Default_allocator_traits<std::allocator<CPythonChat::SEmoticonsRecentChat> >::destroy<CPythonChat::SEmoticonsRecentChat>
PUBLIC	??$_Unfancy@USEmoticonsRecentChat@CPythonChat@@@std@@YAPAUSEmoticonsRecentChat@CPythonChat@@PAU12@@Z ; std::_Unfancy<CPythonChat::SEmoticonsRecentChat>
PUBLIC	??$_Freenode0@V?$allocator@U?$_Tree_node@U?$pair@$$CBHUSChatSet@CPythonChat@@@std@@PAX@std@@@std@@@?$_Tree_node@U?$pair@$$CBHUSChatSet@CPythonChat@@@std@@PAX@std@@SAXAAV?$allocator@U?$_Tree_node@U?$pair@$$CBHUSChatSet@CPythonChat@@@std@@PAX@std@@@1@PAU01@@Z ; std::_Tree_node<std::pair<int const ,CPythonChat::SChatSet>,void *>::_Freenode0<std::allocator<std::_Tree_node<std::pair<int const ,CPythonChat::SChatSet>,void *> > >
PUBLIC	??$_Freenode@V?$allocator@U?$_Tree_node@U?$pair@$$CBHUSChatSet@CPythonChat@@@std@@PAX@std@@@std@@@?$_Tree_node@U?$pair@$$CBHUSChatSet@CPythonChat@@@std@@PAX@std@@SAXAAV?$allocator@U?$_Tree_node@U?$pair@$$CBHUSChatSet@CPythonChat@@@std@@PAX@std@@@1@PAU01@@Z ; std::_Tree_node<std::pair<int const ,CPythonChat::SChatSet>,void *>::_Freenode<std::allocator<std::_Tree_node<std::pair<int const ,CPythonChat::SChatSet>,void *> > >
PUBLIC	??$exchange@PAU?$_Tree_node@U?$pair@$$CBHUSChatSet@CPythonChat@@@std@@PAX@std@@AAPAU12@@std@@YAPAU?$_Tree_node@U?$pair@$$CBHUSChatSet@CPythonChat@@@std@@PAX@0@AAPAU10@0@Z ; std::exchange<std::_Tree_node<std::pair<int const ,CPythonChat::SChatSet>,void *> *,std::_Tree_node<std::pair<int const ,CPythonChat::SChatSet>,void *> * &>
PUBLIC	??$_Lower_bound_duplicate@H@?$_Tree@V?$_Tmap_traits@HUSChatSet@CPythonChat@@U?$less@H@std@@V?$allocator@U?$pair@$$CBHUSChatSet@CPythonChat@@@std@@@4@$0A@@std@@@std@@IBE_NQAU?$_Tree_node@U?$pair@$$CBHUSChatSet@CPythonChat@@@std@@PAX@1@ABH@Z ; std::_Tree<std::_Tmap_traits<int,CPythonChat::SChatSet,std::less<int>,std::allocator<std::pair<int const ,CPythonChat::SChatSet> >,0> >::_Lower_bound_duplicate<int>
PUBLIC	??$_Find_lower_bound@H@?$_Tree@V?$_Tmap_traits@HUSChatSet@CPythonChat@@U?$less@H@std@@V?$allocator@U?$pair@$$CBHUSChatSet@CPythonChat@@@std@@@4@$0A@@std@@@std@@IBE?AU?$_Tree_find_result@PAU?$_Tree_node@U?$pair@$$CBHUSChatSet@CPythonChat@@@std@@PAX@std@@@1@ABH@Z ; std::_Tree<std::_Tmap_traits<int,CPythonChat::SChatSet,std::less<int>,std::allocator<std::pair<int const ,CPythonChat::SChatSet> >,0> >::_Find_lower_bound<int>
PUBLIC	??$_Freenode0@V?$allocator@U?$_Tree_node@U?$pair@$$CBV?$basic_string@DU?$char_traits@D@std@@V?$allocator@D@2@@std@@PAVCWhisper@@@std@@PAX@std@@@std@@@?$_Tree_node@U?$pair@$$CBV?$basic_string@DU?$char_traits@D@std@@V?$allocator@D@2@@std@@PAVCWhisper@@@std@@PAX@std@@SAXAAV?$allocator@U?$_Tree_node@U?$pair@$$CBV?$basic_string@DU?$char_traits@D@std@@V?$allocator@D@2@@std@@PAVCWhisper@@@std@@PAX@std@@@1@PAU01@@Z ; std::_Tree_node<std::pair<std::basic_string<char,std::char_traits<char>,std::allocator<char> > const ,CWhisper *>,void *>::_Freenode0<std::allocator<std::_Tree_node<std::pair<std::basic_string<char,std::char_traits<char>,std::allocator<char> > const ,CWhisper *>,void *> > >
PUBLIC	??$_Freenode@V?$allocator@U?$_Tree_node@U?$pair@$$CBV?$basic_string@DU?$char_traits@D@std@@V?$allocator@D@2@@std@@PAVCWhisper@@@std@@PAX@std@@@std@@@?$_Tree_node@U?$pair@$$CBV?$basic_string@DU?$char_traits@D@std@@V?$allocator@D@2@@std@@PAVCWhisper@@@std@@PAX@std@@SAXAAV?$allocator@U?$_Tree_node@U?$pair@$$CBV?$basic_string@DU?$char_traits@D@std@@V?$allocator@D@2@@std@@PAVCWhisper@@@std@@PAX@std@@@1@PAU01@@Z ; std::_Tree_node<std::pair<std::basic_string<char,std::char_traits<char>,std::allocator<char> > const ,CWhisper *>,void *>::_Freenode<std::allocator<std::_Tree_node<std::pair<std::basic_string<char,std::char_traits<char>,std::allocator<char> > const ,CWhisper *>,void *> > >
PUBLIC	??$exchange@PAU?$_Tree_node@U?$pair@$$CBV?$basic_string@DU?$char_traits@D@std@@V?$allocator@D@2@@std@@PAVCWhisper@@@std@@PAX@std@@AAPAU12@@std@@YAPAU?$_Tree_node@U?$pair@$$CBV?$basic_string@DU?$char_traits@D@std@@V?$allocator@D@2@@std@@PAVCWhisper@@@std@@PAX@0@AAPAU10@0@Z ; std::exchange<std::_Tree_node<std::pair<std::basic_string<char,std::char_traits<char>,std::allocator<char> > const ,CWhisper *>,void *> *,std::_Tree_node<std::pair<std::basic_string<char,std::char_traits<char>,std::allocator<char> > const ,CWhisper *>,void *> * &>
PUBLIC	??$_Freenode0@V?$allocator@U?$_Tree_node@U?$pair@$$CBV?$basic_string@DU?$char_traits@D@std@@V?$allocator@D@2@@std@@USEmoticonsRecentChat@CPythonChat@@@std@@PAX@std@@@std@@@?$_Tree_node@U?$pair@$$CBV?$basic_string@DU?$char_traits@D@std@@V?$allocator@D@2@@std@@USEmoticonsRecentChat@CPythonChat@@@std@@PAX@std@@SAXAAV?$allocator@U?$_Tree_node@U?$pair@$$CBV?$basic_string@DU?$char_traits@D@std@@V?$allocator@D@2@@std@@USEmoticonsRecentChat@CPythonChat@@@std@@PAX@std@@@1@PAU01@@Z ; std::_Tree_node<std::pair<std::basic_string<char,std::char_traits<char>,std::allocator<char> > const ,CPythonChat::SEmoticonsRecentChat>,void *>::_Freenode0<std::allocator<std::_Tree_node<std::pair<std::basic_string<char,std::char_traits<char>,std::allocator<char> > const ,CPythonChat::SEmoticonsRecentChat>,void *> > >
PUBLIC	??$_Freenode@V?$allocator@U?$_Tree_node@U?$pair@$$CBV?$basic_string@DU?$char_traits@D@std@@V?$allocator@D@2@@std@@USEmoticonsRecentChat@CPythonChat@@@std@@PAX@std@@@std@@@?$_Tree_node@U?$pair@$$CBV?$basic_string@DU?$char_traits@D@std@@V?$allocator@D@2@@std@@USEmoticonsRecentChat@CPythonChat@@@std@@PAX@std@@SAXAAV?$allocator@U?$_Tree_node@U?$pair@$$CBV?$basic_string@DU?$char_traits@D@std@@V?$allocator@D@2@@std@@USEmoticonsRecentChat@CPythonChat@@@std@@PAX@std@@@1@PAU01@@Z ; std::_Tree_node<std::pair<std::basic_string<char,std::char_traits<char>,std::allocator<char> > const ,CPythonChat::SEmoticonsRecentChat>,void *>::_Freenode<std::allocator<std::_Tree_node<std::pair<std::basic_string<char,std::char_traits<char>,std::allocator<char> > const ,CPythonChat::SEmoticonsRecentChat>,void *> > >
PUBLIC	??$exchange@PAU?$_Tree_node@U?$pair@$$CBV?$basic_string@DU?$char_traits@D@std@@V?$allocator@D@2@@std@@USEmoticonsRecentChat@CPythonChat@@@std@@PAX@std@@AAPAU12@@std@@YAPAU?$_Tree_node@U?$pair@$$CBV?$basic_string@DU?$char_traits@D@std@@V?$allocator@D@2@@std@@USEmoticonsRecentChat@CPythonChat@@@std@@PAX@0@AAPAU10@0@Z ; std::exchange<std::_Tree_node<std::pair<std::basic_string<char,std::char_traits<char>,std::allocator<char> > const ,CPythonChat::SEmoticonsRecentChat>,void *> *,std::_Tree_node<std::pair<std::basic_string<char,std::char_traits<char>,std::allocator<char> > const ,CPythonChat::SEmoticonsRecentChat>,void *> * &>
PUBLIC	??$forward@V?$_Tree_iterator@V?$_Tree_val@U?$_Tree_simple_types@U?$pair@$$CBV?$basic_string@DU?$char_traits@D@std@@V?$allocator@D@2@@std@@PAVCWhisper@@@std@@@std@@@std@@@std@@@std@@YA$$QAV?$_Tree_iterator@V?$_Tree_val@U?$_Tree_simple_types@U?$pair@$$CBV?$basic_string@DU?$char_traits@D@std@@V?$allocator@D@2@@std@@PAVCWhisper@@@std@@@std@@@std@@@0@AAV10@@Z ; std::forward<std::_Tree_iterator<std::_Tree_val<std::_Tree_simple_types<std::pair<std::basic_string<char,std::char_traits<char>,std::allocator<char> > const ,CWhisper *> > > > >
PUBLIC	??$?0PAU?$_Tree_node@U?$pair@$$CBV?$basic_string@DU?$char_traits@D@std@@V?$allocator@D@2@@std@@PAVCWhisper@@@std@@PAX@std@@_N$0A@@?$pair@PAU?$_Tree_node@U?$pair@$$CBV?$basic_string@DU?$char_traits@D@std@@V?$allocator@D@2@@std@@PAVCWhisper@@@std@@PAX@std@@_N@std@@QAE@$$QAPAU?$_Tree_node@U?$pair@$$CBV?$basic_string@DU?$char_traits@D@std@@V?$allocator@D@2@@std@@PAVCWhisper@@@std@@PAX@1@$$QA_N@Z ; std::pair<std::_Tree_node<std::pair<std::basic_string<char,std::char_traits<char>,std::allocator<char> > const ,CWhisper *>,void *> *,bool>::pair<std::_Tree_node<std::pair<std::basic_string<char,std::char_traits<char>,std::allocator<char> > const ,CWhisper *>,void *> *,bool><std::_Tree_node<std::pair<std::basic_string<char,std::char_traits<char>,std::allocator<char> > const ,CWhisper *>,void *> *,bool,0>
PUBLIC	??$?0AAPAU?$_Tree_node@U?$pair@$$CBV?$basic_string@DU?$char_traits@D@std@@V?$allocator@D@2@@std@@PAVCWhisper@@@std@@PAX@std@@_N$0A@@?$pair@PAU?$_Tree_node@U?$pair@$$CBV?$basic_string@DU?$char_traits@D@std@@V?$allocator@D@2@@std@@PAVCWhisper@@@std@@PAX@std@@_N@std@@QAE@AAPAU?$_Tree_node@U?$pair@$$CBV?$basic_string@DU?$char_traits@D@std@@V?$allocator@D@2@@std@@PAVCWhisper@@@std@@PAX@1@$$QA_N@Z ; std::pair<std::_Tree_node<std::pair<std::basic_string<char,std::char_traits<char>,std::allocator<char> > const ,CWhisper *>,void *> *,bool>::pair<std::_Tree_node<std::pair<std::basic_string<char,std::char_traits<char>,std::allocator<char> > const ,CWhisper *>,void *> *,bool><std::_Tree_node<std::pair<std::basic_string<char,std::char_traits<char>,std::allocator<char> > const ,CWhisper *>,void *> * &,bool,0>
PUBLIC	??$?0U?$pair@$$CBV?$basic_string@DU?$char_traits@D@std@@V?$allocator@D@2@@std@@PAVCWhisper@@@std@@@?$_Tree_temp_node@V?$allocator@U?$_Tree_node@U?$pair@$$CBV?$basic_string@DU?$char_traits@D@std@@V?$allocator@D@2@@std@@PAVCWhisper@@@std@@PAX@std@@@std@@@std@@QAE@AAV?$allocator@U?$_Tree_node@U?$pair@$$CBV?$basic_string@DU?$char_traits@D@std@@V?$allocator@D@2@@std@@PAVCWhisper@@@std@@PAX@std@@@1@PAU?$_Tree_node@U?$pair@$$CBV?$basic_string@DU?$char_traits@D@std@@V?$allocator@D@2@@std@@PAVCWhisper@@@std@@PAX@1@$$QAU?$pair@$$CBV?$basic_string@DU?$char_traits@D@std@@V?$allocator@D@2@@std@@PAVCWhisper@@@1@@Z ; std::_Tree_temp_node<std::allocator<std::_Tree_node<std::pair<std::basic_string<char,std::char_traits<char>,std::allocator<char> > const ,CWhisper *>,void *> > >::_Tree_temp_node<std::allocator<std::_Tree_node<std::pair<std::basic_string<char,std::char_traits<char>,std::allocator<char> > const ,CWhisper *>,void *> > ><std::pair<std::basic_string<char,std::char_traits<char>,std::allocator<char> > const ,CWhisper *> >
PUBLIC	??$forward@U?$pair@$$CBV?$basic_string@DU?$char_traits@D@std@@V?$allocator@D@2@@std@@PAVCWhisper@@@std@@@std@@YA$$QAU?$pair@$$CBV?$basic_string@DU?$char_traits@D@std@@V?$allocator@D@2@@std@@PAVCWhisper@@@0@AAU10@@Z ; std::forward<std::pair<std::basic_string<char,std::char_traits<char>,std::allocator<char> > const ,CWhisper *> >
PUBLIC	??$_Lower_bound_duplicate@V?$basic_string@DU?$char_traits@D@std@@V?$allocator@D@2@@std@@@?$_Tree@V?$_Tmap_traits@V?$basic_string@DU?$char_traits@D@std@@V?$allocator@D@2@@std@@PAVCWhisper@@U?$less@V?$basic_string@DU?$char_traits@D@std@@V?$allocator@D@2@@std@@@2@V?$allocator@U?$pair@$$CBV?$basic_string@DU?$char_traits@D@std@@V?$allocator@D@2@@std@@PAVCWhisper@@@std@@@2@$0A@@std@@@std@@IBE_NQAU?$_Tree_node@U?$pair@$$CBV?$basic_string@DU?$char_traits@D@std@@V?$allocator@D@2@@std@@PAVCWhisper@@@std@@PAX@1@ABV?$basic_string@DU?$char_traits@D@std@@V?$allocator@D@2@@1@@Z ; std::_Tree<std::_Tmap_traits<std::basic_string<char,std::char_traits<char>,std::allocator<char> >,CWhisper *,std::less<std::basic_string<char,std::char_traits<char>,std::allocator<char> > >,std::allocator<std::pair<std::basic_string<char,std::char_traits<char>,std::allocator<char> > const ,CWhisper *> >,0> >::_Lower_bound_duplicate<std::basic_string<char,std::char_traits<char>,std::allocator<char> > >
PUBLIC	??$_Find_lower_bound@V?$basic_string@DU?$char_traits@D@std@@V?$allocator@D@2@@std@@@?$_Tree@V?$_Tmap_traits@V?$basic_string@DU?$char_traits@D@std@@V?$allocator@D@2@@std@@PAVCWhisper@@U?$less@V?$basic_string@DU?$char_traits@D@std@@V?$allocator@D@2@@std@@@2@V?$allocator@U?$pair@$$CBV?$basic_string@DU?$char_traits@D@std@@V?$allocator@D@2@@std@@PAVCWhisper@@@std@@@2@$0A@@std@@@std@@IBE?AU?$_Tree_find_result@PAU?$_Tree_node@U?$pair@$$CBV?$basic_string@DU?$char_traits@D@std@@V?$allocator@D@2@@std@@PAVCWhisper@@@std@@PAX@std@@@1@ABV?$basic_string@DU?$char_traits@D@std@@V?$allocator@D@2@@1@@Z ; std::_Tree<std::_Tmap_traits<std::basic_string<char,std::char_traits<char>,std::allocator<char> >,CWhisper *,std::less<std::basic_string<char,std::char_traits<char>,std::allocator<char> > >,std::allocator<std::pair<std::basic_string<char,std::char_traits<char>,std::allocator<char> > const ,CWhisper *> >,0> >::_Find_lower_bound<std::basic_string<char,std::char_traits<char>,std::allocator<char> > >
PUBLIC	??$?0AAPAUSChatLine@CPythonChat@@@?$_List_node_emplace_op2@V?$allocator@U?$_List_node@PAUSChatLine@CPythonChat@@PAX@std@@@std@@@std@@QAE@AAV?$allocator@U?$_List_node@PAUSChatLine@CPythonChat@@PAX@std@@@1@AAPAUSChatLine@CPythonChat@@@Z ; std::_List_node_emplace_op2<std::allocator<std::_List_node<CPythonChat::SChatLine *,void *> > >::_List_node_emplace_op2<std::allocator<std::_List_node<CPythonChat::SChatLine *,void *> > ><CPythonChat::SChatLine * &>
PUBLIC	??$construct@PAUSChatLine@CPythonChat@@AAPAU12@@?$_Default_allocator_traits@V?$allocator@PAUSChatLine@CPythonChat@@@std@@@std@@SAXAAV?$allocator@PAUSChatLine@CPythonChat@@@1@QAPAUSChatLine@CPythonChat@@AAPAU34@@Z ; std::_Default_allocator_traits<std::allocator<CPythonChat::SChatLine *> >::construct<CPythonChat::SChatLine *,CPythonChat::SChatLine * &>
PUBLIC	??$forward@V?$_Tree_iterator@V?$_Tree_val@U?$_Tree_simple_types@U?$pair@$$CBV?$basic_string@DU?$char_traits@D@std@@V?$allocator@D@2@@std@@USEmoticonsRecentChat@CPythonChat@@@std@@@std@@@std@@@std@@@std@@YA$$QAV?$_Tree_iterator@V?$_Tree_val@U?$_Tree_simple_types@U?$pair@$$CBV?$basic_string@DU?$char_traits@D@std@@V?$allocator@D@2@@std@@USEmoticonsRecentChat@CPythonChat@@@std@@@std@@@std@@@0@AAV10@@Z ; std::forward<std::_Tree_iterator<std::_Tree_val<std::_Tree_simple_types<std::pair<std::basic_string<char,std::char_traits<char>,std::allocator<char> > const ,CPythonChat::SEmoticonsRecentChat> > > > >
PUBLIC	??$?0PAU?$_Tree_node@U?$pair@$$CBV?$basic_string@DU?$char_traits@D@std@@V?$allocator@D@2@@std@@USEmoticonsRecentChat@CPythonChat@@@std@@PAX@std@@_N$0A@@?$pair@PAU?$_Tree_node@U?$pair@$$CBV?$basic_string@DU?$char_traits@D@std@@V?$allocator@D@2@@std@@USEmoticonsRecentChat@CPythonChat@@@std@@PAX@std@@_N@std@@QAE@$$QAPAU?$_Tree_node@U?$pair@$$CBV?$basic_string@DU?$char_traits@D@std@@V?$allocator@D@2@@std@@USEmoticonsRecentChat@CPythonChat@@@std@@PAX@1@$$QA_N@Z ; std::pair<std::_Tree_node<std::pair<std::basic_string<char,std::char_traits<char>,std::allocator<char> > const ,CPythonChat::SEmoticonsRecentChat>,void *> *,bool>::pair<std::_Tree_node<std::pair<std::basic_string<char,std::char_traits<char>,std::allocator<char> > const ,CPythonChat::SEmoticonsRecentChat>,void *> *,bool><std::_Tree_node<std::pair<std::basic_string<char,std::char_traits<char>,std::allocator<char> > const ,CPythonChat::SEmoticonsRecentChat>,void *> *,bool,0>
PUBLIC	??$?0AAPAU?$_Tree_node@U?$pair@$$CBV?$basic_string@DU?$char_traits@D@std@@V?$allocator@D@2@@std@@USEmoticonsRecentChat@CPythonChat@@@std@@PAX@std@@_N$0A@@?$pair@PAU?$_Tree_node@U?$pair@$$CBV?$basic_string@DU?$char_traits@D@std@@V?$allocator@D@2@@std@@USEmoticonsRecentChat@CPythonChat@@@std@@PAX@std@@_N@std@@QAE@AAPAU?$_Tree_node@U?$pair@$$CBV?$basic_string@DU?$char_traits@D@std@@V?$allocator@D@2@@std@@USEmoticonsRecentChat@CPythonChat@@@std@@PAX@1@$$QA_N@Z ; std::pair<std::_Tree_node<std::pair<std::basic_string<char,std::char_traits<char>,std::allocator<char> > const ,CPythonChat::SEmoticonsRecentChat>,void *> *,bool>::pair<std::_Tree_node<std::pair<std::basic_string<char,std::char_traits<char>,std::allocator<char> > const ,CPythonChat::SEmoticonsRecentChat>,void *> *,bool><std::_Tree_node<std::pair<std::basic_string<char,std::char_traits<char>,std::allocator<char> > const ,CPythonChat::SEmoticonsRecentChat>,void *> * &,bool,0>
PUBLIC	??$?0U?$pair@$$CBV?$basic_string@DU?$char_traits@D@std@@V?$allocator@D@2@@std@@USEmoticonsRecentChat@CPythonChat@@@std@@@?$_Tree_temp_node@V?$allocator@U?$_Tree_node@U?$pair@$$CBV?$basic_string@DU?$char_traits@D@std@@V?$allocator@D@2@@std@@USEmoticonsRecentChat@CPythonChat@@@std@@PAX@std@@@std@@@std@@QAE@AAV?$allocator@U?$_Tree_node@U?$pair@$$CBV?$basic_string@DU?$char_traits@D@std@@V?$allocator@D@2@@std@@USEmoticonsRecentChat@CPythonChat@@@std@@PAX@std@@@1@PAU?$_Tree_node@U?$pair@$$CBV?$basic_string@DU?$char_traits@D@std@@V?$allocator@D@2@@std@@USEmoticonsRecentChat@CPythonChat@@@std@@PAX@1@$$QAU?$pair@$$CBV?$basic_string@DU?$char_traits@D@std@@V?$allocator@D@2@@std@@USEmoticonsRecentChat@CPythonChat@@@1@@Z ; std::_Tree_temp_node<std::allocator<std::_Tree_node<std::pair<std::basic_string<char,std::char_traits<char>,std::allocator<char> > const ,CPythonChat::SEmoticonsRecentChat>,void *> > >::_Tree_temp_node<std::allocator<std::_Tree_node<std::pair<std::basic_string<char,std::char_traits<char>,std::allocator<char> > const ,CPythonChat::SEmoticonsRecentChat>,void *> > ><std::pair<std::basic_string<char,std::char_traits<char>,std::allocator<char> > const ,CPythonChat::SEmoticonsRecentChat> >
PUBLIC	??$forward@U?$pair@$$CBV?$basic_string@DU?$char_traits@D@std@@V?$allocator@D@2@@std@@USEmoticonsRecentChat@CPythonChat@@@std@@@std@@YA$$QAU?$pair@$$CBV?$basic_string@DU?$char_traits@D@std@@V?$allocator@D@2@@std@@USEmoticonsRecentChat@CPythonChat@@@0@AAU10@@Z ; std::forward<std::pair<std::basic_string<char,std::char_traits<char>,std::allocator<char> > const ,CPythonChat::SEmoticonsRecentChat> >
PUBLIC	??$_Lower_bound_duplicate@V?$basic_string@DU?$char_traits@D@std@@V?$allocator@D@2@@std@@@?$_Tree@V?$_Tmap_traits@V?$basic_string@DU?$char_traits@D@std@@V?$allocator@D@2@@std@@USEmoticonsRecentChat@CPythonChat@@U?$less@V?$basic_string@DU?$char_traits@D@std@@V?$allocator@D@2@@std@@@2@V?$allocator@U?$pair@$$CBV?$basic_string@DU?$char_traits@D@std@@V?$allocator@D@2@@std@@USEmoticonsRecentChat@CPythonChat@@@std@@@2@$0A@@std@@@std@@IBE_NQAU?$_Tree_node@U?$pair@$$CBV?$basic_string@DU?$char_traits@D@std@@V?$allocator@D@2@@std@@USEmoticonsRecentChat@CPythonChat@@@std@@PAX@1@ABV?$basic_string@DU?$char_traits@D@std@@V?$allocator@D@2@@1@@Z ; std::_Tree<std::_Tmap_traits<std::basic_string<char,std::char_traits<char>,std::allocator<char> >,CPythonChat::SEmoticonsRecentChat,std::less<std::basic_string<char,std::char_traits<char>,std::allocator<char> > >,std::allocator<std::pair<std::basic_string<char,std::char_traits<char>,std::allocator<char> > const ,CPythonChat::SEmoticonsRecentChat> >,0> >::_Lower_bound_duplicate<std::basic_string<char,std::char_traits<char>,std::allocator<char> > >
PUBLIC	??$_Find_lower_bound@V?$basic_string@DU?$char_traits@D@std@@V?$allocator@D@2@@std@@@?$_Tree@V?$_Tmap_traits@V?$basic_string@DU?$char_traits@D@std@@V?$allocator@D@2@@std@@USEmoticonsRecentChat@CPythonChat@@U?$less@V?$basic_string@DU?$char_traits@D@std@@V?$allocator@D@2@@std@@@2@V?$allocator@U?$pair@$$CBV?$basic_string@DU?$char_traits@D@std@@V?$allocator@D@2@@std@@USEmoticonsRecentChat@CPythonChat@@@std@@@2@$0A@@std@@@std@@IBE?AU?$_Tree_find_result@PAU?$_Tree_node@U?$pair@$$CBV?$basic_string@DU?$char_traits@D@std@@V?$allocator@D@2@@std@@USEmoticonsRecentChat@CPythonChat@@@std@@PAX@std@@@1@ABV?$basic_string@DU?$char_traits@D@std@@V?$allocator@D@2@@1@@Z ; std::_Tree<std::_Tmap_traits<std::basic_string<char,std::char_traits<char>,std::allocator<char> >,CPythonChat::SEmoticonsRecentChat,std::less<std::basic_string<char,std::char_traits<char>,std::allocator<char> > >,std::allocator<std::pair<std::basic_string<char,std::char_traits<char>,std::allocator<char> > const ,CPythonChat::SEmoticonsRecentChat> >,0> >::_Find_lower_bound<std::basic_string<char,std::char_traits<char>,std::allocator<char> > >
PUBLIC	??$?0V?$_Tree_iterator@V?$_Tree_val@U?$_Tree_simple_types@U?$pair@$$CBHUSChatSet@CPythonChat@@@std@@@std@@@std@@@std@@AB_N$0A@@?$pair@V?$_Tree_iterator@V?$_Tree_val@U?$_Tree_simple_types@U?$pair@$$CBHUSChatSet@CPythonChat@@@std@@@std@@@std@@@std@@_N@std@@QAE@$$QAV?$_Tree_iterator@V?$_Tree_val@U?$_Tree_simple_types@U?$pair@$$CBHUSChatSet@CPythonChat@@@std@@@std@@@std@@@1@AB_N@Z ; std::pair<std::_Tree_iterator<std::_Tree_val<std::_Tree_simple_types<std::pair<int const ,CPythonChat::SChatSet> > > >,bool>::pair<std::_Tree_iterator<std::_Tree_val<std::_Tree_simple_types<std::pair<int const ,CPythonChat::SChatSet> > > >,bool><std::_Tree_iterator<std::_Tree_val<std::_Tree_simple_types<std::pair<int const ,CPythonChat::SChatSet> > > >,bool const &,0>
PUBLIC	??$_Emplace@U?$pair@KUSChatSet@CPythonChat@@@std@@@?$_Tree@V?$_Tmap_traits@HUSChatSet@CPythonChat@@U?$less@H@std@@V?$allocator@U?$pair@$$CBHUSChatSet@CPythonChat@@@std@@@4@$0A@@std@@@std@@IAE?AU?$pair@PAU?$_Tree_node@U?$pair@$$CBHUSChatSet@CPythonChat@@@std@@PAX@std@@_N@1@$$QAU?$pair@KUSChatSet@CPythonChat@@@1@@Z ; std::_Tree<std::_Tmap_traits<int,CPythonChat::SChatSet,std::less<int>,std::allocator<std::pair<int const ,CPythonChat::SChatSet> >,0> >::_Emplace<std::pair<unsigned long,CPythonChat::SChatSet> >
PUBLIC	??_GSChatLine@CWhisper@@QAEPAXI@Z		; CWhisper::SChatLine::`scalar deleting destructor'
PUBLIC	??0?$_Deque_unchecked_iterator@V?$_Deque_val@U?$_Deque_simple_types@PAUSChatLine@CWhisper@@@std@@@std@@@std@@QAE@IPBU_Container_base12@1@@Z ; std::_Deque_unchecked_iterator<std::_Deque_val<std::_Deque_simple_types<CWhisper::SChatLine *> > >::_Deque_unchecked_iterator<std::_Deque_val<std::_Deque_simple_types<CWhisper::SChatLine *> > >
PUBLIC	??_GCWhisper@@QAEPAXI@Z				; CWhisper::`scalar deleting destructor'
PUBLIC	??0?$_Tree_unchecked_iterator@V?$_Tree_val@U?$_Tree_simple_types@U?$pair@$$CBV?$basic_string@DU?$char_traits@D@std@@V?$allocator@D@2@@std@@PAVCWhisper@@@std@@@std@@@std@@@std@@QAE@PAU?$_Tree_node@U?$pair@$$CBV?$basic_string@DU?$char_traits@D@std@@V?$allocator@D@2@@std@@PAVCWhisper@@@std@@PAX@1@PBV?$_Tree_val@U?$_Tree_simple_types@U?$pair@$$CBV?$basic_string@DU?$char_traits@D@std@@V?$allocator@D@2@@std@@PAVCWhisper@@@std@@@std@@@1@@Z ; std::_Tree_unchecked_iterator<std::_Tree_val<std::_Tree_simple_types<std::pair<std::basic_string<char,std::char_traits<char>,std::allocator<char> > const ,CWhisper *> > > >::_Tree_unchecked_iterator<std::_Tree_val<std::_Tree_simple_types<std::pair<std::basic_string<char,std::char_traits<char>,std::allocator<char> > const ,CWhisper *> > > >
PUBLIC	?Delete@?$CDynamicPool@USChatLine@CWhisper@@@@KAXPAUSChatLine@CWhisper@@@Z ; CDynamicPool<CWhisper::SChatLine>::Delete
PUBLIC	?_Tidy@?$deque@PAUSChatLine@CWhisper@@V?$allocator@PAUSChatLine@CWhisper@@@std@@@std@@AAEXXZ ; std::deque<CWhisper::SChatLine *,std::allocator<CWhisper::SChatLine *> >::_Tidy
PUBLIC	?_Orphan_all@?$deque@PAUSChatLine@CWhisper@@V?$allocator@PAUSChatLine@CWhisper@@@std@@@std@@AAEXXZ ; std::deque<CWhisper::SChatLine *,std::allocator<CWhisper::SChatLine *> >::_Orphan_all
PUBLIC	?_Getal@?$deque@PAUSChatLine@CWhisper@@V?$allocator@PAUSChatLine@CWhisper@@@std@@@std@@AAEAAV?$allocator@PAUSChatLine@CWhisper@@@2@XZ ; std::deque<CWhisper::SChatLine *,std::allocator<CWhisper::SChatLine *> >::_Getal
PUBLIC	?_Get_data@?$deque@PAUSChatLine@CWhisper@@V?$allocator@PAUSChatLine@CWhisper@@@std@@@std@@AAEAAV?$_Deque_val@U?$_Deque_simple_types@PAUSChatLine@CWhisper@@@std@@@2@XZ ; std::deque<CWhisper::SChatLine *,std::allocator<CWhisper::SChatLine *> >::_Get_data
PUBLIC	?_Myoff@?$deque@PAUSChatLine@CWhisper@@V?$allocator@PAUSChatLine@CWhisper@@@std@@@std@@AAEAAIXZ ; std::deque<CWhisper::SChatLine *,std::allocator<CWhisper::SChatLine *> >::_Myoff
PUBLIC	?_Mysize@?$deque@PAUSChatLine@CWhisper@@V?$allocator@PAUSChatLine@CWhisper@@@std@@@std@@AAEAAIXZ ; std::deque<CWhisper::SChatLine *,std::allocator<CWhisper::SChatLine *> >::_Mysize
PUBLIC	?_Mysize@?$deque@PAUSChatLine@CWhisper@@V?$allocator@PAUSChatLine@CWhisper@@@std@@@std@@ABEABIXZ ; std::deque<CWhisper::SChatLine *,std::allocator<CWhisper::SChatLine *> >::_Mysize
PUBLIC	?_Subscript@?$deque@PAUSChatLine@CWhisper@@V?$allocator@PAUSChatLine@CWhisper@@@std@@@std@@AAEAAPAUSChatLine@CWhisper@@I@Z ; std::deque<CWhisper::SChatLine *,std::allocator<CWhisper::SChatLine *> >::_Subscript
PUBLIC	?_Tidy@?$list@PAUSChatLine@CWhisper@@V?$allocator@PAUSChatLine@CWhisper@@@std@@@std@@AAEXXZ ; std::list<CWhisper::SChatLine *,std::allocator<CWhisper::SChatLine *> >::_Tidy
PUBLIC	?_Alloc_sentinel_and_proxy@?$list@PAUSChatLine@CWhisper@@V?$allocator@PAUSChatLine@CWhisper@@@std@@@std@@AAEXXZ ; std::list<CWhisper::SChatLine *,std::allocator<CWhisper::SChatLine *> >::_Alloc_sentinel_and_proxy
PUBLIC	?_Getal@?$list@PAUSChatLine@CWhisper@@V?$allocator@PAUSChatLine@CWhisper@@@std@@@std@@AAEAAV?$allocator@U?$_List_node@PAUSChatLine@CWhisper@@PAX@std@@@2@XZ ; std::list<CWhisper::SChatLine *,std::allocator<CWhisper::SChatLine *> >::_Getal
PUBLIC	?_Unwrapped@?$_Deque_iterator@V?$_Deque_val@U?$_Deque_simple_types@PAUSChatLine@CWhisper@@@std@@@std@@@std@@QBE?AV?$_Deque_unchecked_iterator@V?$_Deque_val@U?$_Deque_simple_types@PAUSChatLine@CWhisper@@@std@@@std@@@2@XZ ; std::_Deque_iterator<std::_Deque_val<std::_Deque_simple_types<CWhisper::SChatLine *> > >::_Unwrapped
PUBLIC	??0?$_Deque_const_iterator@V?$_Deque_val@U?$_Deque_simple_types@PAUSChatLine@CWhisper@@@std@@@std@@@std@@QAE@IPBU_Container_base12@1@@Z ; std::_Deque_const_iterator<std::_Deque_val<std::_Deque_simple_types<CWhisper::SChatLine *> > >::_Deque_const_iterator<std::_Deque_val<std::_Deque_simple_types<CWhisper::SChatLine *> > >
PUBLIC	??D?$_Deque_const_iterator@V?$_Deque_val@U?$_Deque_simple_types@PAUSChatLine@CWhisper@@@std@@@std@@@std@@QBEABQAUSChatLine@CWhisper@@XZ ; std::_Deque_const_iterator<std::_Deque_val<std::_Deque_simple_types<CWhisper::SChatLine *> > >::operator*
PUBLIC	??E?$_Deque_const_iterator@V?$_Deque_val@U?$_Deque_simple_types@PAUSChatLine@CWhisper@@@std@@@std@@@std@@QAEAAV01@XZ ; std::_Deque_const_iterator<std::_Deque_val<std::_Deque_simple_types<CWhisper::SChatLine *> > >::operator++
PUBLIC	?_Compat@?$_Deque_const_iterator@V?$_Deque_val@U?$_Deque_simple_types@PAUSChatLine@CWhisper@@@std@@@std@@@std@@QBEXABV12@@Z ; std::_Deque_const_iterator<std::_Deque_val<std::_Deque_simple_types<CWhisper::SChatLine *> > >::_Compat
PUBLIC	??D?$_Deque_unchecked_iterator@V?$_Deque_val@U?$_Deque_simple_types@PAUSChatLine@CWhisper@@@std@@@std@@@std@@QBEAAPAUSChatLine@CWhisper@@XZ ; std::_Deque_unchecked_iterator<std::_Deque_val<std::_Deque_simple_types<CWhisper::SChatLine *> > >::operator*
PUBLIC	??E?$_Deque_unchecked_iterator@V?$_Deque_val@U?$_Deque_simple_types@PAUSChatLine@CWhisper@@@std@@@std@@@std@@QAEAAV01@XZ ; std::_Deque_unchecked_iterator<std::_Deque_val<std::_Deque_simple_types<CWhisper::SChatLine *> > >::operator++
PUBLIC	??8?$_Deque_unchecked_const_iterator@V?$_Deque_val@U?$_Deque_simple_types@PAUSChatLine@CWhisper@@@std@@@std@@@std@@QBE_NABV01@@Z ; std::_Deque_unchecked_const_iterator<std::_Deque_val<std::_Deque_simple_types<CWhisper::SChatLine *> > >::operator==
PUBLIC	?_Orphan_non_end@?$_List_val@U?$_List_simple_types@PAUSChatLine@CWhisper@@@std@@@std@@QAEXXZ ; std::_List_val<std::_List_simple_types<CWhisper::SChatLine *> >::_Orphan_non_end
PUBLIC	?Delete@?$CDynamicPool@VCWhisper@@@@KAXPAVCWhisper@@@Z ; CDynamicPool<CWhisper>::Delete
PUBLIC	?Delete@?$CDynamicPool@USChatLine@CPythonChat@@@@KAXPAUSChatLine@CPythonChat@@@Z ; CDynamicPool<CPythonChat::SChatLine>::Delete
PUBLIC	?_Unchecked_begin@?$deque@PAUSChatLine@CPythonChat@@V?$allocator@PAUSChatLine@CPythonChat@@@std@@@std@@QBE?AV?$_Deque_unchecked_const_iterator@V?$_Deque_val@U?$_Deque_simple_types@PAUSChatLine@CPythonChat@@@std@@@std@@@2@XZ ; std::deque<CPythonChat::SChatLine *,std::allocator<CPythonChat::SChatLine *> >::_Unchecked_begin
PUBLIC	?_Unchecked_end@?$deque@PAUSChatLine@CPythonChat@@V?$allocator@PAUSChatLine@CPythonChat@@@std@@@std@@QBE?AV?$_Deque_unchecked_const_iterator@V?$_Deque_val@U?$_Deque_simple_types@PAUSChatLine@CPythonChat@@@std@@@std@@@2@XZ ; std::deque<CPythonChat::SChatLine *,std::allocator<CPythonChat::SChatLine *> >::_Unchecked_end
PUBLIC	?back@?$deque@PAUSChatLine@CPythonChat@@V?$allocator@PAUSChatLine@CPythonChat@@@std@@@std@@QAEAAPAUSChatLine@CPythonChat@@XZ ; std::deque<CPythonChat::SChatLine *,std::allocator<CPythonChat::SChatLine *> >::back
PUBLIC	?_Tidy@?$deque@PAUSChatLine@CPythonChat@@V?$allocator@PAUSChatLine@CPythonChat@@@std@@@std@@AAEXXZ ; std::deque<CPythonChat::SChatLine *,std::allocator<CPythonChat::SChatLine *> >::_Tidy
PUBLIC	?_Orphan_all@?$deque@PAUSChatLine@CPythonChat@@V?$allocator@PAUSChatLine@CPythonChat@@@std@@@std@@AAEXXZ ; std::deque<CPythonChat::SChatLine *,std::allocator<CPythonChat::SChatLine *> >::_Orphan_all
PUBLIC	?_Getal@?$deque@PAUSChatLine@CPythonChat@@V?$allocator@PAUSChatLine@CPythonChat@@@std@@@std@@AAEAAV?$allocator@PAUSChatLine@CPythonChat@@@2@XZ ; std::deque<CPythonChat::SChatLine *,std::allocator<CPythonChat::SChatLine *> >::_Getal
PUBLIC	?_Getal@?$deque@PAUSChatLine@CPythonChat@@V?$allocator@PAUSChatLine@CPythonChat@@@std@@@std@@ABEABV?$allocator@PAUSChatLine@CPythonChat@@@2@XZ ; std::deque<CPythonChat::SChatLine *,std::allocator<CPythonChat::SChatLine *> >::_Getal
PUBLIC	?_Get_data@?$deque@PAUSChatLine@CPythonChat@@V?$allocator@PAUSChatLine@CPythonChat@@@std@@@std@@AAEAAV?$_Deque_val@U?$_Deque_simple_types@PAUSChatLine@CPythonChat@@@std@@@2@XZ ; std::deque<CPythonChat::SChatLine *,std::allocator<CPythonChat::SChatLine *> >::_Get_data
PUBLIC	?_Myoff@?$deque@PAUSChatLine@CPythonChat@@V?$allocator@PAUSChatLine@CPythonChat@@@std@@@std@@AAEAAIXZ ; std::deque<CPythonChat::SChatLine *,std::allocator<CPythonChat::SChatLine *> >::_Myoff
PUBLIC	?_Mysize@?$deque@PAUSChatLine@CPythonChat@@V?$allocator@PAUSChatLine@CPythonChat@@@std@@@std@@AAEAAIXZ ; std::deque<CPythonChat::SChatLine *,std::allocator<CPythonChat::SChatLine *> >::_Mysize
PUBLIC	?_Mysize@?$deque@PAUSChatLine@CPythonChat@@V?$allocator@PAUSChatLine@CPythonChat@@@std@@@std@@ABEABIXZ ; std::deque<CPythonChat::SChatLine *,std::allocator<CPythonChat::SChatLine *> >::_Mysize
PUBLIC	?_Subscript@?$deque@PAUSChatLine@CPythonChat@@V?$allocator@PAUSChatLine@CPythonChat@@@std@@@std@@AAEAAPAUSChatLine@CPythonChat@@I@Z ; std::deque<CPythonChat::SChatLine *,std::allocator<CPythonChat::SChatLine *> >::_Subscript
PUBLIC	?_Make_iter@?$list@PAUSChatLine@CPythonChat@@V?$allocator@PAUSChatLine@CPythonChat@@@std@@@std@@QBE?AV?$_List_iterator@V?$_List_val@U?$_List_simple_types@PAUSChatLine@CPythonChat@@@std@@@std@@@2@PAU?$_List_node@PAUSChatLine@CPythonChat@@PAX@2@@Z ; std::list<CPythonChat::SChatLine *,std::allocator<CPythonChat::SChatLine *> >::_Make_iter
PUBLIC	?_Unchecked_erase@?$list@PAUSChatLine@CPythonChat@@V?$allocator@PAUSChatLine@CPythonChat@@@std@@@std@@AAEPAU?$_List_node@PAUSChatLine@CPythonChat@@PAX@2@QAU32@@Z ; std::list<CPythonChat::SChatLine *,std::allocator<CPythonChat::SChatLine *> >::_Unchecked_erase
PUBLIC	?_Tidy@?$list@PAUSChatLine@CPythonChat@@V?$allocator@PAUSChatLine@CPythonChat@@@std@@@std@@AAEXXZ ; std::list<CPythonChat::SChatLine *,std::allocator<CPythonChat::SChatLine *> >::_Tidy
PUBLIC	?_Alloc_sentinel_and_proxy@?$list@PAUSChatLine@CPythonChat@@V?$allocator@PAUSChatLine@CPythonChat@@@std@@@std@@AAEXXZ ; std::list<CPythonChat::SChatLine *,std::allocator<CPythonChat::SChatLine *> >::_Alloc_sentinel_and_proxy
PUBLIC	?_Getal@?$list@PAUSChatLine@CPythonChat@@V?$allocator@PAUSChatLine@CPythonChat@@@std@@@std@@AAEAAV?$allocator@U?$_List_node@PAUSChatLine@CPythonChat@@PAX@std@@@2@XZ ; std::list<CPythonChat::SChatLine *,std::allocator<CPythonChat::SChatLine *> >::_Getal
PUBLIC	?_Make_iter@?$list@USWaitChat@CPythonChat@@V?$allocator@USWaitChat@CPythonChat@@@std@@@std@@QBE?AV?$_List_iterator@V?$_List_val@U?$_List_simple_types@USWaitChat@CPythonChat@@@std@@@std@@@2@PAU?$_List_node@USWaitChat@CPythonChat@@PAX@2@@Z ; std::list<CPythonChat::SWaitChat,std::allocator<CPythonChat::SWaitChat> >::_Make_iter
PUBLIC	?_Tidy@?$list@USWaitChat@CPythonChat@@V?$allocator@USWaitChat@CPythonChat@@@std@@@std@@AAEXXZ ; std::list<CPythonChat::SWaitChat,std::allocator<CPythonChat::SWaitChat> >::_Tidy
PUBLIC	?_Alloc_sentinel_and_proxy@?$list@USWaitChat@CPythonChat@@V?$allocator@USWaitChat@CPythonChat@@@std@@@std@@AAEXXZ ; std::list<CPythonChat::SWaitChat,std::allocator<CPythonChat::SWaitChat> >::_Alloc_sentinel_and_proxy
PUBLIC	?_Getal@?$list@USWaitChat@CPythonChat@@V?$allocator@USWaitChat@CPythonChat@@@std@@@std@@AAEAAV?$allocator@U?$_List_node@USWaitChat@CPythonChat@@PAX@std@@@2@XZ ; std::list<CPythonChat::SWaitChat,std::allocator<CPythonChat::SWaitChat> >::_Getal
PUBLIC	?_Tidy@?$vector@HV?$allocator@H@std@@@std@@AAEXXZ ; std::vector<int,std::allocator<int> >::_Tidy
PUBLIC	?_Getal@?$vector@HV?$allocator@H@std@@@std@@AAEAAV?$allocator@H@2@XZ ; std::vector<int,std::allocator<int> >::_Getal
PUBLIC	?select_on_container_copy_construction@?$_Default_allocator_traits@V?$allocator@PAUSChatLine@CPythonChat@@@std@@@std@@SA?AV?$allocator@PAUSChatLine@CPythonChat@@@2@ABV32@@Z ; std::_Default_allocator_traits<std::allocator<CPythonChat::SChatLine *> >::select_on_container_copy_construction
PUBLIC	?_Orphan_non_end@?$_List_val@U?$_List_simple_types@PAUSChatLine@CPythonChat@@@std@@@std@@QAEXXZ ; std::_List_val<std::_List_simple_types<CPythonChat::SChatLine *> >::_Orphan_non_end
PUBLIC	?_Unlinknode@?$_List_val@U?$_List_simple_types@PAUSChatLine@CPythonChat@@@std@@@std@@QAEPAU?$_List_node@PAUSChatLine@CPythonChat@@PAX@2@PAU32@@Z ; std::_List_val<std::_List_simple_types<CPythonChat::SChatLine *> >::_Unlinknode
PUBLIC	??F?$_List_iterator@V?$_List_val@U?$_List_simple_types@PAUSChatLine@CPythonChat@@@std@@@std@@@std@@QAEAAV01@XZ ; std::_List_iterator<std::_List_val<std::_List_simple_types<CPythonChat::SChatLine *> > >::operator--
PUBLIC	??D?$_List_const_iterator@V?$_List_val@U?$_List_simple_types@PAUSChatLine@CPythonChat@@@std@@@std@@@std@@QBEABQAUSChatLine@CPythonChat@@XZ ; std::_List_const_iterator<std::_List_val<std::_List_simple_types<CPythonChat::SChatLine *> > >::operator*
PUBLIC	??E?$_List_const_iterator@V?$_List_val@U?$_List_simple_types@PAUSChatLine@CPythonChat@@@std@@@std@@@std@@QAEAAV01@XZ ; std::_List_const_iterator<std::_List_val<std::_List_simple_types<CPythonChat::SChatLine *> > >::operator++
PUBLIC	??0?$_List_unchecked_const_iterator@V?$_List_val@U?$_List_simple_types@PAUSChatLine@CPythonChat@@@std@@@std@@U_Iterator_base0@2@@std@@QAE@PAU?$_List_node@PAUSChatLine@CPythonChat@@PAX@1@PBV?$_List_val@U?$_List_simple_types@PAUSChatLine@CPythonChat@@@std@@@1@@Z ; std::_List_unchecked_const_iterator<std::_List_val<std::_List_simple_types<CPythonChat::SChatLine *> >,std::_Iterator_base0>::_List_unchecked_const_iterator<std::_List_val<std::_List_simple_types<CPythonChat::SChatLine *> >,std::_Iterator_base0>
PUBLIC	??0?$reverse_iterator@V?$_List_iterator@V?$_List_val@U?$_List_simple_types@PAUSChatLine@CPythonChat@@@std@@@std@@@std@@@std@@QAE@V?$_List_iterator@V?$_List_val@U?$_List_simple_types@PAUSChatLine@CPythonChat@@@std@@@std@@@1@@Z ; std::reverse_iterator<std::_List_iterator<std::_List_val<std::_List_simple_types<CPythonChat::SChatLine *> > > >::reverse_iterator<std::_List_iterator<std::_List_val<std::_List_simple_types<CPythonChat::SChatLine *> > > >
PUBLIC	?_Get_current@?$reverse_iterator@V?$_List_iterator@V?$_List_val@U?$_List_simple_types@PAUSChatLine@CPythonChat@@@std@@@std@@@std@@@std@@QBEABV?$_List_iterator@V?$_List_val@U?$_List_simple_types@PAUSChatLine@CPythonChat@@@std@@@std@@@2@XZ ; std::reverse_iterator<std::_List_iterator<std::_List_val<std::_List_simple_types<CPythonChat::SChatLine *> > > >::_Get_current
PUBLIC	?_Tidy@?$vector@USEmoticonsRecentChat@CPythonChat@@V?$allocator@USEmoticonsRecentChat@CPythonChat@@@std@@@std@@AAEXXZ ; std::vector<CPythonChat::SEmoticonsRecentChat,std::allocator<CPythonChat::SEmoticonsRecentChat> >::_Tidy
PUBLIC	?_Getal@?$vector@USEmoticonsRecentChat@CPythonChat@@V?$allocator@USEmoticonsRecentChat@CPythonChat@@@std@@@std@@AAEAAV?$allocator@USEmoticonsRecentChat@CPythonChat@@@2@XZ ; std::vector<CPythonChat::SEmoticonsRecentChat,std::allocator<CPythonChat::SEmoticonsRecentChat> >::_Getal
PUBLIC	?_Address_subscript@?$_Deque_val@U?$_Deque_simple_types@PAUSChatLine@CPythonChat@@@std@@@std@@QAEPAPAUSChatLine@CPythonChat@@I@Z ; std::_Deque_val<std::_Deque_simple_types<CPythonChat::SChatLine *> >::_Address_subscript
PUBLIC	??0?$_Deque_const_iterator@V?$_Deque_val@U?$_Deque_simple_types@PAUSChatLine@CPythonChat@@@std@@@std@@@std@@QAE@IPBU_Container_base12@1@@Z ; std::_Deque_const_iterator<std::_Deque_val<std::_Deque_simple_types<CPythonChat::SChatLine *> > >::_Deque_const_iterator<std::_Deque_val<std::_Deque_simple_types<CPythonChat::SChatLine *> > >
PUBLIC	??D?$_Deque_const_iterator@V?$_Deque_val@U?$_Deque_simple_types@PAUSChatLine@CPythonChat@@@std@@@std@@@std@@QBEABQAUSChatLine@CPythonChat@@XZ ; std::_Deque_const_iterator<std::_Deque_val<std::_Deque_simple_types<CPythonChat::SChatLine *> > >::operator*
PUBLIC	??E?$_Deque_const_iterator@V?$_Deque_val@U?$_Deque_simple_types@PAUSChatLine@CPythonChat@@@std@@@std@@@std@@QAEAAV01@XZ ; std::_Deque_const_iterator<std::_Deque_val<std::_Deque_simple_types<CPythonChat::SChatLine *> > >::operator++
PUBLIC	?_Compat@?$_Deque_const_iterator@V?$_Deque_val@U?$_Deque_simple_types@PAUSChatLine@CPythonChat@@@std@@@std@@@std@@QBEXABV12@@Z ; std::_Deque_const_iterator<std::_Deque_val<std::_Deque_simple_types<CPythonChat::SChatLine *> > >::_Compat
PUBLIC	??0?$_Tree@V?$_Tmap_traits@HUSChatSet@CPythonChat@@U?$less@H@std@@V?$allocator@U?$pair@$$CBHUSChatSet@CPythonChat@@@std@@@4@$0A@@std@@@std@@QAE@ABU?$less@H@1@@Z ; std::_Tree<std::_Tmap_traits<int,CPythonChat::SChatSet,std::less<int>,std::allocator<std::pair<int const ,CPythonChat::SChatSet> >,0> >::_Tree<std::_Tmap_traits<int,CPythonChat::SChatSet,std::less<int>,std::allocator<std::pair<int const ,CPythonChat::SChatSet> >,0> >
PUBLIC	?_Getal@?$_Tree@V?$_Tmap_traits@HUSChatSet@CPythonChat@@U?$less@H@std@@V?$allocator@U?$pair@$$CBHUSChatSet@CPythonChat@@@std@@@4@$0A@@std@@@std@@IAEAAV?$allocator@U?$_Tree_node@U?$pair@$$CBHUSChatSet@CPythonChat@@@std@@PAX@std@@@2@XZ ; std::_Tree<std::_Tmap_traits<int,CPythonChat::SChatSet,std::less<int>,std::allocator<std::pair<int const ,CPythonChat::SChatSet> >,0> >::_Getal
PUBLIC	?_Get_scary@?$_Tree@V?$_Tmap_traits@HUSChatSet@CPythonChat@@U?$less@H@std@@V?$allocator@U?$pair@$$CBHUSChatSet@CPythonChat@@@std@@@4@$0A@@std@@@std@@IAEPAV?$_Tree_val@U?$_Tree_simple_types@U?$pair@$$CBHUSChatSet@CPythonChat@@@std@@@std@@@2@XZ ; std::_Tree<std::_Tmap_traits<int,CPythonChat::SChatSet,std::less<int>,std::allocator<std::pair<int const ,CPythonChat::SChatSet> >,0> >::_Get_scary
PUBLIC	?_Get_scary@?$_Tree@V?$_Tmap_traits@HUSChatSet@CPythonChat@@U?$less@H@std@@V?$allocator@U?$pair@$$CBHUSChatSet@CPythonChat@@@std@@@4@$0A@@std@@@std@@IBEPBV?$_Tree_val@U?$_Tree_simple_types@U?$pair@$$CBHUSChatSet@CPythonChat@@@std@@@std@@@2@XZ ; std::_Tree<std::_Tmap_traits<int,CPythonChat::SChatSet,std::less<int>,std::allocator<std::pair<int const ,CPythonChat::SChatSet> >,0> >::_Get_scary
PUBLIC	?_Orphan_ptr@?$_Tree_val@U?$_Tree_simple_types@U?$pair@$$CBHUSChatSet@CPythonChat@@@std@@@std@@@std@@QAEXQAU?$_Tree_node@U?$pair@$$CBHUSChatSet@CPythonChat@@@std@@PAX@2@@Z ; std::_Tree_val<std::_Tree_simple_types<std::pair<int const ,CPythonChat::SChatSet> > >::_Orphan_ptr
PUBLIC	??E?$_Tree_const_iterator@V?$_Tree_val@U?$_Tree_simple_types@U?$pair@$$CBHUSChatSet@CPythonChat@@@std@@@std@@@std@@@std@@QAEAAV01@XZ ; std::_Tree_const_iterator<std::_Tree_val<std::_Tree_simple_types<std::pair<int const ,CPythonChat::SChatSet> > > >::operator++
