; Listing generated by Microsoft (R) Optimizing Compiler Version 19.44.35219.0 

	TITLE	c:\anka2project\anka2project\source\binary\vs_files\userinterface\release\pythonapplicationmodule.obj
	.686P
	.XMM
	include listing.inc
	.model	flat

INCLUDELIB OLDNAMES

PUBLIC	??_C@_02OIKAIHIF@s?$CD@				; `string'
PUBLIC	??_C@_01LKDEMHDF@s@				; `string'
PUBLIC	??_C@_0DK@CJFAEGAK@Anka2?4com?5?$CD?5Ger?gek?5Rekabet?5Bura@ ; `string'
PUBLIC	??_C@_04EOBPFJGD@ffff@				; `string'
PUBLIC	??_C@_01INIBCBCB@f@				; `string'
PUBLIC	??_C@_02PINLEBJB@fi@				; `string'
PUBLIC	??_C@_0BH@GNAGLJEE@Wrong?5Cursor?5Name?5?$FL?$CFd?$FN@ ; `string'
PUBLIC	??_C@_02OCDGCAAK@si@				; `string'
PUBLIC	??_C@_04JCAPCJAP@?4tga@				; `string'
PUBLIC	??_C@_04PMOCAHAA@open@				; `string'
PUBLIC	??_C@_0BG@EOCGHNJF@SetTextTailLivingTime@	; `string'
PUBLIC	??_C@_0BD@PILPKKLH@SetHairColorEnable@		; `string'
PUBLIC	??_C@_0BH@PJOFIHBE@SetArmorSpecularEnable@	; `string'
PUBLIC	??_C@_0BI@ONHBEMJA@SetWeaponSpecularEnable@	; `string'
PUBLIC	??_C@_0BM@CMPMDOBN@SetSkillEffectUpgradeEnable@	; `string'
PUBLIC	??_C@_0CI@KEKBEMLJ@SetTwoHandedWeaponAttSpeedDecre@ ; `string'
PUBLIC	??_C@_0BD@CPFDKOFJ@SetRideHorseEnable@		; `string'
PUBLIC	??_C@_0BF@CEAHHILA@SetCameraMaxDistance@	; `string'
PUBLIC	??_C@_09ILNFAENI@SetMinFog@			; `string'
PUBLIC	??_C@_0N@KCIEBLLG@SetFrameSkip@			; `string'
PUBLIC	??_C@_0N@CLLAGICL@GetImageInfo@			; `string'
PUBLIC	??_C@_07NAJNLNAF@GetInfo@			; `string'
PUBLIC	??_C@_0L@HMEHDBP@UpdateGame@			; `string'
PUBLIC	??_C@_0L@ONMMANJD@RenderGame@			; `string'
PUBLIC	??_C@_04KLCPKPBE@Loop@				; `string'
PUBLIC	??_C@_06MIKANEJK@Create@			; `string'
PUBLIC	??_C@_07MNGBFJEN@Process@			; `string'
PUBLIC	??_C@_04LBABLPF@Exit@				; `string'
PUBLIC	??_C@_05BGKIEECB@Abort@				; `string'
PUBLIC	??_C@_0BA@PPCHHCMN@SetMouseHandler@		; `string'
PUBLIC	??_C@_0M@DHIFKLBN@IsExistFile@			; `string'
PUBLIC	??_C@_0M@KODKGGCI@GetFileList@			; `string'
PUBLIC	??_C@_09IADKBAEN@SetCamera@			; `string'
PUBLIC	??_C@_09KOHPDBNP@GetCamera@			; `string'
PUBLIC	??_C@_0P@LHFPHHJA@GetCameraPitch@		; `string'
PUBLIC	??_C@_0BC@JICDJDCH@GetCameraRotation@		; `string'
PUBLIC	??_C@_07CDIANBOE@GetTime@			; `string'
PUBLIC	??_C@_0O@JKNDJHIN@GetGlobalTime@		; `string'
PUBLIC	??_C@_0BD@HGCMJHC@GetGlobalTimeStamp@		; `string'
PUBLIC	??_C@_0N@JKLFODAC@GetUpdateFPS@			; `string'
PUBLIC	??_C@_0N@EHIMFGIG@GetRenderFPS@			; `string'
PUBLIC	??_C@_0N@HGIDFLAJ@RotateCamera@			; `string'
PUBLIC	??_C@_0M@PKAIAJKC@PitchCamera@			; `string'
PUBLIC	??_C@_0L@BGDDIOFP@ZoomCamera@			; `string'
PUBLIC	??_C@_0BC@FCGIGAKD@MovieRotateCamera@		; `string'
PUBLIC	??_C@_0BB@KFJAAFFB@MoviePitchCamera@		; `string'
PUBLIC	??_C@_0BA@ILLHHFGG@MovieZoomCamera@		; `string'
PUBLIC	??_C@_0BB@PJGDEPJO@MovieResetCamera@		; `string'
PUBLIC	??_C@_0BK@PBNANFFG@GetAvailableTextureMemory@	; `string'
PUBLIC	??_C@_0O@KFOAIOPC@GetRenderTime@		; `string'
PUBLIC	??_C@_0O@EPOIPAHO@GetUpdateTime@		; `string'
PUBLIC	??_C@_07EGHKJKFO@GetLoad@			; `string'
PUBLIC	??_C@_0N@KBJEAIDC@GetFaceSpeed@			; `string'
PUBLIC	??_C@_0N@FGHMKANF@GetFaceCount@			; `string'
PUBLIC	??_C@_06GHJACMIL@SetFPS@			; `string'
PUBLIC	??_C@_0BI@BPPNOEKE@SetGlobalCenterPosition@	; `string'
PUBLIC	??_C@_0BC@MCKFCFLJ@SetCenterPosition@		; `string'
PUBLIC	??_C@_0BC@DJJGDMOB@GetCursorPosition@		; `string'
PUBLIC	??_C@_09CIIBMEDP@GetRandom@			; `string'
PUBLIC	??_C@_0O@NFOAEJMI@RunPythonFile@		; `string'
PUBLIC	??_C@_0O@JGKOEJBF@IsWebPageMode@		; `string'
PUBLIC	??_C@_0M@LMDMBNNG@ShowWebPage@			; `string'
PUBLIC	??_C@_0M@CJKDPGGC@MoveWebPage@			; `string'
PUBLIC	??_C@_0M@HKOOBKOE@HideWebPage@			; `string'
PUBLIC	??_C@_09EJGJNKNL@IsPressed@			; `string'
PUBLIC	??_C@_09PKKOCJGB@SetCursor@			; `string'
PUBLIC	??_C@_09NEOLAIPD@GetCursor@			; `string'
PUBLIC	??_C@_0L@BIENLPGM@ShowCursor@			; `string'
PUBLIC	??_C@_0L@MGJDDPFG@HideCursor@			; `string'
PUBLIC	??_C@_0N@BFHCIAEF@IsShowCursor@			; `string'
PUBLIC	??_C@_0P@FMIDHOAE@IsLiarCursorOn@		; `string'
PUBLIC	??_C@_0BC@IDNDDKLI@SetSoftwareCursor@		; `string'
PUBLIC	??_C@_0BC@KKHIHHDJ@SetHardwareCursor@		; `string'
PUBLIC	??_C@_0P@KJLEKPPL@SetConnectData@		; `string'
PUBLIC	??_C@_0P@GHKKFFNH@GetConnectData@		; `string'
PUBLIC	??_C@_0BF@IMHAMDDH@GetRotatingDirection@	; `string'
PUBLIC	??_C@_0BE@JKNPCCAK@GetDegreeDifference@		; `string'
PUBLIC	??_C@_05PFDOMJEF@Sleep@				; `string'
PUBLIC	??_C@_0BD@CKMKHHJC@SetDefaultFontName@		; `string'
PUBLIC	??_C@_0BD@CENDFAOC@SetGuildSymbolPath@		; `string'
PUBLIC	??_C@_0BI@LNMJCGJN@EnableSpecialCameraMode@	; `string'
PUBLIC	??_C@_0P@NCLIAJKF@SetCameraSpeed@		; `string'
PUBLIC	??_C@_0BC@JPDLAHCD@SaveCameraSetting@		; `string'
PUBLIC	??_C@_0BC@KEOGBKMG@LoadCameraSetting@		; `string'
PUBLIC	??_C@_0BB@IPPGJFKO@SetDefaultCamera@		; `string'
PUBLIC	??_C@_0BB@JANPDNEC@SetCameraSetting@		; `string'
PUBLIC	??_C@_0O@MFMELJAK@SetSightRange@		; `string'
PUBLIC	??_C@_0M@LOHDPEAO@IsFileExist@			; `string'
PUBLIC	??_C@_0N@JAMKKFFG@OpenTextFile@			; `string'
PUBLIC	??_C@_0O@LNEGOIPA@CloseTextFile@		; `string'
PUBLIC	??_C@_0BF@BNHHEKFO@GetTextFileLineCount@	; `string'
PUBLIC	??_C@_0BA@HHNFKANE@GetTextFileLine@		; `string'
PUBLIC	??_C@_0O@JDECMIPJ@GetLocaleName@		; `string'
PUBLIC	??_C@_0O@OKMLAHKI@GetLocalePath@		; `string'
PUBLIC	??_C@_0P@JHGEFJDO@LoadLocaleAddr@		; `string'
PUBLIC	??_C@_0P@BFJDMEJO@LoadLocaleData@		; `string'
PUBLIC	??_C@_0BD@CEMKCGHA@GetDefaultCodePage@		; `string'
PUBLIC	??_C@_0N@HDAEMEAH@SetControlFP@			; `string'
PUBLIC	??_C@_0BB@IFMAFIHG@SetSpecularSpeed@		; `string'
PUBLIC	??_C@_0BI@DNKBNLNC@testGetAccumulationTime@	; `string'
PUBLIC	??_C@_0BK@PLDHJGMN@testResetAccumulationTime@	; `string'
PUBLIC	??_C@_0BF@KHKICLKO@testSetSpecularColor@	; `string'
PUBLIC	??_C@_0BB@MMPIECKB@SetVisibleNotice@		; `string'
PUBLIC	??_C@_0BA@NLDNPIOL@IsVisibleNotice@		; `string'
PUBLIC	??_C@_0BF@BOMOCGIP@EnableTestServerFlag@	; `string'
PUBLIC	??_C@_0BH@GBDECBIH@IsEnableTestServerFlag@	; `string'
PUBLIC	??_C@_0BB@DLDOCGLL@SetGuildMarkPath@		; `string'
PUBLIC	??_C@_0N@LIPHBNAO@OnLogoUpdate@			; `string'
PUBLIC	??_C@_0N@ELECBFOK@OnLogoRender@			; `string'
PUBLIC	??_C@_0L@JMMGDKPP@OnLogoOpen@			; `string'
PUBLIC	??_C@_0M@JMIFNMOK@OnLogoClose@			; `string'
PUBLIC	??_C@_0N@BFFIJKHB@ShellExecute@			; `string'
PUBLIC	??_C@_0P@BCNBBHFI@OpenWebBrowser@		; `string'
PUBLIC	??_C@_07MMGEHGCI@GetName@			; `string'
PUBLIC	??_C@_09OPOGDJM@SetLocale@			; `string'
PUBLIC	??_C@_09CALLECAO@GetLocale@			; `string'
PUBLIC	??_C@_0BB@DGBLNILG@FlashApplication@		; `string'
PUBLIC	??_C@_0BE@LJAANCDG@SetMultiFarmExeIcon@		; `string'
PUBLIC	??_C@_09OKOJMLAA@INFO_ITEM@			; `string'
PUBLIC	??_C@_0L@FNNFPLHG@INFO_ACTOR@			; `string'
PUBLIC	??_C@_0M@KLBHMBMD@INFO_EFFECT@			; `string'
PUBLIC	??_C@_0O@FAGLOALJ@INFO_TEXTTAIL@		; `string'
PUBLIC	??_C@_0BG@KEIJCHNJ@DEGREE_DIRECTION_SAME@	; `string'
PUBLIC	??_C@_0BH@LNDFJAFE@DEGREE_DIRECTION_RIGHT@	; `string'
PUBLIC	??_C@_0BG@JGNHHMCM@DEGREE_DIRECTION_LEFT@	; `string'
PUBLIC	??_C@_07CJEJDFBD@VK_LEFT@			; `string'
PUBLIC	??_C@_08LOMCDCA@VK_RIGHT@			; `string'
PUBLIC	??_C@_05PIGLHCBF@VK_UP@				; `string'
PUBLIC	??_C@_07NLENKNCK@VK_DOWN@			; `string'
PUBLIC	??_C@_07OMPILPEG@VK_HOME@			; `string'
PUBLIC	??_C@_06LPJBNMHN@VK_END@			; `string'
PUBLIC	??_C@_09EABNPHOI@VK_DELETE@			; `string'
PUBLIC	??_C@_0L@BOHNMBC@DIK_ESCAPE@			; `string'
PUBLIC	??_C@_07CACBFKLO@DIK_ESC@			; `string'
PUBLIC	??_C@_05GCLPJNBN@DIK_1@				; `string'
PUBLIC	??_C@_05EJJCMONO@DIK_2@				; `string'
PUBLIC	??_C@_05FAIJPPJP@DIK_3@				; `string'
PUBLIC	??_C@_05BPMIGJFI@DIK_4@				; `string'
PUBLIC	??_C@_05GNDFIBJ@DIK_5@				; `string'
PUBLIC	??_C@_05CNPOALNK@DIK_6@				; `string'
PUBLIC	??_C@_05DEOFDKJL@DIK_7@				; `string'
PUBLIC	??_C@_05LDHNCGFE@DIK_8@				; `string'
PUBLIC	??_C@_05KKGGBHBF@DIK_9@				; `string'
PUBLIC	??_C@_05HLKEKMFM@DIK_0@				; `string'
PUBLIC	??_C@_09DOHACMKC@DIK_MINUS@			; `string'
PUBLIC	??_C@_0L@KKCLPAPI@DIK_EQUALS@			; `string'
PUBLIC	??_C@_08HHEEGKBL@DIK_BACK@			; `string'
PUBLIC	??_C@_07MODNCMBL@DIK_TAB@			; `string'
PUBLIC	??_C@_05HECPGLK@DIK_Q@				; `string'
PUBLIC	??_C@_05FBBIFBDM@DIK_W@				; `string'
PUBLIC	??_C@_05CJOMCBOP@DIK_E@				; `string'
PUBLIC	??_C@_05CMGPKFHJ@DIK_R@				; `string'
PUBLIC	??_C@_05HKDFACPP@DIK_T@				; `string'
PUBLIC	??_C@_05MPJLHMLC@DIK_Y@				; `string'
PUBLIC	??_C@_05GDCODDLO@DIK_U@				; `string'
PUBLIC	??_C@_05IFFJGOOD@DIK_I@				; `string'
PUBLIC	??_C@_05NDADMJGF@DIK_O@				; `string'
PUBLIC	??_C@_05BOFJMHPL@DIK_P@				; `string'
PUBLIC	??_C@_0N@EFJDLCEF@DIK_LBRACKET@			; `string'
PUBLIC	??_C@_0N@CBJBCLKG@DIK_RBRACKET@			; `string'
PUBLIC	??_C@_0L@JLNKBJCL@DIK_RETURN@			; `string'
PUBLIC	??_C@_0N@ODLLDAI@DIK_LCONTROL@			; `string'
PUBLIC	??_C@_05ENIAOEOL@DIK_A@				; `string'
PUBLIC	??_C@_05DFHEJEDI@DIK_S@				; `string'
PUBLIC	??_C@_05DAPHBAKO@DIK_D@				; `string'
PUBLIC	??_C@_05CMBHCCM@DIK_F@				; `string'
PUBLIC	??_C@_05BLNKEDGN@DIK_G@				; `string'
PUBLIC	??_C@_05JMECFPKC@DIK_H@				; `string'
PUBLIC	??_C@_05KOHEDNCA@DIK_J@				; `string'
PUBLIC	??_C@_05LHGPAMGB@DIK_K@				; `string'
PUBLIC	??_C@_05PICOJKKG@DIK_L@				; `string'
PUBLIC	??_C@_0O@NEECDLLB@DIK_SEMICOLON@		; `string'
PUBLIC	??_C@_0P@JDEKLKAM@DIK_APOSTROPHE@		; `string'
PUBLIC	??_C@_09MOGGLCIP@DIK_GRAVE@			; `string'
PUBLIC	??_C@_0L@GNGJHMON@DIK_LSHIFT@			; `string'
PUBLIC	??_C@_0O@DGKNNOHE@DIK_BACKSLASH@		; `string'
PUBLIC	??_C@_05OELGCPHB@DIK_Z@				; `string'
PUBLIC	??_C@_05NGIAENPD@DIK_X@				; `string'
PUBLIC	??_C@_05HPLGIGGJ@DIK_C@				; `string'
PUBLIC	??_C@_05EIADGAHN@DIK_V@				; `string'
PUBLIC	??_C@_05GGKNLHCI@DIK_B@				; `string'
PUBLIC	??_C@_05MKBIPICE@DIK_N@				; `string'
PUBLIC	??_C@_05OBDFKLOH@DIK_M@				; `string'
PUBLIC	??_C@_09PDEOJFIH@DIK_COMMA@			; `string'
PUBLIC	??_C@_0L@HHNLMNCM@DIK_PERIOD@			; `string'
PUBLIC	??_C@_09DKJEGHEH@DIK_SLASH@			; `string'
PUBLIC	??_C@_0L@FKIIJLHO@DIK_RSHIFT@			; `string'
PUBLIC	??_C@_0N@DHLLGHHC@DIK_MULTIPLY@			; `string'
PUBLIC	??_C@_08OHCJNNJ@DIK_LALT@			; `string'
PUBLIC	??_C@_09DGAMMAPJ@DIK_SPACE@			; `string'
PUBLIC	??_C@_0M@KEADBGIC@DIK_CAPITAL@			; `string'
PUBLIC	??_C@_06PEIHKKCD@DIK_F1@			; `string'
PUBLIC	??_C@_06NPKKPJOA@DIK_F2@			; `string'
PUBLIC	??_C@_06MGLBMIKB@DIK_F3@			; `string'
PUBLIC	??_C@_06IJPAFOGG@DIK_F4@			; `string'
PUBLIC	??_C@_06JAOLGPCH@DIK_F5@			; `string'
PUBLIC	??_C@_06LLMGDMOE@DIK_F6@			; `string'
PUBLIC	??_C@_06KCNNANKF@DIK_F7@			; `string'
PUBLIC	??_C@_06CFEFBBGK@DIK_F8@			; `string'
PUBLIC	??_C@_06DMFOCACL@DIK_F9@			; `string'
PUBLIC	??_C@_07HNNFMACL@DIK_F10@			; `string'
PUBLIC	??_C@_0M@BAOCLHIM@DIK_NUMLOCK@			; `string'
PUBLIC	??_C@_0L@HPJOFPCB@DIK_SCROLL@			; `string'
PUBLIC	??_C@_0M@NDOIJKED@DIK_NUMPAD7@			; `string'
PUBLIC	??_C@_0M@FEHAIGIM@DIK_NUMPAD8@			; `string'
PUBLIC	??_C@_0M@ENGLLHMN@DIK_NUMPAD9@			; `string'
PUBLIC	??_C@_0N@ECOBCKNF@DIK_SUBTRACT@			; `string'
PUBLIC	??_C@_0M@PIMFMJIA@DIK_NUMPAD4@			; `string'
PUBLIC	??_C@_0M@OBNOPIMB@DIK_NUMPAD5@			; `string'
PUBLIC	??_C@_0M@MKPDKLAC@DIK_NUMPAD6@			; `string'
PUBLIC	??_C@_07PJGLOONL@DIK_ADD@			; `string'
PUBLIC	??_C@_0M@IFLCDNMF@DIK_NUMPAD1@			; `string'
PUBLIC	??_C@_0M@KOJPGOAG@DIK_NUMPAD2@			; `string'
PUBLIC	??_C@_0M@LHIEFPEH@DIK_NUMPAD3@			; `string'
PUBLIC	??_C@_0M@JMKJAMIE@DIK_NUMPAD0@			; `string'
PUBLIC	??_C@_0M@PCNKFDKI@DIK_DECIMAL@			; `string'
PUBLIC	??_C@_07GEMOPBGK@DIK_F11@			; `string'
PUBLIC	??_C@_07EPODKCKJ@DIK_F12@			; `string'
PUBLIC	??_C@_0O@DEOEEHEE@DIK_NEXTTRACK@		; `string'
PUBLIC	??_C@_0BA@OLMCJCJF@DIK_NUMPADENTER@		; `string'
PUBLIC	??_C@_0N@GKDJCKOL@DIK_RCONTROL@			; `string'
PUBLIC	??_C@_08KNIFKFHJ@DIK_MUTE@			; `string'
PUBLIC	??_C@_0P@OJEJDHIP@DIK_CALCULATOR@		; `string'
PUBLIC	??_C@_0O@ECAMOKPG@DIK_PLAYPAUSE@		; `string'
PUBLIC	??_C@_0O@FLFOAKOG@DIK_MEDIASTOP@		; `string'
PUBLIC	??_C@_0P@FKHBCEAD@DIK_VOLUMEDOWN@		; `string'
PUBLIC	??_C@_0N@GPHLGHED@DIK_VOLUMEUP@			; `string'
PUBLIC	??_C@_0M@IEADBFND@DIK_WEBHOME@			; `string'
PUBLIC	??_C@_0BA@ECBGFAAH@DIK_NUMPADCOMMA@		; `string'
PUBLIC	??_C@_0L@HDEGMNOK@DIK_DIVIDE@			; `string'
PUBLIC	??_C@_09PCEGCDIO@DIK_SYSRQ@			; `string'
PUBLIC	??_C@_08NBKCLEDK@DIK_RALT@			; `string'
PUBLIC	??_C@_09COEFGPNN@DIK_PAUSE@			; `string'
PUBLIC	??_C@_08EJDGAFAN@DIK_HOME@			; `string'
PUBLIC	??_C@_06JGABONOM@DIK_UP@			; `string'
PUBLIC	??_C@_08PJJCOFHN@DIK_PGUP@			; `string'
PUBLIC	??_C@_08IMIHIPFI@DIK_LEFT@			; `string'
PUBLIC	??_C@_09OKEHHFIC@DIK_RIGHT@			; `string'
PUBLIC	??_C@_07HLJOPMFK@DIK_END@			; `string'
PUBLIC	??_C@_08HOIDBHGB@DIK_DOWN@			; `string'
PUBLIC	??_C@_08DADHBDOF@DIK_PGDN@			; `string'
PUBLIC	??_C@_0L@MGNAFAII@DIK_INSERT@			; `string'
PUBLIC	??_C@_0L@HICEJOHK@DIK_DELETE@			; `string'
PUBLIC	??_C@_08MNOGKNKK@DIK_LWIN@			; `string'
PUBLIC	??_C@_08BCDGIEEJ@DIK_RWIN@			; `string'
PUBLIC	??_C@_08EEDKKFEB@DIK_APPS@			; `string'
PUBLIC	??_C@_06IOJAGNKJ@NORMAL@			; `string'
PUBLIC	??_C@_06JIJKOHKJ@ATTACK@			; `string'
PUBLIC	??_C@_06JNJLBPLI@TARGET@			; `string'
PUBLIC	??_C@_04LNOLLMNL@TALK@				; `string'
PUBLIC	??_C@_07LGCIEODJ@CANT_GO@			; `string'
PUBLIC	??_C@_04IGIDHFMJ@PICK@				; `string'
PUBLIC	??_C@_04KEJCELCL@DOOR@				; `string'
PUBLIC	??_C@_05HLBMIDNH@CHAIR@				; `string'
PUBLIC	??_C@_05DKLEPMBK@MAGIC@				; `string'
PUBLIC	??_C@_03OOKILKBD@BUY@				; `string'
PUBLIC	??_C@_04MPOIGBFL@SELL@				; `string'
PUBLIC	??_C@_0O@MAJOJEIM@CAMERA_ROTATE@		; `string'
PUBLIC	??_C@_05NILMGENH@HSIZE@				; `string'
PUBLIC	??_C@_05OBGAAHDM@VSIZE@				; `string'
PUBLIC	??_C@_06LKCKECPP@HVSIZE@			; `string'
PUBLIC	??_C@_04FOCIOHFI@FISH@				; `string'
PUBLIC	??_C@_0BD@BFBNCJCC@CAMERA_TO_POSITIVE@		; `string'
PUBLIC	??_C@_0BD@JPBNJGLJ@CAMERA_TO_NEGATIVE@		; `string'
PUBLIC	??_C@_0M@NJFGNKPE@CAMERA_STOP@			; `string'
PUBLIC	??_C@_0BG@NNONEOJP@ENABLE_COSTUME_SYSTEM@	; `string'
PUBLIC	??_C@_0BF@JNPGDOCA@ENABLE_ENERGY_SYSTEM@	; `string'
PUBLIC	??_C@_0BK@MHKPDOOB@ENABLE_DRAGON_SOUL_SYSTEM@	; `string'
PUBLIC	??_C@_0BM@LNFCINHP@ENABLE_NEW_EQUIPMENT_SYSTEM@	; `string'
PUBLIC	??_C@_0BJ@CLOLEGP@ENABLE_LOAD_INDEX_BINARY@	; `string'
PUBLIC	??_C@_0BG@EJHALOGN@ENABLE_CHANGE_CHANNEL@	; `string'
PUBLIC	??_C@_0BJ@EEABCGMI@ENABLE_GUILD_RANK_SYSTEM@	; `string'
PUBLIC	??_C@_0BN@HOIDIKJA@ENABLE_VIEW_TARGET_PLAYER_HP@ ; `string'
PUBLIC	??_C@_0BO@LEKLIGFK@ENABLE_VIEW_TARGET_DECIMAL_HP@ ; `string'
PUBLIC	??_C@_0BG@DNNPLDMM@ENABLE_MESSENGER_TEAM@	; `string'
PUBLIC	??_C@_0BL@ODDIDMFC@ENABLE_RENEWAL_DEAD_PACKET@	; `string'
PUBLIC	??_C@_0BE@FDIHPFHM@ENABLE_MAP_TELEPORT@		; `string'
PUBLIC	??_C@_0BG@KNGLICHO@ENABLE_RENEWAL_SHOPEX@	; `string'
PUBLIC	??_C@_0BG@CKLLJJNA@ENABLE_DESTROY_DIALOG@	; `string'
PUBLIC	??_C@_0P@KIOCPJHD@ENABLE_FOG_FIX@		; `string'
PUBLIC	??_C@_0BA@KEDCFOBK@ENABLE_ENB_MODE@		; `string'
PUBLIC	??_C@_0CB@FNCEEDIE@ENABLE_ENVIRONMENT_EFFECT_OPTIO@ ; `string'
PUBLIC	??_C@_0BG@FDOAIBIN@ENABLE_GRAPHIC_ON_OFF@	; `string'
PUBLIC	??_C@_0BE@EJKFNFHB@ENABLE_MOUNT_SYSTEM@		; `string'
PUBLIC	??_C@_0BC@CPOIIJIB@ENABLE_PET_SYSTEM@		; `string'
PUBLIC	??_C@_0BH@KGPICAGJ@ENABLE_COINS_INVENTORY@	; `string'
PUBLIC	??_C@_0BG@CKGFIAKE@ENABLE_SORT_INVENTORY@	; `string'
PUBLIC	??_C@_0BG@NAKAIPKG@ENABLE_INSTANT_PICKUP@	; `string'
PUBLIC	??_C@_0BI@DCKOBBOH@ENABLE_EXTENDED_SAFEBOX@	; `string'
PUBLIC	??_C@_0BH@LDLMBOCI@ENABLE_MESSENGER_BLOCK@	; `string'
PUBLIC	??_C@_0BF@ICCAGOLJ@ENABLE_RENEWAL_QUEST@	; `string'
PUBLIC	??_C@_0BH@IDDFPFEO@ENABLE_QUICK_SELL_ITEM@	; `string'
PUBLIC	??_C@_0BN@NNDEFGCP@ENABLE_MULTI_LANGUAGE_SYSTEM@ ; `string'
PUBLIC	??_C@_0P@EOFGLPDC@LOCALE_DEFAULT@		; `string'
PUBLIC	??_C@_09LPPKCIMI@LOCALE_EN@			; `string'
PUBLIC	??_C@_09LPIIKMHM@LOCALE_RO@			; `string'
PUBLIC	??_C@_09BFDKLDII@LOCALE_PT@			; `string'
PUBLIC	??_C@_09EAJGEENE@LOCALE_ES@			; `string'
PUBLIC	??_C@_09FLMLMLMM@LOCALE_FR@			; `string'
PUBLIC	??_C@_09FNMMJLDE@LOCALE_DE@			; `string'
PUBLIC	??_C@_09JHCBCLNB@LOCALE_PL@			; `string'
PUBLIC	??_C@_09GMNCLHH@LOCALE_IT@			; `string'
PUBLIC	??_C@_09JFNJIDCP@LOCALE_CZ@			; `string'
PUBLIC	??_C@_09BOBEHAAB@LOCALE_HU@			; `string'
PUBLIC	??_C@_09EEGJLMNC@LOCALE_TR@			; `string'
PUBLIC	??_C@_0P@EMLFCLHL@LOCALE_MAX_NUM@		; `string'
PUBLIC	??_C@_0CA@KPFJEDLP@ENABLE_EXTENDED_WHISPER_DETAILS@ ; `string'
PUBLIC	??_C@_0BL@HKIPHBEA@ENABLE_RENEWAL_BONUS_BOARD@	; `string'
PUBLIC	??_C@_0BC@IICODLAC@ENABLE_GOLD_LIMIT@		; `string'
PUBLIC	??_C@_0BN@HFPGHJNO@ENABLE_WEAPON_COSTUME_SYSTEM@ ; `string'
PUBLIC	??_C@_0BJ@OOFGBBFO@ENABLE_RENEWAL_SWITCHBOT@	; `string'
PUBLIC	??_C@_0BE@EHGLIKAL@ENABLE_RENEWAL_CUBE@		; `string'
PUBLIC	??_C@_0BO@PJBOGDHG@ENABLE_RENEWAL_CLIENT_VERSION@ ; `string'
PUBLIC	??_C@_0BK@JPEJEIPL@ENABLE_CLIENT_PERFORMANCE@	; `string'
PUBLIC	??_C@_0BM@OHBGEPCP@ENABLE_TELEPORT_TO_A_FRIEND@	; `string'
PUBLIC	??_C@_0BD@HDLIFGNJ@ENABLE_BLINK_ALERT@		; `string'
PUBLIC	??_C@_0BM@ILFELCEF@ENABLE_METIN_STONES_MINIMAP@	; `string'
PUBLIC	??_C@_0BD@FAICKCGG@ENABLE_AUTO_REFINE@		; `string'
PUBLIC	??_C@_0BF@LDJJKBCK@ENABLE_SHOW_MOB_INFO@	; `string'
PUBLIC	??_C@_0BD@CAANKIHI@ENABLE_DICE_SYSTEM@		; `string'
PUBLIC	??_C@_0BG@KGBOBIJP@ENABLE_MOUNT_PET_SKIN@	; `string'
PUBLIC	??_C@_0BG@OLFFBABC@ENABLE_PENDANT_SYSTEM@	; `string'
PUBLIC	??_C@_0BL@BJLHGOJN@ENABLE_HIDE_COSTUME_SYSTEM@	; `string'
PUBLIC	??_C@_0BL@KGNNLHIE@ENABLE_RENEWAL_SERVER_LIST@	; `string'
PUBLIC	??_C@_0CC@IABBIMPP@ENABLE_EXTEND_TIME_COSTUME_SYST@ ; `string'
PUBLIC	??_C@_0BL@HNDAJCHJ@ENABLE_ACCE_COSTUME_SYSTEM@	; `string'
PUBLIC	??_C@_0BG@MMGCEMF@ENABLE_ATTBONUS_METIN@	; `string'
PUBLIC	??_C@_0BF@OECKEMAD@ENABLE_BIOLOG_SYSTEM@	; `string'
PUBLIC	??_C@_0BF@BLNJFEGN@ENABLE_MOB_DROP_INFO@	; `string'
PUBLIC	??_C@_0BA@HPELNPOC@ENABLE_ANTI_EXP@		; `string'
PUBLIC	??_C@_0BH@ILAGBPOI@ENABLE_VIEW_CHEST_DROP@	; `string'
PUBLIC	??_C@_0BJ@CJJKOKPF@ENABLE_SPECIAL_INVENTORY@	; `string'
PUBLIC	??_C@_0BL@FPEGKCKL@ENABLE_RENEWAL_OFFLINESHOP@	; `string'
PUBLIC	??_C@_0BE@OLMKIFGM@ENABLE_TITLE_SYSTEM@		; `string'
PUBLIC	??_C@_0BF@LJNEAKLH@ENABLE_ATTBONUS_BOSS@	; `string'
PUBLIC	??_C@_0BF@GNPDFOI@ENABLE_RENDER_TARGET@		; `string'
PUBLIC	??_C@_0BF@CNEHOFGF@ENABLE_EVENT_MANAGER@	; `string'
PUBLIC	??_C@_0BH@KJKAIDCH@ENABLE_RESTART_INSTANT@	; `string'
PUBLIC	??_C@_0CC@BNACIKDA@ENABLE_MINIGAME_OKEY_CARDS_SYST@ ; `string'
PUBLIC	??_C@_0BL@DAICEAJE@ENABLE_RENEWAL_BATTLE_PASS@	; `string'
PUBLIC	??_C@_0BO@CKMKHAKF@ENABLE_MONSTER_TARGET_ELEMENT@ ; `string'
PUBLIC	??_C@_0BM@PGGEJJMI@ENABLE_RENEWAL_SPECIAL_CHAT@	; `string'
PUBLIC	??_C@_0BG@KFMPJIIL@ENABLE_RENEWAL_AFFECT@	; `string'
PUBLIC	??_C@_0BI@HBBBBDIM@ENABLE_MULTI_FARM_BLOCK@	; `string'
PUBLIC	??_C@_0BL@LDJNEEMG@ENABLE_RENEWAL_TEAM_AFFECT@	; `string'
PUBLIC	??_C@_0BK@PELLEIIK@ENABLE_SKILL_COLOR_SYSTEM@	; `string'
PUBLIC	??_C@_0BK@FIACKIGC@ENABLE_5LAYER_SKILL_COLOR@	; `string'
PUBLIC	??_C@_0BO@CMBODPKI@ENABLE_RENEWAL_PREMIUM_SYSTEM@ ; `string'
PUBLIC	??_C@_0BK@EJIGNKHE@ENABLE_INGAME_WIKI_SYSTEM@	; `string'
PUBLIC	??_C@_0BK@GBCANIGE@ENABLE_PICKUP_ITEM_EFFECT@	; `string'
PUBLIC	??_C@_0CB@FNOMIOEN@ENABLE_OFFLINESHOP_SEARCH_SYSTE@ ; `string'
PUBLIC	??_C@_0BI@JBGAMODN@ENABLE_RENEWAL_OX_EVENT@	; `string'
PUBLIC	??_C@_0BL@IKKFOHIL@ENABLE_RENEWAL_TEXT_SHADOW@	; `string'
PUBLIC	??_C@_0BC@OBOHBNHD@ENABLE_FOV_OPTION@		; `string'
PUBLIC	??_C@_0BL@PBGDFCNK@DEFAULT_CAMERA_PERSPECTIVE@	; `string'
PUBLIC	??_C@_0BH@OEJHPDJH@MIN_CAMERA_PERSPECTIVE@	; `string'
PUBLIC	??_C@_0BH@OAANMCLN@MAX_CAMERA_PERSPECTIVE@	; `string'
PUBLIC	??_C@_0CA@KGMEEFIE@ENABLE_AUTOMATIC_PICK_UP_SYSTEM@ ; `string'
PUBLIC	??_C@_0BK@PNCDPFFC@ENABLE_MAINTENANCE_SYSTEM@	; `string'
PUBLIC	??_C@_0BK@JCBGCFCM@ENABLE_STONE_SCALE_OPTION@	; `string'
PUBLIC	??_C@_0BM@BDDMCJJO@ENABLE_RENEWAL_SKILL_SELECT@	; `string'
PUBLIC	??_C@_0BG@PMMNBCCG@ENABLE_MULTI_TEXTLINE@	; `string'
PUBLIC	??_C@_0BM@NOHEAJFI@ENABLE_BONUS_COSTUME_SYSTEM@	; `string'
PUBLIC	??_C@_0BH@FCDBIIDC@ENABLE_NEW_DUNGEON_LIB@	; `string'
PUBLIC	??_C@_0BP@KCFNMKHN@ENABLE_RENEWAL_INGAME_ITEMSHOP@ ; `string'
PUBLIC	??_C@_0BL@HMHGNBFO@ENABLE_SLOT_MARKING_SYSTEM@	; `string'
PUBLIC	??_C@_0BL@EBFHGPFG@ENABLE_AURA_COSTUME_SYSTEM@	; `string'
PUBLIC	??_C@_0BI@CADHODAP@ENABLE_EMOTICONS_SYSTEM@	; `string'
PUBLIC	??_C@_0BB@KKFFHMIA@ENABLE_FISH_GAME@		; `string'
PUBLIC	??_C@_0BJ@HIBMPKIK@ENABLE_GROWTH_PET_SYSTEM@	; `string'
PUBLIC	??_C@_0CC@LOLPDHEJ@ENABLE_INVENTORY_EXPANSION_SYST@ ; `string'
PUBLIC	??_C@_0BM@HJJIIFBF@ENABLE_SHIP_DEFENCE_DUNGEON@	; `string'
PUBLIC	??_C@_0BP@ONDLCPPN@ENABLE_RENEWAL_TELEPORT_SYSTEM@ ; `string'
PUBLIC	??_C@_0BP@IJOGIGKN@ENABLE_DUNGEON_TRACKING_SYSTEM@ ; `string'
PUBLIC	??_C@_0BF@GGNLGGAH@ENABLE_RENEWAL_REGEN@	; `string'
PUBLIC	??_C@_0BK@MGBMNLOM@ENABLE_CHANGE_LOOK_SYSTEM@	; `string'
PUBLIC	??_C@_0BG@CFJKANLL@ENABLE_HUNTING_SYSTEM@	; `string'
PUBLIC	??_C@_0BE@LABOLOAG@ENABLE_CLIP_MASKING@		; `string'
PUBLIC	??_C@_0BG@BMPHLOIJ@ENABLE_STANDING_MOUNT@	; `string'
PUBLIC	??_C@_0BH@PDAGOKPA@WJ_SHOW_NPC_QUEST_NAME@	; `string'
PUBLIC	??_C@_0BD@IAJAIBNA@ENABLE_ATLAS_SCALE@		; `string'
PUBLIC	??_C@_0BH@INBDCPDJ@ENABLE_RIDING_EXTENDED@	; `string'
PUBLIC	??_C@_0BK@LOOMEPEL@ENABLE_SKILL_BOOK_READING@	; `string'
PUBLIC	??_C@_0BM@FOOFEPCE@ENABLE_SPIRIT_STONE_READING@	; `string'
PUBLIC	??_C@_0O@DMBEGOPB@__AUTO_HUNT__@		; `string'
PUBLIC	??_C@_0BI@PIMOMKMD@ENABLE_AUTO_SELL_SYSTEM@	; `string'
PUBLIC	??_C@_0BL@BNIJHNNL@ENABLE_GUILDRENEWAL_SYSTEM@	; `string'
PUBLIC	??_C@_0CC@CHCIKPC@ENABLE_SECOND_GUILDRENEWAL_SYST@ ; `string'
PUBLIC	??_C@_0BK@IDLKFBGN@ENABLE_GUILD_MARK_RENEWAL@	; `string'
PUBLIC	??_C@_0BM@IPJIOBJM@ENABLE_EXTENDED_GUILD_LEVEL@	; `string'
PUBLIC	??_C@_0BG@OKAPEAGA@ENABLE_MEDAL_OF_HONOR@	; `string'
PUBLIC	??_C@_0BP@DBLFCGOO@ENABLE_GUILD_DONATE_ATTENDANCE@ ; `string'
PUBLIC	??_C@_0BH@GDLNILPF@ENABLE_GUILD_WAR_SCORE@	; `string'
PUBLIC	??_C@_0BH@JGDAEBCD@ENABLE_GUILD_LAND_INFO@	; `string'
PUBLIC	??_C@_0BF@JFHNKELN@ENABLE_GUILDBANK_LOG@	; `string'
PUBLIC	??_C@_0BO@ONEKFDFA@ENABLE_NEW_WORLD_GUILDRENEWAL@ ; `string'
PUBLIC	??_C@_0BF@NJOHAOPJ@ENABLE_GUILD_REQUEST@	; `string'
PUBLIC	??_C@_0BO@FJLEKFLL@ENABLE_STYLE_ATTRIBUTE_SYSTEM@ ; `string'
PUBLIC	?ms_singleton@?$CSingleton@VCPythonLauncher@@@@0PAVCPythonLauncher@@A ; CSingleton<CPythonLauncher>::ms_singleton
PUBLIC	?ms_singleton@?$CSingleton@VCEterPackManager@@@@0PAVCEterPackManager@@A ; CSingleton<CEterPackManager>::ms_singleton
PUBLIC	?TWOHANDED_WEWAPON_ATT_SPEED_DECREASE_VALUE@@3HA ; TWOHANDED_WEWAPON_ATT_SPEED_DECREASE_VALUE
PUBLIC	?bVisibleNotice@@3HA				; bVisibleNotice
PUBLIC	?bTestServerFlag@@3HA				; bTestServerFlag
EXTRN	__imp__GetModuleFileNameA@12:PROC
EXTRN	_strstr:PROC
EXTRN	__imp__ShellExecuteA@24:PROC
EXTRN	?GetLineCount@CMemoryTextFileLoader@@QAEKXZ:PROC ; CMemoryTextFileLoader::GetLineCount
EXTRN	?GetLineString@CMemoryTextFileLoader@@QAEABV?$basic_string@DU?$char_traits@D@std@@V?$allocator@D@2@@std@@K@Z:PROC ; CMemoryTextFileLoader::GetLineString
EXTRN	?Bind@CMemoryTextFileLoader@@QAEXHPBX@Z:PROC	; CMemoryTextFileLoader::Bind
EXTRN	?Size@CMappedFile@@QAEKXZ:PROC			; CMappedFile::Size
EXTRN	??1CMappedFile@@UAE@XZ:PROC			; CMappedFile::~CMappedFile
EXTRN	?Get@CEterPackManager@@QAE_NAAVCMappedFile@@PBDPAPBX@Z:PROC ; CEterPackManager::Get
EXTRN	??1CMemoryTextFileLoader@@UAE@XZ:PROC		; CMemoryTextFileLoader::~CMemoryTextFileLoader
EXTRN	??0CMappedFile@@QAE@XZ:PROC			; CMappedFile::CMappedFile
EXTRN	?g_fSpecularColor@@3UD3DXCOLOR@@A:BYTE		; g_fSpecularColor
EXTRN	??0CMemoryTextFileLoader@@QAE@XZ:PROC		; CMemoryTextFileLoader::CMemoryTextFileLoader
EXTRN	?IsPressed@CInputKeyboard@@QAE_NH@Z:PROC	; CInputKeyboard::IsPressed
EXTRN	?SetResistance@CCamera@@QAEXM@Z:PROC		; CCamera::SetResistance
EXTRN	?GetAvailableTextureMemory@CGraphicBase@@SAKXZ:PROC ; CGraphicBase::GetAvailableTextureMemory
EXTRN	?RunFile@CPythonLauncher@@QAE_NPBD@Z:PROC	; CPythonLauncher::RunFile
EXTRN	?PyTuple_GetObject@@YA_NPAU_object@@HPAPAU1@@Z:PROC ; PyTuple_GetObject
EXTRN	__imp__FindClose@4:PROC
EXTRN	__imp__FindNextFileA@8:PROC
EXTRN	__imp__PyList_Append:PROC
EXTRN	__imp__PyString_FromString:PROC
EXTRN	__imp__FindFirstFileA@8:PROC
EXTRN	?isExist@CEterPackManager@@QAE_NPBD@Z:PROC	; CEterPackManager::isExist
EXTRN	__imp__PyList_New:PROC
EXTRN	__controlfp:PROC
EXTRN	_tea_decrypt:PROC
EXTRN	?SetCameraMaxDistance@CCamera@@SAXM@Z:PROC	; CCamera::SetCameraMaxDistance
EXTRN	?PyTuple_GetInteger@@YA_NPAU_object@@HPAH@Z:PROC ; PyTuple_GetInteger
EXTRN	?USE_WEAPON_SPECULAR@@3HA:DWORD			; USE_WEAPON_SPECULAR
EXTRN	?PyTuple_GetFloat@@YA_NPAU_object@@HPAM@Z:PROC	; PyTuple_GetFloat
EXTRN	__imp__PyInt_AsLong:PROC
EXTRN	__imp__PyTuple_GetItem:PROC
EXTRN	?PyTuple_GetString@@YA_NPAU_object@@HPAPAD@Z:PROC ; PyTuple_GetString
EXTRN	?random_range@@YAJJJ@Z:PROC			; random_range
;	COMDAT ?ms_singleton@?$CSingleton@VCPythonLauncher@@@@0PAVCPythonLauncher@@A
_BSS	SEGMENT
?ms_singleton@?$CSingleton@VCPythonLauncher@@@@0PAVCPythonLauncher@@A DD 01H DUP (?) ; CSingleton<CPythonLauncher>::ms_singleton
_BSS	ENDS
;	COMDAT ?ms_singleton@?$CSingleton@VCEterPackManager@@@@0PAVCEterPackManager@@A
_BSS	SEGMENT
?ms_singleton@?$CSingleton@VCEterPackManager@@@@0PAVCEterPackManager@@A DD 01H DUP (?) ; CSingleton<CEterPackManager>::ms_singleton
?TWOHANDED_WEWAPON_ATT_SPEED_DECREASE_VALUE@@3HA DD 01H DUP (?) ; TWOHANDED_WEWAPON_ATT_SPEED_DECREASE_VALUE
?bTestServerFlag@@3HA DD 01H DUP (?)			; bTestServerFlag
_BSS	ENDS
;	COMDAT ?key@?1??appLoadLocaleAddr@@YAPAU_object@@PAU2@0@Z@4QBEB
CONST	SEGMENT
?key@?1??appLoadLocaleAddr@@YAPAU_object@@PAU2@0@Z@4QBEB DB 082H ; `appLoadLocaleAddr'::`2'::key
	DB	01bH
	DB	034H
	DB	0aeH
	DB	012H
	DB	03bH
	DB	0fbH
	DB	017H
	DB	0d7H
	DB	02cH
	DB	039H
	DB	0aeH
	DB	041H
	DB	098H
	DB	0f1H
	DB	063H
CONST	ENDS
;	COMDAT ?s_methods@?1??initapp@@YAXXZ@4PAUPyMethodDef@@A
_DATA	SEGMENT
?s_methods@?1??initapp@@YAXXZ@4PAUPyMethodDef@@A DD FLAT:??_C@_0BG@EOCGHNJF@SetTextTailLivingTime@ ; `initapp'::`2'::s_methods
	DD	FLAT:?appSetTextTailLivingTime@@YAPAU_object@@PAU1@0@Z
	DD	01H
	ORG $+4
	DD	FLAT:??_C@_0BD@PILPKKLH@SetHairColorEnable@
	DD	FLAT:?appSetHairColorEnable@@YAPAU_object@@PAU1@0@Z
	DD	01H
	ORG $+4
	DD	FLAT:??_C@_0BH@PJOFIHBE@SetArmorSpecularEnable@
	DD	FLAT:?appSetArmorSpecularEnable@@YAPAU_object@@PAU1@0@Z
	DD	01H
	ORG $+4
	DD	FLAT:??_C@_0BI@ONHBEMJA@SetWeaponSpecularEnable@
	DD	FLAT:?appSetWeaponSpecularEnable@@YAPAU_object@@PAU1@0@Z
	DD	01H
	ORG $+4
	DD	FLAT:??_C@_0BM@CMPMDOBN@SetSkillEffectUpgradeEnable@
	DD	FLAT:?appSetSkillEffectUpgradeEnable@@YAPAU_object@@PAU1@0@Z
	DD	01H
	ORG $+4
	DD	FLAT:??_C@_0CI@KEKBEMLJ@SetTwoHandedWeaponAttSpeedDecre@
	DD	FLAT:?SetTwoHandedWeaponAttSpeedDecreaseValue@@YAPAU_object@@PAU1@0@Z
	DD	01H
	ORG $+4
	DD	FLAT:??_C@_0BD@CPFDKOFJ@SetRideHorseEnable@
	DD	FLAT:?appSetRideHorseEnable@@YAPAU_object@@PAU1@0@Z
	DD	01H
	ORG $+4
	DD	FLAT:??_C@_0BF@CEAHHILA@SetCameraMaxDistance@
	DD	FLAT:?appSetCameraMaxDistance@@YAPAU_object@@PAU1@0@Z
	DD	01H
	ORG $+4
	DD	FLAT:??_C@_09ILNFAENI@SetMinFog@
	DD	FLAT:?appSetMinFog@@YAPAU_object@@PAU1@0@Z
	DD	01H
	ORG $+4
	DD	FLAT:??_C@_0N@KCIEBLLG@SetFrameSkip@
	DD	FLAT:?appSetFrameSkip@@YAPAU_object@@PAU1@0@Z
	DD	01H
	ORG $+4
	DD	FLAT:??_C@_0N@CLLAGICL@GetImageInfo@
	DD	FLAT:?appGetImageInfo@@YAPAU_object@@PAU1@0@Z
	DD	01H
	ORG $+4
	DD	FLAT:??_C@_07NAJNLNAF@GetInfo@
	DD	FLAT:?appGetInfo@@YAPAU_object@@PAU1@0@Z
	DD	01H
	ORG $+4
	DD	FLAT:??_C@_0L@HMEHDBP@UpdateGame@
	DD	FLAT:?appUpdateGame@@YAPAU_object@@PAU1@0@Z
	DD	01H
	ORG $+4
	DD	FLAT:??_C@_0L@ONMMANJD@RenderGame@
	DD	FLAT:?appRenderGame@@YAPAU_object@@PAU1@0@Z
	DD	01H
	ORG $+4
	DD	FLAT:??_C@_04KLCPKPBE@Loop@
	DD	FLAT:?appLoop@@YAPAU_object@@PAU1@0@Z
	DD	01H
	ORG $+4
	DD	FLAT:??_C@_06MIKANEJK@Create@
	DD	FLAT:?appCreate@@YAPAU_object@@PAU1@0@Z
	DD	01H
	ORG $+4
	DD	FLAT:??_C@_07MNGBFJEN@Process@
	DD	FLAT:?appProcess@@YAPAU_object@@PAU1@0@Z
	DD	01H
	ORG $+4
	DD	FLAT:??_C@_04LBABLPF@Exit@
	DD	FLAT:?appExit@@YAPAU_object@@PAU1@0@Z
	DD	01H
	ORG $+4
	DD	FLAT:??_C@_05BGKIEECB@Abort@
	DD	FLAT:?appAbort@@YAPAU_object@@PAU1@0@Z
	DD	01H
	ORG $+4
	DD	FLAT:??_C@_0BA@PPCHHCMN@SetMouseHandler@
	DD	FLAT:?appSetMouseHandler@@YAPAU_object@@PAU1@0@Z
	DD	01H
	ORG $+4
	DD	FLAT:??_C@_0M@DHIFKLBN@IsExistFile@
	DD	FLAT:?appIsExistFile@@YAPAU_object@@PAU1@0@Z
	DD	01H
	ORG $+4
	DD	FLAT:??_C@_0M@KODKGGCI@GetFileList@
	DD	FLAT:?appGetFileList@@YAPAU_object@@PAU1@0@Z
	DD	01H
	ORG $+4
	DD	FLAT:??_C@_09IADKBAEN@SetCamera@
	DD	FLAT:?appSetCamera@@YAPAU_object@@PAU1@0@Z
	DD	01H
	ORG $+4
	DD	FLAT:??_C@_09KOHPDBNP@GetCamera@
	DD	FLAT:?appGetCamera@@YAPAU_object@@PAU1@0@Z
	DD	01H
	ORG $+4
	DD	FLAT:??_C@_0P@LHFPHHJA@GetCameraPitch@
	DD	FLAT:?appGetCameraPitch@@YAPAU_object@@PAU1@0@Z
	DD	01H
	ORG $+4
	DD	FLAT:??_C@_0BC@JICDJDCH@GetCameraRotation@
	DD	FLAT:?appGetCameraRotation@@YAPAU_object@@PAU1@0@Z
	DD	01H
	ORG $+4
	DD	FLAT:??_C@_07CDIANBOE@GetTime@
	DD	FLAT:?appGetTime@@YAPAU_object@@PAU1@0@Z
	DD	01H
	ORG $+4
	DD	FLAT:??_C@_0O@JKNDJHIN@GetGlobalTime@
	DD	FLAT:?appGetGlobalTime@@YAPAU_object@@PAU1@0@Z
	DD	01H
	ORG $+4
	DD	FLAT:??_C@_0BD@HGCMJHC@GetGlobalTimeStamp@
	DD	FLAT:?appGetGlobalTimeStamp@@YAPAU_object@@PAU1@0@Z
	DD	01H
	ORG $+4
	DD	FLAT:??_C@_0N@JKLFODAC@GetUpdateFPS@
	DD	FLAT:?appGetUpdateFPS@@YAPAU_object@@PAU1@0@Z
	DD	01H
	ORG $+4
	DD	FLAT:??_C@_0N@EHIMFGIG@GetRenderFPS@
	DD	FLAT:?appGetRenderFPS@@YAPAU_object@@PAU1@0@Z
	DD	01H
	ORG $+4
	DD	FLAT:??_C@_0N@HGIDFLAJ@RotateCamera@
	DD	FLAT:?appRotateCamera@@YAPAU_object@@PAU1@0@Z
	DD	01H
	ORG $+4
	DD	FLAT:??_C@_0M@PKAIAJKC@PitchCamera@
	DD	FLAT:?appPitchCamera@@YAPAU_object@@PAU1@0@Z
	DD	01H
	ORG $+4
	DD	FLAT:??_C@_0L@BGDDIOFP@ZoomCamera@
	DD	FLAT:?appZoomCamera@@YAPAU_object@@PAU1@0@Z
	DD	01H
	ORG $+4
	DD	FLAT:??_C@_0BC@FCGIGAKD@MovieRotateCamera@
	DD	FLAT:?appMovieRotateCamera@@YAPAU_object@@PAU1@0@Z
	DD	01H
	ORG $+4
	DD	FLAT:??_C@_0BB@KFJAAFFB@MoviePitchCamera@
	DD	FLAT:?appMoviePitchCamera@@YAPAU_object@@PAU1@0@Z
	DD	01H
	ORG $+4
	DD	FLAT:??_C@_0BA@ILLHHFGG@MovieZoomCamera@
	DD	FLAT:?appMovieZoomCamera@@YAPAU_object@@PAU1@0@Z
	DD	01H
	ORG $+4
	DD	FLAT:??_C@_0BB@PJGDEPJO@MovieResetCamera@
	DD	FLAT:?appMovieResetCamera@@YAPAU_object@@PAU1@0@Z
	DD	01H
	ORG $+4
	DD	FLAT:??_C@_0BK@PBNANFFG@GetAvailableTextureMemory@
	DD	FLAT:?appGetAvaiableTextureMememory@@YAPAU_object@@PAU1@0@Z
	DD	01H
	ORG $+4
	DD	FLAT:??_C@_0O@KFOAIOPC@GetRenderTime@
	DD	FLAT:?appGetRenderTime@@YAPAU_object@@PAU1@0@Z
	DD	01H
	ORG $+4
	DD	FLAT:??_C@_0O@EPOIPAHO@GetUpdateTime@
	DD	FLAT:?appGetUpdateTime@@YAPAU_object@@PAU1@0@Z
	DD	01H
	ORG $+4
	DD	FLAT:??_C@_07EGHKJKFO@GetLoad@
	DD	FLAT:?appGetLoad@@YAPAU_object@@PAU1@0@Z
	DD	01H
	ORG $+4
	DD	FLAT:??_C@_0N@KBJEAIDC@GetFaceSpeed@
	DD	FLAT:?appGetFaceSpeed@@YAPAU_object@@PAU1@0@Z
	DD	01H
	ORG $+4
	DD	FLAT:??_C@_0N@FGHMKANF@GetFaceCount@
	DD	FLAT:?appGetFaceCount@@YAPAU_object@@PAU1@0@Z
	DD	01H
	ORG $+4
	DD	FLAT:??_C@_06GHJACMIL@SetFPS@
	DD	FLAT:?appSetFPS@@YAPAU_object@@PAU1@0@Z
	DD	01H
	ORG $+4
	DD	FLAT:??_C@_0BI@BPPNOEKE@SetGlobalCenterPosition@
	DD	FLAT:?appSetGlobalCenterPosition@@YAPAU_object@@PAU1@0@Z
	DD	01H
	ORG $+4
	DD	FLAT:??_C@_0BC@MCKFCFLJ@SetCenterPosition@
	DD	FLAT:?appSetCenterPosition@@YAPAU_object@@PAU1@0@Z
	DD	01H
	ORG $+4
	DD	FLAT:??_C@_0BC@DJJGDMOB@GetCursorPosition@
	DD	FLAT:?appGetCursorPosition@@YAPAU_object@@PAU1@0@Z
	DD	01H
	ORG $+4
	DD	FLAT:??_C@_09CIIBMEDP@GetRandom@
	DD	FLAT:?appGetRandom@@YAPAU_object@@PAU1@0@Z
	DD	01H
	ORG $+4
	DD	FLAT:??_C@_0O@NFOAEJMI@RunPythonFile@
	DD	FLAT:?appRunPythonFile@@YAPAU_object@@PAU1@0@Z
	DD	01H
	ORG $+4
	DD	FLAT:??_C@_0O@JGKOEJBF@IsWebPageMode@
	DD	FLAT:?appIsWebPageMode@@YAPAU_object@@PAU1@0@Z
	DD	01H
	ORG $+4
	DD	FLAT:??_C@_0M@LMDMBNNG@ShowWebPage@
	DD	FLAT:?appShowWebPage@@YAPAU_object@@PAU1@0@Z
	DD	01H
	ORG $+4
	DD	FLAT:??_C@_0M@CJKDPGGC@MoveWebPage@
	DD	FLAT:?appMoveWebPage@@YAPAU_object@@PAU1@0@Z
	DD	01H
	ORG $+4
	DD	FLAT:??_C@_0M@HKOOBKOE@HideWebPage@
	DD	FLAT:?appHideWebPage@@YAPAU_object@@PAU1@0@Z
	DD	01H
	ORG $+4
	DD	FLAT:??_C@_09EJGJNKNL@IsPressed@
	DD	FLAT:?appIsPressed@@YAPAU_object@@PAU1@0@Z
	DD	01H
	ORG $+4
	DD	FLAT:??_C@_09PKKOCJGB@SetCursor@
	DD	FLAT:?appSetCursor@@YAPAU_object@@PAU1@0@Z
	DD	01H
	ORG $+4
	DD	FLAT:??_C@_09NEOLAIPD@GetCursor@
	DD	FLAT:?appGetCursor@@YAPAU_object@@PAU1@0@Z
	DD	01H
	ORG $+4
	DD	FLAT:??_C@_0L@BIENLPGM@ShowCursor@
	DD	FLAT:?appShowCursor@@YAPAU_object@@PAU1@0@Z
	DD	01H
	ORG $+4
	DD	FLAT:??_C@_0L@MGJDDPFG@HideCursor@
	DD	FLAT:?appHideCursor@@YAPAU_object@@PAU1@0@Z
	DD	01H
	ORG $+4
	DD	FLAT:??_C@_0N@BFHCIAEF@IsShowCursor@
	DD	FLAT:?appIsShowCursor@@YAPAU_object@@PAU1@0@Z
	DD	01H
	ORG $+4
	DD	FLAT:??_C@_0P@FMIDHOAE@IsLiarCursorOn@
	DD	FLAT:?appIsLiarCursorOn@@YAPAU_object@@PAU1@0@Z
	DD	01H
	ORG $+4
	DD	FLAT:??_C@_0BC@IDNDDKLI@SetSoftwareCursor@
	DD	FLAT:?appSetSoftwareCursor@@YAPAU_object@@PAU1@0@Z
	DD	01H
	ORG $+4
	DD	FLAT:??_C@_0BC@KKHIHHDJ@SetHardwareCursor@
	DD	FLAT:?appSetHardwareCursor@@YAPAU_object@@PAU1@0@Z
	DD	01H
	ORG $+4
	DD	FLAT:??_C@_0P@KJLEKPPL@SetConnectData@
	DD	FLAT:?appSetConnectData@@YAPAU_object@@PAU1@0@Z
	DD	01H
	ORG $+4
	DD	FLAT:??_C@_0P@GHKKFFNH@GetConnectData@
	DD	FLAT:?appGetConnectData@@YAPAU_object@@PAU1@0@Z
	DD	01H
	ORG $+4
	DD	FLAT:??_C@_0BF@IMHAMDDH@GetRotatingDirection@
	DD	FLAT:?appGetRotatingDirection@@YAPAU_object@@PAU1@0@Z
	DD	01H
	ORG $+4
	DD	FLAT:??_C@_0BE@JKNPCCAK@GetDegreeDifference@
	DD	FLAT:?appGetDegreeDifference@@YAPAU_object@@PAU1@0@Z
	DD	01H
	ORG $+4
	DD	FLAT:??_C@_05PFDOMJEF@Sleep@
	DD	FLAT:?appSleep@@YAPAU_object@@PAU1@0@Z
	DD	01H
	ORG $+4
	DD	FLAT:??_C@_0BD@CKMKHHJC@SetDefaultFontName@
	DD	FLAT:?appSetDefaultFontName@@YAPAU_object@@PAU1@0@Z
	DD	01H
	ORG $+4
	DD	FLAT:??_C@_0BD@CENDFAOC@SetGuildSymbolPath@
	DD	FLAT:?appSetGuildSymbolPath@@YAPAU_object@@PAU1@0@Z
	DD	01H
	ORG $+4
	DD	FLAT:??_C@_0BI@LNMJCGJN@EnableSpecialCameraMode@
	DD	FLAT:?appEnableSpecialCameraMode@@YAPAU_object@@PAU1@0@Z
	DD	01H
	ORG $+4
	DD	FLAT:??_C@_0P@NCLIAJKF@SetCameraSpeed@
	DD	FLAT:?appSetCameraSpeed@@YAPAU_object@@PAU1@0@Z
	DD	01H
	ORG $+4
	DD	FLAT:??_C@_0BC@JPDLAHCD@SaveCameraSetting@
	DD	FLAT:?appSaveCameraSetting@@YAPAU_object@@PAU1@0@Z
	DD	01H
	ORG $+4
	DD	FLAT:??_C@_0BC@KEOGBKMG@LoadCameraSetting@
	DD	FLAT:?appLoadCameraSetting@@YAPAU_object@@PAU1@0@Z
	DD	01H
	ORG $+4
	DD	FLAT:??_C@_0BB@IPPGJFKO@SetDefaultCamera@
	DD	FLAT:?appSetDefaultCamera@@YAPAU_object@@PAU1@0@Z
	DD	01H
	ORG $+4
	DD	FLAT:??_C@_0BB@JANPDNEC@SetCameraSetting@
	DD	FLAT:?appSetCameraSetting@@YAPAU_object@@PAU1@0@Z
	DD	01H
	ORG $+4
	DD	FLAT:??_C@_0O@MFMELJAK@SetSightRange@
	DD	FLAT:?appSetSightRange@@YAPAU_object@@PAU1@0@Z
	DD	01H
	ORG $+4
	DD	FLAT:??_C@_0M@LOHDPEAO@IsFileExist@
	DD	FLAT:?appIsFileExist@@YAPAU_object@@PAU1@0@Z
	DD	01H
	ORG $+4
	DD	FLAT:??_C@_0N@JAMKKFFG@OpenTextFile@
	DD	FLAT:?appOpenTextFile@@YAPAU_object@@PAU1@0@Z
	DD	01H
	ORG $+4
	DD	FLAT:??_C@_0O@LNEGOIPA@CloseTextFile@
	DD	FLAT:?appCloseTextFile@@YAPAU_object@@PAU1@0@Z
	DD	01H
	ORG $+4
	DD	FLAT:??_C@_0BF@BNHHEKFO@GetTextFileLineCount@
	DD	FLAT:?appGetTextFileLineCount@@YAPAU_object@@PAU1@0@Z
	DD	01H
	ORG $+4
	DD	FLAT:??_C@_0BA@HHNFKANE@GetTextFileLine@
	DD	FLAT:?appGetTextFileLine@@YAPAU_object@@PAU1@0@Z
	DD	01H
	ORG $+4
	DD	FLAT:??_C@_0O@JDECMIPJ@GetLocaleName@
	DD	FLAT:?appGetLocaleName@@YAPAU_object@@PAU1@0@Z
	DD	01H
	ORG $+4
	DD	FLAT:??_C@_0O@OKMLAHKI@GetLocalePath@
	DD	FLAT:?appGetLocalePath@@YAPAU_object@@PAU1@0@Z
	DD	01H
	ORG $+4
	DD	FLAT:??_C@_0P@JHGEFJDO@LoadLocaleAddr@
	DD	FLAT:?appLoadLocaleAddr@@YAPAU_object@@PAU1@0@Z
	DD	01H
	ORG $+4
	DD	FLAT:??_C@_0P@BFJDMEJO@LoadLocaleData@
	DD	FLAT:?appLoadLocaleData@@YAPAU_object@@PAU1@0@Z
	DD	01H
	ORG $+4
	DD	FLAT:??_C@_0BD@CEMKCGHA@GetDefaultCodePage@
	DD	FLAT:?appGetDefaultCodePage@@YAPAU_object@@PAU1@0@Z
	DD	01H
	ORG $+4
	DD	FLAT:??_C@_0N@HDAEMEAH@SetControlFP@
	DD	FLAT:?appSetControlFP@@YAPAU_object@@PAU1@0@Z
	DD	01H
	ORG $+4
	DD	FLAT:??_C@_0BB@IFMAFIHG@SetSpecularSpeed@
	DD	FLAT:?appSetSpecularSpeed@@YAPAU_object@@PAU1@0@Z
	DD	01H
	ORG $+4
	DD	FLAT:??_C@_0BI@DNKBNLNC@testGetAccumulationTime@
	DD	FLAT:?apptestGetAccumulationTime@@YAPAU_object@@PAU1@0@Z
	DD	01H
	ORG $+4
	DD	FLAT:??_C@_0BK@PLDHJGMN@testResetAccumulationTime@
	DD	FLAT:?apptestResetAccumulationTime@@YAPAU_object@@PAU1@0@Z
	DD	01H
	ORG $+4
	DD	FLAT:??_C@_0BF@KHKICLKO@testSetSpecularColor@
	DD	FLAT:?apptestSetSpecularColor@@YAPAU_object@@PAU1@0@Z
	DD	01H
	ORG $+4
	DD	FLAT:??_C@_0BB@MMPIECKB@SetVisibleNotice@
	DD	FLAT:?appSetVisibleNotice@@YAPAU_object@@PAU1@0@Z
	DD	01H
	ORG $+4
	DD	FLAT:??_C@_0BA@NLDNPIOL@IsVisibleNotice@
	DD	FLAT:?appIsVisibleNotice@@YAPAU_object@@PAU1@0@Z
	DD	01H
	ORG $+4
	DD	FLAT:??_C@_0BF@BOMOCGIP@EnableTestServerFlag@
	DD	FLAT:?appEnableTestServerFlag@@YAPAU_object@@PAU1@0@Z
	DD	01H
	ORG $+4
	DD	FLAT:??_C@_0BH@GBDECBIH@IsEnableTestServerFlag@
	DD	FLAT:?appIsEnableTestServerFlag@@YAPAU_object@@PAU1@0@Z
	DD	01H
	ORG $+4
	DD	FLAT:??_C@_0BB@DLDOCGLL@SetGuildMarkPath@
	DD	FLAT:?appSetGuildMarkPath@@YAPAU_object@@PAU1@0@Z
	DD	01H
	ORG $+4
	DD	FLAT:??_C@_0N@LIPHBNAO@OnLogoUpdate@
	DD	FLAT:?appLogoUpdate@@YAPAU_object@@PAU1@0@Z
	DD	01H
	ORG $+4
	DD	FLAT:??_C@_0N@ELECBFOK@OnLogoRender@
	DD	FLAT:?appLogoRender@@YAPAU_object@@PAU1@0@Z
	DD	01H
	ORG $+4
	DD	FLAT:??_C@_0L@JMMGDKPP@OnLogoOpen@
	DD	FLAT:?appLogoOpen@@YAPAU_object@@PAU1@0@Z
	DD	01H
	ORG $+4
	DD	FLAT:??_C@_0M@JMIFNMOK@OnLogoClose@
	DD	FLAT:?appLogoClose@@YAPAU_object@@PAU1@0@Z
	DD	01H
	ORG $+4
	DD	FLAT:??_C@_0N@BFFIJKHB@ShellExecute@
	DD	FLAT:?appShellExecute@@YAPAU_object@@PAU1@0@Z
	DD	01H
	ORG $+4
	DD	FLAT:??_C@_0P@BCNBBHFI@OpenWebBrowser@
	DD	FLAT:?appOpenWebBrowser@@YAPAU_object@@PAU1@0@Z
	DD	01H
	ORG $+4
	DD	FLAT:??_C@_07MMGEHGCI@GetName@
	DD	FLAT:?appGetName@@YAPAU_object@@PAU1@0@Z
	DD	01H
	ORG $+4
	DD	FLAT:??_C@_09OPOGDJM@SetLocale@
	DD	FLAT:?appSetLocale@@YAPAU_object@@PAU1@0@Z
	DD	01H
	ORG $+4
	DD	FLAT:??_C@_09CALLECAO@GetLocale@
	DD	FLAT:?appGetLocale@@YAPAU_object@@PAU1@0@Z
	DD	01H
	ORG $+4
	DD	FLAT:??_C@_0BB@DGBLNILG@FlashApplication@
	DD	FLAT:?appFlashApplication@@YAPAU_object@@PAU1@0@Z
	DD	01H
	ORG $+4
	DD	FLAT:??_C@_0BE@LJAANCDG@SetMultiFarmExeIcon@
	DD	FLAT:?appSetMultiFarmExeIcon@@YAPAU_object@@PAU1@0@Z
	DD	01H
	ORG $+4
	DD	00H
	DD	00H
	ORG $+8
_DATA	ENDS
;	COMDAT ??_C@_0BO@FJLEKFLL@ENABLE_STYLE_ATTRIBUTE_SYSTEM@
CONST	SEGMENT
??_C@_0BO@FJLEKFLL@ENABLE_STYLE_ATTRIBUTE_SYSTEM@ DB 'ENABLE_STYLE_ATTRIB'
	DB	'UTE_SYSTEM', 00H				; `string'
CONST	ENDS
;	COMDAT ??_C@_0BF@NJOHAOPJ@ENABLE_GUILD_REQUEST@
CONST	SEGMENT
??_C@_0BF@NJOHAOPJ@ENABLE_GUILD_REQUEST@ DB 'ENABLE_GUILD_REQUEST', 00H ; `string'
CONST	ENDS
;	COMDAT ??_C@_0BO@ONEKFDFA@ENABLE_NEW_WORLD_GUILDRENEWAL@
CONST	SEGMENT
??_C@_0BO@ONEKFDFA@ENABLE_NEW_WORLD_GUILDRENEWAL@ DB 'ENABLE_NEW_WORLD_GU'
	DB	'ILDRENEWAL', 00H				; `string'
CONST	ENDS
;	COMDAT ??_C@_0BF@JFHNKELN@ENABLE_GUILDBANK_LOG@
CONST	SEGMENT
??_C@_0BF@JFHNKELN@ENABLE_GUILDBANK_LOG@ DB 'ENABLE_GUILDBANK_LOG', 00H ; `string'
CONST	ENDS
;	COMDAT ??_C@_0BH@JGDAEBCD@ENABLE_GUILD_LAND_INFO@
CONST	SEGMENT
??_C@_0BH@JGDAEBCD@ENABLE_GUILD_LAND_INFO@ DB 'ENABLE_GUILD_LAND_INFO', 00H ; `string'
CONST	ENDS
;	COMDAT ??_C@_0BH@GDLNILPF@ENABLE_GUILD_WAR_SCORE@
CONST	SEGMENT
??_C@_0BH@GDLNILPF@ENABLE_GUILD_WAR_SCORE@ DB 'ENABLE_GUILD_WAR_SCORE', 00H ; `string'
CONST	ENDS
;	COMDAT ??_C@_0BP@DBLFCGOO@ENABLE_GUILD_DONATE_ATTENDANCE@
CONST	SEGMENT
??_C@_0BP@DBLFCGOO@ENABLE_GUILD_DONATE_ATTENDANCE@ DB 'ENABLE_GUILD_DONAT'
	DB	'E_ATTENDANCE', 00H				; `string'
CONST	ENDS
;	COMDAT ??_C@_0BG@OKAPEAGA@ENABLE_MEDAL_OF_HONOR@
CONST	SEGMENT
??_C@_0BG@OKAPEAGA@ENABLE_MEDAL_OF_HONOR@ DB 'ENABLE_MEDAL_OF_HONOR', 00H ; `string'
CONST	ENDS
;	COMDAT ??_C@_0BM@IPJIOBJM@ENABLE_EXTENDED_GUILD_LEVEL@
CONST	SEGMENT
??_C@_0BM@IPJIOBJM@ENABLE_EXTENDED_GUILD_LEVEL@ DB 'ENABLE_EXTENDED_GUILD'
	DB	'_LEVEL', 00H				; `string'
CONST	ENDS
;	COMDAT ??_C@_0BK@IDLKFBGN@ENABLE_GUILD_MARK_RENEWAL@
CONST	SEGMENT
??_C@_0BK@IDLKFBGN@ENABLE_GUILD_MARK_RENEWAL@ DB 'ENABLE_GUILD_MARK_RENEW'
	DB	'AL', 00H					; `string'
CONST	ENDS
;	COMDAT ??_C@_0CC@CHCIKPC@ENABLE_SECOND_GUILDRENEWAL_SYST@
CONST	SEGMENT
??_C@_0CC@CHCIKPC@ENABLE_SECOND_GUILDRENEWAL_SYST@ DB 'ENABLE_SECOND_GUIL'
	DB	'DRENEWAL_SYSTEM', 00H			; `string'
CONST	ENDS
;	COMDAT ??_C@_0BL@BNIJHNNL@ENABLE_GUILDRENEWAL_SYSTEM@
CONST	SEGMENT
??_C@_0BL@BNIJHNNL@ENABLE_GUILDRENEWAL_SYSTEM@ DB 'ENABLE_GUILDRENEWAL_SY'
	DB	'STEM', 00H					; `string'
CONST	ENDS
;	COMDAT ??_C@_0BI@PIMOMKMD@ENABLE_AUTO_SELL_SYSTEM@
CONST	SEGMENT
??_C@_0BI@PIMOMKMD@ENABLE_AUTO_SELL_SYSTEM@ DB 'ENABLE_AUTO_SELL_SYSTEM', 00H ; `string'
CONST	ENDS
;	COMDAT ??_C@_0O@DMBEGOPB@__AUTO_HUNT__@
CONST	SEGMENT
??_C@_0O@DMBEGOPB@__AUTO_HUNT__@ DB '__AUTO_HUNT__', 00H ; `string'
CONST	ENDS
;	COMDAT ??_C@_0BM@FOOFEPCE@ENABLE_SPIRIT_STONE_READING@
CONST	SEGMENT
??_C@_0BM@FOOFEPCE@ENABLE_SPIRIT_STONE_READING@ DB 'ENABLE_SPIRIT_STONE_R'
	DB	'EADING', 00H				; `string'
CONST	ENDS
;	COMDAT ??_C@_0BK@LOOMEPEL@ENABLE_SKILL_BOOK_READING@
CONST	SEGMENT
??_C@_0BK@LOOMEPEL@ENABLE_SKILL_BOOK_READING@ DB 'ENABLE_SKILL_BOOK_READI'
	DB	'NG', 00H					; `string'
CONST	ENDS
;	COMDAT ??_C@_0BH@INBDCPDJ@ENABLE_RIDING_EXTENDED@
CONST	SEGMENT
??_C@_0BH@INBDCPDJ@ENABLE_RIDING_EXTENDED@ DB 'ENABLE_RIDING_EXTENDED', 00H ; `string'
CONST	ENDS
;	COMDAT ??_C@_0BD@IAJAIBNA@ENABLE_ATLAS_SCALE@
CONST	SEGMENT
??_C@_0BD@IAJAIBNA@ENABLE_ATLAS_SCALE@ DB 'ENABLE_ATLAS_SCALE', 00H ; `string'
CONST	ENDS
;	COMDAT ??_C@_0BH@PDAGOKPA@WJ_SHOW_NPC_QUEST_NAME@
CONST	SEGMENT
??_C@_0BH@PDAGOKPA@WJ_SHOW_NPC_QUEST_NAME@ DB 'WJ_SHOW_NPC_QUEST_NAME', 00H ; `string'
CONST	ENDS
;	COMDAT ??_C@_0BG@BMPHLOIJ@ENABLE_STANDING_MOUNT@
CONST	SEGMENT
??_C@_0BG@BMPHLOIJ@ENABLE_STANDING_MOUNT@ DB 'ENABLE_STANDING_MOUNT', 00H ; `string'
CONST	ENDS
;	COMDAT ??_C@_0BE@LABOLOAG@ENABLE_CLIP_MASKING@
CONST	SEGMENT
??_C@_0BE@LABOLOAG@ENABLE_CLIP_MASKING@ DB 'ENABLE_CLIP_MASKING', 00H ; `string'
CONST	ENDS
;	COMDAT ??_C@_0BG@CFJKANLL@ENABLE_HUNTING_SYSTEM@
CONST	SEGMENT
??_C@_0BG@CFJKANLL@ENABLE_HUNTING_SYSTEM@ DB 'ENABLE_HUNTING_SYSTEM', 00H ; `string'
CONST	ENDS
;	COMDAT ??_C@_0BK@MGBMNLOM@ENABLE_CHANGE_LOOK_SYSTEM@
CONST	SEGMENT
??_C@_0BK@MGBMNLOM@ENABLE_CHANGE_LOOK_SYSTEM@ DB 'ENABLE_CHANGE_LOOK_SYST'
	DB	'EM', 00H					; `string'
CONST	ENDS
;	COMDAT ??_C@_0BF@GGNLGGAH@ENABLE_RENEWAL_REGEN@
CONST	SEGMENT
??_C@_0BF@GGNLGGAH@ENABLE_RENEWAL_REGEN@ DB 'ENABLE_RENEWAL_REGEN', 00H ; `string'
CONST	ENDS
;	COMDAT ??_C@_0BP@IJOGIGKN@ENABLE_DUNGEON_TRACKING_SYSTEM@
CONST	SEGMENT
??_C@_0BP@IJOGIGKN@ENABLE_DUNGEON_TRACKING_SYSTEM@ DB 'ENABLE_DUNGEON_TRA'
	DB	'CKING_SYSTEM', 00H				; `string'
CONST	ENDS
;	COMDAT ??_C@_0BP@ONDLCPPN@ENABLE_RENEWAL_TELEPORT_SYSTEM@
CONST	SEGMENT
??_C@_0BP@ONDLCPPN@ENABLE_RENEWAL_TELEPORT_SYSTEM@ DB 'ENABLE_RENEWAL_TEL'
	DB	'EPORT_SYSTEM', 00H				; `string'
CONST	ENDS
;	COMDAT ??_C@_0BM@HJJIIFBF@ENABLE_SHIP_DEFENCE_DUNGEON@
CONST	SEGMENT
??_C@_0BM@HJJIIFBF@ENABLE_SHIP_DEFENCE_DUNGEON@ DB 'ENABLE_SHIP_DEFENCE_D'
	DB	'UNGEON', 00H				; `string'
CONST	ENDS
;	COMDAT ??_C@_0CC@LOLPDHEJ@ENABLE_INVENTORY_EXPANSION_SYST@
CONST	SEGMENT
??_C@_0CC@LOLPDHEJ@ENABLE_INVENTORY_EXPANSION_SYST@ DB 'ENABLE_INVENTORY_'
	DB	'EXPANSION_SYSTEM', 00H			; `string'
CONST	ENDS
;	COMDAT ??_C@_0BJ@HIBMPKIK@ENABLE_GROWTH_PET_SYSTEM@
CONST	SEGMENT
??_C@_0BJ@HIBMPKIK@ENABLE_GROWTH_PET_SYSTEM@ DB 'ENABLE_GROWTH_PET_SYSTEM'
	DB	00H						; `string'
CONST	ENDS
;	COMDAT ??_C@_0BB@KKFFHMIA@ENABLE_FISH_GAME@
CONST	SEGMENT
??_C@_0BB@KKFFHMIA@ENABLE_FISH_GAME@ DB 'ENABLE_FISH_GAME', 00H ; `string'
CONST	ENDS
;	COMDAT ??_C@_0BI@CADHODAP@ENABLE_EMOTICONS_SYSTEM@
CONST	SEGMENT
??_C@_0BI@CADHODAP@ENABLE_EMOTICONS_SYSTEM@ DB 'ENABLE_EMOTICONS_SYSTEM', 00H ; `string'
CONST	ENDS
;	COMDAT ??_C@_0BL@EBFHGPFG@ENABLE_AURA_COSTUME_SYSTEM@
CONST	SEGMENT
??_C@_0BL@EBFHGPFG@ENABLE_AURA_COSTUME_SYSTEM@ DB 'ENABLE_AURA_COSTUME_SY'
	DB	'STEM', 00H					; `string'
CONST	ENDS
;	COMDAT ??_C@_0BL@HMHGNBFO@ENABLE_SLOT_MARKING_SYSTEM@
CONST	SEGMENT
??_C@_0BL@HMHGNBFO@ENABLE_SLOT_MARKING_SYSTEM@ DB 'ENABLE_SLOT_MARKING_SY'
	DB	'STEM', 00H					; `string'
CONST	ENDS
;	COMDAT ??_C@_0BP@KCFNMKHN@ENABLE_RENEWAL_INGAME_ITEMSHOP@
CONST	SEGMENT
??_C@_0BP@KCFNMKHN@ENABLE_RENEWAL_INGAME_ITEMSHOP@ DB 'ENABLE_RENEWAL_ING'
	DB	'AME_ITEMSHOP', 00H				; `string'
CONST	ENDS
;	COMDAT ??_C@_0BH@FCDBIIDC@ENABLE_NEW_DUNGEON_LIB@
CONST	SEGMENT
??_C@_0BH@FCDBIIDC@ENABLE_NEW_DUNGEON_LIB@ DB 'ENABLE_NEW_DUNGEON_LIB', 00H ; `string'
CONST	ENDS
;	COMDAT ??_C@_0BM@NOHEAJFI@ENABLE_BONUS_COSTUME_SYSTEM@
CONST	SEGMENT
??_C@_0BM@NOHEAJFI@ENABLE_BONUS_COSTUME_SYSTEM@ DB 'ENABLE_BONUS_COSTUME_'
	DB	'SYSTEM', 00H				; `string'
CONST	ENDS
;	COMDAT ??_C@_0BG@PMMNBCCG@ENABLE_MULTI_TEXTLINE@
CONST	SEGMENT
??_C@_0BG@PMMNBCCG@ENABLE_MULTI_TEXTLINE@ DB 'ENABLE_MULTI_TEXTLINE', 00H ; `string'
CONST	ENDS
;	COMDAT ??_C@_0BM@BDDMCJJO@ENABLE_RENEWAL_SKILL_SELECT@
CONST	SEGMENT
??_C@_0BM@BDDMCJJO@ENABLE_RENEWAL_SKILL_SELECT@ DB 'ENABLE_RENEWAL_SKILL_'
	DB	'SELECT', 00H				; `string'
CONST	ENDS
;	COMDAT ??_C@_0BK@JCBGCFCM@ENABLE_STONE_SCALE_OPTION@
CONST	SEGMENT
??_C@_0BK@JCBGCFCM@ENABLE_STONE_SCALE_OPTION@ DB 'ENABLE_STONE_SCALE_OPTI'
	DB	'ON', 00H					; `string'
CONST	ENDS
;	COMDAT ??_C@_0BK@PNCDPFFC@ENABLE_MAINTENANCE_SYSTEM@
CONST	SEGMENT
??_C@_0BK@PNCDPFFC@ENABLE_MAINTENANCE_SYSTEM@ DB 'ENABLE_MAINTENANCE_SYST'
	DB	'EM', 00H					; `string'
CONST	ENDS
;	COMDAT ??_C@_0CA@KGMEEFIE@ENABLE_AUTOMATIC_PICK_UP_SYSTEM@
CONST	SEGMENT
??_C@_0CA@KGMEEFIE@ENABLE_AUTOMATIC_PICK_UP_SYSTEM@ DB 'ENABLE_AUTOMATIC_'
	DB	'PICK_UP_SYSTEM', 00H			; `string'
CONST	ENDS
;	COMDAT ??_C@_0BH@OAANMCLN@MAX_CAMERA_PERSPECTIVE@
CONST	SEGMENT
??_C@_0BH@OAANMCLN@MAX_CAMERA_PERSPECTIVE@ DB 'MAX_CAMERA_PERSPECTIVE', 00H ; `string'
CONST	ENDS
;	COMDAT ??_C@_0BH@OEJHPDJH@MIN_CAMERA_PERSPECTIVE@
CONST	SEGMENT
??_C@_0BH@OEJHPDJH@MIN_CAMERA_PERSPECTIVE@ DB 'MIN_CAMERA_PERSPECTIVE', 00H ; `string'
CONST	ENDS
;	COMDAT ??_C@_0BL@PBGDFCNK@DEFAULT_CAMERA_PERSPECTIVE@
CONST	SEGMENT
??_C@_0BL@PBGDFCNK@DEFAULT_CAMERA_PERSPECTIVE@ DB 'DEFAULT_CAMERA_PERSPEC'
	DB	'TIVE', 00H					; `string'
CONST	ENDS
;	COMDAT ??_C@_0BC@OBOHBNHD@ENABLE_FOV_OPTION@
CONST	SEGMENT
??_C@_0BC@OBOHBNHD@ENABLE_FOV_OPTION@ DB 'ENABLE_FOV_OPTION', 00H ; `string'
CONST	ENDS
;	COMDAT ??_C@_0BL@IKKFOHIL@ENABLE_RENEWAL_TEXT_SHADOW@
CONST	SEGMENT
??_C@_0BL@IKKFOHIL@ENABLE_RENEWAL_TEXT_SHADOW@ DB 'ENABLE_RENEWAL_TEXT_SH'
	DB	'ADOW', 00H					; `string'
CONST	ENDS
;	COMDAT ??_C@_0BI@JBGAMODN@ENABLE_RENEWAL_OX_EVENT@
CONST	SEGMENT
??_C@_0BI@JBGAMODN@ENABLE_RENEWAL_OX_EVENT@ DB 'ENABLE_RENEWAL_OX_EVENT', 00H ; `string'
CONST	ENDS
;	COMDAT ??_C@_0CB@FNOMIOEN@ENABLE_OFFLINESHOP_SEARCH_SYSTE@
CONST	SEGMENT
??_C@_0CB@FNOMIOEN@ENABLE_OFFLINESHOP_SEARCH_SYSTE@ DB 'ENABLE_OFFLINESHO'
	DB	'P_SEARCH_SYSTEM', 00H			; `string'
CONST	ENDS
;	COMDAT ??_C@_0BK@GBCANIGE@ENABLE_PICKUP_ITEM_EFFECT@
CONST	SEGMENT
??_C@_0BK@GBCANIGE@ENABLE_PICKUP_ITEM_EFFECT@ DB 'ENABLE_PICKUP_ITEM_EFFE'
	DB	'CT', 00H					; `string'
CONST	ENDS
;	COMDAT ??_C@_0BK@EJIGNKHE@ENABLE_INGAME_WIKI_SYSTEM@
CONST	SEGMENT
??_C@_0BK@EJIGNKHE@ENABLE_INGAME_WIKI_SYSTEM@ DB 'ENABLE_INGAME_WIKI_SYST'
	DB	'EM', 00H					; `string'
CONST	ENDS
;	COMDAT ??_C@_0BO@CMBODPKI@ENABLE_RENEWAL_PREMIUM_SYSTEM@
CONST	SEGMENT
??_C@_0BO@CMBODPKI@ENABLE_RENEWAL_PREMIUM_SYSTEM@ DB 'ENABLE_RENEWAL_PREM'
	DB	'IUM_SYSTEM', 00H				; `string'
CONST	ENDS
;	COMDAT ??_C@_0BK@FIACKIGC@ENABLE_5LAYER_SKILL_COLOR@
CONST	SEGMENT
??_C@_0BK@FIACKIGC@ENABLE_5LAYER_SKILL_COLOR@ DB 'ENABLE_5LAYER_SKILL_COL'
	DB	'OR', 00H					; `string'
CONST	ENDS
;	COMDAT ??_C@_0BK@PELLEIIK@ENABLE_SKILL_COLOR_SYSTEM@
CONST	SEGMENT
??_C@_0BK@PELLEIIK@ENABLE_SKILL_COLOR_SYSTEM@ DB 'ENABLE_SKILL_COLOR_SYST'
	DB	'EM', 00H					; `string'
CONST	ENDS
;	COMDAT ??_C@_0BL@LDJNEEMG@ENABLE_RENEWAL_TEAM_AFFECT@
CONST	SEGMENT
??_C@_0BL@LDJNEEMG@ENABLE_RENEWAL_TEAM_AFFECT@ DB 'ENABLE_RENEWAL_TEAM_AF'
	DB	'FECT', 00H					; `string'
CONST	ENDS
;	COMDAT ??_C@_0BI@HBBBBDIM@ENABLE_MULTI_FARM_BLOCK@
CONST	SEGMENT
??_C@_0BI@HBBBBDIM@ENABLE_MULTI_FARM_BLOCK@ DB 'ENABLE_MULTI_FARM_BLOCK', 00H ; `string'
CONST	ENDS
;	COMDAT ??_C@_0BG@KFMPJIIL@ENABLE_RENEWAL_AFFECT@
CONST	SEGMENT
??_C@_0BG@KFMPJIIL@ENABLE_RENEWAL_AFFECT@ DB 'ENABLE_RENEWAL_AFFECT', 00H ; `string'
CONST	ENDS
;	COMDAT ??_C@_0BM@PGGEJJMI@ENABLE_RENEWAL_SPECIAL_CHAT@
CONST	SEGMENT
??_C@_0BM@PGGEJJMI@ENABLE_RENEWAL_SPECIAL_CHAT@ DB 'ENABLE_RENEWAL_SPECIA'
	DB	'L_CHAT', 00H				; `string'
CONST	ENDS
;	COMDAT ??_C@_0BO@CKMKHAKF@ENABLE_MONSTER_TARGET_ELEMENT@
CONST	SEGMENT
??_C@_0BO@CKMKHAKF@ENABLE_MONSTER_TARGET_ELEMENT@ DB 'ENABLE_MONSTER_TARG'
	DB	'ET_ELEMENT', 00H				; `string'
CONST	ENDS
;	COMDAT ??_C@_0BL@DAICEAJE@ENABLE_RENEWAL_BATTLE_PASS@
CONST	SEGMENT
??_C@_0BL@DAICEAJE@ENABLE_RENEWAL_BATTLE_PASS@ DB 'ENABLE_RENEWAL_BATTLE_'
	DB	'PASS', 00H					; `string'
CONST	ENDS
;	COMDAT ??_C@_0CC@BNACIKDA@ENABLE_MINIGAME_OKEY_CARDS_SYST@
CONST	SEGMENT
??_C@_0CC@BNACIKDA@ENABLE_MINIGAME_OKEY_CARDS_SYST@ DB 'ENABLE_MINIGAME_O'
	DB	'KEY_CARDS_SYSTEM', 00H			; `string'
CONST	ENDS
;	COMDAT ??_C@_0BH@KJKAIDCH@ENABLE_RESTART_INSTANT@
CONST	SEGMENT
??_C@_0BH@KJKAIDCH@ENABLE_RESTART_INSTANT@ DB 'ENABLE_RESTART_INSTANT', 00H ; `string'
CONST	ENDS
;	COMDAT ??_C@_0BF@CNEHOFGF@ENABLE_EVENT_MANAGER@
CONST	SEGMENT
??_C@_0BF@CNEHOFGF@ENABLE_EVENT_MANAGER@ DB 'ENABLE_EVENT_MANAGER', 00H ; `string'
CONST	ENDS
;	COMDAT ??_C@_0BF@GNPDFOI@ENABLE_RENDER_TARGET@
CONST	SEGMENT
??_C@_0BF@GNPDFOI@ENABLE_RENDER_TARGET@ DB 'ENABLE_RENDER_TARGET', 00H ; `string'
CONST	ENDS
;	COMDAT ??_C@_0BF@LJNEAKLH@ENABLE_ATTBONUS_BOSS@
CONST	SEGMENT
??_C@_0BF@LJNEAKLH@ENABLE_ATTBONUS_BOSS@ DB 'ENABLE_ATTBONUS_BOSS', 00H ; `string'
CONST	ENDS
;	COMDAT ??_C@_0BE@OLMKIFGM@ENABLE_TITLE_SYSTEM@
CONST	SEGMENT
??_C@_0BE@OLMKIFGM@ENABLE_TITLE_SYSTEM@ DB 'ENABLE_TITLE_SYSTEM', 00H ; `string'
CONST	ENDS
;	COMDAT ??_C@_0BL@FPEGKCKL@ENABLE_RENEWAL_OFFLINESHOP@
CONST	SEGMENT
??_C@_0BL@FPEGKCKL@ENABLE_RENEWAL_OFFLINESHOP@ DB 'ENABLE_RENEWAL_OFFLINE'
	DB	'SHOP', 00H					; `string'
CONST	ENDS
;	COMDAT ??_C@_0BJ@CJJKOKPF@ENABLE_SPECIAL_INVENTORY@
CONST	SEGMENT
??_C@_0BJ@CJJKOKPF@ENABLE_SPECIAL_INVENTORY@ DB 'ENABLE_SPECIAL_INVENTORY'
	DB	00H						; `string'
CONST	ENDS
;	COMDAT ??_C@_0BH@ILAGBPOI@ENABLE_VIEW_CHEST_DROP@
CONST	SEGMENT
??_C@_0BH@ILAGBPOI@ENABLE_VIEW_CHEST_DROP@ DB 'ENABLE_VIEW_CHEST_DROP', 00H ; `string'
CONST	ENDS
;	COMDAT ??_C@_0BA@HPELNPOC@ENABLE_ANTI_EXP@
CONST	SEGMENT
??_C@_0BA@HPELNPOC@ENABLE_ANTI_EXP@ DB 'ENABLE_ANTI_EXP', 00H ; `string'
CONST	ENDS
;	COMDAT ??_C@_0BF@BLNJFEGN@ENABLE_MOB_DROP_INFO@
CONST	SEGMENT
??_C@_0BF@BLNJFEGN@ENABLE_MOB_DROP_INFO@ DB 'ENABLE_MOB_DROP_INFO', 00H ; `string'
CONST	ENDS
;	COMDAT ??_C@_0BF@OECKEMAD@ENABLE_BIOLOG_SYSTEM@
CONST	SEGMENT
??_C@_0BF@OECKEMAD@ENABLE_BIOLOG_SYSTEM@ DB 'ENABLE_BIOLOG_SYSTEM', 00H ; `string'
CONST	ENDS
;	COMDAT ??_C@_0BG@MMGCEMF@ENABLE_ATTBONUS_METIN@
CONST	SEGMENT
??_C@_0BG@MMGCEMF@ENABLE_ATTBONUS_METIN@ DB 'ENABLE_ATTBONUS_METIN', 00H ; `string'
CONST	ENDS
;	COMDAT ??_C@_0BL@HNDAJCHJ@ENABLE_ACCE_COSTUME_SYSTEM@
CONST	SEGMENT
??_C@_0BL@HNDAJCHJ@ENABLE_ACCE_COSTUME_SYSTEM@ DB 'ENABLE_ACCE_COSTUME_SY'
	DB	'STEM', 00H					; `string'
CONST	ENDS
;	COMDAT ??_C@_0CC@IABBIMPP@ENABLE_EXTEND_TIME_COSTUME_SYST@
CONST	SEGMENT
??_C@_0CC@IABBIMPP@ENABLE_EXTEND_TIME_COSTUME_SYST@ DB 'ENABLE_EXTEND_TIM'
	DB	'E_COSTUME_SYSTEM', 00H			; `string'
CONST	ENDS
;	COMDAT ??_C@_0BL@KGNNLHIE@ENABLE_RENEWAL_SERVER_LIST@
CONST	SEGMENT
??_C@_0BL@KGNNLHIE@ENABLE_RENEWAL_SERVER_LIST@ DB 'ENABLE_RENEWAL_SERVER_'
	DB	'LIST', 00H					; `string'
CONST	ENDS
;	COMDAT ??_C@_0BL@BJLHGOJN@ENABLE_HIDE_COSTUME_SYSTEM@
CONST	SEGMENT
??_C@_0BL@BJLHGOJN@ENABLE_HIDE_COSTUME_SYSTEM@ DB 'ENABLE_HIDE_COSTUME_SY'
	DB	'STEM', 00H					; `string'
CONST	ENDS
;	COMDAT ??_C@_0BG@OLFFBABC@ENABLE_PENDANT_SYSTEM@
CONST	SEGMENT
??_C@_0BG@OLFFBABC@ENABLE_PENDANT_SYSTEM@ DB 'ENABLE_PENDANT_SYSTEM', 00H ; `string'
CONST	ENDS
;	COMDAT ??_C@_0BG@KGBOBIJP@ENABLE_MOUNT_PET_SKIN@
CONST	SEGMENT
??_C@_0BG@KGBOBIJP@ENABLE_MOUNT_PET_SKIN@ DB 'ENABLE_MOUNT_PET_SKIN', 00H ; `string'
CONST	ENDS
;	COMDAT ??_C@_0BD@CAANKIHI@ENABLE_DICE_SYSTEM@
CONST	SEGMENT
??_C@_0BD@CAANKIHI@ENABLE_DICE_SYSTEM@ DB 'ENABLE_DICE_SYSTEM', 00H ; `string'
CONST	ENDS
;	COMDAT ??_C@_0BF@LDJJKBCK@ENABLE_SHOW_MOB_INFO@
CONST	SEGMENT
??_C@_0BF@LDJJKBCK@ENABLE_SHOW_MOB_INFO@ DB 'ENABLE_SHOW_MOB_INFO', 00H ; `string'
CONST	ENDS
;	COMDAT ??_C@_0BD@FAICKCGG@ENABLE_AUTO_REFINE@
CONST	SEGMENT
??_C@_0BD@FAICKCGG@ENABLE_AUTO_REFINE@ DB 'ENABLE_AUTO_REFINE', 00H ; `string'
CONST	ENDS
;	COMDAT ??_C@_0BM@ILFELCEF@ENABLE_METIN_STONES_MINIMAP@
CONST	SEGMENT
??_C@_0BM@ILFELCEF@ENABLE_METIN_STONES_MINIMAP@ DB 'ENABLE_METIN_STONES_M'
	DB	'INIMAP', 00H				; `string'
CONST	ENDS
;	COMDAT ??_C@_0BD@HDLIFGNJ@ENABLE_BLINK_ALERT@
CONST	SEGMENT
??_C@_0BD@HDLIFGNJ@ENABLE_BLINK_ALERT@ DB 'ENABLE_BLINK_ALERT', 00H ; `string'
CONST	ENDS
;	COMDAT ??_C@_0BM@OHBGEPCP@ENABLE_TELEPORT_TO_A_FRIEND@
CONST	SEGMENT
??_C@_0BM@OHBGEPCP@ENABLE_TELEPORT_TO_A_FRIEND@ DB 'ENABLE_TELEPORT_TO_A_'
	DB	'FRIEND', 00H				; `string'
CONST	ENDS
;	COMDAT ??_C@_0BK@JPEJEIPL@ENABLE_CLIENT_PERFORMANCE@
CONST	SEGMENT
??_C@_0BK@JPEJEIPL@ENABLE_CLIENT_PERFORMANCE@ DB 'ENABLE_CLIENT_PERFORMAN'
	DB	'CE', 00H					; `string'
CONST	ENDS
;	COMDAT ??_C@_0BO@PJBOGDHG@ENABLE_RENEWAL_CLIENT_VERSION@
CONST	SEGMENT
??_C@_0BO@PJBOGDHG@ENABLE_RENEWAL_CLIENT_VERSION@ DB 'ENABLE_RENEWAL_CLIE'
	DB	'NT_VERSION', 00H				; `string'
CONST	ENDS
;	COMDAT ??_C@_0BE@EHGLIKAL@ENABLE_RENEWAL_CUBE@
CONST	SEGMENT
??_C@_0BE@EHGLIKAL@ENABLE_RENEWAL_CUBE@ DB 'ENABLE_RENEWAL_CUBE', 00H ; `string'
CONST	ENDS
;	COMDAT ??_C@_0BJ@OOFGBBFO@ENABLE_RENEWAL_SWITCHBOT@
CONST	SEGMENT
??_C@_0BJ@OOFGBBFO@ENABLE_RENEWAL_SWITCHBOT@ DB 'ENABLE_RENEWAL_SWITCHBOT'
	DB	00H						; `string'
CONST	ENDS
;	COMDAT ??_C@_0BN@HFPGHJNO@ENABLE_WEAPON_COSTUME_SYSTEM@
CONST	SEGMENT
??_C@_0BN@HFPGHJNO@ENABLE_WEAPON_COSTUME_SYSTEM@ DB 'ENABLE_WEAPON_COSTUM'
	DB	'E_SYSTEM', 00H				; `string'
CONST	ENDS
;	COMDAT ??_C@_0BC@IICODLAC@ENABLE_GOLD_LIMIT@
CONST	SEGMENT
??_C@_0BC@IICODLAC@ENABLE_GOLD_LIMIT@ DB 'ENABLE_GOLD_LIMIT', 00H ; `string'
CONST	ENDS
;	COMDAT ??_C@_0BL@HKIPHBEA@ENABLE_RENEWAL_BONUS_BOARD@
CONST	SEGMENT
??_C@_0BL@HKIPHBEA@ENABLE_RENEWAL_BONUS_BOARD@ DB 'ENABLE_RENEWAL_BONUS_B'
	DB	'OARD', 00H					; `string'
CONST	ENDS
;	COMDAT ??_C@_0CA@KPFJEDLP@ENABLE_EXTENDED_WHISPER_DETAILS@
CONST	SEGMENT
??_C@_0CA@KPFJEDLP@ENABLE_EXTENDED_WHISPER_DETAILS@ DB 'ENABLE_EXTENDED_W'
	DB	'HISPER_DETAILS', 00H			; `string'
CONST	ENDS
;	COMDAT ??_C@_0P@EMLFCLHL@LOCALE_MAX_NUM@
CONST	SEGMENT
??_C@_0P@EMLFCLHL@LOCALE_MAX_NUM@ DB 'LOCALE_MAX_NUM', 00H ; `string'
CONST	ENDS
;	COMDAT ??_C@_09EEGJLMNC@LOCALE_TR@
CONST	SEGMENT
??_C@_09EEGJLMNC@LOCALE_TR@ DB 'LOCALE_TR', 00H		; `string'
CONST	ENDS
;	COMDAT ??_C@_09BOBEHAAB@LOCALE_HU@
CONST	SEGMENT
??_C@_09BOBEHAAB@LOCALE_HU@ DB 'LOCALE_HU', 00H		; `string'
CONST	ENDS
;	COMDAT ??_C@_09JFNJIDCP@LOCALE_CZ@
CONST	SEGMENT
??_C@_09JFNJIDCP@LOCALE_CZ@ DB 'LOCALE_CZ', 00H		; `string'
CONST	ENDS
;	COMDAT ??_C@_09GMNCLHH@LOCALE_IT@
CONST	SEGMENT
??_C@_09GMNCLHH@LOCALE_IT@ DB 'LOCALE_IT', 00H		; `string'
CONST	ENDS
;	COMDAT ??_C@_09JHCBCLNB@LOCALE_PL@
CONST	SEGMENT
??_C@_09JHCBCLNB@LOCALE_PL@ DB 'LOCALE_PL', 00H		; `string'
CONST	ENDS
;	COMDAT ??_C@_09FNMMJLDE@LOCALE_DE@
CONST	SEGMENT
??_C@_09FNMMJLDE@LOCALE_DE@ DB 'LOCALE_DE', 00H		; `string'
CONST	ENDS
;	COMDAT ??_C@_09FLMLMLMM@LOCALE_FR@
CONST	SEGMENT
??_C@_09FLMLMLMM@LOCALE_FR@ DB 'LOCALE_FR', 00H		; `string'
CONST	ENDS
;	COMDAT ??_C@_09EAJGEENE@LOCALE_ES@
CONST	SEGMENT
??_C@_09EAJGEENE@LOCALE_ES@ DB 'LOCALE_ES', 00H		; `string'
CONST	ENDS
;	COMDAT ??_C@_09BFDKLDII@LOCALE_PT@
CONST	SEGMENT
??_C@_09BFDKLDII@LOCALE_PT@ DB 'LOCALE_PT', 00H		; `string'
CONST	ENDS
;	COMDAT ??_C@_09LPIIKMHM@LOCALE_RO@
CONST	SEGMENT
??_C@_09LPIIKMHM@LOCALE_RO@ DB 'LOCALE_RO', 00H		; `string'
CONST	ENDS
;	COMDAT ??_C@_09LPPKCIMI@LOCALE_EN@
CONST	SEGMENT
??_C@_09LPPKCIMI@LOCALE_EN@ DB 'LOCALE_EN', 00H		; `string'
CONST	ENDS
;	COMDAT ??_C@_0P@EOFGLPDC@LOCALE_DEFAULT@
CONST	SEGMENT
??_C@_0P@EOFGLPDC@LOCALE_DEFAULT@ DB 'LOCALE_DEFAULT', 00H ; `string'
CONST	ENDS
;	COMDAT ??_C@_0BN@NNDEFGCP@ENABLE_MULTI_LANGUAGE_SYSTEM@
CONST	SEGMENT
??_C@_0BN@NNDEFGCP@ENABLE_MULTI_LANGUAGE_SYSTEM@ DB 'ENABLE_MULTI_LANGUAG'
	DB	'E_SYSTEM', 00H				; `string'
CONST	ENDS
;	COMDAT ??_C@_0BH@IDDFPFEO@ENABLE_QUICK_SELL_ITEM@
CONST	SEGMENT
??_C@_0BH@IDDFPFEO@ENABLE_QUICK_SELL_ITEM@ DB 'ENABLE_QUICK_SELL_ITEM', 00H ; `string'
CONST	ENDS
;	COMDAT ??_C@_0BF@ICCAGOLJ@ENABLE_RENEWAL_QUEST@
CONST	SEGMENT
??_C@_0BF@ICCAGOLJ@ENABLE_RENEWAL_QUEST@ DB 'ENABLE_RENEWAL_QUEST', 00H ; `string'
CONST	ENDS
;	COMDAT ??_C@_0BH@LDLMBOCI@ENABLE_MESSENGER_BLOCK@
CONST	SEGMENT
??_C@_0BH@LDLMBOCI@ENABLE_MESSENGER_BLOCK@ DB 'ENABLE_MESSENGER_BLOCK', 00H ; `string'
CONST	ENDS
;	COMDAT ??_C@_0BI@DCKOBBOH@ENABLE_EXTENDED_SAFEBOX@
CONST	SEGMENT
??_C@_0BI@DCKOBBOH@ENABLE_EXTENDED_SAFEBOX@ DB 'ENABLE_EXTENDED_SAFEBOX', 00H ; `string'
CONST	ENDS
;	COMDAT ??_C@_0BG@NAKAIPKG@ENABLE_INSTANT_PICKUP@
CONST	SEGMENT
??_C@_0BG@NAKAIPKG@ENABLE_INSTANT_PICKUP@ DB 'ENABLE_INSTANT_PICKUP', 00H ; `string'
CONST	ENDS
;	COMDAT ??_C@_0BG@CKGFIAKE@ENABLE_SORT_INVENTORY@
CONST	SEGMENT
??_C@_0BG@CKGFIAKE@ENABLE_SORT_INVENTORY@ DB 'ENABLE_SORT_INVENTORY', 00H ; `string'
CONST	ENDS
;	COMDAT ??_C@_0BH@KGPICAGJ@ENABLE_COINS_INVENTORY@
CONST	SEGMENT
??_C@_0BH@KGPICAGJ@ENABLE_COINS_INVENTORY@ DB 'ENABLE_COINS_INVENTORY', 00H ; `string'
CONST	ENDS
;	COMDAT ??_C@_0BC@CPOIIJIB@ENABLE_PET_SYSTEM@
CONST	SEGMENT
??_C@_0BC@CPOIIJIB@ENABLE_PET_SYSTEM@ DB 'ENABLE_PET_SYSTEM', 00H ; `string'
CONST	ENDS
;	COMDAT ??_C@_0BE@EJKFNFHB@ENABLE_MOUNT_SYSTEM@
CONST	SEGMENT
??_C@_0BE@EJKFNFHB@ENABLE_MOUNT_SYSTEM@ DB 'ENABLE_MOUNT_SYSTEM', 00H ; `string'
CONST	ENDS
;	COMDAT ??_C@_0BG@FDOAIBIN@ENABLE_GRAPHIC_ON_OFF@
CONST	SEGMENT
??_C@_0BG@FDOAIBIN@ENABLE_GRAPHIC_ON_OFF@ DB 'ENABLE_GRAPHIC_ON_OFF', 00H ; `string'
CONST	ENDS
;	COMDAT ??_C@_0CB@FNCEEDIE@ENABLE_ENVIRONMENT_EFFECT_OPTIO@
CONST	SEGMENT
??_C@_0CB@FNCEEDIE@ENABLE_ENVIRONMENT_EFFECT_OPTIO@ DB 'ENABLE_ENVIRONMEN'
	DB	'T_EFFECT_OPTION', 00H			; `string'
CONST	ENDS
;	COMDAT ??_C@_0BA@KEDCFOBK@ENABLE_ENB_MODE@
CONST	SEGMENT
??_C@_0BA@KEDCFOBK@ENABLE_ENB_MODE@ DB 'ENABLE_ENB_MODE', 00H ; `string'
CONST	ENDS
;	COMDAT ??_C@_0P@KIOCPJHD@ENABLE_FOG_FIX@
CONST	SEGMENT
??_C@_0P@KIOCPJHD@ENABLE_FOG_FIX@ DB 'ENABLE_FOG_FIX', 00H ; `string'
CONST	ENDS
;	COMDAT ??_C@_0BG@CKLLJJNA@ENABLE_DESTROY_DIALOG@
CONST	SEGMENT
??_C@_0BG@CKLLJJNA@ENABLE_DESTROY_DIALOG@ DB 'ENABLE_DESTROY_DIALOG', 00H ; `string'
CONST	ENDS
;	COMDAT ??_C@_0BG@KNGLICHO@ENABLE_RENEWAL_SHOPEX@
CONST	SEGMENT
??_C@_0BG@KNGLICHO@ENABLE_RENEWAL_SHOPEX@ DB 'ENABLE_RENEWAL_SHOPEX', 00H ; `string'
CONST	ENDS
;	COMDAT ??_C@_0BE@FDIHPFHM@ENABLE_MAP_TELEPORT@
CONST	SEGMENT
??_C@_0BE@FDIHPFHM@ENABLE_MAP_TELEPORT@ DB 'ENABLE_MAP_TELEPORT', 00H ; `string'
CONST	ENDS
;	COMDAT ??_C@_0BL@ODDIDMFC@ENABLE_RENEWAL_DEAD_PACKET@
CONST	SEGMENT
??_C@_0BL@ODDIDMFC@ENABLE_RENEWAL_DEAD_PACKET@ DB 'ENABLE_RENEWAL_DEAD_PA'
	DB	'CKET', 00H					; `string'
CONST	ENDS
;	COMDAT ??_C@_0BG@DNNPLDMM@ENABLE_MESSENGER_TEAM@
CONST	SEGMENT
??_C@_0BG@DNNPLDMM@ENABLE_MESSENGER_TEAM@ DB 'ENABLE_MESSENGER_TEAM', 00H ; `string'
CONST	ENDS
;	COMDAT ??_C@_0BO@LEKLIGFK@ENABLE_VIEW_TARGET_DECIMAL_HP@
CONST	SEGMENT
??_C@_0BO@LEKLIGFK@ENABLE_VIEW_TARGET_DECIMAL_HP@ DB 'ENABLE_VIEW_TARGET_'
	DB	'DECIMAL_HP', 00H				; `string'
CONST	ENDS
;	COMDAT ??_C@_0BN@HOIDIKJA@ENABLE_VIEW_TARGET_PLAYER_HP@
CONST	SEGMENT
??_C@_0BN@HOIDIKJA@ENABLE_VIEW_TARGET_PLAYER_HP@ DB 'ENABLE_VIEW_TARGET_P'
	DB	'LAYER_HP', 00H				; `string'
CONST	ENDS
;	COMDAT ??_C@_0BJ@EEABCGMI@ENABLE_GUILD_RANK_SYSTEM@
CONST	SEGMENT
??_C@_0BJ@EEABCGMI@ENABLE_GUILD_RANK_SYSTEM@ DB 'ENABLE_GUILD_RANK_SYSTEM'
	DB	00H						; `string'
CONST	ENDS
;	COMDAT ??_C@_0BG@EJHALOGN@ENABLE_CHANGE_CHANNEL@
CONST	SEGMENT
??_C@_0BG@EJHALOGN@ENABLE_CHANGE_CHANNEL@ DB 'ENABLE_CHANGE_CHANNEL', 00H ; `string'
CONST	ENDS
;	COMDAT ??_C@_0BJ@CLOLEGP@ENABLE_LOAD_INDEX_BINARY@
CONST	SEGMENT
??_C@_0BJ@CLOLEGP@ENABLE_LOAD_INDEX_BINARY@ DB 'ENABLE_LOAD_INDEX_BINARY', 00H ; `string'
CONST	ENDS
;	COMDAT ??_C@_0BM@LNFCINHP@ENABLE_NEW_EQUIPMENT_SYSTEM@
CONST	SEGMENT
??_C@_0BM@LNFCINHP@ENABLE_NEW_EQUIPMENT_SYSTEM@ DB 'ENABLE_NEW_EQUIPMENT_'
	DB	'SYSTEM', 00H				; `string'
CONST	ENDS
;	COMDAT ??_C@_0BK@MHKPDOOB@ENABLE_DRAGON_SOUL_SYSTEM@
CONST	SEGMENT
??_C@_0BK@MHKPDOOB@ENABLE_DRAGON_SOUL_SYSTEM@ DB 'ENABLE_DRAGON_SOUL_SYST'
	DB	'EM', 00H					; `string'
CONST	ENDS
;	COMDAT ??_C@_0BF@JNPGDOCA@ENABLE_ENERGY_SYSTEM@
CONST	SEGMENT
??_C@_0BF@JNPGDOCA@ENABLE_ENERGY_SYSTEM@ DB 'ENABLE_ENERGY_SYSTEM', 00H ; `string'
CONST	ENDS
;	COMDAT ??_C@_0BG@NNONEOJP@ENABLE_COSTUME_SYSTEM@
CONST	SEGMENT
??_C@_0BG@NNONEOJP@ENABLE_COSTUME_SYSTEM@ DB 'ENABLE_COSTUME_SYSTEM', 00H ; `string'
CONST	ENDS
;	COMDAT ??_C@_0M@NJFGNKPE@CAMERA_STOP@
CONST	SEGMENT
??_C@_0M@NJFGNKPE@CAMERA_STOP@ DB 'CAMERA_STOP', 00H	; `string'
CONST	ENDS
;	COMDAT ??_C@_0BD@JPBNJGLJ@CAMERA_TO_NEGATIVE@
CONST	SEGMENT
??_C@_0BD@JPBNJGLJ@CAMERA_TO_NEGATIVE@ DB 'CAMERA_TO_NEGATIVE', 00H ; `string'
CONST	ENDS
;	COMDAT ??_C@_0BD@BFBNCJCC@CAMERA_TO_POSITIVE@
CONST	SEGMENT
??_C@_0BD@BFBNCJCC@CAMERA_TO_POSITIVE@ DB 'CAMERA_TO_POSITIVE', 00H ; `string'
CONST	ENDS
;	COMDAT ??_C@_04FOCIOHFI@FISH@
CONST	SEGMENT
??_C@_04FOCIOHFI@FISH@ DB 'FISH', 00H			; `string'
CONST	ENDS
;	COMDAT ??_C@_06LKCKECPP@HVSIZE@
CONST	SEGMENT
??_C@_06LKCKECPP@HVSIZE@ DB 'HVSIZE', 00H		; `string'
CONST	ENDS
;	COMDAT ??_C@_05OBGAAHDM@VSIZE@
CONST	SEGMENT
??_C@_05OBGAAHDM@VSIZE@ DB 'VSIZE', 00H			; `string'
CONST	ENDS
;	COMDAT ??_C@_05NILMGENH@HSIZE@
CONST	SEGMENT
??_C@_05NILMGENH@HSIZE@ DB 'HSIZE', 00H			; `string'
CONST	ENDS
;	COMDAT ??_C@_0O@MAJOJEIM@CAMERA_ROTATE@
CONST	SEGMENT
??_C@_0O@MAJOJEIM@CAMERA_ROTATE@ DB 'CAMERA_ROTATE', 00H ; `string'
CONST	ENDS
;	COMDAT ??_C@_04MPOIGBFL@SELL@
CONST	SEGMENT
??_C@_04MPOIGBFL@SELL@ DB 'SELL', 00H			; `string'
CONST	ENDS
;	COMDAT ??_C@_03OOKILKBD@BUY@
CONST	SEGMENT
??_C@_03OOKILKBD@BUY@ DB 'BUY', 00H			; `string'
CONST	ENDS
;	COMDAT ??_C@_05DKLEPMBK@MAGIC@
CONST	SEGMENT
??_C@_05DKLEPMBK@MAGIC@ DB 'MAGIC', 00H			; `string'
CONST	ENDS
;	COMDAT ??_C@_05HLBMIDNH@CHAIR@
CONST	SEGMENT
??_C@_05HLBMIDNH@CHAIR@ DB 'CHAIR', 00H			; `string'
CONST	ENDS
;	COMDAT ??_C@_04KEJCELCL@DOOR@
CONST	SEGMENT
??_C@_04KEJCELCL@DOOR@ DB 'DOOR', 00H			; `string'
CONST	ENDS
;	COMDAT ??_C@_04IGIDHFMJ@PICK@
CONST	SEGMENT
??_C@_04IGIDHFMJ@PICK@ DB 'PICK', 00H			; `string'
CONST	ENDS
;	COMDAT ??_C@_07LGCIEODJ@CANT_GO@
CONST	SEGMENT
??_C@_07LGCIEODJ@CANT_GO@ DB 'CANT_GO', 00H		; `string'
CONST	ENDS
;	COMDAT ??_C@_04LNOLLMNL@TALK@
CONST	SEGMENT
??_C@_04LNOLLMNL@TALK@ DB 'TALK', 00H			; `string'
CONST	ENDS
;	COMDAT ??_C@_06JNJLBPLI@TARGET@
CONST	SEGMENT
??_C@_06JNJLBPLI@TARGET@ DB 'TARGET', 00H		; `string'
CONST	ENDS
;	COMDAT ??_C@_06JIJKOHKJ@ATTACK@
CONST	SEGMENT
??_C@_06JIJKOHKJ@ATTACK@ DB 'ATTACK', 00H		; `string'
CONST	ENDS
;	COMDAT ??_C@_06IOJAGNKJ@NORMAL@
CONST	SEGMENT
??_C@_06IOJAGNKJ@NORMAL@ DB 'NORMAL', 00H		; `string'
CONST	ENDS
;	COMDAT ??_C@_08EEDKKFEB@DIK_APPS@
CONST	SEGMENT
??_C@_08EEDKKFEB@DIK_APPS@ DB 'DIK_APPS', 00H		; `string'
CONST	ENDS
;	COMDAT ??_C@_08BCDGIEEJ@DIK_RWIN@
CONST	SEGMENT
??_C@_08BCDGIEEJ@DIK_RWIN@ DB 'DIK_RWIN', 00H		; `string'
CONST	ENDS
;	COMDAT ??_C@_08MNOGKNKK@DIK_LWIN@
CONST	SEGMENT
??_C@_08MNOGKNKK@DIK_LWIN@ DB 'DIK_LWIN', 00H		; `string'
CONST	ENDS
;	COMDAT ??_C@_0L@HICEJOHK@DIK_DELETE@
CONST	SEGMENT
??_C@_0L@HICEJOHK@DIK_DELETE@ DB 'DIK_DELETE', 00H	; `string'
CONST	ENDS
;	COMDAT ??_C@_0L@MGNAFAII@DIK_INSERT@
CONST	SEGMENT
??_C@_0L@MGNAFAII@DIK_INSERT@ DB 'DIK_INSERT', 00H	; `string'
CONST	ENDS
;	COMDAT ??_C@_08DADHBDOF@DIK_PGDN@
CONST	SEGMENT
??_C@_08DADHBDOF@DIK_PGDN@ DB 'DIK_PGDN', 00H		; `string'
CONST	ENDS
;	COMDAT ??_C@_08HOIDBHGB@DIK_DOWN@
CONST	SEGMENT
??_C@_08HOIDBHGB@DIK_DOWN@ DB 'DIK_DOWN', 00H		; `string'
CONST	ENDS
;	COMDAT ??_C@_07HLJOPMFK@DIK_END@
CONST	SEGMENT
??_C@_07HLJOPMFK@DIK_END@ DB 'DIK_END', 00H		; `string'
CONST	ENDS
;	COMDAT ??_C@_09OKEHHFIC@DIK_RIGHT@
CONST	SEGMENT
??_C@_09OKEHHFIC@DIK_RIGHT@ DB 'DIK_RIGHT', 00H		; `string'
CONST	ENDS
;	COMDAT ??_C@_08IMIHIPFI@DIK_LEFT@
CONST	SEGMENT
??_C@_08IMIHIPFI@DIK_LEFT@ DB 'DIK_LEFT', 00H		; `string'
CONST	ENDS
;	COMDAT ??_C@_08PJJCOFHN@DIK_PGUP@
CONST	SEGMENT
??_C@_08PJJCOFHN@DIK_PGUP@ DB 'DIK_PGUP', 00H		; `string'
CONST	ENDS
;	COMDAT ??_C@_06JGABONOM@DIK_UP@
CONST	SEGMENT
??_C@_06JGABONOM@DIK_UP@ DB 'DIK_UP', 00H		; `string'
CONST	ENDS
;	COMDAT ??_C@_08EJDGAFAN@DIK_HOME@
CONST	SEGMENT
??_C@_08EJDGAFAN@DIK_HOME@ DB 'DIK_HOME', 00H		; `string'
CONST	ENDS
;	COMDAT ??_C@_09COEFGPNN@DIK_PAUSE@
CONST	SEGMENT
??_C@_09COEFGPNN@DIK_PAUSE@ DB 'DIK_PAUSE', 00H		; `string'
CONST	ENDS
;	COMDAT ??_C@_08NBKCLEDK@DIK_RALT@
CONST	SEGMENT
??_C@_08NBKCLEDK@DIK_RALT@ DB 'DIK_RALT', 00H		; `string'
CONST	ENDS
;	COMDAT ??_C@_09PCEGCDIO@DIK_SYSRQ@
CONST	SEGMENT
??_C@_09PCEGCDIO@DIK_SYSRQ@ DB 'DIK_SYSRQ', 00H		; `string'
CONST	ENDS
;	COMDAT ??_C@_0L@HDEGMNOK@DIK_DIVIDE@
CONST	SEGMENT
??_C@_0L@HDEGMNOK@DIK_DIVIDE@ DB 'DIK_DIVIDE', 00H	; `string'
CONST	ENDS
;	COMDAT ??_C@_0BA@ECBGFAAH@DIK_NUMPADCOMMA@
CONST	SEGMENT
??_C@_0BA@ECBGFAAH@DIK_NUMPADCOMMA@ DB 'DIK_NUMPADCOMMA', 00H ; `string'
CONST	ENDS
;	COMDAT ??_C@_0M@IEADBFND@DIK_WEBHOME@
CONST	SEGMENT
??_C@_0M@IEADBFND@DIK_WEBHOME@ DB 'DIK_WEBHOME', 00H	; `string'
CONST	ENDS
;	COMDAT ??_C@_0N@GPHLGHED@DIK_VOLUMEUP@
CONST	SEGMENT
??_C@_0N@GPHLGHED@DIK_VOLUMEUP@ DB 'DIK_VOLUMEUP', 00H	; `string'
CONST	ENDS
;	COMDAT ??_C@_0P@FKHBCEAD@DIK_VOLUMEDOWN@
CONST	SEGMENT
??_C@_0P@FKHBCEAD@DIK_VOLUMEDOWN@ DB 'DIK_VOLUMEDOWN', 00H ; `string'
CONST	ENDS
;	COMDAT ??_C@_0O@FLFOAKOG@DIK_MEDIASTOP@
CONST	SEGMENT
??_C@_0O@FLFOAKOG@DIK_MEDIASTOP@ DB 'DIK_MEDIASTOP', 00H ; `string'
CONST	ENDS
;	COMDAT ??_C@_0O@ECAMOKPG@DIK_PLAYPAUSE@
CONST	SEGMENT
??_C@_0O@ECAMOKPG@DIK_PLAYPAUSE@ DB 'DIK_PLAYPAUSE', 00H ; `string'
CONST	ENDS
;	COMDAT ??_C@_0P@OJEJDHIP@DIK_CALCULATOR@
CONST	SEGMENT
??_C@_0P@OJEJDHIP@DIK_CALCULATOR@ DB 'DIK_CALCULATOR', 00H ; `string'
CONST	ENDS
;	COMDAT ??_C@_08KNIFKFHJ@DIK_MUTE@
CONST	SEGMENT
??_C@_08KNIFKFHJ@DIK_MUTE@ DB 'DIK_MUTE', 00H		; `string'
CONST	ENDS
;	COMDAT ??_C@_0N@GKDJCKOL@DIK_RCONTROL@
CONST	SEGMENT
??_C@_0N@GKDJCKOL@DIK_RCONTROL@ DB 'DIK_RCONTROL', 00H	; `string'
CONST	ENDS
;	COMDAT ??_C@_0BA@OLMCJCJF@DIK_NUMPADENTER@
CONST	SEGMENT
??_C@_0BA@OLMCJCJF@DIK_NUMPADENTER@ DB 'DIK_NUMPADENTER', 00H ; `string'
CONST	ENDS
;	COMDAT ??_C@_0O@DEOEEHEE@DIK_NEXTTRACK@
CONST	SEGMENT
??_C@_0O@DEOEEHEE@DIK_NEXTTRACK@ DB 'DIK_NEXTTRACK', 00H ; `string'
CONST	ENDS
;	COMDAT ??_C@_07EPODKCKJ@DIK_F12@
CONST	SEGMENT
??_C@_07EPODKCKJ@DIK_F12@ DB 'DIK_F12', 00H		; `string'
CONST	ENDS
;	COMDAT ??_C@_07GEMOPBGK@DIK_F11@
CONST	SEGMENT
??_C@_07GEMOPBGK@DIK_F11@ DB 'DIK_F11', 00H		; `string'
CONST	ENDS
;	COMDAT ??_C@_0M@PCNKFDKI@DIK_DECIMAL@
CONST	SEGMENT
??_C@_0M@PCNKFDKI@DIK_DECIMAL@ DB 'DIK_DECIMAL', 00H	; `string'
CONST	ENDS
;	COMDAT ??_C@_0M@JMKJAMIE@DIK_NUMPAD0@
CONST	SEGMENT
??_C@_0M@JMKJAMIE@DIK_NUMPAD0@ DB 'DIK_NUMPAD0', 00H	; `string'
CONST	ENDS
;	COMDAT ??_C@_0M@LHIEFPEH@DIK_NUMPAD3@
CONST	SEGMENT
??_C@_0M@LHIEFPEH@DIK_NUMPAD3@ DB 'DIK_NUMPAD3', 00H	; `string'
CONST	ENDS
;	COMDAT ??_C@_0M@KOJPGOAG@DIK_NUMPAD2@
CONST	SEGMENT
??_C@_0M@KOJPGOAG@DIK_NUMPAD2@ DB 'DIK_NUMPAD2', 00H	; `string'
CONST	ENDS
;	COMDAT ??_C@_0M@IFLCDNMF@DIK_NUMPAD1@
CONST	SEGMENT
??_C@_0M@IFLCDNMF@DIK_NUMPAD1@ DB 'DIK_NUMPAD1', 00H	; `string'
CONST	ENDS
;	COMDAT ??_C@_07PJGLOONL@DIK_ADD@
CONST	SEGMENT
??_C@_07PJGLOONL@DIK_ADD@ DB 'DIK_ADD', 00H		; `string'
CONST	ENDS
;	COMDAT ??_C@_0M@MKPDKLAC@DIK_NUMPAD6@
CONST	SEGMENT
??_C@_0M@MKPDKLAC@DIK_NUMPAD6@ DB 'DIK_NUMPAD6', 00H	; `string'
CONST	ENDS
;	COMDAT ??_C@_0M@OBNOPIMB@DIK_NUMPAD5@
CONST	SEGMENT
??_C@_0M@OBNOPIMB@DIK_NUMPAD5@ DB 'DIK_NUMPAD5', 00H	; `string'
CONST	ENDS
;	COMDAT ??_C@_0M@PIMFMJIA@DIK_NUMPAD4@
CONST	SEGMENT
??_C@_0M@PIMFMJIA@DIK_NUMPAD4@ DB 'DIK_NUMPAD4', 00H	; `string'
CONST	ENDS
;	COMDAT ??_C@_0N@ECOBCKNF@DIK_SUBTRACT@
CONST	SEGMENT
??_C@_0N@ECOBCKNF@DIK_SUBTRACT@ DB 'DIK_SUBTRACT', 00H	; `string'
CONST	ENDS
;	COMDAT ??_C@_0M@ENGLLHMN@DIK_NUMPAD9@
CONST	SEGMENT
??_C@_0M@ENGLLHMN@DIK_NUMPAD9@ DB 'DIK_NUMPAD9', 00H	; `string'
CONST	ENDS
;	COMDAT ??_C@_0M@FEHAIGIM@DIK_NUMPAD8@
CONST	SEGMENT
??_C@_0M@FEHAIGIM@DIK_NUMPAD8@ DB 'DIK_NUMPAD8', 00H	; `string'
CONST	ENDS
;	COMDAT ??_C@_0M@NDOIJKED@DIK_NUMPAD7@
CONST	SEGMENT
??_C@_0M@NDOIJKED@DIK_NUMPAD7@ DB 'DIK_NUMPAD7', 00H	; `string'
CONST	ENDS
;	COMDAT ??_C@_0L@HPJOFPCB@DIK_SCROLL@
CONST	SEGMENT
??_C@_0L@HPJOFPCB@DIK_SCROLL@ DB 'DIK_SCROLL', 00H	; `string'
CONST	ENDS
;	COMDAT ??_C@_0M@BAOCLHIM@DIK_NUMLOCK@
CONST	SEGMENT
??_C@_0M@BAOCLHIM@DIK_NUMLOCK@ DB 'DIK_NUMLOCK', 00H	; `string'
CONST	ENDS
;	COMDAT ??_C@_07HNNFMACL@DIK_F10@
CONST	SEGMENT
??_C@_07HNNFMACL@DIK_F10@ DB 'DIK_F10', 00H		; `string'
CONST	ENDS
;	COMDAT ??_C@_06DMFOCACL@DIK_F9@
CONST	SEGMENT
??_C@_06DMFOCACL@DIK_F9@ DB 'DIK_F9', 00H		; `string'
CONST	ENDS
;	COMDAT ??_C@_06CFEFBBGK@DIK_F8@
CONST	SEGMENT
??_C@_06CFEFBBGK@DIK_F8@ DB 'DIK_F8', 00H		; `string'
CONST	ENDS
;	COMDAT ??_C@_06KCNNANKF@DIK_F7@
CONST	SEGMENT
??_C@_06KCNNANKF@DIK_F7@ DB 'DIK_F7', 00H		; `string'
CONST	ENDS
;	COMDAT ??_C@_06LLMGDMOE@DIK_F6@
CONST	SEGMENT
??_C@_06LLMGDMOE@DIK_F6@ DB 'DIK_F6', 00H		; `string'
CONST	ENDS
;	COMDAT ??_C@_06JAOLGPCH@DIK_F5@
CONST	SEGMENT
??_C@_06JAOLGPCH@DIK_F5@ DB 'DIK_F5', 00H		; `string'
CONST	ENDS
;	COMDAT ??_C@_06IJPAFOGG@DIK_F4@
CONST	SEGMENT
??_C@_06IJPAFOGG@DIK_F4@ DB 'DIK_F4', 00H		; `string'
CONST	ENDS
;	COMDAT ??_C@_06MGLBMIKB@DIK_F3@
CONST	SEGMENT
??_C@_06MGLBMIKB@DIK_F3@ DB 'DIK_F3', 00H		; `string'
CONST	ENDS
;	COMDAT ??_C@_06NPKKPJOA@DIK_F2@
CONST	SEGMENT
??_C@_06NPKKPJOA@DIK_F2@ DB 'DIK_F2', 00H		; `string'
CONST	ENDS
;	COMDAT ??_C@_06PEIHKKCD@DIK_F1@
CONST	SEGMENT
??_C@_06PEIHKKCD@DIK_F1@ DB 'DIK_F1', 00H		; `string'
CONST	ENDS
;	COMDAT ??_C@_0M@KEADBGIC@DIK_CAPITAL@
CONST	SEGMENT
??_C@_0M@KEADBGIC@DIK_CAPITAL@ DB 'DIK_CAPITAL', 00H	; `string'
CONST	ENDS
;	COMDAT ??_C@_09DGAMMAPJ@DIK_SPACE@
CONST	SEGMENT
??_C@_09DGAMMAPJ@DIK_SPACE@ DB 'DIK_SPACE', 00H		; `string'
CONST	ENDS
;	COMDAT ??_C@_08OHCJNNJ@DIK_LALT@
CONST	SEGMENT
??_C@_08OHCJNNJ@DIK_LALT@ DB 'DIK_LALT', 00H		; `string'
CONST	ENDS
;	COMDAT ??_C@_0N@DHLLGHHC@DIK_MULTIPLY@
CONST	SEGMENT
??_C@_0N@DHLLGHHC@DIK_MULTIPLY@ DB 'DIK_MULTIPLY', 00H	; `string'
CONST	ENDS
;	COMDAT ??_C@_0L@FKIIJLHO@DIK_RSHIFT@
CONST	SEGMENT
??_C@_0L@FKIIJLHO@DIK_RSHIFT@ DB 'DIK_RSHIFT', 00H	; `string'
CONST	ENDS
;	COMDAT ??_C@_09DKJEGHEH@DIK_SLASH@
CONST	SEGMENT
??_C@_09DKJEGHEH@DIK_SLASH@ DB 'DIK_SLASH', 00H		; `string'
CONST	ENDS
;	COMDAT ??_C@_0L@HHNLMNCM@DIK_PERIOD@
CONST	SEGMENT
??_C@_0L@HHNLMNCM@DIK_PERIOD@ DB 'DIK_PERIOD', 00H	; `string'
CONST	ENDS
;	COMDAT ??_C@_09PDEOJFIH@DIK_COMMA@
CONST	SEGMENT
??_C@_09PDEOJFIH@DIK_COMMA@ DB 'DIK_COMMA', 00H		; `string'
CONST	ENDS
;	COMDAT ??_C@_05OBDFKLOH@DIK_M@
CONST	SEGMENT
??_C@_05OBDFKLOH@DIK_M@ DB 'DIK_M', 00H			; `string'
CONST	ENDS
;	COMDAT ??_C@_05MKBIPICE@DIK_N@
CONST	SEGMENT
??_C@_05MKBIPICE@DIK_N@ DB 'DIK_N', 00H			; `string'
CONST	ENDS
;	COMDAT ??_C@_05GGKNLHCI@DIK_B@
CONST	SEGMENT
??_C@_05GGKNLHCI@DIK_B@ DB 'DIK_B', 00H			; `string'
CONST	ENDS
;	COMDAT ??_C@_05EIADGAHN@DIK_V@
CONST	SEGMENT
??_C@_05EIADGAHN@DIK_V@ DB 'DIK_V', 00H			; `string'
CONST	ENDS
;	COMDAT ??_C@_05HPLGIGGJ@DIK_C@
CONST	SEGMENT
??_C@_05HPLGIGGJ@DIK_C@ DB 'DIK_C', 00H			; `string'
CONST	ENDS
;	COMDAT ??_C@_05NGIAENPD@DIK_X@
CONST	SEGMENT
??_C@_05NGIAENPD@DIK_X@ DB 'DIK_X', 00H			; `string'
CONST	ENDS
;	COMDAT ??_C@_05OELGCPHB@DIK_Z@
CONST	SEGMENT
??_C@_05OELGCPHB@DIK_Z@ DB 'DIK_Z', 00H			; `string'
CONST	ENDS
;	COMDAT ??_C@_0O@DGKNNOHE@DIK_BACKSLASH@
CONST	SEGMENT
??_C@_0O@DGKNNOHE@DIK_BACKSLASH@ DB 'DIK_BACKSLASH', 00H ; `string'
CONST	ENDS
;	COMDAT ??_C@_0L@GNGJHMON@DIK_LSHIFT@
CONST	SEGMENT
??_C@_0L@GNGJHMON@DIK_LSHIFT@ DB 'DIK_LSHIFT', 00H	; `string'
CONST	ENDS
;	COMDAT ??_C@_09MOGGLCIP@DIK_GRAVE@
CONST	SEGMENT
??_C@_09MOGGLCIP@DIK_GRAVE@ DB 'DIK_GRAVE', 00H		; `string'
CONST	ENDS
;	COMDAT ??_C@_0P@JDEKLKAM@DIK_APOSTROPHE@
CONST	SEGMENT
??_C@_0P@JDEKLKAM@DIK_APOSTROPHE@ DB 'DIK_APOSTROPHE', 00H ; `string'
CONST	ENDS
;	COMDAT ??_C@_0O@NEECDLLB@DIK_SEMICOLON@
CONST	SEGMENT
??_C@_0O@NEECDLLB@DIK_SEMICOLON@ DB 'DIK_SEMICOLON', 00H ; `string'
CONST	ENDS
;	COMDAT ??_C@_05PICOJKKG@DIK_L@
CONST	SEGMENT
??_C@_05PICOJKKG@DIK_L@ DB 'DIK_L', 00H			; `string'
CONST	ENDS
;	COMDAT ??_C@_05LHGPAMGB@DIK_K@
CONST	SEGMENT
??_C@_05LHGPAMGB@DIK_K@ DB 'DIK_K', 00H			; `string'
CONST	ENDS
;	COMDAT ??_C@_05KOHEDNCA@DIK_J@
CONST	SEGMENT
??_C@_05KOHEDNCA@DIK_J@ DB 'DIK_J', 00H			; `string'
CONST	ENDS
;	COMDAT ??_C@_05JMECFPKC@DIK_H@
CONST	SEGMENT
??_C@_05JMECFPKC@DIK_H@ DB 'DIK_H', 00H			; `string'
CONST	ENDS
;	COMDAT ??_C@_05BLNKEDGN@DIK_G@
CONST	SEGMENT
??_C@_05BLNKEDGN@DIK_G@ DB 'DIK_G', 00H			; `string'
CONST	ENDS
;	COMDAT ??_C@_05CMBHCCM@DIK_F@
CONST	SEGMENT
??_C@_05CMBHCCM@DIK_F@ DB 'DIK_F', 00H			; `string'
CONST	ENDS
;	COMDAT ??_C@_05DAPHBAKO@DIK_D@
CONST	SEGMENT
??_C@_05DAPHBAKO@DIK_D@ DB 'DIK_D', 00H			; `string'
CONST	ENDS
;	COMDAT ??_C@_05DFHEJEDI@DIK_S@
CONST	SEGMENT
??_C@_05DFHEJEDI@DIK_S@ DB 'DIK_S', 00H			; `string'
CONST	ENDS
;	COMDAT ??_C@_05ENIAOEOL@DIK_A@
CONST	SEGMENT
??_C@_05ENIAOEOL@DIK_A@ DB 'DIK_A', 00H			; `string'
CONST	ENDS
;	COMDAT ??_C@_0N@ODLLDAI@DIK_LCONTROL@
CONST	SEGMENT
??_C@_0N@ODLLDAI@DIK_LCONTROL@ DB 'DIK_LCONTROL', 00H	; `string'
CONST	ENDS
;	COMDAT ??_C@_0L@JLNKBJCL@DIK_RETURN@
CONST	SEGMENT
??_C@_0L@JLNKBJCL@DIK_RETURN@ DB 'DIK_RETURN', 00H	; `string'
CONST	ENDS
;	COMDAT ??_C@_0N@CBJBCLKG@DIK_RBRACKET@
CONST	SEGMENT
??_C@_0N@CBJBCLKG@DIK_RBRACKET@ DB 'DIK_RBRACKET', 00H	; `string'
CONST	ENDS
;	COMDAT ??_C@_0N@EFJDLCEF@DIK_LBRACKET@
CONST	SEGMENT
??_C@_0N@EFJDLCEF@DIK_LBRACKET@ DB 'DIK_LBRACKET', 00H	; `string'
CONST	ENDS
;	COMDAT ??_C@_05BOFJMHPL@DIK_P@
CONST	SEGMENT
??_C@_05BOFJMHPL@DIK_P@ DB 'DIK_P', 00H			; `string'
CONST	ENDS
;	COMDAT ??_C@_05NDADMJGF@DIK_O@
CONST	SEGMENT
??_C@_05NDADMJGF@DIK_O@ DB 'DIK_O', 00H			; `string'
CONST	ENDS
;	COMDAT ??_C@_05IFFJGOOD@DIK_I@
CONST	SEGMENT
??_C@_05IFFJGOOD@DIK_I@ DB 'DIK_I', 00H			; `string'
CONST	ENDS
;	COMDAT ??_C@_05GDCODDLO@DIK_U@
CONST	SEGMENT
??_C@_05GDCODDLO@DIK_U@ DB 'DIK_U', 00H			; `string'
CONST	ENDS
;	COMDAT ??_C@_05MPJLHMLC@DIK_Y@
CONST	SEGMENT
??_C@_05MPJLHMLC@DIK_Y@ DB 'DIK_Y', 00H			; `string'
CONST	ENDS
;	COMDAT ??_C@_05HKDFACPP@DIK_T@
CONST	SEGMENT
??_C@_05HKDFACPP@DIK_T@ DB 'DIK_T', 00H			; `string'
CONST	ENDS
;	COMDAT ??_C@_05CMGPKFHJ@DIK_R@
CONST	SEGMENT
??_C@_05CMGPKFHJ@DIK_R@ DB 'DIK_R', 00H			; `string'
CONST	ENDS
;	COMDAT ??_C@_05CJOMCBOP@DIK_E@
CONST	SEGMENT
??_C@_05CJOMCBOP@DIK_E@ DB 'DIK_E', 00H			; `string'
CONST	ENDS
;	COMDAT ??_C@_05FBBIFBDM@DIK_W@
CONST	SEGMENT
??_C@_05FBBIFBDM@DIK_W@ DB 'DIK_W', 00H			; `string'
CONST	ENDS
;	COMDAT ??_C@_05HECPGLK@DIK_Q@
CONST	SEGMENT
??_C@_05HECPGLK@DIK_Q@ DB 'DIK_Q', 00H			; `string'
CONST	ENDS
;	COMDAT ??_C@_07MODNCMBL@DIK_TAB@
CONST	SEGMENT
??_C@_07MODNCMBL@DIK_TAB@ DB 'DIK_TAB', 00H		; `string'
CONST	ENDS
;	COMDAT ??_C@_08HHEEGKBL@DIK_BACK@
CONST	SEGMENT
??_C@_08HHEEGKBL@DIK_BACK@ DB 'DIK_BACK', 00H		; `string'
CONST	ENDS
;	COMDAT ??_C@_0L@KKCLPAPI@DIK_EQUALS@
CONST	SEGMENT
??_C@_0L@KKCLPAPI@DIK_EQUALS@ DB 'DIK_EQUALS', 00H	; `string'
CONST	ENDS
;	COMDAT ??_C@_09DOHACMKC@DIK_MINUS@
CONST	SEGMENT
??_C@_09DOHACMKC@DIK_MINUS@ DB 'DIK_MINUS', 00H		; `string'
CONST	ENDS
;	COMDAT ??_C@_05HLKEKMFM@DIK_0@
CONST	SEGMENT
??_C@_05HLKEKMFM@DIK_0@ DB 'DIK_0', 00H			; `string'
CONST	ENDS
;	COMDAT ??_C@_05KKGGBHBF@DIK_9@
CONST	SEGMENT
??_C@_05KKGGBHBF@DIK_9@ DB 'DIK_9', 00H			; `string'
CONST	ENDS
;	COMDAT ??_C@_05LDHNCGFE@DIK_8@
CONST	SEGMENT
??_C@_05LDHNCGFE@DIK_8@ DB 'DIK_8', 00H			; `string'
CONST	ENDS
;	COMDAT ??_C@_05DEOFDKJL@DIK_7@
CONST	SEGMENT
??_C@_05DEOFDKJL@DIK_7@ DB 'DIK_7', 00H			; `string'
CONST	ENDS
;	COMDAT ??_C@_05CNPOALNK@DIK_6@
CONST	SEGMENT
??_C@_05CNPOALNK@DIK_6@ DB 'DIK_6', 00H			; `string'
CONST	ENDS
;	COMDAT ??_C@_05GNDFIBJ@DIK_5@
CONST	SEGMENT
??_C@_05GNDFIBJ@DIK_5@ DB 'DIK_5', 00H			; `string'
CONST	ENDS
;	COMDAT ??_C@_05BPMIGJFI@DIK_4@
CONST	SEGMENT
??_C@_05BPMIGJFI@DIK_4@ DB 'DIK_4', 00H			; `string'
CONST	ENDS
;	COMDAT ??_C@_05FAIJPPJP@DIK_3@
CONST	SEGMENT
??_C@_05FAIJPPJP@DIK_3@ DB 'DIK_3', 00H			; `string'
CONST	ENDS
;	COMDAT ??_C@_05EJJCMONO@DIK_2@
CONST	SEGMENT
??_C@_05EJJCMONO@DIK_2@ DB 'DIK_2', 00H			; `string'
CONST	ENDS
;	COMDAT ??_C@_05GCLPJNBN@DIK_1@
CONST	SEGMENT
??_C@_05GCLPJNBN@DIK_1@ DB 'DIK_1', 00H			; `string'
CONST	ENDS
;	COMDAT ??_C@_07CACBFKLO@DIK_ESC@
CONST	SEGMENT
??_C@_07CACBFKLO@DIK_ESC@ DB 'DIK_ESC', 00H		; `string'
CONST	ENDS
;	COMDAT ??_C@_0L@BOHNMBC@DIK_ESCAPE@
CONST	SEGMENT
??_C@_0L@BOHNMBC@DIK_ESCAPE@ DB 'DIK_ESCAPE', 00H	; `string'
CONST	ENDS
;	COMDAT ??_C@_09EABNPHOI@VK_DELETE@
CONST	SEGMENT
??_C@_09EABNPHOI@VK_DELETE@ DB 'VK_DELETE', 00H		; `string'
CONST	ENDS
;	COMDAT ??_C@_06LPJBNMHN@VK_END@
CONST	SEGMENT
??_C@_06LPJBNMHN@VK_END@ DB 'VK_END', 00H		; `string'
CONST	ENDS
;	COMDAT ??_C@_07OMPILPEG@VK_HOME@
CONST	SEGMENT
??_C@_07OMPILPEG@VK_HOME@ DB 'VK_HOME', 00H		; `string'
CONST	ENDS
;	COMDAT ??_C@_07NLENKNCK@VK_DOWN@
CONST	SEGMENT
??_C@_07NLENKNCK@VK_DOWN@ DB 'VK_DOWN', 00H		; `string'
CONST	ENDS
;	COMDAT ??_C@_05PIGLHCBF@VK_UP@
CONST	SEGMENT
??_C@_05PIGLHCBF@VK_UP@ DB 'VK_UP', 00H			; `string'
CONST	ENDS
;	COMDAT ??_C@_08LOMCDCA@VK_RIGHT@
CONST	SEGMENT
??_C@_08LOMCDCA@VK_RIGHT@ DB 'VK_RIGHT', 00H		; `string'
CONST	ENDS
;	COMDAT ??_C@_07CJEJDFBD@VK_LEFT@
CONST	SEGMENT
??_C@_07CJEJDFBD@VK_LEFT@ DB 'VK_LEFT', 00H		; `string'
CONST	ENDS
;	COMDAT ??_C@_0BG@JGNHHMCM@DEGREE_DIRECTION_LEFT@
CONST	SEGMENT
??_C@_0BG@JGNHHMCM@DEGREE_DIRECTION_LEFT@ DB 'DEGREE_DIRECTION_LEFT', 00H ; `string'
CONST	ENDS
;	COMDAT ??_C@_0BH@LNDFJAFE@DEGREE_DIRECTION_RIGHT@
CONST	SEGMENT
??_C@_0BH@LNDFJAFE@DEGREE_DIRECTION_RIGHT@ DB 'DEGREE_DIRECTION_RIGHT', 00H ; `string'
CONST	ENDS
;	COMDAT ??_C@_0BG@KEIJCHNJ@DEGREE_DIRECTION_SAME@
CONST	SEGMENT
??_C@_0BG@KEIJCHNJ@DEGREE_DIRECTION_SAME@ DB 'DEGREE_DIRECTION_SAME', 00H ; `string'
CONST	ENDS
;	COMDAT ??_C@_0O@FAGLOALJ@INFO_TEXTTAIL@
CONST	SEGMENT
??_C@_0O@FAGLOALJ@INFO_TEXTTAIL@ DB 'INFO_TEXTTAIL', 00H ; `string'
CONST	ENDS
;	COMDAT ??_C@_0M@KLBHMBMD@INFO_EFFECT@
CONST	SEGMENT
??_C@_0M@KLBHMBMD@INFO_EFFECT@ DB 'INFO_EFFECT', 00H	; `string'
CONST	ENDS
;	COMDAT ??_C@_0L@FNNFPLHG@INFO_ACTOR@
CONST	SEGMENT
??_C@_0L@FNNFPLHG@INFO_ACTOR@ DB 'INFO_ACTOR', 00H	; `string'
CONST	ENDS
;	COMDAT ??_C@_09OKOJMLAA@INFO_ITEM@
CONST	SEGMENT
??_C@_09OKOJMLAA@INFO_ITEM@ DB 'INFO_ITEM', 00H		; `string'
CONST	ENDS
;	COMDAT ??_C@_0BE@LJAANCDG@SetMultiFarmExeIcon@
CONST	SEGMENT
??_C@_0BE@LJAANCDG@SetMultiFarmExeIcon@ DB 'SetMultiFarmExeIcon', 00H ; `string'
CONST	ENDS
;	COMDAT ??_C@_0BB@DGBLNILG@FlashApplication@
CONST	SEGMENT
??_C@_0BB@DGBLNILG@FlashApplication@ DB 'FlashApplication', 00H ; `string'
CONST	ENDS
;	COMDAT ??_C@_09CALLECAO@GetLocale@
CONST	SEGMENT
??_C@_09CALLECAO@GetLocale@ DB 'GetLocale', 00H		; `string'
CONST	ENDS
;	COMDAT ??_C@_09OPOGDJM@SetLocale@
CONST	SEGMENT
??_C@_09OPOGDJM@SetLocale@ DB 'SetLocale', 00H		; `string'
CONST	ENDS
;	COMDAT ??_C@_07MMGEHGCI@GetName@
CONST	SEGMENT
??_C@_07MMGEHGCI@GetName@ DB 'GetName', 00H		; `string'
CONST	ENDS
;	COMDAT ??_C@_0P@BCNBBHFI@OpenWebBrowser@
CONST	SEGMENT
??_C@_0P@BCNBBHFI@OpenWebBrowser@ DB 'OpenWebBrowser', 00H ; `string'
CONST	ENDS
;	COMDAT ??_C@_0N@BFFIJKHB@ShellExecute@
CONST	SEGMENT
??_C@_0N@BFFIJKHB@ShellExecute@ DB 'ShellExecute', 00H	; `string'
CONST	ENDS
;	COMDAT ??_C@_0M@JMIFNMOK@OnLogoClose@
CONST	SEGMENT
??_C@_0M@JMIFNMOK@OnLogoClose@ DB 'OnLogoClose', 00H	; `string'
CONST	ENDS
;	COMDAT ??_C@_0L@JMMGDKPP@OnLogoOpen@
CONST	SEGMENT
??_C@_0L@JMMGDKPP@OnLogoOpen@ DB 'OnLogoOpen', 00H	; `string'
CONST	ENDS
;	COMDAT ??_C@_0N@ELECBFOK@OnLogoRender@
CONST	SEGMENT
??_C@_0N@ELECBFOK@OnLogoRender@ DB 'OnLogoRender', 00H	; `string'
CONST	ENDS
;	COMDAT ??_C@_0N@LIPHBNAO@OnLogoUpdate@
CONST	SEGMENT
??_C@_0N@LIPHBNAO@OnLogoUpdate@ DB 'OnLogoUpdate', 00H	; `string'
CONST	ENDS
;	COMDAT ??_C@_0BB@DLDOCGLL@SetGuildMarkPath@
CONST	SEGMENT
??_C@_0BB@DLDOCGLL@SetGuildMarkPath@ DB 'SetGuildMarkPath', 00H ; `string'
CONST	ENDS
;	COMDAT ??_C@_0BH@GBDECBIH@IsEnableTestServerFlag@
CONST	SEGMENT
??_C@_0BH@GBDECBIH@IsEnableTestServerFlag@ DB 'IsEnableTestServerFlag', 00H ; `string'
CONST	ENDS
;	COMDAT ??_C@_0BF@BOMOCGIP@EnableTestServerFlag@
CONST	SEGMENT
??_C@_0BF@BOMOCGIP@EnableTestServerFlag@ DB 'EnableTestServerFlag', 00H ; `string'
CONST	ENDS
;	COMDAT ??_C@_0BA@NLDNPIOL@IsVisibleNotice@
CONST	SEGMENT
??_C@_0BA@NLDNPIOL@IsVisibleNotice@ DB 'IsVisibleNotice', 00H ; `string'
CONST	ENDS
;	COMDAT ??_C@_0BB@MMPIECKB@SetVisibleNotice@
CONST	SEGMENT
??_C@_0BB@MMPIECKB@SetVisibleNotice@ DB 'SetVisibleNotice', 00H ; `string'
CONST	ENDS
;	COMDAT ??_C@_0BF@KHKICLKO@testSetSpecularColor@
CONST	SEGMENT
??_C@_0BF@KHKICLKO@testSetSpecularColor@ DB 'testSetSpecularColor', 00H ; `string'
CONST	ENDS
;	COMDAT ??_C@_0BK@PLDHJGMN@testResetAccumulationTime@
CONST	SEGMENT
??_C@_0BK@PLDHJGMN@testResetAccumulationTime@ DB 'testResetAccumulationTi'
	DB	'me', 00H					; `string'
CONST	ENDS
;	COMDAT ??_C@_0BI@DNKBNLNC@testGetAccumulationTime@
CONST	SEGMENT
??_C@_0BI@DNKBNLNC@testGetAccumulationTime@ DB 'testGetAccumulationTime', 00H ; `string'
CONST	ENDS
;	COMDAT ??_C@_0BB@IFMAFIHG@SetSpecularSpeed@
CONST	SEGMENT
??_C@_0BB@IFMAFIHG@SetSpecularSpeed@ DB 'SetSpecularSpeed', 00H ; `string'
CONST	ENDS
;	COMDAT ??_C@_0N@HDAEMEAH@SetControlFP@
CONST	SEGMENT
??_C@_0N@HDAEMEAH@SetControlFP@ DB 'SetControlFP', 00H	; `string'
CONST	ENDS
;	COMDAT ??_C@_0BD@CEMKCGHA@GetDefaultCodePage@
CONST	SEGMENT
??_C@_0BD@CEMKCGHA@GetDefaultCodePage@ DB 'GetDefaultCodePage', 00H ; `string'
CONST	ENDS
;	COMDAT ??_C@_0P@BFJDMEJO@LoadLocaleData@
CONST	SEGMENT
??_C@_0P@BFJDMEJO@LoadLocaleData@ DB 'LoadLocaleData', 00H ; `string'
CONST	ENDS
;	COMDAT ??_C@_0P@JHGEFJDO@LoadLocaleAddr@
CONST	SEGMENT
??_C@_0P@JHGEFJDO@LoadLocaleAddr@ DB 'LoadLocaleAddr', 00H ; `string'
CONST	ENDS
;	COMDAT ??_C@_0O@OKMLAHKI@GetLocalePath@
CONST	SEGMENT
??_C@_0O@OKMLAHKI@GetLocalePath@ DB 'GetLocalePath', 00H ; `string'
CONST	ENDS
;	COMDAT ??_C@_0O@JDECMIPJ@GetLocaleName@
CONST	SEGMENT
??_C@_0O@JDECMIPJ@GetLocaleName@ DB 'GetLocaleName', 00H ; `string'
CONST	ENDS
;	COMDAT ??_C@_0BA@HHNFKANE@GetTextFileLine@
CONST	SEGMENT
??_C@_0BA@HHNFKANE@GetTextFileLine@ DB 'GetTextFileLine', 00H ; `string'
CONST	ENDS
;	COMDAT ??_C@_0BF@BNHHEKFO@GetTextFileLineCount@
CONST	SEGMENT
??_C@_0BF@BNHHEKFO@GetTextFileLineCount@ DB 'GetTextFileLineCount', 00H ; `string'
CONST	ENDS
;	COMDAT ??_C@_0O@LNEGOIPA@CloseTextFile@
CONST	SEGMENT
??_C@_0O@LNEGOIPA@CloseTextFile@ DB 'CloseTextFile', 00H ; `string'
CONST	ENDS
;	COMDAT ??_C@_0N@JAMKKFFG@OpenTextFile@
CONST	SEGMENT
??_C@_0N@JAMKKFFG@OpenTextFile@ DB 'OpenTextFile', 00H	; `string'
CONST	ENDS
;	COMDAT ??_C@_0M@LOHDPEAO@IsFileExist@
CONST	SEGMENT
??_C@_0M@LOHDPEAO@IsFileExist@ DB 'IsFileExist', 00H	; `string'
CONST	ENDS
;	COMDAT ??_C@_0O@MFMELJAK@SetSightRange@
CONST	SEGMENT
??_C@_0O@MFMELJAK@SetSightRange@ DB 'SetSightRange', 00H ; `string'
CONST	ENDS
;	COMDAT ??_C@_0BB@JANPDNEC@SetCameraSetting@
CONST	SEGMENT
??_C@_0BB@JANPDNEC@SetCameraSetting@ DB 'SetCameraSetting', 00H ; `string'
CONST	ENDS
;	COMDAT ??_C@_0BB@IPPGJFKO@SetDefaultCamera@
CONST	SEGMENT
??_C@_0BB@IPPGJFKO@SetDefaultCamera@ DB 'SetDefaultCamera', 00H ; `string'
CONST	ENDS
;	COMDAT ??_C@_0BC@KEOGBKMG@LoadCameraSetting@
CONST	SEGMENT
??_C@_0BC@KEOGBKMG@LoadCameraSetting@ DB 'LoadCameraSetting', 00H ; `string'
CONST	ENDS
;	COMDAT ??_C@_0BC@JPDLAHCD@SaveCameraSetting@
CONST	SEGMENT
??_C@_0BC@JPDLAHCD@SaveCameraSetting@ DB 'SaveCameraSetting', 00H ; `string'
CONST	ENDS
;	COMDAT ??_C@_0P@NCLIAJKF@SetCameraSpeed@
CONST	SEGMENT
??_C@_0P@NCLIAJKF@SetCameraSpeed@ DB 'SetCameraSpeed', 00H ; `string'
CONST	ENDS
;	COMDAT ??_C@_0BI@LNMJCGJN@EnableSpecialCameraMode@
CONST	SEGMENT
??_C@_0BI@LNMJCGJN@EnableSpecialCameraMode@ DB 'EnableSpecialCameraMode', 00H ; `string'
CONST	ENDS
;	COMDAT ??_C@_0BD@CENDFAOC@SetGuildSymbolPath@
CONST	SEGMENT
??_C@_0BD@CENDFAOC@SetGuildSymbolPath@ DB 'SetGuildSymbolPath', 00H ; `string'
CONST	ENDS
;	COMDAT ??_C@_0BD@CKMKHHJC@SetDefaultFontName@
CONST	SEGMENT
??_C@_0BD@CKMKHHJC@SetDefaultFontName@ DB 'SetDefaultFontName', 00H ; `string'
CONST	ENDS
;	COMDAT ??_C@_05PFDOMJEF@Sleep@
CONST	SEGMENT
??_C@_05PFDOMJEF@Sleep@ DB 'Sleep', 00H			; `string'
CONST	ENDS
;	COMDAT ??_C@_0BE@JKNPCCAK@GetDegreeDifference@
CONST	SEGMENT
??_C@_0BE@JKNPCCAK@GetDegreeDifference@ DB 'GetDegreeDifference', 00H ; `string'
CONST	ENDS
;	COMDAT ??_C@_0BF@IMHAMDDH@GetRotatingDirection@
CONST	SEGMENT
??_C@_0BF@IMHAMDDH@GetRotatingDirection@ DB 'GetRotatingDirection', 00H ; `string'
CONST	ENDS
;	COMDAT ??_C@_0P@GHKKFFNH@GetConnectData@
CONST	SEGMENT
??_C@_0P@GHKKFFNH@GetConnectData@ DB 'GetConnectData', 00H ; `string'
CONST	ENDS
;	COMDAT ??_C@_0P@KJLEKPPL@SetConnectData@
CONST	SEGMENT
??_C@_0P@KJLEKPPL@SetConnectData@ DB 'SetConnectData', 00H ; `string'
CONST	ENDS
;	COMDAT ??_C@_0BC@KKHIHHDJ@SetHardwareCursor@
CONST	SEGMENT
??_C@_0BC@KKHIHHDJ@SetHardwareCursor@ DB 'SetHardwareCursor', 00H ; `string'
CONST	ENDS
;	COMDAT ??_C@_0BC@IDNDDKLI@SetSoftwareCursor@
CONST	SEGMENT
??_C@_0BC@IDNDDKLI@SetSoftwareCursor@ DB 'SetSoftwareCursor', 00H ; `string'
CONST	ENDS
;	COMDAT ??_C@_0P@FMIDHOAE@IsLiarCursorOn@
CONST	SEGMENT
??_C@_0P@FMIDHOAE@IsLiarCursorOn@ DB 'IsLiarCursorOn', 00H ; `string'
CONST	ENDS
;	COMDAT ??_C@_0N@BFHCIAEF@IsShowCursor@
CONST	SEGMENT
??_C@_0N@BFHCIAEF@IsShowCursor@ DB 'IsShowCursor', 00H	; `string'
CONST	ENDS
;	COMDAT ??_C@_0L@MGJDDPFG@HideCursor@
CONST	SEGMENT
??_C@_0L@MGJDDPFG@HideCursor@ DB 'HideCursor', 00H	; `string'
CONST	ENDS
;	COMDAT ??_C@_0L@BIENLPGM@ShowCursor@
CONST	SEGMENT
??_C@_0L@BIENLPGM@ShowCursor@ DB 'ShowCursor', 00H	; `string'
CONST	ENDS
;	COMDAT ??_C@_09NEOLAIPD@GetCursor@
CONST	SEGMENT
??_C@_09NEOLAIPD@GetCursor@ DB 'GetCursor', 00H		; `string'
CONST	ENDS
;	COMDAT ??_C@_09PKKOCJGB@SetCursor@
CONST	SEGMENT
??_C@_09PKKOCJGB@SetCursor@ DB 'SetCursor', 00H		; `string'
CONST	ENDS
;	COMDAT ??_C@_09EJGJNKNL@IsPressed@
CONST	SEGMENT
??_C@_09EJGJNKNL@IsPressed@ DB 'IsPressed', 00H		; `string'
CONST	ENDS
;	COMDAT ??_C@_0M@HKOOBKOE@HideWebPage@
CONST	SEGMENT
??_C@_0M@HKOOBKOE@HideWebPage@ DB 'HideWebPage', 00H	; `string'
CONST	ENDS
;	COMDAT ??_C@_0M@CJKDPGGC@MoveWebPage@
CONST	SEGMENT
??_C@_0M@CJKDPGGC@MoveWebPage@ DB 'MoveWebPage', 00H	; `string'
CONST	ENDS
;	COMDAT ??_C@_0M@LMDMBNNG@ShowWebPage@
CONST	SEGMENT
??_C@_0M@LMDMBNNG@ShowWebPage@ DB 'ShowWebPage', 00H	; `string'
CONST	ENDS
;	COMDAT ??_C@_0O@JGKOEJBF@IsWebPageMode@
CONST	SEGMENT
??_C@_0O@JGKOEJBF@IsWebPageMode@ DB 'IsWebPageMode', 00H ; `string'
CONST	ENDS
;	COMDAT ??_C@_0O@NFOAEJMI@RunPythonFile@
CONST	SEGMENT
??_C@_0O@NFOAEJMI@RunPythonFile@ DB 'RunPythonFile', 00H ; `string'
CONST	ENDS
;	COMDAT ??_C@_09CIIBMEDP@GetRandom@
CONST	SEGMENT
??_C@_09CIIBMEDP@GetRandom@ DB 'GetRandom', 00H		; `string'
CONST	ENDS
;	COMDAT ??_C@_0BC@DJJGDMOB@GetCursorPosition@
CONST	SEGMENT
??_C@_0BC@DJJGDMOB@GetCursorPosition@ DB 'GetCursorPosition', 00H ; `string'
CONST	ENDS
;	COMDAT ??_C@_0BC@MCKFCFLJ@SetCenterPosition@
CONST	SEGMENT
??_C@_0BC@MCKFCFLJ@SetCenterPosition@ DB 'SetCenterPosition', 00H ; `string'
CONST	ENDS
;	COMDAT ??_C@_0BI@BPPNOEKE@SetGlobalCenterPosition@
CONST	SEGMENT
??_C@_0BI@BPPNOEKE@SetGlobalCenterPosition@ DB 'SetGlobalCenterPosition', 00H ; `string'
CONST	ENDS
;	COMDAT ??_C@_06GHJACMIL@SetFPS@
CONST	SEGMENT
??_C@_06GHJACMIL@SetFPS@ DB 'SetFPS', 00H		; `string'
CONST	ENDS
;	COMDAT ??_C@_0N@FGHMKANF@GetFaceCount@
CONST	SEGMENT
??_C@_0N@FGHMKANF@GetFaceCount@ DB 'GetFaceCount', 00H	; `string'
CONST	ENDS
;	COMDAT ??_C@_0N@KBJEAIDC@GetFaceSpeed@
CONST	SEGMENT
??_C@_0N@KBJEAIDC@GetFaceSpeed@ DB 'GetFaceSpeed', 00H	; `string'
CONST	ENDS
;	COMDAT ??_C@_07EGHKJKFO@GetLoad@
CONST	SEGMENT
??_C@_07EGHKJKFO@GetLoad@ DB 'GetLoad', 00H		; `string'
CONST	ENDS
;	COMDAT ??_C@_0O@EPOIPAHO@GetUpdateTime@
CONST	SEGMENT
??_C@_0O@EPOIPAHO@GetUpdateTime@ DB 'GetUpdateTime', 00H ; `string'
CONST	ENDS
;	COMDAT ??_C@_0O@KFOAIOPC@GetRenderTime@
CONST	SEGMENT
??_C@_0O@KFOAIOPC@GetRenderTime@ DB 'GetRenderTime', 00H ; `string'
CONST	ENDS
;	COMDAT ??_C@_0BK@PBNANFFG@GetAvailableTextureMemory@
CONST	SEGMENT
??_C@_0BK@PBNANFFG@GetAvailableTextureMemory@ DB 'GetAvailableTextureMemo'
	DB	'ry', 00H					; `string'
CONST	ENDS
;	COMDAT ??_C@_0BB@PJGDEPJO@MovieResetCamera@
CONST	SEGMENT
??_C@_0BB@PJGDEPJO@MovieResetCamera@ DB 'MovieResetCamera', 00H ; `string'
CONST	ENDS
;	COMDAT ??_C@_0BA@ILLHHFGG@MovieZoomCamera@
CONST	SEGMENT
??_C@_0BA@ILLHHFGG@MovieZoomCamera@ DB 'MovieZoomCamera', 00H ; `string'
CONST	ENDS
;	COMDAT ??_C@_0BB@KFJAAFFB@MoviePitchCamera@
CONST	SEGMENT
??_C@_0BB@KFJAAFFB@MoviePitchCamera@ DB 'MoviePitchCamera', 00H ; `string'
CONST	ENDS
;	COMDAT ??_C@_0BC@FCGIGAKD@MovieRotateCamera@
CONST	SEGMENT
??_C@_0BC@FCGIGAKD@MovieRotateCamera@ DB 'MovieRotateCamera', 00H ; `string'
CONST	ENDS
;	COMDAT ??_C@_0L@BGDDIOFP@ZoomCamera@
CONST	SEGMENT
??_C@_0L@BGDDIOFP@ZoomCamera@ DB 'ZoomCamera', 00H	; `string'
CONST	ENDS
;	COMDAT ??_C@_0M@PKAIAJKC@PitchCamera@
CONST	SEGMENT
??_C@_0M@PKAIAJKC@PitchCamera@ DB 'PitchCamera', 00H	; `string'
CONST	ENDS
;	COMDAT ??_C@_0N@HGIDFLAJ@RotateCamera@
CONST	SEGMENT
??_C@_0N@HGIDFLAJ@RotateCamera@ DB 'RotateCamera', 00H	; `string'
CONST	ENDS
;	COMDAT ??_C@_0N@EHIMFGIG@GetRenderFPS@
CONST	SEGMENT
??_C@_0N@EHIMFGIG@GetRenderFPS@ DB 'GetRenderFPS', 00H	; `string'
CONST	ENDS
;	COMDAT ??_C@_0N@JKLFODAC@GetUpdateFPS@
CONST	SEGMENT
??_C@_0N@JKLFODAC@GetUpdateFPS@ DB 'GetUpdateFPS', 00H	; `string'
CONST	ENDS
;	COMDAT ??_C@_0BD@HGCMJHC@GetGlobalTimeStamp@
CONST	SEGMENT
??_C@_0BD@HGCMJHC@GetGlobalTimeStamp@ DB 'GetGlobalTimeStamp', 00H ; `string'
CONST	ENDS
;	COMDAT ??_C@_0O@JKNDJHIN@GetGlobalTime@
CONST	SEGMENT
??_C@_0O@JKNDJHIN@GetGlobalTime@ DB 'GetGlobalTime', 00H ; `string'
CONST	ENDS
;	COMDAT ??_C@_07CDIANBOE@GetTime@
CONST	SEGMENT
??_C@_07CDIANBOE@GetTime@ DB 'GetTime', 00H		; `string'
CONST	ENDS
;	COMDAT ??_C@_0BC@JICDJDCH@GetCameraRotation@
CONST	SEGMENT
??_C@_0BC@JICDJDCH@GetCameraRotation@ DB 'GetCameraRotation', 00H ; `string'
CONST	ENDS
;	COMDAT ??_C@_0P@LHFPHHJA@GetCameraPitch@
CONST	SEGMENT
??_C@_0P@LHFPHHJA@GetCameraPitch@ DB 'GetCameraPitch', 00H ; `string'
CONST	ENDS
;	COMDAT ??_C@_09KOHPDBNP@GetCamera@
CONST	SEGMENT
??_C@_09KOHPDBNP@GetCamera@ DB 'GetCamera', 00H		; `string'
CONST	ENDS
;	COMDAT ??_C@_09IADKBAEN@SetCamera@
CONST	SEGMENT
??_C@_09IADKBAEN@SetCamera@ DB 'SetCamera', 00H		; `string'
CONST	ENDS
;	COMDAT ??_C@_0M@KODKGGCI@GetFileList@
CONST	SEGMENT
??_C@_0M@KODKGGCI@GetFileList@ DB 'GetFileList', 00H	; `string'
CONST	ENDS
;	COMDAT ??_C@_0M@DHIFKLBN@IsExistFile@
CONST	SEGMENT
??_C@_0M@DHIFKLBN@IsExistFile@ DB 'IsExistFile', 00H	; `string'
CONST	ENDS
;	COMDAT ??_C@_0BA@PPCHHCMN@SetMouseHandler@
CONST	SEGMENT
??_C@_0BA@PPCHHCMN@SetMouseHandler@ DB 'SetMouseHandler', 00H ; `string'
CONST	ENDS
;	COMDAT ??_C@_05BGKIEECB@Abort@
CONST	SEGMENT
??_C@_05BGKIEECB@Abort@ DB 'Abort', 00H			; `string'
CONST	ENDS
;	COMDAT ??_C@_04LBABLPF@Exit@
CONST	SEGMENT
??_C@_04LBABLPF@Exit@ DB 'Exit', 00H			; `string'
CONST	ENDS
;	COMDAT ??_C@_07MNGBFJEN@Process@
CONST	SEGMENT
??_C@_07MNGBFJEN@Process@ DB 'Process', 00H		; `string'
CONST	ENDS
;	COMDAT ??_C@_06MIKANEJK@Create@
CONST	SEGMENT
??_C@_06MIKANEJK@Create@ DB 'Create', 00H		; `string'
CONST	ENDS
;	COMDAT ??_C@_04KLCPKPBE@Loop@
CONST	SEGMENT
??_C@_04KLCPKPBE@Loop@ DB 'Loop', 00H			; `string'
CONST	ENDS
;	COMDAT ??_C@_0L@ONMMANJD@RenderGame@
CONST	SEGMENT
??_C@_0L@ONMMANJD@RenderGame@ DB 'RenderGame', 00H	; `string'
CONST	ENDS
;	COMDAT ??_C@_0L@HMEHDBP@UpdateGame@
CONST	SEGMENT
??_C@_0L@HMEHDBP@UpdateGame@ DB 'UpdateGame', 00H	; `string'
CONST	ENDS
;	COMDAT ??_C@_07NAJNLNAF@GetInfo@
CONST	SEGMENT
??_C@_07NAJNLNAF@GetInfo@ DB 'GetInfo', 00H		; `string'
CONST	ENDS
;	COMDAT ??_C@_0N@CLLAGICL@GetImageInfo@
CONST	SEGMENT
??_C@_0N@CLLAGICL@GetImageInfo@ DB 'GetImageInfo', 00H	; `string'
CONST	ENDS
;	COMDAT ??_C@_0N@KCIEBLLG@SetFrameSkip@
CONST	SEGMENT
??_C@_0N@KCIEBLLG@SetFrameSkip@ DB 'SetFrameSkip', 00H	; `string'
CONST	ENDS
;	COMDAT ??_C@_09ILNFAENI@SetMinFog@
CONST	SEGMENT
??_C@_09ILNFAENI@SetMinFog@ DB 'SetMinFog', 00H		; `string'
CONST	ENDS
;	COMDAT ??_C@_0BF@CEAHHILA@SetCameraMaxDistance@
CONST	SEGMENT
??_C@_0BF@CEAHHILA@SetCameraMaxDistance@ DB 'SetCameraMaxDistance', 00H ; `string'
CONST	ENDS
;	COMDAT ??_C@_0BD@CPFDKOFJ@SetRideHorseEnable@
CONST	SEGMENT
??_C@_0BD@CPFDKOFJ@SetRideHorseEnable@ DB 'SetRideHorseEnable', 00H ; `string'
CONST	ENDS
;	COMDAT ??_C@_0CI@KEKBEMLJ@SetTwoHandedWeaponAttSpeedDecre@
CONST	SEGMENT
??_C@_0CI@KEKBEMLJ@SetTwoHandedWeaponAttSpeedDecre@ DB 'SetTwoHandedWeapo'
	DB	'nAttSpeedDecreaseValue', 00H		; `string'
CONST	ENDS
;	COMDAT ??_C@_0BM@CMPMDOBN@SetSkillEffectUpgradeEnable@
CONST	SEGMENT
??_C@_0BM@CMPMDOBN@SetSkillEffectUpgradeEnable@ DB 'SetSkillEffectUpgrade'
	DB	'Enable', 00H				; `string'
CONST	ENDS
;	COMDAT ??_C@_0BI@ONHBEMJA@SetWeaponSpecularEnable@
CONST	SEGMENT
??_C@_0BI@ONHBEMJA@SetWeaponSpecularEnable@ DB 'SetWeaponSpecularEnable', 00H ; `string'
CONST	ENDS
;	COMDAT ??_C@_0BH@PJOFIHBE@SetArmorSpecularEnable@
CONST	SEGMENT
??_C@_0BH@PJOFIHBE@SetArmorSpecularEnable@ DB 'SetArmorSpecularEnable', 00H ; `string'
CONST	ENDS
;	COMDAT ??_C@_0BD@PILPKKLH@SetHairColorEnable@
CONST	SEGMENT
??_C@_0BD@PILPKKLH@SetHairColorEnable@ DB 'SetHairColorEnable', 00H ; `string'
CONST	ENDS
;	COMDAT ??_C@_0BG@EOCGHNJF@SetTextTailLivingTime@
CONST	SEGMENT
??_C@_0BG@EOCGHNJF@SetTextTailLivingTime@ DB 'SetTextTailLivingTime', 00H ; `string'
CONST	ENDS
;	COMDAT ??_C@_04PMOCAHAA@open@
CONST	SEGMENT
??_C@_04PMOCAHAA@open@ DB 'open', 00H			; `string'
CONST	ENDS
;	COMDAT ??_C@_04JCAPCJAP@?4tga@
CONST	SEGMENT
??_C@_04JCAPCJAP@?4tga@ DB '.tga', 00H			; `string'
CONST	ENDS
;	COMDAT ??_C@_02OCDGCAAK@si@
CONST	SEGMENT
??_C@_02OCDGCAAK@si@ DB 'si', 00H			; `string'
CONST	ENDS
;	COMDAT ??_C@_0BH@GNAGLJEE@Wrong?5Cursor?5Name?5?$FL?$CFd?$FN@
CONST	SEGMENT
??_C@_0BH@GNAGLJEE@Wrong?5Cursor?5Name?5?$FL?$CFd?$FN@ DB 'Wrong Cursor N'
	DB	'ame [%d]', 00H				; `string'
CONST	ENDS
;	COMDAT ??_C@_02PINLEBJB@fi@
CONST	SEGMENT
??_C@_02PINLEBJB@fi@ DB 'fi', 00H			; `string'
CONST	ENDS
;	COMDAT ??_C@_01INIBCBCB@f@
CONST	SEGMENT
??_C@_01INIBCBCB@f@ DB 'f', 00H				; `string'
CONST	ENDS
;	COMDAT ??_C@_04EOBPFJGD@ffff@
CONST	SEGMENT
??_C@_04EOBPFJGD@ffff@ DB 'ffff', 00H			; `string'
CONST	ENDS
;	COMDAT ??_C@_0DK@CJFAEGAK@Anka2?4com?5?$CD?5Ger?gek?5Rekabet?5Bura@
CONST	SEGMENT
??_C@_0DK@CJFAEGAK@Anka2?4com?5?$CD?5Ger?gek?5Rekabet?5Bura@ DB 'Anka2.co'
	DB	'm # Ger', 0e7H, 'ek Rekabet Burada Ba', 0feH, 'lar! | [Best S'
	DB	'tudio]', 00H				; `string'
CONST	ENDS
;	COMDAT ??_C@_01LKDEMHDF@s@
CONST	SEGMENT
??_C@_01LKDEMHDF@s@ DB 's', 00H				; `string'
CONST	ENDS
;	COMDAT ??_C@_02OIKAIHIF@s?$CD@
CONST	SEGMENT
??_C@_02OIKAIHIF@s?$CD@ DB 's#', 00H			; `string'
?bVisibleNotice@@3HA DD 01H				; bVisibleNotice
PUBLIC	?strstr@@YAPADQADQBD@Z				; strstr
PUBLIC	?Instance@?$CSingleton@VCPythonLauncher@@@@SAAAVCPythonLauncher@@XZ ; CSingleton<CPythonLauncher>::Instance
PUBLIC	?Instance@?$CSingleton@VCEterPackManager@@@@SAAAVCEterPackManager@@XZ ; CSingleton<CEterPackManager>::Instance
PUBLIC	?initapp@@YAXXZ					; initapp
PUBLIC	?appSetMultiFarmExeIcon@@YAPAU_object@@PAU1@0@Z	; appSetMultiFarmExeIcon
PUBLIC	?appFlashApplication@@YAPAU_object@@PAU1@0@Z	; appFlashApplication
PUBLIC	?appGetLocale@@YAPAU_object@@PAU1@0@Z		; appGetLocale
PUBLIC	?appSetLocale@@YAPAU_object@@PAU1@0@Z		; appSetLocale
PUBLIC	?appGetName@@YAPAU_object@@PAU1@0@Z		; appGetName
PUBLIC	?appOpenWebBrowser@@YAPAU_object@@PAU1@0@Z	; appOpenWebBrowser
PUBLIC	?appShellExecute@@YAPAU_object@@PAU1@0@Z	; appShellExecute
PUBLIC	?appLogoClose@@YAPAU_object@@PAU1@0@Z		; appLogoClose
PUBLIC	?appLogoRender@@YAPAU_object@@PAU1@0@Z		; appLogoRender
PUBLIC	?appLogoUpdate@@YAPAU_object@@PAU1@0@Z		; appLogoUpdate
PUBLIC	?appLogoOpen@@YAPAU_object@@PAU1@0@Z		; appLogoOpen
PUBLIC	?appSetGuildMarkPath@@YAPAU_object@@PAU1@0@Z	; appSetGuildMarkPath
PUBLIC	?appGetTextFileLine@@YAPAU_object@@PAU1@0@Z	; appGetTextFileLine
PUBLIC	?appGetTextFileLineCount@@YAPAU_object@@PAU1@0@Z ; appGetTextFileLineCount
PUBLIC	??1CTextLineLoader@@QAE@XZ			; CTextLineLoader::~CTextLineLoader
PUBLIC	??_GCTextLineLoader@@QAEPAXI@Z			; CTextLineLoader::`scalar deleting destructor'
PUBLIC	?appCloseTextFile@@YAPAU_object@@PAU1@0@Z	; appCloseTextFile
PUBLIC	?appOpenTextFile@@YAPAU_object@@PAU1@0@Z	; appOpenTextFile
PUBLIC	?GetLine@CTextLineLoader@@QAEPBDK@Z		; CTextLineLoader::GetLine
PUBLIC	?GetLineCount@CTextLineLoader@@QAEKXZ		; CTextLineLoader::GetLineCount
PUBLIC	??0CTextLineLoader@@QAE@PBD@Z			; CTextLineLoader::CTextLineLoader
PUBLIC	?appIsEnableTestServerFlag@@YAPAU_object@@PAU1@0@Z ; appIsEnableTestServerFlag
PUBLIC	?appEnableTestServerFlag@@YAPAU_object@@PAU1@0@Z ; appEnableTestServerFlag
PUBLIC	?appIsVisibleNotice@@YAPAU_object@@PAU1@0@Z	; appIsVisibleNotice
PUBLIC	?appSetVisibleNotice@@YAPAU_object@@PAU1@0@Z	; appSetVisibleNotice
PUBLIC	?apptestSetSpecularColor@@YAPAU_object@@PAU1@0@Z ; apptestSetSpecularColor
PUBLIC	?apptestResetAccumulationTime@@YAPAU_object@@PAU1@0@Z ; apptestResetAccumulationTime
PUBLIC	?apptestGetAccumulationTime@@YAPAU_object@@PAU1@0@Z ; apptestGetAccumulationTime
PUBLIC	?appSetSightRange@@YAPAU_object@@PAU1@0@Z	; appSetSightRange
PUBLIC	?appSetDefaultCamera@@YAPAU_object@@PAU1@0@Z	; appSetDefaultCamera
PUBLIC	?appLoadCameraSetting@@YAPAU_object@@PAU1@0@Z	; appLoadCameraSetting
PUBLIC	?appSaveCameraSetting@@YAPAU_object@@PAU1@0@Z	; appSaveCameraSetting
PUBLIC	?appSetCameraSetting@@YAPAU_object@@PAU1@0@Z	; appSetCameraSetting
PUBLIC	?appIsFileExist@@YAPAU_object@@PAU1@0@Z		; appIsFileExist
PUBLIC	?appSetCameraSpeed@@YAPAU_object@@PAU1@0@Z	; appSetCameraSpeed
PUBLIC	?appEnableSpecialCameraMode@@YAPAU_object@@PAU1@0@Z ; appEnableSpecialCameraMode
PUBLIC	?appSetGuildSymbolPath@@YAPAU_object@@PAU1@0@Z	; appSetGuildSymbolPath
PUBLIC	?appSetDefaultFontName@@YAPAU_object@@PAU1@0@Z	; appSetDefaultFontName
PUBLIC	?appSleep@@YAPAU_object@@PAU1@0@Z		; appSleep
PUBLIC	?appGetDegreeDifference@@YAPAU_object@@PAU1@0@Z	; appGetDegreeDifference
PUBLIC	?appGetRotatingDirection@@YAPAU_object@@PAU1@0@Z ; appGetRotatingDirection
PUBLIC	?appGetRandom@@YAPAU_object@@PAU1@0@Z		; appGetRandom
PUBLIC	?appGetConnectData@@YAPAU_object@@PAU1@0@Z	; appGetConnectData
PUBLIC	?appSetConnectData@@YAPAU_object@@PAU1@0@Z	; appSetConnectData
PUBLIC	?appSetHardwareCursor@@YAPAU_object@@PAU1@0@Z	; appSetHardwareCursor
PUBLIC	?appSetSoftwareCursor@@YAPAU_object@@PAU1@0@Z	; appSetSoftwareCursor
PUBLIC	?appIsLiarCursorOn@@YAPAU_object@@PAU1@0@Z	; appIsLiarCursorOn
PUBLIC	?appIsShowCursor@@YAPAU_object@@PAU1@0@Z	; appIsShowCursor
PUBLIC	?appHideCursor@@YAPAU_object@@PAU1@0@Z		; appHideCursor
PUBLIC	?appShowCursor@@YAPAU_object@@PAU1@0@Z		; appShowCursor
PUBLIC	?appGetCursor@@YAPAU_object@@PAU1@0@Z		; appGetCursor
PUBLIC	?appSetCursor@@YAPAU_object@@PAU1@0@Z		; appSetCursor
PUBLIC	?appIsPressed@@YAPAU_object@@PAU1@0@Z		; appIsPressed
PUBLIC	?appRunPythonFile@@YAPAU_object@@PAU1@0@Z	; appRunPythonFile
PUBLIC	?appGetCursorPosition@@YAPAU_object@@PAU1@0@Z	; appGetCursorPosition
PUBLIC	?appSetCenterPosition@@YAPAU_object@@PAU1@0@Z	; appSetCenterPosition
PUBLIC	?appSetGlobalCenterPosition@@YAPAU_object@@PAU1@0@Z ; appSetGlobalCenterPosition
PUBLIC	?appSetFPS@@YAPAU_object@@PAU1@0@Z		; appSetFPS
PUBLIC	?appGetAvaiableTextureMememory@@YAPAU_object@@PAU1@0@Z ; appGetAvaiableTextureMememory
PUBLIC	?appGetFaceCount@@YAPAU_object@@PAU1@0@Z	; appGetFaceCount
PUBLIC	?appGetLoad@@YAPAU_object@@PAU1@0@Z		; appGetLoad
PUBLIC	?appGetUpdateTime@@YAPAU_object@@PAU1@0@Z	; appGetUpdateTime
PUBLIC	?appGetRenderTime@@YAPAU_object@@PAU1@0@Z	; appGetRenderTime
PUBLIC	?appGetFaceSpeed@@YAPAU_object@@PAU1@0@Z	; appGetFaceSpeed
PUBLIC	?appMovieResetCamera@@YAPAU_object@@PAU1@0@Z	; appMovieResetCamera
PUBLIC	?appMovieZoomCamera@@YAPAU_object@@PAU1@0@Z	; appMovieZoomCamera
PUBLIC	?appMoviePitchCamera@@YAPAU_object@@PAU1@0@Z	; appMoviePitchCamera
PUBLIC	?appMovieRotateCamera@@YAPAU_object@@PAU1@0@Z	; appMovieRotateCamera
PUBLIC	?appZoomCamera@@YAPAU_object@@PAU1@0@Z		; appZoomCamera
PUBLIC	?appPitchCamera@@YAPAU_object@@PAU1@0@Z		; appPitchCamera
PUBLIC	?appRotateCamera@@YAPAU_object@@PAU1@0@Z	; appRotateCamera
PUBLIC	?appGetRenderFPS@@YAPAU_object@@PAU1@0@Z	; appGetRenderFPS
PUBLIC	?appGetUpdateFPS@@YAPAU_object@@PAU1@0@Z	; appGetUpdateFPS
PUBLIC	?appGetGlobalTimeStamp@@YAPAU_object@@PAU1@0@Z	; appGetGlobalTimeStamp
PUBLIC	?appGetGlobalTime@@YAPAU_object@@PAU1@0@Z	; appGetGlobalTime
PUBLIC	?appGetTime@@YAPAU_object@@PAU1@0@Z		; appGetTime
PUBLIC	?appGetCameraRotation@@YAPAU_object@@PAU1@0@Z	; appGetCameraRotation
PUBLIC	?appGetCameraPitch@@YAPAU_object@@PAU1@0@Z	; appGetCameraPitch
PUBLIC	?appGetCamera@@YAPAU_object@@PAU1@0@Z		; appGetCamera
PUBLIC	?appSetCamera@@YAPAU_object@@PAU1@0@Z		; appSetCamera
PUBLIC	?appExit@@YAPAU_object@@PAU1@0@Z		; appExit
PUBLIC	?appAbort@@YAPAU_object@@PAU1@0@Z		; appAbort
PUBLIC	?appProcess@@YAPAU_object@@PAU1@0@Z		; appProcess
PUBLIC	?appGetInfo@@YAPAU_object@@PAU1@0@Z		; appGetInfo
PUBLIC	?appLoop@@YAPAU_object@@PAU1@0@Z		; appLoop
PUBLIC	?appCreate@@YAPAU_object@@PAU1@0@Z		; appCreate
PUBLIC	?appSetMouseHandler@@YAPAU_object@@PAU1@0@Z	; appSetMouseHandler
PUBLIC	?appRenderGame@@YAPAU_object@@PAU1@0@Z		; appRenderGame
PUBLIC	?appUpdateGame@@YAPAU_object@@PAU1@0@Z		; appUpdateGame
PUBLIC	?appGetFileList@@YAPAU_object@@PAU1@0@Z		; appGetFileList
PUBLIC	?appIsExistFile@@YAPAU_object@@PAU1@0@Z		; appIsExistFile
PUBLIC	?appGetImageInfo@@YAPAU_object@@PAU1@0@Z	; appGetImageInfo
PUBLIC	?appGetDefaultCodePage@@YAPAU_object@@PAU1@0@Z	; appGetDefaultCodePage
PUBLIC	?appGetLocalePath@@YAPAU_object@@PAU1@0@Z	; appGetLocalePath
PUBLIC	?appLoadLocaleData@@YAPAU_object@@PAU1@0@Z	; appLoadLocaleData
PUBLIC	?appGetLocaleName@@YAPAU_object@@PAU1@0@Z	; appGetLocaleName
PUBLIC	?appLoadLocaleAddr@@YAPAU_object@@PAU1@0@Z	; appLoadLocaleAddr
PUBLIC	?appSetFrameSkip@@YAPAU_object@@PAU1@0@Z	; appSetFrameSkip
PUBLIC	?appSetMinFog@@YAPAU_object@@PAU1@0@Z		; appSetMinFog
PUBLIC	?appSetSpecularSpeed@@YAPAU_object@@PAU1@0@Z	; appSetSpecularSpeed
PUBLIC	?appSetControlFP@@YAPAU_object@@PAU1@0@Z	; appSetControlFP
PUBLIC	?appSetCameraMaxDistance@@YAPAU_object@@PAU1@0@Z ; appSetCameraMaxDistance
PUBLIC	?appSetRideHorseEnable@@YAPAU_object@@PAU1@0@Z	; appSetRideHorseEnable
PUBLIC	?SetTwoHandedWeaponAttSpeedDecreaseValue@@YAPAU_object@@PAU1@0@Z ; SetTwoHandedWeaponAttSpeedDecreaseValue
PUBLIC	?appSetSkillEffectUpgradeEnable@@YAPAU_object@@PAU1@0@Z ; appSetSkillEffectUpgradeEnable
PUBLIC	?appSetWeaponSpecularEnable@@YAPAU_object@@PAU1@0@Z ; appSetWeaponSpecularEnable
PUBLIC	?appSetArmorSpecularEnable@@YAPAU_object@@PAU1@0@Z ; appSetArmorSpecularEnable
PUBLIC	?appSetHairColorEnable@@YAPAU_object@@PAU1@0@Z	; appSetHairColorEnable
PUBLIC	?appSetTextTailLivingTime@@YAPAU_object@@PAU1@0@Z ; appSetTextTailLivingTime
PUBLIC	?appIsWebPageMode@@YAPAU_object@@PAU1@0@Z	; appIsWebPageMode
PUBLIC	?appHideWebPage@@YAPAU_object@@PAU1@0@Z		; appHideWebPage
PUBLIC	?appMoveWebPage@@YAPAU_object@@PAU1@0@Z		; appMoveWebPage
PUBLIC	?appShowWebPage@@YAPAU_object@@PAU1@0@Z		; appShowWebPage
PUBLIC	?GetFaceCount@CPythonApplication@@QAEKXZ	; CPythonApplication::GetFaceCount
PUBLIC	?GetLoad@CPythonApplication@@QAEKXZ		; CPythonApplication::GetLoad
PUBLIC	?GetRenderFPS@CPythonApplication@@QAEKXZ	; CPythonApplication::GetRenderFPS
PUBLIC	?GetUpdateFPS@CPythonApplication@@QAEKXZ	; CPythonApplication::GetUpdateFPS
PUBLIC	?GetCurUpdateTime@CPythonApplication@@QAEKXZ	; CPythonApplication::GetCurUpdateTime
PUBLIC	?GetCurRenderTime@CPythonApplication@@QAEKXZ	; CPythonApplication::GetCurRenderTime
PUBLIC	?GetAveRenderTime@CPythonApplication@@QAEMXZ	; CPythonApplication::GetAveRenderTime
PUBLIC	?GetFaceSpeed@CPythonApplication@@QAEMXZ	; CPythonApplication::GetFaceSpeed
PUBLIC	?GetCursorNum@CPythonApplication@@QAEHXZ	; CPythonApplication::GetCursorNum
?vecDropSoundFileName@@3V?$array@U?$pair@KV?$basic_string@DU?$char_traits@D@std@@V?$allocator@D@2@@std@@@std@@$04@std@@B DB 08cH DUP (?) ; vecDropSoundFileName
?vecEffectList@@3V?$vector@V?$tuple@IPBDPBD_N@std@@V?$allocator@V?$tuple@IPBDPBD_N@std@@@2@@std@@B DB 0cH DUP (?) ; vecEffectList
?characterNameColors@@3V?$map@EV?$array@E$02@std@@U?$less@E@2@V?$allocator@U?$pair@$$CBEV?$array@E$02@std@@@std@@@2@@std@@B DQ 01H DUP (?) ; characterNameColors
?characterTitleColors@@3V?$map@EV?$array@E$02@std@@U?$less@E@2@V?$allocator@U?$pair@$$CBEV?$array@E$02@std@@@std@@@2@@std@@B DQ 01H DUP (?) ; characterTitleColors
?characterTitleSystemColors@@3V?$map@EV?$array@E$02@std@@U?$less@E@2@V?$allocator@U?$pair@$$CBEV?$array@E$02@std@@@std@@@2@@std@@B DQ 01H DUP (?) ; characterTitleSystemColors
?emotionIcons@@3V?$map@EPBDU?$less@E@std@@V?$allocator@U?$pair@$$CBEPBD@std@@@2@@std@@B DQ 01H DUP (?) ; emotionIcons
?skillIndexes@@3V?$map@EV?$map@EV?$vector@EV?$allocator@E@std@@@std@@U?$less@E@2@V?$allocator@U?$pair@$$CBEV?$vector@EV?$allocator@E@std@@@std@@@std@@@2@@std@@U?$less@E@2@V?$allocator@U?$pair@$$CBEV?$map@EV?$vector@EV?$allocator@E@std@@@std@@U?$less@E@2@V?$allocator@U?$pair@$$CBEV?$vector@EV?$allocator@E@std@@@std@@@std@@@2@@std@@@std@@@2@@std@@B DQ 01H DUP (?) ; skillIndexes
?guildSkills@@3V?$map@V?$basic_string@DU?$char_traits@D@std@@V?$allocator@D@2@@std@@V?$vector@EV?$allocator@E@std@@@2@U?$less@V?$basic_string@DU?$char_traits@D@std@@V?$allocator@D@2@@std@@@2@V?$allocator@U?$pair@$$CBV?$basic_string@DU?$char_traits@D@std@@V?$allocator@D@2@@std@@V?$vector@EV?$allocator@E@std@@@2@@std@@@2@@std@@B DQ 01H DUP (?) ; guildSkills
_BSS	ENDS
;	COMDAT xdata$x
xdata$x	SEGMENT
__ehfuncinfo$??__EvecUseSoundFileName@@YAXXZ DQ 00000000619930522r ; 1.2944e-313
	DD	FLAT:__unwindtable$??__EvecUseSoundFileName@@YAXXZ
	DQ	00000000000000000r		; 0
	DQ	00000000000000000r		; 0
	DQ	00000000100000000r		; 2.122e-314
__unwindtable$??__EvecUseSoundFileName@@YAXXZ DD 0ffffffffH
	DD	FLAT:__unwindfunclet$??__EvecUseSoundFileName@@YAXXZ$0
	DD	00H
	DD	FLAT:__unwindfunclet$??__EvecUseSoundFileName@@YAXXZ$1
	DD	01H
	DD	FLAT:__unwindfunclet$??__EvecUseSoundFileName@@YAXXZ$2
	DD	02H
	DD	FLAT:__unwindfunclet$??__EvecUseSoundFileName@@YAXXZ$3
	DD	03H
	DD	FLAT:__unwindfunclet$??__EvecUseSoundFileName@@YAXXZ$4
	DD	04H
	DD	FLAT:__unwindfunclet$??__EvecUseSoundFileName@@YAXXZ$5
xdata$x	ENDS
;	COMDAT xdata$x
xdata$x	SEGMENT
__ehfuncinfo$??__FvecUseSoundFileName@@YAXXZ DQ 00000000119930522r ; 2.33398e-314
	DD	FLAT:__unwindtable$??__FvecUseSoundFileName@@YAXXZ
	DQ	00000000000000000r		; 0
	DQ	00000000000000000r		; 0
	DQ	00000000100000000r		; 2.122e-314
__unwindtable$??__FvecUseSoundFileName@@YAXXZ DD 0ffffffffH
	DD	FLAT:___std_terminate
xdata$x	ENDS
;	COMDAT xdata$x
xdata$x	SEGMENT
__ehfuncinfo$??__EvecDropSoundFileName@@YAXXZ DQ 00000000419930522r ; 8.69997e-314
	DD	FLAT:__unwindtable$??__EvecDropSoundFileName@@YAXXZ
	DQ	00000000000000000r		; 0
	DQ	00000000000000000r		; 0
	DQ	00000000100000000r		; 2.122e-314
__unwindtable$??__EvecDropSoundFileName@@YAXXZ DD 0ffffffffH
	DD	FLAT:__unwindfunclet$??__EvecDropSoundFileName@@YAXXZ$0
	DD	00H
	DD	FLAT:__unwindfunclet$??__EvecDropSoundFileName@@YAXXZ$1
	DD	01H
	DD	FLAT:__unwindfunclet$??__EvecDropSoundFileName@@YAXXZ$2
	DD	02H
	DD	FLAT:__unwindfunclet$??__EvecDropSoundFileName@@YAXXZ$3
xdata$x	ENDS
;	COMDAT xdata$x
xdata$x	SEGMENT
__ehfuncinfo$??__FvecDropSoundFileName@@YAXXZ DQ 00000000119930522r ; 2.33398e-314
	DD	FLAT:__unwindtable$??__FvecDropSoundFileName@@YAXXZ
	DQ	00000000000000000r		; 0
	DQ	00000000000000000r		; 0
	DQ	00000000100000000r		; 2.122e-314
__unwindtable$??__FvecDropSoundFileName@@YAXXZ DD 0ffffffffH
	DD	FLAT:___std_terminate
xdata$x	ENDS
;	COMDAT xdata$x
xdata$x	SEGMENT
__ehfuncinfo$??__EskillIndexes@@YAXXZ DQ 00000002819930522r ; 8.50918e-313
	DD	FLAT:__unwindtable$??__EskillIndexes@@YAXXZ
	DQ	00000000000000000r		; 0
	DQ	00000000000000000r		; 0
	DQ	00000000100000000r		; 2.122e-314
	ORG $+4
__unwindtable$??__EskillIndexes@@YAXXZ DD 0ffffffffH
	DD	FLAT:__unwindfunclet$??__EskillIndexes@@YAXXZ$0
	DD	00H
	DD	FLAT:__unwindfunclet$??__EskillIndexes@@YAXXZ$1
	DD	01H
	DD	FLAT:__unwindfunclet$??__EskillIndexes@@YAXXZ$2
	DD	00H
	DD	FLAT:__unwindfunclet$??__EskillIndexes@@YAXXZ$2
	DD	03H
	DD	FLAT:__unwindfunclet$??__EskillIndexes@@YAXXZ$4
	DD	04H
	DD	FLAT:__unwindfunclet$??__EskillIndexes@@YAXXZ$5
	DD	05H
	DD	FLAT:__unwindfunclet$??__EskillIndexes@@YAXXZ$6
	DD	06H
	DD	FLAT:__unwindfunclet$??__EskillIndexes@@YAXXZ$7
	DD	07H
	DD	FLAT:__unwindfunclet$??__EskillIndexes@@YAXXZ$8
	DD	08H
	DD	FLAT:__unwindfunclet$??__EskillIndexes@@YAXXZ$9
	DD	07H
	DD	FLAT:__unwindfunclet$??__EskillIndexes@@YAXXZ$9
	DD	0aH
	DD	FLAT:__unwindfunclet$??__EskillIndexes@@YAXXZ$11
	DD	0bH
	DD	FLAT:__unwindfunclet$??__EskillIndexes@@YAXXZ$12
	DD	0cH
	DD	FLAT:__unwindfunclet$??__EskillIndexes@@YAXXZ$13
	DD	0dH
	DD	FLAT:__unwindfunclet$??__EskillIndexes@@YAXXZ$14
	DD	0eH
	DD	FLAT:__unwindfunclet$??__EskillIndexes@@YAXXZ$15
	DD	0fH
	DD	FLAT:__unwindfunclet$??__EskillIndexes@@YAXXZ$16
	DD	0eH
	DD	FLAT:__unwindfunclet$??__EskillIndexes@@YAXXZ$16
	DD	011H
	DD	FLAT:__unwindfunclet$??__EskillIndexes@@YAXXZ$18
	DD	012H
	DD	FLAT:__unwindfunclet$??__EskillIndexes@@YAXXZ$19
	DD	013H
	DD	FLAT:__unwindfunclet$??__EskillIndexes@@YAXXZ$20
	DD	014H
	DD	FLAT:__unwindfunclet$??__EskillIndexes@@YAXXZ$21
	DD	015H
	DD	FLAT:__unwindfunclet$??__EskillIndexes@@YAXXZ$22
	DD	016H
	DD	FLAT:__unwindfunclet$??__EskillIndexes@@YAXXZ$23
	DD	015H
	DD	FLAT:__unwindfunclet$??__EskillIndexes@@YAXXZ$23
	DD	018H
	DD	FLAT:__unwindfunclet$??__EskillIndexes@@YAXXZ$25
	DD	019H
	DD	FLAT:__unwindfunclet$??__EskillIndexes@@YAXXZ$26
	DD	05H
	DD	FLAT:__unwindfunclet$??__EskillIndexes@@YAXXZ$7
	DD	01bH
	DD	FLAT:__unwindfunclet$??__EskillIndexes@@YAXXZ$9
	DD	01cH
	DD	FLAT:__unwindfunclet$??__EskillIndexes@@YAXXZ$11
	DD	01dH
	DD	FLAT:__unwindfunclet$??__EskillIndexes@@YAXXZ$12
	DD	01eH
	DD	FLAT:__unwindfunclet$??__EskillIndexes@@YAXXZ$14
	DD	01fH
	DD	FLAT:__unwindfunclet$??__EskillIndexes@@YAXXZ$16
	DD	020H
	DD	FLAT:__unwindfunclet$??__EskillIndexes@@YAXXZ$18
	DD	021H
	DD	FLAT:__unwindfunclet$??__EskillIndexes@@YAXXZ$19
	DD	022H
	DD	FLAT:__unwindfunclet$??__EskillIndexes@@YAXXZ$21
	DD	023H
	DD	FLAT:__unwindfunclet$??__EskillIndexes@@YAXXZ$23
	DD	024H
	DD	FLAT:__unwindfunclet$??__EskillIndexes@@YAXXZ$25
	DD	025H
	DD	FLAT:__unwindfunclet$??__EskillIndexes@@YAXXZ$26
	DD	026H
	DD	FLAT:__unwindfunclet$??__EskillIndexes@@YAXXZ$28
xdata$x	ENDS
;	COMDAT xdata$x
xdata$x	SEGMENT
__ehfuncinfo$??__EguildSkills@@YAXXZ DQ 00000000a19930522r ; 2.14319e-313
	DD	FLAT:__unwindtable$??__EguildSkills@@YAXXZ
	DQ	00000000000000000r		; 0
	DQ	00000000000000000r		; 0
	DQ	00000000100000000r		; 2.122e-314
	ORG $+4
__unwindtable$??__EguildSkills@@YAXXZ DD 0ffffffffH
	DD	FLAT:__unwindfunclet$??__EguildSkills@@YAXXZ$0
	DD	00H
	DD	FLAT:__unwindfunclet$??__EguildSkills@@YAXXZ$1
	DD	01H
	DD	FLAT:__unwindfunclet$??__EguildSkills@@YAXXZ$10
	DD	01H
	DD	FLAT:__unwindfunclet$??__EguildSkills@@YAXXZ$2
	DD	03H
	DD	FLAT:__unwindfunclet$??__EguildSkills@@YAXXZ$3
	DD	04H
	DD	FLAT:__unwindfunclet$??__EguildSkills@@YAXXZ$4
	DD	05H
	DD	FLAT:__unwindfunclet$??__EguildSkills@@YAXXZ$16
	DD	01H
	DD	FLAT:__unwindfunclet$??__EguildSkills@@YAXXZ$3
	DD	07H
	DD	FLAT:__unwindfunclet$??__EguildSkills@@YAXXZ$4
	DD	08H
	DD	FLAT:__unwindfunclet$??__EguildSkills@@YAXXZ$6
xdata$x	ENDS
;	COMDAT xdata$x
xdata$x	SEGMENT
__ehfuncinfo$?appGetInfo@@YAPAU_object@@PAU1@0@Z DD 019930522H
	DD	01H
	DD	FLAT:__unwindtable$?appGetInfo@@YAPAU_object@@PAU1@0@Z
	DD	2 DUP(00H)
	DD	2 DUP(00H)
	DD	00H
	DD	01H
__unwindtable$?appGetInfo@@YAPAU_object@@PAU1@0@Z DD 0ffffffffH
	DD	FLAT:__unwindfunclet$?appGetInfo@@YAPAU_object@@PAU1@0@Z$0
xdata$x	ENDS
;	COMDAT xdata$x
xdata$x	SEGMENT
__ehfuncinfo$?appGetConnectData@@YAPAU_object@@PAU1@0@Z DD 019930522H
	DD	01H
	DD	FLAT:__unwindtable$?appGetConnectData@@YAPAU_object@@PAU1@0@Z
	DD	2 DUP(00H)
	DD	2 DUP(00H)
	DD	00H
	DD	01H
__unwindtable$?appGetConnectData@@YAPAU_object@@PAU1@0@Z DD 0ffffffffH
	DD	FLAT:__unwindfunclet$?appGetConnectData@@YAPAU_object@@PAU1@0@Z$0
xdata$x	ENDS
;	COMDAT xdata$x
xdata$x	SEGMENT
__ehfuncinfo$??0CTextLineLoader@@QAE@PBD@Z DQ 00000000219930522r ; 4.45598e-314
	DD	FLAT:__unwindtable$??0CTextLineLoader@@QAE@PBD@Z
	DQ	00000000000000000r		; 0
	DQ	00000000000000000r		; 0
	DQ	00000000100000000r		; 2.122e-314
__unwindtable$??0CTextLineLoader@@QAE@PBD@Z DD 0ffffffffH
	DD	FLAT:__unwindfunclet$??0CTextLineLoader@@QAE@PBD@Z$0
	DD	00H
	DD	FLAT:__unwindfunclet$??0CTextLineLoader@@QAE@PBD@Z$1
xdata$x	ENDS
;	COMDAT xdata$x
xdata$x	SEGMENT
__ehfuncinfo$?appOpenTextFile@@YAPAU_object@@PAU1@0@Z DD 019930522H
	DD	03H
	DD	FLAT:__unwindtable$?appOpenTextFile@@YAPAU_object@@PAU1@0@Z
	DD	2 DUP(00H)
	DD	2 DUP(00H)
	DD	00H
	DD	01H
__unwindtable$?appOpenTextFile@@YAPAU_object@@PAU1@0@Z DD 0ffffffffH
	DD	FLAT:__unwindfunclet$?appOpenTextFile@@YAPAU_object@@PAU1@0@Z$0
	DD	00H
	DD	FLAT:__unwindfunclet$?appOpenTextFile@@YAPAU_object@@PAU1@0@Z$1
	DD	01H
	DD	FLAT:__unwindfunclet$?appOpenTextFile@@YAPAU_object@@PAU1@0@Z$2
	ORG $+4
?vecUseSoundFileName@@3V?$array@U?$pair@KV?$basic_string@DU?$char_traits@D@std@@V?$allocator@D@2@@std@@@std@@$06@std@@B DQ 00000000000000001r ; 4.94066e-324 ; vecUseSoundFileName
	DQ	00000000000000000r		; 0
	DQ	00000000000000000r		; 0
	DQ	00000000000000000r		; 0
	DQ	00000000000000000r		; 0
	DQ	00000000000000000r		; 0
	DQ	00000000000000000r		; 0
	DQ	00000000000000000r		; 0
	DQ	00000000000000000r		; 0
	DQ	00000000000000000r		; 0
	DQ	00000000000000000r		; 0
	DQ	00000000000000000r		; 0
	DQ	00000000000000000r		; 0
	DQ	00000000000000000r		; 0
	DQ	00000000000000000r		; 0
	DQ	00000000000000000r		; 0
	DQ	00000000000000000r		; 0
	DQ	00000000000000000r		; 0
	DQ	00000000000000000r		; 0
	DQ	00000000000000000r		; 0
	DQ	00000000000000000r		; 0
	DQ	00000000000000000r		; 0
	DQ	00000000000000000r		; 0
	DQ	00000000000000000r		; 0
	DD	00H
?vecUseSoundFileName$initializer$@@3P6AXXZA DD FLAT:??__EvecUseSoundFileName@@YAXXZ ; vecUseSoundFileName$initializer$
?vecDropSoundFileName$initializer$@@3P6AXXZA DD FLAT:??__EvecDropSoundFileName@@YAXXZ ; vecDropSoundFileName$initializer$
?vecEffectList$initializer$@@3P6AXXZA DD FLAT:??__EvecEffectList@@YAXXZ ; vecEffectList$initializer$
?characterNameColors$initializer$@@3P6AXXZA DD FLAT:??__EcharacterNameColors@@YAXXZ ; characterNameColors$initializer$
?characterTitleColors$initializer$@@3P6AXXZA DD FLAT:??__EcharacterTitleColors@@YAXXZ ; characterTitleColors$initializer$
?characterTitleSystemColors$initializer$@@3P6AXXZA DD FLAT:??__EcharacterTitleSystemColors@@YAXXZ ; characterTitleSystemColors$initializer$
?emotionIcons$initializer$@@3P6AXXZA DD FLAT:??__EemotionIcons@@YAXXZ ; emotionIcons$initializer$
?skillIndexes$initializer$@@3P6AXXZA DD FLAT:??__EskillIndexes@@YAXXZ ; skillIndexes$initializer$
?guildSkills$initializer$@@3P6AXXZA DD FLAT:??__EguildSkills@@YAXXZ ; guildSkills$initializer$
; Function compile flags: /Ogtp
; File C:\Anka2Project\Anka2Project\Source\Binary\source\UserInterface\PythonApplicationModule.cpp
; File C:\Anka2Project\Anka2Project\Source\Binary\source\UserInterface\PythonApplication.h
; File C:\Anka2Project\Anka2Project\Source\Binary\source\UserInterface\PythonApplicationModule.cpp
; File C:\Anka2Project\Anka2Project\Source\Binary\source\UserInterface\PythonApplication.h
; File C:\Anka2Project\Anka2Project\Source\Binary\source\UserInterface\PythonApplicationModule.cpp
;	COMDAT ?appShowWebPage@@YAPAU_object@@PAU1@0@Z
_TEXT	SEGMENT
_szWebPage$ = -24					; size = 4
_rcWebPage$ = -20					; size = 16
__$ArrayPad$ = -4					; size = 4
_poSelf$ = 8						; size = 4
_poArgs$ = 12						; size = 4
?appShowWebPage@@YAPAU_object@@PAU1@0@Z PROC		; appShowWebPage, COMDAT

; 18   : {

  00000	55		 push	 ebp
  00001	8b ec		 mov	 ebp, esp
  00003	83 ec 1c	 sub	 esp, 28			; 0000001cH
  00006	a1 00 00 00 00	 mov	 eax, DWORD PTR ___security_cookie
  0000b	33 c5		 xor	 eax, ebp
  0000d	89 45 fc	 mov	 DWORD PTR __$ArrayPad$[ebp], eax
  00010	53		 push	 ebx
  00011	56		 push	 esi
  00012	8b 75 0c	 mov	 esi, DWORD PTR _poArgs$[ebp]

; 19   : 	char *szWebPage;
; 20   : 	if (!PyTuple_GetString(poArgs, 0, &szWebPage))

  00015	8d 45 e8	 lea	 eax, DWORD PTR _szWebPage$[ebp]
  00018	57		 push	 edi
  00019	50		 push	 eax
  0001a	6a 00		 push	 0
  0001c	56		 push	 esi
  0001d	e8 00 00 00 00	 call	 ?PyTuple_GetString@@YA_NPAU_object@@HPAPAD@Z ; PyTuple_GetString
  00022	83 c4 0c	 add	 esp, 12			; 0000000cH
  00025	84 c0		 test	 al, al
  00027	75 1b		 jne	 SHORT $LN2@appShowWeb

; 21   : 		return Py_BuildException();

  00029	6a 00		 push	 0
$LN8@appShowWeb:

; 35   : }

  0002b	e8 00 00 00 00	 call	 ?Py_BuildException@@YAPAU_object@@PBDZZ ; Py_BuildException
  00030	83 c4 04	 add	 esp, 4
  00033	5f		 pop	 edi
  00034	5e		 pop	 esi
  00035	5b		 pop	 ebx
  00036	8b 4d fc	 mov	 ecx, DWORD PTR __$ArrayPad$[ebp]
  00039	33 cd		 xor	 ecx, ebp
  0003b	e8 00 00 00 00	 call	 @__security_check_cookie@4
  00040	8b e5		 mov	 esp, ebp
  00042	5d		 pop	 ebp
  00043	c3		 ret	 0
$LN2@appShowWeb:

; 22   : 
; 23   : 	PyObject *poRect=PyTuple_GetItem(poArgs, 1);

  00044	8b 3d 00 00 00
	00		 mov	 edi, DWORD PTR __imp__PyTuple_GetItem
  0004a	6a 01		 push	 1
  0004c	56		 push	 esi
  0004d	ff d7		 call	 edi
  0004f	8b d8		 mov	 ebx, eax
  00051	83 c4 08	 add	 esp, 8

; 24   : 	if (!PyTuple_Check(poRect))

  00054	8b 4b 04	 mov	 ecx, DWORD PTR [ebx+4]
  00057	6a 00		 push	 0
  00059	f7 41 54 00 00
	00 04		 test	 DWORD PTR [ecx+84], 67108864 ; 04000000H
  00060	74 c9		 je	 SHORT $LN8@appShowWeb

; 25   : 		return Py_BuildException();
; 26   : 
; 27   : 	RECT rcWebPage;
; 28   : 	rcWebPage.left=PyInt_AsLong(PyTuple_GetItem(poRect, 0));

  00062	53		 push	 ebx
  00063	ff d7		 call	 edi
  00065	8b 35 00 00 00
	00		 mov	 esi, DWORD PTR __imp__PyInt_AsLong
  0006b	50		 push	 eax
  0006c	ff d6		 call	 esi

; 29   : 	rcWebPage.top=PyInt_AsLong(PyTuple_GetItem(poRect, 1));

  0006e	6a 01		 push	 1
  00070	53		 push	 ebx
  00071	89 45 ec	 mov	 DWORD PTR _rcWebPage$[ebp], eax
  00074	ff d7		 call	 edi
  00076	50		 push	 eax
  00077	ff d6		 call	 esi

; 30   : 	rcWebPage.right=PyInt_AsLong(PyTuple_GetItem(poRect, 2));

  00079	6a 02		 push	 2
  0007b	53		 push	 ebx
  0007c	89 45 f0	 mov	 DWORD PTR _rcWebPage$[ebp+4], eax
  0007f	ff d7		 call	 edi
  00081	50		 push	 eax
  00082	ff d6		 call	 esi

; 31   : 	rcWebPage.bottom=PyInt_AsLong(PyTuple_GetItem(poRect, 3));

  00084	6a 03		 push	 3
  00086	53		 push	 ebx
  00087	89 45 f4	 mov	 DWORD PTR _rcWebPage$[ebp+8], eax
  0008a	ff d7		 call	 edi
  0008c	50		 push	 eax
  0008d	ff d6		 call	 esi
; File C:\Anka2Project\Anka2Project\Source\Binary\source\UserInterface\PythonApplication.h

; 213  : 			assert(ms_pInstance != nullptr);

  0008f	8b 0d 00 00 00
	00		 mov	 ecx, DWORD PTR ?ms_pInstance@CPythonApplication@@1PAV1@A ; CPythonApplication::ms_pInstance
; File C:\Anka2Project\Anka2Project\Source\Binary\source\UserInterface\PythonApplicationModule.cpp

; 31   : 	rcWebPage.bottom=PyInt_AsLong(PyTuple_GetItem(poRect, 3));

  00095	83 c4 30	 add	 esp, 48			; 00000030H
  00098	89 45 f8	 mov	 DWORD PTR _rcWebPage$[ebp+12], eax
; File C:\Anka2Project\Anka2Project\Source\Binary\source\UserInterface\PythonApplication.h

; 213  : 			assert(ms_pInstance != nullptr);

  0009b	85 c9		 test	 ecx, ecx
  0009d	75 1d		 jne	 SHORT $LN7@appShowWeb
  0009f	68 d5 00 00 00	 push	 213			; 000000d5H
  000a4	68 00 00 00 00	 push	 OFFSET ??_C@_1KI@NDOHEKDB@?$AAC?$AA?3?$AA?2?$AAA?$AAn?$AAk?$AAa?$AA2?$AAP?$AAr?$AAo?$AAj?$AAe?$AAc?$AAt@
  000a9	68 00 00 00 00	 push	 OFFSET ??_C@_1DA@IANAENLC@?$AAm?$AAs?$AA_?$AAp?$AAI?$AAn?$AAs?$AAt?$AAa?$AAn?$AAc?$AAe?$AA?5?$AA?$CB?$AA?$DN@
  000ae	e8 00 00 00 00	 call	 __wassert
  000b3	8b 0d 00 00 00
	00		 mov	 ecx, DWORD PTR ?ms_pInstance@CPythonApplication@@1PAV1@A ; CPythonApplication::ms_pInstance
  000b9	83 c4 0c	 add	 esp, 12			; 0000000cH
$LN7@appShowWeb:
; File C:\Anka2Project\Anka2Project\Source\Binary\source\UserInterface\PythonApplicationModule.cpp

; 33   : 	CPythonApplication::Instance().ShowWebPage(szWebPage, rcWebPage);

  000bc	8d 45 ec	 lea	 eax, DWORD PTR _rcWebPage$[ebp]
  000bf	50		 push	 eax
  000c0	ff 75 e8	 push	 DWORD PTR _szWebPage$[ebp]
  000c3	e8 00 00 00 00	 call	 ?ShowWebPage@CPythonApplication@@QAEXPBDABUtagRECT@@@Z ; CPythonApplication::ShowWebPage

; 34   : 	return Py_BuildNone();

  000c8	e8 00 00 00 00	 call	 ?Py_BuildNone@@YAPAU_object@@XZ ; Py_BuildNone

; 35   : }

  000cd	8b 4d fc	 mov	 ecx, DWORD PTR __$ArrayPad$[ebp]
  000d0	5f		 pop	 edi
  000d1	5e		 pop	 esi
  000d2	33 cd		 xor	 ecx, ebp
  000d4	5b		 pop	 ebx
  000d5	e8 00 00 00 00	 call	 @__security_check_cookie@4
  000da	8b e5		 mov	 esp, ebp
  000dc	5d		 pop	 ebp
  000dd	c3		 ret	 0
?appShowWebPage@@YAPAU_object@@PAU1@0@Z ENDP		; appShowWebPage
_TEXT	ENDS
; Function compile flags: /Ogtp
; File C:\Anka2Project\Anka2Project\Source\Binary\source\UserInterface\PythonApplicationModule.cpp
; File C:\Anka2Project\Anka2Project\Source\Binary\source\UserInterface\PythonApplication.h
; File C:\Anka2Project\Anka2Project\Source\Binary\source\UserInterface\PythonApplicationModule.cpp
; File C:\Anka2Project\Anka2Project\Source\Binary\source\UserInterface\PythonApplication.h
; File C:\Anka2Project\Anka2Project\Source\Binary\source\UserInterface\PythonApplicationModule.cpp
;	COMDAT ?appMoveWebPage@@YAPAU_object@@PAU1@0@Z
_TEXT	SEGMENT
_rcWebPage$ = -20					; size = 16
__$ArrayPad$ = -4					; size = 4
_poSelf$ = 8						; size = 4
_poArgs$ = 12						; size = 4
?appMoveWebPage@@YAPAU_object@@PAU1@0@Z PROC		; appMoveWebPage, COMDAT

; 38   : {

  00000	55		 push	 ebp
  00001	8b ec		 mov	 ebp, esp
  00003	83 ec 14	 sub	 esp, 20			; 00000014H
  00006	a1 00 00 00 00	 mov	 eax, DWORD PTR ___security_cookie
  0000b	33 c5		 xor	 eax, ebp
  0000d	89 45 fc	 mov	 DWORD PTR __$ArrayPad$[ebp], eax
  00010	8b 45 0c	 mov	 eax, DWORD PTR _poArgs$[ebp]
  00013	53		 push	 ebx
  00014	56		 push	 esi
  00015	57		 push	 edi

; 39   : 	PyObject *poRect=PyTuple_GetItem(poArgs, 0);

  00016	8b 3d 00 00 00
	00		 mov	 edi, DWORD PTR __imp__PyTuple_GetItem
  0001c	6a 00		 push	 0
  0001e	50		 push	 eax
  0001f	ff d7		 call	 edi
  00021	8b d8		 mov	 ebx, eax
  00023	83 c4 08	 add	 esp, 8

; 40   : 	if (!PyTuple_Check(poRect))

  00026	8b 4b 04	 mov	 ecx, DWORD PTR [ebx+4]
  00029	6a 00		 push	 0
  0002b	f7 41 54 00 00
	00 04		 test	 DWORD PTR [ecx+84], 67108864 ; 04000000H
  00032	75 19		 jne	 SHORT $LN2@appMoveWeb

; 41   : 		return Py_BuildException();

  00034	e8 00 00 00 00	 call	 ?Py_BuildException@@YAPAU_object@@PBDZZ ; Py_BuildException
  00039	83 c4 04	 add	 esp, 4

; 51   : }

  0003c	5f		 pop	 edi
  0003d	5e		 pop	 esi
  0003e	5b		 pop	 ebx
  0003f	8b 4d fc	 mov	 ecx, DWORD PTR __$ArrayPad$[ebp]
  00042	33 cd		 xor	 ecx, ebp
  00044	e8 00 00 00 00	 call	 @__security_check_cookie@4
  00049	8b e5		 mov	 esp, ebp
  0004b	5d		 pop	 ebp
  0004c	c3		 ret	 0
$LN2@appMoveWeb:

; 42   : 
; 43   : 	RECT rcWebPage;
; 44   : 	rcWebPage.left=PyInt_AsLong(PyTuple_GetItem(poRect, 0));

  0004d	53		 push	 ebx
  0004e	ff d7		 call	 edi
  00050	8b 35 00 00 00
	00		 mov	 esi, DWORD PTR __imp__PyInt_AsLong
  00056	50		 push	 eax
  00057	ff d6		 call	 esi

; 45   : 	rcWebPage.top=PyInt_AsLong(PyTuple_GetItem(poRect, 1));

  00059	6a 01		 push	 1
  0005b	53		 push	 ebx
  0005c	89 45 ec	 mov	 DWORD PTR _rcWebPage$[ebp], eax
  0005f	ff d7		 call	 edi
  00061	50		 push	 eax
  00062	ff d6		 call	 esi

; 46   : 	rcWebPage.right=PyInt_AsLong(PyTuple_GetItem(poRect, 2));

  00064	6a 02		 push	 2
  00066	53		 push	 ebx
  00067	89 45 f0	 mov	 DWORD PTR _rcWebPage$[ebp+4], eax
  0006a	ff d7		 call	 edi
  0006c	50		 push	 eax
  0006d	ff d6		 call	 esi

; 47   : 	rcWebPage.bottom=PyInt_AsLong(PyTuple_GetItem(poRect, 3));

  0006f	6a 03		 push	 3
  00071	53		 push	 ebx
  00072	89 45 f4	 mov	 DWORD PTR _rcWebPage$[ebp+8], eax
  00075	ff d7		 call	 edi
  00077	50		 push	 eax
  00078	ff d6		 call	 esi
; File C:\Anka2Project\Anka2Project\Source\Binary\source\UserInterface\PythonApplication.h

; 213  : 			assert(ms_pInstance != nullptr);

  0007a	8b 0d 00 00 00
	00		 mov	 ecx, DWORD PTR ?ms_pInstance@CPythonApplication@@1PAV1@A ; CPythonApplication::ms_pInstance
; File C:\Anka2Project\Anka2Project\Source\Binary\source\UserInterface\PythonApplicationModule.cpp

; 47   : 	rcWebPage.bottom=PyInt_AsLong(PyTuple_GetItem(poRect, 3));

  00080	83 c4 30	 add	 esp, 48			; 00000030H
  00083	89 45 f8	 mov	 DWORD PTR _rcWebPage$[ebp+12], eax
; File C:\Anka2Project\Anka2Project\Source\Binary\source\UserInterface\PythonApplication.h

; 213  : 			assert(ms_pInstance != nullptr);

  00086	85 c9		 test	 ecx, ecx
  00088	75 1d		 jne	 SHORT $LN6@appMoveWeb
  0008a	68 d5 00 00 00	 push	 213			; 000000d5H
  0008f	68 00 00 00 00	 push	 OFFSET ??_C@_1KI@NDOHEKDB@?$AAC?$AA?3?$AA?2?$AAA?$AAn?$AAk?$AAa?$AA2?$AAP?$AAr?$AAo?$AAj?$AAe?$AAc?$AAt@
  00094	68 00 00 00 00	 push	 OFFSET ??_C@_1DA@IANAENLC@?$AAm?$AAs?$AA_?$AAp?$AAI?$AAn?$AAs?$AAt?$AAa?$AAn?$AAc?$AAe?$AA?5?$AA?$CB?$AA?$DN@
  00099	e8 00 00 00 00	 call	 __wassert
  0009e	8b 0d 00 00 00
	00		 mov	 ecx, DWORD PTR ?ms_pInstance@CPythonApplication@@1PAV1@A ; CPythonApplication::ms_pInstance
  000a4	83 c4 0c	 add	 esp, 12			; 0000000cH
$LN6@appMoveWeb:
; File C:\Anka2Project\Anka2Project\Source\Binary\source\UserInterface\PythonApplicationModule.cpp

; 49   : 	CPythonApplication::Instance().MoveWebPage(rcWebPage);

  000a7	8d 45 ec	 lea	 eax, DWORD PTR _rcWebPage$[ebp]
  000aa	50		 push	 eax
  000ab	e8 00 00 00 00	 call	 ?MoveWebPage@CPythonApplication@@QAEXABUtagRECT@@@Z ; CPythonApplication::MoveWebPage

; 50   : 	return Py_BuildNone();

  000b0	e8 00 00 00 00	 call	 ?Py_BuildNone@@YAPAU_object@@XZ ; Py_BuildNone

; 51   : }

  000b5	8b 4d fc	 mov	 ecx, DWORD PTR __$ArrayPad$[ebp]
  000b8	5f		 pop	 edi
  000b9	5e		 pop	 esi
  000ba	33 cd		 xor	 ecx, ebp
  000bc	5b		 pop	 ebx
  000bd	e8 00 00 00 00	 call	 @__security_check_cookie@4
  000c2	8b e5		 mov	 esp, ebp
  000c4	5d		 pop	 ebp
  000c5	c3		 ret	 0
?appMoveWebPage@@YAPAU_object@@PAU1@0@Z ENDP		; appMoveWebPage
_TEXT	ENDS
; Function compile flags: /Ogtp
; File C:\Anka2Project\Anka2Project\Source\Binary\source\UserInterface\PythonApplicationModule.cpp
; File C:\Anka2Project\Anka2Project\Source\Binary\source\UserInterface\PythonApplication.h
; File C:\Anka2Project\Anka2Project\Source\Binary\source\UserInterface\PythonApplicationModule.cpp
;	COMDAT ?appIsWebPageMode@@YAPAU_object@@PAU1@0@Z
_TEXT	SEGMENT
_poSelf$ = 8						; size = 4
_poArgs$ = 12						; size = 4
?appIsWebPageMode@@YAPAU_object@@PAU1@0@Z PROC		; appIsWebPageMode, COMDAT
; File C:\Anka2Project\Anka2Project\Source\Binary\source\UserInterface\PythonApplication.h

; 213  : 			assert(ms_pInstance != nullptr);

  00000	83 3d 00 00 00
	00 00		 cmp	 DWORD PTR ?ms_pInstance@CPythonApplication@@1PAV1@A, 0 ; CPythonApplication::ms_pInstance
  00007	75 17		 jne	 SHORT $LN5@appIsWebPa
  00009	68 d5 00 00 00	 push	 213			; 000000d5H
  0000e	68 00 00 00 00	 push	 OFFSET ??_C@_1KI@NDOHEKDB@?$AAC?$AA?3?$AA?2?$AAA?$AAn?$AAk?$AAa?$AA2?$AAP?$AAr?$AAo?$AAj?$AAe?$AAc?$AAt@
  00013	68 00 00 00 00	 push	 OFFSET ??_C@_1DA@IANAENLC@?$AAm?$AAs?$AA_?$AAp?$AAI?$AAn?$AAs?$AAt?$AAa?$AAn?$AAc?$AAe?$AA?5?$AA?$CB?$AA?$DN@
  00018	e8 00 00 00 00	 call	 __wassert
  0001d	83 c4 0c	 add	 esp, 12			; 0000000cH
$LN5@appIsWebPa:
; File C:\Anka2Project\Anka2Project\Source\Binary\source\UserInterface\PythonApplicationModule.cpp

; 61   : 	return Py_BuildValue("i", CPythonApplication::Instance().IsWebPageMode());

  00020	e8 00 00 00 00	 call	 ?IsWebPageMode@CPythonApplication@@QAE_NXZ ; CPythonApplication::IsWebPageMode
  00025	0f b6 c0	 movzx	 eax, al
  00028	50		 push	 eax
  00029	68 00 00 00 00	 push	 OFFSET ??_C@_01KBJDNOO@i@
  0002e	ff 15 00 00 00
	00		 call	 DWORD PTR __imp__Py_BuildValue
  00034	83 c4 08	 add	 esp, 8

; 62   : }

  00037	c3		 ret	 0
?appIsWebPageMode@@YAPAU_object@@PAU1@0@Z ENDP		; appIsWebPageMode
_TEXT	ENDS
; Function compile flags: /Ogtp
; File C:\Anka2Project\Anka2Project\Source\Binary\source\UserInterface\PythonApplicationModule.cpp
;	COMDAT ?appLoadLocaleAddr@@YAPAU_object@@PAU1@0@Z
_TEXT	SEGMENT
_addrPath$ = -8						; size = 4
__$ArrayPad$ = -4					; size = 4
_poSelf$ = 8						; size = 4
_poArgs$ = 12						; size = 4
?appLoadLocaleAddr@@YAPAU_object@@PAU1@0@Z PROC		; appLoadLocaleAddr, COMDAT

; 202  : {

  00000	55		 push	 ebp
  00001	8b ec		 mov	 ebp, esp
  00003	83 ec 08	 sub	 esp, 8
  00006	a1 00 00 00 00	 mov	 eax, DWORD PTR ___security_cookie
  0000b	33 c5		 xor	 eax, ebp
  0000d	89 45 fc	 mov	 DWORD PTR __$ArrayPad$[ebp], eax
  00010	53		 push	 ebx
  00011	56		 push	 esi
  00012	57		 push	 edi

; 203  : 	char *addrPath;
; 204  : 	if (!PyTuple_GetString(poArgs, 0, &addrPath))

  00013	8d 45 f8	 lea	 eax, DWORD PTR _addrPath$[ebp]
  00016	50		 push	 eax
  00017	6a 00		 push	 0
  00019	ff 75 0c	 push	 DWORD PTR _poArgs$[ebp]
  0001c	e8 00 00 00 00	 call	 ?PyTuple_GetString@@YA_NPAU_object@@HPAPAD@Z ; PyTuple_GetString
  00021	83 c4 0c	 add	 esp, 12			; 0000000cH
  00024	84 c0		 test	 al, al
  00026	75 1e		 jne	 SHORT $LN2@appLoadLoc
$LN5@appLoadLoc:

; 232  : }

  00028	6a 00		 push	 0
  0002a	e8 00 00 00 00	 call	 ?Py_BuildException@@YAPAU_object@@PBDZZ ; Py_BuildException
  0002f	83 c4 04	 add	 esp, 4
  00032	8d 65 ec	 lea	 esp, DWORD PTR [ebp-20]
  00035	5f		 pop	 edi
  00036	5e		 pop	 esi
  00037	5b		 pop	 ebx
  00038	8b 4d fc	 mov	 ecx, DWORD PTR __$ArrayPad$[ebp]
  0003b	33 cd		 xor	 ecx, ebp
  0003d	e8 00 00 00 00	 call	 @__security_check_cookie@4
  00042	8b e5		 mov	 esp, ebp
  00044	5d		 pop	 ebp
  00045	c3		 ret	 0
$LN2@appLoadLoc:

; 205  : 		return Py_BuildException();
; 206  : 
; 207  : 	FILE* fp = fopen(addrPath, "rb");

  00046	68 00 00 00 00	 push	 OFFSET ??_C@_02JDPG@rb@
  0004b	ff 75 f8	 push	 DWORD PTR _addrPath$[ebp]
  0004e	e8 00 00 00 00	 call	 _fopen
  00053	8b f0		 mov	 esi, eax
  00055	83 c4 08	 add	 esp, 8

; 208  : 	if (!fp)

  00058	85 f6		 test	 esi, esi
  0005a	74 cc		 je	 SHORT $LN5@appLoadLoc

; 209  : 		return Py_BuildException();
; 210  : 
; 211  : 	fseek(fp, 0, SEEK_END);

  0005c	6a 02		 push	 2
  0005e	6a 00		 push	 0
  00060	56		 push	 esi
  00061	e8 00 00 00 00	 call	 _fseek

; 212  : 
; 213  : 	int size = ftell(fp);

  00066	56		 push	 esi
  00067	e8 00 00 00 00	 call	 _ftell
  0006c	83 c4 10	 add	 esp, 16			; 00000010H
  0006f	8b d8		 mov	 ebx, eax

; 214  : 	char *enc = (char *)_alloca(size);

  00071	e8 00 00 00 00	 call	 __alloca_probe_16
  00076	8b fc		 mov	 edi, esp

; 215  : 	fseek(fp, 0, SEEK_SET);

  00078	6a 00		 push	 0
  0007a	6a 00		 push	 0
  0007c	56		 push	 esi
  0007d	e8 00 00 00 00	 call	 _fseek

; 216  : 	fread(enc, size, 1, fp);

  00082	56		 push	 esi
  00083	6a 01		 push	 1
  00085	53		 push	 ebx
  00086	57		 push	 edi
  00087	e8 00 00 00 00	 call	 _fread

; 217  : 	fclose(fp);

  0008c	56		 push	 esi
  0008d	e8 00 00 00 00	 call	 _fclose
  00092	83 c4 20	 add	 esp, 32			; 00000020H

; 218  : 
; 219  : 	static const unsigned char key[16] = {
; 220  : 		0x82, 0x1b, 0x34, 0xae,
; 221  : 		0x12, 0x3b, 0xfb, 0x17,
; 222  : 		0xd7, 0x2c, 0x39, 0xae,
; 223  : 		0x41, 0x98, 0xf1, 0x63
; 224  : 	};
; 225  : 
; 226  : 	char *buf = (char *)_alloca(size);

  00095	8b c3		 mov	 eax, ebx
  00097	e8 00 00 00 00	 call	 __alloca_probe_16
  0009c	8b f4		 mov	 esi, esp

; 227  : 
; 228  : 	tea_decrypt((unsigned long*)buf, (const unsigned long*)enc, (const unsigned long*)key, size);

  0009e	53		 push	 ebx
  0009f	68 00 00 00 00	 push	 OFFSET ?key@?1??appLoadLocaleAddr@@YAPAU_object@@PAU2@0@Z@4QBEB
  000a4	57		 push	 edi
  000a5	56		 push	 esi
  000a6	e8 00 00 00 00	 call	 _tea_decrypt

; 229  : 	unsigned int retSize = *(unsigned int*)buf;
; 230  : 	char *ret = buf + sizeof(unsigned int);
; 231  : 	return Py_BuildValue("s#", ret, retSize);

  000ab	ff 36		 push	 DWORD PTR [esi]
  000ad	8d 46 04	 lea	 eax, DWORD PTR [esi+4]
  000b0	50		 push	 eax
  000b1	68 00 00 00 00	 push	 OFFSET ??_C@_02OIKAIHIF@s?$CD@
  000b6	ff 15 00 00 00
	00		 call	 DWORD PTR __imp__Py_BuildValue
  000bc	83 c4 1c	 add	 esp, 28			; 0000001cH

; 232  : }

  000bf	8d 65 ec	 lea	 esp, DWORD PTR [ebp-20]
  000c2	5f		 pop	 edi
  000c3	5e		 pop	 esi
  000c4	5b		 pop	 ebx
  000c5	8b 4d fc	 mov	 ecx, DWORD PTR __$ArrayPad$[ebp]
  000c8	33 cd		 xor	 ecx, ebp
  000ca	e8 00 00 00 00	 call	 @__security_check_cookie@4
  000cf	8b e5		 mov	 esp, ebp
  000d1	5d		 pop	 ebp
  000d2	c3		 ret	 0
?appLoadLocaleAddr@@YAPAU_object@@PAU1@0@Z ENDP		; appLoadLocaleAddr
_TEXT	ENDS
; Function compile flags: /Ogtp
; File C:\Anka2Project\Anka2Project\Source\Binary\source\UserInterface\PythonApplicationModule.cpp
;	COMDAT ?appGetLocaleName@@YAPAU_object@@PAU1@0@Z
_TEXT	SEGMENT
_poSelf$ = 8						; size = 4
_poArgs$ = 12						; size = 4
?appGetLocaleName@@YAPAU_object@@PAU1@0@Z PROC		; appGetLocaleName, COMDAT

; 236  : 	return Py_BuildValue("s", LocaleService_GetLocaleName());

  00000	e8 00 00 00 00	 call	 ?LocaleService_GetLocaleName@@YAPBDXZ ; LocaleService_GetLocaleName
  00005	50		 push	 eax
  00006	68 00 00 00 00	 push	 OFFSET ??_C@_01LKDEMHDF@s@
  0000b	ff 15 00 00 00
	00		 call	 DWORD PTR __imp__Py_BuildValue
  00011	83 c4 08	 add	 esp, 8

; 237  : }

  00014	c3		 ret	 0
?appGetLocaleName@@YAPAU_object@@PAU1@0@Z ENDP		; appGetLocaleName
_TEXT	ENDS
; Function compile flags: /Ogtp
; File C:\Anka2Project\Anka2Project\Source\Binary\source\UserInterface\PythonApplicationModule.cpp
;	COMDAT ?appLoadLocaleData@@YAPAU_object@@PAU1@0@Z
_TEXT	SEGMENT
_localePath$ = -4					; size = 4
_poSelf$ = 8						; size = 4
_poArgs$ = 12						; size = 4
?appLoadLocaleData@@YAPAU_object@@PAU1@0@Z PROC		; appLoadLocaleData, COMDAT

; 240  : {

  00000	55		 push	 ebp
  00001	8b ec		 mov	 ebp, esp
  00003	51		 push	 ecx

; 241  : 	char *localePath;
; 242  : 	if (!PyTuple_GetString(poArgs, 0, &localePath))

  00004	8d 45 fc	 lea	 eax, DWORD PTR _localePath$[ebp]
  00007	50		 push	 eax
  00008	6a 00		 push	 0
  0000a	ff 75 0c	 push	 DWORD PTR _poArgs$[ebp]
  0000d	e8 00 00 00 00	 call	 ?PyTuple_GetString@@YA_NPAU_object@@HPAPAD@Z ; PyTuple_GetString
  00012	83 c4 0c	 add	 esp, 12			; 0000000cH
  00015	84 c0		 test	 al, al
  00017	75 0e		 jne	 SHORT $LN2@appLoadLoc

; 243  : 		return Py_BuildException();

  00019	6a 00		 push	 0
  0001b	e8 00 00 00 00	 call	 ?Py_BuildException@@YAPAU_object@@PBDZZ ; Py_BuildException
  00020	83 c4 04	 add	 esp, 4

; 246  : }

  00023	8b e5		 mov	 esp, ebp
  00025	5d		 pop	 ebp
  00026	c3		 ret	 0
$LN2@appLoadLoc:

; 244  : 
; 245  : 	return Py_BuildValue("i", LoadLocaleData(localePath));

  00027	8b 4d fc	 mov	 ecx, DWORD PTR _localePath$[ebp]
  0002a	e8 00 00 00 00	 call	 ?LoadLocaleData@@YA_NPBD@Z ; LoadLocaleData
  0002f	0f b6 c0	 movzx	 eax, al
  00032	50		 push	 eax
  00033	68 00 00 00 00	 push	 OFFSET ??_C@_01KBJDNOO@i@
  00038	ff 15 00 00 00
	00		 call	 DWORD PTR __imp__Py_BuildValue
  0003e	83 c4 08	 add	 esp, 8

; 246  : }

  00041	8b e5		 mov	 esp, ebp
  00043	5d		 pop	 ebp
  00044	c3		 ret	 0
?appLoadLocaleData@@YAPAU_object@@PAU1@0@Z ENDP		; appLoadLocaleData
_TEXT	ENDS
; Function compile flags: /Ogtp
; File C:\Anka2Project\Anka2Project\Source\Binary\source\UserInterface\PythonApplicationModule.cpp
;	COMDAT ?appGetLocalePath@@YAPAU_object@@PAU1@0@Z
_TEXT	SEGMENT
_poSelf$ = 8						; size = 4
_poArgs$ = 12						; size = 4
?appGetLocalePath@@YAPAU_object@@PAU1@0@Z PROC		; appGetLocalePath, COMDAT

; 250  : 	return Py_BuildValue("s", LocaleService_GetLocalePath());

  00000	e8 00 00 00 00	 call	 ?LocaleService_GetLocalePath@@YAPBDXZ ; LocaleService_GetLocalePath
  00005	50		 push	 eax
  00006	68 00 00 00 00	 push	 OFFSET ??_C@_01LKDEMHDF@s@
  0000b	ff 15 00 00 00
	00		 call	 DWORD PTR __imp__Py_BuildValue
  00011	83 c4 08	 add	 esp, 8

; 251  : }

  00014	c3		 ret	 0
?appGetLocalePath@@YAPAU_object@@PAU1@0@Z ENDP		; appGetLocalePath
_TEXT	ENDS
; Function compile flags: /Ogtp
; File C:\Anka2Project\Anka2Project\Source\Binary\source\UserInterface\PythonApplicationModule.cpp
;	COMDAT ?appGetDefaultCodePage@@YAPAU_object@@PAU1@0@Z
_TEXT	SEGMENT
_poSelf$ = 8						; size = 4
_poArgs$ = 12						; size = 4
?appGetDefaultCodePage@@YAPAU_object@@PAU1@0@Z PROC	; appGetDefaultCodePage, COMDAT

; 255  : 	return Py_BuildValue("i", GetCodePage());

  00000	e8 00 00 00 00	 call	 ?GetCodePage@@YAIXZ	; GetCodePage
  00005	50		 push	 eax
  00006	68 00 00 00 00	 push	 OFFSET ??_C@_01KBJDNOO@i@
  0000b	ff 15 00 00 00
	00		 call	 DWORD PTR __imp__Py_BuildValue
  00011	83 c4 08	 add	 esp, 8

; 256  : }

  00014	c3		 ret	 0
?appGetDefaultCodePage@@YAPAU_object@@PAU1@0@Z ENDP	; appGetDefaultCodePage
_TEXT	ENDS
; Function compile flags: /Ogtp
; File C:\Anka2Project\Anka2Project\Source\Binary\source\UserInterface\PythonApplicationModule.cpp
;	COMDAT ?appGetImageInfo@@YAPAU_object@@PAU1@0@Z
_TEXT	SEGMENT
_szFileName$ = -8					; size = 4
_uImg$ = -4						; size = 4
_poSelf$ = 8						; size = 4
_poArgs$ = 12						; size = 4
?appGetImageInfo@@YAPAU_object@@PAU1@0@Z PROC		; appGetImageInfo, COMDAT

; 261  : {

  00000	55		 push	 ebp
  00001	8b ec		 mov	 ebp, esp
  00003	83 ec 08	 sub	 esp, 8

; 262  : 	char *szFileName;
; 263  : 	if (!PyTuple_GetString(poArgs, 0, &szFileName))

  00006	8d 45 f8	 lea	 eax, DWORD PTR _szFileName$[ebp]
  00009	50		 push	 eax
  0000a	6a 00		 push	 0
  0000c	ff 75 0c	 push	 DWORD PTR _poArgs$[ebp]
  0000f	e8 00 00 00 00	 call	 ?PyTuple_GetString@@YA_NPAU_object@@HPAPAD@Z ; PyTuple_GetString
  00014	83 c4 0c	 add	 esp, 12			; 0000000cH
  00017	84 c0		 test	 al, al
  00019	75 0e		 jne	 SHORT $LN2@appGetImag

; 264  : 		return Py_BuildException();

  0001b	6a 00		 push	 0
  0001d	e8 00 00 00 00	 call	 ?Py_BuildException@@YAPAU_object@@PBDZZ ; Py_BuildException
  00022	83 c4 04	 add	 esp, 4

; 283  : }

  00025	8b e5		 mov	 esp, ebp
  00027	5d		 pop	 ebp
  00028	c3		 ret	 0
$LN2@appGetImag:
  00029	53		 push	 ebx
  0002a	56		 push	 esi
  0002b	57		 push	 edi

; 265  : 
; 266  : 	BOOL canLoad=FALSE;
; 267  : 	ILuint uWidth=0;
; 268  : 	ILuint uHeight=0;
; 269  : 
; 270  : 	ILuint uImg;
; 271  : 	ilGenImages(1, &uImg);

  0002c	8d 45 fc	 lea	 eax, DWORD PTR _uImg$[ebp]
  0002f	33 ff		 xor	 edi, edi
  00031	50		 push	 eax
  00032	6a 01		 push	 1
  00034	33 db		 xor	 ebx, ebx
  00036	33 f6		 xor	 esi, esi
  00038	ff 15 00 00 00
	00		 call	 DWORD PTR __imp__ilGenImages@8

; 272  : 	ilBindImage(uImg);

  0003e	ff 75 fc	 push	 DWORD PTR _uImg$[ebp]
  00041	ff 15 00 00 00
	00		 call	 DWORD PTR __imp__ilBindImage@4

; 273  : 	if (ilLoad(IL_TYPE_UNKNOWN, szFileName))

  00047	ff 75 f8	 push	 DWORD PTR _szFileName$[ebp]
  0004a	56		 push	 esi
  0004b	ff 15 00 00 00
	00		 call	 DWORD PTR __imp__ilLoad@8
  00051	84 c0		 test	 al, al
  00053	74 1b		 je	 SHORT $LN3@appGetImag

; 274  : 	{
; 275  : 		canLoad=TRUE;
; 276  : 		uWidth=ilGetInteger(IL_IMAGE_WIDTH);

  00055	8b 35 00 00 00
	00		 mov	 esi, DWORD PTR __imp__ilGetInteger@4
  0005b	8d 7b 01	 lea	 edi, DWORD PTR [ebx+1]
  0005e	68 e4 0d 00 00	 push	 3556			; 00000de4H
  00063	ff d6		 call	 esi

; 277  : 		uHeight=ilGetInteger(IL_IMAGE_HEIGHT);

  00065	68 e5 0d 00 00	 push	 3557			; 00000de5H
  0006a	8b d8		 mov	 ebx, eax
  0006c	ff d6		 call	 esi
  0006e	8b f0		 mov	 esi, eax
$LN3@appGetImag:

; 278  : 	}
; 279  : 
; 280  : 	ilDeleteImages(1, &uImg);

  00070	8d 45 fc	 lea	 eax, DWORD PTR _uImg$[ebp]
  00073	50		 push	 eax
  00074	6a 01		 push	 1
  00076	ff 15 00 00 00
	00		 call	 DWORD PTR __imp__ilDeleteImages@8

; 281  : 
; 282  : 	return Py_BuildValue("iii", canLoad, uWidth, uHeight);

  0007c	56		 push	 esi
  0007d	53		 push	 ebx
  0007e	57		 push	 edi
  0007f	68 00 00 00 00	 push	 OFFSET ??_C@_03GLKMLICL@iii@
  00084	ff 15 00 00 00
	00		 call	 DWORD PTR __imp__Py_BuildValue
  0008a	83 c4 10	 add	 esp, 16			; 00000010H
  0008d	5f		 pop	 edi
  0008e	5e		 pop	 esi
  0008f	5b		 pop	 ebx

; 283  : }

  00090	8b e5		 mov	 esp, ebp
  00092	5d		 pop	 ebp
  00093	c3		 ret	 0
?appGetImageInfo@@YAPAU_object@@PAU1@0@Z ENDP		; appGetImageInfo
_TEXT	ENDS
; Function compile flags: /Ogtp
; File C:\Anka2Project\Anka2Project\Source\Binary\source\UserInterface\PythonApplicationModule.cpp
; File C:\Anka2Project\Anka2Project\Source\Binary\source\eterBase\Singleton.h
; File C:\Anka2Project\Anka2Project\Source\Binary\source\UserInterface\PythonApplicationModule.cpp
;	COMDAT ?appIsExistFile@@YAPAU_object@@PAU1@0@Z
_TEXT	SEGMENT
_szFileName$ = -4					; size = 4
_poSelf$ = 8						; size = 4
_poArgs$ = 12						; size = 4
?appIsExistFile@@YAPAU_object@@PAU1@0@Z PROC		; appIsExistFile, COMDAT

; 288  : {

  00000	55		 push	 ebp
  00001	8b ec		 mov	 ebp, esp
  00003	51		 push	 ecx

; 289  : 	char *szFileName;
; 290  : 	if (!PyTuple_GetString(poArgs, 0, &szFileName))

  00004	8d 45 fc	 lea	 eax, DWORD PTR _szFileName$[ebp]
  00007	50		 push	 eax
  00008	6a 00		 push	 0
  0000a	ff 75 0c	 push	 DWORD PTR _poArgs$[ebp]
  0000d	e8 00 00 00 00	 call	 ?PyTuple_GetString@@YA_NPAU_object@@HPAPAD@Z ; PyTuple_GetString
  00012	83 c4 0c	 add	 esp, 12			; 0000000cH
  00015	84 c0		 test	 al, al
  00017	75 0e		 jne	 SHORT $LN2@appIsExist

; 291  : 		return Py_BuildException();

  00019	6a 00		 push	 0
  0001b	e8 00 00 00 00	 call	 ?Py_BuildException@@YAPAU_object@@PBDZZ ; Py_BuildException
  00020	83 c4 04	 add	 esp, 4

; 296  : }

  00023	8b e5		 mov	 esp, ebp
  00025	5d		 pop	 ebp
  00026	c3		 ret	 0
$LN2@appIsExist:
; File C:\Anka2Project\Anka2Project\Source\Binary\source\eterBase\Singleton.h

; 26   : 		assert(ms_singleton);

  00027	8b 0d 00 00 00
	00		 mov	 ecx, DWORD PTR ?ms_singleton@?$CSingleton@VCEterPackManager@@@@0PAVCEterPackManager@@A ; CSingleton<CEterPackManager>::ms_singleton
  0002d	85 c9		 test	 ecx, ecx
  0002f	75 1a		 jne	 SHORT $LN6@appIsExist
  00031	6a 1a		 push	 26			; 0000001aH
  00033	68 00 00 00 00	 push	 OFFSET ??_C@_1IO@CAJLEEOI@?$AAC?$AA?3?$AA?2?$AAA?$AAn?$AAk?$AAa?$AA2?$AAP?$AAr?$AAo?$AAj?$AAe?$AAc?$AAt@
  00038	68 00 00 00 00	 push	 OFFSET ??_C@_1BK@FMEHPMFE@?$AAm?$AAs?$AA_?$AAs?$AAi?$AAn?$AAg?$AAl?$AAe?$AAt?$AAo?$AAn@
  0003d	e8 00 00 00 00	 call	 __wassert
  00042	8b 0d 00 00 00
	00		 mov	 ecx, DWORD PTR ?ms_singleton@?$CSingleton@VCEterPackManager@@@@0PAVCEterPackManager@@A ; CSingleton<CEterPackManager>::ms_singleton
  00048	83 c4 0c	 add	 esp, 12			; 0000000cH
$LN6@appIsExist:
; File C:\Anka2Project\Anka2Project\Source\Binary\source\UserInterface\PythonApplicationModule.cpp

; 293  : 	bool isExist=CEterPackManager::Instance().isExist(szFileName);

  0004b	ff 75 fc	 push	 DWORD PTR _szFileName$[ebp]
  0004e	e8 00 00 00 00	 call	 ?isExist@CEterPackManager@@QAE_NPBD@Z ; CEterPackManager::isExist

; 294  : 
; 295  : 	return Py_BuildValue("i", isExist);

  00053	0f b6 c0	 movzx	 eax, al
  00056	50		 push	 eax
  00057	68 00 00 00 00	 push	 OFFSET ??_C@_01KBJDNOO@i@
  0005c	ff 15 00 00 00
	00		 call	 DWORD PTR __imp__Py_BuildValue
  00062	83 c4 08	 add	 esp, 8

; 296  : }

  00065	8b e5		 mov	 esp, ebp
  00067	5d		 pop	 ebp
  00068	c3		 ret	 0
?appIsExistFile@@YAPAU_object@@PAU1@0@Z ENDP		; appIsExistFile
_TEXT	ENDS
; Function compile flags: /Ogtp
; File C:\Anka2Project\Anka2Project\Source\Binary\source\UserInterface\PythonApplicationModule.cpp
;	COMDAT ?appGetFileList@@YAPAU_object@@PAU1@0@Z
_TEXT	SEGMENT
_szFilter$ = -332					; size = 4
_wfd$ = -328						; size = 320
__$ArrayPad$ = -4					; size = 4
_poSelf$ = 8						; size = 4
_poArgs$ = 12						; size = 4
?appGetFileList@@YAPAU_object@@PAU1@0@Z PROC		; appGetFileList, COMDAT

; 299  : {

  00000	55		 push	 ebp
  00001	8b ec		 mov	 ebp, esp
  00003	83 e4 f8	 and	 esp, -8			; fffffff8H
  00006	81 ec 4c 01 00
	00		 sub	 esp, 332		; 0000014cH
  0000c	a1 00 00 00 00	 mov	 eax, DWORD PTR ___security_cookie
  00011	33 c4		 xor	 eax, esp
  00013	89 84 24 48 01
	00 00		 mov	 DWORD PTR __$ArrayPad$[esp+332], eax
  0001a	8b 45 0c	 mov	 eax, DWORD PTR _poArgs$[ebp]

; 300  : 	char *szFilter;
; 301  : 	if (!PyTuple_GetString(poArgs, 0, &szFilter))

  0001d	8d 0c 24	 lea	 ecx, DWORD PTR _szFilter$[esp+332]
  00020	53		 push	 ebx
  00021	56		 push	 esi
  00022	57		 push	 edi
  00023	51		 push	 ecx
  00024	6a 00		 push	 0
  00026	50		 push	 eax
  00027	e8 00 00 00 00	 call	 ?PyTuple_GetString@@YA_NPAU_object@@HPAPAD@Z ; PyTuple_GetString
  0002c	83 c4 0c	 add	 esp, 12			; 0000000cH
  0002f	6a 00		 push	 0
  00031	84 c0		 test	 al, al
  00033	75 1d		 jne	 SHORT $LN5@appGetFile

; 302  : 		return Py_BuildException();

  00035	e8 00 00 00 00	 call	 ?Py_BuildException@@YAPAU_object@@PBDZZ ; Py_BuildException
  0003a	83 c4 04	 add	 esp, 4

; 320  : 	}
; 321  : 
; 322  : 	return poList;
; 323  : }

  0003d	5f		 pop	 edi
  0003e	5e		 pop	 esi
  0003f	5b		 pop	 ebx
  00040	8b 8c 24 48 01
	00 00		 mov	 ecx, DWORD PTR __$ArrayPad$[esp+332]
  00047	33 cc		 xor	 ecx, esp
  00049	e8 00 00 00 00	 call	 @__security_check_cookie@4
  0004e	8b e5		 mov	 esp, ebp
  00050	5d		 pop	 ebp
  00051	c3		 ret	 0
$LN5@appGetFile:

; 303  : 
; 304  : 	PyObject *poList=PyList_New(0);

  00052	ff 15 00 00 00
	00		 call	 DWORD PTR __imp__PyList_New

; 305  : 
; 306  : 	WIN32_FIND_DATA wfd;
; 307  : 	memset(&wfd, 0, sizeof(wfd));

  00058	68 40 01 00 00	 push	 320			; 00000140H
  0005d	8b f8		 mov	 edi, eax
  0005f	8d 44 24 18	 lea	 eax, DWORD PTR _wfd$[esp+352]
  00063	6a 00		 push	 0
  00065	50		 push	 eax
  00066	e8 00 00 00 00	 call	 _memset
  0006b	83 c4 10	 add	 esp, 16			; 00000010H

; 308  : 
; 309  : 	HANDLE hFind = FindFirstFile(szFilter, &wfd);

  0006e	8d 44 24 10	 lea	 eax, DWORD PTR _wfd$[esp+344]
  00072	50		 push	 eax
  00073	ff 74 24 10	 push	 DWORD PTR _szFilter$[esp+348]
  00077	ff 15 00 00 00
	00		 call	 DWORD PTR __imp__FindFirstFileA@8
  0007d	8b f0		 mov	 esi, eax

; 310  : 	if (hFind != INVALID_HANDLE_VALUE)

  0007f	83 fe ff	 cmp	 esi, -1
  00082	74 35		 je	 SHORT $LN6@appGetFile
  00084	8b 1d 00 00 00
	00		 mov	 ebx, DWORD PTR __imp__PyString_FromString
  0008a	66 0f 1f 44 00
	00		 npad	 6
$LL4@appGetFile:

; 311  : 	{
; 312  : 		do
; 313  : 		{
; 314  : 			PyObject *poFileName=PyString_FromString(wfd.cFileName) ;

  00090	8d 44 24 3c	 lea	 eax, DWORD PTR _wfd$[esp+388]
  00094	50		 push	 eax
  00095	ff d3		 call	 ebx

; 315  : 			PyList_Append(poList, poFileName);

  00097	50		 push	 eax
  00098	57		 push	 edi
  00099	ff 15 00 00 00
	00		 call	 DWORD PTR __imp__PyList_Append
  0009f	83 c4 0c	 add	 esp, 12			; 0000000cH

; 316  : 		}
; 317  : 		while (FindNextFile(hFind, &wfd));

  000a2	8d 44 24 10	 lea	 eax, DWORD PTR _wfd$[esp+344]
  000a6	50		 push	 eax
  000a7	56		 push	 esi
  000a8	ff 15 00 00 00
	00		 call	 DWORD PTR __imp__FindNextFileA@8
  000ae	85 c0		 test	 eax, eax
  000b0	75 de		 jne	 SHORT $LL4@appGetFile

; 318  : 
; 319  : 		FindClose(hFind);

  000b2	56		 push	 esi
  000b3	ff 15 00 00 00
	00		 call	 DWORD PTR __imp__FindClose@4
$LN6@appGetFile:

; 320  : 	}
; 321  : 
; 322  : 	return poList;
; 323  : }

  000b9	8b 8c 24 54 01
	00 00		 mov	 ecx, DWORD PTR __$ArrayPad$[esp+344]
  000c0	8b c7		 mov	 eax, edi
  000c2	5f		 pop	 edi
  000c3	5e		 pop	 esi
  000c4	5b		 pop	 ebx
  000c5	33 cc		 xor	 ecx, esp
  000c7	e8 00 00 00 00	 call	 @__security_check_cookie@4
  000cc	8b e5		 mov	 esp, ebp
  000ce	5d		 pop	 ebp
  000cf	c3		 ret	 0
?appGetFileList@@YAPAU_object@@PAU1@0@Z ENDP		; appGetFileList
_TEXT	ENDS
; Function compile flags: /Ogtp
; File C:\Anka2Project\Anka2Project\Source\Binary\source\UserInterface\PythonApplicationModule.cpp
; File C:\Program Files\Microsoft Visual Studio\2022\Community\VC\Tools\MSVC\14.44.35207\include\xstring
; File C:\Anka2Project\Anka2Project\Source\Binary\source\UserInterface\PythonApplicationModule.cpp
; File C:\Anka2Project\Anka2Project\Source\Binary\source\UserInterface\PythonApplication.h
; File C:\Anka2Project\Anka2Project\Source\Binary\source\UserInterface\PythonApplicationModule.cpp
; File C:\Program Files\Microsoft Visual Studio\2022\Community\VC\Tools\MSVC\14.44.35207\include\xstring
; File C:\Anka2Project\Anka2Project\Source\Binary\source\UserInterface\PythonApplicationModule.cpp
; File C:\Program Files\Microsoft Visual Studio\2022\Community\VC\Tools\MSVC\14.44.35207\include\xstring
; File C:\Anka2Project\Anka2Project\Source\Binary\source\UserInterface\PythonApplicationModule.cpp
; File C:\Program Files\Microsoft Visual Studio\2022\Community\VC\Tools\MSVC\14.44.35207\include\xstring
; File C:\Program Files\Microsoft Visual Studio\2022\Community\VC\Tools\MSVC\14.44.35207\include\xmemory
; File C:\Program Files\Microsoft Visual Studio\2022\Community\VC\Tools\MSVC\14.44.35207\include\xstring
; File C:\Program Files\Microsoft Visual Studio\2022\Community\VC\Tools\MSVC\14.44.35207\include\xmemory
; File C:\Anka2Project\Anka2Project\Source\Binary\source\UserInterface\PythonApplicationModule.cpp
; File C:\Program Files\Microsoft Visual Studio\2022\Community\VC\Tools\MSVC\14.44.35207\include\xmemory
; File C:\Anka2Project\Anka2Project\Source\Binary\source\UserInterface\PythonApplicationModule.cpp
;	COMDAT ?appGetInfo@@YAPAU_object@@PAU1@0@Z
_TEXT	SEGMENT
_nInfo$ = -48						; size = 4
_stInfo$ = -44						; size = 24
__$ArrayPad$ = -20					; size = 4
__$EHRec$ = -12						; size = 12
_poSelf$ = 8						; size = 4
_poArgs$ = 12						; size = 4
?appGetInfo@@YAPAU_object@@PAU1@0@Z PROC		; appGetInfo, COMDAT

; 383  : {

  00000	53		 push	 ebx
  00001	8b dc		 mov	 ebx, esp
  00003	83 ec 08	 sub	 esp, 8
  00006	83 e4 f8	 and	 esp, -8			; fffffff8H
  00009	83 c4 04	 add	 esp, 4
  0000c	55		 push	 ebp
  0000d	8b 6b 04	 mov	 ebp, DWORD PTR [ebx+4]
  00010	89 6c 24 04	 mov	 DWORD PTR [esp+4], ebp
  00014	8b ec		 mov	 ebp, esp
  00016	6a ff		 push	 -1
  00018	68 00 00 00 00	 push	 __ehhandler$?appGetInfo@@YAPAU_object@@PAU1@0@Z
  0001d	64 a1 00 00 00
	00		 mov	 eax, DWORD PTR fs:0
  00023	50		 push	 eax
  00024	53		 push	 ebx
  00025	83 ec 24	 sub	 esp, 36			; 00000024H
  00028	a1 00 00 00 00	 mov	 eax, DWORD PTR ___security_cookie
  0002d	33 c5		 xor	 eax, ebp
  0002f	89 45 ec	 mov	 DWORD PTR __$ArrayPad$[ebp], eax
  00032	56		 push	 esi
  00033	50		 push	 eax
  00034	8d 45 f4	 lea	 eax, DWORD PTR __$EHRec$[ebp]
  00037	64 a3 00 00 00
	00		 mov	 DWORD PTR fs:0, eax
  0003d	8b 43 0c	 mov	 eax, DWORD PTR _poArgs$[ebx]

; 384  : 	int nInfo;
; 385  : 	if (!PyTuple_GetInteger(poArgs, 0, &nInfo))

  00040	8d 4d d0	 lea	 ecx, DWORD PTR _nInfo$[ebp]
  00043	51		 push	 ecx
  00044	6a 00		 push	 0
  00046	50		 push	 eax
  00047	e8 00 00 00 00	 call	 ?PyTuple_GetInteger@@YA_NPAU_object@@HPAH@Z ; PyTuple_GetInteger
  0004c	83 c4 0c	 add	 esp, 12			; 0000000cH
  0004f	84 c0		 test	 al, al
  00051	75 0f		 jne	 SHORT $LN2@appGetInfo

; 386  : 		return Py_BuildException();

  00053	6a 00		 push	 0
  00055	e8 00 00 00 00	 call	 ?Py_BuildException@@YAPAU_object@@PBDZZ ; Py_BuildException
  0005a	83 c4 04	 add	 esp, 4
  0005d	e9 a1 00 00 00	 jmp	 $LN1@appGetInfo
$LN2@appGetInfo:
  00062	0f 57 c0	 xorps	 xmm0, xmm0
; File C:\Program Files\Microsoft Visual Studio\2022\Community\VC\Tools\MSVC\14.44.35207\include\xstring

; 860  :         _My_data._Mysize = 0;

  00065	c7 45 e4 00 00
	00 00		 mov	 DWORD PTR _stInfo$[ebp+16], 0

; 493  :         _CONSTEXPR20 _Bxty() noexcept : _Buf() {} // user-provided, for fancy pointers

  0006c	0f 11 45 d4	 movups	 XMMWORD PTR _stInfo$[ebp], xmm0

; 861  :         _My_data._Myres  = _Small_string_capacity;

  00070	c7 45 e8 0f 00
	00 00		 mov	 DWORD PTR _stInfo$[ebp+20], 15 ; 0000000fH

; 862  :         _My_data._Activate_SSO_buffer();
; 863  : 
; 864  :         // the _Traits::assign is last so the codegen doesn't think the char write can alias this
; 865  :         _Traits::assign(_My_data._Bx._Buf[0], _Elem());

  00077	c6 45 d4 00	 mov	 BYTE PTR _stInfo$[ebp], 0
; File C:\Anka2Project\Anka2Project\Source\Binary\source\UserInterface\PythonApplicationModule.cpp

; 388  : 	std::string stInfo;

  0007b	c7 45 fc 00 00
	00 00		 mov	 DWORD PTR __$EHRec$[ebp+8], 0
; File C:\Anka2Project\Anka2Project\Source\Binary\source\UserInterface\PythonApplication.h

; 213  : 			assert(ms_pInstance != nullptr);

  00082	8b 0d 00 00 00
	00		 mov	 ecx, DWORD PTR ?ms_pInstance@CPythonApplication@@1PAV1@A ; CPythonApplication::ms_pInstance
  00088	85 c9		 test	 ecx, ecx
  0008a	75 1d		 jne	 SHORT $LN27@appGetInfo
  0008c	68 d5 00 00 00	 push	 213			; 000000d5H
  00091	68 00 00 00 00	 push	 OFFSET ??_C@_1KI@NDOHEKDB@?$AAC?$AA?3?$AA?2?$AAA?$AAn?$AAk?$AAa?$AA2?$AAP?$AAr?$AAo?$AAj?$AAe?$AAc?$AAt@
  00096	68 00 00 00 00	 push	 OFFSET ??_C@_1DA@IANAENLC@?$AAm?$AAs?$AA_?$AAp?$AAI?$AAn?$AAs?$AAt?$AAa?$AAn?$AAc?$AAe?$AA?5?$AA?$CB?$AA?$DN@
  0009b	e8 00 00 00 00	 call	 __wassert
  000a0	8b 0d 00 00 00
	00		 mov	 ecx, DWORD PTR ?ms_pInstance@CPythonApplication@@1PAV1@A ; CPythonApplication::ms_pInstance
  000a6	83 c4 0c	 add	 esp, 12			; 0000000cH
$LN27@appGetInfo:
; File C:\Anka2Project\Anka2Project\Source\Binary\source\UserInterface\PythonApplicationModule.cpp

; 389  : 	CPythonApplication::Instance().GetInfo(nInfo, &stInfo);

  000a9	8d 45 d4	 lea	 eax, DWORD PTR _stInfo$[ebp]
  000ac	50		 push	 eax
  000ad	ff 75 d0	 push	 DWORD PTR _nInfo$[ebp]
  000b0	e8 00 00 00 00	 call	 ?GetInfo@CPythonApplication@@QAEXIPAV?$basic_string@DU?$char_traits@D@std@@V?$allocator@D@2@@std@@@Z ; CPythonApplication::GetInfo
; File C:\Program Files\Microsoft Visual Studio\2022\Community\VC\Tools\MSVC\14.44.35207\include\xstring

; 453  :         return _Myres > _Small_string_capacity;

  000b5	83 7d e8 0f	 cmp	 DWORD PTR _stInfo$[ebp+20], 15 ; 0000000fH

; 444  :         const value_type* _Result = _Bx._Buf;

  000b9	8d 45 d4	 lea	 eax, DWORD PTR _stInfo$[ebp]

; 445  :         if (_Large_mode_engaged()) {

  000bc	0f 47 45 d4	 cmova	 eax, DWORD PTR _stInfo$[ebp]
; File C:\Anka2Project\Anka2Project\Source\Binary\source\UserInterface\PythonApplicationModule.cpp

; 390  : 	return Py_BuildValue("s", stInfo.c_str());

  000c0	50		 push	 eax
  000c1	68 00 00 00 00	 push	 OFFSET ??_C@_01LKDEMHDF@s@
  000c6	ff 15 00 00 00
	00		 call	 DWORD PTR __imp__Py_BuildValue
; File C:\Program Files\Microsoft Visual Studio\2022\Community\VC\Tools\MSVC\14.44.35207\include\xstring

; 453  :         return _Myres > _Small_string_capacity;

  000cc	8b 4d e8	 mov	 ecx, DWORD PTR _stInfo$[ebp+20]
; File C:\Anka2Project\Anka2Project\Source\Binary\source\UserInterface\PythonApplicationModule.cpp

; 390  : 	return Py_BuildValue("s", stInfo.c_str());

  000cf	83 c4 08	 add	 esp, 8
  000d2	8b f0		 mov	 esi, eax
; File C:\Program Files\Microsoft Visual Studio\2022\Community\VC\Tools\MSVC\14.44.35207\include\xstring

; 453  :         return _Myres > _Small_string_capacity;

  000d4	83 f9 0f	 cmp	 ecx, 15			; 0000000fH

; 3083 :         if (_My_data._Large_mode_engaged()) {

  000d7	76 28		 jbe	 SHORT $LN56@appGetInfo
; File C:\Program Files\Microsoft Visual Studio\2022\Community\VC\Tools\MSVC\14.44.35207\include\xmemory

; 985  :         _STD _Deallocate<_New_alignof<_Ty>>(_Ptr, sizeof(_Ty) * _Count);

  000d9	8b 55 d4	 mov	 edx, DWORD PTR _stInfo$[ebp]
; File C:\Program Files\Microsoft Visual Studio\2022\Community\VC\Tools\MSVC\14.44.35207\include\xstring

; 852  :         _Al.deallocate(_Old_ptr, _Capacity + 1); // +1 for null terminator

  000dc	41		 inc	 ecx
; File C:\Program Files\Microsoft Visual Studio\2022\Community\VC\Tools\MSVC\14.44.35207\include\xmemory

; 985  :         _STD _Deallocate<_New_alignof<_Ty>>(_Ptr, sizeof(_Ty) * _Count);

  000dd	8b c2		 mov	 eax, edx

; 284  :         if (_Bytes >= _Big_allocation_threshold) {

  000df	81 f9 00 10 00
	00		 cmp	 ecx, 4096		; 00001000H
  000e5	72 10		 jb	 SHORT $LN64@appGetInfo

; 205  :     const uintptr_t _Ptr_container   = _Ptr_user[-1];

  000e7	8b 50 fc	 mov	 edx, DWORD PTR [eax-4]
  000ea	83 c1 23	 add	 ecx, 35			; 00000023H
  000ed	2b c2		 sub	 eax, edx

; 219  :     _STL_VERIFY(_Back_shift >= _Min_back_shift && _Back_shift <= _Non_user_size, "invalid argument");

  000ef	83 c0 fc	 add	 eax, -4			; fffffffcH
  000f2	83 f8 1f	 cmp	 eax, 31			; 0000001fH
  000f5	77 29		 ja	 SHORT $LN74@appGetInfo
$LN64@appGetInfo:

; 289  :         ::operator delete(_Ptr, _Bytes);

  000f7	51		 push	 ecx
  000f8	52		 push	 edx
  000f9	e8 00 00 00 00	 call	 ??3@YAXPAXI@Z		; operator delete
  000fe	83 c4 08	 add	 esp, 8
$LN56@appGetInfo:
; File C:\Anka2Project\Anka2Project\Source\Binary\source\UserInterface\PythonApplicationModule.cpp

; 390  : 	return Py_BuildValue("s", stInfo.c_str());

  00101	8b c6		 mov	 eax, esi
$LN1@appGetInfo:

; 391  : }

  00103	8b 4d f4	 mov	 ecx, DWORD PTR __$EHRec$[ebp]
  00106	64 89 0d 00 00
	00 00		 mov	 DWORD PTR fs:0, ecx
  0010d	59		 pop	 ecx
  0010e	5e		 pop	 esi
  0010f	8b 4d ec	 mov	 ecx, DWORD PTR __$ArrayPad$[ebp]
  00112	33 cd		 xor	 ecx, ebp
  00114	e8 00 00 00 00	 call	 @__security_check_cookie@4
  00119	8b e5		 mov	 esp, ebp
  0011b	5d		 pop	 ebp
  0011c	8b e3		 mov	 esp, ebx
  0011e	5b		 pop	 ebx
  0011f	c3		 ret	 0
$LN74@appGetInfo:
; File C:\Program Files\Microsoft Visual Studio\2022\Community\VC\Tools\MSVC\14.44.35207\include\xmemory

; 219  :     _STL_VERIFY(_Back_shift >= _Min_back_shift && _Back_shift <= _Non_user_size, "invalid argument");

  00120	6a 00		 push	 0
  00122	6a 00		 push	 0
  00124	6a 00		 push	 0
  00126	6a 00		 push	 0
  00128	6a 00		 push	 0
  0012a	e8 00 00 00 00	 call	 __invoke_watson
$LN72@appGetInfo:
  0012f	cc		 int	 3
_TEXT	ENDS
;	COMDAT text$x
text$x	SEGMENT
__unwindfunclet$?appGetInfo@@YAPAU_object@@PAU1@0@Z$0:
  00000	8d 4d d4	 lea	 ecx, DWORD PTR _stInfo$[ebp]
  00003	e9 00 00 00 00	 jmp	 ??1?$basic_string@DU?$char_traits@D@std@@V?$allocator@D@2@@std@@QAE@XZ ; std::basic_string<char,std::char_traits<char>,std::allocator<char> >::~basic_string<char,std::char_traits<char>,std::allocator<char> >
  00008	cc		 int	 3
  00009	cc		 int	 3
  0000a	cc		 int	 3
  0000b	cc		 int	 3
  0000c	cc		 int	 3
__ehhandler$?appGetInfo@@YAPAU_object@@PAU1@0@Z:
  0000d	90		 npad	 1
  0000e	90		 npad	 1
  0000f	8b 54 24 08	 mov	 edx, DWORD PTR [esp+8]
  00013	8d 42 0c	 lea	 eax, DWORD PTR [edx+12]
  00016	8b 4a d0	 mov	 ecx, DWORD PTR [edx-48]
  00019	33 c8		 xor	 ecx, eax
  0001b	e8 00 00 00 00	 call	 @__security_check_cookie@4
  00020	8b 4a f8	 mov	 ecx, DWORD PTR [edx-8]
  00023	33 c8		 xor	 ecx, eax
  00025	e8 00 00 00 00	 call	 @__security_check_cookie@4
  0002a	b8 00 00 00 00	 mov	 eax, OFFSET __ehfuncinfo$?appGetInfo@@YAPAU_object@@PAU1@0@Z
  0002f	e9 00 00 00 00	 jmp	 ___CxxFrameHandler3
text$x	ENDS
?appGetInfo@@YAPAU_object@@PAU1@0@Z ENDP		; appGetInfo
; Function compile flags: /Ogtp
; File C:\Anka2Project\Anka2Project\Source\Binary\source\UserInterface\PythonApplicationModule.cpp
; File C:\Anka2Project\Anka2Project\Source\Binary\source\UserInterface\PythonApplication.h
; File C:\Anka2Project\Anka2Project\Source\Binary\source\UserInterface\PythonApplicationModule.cpp
;	COMDAT ?appProcess@@YAPAU_object@@PAU1@0@Z
_TEXT	SEGMENT
_poSelf$ = 8						; size = 4
_poArgs$ = 12						; size = 4
?appProcess@@YAPAU_object@@PAU1@0@Z PROC		; appProcess, COMDAT

; 394  : {

  00000	51		 push	 ecx
; File C:\Anka2Project\Anka2Project\Source\Binary\source\UserInterface\PythonApplication.h

; 213  : 			assert(ms_pInstance != nullptr);

  00001	8b 0d 00 00 00
	00		 mov	 ecx, DWORD PTR ?ms_pInstance@CPythonApplication@@1PAV1@A ; CPythonApplication::ms_pInstance
  00007	85 c9		 test	 ecx, ecx
  00009	75 1d		 jne	 SHORT $LN6@appProcess
  0000b	68 d5 00 00 00	 push	 213			; 000000d5H
  00010	68 00 00 00 00	 push	 OFFSET ??_C@_1KI@NDOHEKDB@?$AAC?$AA?3?$AA?2?$AAA?$AAn?$AAk?$AAa?$AA2?$AAP?$AAr?$AAo?$AAj?$AAe?$AAc?$AAt@
  00015	68 00 00 00 00	 push	 OFFSET ??_C@_1DA@IANAENLC@?$AAm?$AAs?$AA_?$AAp?$AAI?$AAn?$AAs?$AAt?$AAa?$AAn?$AAc?$AAe?$AA?5?$AA?$CB?$AA?$DN@
  0001a	e8 00 00 00 00	 call	 __wassert
  0001f	8b 0d 00 00 00
	00		 mov	 ecx, DWORD PTR ?ms_pInstance@CPythonApplication@@1PAV1@A ; CPythonApplication::ms_pInstance
  00025	83 c4 0c	 add	 esp, 12			; 0000000cH
$LN6@appProcess:
; File C:\Anka2Project\Anka2Project\Source\Binary\source\UserInterface\PythonApplicationModule.cpp

; 395  : 	if (CPythonApplication::Instance().Process())

  00028	e8 00 00 00 00	 call	 ?Process@CPythonApplication@@QAE_NXZ ; CPythonApplication::Process
  0002d	84 c0		 test	 al, al
  0002f	74 12		 je	 SHORT $LN2@appProcess

; 396  : 		return Py_BuildValue("i", 1);

  00031	6a 01		 push	 1

; 399  : }

  00033	68 00 00 00 00	 push	 OFFSET ??_C@_01KBJDNOO@i@
  00038	ff 15 00 00 00
	00		 call	 DWORD PTR __imp__Py_BuildValue
  0003e	83 c4 08	 add	 esp, 8
  00041	59		 pop	 ecx
  00042	c3		 ret	 0
$LN2@appProcess:

; 397  : 
; 398  : 	return Py_BuildValue("i", 0);

  00043	6a 00		 push	 0

; 399  : }

  00045	68 00 00 00 00	 push	 OFFSET ??_C@_01KBJDNOO@i@
  0004a	ff 15 00 00 00
	00		 call	 DWORD PTR __imp__Py_BuildValue
  00050	83 c4 08	 add	 esp, 8
  00053	59		 pop	 ecx
  00054	c3		 ret	 0
?appProcess@@YAPAU_object@@PAU1@0@Z ENDP		; appProcess
_TEXT	ENDS
; Function compile flags: /Ogtp
; File C:\Anka2Project\Anka2Project\Source\Binary\source\UserInterface\PythonApplicationModule.cpp
; File C:\Anka2Project\Anka2Project\Source\Binary\source\UserInterface\PythonApplication.h
; File C:\Anka2Project\Anka2Project\Source\Binary\source\UserInterface\PythonApplicationModule.cpp
;	COMDAT ?appGetCamera@@YAPAU_object@@PAU1@0@Z
_TEXT	SEGMENT
_DestinationHeight$ = -16				; size = 4
_Rotation$ = -12					; size = 4
_Pitch$ = -8						; size = 4
_Distance$ = -4						; size = 4
_poSelf$ = 8						; size = 4
_poArgs$ = 12						; size = 4
?appGetCamera@@YAPAU_object@@PAU1@0@Z PROC		; appGetCamera, COMDAT

; 436  : {

  00000	55		 push	 ebp
  00001	8b ec		 mov	 ebp, esp
  00003	83 e4 c0	 and	 esp, -64		; ffffffc0H
  00006	83 ec 40	 sub	 esp, 64			; 00000040H
; File C:\Anka2Project\Anka2Project\Source\Binary\source\UserInterface\PythonApplication.h

; 213  : 			assert(ms_pInstance != nullptr);

  00009	83 3d 00 00 00
	00 00		 cmp	 DWORD PTR ?ms_pInstance@CPythonApplication@@1PAV1@A, 0 ; CPythonApplication::ms_pInstance
  00010	75 17		 jne	 SHORT $LN5@appGetCame
  00012	68 d5 00 00 00	 push	 213			; 000000d5H
  00017	68 00 00 00 00	 push	 OFFSET ??_C@_1KI@NDOHEKDB@?$AAC?$AA?3?$AA?2?$AAA?$AAn?$AAk?$AAa?$AA2?$AAP?$AAr?$AAo?$AAj?$AAe?$AAc?$AAt@
  0001c	68 00 00 00 00	 push	 OFFSET ??_C@_1DA@IANAENLC@?$AAm?$AAs?$AA_?$AAp?$AAI?$AAn?$AAs?$AAt?$AAa?$AAn?$AAc?$AAe?$AA?5?$AA?$CB?$AA?$DN@
  00021	e8 00 00 00 00	 call	 __wassert
  00026	83 c4 0c	 add	 esp, 12			; 0000000cH
$LN5@appGetCame:
; File C:\Anka2Project\Anka2Project\Source\Binary\source\UserInterface\PythonApplicationModule.cpp

; 438  : 	CPythonApplication::Instance().GetCamera(&Distance, &Pitch, &Rotation, &DestinationHeight);

  00029	8d 44 24 30	 lea	 eax, DWORD PTR _DestinationHeight$[esp+64]
  0002d	50		 push	 eax
  0002e	8d 44 24 38	 lea	 eax, DWORD PTR _Rotation$[esp+68]
  00032	50		 push	 eax
  00033	8d 44 24 40	 lea	 eax, DWORD PTR _Pitch$[esp+72]
  00037	50		 push	 eax
  00038	8d 44 24 48	 lea	 eax, DWORD PTR _Distance$[esp+76]
  0003c	50		 push	 eax
  0003d	e8 00 00 00 00	 call	 ?GetCamera@CPythonApplication@@QAEXPAM000@Z ; CPythonApplication::GetCamera
  00042	f3 0f 10 44 24
	30		 movss	 xmm0, DWORD PTR _DestinationHeight$[esp+64]

; 439  : 
; 440  : 	return Py_BuildValue("ffff", Distance, Pitch, Rotation, DestinationHeight);

  00048	83 ec 20	 sub	 esp, 32			; 00000020H
  0004b	0f 5a c0	 cvtps2pd xmm0, xmm0
  0004e	f2 0f 11 44 24
	18		 movsd	 QWORD PTR [esp+24], xmm0
  00054	f3 0f 10 44 24
	54		 movss	 xmm0, DWORD PTR _Rotation$[esp+96]
  0005a	0f 5a c0	 cvtps2pd xmm0, xmm0
  0005d	f2 0f 11 44 24
	10		 movsd	 QWORD PTR [esp+16], xmm0
  00063	f3 0f 10 44 24
	58		 movss	 xmm0, DWORD PTR _Pitch$[esp+96]
  00069	0f 5a c0	 cvtps2pd xmm0, xmm0
  0006c	f2 0f 11 44 24
	08		 movsd	 QWORD PTR [esp+8], xmm0
  00072	f3 0f 10 44 24
	5c		 movss	 xmm0, DWORD PTR _Distance$[esp+96]
  00078	0f 5a c0	 cvtps2pd xmm0, xmm0
  0007b	f2 0f 11 04 24	 movsd	 QWORD PTR [esp], xmm0
  00080	68 00 00 00 00	 push	 OFFSET ??_C@_04EOBPFJGD@ffff@
  00085	ff 15 00 00 00
	00		 call	 DWORD PTR __imp__Py_BuildValue
  0008b	83 c4 24	 add	 esp, 36			; 00000024H

; 441  : }

  0008e	8b e5		 mov	 esp, ebp
  00090	5d		 pop	 ebp
  00091	c3		 ret	 0
?appGetCamera@@YAPAU_object@@PAU1@0@Z ENDP		; appGetCamera
_TEXT	ENDS
; Function compile flags: /Ogtp
; File C:\Anka2Project\Anka2Project\Source\Binary\source\UserInterface\PythonApplicationModule.cpp
; File C:\Anka2Project\Anka2Project\Source\Binary\source\UserInterface\PythonApplication.h
; File C:\Anka2Project\Anka2Project\Source\Binary\source\UserInterface\PythonApplicationModule.cpp
;	COMDAT ?appGetCameraPitch@@YAPAU_object@@PAU1@0@Z
_TEXT	SEGMENT
_poSelf$ = 8						; size = 4
_poArgs$ = 12						; size = 4
?appGetCameraPitch@@YAPAU_object@@PAU1@0@Z PROC		; appGetCameraPitch, COMDAT

; 444  : {

  00000	55		 push	 ebp
  00001	8b ec		 mov	 ebp, esp
  00003	83 e4 c0	 and	 esp, -64		; ffffffc0H
; File C:\Anka2Project\Anka2Project\Source\Binary\source\UserInterface\PythonApplication.h

; 213  : 			assert(ms_pInstance != nullptr);

  00006	83 3d 00 00 00
	00 00		 cmp	 DWORD PTR ?ms_pInstance@CPythonApplication@@1PAV1@A, 0 ; CPythonApplication::ms_pInstance
  0000d	75 17		 jne	 SHORT $LN5@appGetCame
  0000f	68 d5 00 00 00	 push	 213			; 000000d5H
  00014	68 00 00 00 00	 push	 OFFSET ??_C@_1KI@NDOHEKDB@?$AAC?$AA?3?$AA?2?$AAA?$AAn?$AAk?$AAa?$AA2?$AAP?$AAr?$AAo?$AAj?$AAe?$AAc?$AAt@
  00019	68 00 00 00 00	 push	 OFFSET ??_C@_1DA@IANAENLC@?$AAm?$AAs?$AA_?$AAp?$AAI?$AAn?$AAs?$AAt?$AAa?$AAn?$AAc?$AAe?$AA?5?$AA?$CB?$AA?$DN@
  0001e	e8 00 00 00 00	 call	 __wassert
  00023	83 c4 0c	 add	 esp, 12			; 0000000cH
$LN5@appGetCame:
; File C:\Anka2Project\Anka2Project\Source\Binary\source\UserInterface\PythonApplicationModule.cpp

; 445  : 	return Py_BuildValue("f", CPythonApplication::Instance().GetPitch());

  00026	e8 00 00 00 00	 call	 ?GetPitch@CPythonApplication@@QAEMXZ ; CPythonApplication::GetPitch
  0002b	f3 0f 5a c0	 cvtss2sd xmm0, xmm0
  0002f	83 ec 08	 sub	 esp, 8
  00032	f2 0f 11 04 24	 movsd	 QWORD PTR [esp], xmm0
  00037	68 00 00 00 00	 push	 OFFSET ??_C@_01INIBCBCB@f@
  0003c	ff 15 00 00 00
	00		 call	 DWORD PTR __imp__Py_BuildValue
  00042	83 c4 0c	 add	 esp, 12			; 0000000cH

; 446  : }

  00045	8b e5		 mov	 esp, ebp
  00047	5d		 pop	 ebp
  00048	c3		 ret	 0
?appGetCameraPitch@@YAPAU_object@@PAU1@0@Z ENDP		; appGetCameraPitch
_TEXT	ENDS
; Function compile flags: /Ogtp
; File C:\Anka2Project\Anka2Project\Source\Binary\source\UserInterface\PythonApplicationModule.cpp
; File C:\Anka2Project\Anka2Project\Source\Binary\source\UserInterface\PythonApplication.h
; File C:\Anka2Project\Anka2Project\Source\Binary\source\UserInterface\PythonApplicationModule.cpp
;	COMDAT ?appGetCameraRotation@@YAPAU_object@@PAU1@0@Z
_TEXT	SEGMENT
_poSelf$ = 8						; size = 4
_poArgs$ = 12						; size = 4
?appGetCameraRotation@@YAPAU_object@@PAU1@0@Z PROC	; appGetCameraRotation, COMDAT

; 449  : {

  00000	55		 push	 ebp
  00001	8b ec		 mov	 ebp, esp
  00003	83 e4 c0	 and	 esp, -64		; ffffffc0H
; File C:\Anka2Project\Anka2Project\Source\Binary\source\UserInterface\PythonApplication.h

; 213  : 			assert(ms_pInstance != nullptr);

  00006	83 3d 00 00 00
	00 00		 cmp	 DWORD PTR ?ms_pInstance@CPythonApplication@@1PAV1@A, 0 ; CPythonApplication::ms_pInstance
  0000d	75 17		 jne	 SHORT $LN5@appGetCame
  0000f	68 d5 00 00 00	 push	 213			; 000000d5H
  00014	68 00 00 00 00	 push	 OFFSET ??_C@_1KI@NDOHEKDB@?$AAC?$AA?3?$AA?2?$AAA?$AAn?$AAk?$AAa?$AA2?$AAP?$AAr?$AAo?$AAj?$AAe?$AAc?$AAt@
  00019	68 00 00 00 00	 push	 OFFSET ??_C@_1DA@IANAENLC@?$AAm?$AAs?$AA_?$AAp?$AAI?$AAn?$AAs?$AAt?$AAa?$AAn?$AAc?$AAe?$AA?5?$AA?$CB?$AA?$DN@
  0001e	e8 00 00 00 00	 call	 __wassert
  00023	83 c4 0c	 add	 esp, 12			; 0000000cH
$LN5@appGetCame:
; File C:\Anka2Project\Anka2Project\Source\Binary\source\UserInterface\PythonApplicationModule.cpp

; 450  : 	return Py_BuildValue("f", CPythonApplication::Instance().GetRotation());

  00026	e8 00 00 00 00	 call	 ?GetRotation@CPythonApplication@@QAEMXZ ; CPythonApplication::GetRotation
  0002b	f3 0f 5a c0	 cvtss2sd xmm0, xmm0
  0002f	83 ec 08	 sub	 esp, 8
  00032	f2 0f 11 04 24	 movsd	 QWORD PTR [esp], xmm0
  00037	68 00 00 00 00	 push	 OFFSET ??_C@_01INIBCBCB@f@
  0003c	ff 15 00 00 00
	00		 call	 DWORD PTR __imp__Py_BuildValue
  00042	83 c4 0c	 add	 esp, 12			; 0000000cH

; 451  : }

  00045	8b e5		 mov	 esp, ebp
  00047	5d		 pop	 ebp
  00048	c3		 ret	 0
?appGetCameraRotation@@YAPAU_object@@PAU1@0@Z ENDP	; appGetCameraRotation
_TEXT	ENDS
; Function compile flags: /Ogtp
; File C:\Anka2Project\Anka2Project\Source\Binary\source\UserInterface\PythonApplicationModule.cpp
; File C:\Anka2Project\Anka2Project\Source\Binary\source\UserInterface\PythonApplication.h
; File C:\Anka2Project\Anka2Project\Source\Binary\source\UserInterface\PythonApplicationModule.cpp
;	COMDAT ?appGetTime@@YAPAU_object@@PAU1@0@Z
_TEXT	SEGMENT
_poSelf$ = 8						; size = 4
_poArgs$ = 12						; size = 4
?appGetTime@@YAPAU_object@@PAU1@0@Z PROC		; appGetTime, COMDAT

; 454  : {

  00000	55		 push	 ebp
  00001	8b ec		 mov	 ebp, esp
  00003	83 e4 c0	 and	 esp, -64		; ffffffc0H
; File C:\Anka2Project\Anka2Project\Source\Binary\source\UserInterface\PythonApplication.h

; 213  : 			assert(ms_pInstance != nullptr);

  00006	8b 0d 00 00 00
	00		 mov	 ecx, DWORD PTR ?ms_pInstance@CPythonApplication@@1PAV1@A ; CPythonApplication::ms_pInstance
  0000c	85 c9		 test	 ecx, ecx
  0000e	75 1d		 jne	 SHORT $LN5@appGetTime
  00010	68 d5 00 00 00	 push	 213			; 000000d5H
  00015	68 00 00 00 00	 push	 OFFSET ??_C@_1KI@NDOHEKDB@?$AAC?$AA?3?$AA?2?$AAA?$AAn?$AAk?$AAa?$AA2?$AAP?$AAr?$AAo?$AAj?$AAe?$AAc?$AAt@
  0001a	68 00 00 00 00	 push	 OFFSET ??_C@_1DA@IANAENLC@?$AAm?$AAs?$AA_?$AAp?$AAI?$AAn?$AAs?$AAt?$AAa?$AAn?$AAc?$AAe?$AA?5?$AA?$CB?$AA?$DN@
  0001f	e8 00 00 00 00	 call	 __wassert
  00024	8b 0d 00 00 00
	00		 mov	 ecx, DWORD PTR ?ms_pInstance@CPythonApplication@@1PAV1@A ; CPythonApplication::ms_pInstance
  0002a	83 c4 0c	 add	 esp, 12			; 0000000cH
$LN5@appGetTime:
; File C:\Anka2Project\Anka2Project\Source\Binary\source\UserInterface\PythonApplicationModule.cpp

; 455  : 	return Py_BuildValue("f", CPythonApplication::Instance().GetGlobalTime());

  0002d	8b 41 20	 mov	 eax, DWORD PTR [ecx+32]
  00030	83 c1 20	 add	 ecx, 32			; 00000020H
  00033	8b 40 08	 mov	 eax, DWORD PTR [eax+8]
  00036	ff d0		 call	 eax
  00038	83 ec 08	 sub	 esp, 8
  0003b	dd 1c 24	 fstp	 QWORD PTR [esp]
  0003e	68 00 00 00 00	 push	 OFFSET ??_C@_01INIBCBCB@f@
  00043	ff 15 00 00 00
	00		 call	 DWORD PTR __imp__Py_BuildValue
  00049	83 c4 0c	 add	 esp, 12			; 0000000cH

; 456  : }

  0004c	8b e5		 mov	 esp, ebp
  0004e	5d		 pop	 ebp
  0004f	c3		 ret	 0
?appGetTime@@YAPAU_object@@PAU1@0@Z ENDP		; appGetTime
_TEXT	ENDS
; Function compile flags: /Ogtp
; File C:\Anka2Project\Anka2Project\Source\Binary\source\UserInterface\PythonApplicationModule.cpp
; File C:\Anka2Project\Anka2Project\Source\Binary\source\UserInterface\PythonApplication.h
; File C:\Anka2Project\Anka2Project\Source\Binary\source\UserInterface\PythonApplicationModule.cpp
;	COMDAT ?appGetGlobalTime@@YAPAU_object@@PAU1@0@Z
_TEXT	SEGMENT
_poSelf$ = 8						; size = 4
_poArgs$ = 12						; size = 4
?appGetGlobalTime@@YAPAU_object@@PAU1@0@Z PROC		; appGetGlobalTime, COMDAT
; File C:\Anka2Project\Anka2Project\Source\Binary\source\UserInterface\PythonApplication.h

; 213  : 			assert(ms_pInstance != nullptr);

  00000	8b 0d 00 00 00
	00		 mov	 ecx, DWORD PTR ?ms_pInstance@CPythonApplication@@1PAV1@A ; CPythonApplication::ms_pInstance
  00006	85 c9		 test	 ecx, ecx
  00008	75 1d		 jne	 SHORT $LN5@appGetGlob
  0000a	68 d5 00 00 00	 push	 213			; 000000d5H
  0000f	68 00 00 00 00	 push	 OFFSET ??_C@_1KI@NDOHEKDB@?$AAC?$AA?3?$AA?2?$AAA?$AAn?$AAk?$AAa?$AA2?$AAP?$AAr?$AAo?$AAj?$AAe?$AAc?$AAt@
  00014	68 00 00 00 00	 push	 OFFSET ??_C@_1DA@IANAENLC@?$AAm?$AAs?$AA_?$AAp?$AAI?$AAn?$AAs?$AAt?$AAa?$AAn?$AAc?$AAe?$AA?5?$AA?$CB?$AA?$DN@
  00019	e8 00 00 00 00	 call	 __wassert
  0001e	8b 0d 00 00 00
	00		 mov	 ecx, DWORD PTR ?ms_pInstance@CPythonApplication@@1PAV1@A ; CPythonApplication::ms_pInstance
  00024	83 c4 0c	 add	 esp, 12			; 0000000cH
$LN5@appGetGlob:
; File C:\Anka2Project\Anka2Project\Source\Binary\source\UserInterface\PythonApplicationModule.cpp

; 460  : 	return Py_BuildValue("i", CPythonApplication::Instance().GetServerTime());

  00027	e8 00 00 00 00	 call	 ?GetServerTime@CPythonApplication@@QAEJXZ ; CPythonApplication::GetServerTime
  0002c	50		 push	 eax
  0002d	68 00 00 00 00	 push	 OFFSET ??_C@_01KBJDNOO@i@
  00032	ff 15 00 00 00
	00		 call	 DWORD PTR __imp__Py_BuildValue
  00038	83 c4 08	 add	 esp, 8

; 461  : }

  0003b	c3		 ret	 0
?appGetGlobalTime@@YAPAU_object@@PAU1@0@Z ENDP		; appGetGlobalTime
_TEXT	ENDS
; Function compile flags: /Ogtp
; File C:\Anka2Project\Anka2Project\Source\Binary\source\UserInterface\PythonApplicationModule.cpp
; File C:\Anka2Project\Anka2Project\Source\Binary\source\UserInterface\PythonApplication.h
; File C:\Anka2Project\Anka2Project\Source\Binary\source\UserInterface\PythonApplicationModule.cpp
;	COMDAT ?appGetGlobalTimeStamp@@YAPAU_object@@PAU1@0@Z
_TEXT	SEGMENT
_poSelf$ = 8						; size = 4
_poArgs$ = 12						; size = 4
?appGetGlobalTimeStamp@@YAPAU_object@@PAU1@0@Z PROC	; appGetGlobalTimeStamp, COMDAT
; File C:\Anka2Project\Anka2Project\Source\Binary\source\UserInterface\PythonApplication.h

; 213  : 			assert(ms_pInstance != nullptr);

  00000	8b 0d 00 00 00
	00		 mov	 ecx, DWORD PTR ?ms_pInstance@CPythonApplication@@1PAV1@A ; CPythonApplication::ms_pInstance
  00006	85 c9		 test	 ecx, ecx
  00008	75 1d		 jne	 SHORT $LN5@appGetGlob
  0000a	68 d5 00 00 00	 push	 213			; 000000d5H
  0000f	68 00 00 00 00	 push	 OFFSET ??_C@_1KI@NDOHEKDB@?$AAC?$AA?3?$AA?2?$AAA?$AAn?$AAk?$AAa?$AA2?$AAP?$AAr?$AAo?$AAj?$AAe?$AAc?$AAt@
  00014	68 00 00 00 00	 push	 OFFSET ??_C@_1DA@IANAENLC@?$AAm?$AAs?$AA_?$AAp?$AAI?$AAn?$AAs?$AAt?$AAa?$AAn?$AAc?$AAe?$AA?5?$AA?$CB?$AA?$DN@
  00019	e8 00 00 00 00	 call	 __wassert
  0001e	8b 0d 00 00 00
	00		 mov	 ecx, DWORD PTR ?ms_pInstance@CPythonApplication@@1PAV1@A ; CPythonApplication::ms_pInstance
  00024	83 c4 0c	 add	 esp, 12			; 0000000cH
$LN5@appGetGlob:
; File C:\Anka2Project\Anka2Project\Source\Binary\source\UserInterface\PythonApplicationModule.cpp

; 465  : 	return Py_BuildValue("i", CPythonApplication::Instance().GetServerTimeStamp());

  00027	e8 00 00 00 00	 call	 ?GetServerTimeStamp@CPythonApplication@@QAEJXZ ; CPythonApplication::GetServerTimeStamp
  0002c	50		 push	 eax
  0002d	68 00 00 00 00	 push	 OFFSET ??_C@_01KBJDNOO@i@
  00032	ff 15 00 00 00
	00		 call	 DWORD PTR __imp__Py_BuildValue
  00038	83 c4 08	 add	 esp, 8

; 466  : }

  0003b	c3		 ret	 0
?appGetGlobalTimeStamp@@YAPAU_object@@PAU1@0@Z ENDP	; appGetGlobalTimeStamp
_TEXT	ENDS
; Function compile flags: /Ogtp
; File C:\Anka2Project\Anka2Project\Source\Binary\source\UserInterface\PythonApplicationModule.cpp
; File C:\Anka2Project\Anka2Project\Source\Binary\source\UserInterface\PythonApplication.h
; File C:\Anka2Project\Anka2Project\Source\Binary\source\UserInterface\PythonApplicationModule.cpp
;	COMDAT ?appGetUpdateFPS@@YAPAU_object@@PAU1@0@Z
_TEXT	SEGMENT
_poSelf$ = 8						; size = 4
_poArgs$ = 12						; size = 4
?appGetUpdateFPS@@YAPAU_object@@PAU1@0@Z PROC		; appGetUpdateFPS, COMDAT
; File C:\Anka2Project\Anka2Project\Source\Binary\source\UserInterface\PythonApplication.h

; 213  : 			assert(ms_pInstance != nullptr);

  00000	a1 00 00 00 00	 mov	 eax, DWORD PTR ?ms_pInstance@CPythonApplication@@1PAV1@A ; CPythonApplication::ms_pInstance
  00005	85 c0		 test	 eax, eax
  00007	75 1c		 jne	 SHORT $LN5@appGetUpda
  00009	68 d5 00 00 00	 push	 213			; 000000d5H
  0000e	68 00 00 00 00	 push	 OFFSET ??_C@_1KI@NDOHEKDB@?$AAC?$AA?3?$AA?2?$AAA?$AAn?$AAk?$AAa?$AA2?$AAP?$AAr?$AAo?$AAj?$AAe?$AAc?$AAt@
  00013	68 00 00 00 00	 push	 OFFSET ??_C@_1DA@IANAENLC@?$AAm?$AAs?$AA_?$AAp?$AAI?$AAn?$AAs?$AAt?$AAa?$AAn?$AAc?$AAe?$AA?5?$AA?$CB?$AA?$DN@
  00018	e8 00 00 00 00	 call	 __wassert
  0001d	a1 00 00 00 00	 mov	 eax, DWORD PTR ?ms_pInstance@CPythonApplication@@1PAV1@A ; CPythonApplication::ms_pInstance
  00022	83 c4 0c	 add	 esp, 12			; 0000000cH
$LN5@appGetUpda:
; File C:\Anka2Project\Anka2Project\Source\Binary\source\UserInterface\PythonApplicationModule.cpp

; 470  : 	return Py_BuildValue("i", CPythonApplication::Instance().GetUpdateFPS());

  00025	ff b0 a4 d7 03
	00		 push	 DWORD PTR [eax+251812]
  0002b	68 00 00 00 00	 push	 OFFSET ??_C@_01KBJDNOO@i@
  00030	ff 15 00 00 00
	00		 call	 DWORD PTR __imp__Py_BuildValue
  00036	83 c4 08	 add	 esp, 8

; 471  : }

  00039	c3		 ret	 0
?appGetUpdateFPS@@YAPAU_object@@PAU1@0@Z ENDP		; appGetUpdateFPS
_TEXT	ENDS
; Function compile flags: /Ogtp
; File C:\Anka2Project\Anka2Project\Source\Binary\source\UserInterface\PythonApplicationModule.cpp
; File C:\Anka2Project\Anka2Project\Source\Binary\source\UserInterface\PythonApplication.h
; File C:\Anka2Project\Anka2Project\Source\Binary\source\UserInterface\PythonApplicationModule.cpp
;	COMDAT ?appGetRenderFPS@@YAPAU_object@@PAU1@0@Z
_TEXT	SEGMENT
_poSelf$ = 8						; size = 4
_poArgs$ = 12						; size = 4
?appGetRenderFPS@@YAPAU_object@@PAU1@0@Z PROC		; appGetRenderFPS, COMDAT
; File C:\Anka2Project\Anka2Project\Source\Binary\source\UserInterface\PythonApplication.h

; 213  : 			assert(ms_pInstance != nullptr);

  00000	a1 00 00 00 00	 mov	 eax, DWORD PTR ?ms_pInstance@CPythonApplication@@1PAV1@A ; CPythonApplication::ms_pInstance
  00005	85 c0		 test	 eax, eax
  00007	75 1c		 jne	 SHORT $LN5@appGetRend
  00009	68 d5 00 00 00	 push	 213			; 000000d5H
  0000e	68 00 00 00 00	 push	 OFFSET ??_C@_1KI@NDOHEKDB@?$AAC?$AA?3?$AA?2?$AAA?$AAn?$AAk?$AAa?$AA2?$AAP?$AAr?$AAo?$AAj?$AAe?$AAc?$AAt@
  00013	68 00 00 00 00	 push	 OFFSET ??_C@_1DA@IANAENLC@?$AAm?$AAs?$AA_?$AAp?$AAI?$AAn?$AAs?$AAt?$AAa?$AAn?$AAc?$AAe?$AA?5?$AA?$CB?$AA?$DN@
  00018	e8 00 00 00 00	 call	 __wassert
  0001d	a1 00 00 00 00	 mov	 eax, DWORD PTR ?ms_pInstance@CPythonApplication@@1PAV1@A ; CPythonApplication::ms_pInstance
  00022	83 c4 0c	 add	 esp, 12			; 0000000cH
$LN5@appGetRend:
; File C:\Anka2Project\Anka2Project\Source\Binary\source\UserInterface\PythonApplicationModule.cpp

; 475  : 	return Py_BuildValue("i", CPythonApplication::Instance().GetRenderFPS());

  00025	ff b0 a8 d7 03
	00		 push	 DWORD PTR [eax+251816]
  0002b	68 00 00 00 00	 push	 OFFSET ??_C@_01KBJDNOO@i@
  00030	ff 15 00 00 00
	00		 call	 DWORD PTR __imp__Py_BuildValue
  00036	83 c4 08	 add	 esp, 8

; 476  : }

  00039	c3		 ret	 0
?appGetRenderFPS@@YAPAU_object@@PAU1@0@Z ENDP		; appGetRenderFPS
_TEXT	ENDS
; Function compile flags: /Ogtp
; File C:\Anka2Project\Anka2Project\Source\Binary\source\UserInterface\PythonApplicationModule.cpp
; File C:\Anka2Project\Anka2Project\Source\Binary\source\UserInterface\PythonApplication.h
; File C:\Anka2Project\Anka2Project\Source\Binary\source\UserInterface\PythonApplicationModule.cpp
;	COMDAT ?appGetFaceSpeed@@YAPAU_object@@PAU1@0@Z
_TEXT	SEGMENT
_poSelf$ = 8						; size = 4
_poArgs$ = 12						; size = 4
?appGetFaceSpeed@@YAPAU_object@@PAU1@0@Z PROC		; appGetFaceSpeed, COMDAT

; 539  : {

  00000	55		 push	 ebp
  00001	8b ec		 mov	 ebp, esp
  00003	83 e4 c0	 and	 esp, -64		; ffffffc0H
; File C:\Anka2Project\Anka2Project\Source\Binary\source\UserInterface\PythonApplication.h

; 213  : 			assert(ms_pInstance != nullptr);

  00006	a1 00 00 00 00	 mov	 eax, DWORD PTR ?ms_pInstance@CPythonApplication@@1PAV1@A ; CPythonApplication::ms_pInstance
  0000b	85 c0		 test	 eax, eax
  0000d	75 1c		 jne	 SHORT $LN5@appGetFace
  0000f	68 d5 00 00 00	 push	 213			; 000000d5H
  00014	68 00 00 00 00	 push	 OFFSET ??_C@_1KI@NDOHEKDB@?$AAC?$AA?3?$AA?2?$AAA?$AAn?$AAk?$AAa?$AA2?$AAP?$AAr?$AAo?$AAj?$AAe?$AAc?$AAt@
  00019	68 00 00 00 00	 push	 OFFSET ??_C@_1DA@IANAENLC@?$AAm?$AAs?$AA_?$AAp?$AAI?$AAn?$AAs?$AAt?$AAa?$AAn?$AAc?$AAe?$AA?5?$AA?$CB?$AA?$DN@
  0001e	e8 00 00 00 00	 call	 __wassert
  00023	a1 00 00 00 00	 mov	 eax, DWORD PTR ?ms_pInstance@CPythonApplication@@1PAV1@A ; CPythonApplication::ms_pInstance
  00028	83 c4 0c	 add	 esp, 12			; 0000000cH
$LN5@appGetFace:
  0002b	f3 0f 10 80 90
	d7 03 00	 movss	 xmm0, DWORD PTR [eax+251792]
; File C:\Anka2Project\Anka2Project\Source\Binary\source\UserInterface\PythonApplicationModule.cpp

; 540  : 	return Py_BuildValue("f", CPythonApplication::Instance().GetFaceSpeed());

  00033	83 ec 08	 sub	 esp, 8
  00036	0f 5a c0	 cvtps2pd xmm0, xmm0
  00039	f2 0f 11 04 24	 movsd	 QWORD PTR [esp], xmm0
  0003e	68 00 00 00 00	 push	 OFFSET ??_C@_01INIBCBCB@f@
  00043	ff 15 00 00 00
	00		 call	 DWORD PTR __imp__Py_BuildValue
  00049	83 c4 0c	 add	 esp, 12			; 0000000cH

; 541  : }

  0004c	8b e5		 mov	 esp, ebp
  0004e	5d		 pop	 ebp
  0004f	c3		 ret	 0
?appGetFaceSpeed@@YAPAU_object@@PAU1@0@Z ENDP		; appGetFaceSpeed
_TEXT	ENDS
; Function compile flags: /Ogtp
; File C:\Anka2Project\Anka2Project\Source\Binary\source\UserInterface\PythonApplicationModule.cpp
; File C:\Anka2Project\Anka2Project\Source\Binary\source\UserInterface\PythonApplication.h
; File C:\Anka2Project\Anka2Project\Source\Binary\source\UserInterface\PythonApplicationModule.cpp
;	COMDAT ?appGetRenderTime@@YAPAU_object@@PAU1@0@Z
_TEXT	SEGMENT
_poSelf$ = 8						; size = 4
_poArgs$ = 12						; size = 4
?appGetRenderTime@@YAPAU_object@@PAU1@0@Z PROC		; appGetRenderTime, COMDAT

; 544  : {

  00000	55		 push	 ebp
  00001	8b ec		 mov	 ebp, esp
  00003	83 e4 c0	 and	 esp, -64		; ffffffc0H
; File C:\Anka2Project\Anka2Project\Source\Binary\source\UserInterface\PythonApplication.h

; 213  : 			assert(ms_pInstance != nullptr);

  00006	a1 00 00 00 00	 mov	 eax, DWORD PTR ?ms_pInstance@CPythonApplication@@1PAV1@A ; CPythonApplication::ms_pInstance
  0000b	85 c0		 test	 eax, eax
  0000d	75 1c		 jne	 SHORT $LN5@appGetRend
  0000f	68 d5 00 00 00	 push	 213			; 000000d5H
  00014	68 00 00 00 00	 push	 OFFSET ??_C@_1KI@NDOHEKDB@?$AAC?$AA?3?$AA?2?$AAA?$AAn?$AAk?$AAa?$AA2?$AAP?$AAr?$AAo?$AAj?$AAe?$AAc?$AAt@
  00019	68 00 00 00 00	 push	 OFFSET ??_C@_1DA@IANAENLC@?$AAm?$AAs?$AA_?$AAp?$AAI?$AAn?$AAs?$AAt?$AAa?$AAn?$AAc?$AAe?$AA?5?$AA?$CB?$AA?$DN@
  0001e	e8 00 00 00 00	 call	 __wassert
  00023	a1 00 00 00 00	 mov	 eax, DWORD PTR ?ms_pInstance@CPythonApplication@@1PAV1@A ; CPythonApplication::ms_pInstance
  00028	83 c4 0c	 add	 esp, 12			; 0000000cH
$LN5@appGetRend:
  0002b	f3 0f 10 80 b4
	d6 03 00	 movss	 xmm0, DWORD PTR [eax+251572]
; File C:\Anka2Project\Anka2Project\Source\Binary\source\UserInterface\PythonApplicationModule.cpp

; 545  : 	return Py_BuildValue("fi", 

  00033	ff b0 b8 d6 03
	00		 push	 DWORD PTR [eax+251576]
  00039	0f 5a c0	 cvtps2pd xmm0, xmm0
  0003c	83 ec 08	 sub	 esp, 8
  0003f	f2 0f 11 04 24	 movsd	 QWORD PTR [esp], xmm0
  00044	68 00 00 00 00	 push	 OFFSET ??_C@_02PINLEBJB@fi@
  00049	ff 15 00 00 00
	00		 call	 DWORD PTR __imp__Py_BuildValue
  0004f	83 c4 10	 add	 esp, 16			; 00000010H

; 546  : 		CPythonApplication::Instance().GetAveRenderTime(),
; 547  : 		CPythonApplication::Instance().GetCurRenderTime());
; 548  : }

  00052	8b e5		 mov	 esp, ebp
  00054	5d		 pop	 ebp
  00055	c3		 ret	 0
?appGetRenderTime@@YAPAU_object@@PAU1@0@Z ENDP		; appGetRenderTime
_TEXT	ENDS
; Function compile flags: /Ogtp
; File C:\Anka2Project\Anka2Project\Source\Binary\source\UserInterface\PythonApplicationModule.cpp
; File C:\Anka2Project\Anka2Project\Source\Binary\source\UserInterface\PythonApplication.h
; File C:\Anka2Project\Anka2Project\Source\Binary\source\UserInterface\PythonApplicationModule.cpp
;	COMDAT ?appGetUpdateTime@@YAPAU_object@@PAU1@0@Z
_TEXT	SEGMENT
_poSelf$ = 8						; size = 4
_poArgs$ = 12						; size = 4
?appGetUpdateTime@@YAPAU_object@@PAU1@0@Z PROC		; appGetUpdateTime, COMDAT
; File C:\Anka2Project\Anka2Project\Source\Binary\source\UserInterface\PythonApplication.h

; 213  : 			assert(ms_pInstance != nullptr);

  00000	a1 00 00 00 00	 mov	 eax, DWORD PTR ?ms_pInstance@CPythonApplication@@1PAV1@A ; CPythonApplication::ms_pInstance
  00005	85 c0		 test	 eax, eax
  00007	75 1c		 jne	 SHORT $LN5@appGetUpda
  00009	68 d5 00 00 00	 push	 213			; 000000d5H
  0000e	68 00 00 00 00	 push	 OFFSET ??_C@_1KI@NDOHEKDB@?$AAC?$AA?3?$AA?2?$AAA?$AAn?$AAk?$AAa?$AA2?$AAP?$AAr?$AAo?$AAj?$AAe?$AAc?$AAt@
  00013	68 00 00 00 00	 push	 OFFSET ??_C@_1DA@IANAENLC@?$AAm?$AAs?$AA_?$AAp?$AAI?$AAn?$AAs?$AAt?$AAa?$AAn?$AAc?$AAe?$AA?5?$AA?$CB?$AA?$DN@
  00018	e8 00 00 00 00	 call	 __wassert
  0001d	a1 00 00 00 00	 mov	 eax, DWORD PTR ?ms_pInstance@CPythonApplication@@1PAV1@A ; CPythonApplication::ms_pInstance
  00022	83 c4 0c	 add	 esp, 12			; 0000000cH
$LN5@appGetUpda:
; File C:\Anka2Project\Anka2Project\Source\Binary\source\UserInterface\PythonApplicationModule.cpp

; 552  : 	return Py_BuildValue("i", CPythonApplication::Instance().GetCurUpdateTime());

  00025	ff b0 bc d6 03
	00		 push	 DWORD PTR [eax+251580]
  0002b	68 00 00 00 00	 push	 OFFSET ??_C@_01KBJDNOO@i@
  00030	ff 15 00 00 00
	00		 call	 DWORD PTR __imp__Py_BuildValue
  00036	83 c4 08	 add	 esp, 8

; 553  : }

  00039	c3		 ret	 0
?appGetUpdateTime@@YAPAU_object@@PAU1@0@Z ENDP		; appGetUpdateTime
_TEXT	ENDS
; Function compile flags: /Ogtp
; File C:\Anka2Project\Anka2Project\Source\Binary\source\UserInterface\PythonApplicationModule.cpp
; File C:\Anka2Project\Anka2Project\Source\Binary\source\UserInterface\PythonApplication.h
; File C:\Anka2Project\Anka2Project\Source\Binary\source\UserInterface\PythonApplicationModule.cpp
;	COMDAT ?appGetLoad@@YAPAU_object@@PAU1@0@Z
_TEXT	SEGMENT
_poSelf$ = 8						; size = 4
_poArgs$ = 12						; size = 4
?appGetLoad@@YAPAU_object@@PAU1@0@Z PROC		; appGetLoad, COMDAT
; File C:\Anka2Project\Anka2Project\Source\Binary\source\UserInterface\PythonApplication.h

; 213  : 			assert(ms_pInstance != nullptr);

  00000	a1 00 00 00 00	 mov	 eax, DWORD PTR ?ms_pInstance@CPythonApplication@@1PAV1@A ; CPythonApplication::ms_pInstance
  00005	85 c0		 test	 eax, eax
  00007	75 1c		 jne	 SHORT $LN5@appGetLoad
  00009	68 d5 00 00 00	 push	 213			; 000000d5H
  0000e	68 00 00 00 00	 push	 OFFSET ??_C@_1KI@NDOHEKDB@?$AAC?$AA?3?$AA?2?$AAA?$AAn?$AAk?$AAa?$AA2?$AAP?$AAr?$AAo?$AAj?$AAe?$AAc?$AAt@
  00013	68 00 00 00 00	 push	 OFFSET ??_C@_1DA@IANAENLC@?$AAm?$AAs?$AA_?$AAp?$AAI?$AAn?$AAs?$AAt?$AAa?$AAn?$AAc?$AAe?$AA?5?$AA?$CB?$AA?$DN@
  00018	e8 00 00 00 00	 call	 __wassert
  0001d	a1 00 00 00 00	 mov	 eax, DWORD PTR ?ms_pInstance@CPythonApplication@@1PAV1@A ; CPythonApplication::ms_pInstance
  00022	83 c4 0c	 add	 esp, 12			; 0000000cH
$LN5@appGetLoad:
; File C:\Anka2Project\Anka2Project\Source\Binary\source\UserInterface\PythonApplicationModule.cpp

; 557  : 	return Py_BuildValue("i", CPythonApplication::Instance().GetLoad());

  00025	ff b0 c0 d6 03
	00		 push	 DWORD PTR [eax+251584]
  0002b	68 00 00 00 00	 push	 OFFSET ??_C@_01KBJDNOO@i@
  00030	ff 15 00 00 00
	00		 call	 DWORD PTR __imp__Py_BuildValue
  00036	83 c4 08	 add	 esp, 8

; 558  : }

  00039	c3		 ret	 0
?appGetLoad@@YAPAU_object@@PAU1@0@Z ENDP		; appGetLoad
_TEXT	ENDS
; Function compile flags: /Ogtp
; File C:\Anka2Project\Anka2Project\Source\Binary\source\UserInterface\PythonApplicationModule.cpp
; File C:\Anka2Project\Anka2Project\Source\Binary\source\UserInterface\PythonApplication.h
; File C:\Anka2Project\Anka2Project\Source\Binary\source\UserInterface\PythonApplicationModule.cpp
;	COMDAT ?appGetFaceCount@@YAPAU_object@@PAU1@0@Z
_TEXT	SEGMENT
_poSelf$ = 8						; size = 4
_poArgs$ = 12						; size = 4
?appGetFaceCount@@YAPAU_object@@PAU1@0@Z PROC		; appGetFaceCount, COMDAT
; File C:\Anka2Project\Anka2Project\Source\Binary\source\UserInterface\PythonApplication.h

; 213  : 			assert(ms_pInstance != nullptr);

  00000	a1 00 00 00 00	 mov	 eax, DWORD PTR ?ms_pInstance@CPythonApplication@@1PAV1@A ; CPythonApplication::ms_pInstance
  00005	85 c0		 test	 eax, eax
  00007	75 1c		 jne	 SHORT $LN5@appGetFace
  00009	68 d5 00 00 00	 push	 213			; 000000d5H
  0000e	68 00 00 00 00	 push	 OFFSET ??_C@_1KI@NDOHEKDB@?$AAC?$AA?3?$AA?2?$AAA?$AAn?$AAk?$AAa?$AA2?$AAP?$AAr?$AAo?$AAj?$AAe?$AAc?$AAt@
  00013	68 00 00 00 00	 push	 OFFSET ??_C@_1DA@IANAENLC@?$AAm?$AAs?$AA_?$AAp?$AAI?$AAn?$AAs?$AAt?$AAa?$AAn?$AAc?$AAe?$AA?5?$AA?$CB?$AA?$DN@
  00018	e8 00 00 00 00	 call	 __wassert
  0001d	a1 00 00 00 00	 mov	 eax, DWORD PTR ?ms_pInstance@CPythonApplication@@1PAV1@A ; CPythonApplication::ms_pInstance
  00022	83 c4 0c	 add	 esp, 12			; 0000000cH
$LN5@appGetFace:
; File C:\Anka2Project\Anka2Project\Source\Binary\source\UserInterface\PythonApplicationModule.cpp

; 561  : 	return Py_BuildValue("i", CPythonApplication::Instance().GetFaceCount());

  00025	ff b0 ac d7 03
	00		 push	 DWORD PTR [eax+251820]
  0002b	68 00 00 00 00	 push	 OFFSET ??_C@_01KBJDNOO@i@
  00030	ff 15 00 00 00
	00		 call	 DWORD PTR __imp__Py_BuildValue
  00036	83 c4 08	 add	 esp, 8

; 562  : }

  00039	c3		 ret	 0
?appGetFaceCount@@YAPAU_object@@PAU1@0@Z ENDP		; appGetFaceCount
_TEXT	ENDS
; Function compile flags: /Ogtp
; File C:\Anka2Project\Anka2Project\Source\Binary\source\UserInterface\PythonApplicationModule.cpp
;	COMDAT ?appGetAvaiableTextureMememory@@YAPAU_object@@PAU1@0@Z
_TEXT	SEGMENT
_poSelf$ = 8						; size = 4
_poArgs$ = 12						; size = 4
?appGetAvaiableTextureMememory@@YAPAU_object@@PAU1@0@Z PROC ; appGetAvaiableTextureMememory, COMDAT

; 566  : 	return Py_BuildValue("i", CGraphicBase::GetAvailableTextureMemory());

  00000	e8 00 00 00 00	 call	 ?GetAvailableTextureMemory@CGraphicBase@@SAKXZ ; CGraphicBase::GetAvailableTextureMemory
  00005	50		 push	 eax
  00006	68 00 00 00 00	 push	 OFFSET ??_C@_01KBJDNOO@i@
  0000b	ff 15 00 00 00
	00		 call	 DWORD PTR __imp__Py_BuildValue
  00011	83 c4 08	 add	 esp, 8

; 567  : }

  00014	c3		 ret	 0
?appGetAvaiableTextureMememory@@YAPAU_object@@PAU1@0@Z ENDP ; appGetAvaiableTextureMememory
_TEXT	ENDS
; Function compile flags: /Ogtp
; File C:\Anka2Project\Anka2Project\Source\Binary\source\UserInterface\PythonApplicationModule.cpp
; File C:\Anka2Project\Anka2Project\Source\Binary\source\UserInterface\PythonApplication.h
; File C:\Anka2Project\Anka2Project\Source\Binary\source\UserInterface\PythonApplicationModule.cpp
;	COMDAT ?appSetCenterPosition@@YAPAU_object@@PAU1@0@Z
_TEXT	SEGMENT
_fx$ = -12						; size = 4
_fy$ = -8						; size = 4
_fz$ = -4						; size = 4
_poSelf$ = 8						; size = 4
_poArgs$ = 12						; size = 4
?appSetCenterPosition@@YAPAU_object@@PAU1@0@Z PROC	; appSetCenterPosition, COMDAT

; 596  : {

  00000	55		 push	 ebp
  00001	8b ec		 mov	 ebp, esp
  00003	83 ec 0c	 sub	 esp, 12			; 0000000cH

; 597  : 	float fx;
; 598  : 	if (!PyTuple_GetFloat(poArgs, 0, &fx))

  00006	8d 45 f4	 lea	 eax, DWORD PTR _fx$[ebp]
  00009	56		 push	 esi
  0000a	8b 75 0c	 mov	 esi, DWORD PTR _poArgs$[ebp]
  0000d	50		 push	 eax
  0000e	6a 00		 push	 0
  00010	56		 push	 esi
  00011	e8 00 00 00 00	 call	 ?PyTuple_GetFloat@@YA_NPAU_object@@HPAM@Z ; PyTuple_GetFloat
  00016	83 c4 0c	 add	 esp, 12			; 0000000cH
  00019	84 c0		 test	 al, al
  0001b	75 0f		 jne	 SHORT $LN2@appSetCent
$LN13@appSetCent:

; 611  : }

  0001d	6a 00		 push	 0
  0001f	e8 00 00 00 00	 call	 ?Py_BuildException@@YAPAU_object@@PBDZZ ; Py_BuildException
  00024	83 c4 04	 add	 esp, 4
  00027	5e		 pop	 esi
  00028	8b e5		 mov	 esp, ebp
  0002a	5d		 pop	 ebp
  0002b	c3		 ret	 0
$LN2@appSetCent:

; 599  : 		return Py_BuildException();
; 600  : 
; 601  : 	float fy;
; 602  : 	if (!PyTuple_GetFloat(poArgs, 1, &fy))

  0002c	8d 45 f8	 lea	 eax, DWORD PTR _fy$[ebp]
  0002f	50		 push	 eax
  00030	6a 01		 push	 1
  00032	56		 push	 esi
  00033	e8 00 00 00 00	 call	 ?PyTuple_GetFloat@@YA_NPAU_object@@HPAM@Z ; PyTuple_GetFloat
  00038	83 c4 0c	 add	 esp, 12			; 0000000cH
  0003b	84 c0		 test	 al, al
  0003d	74 de		 je	 SHORT $LN13@appSetCent

; 603  : 		return Py_BuildException();
; 604  : 
; 605  : 	float fz;
; 606  : 	if (!PyTuple_GetFloat(poArgs, 2, &fz))

  0003f	8d 45 fc	 lea	 eax, DWORD PTR _fz$[ebp]
  00042	50		 push	 eax
  00043	6a 02		 push	 2
  00045	56		 push	 esi
  00046	e8 00 00 00 00	 call	 ?PyTuple_GetFloat@@YA_NPAU_object@@HPAM@Z ; PyTuple_GetFloat
  0004b	83 c4 0c	 add	 esp, 12			; 0000000cH
  0004e	84 c0		 test	 al, al
  00050	74 cb		 je	 SHORT $LN13@appSetCent
; File C:\Anka2Project\Anka2Project\Source\Binary\source\UserInterface\PythonApplication.h

; 213  : 			assert(ms_pInstance != nullptr);

  00052	8b 0d 00 00 00
	00		 mov	 ecx, DWORD PTR ?ms_pInstance@CPythonApplication@@1PAV1@A ; CPythonApplication::ms_pInstance
  00058	85 c9		 test	 ecx, ecx
  0005a	75 1d		 jne	 SHORT $LN8@appSetCent
  0005c	68 d5 00 00 00	 push	 213			; 000000d5H
  00061	68 00 00 00 00	 push	 OFFSET ??_C@_1KI@NDOHEKDB@?$AAC?$AA?3?$AA?2?$AAA?$AAn?$AAk?$AAa?$AA2?$AAP?$AAr?$AAo?$AAj?$AAe?$AAc?$AAt@
  00066	68 00 00 00 00	 push	 OFFSET ??_C@_1DA@IANAENLC@?$AAm?$AAs?$AA_?$AAp?$AAI?$AAn?$AAs?$AAt?$AAa?$AAn?$AAc?$AAe?$AA?5?$AA?$CB?$AA?$DN@
  0006b	e8 00 00 00 00	 call	 __wassert
  00070	8b 0d 00 00 00
	00		 mov	 ecx, DWORD PTR ?ms_pInstance@CPythonApplication@@1PAV1@A ; CPythonApplication::ms_pInstance
  00076	83 c4 0c	 add	 esp, 12			; 0000000cH
$LN8@appSetCent:
; File C:\Anka2Project\Anka2Project\Source\Binary\source\UserInterface\PythonApplicationModule.cpp

; 609  : 	CPythonApplication::Instance().SetCenterPosition(fx, -fy, fz);

  00079	f3 0f 10 45 fc	 movss	 xmm0, DWORD PTR _fz$[ebp]
  0007e	83 ec 0c	 sub	 esp, 12			; 0000000cH
  00081	8b 41 20	 mov	 eax, DWORD PTR [ecx+32]
  00084	83 c1 20	 add	 ecx, 32			; 00000020H
  00087	f3 0f 11 44 24
	08		 movss	 DWORD PTR [esp+8], xmm0
  0008d	f3 0f 10 45 f8	 movss	 xmm0, DWORD PTR _fy$[ebp]
  00092	0f 57 05 00 00
	00 00		 xorps	 xmm0, DWORD PTR __xmm@80000000800000008000000080000000
  00099	f3 0f 11 44 24
	04		 movss	 DWORD PTR [esp+4], xmm0
  0009f	f3 0f 10 45 f4	 movss	 xmm0, DWORD PTR _fx$[ebp]
  000a4	f3 0f 11 04 24	 movss	 DWORD PTR [esp], xmm0
  000a9	ff 50 18	 call	 DWORD PTR [eax+24]

; 610  : 	return Py_BuildNone();

  000ac	e8 00 00 00 00	 call	 ?Py_BuildNone@@YAPAU_object@@XZ ; Py_BuildNone
  000b1	5e		 pop	 esi

; 611  : }

  000b2	8b e5		 mov	 esp, ebp
  000b4	5d		 pop	 ebp
  000b5	c3		 ret	 0
?appSetCenterPosition@@YAPAU_object@@PAU1@0@Z ENDP	; appSetCenterPosition
_TEXT	ENDS
; Function compile flags: /Ogtp
; File C:\Anka2Project\Anka2Project\Source\Binary\source\UserInterface\PythonApplicationModule.cpp
; File C:\Anka2Project\Anka2Project\Source\Binary\source\eterBase\Singleton.h
; File C:\Anka2Project\Anka2Project\Source\Binary\source\UserInterface\PythonApplicationModule.cpp
; File C:\Anka2Project\Anka2Project\Source\Binary\source\eterBase\Singleton.h
; File C:\Anka2Project\Anka2Project\Source\Binary\source\UserInterface\PythonApplicationModule.cpp
;	COMDAT ?appGetCursorPosition@@YAPAU_object@@PAU1@0@Z
_TEXT	SEGMENT
_lx$ = -8						; size = 4
_ly$ = -4						; size = 4
_poSelf$ = 8						; size = 4
_poArgs$ = 12						; size = 4
?appGetCursorPosition@@YAPAU_object@@PAU1@0@Z PROC	; appGetCursorPosition, COMDAT

; 614  : {

  00000	55		 push	 ebp
  00001	8b ec		 mov	 ebp, esp
; File C:\Anka2Project\Anka2Project\Source\Binary\source\eterBase\Singleton.h

; 26   : 		assert(ms_singleton);

  00003	8b 0d 00 00 00
	00		 mov	 ecx, DWORD PTR ?ms_singleton@?$CSingleton@VCWindowManager@UI@@@@0PAVCWindowManager@UI@@A ; CSingleton<UI::CWindowManager>::ms_singleton
; File C:\Anka2Project\Anka2Project\Source\Binary\source\UserInterface\PythonApplicationModule.cpp

; 614  : {

  00009	83 ec 08	 sub	 esp, 8
; File C:\Anka2Project\Anka2Project\Source\Binary\source\eterBase\Singleton.h

; 26   : 		assert(ms_singleton);

  0000c	85 c9		 test	 ecx, ecx
  0000e	75 1a		 jne	 SHORT $LN5@appGetCurs
  00010	6a 1a		 push	 26			; 0000001aH
  00012	68 00 00 00 00	 push	 OFFSET ??_C@_1IO@CAJLEEOI@?$AAC?$AA?3?$AA?2?$AAA?$AAn?$AAk?$AAa?$AA2?$AAP?$AAr?$AAo?$AAj?$AAe?$AAc?$AAt@
  00017	68 00 00 00 00	 push	 OFFSET ??_C@_1BK@FMEHPMFE@?$AAm?$AAs?$AA_?$AAs?$AAi?$AAn?$AAg?$AAl?$AAe?$AAt?$AAo?$AAn@
  0001c	e8 00 00 00 00	 call	 __wassert
  00021	8b 0d 00 00 00
	00		 mov	 ecx, DWORD PTR ?ms_singleton@?$CSingleton@VCWindowManager@UI@@@@0PAVCWindowManager@UI@@A ; CSingleton<UI::CWindowManager>::ms_singleton
  00027	83 c4 0c	 add	 esp, 12			; 0000000cH
$LN5@appGetCurs:
; File C:\Anka2Project\Anka2Project\Source\Binary\source\UserInterface\PythonApplicationModule.cpp

; 617  : 	rkWndMgr.GetMousePosition(lx, ly);

  0002a	8d 45 fc	 lea	 eax, DWORD PTR _ly$[ebp]
  0002d	50		 push	 eax
  0002e	8d 45 f8	 lea	 eax, DWORD PTR _lx$[ebp]
  00031	50		 push	 eax
  00032	e8 00 00 00 00	 call	 ?GetMousePosition@CWindowManager@UI@@QAEXAAJ0@Z ; UI::CWindowManager::GetMousePosition

; 618  : 
; 619  : 	return Py_BuildValue("ii", lx, ly);

  00037	ff 75 fc	 push	 DWORD PTR _ly$[ebp]
  0003a	ff 75 f8	 push	 DWORD PTR _lx$[ebp]
  0003d	68 00 00 00 00	 push	 OFFSET ??_C@_02PDIHAGKM@ii@
  00042	ff 15 00 00 00
	00		 call	 DWORD PTR __imp__Py_BuildValue
  00048	83 c4 0c	 add	 esp, 12			; 0000000cH

; 620  : }

  0004b	8b e5		 mov	 esp, ebp
  0004d	5d		 pop	 ebp
  0004e	c3		 ret	 0
?appGetCursorPosition@@YAPAU_object@@PAU1@0@Z ENDP	; appGetCursorPosition
_TEXT	ENDS
; Function compile flags: /Ogtp
; File C:\Anka2Project\Anka2Project\Source\Binary\source\UserInterface\PythonApplicationModule.cpp
; File C:\Anka2Project\Anka2Project\Source\Binary\source\eterBase\Singleton.h
; File C:\Anka2Project\Anka2Project\Source\Binary\source\UserInterface\PythonApplicationModule.cpp
;	COMDAT ?appRunPythonFile@@YAPAU_object@@PAU1@0@Z
_TEXT	SEGMENT
_szFileName$ = -4					; size = 4
_poSelf$ = 8						; size = 4
_poArgs$ = 12						; size = 4
?appRunPythonFile@@YAPAU_object@@PAU1@0@Z PROC		; appRunPythonFile, COMDAT

; 623  : {

  00000	55		 push	 ebp
  00001	8b ec		 mov	 ebp, esp
  00003	51		 push	 ecx

; 624  : 	char *szFileName;
; 625  : 	if (!PyTuple_GetString(poArgs, 0, &szFileName))

  00004	8d 45 fc	 lea	 eax, DWORD PTR _szFileName$[ebp]
  00007	50		 push	 eax
  00008	6a 00		 push	 0
  0000a	ff 75 0c	 push	 DWORD PTR _poArgs$[ebp]
  0000d	e8 00 00 00 00	 call	 ?PyTuple_GetString@@YA_NPAU_object@@HPAPAD@Z ; PyTuple_GetString
  00012	83 c4 0c	 add	 esp, 12			; 0000000cH
  00015	84 c0		 test	 al, al
  00017	75 0e		 jne	 SHORT $LN2@appRunPyth

; 626  : 		return Py_BuildException();

  00019	6a 00		 push	 0
  0001b	e8 00 00 00 00	 call	 ?Py_BuildException@@YAPAU_object@@PBDZZ ; Py_BuildException
  00020	83 c4 04	 add	 esp, 4

; 630  : }

  00023	8b e5		 mov	 esp, ebp
  00025	5d		 pop	 ebp
  00026	c3		 ret	 0
$LN2@appRunPyth:
; File C:\Anka2Project\Anka2Project\Source\Binary\source\eterBase\Singleton.h

; 26   : 		assert(ms_singleton);

  00027	8b 0d 00 00 00
	00		 mov	 ecx, DWORD PTR ?ms_singleton@?$CSingleton@VCPythonLauncher@@@@0PAVCPythonLauncher@@A ; CSingleton<CPythonLauncher>::ms_singleton
  0002d	85 c9		 test	 ecx, ecx
  0002f	75 1a		 jne	 SHORT $LN6@appRunPyth
  00031	6a 1a		 push	 26			; 0000001aH
  00033	68 00 00 00 00	 push	 OFFSET ??_C@_1IO@CAJLEEOI@?$AAC?$AA?3?$AA?2?$AAA?$AAn?$AAk?$AAa?$AA2?$AAP?$AAr?$AAo?$AAj?$AAe?$AAc?$AAt@
  00038	68 00 00 00 00	 push	 OFFSET ??_C@_1BK@FMEHPMFE@?$AAm?$AAs?$AA_?$AAs?$AAi?$AAn?$AAg?$AAl?$AAe?$AAt?$AAo?$AAn@
  0003d	e8 00 00 00 00	 call	 __wassert
  00042	8b 0d 00 00 00
	00		 mov	 ecx, DWORD PTR ?ms_singleton@?$CSingleton@VCPythonLauncher@@@@0PAVCPythonLauncher@@A ; CSingleton<CPythonLauncher>::ms_singleton
  00048	83 c4 0c	 add	 esp, 12			; 0000000cH
$LN6@appRunPyth:
; File C:\Anka2Project\Anka2Project\Source\Binary\source\UserInterface\PythonApplicationModule.cpp

; 628  : 	bool ret = CPythonLauncher::Instance().RunFile(szFileName);

  0004b	ff 75 fc	 push	 DWORD PTR _szFileName$[ebp]
  0004e	e8 00 00 00 00	 call	 ?RunFile@CPythonLauncher@@QAE_NPBD@Z ; CPythonLauncher::RunFile

; 629  : 	return Py_BuildValue("i", ret);

  00053	0f b6 c0	 movzx	 eax, al
  00056	50		 push	 eax
  00057	68 00 00 00 00	 push	 OFFSET ??_C@_01KBJDNOO@i@
  0005c	ff 15 00 00 00
	00		 call	 DWORD PTR __imp__Py_BuildValue
  00062	83 c4 08	 add	 esp, 8

; 630  : }

  00065	8b e5		 mov	 esp, ebp
  00067	5d		 pop	 ebp
  00068	c3		 ret	 0
?appRunPythonFile@@YAPAU_object@@PAU1@0@Z ENDP		; appRunPythonFile
_TEXT	ENDS
; Function compile flags: /Ogtp
; File C:\Anka2Project\Anka2Project\Source\Binary\source\UserInterface\PythonApplicationModule.cpp
; File C:\Anka2Project\Anka2Project\Source\Binary\source\UserInterface\PythonApplication.h
; File C:\Anka2Project\Anka2Project\Source\Binary\source\UserInterface\PythonApplicationModule.cpp
;	COMDAT ?appIsPressed@@YAPAU_object@@PAU1@0@Z
_TEXT	SEGMENT
_iKey$ = -4						; size = 4
_poSelf$ = 8						; size = 4
_poArgs$ = 12						; size = 4
?appIsPressed@@YAPAU_object@@PAU1@0@Z PROC		; appIsPressed, COMDAT

; 633  : {

  00000	55		 push	 ebp
  00001	8b ec		 mov	 ebp, esp
  00003	51		 push	 ecx

; 634  : 	int iKey;
; 635  : 	if (!PyTuple_GetInteger(poArgs, 0, &iKey))

  00004	8d 45 fc	 lea	 eax, DWORD PTR _iKey$[ebp]
  00007	50		 push	 eax
  00008	6a 00		 push	 0
  0000a	ff 75 0c	 push	 DWORD PTR _poArgs$[ebp]
  0000d	e8 00 00 00 00	 call	 ?PyTuple_GetInteger@@YA_NPAU_object@@HPAH@Z ; PyTuple_GetInteger
  00012	83 c4 0c	 add	 esp, 12			; 0000000cH
  00015	84 c0		 test	 al, al
  00017	75 0e		 jne	 SHORT $LN2@appIsPress

; 636  : 		return Py_BuildException();

  00019	6a 00		 push	 0
  0001b	e8 00 00 00 00	 call	 ?Py_BuildException@@YAPAU_object@@PBDZZ ; Py_BuildException
  00020	83 c4 04	 add	 esp, 4

; 639  : }

  00023	8b e5		 mov	 esp, ebp
  00025	5d		 pop	 ebp
  00026	c3		 ret	 0
$LN2@appIsPress:
; File C:\Anka2Project\Anka2Project\Source\Binary\source\UserInterface\PythonApplication.h

; 213  : 			assert(ms_pInstance != nullptr);

  00027	8b 0d 00 00 00
	00		 mov	 ecx, DWORD PTR ?ms_pInstance@CPythonApplication@@1PAV1@A ; CPythonApplication::ms_pInstance
  0002d	85 c9		 test	 ecx, ecx
  0002f	75 1d		 jne	 SHORT $LN6@appIsPress
  00031	68 d5 00 00 00	 push	 213			; 000000d5H
  00036	68 00 00 00 00	 push	 OFFSET ??_C@_1KI@NDOHEKDB@?$AAC?$AA?3?$AA?2?$AAA?$AAn?$AAk?$AAa?$AA2?$AAP?$AAr?$AAo?$AAj?$AAe?$AAc?$AAt@
  0003b	68 00 00 00 00	 push	 OFFSET ??_C@_1DA@IANAENLC@?$AAm?$AAs?$AA_?$AAp?$AAI?$AAn?$AAs?$AAt?$AAa?$AAn?$AAc?$AAe?$AA?5?$AA?$CB?$AA?$DN@
  00040	e8 00 00 00 00	 call	 __wassert
  00045	8b 0d 00 00 00
	00		 mov	 ecx, DWORD PTR ?ms_pInstance@CPythonApplication@@1PAV1@A ; CPythonApplication::ms_pInstance
  0004b	83 c4 0c	 add	 esp, 12			; 0000000cH
$LN6@appIsPress:
; File C:\Anka2Project\Anka2Project\Source\Binary\source\UserInterface\PythonApplicationModule.cpp

; 638  : 	return Py_BuildValue("i", CPythonApplication::Instance().IsPressed(iKey));

  0004e	ff 75 fc	 push	 DWORD PTR _iKey$[ebp]
  00051	83 c1 1c	 add	 ecx, 28			; 0000001cH
  00054	e8 00 00 00 00	 call	 ?IsPressed@CInputKeyboard@@QAE_NH@Z ; CInputKeyboard::IsPressed
  00059	0f b6 c0	 movzx	 eax, al
  0005c	50		 push	 eax
  0005d	68 00 00 00 00	 push	 OFFSET ??_C@_01KBJDNOO@i@
  00062	ff 15 00 00 00
	00		 call	 DWORD PTR __imp__Py_BuildValue
  00068	83 c4 08	 add	 esp, 8

; 639  : }

  0006b	8b e5		 mov	 esp, ebp
  0006d	5d		 pop	 ebp
  0006e	c3		 ret	 0
?appIsPressed@@YAPAU_object@@PAU1@0@Z ENDP		; appIsPressed
_TEXT	ENDS
; Function compile flags: /Ogtp
; File C:\Anka2Project\Anka2Project\Source\Binary\source\UserInterface\PythonApplicationModule.cpp
; File C:\Anka2Project\Anka2Project\Source\Binary\source\UserInterface\PythonApplication.h
; File C:\Anka2Project\Anka2Project\Source\Binary\source\UserInterface\PythonApplicationModule.cpp
;	COMDAT ?appGetCursor@@YAPAU_object@@PAU1@0@Z
_TEXT	SEGMENT
_poSelf$ = 8						; size = 4
_poArgs$ = 12						; size = 4
?appGetCursor@@YAPAU_object@@PAU1@0@Z PROC		; appGetCursor, COMDAT
; File C:\Anka2Project\Anka2Project\Source\Binary\source\UserInterface\PythonApplication.h

; 213  : 			assert(ms_pInstance != nullptr);

  00000	a1 00 00 00 00	 mov	 eax, DWORD PTR ?ms_pInstance@CPythonApplication@@1PAV1@A ; CPythonApplication::ms_pInstance
  00005	85 c0		 test	 eax, eax
  00007	75 1c		 jne	 SHORT $LN5@appGetCurs
  00009	68 d5 00 00 00	 push	 213			; 000000d5H
  0000e	68 00 00 00 00	 push	 OFFSET ??_C@_1KI@NDOHEKDB@?$AAC?$AA?3?$AA?2?$AAA?$AAn?$AAk?$AAa?$AA2?$AAP?$AAr?$AAo?$AAj?$AAe?$AAc?$AAt@
  00013	68 00 00 00 00	 push	 OFFSET ??_C@_1DA@IANAENLC@?$AAm?$AAs?$AA_?$AAp?$AAI?$AAn?$AAs?$AAt?$AAa?$AAn?$AAc?$AAe?$AA?5?$AA?$CB?$AA?$DN@
  00018	e8 00 00 00 00	 call	 __wassert
  0001d	a1 00 00 00 00	 mov	 eax, DWORD PTR ?ms_pInstance@CPythonApplication@@1PAV1@A ; CPythonApplication::ms_pInstance
  00022	83 c4 0c	 add	 esp, 12			; 0000000cH
$LN5@appGetCurs:
; File C:\Anka2Project\Anka2Project\Source\Binary\source\UserInterface\PythonApplicationModule.cpp

; 655  : 	return Py_BuildValue("i", CPythonApplication::Instance().GetCursorNum());

  00025	ff b0 04 d8 03
	00		 push	 DWORD PTR [eax+251908]
  0002b	68 00 00 00 00	 push	 OFFSET ??_C@_01KBJDNOO@i@
  00030	ff 15 00 00 00
	00		 call	 DWORD PTR __imp__Py_BuildValue
  00036	83 c4 08	 add	 esp, 8

; 656  : }

  00039	c3		 ret	 0
?appGetCursor@@YAPAU_object@@PAU1@0@Z ENDP		; appGetCursor
_TEXT	ENDS
; Function compile flags: /Ogtp
; File C:\Anka2Project\Anka2Project\Source\Binary\source\UserInterface\PythonApplicationModule.cpp
; File C:\Anka2Project\Anka2Project\Source\Binary\source\UserInterface\PythonApplication.h
; File C:\Anka2Project\Anka2Project\Source\Binary\source\UserInterface\PythonApplicationModule.cpp
;	COMDAT ?appIsShowCursor@@YAPAU_object@@PAU1@0@Z
_TEXT	SEGMENT
_poSelf$ = 8						; size = 4
_poArgs$ = 12						; size = 4
?appIsShowCursor@@YAPAU_object@@PAU1@0@Z PROC		; appIsShowCursor, COMDAT
; File C:\Anka2Project\Anka2Project\Source\Binary\source\UserInterface\PythonApplication.h

; 213  : 			assert(ms_pInstance != nullptr);

  00000	8b 0d 00 00 00
	00		 mov	 ecx, DWORD PTR ?ms_pInstance@CPythonApplication@@1PAV1@A ; CPythonApplication::ms_pInstance
  00006	85 c9		 test	 ecx, ecx
  00008	75 1d		 jne	 SHORT $LN5@appIsShowC
  0000a	68 d5 00 00 00	 push	 213			; 000000d5H
  0000f	68 00 00 00 00	 push	 OFFSET ??_C@_1KI@NDOHEKDB@?$AAC?$AA?3?$AA?2?$AAA?$AAn?$AAk?$AAa?$AA2?$AAP?$AAr?$AAo?$AAj?$AAe?$AAc?$AAt@
  00014	68 00 00 00 00	 push	 OFFSET ??_C@_1DA@IANAENLC@?$AAm?$AAs?$AA_?$AAp?$AAI?$AAn?$AAs?$AAt?$AAa?$AAn?$AAc?$AAe?$AA?5?$AA?$CB?$AA?$DN@
  00019	e8 00 00 00 00	 call	 __wassert
  0001e	8b 0d 00 00 00
	00		 mov	 ecx, DWORD PTR ?ms_pInstance@CPythonApplication@@1PAV1@A ; CPythonApplication::ms_pInstance
  00024	83 c4 0c	 add	 esp, 12			; 0000000cH
$LN5@appIsShowC:
; File C:\Anka2Project\Anka2Project\Source\Binary\source\UserInterface\PythonApplicationModule.cpp

; 674  : 	return Py_BuildValue("i", TRUE == CPythonApplication::Instance().GetCursorVisible());

  00027	e8 00 00 00 00	 call	 ?GetCursorVisible@CPythonApplication@@QAEHXZ ; CPythonApplication::GetCursorVisible
  0002c	48		 dec	 eax
  0002d	f7 d8		 neg	 eax
  0002f	1b c0		 sbb	 eax, eax
  00031	40		 inc	 eax
  00032	50		 push	 eax
  00033	68 00 00 00 00	 push	 OFFSET ??_C@_01KBJDNOO@i@
  00038	ff 15 00 00 00
	00		 call	 DWORD PTR __imp__Py_BuildValue
  0003e	83 c4 08	 add	 esp, 8

; 675  : }

  00041	c3		 ret	 0
?appIsShowCursor@@YAPAU_object@@PAU1@0@Z ENDP		; appIsShowCursor
_TEXT	ENDS
; Function compile flags: /Ogtp
; File C:\Anka2Project\Anka2Project\Source\Binary\source\UserInterface\PythonApplicationModule.cpp
; File C:\Anka2Project\Anka2Project\Source\Binary\source\UserInterface\PythonApplication.h
; File C:\Anka2Project\Anka2Project\Source\Binary\source\UserInterface\PythonApplicationModule.cpp
;	COMDAT ?appIsLiarCursorOn@@YAPAU_object@@PAU1@0@Z
_TEXT	SEGMENT
_poSelf$ = 8						; size = 4
_poArgs$ = 12						; size = 4
?appIsLiarCursorOn@@YAPAU_object@@PAU1@0@Z PROC		; appIsLiarCursorOn, COMDAT
; File C:\Anka2Project\Anka2Project\Source\Binary\source\UserInterface\PythonApplication.h

; 213  : 			assert(ms_pInstance != nullptr);

  00000	8b 0d 00 00 00
	00		 mov	 ecx, DWORD PTR ?ms_pInstance@CPythonApplication@@1PAV1@A ; CPythonApplication::ms_pInstance
  00006	85 c9		 test	 ecx, ecx
  00008	75 1d		 jne	 SHORT $LN5@appIsLiarC
  0000a	68 d5 00 00 00	 push	 213			; 000000d5H
  0000f	68 00 00 00 00	 push	 OFFSET ??_C@_1KI@NDOHEKDB@?$AAC?$AA?3?$AA?2?$AAA?$AAn?$AAk?$AAa?$AA2?$AAP?$AAr?$AAo?$AAj?$AAe?$AAc?$AAt@
  00014	68 00 00 00 00	 push	 OFFSET ??_C@_1DA@IANAENLC@?$AAm?$AAs?$AA_?$AAp?$AAI?$AAn?$AAs?$AAt?$AAa?$AAn?$AAc?$AAe?$AA?5?$AA?$CB?$AA?$DN@
  00019	e8 00 00 00 00	 call	 __wassert
  0001e	8b 0d 00 00 00
	00		 mov	 ecx, DWORD PTR ?ms_pInstance@CPythonApplication@@1PAV1@A ; CPythonApplication::ms_pInstance
  00024	83 c4 0c	 add	 esp, 12			; 0000000cH
$LN5@appIsLiarC:
; File C:\Anka2Project\Anka2Project\Source\Binary\source\UserInterface\PythonApplicationModule.cpp

; 679  : 	return Py_BuildValue("i", TRUE == CPythonApplication::Instance().GetLiarCursorOn());

  00027	e8 00 00 00 00	 call	 ?GetLiarCursorOn@CPythonApplication@@QAE_NXZ ; CPythonApplication::GetLiarCursorOn
  0002c	0f b6 c0	 movzx	 eax, al
  0002f	50		 push	 eax
  00030	68 00 00 00 00	 push	 OFFSET ??_C@_01KBJDNOO@i@
  00035	ff 15 00 00 00
	00		 call	 DWORD PTR __imp__Py_BuildValue
  0003b	83 c4 08	 add	 esp, 8

; 680  : }

  0003e	c3		 ret	 0
?appIsLiarCursorOn@@YAPAU_object@@PAU1@0@Z ENDP		; appIsLiarCursorOn
_TEXT	ENDS
; Function compile flags: /Ogtp
; File C:\Anka2Project\Anka2Project\Source\Binary\source\UserInterface\PythonApplicationModule.cpp
; File C:\Program Files\Microsoft Visual Studio\2022\Community\VC\Tools\MSVC\14.44.35207\include\xstring
; File C:\Anka2Project\Anka2Project\Source\Binary\source\UserInterface\PythonApplicationModule.cpp
; File C:\Anka2Project\Anka2Project\Source\Binary\source\UserInterface\PythonApplication.h
; File C:\Anka2Project\Anka2Project\Source\Binary\source\UserInterface\PythonApplicationModule.cpp
; File C:\Program Files\Microsoft Visual Studio\2022\Community\VC\Tools\MSVC\14.44.35207\include\xstring
; File C:\Anka2Project\Anka2Project\Source\Binary\source\UserInterface\PythonApplicationModule.cpp
; File C:\Program Files\Microsoft Visual Studio\2022\Community\VC\Tools\MSVC\14.44.35207\include\xstring
; File C:\Anka2Project\Anka2Project\Source\Binary\source\UserInterface\PythonApplicationModule.cpp
; File C:\Program Files\Microsoft Visual Studio\2022\Community\VC\Tools\MSVC\14.44.35207\include\xstring
; File C:\Anka2Project\Anka2Project\Source\Binary\source\UserInterface\PythonApplicationModule.cpp
; File C:\Program Files\Microsoft Visual Studio\2022\Community\VC\Tools\MSVC\14.44.35207\include\xstring
; File C:\Program Files\Microsoft Visual Studio\2022\Community\VC\Tools\MSVC\14.44.35207\include\xmemory
; File C:\Program Files\Microsoft Visual Studio\2022\Community\VC\Tools\MSVC\14.44.35207\include\xstring
; File C:\Program Files\Microsoft Visual Studio\2022\Community\VC\Tools\MSVC\14.44.35207\include\xmemory
; File C:\Anka2Project\Anka2Project\Source\Binary\source\UserInterface\PythonApplicationModule.cpp
; File C:\Program Files\Microsoft Visual Studio\2022\Community\VC\Tools\MSVC\14.44.35207\include\xmemory
; File C:\Anka2Project\Anka2Project\Source\Binary\source\UserInterface\PythonApplicationModule.cpp
;	COMDAT ?appGetConnectData@@YAPAU_object@@PAU1@0@Z
_TEXT	SEGMENT
_iPort$ = -48						; size = 4
_strIP$ = -44						; size = 24
__$ArrayPad$ = -20					; size = 4
__$EHRec$ = -12						; size = 12
_poSelf$ = 8						; size = 4
_poArgs$ = 12						; size = 4
?appGetConnectData@@YAPAU_object@@PAU1@0@Z PROC		; appGetConnectData, COMDAT

; 710  : {

  00000	53		 push	 ebx
  00001	8b dc		 mov	 ebx, esp
  00003	83 ec 08	 sub	 esp, 8
  00006	83 e4 f8	 and	 esp, -8			; fffffff8H
  00009	83 c4 04	 add	 esp, 4
  0000c	55		 push	 ebp
  0000d	8b 6b 04	 mov	 ebp, DWORD PTR [ebx+4]
  00010	89 6c 24 04	 mov	 DWORD PTR [esp+4], ebp
  00014	8b ec		 mov	 ebp, esp
  00016	6a ff		 push	 -1
  00018	68 00 00 00 00	 push	 __ehhandler$?appGetConnectData@@YAPAU_object@@PAU1@0@Z
  0001d	64 a1 00 00 00
	00		 mov	 eax, DWORD PTR fs:0
  00023	50		 push	 eax
  00024	53		 push	 ebx
  00025	83 ec 24	 sub	 esp, 36			; 00000024H
  00028	a1 00 00 00 00	 mov	 eax, DWORD PTR ___security_cookie
  0002d	33 c5		 xor	 eax, ebp
  0002f	89 45 ec	 mov	 DWORD PTR __$ArrayPad$[ebp], eax
  00032	56		 push	 esi
  00033	50		 push	 eax
  00034	8d 45 f4	 lea	 eax, DWORD PTR __$EHRec$[ebp]
  00037	64 a3 00 00 00
	00		 mov	 DWORD PTR fs:0, eax
  0003d	0f 57 c0	 xorps	 xmm0, xmm0
; File C:\Program Files\Microsoft Visual Studio\2022\Community\VC\Tools\MSVC\14.44.35207\include\xstring

; 860  :         _My_data._Mysize = 0;

  00040	c7 45 e4 00 00
	00 00		 mov	 DWORD PTR _strIP$[ebp+16], 0

; 493  :         _CONSTEXPR20 _Bxty() noexcept : _Buf() {} // user-provided, for fancy pointers

  00047	0f 11 45 d4	 movups	 XMMWORD PTR _strIP$[ebp], xmm0

; 861  :         _My_data._Myres  = _Small_string_capacity;

  0004b	c7 45 e8 0f 00
	00 00		 mov	 DWORD PTR _strIP$[ebp+20], 15 ; 0000000fH

; 862  :         _My_data._Activate_SSO_buffer();
; 863  : 
; 864  :         // the _Traits::assign is last so the codegen doesn't think the char write can alias this
; 865  :         _Traits::assign(_My_data._Bx._Buf[0], _Elem());

  00052	c6 45 d4 00	 mov	 BYTE PTR _strIP$[ebp], 0
; File C:\Anka2Project\Anka2Project\Source\Binary\source\UserInterface\PythonApplicationModule.cpp

; 711  : 	std::string strIP;

  00056	c7 45 fc 00 00
	00 00		 mov	 DWORD PTR __$EHRec$[ebp+8], 0
; File C:\Anka2Project\Anka2Project\Source\Binary\source\UserInterface\PythonApplication.h

; 213  : 			assert(ms_pInstance != nullptr);

  0005d	8b 0d 00 00 00
	00		 mov	 ecx, DWORD PTR ?ms_pInstance@CPythonApplication@@1PAV1@A ; CPythonApplication::ms_pInstance
  00063	85 c9		 test	 ecx, ecx
  00065	75 1d		 jne	 SHORT $LN26@appGetConn
  00067	68 d5 00 00 00	 push	 213			; 000000d5H
  0006c	68 00 00 00 00	 push	 OFFSET ??_C@_1KI@NDOHEKDB@?$AAC?$AA?3?$AA?2?$AAA?$AAn?$AAk?$AAa?$AA2?$AAP?$AAr?$AAo?$AAj?$AAe?$AAc?$AAt@
  00071	68 00 00 00 00	 push	 OFFSET ??_C@_1DA@IANAENLC@?$AAm?$AAs?$AA_?$AAp?$AAI?$AAn?$AAs?$AAt?$AAa?$AAn?$AAc?$AAe?$AA?5?$AA?$CB?$AA?$DN@
  00076	e8 00 00 00 00	 call	 __wassert
  0007b	8b 0d 00 00 00
	00		 mov	 ecx, DWORD PTR ?ms_pInstance@CPythonApplication@@1PAV1@A ; CPythonApplication::ms_pInstance
  00081	83 c4 0c	 add	 esp, 12			; 0000000cH
$LN26@appGetConn:
; File C:\Anka2Project\Anka2Project\Source\Binary\source\UserInterface\PythonApplicationModule.cpp

; 714  : 	CPythonApplication::Instance().GetConnectData(strIP, iPort);

  00084	8d 45 d0	 lea	 eax, DWORD PTR _iPort$[ebp]
  00087	50		 push	 eax
  00088	8d 45 d4	 lea	 eax, DWORD PTR _strIP$[ebp]
  0008b	50		 push	 eax
  0008c	e8 00 00 00 00	 call	 ?GetConnectData@CPythonApplication@@QAEXAAV?$basic_string@DU?$char_traits@D@std@@V?$allocator@D@2@@std@@AAH@Z ; CPythonApplication::GetConnectData
; File C:\Program Files\Microsoft Visual Studio\2022\Community\VC\Tools\MSVC\14.44.35207\include\xstring

; 453  :         return _Myres > _Small_string_capacity;

  00091	83 7d e8 0f	 cmp	 DWORD PTR _strIP$[ebp+20], 15 ; 0000000fH

; 444  :         const value_type* _Result = _Bx._Buf;

  00095	8d 45 d4	 lea	 eax, DWORD PTR _strIP$[ebp]
; File C:\Anka2Project\Anka2Project\Source\Binary\source\UserInterface\PythonApplicationModule.cpp

; 716  : 	return Py_BuildValue("si", strIP.c_str(), iPort);

  00098	ff 75 d0	 push	 DWORD PTR _iPort$[ebp]
; File C:\Program Files\Microsoft Visual Studio\2022\Community\VC\Tools\MSVC\14.44.35207\include\xstring

; 445  :         if (_Large_mode_engaged()) {

  0009b	0f 47 45 d4	 cmova	 eax, DWORD PTR _strIP$[ebp]
; File C:\Anka2Project\Anka2Project\Source\Binary\source\UserInterface\PythonApplicationModule.cpp

; 716  : 	return Py_BuildValue("si", strIP.c_str(), iPort);

  0009f	50		 push	 eax
  000a0	68 00 00 00 00	 push	 OFFSET ??_C@_02OCDGCAAK@si@
  000a5	ff 15 00 00 00
	00		 call	 DWORD PTR __imp__Py_BuildValue
; File C:\Program Files\Microsoft Visual Studio\2022\Community\VC\Tools\MSVC\14.44.35207\include\xstring

; 453  :         return _Myres > _Small_string_capacity;

  000ab	8b 4d e8	 mov	 ecx, DWORD PTR _strIP$[ebp+20]
; File C:\Anka2Project\Anka2Project\Source\Binary\source\UserInterface\PythonApplicationModule.cpp

; 716  : 	return Py_BuildValue("si", strIP.c_str(), iPort);

  000ae	83 c4 0c	 add	 esp, 12			; 0000000cH
  000b1	8b f0		 mov	 esi, eax
; File C:\Program Files\Microsoft Visual Studio\2022\Community\VC\Tools\MSVC\14.44.35207\include\xstring

; 453  :         return _Myres > _Small_string_capacity;

  000b3	83 f9 0f	 cmp	 ecx, 15			; 0000000fH

; 3083 :         if (_My_data._Large_mode_engaged()) {

  000b6	76 28		 jbe	 SHORT $LN55@appGetConn
; File C:\Program Files\Microsoft Visual Studio\2022\Community\VC\Tools\MSVC\14.44.35207\include\xmemory

; 985  :         _STD _Deallocate<_New_alignof<_Ty>>(_Ptr, sizeof(_Ty) * _Count);

  000b8	8b 55 d4	 mov	 edx, DWORD PTR _strIP$[ebp]
; File C:\Program Files\Microsoft Visual Studio\2022\Community\VC\Tools\MSVC\14.44.35207\include\xstring

; 852  :         _Al.deallocate(_Old_ptr, _Capacity + 1); // +1 for null terminator

  000bb	41		 inc	 ecx
; File C:\Program Files\Microsoft Visual Studio\2022\Community\VC\Tools\MSVC\14.44.35207\include\xmemory

; 985  :         _STD _Deallocate<_New_alignof<_Ty>>(_Ptr, sizeof(_Ty) * _Count);

  000bc	8b c2		 mov	 eax, edx

; 284  :         if (_Bytes >= _Big_allocation_threshold) {

  000be	81 f9 00 10 00
	00		 cmp	 ecx, 4096		; 00001000H
  000c4	72 10		 jb	 SHORT $LN63@appGetConn

; 205  :     const uintptr_t _Ptr_container   = _Ptr_user[-1];

  000c6	8b 50 fc	 mov	 edx, DWORD PTR [eax-4]
  000c9	83 c1 23	 add	 ecx, 35			; 00000023H
  000cc	2b c2		 sub	 eax, edx

; 219  :     _STL_VERIFY(_Back_shift >= _Min_back_shift && _Back_shift <= _Non_user_size, "invalid argument");

  000ce	83 c0 fc	 add	 eax, -4			; fffffffcH
  000d1	83 f8 1f	 cmp	 eax, 31			; 0000001fH
  000d4	77 29		 ja	 SHORT $LN73@appGetConn
$LN63@appGetConn:

; 289  :         ::operator delete(_Ptr, _Bytes);

  000d6	51		 push	 ecx
  000d7	52		 push	 edx
  000d8	e8 00 00 00 00	 call	 ??3@YAXPAXI@Z		; operator delete
  000dd	83 c4 08	 add	 esp, 8
$LN55@appGetConn:
; File C:\Anka2Project\Anka2Project\Source\Binary\source\UserInterface\PythonApplicationModule.cpp

; 716  : 	return Py_BuildValue("si", strIP.c_str(), iPort);

  000e0	8b c6		 mov	 eax, esi

; 717  : }

  000e2	8b 4d f4	 mov	 ecx, DWORD PTR __$EHRec$[ebp]
  000e5	64 89 0d 00 00
	00 00		 mov	 DWORD PTR fs:0, ecx
  000ec	59		 pop	 ecx
  000ed	5e		 pop	 esi
  000ee	8b 4d ec	 mov	 ecx, DWORD PTR __$ArrayPad$[ebp]
  000f1	33 cd		 xor	 ecx, ebp
  000f3	e8 00 00 00 00	 call	 @__security_check_cookie@4
  000f8	8b e5		 mov	 esp, ebp
  000fa	5d		 pop	 ebp
  000fb	8b e3		 mov	 esp, ebx
  000fd	5b		 pop	 ebx
  000fe	c3		 ret	 0
$LN73@appGetConn:
; File C:\Program Files\Microsoft Visual Studio\2022\Community\VC\Tools\MSVC\14.44.35207\include\xmemory

; 219  :     _STL_VERIFY(_Back_shift >= _Min_back_shift && _Back_shift <= _Non_user_size, "invalid argument");

  000ff	6a 00		 push	 0
  00101	6a 00		 push	 0
  00103	6a 00		 push	 0
  00105	6a 00		 push	 0
  00107	6a 00		 push	 0
  00109	e8 00 00 00 00	 call	 __invoke_watson
$LN71@appGetConn:
  0010e	cc		 int	 3
_TEXT	ENDS
;	COMDAT text$x
text$x	SEGMENT
__unwindfunclet$?appGetConnectData@@YAPAU_object@@PAU1@0@Z$0:
  00000	8d 4d d4	 lea	 ecx, DWORD PTR _strIP$[ebp]
  00003	e9 00 00 00 00	 jmp	 ??1?$basic_string@DU?$char_traits@D@std@@V?$allocator@D@2@@std@@QAE@XZ ; std::basic_string<char,std::char_traits<char>,std::allocator<char> >::~basic_string<char,std::char_traits<char>,std::allocator<char> >
  00008	cc		 int	 3
  00009	cc		 int	 3
  0000a	cc		 int	 3
  0000b	cc		 int	 3
  0000c	cc		 int	 3
__ehhandler$?appGetConnectData@@YAPAU_object@@PAU1@0@Z:
  0000d	90		 npad	 1
  0000e	90		 npad	 1
  0000f	8b 54 24 08	 mov	 edx, DWORD PTR [esp+8]
  00013	8d 42 0c	 lea	 eax, DWORD PTR [edx+12]
  00016	8b 4a d0	 mov	 ecx, DWORD PTR [edx-48]
  00019	33 c8		 xor	 ecx, eax
  0001b	e8 00 00 00 00	 call	 @__security_check_cookie@4
  00020	8b 4a f8	 mov	 ecx, DWORD PTR [edx-8]
  00023	33 c8		 xor	 ecx, eax
  00025	e8 00 00 00 00	 call	 @__security_check_cookie@4
  0002a	b8 00 00 00 00	 mov	 eax, OFFSET __ehfuncinfo$?appGetConnectData@@YAPAU_object@@PAU1@0@Z
  0002f	e9 00 00 00 00	 jmp	 ___CxxFrameHandler3
text$x	ENDS
?appGetConnectData@@YAPAU_object@@PAU1@0@Z ENDP		; appGetConnectData
; Function compile flags: /Ogtp
; File C:\Anka2Project\Anka2Project\Source\Binary\source\UserInterface\PythonApplicationModule.cpp
;	COMDAT ?appGetRandom@@YAPAU_object@@PAU1@0@Z
_TEXT	SEGMENT
_to$ = -8						; size = 4
_from$ = -4						; size = 4
_poSelf$ = 8						; size = 4
_poArgs$ = 12						; size = 4
?appGetRandom@@YAPAU_object@@PAU1@0@Z PROC		; appGetRandom, COMDAT

; 720  : {

  00000	55		 push	 ebp
  00001	8b ec		 mov	 ebp, esp
  00003	83 ec 08	 sub	 esp, 8

; 721  : 	int from;
; 722  : 	if (!PyTuple_GetInteger(poArgs, 0, &from))

  00006	8d 45 fc	 lea	 eax, DWORD PTR _from$[ebp]
  00009	50		 push	 eax
  0000a	6a 00		 push	 0
  0000c	ff 75 0c	 push	 DWORD PTR _poArgs$[ebp]
  0000f	e8 00 00 00 00	 call	 ?PyTuple_GetInteger@@YA_NPAU_object@@HPAH@Z ; PyTuple_GetInteger
  00014	83 c4 0c	 add	 esp, 12			; 0000000cH
  00017	84 c0		 test	 al, al
  00019	75 0e		 jne	 SHORT $LN2@appGetRand
$LN6@appGetRand:

; 737  : }

  0001b	6a 00		 push	 0
  0001d	e8 00 00 00 00	 call	 ?Py_BuildException@@YAPAU_object@@PBDZZ ; Py_BuildException
  00022	83 c4 04	 add	 esp, 4
  00025	8b e5		 mov	 esp, ebp
  00027	5d		 pop	 ebp
  00028	c3		 ret	 0
$LN2@appGetRand:

; 723  : 		return Py_BuildException();
; 724  : 
; 725  : 	int	to;
; 726  : 	if (!PyTuple_GetInteger(poArgs, 1, &to))

  00029	8d 45 f8	 lea	 eax, DWORD PTR _to$[ebp]
  0002c	50		 push	 eax
  0002d	6a 01		 push	 1
  0002f	ff 75 0c	 push	 DWORD PTR _poArgs$[ebp]
  00032	e8 00 00 00 00	 call	 ?PyTuple_GetInteger@@YA_NPAU_object@@HPAH@Z ; PyTuple_GetInteger
  00037	83 c4 0c	 add	 esp, 12			; 0000000cH
  0003a	84 c0		 test	 al, al
  0003c	74 dd		 je	 SHORT $LN6@appGetRand

; 727  : 		return Py_BuildException();
; 728  : 
; 729  : 	if (from > to)

  0003e	8b 4d fc	 mov	 ecx, DWORD PTR _from$[ebp]
  00041	8b 55 f8	 mov	 edx, DWORD PTR _to$[ebp]
  00044	3b ca		 cmp	 ecx, edx
  00046	7e 0c		 jle	 SHORT $LN4@appGetRand

; 730  : 	{
; 731  : 		int tmp = from;

  00048	8b c1		 mov	 eax, ecx

; 732  : 		from = to;

  0004a	8b ca		 mov	 ecx, edx

; 733  : 		to = tmp;

  0004c	8b d0		 mov	 edx, eax
  0004e	89 4d fc	 mov	 DWORD PTR _from$[ebp], ecx
  00051	89 55 f8	 mov	 DWORD PTR _to$[ebp], edx
$LN4@appGetRand:

; 734  : 	}
; 735  : 
; 736  : 	return Py_BuildValue("i", random_range(from, to));

  00054	52		 push	 edx
  00055	51		 push	 ecx
  00056	e8 00 00 00 00	 call	 ?random_range@@YAJJJ@Z	; random_range
  0005b	50		 push	 eax
  0005c	68 00 00 00 00	 push	 OFFSET ??_C@_01KBJDNOO@i@
  00061	ff 15 00 00 00
	00		 call	 DWORD PTR __imp__Py_BuildValue
  00067	83 c4 10	 add	 esp, 16			; 00000010H

; 737  : }

  0006a	8b e5		 mov	 esp, ebp
  0006c	5d		 pop	 ebp
  0006d	c3		 ret	 0
?appGetRandom@@YAPAU_object@@PAU1@0@Z ENDP		; appGetRandom
_TEXT	ENDS
; Function compile flags: /Ogtp
; File C:\Anka2Project\Anka2Project\Source\Binary\source\UserInterface\PythonApplicationModule.cpp
;	COMDAT ?appGetRotatingDirection@@YAPAU_object@@PAU1@0@Z
_TEXT	SEGMENT
_fSource$ = -8						; size = 4
_fTarget$ = -4						; size = 4
_poSelf$ = 8						; size = 4
_poArgs$ = 12						; size = 4
?appGetRotatingDirection@@YAPAU_object@@PAU1@0@Z PROC	; appGetRotatingDirection, COMDAT

; 740  : {

  00000	55		 push	 ebp
  00001	8b ec		 mov	 ebp, esp
  00003	83 ec 08	 sub	 esp, 8

; 741  : 	float fSource;
; 742  : 	if (!PyTuple_GetFloat(poArgs, 0, &fSource))

  00006	8d 45 f8	 lea	 eax, DWORD PTR _fSource$[ebp]
  00009	50		 push	 eax
  0000a	6a 00		 push	 0
  0000c	ff 75 0c	 push	 DWORD PTR _poArgs$[ebp]
  0000f	e8 00 00 00 00	 call	 ?PyTuple_GetFloat@@YA_NPAU_object@@HPAM@Z ; PyTuple_GetFloat
  00014	83 c4 0c	 add	 esp, 12			; 0000000cH
  00017	84 c0		 test	 al, al
  00019	75 0e		 jne	 SHORT $LN2@appGetRota
$LN5@appGetRota:

; 749  : }

  0001b	6a 00		 push	 0
  0001d	e8 00 00 00 00	 call	 ?Py_BuildException@@YAPAU_object@@PBDZZ ; Py_BuildException
  00022	83 c4 04	 add	 esp, 4
  00025	8b e5		 mov	 esp, ebp
  00027	5d		 pop	 ebp
  00028	c3		 ret	 0
$LN2@appGetRota:

; 743  : 		return Py_BuildException();
; 744  : 	float fTarget;
; 745  : 	if (!PyTuple_GetFloat(poArgs, 1, &fTarget))

  00029	8d 45 fc	 lea	 eax, DWORD PTR _fTarget$[ebp]
  0002c	50		 push	 eax
  0002d	6a 01		 push	 1
  0002f	ff 75 0c	 push	 DWORD PTR _poArgs$[ebp]
  00032	e8 00 00 00 00	 call	 ?PyTuple_GetFloat@@YA_NPAU_object@@HPAM@Z ; PyTuple_GetFloat
  00037	83 c4 0c	 add	 esp, 12			; 0000000cH
  0003a	84 c0		 test	 al, al
  0003c	74 dd		 je	 SHORT $LN5@appGetRota

; 746  : 		return Py_BuildException();
; 747  : 
; 748  : 	return Py_BuildValue("i", GetRotatingDirection(fSource, fTarget));

  0003e	f3 0f 10 45 fc	 movss	 xmm0, DWORD PTR _fTarget$[ebp]
  00043	83 ec 08	 sub	 esp, 8
  00046	f3 0f 11 44 24
	04		 movss	 DWORD PTR [esp+4], xmm0
  0004c	f3 0f 10 45 f8	 movss	 xmm0, DWORD PTR _fSource$[ebp]
  00051	f3 0f 11 04 24	 movss	 DWORD PTR [esp], xmm0
  00056	e8 00 00 00 00	 call	 ?GetRotatingDirection@@YAHMM@Z ; GetRotatingDirection
  0005b	50		 push	 eax
  0005c	68 00 00 00 00	 push	 OFFSET ??_C@_01KBJDNOO@i@
  00061	ff 15 00 00 00
	00		 call	 DWORD PTR __imp__Py_BuildValue
  00067	83 c4 10	 add	 esp, 16			; 00000010H

; 749  : }

  0006a	8b e5		 mov	 esp, ebp
  0006c	5d		 pop	 ebp
  0006d	c3		 ret	 0
?appGetRotatingDirection@@YAPAU_object@@PAU1@0@Z ENDP	; appGetRotatingDirection
_TEXT	ENDS
; Function compile flags: /Ogtp
; File C:\Anka2Project\Anka2Project\Source\Binary\source\UserInterface\PythonApplicationModule.cpp
;	COMDAT ?appGetDegreeDifference@@YAPAU_object@@PAU1@0@Z
_TEXT	SEGMENT
_fTarget$ = -8						; size = 4
_fSource$ = -4						; size = 4
_poSelf$ = 8						; size = 4
_poArgs$ = 12						; size = 4
?appGetDegreeDifference@@YAPAU_object@@PAU1@0@Z PROC	; appGetDegreeDifference, COMDAT

; 752  : {

  00000	55		 push	 ebp
  00001	8b ec		 mov	 ebp, esp
  00003	83 e4 c0	 and	 esp, -64		; ffffffc0H
  00006	83 ec 40	 sub	 esp, 64			; 00000040H

; 753  : 	float fSource;
; 754  : 	if (!PyTuple_GetFloat(poArgs, 0, &fSource))

  00009	8d 44 24 3c	 lea	 eax, DWORD PTR _fSource$[esp+64]
  0000d	50		 push	 eax
  0000e	6a 00		 push	 0
  00010	ff 75 0c	 push	 DWORD PTR _poArgs$[ebp]
  00013	e8 00 00 00 00	 call	 ?PyTuple_GetFloat@@YA_NPAU_object@@HPAM@Z ; PyTuple_GetFloat
  00018	83 c4 0c	 add	 esp, 12			; 0000000cH
  0001b	84 c0		 test	 al, al
  0001d	75 0e		 jne	 SHORT $LN2@appGetDegr
$LN5@appGetDegr:

; 761  : }

  0001f	6a 00		 push	 0
  00021	e8 00 00 00 00	 call	 ?Py_BuildException@@YAPAU_object@@PBDZZ ; Py_BuildException
  00026	83 c4 04	 add	 esp, 4
  00029	8b e5		 mov	 esp, ebp
  0002b	5d		 pop	 ebp
  0002c	c3		 ret	 0
$LN2@appGetDegr:

; 755  : 		return Py_BuildException();
; 756  : 	float fTarget;
; 757  : 	if (!PyTuple_GetFloat(poArgs, 1, &fTarget))

  0002d	8d 44 24 38	 lea	 eax, DWORD PTR _fTarget$[esp+64]
  00031	50		 push	 eax
  00032	6a 01		 push	 1
  00034	ff 75 0c	 push	 DWORD PTR _poArgs$[ebp]
  00037	e8 00 00 00 00	 call	 ?PyTuple_GetFloat@@YA_NPAU_object@@HPAM@Z ; PyTuple_GetFloat
  0003c	83 c4 0c	 add	 esp, 12			; 0000000cH
  0003f	84 c0		 test	 al, al
  00041	74 dc		 je	 SHORT $LN5@appGetDegr

; 758  : 		return Py_BuildException();
; 759  : 
; 760  : 	return Py_BuildValue("f", GetDegreeDifference(fSource, fTarget));

  00043	f3 0f 10 44 24
	38		 movss	 xmm0, DWORD PTR _fTarget$[esp+64]
  00049	83 ec 08	 sub	 esp, 8
  0004c	f3 0f 11 44 24
	04		 movss	 DWORD PTR [esp+4], xmm0
  00052	f3 0f 10 44 24
	44		 movss	 xmm0, DWORD PTR _fSource$[esp+72]
  00058	f3 0f 11 04 24	 movss	 DWORD PTR [esp], xmm0
  0005d	e8 00 00 00 00	 call	 ?GetDegreeDifference@@YAMMM@Z ; GetDegreeDifference
  00062	dd 1c 24	 fstp	 QWORD PTR [esp]
  00065	68 00 00 00 00	 push	 OFFSET ??_C@_01INIBCBCB@f@
  0006a	ff 15 00 00 00
	00		 call	 DWORD PTR __imp__Py_BuildValue
  00070	83 c4 0c	 add	 esp, 12			; 0000000cH

; 761  : }

  00073	8b e5		 mov	 esp, ebp
  00075	5d		 pop	 ebp
  00076	c3		 ret	 0
?appGetDegreeDifference@@YAPAU_object@@PAU1@0@Z ENDP	; appGetDegreeDifference
_TEXT	ENDS
; Function compile flags: /Ogtp
; File C:\Anka2Project\Anka2Project\Source\Binary\source\UserInterface\PythonApplicationModule.cpp
;	COMDAT ?appSleep@@YAPAU_object@@PAU1@0@Z
_TEXT	SEGMENT
_iTime$ = -4						; size = 4
_poSelf$ = 8						; size = 4
_poArgs$ = 12						; size = 4
?appSleep@@YAPAU_object@@PAU1@0@Z PROC			; appSleep, COMDAT

; 764  : {

  00000	55		 push	 ebp
  00001	8b ec		 mov	 ebp, esp
  00003	51		 push	 ecx

; 765  : 	int	iTime;
; 766  : 	if (!PyTuple_GetInteger(poArgs, 0, &iTime))

  00004	8d 45 fc	 lea	 eax, DWORD PTR _iTime$[ebp]
  00007	50		 push	 eax
  00008	6a 00		 push	 0
  0000a	ff 75 0c	 push	 DWORD PTR _poArgs$[ebp]
  0000d	e8 00 00 00 00	 call	 ?PyTuple_GetInteger@@YA_NPAU_object@@HPAH@Z ; PyTuple_GetInteger
  00012	83 c4 0c	 add	 esp, 12			; 0000000cH
  00015	84 c0		 test	 al, al
  00017	75 0e		 jne	 SHORT $LN2@appSleep

; 767  : 		return Py_BuildException();

  00019	6a 00		 push	 0
  0001b	e8 00 00 00 00	 call	 ?Py_BuildException@@YAPAU_object@@PBDZZ ; Py_BuildException
  00020	83 c4 04	 add	 esp, 4

; 772  : }

  00023	8b e5		 mov	 esp, ebp
  00025	5d		 pop	 ebp
  00026	c3		 ret	 0
$LN2@appSleep:

; 768  : 
; 769  : 	Sleep(iTime);

  00027	ff 75 fc	 push	 DWORD PTR _iTime$[ebp]
  0002a	ff 15 00 00 00
	00		 call	 DWORD PTR __imp__Sleep@4

; 770  : 
; 771  : 	return Py_BuildNone();

  00030	e8 00 00 00 00	 call	 ?Py_BuildNone@@YAPAU_object@@XZ ; Py_BuildNone

; 772  : }

  00035	8b e5		 mov	 esp, ebp
  00037	5d		 pop	 ebp
  00038	c3		 ret	 0
?appSleep@@YAPAU_object@@PAU1@0@Z ENDP			; appSleep
_TEXT	ENDS
; Function compile flags: /Ogtp
; File C:\Anka2Project\Anka2Project\Source\Binary\source\UserInterface\PythonApplicationModule.cpp
;	COMDAT ?appIsFileExist@@YAPAU_object@@PAU1@0@Z
_TEXT	SEGMENT
_szFileName$ = -4					; size = 4
_poSelf$ = 8						; size = 4
_poArgs$ = 12						; size = 4
?appIsFileExist@@YAPAU_object@@PAU1@0@Z PROC		; appIsFileExist, COMDAT

; 817  : {

  00000	55		 push	 ebp
  00001	8b ec		 mov	 ebp, esp
  00003	51		 push	 ecx

; 818  : 	char *szFileName;
; 819  : 	if (!PyTuple_GetString(poArgs, 0, &szFileName))

  00004	8d 45 fc	 lea	 eax, DWORD PTR _szFileName$[ebp]
  00007	50		 push	 eax
  00008	6a 00		 push	 0
  0000a	ff 75 0c	 push	 DWORD PTR _poArgs$[ebp]
  0000d	e8 00 00 00 00	 call	 ?PyTuple_GetString@@YA_NPAU_object@@HPAPAD@Z ; PyTuple_GetString
  00012	83 c4 0c	 add	 esp, 12			; 0000000cH
  00015	6a 00		 push	 0
  00017	84 c0		 test	 al, al
  00019	75 0c		 jne	 SHORT $LN2@appIsFileE

; 820  : 		return Py_BuildException();

  0001b	e8 00 00 00 00	 call	 ?Py_BuildException@@YAPAU_object@@PBDZZ ; Py_BuildException
  00020	83 c4 04	 add	 esp, 4

; 823  : }

  00023	8b e5		 mov	 esp, ebp
  00025	5d		 pop	 ebp
  00026	c3		 ret	 0
$LN2@appIsFileE:

; 821  : 
; 822  : 	return Py_BuildValue("i", -1 != _access(szFileName, 0));

  00027	ff 75 fc	 push	 DWORD PTR _szFileName$[ebp]
  0002a	e8 00 00 00 00	 call	 __access
  0002f	33 c9		 xor	 ecx, ecx
  00031	83 f8 ff	 cmp	 eax, -1
  00034	0f 95 c1	 setne	 cl
  00037	51		 push	 ecx
  00038	68 00 00 00 00	 push	 OFFSET ??_C@_01KBJDNOO@i@
  0003d	ff 15 00 00 00
	00		 call	 DWORD PTR __imp__Py_BuildValue
  00043	83 c4 10	 add	 esp, 16			; 00000010H

; 823  : }

  00046	8b e5		 mov	 esp, ebp
  00048	5d		 pop	 ebp
  00049	c3		 ret	 0
?appIsFileExist@@YAPAU_object@@PAU1@0@Z ENDP		; appIsFileExist
_TEXT	ENDS
; Function compile flags: /Ogtp
; File C:\Anka2Project\Anka2Project\Source\Binary\source\UserInterface\PythonApplicationModule.cpp
; File C:\Anka2Project\Anka2Project\Source\Binary\source\UserInterface\PythonApplication.h
; File C:\Anka2Project\Anka2Project\Source\Binary\source\UserInterface\PythonApplicationModule.cpp
; File C:\Anka2Project\Anka2Project\Source\Binary\source\UserInterface\PythonApplication.h
; File C:\Anka2Project\Anka2Project\Source\Binary\source\UserInterface\PythonApplicationModule.cpp
;	COMDAT ?appSetCameraSetting@@YAPAU_object@@PAU1@0@Z
_TEXT	SEGMENT
_iPitch$ = -64						; size = 4
_iRotation$ = -60					; size = 4
_iZoom$ = -56						; size = 4
_iz$ = -52						; size = 4
_iy$ = -48						; size = 4
_ix$ = -44						; size = 4
_CameraSetting$ = -40					; size = 36
__$ArrayPad$ = -4					; size = 4
_poSelf$ = 8						; size = 4
_poArgs$ = 12						; size = 4
?appSetCameraSetting@@YAPAU_object@@PAU1@0@Z PROC	; appSetCameraSetting, COMDAT

; 826  : {

  00000	55		 push	 ebp
  00001	8b ec		 mov	 ebp, esp
  00003	83 ec 40	 sub	 esp, 64			; 00000040H
  00006	a1 00 00 00 00	 mov	 eax, DWORD PTR ___security_cookie
  0000b	33 c5		 xor	 eax, ebp
  0000d	89 45 fc	 mov	 DWORD PTR __$ArrayPad$[ebp], eax
  00010	56		 push	 esi
  00011	8b 75 0c	 mov	 esi, DWORD PTR _poArgs$[ebp]

; 827  : 	int ix;
; 828  : 	if (!PyTuple_GetInteger(poArgs, 0, &ix))

  00014	8d 45 d4	 lea	 eax, DWORD PTR _ix$[ebp]
  00017	50		 push	 eax
  00018	6a 00		 push	 0
  0001a	56		 push	 esi
  0001b	e8 00 00 00 00	 call	 ?PyTuple_GetInteger@@YA_NPAU_object@@HPAH@Z ; PyTuple_GetInteger
  00020	83 c4 0c	 add	 esp, 12			; 0000000cH
  00023	84 c0		 test	 al, al
  00025	75 19		 jne	 SHORT $LN2@appSetCame
$LN25@appSetCame:

; 857  : }

  00027	6a 00		 push	 0
  00029	e8 00 00 00 00	 call	 ?Py_BuildException@@YAPAU_object@@PBDZZ ; Py_BuildException
  0002e	83 c4 04	 add	 esp, 4
  00031	5e		 pop	 esi
  00032	8b 4d fc	 mov	 ecx, DWORD PTR __$ArrayPad$[ebp]
  00035	33 cd		 xor	 ecx, ebp
  00037	e8 00 00 00 00	 call	 @__security_check_cookie@4
  0003c	8b e5		 mov	 esp, ebp
  0003e	5d		 pop	 ebp
  0003f	c3		 ret	 0
$LN2@appSetCame:

; 829  : 		return Py_BuildException();
; 830  : 	int iy;
; 831  : 	if (!PyTuple_GetInteger(poArgs, 1, &iy))

  00040	8d 45 d0	 lea	 eax, DWORD PTR _iy$[ebp]
  00043	50		 push	 eax
  00044	6a 01		 push	 1
  00046	56		 push	 esi
  00047	e8 00 00 00 00	 call	 ?PyTuple_GetInteger@@YA_NPAU_object@@HPAH@Z ; PyTuple_GetInteger
  0004c	83 c4 0c	 add	 esp, 12			; 0000000cH
  0004f	84 c0		 test	 al, al
  00051	74 d4		 je	 SHORT $LN25@appSetCame

; 832  : 		return Py_BuildException();
; 833  : 	int iz;
; 834  : 	if (!PyTuple_GetInteger(poArgs, 2, &iz))

  00053	8d 45 cc	 lea	 eax, DWORD PTR _iz$[ebp]
  00056	50		 push	 eax
  00057	6a 02		 push	 2
  00059	56		 push	 esi
  0005a	e8 00 00 00 00	 call	 ?PyTuple_GetInteger@@YA_NPAU_object@@HPAH@Z ; PyTuple_GetInteger
  0005f	83 c4 0c	 add	 esp, 12			; 0000000cH
  00062	84 c0		 test	 al, al
  00064	74 c1		 je	 SHORT $LN25@appSetCame

; 835  : 		return Py_BuildException();
; 836  : 
; 837  : 	int iZoom;
; 838  : 	if (!PyTuple_GetInteger(poArgs, 3, &iZoom))

  00066	8d 45 c8	 lea	 eax, DWORD PTR _iZoom$[ebp]
  00069	50		 push	 eax
  0006a	6a 03		 push	 3
  0006c	56		 push	 esi
  0006d	e8 00 00 00 00	 call	 ?PyTuple_GetInteger@@YA_NPAU_object@@HPAH@Z ; PyTuple_GetInteger
  00072	83 c4 0c	 add	 esp, 12			; 0000000cH
  00075	84 c0		 test	 al, al
  00077	74 ae		 je	 SHORT $LN25@appSetCame

; 839  : 		return Py_BuildException();
; 840  : 	int iRotation;
; 841  : 	if (!PyTuple_GetInteger(poArgs, 4, &iRotation))

  00079	8d 45 c4	 lea	 eax, DWORD PTR _iRotation$[ebp]
  0007c	50		 push	 eax
  0007d	6a 04		 push	 4
  0007f	56		 push	 esi
  00080	e8 00 00 00 00	 call	 ?PyTuple_GetInteger@@YA_NPAU_object@@HPAH@Z ; PyTuple_GetInteger
  00085	83 c4 0c	 add	 esp, 12			; 0000000cH
  00088	84 c0		 test	 al, al
  0008a	74 9b		 je	 SHORT $LN25@appSetCame

; 842  : 		return Py_BuildException();
; 843  : 	int iPitch;
; 844  : 	if (!PyTuple_GetInteger(poArgs, 5, &iPitch))

  0008c	8d 45 c0	 lea	 eax, DWORD PTR _iPitch$[ebp]
  0008f	50		 push	 eax
  00090	6a 05		 push	 5
  00092	56		 push	 esi
  00093	e8 00 00 00 00	 call	 ?PyTuple_GetInteger@@YA_NPAU_object@@HPAH@Z ; PyTuple_GetInteger
  00098	83 c4 0c	 add	 esp, 12			; 0000000cH
  0009b	84 c0		 test	 al, al
  0009d	74 88		 je	 SHORT $LN25@appSetCame
  0009f	0f 57 c0	 xorps	 xmm0, xmm0
; File C:\Anka2Project\Anka2Project\Source\Binary\source\UserInterface\PythonApplication.h

; 213  : 			assert(ms_pInstance != nullptr);

  000a2	8b 0d 00 00 00
	00		 mov	 ecx, DWORD PTR ?ms_pInstance@CPythonApplication@@1PAV1@A ; CPythonApplication::ms_pInstance
; File C:\Anka2Project\Anka2Project\Source\Binary\source\UserInterface\PythonApplicationModule.cpp

; 848  : 	ZeroMemory(&CameraSetting, sizeof(CameraSetting));

  000a8	66 0f 13 45 e4	 movlpd	 QWORD PTR _CameraSetting$[ebp+12], xmm0
  000ad	66 0f 6e 45 d4	 movd	 xmm0, DWORD PTR _ix$[ebp]
  000b2	c7 45 ec 00 00
	00 00		 mov	 DWORD PTR _CameraSetting$[ebp+20], 0

; 849  : 	CameraSetting.v3CenterPosition.x = float(ix);

  000b9	0f 5b c0	 cvtdq2ps xmm0, xmm0
  000bc	f3 0f 11 45 d8	 movss	 DWORD PTR _CameraSetting$[ebp], xmm0
  000c1	66 0f 6e 45 d0	 movd	 xmm0, DWORD PTR _iy$[ebp]

; 850  : 	CameraSetting.v3CenterPosition.y = float(iy);

  000c6	0f 5b c0	 cvtdq2ps xmm0, xmm0
  000c9	f3 0f 11 45 dc	 movss	 DWORD PTR _CameraSetting$[ebp+4], xmm0
  000ce	66 0f 6e 45 cc	 movd	 xmm0, DWORD PTR _iz$[ebp]

; 851  : 	CameraSetting.v3CenterPosition.z = float(iz);

  000d3	0f 5b c0	 cvtdq2ps xmm0, xmm0
  000d6	f3 0f 11 45 e0	 movss	 DWORD PTR _CameraSetting$[ebp+8], xmm0
  000db	66 0f 6e 45 c8	 movd	 xmm0, DWORD PTR _iZoom$[ebp]

; 852  : 	CameraSetting.fZoom = float(iZoom);

  000e0	0f 5b c0	 cvtdq2ps xmm0, xmm0
  000e3	f3 0f 11 45 f8	 movss	 DWORD PTR _CameraSetting$[ebp+32], xmm0
  000e8	66 0f 6e 45 c4	 movd	 xmm0, DWORD PTR _iRotation$[ebp]

; 853  : 	CameraSetting.fRotation = float(iRotation);

  000ed	0f 5b c0	 cvtdq2ps xmm0, xmm0
  000f0	f3 0f 11 45 f0	 movss	 DWORD PTR _CameraSetting$[ebp+24], xmm0
  000f5	66 0f 6e 45 c0	 movd	 xmm0, DWORD PTR _iPitch$[ebp]

; 854  : 	CameraSetting.fPitch = float(iPitch);

  000fa	0f 5b c0	 cvtdq2ps xmm0, xmm0
  000fd	f3 0f 11 45 f4	 movss	 DWORD PTR _CameraSetting$[ebp+28], xmm0
; File C:\Anka2Project\Anka2Project\Source\Binary\source\UserInterface\PythonApplication.h

; 213  : 			assert(ms_pInstance != nullptr);

  00102	85 c9		 test	 ecx, ecx
  00104	75 1d		 jne	 SHORT $LN17@appSetCame
  00106	68 d5 00 00 00	 push	 213			; 000000d5H
  0010b	68 00 00 00 00	 push	 OFFSET ??_C@_1KI@NDOHEKDB@?$AAC?$AA?3?$AA?2?$AAA?$AAn?$AAk?$AAa?$AA2?$AAP?$AAr?$AAo?$AAj?$AAe?$AAc?$AAt@
  00110	68 00 00 00 00	 push	 OFFSET ??_C@_1DA@IANAENLC@?$AAm?$AAs?$AA_?$AAp?$AAI?$AAn?$AAs?$AAt?$AAa?$AAn?$AAc?$AAe?$AA?5?$AA?$CB?$AA?$DN@
  00115	e8 00 00 00 00	 call	 __wassert
  0011a	8b 0d 00 00 00
	00		 mov	 ecx, DWORD PTR ?ms_pInstance@CPythonApplication@@1PAV1@A ; CPythonApplication::ms_pInstance
  00120	83 c4 0c	 add	 esp, 12			; 0000000cH
$LN17@appSetCame:
; File C:\Anka2Project\Anka2Project\Source\Binary\source\UserInterface\PythonApplicationModule.cpp

; 855  : 	CPythonApplication::Instance().SetEventCamera(CameraSetting);

  00123	8b 41 20	 mov	 eax, DWORD PTR [ecx+32]
  00126	8d 55 d8	 lea	 edx, DWORD PTR _CameraSetting$[ebp]
  00129	83 c1 20	 add	 ecx, 32			; 00000020H
  0012c	52		 push	 edx
  0012d	ff 50 1c	 call	 DWORD PTR [eax+28]

; 856  : 	return Py_BuildNone();

  00130	e8 00 00 00 00	 call	 ?Py_BuildNone@@YAPAU_object@@XZ ; Py_BuildNone

; 857  : }

  00135	8b 4d fc	 mov	 ecx, DWORD PTR __$ArrayPad$[ebp]
  00138	33 cd		 xor	 ecx, ebp
  0013a	5e		 pop	 esi
  0013b	e8 00 00 00 00	 call	 @__security_check_cookie@4
  00140	8b e5		 mov	 esp, ebp
  00142	5d		 pop	 ebp
  00143	c3		 ret	 0
?appSetCameraSetting@@YAPAU_object@@PAU1@0@Z ENDP	; appSetCameraSetting
_TEXT	ENDS
; Function compile flags: /Ogtp
; File C:\Anka2Project\Anka2Project\Source\Binary\source\UserInterface\PythonApplicationModule.cpp
; File C:\Anka2Project\Anka2Project\Source\Binary\source\UserInterface\PythonApplication.h
; File C:\Anka2Project\Anka2Project\Source\Binary\source\UserInterface\PythonApplicationModule.cpp
;	COMDAT ?appLoadCameraSetting@@YAPAU_object@@PAU1@0@Z
_TEXT	SEGMENT
_szFileName$ = -4					; size = 4
_poSelf$ = 8						; size = 4
_poArgs$ = 12						; size = 4
?appLoadCameraSetting@@YAPAU_object@@PAU1@0@Z PROC	; appLoadCameraSetting, COMDAT

; 870  : {

  00000	55		 push	 ebp
  00001	8b ec		 mov	 ebp, esp
  00003	83 ec 08	 sub	 esp, 8

; 871  : 	char *szFileName;
; 872  : 	if (!PyTuple_GetString(poArgs, 0, &szFileName))

  00006	8d 45 fc	 lea	 eax, DWORD PTR _szFileName$[ebp]
  00009	50		 push	 eax
  0000a	6a 00		 push	 0
  0000c	ff 75 0c	 push	 DWORD PTR _poArgs$[ebp]
  0000f	e8 00 00 00 00	 call	 ?PyTuple_GetString@@YA_NPAU_object@@HPAPAD@Z ; PyTuple_GetString
  00014	83 c4 0c	 add	 esp, 12			; 0000000cH
  00017	84 c0		 test	 al, al
  00019	75 0e		 jne	 SHORT $LN2@appLoadCam

; 873  : 		return Py_BuildException();

  0001b	6a 00		 push	 0
  0001d	e8 00 00 00 00	 call	 ?Py_BuildException@@YAPAU_object@@PBDZZ ; Py_BuildException
  00022	83 c4 04	 add	 esp, 4

; 877  : }

  00025	8b e5		 mov	 esp, ebp
  00027	5d		 pop	 ebp
  00028	c3		 ret	 0
$LN2@appLoadCam:
; File C:\Anka2Project\Anka2Project\Source\Binary\source\UserInterface\PythonApplication.h

; 213  : 			assert(ms_pInstance != nullptr);

  00029	8b 0d 00 00 00
	00		 mov	 ecx, DWORD PTR ?ms_pInstance@CPythonApplication@@1PAV1@A ; CPythonApplication::ms_pInstance
  0002f	85 c9		 test	 ecx, ecx
  00031	75 1d		 jne	 SHORT $LN6@appLoadCam
  00033	68 d5 00 00 00	 push	 213			; 000000d5H
  00038	68 00 00 00 00	 push	 OFFSET ??_C@_1KI@NDOHEKDB@?$AAC?$AA?3?$AA?2?$AAA?$AAn?$AAk?$AAa?$AA2?$AAP?$AAr?$AAo?$AAj?$AAe?$AAc?$AAt@
  0003d	68 00 00 00 00	 push	 OFFSET ??_C@_1DA@IANAENLC@?$AAm?$AAs?$AA_?$AAp?$AAI?$AAn?$AAs?$AAt?$AAa?$AAn?$AAc?$AAe?$AA?5?$AA?$CB?$AA?$DN@
  00042	e8 00 00 00 00	 call	 __wassert
  00047	8b 0d 00 00 00
	00		 mov	 ecx, DWORD PTR ?ms_pInstance@CPythonApplication@@1PAV1@A ; CPythonApplication::ms_pInstance
  0004d	83 c4 0c	 add	 esp, 12			; 0000000cH
$LN6@appLoadCam:
; File C:\Anka2Project\Anka2Project\Source\Binary\source\UserInterface\PythonApplicationModule.cpp

; 875  : 	bool bResult = CPythonApplication::Instance().LoadCameraSetting(szFileName);

  00050	ff 75 fc	 push	 DWORD PTR _szFileName$[ebp]
  00053	e8 00 00 00 00	 call	 ?LoadCameraSetting@CPythonApplication@@QAE_NPBD@Z ; CPythonApplication::LoadCameraSetting

; 876  : 	return Py_BuildValue("i", bResult);

  00058	0f b6 c0	 movzx	 eax, al
  0005b	50		 push	 eax
  0005c	68 00 00 00 00	 push	 OFFSET ??_C@_01KBJDNOO@i@
  00061	ff 15 00 00 00
	00		 call	 DWORD PTR __imp__Py_BuildValue
  00067	83 c4 08	 add	 esp, 8

; 877  : }

  0006a	8b e5		 mov	 esp, ebp
  0006c	5d		 pop	 ebp
  0006d	c3		 ret	 0
?appLoadCameraSetting@@YAPAU_object@@PAU1@0@Z ENDP	; appLoadCameraSetting
_TEXT	ENDS
; Function compile flags: /Ogtp
; File C:\Anka2Project\Anka2Project\Source\Binary\source\UserInterface\PythonApplicationModule.cpp
; File C:\Anka2Project\Anka2Project\Source\Binary\source\UserInterface\PythonApplication.h
; File C:\Anka2Project\Anka2Project\Source\Binary\source\UserInterface\PythonApplicationModule.cpp
;	COMDAT ?appSetDefaultCamera@@YAPAU_object@@PAU1@0@Z
_TEXT	SEGMENT
_poSelf$ = 8						; size = 4
_poArgs$ = 12						; size = 4
?appSetDefaultCamera@@YAPAU_object@@PAU1@0@Z PROC	; appSetDefaultCamera, COMDAT
; File C:\Anka2Project\Anka2Project\Source\Binary\source\UserInterface\PythonApplication.h

; 213  : 			assert(ms_pInstance != nullptr);

  00000	8b 0d 00 00 00
	00		 mov	 ecx, DWORD PTR ?ms_pInstance@CPythonApplication@@1PAV1@A ; CPythonApplication::ms_pInstance
  00006	85 c9		 test	 ecx, ecx
  00008	75 1d		 jne	 SHORT $LN5@appSetDefa
  0000a	68 d5 00 00 00	 push	 213			; 000000d5H
  0000f	68 00 00 00 00	 push	 OFFSET ??_C@_1KI@NDOHEKDB@?$AAC?$AA?3?$AA?2?$AAA?$AAn?$AAk?$AAa?$AA2?$AAP?$AAr?$AAo?$AAj?$AAe?$AAc?$AAt@
  00014	68 00 00 00 00	 push	 OFFSET ??_C@_1DA@IANAENLC@?$AAm?$AAs?$AA_?$AAp?$AAI?$AAn?$AAs?$AAt?$AAa?$AAn?$AAc?$AAe?$AA?5?$AA?$CB?$AA?$DN@
  00019	e8 00 00 00 00	 call	 __wassert
  0001e	8b 0d 00 00 00
	00		 mov	 ecx, DWORD PTR ?ms_pInstance@CPythonApplication@@1PAV1@A ; CPythonApplication::ms_pInstance
  00024	83 c4 0c	 add	 esp, 12			; 0000000cH
$LN5@appSetDefa:
; File C:\Anka2Project\Anka2Project\Source\Binary\source\UserInterface\PythonApplicationModule.cpp

; 881  : 	CPythonApplication::Instance().SetDefaultCamera();

  00027	8b 41 20	 mov	 eax, DWORD PTR [ecx+32]
  0002a	83 c1 20	 add	 ecx, 32			; 00000020H
  0002d	ff 50 24	 call	 DWORD PTR [eax+36]

; 882  : 	return Py_BuildNone();

  00030	e9 00 00 00 00	 jmp	 ?Py_BuildNone@@YAPAU_object@@XZ ; Py_BuildNone
?appSetDefaultCamera@@YAPAU_object@@PAU1@0@Z ENDP	; appSetDefaultCamera
_TEXT	ENDS
; Function compile flags: /Ogtp
; File C:\Anka2Project\Anka2Project\Source\Binary\source\UserInterface\PythonApplicationModule.cpp
;	COMDAT ?apptestGetAccumulationTime@@YAPAU_object@@PAU1@0@Z
_TEXT	SEGMENT
_poSelf$ = 8						; size = 4
_poArgs$ = 12						; size = 4
?apptestGetAccumulationTime@@YAPAU_object@@PAU1@0@Z PROC ; apptestGetAccumulationTime, COMDAT

; 899  : 	return Py_BuildValue("i", g_iAccumulationTime);

  00000	ff 35 00 00 00
	00		 push	 DWORD PTR ?g_iAccumulationTime@@3HA ; g_iAccumulationTime
  00006	68 00 00 00 00	 push	 OFFSET ??_C@_01KBJDNOO@i@
  0000b	ff 15 00 00 00
	00		 call	 DWORD PTR __imp__Py_BuildValue
  00011	83 c4 08	 add	 esp, 8

; 900  : }

  00014	c3		 ret	 0
?apptestGetAccumulationTime@@YAPAU_object@@PAU1@0@Z ENDP ; apptestGetAccumulationTime
_TEXT	ENDS
; Function compile flags: /Ogtp
; File C:\Anka2Project\Anka2Project\Source\Binary\source\UserInterface\PythonApplicationModule.cpp
;	COMDAT ?appIsVisibleNotice@@YAPAU_object@@PAU1@0@Z
_TEXT	SEGMENT
_poSelf$ = 8						; size = 4
_poArgs$ = 12						; size = 4
?appIsVisibleNotice@@YAPAU_object@@PAU1@0@Z PROC	; appIsVisibleNotice, COMDAT

; 934  : 	return Py_BuildValue("i", bVisibleNotice);

  00000	ff 35 00 00 00
	00		 push	 DWORD PTR ?bVisibleNotice@@3HA ; bVisibleNotice
  00006	68 00 00 00 00	 push	 OFFSET ??_C@_01KBJDNOO@i@
  0000b	ff 15 00 00 00
	00		 call	 DWORD PTR __imp__Py_BuildValue
  00011	83 c4 08	 add	 esp, 8

; 935  : }

  00014	c3		 ret	 0
?appIsVisibleNotice@@YAPAU_object@@PAU1@0@Z ENDP	; appIsVisibleNotice
_TEXT	ENDS
; Function compile flags: /Ogtp
; File C:\Anka2Project\Anka2Project\Source\Binary\source\UserInterface\PythonApplicationModule.cpp
;	COMDAT ?appIsEnableTestServerFlag@@YAPAU_object@@PAU1@0@Z
_TEXT	SEGMENT
_poSelf$ = 8						; size = 4
_poArgs$ = 12						; size = 4
?appIsEnableTestServerFlag@@YAPAU_object@@PAU1@0@Z PROC	; appIsEnableTestServerFlag, COMDAT

; 945  : 	return Py_BuildValue("i", bTestServerFlag);

  00000	ff 35 00 00 00
	00		 push	 DWORD PTR ?bTestServerFlag@@3HA ; bTestServerFlag
  00006	68 00 00 00 00	 push	 OFFSET ??_C@_01KBJDNOO@i@
  0000b	ff 15 00 00 00
	00		 call	 DWORD PTR __imp__Py_BuildValue
  00011	83 c4 08	 add	 esp, 8

; 946  : }

  00014	c3		 ret	 0
?appIsEnableTestServerFlag@@YAPAU_object@@PAU1@0@Z ENDP	; appIsEnableTestServerFlag
_TEXT	ENDS
; Function compile flags: /Ogtp
; File C:\Anka2Project\Anka2Project\Source\Binary\source\UserInterface\PythonApplicationModule.cpp
; File C:\Anka2Project\Anka2Project\Source\Binary\source\eterBase\Singleton.h
; File C:\Anka2Project\Anka2Project\Source\Binary\source\UserInterface\PythonApplicationModule.cpp
;	COMDAT ?appOpenTextFile@@YAPAU_object@@PAU1@0@Z
_TEXT	SEGMENT
$T1 = -352						; size = 4
_pvData$6 = -348					; size = 4
_szFileName$ = -344					; size = 4
_kFile$7 = -340						; size = 324
__$ArrayPad$ = -16					; size = 4
__$EHRec$ = -12						; size = 12
_poSelf$ = 8						; size = 4
_poArgs$ = 12						; size = 4
?appOpenTextFile@@YAPAU_object@@PAU1@0@Z PROC		; appOpenTextFile, COMDAT

; 979  : {

  00000	55		 push	 ebp
  00001	8b ec		 mov	 ebp, esp
  00003	6a ff		 push	 -1
  00005	68 00 00 00 00	 push	 __ehhandler$?appOpenTextFile@@YAPAU_object@@PAU1@0@Z
  0000a	64 a1 00 00 00
	00		 mov	 eax, DWORD PTR fs:0
  00010	50		 push	 eax
  00011	81 ec 54 01 00
	00		 sub	 esp, 340		; 00000154H
  00017	a1 00 00 00 00	 mov	 eax, DWORD PTR ___security_cookie
  0001c	33 c5		 xor	 eax, ebp
  0001e	89 45 f0	 mov	 DWORD PTR __$ArrayPad$[ebp], eax
  00021	56		 push	 esi
  00022	57		 push	 edi
  00023	50		 push	 eax
  00024	8d 45 f4	 lea	 eax, DWORD PTR __$EHRec$[ebp]
  00027	64 a3 00 00 00
	00		 mov	 DWORD PTR fs:0, eax
  0002d	8b 45 0c	 mov	 eax, DWORD PTR _poArgs$[ebp]

; 980  : 	char *szFileName;
; 981  : 	if (!PyTuple_GetString(poArgs, 0, &szFileName))

  00030	8d 8d a8 fe ff
	ff		 lea	 ecx, DWORD PTR _szFileName$[ebp]
  00036	51		 push	 ecx
  00037	6a 00		 push	 0
  00039	50		 push	 eax
  0003a	e8 00 00 00 00	 call	 ?PyTuple_GetString@@YA_NPAU_object@@HPAPAD@Z ; PyTuple_GetString
  0003f	83 c4 0c	 add	 esp, 12			; 0000000cH
  00042	84 c0		 test	 al, al
  00044	75 0f		 jne	 SHORT $LN2@appOpenTex

; 982  : 		return Py_BuildException();

  00046	6a 00		 push	 0
  00048	e8 00 00 00 00	 call	 ?Py_BuildException@@YAPAU_object@@PBDZZ ; Py_BuildException
  0004d	83 c4 04	 add	 esp, 4
  00050	e9 a9 00 00 00	 jmp	 $LN1@appOpenTex
$LN2@appOpenTex:

; 983  : 
; 984  : 	CTextLineLoader * pTextLineLoader = new CTextLineLoader(szFileName);

  00055	6a 10		 push	 16			; 00000010H
  00057	e8 00 00 00 00	 call	 ??2@YAPAXI@Z		; operator new
  0005c	8b f8		 mov	 edi, eax
  0005e	83 c4 04	 add	 esp, 4
  00061	89 bd a0 fe ff
	ff		 mov	 DWORD PTR $T1[ebp], edi
  00067	c7 45 fc 00 00
	00 00		 mov	 DWORD PTR __$EHRec$[ebp+8], 0

; 952  : 		{

  0006e	8b cf		 mov	 ecx, edi

; 983  : 
; 984  : 	CTextLineLoader * pTextLineLoader = new CTextLineLoader(szFileName);

  00070	8b b5 a8 fe ff
	ff		 mov	 esi, DWORD PTR _szFileName$[ebp]

; 952  : 		{

  00076	e8 00 00 00 00	 call	 ??0CMemoryTextFileLoader@@QAE@XZ ; CMemoryTextFileLoader::CMemoryTextFileLoader

; 953  : 			const VOID* pvData;
; 954  : 			CMappedFile kFile;

  0007b	8d 8d ac fe ff
	ff		 lea	 ecx, DWORD PTR _kFile$7[ebp]
  00081	c6 45 fc 01	 mov	 BYTE PTR __$EHRec$[ebp+8], 1
  00085	e8 00 00 00 00	 call	 ??0CMappedFile@@QAE@XZ	; CMappedFile::CMappedFile
  0008a	c6 45 fc 02	 mov	 BYTE PTR __$EHRec$[ebp+8], 2
; File C:\Anka2Project\Anka2Project\Source\Binary\source\eterBase\Singleton.h

; 26   : 		assert(ms_singleton);

  0008e	8b 0d 00 00 00
	00		 mov	 ecx, DWORD PTR ?ms_singleton@?$CSingleton@VCEterPackManager@@@@0PAVCEterPackManager@@A ; CSingleton<CEterPackManager>::ms_singleton
  00094	85 c9		 test	 ecx, ecx
  00096	75 1a		 jne	 SHORT $LN14@appOpenTex
  00098	6a 1a		 push	 26			; 0000001aH
  0009a	68 00 00 00 00	 push	 OFFSET ??_C@_1IO@CAJLEEOI@?$AAC?$AA?3?$AA?2?$AAA?$AAn?$AAk?$AAa?$AA2?$AAP?$AAr?$AAo?$AAj?$AAe?$AAc?$AAt@
  0009f	68 00 00 00 00	 push	 OFFSET ??_C@_1BK@FMEHPMFE@?$AAm?$AAs?$AA_?$AAs?$AAi?$AAn?$AAg?$AAl?$AAe?$AAt?$AAo?$AAn@
  000a4	e8 00 00 00 00	 call	 __wassert
  000a9	8b 0d 00 00 00
	00		 mov	 ecx, DWORD PTR ?ms_singleton@?$CSingleton@VCEterPackManager@@@@0PAVCEterPackManager@@A ; CSingleton<CEterPackManager>::ms_singleton
  000af	83 c4 0c	 add	 esp, 12			; 0000000cH
$LN14@appOpenTex:
; File C:\Anka2Project\Anka2Project\Source\Binary\source\UserInterface\PythonApplicationModule.cpp

; 955  : 			if (!CEterPackManager::Instance().Get(kFile, c_szFileName, &pvData))

  000b2	8d 85 a4 fe ff
	ff		 lea	 eax, DWORD PTR _pvData$6[ebp]
  000b8	50		 push	 eax
  000b9	56		 push	 esi
  000ba	8d 85 ac fe ff
	ff		 lea	 eax, DWORD PTR _kFile$7[ebp]
  000c0	50		 push	 eax
  000c1	e8 00 00 00 00	 call	 ?Get@CEterPackManager@@QAE_NAAVCMappedFile@@PBDPAPBX@Z ; CEterPackManager::Get
  000c6	8d 8d ac fe ff
	ff		 lea	 ecx, DWORD PTR _kFile$7[ebp]
  000cc	84 c0		 test	 al, al
  000ce	74 1a		 je	 SHORT $LN7@appOpenTex

; 956  : 				return;
; 957  : 
; 958  : 			m_kTextFileLoader.Bind(kFile.Size(), pvData);

  000d0	8b b5 a4 fe ff
	ff		 mov	 esi, DWORD PTR _pvData$6[ebp]
  000d6	e8 00 00 00 00	 call	 ?Size@CMappedFile@@QAEKXZ ; CMappedFile::Size
  000db	56		 push	 esi
  000dc	50		 push	 eax
  000dd	8b cf		 mov	 ecx, edi
  000df	e8 00 00 00 00	 call	 ?Bind@CMemoryTextFileLoader@@QAEXHPBX@Z ; CMemoryTextFileLoader::Bind

; 959  : 		}

  000e4	8d 8d ac fe ff
	ff		 lea	 ecx, DWORD PTR _kFile$7[ebp]
$LN7@appOpenTex:

; 985  : 
; 986  : 	return Py_BuildValue("i", (int)pTextLineLoader);

  000ea	e8 00 00 00 00	 call	 ??1CMappedFile@@UAE@XZ	; CMappedFile::~CMappedFile
  000ef	57		 push	 edi
  000f0	68 00 00 00 00	 push	 OFFSET ??_C@_01KBJDNOO@i@
  000f5	ff 15 00 00 00
	00		 call	 DWORD PTR __imp__Py_BuildValue
  000fb	83 c4 08	 add	 esp, 8
$LN1@appOpenTex:

; 987  : }

  000fe	8b 4d f4	 mov	 ecx, DWORD PTR __$EHRec$[ebp]
  00101	64 89 0d 00 00
	00 00		 mov	 DWORD PTR fs:0, ecx
  00108	59		 pop	 ecx
  00109	5f		 pop	 edi
  0010a	5e		 pop	 esi
  0010b	8b 4d f0	 mov	 ecx, DWORD PTR __$ArrayPad$[ebp]
  0010e	33 cd		 xor	 ecx, ebp
  00110	e8 00 00 00 00	 call	 @__security_check_cookie@4
  00115	8b e5		 mov	 esp, ebp
  00117	5d		 pop	 ebp
  00118	c3		 ret	 0
_TEXT	ENDS
;	COMDAT text$x
text$x	SEGMENT
__unwindfunclet$?appOpenTextFile@@YAPAU_object@@PAU1@0@Z$0:
  00000	6a 10		 push	 16			; 00000010H
  00002	8b 85 a0 fe ff
	ff		 mov	 eax, DWORD PTR $T1[ebp]
  00008	50		 push	 eax
  00009	e8 00 00 00 00	 call	 ??3@YAXPAXI@Z		; operator delete
  0000e	83 c4 08	 add	 esp, 8
  00011	c3		 ret	 0
__unwindfunclet$?appOpenTextFile@@YAPAU_object@@PAU1@0@Z$1:
  00012	8b 8d a0 fe ff
	ff		 mov	 ecx, DWORD PTR $T1[ebp]
  00018	e9 00 00 00 00	 jmp	 ??1CMemoryTextFileLoader@@UAE@XZ ; CMemoryTextFileLoader::~CMemoryTextFileLoader
__unwindfunclet$?appOpenTextFile@@YAPAU_object@@PAU1@0@Z$2:
  0001d	8d 8d ac fe ff
	ff		 lea	 ecx, DWORD PTR _kFile$7[ebp]
  00023	e9 00 00 00 00	 jmp	 ??1CMappedFile@@UAE@XZ	; CMappedFile::~CMappedFile
  00028	cc		 int	 3
  00029	cc		 int	 3
  0002a	cc		 int	 3
  0002b	cc		 int	 3
  0002c	cc		 int	 3
__ehhandler$?appOpenTextFile@@YAPAU_object@@PAU1@0@Z:
  0002d	90		 npad	 1
  0002e	90		 npad	 1
  0002f	8b 54 24 08	 mov	 edx, DWORD PTR [esp+8]
  00033	8d 42 0c	 lea	 eax, DWORD PTR [edx+12]
  00036	8b 8a a0 fe ff
	ff		 mov	 ecx, DWORD PTR [edx-352]
  0003c	33 c8		 xor	 ecx, eax
  0003e	e8 00 00 00 00	 call	 @__security_check_cookie@4
  00043	8b 4a fc	 mov	 ecx, DWORD PTR [edx-4]
  00046	33 c8		 xor	 ecx, eax
  00048	e8 00 00 00 00	 call	 @__security_check_cookie@4
  0004d	b8 00 00 00 00	 mov	 eax, OFFSET __ehfuncinfo$?appOpenTextFile@@YAPAU_object@@PAU1@0@Z
  00052	e9 00 00 00 00	 jmp	 ___CxxFrameHandler3
text$x	ENDS
?appOpenTextFile@@YAPAU_object@@PAU1@0@Z ENDP		; appOpenTextFile
; Function compile flags: /Ogtp
; File C:\Anka2Project\Anka2Project\Source\Binary\source\UserInterface\PythonApplicationModule.cpp
;	COMDAT ?appGetTextFileLineCount@@YAPAU_object@@PAU1@0@Z
_TEXT	SEGMENT
_iHandle$ = -4						; size = 4
_poSelf$ = 8						; size = 4
_poArgs$ = 12						; size = 4
?appGetTextFileLineCount@@YAPAU_object@@PAU1@0@Z PROC	; appGetTextFileLineCount, COMDAT

; 1002 : {

  00000	55		 push	 ebp
  00001	8b ec		 mov	 ebp, esp
  00003	51		 push	 ecx

; 1003 : 	int iHandle;
; 1004 : 	if (!PyTuple_GetInteger(poArgs, 0, &iHandle))

  00004	8d 45 fc	 lea	 eax, DWORD PTR _iHandle$[ebp]
  00007	50		 push	 eax
  00008	6a 00		 push	 0
  0000a	ff 75 0c	 push	 DWORD PTR _poArgs$[ebp]
  0000d	e8 00 00 00 00	 call	 ?PyTuple_GetInteger@@YA_NPAU_object@@HPAH@Z ; PyTuple_GetInteger
  00012	83 c4 0c	 add	 esp, 12			; 0000000cH
  00015	84 c0		 test	 al, al
  00017	75 0e		 jne	 SHORT $LN2@appGetText

; 1005 : 		return Py_BuildException();

  00019	6a 00		 push	 0
  0001b	e8 00 00 00 00	 call	 ?Py_BuildException@@YAPAU_object@@PBDZZ ; Py_BuildException
  00020	83 c4 04	 add	 esp, 4

; 1009 : }

  00023	8b e5		 mov	 esp, ebp
  00025	5d		 pop	 ebp
  00026	c3		 ret	 0
$LN2@appGetText:

; 963  : 			return m_kTextFileLoader.GetLineCount();

  00027	8b 4d fc	 mov	 ecx, DWORD PTR _iHandle$[ebp]
  0002a	e8 00 00 00 00	 call	 ?GetLineCount@CMemoryTextFileLoader@@QAEKXZ ; CMemoryTextFileLoader::GetLineCount

; 1006 : 
; 1007 : 	CTextLineLoader * pTextFileLoader = (CTextLineLoader *)iHandle;
; 1008 : 	return Py_BuildValue("i", pTextFileLoader->GetLineCount());

  0002f	50		 push	 eax
  00030	68 00 00 00 00	 push	 OFFSET ??_C@_01KBJDNOO@i@
  00035	ff 15 00 00 00
	00		 call	 DWORD PTR __imp__Py_BuildValue
  0003b	83 c4 08	 add	 esp, 8

; 1009 : }

  0003e	8b e5		 mov	 esp, ebp
  00040	5d		 pop	 ebp
  00041	c3		 ret	 0
?appGetTextFileLineCount@@YAPAU_object@@PAU1@0@Z ENDP	; appGetTextFileLineCount
_TEXT	ENDS
; Function compile flags: /Ogtp
; File C:\Anka2Project\Anka2Project\Source\Binary\source\UserInterface\PythonApplicationModule.cpp
; File C:\Program Files\Microsoft Visual Studio\2022\Community\VC\Tools\MSVC\14.44.35207\include\xstring
; File C:\Anka2Project\Anka2Project\Source\Binary\source\UserInterface\PythonApplicationModule.cpp
;	COMDAT ?appGetTextFileLine@@YAPAU_object@@PAU1@0@Z
_TEXT	SEGMENT
_iLineIndex$ = -8					; size = 4
_iHandle$ = -4						; size = 4
_poSelf$ = 8						; size = 4
_poArgs$ = 12						; size = 4
?appGetTextFileLine@@YAPAU_object@@PAU1@0@Z PROC	; appGetTextFileLine, COMDAT

; 1012 : {

  00000	55		 push	 ebp
  00001	8b ec		 mov	 ebp, esp
  00003	83 ec 08	 sub	 esp, 8

; 1013 : 	int iHandle;
; 1014 : 	if (!PyTuple_GetInteger(poArgs, 0, &iHandle))

  00006	8d 45 fc	 lea	 eax, DWORD PTR _iHandle$[ebp]
  00009	56		 push	 esi
  0000a	8b 75 0c	 mov	 esi, DWORD PTR _poArgs$[ebp]
  0000d	50		 push	 eax
  0000e	6a 00		 push	 0
  00010	56		 push	 esi
  00011	e8 00 00 00 00	 call	 ?PyTuple_GetInteger@@YA_NPAU_object@@HPAH@Z ; PyTuple_GetInteger
  00016	83 c4 0c	 add	 esp, 12			; 0000000cH
  00019	84 c0		 test	 al, al
  0001b	75 0f		 jne	 SHORT $LN2@appGetText
$LN24@appGetText:

; 1022 : }

  0001d	6a 00		 push	 0
  0001f	e8 00 00 00 00	 call	 ?Py_BuildException@@YAPAU_object@@PBDZZ ; Py_BuildException
  00024	83 c4 04	 add	 esp, 4
  00027	5e		 pop	 esi
  00028	8b e5		 mov	 esp, ebp
  0002a	5d		 pop	 ebp
  0002b	c3		 ret	 0
$LN2@appGetText:

; 1015 : 		return Py_BuildException();
; 1016 : 	int iLineIndex;
; 1017 : 	if (!PyTuple_GetInteger(poArgs, 1, &iLineIndex))

  0002c	8d 45 f8	 lea	 eax, DWORD PTR _iLineIndex$[ebp]
  0002f	50		 push	 eax
  00030	6a 01		 push	 1
  00032	56		 push	 esi
  00033	e8 00 00 00 00	 call	 ?PyTuple_GetInteger@@YA_NPAU_object@@HPAH@Z ; PyTuple_GetInteger
  00038	83 c4 0c	 add	 esp, 12			; 0000000cH
  0003b	84 c0		 test	 al, al
  0003d	74 de		 je	 SHORT $LN24@appGetText

; 1018 : 		return Py_BuildException();
; 1019 : 
; 1020 : 	CTextLineLoader * pTextFileLoader = (CTextLineLoader *)iHandle;

  0003f	8b 75 fc	 mov	 esi, DWORD PTR _iHandle$[ebp]

; 963  : 			return m_kTextFileLoader.GetLineCount();

  00042	8b ce		 mov	 ecx, esi
  00044	57		 push	 edi

; 1021 : 	return Py_BuildValue("s", pTextFileLoader->GetLine(iLineIndex));

  00045	8b 7d f8	 mov	 edi, DWORD PTR _iLineIndex$[ebp]

; 963  : 			return m_kTextFileLoader.GetLineCount();

  00048	e8 00 00 00 00	 call	 ?GetLineCount@CMemoryTextFileLoader@@QAEKXZ ; CMemoryTextFileLoader::GetLineCount

; 968  : 			if (dwIndex >= GetLineCount())

  0004d	3b f8		 cmp	 edi, eax
  0004f	72 07		 jb	 SHORT $LN6@appGetText

; 969  : 				return "";

  00051	b8 00 00 00 00	 mov	 eax, OFFSET ??_C@_00CNPNBAHC@@
  00056	eb 10		 jmp	 SHORT $LN14@appGetText
$LN6@appGetText:

; 970  : 
; 971  : 			return m_kTextFileLoader.GetLineString(dwIndex).c_str();

  00058	57		 push	 edi
  00059	8b ce		 mov	 ecx, esi
  0005b	e8 00 00 00 00	 call	 ?GetLineString@CMemoryTextFileLoader@@QAEABV?$basic_string@DU?$char_traits@D@std@@V?$allocator@D@2@@std@@K@Z ; CMemoryTextFileLoader::GetLineString
; File C:\Program Files\Microsoft Visual Studio\2022\Community\VC\Tools\MSVC\14.44.35207\include\xstring

; 453  :         return _Myres > _Small_string_capacity;

  00060	83 78 14 0f	 cmp	 DWORD PTR [eax+20], 15	; 0000000fH

; 445  :         if (_Large_mode_engaged()) {

  00064	76 02		 jbe	 SHORT $LN14@appGetText

; 446  :             _Result = _Unfancy(_Bx._Ptr);

  00066	8b 00		 mov	 eax, DWORD PTR [eax]
$LN14@appGetText:
; File C:\Anka2Project\Anka2Project\Source\Binary\source\UserInterface\PythonApplicationModule.cpp

; 1021 : 	return Py_BuildValue("s", pTextFileLoader->GetLine(iLineIndex));

  00068	50		 push	 eax
  00069	68 00 00 00 00	 push	 OFFSET ??_C@_01LKDEMHDF@s@
  0006e	ff 15 00 00 00
	00		 call	 DWORD PTR __imp__Py_BuildValue
  00074	83 c4 08	 add	 esp, 8
  00077	5f		 pop	 edi
  00078	5e		 pop	 esi

; 1022 : }

  00079	8b e5		 mov	 esp, ebp
  0007b	5d		 pop	 ebp
  0007c	c3		 ret	 0
?appGetTextFileLine@@YAPAU_object@@PAU1@0@Z ENDP	; appGetTextFileLine
_TEXT	ENDS
; Function compile flags: /Ogtp
; File C:\Anka2Project\Anka2Project\Source\Binary\source\UserInterface\PythonApplicationModule.cpp
;	COMDAT ?appLogoOpen@@YAPAU_object@@PAU1@0@Z
_TEXT	SEGMENT
_szName$ = -4						; size = 4
_poSelf$ = 8						; size = 4
_poArgs$ = 12						; size = 4
?appLogoOpen@@YAPAU_object@@PAU1@0@Z PROC		; appLogoOpen, COMDAT

; 1047 : {

  00000	55		 push	 ebp
  00001	8b ec		 mov	 ebp, esp
  00003	51		 push	 ecx

; 1048 : 	char *szName;
; 1049 : 	if (!PyTuple_GetString(poArgs, 0, &szName))

  00004	8d 45 fc	 lea	 eax, DWORD PTR _szName$[ebp]
  00007	50		 push	 eax
  00008	6a 00		 push	 0
  0000a	ff 75 0c	 push	 DWORD PTR _poArgs$[ebp]
  0000d	e8 00 00 00 00	 call	 ?PyTuple_GetString@@YA_NPAU_object@@HPAPAD@Z ; PyTuple_GetString
  00012	83 c4 0c	 add	 esp, 12			; 0000000cH
  00015	84 c0		 test	 al, al
  00017	75 0e		 jne	 SHORT $LN2@appLogoOpe

; 1050 : 		return Py_BuildException();

  00019	6a 00		 push	 0
  0001b	e8 00 00 00 00	 call	 ?Py_BuildException@@YAPAU_object@@PBDZZ ; Py_BuildException
  00020	83 c4 04	 add	 esp, 4

; 1055 : }

  00023	8b e5		 mov	 esp, ebp
  00025	5d		 pop	 ebp
  00026	c3		 ret	 0
$LN2@appLogoOpe:

; 1051 : 
; 1052 : 	int nIsSuccess = 1;
; 1053 : 
; 1054 : 	return Py_BuildValue("i", nIsSuccess);

  00027	6a 01		 push	 1
  00029	68 00 00 00 00	 push	 OFFSET ??_C@_01KBJDNOO@i@
  0002e	ff 15 00 00 00
	00		 call	 DWORD PTR __imp__Py_BuildValue
  00034	83 c4 08	 add	 esp, 8

; 1055 : }

  00037	8b e5		 mov	 esp, ebp
  00039	5d		 pop	 ebp
  0003a	c3		 ret	 0
?appLogoOpen@@YAPAU_object@@PAU1@0@Z ENDP		; appLogoOpen
_TEXT	ENDS
; Function compile flags: /Ogtp
; File C:\Anka2Project\Anka2Project\Source\Binary\source\UserInterface\PythonApplicationModule.cpp
;	COMDAT ?appLogoUpdate@@YAPAU_object@@PAU1@0@Z
_TEXT	SEGMENT
_poSelf$ = 8						; size = 4
_poArgs$ = 12						; size = 4
?appLogoUpdate@@YAPAU_object@@PAU1@0@Z PROC		; appLogoUpdate, COMDAT

; 1059 : 	int nIsRun = 0;
; 1060 : 	return Py_BuildValue("i", nIsRun);

  00000	6a 00		 push	 0
  00002	68 00 00 00 00	 push	 OFFSET ??_C@_01KBJDNOO@i@
  00007	ff 15 00 00 00
	00		 call	 DWORD PTR __imp__Py_BuildValue
  0000d	83 c4 08	 add	 esp, 8

; 1061 : }

  00010	c3		 ret	 0
?appLogoUpdate@@YAPAU_object@@PAU1@0@Z ENDP		; appLogoUpdate
_TEXT	ENDS
; Function compile flags: /Ogtp
; File C:\Anka2Project\Anka2Project\Source\Binary\source\UserInterface\PythonApplicationModule.cpp
; File C:\Anka2Project\Anka2Project\Source\Binary\source\UserInterface\PythonApplication.h
; File C:\Anka2Project\Anka2Project\Source\Binary\source\UserInterface\PythonApplicationModule.cpp
;	COMDAT ?appShellExecute@@YAPAU_object@@PAU1@0@Z
_TEXT	SEGMENT
_szName$ = -4						; size = 4
_poSelf$ = 8						; size = 4
_poArgs$ = 12						; size = 4
?appShellExecute@@YAPAU_object@@PAU1@0@Z PROC		; appShellExecute, COMDAT

; 1074 : {

  00000	55		 push	 ebp
  00001	8b ec		 mov	 ebp, esp
  00003	51		 push	 ecx

; 1075 : 	char *szName;
; 1076 : 	if (!PyTuple_GetString(poArgs, 0, &szName))

  00004	8d 45 fc	 lea	 eax, DWORD PTR _szName$[ebp]
  00007	50		 push	 eax
  00008	6a 00		 push	 0
  0000a	ff 75 0c	 push	 DWORD PTR _poArgs$[ebp]
  0000d	e8 00 00 00 00	 call	 ?PyTuple_GetString@@YA_NPAU_object@@HPAPAD@Z ; PyTuple_GetString
  00012	83 c4 0c	 add	 esp, 12			; 0000000cH
  00015	84 c0		 test	 al, al
  00017	75 0e		 jne	 SHORT $LN2@appShellEx

; 1077 : 		return Py_BuildException();

  00019	6a 00		 push	 0
  0001b	e8 00 00 00 00	 call	 ?Py_BuildException@@YAPAU_object@@PBDZZ ; Py_BuildException
  00020	83 c4 04	 add	 esp, 4

; 1081 : }

  00023	8b e5		 mov	 esp, ebp
  00025	5d		 pop	 ebp
  00026	c3		 ret	 0
$LN2@appShellEx:

; 1078 : 	ShellExecuteA(0, "open", szName, 0, 0, SW_SHOWNORMAL);

  00027	6a 01		 push	 1
  00029	6a 00		 push	 0
  0002b	6a 00		 push	 0
  0002d	ff 75 fc	 push	 DWORD PTR _szName$[ebp]
  00030	68 00 00 00 00	 push	 OFFSET ??_C@_04PMOCAHAA@open@
  00035	6a 00		 push	 0
  00037	ff 15 00 00 00
	00		 call	 DWORD PTR __imp__ShellExecuteA@24
; File C:\Anka2Project\Anka2Project\Source\Binary\source\UserInterface\PythonApplication.h

; 213  : 			assert(ms_pInstance != nullptr);

  0003d	83 3d 00 00 00
	00 00		 cmp	 DWORD PTR ?ms_pInstance@CPythonApplication@@1PAV1@A, 0 ; CPythonApplication::ms_pInstance
  00044	75 17		 jne	 SHORT $LN6@appShellEx
  00046	68 d5 00 00 00	 push	 213			; 000000d5H
  0004b	68 00 00 00 00	 push	 OFFSET ??_C@_1KI@NDOHEKDB@?$AAC?$AA?3?$AA?2?$AAA?$AAn?$AAk?$AAa?$AA2?$AAP?$AAr?$AAo?$AAj?$AAe?$AAc?$AAt@
  00050	68 00 00 00 00	 push	 OFFSET ??_C@_1DA@IANAENLC@?$AAm?$AAs?$AA_?$AAp?$AAI?$AAn?$AAs?$AAt?$AAa?$AAn?$AAc?$AAe?$AA?5?$AA?$CB?$AA?$DN@
  00055	e8 00 00 00 00	 call	 __wassert
  0005a	83 c4 0c	 add	 esp, 12			; 0000000cH
$LN6@appShellEx:
; File C:\Anka2Project\Anka2Project\Source\Binary\source\UserInterface\PythonApplicationModule.cpp

; 1079 : 	CPythonApplication::Instance().Exit();

  0005d	e8 00 00 00 00	 call	 ?Exit@CPythonApplication@@QAEXXZ ; CPythonApplication::Exit

; 1080 : 	return Py_BuildNone();

  00062	e8 00 00 00 00	 call	 ?Py_BuildNone@@YAPAU_object@@XZ ; Py_BuildNone

; 1081 : }

  00067	8b e5		 mov	 esp, ebp
  00069	5d		 pop	 ebp
  0006a	c3		 ret	 0
?appShellExecute@@YAPAU_object@@PAU1@0@Z ENDP		; appShellExecute
_TEXT	ENDS
; Function compile flags: /Ogtp
; File C:\Anka2Project\Anka2Project\Source\Binary\source\UserInterface\PythonApplicationModule.cpp
;	COMDAT ?appOpenWebBrowser@@YAPAU_object@@PAU1@0@Z
_TEXT	SEGMENT
_szName$ = -4						; size = 4
_poSelf$ = 8						; size = 4
_poArgs$ = 12						; size = 4
?appOpenWebBrowser@@YAPAU_object@@PAU1@0@Z PROC		; appOpenWebBrowser, COMDAT

; 1084 : {

  00000	55		 push	 ebp
  00001	8b ec		 mov	 ebp, esp
  00003	51		 push	 ecx

; 1085 : 	char *szName;
; 1086 : 	if (!PyTuple_GetString(poArgs, 0, &szName))

  00004	8d 45 fc	 lea	 eax, DWORD PTR _szName$[ebp]
  00007	50		 push	 eax
  00008	6a 00		 push	 0
  0000a	ff 75 0c	 push	 DWORD PTR _poArgs$[ebp]
  0000d	e8 00 00 00 00	 call	 ?PyTuple_GetString@@YA_NPAU_object@@HPAPAD@Z ; PyTuple_GetString
  00012	83 c4 0c	 add	 esp, 12			; 0000000cH
  00015	84 c0		 test	 al, al
  00017	75 0e		 jne	 SHORT $LN2@appOpenWeb

; 1087 : 		return Py_BuildException();

  00019	6a 00		 push	 0
  0001b	e8 00 00 00 00	 call	 ?Py_BuildException@@YAPAU_object@@PBDZZ ; Py_BuildException
  00020	83 c4 04	 add	 esp, 4

; 1090 : }

  00023	8b e5		 mov	 esp, ebp
  00025	5d		 pop	 ebp
  00026	c3		 ret	 0
$LN2@appOpenWeb:

; 1088 : 	ShellExecuteA(0, "open", szName, 0, 0, SW_SHOWNORMAL);

  00027	6a 01		 push	 1
  00029	6a 00		 push	 0
  0002b	6a 00		 push	 0
  0002d	ff 75 fc	 push	 DWORD PTR _szName$[ebp]
  00030	68 00 00 00 00	 push	 OFFSET ??_C@_04PMOCAHAA@open@
  00035	6a 00		 push	 0
  00037	ff 15 00 00 00
	00		 call	 DWORD PTR __imp__ShellExecuteA@24

; 1089 : 	return Py_BuildNone();

  0003d	e8 00 00 00 00	 call	 ?Py_BuildNone@@YAPAU_object@@XZ ; Py_BuildNone

; 1090 : }

  00042	8b e5		 mov	 esp, ebp
  00044	5d		 pop	 ebp
  00045	c3		 ret	 0
?appOpenWebBrowser@@YAPAU_object@@PAU1@0@Z ENDP		; appOpenWebBrowser
_TEXT	ENDS
; Function compile flags: /Ogtp
; File C:\Anka2Project\Anka2Project\Source\Binary\source\UserInterface\PythonApplicationModule.cpp
;	COMDAT ?appGetName@@YAPAU_object@@PAU1@0@Z
_TEXT	SEGMENT
_szAppName$ = -264					; size = 260
__$ArrayPad$ = -4					; size = 4
_poSelf$ = 8						; size = 4
_poArgs$ = 12						; size = 4
?appGetName@@YAPAU_object@@PAU1@0@Z PROC		; appGetName, COMDAT

; 1093 : {

  00000	55		 push	 ebp
  00001	8b ec		 mov	 ebp, esp
  00003	81 ec 08 01 00
	00		 sub	 esp, 264		; 00000108H
  00009	a1 00 00 00 00	 mov	 eax, DWORD PTR ___security_cookie
  0000e	33 c5		 xor	 eax, ebp
  00010	89 45 fc	 mov	 DWORD PTR __$ArrayPad$[ebp], eax

; 1094 : 	TCHAR szAppName[MAX_PATH];
; 1095 : 	GetModuleFileName(nullptr, szAppName, MAX_PATH);

  00013	68 04 01 00 00	 push	 260			; 00000104H
  00018	8d 85 f8 fe ff
	ff		 lea	 eax, DWORD PTR _szAppName$[ebp]
  0001e	50		 push	 eax
  0001f	6a 00		 push	 0
  00021	ff 15 00 00 00
	00		 call	 DWORD PTR __imp__GetModuleFileNameA@12

; 1096 : 	return Py_BuildValue("s", szAppName);

  00027	8d 85 f8 fe ff
	ff		 lea	 eax, DWORD PTR _szAppName$[ebp]
  0002d	50		 push	 eax
  0002e	68 00 00 00 00	 push	 OFFSET ??_C@_01LKDEMHDF@s@
  00033	ff 15 00 00 00
	00		 call	 DWORD PTR __imp__Py_BuildValue

; 1097 : }

  00039	8b 4d fc	 mov	 ecx, DWORD PTR __$ArrayPad$[ebp]
  0003c	83 c4 08	 add	 esp, 8
  0003f	33 cd		 xor	 ecx, ebp
  00041	e8 00 00 00 00	 call	 @__security_check_cookie@4
  00046	8b e5		 mov	 esp, ebp
  00048	5d		 pop	 ebp
  00049	c3		 ret	 0
?appGetName@@YAPAU_object@@PAU1@0@Z ENDP		; appGetName
_TEXT	ENDS
; Function compile flags: /Ogtp
; File C:\Anka2Project\Anka2Project\Source\Binary\source\UserInterface\PythonApplicationModule.cpp
;	COMDAT ?appSetLocale@@YAPAU_object@@PAU1@0@Z
_TEXT	SEGMENT
_iCodePage$ = -8					; size = 4
_szLocale$ = -4						; size = 4
_poSelf$ = 8						; size = 4
_poArgs$ = 12						; size = 4
?appSetLocale@@YAPAU_object@@PAU1@0@Z PROC		; appSetLocale, COMDAT

; 1101 : {

  00000	55		 push	 ebp
  00001	8b ec		 mov	 ebp, esp
  00003	83 ec 08	 sub	 esp, 8

; 1102 : 	int iCodePage;
; 1103 : 	if (!PyTuple_GetInteger(poArgs, 0, &iCodePage))

  00006	8d 45 f8	 lea	 eax, DWORD PTR _iCodePage$[ebp]
  00009	50		 push	 eax
  0000a	6a 00		 push	 0
  0000c	ff 75 0c	 push	 DWORD PTR _poArgs$[ebp]
  0000f	e8 00 00 00 00	 call	 ?PyTuple_GetInteger@@YA_NPAU_object@@HPAH@Z ; PyTuple_GetInteger
  00014	83 c4 0c	 add	 esp, 12			; 0000000cH
  00017	84 c0		 test	 al, al
  00019	75 0e		 jne	 SHORT $LN2@appSetLoca
$LN5@appSetLoca:

; 1111 : }

  0001b	6a 00		 push	 0
  0001d	e8 00 00 00 00	 call	 ?Py_BuildException@@YAPAU_object@@PBDZZ ; Py_BuildException
  00022	83 c4 04	 add	 esp, 4
  00025	8b e5		 mov	 esp, ebp
  00027	5d		 pop	 ebp
  00028	c3		 ret	 0
$LN2@appSetLoca:

; 1104 : 		return Py_BuildException();
; 1105 : 
; 1106 : 	char *szLocale;
; 1107 : 	if (!PyTuple_GetString(poArgs, 1, &szLocale))

  00029	8d 45 fc	 lea	 eax, DWORD PTR _szLocale$[ebp]
  0002c	50		 push	 eax
  0002d	6a 01		 push	 1
  0002f	ff 75 0c	 push	 DWORD PTR _poArgs$[ebp]
  00032	e8 00 00 00 00	 call	 ?PyTuple_GetString@@YA_NPAU_object@@HPAPAD@Z ; PyTuple_GetString
  00037	83 c4 0c	 add	 esp, 12			; 0000000cH
  0003a	84 c0		 test	 al, al
  0003c	74 dd		 je	 SHORT $LN5@appSetLoca

; 1108 : 		return Py_BuildException();
; 1109 : 
; 1110 : 	return Py_BuildValue("i", LocaleService_SaveLocale(iCodePage, szLocale));

  0003e	8b 55 fc	 mov	 edx, DWORD PTR _szLocale$[ebp]
  00041	8b 4d f8	 mov	 ecx, DWORD PTR _iCodePage$[ebp]
  00044	e8 00 00 00 00	 call	 ?LocaleService_SaveLocale@@YA_NHPBD@Z ; LocaleService_SaveLocale
  00049	0f b6 c0	 movzx	 eax, al
  0004c	50		 push	 eax
  0004d	68 00 00 00 00	 push	 OFFSET ??_C@_01KBJDNOO@i@
  00052	ff 15 00 00 00
	00		 call	 DWORD PTR __imp__Py_BuildValue
  00058	83 c4 08	 add	 esp, 8

; 1111 : }

  0005b	8b e5		 mov	 esp, ebp
  0005d	5d		 pop	 ebp
  0005e	c3		 ret	 0
?appSetLocale@@YAPAU_object@@PAU1@0@Z ENDP		; appSetLocale
_TEXT	ENDS
; Function compile flags: /Ogtp
; File C:\Anka2Project\Anka2Project\Source\Binary\source\UserInterface\PythonApplicationModule.cpp
;	COMDAT ?appGetLocale@@YAPAU_object@@PAU1@0@Z
_TEXT	SEGMENT
_poSelf$ = 8						; size = 4
_poArgs$ = 12						; size = 4
?appGetLocale@@YAPAU_object@@PAU1@0@Z PROC		; appGetLocale, COMDAT

; 1115 : 	return Py_BuildValue("s", LocaleService_GetLocale());

  00000	e8 00 00 00 00	 call	 ?LocaleService_GetLocale@@YAPBDXZ ; LocaleService_GetLocale
  00005	50		 push	 eax
  00006	68 00 00 00 00	 push	 OFFSET ??_C@_01LKDEMHDF@s@
  0000b	ff 15 00 00 00
	00		 call	 DWORD PTR __imp__Py_BuildValue
  00011	83 c4 08	 add	 esp, 8

; 1116 : }

  00014	c3		 ret	 0
?appGetLocale@@YAPAU_object@@PAU1@0@Z ENDP		; appGetLocale
_TEXT	ENDS
; Function compile flags: /Ogtp
; File C:\Anka2Project\Anka2Project\Source\Binary\source\UserInterface\PythonApplicationModule.cpp
; File C:\Program Files\Microsoft Visual Studio\2022\Community\VC\Tools\MSVC\14.44.35207\include\xstring
; File C:\Anka2Project\Anka2Project\Source\Binary\source\UserInterface\PythonApplicationModule.cpp
; File C:\Program Files\Microsoft Visual Studio\2022\Community\VC\Tools\MSVC\14.44.35207\include\xstring
; File C:\Anka2Project\Anka2Project\Source\Binary\source\UserInterface\PythonApplicationModule.cpp
; File C:\Program Files\Microsoft Visual Studio\2022\Community\VC\Tools\MSVC\14.44.35207\include\xstring
; File C:\Anka2Project\Anka2Project\Source\Binary\source\UserInterface\PythonApplicationModule.cpp
;	COMDAT ?initapp@@YAXXZ
_TEXT	SEGMENT
$T1 = -28						; size = 24
__$ArrayPad$ = -4					; size = 4
?initapp@@YAXXZ PROC					; initapp, COMDAT

; 1139 : {

  00000	55		 push	 ebp
  00001	8b ec		 mov	 ebp, esp
  00003	83 ec 20	 sub	 esp, 32			; 00000020H
  00006	a1 00 00 00 00	 mov	 eax, DWORD PTR ___security_cookie
  0000b	33 c5		 xor	 eax, ebp
  0000d	89 45 fc	 mov	 DWORD PTR __$ArrayPad$[ebp], eax
  00010	56		 push	 esi
  00011	57		 push	 edi

; 1284 : 	PyObject *poModule = Py_InitModule(GetModuleName(APP_MODULE).c_str(), s_methods);

  00012	8d 45 e4	 lea	 eax, DWORD PTR $T1[ebp]
  00015	6a 03		 push	 3
  00017	50		 push	 eax
  00018	e8 00 00 00 00	 call	 ?GetModuleName@@YA?AV?$basic_string@DU?$char_traits@D@std@@V?$allocator@D@2@@std@@H@Z ; GetModuleName
  0001d	83 c4 08	 add	 esp, 8
; File C:\Program Files\Microsoft Visual Studio\2022\Community\VC\Tools\MSVC\14.44.35207\include\xstring

; 453  :         return _Myres > _Small_string_capacity;

  00020	83 78 14 0f	 cmp	 DWORD PTR [eax+20], 15	; 0000000fH

; 445  :         if (_Large_mode_engaged()) {

  00024	76 02		 jbe	 SHORT $LN8@initapp

; 446  :             _Result = _Unfancy(_Bx._Ptr);

  00026	8b 00		 mov	 eax, DWORD PTR [eax]
$LN8@initapp:
; File C:\Anka2Project\Anka2Project\Source\Binary\source\UserInterface\PythonApplicationModule.cpp

; 1284 : 	PyObject *poModule = Py_InitModule(GetModuleName(APP_MODULE).c_str(), s_methods);

  00028	68 f5 03 00 00	 push	 1013			; 000003f5H
  0002d	6a 00		 push	 0
  0002f	6a 00		 push	 0
  00031	68 00 00 00 00	 push	 OFFSET ?s_methods@?1??initapp@@YAXXZ@4PAUPyMethodDef@@A
  00036	50		 push	 eax
  00037	ff 15 00 00 00
	00		 call	 DWORD PTR __imp__Py_InitModule4
  0003d	83 c4 14	 add	 esp, 20			; 00000014H
; File C:\Program Files\Microsoft Visual Studio\2022\Community\VC\Tools\MSVC\14.44.35207\include\xstring

; 1383 :         _Tidy_deallocate();

  00040	8d 4d e4	 lea	 ecx, DWORD PTR $T1[ebp]
; File C:\Anka2Project\Anka2Project\Source\Binary\source\UserInterface\PythonApplicationModule.cpp

; 1284 : 	PyObject *poModule = Py_InitModule(GetModuleName(APP_MODULE).c_str(), s_methods);

  00043	8b f8		 mov	 edi, eax
; File C:\Program Files\Microsoft Visual Studio\2022\Community\VC\Tools\MSVC\14.44.35207\include\xstring

; 1383 :         _Tidy_deallocate();

  00045	e8 00 00 00 00	 call	 ?_Tidy_deallocate@?$basic_string@DU?$char_traits@D@std@@V?$allocator@D@2@@std@@AAEXXZ ; std::basic_string<char,std::char_traits<char>,std::allocator<char> >::_Tidy_deallocate
; File C:\Anka2Project\Anka2Project\Source\Binary\source\UserInterface\PythonApplicationModule.cpp

; 1289 : 	PyModule_AddIntConstant(poModule, "INFO_ITEM", CPythonApplication::INFO_ITEM);

  0004a	8b 35 00 00 00
	00		 mov	 esi, DWORD PTR __imp__PyModule_AddIntConstant
  00050	6a 02		 push	 2
  00052	68 00 00 00 00	 push	 OFFSET ??_C@_09OKOJMLAA@INFO_ITEM@
  00057	57		 push	 edi
  00058	ff d6		 call	 esi
  0005a	83 c4 0c	 add	 esp, 12			; 0000000cH

; 1290 : 	PyModule_AddIntConstant(poModule, "INFO_ACTOR", CPythonApplication::INFO_ACTOR);

  0005d	6a 00		 push	 0
  0005f	68 00 00 00 00	 push	 OFFSET ??_C@_0L@FNNFPLHG@INFO_ACTOR@
  00064	57		 push	 edi
  00065	ff d6		 call	 esi
  00067	83 c4 0c	 add	 esp, 12			; 0000000cH

; 1291 : 	PyModule_AddIntConstant(poModule, "INFO_EFFECT", CPythonApplication::INFO_EFFECT);

  0006a	6a 01		 push	 1
  0006c	68 00 00 00 00	 push	 OFFSET ??_C@_0M@KLBHMBMD@INFO_EFFECT@
  00071	57		 push	 edi
  00072	ff d6		 call	 esi
  00074	83 c4 0c	 add	 esp, 12			; 0000000cH

; 1292 : 	PyModule_AddIntConstant(poModule, "INFO_TEXTTAIL", CPythonApplication::INFO_TEXTTAIL);

  00077	6a 03		 push	 3
  00079	68 00 00 00 00	 push	 OFFSET ??_C@_0O@FAGLOALJ@INFO_TEXTTAIL@
  0007e	57		 push	 edi
  0007f	ff d6		 call	 esi
  00081	83 c4 0c	 add	 esp, 12			; 0000000cH

; 1293 : 
; 1294 : 	PyModule_AddIntConstant(poModule, "DEGREE_DIRECTION_SAME", DEGREE_DIRECTION_SAME);

  00084	6a 00		 push	 0
  00086	68 00 00 00 00	 push	 OFFSET ??_C@_0BG@KEIJCHNJ@DEGREE_DIRECTION_SAME@
  0008b	57		 push	 edi
  0008c	ff d6		 call	 esi
  0008e	83 c4 0c	 add	 esp, 12			; 0000000cH

; 1295 : 	PyModule_AddIntConstant(poModule, "DEGREE_DIRECTION_RIGHT", DEGREE_DIRECTION_RIGHT);

  00091	6a 01		 push	 1
  00093	68 00 00 00 00	 push	 OFFSET ??_C@_0BH@LNDFJAFE@DEGREE_DIRECTION_RIGHT@
  00098	57		 push	 edi
  00099	ff d6		 call	 esi
  0009b	83 c4 0c	 add	 esp, 12			; 0000000cH

; 1296 : 	PyModule_AddIntConstant(poModule, "DEGREE_DIRECTION_LEFT", DEGREE_DIRECTION_LEFT);

  0009e	6a 02		 push	 2
  000a0	68 00 00 00 00	 push	 OFFSET ??_C@_0BG@JGNHHMCM@DEGREE_DIRECTION_LEFT@
  000a5	57		 push	 edi
  000a6	ff d6		 call	 esi
  000a8	83 c4 0c	 add	 esp, 12			; 0000000cH

; 1297 : 
; 1298 : 	PyModule_AddIntConstant(poModule, "VK_LEFT", VK_LEFT);

  000ab	6a 25		 push	 37			; 00000025H
  000ad	68 00 00 00 00	 push	 OFFSET ??_C@_07CJEJDFBD@VK_LEFT@
  000b2	57		 push	 edi
  000b3	ff d6		 call	 esi
  000b5	83 c4 0c	 add	 esp, 12			; 0000000cH

; 1299 : 	PyModule_AddIntConstant(poModule, "VK_RIGHT", VK_RIGHT);

  000b8	6a 27		 push	 39			; 00000027H
  000ba	68 00 00 00 00	 push	 OFFSET ??_C@_08LOMCDCA@VK_RIGHT@
  000bf	57		 push	 edi
  000c0	ff d6		 call	 esi
  000c2	83 c4 0c	 add	 esp, 12			; 0000000cH

; 1300 : 	PyModule_AddIntConstant(poModule, "VK_UP", VK_UP);

  000c5	6a 26		 push	 38			; 00000026H
  000c7	68 00 00 00 00	 push	 OFFSET ??_C@_05PIGLHCBF@VK_UP@
  000cc	57		 push	 edi
  000cd	ff d6		 call	 esi
  000cf	83 c4 0c	 add	 esp, 12			; 0000000cH

; 1301 : 	PyModule_AddIntConstant(poModule, "VK_DOWN", VK_DOWN);

  000d2	6a 28		 push	 40			; 00000028H
  000d4	68 00 00 00 00	 push	 OFFSET ??_C@_07NLENKNCK@VK_DOWN@
  000d9	57		 push	 edi
  000da	ff d6		 call	 esi
  000dc	83 c4 0c	 add	 esp, 12			; 0000000cH

; 1302 : 	PyModule_AddIntConstant(poModule, "VK_HOME", VK_HOME);

  000df	6a 24		 push	 36			; 00000024H
  000e1	68 00 00 00 00	 push	 OFFSET ??_C@_07OMPILPEG@VK_HOME@
  000e6	57		 push	 edi
  000e7	ff d6		 call	 esi
  000e9	83 c4 0c	 add	 esp, 12			; 0000000cH

; 1303 : 	PyModule_AddIntConstant(poModule, "VK_END", VK_END);

  000ec	6a 23		 push	 35			; 00000023H
  000ee	68 00 00 00 00	 push	 OFFSET ??_C@_06LPJBNMHN@VK_END@
  000f3	57		 push	 edi
  000f4	ff d6		 call	 esi
  000f6	83 c4 0c	 add	 esp, 12			; 0000000cH

; 1304 : 	PyModule_AddIntConstant(poModule, "VK_DELETE", VK_DELETE);

  000f9	6a 2e		 push	 46			; 0000002eH
  000fb	68 00 00 00 00	 push	 OFFSET ??_C@_09EABNPHOI@VK_DELETE@
  00100	57		 push	 edi
  00101	ff d6		 call	 esi
  00103	83 c4 0c	 add	 esp, 12			; 0000000cH

; 1305 : 
; 1306 : 	PyModule_AddIntConstant(poModule, "DIK_ESCAPE", DIK_ESCAPE);

  00106	6a 01		 push	 1
  00108	68 00 00 00 00	 push	 OFFSET ??_C@_0L@BOHNMBC@DIK_ESCAPE@
  0010d	57		 push	 edi
  0010e	ff d6		 call	 esi
  00110	83 c4 0c	 add	 esp, 12			; 0000000cH

; 1307 : 	PyModule_AddIntConstant(poModule, "DIK_ESC", DIK_ESCAPE);

  00113	6a 01		 push	 1
  00115	68 00 00 00 00	 push	 OFFSET ??_C@_07CACBFKLO@DIK_ESC@
  0011a	57		 push	 edi
  0011b	ff d6		 call	 esi
  0011d	83 c4 0c	 add	 esp, 12			; 0000000cH

; 1308 : 	PyModule_AddIntConstant(poModule, "DIK_1", DIK_1);

  00120	6a 02		 push	 2
  00122	68 00 00 00 00	 push	 OFFSET ??_C@_05GCLPJNBN@DIK_1@
  00127	57		 push	 edi
  00128	ff d6		 call	 esi
  0012a	83 c4 0c	 add	 esp, 12			; 0000000cH

; 1309 : 	PyModule_AddIntConstant(poModule, "DIK_2", DIK_2);

  0012d	6a 03		 push	 3
  0012f	68 00 00 00 00	 push	 OFFSET ??_C@_05EJJCMONO@DIK_2@
  00134	57		 push	 edi
  00135	ff d6		 call	 esi
  00137	83 c4 0c	 add	 esp, 12			; 0000000cH

; 1310 : 	PyModule_AddIntConstant(poModule, "DIK_3", DIK_3);

  0013a	6a 04		 push	 4
  0013c	68 00 00 00 00	 push	 OFFSET ??_C@_05FAIJPPJP@DIK_3@
  00141	57		 push	 edi
  00142	ff d6		 call	 esi
  00144	83 c4 0c	 add	 esp, 12			; 0000000cH

; 1311 : 	PyModule_AddIntConstant(poModule, "DIK_4", DIK_4);

  00147	6a 05		 push	 5
  00149	68 00 00 00 00	 push	 OFFSET ??_C@_05BPMIGJFI@DIK_4@
  0014e	57		 push	 edi
  0014f	ff d6		 call	 esi
  00151	83 c4 0c	 add	 esp, 12			; 0000000cH

; 1312 : 	PyModule_AddIntConstant(poModule, "DIK_5", DIK_5);

  00154	6a 06		 push	 6
  00156	68 00 00 00 00	 push	 OFFSET ??_C@_05GNDFIBJ@DIK_5@
  0015b	57		 push	 edi
  0015c	ff d6		 call	 esi
  0015e	83 c4 0c	 add	 esp, 12			; 0000000cH

; 1313 : 	PyModule_AddIntConstant(poModule, "DIK_6", DIK_6);

  00161	6a 07		 push	 7
  00163	68 00 00 00 00	 push	 OFFSET ??_C@_05CNPOALNK@DIK_6@
  00168	57		 push	 edi
  00169	ff d6		 call	 esi
  0016b	83 c4 0c	 add	 esp, 12			; 0000000cH

; 1314 : 	PyModule_AddIntConstant(poModule, "DIK_7", DIK_7);

  0016e	6a 08		 push	 8
  00170	68 00 00 00 00	 push	 OFFSET ??_C@_05DEOFDKJL@DIK_7@
  00175	57		 push	 edi
  00176	ff d6		 call	 esi
  00178	83 c4 0c	 add	 esp, 12			; 0000000cH

; 1315 : 	PyModule_AddIntConstant(poModule, "DIK_8", DIK_8);

  0017b	6a 09		 push	 9
  0017d	68 00 00 00 00	 push	 OFFSET ??_C@_05LDHNCGFE@DIK_8@
  00182	57		 push	 edi
  00183	ff d6		 call	 esi
  00185	83 c4 0c	 add	 esp, 12			; 0000000cH

; 1316 : 	PyModule_AddIntConstant(poModule, "DIK_9", DIK_9);

  00188	6a 0a		 push	 10			; 0000000aH
  0018a	68 00 00 00 00	 push	 OFFSET ??_C@_05KKGGBHBF@DIK_9@
  0018f	57		 push	 edi
  00190	ff d6		 call	 esi
  00192	83 c4 0c	 add	 esp, 12			; 0000000cH

; 1317 : 	PyModule_AddIntConstant(poModule, "DIK_0", DIK_0);

  00195	6a 0b		 push	 11			; 0000000bH
  00197	68 00 00 00 00	 push	 OFFSET ??_C@_05HLKEKMFM@DIK_0@
  0019c	57		 push	 edi
  0019d	ff d6		 call	 esi
  0019f	83 c4 0c	 add	 esp, 12			; 0000000cH

; 1318 : 	PyModule_AddIntConstant(poModule, "DIK_MINUS", DIK_MINUS);

  001a2	6a 0c		 push	 12			; 0000000cH
  001a4	68 00 00 00 00	 push	 OFFSET ??_C@_09DOHACMKC@DIK_MINUS@
  001a9	57		 push	 edi
  001aa	ff d6		 call	 esi
  001ac	83 c4 0c	 add	 esp, 12			; 0000000cH

; 1319 : 	PyModule_AddIntConstant(poModule, "DIK_EQUALS", DIK_EQUALS);

  001af	6a 0d		 push	 13			; 0000000dH
  001b1	68 00 00 00 00	 push	 OFFSET ??_C@_0L@KKCLPAPI@DIK_EQUALS@
  001b6	57		 push	 edi
  001b7	ff d6		 call	 esi
  001b9	83 c4 0c	 add	 esp, 12			; 0000000cH

; 1320 : 	PyModule_AddIntConstant(poModule, "DIK_BACK", DIK_BACK);

  001bc	6a 0e		 push	 14			; 0000000eH
  001be	68 00 00 00 00	 push	 OFFSET ??_C@_08HHEEGKBL@DIK_BACK@
  001c3	57		 push	 edi
  001c4	ff d6		 call	 esi
  001c6	83 c4 0c	 add	 esp, 12			; 0000000cH

; 1321 : 	PyModule_AddIntConstant(poModule, "DIK_TAB", DIK_TAB);

  001c9	6a 0f		 push	 15			; 0000000fH
  001cb	68 00 00 00 00	 push	 OFFSET ??_C@_07MODNCMBL@DIK_TAB@
  001d0	57		 push	 edi
  001d1	ff d6		 call	 esi
  001d3	83 c4 0c	 add	 esp, 12			; 0000000cH

; 1322 : 	PyModule_AddIntConstant(poModule, "DIK_Q", DIK_Q);

  001d6	6a 10		 push	 16			; 00000010H
  001d8	68 00 00 00 00	 push	 OFFSET ??_C@_05HECPGLK@DIK_Q@
  001dd	57		 push	 edi
  001de	ff d6		 call	 esi
  001e0	83 c4 0c	 add	 esp, 12			; 0000000cH

; 1323 : 	PyModule_AddIntConstant(poModule, "DIK_W", DIK_W);

  001e3	6a 11		 push	 17			; 00000011H
  001e5	68 00 00 00 00	 push	 OFFSET ??_C@_05FBBIFBDM@DIK_W@
  001ea	57		 push	 edi
  001eb	ff d6		 call	 esi
  001ed	83 c4 0c	 add	 esp, 12			; 0000000cH

; 1324 : 	PyModule_AddIntConstant(poModule, "DIK_E", DIK_E);

  001f0	6a 12		 push	 18			; 00000012H
  001f2	68 00 00 00 00	 push	 OFFSET ??_C@_05CJOMCBOP@DIK_E@
  001f7	57		 push	 edi
  001f8	ff d6		 call	 esi
  001fa	83 c4 0c	 add	 esp, 12			; 0000000cH

; 1325 : 	PyModule_AddIntConstant(poModule, "DIK_R", DIK_R);

  001fd	6a 13		 push	 19			; 00000013H
  001ff	68 00 00 00 00	 push	 OFFSET ??_C@_05CMGPKFHJ@DIK_R@
  00204	57		 push	 edi
  00205	ff d6		 call	 esi
  00207	83 c4 0c	 add	 esp, 12			; 0000000cH

; 1326 : 	PyModule_AddIntConstant(poModule, "DIK_T", DIK_T);

  0020a	6a 14		 push	 20			; 00000014H
  0020c	68 00 00 00 00	 push	 OFFSET ??_C@_05HKDFACPP@DIK_T@
  00211	57		 push	 edi
  00212	ff d6		 call	 esi
  00214	83 c4 0c	 add	 esp, 12			; 0000000cH

; 1327 : 	PyModule_AddIntConstant(poModule, "DIK_Y", DIK_Y);

  00217	6a 15		 push	 21			; 00000015H
  00219	68 00 00 00 00	 push	 OFFSET ??_C@_05MPJLHMLC@DIK_Y@
  0021e	57		 push	 edi
  0021f	ff d6		 call	 esi
  00221	83 c4 0c	 add	 esp, 12			; 0000000cH

; 1328 : 	PyModule_AddIntConstant(poModule, "DIK_U", DIK_U);

  00224	6a 16		 push	 22			; 00000016H
  00226	68 00 00 00 00	 push	 OFFSET ??_C@_05GDCODDLO@DIK_U@
  0022b	57		 push	 edi
  0022c	ff d6		 call	 esi
  0022e	83 c4 0c	 add	 esp, 12			; 0000000cH

; 1329 : 	PyModule_AddIntConstant(poModule, "DIK_I", DIK_I);

  00231	6a 17		 push	 23			; 00000017H
  00233	68 00 00 00 00	 push	 OFFSET ??_C@_05IFFJGOOD@DIK_I@
  00238	57		 push	 edi
  00239	ff d6		 call	 esi
  0023b	83 c4 0c	 add	 esp, 12			; 0000000cH

; 1330 : 	PyModule_AddIntConstant(poModule, "DIK_O", DIK_O);

  0023e	6a 18		 push	 24			; 00000018H
  00240	68 00 00 00 00	 push	 OFFSET ??_C@_05NDADMJGF@DIK_O@
  00245	57		 push	 edi
  00246	ff d6		 call	 esi
  00248	83 c4 0c	 add	 esp, 12			; 0000000cH

; 1331 : 	PyModule_AddIntConstant(poModule, "DIK_P", DIK_P);

  0024b	6a 19		 push	 25			; 00000019H
  0024d	68 00 00 00 00	 push	 OFFSET ??_C@_05BOFJMHPL@DIK_P@
  00252	57		 push	 edi
  00253	ff d6		 call	 esi
  00255	83 c4 0c	 add	 esp, 12			; 0000000cH

; 1332 : 	PyModule_AddIntConstant(poModule, "DIK_LBRACKET", DIK_LBRACKET);

  00258	6a 1a		 push	 26			; 0000001aH
  0025a	68 00 00 00 00	 push	 OFFSET ??_C@_0N@EFJDLCEF@DIK_LBRACKET@
  0025f	57		 push	 edi
  00260	ff d6		 call	 esi
  00262	83 c4 0c	 add	 esp, 12			; 0000000cH

; 1333 : 	PyModule_AddIntConstant(poModule, "DIK_RBRACKET", DIK_RBRACKET);

  00265	6a 1b		 push	 27			; 0000001bH
  00267	68 00 00 00 00	 push	 OFFSET ??_C@_0N@CBJBCLKG@DIK_RBRACKET@
  0026c	57		 push	 edi
  0026d	ff d6		 call	 esi
  0026f	83 c4 0c	 add	 esp, 12			; 0000000cH

; 1334 : 	PyModule_AddIntConstant(poModule, "DIK_RETURN", DIK_RETURN);

  00272	6a 1c		 push	 28			; 0000001cH
  00274	68 00 00 00 00	 push	 OFFSET ??_C@_0L@JLNKBJCL@DIK_RETURN@
  00279	57		 push	 edi
  0027a	ff d6		 call	 esi
  0027c	83 c4 0c	 add	 esp, 12			; 0000000cH

; 1335 : 	PyModule_AddIntConstant(poModule, "DIK_LCONTROL", DIK_LCONTROL);

  0027f	6a 1d		 push	 29			; 0000001dH
  00281	68 00 00 00 00	 push	 OFFSET ??_C@_0N@ODLLDAI@DIK_LCONTROL@
  00286	57		 push	 edi
  00287	ff d6		 call	 esi
  00289	83 c4 0c	 add	 esp, 12			; 0000000cH

; 1336 : 	PyModule_AddIntConstant(poModule, "DIK_A", DIK_A);

  0028c	6a 1e		 push	 30			; 0000001eH
  0028e	68 00 00 00 00	 push	 OFFSET ??_C@_05ENIAOEOL@DIK_A@
  00293	57		 push	 edi
  00294	ff d6		 call	 esi
  00296	83 c4 0c	 add	 esp, 12			; 0000000cH

; 1337 : 	PyModule_AddIntConstant(poModule, "DIK_S", DIK_S);

  00299	6a 1f		 push	 31			; 0000001fH
  0029b	68 00 00 00 00	 push	 OFFSET ??_C@_05DFHEJEDI@DIK_S@
  002a0	57		 push	 edi
  002a1	ff d6		 call	 esi
  002a3	83 c4 0c	 add	 esp, 12			; 0000000cH

; 1338 : 	PyModule_AddIntConstant(poModule, "DIK_D", DIK_D);

  002a6	6a 20		 push	 32			; 00000020H
  002a8	68 00 00 00 00	 push	 OFFSET ??_C@_05DAPHBAKO@DIK_D@
  002ad	57		 push	 edi
  002ae	ff d6		 call	 esi
  002b0	83 c4 0c	 add	 esp, 12			; 0000000cH

; 1339 : 	PyModule_AddIntConstant(poModule, "DIK_F", DIK_F);

  002b3	6a 21		 push	 33			; 00000021H
  002b5	68 00 00 00 00	 push	 OFFSET ??_C@_05CMBHCCM@DIK_F@
  002ba	57		 push	 edi
  002bb	ff d6		 call	 esi
  002bd	83 c4 0c	 add	 esp, 12			; 0000000cH

; 1340 : 	PyModule_AddIntConstant(poModule, "DIK_G", DIK_G);

  002c0	6a 22		 push	 34			; 00000022H
  002c2	68 00 00 00 00	 push	 OFFSET ??_C@_05BLNKEDGN@DIK_G@
  002c7	57		 push	 edi
  002c8	ff d6		 call	 esi
  002ca	83 c4 0c	 add	 esp, 12			; 0000000cH

; 1341 : 	PyModule_AddIntConstant(poModule, "DIK_H", DIK_H);

  002cd	6a 23		 push	 35			; 00000023H
  002cf	68 00 00 00 00	 push	 OFFSET ??_C@_05JMECFPKC@DIK_H@
  002d4	57		 push	 edi
  002d5	ff d6		 call	 esi
  002d7	83 c4 0c	 add	 esp, 12			; 0000000cH

; 1342 : 	PyModule_AddIntConstant(poModule, "DIK_J", DIK_J);

  002da	6a 24		 push	 36			; 00000024H
  002dc	68 00 00 00 00	 push	 OFFSET ??_C@_05KOHEDNCA@DIK_J@
  002e1	57		 push	 edi
  002e2	ff d6		 call	 esi
  002e4	83 c4 0c	 add	 esp, 12			; 0000000cH

; 1343 : 	PyModule_AddIntConstant(poModule, "DIK_K", DIK_K);

  002e7	6a 25		 push	 37			; 00000025H
  002e9	68 00 00 00 00	 push	 OFFSET ??_C@_05LHGPAMGB@DIK_K@
  002ee	57		 push	 edi
  002ef	ff d6		 call	 esi
  002f1	83 c4 0c	 add	 esp, 12			; 0000000cH

; 1344 : 	PyModule_AddIntConstant(poModule, "DIK_L", DIK_L);

  002f4	6a 26		 push	 38			; 00000026H
  002f6	68 00 00 00 00	 push	 OFFSET ??_C@_05PICOJKKG@DIK_L@
  002fb	57		 push	 edi
  002fc	ff d6		 call	 esi
  002fe	83 c4 0c	 add	 esp, 12			; 0000000cH

; 1345 : 	PyModule_AddIntConstant(poModule, "DIK_SEMICOLON", DIK_SEMICOLON);

  00301	6a 27		 push	 39			; 00000027H
  00303	68 00 00 00 00	 push	 OFFSET ??_C@_0O@NEECDLLB@DIK_SEMICOLON@
  00308	57		 push	 edi
  00309	ff d6		 call	 esi
  0030b	83 c4 0c	 add	 esp, 12			; 0000000cH

; 1346 : 	PyModule_AddIntConstant(poModule, "DIK_APOSTROPHE", DIK_APOSTROPHE);

  0030e	6a 28		 push	 40			; 00000028H
  00310	68 00 00 00 00	 push	 OFFSET ??_C@_0P@JDEKLKAM@DIK_APOSTROPHE@
  00315	57		 push	 edi
  00316	ff d6		 call	 esi
  00318	83 c4 0c	 add	 esp, 12			; 0000000cH

; 1347 : 	PyModule_AddIntConstant(poModule, "DIK_GRAVE", DIK_GRAVE);

  0031b	6a 29		 push	 41			; 00000029H
  0031d	68 00 00 00 00	 push	 OFFSET ??_C@_09MOGGLCIP@DIK_GRAVE@
  00322	57		 push	 edi
  00323	ff d6		 call	 esi
  00325	83 c4 0c	 add	 esp, 12			; 0000000cH

; 1348 : 	PyModule_AddIntConstant(poModule, "DIK_LSHIFT", DIK_LSHIFT);

  00328	6a 2a		 push	 42			; 0000002aH
  0032a	68 00 00 00 00	 push	 OFFSET ??_C@_0L@GNGJHMON@DIK_LSHIFT@
  0032f	57		 push	 edi
  00330	ff d6		 call	 esi
  00332	83 c4 0c	 add	 esp, 12			; 0000000cH

; 1349 : 	PyModule_AddIntConstant(poModule, "DIK_BACKSLASH", DIK_BACKSLASH);

  00335	6a 2b		 push	 43			; 0000002bH
  00337	68 00 00 00 00	 push	 OFFSET ??_C@_0O@DGKNNOHE@DIK_BACKSLASH@
  0033c	57		 push	 edi
  0033d	ff d6		 call	 esi
  0033f	83 c4 0c	 add	 esp, 12			; 0000000cH

; 1350 : 	PyModule_AddIntConstant(poModule, "DIK_Z", DIK_Z);

  00342	6a 2c		 push	 44			; 0000002cH
  00344	68 00 00 00 00	 push	 OFFSET ??_C@_05OELGCPHB@DIK_Z@
  00349	57		 push	 edi
  0034a	ff d6		 call	 esi
  0034c	83 c4 0c	 add	 esp, 12			; 0000000cH

; 1351 : 	PyModule_AddIntConstant(poModule, "DIK_X", DIK_X);

  0034f	6a 2d		 push	 45			; 0000002dH
  00351	68 00 00 00 00	 push	 OFFSET ??_C@_05NGIAENPD@DIK_X@
  00356	57		 push	 edi
  00357	ff d6		 call	 esi
  00359	83 c4 0c	 add	 esp, 12			; 0000000cH

; 1352 : 	PyModule_AddIntConstant(poModule, "DIK_C", DIK_C);

  0035c	6a 2e		 push	 46			; 0000002eH
  0035e	68 00 00 00 00	 push	 OFFSET ??_C@_05HPLGIGGJ@DIK_C@
  00363	57		 push	 edi
  00364	ff d6		 call	 esi
  00366	83 c4 0c	 add	 esp, 12			; 0000000cH

; 1353 : 	PyModule_AddIntConstant(poModule, "DIK_V", DIK_V);

  00369	6a 2f		 push	 47			; 0000002fH
  0036b	68 00 00 00 00	 push	 OFFSET ??_C@_05EIADGAHN@DIK_V@
  00370	57		 push	 edi
  00371	ff d6		 call	 esi
  00373	83 c4 0c	 add	 esp, 12			; 0000000cH

; 1354 : 	PyModule_AddIntConstant(poModule, "DIK_B", DIK_B);

  00376	6a 30		 push	 48			; 00000030H
  00378	68 00 00 00 00	 push	 OFFSET ??_C@_05GGKNLHCI@DIK_B@
  0037d	57		 push	 edi
  0037e	ff d6		 call	 esi
  00380	83 c4 0c	 add	 esp, 12			; 0000000cH

; 1355 : 	PyModule_AddIntConstant(poModule, "DIK_N", DIK_N);

  00383	6a 31		 push	 49			; 00000031H
  00385	68 00 00 00 00	 push	 OFFSET ??_C@_05MKBIPICE@DIK_N@
  0038a	57		 push	 edi
  0038b	ff d6		 call	 esi
  0038d	83 c4 0c	 add	 esp, 12			; 0000000cH

; 1356 : 	PyModule_AddIntConstant(poModule, "DIK_M", DIK_M);

  00390	6a 32		 push	 50			; 00000032H
  00392	68 00 00 00 00	 push	 OFFSET ??_C@_05OBDFKLOH@DIK_M@
  00397	57		 push	 edi
  00398	ff d6		 call	 esi
  0039a	83 c4 0c	 add	 esp, 12			; 0000000cH

; 1357 : 	PyModule_AddIntConstant(poModule, "DIK_COMMA", DIK_COMMA);

  0039d	6a 33		 push	 51			; 00000033H
  0039f	68 00 00 00 00	 push	 OFFSET ??_C@_09PDEOJFIH@DIK_COMMA@
  003a4	57		 push	 edi
  003a5	ff d6		 call	 esi
  003a7	83 c4 0c	 add	 esp, 12			; 0000000cH

; 1358 : 	PyModule_AddIntConstant(poModule, "DIK_PERIOD", DIK_PERIOD);

  003aa	6a 34		 push	 52			; 00000034H
  003ac	68 00 00 00 00	 push	 OFFSET ??_C@_0L@HHNLMNCM@DIK_PERIOD@
  003b1	57		 push	 edi
  003b2	ff d6		 call	 esi
  003b4	83 c4 0c	 add	 esp, 12			; 0000000cH

; 1359 : 	PyModule_AddIntConstant(poModule, "DIK_SLASH", DIK_SLASH);

  003b7	6a 35		 push	 53			; 00000035H
  003b9	68 00 00 00 00	 push	 OFFSET ??_C@_09DKJEGHEH@DIK_SLASH@
  003be	57		 push	 edi
  003bf	ff d6		 call	 esi
  003c1	83 c4 0c	 add	 esp, 12			; 0000000cH

; 1360 : 	PyModule_AddIntConstant(poModule, "DIK_RSHIFT", DIK_RSHIFT);

  003c4	6a 36		 push	 54			; 00000036H
  003c6	68 00 00 00 00	 push	 OFFSET ??_C@_0L@FKIIJLHO@DIK_RSHIFT@
  003cb	57		 push	 edi
  003cc	ff d6		 call	 esi
  003ce	83 c4 0c	 add	 esp, 12			; 0000000cH

; 1361 : 	PyModule_AddIntConstant(poModule, "DIK_MULTIPLY", DIK_MULTIPLY);

  003d1	6a 37		 push	 55			; 00000037H
  003d3	68 00 00 00 00	 push	 OFFSET ??_C@_0N@DHLLGHHC@DIK_MULTIPLY@
  003d8	57		 push	 edi
  003d9	ff d6		 call	 esi
  003db	83 c4 0c	 add	 esp, 12			; 0000000cH

; 1362 : 	PyModule_AddIntConstant(poModule, "DIK_LALT", DIK_LMENU);

  003de	6a 38		 push	 56			; 00000038H
  003e0	68 00 00 00 00	 push	 OFFSET ??_C@_08OHCJNNJ@DIK_LALT@
  003e5	57		 push	 edi
  003e6	ff d6		 call	 esi
  003e8	83 c4 0c	 add	 esp, 12			; 0000000cH

; 1363 : 	PyModule_AddIntConstant(poModule, "DIK_SPACE", DIK_SPACE);

  003eb	6a 39		 push	 57			; 00000039H
  003ed	68 00 00 00 00	 push	 OFFSET ??_C@_09DGAMMAPJ@DIK_SPACE@
  003f2	57		 push	 edi
  003f3	ff d6		 call	 esi
  003f5	83 c4 0c	 add	 esp, 12			; 0000000cH

; 1364 : 	PyModule_AddIntConstant(poModule, "DIK_CAPITAL", DIK_CAPITAL);

  003f8	6a 3a		 push	 58			; 0000003aH
  003fa	68 00 00 00 00	 push	 OFFSET ??_C@_0M@KEADBGIC@DIK_CAPITAL@
  003ff	57		 push	 edi
  00400	ff d6		 call	 esi
  00402	83 c4 0c	 add	 esp, 12			; 0000000cH

; 1365 : 	PyModule_AddIntConstant(poModule, "DIK_F1", DIK_F1);

  00405	6a 3b		 push	 59			; 0000003bH
  00407	68 00 00 00 00	 push	 OFFSET ??_C@_06PEIHKKCD@DIK_F1@
  0040c	57		 push	 edi
  0040d	ff d6		 call	 esi
  0040f	83 c4 0c	 add	 esp, 12			; 0000000cH

; 1366 : 	PyModule_AddIntConstant(poModule, "DIK_F2", DIK_F2);

  00412	6a 3c		 push	 60			; 0000003cH
  00414	68 00 00 00 00	 push	 OFFSET ??_C@_06NPKKPJOA@DIK_F2@
  00419	57		 push	 edi
  0041a	ff d6		 call	 esi
  0041c	83 c4 0c	 add	 esp, 12			; 0000000cH

; 1367 : 	PyModule_AddIntConstant(poModule, "DIK_F3", DIK_F3);

  0041f	6a 3d		 push	 61			; 0000003dH
  00421	68 00 00 00 00	 push	 OFFSET ??_C@_06MGLBMIKB@DIK_F3@
  00426	57		 push	 edi
  00427	ff d6		 call	 esi
  00429	83 c4 0c	 add	 esp, 12			; 0000000cH

; 1368 : 	PyModule_AddIntConstant(poModule, "DIK_F4", DIK_F4);

  0042c	6a 3e		 push	 62			; 0000003eH
  0042e	68 00 00 00 00	 push	 OFFSET ??_C@_06IJPAFOGG@DIK_F4@
  00433	57		 push	 edi
  00434	ff d6		 call	 esi
  00436	83 c4 0c	 add	 esp, 12			; 0000000cH

; 1369 : 	PyModule_AddIntConstant(poModule, "DIK_F5", DIK_F5);

  00439	6a 3f		 push	 63			; 0000003fH
  0043b	68 00 00 00 00	 push	 OFFSET ??_C@_06JAOLGPCH@DIK_F5@
  00440	57		 push	 edi
  00441	ff d6		 call	 esi
  00443	83 c4 0c	 add	 esp, 12			; 0000000cH

; 1370 : 	PyModule_AddIntConstant(poModule, "DIK_F6", DIK_F6);

  00446	6a 40		 push	 64			; 00000040H
  00448	68 00 00 00 00	 push	 OFFSET ??_C@_06LLMGDMOE@DIK_F6@
  0044d	57		 push	 edi
  0044e	ff d6		 call	 esi
  00450	83 c4 0c	 add	 esp, 12			; 0000000cH

; 1371 : 	PyModule_AddIntConstant(poModule, "DIK_F7", DIK_F7);

  00453	6a 41		 push	 65			; 00000041H
  00455	68 00 00 00 00	 push	 OFFSET ??_C@_06KCNNANKF@DIK_F7@
  0045a	57		 push	 edi
  0045b	ff d6		 call	 esi
  0045d	83 c4 0c	 add	 esp, 12			; 0000000cH

; 1372 : 	PyModule_AddIntConstant(poModule, "DIK_F8", DIK_F8);

  00460	6a 42		 push	 66			; 00000042H
  00462	68 00 00 00 00	 push	 OFFSET ??_C@_06CFEFBBGK@DIK_F8@
  00467	57		 push	 edi
  00468	ff d6		 call	 esi
  0046a	83 c4 0c	 add	 esp, 12			; 0000000cH

; 1373 : 	PyModule_AddIntConstant(poModule, "DIK_F9", DIK_F9);

  0046d	6a 43		 push	 67			; 00000043H
  0046f	68 00 00 00 00	 push	 OFFSET ??_C@_06DMFOCACL@DIK_F9@
  00474	57		 push	 edi
  00475	ff d6		 call	 esi
  00477	83 c4 0c	 add	 esp, 12			; 0000000cH

; 1374 : 	PyModule_AddIntConstant(poModule, "DIK_F10", DIK_F10);

  0047a	6a 44		 push	 68			; 00000044H
  0047c	68 00 00 00 00	 push	 OFFSET ??_C@_07HNNFMACL@DIK_F10@
  00481	57		 push	 edi
  00482	ff d6		 call	 esi
  00484	83 c4 0c	 add	 esp, 12			; 0000000cH

; 1375 : 	PyModule_AddIntConstant(poModule, "DIK_NUMLOCK", DIK_NUMLOCK);

  00487	6a 45		 push	 69			; 00000045H
  00489	68 00 00 00 00	 push	 OFFSET ??_C@_0M@BAOCLHIM@DIK_NUMLOCK@
  0048e	57		 push	 edi
  0048f	ff d6		 call	 esi
  00491	83 c4 0c	 add	 esp, 12			; 0000000cH

; 1376 : 	PyModule_AddIntConstant(poModule, "DIK_SCROLL", DIK_SCROLL);

  00494	6a 46		 push	 70			; 00000046H
  00496	68 00 00 00 00	 push	 OFFSET ??_C@_0L@HPJOFPCB@DIK_SCROLL@
  0049b	57		 push	 edi
  0049c	ff d6		 call	 esi
  0049e	83 c4 0c	 add	 esp, 12			; 0000000cH

; 1377 : 	PyModule_AddIntConstant(poModule, "DIK_NUMPAD7", DIK_NUMPAD7);

  004a1	6a 47		 push	 71			; 00000047H
  004a3	68 00 00 00 00	 push	 OFFSET ??_C@_0M@NDOIJKED@DIK_NUMPAD7@
  004a8	57		 push	 edi
  004a9	ff d6		 call	 esi
  004ab	83 c4 0c	 add	 esp, 12			; 0000000cH

; 1378 : 	PyModule_AddIntConstant(poModule, "DIK_NUMPAD8", DIK_NUMPAD8);

  004ae	6a 48		 push	 72			; 00000048H
  004b0	68 00 00 00 00	 push	 OFFSET ??_C@_0M@FEHAIGIM@DIK_NUMPAD8@
  004b5	57		 push	 edi
  004b6	ff d6		 call	 esi
  004b8	83 c4 0c	 add	 esp, 12			; 0000000cH

; 1379 : 	PyModule_AddIntConstant(poModule, "DIK_NUMPAD9", DIK_NUMPAD9);

  004bb	6a 49		 push	 73			; 00000049H
  004bd	68 00 00 00 00	 push	 OFFSET ??_C@_0M@ENGLLHMN@DIK_NUMPAD9@
  004c2	57		 push	 edi
  004c3	ff d6		 call	 esi
  004c5	83 c4 0c	 add	 esp, 12			; 0000000cH

; 1380 : 	PyModule_AddIntConstant(poModule, "DIK_SUBTRACT", DIK_SUBTRACT);

  004c8	6a 4a		 push	 74			; 0000004aH
  004ca	68 00 00 00 00	 push	 OFFSET ??_C@_0N@ECOBCKNF@DIK_SUBTRACT@
  004cf	57		 push	 edi
  004d0	ff d6		 call	 esi
  004d2	83 c4 0c	 add	 esp, 12			; 0000000cH

; 1381 : 	PyModule_AddIntConstant(poModule, "DIK_NUMPAD4", DIK_NUMPAD4);

  004d5	6a 4b		 push	 75			; 0000004bH
  004d7	68 00 00 00 00	 push	 OFFSET ??_C@_0M@PIMFMJIA@DIK_NUMPAD4@
  004dc	57		 push	 edi
  004dd	ff d6		 call	 esi
  004df	83 c4 0c	 add	 esp, 12			; 0000000cH

; 1382 : 	PyModule_AddIntConstant(poModule, "DIK_NUMPAD5", DIK_NUMPAD5);

  004e2	6a 4c		 push	 76			; 0000004cH
  004e4	68 00 00 00 00	 push	 OFFSET ??_C@_0M@OBNOPIMB@DIK_NUMPAD5@
  004e9	57		 push	 edi
  004ea	ff d6		 call	 esi
  004ec	83 c4 0c	 add	 esp, 12			; 0000000cH

; 1383 : 	PyModule_AddIntConstant(poModule, "DIK_NUMPAD6", DIK_NUMPAD6);

  004ef	6a 4d		 push	 77			; 0000004dH
  004f1	68 00 00 00 00	 push	 OFFSET ??_C@_0M@MKPDKLAC@DIK_NUMPAD6@
  004f6	57		 push	 edi
  004f7	ff d6		 call	 esi
  004f9	83 c4 0c	 add	 esp, 12			; 0000000cH

; 1384 : 	PyModule_AddIntConstant(poModule, "DIK_ADD", DIK_ADD);

  004fc	6a 4e		 push	 78			; 0000004eH
  004fe	68 00 00 00 00	 push	 OFFSET ??_C@_07PJGLOONL@DIK_ADD@
  00503	57		 push	 edi
  00504	ff d6		 call	 esi
  00506	83 c4 0c	 add	 esp, 12			; 0000000cH

; 1385 : 	PyModule_AddIntConstant(poModule, "DIK_NUMPAD1", DIK_NUMPAD1);

  00509	6a 4f		 push	 79			; 0000004fH
  0050b	68 00 00 00 00	 push	 OFFSET ??_C@_0M@IFLCDNMF@DIK_NUMPAD1@
  00510	57		 push	 edi
  00511	ff d6		 call	 esi
  00513	83 c4 0c	 add	 esp, 12			; 0000000cH

; 1386 : 	PyModule_AddIntConstant(poModule, "DIK_NUMPAD2", DIK_NUMPAD2);

  00516	6a 50		 push	 80			; 00000050H
  00518	68 00 00 00 00	 push	 OFFSET ??_C@_0M@KOJPGOAG@DIK_NUMPAD2@
  0051d	57		 push	 edi
  0051e	ff d6		 call	 esi
  00520	83 c4 0c	 add	 esp, 12			; 0000000cH

; 1387 : 	PyModule_AddIntConstant(poModule, "DIK_NUMPAD3", DIK_NUMPAD3);

  00523	6a 51		 push	 81			; 00000051H
  00525	68 00 00 00 00	 push	 OFFSET ??_C@_0M@LHIEFPEH@DIK_NUMPAD3@
  0052a	57		 push	 edi
  0052b	ff d6		 call	 esi
  0052d	83 c4 0c	 add	 esp, 12			; 0000000cH

; 1388 : 	PyModule_AddIntConstant(poModule, "DIK_NUMPAD0", DIK_NUMPAD0);

  00530	6a 52		 push	 82			; 00000052H
  00532	68 00 00 00 00	 push	 OFFSET ??_C@_0M@JMKJAMIE@DIK_NUMPAD0@
  00537	57		 push	 edi
  00538	ff d6		 call	 esi
  0053a	83 c4 0c	 add	 esp, 12			; 0000000cH

; 1389 : 	PyModule_AddIntConstant(poModule, "DIK_DECIMAL", DIK_DECIMAL);

  0053d	6a 53		 push	 83			; 00000053H
  0053f	68 00 00 00 00	 push	 OFFSET ??_C@_0M@PCNKFDKI@DIK_DECIMAL@
  00544	57		 push	 edi
  00545	ff d6		 call	 esi
  00547	83 c4 0c	 add	 esp, 12			; 0000000cH

; 1390 : 	PyModule_AddIntConstant(poModule, "DIK_F11", DIK_F11);

  0054a	6a 57		 push	 87			; 00000057H
  0054c	68 00 00 00 00	 push	 OFFSET ??_C@_07GEMOPBGK@DIK_F11@
  00551	57		 push	 edi
  00552	ff d6		 call	 esi
  00554	83 c4 0c	 add	 esp, 12			; 0000000cH

; 1391 : 	PyModule_AddIntConstant(poModule, "DIK_F12", DIK_F12);

  00557	6a 58		 push	 88			; 00000058H
  00559	68 00 00 00 00	 push	 OFFSET ??_C@_07EPODKCKJ@DIK_F12@
  0055e	57		 push	 edi
  0055f	ff d6		 call	 esi
  00561	83 c4 0c	 add	 esp, 12			; 0000000cH

; 1392 : 	PyModule_AddIntConstant(poModule, "DIK_NEXTTRACK", DIK_NEXTTRACK);

  00564	68 99 00 00 00	 push	 153			; 00000099H
  00569	68 00 00 00 00	 push	 OFFSET ??_C@_0O@DEOEEHEE@DIK_NEXTTRACK@
  0056e	57		 push	 edi
  0056f	ff d6		 call	 esi
  00571	83 c4 0c	 add	 esp, 12			; 0000000cH

; 1393 : 	PyModule_AddIntConstant(poModule, "DIK_NUMPADENTER", DIK_NUMPADENTER);

  00574	68 9c 00 00 00	 push	 156			; 0000009cH
  00579	68 00 00 00 00	 push	 OFFSET ??_C@_0BA@OLMCJCJF@DIK_NUMPADENTER@
  0057e	57		 push	 edi
  0057f	ff d6		 call	 esi
  00581	83 c4 0c	 add	 esp, 12			; 0000000cH

; 1394 : 	PyModule_AddIntConstant(poModule, "DIK_RCONTROL", DIK_RCONTROL);

  00584	68 9d 00 00 00	 push	 157			; 0000009dH
  00589	68 00 00 00 00	 push	 OFFSET ??_C@_0N@GKDJCKOL@DIK_RCONTROL@
  0058e	57		 push	 edi
  0058f	ff d6		 call	 esi
  00591	83 c4 0c	 add	 esp, 12			; 0000000cH

; 1395 : 	PyModule_AddIntConstant(poModule, "DIK_MUTE", DIK_MUTE);

  00594	68 a0 00 00 00	 push	 160			; 000000a0H
  00599	68 00 00 00 00	 push	 OFFSET ??_C@_08KNIFKFHJ@DIK_MUTE@
  0059e	57		 push	 edi
  0059f	ff d6		 call	 esi
  005a1	83 c4 0c	 add	 esp, 12			; 0000000cH

; 1396 : 	PyModule_AddIntConstant(poModule, "DIK_CALCULATOR", DIK_CALCULATOR);

  005a4	68 a1 00 00 00	 push	 161			; 000000a1H
  005a9	68 00 00 00 00	 push	 OFFSET ??_C@_0P@OJEJDHIP@DIK_CALCULATOR@
  005ae	57		 push	 edi
  005af	ff d6		 call	 esi
  005b1	83 c4 0c	 add	 esp, 12			; 0000000cH

; 1397 : 	PyModule_AddIntConstant(poModule, "DIK_PLAYPAUSE", DIK_PLAYPAUSE);

  005b4	68 a2 00 00 00	 push	 162			; 000000a2H
  005b9	68 00 00 00 00	 push	 OFFSET ??_C@_0O@ECAMOKPG@DIK_PLAYPAUSE@
  005be	57		 push	 edi
  005bf	ff d6		 call	 esi
  005c1	83 c4 0c	 add	 esp, 12			; 0000000cH

; 1398 : 	PyModule_AddIntConstant(poModule, "DIK_MEDIASTOP", DIK_MEDIASTOP);

  005c4	68 a4 00 00 00	 push	 164			; 000000a4H
  005c9	68 00 00 00 00	 push	 OFFSET ??_C@_0O@FLFOAKOG@DIK_MEDIASTOP@
  005ce	57		 push	 edi
  005cf	ff d6		 call	 esi
  005d1	83 c4 0c	 add	 esp, 12			; 0000000cH

; 1399 : 	PyModule_AddIntConstant(poModule, "DIK_VOLUMEDOWN", DIK_VOLUMEDOWN);

  005d4	68 ae 00 00 00	 push	 174			; 000000aeH
  005d9	68 00 00 00 00	 push	 OFFSET ??_C@_0P@FKHBCEAD@DIK_VOLUMEDOWN@
  005de	57		 push	 edi
  005df	ff d6		 call	 esi
  005e1	83 c4 0c	 add	 esp, 12			; 0000000cH

; 1400 : 	PyModule_AddIntConstant(poModule, "DIK_VOLUMEUP", DIK_VOLUMEUP);

  005e4	68 b0 00 00 00	 push	 176			; 000000b0H
  005e9	68 00 00 00 00	 push	 OFFSET ??_C@_0N@GPHLGHED@DIK_VOLUMEUP@
  005ee	57		 push	 edi
  005ef	ff d6		 call	 esi
  005f1	83 c4 0c	 add	 esp, 12			; 0000000cH

; 1401 : 	PyModule_AddIntConstant(poModule, "DIK_WEBHOME", DIK_WEBHOME);

  005f4	68 b2 00 00 00	 push	 178			; 000000b2H
  005f9	68 00 00 00 00	 push	 OFFSET ??_C@_0M@IEADBFND@DIK_WEBHOME@
  005fe	57		 push	 edi
  005ff	ff d6		 call	 esi
  00601	83 c4 0c	 add	 esp, 12			; 0000000cH

; 1402 : 	PyModule_AddIntConstant(poModule, "DIK_NUMPADCOMMA", DIK_NUMPADCOMMA);

  00604	68 b3 00 00 00	 push	 179			; 000000b3H
  00609	68 00 00 00 00	 push	 OFFSET ??_C@_0BA@ECBGFAAH@DIK_NUMPADCOMMA@
  0060e	57		 push	 edi
  0060f	ff d6		 call	 esi
  00611	83 c4 0c	 add	 esp, 12			; 0000000cH

; 1403 : 	PyModule_AddIntConstant(poModule, "DIK_DIVIDE", DIK_DIVIDE);

  00614	68 b5 00 00 00	 push	 181			; 000000b5H
  00619	68 00 00 00 00	 push	 OFFSET ??_C@_0L@HDEGMNOK@DIK_DIVIDE@
  0061e	57		 push	 edi
  0061f	ff d6		 call	 esi
  00621	83 c4 0c	 add	 esp, 12			; 0000000cH

; 1404 : 	PyModule_AddIntConstant(poModule, "DIK_SYSRQ", DIK_SYSRQ);

  00624	68 b7 00 00 00	 push	 183			; 000000b7H
  00629	68 00 00 00 00	 push	 OFFSET ??_C@_09PCEGCDIO@DIK_SYSRQ@
  0062e	57		 push	 edi
  0062f	ff d6		 call	 esi
  00631	83 c4 0c	 add	 esp, 12			; 0000000cH

; 1405 : 	PyModule_AddIntConstant(poModule, "DIK_RALT", DIK_RMENU);

  00634	68 b8 00 00 00	 push	 184			; 000000b8H
  00639	68 00 00 00 00	 push	 OFFSET ??_C@_08NBKCLEDK@DIK_RALT@
  0063e	57		 push	 edi
  0063f	ff d6		 call	 esi
  00641	83 c4 0c	 add	 esp, 12			; 0000000cH

; 1406 : 	PyModule_AddIntConstant(poModule, "DIK_PAUSE", DIK_PAUSE);

  00644	68 c5 00 00 00	 push	 197			; 000000c5H
  00649	68 00 00 00 00	 push	 OFFSET ??_C@_09COEFGPNN@DIK_PAUSE@
  0064e	57		 push	 edi
  0064f	ff d6		 call	 esi
  00651	83 c4 0c	 add	 esp, 12			; 0000000cH

; 1407 : 	PyModule_AddIntConstant(poModule, "DIK_HOME", DIK_HOME);

  00654	68 c7 00 00 00	 push	 199			; 000000c7H
  00659	68 00 00 00 00	 push	 OFFSET ??_C@_08EJDGAFAN@DIK_HOME@
  0065e	57		 push	 edi
  0065f	ff d6		 call	 esi
  00661	83 c4 0c	 add	 esp, 12			; 0000000cH

; 1408 : 	PyModule_AddIntConstant(poModule, "DIK_UP", DIK_UP);

  00664	68 c8 00 00 00	 push	 200			; 000000c8H
  00669	68 00 00 00 00	 push	 OFFSET ??_C@_06JGABONOM@DIK_UP@
  0066e	57		 push	 edi
  0066f	ff d6		 call	 esi
  00671	83 c4 0c	 add	 esp, 12			; 0000000cH

; 1409 : 	PyModule_AddIntConstant(poModule, "DIK_PGUP", DIK_PRIOR);

  00674	68 c9 00 00 00	 push	 201			; 000000c9H
  00679	68 00 00 00 00	 push	 OFFSET ??_C@_08PJJCOFHN@DIK_PGUP@
  0067e	57		 push	 edi
  0067f	ff d6		 call	 esi
  00681	83 c4 0c	 add	 esp, 12			; 0000000cH

; 1410 : 	PyModule_AddIntConstant(poModule, "DIK_LEFT", DIK_LEFT);

  00684	68 cb 00 00 00	 push	 203			; 000000cbH
  00689	68 00 00 00 00	 push	 OFFSET ??_C@_08IMIHIPFI@DIK_LEFT@
  0068e	57		 push	 edi
  0068f	ff d6		 call	 esi
  00691	83 c4 0c	 add	 esp, 12			; 0000000cH

; 1411 : 	PyModule_AddIntConstant(poModule, "DIK_RIGHT", DIK_RIGHT);

  00694	68 cd 00 00 00	 push	 205			; 000000cdH
  00699	68 00 00 00 00	 push	 OFFSET ??_C@_09OKEHHFIC@DIK_RIGHT@
  0069e	57		 push	 edi
  0069f	ff d6		 call	 esi
  006a1	83 c4 0c	 add	 esp, 12			; 0000000cH

; 1412 : 	PyModule_AddIntConstant(poModule, "DIK_END", DIK_END);

  006a4	68 cf 00 00 00	 push	 207			; 000000cfH
  006a9	68 00 00 00 00	 push	 OFFSET ??_C@_07HLJOPMFK@DIK_END@
  006ae	57		 push	 edi
  006af	ff d6		 call	 esi
  006b1	83 c4 0c	 add	 esp, 12			; 0000000cH

; 1413 : 	PyModule_AddIntConstant(poModule, "DIK_DOWN", DIK_DOWN);

  006b4	68 d0 00 00 00	 push	 208			; 000000d0H
  006b9	68 00 00 00 00	 push	 OFFSET ??_C@_08HOIDBHGB@DIK_DOWN@
  006be	57		 push	 edi
  006bf	ff d6		 call	 esi
  006c1	83 c4 0c	 add	 esp, 12			; 0000000cH

; 1414 : 	PyModule_AddIntConstant(poModule, "DIK_PGDN", DIK_NEXT);

  006c4	68 d1 00 00 00	 push	 209			; 000000d1H
  006c9	68 00 00 00 00	 push	 OFFSET ??_C@_08DADHBDOF@DIK_PGDN@
  006ce	57		 push	 edi
  006cf	ff d6		 call	 esi
  006d1	83 c4 0c	 add	 esp, 12			; 0000000cH

; 1415 : 	PyModule_AddIntConstant(poModule, "DIK_INSERT", DIK_INSERT);

  006d4	68 d2 00 00 00	 push	 210			; 000000d2H
  006d9	68 00 00 00 00	 push	 OFFSET ??_C@_0L@MGNAFAII@DIK_INSERT@
  006de	57		 push	 edi
  006df	ff d6		 call	 esi
  006e1	83 c4 0c	 add	 esp, 12			; 0000000cH

; 1416 : 	PyModule_AddIntConstant(poModule, "DIK_DELETE", DIK_DELETE);

  006e4	68 d3 00 00 00	 push	 211			; 000000d3H
  006e9	68 00 00 00 00	 push	 OFFSET ??_C@_0L@HICEJOHK@DIK_DELETE@
  006ee	57		 push	 edi
  006ef	ff d6		 call	 esi
  006f1	83 c4 0c	 add	 esp, 12			; 0000000cH

; 1417 : 	PyModule_AddIntConstant(poModule, "DIK_LWIN", DIK_LWIN);

  006f4	68 db 00 00 00	 push	 219			; 000000dbH
  006f9	68 00 00 00 00	 push	 OFFSET ??_C@_08MNOGKNKK@DIK_LWIN@
  006fe	57		 push	 edi
  006ff	ff d6		 call	 esi
  00701	83 c4 0c	 add	 esp, 12			; 0000000cH

; 1418 : 	PyModule_AddIntConstant(poModule, "DIK_RWIN", DIK_RWIN);

  00704	68 dc 00 00 00	 push	 220			; 000000dcH
  00709	68 00 00 00 00	 push	 OFFSET ??_C@_08BCDGIEEJ@DIK_RWIN@
  0070e	57		 push	 edi
  0070f	ff d6		 call	 esi
  00711	83 c4 0c	 add	 esp, 12			; 0000000cH

; 1419 : 	PyModule_AddIntConstant(poModule, "DIK_APPS", DIK_APPS);

  00714	68 dd 00 00 00	 push	 221			; 000000ddH
  00719	68 00 00 00 00	 push	 OFFSET ??_C@_08EEDKKFEB@DIK_APPS@
  0071e	57		 push	 edi
  0071f	ff d6		 call	 esi
  00721	83 c4 0c	 add	 esp, 12			; 0000000cH

; 1420 : 
; 1421 : 	PyModule_AddIntConstant(poModule, "NORMAL", CPythonApplication::CURSOR_SHAPE_NORMAL);

  00724	6a 00		 push	 0
  00726	68 00 00 00 00	 push	 OFFSET ??_C@_06IOJAGNKJ@NORMAL@
  0072b	57		 push	 edi
  0072c	ff d6		 call	 esi
  0072e	83 c4 0c	 add	 esp, 12			; 0000000cH

; 1422 : 	PyModule_AddIntConstant(poModule, "ATTACK", CPythonApplication::CURSOR_SHAPE_ATTACK);

  00731	6a 01		 push	 1
  00733	68 00 00 00 00	 push	 OFFSET ??_C@_06JIJKOHKJ@ATTACK@
  00738	57		 push	 edi
  00739	ff d6		 call	 esi
  0073b	83 c4 0c	 add	 esp, 12			; 0000000cH

; 1423 : 	PyModule_AddIntConstant(poModule, "TARGET", CPythonApplication::CURSOR_SHAPE_TARGET);

  0073e	6a 02		 push	 2
  00740	68 00 00 00 00	 push	 OFFSET ??_C@_06JNJLBPLI@TARGET@
  00745	57		 push	 edi
  00746	ff d6		 call	 esi
  00748	83 c4 0c	 add	 esp, 12			; 0000000cH

; 1424 : 	PyModule_AddIntConstant(poModule, "TALK", CPythonApplication::CURSOR_SHAPE_TALK);

  0074b	6a 03		 push	 3
  0074d	68 00 00 00 00	 push	 OFFSET ??_C@_04LNOLLMNL@TALK@
  00752	57		 push	 edi
  00753	ff d6		 call	 esi
  00755	83 c4 0c	 add	 esp, 12			; 0000000cH

; 1425 : 	PyModule_AddIntConstant(poModule, "CANT_GO", CPythonApplication::CURSOR_SHAPE_CANT_GO);

  00758	6a 04		 push	 4
  0075a	68 00 00 00 00	 push	 OFFSET ??_C@_07LGCIEODJ@CANT_GO@
  0075f	57		 push	 edi
  00760	ff d6		 call	 esi
  00762	83 c4 0c	 add	 esp, 12			; 0000000cH

; 1426 : 	PyModule_AddIntConstant(poModule, "PICK", CPythonApplication::CURSOR_SHAPE_PICK);

  00765	6a 05		 push	 5
  00767	68 00 00 00 00	 push	 OFFSET ??_C@_04IGIDHFMJ@PICK@
  0076c	57		 push	 edi
  0076d	ff d6		 call	 esi
  0076f	83 c4 0c	 add	 esp, 12			; 0000000cH

; 1427 : 
; 1428 : 	PyModule_AddIntConstant(poModule, "DOOR", CPythonApplication::CURSOR_SHAPE_DOOR);

  00772	6a 06		 push	 6
  00774	68 00 00 00 00	 push	 OFFSET ??_C@_04KEJCELCL@DOOR@
  00779	57		 push	 edi
  0077a	ff d6		 call	 esi
  0077c	83 c4 0c	 add	 esp, 12			; 0000000cH

; 1429 : 	PyModule_AddIntConstant(poModule, "CHAIR", CPythonApplication::CURSOR_SHAPE_CHAIR);

  0077f	6a 07		 push	 7
  00781	68 00 00 00 00	 push	 OFFSET ??_C@_05HLBMIDNH@CHAIR@
  00786	57		 push	 edi
  00787	ff d6		 call	 esi
  00789	83 c4 0c	 add	 esp, 12			; 0000000cH

; 1430 : 	PyModule_AddIntConstant(poModule, "MAGIC", CPythonApplication::CURSOR_SHAPE_MAGIC);

  0078c	6a 08		 push	 8
  0078e	68 00 00 00 00	 push	 OFFSET ??_C@_05DKLEPMBK@MAGIC@
  00793	57		 push	 edi
  00794	ff d6		 call	 esi
  00796	83 c4 0c	 add	 esp, 12			; 0000000cH

; 1431 : 	PyModule_AddIntConstant(poModule, "BUY", CPythonApplication::CURSOR_SHAPE_BUY);

  00799	6a 09		 push	 9
  0079b	68 00 00 00 00	 push	 OFFSET ??_C@_03OOKILKBD@BUY@
  007a0	57		 push	 edi
  007a1	ff d6		 call	 esi
  007a3	83 c4 0c	 add	 esp, 12			; 0000000cH

; 1432 : 	PyModule_AddIntConstant(poModule, "SELL", CPythonApplication::CURSOR_SHAPE_SELL);

  007a6	6a 0a		 push	 10			; 0000000aH
  007a8	68 00 00 00 00	 push	 OFFSET ??_C@_04MPOIGBFL@SELL@
  007ad	57		 push	 edi
  007ae	ff d6		 call	 esi
  007b0	83 c4 0c	 add	 esp, 12			; 0000000cH

; 1433 : 
; 1434 : 	PyModule_AddIntConstant(poModule, "CAMERA_ROTATE", CPythonApplication::CURSOR_SHAPE_CAMERA_ROTATE);

  007b3	6a 0b		 push	 11			; 0000000bH
  007b5	68 00 00 00 00	 push	 OFFSET ??_C@_0O@MAJOJEIM@CAMERA_ROTATE@
  007ba	57		 push	 edi
  007bb	ff d6		 call	 esi
  007bd	83 c4 0c	 add	 esp, 12			; 0000000cH

; 1435 : 	PyModule_AddIntConstant(poModule, "HSIZE", CPythonApplication::CURSOR_SHAPE_HSIZE);

  007c0	6a 0c		 push	 12			; 0000000cH
  007c2	68 00 00 00 00	 push	 OFFSET ??_C@_05NILMGENH@HSIZE@
  007c7	57		 push	 edi
  007c8	ff d6		 call	 esi
  007ca	83 c4 0c	 add	 esp, 12			; 0000000cH

; 1436 : 	PyModule_AddIntConstant(poModule, "VSIZE", CPythonApplication::CURSOR_SHAPE_VSIZE);

  007cd	6a 0d		 push	 13			; 0000000dH
  007cf	68 00 00 00 00	 push	 OFFSET ??_C@_05OBGAAHDM@VSIZE@
  007d4	57		 push	 edi
  007d5	ff d6		 call	 esi
  007d7	83 c4 0c	 add	 esp, 12			; 0000000cH

; 1437 : 	PyModule_AddIntConstant(poModule, "HVSIZE", CPythonApplication::CURSOR_SHAPE_HVSIZE);

  007da	6a 0e		 push	 14			; 0000000eH
  007dc	68 00 00 00 00	 push	 OFFSET ??_C@_06LKCKECPP@HVSIZE@
  007e1	57		 push	 edi
  007e2	ff d6		 call	 esi
  007e4	83 c4 0c	 add	 esp, 12			; 0000000cH

; 1438 : 
; 1439 : #ifdef ENABLE_FISH_GAME
; 1440 : 	PyModule_AddIntConstant(poModule, "FISH", CPythonApplication::CURSOR_SHAPE_FISH);

  007e7	6a 0f		 push	 15			; 0000000fH
  007e9	68 00 00 00 00	 push	 OFFSET ??_C@_04FOCIOHFI@FISH@
  007ee	57		 push	 edi
  007ef	ff d6		 call	 esi
  007f1	83 c4 0c	 add	 esp, 12			; 0000000cH

; 1441 : #endif
; 1442 : 
; 1443 : 	PyModule_AddIntConstant(poModule, "CAMERA_TO_POSITIVE", CPythonApplication::CAMERA_TO_POSITIVE);

  007f4	6a 01		 push	 1
  007f6	68 00 00 00 00	 push	 OFFSET ??_C@_0BD@BFBNCJCC@CAMERA_TO_POSITIVE@
  007fb	57		 push	 edi
  007fc	ff d6		 call	 esi
  007fe	83 c4 0c	 add	 esp, 12			; 0000000cH

; 1444 : 	PyModule_AddIntConstant(poModule, "CAMERA_TO_NEGATIVE", CPythonApplication::CAMERA_TO_NEGITIVE);

  00801	6a ff		 push	 -1
  00803	68 00 00 00 00	 push	 OFFSET ??_C@_0BD@JPBNJGLJ@CAMERA_TO_NEGATIVE@
  00808	57		 push	 edi
  00809	ff d6		 call	 esi
  0080b	83 c4 0c	 add	 esp, 12			; 0000000cH

; 1445 : 	PyModule_AddIntConstant(poModule, "CAMERA_STOP", CPythonApplication::CAMERA_STOP);

  0080e	6a 00		 push	 0
  00810	68 00 00 00 00	 push	 OFFSET ??_C@_0M@NJFGNKPE@CAMERA_STOP@
  00815	57		 push	 edi
  00816	ff d6		 call	 esi
  00818	83 c4 0c	 add	 esp, 12			; 0000000cH

; 1446 : 
; 1447 : #ifdef ENABLE_COSTUME_SYSTEM
; 1448 : 	PyModule_AddIntConstant(poModule, "ENABLE_COSTUME_SYSTEM", 1);

  0081b	6a 01		 push	 1
  0081d	68 00 00 00 00	 push	 OFFSET ??_C@_0BG@NNONEOJP@ENABLE_COSTUME_SYSTEM@
  00822	57		 push	 edi
  00823	ff d6		 call	 esi
  00825	83 c4 0c	 add	 esp, 12			; 0000000cH

; 1449 : #else
; 1450 : 	PyModule_AddIntConstant(poModule, "ENABLE_COSTUME_SYSTEM", 0);
; 1451 : #endif
; 1452 : 
; 1453 : #ifdef ENABLE_ENERGY_SYSTEM
; 1454 : 	PyModule_AddIntConstant(poModule, "ENABLE_ENERGY_SYSTEM", 1);

  00828	6a 01		 push	 1
  0082a	68 00 00 00 00	 push	 OFFSET ??_C@_0BF@JNPGDOCA@ENABLE_ENERGY_SYSTEM@
  0082f	57		 push	 edi
  00830	ff d6		 call	 esi
  00832	83 c4 0c	 add	 esp, 12			; 0000000cH

; 1455 : #else
; 1456 : 	PyModule_AddIntConstant(poModule, "ENABLE_ENERGY_SYSTEM", 0);
; 1457 : #endif
; 1458 : 
; 1459 : #ifdef ENABLE_DRAGON_SOUL_SYSTEM
; 1460 : 	PyModule_AddIntConstant(poModule, "ENABLE_DRAGON_SOUL_SYSTEM", 1);

  00835	6a 01		 push	 1
  00837	68 00 00 00 00	 push	 OFFSET ??_C@_0BK@MHKPDOOB@ENABLE_DRAGON_SOUL_SYSTEM@
  0083c	57		 push	 edi
  0083d	ff d6		 call	 esi
  0083f	83 c4 0c	 add	 esp, 12			; 0000000cH

; 1461 : #else
; 1462 : 	PyModule_AddIntConstant(poModule, "ENABLE_DRAGON_SOUL_SYSTEM", 0);
; 1463 : #endif
; 1464 : 
; 1465 : #ifdef ENABLE_NEW_EQUIPMENT_SYSTEM
; 1466 : 	PyModule_AddIntConstant(poModule, "ENABLE_NEW_EQUIPMENT_SYSTEM", 1);

  00842	6a 01		 push	 1
  00844	68 00 00 00 00	 push	 OFFSET ??_C@_0BM@LNFCINHP@ENABLE_NEW_EQUIPMENT_SYSTEM@
  00849	57		 push	 edi
  0084a	ff d6		 call	 esi
  0084c	83 c4 0c	 add	 esp, 12			; 0000000cH

; 1467 : #else
; 1468 : 	PyModule_AddIntConstant(poModule, "ENABLE_NEW_EQUIPMENT_SYSTEM", 0);
; 1469 : #endif
; 1470 : 
; 1471 : #ifdef ENABLE_LOAD_INDEX_BINARY
; 1472 : 	PyModule_AddIntConstant(poModule, "ENABLE_LOAD_INDEX_BINARY", 1);

  0084f	6a 01		 push	 1
  00851	68 00 00 00 00	 push	 OFFSET ??_C@_0BJ@CLOLEGP@ENABLE_LOAD_INDEX_BINARY@
  00856	57		 push	 edi
  00857	ff d6		 call	 esi
  00859	83 c4 0c	 add	 esp, 12			; 0000000cH

; 1473 : #else
; 1474 : 	PyModule_AddIntConstant(poModule, "ENABLE_LOAD_INDEX_BINARY", 0);
; 1475 : #endif
; 1476 : 
; 1477 : #ifdef ENABLE_CHANGE_CHANNEL
; 1478 : 	PyModule_AddIntConstant(poModule, "ENABLE_CHANGE_CHANNEL", 1);

  0085c	6a 01		 push	 1
  0085e	68 00 00 00 00	 push	 OFFSET ??_C@_0BG@EJHALOGN@ENABLE_CHANGE_CHANNEL@
  00863	57		 push	 edi
  00864	ff d6		 call	 esi
  00866	83 c4 0c	 add	 esp, 12			; 0000000cH

; 1479 : #else
; 1480 : 	PyModule_AddIntConstant(poModule, "ENABLE_CHANGE_CHANNEL", 0);
; 1481 : #endif
; 1482 : 
; 1483 : #ifdef ENABLE_GUILD_RANK_SYSTEM
; 1484 : 	PyModule_AddIntConstant(poModule, "ENABLE_GUILD_RANK_SYSTEM", 1);

  00869	6a 01		 push	 1
  0086b	68 00 00 00 00	 push	 OFFSET ??_C@_0BJ@EEABCGMI@ENABLE_GUILD_RANK_SYSTEM@
  00870	57		 push	 edi
  00871	ff d6		 call	 esi
  00873	83 c4 0c	 add	 esp, 12			; 0000000cH

; 1485 : #else
; 1486 : 	PyModule_AddIntConstant(poModule, "ENABLE_GUILD_RANK_SYSTEM", 0);
; 1487 : #endif
; 1488 : 
; 1489 : #ifdef ENABLE_VIEW_TARGET_PLAYER_HP
; 1490 : 	PyModule_AddIntConstant(poModule, "ENABLE_VIEW_TARGET_PLAYER_HP", 1);

  00876	6a 01		 push	 1
  00878	68 00 00 00 00	 push	 OFFSET ??_C@_0BN@HOIDIKJA@ENABLE_VIEW_TARGET_PLAYER_HP@
  0087d	57		 push	 edi
  0087e	ff d6		 call	 esi
  00880	83 c4 0c	 add	 esp, 12			; 0000000cH

; 1491 : #else
; 1492 : 	PyModule_AddIntConstant(poModule, "ENABLE_VIEW_TARGET_PLAYER_HP", 0);
; 1493 : #endif
; 1494 : 
; 1495 : #ifdef ENABLE_VIEW_TARGET_DECIMAL_HP
; 1496 : 	PyModule_AddIntConstant(poModule, "ENABLE_VIEW_TARGET_DECIMAL_HP", 1);

  00883	6a 01		 push	 1
  00885	68 00 00 00 00	 push	 OFFSET ??_C@_0BO@LEKLIGFK@ENABLE_VIEW_TARGET_DECIMAL_HP@
  0088a	57		 push	 edi
  0088b	ff d6		 call	 esi
  0088d	83 c4 0c	 add	 esp, 12			; 0000000cH

; 1497 : #else
; 1498 : 	PyModule_AddIntConstant(poModule, "ENABLE_VIEW_TARGET_DECIMAL_HP", 0);
; 1499 : #endif
; 1500 : 
; 1501 : #ifdef ENABLE_MESSENGER_TEAM
; 1502 : 	PyModule_AddIntConstant(poModule, "ENABLE_MESSENGER_TEAM", 1);

  00890	6a 01		 push	 1
  00892	68 00 00 00 00	 push	 OFFSET ??_C@_0BG@DNNPLDMM@ENABLE_MESSENGER_TEAM@
  00897	57		 push	 edi
  00898	ff d6		 call	 esi
  0089a	83 c4 0c	 add	 esp, 12			; 0000000cH

; 1503 : #else
; 1504 : 	PyModule_AddIntConstant(poModule, "ENABLE_MESSENGER_TEAM", 0);
; 1505 : #endif
; 1506 : 
; 1507 : #ifdef ENABLE_RENEWAL_DEAD_PACKET
; 1508 : 	PyModule_AddIntConstant(poModule, "ENABLE_RENEWAL_DEAD_PACKET", 1);

  0089d	6a 01		 push	 1
  0089f	68 00 00 00 00	 push	 OFFSET ??_C@_0BL@ODDIDMFC@ENABLE_RENEWAL_DEAD_PACKET@
  008a4	57		 push	 edi
  008a5	ff d6		 call	 esi
  008a7	83 c4 0c	 add	 esp, 12			; 0000000cH

; 1509 : #else
; 1510 : 	PyModule_AddIntConstant(poModule, "ENABLE_RENEWAL_DEAD_PACKET", 0);
; 1511 : #endif
; 1512 : 
; 1513 : #ifdef ENABLE_MAP_TELEPORT
; 1514 : 	PyModule_AddIntConstant(poModule, "ENABLE_MAP_TELEPORT", 1);

  008aa	6a 01		 push	 1
  008ac	68 00 00 00 00	 push	 OFFSET ??_C@_0BE@FDIHPFHM@ENABLE_MAP_TELEPORT@
  008b1	57		 push	 edi
  008b2	ff d6		 call	 esi
  008b4	83 c4 0c	 add	 esp, 12			; 0000000cH

; 1515 : #else
; 1516 : 	PyModule_AddIntConstant(poModule, "ENABLE_MAP_TELEPORT", 0);
; 1517 : #endif
; 1518 : 
; 1519 : #ifdef ENABLE_RENEWAL_SHOPEX
; 1520 : 	PyModule_AddIntConstant(poModule, "ENABLE_RENEWAL_SHOPEX", 1);

  008b7	6a 01		 push	 1
  008b9	68 00 00 00 00	 push	 OFFSET ??_C@_0BG@KNGLICHO@ENABLE_RENEWAL_SHOPEX@
  008be	57		 push	 edi
  008bf	ff d6		 call	 esi
  008c1	83 c4 0c	 add	 esp, 12			; 0000000cH

; 1521 : #else
; 1522 : 	PyModule_AddIntConstant(poModule, "ENABLE_RENEWAL_SHOPEX", 0);
; 1523 : #endif
; 1524 : 
; 1525 : #ifdef ENABLE_DESTROY_DIALOG
; 1526 : 	PyModule_AddIntConstant(poModule, "ENABLE_DESTROY_DIALOG", 1);

  008c4	6a 01		 push	 1
  008c6	68 00 00 00 00	 push	 OFFSET ??_C@_0BG@CKLLJJNA@ENABLE_DESTROY_DIALOG@
  008cb	57		 push	 edi
  008cc	ff d6		 call	 esi
  008ce	83 c4 0c	 add	 esp, 12			; 0000000cH

; 1527 : #else
; 1528 : 	PyModule_AddIntConstant(poModule, "ENABLE_DESTROY_DIALOG", 0);
; 1529 : #endif
; 1530 : 
; 1531 : #ifdef ENABLE_FOG_FIX
; 1532 : 	PyModule_AddIntConstant(poModule, "ENABLE_FOG_FIX", 1);

  008d1	6a 01		 push	 1
  008d3	68 00 00 00 00	 push	 OFFSET ??_C@_0P@KIOCPJHD@ENABLE_FOG_FIX@
  008d8	57		 push	 edi
  008d9	ff d6		 call	 esi
  008db	83 c4 0c	 add	 esp, 12			; 0000000cH

; 1533 : #else
; 1534 : 	PyModule_AddIntConstant(poModule, "ENABLE_FOG_FIX", 0);
; 1535 : #endif
; 1536 : 
; 1537 : #ifdef ENABLE_ENB_MODE
; 1538 : 	PyModule_AddIntConstant(poModule, "ENABLE_ENB_MODE", 1);

  008de	6a 01		 push	 1
  008e0	68 00 00 00 00	 push	 OFFSET ??_C@_0BA@KEDCFOBK@ENABLE_ENB_MODE@
  008e5	57		 push	 edi
  008e6	ff d6		 call	 esi
  008e8	83 c4 0c	 add	 esp, 12			; 0000000cH

; 1539 : #else
; 1540 : 	PyModule_AddIntConstant(poModule, "ENABLE_ENB_MODE", 0);
; 1541 : #endif
; 1542 : 
; 1543 : #ifdef ENABLE_ENVIRONMENT_EFFECT_OPTION
; 1544 : 	PyModule_AddIntConstant(poModule, "ENABLE_ENVIRONMENT_EFFECT_OPTION", 1);

  008eb	6a 01		 push	 1
  008ed	68 00 00 00 00	 push	 OFFSET ??_C@_0CB@FNCEEDIE@ENABLE_ENVIRONMENT_EFFECT_OPTIO@
  008f2	57		 push	 edi
  008f3	ff d6		 call	 esi
  008f5	83 c4 0c	 add	 esp, 12			; 0000000cH

; 1545 : #else
; 1546 : 	PyModule_AddIntConstant(poModule, "ENABLE_ENVIRONMENT_EFFECT_OPTION", 0);
; 1547 : #endif
; 1548 : 
; 1549 : #ifdef ENABLE_GRAPHIC_ON_OFF
; 1550 : 	PyModule_AddIntConstant(poModule, "ENABLE_GRAPHIC_ON_OFF", 1);

  008f8	6a 01		 push	 1
  008fa	68 00 00 00 00	 push	 OFFSET ??_C@_0BG@FDOAIBIN@ENABLE_GRAPHIC_ON_OFF@
  008ff	57		 push	 edi
  00900	ff d6		 call	 esi
  00902	83 c4 0c	 add	 esp, 12			; 0000000cH

; 1551 : #else
; 1552 : 	PyModule_AddIntConstant(poModule, "ENABLE_GRAPHIC_ON_OFF", 0);
; 1553 : #endif
; 1554 : 
; 1555 : #ifdef ENABLE_MOUNT_SYSTEM
; 1556 : 	PyModule_AddIntConstant(poModule, "ENABLE_MOUNT_SYSTEM", 1);

  00905	6a 01		 push	 1
  00907	68 00 00 00 00	 push	 OFFSET ??_C@_0BE@EJKFNFHB@ENABLE_MOUNT_SYSTEM@
  0090c	57		 push	 edi
  0090d	ff d6		 call	 esi
  0090f	83 c4 0c	 add	 esp, 12			; 0000000cH

; 1557 : #else
; 1558 : 	PyModule_AddIntConstant(poModule, "ENABLE_MOUNT_SYSTEM", 0);
; 1559 : #endif
; 1560 : 
; 1561 : #ifdef ENABLE_PET_SYSTEM
; 1562 : 	PyModule_AddIntConstant(poModule, "ENABLE_PET_SYSTEM", 1);

  00912	6a 01		 push	 1
  00914	68 00 00 00 00	 push	 OFFSET ??_C@_0BC@CPOIIJIB@ENABLE_PET_SYSTEM@
  00919	57		 push	 edi
  0091a	ff d6		 call	 esi
  0091c	83 c4 0c	 add	 esp, 12			; 0000000cH

; 1563 : #else
; 1564 : 	PyModule_AddIntConstant(poModule, "ENABLE_PET_SYSTEM", 0);
; 1565 : #endif
; 1566 : 
; 1567 : #ifdef ENABLE_COINS_INVENTORY
; 1568 : 	PyModule_AddIntConstant(poModule, "ENABLE_COINS_INVENTORY", 1);

  0091f	6a 01		 push	 1
  00921	68 00 00 00 00	 push	 OFFSET ??_C@_0BH@KGPICAGJ@ENABLE_COINS_INVENTORY@
  00926	57		 push	 edi
  00927	ff d6		 call	 esi
  00929	83 c4 0c	 add	 esp, 12			; 0000000cH

; 1569 : #else
; 1570 : 	PyModule_AddIntConstant(poModule, "ENABLE_COINS_INVENTORY", 0);
; 1571 : #endif
; 1572 : 
; 1573 : #ifdef ENABLE_SORT_INVENTORY
; 1574 : 	PyModule_AddIntConstant(poModule, "ENABLE_SORT_INVENTORY", 1);

  0092c	6a 01		 push	 1
  0092e	68 00 00 00 00	 push	 OFFSET ??_C@_0BG@CKGFIAKE@ENABLE_SORT_INVENTORY@
  00933	57		 push	 edi
  00934	ff d6		 call	 esi
  00936	83 c4 0c	 add	 esp, 12			; 0000000cH

; 1575 : #else
; 1576 : 	PyModule_AddIntConstant(poModule, "ENABLE_SORT_INVENTORY", 0);
; 1577 : #endif
; 1578 : 
; 1579 : #ifdef ENABLE_INSTANT_PICKUP
; 1580 : 	PyModule_AddIntConstant(poModule, "ENABLE_INSTANT_PICKUP", 1);

  00939	6a 01		 push	 1
  0093b	68 00 00 00 00	 push	 OFFSET ??_C@_0BG@NAKAIPKG@ENABLE_INSTANT_PICKUP@
  00940	57		 push	 edi
  00941	ff d6		 call	 esi
  00943	83 c4 0c	 add	 esp, 12			; 0000000cH

; 1581 : #else
; 1582 : 	PyModule_AddIntConstant(poModule, "ENABLE_INSTANT_PICKUP", 0);
; 1583 : #endif
; 1584 : 
; 1585 : #ifdef ENABLE_EXTENDED_SAFEBOX
; 1586 : 	PyModule_AddIntConstant(poModule, "ENABLE_EXTENDED_SAFEBOX", 1);

  00946	6a 01		 push	 1
  00948	68 00 00 00 00	 push	 OFFSET ??_C@_0BI@DCKOBBOH@ENABLE_EXTENDED_SAFEBOX@
  0094d	57		 push	 edi
  0094e	ff d6		 call	 esi
  00950	83 c4 0c	 add	 esp, 12			; 0000000cH

; 1587 : #else
; 1588 : 	PyModule_AddIntConstant(poModule, "ENABLE_EXTENDED_SAFEBOX", 0);
; 1589 : #endif
; 1590 : 
; 1591 : #ifdef ENABLE_MESSENGER_BLOCK
; 1592 : 	PyModule_AddIntConstant(poModule, "ENABLE_MESSENGER_BLOCK", 1);

  00953	6a 01		 push	 1
  00955	68 00 00 00 00	 push	 OFFSET ??_C@_0BH@LDLMBOCI@ENABLE_MESSENGER_BLOCK@
  0095a	57		 push	 edi
  0095b	ff d6		 call	 esi
  0095d	83 c4 0c	 add	 esp, 12			; 0000000cH

; 1593 : #else
; 1594 : 	PyModule_AddIntConstant(poModule, "ENABLE_MESSENGER_BLOCK", 0);
; 1595 : #endif
; 1596 : 
; 1597 : #ifdef ENABLE_RENEWAL_QUEST
; 1598 : 	PyModule_AddIntConstant(poModule, "ENABLE_RENEWAL_QUEST", 1);

  00960	6a 01		 push	 1
  00962	68 00 00 00 00	 push	 OFFSET ??_C@_0BF@ICCAGOLJ@ENABLE_RENEWAL_QUEST@
  00967	57		 push	 edi
  00968	ff d6		 call	 esi
  0096a	83 c4 0c	 add	 esp, 12			; 0000000cH

; 1599 : #else
; 1600 : 	PyModule_AddIntConstant(poModule, "ENABLE_RENEWAL_QUEST", 0);
; 1601 : #endif
; 1602 : 
; 1603 : #ifdef ENABLE_QUICK_SELL_ITEM
; 1604 : 	PyModule_AddIntConstant(poModule, "ENABLE_QUICK_SELL_ITEM", 1);

  0096d	6a 01		 push	 1
  0096f	68 00 00 00 00	 push	 OFFSET ??_C@_0BH@IDDFPFEO@ENABLE_QUICK_SELL_ITEM@
  00974	57		 push	 edi
  00975	ff d6		 call	 esi
  00977	83 c4 0c	 add	 esp, 12			; 0000000cH

; 1605 : #else
; 1606 : 	PyModule_AddIntConstant(poModule, "ENABLE_QUICK_SELL_ITEM", 0);
; 1607 : #endif
; 1608 : 
; 1609 : #ifdef ENABLE_MULTI_LANGUAGE_SYSTEM
; 1610 : 	PyModule_AddIntConstant(poModule, "ENABLE_MULTI_LANGUAGE_SYSTEM", 1);

  0097a	6a 01		 push	 1
  0097c	68 00 00 00 00	 push	 OFFSET ??_C@_0BN@NNDEFGCP@ENABLE_MULTI_LANGUAGE_SYSTEM@
  00981	57		 push	 edi
  00982	ff d6		 call	 esi
  00984	83 c4 0c	 add	 esp, 12			; 0000000cH

; 1611 : 	PyModule_AddIntConstant(poModule, "LOCALE_DEFAULT", CPythonApplication::LOCALE_DEFAULT);

  00987	6a 00		 push	 0
  00989	68 00 00 00 00	 push	 OFFSET ??_C@_0P@EOFGLPDC@LOCALE_DEFAULT@
  0098e	57		 push	 edi
  0098f	ff d6		 call	 esi
  00991	83 c4 0c	 add	 esp, 12			; 0000000cH

; 1612 : 	PyModule_AddIntConstant(poModule, "LOCALE_EN", CPythonApplication::LOCALE_EN);

  00994	6a 01		 push	 1
  00996	68 00 00 00 00	 push	 OFFSET ??_C@_09LPPKCIMI@LOCALE_EN@
  0099b	57		 push	 edi
  0099c	ff d6		 call	 esi
  0099e	83 c4 0c	 add	 esp, 12			; 0000000cH

; 1613 : 	PyModule_AddIntConstant(poModule, "LOCALE_RO", CPythonApplication::LOCALE_RO);

  009a1	6a 02		 push	 2
  009a3	68 00 00 00 00	 push	 OFFSET ??_C@_09LPIIKMHM@LOCALE_RO@
  009a8	57		 push	 edi
  009a9	ff d6		 call	 esi
  009ab	83 c4 0c	 add	 esp, 12			; 0000000cH

; 1614 : 	PyModule_AddIntConstant(poModule, "LOCALE_PT", CPythonApplication::LOCALE_PT);

  009ae	6a 03		 push	 3
  009b0	68 00 00 00 00	 push	 OFFSET ??_C@_09BFDKLDII@LOCALE_PT@
  009b5	57		 push	 edi
  009b6	ff d6		 call	 esi
  009b8	83 c4 0c	 add	 esp, 12			; 0000000cH

; 1615 : 	PyModule_AddIntConstant(poModule, "LOCALE_ES", CPythonApplication::LOCALE_ES);

  009bb	6a 04		 push	 4
  009bd	68 00 00 00 00	 push	 OFFSET ??_C@_09EAJGEENE@LOCALE_ES@
  009c2	57		 push	 edi
  009c3	ff d6		 call	 esi
  009c5	83 c4 0c	 add	 esp, 12			; 0000000cH

; 1616 : 	PyModule_AddIntConstant(poModule, "LOCALE_FR", CPythonApplication::LOCALE_FR);

  009c8	6a 05		 push	 5
  009ca	68 00 00 00 00	 push	 OFFSET ??_C@_09FLMLMLMM@LOCALE_FR@
  009cf	57		 push	 edi
  009d0	ff d6		 call	 esi
  009d2	83 c4 0c	 add	 esp, 12			; 0000000cH

; 1617 : 	PyModule_AddIntConstant(poModule, "LOCALE_DE", CPythonApplication::LOCALE_DE);

  009d5	6a 06		 push	 6
  009d7	68 00 00 00 00	 push	 OFFSET ??_C@_09FNMMJLDE@LOCALE_DE@
  009dc	57		 push	 edi
  009dd	ff d6		 call	 esi
  009df	83 c4 0c	 add	 esp, 12			; 0000000cH

; 1618 : 	PyModule_AddIntConstant(poModule, "LOCALE_PL", CPythonApplication::LOCALE_PL);

  009e2	6a 07		 push	 7
  009e4	68 00 00 00 00	 push	 OFFSET ??_C@_09JHCBCLNB@LOCALE_PL@
  009e9	57		 push	 edi
  009ea	ff d6		 call	 esi
  009ec	83 c4 0c	 add	 esp, 12			; 0000000cH

; 1619 : 	PyModule_AddIntConstant(poModule, "LOCALE_IT", CPythonApplication::LOCALE_IT);

  009ef	6a 08		 push	 8
  009f1	68 00 00 00 00	 push	 OFFSET ??_C@_09GMNCLHH@LOCALE_IT@
  009f6	57		 push	 edi
  009f7	ff d6		 call	 esi
  009f9	83 c4 0c	 add	 esp, 12			; 0000000cH

; 1620 : 	PyModule_AddIntConstant(poModule, "LOCALE_CZ", CPythonApplication::LOCALE_CZ);

  009fc	6a 09		 push	 9
  009fe	68 00 00 00 00	 push	 OFFSET ??_C@_09JFNJIDCP@LOCALE_CZ@
  00a03	57		 push	 edi
  00a04	ff d6		 call	 esi
  00a06	83 c4 0c	 add	 esp, 12			; 0000000cH

; 1621 : 	PyModule_AddIntConstant(poModule, "LOCALE_HU", CPythonApplication::LOCALE_HU);

  00a09	6a 0a		 push	 10			; 0000000aH
  00a0b	68 00 00 00 00	 push	 OFFSET ??_C@_09BOBEHAAB@LOCALE_HU@
  00a10	57		 push	 edi
  00a11	ff d6		 call	 esi
  00a13	83 c4 0c	 add	 esp, 12			; 0000000cH

; 1622 : 	PyModule_AddIntConstant(poModule, "LOCALE_TR", CPythonApplication::LOCALE_TR);

  00a16	6a 0b		 push	 11			; 0000000bH
  00a18	68 00 00 00 00	 push	 OFFSET ??_C@_09EEGJLMNC@LOCALE_TR@
  00a1d	57		 push	 edi
  00a1e	ff d6		 call	 esi
  00a20	83 c4 0c	 add	 esp, 12			; 0000000cH

; 1623 : 	PyModule_AddIntConstant(poModule, "LOCALE_MAX_NUM", CPythonApplication::LOCALE_MAX_NUM);

  00a23	6a 0c		 push	 12			; 0000000cH
  00a25	68 00 00 00 00	 push	 OFFSET ??_C@_0P@EMLFCLHL@LOCALE_MAX_NUM@
  00a2a	57		 push	 edi
  00a2b	ff d6		 call	 esi
  00a2d	83 c4 0c	 add	 esp, 12			; 0000000cH

; 1624 : #else
; 1625 : 	PyModule_AddIntConstant(poModule, "ENABLE_MULTI_LANGUAGE_SYSTEM", 0);
; 1626 : #endif
; 1627 : 
; 1628 : #ifdef ENABLE_EXTENDED_WHISPER_DETAILS
; 1629 : 	PyModule_AddIntConstant(poModule, "ENABLE_EXTENDED_WHISPER_DETAILS", 1);

  00a30	6a 01		 push	 1
  00a32	68 00 00 00 00	 push	 OFFSET ??_C@_0CA@KPFJEDLP@ENABLE_EXTENDED_WHISPER_DETAILS@
  00a37	57		 push	 edi
  00a38	ff d6		 call	 esi
  00a3a	83 c4 0c	 add	 esp, 12			; 0000000cH

; 1630 : #else
; 1631 : 	PyModule_AddIntConstant(poModule, "ENABLE_EXTENDED_WHISPER_DETAILS", 0);
; 1632 : #endif
; 1633 : 
; 1634 : #ifdef ENABLE_RENEWAL_BONUS_BOARD
; 1635 : 	PyModule_AddIntConstant(poModule, "ENABLE_RENEWAL_BONUS_BOARD", 1);

  00a3d	6a 01		 push	 1
  00a3f	68 00 00 00 00	 push	 OFFSET ??_C@_0BL@HKIPHBEA@ENABLE_RENEWAL_BONUS_BOARD@
  00a44	57		 push	 edi
  00a45	ff d6		 call	 esi
  00a47	83 c4 0c	 add	 esp, 12			; 0000000cH

; 1636 : #else
; 1637 : 	PyModule_AddIntConstant(poModule, "ENABLE_RENEWAL_BONUS_BOARD", 0);
; 1638 : #endif
; 1639 : 
; 1640 : #ifdef ENABLE_GOLD_LIMIT
; 1641 : 	PyModule_AddIntConstant(poModule, "ENABLE_GOLD_LIMIT", 1);

  00a4a	6a 01		 push	 1
  00a4c	68 00 00 00 00	 push	 OFFSET ??_C@_0BC@IICODLAC@ENABLE_GOLD_LIMIT@
  00a51	57		 push	 edi
  00a52	ff d6		 call	 esi
  00a54	83 c4 0c	 add	 esp, 12			; 0000000cH

; 1642 : #else
; 1643 : 	PyModule_AddIntConstant(poModule, "ENABLE_GOLD_LIMIT", 0);
; 1644 : #endif
; 1645 : 
; 1646 : #ifdef ENABLE_WEAPON_COSTUME_SYSTEM
; 1647 : 	PyModule_AddIntConstant(poModule, "ENABLE_WEAPON_COSTUME_SYSTEM", 1);

  00a57	6a 01		 push	 1
  00a59	68 00 00 00 00	 push	 OFFSET ??_C@_0BN@HFPGHJNO@ENABLE_WEAPON_COSTUME_SYSTEM@
  00a5e	57		 push	 edi
  00a5f	ff d6		 call	 esi
  00a61	83 c4 0c	 add	 esp, 12			; 0000000cH

; 1648 : #else
; 1649 : 	PyModule_AddIntConstant(poModule, "ENABLE_WEAPON_COSTUME_SYSTEM", 0);
; 1650 : #endif
; 1651 : 
; 1652 : #ifdef ENABLE_RENEWAL_SWITCHBOT
; 1653 : 	PyModule_AddIntConstant(poModule, "ENABLE_RENEWAL_SWITCHBOT", 1);

  00a64	6a 01		 push	 1
  00a66	68 00 00 00 00	 push	 OFFSET ??_C@_0BJ@OOFGBBFO@ENABLE_RENEWAL_SWITCHBOT@
  00a6b	57		 push	 edi
  00a6c	ff d6		 call	 esi
  00a6e	83 c4 0c	 add	 esp, 12			; 0000000cH

; 1654 : #else
; 1655 : 	PyModule_AddIntConstant(poModule, "ENABLE_RENEWAL_SWITCHBOT", 0);
; 1656 : #endif
; 1657 : 
; 1658 : #ifdef ENABLE_RENEWAL_CUBE
; 1659 : 	PyModule_AddIntConstant(poModule, "ENABLE_RENEWAL_CUBE", 1);

  00a71	6a 01		 push	 1
  00a73	68 00 00 00 00	 push	 OFFSET ??_C@_0BE@EHGLIKAL@ENABLE_RENEWAL_CUBE@
  00a78	57		 push	 edi
  00a79	ff d6		 call	 esi
  00a7b	83 c4 0c	 add	 esp, 12			; 0000000cH

; 1660 : #else
; 1661 : 	PyModule_AddIntConstant(poModule, "ENABLE_RENEWAL_CUBE", 0);
; 1662 : #endif
; 1663 : 
; 1664 : #ifdef ENABLE_RENEWAL_CLIENT_VERSION
; 1665 : 	PyModule_AddIntConstant(poModule, "ENABLE_RENEWAL_CLIENT_VERSION", 1);

  00a7e	6a 01		 push	 1
  00a80	68 00 00 00 00	 push	 OFFSET ??_C@_0BO@PJBOGDHG@ENABLE_RENEWAL_CLIENT_VERSION@
  00a85	57		 push	 edi
  00a86	ff d6		 call	 esi
  00a88	83 c4 0c	 add	 esp, 12			; 0000000cH

; 1666 : #else
; 1667 : 	PyModule_AddIntConstant(poModule, "ENABLE_RENEWAL_CLIENT_VERSION", 0);
; 1668 : #endif
; 1669 : 
; 1670 : #ifdef ENABLE_CLIENT_PERFORMANCE
; 1671 : 	PyModule_AddIntConstant(poModule, "ENABLE_CLIENT_PERFORMANCE", 1);

  00a8b	6a 01		 push	 1
  00a8d	68 00 00 00 00	 push	 OFFSET ??_C@_0BK@JPEJEIPL@ENABLE_CLIENT_PERFORMANCE@
  00a92	57		 push	 edi
  00a93	ff d6		 call	 esi
  00a95	83 c4 0c	 add	 esp, 12			; 0000000cH

; 1672 : #else
; 1673 : 	PyModule_AddIntConstant(poModule, "ENABLE_CLIENT_PERFORMANCE", 0);
; 1674 : #endif
; 1675 : 
; 1676 : #ifdef ENABLE_TELEPORT_TO_A_FRIEND
; 1677 : 	PyModule_AddIntConstant(poModule, "ENABLE_TELEPORT_TO_A_FRIEND", 1);

  00a98	6a 01		 push	 1
  00a9a	68 00 00 00 00	 push	 OFFSET ??_C@_0BM@OHBGEPCP@ENABLE_TELEPORT_TO_A_FRIEND@
  00a9f	57		 push	 edi
  00aa0	ff d6		 call	 esi
  00aa2	83 c4 0c	 add	 esp, 12			; 0000000cH

; 1678 : #else
; 1679 : 	PyModule_AddIntConstant(poModule, "ENABLE_TELEPORT_TO_A_FRIEND", 0);
; 1680 : #endif
; 1681 : 
; 1682 : #ifdef ENABLE_BLINK_ALERT
; 1683 : 	PyModule_AddIntConstant (poModule, "ENABLE_BLINK_ALERT", 1);

  00aa5	6a 01		 push	 1
  00aa7	68 00 00 00 00	 push	 OFFSET ??_C@_0BD@HDLIFGNJ@ENABLE_BLINK_ALERT@
  00aac	57		 push	 edi
  00aad	ff d6		 call	 esi
  00aaf	83 c4 0c	 add	 esp, 12			; 0000000cH

; 1684 : #else
; 1685 : 	PyModule_AddIntConstant (poModule, "ENABLE_BLINK_ALERT", 0);
; 1686 : #endif
; 1687 : 
; 1688 : #ifdef ENABLE_METIN_STONES_MINIMAP
; 1689 : 	PyModule_AddIntConstant(poModule, "ENABLE_METIN_STONES_MINIMAP", 1);

  00ab2	6a 01		 push	 1
  00ab4	68 00 00 00 00	 push	 OFFSET ??_C@_0BM@ILFELCEF@ENABLE_METIN_STONES_MINIMAP@
  00ab9	57		 push	 edi
  00aba	ff d6		 call	 esi
  00abc	83 c4 0c	 add	 esp, 12			; 0000000cH

; 1690 : #else
; 1691 : 	PyModule_AddIntConstant(poModule, "ENABLE_METIN_STONES_MINIMAP", 0);
; 1692 : #endif
; 1693 : 
; 1694 : #ifdef ENABLE_AUTO_REFINE
; 1695 : 	PyModule_AddIntConstant(poModule, "ENABLE_AUTO_REFINE", 1);

  00abf	6a 01		 push	 1
  00ac1	68 00 00 00 00	 push	 OFFSET ??_C@_0BD@FAICKCGG@ENABLE_AUTO_REFINE@
  00ac6	57		 push	 edi
  00ac7	ff d6		 call	 esi
  00ac9	83 c4 0c	 add	 esp, 12			; 0000000cH

; 1696 : #else
; 1697 : 	PyModule_AddIntConstant(poModule, "ENABLE_AUTO_REFINE", 0);
; 1698 : #endif
; 1699 : 
; 1700 : #ifdef ENABLE_SHOW_MOB_INFO
; 1701 : 	PyModule_AddIntConstant(poModule, "ENABLE_SHOW_MOB_INFO", 1);

  00acc	6a 01		 push	 1
  00ace	68 00 00 00 00	 push	 OFFSET ??_C@_0BF@LDJJKBCK@ENABLE_SHOW_MOB_INFO@
  00ad3	57		 push	 edi
  00ad4	ff d6		 call	 esi
  00ad6	83 c4 0c	 add	 esp, 12			; 0000000cH

; 1702 : #else
; 1703 : 	PyModule_AddIntConstant(poModule, "ENABLE_SHOW_MOB_INFO", 0);
; 1704 : #endif
; 1705 : 
; 1706 : #ifdef ENABLE_DICE_SYSTEM
; 1707 : 	PyModule_AddIntConstant(poModule, "ENABLE_DICE_SYSTEM", 1);

  00ad9	6a 01		 push	 1
  00adb	68 00 00 00 00	 push	 OFFSET ??_C@_0BD@CAANKIHI@ENABLE_DICE_SYSTEM@
  00ae0	57		 push	 edi
  00ae1	ff d6		 call	 esi
  00ae3	83 c4 0c	 add	 esp, 12			; 0000000cH

; 1708 : #else
; 1709 : 	PyModule_AddIntConstant(poModule, "ENABLE_DICE_SYSTEM", 0);
; 1710 : #endif
; 1711 : 
; 1712 : #ifdef ENABLE_MOUNT_PET_SKIN
; 1713 : 	PyModule_AddIntConstant(poModule, "ENABLE_MOUNT_PET_SKIN", 1);

  00ae6	6a 01		 push	 1
  00ae8	68 00 00 00 00	 push	 OFFSET ??_C@_0BG@KGBOBIJP@ENABLE_MOUNT_PET_SKIN@
  00aed	57		 push	 edi
  00aee	ff d6		 call	 esi
  00af0	83 c4 0c	 add	 esp, 12			; 0000000cH

; 1714 : #else
; 1715 : 	PyModule_AddIntConstant(poModule, "ENABLE_MOUNT_PET_SKIN", 0);
; 1716 : #endif
; 1717 : 
; 1718 : #ifdef ENABLE_PENDANT_SYSTEM
; 1719 : 	PyModule_AddIntConstant(poModule, "ENABLE_PENDANT_SYSTEM", 1);

  00af3	6a 01		 push	 1
  00af5	68 00 00 00 00	 push	 OFFSET ??_C@_0BG@OLFFBABC@ENABLE_PENDANT_SYSTEM@
  00afa	57		 push	 edi
  00afb	ff d6		 call	 esi
  00afd	83 c4 0c	 add	 esp, 12			; 0000000cH

; 1720 : #else
; 1721 : 	PyModule_AddIntConstant(poModule, "ENABLE_PENDANT_SYSTEM", 0);
; 1722 : #endif
; 1723 : 
; 1724 : #ifdef ENABLE_HIDE_COSTUME_SYSTEM
; 1725 : 	PyModule_AddIntConstant(poModule, "ENABLE_HIDE_COSTUME_SYSTEM", 1);

  00b00	6a 01		 push	 1
  00b02	68 00 00 00 00	 push	 OFFSET ??_C@_0BL@BJLHGOJN@ENABLE_HIDE_COSTUME_SYSTEM@
  00b07	57		 push	 edi
  00b08	ff d6		 call	 esi
  00b0a	83 c4 0c	 add	 esp, 12			; 0000000cH

; 1726 : #else
; 1727 : 	PyModule_AddIntConstant(poModule, "ENABLE_HIDE_COSTUME_SYSTEM", 0);
; 1728 : #endif
; 1729 : 
; 1730 : #ifdef ENABLE_RENEWAL_SERVER_LIST
; 1731 : 	PyModule_AddIntConstant(poModule, "ENABLE_RENEWAL_SERVER_LIST", 1);

  00b0d	6a 01		 push	 1
  00b0f	68 00 00 00 00	 push	 OFFSET ??_C@_0BL@KGNNLHIE@ENABLE_RENEWAL_SERVER_LIST@
  00b14	57		 push	 edi
  00b15	ff d6		 call	 esi
  00b17	83 c4 0c	 add	 esp, 12			; 0000000cH

; 1732 : #else
; 1733 : 	PyModule_AddIntConstant(poModule, "ENABLE_RENEWAL_SERVER_LIST", 0);
; 1734 : #endif
; 1735 : 
; 1736 : #ifdef ENABLE_EXTEND_TIME_COSTUME_SYSTEM
; 1737 : 	PyModule_AddIntConstant(poModule, "ENABLE_EXTEND_TIME_COSTUME_SYSTEM", 1);

  00b1a	6a 01		 push	 1
  00b1c	68 00 00 00 00	 push	 OFFSET ??_C@_0CC@IABBIMPP@ENABLE_EXTEND_TIME_COSTUME_SYST@
  00b21	57		 push	 edi
  00b22	ff d6		 call	 esi
  00b24	83 c4 0c	 add	 esp, 12			; 0000000cH

; 1738 : #else
; 1739 : 	PyModule_AddIntConstant(poModule, "ENABLE_EXTEND_TIME_COSTUME_SYSTEM", 0);
; 1740 : #endif
; 1741 : 
; 1742 : #ifdef ENABLE_ACCE_COSTUME_SYSTEM
; 1743 : 	PyModule_AddIntConstant(poModule, "ENABLE_ACCE_COSTUME_SYSTEM", 1);

  00b27	6a 01		 push	 1
  00b29	68 00 00 00 00	 push	 OFFSET ??_C@_0BL@HNDAJCHJ@ENABLE_ACCE_COSTUME_SYSTEM@
  00b2e	57		 push	 edi
  00b2f	ff d6		 call	 esi
  00b31	83 c4 0c	 add	 esp, 12			; 0000000cH

; 1744 : #else
; 1745 : 	PyModule_AddIntConstant(poModule, "ENABLE_ACCE_COSTUME_SYSTEM", 0);
; 1746 : #endif
; 1747 : 
; 1748 : #ifdef ENABLE_ATTBONUS_METIN
; 1749 : 	PyModule_AddIntConstant(poModule, "ENABLE_ATTBONUS_METIN", 1);

  00b34	6a 01		 push	 1
  00b36	68 00 00 00 00	 push	 OFFSET ??_C@_0BG@MMGCEMF@ENABLE_ATTBONUS_METIN@
  00b3b	57		 push	 edi
  00b3c	ff d6		 call	 esi
  00b3e	83 c4 0c	 add	 esp, 12			; 0000000cH

; 1750 : #else
; 1751 : 	PyModule_AddIntConstant(poModule, "ENABLE_ATTBONUS_METIN", 0);
; 1752 : #endif
; 1753 : 
; 1754 : #ifdef ENABLE_BIOLOG_SYSTEM
; 1755 : 	PyModule_AddIntConstant(poModule, "ENABLE_BIOLOG_SYSTEM", 1);

  00b41	6a 01		 push	 1
  00b43	68 00 00 00 00	 push	 OFFSET ??_C@_0BF@OECKEMAD@ENABLE_BIOLOG_SYSTEM@
  00b48	57		 push	 edi
  00b49	ff d6		 call	 esi
  00b4b	83 c4 0c	 add	 esp, 12			; 0000000cH

; 1756 : #else
; 1757 : 	PyModule_AddIntConstant(poModule, "ENABLE_BIOLOG_SYSTEM", 0);
; 1758 : #endif
; 1759 : 
; 1760 : #ifdef ENABLE_MOB_DROP_INFO
; 1761 : 	PyModule_AddIntConstant(poModule, "ENABLE_MOB_DROP_INFO", 1);

  00b4e	6a 01		 push	 1
  00b50	68 00 00 00 00	 push	 OFFSET ??_C@_0BF@BLNJFEGN@ENABLE_MOB_DROP_INFO@
  00b55	57		 push	 edi
  00b56	ff d6		 call	 esi
  00b58	83 c4 0c	 add	 esp, 12			; 0000000cH

; 1762 : #else
; 1763 : 	PyModule_AddIntConstant(poModule, "ENABLE_MOB_DROP_INFO", 0);
; 1764 : #endif
; 1765 : 
; 1766 : #ifdef ENABLE_ANTI_EXP
; 1767 : 	PyModule_AddIntConstant(poModule, "ENABLE_ANTI_EXP", 1);

  00b5b	6a 01		 push	 1
  00b5d	68 00 00 00 00	 push	 OFFSET ??_C@_0BA@HPELNPOC@ENABLE_ANTI_EXP@
  00b62	57		 push	 edi
  00b63	ff d6		 call	 esi
  00b65	83 c4 0c	 add	 esp, 12			; 0000000cH

; 1768 : #else
; 1769 : 	PyModule_AddIntConstant(poModule, "ENABLE_ANTI_EXP", 0);
; 1770 : #endif
; 1771 : 
; 1772 : #ifdef ENABLE_VIEW_CHEST_DROP
; 1773 : 	PyModule_AddIntConstant(poModule, "ENABLE_VIEW_CHEST_DROP", 1);

  00b68	6a 01		 push	 1
  00b6a	68 00 00 00 00	 push	 OFFSET ??_C@_0BH@ILAGBPOI@ENABLE_VIEW_CHEST_DROP@
  00b6f	57		 push	 edi
  00b70	ff d6		 call	 esi
  00b72	83 c4 0c	 add	 esp, 12			; 0000000cH

; 1774 : #else
; 1775 : 	PyModule_AddIntConstant(poModule, "ENABLE_VIEW_CHEST_DROP", 0);
; 1776 : #endif
; 1777 : 
; 1778 : #ifdef ENABLE_SPECIAL_INVENTORY
; 1779 : 	PyModule_AddIntConstant(poModule, "ENABLE_SPECIAL_INVENTORY", 1);

  00b75	6a 01		 push	 1
  00b77	68 00 00 00 00	 push	 OFFSET ??_C@_0BJ@CJJKOKPF@ENABLE_SPECIAL_INVENTORY@
  00b7c	57		 push	 edi
  00b7d	ff d6		 call	 esi
  00b7f	83 c4 0c	 add	 esp, 12			; 0000000cH

; 1780 : #else
; 1781 : 	PyModule_AddIntConstant(poModule, "ENABLE_SPECIAL_INVENTORY", 0);
; 1782 : #endif
; 1783 : 
; 1784 : #ifdef ENABLE_RENEWAL_OFFLINESHOP
; 1785 : 	PyModule_AddIntConstant(poModule, "ENABLE_RENEWAL_OFFLINESHOP", 1);

  00b82	6a 01		 push	 1
  00b84	68 00 00 00 00	 push	 OFFSET ??_C@_0BL@FPEGKCKL@ENABLE_RENEWAL_OFFLINESHOP@
  00b89	57		 push	 edi
  00b8a	ff d6		 call	 esi
  00b8c	83 c4 0c	 add	 esp, 12			; 0000000cH

; 1786 : #else
; 1787 : 	PyModule_AddIntConstant(poModule, "ENABLE_RENEWAL_OFFLINESHOP", 0);
; 1788 : #endif
; 1789 : 
; 1790 : #ifdef ENABLE_TITLE_SYSTEM
; 1791 : 	PyModule_AddIntConstant(poModule, "ENABLE_TITLE_SYSTEM", 1);

  00b8f	6a 01		 push	 1
  00b91	68 00 00 00 00	 push	 OFFSET ??_C@_0BE@OLMKIFGM@ENABLE_TITLE_SYSTEM@
  00b96	57		 push	 edi
  00b97	ff d6		 call	 esi
  00b99	83 c4 0c	 add	 esp, 12			; 0000000cH

; 1792 : #else
; 1793 : 	PyModule_AddIntConstant(poModule, "ENABLE_TITLE_SYSTEM", 0);
; 1794 : #endif
; 1795 : 
; 1796 : #ifdef ENABLE_ATTBONUS_BOSS
; 1797 : 	PyModule_AddIntConstant(poModule, "ENABLE_ATTBONUS_BOSS", 1);

  00b9c	6a 01		 push	 1
  00b9e	68 00 00 00 00	 push	 OFFSET ??_C@_0BF@LJNEAKLH@ENABLE_ATTBONUS_BOSS@
  00ba3	57		 push	 edi
  00ba4	ff d6		 call	 esi
  00ba6	83 c4 0c	 add	 esp, 12			; 0000000cH

; 1798 : #else
; 1799 : 	PyModule_AddIntConstant(poModule, "ENABLE_ATTBONUS_BOSS", 0);
; 1800 : #endif
; 1801 : 
; 1802 : #ifdef ENABLE_RENDER_TARGET
; 1803 : 	PyModule_AddIntConstant(poModule, "ENABLE_RENDER_TARGET", 1);

  00ba9	6a 01		 push	 1
  00bab	68 00 00 00 00	 push	 OFFSET ??_C@_0BF@GNPDFOI@ENABLE_RENDER_TARGET@
  00bb0	57		 push	 edi
  00bb1	ff d6		 call	 esi
  00bb3	83 c4 0c	 add	 esp, 12			; 0000000cH

; 1804 : #else
; 1805 : 	PyModule_AddIntConstant(poModule, "ENABLE_RENDER_TARGET", 0);
; 1806 : #endif
; 1807 : 
; 1808 : #ifdef ENABLE_EVENT_MANAGER
; 1809 : 	PyModule_AddIntConstant(poModule, "ENABLE_EVENT_MANAGER", 1);

  00bb6	6a 01		 push	 1
  00bb8	68 00 00 00 00	 push	 OFFSET ??_C@_0BF@CNEHOFGF@ENABLE_EVENT_MANAGER@
  00bbd	57		 push	 edi
  00bbe	ff d6		 call	 esi
  00bc0	83 c4 0c	 add	 esp, 12			; 0000000cH

; 1810 : #else
; 1811 : 	PyModule_AddIntConstant(poModule, "ENABLE_EVENT_MANAGER", 0);
; 1812 : #endif
; 1813 : 
; 1814 : #ifdef ENABLE_RESTART_INSTANT
; 1815 : 	PyModule_AddIntConstant(poModule, "ENABLE_RESTART_INSTANT", 1);

  00bc3	6a 01		 push	 1
  00bc5	68 00 00 00 00	 push	 OFFSET ??_C@_0BH@KJKAIDCH@ENABLE_RESTART_INSTANT@
  00bca	57		 push	 edi
  00bcb	ff d6		 call	 esi
  00bcd	83 c4 0c	 add	 esp, 12			; 0000000cH

; 1816 : #else
; 1817 : 	PyModule_AddIntConstant(poModule, "ENABLE_RESTART_INSTANT", 0);
; 1818 : #endif
; 1819 : 
; 1820 : #ifdef ENABLE_MINIGAME_OKEY_CARDS_SYSTEM
; 1821 : 	PyModule_AddIntConstant(poModule, "ENABLE_MINIGAME_OKEY_CARDS_SYSTEM", 1);

  00bd0	6a 01		 push	 1
  00bd2	68 00 00 00 00	 push	 OFFSET ??_C@_0CC@BNACIKDA@ENABLE_MINIGAME_OKEY_CARDS_SYST@
  00bd7	57		 push	 edi
  00bd8	ff d6		 call	 esi
  00bda	83 c4 0c	 add	 esp, 12			; 0000000cH

; 1822 : #else
; 1823 : 	PyModule_AddIntConstant(poModule, "ENABLE_MINIGAME_OKEY_CARDS_SYSTEM", 0);
; 1824 : #endif
; 1825 : 
; 1826 : #ifdef ENABLE_RENEWAL_BATTLE_PASS
; 1827 : 	PyModule_AddIntConstant(poModule, "ENABLE_RENEWAL_BATTLE_PASS", 1);

  00bdd	6a 01		 push	 1
  00bdf	68 00 00 00 00	 push	 OFFSET ??_C@_0BL@DAICEAJE@ENABLE_RENEWAL_BATTLE_PASS@
  00be4	57		 push	 edi
  00be5	ff d6		 call	 esi
  00be7	83 c4 0c	 add	 esp, 12			; 0000000cH

; 1828 : #else
; 1829 : 	PyModule_AddIntConstant(poModule, "ENABLE_RENEWAL_BATTLE_PASS", 0);
; 1830 : #endif
; 1831 : 
; 1832 : #ifdef ENABLE_MONSTER_TARGET_ELEMENT
; 1833 : 	PyModule_AddIntConstant(poModule, "ENABLE_MONSTER_TARGET_ELEMENT", 1);

  00bea	6a 01		 push	 1
  00bec	68 00 00 00 00	 push	 OFFSET ??_C@_0BO@CKMKHAKF@ENABLE_MONSTER_TARGET_ELEMENT@
  00bf1	57		 push	 edi
  00bf2	ff d6		 call	 esi
  00bf4	83 c4 0c	 add	 esp, 12			; 0000000cH

; 1834 : #else
; 1835 : 	PyModule_AddIntConstant(poModule, "ENABLE_MONSTER_TARGET_ELEMENT", 0);
; 1836 : #endif
; 1837 : 
; 1838 : #ifdef ENABLE_RENEWAL_SPECIAL_CHAT
; 1839 : 	PyModule_AddIntConstant(poModule, "ENABLE_RENEWAL_SPECIAL_CHAT", 1);

  00bf7	6a 01		 push	 1
  00bf9	68 00 00 00 00	 push	 OFFSET ??_C@_0BM@PGGEJJMI@ENABLE_RENEWAL_SPECIAL_CHAT@
  00bfe	57		 push	 edi
  00bff	ff d6		 call	 esi
  00c01	83 c4 0c	 add	 esp, 12			; 0000000cH

; 1840 : #else
; 1841 : 	PyModule_AddIntConstant(poModule, "ENABLE_RENEWAL_SPECIAL_CHAT", 0);
; 1842 : #endif
; 1843 : 
; 1844 : #ifdef ENABLE_RENEWAL_AFFECT
; 1845 : 	PyModule_AddIntConstant(poModule, "ENABLE_RENEWAL_AFFECT", 1);

  00c04	6a 01		 push	 1
  00c06	68 00 00 00 00	 push	 OFFSET ??_C@_0BG@KFMPJIIL@ENABLE_RENEWAL_AFFECT@
  00c0b	57		 push	 edi
  00c0c	ff d6		 call	 esi
  00c0e	83 c4 0c	 add	 esp, 12			; 0000000cH

; 1846 : #else
; 1847 : 	PyModule_AddIntConstant(poModule, "ENABLE_RENEWAL_AFFECT", 0);
; 1848 : #endif
; 1849 : 
; 1850 : #ifdef ENABLE_MULTI_FARM_BLOCK
; 1851 : 	PyModule_AddIntConstant(poModule, "ENABLE_MULTI_FARM_BLOCK", 1);

  00c11	6a 01		 push	 1
  00c13	68 00 00 00 00	 push	 OFFSET ??_C@_0BI@HBBBBDIM@ENABLE_MULTI_FARM_BLOCK@
  00c18	57		 push	 edi
  00c19	ff d6		 call	 esi
  00c1b	83 c4 0c	 add	 esp, 12			; 0000000cH

; 1852 : #else
; 1853 : 	PyModule_AddIntConstant(poModule, "ENABLE_MULTI_FARM_BLOCK", 0);
; 1854 : #endif
; 1855 : 
; 1856 : #ifdef ENABLE_RENEWAL_TEAM_AFFECT
; 1857 : 	PyModule_AddIntConstant(poModule, "ENABLE_RENEWAL_TEAM_AFFECT", 1);

  00c1e	6a 01		 push	 1
  00c20	68 00 00 00 00	 push	 OFFSET ??_C@_0BL@LDJNEEMG@ENABLE_RENEWAL_TEAM_AFFECT@
  00c25	57		 push	 edi
  00c26	ff d6		 call	 esi
  00c28	83 c4 0c	 add	 esp, 12			; 0000000cH

; 1858 : #else
; 1859 : 	PyModule_AddIntConstant(poModule, "ENABLE_RENEWAL_TEAM_AFFECT", 0);
; 1860 : #endif
; 1861 : 
; 1862 : #ifdef ENABLE_SKILL_COLOR_SYSTEM
; 1863 : 	PyModule_AddIntConstant(poModule, "ENABLE_SKILL_COLOR_SYSTEM", 1);

  00c2b	6a 01		 push	 1
  00c2d	68 00 00 00 00	 push	 OFFSET ??_C@_0BK@PELLEIIK@ENABLE_SKILL_COLOR_SYSTEM@
  00c32	57		 push	 edi
  00c33	ff d6		 call	 esi
  00c35	83 c4 0c	 add	 esp, 12			; 0000000cH

; 1864 : #ifdef ENABLE_5LAYER_SKILL_COLOR
; 1865 : 	PyModule_AddIntConstant(poModule, "ENABLE_5LAYER_SKILL_COLOR", 1);

  00c38	6a 01		 push	 1
  00c3a	68 00 00 00 00	 push	 OFFSET ??_C@_0BK@FIACKIGC@ENABLE_5LAYER_SKILL_COLOR@
  00c3f	57		 push	 edi
  00c40	ff d6		 call	 esi
  00c42	83 c4 0c	 add	 esp, 12			; 0000000cH

; 1866 : #else
; 1867 : 	PyModule_AddIntConstant(poModule, "ENABLE_5LAYER_SKILL_COLOR", 0);
; 1868 : #endif
; 1869 : #else
; 1870 : 	PyModule_AddIntConstant(poModule, "ENABLE_SKILL_COLOR_SYSTEM", 0);
; 1871 : #endif
; 1872 : 
; 1873 : #ifdef ENABLE_RENEWAL_PREMIUM_SYSTEM
; 1874 : 	PyModule_AddIntConstant(poModule, "ENABLE_RENEWAL_PREMIUM_SYSTEM", 1);

  00c45	6a 01		 push	 1
  00c47	68 00 00 00 00	 push	 OFFSET ??_C@_0BO@CMBODPKI@ENABLE_RENEWAL_PREMIUM_SYSTEM@
  00c4c	57		 push	 edi
  00c4d	ff d6		 call	 esi
  00c4f	83 c4 0c	 add	 esp, 12			; 0000000cH

; 1875 : #else
; 1876 : 	PyModule_AddIntConstant(poModule, "ENABLE_RENEWAL_PREMIUM_SYSTEM", 0);
; 1877 : #endif
; 1878 : 
; 1879 : #ifdef ENABLE_INGAME_WIKI_SYSTEM
; 1880 : 	PyModule_AddIntConstant(poModule, "ENABLE_INGAME_WIKI_SYSTEM", 1);

  00c52	6a 01		 push	 1
  00c54	68 00 00 00 00	 push	 OFFSET ??_C@_0BK@EJIGNKHE@ENABLE_INGAME_WIKI_SYSTEM@
  00c59	57		 push	 edi
  00c5a	ff d6		 call	 esi
  00c5c	83 c4 0c	 add	 esp, 12			; 0000000cH

; 1881 : #else
; 1882 : 	PyModule_AddIntConstant(poModule, "ENABLE_INGAME_WIKI_SYSTEM", 0);
; 1883 : #endif
; 1884 : 
; 1885 : #ifdef ENABLE_PICKUP_ITEM_EFFECT
; 1886 : 	PyModule_AddIntConstant(poModule, "ENABLE_PICKUP_ITEM_EFFECT", 1);

  00c5f	6a 01		 push	 1
  00c61	68 00 00 00 00	 push	 OFFSET ??_C@_0BK@GBCANIGE@ENABLE_PICKUP_ITEM_EFFECT@
  00c66	57		 push	 edi
  00c67	ff d6		 call	 esi
  00c69	83 c4 0c	 add	 esp, 12			; 0000000cH

; 1887 : #else
; 1888 : 	PyModule_AddIntConstant(poModule, "ENABLE_PICKUP_ITEM_EFFECT", 0);
; 1889 : #endif
; 1890 : 
; 1891 : #ifdef ENABLE_OFFLINESHOP_SEARCH_SYSTEM
; 1892 : 	PyModule_AddIntConstant(poModule, "ENABLE_OFFLINESHOP_SEARCH_SYSTEM", 1);

  00c6c	6a 01		 push	 1
  00c6e	68 00 00 00 00	 push	 OFFSET ??_C@_0CB@FNOMIOEN@ENABLE_OFFLINESHOP_SEARCH_SYSTE@
  00c73	57		 push	 edi
  00c74	ff d6		 call	 esi
  00c76	83 c4 0c	 add	 esp, 12			; 0000000cH

; 1893 : #else
; 1894 : 	PyModule_AddIntConstant(poModule, "ENABLE_OFFLINESHOP_SEARCH_SYSTEM", 0);
; 1895 : #endif
; 1896 : 
; 1897 : #ifdef ENABLE_RENEWAL_OX_EVENT
; 1898 : 	PyModule_AddIntConstant(poModule, "ENABLE_RENEWAL_OX_EVENT", 1);

  00c79	6a 01		 push	 1
  00c7b	68 00 00 00 00	 push	 OFFSET ??_C@_0BI@JBGAMODN@ENABLE_RENEWAL_OX_EVENT@
  00c80	57		 push	 edi
  00c81	ff d6		 call	 esi
  00c83	83 c4 0c	 add	 esp, 12			; 0000000cH

; 1899 : #else
; 1900 : 	PyModule_AddIntConstant(poModule, "ENABLE_RENEWAL_OX_EVENT", 0);
; 1901 : #endif
; 1902 : 
; 1903 : #ifdef ENABLE_RENEWAL_TEXT_SHADOW
; 1904 : 	PyModule_AddIntConstant(poModule, "ENABLE_RENEWAL_TEXT_SHADOW", 1);

  00c86	6a 01		 push	 1
  00c88	68 00 00 00 00	 push	 OFFSET ??_C@_0BL@IKKFOHIL@ENABLE_RENEWAL_TEXT_SHADOW@
  00c8d	57		 push	 edi
  00c8e	ff d6		 call	 esi
  00c90	83 c4 0c	 add	 esp, 12			; 0000000cH

; 1905 : #else
; 1906 : 	PyModule_AddIntConstant(poModule, "ENABLE_RENEWAL_TEXT_SHADOW", 0);
; 1907 : #endif
; 1908 : 
; 1909 : #ifdef ENABLE_FOV_OPTION
; 1910 : 	PyModule_AddIntConstant(poModule, "ENABLE_FOV_OPTION", 1);

  00c93	6a 01		 push	 1
  00c95	68 00 00 00 00	 push	 OFFSET ??_C@_0BC@OBOHBNHD@ENABLE_FOV_OPTION@
  00c9a	57		 push	 edi
  00c9b	ff d6		 call	 esi
  00c9d	83 c4 0c	 add	 esp, 12			; 0000000cH

; 1911 : 	PyModule_AddIntConstant(poModule, "DEFAULT_CAMERA_PERSPECTIVE", c_fDefaultCameraPerspective);

  00ca0	6a 1e		 push	 30			; 0000001eH
  00ca2	68 00 00 00 00	 push	 OFFSET ??_C@_0BL@PBGDFCNK@DEFAULT_CAMERA_PERSPECTIVE@
  00ca7	57		 push	 edi
  00ca8	ff d6		 call	 esi
  00caa	83 c4 0c	 add	 esp, 12			; 0000000cH

; 1912 : 	PyModule_AddIntConstant(poModule, "MIN_CAMERA_PERSPECTIVE", c_fMinCameraPerspective);

  00cad	6a 0a		 push	 10			; 0000000aH
  00caf	68 00 00 00 00	 push	 OFFSET ??_C@_0BH@OEJHPDJH@MIN_CAMERA_PERSPECTIVE@
  00cb4	57		 push	 edi
  00cb5	ff d6		 call	 esi
  00cb7	83 c4 0c	 add	 esp, 12			; 0000000cH

; 1913 : 	PyModule_AddIntConstant(poModule, "MAX_CAMERA_PERSPECTIVE", c_fMaxCameraPerspective);

  00cba	6a 64		 push	 100			; 00000064H
  00cbc	68 00 00 00 00	 push	 OFFSET ??_C@_0BH@OAANMCLN@MAX_CAMERA_PERSPECTIVE@
  00cc1	57		 push	 edi
  00cc2	ff d6		 call	 esi
  00cc4	83 c4 0c	 add	 esp, 12			; 0000000cH

; 1914 : #else
; 1915 : 	PyModule_AddIntConstant(poModule, "ENABLE_FOV_OPTION", 0);
; 1916 : #endif
; 1917 : 
; 1918 : #ifdef ENABLE_AUTOMATIC_PICK_UP_SYSTEM
; 1919 : 	PyModule_AddIntConstant(poModule, "ENABLE_AUTOMATIC_PICK_UP_SYSTEM", 1);

  00cc7	6a 01		 push	 1
  00cc9	68 00 00 00 00	 push	 OFFSET ??_C@_0CA@KGMEEFIE@ENABLE_AUTOMATIC_PICK_UP_SYSTEM@
  00cce	57		 push	 edi
  00ccf	ff d6		 call	 esi
  00cd1	83 c4 0c	 add	 esp, 12			; 0000000cH

; 1920 : #else
; 1921 : 	PyModule_AddIntConstant(poModule, "ENABLE_AUTOMATIC_PICK_UP_SYSTEM", 0);
; 1922 : #endif
; 1923 : 
; 1924 : #ifdef ENABLE_MAINTENANCE_SYSTEM
; 1925 : 	PyModule_AddIntConstant(poModule, "ENABLE_MAINTENANCE_SYSTEM", 1);

  00cd4	6a 01		 push	 1
  00cd6	68 00 00 00 00	 push	 OFFSET ??_C@_0BK@PNCDPFFC@ENABLE_MAINTENANCE_SYSTEM@
  00cdb	57		 push	 edi
  00cdc	ff d6		 call	 esi
  00cde	83 c4 0c	 add	 esp, 12			; 0000000cH

; 1926 : #else
; 1927 : 	PyModule_AddIntConstant(poModule, "ENABLE_MAINTENANCE_SYSTEM", 0);
; 1928 : #endif
; 1929 : 
; 1930 : #ifdef ENABLE_STONE_SCALE_OPTION
; 1931 : 	PyModule_AddIntConstant(poModule, "ENABLE_STONE_SCALE_OPTION", 1);

  00ce1	6a 01		 push	 1
  00ce3	68 00 00 00 00	 push	 OFFSET ??_C@_0BK@JCBGCFCM@ENABLE_STONE_SCALE_OPTION@
  00ce8	57		 push	 edi
  00ce9	ff d6		 call	 esi
  00ceb	83 c4 0c	 add	 esp, 12			; 0000000cH

; 1932 : #else
; 1933 : 	PyModule_AddIntConstant(poModule, "ENABLE_STONE_SCALE_OPTION", 0);
; 1934 : #endif
; 1935 : 
; 1936 : #ifdef ENABLE_RENEWAL_SKILL_SELECT
; 1937 : 	PyModule_AddIntConstant(poModule, "ENABLE_RENEWAL_SKILL_SELECT", 1);

  00cee	6a 01		 push	 1
  00cf0	68 00 00 00 00	 push	 OFFSET ??_C@_0BM@BDDMCJJO@ENABLE_RENEWAL_SKILL_SELECT@
  00cf5	57		 push	 edi
  00cf6	ff d6		 call	 esi
  00cf8	83 c4 0c	 add	 esp, 12			; 0000000cH

; 1938 : #else
; 1939 : 	PyModule_AddIntConstant(poModule, "ENABLE_RENEWAL_SKILL_SELECT", 0);
; 1940 : #endif
; 1941 : 
; 1942 : #ifdef ENABLE_MULTI_TEXTLINE
; 1943 : 	PyModule_AddIntConstant(poModule, "ENABLE_MULTI_TEXTLINE", 1);

  00cfb	6a 01		 push	 1
  00cfd	68 00 00 00 00	 push	 OFFSET ??_C@_0BG@PMMNBCCG@ENABLE_MULTI_TEXTLINE@
  00d02	57		 push	 edi
  00d03	ff d6		 call	 esi
  00d05	83 c4 0c	 add	 esp, 12			; 0000000cH

; 1944 : #else
; 1945 : 	PyModule_AddIntConstant(poModule, "ENABLE_MULTI_TEXTLINE", 0);
; 1946 : #endif
; 1947 : 
; 1948 : #ifdef ENABLE_BONUS_COSTUME_SYSTEM
; 1949 : 	PyModule_AddIntConstant(poModule, "ENABLE_BONUS_COSTUME_SYSTEM", 1);

  00d08	6a 01		 push	 1
  00d0a	68 00 00 00 00	 push	 OFFSET ??_C@_0BM@NOHEAJFI@ENABLE_BONUS_COSTUME_SYSTEM@
  00d0f	57		 push	 edi
  00d10	ff d6		 call	 esi
  00d12	83 c4 0c	 add	 esp, 12			; 0000000cH

; 1950 : #else
; 1951 : 	PyModule_AddIntConstant(poModule, "ENABLE_BONUS_COSTUME_SYSTEM", 0);
; 1952 : #endif
; 1953 : 
; 1954 : #ifdef ENABLE_NEW_DUNGEON_LIB
; 1955 : 	PyModule_AddIntConstant(poModule, "ENABLE_NEW_DUNGEON_LIB", 1);

  00d15	6a 01		 push	 1
  00d17	68 00 00 00 00	 push	 OFFSET ??_C@_0BH@FCDBIIDC@ENABLE_NEW_DUNGEON_LIB@
  00d1c	57		 push	 edi
  00d1d	ff d6		 call	 esi
  00d1f	83 c4 0c	 add	 esp, 12			; 0000000cH

; 1956 : #else
; 1957 : 	PyModule_AddIntConstant(poModule, "ENABLE_NEW_DUNGEON_LIB", 0);
; 1958 : #endif
; 1959 : 
; 1960 : #ifdef ENABLE_RENEWAL_INGAME_ITEMSHOP
; 1961 : 	PyModule_AddIntConstant(poModule, "ENABLE_RENEWAL_INGAME_ITEMSHOP", 1);

  00d22	6a 01		 push	 1
  00d24	68 00 00 00 00	 push	 OFFSET ??_C@_0BP@KCFNMKHN@ENABLE_RENEWAL_INGAME_ITEMSHOP@
  00d29	57		 push	 edi
  00d2a	ff d6		 call	 esi
  00d2c	83 c4 0c	 add	 esp, 12			; 0000000cH

; 1962 : #else
; 1963 : 	PyModule_AddIntConstant(poModule, "ENABLE_RENEWAL_INGAME_ITEMSHOP", 0);
; 1964 : #endif
; 1965 : 
; 1966 : #ifdef ENABLE_SLOT_MARKING_SYSTEM
; 1967 : 	PyModule_AddIntConstant(poModule, "ENABLE_SLOT_MARKING_SYSTEM", 1);

  00d2f	6a 01		 push	 1
  00d31	68 00 00 00 00	 push	 OFFSET ??_C@_0BL@HMHGNBFO@ENABLE_SLOT_MARKING_SYSTEM@
  00d36	57		 push	 edi
  00d37	ff d6		 call	 esi
  00d39	83 c4 0c	 add	 esp, 12			; 0000000cH

; 1968 : #else
; 1969 : 	PyModule_AddIntConstant(poModule, "ENABLE_SLOT_MARKING_SYSTEM", 0);
; 1970 : #endif
; 1971 : 
; 1972 : #ifdef ENABLE_AURA_COSTUME_SYSTEM
; 1973 : 	PyModule_AddIntConstant(poModule, "ENABLE_AURA_COSTUME_SYSTEM", 1);

  00d3c	6a 01		 push	 1
  00d3e	68 00 00 00 00	 push	 OFFSET ??_C@_0BL@EBFHGPFG@ENABLE_AURA_COSTUME_SYSTEM@
  00d43	57		 push	 edi
  00d44	ff d6		 call	 esi
  00d46	83 c4 0c	 add	 esp, 12			; 0000000cH

; 1974 : #else
; 1975 : 	PyModule_AddIntConstant(poModule, "ENABLE_AURA_COSTUME_SYSTEM", 0);
; 1976 : #endif
; 1977 : 
; 1978 : #ifdef ENABLE_EMOTICONS_SYSTEM
; 1979 : 	PyModule_AddIntConstant (poModule, "ENABLE_EMOTICONS_SYSTEM", 1);

  00d49	6a 01		 push	 1
  00d4b	68 00 00 00 00	 push	 OFFSET ??_C@_0BI@CADHODAP@ENABLE_EMOTICONS_SYSTEM@
  00d50	57		 push	 edi
  00d51	ff d6		 call	 esi
  00d53	83 c4 0c	 add	 esp, 12			; 0000000cH

; 1980 : #else
; 1981 : 	PyModule_AddIntConstant (poModule, "ENABLE_EMOTICONS_SYSTEM", 0);
; 1982 : #endif
; 1983 : 
; 1984 : #ifdef ENABLE_FISH_GAME
; 1985 : 	PyModule_AddIntConstant(poModule, "ENABLE_FISH_GAME", 1);

  00d56	6a 01		 push	 1
  00d58	68 00 00 00 00	 push	 OFFSET ??_C@_0BB@KKFFHMIA@ENABLE_FISH_GAME@
  00d5d	57		 push	 edi
  00d5e	ff d6		 call	 esi
  00d60	83 c4 0c	 add	 esp, 12			; 0000000cH

; 1986 : #else
; 1987 : 	PyModule_AddIntConstant(poModule, "ENABLE_FISH_GAME", 0);
; 1988 : #endif
; 1989 : 
; 1990 : #ifdef ENABLE_GROWTH_PET_SYSTEM
; 1991 : 	PyModule_AddIntConstant(poModule, "ENABLE_GROWTH_PET_SYSTEM", 1);

  00d63	6a 01		 push	 1
  00d65	68 00 00 00 00	 push	 OFFSET ??_C@_0BJ@HIBMPKIK@ENABLE_GROWTH_PET_SYSTEM@
  00d6a	57		 push	 edi
  00d6b	ff d6		 call	 esi
  00d6d	83 c4 0c	 add	 esp, 12			; 0000000cH

; 1992 : #else
; 1993 : 	PyModule_AddIntConstant(poModule, "ENABLE_GROWTH_PET_SYSTEM", 0);
; 1994 : #endif
; 1995 : 
; 1996 : #ifdef ENABLE_INVENTORY_EXPANSION_SYSTEM
; 1997 : 	PyModule_AddIntConstant(poModule, "ENABLE_INVENTORY_EXPANSION_SYSTEM", 1);

  00d70	6a 01		 push	 1
  00d72	68 00 00 00 00	 push	 OFFSET ??_C@_0CC@LOLPDHEJ@ENABLE_INVENTORY_EXPANSION_SYST@
  00d77	57		 push	 edi
  00d78	ff d6		 call	 esi
  00d7a	83 c4 0c	 add	 esp, 12			; 0000000cH

; 1998 : #else
; 1999 : 	PyModule_AddIntConstant(poModule, "ENABLE_INVENTORY_EXPANSION_SYSTEM", 0);
; 2000 : #endif
; 2001 : 
; 2002 : #ifdef ENABLE_SHIP_DEFENCE_DUNGEON
; 2003 : 	PyModule_AddIntConstant(poModule, "ENABLE_SHIP_DEFENCE_DUNGEON", 1);

  00d7d	6a 01		 push	 1
  00d7f	68 00 00 00 00	 push	 OFFSET ??_C@_0BM@HJJIIFBF@ENABLE_SHIP_DEFENCE_DUNGEON@
  00d84	57		 push	 edi
  00d85	ff d6		 call	 esi
  00d87	83 c4 0c	 add	 esp, 12			; 0000000cH

; 2004 : #else
; 2005 : 	PyModule_AddIntConstant(poModule, "ENABLE_SHIP_DEFENCE_DUNGEON", 0);
; 2006 : #endif
; 2007 : 
; 2008 : #ifdef ENABLE_RENEWAL_TELEPORT_SYSTEM
; 2009 : 	PyModule_AddIntConstant(poModule, "ENABLE_RENEWAL_TELEPORT_SYSTEM", 1);

  00d8a	6a 01		 push	 1
  00d8c	68 00 00 00 00	 push	 OFFSET ??_C@_0BP@ONDLCPPN@ENABLE_RENEWAL_TELEPORT_SYSTEM@
  00d91	57		 push	 edi
  00d92	ff d6		 call	 esi
  00d94	83 c4 0c	 add	 esp, 12			; 0000000cH

; 2010 : #else
; 2011 : 	PyModule_AddIntConstant(poModule, "ENABLE_RENEWAL_TELEPORT_SYSTEM", 0);
; 2012 : #endif
; 2013 : 
; 2014 : #ifdef ENABLE_DUNGEON_TRACKING_SYSTEM
; 2015 : 	PyModule_AddIntConstant(poModule, "ENABLE_DUNGEON_TRACKING_SYSTEM", 1);

  00d97	6a 01		 push	 1
  00d99	68 00 00 00 00	 push	 OFFSET ??_C@_0BP@IJOGIGKN@ENABLE_DUNGEON_TRACKING_SYSTEM@
  00d9e	57		 push	 edi
  00d9f	ff d6		 call	 esi
  00da1	83 c4 0c	 add	 esp, 12			; 0000000cH

; 2016 : #else
; 2017 : 	PyModule_AddIntConstant(poModule, "ENABLE_DUNGEON_TRACKING_SYSTEM", 0);
; 2018 : #endif
; 2019 : 
; 2020 : #ifdef ENABLE_RENEWAL_REGEN
; 2021 : 	PyModule_AddIntConstant(poModule, "ENABLE_RENEWAL_REGEN", 1);

  00da4	6a 01		 push	 1
  00da6	68 00 00 00 00	 push	 OFFSET ??_C@_0BF@GGNLGGAH@ENABLE_RENEWAL_REGEN@
  00dab	57		 push	 edi
  00dac	ff d6		 call	 esi
  00dae	83 c4 0c	 add	 esp, 12			; 0000000cH

; 2022 : #else
; 2023 : 	PyModule_AddIntConstant(poModule, "ENABLE_RENEWAL_REGEN", 0);
; 2024 : #endif
; 2025 : 
; 2026 : #ifdef ENABLE_CHANGE_LOOK_SYSTEM
; 2027 : 	PyModule_AddIntConstant(poModule, "ENABLE_CHANGE_LOOK_SYSTEM", 1);

  00db1	6a 01		 push	 1
  00db3	68 00 00 00 00	 push	 OFFSET ??_C@_0BK@MGBMNLOM@ENABLE_CHANGE_LOOK_SYSTEM@
  00db8	57		 push	 edi
  00db9	ff d6		 call	 esi
  00dbb	83 c4 0c	 add	 esp, 12			; 0000000cH

; 2028 : #else
; 2029 : 	PyModule_AddIntConstant(poModule, "ENABLE_CHANGE_LOOK_SYSTEM", 0);
; 2030 : #endif
; 2031 : 
; 2032 : #ifdef ENABLE_HUNTING_SYSTEM
; 2033 : 	PyModule_AddIntConstant(poModule, "ENABLE_HUNTING_SYSTEM", 1);

  00dbe	6a 01		 push	 1
  00dc0	68 00 00 00 00	 push	 OFFSET ??_C@_0BG@CFJKANLL@ENABLE_HUNTING_SYSTEM@
  00dc5	57		 push	 edi
  00dc6	ff d6		 call	 esi
  00dc8	83 c4 0c	 add	 esp, 12			; 0000000cH

; 2034 : #else
; 2035 : 	PyModule_AddIntConstant(poModule, "ENABLE_HUNTING_SYSTEM", 0);
; 2036 : #endif
; 2037 : 
; 2038 : #ifdef ENABLE_CLIP_MASKING
; 2039 : 	PyModule_AddIntConstant(poModule, "ENABLE_CLIP_MASKING", 1);

  00dcb	6a 01		 push	 1
  00dcd	68 00 00 00 00	 push	 OFFSET ??_C@_0BE@LABOLOAG@ENABLE_CLIP_MASKING@
  00dd2	57		 push	 edi
  00dd3	ff d6		 call	 esi
  00dd5	83 c4 0c	 add	 esp, 12			; 0000000cH

; 2040 : #else
; 2041 : 	PyModule_AddIntConstant(poModule, "ENABLE_CLIP_MASKING", 0);
; 2042 : #endif
; 2043 : 
; 2044 : #ifdef ENABLE_STANDING_MOUNT
; 2045 : 	PyModule_AddIntConstant(poModule, "ENABLE_STANDING_MOUNT", 1);

  00dd8	6a 01		 push	 1
  00dda	68 00 00 00 00	 push	 OFFSET ??_C@_0BG@BMPHLOIJ@ENABLE_STANDING_MOUNT@
  00ddf	57		 push	 edi
  00de0	ff d6		 call	 esi
  00de2	83 c4 0c	 add	 esp, 12			; 0000000cH

; 2046 : #else
; 2047 : 	PyModule_AddIntConstant(poModule, "ENABLE_STANDING_MOUNT", 0);
; 2048 : #endif
; 2049 : 
; 2050 : #ifdef WJ_SHOW_NPC_QUEST_NAME
; 2051 : 	PyModule_AddIntConstant(poModule, "WJ_SHOW_NPC_QUEST_NAME", 1);

  00de5	6a 01		 push	 1
  00de7	68 00 00 00 00	 push	 OFFSET ??_C@_0BH@PDAGOKPA@WJ_SHOW_NPC_QUEST_NAME@
  00dec	57		 push	 edi
  00ded	ff d6		 call	 esi
  00def	83 c4 0c	 add	 esp, 12			; 0000000cH

; 2052 : #else
; 2053 : 	PyModule_AddIntConstant(poModule, "WJ_SHOW_NPC_QUEST_NAME", 0);
; 2054 : #endif
; 2055 : 
; 2056 : #ifdef ENABLE_ATLAS_SCALE
; 2057 : 	PyModule_AddIntConstant(poModule, "ENABLE_ATLAS_SCALE", 1);

  00df2	6a 01		 push	 1
  00df4	68 00 00 00 00	 push	 OFFSET ??_C@_0BD@IAJAIBNA@ENABLE_ATLAS_SCALE@
  00df9	57		 push	 edi
  00dfa	ff d6		 call	 esi
  00dfc	83 c4 0c	 add	 esp, 12			; 0000000cH

; 2058 : #else
; 2059 : 	PyModule_AddIntConstant(poModule, "ENABLE_ATLAS_SCALE", 0);
; 2060 : #endif
; 2061 : 
; 2062 : #ifdef ENABLE_RIDING_EXTENDED
; 2063 : 	PyModule_AddIntConstant(poModule, "ENABLE_RIDING_EXTENDED", 1);

  00dff	6a 01		 push	 1
  00e01	68 00 00 00 00	 push	 OFFSET ??_C@_0BH@INBDCPDJ@ENABLE_RIDING_EXTENDED@
  00e06	57		 push	 edi
  00e07	ff d6		 call	 esi
  00e09	83 c4 0c	 add	 esp, 12			; 0000000cH

; 2064 : #else
; 2065 : 	PyModule_AddIntConstant(poModule, "ENABLE_RIDING_EXTENDED", 0);
; 2066 : #endif
; 2067 : 
; 2068 : #ifdef ENABLE_SKILL_BOOK_READING
; 2069 : 	PyModule_AddIntConstant(poModule, "ENABLE_SKILL_BOOK_READING",	1);

  00e0c	6a 01		 push	 1
  00e0e	68 00 00 00 00	 push	 OFFSET ??_C@_0BK@LOOMEPEL@ENABLE_SKILL_BOOK_READING@
  00e13	57		 push	 edi
  00e14	ff d6		 call	 esi
  00e16	83 c4 0c	 add	 esp, 12			; 0000000cH

; 2070 : #else
; 2071 : 	PyModule_AddIntConstant(poModule, "ENABLE_SKILL_BOOK_READING",	0);
; 2072 : #endif
; 2073 : 
; 2074 : #ifdef ENABLE_SPIRIT_STONE_READING
; 2075 : 	PyModule_AddIntConstant(poModule, "ENABLE_SPIRIT_STONE_READING",	1);

  00e19	6a 01		 push	 1
  00e1b	68 00 00 00 00	 push	 OFFSET ??_C@_0BM@FOOFEPCE@ENABLE_SPIRIT_STONE_READING@
  00e20	57		 push	 edi
  00e21	ff d6		 call	 esi
  00e23	83 c4 0c	 add	 esp, 12			; 0000000cH

; 2076 : #else
; 2077 : 	PyModule_AddIntConstant(poModule, "ENABLE_SPIRIT_STONE_READING",	0);
; 2078 : #endif
; 2079 : 
; 2080 : #ifdef __AUTO_HUNT__
; 2081 : 	PyModule_AddIntConstant(poModule, "__AUTO_HUNT__", 1);

  00e26	6a 01		 push	 1
  00e28	68 00 00 00 00	 push	 OFFSET ??_C@_0O@DMBEGOPB@__AUTO_HUNT__@
  00e2d	57		 push	 edi
  00e2e	ff d6		 call	 esi
  00e30	83 c4 0c	 add	 esp, 12			; 0000000cH

; 2082 : #else
; 2083 : 	PyModule_AddIntConstant(poModule, "__AUTO_HUNT__", 0);
; 2084 : #endif
; 2085 : 
; 2086 : #ifdef ENABLE_AUTO_SELL_SYSTEM
; 2087 : 	PyModule_AddIntConstant(poModule, "ENABLE_AUTO_SELL_SYSTEM", 1);

  00e33	6a 01		 push	 1
  00e35	68 00 00 00 00	 push	 OFFSET ??_C@_0BI@PIMOMKMD@ENABLE_AUTO_SELL_SYSTEM@
  00e3a	57		 push	 edi
  00e3b	ff d6		 call	 esi
  00e3d	83 c4 0c	 add	 esp, 12			; 0000000cH

; 2088 : #else
; 2089 : 	PyModule_AddIntConstant(poModule, "ENABLE_AUTO_SELL_SYSTEM", 0);
; 2090 : #endif
; 2091 : 
; 2092 : #ifdef ENABLE_GUILDRENEWAL_SYSTEM
; 2093 : 	PyModule_AddIntConstant(poModule, "ENABLE_GUILDRENEWAL_SYSTEM", 1);

  00e40	6a 01		 push	 1
  00e42	68 00 00 00 00	 push	 OFFSET ??_C@_0BL@BNIJHNNL@ENABLE_GUILDRENEWAL_SYSTEM@
  00e47	57		 push	 edi
  00e48	ff d6		 call	 esi
  00e4a	83 c4 0c	 add	 esp, 12			; 0000000cH

; 2094 : 	#ifdef ENABLE_SECOND_GUILDRENEWAL_SYSTEM
; 2095 : 	PyModule_AddIntConstant(poModule, "ENABLE_SECOND_GUILDRENEWAL_SYSTEM", 1);

  00e4d	6a 01		 push	 1
  00e4f	68 00 00 00 00	 push	 OFFSET ??_C@_0CC@CHCIKPC@ENABLE_SECOND_GUILDRENEWAL_SYST@
  00e54	57		 push	 edi
  00e55	ff d6		 call	 esi
  00e57	83 c4 0c	 add	 esp, 12			; 0000000cH

; 2096 : 	#else
; 2097 : 	PyModule_AddIntConstant(poModule, "ENABLE_SECOND_GUILDRENEWAL_SYSTEM", 0);
; 2098 : 	#endif
; 2099 : 
; 2100 : 	#ifdef ENABLE_GUILD_MARK_RENEWAL
; 2101 : 		PyModule_AddIntConstant(poModule, "ENABLE_GUILD_MARK_RENEWAL", 1);

  00e5a	6a 01		 push	 1
  00e5c	68 00 00 00 00	 push	 OFFSET ??_C@_0BK@IDLKFBGN@ENABLE_GUILD_MARK_RENEWAL@
  00e61	57		 push	 edi
  00e62	ff d6		 call	 esi
  00e64	83 c4 0c	 add	 esp, 12			; 0000000cH

; 2102 : 	#else
; 2103 : 		PyModule_AddIntConstant(poModule, "ENABLE_GUILD_MARK_RENEWAL", 0);
; 2104 : 	#endif
; 2105 : 
; 2106 : 	#ifdef ENABLE_EXTENDED_GUILD_LEVEL
; 2107 : 	PyModule_AddIntConstant(poModule, "ENABLE_EXTENDED_GUILD_LEVEL", 1);

  00e67	6a 01		 push	 1
  00e69	68 00 00 00 00	 push	 OFFSET ??_C@_0BM@IPJIOBJM@ENABLE_EXTENDED_GUILD_LEVEL@
  00e6e	57		 push	 edi
  00e6f	ff d6		 call	 esi
  00e71	83 c4 0c	 add	 esp, 12			; 0000000cH

; 2108 : 	#else
; 2109 : 	PyModule_AddIntConstant(poModule, "ENABLE_EXTENDED_GUILD_LEVEL", 0);
; 2110 : 	#endif
; 2111 : 
; 2112 : 	#ifdef ENABLE_MEDAL_OF_HONOR
; 2113 : 	PyModule_AddIntConstant(poModule, "ENABLE_MEDAL_OF_HONOR", 1);
; 2114 : 	#else
; 2115 : 	PyModule_AddIntConstant(poModule, "ENABLE_MEDAL_OF_HONOR", 0);

  00e74	6a 00		 push	 0
  00e76	68 00 00 00 00	 push	 OFFSET ??_C@_0BG@OKAPEAGA@ENABLE_MEDAL_OF_HONOR@
  00e7b	57		 push	 edi
  00e7c	ff d6		 call	 esi
  00e7e	83 c4 0c	 add	 esp, 12			; 0000000cH

; 2116 : 	#endif
; 2117 : 	#ifdef ENABLE_GUILD_DONATE_ATTENDANCE
; 2118 : 	PyModule_AddIntConstant(poModule, "ENABLE_GUILD_DONATE_ATTENDANCE", 1);

  00e81	6a 01		 push	 1
  00e83	68 00 00 00 00	 push	 OFFSET ??_C@_0BP@DBLFCGOO@ENABLE_GUILD_DONATE_ATTENDANCE@
  00e88	57		 push	 edi
  00e89	ff d6		 call	 esi
  00e8b	83 c4 0c	 add	 esp, 12			; 0000000cH

; 2119 : 	#else
; 2120 : 	PyModule_AddIntConstant(poModule, "ENABLE_GUILD_DONATE_ATTENDANCE", 0);
; 2121 : 	#endif
; 2122 : 
; 2123 : 	#ifdef ENABLE_GUILD_WAR_SCORE
; 2124 : 	PyModule_AddIntConstant(poModule, "ENABLE_GUILD_WAR_SCORE", 1);

  00e8e	6a 01		 push	 1
  00e90	68 00 00 00 00	 push	 OFFSET ??_C@_0BH@GDLNILPF@ENABLE_GUILD_WAR_SCORE@
  00e95	57		 push	 edi
  00e96	ff d6		 call	 esi
  00e98	83 c4 0c	 add	 esp, 12			; 0000000cH

; 2125 : 	#else
; 2126 : 	PyModule_AddIntConstant(poModule, "ENABLE_GUILD_WAR_SCORE", 0);
; 2127 : 	#endif
; 2128 : 	#ifdef ENABLE_GUILD_LAND_INFO
; 2129 : 	PyModule_AddIntConstant(poModule, "ENABLE_GUILD_LAND_INFO", 1);

  00e9b	6a 01		 push	 1
  00e9d	68 00 00 00 00	 push	 OFFSET ??_C@_0BH@JGDAEBCD@ENABLE_GUILD_LAND_INFO@
  00ea2	57		 push	 edi
  00ea3	ff d6		 call	 esi
  00ea5	83 c4 0c	 add	 esp, 12			; 0000000cH

; 2130 : 	#else
; 2131 : 	PyModule_AddIntConstant(poModule, "ENABLE_GUILD_LAND_INFO", 0);
; 2132 : 	#endif
; 2133 : 	#ifdef ENABLE_GUILDBANK_LOG
; 2134 : 	PyModule_AddIntConstant(poModule, "ENABLE_GUILDBANK_LOG", 1);

  00ea8	6a 01		 push	 1
  00eaa	68 00 00 00 00	 push	 OFFSET ??_C@_0BF@JFHNKELN@ENABLE_GUILDBANK_LOG@
  00eaf	57		 push	 edi
  00eb0	ff d6		 call	 esi
  00eb2	83 c4 0c	 add	 esp, 12			; 0000000cH

; 2135 : 	#else
; 2136 : 	PyModule_AddIntConstant(poModule, "ENABLE_GUILDBANK_LOG", 0);
; 2137 : 	#endif
; 2138 : 
; 2139 : 	#ifdef ENABLE_NEW_WORLD_GUILDRENEWAL
; 2140 : 	PyModule_AddIntConstant(poModule, "ENABLE_NEW_WORLD_GUILDRENEWAL", 1);

  00eb5	6a 01		 push	 1
  00eb7	68 00 00 00 00	 push	 OFFSET ??_C@_0BO@ONEKFDFA@ENABLE_NEW_WORLD_GUILDRENEWAL@
  00ebc	57		 push	 edi
  00ebd	ff d6		 call	 esi
  00ebf	83 c4 0c	 add	 esp, 12			; 0000000cH

; 2141 : 	#else
; 2142 : 	PyModule_AddIntConstant(poModule, "ENABLE_NEW_WORLD_GUILDRENEWAL", 0);
; 2143 : 	#endif
; 2144 : 
; 2145 : 	#ifdef ENABLE_GUILD_REQUEST
; 2146 : 	PyModule_AddIntConstant(poModule, "ENABLE_GUILD_REQUEST", 1);
; 2147 : 	#else
; 2148 : 	PyModule_AddIntConstant(poModule, "ENABLE_GUILD_REQUEST", 0);

  00ec2	6a 00		 push	 0
  00ec4	68 00 00 00 00	 push	 OFFSET ??_C@_0BF@NJOHAOPJ@ENABLE_GUILD_REQUEST@
  00ec9	57		 push	 edi
  00eca	ff d6		 call	 esi
  00ecc	83 c4 0c	 add	 esp, 12			; 0000000cH

; 2149 : 	#endif
; 2150 : #else
; 2151 : 	PyModule_AddIntConstant(poModule, "ENABLE_GUILDRENEWAL_SYSTEM", 0);
; 2152 : 	#ifndef ENABLE_SECOND_GUILDRENEWAL_SYSTEM
; 2153 : 	PyModule_AddIntConstant(poModule, "ENABLE_SECOND_GUILDRENEWAL_SYSTEM", 0);
; 2154 : 	#endif
; 2155 : 
; 2156 : 	#ifndef ENABLE_EXTENDED_GUILD_LEVEL
; 2157 : 	PyModule_AddIntConstant(poModule, "ENABLE_EXTENDED_GUILD_LEVEL", 0);
; 2158 : 	#endif
; 2159 : 
; 2160 : 	#ifndef ENABLE_MEDAL_OF_HONOR
; 2161 : 	PyModule_AddIntConstant(poModule, "ENABLE_MEDAL_OF_HONOR", 0);
; 2162 : 	#endif
; 2163 : 	#ifndef ENABLE_GUILD_DONATE_ATTENDANCE
; 2164 : 	PyModule_AddIntConstant(poModule, "ENABLE_GUILD_DONATE_ATTENDANCE", 0);
; 2165 : 	#endif
; 2166 : 
; 2167 : 	#ifndef ENABLE_GUILD_WAR_SCORE
; 2168 : 	PyModule_AddIntConstant(poModule, "ENABLE_GUILD_WAR_SCORE", 0);
; 2169 : 	#endif
; 2170 : 	#ifndef ENABLE_GUILD_LAND_INFO
; 2171 : 	PyModule_AddIntConstant(poModule, "ENABLE_GUILD_LAND_INFO", 0);
; 2172 : 	#endif
; 2173 : 	#ifndef ENABLE_GUILDBANK_LOG
; 2174 : 	PyModule_AddIntConstant(poModule, "ENABLE_GUILDBANK_LOG", 0);
; 2175 : 	#endif
; 2176 : 
; 2177 : 	#ifndef ENABLE_NEW_WORLD_GUILDRENEWAL
; 2178 : 	PyModule_AddIntConstant(poModule, "ENABLE_NEW_WORLD_GUILDRENEWAL", 0);
; 2179 : 	#endif
; 2180 : 
; 2181 : 	#ifndef ENABLE_GUILD_REQUEST
; 2182 : 	PyModule_AddIntConstant(poModule, "ENABLE_GUILD_REQUEST", 0);
; 2183 : 	#endif
; 2184 : 
; 2185 : 	#ifdef ENABLE_GUILDSTORAGE_SYSTEM
; 2186 : 		PyModule_AddIntConstant(poModule, "ENABLE_GUILDSTORAGE_SYSTEM", 1);
; 2187 : 	#else
; 2188 : 		PyModule_AddIntConstant(poModule, "ENABLE_GUILDSTORAGE_SYSTEM", 0);
; 2189 : 	#endif
; 2190 : #endif
; 2191 : 
; 2192 : #ifdef ENABLE_STYLE_ATTRIBUTE_SYSTEM
; 2193 : 	PyModule_AddIntConstant(poModule, "ENABLE_STYLE_ATTRIBUTE_SYSTEM", 1);

  00ecf	6a 01		 push	 1
  00ed1	68 00 00 00 00	 push	 OFFSET ??_C@_0BO@FJLEKFLL@ENABLE_STYLE_ATTRIBUTE_SYSTEM@
  00ed6	57		 push	 edi
  00ed7	ff d6		 call	 esi

; 2194 : #else
; 2195 : 	PyModule_AddIntConstant(poModule, "ENABLE_STYLE_ATTRIBUTE_SYSTEM", 0);
; 2196 : #endif
; 2197 : }

  00ed9	8b 4d fc	 mov	 ecx, DWORD PTR __$ArrayPad$[ebp]
  00edc	83 c4 0c	 add	 esp, 12			; 0000000cH
  00edf	33 cd		 xor	 ecx, ebp
  00ee1	5f		 pop	 edi
  00ee2	5e		 pop	 esi
  00ee3	e8 00 00 00 00	 call	 @__security_check_cookie@4
  00ee8	8b e5		 mov	 esp, ebp
  00eea	5d		 pop	 ebp
  00eeb	c3		 ret	 0
?initapp@@YAXXZ ENDP					; initapp
_TEXT	ENDS
END
