; Listing generated by Microsoft (R) Optimizing Compiler Version 19.44.35219.0 

	TITLE	c:\anka2project\anka2project\source\binary\vs_files\userinterface\release\pythonitemmodule.obj
	.686P
	.XMM
	include listing.inc
	.model	flat

INCLUDELIB OLDNAMES

PUBLIC	??_C@_0BG@LNOAJHHG@no?5selected?5item?5data@	; `string'
PUBLIC	??_C@_0BJ@FJOAFFCG@Not?5yet?5select?5item?5data@ ; `string'
PUBLIC	??_C@_0BM@MLEHJLDK@Cannot?5get?5icon?5image?5by?5?$CFd@ ; `string'
PUBLIC	??_C@_0BM@KPLEGEEH@Can?8t?5find?5select?5item?5data@ ; `string'
PUBLIC	??_C@_0BC@GFOFMOEA@No?5item?5selected?$CB@	; `string'
PUBLIC	??_C@_0BE@HKKEFMIC@SetUseSoundFileName@		; `string'
PUBLIC	??_C@_0BF@BODGENI@SetDropSoundFileName@		; `string'
PUBLIC	??_C@_0L@GFKKOOBA@SelectItem@			; `string'
PUBLIC	??_C@_0M@BFODJMFI@GetItemName@			; `string'
PUBLIC	??_C@_0BD@GLEOJONA@GetItemDescription@		; `string'
PUBLIC	??_C@_0P@OIBFDAMI@GetItemSummary@		; `string'
PUBLIC	??_C@_0N@IEABDKDK@GetIconImage@			; `string'
PUBLIC	??_C@_0BF@NNPLLIOE@GetIconImageFileName@	; `string'
PUBLIC	??_C@_0M@FBEOFCHB@GetItemSize@			; `string'
PUBLIC	??_C@_0M@LOOAFMCI@GetItemType@			; `string'
PUBLIC	??_C@_0P@MFCMKOKJ@GetItemSubType@		; `string'
PUBLIC	??_C@_0BB@KJGHJKGD@GetIBuyItemPrice@		; `string'
PUBLIC	??_C@_0BC@OKNBBEMG@GetISellItemPrice@		; `string'
PUBLIC	??_C@_0L@NKLNOBKA@IsAntiFlag@			; `string'
PUBLIC	??_C@_06PLFMNGGB@IsFlag@			; `string'
PUBLIC	??_C@_0P@KNFGADIE@IsWearableFlag@		; `string'
PUBLIC	??_C@_0M@IKKLMPND@Is1GoldItem@			; `string'
PUBLIC	??_C@_08KIIGDNA@GetLimit@			; `string'
PUBLIC	??_C@_0N@OIJFEGBC@GetLimitType@			; `string'
PUBLIC	??_C@_0O@PAGKENPD@GetLimitValue@		; `string'
PUBLIC	??_C@_09HJGEAOAM@GetAffect@			; `string'
PUBLIC	??_C@_08GGOMBHIN@GetValue@			; `string'
PUBLIC	??_C@_09ICJIFGNC@GetSocket@			; `string'
PUBLIC	??_C@_0BA@PMLMLIHH@GetIconInstance@		; `string'
PUBLIC	??_C@_0L@POCKMHMA@GetUseType@			; `string'
PUBLIC	??_C@_0BD@BNBIIKMM@DeleteIconInstance@		; `string'
PUBLIC	??_C@_0P@OGDGGJFE@IsEquipmentVID@		; `string'
PUBLIC	??_C@_0P@LGDKNEFF@IsRefineScroll@		; `string'
PUBLIC	??_C@_0P@CNNPGCCK@IsDetachScroll@		; `string'
PUBLIC	??_C@_05CEOMILKP@IsKey@				; `string'
PUBLIC	??_C@_07MLLOFDCE@IsMetin@			; `string'
PUBLIC	??_C@_0BG@FEGHIHDK@CanAddToQuickSlotItem@	; `string'
PUBLIC	??_C@_0L@EMDEHLJF@CreateItem@			; `string'
PUBLIC	??_C@_0L@IIJEEMCG@DeleteItem@			; `string'
PUBLIC	??_C@_0O@HJNOJBCJ@LoadItemTable@		; `string'
PUBLIC	??_C@_0O@FIFLMBIA@IsWeddingItem@		; `string'
PUBLIC	??_C@_0BC@DLHGPCJF@GetItemNameByVnum@		; `string'
PUBLIC	??_C@_0P@KGPFDEPM@SelectItemWiki@		; `string'
PUBLIC	??_C@_0N@NCBLKFBB@GetRefineSet@			; `string'
PUBLIC	??_C@_0P@LHFGFLIF@GetRefinedVnum@		; `string'
PUBLIC	??_C@_0P@JDIMGFAL@GetItemsByName@		; `string'
PUBLIC	??_C@_0BJ@OLOACL@IsPossibleChangeLookLeft@	; `string'
PUBLIC	??_C@_0BK@LGEDBNMJ@IsPossibleChangeLookRight@	; `string'
PUBLIC	??_C@_0BN@PEBKMIDG@IsChangeLookFreePassYangItem@ ; `string'
PUBLIC	??_C@_0BI@PCFHBNB@IsChangeLookClearScroll@	; `string'
PUBLIC	??_C@_0BD@MEKMBKPM@USESOUND_ACCESSORY@		; `string'
PUBLIC	??_C@_0P@ENGKPPPD@USESOUND_ARMOR@		; `string'
PUBLIC	??_C@_0N@MDIFIDON@USESOUND_BOW@			; `string'
PUBLIC	??_C@_0BB@BHHNCGFC@USESOUND_DEFAULT@		; `string'
PUBLIC	??_C@_0BA@IJKKKKOO@USESOUND_WEAPON@		; `string'
PUBLIC	??_C@_0BA@GIIHLHOB@USESOUND_POTION@		; `string'
PUBLIC	??_C@_0BA@HNBMICIL@USESOUND_PORTAL@		; `string'
PUBLIC	??_C@_0BE@PBPPNIPJ@DROPSOUND_ACCESSORY@		; `string'
PUBLIC	??_C@_0BA@PCCDLKKO@DROPSOUND_ARMOR@		; `string'
PUBLIC	??_C@_0O@OOJPAKOO@DROPSOUND_BOW@		; `string'
PUBLIC	??_C@_0BC@BONOAPBN@DROPSOUND_DEFAULT@		; `string'
PUBLIC	??_C@_0BB@JMMPMOOC@DROPSOUND_WEAPON@		; `string'
PUBLIC	??_C@_0BA@KJELJAII@EQUIPMENT_COUNT@		; `string'
PUBLIC	??_C@_0P@GCJFHMFC@EQUIPMENT_HEAD@		; `string'
PUBLIC	??_C@_0P@LODPCKGA@EQUIPMENT_BODY@		; `string'
PUBLIC	??_C@_0BB@IKOPOEMN@EQUIPMENT_WEAPON@		; `string'
PUBLIC	??_C@_0BA@KHENFLDC@EQUIPMENT_WRIST@		; `string'
PUBLIC	??_C@_0BA@GEANIANO@EQUIPMENT_SHOES@		; `string'
PUBLIC	??_C@_0P@GJMJEBFD@EQUIPMENT_NECK@		; `string'
PUBLIC	??_C@_0O@KNFMDJEG@EQUIPMENT_EAR@		; `string'
PUBLIC	??_C@_0BC@IBOCPGBL@EQUIPMENT_UNIQUE1@		; `string'
PUBLIC	??_C@_0BC@KKMPKFNI@EQUIPMENT_UNIQUE2@		; `string'
PUBLIC	??_C@_0BA@MLMLGDPN@EQUIPMENT_ARROW@		; `string'
PUBLIC	??_C@_0BB@GNCAGJLP@EQUIPMENT_SHIELD@		; `string'
PUBLIC	??_C@_0BA@HOMCMAOF@EQUIPMENT_RING1@		; `string'
PUBLIC	??_C@_0BA@FFOPJDCG@EQUIPMENT_RING2@		; `string'
PUBLIC	??_C@_0P@GKDPOFPB@EQUIPMENT_BELT@		; `string'
PUBLIC	??_C@_0BA@JDEBPBPI@EQUIPMENT_MOUNT@		; `string'
PUBLIC	??_C@_0O@JLMIJBLB@EQUIPMENT_PET@		; `string'
PUBLIC	??_C@_0BA@NADJMHBA@EQUIPMENT_TITLE@		; `string'
PUBLIC	??_C@_0BC@LFKEDEAE@EQUIPMENT_PENDANT@		; `string'
PUBLIC	??_C@_0P@EMFHBOCE@ITEM_TYPE_NONE@		; `string'
PUBLIC	??_C@_0BB@KIJBPCOD@ITEM_TYPE_WEAPON@		; `string'
PUBLIC	??_C@_0BA@MCMGEHMH@ITEM_TYPE_ARMOR@		; `string'
PUBLIC	??_C@_0O@EJGIJMHP@ITEM_TYPE_USE@		; `string'
PUBLIC	??_C@_0BC@PDFOCJLB@ITEM_TYPE_AUTOUSE@		; `string'
PUBLIC	??_C@_0BD@NFIKPBKO@ITEM_TYPE_MATERIAL@		; `string'
PUBLIC	??_C@_0BC@EGCNCIAP@ITEM_TYPE_SPECIAL@		; `string'
PUBLIC	??_C@_0P@LGAHEAHJ@ITEM_TYPE_TOOL@		; `string'
PUBLIC	??_C@_0BC@LGJDJIG@ITEM_TYPE_LOTTERY@		; `string'
PUBLIC	??_C@_0O@JAIIACCD@ITEM_TYPE_ELK@		; `string'
PUBLIC	??_C@_0BA@KICPPFNE@ITEM_TYPE_METIN@		; `string'
PUBLIC	??_C@_0BE@JBBPDBJM@ITEM_TYPE_CONTAINER@		; `string'
PUBLIC	??_C@_0P@PIBMEEFH@ITEM_TYPE_FISH@		; `string'
PUBLIC	??_C@_0O@NIJIMPJD@ITEM_TYPE_ROD@		; `string'
PUBLIC	??_C@_0BD@KBPLAMLF@ITEM_TYPE_RESOURCE@		; `string'
PUBLIC	??_C@_0BD@OGNHPHCL@ITEM_TYPE_CAMPFIRE@		; `string'
PUBLIC	??_C@_0BB@CPEAMAMA@ITEM_TYPE_UNIQUE@		; `string'
PUBLIC	??_C@_0BE@FAMMFDKM@ITEM_TYPE_SKILLBOOK@		; `string'
PUBLIC	??_C@_0BA@PFOCEMDB@ITEM_TYPE_QUEST@		; `string'
PUBLIC	??_C@_0BE@DGPJCLHG@ITEM_TYPE_POLYMORPH@		; `string'
PUBLIC	??_C@_0BH@MPEMDLLF@ITEM_TYPE_TREASURE_BOX@	; `string'
PUBLIC	??_C@_0BH@KGMIMAKI@ITEM_TYPE_TREASURE_KEY@	; `string'
PUBLIC	??_C@_0P@CALHNGMG@ITEM_TYPE_PICK@		; `string'
PUBLIC	??_C@_0BA@EDGMOLIF@ITEM_TYPE_BLEND@		; `string'
PUBLIC	??_C@_0N@BKIJEOLO@ITEM_TYPE_DS@			; `string'
PUBLIC	??_C@_0BF@GGLFIBNL@ITEM_TYPE_SPECIAL_DS@	; `string'
PUBLIC	??_C@_0BC@OLPPIKKB@ITEM_TYPE_GIFTBOX@		; `string'
PUBLIC	??_C@_0P@POBKFJPJ@ITEM_TYPE_RING@		; `string'
PUBLIC	??_C@_0BA@OPEBGGEO@ITEM_TYPE_MOUNT@		; `string'
PUBLIC	??_C@_0O@DFMEJAJP@ITEM_TYPE_PET@		; `string'
PUBLIC	??_C@_0BA@KMDJFAKG@ITEM_TYPE_TITLE@		; `string'
PUBLIC	??_C@_0BC@GOFIPFBN@ITEM_TYPE_COSTUME@		; `string'
PUBLIC	??_C@_0BC@IBLNMJBH@COSTUME_TYPE_BODY@		; `string'
PUBLIC	??_C@_0BC@MAPOOMBN@COSTUME_TYPE_HAIR@		; `string'
PUBLIC	??_C@_0BC@GPPDEHKH@COSTUME_TYPE_ACCE@		; `string'
PUBLIC	??_C@_0BE@NDJCIHLM@COSTUME_TYPE_WEAPON@		; `string'
PUBLIC	??_C@_0BD@FNBPJHIE@COSTUME_TYPE_MOUNT@		; `string'
PUBLIC	??_C@_0BB@KMCNDLBH@COSTUME_TYPE_PET@		; `string'
PUBLIC	??_C@_0BC@GDAJEDKH@COSTUME_TYPE_AURA@		; `string'
PUBLIC	??_C@_0BD@JCGACLBK@COSTUME_SLOT_START@		; `string'
PUBLIC	??_C@_0BD@EMMBBFMO@COSTUME_SLOT_COUNT@		; `string'
PUBLIC	??_C@_0BC@OBAEGBKN@COSTUME_SLOT_BODY@		; `string'
PUBLIC	??_C@_0BC@KAEHEEKH@COSTUME_SLOT_HAIR@		; `string'
PUBLIC	??_C@_0BC@PEKOPBN@COSTUME_SLOT_ACCE@		; `string'
PUBLIC	??_C@_0BE@BFLFIKON@COSTUME_SLOT_WEAPON@		; `string'
PUBLIC	??_C@_0BD@HGMLHELO@COSTUME_SLOT_MOUNT@		; `string'
PUBLIC	??_C@_0BB@KFALFEII@COSTUME_SLOT_PET@		; `string'
PUBLIC	??_C@_0BC@DLAOLBN@COSTUME_SLOT_AURA@		; `string'
PUBLIC	??_C@_0BB@IEFLAOJF@COSTUME_SLOT_END@		; `string'
PUBLIC	??_C@_0BK@JAICDGKA@BELT_INVENTORY_SLOT_START@	; `string'
PUBLIC	??_C@_0BK@EOCDAIHE@BELT_INVENTORY_SLOT_COUNT@	; `string'
PUBLIC	??_C@_0BI@GPHFDCEJ@BELT_INVENTORY_SLOT_END@	; `string'
PUBLIC	??_C@_0CA@GGBKFPIG@SKILL_BOOK_INVENTORY_SLOT_START@ ; `string'
PUBLIC	??_C@_0CD@NBCKCAOA@UPGRADE_ITEMS_INVENTORY_SLOT_ST@ ; `string'
PUBLIC	??_C@_0BL@IMGEBG@STONE_INVENTORY_SLOT_START@	; `string'
PUBLIC	??_C@_0BO@HIOPBILE@GIFT_BOX_INVENTORY_SLOT_START@ ; `string'
PUBLIC	??_C@_0BO@KNLOLNDC@CHANGERS_INVENTORY_SLOT_START@ ; `string'
PUBLIC	??_C@_0N@FCLCNMLC@WEAPON_SWORD@			; `string'
PUBLIC	??_C@_0O@IMDDJKDH@WEAPON_DAGGER@		; `string'
PUBLIC	??_C@_0L@KDNCAJJM@WEAPON_BOW@			; `string'
PUBLIC	??_C@_0BC@OILJBHHK@WEAPON_TWO_HANDED@		; `string'
PUBLIC	??_C@_0M@NKBIKBJK@WEAPON_BELL@			; `string'
PUBLIC	??_C@_0L@LNCOBKNJ@WEAPON_FAN@			; `string'
PUBLIC	??_C@_0N@DCOAOKB@WEAPON_ARROW@			; `string'
PUBLIC	??_C@_0BB@KFDFBDPL@WEAPON_NUM_TYPES@		; `string'
PUBLIC	??_C@_0L@DENJCCNI@USE_POTION@			; `string'
PUBLIC	??_C@_0N@CINBPLKM@USE_TALISMAN@			; `string'
PUBLIC	??_C@_0L@JIILHJGL@USE_TUNING@			; `string'
PUBLIC	??_C@_08JHFKMGGA@USE_MOVE@			; `string'
PUBLIC	??_C@_0BB@BBPDKOFG@USE_TREASURE_BOX@		; `string'
PUBLIC	??_C@_0N@BOHEHPFI@USE_MONEYBAG@			; `string'
PUBLIC	??_C@_08LBHGOBNP@USE_BAIT@			; `string'
PUBLIC	??_C@_0P@JBLCKFGE@USE_ABILITY_UP@		; `string'
PUBLIC	??_C@_0L@DLLOJMIP@USE_AFFECT@			; `string'
PUBLIC	??_C@_0BB@PBBDNJH@USE_CREATE_STONE@		; `string'
PUBLIC	??_C@_0M@GHOELJHH@USE_SPECIAL@			; `string'
PUBLIC	??_C@_0BD@MMDEHJ@USE_POTION_NODELAY@		; `string'
PUBLIC	??_C@_09PNKHEPEF@USE_CLEAR@			; `string'
PUBLIC	??_C@_0BB@NCIEFOD@USE_INVISIBILITY@		; `string'
PUBLIC	??_C@_0P@MKAMDACK@USE_DETACHMENT@		; `string'
PUBLIC	??_C@_0BE@NEAJJELI@USE_TIME_CHARGE_PER@		; `string'
PUBLIC	??_C@_0BE@FCIOINBF@USE_TIME_CHARGE_FIX@		; `string'
PUBLIC	??_C@_0BA@NILKDFNN@USE_AFFECT_PLUS@		; `string'
PUBLIC	??_C@_0BJ@FNHNMEGH@USE_PUT_INTO_AURA_SOCKET@	; `string'
PUBLIC	??_C@_0BK@FFJFCNLF@MATERIAL_DS_REFINE_NORMAL@	; `string'
PUBLIC	??_C@_0BL@HNMOOIKG@MATERIAL_DS_REFINE_BLESSED@	; `string'
PUBLIC	??_C@_0BJ@KCHKGND@MATERIAL_DS_REFINE_HOLLY@	; `string'
PUBLIC	??_C@_0N@HOHHHOFD@METIN_NORMAL@			; `string'
PUBLIC	??_C@_0L@MFIGJJDC@METIN_GOLD@			; `string'
PUBLIC	??_C@_0L@MKHGBGII@LIMIT_NONE@			; `string'
PUBLIC	??_C@_0M@CNLALLNH@LIMIT_LEVEL@			; `string'
PUBLIC	??_C@_09JOBFCJGA@LIMIT_STR@			; `string'
PUBLIC	??_C@_09LENAGHIL@LIMIT_DEX@			; `string'
PUBLIC	??_C@_09OGFKBPLL@LIMIT_INT@			; `string'
PUBLIC	??_C@_09DIAIGPDD@LIMIT_CON@			; `string'
PUBLIC	??_C@_0BA@FCJCAFPM@LIMIT_REAL_TIME@		; `string'
PUBLIC	??_C@_0CA@KECNELOI@LIMIT_REAL_TIME_START_FIRST_USE@ ; `string'
PUBLIC	??_C@_0BK@DKGMKHOA@LIMIT_TIMER_BASED_ON_WEAR@	; `string'
PUBLIC	??_C@_0BD@JIAJEJNL@LIMIT_TYPE_MAX_NUM@		; `string'
PUBLIC	??_C@_0O@DPNMMLCK@LIMIT_MAX_NUM@		; `string'
PUBLIC	??_C@_0BF@DFHLBKDO@ITEM_ANTIFLAG_FEMALE@	; `string'
PUBLIC	??_C@_0BD@DBFGLDPM@ITEM_ANTIFLAG_MALE@		; `string'
PUBLIC	??_C@_0BG@OCAOGEDJ@ITEM_ANTIFLAG_WARRIOR@	; `string'
PUBLIC	??_C@_0BH@NDIALJFO@ITEM_ANTIFLAG_ASSASSIN@	; `string'
PUBLIC	??_C@_0BD@EDCJBBKJ@ITEM_ANTIFLAG_SURA@		; `string'
PUBLIC	??_C@_0BF@NIAJKCKI@ITEM_ANTIFLAG_SHAMAN@	; `string'
PUBLIC	??_C@_0BC@NECEHGFA@ITEM_ANTIFLAG_GET@		; `string'
PUBLIC	??_C@_0BD@ELBJHBLB@ITEM_ANTIFLAG_DROP@		; `string'
PUBLIC	??_C@_0BD@LACGLGAB@ITEM_ANTIFLAG_SELL@		; `string'
PUBLIC	??_C@_0BH@ONMHLBEF@ITEM_ANTIFLAG_EMPIRE_A@	; `string'
PUBLIC	??_C@_0BH@MGOKOCIG@ITEM_ANTIFLAG_EMPIRE_B@	; `string'
PUBLIC	??_C@_0BH@IMCIPANH@ITEM_ANTIFLAG_EMPIRE_R@	; `string'
PUBLIC	??_C@_0BD@PPDHLMLJ@ITEM_ANTIFLAG_SAVE@		; `string'
PUBLIC	??_C@_0BD@KPODKFBE@ITEM_ANTIFLAG_GIVE@		; `string'
PUBLIC	??_C@_0BF@HBDABAPH@ITEM_ANTIFLAG_PKDROP@	; `string'
PUBLIC	??_C@_0BE@MAIMKBDM@ITEM_ANTIFLAG_STACK@		; `string'
PUBLIC	??_C@_0BF@NEEDLCAA@ITEM_ANTIFLAG_MYSHOP@	; `string'
PUBLIC	??_C@_0BG@BCNAOFH@ITEM_ANTIFLAG_SAFEBOX@	; `string'
PUBLIC	??_C@_0BG@MEIFFJLC@ITEM_ANTIFLAG_DESTROY@	; `string'
PUBLIC	??_C@_0BI@JFGOOGEF@ITEM_ANTIFLAG_RT_REMOVE@	; `string'
PUBLIC	??_C@_0BE@LJENCJCN@ITEM_FLAG_STACKABLE@		; `string'
PUBLIC	??_C@_0P@POCGDPPH@ITEM_FLAG_RARE@		; `string'
PUBLIC	??_C@_0BB@PGFIBJHK@ITEM_FLAG_UNIQUE@		; `string'
PUBLIC	??_C@_0BL@IPKGPKMA@ITEM_FLAG_CONFIRM_WHEN_USE@	; `string'
PUBLIC	??_C@_0BA@PLOPKCNG@ANTIFLAG_FEMALE@		; `string'
PUBLIC	??_C@_0O@GCOFJDKL@ANTIFLAG_MALE@		; `string'
PUBLIC	??_C@_0BB@EMBBJKML@ANTIFLAG_WARRIOR@		; `string'
PUBLIC	??_C@_0BC@IAJNDFJA@ANTIFLAG_ASSASSIN@		; `string'
PUBLIC	??_C@_0O@BAJKDBPO@ANTIFLAG_SURA@		; `string'
PUBLIC	??_C@_0BA@BGJNBKEA@ANTIFLAG_SHAMAN@		; `string'
PUBLIC	??_C@_0N@NEJHBBKC@ANTIFLAG_GET@			; `string'
PUBLIC	??_C@_0O@BIKKFBOG@ANTIFLAG_DROP@		; `string'
PUBLIC	??_C@_0O@ODJFJGFG@ANTIFLAG_SELL@		; `string'
PUBLIC	??_C@_0BC@LONKDNIL@ANTIFLAG_EMPIRE_A@		; `string'
PUBLIC	??_C@_0BC@JFPHGOEI@ANTIFLAG_EMPIRE_B@		; `string'
PUBLIC	??_C@_0BC@NPDFHMBJ@ANTIFLAG_EMPIRE_R@		; `string'
PUBLIC	??_C@_0O@KMIEJMOO@ANTIFLAG_SAVE@		; `string'
PUBLIC	??_C@_0O@PMFAIFED@ANTIFLAG_GIVE@		; `string'
PUBLIC	??_C@_0BA@LPKEKIBP@ANTIFLAG_PKDROP@		; `string'
PUBLIC	??_C@_0P@DFNANGEL@ANTIFLAG_STACK@		; `string'
PUBLIC	??_C@_0BA@BKNHAKOI@ANTIFLAG_MYSHOP@		; `string'
PUBLIC	??_C@_0BB@KPDCPAKF@ANTIFLAG_SAFEBOX@		; `string'
PUBLIC	??_C@_0BB@GKJKKHEA@ANTIFLAG_DESTROY@		; `string'
PUBLIC	??_C@_0BD@OJOBBEHO@ANTIFLAG_RT_REMOVE@		; `string'
PUBLIC	??_C@_0O@KOFPKKKF@WEARABLE_BODY@		; `string'
PUBLIC	??_C@_0O@HCPFPMJH@WEARABLE_HEAD@		; `string'
PUBLIC	??_C@_0P@HDMMFABO@WEARABLE_FOOTS@		; `string'
PUBLIC	??_C@_0P@EMFDANIN@WEARABLE_WRIST@		; `string'
PUBLIC	??_C@_0BA@NBNKFEIG@WEARABLE_WEAPON@		; `string'
PUBLIC	??_C@_0O@HJKJMBJG@WEARABLE_NECK@		; `string'
PUBLIC	??_C@_0N@BHKGKGNM@WEARABLE_EAR@			; `string'
PUBLIC	??_C@_0BA@FGALGGKF@WEARABLE_UNIQUE@		; `string'
PUBLIC	??_C@_0BA@DGBFNJPE@WEARABLE_SHIELD@		; `string'
PUBLIC	??_C@_0P@CANFDFEC@WEARABLE_ARROW@		; `string'
PUBLIC	??_C@_0O@HKFPGFDE@WEARABLE_BELT@		; `string'
PUBLIC	??_C@_0BB@FEPBJJKM@WEARABLE_PENDANT@		; `string'
PUBLIC	??_C@_0L@FFADCIKH@ARMOR_BODY@			; `string'
PUBLIC	??_C@_0L@IJKJHOJF@ARMOR_HEAD@			; `string'
PUBLIC	??_C@_0N@HJFKCCG@ARMOR_SHIELD@			; `string'
PUBLIC	??_C@_0M@KCKGDACD@ARMOR_WRIST@			; `string'
PUBLIC	??_C@_0M@JNDJGNLA@ARMOR_FOOTS@			; `string'
PUBLIC	??_C@_0L@ICPFEDJE@ARMOR_NECK@			; `string'
PUBLIC	??_C@_09JPGIMBID@ARMOR_EAR@			; `string'
PUBLIC	??_C@_0L@IBADOHDG@ARMOR_BELT@			; `string'
PUBLIC	??_C@_0O@DMBNKKCP@ARMOR_PENDANT@		; `string'
PUBLIC	??_C@_0BD@POBJPMPE@ITEM_APPLY_MAX_NUM@		; `string'
PUBLIC	??_C@_0BE@PABFDMOM@ITEM_SOCKET_MAX_NUM@		; `string'
PUBLIC	??_C@_0L@KOOBDLCP@APPLY_NONE@			; `string'
PUBLIC	??_C@_09GCJAEOHJ@APPLY_STR@			; `string'
PUBLIC	??_C@_09EIFFAAJC@APPLY_DEX@			; `string'
PUBLIC	??_C@_09MEINAICK@APPLY_CON@			; `string'
PUBLIC	??_C@_09BKNPHIKC@APPLY_INT@			; `string'
PUBLIC	??_C@_0N@LMMDFALA@APPLY_MAX_HP@			; `string'
PUBLIC	??_C@_0N@KMLABMCB@APPLY_MAX_SP@			; `string'
PUBLIC	??_C@_0P@CBOEJMBC@APPLY_HP_REGEN@		; `string'
PUBLIC	??_C@_0P@PHBEALO@APPLY_SP_REGEN@		; `string'
PUBLIC	??_C@_0BG@DJGIDNN@APPLY_DEF_GRADE_BONUS@	; `string'
PUBLIC	??_C@_0BG@DIKOCKN@APPLY_ATT_GRADE_BONUS@	; `string'
PUBLIC	??_C@_0BA@PBNDFNHA@APPLY_ATT_SPEED@		; `string'
PUBLIC	??_C@_0BA@IHFPGGCP@APPLY_MOV_SPEED@		; `string'
PUBLIC	??_C@_0BB@IMPHMAIN@APPLY_CAST_SPEED@		; `string'
PUBLIC	??_C@_0BG@JIJNNLOL@APPLY_MAGIC_ATT_GRADE@	; `string'
PUBLIC	??_C@_0BG@PLJBHAML@APPLY_MAGIC_DEF_GRADE@	; `string'
PUBLIC	??_C@_0M@CPHNGINI@APPLY_SKILL@			; `string'
PUBLIC	??_C@_0BG@FCHNFPKG@APPLY_ATTBONUS_ANIMAL@	; `string'
PUBLIC	??_C@_0BG@DEBBIBCN@APPLY_ATTBONUS_UNDEAD@	; `string'
PUBLIC	??_C@_0BF@PHBHKMPC@APPLY_ATTBONUS_DEVIL@	; `string'
PUBLIC	??_C@_0BF@FLAIBIKP@APPLY_ATTBONUS_HUMAN@	; `string'
PUBLIC	??_C@_0BD@DGLENODO@APPLY_BOW_DISTANCE@		; `string'
PUBLIC	??_C@_0BB@KEIAGOOG@APPLY_RESIST_BOW@		; `string'
PUBLIC	??_C@_0BC@BCODEHJE@APPLY_RESIST_FIRE@		; `string'
PUBLIC	??_C@_0BC@CNKONPAF@APPLY_RESIST_ELEC@		; `string'
PUBLIC	??_C@_0BD@BIEOENBH@APPLY_RESIST_MAGIC@		; `string'
PUBLIC	??_C@_0BB@OFEPEABG@APPLY_POISON_PCT@		; `string'
PUBLIC	??_C@_0P@EAEIAPML@APPLY_SLOW_PCT@		; `string'
PUBLIC	??_C@_0P@IGBLFIG@APPLY_STUN_PCT@		; `string'
PUBLIC	??_C@_0BD@DOHBCDEC@APPLY_CRITICAL_PCT@		; `string'
PUBLIC	??_C@_0BE@MIHOPHBF@APPLY_PENETRATE_PCT@		; `string'
PUBLIC	??_C@_0BD@GHNBCFFK@APPLY_ATTBONUS_ORC@		; `string'
PUBLIC	??_C@_0BG@BGJNMLHF@APPLY_ATTBONUS_MILGYO@	; `string'
PUBLIC	??_C@_0P@IJPDEMHM@APPLY_STEAL_HP@		; `string'
PUBLIC	??_C@_0P@JJIAAAON@APPLY_STEAL_SP@		; `string'
PUBLIC	??_C@_0BE@MMJAOBJI@APPLY_MANA_BURN_PCT@		; `string'
PUBLIC	??_C@_0BI@CNPFJGMF@APPLY_DAMAGE_SP_RECOVER@	; `string'
PUBLIC	??_C@_0M@DEKBOLNA@APPLY_BLOCK@			; `string'
PUBLIC	??_C@_0M@OLNDHAEO@APPLY_DODGE@			; `string'
PUBLIC	??_C@_0BD@FELELOGH@APPLY_RESIST_SWORD@		; `string'
PUBLIC	??_C@_0BF@PPDPGLJM@APPLY_RESIST_TWOHAND@	; `string'
PUBLIC	??_C@_0BE@HKIMLKAO@APPLY_RESIST_DAGGER@		; `string'
PUBLIC	??_C@_0BC@GKMPGLNP@APPLY_RESIST_BELL@		; `string'
PUBLIC	??_C@_0BB@LKHMHNKD@APPLY_RESIST_FAN@		; `string'
PUBLIC	??_C@_0BC@EDEEJCPD@APPLY_RESIST_WIND@		; `string'
PUBLIC	??_C@_0BE@JKECBGFJ@APPLY_REFLECT_MELEE@		; `string'
PUBLIC	??_C@_0BE@GIMFBPMF@APPLY_REFLECT_CURSE@		; `string'
PUBLIC	??_C@_0BE@CMJGNONM@APPLY_POISON_REDUCE@		; `string'
PUBLIC	??_C@_0BG@NAAMOKGC@APPLY_KILL_SP_RECOVER@	; `string'
PUBLIC	??_C@_0BH@BOFCHNGC@APPLY_EXP_DOUBLE_BONUS@	; `string'
PUBLIC	??_C@_0BI@CPGCKKHM@APPLY_GOLD_DOUBLE_BONUS@	; `string'
PUBLIC	??_C@_0BG@GJLPLNJK@APPLY_ITEM_DROP_BONUS@	; `string'
PUBLIC	??_C@_0BD@HAABJCED@APPLY_POTION_BONUS@		; `string'
PUBLIC	??_C@_0BG@FNNLKJON@APPLY_KILL_HP_RECOVER@	; `string'
PUBLIC	??_C@_0BC@GMOGAEGD@APPLY_IMMUNE_STUN@		; `string'
PUBLIC	??_C@_0BC@HDPKPEKN@APPLY_IMMUNE_SLOW@		; `string'
PUBLIC	??_C@_0BC@ICOAEBEB@APPLY_IMMUNE_FALL@		; `string'
PUBLIC	??_C@_0BC@MENAELHN@APPLY_MAX_STAMINA@		; `string'
PUBLIC	??_C@_0BH@LHKFGIKM@APPLY_ATTBONUS_WARRIOR@	; `string'
PUBLIC	??_C@_0BI@FDLAHFJJ@APPLY_ATTBONUS_ASSASSIN@	; `string'
PUBLIC	??_C@_0BE@EHJIJMPG@APPLY_ATTBONUS_SURA@		; `string'
PUBLIC	??_C@_0BG@HGCDBIBP@APPLY_ATTBONUS_SHAMAN@	; `string'
PUBLIC	??_C@_0BH@OMHBNPNG@APPLY_ATTBONUS_MONSTER@	; `string'
PUBLIC	??_C@_0BE@INMGAFDB@APPLY_MALL_ATTBONUS@		; `string'
PUBLIC	??_C@_0BE@IHABPMCM@APPLY_MALL_DEFBONUS@		; `string'
PUBLIC	??_C@_0BE@HDMKGFGB@APPLY_MALL_EXPBONUS@		; `string'
PUBLIC	??_C@_0BF@JHCAFPEC@APPLY_MALL_ITEMBONUS@	; `string'
PUBLIC	??_C@_0BF@CNKLONKF@APPLY_MALL_GOLDBONUS@	; `string'
PUBLIC	??_C@_0BB@IOILOHHB@APPLY_MAX_HP_PCT@		; `string'
PUBLIC	??_C@_0BB@OLFCCPEF@APPLY_MAX_SP_PCT@		; `string'
PUBLIC	??_C@_0BJ@ILJOEJMP@APPLY_SKILL_DAMAGE_BONUS@	; `string'
PUBLIC	??_C@_0BO@KJDLNPKH@APPLY_NORMAL_HIT_DAMAGE_BONUS@ ; `string'
PUBLIC	??_C@_0BJ@MCFLODEL@APPLY_SKILL_DEFEND_BONUS@	; `string'
PUBLIC	??_C@_0BO@OAPOHFCD@APPLY_NORMAL_HIT_DEFEND_BONUS@ ; `string'
PUBLIC	??_C@_0BF@DIEIKMOC@APPLY_RESIST_WARRIOR@	; `string'
PUBLIC	??_C@_0BG@MCFLPEMK@APPLY_RESIST_ASSASSIN@	; `string'
PUBLIC	??_C@_0BC@MEEAHCEF@APPLY_RESIST_SURA@		; `string'
PUBLIC	??_C@_0BE@POHJKJMD@APPLY_RESIST_SHAMAN@		; `string'
PUBLIC	??_C@_0N@MOPONLJI@APPLY_ENERGY@			; `string'
PUBLIC	??_C@_0BJ@IGOAELFN@APPLY_COSTUME_ATTR_BONUS@	; `string'
PUBLIC	??_C@_0BJ@JJJKDKFC@APPLY_MAGIC_ATTBONUS_PER@	; `string'
PUBLIC	??_C@_0BP@MGKGKJGA@APPLY_MELEE_MAGIC_ATTBONUS_PER@ ; `string'
PUBLIC	??_C@_0BB@CGPGAFA@APPLY_RESIST_ICE@		; `string'
PUBLIC	??_C@_0BD@GENAIBDP@APPLY_RESIST_EARTH@		; `string'
PUBLIC	??_C@_0BC@DDBEBBJF@APPLY_RESIST_DARK@		; `string'
PUBLIC	??_C@_0BI@KIMFHHIO@APPLY_ANTI_CRITICAL_PCT@	; `string'
PUBLIC	??_C@_0BJ@FKDKMNNK@APPLY_ANTI_PENETRATE_PCT@	; `string'
PUBLIC	??_C@_0BE@KOHGDBLG@APPLY_ATTBONUS_ELEC@		; `string'
PUBLIC	??_C@_0BE@JBDLKJCH@APPLY_ATTBONUS_FIRE@		; `string'
PUBLIC	??_C@_0BD@JAEBEEH@APPLY_ATTBONUS_ICE@		; `string'
PUBLIC	??_C@_0BE@MAJMHMEA@APPLY_ATTBONUS_WIND@		; `string'
PUBLIC	??_C@_0BF@DGDLLLOH@APPLY_ATTBONUS_EARTH@	; `string'
PUBLIC	??_C@_0BE@LAMMPPCG@APPLY_ATTBONUS_DARK@		; `string'
PUBLIC	??_C@_0BF@DJOKGBBD@APPLY_ACCEDRAIN_RATE@	; `string'
PUBLIC	??_C@_0BF@EICHFHDD@APPLY_ATTBONUS_METIN@	; `string'
PUBLIC	??_C@_0BE@FMIKIPNL@APPLY_ATTBONUS_BOSS@		; `string'
PUBLIC	??_C@_0O@BGKMMFJI@RESOURCE_AURA@		; `string'
PUBLIC	??_C@_0BA@NICENPGE@AURA_GRADE_NONE@		; `string'
PUBLIC	??_C@_0BE@KICMMDCG@AURA_GRADE_ORDINARY@		; `string'
PUBLIC	??_C@_0BC@BDEELFEI@AURA_GRADE_SIMPLE@		; `string'
PUBLIC	??_C@_0BB@ICAOLOOJ@AURA_GRADE_NOBLE@		; `string'
PUBLIC	??_C@_0BF@GFOMMPCF@AURA_GRADE_SPARKLING@	; `string'
PUBLIC	??_C@_0BH@DOIMOCHC@AURA_GRADE_MAGNIFICENT@	; `string'
PUBLIC	??_C@_0BD@ONEGMILJ@AURA_GRADE_RADIANT@		; `string'
PUBLIC	??_C@_0BD@HJLOCD@AURA_GRADE_MAX_NUM@		; `string'
PUBLIC	??_C@_0BK@NLOOLJEK@AURA_BOOST_ITEM_VNUM_BASE@	; `string'
PUBLIC	??_C@_0BH@FDHGCHHI@ITEM_AURA_BOOST_ERASER@	; `string'
PUBLIC	??_C@_0BF@FNDAMKGI@ITEM_AURA_BOOST_WEAK@	; `string'
PUBLIC	??_C@_0BH@KKPHDIDK@ITEM_AURA_BOOST_NORMAL@	; `string'
PUBLIC	??_C@_0BH@IHEOGBBB@ITEM_AURA_BOOST_STRONG@	; `string'
PUBLIC	??_C@_0BJ@IENBGIID@ITEM_AURA_BOOST_ULTIMATE@	; `string'
PUBLIC	??_C@_0BE@BKHCEENN@ITEM_AURA_BOOST_MAX@		; `string'
PUBLIC	??_C@_0BG@EGEBENF@ITEM_ANTIFLAG_PETFEED@	; `string'
PUBLIC	??_C@_0BF@BBGPONC@ITEM_TYPE_GROWTH_PET@		; `string'
PUBLIC	??_C@_07JCLDHBPN@PET_EGG@			; `string'
PUBLIC	??_C@_0P@JONLIAGI@PET_UPBRINGING@		; `string'
PUBLIC	??_C@_07LOJDFPG@PET_BAG@			; `string'
PUBLIC	??_C@_0O@MCCAHOPD@PET_FEEDSTUFF@		; `string'
PUBLIC	??_C@_09FDPMEDPA@PET_SKILL@			; `string'
PUBLIC	??_C@_0BD@EFEANFHJ@PET_SKILL_DEL_BOOK@		; `string'
PUBLIC	??_C@_0BA@PPIEAPBO@PET_NAME_CHANGE@		; `string'
PUBLIC	??_C@_0M@IEIELIHE@PET_EXPFOOD@			; `string'
PUBLIC	??_C@_0BH@CJEGELHG@PET_SKILL_ALL_DEL_BOOK@	; `string'
PUBLIC	??_C@_0BA@BFLIKFFA@PET_EXPFOOD_PER@		; `string'
PUBLIC	??_C@_0BD@NBMMKPOB@PET_ATTR_DETERMINE@		; `string'
PUBLIC	??_C@_0BA@EBKLHNHM@PET_ATTR_CHANGE@		; `string'
PUBLIC	??_C@_07CFLIJFDN@PET_PAY@			; `string'
PUBLIC	??_C@_0BG@FGILHPI@PET_PRIMIUM_FEEDSTUFF@	; `string'
PUBLIC	??_C@_0BA@ODJGNODB@EGG_USE_SUCCESS@		; `string'
PUBLIC	??_C@_0BM@HPDPNNJF@EGG_USE_FAILED_BECAUSE_NAME@	; `string'
PUBLIC	??_C@_0BI@IFDKONKH@EGG_USE_FAILED_TIMEOVER@	; `string'
PUBLIC	??_C@_0BB@ENAGGDKK@PET_EGG_USE_TRUE@		; `string'
PUBLIC	??_C@_0CD@KAFFKKLE@PET_EGG_USE_FAILED_BECAUSE_TRAD@ ; `string'
PUBLIC	??_C@_0CF@NGAJHCNG@PET_EGG_USE_FAILED_BECAUSE_SHOP@ ; `string'
PUBLIC	??_C@_0CF@GNDMIEIP@PET_EGG_USE_FAILED_BECAUSE_MALL@ ; `string'
PUBLIC	??_C@_0CI@OIFJGFDC@PET_EGG_USE_FAILED_BECAUSE_SAFE@ ; `string'
PUBLIC	??_C@_0BI@LMIJIOHA@NAME_CHANGE_USE_SUCCESS@	; `string'
PUBLIC	??_C@_0CE@NHAJKPOM@NAME_CHANGE_USE_FAILED_BECAUSE_@ ; `string'
PUBLIC	??_C@_0BJ@NOFPEGC@PET_ATTR_CHANGE_ITEMVNUM@	; `string'
PUBLIC	??_C@_0BD@OMFLBDFK@PET_HATCHING_MONEY@		; `string'
PUBLIC	??_C@_0BC@JKCMILIM@PET_NAME_MAX_SIZE@		; `string'
PUBLIC	??_C@_0BC@ENMHDJMN@PET_NAME_MIN_SIZE@		; `string'
PUBLIC	??_C@_0BO@FKOEFAAC@E_SEAL_DATE_DEFAULT_TIMESTAMP@ ; `string'
PUBLIC	??_C@_0BH@NDKLMGIH@GUILD_SLOT_START_INDEX@	; `string'
EXTRN	__imp__PyInt_FromLong:PROC
EXTRN	?GetTable@CItemData@@QBEPBUSItemTable@1@XZ:PROC	; CItemData::GetTable
EXTRN	?GetRefinedSet@CItemData@@QBEGXZ:PROC		; CItemData::GetRefinedSet
EXTRN	?PyTuple_GetUnsignedLong@@YA_NPAU_object@@HPAK@Z:PROC ; PyTuple_GetUnsignedLong
EXTRN	_tolower:PROC
EXTRN	?GetRefinedVnum@CItemData@@QBEGXZ:PROC		; CItemData::GetRefinedVnum
EXTRN	?GetUseTypeString@CItemData@@QBEPBDXZ:PROC	; CItemData::GetUseTypeString
EXTRN	?IsEquipment@CItemData@@QBEHXZ:PROC		; CItemData::IsEquipment
EXTRN	?New@CGraphicImageInstance@@SAPAV1@XZ:PROC	; CGraphicImageInstance::New
EXTRN	?GetSocket@CItemData@@QBEJE@Z:PROC		; CItemData::GetSocket
EXTRN	?Delete@CGraphicImageInstance@@SAXPAV1@@Z:PROC	; CGraphicImageInstance::Delete
EXTRN	?SetImagePointer@CGraphicImageInstance@@QAEXPAVCGraphicImage@@@Z:PROC ; CGraphicImageInstance::SetImagePointer
EXTRN	?GetLimit@CItemData@@QBEHEPAUSItemLimit@1@@Z:PROC ; CItemData::GetLimit
EXTRN	?GetApply@CItemData@@QBEHEPAUSItemApply@1@@Z:PROC ; CItemData::GetApply
EXTRN	?IsAntiFlag@CItemData@@QBEHK@Z:PROC		; CItemData::IsAntiFlag
EXTRN	?GetISellItemPrice@CItemData@@QBEKXZ:PROC	; CItemData::GetISellItemPrice
EXTRN	?IsWearableFlag@CItemData@@QBEHK@Z:PROC		; CItemData::IsWearableFlag
EXTRN	?IsFlag@CItemData@@QBEHK@Z:PROC			; CItemData::IsFlag
EXTRN	?GetIconImage@CItemData@@QAEPAVCGraphicSubImage@@XZ:PROC ; CItemData::GetIconImage
EXTRN	?GetSummary@CItemData@@QBEPBDXZ:PROC		; CItemData::GetSummary
EXTRN	?GetIBuyItemPrice@CItemData@@QBEKXZ:PROC	; CItemData::GetIBuyItemPrice
EXTRN	?GetSize@CItemData@@QBEEXZ:PROC			; CItemData::GetSize
EXTRN	?SelectItemData@CItemManager@@QAEHK@Z:PROC	; CItemManager::SelectItemData
EXTRN	?GetDescription@CItemData@@QBEPBDXZ:PROC	; CItemData::GetDescription
EXTRN	?GetSelectedItemDataPointer@CItemManager@@QAEPAVCItemData@@XZ:PROC ; CItemManager::GetSelectedItemDataPointer
;	COMDAT ??_C@_0BH@NDKLMGIH@GUILD_SLOT_START_INDEX@
CONST	SEGMENT
??_C@_0BH@NDKLMGIH@GUILD_SLOT_START_INDEX@ DB 'GUILD_SLOT_START_INDEX', 00H ; `string'
CONST	ENDS
;	COMDAT ??_C@_0BO@FKOEFAAC@E_SEAL_DATE_DEFAULT_TIMESTAMP@
CONST	SEGMENT
??_C@_0BO@FKOEFAAC@E_SEAL_DATE_DEFAULT_TIMESTAMP@ DB 'E_SEAL_DATE_DEFAULT'
	DB	'_TIMESTAMP', 00H				; `string'
CONST	ENDS
;	COMDAT ??_C@_0BC@ENMHDJMN@PET_NAME_MIN_SIZE@
CONST	SEGMENT
??_C@_0BC@ENMHDJMN@PET_NAME_MIN_SIZE@ DB 'PET_NAME_MIN_SIZE', 00H ; `string'
CONST	ENDS
;	COMDAT ??_C@_0BC@JKCMILIM@PET_NAME_MAX_SIZE@
CONST	SEGMENT
??_C@_0BC@JKCMILIM@PET_NAME_MAX_SIZE@ DB 'PET_NAME_MAX_SIZE', 00H ; `string'
CONST	ENDS
;	COMDAT ??_C@_0BD@OMFLBDFK@PET_HATCHING_MONEY@
CONST	SEGMENT
??_C@_0BD@OMFLBDFK@PET_HATCHING_MONEY@ DB 'PET_HATCHING_MONEY', 00H ; `string'
CONST	ENDS
;	COMDAT ??_C@_0BJ@NOFPEGC@PET_ATTR_CHANGE_ITEMVNUM@
CONST	SEGMENT
??_C@_0BJ@NOFPEGC@PET_ATTR_CHANGE_ITEMVNUM@ DB 'PET_ATTR_CHANGE_ITEMVNUM', 00H ; `string'
CONST	ENDS
;	COMDAT ??_C@_0CE@NHAJKPOM@NAME_CHANGE_USE_FAILED_BECAUSE_@
CONST	SEGMENT
??_C@_0CE@NHAJKPOM@NAME_CHANGE_USE_FAILED_BECAUSE_@ DB 'NAME_CHANGE_USE_F'
	DB	'AILED_BECAUSE_NAME', 00H			; `string'
CONST	ENDS
;	COMDAT ??_C@_0BI@LMIJIOHA@NAME_CHANGE_USE_SUCCESS@
CONST	SEGMENT
??_C@_0BI@LMIJIOHA@NAME_CHANGE_USE_SUCCESS@ DB 'NAME_CHANGE_USE_SUCCESS', 00H ; `string'
CONST	ENDS
;	COMDAT ??_C@_0CI@OIFJGFDC@PET_EGG_USE_FAILED_BECAUSE_SAFE@
CONST	SEGMENT
??_C@_0CI@OIFJGFDC@PET_EGG_USE_FAILED_BECAUSE_SAFE@ DB 'PET_EGG_USE_FAILE'
	DB	'D_BECAUSE_SAFEBOX_OPEN', 00H		; `string'
CONST	ENDS
;	COMDAT ??_C@_0CF@GNDMIEIP@PET_EGG_USE_FAILED_BECAUSE_MALL@
CONST	SEGMENT
??_C@_0CF@GNDMIEIP@PET_EGG_USE_FAILED_BECAUSE_MALL@ DB 'PET_EGG_USE_FAILE'
	DB	'D_BECAUSE_MALL_OPEN', 00H			; `string'
CONST	ENDS
;	COMDAT ??_C@_0CF@NGAJHCNG@PET_EGG_USE_FAILED_BECAUSE_SHOP@
CONST	SEGMENT
??_C@_0CF@NGAJHCNG@PET_EGG_USE_FAILED_BECAUSE_SHOP@ DB 'PET_EGG_USE_FAILE'
	DB	'D_BECAUSE_SHOP_OPEN', 00H			; `string'
CONST	ENDS
;	COMDAT ??_C@_0CD@KAFFKKLE@PET_EGG_USE_FAILED_BECAUSE_TRAD@
CONST	SEGMENT
??_C@_0CD@KAFFKKLE@PET_EGG_USE_FAILED_BECAUSE_TRAD@ DB 'PET_EGG_USE_FAILE'
	DB	'D_BECAUSE_TRADING', 00H			; `string'
CONST	ENDS
;	COMDAT ??_C@_0BB@ENAGGDKK@PET_EGG_USE_TRUE@
CONST	SEGMENT
??_C@_0BB@ENAGGDKK@PET_EGG_USE_TRUE@ DB 'PET_EGG_USE_TRUE', 00H ; `string'
CONST	ENDS
;	COMDAT ??_C@_0BI@IFDKONKH@EGG_USE_FAILED_TIMEOVER@
CONST	SEGMENT
??_C@_0BI@IFDKONKH@EGG_USE_FAILED_TIMEOVER@ DB 'EGG_USE_FAILED_TIMEOVER', 00H ; `string'
CONST	ENDS
;	COMDAT ??_C@_0BM@HPDPNNJF@EGG_USE_FAILED_BECAUSE_NAME@
CONST	SEGMENT
??_C@_0BM@HPDPNNJF@EGG_USE_FAILED_BECAUSE_NAME@ DB 'EGG_USE_FAILED_BECAUS'
	DB	'E_NAME', 00H				; `string'
CONST	ENDS
;	COMDAT ??_C@_0BA@ODJGNODB@EGG_USE_SUCCESS@
CONST	SEGMENT
??_C@_0BA@ODJGNODB@EGG_USE_SUCCESS@ DB 'EGG_USE_SUCCESS', 00H ; `string'
CONST	ENDS
;	COMDAT ??_C@_0BG@FGILHPI@PET_PRIMIUM_FEEDSTUFF@
CONST	SEGMENT
??_C@_0BG@FGILHPI@PET_PRIMIUM_FEEDSTUFF@ DB 'PET_PRIMIUM_FEEDSTUFF', 00H ; `string'
CONST	ENDS
;	COMDAT ??_C@_07CFLIJFDN@PET_PAY@
CONST	SEGMENT
??_C@_07CFLIJFDN@PET_PAY@ DB 'PET_PAY', 00H		; `string'
CONST	ENDS
;	COMDAT ??_C@_0BA@EBKLHNHM@PET_ATTR_CHANGE@
CONST	SEGMENT
??_C@_0BA@EBKLHNHM@PET_ATTR_CHANGE@ DB 'PET_ATTR_CHANGE', 00H ; `string'
CONST	ENDS
;	COMDAT ??_C@_0BD@NBMMKPOB@PET_ATTR_DETERMINE@
CONST	SEGMENT
??_C@_0BD@NBMMKPOB@PET_ATTR_DETERMINE@ DB 'PET_ATTR_DETERMINE', 00H ; `string'
CONST	ENDS
;	COMDAT ??_C@_0BA@BFLIKFFA@PET_EXPFOOD_PER@
CONST	SEGMENT
??_C@_0BA@BFLIKFFA@PET_EXPFOOD_PER@ DB 'PET_EXPFOOD_PER', 00H ; `string'
CONST	ENDS
;	COMDAT ??_C@_0BH@CJEGELHG@PET_SKILL_ALL_DEL_BOOK@
CONST	SEGMENT
??_C@_0BH@CJEGELHG@PET_SKILL_ALL_DEL_BOOK@ DB 'PET_SKILL_ALL_DEL_BOOK', 00H ; `string'
CONST	ENDS
;	COMDAT ??_C@_0M@IEIELIHE@PET_EXPFOOD@
CONST	SEGMENT
??_C@_0M@IEIELIHE@PET_EXPFOOD@ DB 'PET_EXPFOOD', 00H	; `string'
CONST	ENDS
;	COMDAT ??_C@_0BA@PPIEAPBO@PET_NAME_CHANGE@
CONST	SEGMENT
??_C@_0BA@PPIEAPBO@PET_NAME_CHANGE@ DB 'PET_NAME_CHANGE', 00H ; `string'
CONST	ENDS
;	COMDAT ??_C@_0BD@EFEANFHJ@PET_SKILL_DEL_BOOK@
CONST	SEGMENT
??_C@_0BD@EFEANFHJ@PET_SKILL_DEL_BOOK@ DB 'PET_SKILL_DEL_BOOK', 00H ; `string'
CONST	ENDS
;	COMDAT ??_C@_09FDPMEDPA@PET_SKILL@
CONST	SEGMENT
??_C@_09FDPMEDPA@PET_SKILL@ DB 'PET_SKILL', 00H		; `string'
CONST	ENDS
;	COMDAT ??_C@_0O@MCCAHOPD@PET_FEEDSTUFF@
CONST	SEGMENT
??_C@_0O@MCCAHOPD@PET_FEEDSTUFF@ DB 'PET_FEEDSTUFF', 00H ; `string'
CONST	ENDS
;	COMDAT ??_C@_07LOJDFPG@PET_BAG@
CONST	SEGMENT
??_C@_07LOJDFPG@PET_BAG@ DB 'PET_BAG', 00H		; `string'
CONST	ENDS
;	COMDAT ??_C@_0P@JONLIAGI@PET_UPBRINGING@
CONST	SEGMENT
??_C@_0P@JONLIAGI@PET_UPBRINGING@ DB 'PET_UPBRINGING', 00H ; `string'
CONST	ENDS
;	COMDAT ??_C@_07JCLDHBPN@PET_EGG@
CONST	SEGMENT
??_C@_07JCLDHBPN@PET_EGG@ DB 'PET_EGG', 00H		; `string'
CONST	ENDS
;	COMDAT ??_C@_0BF@BBGPONC@ITEM_TYPE_GROWTH_PET@
CONST	SEGMENT
??_C@_0BF@BBGPONC@ITEM_TYPE_GROWTH_PET@ DB 'ITEM_TYPE_GROWTH_PET', 00H ; `string'
CONST	ENDS
;	COMDAT ??_C@_0BG@EGEBENF@ITEM_ANTIFLAG_PETFEED@
CONST	SEGMENT
??_C@_0BG@EGEBENF@ITEM_ANTIFLAG_PETFEED@ DB 'ITEM_ANTIFLAG_PETFEED', 00H ; `string'
CONST	ENDS
;	COMDAT ??_C@_0BE@BKHCEENN@ITEM_AURA_BOOST_MAX@
CONST	SEGMENT
??_C@_0BE@BKHCEENN@ITEM_AURA_BOOST_MAX@ DB 'ITEM_AURA_BOOST_MAX', 00H ; `string'
CONST	ENDS
;	COMDAT ??_C@_0BJ@IENBGIID@ITEM_AURA_BOOST_ULTIMATE@
CONST	SEGMENT
??_C@_0BJ@IENBGIID@ITEM_AURA_BOOST_ULTIMATE@ DB 'ITEM_AURA_BOOST_ULTIMATE'
	DB	00H						; `string'
CONST	ENDS
;	COMDAT ??_C@_0BH@IHEOGBBB@ITEM_AURA_BOOST_STRONG@
CONST	SEGMENT
??_C@_0BH@IHEOGBBB@ITEM_AURA_BOOST_STRONG@ DB 'ITEM_AURA_BOOST_STRONG', 00H ; `string'
CONST	ENDS
;	COMDAT ??_C@_0BH@KKPHDIDK@ITEM_AURA_BOOST_NORMAL@
CONST	SEGMENT
??_C@_0BH@KKPHDIDK@ITEM_AURA_BOOST_NORMAL@ DB 'ITEM_AURA_BOOST_NORMAL', 00H ; `string'
CONST	ENDS
;	COMDAT ??_C@_0BF@FNDAMKGI@ITEM_AURA_BOOST_WEAK@
CONST	SEGMENT
??_C@_0BF@FNDAMKGI@ITEM_AURA_BOOST_WEAK@ DB 'ITEM_AURA_BOOST_WEAK', 00H ; `string'
CONST	ENDS
;	COMDAT ??_C@_0BH@FDHGCHHI@ITEM_AURA_BOOST_ERASER@
CONST	SEGMENT
??_C@_0BH@FDHGCHHI@ITEM_AURA_BOOST_ERASER@ DB 'ITEM_AURA_BOOST_ERASER', 00H ; `string'
CONST	ENDS
;	COMDAT ??_C@_0BK@NLOOLJEK@AURA_BOOST_ITEM_VNUM_BASE@
CONST	SEGMENT
??_C@_0BK@NLOOLJEK@AURA_BOOST_ITEM_VNUM_BASE@ DB 'AURA_BOOST_ITEM_VNUM_BA'
	DB	'SE', 00H					; `string'
CONST	ENDS
;	COMDAT ??_C@_0BD@HJLOCD@AURA_GRADE_MAX_NUM@
CONST	SEGMENT
??_C@_0BD@HJLOCD@AURA_GRADE_MAX_NUM@ DB 'AURA_GRADE_MAX_NUM', 00H ; `string'
CONST	ENDS
;	COMDAT ??_C@_0BD@ONEGMILJ@AURA_GRADE_RADIANT@
CONST	SEGMENT
??_C@_0BD@ONEGMILJ@AURA_GRADE_RADIANT@ DB 'AURA_GRADE_RADIANT', 00H ; `string'
CONST	ENDS
;	COMDAT ??_C@_0BH@DOIMOCHC@AURA_GRADE_MAGNIFICENT@
CONST	SEGMENT
??_C@_0BH@DOIMOCHC@AURA_GRADE_MAGNIFICENT@ DB 'AURA_GRADE_MAGNIFICENT', 00H ; `string'
CONST	ENDS
;	COMDAT ??_C@_0BF@GFOMMPCF@AURA_GRADE_SPARKLING@
CONST	SEGMENT
??_C@_0BF@GFOMMPCF@AURA_GRADE_SPARKLING@ DB 'AURA_GRADE_SPARKLING', 00H ; `string'
CONST	ENDS
;	COMDAT ??_C@_0BB@ICAOLOOJ@AURA_GRADE_NOBLE@
CONST	SEGMENT
??_C@_0BB@ICAOLOOJ@AURA_GRADE_NOBLE@ DB 'AURA_GRADE_NOBLE', 00H ; `string'
CONST	ENDS
;	COMDAT ??_C@_0BC@BDEELFEI@AURA_GRADE_SIMPLE@
CONST	SEGMENT
??_C@_0BC@BDEELFEI@AURA_GRADE_SIMPLE@ DB 'AURA_GRADE_SIMPLE', 00H ; `string'
CONST	ENDS
;	COMDAT ??_C@_0BE@KICMMDCG@AURA_GRADE_ORDINARY@
CONST	SEGMENT
??_C@_0BE@KICMMDCG@AURA_GRADE_ORDINARY@ DB 'AURA_GRADE_ORDINARY', 00H ; `string'
CONST	ENDS
;	COMDAT ??_C@_0BA@NICENPGE@AURA_GRADE_NONE@
CONST	SEGMENT
??_C@_0BA@NICENPGE@AURA_GRADE_NONE@ DB 'AURA_GRADE_NONE', 00H ; `string'
CONST	ENDS
;	COMDAT ??_C@_0O@BGKMMFJI@RESOURCE_AURA@
CONST	SEGMENT
??_C@_0O@BGKMMFJI@RESOURCE_AURA@ DB 'RESOURCE_AURA', 00H ; `string'
CONST	ENDS
;	COMDAT ??_C@_0BE@FMIKIPNL@APPLY_ATTBONUS_BOSS@
CONST	SEGMENT
??_C@_0BE@FMIKIPNL@APPLY_ATTBONUS_BOSS@ DB 'APPLY_ATTBONUS_BOSS', 00H ; `string'
CONST	ENDS
;	COMDAT ??_C@_0BF@EICHFHDD@APPLY_ATTBONUS_METIN@
CONST	SEGMENT
??_C@_0BF@EICHFHDD@APPLY_ATTBONUS_METIN@ DB 'APPLY_ATTBONUS_METIN', 00H ; `string'
CONST	ENDS
;	COMDAT ??_C@_0BF@DJOKGBBD@APPLY_ACCEDRAIN_RATE@
CONST	SEGMENT
??_C@_0BF@DJOKGBBD@APPLY_ACCEDRAIN_RATE@ DB 'APPLY_ACCEDRAIN_RATE', 00H ; `string'
CONST	ENDS
;	COMDAT ??_C@_0BE@LAMMPPCG@APPLY_ATTBONUS_DARK@
CONST	SEGMENT
??_C@_0BE@LAMMPPCG@APPLY_ATTBONUS_DARK@ DB 'APPLY_ATTBONUS_DARK', 00H ; `string'
CONST	ENDS
;	COMDAT ??_C@_0BF@DGDLLLOH@APPLY_ATTBONUS_EARTH@
CONST	SEGMENT
??_C@_0BF@DGDLLLOH@APPLY_ATTBONUS_EARTH@ DB 'APPLY_ATTBONUS_EARTH', 00H ; `string'
CONST	ENDS
;	COMDAT ??_C@_0BE@MAJMHMEA@APPLY_ATTBONUS_WIND@
CONST	SEGMENT
??_C@_0BE@MAJMHMEA@APPLY_ATTBONUS_WIND@ DB 'APPLY_ATTBONUS_WIND', 00H ; `string'
CONST	ENDS
;	COMDAT ??_C@_0BD@JAEBEEH@APPLY_ATTBONUS_ICE@
CONST	SEGMENT
??_C@_0BD@JAEBEEH@APPLY_ATTBONUS_ICE@ DB 'APPLY_ATTBONUS_ICE', 00H ; `string'
CONST	ENDS
;	COMDAT ??_C@_0BE@JBDLKJCH@APPLY_ATTBONUS_FIRE@
CONST	SEGMENT
??_C@_0BE@JBDLKJCH@APPLY_ATTBONUS_FIRE@ DB 'APPLY_ATTBONUS_FIRE', 00H ; `string'
CONST	ENDS
;	COMDAT ??_C@_0BE@KOHGDBLG@APPLY_ATTBONUS_ELEC@
CONST	SEGMENT
??_C@_0BE@KOHGDBLG@APPLY_ATTBONUS_ELEC@ DB 'APPLY_ATTBONUS_ELEC', 00H ; `string'
CONST	ENDS
;	COMDAT ??_C@_0BJ@FKDKMNNK@APPLY_ANTI_PENETRATE_PCT@
CONST	SEGMENT
??_C@_0BJ@FKDKMNNK@APPLY_ANTI_PENETRATE_PCT@ DB 'APPLY_ANTI_PENETRATE_PCT'
	DB	00H						; `string'
CONST	ENDS
;	COMDAT ??_C@_0BI@KIMFHHIO@APPLY_ANTI_CRITICAL_PCT@
CONST	SEGMENT
??_C@_0BI@KIMFHHIO@APPLY_ANTI_CRITICAL_PCT@ DB 'APPLY_ANTI_CRITICAL_PCT', 00H ; `string'
CONST	ENDS
;	COMDAT ??_C@_0BC@DDBEBBJF@APPLY_RESIST_DARK@
CONST	SEGMENT
??_C@_0BC@DDBEBBJF@APPLY_RESIST_DARK@ DB 'APPLY_RESIST_DARK', 00H ; `string'
CONST	ENDS
;	COMDAT ??_C@_0BD@GENAIBDP@APPLY_RESIST_EARTH@
CONST	SEGMENT
??_C@_0BD@GENAIBDP@APPLY_RESIST_EARTH@ DB 'APPLY_RESIST_EARTH', 00H ; `string'
CONST	ENDS
;	COMDAT ??_C@_0BB@CGPGAFA@APPLY_RESIST_ICE@
CONST	SEGMENT
??_C@_0BB@CGPGAFA@APPLY_RESIST_ICE@ DB 'APPLY_RESIST_ICE', 00H ; `string'
CONST	ENDS
;	COMDAT ??_C@_0BP@MGKGKJGA@APPLY_MELEE_MAGIC_ATTBONUS_PER@
CONST	SEGMENT
??_C@_0BP@MGKGKJGA@APPLY_MELEE_MAGIC_ATTBONUS_PER@ DB 'APPLY_MELEE_MAGIC_'
	DB	'ATTBONUS_PER', 00H				; `string'
CONST	ENDS
;	COMDAT ??_C@_0BJ@JJJKDKFC@APPLY_MAGIC_ATTBONUS_PER@
CONST	SEGMENT
??_C@_0BJ@JJJKDKFC@APPLY_MAGIC_ATTBONUS_PER@ DB 'APPLY_MAGIC_ATTBONUS_PER'
	DB	00H						; `string'
CONST	ENDS
;	COMDAT ??_C@_0BJ@IGOAELFN@APPLY_COSTUME_ATTR_BONUS@
CONST	SEGMENT
??_C@_0BJ@IGOAELFN@APPLY_COSTUME_ATTR_BONUS@ DB 'APPLY_COSTUME_ATTR_BONUS'
	DB	00H						; `string'
CONST	ENDS
;	COMDAT ??_C@_0N@MOPONLJI@APPLY_ENERGY@
CONST	SEGMENT
??_C@_0N@MOPONLJI@APPLY_ENERGY@ DB 'APPLY_ENERGY', 00H	; `string'
CONST	ENDS
;	COMDAT ??_C@_0BE@POHJKJMD@APPLY_RESIST_SHAMAN@
CONST	SEGMENT
??_C@_0BE@POHJKJMD@APPLY_RESIST_SHAMAN@ DB 'APPLY_RESIST_SHAMAN', 00H ; `string'
CONST	ENDS
;	COMDAT ??_C@_0BC@MEEAHCEF@APPLY_RESIST_SURA@
CONST	SEGMENT
??_C@_0BC@MEEAHCEF@APPLY_RESIST_SURA@ DB 'APPLY_RESIST_SURA', 00H ; `string'
CONST	ENDS
;	COMDAT ??_C@_0BG@MCFLPEMK@APPLY_RESIST_ASSASSIN@
CONST	SEGMENT
??_C@_0BG@MCFLPEMK@APPLY_RESIST_ASSASSIN@ DB 'APPLY_RESIST_ASSASSIN', 00H ; `string'
CONST	ENDS
;	COMDAT ??_C@_0BF@DIEIKMOC@APPLY_RESIST_WARRIOR@
CONST	SEGMENT
??_C@_0BF@DIEIKMOC@APPLY_RESIST_WARRIOR@ DB 'APPLY_RESIST_WARRIOR', 00H ; `string'
CONST	ENDS
;	COMDAT ??_C@_0BO@OAPOHFCD@APPLY_NORMAL_HIT_DEFEND_BONUS@
CONST	SEGMENT
??_C@_0BO@OAPOHFCD@APPLY_NORMAL_HIT_DEFEND_BONUS@ DB 'APPLY_NORMAL_HIT_DE'
	DB	'FEND_BONUS', 00H				; `string'
CONST	ENDS
;	COMDAT ??_C@_0BJ@MCFLODEL@APPLY_SKILL_DEFEND_BONUS@
CONST	SEGMENT
??_C@_0BJ@MCFLODEL@APPLY_SKILL_DEFEND_BONUS@ DB 'APPLY_SKILL_DEFEND_BONUS'
	DB	00H						; `string'
CONST	ENDS
;	COMDAT ??_C@_0BO@KJDLNPKH@APPLY_NORMAL_HIT_DAMAGE_BONUS@
CONST	SEGMENT
??_C@_0BO@KJDLNPKH@APPLY_NORMAL_HIT_DAMAGE_BONUS@ DB 'APPLY_NORMAL_HIT_DA'
	DB	'MAGE_BONUS', 00H				; `string'
CONST	ENDS
;	COMDAT ??_C@_0BJ@ILJOEJMP@APPLY_SKILL_DAMAGE_BONUS@
CONST	SEGMENT
??_C@_0BJ@ILJOEJMP@APPLY_SKILL_DAMAGE_BONUS@ DB 'APPLY_SKILL_DAMAGE_BONUS'
	DB	00H						; `string'
CONST	ENDS
;	COMDAT ??_C@_0BB@OLFCCPEF@APPLY_MAX_SP_PCT@
CONST	SEGMENT
??_C@_0BB@OLFCCPEF@APPLY_MAX_SP_PCT@ DB 'APPLY_MAX_SP_PCT', 00H ; `string'
CONST	ENDS
;	COMDAT ??_C@_0BB@IOILOHHB@APPLY_MAX_HP_PCT@
CONST	SEGMENT
??_C@_0BB@IOILOHHB@APPLY_MAX_HP_PCT@ DB 'APPLY_MAX_HP_PCT', 00H ; `string'
CONST	ENDS
;	COMDAT ??_C@_0BF@CNKLONKF@APPLY_MALL_GOLDBONUS@
CONST	SEGMENT
??_C@_0BF@CNKLONKF@APPLY_MALL_GOLDBONUS@ DB 'APPLY_MALL_GOLDBONUS', 00H ; `string'
CONST	ENDS
;	COMDAT ??_C@_0BF@JHCAFPEC@APPLY_MALL_ITEMBONUS@
CONST	SEGMENT
??_C@_0BF@JHCAFPEC@APPLY_MALL_ITEMBONUS@ DB 'APPLY_MALL_ITEMBONUS', 00H ; `string'
CONST	ENDS
;	COMDAT ??_C@_0BE@HDMKGFGB@APPLY_MALL_EXPBONUS@
CONST	SEGMENT
??_C@_0BE@HDMKGFGB@APPLY_MALL_EXPBONUS@ DB 'APPLY_MALL_EXPBONUS', 00H ; `string'
CONST	ENDS
;	COMDAT ??_C@_0BE@IHABPMCM@APPLY_MALL_DEFBONUS@
CONST	SEGMENT
??_C@_0BE@IHABPMCM@APPLY_MALL_DEFBONUS@ DB 'APPLY_MALL_DEFBONUS', 00H ; `string'
CONST	ENDS
;	COMDAT ??_C@_0BE@INMGAFDB@APPLY_MALL_ATTBONUS@
CONST	SEGMENT
??_C@_0BE@INMGAFDB@APPLY_MALL_ATTBONUS@ DB 'APPLY_MALL_ATTBONUS', 00H ; `string'
CONST	ENDS
;	COMDAT ??_C@_0BH@OMHBNPNG@APPLY_ATTBONUS_MONSTER@
CONST	SEGMENT
??_C@_0BH@OMHBNPNG@APPLY_ATTBONUS_MONSTER@ DB 'APPLY_ATTBONUS_MONSTER', 00H ; `string'
CONST	ENDS
;	COMDAT ??_C@_0BG@HGCDBIBP@APPLY_ATTBONUS_SHAMAN@
CONST	SEGMENT
??_C@_0BG@HGCDBIBP@APPLY_ATTBONUS_SHAMAN@ DB 'APPLY_ATTBONUS_SHAMAN', 00H ; `string'
CONST	ENDS
;	COMDAT ??_C@_0BE@EHJIJMPG@APPLY_ATTBONUS_SURA@
CONST	SEGMENT
??_C@_0BE@EHJIJMPG@APPLY_ATTBONUS_SURA@ DB 'APPLY_ATTBONUS_SURA', 00H ; `string'
CONST	ENDS
;	COMDAT ??_C@_0BI@FDLAHFJJ@APPLY_ATTBONUS_ASSASSIN@
CONST	SEGMENT
??_C@_0BI@FDLAHFJJ@APPLY_ATTBONUS_ASSASSIN@ DB 'APPLY_ATTBONUS_ASSASSIN', 00H ; `string'
CONST	ENDS
;	COMDAT ??_C@_0BH@LHKFGIKM@APPLY_ATTBONUS_WARRIOR@
CONST	SEGMENT
??_C@_0BH@LHKFGIKM@APPLY_ATTBONUS_WARRIOR@ DB 'APPLY_ATTBONUS_WARRIOR', 00H ; `string'
CONST	ENDS
;	COMDAT ??_C@_0BC@MENAELHN@APPLY_MAX_STAMINA@
CONST	SEGMENT
??_C@_0BC@MENAELHN@APPLY_MAX_STAMINA@ DB 'APPLY_MAX_STAMINA', 00H ; `string'
CONST	ENDS
;	COMDAT ??_C@_0BC@ICOAEBEB@APPLY_IMMUNE_FALL@
CONST	SEGMENT
??_C@_0BC@ICOAEBEB@APPLY_IMMUNE_FALL@ DB 'APPLY_IMMUNE_FALL', 00H ; `string'
CONST	ENDS
;	COMDAT ??_C@_0BC@HDPKPEKN@APPLY_IMMUNE_SLOW@
CONST	SEGMENT
??_C@_0BC@HDPKPEKN@APPLY_IMMUNE_SLOW@ DB 'APPLY_IMMUNE_SLOW', 00H ; `string'
CONST	ENDS
;	COMDAT ??_C@_0BC@GMOGAEGD@APPLY_IMMUNE_STUN@
CONST	SEGMENT
??_C@_0BC@GMOGAEGD@APPLY_IMMUNE_STUN@ DB 'APPLY_IMMUNE_STUN', 00H ; `string'
CONST	ENDS
;	COMDAT ??_C@_0BG@FNNLKJON@APPLY_KILL_HP_RECOVER@
CONST	SEGMENT
??_C@_0BG@FNNLKJON@APPLY_KILL_HP_RECOVER@ DB 'APPLY_KILL_HP_RECOVER', 00H ; `string'
CONST	ENDS
;	COMDAT ??_C@_0BD@HAABJCED@APPLY_POTION_BONUS@
CONST	SEGMENT
??_C@_0BD@HAABJCED@APPLY_POTION_BONUS@ DB 'APPLY_POTION_BONUS', 00H ; `string'
CONST	ENDS
;	COMDAT ??_C@_0BG@GJLPLNJK@APPLY_ITEM_DROP_BONUS@
CONST	SEGMENT
??_C@_0BG@GJLPLNJK@APPLY_ITEM_DROP_BONUS@ DB 'APPLY_ITEM_DROP_BONUS', 00H ; `string'
CONST	ENDS
;	COMDAT ??_C@_0BI@CPGCKKHM@APPLY_GOLD_DOUBLE_BONUS@
CONST	SEGMENT
??_C@_0BI@CPGCKKHM@APPLY_GOLD_DOUBLE_BONUS@ DB 'APPLY_GOLD_DOUBLE_BONUS', 00H ; `string'
CONST	ENDS
;	COMDAT ??_C@_0BH@BOFCHNGC@APPLY_EXP_DOUBLE_BONUS@
CONST	SEGMENT
??_C@_0BH@BOFCHNGC@APPLY_EXP_DOUBLE_BONUS@ DB 'APPLY_EXP_DOUBLE_BONUS', 00H ; `string'
CONST	ENDS
;	COMDAT ??_C@_0BG@NAAMOKGC@APPLY_KILL_SP_RECOVER@
CONST	SEGMENT
??_C@_0BG@NAAMOKGC@APPLY_KILL_SP_RECOVER@ DB 'APPLY_KILL_SP_RECOVER', 00H ; `string'
CONST	ENDS
;	COMDAT ??_C@_0BE@CMJGNONM@APPLY_POISON_REDUCE@
CONST	SEGMENT
??_C@_0BE@CMJGNONM@APPLY_POISON_REDUCE@ DB 'APPLY_POISON_REDUCE', 00H ; `string'
CONST	ENDS
;	COMDAT ??_C@_0BE@GIMFBPMF@APPLY_REFLECT_CURSE@
CONST	SEGMENT
??_C@_0BE@GIMFBPMF@APPLY_REFLECT_CURSE@ DB 'APPLY_REFLECT_CURSE', 00H ; `string'
CONST	ENDS
;	COMDAT ??_C@_0BE@JKECBGFJ@APPLY_REFLECT_MELEE@
CONST	SEGMENT
??_C@_0BE@JKECBGFJ@APPLY_REFLECT_MELEE@ DB 'APPLY_REFLECT_MELEE', 00H ; `string'
CONST	ENDS
;	COMDAT ??_C@_0BC@EDEEJCPD@APPLY_RESIST_WIND@
CONST	SEGMENT
??_C@_0BC@EDEEJCPD@APPLY_RESIST_WIND@ DB 'APPLY_RESIST_WIND', 00H ; `string'
CONST	ENDS
;	COMDAT ??_C@_0BB@LKHMHNKD@APPLY_RESIST_FAN@
CONST	SEGMENT
??_C@_0BB@LKHMHNKD@APPLY_RESIST_FAN@ DB 'APPLY_RESIST_FAN', 00H ; `string'
CONST	ENDS
;	COMDAT ??_C@_0BC@GKMPGLNP@APPLY_RESIST_BELL@
CONST	SEGMENT
??_C@_0BC@GKMPGLNP@APPLY_RESIST_BELL@ DB 'APPLY_RESIST_BELL', 00H ; `string'
CONST	ENDS
;	COMDAT ??_C@_0BE@HKIMLKAO@APPLY_RESIST_DAGGER@
CONST	SEGMENT
??_C@_0BE@HKIMLKAO@APPLY_RESIST_DAGGER@ DB 'APPLY_RESIST_DAGGER', 00H ; `string'
CONST	ENDS
;	COMDAT ??_C@_0BF@PPDPGLJM@APPLY_RESIST_TWOHAND@
CONST	SEGMENT
??_C@_0BF@PPDPGLJM@APPLY_RESIST_TWOHAND@ DB 'APPLY_RESIST_TWOHAND', 00H ; `string'
CONST	ENDS
;	COMDAT ??_C@_0BD@FELELOGH@APPLY_RESIST_SWORD@
CONST	SEGMENT
??_C@_0BD@FELELOGH@APPLY_RESIST_SWORD@ DB 'APPLY_RESIST_SWORD', 00H ; `string'
CONST	ENDS
;	COMDAT ??_C@_0M@OLNDHAEO@APPLY_DODGE@
CONST	SEGMENT
??_C@_0M@OLNDHAEO@APPLY_DODGE@ DB 'APPLY_DODGE', 00H	; `string'
CONST	ENDS
;	COMDAT ??_C@_0M@DEKBOLNA@APPLY_BLOCK@
CONST	SEGMENT
??_C@_0M@DEKBOLNA@APPLY_BLOCK@ DB 'APPLY_BLOCK', 00H	; `string'
CONST	ENDS
;	COMDAT ??_C@_0BI@CNPFJGMF@APPLY_DAMAGE_SP_RECOVER@
CONST	SEGMENT
??_C@_0BI@CNPFJGMF@APPLY_DAMAGE_SP_RECOVER@ DB 'APPLY_DAMAGE_SP_RECOVER', 00H ; `string'
CONST	ENDS
;	COMDAT ??_C@_0BE@MMJAOBJI@APPLY_MANA_BURN_PCT@
CONST	SEGMENT
??_C@_0BE@MMJAOBJI@APPLY_MANA_BURN_PCT@ DB 'APPLY_MANA_BURN_PCT', 00H ; `string'
CONST	ENDS
;	COMDAT ??_C@_0P@JJIAAAON@APPLY_STEAL_SP@
CONST	SEGMENT
??_C@_0P@JJIAAAON@APPLY_STEAL_SP@ DB 'APPLY_STEAL_SP', 00H ; `string'
CONST	ENDS
;	COMDAT ??_C@_0P@IJPDEMHM@APPLY_STEAL_HP@
CONST	SEGMENT
??_C@_0P@IJPDEMHM@APPLY_STEAL_HP@ DB 'APPLY_STEAL_HP', 00H ; `string'
CONST	ENDS
;	COMDAT ??_C@_0BG@BGJNMLHF@APPLY_ATTBONUS_MILGYO@
CONST	SEGMENT
??_C@_0BG@BGJNMLHF@APPLY_ATTBONUS_MILGYO@ DB 'APPLY_ATTBONUS_MILGYO', 00H ; `string'
CONST	ENDS
;	COMDAT ??_C@_0BD@GHNBCFFK@APPLY_ATTBONUS_ORC@
CONST	SEGMENT
??_C@_0BD@GHNBCFFK@APPLY_ATTBONUS_ORC@ DB 'APPLY_ATTBONUS_ORC', 00H ; `string'
CONST	ENDS
;	COMDAT ??_C@_0BE@MIHOPHBF@APPLY_PENETRATE_PCT@
CONST	SEGMENT
??_C@_0BE@MIHOPHBF@APPLY_PENETRATE_PCT@ DB 'APPLY_PENETRATE_PCT', 00H ; `string'
CONST	ENDS
;	COMDAT ??_C@_0BD@DOHBCDEC@APPLY_CRITICAL_PCT@
CONST	SEGMENT
??_C@_0BD@DOHBCDEC@APPLY_CRITICAL_PCT@ DB 'APPLY_CRITICAL_PCT', 00H ; `string'
CONST	ENDS
;	COMDAT ??_C@_0P@IGBLFIG@APPLY_STUN_PCT@
CONST	SEGMENT
??_C@_0P@IGBLFIG@APPLY_STUN_PCT@ DB 'APPLY_STUN_PCT', 00H ; `string'
CONST	ENDS
;	COMDAT ??_C@_0P@EAEIAPML@APPLY_SLOW_PCT@
CONST	SEGMENT
??_C@_0P@EAEIAPML@APPLY_SLOW_PCT@ DB 'APPLY_SLOW_PCT', 00H ; `string'
CONST	ENDS
;	COMDAT ??_C@_0BB@OFEPEABG@APPLY_POISON_PCT@
CONST	SEGMENT
??_C@_0BB@OFEPEABG@APPLY_POISON_PCT@ DB 'APPLY_POISON_PCT', 00H ; `string'
CONST	ENDS
;	COMDAT ??_C@_0BD@BIEOENBH@APPLY_RESIST_MAGIC@
CONST	SEGMENT
??_C@_0BD@BIEOENBH@APPLY_RESIST_MAGIC@ DB 'APPLY_RESIST_MAGIC', 00H ; `string'
CONST	ENDS
;	COMDAT ??_C@_0BC@CNKONPAF@APPLY_RESIST_ELEC@
CONST	SEGMENT
??_C@_0BC@CNKONPAF@APPLY_RESIST_ELEC@ DB 'APPLY_RESIST_ELEC', 00H ; `string'
CONST	ENDS
;	COMDAT ??_C@_0BC@BCODEHJE@APPLY_RESIST_FIRE@
CONST	SEGMENT
??_C@_0BC@BCODEHJE@APPLY_RESIST_FIRE@ DB 'APPLY_RESIST_FIRE', 00H ; `string'
CONST	ENDS
;	COMDAT ??_C@_0BB@KEIAGOOG@APPLY_RESIST_BOW@
CONST	SEGMENT
??_C@_0BB@KEIAGOOG@APPLY_RESIST_BOW@ DB 'APPLY_RESIST_BOW', 00H ; `string'
CONST	ENDS
;	COMDAT ??_C@_0BD@DGLENODO@APPLY_BOW_DISTANCE@
CONST	SEGMENT
??_C@_0BD@DGLENODO@APPLY_BOW_DISTANCE@ DB 'APPLY_BOW_DISTANCE', 00H ; `string'
CONST	ENDS
;	COMDAT ??_C@_0BF@FLAIBIKP@APPLY_ATTBONUS_HUMAN@
CONST	SEGMENT
??_C@_0BF@FLAIBIKP@APPLY_ATTBONUS_HUMAN@ DB 'APPLY_ATTBONUS_HUMAN', 00H ; `string'
CONST	ENDS
;	COMDAT ??_C@_0BF@PHBHKMPC@APPLY_ATTBONUS_DEVIL@
CONST	SEGMENT
??_C@_0BF@PHBHKMPC@APPLY_ATTBONUS_DEVIL@ DB 'APPLY_ATTBONUS_DEVIL', 00H ; `string'
CONST	ENDS
;	COMDAT ??_C@_0BG@DEBBIBCN@APPLY_ATTBONUS_UNDEAD@
CONST	SEGMENT
??_C@_0BG@DEBBIBCN@APPLY_ATTBONUS_UNDEAD@ DB 'APPLY_ATTBONUS_UNDEAD', 00H ; `string'
CONST	ENDS
;	COMDAT ??_C@_0BG@FCHNFPKG@APPLY_ATTBONUS_ANIMAL@
CONST	SEGMENT
??_C@_0BG@FCHNFPKG@APPLY_ATTBONUS_ANIMAL@ DB 'APPLY_ATTBONUS_ANIMAL', 00H ; `string'
CONST	ENDS
;	COMDAT ??_C@_0M@CPHNGINI@APPLY_SKILL@
CONST	SEGMENT
??_C@_0M@CPHNGINI@APPLY_SKILL@ DB 'APPLY_SKILL', 00H	; `string'
CONST	ENDS
;	COMDAT ??_C@_0BG@PLJBHAML@APPLY_MAGIC_DEF_GRADE@
CONST	SEGMENT
??_C@_0BG@PLJBHAML@APPLY_MAGIC_DEF_GRADE@ DB 'APPLY_MAGIC_DEF_GRADE', 00H ; `string'
CONST	ENDS
;	COMDAT ??_C@_0BG@JIJNNLOL@APPLY_MAGIC_ATT_GRADE@
CONST	SEGMENT
??_C@_0BG@JIJNNLOL@APPLY_MAGIC_ATT_GRADE@ DB 'APPLY_MAGIC_ATT_GRADE', 00H ; `string'
CONST	ENDS
;	COMDAT ??_C@_0BB@IMPHMAIN@APPLY_CAST_SPEED@
CONST	SEGMENT
??_C@_0BB@IMPHMAIN@APPLY_CAST_SPEED@ DB 'APPLY_CAST_SPEED', 00H ; `string'
CONST	ENDS
;	COMDAT ??_C@_0BA@IHFPGGCP@APPLY_MOV_SPEED@
CONST	SEGMENT
??_C@_0BA@IHFPGGCP@APPLY_MOV_SPEED@ DB 'APPLY_MOV_SPEED', 00H ; `string'
CONST	ENDS
;	COMDAT ??_C@_0BA@PBNDFNHA@APPLY_ATT_SPEED@
CONST	SEGMENT
??_C@_0BA@PBNDFNHA@APPLY_ATT_SPEED@ DB 'APPLY_ATT_SPEED', 00H ; `string'
CONST	ENDS
;	COMDAT ??_C@_0BG@DIKOCKN@APPLY_ATT_GRADE_BONUS@
CONST	SEGMENT
??_C@_0BG@DIKOCKN@APPLY_ATT_GRADE_BONUS@ DB 'APPLY_ATT_GRADE_BONUS', 00H ; `string'
CONST	ENDS
;	COMDAT ??_C@_0BG@DJGIDNN@APPLY_DEF_GRADE_BONUS@
CONST	SEGMENT
??_C@_0BG@DJGIDNN@APPLY_DEF_GRADE_BONUS@ DB 'APPLY_DEF_GRADE_BONUS', 00H ; `string'
CONST	ENDS
;	COMDAT ??_C@_0P@PHBEALO@APPLY_SP_REGEN@
CONST	SEGMENT
??_C@_0P@PHBEALO@APPLY_SP_REGEN@ DB 'APPLY_SP_REGEN', 00H ; `string'
CONST	ENDS
;	COMDAT ??_C@_0P@CBOEJMBC@APPLY_HP_REGEN@
CONST	SEGMENT
??_C@_0P@CBOEJMBC@APPLY_HP_REGEN@ DB 'APPLY_HP_REGEN', 00H ; `string'
CONST	ENDS
;	COMDAT ??_C@_0N@KMLABMCB@APPLY_MAX_SP@
CONST	SEGMENT
??_C@_0N@KMLABMCB@APPLY_MAX_SP@ DB 'APPLY_MAX_SP', 00H	; `string'
CONST	ENDS
;	COMDAT ??_C@_0N@LMMDFALA@APPLY_MAX_HP@
CONST	SEGMENT
??_C@_0N@LMMDFALA@APPLY_MAX_HP@ DB 'APPLY_MAX_HP', 00H	; `string'
CONST	ENDS
;	COMDAT ??_C@_09BKNPHIKC@APPLY_INT@
CONST	SEGMENT
??_C@_09BKNPHIKC@APPLY_INT@ DB 'APPLY_INT', 00H		; `string'
CONST	ENDS
;	COMDAT ??_C@_09MEINAICK@APPLY_CON@
CONST	SEGMENT
??_C@_09MEINAICK@APPLY_CON@ DB 'APPLY_CON', 00H		; `string'
CONST	ENDS
;	COMDAT ??_C@_09EIFFAAJC@APPLY_DEX@
CONST	SEGMENT
??_C@_09EIFFAAJC@APPLY_DEX@ DB 'APPLY_DEX', 00H		; `string'
CONST	ENDS
;	COMDAT ??_C@_09GCJAEOHJ@APPLY_STR@
CONST	SEGMENT
??_C@_09GCJAEOHJ@APPLY_STR@ DB 'APPLY_STR', 00H		; `string'
CONST	ENDS
;	COMDAT ??_C@_0L@KOOBDLCP@APPLY_NONE@
CONST	SEGMENT
??_C@_0L@KOOBDLCP@APPLY_NONE@ DB 'APPLY_NONE', 00H	; `string'
CONST	ENDS
;	COMDAT ??_C@_0BE@PABFDMOM@ITEM_SOCKET_MAX_NUM@
CONST	SEGMENT
??_C@_0BE@PABFDMOM@ITEM_SOCKET_MAX_NUM@ DB 'ITEM_SOCKET_MAX_NUM', 00H ; `string'
CONST	ENDS
;	COMDAT ??_C@_0BD@POBJPMPE@ITEM_APPLY_MAX_NUM@
CONST	SEGMENT
??_C@_0BD@POBJPMPE@ITEM_APPLY_MAX_NUM@ DB 'ITEM_APPLY_MAX_NUM', 00H ; `string'
CONST	ENDS
;	COMDAT ??_C@_0O@DMBNKKCP@ARMOR_PENDANT@
CONST	SEGMENT
??_C@_0O@DMBNKKCP@ARMOR_PENDANT@ DB 'ARMOR_PENDANT', 00H ; `string'
CONST	ENDS
;	COMDAT ??_C@_0L@IBADOHDG@ARMOR_BELT@
CONST	SEGMENT
??_C@_0L@IBADOHDG@ARMOR_BELT@ DB 'ARMOR_BELT', 00H	; `string'
CONST	ENDS
;	COMDAT ??_C@_09JPGIMBID@ARMOR_EAR@
CONST	SEGMENT
??_C@_09JPGIMBID@ARMOR_EAR@ DB 'ARMOR_EAR', 00H		; `string'
CONST	ENDS
;	COMDAT ??_C@_0L@ICPFEDJE@ARMOR_NECK@
CONST	SEGMENT
??_C@_0L@ICPFEDJE@ARMOR_NECK@ DB 'ARMOR_NECK', 00H	; `string'
CONST	ENDS
;	COMDAT ??_C@_0M@JNDJGNLA@ARMOR_FOOTS@
CONST	SEGMENT
??_C@_0M@JNDJGNLA@ARMOR_FOOTS@ DB 'ARMOR_FOOTS', 00H	; `string'
CONST	ENDS
;	COMDAT ??_C@_0M@KCKGDACD@ARMOR_WRIST@
CONST	SEGMENT
??_C@_0M@KCKGDACD@ARMOR_WRIST@ DB 'ARMOR_WRIST', 00H	; `string'
CONST	ENDS
;	COMDAT ??_C@_0N@HJFKCCG@ARMOR_SHIELD@
CONST	SEGMENT
??_C@_0N@HJFKCCG@ARMOR_SHIELD@ DB 'ARMOR_SHIELD', 00H	; `string'
CONST	ENDS
;	COMDAT ??_C@_0L@IJKJHOJF@ARMOR_HEAD@
CONST	SEGMENT
??_C@_0L@IJKJHOJF@ARMOR_HEAD@ DB 'ARMOR_HEAD', 00H	; `string'
CONST	ENDS
;	COMDAT ??_C@_0L@FFADCIKH@ARMOR_BODY@
CONST	SEGMENT
??_C@_0L@FFADCIKH@ARMOR_BODY@ DB 'ARMOR_BODY', 00H	; `string'
CONST	ENDS
;	COMDAT ??_C@_0BB@FEPBJJKM@WEARABLE_PENDANT@
CONST	SEGMENT
??_C@_0BB@FEPBJJKM@WEARABLE_PENDANT@ DB 'WEARABLE_PENDANT', 00H ; `string'
CONST	ENDS
;	COMDAT ??_C@_0O@HKFPGFDE@WEARABLE_BELT@
CONST	SEGMENT
??_C@_0O@HKFPGFDE@WEARABLE_BELT@ DB 'WEARABLE_BELT', 00H ; `string'
CONST	ENDS
;	COMDAT ??_C@_0P@CANFDFEC@WEARABLE_ARROW@
CONST	SEGMENT
??_C@_0P@CANFDFEC@WEARABLE_ARROW@ DB 'WEARABLE_ARROW', 00H ; `string'
CONST	ENDS
;	COMDAT ??_C@_0BA@DGBFNJPE@WEARABLE_SHIELD@
CONST	SEGMENT
??_C@_0BA@DGBFNJPE@WEARABLE_SHIELD@ DB 'WEARABLE_SHIELD', 00H ; `string'
CONST	ENDS
;	COMDAT ??_C@_0BA@FGALGGKF@WEARABLE_UNIQUE@
CONST	SEGMENT
??_C@_0BA@FGALGGKF@WEARABLE_UNIQUE@ DB 'WEARABLE_UNIQUE', 00H ; `string'
CONST	ENDS
;	COMDAT ??_C@_0N@BHKGKGNM@WEARABLE_EAR@
CONST	SEGMENT
??_C@_0N@BHKGKGNM@WEARABLE_EAR@ DB 'WEARABLE_EAR', 00H	; `string'
CONST	ENDS
;	COMDAT ??_C@_0O@HJKJMBJG@WEARABLE_NECK@
CONST	SEGMENT
??_C@_0O@HJKJMBJG@WEARABLE_NECK@ DB 'WEARABLE_NECK', 00H ; `string'
CONST	ENDS
;	COMDAT ??_C@_0BA@NBNKFEIG@WEARABLE_WEAPON@
CONST	SEGMENT
??_C@_0BA@NBNKFEIG@WEARABLE_WEAPON@ DB 'WEARABLE_WEAPON', 00H ; `string'
CONST	ENDS
;	COMDAT ??_C@_0P@EMFDANIN@WEARABLE_WRIST@
CONST	SEGMENT
??_C@_0P@EMFDANIN@WEARABLE_WRIST@ DB 'WEARABLE_WRIST', 00H ; `string'
CONST	ENDS
;	COMDAT ??_C@_0P@HDMMFABO@WEARABLE_FOOTS@
CONST	SEGMENT
??_C@_0P@HDMMFABO@WEARABLE_FOOTS@ DB 'WEARABLE_FOOTS', 00H ; `string'
CONST	ENDS
;	COMDAT ??_C@_0O@HCPFPMJH@WEARABLE_HEAD@
CONST	SEGMENT
??_C@_0O@HCPFPMJH@WEARABLE_HEAD@ DB 'WEARABLE_HEAD', 00H ; `string'
CONST	ENDS
;	COMDAT ??_C@_0O@KOFPKKKF@WEARABLE_BODY@
CONST	SEGMENT
??_C@_0O@KOFPKKKF@WEARABLE_BODY@ DB 'WEARABLE_BODY', 00H ; `string'
CONST	ENDS
;	COMDAT ??_C@_0BD@OJOBBEHO@ANTIFLAG_RT_REMOVE@
CONST	SEGMENT
??_C@_0BD@OJOBBEHO@ANTIFLAG_RT_REMOVE@ DB 'ANTIFLAG_RT_REMOVE', 00H ; `string'
CONST	ENDS
;	COMDAT ??_C@_0BB@GKJKKHEA@ANTIFLAG_DESTROY@
CONST	SEGMENT
??_C@_0BB@GKJKKHEA@ANTIFLAG_DESTROY@ DB 'ANTIFLAG_DESTROY', 00H ; `string'
CONST	ENDS
;	COMDAT ??_C@_0BB@KPDCPAKF@ANTIFLAG_SAFEBOX@
CONST	SEGMENT
??_C@_0BB@KPDCPAKF@ANTIFLAG_SAFEBOX@ DB 'ANTIFLAG_SAFEBOX', 00H ; `string'
CONST	ENDS
;	COMDAT ??_C@_0BA@BKNHAKOI@ANTIFLAG_MYSHOP@
CONST	SEGMENT
??_C@_0BA@BKNHAKOI@ANTIFLAG_MYSHOP@ DB 'ANTIFLAG_MYSHOP', 00H ; `string'
CONST	ENDS
;	COMDAT ??_C@_0P@DFNANGEL@ANTIFLAG_STACK@
CONST	SEGMENT
??_C@_0P@DFNANGEL@ANTIFLAG_STACK@ DB 'ANTIFLAG_STACK', 00H ; `string'
CONST	ENDS
;	COMDAT ??_C@_0BA@LPKEKIBP@ANTIFLAG_PKDROP@
CONST	SEGMENT
??_C@_0BA@LPKEKIBP@ANTIFLAG_PKDROP@ DB 'ANTIFLAG_PKDROP', 00H ; `string'
CONST	ENDS
;	COMDAT ??_C@_0O@PMFAIFED@ANTIFLAG_GIVE@
CONST	SEGMENT
??_C@_0O@PMFAIFED@ANTIFLAG_GIVE@ DB 'ANTIFLAG_GIVE', 00H ; `string'
CONST	ENDS
;	COMDAT ??_C@_0O@KMIEJMOO@ANTIFLAG_SAVE@
CONST	SEGMENT
??_C@_0O@KMIEJMOO@ANTIFLAG_SAVE@ DB 'ANTIFLAG_SAVE', 00H ; `string'
CONST	ENDS
;	COMDAT ??_C@_0BC@NPDFHMBJ@ANTIFLAG_EMPIRE_R@
CONST	SEGMENT
??_C@_0BC@NPDFHMBJ@ANTIFLAG_EMPIRE_R@ DB 'ANTIFLAG_EMPIRE_R', 00H ; `string'
CONST	ENDS
;	COMDAT ??_C@_0BC@JFPHGOEI@ANTIFLAG_EMPIRE_B@
CONST	SEGMENT
??_C@_0BC@JFPHGOEI@ANTIFLAG_EMPIRE_B@ DB 'ANTIFLAG_EMPIRE_B', 00H ; `string'
CONST	ENDS
;	COMDAT ??_C@_0BC@LONKDNIL@ANTIFLAG_EMPIRE_A@
CONST	SEGMENT
??_C@_0BC@LONKDNIL@ANTIFLAG_EMPIRE_A@ DB 'ANTIFLAG_EMPIRE_A', 00H ; `string'
CONST	ENDS
;	COMDAT ??_C@_0O@ODJFJGFG@ANTIFLAG_SELL@
CONST	SEGMENT
??_C@_0O@ODJFJGFG@ANTIFLAG_SELL@ DB 'ANTIFLAG_SELL', 00H ; `string'
CONST	ENDS
;	COMDAT ??_C@_0O@BIKKFBOG@ANTIFLAG_DROP@
CONST	SEGMENT
??_C@_0O@BIKKFBOG@ANTIFLAG_DROP@ DB 'ANTIFLAG_DROP', 00H ; `string'
CONST	ENDS
;	COMDAT ??_C@_0N@NEJHBBKC@ANTIFLAG_GET@
CONST	SEGMENT
??_C@_0N@NEJHBBKC@ANTIFLAG_GET@ DB 'ANTIFLAG_GET', 00H	; `string'
CONST	ENDS
;	COMDAT ??_C@_0BA@BGJNBKEA@ANTIFLAG_SHAMAN@
CONST	SEGMENT
??_C@_0BA@BGJNBKEA@ANTIFLAG_SHAMAN@ DB 'ANTIFLAG_SHAMAN', 00H ; `string'
CONST	ENDS
;	COMDAT ??_C@_0O@BAJKDBPO@ANTIFLAG_SURA@
CONST	SEGMENT
??_C@_0O@BAJKDBPO@ANTIFLAG_SURA@ DB 'ANTIFLAG_SURA', 00H ; `string'
CONST	ENDS
;	COMDAT ??_C@_0BC@IAJNDFJA@ANTIFLAG_ASSASSIN@
CONST	SEGMENT
??_C@_0BC@IAJNDFJA@ANTIFLAG_ASSASSIN@ DB 'ANTIFLAG_ASSASSIN', 00H ; `string'
CONST	ENDS
;	COMDAT ??_C@_0BB@EMBBJKML@ANTIFLAG_WARRIOR@
CONST	SEGMENT
??_C@_0BB@EMBBJKML@ANTIFLAG_WARRIOR@ DB 'ANTIFLAG_WARRIOR', 00H ; `string'
CONST	ENDS
;	COMDAT ??_C@_0O@GCOFJDKL@ANTIFLAG_MALE@
CONST	SEGMENT
??_C@_0O@GCOFJDKL@ANTIFLAG_MALE@ DB 'ANTIFLAG_MALE', 00H ; `string'
CONST	ENDS
;	COMDAT ??_C@_0BA@PLOPKCNG@ANTIFLAG_FEMALE@
CONST	SEGMENT
??_C@_0BA@PLOPKCNG@ANTIFLAG_FEMALE@ DB 'ANTIFLAG_FEMALE', 00H ; `string'
CONST	ENDS
;	COMDAT ??_C@_0BL@IPKGPKMA@ITEM_FLAG_CONFIRM_WHEN_USE@
CONST	SEGMENT
??_C@_0BL@IPKGPKMA@ITEM_FLAG_CONFIRM_WHEN_USE@ DB 'ITEM_FLAG_CONFIRM_WHEN'
	DB	'_USE', 00H					; `string'
CONST	ENDS
;	COMDAT ??_C@_0BB@PGFIBJHK@ITEM_FLAG_UNIQUE@
CONST	SEGMENT
??_C@_0BB@PGFIBJHK@ITEM_FLAG_UNIQUE@ DB 'ITEM_FLAG_UNIQUE', 00H ; `string'
CONST	ENDS
;	COMDAT ??_C@_0P@POCGDPPH@ITEM_FLAG_RARE@
CONST	SEGMENT
??_C@_0P@POCGDPPH@ITEM_FLAG_RARE@ DB 'ITEM_FLAG_RARE', 00H ; `string'
CONST	ENDS
;	COMDAT ??_C@_0BE@LJENCJCN@ITEM_FLAG_STACKABLE@
CONST	SEGMENT
??_C@_0BE@LJENCJCN@ITEM_FLAG_STACKABLE@ DB 'ITEM_FLAG_STACKABLE', 00H ; `string'
CONST	ENDS
;	COMDAT ??_C@_0BI@JFGOOGEF@ITEM_ANTIFLAG_RT_REMOVE@
CONST	SEGMENT
??_C@_0BI@JFGOOGEF@ITEM_ANTIFLAG_RT_REMOVE@ DB 'ITEM_ANTIFLAG_RT_REMOVE', 00H ; `string'
CONST	ENDS
;	COMDAT ??_C@_0BG@MEIFFJLC@ITEM_ANTIFLAG_DESTROY@
CONST	SEGMENT
??_C@_0BG@MEIFFJLC@ITEM_ANTIFLAG_DESTROY@ DB 'ITEM_ANTIFLAG_DESTROY', 00H ; `string'
CONST	ENDS
;	COMDAT ??_C@_0BG@BCNAOFH@ITEM_ANTIFLAG_SAFEBOX@
CONST	SEGMENT
??_C@_0BG@BCNAOFH@ITEM_ANTIFLAG_SAFEBOX@ DB 'ITEM_ANTIFLAG_SAFEBOX', 00H ; `string'
CONST	ENDS
;	COMDAT ??_C@_0BF@NEEDLCAA@ITEM_ANTIFLAG_MYSHOP@
CONST	SEGMENT
??_C@_0BF@NEEDLCAA@ITEM_ANTIFLAG_MYSHOP@ DB 'ITEM_ANTIFLAG_MYSHOP', 00H ; `string'
CONST	ENDS
;	COMDAT ??_C@_0BE@MAIMKBDM@ITEM_ANTIFLAG_STACK@
CONST	SEGMENT
??_C@_0BE@MAIMKBDM@ITEM_ANTIFLAG_STACK@ DB 'ITEM_ANTIFLAG_STACK', 00H ; `string'
CONST	ENDS
;	COMDAT ??_C@_0BF@HBDABAPH@ITEM_ANTIFLAG_PKDROP@
CONST	SEGMENT
??_C@_0BF@HBDABAPH@ITEM_ANTIFLAG_PKDROP@ DB 'ITEM_ANTIFLAG_PKDROP', 00H ; `string'
CONST	ENDS
;	COMDAT ??_C@_0BD@KPODKFBE@ITEM_ANTIFLAG_GIVE@
CONST	SEGMENT
??_C@_0BD@KPODKFBE@ITEM_ANTIFLAG_GIVE@ DB 'ITEM_ANTIFLAG_GIVE', 00H ; `string'
CONST	ENDS
;	COMDAT ??_C@_0BD@PPDHLMLJ@ITEM_ANTIFLAG_SAVE@
CONST	SEGMENT
??_C@_0BD@PPDHLMLJ@ITEM_ANTIFLAG_SAVE@ DB 'ITEM_ANTIFLAG_SAVE', 00H ; `string'
CONST	ENDS
;	COMDAT ??_C@_0BH@IMCIPANH@ITEM_ANTIFLAG_EMPIRE_R@
CONST	SEGMENT
??_C@_0BH@IMCIPANH@ITEM_ANTIFLAG_EMPIRE_R@ DB 'ITEM_ANTIFLAG_EMPIRE_R', 00H ; `string'
CONST	ENDS
;	COMDAT ??_C@_0BH@MGOKOCIG@ITEM_ANTIFLAG_EMPIRE_B@
CONST	SEGMENT
??_C@_0BH@MGOKOCIG@ITEM_ANTIFLAG_EMPIRE_B@ DB 'ITEM_ANTIFLAG_EMPIRE_B', 00H ; `string'
CONST	ENDS
;	COMDAT ??_C@_0BH@ONMHLBEF@ITEM_ANTIFLAG_EMPIRE_A@
CONST	SEGMENT
??_C@_0BH@ONMHLBEF@ITEM_ANTIFLAG_EMPIRE_A@ DB 'ITEM_ANTIFLAG_EMPIRE_A', 00H ; `string'
CONST	ENDS
;	COMDAT ??_C@_0BD@LACGLGAB@ITEM_ANTIFLAG_SELL@
CONST	SEGMENT
??_C@_0BD@LACGLGAB@ITEM_ANTIFLAG_SELL@ DB 'ITEM_ANTIFLAG_SELL', 00H ; `string'
CONST	ENDS
;	COMDAT ??_C@_0BD@ELBJHBLB@ITEM_ANTIFLAG_DROP@
CONST	SEGMENT
??_C@_0BD@ELBJHBLB@ITEM_ANTIFLAG_DROP@ DB 'ITEM_ANTIFLAG_DROP', 00H ; `string'
CONST	ENDS
;	COMDAT ??_C@_0BC@NECEHGFA@ITEM_ANTIFLAG_GET@
CONST	SEGMENT
??_C@_0BC@NECEHGFA@ITEM_ANTIFLAG_GET@ DB 'ITEM_ANTIFLAG_GET', 00H ; `string'
CONST	ENDS
;	COMDAT ??_C@_0BF@NIAJKCKI@ITEM_ANTIFLAG_SHAMAN@
CONST	SEGMENT
??_C@_0BF@NIAJKCKI@ITEM_ANTIFLAG_SHAMAN@ DB 'ITEM_ANTIFLAG_SHAMAN', 00H ; `string'
CONST	ENDS
;	COMDAT ??_C@_0BD@EDCJBBKJ@ITEM_ANTIFLAG_SURA@
CONST	SEGMENT
??_C@_0BD@EDCJBBKJ@ITEM_ANTIFLAG_SURA@ DB 'ITEM_ANTIFLAG_SURA', 00H ; `string'
CONST	ENDS
;	COMDAT ??_C@_0BH@NDIALJFO@ITEM_ANTIFLAG_ASSASSIN@
CONST	SEGMENT
??_C@_0BH@NDIALJFO@ITEM_ANTIFLAG_ASSASSIN@ DB 'ITEM_ANTIFLAG_ASSASSIN', 00H ; `string'
CONST	ENDS
;	COMDAT ??_C@_0BG@OCAOGEDJ@ITEM_ANTIFLAG_WARRIOR@
CONST	SEGMENT
??_C@_0BG@OCAOGEDJ@ITEM_ANTIFLAG_WARRIOR@ DB 'ITEM_ANTIFLAG_WARRIOR', 00H ; `string'
CONST	ENDS
;	COMDAT ??_C@_0BD@DBFGLDPM@ITEM_ANTIFLAG_MALE@
CONST	SEGMENT
??_C@_0BD@DBFGLDPM@ITEM_ANTIFLAG_MALE@ DB 'ITEM_ANTIFLAG_MALE', 00H ; `string'
CONST	ENDS
;	COMDAT ??_C@_0BF@DFHLBKDO@ITEM_ANTIFLAG_FEMALE@
CONST	SEGMENT
??_C@_0BF@DFHLBKDO@ITEM_ANTIFLAG_FEMALE@ DB 'ITEM_ANTIFLAG_FEMALE', 00H ; `string'
CONST	ENDS
;	COMDAT ??_C@_0O@DPNMMLCK@LIMIT_MAX_NUM@
CONST	SEGMENT
??_C@_0O@DPNMMLCK@LIMIT_MAX_NUM@ DB 'LIMIT_MAX_NUM', 00H ; `string'
CONST	ENDS
;	COMDAT ??_C@_0BD@JIAJEJNL@LIMIT_TYPE_MAX_NUM@
CONST	SEGMENT
??_C@_0BD@JIAJEJNL@LIMIT_TYPE_MAX_NUM@ DB 'LIMIT_TYPE_MAX_NUM', 00H ; `string'
CONST	ENDS
;	COMDAT ??_C@_0BK@DKGMKHOA@LIMIT_TIMER_BASED_ON_WEAR@
CONST	SEGMENT
??_C@_0BK@DKGMKHOA@LIMIT_TIMER_BASED_ON_WEAR@ DB 'LIMIT_TIMER_BASED_ON_WE'
	DB	'AR', 00H					; `string'
CONST	ENDS
;	COMDAT ??_C@_0CA@KECNELOI@LIMIT_REAL_TIME_START_FIRST_USE@
CONST	SEGMENT
??_C@_0CA@KECNELOI@LIMIT_REAL_TIME_START_FIRST_USE@ DB 'LIMIT_REAL_TIME_S'
	DB	'TART_FIRST_USE', 00H			; `string'
CONST	ENDS
;	COMDAT ??_C@_0BA@FCJCAFPM@LIMIT_REAL_TIME@
CONST	SEGMENT
??_C@_0BA@FCJCAFPM@LIMIT_REAL_TIME@ DB 'LIMIT_REAL_TIME', 00H ; `string'
CONST	ENDS
;	COMDAT ??_C@_09DIAIGPDD@LIMIT_CON@
CONST	SEGMENT
??_C@_09DIAIGPDD@LIMIT_CON@ DB 'LIMIT_CON', 00H		; `string'
CONST	ENDS
;	COMDAT ??_C@_09OGFKBPLL@LIMIT_INT@
CONST	SEGMENT
??_C@_09OGFKBPLL@LIMIT_INT@ DB 'LIMIT_INT', 00H		; `string'
CONST	ENDS
;	COMDAT ??_C@_09LENAGHIL@LIMIT_DEX@
CONST	SEGMENT
??_C@_09LENAGHIL@LIMIT_DEX@ DB 'LIMIT_DEX', 00H		; `string'
CONST	ENDS
;	COMDAT ??_C@_09JOBFCJGA@LIMIT_STR@
CONST	SEGMENT
??_C@_09JOBFCJGA@LIMIT_STR@ DB 'LIMIT_STR', 00H		; `string'
CONST	ENDS
;	COMDAT ??_C@_0M@CNLALLNH@LIMIT_LEVEL@
CONST	SEGMENT
??_C@_0M@CNLALLNH@LIMIT_LEVEL@ DB 'LIMIT_LEVEL', 00H	; `string'
CONST	ENDS
;	COMDAT ??_C@_0L@MKHGBGII@LIMIT_NONE@
CONST	SEGMENT
??_C@_0L@MKHGBGII@LIMIT_NONE@ DB 'LIMIT_NONE', 00H	; `string'
CONST	ENDS
;	COMDAT ??_C@_0L@MFIGJJDC@METIN_GOLD@
CONST	SEGMENT
??_C@_0L@MFIGJJDC@METIN_GOLD@ DB 'METIN_GOLD', 00H	; `string'
CONST	ENDS
;	COMDAT ??_C@_0N@HOHHHOFD@METIN_NORMAL@
CONST	SEGMENT
??_C@_0N@HOHHHOFD@METIN_NORMAL@ DB 'METIN_NORMAL', 00H	; `string'
CONST	ENDS
;	COMDAT ??_C@_0BJ@KCHKGND@MATERIAL_DS_REFINE_HOLLY@
CONST	SEGMENT
??_C@_0BJ@KCHKGND@MATERIAL_DS_REFINE_HOLLY@ DB 'MATERIAL_DS_REFINE_HOLLY', 00H ; `string'
CONST	ENDS
;	COMDAT ??_C@_0BL@HNMOOIKG@MATERIAL_DS_REFINE_BLESSED@
CONST	SEGMENT
??_C@_0BL@HNMOOIKG@MATERIAL_DS_REFINE_BLESSED@ DB 'MATERIAL_DS_REFINE_BLE'
	DB	'SSED', 00H					; `string'
CONST	ENDS
;	COMDAT ??_C@_0BK@FFJFCNLF@MATERIAL_DS_REFINE_NORMAL@
CONST	SEGMENT
??_C@_0BK@FFJFCNLF@MATERIAL_DS_REFINE_NORMAL@ DB 'MATERIAL_DS_REFINE_NORM'
	DB	'AL', 00H					; `string'
CONST	ENDS
;	COMDAT ??_C@_0BJ@FNHNMEGH@USE_PUT_INTO_AURA_SOCKET@
CONST	SEGMENT
??_C@_0BJ@FNHNMEGH@USE_PUT_INTO_AURA_SOCKET@ DB 'USE_PUT_INTO_AURA_SOCKET'
	DB	00H						; `string'
CONST	ENDS
;	COMDAT ??_C@_0BA@NILKDFNN@USE_AFFECT_PLUS@
CONST	SEGMENT
??_C@_0BA@NILKDFNN@USE_AFFECT_PLUS@ DB 'USE_AFFECT_PLUS', 00H ; `string'
CONST	ENDS
;	COMDAT ??_C@_0BE@FCIOINBF@USE_TIME_CHARGE_FIX@
CONST	SEGMENT
??_C@_0BE@FCIOINBF@USE_TIME_CHARGE_FIX@ DB 'USE_TIME_CHARGE_FIX', 00H ; `string'
CONST	ENDS
;	COMDAT ??_C@_0BE@NEAJJELI@USE_TIME_CHARGE_PER@
CONST	SEGMENT
??_C@_0BE@NEAJJELI@USE_TIME_CHARGE_PER@ DB 'USE_TIME_CHARGE_PER', 00H ; `string'
CONST	ENDS
;	COMDAT ??_C@_0P@MKAMDACK@USE_DETACHMENT@
CONST	SEGMENT
??_C@_0P@MKAMDACK@USE_DETACHMENT@ DB 'USE_DETACHMENT', 00H ; `string'
CONST	ENDS
;	COMDAT ??_C@_0BB@NCIEFOD@USE_INVISIBILITY@
CONST	SEGMENT
??_C@_0BB@NCIEFOD@USE_INVISIBILITY@ DB 'USE_INVISIBILITY', 00H ; `string'
CONST	ENDS
;	COMDAT ??_C@_09PNKHEPEF@USE_CLEAR@
CONST	SEGMENT
??_C@_09PNKHEPEF@USE_CLEAR@ DB 'USE_CLEAR', 00H		; `string'
CONST	ENDS
;	COMDAT ??_C@_0BD@MMDEHJ@USE_POTION_NODELAY@
CONST	SEGMENT
??_C@_0BD@MMDEHJ@USE_POTION_NODELAY@ DB 'USE_POTION_NODELAY', 00H ; `string'
CONST	ENDS
;	COMDAT ??_C@_0M@GHOELJHH@USE_SPECIAL@
CONST	SEGMENT
??_C@_0M@GHOELJHH@USE_SPECIAL@ DB 'USE_SPECIAL', 00H	; `string'
CONST	ENDS
;	COMDAT ??_C@_0BB@PBBDNJH@USE_CREATE_STONE@
CONST	SEGMENT
??_C@_0BB@PBBDNJH@USE_CREATE_STONE@ DB 'USE_CREATE_STONE', 00H ; `string'
CONST	ENDS
;	COMDAT ??_C@_0L@DLLOJMIP@USE_AFFECT@
CONST	SEGMENT
??_C@_0L@DLLOJMIP@USE_AFFECT@ DB 'USE_AFFECT', 00H	; `string'
CONST	ENDS
;	COMDAT ??_C@_0P@JBLCKFGE@USE_ABILITY_UP@
CONST	SEGMENT
??_C@_0P@JBLCKFGE@USE_ABILITY_UP@ DB 'USE_ABILITY_UP', 00H ; `string'
CONST	ENDS
;	COMDAT ??_C@_08LBHGOBNP@USE_BAIT@
CONST	SEGMENT
??_C@_08LBHGOBNP@USE_BAIT@ DB 'USE_BAIT', 00H		; `string'
CONST	ENDS
;	COMDAT ??_C@_0N@BOHEHPFI@USE_MONEYBAG@
CONST	SEGMENT
??_C@_0N@BOHEHPFI@USE_MONEYBAG@ DB 'USE_MONEYBAG', 00H	; `string'
CONST	ENDS
;	COMDAT ??_C@_0BB@BBPDKOFG@USE_TREASURE_BOX@
CONST	SEGMENT
??_C@_0BB@BBPDKOFG@USE_TREASURE_BOX@ DB 'USE_TREASURE_BOX', 00H ; `string'
CONST	ENDS
;	COMDAT ??_C@_08JHFKMGGA@USE_MOVE@
CONST	SEGMENT
??_C@_08JHFKMGGA@USE_MOVE@ DB 'USE_MOVE', 00H		; `string'
CONST	ENDS
;	COMDAT ??_C@_0L@JIILHJGL@USE_TUNING@
CONST	SEGMENT
??_C@_0L@JIILHJGL@USE_TUNING@ DB 'USE_TUNING', 00H	; `string'
CONST	ENDS
;	COMDAT ??_C@_0N@CINBPLKM@USE_TALISMAN@
CONST	SEGMENT
??_C@_0N@CINBPLKM@USE_TALISMAN@ DB 'USE_TALISMAN', 00H	; `string'
CONST	ENDS
;	COMDAT ??_C@_0L@DENJCCNI@USE_POTION@
CONST	SEGMENT
??_C@_0L@DENJCCNI@USE_POTION@ DB 'USE_POTION', 00H	; `string'
CONST	ENDS
;	COMDAT ??_C@_0BB@KFDFBDPL@WEAPON_NUM_TYPES@
CONST	SEGMENT
??_C@_0BB@KFDFBDPL@WEAPON_NUM_TYPES@ DB 'WEAPON_NUM_TYPES', 00H ; `string'
CONST	ENDS
;	COMDAT ??_C@_0N@DCOAOKB@WEAPON_ARROW@
CONST	SEGMENT
??_C@_0N@DCOAOKB@WEAPON_ARROW@ DB 'WEAPON_ARROW', 00H	; `string'
CONST	ENDS
;	COMDAT ??_C@_0L@LNCOBKNJ@WEAPON_FAN@
CONST	SEGMENT
??_C@_0L@LNCOBKNJ@WEAPON_FAN@ DB 'WEAPON_FAN', 00H	; `string'
CONST	ENDS
;	COMDAT ??_C@_0M@NKBIKBJK@WEAPON_BELL@
CONST	SEGMENT
??_C@_0M@NKBIKBJK@WEAPON_BELL@ DB 'WEAPON_BELL', 00H	; `string'
CONST	ENDS
;	COMDAT ??_C@_0BC@OILJBHHK@WEAPON_TWO_HANDED@
CONST	SEGMENT
??_C@_0BC@OILJBHHK@WEAPON_TWO_HANDED@ DB 'WEAPON_TWO_HANDED', 00H ; `string'
CONST	ENDS
;	COMDAT ??_C@_0L@KDNCAJJM@WEAPON_BOW@
CONST	SEGMENT
??_C@_0L@KDNCAJJM@WEAPON_BOW@ DB 'WEAPON_BOW', 00H	; `string'
CONST	ENDS
;	COMDAT ??_C@_0O@IMDDJKDH@WEAPON_DAGGER@
CONST	SEGMENT
??_C@_0O@IMDDJKDH@WEAPON_DAGGER@ DB 'WEAPON_DAGGER', 00H ; `string'
CONST	ENDS
;	COMDAT ??_C@_0N@FCLCNMLC@WEAPON_SWORD@
CONST	SEGMENT
??_C@_0N@FCLCNMLC@WEAPON_SWORD@ DB 'WEAPON_SWORD', 00H	; `string'
CONST	ENDS
;	COMDAT ??_C@_0BO@KNLOLNDC@CHANGERS_INVENTORY_SLOT_START@
CONST	SEGMENT
??_C@_0BO@KNLOLNDC@CHANGERS_INVENTORY_SLOT_START@ DB 'CHANGERS_INVENTORY_'
	DB	'SLOT_START', 00H				; `string'
CONST	ENDS
;	COMDAT ??_C@_0BO@HIOPBILE@GIFT_BOX_INVENTORY_SLOT_START@
CONST	SEGMENT
??_C@_0BO@HIOPBILE@GIFT_BOX_INVENTORY_SLOT_START@ DB 'GIFT_BOX_INVENTORY_'
	DB	'SLOT_START', 00H				; `string'
CONST	ENDS
;	COMDAT ??_C@_0BL@IMGEBG@STONE_INVENTORY_SLOT_START@
CONST	SEGMENT
??_C@_0BL@IMGEBG@STONE_INVENTORY_SLOT_START@ DB 'STONE_INVENTORY_SLOT_STA'
	DB	'RT', 00H					; `string'
CONST	ENDS
;	COMDAT ??_C@_0CD@NBCKCAOA@UPGRADE_ITEMS_INVENTORY_SLOT_ST@
CONST	SEGMENT
??_C@_0CD@NBCKCAOA@UPGRADE_ITEMS_INVENTORY_SLOT_ST@ DB 'UPGRADE_ITEMS_INV'
	DB	'ENTORY_SLOT_START', 00H			; `string'
CONST	ENDS
;	COMDAT ??_C@_0CA@GGBKFPIG@SKILL_BOOK_INVENTORY_SLOT_START@
CONST	SEGMENT
??_C@_0CA@GGBKFPIG@SKILL_BOOK_INVENTORY_SLOT_START@ DB 'SKILL_BOOK_INVENT'
	DB	'ORY_SLOT_START', 00H			; `string'
CONST	ENDS
;	COMDAT ??_C@_0BI@GPHFDCEJ@BELT_INVENTORY_SLOT_END@
CONST	SEGMENT
??_C@_0BI@GPHFDCEJ@BELT_INVENTORY_SLOT_END@ DB 'BELT_INVENTORY_SLOT_END', 00H ; `string'
CONST	ENDS
;	COMDAT ??_C@_0BK@EOCDAIHE@BELT_INVENTORY_SLOT_COUNT@
CONST	SEGMENT
??_C@_0BK@EOCDAIHE@BELT_INVENTORY_SLOT_COUNT@ DB 'BELT_INVENTORY_SLOT_COU'
	DB	'NT', 00H					; `string'
CONST	ENDS
;	COMDAT ??_C@_0BK@JAICDGKA@BELT_INVENTORY_SLOT_START@
CONST	SEGMENT
??_C@_0BK@JAICDGKA@BELT_INVENTORY_SLOT_START@ DB 'BELT_INVENTORY_SLOT_STA'
	DB	'RT', 00H					; `string'
CONST	ENDS
;	COMDAT ??_C@_0BB@IEFLAOJF@COSTUME_SLOT_END@
CONST	SEGMENT
??_C@_0BB@IEFLAOJF@COSTUME_SLOT_END@ DB 'COSTUME_SLOT_END', 00H ; `string'
CONST	ENDS
;	COMDAT ??_C@_0BC@DLAOLBN@COSTUME_SLOT_AURA@
CONST	SEGMENT
??_C@_0BC@DLAOLBN@COSTUME_SLOT_AURA@ DB 'COSTUME_SLOT_AURA', 00H ; `string'
CONST	ENDS
;	COMDAT ??_C@_0BB@KFALFEII@COSTUME_SLOT_PET@
CONST	SEGMENT
??_C@_0BB@KFALFEII@COSTUME_SLOT_PET@ DB 'COSTUME_SLOT_PET', 00H ; `string'
CONST	ENDS
;	COMDAT ??_C@_0BD@HGMLHELO@COSTUME_SLOT_MOUNT@
CONST	SEGMENT
??_C@_0BD@HGMLHELO@COSTUME_SLOT_MOUNT@ DB 'COSTUME_SLOT_MOUNT', 00H ; `string'
CONST	ENDS
;	COMDAT ??_C@_0BE@BFLFIKON@COSTUME_SLOT_WEAPON@
CONST	SEGMENT
??_C@_0BE@BFLFIKON@COSTUME_SLOT_WEAPON@ DB 'COSTUME_SLOT_WEAPON', 00H ; `string'
CONST	ENDS
;	COMDAT ??_C@_0BC@PEKOPBN@COSTUME_SLOT_ACCE@
CONST	SEGMENT
??_C@_0BC@PEKOPBN@COSTUME_SLOT_ACCE@ DB 'COSTUME_SLOT_ACCE', 00H ; `string'
CONST	ENDS
;	COMDAT ??_C@_0BC@KAEHEEKH@COSTUME_SLOT_HAIR@
CONST	SEGMENT
??_C@_0BC@KAEHEEKH@COSTUME_SLOT_HAIR@ DB 'COSTUME_SLOT_HAIR', 00H ; `string'
CONST	ENDS
;	COMDAT ??_C@_0BC@OBAEGBKN@COSTUME_SLOT_BODY@
CONST	SEGMENT
??_C@_0BC@OBAEGBKN@COSTUME_SLOT_BODY@ DB 'COSTUME_SLOT_BODY', 00H ; `string'
CONST	ENDS
;	COMDAT ??_C@_0BD@EMMBBFMO@COSTUME_SLOT_COUNT@
CONST	SEGMENT
??_C@_0BD@EMMBBFMO@COSTUME_SLOT_COUNT@ DB 'COSTUME_SLOT_COUNT', 00H ; `string'
CONST	ENDS
;	COMDAT ??_C@_0BD@JCGACLBK@COSTUME_SLOT_START@
CONST	SEGMENT
??_C@_0BD@JCGACLBK@COSTUME_SLOT_START@ DB 'COSTUME_SLOT_START', 00H ; `string'
CONST	ENDS
;	COMDAT ??_C@_0BC@GDAJEDKH@COSTUME_TYPE_AURA@
CONST	SEGMENT
??_C@_0BC@GDAJEDKH@COSTUME_TYPE_AURA@ DB 'COSTUME_TYPE_AURA', 00H ; `string'
CONST	ENDS
;	COMDAT ??_C@_0BB@KMCNDLBH@COSTUME_TYPE_PET@
CONST	SEGMENT
??_C@_0BB@KMCNDLBH@COSTUME_TYPE_PET@ DB 'COSTUME_TYPE_PET', 00H ; `string'
CONST	ENDS
;	COMDAT ??_C@_0BD@FNBPJHIE@COSTUME_TYPE_MOUNT@
CONST	SEGMENT
??_C@_0BD@FNBPJHIE@COSTUME_TYPE_MOUNT@ DB 'COSTUME_TYPE_MOUNT', 00H ; `string'
CONST	ENDS
;	COMDAT ??_C@_0BE@NDJCIHLM@COSTUME_TYPE_WEAPON@
CONST	SEGMENT
??_C@_0BE@NDJCIHLM@COSTUME_TYPE_WEAPON@ DB 'COSTUME_TYPE_WEAPON', 00H ; `string'
CONST	ENDS
;	COMDAT ??_C@_0BC@GPPDEHKH@COSTUME_TYPE_ACCE@
CONST	SEGMENT
??_C@_0BC@GPPDEHKH@COSTUME_TYPE_ACCE@ DB 'COSTUME_TYPE_ACCE', 00H ; `string'
CONST	ENDS
;	COMDAT ??_C@_0BC@MAPOOMBN@COSTUME_TYPE_HAIR@
CONST	SEGMENT
??_C@_0BC@MAPOOMBN@COSTUME_TYPE_HAIR@ DB 'COSTUME_TYPE_HAIR', 00H ; `string'
CONST	ENDS
;	COMDAT ??_C@_0BC@IBLNMJBH@COSTUME_TYPE_BODY@
CONST	SEGMENT
??_C@_0BC@IBLNMJBH@COSTUME_TYPE_BODY@ DB 'COSTUME_TYPE_BODY', 00H ; `string'
CONST	ENDS
;	COMDAT ??_C@_0BC@GOFIPFBN@ITEM_TYPE_COSTUME@
CONST	SEGMENT
??_C@_0BC@GOFIPFBN@ITEM_TYPE_COSTUME@ DB 'ITEM_TYPE_COSTUME', 00H ; `string'
CONST	ENDS
;	COMDAT ??_C@_0BA@KMDJFAKG@ITEM_TYPE_TITLE@
CONST	SEGMENT
??_C@_0BA@KMDJFAKG@ITEM_TYPE_TITLE@ DB 'ITEM_TYPE_TITLE', 00H ; `string'
CONST	ENDS
;	COMDAT ??_C@_0O@DFMEJAJP@ITEM_TYPE_PET@
CONST	SEGMENT
??_C@_0O@DFMEJAJP@ITEM_TYPE_PET@ DB 'ITEM_TYPE_PET', 00H ; `string'
CONST	ENDS
;	COMDAT ??_C@_0BA@OPEBGGEO@ITEM_TYPE_MOUNT@
CONST	SEGMENT
??_C@_0BA@OPEBGGEO@ITEM_TYPE_MOUNT@ DB 'ITEM_TYPE_MOUNT', 00H ; `string'
CONST	ENDS
;	COMDAT ??_C@_0P@POBKFJPJ@ITEM_TYPE_RING@
CONST	SEGMENT
??_C@_0P@POBKFJPJ@ITEM_TYPE_RING@ DB 'ITEM_TYPE_RING', 00H ; `string'
CONST	ENDS
;	COMDAT ??_C@_0BC@OLPPIKKB@ITEM_TYPE_GIFTBOX@
CONST	SEGMENT
??_C@_0BC@OLPPIKKB@ITEM_TYPE_GIFTBOX@ DB 'ITEM_TYPE_GIFTBOX', 00H ; `string'
CONST	ENDS
;	COMDAT ??_C@_0BF@GGLFIBNL@ITEM_TYPE_SPECIAL_DS@
CONST	SEGMENT
??_C@_0BF@GGLFIBNL@ITEM_TYPE_SPECIAL_DS@ DB 'ITEM_TYPE_SPECIAL_DS', 00H ; `string'
CONST	ENDS
;	COMDAT ??_C@_0N@BKIJEOLO@ITEM_TYPE_DS@
CONST	SEGMENT
??_C@_0N@BKIJEOLO@ITEM_TYPE_DS@ DB 'ITEM_TYPE_DS', 00H	; `string'
CONST	ENDS
;	COMDAT ??_C@_0BA@EDGMOLIF@ITEM_TYPE_BLEND@
CONST	SEGMENT
??_C@_0BA@EDGMOLIF@ITEM_TYPE_BLEND@ DB 'ITEM_TYPE_BLEND', 00H ; `string'
CONST	ENDS
;	COMDAT ??_C@_0P@CALHNGMG@ITEM_TYPE_PICK@
CONST	SEGMENT
??_C@_0P@CALHNGMG@ITEM_TYPE_PICK@ DB 'ITEM_TYPE_PICK', 00H ; `string'
CONST	ENDS
;	COMDAT ??_C@_0BH@KGMIMAKI@ITEM_TYPE_TREASURE_KEY@
CONST	SEGMENT
??_C@_0BH@KGMIMAKI@ITEM_TYPE_TREASURE_KEY@ DB 'ITEM_TYPE_TREASURE_KEY', 00H ; `string'
CONST	ENDS
;	COMDAT ??_C@_0BH@MPEMDLLF@ITEM_TYPE_TREASURE_BOX@
CONST	SEGMENT
??_C@_0BH@MPEMDLLF@ITEM_TYPE_TREASURE_BOX@ DB 'ITEM_TYPE_TREASURE_BOX', 00H ; `string'
CONST	ENDS
;	COMDAT ??_C@_0BE@DGPJCLHG@ITEM_TYPE_POLYMORPH@
CONST	SEGMENT
??_C@_0BE@DGPJCLHG@ITEM_TYPE_POLYMORPH@ DB 'ITEM_TYPE_POLYMORPH', 00H ; `string'
CONST	ENDS
;	COMDAT ??_C@_0BA@PFOCEMDB@ITEM_TYPE_QUEST@
CONST	SEGMENT
??_C@_0BA@PFOCEMDB@ITEM_TYPE_QUEST@ DB 'ITEM_TYPE_QUEST', 00H ; `string'
CONST	ENDS
;	COMDAT ??_C@_0BE@FAMMFDKM@ITEM_TYPE_SKILLBOOK@
CONST	SEGMENT
??_C@_0BE@FAMMFDKM@ITEM_TYPE_SKILLBOOK@ DB 'ITEM_TYPE_SKILLBOOK', 00H ; `string'
CONST	ENDS
;	COMDAT ??_C@_0BB@CPEAMAMA@ITEM_TYPE_UNIQUE@
CONST	SEGMENT
??_C@_0BB@CPEAMAMA@ITEM_TYPE_UNIQUE@ DB 'ITEM_TYPE_UNIQUE', 00H ; `string'
CONST	ENDS
;	COMDAT ??_C@_0BD@OGNHPHCL@ITEM_TYPE_CAMPFIRE@
CONST	SEGMENT
??_C@_0BD@OGNHPHCL@ITEM_TYPE_CAMPFIRE@ DB 'ITEM_TYPE_CAMPFIRE', 00H ; `string'
CONST	ENDS
;	COMDAT ??_C@_0BD@KBPLAMLF@ITEM_TYPE_RESOURCE@
CONST	SEGMENT
??_C@_0BD@KBPLAMLF@ITEM_TYPE_RESOURCE@ DB 'ITEM_TYPE_RESOURCE', 00H ; `string'
CONST	ENDS
;	COMDAT ??_C@_0O@NIJIMPJD@ITEM_TYPE_ROD@
CONST	SEGMENT
??_C@_0O@NIJIMPJD@ITEM_TYPE_ROD@ DB 'ITEM_TYPE_ROD', 00H ; `string'
CONST	ENDS
;	COMDAT ??_C@_0P@PIBMEEFH@ITEM_TYPE_FISH@
CONST	SEGMENT
??_C@_0P@PIBMEEFH@ITEM_TYPE_FISH@ DB 'ITEM_TYPE_FISH', 00H ; `string'
CONST	ENDS
;	COMDAT ??_C@_0BE@JBBPDBJM@ITEM_TYPE_CONTAINER@
CONST	SEGMENT
??_C@_0BE@JBBPDBJM@ITEM_TYPE_CONTAINER@ DB 'ITEM_TYPE_CONTAINER', 00H ; `string'
CONST	ENDS
;	COMDAT ??_C@_0BA@KICPPFNE@ITEM_TYPE_METIN@
CONST	SEGMENT
??_C@_0BA@KICPPFNE@ITEM_TYPE_METIN@ DB 'ITEM_TYPE_METIN', 00H ; `string'
CONST	ENDS
;	COMDAT ??_C@_0O@JAIIACCD@ITEM_TYPE_ELK@
CONST	SEGMENT
??_C@_0O@JAIIACCD@ITEM_TYPE_ELK@ DB 'ITEM_TYPE_ELK', 00H ; `string'
CONST	ENDS
;	COMDAT ??_C@_0BC@LGJDJIG@ITEM_TYPE_LOTTERY@
CONST	SEGMENT
??_C@_0BC@LGJDJIG@ITEM_TYPE_LOTTERY@ DB 'ITEM_TYPE_LOTTERY', 00H ; `string'
CONST	ENDS
;	COMDAT ??_C@_0P@LGAHEAHJ@ITEM_TYPE_TOOL@
CONST	SEGMENT
??_C@_0P@LGAHEAHJ@ITEM_TYPE_TOOL@ DB 'ITEM_TYPE_TOOL', 00H ; `string'
CONST	ENDS
;	COMDAT ??_C@_0BC@EGCNCIAP@ITEM_TYPE_SPECIAL@
CONST	SEGMENT
??_C@_0BC@EGCNCIAP@ITEM_TYPE_SPECIAL@ DB 'ITEM_TYPE_SPECIAL', 00H ; `string'
CONST	ENDS
;	COMDAT ??_C@_0BD@NFIKPBKO@ITEM_TYPE_MATERIAL@
CONST	SEGMENT
??_C@_0BD@NFIKPBKO@ITEM_TYPE_MATERIAL@ DB 'ITEM_TYPE_MATERIAL', 00H ; `string'
CONST	ENDS
;	COMDAT ??_C@_0BC@PDFOCJLB@ITEM_TYPE_AUTOUSE@
CONST	SEGMENT
??_C@_0BC@PDFOCJLB@ITEM_TYPE_AUTOUSE@ DB 'ITEM_TYPE_AUTOUSE', 00H ; `string'
CONST	ENDS
;	COMDAT ??_C@_0O@EJGIJMHP@ITEM_TYPE_USE@
CONST	SEGMENT
??_C@_0O@EJGIJMHP@ITEM_TYPE_USE@ DB 'ITEM_TYPE_USE', 00H ; `string'
CONST	ENDS
;	COMDAT ??_C@_0BA@MCMGEHMH@ITEM_TYPE_ARMOR@
CONST	SEGMENT
??_C@_0BA@MCMGEHMH@ITEM_TYPE_ARMOR@ DB 'ITEM_TYPE_ARMOR', 00H ; `string'
CONST	ENDS
;	COMDAT ??_C@_0BB@KIJBPCOD@ITEM_TYPE_WEAPON@
CONST	SEGMENT
??_C@_0BB@KIJBPCOD@ITEM_TYPE_WEAPON@ DB 'ITEM_TYPE_WEAPON', 00H ; `string'
CONST	ENDS
;	COMDAT ??_C@_0P@EMFHBOCE@ITEM_TYPE_NONE@
CONST	SEGMENT
??_C@_0P@EMFHBOCE@ITEM_TYPE_NONE@ DB 'ITEM_TYPE_NONE', 00H ; `string'
CONST	ENDS
;	COMDAT ??_C@_0BC@LFKEDEAE@EQUIPMENT_PENDANT@
CONST	SEGMENT
??_C@_0BC@LFKEDEAE@EQUIPMENT_PENDANT@ DB 'EQUIPMENT_PENDANT', 00H ; `string'
CONST	ENDS
;	COMDAT ??_C@_0BA@NADJMHBA@EQUIPMENT_TITLE@
CONST	SEGMENT
??_C@_0BA@NADJMHBA@EQUIPMENT_TITLE@ DB 'EQUIPMENT_TITLE', 00H ; `string'
CONST	ENDS
;	COMDAT ??_C@_0O@JLMIJBLB@EQUIPMENT_PET@
CONST	SEGMENT
??_C@_0O@JLMIJBLB@EQUIPMENT_PET@ DB 'EQUIPMENT_PET', 00H ; `string'
CONST	ENDS
;	COMDAT ??_C@_0BA@JDEBPBPI@EQUIPMENT_MOUNT@
CONST	SEGMENT
??_C@_0BA@JDEBPBPI@EQUIPMENT_MOUNT@ DB 'EQUIPMENT_MOUNT', 00H ; `string'
CONST	ENDS
;	COMDAT ??_C@_0P@GKDPOFPB@EQUIPMENT_BELT@
CONST	SEGMENT
??_C@_0P@GKDPOFPB@EQUIPMENT_BELT@ DB 'EQUIPMENT_BELT', 00H ; `string'
CONST	ENDS
;	COMDAT ??_C@_0BA@FFOPJDCG@EQUIPMENT_RING2@
CONST	SEGMENT
??_C@_0BA@FFOPJDCG@EQUIPMENT_RING2@ DB 'EQUIPMENT_RING2', 00H ; `string'
CONST	ENDS
;	COMDAT ??_C@_0BA@HOMCMAOF@EQUIPMENT_RING1@
CONST	SEGMENT
??_C@_0BA@HOMCMAOF@EQUIPMENT_RING1@ DB 'EQUIPMENT_RING1', 00H ; `string'
CONST	ENDS
;	COMDAT ??_C@_0BB@GNCAGJLP@EQUIPMENT_SHIELD@
CONST	SEGMENT
??_C@_0BB@GNCAGJLP@EQUIPMENT_SHIELD@ DB 'EQUIPMENT_SHIELD', 00H ; `string'
CONST	ENDS
;	COMDAT ??_C@_0BA@MLMLGDPN@EQUIPMENT_ARROW@
CONST	SEGMENT
??_C@_0BA@MLMLGDPN@EQUIPMENT_ARROW@ DB 'EQUIPMENT_ARROW', 00H ; `string'
CONST	ENDS
;	COMDAT ??_C@_0BC@KKMPKFNI@EQUIPMENT_UNIQUE2@
CONST	SEGMENT
??_C@_0BC@KKMPKFNI@EQUIPMENT_UNIQUE2@ DB 'EQUIPMENT_UNIQUE2', 00H ; `string'
CONST	ENDS
;	COMDAT ??_C@_0BC@IBOCPGBL@EQUIPMENT_UNIQUE1@
CONST	SEGMENT
??_C@_0BC@IBOCPGBL@EQUIPMENT_UNIQUE1@ DB 'EQUIPMENT_UNIQUE1', 00H ; `string'
CONST	ENDS
;	COMDAT ??_C@_0O@KNFMDJEG@EQUIPMENT_EAR@
CONST	SEGMENT
??_C@_0O@KNFMDJEG@EQUIPMENT_EAR@ DB 'EQUIPMENT_EAR', 00H ; `string'
CONST	ENDS
;	COMDAT ??_C@_0P@GJMJEBFD@EQUIPMENT_NECK@
CONST	SEGMENT
??_C@_0P@GJMJEBFD@EQUIPMENT_NECK@ DB 'EQUIPMENT_NECK', 00H ; `string'
CONST	ENDS
;	COMDAT ??_C@_0BA@GEANIANO@EQUIPMENT_SHOES@
CONST	SEGMENT
??_C@_0BA@GEANIANO@EQUIPMENT_SHOES@ DB 'EQUIPMENT_SHOES', 00H ; `string'
CONST	ENDS
;	COMDAT ??_C@_0BA@KHENFLDC@EQUIPMENT_WRIST@
CONST	SEGMENT
??_C@_0BA@KHENFLDC@EQUIPMENT_WRIST@ DB 'EQUIPMENT_WRIST', 00H ; `string'
CONST	ENDS
;	COMDAT ??_C@_0BB@IKOPOEMN@EQUIPMENT_WEAPON@
CONST	SEGMENT
??_C@_0BB@IKOPOEMN@EQUIPMENT_WEAPON@ DB 'EQUIPMENT_WEAPON', 00H ; `string'
CONST	ENDS
;	COMDAT ??_C@_0P@LODPCKGA@EQUIPMENT_BODY@
CONST	SEGMENT
??_C@_0P@LODPCKGA@EQUIPMENT_BODY@ DB 'EQUIPMENT_BODY', 00H ; `string'
CONST	ENDS
;	COMDAT ??_C@_0P@GCJFHMFC@EQUIPMENT_HEAD@
CONST	SEGMENT
??_C@_0P@GCJFHMFC@EQUIPMENT_HEAD@ DB 'EQUIPMENT_HEAD', 00H ; `string'
CONST	ENDS
;	COMDAT ??_C@_0BA@KJELJAII@EQUIPMENT_COUNT@
CONST	SEGMENT
??_C@_0BA@KJELJAII@EQUIPMENT_COUNT@ DB 'EQUIPMENT_COUNT', 00H ; `string'
CONST	ENDS
;	COMDAT ??_C@_0BB@JMMPMOOC@DROPSOUND_WEAPON@
CONST	SEGMENT
??_C@_0BB@JMMPMOOC@DROPSOUND_WEAPON@ DB 'DROPSOUND_WEAPON', 00H ; `string'
CONST	ENDS
;	COMDAT ??_C@_0BC@BONOAPBN@DROPSOUND_DEFAULT@
CONST	SEGMENT
??_C@_0BC@BONOAPBN@DROPSOUND_DEFAULT@ DB 'DROPSOUND_DEFAULT', 00H ; `string'
CONST	ENDS
;	COMDAT ??_C@_0O@OOJPAKOO@DROPSOUND_BOW@
CONST	SEGMENT
??_C@_0O@OOJPAKOO@DROPSOUND_BOW@ DB 'DROPSOUND_BOW', 00H ; `string'
CONST	ENDS
;	COMDAT ??_C@_0BA@PCCDLKKO@DROPSOUND_ARMOR@
CONST	SEGMENT
??_C@_0BA@PCCDLKKO@DROPSOUND_ARMOR@ DB 'DROPSOUND_ARMOR', 00H ; `string'
CONST	ENDS
;	COMDAT ??_C@_0BE@PBPPNIPJ@DROPSOUND_ACCESSORY@
CONST	SEGMENT
??_C@_0BE@PBPPNIPJ@DROPSOUND_ACCESSORY@ DB 'DROPSOUND_ACCESSORY', 00H ; `string'
CONST	ENDS
;	COMDAT ??_C@_0BA@HNBMICIL@USESOUND_PORTAL@
CONST	SEGMENT
??_C@_0BA@HNBMICIL@USESOUND_PORTAL@ DB 'USESOUND_PORTAL', 00H ; `string'
CONST	ENDS
;	COMDAT ??_C@_0BA@GIIHLHOB@USESOUND_POTION@
CONST	SEGMENT
??_C@_0BA@GIIHLHOB@USESOUND_POTION@ DB 'USESOUND_POTION', 00H ; `string'
CONST	ENDS
;	COMDAT ??_C@_0BA@IJKKKKOO@USESOUND_WEAPON@
CONST	SEGMENT
??_C@_0BA@IJKKKKOO@USESOUND_WEAPON@ DB 'USESOUND_WEAPON', 00H ; `string'
CONST	ENDS
;	COMDAT ??_C@_0BB@BHHNCGFC@USESOUND_DEFAULT@
CONST	SEGMENT
??_C@_0BB@BHHNCGFC@USESOUND_DEFAULT@ DB 'USESOUND_DEFAULT', 00H ; `string'
CONST	ENDS
;	COMDAT ??_C@_0N@MDIFIDON@USESOUND_BOW@
CONST	SEGMENT
??_C@_0N@MDIFIDON@USESOUND_BOW@ DB 'USESOUND_BOW', 00H	; `string'
CONST	ENDS
;	COMDAT ??_C@_0P@ENGKPPPD@USESOUND_ARMOR@
CONST	SEGMENT
??_C@_0P@ENGKPPPD@USESOUND_ARMOR@ DB 'USESOUND_ARMOR', 00H ; `string'
CONST	ENDS
;	COMDAT ??_C@_0BD@MEKMBKPM@USESOUND_ACCESSORY@
CONST	SEGMENT
??_C@_0BD@MEKMBKPM@USESOUND_ACCESSORY@ DB 'USESOUND_ACCESSORY', 00H ; `string'
CONST	ENDS
;	COMDAT ??_C@_0BI@PCFHBNB@IsChangeLookClearScroll@
CONST	SEGMENT
??_C@_0BI@PCFHBNB@IsChangeLookClearScroll@ DB 'IsChangeLookClearScroll', 00H ; `string'
CONST	ENDS
;	COMDAT ??_C@_0BN@PEBKMIDG@IsChangeLookFreePassYangItem@
CONST	SEGMENT
??_C@_0BN@PEBKMIDG@IsChangeLookFreePassYangItem@ DB 'IsChangeLookFreePass'
	DB	'YangItem', 00H				; `string'
CONST	ENDS
;	COMDAT ??_C@_0BK@LGEDBNMJ@IsPossibleChangeLookRight@
CONST	SEGMENT
??_C@_0BK@LGEDBNMJ@IsPossibleChangeLookRight@ DB 'IsPossibleChangeLookRig'
	DB	'ht', 00H					; `string'
CONST	ENDS
;	COMDAT ??_C@_0BJ@OLOACL@IsPossibleChangeLookLeft@
CONST	SEGMENT
??_C@_0BJ@OLOACL@IsPossibleChangeLookLeft@ DB 'IsPossibleChangeLookLeft', 00H ; `string'
CONST	ENDS
;	COMDAT ??_C@_0P@JDIMGFAL@GetItemsByName@
CONST	SEGMENT
??_C@_0P@JDIMGFAL@GetItemsByName@ DB 'GetItemsByName', 00H ; `string'
CONST	ENDS
;	COMDAT ??_C@_0P@LHFGFLIF@GetRefinedVnum@
CONST	SEGMENT
??_C@_0P@LHFGFLIF@GetRefinedVnum@ DB 'GetRefinedVnum', 00H ; `string'
CONST	ENDS
;	COMDAT ??_C@_0N@NCBLKFBB@GetRefineSet@
CONST	SEGMENT
??_C@_0N@NCBLKFBB@GetRefineSet@ DB 'GetRefineSet', 00H	; `string'
CONST	ENDS
;	COMDAT ??_C@_0P@KGPFDEPM@SelectItemWiki@
CONST	SEGMENT
??_C@_0P@KGPFDEPM@SelectItemWiki@ DB 'SelectItemWiki', 00H ; `string'
CONST	ENDS
;	COMDAT ??_C@_0BC@DLHGPCJF@GetItemNameByVnum@
CONST	SEGMENT
??_C@_0BC@DLHGPCJF@GetItemNameByVnum@ DB 'GetItemNameByVnum', 00H ; `string'
CONST	ENDS
;	COMDAT ??_C@_0O@FIFLMBIA@IsWeddingItem@
CONST	SEGMENT
??_C@_0O@FIFLMBIA@IsWeddingItem@ DB 'IsWeddingItem', 00H ; `string'
CONST	ENDS
;	COMDAT ??_C@_0O@HJNOJBCJ@LoadItemTable@
CONST	SEGMENT
??_C@_0O@HJNOJBCJ@LoadItemTable@ DB 'LoadItemTable', 00H ; `string'
CONST	ENDS
;	COMDAT ??_C@_0L@IIJEEMCG@DeleteItem@
CONST	SEGMENT
??_C@_0L@IIJEEMCG@DeleteItem@ DB 'DeleteItem', 00H	; `string'
CONST	ENDS
;	COMDAT ??_C@_0L@EMDEHLJF@CreateItem@
CONST	SEGMENT
??_C@_0L@EMDEHLJF@CreateItem@ DB 'CreateItem', 00H	; `string'
CONST	ENDS
;	COMDAT ??_C@_0BG@FEGHIHDK@CanAddToQuickSlotItem@
CONST	SEGMENT
??_C@_0BG@FEGHIHDK@CanAddToQuickSlotItem@ DB 'CanAddToQuickSlotItem', 00H ; `string'
CONST	ENDS
;	COMDAT ??_C@_07MLLOFDCE@IsMetin@
CONST	SEGMENT
??_C@_07MLLOFDCE@IsMetin@ DB 'IsMetin', 00H		; `string'
CONST	ENDS
;	COMDAT ??_C@_05CEOMILKP@IsKey@
CONST	SEGMENT
??_C@_05CEOMILKP@IsKey@ DB 'IsKey', 00H			; `string'
CONST	ENDS
;	COMDAT ??_C@_0P@CNNPGCCK@IsDetachScroll@
CONST	SEGMENT
??_C@_0P@CNNPGCCK@IsDetachScroll@ DB 'IsDetachScroll', 00H ; `string'
CONST	ENDS
;	COMDAT ??_C@_0P@LGDKNEFF@IsRefineScroll@
CONST	SEGMENT
??_C@_0P@LGDKNEFF@IsRefineScroll@ DB 'IsRefineScroll', 00H ; `string'
CONST	ENDS
;	COMDAT ??_C@_0P@OGDGGJFE@IsEquipmentVID@
CONST	SEGMENT
??_C@_0P@OGDGGJFE@IsEquipmentVID@ DB 'IsEquipmentVID', 00H ; `string'
CONST	ENDS
;	COMDAT ??_C@_0BD@BNBIIKMM@DeleteIconInstance@
CONST	SEGMENT
??_C@_0BD@BNBIIKMM@DeleteIconInstance@ DB 'DeleteIconInstance', 00H ; `string'
CONST	ENDS
;	COMDAT ??_C@_0L@POCKMHMA@GetUseType@
CONST	SEGMENT
??_C@_0L@POCKMHMA@GetUseType@ DB 'GetUseType', 00H	; `string'
CONST	ENDS
;	COMDAT ??_C@_0BA@PMLMLIHH@GetIconInstance@
CONST	SEGMENT
??_C@_0BA@PMLMLIHH@GetIconInstance@ DB 'GetIconInstance', 00H ; `string'
CONST	ENDS
;	COMDAT ??_C@_09ICJIFGNC@GetSocket@
CONST	SEGMENT
??_C@_09ICJIFGNC@GetSocket@ DB 'GetSocket', 00H		; `string'
CONST	ENDS
;	COMDAT ??_C@_08GGOMBHIN@GetValue@
CONST	SEGMENT
??_C@_08GGOMBHIN@GetValue@ DB 'GetValue', 00H		; `string'
CONST	ENDS
;	COMDAT ??_C@_09HJGEAOAM@GetAffect@
CONST	SEGMENT
??_C@_09HJGEAOAM@GetAffect@ DB 'GetAffect', 00H		; `string'
CONST	ENDS
;	COMDAT ??_C@_0O@PAGKENPD@GetLimitValue@
CONST	SEGMENT
??_C@_0O@PAGKENPD@GetLimitValue@ DB 'GetLimitValue', 00H ; `string'
CONST	ENDS
;	COMDAT ??_C@_0N@OIJFEGBC@GetLimitType@
CONST	SEGMENT
??_C@_0N@OIJFEGBC@GetLimitType@ DB 'GetLimitType', 00H	; `string'
CONST	ENDS
;	COMDAT ??_C@_08KIIGDNA@GetLimit@
CONST	SEGMENT
??_C@_08KIIGDNA@GetLimit@ DB 'GetLimit', 00H		; `string'
CONST	ENDS
;	COMDAT ??_C@_0M@IKKLMPND@Is1GoldItem@
CONST	SEGMENT
??_C@_0M@IKKLMPND@Is1GoldItem@ DB 'Is1GoldItem', 00H	; `string'
CONST	ENDS
;	COMDAT ??_C@_0P@KNFGADIE@IsWearableFlag@
CONST	SEGMENT
??_C@_0P@KNFGADIE@IsWearableFlag@ DB 'IsWearableFlag', 00H ; `string'
CONST	ENDS
;	COMDAT ??_C@_06PLFMNGGB@IsFlag@
CONST	SEGMENT
??_C@_06PLFMNGGB@IsFlag@ DB 'IsFlag', 00H		; `string'
CONST	ENDS
;	COMDAT ??_C@_0L@NKLNOBKA@IsAntiFlag@
CONST	SEGMENT
??_C@_0L@NKLNOBKA@IsAntiFlag@ DB 'IsAntiFlag', 00H	; `string'
CONST	ENDS
;	COMDAT ??_C@_0BC@OKNBBEMG@GetISellItemPrice@
CONST	SEGMENT
??_C@_0BC@OKNBBEMG@GetISellItemPrice@ DB 'GetISellItemPrice', 00H ; `string'
CONST	ENDS
;	COMDAT ??_C@_0BB@KJGHJKGD@GetIBuyItemPrice@
CONST	SEGMENT
??_C@_0BB@KJGHJKGD@GetIBuyItemPrice@ DB 'GetIBuyItemPrice', 00H ; `string'
CONST	ENDS
;	COMDAT ??_C@_0P@MFCMKOKJ@GetItemSubType@
CONST	SEGMENT
??_C@_0P@MFCMKOKJ@GetItemSubType@ DB 'GetItemSubType', 00H ; `string'
CONST	ENDS
;	COMDAT ??_C@_0M@LOOAFMCI@GetItemType@
CONST	SEGMENT
??_C@_0M@LOOAFMCI@GetItemType@ DB 'GetItemType', 00H	; `string'
CONST	ENDS
;	COMDAT ??_C@_0M@FBEOFCHB@GetItemSize@
CONST	SEGMENT
??_C@_0M@FBEOFCHB@GetItemSize@ DB 'GetItemSize', 00H	; `string'
CONST	ENDS
;	COMDAT ??_C@_0BF@NNPLLIOE@GetIconImageFileName@
CONST	SEGMENT
??_C@_0BF@NNPLLIOE@GetIconImageFileName@ DB 'GetIconImageFileName', 00H ; `string'
CONST	ENDS
;	COMDAT ??_C@_0N@IEABDKDK@GetIconImage@
CONST	SEGMENT
??_C@_0N@IEABDKDK@GetIconImage@ DB 'GetIconImage', 00H	; `string'
CONST	ENDS
;	COMDAT ??_C@_0P@OIBFDAMI@GetItemSummary@
CONST	SEGMENT
??_C@_0P@OIBFDAMI@GetItemSummary@ DB 'GetItemSummary', 00H ; `string'
CONST	ENDS
;	COMDAT ??_C@_0BD@GLEOJONA@GetItemDescription@
CONST	SEGMENT
??_C@_0BD@GLEOJONA@GetItemDescription@ DB 'GetItemDescription', 00H ; `string'
CONST	ENDS
;	COMDAT ??_C@_0M@BFODJMFI@GetItemName@
CONST	SEGMENT
??_C@_0M@BFODJMFI@GetItemName@ DB 'GetItemName', 00H	; `string'
CONST	ENDS
;	COMDAT ??_C@_0L@GFKKOOBA@SelectItem@
CONST	SEGMENT
??_C@_0L@GFKKOOBA@SelectItem@ DB 'SelectItem', 00H	; `string'
CONST	ENDS
;	COMDAT ??_C@_0BF@BODGENI@SetDropSoundFileName@
CONST	SEGMENT
??_C@_0BF@BODGENI@SetDropSoundFileName@ DB 'SetDropSoundFileName', 00H ; `string'
CONST	ENDS
;	COMDAT ??_C@_0BE@HKKEFMIC@SetUseSoundFileName@
CONST	SEGMENT
??_C@_0BE@HKKEFMIC@SetUseSoundFileName@ DB 'SetUseSoundFileName', 00H ; `string'
CONST	ENDS
;	COMDAT ??_C@_0BC@GFOFMOEA@No?5item?5selected?$CB@
CONST	SEGMENT
??_C@_0BC@GFOFMOEA@No?5item?5selected?$CB@ DB 'No item selected!', 00H ; `string'
CONST	ENDS
;	COMDAT ??_C@_0BM@KPLEGEEH@Can?8t?5find?5select?5item?5data@
CONST	SEGMENT
??_C@_0BM@KPLEGEEH@Can?8t?5find?5select?5item?5data@ DB 'Can''t find sele'
	DB	'ct item data', 00H				; `string'
CONST	ENDS
;	COMDAT ??_C@_0BM@MLEHJLDK@Cannot?5get?5icon?5image?5by?5?$CFd@
CONST	SEGMENT
??_C@_0BM@MLEHJLDK@Cannot?5get?5icon?5image?5by?5?$CFd@ DB 'Cannot get ic'
	DB	'on image by %d', 00H			; `string'
CONST	ENDS
;	COMDAT ??_C@_0BJ@FJOAFFCG@Not?5yet?5select?5item?5data@
CONST	SEGMENT
??_C@_0BJ@FJOAFFCG@Not?5yet?5select?5item?5data@ DB 'Not yet select item '
	DB	'data', 00H					; `string'
CONST	ENDS
;	COMDAT ??_C@_0BG@LNOAJHHG@no?5selected?5item?5data@
CONST	SEGMENT
??_C@_0BG@LNOAJHHG@no?5selected?5item?5data@ DB 'no selected item data', 00H ; `string'
CONST	ENDS
;	COMDAT ?s_methods@?1??initItem@@YAXXZ@4PAUPyMethodDef@@A
_DATA	SEGMENT
?s_methods@?1??initItem@@YAXXZ@4PAUPyMethodDef@@A DD FLAT:??_C@_0BE@HKKEFMIC@SetUseSoundFileName@ ; `initItem'::`2'::s_methods
	DD	FLAT:?itemSetUseSoundFileName@@YAPAU_object@@PAU1@0@Z
	DD	01H
	ORG $+4
	DD	FLAT:??_C@_0BF@BODGENI@SetDropSoundFileName@
	DD	FLAT:?itemSetDropSoundFileName@@YAPAU_object@@PAU1@0@Z
	DD	01H
	ORG $+4
	DD	FLAT:??_C@_0L@GFKKOOBA@SelectItem@
	DD	FLAT:?itemSelectItem@@YAPAU_object@@PAU1@0@Z
	DD	01H
	ORG $+4
	DD	FLAT:??_C@_0M@BFODJMFI@GetItemName@
	DD	FLAT:?itemGetItemName@@YAPAU_object@@PAU1@0@Z
	DD	01H
	ORG $+4
	DD	FLAT:??_C@_0BD@GLEOJONA@GetItemDescription@
	DD	FLAT:?itemGetItemDescription@@YAPAU_object@@PAU1@0@Z
	DD	01H
	ORG $+4
	DD	FLAT:??_C@_0P@OIBFDAMI@GetItemSummary@
	DD	FLAT:?itemGetItemSummary@@YAPAU_object@@PAU1@0@Z
	DD	01H
	ORG $+4
	DD	FLAT:??_C@_0N@IEABDKDK@GetIconImage@
	DD	FLAT:?itemGetIconImage@@YAPAU_object@@PAU1@0@Z
	DD	01H
	ORG $+4
	DD	FLAT:??_C@_0BF@NNPLLIOE@GetIconImageFileName@
	DD	FLAT:?itemGetIconImageFileName@@YAPAU_object@@PAU1@0@Z
	DD	01H
	ORG $+4
	DD	FLAT:??_C@_0M@FBEOFCHB@GetItemSize@
	DD	FLAT:?itemGetItemSize@@YAPAU_object@@PAU1@0@Z
	DD	01H
	ORG $+4
	DD	FLAT:??_C@_0M@LOOAFMCI@GetItemType@
	DD	FLAT:?itemGetItemType@@YAPAU_object@@PAU1@0@Z
	DD	01H
	ORG $+4
	DD	FLAT:??_C@_0P@MFCMKOKJ@GetItemSubType@
	DD	FLAT:?itemGetItemSubType@@YAPAU_object@@PAU1@0@Z
	DD	01H
	ORG $+4
	DD	FLAT:??_C@_0BB@KJGHJKGD@GetIBuyItemPrice@
	DD	FLAT:?itemGetIBuyItemPrice@@YAPAU_object@@PAU1@0@Z
	DD	01H
	ORG $+4
	DD	FLAT:??_C@_0BC@OKNBBEMG@GetISellItemPrice@
	DD	FLAT:?itemGetISellItemPrice@@YAPAU_object@@PAU1@0@Z
	DD	01H
	ORG $+4
	DD	FLAT:??_C@_0L@NKLNOBKA@IsAntiFlag@
	DD	FLAT:?itemIsAntiFlag@@YAPAU_object@@PAU1@0@Z
	DD	01H
	ORG $+4
	DD	FLAT:??_C@_06PLFMNGGB@IsFlag@
	DD	FLAT:?itemIsFlag@@YAPAU_object@@PAU1@0@Z
	DD	01H
	ORG $+4
	DD	FLAT:??_C@_0P@KNFGADIE@IsWearableFlag@
	DD	FLAT:?itemIsWearableFlag@@YAPAU_object@@PAU1@0@Z
	DD	01H
	ORG $+4
	DD	FLAT:??_C@_0M@IKKLMPND@Is1GoldItem@
	DD	FLAT:?itemIs1GoldItem@@YAPAU_object@@PAU1@0@Z
	DD	01H
	ORG $+4
	DD	FLAT:??_C@_08KIIGDNA@GetLimit@
	DD	FLAT:?itemGetLimit@@YAPAU_object@@PAU1@0@Z
	DD	01H
	ORG $+4
	DD	FLAT:??_C@_0N@OIJFEGBC@GetLimitType@
	DD	FLAT:?itemGetLimitType@@YAPAU_object@@PAU1@0@Z
	DD	01H
	ORG $+4
	DD	FLAT:??_C@_0O@PAGKENPD@GetLimitValue@
	DD	FLAT:?itemGetLimitValue@@YAPAU_object@@PAU1@0@Z
	DD	01H
	ORG $+4
	DD	FLAT:??_C@_09HJGEAOAM@GetAffect@
	DD	FLAT:?itemGetAffect@@YAPAU_object@@PAU1@0@Z
	DD	01H
	ORG $+4
	DD	FLAT:??_C@_08GGOMBHIN@GetValue@
	DD	FLAT:?itemGetValue@@YAPAU_object@@PAU1@0@Z
	DD	01H
	ORG $+4
	DD	FLAT:??_C@_09ICJIFGNC@GetSocket@
	DD	FLAT:?itemGetSocket@@YAPAU_object@@PAU1@0@Z
	DD	01H
	ORG $+4
	DD	FLAT:??_C@_0BA@PMLMLIHH@GetIconInstance@
	DD	FLAT:?itemGetIconInstance@@YAPAU_object@@PAU1@0@Z
	DD	01H
	ORG $+4
	DD	FLAT:??_C@_0L@POCKMHMA@GetUseType@
	DD	FLAT:?itemGetUseType@@YAPAU_object@@PAU1@0@Z
	DD	01H
	ORG $+4
	DD	FLAT:??_C@_0BD@BNBIIKMM@DeleteIconInstance@
	DD	FLAT:?itemDeleteIconInstance@@YAPAU_object@@PAU1@0@Z
	DD	01H
	ORG $+4
	DD	FLAT:??_C@_0P@OGDGGJFE@IsEquipmentVID@
	DD	FLAT:?itemIsEquipmentVID@@YAPAU_object@@PAU1@0@Z
	DD	01H
	ORG $+4
	DD	FLAT:??_C@_0P@LGDKNEFF@IsRefineScroll@
	DD	FLAT:?itemIsRefineScroll@@YAPAU_object@@PAU1@0@Z
	DD	01H
	ORG $+4
	DD	FLAT:??_C@_0P@CNNPGCCK@IsDetachScroll@
	DD	FLAT:?itemIsDetachScroll@@YAPAU_object@@PAU1@0@Z
	DD	01H
	ORG $+4
	DD	FLAT:??_C@_05CEOMILKP@IsKey@
	DD	FLAT:?itemIsKey@@YAPAU_object@@PAU1@0@Z
	DD	01H
	ORG $+4
	DD	FLAT:??_C@_07MLLOFDCE@IsMetin@
	DD	FLAT:?itemIsMetin@@YAPAU_object@@PAU1@0@Z
	DD	01H
	ORG $+4
	DD	FLAT:??_C@_0BG@FEGHIHDK@CanAddToQuickSlotItem@
	DD	FLAT:?itemCanAddToQuickSlotItem@@YAPAU_object@@PAU1@0@Z
	DD	01H
	ORG $+4
	DD	FLAT:??_C@_06LMAGPFNF@Update@
	DD	FLAT:?itemUpdate@@YAPAU_object@@PAU1@0@Z
	DD	01H
	ORG $+4
	DD	FLAT:??_C@_06EPLDPNDB@Render@
	DD	FLAT:?itemRender@@YAPAU_object@@PAU1@0@Z
	DD	01H
	ORG $+4
	DD	FLAT:??_C@_0L@EMDEHLJF@CreateItem@
	DD	FLAT:?itemCreateItem@@YAPAU_object@@PAU1@0@Z
	DD	01H
	ORG $+4
	DD	FLAT:??_C@_0L@IIJEEMCG@DeleteItem@
	DD	FLAT:?itemDeleteItem@@YAPAU_object@@PAU1@0@Z
	DD	01H
	ORG $+4
	DD	FLAT:??_C@_04ILHILILF@Pick@
	DD	FLAT:?itemPick@@YAPAU_object@@PAU1@0@Z
	DD	01H
	ORG $+4
	DD	FLAT:??_C@_0O@HJNOJBCJ@LoadItemTable@
	DD	FLAT:?itemLoadItemTable@@YAPAU_object@@PAU1@0@Z
	DD	01H
	ORG $+4
	DD	FLAT:??_C@_0O@FIFLMBIA@IsWeddingItem@
	DD	FLAT:?itemIsWeddingItem@@YAPAU_object@@PAU1@0@Z
	DD	01H
	ORG $+4
	DD	FLAT:??_C@_0BC@DLHGPCJF@GetItemNameByVnum@
	DD	FLAT:?itemGetItemNameByVnum@@YAPAU_object@@PAU1@0@Z
	DD	01H
	ORG $+4
	DD	FLAT:??_C@_0P@KGPFDEPM@SelectItemWiki@
	DD	FLAT:?itemSelectItemWiki@@YAPAU_object@@PAU1@0@Z
	DD	01H
	ORG $+4
	DD	FLAT:??_C@_0N@NCBLKFBB@GetRefineSet@
	DD	FLAT:?itemGetRefineSet@@YAPAU_object@@PAU1@0@Z
	DD	01H
	ORG $+4
	DD	FLAT:??_C@_0P@LHFGFLIF@GetRefinedVnum@
	DD	FLAT:?itemGetRefinedVnum@@YAPAU_object@@PAU1@0@Z
	DD	01H
	ORG $+4
	DD	FLAT:??_C@_0P@JDIMGFAL@GetItemsByName@
	DD	FLAT:?itemGetItemsByName@@YAPAU_object@@PAU1@0@Z
	DD	01H
	ORG $+4
	DD	FLAT:??_C@_0BJ@OLOACL@IsPossibleChangeLookLeft@
	DD	FLAT:?itemIsPossibleChangeLookLeft@@YAPAU_object@@PAU1@0@Z
	DD	01H
	ORG $+4
	DD	FLAT:??_C@_0BK@LGEDBNMJ@IsPossibleChangeLookRight@
	DD	FLAT:?itemIsPossibleChangeLookRight@@YAPAU_object@@PAU1@0@Z
	DD	01H
	ORG $+4
	DD	FLAT:??_C@_0BN@PEBKMIDG@IsChangeLookFreePassYangItem@
	DD	FLAT:?itemIsChangeLookFreePassYangItem@@YAPAU_object@@PAU1@0@Z
	DD	01H
	ORG $+4
	DD	FLAT:??_C@_0BI@PCFHBNB@IsChangeLookClearScroll@
	DD	FLAT:?itemIsChangeLookClearScroll@@YAPAU_object@@PAU1@0@Z
	DD	01H
	ORG $+4
	DD	00H
	DD	00H
	ORG $+8
PUBLIC	??$exchange@PAU?$_Tree_node@U?$pair@$$CBKPAVCItemData@@@std@@PAX@std@@$$T@std@@YAPAU?$_Tree_node@U?$pair@$$CBKPAVCItemData@@@std@@PAX@0@AAPAU10@$$QA$$T@Z ; std::exchange<std::_Tree_node<std::pair<unsigned long const ,CItemData *>,void *> *,std::nullptr_t>
PUBLIC	??$construct_at@PAU?$_Tree_node@U?$pair@$$CBKPAVCItemData@@@std@@PAX@std@@AAPAU12@@std@@YAPAPAU?$_Tree_node@U?$pair@$$CBKPAVCItemData@@@std@@PAX@0@QAPAU10@AAPAU10@@Z ; std::construct_at<std::_Tree_node<std::pair<unsigned long const ,CItemData *>,void *> *,std::_Tree_node<std::pair<unsigned long const ,CItemData *>,void *> * &>
PUBLIC	??$forward@AAPAU?$_Tree_node@U?$pair@$$CBKPAVCItemData@@@std@@PAX@std@@@std@@YAAAPAU?$_Tree_node@U?$pair@$$CBKPAVCItemData@@@std@@PAX@0@AAPAU10@@Z ; std::forward<std::_Tree_node<std::pair<unsigned long const ,CItemData *>,void *> * &>
PUBLIC	??$construct_at@U?$pair@$$CBKPAVCItemData@@@std@@AAU12@@std@@YAPAU?$pair@$$CBKPAVCItemData@@@0@QAU10@AAU10@@Z ; std::construct_at<std::pair<unsigned long const ,CItemData *>,std::pair<unsigned long const ,CItemData *> &>
PUBLIC	??0?$_Alloc_construct_ptr@V?$allocator@U?$_Tree_node@U?$pair@$$CBKPAVCItemData@@@std@@PAX@std@@@std@@@std@@QAE@AAV?$allocator@U?$_Tree_node@U?$pair@$$CBKPAVCItemData@@@std@@PAX@std@@@1@@Z ; std::_Alloc_construct_ptr<std::allocator<std::_Tree_node<std::pair<unsigned long const ,CItemData *>,void *> > >::_Alloc_construct_ptr<std::allocator<std::_Tree_node<std::pair<unsigned long const ,CItemData *>,void *> > >
PUBLIC	?_Release@?$_Alloc_construct_ptr@V?$allocator@U?$_Tree_node@U?$pair@$$CBKPAVCItemData@@@std@@PAX@std@@@std@@@std@@QAEPAU?$_Tree_node@U?$pair@$$CBKPAVCItemData@@@std@@PAX@2@XZ ; std::_Alloc_construct_ptr<std::allocator<std::_Tree_node<std::pair<unsigned long const ,CItemData *>,void *> > >::_Release
PUBLIC	?_Allocate@?$_Alloc_construct_ptr@V?$allocator@U?$_Tree_node@U?$pair@$$CBKPAVCItemData@@@std@@PAX@std@@@std@@@std@@QAEXXZ ; std::_Alloc_construct_ptr<std::allocator<std::_Tree_node<std::pair<unsigned long const ,CItemData *>,void *> > >::_Allocate
PUBLIC	??1?$_Alloc_construct_ptr@V?$allocator@U?$_Tree_node@U?$pair@$$CBKPAVCItemData@@@std@@PAX@std@@@std@@@std@@QAE@XZ ; std::_Alloc_construct_ptr<std::allocator<std::_Tree_node<std::pair<unsigned long const ,CItemData *>,void *> > >::~_Alloc_construct_ptr<std::allocator<std::_Tree_node<std::pair<unsigned long const ,CItemData *>,void *> > >
PUBLIC	??$_Construct_in_place@PAU?$_Tree_node@U?$pair@$$CBKPAVCItemData@@@std@@PAX@std@@AAPAU12@@std@@YAXAAPAU?$_Tree_node@U?$pair@$$CBKPAVCItemData@@@std@@PAX@0@0@Z ; std::_Construct_in_place<std::_Tree_node<std::pair<unsigned long const ,CItemData *>,void *> *,std::_Tree_node<std::pair<unsigned long const ,CItemData *>,void *> * &>
PUBLIC	??$construct@U?$pair@$$CBKPAVCItemData@@@std@@AAU12@@?$_Default_allocator_traits@V?$allocator@U?$_Tree_node@U?$pair@$$CBKPAVCItemData@@@std@@PAX@std@@@std@@@std@@SAXAAV?$allocator@U?$_Tree_node@U?$pair@$$CBKPAVCItemData@@@std@@PAX@std@@@1@QAU?$pair@$$CBKPAVCItemData@@@1@AAU31@@Z ; std::_Default_allocator_traits<std::allocator<std::_Tree_node<std::pair<unsigned long const ,CItemData *>,void *> > >::construct<std::pair<unsigned long const ,CItemData *>,std::pair<unsigned long const ,CItemData *> &>
PUBLIC	?_Orphan_ptr@?$_Tree_val@U?$_Tree_simple_types@U?$pair@$$CBKPAVCItemData@@@std@@@std@@@std@@QAEXQAU?$_Tree_node@U?$pair@$$CBKPAVCItemData@@@std@@PAX@2@@Z ; std::_Tree_val<std::_Tree_simple_types<std::pair<unsigned long const ,CItemData *> > >::_Orphan_ptr
PUBLIC	??$_Buynode@V?$allocator@U?$_Tree_node@U?$pair@$$CBKPAVCItemData@@@std@@PAX@std@@@std@@AAU?$pair@$$CBKPAVCItemData@@@2@@?$_Tree_node@U?$pair@$$CBKPAVCItemData@@@std@@PAX@std@@SAPAU01@AAV?$allocator@U?$_Tree_node@U?$pair@$$CBKPAVCItemData@@@std@@PAX@std@@@1@PAU01@AAU?$pair@$$CBKPAVCItemData@@@1@@Z ; std::_Tree_node<std::pair<unsigned long const ,CItemData *>,void *>::_Buynode<std::allocator<std::_Tree_node<std::pair<unsigned long const ,CItemData *>,void *> >,std::pair<unsigned long const ,CItemData *> &>
PUBLIC	??$forward@AAU?$pair@$$CBKPAVCItemData@@@std@@@std@@YAAAU?$pair@$$CBKPAVCItemData@@@0@AAU10@@Z ; std::forward<std::pair<unsigned long const ,CItemData *> &>
PUBLIC	??$_Erase_tree_and_orphan@V?$allocator@U?$_Tree_node@U?$pair@$$CBKPAVCItemData@@@std@@PAX@std@@@std@@@?$_Tree_val@U?$_Tree_simple_types@U?$pair@$$CBKPAVCItemData@@@std@@@std@@@std@@QAEXAAV?$allocator@U?$_Tree_node@U?$pair@$$CBKPAVCItemData@@@std@@PAX@std@@@1@PAU?$_Tree_node@U?$pair@$$CBKPAVCItemData@@@std@@PAX@1@@Z ; std::_Tree_val<std::_Tree_simple_types<std::pair<unsigned long const ,CItemData *> > >::_Erase_tree_and_orphan<std::allocator<std::_Tree_node<std::pair<unsigned long const ,CItemData *>,void *> > >
PUBLIC	??$construct_at@PAU?$_Tree_node@U?$pair@$$CBKPAVCItemData@@@std@@PAX@std@@ABQAU12@@std@@YAPAPAU?$_Tree_node@U?$pair@$$CBKPAVCItemData@@@std@@PAX@0@QAPAU10@ABQAU10@@Z ; std::construct_at<std::_Tree_node<std::pair<unsigned long const ,CItemData *>,void *> *,std::_Tree_node<std::pair<unsigned long const ,CItemData *>,void *> * const &>
PUBLIC	??$forward@ABQAU?$_Tree_node@U?$pair@$$CBKPAVCItemData@@@std@@PAX@std@@@std@@YAABQAU?$_Tree_node@U?$pair@$$CBKPAVCItemData@@@std@@PAX@0@ABQAU10@@Z ; std::forward<std::_Tree_node<std::pair<unsigned long const ,CItemData *>,void *> * const &>
PUBLIC	??$addressof@PAU?$_Tree_node@U?$pair@$$CBKPAVCItemData@@@std@@PAX@std@@@std@@YAPAPAU?$_Tree_node@U?$pair@$$CBKPAVCItemData@@@std@@PAX@0@AAPAU10@@Z ; std::addressof<std::_Tree_node<std::pair<unsigned long const ,CItemData *>,void *> *>
PUBLIC	??$_Buynode@AAU?$pair@$$CBKPAVCItemData@@@std@@@?$_Tree@V?$_Tmap_traits@KPAVCItemData@@U?$less@K@std@@V?$allocator@U?$pair@$$CBKPAVCItemData@@@std@@@3@$0A@@std@@@std@@IAEPAU?$_Tree_node@U?$pair@$$CBKPAVCItemData@@@std@@PAX@1@AAU?$pair@$$CBKPAVCItemData@@@1@@Z ; std::_Tree<std::_Tmap_traits<unsigned long,CItemData *,std::less<unsigned long>,std::allocator<std::pair<unsigned long const ,CItemData *> >,0> >::_Buynode<std::pair<unsigned long const ,CItemData *> &>
PUBLIC	??$destroy_at@U?$pair@$$CBKPAVCItemData@@@std@@@std@@YAXQAU?$pair@$$CBKPAVCItemData@@@0@@Z ; std::destroy_at<std::pair<unsigned long const ,CItemData *> >
PUBLIC	?deallocate@?$allocator@U?$_Tree_node@U?$pair@$$CBKPAVCItemData@@@std@@PAX@std@@@std@@QAEXQAU?$_Tree_node@U?$pair@$$CBKPAVCItemData@@@std@@PAX@2@I@Z ; std::allocator<std::_Tree_node<std::pair<unsigned long const ,CItemData *>,void *> >::deallocate
PUBLIC	?allocate@?$allocator@U?$_Tree_node@U?$pair@$$CBKPAVCItemData@@@std@@PAX@std@@@std@@QAEPAU?$_Tree_node@U?$pair@$$CBKPAVCItemData@@@std@@PAX@2@I@Z ; std::allocator<std::_Tree_node<std::pair<unsigned long const ,CItemData *>,void *> >::allocate
PUBLIC	??0?$_Tree_val@U?$_Tree_simple_types@U?$pair@$$CBKPAVCItemData@@@std@@@std@@@std@@QAE@XZ ; std::_Tree_val<std::_Tree_simple_types<std::pair<unsigned long const ,CItemData *> > >::_Tree_val<std::_Tree_simple_types<std::pair<unsigned long const ,CItemData *> > >
PUBLIC	?_Get_first@?$_Compressed_pair@U?$less@K@std@@V?$_Compressed_pair@V?$allocator@U?$_Tree_node@U?$pair@$$CBKPAVCItemData@@@std@@PAX@std@@@std@@V?$_Tree_val@U?$_Tree_simple_types@U?$pair@$$CBKPAVCItemData@@@std@@@std@@@2@$00@2@$00@std@@QBEABU?$less@K@2@XZ ; std::_Compressed_pair<std::less<unsigned long>,std::_Compressed_pair<std::allocator<std::_Tree_node<std::pair<unsigned long const ,CItemData *>,void *> >,std::_Tree_val<std::_Tree_simple_types<std::pair<unsigned long const ,CItemData *> > >,1>,1>::_Get_first
PUBLIC	??1?$_Erase_tree_and_orphan_guard@V?$allocator@U?$_Tree_node@U?$pair@$$CBKPAVCItemData@@@std@@PAX@std@@@std@@@?$_Tree_val@U?$_Tree_simple_types@U?$pair@$$CBKPAVCItemData@@@std@@@std@@@std@@QAE@XZ ; std::_Tree_val<std::_Tree_simple_types<std::pair<unsigned long const ,CItemData *> > >::_Erase_tree_and_orphan_guard<std::allocator<std::_Tree_node<std::pair<unsigned long const ,CItemData *>,void *> > >::~_Erase_tree_and_orphan_guard<std::allocator<std::_Tree_node<std::pair<unsigned long const ,CItemData *>,void *> > >
PUBLIC	??$_Construct_in_place@PAU?$_Tree_node@U?$pair@$$CBKPAVCItemData@@@std@@PAX@std@@ABQAU12@@std@@YAXAAPAU?$_Tree_node@U?$pair@$$CBKPAVCItemData@@@std@@PAX@0@ABQAU10@@Z ; std::_Construct_in_place<std::_Tree_node<std::pair<unsigned long const ,CItemData *>,void *> *,std::_Tree_node<std::pair<unsigned long const ,CItemData *>,void *> * const &>
PUBLIC	??$_Copy_or_move@$0A@U?$pair@$$CBKPAVCItemData@@@std@@@?$_Tree@V?$_Tmap_traits@KPAVCItemData@@U?$less@K@std@@V?$allocator@U?$pair@$$CBKPAVCItemData@@@std@@@3@$0A@@std@@@std@@IAEPAU?$_Tree_node@U?$pair@$$CBKPAVCItemData@@@std@@PAX@1@AAU?$pair@$$CBKPAVCItemData@@@1@@Z ; std::_Tree<std::_Tmap_traits<unsigned long,CItemData *,std::less<unsigned long>,std::allocator<std::pair<unsigned long const ,CItemData *> >,0> >::_Copy_or_move<0,std::pair<unsigned long const ,CItemData *> >
PUBLIC	??$destroy@U?$pair@$$CBKPAVCItemData@@@std@@@?$_Default_allocator_traits@V?$allocator@U?$_Tree_node@U?$pair@$$CBKPAVCItemData@@@std@@PAX@std@@@std@@@std@@SAXAAV?$allocator@U?$_Tree_node@U?$pair@$$CBKPAVCItemData@@@std@@PAX@std@@@1@QAU?$pair@$$CBKPAVCItemData@@@1@@Z ; std::_Default_allocator_traits<std::allocator<std::_Tree_node<std::pair<unsigned long const ,CItemData *>,void *> > >::destroy<std::pair<unsigned long const ,CItemData *> >
PUBLIC	?_Getcomp@?$_Tree@V?$_Tmap_traits@KPAVCItemData@@U?$less@K@std@@V?$allocator@U?$pair@$$CBKPAVCItemData@@@std@@@3@$0A@@std@@@std@@IBEABU?$less@K@2@XZ ; std::_Tree<std::_Tmap_traits<unsigned long,CItemData *,std::less<unsigned long>,std::allocator<std::pair<unsigned long const ,CItemData *> >,0> >::_Getcomp
PUBLIC	?deallocate@?$_Default_allocator_traits@V?$allocator@U?$_Tree_node@U?$pair@$$CBKPAVCItemData@@@std@@PAX@std@@@std@@@std@@SAXAAV?$allocator@U?$_Tree_node@U?$pair@$$CBKPAVCItemData@@@std@@PAX@std@@@2@QAU?$_Tree_node@U?$pair@$$CBKPAVCItemData@@@std@@PAX@2@I@Z ; std::_Default_allocator_traits<std::allocator<std::_Tree_node<std::pair<unsigned long const ,CItemData *>,void *> > >::deallocate
PUBLIC	?_Max@?$_Tree_val@U?$_Tree_simple_types@U?$pair@$$CBKPAVCItemData@@@std@@@std@@@std@@SAPAU?$_Tree_node@U?$pair@$$CBKPAVCItemData@@@std@@PAX@2@PAU32@@Z ; std::_Tree_val<std::_Tree_simple_types<std::pair<unsigned long const ,CItemData *> > >::_Max
PUBLIC	?_Min@?$_Tree_val@U?$_Tree_simple_types@U?$pair@$$CBKPAVCItemData@@@std@@@std@@@std@@SAPAU?$_Tree_node@U?$pair@$$CBKPAVCItemData@@@std@@PAX@2@PAU32@@Z ; std::_Tree_val<std::_Tree_simple_types<std::pair<unsigned long const ,CItemData *> > >::_Min
PUBLIC	??$_Buyheadnode@V?$allocator@U?$_Tree_node@U?$pair@$$CBKPAVCItemData@@@std@@PAX@std@@@std@@@?$_Tree_node@U?$pair@$$CBKPAVCItemData@@@std@@PAX@std@@SAPAU01@AAV?$allocator@U?$_Tree_node@U?$pair@$$CBKPAVCItemData@@@std@@PAX@std@@@1@@Z ; std::_Tree_node<std::pair<unsigned long const ,CItemData *>,void *>::_Buyheadnode<std::allocator<std::_Tree_node<std::pair<unsigned long const ,CItemData *>,void *> > >
PUBLIC	??$_Copy_nodes@$0A@@?$_Tree@V?$_Tmap_traits@KPAVCItemData@@U?$less@K@std@@V?$allocator@U?$pair@$$CBKPAVCItemData@@@std@@@3@$0A@@std@@@std@@IAEPAU?$_Tree_node@U?$pair@$$CBKPAVCItemData@@@std@@PAX@1@PAU21@0@Z ; std::_Tree<std::_Tmap_traits<unsigned long,CItemData *,std::less<unsigned long>,std::allocator<std::pair<unsigned long const ,CItemData *> >,0> >::_Copy_nodes<0>
PUBLIC	??$forward@U?$less@K@std@@@std@@YA$$QAU?$less@K@0@AAU10@@Z ; std::forward<std::less<unsigned long> >
PUBLIC	??$_Destroy_in_place@PAU?$_Tree_node@U?$pair@$$CBKPAVCItemData@@@std@@PAX@std@@@std@@YAXAAPAU?$_Tree_node@U?$pair@$$CBKPAVCItemData@@@std@@PAX@0@@Z ; std::_Destroy_in_place<std::_Tree_node<std::pair<unsigned long const ,CItemData *>,void *> *>
PUBLIC	??$_Freenode@V?$allocator@U?$_Tree_node@U?$pair@$$CBKPAVCItemData@@@std@@PAX@std@@@std@@@?$_Tree_node@U?$pair@$$CBKPAVCItemData@@@std@@PAX@std@@SAXAAV?$allocator@U?$_Tree_node@U?$pair@$$CBKPAVCItemData@@@std@@PAX@std@@@1@PAU01@@Z ; std::_Tree_node<std::pair<unsigned long const ,CItemData *>,void *>::_Freenode<std::allocator<std::_Tree_node<std::pair<unsigned long const ,CItemData *>,void *> > >
PUBLIC	??$exchange@PAU?$_Tree_node@U?$pair@$$CBKPAVCItemData@@@std@@PAX@std@@AAPAU12@@std@@YAPAU?$_Tree_node@U?$pair@$$CBKPAVCItemData@@@std@@PAX@0@AAPAU10@0@Z ; std::exchange<std::_Tree_node<std::pair<unsigned long const ,CItemData *>,void *> *,std::_Tree_node<std::pair<unsigned long const ,CItemData *>,void *> * &>
PUBLIC	??$?0V?$allocator@U?$_Tree_node@U?$pair@$$CBKPAVCItemData@@@std@@PAX@std@@@std@@$$V@?$_Compressed_pair@V?$allocator@U?$_Tree_node@U?$pair@$$CBKPAVCItemData@@@std@@PAX@std@@@std@@V?$_Tree_val@U?$_Tree_simple_types@U?$pair@$$CBKPAVCItemData@@@std@@@std@@@2@$00@std@@QAE@U_One_then_variadic_args_t@1@$$QAV?$allocator@U?$_Tree_node@U?$pair@$$CBKPAVCItemData@@@std@@PAX@std@@@1@@Z ; std::_Compressed_pair<std::allocator<std::_Tree_node<std::pair<unsigned long const ,CItemData *>,void *> >,std::_Tree_val<std::_Tree_simple_types<std::pair<unsigned long const ,CItemData *> > >,1>::_Compressed_pair<std::allocator<std::_Tree_node<std::pair<unsigned long const ,CItemData *>,void *> >,std::_Tree_val<std::_Tree_simple_types<std::pair<unsigned long const ,CItemData *> > >,1><std::allocator<std::_Tree_node<std::pair<unsigned long const ,CItemData *>,void *> > >
PUBLIC	?key_comp@?$_Tree@V?$_Tmap_traits@KPAVCItemData@@U?$less@K@std@@V?$allocator@U?$pair@$$CBKPAVCItemData@@@std@@@3@$0A@@std@@@std@@QBE?AU?$less@K@2@XZ ; std::_Tree<std::_Tmap_traits<unsigned long,CItemData *,std::less<unsigned long>,std::allocator<std::pair<unsigned long const ,CItemData *> >,0> >::key_comp
PUBLIC	??D?$_Tree_const_iterator@V?$_Tree_val@U?$_Tree_simple_types@U?$pair@$$CBKPAVCItemData@@@std@@@std@@@std@@@std@@QBEABU?$pair@$$CBKPAVCItemData@@@1@XZ ; std::_Tree_const_iterator<std::_Tree_val<std::_Tree_simple_types<std::pair<unsigned long const ,CItemData *> > > >::operator*
PUBLIC	??E?$_Tree_unchecked_const_iterator@V?$_Tree_val@U?$_Tree_simple_types@U?$pair@$$CBKPAVCItemData@@@std@@@std@@@std@@U_Iterator_base0@2@@std@@QAEAAV01@XZ ; std::_Tree_unchecked_const_iterator<std::_Tree_val<std::_Tree_simple_types<std::pair<unsigned long const ,CItemData *> > >,std::_Iterator_base0>::operator++
PUBLIC	?_Get_first@?$_Compressed_pair@V?$allocator@U?$_Tree_node@U?$pair@$$CBKPAVCItemData@@@std@@PAX@std@@@std@@V?$_Tree_val@U?$_Tree_simple_types@U?$pair@$$CBKPAVCItemData@@@std@@@std@@@2@$00@std@@QAEAAV?$allocator@U?$_Tree_node@U?$pair@$$CBKPAVCItemData@@@std@@PAX@std@@@2@XZ ; std::_Compressed_pair<std::allocator<std::_Tree_node<std::pair<unsigned long const ,CItemData *>,void *> >,std::_Tree_val<std::_Tree_simple_types<std::pair<unsigned long const ,CItemData *> > >,1>::_Get_first
PUBLIC	?_Get_first@?$_Compressed_pair@V?$allocator@U?$_Tree_node@U?$pair@$$CBKPAVCItemData@@@std@@PAX@std@@@std@@V?$_Tree_val@U?$_Tree_simple_types@U?$pair@$$CBKPAVCItemData@@@std@@@std@@@2@$00@std@@QBEABV?$allocator@U?$_Tree_node@U?$pair@$$CBKPAVCItemData@@@std@@PAX@std@@@2@XZ ; std::_Compressed_pair<std::allocator<std::_Tree_node<std::pair<unsigned long const ,CItemData *>,void *> >,std::_Tree_val<std::_Tree_simple_types<std::pair<unsigned long const ,CItemData *> > >,1>::_Get_first
PUBLIC	??0?$_Tree_head_scoped_ptr@V?$allocator@U?$_Tree_node@U?$pair@$$CBKPAVCItemData@@@std@@PAX@std@@@std@@V?$_Tree_val@U?$_Tree_simple_types@U?$pair@$$CBKPAVCItemData@@@std@@@std@@@2@@std@@QAE@AAV?$allocator@U?$_Tree_node@U?$pair@$$CBKPAVCItemData@@@std@@PAX@std@@@1@AAV?$_Tree_val@U?$_Tree_simple_types@U?$pair@$$CBKPAVCItemData@@@std@@@std@@@1@@Z ; std::_Tree_head_scoped_ptr<std::allocator<std::_Tree_node<std::pair<unsigned long const ,CItemData *>,void *> >,std::_Tree_val<std::_Tree_simple_types<std::pair<unsigned long const ,CItemData *> > > >::_Tree_head_scoped_ptr<std::allocator<std::_Tree_node<std::pair<unsigned long const ,CItemData *>,void *> >,std::_Tree_val<std::_Tree_simple_types<std::pair<unsigned long const ,CItemData *> > > >
PUBLIC	?_Release@?$_Tree_head_scoped_ptr@V?$allocator@U?$_Tree_node@U?$pair@$$CBKPAVCItemData@@@std@@PAX@std@@@std@@V?$_Tree_val@U?$_Tree_simple_types@U?$pair@$$CBKPAVCItemData@@@std@@@std@@@2@@std@@QAEXXZ ; std::_Tree_head_scoped_ptr<std::allocator<std::_Tree_node<std::pair<unsigned long const ,CItemData *>,void *> >,std::_Tree_val<std::_Tree_simple_types<std::pair<unsigned long const ,CItemData *> > > >::_Release
PUBLIC	??1?$_Tree_head_scoped_ptr@V?$allocator@U?$_Tree_node@U?$pair@$$CBKPAVCItemData@@@std@@PAX@std@@@std@@V?$_Tree_val@U?$_Tree_simple_types@U?$pair@$$CBKPAVCItemData@@@std@@@std@@@2@@std@@QAE@XZ ; std::_Tree_head_scoped_ptr<std::allocator<std::_Tree_node<std::pair<unsigned long const ,CItemData *>,void *> >,std::_Tree_val<std::_Tree_simple_types<std::pair<unsigned long const ,CItemData *> > > >::~_Tree_head_scoped_ptr<std::allocator<std::_Tree_node<std::pair<unsigned long const ,CItemData *>,void *> >,std::_Tree_val<std::_Tree_simple_types<std::pair<unsigned long const ,CItemData *> > > >
PUBLIC	??$addressof@V?$_Tree_val@U?$_Tree_simple_types@U?$pair@$$CBKPAVCItemData@@@std@@@std@@@std@@@std@@YAPAV?$_Tree_val@U?$_Tree_simple_types@U?$pair@$$CBKPAVCItemData@@@std@@@std@@@0@AAV10@@Z ; std::addressof<std::_Tree_val<std::_Tree_simple_types<std::pair<unsigned long const ,CItemData *> > > >
PUBLIC	??$addressof@$$CBV?$_Tree_val@U?$_Tree_simple_types@U?$pair@$$CBKPAVCItemData@@@std@@@std@@@std@@@std@@YAPBV?$_Tree_val@U?$_Tree_simple_types@U?$pair@$$CBKPAVCItemData@@@std@@@std@@@0@ABV10@@Z ; std::addressof<std::_Tree_val<std::_Tree_simple_types<std::pair<unsigned long const ,CItemData *> > > const >
PUBLIC	??$addressof@U?$pair@$$CBKPAVCItemData@@@std@@@std@@YAPAU?$pair@$$CBKPAVCItemData@@@0@AAU10@@Z ; std::addressof<std::pair<unsigned long const ,CItemData *> >
PUBLIC	??$_Copy@$0A@@?$_Tree@V?$_Tmap_traits@KPAVCItemData@@U?$less@K@std@@V?$allocator@U?$pair@$$CBKPAVCItemData@@@std@@@3@$0A@@std@@@std@@IAEXABV01@@Z ; std::_Tree<std::_Tmap_traits<unsigned long,CItemData *,std::less<unsigned long>,std::allocator<std::pair<unsigned long const ,CItemData *> >,0> >::_Copy<0>
PUBLIC	??$?0U?$less@K@std@@U_One_then_variadic_args_t@1@V?$allocator@U?$_Tree_node@U?$pair@$$CBKPAVCItemData@@@std@@PAX@std@@@1@@?$_Compressed_pair@U?$less@K@std@@V?$_Compressed_pair@V?$allocator@U?$_Tree_node@U?$pair@$$CBKPAVCItemData@@@std@@PAX@std@@@std@@V?$_Tree_val@U?$_Tree_simple_types@U?$pair@$$CBKPAVCItemData@@@std@@@std@@@2@$00@2@$00@std@@QAE@U_One_then_variadic_args_t@1@$$QAU?$less@K@1@$$QAU21@$$QAV?$allocator@U?$_Tree_node@U?$pair@$$CBKPAVCItemData@@@std@@PAX@std@@@1@@Z ; std::_Compressed_pair<std::less<unsigned long>,std::_Compressed_pair<std::allocator<std::_Tree_node<std::pair<unsigned long const ,CItemData *>,void *> >,std::_Tree_val<std::_Tree_simple_types<std::pair<unsigned long const ,CItemData *> > >,1>,1>::_Compressed_pair<std::less<unsigned long>,std::_Compressed_pair<std::allocator<std::_Tree_node<std::pair<unsigned long const ,CItemData *>,void *> >,std::_Tree_val<std::_Tree_simple_types<std::pair<unsigned long const ,CItemData *> > >,1>,1><std::less<unsigned long>,std::_One_then_variadic_args_t,std::allocator<std::_Tree_node<std::pair<unsigned long const ,CItemData *>,void *> > >
PUBLIC	??$forward@V?$allocator@U?$_Tree_node@U?$pair@$$CBKPAVCItemData@@@std@@PAX@std@@@std@@@std@@YA$$QAV?$allocator@U?$_Tree_node@U?$pair@$$CBKPAVCItemData@@@std@@PAX@std@@@0@AAV10@@Z ; std::forward<std::allocator<std::_Tree_node<std::pair<unsigned long const ,CItemData *>,void *> > >
PUBLIC	??$_Freenode0@V?$allocator@U?$_Tree_node@U?$pair@$$CBKPAVCItemData@@@std@@PAX@std@@@std@@@?$_Tree_node@U?$pair@$$CBKPAVCItemData@@@std@@PAX@std@@SAXAAV?$allocator@U?$_Tree_node@U?$pair@$$CBKPAVCItemData@@@std@@PAX@std@@@1@PAU01@@Z ; std::_Tree_node<std::pair<unsigned long const ,CItemData *>,void *>::_Freenode0<std::allocator<std::_Tree_node<std::pair<unsigned long const ,CItemData *>,void *> > >
PUBLIC	??$_Erase_tree@V?$allocator@U?$_Tree_node@U?$pair@$$CBKPAVCItemData@@@std@@PAX@std@@@std@@@?$_Tree_val@U?$_Tree_simple_types@U?$pair@$$CBKPAVCItemData@@@std@@@std@@@std@@QAEXAAV?$allocator@U?$_Tree_node@U?$pair@$$CBKPAVCItemData@@@std@@PAX@std@@@1@PAU?$_Tree_node@U?$pair@$$CBKPAVCItemData@@@std@@PAX@1@@Z ; std::_Tree_val<std::_Tree_simple_types<std::pair<unsigned long const ,CItemData *> > >::_Erase_tree<std::allocator<std::_Tree_node<std::pair<unsigned long const ,CItemData *>,void *> > >
PUBLIC	?_Getal@?$_Tree@V?$_Tmap_traits@KPAVCItemData@@U?$less@K@std@@V?$allocator@U?$pair@$$CBKPAVCItemData@@@std@@@3@$0A@@std@@@std@@IAEAAV?$allocator@U?$_Tree_node@U?$pair@$$CBKPAVCItemData@@@std@@PAX@std@@@2@XZ ; std::_Tree<std::_Tmap_traits<unsigned long,CItemData *,std::less<unsigned long>,std::allocator<std::pair<unsigned long const ,CItemData *> >,0> >::_Getal
PUBLIC	?_Getal@?$_Tree@V?$_Tmap_traits@KPAVCItemData@@U?$less@K@std@@V?$allocator@U?$pair@$$CBKPAVCItemData@@@std@@@3@$0A@@std@@@std@@IBEABV?$allocator@U?$_Tree_node@U?$pair@$$CBKPAVCItemData@@@std@@PAX@std@@@2@XZ ; std::_Tree<std::_Tmap_traits<unsigned long,CItemData *,std::less<unsigned long>,std::allocator<std::pair<unsigned long const ,CItemData *> >,0> >::_Getal
PUBLIC	?_Get_scary@?$_Tree@V?$_Tmap_traits@KPAVCItemData@@U?$less@K@std@@V?$allocator@U?$pair@$$CBKPAVCItemData@@@std@@@3@$0A@@std@@@std@@IAEPAV?$_Tree_val@U?$_Tree_simple_types@U?$pair@$$CBKPAVCItemData@@@std@@@std@@@2@XZ ; std::_Tree<std::_Tmap_traits<unsigned long,CItemData *,std::less<unsigned long>,std::allocator<std::pair<unsigned long const ,CItemData *> >,0> >::_Get_scary
PUBLIC	?_Get_scary@?$_Tree@V?$_Tmap_traits@KPAVCItemData@@U?$less@K@std@@V?$allocator@U?$pair@$$CBKPAVCItemData@@@std@@@3@$0A@@std@@@std@@IBEPBV?$_Tree_val@U?$_Tree_simple_types@U?$pair@$$CBKPAVCItemData@@@std@@@std@@@2@XZ ; std::_Tree<std::_Tmap_traits<unsigned long,CItemData *,std::less<unsigned long>,std::allocator<std::pair<unsigned long const ,CItemData *> >,0> >::_Get_scary
PUBLIC	?select_on_container_copy_construction@?$_Default_allocator_traits@V?$allocator@U?$_Tree_node@U?$pair@$$CBKPAVCItemData@@@std@@PAX@std@@@std@@@std@@SA?AV?$allocator@U?$_Tree_node@U?$pair@$$CBKPAVCItemData@@@std@@PAX@std@@@2@ABV32@@Z ; std::_Default_allocator_traits<std::allocator<std::_Tree_node<std::pair<unsigned long const ,CItemData *>,void *> > >::select_on_container_copy_construction
PUBLIC	??E?$_Tree_const_iterator@V?$_Tree_val@U?$_Tree_simple_types@U?$pair@$$CBKPAVCItemData@@@std@@@std@@@std@@@std@@QAEAAV01@XZ ; std::_Tree_const_iterator<std::_Tree_val<std::_Tree_simple_types<std::pair<unsigned long const ,CItemData *> > > >::operator++
PUBLIC	??D?$_Tree_iterator@V?$_Tree_val@U?$_Tree_simple_types@U?$pair@$$CBKPAVCItemData@@@std@@@std@@@std@@@std@@QBEAAU?$pair@$$CBKPAVCItemData@@@1@XZ ; std::_Tree_iterator<std::_Tree_val<std::_Tree_simple_types<std::pair<unsigned long const ,CItemData *> > > >::operator*
PUBLIC	??0?$_Tree_unchecked_const_iterator@V?$_Tree_val@U?$_Tree_simple_types@U?$pair@$$CBKPAVCItemData@@@std@@@std@@@std@@U_Iterator_base0@2@@std@@QAE@PAU?$_Tree_node@U?$pair@$$CBKPAVCItemData@@@std@@PAX@1@PBV?$_Tree_val@U?$_Tree_simple_types@U?$pair@$$CBKPAVCItemData@@@std@@@std@@@1@@Z ; std::_Tree_unchecked_const_iterator<std::_Tree_val<std::_Tree_simple_types<std::pair<unsigned long const ,CItemData *> > >,std::_Iterator_base0>::_Tree_unchecked_const_iterator<std::_Tree_val<std::_Tree_simple_types<std::pair<unsigned long const ,CItemData *> > >,std::_Iterator_base0>
PUBLIC	?pointer_to@?$pointer_traits@PAU?$pair@$$CBKPAVCItemData@@@std@@@std@@SAPAU?$pair@$$CBKPAVCItemData@@@2@AAU32@@Z ; std::pointer_traits<std::pair<unsigned long const ,CItemData *> *>::pointer_to
PUBLIC	??$?0V?$allocator@U?$_Tree_node@U?$pair@$$CBKPAVCItemData@@@std@@PAX@std@@@std@@@?$_Tree@V?$_Tmap_traits@KPAVCItemData@@U?$less@K@std@@V?$allocator@U?$pair@$$CBKPAVCItemData@@@std@@@3@$0A@@std@@@std@@QAE@ABV01@$$QAV?$allocator@U?$_Tree_node@U?$pair@$$CBKPAVCItemData@@@std@@PAX@std@@@1@@Z ; std::_Tree<std::_Tmap_traits<unsigned long,CItemData *,std::less<unsigned long>,std::allocator<std::pair<unsigned long const ,CItemData *> >,0> >::_Tree<std::_Tmap_traits<unsigned long,CItemData *,std::less<unsigned long>,std::allocator<std::pair<unsigned long const ,CItemData *> >,0> ><std::allocator<std::_Tree_node<std::pair<unsigned long const ,CItemData *>,void *> > >
PUBLIC	??$_Erase_head@V?$allocator@U?$_Tree_node@U?$pair@$$CBKPAVCItemData@@@std@@PAX@std@@@std@@@?$_Tree_val@U?$_Tree_simple_types@U?$pair@$$CBKPAVCItemData@@@std@@@std@@@std@@QAEXAAV?$allocator@U?$_Tree_node@U?$pair@$$CBKPAVCItemData@@@std@@PAX@std@@@1@@Z ; std::_Tree_val<std::_Tree_simple_types<std::pair<unsigned long const ,CItemData *> > >::_Erase_head<std::allocator<std::_Tree_node<std::pair<unsigned long const ,CItemData *>,void *> > >
PUBLIC	??0?$_Tree_const_iterator@V?$_Tree_val@U?$_Tree_simple_types@U?$pair@$$CBKPAVCItemData@@@std@@@std@@@std@@@std@@QAE@PAU?$_Tree_node@U?$pair@$$CBKPAVCItemData@@@std@@PAX@1@PBV?$_Tree_val@U?$_Tree_simple_types@U?$pair@$$CBKPAVCItemData@@@std@@@std@@@1@@Z ; std::_Tree_const_iterator<std::_Tree_val<std::_Tree_simple_types<std::pair<unsigned long const ,CItemData *> > > >::_Tree_const_iterator<std::_Tree_val<std::_Tree_simple_types<std::pair<unsigned long const ,CItemData *> > > >
PUBLIC	??0?$_Tree_iterator@V?$_Tree_val@U?$_Tree_simple_types@U?$pair@$$CBKPAVCItemData@@@std@@@std@@@std@@@std@@QAE@PAU?$_Tree_node@U?$pair@$$CBKPAVCItemData@@@std@@PAX@1@PBV?$_Tree_val@U?$_Tree_simple_types@U?$pair@$$CBKPAVCItemData@@@std@@@std@@@1@@Z ; std::_Tree_iterator<std::_Tree_val<std::_Tree_simple_types<std::pair<unsigned long const ,CItemData *> > > >::_Tree_iterator<std::_Tree_val<std::_Tree_simple_types<std::pair<unsigned long const ,CItemData *> > > >
PUBLIC	?compare@?$basic_string@DU?$char_traits@D@std@@V?$allocator@D@2@@std@@QBEHIIABV12@@Z ; std::basic_string<char,std::char_traits<char>,std::allocator<char> >::compare
PUBLIC	??0?$map@KPAVCItemData@@U?$less@K@std@@V?$allocator@U?$pair@$$CBKPAVCItemData@@@std@@@3@@std@@QAE@ABV01@@Z ; std::map<unsigned long,CItemData *,std::less<unsigned long>,std::allocator<std::pair<unsigned long const ,CItemData *> > >::map<unsigned long,CItemData *,std::less<unsigned long>,std::allocator<std::pair<unsigned long const ,CItemData *> > >
PUBLIC	??1?$_Tree@V?$_Tmap_traits@KPAVCItemData@@U?$less@K@std@@V?$allocator@U?$pair@$$CBKPAVCItemData@@@std@@@3@$0A@@std@@@std@@QAE@XZ ; std::_Tree<std::_Tmap_traits<unsigned long,CItemData *,std::less<unsigned long>,std::allocator<std::pair<unsigned long const ,CItemData *> >,0> >::~_Tree<std::_Tmap_traits<unsigned long,CItemData *,std::less<unsigned long>,std::allocator<std::pair<unsigned long const ,CItemData *> >,0> >
PUBLIC	?begin@?$_Tree@V?$_Tmap_traits@KPAVCItemData@@U?$less@K@std@@V?$allocator@U?$pair@$$CBKPAVCItemData@@@std@@@3@$0A@@std@@@std@@QAE?AV?$_Tree_iterator@V?$_Tree_val@U?$_Tree_simple_types@U?$pair@$$CBKPAVCItemData@@@std@@@std@@@std@@@2@XZ ; std::_Tree<std::_Tmap_traits<unsigned long,CItemData *,std::less<unsigned long>,std::allocator<std::pair<unsigned long const ,CItemData *> >,0> >::begin
PUBLIC	?end@?$_Tree@V?$_Tmap_traits@KPAVCItemData@@U?$less@K@std@@V?$allocator@U?$pair@$$CBKPAVCItemData@@@std@@@3@$0A@@std@@@std@@QAE?AV?$_Tree_iterator@V?$_Tree_val@U?$_Tree_simple_types@U?$pair@$$CBKPAVCItemData@@@std@@@std@@@std@@@2@XZ ; std::_Tree<std::_Tmap_traits<unsigned long,CItemData *,std::less<unsigned long>,std::allocator<std::pair<unsigned long const ,CItemData *> >,0> >::end
PUBLIC	?size@?$_Tree@V?$_Tmap_traits@KPAVCItemData@@U?$less@K@std@@V?$allocator@U?$pair@$$CBKPAVCItemData@@@std@@@3@$0A@@std@@@std@@QBEIXZ ; std::_Tree<std::_Tmap_traits<unsigned long,CItemData *,std::less<unsigned long>,std::allocator<std::pair<unsigned long const ,CItemData *> >,0> >::size
PUBLIC	??8?$_Tree_const_iterator@V?$_Tree_val@U?$_Tree_simple_types@U?$pair@$$CBKPAVCItemData@@@std@@@std@@@std@@@std@@QBE_NABV01@@Z ; std::_Tree_const_iterator<std::_Tree_val<std::_Tree_simple_types<std::pair<unsigned long const ,CItemData *> > > >::operator==
PUBLIC	??C?$_Tree_iterator@V?$_Tree_val@U?$_Tree_simple_types@U?$pair@$$CBKPAVCItemData@@@std@@@std@@@std@@@std@@QBEPAU?$pair@$$CBKPAVCItemData@@@1@XZ ; std::_Tree_iterator<std::_Tree_val<std::_Tree_simple_types<std::pair<unsigned long const ,CItemData *> > > >::operator->
PUBLIC	??E?$_Tree_iterator@V?$_Tree_val@U?$_Tree_simple_types@U?$pair@$$CBKPAVCItemData@@@std@@@std@@@std@@@std@@QAEAAV01@XZ ; std::_Tree_iterator<std::_Tree_val<std::_Tree_simple_types<std::pair<unsigned long const ,CItemData *> > > >::operator++
PUBLIC	??0?$_Tree_unchecked_const_iterator@V?$_Tree_val@U?$_Tree_simple_types@U?$pair@$$CBKPAVCItemData@@@std@@@std@@@std@@U_Iterator_base0@2@@std@@QAE@XZ ; std::_Tree_unchecked_const_iterator<std::_Tree_val<std::_Tree_simple_types<std::pair<unsigned long const ,CItemData *> > >,std::_Iterator_base0>::_Tree_unchecked_const_iterator<std::_Tree_val<std::_Tree_simple_types<std::pair<unsigned long const ,CItemData *> > >,std::_Iterator_base0>
PUBLIC	?initItem@@YAXXZ				; initItem
PUBLIC	?itemIsChangeLookClearScroll@@YAPAU_object@@PAU1@0@Z ; itemIsChangeLookClearScroll
PUBLIC	?itemIsChangeLookFreePassYangItem@@YAPAU_object@@PAU1@0@Z ; itemIsChangeLookFreePassYangItem
PUBLIC	?itemIsPossibleChangeLookRight@@YAPAU_object@@PAU1@0@Z ; itemIsPossibleChangeLookRight
PUBLIC	?itemIsPossibleChangeLookLeft@@YAPAU_object@@PAU1@0@Z ; itemIsPossibleChangeLookLeft
PUBLIC	??0?$_Tree_const_iterator@V?$_Tree_val@U?$_Tree_simple_types@U?$pair@$$CBKPAVCItemData@@@std@@@std@@@std@@@std@@QAE@XZ ; std::_Tree_const_iterator<std::_Tree_val<std::_Tree_simple_types<std::pair<unsigned long const ,CItemData *> > > >::_Tree_const_iterator<std::_Tree_val<std::_Tree_simple_types<std::pair<unsigned long const ,CItemData *> > > >
PUBLIC	??0?$_Tree_iterator@V?$_Tree_val@U?$_Tree_simple_types@U?$pair@$$CBKPAVCItemData@@@std@@@std@@@std@@@std@@QAE@XZ ; std::_Tree_iterator<std::_Tree_val<std::_Tree_simple_types<std::pair<unsigned long const ,CItemData *> > > >::_Tree_iterator<std::_Tree_val<std::_Tree_simple_types<std::pair<unsigned long const ,CItemData *> > > >
PUBLIC	?itemGetItemsByName@@YAPAU_object@@PAU1@0@Z	; itemGetItemsByName
PUBLIC	?itemSelectItemWiki@@YAPAU_object@@PAU1@0@Z	; itemSelectItemWiki
PUBLIC	?itemGetRefinedVnum@@YAPAU_object@@PAU1@0@Z	; itemGetRefinedVnum
PUBLIC	?itemGetRefineSet@@YAPAU_object@@PAU1@0@Z	; itemGetRefineSet
PUBLIC	?itemGetItemNameByVnum@@YAPAU_object@@PAU1@0@Z	; itemGetItemNameByVnum
PUBLIC	?itemIsWeddingItem@@YAPAU_object@@PAU1@0@Z	; itemIsWeddingItem
PUBLIC	?itemLoadItemTable@@YAPAU_object@@PAU1@0@Z	; itemLoadItemTable
PUBLIC	?itemPick@@YAPAU_object@@PAU1@0@Z		; itemPick
PUBLIC	?itemDeleteItem@@YAPAU_object@@PAU1@0@Z		; itemDeleteItem
PUBLIC	?itemCreateItem@@YAPAU_object@@PAU1@0@Z		; itemCreateItem
PUBLIC	?itemUpdate@@YAPAU_object@@PAU1@0@Z		; itemUpdate
PUBLIC	?itemRender@@YAPAU_object@@PAU1@0@Z		; itemRender
PUBLIC	?itemIsMetin@@YAPAU_object@@PAU1@0@Z		; itemIsMetin
PUBLIC	?itemIsKey@@YAPAU_object@@PAU1@0@Z		; itemIsKey
PUBLIC	?itemCanAddToQuickSlotItem@@YAPAU_object@@PAU1@0@Z ; itemCanAddToQuickSlotItem
PUBLIC	?itemIsDetachScroll@@YAPAU_object@@PAU1@0@Z	; itemIsDetachScroll
PUBLIC	?itemIsRefineScroll@@YAPAU_object@@PAU1@0@Z	; itemIsRefineScroll
PUBLIC	?itemGetUseType@@YAPAU_object@@PAU1@0@Z		; itemGetUseType
PUBLIC	?itemIsEquipmentVID@@YAPAU_object@@PAU1@0@Z	; itemIsEquipmentVID
PUBLIC	?itemDeleteIconInstance@@YAPAU_object@@PAU1@0@Z	; itemDeleteIconInstance
PUBLIC	?itemGetIconInstance@@YAPAU_object@@PAU1@0@Z	; itemGetIconInstance
PUBLIC	?itemGetSocket@@YAPAU_object@@PAU1@0@Z		; itemGetSocket
PUBLIC	?itemGetValue@@YAPAU_object@@PAU1@0@Z		; itemGetValue
PUBLIC	?itemGetAffect@@YAPAU_object@@PAU1@0@Z		; itemGetAffect
PUBLIC	?itemGetLimitValue@@YAPAU_object@@PAU1@0@Z	; itemGetLimitValue
PUBLIC	?itemGetLimitType@@YAPAU_object@@PAU1@0@Z	; itemGetLimitType
PUBLIC	?itemGetLimit@@YAPAU_object@@PAU1@0@Z		; itemGetLimit
PUBLIC	?itemIs1GoldItem@@YAPAU_object@@PAU1@0@Z	; itemIs1GoldItem
PUBLIC	?itemIsWearableFlag@@YAPAU_object@@PAU1@0@Z	; itemIsWearableFlag
PUBLIC	?itemIsFlag@@YAPAU_object@@PAU1@0@Z		; itemIsFlag
PUBLIC	?itemIsAntiFlag@@YAPAU_object@@PAU1@0@Z		; itemIsAntiFlag
PUBLIC	?itemGetISellItemPrice@@YAPAU_object@@PAU1@0@Z	; itemGetISellItemPrice
PUBLIC	?itemGetIBuyItemPrice@@YAPAU_object@@PAU1@0@Z	; itemGetIBuyItemPrice
PUBLIC	?itemGetItemSubType@@YAPAU_object@@PAU1@0@Z	; itemGetItemSubType
PUBLIC	?itemGetItemType@@YAPAU_object@@PAU1@0@Z	; itemGetItemType
PUBLIC	?itemGetItemSize@@YAPAU_object@@PAU1@0@Z	; itemGetItemSize
PUBLIC	?itemGetIconImageFileName@@YAPAU_object@@PAU1@0@Z ; itemGetIconImageFileName
PUBLIC	?itemGetIconImage@@YAPAU_object@@PAU1@0@Z	; itemGetIconImage
PUBLIC	?itemGetItemSummary@@YAPAU_object@@PAU1@0@Z	; itemGetItemSummary
PUBLIC	?itemGetItemDescription@@YAPAU_object@@PAU1@0@Z	; itemGetItemDescription
PUBLIC	?itemGetItemName@@YAPAU_object@@PAU1@0@Z	; itemGetItemName
PUBLIC	?itemSelectItem@@YAPAU_object@@PAU1@0@Z		; itemSelectItem
PUBLIC	?itemSetDropSoundFileName@@YAPAU_object@@PAU1@0@Z ; itemSetDropSoundFileName
PUBLIC	?itemSetUseSoundFileName@@YAPAU_object@@PAU1@0@Z ; itemSetUseSoundFileName
PUBLIC	??1?$map@KPAVCItemData@@U?$less@K@std@@V?$allocator@U?$pair@$$CBKPAVCItemData@@@std@@@3@@std@@QAE@XZ ; std::map<unsigned long,CItemData *,std::less<unsigned long>,std::allocator<std::pair<unsigned long const ,CItemData *> > >::~map<unsigned long,CItemData *,std::less<unsigned long>,std::allocator<std::pair<unsigned long const ,CItemData *> > >
PUBLIC	?GetItems@CItemManager@@QBE?AV?$map@KPAVCItemData@@U?$less@K@std@@V?$allocator@U?$pair@$$CBKPAVCItemData@@@std@@@3@@std@@XZ ; CItemManager::GetItems
;	COMDAT xdata$x
xdata$x	SEGMENT
__ehfuncinfo$?GetItems@CItemManager@@QBE?AV?$map@KPAVCItemData@@U?$less@K@std@@V?$allocator@U?$pair@$$CBKPAVCItemData@@@std@@@3@@std@@XZ DQ 00000000119930522r ; 2.33398e-314
	DD	FLAT:__unwindtable$?GetItems@CItemManager@@QBE?AV?$map@KPAVCItemData@@U?$less@K@std@@V?$allocator@U?$pair@$$CBKPAVCItemData@@@std@@@3@@std@@XZ
	DQ	00000000000000000r		; 0
	DQ	00000000000000000r		; 0
	DQ	00000000100000000r		; 2.122e-314
__unwindtable$?GetItems@CItemManager@@QBE?AV?$map@KPAVCItemData@@U?$less@K@std@@V?$allocator@U?$pair@$$CBKPAVCItemData@@@std@@@3@@std@@XZ DD 0ffffffffH
	DD	FLAT:__unwindfunclet$?GetItems@CItemManager@@QBE?AV?$map@KPAVCItemData@@U?$less@K@std@@V?$allocator@U?$pair@$$CBKPAVCItemData@@@std@@@3@@std@@XZ$2
xdata$x	ENDS
;	COMDAT xdata$x
xdata$x	SEGMENT
__ehfuncinfo$?itemSetUseSoundFileName@@YAPAU_object@@PAU1@0@Z DQ 00000000119930522r ; 2.33398e-314
	DD	FLAT:__unwindtable$?itemSetUseSoundFileName@@YAPAU_object@@PAU1@0@Z
	DQ	00000000000000000r		; 0
	DQ	00000000000000000r		; 0
	DQ	00000000100000000r		; 2.122e-314
__unwindtable$?itemSetUseSoundFileName@@YAPAU_object@@PAU1@0@Z DD 0ffffffffH
	DD	FLAT:__unwindfunclet$?itemSetUseSoundFileName@@YAPAU_object@@PAU1@0@Z$0
xdata$x	ENDS
;	COMDAT xdata$x
xdata$x	SEGMENT
__ehfuncinfo$?itemSetDropSoundFileName@@YAPAU_object@@PAU1@0@Z DQ 00000000119930522r ; 2.33398e-314
	DD	FLAT:__unwindtable$?itemSetDropSoundFileName@@YAPAU_object@@PAU1@0@Z
	DQ	00000000000000000r		; 0
	DQ	00000000000000000r		; 0
	DQ	00000000100000000r		; 2.122e-314
__unwindtable$?itemSetDropSoundFileName@@YAPAU_object@@PAU1@0@Z DD 0ffffffffH
	DD	FLAT:__unwindfunclet$?itemSetDropSoundFileName@@YAPAU_object@@PAU1@0@Z$0
xdata$x	ENDS
;	COMDAT xdata$x
xdata$x	SEGMENT
__ehfuncinfo$?itemGetItemsByName@@YAPAU_object@@PAU1@0@Z DD 019930522H
	DD	04H
	DD	FLAT:__unwindtable$?itemGetItemsByName@@YAPAU_object@@PAU1@0@Z
	DD	2 DUP(00H)
	DD	2 DUP(00H)
	DD	00H
	DD	01H
__unwindtable$?itemGetItemsByName@@YAPAU_object@@PAU1@0@Z DD 0ffffffffH
	DD	FLAT:__unwindfunclet$?itemGetItemsByName@@YAPAU_object@@PAU1@0@Z$10
	DD	0ffffffffH
	DD	FLAT:__unwindfunclet$?itemGetItemsByName@@YAPAU_object@@PAU1@0@Z$0
	DD	01H
	DD	FLAT:__unwindfunclet$?itemGetItemsByName@@YAPAU_object@@PAU1@0@Z$1
	DD	02H
	DD	FLAT:__unwindfunclet$?itemGetItemsByName@@YAPAU_object@@PAU1@0@Z$2
xdata$x	ENDS
;	COMDAT xdata$x
xdata$x	SEGMENT
__ehfuncinfo$??0?$map@KPAVCItemData@@U?$less@K@std@@V?$allocator@U?$pair@$$CBKPAVCItemData@@@std@@@3@@std@@QAE@ABV01@@Z DQ 00000000119930522r ; 2.33398e-314
	DD	FLAT:__unwindtable$??0?$map@KPAVCItemData@@U?$less@K@std@@V?$allocator@U?$pair@$$CBKPAVCItemData@@@std@@@3@@std@@QAE@ABV01@@Z
	DQ	00000000000000000r		; 0
	DQ	00000000000000000r		; 0
	DQ	00000000100000000r		; 2.122e-314
__unwindtable$??0?$map@KPAVCItemData@@U?$less@K@std@@V?$allocator@U?$pair@$$CBKPAVCItemData@@@std@@@3@@std@@QAE@ABV01@@Z DD 0ffffffffH
	DD	FLAT:__unwindfunclet$??0?$map@KPAVCItemData@@U?$less@K@std@@V?$allocator@U?$pair@$$CBKPAVCItemData@@@std@@@3@@std@@QAE@ABV01@@Z$1
xdata$x	ENDS
;	COMDAT xdata$x
xdata$x	SEGMENT
__ehfuncinfo$??$?0V?$allocator@U?$_Tree_node@U?$pair@$$CBKPAVCItemData@@@std@@PAX@std@@@std@@@?$_Tree@V?$_Tmap_traits@KPAVCItemData@@U?$less@K@std@@V?$allocator@U?$pair@$$CBKPAVCItemData@@@std@@@3@$0A@@std@@@std@@QAE@ABV01@$$QAV?$allocator@U?$_Tree_node@U?$pair@$$CBKPAVCItemData@@@std@@PAX@std@@@1@@Z DQ 00000000119930522r ; 2.33398e-314
	DD	FLAT:__unwindtable$??$?0V?$allocator@U?$_Tree_node@U?$pair@$$CBKPAVCItemData@@@std@@PAX@std@@@std@@@?$_Tree@V?$_Tmap_traits@KPAVCItemData@@U?$less@K@std@@V?$allocator@U?$pair@$$CBKPAVCItemData@@@std@@@3@$0A@@std@@@std@@QAE@ABV01@$$QAV?$allocator@U?$_Tree_node@U?$pair@$$CBKPAVCItemData@@@std@@PAX@std@@@1@@Z
	DQ	00000000000000000r		; 0
	DQ	00000000000000000r		; 0
	DQ	00000000100000000r		; 2.122e-314
__unwindtable$??$?0V?$allocator@U?$_Tree_node@U?$pair@$$CBKPAVCItemData@@@std@@PAX@std@@@std@@@?$_Tree@V?$_Tmap_traits@KPAVCItemData@@U?$less@K@std@@V?$allocator@U?$pair@$$CBKPAVCItemData@@@std@@@3@$0A@@std@@@std@@QAE@ABV01@$$QAV?$allocator@U?$_Tree_node@U?$pair@$$CBKPAVCItemData@@@std@@PAX@std@@@1@@Z DD 0ffffffffH
	DD	FLAT:__unwindfunclet$??$?0V?$allocator@U?$_Tree_node@U?$pair@$$CBKPAVCItemData@@@std@@PAX@std@@@std@@@?$_Tree@V?$_Tmap_traits@KPAVCItemData@@U?$less@K@std@@V?$allocator@U?$pair@$$CBKPAVCItemData@@@std@@@3@$0A@@std@@@std@@QAE@ABV01@$$QAV?$allocator@U?$_Tree_node@U?$pair@$$CBKPAVCItemData@@@std@@PAX@std@@@1@@Z$0
xdata$x	ENDS
;	COMDAT xdata$x
xdata$x	SEGMENT
__ehfuncinfo$??$_Copy_nodes@$0A@@?$_Tree@V?$_Tmap_traits@KPAVCItemData@@U?$less@K@std@@V?$allocator@U?$pair@$$CBKPAVCItemData@@@std@@@3@$0A@@std@@@std@@IAEPAU?$_Tree_node@U?$pair@$$CBKPAVCItemData@@@std@@PAX@1@PAU21@0@Z DQ 00000000219930522r ; 4.45598e-314
	DD	FLAT:__unwindtable$??$_Copy_nodes@$0A@@?$_Tree@V?$_Tmap_traits@KPAVCItemData@@U?$less@K@std@@V?$allocator@U?$pair@$$CBKPAVCItemData@@@std@@@3@$0A@@std@@@std@@IAEPAU?$_Tree_node@U?$pair@$$CBKPAVCItemData@@@std@@PAX@1@PAU21@0@Z
	DQ	00000000000000000r		; 0
	DQ	00000000000000000r		; 0
	DQ	00000000100000000r		; 2.122e-314
__unwindtable$??$_Copy_nodes@$0A@@?$_Tree@V?$_Tmap_traits@KPAVCItemData@@U?$less@K@std@@V?$allocator@U?$pair@$$CBKPAVCItemData@@@std@@@3@$0A@@std@@@std@@IAEPAU?$_Tree_node@U?$pair@$$CBKPAVCItemData@@@std@@PAX@1@PAU21@0@Z DD 0ffffffffH
	DD	FLAT:__unwindfunclet$??$_Copy_nodes@$0A@@?$_Tree@V?$_Tmap_traits@KPAVCItemData@@U?$less@K@std@@V?$allocator@U?$pair@$$CBKPAVCItemData@@@std@@@3@$0A@@std@@@std@@IAEPAU?$_Tree_node@U?$pair@$$CBKPAVCItemData@@@std@@PAX@1@PAU21@0@Z$1
	DD	0ffffffffH
	DD	FLAT:__unwindfunclet$??$_Copy_nodes@$0A@@?$_Tree@V?$_Tmap_traits@KPAVCItemData@@U?$less@K@std@@V?$allocator@U?$pair@$$CBKPAVCItemData@@@std@@@3@$0A@@std@@@std@@IAEPAU?$_Tree_node@U?$pair@$$CBKPAVCItemData@@@std@@PAX@1@PAU21@0@Z$0
xdata$x	ENDS
;	COMDAT xdata$x
xdata$x	SEGMENT
__ehfuncinfo$??$_Copy_or_move@$0A@U?$pair@$$CBKPAVCItemData@@@std@@@?$_Tree@V?$_Tmap_traits@KPAVCItemData@@U?$less@K@std@@V?$allocator@U?$pair@$$CBKPAVCItemData@@@std@@@3@$0A@@std@@@std@@IAEPAU?$_Tree_node@U?$pair@$$CBKPAVCItemData@@@std@@PAX@1@AAU?$pair@$$CBKPAVCItemData@@@1@@Z DQ 00000000119930522r ; 2.33398e-314
	DD	FLAT:__unwindtable$??$_Copy_or_move@$0A@U?$pair@$$CBKPAVCItemData@@@std@@@?$_Tree@V?$_Tmap_traits@KPAVCItemData@@U?$less@K@std@@V?$allocator@U?$pair@$$CBKPAVCItemData@@@std@@@3@$0A@@std@@@std@@IAEPAU?$_Tree_node@U?$pair@$$CBKPAVCItemData@@@std@@PAX@1@AAU?$pair@$$CBKPAVCItemData@@@1@@Z
	DQ	00000000000000000r		; 0
	DQ	00000000000000000r		; 0
	DQ	00000000100000000r		; 2.122e-314
__unwindtable$??$_Copy_or_move@$0A@U?$pair@$$CBKPAVCItemData@@@std@@@?$_Tree@V?$_Tmap_traits@KPAVCItemData@@U?$less@K@std@@V?$allocator@U?$pair@$$CBKPAVCItemData@@@std@@@3@$0A@@std@@@std@@IAEPAU?$_Tree_node@U?$pair@$$CBKPAVCItemData@@@std@@PAX@1@AAU?$pair@$$CBKPAVCItemData@@@1@@Z DD 0ffffffffH
	DD	FLAT:__unwindfunclet$??$_Copy_or_move@$0A@U?$pair@$$CBKPAVCItemData@@@std@@@?$_Tree@V?$_Tmap_traits@KPAVCItemData@@U?$less@K@std@@V?$allocator@U?$pair@$$CBKPAVCItemData@@@std@@@3@$0A@@std@@@std@@IAEPAU?$_Tree_node@U?$pair@$$CBKPAVCItemData@@@std@@PAX@1@AAU?$pair@$$CBKPAVCItemData@@@1@@Z$0
xdata$x	ENDS
;	COMDAT xdata$x
xdata$x	SEGMENT
__ehfuncinfo$??$_Buynode@AAU?$pair@$$CBKPAVCItemData@@@std@@@?$_Tree@V?$_Tmap_traits@KPAVCItemData@@U?$less@K@std@@V?$allocator@U?$pair@$$CBKPAVCItemData@@@std@@@3@$0A@@std@@@std@@IAEPAU?$_Tree_node@U?$pair@$$CBKPAVCItemData@@@std@@PAX@1@AAU?$pair@$$CBKPAVCItemData@@@1@@Z DQ 00000000119930522r ; 2.33398e-314
	DD	FLAT:__unwindtable$??$_Buynode@AAU?$pair@$$CBKPAVCItemData@@@std@@@?$_Tree@V?$_Tmap_traits@KPAVCItemData@@U?$less@K@std@@V?$allocator@U?$pair@$$CBKPAVCItemData@@@std@@@3@$0A@@std@@@std@@IAEPAU?$_Tree_node@U?$pair@$$CBKPAVCItemData@@@std@@PAX@1@AAU?$pair@$$CBKPAVCItemData@@@1@@Z
	DQ	00000000000000000r		; 0
	DQ	00000000000000000r		; 0
	DQ	00000000100000000r		; 2.122e-314
__unwindtable$??$_Buynode@AAU?$pair@$$CBKPAVCItemData@@@std@@@?$_Tree@V?$_Tmap_traits@KPAVCItemData@@U?$less@K@std@@V?$allocator@U?$pair@$$CBKPAVCItemData@@@std@@@3@$0A@@std@@@std@@IAEPAU?$_Tree_node@U?$pair@$$CBKPAVCItemData@@@std@@PAX@1@AAU?$pair@$$CBKPAVCItemData@@@1@@Z DD 0ffffffffH
	DD	FLAT:__unwindfunclet$??$_Buynode@AAU?$pair@$$CBKPAVCItemData@@@std@@@?$_Tree@V?$_Tmap_traits@KPAVCItemData@@U?$less@K@std@@V?$allocator@U?$pair@$$CBKPAVCItemData@@@std@@@3@$0A@@std@@@std@@IAEPAU?$_Tree_node@U?$pair@$$CBKPAVCItemData@@@std@@PAX@1@AAU?$pair@$$CBKPAVCItemData@@@1@@Z$0
xdata$x	ENDS
;	COMDAT xdata$x
xdata$x	SEGMENT
__ehfuncinfo$??$_Buynode@V?$allocator@U?$_Tree_node@U?$pair@$$CBKPAVCItemData@@@std@@PAX@std@@@std@@AAU?$pair@$$CBKPAVCItemData@@@2@@?$_Tree_node@U?$pair@$$CBKPAVCItemData@@@std@@PAX@std@@SAPAU01@AAV?$allocator@U?$_Tree_node@U?$pair@$$CBKPAVCItemData@@@std@@PAX@std@@@1@PAU01@AAU?$pair@$$CBKPAVCItemData@@@1@@Z DQ 00000000119930522r ; 2.33398e-314
	DD	FLAT:__unwindtable$??$_Buynode@V?$allocator@U?$_Tree_node@U?$pair@$$CBKPAVCItemData@@@std@@PAX@std@@@std@@AAU?$pair@$$CBKPAVCItemData@@@2@@?$_Tree_node@U?$pair@$$CBKPAVCItemData@@@std@@PAX@std@@SAPAU01@AAV?$allocator@U?$_Tree_node@U?$pair@$$CBKPAVCItemData@@@std@@PAX@std@@@1@PAU01@AAU?$pair@$$CBKPAVCItemData@@@1@@Z
	DQ	00000000000000000r		; 0
	DQ	00000000000000000r		; 0
	DQ	00000000100000000r		; 2.122e-314
__unwindtable$??$_Buynode@V?$allocator@U?$_Tree_node@U?$pair@$$CBKPAVCItemData@@@std@@PAX@std@@@std@@AAU?$pair@$$CBKPAVCItemData@@@2@@?$_Tree_node@U?$pair@$$CBKPAVCItemData@@@std@@PAX@std@@SAPAU01@AAV?$allocator@U?$_Tree_node@U?$pair@$$CBKPAVCItemData@@@std@@PAX@std@@@1@PAU01@AAU?$pair@$$CBKPAVCItemData@@@1@@Z DD 0ffffffffH
	DD	FLAT:__unwindfunclet$??$_Buynode@V?$allocator@U?$_Tree_node@U?$pair@$$CBKPAVCItemData@@@std@@PAX@std@@@std@@AAU?$pair@$$CBKPAVCItemData@@@2@@?$_Tree_node@U?$pair@$$CBKPAVCItemData@@@std@@PAX@std@@SAPAU01@AAV?$allocator@U?$_Tree_node@U?$pair@$$CBKPAVCItemData@@@std@@PAX@std@@@1@PAU01@AAU?$pair@$$CBKPAVCItemData@@@1@@Z$0
; Function compile flags: /Ogtp
; File C:\Anka2Project\Anka2Project\Source\Binary\source\UserInterface\PythonItemModule.cpp
; File C:\Anka2Project\Anka2Project\Source\Binary\source\eterBase\Singleton.h
; File C:\Anka2Project\Anka2Project\Source\Binary\source\UserInterface\PythonItemModule.cpp
;	COMDAT ?itemGetItemName@@YAPAU_object@@PAU1@0@Z
_TEXT	SEGMENT
_poSelf$ = 8						; size = 4
_poArgs$ = 12						; size = 4
?itemGetItemName@@YAPAU_object@@PAU1@0@Z PROC		; itemGetItemName, COMDAT
; File C:\Anka2Project\Anka2Project\Source\Binary\source\eterBase\Singleton.h

; 26   : 		assert(ms_singleton);

  00000	8b 0d 00 00 00
	00		 mov	 ecx, DWORD PTR ?ms_singleton@?$CSingleton@VCItemManager@@@@0PAVCItemManager@@A ; CSingleton<CItemManager>::ms_singleton
  00006	85 c9		 test	 ecx, ecx
  00008	75 1a		 jne	 SHORT $LN6@itemGetIte
  0000a	6a 1a		 push	 26			; 0000001aH
  0000c	68 00 00 00 00	 push	 OFFSET ??_C@_1IO@CAJLEEOI@?$AAC?$AA?3?$AA?2?$AAA?$AAn?$AAk?$AAa?$AA2?$AAP?$AAr?$AAo?$AAj?$AAe?$AAc?$AAt@
  00011	68 00 00 00 00	 push	 OFFSET ??_C@_1BK@FMEHPMFE@?$AAm?$AAs?$AA_?$AAs?$AAi?$AAn?$AAg?$AAl?$AAe?$AAt?$AAo?$AAn@
  00016	e8 00 00 00 00	 call	 __wassert
  0001b	8b 0d 00 00 00
	00		 mov	 ecx, DWORD PTR ?ms_singleton@?$CSingleton@VCItemManager@@@@0PAVCItemManager@@A ; CSingleton<CItemManager>::ms_singleton
  00021	83 c4 0c	 add	 esp, 12			; 0000000cH
$LN6@itemGetIte:
; File C:\Anka2Project\Anka2Project\Source\Binary\source\UserInterface\PythonItemModule.cpp

; 57   : 	CItemData * pItemData = CItemManager::Instance().GetSelectedItemDataPointer();

  00024	e8 00 00 00 00	 call	 ?GetSelectedItemDataPointer@CItemManager@@QAEPAVCItemData@@XZ ; CItemManager::GetSelectedItemDataPointer

; 58   : 	if (!pItemData)

  00029	85 c0		 test	 eax, eax
  0002b	75 0e		 jne	 SHORT $LN2@itemGetIte

; 59   : 		return Py_BuildException("no selected item data");

  0002d	68 00 00 00 00	 push	 OFFSET ??_C@_0BG@LNOAJHHG@no?5selected?5item?5data@
  00032	e8 00 00 00 00	 call	 ?Py_BuildException@@YAPAU_object@@PBDZZ ; Py_BuildException
  00037	83 c4 04	 add	 esp, 4

; 62   : }

  0003a	c3		 ret	 0
$LN2@itemGetIte:

; 60   : 
; 61   : 	return Py_BuildValue("s", pItemData->GetName());

  0003b	8b c8		 mov	 ecx, eax
  0003d	e8 00 00 00 00	 call	 ?GetName@CItemData@@QBEPBDXZ ; CItemData::GetName
  00042	50		 push	 eax
  00043	68 00 00 00 00	 push	 OFFSET ??_C@_01LKDEMHDF@s@
  00048	ff 15 00 00 00
	00		 call	 DWORD PTR __imp__Py_BuildValue
  0004e	83 c4 08	 add	 esp, 8

; 62   : }

  00051	c3		 ret	 0
?itemGetItemName@@YAPAU_object@@PAU1@0@Z ENDP		; itemGetItemName
_TEXT	ENDS
; Function compile flags: /Ogtp
; File C:\Anka2Project\Anka2Project\Source\Binary\source\UserInterface\PythonItemModule.cpp
; File C:\Anka2Project\Anka2Project\Source\Binary\source\eterBase\Singleton.h
; File C:\Anka2Project\Anka2Project\Source\Binary\source\UserInterface\PythonItemModule.cpp
;	COMDAT ?itemGetItemDescription@@YAPAU_object@@PAU1@0@Z
_TEXT	SEGMENT
_poSelf$ = 8						; size = 4
_poArgs$ = 12						; size = 4
?itemGetItemDescription@@YAPAU_object@@PAU1@0@Z PROC	; itemGetItemDescription, COMDAT
; File C:\Anka2Project\Anka2Project\Source\Binary\source\eterBase\Singleton.h

; 26   : 		assert(ms_singleton);

  00000	8b 0d 00 00 00
	00		 mov	 ecx, DWORD PTR ?ms_singleton@?$CSingleton@VCItemManager@@@@0PAVCItemManager@@A ; CSingleton<CItemManager>::ms_singleton
  00006	85 c9		 test	 ecx, ecx
  00008	75 1a		 jne	 SHORT $LN6@itemGetIte
  0000a	6a 1a		 push	 26			; 0000001aH
  0000c	68 00 00 00 00	 push	 OFFSET ??_C@_1IO@CAJLEEOI@?$AAC?$AA?3?$AA?2?$AAA?$AAn?$AAk?$AAa?$AA2?$AAP?$AAr?$AAo?$AAj?$AAe?$AAc?$AAt@
  00011	68 00 00 00 00	 push	 OFFSET ??_C@_1BK@FMEHPMFE@?$AAm?$AAs?$AA_?$AAs?$AAi?$AAn?$AAg?$AAl?$AAe?$AAt?$AAo?$AAn@
  00016	e8 00 00 00 00	 call	 __wassert
  0001b	8b 0d 00 00 00
	00		 mov	 ecx, DWORD PTR ?ms_singleton@?$CSingleton@VCItemManager@@@@0PAVCItemManager@@A ; CSingleton<CItemManager>::ms_singleton
  00021	83 c4 0c	 add	 esp, 12			; 0000000cH
$LN6@itemGetIte:
; File C:\Anka2Project\Anka2Project\Source\Binary\source\UserInterface\PythonItemModule.cpp

; 66   : 	CItemData * pItemData = CItemManager::Instance().GetSelectedItemDataPointer();

  00024	e8 00 00 00 00	 call	 ?GetSelectedItemDataPointer@CItemManager@@QAEPAVCItemData@@XZ ; CItemManager::GetSelectedItemDataPointer

; 67   : 	if (!pItemData)

  00029	85 c0		 test	 eax, eax
  0002b	75 0e		 jne	 SHORT $LN2@itemGetIte

; 68   : 		return Py_BuildException("no selected item data");

  0002d	68 00 00 00 00	 push	 OFFSET ??_C@_0BG@LNOAJHHG@no?5selected?5item?5data@
  00032	e8 00 00 00 00	 call	 ?Py_BuildException@@YAPAU_object@@PBDZZ ; Py_BuildException
  00037	83 c4 04	 add	 esp, 4

; 71   : }

  0003a	c3		 ret	 0
$LN2@itemGetIte:

; 69   : 
; 70   : 	return Py_BuildValue("s", pItemData->GetDescription());

  0003b	8b c8		 mov	 ecx, eax
  0003d	e8 00 00 00 00	 call	 ?GetDescription@CItemData@@QBEPBDXZ ; CItemData::GetDescription
  00042	50		 push	 eax
  00043	68 00 00 00 00	 push	 OFFSET ??_C@_01LKDEMHDF@s@
  00048	ff 15 00 00 00
	00		 call	 DWORD PTR __imp__Py_BuildValue
  0004e	83 c4 08	 add	 esp, 8

; 71   : }

  00051	c3		 ret	 0
?itemGetItemDescription@@YAPAU_object@@PAU1@0@Z ENDP	; itemGetItemDescription
_TEXT	ENDS
; Function compile flags: /Ogtp
; File C:\Anka2Project\Anka2Project\Source\Binary\source\UserInterface\PythonItemModule.cpp
; File C:\Anka2Project\Anka2Project\Source\Binary\source\eterBase\Singleton.h
; File C:\Anka2Project\Anka2Project\Source\Binary\source\UserInterface\PythonItemModule.cpp
;	COMDAT ?itemGetItemSummary@@YAPAU_object@@PAU1@0@Z
_TEXT	SEGMENT
_poSelf$ = 8						; size = 4
_poArgs$ = 12						; size = 4
?itemGetItemSummary@@YAPAU_object@@PAU1@0@Z PROC	; itemGetItemSummary, COMDAT
; File C:\Anka2Project\Anka2Project\Source\Binary\source\eterBase\Singleton.h

; 26   : 		assert(ms_singleton);

  00000	8b 0d 00 00 00
	00		 mov	 ecx, DWORD PTR ?ms_singleton@?$CSingleton@VCItemManager@@@@0PAVCItemManager@@A ; CSingleton<CItemManager>::ms_singleton
  00006	85 c9		 test	 ecx, ecx
  00008	75 1a		 jne	 SHORT $LN6@itemGetIte
  0000a	6a 1a		 push	 26			; 0000001aH
  0000c	68 00 00 00 00	 push	 OFFSET ??_C@_1IO@CAJLEEOI@?$AAC?$AA?3?$AA?2?$AAA?$AAn?$AAk?$AAa?$AA2?$AAP?$AAr?$AAo?$AAj?$AAe?$AAc?$AAt@
  00011	68 00 00 00 00	 push	 OFFSET ??_C@_1BK@FMEHPMFE@?$AAm?$AAs?$AA_?$AAs?$AAi?$AAn?$AAg?$AAl?$AAe?$AAt?$AAo?$AAn@
  00016	e8 00 00 00 00	 call	 __wassert
  0001b	8b 0d 00 00 00
	00		 mov	 ecx, DWORD PTR ?ms_singleton@?$CSingleton@VCItemManager@@@@0PAVCItemManager@@A ; CSingleton<CItemManager>::ms_singleton
  00021	83 c4 0c	 add	 esp, 12			; 0000000cH
$LN6@itemGetIte:
; File C:\Anka2Project\Anka2Project\Source\Binary\source\UserInterface\PythonItemModule.cpp

; 75   : 	CItemData * pItemData = CItemManager::Instance().GetSelectedItemDataPointer();

  00024	e8 00 00 00 00	 call	 ?GetSelectedItemDataPointer@CItemManager@@QAEPAVCItemData@@XZ ; CItemManager::GetSelectedItemDataPointer

; 76   : 	if (!pItemData)

  00029	85 c0		 test	 eax, eax
  0002b	75 0e		 jne	 SHORT $LN2@itemGetIte

; 77   : 		return Py_BuildException("no selected item data");

  0002d	68 00 00 00 00	 push	 OFFSET ??_C@_0BG@LNOAJHHG@no?5selected?5item?5data@
  00032	e8 00 00 00 00	 call	 ?Py_BuildException@@YAPAU_object@@PBDZZ ; Py_BuildException
  00037	83 c4 04	 add	 esp, 4

; 80   : }

  0003a	c3		 ret	 0
$LN2@itemGetIte:

; 78   : 
; 79   : 	return Py_BuildValue("s", pItemData->GetSummary());

  0003b	8b c8		 mov	 ecx, eax
  0003d	e8 00 00 00 00	 call	 ?GetSummary@CItemData@@QBEPBDXZ ; CItemData::GetSummary
  00042	50		 push	 eax
  00043	68 00 00 00 00	 push	 OFFSET ??_C@_01LKDEMHDF@s@
  00048	ff 15 00 00 00
	00		 call	 DWORD PTR __imp__Py_BuildValue
  0004e	83 c4 08	 add	 esp, 8

; 80   : }

  00051	c3		 ret	 0
?itemGetItemSummary@@YAPAU_object@@PAU1@0@Z ENDP	; itemGetItemSummary
_TEXT	ENDS
; Function compile flags: /Ogtp
; File C:\Anka2Project\Anka2Project\Source\Binary\source\UserInterface\PythonItemModule.cpp
; File C:\Anka2Project\Anka2Project\Source\Binary\source\eterBase\Singleton.h
; File C:\Anka2Project\Anka2Project\Source\Binary\source\UserInterface\PythonItemModule.cpp
;	COMDAT ?itemGetIconImage@@YAPAU_object@@PAU1@0@Z
_TEXT	SEGMENT
_poSelf$ = 8						; size = 4
_poArgs$ = 12						; size = 4
?itemGetIconImage@@YAPAU_object@@PAU1@0@Z PROC		; itemGetIconImage, COMDAT
; File C:\Anka2Project\Anka2Project\Source\Binary\source\eterBase\Singleton.h

; 26   : 		assert(ms_singleton);

  00000	8b 0d 00 00 00
	00		 mov	 ecx, DWORD PTR ?ms_singleton@?$CSingleton@VCItemManager@@@@0PAVCItemManager@@A ; CSingleton<CItemManager>::ms_singleton
  00006	85 c9		 test	 ecx, ecx
  00008	75 1a		 jne	 SHORT $LN6@itemGetIco
  0000a	6a 1a		 push	 26			; 0000001aH
  0000c	68 00 00 00 00	 push	 OFFSET ??_C@_1IO@CAJLEEOI@?$AAC?$AA?3?$AA?2?$AAA?$AAn?$AAk?$AAa?$AA2?$AAP?$AAr?$AAo?$AAj?$AAe?$AAc?$AAt@
  00011	68 00 00 00 00	 push	 OFFSET ??_C@_1BK@FMEHPMFE@?$AAm?$AAs?$AA_?$AAs?$AAi?$AAn?$AAg?$AAl?$AAe?$AAt?$AAo?$AAn@
  00016	e8 00 00 00 00	 call	 __wassert
  0001b	8b 0d 00 00 00
	00		 mov	 ecx, DWORD PTR ?ms_singleton@?$CSingleton@VCItemManager@@@@0PAVCItemManager@@A ; CSingleton<CItemManager>::ms_singleton
  00021	83 c4 0c	 add	 esp, 12			; 0000000cH
$LN6@itemGetIco:
; File C:\Anka2Project\Anka2Project\Source\Binary\source\UserInterface\PythonItemModule.cpp

; 84   : 	CItemData * pItemData = CItemManager::Instance().GetSelectedItemDataPointer();

  00024	e8 00 00 00 00	 call	 ?GetSelectedItemDataPointer@CItemManager@@QAEPAVCItemData@@XZ ; CItemManager::GetSelectedItemDataPointer

; 85   : 	if (!pItemData)

  00029	85 c0		 test	 eax, eax
  0002b	75 0e		 jne	 SHORT $LN2@itemGetIco

; 86   : 		return Py_BuildException("no selected item data");

  0002d	68 00 00 00 00	 push	 OFFSET ??_C@_0BG@LNOAJHHG@no?5selected?5item?5data@
  00032	e8 00 00 00 00	 call	 ?Py_BuildException@@YAPAU_object@@PBDZZ ; Py_BuildException
  00037	83 c4 04	 add	 esp, 4

; 96   : }

  0003a	c3		 ret	 0
$LN2@itemGetIco:

; 87   : 
; 88   : //	if (CItemData::ITEM_TYPE_SKILLBOOK == pItemData->GetType())
; 89   : //	{
; 90   : //		char szItemName[64+1];
; 91   : //		_snprintf(szItemName, "d:/ymir work/ui/items/etc/book_%02d.sub", );
; 92   : //		CGraphicImage * pImage = (CGraphicImage *)CResourceManager::Instance().GetResourcePointer(szItemName);
; 93   : //	}
; 94   : 
; 95   : 	return Py_BuildValue("i", pItemData->GetIconImage());

  0003b	8b c8		 mov	 ecx, eax
  0003d	e8 00 00 00 00	 call	 ?GetIconImage@CItemData@@QAEPAVCGraphicSubImage@@XZ ; CItemData::GetIconImage
  00042	50		 push	 eax
  00043	68 00 00 00 00	 push	 OFFSET ??_C@_01KBJDNOO@i@
  00048	ff 15 00 00 00
	00		 call	 DWORD PTR __imp__Py_BuildValue
  0004e	83 c4 08	 add	 esp, 8

; 96   : }

  00051	c3		 ret	 0
?itemGetIconImage@@YAPAU_object@@PAU1@0@Z ENDP		; itemGetIconImage
_TEXT	ENDS
; Function compile flags: /Ogtp
; File C:\Anka2Project\Anka2Project\Source\Binary\source\UserInterface\PythonItemModule.cpp
; File C:\Anka2Project\Anka2Project\Source\Binary\source\eterBase\Singleton.h
; File C:\Anka2Project\Anka2Project\Source\Binary\source\UserInterface\PythonItemModule.cpp
; File C:\Program Files\Microsoft Visual Studio\2022\Community\VC\Tools\MSVC\14.44.35207\include\xstring
; File C:\Anka2Project\Anka2Project\Source\Binary\source\UserInterface\PythonItemModule.cpp
;	COMDAT ?itemGetIconImageFileName@@YAPAU_object@@PAU1@0@Z
_TEXT	SEGMENT
_poSelf$ = 8						; size = 4
_poArgs$ = 12						; size = 4
?itemGetIconImageFileName@@YAPAU_object@@PAU1@0@Z PROC	; itemGetIconImageFileName, COMDAT
; File C:\Anka2Project\Anka2Project\Source\Binary\source\eterBase\Singleton.h

; 26   : 		assert(ms_singleton);

  00000	8b 0d 00 00 00
	00		 mov	 ecx, DWORD PTR ?ms_singleton@?$CSingleton@VCItemManager@@@@0PAVCItemManager@@A ; CSingleton<CItemManager>::ms_singleton
  00006	85 c9		 test	 ecx, ecx
  00008	75 1a		 jne	 SHORT $LN7@itemGetIco
  0000a	6a 1a		 push	 26			; 0000001aH
  0000c	68 00 00 00 00	 push	 OFFSET ??_C@_1IO@CAJLEEOI@?$AAC?$AA?3?$AA?2?$AAA?$AAn?$AAk?$AAa?$AA2?$AAP?$AAr?$AAo?$AAj?$AAe?$AAc?$AAt@
  00011	68 00 00 00 00	 push	 OFFSET ??_C@_1BK@FMEHPMFE@?$AAm?$AAs?$AA_?$AAs?$AAi?$AAn?$AAg?$AAl?$AAe?$AAt?$AAo?$AAn@
  00016	e8 00 00 00 00	 call	 __wassert
  0001b	8b 0d 00 00 00
	00		 mov	 ecx, DWORD PTR ?ms_singleton@?$CSingleton@VCItemManager@@@@0PAVCItemManager@@A ; CSingleton<CItemManager>::ms_singleton
  00021	83 c4 0c	 add	 esp, 12			; 0000000cH
$LN7@itemGetIco:
; File C:\Anka2Project\Anka2Project\Source\Binary\source\UserInterface\PythonItemModule.cpp

; 100  : 	CItemData * pItemData = CItemManager::Instance().GetSelectedItemDataPointer();

  00024	e8 00 00 00 00	 call	 ?GetSelectedItemDataPointer@CItemManager@@QAEPAVCItemData@@XZ ; CItemManager::GetSelectedItemDataPointer

; 101  : 	if (!pItemData)

  00029	85 c0		 test	 eax, eax
  0002b	75 0e		 jne	 SHORT $LN2@itemGetIco

; 102  : 		return Py_BuildException("no selected item data");

  0002d	68 00 00 00 00	 push	 OFFSET ??_C@_0BG@LNOAJHHG@no?5selected?5item?5data@
  00032	e8 00 00 00 00	 call	 ?Py_BuildException@@YAPAU_object@@PBDZZ ; Py_BuildException
  00037	83 c4 04	 add	 esp, 4

; 109  : }

  0003a	c3		 ret	 0
$LN2@itemGetIco:

; 103  : 
; 104  : 	CGraphicSubImage * pImage = pItemData->GetIconImage();

  0003b	8b c8		 mov	 ecx, eax
  0003d	e8 00 00 00 00	 call	 ?GetIconImage@CItemData@@QAEPAVCGraphicSubImage@@XZ ; CItemData::GetIconImage

; 105  : 	if (!pImage)

  00042	85 c0		 test	 eax, eax
  00044	75 14		 jne	 SHORT $LN3@itemGetIco

; 106  : 		return Py_BuildValue("s", "Noname");

  00046	68 00 00 00 00	 push	 OFFSET ??_C@_06HCBIANPB@Noname@

; 109  : }

  0004b	68 00 00 00 00	 push	 OFFSET ??_C@_01LKDEMHDF@s@
  00050	ff 15 00 00 00
	00		 call	 DWORD PTR __imp__Py_BuildValue
  00056	83 c4 08	 add	 esp, 8
  00059	c3		 ret	 0
$LN3@itemGetIco:
; File C:\Program Files\Microsoft Visual Studio\2022\Community\VC\Tools\MSVC\14.44.35207\include\xstring

; 2356 :         return _Mypair._Myval2._Myptr();

  0005a	83 c0 0c	 add	 eax, 12			; 0000000cH

; 453  :         return _Myres > _Small_string_capacity;

  0005d	83 78 14 0f	 cmp	 DWORD PTR [eax+20], 15	; 0000000fH

; 445  :         if (_Large_mode_engaged()) {

  00061	76 02		 jbe	 SHORT $LN14@itemGetIco

; 446  :             _Result = _Unfancy(_Bx._Ptr);

  00063	8b 00		 mov	 eax, DWORD PTR [eax]
$LN14@itemGetIco:
; File C:\Anka2Project\Anka2Project\Source\Binary\source\UserInterface\PythonItemModule.cpp

; 108  : 	return Py_BuildValue("s", pImage->GetFileName());

  00065	50		 push	 eax

; 109  : }

  00066	68 00 00 00 00	 push	 OFFSET ??_C@_01LKDEMHDF@s@
  0006b	ff 15 00 00 00
	00		 call	 DWORD PTR __imp__Py_BuildValue
  00071	83 c4 08	 add	 esp, 8
  00074	c3		 ret	 0
?itemGetIconImageFileName@@YAPAU_object@@PAU1@0@Z ENDP	; itemGetIconImageFileName
_TEXT	ENDS
; Function compile flags: /Ogtp
; File C:\Anka2Project\Anka2Project\Source\Binary\source\UserInterface\PythonItemModule.cpp
; File C:\Anka2Project\Anka2Project\Source\Binary\source\eterBase\Singleton.h
; File C:\Anka2Project\Anka2Project\Source\Binary\source\UserInterface\PythonItemModule.cpp
;	COMDAT ?itemGetItemSize@@YAPAU_object@@PAU1@0@Z
_TEXT	SEGMENT
_poSelf$ = 8						; size = 4
_poArgs$ = 12						; size = 4
?itemGetItemSize@@YAPAU_object@@PAU1@0@Z PROC		; itemGetItemSize, COMDAT
; File C:\Anka2Project\Anka2Project\Source\Binary\source\eterBase\Singleton.h

; 26   : 		assert(ms_singleton);

  00000	8b 0d 00 00 00
	00		 mov	 ecx, DWORD PTR ?ms_singleton@?$CSingleton@VCItemManager@@@@0PAVCItemManager@@A ; CSingleton<CItemManager>::ms_singleton
  00006	85 c9		 test	 ecx, ecx
  00008	75 1a		 jne	 SHORT $LN6@itemGetIte
  0000a	6a 1a		 push	 26			; 0000001aH
  0000c	68 00 00 00 00	 push	 OFFSET ??_C@_1IO@CAJLEEOI@?$AAC?$AA?3?$AA?2?$AAA?$AAn?$AAk?$AAa?$AA2?$AAP?$AAr?$AAo?$AAj?$AAe?$AAc?$AAt@
  00011	68 00 00 00 00	 push	 OFFSET ??_C@_1BK@FMEHPMFE@?$AAm?$AAs?$AA_?$AAs?$AAi?$AAn?$AAg?$AAl?$AAe?$AAt?$AAo?$AAn@
  00016	e8 00 00 00 00	 call	 __wassert
  0001b	8b 0d 00 00 00
	00		 mov	 ecx, DWORD PTR ?ms_singleton@?$CSingleton@VCItemManager@@@@0PAVCItemManager@@A ; CSingleton<CItemManager>::ms_singleton
  00021	83 c4 0c	 add	 esp, 12			; 0000000cH
$LN6@itemGetIte:
; File C:\Anka2Project\Anka2Project\Source\Binary\source\UserInterface\PythonItemModule.cpp

; 113  : 	CItemData * pItemData = CItemManager::Instance().GetSelectedItemDataPointer();

  00024	e8 00 00 00 00	 call	 ?GetSelectedItemDataPointer@CItemManager@@QAEPAVCItemData@@XZ ; CItemManager::GetSelectedItemDataPointer

; 114  : 	if (!pItemData)

  00029	85 c0		 test	 eax, eax
  0002b	75 0e		 jne	 SHORT $LN2@itemGetIte

; 115  : 		return Py_BuildException("no selected item data");

  0002d	68 00 00 00 00	 push	 OFFSET ??_C@_0BG@LNOAJHHG@no?5selected?5item?5data@
  00032	e8 00 00 00 00	 call	 ?Py_BuildException@@YAPAU_object@@PBDZZ ; Py_BuildException
  00037	83 c4 04	 add	 esp, 4

; 118  : }

  0003a	c3		 ret	 0
$LN2@itemGetIte:

; 116  : 
; 117  : 	return Py_BuildValue("(ii)", 1, pItemData->GetSize());

  0003b	8b c8		 mov	 ecx, eax
  0003d	e8 00 00 00 00	 call	 ?GetSize@CItemData@@QBEEXZ ; CItemData::GetSize
  00042	0f b6 c0	 movzx	 eax, al
  00045	50		 push	 eax
  00046	6a 01		 push	 1
  00048	68 00 00 00 00	 push	 OFFSET ??_C@_04INACLLOK@?$CIii?$CJ@
  0004d	ff 15 00 00 00
	00		 call	 DWORD PTR __imp__Py_BuildValue
  00053	83 c4 0c	 add	 esp, 12			; 0000000cH

; 118  : }

  00056	c3		 ret	 0
?itemGetItemSize@@YAPAU_object@@PAU1@0@Z ENDP		; itemGetItemSize
_TEXT	ENDS
; Function compile flags: /Ogtp
; File C:\Anka2Project\Anka2Project\Source\Binary\source\UserInterface\PythonItemModule.cpp
; File C:\Anka2Project\Anka2Project\Source\Binary\source\eterBase\Singleton.h
; File C:\Anka2Project\Anka2Project\Source\Binary\source\UserInterface\PythonItemModule.cpp
;	COMDAT ?itemGetItemType@@YAPAU_object@@PAU1@0@Z
_TEXT	SEGMENT
_poSelf$ = 8						; size = 4
_poArgs$ = 12						; size = 4
?itemGetItemType@@YAPAU_object@@PAU1@0@Z PROC		; itemGetItemType, COMDAT
; File C:\Anka2Project\Anka2Project\Source\Binary\source\eterBase\Singleton.h

; 26   : 		assert(ms_singleton);

  00000	8b 0d 00 00 00
	00		 mov	 ecx, DWORD PTR ?ms_singleton@?$CSingleton@VCItemManager@@@@0PAVCItemManager@@A ; CSingleton<CItemManager>::ms_singleton
  00006	85 c9		 test	 ecx, ecx
  00008	75 1a		 jne	 SHORT $LN6@itemGetIte
  0000a	6a 1a		 push	 26			; 0000001aH
  0000c	68 00 00 00 00	 push	 OFFSET ??_C@_1IO@CAJLEEOI@?$AAC?$AA?3?$AA?2?$AAA?$AAn?$AAk?$AAa?$AA2?$AAP?$AAr?$AAo?$AAj?$AAe?$AAc?$AAt@
  00011	68 00 00 00 00	 push	 OFFSET ??_C@_1BK@FMEHPMFE@?$AAm?$AAs?$AA_?$AAs?$AAi?$AAn?$AAg?$AAl?$AAe?$AAt?$AAo?$AAn@
  00016	e8 00 00 00 00	 call	 __wassert
  0001b	8b 0d 00 00 00
	00		 mov	 ecx, DWORD PTR ?ms_singleton@?$CSingleton@VCItemManager@@@@0PAVCItemManager@@A ; CSingleton<CItemManager>::ms_singleton
  00021	83 c4 0c	 add	 esp, 12			; 0000000cH
$LN6@itemGetIte:
; File C:\Anka2Project\Anka2Project\Source\Binary\source\UserInterface\PythonItemModule.cpp

; 122  : 	CItemData * pItemData = CItemManager::Instance().GetSelectedItemDataPointer();

  00024	e8 00 00 00 00	 call	 ?GetSelectedItemDataPointer@CItemManager@@QAEPAVCItemData@@XZ ; CItemManager::GetSelectedItemDataPointer

; 123  : 	if (!pItemData)

  00029	85 c0		 test	 eax, eax
  0002b	75 0e		 jne	 SHORT $LN2@itemGetIte

; 124  : 		return Py_BuildException("no selected item data");

  0002d	68 00 00 00 00	 push	 OFFSET ??_C@_0BG@LNOAJHHG@no?5selected?5item?5data@
  00032	e8 00 00 00 00	 call	 ?Py_BuildException@@YAPAU_object@@PBDZZ ; Py_BuildException
  00037	83 c4 04	 add	 esp, 4

; 127  : }

  0003a	c3		 ret	 0
$LN2@itemGetIte:

; 125  : 
; 126  : 	return Py_BuildValue("i", pItemData->GetType());

  0003b	8b c8		 mov	 ecx, eax
  0003d	e8 00 00 00 00	 call	 ?GetType@CItemData@@QBEEXZ ; CItemData::GetType
  00042	0f b6 c0	 movzx	 eax, al
  00045	50		 push	 eax
  00046	68 00 00 00 00	 push	 OFFSET ??_C@_01KBJDNOO@i@
  0004b	ff 15 00 00 00
	00		 call	 DWORD PTR __imp__Py_BuildValue
  00051	83 c4 08	 add	 esp, 8

; 127  : }

  00054	c3		 ret	 0
?itemGetItemType@@YAPAU_object@@PAU1@0@Z ENDP		; itemGetItemType
_TEXT	ENDS
; Function compile flags: /Ogtp
; File C:\Anka2Project\Anka2Project\Source\Binary\source\UserInterface\PythonItemModule.cpp
; File C:\Anka2Project\Anka2Project\Source\Binary\source\eterBase\Singleton.h
; File C:\Anka2Project\Anka2Project\Source\Binary\source\UserInterface\PythonItemModule.cpp
;	COMDAT ?itemGetItemSubType@@YAPAU_object@@PAU1@0@Z
_TEXT	SEGMENT
_poSelf$ = 8						; size = 4
_poArgs$ = 12						; size = 4
?itemGetItemSubType@@YAPAU_object@@PAU1@0@Z PROC	; itemGetItemSubType, COMDAT
; File C:\Anka2Project\Anka2Project\Source\Binary\source\eterBase\Singleton.h

; 26   : 		assert(ms_singleton);

  00000	8b 0d 00 00 00
	00		 mov	 ecx, DWORD PTR ?ms_singleton@?$CSingleton@VCItemManager@@@@0PAVCItemManager@@A ; CSingleton<CItemManager>::ms_singleton
  00006	85 c9		 test	 ecx, ecx
  00008	75 1a		 jne	 SHORT $LN6@itemGetIte
  0000a	6a 1a		 push	 26			; 0000001aH
  0000c	68 00 00 00 00	 push	 OFFSET ??_C@_1IO@CAJLEEOI@?$AAC?$AA?3?$AA?2?$AAA?$AAn?$AAk?$AAa?$AA2?$AAP?$AAr?$AAo?$AAj?$AAe?$AAc?$AAt@
  00011	68 00 00 00 00	 push	 OFFSET ??_C@_1BK@FMEHPMFE@?$AAm?$AAs?$AA_?$AAs?$AAi?$AAn?$AAg?$AAl?$AAe?$AAt?$AAo?$AAn@
  00016	e8 00 00 00 00	 call	 __wassert
  0001b	8b 0d 00 00 00
	00		 mov	 ecx, DWORD PTR ?ms_singleton@?$CSingleton@VCItemManager@@@@0PAVCItemManager@@A ; CSingleton<CItemManager>::ms_singleton
  00021	83 c4 0c	 add	 esp, 12			; 0000000cH
$LN6@itemGetIte:
; File C:\Anka2Project\Anka2Project\Source\Binary\source\UserInterface\PythonItemModule.cpp

; 131  : 	CItemData * pItemData = CItemManager::Instance().GetSelectedItemDataPointer();

  00024	e8 00 00 00 00	 call	 ?GetSelectedItemDataPointer@CItemManager@@QAEPAVCItemData@@XZ ; CItemManager::GetSelectedItemDataPointer

; 132  : 	if (!pItemData)

  00029	85 c0		 test	 eax, eax
  0002b	75 0e		 jne	 SHORT $LN2@itemGetIte

; 133  : 		return Py_BuildException("no selected item data");

  0002d	68 00 00 00 00	 push	 OFFSET ??_C@_0BG@LNOAJHHG@no?5selected?5item?5data@
  00032	e8 00 00 00 00	 call	 ?Py_BuildException@@YAPAU_object@@PBDZZ ; Py_BuildException
  00037	83 c4 04	 add	 esp, 4

; 136  : }

  0003a	c3		 ret	 0
$LN2@itemGetIte:

; 134  : 
; 135  : 	return Py_BuildValue("i", pItemData->GetSubType());

  0003b	8b c8		 mov	 ecx, eax
  0003d	e8 00 00 00 00	 call	 ?GetSubType@CItemData@@QBEEXZ ; CItemData::GetSubType
  00042	0f b6 c0	 movzx	 eax, al
  00045	50		 push	 eax
  00046	68 00 00 00 00	 push	 OFFSET ??_C@_01KBJDNOO@i@
  0004b	ff 15 00 00 00
	00		 call	 DWORD PTR __imp__Py_BuildValue
  00051	83 c4 08	 add	 esp, 8

; 136  : }

  00054	c3		 ret	 0
?itemGetItemSubType@@YAPAU_object@@PAU1@0@Z ENDP	; itemGetItemSubType
_TEXT	ENDS
; Function compile flags: /Ogtp
; File C:\Anka2Project\Anka2Project\Source\Binary\source\UserInterface\PythonItemModule.cpp
; File C:\Anka2Project\Anka2Project\Source\Binary\source\eterBase\Singleton.h
; File C:\Anka2Project\Anka2Project\Source\Binary\source\UserInterface\PythonItemModule.cpp
;	COMDAT ?itemGetIBuyItemPrice@@YAPAU_object@@PAU1@0@Z
_TEXT	SEGMENT
_poSelf$ = 8						; size = 4
_poArgs$ = 12						; size = 4
?itemGetIBuyItemPrice@@YAPAU_object@@PAU1@0@Z PROC	; itemGetIBuyItemPrice, COMDAT
; File C:\Anka2Project\Anka2Project\Source\Binary\source\eterBase\Singleton.h

; 26   : 		assert(ms_singleton);

  00000	8b 0d 00 00 00
	00		 mov	 ecx, DWORD PTR ?ms_singleton@?$CSingleton@VCItemManager@@@@0PAVCItemManager@@A ; CSingleton<CItemManager>::ms_singleton
  00006	85 c9		 test	 ecx, ecx
  00008	75 1a		 jne	 SHORT $LN6@itemGetIBu
  0000a	6a 1a		 push	 26			; 0000001aH
  0000c	68 00 00 00 00	 push	 OFFSET ??_C@_1IO@CAJLEEOI@?$AAC?$AA?3?$AA?2?$AAA?$AAn?$AAk?$AAa?$AA2?$AAP?$AAr?$AAo?$AAj?$AAe?$AAc?$AAt@
  00011	68 00 00 00 00	 push	 OFFSET ??_C@_1BK@FMEHPMFE@?$AAm?$AAs?$AA_?$AAs?$AAi?$AAn?$AAg?$AAl?$AAe?$AAt?$AAo?$AAn@
  00016	e8 00 00 00 00	 call	 __wassert
  0001b	8b 0d 00 00 00
	00		 mov	 ecx, DWORD PTR ?ms_singleton@?$CSingleton@VCItemManager@@@@0PAVCItemManager@@A ; CSingleton<CItemManager>::ms_singleton
  00021	83 c4 0c	 add	 esp, 12			; 0000000cH
$LN6@itemGetIBu:
; File C:\Anka2Project\Anka2Project\Source\Binary\source\UserInterface\PythonItemModule.cpp

; 140  : 	CItemData * pItemData = CItemManager::Instance().GetSelectedItemDataPointer();

  00024	e8 00 00 00 00	 call	 ?GetSelectedItemDataPointer@CItemManager@@QAEPAVCItemData@@XZ ; CItemManager::GetSelectedItemDataPointer

; 141  : 
; 142  : 	if (!pItemData)

  00029	85 c0		 test	 eax, eax
  0002b	75 0e		 jne	 SHORT $LN2@itemGetIBu

; 143  : 		return Py_BuildException("no selected item data");

  0002d	68 00 00 00 00	 push	 OFFSET ??_C@_0BG@LNOAJHHG@no?5selected?5item?5data@
  00032	e8 00 00 00 00	 call	 ?Py_BuildException@@YAPAU_object@@PBDZZ ; Py_BuildException
  00037	83 c4 04	 add	 esp, 4

; 147  : #else
; 148  : 	return Py_BuildValue("i", pItemData->GetIBuyItemPrice());
; 149  : #endif
; 150  : }

  0003a	c3		 ret	 0
$LN2@itemGetIBu:

; 144  : 
; 145  : #ifdef ENABLE_GOLD_LIMIT
; 146  : 	return PyLong_FromLongLong(pItemData->GetIBuyItemPrice());

  0003b	8b c8		 mov	 ecx, eax
  0003d	e8 00 00 00 00	 call	 ?GetIBuyItemPrice@CItemData@@QBEKXZ ; CItemData::GetIBuyItemPrice
  00042	6a 00		 push	 0
  00044	50		 push	 eax
  00045	ff 15 00 00 00
	00		 call	 DWORD PTR __imp__PyLong_FromLongLong
  0004b	83 c4 08	 add	 esp, 8

; 147  : #else
; 148  : 	return Py_BuildValue("i", pItemData->GetIBuyItemPrice());
; 149  : #endif
; 150  : }

  0004e	c3		 ret	 0
?itemGetIBuyItemPrice@@YAPAU_object@@PAU1@0@Z ENDP	; itemGetIBuyItemPrice
_TEXT	ENDS
; Function compile flags: /Ogtp
; File C:\Anka2Project\Anka2Project\Source\Binary\source\UserInterface\PythonItemModule.cpp
; File C:\Anka2Project\Anka2Project\Source\Binary\source\eterBase\Singleton.h
; File C:\Anka2Project\Anka2Project\Source\Binary\source\UserInterface\PythonItemModule.cpp
;	COMDAT ?itemGetISellItemPrice@@YAPAU_object@@PAU1@0@Z
_TEXT	SEGMENT
_poSelf$ = 8						; size = 4
_poArgs$ = 12						; size = 4
?itemGetISellItemPrice@@YAPAU_object@@PAU1@0@Z PROC	; itemGetISellItemPrice, COMDAT
; File C:\Anka2Project\Anka2Project\Source\Binary\source\eterBase\Singleton.h

; 26   : 		assert(ms_singleton);

  00000	8b 0d 00 00 00
	00		 mov	 ecx, DWORD PTR ?ms_singleton@?$CSingleton@VCItemManager@@@@0PAVCItemManager@@A ; CSingleton<CItemManager>::ms_singleton
  00006	85 c9		 test	 ecx, ecx
  00008	75 1a		 jne	 SHORT $LN6@itemGetISe
  0000a	6a 1a		 push	 26			; 0000001aH
  0000c	68 00 00 00 00	 push	 OFFSET ??_C@_1IO@CAJLEEOI@?$AAC?$AA?3?$AA?2?$AAA?$AAn?$AAk?$AAa?$AA2?$AAP?$AAr?$AAo?$AAj?$AAe?$AAc?$AAt@
  00011	68 00 00 00 00	 push	 OFFSET ??_C@_1BK@FMEHPMFE@?$AAm?$AAs?$AA_?$AAs?$AAi?$AAn?$AAg?$AAl?$AAe?$AAt?$AAo?$AAn@
  00016	e8 00 00 00 00	 call	 __wassert
  0001b	8b 0d 00 00 00
	00		 mov	 ecx, DWORD PTR ?ms_singleton@?$CSingleton@VCItemManager@@@@0PAVCItemManager@@A ; CSingleton<CItemManager>::ms_singleton
  00021	83 c4 0c	 add	 esp, 12			; 0000000cH
$LN6@itemGetISe:
; File C:\Anka2Project\Anka2Project\Source\Binary\source\UserInterface\PythonItemModule.cpp

; 154  : 	CItemData * pItemData = CItemManager::Instance().GetSelectedItemDataPointer();

  00024	e8 00 00 00 00	 call	 ?GetSelectedItemDataPointer@CItemManager@@QAEPAVCItemData@@XZ ; CItemManager::GetSelectedItemDataPointer

; 155  : 
; 156  : 	if (!pItemData)

  00029	85 c0		 test	 eax, eax
  0002b	75 0e		 jne	 SHORT $LN2@itemGetISe

; 157  : 		return Py_BuildException("no selected item data");

  0002d	68 00 00 00 00	 push	 OFFSET ??_C@_0BG@LNOAJHHG@no?5selected?5item?5data@
  00032	e8 00 00 00 00	 call	 ?Py_BuildException@@YAPAU_object@@PBDZZ ; Py_BuildException
  00037	83 c4 04	 add	 esp, 4

; 161  : #else
; 162  : 	return Py_BuildValue("i", pItemData->GetISellItemPrice());
; 163  : #endif
; 164  : }

  0003a	c3		 ret	 0
$LN2@itemGetISe:

; 158  : 
; 159  : #ifdef ENABLE_GOLD_LIMIT
; 160  : 	return PyLong_FromLongLong(pItemData->GetISellItemPrice());

  0003b	8b c8		 mov	 ecx, eax
  0003d	e8 00 00 00 00	 call	 ?GetISellItemPrice@CItemData@@QBEKXZ ; CItemData::GetISellItemPrice
  00042	6a 00		 push	 0
  00044	50		 push	 eax
  00045	ff 15 00 00 00
	00		 call	 DWORD PTR __imp__PyLong_FromLongLong
  0004b	83 c4 08	 add	 esp, 8

; 161  : #else
; 162  : 	return Py_BuildValue("i", pItemData->GetISellItemPrice());
; 163  : #endif
; 164  : }

  0004e	c3		 ret	 0
?itemGetISellItemPrice@@YAPAU_object@@PAU1@0@Z ENDP	; itemGetISellItemPrice
_TEXT	ENDS
; Function compile flags: /Ogtp
; File C:\Anka2Project\Anka2Project\Source\Binary\source\UserInterface\PythonItemModule.cpp
; File C:\Anka2Project\Anka2Project\Source\Binary\source\eterBase\Singleton.h
; File C:\Anka2Project\Anka2Project\Source\Binary\source\UserInterface\PythonItemModule.cpp
;	COMDAT ?itemIsAntiFlag@@YAPAU_object@@PAU1@0@Z
_TEXT	SEGMENT
_iFlag$ = -4						; size = 4
_poSelf$ = 8						; size = 4
_poArgs$ = 12						; size = 4
?itemIsAntiFlag@@YAPAU_object@@PAU1@0@Z PROC		; itemIsAntiFlag, COMDAT

; 168  : {

  00000	55		 push	 ebp
  00001	8b ec		 mov	 ebp, esp
  00003	51		 push	 ecx

; 169  : 	int iFlag;
; 170  : 	if (!PyTuple_GetInteger(poArgs, 0, &iFlag))

  00004	8d 45 fc	 lea	 eax, DWORD PTR _iFlag$[ebp]
  00007	50		 push	 eax
  00008	6a 00		 push	 0
  0000a	ff 75 0c	 push	 DWORD PTR _poArgs$[ebp]
  0000d	e8 00 00 00 00	 call	 ?PyTuple_GetInteger@@YA_NPAU_object@@HPAH@Z ; PyTuple_GetInteger
  00012	83 c4 0c	 add	 esp, 12			; 0000000cH
  00015	84 c0		 test	 al, al
  00017	75 09		 jne	 SHORT $LN2@itemIsAnti

; 171  : 		return Py_BadArgument();

  00019	e8 00 00 00 00	 call	 ?Py_BadArgument@@YAPAU_object@@XZ ; Py_BadArgument

; 178  : }

  0001e	8b e5		 mov	 esp, ebp
  00020	5d		 pop	 ebp
  00021	c3		 ret	 0
$LN2@itemIsAnti:
; File C:\Anka2Project\Anka2Project\Source\Binary\source\eterBase\Singleton.h

; 26   : 		assert(ms_singleton);

  00022	8b 0d 00 00 00
	00		 mov	 ecx, DWORD PTR ?ms_singleton@?$CSingleton@VCItemManager@@@@0PAVCItemManager@@A ; CSingleton<CItemManager>::ms_singleton
  00028	85 c9		 test	 ecx, ecx
  0002a	75 1a		 jne	 SHORT $LN7@itemIsAnti
  0002c	6a 1a		 push	 26			; 0000001aH
  0002e	68 00 00 00 00	 push	 OFFSET ??_C@_1IO@CAJLEEOI@?$AAC?$AA?3?$AA?2?$AAA?$AAn?$AAk?$AAa?$AA2?$AAP?$AAr?$AAo?$AAj?$AAe?$AAc?$AAt@
  00033	68 00 00 00 00	 push	 OFFSET ??_C@_1BK@FMEHPMFE@?$AAm?$AAs?$AA_?$AAs?$AAi?$AAn?$AAg?$AAl?$AAe?$AAt?$AAo?$AAn@
  00038	e8 00 00 00 00	 call	 __wassert
  0003d	8b 0d 00 00 00
	00		 mov	 ecx, DWORD PTR ?ms_singleton@?$CSingleton@VCItemManager@@@@0PAVCItemManager@@A ; CSingleton<CItemManager>::ms_singleton
  00043	83 c4 0c	 add	 esp, 12			; 0000000cH
$LN7@itemIsAnti:
; File C:\Anka2Project\Anka2Project\Source\Binary\source\UserInterface\PythonItemModule.cpp

; 173  : 	CItemData * pItemData = CItemManager::Instance().GetSelectedItemDataPointer();

  00046	e8 00 00 00 00	 call	 ?GetSelectedItemDataPointer@CItemManager@@QAEPAVCItemData@@XZ ; CItemManager::GetSelectedItemDataPointer

; 174  : 	if (!pItemData)

  0004b	85 c0		 test	 eax, eax
  0004d	75 11		 jne	 SHORT $LN3@itemIsAnti

; 175  : 		return Py_BuildException("no selected item data");

  0004f	68 00 00 00 00	 push	 OFFSET ??_C@_0BG@LNOAJHHG@no?5selected?5item?5data@
  00054	e8 00 00 00 00	 call	 ?Py_BuildException@@YAPAU_object@@PBDZZ ; Py_BuildException
  00059	83 c4 04	 add	 esp, 4

; 178  : }

  0005c	8b e5		 mov	 esp, ebp
  0005e	5d		 pop	 ebp
  0005f	c3		 ret	 0
$LN3@itemIsAnti:

; 176  : 
; 177  : 	return Py_BuildValue("i", pItemData->IsAntiFlag(iFlag));

  00060	ff 75 fc	 push	 DWORD PTR _iFlag$[ebp]
  00063	8b c8		 mov	 ecx, eax
  00065	e8 00 00 00 00	 call	 ?IsAntiFlag@CItemData@@QBEHK@Z ; CItemData::IsAntiFlag
  0006a	50		 push	 eax
  0006b	68 00 00 00 00	 push	 OFFSET ??_C@_01KBJDNOO@i@
  00070	ff 15 00 00 00
	00		 call	 DWORD PTR __imp__Py_BuildValue
  00076	83 c4 08	 add	 esp, 8

; 178  : }

  00079	8b e5		 mov	 esp, ebp
  0007b	5d		 pop	 ebp
  0007c	c3		 ret	 0
?itemIsAntiFlag@@YAPAU_object@@PAU1@0@Z ENDP		; itemIsAntiFlag
_TEXT	ENDS
; Function compile flags: /Ogtp
; File C:\Anka2Project\Anka2Project\Source\Binary\source\UserInterface\PythonItemModule.cpp
; File C:\Anka2Project\Anka2Project\Source\Binary\source\eterBase\Singleton.h
; File C:\Anka2Project\Anka2Project\Source\Binary\source\UserInterface\PythonItemModule.cpp
;	COMDAT ?itemIsFlag@@YAPAU_object@@PAU1@0@Z
_TEXT	SEGMENT
_iFlag$ = -4						; size = 4
_poSelf$ = 8						; size = 4
_poArgs$ = 12						; size = 4
?itemIsFlag@@YAPAU_object@@PAU1@0@Z PROC		; itemIsFlag, COMDAT

; 181  : {

  00000	55		 push	 ebp
  00001	8b ec		 mov	 ebp, esp
  00003	51		 push	 ecx

; 182  : 	int iFlag;
; 183  : 	if (!PyTuple_GetInteger(poArgs, 0, &iFlag))

  00004	8d 45 fc	 lea	 eax, DWORD PTR _iFlag$[ebp]
  00007	50		 push	 eax
  00008	6a 00		 push	 0
  0000a	ff 75 0c	 push	 DWORD PTR _poArgs$[ebp]
  0000d	e8 00 00 00 00	 call	 ?PyTuple_GetInteger@@YA_NPAU_object@@HPAH@Z ; PyTuple_GetInteger
  00012	83 c4 0c	 add	 esp, 12			; 0000000cH
  00015	84 c0		 test	 al, al
  00017	75 09		 jne	 SHORT $LN2@itemIsFlag

; 184  : 		return Py_BadArgument();

  00019	e8 00 00 00 00	 call	 ?Py_BadArgument@@YAPAU_object@@XZ ; Py_BadArgument

; 191  : }

  0001e	8b e5		 mov	 esp, ebp
  00020	5d		 pop	 ebp
  00021	c3		 ret	 0
$LN2@itemIsFlag:
; File C:\Anka2Project\Anka2Project\Source\Binary\source\eterBase\Singleton.h

; 26   : 		assert(ms_singleton);

  00022	8b 0d 00 00 00
	00		 mov	 ecx, DWORD PTR ?ms_singleton@?$CSingleton@VCItemManager@@@@0PAVCItemManager@@A ; CSingleton<CItemManager>::ms_singleton
  00028	85 c9		 test	 ecx, ecx
  0002a	75 1a		 jne	 SHORT $LN7@itemIsFlag
  0002c	6a 1a		 push	 26			; 0000001aH
  0002e	68 00 00 00 00	 push	 OFFSET ??_C@_1IO@CAJLEEOI@?$AAC?$AA?3?$AA?2?$AAA?$AAn?$AAk?$AAa?$AA2?$AAP?$AAr?$AAo?$AAj?$AAe?$AAc?$AAt@
  00033	68 00 00 00 00	 push	 OFFSET ??_C@_1BK@FMEHPMFE@?$AAm?$AAs?$AA_?$AAs?$AAi?$AAn?$AAg?$AAl?$AAe?$AAt?$AAo?$AAn@
  00038	e8 00 00 00 00	 call	 __wassert
  0003d	8b 0d 00 00 00
	00		 mov	 ecx, DWORD PTR ?ms_singleton@?$CSingleton@VCItemManager@@@@0PAVCItemManager@@A ; CSingleton<CItemManager>::ms_singleton
  00043	83 c4 0c	 add	 esp, 12			; 0000000cH
$LN7@itemIsFlag:
; File C:\Anka2Project\Anka2Project\Source\Binary\source\UserInterface\PythonItemModule.cpp

; 186  : 	CItemData * pItemData = CItemManager::Instance().GetSelectedItemDataPointer();

  00046	e8 00 00 00 00	 call	 ?GetSelectedItemDataPointer@CItemManager@@QAEPAVCItemData@@XZ ; CItemManager::GetSelectedItemDataPointer

; 187  : 	if (!pItemData)

  0004b	85 c0		 test	 eax, eax
  0004d	75 11		 jne	 SHORT $LN3@itemIsFlag

; 188  : 		return Py_BuildException("no selected item data");

  0004f	68 00 00 00 00	 push	 OFFSET ??_C@_0BG@LNOAJHHG@no?5selected?5item?5data@
  00054	e8 00 00 00 00	 call	 ?Py_BuildException@@YAPAU_object@@PBDZZ ; Py_BuildException
  00059	83 c4 04	 add	 esp, 4

; 191  : }

  0005c	8b e5		 mov	 esp, ebp
  0005e	5d		 pop	 ebp
  0005f	c3		 ret	 0
$LN3@itemIsFlag:

; 189  : 
; 190  : 	return Py_BuildValue("i", pItemData->IsFlag(iFlag));

  00060	ff 75 fc	 push	 DWORD PTR _iFlag$[ebp]
  00063	8b c8		 mov	 ecx, eax
  00065	e8 00 00 00 00	 call	 ?IsFlag@CItemData@@QBEHK@Z ; CItemData::IsFlag
  0006a	50		 push	 eax
  0006b	68 00 00 00 00	 push	 OFFSET ??_C@_01KBJDNOO@i@
  00070	ff 15 00 00 00
	00		 call	 DWORD PTR __imp__Py_BuildValue
  00076	83 c4 08	 add	 esp, 8

; 191  : }

  00079	8b e5		 mov	 esp, ebp
  0007b	5d		 pop	 ebp
  0007c	c3		 ret	 0
?itemIsFlag@@YAPAU_object@@PAU1@0@Z ENDP		; itemIsFlag
_TEXT	ENDS
; Function compile flags: /Ogtp
; File C:\Anka2Project\Anka2Project\Source\Binary\source\UserInterface\PythonItemModule.cpp
; File C:\Anka2Project\Anka2Project\Source\Binary\source\eterBase\Singleton.h
; File C:\Anka2Project\Anka2Project\Source\Binary\source\UserInterface\PythonItemModule.cpp
;	COMDAT ?itemIsWearableFlag@@YAPAU_object@@PAU1@0@Z
_TEXT	SEGMENT
_iFlag$ = -4						; size = 4
_poSelf$ = 8						; size = 4
_poArgs$ = 12						; size = 4
?itemIsWearableFlag@@YAPAU_object@@PAU1@0@Z PROC	; itemIsWearableFlag, COMDAT

; 194  : {

  00000	55		 push	 ebp
  00001	8b ec		 mov	 ebp, esp
  00003	51		 push	 ecx

; 195  : 	int iFlag;
; 196  : 	if (!PyTuple_GetInteger(poArgs, 0, &iFlag))

  00004	8d 45 fc	 lea	 eax, DWORD PTR _iFlag$[ebp]
  00007	50		 push	 eax
  00008	6a 00		 push	 0
  0000a	ff 75 0c	 push	 DWORD PTR _poArgs$[ebp]
  0000d	e8 00 00 00 00	 call	 ?PyTuple_GetInteger@@YA_NPAU_object@@HPAH@Z ; PyTuple_GetInteger
  00012	83 c4 0c	 add	 esp, 12			; 0000000cH
  00015	84 c0		 test	 al, al
  00017	75 09		 jne	 SHORT $LN2@itemIsWear

; 197  : 		return Py_BadArgument();

  00019	e8 00 00 00 00	 call	 ?Py_BadArgument@@YAPAU_object@@XZ ; Py_BadArgument

; 204  : }

  0001e	8b e5		 mov	 esp, ebp
  00020	5d		 pop	 ebp
  00021	c3		 ret	 0
$LN2@itemIsWear:
; File C:\Anka2Project\Anka2Project\Source\Binary\source\eterBase\Singleton.h

; 26   : 		assert(ms_singleton);

  00022	8b 0d 00 00 00
	00		 mov	 ecx, DWORD PTR ?ms_singleton@?$CSingleton@VCItemManager@@@@0PAVCItemManager@@A ; CSingleton<CItemManager>::ms_singleton
  00028	85 c9		 test	 ecx, ecx
  0002a	75 1a		 jne	 SHORT $LN7@itemIsWear
  0002c	6a 1a		 push	 26			; 0000001aH
  0002e	68 00 00 00 00	 push	 OFFSET ??_C@_1IO@CAJLEEOI@?$AAC?$AA?3?$AA?2?$AAA?$AAn?$AAk?$AAa?$AA2?$AAP?$AAr?$AAo?$AAj?$AAe?$AAc?$AAt@
  00033	68 00 00 00 00	 push	 OFFSET ??_C@_1BK@FMEHPMFE@?$AAm?$AAs?$AA_?$AAs?$AAi?$AAn?$AAg?$AAl?$AAe?$AAt?$AAo?$AAn@
  00038	e8 00 00 00 00	 call	 __wassert
  0003d	8b 0d 00 00 00
	00		 mov	 ecx, DWORD PTR ?ms_singleton@?$CSingleton@VCItemManager@@@@0PAVCItemManager@@A ; CSingleton<CItemManager>::ms_singleton
  00043	83 c4 0c	 add	 esp, 12			; 0000000cH
$LN7@itemIsWear:
; File C:\Anka2Project\Anka2Project\Source\Binary\source\UserInterface\PythonItemModule.cpp

; 199  : 	CItemData * pItemData = CItemManager::Instance().GetSelectedItemDataPointer();

  00046	e8 00 00 00 00	 call	 ?GetSelectedItemDataPointer@CItemManager@@QAEPAVCItemData@@XZ ; CItemManager::GetSelectedItemDataPointer

; 200  : 	if (!pItemData)

  0004b	85 c0		 test	 eax, eax
  0004d	75 11		 jne	 SHORT $LN3@itemIsWear

; 201  : 		return Py_BuildException("no selected item data");

  0004f	68 00 00 00 00	 push	 OFFSET ??_C@_0BG@LNOAJHHG@no?5selected?5item?5data@
  00054	e8 00 00 00 00	 call	 ?Py_BuildException@@YAPAU_object@@PBDZZ ; Py_BuildException
  00059	83 c4 04	 add	 esp, 4

; 204  : }

  0005c	8b e5		 mov	 esp, ebp
  0005e	5d		 pop	 ebp
  0005f	c3		 ret	 0
$LN3@itemIsWear:

; 202  : 
; 203  : 	return Py_BuildValue("i", pItemData->IsWearableFlag(iFlag));

  00060	ff 75 fc	 push	 DWORD PTR _iFlag$[ebp]
  00063	8b c8		 mov	 ecx, eax
  00065	e8 00 00 00 00	 call	 ?IsWearableFlag@CItemData@@QBEHK@Z ; CItemData::IsWearableFlag
  0006a	50		 push	 eax
  0006b	68 00 00 00 00	 push	 OFFSET ??_C@_01KBJDNOO@i@
  00070	ff 15 00 00 00
	00		 call	 DWORD PTR __imp__Py_BuildValue
  00076	83 c4 08	 add	 esp, 8

; 204  : }

  00079	8b e5		 mov	 esp, ebp
  0007b	5d		 pop	 ebp
  0007c	c3		 ret	 0
?itemIsWearableFlag@@YAPAU_object@@PAU1@0@Z ENDP	; itemIsWearableFlag
_TEXT	ENDS
; Function compile flags: /Ogtp
; File C:\Anka2Project\Anka2Project\Source\Binary\source\UserInterface\PythonItemModule.cpp
; File C:\Anka2Project\Anka2Project\Source\Binary\source\eterBase\Singleton.h
; File C:\Anka2Project\Anka2Project\Source\Binary\source\UserInterface\PythonItemModule.cpp
;	COMDAT ?itemIs1GoldItem@@YAPAU_object@@PAU1@0@Z
_TEXT	SEGMENT
_poSelf$ = 8						; size = 4
_poArgs$ = 12						; size = 4
?itemIs1GoldItem@@YAPAU_object@@PAU1@0@Z PROC		; itemIs1GoldItem, COMDAT
; File C:\Anka2Project\Anka2Project\Source\Binary\source\eterBase\Singleton.h

; 26   : 		assert(ms_singleton);

  00000	8b 0d 00 00 00
	00		 mov	 ecx, DWORD PTR ?ms_singleton@?$CSingleton@VCItemManager@@@@0PAVCItemManager@@A ; CSingleton<CItemManager>::ms_singleton
  00006	85 c9		 test	 ecx, ecx
  00008	75 1a		 jne	 SHORT $LN6@itemIs1Gol
  0000a	6a 1a		 push	 26			; 0000001aH
  0000c	68 00 00 00 00	 push	 OFFSET ??_C@_1IO@CAJLEEOI@?$AAC?$AA?3?$AA?2?$AAA?$AAn?$AAk?$AAa?$AA2?$AAP?$AAr?$AAo?$AAj?$AAe?$AAc?$AAt@
  00011	68 00 00 00 00	 push	 OFFSET ??_C@_1BK@FMEHPMFE@?$AAm?$AAs?$AA_?$AAs?$AAi?$AAn?$AAg?$AAl?$AAe?$AAt?$AAo?$AAn@
  00016	e8 00 00 00 00	 call	 __wassert
  0001b	8b 0d 00 00 00
	00		 mov	 ecx, DWORD PTR ?ms_singleton@?$CSingleton@VCItemManager@@@@0PAVCItemManager@@A ; CSingleton<CItemManager>::ms_singleton
  00021	83 c4 0c	 add	 esp, 12			; 0000000cH
$LN6@itemIs1Gol:
; File C:\Anka2Project\Anka2Project\Source\Binary\source\UserInterface\PythonItemModule.cpp

; 208  : 	CItemData * pItemData = CItemManager::Instance().GetSelectedItemDataPointer();

  00024	e8 00 00 00 00	 call	 ?GetSelectedItemDataPointer@CItemManager@@QAEPAVCItemData@@XZ ; CItemManager::GetSelectedItemDataPointer

; 209  : 	if (!pItemData)

  00029	85 c0		 test	 eax, eax
  0002b	75 0e		 jne	 SHORT $LN2@itemIs1Gol

; 210  : 		return Py_BuildException("no selected item data");

  0002d	68 00 00 00 00	 push	 OFFSET ??_C@_0BG@LNOAJHHG@no?5selected?5item?5data@
  00032	e8 00 00 00 00	 call	 ?Py_BuildException@@YAPAU_object@@PBDZZ ; Py_BuildException
  00037	83 c4 04	 add	 esp, 4

; 213  : }

  0003a	c3		 ret	 0
$LN2@itemIs1Gol:

; 211  : 
; 212  : 	return Py_BuildValue("i", pItemData->IsFlag(CItemData::ITEM_FLAG_COUNT_PER_1GOLD));

  0003b	6a 08		 push	 8
  0003d	8b c8		 mov	 ecx, eax
  0003f	e8 00 00 00 00	 call	 ?IsFlag@CItemData@@QBEHK@Z ; CItemData::IsFlag
  00044	50		 push	 eax
  00045	68 00 00 00 00	 push	 OFFSET ??_C@_01KBJDNOO@i@
  0004a	ff 15 00 00 00
	00		 call	 DWORD PTR __imp__Py_BuildValue
  00050	83 c4 08	 add	 esp, 8

; 213  : }

  00053	c3		 ret	 0
?itemIs1GoldItem@@YAPAU_object@@PAU1@0@Z ENDP		; itemIs1GoldItem
_TEXT	ENDS
; Function compile flags: /Ogtp
; File C:\Anka2Project\Anka2Project\Source\Binary\source\UserInterface\PythonItemModule.cpp
; File C:\Anka2Project\Anka2Project\Source\Binary\source\eterBase\Singleton.h
; File C:\Anka2Project\Anka2Project\Source\Binary\source\UserInterface\PythonItemModule.cpp
;	COMDAT ?itemGetLimit@@YAPAU_object@@PAU1@0@Z
_TEXT	SEGMENT
_ItemLimit$ = -12					; size = 5
_iValueIndex$ = -4					; size = 4
_poSelf$ = 8						; size = 4
_poArgs$ = 12						; size = 4
?itemGetLimit@@YAPAU_object@@PAU1@0@Z PROC		; itemGetLimit, COMDAT

; 216  : {

  00000	55		 push	 ebp
  00001	8b ec		 mov	 ebp, esp
  00003	83 ec 0c	 sub	 esp, 12			; 0000000cH

; 217  : 	int iValueIndex;
; 218  : 	if (!PyTuple_GetInteger(poArgs, 0, &iValueIndex))

  00006	8d 45 fc	 lea	 eax, DWORD PTR _iValueIndex$[ebp]
  00009	50		 push	 eax
  0000a	6a 00		 push	 0
  0000c	ff 75 0c	 push	 DWORD PTR _poArgs$[ebp]
  0000f	e8 00 00 00 00	 call	 ?PyTuple_GetInteger@@YA_NPAU_object@@HPAH@Z ; PyTuple_GetInteger
  00014	83 c4 0c	 add	 esp, 12			; 0000000cH
  00017	84 c0		 test	 al, al
  00019	75 09		 jne	 SHORT $LN2@itemGetLim

; 219  : 		return Py_BadArgument();

  0001b	e8 00 00 00 00	 call	 ?Py_BadArgument@@YAPAU_object@@XZ ; Py_BadArgument

; 230  : }

  00020	8b e5		 mov	 esp, ebp
  00022	5d		 pop	 ebp
  00023	c3		 ret	 0
$LN2@itemGetLim:
; File C:\Anka2Project\Anka2Project\Source\Binary\source\eterBase\Singleton.h

; 26   : 		assert(ms_singleton);

  00024	8b 0d 00 00 00
	00		 mov	 ecx, DWORD PTR ?ms_singleton@?$CSingleton@VCItemManager@@@@0PAVCItemManager@@A ; CSingleton<CItemManager>::ms_singleton
  0002a	85 c9		 test	 ecx, ecx
  0002c	75 1a		 jne	 SHORT $LN8@itemGetLim
  0002e	6a 1a		 push	 26			; 0000001aH
  00030	68 00 00 00 00	 push	 OFFSET ??_C@_1IO@CAJLEEOI@?$AAC?$AA?3?$AA?2?$AAA?$AAn?$AAk?$AAa?$AA2?$AAP?$AAr?$AAo?$AAj?$AAe?$AAc?$AAt@
  00035	68 00 00 00 00	 push	 OFFSET ??_C@_1BK@FMEHPMFE@?$AAm?$AAs?$AA_?$AAs?$AAi?$AAn?$AAg?$AAl?$AAe?$AAt?$AAo?$AAn@
  0003a	e8 00 00 00 00	 call	 __wassert
  0003f	8b 0d 00 00 00
	00		 mov	 ecx, DWORD PTR ?ms_singleton@?$CSingleton@VCItemManager@@@@0PAVCItemManager@@A ; CSingleton<CItemManager>::ms_singleton
  00045	83 c4 0c	 add	 esp, 12			; 0000000cH
$LN8@itemGetLim:
; File C:\Anka2Project\Anka2Project\Source\Binary\source\UserInterface\PythonItemModule.cpp

; 221  : 	CItemData * pItemData = CItemManager::Instance().GetSelectedItemDataPointer();

  00048	e8 00 00 00 00	 call	 ?GetSelectedItemDataPointer@CItemManager@@QAEPAVCItemData@@XZ ; CItemManager::GetSelectedItemDataPointer

; 222  : 	if (!pItemData)

  0004d	85 c0		 test	 eax, eax
  0004f	75 11		 jne	 SHORT $LN3@itemGetLim

; 223  : 		return Py_BuildException("Not yet select item data");

  00051	68 00 00 00 00	 push	 OFFSET ??_C@_0BJ@FJOAFFCG@Not?5yet?5select?5item?5data@
  00056	e8 00 00 00 00	 call	 ?Py_BuildException@@YAPAU_object@@PBDZZ ; Py_BuildException
  0005b	83 c4 04	 add	 esp, 4

; 230  : }

  0005e	8b e5		 mov	 esp, ebp
  00060	5d		 pop	 ebp
  00061	c3		 ret	 0
$LN3@itemGetLim:

; 224  : 
; 225  : 	CItemData::TItemLimit ItemLimit;
; 226  : 	if (!pItemData->GetLimit(iValueIndex, &ItemLimit))

  00062	8d 4d f4	 lea	 ecx, DWORD PTR _ItemLimit$[ebp]
  00065	51		 push	 ecx
  00066	ff 75 fc	 push	 DWORD PTR _iValueIndex$[ebp]
  00069	8b c8		 mov	 ecx, eax
  0006b	e8 00 00 00 00	 call	 ?GetLimit@CItemData@@QBEHEPAUSItemLimit@1@@Z ; CItemData::GetLimit
  00070	85 c0		 test	 eax, eax
  00072	75 0d		 jne	 SHORT $LN4@itemGetLim

; 227  : 		return Py_BuildException();

  00074	50		 push	 eax
  00075	e8 00 00 00 00	 call	 ?Py_BuildException@@YAPAU_object@@PBDZZ ; Py_BuildException
  0007a	83 c4 04	 add	 esp, 4

; 230  : }

  0007d	8b e5		 mov	 esp, ebp
  0007f	5d		 pop	 ebp
  00080	c3		 ret	 0
$LN4@itemGetLim:

; 228  : 
; 229  : 	return Py_BuildValue("ii", ItemLimit.bType, ItemLimit.lValue);

  00081	ff 75 f5	 push	 DWORD PTR _ItemLimit$[ebp+1]
  00084	0f b6 45 f4	 movzx	 eax, BYTE PTR _ItemLimit$[ebp]
  00088	50		 push	 eax
  00089	68 00 00 00 00	 push	 OFFSET ??_C@_02PDIHAGKM@ii@
  0008e	ff 15 00 00 00
	00		 call	 DWORD PTR __imp__Py_BuildValue
  00094	83 c4 0c	 add	 esp, 12			; 0000000cH

; 230  : }

  00097	8b e5		 mov	 esp, ebp
  00099	5d		 pop	 ebp
  0009a	c3		 ret	 0
?itemGetLimit@@YAPAU_object@@PAU1@0@Z ENDP		; itemGetLimit
_TEXT	ENDS
; Function compile flags: /Ogtp
; File C:\Anka2Project\Anka2Project\Source\Binary\source\UserInterface\PythonItemModule.cpp
; File C:\Anka2Project\Anka2Project\Source\Binary\source\eterBase\Singleton.h
; File C:\Anka2Project\Anka2Project\Source\Binary\source\UserInterface\PythonItemModule.cpp
;	COMDAT ?itemGetLimitType@@YAPAU_object@@PAU1@0@Z
_TEXT	SEGMENT
_ItemLimit$ = -12					; size = 5
_iValueIndex$ = -4					; size = 4
_poSelf$ = 8						; size = 4
_poArgs$ = 12						; size = 4
?itemGetLimitType@@YAPAU_object@@PAU1@0@Z PROC		; itemGetLimitType, COMDAT

; 233  : {

  00000	55		 push	 ebp
  00001	8b ec		 mov	 ebp, esp
  00003	83 ec 0c	 sub	 esp, 12			; 0000000cH

; 234  : 	int iValueIndex;
; 235  : 	if (!PyTuple_GetInteger(poArgs, 0, &iValueIndex))

  00006	8d 45 fc	 lea	 eax, DWORD PTR _iValueIndex$[ebp]
  00009	50		 push	 eax
  0000a	6a 00		 push	 0
  0000c	ff 75 0c	 push	 DWORD PTR _poArgs$[ebp]
  0000f	e8 00 00 00 00	 call	 ?PyTuple_GetInteger@@YA_NPAU_object@@HPAH@Z ; PyTuple_GetInteger
  00014	83 c4 0c	 add	 esp, 12			; 0000000cH
  00017	84 c0		 test	 al, al
  00019	75 09		 jne	 SHORT $LN2@itemGetLim

; 236  : 		return Py_BadArgument();

  0001b	e8 00 00 00 00	 call	 ?Py_BadArgument@@YAPAU_object@@XZ ; Py_BadArgument

; 247  : }

  00020	8b e5		 mov	 esp, ebp
  00022	5d		 pop	 ebp
  00023	c3		 ret	 0
$LN2@itemGetLim:
; File C:\Anka2Project\Anka2Project\Source\Binary\source\eterBase\Singleton.h

; 26   : 		assert(ms_singleton);

  00024	8b 0d 00 00 00
	00		 mov	 ecx, DWORD PTR ?ms_singleton@?$CSingleton@VCItemManager@@@@0PAVCItemManager@@A ; CSingleton<CItemManager>::ms_singleton
  0002a	85 c9		 test	 ecx, ecx
  0002c	75 1a		 jne	 SHORT $LN8@itemGetLim
  0002e	6a 1a		 push	 26			; 0000001aH
  00030	68 00 00 00 00	 push	 OFFSET ??_C@_1IO@CAJLEEOI@?$AAC?$AA?3?$AA?2?$AAA?$AAn?$AAk?$AAa?$AA2?$AAP?$AAr?$AAo?$AAj?$AAe?$AAc?$AAt@
  00035	68 00 00 00 00	 push	 OFFSET ??_C@_1BK@FMEHPMFE@?$AAm?$AAs?$AA_?$AAs?$AAi?$AAn?$AAg?$AAl?$AAe?$AAt?$AAo?$AAn@
  0003a	e8 00 00 00 00	 call	 __wassert
  0003f	8b 0d 00 00 00
	00		 mov	 ecx, DWORD PTR ?ms_singleton@?$CSingleton@VCItemManager@@@@0PAVCItemManager@@A ; CSingleton<CItemManager>::ms_singleton
  00045	83 c4 0c	 add	 esp, 12			; 0000000cH
$LN8@itemGetLim:
; File C:\Anka2Project\Anka2Project\Source\Binary\source\UserInterface\PythonItemModule.cpp

; 238  : 	CItemData * pItemData = CItemManager::Instance().GetSelectedItemDataPointer();

  00048	e8 00 00 00 00	 call	 ?GetSelectedItemDataPointer@CItemManager@@QAEPAVCItemData@@XZ ; CItemManager::GetSelectedItemDataPointer

; 239  : 	if (!pItemData)

  0004d	85 c0		 test	 eax, eax
  0004f	75 11		 jne	 SHORT $LN3@itemGetLim

; 240  : 		return Py_BuildException("Not yet select item data");

  00051	68 00 00 00 00	 push	 OFFSET ??_C@_0BJ@FJOAFFCG@Not?5yet?5select?5item?5data@
  00056	e8 00 00 00 00	 call	 ?Py_BuildException@@YAPAU_object@@PBDZZ ; Py_BuildException
  0005b	83 c4 04	 add	 esp, 4

; 247  : }

  0005e	8b e5		 mov	 esp, ebp
  00060	5d		 pop	 ebp
  00061	c3		 ret	 0
$LN3@itemGetLim:

; 241  : 
; 242  : 	CItemData::TItemLimit ItemLimit;
; 243  : 	if (!pItemData->GetLimit(iValueIndex, &ItemLimit))

  00062	8d 4d f4	 lea	 ecx, DWORD PTR _ItemLimit$[ebp]
  00065	51		 push	 ecx
  00066	ff 75 fc	 push	 DWORD PTR _iValueIndex$[ebp]
  00069	8b c8		 mov	 ecx, eax
  0006b	e8 00 00 00 00	 call	 ?GetLimit@CItemData@@QBEHEPAUSItemLimit@1@@Z ; CItemData::GetLimit
  00070	85 c0		 test	 eax, eax
  00072	75 0d		 jne	 SHORT $LN4@itemGetLim

; 244  : 		return Py_BuildException();

  00074	50		 push	 eax
  00075	e8 00 00 00 00	 call	 ?Py_BuildException@@YAPAU_object@@PBDZZ ; Py_BuildException
  0007a	83 c4 04	 add	 esp, 4

; 247  : }

  0007d	8b e5		 mov	 esp, ebp
  0007f	5d		 pop	 ebp
  00080	c3		 ret	 0
$LN4@itemGetLim:

; 245  : 
; 246  : 	return Py_BuildValue("i", ItemLimit.bType);

  00081	0f b6 45 f4	 movzx	 eax, BYTE PTR _ItemLimit$[ebp]
  00085	50		 push	 eax
  00086	68 00 00 00 00	 push	 OFFSET ??_C@_01KBJDNOO@i@
  0008b	ff 15 00 00 00
	00		 call	 DWORD PTR __imp__Py_BuildValue
  00091	83 c4 08	 add	 esp, 8

; 247  : }

  00094	8b e5		 mov	 esp, ebp
  00096	5d		 pop	 ebp
  00097	c3		 ret	 0
?itemGetLimitType@@YAPAU_object@@PAU1@0@Z ENDP		; itemGetLimitType
_TEXT	ENDS
; Function compile flags: /Ogtp
; File C:\Anka2Project\Anka2Project\Source\Binary\source\UserInterface\PythonItemModule.cpp
; File C:\Anka2Project\Anka2Project\Source\Binary\source\eterBase\Singleton.h
; File C:\Anka2Project\Anka2Project\Source\Binary\source\UserInterface\PythonItemModule.cpp
;	COMDAT ?itemGetLimitValue@@YAPAU_object@@PAU1@0@Z
_TEXT	SEGMENT
_ItemLimit$ = -12					; size = 5
_iValueIndex$ = -4					; size = 4
_poSelf$ = 8						; size = 4
_poArgs$ = 12						; size = 4
?itemGetLimitValue@@YAPAU_object@@PAU1@0@Z PROC		; itemGetLimitValue, COMDAT

; 250  : {

  00000	55		 push	 ebp
  00001	8b ec		 mov	 ebp, esp
  00003	83 ec 0c	 sub	 esp, 12			; 0000000cH

; 251  : 	int iValueIndex;
; 252  : 	if (!PyTuple_GetInteger(poArgs, 0, &iValueIndex))

  00006	8d 45 fc	 lea	 eax, DWORD PTR _iValueIndex$[ebp]
  00009	50		 push	 eax
  0000a	6a 00		 push	 0
  0000c	ff 75 0c	 push	 DWORD PTR _poArgs$[ebp]
  0000f	e8 00 00 00 00	 call	 ?PyTuple_GetInteger@@YA_NPAU_object@@HPAH@Z ; PyTuple_GetInteger
  00014	83 c4 0c	 add	 esp, 12			; 0000000cH
  00017	84 c0		 test	 al, al
  00019	75 09		 jne	 SHORT $LN2@itemGetLim

; 253  : 		return Py_BadArgument();

  0001b	e8 00 00 00 00	 call	 ?Py_BadArgument@@YAPAU_object@@XZ ; Py_BadArgument

; 264  : }

  00020	8b e5		 mov	 esp, ebp
  00022	5d		 pop	 ebp
  00023	c3		 ret	 0
$LN2@itemGetLim:
; File C:\Anka2Project\Anka2Project\Source\Binary\source\eterBase\Singleton.h

; 26   : 		assert(ms_singleton);

  00024	8b 0d 00 00 00
	00		 mov	 ecx, DWORD PTR ?ms_singleton@?$CSingleton@VCItemManager@@@@0PAVCItemManager@@A ; CSingleton<CItemManager>::ms_singleton
  0002a	85 c9		 test	 ecx, ecx
  0002c	75 1a		 jne	 SHORT $LN8@itemGetLim
  0002e	6a 1a		 push	 26			; 0000001aH
  00030	68 00 00 00 00	 push	 OFFSET ??_C@_1IO@CAJLEEOI@?$AAC?$AA?3?$AA?2?$AAA?$AAn?$AAk?$AAa?$AA2?$AAP?$AAr?$AAo?$AAj?$AAe?$AAc?$AAt@
  00035	68 00 00 00 00	 push	 OFFSET ??_C@_1BK@FMEHPMFE@?$AAm?$AAs?$AA_?$AAs?$AAi?$AAn?$AAg?$AAl?$AAe?$AAt?$AAo?$AAn@
  0003a	e8 00 00 00 00	 call	 __wassert
  0003f	8b 0d 00 00 00
	00		 mov	 ecx, DWORD PTR ?ms_singleton@?$CSingleton@VCItemManager@@@@0PAVCItemManager@@A ; CSingleton<CItemManager>::ms_singleton
  00045	83 c4 0c	 add	 esp, 12			; 0000000cH
$LN8@itemGetLim:
; File C:\Anka2Project\Anka2Project\Source\Binary\source\UserInterface\PythonItemModule.cpp

; 255  : 	CItemData* pItemData = CItemManager::Instance().GetSelectedItemDataPointer();

  00048	e8 00 00 00 00	 call	 ?GetSelectedItemDataPointer@CItemManager@@QAEPAVCItemData@@XZ ; CItemManager::GetSelectedItemDataPointer

; 256  : 	if (!pItemData)

  0004d	85 c0		 test	 eax, eax
  0004f	75 11		 jne	 SHORT $LN3@itemGetLim

; 257  : 		return Py_BuildException("Not yet select item data");

  00051	68 00 00 00 00	 push	 OFFSET ??_C@_0BJ@FJOAFFCG@Not?5yet?5select?5item?5data@
  00056	e8 00 00 00 00	 call	 ?Py_BuildException@@YAPAU_object@@PBDZZ ; Py_BuildException
  0005b	83 c4 04	 add	 esp, 4

; 264  : }

  0005e	8b e5		 mov	 esp, ebp
  00060	5d		 pop	 ebp
  00061	c3		 ret	 0
$LN3@itemGetLim:

; 258  : 
; 259  : 	CItemData::TItemLimit ItemLimit;
; 260  : 	if (!pItemData->GetLimit(iValueIndex, &ItemLimit))

  00062	8d 4d f4	 lea	 ecx, DWORD PTR _ItemLimit$[ebp]
  00065	51		 push	 ecx
  00066	ff 75 fc	 push	 DWORD PTR _iValueIndex$[ebp]
  00069	8b c8		 mov	 ecx, eax
  0006b	e8 00 00 00 00	 call	 ?GetLimit@CItemData@@QBEHEPAUSItemLimit@1@@Z ; CItemData::GetLimit
  00070	85 c0		 test	 eax, eax
  00072	75 0d		 jne	 SHORT $LN4@itemGetLim

; 261  : 		return Py_BuildException();

  00074	50		 push	 eax
  00075	e8 00 00 00 00	 call	 ?Py_BuildException@@YAPAU_object@@PBDZZ ; Py_BuildException
  0007a	83 c4 04	 add	 esp, 4

; 264  : }

  0007d	8b e5		 mov	 esp, ebp
  0007f	5d		 pop	 ebp
  00080	c3		 ret	 0
$LN4@itemGetLim:

; 262  : 
; 263  : 	return Py_BuildValue("i", ItemLimit.lValue);

  00081	ff 75 f5	 push	 DWORD PTR _ItemLimit$[ebp+1]
  00084	68 00 00 00 00	 push	 OFFSET ??_C@_01KBJDNOO@i@
  00089	ff 15 00 00 00
	00		 call	 DWORD PTR __imp__Py_BuildValue
  0008f	83 c4 08	 add	 esp, 8

; 264  : }

  00092	8b e5		 mov	 esp, ebp
  00094	5d		 pop	 ebp
  00095	c3		 ret	 0
?itemGetLimitValue@@YAPAU_object@@PAU1@0@Z ENDP		; itemGetLimitValue
_TEXT	ENDS
; Function compile flags: /Ogtp
; File C:\Anka2Project\Anka2Project\Source\Binary\source\UserInterface\PythonItemModule.cpp
; File C:\Anka2Project\Anka2Project\Source\Binary\source\eterBase\Singleton.h
; File C:\Anka2Project\Anka2Project\Source\Binary\source\UserInterface\PythonItemModule.cpp
;	COMDAT ?itemGetAffect@@YAPAU_object@@PAU1@0@Z
_TEXT	SEGMENT
_ItemApply$ = -12					; size = 5
_iValueIndex$ = -4					; size = 4
_poSelf$ = 8						; size = 4
_poArgs$ = 12						; size = 4
?itemGetAffect@@YAPAU_object@@PAU1@0@Z PROC		; itemGetAffect, COMDAT

; 267  : {

  00000	55		 push	 ebp
  00001	8b ec		 mov	 ebp, esp
  00003	83 ec 0c	 sub	 esp, 12			; 0000000cH

; 268  : 	int iValueIndex;
; 269  : 	if (!PyTuple_GetInteger(poArgs, 0, &iValueIndex))

  00006	8d 45 fc	 lea	 eax, DWORD PTR _iValueIndex$[ebp]
  00009	50		 push	 eax
  0000a	6a 00		 push	 0
  0000c	ff 75 0c	 push	 DWORD PTR _poArgs$[ebp]
  0000f	e8 00 00 00 00	 call	 ?PyTuple_GetInteger@@YA_NPAU_object@@HPAH@Z ; PyTuple_GetInteger
  00014	83 c4 0c	 add	 esp, 12			; 0000000cH
  00017	84 c0		 test	 al, al
  00019	75 09		 jne	 SHORT $LN2@itemGetAff

; 270  : 		return Py_BadArgument();

  0001b	e8 00 00 00 00	 call	 ?Py_BadArgument@@YAPAU_object@@XZ ; Py_BadArgument

; 286  : }

  00020	8b e5		 mov	 esp, ebp
  00022	5d		 pop	 ebp
  00023	c3		 ret	 0
$LN2@itemGetAff:
; File C:\Anka2Project\Anka2Project\Source\Binary\source\eterBase\Singleton.h

; 26   : 		assert(ms_singleton);

  00024	8b 0d 00 00 00
	00		 mov	 ecx, DWORD PTR ?ms_singleton@?$CSingleton@VCItemManager@@@@0PAVCItemManager@@A ; CSingleton<CItemManager>::ms_singleton
  0002a	85 c9		 test	 ecx, ecx
  0002c	75 1a		 jne	 SHORT $LN9@itemGetAff
  0002e	6a 1a		 push	 26			; 0000001aH
  00030	68 00 00 00 00	 push	 OFFSET ??_C@_1IO@CAJLEEOI@?$AAC?$AA?3?$AA?2?$AAA?$AAn?$AAk?$AAa?$AA2?$AAP?$AAr?$AAo?$AAj?$AAe?$AAc?$AAt@
  00035	68 00 00 00 00	 push	 OFFSET ??_C@_1BK@FMEHPMFE@?$AAm?$AAs?$AA_?$AAs?$AAi?$AAn?$AAg?$AAl?$AAe?$AAt?$AAo?$AAn@
  0003a	e8 00 00 00 00	 call	 __wassert
  0003f	8b 0d 00 00 00
	00		 mov	 ecx, DWORD PTR ?ms_singleton@?$CSingleton@VCItemManager@@@@0PAVCItemManager@@A ; CSingleton<CItemManager>::ms_singleton
  00045	83 c4 0c	 add	 esp, 12			; 0000000cH
$LN9@itemGetAff:
  00048	56		 push	 esi
; File C:\Anka2Project\Anka2Project\Source\Binary\source\UserInterface\PythonItemModule.cpp

; 272  : 	CItemData * pItemData = CItemManager::Instance().GetSelectedItemDataPointer();

  00049	e8 00 00 00 00	 call	 ?GetSelectedItemDataPointer@CItemManager@@QAEPAVCItemData@@XZ ; CItemManager::GetSelectedItemDataPointer
  0004e	8b f0		 mov	 esi, eax

; 273  : 	if (!pItemData)

  00050	85 f6		 test	 esi, esi
  00052	75 12		 jne	 SHORT $LN3@itemGetAff

; 274  : 		return Py_BuildException("Not yet select item data");

  00054	68 00 00 00 00	 push	 OFFSET ??_C@_0BJ@FJOAFFCG@Not?5yet?5select?5item?5data@
  00059	e8 00 00 00 00	 call	 ?Py_BuildException@@YAPAU_object@@PBDZZ ; Py_BuildException
  0005e	83 c4 04	 add	 esp, 4
  00061	5e		 pop	 esi

; 286  : }

  00062	8b e5		 mov	 esp, ebp
  00064	5d		 pop	 ebp
  00065	c3		 ret	 0
$LN3@itemGetAff:

; 275  : 
; 276  : 	CItemData::TItemApply ItemApply;
; 277  : 	if (!pItemData->GetApply(iValueIndex, &ItemApply))

  00066	8d 45 f4	 lea	 eax, DWORD PTR _ItemApply$[ebp]
  00069	8b ce		 mov	 ecx, esi
  0006b	50		 push	 eax
  0006c	ff 75 fc	 push	 DWORD PTR _iValueIndex$[ebp]
  0006f	e8 00 00 00 00	 call	 ?GetApply@CItemData@@QBEHEPAUSItemApply@1@@Z ; CItemData::GetApply
  00074	85 c0		 test	 eax, eax
  00076	75 0e		 jne	 SHORT $LN4@itemGetAff

; 278  : 		return Py_BuildException();

  00078	50		 push	 eax
  00079	e8 00 00 00 00	 call	 ?Py_BuildException@@YAPAU_object@@PBDZZ ; Py_BuildException
  0007e	83 c4 04	 add	 esp, 4
  00081	5e		 pop	 esi

; 286  : }

  00082	8b e5		 mov	 esp, ebp
  00084	5d		 pop	 ebp
  00085	c3		 ret	 0
$LN4@itemGetAff:

; 279  : 
; 280  : 	if ((CItemData::APPLY_ATT_SPEED == ItemApply.bType) && (CItemData::ITEM_TYPE_WEAPON == pItemData->GetType()) && (CItemData::WEAPON_TWO_HANDED == pItemData->GetSubType()))

  00086	80 7d f4 07	 cmp	 BYTE PTR _ItemApply$[ebp], 7
  0008a	75 1e		 jne	 SHORT $LN11@itemGetAff
  0008c	8b ce		 mov	 ecx, esi
  0008e	e8 00 00 00 00	 call	 ?GetType@CItemData@@QBEEXZ ; CItemData::GetType
  00093	3c 01		 cmp	 al, 1
  00095	75 13		 jne	 SHORT $LN11@itemGetAff
  00097	8b ce		 mov	 ecx, esi
  00099	e8 00 00 00 00	 call	 ?GetSubType@CItemData@@QBEEXZ ; CItemData::GetSubType
  0009e	3c 03		 cmp	 al, 3
  000a0	75 08		 jne	 SHORT $LN11@itemGetAff

; 281  : 	{
; 282  : 		ItemApply.lValue -= TWOHANDED_WEWAPON_ATT_SPEED_DECREASE_VALUE;

  000a2	a1 00 00 00 00	 mov	 eax, DWORD PTR ?TWOHANDED_WEWAPON_ATT_SPEED_DECREASE_VALUE@@3HA ; TWOHANDED_WEWAPON_ATT_SPEED_DECREASE_VALUE
  000a7	29 45 f5	 sub	 DWORD PTR _ItemApply$[ebp+1], eax
$LN11@itemGetAff:

; 283  : 	}
; 284  : 
; 285  : 	return Py_BuildValue("ii", ItemApply.bType, ItemApply.lValue);

  000aa	ff 75 f5	 push	 DWORD PTR _ItemApply$[ebp+1]
  000ad	0f b6 45 f4	 movzx	 eax, BYTE PTR _ItemApply$[ebp]
  000b1	50		 push	 eax
  000b2	68 00 00 00 00	 push	 OFFSET ??_C@_02PDIHAGKM@ii@
  000b7	ff 15 00 00 00
	00		 call	 DWORD PTR __imp__Py_BuildValue
  000bd	83 c4 0c	 add	 esp, 12			; 0000000cH
  000c0	5e		 pop	 esi

; 286  : }

  000c1	8b e5		 mov	 esp, ebp
  000c3	5d		 pop	 ebp
  000c4	c3		 ret	 0
?itemGetAffect@@YAPAU_object@@PAU1@0@Z ENDP		; itemGetAffect
_TEXT	ENDS
; Function compile flags: /Ogtp
; File C:\Anka2Project\Anka2Project\Source\Binary\source\UserInterface\PythonItemModule.cpp
; File C:\Anka2Project\Anka2Project\Source\Binary\source\eterBase\Singleton.h
; File C:\Anka2Project\Anka2Project\Source\Binary\source\UserInterface\PythonItemModule.cpp
;	COMDAT ?itemGetValue@@YAPAU_object@@PAU1@0@Z
_TEXT	SEGMENT
_iValueIndex$ = -4					; size = 4
_poSelf$ = 8						; size = 4
_poArgs$ = 12						; size = 4
?itemGetValue@@YAPAU_object@@PAU1@0@Z PROC		; itemGetValue, COMDAT

; 289  : {

  00000	55		 push	 ebp
  00001	8b ec		 mov	 ebp, esp
  00003	51		 push	 ecx

; 290  : 	int iValueIndex;
; 291  : 	if (!PyTuple_GetInteger(poArgs, 0, &iValueIndex))

  00004	8d 45 fc	 lea	 eax, DWORD PTR _iValueIndex$[ebp]
  00007	50		 push	 eax
  00008	6a 00		 push	 0
  0000a	ff 75 0c	 push	 DWORD PTR _poArgs$[ebp]
  0000d	e8 00 00 00 00	 call	 ?PyTuple_GetInteger@@YA_NPAU_object@@HPAH@Z ; PyTuple_GetInteger
  00012	83 c4 0c	 add	 esp, 12			; 0000000cH
  00015	84 c0		 test	 al, al
  00017	75 09		 jne	 SHORT $LN2@itemGetVal

; 292  : 		return Py_BadArgument();

  00019	e8 00 00 00 00	 call	 ?Py_BadArgument@@YAPAU_object@@XZ ; Py_BadArgument

; 299  : }

  0001e	8b e5		 mov	 esp, ebp
  00020	5d		 pop	 ebp
  00021	c3		 ret	 0
$LN2@itemGetVal:
; File C:\Anka2Project\Anka2Project\Source\Binary\source\eterBase\Singleton.h

; 26   : 		assert(ms_singleton);

  00022	8b 0d 00 00 00
	00		 mov	 ecx, DWORD PTR ?ms_singleton@?$CSingleton@VCItemManager@@@@0PAVCItemManager@@A ; CSingleton<CItemManager>::ms_singleton
  00028	85 c9		 test	 ecx, ecx
  0002a	75 1a		 jne	 SHORT $LN7@itemGetVal
  0002c	6a 1a		 push	 26			; 0000001aH
  0002e	68 00 00 00 00	 push	 OFFSET ??_C@_1IO@CAJLEEOI@?$AAC?$AA?3?$AA?2?$AAA?$AAn?$AAk?$AAa?$AA2?$AAP?$AAr?$AAo?$AAj?$AAe?$AAc?$AAt@
  00033	68 00 00 00 00	 push	 OFFSET ??_C@_1BK@FMEHPMFE@?$AAm?$AAs?$AA_?$AAs?$AAi?$AAn?$AAg?$AAl?$AAe?$AAt?$AAo?$AAn@
  00038	e8 00 00 00 00	 call	 __wassert
  0003d	8b 0d 00 00 00
	00		 mov	 ecx, DWORD PTR ?ms_singleton@?$CSingleton@VCItemManager@@@@0PAVCItemManager@@A ; CSingleton<CItemManager>::ms_singleton
  00043	83 c4 0c	 add	 esp, 12			; 0000000cH
$LN7@itemGetVal:
; File C:\Anka2Project\Anka2Project\Source\Binary\source\UserInterface\PythonItemModule.cpp

; 294  : 	CItemData * pItemData = CItemManager::Instance().GetSelectedItemDataPointer();

  00046	e8 00 00 00 00	 call	 ?GetSelectedItemDataPointer@CItemManager@@QAEPAVCItemData@@XZ ; CItemManager::GetSelectedItemDataPointer

; 295  : 	if (!pItemData)

  0004b	85 c0		 test	 eax, eax
  0004d	75 11		 jne	 SHORT $LN3@itemGetVal

; 296  : 		return Py_BuildException("Not yet select item data");

  0004f	68 00 00 00 00	 push	 OFFSET ??_C@_0BJ@FJOAFFCG@Not?5yet?5select?5item?5data@
  00054	e8 00 00 00 00	 call	 ?Py_BuildException@@YAPAU_object@@PBDZZ ; Py_BuildException
  00059	83 c4 04	 add	 esp, 4

; 299  : }

  0005c	8b e5		 mov	 esp, ebp
  0005e	5d		 pop	 ebp
  0005f	c3		 ret	 0
$LN3@itemGetVal:

; 297  : 
; 298  : 	return Py_BuildValue("i", pItemData->GetValue(iValueIndex));

  00060	ff 75 fc	 push	 DWORD PTR _iValueIndex$[ebp]
  00063	8b c8		 mov	 ecx, eax
  00065	e8 00 00 00 00	 call	 ?GetValue@CItemData@@QBEJE@Z ; CItemData::GetValue
  0006a	50		 push	 eax
  0006b	68 00 00 00 00	 push	 OFFSET ??_C@_01KBJDNOO@i@
  00070	ff 15 00 00 00
	00		 call	 DWORD PTR __imp__Py_BuildValue
  00076	83 c4 08	 add	 esp, 8

; 299  : }

  00079	8b e5		 mov	 esp, ebp
  0007b	5d		 pop	 ebp
  0007c	c3		 ret	 0
?itemGetValue@@YAPAU_object@@PAU1@0@Z ENDP		; itemGetValue
_TEXT	ENDS
; Function compile flags: /Ogtp
; File C:\Anka2Project\Anka2Project\Source\Binary\source\UserInterface\PythonItemModule.cpp
; File C:\Anka2Project\Anka2Project\Source\Binary\source\eterBase\Singleton.h
; File C:\Anka2Project\Anka2Project\Source\Binary\source\UserInterface\PythonItemModule.cpp
;	COMDAT ?itemGetSocket@@YAPAU_object@@PAU1@0@Z
_TEXT	SEGMENT
_iValueIndex$ = -4					; size = 4
_poSelf$ = 8						; size = 4
_poArgs$ = 12						; size = 4
?itemGetSocket@@YAPAU_object@@PAU1@0@Z PROC		; itemGetSocket, COMDAT

; 302  : {

  00000	55		 push	 ebp
  00001	8b ec		 mov	 ebp, esp
  00003	51		 push	 ecx

; 303  : 	int iValueIndex;
; 304  : 	if (!PyTuple_GetInteger(poArgs, 0, &iValueIndex))

  00004	8d 45 fc	 lea	 eax, DWORD PTR _iValueIndex$[ebp]
  00007	50		 push	 eax
  00008	6a 00		 push	 0
  0000a	ff 75 0c	 push	 DWORD PTR _poArgs$[ebp]
  0000d	e8 00 00 00 00	 call	 ?PyTuple_GetInteger@@YA_NPAU_object@@HPAH@Z ; PyTuple_GetInteger
  00012	83 c4 0c	 add	 esp, 12			; 0000000cH
  00015	84 c0		 test	 al, al
  00017	75 09		 jne	 SHORT $LN2@itemGetSoc

; 305  : 		return Py_BadArgument();

  00019	e8 00 00 00 00	 call	 ?Py_BadArgument@@YAPAU_object@@XZ ; Py_BadArgument

; 312  : }

  0001e	8b e5		 mov	 esp, ebp
  00020	5d		 pop	 ebp
  00021	c3		 ret	 0
$LN2@itemGetSoc:
; File C:\Anka2Project\Anka2Project\Source\Binary\source\eterBase\Singleton.h

; 26   : 		assert(ms_singleton);

  00022	8b 0d 00 00 00
	00		 mov	 ecx, DWORD PTR ?ms_singleton@?$CSingleton@VCItemManager@@@@0PAVCItemManager@@A ; CSingleton<CItemManager>::ms_singleton
  00028	85 c9		 test	 ecx, ecx
  0002a	75 1a		 jne	 SHORT $LN7@itemGetSoc
  0002c	6a 1a		 push	 26			; 0000001aH
  0002e	68 00 00 00 00	 push	 OFFSET ??_C@_1IO@CAJLEEOI@?$AAC?$AA?3?$AA?2?$AAA?$AAn?$AAk?$AAa?$AA2?$AAP?$AAr?$AAo?$AAj?$AAe?$AAc?$AAt@
  00033	68 00 00 00 00	 push	 OFFSET ??_C@_1BK@FMEHPMFE@?$AAm?$AAs?$AA_?$AAs?$AAi?$AAn?$AAg?$AAl?$AAe?$AAt?$AAo?$AAn@
  00038	e8 00 00 00 00	 call	 __wassert
  0003d	8b 0d 00 00 00
	00		 mov	 ecx, DWORD PTR ?ms_singleton@?$CSingleton@VCItemManager@@@@0PAVCItemManager@@A ; CSingleton<CItemManager>::ms_singleton
  00043	83 c4 0c	 add	 esp, 12			; 0000000cH
$LN7@itemGetSoc:
; File C:\Anka2Project\Anka2Project\Source\Binary\source\UserInterface\PythonItemModule.cpp

; 307  : 	CItemData * pItemData = CItemManager::Instance().GetSelectedItemDataPointer();

  00046	e8 00 00 00 00	 call	 ?GetSelectedItemDataPointer@CItemManager@@QAEPAVCItemData@@XZ ; CItemManager::GetSelectedItemDataPointer

; 308  : 	if (!pItemData)

  0004b	85 c0		 test	 eax, eax
  0004d	75 11		 jne	 SHORT $LN3@itemGetSoc

; 309  : 		return Py_BuildException("Not yet select item data");

  0004f	68 00 00 00 00	 push	 OFFSET ??_C@_0BJ@FJOAFFCG@Not?5yet?5select?5item?5data@
  00054	e8 00 00 00 00	 call	 ?Py_BuildException@@YAPAU_object@@PBDZZ ; Py_BuildException
  00059	83 c4 04	 add	 esp, 4

; 312  : }

  0005c	8b e5		 mov	 esp, ebp
  0005e	5d		 pop	 ebp
  0005f	c3		 ret	 0
$LN3@itemGetSoc:

; 310  : 
; 311  : 	return Py_BuildValue("i", pItemData->GetSocket(iValueIndex));

  00060	ff 75 fc	 push	 DWORD PTR _iValueIndex$[ebp]
  00063	8b c8		 mov	 ecx, eax
  00065	e8 00 00 00 00	 call	 ?GetSocket@CItemData@@QBEJE@Z ; CItemData::GetSocket
  0006a	50		 push	 eax
  0006b	68 00 00 00 00	 push	 OFFSET ??_C@_01KBJDNOO@i@
  00070	ff 15 00 00 00
	00		 call	 DWORD PTR __imp__Py_BuildValue
  00076	83 c4 08	 add	 esp, 8

; 312  : }

  00079	8b e5		 mov	 esp, ebp
  0007b	5d		 pop	 ebp
  0007c	c3		 ret	 0
?itemGetSocket@@YAPAU_object@@PAU1@0@Z ENDP		; itemGetSocket
_TEXT	ENDS
; Function compile flags: /Ogtp
; File C:\Anka2Project\Anka2Project\Source\Binary\source\UserInterface\PythonItemModule.cpp
; File C:\Anka2Project\Anka2Project\Source\Binary\source\eterBase\Singleton.h
; File C:\Anka2Project\Anka2Project\Source\Binary\source\UserInterface\PythonItemModule.cpp
;	COMDAT ?itemGetIconInstance@@YAPAU_object@@PAU1@0@Z
_TEXT	SEGMENT
_poSelf$ = 8						; size = 4
_poArgs$ = 12						; size = 4
?itemGetIconInstance@@YAPAU_object@@PAU1@0@Z PROC	; itemGetIconInstance, COMDAT
; File C:\Anka2Project\Anka2Project\Source\Binary\source\eterBase\Singleton.h

; 26   : 		assert(ms_singleton);

  00000	8b 0d 00 00 00
	00		 mov	 ecx, DWORD PTR ?ms_singleton@?$CSingleton@VCItemManager@@@@0PAVCItemManager@@A ; CSingleton<CItemManager>::ms_singleton
  00006	85 c9		 test	 ecx, ecx
  00008	75 1a		 jne	 SHORT $LN7@itemGetIco
  0000a	6a 1a		 push	 26			; 0000001aH
  0000c	68 00 00 00 00	 push	 OFFSET ??_C@_1IO@CAJLEEOI@?$AAC?$AA?3?$AA?2?$AAA?$AAn?$AAk?$AAa?$AA2?$AAP?$AAr?$AAo?$AAj?$AAe?$AAc?$AAt@
  00011	68 00 00 00 00	 push	 OFFSET ??_C@_1BK@FMEHPMFE@?$AAm?$AAs?$AA_?$AAs?$AAi?$AAn?$AAg?$AAl?$AAe?$AAt?$AAo?$AAn@
  00016	e8 00 00 00 00	 call	 __wassert
  0001b	8b 0d 00 00 00
	00		 mov	 ecx, DWORD PTR ?ms_singleton@?$CSingleton@VCItemManager@@@@0PAVCItemManager@@A ; CSingleton<CItemManager>::ms_singleton
  00021	83 c4 0c	 add	 esp, 12			; 0000000cH
$LN7@itemGetIco:
  00024	56		 push	 esi
; File C:\Anka2Project\Anka2Project\Source\Binary\source\UserInterface\PythonItemModule.cpp

; 316  : 	CItemData * pItemData = CItemManager::Instance().GetSelectedItemDataPointer();

  00025	e8 00 00 00 00	 call	 ?GetSelectedItemDataPointer@CItemManager@@QAEPAVCItemData@@XZ ; CItemManager::GetSelectedItemDataPointer
  0002a	8b f0		 mov	 esi, eax

; 317  : 	if (!pItemData)

  0002c	85 f6		 test	 esi, esi
  0002e	75 0f		 jne	 SHORT $LN2@itemGetIco

; 318  : 		return Py_BuildException("Not yet select item data");

  00030	68 00 00 00 00	 push	 OFFSET ??_C@_0BJ@FJOAFFCG@Not?5yet?5select?5item?5data@
  00035	e8 00 00 00 00	 call	 ?Py_BuildException@@YAPAU_object@@PBDZZ ; Py_BuildException
  0003a	83 c4 04	 add	 esp, 4
  0003d	5e		 pop	 esi

; 328  : }

  0003e	c3		 ret	 0
$LN2@itemGetIco:
  0003f	57		 push	 edi

; 319  : 
; 320  : 	CGraphicSubImage * pImage = pItemData->GetIconImage();

  00040	8b ce		 mov	 ecx, esi
  00042	e8 00 00 00 00	 call	 ?GetIconImage@CItemData@@QAEPAVCGraphicSubImage@@XZ ; CItemData::GetIconImage
  00047	8b f8		 mov	 edi, eax

; 321  : 	if (!pImage)

  00049	85 ff		 test	 edi, edi
  0004b	75 18		 jne	 SHORT $LN3@itemGetIco

; 322  : 		return Py_BuildException("Cannot get icon image by %d", pItemData->GetIndex());

  0004d	8b ce		 mov	 ecx, esi
  0004f	e8 00 00 00 00	 call	 ?GetIndex@CItemData@@QBEKXZ ; CItemData::GetIndex
  00054	50		 push	 eax
  00055	68 00 00 00 00	 push	 OFFSET ??_C@_0BM@MLEHJLDK@Cannot?5get?5icon?5image?5by?5?$CFd@
  0005a	e8 00 00 00 00	 call	 ?Py_BuildException@@YAPAU_object@@PBDZZ ; Py_BuildException

; 326  : 
; 327  : 	return Py_BuildValue("i", pImageInstance);

  0005f	83 c4 08	 add	 esp, 8
  00062	5f		 pop	 edi
  00063	5e		 pop	 esi

; 328  : }

  00064	c3		 ret	 0
$LN3@itemGetIco:

; 323  : 
; 324  : 	CGraphicImageInstance * pImageInstance = CGraphicImageInstance::New();

  00065	e8 00 00 00 00	 call	 ?New@CGraphicImageInstance@@SAPAV1@XZ ; CGraphicImageInstance::New
  0006a	8b f0		 mov	 esi, eax

; 325  : 	pImageInstance->SetImagePointer(pImage);

  0006c	57		 push	 edi
  0006d	8b ce		 mov	 ecx, esi
  0006f	e8 00 00 00 00	 call	 ?SetImagePointer@CGraphicImageInstance@@QAEXPAVCGraphicImage@@@Z ; CGraphicImageInstance::SetImagePointer

; 326  : 
; 327  : 	return Py_BuildValue("i", pImageInstance);

  00074	56		 push	 esi
  00075	68 00 00 00 00	 push	 OFFSET ??_C@_01KBJDNOO@i@
  0007a	ff 15 00 00 00
	00		 call	 DWORD PTR __imp__Py_BuildValue
  00080	83 c4 08	 add	 esp, 8
  00083	5f		 pop	 edi
  00084	5e		 pop	 esi

; 328  : }

  00085	c3		 ret	 0
?itemGetIconInstance@@YAPAU_object@@PAU1@0@Z ENDP	; itemGetIconInstance
_TEXT	ENDS
; Function compile flags: /Ogtp
; File C:\Anka2Project\Anka2Project\Source\Binary\source\UserInterface\PythonItemModule.cpp
; File C:\Anka2Project\Anka2Project\Source\Binary\source\eterBase\Singleton.h
; File C:\Anka2Project\Anka2Project\Source\Binary\source\UserInterface\PythonItemModule.cpp
; File C:\Anka2Project\Anka2Project\Source\Binary\source\eterBase\Singleton.h
; File C:\Anka2Project\Anka2Project\Source\Binary\source\UserInterface\PythonItemModule.cpp
;	COMDAT ?itemIsEquipmentVID@@YAPAU_object@@PAU1@0@Z
_TEXT	SEGMENT
_iItemVID$ = -4						; size = 4
_poSelf$ = 8						; size = 4
_poArgs$ = 12						; size = 4
?itemIsEquipmentVID@@YAPAU_object@@PAU1@0@Z PROC	; itemIsEquipmentVID, COMDAT

; 342  : {

  00000	55		 push	 ebp
  00001	8b ec		 mov	 ebp, esp
  00003	51		 push	 ecx

; 343  : 	int iItemVID;
; 344  : 	if (!PyTuple_GetInteger(poArgs, 0, &iItemVID))

  00004	8d 45 fc	 lea	 eax, DWORD PTR _iItemVID$[ebp]
  00007	50		 push	 eax
  00008	6a 00		 push	 0
  0000a	ff 75 0c	 push	 DWORD PTR _poArgs$[ebp]
  0000d	e8 00 00 00 00	 call	 ?PyTuple_GetInteger@@YA_NPAU_object@@HPAH@Z ; PyTuple_GetInteger
  00012	83 c4 0c	 add	 esp, 12			; 0000000cH
  00015	84 c0		 test	 al, al
  00017	75 09		 jne	 SHORT $LN2@itemIsEqui

; 345  : 		return Py_BadArgument();

  00019	e8 00 00 00 00	 call	 ?Py_BadArgument@@YAPAU_object@@XZ ; Py_BadArgument

; 353  : }

  0001e	8b e5		 mov	 esp, ebp
  00020	5d		 pop	 ebp
  00021	c3		 ret	 0
$LN2@itemIsEqui:
; File C:\Anka2Project\Anka2Project\Source\Binary\source\eterBase\Singleton.h

; 26   : 		assert(ms_singleton);

  00022	8b 0d 00 00 00
	00		 mov	 ecx, DWORD PTR ?ms_singleton@?$CSingleton@VCItemManager@@@@0PAVCItemManager@@A ; CSingleton<CItemManager>::ms_singleton
  00028	85 c9		 test	 ecx, ecx
  0002a	75 1a		 jne	 SHORT $LN7@itemIsEqui
  0002c	6a 1a		 push	 26			; 0000001aH
  0002e	68 00 00 00 00	 push	 OFFSET ??_C@_1IO@CAJLEEOI@?$AAC?$AA?3?$AA?2?$AAA?$AAn?$AAk?$AAa?$AA2?$AAP?$AAr?$AAo?$AAj?$AAe?$AAc?$AAt@
  00033	68 00 00 00 00	 push	 OFFSET ??_C@_1BK@FMEHPMFE@?$AAm?$AAs?$AA_?$AAs?$AAi?$AAn?$AAg?$AAl?$AAe?$AAt?$AAo?$AAn@
  00038	e8 00 00 00 00	 call	 __wassert
  0003d	8b 0d 00 00 00
	00		 mov	 ecx, DWORD PTR ?ms_singleton@?$CSingleton@VCItemManager@@@@0PAVCItemManager@@A ; CSingleton<CItemManager>::ms_singleton
  00043	83 c4 0c	 add	 esp, 12			; 0000000cH
$LN7@itemIsEqui:
; File C:\Anka2Project\Anka2Project\Source\Binary\source\UserInterface\PythonItemModule.cpp

; 347  : 	CItemManager::Instance().SelectItemData(iItemVID);

  00046	ff 75 fc	 push	 DWORD PTR _iItemVID$[ebp]
  00049	e8 00 00 00 00	 call	 ?SelectItemData@CItemManager@@QAEHK@Z ; CItemManager::SelectItemData
; File C:\Anka2Project\Anka2Project\Source\Binary\source\eterBase\Singleton.h

; 26   : 		assert(ms_singleton);

  0004e	8b 0d 00 00 00
	00		 mov	 ecx, DWORD PTR ?ms_singleton@?$CSingleton@VCItemManager@@@@0PAVCItemManager@@A ; CSingleton<CItemManager>::ms_singleton
  00054	85 c9		 test	 ecx, ecx
  00056	75 1a		 jne	 SHORT $LN10@itemIsEqui
  00058	6a 1a		 push	 26			; 0000001aH
  0005a	68 00 00 00 00	 push	 OFFSET ??_C@_1IO@CAJLEEOI@?$AAC?$AA?3?$AA?2?$AAA?$AAn?$AAk?$AAa?$AA2?$AAP?$AAr?$AAo?$AAj?$AAe?$AAc?$AAt@
  0005f	68 00 00 00 00	 push	 OFFSET ??_C@_1BK@FMEHPMFE@?$AAm?$AAs?$AA_?$AAs?$AAi?$AAn?$AAg?$AAl?$AAe?$AAt?$AAo?$AAn@
  00064	e8 00 00 00 00	 call	 __wassert
  00069	8b 0d 00 00 00
	00		 mov	 ecx, DWORD PTR ?ms_singleton@?$CSingleton@VCItemManager@@@@0PAVCItemManager@@A ; CSingleton<CItemManager>::ms_singleton
  0006f	83 c4 0c	 add	 esp, 12			; 0000000cH
$LN10@itemIsEqui:
; File C:\Anka2Project\Anka2Project\Source\Binary\source\UserInterface\PythonItemModule.cpp

; 348  : 	CItemData * pItemData = CItemManager::Instance().GetSelectedItemDataPointer();

  00072	e8 00 00 00 00	 call	 ?GetSelectedItemDataPointer@CItemManager@@QAEPAVCItemData@@XZ ; CItemManager::GetSelectedItemDataPointer

; 349  : 	if (!pItemData)

  00077	85 c0		 test	 eax, eax
  00079	75 11		 jne	 SHORT $LN3@itemIsEqui

; 350  : 		return Py_BuildException("Not yet select item data");

  0007b	68 00 00 00 00	 push	 OFFSET ??_C@_0BJ@FJOAFFCG@Not?5yet?5select?5item?5data@
  00080	e8 00 00 00 00	 call	 ?Py_BuildException@@YAPAU_object@@PBDZZ ; Py_BuildException
  00085	83 c4 04	 add	 esp, 4

; 353  : }

  00088	8b e5		 mov	 esp, ebp
  0008a	5d		 pop	 ebp
  0008b	c3		 ret	 0
$LN3@itemIsEqui:

; 351  : 
; 352  : 	return Py_BuildValue("i", pItemData->IsEquipment());

  0008c	8b c8		 mov	 ecx, eax
  0008e	e8 00 00 00 00	 call	 ?IsEquipment@CItemData@@QBEHXZ ; CItemData::IsEquipment
  00093	50		 push	 eax
  00094	68 00 00 00 00	 push	 OFFSET ??_C@_01KBJDNOO@i@
  00099	ff 15 00 00 00
	00		 call	 DWORD PTR __imp__Py_BuildValue
  0009f	83 c4 08	 add	 esp, 8

; 353  : }

  000a2	8b e5		 mov	 esp, ebp
  000a4	5d		 pop	 ebp
  000a5	c3		 ret	 0
?itemIsEquipmentVID@@YAPAU_object@@PAU1@0@Z ENDP	; itemIsEquipmentVID
_TEXT	ENDS
; Function compile flags: /Ogtp
; File C:\Anka2Project\Anka2Project\Source\Binary\source\UserInterface\PythonItemModule.cpp
; File C:\Anka2Project\Anka2Project\Source\Binary\source\eterBase\Singleton.h
; File C:\Anka2Project\Anka2Project\Source\Binary\source\UserInterface\PythonItemModule.cpp
; File C:\Anka2Project\Anka2Project\Source\Binary\source\eterBase\Singleton.h
; File C:\Anka2Project\Anka2Project\Source\Binary\source\UserInterface\PythonItemModule.cpp
;	COMDAT ?itemGetUseType@@YAPAU_object@@PAU1@0@Z
_TEXT	SEGMENT
_iItemVID$ = -4						; size = 4
_poSelf$ = 8						; size = 4
_poArgs$ = 12						; size = 4
?itemGetUseType@@YAPAU_object@@PAU1@0@Z PROC		; itemGetUseType, COMDAT

; 356  : {

  00000	55		 push	 ebp
  00001	8b ec		 mov	 ebp, esp
  00003	51		 push	 ecx

; 357  : 	int iItemVID;
; 358  : 	if (!PyTuple_GetInteger(poArgs, 0, &iItemVID))

  00004	8d 45 fc	 lea	 eax, DWORD PTR _iItemVID$[ebp]
  00007	50		 push	 eax
  00008	6a 00		 push	 0
  0000a	ff 75 0c	 push	 DWORD PTR _poArgs$[ebp]
  0000d	e8 00 00 00 00	 call	 ?PyTuple_GetInteger@@YA_NPAU_object@@HPAH@Z ; PyTuple_GetInteger
  00012	83 c4 0c	 add	 esp, 12			; 0000000cH
  00015	84 c0		 test	 al, al
  00017	75 09		 jne	 SHORT $LN2@itemGetUse

; 359  : 		return Py_BadArgument();

  00019	e8 00 00 00 00	 call	 ?Py_BadArgument@@YAPAU_object@@XZ ; Py_BadArgument

; 367  : }

  0001e	8b e5		 mov	 esp, ebp
  00020	5d		 pop	 ebp
  00021	c3		 ret	 0
$LN2@itemGetUse:
; File C:\Anka2Project\Anka2Project\Source\Binary\source\eterBase\Singleton.h

; 26   : 		assert(ms_singleton);

  00022	8b 0d 00 00 00
	00		 mov	 ecx, DWORD PTR ?ms_singleton@?$CSingleton@VCItemManager@@@@0PAVCItemManager@@A ; CSingleton<CItemManager>::ms_singleton
  00028	85 c9		 test	 ecx, ecx
  0002a	75 1a		 jne	 SHORT $LN7@itemGetUse
  0002c	6a 1a		 push	 26			; 0000001aH
  0002e	68 00 00 00 00	 push	 OFFSET ??_C@_1IO@CAJLEEOI@?$AAC?$AA?3?$AA?2?$AAA?$AAn?$AAk?$AAa?$AA2?$AAP?$AAr?$AAo?$AAj?$AAe?$AAc?$AAt@
  00033	68 00 00 00 00	 push	 OFFSET ??_C@_1BK@FMEHPMFE@?$AAm?$AAs?$AA_?$AAs?$AAi?$AAn?$AAg?$AAl?$AAe?$AAt?$AAo?$AAn@
  00038	e8 00 00 00 00	 call	 __wassert
  0003d	8b 0d 00 00 00
	00		 mov	 ecx, DWORD PTR ?ms_singleton@?$CSingleton@VCItemManager@@@@0PAVCItemManager@@A ; CSingleton<CItemManager>::ms_singleton
  00043	83 c4 0c	 add	 esp, 12			; 0000000cH
$LN7@itemGetUse:
; File C:\Anka2Project\Anka2Project\Source\Binary\source\UserInterface\PythonItemModule.cpp

; 361  : 	CItemManager::Instance().SelectItemData(iItemVID);

  00046	ff 75 fc	 push	 DWORD PTR _iItemVID$[ebp]
  00049	e8 00 00 00 00	 call	 ?SelectItemData@CItemManager@@QAEHK@Z ; CItemManager::SelectItemData
; File C:\Anka2Project\Anka2Project\Source\Binary\source\eterBase\Singleton.h

; 26   : 		assert(ms_singleton);

  0004e	8b 0d 00 00 00
	00		 mov	 ecx, DWORD PTR ?ms_singleton@?$CSingleton@VCItemManager@@@@0PAVCItemManager@@A ; CSingleton<CItemManager>::ms_singleton
  00054	85 c9		 test	 ecx, ecx
  00056	75 1a		 jne	 SHORT $LN10@itemGetUse
  00058	6a 1a		 push	 26			; 0000001aH
  0005a	68 00 00 00 00	 push	 OFFSET ??_C@_1IO@CAJLEEOI@?$AAC?$AA?3?$AA?2?$AAA?$AAn?$AAk?$AAa?$AA2?$AAP?$AAr?$AAo?$AAj?$AAe?$AAc?$AAt@
  0005f	68 00 00 00 00	 push	 OFFSET ??_C@_1BK@FMEHPMFE@?$AAm?$AAs?$AA_?$AAs?$AAi?$AAn?$AAg?$AAl?$AAe?$AAt?$AAo?$AAn@
  00064	e8 00 00 00 00	 call	 __wassert
  00069	8b 0d 00 00 00
	00		 mov	 ecx, DWORD PTR ?ms_singleton@?$CSingleton@VCItemManager@@@@0PAVCItemManager@@A ; CSingleton<CItemManager>::ms_singleton
  0006f	83 c4 0c	 add	 esp, 12			; 0000000cH
$LN10@itemGetUse:
; File C:\Anka2Project\Anka2Project\Source\Binary\source\UserInterface\PythonItemModule.cpp

; 362  : 	CItemData * pItemData = CItemManager::Instance().GetSelectedItemDataPointer();

  00072	e8 00 00 00 00	 call	 ?GetSelectedItemDataPointer@CItemManager@@QAEPAVCItemData@@XZ ; CItemManager::GetSelectedItemDataPointer

; 363  : 	if (!pItemData)

  00077	85 c0		 test	 eax, eax
  00079	75 11		 jne	 SHORT $LN3@itemGetUse

; 364  : 		return Py_BuildException("Can't find select item data");

  0007b	68 00 00 00 00	 push	 OFFSET ??_C@_0BM@KPLEGEEH@Can?8t?5find?5select?5item?5data@
  00080	e8 00 00 00 00	 call	 ?Py_BuildException@@YAPAU_object@@PBDZZ ; Py_BuildException
  00085	83 c4 04	 add	 esp, 4

; 367  : }

  00088	8b e5		 mov	 esp, ebp
  0008a	5d		 pop	 ebp
  0008b	c3		 ret	 0
$LN3@itemGetUse:

; 365  : 	
; 366  : 	return Py_BuildValue("s", pItemData->GetUseTypeString());	

  0008c	8b c8		 mov	 ecx, eax
  0008e	e8 00 00 00 00	 call	 ?GetUseTypeString@CItemData@@QBEPBDXZ ; CItemData::GetUseTypeString
  00093	50		 push	 eax
  00094	68 00 00 00 00	 push	 OFFSET ??_C@_01LKDEMHDF@s@
  00099	ff 15 00 00 00
	00		 call	 DWORD PTR __imp__Py_BuildValue
  0009f	83 c4 08	 add	 esp, 8

; 367  : }

  000a2	8b e5		 mov	 esp, ebp
  000a4	5d		 pop	 ebp
  000a5	c3		 ret	 0
?itemGetUseType@@YAPAU_object@@PAU1@0@Z ENDP		; itemGetUseType
_TEXT	ENDS
; Function compile flags: /Ogtp
; File C:\Anka2Project\Anka2Project\Source\Binary\source\UserInterface\PythonItemModule.cpp
; File C:\Anka2Project\Anka2Project\Source\Binary\source\eterBase\Singleton.h
; File C:\Anka2Project\Anka2Project\Source\Binary\source\UserInterface\PythonItemModule.cpp
; File C:\Anka2Project\Anka2Project\Source\Binary\source\eterBase\Singleton.h
; File C:\Anka2Project\Anka2Project\Source\Binary\source\UserInterface\PythonItemModule.cpp
;	COMDAT ?itemIsRefineScroll@@YAPAU_object@@PAU1@0@Z
_TEXT	SEGMENT
_iItemIndex$ = -4					; size = 4
_poSelf$ = 8						; size = 4
_poArgs$ = 12						; size = 4
?itemIsRefineScroll@@YAPAU_object@@PAU1@0@Z PROC	; itemIsRefineScroll, COMDAT

; 370  : {

  00000	55		 push	 ebp
  00001	8b ec		 mov	 ebp, esp
  00003	51		 push	 ecx

; 371  : 	int iItemIndex;
; 372  : 	if (!PyTuple_GetInteger(poArgs, 0, &iItemIndex))

  00004	8d 45 fc	 lea	 eax, DWORD PTR _iItemIndex$[ebp]
  00007	50		 push	 eax
  00008	6a 00		 push	 0
  0000a	ff 75 0c	 push	 DWORD PTR _poArgs$[ebp]
  0000d	e8 00 00 00 00	 call	 ?PyTuple_GetInteger@@YA_NPAU_object@@HPAH@Z ; PyTuple_GetInteger
  00012	83 c4 0c	 add	 esp, 12			; 0000000cH
  00015	84 c0		 test	 al, al
  00017	75 09		 jne	 SHORT $LN4@itemIsRefi

; 373  : 		return Py_BadArgument();

  00019	e8 00 00 00 00	 call	 ?Py_BadArgument@@YAPAU_object@@XZ ; Py_BadArgument

; 387  : 			break;
; 388  : 	}
; 389  : 	
; 390  : 	return Py_BuildValue("i", FALSE);
; 391  : }

  0001e	8b e5		 mov	 esp, ebp
  00020	5d		 pop	 ebp
  00021	c3		 ret	 0
$LN4@itemIsRefi:
; File C:\Anka2Project\Anka2Project\Source\Binary\source\eterBase\Singleton.h

; 26   : 		assert(ms_singleton);

  00022	8b 0d 00 00 00
	00		 mov	 ecx, DWORD PTR ?ms_singleton@?$CSingleton@VCItemManager@@@@0PAVCItemManager@@A ; CSingleton<CItemManager>::ms_singleton
  00028	85 c9		 test	 ecx, ecx
  0002a	75 1a		 jne	 SHORT $LN11@itemIsRefi
  0002c	6a 1a		 push	 26			; 0000001aH
  0002e	68 00 00 00 00	 push	 OFFSET ??_C@_1IO@CAJLEEOI@?$AAC?$AA?3?$AA?2?$AAA?$AAn?$AAk?$AAa?$AA2?$AAP?$AAr?$AAo?$AAj?$AAe?$AAc?$AAt@
  00033	68 00 00 00 00	 push	 OFFSET ??_C@_1BK@FMEHPMFE@?$AAm?$AAs?$AA_?$AAs?$AAi?$AAn?$AAg?$AAl?$AAe?$AAt?$AAo?$AAn@
  00038	e8 00 00 00 00	 call	 __wassert
  0003d	8b 0d 00 00 00
	00		 mov	 ecx, DWORD PTR ?ms_singleton@?$CSingleton@VCItemManager@@@@0PAVCItemManager@@A ; CSingleton<CItemManager>::ms_singleton
  00043	83 c4 0c	 add	 esp, 12			; 0000000cH
$LN11@itemIsRefi:
; File C:\Anka2Project\Anka2Project\Source\Binary\source\UserInterface\PythonItemModule.cpp

; 375  : 	CItemManager::Instance().SelectItemData(iItemIndex);

  00046	ff 75 fc	 push	 DWORD PTR _iItemIndex$[ebp]
  00049	e8 00 00 00 00	 call	 ?SelectItemData@CItemManager@@QAEHK@Z ; CItemManager::SelectItemData
; File C:\Anka2Project\Anka2Project\Source\Binary\source\eterBase\Singleton.h

; 26   : 		assert(ms_singleton);

  0004e	8b 0d 00 00 00
	00		 mov	 ecx, DWORD PTR ?ms_singleton@?$CSingleton@VCItemManager@@@@0PAVCItemManager@@A ; CSingleton<CItemManager>::ms_singleton
  00054	85 c9		 test	 ecx, ecx
  00056	75 1a		 jne	 SHORT $LN14@itemIsRefi
  00058	6a 1a		 push	 26			; 0000001aH
  0005a	68 00 00 00 00	 push	 OFFSET ??_C@_1IO@CAJLEEOI@?$AAC?$AA?3?$AA?2?$AAA?$AAn?$AAk?$AAa?$AA2?$AAP?$AAr?$AAo?$AAj?$AAe?$AAc?$AAt@
  0005f	68 00 00 00 00	 push	 OFFSET ??_C@_1BK@FMEHPMFE@?$AAm?$AAs?$AA_?$AAs?$AAi?$AAn?$AAg?$AAl?$AAe?$AAt?$AAo?$AAn@
  00064	e8 00 00 00 00	 call	 __wassert
  00069	8b 0d 00 00 00
	00		 mov	 ecx, DWORD PTR ?ms_singleton@?$CSingleton@VCItemManager@@@@0PAVCItemManager@@A ; CSingleton<CItemManager>::ms_singleton
  0006f	83 c4 0c	 add	 esp, 12			; 0000000cH
$LN14@itemIsRefi:
  00072	56		 push	 esi
; File C:\Anka2Project\Anka2Project\Source\Binary\source\UserInterface\PythonItemModule.cpp

; 376  : 	CItemData * pItemData = CItemManager::Instance().GetSelectedItemDataPointer();

  00073	e8 00 00 00 00	 call	 ?GetSelectedItemDataPointer@CItemManager@@QAEPAVCItemData@@XZ ; CItemManager::GetSelectedItemDataPointer
  00078	8b f0		 mov	 esi, eax

; 377  : 	if (!pItemData)

  0007a	85 f6		 test	 esi, esi
  0007c	75 12		 jne	 SHORT $LN5@itemIsRefi

; 378  : 		return Py_BuildException("Can't find select item data");

  0007e	68 00 00 00 00	 push	 OFFSET ??_C@_0BM@KPLEGEEH@Can?8t?5find?5select?5item?5data@
  00083	e8 00 00 00 00	 call	 ?Py_BuildException@@YAPAU_object@@PBDZZ ; Py_BuildException
  00088	83 c4 04	 add	 esp, 4
  0008b	5e		 pop	 esi

; 387  : 			break;
; 388  : 	}
; 389  : 	
; 390  : 	return Py_BuildValue("i", FALSE);
; 391  : }

  0008c	8b e5		 mov	 esp, ebp
  0008e	5d		 pop	 ebp
  0008f	c3		 ret	 0
$LN5@itemIsRefi:

; 379  : 
; 380  : 	if (pItemData->GetType() != CItemData::ITEM_TYPE_USE)

  00090	8b ce		 mov	 ecx, esi
  00092	e8 00 00 00 00	 call	 ?GetType@CItemData@@QBEEXZ ; CItemData::GetType
  00097	3c 03		 cmp	 al, 3
  00099	74 15		 je	 SHORT $LN6@itemIsRefi
$LN23@itemIsRefi:

; 384  : 	{
; 385  : 		case CItemData::USE_TUNING:
; 386  : 			return Py_BuildValue("i", TRUE);

  0009b	6a 00		 push	 0
  0009d	68 00 00 00 00	 push	 OFFSET ??_C@_01KBJDNOO@i@
  000a2	ff 15 00 00 00
	00		 call	 DWORD PTR __imp__Py_BuildValue
  000a8	83 c4 08	 add	 esp, 8
  000ab	5e		 pop	 esi

; 387  : 			break;
; 388  : 	}
; 389  : 	
; 390  : 	return Py_BuildValue("i", FALSE);
; 391  : }

  000ac	8b e5		 mov	 esp, ebp
  000ae	5d		 pop	 ebp
  000af	c3		 ret	 0
$LN6@itemIsRefi:

; 381  : 		return Py_BuildValue("i", FALSE);
; 382  : 	
; 383  : 	switch (pItemData->GetSubType())

  000b0	8b ce		 mov	 ecx, esi
  000b2	e8 00 00 00 00	 call	 ?GetSubType@CItemData@@QBEEXZ ; CItemData::GetSubType
  000b7	0f b6 c0	 movzx	 eax, al
  000ba	83 e8 02	 sub	 eax, 2
  000bd	75 dc		 jne	 SHORT $LN23@itemIsRefi

; 384  : 	{
; 385  : 		case CItemData::USE_TUNING:
; 386  : 			return Py_BuildValue("i", TRUE);

  000bf	6a 01		 push	 1
  000c1	68 00 00 00 00	 push	 OFFSET ??_C@_01KBJDNOO@i@
  000c6	ff 15 00 00 00
	00		 call	 DWORD PTR __imp__Py_BuildValue
  000cc	83 c4 08	 add	 esp, 8
  000cf	5e		 pop	 esi

; 387  : 			break;
; 388  : 	}
; 389  : 	
; 390  : 	return Py_BuildValue("i", FALSE);
; 391  : }

  000d0	8b e5		 mov	 esp, ebp
  000d2	5d		 pop	 ebp
  000d3	c3		 ret	 0
?itemIsRefineScroll@@YAPAU_object@@PAU1@0@Z ENDP	; itemIsRefineScroll
_TEXT	ENDS
; Function compile flags: /Ogtp
; File C:\Anka2Project\Anka2Project\Source\Binary\source\UserInterface\PythonItemModule.cpp
; File C:\Anka2Project\Anka2Project\Source\Binary\source\eterBase\Singleton.h
; File C:\Anka2Project\Anka2Project\Source\Binary\source\UserInterface\PythonItemModule.cpp
; File C:\Anka2Project\Anka2Project\Source\Binary\source\eterBase\Singleton.h
; File C:\Anka2Project\Anka2Project\Source\Binary\source\UserInterface\PythonItemModule.cpp
;	COMDAT ?itemIsDetachScroll@@YAPAU_object@@PAU1@0@Z
_TEXT	SEGMENT
_iItemIndex$ = -4					; size = 4
_poSelf$ = 8						; size = 4
_poArgs$ = 12						; size = 4
?itemIsDetachScroll@@YAPAU_object@@PAU1@0@Z PROC	; itemIsDetachScroll, COMDAT

; 394  : {

  00000	55		 push	 ebp
  00001	8b ec		 mov	 ebp, esp
  00003	51		 push	 ecx

; 395  : 	int iItemIndex;
; 396  : 	if (!PyTuple_GetInteger(poArgs, 0, &iItemIndex))

  00004	8d 45 fc	 lea	 eax, DWORD PTR _iItemIndex$[ebp]
  00007	50		 push	 eax
  00008	6a 00		 push	 0
  0000a	ff 75 0c	 push	 DWORD PTR _poArgs$[ebp]
  0000d	e8 00 00 00 00	 call	 ?PyTuple_GetInteger@@YA_NPAU_object@@HPAH@Z ; PyTuple_GetInteger
  00012	83 c4 0c	 add	 esp, 12			; 0000000cH
  00015	84 c0		 test	 al, al
  00017	75 09		 jne	 SHORT $LN2@itemIsDeta

; 397  : 		return Py_BadArgument();

  00019	e8 00 00 00 00	 call	 ?Py_BadArgument@@YAPAU_object@@XZ ; Py_BadArgument

; 413  : }

  0001e	8b e5		 mov	 esp, ebp
  00020	5d		 pop	 ebp
  00021	c3		 ret	 0
$LN2@itemIsDeta:
; File C:\Anka2Project\Anka2Project\Source\Binary\source\eterBase\Singleton.h

; 26   : 		assert(ms_singleton);

  00022	8b 0d 00 00 00
	00		 mov	 ecx, DWORD PTR ?ms_singleton@?$CSingleton@VCItemManager@@@@0PAVCItemManager@@A ; CSingleton<CItemManager>::ms_singleton
  00028	85 c9		 test	 ecx, ecx
  0002a	75 1a		 jne	 SHORT $LN9@itemIsDeta
  0002c	6a 1a		 push	 26			; 0000001aH
  0002e	68 00 00 00 00	 push	 OFFSET ??_C@_1IO@CAJLEEOI@?$AAC?$AA?3?$AA?2?$AAA?$AAn?$AAk?$AAa?$AA2?$AAP?$AAr?$AAo?$AAj?$AAe?$AAc?$AAt@
  00033	68 00 00 00 00	 push	 OFFSET ??_C@_1BK@FMEHPMFE@?$AAm?$AAs?$AA_?$AAs?$AAi?$AAn?$AAg?$AAl?$AAe?$AAt?$AAo?$AAn@
  00038	e8 00 00 00 00	 call	 __wassert
  0003d	8b 0d 00 00 00
	00		 mov	 ecx, DWORD PTR ?ms_singleton@?$CSingleton@VCItemManager@@@@0PAVCItemManager@@A ; CSingleton<CItemManager>::ms_singleton
  00043	83 c4 0c	 add	 esp, 12			; 0000000cH
$LN9@itemIsDeta:
; File C:\Anka2Project\Anka2Project\Source\Binary\source\UserInterface\PythonItemModule.cpp

; 399  : 	CItemManager::Instance().SelectItemData(iItemIndex);

  00046	ff 75 fc	 push	 DWORD PTR _iItemIndex$[ebp]
  00049	e8 00 00 00 00	 call	 ?SelectItemData@CItemManager@@QAEHK@Z ; CItemManager::SelectItemData
; File C:\Anka2Project\Anka2Project\Source\Binary\source\eterBase\Singleton.h

; 26   : 		assert(ms_singleton);

  0004e	8b 0d 00 00 00
	00		 mov	 ecx, DWORD PTR ?ms_singleton@?$CSingleton@VCItemManager@@@@0PAVCItemManager@@A ; CSingleton<CItemManager>::ms_singleton
  00054	85 c9		 test	 ecx, ecx
  00056	75 1a		 jne	 SHORT $LN12@itemIsDeta
  00058	6a 1a		 push	 26			; 0000001aH
  0005a	68 00 00 00 00	 push	 OFFSET ??_C@_1IO@CAJLEEOI@?$AAC?$AA?3?$AA?2?$AAA?$AAn?$AAk?$AAa?$AA2?$AAP?$AAr?$AAo?$AAj?$AAe?$AAc?$AAt@
  0005f	68 00 00 00 00	 push	 OFFSET ??_C@_1BK@FMEHPMFE@?$AAm?$AAs?$AA_?$AAs?$AAi?$AAn?$AAg?$AAl?$AAe?$AAt?$AAo?$AAn@
  00064	e8 00 00 00 00	 call	 __wassert
  00069	8b 0d 00 00 00
	00		 mov	 ecx, DWORD PTR ?ms_singleton@?$CSingleton@VCItemManager@@@@0PAVCItemManager@@A ; CSingleton<CItemManager>::ms_singleton
  0006f	83 c4 0c	 add	 esp, 12			; 0000000cH
$LN12@itemIsDeta:
  00072	56		 push	 esi
; File C:\Anka2Project\Anka2Project\Source\Binary\source\UserInterface\PythonItemModule.cpp

; 400  : 	CItemData * pItemData = CItemManager::Instance().GetSelectedItemDataPointer();

  00073	e8 00 00 00 00	 call	 ?GetSelectedItemDataPointer@CItemManager@@QAEPAVCItemData@@XZ ; CItemManager::GetSelectedItemDataPointer
  00078	8b f0		 mov	 esi, eax

; 401  : 	if (!pItemData)

  0007a	85 f6		 test	 esi, esi
  0007c	75 12		 jne	 SHORT $LN3@itemIsDeta

; 402  : 		return Py_BuildException("Can't find select item data");

  0007e	68 00 00 00 00	 push	 OFFSET ??_C@_0BM@KPLEGEEH@Can?8t?5find?5select?5item?5data@
  00083	e8 00 00 00 00	 call	 ?Py_BuildException@@YAPAU_object@@PBDZZ ; Py_BuildException
  00088	83 c4 04	 add	 esp, 4
  0008b	5e		 pop	 esi

; 413  : }

  0008c	8b e5		 mov	 esp, ebp
  0008e	5d		 pop	 ebp
  0008f	c3		 ret	 0
$LN3@itemIsDeta:
  00090	53		 push	 ebx

; 403  : 
; 404  : 	int iType = pItemData->GetType();

  00091	8b ce		 mov	 ecx, esi
  00093	e8 00 00 00 00	 call	 ?GetType@CItemData@@QBEEXZ ; CItemData::GetType

; 405  : 	int iSubType = pItemData->GetSubType();

  00098	8b ce		 mov	 ecx, esi
  0009a	8a d8		 mov	 bl, al
  0009c	e8 00 00 00 00	 call	 ?GetSubType@CItemData@@QBEEXZ ; CItemData::GetSubType

; 406  : 	if (iType == CItemData::ITEM_TYPE_USE)

  000a1	80 fb 03	 cmp	 bl, 3
  000a4	5b		 pop	 ebx
  000a5	75 19		 jne	 SHORT $LN5@itemIsDeta

; 407  : 	if (iSubType == CItemData::USE_DETACHMENT)

  000a7	3c 0e		 cmp	 al, 14			; 0000000eH
  000a9	75 15		 jne	 SHORT $LN5@itemIsDeta

; 408  : 	{
; 409  : 		return Py_BuildValue("i", TRUE);

  000ab	6a 01		 push	 1

; 410  : 	}
; 411  : 
; 412  : 	return Py_BuildValue("i", FALSE);

  000ad	68 00 00 00 00	 push	 OFFSET ??_C@_01KBJDNOO@i@
  000b2	ff 15 00 00 00
	00		 call	 DWORD PTR __imp__Py_BuildValue
  000b8	83 c4 08	 add	 esp, 8
  000bb	5e		 pop	 esi

; 413  : }

  000bc	8b e5		 mov	 esp, ebp
  000be	5d		 pop	 ebp
  000bf	c3		 ret	 0
$LN5@itemIsDeta:

; 410  : 	}
; 411  : 
; 412  : 	return Py_BuildValue("i", FALSE);

  000c0	6a 00		 push	 0
  000c2	68 00 00 00 00	 push	 OFFSET ??_C@_01KBJDNOO@i@
  000c7	ff 15 00 00 00
	00		 call	 DWORD PTR __imp__Py_BuildValue
  000cd	83 c4 08	 add	 esp, 8
  000d0	5e		 pop	 esi

; 413  : }

  000d1	8b e5		 mov	 esp, ebp
  000d3	5d		 pop	 ebp
  000d4	c3		 ret	 0
?itemIsDetachScroll@@YAPAU_object@@PAU1@0@Z ENDP	; itemIsDetachScroll
_TEXT	ENDS
; Function compile flags: /Ogtp
; File C:\Anka2Project\Anka2Project\Source\Binary\source\UserInterface\PythonItemModule.cpp
; File C:\Anka2Project\Anka2Project\Source\Binary\source\eterBase\Singleton.h
; File C:\Anka2Project\Anka2Project\Source\Binary\source\UserInterface\PythonItemModule.cpp
; File C:\Anka2Project\Anka2Project\Source\Binary\source\eterBase\Singleton.h
; File C:\Anka2Project\Anka2Project\Source\Binary\source\UserInterface\PythonItemModule.cpp
;	COMDAT ?itemCanAddToQuickSlotItem@@YAPAU_object@@PAU1@0@Z
_TEXT	SEGMENT
_iItemIndex$ = -4					; size = 4
_poSelf$ = 8						; size = 4
_poArgs$ = 12						; size = 4
?itemCanAddToQuickSlotItem@@YAPAU_object@@PAU1@0@Z PROC	; itemCanAddToQuickSlotItem, COMDAT

; 416  : {

  00000	55		 push	 ebp
  00001	8b ec		 mov	 ebp, esp
  00003	51		 push	 ecx

; 417  : 	int iItemIndex;
; 418  : 	if (!PyTuple_GetInteger(poArgs, 0, &iItemIndex))

  00004	8d 45 fc	 lea	 eax, DWORD PTR _iItemIndex$[ebp]
  00007	50		 push	 eax
  00008	6a 00		 push	 0
  0000a	ff 75 0c	 push	 DWORD PTR _poArgs$[ebp]
  0000d	e8 00 00 00 00	 call	 ?PyTuple_GetInteger@@YA_NPAU_object@@HPAH@Z ; PyTuple_GetInteger
  00012	83 c4 0c	 add	 esp, 12			; 0000000cH
  00015	84 c0		 test	 al, al
  00017	75 09		 jne	 SHORT $LN2@itemCanAdd

; 419  : 		return Py_BadArgument();

  00019	e8 00 00 00 00	 call	 ?Py_BadArgument@@YAPAU_object@@XZ ; Py_BadArgument

; 439  : }

  0001e	8b e5		 mov	 esp, ebp
  00020	5d		 pop	 ebp
  00021	c3		 ret	 0
$LN2@itemCanAdd:
; File C:\Anka2Project\Anka2Project\Source\Binary\source\eterBase\Singleton.h

; 26   : 		assert(ms_singleton);

  00022	8b 0d 00 00 00
	00		 mov	 ecx, DWORD PTR ?ms_singleton@?$CSingleton@VCItemManager@@@@0PAVCItemManager@@A ; CSingleton<CItemManager>::ms_singleton
  00028	85 c9		 test	 ecx, ecx
  0002a	75 1a		 jne	 SHORT $LN10@itemCanAdd
  0002c	6a 1a		 push	 26			; 0000001aH
  0002e	68 00 00 00 00	 push	 OFFSET ??_C@_1IO@CAJLEEOI@?$AAC?$AA?3?$AA?2?$AAA?$AAn?$AAk?$AAa?$AA2?$AAP?$AAr?$AAo?$AAj?$AAe?$AAc?$AAt@
  00033	68 00 00 00 00	 push	 OFFSET ??_C@_1BK@FMEHPMFE@?$AAm?$AAs?$AA_?$AAs?$AAi?$AAn?$AAg?$AAl?$AAe?$AAt?$AAo?$AAn@
  00038	e8 00 00 00 00	 call	 __wassert
  0003d	8b 0d 00 00 00
	00		 mov	 ecx, DWORD PTR ?ms_singleton@?$CSingleton@VCItemManager@@@@0PAVCItemManager@@A ; CSingleton<CItemManager>::ms_singleton
  00043	83 c4 0c	 add	 esp, 12			; 0000000cH
$LN10@itemCanAdd:
; File C:\Anka2Project\Anka2Project\Source\Binary\source\UserInterface\PythonItemModule.cpp

; 421  : 	CItemManager::Instance().SelectItemData(iItemIndex);

  00046	ff 75 fc	 push	 DWORD PTR _iItemIndex$[ebp]
  00049	e8 00 00 00 00	 call	 ?SelectItemData@CItemManager@@QAEHK@Z ; CItemManager::SelectItemData
; File C:\Anka2Project\Anka2Project\Source\Binary\source\eterBase\Singleton.h

; 26   : 		assert(ms_singleton);

  0004e	8b 0d 00 00 00
	00		 mov	 ecx, DWORD PTR ?ms_singleton@?$CSingleton@VCItemManager@@@@0PAVCItemManager@@A ; CSingleton<CItemManager>::ms_singleton
  00054	85 c9		 test	 ecx, ecx
  00056	75 1a		 jne	 SHORT $LN13@itemCanAdd
  00058	6a 1a		 push	 26			; 0000001aH
  0005a	68 00 00 00 00	 push	 OFFSET ??_C@_1IO@CAJLEEOI@?$AAC?$AA?3?$AA?2?$AAA?$AAn?$AAk?$AAa?$AA2?$AAP?$AAr?$AAo?$AAj?$AAe?$AAc?$AAt@
  0005f	68 00 00 00 00	 push	 OFFSET ??_C@_1BK@FMEHPMFE@?$AAm?$AAs?$AA_?$AAs?$AAi?$AAn?$AAg?$AAl?$AAe?$AAt?$AAo?$AAn@
  00064	e8 00 00 00 00	 call	 __wassert
  00069	8b 0d 00 00 00
	00		 mov	 ecx, DWORD PTR ?ms_singleton@?$CSingleton@VCItemManager@@@@0PAVCItemManager@@A ; CSingleton<CItemManager>::ms_singleton
  0006f	83 c4 0c	 add	 esp, 12			; 0000000cH
$LN13@itemCanAdd:
  00072	56		 push	 esi
; File C:\Anka2Project\Anka2Project\Source\Binary\source\UserInterface\PythonItemModule.cpp

; 422  : 	CItemData * pItemData = CItemManager::Instance().GetSelectedItemDataPointer();

  00073	e8 00 00 00 00	 call	 ?GetSelectedItemDataPointer@CItemManager@@QAEPAVCItemData@@XZ ; CItemManager::GetSelectedItemDataPointer
  00078	8b f0		 mov	 esi, eax

; 423  : 	if (!pItemData)

  0007a	85 f6		 test	 esi, esi
  0007c	75 12		 jne	 SHORT $LN3@itemCanAdd

; 424  : 		return Py_BuildException("Can't find select item data");

  0007e	68 00 00 00 00	 push	 OFFSET ??_C@_0BM@KPLEGEEH@Can?8t?5find?5select?5item?5data@
  00083	e8 00 00 00 00	 call	 ?Py_BuildException@@YAPAU_object@@PBDZZ ; Py_BuildException
  00088	83 c4 04	 add	 esp, 4
  0008b	5e		 pop	 esi

; 439  : }

  0008c	8b e5		 mov	 esp, ebp
  0008e	5d		 pop	 ebp
  0008f	c3		 ret	 0
$LN3@itemCanAdd:

; 425  : 
; 426  : 	if (CItemData::ITEM_TYPE_USE == pItemData->GetType() || CItemData::ITEM_TYPE_QUEST == pItemData->GetType())

  00090	8b ce		 mov	 ecx, esi
  00092	e8 00 00 00 00	 call	 ?GetType@CItemData@@QBEEXZ ; CItemData::GetType
  00097	3c 03		 cmp	 al, 3
  00099	74 36		 je	 SHORT $LN5@itemCanAdd
  0009b	8b ce		 mov	 ecx, esi
  0009d	e8 00 00 00 00	 call	 ?GetType@CItemData@@QBEEXZ ; CItemData::GetType
  000a2	3c 12		 cmp	 al, 18			; 00000012H
  000a4	74 2b		 je	 SHORT $LN5@itemCanAdd

; 429  : 	}
; 430  : 
; 431  : #ifdef ENABLE_GROWTH_PET_SYSTEM
; 432  : 	if (CItemData::ITEM_TYPE_GROWTH_PET == pItemData->GetType() && CItemData::PET_UPBRINGING == pItemData->GetSubType())

  000a6	8b ce		 mov	 ecx, esi
  000a8	e8 00 00 00 00	 call	 ?GetType@CItemData@@QBEEXZ ; CItemData::GetType
  000ad	3c 24		 cmp	 al, 36			; 00000024H
  000af	75 0b		 jne	 SHORT $LN6@itemCanAdd
  000b1	8b ce		 mov	 ecx, esi
  000b3	e8 00 00 00 00	 call	 ?GetSubType@CItemData@@QBEEXZ ; CItemData::GetSubType
  000b8	3c 01		 cmp	 al, 1
  000ba	74 15		 je	 SHORT $LN5@itemCanAdd
$LN6@itemCanAdd:

; 433  : 	{
; 434  : 		return Py_BuildValue("i", TRUE);
; 435  : 	}
; 436  : #endif
; 437  : 
; 438  : 	return Py_BuildValue("i", FALSE);

  000bc	6a 00		 push	 0
  000be	68 00 00 00 00	 push	 OFFSET ??_C@_01KBJDNOO@i@
  000c3	ff 15 00 00 00
	00		 call	 DWORD PTR __imp__Py_BuildValue
  000c9	83 c4 08	 add	 esp, 8
  000cc	5e		 pop	 esi

; 439  : }

  000cd	8b e5		 mov	 esp, ebp
  000cf	5d		 pop	 ebp
  000d0	c3		 ret	 0
$LN5@itemCanAdd:

; 427  : 	{
; 428  : 		return Py_BuildValue("i", TRUE);

  000d1	6a 01		 push	 1
  000d3	68 00 00 00 00	 push	 OFFSET ??_C@_01KBJDNOO@i@
  000d8	ff 15 00 00 00
	00		 call	 DWORD PTR __imp__Py_BuildValue
  000de	83 c4 08	 add	 esp, 8
  000e1	5e		 pop	 esi

; 439  : }

  000e2	8b e5		 mov	 esp, ebp
  000e4	5d		 pop	 ebp
  000e5	c3		 ret	 0
?itemCanAddToQuickSlotItem@@YAPAU_object@@PAU1@0@Z ENDP	; itemCanAddToQuickSlotItem
_TEXT	ENDS
; Function compile flags: /Ogtp
; File C:\Anka2Project\Anka2Project\Source\Binary\source\UserInterface\PythonItemModule.cpp
; File C:\Anka2Project\Anka2Project\Source\Binary\source\eterBase\Singleton.h
; File C:\Anka2Project\Anka2Project\Source\Binary\source\UserInterface\PythonItemModule.cpp
; File C:\Anka2Project\Anka2Project\Source\Binary\source\eterBase\Singleton.h
; File C:\Anka2Project\Anka2Project\Source\Binary\source\UserInterface\PythonItemModule.cpp
;	COMDAT ?itemIsKey@@YAPAU_object@@PAU1@0@Z
_TEXT	SEGMENT
_iItemIndex$ = -4					; size = 4
_poSelf$ = 8						; size = 4
_poArgs$ = 12						; size = 4
?itemIsKey@@YAPAU_object@@PAU1@0@Z PROC			; itemIsKey, COMDAT

; 442  : {

  00000	55		 push	 ebp
  00001	8b ec		 mov	 ebp, esp
  00003	51		 push	 ecx

; 443  : 	int iItemIndex;
; 444  : 	if (!PyTuple_GetInteger(poArgs, 0, &iItemIndex))

  00004	8d 45 fc	 lea	 eax, DWORD PTR _iItemIndex$[ebp]
  00007	50		 push	 eax
  00008	6a 00		 push	 0
  0000a	ff 75 0c	 push	 DWORD PTR _poArgs$[ebp]
  0000d	e8 00 00 00 00	 call	 ?PyTuple_GetInteger@@YA_NPAU_object@@HPAH@Z ; PyTuple_GetInteger
  00012	83 c4 0c	 add	 esp, 12			; 0000000cH
  00015	84 c0		 test	 al, al
  00017	75 09		 jne	 SHORT $LN2@itemIsKey

; 445  : 		return Py_BadArgument();

  00019	e8 00 00 00 00	 call	 ?Py_BadArgument@@YAPAU_object@@XZ ; Py_BadArgument

; 458  : }

  0001e	8b e5		 mov	 esp, ebp
  00020	5d		 pop	 ebp
  00021	c3		 ret	 0
$LN2@itemIsKey:
; File C:\Anka2Project\Anka2Project\Source\Binary\source\eterBase\Singleton.h

; 26   : 		assert(ms_singleton);

  00022	8b 0d 00 00 00
	00		 mov	 ecx, DWORD PTR ?ms_singleton@?$CSingleton@VCItemManager@@@@0PAVCItemManager@@A ; CSingleton<CItemManager>::ms_singleton
  00028	85 c9		 test	 ecx, ecx
  0002a	75 1a		 jne	 SHORT $LN8@itemIsKey
  0002c	6a 1a		 push	 26			; 0000001aH
  0002e	68 00 00 00 00	 push	 OFFSET ??_C@_1IO@CAJLEEOI@?$AAC?$AA?3?$AA?2?$AAA?$AAn?$AAk?$AAa?$AA2?$AAP?$AAr?$AAo?$AAj?$AAe?$AAc?$AAt@
  00033	68 00 00 00 00	 push	 OFFSET ??_C@_1BK@FMEHPMFE@?$AAm?$AAs?$AA_?$AAs?$AAi?$AAn?$AAg?$AAl?$AAe?$AAt?$AAo?$AAn@
  00038	e8 00 00 00 00	 call	 __wassert
  0003d	8b 0d 00 00 00
	00		 mov	 ecx, DWORD PTR ?ms_singleton@?$CSingleton@VCItemManager@@@@0PAVCItemManager@@A ; CSingleton<CItemManager>::ms_singleton
  00043	83 c4 0c	 add	 esp, 12			; 0000000cH
$LN8@itemIsKey:
; File C:\Anka2Project\Anka2Project\Source\Binary\source\UserInterface\PythonItemModule.cpp

; 447  : 	CItemManager::Instance().SelectItemData(iItemIndex);

  00046	ff 75 fc	 push	 DWORD PTR _iItemIndex$[ebp]
  00049	e8 00 00 00 00	 call	 ?SelectItemData@CItemManager@@QAEHK@Z ; CItemManager::SelectItemData
; File C:\Anka2Project\Anka2Project\Source\Binary\source\eterBase\Singleton.h

; 26   : 		assert(ms_singleton);

  0004e	8b 0d 00 00 00
	00		 mov	 ecx, DWORD PTR ?ms_singleton@?$CSingleton@VCItemManager@@@@0PAVCItemManager@@A ; CSingleton<CItemManager>::ms_singleton
  00054	85 c9		 test	 ecx, ecx
  00056	75 1a		 jne	 SHORT $LN11@itemIsKey
  00058	6a 1a		 push	 26			; 0000001aH
  0005a	68 00 00 00 00	 push	 OFFSET ??_C@_1IO@CAJLEEOI@?$AAC?$AA?3?$AA?2?$AAA?$AAn?$AAk?$AAa?$AA2?$AAP?$AAr?$AAo?$AAj?$AAe?$AAc?$AAt@
  0005f	68 00 00 00 00	 push	 OFFSET ??_C@_1BK@FMEHPMFE@?$AAm?$AAs?$AA_?$AAs?$AAi?$AAn?$AAg?$AAl?$AAe?$AAt?$AAo?$AAn@
  00064	e8 00 00 00 00	 call	 __wassert
  00069	8b 0d 00 00 00
	00		 mov	 ecx, DWORD PTR ?ms_singleton@?$CSingleton@VCItemManager@@@@0PAVCItemManager@@A ; CSingleton<CItemManager>::ms_singleton
  0006f	83 c4 0c	 add	 esp, 12			; 0000000cH
$LN11@itemIsKey:
; File C:\Anka2Project\Anka2Project\Source\Binary\source\UserInterface\PythonItemModule.cpp

; 448  : 	CItemData * pItemData = CItemManager::Instance().GetSelectedItemDataPointer();

  00072	e8 00 00 00 00	 call	 ?GetSelectedItemDataPointer@CItemManager@@QAEPAVCItemData@@XZ ; CItemManager::GetSelectedItemDataPointer

; 449  : 	if (!pItemData)

  00077	85 c0		 test	 eax, eax
  00079	75 11		 jne	 SHORT $LN3@itemIsKey

; 450  : 		return Py_BuildException("Can't find select item data");

  0007b	68 00 00 00 00	 push	 OFFSET ??_C@_0BM@KPLEGEEH@Can?8t?5find?5select?5item?5data@
  00080	e8 00 00 00 00	 call	 ?Py_BuildException@@YAPAU_object@@PBDZZ ; Py_BuildException
  00085	83 c4 04	 add	 esp, 4

; 458  : }

  00088	8b e5		 mov	 esp, ebp
  0008a	5d		 pop	 ebp
  0008b	c3		 ret	 0
$LN3@itemIsKey:

; 451  : 
; 452  : 	if (CItemData::ITEM_TYPE_TREASURE_KEY == pItemData->GetType())

  0008c	8b c8		 mov	 ecx, eax
  0008e	e8 00 00 00 00	 call	 ?GetType@CItemData@@QBEEXZ ; CItemData::GetType
  00093	3c 15		 cmp	 al, 21			; 00000015H
  00095	75 14		 jne	 SHORT $LN4@itemIsKey

; 453  : 	{
; 454  : 		return Py_BuildValue("i", TRUE);

  00097	6a 01		 push	 1

; 458  : }

  00099	68 00 00 00 00	 push	 OFFSET ??_C@_01KBJDNOO@i@
  0009e	ff 15 00 00 00
	00		 call	 DWORD PTR __imp__Py_BuildValue
  000a4	83 c4 08	 add	 esp, 8
  000a7	8b e5		 mov	 esp, ebp
  000a9	5d		 pop	 ebp
  000aa	c3		 ret	 0
$LN4@itemIsKey:

; 455  : 	}
; 456  : 
; 457  : 	return Py_BuildValue("i", FALSE);

  000ab	6a 00		 push	 0

; 458  : }

  000ad	68 00 00 00 00	 push	 OFFSET ??_C@_01KBJDNOO@i@
  000b2	ff 15 00 00 00
	00		 call	 DWORD PTR __imp__Py_BuildValue
  000b8	83 c4 08	 add	 esp, 8
  000bb	8b e5		 mov	 esp, ebp
  000bd	5d		 pop	 ebp
  000be	c3		 ret	 0
?itemIsKey@@YAPAU_object@@PAU1@0@Z ENDP			; itemIsKey
_TEXT	ENDS
; Function compile flags: /Ogtp
; File C:\Anka2Project\Anka2Project\Source\Binary\source\UserInterface\PythonItemModule.cpp
; File C:\Anka2Project\Anka2Project\Source\Binary\source\eterBase\Singleton.h
; File C:\Anka2Project\Anka2Project\Source\Binary\source\UserInterface\PythonItemModule.cpp
; File C:\Anka2Project\Anka2Project\Source\Binary\source\eterBase\Singleton.h
; File C:\Anka2Project\Anka2Project\Source\Binary\source\UserInterface\PythonItemModule.cpp
;	COMDAT ?itemIsMetin@@YAPAU_object@@PAU1@0@Z
_TEXT	SEGMENT
_iItemIndex$ = -4					; size = 4
_poSelf$ = 8						; size = 4
_poArgs$ = 12						; size = 4
?itemIsMetin@@YAPAU_object@@PAU1@0@Z PROC		; itemIsMetin, COMDAT

; 461  : {

  00000	55		 push	 ebp
  00001	8b ec		 mov	 ebp, esp
  00003	51		 push	 ecx

; 462  : 	int iItemIndex;
; 463  : 	if (!PyTuple_GetInteger(poArgs, 0, &iItemIndex))

  00004	8d 45 fc	 lea	 eax, DWORD PTR _iItemIndex$[ebp]
  00007	50		 push	 eax
  00008	6a 00		 push	 0
  0000a	ff 75 0c	 push	 DWORD PTR _poArgs$[ebp]
  0000d	e8 00 00 00 00	 call	 ?PyTuple_GetInteger@@YA_NPAU_object@@HPAH@Z ; PyTuple_GetInteger
  00012	83 c4 0c	 add	 esp, 12			; 0000000cH
  00015	84 c0		 test	 al, al
  00017	75 09		 jne	 SHORT $LN2@itemIsMeti

; 464  : 		return Py_BadArgument();

  00019	e8 00 00 00 00	 call	 ?Py_BadArgument@@YAPAU_object@@XZ ; Py_BadArgument

; 477  : }

  0001e	8b e5		 mov	 esp, ebp
  00020	5d		 pop	 ebp
  00021	c3		 ret	 0
$LN2@itemIsMeti:
; File C:\Anka2Project\Anka2Project\Source\Binary\source\eterBase\Singleton.h

; 26   : 		assert(ms_singleton);

  00022	8b 0d 00 00 00
	00		 mov	 ecx, DWORD PTR ?ms_singleton@?$CSingleton@VCItemManager@@@@0PAVCItemManager@@A ; CSingleton<CItemManager>::ms_singleton
  00028	85 c9		 test	 ecx, ecx
  0002a	75 1a		 jne	 SHORT $LN8@itemIsMeti
  0002c	6a 1a		 push	 26			; 0000001aH
  0002e	68 00 00 00 00	 push	 OFFSET ??_C@_1IO@CAJLEEOI@?$AAC?$AA?3?$AA?2?$AAA?$AAn?$AAk?$AAa?$AA2?$AAP?$AAr?$AAo?$AAj?$AAe?$AAc?$AAt@
  00033	68 00 00 00 00	 push	 OFFSET ??_C@_1BK@FMEHPMFE@?$AAm?$AAs?$AA_?$AAs?$AAi?$AAn?$AAg?$AAl?$AAe?$AAt?$AAo?$AAn@
  00038	e8 00 00 00 00	 call	 __wassert
  0003d	8b 0d 00 00 00
	00		 mov	 ecx, DWORD PTR ?ms_singleton@?$CSingleton@VCItemManager@@@@0PAVCItemManager@@A ; CSingleton<CItemManager>::ms_singleton
  00043	83 c4 0c	 add	 esp, 12			; 0000000cH
$LN8@itemIsMeti:
; File C:\Anka2Project\Anka2Project\Source\Binary\source\UserInterface\PythonItemModule.cpp

; 466  : 	CItemManager::Instance().SelectItemData(iItemIndex);

  00046	ff 75 fc	 push	 DWORD PTR _iItemIndex$[ebp]
  00049	e8 00 00 00 00	 call	 ?SelectItemData@CItemManager@@QAEHK@Z ; CItemManager::SelectItemData
; File C:\Anka2Project\Anka2Project\Source\Binary\source\eterBase\Singleton.h

; 26   : 		assert(ms_singleton);

  0004e	8b 0d 00 00 00
	00		 mov	 ecx, DWORD PTR ?ms_singleton@?$CSingleton@VCItemManager@@@@0PAVCItemManager@@A ; CSingleton<CItemManager>::ms_singleton
  00054	85 c9		 test	 ecx, ecx
  00056	75 1a		 jne	 SHORT $LN11@itemIsMeti
  00058	6a 1a		 push	 26			; 0000001aH
  0005a	68 00 00 00 00	 push	 OFFSET ??_C@_1IO@CAJLEEOI@?$AAC?$AA?3?$AA?2?$AAA?$AAn?$AAk?$AAa?$AA2?$AAP?$AAr?$AAo?$AAj?$AAe?$AAc?$AAt@
  0005f	68 00 00 00 00	 push	 OFFSET ??_C@_1BK@FMEHPMFE@?$AAm?$AAs?$AA_?$AAs?$AAi?$AAn?$AAg?$AAl?$AAe?$AAt?$AAo?$AAn@
  00064	e8 00 00 00 00	 call	 __wassert
  00069	8b 0d 00 00 00
	00		 mov	 ecx, DWORD PTR ?ms_singleton@?$CSingleton@VCItemManager@@@@0PAVCItemManager@@A ; CSingleton<CItemManager>::ms_singleton
  0006f	83 c4 0c	 add	 esp, 12			; 0000000cH
$LN11@itemIsMeti:
; File C:\Anka2Project\Anka2Project\Source\Binary\source\UserInterface\PythonItemModule.cpp

; 467  : 	CItemData * pItemData = CItemManager::Instance().GetSelectedItemDataPointer();

  00072	e8 00 00 00 00	 call	 ?GetSelectedItemDataPointer@CItemManager@@QAEPAVCItemData@@XZ ; CItemManager::GetSelectedItemDataPointer

; 468  : 	if (!pItemData)

  00077	85 c0		 test	 eax, eax
  00079	75 11		 jne	 SHORT $LN3@itemIsMeti

; 469  : 		return Py_BuildException("Can't find select item data");

  0007b	68 00 00 00 00	 push	 OFFSET ??_C@_0BM@KPLEGEEH@Can?8t?5find?5select?5item?5data@
  00080	e8 00 00 00 00	 call	 ?Py_BuildException@@YAPAU_object@@PBDZZ ; Py_BuildException
  00085	83 c4 04	 add	 esp, 4

; 477  : }

  00088	8b e5		 mov	 esp, ebp
  0008a	5d		 pop	 ebp
  0008b	c3		 ret	 0
$LN3@itemIsMeti:

; 470  : 
; 471  : 	if (CItemData::ITEM_TYPE_METIN == pItemData->GetType())

  0008c	8b c8		 mov	 ecx, eax
  0008e	e8 00 00 00 00	 call	 ?GetType@CItemData@@QBEEXZ ; CItemData::GetType
  00093	3c 0a		 cmp	 al, 10			; 0000000aH
  00095	75 14		 jne	 SHORT $LN4@itemIsMeti

; 472  : 	{
; 473  : 		return Py_BuildValue("i", TRUE);

  00097	6a 01		 push	 1

; 477  : }

  00099	68 00 00 00 00	 push	 OFFSET ??_C@_01KBJDNOO@i@
  0009e	ff 15 00 00 00
	00		 call	 DWORD PTR __imp__Py_BuildValue
  000a4	83 c4 08	 add	 esp, 8
  000a7	8b e5		 mov	 esp, ebp
  000a9	5d		 pop	 ebp
  000aa	c3		 ret	 0
$LN4@itemIsMeti:

; 474  : 	}
; 475  : 
; 476  : 	return Py_BuildValue("i", FALSE);

  000ab	6a 00		 push	 0

; 477  : }

  000ad	68 00 00 00 00	 push	 OFFSET ??_C@_01KBJDNOO@i@
  000b2	ff 15 00 00 00
	00		 call	 DWORD PTR __imp__Py_BuildValue
  000b8	83 c4 08	 add	 esp, 8
  000bb	8b e5		 mov	 esp, ebp
  000bd	5d		 pop	 ebp
  000be	c3		 ret	 0
?itemIsMetin@@YAPAU_object@@PAU1@0@Z ENDP		; itemIsMetin
_TEXT	ENDS
; Function compile flags: /Ogtp
; File C:\Anka2Project\Anka2Project\Source\Binary\source\UserInterface\PythonItemModule.cpp
; File C:\Anka2Project\Anka2Project\Source\Binary\source\UserInterface\AbstractSingleton.h
; File C:\Anka2Project\Anka2Project\Source\Binary\source\UserInterface\PythonItemModule.cpp
; File C:\Anka2Project\Anka2Project\Source\Binary\source\UserInterface\AbstractSingleton.h
; File C:\Anka2Project\Anka2Project\Source\Binary\source\UserInterface\PythonItemModule.cpp
; File C:\Anka2Project\Anka2Project\Source\Binary\source\eterBase\Singleton.h
; File C:\Anka2Project\Anka2Project\Source\Binary\source\UserInterface\PythonItemModule.cpp
;	COMDAT ?itemUpdate@@YAPAU_object@@PAU1@0@Z
_TEXT	SEGMENT
_ptMouse$ = -8						; size = 8
_poSelf$ = 8						; size = 4
_poArgs$ = 12						; size = 4
?itemUpdate@@YAPAU_object@@PAU1@0@Z PROC		; itemUpdate, COMDAT

; 486  : {

  00000	55		 push	 ebp
  00001	8b ec		 mov	 ebp, esp
  00003	83 e4 f8	 and	 esp, -8			; fffffff8H
; File C:\Anka2Project\Anka2Project\Source\Binary\source\UserInterface\AbstractSingleton.h

; 24   : 		assert(ms_singleton!=nullptr);

  00006	8b 0d 00 00 00
	00		 mov	 ecx, DWORD PTR ?ms_singleton@?$TAbstractSingleton@VIAbstractApplication@@@@0PAVIAbstractApplication@@A ; TAbstractSingleton<IAbstractApplication>::ms_singleton
; File C:\Anka2Project\Anka2Project\Source\Binary\source\UserInterface\PythonItemModule.cpp

; 486  : {

  0000c	83 ec 08	 sub	 esp, 8
; File C:\Anka2Project\Anka2Project\Source\Binary\source\UserInterface\AbstractSingleton.h

; 24   : 		assert(ms_singleton!=nullptr);

  0000f	85 c9		 test	 ecx, ecx
  00011	75 1a		 jne	 SHORT $LN5@itemUpdate
  00013	6a 18		 push	 24			; 00000018H
  00015	68 00 00 00 00	 push	 OFFSET ??_C@_1KI@FIPHLMOB@?$AAC?$AA?3?$AA?2?$AAA?$AAn?$AAk?$AAa?$AA2?$AAP?$AAr?$AAo?$AAj?$AAe?$AAc?$AAt@
  0001a	68 00 00 00 00	 push	 OFFSET ??_C@_1CM@FPMBEAEA@?$AAm?$AAs?$AA_?$AAs?$AAi?$AAn?$AAg?$AAl?$AAe?$AAt?$AAo?$AAn?$AA?$CB?$AA?$DN?$AAn@
  0001f	e8 00 00 00 00	 call	 __wassert
  00024	8b 0d 00 00 00
	00		 mov	 ecx, DWORD PTR ?ms_singleton@?$TAbstractSingleton@VIAbstractApplication@@@@0PAVIAbstractApplication@@A ; TAbstractSingleton<IAbstractApplication>::ms_singleton
  0002a	83 c4 0c	 add	 esp, 12			; 0000000cH
$LN5@itemUpdate:
; File C:\Anka2Project\Anka2Project\Source\Binary\source\UserInterface\PythonItemModule.cpp

; 490  : 	rkApp.GetMousePosition(&ptMouse);	

  0002d	8b 01		 mov	 eax, DWORD PTR [ecx]
  0002f	8d 14 24	 lea	 edx, DWORD PTR _ptMouse$[esp+8]
  00032	52		 push	 edx
  00033	ff 50 04	 call	 DWORD PTR [eax+4]
; File C:\Anka2Project\Anka2Project\Source\Binary\source\eterBase\Singleton.h

; 26   : 		assert(ms_singleton);

  00036	8b 0d 00 00 00
	00		 mov	 ecx, DWORD PTR ?ms_singleton@?$CSingleton@VCPythonItem@@@@0PAVCPythonItem@@A ; CSingleton<CPythonItem>::ms_singleton
  0003c	85 c9		 test	 ecx, ecx
  0003e	75 1a		 jne	 SHORT $LN8@itemUpdate
  00040	6a 1a		 push	 26			; 0000001aH
  00042	68 00 00 00 00	 push	 OFFSET ??_C@_1IO@CAJLEEOI@?$AAC?$AA?3?$AA?2?$AAA?$AAn?$AAk?$AAa?$AA2?$AAP?$AAr?$AAo?$AAj?$AAe?$AAc?$AAt@
  00047	68 00 00 00 00	 push	 OFFSET ??_C@_1BK@FMEHPMFE@?$AAm?$AAs?$AA_?$AAs?$AAi?$AAn?$AAg?$AAl?$AAe?$AAt?$AAo?$AAn@
  0004c	e8 00 00 00 00	 call	 __wassert
  00051	8b 0d 00 00 00
	00		 mov	 ecx, DWORD PTR ?ms_singleton@?$CSingleton@VCPythonItem@@@@0PAVCPythonItem@@A ; CSingleton<CPythonItem>::ms_singleton
  00057	83 c4 0c	 add	 esp, 12			; 0000000cH
$LN8@itemUpdate:
; File C:\Anka2Project\Anka2Project\Source\Binary\source\UserInterface\PythonItemModule.cpp

; 492  : 	CPythonItem::Instance().Update(ptMouse);

  0005a	8d 04 24	 lea	 eax, DWORD PTR _ptMouse$[esp+8]
  0005d	50		 push	 eax
  0005e	e8 00 00 00 00	 call	 ?Update@CPythonItem@@QAEXABUtagPOINT@@@Z ; CPythonItem::Update

; 493  : 	return Py_BuildNone();

  00063	e8 00 00 00 00	 call	 ?Py_BuildNone@@YAPAU_object@@XZ ; Py_BuildNone

; 494  : }

  00068	8b e5		 mov	 esp, ebp
  0006a	5d		 pop	 ebp
  0006b	c3		 ret	 0
?itemUpdate@@YAPAU_object@@PAU1@0@Z ENDP		; itemUpdate
_TEXT	ENDS
; Function compile flags: /Ogtp
; File C:\Anka2Project\Anka2Project\Source\Binary\source\UserInterface\PythonItemModule.cpp
; File C:\Anka2Project\Anka2Project\Source\Binary\source\eterBase\Singleton.h
; File C:\Anka2Project\Anka2Project\Source\Binary\source\UserInterface\PythonItemModule.cpp
;	COMDAT ?itemPick@@YAPAU_object@@PAU1@0@Z
_TEXT	SEGMENT
_dwItemID$ = -4						; size = 4
_poSelf$ = 8						; size = 4
_poArgs$ = 12						; size = 4
?itemPick@@YAPAU_object@@PAU1@0@Z PROC			; itemPick, COMDAT

; 534  : {

  00000	55		 push	 ebp
  00001	8b ec		 mov	 ebp, esp
  00003	51		 push	 ecx
; File C:\Anka2Project\Anka2Project\Source\Binary\source\eterBase\Singleton.h

; 26   : 		assert(ms_singleton);

  00004	8b 0d 00 00 00
	00		 mov	 ecx, DWORD PTR ?ms_singleton@?$CSingleton@VCPythonItem@@@@0PAVCPythonItem@@A ; CSingleton<CPythonItem>::ms_singleton
  0000a	85 c9		 test	 ecx, ecx
  0000c	75 1a		 jne	 SHORT $LN7@itemPick
  0000e	6a 1a		 push	 26			; 0000001aH
  00010	68 00 00 00 00	 push	 OFFSET ??_C@_1IO@CAJLEEOI@?$AAC?$AA?3?$AA?2?$AAA?$AAn?$AAk?$AAa?$AA2?$AAP?$AAr?$AAo?$AAj?$AAe?$AAc?$AAt@
  00015	68 00 00 00 00	 push	 OFFSET ??_C@_1BK@FMEHPMFE@?$AAm?$AAs?$AA_?$AAs?$AAi?$AAn?$AAg?$AAl?$AAe?$AAt?$AAo?$AAn@
  0001a	e8 00 00 00 00	 call	 __wassert
  0001f	8b 0d 00 00 00
	00		 mov	 ecx, DWORD PTR ?ms_singleton@?$CSingleton@VCPythonItem@@@@0PAVCPythonItem@@A ; CSingleton<CPythonItem>::ms_singleton
  00025	83 c4 0c	 add	 esp, 12			; 0000000cH
$LN7@itemPick:
; File C:\Anka2Project\Anka2Project\Source\Binary\source\UserInterface\PythonItemModule.cpp

; 536  : 	if (CPythonItem::Instance().GetPickedItemID(&dwItemID))

  00028	8d 45 fc	 lea	 eax, DWORD PTR _dwItemID$[ebp]
  0002b	50		 push	 eax
  0002c	e8 00 00 00 00	 call	 ?GetPickedItemID@CPythonItem@@QAE_NPAK@Z ; CPythonItem::GetPickedItemID
  00031	84 c0		 test	 al, al
  00033	74 15		 je	 SHORT $LN2@itemPick

; 537  : 		return Py_BuildValue("i", dwItemID);

  00035	ff 75 fc	 push	 DWORD PTR _dwItemID$[ebp]

; 540  : }

  00038	68 00 00 00 00	 push	 OFFSET ??_C@_01KBJDNOO@i@
  0003d	ff 15 00 00 00
	00		 call	 DWORD PTR __imp__Py_BuildValue
  00043	83 c4 08	 add	 esp, 8
  00046	8b e5		 mov	 esp, ebp
  00048	5d		 pop	 ebp
  00049	c3		 ret	 0
$LN2@itemPick:

; 538  : 	else
; 539  : 		return Py_BuildValue("i", -1);

  0004a	6a ff		 push	 -1

; 540  : }

  0004c	68 00 00 00 00	 push	 OFFSET ??_C@_01KBJDNOO@i@
  00051	ff 15 00 00 00
	00		 call	 DWORD PTR __imp__Py_BuildValue
  00057	83 c4 08	 add	 esp, 8
  0005a	8b e5		 mov	 esp, ebp
  0005c	5d		 pop	 ebp
  0005d	c3		 ret	 0
?itemPick@@YAPAU_object@@PAU1@0@Z ENDP			; itemPick
_TEXT	ENDS
; Function compile flags: /Ogtp
; File C:\Anka2Project\Anka2Project\Source\Binary\source\UserInterface\PythonItemModule.cpp
; File C:\Anka2Project\Anka2Project\Source\Binary\source\eterBase\Singleton.h
; File C:\Anka2Project\Anka2Project\Source\Binary\source\UserInterface\PythonItemModule.cpp
;	COMDAT ?itemIsWeddingItem@@YAPAU_object@@PAU1@0@Z
_TEXT	SEGMENT
_dwItemIndex$ = -4					; size = 4
_poSelf$ = 8						; size = 4
_poArgs$ = 12						; size = 4
?itemIsWeddingItem@@YAPAU_object@@PAU1@0@Z PROC		; itemIsWeddingItem, COMDAT

; 553  : {

  00000	55		 push	 ebp
  00001	8b ec		 mov	 ebp, esp
  00003	51		 push	 ecx

; 554  : 	DWORD dwItemIndex;
; 555  : 	switch (PyTuple_Size(poArgs))

  00004	ff 75 0c	 push	 DWORD PTR _poArgs$[ebp]
  00007	ff 15 00 00 00
	00		 call	 DWORD PTR __imp__PyTuple_Size
  0000d	83 c4 04	 add	 esp, 4
  00010	83 e8 00	 sub	 eax, 0
  00013	74 2d		 je	 SHORT $LN6@itemIsWedd
  00015	83 e8 01	 sub	 eax, 1
  00018	75 15		 jne	 SHORT $LN30@itemIsWedd

; 563  : 		break;
; 564  : 	}
; 565  : 	case 1:
; 566  : 	{
; 567  : 		if (!PyTuple_GetUnsignedLong(poArgs, 0, &dwItemIndex))

  0001a	8d 45 fc	 lea	 eax, DWORD PTR _dwItemIndex$[ebp]
  0001d	50		 push	 eax
  0001e	6a 00		 push	 0
  00020	ff 75 0c	 push	 DWORD PTR _poArgs$[ebp]
  00023	e8 00 00 00 00	 call	 ?PyTuple_GetUnsignedLong@@YA_NPAU_object@@HPAK@Z ; PyTuple_GetUnsignedLong
  00028	83 c4 0c	 add	 esp, 12			; 0000000cH
  0002b	84 c0		 test	 al, al
  0002d	75 0e		 jne	 SHORT $LN28@itemIsWedd
$LN30@itemIsWedd:

; 592  : }

  0002f	6a 00		 push	 0
  00031	e8 00 00 00 00	 call	 ?Py_BuildException@@YAPAU_object@@PBDZZ ; Py_BuildException
  00036	83 c4 04	 add	 esp, 4
  00039	8b e5		 mov	 esp, ebp
  0003b	5d		 pop	 ebp
  0003c	c3		 ret	 0
$LN28@itemIsWedd:

; 563  : 		break;
; 564  : 	}
; 565  : 	case 1:
; 566  : 	{
; 567  : 		if (!PyTuple_GetUnsignedLong(poArgs, 0, &dwItemIndex))

  0003d	8b 45 fc	 mov	 eax, DWORD PTR _dwItemIndex$[ebp]
  00040	eb 48		 jmp	 SHORT $LN2@itemIsWedd
$LN6@itemIsWedd:
; File C:\Anka2Project\Anka2Project\Source\Binary\source\eterBase\Singleton.h

; 26   : 		assert(ms_singleton);

