; Listing generated by Microsoft (R) Optimizing Compiler Version 19.44.35219.0 

	TITLE	c:\anka2project\anka2project\source\binary\vs_files\userinterface\release\pythonitem.obj
	.686P
	.XMM
	include listing.inc
	.model	flat

INCLUDELIB OLDNAMES

PUBLIC	??_C@_0BH@BBCPOMJB@Item?3?5Inst?5?$CFd?0?5Pool?5?$CFd@ ; `string'
PUBLIC	??_C@_0BJ@CMCGILDJ@SetDropSoundFile?5?$CFd?5?3?5?$CFs@ ; `string'
PUBLIC	??_C@_03NLJIHOMM@?5?9?5@			; `string'
PUBLIC	??_C@_0CO@ILCHIEAM@d?3?1ymir?5work?1effect?1etc?1dropite@ ; `string'
PUBLIC	??_C@_0DH@KFAEPKAG@d?3?1ymir?5work?1effect?1etc?1masic_c@ ; `string'
PUBLIC	??_C@_0DJ@HEOIPIIF@d?3?1ymir?5work?1effect?1etc?1masic_c@ ; `string'
PUBLIC	??_C@_0DA@LHNFEGMD@d?3?1ymir?5work?1effect?1etc?1forked_@ ; `string'
PUBLIC	??_C@_0CC@LIGJBHKC@CDynamicPool?$DMTGroundItemInstanc@ ; `string'
PUBLIC	??_C@_1JO@MBDPNGGH@?$AAC?$AA?3?$AA?2?$AAA?$AAn?$AAk?$AAa?$AA2?$AAP?$AAr?$AAo?$AAj?$AAe?$AAc?$AAt@ ; `string'
PUBLIC	??_C@_1EA@HJANBBHL@?$AAm?$AA_?$AAG?$AAr?$AAo?$AAu?$AAn?$AAd?$AAI?$AAt?$AAe?$AAm?$AAI?$AAn?$AAs@ ; `string'
PUBLIC	??_C@_0DH@PCJAMJDO@CPythonItem?3?3__RegisterEffect?5?9@ ; `string'
PUBLIC	??_R2?$CDynamicPool@USGroundItemInstance@CPythonItem@@@@8 ; CDynamicPool<CPythonItem::SGroundItemInstance>::`RTTI Base Class Array'
PUBLIC	??_R2SGroundItemInstance@CPythonItem@@8		; CPythonItem::SGroundItemInstance::`RTTI Base Class Array'
PUBLIC	??_R2CPythonItem@@8				; CPythonItem::`RTTI Base Class Array'
PUBLIC	??_R2?$CSingleton@VCPythonItem@@@@8		; CSingleton<CPythonItem>::`RTTI Base Class Array'
PUBLIC	??_R1A@?0A@EA@?$CDynamicPool@USGroundItemInstance@CPythonItem@@@@8 ; CDynamicPool<CPythonItem::SGroundItemInstance>::`RTTI Base Class Descriptor at (0,-1,0,64)'
PUBLIC	??_R1A@?0A@EA@SGroundItemInstance@CPythonItem@@8 ; CPythonItem::SGroundItemInstance::`RTTI Base Class Descriptor at (0,-1,0,64)'
PUBLIC	??_R1A@?0A@EA@CPythonItem@@8			; CPythonItem::`RTTI Base Class Descriptor at (0,-1,0,64)'
PUBLIC	??_R1A@?0A@EA@?$CSingleton@VCPythonItem@@@@8	; CSingleton<CPythonItem>::`RTTI Base Class Descriptor at (0,-1,0,64)'
PUBLIC	??_R3?$CDynamicPool@USGroundItemInstance@CPythonItem@@@@8 ; CDynamicPool<CPythonItem::SGroundItemInstance>::`RTTI Class Hierarchy Descriptor'
PUBLIC	??_R0?AV?$CDynamicPool@USGroundItemInstance@CPythonItem@@@@@8 ; CDynamicPool<CPythonItem::SGroundItemInstance> `RTTI Type Descriptor'
PUBLIC	??_R3SGroundItemInstance@CPythonItem@@8		; CPythonItem::SGroundItemInstance::`RTTI Class Hierarchy Descriptor'
PUBLIC	??_R0?AUSGroundItemInstance@CPythonItem@@@8	; CPythonItem::SGroundItemInstance `RTTI Type Descriptor'
PUBLIC	??_R3?$CSingleton@VCPythonItem@@@@8		; CSingleton<CPythonItem>::`RTTI Class Hierarchy Descriptor'
PUBLIC	??_R0?AV?$CSingleton@VCPythonItem@@@@@8		; CSingleton<CPythonItem> `RTTI Type Descriptor'
PUBLIC	??_R3CPythonItem@@8				; CPythonItem::`RTTI Class Hierarchy Descriptor'
PUBLIC	??_R0?AVCPythonItem@@@8				; CPythonItem `RTTI Type Descriptor'
PUBLIC	??_R4?$CDynamicPool@USGroundItemInstance@CPythonItem@@@@6B@ ; CDynamicPool<CPythonItem::SGroundItemInstance>::`RTTI Complete Object Locator'
PUBLIC	??_R4SGroundItemInstance@CPythonItem@@6B@	; CPythonItem::SGroundItemInstance::`RTTI Complete Object Locator'
PUBLIC	??_R4?$CSingleton@VCPythonItem@@@@6B@		; CSingleton<CPythonItem>::`RTTI Complete Object Locator'
PUBLIC	??_R4CPythonItem@@6B@				; CPythonItem::`RTTI Complete Object Locator'
PUBLIC	?unordered@partial_ordering@std@@2U12@B		; std::partial_ordering::unordered
PUBLIC	?equivalent@partial_ordering@std@@2U12@B	; std::partial_ordering::equivalent
PUBLIC	?greater@partial_ordering@std@@2U12@B		; std::partial_ordering::greater
PUBLIC	?less@partial_ordering@std@@2U12@B		; std::partial_ordering::less
PUBLIC	?ms_singleton@?$CSingleton@VCSoundManager@@@@0PAVCSoundManager@@A ; CSingleton<CSoundManager>::ms_singleton
PUBLIC	??_7?$CSingleton@VCPythonItem@@@@6B@		; CSingleton<CPythonItem>::`vftable'
PUBLIC	??_7?$CDynamicPool@USGroundItemInstance@CPythonItem@@@@6B@ ; CDynamicPool<CPythonItem::SGroundItemInstance>::`vftable'
PUBLIC	??_7CPythonItem@@6B@				; CPythonItem::`vftable'
PUBLIC	??_7SGroundItemInstance@CPythonItem@@6B@	; CPythonItem::SGroundItemInstance::`vftable'
EXTRN	?GetAntiFlags@CItemData@@QBEKXZ:PROC		; CItemData::GetAntiFlags
EXTRN	??_L@YGXPAXIIP6EX0@Z1@Z:PROC			; `eh vector constructor iterator'
EXTRN	_D3DXMatrixRotationQuaternion@8:PROC
EXTRN	?SetModelInstance@CGraphicThingInstance@@QAE_NHHHH@Z:PROC ; CGraphicThingInstance::SetModelInstance
EXTRN	?Update@CGraphicObjectInstance@@QAEXXZ:PROC	; CGraphicObjectInstance::Update
EXTRN	?ReserveModelInstance@CGraphicThingInstance@@QAEXH@Z:PROC ; CGraphicThingInstance::ReserveModelInstance
EXTRN	?RegisterModelThing@CGraphicThingInstance@@QAEXHPAVCGraphicThing@@@Z:PROC ; CGraphicThingInstance::RegisterModelThing
EXTRN	?GetNormal@CMapManager@@QAE_NHHPAUD3DXVECTOR3@@@Z:PROC ; CMapManager::GetNormal
EXTRN	?ReserveModelThing@CGraphicThingInstance@@QAEXH@Z:PROC ; CGraphicThingInstance::ReserveModelThing
EXTRN	?GetDropModelThing@CItemData@@QAEPAVCGraphicThing@@XZ:PROC ; CItemData::GetDropModelThing
EXTRN	?PlaySound2D@CSoundManager@@QAEXPBD@Z:PROC	; CSoundManager::PlaySound2D
EXTRN	?ShowEffect@CEffectManager@@QAEXXZ:PROC		; CEffectManager::ShowEffect
EXTRN	?Show@CGraphicObjectInstance@@QAEXXZ:PROC	; CGraphicObjectInstance::Show
EXTRN	?HideEffect@CEffectManager@@QAEXXZ:PROC		; CEffectManager::HideEffect
EXTRN	?Hide@CGraphicObjectInstance@@QAEXXZ:PROC	; CGraphicObjectInstance::Hide
EXTRN	?SetDiffuseOperation@CScreen@@QAEXXZ:PROC	; CScreen::SetDiffuseOperation
EXTRN	?BlendRender@CGraphicObjectInstance@@QAEXXZ:PROC ; CGraphicObjectInstance::BlendRender
EXTRN	?Transform@CGraphicObjectInstance@@QAEXXZ:PROC	; CGraphicObjectInstance::Transform
EXTRN	?Deform@CGraphicObjectInstance@@QAEXXZ:PROC	; CGraphicObjectInstance::Deform
EXTRN	?SetPosition@CGraphicObjectInstance@@QAEXMMM@Z:PROC ; CGraphicObjectInstance::SetPosition
EXTRN	_D3DXQuaternionRotationAxis@12:PROC
EXTRN	_D3DXQuaternionMultiply@12:PROC
EXTRN	?SetRotationQuaternion@CGraphicObjectInstance@@QAEXABUD3DXQUATERNION@@@Z:PROC ; CGraphicObjectInstance::SetRotationQuaternion
EXTRN	?PlaySound3D@CSoundManager@@QAEXMMMPBDH@Z:PROC	; CSoundManager::PlaySound3D
EXTRN	??1CGraphicThingInstance@@UAE@XZ:PROC		; CGraphicThingInstance::~CGraphicThingInstance
EXTRN	??0CGraphicThingInstance@@QAE@XZ:PROC		; CGraphicThingInstance::CGraphicThingInstance
EXTRN	?Clear@CGraphicObjectInstance@@QAEXXZ:PROC	; CGraphicObjectInstance::Clear
;	COMDAT ?ms_singleton@?$CSingleton@VCSoundManager@@@@0PAVCSoundManager@@A
_BSS	SEGMENT
?ms_singleton@?$CSingleton@VCSoundManager@@@@0PAVCSoundManager@@A DD 01H DUP (?) ; CSingleton<CSoundManager>::ms_singleton
_BSS	ENDS
;	COMDAT ??_7SGroundItemInstance@CPythonItem@@6B@
CONST	SEGMENT
??_7SGroundItemInstance@CPythonItem@@6B@ DD FLAT:??_R4SGroundItemInstance@CPythonItem@@6B@ ; CPythonItem::SGroundItemInstance::`vftable'
	DD	FLAT:??_ESGroundItemInstance@CPythonItem@@UAEPAXI@Z
CONST	ENDS
;	COMDAT ??_7CPythonItem@@6B@
CONST	SEGMENT
??_7CPythonItem@@6B@ DD FLAT:??_R4CPythonItem@@6B@	; CPythonItem::`vftable'
	DD	FLAT:??_ECPythonItem@@UAEPAXI@Z
CONST	ENDS
;	COMDAT ??_7?$CDynamicPool@USGroundItemInstance@CPythonItem@@@@6B@
CONST	SEGMENT
??_7?$CDynamicPool@USGroundItemInstance@CPythonItem@@@@6B@ DD FLAT:??_R4?$CDynamicPool@USGroundItemInstance@CPythonItem@@@@6B@ ; CDynamicPool<CPythonItem::SGroundItemInstance>::`vftable'
	DD	FLAT:??_E?$CDynamicPool@USGroundItemInstance@CPythonItem@@@@UAEPAXI@Z
CONST	ENDS
;	COMDAT ??_7?$CSingleton@VCPythonItem@@@@6B@
CONST	SEGMENT
??_7?$CSingleton@VCPythonItem@@@@6B@ DD FLAT:??_R4?$CSingleton@VCPythonItem@@@@6B@ ; CSingleton<CPythonItem>::`vftable'
	DD	FLAT:??_E?$CSingleton@VCPythonItem@@@@UAEPAXI@Z
CONST	ENDS
;	COMDAT ?less@partial_ordering@std@@2U12@B
CONST	SEGMENT
?less@partial_ordering@std@@2U12@B DB 0ffH		; std::partial_ordering::less
CONST	ENDS
;	COMDAT ?greater@partial_ordering@std@@2U12@B
CONST	SEGMENT
?greater@partial_ordering@std@@2U12@B DB 01H		; std::partial_ordering::greater
CONST	ENDS
;	COMDAT ?equivalent@partial_ordering@std@@2U12@B
CONST	SEGMENT
?equivalent@partial_ordering@std@@2U12@B DB 00H		; std::partial_ordering::equivalent
CONST	ENDS
;	COMDAT ?unordered@partial_ordering@std@@2U12@B
CONST	SEGMENT
?unordered@partial_ordering@std@@2U12@B DB 080H		; std::partial_ordering::unordered
CONST	ENDS
;	COMDAT ??_R4CPythonItem@@6B@
rdata$r	SEGMENT
??_R4CPythonItem@@6B@ DD 00H				; CPythonItem::`RTTI Complete Object Locator'
	DD	00H
	DD	00H
	DD	FLAT:??_R0?AVCPythonItem@@@8
	DD	FLAT:??_R3CPythonItem@@8
rdata$r	ENDS
;	COMDAT ??_R4?$CSingleton@VCPythonItem@@@@6B@
rdata$r	SEGMENT
??_R4?$CSingleton@VCPythonItem@@@@6B@ DD 00H		; CSingleton<CPythonItem>::`RTTI Complete Object Locator'
	DD	00H
	DD	00H
	DD	FLAT:??_R0?AV?$CSingleton@VCPythonItem@@@@@8
	DD	FLAT:??_R3?$CSingleton@VCPythonItem@@@@8
rdata$r	ENDS
;	COMDAT ??_R4SGroundItemInstance@CPythonItem@@6B@
rdata$r	SEGMENT
??_R4SGroundItemInstance@CPythonItem@@6B@ DD 00H	; CPythonItem::SGroundItemInstance::`RTTI Complete Object Locator'
	DD	00H
	DD	00H
	DD	FLAT:??_R0?AUSGroundItemInstance@CPythonItem@@@8
	DD	FLAT:??_R3SGroundItemInstance@CPythonItem@@8
rdata$r	ENDS
;	COMDAT ??_R4?$CDynamicPool@USGroundItemInstance@CPythonItem@@@@6B@
rdata$r	SEGMENT
??_R4?$CDynamicPool@USGroundItemInstance@CPythonItem@@@@6B@ DD 00H ; CDynamicPool<CPythonItem::SGroundItemInstance>::`RTTI Complete Object Locator'
	DD	00H
	DD	00H
	DD	FLAT:??_R0?AV?$CDynamicPool@USGroundItemInstance@CPythonItem@@@@@8
	DD	FLAT:??_R3?$CDynamicPool@USGroundItemInstance@CPythonItem@@@@8
rdata$r	ENDS
;	COMDAT ??_R0?AVCPythonItem@@@8
data$rs	SEGMENT
??_R0?AVCPythonItem@@@8 DD FLAT:??_7type_info@@6B@	; CPythonItem `RTTI Type Descriptor'
	DD	00H
	DB	'.?AVCPythonItem@@', 00H
data$rs	ENDS
;	COMDAT ??_R3CPythonItem@@8
rdata$r	SEGMENT
??_R3CPythonItem@@8 DD 00H				; CPythonItem::`RTTI Class Hierarchy Descriptor'
	DD	00H
	DD	02H
	DD	FLAT:??_R2CPythonItem@@8
rdata$r	ENDS
;	COMDAT ??_R0?AV?$CSingleton@VCPythonItem@@@@@8
data$rs	SEGMENT
??_R0?AV?$CSingleton@VCPythonItem@@@@@8 DD FLAT:??_7type_info@@6B@ ; CSingleton<CPythonItem> `RTTI Type Descriptor'
	DD	00H
	DB	'.?AV?$CSingleton@VCPythonItem@@@@', 00H
data$rs	ENDS
;	COMDAT ??_R3?$CSingleton@VCPythonItem@@@@8
rdata$r	SEGMENT
??_R3?$CSingleton@VCPythonItem@@@@8 DD 00H		; CSingleton<CPythonItem>::`RTTI Class Hierarchy Descriptor'
	DD	00H
	DD	01H
	DD	FLAT:??_R2?$CSingleton@VCPythonItem@@@@8
rdata$r	ENDS
;	COMDAT ??_R0?AUSGroundItemInstance@CPythonItem@@@8
data$rs	SEGMENT
??_R0?AUSGroundItemInstance@CPythonItem@@@8 DD FLAT:??_7type_info@@6B@ ; CPythonItem::SGroundItemInstance `RTTI Type Descriptor'
	DD	00H
	DB	'.?AUSGroundItemInstance@CPythonItem@@', 00H
data$rs	ENDS
;	COMDAT ??_R3SGroundItemInstance@CPythonItem@@8
rdata$r	SEGMENT
??_R3SGroundItemInstance@CPythonItem@@8 DD 00H		; CPythonItem::SGroundItemInstance::`RTTI Class Hierarchy Descriptor'
	DD	00H
	DD	01H
	DD	FLAT:??_R2SGroundItemInstance@CPythonItem@@8
rdata$r	ENDS
;	COMDAT ??_R0?AV?$CDynamicPool@USGroundItemInstance@CPythonItem@@@@@8
data$rs	SEGMENT
??_R0?AV?$CDynamicPool@USGroundItemInstance@CPythonItem@@@@@8 DD FLAT:??_7type_info@@6B@ ; CDynamicPool<CPythonItem::SGroundItemInstance> `RTTI Type Descriptor'
	DD	00H
	DB	'.?AV?$CDynamicPool@USGroundItemInstance@CPythonItem@@@@', 00H
data$rs	ENDS
;	COMDAT ??_R3?$CDynamicPool@USGroundItemInstance@CPythonItem@@@@8
rdata$r	SEGMENT
??_R3?$CDynamicPool@USGroundItemInstance@CPythonItem@@@@8 DD 00H ; CDynamicPool<CPythonItem::SGroundItemInstance>::`RTTI Class Hierarchy Descriptor'
	DD	00H
	DD	01H
	DD	FLAT:??_R2?$CDynamicPool@USGroundItemInstance@CPythonItem@@@@8
rdata$r	ENDS
;	COMDAT ??_R1A@?0A@EA@?$CSingleton@VCPythonItem@@@@8
rdata$r	SEGMENT
??_R1A@?0A@EA@?$CSingleton@VCPythonItem@@@@8 DD FLAT:??_R0?AV?$CSingleton@VCPythonItem@@@@@8 ; CSingleton<CPythonItem>::`RTTI Base Class Descriptor at (0,-1,0,64)'
	DD	00H
	DD	00H
	DD	0ffffffffH
	DD	00H
	DD	040H
	DD	FLAT:??_R3?$CSingleton@VCPythonItem@@@@8
rdata$r	ENDS
;	COMDAT ??_R1A@?0A@EA@CPythonItem@@8
rdata$r	SEGMENT
??_R1A@?0A@EA@CPythonItem@@8 DD FLAT:??_R0?AVCPythonItem@@@8 ; CPythonItem::`RTTI Base Class Descriptor at (0,-1,0,64)'
	DD	01H
	DD	00H
	DD	0ffffffffH
	DD	00H
	DD	040H
	DD	FLAT:??_R3CPythonItem@@8
rdata$r	ENDS
;	COMDAT ??_R1A@?0A@EA@SGroundItemInstance@CPythonItem@@8
rdata$r	SEGMENT
??_R1A@?0A@EA@SGroundItemInstance@CPythonItem@@8 DD FLAT:??_R0?AUSGroundItemInstance@CPythonItem@@@8 ; CPythonItem::SGroundItemInstance::`RTTI Base Class Descriptor at (0,-1,0,64)'
	DD	00H
	DD	00H
	DD	0ffffffffH
	DD	00H
	DD	040H
	DD	FLAT:??_R3SGroundItemInstance@CPythonItem@@8
rdata$r	ENDS
;	COMDAT ??_R1A@?0A@EA@?$CDynamicPool@USGroundItemInstance@CPythonItem@@@@8
rdata$r	SEGMENT
??_R1A@?0A@EA@?$CDynamicPool@USGroundItemInstance@CPythonItem@@@@8 DD FLAT:??_R0?AV?$CDynamicPool@USGroundItemInstance@CPythonItem@@@@@8 ; CDynamicPool<CPythonItem::SGroundItemInstance>::`RTTI Base Class Descriptor at (0,-1,0,64)'
	DD	00H
	DD	00H
	DD	0ffffffffH
	DD	00H
	DD	040H
	DD	FLAT:??_R3?$CDynamicPool@USGroundItemInstance@CPythonItem@@@@8
rdata$r	ENDS
;	COMDAT ??_R2?$CSingleton@VCPythonItem@@@@8
rdata$r	SEGMENT
??_R2?$CSingleton@VCPythonItem@@@@8 DD FLAT:??_R1A@?0A@EA@?$CSingleton@VCPythonItem@@@@8 ; CSingleton<CPythonItem>::`RTTI Base Class Array'
rdata$r	ENDS
;	COMDAT ??_R2CPythonItem@@8
rdata$r	SEGMENT
??_R2CPythonItem@@8 DD FLAT:??_R1A@?0A@EA@CPythonItem@@8 ; CPythonItem::`RTTI Base Class Array'
	DD	FLAT:??_R1A@?0A@EA@?$CSingleton@VCPythonItem@@@@8
rdata$r	ENDS
;	COMDAT ??_R2SGroundItemInstance@CPythonItem@@8
rdata$r	SEGMENT
??_R2SGroundItemInstance@CPythonItem@@8 DD FLAT:??_R1A@?0A@EA@SGroundItemInstance@CPythonItem@@8 ; CPythonItem::SGroundItemInstance::`RTTI Base Class Array'
rdata$r	ENDS
;	COMDAT ??_R2?$CDynamicPool@USGroundItemInstance@CPythonItem@@@@8
rdata$r	SEGMENT
??_R2?$CDynamicPool@USGroundItemInstance@CPythonItem@@@@8 DD FLAT:??_R1A@?0A@EA@?$CDynamicPool@USGroundItemInstance@CPythonItem@@@@8 ; CDynamicPool<CPythonItem::SGroundItemInstance>::`RTTI Base Class Array'
rdata$r	ENDS
;	COMDAT ??_C@_0DH@PCJAMJDO@CPythonItem?3?3__RegisterEffect?5?9@
CONST	SEGMENT
??_C@_0DH@PCJAMJDO@CPythonItem?3?3__RegisterEffect?5?9@ DB 'CPythonItem::'
	DB	'__RegisterEffect - Invalid index: %d - %s', 00H ; `string'
CONST	ENDS
;	COMDAT ??_C@_1EA@HJANBBHL@?$AAm?$AA_?$AAG?$AAr?$AAo?$AAu?$AAn?$AAd?$AAI?$AAt?$AAe?$AAm?$AAI?$AAn?$AAs@
CONST	SEGMENT
??_C@_1EA@HJANBBHL@?$AAm?$AA_?$AAG?$AAr?$AAo?$AAu?$AAn?$AAd?$AAI?$AAt?$AAe?$AAm?$AAI?$AAn?$AAs@ DB 'm'
	DB	00H, '_', 00H, 'G', 00H, 'r', 00H, 'o', 00H, 'u', 00H, 'n', 00H
	DB	'd', 00H, 'I', 00H, 't', 00H, 'e', 00H, 'm', 00H, 'I', 00H, 'n'
	DB	00H, 's', 00H, 't', 00H, 'a', 00H, 'n', 00H, 'c', 00H, 'e', 00H
	DB	'M', 00H, 'a', 00H, 'p', 00H, '.', 00H, 'e', 00H, 'm', 00H, 'p'
	DB	00H, 't', 00H, 'y', 00H, '(', 00H, ')', 00H, 00H, 00H ; `string'
CONST	ENDS
;	COMDAT ??_C@_1JO@MBDPNGGH@?$AAC?$AA?3?$AA?2?$AAA?$AAn?$AAk?$AAa?$AA2?$AAP?$AAr?$AAo?$AAj?$AAe?$AAc?$AAt@
CONST	SEGMENT
??_C@_1JO@MBDPNGGH@?$AAC?$AA?3?$AA?2?$AAA?$AAn?$AAk?$AAa?$AA2?$AAP?$AAr?$AAo?$AAj?$AAe?$AAc?$AAt@ DB 'C'
	DB	00H, ':', 00H, '\', 00H, 'A', 00H, 'n', 00H, 'k', 00H, 'a', 00H
	DB	'2', 00H, 'P', 00H, 'r', 00H, 'o', 00H, 'j', 00H, 'e', 00H, 'c'
	DB	00H, 't', 00H, '\', 00H, 'A', 00H, 'n', 00H, 'k', 00H, 'a', 00H
	DB	'2', 00H, 'P', 00H, 'r', 00H, 'o', 00H, 'j', 00H, 'e', 00H, 'c'
	DB	00H, 't', 00H, '\', 00H, 'S', 00H, 'o', 00H, 'u', 00H, 'r', 00H
	DB	'c', 00H, 'e', 00H, '\', 00H, 'B', 00H, 'i', 00H, 'n', 00H, 'a'
	DB	00H, 'r', 00H, 'y', 00H, '\', 00H, 's', 00H, 'o', 00H, 'u', 00H
	DB	'r', 00H, 'c', 00H, 'e', 00H, '\', 00H, 'U', 00H, 's', 00H, 'e'
	DB	00H, 'r', 00H, 'I', 00H, 'n', 00H, 't', 00H, 'e', 00H, 'r', 00H
	DB	'f', 00H, 'a', 00H, 'c', 00H, 'e', 00H, '\', 00H, 'P', 00H, 'y'
	DB	00H, 't', 00H, 'h', 00H, 'o', 00H, 'n', 00H, 'I', 00H, 't', 00H
	DB	'e', 00H, 'm', 00H, '.', 00H, 'c', 00H, 'p', 00H, 'p', 00H, 00H
	DB	00H						; `string'
CONST	ENDS
;	COMDAT ??_C@_0CC@LIGJBHKC@CDynamicPool?$DMTGroundItemInstanc@
CONST	SEGMENT
??_C@_0CC@LIGJBHKC@CDynamicPool?$DMTGroundItemInstanc@ DB 'CDynamicPool<T'
	DB	'GroundItemInstance>', 00H			; `string'
CONST	ENDS
;	COMDAT ??_C@_0DA@LHNFEGMD@d?3?1ymir?5work?1effect?1etc?1forked_@
CONST	SEGMENT
??_C@_0DA@LHNFEGMD@d?3?1ymir?5work?1effect?1etc?1forked_@ DB 'd:/ymir wor'
	DB	'k/effect/etc/forked_load/victory.mse', 00H	; `string'
CONST	ENDS
;	COMDAT ??_C@_0DJ@HEOIPIIF@d?3?1ymir?5work?1effect?1etc?1masic_c@
CONST	SEGMENT
??_C@_0DJ@HEOIPIIF@d?3?1ymir?5work?1effect?1etc?1masic_c@ DB 'd:/ymir wor'
	DB	'k/effect/etc/masic_camp/masic_camp_vanish.mse', 00H ; `string'
CONST	ENDS
;	COMDAT ??_C@_0DH@KFAEPKAG@d?3?1ymir?5work?1effect?1etc?1masic_c@
CONST	SEGMENT
??_C@_0DH@KFAEPKAG@d?3?1ymir?5work?1effect?1etc?1masic_c@ DB 'd:/ymir wor'
	DB	'k/effect/etc/masic_camp/masic_camp_loop.mse', 00H ; `string'
CONST	ENDS
;	COMDAT ??_C@_0CO@ILCHIEAM@d?3?1ymir?5work?1effect?1etc?1dropite@
CONST	SEGMENT
??_C@_0CO@ILCHIEAM@d?3?1ymir?5work?1effect?1etc?1dropite@ DB 'd:/ymir wor'
	DB	'k/effect/etc/dropitem/dropitem.mse', 00H	; `string'
CONST	ENDS
;	COMDAT ??_C@_03NLJIHOMM@?5?9?5@
CONST	SEGMENT
??_C@_03NLJIHOMM@?5?9?5@ DB ' - ', 00H			; `string'
CONST	ENDS
;	COMDAT ??_C@_0BJ@CMCGILDJ@SetDropSoundFile?5?$CFd?5?3?5?$CFs@
CONST	SEGMENT
??_C@_0BJ@CMCGILDJ@SetDropSoundFile?5?$CFd?5?3?5?$CFs@ DB 'SetDropSoundFi'
	DB	'le %d : %s', 00H				; `string'
CONST	ENDS
;	COMDAT ??_C@_0BH@BBCPOMJB@Item?3?5Inst?5?$CFd?0?5Pool?5?$CFd@
CONST	SEGMENT
??_C@_0BH@BBCPOMJB@Item?3?5Inst?5?$CFd?0?5Pool?5?$CFd@ DB 'Item: Inst %d,'
	DB	' Pool %d', 00H				; `string'
PUBLIC	??0D3DXQUATERNION@@QAE@MMMM@Z			; D3DXQUATERNION::D3DXQUATERNION
PUBLIC	??GD3DXVECTOR3@@QBE?AU0@XZ			; D3DXVECTOR3::operator-
PUBLIC	??0D3DXQUATERNION@@QAE@XZ			; D3DXQUATERNION::D3DXQUATERNION
PUBLIC	?D3DXQuaternionConjugate@@YAPAUD3DXQUATERNION@@PAU1@PBU1@@Z ; D3DXQuaternionConjugate
PUBLIC	_sinf
PUBLIC	_cosf
PUBLIC	??Mstd@@YA_NUpartial_ordering@0@U_Literal_zero@0@@Z ; std::operator<
PUBLIC	??8std@@YA_NUpartial_ordering@0@U_Literal_zero@0@@Z ; std::operator==
PUBLIC	??Bstrong_ordering@std@@QBE?AUpartial_ordering@1@XZ ; std::strong_ordering::operator std::partial_ordering
PUBLIC	??$swap@H$0A@@std@@YAXAAH0@Z			; std::swap<int,0>
PUBLIC	??$construct_at@PAUSGroundItemInstance@CPythonItem@@PAU12@@std@@YAPAPAUSGroundItemInstance@CPythonItem@@QAPAU12@$$QAPAU12@@Z ; std::construct_at<CPythonItem::SGroundItemInstance *,CPythonItem::SGroundItemInstance *>
PUBLIC	?_Get_first@?$_Compressed_pair@V?$allocator@PAUSGroundItemInstance@CPythonItem@@@std@@V?$_Vector_val@U?$_Simple_types@PAUSGroundItemInstance@CPythonItem@@@std@@@2@$00@std@@QBEABV?$allocator@PAUSGroundItemInstance@CPythonItem@@@2@XZ ; std::_Compressed_pair<std::allocator<CPythonItem::SGroundItemInstance *>,std::_Vector_val<std::_Simple_types<CPythonItem::SGroundItemInstance *> >,1>::_Get_first
PUBLIC	??$construct@PAUSGroundItemInstance@CPythonItem@@PAU12@@?$_Default_allocator_traits@V?$allocator@PAUSGroundItemInstance@CPythonItem@@@std@@@std@@SAXAAV?$allocator@PAUSGroundItemInstance@CPythonItem@@@1@QAPAUSGroundItemInstance@CPythonItem@@$$QAPAU34@@Z ; std::_Default_allocator_traits<std::allocator<CPythonItem::SGroundItemInstance *> >::construct<CPythonItem::SGroundItemInstance *,CPythonItem::SGroundItemInstance *>
PUBLIC	??$forward@PAUSGroundItemInstance@CPythonItem@@@std@@YA$$QAPAUSGroundItemInstance@CPythonItem@@AAPAU12@@Z ; std::forward<CPythonItem::SGroundItemInstance *>
PUBLIC	??$_Copy_memmove_tail@PAPAUSGroundItemInstance@CPythonItem@@@std@@YAPAPAUSGroundItemInstance@CPythonItem@@QBDQAPAU12@II@Z ; std::_Copy_memmove_tail<CPythonItem::SGroundItemInstance * *>
PUBLIC	??$move@AAPAPAUSGroundItemInstance@CPythonItem@@@std@@YA$$QAPAPAUSGroundItemInstance@CPythonItem@@AAPAPAU12@@Z ; std::move<CPythonItem::SGroundItemInstance * * &>
PUBLIC	??$to_address@PAUSGroundItemInstance@CPythonItem@@@std@@YAPAPAUSGroundItemInstance@CPythonItem@@QAPAU12@@Z ; std::to_address<CPythonItem::SGroundItemInstance *>
PUBLIC	?_Get_first@?$_Compressed_pair@V?$allocator@U?$_Tree_node@U?$pair@$$CBKPAUSGroundItemInstance@CPythonItem@@@std@@PAX@std@@@std@@V?$_Tree_val@U?$_Tree_simple_types@U?$pair@$$CBKPAUSGroundItemInstance@CPythonItem@@@std@@@std@@@2@$00@std@@QBEABV?$allocator@U?$_Tree_node@U?$pair@$$CBKPAUSGroundItemInstance@CPythonItem@@@std@@PAX@std@@@2@XZ ; std::_Compressed_pair<std::allocator<std::_Tree_node<std::pair<unsigned long const ,CPythonItem::SGroundItemInstance *>,void *> >,std::_Tree_val<std::_Tree_simple_types<std::pair<unsigned long const ,CPythonItem::SGroundItemInstance *> > >,1>::_Get_first
PUBLIC	?allocate@?$allocator@PAUSGroundItemInstance@CPythonItem@@@std@@QAEPAPAUSGroundItemInstance@CPythonItem@@I@Z ; std::allocator<CPythonItem::SGroundItemInstance *>::allocate
PUBLIC	?capacity@?$vector@PAUSGroundItemInstance@CPythonItem@@V?$allocator@PAUSGroundItemInstance@CPythonItem@@@std@@@std@@QBEIXZ ; std::vector<CPythonItem::SGroundItemInstance *,std::allocator<CPythonItem::SGroundItemInstance *> >::capacity
PUBLIC	?_Getal@?$vector@PAUSGroundItemInstance@CPythonItem@@V?$allocator@PAUSGroundItemInstance@CPythonItem@@@std@@@std@@ABEABV?$allocator@PAUSGroundItemInstance@CPythonItem@@@2@XZ ; std::vector<CPythonItem::SGroundItemInstance *,std::allocator<CPythonItem::SGroundItemInstance *> >::_Getal
PUBLIC	?max_size@?$_Default_allocator_traits@V?$allocator@PAUSGroundItemInstance@CPythonItem@@@std@@@std@@SAIABV?$allocator@PAUSGroundItemInstance@CPythonItem@@@2@@Z ; std::_Default_allocator_traits<std::allocator<CPythonItem::SGroundItemInstance *> >::max_size
PUBLIC	?swap@?$pair@MH@std@@QAEXAAU12@@Z		; std::pair<float,int>::swap
PUBLIC	??0?$_Uninitialized_backout_al@V?$allocator@PAUSGroundItemInstance@CPythonItem@@@std@@@std@@QAE@PAPAUSGroundItemInstance@CPythonItem@@AAV?$allocator@PAUSGroundItemInstance@CPythonItem@@@1@@Z ; std::_Uninitialized_backout_al<std::allocator<CPythonItem::SGroundItemInstance *> >::_Uninitialized_backout_al<std::allocator<CPythonItem::SGroundItemInstance *> >
PUBLIC	??1?$_Uninitialized_backout_al@V?$allocator@PAUSGroundItemInstance@CPythonItem@@@std@@@std@@QAE@XZ ; std::_Uninitialized_backout_al<std::allocator<CPythonItem::SGroundItemInstance *> >::~_Uninitialized_backout_al<std::allocator<CPythonItem::SGroundItemInstance *> >
PUBLIC	?_Release@?$_Uninitialized_backout_al@V?$allocator@PAUSGroundItemInstance@CPythonItem@@@std@@@std@@QAEPAPAUSGroundItemInstance@CPythonItem@@XZ ; std::_Uninitialized_backout_al<std::allocator<CPythonItem::SGroundItemInstance *> >::_Release
PUBLIC	??$construct_at@PAU?$_Tree_node@U?$pair@$$CBKPAUSGroundItemInstance@CPythonItem@@@std@@PAX@std@@ABQAU12@@std@@YAPAPAU?$_Tree_node@U?$pair@$$CBKPAUSGroundItemInstance@CPythonItem@@@std@@PAX@0@QAPAU10@ABQAU10@@Z ; std::construct_at<std::_Tree_node<std::pair<unsigned long const ,CPythonItem::SGroundItemInstance *>,void *> *,std::_Tree_node<std::pair<unsigned long const ,CPythonItem::SGroundItemInstance *>,void *> * const &>
PUBLIC	??$forward@ABQAU?$_Tree_node@U?$pair@$$CBKPAUSGroundItemInstance@CPythonItem@@@std@@PAX@std@@@std@@YAABQAU?$_Tree_node@U?$pair@$$CBKPAUSGroundItemInstance@CPythonItem@@@std@@PAX@0@ABQAU10@@Z ; std::forward<std::_Tree_node<std::pair<unsigned long const ,CPythonItem::SGroundItemInstance *>,void *> * const &>
PUBLIC	??$_Emplace_back@PAUSGroundItemInstance@CPythonItem@@@?$_Uninitialized_backout_al@V?$allocator@PAUSGroundItemInstance@CPythonItem@@@std@@@std@@QAEX$$QAPAUSGroundItemInstance@CPythonItem@@@Z ; std::_Uninitialized_backout_al<std::allocator<CPythonItem::SGroundItemInstance *> >::_Emplace_back<CPythonItem::SGroundItemInstance *>
PUBLIC	??$_To_address@PAPAUSGroundItemInstance@CPythonItem@@@std@@YA?A_PABQAPAUSGroundItemInstance@CPythonItem@@@Z ; std::_To_address<CPythonItem::SGroundItemInstance * *>
PUBLIC	??$_Copy_memmove@PAPAUSGroundItemInstance@CPythonItem@@PAPAU12@@std@@YAPAPAUSGroundItemInstance@CPythonItem@@PAPAU12@00@Z ; std::_Copy_memmove<CPythonItem::SGroundItemInstance * *,CPythonItem::SGroundItemInstance * *>
PUBLIC	??$move@AAPAUSGroundItemInstance@CPythonItem@@@std@@YA$$QAPAUSGroundItemInstance@CPythonItem@@AAPAU12@@Z ; std::move<CPythonItem::SGroundItemInstance * &>
PUBLIC	??$construct_at@PAUSGroundItemInstance@CPythonItem@@ABQAU12@@std@@YAPAPAUSGroundItemInstance@CPythonItem@@QAPAU12@ABQAU12@@Z ; std::construct_at<CPythonItem::SGroundItemInstance *,CPythonItem::SGroundItemInstance * const &>
PUBLIC	??$addressof@PAUSGroundItemInstance@CPythonItem@@@std@@YAPAPAUSGroundItemInstance@CPythonItem@@AAPAU12@@Z ; std::addressof<CPythonItem::SGroundItemInstance *>
PUBLIC	??$forward@AAPAU?$pair@MH@std@@@std@@YAAAPAU?$pair@MH@0@AAPAU10@@Z ; std::forward<std::pair<float,int> * &>
PUBLIC	??$_Med3_unchecked@PAU?$pair@MH@std@@U?$less@X@2@@std@@YAXPAU?$pair@MH@0@00U?$less@X@0@@Z ; std::_Med3_unchecked<std::pair<float,int> *,std::less<void> >
PUBLIC	??$_Pop_heap_hole_unchecked@PAU?$pair@MH@std@@U12@U?$less@X@2@@std@@YAXPAU?$pair@MH@0@00$$QAU10@U?$less@X@0@@Z ; std::_Pop_heap_hole_unchecked<std::pair<float,int> *,std::pair<float,int>,std::less<void> >
PUBLIC	??$_Push_heap_by_index@PAU?$pair@MH@std@@U12@U?$less@X@2@@std@@YAXPAU?$pair@MH@0@HH$$QAU10@U?$less@X@0@@Z ; std::_Push_heap_by_index<std::pair<float,int> *,std::pair<float,int>,std::less<void> >
PUBLIC	??$forward@U?$pair@MH@std@@@std@@YA$$QAU?$pair@MH@0@AAU10@@Z ; std::forward<std::pair<float,int> >
PUBLIC	??$?__MMHMH@std@@YA?AUpartial_ordering@0@ABU?$pair@MH@0@0@Z ; std::operator<=><float,int,float,int>
PUBLIC	?_Getal@?$_Tree@V?$_Tmap_traits@KPAUSGroundItemInstance@CPythonItem@@U?$less@K@std@@V?$allocator@U?$pair@$$CBKPAUSGroundItemInstance@CPythonItem@@@std@@@4@$0A@@std@@@std@@IBEABV?$allocator@U?$_Tree_node@U?$pair@$$CBKPAUSGroundItemInstance@CPythonItem@@@std@@PAX@std@@@2@XZ ; std::_Tree<std::_Tmap_traits<unsigned long,CPythonItem::SGroundItemInstance *,std::less<unsigned long>,std::allocator<std::pair<unsigned long const ,CPythonItem::SGroundItemInstance *> >,0> >::_Getal
PUBLIC	??0?$allocator@U?$_Tree_node@U?$pair@$$CBKPAUSGroundItemInstance@CPythonItem@@@std@@PAX@std@@@std@@QAE@XZ ; std::allocator<std::_Tree_node<std::pair<unsigned long const ,CPythonItem::SGroundItemInstance *>,void *> >::allocator<std::_Tree_node<std::pair<unsigned long const ,CPythonItem::SGroundItemInstance *>,void *> >
PUBLIC	?deallocate@?$allocator@U?$_Tree_node@U?$pair@$$CBKPAUSGroundItemInstance@CPythonItem@@@std@@PAX@std@@@std@@QAEXQAU?$_Tree_node@U?$pair@$$CBKPAUSGroundItemInstance@CPythonItem@@@std@@PAX@2@I@Z ; std::allocator<std::_Tree_node<std::pair<unsigned long const ,CPythonItem::SGroundItemInstance *>,void *> >::deallocate
PUBLIC	?allocate@?$allocator@U?$_Tree_node@U?$pair@$$CBKPAUSGroundItemInstance@CPythonItem@@@std@@PAX@std@@@std@@QAEPAU?$_Tree_node@U?$pair@$$CBKPAUSGroundItemInstance@CPythonItem@@@std@@PAX@2@I@Z ; std::allocator<std::_Tree_node<std::pair<unsigned long const ,CPythonItem::SGroundItemInstance *>,void *> >::allocate
PUBLIC	?max_size@?$_Default_allocator_traits@V?$allocator@U?$_Tree_node@U?$pair@$$CBKPAUSGroundItemInstance@CPythonItem@@@std@@PAX@std@@@std@@@std@@SAIABV?$allocator@U?$_Tree_node@U?$pair@$$CBKPAUSGroundItemInstance@CPythonItem@@@std@@PAX@std@@@2@@Z ; std::_Default_allocator_traits<std::allocator<std::_Tree_node<std::pair<unsigned long const ,CPythonItem::SGroundItemInstance *>,void *> > >::max_size
PUBLIC	??0?$_Tree_val@U?$_Tree_simple_types@U?$pair@$$CBKPAUSGroundItemInstance@CPythonItem@@@std@@@std@@@std@@QAE@XZ ; std::_Tree_val<std::_Tree_simple_types<std::pair<unsigned long const ,CPythonItem::SGroundItemInstance *> > >::_Tree_val<std::_Tree_simple_types<std::pair<unsigned long const ,CPythonItem::SGroundItemInstance *> > >
PUBLIC	?_Get_first@?$_Compressed_pair@U?$less@K@std@@V?$_Compressed_pair@V?$allocator@U?$_Tree_node@U?$pair@$$CBKPAUSGroundItemInstance@CPythonItem@@@std@@PAX@std@@@std@@V?$_Tree_val@U?$_Tree_simple_types@U?$pair@$$CBKPAUSGroundItemInstance@CPythonItem@@@std@@@std@@@2@$00@2@$00@std@@QBEABU?$less@K@2@XZ ; std::_Compressed_pair<std::less<unsigned long>,std::_Compressed_pair<std::allocator<std::_Tree_node<std::pair<unsigned long const ,CPythonItem::SGroundItemInstance *>,void *> >,std::_Tree_val<std::_Tree_simple_types<std::pair<unsigned long const ,CPythonItem::SGroundItemInstance *> > >,1>,1>::_Get_first
PUBLIC	?max_size@?$vector@PAUSGroundItemInstance@CPythonItem@@V?$allocator@PAUSGroundItemInstance@CPythonItem@@@std@@@std@@QBEIXZ ; std::vector<CPythonItem::SGroundItemInstance *,std::allocator<CPythonItem::SGroundItemInstance *> >::max_size
PUBLIC	?_Calculate_growth@?$vector@PAUSGroundItemInstance@CPythonItem@@V?$allocator@PAUSGroundItemInstance@CPythonItem@@@std@@@std@@ABEII@Z ; std::vector<CPythonItem::SGroundItemInstance *,std::allocator<CPythonItem::SGroundItemInstance *> >::_Calculate_growth
PUBLIC	?_Change_array@?$vector@PAUSGroundItemInstance@CPythonItem@@V?$allocator@PAUSGroundItemInstance@CPythonItem@@@std@@@std@@AAEXQAPAUSGroundItemInstance@CPythonItem@@II@Z ; std::vector<CPythonItem::SGroundItemInstance *,std::allocator<CPythonItem::SGroundItemInstance *> >::_Change_array
PUBLIC	?_Xlength@?$vector@PAUSGroundItemInstance@CPythonItem@@V?$allocator@PAUSGroundItemInstance@CPythonItem@@@std@@@std@@CAXXZ ; std::vector<CPythonItem::SGroundItemInstance *,std::allocator<CPythonItem::SGroundItemInstance *> >::_Xlength
PUBLIC	??1_Reallocation_guard@?$vector@PAUSGroundItemInstance@CPythonItem@@V?$allocator@PAUSGroundItemInstance@CPythonItem@@@std@@@std@@QAE@XZ ; std::vector<CPythonItem::SGroundItemInstance *,std::allocator<CPythonItem::SGroundItemInstance *> >::_Reallocation_guard::~_Reallocation_guard
PUBLIC	??0?$_Alloc_construct_ptr@V?$allocator@U?$_Tree_node@U?$pair@$$CBKPAUSGroundItemInstance@CPythonItem@@@std@@PAX@std@@@std@@@std@@QAE@AAV?$allocator@U?$_Tree_node@U?$pair@$$CBKPAUSGroundItemInstance@CPythonItem@@@std@@PAX@std@@@1@@Z ; std::_Alloc_construct_ptr<std::allocator<std::_Tree_node<std::pair<unsigned long const ,CPythonItem::SGroundItemInstance *>,void *> > >::_Alloc_construct_ptr<std::allocator<std::_Tree_node<std::pair<unsigned long const ,CPythonItem::SGroundItemInstance *>,void *> > >
PUBLIC	?_Allocate@?$_Alloc_construct_ptr@V?$allocator@U?$_Tree_node@U?$pair@$$CBKPAUSGroundItemInstance@CPythonItem@@@std@@PAX@std@@@std@@@std@@QAEXXZ ; std::_Alloc_construct_ptr<std::allocator<std::_Tree_node<std::pair<unsigned long const ,CPythonItem::SGroundItemInstance *>,void *> > >::_Allocate
PUBLIC	??$_Construct_in_place@PAU?$_Tree_node@U?$pair@$$CBKPAUSGroundItemInstance@CPythonItem@@@std@@PAX@std@@ABQAU12@@std@@YAXAAPAU?$_Tree_node@U?$pair@$$CBKPAUSGroundItemInstance@CPythonItem@@@std@@PAX@0@ABQAU10@@Z ; std::_Construct_in_place<std::_Tree_node<std::pair<unsigned long const ,CPythonItem::SGroundItemInstance *>,void *> *,std::_Tree_node<std::pair<unsigned long const ,CPythonItem::SGroundItemInstance *>,void *> * const &>
PUBLIC	??$_Uninitialized_move@PAPAUSGroundItemInstance@CPythonItem@@V?$allocator@PAUSGroundItemInstance@CPythonItem@@@std@@@std@@YAPAPAUSGroundItemInstance@CPythonItem@@QAPAU12@0PAPAU12@AAV?$allocator@PAUSGroundItemInstance@CPythonItem@@@0@@Z ; std::_Uninitialized_move<CPythonItem::SGroundItemInstance * *,std::allocator<CPythonItem::SGroundItemInstance *> >
PUBLIC	??$_Get_unwrapped@ABQAPAUSGroundItemInstance@CPythonItem@@@std@@YA?A_TABQAPAUSGroundItemInstance@CPythonItem@@@Z ; std::_Get_unwrapped<CPythonItem::SGroundItemInstance * * const &>
PUBLIC	??$construct@PAUSGroundItemInstance@CPythonItem@@ABQAU12@@?$_Default_allocator_traits@V?$allocator@PAUSGroundItemInstance@CPythonItem@@@std@@@std@@SAXAAV?$allocator@PAUSGroundItemInstance@CPythonItem@@@1@QAPAUSGroundItemInstance@CPythonItem@@ABQAU34@@Z ; std::_Default_allocator_traits<std::allocator<CPythonItem::SGroundItemInstance *> >::construct<CPythonItem::SGroundItemInstance *,CPythonItem::SGroundItemInstance * const &>
PUBLIC	??$_Allocate_at_least_helper@V?$allocator@PAUSGroundItemInstance@CPythonItem@@@std@@@std@@YAPAPAUSGroundItemInstance@CPythonItem@@AAV?$allocator@PAUSGroundItemInstance@CPythonItem@@@0@AAI@Z ; std::_Allocate_at_least_helper<std::allocator<CPythonItem::SGroundItemInstance *> >
PUBLIC	??$_Construct_in_place@PAUSGroundItemInstance@CPythonItem@@ABQAU12@@std@@YAXAAPAUSGroundItemInstance@CPythonItem@@ABQAU12@@Z ; std::_Construct_in_place<CPythonItem::SGroundItemInstance *,CPythonItem::SGroundItemInstance * const &>
PUBLIC	??$destroy_at@U?$pair@$$CBKPAUSGroundItemInstance@CPythonItem@@@std@@@std@@YAXQAU?$pair@$$CBKPAUSGroundItemInstance@CPythonItem@@@0@@Z ; std::destroy_at<std::pair<unsigned long const ,CPythonItem::SGroundItemInstance *> >
PUBLIC	??$construct_at@PAU?$_Tree_node@U?$pair@$$CBKPAUSGroundItemInstance@CPythonItem@@@std@@PAX@std@@AAPAU12@@std@@YAPAPAU?$_Tree_node@U?$pair@$$CBKPAUSGroundItemInstance@CPythonItem@@@std@@PAX@0@QAPAU10@AAPAU10@@Z ; std::construct_at<std::_Tree_node<std::pair<unsigned long const ,CPythonItem::SGroundItemInstance *>,void *> *,std::_Tree_node<std::pair<unsigned long const ,CPythonItem::SGroundItemInstance *>,void *> * &>
PUBLIC	??$addressof@PAU?$_Tree_node@U?$pair@$$CBKPAUSGroundItemInstance@CPythonItem@@@std@@PAX@std@@@std@@YAPAPAU?$_Tree_node@U?$pair@$$CBKPAUSGroundItemInstance@CPythonItem@@@std@@PAX@0@AAPAU10@@Z ; std::addressof<std::_Tree_node<std::pair<unsigned long const ,CPythonItem::SGroundItemInstance *>,void *> *>
PUBLIC	??$construct_at@U?$pair@$$CBKPAUSGroundItemInstance@CPythonItem@@@std@@U12@@std@@YAPAU?$pair@$$CBKPAUSGroundItemInstance@CPythonItem@@@0@QAU10@$$QAU10@@Z ; std::construct_at<std::pair<unsigned long const ,CPythonItem::SGroundItemInstance *>,std::pair<unsigned long const ,CPythonItem::SGroundItemInstance *> >
PUBLIC	??$?0AAPAU?$pair@MH@std@@AAPAU01@$0A@@?$pair@PAU?$pair@MH@std@@PAU12@@std@@QAE@AAPAU?$pair@MH@1@0@Z ; std::pair<std::pair<float,int> *,std::pair<float,int> *>::pair<std::pair<float,int> *,std::pair<float,int> *><std::pair<float,int> * &,std::pair<float,int> * &,0>
PUBLIC	??$swap@MH$0A@@std@@YAXAAU?$pair@MH@0@0@Z	; std::swap<float,int,0>
PUBLIC	??$_Next_iter@PAU?$pair@MH@std@@@std@@YAPAU?$pair@MH@0@PAU10@@Z ; std::_Next_iter<std::pair<float,int> *>
PUBLIC	??$_Guess_median_unchecked@PAU?$pair@MH@std@@U?$less@X@2@@std@@YAXPAU?$pair@MH@0@00U?$less@X@0@@Z ; std::_Guess_median_unchecked<std::pair<float,int> *,std::less<void> >
PUBLIC	??$_Prev_iter@PAU?$pair@MH@std@@@std@@YAPAU?$pair@MH@0@PAU10@@Z ; std::_Prev_iter<std::pair<float,int> *>
PUBLIC	??$_Pop_heap_unchecked@PAU?$pair@MH@std@@U?$less@X@2@@std@@YAXPAU?$pair@MH@0@0U?$less@X@0@@Z ; std::_Pop_heap_unchecked<std::pair<float,int> *,std::less<void> >
PUBLIC	??$_Pop_heap_hole_by_index@PAU?$pair@MH@std@@U12@U?$less@X@2@@std@@YAXPAU?$pair@MH@0@HH$$QAU10@U?$less@X@0@@Z ; std::_Pop_heap_hole_by_index<std::pair<float,int> *,std::pair<float,int>,std::less<void> >
PUBLIC	??$?4U?$pair@MH@std@@$0A@@?$pair@MH@std@@QAEAAU01@$$QAU01@@Z ; std::pair<float,int>::operator=<std::pair<float,int>,0>
PUBLIC	??$_Move_backward_unchecked@PAU?$pair@MH@std@@PAU12@@std@@YAPAU?$pair@MH@0@PAU10@00@Z ; std::_Move_backward_unchecked<std::pair<float,int> *,std::pair<float,int> *>
PUBLIC	??$?RAAU?$pair@MH@std@@AAU01@@?$less@X@std@@QBE_NAAU?$pair@MH@1@0@Z ; std::less<void>::operator()<std::pair<float,int> &,std::pair<float,int> &>
PUBLIC	??$move@AAU?$pair@MH@std@@@std@@YA$$QAU?$pair@MH@0@AAU10@@Z ; std::move<std::pair<float,int> &>
PUBLIC	?_Get_first@?$_Compressed_pair@V?$allocator@PAVCItemData@@@std@@V?$_Vector_val@U?$_Simple_types@PAVCItemData@@@std@@@2@$00@std@@QAEAAV?$allocator@PAVCItemData@@@2@XZ ; std::_Compressed_pair<std::allocator<CItemData *>,std::_Vector_val<std::_Simple_types<CItemData *> >,1>::_Get_first
PUBLIC	?max_size@?$_Tree@V?$_Tmap_traits@KPAUSGroundItemInstance@CPythonItem@@U?$less@K@std@@V?$allocator@U?$pair@$$CBKPAUSGroundItemInstance@CPythonItem@@@std@@@4@$0A@@std@@@std@@QBEIXZ ; std::_Tree<std::_Tmap_traits<unsigned long,CPythonItem::SGroundItemInstance *,std::less<unsigned long>,std::allocator<std::pair<unsigned long const ,CPythonItem::SGroundItemInstance *> >,0> >::max_size
PUBLIC	?_Getcomp@?$_Tree@V?$_Tmap_traits@KPAUSGroundItemInstance@CPythonItem@@U?$less@K@std@@V?$allocator@U?$pair@$$CBKPAUSGroundItemInstance@CPythonItem@@@std@@@4@$0A@@std@@@std@@IBEABU?$less@K@2@XZ ; std::_Tree<std::_Tmap_traits<unsigned long,CPythonItem::SGroundItemInstance *,std::less<unsigned long>,std::allocator<std::pair<unsigned long const ,CPythonItem::SGroundItemInstance *> >,0> >::_Getcomp
PUBLIC	?deallocate@?$_Default_allocator_traits@V?$allocator@U?$_Tree_node@U?$pair@$$CBKPAUSGroundItemInstance@CPythonItem@@@std@@PAX@std@@@std@@@std@@SAXAAV?$allocator@U?$_Tree_node@U?$pair@$$CBKPAUSGroundItemInstance@CPythonItem@@@std@@PAX@std@@@2@QAU?$_Tree_node@U?$pair@$$CBKPAUSGroundItemInstance@CPythonItem@@@std@@PAX@2@I@Z ; std::_Default_allocator_traits<std::allocator<std::_Tree_node<std::pair<unsigned long const ,CPythonItem::SGroundItemInstance *>,void *> > >::deallocate
PUBLIC	?_Max@?$_Tree_val@U?$_Tree_simple_types@U?$pair@$$CBKPAUSGroundItemInstance@CPythonItem@@@std@@@std@@@std@@SAPAU?$_Tree_node@U?$pair@$$CBKPAUSGroundItemInstance@CPythonItem@@@std@@PAX@2@PAU32@@Z ; std::_Tree_val<std::_Tree_simple_types<std::pair<unsigned long const ,CPythonItem::SGroundItemInstance *> > >::_Max
PUBLIC	?_Min@?$_Tree_val@U?$_Tree_simple_types@U?$pair@$$CBKPAUSGroundItemInstance@CPythonItem@@@std@@@std@@@std@@SAPAU?$_Tree_node@U?$pair@$$CBKPAUSGroundItemInstance@CPythonItem@@@std@@PAX@2@PAU32@@Z ; std::_Tree_val<std::_Tree_simple_types<std::pair<unsigned long const ,CPythonItem::SGroundItemInstance *> > >::_Min
PUBLIC	?_Lrotate@?$_Tree_val@U?$_Tree_simple_types@U?$pair@$$CBKPAUSGroundItemInstance@CPythonItem@@@std@@@std@@@std@@QAEXPAU?$_Tree_node@U?$pair@$$CBKPAUSGroundItemInstance@CPythonItem@@@std@@PAX@2@@Z ; std::_Tree_val<std::_Tree_simple_types<std::pair<unsigned long const ,CPythonItem::SGroundItemInstance *> > >::_Lrotate
PUBLIC	?_Rrotate@?$_Tree_val@U?$_Tree_simple_types@U?$pair@$$CBKPAUSGroundItemInstance@CPythonItem@@@std@@@std@@@std@@QAEXPAU?$_Tree_node@U?$pair@$$CBKPAUSGroundItemInstance@CPythonItem@@@std@@PAX@2@@Z ; std::_Tree_val<std::_Tree_simple_types<std::pair<unsigned long const ,CPythonItem::SGroundItemInstance *> > >::_Rrotate
PUBLIC	??0?$allocator@PAUSGroundItemInstance@CPythonItem@@@std@@QAE@XZ ; std::allocator<CPythonItem::SGroundItemInstance *>::allocator<CPythonItem::SGroundItemInstance *>
PUBLIC	?deallocate@?$allocator@PAUSGroundItemInstance@CPythonItem@@@std@@QAEXQAPAUSGroundItemInstance@CPythonItem@@I@Z ; std::allocator<CPythonItem::SGroundItemInstance *>::deallocate
PUBLIC	??0?$_Vector_val@U?$_Simple_types@PAUSGroundItemInstance@CPythonItem@@@std@@@std@@QAE@XZ ; std::_Vector_val<std::_Simple_types<CPythonItem::SGroundItemInstance *> >::_Vector_val<std::_Simple_types<CPythonItem::SGroundItemInstance *> >
PUBLIC	?_Get_first@?$_Compressed_pair@V?$allocator@PAUSGroundItemInstance@CPythonItem@@@std@@V?$_Vector_val@U?$_Simple_types@PAUSGroundItemInstance@CPythonItem@@@std@@@2@$00@std@@QAEAAV?$allocator@PAUSGroundItemInstance@CPythonItem@@@2@XZ ; std::_Compressed_pair<std::allocator<CPythonItem::SGroundItemInstance *>,std::_Vector_val<std::_Simple_types<CPythonItem::SGroundItemInstance *> >,1>::_Get_first
PUBLIC	??0?$_Tree_temp_node_alloc@V?$allocator@U?$_Tree_node@U?$pair@$$CBKPAUSGroundItemInstance@CPythonItem@@@std@@PAX@std@@@std@@@std@@QAE@AAV?$allocator@U?$_Tree_node@U?$pair@$$CBKPAUSGroundItemInstance@CPythonItem@@@std@@PAX@std@@@1@@Z ; std::_Tree_temp_node_alloc<std::allocator<std::_Tree_node<std::pair<unsigned long const ,CPythonItem::SGroundItemInstance *>,void *> > >::_Tree_temp_node_alloc<std::allocator<std::_Tree_node<std::pair<unsigned long const ,CPythonItem::SGroundItemInstance *>,void *> > >
PUBLIC	??1?$_Alloc_construct_ptr@V?$allocator@U?$_Tree_node@U?$pair@$$CBKPAUSGroundItemInstance@CPythonItem@@@std@@PAX@std@@@std@@@std@@QAE@XZ ; std::_Alloc_construct_ptr<std::allocator<std::_Tree_node<std::pair<unsigned long const ,CPythonItem::SGroundItemInstance *>,void *> > >::~_Alloc_construct_ptr<std::allocator<std::_Tree_node<std::pair<unsigned long const ,CPythonItem::SGroundItemInstance *>,void *> > >
PUBLIC	??$_Buyheadnode@V?$allocator@U?$_Tree_node@U?$pair@$$CBKPAUSGroundItemInstance@CPythonItem@@@std@@PAX@std@@@std@@@?$_Tree_node@U?$pair@$$CBKPAUSGroundItemInstance@CPythonItem@@@std@@PAX@std@@SAPAU01@AAV?$allocator@U?$_Tree_node@U?$pair@$$CBKPAUSGroundItemInstance@CPythonItem@@@std@@PAX@std@@@1@@Z ; std::_Tree_node<std::pair<unsigned long const ,CPythonItem::SGroundItemInstance *>,void *>::_Buyheadnode<std::allocator<std::_Tree_node<std::pair<unsigned long const ,CPythonItem::SGroundItemInstance *>,void *> > >
PUBLIC	??$_Unfancy_maybe_null@PAUSGroundItemInstance@CPythonItem@@@std@@YAPAPAUSGroundItemInstance@CPythonItem@@PAPAU12@@Z ; std::_Unfancy_maybe_null<CPythonItem::SGroundItemInstance *>
PUBLIC	??$_Destroy_range@V?$allocator@PAUSGroundItemInstance@CPythonItem@@@std@@@std@@YAXPAPAUSGroundItemInstance@CPythonItem@@QAPAU12@AAV?$allocator@PAUSGroundItemInstance@CPythonItem@@@0@@Z ; std::_Destroy_range<std::allocator<CPythonItem::SGroundItemInstance *> >
PUBLIC	??$exchange@PAU?$_Tree_node@U?$pair@$$CBKPAUSGroundItemInstance@CPythonItem@@@std@@PAX@std@@$$T@std@@YAPAU?$_Tree_node@U?$pair@$$CBKPAUSGroundItemInstance@CPythonItem@@@std@@PAX@0@AAPAU10@$$QA$$T@Z ; std::exchange<std::_Tree_node<std::pair<unsigned long const ,CPythonItem::SGroundItemInstance *>,void *> *,std::nullptr_t>
PUBLIC	??$_Emplace_reallocate@ABQAUSGroundItemInstance@CPythonItem@@@?$vector@PAUSGroundItemInstance@CPythonItem@@V?$allocator@PAUSGroundItemInstance@CPythonItem@@@std@@@std@@AAEPAPAUSGroundItemInstance@CPythonItem@@QAPAU23@ABQAU23@@Z ; std::vector<CPythonItem::SGroundItemInstance *,std::allocator<CPythonItem::SGroundItemInstance *> >::_Emplace_reallocate<CPythonItem::SGroundItemInstance * const &>
PUBLIC	??$_Emplace_back_with_unused_capacity@ABQAUSGroundItemInstance@CPythonItem@@@?$vector@PAUSGroundItemInstance@CPythonItem@@V?$allocator@PAUSGroundItemInstance@CPythonItem@@@std@@@std@@AAEAAPAUSGroundItemInstance@CPythonItem@@ABQAU23@@Z ; std::vector<CPythonItem::SGroundItemInstance *,std::allocator<CPythonItem::SGroundItemInstance *> >::_Emplace_back_with_unused_capacity<CPythonItem::SGroundItemInstance * const &>
PUBLIC	??$forward@ABQAUSGroundItemInstance@CPythonItem@@@std@@YAABQAUSGroundItemInstance@CPythonItem@@ABQAU12@@Z ; std::forward<CPythonItem::SGroundItemInstance * const &>
PUBLIC	??$destroy_at@PAUSGroundItemInstance@CPythonItem@@@std@@YAXQAPAUSGroundItemInstance@CPythonItem@@@Z ; std::destroy_at<CPythonItem::SGroundItemInstance *>
PUBLIC	??$_Destroy_in_place@PAU?$_Tree_node@U?$pair@$$CBKPAUSGroundItemInstance@CPythonItem@@@std@@PAX@std@@@std@@YAXAAPAU?$_Tree_node@U?$pair@$$CBKPAUSGroundItemInstance@CPythonItem@@@std@@PAX@0@@Z ; std::_Destroy_in_place<std::_Tree_node<std::pair<unsigned long const ,CPythonItem::SGroundItemInstance *>,void *> *>
PUBLIC	??$destroy@U?$pair@$$CBKPAUSGroundItemInstance@CPythonItem@@@std@@@?$_Default_allocator_traits@V?$allocator@U?$_Tree_node@U?$pair@$$CBKPAUSGroundItemInstance@CPythonItem@@@std@@PAX@std@@@std@@@std@@SAXAAV?$allocator@U?$_Tree_node@U?$pair@$$CBKPAUSGroundItemInstance@CPythonItem@@@std@@PAX@std@@@1@QAU?$pair@$$CBKPAUSGroundItemInstance@CPythonItem@@@1@@Z ; std::_Default_allocator_traits<std::allocator<std::_Tree_node<std::pair<unsigned long const ,CPythonItem::SGroundItemInstance *>,void *> > >::destroy<std::pair<unsigned long const ,CPythonItem::SGroundItemInstance *> >
PUBLIC	??$forward@PAU?$_Tree_node@U?$pair@$$CBKPAUSGroundItemInstance@CPythonItem@@@std@@PAX@std@@@std@@YA$$QAPAU?$_Tree_node@U?$pair@$$CBKPAUSGroundItemInstance@CPythonItem@@@std@@PAX@0@AAPAU10@@Z ; std::forward<std::_Tree_node<std::pair<unsigned long const ,CPythonItem::SGroundItemInstance *>,void *> *>
PUBLIC	??$forward@AAPAU?$_Tree_node@U?$pair@$$CBKPAUSGroundItemInstance@CPythonItem@@@std@@PAX@std@@@std@@YAAAPAU?$_Tree_node@U?$pair@$$CBKPAUSGroundItemInstance@CPythonItem@@@std@@PAX@0@AAPAU10@@Z ; std::forward<std::_Tree_node<std::pair<unsigned long const ,CPythonItem::SGroundItemInstance *>,void *> * &>
PUBLIC	??$_Construct_in_place@PAU?$_Tree_node@U?$pair@$$CBKPAUSGroundItemInstance@CPythonItem@@@std@@PAX@std@@AAPAU12@@std@@YAXAAPAU?$_Tree_node@U?$pair@$$CBKPAUSGroundItemInstance@CPythonItem@@@std@@PAX@0@0@Z ; std::_Construct_in_place<std::_Tree_node<std::pair<unsigned long const ,CPythonItem::SGroundItemInstance *>,void *> *,std::_Tree_node<std::pair<unsigned long const ,CPythonItem::SGroundItemInstance *>,void *> * &>
PUBLIC	??$construct@U?$pair@$$CBKPAUSGroundItemInstance@CPythonItem@@@std@@U12@@?$_Default_allocator_traits@V?$allocator@U?$_Tree_node@U?$pair@$$CBKPAUSGroundItemInstance@CPythonItem@@@std@@PAX@std@@@std@@@std@@SAXAAV?$allocator@U?$_Tree_node@U?$pair@$$CBKPAUSGroundItemInstance@CPythonItem@@@std@@PAX@std@@@1@QAU?$pair@$$CBKPAUSGroundItemInstance@CPythonItem@@@1@$$QAU31@@Z ; std::_Default_allocator_traits<std::allocator<std::_Tree_node<std::pair<unsigned long const ,CPythonItem::SGroundItemInstance *>,void *> > >::construct<std::pair<unsigned long const ,CPythonItem::SGroundItemInstance *>,std::pair<unsigned long const ,CPythonItem::SGroundItemInstance *> >
PUBLIC	??$_Kfn@$$CBKPAUSGroundItemInstance@CPythonItem@@@?$_Tmap_traits@KPAUSGroundItemInstance@CPythonItem@@U?$less@K@std@@V?$allocator@U?$pair@$$CBKPAUSGroundItemInstance@CPythonItem@@@std@@@4@$0A@@std@@SAABKABU?$pair@$$CBKPAUSGroundItemInstance@CPythonItem@@@1@@Z ; std::_Tmap_traits<unsigned long,CPythonItem::SGroundItemInstance *,std::less<unsigned long>,std::allocator<std::pair<unsigned long const ,CPythonItem::SGroundItemInstance *> >,0>::_Kfn<unsigned long const ,CPythonItem::SGroundItemInstance *>
PUBLIC	??$_Partition_by_median_guess_unchecked@PAU?$pair@MH@std@@U?$less@X@2@@std@@YA?AU?$pair@PAU?$pair@MH@std@@PAU12@@0@PAU?$pair@MH@0@0U?$less@X@0@@Z ; std::_Partition_by_median_guess_unchecked<std::pair<float,int> *,std::less<void> >
PUBLIC	??$_Sort_heap_unchecked@PAU?$pair@MH@std@@U?$less@X@2@@std@@YAXPAU?$pair@MH@0@0U?$less@X@0@@Z ; std::_Sort_heap_unchecked<std::pair<float,int> *,std::less<void> >
PUBLIC	??$_Make_heap_unchecked@PAU?$pair@MH@std@@U?$less@X@2@@std@@YAXPAU?$pair@MH@0@0U?$less@X@0@@Z ; std::_Make_heap_unchecked<std::pair<float,int> *,std::less<void> >
PUBLIC	??$?RHH@_Synth_three_way@std@@SA?A_PABH0@Z	; std::_Synth_three_way::operator()<int,int>
PUBLIC	??$?RMM@_Synth_three_way@std@@SA?A_PABM0@Z	; std::_Synth_three_way::operator()<float,float>
PUBLIC	??$_Insertion_sort_unchecked@PAU?$pair@MH@std@@U?$less@X@2@@std@@YAPAU?$pair@MH@0@QAU10@0U?$less@X@0@@Z ; std::_Insertion_sort_unchecked<std::pair<float,int> *,std::less<void> >
PUBLIC	??$?0$$V@?$_Compressed_pair@V?$allocator@U?$_Tree_node@U?$pair@$$CBKPAUSGroundItemInstance@CPythonItem@@@std@@PAX@std@@@std@@V?$_Tree_val@U?$_Tree_simple_types@U?$pair@$$CBKPAUSGroundItemInstance@CPythonItem@@@std@@@std@@@2@$00@std@@QAE@U_Zero_then_variadic_args_t@1@@Z ; std::_Compressed_pair<std::allocator<std::_Tree_node<std::pair<unsigned long const ,CPythonItem::SGroundItemInstance *>,void *> >,std::_Tree_val<std::_Tree_simple_types<std::pair<unsigned long const ,CPythonItem::SGroundItemInstance *> > >,1>::_Compressed_pair<std::allocator<std::_Tree_node<std::pair<unsigned long const ,CPythonItem::SGroundItemInstance *>,void *> >,std::_Tree_val<std::_Tree_simple_types<std::pair<unsigned long const ,CPythonItem::SGroundItemInstance *> > >,1><>
PUBLIC	??1?$_Tree_temp_node_alloc@V?$allocator@U?$_Tree_node@U?$pair@$$CBKPAUSGroundItemInstance@CPythonItem@@@std@@PAX@std@@@std@@@std@@QAE@XZ ; std::_Tree_temp_node_alloc<std::allocator<std::_Tree_node<std::pair<unsigned long const ,CPythonItem::SGroundItemInstance *>,void *> > >::~_Tree_temp_node_alloc<std::allocator<std::_Tree_node<std::pair<unsigned long const ,CPythonItem::SGroundItemInstance *>,void *> > >
PUBLIC	??0?$allocator@PAVCItemData@@@std@@QAE@XZ	; std::allocator<CItemData *>::allocator<CItemData *>
PUBLIC	?deallocate@?$allocator@PAVCItemData@@@std@@QAEXQAPAVCItemData@@I@Z ; std::allocator<CItemData *>::deallocate
PUBLIC	?_Getal@?$vector@PAVCItemData@@V?$allocator@PAVCItemData@@@std@@@std@@AAEAAV?$allocator@PAVCItemData@@@2@XZ ; std::vector<CItemData *,std::allocator<CItemData *> >::_Getal
PUBLIC	??0?$_Vector_val@U?$_Simple_types@PAVCItemData@@@std@@@std@@QAE@XZ ; std::_Vector_val<std::_Simple_types<CItemData *> >::_Vector_val<std::_Simple_types<CItemData *> >
PUBLIC	?_Check_grow_by_1@?$_Tree@V?$_Tmap_traits@KPAUSGroundItemInstance@CPythonItem@@U?$less@K@std@@V?$allocator@U?$pair@$$CBKPAUSGroundItemInstance@CPythonItem@@@std@@@4@$0A@@std@@@std@@IAEXXZ ; std::_Tree<std::_Tmap_traits<unsigned long,CPythonItem::SGroundItemInstance *,std::less<unsigned long>,std::allocator<std::pair<unsigned long const ,CPythonItem::SGroundItemInstance *> >,0> >::_Check_grow_by_1
PUBLIC	?_Alloc_sentinel_and_proxy@?$_Tree@V?$_Tmap_traits@KPAUSGroundItemInstance@CPythonItem@@U?$less@K@std@@V?$allocator@U?$pair@$$CBKPAUSGroundItemInstance@CPythonItem@@@std@@@4@$0A@@std@@@std@@IAEXXZ ; std::_Tree<std::_Tmap_traits<unsigned long,CPythonItem::SGroundItemInstance *,std::less<unsigned long>,std::allocator<std::pair<unsigned long const ,CPythonItem::SGroundItemInstance *> >,0> >::_Alloc_sentinel_and_proxy
PUBLIC	?_Extract@?$_Tree_val@U?$_Tree_simple_types@U?$pair@$$CBKPAUSGroundItemInstance@CPythonItem@@@std@@@std@@@std@@QAEPAU?$_Tree_node@U?$pair@$$CBKPAUSGroundItemInstance@CPythonItem@@@std@@PAX@2@V?$_Tree_unchecked_const_iterator@V?$_Tree_val@U?$_Tree_simple_types@U?$pair@$$CBKPAUSGroundItemInstance@CPythonItem@@@std@@@std@@@std@@U_Iterator_base0@2@@2@@Z ; std::_Tree_val<std::_Tree_simple_types<std::pair<unsigned long const ,CPythonItem::SGroundItemInstance *> > >::_Extract
PUBLIC	?_Insert_node@?$_Tree_val@U?$_Tree_simple_types@U?$pair@$$CBKPAUSGroundItemInstance@CPythonItem@@@std@@@std@@@std@@QAEPAU?$_Tree_node@U?$pair@$$CBKPAUSGroundItemInstance@CPythonItem@@@std@@PAX@2@U?$_Tree_id@PAU?$_Tree_node@U?$pair@$$CBKPAUSGroundItemInstance@CPythonItem@@@std@@PAX@std@@@2@QAU32@@Z ; std::_Tree_val<std::_Tree_simple_types<std::pair<unsigned long const ,CPythonItem::SGroundItemInstance *> > >::_Insert_node
PUBLIC	??D?$_Tree_const_iterator@V?$_Tree_val@U?$_Tree_simple_types@U?$pair@$$CBKPAUSGroundItemInstance@CPythonItem@@@std@@@std@@@std@@@std@@QBEABU?$pair@$$CBKPAUSGroundItemInstance@CPythonItem@@@1@XZ ; std::_Tree_const_iterator<std::_Tree_val<std::_Tree_simple_types<std::pair<unsigned long const ,CPythonItem::SGroundItemInstance *> > > >::operator*
PUBLIC	??E?$_Tree_unchecked_const_iterator@V?$_Tree_val@U?$_Tree_simple_types@U?$pair@$$CBKPAUSGroundItemInstance@CPythonItem@@@std@@@std@@@std@@U_Iterator_base0@2@@std@@QAEAAV01@XZ ; std::_Tree_unchecked_const_iterator<std::_Tree_val<std::_Tree_simple_types<std::pair<unsigned long const ,CPythonItem::SGroundItemInstance *> > >,std::_Iterator_base0>::operator++
PUBLIC	?_Get_first@?$_Compressed_pair@V?$allocator@U?$_Tree_node@U?$pair@$$CBKPAUSGroundItemInstance@CPythonItem@@@std@@PAX@std@@@std@@V?$_Tree_val@U?$_Tree_simple_types@U?$pair@$$CBKPAUSGroundItemInstance@CPythonItem@@@std@@@std@@@2@$00@std@@QAEAAV?$allocator@U?$_Tree_node@U?$pair@$$CBKPAUSGroundItemInstance@CPythonItem@@@std@@PAX@std@@@2@XZ ; std::_Compressed_pair<std::allocator<std::_Tree_node<std::pair<unsigned long const ,CPythonItem::SGroundItemInstance *>,void *> >,std::_Tree_val<std::_Tree_simple_types<std::pair<unsigned long const ,CPythonItem::SGroundItemInstance *> > >,1>::_Get_first
PUBLIC	?Delete@?$CDynamicPool@USGroundItemInstance@CPythonItem@@@@KAXPAUSGroundItemInstance@CPythonItem@@@Z ; CDynamicPool<CPythonItem::SGroundItemInstance>::Delete
PUBLIC	?clear@?$vector@PAUSGroundItemInstance@CPythonItem@@V?$allocator@PAUSGroundItemInstance@CPythonItem@@@std@@@std@@QAEXXZ ; std::vector<CPythonItem::SGroundItemInstance *,std::allocator<CPythonItem::SGroundItemInstance *> >::clear
PUBLIC	?_Unchecked_begin@?$vector@PAUSGroundItemInstance@CPythonItem@@V?$allocator@PAUSGroundItemInstance@CPythonItem@@@std@@@std@@QAEPAPAUSGroundItemInstance@CPythonItem@@XZ ; std::vector<CPythonItem::SGroundItemInstance *,std::allocator<CPythonItem::SGroundItemInstance *> >::_Unchecked_begin
PUBLIC	?_Unchecked_end@?$vector@PAUSGroundItemInstance@CPythonItem@@V?$allocator@PAUSGroundItemInstance@CPythonItem@@@std@@@std@@QAEPAPAUSGroundItemInstance@CPythonItem@@XZ ; std::vector<CPythonItem::SGroundItemInstance *,std::allocator<CPythonItem::SGroundItemInstance *> >::_Unchecked_end
PUBLIC	?_Tidy@?$vector@PAUSGroundItemInstance@CPythonItem@@V?$allocator@PAUSGroundItemInstance@CPythonItem@@@std@@@std@@AAEXXZ ; std::vector<CPythonItem::SGroundItemInstance *,std::allocator<CPythonItem::SGroundItemInstance *> >::_Tidy
PUBLIC	?_Orphan_range@?$vector@PAUSGroundItemInstance@CPythonItem@@V?$allocator@PAUSGroundItemInstance@CPythonItem@@@std@@@std@@ABEXPAPAUSGroundItemInstance@CPythonItem@@0@Z ; std::vector<CPythonItem::SGroundItemInstance *,std::allocator<CPythonItem::SGroundItemInstance *> >::_Orphan_range
PUBLIC	?_Getal@?$vector@PAUSGroundItemInstance@CPythonItem@@V?$allocator@PAUSGroundItemInstance@CPythonItem@@@std@@@std@@AAEAAV?$allocator@PAUSGroundItemInstance@CPythonItem@@@2@XZ ; std::vector<CPythonItem::SGroundItemInstance *,std::allocator<CPythonItem::SGroundItemInstance *> >::_Getal
PUBLIC	?_Extract@?$_In_place_key_extract_map_impl@KU?$pair@$$CBKPAUSGroundItemInstance@CPythonItem@@@std@@@std@@SAABKABU?$pair@$$CBKPAUSGroundItemInstance@CPythonItem@@@2@@Z ; std::_In_place_key_extract_map_impl<unsigned long,std::pair<unsigned long const ,CPythonItem::SGroundItemInstance *> >::_Extract
PUBLIC	??1?$_Tree_temp_node@V?$allocator@U?$_Tree_node@U?$pair@$$CBKPAUSGroundItemInstance@CPythonItem@@@std@@PAX@std@@@std@@@std@@QAE@XZ ; std::_Tree_temp_node<std::allocator<std::_Tree_node<std::pair<unsigned long const ,CPythonItem::SGroundItemInstance *>,void *> > >::~_Tree_temp_node<std::allocator<std::_Tree_node<std::pair<unsigned long const ,CPythonItem::SGroundItemInstance *>,void *> > >
PUBLIC	?_Release@?$_Alloc_construct_ptr@V?$allocator@U?$_Tree_node@U?$pair@$$CBKPAUSGroundItemInstance@CPythonItem@@@std@@PAX@std@@@std@@@std@@QAEPAU?$_Tree_node@U?$pair@$$CBKPAUSGroundItemInstance@CPythonItem@@@std@@PAX@2@XZ ; std::_Alloc_construct_ptr<std::allocator<std::_Tree_node<std::pair<unsigned long const ,CPythonItem::SGroundItemInstance *>,void *> > >::_Release
PUBLIC	??$_Destroy_range@V?$allocator@PAVCItemData@@@std@@@std@@YAXPAPAVCItemData@@QAPAV1@AAV?$allocator@PAVCItemData@@@0@@Z ; std::_Destroy_range<std::allocator<CItemData *> >
PUBLIC	??$?0ABU?$less@K@std@@U_Zero_then_variadic_args_t@1@@?$_Compressed_pair@U?$less@K@std@@V?$_Compressed_pair@V?$allocator@U?$_Tree_node@U?$pair@$$CBKPAUSGroundItemInstance@CPythonItem@@@std@@PAX@std@@@std@@V?$_Tree_val@U?$_Tree_simple_types@U?$pair@$$CBKPAUSGroundItemInstance@CPythonItem@@@std@@@std@@@2@$00@2@$00@std@@QAE@U_One_then_variadic_args_t@1@ABU?$less@K@1@$$QAU_Zero_then_variadic_args_t@1@@Z ; std::_Compressed_pair<std::less<unsigned long>,std::_Compressed_pair<std::allocator<std::_Tree_node<std::pair<unsigned long const ,CPythonItem::SGroundItemInstance *>,void *> >,std::_Tree_val<std::_Tree_simple_types<std::pair<unsigned long const ,CPythonItem::SGroundItemInstance *> > >,1>,1>::_Compressed_pair<std::less<unsigned long>,std::_Compressed_pair<std::allocator<std::_Tree_node<std::pair<unsigned long const ,CPythonItem::SGroundItemInstance *>,void *> >,std::_Tree_val<std::_Tree_simple_types<std::pair<unsigned long const ,CPythonItem::SGroundItemInstance *> > >,1>,1><std::less<unsigned long> const &,std::_Zero_then_variadic_args_t>
PUBLIC	??$addressof@V?$_Tree_val@U?$_Tree_simple_types@U?$pair@$$CBKPAUSGroundItemInstance@CPythonItem@@@std@@@std@@@std@@@std@@YAPAV?$_Tree_val@U?$_Tree_simple_types@U?$pair@$$CBKPAUSGroundItemInstance@CPythonItem@@@std@@@std@@@0@AAV10@@Z ; std::addressof<std::_Tree_val<std::_Tree_simple_types<std::pair<unsigned long const ,CPythonItem::SGroundItemInstance *> > > >
PUBLIC	??$addressof@$$CBV?$_Tree_val@U?$_Tree_simple_types@U?$pair@$$CBKPAUSGroundItemInstance@CPythonItem@@@std@@@std@@@std@@@std@@YAPBV?$_Tree_val@U?$_Tree_simple_types@U?$pair@$$CBKPAUSGroundItemInstance@CPythonItem@@@std@@@std@@@0@ABV10@@Z ; std::addressof<std::_Tree_val<std::_Tree_simple_types<std::pair<unsigned long const ,CPythonItem::SGroundItemInstance *> > > const >
PUBLIC	??$?0$$V@?$_Compressed_pair@V?$allocator@PAUSGroundItemInstance@CPythonItem@@@std@@V?$_Vector_val@U?$_Simple_types@PAUSGroundItemInstance@CPythonItem@@@std@@@2@$00@std@@QAE@U_Zero_then_variadic_args_t@1@@Z ; std::_Compressed_pair<std::allocator<CPythonItem::SGroundItemInstance *>,std::_Vector_val<std::_Simple_types<CPythonItem::SGroundItemInstance *> >,1>::_Compressed_pair<std::allocator<CPythonItem::SGroundItemInstance *>,std::_Vector_val<std::_Simple_types<CPythonItem::SGroundItemInstance *> >,1><>
PUBLIC	??$_Emplace_one_at_back@ABQAUSGroundItemInstance@CPythonItem@@@?$vector@PAUSGroundItemInstance@CPythonItem@@V?$allocator@PAUSGroundItemInstance@CPythonItem@@@std@@@std@@AAEAAPAUSGroundItemInstance@CPythonItem@@ABQAU23@@Z ; std::vector<CPythonItem::SGroundItemInstance *,std::allocator<CPythonItem::SGroundItemInstance *> >::_Emplace_one_at_back<CPythonItem::SGroundItemInstance * const &>
PUBLIC	??$destroy@PAUSGroundItemInstance@CPythonItem@@@?$_Default_allocator_traits@V?$allocator@PAUSGroundItemInstance@CPythonItem@@@std@@@std@@SAXAAV?$allocator@PAUSGroundItemInstance@CPythonItem@@@1@QAPAUSGroundItemInstance@CPythonItem@@@Z ; std::_Default_allocator_traits<std::allocator<CPythonItem::SGroundItemInstance *> >::destroy<CPythonItem::SGroundItemInstance *>
PUBLIC	??$_Unfancy@PAUSGroundItemInstance@CPythonItem@@@std@@YAPAPAUSGroundItemInstance@CPythonItem@@PAPAU12@@Z ; std::_Unfancy<CPythonItem::SGroundItemInstance *>
PUBLIC	??$addressof@U?$pair@$$CBKPAUSGroundItemInstance@CPythonItem@@@std@@@std@@YAPAU?$pair@$$CBKPAUSGroundItemInstance@CPythonItem@@@0@AAU10@@Z ; std::addressof<std::pair<unsigned long const ,CPythonItem::SGroundItemInstance *> >
PUBLIC	??$_Freenode0@V?$allocator@U?$_Tree_node@U?$pair@$$CBKPAUSGroundItemInstance@CPythonItem@@@std@@PAX@std@@@std@@@?$_Tree_node@U?$pair@$$CBKPAUSGroundItemInstance@CPythonItem@@@std@@PAX@std@@SAXAAV?$allocator@U?$_Tree_node@U?$pair@$$CBKPAUSGroundItemInstance@CPythonItem@@@std@@PAX@std@@@1@PAU01@@Z ; std::_Tree_node<std::pair<unsigned long const ,CPythonItem::SGroundItemInstance *>,void *>::_Freenode0<std::allocator<std::_Tree_node<std::pair<unsigned long const ,CPythonItem::SGroundItemInstance *>,void *> > >
PUBLIC	??$_Freenode@V?$allocator@U?$_Tree_node@U?$pair@$$CBKPAUSGroundItemInstance@CPythonItem@@@std@@PAX@std@@@std@@@?$_Tree_node@U?$pair@$$CBKPAUSGroundItemInstance@CPythonItem@@@std@@PAX@std@@SAXAAV?$allocator@U?$_Tree_node@U?$pair@$$CBKPAUSGroundItemInstance@CPythonItem@@@std@@PAX@std@@@1@PAU01@@Z ; std::_Tree_node<std::pair<unsigned long const ,CPythonItem::SGroundItemInstance *>,void *>::_Freenode<std::allocator<std::_Tree_node<std::pair<unsigned long const ,CPythonItem::SGroundItemInstance *>,void *> > >
PUBLIC	??$exchange@PAU?$_Tree_node@U?$pair@$$CBKPAUSGroundItemInstance@CPythonItem@@@std@@PAX@std@@AAPAU12@@std@@YAPAU?$_Tree_node@U?$pair@$$CBKPAUSGroundItemInstance@CPythonItem@@@std@@PAX@0@AAPAU10@0@Z ; std::exchange<std::_Tree_node<std::pair<unsigned long const ,CPythonItem::SGroundItemInstance *>,void *> *,std::_Tree_node<std::pair<unsigned long const ,CPythonItem::SGroundItemInstance *>,void *> * &>
PUBLIC	??$forward@V?$_Tree_iterator@V?$_Tree_val@U?$_Tree_simple_types@U?$pair@$$CBKPAUSGroundItemInstance@CPythonItem@@@std@@@std@@@std@@@std@@@std@@YA$$QAV?$_Tree_iterator@V?$_Tree_val@U?$_Tree_simple_types@U?$pair@$$CBKPAUSGroundItemInstance@CPythonItem@@@std@@@std@@@std@@@0@AAV10@@Z ; std::forward<std::_Tree_iterator<std::_Tree_val<std::_Tree_simple_types<std::pair<unsigned long const ,CPythonItem::SGroundItemInstance *> > > > >
PUBLIC	??$?0PAU?$_Tree_node@U?$pair@$$CBKPAUSGroundItemInstance@CPythonItem@@@std@@PAX@std@@_N$0A@@?$pair@PAU?$_Tree_node@U?$pair@$$CBKPAUSGroundItemInstance@CPythonItem@@@std@@PAX@std@@_N@std@@QAE@$$QAPAU?$_Tree_node@U?$pair@$$CBKPAUSGroundItemInstance@CPythonItem@@@std@@PAX@1@$$QA_N@Z ; std::pair<std::_Tree_node<std::pair<unsigned long const ,CPythonItem::SGroundItemInstance *>,void *> *,bool>::pair<std::_Tree_node<std::pair<unsigned long const ,CPythonItem::SGroundItemInstance *>,void *> *,bool><std::_Tree_node<std::pair<unsigned long const ,CPythonItem::SGroundItemInstance *>,void *> *,bool,0>
PUBLIC	??$?0AAPAU?$_Tree_node@U?$pair@$$CBKPAUSGroundItemInstance@CPythonItem@@@std@@PAX@std@@_N$0A@@?$pair@PAU?$_Tree_node@U?$pair@$$CBKPAUSGroundItemInstance@CPythonItem@@@std@@PAX@std@@_N@std@@QAE@AAPAU?$_Tree_node@U?$pair@$$CBKPAUSGroundItemInstance@CPythonItem@@@std@@PAX@1@$$QA_N@Z ; std::pair<std::_Tree_node<std::pair<unsigned long const ,CPythonItem::SGroundItemInstance *>,void *> *,bool>::pair<std::_Tree_node<std::pair<unsigned long const ,CPythonItem::SGroundItemInstance *>,void *> *,bool><std::_Tree_node<std::pair<unsigned long const ,CPythonItem::SGroundItemInstance *>,void *> * &,bool,0>
PUBLIC	??$?0U?$pair@$$CBKPAUSGroundItemInstance@CPythonItem@@@std@@@?$_Tree_temp_node@V?$allocator@U?$_Tree_node@U?$pair@$$CBKPAUSGroundItemInstance@CPythonItem@@@std@@PAX@std@@@std@@@std@@QAE@AAV?$allocator@U?$_Tree_node@U?$pair@$$CBKPAUSGroundItemInstance@CPythonItem@@@std@@PAX@std@@@1@PAU?$_Tree_node@U?$pair@$$CBKPAUSGroundItemInstance@CPythonItem@@@std@@PAX@1@$$QAU?$pair@$$CBKPAUSGroundItemInstance@CPythonItem@@@1@@Z ; std::_Tree_temp_node<std::allocator<std::_Tree_node<std::pair<unsigned long const ,CPythonItem::SGroundItemInstance *>,void *> > >::_Tree_temp_node<std::allocator<std::_Tree_node<std::pair<unsigned long const ,CPythonItem::SGroundItemInstance *>,void *> > ><std::pair<unsigned long const ,CPythonItem::SGroundItemInstance *> >
PUBLIC	??$forward@U?$pair@$$CBKPAUSGroundItemInstance@CPythonItem@@@std@@@std@@YA$$QAU?$pair@$$CBKPAUSGroundItemInstance@CPythonItem@@@0@AAU10@@Z ; std::forward<std::pair<unsigned long const ,CPythonItem::SGroundItemInstance *> >
PUBLIC	??$_Lower_bound_duplicate@K@?$_Tree@V?$_Tmap_traits@KPAUSGroundItemInstance@CPythonItem@@U?$less@K@std@@V?$allocator@U?$pair@$$CBKPAUSGroundItemInstance@CPythonItem@@@std@@@4@$0A@@std@@@std@@IBE_NQAU?$_Tree_node@U?$pair@$$CBKPAUSGroundItemInstance@CPythonItem@@@std@@PAX@1@ABK@Z ; std::_Tree<std::_Tmap_traits<unsigned long,CPythonItem::SGroundItemInstance *,std::less<unsigned long>,std::allocator<std::pair<unsigned long const ,CPythonItem::SGroundItemInstance *> >,0> >::_Lower_bound_duplicate<unsigned long>
PUBLIC	??$_Find_lower_bound@K@?$_Tree@V?$_Tmap_traits@KPAUSGroundItemInstance@CPythonItem@@U?$less@K@std@@V?$allocator@U?$pair@$$CBKPAUSGroundItemInstance@CPythonItem@@@std@@@4@$0A@@std@@@std@@IBE?AU?$_Tree_find_result@PAU?$_Tree_node@U?$pair@$$CBKPAUSGroundItemInstance@CPythonItem@@@std@@PAX@std@@@1@ABK@Z ; std::_Tree<std::_Tmap_traits<unsigned long,CPythonItem::SGroundItemInstance *,std::less<unsigned long>,std::allocator<std::pair<unsigned long const ,CPythonItem::SGroundItemInstance *> >,0> >::_Find_lower_bound<unsigned long>
PUBLIC	??$_Sort_unchecked@PAU?$pair@MH@std@@U?$less@X@2@@std@@YAXPAU?$pair@MH@0@0HU?$less@X@0@@Z ; std::_Sort_unchecked<std::pair<float,int> *,std::less<void> >
PUBLIC	??$_Adl_verify_range@PAU?$pair@MH@std@@PAU12@@std@@YAXABQAU?$pair@MH@0@0@Z ; std::_Adl_verify_range<std::pair<float,int> *,std::pair<float,int> *>
PUBLIC	??0?$_Tree_unchecked_iterator@V?$_Tree_val@U?$_Tree_simple_types@U?$pair@$$CBKPAUSGroundItemInstance@CPythonItem@@@std@@@std@@@std@@@std@@QAE@PAU?$_Tree_node@U?$pair@$$CBKPAUSGroundItemInstance@CPythonItem@@@std@@PAX@1@PBV?$_Tree_val@U?$_Tree_simple_types@U?$pair@$$CBKPAUSGroundItemInstance@CPythonItem@@@std@@@std@@@1@@Z ; std::_Tree_unchecked_iterator<std::_Tree_val<std::_Tree_simple_types<std::pair<unsigned long const ,CPythonItem::SGroundItemInstance *> > > >::_Tree_unchecked_iterator<std::_Tree_val<std::_Tree_simple_types<std::pair<unsigned long const ,CPythonItem::SGroundItemInstance *> > > >
PUBLIC	?_Tidy@?$vector@PAVCItemData@@V?$allocator@PAVCItemData@@@std@@@std@@AAEXXZ ; std::vector<CItemData *,std::allocator<CItemData *> >::_Tidy
PUBLIC	??0?$_Tree@V?$_Tmap_traits@KPAUSGroundItemInstance@CPythonItem@@U?$less@K@std@@V?$allocator@U?$pair@$$CBKPAUSGroundItemInstance@CPythonItem@@@std@@@4@$0A@@std@@@std@@QAE@ABU?$less@K@1@@Z ; std::_Tree<std::_Tmap_traits<unsigned long,CPythonItem::SGroundItemInstance *,std::less<unsigned long>,std::allocator<std::pair<unsigned long const ,CPythonItem::SGroundItemInstance *> >,0> >::_Tree<std::_Tmap_traits<unsigned long,CPythonItem::SGroundItemInstance *,std::less<unsigned long>,std::allocator<std::pair<unsigned long const ,CPythonItem::SGroundItemInstance *> >,0> >
PUBLIC	?_Erase_unchecked@?$_Tree@V?$_Tmap_traits@KPAUSGroundItemInstance@CPythonItem@@U?$less@K@std@@V?$allocator@U?$pair@$$CBKPAUSGroundItemInstance@CPythonItem@@@std@@@4@$0A@@std@@@std@@AAEPAU?$_Tree_node@U?$pair@$$CBKPAUSGroundItemInstance@CPythonItem@@@std@@PAX@2@V?$_Tree_unchecked_const_iterator@V?$_Tree_val@U?$_Tree_simple_types@U?$pair@$$CBKPAUSGroundItemInstance@CPythonItem@@@std@@@std@@@std@@U_Iterator_base0@2@@2@@Z ; std::_Tree<std::_Tmap_traits<unsigned long,CPythonItem::SGroundItemInstance *,std::less<unsigned long>,std::allocator<std::pair<unsigned long const ,CPythonItem::SGroundItemInstance *> >,0> >::_Erase_unchecked
PUBLIC	?_Getal@?$_Tree@V?$_Tmap_traits@KPAUSGroundItemInstance@CPythonItem@@U?$less@K@std@@V?$allocator@U?$pair@$$CBKPAUSGroundItemInstance@CPythonItem@@@std@@@4@$0A@@std@@@std@@IAEAAV?$allocator@U?$_Tree_node@U?$pair@$$CBKPAUSGroundItemInstance@CPythonItem@@@std@@PAX@std@@@2@XZ ; std::_Tree<std::_Tmap_traits<unsigned long,CPythonItem::SGroundItemInstance *,std::less<unsigned long>,std::allocator<std::pair<unsigned long const ,CPythonItem::SGroundItemInstance *> >,0> >::_Getal
PUBLIC	?_Get_scary@?$_Tree@V?$_Tmap_traits@KPAUSGroundItemInstance@CPythonItem@@U?$less@K@std@@V?$allocator@U?$pair@$$CBKPAUSGroundItemInstance@CPythonItem@@@std@@@4@$0A@@std@@@std@@IAEPAV?$_Tree_val@U?$_Tree_simple_types@U?$pair@$$CBKPAUSGroundItemInstance@CPythonItem@@@std@@@std@@@2@XZ ; std::_Tree<std::_Tmap_traits<unsigned long,CPythonItem::SGroundItemInstance *,std::less<unsigned long>,std::allocator<std::pair<unsigned long const ,CPythonItem::SGroundItemInstance *> >,0> >::_Get_scary
PUBLIC	?_Get_scary@?$_Tree@V?$_Tmap_traits@KPAUSGroundItemInstance@CPythonItem@@U?$less@K@std@@V?$allocator@U?$pair@$$CBKPAUSGroundItemInstance@CPythonItem@@@std@@@4@$0A@@std@@@std@@IBEPBV?$_Tree_val@U?$_Tree_simple_types@U?$pair@$$CBKPAUSGroundItemInstance@CPythonItem@@@std@@@std@@@2@XZ ; std::_Tree<std::_Tmap_traits<unsigned long,CPythonItem::SGroundItemInstance *,std::less<unsigned long>,std::allocator<std::pair<unsigned long const ,CPythonItem::SGroundItemInstance *> >,0> >::_Get_scary
PUBLIC	?_Orphan_ptr@?$_Tree_val@U?$_Tree_simple_types@U?$pair@$$CBKPAUSGroundItemInstance@CPythonItem@@@std@@@std@@@std@@QAEXQAU?$_Tree_node@U?$pair@$$CBKPAUSGroundItemInstance@CPythonItem@@@std@@PAX@2@@Z ; std::_Tree_val<std::_Tree_simple_types<std::pair<unsigned long const ,CPythonItem::SGroundItemInstance *> > >::_Orphan_ptr
PUBLIC	??E?$_Tree_const_iterator@V?$_Tree_val@U?$_Tree_simple_types@U?$pair@$$CBKPAUSGroundItemInstance@CPythonItem@@@std@@@std@@@std@@@std@@QAEAAV01@XZ ; std::_Tree_const_iterator<std::_Tree_val<std::_Tree_simple_types<std::pair<unsigned long const ,CPythonItem::SGroundItemInstance *> > > >::operator++
PUBLIC	??D?$_Tree_iterator@V?$_Tree_val@U?$_Tree_simple_types@U?$pair@$$CBKPAUSGroundItemInstance@CPythonItem@@@std@@@std@@@std@@@std@@QBEAAU?$pair@$$CBKPAUSGroundItemInstance@CPythonItem@@@1@XZ ; std::_Tree_iterator<std::_Tree_val<std::_Tree_simple_types<std::pair<unsigned long const ,CPythonItem::SGroundItemInstance *> > > >::operator*
PUBLIC	?_Unwrapped@?$_Tree_iterator@V?$_Tree_val@U?$_Tree_simple_types@U?$pair@$$CBKPAUSGroundItemInstance@CPythonItem@@@std@@@std@@@std@@@std@@QBE?AV?$_Tree_unchecked_iterator@V?$_Tree_val@U?$_Tree_simple_types@U?$pair@$$CBKPAUSGroundItemInstance@CPythonItem@@@std@@@std@@@std@@@2@XZ ; std::_Tree_iterator<std::_Tree_val<std::_Tree_simple_types<std::pair<unsigned long const ,CPythonItem::SGroundItemInstance *> > > >::_Unwrapped
PUBLIC	??0?$_Tree_unchecked_const_iterator@V?$_Tree_val@U?$_Tree_simple_types@U?$pair@$$CBKPAUSGroundItemInstance@CPythonItem@@@std@@@std@@@std@@U_Iterator_base0@2@@std@@QAE@PAU?$_Tree_node@U?$pair@$$CBKPAUSGroundItemInstance@CPythonItem@@@std@@PAX@1@PBV?$_Tree_val@U?$_Tree_simple_types@U?$pair@$$CBKPAUSGroundItemInstance@CPythonItem@@@std@@@std@@@1@@Z ; std::_Tree_unchecked_const_iterator<std::_Tree_val<std::_Tree_simple_types<std::pair<unsigned long const ,CPythonItem::SGroundItemInstance *> > >,std::_Iterator_base0>::_Tree_unchecked_const_iterator<std::_Tree_val<std::_Tree_simple_types<std::pair<unsigned long const ,CPythonItem::SGroundItemInstance *> > >,std::_Iterator_base0>
PUBLIC	?Destroy@?$CDynamicPool@USGroundItemInstance@CPythonItem@@@@QAEXXZ ; CDynamicPool<CPythonItem::SGroundItemInstance>::Destroy
PUBLIC	??0?$vector@PAUSGroundItemInstance@CPythonItem@@V?$allocator@PAUSGroundItemInstance@CPythonItem@@@std@@@std@@QAE@XZ ; std::vector<CPythonItem::SGroundItemInstance *,std::allocator<CPythonItem::SGroundItemInstance *> >::vector<CPythonItem::SGroundItemInstance *,std::allocator<CPythonItem::SGroundItemInstance *> >
PUBLIC	??1?$vector@PAUSGroundItemInstance@CPythonItem@@V?$allocator@PAUSGroundItemInstance@CPythonItem@@@std@@@std@@QAE@XZ ; std::vector<CPythonItem::SGroundItemInstance *,std::allocator<CPythonItem::SGroundItemInstance *> >::~vector<CPythonItem::SGroundItemInstance *,std::allocator<CPythonItem::SGroundItemInstance *> >
PUBLIC	?push_back@?$vector@PAUSGroundItemInstance@CPythonItem@@V?$allocator@PAUSGroundItemInstance@CPythonItem@@@std@@@std@@QAEXABQAUSGroundItemInstance@CPythonItem@@@Z ; std::vector<CPythonItem::SGroundItemInstance *,std::allocator<CPythonItem::SGroundItemInstance *> >::push_back
PUBLIC	?pop_back@?$vector@PAUSGroundItemInstance@CPythonItem@@V?$allocator@PAUSGroundItemInstance@CPythonItem@@@std@@@std@@QAEXXZ ; std::vector<CPythonItem::SGroundItemInstance *,std::allocator<CPythonItem::SGroundItemInstance *> >::pop_back
PUBLIC	?empty@?$vector@PAUSGroundItemInstance@CPythonItem@@V?$allocator@PAUSGroundItemInstance@CPythonItem@@@std@@@std@@QBE_NXZ ; std::vector<CPythonItem::SGroundItemInstance *,std::allocator<CPythonItem::SGroundItemInstance *> >::empty
PUBLIC	?size@?$vector@PAUSGroundItemInstance@CPythonItem@@V?$allocator@PAUSGroundItemInstance@CPythonItem@@@std@@@std@@QBEIXZ ; std::vector<CPythonItem::SGroundItemInstance *,std::allocator<CPythonItem::SGroundItemInstance *> >::size
PUBLIC	?back@?$vector@PAUSGroundItemInstance@CPythonItem@@V?$allocator@PAUSGroundItemInstance@CPythonItem@@@std@@@std@@QAEAAPAUSGroundItemInstance@CPythonItem@@XZ ; std::vector<CPythonItem::SGroundItemInstance *,std::allocator<CPythonItem::SGroundItemInstance *> >::back
PUBLIC	?pointer_to@?$pointer_traits@PAU?$pair@$$CBKPAUSGroundItemInstance@CPythonItem@@@std@@@std@@SAPAU?$pair@$$CBKPAUSGroundItemInstance@CPythonItem@@@2@AAU32@@Z ; std::pointer_traits<std::pair<unsigned long const ,CPythonItem::SGroundItemInstance *> *>::pointer_to
PUBLIC	??$?0$$V@?$_Compressed_pair@V?$allocator@PAVCItemData@@@std@@V?$_Vector_val@U?$_Simple_types@PAVCItemData@@@std@@@2@$00@std@@QAE@U_Zero_then_variadic_args_t@1@@Z ; std::_Compressed_pair<std::allocator<CItemData *>,std::_Vector_val<std::_Simple_types<CItemData *> >,1>::_Compressed_pair<std::allocator<CItemData *>,std::_Vector_val<std::_Simple_types<CItemData *> >,1><>
PUBLIC	??$_Erase_head@V?$allocator@U?$_Tree_node@U?$pair@$$CBKPAUSGroundItemInstance@CPythonItem@@@std@@PAX@std@@@std@@@?$_Tree_val@U?$_Tree_simple_types@U?$pair@$$CBKPAUSGroundItemInstance@CPythonItem@@@std@@@std@@@std@@QAEXAAV?$allocator@U?$_Tree_node@U?$pair@$$CBKPAUSGroundItemInstance@CPythonItem@@@std@@PAX@std@@@1@@Z ; std::_Tree_val<std::_Tree_simple_types<std::pair<unsigned long const ,CPythonItem::SGroundItemInstance *> > >::_Erase_head<std::allocator<std::_Tree_node<std::pair<unsigned long const ,CPythonItem::SGroundItemInstance *>,void *> > >
PUBLIC	??$_Erase_tree@V?$allocator@U?$_Tree_node@U?$pair@$$CBKPAUSGroundItemInstance@CPythonItem@@@std@@PAX@std@@@std@@@?$_Tree_val@U?$_Tree_simple_types@U?$pair@$$CBKPAUSGroundItemInstance@CPythonItem@@@std@@@std@@@std@@QAEXAAV?$allocator@U?$_Tree_node@U?$pair@$$CBKPAUSGroundItemInstance@CPythonItem@@@std@@PAX@std@@@1@PAU?$_Tree_node@U?$pair@$$CBKPAUSGroundItemInstance@CPythonItem@@@std@@PAX@1@@Z ; std::_Tree_val<std::_Tree_simple_types<std::pair<unsigned long const ,CPythonItem::SGroundItemInstance *> > >::_Erase_tree<std::allocator<std::_Tree_node<std::pair<unsigned long const ,CPythonItem::SGroundItemInstance *>,void *> > >
PUBLIC	??$_Find@K@?$_Tree@V?$_Tmap_traits@KPAUSGroundItemInstance@CPythonItem@@U?$less@K@std@@V?$allocator@U?$pair@$$CBKPAUSGroundItemInstance@CPythonItem@@@std@@@4@$0A@@std@@@std@@ABEPAU?$_Tree_node@U?$pair@$$CBKPAUSGroundItemInstance@CPythonItem@@@std@@PAX@1@ABK@Z ; std::_Tree<std::_Tmap_traits<unsigned long,CPythonItem::SGroundItemInstance *,std::less<unsigned long>,std::allocator<std::pair<unsigned long const ,CPythonItem::SGroundItemInstance *> >,0> >::_Find<unsigned long>
PUBLIC	??$?0V?$_Tree_iterator@V?$_Tree_val@U?$_Tree_simple_types@U?$pair@$$CBKPAUSGroundItemInstance@CPythonItem@@@std@@@std@@@std@@@std@@AB_N$0A@@?$pair@V?$_Tree_iterator@V?$_Tree_val@U?$_Tree_simple_types@U?$pair@$$CBKPAUSGroundItemInstance@CPythonItem@@@std@@@std@@@std@@@std@@_N@std@@QAE@$$QAV?$_Tree_iterator@V?$_Tree_val@U?$_Tree_simple_types@U?$pair@$$CBKPAUSGroundItemInstance@CPythonItem@@@std@@@std@@@std@@@1@AB_N@Z ; std::pair<std::_Tree_iterator<std::_Tree_val<std::_Tree_simple_types<std::pair<unsigned long const ,CPythonItem::SGroundItemInstance *> > > >,bool>::pair<std::_Tree_iterator<std::_Tree_val<std::_Tree_simple_types<std::pair<unsigned long const ,CPythonItem::SGroundItemInstance *> > > >,bool><std::_Tree_iterator<std::_Tree_val<std::_Tree_simple_types<std::pair<unsigned long const ,CPythonItem::SGroundItemInstance *> > > >,bool const &,0>
PUBLIC	??$_Emplace@U?$pair@$$CBKPAUSGroundItemInstance@CPythonItem@@@std@@@?$_Tree@V?$_Tmap_traits@KPAUSGroundItemInstance@CPythonItem@@U?$less@K@std@@V?$allocator@U?$pair@$$CBKPAUSGroundItemInstance@CPythonItem@@@std@@@4@$0A@@std@@@std@@IAE?AU?$pair@PAU?$_Tree_node@U?$pair@$$CBKPAUSGroundItemInstance@CPythonItem@@@std@@PAX@std@@_N@1@$$QAU?$pair@$$CBKPAUSGroundItemInstance@CPythonItem@@@1@@Z ; std::_Tree<std::_Tmap_traits<unsigned long,CPythonItem::SGroundItemInstance *,std::less<unsigned long>,std::allocator<std::pair<unsigned long const ,CPythonItem::SGroundItemInstance *> >,0> >::_Emplace<std::pair<unsigned long const ,CPythonItem::SGroundItemInstance *> >
PUBLIC	??$move@AAU?$pair@$$CBKPAUSGroundItemInstance@CPythonItem@@@std@@@std@@YA$$QAU?$pair@$$CBKPAUSGroundItemInstance@CPythonItem@@@0@AAU10@@Z ; std::move<std::pair<unsigned long const ,CPythonItem::SGroundItemInstance *> &>
PUBLIC	??$forward@AAPAUSGroundItemInstance@CPythonItem@@@std@@YAAAPAUSGroundItemInstance@CPythonItem@@AAPAU12@@Z ; std::forward<CPythonItem::SGroundItemInstance * &>
PUBLIC	??$_Pass_fn@U?$less@X@std@@@std@@YA?A_PAAU?$less@X@0@@Z ; std::_Pass_fn<std::less<void> >
PUBLIC	??$_Get_unwrapped@ABQAU?$pair@MH@std@@@std@@YA?A_TABQAU?$pair@MH@0@@Z ; std::_Get_unwrapped<std::pair<float,int> * const &>
PUBLIC	??$sort@PAU?$pair@MH@std@@U?$less@X@2@@std@@YAXQAU?$pair@MH@0@0U?$less@X@0@@Z ; std::sort<std::pair<float,int> *,std::less<void> >
PUBLIC	??$?0MH$0A@@?$pair@MH@std@@QAE@$$QAM$$QAH@Z	; std::pair<float,int>::pair<float,int><float,int,0>
PUBLIC	??0?$_Tree_const_iterator@V?$_Tree_val@U?$_Tree_simple_types@U?$pair@$$CBKPAUSGroundItemInstance@CPythonItem@@@std@@@std@@@std@@@std@@QAE@PAU?$_Tree_node@U?$pair@$$CBKPAUSGroundItemInstance@CPythonItem@@@std@@PAX@1@PBV?$_Tree_val@U?$_Tree_simple_types@U?$pair@$$CBKPAUSGroundItemInstance@CPythonItem@@@std@@@std@@@1@@Z ; std::_Tree_const_iterator<std::_Tree_val<std::_Tree_simple_types<std::pair<unsigned long const ,CPythonItem::SGroundItemInstance *> > > >::_Tree_const_iterator<std::_Tree_val<std::_Tree_simple_types<std::pair<unsigned long const ,CPythonItem::SGroundItemInstance *> > > >
PUBLIC	??_G?$CSingleton@VCPythonItem@@@@UAEPAXI@Z	; CSingleton<CPythonItem>::`scalar deleting destructor'
PUBLIC	??_G?$CDynamicPool@USGroundItemInstance@CPythonItem@@@@UAEPAXI@Z ; CDynamicPool<CPythonItem::SGroundItemInstance>::`scalar deleting destructor'
PUBLIC	??0?$_Tree_iterator@V?$_Tree_val@U?$_Tree_simple_types@U?$pair@$$CBKPAUSGroundItemInstance@CPythonItem@@@std@@@std@@@std@@@std@@QAE@PAU?$_Tree_node@U?$pair@$$CBKPAUSGroundItemInstance@CPythonItem@@@std@@PAX@1@PBV?$_Tree_val@U?$_Tree_simple_types@U?$pair@$$CBKPAUSGroundItemInstance@CPythonItem@@@std@@@std@@@1@@Z ; std::_Tree_iterator<std::_Tree_val<std::_Tree_simple_types<std::pair<unsigned long const ,CPythonItem::SGroundItemInstance *> > > >::_Tree_iterator<std::_Tree_val<std::_Tree_simple_types<std::pair<unsigned long const ,CPythonItem::SGroundItemInstance *> > > >
PUBLIC	?Instance@?$CSingleton@VCSoundManager@@@@SAAAVCSoundManager@@XZ ; CSingleton<CSoundManager>::Instance
PUBLIC	??0?$vector@PAVCItemData@@V?$allocator@PAVCItemData@@@std@@@std@@QAE@XZ ; std::vector<CItemData *,std::allocator<CItemData *> >::vector<CItemData *,std::allocator<CItemData *> >
PUBLIC	??1?$vector@PAVCItemData@@V?$allocator@PAVCItemData@@@std@@@std@@QAE@XZ ; std::vector<CItemData *,std::allocator<CItemData *> >::~vector<CItemData *,std::allocator<CItemData *> >
PUBLIC	??0?$CSingleton@VCPythonItem@@@@QAE@XZ		; CSingleton<CPythonItem>::CSingleton<CPythonItem>
PUBLIC	??1?$CSingleton@VCPythonItem@@@@UAE@XZ		; CSingleton<CPythonItem>::~CSingleton<CPythonItem>
PUBLIC	??0?$map@KPAUSGroundItemInstance@CPythonItem@@U?$less@K@std@@V?$allocator@U?$pair@$$CBKPAUSGroundItemInstance@CPythonItem@@@std@@@4@@std@@QAE@XZ ; std::map<unsigned long,CPythonItem::SGroundItemInstance *,std::less<unsigned long>,std::allocator<std::pair<unsigned long const ,CPythonItem::SGroundItemInstance *> > >::map<unsigned long,CPythonItem::SGroundItemInstance *,std::less<unsigned long>,std::allocator<std::pair<unsigned long const ,CPythonItem::SGroundItemInstance *> > >
PUBLIC	??1?$_Tree@V?$_Tmap_traits@KPAUSGroundItemInstance@CPythonItem@@U?$less@K@std@@V?$allocator@U?$pair@$$CBKPAUSGroundItemInstance@CPythonItem@@@std@@@4@$0A@@std@@@std@@QAE@XZ ; std::_Tree<std::_Tmap_traits<unsigned long,CPythonItem::SGroundItemInstance *,std::less<unsigned long>,std::allocator<std::pair<unsigned long const ,CPythonItem::SGroundItemInstance *> >,0> >::~_Tree<std::_Tmap_traits<unsigned long,CPythonItem::SGroundItemInstance *,std::less<unsigned long>,std::allocator<std::pair<unsigned long const ,CPythonItem::SGroundItemInstance *> >,0> >
PUBLIC	?begin@?$_Tree@V?$_Tmap_traits@KPAUSGroundItemInstance@CPythonItem@@U?$less@K@std@@V?$allocator@U?$pair@$$CBKPAUSGroundItemInstance@CPythonItem@@@std@@@4@$0A@@std@@@std@@QAE?AV?$_Tree_iterator@V?$_Tree_val@U?$_Tree_simple_types@U?$pair@$$CBKPAUSGroundItemInstance@CPythonItem@@@std@@@std@@@std@@@2@XZ ; std::_Tree<std::_Tmap_traits<unsigned long,CPythonItem::SGroundItemInstance *,std::less<unsigned long>,std::allocator<std::pair<unsigned long const ,CPythonItem::SGroundItemInstance *> >,0> >::begin
PUBLIC	?end@?$_Tree@V?$_Tmap_traits@KPAUSGroundItemInstance@CPythonItem@@U?$less@K@std@@V?$allocator@U?$pair@$$CBKPAUSGroundItemInstance@CPythonItem@@@std@@@4@$0A@@std@@@std@@QAE?AV?$_Tree_iterator@V?$_Tree_val@U?$_Tree_simple_types@U?$pair@$$CBKPAUSGroundItemInstance@CPythonItem@@@std@@@std@@@std@@@2@XZ ; std::_Tree<std::_Tmap_traits<unsigned long,CPythonItem::SGroundItemInstance *,std::less<unsigned long>,std::allocator<std::pair<unsigned long const ,CPythonItem::SGroundItemInstance *> >,0> >::end
PUBLIC	?size@?$_Tree@V?$_Tmap_traits@KPAUSGroundItemInstance@CPythonItem@@U?$less@K@std@@V?$allocator@U?$pair@$$CBKPAUSGroundItemInstance@CPythonItem@@@std@@@4@$0A@@std@@@std@@QBEIXZ ; std::_Tree<std::_Tmap_traits<unsigned long,CPythonItem::SGroundItemInstance *,std::less<unsigned long>,std::allocator<std::pair<unsigned long const ,CPythonItem::SGroundItemInstance *> >,0> >::size
PUBLIC	?empty@?$_Tree@V?$_Tmap_traits@KPAUSGroundItemInstance@CPythonItem@@U?$less@K@std@@V?$allocator@U?$pair@$$CBKPAUSGroundItemInstance@CPythonItem@@@std@@@4@$0A@@std@@@std@@QBE_NXZ ; std::_Tree<std::_Tmap_traits<unsigned long,CPythonItem::SGroundItemInstance *,std::less<unsigned long>,std::allocator<std::pair<unsigned long const ,CPythonItem::SGroundItemInstance *> >,0> >::empty
PUBLIC	?clear@?$_Tree@V?$_Tmap_traits@KPAUSGroundItemInstance@CPythonItem@@U?$less@K@std@@V?$allocator@U?$pair@$$CBKPAUSGroundItemInstance@CPythonItem@@@std@@@4@$0A@@std@@@std@@QAEXXZ ; std::_Tree<std::_Tmap_traits<unsigned long,CPythonItem::SGroundItemInstance *,std::less<unsigned long>,std::allocator<std::pair<unsigned long const ,CPythonItem::SGroundItemInstance *> >,0> >::clear
PUBLIC	?find@?$_Tree@V?$_Tmap_traits@KPAUSGroundItemInstance@CPythonItem@@U?$less@K@std@@V?$allocator@U?$pair@$$CBKPAUSGroundItemInstance@CPythonItem@@@std@@@4@$0A@@std@@@std@@QAE?AV?$_Tree_iterator@V?$_Tree_val@U?$_Tree_simple_types@U?$pair@$$CBKPAUSGroundItemInstance@CPythonItem@@@std@@@std@@@std@@@2@ABK@Z ; std::_Tree<std::_Tmap_traits<unsigned long,CPythonItem::SGroundItemInstance *,std::less<unsigned long>,std::allocator<std::pair<unsigned long const ,CPythonItem::SGroundItemInstance *> >,0> >::find
PUBLIC	??8?$_Tree_const_iterator@V?$_Tree_val@U?$_Tree_simple_types@U?$pair@$$CBKPAUSGroundItemInstance@CPythonItem@@@std@@@std@@@std@@@std@@QBE_NABV01@@Z ; std::_Tree_const_iterator<std::_Tree_val<std::_Tree_simple_types<std::pair<unsigned long const ,CPythonItem::SGroundItemInstance *> > > >::operator==
PUBLIC	??C?$_Tree_iterator@V?$_Tree_val@U?$_Tree_simple_types@U?$pair@$$CBKPAUSGroundItemInstance@CPythonItem@@@std@@@std@@@std@@@std@@QBEPAU?$pair@$$CBKPAUSGroundItemInstance@CPythonItem@@@1@XZ ; std::_Tree_iterator<std::_Tree_val<std::_Tree_simple_types<std::pair<unsigned long const ,CPythonItem::SGroundItemInstance *> > > >::operator->
PUBLIC	??E?$_Tree_iterator@V?$_Tree_val@U?$_Tree_simple_types@U?$pair@$$CBKPAUSGroundItemInstance@CPythonItem@@@std@@@std@@@std@@@std@@QAEAAV01@XZ ; std::_Tree_iterator<std::_Tree_val<std::_Tree_simple_types<std::pair<unsigned long const ,CPythonItem::SGroundItemInstance *> > > >::operator++
PUBLIC	??0?$_Tree_unchecked_const_iterator@V?$_Tree_val@U?$_Tree_simple_types@U?$pair@$$CBKPAUSGroundItemInstance@CPythonItem@@@std@@@std@@@std@@U_Iterator_base0@2@@std@@QAE@XZ ; std::_Tree_unchecked_const_iterator<std::_Tree_val<std::_Tree_simple_types<std::pair<unsigned long const ,CPythonItem::SGroundItemInstance *> > >,std::_Iterator_base0>::_Tree_unchecked_const_iterator<std::_Tree_val<std::_Tree_simple_types<std::pair<unsigned long const ,CPythonItem::SGroundItemInstance *> > >,std::_Iterator_base0>
PUBLIC	??0?$CDynamicPool@USGroundItemInstance@CPythonItem@@@@QAE@XZ ; CDynamicPool<CPythonItem::SGroundItemInstance>::CDynamicPool<CPythonItem::SGroundItemInstance>
PUBLIC	??1?$CDynamicPool@USGroundItemInstance@CPythonItem@@@@UAE@XZ ; CDynamicPool<CPythonItem::SGroundItemInstance>::~CDynamicPool<CPythonItem::SGroundItemInstance>
PUBLIC	?SetName@?$CDynamicPool@USGroundItemInstance@CPythonItem@@@@QAEXPBD@Z ; CDynamicPool<CPythonItem::SGroundItemInstance>::SetName
PUBLIC	?Clear@?$CDynamicPool@USGroundItemInstance@CPythonItem@@@@QAEXXZ ; CDynamicPool<CPythonItem::SGroundItemInstance>::Clear
PUBLIC	?Alloc@?$CDynamicPool@USGroundItemInstance@CPythonItem@@@@QAEPAUSGroundItemInstance@CPythonItem@@XZ ; CDynamicPool<CPythonItem::SGroundItemInstance>::Alloc
PUBLIC	?Free@?$CDynamicPool@USGroundItemInstance@CPythonItem@@@@QAEXPAUSGroundItemInstance@CPythonItem@@@Z ; CDynamicPool<CPythonItem::SGroundItemInstance>::Free
PUBLIC	?GetCapacity@?$CDynamicPool@USGroundItemInstance@CPythonItem@@@@QAEKXZ ; CDynamicPool<CPythonItem::SGroundItemInstance>::GetCapacity
PUBLIC	??$erase@V?$_Tree_iterator@V?$_Tree_val@U?$_Tree_simple_types@U?$pair@$$CBKPAUSGroundItemInstance@CPythonItem@@@std@@@std@@@std@@@std@@$0A@@?$_Tree@V?$_Tmap_traits@KPAUSGroundItemInstance@CPythonItem@@U?$less@K@std@@V?$allocator@U?$pair@$$CBKPAUSGroundItemInstance@CPythonItem@@@std@@@4@$0A@@std@@@std@@QAE?AV?$_Tree_iterator@V?$_Tree_val@U?$_Tree_simple_types@U?$pair@$$CBKPAUSGroundItemInstance@CPythonItem@@@std@@@std@@@std@@@1@V21@@Z ; std::_Tree<std::_Tmap_traits<unsigned long,CPythonItem::SGroundItemInstance *,std::less<unsigned long>,std::allocator<std::pair<unsigned long const ,CPythonItem::SGroundItemInstance *> >,0> >::erase<std::_Tree_iterator<std::_Tree_val<std::_Tree_simple_types<std::pair<unsigned long const ,CPythonItem::SGroundItemInstance *> > > >,0>
PUBLIC	??$insert@$0A@$0A@@?$_Tree@V?$_Tmap_traits@KPAUSGroundItemInstance@CPythonItem@@U?$less@K@std@@V?$allocator@U?$pair@$$CBKPAUSGroundItemInstance@CPythonItem@@@std@@@4@$0A@@std@@@std@@QAE?AU?$pair@V?$_Tree_iterator@V?$_Tree_val@U?$_Tree_simple_types@U?$pair@$$CBKPAUSGroundItemInstance@CPythonItem@@@std@@@std@@@std@@@std@@_N@1@$$QAU?$pair@$$CBKPAUSGroundItemInstance@CPythonItem@@@1@@Z ; std::_Tree<std::_Tmap_traits<unsigned long,CPythonItem::SGroundItemInstance *,std::less<unsigned long>,std::allocator<std::pair<unsigned long const ,CPythonItem::SGroundItemInstance *> >,0> >::insert<0,0>
PUBLIC	??$?0AAKAAPAUSGroundItemInstance@CPythonItem@@$0A@@?$pair@$$CBKPAUSGroundItemInstance@CPythonItem@@@std@@QAE@AAKAAPAUSGroundItemInstance@CPythonItem@@@Z ; std::pair<unsigned long const ,CPythonItem::SGroundItemInstance *>::pair<unsigned long const ,CPythonItem::SGroundItemInstance *><unsigned long &,CPythonItem::SGroundItemInstance * &,0>
PUBLIC	??$sort@PAU?$pair@MH@std@@@std@@YAXQAU?$pair@MH@0@0@Z ; std::sort<std::pair<float,int> *>
PUBLIC	??$make_pair@MH@std@@YA?AU?$pair@MH@0@$$QAM$$QAH@Z ; std::make_pair<float,int>
PUBLIC	?IsChangeLookClearScrollItem@CPythonItem@@QBE_NK@Z ; CPythonItem::IsChangeLookClearScrollItem
PUBLIC	?CanAddChangeLookFreeItem@CPythonItem@@QBE_NK@Z	; CPythonItem::CanAddChangeLookFreeItem
PUBLIC	?CanAddChangeLookItem@CPythonItem@@QBE_NPBVCItemData@@0@Z ; CPythonItem::CanAddChangeLookItem
PUBLIC	?__AttachEffect@CPythonItem@@IAEHKEE@Z		; CPythonItem::__AttachEffect
PUBLIC	?__RegisterEffect@CPythonItem@@IAEXHPBD@Z	; CPythonItem::__RegisterEffect
PUBLIC	??1?$map@KPAUSGroundItemInstance@CPythonItem@@U?$less@K@std@@V?$allocator@U?$pair@$$CBKPAUSGroundItemInstance@CPythonItem@@@std@@@4@@std@@QAE@XZ ; std::map<unsigned long,CPythonItem::SGroundItemInstance *,std::less<unsigned long>,std::allocator<std::pair<unsigned long const ,CPythonItem::SGroundItemInstance *> > >::~map<unsigned long,CPythonItem::SGroundItemInstance *,std::less<unsigned long>,std::allocator<std::pair<unsigned long const ,CPythonItem::SGroundItemInstance *> > >
PUBLIC	??_GCPythonItem@@UAEPAXI@Z			; CPythonItem::`scalar deleting destructor'
PUBLIC	?GetVirtualNumberOfGroundItem@CPythonItem@@QAEKK@Z ; CPythonItem::GetVirtualNumberOfGroundItem
PUBLIC	?GetPickedItemID@CPythonItem@@QAE_NPAK@Z	; CPythonItem::GetPickedItemID
PUBLIC	?__Pick@CPythonItem@@IAEKABUtagPOINT@@@Z	; CPythonItem::__Pick
PUBLIC	?GetGroundItemPosition@CPythonItem@@QAEHKPAUD3DXVECTOR3@@@Z ; CPythonItem::GetGroundItemPosition
PUBLIC	?GetCloseItemVector@CPythonItem@@QAE_NABV?$basic_string@DU?$char_traits@D@std@@V?$allocator@D@2@@std@@ABUD3DXVECTOR3@@AAV?$vector@KV?$allocator@K@std@@@3@@Z ; CPythonItem::GetCloseItemVector
PUBLIC	?GetCloseItem@CPythonItem@@QAE_NABUD3DXVECTOR3@@PAKK@Z ; CPythonItem::GetCloseItem
PUBLIC	?DISTANCE_APPROX@@YAHHH@Z			; DISTANCE_APPROX
PUBLIC	?DeleteItem@CPythonItem@@QAEXK@Z		; CPythonItem::DeleteItem
PUBLIC	??0?$_Tree_const_iterator@V?$_Tree_val@U?$_Tree_simple_types@U?$pair@$$CBKPAUSGroundItemInstance@CPythonItem@@@std@@@std@@@std@@@std@@QAE@XZ ; std::_Tree_const_iterator<std::_Tree_val<std::_Tree_simple_types<std::pair<unsigned long const ,CPythonItem::SGroundItemInstance *> > > >::_Tree_const_iterator<std::_Tree_val<std::_Tree_simple_types<std::pair<unsigned long const ,CPythonItem::SGroundItemInstance *> > > >
PUBLIC	??0?$_Tree_iterator@V?$_Tree_val@U?$_Tree_simple_types@U?$pair@$$CBKPAUSGroundItemInstance@CPythonItem@@@std@@@std@@@std@@@std@@QAE@XZ ; std::_Tree_iterator<std::_Tree_val<std::_Tree_simple_types<std::pair<unsigned long const ,CPythonItem::SGroundItemInstance *> > > >::_Tree_iterator<std::_Tree_val<std::_Tree_simple_types<std::pair<unsigned long const ,CPythonItem::SGroundItemInstance *> > > >
PUBLIC	?GetOwnership@CPythonItem@@QAE_NKPAPBD@Z	; CPythonItem::GetOwnership
PUBLIC	?SetOwnership@CPythonItem@@QAEXKPBD@Z		; CPythonItem::SetOwnership
PUBLIC	?CreateItem@CPythonItem@@QAEXKKMMMJ_N@Z		; CPythonItem::CreateItem
PUBLIC	?__GetUseSoundType@CPythonItem@@IAEKABVCItemData@@@Z ; CPythonItem::__GetUseSoundType
PUBLIC	?__GetDropSoundType@CPythonItem@@IAEKABVCItemData@@@Z ; CPythonItem::__GetDropSoundType
PUBLIC	?PlayUsePotionSound@CPythonItem@@QAEXXZ		; CPythonItem::PlayUsePotionSound
PUBLIC	?PlayDropSound@CPythonItem@@QAEXK@Z		; CPythonItem::PlayDropSound
PUBLIC	?PlayUseSound@CPythonItem@@QAEXK@Z		; CPythonItem::PlayUseSound
PUBLIC	?SetDropSoundFileName@CPythonItem@@QAEXKABV?$basic_string@DU?$char_traits@D@std@@V?$allocator@D@2@@std@@@Z ; CPythonItem::SetDropSoundFileName
PUBLIC	?SetUseSoundFileName@CPythonItem@@QAEXKABV?$basic_string@DU?$char_traits@D@std@@V?$allocator@D@2@@std@@@Z ; CPythonItem::SetUseSoundFileName
PUBLIC	?Update@SGroundItemInstance@CPythonItem@@QAE_NXZ ; CPythonItem::SGroundItemInstance::Update
PUBLIC	?__PlayDropSound@SGroundItemInstance@CPythonItem@@SAXKABUD3DXVECTOR3@@@Z ; CPythonItem::SGroundItemInstance::__PlayDropSound
PUBLIC	?Clear@SGroundItemInstance@CPythonItem@@QAEXXZ	; CPythonItem::SGroundItemInstance::Clear
PUBLIC	??_GSGroundItemInstance@CPythonItem@@UAEPAXI@Z	; CPythonItem::SGroundItemInstance::`scalar deleting destructor'
PUBLIC	??1SGroundItemInstance@CPythonItem@@UAE@XZ	; CPythonItem::SGroundItemInstance::~SGroundItemInstance
PUBLIC	??0SGroundItemInstance@CPythonItem@@QAE@XZ	; CPythonItem::SGroundItemInstance::SGroundItemInstance
PUBLIC	?RotationArc@@YA?AUD3DXQUATERNION@@ABUD3DXVECTOR3@@0@Z ; RotationArc
PUBLIC	?RotationNormalizedArc@@YA?AUD3DXQUATERNION@@ABUD3DXVECTOR3@@0@Z ; RotationNormalizedArc
PUBLIC	??0CPythonItem@@QAE@XZ				; CPythonItem::CPythonItem
PUBLIC	??1CPythonItem@@UAE@XZ				; CPythonItem::~CPythonItem
PUBLIC	?GetInfo@CPythonItem@@QAEXPAV?$basic_string@DU?$char_traits@D@std@@V?$allocator@D@2@@std@@@Z ; CPythonItem::GetInfo
PUBLIC	?Render@CPythonItem@@QAEXXZ			; CPythonItem::Render
PUBLIC	?Update@CPythonItem@@QAEXABUtagPOINT@@@Z	; CPythonItem::Update
PUBLIC	?Create@CPythonItem@@QAEXXZ			; CPythonItem::Create
PUBLIC	?Destroy@CPythonItem@@QAEXXZ			; CPythonItem::Destroy
PUBLIC	?DeleteAllItems@CPythonItem@@QAEXXZ		; CPythonItem::DeleteAllItems
PUBLIC	?ms_astDropSoundFileName@SGroundItemInstance@CPythonItem@@2PAV?$basic_string@DU?$char_traits@D@std@@V?$allocator@D@2@@std@@A ; CPythonItem::SGroundItemInstance::ms_astDropSoundFileName
EXTRN	??_ECPythonItem@@UAEPAXI@Z:PROC			; CPythonItem::`vector deleting destructor'
EXTRN	??_E?$CSingleton@VCPythonItem@@@@UAEPAXI@Z:PROC	; CSingleton<CPythonItem>::`vector deleting destructor'
EXTRN	??_ESGroundItemInstance@CPythonItem@@UAEPAXI@Z:PROC ; CPythonItem::SGroundItemInstance::`vector deleting destructor'
EXTRN	??_E?$CDynamicPool@USGroundItemInstance@CPythonItem@@@@UAEPAXI@Z:PROC ; CDynamicPool<CPythonItem::SGroundItemInstance>::`vector deleting destructor'
;	COMDAT xdata$x
xdata$x	SEGMENT
__ehfuncinfo$??1CPythonItem@@UAE@XZ DQ 00000000019930522r ; 2.11987e-315
	DQ	00000000000000000r		; 0
	DQ	00000000000000000r		; 0
	DQ	00000000000000000r		; 0
	DD	05H
xdata$x	ENDS
;	COMDAT xdata$x
xdata$x	SEGMENT
__ehfuncinfo$??0CPythonItem@@QAE@XZ DQ 00000000319930522r ; 6.57797e-314
	DD	FLAT:__unwindtable$??0CPythonItem@@QAE@XZ
	DQ	00000000000000000r		; 0
	DQ	00000000000000000r		; 0
	DQ	00000000100000000r		; 2.122e-314
__unwindtable$??0CPythonItem@@QAE@XZ DD 0ffffffffH
	DD	FLAT:__unwindfunclet$??0CPythonItem@@QAE@XZ$0
	DD	00H
	DD	FLAT:__unwindfunclet$??0CPythonItem@@QAE@XZ$1
	DD	01H
	DD	FLAT:__unwindfunclet$??0CPythonItem@@QAE@XZ$2
xdata$x	ENDS
;	COMDAT xdata$x
xdata$x	SEGMENT
__ehfuncinfo$?CreateItem@CPythonItem@@QAEXKKMMMJ_N@Z DQ 00000000219930522r ; 4.45598e-314
	DD	FLAT:__unwindtable$?CreateItem@CPythonItem@@QAEXKKMMMJ_N@Z
	DQ	00000000000000000r		; 0
	DQ	00000000000000000r		; 0
	DQ	00000000100000000r		; 2.122e-314
__unwindtable$?CreateItem@CPythonItem@@QAEXKKMMMJ_N@Z DD 0ffffffffH
	DD	FLAT:__unwindfunclet$?CreateItem@CPythonItem@@QAEXKKMMMJ_N@Z$1
	DD	0ffffffffH
	DD	FLAT:__unwindfunclet$?CreateItem@CPythonItem@@QAEXKKMMMJ_N@Z$0
xdata$x	ENDS
;	COMDAT xdata$x
xdata$x	SEGMENT
__ehfuncinfo$??$insert@$0A@$0A@@?$_Tree@V?$_Tmap_traits@KPAUSGroundItemInstance@CPythonItem@@U?$less@K@std@@V?$allocator@U?$pair@$$CBKPAUSGroundItemInstance@CPythonItem@@@std@@@4@$0A@@std@@@std@@QAE?AU?$pair@V?$_Tree_iterator@V?$_Tree_val@U?$_Tree_simple_types@U?$pair@$$CBKPAUSGroundItemInstance@CPythonItem@@@std@@@std@@@std@@@std@@_N@1@$$QAU?$pair@$$CBKPAUSGroundItemInstance@CPythonItem@@@1@@Z DQ 00000000119930522r ; 2.33398e-314
	DD	FLAT:__unwindtable$??$insert@$0A@$0A@@?$_Tree@V?$_Tmap_traits@KPAUSGroundItemInstance@CPythonItem@@U?$less@K@std@@V?$allocator@U?$pair@$$CBKPAUSGroundItemInstance@CPythonItem@@@std@@@4@$0A@@std@@@std@@QAE?AU?$pair@V?$_Tree_iterator@V?$_Tree_val@U?$_Tree_simple_types@U?$pair@$$CBKPAUSGroundItemInstance@CPythonItem@@@std@@@std@@@std@@@std@@_N@1@$$QAU?$pair@$$CBKPAUSGroundItemInstance@CPythonItem@@@1@@Z
	DQ	00000000000000000r		; 0
	DQ	00000000000000000r		; 0
	DQ	00000000100000000r		; 2.122e-314
__unwindtable$??$insert@$0A@$0A@@?$_Tree@V?$_Tmap_traits@KPAUSGroundItemInstance@CPythonItem@@U?$less@K@std@@V?$allocator@U?$pair@$$CBKPAUSGroundItemInstance@CPythonItem@@@std@@@4@$0A@@std@@@std@@QAE?AU?$pair@V?$_Tree_iterator@V?$_Tree_val@U?$_Tree_simple_types@U?$pair@$$CBKPAUSGroundItemInstance@CPythonItem@@@std@@@std@@@std@@@std@@_N@1@$$QAU?$pair@$$CBKPAUSGroundItemInstance@CPythonItem@@@1@@Z DD 0ffffffffH
	DD	FLAT:__unwindfunclet$??$insert@$0A@$0A@@?$_Tree@V?$_Tmap_traits@KPAUSGroundItemInstance@CPythonItem@@U?$less@K@std@@V?$allocator@U?$pair@$$CBKPAUSGroundItemInstance@CPythonItem@@@std@@@4@$0A@@std@@@std@@QAE?AU?$pair@V?$_Tree_iterator@V?$_Tree_val@U?$_Tree_simple_types@U?$pair@$$CBKPAUSGroundItemInstance@CPythonItem@@@std@@@std@@@std@@@std@@_N@1@$$QAU?$pair@$$CBKPAUSGroundItemInstance@CPythonItem@@@1@@Z$2
xdata$x	ENDS
;	COMDAT xdata$x
xdata$x	SEGMENT
__ehfuncinfo$?Alloc@?$CDynamicPool@USGroundItemInstance@CPythonItem@@@@QAEPAUSGroundItemInstance@CPythonItem@@XZ DQ 00000000119930522r ; 2.33398e-314
	DD	FLAT:__unwindtable$?Alloc@?$CDynamicPool@USGroundItemInstance@CPythonItem@@@@QAEPAUSGroundItemInstance@CPythonItem@@XZ
	DQ	00000000000000000r		; 0
	DQ	00000000000000000r		; 0
	DQ	00000000100000000r		; 2.122e-314
__unwindtable$?Alloc@?$CDynamicPool@USGroundItemInstance@CPythonItem@@@@QAEPAUSGroundItemInstance@CPythonItem@@XZ DD 0ffffffffH
	DD	FLAT:__unwindfunclet$?Alloc@?$CDynamicPool@USGroundItemInstance@CPythonItem@@@@QAEPAUSGroundItemInstance@CPythonItem@@XZ$0
xdata$x	ENDS
;	COMDAT xdata$x
xdata$x	SEGMENT
__ehfuncinfo$??$_Emplace@U?$pair@$$CBKPAUSGroundItemInstance@CPythonItem@@@std@@@?$_Tree@V?$_Tmap_traits@KPAUSGroundItemInstance@CPythonItem@@U?$less@K@std@@V?$allocator@U?$pair@$$CBKPAUSGroundItemInstance@CPythonItem@@@std@@@4@$0A@@std@@@std@@IAE?AU?$pair@PAU?$_Tree_node@U?$pair@$$CBKPAUSGroundItemInstance@CPythonItem@@@std@@PAX@std@@_N@1@$$QAU?$pair@$$CBKPAUSGroundItemInstance@CPythonItem@@@1@@Z DQ 00000000119930522r ; 2.33398e-314
	DD	FLAT:__unwindtable$??$_Emplace@U?$pair@$$CBKPAUSGroundItemInstance@CPythonItem@@@std@@@?$_Tree@V?$_Tmap_traits@KPAUSGroundItemInstance@CPythonItem@@U?$less@K@std@@V?$allocator@U?$pair@$$CBKPAUSGroundItemInstance@CPythonItem@@@std@@@4@$0A@@std@@@std@@IAE?AU?$pair@PAU?$_Tree_node@U?$pair@$$CBKPAUSGroundItemInstance@CPythonItem@@@std@@PAX@std@@_N@1@$$QAU?$pair@$$CBKPAUSGroundItemInstance@CPythonItem@@@1@@Z
	DQ	00000000000000000r		; 0
	DQ	00000000000000000r		; 0
	DQ	00000000100000000r		; 2.122e-314
__unwindtable$??$_Emplace@U?$pair@$$CBKPAUSGroundItemInstance@CPythonItem@@@std@@@?$_Tree@V?$_Tmap_traits@KPAUSGroundItemInstance@CPythonItem@@U?$less@K@std@@V?$allocator@U?$pair@$$CBKPAUSGroundItemInstance@CPythonItem@@@std@@@4@$0A@@std@@@std@@IAE?AU?$pair@PAU?$_Tree_node@U?$pair@$$CBKPAUSGroundItemInstance@CPythonItem@@@std@@PAX@std@@_N@1@$$QAU?$pair@$$CBKPAUSGroundItemInstance@CPythonItem@@@1@@Z DD 0ffffffffH
	DD	FLAT:__unwindfunclet$??$_Emplace@U?$pair@$$CBKPAUSGroundItemInstance@CPythonItem@@@std@@@?$_Tree@V?$_Tmap_traits@KPAUSGroundItemInstance@CPythonItem@@U?$less@K@std@@V?$allocator@U?$pair@$$CBKPAUSGroundItemInstance@CPythonItem@@@std@@@4@$0A@@std@@@std@@IAE?AU?$pair@PAU?$_Tree_node@U?$pair@$$CBKPAUSGroundItemInstance@CPythonItem@@@std@@PAX@std@@_N@1@$$QAU?$pair@$$CBKPAUSGroundItemInstance@CPythonItem@@@1@@Z$2
xdata$x	ENDS
;	COMDAT xdata$x
xdata$x	SEGMENT
__ehfuncinfo$??$?0U?$pair@$$CBKPAUSGroundItemInstance@CPythonItem@@@std@@@?$_Tree_temp_node@V?$allocator@U?$_Tree_node@U?$pair@$$CBKPAUSGroundItemInstance@CPythonItem@@@std@@PAX@std@@@std@@@std@@QAE@AAV?$allocator@U?$_Tree_node@U?$pair@$$CBKPAUSGroundItemInstance@CPythonItem@@@std@@PAX@std@@@1@PAU?$_Tree_node@U?$pair@$$CBKPAUSGroundItemInstance@CPythonItem@@@std@@PAX@1@$$QAU?$pair@$$CBKPAUSGroundItemInstance@CPythonItem@@@1@@Z DQ 00000000119930522r ; 2.33398e-314
	DD	FLAT:__unwindtable$??$?0U?$pair@$$CBKPAUSGroundItemInstance@CPythonItem@@@std@@@?$_Tree_temp_node@V?$allocator@U?$_Tree_node@U?$pair@$$CBKPAUSGroundItemInstance@CPythonItem@@@std@@PAX@std@@@std@@@std@@QAE@AAV?$allocator@U?$_Tree_node@U?$pair@$$CBKPAUSGroundItemInstance@CPythonItem@@@std@@PAX@std@@@1@PAU?$_Tree_node@U?$pair@$$CBKPAUSGroundItemInstance@CPythonItem@@@std@@PAX@1@$$QAU?$pair@$$CBKPAUSGroundItemInstance@CPythonItem@@@1@@Z
	DQ	00000000000000000r		; 0
	DQ	00000000000000000r		; 0
	DQ	00000000100000000r		; 2.122e-314
__unwindtable$??$?0U?$pair@$$CBKPAUSGroundItemInstance@CPythonItem@@@std@@@?$_Tree_temp_node@V?$allocator@U?$_Tree_node@U?$pair@$$CBKPAUSGroundItemInstance@CPythonItem@@@std@@PAX@std@@@std@@@std@@QAE@AAV?$allocator@U?$_Tree_node@U?$pair@$$CBKPAUSGroundItemInstance@CPythonItem@@@std@@PAX@std@@@1@PAU?$_Tree_node@U?$pair@$$CBKPAUSGroundItemInstance@CPythonItem@@@std@@PAX@1@$$QAU?$pair@$$CBKPAUSGroundItemInstance@CPythonItem@@@1@@Z DD 0ffffffffH
	DD	FLAT:__unwindfunclet$??$?0U?$pair@$$CBKPAUSGroundItemInstance@CPythonItem@@@std@@@?$_Tree_temp_node@V?$allocator@U?$_Tree_node@U?$pair@$$CBKPAUSGroundItemInstance@CPythonItem@@@std@@PAX@std@@@std@@@std@@QAE@AAV?$allocator@U?$_Tree_node@U?$pair@$$CBKPAUSGroundItemInstance@CPythonItem@@@std@@PAX@std@@@1@PAU?$_Tree_node@U?$pair@$$CBKPAUSGroundItemInstance@CPythonItem@@@std@@PAX@1@$$QAU?$pair@$$CBKPAUSGroundItemInstance@CPythonItem@@@1@@Z$1
xdata$x	ENDS
;	COMDAT xdata$x
xdata$x	SEGMENT
__ehfuncinfo$??0?$_Tree_temp_node_alloc@V?$allocator@U?$_Tree_node@U?$pair@$$CBKPAUSGroundItemInstance@CPythonItem@@@std@@PAX@std@@@std@@@std@@QAE@AAV?$allocator@U?$_Tree_node@U?$pair@$$CBKPAUSGroundItemInstance@CPythonItem@@@std@@PAX@std@@@1@@Z DQ 00000000119930522r ; 2.33398e-314
	DD	FLAT:__unwindtable$??0?$_Tree_temp_node_alloc@V?$allocator@U?$_Tree_node@U?$pair@$$CBKPAUSGroundItemInstance@CPythonItem@@@std@@PAX@std@@@std@@@std@@QAE@AAV?$allocator@U?$_Tree_node@U?$pair@$$CBKPAUSGroundItemInstance@CPythonItem@@@std@@PAX@std@@@1@@Z
	DQ	00000000000000000r		; 0
	DQ	00000000000000000r		; 0
	DQ	00000000100000000r		; 2.122e-314
__unwindtable$??0?$_Tree_temp_node_alloc@V?$allocator@U?$_Tree_node@U?$pair@$$CBKPAUSGroundItemInstance@CPythonItem@@@std@@PAX@std@@@std@@@std@@QAE@AAV?$allocator@U?$_Tree_node@U?$pair@$$CBKPAUSGroundItemInstance@CPythonItem@@@std@@PAX@std@@@1@@Z DD 0ffffffffH
	DD	FLAT:__unwindfunclet$??0?$_Tree_temp_node_alloc@V?$allocator@U?$_Tree_node@U?$pair@$$CBKPAUSGroundItemInstance@CPythonItem@@@std@@PAX@std@@@std@@@std@@QAE@AAV?$allocator@U?$_Tree_node@U?$pair@$$CBKPAUSGroundItemInstance@CPythonItem@@@std@@PAX@std@@@1@@Z$0
	ORG $+172
?ms_astDropSoundFileName@SGroundItemInstance@CPythonItem@@2PAV?$basic_string@DU?$char_traits@D@std@@V?$allocator@D@2@@std@@A DB 00H ; CPythonItem::SGroundItemInstance::ms_astDropSoundFileName
	DB	00H
	DB	00H
	DB	00H
	DB	00H
	DB	00H
	DB	00H
	DB	00H
	DB	00H
	DB	00H
	DB	00H
	DB	00H
	DB	00H
	DB	00H
	DB	00H
	DB	00H
	DD	00H
	DD	0fH
	DB	00H
	DB	00H
	DB	00H
	DB	00H
	DB	00H
	DB	00H
	DB	00H
	DB	00H
	DB	00H
	DB	00H
	DB	00H
	DB	00H
	DB	00H
	DB	00H
	DB	00H
	DB	00H
	DD	00H
	DD	0fH
	DB	00H
	DB	00H
	DB	00H
	DB	00H
	DB	00H
	DB	00H
	DB	00H
	DB	00H
	DB	00H
	DB	00H
	DB	00H
	DB	00H
	DB	00H
	DB	00H
	DB	00H
	DB	00H
	DD	00H
	DD	0fH
	DB	00H
	DB	00H
	DB	00H
	DB	00H
	DB	00H
	DB	00H
	DB	00H
	DB	00H
	DB	00H
	DB	00H
	DB	00H
	DB	00H
	DB	00H
	DB	00H
	DB	00H
	DB	00H
	DD	00H
	DD	0fH
	DB	00H
	DB	00H
	DB	00H
	DB	00H
	DB	00H
	DB	00H
	DB	00H
	DB	00H
	DB	00H
	DB	00H
	DB	00H
	DB	00H
	DB	00H
	DB	00H
	DB	00H
	DB	00H
	DD	00H
	DD	0fH
??ms_astDropSoundFileName$initializer$@SGroundItemInstance@CPythonItem@@2P6AXXZA@@3P6AXXZA DD FLAT:??__E?ms_astDropSoundFileName@SGroundItemInstance@CPythonItem@@2PAV?$basic_string@DU?$char_traits@D@std@@V?$allocator@D@2@@std@@A@@YAXXZ ; ??ms_astDropSoundFileName$initializer$@SGroundItemInstance@CPythonItem@@2P6AXXZA@@3P6AXXZA
; Function compile flags: /Ogtp
; File C:\Anka2Project\Anka2Project\Source\Binary\source\UserInterface\PythonItem.cpp
;	COMDAT ??__E?ms_astDropSoundFileName@SGroundItemInstance@CPythonItem@@2PAV?$basic_string@DU?$char_traits@D@std@@V?$allocator@D@2@@std@@A@@YAXXZ
text$di	SEGMENT
??__E?ms_astDropSoundFileName@SGroundItemInstance@CPythonItem@@2PAV?$basic_string@DU?$char_traits@D@std@@V?$allocator@D@2@@std@@A@@YAXXZ PROC ; `dynamic initializer for 'CPythonItem::SGroundItemInstance::ms_astDropSoundFileName'', COMDAT

; 35   : std::string CPythonItem::TGroundItemInstance::ms_astDropSoundFileName[DROPSOUND_NUM];

  00000	68 00 00 00 00	 push	 OFFSET ??__F?ms_astDropSoundFileName@SGroundItemInstance@CPythonItem@@2PAV?$basic_string@DU?$char_traits@D@std@@V?$allocator@D@2@@std@@A@@YAXXZ ; `dynamic atexit destructor for 'CPythonItem::SGroundItemInstance::ms_astDropSoundFileName''
  00005	e8 00 00 00 00	 call	 _atexit
  0000a	59		 pop	 ecx
  0000b	c3		 ret	 0
??__E?ms_astDropSoundFileName@SGroundItemInstance@CPythonItem@@2PAV?$basic_string@DU?$char_traits@D@std@@V?$allocator@D@2@@std@@A@@YAXXZ ENDP ; `dynamic initializer for 'CPythonItem::SGroundItemInstance::ms_astDropSoundFileName''
text$di	ENDS
; Function compile flags: /Ogtp
;	COMDAT ??__F?ms_astDropSoundFileName@SGroundItemInstance@CPythonItem@@2PAV?$basic_string@DU?$char_traits@D@std@@V?$allocator@D@2@@std@@A@@YAXXZ
text$yd	SEGMENT
??__F?ms_astDropSoundFileName@SGroundItemInstance@CPythonItem@@2PAV?$basic_string@DU?$char_traits@D@std@@V?$allocator@D@2@@std@@A@@YAXXZ PROC ; `dynamic atexit destructor for 'CPythonItem::SGroundItemInstance::ms_astDropSoundFileName'', COMDAT
  00000	68 00 00 00 00	 push	 OFFSET ??1?$basic_string@DU?$char_traits@D@std@@V?$allocator@D@2@@std@@QAE@XZ ; std::basic_string<char,std::char_traits<char>,std::allocator<char> >::~basic_string<char,std::char_traits<char>,std::allocator<char> >
  00005	6a 05		 push	 5
  00007	6a 18		 push	 24			; 00000018H
  00009	68 00 00 00 00	 push	 OFFSET ?ms_astDropSoundFileName@SGroundItemInstance@CPythonItem@@2PAV?$basic_string@DU?$char_traits@D@std@@V?$allocator@D@2@@std@@A ; CPythonItem::SGroundItemInstance::ms_astDropSoundFileName
  0000e	e8 00 00 00 00	 call	 ??_M@YGXPAXIIP6EX0@Z@Z
  00013	c3		 ret	 0
??__F?ms_astDropSoundFileName@SGroundItemInstance@CPythonItem@@2PAV?$basic_string@DU?$char_traits@D@std@@V?$allocator@D@2@@std@@A@@YAXXZ ENDP ; `dynamic atexit destructor for 'CPythonItem::SGroundItemInstance::ms_astDropSoundFileName''
text$yd	ENDS
; Function compile flags: /Ogtp
; File C:\Anka2Project\Anka2Project\Source\Binary\source\eterLib\Pool.h
;	COMDAT ?Delete@?$CDynamicPool@USGroundItemInstance@CPythonItem@@@@KAXPAUSGroundItemInstance@CPythonItem@@@Z
_TEXT	SEGMENT
?Delete@?$CDynamicPool@USGroundItemInstance@CPythonItem@@@@KAXPAUSGroundItemInstance@CPythonItem@@@Z PROC ; CDynamicPool<CPythonItem::SGroundItemInstance>::Delete, COMDAT
; _pkData$ = ecx

; 85   : 			delete pkData;

  00000	85 c9		 test	 ecx, ecx
  00002	74 06		 je	 SHORT $LN3@Delete
  00004	8b 01		 mov	 eax, DWORD PTR [ecx]
  00006	6a 01		 push	 1
  00008	ff 10		 call	 DWORD PTR [eax]
$LN3@Delete:

; 86   : 		}

  0000a	c3		 ret	 0
?Delete@?$CDynamicPool@USGroundItemInstance@CPythonItem@@@@KAXPAUSGroundItemInstance@CPythonItem@@@Z ENDP ; CDynamicPool<CPythonItem::SGroundItemInstance>::Delete
_TEXT	ENDS
END
