; Listing generated by Microsoft (R) Optimizing Compiler Version 19.44.35219.0 

	TITLE	c:\anka2project\anka2project\source\binary\vs_files\userinterface\release\pythonplayerinputmouse.obj
	.686P
	.XMM
	include listing.inc
	.model	flat

INCLUDELIB OLDNAMES

PUBLIC	?__IsRightButtonSkillMode@CPythonPlayer@@IAEHXZ	; CPythonPlayer::__IsRightButtonSkillMode
PUBLIC	?NEW_SetMouseMiddleButtonState@CPythonPlayer@@QAEXH@Z ; CPythonPlayer::NEW_SetMouseMiddleButtonState
PUBLIC	?NEW_SetMouseState@CPythonPlayer@@QAE_NHH@Z	; CPythonPlayer::NEW_SetMouseState
PUBLIC	?SetQuickCameraMode@CPythonPlayer@@QAEX_N@Z	; CPythonPlayer::SetQuickCameraMode
PUBLIC	?NEW_GetMouseFunc@CPythonPlayer@@QAEHH@Z	; CPythonPlayer::NEW_GetMouseFunc
PUBLIC	?NEW_SetMouseFunc@CPythonPlayer@@QAE_NHH@Z	; CPythonPlayer::NEW_SetMouseFunc
PUBLIC	?__OnClickSmart@CPythonPlayer@@IAEXAAVCInstanceBase@@_N@Z ; CPythonPlayer::__OnClickSmart
PUBLIC	?__OnPressSmart@CPythonPlayer@@IAEXAAVCInstanceBase@@_N@Z ; CPythonPlayer::__OnPressSmart
PUBLIC	?NEW_SetMouseSmartState@CPythonPlayer@@IAEXH_N@Z ; CPythonPlayer::NEW_SetMouseSmartState
PUBLIC	?NEW_SetMouseCameraState@CPythonPlayer@@IAEXH@Z	; CPythonPlayer::NEW_SetMouseCameraState
PUBLIC	?NEW_SetMouseMoveState@CPythonPlayer@@IAEXH@Z	; CPythonPlayer::NEW_SetMouseMoveState
PUBLIC	?__ShowPickedEffect@CPythonPlayer@@IAEXABUD3DXVECTOR3@@@Z ; CPythonPlayer::__ShowPickedEffect
PUBLIC	?NEW_MoveToMouseScreenDirection@CPythonPlayer@@QAE_NXZ ; CPythonPlayer::NEW_MoveToMouseScreenDirection
PUBLIC	?NEW_RefreshMouseWalkingDirection@CPythonPlayer@@IAEXXZ ; CPythonPlayer::NEW_RefreshMouseWalkingDirection
?vecDropSoundFileName@@3V?$array@U?$pair@KV?$basic_string@DU?$char_traits@D@std@@V?$allocator@D@2@@std@@@std@@$04@std@@B DB 08cH DUP (?) ; vecDropSoundFileName
?vecEffectList@@3V?$vector@V?$tuple@IPBDPBD_N@std@@V?$allocator@V?$tuple@IPBDPBD_N@std@@@2@@std@@B DB 0cH DUP (?) ; vecEffectList
?characterNameColors@@3V?$map@EV?$array@E$02@std@@U?$less@E@2@V?$allocator@U?$pair@$$CBEV?$array@E$02@std@@@std@@@2@@std@@B DQ 01H DUP (?) ; characterNameColors
?characterTitleColors@@3V?$map@EV?$array@E$02@std@@U?$less@E@2@V?$allocator@U?$pair@$$CBEV?$array@E$02@std@@@std@@@2@@std@@B DQ 01H DUP (?) ; characterTitleColors
?characterTitleSystemColors@@3V?$map@EV?$array@E$02@std@@U?$less@E@2@V?$allocator@U?$pair@$$CBEV?$array@E$02@std@@@std@@@2@@std@@B DQ 01H DUP (?) ; characterTitleSystemColors
?emotionIcons@@3V?$map@EPBDU?$less@E@std@@V?$allocator@U?$pair@$$CBEPBD@std@@@2@@std@@B DQ 01H DUP (?) ; emotionIcons
?skillIndexes@@3V?$map@EV?$map@EV?$vector@EV?$allocator@E@std@@@std@@U?$less@E@2@V?$allocator@U?$pair@$$CBEV?$vector@EV?$allocator@E@std@@@std@@@std@@@2@@std@@U?$less@E@2@V?$allocator@U?$pair@$$CBEV?$map@EV?$vector@EV?$allocator@E@std@@@std@@U?$less@E@2@V?$allocator@U?$pair@$$CBEV?$vector@EV?$allocator@E@std@@@std@@@std@@@2@@std@@@std@@@2@@std@@B DQ 01H DUP (?) ; skillIndexes
?guildSkills@@3V?$map@V?$basic_string@DU?$char_traits@D@std@@V?$allocator@D@2@@std@@V?$vector@EV?$allocator@E@std@@@2@U?$less@V?$basic_string@DU?$char_traits@D@std@@V?$allocator@D@2@@std@@@2@V?$allocator@U?$pair@$$CBV?$basic_string@DU?$char_traits@D@std@@V?$allocator@D@2@@std@@V?$vector@EV?$allocator@E@std@@@2@@std@@@2@@std@@B DQ 01H DUP (?) ; guildSkills
_BSS	ENDS
;	COMDAT xdata$x
xdata$x	SEGMENT
__ehfuncinfo$??__EvecUseSoundFileName@@YAXXZ DQ 00000000619930522r ; 1.2944e-313
	DD	FLAT:__unwindtable$??__EvecUseSoundFileName@@YAXXZ
	DQ	00000000000000000r		; 0
	DQ	00000000000000000r		; 0
	DQ	00000000100000000r		; 2.122e-314
__unwindtable$??__EvecUseSoundFileName@@YAXXZ DD 0ffffffffH
	DD	FLAT:__unwindfunclet$??__EvecUseSoundFileName@@YAXXZ$0
	DD	00H
	DD	FLAT:__unwindfunclet$??__EvecUseSoundFileName@@YAXXZ$1
	DD	01H
	DD	FLAT:__unwindfunclet$??__EvecUseSoundFileName@@YAXXZ$2
	DD	02H
	DD	FLAT:__unwindfunclet$??__EvecUseSoundFileName@@YAXXZ$3
	DD	03H
	DD	FLAT:__unwindfunclet$??__EvecUseSoundFileName@@YAXXZ$4
	DD	04H
	DD	FLAT:__unwindfunclet$??__EvecUseSoundFileName@@YAXXZ$5
xdata$x	ENDS
;	COMDAT xdata$x
xdata$x	SEGMENT
__ehfuncinfo$??__FvecUseSoundFileName@@YAXXZ DQ 00000000119930522r ; 2.33398e-314
	DD	FLAT:__unwindtable$??__FvecUseSoundFileName@@YAXXZ
	DQ	00000000000000000r		; 0
	DQ	00000000000000000r		; 0
	DQ	00000000100000000r		; 2.122e-314
__unwindtable$??__FvecUseSoundFileName@@YAXXZ DD 0ffffffffH
	DD	FLAT:___std_terminate
xdata$x	ENDS
;	COMDAT xdata$x
xdata$x	SEGMENT
__ehfuncinfo$??__EvecDropSoundFileName@@YAXXZ DQ 00000000419930522r ; 8.69997e-314
	DD	FLAT:__unwindtable$??__EvecDropSoundFileName@@YAXXZ
	DQ	00000000000000000r		; 0
	DQ	00000000000000000r		; 0
	DQ	00000000100000000r		; 2.122e-314
__unwindtable$??__EvecDropSoundFileName@@YAXXZ DD 0ffffffffH
	DD	FLAT:__unwindfunclet$??__EvecDropSoundFileName@@YAXXZ$0
	DD	00H
	DD	FLAT:__unwindfunclet$??__EvecDropSoundFileName@@YAXXZ$1
	DD	01H
	DD	FLAT:__unwindfunclet$??__EvecDropSoundFileName@@YAXXZ$2
	DD	02H
	DD	FLAT:__unwindfunclet$??__EvecDropSoundFileName@@YAXXZ$3
xdata$x	ENDS
;	COMDAT xdata$x
xdata$x	SEGMENT
__ehfuncinfo$??__FvecDropSoundFileName@@YAXXZ DQ 00000000119930522r ; 2.33398e-314
	DD	FLAT:__unwindtable$??__FvecDropSoundFileName@@YAXXZ
	DQ	00000000000000000r		; 0
	DQ	00000000000000000r		; 0
	DQ	00000000100000000r		; 2.122e-314
__unwindtable$??__FvecDropSoundFileName@@YAXXZ DD 0ffffffffH
	DD	FLAT:___std_terminate
xdata$x	ENDS
;	COMDAT xdata$x
xdata$x	SEGMENT
__ehfuncinfo$??__EskillIndexes@@YAXXZ DQ 00000002819930522r ; 8.50918e-313
	DD	FLAT:__unwindtable$??__EskillIndexes@@YAXXZ
	DQ	00000000000000000r		; 0
	DQ	00000000000000000r		; 0
	DQ	00000000100000000r		; 2.122e-314
	ORG $+4
__unwindtable$??__EskillIndexes@@YAXXZ DD 0ffffffffH
	DD	FLAT:__unwindfunclet$??__EskillIndexes@@YAXXZ$0
	DD	00H
	DD	FLAT:__unwindfunclet$??__EskillIndexes@@YAXXZ$1
	DD	01H
	DD	FLAT:__unwindfunclet$??__EskillIndexes@@YAXXZ$2
	DD	00H
	DD	FLAT:__unwindfunclet$??__EskillIndexes@@YAXXZ$2
	DD	03H
	DD	FLAT:__unwindfunclet$??__EskillIndexes@@YAXXZ$4
	DD	04H
	DD	FLAT:__unwindfunclet$??__EskillIndexes@@YAXXZ$5
	DD	05H
	DD	FLAT:__unwindfunclet$??__EskillIndexes@@YAXXZ$6
	DD	06H
	DD	FLAT:__unwindfunclet$??__EskillIndexes@@YAXXZ$7
	DD	07H
	DD	FLAT:__unwindfunclet$??__EskillIndexes@@YAXXZ$8
	DD	08H
	DD	FLAT:__unwindfunclet$??__EskillIndexes@@YAXXZ$9
	DD	07H
	DD	FLAT:__unwindfunclet$??__EskillIndexes@@YAXXZ$9
	DD	0aH
	DD	FLAT:__unwindfunclet$??__EskillIndexes@@YAXXZ$11
	DD	0bH
	DD	FLAT:__unwindfunclet$??__EskillIndexes@@YAXXZ$12
	DD	0cH
	DD	FLAT:__unwindfunclet$??__EskillIndexes@@YAXXZ$13
	DD	0dH
	DD	FLAT:__unwindfunclet$??__EskillIndexes@@YAXXZ$14
	DD	0eH
	DD	FLAT:__unwindfunclet$??__EskillIndexes@@YAXXZ$15
	DD	0fH
	DD	FLAT:__unwindfunclet$??__EskillIndexes@@YAXXZ$16
	DD	0eH
	DD	FLAT:__unwindfunclet$??__EskillIndexes@@YAXXZ$16
	DD	011H
	DD	FLAT:__unwindfunclet$??__EskillIndexes@@YAXXZ$18
	DD	012H
	DD	FLAT:__unwindfunclet$??__EskillIndexes@@YAXXZ$19
	DD	013H
	DD	FLAT:__unwindfunclet$??__EskillIndexes@@YAXXZ$20
	DD	014H
	DD	FLAT:__unwindfunclet$??__EskillIndexes@@YAXXZ$21
	DD	015H
	DD	FLAT:__unwindfunclet$??__EskillIndexes@@YAXXZ$22
	DD	016H
	DD	FLAT:__unwindfunclet$??__EskillIndexes@@YAXXZ$23
	DD	015H
	DD	FLAT:__unwindfunclet$??__EskillIndexes@@YAXXZ$23
	DD	018H
	DD	FLAT:__unwindfunclet$??__EskillIndexes@@YAXXZ$25
	DD	019H
	DD	FLAT:__unwindfunclet$??__EskillIndexes@@YAXXZ$26
	DD	05H
	DD	FLAT:__unwindfunclet$??__EskillIndexes@@YAXXZ$7
	DD	01bH
	DD	FLAT:__unwindfunclet$??__EskillIndexes@@YAXXZ$9
	DD	01cH
	DD	FLAT:__unwindfunclet$??__EskillIndexes@@YAXXZ$11
	DD	01dH
	DD	FLAT:__unwindfunclet$??__EskillIndexes@@YAXXZ$12
	DD	01eH
	DD	FLAT:__unwindfunclet$??__EskillIndexes@@YAXXZ$14
	DD	01fH
	DD	FLAT:__unwindfunclet$??__EskillIndexes@@YAXXZ$16
	DD	020H
	DD	FLAT:__unwindfunclet$??__EskillIndexes@@YAXXZ$18
	DD	021H
	DD	FLAT:__unwindfunclet$??__EskillIndexes@@YAXXZ$19
	DD	022H
	DD	FLAT:__unwindfunclet$??__EskillIndexes@@YAXXZ$21
	DD	023H
	DD	FLAT:__unwindfunclet$??__EskillIndexes@@YAXXZ$23
	DD	024H
	DD	FLAT:__unwindfunclet$??__EskillIndexes@@YAXXZ$25
	DD	025H
	DD	FLAT:__unwindfunclet$??__EskillIndexes@@YAXXZ$26
	DD	026H
	DD	FLAT:__unwindfunclet$??__EskillIndexes@@YAXXZ$28
xdata$x	ENDS
;	COMDAT xdata$x
xdata$x	SEGMENT
__ehfuncinfo$??__EguildSkills@@YAXXZ DQ 00000000a19930522r ; 2.14319e-313
	DD	FLAT:__unwindtable$??__EguildSkills@@YAXXZ
	DQ	00000000000000000r		; 0
	DQ	00000000000000000r		; 0
	DQ	00000000100000000r		; 2.122e-314
	ORG $+4
__unwindtable$??__EguildSkills@@YAXXZ DD 0ffffffffH
	DD	FLAT:__unwindfunclet$??__EguildSkills@@YAXXZ$0
	DD	00H
	DD	FLAT:__unwindfunclet$??__EguildSkills@@YAXXZ$1
	DD	01H
	DD	FLAT:__unwindfunclet$??__EguildSkills@@YAXXZ$10
	DD	01H
	DD	FLAT:__unwindfunclet$??__EguildSkills@@YAXXZ$2
	DD	03H
	DD	FLAT:__unwindfunclet$??__EguildSkills@@YAXXZ$3
	DD	04H
	DD	FLAT:__unwindfunclet$??__EguildSkills@@YAXXZ$4
	DD	05H
	DD	FLAT:__unwindfunclet$??__EguildSkills@@YAXXZ$16
	DD	01H
	DD	FLAT:__unwindfunclet$??__EguildSkills@@YAXXZ$3
	DD	07H
	DD	FLAT:__unwindfunclet$??__EguildSkills@@YAXXZ$4
	DD	08H
	DD	FLAT:__unwindfunclet$??__EguildSkills@@YAXXZ$6
	ORG $+4
?vecUseSoundFileName@@3V?$array@U?$pair@KV?$basic_string@DU?$char_traits@D@std@@V?$allocator@D@2@@std@@@std@@$06@std@@B DQ 00000000000000001r ; 4.94066e-324 ; vecUseSoundFileName
	DQ	00000000000000000r		; 0
	DQ	00000000000000000r		; 0
	DQ	00000000000000000r		; 0
	DQ	00000000000000000r		; 0
	DQ	00000000000000000r		; 0
	DQ	00000000000000000r		; 0
	DQ	00000000000000000r		; 0
	DQ	00000000000000000r		; 0
	DQ	00000000000000000r		; 0
	DQ	00000000000000000r		; 0
	DQ	00000000000000000r		; 0
	DQ	00000000000000000r		; 0
	DQ	00000000000000000r		; 0
	DQ	00000000000000000r		; 0
	DQ	00000000000000000r		; 0
	DQ	00000000000000000r		; 0
	DQ	00000000000000000r		; 0
	DQ	00000000000000000r		; 0
	DQ	00000000000000000r		; 0
	DQ	00000000000000000r		; 0
	DQ	00000000000000000r		; 0
	DQ	00000000000000000r		; 0
	DQ	00000000000000000r		; 0
	DD	00H
?vecUseSoundFileName$initializer$@@3P6AXXZA DD FLAT:??__EvecUseSoundFileName@@YAXXZ ; vecUseSoundFileName$initializer$
?vecDropSoundFileName$initializer$@@3P6AXXZA DD FLAT:??__EvecDropSoundFileName@@YAXXZ ; vecDropSoundFileName$initializer$
?vecEffectList$initializer$@@3P6AXXZA DD FLAT:??__EvecEffectList@@YAXXZ ; vecEffectList$initializer$
?characterNameColors$initializer$@@3P6AXXZA DD FLAT:??__EcharacterNameColors@@YAXXZ ; characterNameColors$initializer$
?characterTitleColors$initializer$@@3P6AXXZA DD FLAT:??__EcharacterTitleColors@@YAXXZ ; characterTitleColors$initializer$
?characterTitleSystemColors$initializer$@@3P6AXXZA DD FLAT:??__EcharacterTitleSystemColors@@YAXXZ ; characterTitleSystemColors$initializer$
?emotionIcons$initializer$@@3P6AXXZA DD FLAT:??__EemotionIcons@@YAXXZ ; emotionIcons$initializer$
?skillIndexes$initializer$@@3P6AXXZA DD FLAT:??__EskillIndexes@@YAXXZ ; skillIndexes$initializer$
?guildSkills$initializer$@@3P6AXXZA DD FLAT:??__EguildSkills@@YAXXZ ; guildSkills$initializer$
; Function compile flags: /Ogtp
; File C:\Anka2Project\Anka2Project\Source\Binary\source\UserInterface\PythonPlayerInputMouse.cpp
; File C:\Anka2Project\Anka2Project\Source\Binary\source\eterBase\Singleton.h
; File C:\Anka2Project\Anka2Project\Source\Binary\source\UserInterface\PythonPlayerInputMouse.cpp
; File C:\Anka2Project\Anka2Project\Source\Binary\source\eterBase\Singleton.h
; File C:\Anka2Project\Anka2Project\Source\Binary\source\UserInterface\PythonPlayerInputMouse.cpp
; File C:\Anka2Project\Anka2Project\Source\Binary\source\UserInterface\PythonApplication.h
; File C:\Anka2Project\Anka2Project\Source\Binary\source\UserInterface\PythonPlayerInputMouse.cpp
;	COMDAT ?NEW_RefreshMouseWalkingDirection@CPythonPlayer@@IAEXXZ
_TEXT	SEGMENT
_kPPosCur$4 = -32					; size = 12
_distance$1$ = -20					; size = 4
_fDistance$1$ = -20					; size = 4
tv396 = -20						; size = 4
_kPPosPickedItem$5 = -16				; size = 12
__$ArrayPad$ = -4					; size = 4
?NEW_RefreshMouseWalkingDirection@CPythonPlayer@@IAEXXZ PROC ; CPythonPlayer::NEW_RefreshMouseWalkingDirection, COMDAT
; _this$ = ecx

; 278  : {

  00000	55		 push	 ebp
  00001	8b ec		 mov	 ebp, esp
  00003	83 ec 24	 sub	 esp, 36			; 00000024H
  00006	a1 00 00 00 00	 mov	 eax, DWORD PTR ___security_cookie
  0000b	33 c5		 xor	 eax, ebp
  0000d	89 45 fc	 mov	 DWORD PTR __$ArrayPad$[ebp], eax
  00010	53		 push	 ebx
  00011	56		 push	 esi
  00012	8b f1		 mov	 esi, ecx

; 279  : 	CInstanceBase* pkInstMain = NEW_GetMainActorPtr();

  00014	8b 46 04	 mov	 eax, DWORD PTR [esi+4]
  00017	8d 4e 04	 lea	 ecx, DWORD PTR [esi+4]
  0001a	57		 push	 edi
  0001b	ff 90 8c 00 00
	00		 call	 DWORD PTR [eax+140]
  00021	8b f8		 mov	 edi, eax

; 280  : 	if (!pkInstMain) return;

  00023	85 ff		 test	 edi, edi
  00025	0f 84 54 01 00
	00		 je	 $LN1@NEW_Refres

; 281  : 
; 282  : 	switch (m_eReservedMode)

  0002b	8b 4e 54	 mov	 ecx, DWORD PTR [esi+84]
  0002e	49		 dec	 ecx
  0002f	83 f9 03	 cmp	 ecx, 3
  00032	0f 87 ef 00 00
	00		 ja	 $LN18@NEW_Refres
  00038	ff 24 8d 00 00
	00 00		 jmp	 DWORD PTR $LN38@NEW_Refres[ecx*4]
$LN5@NEW_Refres:
; File C:\Anka2Project\Anka2Project\Source\Binary\source\eterBase\Singleton.h

; 26   : 		assert(ms_singleton);

  0003f	8b 0d 00 00 00
	00		 mov	 ecx, DWORD PTR ?ms_singleton@?$CSingleton@VCPythonItem@@@@0PAVCPythonItem@@A ; CSingleton<CPythonItem>::ms_singleton
  00045	85 c9		 test	 ecx, ecx
  00047	75 1a		 jne	 SHORT $LN30@NEW_Refres
  00049	6a 1a		 push	 26			; 0000001aH
  0004b	68 00 00 00 00	 push	 OFFSET ??_C@_1IO@CAJLEEOI@?$AAC?$AA?3?$AA?2?$AAA?$AAn?$AAk?$AAa?$AA2?$AAP?$AAr?$AAo?$AAj?$AAe?$AAc?$AAt@
  00050	68 00 00 00 00	 push	 OFFSET ??_C@_1BK@FMEHPMFE@?$AAm?$AAs?$AA_?$AAs?$AAi?$AAn?$AAg?$AAl?$AAe?$AAt?$AAo?$AAn@
  00055	e8 00 00 00 00	 call	 __wassert
  0005a	8b 0d 00 00 00
	00		 mov	 ecx, DWORD PTR ?ms_singleton@?$CSingleton@VCPythonItem@@@@0PAVCPythonItem@@A ; CSingleton<CPythonItem>::ms_singleton
  00060	83 c4 0c	 add	 esp, 12			; 0000000cH
$LN30@NEW_Refres:
; File C:\Anka2Project\Anka2Project\Source\Binary\source\UserInterface\PythonPlayerInputMouse.cpp

; 289  : 			if (rkIT.GetGroundItemPosition(m_dwIIDReserved, &kPPosPickedItem))

  00063	8d 45 f0	 lea	 eax, DWORD PTR _kPPosPickedItem$5[ebp]
  00066	50		 push	 eax
  00067	ff b6 e8 b2 01
	00		 push	 DWORD PTR [esi+111336]
  0006d	e8 00 00 00 00	 call	 ?GetGroundItemPosition@CPythonItem@@QAEHKPAUD3DXVECTOR3@@@Z ; CPythonItem::GetGroundItemPosition
  00072	85 c0		 test	 eax, eax
  00074	0f 84 a6 00 00
	00		 je	 $LN17@NEW_Refres

; 290  : 			{
; 291  : 				float distance = 20.0f;

  0007a	f3 0f 10 05 00
	00 00 00	 movss	 xmm0, DWORD PTR __real@41a00000

; 292  : 				if (pkInstMain->IsMountingHorse() || pkInstMain->IsNewMount())

  00082	8b cf		 mov	 ecx, edi
  00084	f3 0f 11 45 ec	 movss	 DWORD PTR _distance$1$[ebp], xmm0
  00089	e8 00 00 00 00	 call	 ?IsMountingHorse@CInstanceBase@@QAEHXZ ; CInstanceBase::IsMountingHorse
  0008e	85 c0		 test	 eax, eax
  00090	75 09		 jne	 SHORT $LN9@NEW_Refres
  00092	e8 00 00 00 00	 call	 ?IsNewMount@CInstanceBase@@QAEHXZ ; CInstanceBase::IsNewMount
  00097	85 c0		 test	 eax, eax
  00099	74 0d		 je	 SHORT $LN8@NEW_Refres
$LN9@NEW_Refres:

; 293  : 					distance = 110.0f;

  0009b	f3 0f 10 05 00
	00 00 00	 movss	 xmm0, DWORD PTR __real@42dc0000
  000a3	f3 0f 11 45 ec	 movss	 DWORD PTR _distance$1$[ebp], xmm0
$LN8@NEW_Refres:

; 294  : 				if (pkInstMain->NEW_GetDistanceFromDestPixelPosition(kPPosPickedItem) < distance)

  000a8	8d 45 f0	 lea	 eax, DWORD PTR _kPPosPickedItem$5[ebp]
  000ab	8b cf		 mov	 ecx, edi
  000ad	50		 push	 eax
  000ae	e8 00 00 00 00	 call	 ?NEW_GetDistanceFromDestPixelPosition@CInstanceBase@@QAEMABUD3DXVECTOR3@@@Z ; CInstanceBase::NEW_GetDistanceFromDestPixelPosition
  000b3	f3 0f 10 4d ec	 movss	 xmm1, DWORD PTR _distance$1$[ebp]
  000b8	0f 2f c8	 comiss	 xmm1, xmm0
  000bb	0f 86 cf 00 00
	00		 jbe	 $LN10@NEW_Refres
; File C:\Anka2Project\Anka2Project\Source\Binary\source\eterBase\Singleton.h

; 26   : 		assert(ms_singleton);

  000c1	8b 1d 00 00 00
	00		 mov	 ebx, DWORD PTR ?ms_singleton@?$CSingleton@VCPythonNetworkStream@@@@0PAVCPythonNetworkStream@@A ; CSingleton<CPythonNetworkStream>::ms_singleton
  000c7	85 db		 test	 ebx, ebx
  000c9	75 1a		 jne	 SHORT $LN33@NEW_Refres
  000cb	6a 1a		 push	 26			; 0000001aH
  000cd	68 00 00 00 00	 push	 OFFSET ??_C@_1IO@CAJLEEOI@?$AAC?$AA?3?$AA?2?$AAA?$AAn?$AAk?$AAa?$AA2?$AAP?$AAr?$AAo?$AAj?$AAe?$AAc?$AAt@
  000d2	68 00 00 00 00	 push	 OFFSET ??_C@_1BK@FMEHPMFE@?$AAm?$AAs?$AA_?$AAs?$AAi?$AAn?$AAg?$AAl?$AAe?$AAt?$AAo?$AAn@
  000d7	e8 00 00 00 00	 call	 __wassert
  000dc	8b 1d 00 00 00
	00		 mov	 ebx, DWORD PTR ?ms_singleton@?$CSingleton@VCPythonNetworkStream@@@@0PAVCPythonNetworkStream@@A ; CSingleton<CPythonNetworkStream>::ms_singleton
  000e2	83 c4 0c	 add	 esp, 12			; 0000000cH
$LN33@NEW_Refres:
; File C:\Anka2Project\Anka2Project\Source\Binary\source\UserInterface\PythonPlayerInputMouse.cpp

; 299  : 					pkInstMain->NEW_GetPixelPosition(&kPPosCur);

  000e5	8d 45 e0	 lea	 eax, DWORD PTR _kPPosCur$4[ebp]
  000e8	8b cf		 mov	 ecx, edi
  000ea	50		 push	 eax
  000eb	e8 00 00 00 00	 call	 ?NEW_GetPixelPosition@CInstanceBase@@QAEXPAUD3DXVECTOR3@@@Z ; CInstanceBase::NEW_GetPixelPosition

; 300  : 
; 301  : 					float fCurRot=pkInstMain->GetRotation();

  000f0	8b cf		 mov	 ecx, edi
  000f2	e8 00 00 00 00	 call	 ?GetRotation@CInstanceBase@@QAEMXZ ; CInstanceBase::GetRotation

; 302  : 					rkNetStream.SendCharacterStatePacket(kPPosCur,  fCurRot, CInstanceBase::FUNC_WAIT, 0);

  000f7	6a 00		 push	 0
  000f9	6a 00		 push	 0
  000fb	51		 push	 ecx
  000fc	8d 45 e0	 lea	 eax, DWORD PTR _kPPosCur$4[ebp]
  000ff	f3 0f 11 04 24	 movss	 DWORD PTR [esp], xmm0
  00104	50		 push	 eax
  00105	8b cb		 mov	 ecx, ebx
  00107	e8 00 00 00 00	 call	 ?SendCharacterStatePacket@CPythonNetworkStream@@QAE_NABUD3DXVECTOR3@@MII@Z ; CPythonNetworkStream::SendCharacterStatePacket

; 303  : 					SendClickItemPacket(m_dwIIDReserved);

  0010c	ff b6 e8 b2 01
	00		 push	 DWORD PTR [esi+111336]
  00112	8b ce		 mov	 ecx, esi
  00114	e8 00 00 00 00	 call	 ?SendClickItemPacket@CPythonPlayer@@QAEXK@Z ; CPythonPlayer::SendClickItemPacket

; 304  : 
; 305  : 					pkInstMain->NEW_Stop();

  00119	8b cf		 mov	 ecx, edi
  0011b	e8 00 00 00 00	 call	 ?NEW_Stop@CInstanceBase@@QAEXXZ ; CInstanceBase::NEW_Stop
$LN17@NEW_Refres:

; 365  : 			else
; 366  : 			{
; 367  : 				__ClearReservedAction();
; 368  : 			}
; 369  : 			break;
; 370  : 		}
; 371  : 	}
; 372  : 
; 373  : 	if (m_isSmtMov)

  00120	8b ce		 mov	 ecx, esi
  00122	e8 00 00 00 00	 call	 ?__ClearReservedAction@CPythonPlayer@@IAEXXZ ; CPythonPlayer::__ClearReservedAction
$LN18@NEW_Refres:
  00127	80 7e 67 00	 cmp	 BYTE PTR [esi+103], 0
  0012b	74 0a		 je	 SHORT $LN23@NEW_Refres

; 374  : 		__OnPressSmart(*pkInstMain, false);

  0012d	6a 00		 push	 0
  0012f	57		 push	 edi
  00130	8b ce		 mov	 ecx, esi
  00132	e8 00 00 00 00	 call	 ?__OnPressSmart@CPythonPlayer@@IAEXAAVCInstanceBase@@_N@Z ; CPythonPlayer::__OnPressSmart
$LN23@NEW_Refres:

; 375  : 
; 376  : 	if (m_isDirMov)

  00137	80 7e 68 00	 cmp	 BYTE PTR [esi+104], 0
  0013b	74 07		 je	 SHORT $LN24@NEW_Refres

; 377  : 		NEW_MoveToMouseScreenDirection();

  0013d	8b ce		 mov	 ecx, esi
  0013f	e8 00 00 00 00	 call	 ?NEW_MoveToMouseScreenDirection@CPythonPlayer@@QAE_NXZ ; CPythonPlayer::NEW_MoveToMouseScreenDirection
$LN24@NEW_Refres:

; 378  : 
; 379  : 	if (m_isDirKey)

  00144	80 7e 65 00	 cmp	 BYTE PTR [esi+101], 0
  00148	74 1b		 je	 SHORT $LN25@NEW_Refres

; 380  : 		NEW_SetMultiDirKeyState(m_isLeft, m_isRight, m_isUp, m_isDown);

  0014a	0f b6 46 61	 movzx	 eax, BYTE PTR [esi+97]
  0014e	8b ce		 mov	 ecx, esi
  00150	50		 push	 eax
  00151	0f b6 46 60	 movzx	 eax, BYTE PTR [esi+96]
  00155	50		 push	 eax
  00156	0f b6 46 63	 movzx	 eax, BYTE PTR [esi+99]
  0015a	50		 push	 eax
  0015b	0f b6 46 62	 movzx	 eax, BYTE PTR [esi+98]
  0015f	50		 push	 eax
  00160	e8 00 00 00 00	 call	 ?NEW_SetMultiDirKeyState@CPythonPlayer@@QAEX_N000@Z ; CPythonPlayer::NEW_SetMultiDirKeyState
$LN25@NEW_Refres:

; 381  : 
; 382  : 	if (m_isAtkKey)

  00165	80 7e 64 00	 cmp	 BYTE PTR [esi+100], 0
  00169	74 07		 je	 SHORT $LN26@NEW_Refres

; 383  : 		NEW_Attack();

  0016b	8b ce		 mov	 ecx, esi
  0016d	e8 00 00 00 00	 call	 ?NEW_Attack@CPythonPlayer@@QAEXXZ ; CPythonPlayer::NEW_Attack
$LN26@NEW_Refres:

; 384  : 
; 385  : 	m_iComboOld=pkInstMain->GetComboIndex();

  00172	8b cf		 mov	 ecx, edi
  00174	e8 00 00 00 00	 call	 ?GetComboIndex@CInstanceBase@@QAEKXZ ; CInstanceBase::GetComboIndex
  00179	89 86 e0 b2 01
	00		 mov	 DWORD PTR [esi+111328], eax
$LN1@NEW_Refres:

; 386  : }

  0017f	8b 4d fc	 mov	 ecx, DWORD PTR __$ArrayPad$[ebp]
  00182	5f		 pop	 edi
  00183	5e		 pop	 esi
  00184	33 cd		 xor	 ecx, ebp
  00186	5b		 pop	 ebx
  00187	e8 00 00 00 00	 call	 @__security_check_cookie@4
  0018c	8b e5		 mov	 esp, ebp
  0018e	5d		 pop	 ebp
  0018f	c3		 ret	 0
$LN10@NEW_Refres:

; 306  : 
; 307  : 					__ClearReservedAction();
; 308  : 				}
; 309  : 				else
; 310  : 				{
; 311  : 					pkInstMain->NEW_MoveToDestPixelPositionDirection(kPPosPickedItem);

  00190	8d 45 f0	 lea	 eax, DWORD PTR _kPPosPickedItem$5[ebp]
  00193	8b cf		 mov	 ecx, edi
  00195	50		 push	 eax
  00196	e8 00 00 00 00	 call	 ?NEW_MoveToDestPixelPositionDirection@CInstanceBase@@QAE_NABUD3DXVECTOR3@@@Z ; CInstanceBase::NEW_MoveToDestPixelPositionDirection

; 312  : 				}
; 313  : 			}

  0019b	eb 8a		 jmp	 SHORT $LN18@NEW_Refres
$LN12@NEW_Refres:

; 314  : 			else
; 315  : 			{
; 316  : 				__ClearReservedAction();
; 317  : 			}
; 318  : 
; 319  : 			break;
; 320  : 		}
; 321  : 
; 322  : 		case MODE_CLICK_ACTOR:
; 323  : 		{
; 324  : 			__ReserveProcess_ClickActor();

  0019d	8b ce		 mov	 ecx, esi
  0019f	e8 00 00 00 00	 call	 ?__ReserveProcess_ClickActor@CPythonPlayer@@IAEXXZ ; CPythonPlayer::__ReserveProcess_ClickActor

; 325  : 			break;

  001a4	eb 81		 jmp	 SHORT $LN18@NEW_Refres
$LN13@NEW_Refres:

; 326  : 		}
; 327  : 
; 328  : 		case MODE_CLICK_POSITION:
; 329  : 		{
; 330  : 			if (!pkInstMain->isLock())

  001a6	8b cf		 mov	 ecx, edi
  001a8	e8 00 00 00 00	 call	 ?isLock@CInstanceBase@@QAEHXZ ; CInstanceBase::isLock
  001ad	85 c0		 test	 eax, eax
  001af	0f 85 72 ff ff
	ff		 jne	 $LN18@NEW_Refres
; File C:\Anka2Project\Anka2Project\Source\Binary\source\UserInterface\PythonApplication.h

; 213  : 			assert(ms_pInstance != nullptr);

  001b5	8b 0d 00 00 00
	00		 mov	 ecx, DWORD PTR ?ms_pInstance@CPythonApplication@@1PAV1@A ; CPythonApplication::ms_pInstance
  001bb	85 c9		 test	 ecx, ecx
  001bd	75 1d		 jne	 SHORT $LN36@NEW_Refres
  001bf	68 d5 00 00 00	 push	 213			; 000000d5H
  001c4	68 00 00 00 00	 push	 OFFSET ??_C@_1KI@NDOHEKDB@?$AAC?$AA?3?$AA?2?$AAA?$AAn?$AAk?$AAa?$AA2?$AAP?$AAr?$AAo?$AAj?$AAe?$AAc?$AAt@
  001c9	68 00 00 00 00	 push	 OFFSET ??_C@_1DA@IANAENLC@?$AAm?$AAs?$AA_?$AAp?$AAI?$AAn?$AAs?$AAt?$AAa?$AAn?$AAc?$AAe?$AA?5?$AA?$CB?$AA?$DN@
  001ce	e8 00 00 00 00	 call	 __wassert
  001d3	8b 0d 00 00 00
	00		 mov	 ecx, DWORD PTR ?ms_pInstance@CPythonApplication@@1PAV1@A ; CPythonApplication::ms_pInstance
  001d9	83 c4 0c	 add	 esp, 12			; 0000000cH
$LN36@NEW_Refres:
; File C:\Anka2Project\Anka2Project\Source\Binary\source\UserInterface\PythonPlayerInputMouse.cpp

; 331  : 			if (NEW_IsEmptyReservedDelayTime(CPythonApplication::Instance().GetGlobalElapsedTime()))

  001dc	8b 41 20	 mov	 eax, DWORD PTR [ecx+32]
  001df	83 c1 20	 add	 ecx, 32			; 00000020H
  001e2	8b 40 0c	 mov	 eax, DWORD PTR [eax+12]
  001e5	ff d0		 call	 eax
  001e7	d9 5d ec	 fstp	 DWORD PTR tv396[ebp]
  001ea	f3 0f 10 4d ec	 movss	 xmm1, DWORD PTR tv396[ebp]
  001ef	8b ce		 mov	 ecx, esi
  001f1	e8 00 00 00 00	 call	 ?NEW_IsEmptyReservedDelayTime@CPythonPlayer@@QAE_NM@Z ; CPythonPlayer::NEW_IsEmptyReservedDelayTime
  001f6	84 c0		 test	 al, al
  001f8	0f 84 29 ff ff
	ff		 je	 $LN18@NEW_Refres

; 332  : 			{
; 333  : 				pkInstMain->NEW_MoveToDestPixelPositionDirection(m_kPPosReserved);

  001fe	8d 86 04 b3 01
	00		 lea	 eax, DWORD PTR [esi+111364]
  00204	8b cf		 mov	 ecx, edi
  00206	50		 push	 eax
  00207	e8 00 00 00 00	 call	 ?NEW_MoveToDestPixelPositionDirection@CInstanceBase@@QAE_NABUD3DXVECTOR3@@@Z ; CInstanceBase::NEW_MoveToDestPixelPositionDirection

; 334  : 				__ClearReservedAction();
; 335  : 			}
; 336  : 			break;

  0020c	e9 0f ff ff ff	 jmp	 $LN17@NEW_Refres
$LN16@NEW_Refres:

; 337  : 		}
; 338  : 
; 339  : 		case MODE_USE_SKILL:
; 340  : 		{
; 341  : 			CInstanceBase* pkInstReserved=NEW_FindActorPtr(m_dwVIDReserved);

  00211	ff b6 e4 b2 01
	00		 push	 DWORD PTR [esi+111332]
  00217	e8 00 00 00 00	 call	 ?NEW_FindActorPtr@CPythonPlayer@@QAEPAVCInstanceBase@@K@Z ; CPythonPlayer::NEW_FindActorPtr
  0021c	8b d8		 mov	 ebx, eax

; 342  : 			if (pkInstReserved)

  0021e	85 db		 test	 ebx, ebx
  00220	0f 84 fa fe ff
	ff		 je	 $LN17@NEW_Refres

; 343  : 			{
; 344  : 				float fDistance=pkInstMain->GetDistance(pkInstReserved);

  00226	53		 push	 ebx
  00227	8b cf		 mov	 ecx, edi
  00229	e8 00 00 00 00	 call	 ?GetDistance@CInstanceBase@@QAEMPAV1@@Z ; CInstanceBase::GetDistance

; 345  : 
; 346  : 				// #0000806: [M2EU] 수룡에게 무사(나한군) 탄환? 스킬 사용 안됨
; 347  : 				extern bool IS_HUGE_RACE(unsigned int vnum);
; 348  : 				if (IS_HUGE_RACE(pkInstReserved->GetRace())) // 거대 종족은 근접을 못함

  0022e	8b cb		 mov	 ecx, ebx
  00230	f3 0f 11 45 ec	 movss	 DWORD PTR _fDistance$1$[ebp], xmm0
  00235	e8 00 00 00 00	 call	 ?GetRace@CInstanceBase@@QAEKXZ ; CInstanceBase::GetRace
  0023a	50		 push	 eax
  0023b	e8 00 00 00 00	 call	 ?IS_HUGE_RACE@@YA_NI@Z	; IS_HUGE_RACE
  00240	83 c4 04	 add	 esp, 4
  00243	84 c0		 test	 al, al
  00245	74 12		 je	 SHORT $LN19@NEW_Refres

; 349  : 				{
; 350  : 					fDistance -= 200.0f; // TEMP: 일단 하드 코딩 처리. 정석적으로는 바운드 스피어를 고려해야함

  00247	f3 0f 10 45 ec	 movss	 xmm0, DWORD PTR _fDistance$1$[ebp]
  0024c	f3 0f 5c 05 00
	00 00 00	 subss	 xmm0, DWORD PTR __real@43480000
  00254	f3 0f 11 45 ec	 movss	 DWORD PTR _fDistance$1$[ebp], xmm0
$LN19@NEW_Refres:

; 351  : 				}
; 352  : 
; 353  : 				if (fDistance < float(m_dwSkillRangeReserved))

  00259	8b 86 f4 b2 01
	00		 mov	 eax, DWORD PTR [esi+111348]
  0025f	66 0f 6e c0	 movd	 xmm0, eax
  00263	f3 0f e6 c0	 cvtdq2pd xmm0, xmm0
  00267	c1 e8 1f	 shr	 eax, 31			; 0000001fH
  0026a	f2 0f 58 04 c5
	00 00 00 00	 addsd	 xmm0, QWORD PTR __xmm@41f00000000000000000000000000000[eax*8]
  00273	66 0f 5a c0	 cvtpd2ps xmm0, xmm0
  00277	0f 2f 45 ec	 comiss	 xmm0, DWORD PTR _fDistance$1$[ebp]
  0027b	76 2d		 jbe	 SHORT $LN20@NEW_Refres

; 354  : 				{
; 355  : 					// 접근 도중 Target 이 바뀌어 있을 수도 있다 - [levites]
; 356  : 					SetTarget(m_dwVIDReserved);

  0027d	8b 46 04	 mov	 eax, DWORD PTR [esi+4]
  00280	8d 4e 04	 lea	 ecx, DWORD PTR [esi+4]
  00283	6a 00		 push	 0
  00285	6a 01		 push	 1
  00287	ff b6 e4 b2 01
	00		 push	 DWORD PTR [esi+111332]
  0028d	ff 50 68	 call	 DWORD PTR [eax+104]

; 357  : 					if (__UseSkill(m_dwSkillSlotIndexReserved))

  00290	ff b6 f0 b2 01
	00		 push	 DWORD PTR [esi+111344]
  00296	8b ce		 mov	 ecx, esi
  00298	e8 00 00 00 00	 call	 ?__UseSkill@CPythonPlayer@@IAE_NK@Z ; CPythonPlayer::__UseSkill
  0029d	84 c0		 test	 al, al
  0029f	0f 85 7b fe ff
	ff		 jne	 $LN17@NEW_Refres
  002a5	e9 7d fe ff ff	 jmp	 $LN18@NEW_Refres
$LN20@NEW_Refres:

; 358  : 						__ClearReservedAction();
; 359  : 				}
; 360  : 				else
; 361  : 				{
; 362  : 					pkInstMain->NEW_MoveToDestInstanceDirection(*pkInstReserved);

  002aa	53		 push	 ebx
  002ab	8b cf		 mov	 ecx, edi
  002ad	e8 00 00 00 00	 call	 ?NEW_MoveToDestInstanceDirection@CInstanceBase@@QAEXAAV1@@Z ; CInstanceBase::NEW_MoveToDestInstanceDirection

; 363  : 				}
; 364  : 			}

  002b2	e9 70 fe ff ff	 jmp	 $LN18@NEW_Refres
  002b7	90		 npad	 1
$LN38@NEW_Refres:

; 386  : }

  002b8	00 00 00 00	 DD	 $LN13@NEW_Refres
  002bc	00 00 00 00	 DD	 $LN5@NEW_Refres
  002c0	00 00 00 00	 DD	 $LN12@NEW_Refres
  002c4	00 00 00 00	 DD	 $LN16@NEW_Refres
?NEW_RefreshMouseWalkingDirection@CPythonPlayer@@IAEXXZ ENDP ; CPythonPlayer::NEW_RefreshMouseWalkingDirection
_TEXT	ENDS
END
