; Listing generated by Microsoft (R) Optimizing Compiler Version 19.44.35219.0 

	TITLE	c:\anka2project\anka2project\source\binary\vs_files\userinterface\release\pythonime.obj
	.686P
	.XMM
	include listing.inc
	.model	flat

INCLUDELIB OLDNAMES

PUBLIC	??_C@_0BA@DKDMKINE@PythonIME?5Clear@		; `string'
PUBLIC	??_R2CPythonIME@@8				; CPythonIME::`RTTI Base Class Array'
PUBLIC	??_R2?$CSingleton@VCPythonIME@@@@8		; CSingleton<CPythonIME>::`RTTI Base Class Array'
PUBLIC	??_R2CIME@@8					; CIME::`RTTI Base Class Array'
PUBLIC	??_R2IIMEEventSink@@8				; IIMEEventSink::`RTTI Base Class Array'
PUBLIC	??_R1ICI@?0A@EA@?$CSingleton@VCPythonIME@@@@8	; CSingleton<CPythonIME>::`RTTI Base Class Descriptor at (2088,-1,0,64)'
PUBLIC	??_R13?0A@EA@CIME@@8				; CIME::`RTTI Base Class Descriptor at (4,-1,0,64)'
PUBLIC	??_R1A@?0A@EA@CPythonIME@@8			; CPythonIME::`RTTI Base Class Descriptor at (0,-1,0,64)'
PUBLIC	??_R1A@?0A@EA@?$CSingleton@VCPythonIME@@@@8	; CSingleton<CPythonIME>::`RTTI Base Class Descriptor at (0,-1,0,64)'
PUBLIC	??_R1A@?0A@EA@CIME@@8				; CIME::`RTTI Base Class Descriptor at (0,-1,0,64)'
PUBLIC	??_R1A@?0A@EA@IIMEEventSink@@8			; IIMEEventSink::`RTTI Base Class Descriptor at (0,-1,0,64)'
PUBLIC	??_R3?$CSingleton@VCPythonIME@@@@8		; CSingleton<CPythonIME>::`RTTI Class Hierarchy Descriptor'
PUBLIC	??_R0?AV?$CSingleton@VCPythonIME@@@@@8		; CSingleton<CPythonIME> `RTTI Type Descriptor'
PUBLIC	??_R3CIME@@8					; CIME::`RTTI Class Hierarchy Descriptor'
PUBLIC	??_R0?AVCIME@@@8				; CIME `RTTI Type Descriptor'
PUBLIC	??_R3CPythonIME@@8				; CPythonIME::`RTTI Class Hierarchy Descriptor'
PUBLIC	??_R0?AVCPythonIME@@@8				; CPythonIME `RTTI Type Descriptor'
PUBLIC	??_R3IIMEEventSink@@8				; IIMEEventSink::`RTTI Class Hierarchy Descriptor'
PUBLIC	??_R0?AVIIMEEventSink@@@8			; IIMEEventSink `RTTI Type Descriptor'
PUBLIC	??_R4?$CSingleton@VCPythonIME@@@@6B@		; CSingleton<CPythonIME>::`RTTI Complete Object Locator'
PUBLIC	??_R4CPythonIME@@6B?$CSingleton@VCPythonIME@@@@@ ; CPythonIME::`RTTI Complete Object Locator'
PUBLIC	??_R4CPythonIME@@6BCIME@@@			; CPythonIME::`RTTI Complete Object Locator'
PUBLIC	??_R4CPythonIME@@6BIIMEEventSink@@@		; CPythonIME::`RTTI Complete Object Locator'
PUBLIC	??_R4IIMEEventSink@@6B@				; IIMEEventSink::`RTTI Complete Object Locator'
PUBLIC	??_7?$CSingleton@VCPythonIME@@@@6B@		; CSingleton<CPythonIME>::`vftable'
PUBLIC	??_7IIMEEventSink@@6B@				; IIMEEventSink::`vftable'
PUBLIC	??_7CPythonIME@@6B?$CSingleton@VCPythonIME@@@@@	; CPythonIME::`vftable'
PUBLIC	??_7CPythonIME@@6BCIME@@@			; CPythonIME::`vftable'
PUBLIC	??_7CPythonIME@@6BIIMEEventSink@@@		; CPythonIME::`vftable'
EXTRN	?ms_bCaptureInput@CIME@@2_NA:BYTE		; CIME::ms_bCaptureInput
EXTRN	?SetCurPos@CIME@@IAEXH@Z:PROC			; CIME::SetCurPos
EXTRN	?DelCurPos@CIME@@IAEXXZ:PROC			; CIME::DelCurPos
EXTRN	?ms_curpos@CIME@@2HA:DWORD			; CIME::ms_curpos
EXTRN	?ms_lastpos@CIME@@2HA:DWORD			; CIME::ms_lastpos
EXTRN	?DecCurPos@CIME@@IAEXXZ:PROC			; CIME::DecCurPos
EXTRN	?IncCurPos@CIME@@IAEXXZ:PROC			; CIME::IncCurPos
EXTRN	?Initialize@CIME@@QAE_NPAUHWND__@@@Z:PROC	; CIME::Initialize
EXTRN	?ms_pEvent@CIME@@2PAVIIMEEventSink@@A:DWORD	; CIME::ms_pEvent
EXTRN	??0CIME@@QAE@XZ:PROC				; CIME::CIME
EXTRN	??1CIME@@UAE@XZ:PROC				; CIME::~CIME
;	COMDAT ??_7CPythonIME@@6BIIMEEventSink@@@
CONST	SEGMENT
??_7CPythonIME@@6BIIMEEventSink@@@ DD FLAT:??_R4CPythonIME@@6BIIMEEventSink@@@ ; CPythonIME::`vftable'
	DD	FLAT:?OnWM_CHAR@CPythonIME@@MAE_NIJ@Z
	DD	FLAT:?OnUpdate@CPythonIME@@MAEXXZ
	DD	FLAT:?OnChangeCodePage@CPythonIME@@MAEXXZ
	DD	FLAT:?OnOpenCandidateList@CPythonIME@@MAEXXZ
	DD	FLAT:?OnCloseCandidateList@CPythonIME@@MAEXXZ
	DD	FLAT:?OnOpenReadingWnd@CPythonIME@@MAEXXZ
	DD	FLAT:?OnCloseReadingWnd@CPythonIME@@MAEXXZ
	DD	FLAT:?OnTab@CPythonIME@@MAEXXZ
	DD	FLAT:?OnReturn@CPythonIME@@MAEXXZ
	DD	FLAT:?OnEscape@CPythonIME@@MAEXXZ
CONST	ENDS
;	COMDAT ??_7CPythonIME@@6BCIME@@@
CONST	SEGMENT
??_7CPythonIME@@6BCIME@@@ DD FLAT:??_R4CPythonIME@@6BCIME@@@ ; CPythonIME::`vftable'
	DD	FLAT:??_ECPythonIME@@W3AEPAXI@Z
CONST	ENDS
;	COMDAT ??_7CPythonIME@@6B?$CSingleton@VCPythonIME@@@@@
CONST	SEGMENT
??_7CPythonIME@@6B?$CSingleton@VCPythonIME@@@@@ DD FLAT:??_R4CPythonIME@@6B?$CSingleton@VCPythonIME@@@@@ ; CPythonIME::`vftable'
	DD	FLAT:??_ECPythonIME@@WICI@AEPAXI@Z
CONST	ENDS
;	COMDAT ??_7IIMEEventSink@@6B@
CONST	SEGMENT
??_7IIMEEventSink@@6B@ DD FLAT:??_R4IIMEEventSink@@6B@	; IIMEEventSink::`vftable'
	DD	FLAT:__purecall
	DD	FLAT:__purecall
	DD	FLAT:__purecall
	DD	FLAT:__purecall
	DD	FLAT:__purecall
	DD	FLAT:__purecall
	DD	FLAT:__purecall
CONST	ENDS
;	COMDAT ??_7?$CSingleton@VCPythonIME@@@@6B@
CONST	SEGMENT
??_7?$CSingleton@VCPythonIME@@@@6B@ DD FLAT:??_R4?$CSingleton@VCPythonIME@@@@6B@ ; CSingleton<CPythonIME>::`vftable'
	DD	FLAT:??_E?$CSingleton@VCPythonIME@@@@UAEPAXI@Z
CONST	ENDS
;	COMDAT ??_R4IIMEEventSink@@6B@
rdata$r	SEGMENT
??_R4IIMEEventSink@@6B@ DD 00H				; IIMEEventSink::`RTTI Complete Object Locator'
	DD	00H
	DD	00H
	DD	FLAT:??_R0?AVIIMEEventSink@@@8
	DD	FLAT:??_R3IIMEEventSink@@8
rdata$r	ENDS
;	COMDAT ??_R4CPythonIME@@6BIIMEEventSink@@@
rdata$r	SEGMENT
??_R4CPythonIME@@6BIIMEEventSink@@@ DD 00H		; CPythonIME::`RTTI Complete Object Locator'
	DD	00H
	DD	00H
	DD	FLAT:??_R0?AVCPythonIME@@@8
	DD	FLAT:??_R3CPythonIME@@8
rdata$r	ENDS
;	COMDAT ??_R4CPythonIME@@6BCIME@@@
rdata$r	SEGMENT
??_R4CPythonIME@@6BCIME@@@ DD 00H			; CPythonIME::`RTTI Complete Object Locator'
	DD	04H
	DD	00H
	DD	FLAT:??_R0?AVCPythonIME@@@8
	DD	FLAT:??_R3CPythonIME@@8
rdata$r	ENDS
;	COMDAT ??_R4CPythonIME@@6B?$CSingleton@VCPythonIME@@@@@
rdata$r	SEGMENT
??_R4CPythonIME@@6B?$CSingleton@VCPythonIME@@@@@ DD 00H	; CPythonIME::`RTTI Complete Object Locator'
	DD	0828H
	DD	00H
	DD	FLAT:??_R0?AVCPythonIME@@@8
	DD	FLAT:??_R3CPythonIME@@8
rdata$r	ENDS
;	COMDAT ??_R4?$CSingleton@VCPythonIME@@@@6B@
rdata$r	SEGMENT
??_R4?$CSingleton@VCPythonIME@@@@6B@ DD 00H		; CSingleton<CPythonIME>::`RTTI Complete Object Locator'
	DD	00H
	DD	00H
	DD	FLAT:??_R0?AV?$CSingleton@VCPythonIME@@@@@8
	DD	FLAT:??_R3?$CSingleton@VCPythonIME@@@@8
rdata$r	ENDS
;	COMDAT ??_R0?AVIIMEEventSink@@@8
data$rs	SEGMENT
??_R0?AVIIMEEventSink@@@8 DD FLAT:??_7type_info@@6B@	; IIMEEventSink `RTTI Type Descriptor'
	DD	00H
	DB	'.?AVIIMEEventSink@@', 00H
data$rs	ENDS
;	COMDAT ??_R3IIMEEventSink@@8
rdata$r	SEGMENT
??_R3IIMEEventSink@@8 DD 00H				; IIMEEventSink::`RTTI Class Hierarchy Descriptor'
	DD	00H
	DD	01H
	DD	FLAT:??_R2IIMEEventSink@@8
rdata$r	ENDS
;	COMDAT ??_R0?AVCPythonIME@@@8
data$rs	SEGMENT
??_R0?AVCPythonIME@@@8 DD FLAT:??_7type_info@@6B@	; CPythonIME `RTTI Type Descriptor'
	DD	00H
	DB	'.?AVCPythonIME@@', 00H
data$rs	ENDS
;	COMDAT ??_R3CPythonIME@@8
rdata$r	SEGMENT
??_R3CPythonIME@@8 DD 00H				; CPythonIME::`RTTI Class Hierarchy Descriptor'
	DD	01H
	DD	04H
	DD	FLAT:??_R2CPythonIME@@8
rdata$r	ENDS
;	COMDAT ??_R0?AVCIME@@@8
data$rs	SEGMENT
??_R0?AVCIME@@@8 DD FLAT:??_7type_info@@6B@		; CIME `RTTI Type Descriptor'
	DD	00H
	DB	'.?AVCIME@@', 00H
data$rs	ENDS
;	COMDAT ??_R3CIME@@8
rdata$r	SEGMENT
??_R3CIME@@8 DD	00H					; CIME::`RTTI Class Hierarchy Descriptor'
	DD	00H
	DD	01H
	DD	FLAT:??_R2CIME@@8
rdata$r	ENDS
;	COMDAT ??_R0?AV?$CSingleton@VCPythonIME@@@@@8
data$rs	SEGMENT
??_R0?AV?$CSingleton@VCPythonIME@@@@@8 DD FLAT:??_7type_info@@6B@ ; CSingleton<CPythonIME> `RTTI Type Descriptor'
	DD	00H
	DB	'.?AV?$CSingleton@VCPythonIME@@@@', 00H
data$rs	ENDS
;	COMDAT ??_R3?$CSingleton@VCPythonIME@@@@8
rdata$r	SEGMENT
??_R3?$CSingleton@VCPythonIME@@@@8 DD 00H		; CSingleton<CPythonIME>::`RTTI Class Hierarchy Descriptor'
	DD	00H
	DD	01H
	DD	FLAT:??_R2?$CSingleton@VCPythonIME@@@@8
rdata$r	ENDS
;	COMDAT ??_R1A@?0A@EA@IIMEEventSink@@8
rdata$r	SEGMENT
??_R1A@?0A@EA@IIMEEventSink@@8 DD FLAT:??_R0?AVIIMEEventSink@@@8 ; IIMEEventSink::`RTTI Base Class Descriptor at (0,-1,0,64)'
	DD	00H
	DD	00H
	DD	0ffffffffH
	DD	00H
	DD	040H
	DD	FLAT:??_R3IIMEEventSink@@8
rdata$r	ENDS
;	COMDAT ??_R1A@?0A@EA@CIME@@8
rdata$r	SEGMENT
??_R1A@?0A@EA@CIME@@8 DD FLAT:??_R0?AVCIME@@@8		; CIME::`RTTI Base Class Descriptor at (0,-1,0,64)'
	DD	00H
	DD	00H
	DD	0ffffffffH
	DD	00H
	DD	040H
	DD	FLAT:??_R3CIME@@8
rdata$r	ENDS
;	COMDAT ??_R1A@?0A@EA@?$CSingleton@VCPythonIME@@@@8
rdata$r	SEGMENT
??_R1A@?0A@EA@?$CSingleton@VCPythonIME@@@@8 DD FLAT:??_R0?AV?$CSingleton@VCPythonIME@@@@@8 ; CSingleton<CPythonIME>::`RTTI Base Class Descriptor at (0,-1,0,64)'
	DD	00H
	DD	00H
	DD	0ffffffffH
	DD	00H
	DD	040H
	DD	FLAT:??_R3?$CSingleton@VCPythonIME@@@@8
rdata$r	ENDS
;	COMDAT ??_R1A@?0A@EA@CPythonIME@@8
rdata$r	SEGMENT
??_R1A@?0A@EA@CPythonIME@@8 DD FLAT:??_R0?AVCPythonIME@@@8 ; CPythonIME::`RTTI Base Class Descriptor at (0,-1,0,64)'
	DD	03H
	DD	00H
	DD	0ffffffffH
	DD	00H
	DD	040H
	DD	FLAT:??_R3CPythonIME@@8
rdata$r	ENDS
;	COMDAT ??_R13?0A@EA@CIME@@8
rdata$r	SEGMENT
??_R13?0A@EA@CIME@@8 DD FLAT:??_R0?AVCIME@@@8		; CIME::`RTTI Base Class Descriptor at (4,-1,0,64)'
	DD	00H
	DD	04H
	DD	0ffffffffH
	DD	00H
	DD	040H
	DD	FLAT:??_R3CIME@@8
rdata$r	ENDS
;	COMDAT ??_R1ICI@?0A@EA@?$CSingleton@VCPythonIME@@@@8
rdata$r	SEGMENT
??_R1ICI@?0A@EA@?$CSingleton@VCPythonIME@@@@8 DD FLAT:??_R0?AV?$CSingleton@VCPythonIME@@@@@8 ; CSingleton<CPythonIME>::`RTTI Base Class Descriptor at (2088,-1,0,64)'
	DD	00H
	DD	0828H
	DD	0ffffffffH
	DD	00H
	DD	040H
	DD	FLAT:??_R3?$CSingleton@VCPythonIME@@@@8
rdata$r	ENDS
;	COMDAT ??_R2IIMEEventSink@@8
rdata$r	SEGMENT
??_R2IIMEEventSink@@8 DD FLAT:??_R1A@?0A@EA@IIMEEventSink@@8 ; IIMEEventSink::`RTTI Base Class Array'
rdata$r	ENDS
;	COMDAT ??_R2CIME@@8
rdata$r	SEGMENT
??_R2CIME@@8 DD	FLAT:??_R1A@?0A@EA@CIME@@8		; CIME::`RTTI Base Class Array'
rdata$r	ENDS
;	COMDAT ??_R2?$CSingleton@VCPythonIME@@@@8
rdata$r	SEGMENT
??_R2?$CSingleton@VCPythonIME@@@@8 DD FLAT:??_R1A@?0A@EA@?$CSingleton@VCPythonIME@@@@8 ; CSingleton<CPythonIME>::`RTTI Base Class Array'
rdata$r	ENDS
;	COMDAT ??_R2CPythonIME@@8
rdata$r	SEGMENT
??_R2CPythonIME@@8 DD FLAT:??_R1A@?0A@EA@CPythonIME@@8	; CPythonIME::`RTTI Base Class Array'
	DD	FLAT:??_R1A@?0A@EA@IIMEEventSink@@8
	DD	FLAT:??_R13?0A@EA@CIME@@8
	DD	FLAT:??_R1ICI@?0A@EA@?$CSingleton@VCPythonIME@@@@8
rdata$r	ENDS
;	COMDAT ??_C@_0BA@DKDMKINE@PythonIME?5Clear@
CONST	SEGMENT
??_C@_0BA@DKDMKINE@PythonIME?5Clear@ DB 'PythonIME Clear', 00H ; `string'
PUBLIC	??_ECPythonIME@@WICI@AEPAXI@Z			; [thunk]:CPythonIME::`vector deleting destructor'
PUBLIC	??_ECPythonIME@@W3AEPAXI@Z			; [thunk]:CPythonIME::`vector deleting destructor'
PUBLIC	??_G?$CSingleton@VCPythonIME@@@@UAEPAXI@Z	; CSingleton<CPythonIME>::`scalar deleting destructor'
PUBLIC	??0?$CSingleton@VCPythonIME@@@@QAE@XZ		; CSingleton<CPythonIME>::CSingleton<CPythonIME>
PUBLIC	??1?$CSingleton@VCPythonIME@@@@UAE@XZ		; CSingleton<CPythonIME>::~CSingleton<CPythonIME>
PUBLIC	?OnCloseReadingWnd@CPythonIME@@MAEXXZ		; CPythonIME::OnCloseReadingWnd
PUBLIC	?OnOpenReadingWnd@CPythonIME@@MAEXXZ		; CPythonIME::OnOpenReadingWnd
PUBLIC	?OnCloseCandidateList@CPythonIME@@MAEXXZ	; CPythonIME::OnCloseCandidateList
PUBLIC	?OnOpenCandidateList@CPythonIME@@MAEXXZ		; CPythonIME::OnOpenCandidateList
PUBLIC	?OnChangeCodePage@CPythonIME@@MAEXXZ		; CPythonIME::OnChangeCodePage
PUBLIC	?OnWM_CHAR@CPythonIME@@MAE_NIJ@Z		; CPythonIME::OnWM_CHAR
PUBLIC	?OnEscape@CPythonIME@@MAEXXZ			; CPythonIME::OnEscape
PUBLIC	?OnReturn@CPythonIME@@MAEXXZ			; CPythonIME::OnReturn
PUBLIC	?OnTab@CPythonIME@@MAEXXZ			; CPythonIME::OnTab
PUBLIC	?OnUpdate@CPythonIME@@MAEXXZ			; CPythonIME::OnUpdate
PUBLIC	?Delete@CPythonIME@@QAEXXZ			; CPythonIME::Delete
PUBLIC	?SetCursorPosition@CPythonIME@@QAEXH@Z		; CPythonIME::SetCursorPosition
PUBLIC	?MoveEnd@CPythonIME@@QAEXXZ			; CPythonIME::MoveEnd
PUBLIC	?MoveHome@CPythonIME@@QAEXXZ			; CPythonIME::MoveHome
PUBLIC	?MoveRight@CPythonIME@@QAEXXZ			; CPythonIME::MoveRight
PUBLIC	?MoveLeft@CPythonIME@@QAEXXZ			; CPythonIME::MoveLeft
PUBLIC	??0IIMEEventSink@@QAE@XZ			; IIMEEventSink::IIMEEventSink
PUBLIC	??_GCPythonIME@@UAEPAXI@Z			; CPythonIME::`scalar deleting destructor'
PUBLIC	??0CPythonIME@@QAE@XZ				; CPythonIME::CPythonIME
PUBLIC	??1CPythonIME@@UAE@XZ				; CPythonIME::~CPythonIME
PUBLIC	?Create@CPythonIME@@QAEXPAUHWND__@@@Z		; CPythonIME::Create
EXTRN	??_E?$CSingleton@VCPythonIME@@@@UAEPAXI@Z:PROC	; CSingleton<CPythonIME>::`vector deleting destructor'
EXTRN	??_ECPythonIME@@UAEPAXI@Z:PROC			; CPythonIME::`vector deleting destructor'
;	COMDAT xdata$x
xdata$x	SEGMENT
__ehfuncinfo$??1CPythonIME@@UAE@XZ DQ 00000000019930522r ; 2.11987e-315
	DQ	00000000000000000r		; 0
	DQ	00000000000000000r		; 0
	DQ	00000000000000000r		; 0
	DD	05H
END
