; Listing generated by Microsoft (R) Optimizing Compiler Version 19.44.35219.0 

	TITLE	c:\anka2project\anka2project\source\binary\vs_files\userinterface\release\pythonconfigmodule.obj
	.686P
	.XMM
	include listing.inc
	.model	flat

INCLUDELIB OLDNAMES

PUBLIC	??_C@_04LLJCPOLH@Init@				; `string'
PUBLIC	??_C@_03CEMDFJG@Set@				; `string'
PUBLIC	??_C@_03NNDHPFFO@Get@				; `string'
PUBLIC	??_C@_03JBMODCPM@cfg@				; `string'
PUBLIC	??_C@_0N@HGMEEBKB@SAVE_GENERAL@			; `string'
PUBLIC	??_C@_09BBGBIKNH@SAVE_CHAT@			; `string'
PUBLIC	??_C@_0M@PEHOPNMD@SAVE_OPTION@			; `string'
PUBLIC	??_C@_0BB@NGMEKEBK@SAVE_SKILL_COLOR@		; `string'
EXTRN	?PyTuple_GetByte@@YA_NPAU_object@@HPAE@Z:PROC	; PyTuple_GetByte
;	COMDAT ?s_methods@?1??initcfg@@YAXXZ@4PAUPyMethodDef@@A
_DATA	SEGMENT
?s_methods@?1??initcfg@@YAXXZ@4PAUPyMethodDef@@A DD FLAT:??_C@_04LLJCPOLH@Init@ ; `initcfg'::`2'::s_methods
	DD	FLAT:?cfgInit@@YAPAU_object@@PAU1@0@Z
	DD	01H
	ORG $+4
	DD	FLAT:??_C@_03CEMDFJG@Set@
	DD	FLAT:?cfgSet@@YAPAU_object@@PAU1@0@Z
	DD	01H
	ORG $+4
	DD	FLAT:??_C@_03NNDHPFFO@Get@
	DD	FLAT:?cfgGet@@YAPAU_object@@PAU1@0@Z
	DD	01H
	ORG $+4
	DD	FLAT:??_C@_06MEPBJJFP@Remove@
	DD	FLAT:?cfgRemove@@YAPAU_object@@PAU1@0@Z
	DD	01H
	ORG $+4
	DD	00H
	DD	00H
	ORG $+8
_DATA	ENDS
;	COMDAT ??_C@_0BB@NGMEKEBK@SAVE_SKILL_COLOR@
CONST	SEGMENT
??_C@_0BB@NGMEKEBK@SAVE_SKILL_COLOR@ DB 'SAVE_SKILL_COLOR', 00H ; `string'
CONST	ENDS
;	COMDAT ??_C@_0M@PEHOPNMD@SAVE_OPTION@
CONST	SEGMENT
??_C@_0M@PEHOPNMD@SAVE_OPTION@ DB 'SAVE_OPTION', 00H	; `string'
CONST	ENDS
;	COMDAT ??_C@_09BBGBIKNH@SAVE_CHAT@
CONST	SEGMENT
??_C@_09BBGBIKNH@SAVE_CHAT@ DB 'SAVE_CHAT', 00H		; `string'
CONST	ENDS
;	COMDAT ??_C@_0N@HGMEEBKB@SAVE_GENERAL@
CONST	SEGMENT
??_C@_0N@HGMEEBKB@SAVE_GENERAL@ DB 'SAVE_GENERAL', 00H	; `string'
CONST	ENDS
;	COMDAT ??_C@_03JBMODCPM@cfg@
CONST	SEGMENT
??_C@_03JBMODCPM@cfg@ DB 'cfg', 00H			; `string'
CONST	ENDS
;	COMDAT ??_C@_03NNDHPFFO@Get@
CONST	SEGMENT
??_C@_03NNDHPFFO@Get@ DB 'Get', 00H			; `string'
CONST	ENDS
;	COMDAT ??_C@_03CEMDFJG@Set@
CONST	SEGMENT
??_C@_03CEMDFJG@Set@ DB 'Set', 00H			; `string'
CONST	ENDS
;	COMDAT ??_C@_04LLJCPOLH@Init@
CONST	SEGMENT
??_C@_04LLJCPOLH@Init@ DB 'Init', 00H			; `string'
PUBLIC	?Instance@?$CSingleton@VCPythonConfig@@@@SAAAVCPythonConfig@@XZ ; CSingleton<CPythonConfig>::Instance
PUBLIC	?initcfg@@YAXXZ					; initcfg
PUBLIC	?cfgRemove@@YAPAU_object@@PAU1@0@Z		; cfgRemove
PUBLIC	?cfgGet@@YAPAU_object@@PAU1@0@Z			; cfgGet
PUBLIC	?cfgSet@@YAPAU_object@@PAU1@0@Z			; cfgSet
PUBLIC	?cfgInit@@YAPAU_object@@PAU1@0@Z		; cfgInit
?vecDropSoundFileName@@3V?$array@U?$pair@KV?$basic_string@DU?$char_traits@D@std@@V?$allocator@D@2@@std@@@std@@$04@std@@B DB 08cH DUP (?) ; vecDropSoundFileName
?vecEffectList@@3V?$vector@V?$tuple@IPBDPBD_N@std@@V?$allocator@V?$tuple@IPBDPBD_N@std@@@2@@std@@B DB 0cH DUP (?) ; vecEffectList
?characterNameColors@@3V?$map@EV?$array@E$02@std@@U?$less@E@2@V?$allocator@U?$pair@$$CBEV?$array@E$02@std@@@std@@@2@@std@@B DQ 01H DUP (?) ; characterNameColors
?characterTitleColors@@3V?$map@EV?$array@E$02@std@@U?$less@E@2@V?$allocator@U?$pair@$$CBEV?$array@E$02@std@@@std@@@2@@std@@B DQ 01H DUP (?) ; characterTitleColors
?characterTitleSystemColors@@3V?$map@EV?$array@E$02@std@@U?$less@E@2@V?$allocator@U?$pair@$$CBEV?$array@E$02@std@@@std@@@2@@std@@B DQ 01H DUP (?) ; characterTitleSystemColors
?emotionIcons@@3V?$map@EPBDU?$less@E@std@@V?$allocator@U?$pair@$$CBEPBD@std@@@2@@std@@B DQ 01H DUP (?) ; emotionIcons
?skillIndexes@@3V?$map@EV?$map@EV?$vector@EV?$allocator@E@std@@@std@@U?$less@E@2@V?$allocator@U?$pair@$$CBEV?$vector@EV?$allocator@E@std@@@std@@@std@@@2@@std@@U?$less@E@2@V?$allocator@U?$pair@$$CBEV?$map@EV?$vector@EV?$allocator@E@std@@@std@@U?$less@E@2@V?$allocator@U?$pair@$$CBEV?$vector@EV?$allocator@E@std@@@std@@@std@@@2@@std@@@std@@@2@@std@@B DQ 01H DUP (?) ; skillIndexes
?guildSkills@@3V?$map@V?$basic_string@DU?$char_traits@D@std@@V?$allocator@D@2@@std@@V?$vector@EV?$allocator@E@std@@@2@U?$less@V?$basic_string@DU?$char_traits@D@std@@V?$allocator@D@2@@std@@@2@V?$allocator@U?$pair@$$CBV?$basic_string@DU?$char_traits@D@std@@V?$allocator@D@2@@std@@V?$vector@EV?$allocator@E@std@@@2@@std@@@2@@std@@B DQ 01H DUP (?) ; guildSkills
_BSS	ENDS
;	COMDAT xdata$x
xdata$x	SEGMENT
__ehfuncinfo$??__EvecUseSoundFileName@@YAXXZ DQ 00000000619930522r ; 1.2944e-313
	DD	FLAT:__unwindtable$??__EvecUseSoundFileName@@YAXXZ
	DQ	00000000000000000r		; 0
	DQ	00000000000000000r		; 0
	DQ	00000000100000000r		; 2.122e-314
__unwindtable$??__EvecUseSoundFileName@@YAXXZ DD 0ffffffffH
	DD	FLAT:__unwindfunclet$??__EvecUseSoundFileName@@YAXXZ$0
	DD	00H
	DD	FLAT:__unwindfunclet$??__EvecUseSoundFileName@@YAXXZ$1
	DD	01H
	DD	FLAT:__unwindfunclet$??__EvecUseSoundFileName@@YAXXZ$2
	DD	02H
	DD	FLAT:__unwindfunclet$??__EvecUseSoundFileName@@YAXXZ$3
	DD	03H
	DD	FLAT:__unwindfunclet$??__EvecUseSoundFileName@@YAXXZ$4
	DD	04H
	DD	FLAT:__unwindfunclet$??__EvecUseSoundFileName@@YAXXZ$5
xdata$x	ENDS
;	COMDAT xdata$x
xdata$x	SEGMENT
__ehfuncinfo$??__FvecUseSoundFileName@@YAXXZ DQ 00000000119930522r ; 2.33398e-314
	DD	FLAT:__unwindtable$??__FvecUseSoundFileName@@YAXXZ
	DQ	00000000000000000r		; 0
	DQ	00000000000000000r		; 0
	DQ	00000000100000000r		; 2.122e-314
__unwindtable$??__FvecUseSoundFileName@@YAXXZ DD 0ffffffffH
	DD	FLAT:___std_terminate
xdata$x	ENDS
;	COMDAT xdata$x
xdata$x	SEGMENT
__ehfuncinfo$??__EvecDropSoundFileName@@YAXXZ DQ 00000000419930522r ; 8.69997e-314
	DD	FLAT:__unwindtable$??__EvecDropSoundFileName@@YAXXZ
	DQ	00000000000000000r		; 0
	DQ	00000000000000000r		; 0
	DQ	00000000100000000r		; 2.122e-314
__unwindtable$??__EvecDropSoundFileName@@YAXXZ DD 0ffffffffH
	DD	FLAT:__unwindfunclet$??__EvecDropSoundFileName@@YAXXZ$0
	DD	00H
	DD	FLAT:__unwindfunclet$??__EvecDropSoundFileName@@YAXXZ$1
	DD	01H
	DD	FLAT:__unwindfunclet$??__EvecDropSoundFileName@@YAXXZ$2
	DD	02H
	DD	FLAT:__unwindfunclet$??__EvecDropSoundFileName@@YAXXZ$3
xdata$x	ENDS
;	COMDAT xdata$x
xdata$x	SEGMENT
__ehfuncinfo$??__FvecDropSoundFileName@@YAXXZ DQ 00000000119930522r ; 2.33398e-314
	DD	FLAT:__unwindtable$??__FvecDropSoundFileName@@YAXXZ
	DQ	00000000000000000r		; 0
	DQ	00000000000000000r		; 0
	DQ	00000000100000000r		; 2.122e-314
__unwindtable$??__FvecDropSoundFileName@@YAXXZ DD 0ffffffffH
	DD	FLAT:___std_terminate
xdata$x	ENDS
;	COMDAT xdata$x
xdata$x	SEGMENT
__ehfuncinfo$??__EskillIndexes@@YAXXZ DQ 00000002819930522r ; 8.50918e-313
	DD	FLAT:__unwindtable$??__EskillIndexes@@YAXXZ
	DQ	00000000000000000r		; 0
	DQ	00000000000000000r		; 0
	DQ	00000000100000000r		; 2.122e-314
	ORG $+4
__unwindtable$??__EskillIndexes@@YAXXZ DD 0ffffffffH
	DD	FLAT:__unwindfunclet$??__EskillIndexes@@YAXXZ$0
	DD	00H
	DD	FLAT:__unwindfunclet$??__EskillIndexes@@YAXXZ$1
	DD	01H
	DD	FLAT:__unwindfunclet$??__EskillIndexes@@YAXXZ$2
	DD	00H
	DD	FLAT:__unwindfunclet$??__EskillIndexes@@YAXXZ$2
	DD	03H
	DD	FLAT:__unwindfunclet$??__EskillIndexes@@YAXXZ$4
	DD	04H
	DD	FLAT:__unwindfunclet$??__EskillIndexes@@YAXXZ$5
	DD	05H
	DD	FLAT:__unwindfunclet$??__EskillIndexes@@YAXXZ$6
	DD	06H
	DD	FLAT:__unwindfunclet$??__EskillIndexes@@YAXXZ$7
	DD	07H
	DD	FLAT:__unwindfunclet$??__EskillIndexes@@YAXXZ$8
	DD	08H
	DD	FLAT:__unwindfunclet$??__EskillIndexes@@YAXXZ$9
	DD	07H
	DD	FLAT:__unwindfunclet$??__EskillIndexes@@YAXXZ$9
	DD	0aH
	DD	FLAT:__unwindfunclet$??__EskillIndexes@@YAXXZ$11
	DD	0bH
	DD	FLAT:__unwindfunclet$??__EskillIndexes@@YAXXZ$12
	DD	0cH
	DD	FLAT:__unwindfunclet$??__EskillIndexes@@YAXXZ$13
	DD	0dH
	DD	FLAT:__unwindfunclet$??__EskillIndexes@@YAXXZ$14
	DD	0eH
	DD	FLAT:__unwindfunclet$??__EskillIndexes@@YAXXZ$15
	DD	0fH
	DD	FLAT:__unwindfunclet$??__EskillIndexes@@YAXXZ$16
	DD	0eH
	DD	FLAT:__unwindfunclet$??__EskillIndexes@@YAXXZ$16
	DD	011H
	DD	FLAT:__unwindfunclet$??__EskillIndexes@@YAXXZ$18
	DD	012H
	DD	FLAT:__unwindfunclet$??__EskillIndexes@@YAXXZ$19
	DD	013H
	DD	FLAT:__unwindfunclet$??__EskillIndexes@@YAXXZ$20
	DD	014H
	DD	FLAT:__unwindfunclet$??__EskillIndexes@@YAXXZ$21
	DD	015H
	DD	FLAT:__unwindfunclet$??__EskillIndexes@@YAXXZ$22
	DD	016H
	DD	FLAT:__unwindfunclet$??__EskillIndexes@@YAXXZ$23
	DD	015H
	DD	FLAT:__unwindfunclet$??__EskillIndexes@@YAXXZ$23
	DD	018H
	DD	FLAT:__unwindfunclet$??__EskillIndexes@@YAXXZ$25
	DD	019H
	DD	FLAT:__unwindfunclet$??__EskillIndexes@@YAXXZ$26
	DD	05H
	DD	FLAT:__unwindfunclet$??__EskillIndexes@@YAXXZ$7
	DD	01bH
	DD	FLAT:__unwindfunclet$??__EskillIndexes@@YAXXZ$9
	DD	01cH
	DD	FLAT:__unwindfunclet$??__EskillIndexes@@YAXXZ$11
	DD	01dH
	DD	FLAT:__unwindfunclet$??__EskillIndexes@@YAXXZ$12
	DD	01eH
	DD	FLAT:__unwindfunclet$??__EskillIndexes@@YAXXZ$14
	DD	01fH
	DD	FLAT:__unwindfunclet$??__EskillIndexes@@YAXXZ$16
	DD	020H
	DD	FLAT:__unwindfunclet$??__EskillIndexes@@YAXXZ$18
	DD	021H
	DD	FLAT:__unwindfunclet$??__EskillIndexes@@YAXXZ$19
	DD	022H
	DD	FLAT:__unwindfunclet$??__EskillIndexes@@YAXXZ$21
	DD	023H
	DD	FLAT:__unwindfunclet$??__EskillIndexes@@YAXXZ$23
	DD	024H
	DD	FLAT:__unwindfunclet$??__EskillIndexes@@YAXXZ$25
	DD	025H
	DD	FLAT:__unwindfunclet$??__EskillIndexes@@YAXXZ$26
	DD	026H
	DD	FLAT:__unwindfunclet$??__EskillIndexes@@YAXXZ$28
xdata$x	ENDS
;	COMDAT xdata$x
xdata$x	SEGMENT
__ehfuncinfo$??__EguildSkills@@YAXXZ DQ 00000000a19930522r ; 2.14319e-313
	DD	FLAT:__unwindtable$??__EguildSkills@@YAXXZ
	DQ	00000000000000000r		; 0
	DQ	00000000000000000r		; 0
	DQ	00000000100000000r		; 2.122e-314
	ORG $+4
__unwindtable$??__EguildSkills@@YAXXZ DD 0ffffffffH
	DD	FLAT:__unwindfunclet$??__EguildSkills@@YAXXZ$0
	DD	00H
	DD	FLAT:__unwindfunclet$??__EguildSkills@@YAXXZ$1
	DD	01H
	DD	FLAT:__unwindfunclet$??__EguildSkills@@YAXXZ$10
	DD	01H
	DD	FLAT:__unwindfunclet$??__EguildSkills@@YAXXZ$2
	DD	03H
	DD	FLAT:__unwindfunclet$??__EguildSkills@@YAXXZ$3
	DD	04H
	DD	FLAT:__unwindfunclet$??__EguildSkills@@YAXXZ$4
	DD	05H
	DD	FLAT:__unwindfunclet$??__EguildSkills@@YAXXZ$16
	DD	01H
	DD	FLAT:__unwindfunclet$??__EguildSkills@@YAXXZ$3
	DD	07H
	DD	FLAT:__unwindfunclet$??__EguildSkills@@YAXXZ$4
	DD	08H
	DD	FLAT:__unwindfunclet$??__EguildSkills@@YAXXZ$6
xdata$x	ENDS
;	COMDAT xdata$x
xdata$x	SEGMENT
__ehfuncinfo$?cfgInit@@YAPAU_object@@PAU1@0@Z DQ 00000000119930522r ; 2.33398e-314
	DD	FLAT:__unwindtable$?cfgInit@@YAPAU_object@@PAU1@0@Z
	DQ	00000000000000000r		; 0
	DQ	00000000000000000r		; 0
	DQ	00000000100000000r		; 2.122e-314
__unwindtable$?cfgInit@@YAPAU_object@@PAU1@0@Z DD 0ffffffffH
	DD	FLAT:__unwindfunclet$?cfgInit@@YAPAU_object@@PAU1@0@Z$0
xdata$x	ENDS
;	COMDAT xdata$x
xdata$x	SEGMENT
__ehfuncinfo$?cfgSet@@YAPAU_object@@PAU1@0@Z DQ 00000000219930522r ; 4.45598e-314
	DD	FLAT:__unwindtable$?cfgSet@@YAPAU_object@@PAU1@0@Z
	DQ	00000000000000000r		; 0
	DQ	00000000000000000r		; 0
	DQ	00000000100000000r		; 2.122e-314
__unwindtable$?cfgSet@@YAPAU_object@@PAU1@0@Z DD 0ffffffffH
	DD	FLAT:__unwindfunclet$?cfgSet@@YAPAU_object@@PAU1@0@Z$0
	DD	0ffffffffH
	DD	FLAT:__unwindfunclet$?cfgSet@@YAPAU_object@@PAU1@0@Z$1
xdata$x	ENDS
;	COMDAT xdata$x
xdata$x	SEGMENT
__ehfuncinfo$?cfgGet@@YAPAU_object@@PAU1@0@Z DD 019930522H
	DD	02H
	DD	FLAT:__unwindtable$?cfgGet@@YAPAU_object@@PAU1@0@Z
	DD	2 DUP(00H)
	DD	2 DUP(00H)
	DD	00H
	DD	01H
__unwindtable$?cfgGet@@YAPAU_object@@PAU1@0@Z DD 0ffffffffH
	DD	FLAT:__unwindfunclet$?cfgGet@@YAPAU_object@@PAU1@0@Z$0
	DD	00H
	DD	FLAT:__unwindfunclet$?cfgGet@@YAPAU_object@@PAU1@0@Z$1
?vecUseSoundFileName@@3V?$array@U?$pair@KV?$basic_string@DU?$char_traits@D@std@@V?$allocator@D@2@@std@@@std@@$06@std@@B DQ 00000000000000001r ; 4.94066e-324 ; vecUseSoundFileName
	DQ	00000000000000000r		; 0
	DQ	00000000000000000r		; 0
	DQ	00000000000000000r		; 0
	DQ	00000000000000000r		; 0
	DQ	00000000000000000r		; 0
	DQ	00000000000000000r		; 0
	DQ	00000000000000000r		; 0
	DQ	00000000000000000r		; 0
	DQ	00000000000000000r		; 0
	DQ	00000000000000000r		; 0
	DQ	00000000000000000r		; 0
	DQ	00000000000000000r		; 0
	DQ	00000000000000000r		; 0
	DQ	00000000000000000r		; 0
	DQ	00000000000000000r		; 0
	DQ	00000000000000000r		; 0
	DQ	00000000000000000r		; 0
	DQ	00000000000000000r		; 0
	DQ	00000000000000000r		; 0
	DQ	00000000000000000r		; 0
	DQ	00000000000000000r		; 0
	DQ	00000000000000000r		; 0
	DQ	00000000000000000r		; 0
	DD	00H
?vecUseSoundFileName$initializer$@@3P6AXXZA DD FLAT:??__EvecUseSoundFileName@@YAXXZ ; vecUseSoundFileName$initializer$
?vecDropSoundFileName$initializer$@@3P6AXXZA DD FLAT:??__EvecDropSoundFileName@@YAXXZ ; vecDropSoundFileName$initializer$
?vecEffectList$initializer$@@3P6AXXZA DD FLAT:??__EvecEffectList@@YAXXZ ; vecEffectList$initializer$
?characterNameColors$initializer$@@3P6AXXZA DD FLAT:??__EcharacterNameColors@@YAXXZ ; characterNameColors$initializer$
?characterTitleColors$initializer$@@3P6AXXZA DD FLAT:??__EcharacterTitleColors@@YAXXZ ; characterTitleColors$initializer$
?characterTitleSystemColors$initializer$@@3P6AXXZA DD FLAT:??__EcharacterTitleSystemColors@@YAXXZ ; characterTitleSystemColors$initializer$
?emotionIcons$initializer$@@3P6AXXZA DD FLAT:??__EemotionIcons@@YAXXZ ; emotionIcons$initializer$
?skillIndexes$initializer$@@3P6AXXZA DD FLAT:??__EskillIndexes@@YAXXZ ; skillIndexes$initializer$
?guildSkills$initializer$@@3P6AXXZA DD FLAT:??__EguildSkills@@YAXXZ ; guildSkills$initializer$
; Function compile flags: /Ogtp
; File C:\Anka2Project\Anka2Project\Source\Binary\source\UserInterface\PythonConfigModule.cpp
; File C:\Anka2Project\Anka2Project\Source\Binary\source\eterBase\Singleton.h
; File C:\Program Files\Microsoft Visual Studio\2022\Community\VC\Tools\MSVC\14.44.35207\include\__msvc_string_view.hpp
; File C:\Program Files\Microsoft Visual Studio\2022\Community\VC\Tools\MSVC\14.44.35207\include\xstring
; File C:\Program Files\Microsoft Visual Studio\2022\Community\VC\Tools\MSVC\14.44.35207\include\__msvc_string_view.hpp
; File C:\Program Files\Microsoft Visual Studio\2022\Community\VC\Tools\MSVC\14.44.35207\include\xstring
; File C:\Anka2Project\Anka2Project\Source\Binary\source\UserInterface\PythonConfigModule.cpp
; File C:\Program Files\Microsoft Visual Studio\2022\Community\VC\Tools\MSVC\14.44.35207\include\__msvc_string_view.hpp
; File C:\Program Files\Microsoft Visual Studio\2022\Community\VC\Tools\MSVC\14.44.35207\include\xstring
; File C:\Program Files\Microsoft Visual Studio\2022\Community\VC\Tools\MSVC\14.44.35207\include\__msvc_string_view.hpp
; File C:\Program Files\Microsoft Visual Studio\2022\Community\VC\Tools\MSVC\14.44.35207\include\xstring
; File C:\Anka2Project\Anka2Project\Source\Binary\source\UserInterface\PythonConfigModule.cpp
; File C:\Program Files\Microsoft Visual Studio\2022\Community\VC\Tools\MSVC\14.44.35207\include\xstring
; File C:\Anka2Project\Anka2Project\Source\Binary\source\UserInterface\PythonConfigModule.cpp
; File C:\Program Files\Microsoft Visual Studio\2022\Community\VC\Tools\MSVC\14.44.35207\include\xstring
; File C:\Anka2Project\Anka2Project\Source\Binary\source\UserInterface\PythonConfigModule.cpp
; File C:\Program Files\Microsoft Visual Studio\2022\Community\VC\Tools\MSVC\14.44.35207\include\xstring
; File C:\Program Files\Microsoft Visual Studio\2022\Community\VC\Tools\MSVC\14.44.35207\include\xmemory
; File C:\Program Files\Microsoft Visual Studio\2022\Community\VC\Tools\MSVC\14.44.35207\include\xstring
; File C:\Program Files\Microsoft Visual Studio\2022\Community\VC\Tools\MSVC\14.44.35207\include\xmemory
; File C:\Program Files\Microsoft Visual Studio\2022\Community\VC\Tools\MSVC\14.44.35207\include\xstring
; File C:\Program Files\Microsoft Visual Studio\2022\Community\VC\Tools\MSVC\14.44.35207\include\xmemory
; File C:\Program Files\Microsoft Visual Studio\2022\Community\VC\Tools\MSVC\14.44.35207\include\xstring
; File C:\Program Files\Microsoft Visual Studio\2022\Community\VC\Tools\MSVC\14.44.35207\include\xmemory
; File C:\Anka2Project\Anka2Project\Source\Binary\source\UserInterface\PythonConfigModule.cpp
; File C:\Program Files\Microsoft Visual Studio\2022\Community\VC\Tools\MSVC\14.44.35207\include\xmemory
; File C:\Anka2Project\Anka2Project\Source\Binary\source\UserInterface\PythonConfigModule.cpp
;	COMDAT ?cfgGet@@YAPAU_object@@PAU1@0@Z
_TEXT	SEGMENT
_szKey$ = -100						; size = 4
_szDefault$ = -96					; size = 4
_bType$ = -89						; size = 1
$T10 = -88						; size = 24
$T2 = -64						; size = 24
$T6 = -40						; size = 24
__$ArrayPad$ = -16					; size = 4
__$EHRec$ = -12						; size = 12
_poSelf$ = 8						; size = 4
_poArgs$ = 12						; size = 4
?cfgGet@@YAPAU_object@@PAU1@0@Z PROC			; cfgGet, COMDAT

; 48   : {

  00000	55		 push	 ebp
  00001	8b ec		 mov	 ebp, esp
  00003	6a ff		 push	 -1
  00005	68 00 00 00 00	 push	 __ehhandler$?cfgGet@@YAPAU_object@@PAU1@0@Z
  0000a	64 a1 00 00 00
	00		 mov	 eax, DWORD PTR fs:0
  00010	50		 push	 eax
  00011	83 ec 58	 sub	 esp, 88			; 00000058H
  00014	a1 00 00 00 00	 mov	 eax, DWORD PTR ___security_cookie
  00019	33 c5		 xor	 eax, ebp
  0001b	89 45 f0	 mov	 DWORD PTR __$ArrayPad$[ebp], eax
  0001e	56		 push	 esi
  0001f	57		 push	 edi
  00020	50		 push	 eax
  00021	8d 45 f4	 lea	 eax, DWORD PTR __$EHRec$[ebp]
  00024	64 a3 00 00 00
	00		 mov	 DWORD PTR fs:0, eax
  0002a	8b 75 0c	 mov	 esi, DWORD PTR _poArgs$[ebp]

; 49   : 	BYTE bType;
; 50   : 	if (!PyTuple_GetByte(poArgs, 0, &bType))

  0002d	8d 45 a7	 lea	 eax, DWORD PTR _bType$[ebp]
  00030	50		 push	 eax
  00031	6a 00		 push	 0
  00033	56		 push	 esi
  00034	e8 00 00 00 00	 call	 ?PyTuple_GetByte@@YA_NPAU_object@@HPAE@Z ; PyTuple_GetByte
  00039	83 c4 0c	 add	 esp, 12			; 0000000cH
  0003c	84 c0		 test	 al, al
  0003e	75 0f		 jne	 SHORT $LN2@cfgGet
$LN132@cfgGet:

; 62   : }

  00040	6a 00		 push	 0
  00042	e8 00 00 00 00	 call	 ?Py_BuildException@@YAPAU_object@@PBDZZ ; Py_BuildException
  00047	83 c4 04	 add	 esp, 4
  0004a	e9 65 01 00 00	 jmp	 $LN1@cfgGet
$LN2@cfgGet:

; 51   : 		return Py_BuildException();
; 52   : 
; 53   : 	char* szKey;
; 54   : 	if (!PyTuple_GetString(poArgs, 1, &szKey))

  0004f	8d 45 9c	 lea	 eax, DWORD PTR _szKey$[ebp]
  00052	50		 push	 eax
  00053	6a 01		 push	 1
  00055	56		 push	 esi
  00056	e8 00 00 00 00	 call	 ?PyTuple_GetString@@YA_NPAU_object@@HPAPAD@Z ; PyTuple_GetString
  0005b	83 c4 0c	 add	 esp, 12			; 0000000cH
  0005e	84 c0		 test	 al, al
  00060	74 de		 je	 SHORT $LN132@cfgGet

; 55   : 		return Py_BuildException();
; 56   : 
; 57   : 	char* szDefault;
; 58   : 	if (!PyTuple_GetString(poArgs, 2, &szDefault))

  00062	8d 45 a0	 lea	 eax, DWORD PTR _szDefault$[ebp]
  00065	50		 push	 eax
  00066	6a 02		 push	 2
  00068	56		 push	 esi
  00069	e8 00 00 00 00	 call	 ?PyTuple_GetString@@YA_NPAU_object@@HPAPAD@Z ; PyTuple_GetString
  0006e	83 c4 0c	 add	 esp, 12			; 0000000cH
  00071	84 c0		 test	 al, al
  00073	74 cb		 je	 SHORT $LN132@cfgGet
; File C:\Anka2Project\Anka2Project\Source\Binary\source\eterBase\Singleton.h

; 26   : 		assert(ms_singleton);

  00075	8b 35 00 00 00
	00		 mov	 esi, DWORD PTR ?ms_singleton@?$CSingleton@VCPythonConfig@@@@0PAVCPythonConfig@@A ; CSingleton<CPythonConfig>::ms_singleton
  0007b	85 f6		 test	 esi, esi
  0007d	75 1a		 jne	 SHORT $LN11@cfgGet
  0007f	6a 1a		 push	 26			; 0000001aH
  00081	68 00 00 00 00	 push	 OFFSET ??_C@_1IO@CAJLEEOI@?$AAC?$AA?3?$AA?2?$AAA?$AAn?$AAk?$AAa?$AA2?$AAP?$AAr?$AAo?$AAj?$AAe?$AAc?$AAt@
  00086	68 00 00 00 00	 push	 OFFSET ??_C@_1BK@FMEHPMFE@?$AAm?$AAs?$AA_?$AAs?$AAi?$AAn?$AAg?$AAl?$AAe?$AAt?$AAo?$AAn@
  0008b	e8 00 00 00 00	 call	 __wassert
  00090	8b 35 00 00 00
	00		 mov	 esi, DWORD PTR ?ms_singleton@?$CSingleton@VCPythonConfig@@@@0PAVCPythonConfig@@A ; CSingleton<CPythonConfig>::ms_singleton
  00096	83 c4 0c	 add	 esp, 12			; 0000000cH
$LN11@cfgGet:
; File C:\Program Files\Microsoft Visual Studio\2022\Community\VC\Tools\MSVC\14.44.35207\include\__msvc_string_view.hpp

; 456  :             return __builtin_strlen(_First);

  00099	8b 55 a0	 mov	 edx, DWORD PTR _szDefault$[ebp]
  0009c	0f 57 c0	 xorps	 xmm0, xmm0
  0009f	8b ca		 mov	 ecx, edx
; File C:\Program Files\Microsoft Visual Studio\2022\Community\VC\Tools\MSVC\14.44.35207\include\xstring

; 517  :     size_type _Mysize = 0; // current length of string (size)

  000a1	c7 45 d0 00 00
	00 00		 mov	 DWORD PTR $T2[ebp+16], 0

; 493  :         _CONSTEXPR20 _Bxty() noexcept : _Buf() {} // user-provided, for fancy pointers

  000a8	0f 11 45 c0	 movups	 XMMWORD PTR $T2[ebp], xmm0

; 518  :     size_type _Myres  = 0; // current storage reserved for string (capacity)

  000ac	c7 45 d4 00 00
	00 00		 mov	 DWORD PTR $T2[ebp+20], 0
; File C:\Program Files\Microsoft Visual Studio\2022\Community\VC\Tools\MSVC\14.44.35207\include\__msvc_string_view.hpp

; 456  :             return __builtin_strlen(_First);

  000b3	8d 79 01	 lea	 edi, DWORD PTR [ecx+1]
$LL128@cfgGet:
  000b6	8a 01		 mov	 al, BYTE PTR [ecx]
  000b8	41		 inc	 ecx
  000b9	84 c0		 test	 al, al
  000bb	75 f9		 jne	 SHORT $LL128@cfgGet
  000bd	2b cf		 sub	 ecx, edi
; File C:\Program Files\Microsoft Visual Studio\2022\Community\VC\Tools\MSVC\14.44.35207\include\xstring

; 769  :         _Construct<_Construct_strategy::_From_ptr>(_Ptr, _Convert_size<size_type>(_Traits::length(_Ptr)));

  000bf	51		 push	 ecx
  000c0	52		 push	 edx
  000c1	8d 4d c0	 lea	 ecx, DWORD PTR $T2[ebp]
  000c4	e8 00 00 00 00	 call	 ??$_Construct@$00PBD@?$basic_string@DU?$char_traits@D@std@@V?$allocator@D@2@@std@@AAEXQBDI@Z ; std::basic_string<char,std::char_traits<char>,std::allocator<char> >::_Construct<1,char const *>
; File C:\Anka2Project\Anka2Project\Source\Binary\source\UserInterface\PythonConfigModule.cpp

; 61   : 	return Py_BuildValue("s", CPythonConfig::Instance().GetString((CPythonConfig::EClassTypes)bType, szKey, szDefault).c_str());

  000c9	c7 45 fc 00 00
	00 00		 mov	 DWORD PTR __$EHRec$[ebp+8], 0
  000d0	0f 57 c0	 xorps	 xmm0, xmm0
; File C:\Program Files\Microsoft Visual Studio\2022\Community\VC\Tools\MSVC\14.44.35207\include\__msvc_string_view.hpp

; 456  :             return __builtin_strlen(_First);

  000d3	8b 55 9c	 mov	 edx, DWORD PTR _szKey$[ebp]
  000d6	8b ca		 mov	 ecx, edx
; File C:\Program Files\Microsoft Visual Studio\2022\Community\VC\Tools\MSVC\14.44.35207\include\xstring

; 493  :         _CONSTEXPR20 _Bxty() noexcept : _Buf() {} // user-provided, for fancy pointers

  000d8	0f 11 45 d8	 movups	 XMMWORD PTR $T6[ebp], xmm0

; 517  :     size_type _Mysize = 0; // current length of string (size)

  000dc	c7 45 e8 00 00
	00 00		 mov	 DWORD PTR $T6[ebp+16], 0

; 518  :     size_type _Myres  = 0; // current storage reserved for string (capacity)

  000e3	c7 45 ec 00 00
	00 00		 mov	 DWORD PTR $T6[ebp+20], 0
; File C:\Program Files\Microsoft Visual Studio\2022\Community\VC\Tools\MSVC\14.44.35207\include\__msvc_string_view.hpp

; 456  :             return __builtin_strlen(_First);

  000ea	8d 79 01	 lea	 edi, DWORD PTR [ecx+1]
  000ed	0f 1f 00	 npad	 3
$LL129@cfgGet:
  000f0	8a 01		 mov	 al, BYTE PTR [ecx]
  000f2	41		 inc	 ecx
  000f3	84 c0		 test	 al, al
  000f5	75 f9		 jne	 SHORT $LL129@cfgGet
  000f7	2b cf		 sub	 ecx, edi
; File C:\Program Files\Microsoft Visual Studio\2022\Community\VC\Tools\MSVC\14.44.35207\include\xstring

; 769  :         _Construct<_Construct_strategy::_From_ptr>(_Ptr, _Convert_size<size_type>(_Traits::length(_Ptr)));

  000f9	51		 push	 ecx
  000fa	52		 push	 edx
  000fb	8d 4d d8	 lea	 ecx, DWORD PTR $T6[ebp]
  000fe	e8 00 00 00 00	 call	 ??$_Construct@$00PBD@?$basic_string@DU?$char_traits@D@std@@V?$allocator@D@2@@std@@AAEXQBDI@Z ; std::basic_string<char,std::char_traits<char>,std::allocator<char> >::_Construct<1,char const *>
; File C:\Anka2Project\Anka2Project\Source\Binary\source\UserInterface\PythonConfigModule.cpp

; 61   : 	return Py_BuildValue("s", CPythonConfig::Instance().GetString((CPythonConfig::EClassTypes)bType, szKey, szDefault).c_str());

  00103	8d 45 c0	 lea	 eax, DWORD PTR $T2[ebp]
  00106	c6 45 fc 01	 mov	 BYTE PTR __$EHRec$[ebp+8], 1
  0010a	50		 push	 eax
  0010b	8d 45 d8	 lea	 eax, DWORD PTR $T6[ebp]
  0010e	8b ce		 mov	 ecx, esi
  00110	50		 push	 eax
  00111	0f b6 45 a7	 movzx	 eax, BYTE PTR _bType$[ebp]
  00115	50		 push	 eax
  00116	8d 45 a8	 lea	 eax, DWORD PTR $T10[ebp]
  00119	50		 push	 eax
  0011a	e8 00 00 00 00	 call	 ?GetString@CPythonConfig@@QBE?AV?$basic_string@DU?$char_traits@D@std@@V?$allocator@D@2@@std@@W4EClassTypes@1@ABV23@1@Z ; CPythonConfig::GetString
; File C:\Program Files\Microsoft Visual Studio\2022\Community\VC\Tools\MSVC\14.44.35207\include\xstring

; 453  :         return _Myres > _Small_string_capacity;

  0011f	83 78 14 0f	 cmp	 DWORD PTR [eax+20], 15	; 0000000fH

; 445  :         if (_Large_mode_engaged()) {

  00123	76 02		 jbe	 SHORT $LN52@cfgGet

; 446  :             _Result = _Unfancy(_Bx._Ptr);

  00125	8b 00		 mov	 eax, DWORD PTR [eax]
$LN52@cfgGet:
; File C:\Anka2Project\Anka2Project\Source\Binary\source\UserInterface\PythonConfigModule.cpp

; 61   : 	return Py_BuildValue("s", CPythonConfig::Instance().GetString((CPythonConfig::EClassTypes)bType, szKey, szDefault).c_str());

  00127	50		 push	 eax
  00128	68 00 00 00 00	 push	 OFFSET ??_C@_01LKDEMHDF@s@
  0012d	ff 15 00 00 00
	00		 call	 DWORD PTR __imp__Py_BuildValue
  00133	83 c4 08	 add	 esp, 8
; File C:\Program Files\Microsoft Visual Studio\2022\Community\VC\Tools\MSVC\14.44.35207\include\xstring

; 1383 :         _Tidy_deallocate();

  00136	8d 4d a8	 lea	 ecx, DWORD PTR $T10[ebp]
; File C:\Anka2Project\Anka2Project\Source\Binary\source\UserInterface\PythonConfigModule.cpp

; 61   : 	return Py_BuildValue("s", CPythonConfig::Instance().GetString((CPythonConfig::EClassTypes)bType, szKey, szDefault).c_str());

  00139	8b f0		 mov	 esi, eax
; File C:\Program Files\Microsoft Visual Studio\2022\Community\VC\Tools\MSVC\14.44.35207\include\xstring

; 1383 :         _Tidy_deallocate();

  0013b	e8 00 00 00 00	 call	 ?_Tidy_deallocate@?$basic_string@DU?$char_traits@D@std@@V?$allocator@D@2@@std@@AAEXXZ ; std::basic_string<char,std::char_traits<char>,std::allocator<char> >::_Tidy_deallocate

; 453  :         return _Myres > _Small_string_capacity;

  00140	8b 4d ec	 mov	 ecx, DWORD PTR $T6[ebp+20]
  00143	83 f9 0f	 cmp	 ecx, 15			; 0000000fH

; 3083 :         if (_My_data._Large_mode_engaged()) {

  00146	76 28		 jbe	 SHORT $LN81@cfgGet
; File C:\Program Files\Microsoft Visual Studio\2022\Community\VC\Tools\MSVC\14.44.35207\include\xmemory

; 985  :         _STD _Deallocate<_New_alignof<_Ty>>(_Ptr, sizeof(_Ty) * _Count);

  00148	8b 55 d8	 mov	 edx, DWORD PTR $T6[ebp]
; File C:\Program Files\Microsoft Visual Studio\2022\Community\VC\Tools\MSVC\14.44.35207\include\xstring

; 852  :         _Al.deallocate(_Old_ptr, _Capacity + 1); // +1 for null terminator

  0014b	41		 inc	 ecx
; File C:\Program Files\Microsoft Visual Studio\2022\Community\VC\Tools\MSVC\14.44.35207\include\xmemory

; 985  :         _STD _Deallocate<_New_alignof<_Ty>>(_Ptr, sizeof(_Ty) * _Count);

  0014c	8b c2		 mov	 eax, edx

; 284  :         if (_Bytes >= _Big_allocation_threshold) {

  0014e	81 f9 00 10 00
	00		 cmp	 ecx, 4096		; 00001000H
  00154	72 10		 jb	 SHORT $LN89@cfgGet

; 205  :     const uintptr_t _Ptr_container   = _Ptr_user[-1];

  00156	8b 50 fc	 mov	 edx, DWORD PTR [eax-4]
  00159	83 c1 23	 add	 ecx, 35			; 00000023H
  0015c	2b c2		 sub	 eax, edx

; 219  :     _STL_VERIFY(_Back_shift >= _Min_back_shift && _Back_shift <= _Non_user_size, "invalid argument");

  0015e	83 c0 fc	 add	 eax, -4			; fffffffcH
  00161	83 f8 1f	 cmp	 eax, 31			; 0000001fH
  00164	77 69		 ja	 SHORT $LN121@cfgGet
$LN89@cfgGet:

; 289  :         ::operator delete(_Ptr, _Bytes);

  00166	51		 push	 ecx
  00167	52		 push	 edx
  00168	e8 00 00 00 00	 call	 ??3@YAXPAXI@Z		; operator delete
  0016d	83 c4 08	 add	 esp, 8
$LN81@cfgGet:
; File C:\Program Files\Microsoft Visual Studio\2022\Community\VC\Tools\MSVC\14.44.35207\include\xstring

; 453  :         return _Myres > _Small_string_capacity;

  00170	8b 4d d4	 mov	 ecx, DWORD PTR $T2[ebp+20]

; 3090 :         _My_data._Mysize = 0;

  00173	c7 45 e8 00 00
	00 00		 mov	 DWORD PTR $T6[ebp+16], 0

; 3091 :         _My_data._Myres  = _Small_string_capacity;

  0017a	c7 45 ec 0f 00
	00 00		 mov	 DWORD PTR $T6[ebp+20], 15 ; 0000000fH

; 3092 :         // the _Traits::assign is last so the codegen doesn't think the char write can alias this
; 3093 :         _Traits::assign(_My_data._Bx._Buf[0], _Elem());

  00181	c6 45 d8 00	 mov	 BYTE PTR $T6[ebp], 0

; 453  :         return _Myres > _Small_string_capacity;

  00185	83 f9 0f	 cmp	 ecx, 15			; 0000000fH

; 3083 :         if (_My_data._Large_mode_engaged()) {

  00188	76 28		 jbe	 SHORT $LN114@cfgGet
; File C:\Program Files\Microsoft Visual Studio\2022\Community\VC\Tools\MSVC\14.44.35207\include\xmemory

; 985  :         _STD _Deallocate<_New_alignof<_Ty>>(_Ptr, sizeof(_Ty) * _Count);

  0018a	8b 55 c0	 mov	 edx, DWORD PTR $T2[ebp]
; File C:\Program Files\Microsoft Visual Studio\2022\Community\VC\Tools\MSVC\14.44.35207\include\xstring

; 852  :         _Al.deallocate(_Old_ptr, _Capacity + 1); // +1 for null terminator

  0018d	41		 inc	 ecx
; File C:\Program Files\Microsoft Visual Studio\2022\Community\VC\Tools\MSVC\14.44.35207\include\xmemory

; 985  :         _STD _Deallocate<_New_alignof<_Ty>>(_Ptr, sizeof(_Ty) * _Count);

  0018e	8b c2		 mov	 eax, edx

; 284  :         if (_Bytes >= _Big_allocation_threshold) {

  00190	81 f9 00 10 00
	00		 cmp	 ecx, 4096		; 00001000H
  00196	72 10		 jb	 SHORT $LN122@cfgGet

; 205  :     const uintptr_t _Ptr_container   = _Ptr_user[-1];

  00198	8b 50 fc	 mov	 edx, DWORD PTR [eax-4]
  0019b	83 c1 23	 add	 ecx, 35			; 00000023H
  0019e	2b c2		 sub	 eax, edx

; 219  :     _STL_VERIFY(_Back_shift >= _Min_back_shift && _Back_shift <= _Non_user_size, "invalid argument");

  001a0	83 c0 fc	 add	 eax, -4			; fffffffcH
  001a3	83 f8 1f	 cmp	 eax, 31			; 0000001fH
  001a6	77 27		 ja	 SHORT $LN121@cfgGet
$LN122@cfgGet:

; 289  :         ::operator delete(_Ptr, _Bytes);

  001a8	51		 push	 ecx
  001a9	52		 push	 edx
  001aa	e8 00 00 00 00	 call	 ??3@YAXPAXI@Z		; operator delete
  001af	83 c4 08	 add	 esp, 8
$LN114@cfgGet:
; File C:\Anka2Project\Anka2Project\Source\Binary\source\UserInterface\PythonConfigModule.cpp

; 61   : 	return Py_BuildValue("s", CPythonConfig::Instance().GetString((CPythonConfig::EClassTypes)bType, szKey, szDefault).c_str());

  001b2	8b c6		 mov	 eax, esi
$LN1@cfgGet:

; 62   : }

  001b4	8b 4d f4	 mov	 ecx, DWORD PTR __$EHRec$[ebp]
  001b7	64 89 0d 00 00
	00 00		 mov	 DWORD PTR fs:0, ecx
  001be	59		 pop	 ecx
  001bf	5f		 pop	 edi
  001c0	5e		 pop	 esi
  001c1	8b 4d f0	 mov	 ecx, DWORD PTR __$ArrayPad$[ebp]
  001c4	33 cd		 xor	 ecx, ebp
  001c6	e8 00 00 00 00	 call	 @__security_check_cookie@4
  001cb	8b e5		 mov	 esp, ebp
  001cd	5d		 pop	 ebp
  001ce	c3		 ret	 0
$LN121@cfgGet:
; File C:\Program Files\Microsoft Visual Studio\2022\Community\VC\Tools\MSVC\14.44.35207\include\xmemory

; 219  :     _STL_VERIFY(_Back_shift >= _Min_back_shift && _Back_shift <= _Non_user_size, "invalid argument");

  001cf	6a 00		 push	 0
  001d1	6a 00		 push	 0
  001d3	6a 00		 push	 0
  001d5	6a 00		 push	 0
  001d7	6a 00		 push	 0
  001d9	e8 00 00 00 00	 call	 __invoke_watson
$LN131@cfgGet:
  001de	cc		 int	 3
_TEXT	ENDS
;	COMDAT text$x
text$x	SEGMENT
__unwindfunclet$?cfgGet@@YAPAU_object@@PAU1@0@Z$0:
  00000	8d 4d c0	 lea	 ecx, DWORD PTR $T2[ebp]
  00003	e9 00 00 00 00	 jmp	 ??1?$basic_string@DU?$char_traits@D@std@@V?$allocator@D@2@@std@@QAE@XZ ; std::basic_string<char,std::char_traits<char>,std::allocator<char> >::~basic_string<char,std::char_traits<char>,std::allocator<char> >
__unwindfunclet$?cfgGet@@YAPAU_object@@PAU1@0@Z$1:
  00008	8d 4d d8	 lea	 ecx, DWORD PTR $T6[ebp]
  0000b	e9 00 00 00 00	 jmp	 ??1?$basic_string@DU?$char_traits@D@std@@V?$allocator@D@2@@std@@QAE@XZ ; std::basic_string<char,std::char_traits<char>,std::allocator<char> >::~basic_string<char,std::char_traits<char>,std::allocator<char> >
  00010	cc		 int	 3
  00011	cc		 int	 3
  00012	cc		 int	 3
  00013	cc		 int	 3
  00014	cc		 int	 3
__ehhandler$?cfgGet@@YAPAU_object@@PAU1@0@Z:
  00015	90		 npad	 1
  00016	90		 npad	 1
  00017	8b 54 24 08	 mov	 edx, DWORD PTR [esp+8]
  0001b	8d 42 0c	 lea	 eax, DWORD PTR [edx+12]
  0001e	8b 4a 9c	 mov	 ecx, DWORD PTR [edx-100]
  00021	33 c8		 xor	 ecx, eax
  00023	e8 00 00 00 00	 call	 @__security_check_cookie@4
  00028	8b 4a fc	 mov	 ecx, DWORD PTR [edx-4]
  0002b	33 c8		 xor	 ecx, eax
  0002d	e8 00 00 00 00	 call	 @__security_check_cookie@4
  00032	b8 00 00 00 00	 mov	 eax, OFFSET __ehfuncinfo$?cfgGet@@YAPAU_object@@PAU1@0@Z
  00037	e9 00 00 00 00	 jmp	 ___CxxFrameHandler3
text$x	ENDS
?cfgGet@@YAPAU_object@@PAU1@0@Z ENDP			; cfgGet
; Function compile flags: /Ogtp
; File C:\Anka2Project\Anka2Project\Source\Binary\source\UserInterface\PythonConfigModule.cpp
;	COMDAT ?initcfg@@YAXXZ
_TEXT	SEGMENT
?initcfg@@YAXXZ PROC					; initcfg, COMDAT

; 76   : {

  00000	56		 push	 esi
  00001	57		 push	 edi

; 77   : 	static PyMethodDef s_methods[] =
; 78   : 	{
; 79   : 		{ "Init",		cfgInit,		METH_VARARGS },
; 80   : 		{ "Set",		cfgSet,			METH_VARARGS },
; 81   : 		{ "Get",		cfgGet,			METH_VARARGS },
; 82   : 		{ "Remove",		cfgRemove,		METH_VARARGS },
; 83   : 
; 84   : 		{ nullptr, nullptr }
; 85   : 	};
; 86   : 
; 87   : 	PyObject *poModule = Py_InitModule("cfg", s_methods);

  00002	68 f5 03 00 00	 push	 1013			; 000003f5H
  00007	6a 00		 push	 0
  00009	6a 00		 push	 0
  0000b	68 00 00 00 00	 push	 OFFSET ?s_methods@?1??initcfg@@YAXXZ@4PAUPyMethodDef@@A
  00010	68 00 00 00 00	 push	 OFFSET ??_C@_03JBMODCPM@cfg@
  00015	ff 15 00 00 00
	00		 call	 DWORD PTR __imp__Py_InitModule4

; 88   : 
; 89   : 	PyModule_AddIntConstant(poModule, "SAVE_GENERAL",			CPythonConfig::CLASS_GENERAL);

  0001b	8b 35 00 00 00
	00		 mov	 esi, DWORD PTR __imp__PyModule_AddIntConstant
  00021	8b f8		 mov	 edi, eax
  00023	6a 00		 push	 0
  00025	68 00 00 00 00	 push	 OFFSET ??_C@_0N@HGMEEBKB@SAVE_GENERAL@
  0002a	57		 push	 edi
  0002b	ff d6		 call	 esi

; 90   : 	PyModule_AddIntConstant(poModule, "SAVE_CHAT",				CPythonConfig::CLASS_CHAT);

  0002d	6a 01		 push	 1
  0002f	68 00 00 00 00	 push	 OFFSET ??_C@_09BBGBIKNH@SAVE_CHAT@
  00034	57		 push	 edi
  00035	ff d6		 call	 esi

; 91   : 	PyModule_AddIntConstant(poModule, "SAVE_OPTION",			CPythonConfig::CLASS_OPTION);

  00037	6a 02		 push	 2
  00039	68 00 00 00 00	 push	 OFFSET ??_C@_0M@PEHOPNMD@SAVE_OPTION@
  0003e	57		 push	 edi
  0003f	ff d6		 call	 esi

; 92   : #ifdef ENABLE_SKILL_COLOR_SYSTEM
; 93   : 	PyModule_AddIntConstant(poModule, "SAVE_SKILL_COLOR",		CPythonConfig::CLASS_SKILL_COLOR);

  00041	6a 03		 push	 3
  00043	68 00 00 00 00	 push	 OFFSET ??_C@_0BB@NGMEKEBK@SAVE_SKILL_COLOR@
  00048	57		 push	 edi
  00049	ff d6		 call	 esi
  0004b	83 c4 44	 add	 esp, 68			; 00000044H
  0004e	5f		 pop	 edi
  0004f	5e		 pop	 esi

; 94   : #endif
; 95   : }

  00050	c3		 ret	 0
?initcfg@@YAXXZ ENDP					; initcfg
_TEXT	ENDS
END
