; Listing generated by Microsoft (R) Optimizing Compiler Version 19.44.35219.0 

	TITLE	c:\anka2project\anka2project\source\binary\vs_files\userinterface\release\pythonnetworkstreamphasegameactor.obj
	.686P
	.XMM
	include listing.inc
	.model	flat

INCLUDELIB OLDNAMES

PUBLIC	??_C@_07FCJAGJJB@?$CFs?5?9?5?$CFs@		; `string'
PUBLIC	??_C@_0DN@ILCEHFKM@CPythonNetworkStream?3?3RecvChara@ ; `string'
PUBLIC	??_C@_0DO@OHBFGBBC@TPacketGCCharacterAdditionalInf@ ; `string'
PUBLIC	??_C@_0EC@LELEANAH@CPythonNetworkStream?3?3RecvChara@ ; `string'
;	COMDAT ??_C@_0EC@LELEANAH@CPythonNetworkStream?3?3RecvChara@
CONST	SEGMENT
??_C@_0EC@LELEANAH@CPythonNetworkStream?3?3RecvChara@ DB 'CPythonNetworkS'
	DB	'tream::RecvCharacterMovePacket - PACKET READ ERROR', 00H ; `string'
CONST	ENDS
;	COMDAT ??_C@_0DO@OHBFGBBC@TPacketGCCharacterAdditionalInf@
CONST	SEGMENT
??_C@_0DO@OHBFGBBC@TPacketGCCharacterAdditionalInf@ DB 'TPacketGCCharacte'
	DB	'rAdditionalInfo name=%s vid=%d race=%d Error', 00H ; `string'
CONST	ENDS
;	COMDAT ??_C@_0DN@ILCEHFKM@CPythonNetworkStream?3?3RecvChara@
CONST	SEGMENT
??_C@_0DN@ILCEHFKM@CPythonNetworkStream?3?3RecvChara@ DB 'CPythonNetworkS'
	DB	'tream::RecvCharacterDeletePacket - Recv Error', 00H ; `string'
CONST	ENDS
;	COMDAT ??_C@_07FCJAGJJB@?$CFs?5?9?5?$CFs@
CONST	SEGMENT
??_C@_07FCJAGJJB@?$CFs?5?9?5?$CFs@ DB '%s - %s', 00H	; `string'
PUBLIC	?__RecvCharacterUpdatePacket@CPythonNetworkStream@@IAEXPAUSNetworkUpdateActorData@@@Z ; CPythonNetworkStream::__RecvCharacterUpdatePacket
PUBLIC	?__RecvCharacterAppendPacket@CPythonNetworkStream@@IAEXPAUSNetworkActorData@@@Z ; CPythonNetworkStream::__RecvCharacterAppendPacket
PUBLIC	??1SNetworkUpdateActorData@@QAE@XZ		; SNetworkUpdateActorData::~SNetworkUpdateActorData
PUBLIC	?IsNPCType@@YA_NE@Z				; IsNPCType
PUBLIC	?IsInvisibleRace@@YA_NG@Z			; IsInvisibleRace
PUBLIC	?__SetWeaponPower@@YAXAAVIAbstractPlayer@@K@Z	; __SetWeaponPower
PUBLIC	??0SNetworkUpdateActorData@@QAE@XZ		; SNetworkUpdateActorData::SNetworkUpdateActorData
PUBLIC	??0SNetworkMoveActorData@@QAE@XZ		; SNetworkMoveActorData::SNetworkMoveActorData
PUBLIC	?RecvCharacterAppendPacket@CPythonNetworkStream@@IAE_NXZ ; CPythonNetworkStream::RecvCharacterAppendPacket
PUBLIC	?RecvCharacterAdditionalInfo@CPythonNetworkStream@@IAE_NXZ ; CPythonNetworkStream::RecvCharacterAdditionalInfo
PUBLIC	?RecvCharacterAppendPacketNew@CPythonNetworkStream@@IAE_NXZ ; CPythonNetworkStream::RecvCharacterAppendPacketNew
PUBLIC	?RecvCharacterUpdatePacket@CPythonNetworkStream@@IAE_NXZ ; CPythonNetworkStream::RecvCharacterUpdatePacket
PUBLIC	?RecvCharacterUpdatePacketNew@CPythonNetworkStream@@IAE_NXZ ; CPythonNetworkStream::RecvCharacterUpdatePacketNew
PUBLIC	?RecvCharacterDeletePacket@CPythonNetworkStream@@IAE_NXZ ; CPythonNetworkStream::RecvCharacterDeletePacket
PUBLIC	?RecvSyncPositionPacket@CPythonNetworkStream@@IAE_NXZ ; CPythonNetworkStream::RecvSyncPositionPacket
PUBLIC	?RecvOwnerShipPacket@CPythonNetworkStream@@IAE_NXZ ; CPythonNetworkStream::RecvOwnerShipPacket
PUBLIC	?RecvCharacterMovePacket@CPythonNetworkStream@@IAE_NXZ ; CPythonNetworkStream::RecvCharacterMovePacket
PUBLIC	?__GlobalPositionToLocalPosition@CPythonNetworkStream@@IAEXAAJ0@Z ; CPythonNetworkStream::__GlobalPositionToLocalPosition
PUBLIC	?__ClearNetworkActorManager@CPythonNetworkStream@@IAEXXZ ; CPythonNetworkStream::__ClearNetworkActorManager
PUBLIC	?__CanActMainInstance@CPythonNetworkStream@@IAE_NXZ ; CPythonNetworkStream::__CanActMainInstance
PUBLIC	?__LocalPositionToGlobalPosition@CPythonNetworkStream@@IAEXAAJ0@Z ; CPythonNetworkStream::__LocalPositionToGlobalPosition
?vecDropSoundFileName@@3V?$array@U?$pair@KV?$basic_string@DU?$char_traits@D@std@@V?$allocator@D@2@@std@@@std@@$04@std@@B DB 08cH DUP (?) ; vecDropSoundFileName
?vecEffectList@@3V?$vector@V?$tuple@IPBDPBD_N@std@@V?$allocator@V?$tuple@IPBDPBD_N@std@@@2@@std@@B DB 0cH DUP (?) ; vecEffectList
?characterNameColors@@3V?$map@EV?$array@E$02@std@@U?$less@E@2@V?$allocator@U?$pair@$$CBEV?$array@E$02@std@@@std@@@2@@std@@B DQ 01H DUP (?) ; characterNameColors
?characterTitleColors@@3V?$map@EV?$array@E$02@std@@U?$less@E@2@V?$allocator@U?$pair@$$CBEV?$array@E$02@std@@@std@@@2@@std@@B DQ 01H DUP (?) ; characterTitleColors
?characterTitleSystemColors@@3V?$map@EV?$array@E$02@std@@U?$less@E@2@V?$allocator@U?$pair@$$CBEV?$array@E$02@std@@@std@@@2@@std@@B DQ 01H DUP (?) ; characterTitleSystemColors
?emotionIcons@@3V?$map@EPBDU?$less@E@std@@V?$allocator@U?$pair@$$CBEPBD@std@@@2@@std@@B DQ 01H DUP (?) ; emotionIcons
?skillIndexes@@3V?$map@EV?$map@EV?$vector@EV?$allocator@E@std@@@std@@U?$less@E@2@V?$allocator@U?$pair@$$CBEV?$vector@EV?$allocator@E@std@@@std@@@std@@@2@@std@@U?$less@E@2@V?$allocator@U?$pair@$$CBEV?$map@EV?$vector@EV?$allocator@E@std@@@std@@U?$less@E@2@V?$allocator@U?$pair@$$CBEV?$vector@EV?$allocator@E@std@@@std@@@std@@@2@@std@@@std@@@2@@std@@B DQ 01H DUP (?) ; skillIndexes
?guildSkills@@3V?$map@V?$basic_string@DU?$char_traits@D@std@@V?$allocator@D@2@@std@@V?$vector@EV?$allocator@E@std@@@2@U?$less@V?$basic_string@DU?$char_traits@D@std@@V?$allocator@D@2@@std@@@2@V?$allocator@U?$pair@$$CBV?$basic_string@DU?$char_traits@D@std@@V?$allocator@D@2@@std@@V?$vector@EV?$allocator@E@std@@@2@@std@@@2@@std@@B DQ 01H DUP (?) ; guildSkills
?s_kNetActorData@@3USNetworkActorData@@A DB 0190H DUP (?) ; s_kNetActorData
_BSS	ENDS
;	COMDAT xdata$x
xdata$x	SEGMENT
__ehfuncinfo$?RecvCharacterAppendPacketNew@CPythonNetworkStream@@IAE_NXZ DQ 00000000119930522r ; 2.33398e-314
	DD	FLAT:__unwindtable$?RecvCharacterAppendPacketNew@CPythonNetworkStream@@IAE_NXZ
	DQ	00000000000000000r		; 0
	DQ	00000000000000000r		; 0
	DQ	00000000100000000r		; 2.122e-314
__unwindtable$?RecvCharacterAppendPacketNew@CPythonNetworkStream@@IAE_NXZ DD 0ffffffffH
	DD	FLAT:__unwindfunclet$?RecvCharacterAppendPacketNew@CPythonNetworkStream@@IAE_NXZ$0
xdata$x	ENDS
;	COMDAT xdata$x
xdata$x	SEGMENT
__ehfuncinfo$?RecvCharacterAdditionalInfo@CPythonNetworkStream@@IAE_NXZ DQ 00000000119930522r ; 2.33398e-314
	DD	FLAT:__unwindtable$?RecvCharacterAdditionalInfo@CPythonNetworkStream@@IAE_NXZ
	DQ	00000000000000000r		; 0
	DQ	00000000000000000r		; 0
	DQ	00000000100000000r		; 2.122e-314
__unwindtable$?RecvCharacterAdditionalInfo@CPythonNetworkStream@@IAE_NXZ DD 0ffffffffH
	DD	FLAT:__unwindfunclet$?RecvCharacterAdditionalInfo@CPythonNetworkStream@@IAE_NXZ$0
xdata$x	ENDS
;	COMDAT xdata$x
xdata$x	SEGMENT
__ehfuncinfo$?RecvCharacterAppendPacket@CPythonNetworkStream@@IAE_NXZ DQ 00000000119930522r ; 2.33398e-314
	DD	FLAT:__unwindtable$?RecvCharacterAppendPacket@CPythonNetworkStream@@IAE_NXZ
	DQ	00000000000000000r		; 0
	DQ	00000000000000000r		; 0
	DQ	00000000100000000r		; 2.122e-314
__unwindtable$?RecvCharacterAppendPacket@CPythonNetworkStream@@IAE_NXZ DD 0ffffffffH
	DD	FLAT:__unwindfunclet$?RecvCharacterAppendPacket@CPythonNetworkStream@@IAE_NXZ$0
xdata$x	ENDS
;	COMDAT xdata$x
xdata$x	SEGMENT
__ehfuncinfo$??__EvecUseSoundFileName@@YAXXZ DQ 00000000619930522r ; 1.2944e-313
	DD	FLAT:__unwindtable$??__EvecUseSoundFileName@@YAXXZ
	DQ	00000000000000000r		; 0
	DQ	00000000000000000r		; 0
	DQ	00000000100000000r		; 2.122e-314
__unwindtable$??__EvecUseSoundFileName@@YAXXZ DD 0ffffffffH
	DD	FLAT:__unwindfunclet$??__EvecUseSoundFileName@@YAXXZ$0
	DD	00H
	DD	FLAT:__unwindfunclet$??__EvecUseSoundFileName@@YAXXZ$1
	DD	01H
	DD	FLAT:__unwindfunclet$??__EvecUseSoundFileName@@YAXXZ$2
	DD	02H
	DD	FLAT:__unwindfunclet$??__EvecUseSoundFileName@@YAXXZ$3
	DD	03H
	DD	FLAT:__unwindfunclet$??__EvecUseSoundFileName@@YAXXZ$4
	DD	04H
	DD	FLAT:__unwindfunclet$??__EvecUseSoundFileName@@YAXXZ$5
xdata$x	ENDS
;	COMDAT xdata$x
xdata$x	SEGMENT
__ehfuncinfo$??__FvecUseSoundFileName@@YAXXZ DQ 00000000119930522r ; 2.33398e-314
	DD	FLAT:__unwindtable$??__FvecUseSoundFileName@@YAXXZ
	DQ	00000000000000000r		; 0
	DQ	00000000000000000r		; 0
	DQ	00000000100000000r		; 2.122e-314
__unwindtable$??__FvecUseSoundFileName@@YAXXZ DD 0ffffffffH
	DD	FLAT:___std_terminate
xdata$x	ENDS
;	COMDAT xdata$x
xdata$x	SEGMENT
__ehfuncinfo$??__EvecDropSoundFileName@@YAXXZ DQ 00000000419930522r ; 8.69997e-314
	DD	FLAT:__unwindtable$??__EvecDropSoundFileName@@YAXXZ
	DQ	00000000000000000r		; 0
	DQ	00000000000000000r		; 0
	DQ	00000000100000000r		; 2.122e-314
__unwindtable$??__EvecDropSoundFileName@@YAXXZ DD 0ffffffffH
	DD	FLAT:__unwindfunclet$??__EvecDropSoundFileName@@YAXXZ$0
	DD	00H
	DD	FLAT:__unwindfunclet$??__EvecDropSoundFileName@@YAXXZ$1
	DD	01H
	DD	FLAT:__unwindfunclet$??__EvecDropSoundFileName@@YAXXZ$2
	DD	02H
	DD	FLAT:__unwindfunclet$??__EvecDropSoundFileName@@YAXXZ$3
xdata$x	ENDS
;	COMDAT xdata$x
xdata$x	SEGMENT
__ehfuncinfo$??__FvecDropSoundFileName@@YAXXZ DQ 00000000119930522r ; 2.33398e-314
	DD	FLAT:__unwindtable$??__FvecDropSoundFileName@@YAXXZ
	DQ	00000000000000000r		; 0
	DQ	00000000000000000r		; 0
	DQ	00000000100000000r		; 2.122e-314
__unwindtable$??__FvecDropSoundFileName@@YAXXZ DD 0ffffffffH
	DD	FLAT:___std_terminate
xdata$x	ENDS
;	COMDAT xdata$x
xdata$x	SEGMENT
__ehfuncinfo$??__EskillIndexes@@YAXXZ DQ 00000002819930522r ; 8.50918e-313
	DD	FLAT:__unwindtable$??__EskillIndexes@@YAXXZ
	DQ	00000000000000000r		; 0
	DQ	00000000000000000r		; 0
	DQ	00000000100000000r		; 2.122e-314
	ORG $+4
__unwindtable$??__EskillIndexes@@YAXXZ DD 0ffffffffH
	DD	FLAT:__unwindfunclet$??__EskillIndexes@@YAXXZ$0
	DD	00H
	DD	FLAT:__unwindfunclet$??__EskillIndexes@@YAXXZ$1
	DD	01H
	DD	FLAT:__unwindfunclet$??__EskillIndexes@@YAXXZ$2
	DD	00H
	DD	FLAT:__unwindfunclet$??__EskillIndexes@@YAXXZ$2
	DD	03H
	DD	FLAT:__unwindfunclet$??__EskillIndexes@@YAXXZ$4
	DD	04H
	DD	FLAT:__unwindfunclet$??__EskillIndexes@@YAXXZ$5
	DD	05H
	DD	FLAT:__unwindfunclet$??__EskillIndexes@@YAXXZ$6
	DD	06H
	DD	FLAT:__unwindfunclet$??__EskillIndexes@@YAXXZ$7
	DD	07H
	DD	FLAT:__unwindfunclet$??__EskillIndexes@@YAXXZ$8
	DD	08H
	DD	FLAT:__unwindfunclet$??__EskillIndexes@@YAXXZ$9
	DD	07H
	DD	FLAT:__unwindfunclet$??__EskillIndexes@@YAXXZ$9
	DD	0aH
	DD	FLAT:__unwindfunclet$??__EskillIndexes@@YAXXZ$11
	DD	0bH
	DD	FLAT:__unwindfunclet$??__EskillIndexes@@YAXXZ$12
	DD	0cH
	DD	FLAT:__unwindfunclet$??__EskillIndexes@@YAXXZ$13
	DD	0dH
	DD	FLAT:__unwindfunclet$??__EskillIndexes@@YAXXZ$14
	DD	0eH
	DD	FLAT:__unwindfunclet$??__EskillIndexes@@YAXXZ$15
	DD	0fH
	DD	FLAT:__unwindfunclet$??__EskillIndexes@@YAXXZ$16
	DD	0eH
	DD	FLAT:__unwindfunclet$??__EskillIndexes@@YAXXZ$16
	DD	011H
	DD	FLAT:__unwindfunclet$??__EskillIndexes@@YAXXZ$18
	DD	012H
	DD	FLAT:__unwindfunclet$??__EskillIndexes@@YAXXZ$19
	DD	013H
	DD	FLAT:__unwindfunclet$??__EskillIndexes@@YAXXZ$20
	DD	014H
	DD	FLAT:__unwindfunclet$??__EskillIndexes@@YAXXZ$21
	DD	015H
	DD	FLAT:__unwindfunclet$??__EskillIndexes@@YAXXZ$22
	DD	016H
	DD	FLAT:__unwindfunclet$??__EskillIndexes@@YAXXZ$23
	DD	015H
	DD	FLAT:__unwindfunclet$??__EskillIndexes@@YAXXZ$23
	DD	018H
	DD	FLAT:__unwindfunclet$??__EskillIndexes@@YAXXZ$25
	DD	019H
	DD	FLAT:__unwindfunclet$??__EskillIndexes@@YAXXZ$26
	DD	05H
	DD	FLAT:__unwindfunclet$??__EskillIndexes@@YAXXZ$7
	DD	01bH
	DD	FLAT:__unwindfunclet$??__EskillIndexes@@YAXXZ$9
	DD	01cH
	DD	FLAT:__unwindfunclet$??__EskillIndexes@@YAXXZ$11
	DD	01dH
	DD	FLAT:__unwindfunclet$??__EskillIndexes@@YAXXZ$12
	DD	01eH
	DD	FLAT:__unwindfunclet$??__EskillIndexes@@YAXXZ$14
	DD	01fH
	DD	FLAT:__unwindfunclet$??__EskillIndexes@@YAXXZ$16
	DD	020H
	DD	FLAT:__unwindfunclet$??__EskillIndexes@@YAXXZ$18
	DD	021H
	DD	FLAT:__unwindfunclet$??__EskillIndexes@@YAXXZ$19
	DD	022H
	DD	FLAT:__unwindfunclet$??__EskillIndexes@@YAXXZ$21
	DD	023H
	DD	FLAT:__unwindfunclet$??__EskillIndexes@@YAXXZ$23
	DD	024H
	DD	FLAT:__unwindfunclet$??__EskillIndexes@@YAXXZ$25
	DD	025H
	DD	FLAT:__unwindfunclet$??__EskillIndexes@@YAXXZ$26
	DD	026H
	DD	FLAT:__unwindfunclet$??__EskillIndexes@@YAXXZ$28
xdata$x	ENDS
;	COMDAT xdata$x
xdata$x	SEGMENT
__ehfuncinfo$??__EguildSkills@@YAXXZ DQ 00000000a19930522r ; 2.14319e-313
	DD	FLAT:__unwindtable$??__EguildSkills@@YAXXZ
	DQ	00000000000000000r		; 0
	DQ	00000000000000000r		; 0
	DQ	00000000100000000r		; 2.122e-314
	ORG $+4
__unwindtable$??__EguildSkills@@YAXXZ DD 0ffffffffH
	DD	FLAT:__unwindfunclet$??__EguildSkills@@YAXXZ$0
	DD	00H
	DD	FLAT:__unwindfunclet$??__EguildSkills@@YAXXZ$1
	DD	01H
	DD	FLAT:__unwindfunclet$??__EguildSkills@@YAXXZ$10
	DD	01H
	DD	FLAT:__unwindfunclet$??__EguildSkills@@YAXXZ$2
	DD	03H
	DD	FLAT:__unwindfunclet$??__EguildSkills@@YAXXZ$3
	DD	04H
	DD	FLAT:__unwindfunclet$??__EguildSkills@@YAXXZ$4
	DD	05H
	DD	FLAT:__unwindfunclet$??__EguildSkills@@YAXXZ$16
	DD	01H
	DD	FLAT:__unwindfunclet$??__EguildSkills@@YAXXZ$3
	DD	07H
	DD	FLAT:__unwindfunclet$??__EguildSkills@@YAXXZ$4
	DD	08H
	DD	FLAT:__unwindfunclet$??__EguildSkills@@YAXXZ$6
xdata$x	ENDS
;	COMDAT xdata$x
xdata$x	SEGMENT
__ehfuncinfo$?__RecvCharacterAppendPacket@CPythonNetworkStream@@IAEXPAUSNetworkActorData@@@Z DD 019930522H
	DD	01H
	DD	FLAT:__unwindtable$?__RecvCharacterAppendPacket@CPythonNetworkStream@@IAEXPAUSNetworkActorData@@@Z
	DD	2 DUP(00H)
	DD	2 DUP(00H)
	DD	00H
	DD	01H
__unwindtable$?__RecvCharacterAppendPacket@CPythonNetworkStream@@IAEXPAUSNetworkActorData@@@Z DD 0ffffffffH
	DD	FLAT:__unwindfunclet$?__RecvCharacterAppendPacket@CPythonNetworkStream@@IAEXPAUSNetworkActorData@@@Z$0
	ORG $+4
?vecUseSoundFileName@@3V?$array@U?$pair@KV?$basic_string@DU?$char_traits@D@std@@V?$allocator@D@2@@std@@@std@@$06@std@@B DQ 00000000000000001r ; 4.94066e-324 ; vecUseSoundFileName
	DQ	00000000000000000r		; 0
	DQ	00000000000000000r		; 0
	DQ	00000000000000000r		; 0
	DQ	00000000000000000r		; 0
	DQ	00000000000000000r		; 0
	DQ	00000000000000000r		; 0
	DQ	00000000000000000r		; 0
	DQ	00000000000000000r		; 0
	DQ	00000000000000000r		; 0
	DQ	00000000000000000r		; 0
	DQ	00000000000000000r		; 0
	DQ	00000000000000000r		; 0
	DQ	00000000000000000r		; 0
	DQ	00000000000000000r		; 0
	DQ	00000000000000000r		; 0
	DQ	00000000000000000r		; 0
	DQ	00000000000000000r		; 0
	DQ	00000000000000000r		; 0
	DQ	00000000000000000r		; 0
	DQ	00000000000000000r		; 0
	DQ	00000000000000000r		; 0
	DQ	00000000000000000r		; 0
	DQ	00000000000000000r		; 0
	DD	00H
?vecUseSoundFileName$initializer$@@3P6AXXZA DD FLAT:??__EvecUseSoundFileName@@YAXXZ ; vecUseSoundFileName$initializer$
?vecDropSoundFileName$initializer$@@3P6AXXZA DD FLAT:??__EvecDropSoundFileName@@YAXXZ ; vecDropSoundFileName$initializer$
?vecEffectList$initializer$@@3P6AXXZA DD FLAT:??__EvecEffectList@@YAXXZ ; vecEffectList$initializer$
?characterNameColors$initializer$@@3P6AXXZA DD FLAT:??__EcharacterNameColors@@YAXXZ ; characterNameColors$initializer$
?characterTitleColors$initializer$@@3P6AXXZA DD FLAT:??__EcharacterTitleColors@@YAXXZ ; characterTitleColors$initializer$
?characterTitleSystemColors$initializer$@@3P6AXXZA DD FLAT:??__EcharacterTitleSystemColors@@YAXXZ ; characterTitleSystemColors$initializer$
?emotionIcons$initializer$@@3P6AXXZA DD FLAT:??__EemotionIcons@@YAXXZ ; emotionIcons$initializer$
?skillIndexes$initializer$@@3P6AXXZA DD FLAT:??__EskillIndexes@@YAXXZ ; skillIndexes$initializer$
?guildSkills$initializer$@@3P6AXXZA DD FLAT:??__EguildSkills@@YAXXZ ; guildSkills$initializer$
?s_kNetActorData$initializer$@@3P6AXXZA DD FLAT:??__Es_kNetActorData@@YAXXZ ; s_kNetActorData$initializer$
; Function compile flags: /Ogtp
; File C:\Anka2Project\Anka2Project\Source\Binary\source\UserInterface\PythonNetworkStreamPhaseGameActor.cpp
; File C:\Anka2Project\Anka2Project\Source\Binary\source\eterlib\Ref.h
; File C:\Anka2Project\Anka2Project\Source\Binary\source\UserInterface\PythonNetworkStreamPhaseGameActor.cpp
;	COMDAT ?RecvCharacterDeletePacket@CPythonNetworkStream@@IAE_NXZ
_TEXT	SEGMENT
_chrDelPacket$ = -8					; size = 5
?RecvCharacterDeletePacket@CPythonNetworkStream@@IAE_NXZ PROC ; CPythonNetworkStream::RecvCharacterDeletePacket, COMDAT
; _this$ = ecx

; 483  : {

  00000	55		 push	 ebp
  00001	8b ec		 mov	 ebp, esp
  00003	83 ec 08	 sub	 esp, 8

; 484  : 	TPacketGCCharacterDelete chrDelPacket;
; 485  : 
; 486  : 	if (!Recv(sizeof(chrDelPacket), &chrDelPacket))

  00006	8d 45 f8	 lea	 eax, DWORD PTR _chrDelPacket$[ebp]
  00009	56		 push	 esi
  0000a	50		 push	 eax
  0000b	6a 05		 push	 5
  0000d	8b f1		 mov	 esi, ecx
  0000f	e8 00 00 00 00	 call	 ?Recv@CNetworkStream@@QAE_NHPAX@Z ; CNetworkStream::Recv
  00014	84 c0		 test	 al, al
  00016	75 14		 jne	 SHORT $LN2@RecvCharac

; 487  : 	{
; 488  : 		TraceError("CPythonNetworkStream::RecvCharacterDeletePacket - Recv Error");

  00018	68 00 00 00 00	 push	 OFFSET ??_C@_0DN@ILCEHFKM@CPythonNetworkStream?3?3RecvChara@
  0001d	e8 00 00 00 00	 call	 ?TraceError@@YAXPBDZZ	; TraceError
  00022	83 c4 04	 add	 esp, 4

; 489  : 		return false;

  00025	32 c0		 xor	 al, al
  00027	5e		 pop	 esi

; 497  : }

  00028	8b e5		 mov	 esp, ebp
  0002a	5d		 pop	 ebp
  0002b	c3		 ret	 0
$LN2@RecvCharac:
; File C:\Anka2Project\Anka2Project\Source\Binary\source\eterlib\Ref.h

; 85   : 			assert(m_pObject != nullptr);

  0002c	83 be 28 04 00
	00 00		 cmp	 DWORD PTR [esi+1064], 0
  00033	75 14		 jne	 SHORT $LN6@RecvCharac
  00035	6a 55		 push	 85			; 00000055H
  00037	68 00 00 00 00	 push	 OFFSET ??_C@_1IA@GOBOKLKL@?$AAC?$AA?3?$AA?2?$AAA?$AAn?$AAk?$AAa?$AA2?$AAP?$AAr?$AAo?$AAj?$AAe?$AAc?$AAt@
  0003c	68 00 00 00 00	 push	 OFFSET ??_C@_1CK@DKKCJALE@?$AAm?$AA_?$AAp?$AAO?$AAb?$AAj?$AAe?$AAc?$AAt?$AA?5?$AA?$CB?$AA?$DN?$AA?5?$AAn?$AAu@
  00041	e8 00 00 00 00	 call	 __wassert
  00046	83 c4 0c	 add	 esp, 12			; 0000000cH
$LN6@RecvCharac:
; File C:\Anka2Project\Anka2Project\Source\Binary\source\UserInterface\PythonNetworkStreamPhaseGameActor.cpp

; 492  : 	m_rokNetActorMgr->RemoveActor(chrDelPacket.dwVID);

  00049	ff 75 f9	 push	 DWORD PTR _chrDelPacket$[ebp+1]
  0004c	8b 8e 28 04 00
	00		 mov	 ecx, DWORD PTR [esi+1064]
  00052	e8 00 00 00 00	 call	 ?RemoveActor@CNetworkActorManager@@QAEXK@Z ; CNetworkActorManager::RemoveActor

; 493  : 
; 494  : 	PyCallClassMemberFunc(m_apoPhaseWnd[PHASE_WINDOW_GAME], "BINARY_PrivateShop_Disappear", Py_BuildValue("(i)", chrDelPacket.dwVID));

  00057	ff 75 f9	 push	 DWORD PTR _chrDelPacket$[ebp+1]
  0005a	68 00 00 00 00	 push	 OFFSET ??_C@_03LIHNMIHG@?$CIi?$CJ@
  0005f	ff 15 00 00 00
	00		 call	 DWORD PTR __imp__Py_BuildValue
  00065	50		 push	 eax
  00066	68 00 00 00 00	 push	 OFFSET ??_C@_0BN@BEOHMMCM@BINARY_PrivateShop_Disappear@
  0006b	ff b6 98 01 00
	00		 push	 DWORD PTR [esi+408]
  00071	e8 00 00 00 00	 call	 ?PyCallClassMemberFunc@@YA_NPAU_object@@PBD0@Z ; PyCallClassMemberFunc
  00076	83 c4 14	 add	 esp, 20			; 00000014H

; 495  : 
; 496  : 	return true;

  00079	b0 01		 mov	 al, 1
  0007b	5e		 pop	 esi

; 497  : }

  0007c	8b e5		 mov	 esp, ebp
  0007e	5d		 pop	 ebp
  0007f	c3		 ret	 0
?RecvCharacterDeletePacket@CPythonNetworkStream@@IAE_NXZ ENDP ; CPythonNetworkStream::RecvCharacterDeletePacket
_TEXT	ENDS
; Function compile flags: /Ogtp
; File C:\Anka2Project\Anka2Project\Source\Binary\source\UserInterface\PythonNetworkStreamPhaseGameActor.cpp
; File C:\Anka2Project\Anka2Project\Source\Binary\source\eterBase\Singleton.h
; File C:\Anka2Project\Anka2Project\Source\Binary\source\UserInterface\PythonNetworkStreamPhaseGameActor.cpp
; File C:\Anka2Project\Anka2Project\Source\Binary\source\eterBase\Singleton.h
; File C:\Anka2Project\Anka2Project\Source\Binary\source\UserInterface\PythonNetworkStreamPhaseGameActor.cpp
; File C:\Anka2Project\Anka2Project\Source\Binary\source\eterBase\Singleton.h
; File C:\Anka2Project\Anka2Project\Source\Binary\source\UserInterface\PythonNetworkStreamPhaseGameActor.cpp
;	COMDAT ?__SetWeaponPower@@YAXAAVIAbstractPlayer@@K@Z
_TEXT	SEGMENT
_rkPlayer$1$ = -32					; size = 4
_maxPower$1$ = -28					; size = 4
_minMagicPower$1$ = -24					; size = 4
_maxMagicPower$1$ = -20					; size = 4
_addPower$1$ = -16					; size = 4
_pItemData$ = -12					; size = 4
_pkWeapon$ = -8						; size = 4
$T6 = -4						; size = 3
?__SetWeaponPower@@YAXAAVIAbstractPlayer@@K@Z PROC	; __SetWeaponPower, COMDAT
; _rkPlayer$ = ecx
; _dwWeaponID$ = edx

; 39   : {

  00000	55		 push	 ebp
  00001	8b ec		 mov	 ebp, esp
  00003	83 ec 20	 sub	 esp, 32			; 00000020H
  00006	53		 push	 ebx

; 40   : 	DWORD minPower=0;

  00007	33 db		 xor	 ebx, ebx
  00009	89 4d e0	 mov	 DWORD PTR _rkPlayer$1$[ebp], ecx
; File C:\Anka2Project\Anka2Project\Source\Binary\source\eterBase\Singleton.h

; 26   : 		assert(ms_singleton);

  0000c	8b 0d 00 00 00
	00		 mov	 ecx, DWORD PTR ?ms_singleton@?$CSingleton@VCItemManager@@@@0PAVCItemManager@@A ; CSingleton<CItemManager>::ms_singleton
; File C:\Anka2Project\Anka2Project\Source\Binary\source\UserInterface\PythonNetworkStreamPhaseGameActor.cpp

; 41   : 	DWORD maxPower=0;

  00012	89 5d e4	 mov	 DWORD PTR _maxPower$1$[ebp], ebx

; 42   : 	DWORD minMagicPower=0;

  00015	89 5d e8	 mov	 DWORD PTR _minMagicPower$1$[ebp], ebx

; 43   : 	DWORD maxMagicPower=0;

  00018	89 5d ec	 mov	 DWORD PTR _maxMagicPower$1$[ebp], ebx

; 44   : 	DWORD addPower=0;

  0001b	89 5d f0	 mov	 DWORD PTR _addPower$1$[ebp], ebx
  0001e	56		 push	 esi
  0001f	8b f2		 mov	 esi, edx
  00021	57		 push	 edi
; File C:\Anka2Project\Anka2Project\Source\Binary\source\eterBase\Singleton.h

; 26   : 		assert(ms_singleton);

  00022	85 c9		 test	 ecx, ecx
  00024	75 1a		 jne	 SHORT $LN8@SetWeaponP
  00026	6a 1a		 push	 26			; 0000001aH
  00028	68 00 00 00 00	 push	 OFFSET ??_C@_1IO@CAJLEEOI@?$AAC?$AA?3?$AA?2?$AAA?$AAn?$AAk?$AAa?$AA2?$AAP?$AAr?$AAo?$AAj?$AAe?$AAc?$AAt@
  0002d	68 00 00 00 00	 push	 OFFSET ??_C@_1BK@FMEHPMFE@?$AAm?$AAs?$AA_?$AAs?$AAi?$AAn?$AAg?$AAl?$AAe?$AAt?$AAo?$AAn@
  00032	e8 00 00 00 00	 call	 __wassert
  00037	8b 0d 00 00 00
	00		 mov	 ecx, DWORD PTR ?ms_singleton@?$CSingleton@VCItemManager@@@@0PAVCItemManager@@A ; CSingleton<CItemManager>::ms_singleton
  0003d	83 c4 0c	 add	 esp, 12			; 0000000cH
$LN8@SetWeaponP:
; File C:\Anka2Project\Anka2Project\Source\Binary\source\UserInterface\PythonNetworkStreamPhaseGameActor.cpp

; 47   : 	if (CItemManager::Instance().GetItemDataPointer(dwWeaponID, &pkWeapon))

  00040	8d 45 f8	 lea	 eax, DWORD PTR _pkWeapon$[ebp]
  00043	50		 push	 eax
  00044	56		 push	 esi
  00045	e8 00 00 00 00	 call	 ?GetItemDataPointer@CItemManager@@QAEHKPAPAVCItemData@@@Z ; CItemManager::GetItemDataPointer
  0004a	85 c0		 test	 eax, eax
  0004c	74 4c		 je	 SHORT $LN3@SetWeaponP

; 48   : 	{
; 49   : 		if (pkWeapon->GetType()==CItemData::ITEM_TYPE_WEAPON)

  0004e	8b 4d f8	 mov	 ecx, DWORD PTR _pkWeapon$[ebp]
  00051	e8 00 00 00 00	 call	 ?GetType@CItemData@@QBEEXZ ; CItemData::GetType
  00056	3c 01		 cmp	 al, 1
  00058	75 40		 jne	 SHORT $LN3@SetWeaponP

; 50   : 		{
; 51   : 			minPower=pkWeapon->GetValue(3);

  0005a	8b 4d f8	 mov	 ecx, DWORD PTR _pkWeapon$[ebp]
  0005d	6a 03		 push	 3
  0005f	e8 00 00 00 00	 call	 ?GetValue@CItemData@@QBEJE@Z ; CItemData::GetValue

; 52   : 			maxPower=pkWeapon->GetValue(4);

  00064	8b 4d f8	 mov	 ecx, DWORD PTR _pkWeapon$[ebp]
  00067	8b d8		 mov	 ebx, eax
  00069	6a 04		 push	 4
  0006b	e8 00 00 00 00	 call	 ?GetValue@CItemData@@QBEJE@Z ; CItemData::GetValue

; 53   : 			minMagicPower=pkWeapon->GetValue(1);

  00070	8b 4d f8	 mov	 ecx, DWORD PTR _pkWeapon$[ebp]
  00073	6a 01		 push	 1
  00075	89 45 e4	 mov	 DWORD PTR _maxPower$1$[ebp], eax
  00078	e8 00 00 00 00	 call	 ?GetValue@CItemData@@QBEJE@Z ; CItemData::GetValue

; 54   : 			maxMagicPower=pkWeapon->GetValue(2);

  0007d	8b 4d f8	 mov	 ecx, DWORD PTR _pkWeapon$[ebp]
  00080	6a 02		 push	 2
  00082	89 45 e8	 mov	 DWORD PTR _minMagicPower$1$[ebp], eax
  00085	e8 00 00 00 00	 call	 ?GetValue@CItemData@@QBEJE@Z ; CItemData::GetValue

; 55   : 			addPower=pkWeapon->GetValue(5);

  0008a	8b 4d f8	 mov	 ecx, DWORD PTR _pkWeapon$[ebp]
  0008d	6a 05		 push	 5
  0008f	89 45 ec	 mov	 DWORD PTR _maxMagicPower$1$[ebp], eax
  00092	e8 00 00 00 00	 call	 ?GetValue@CItemData@@QBEJE@Z ; CItemData::GetValue
  00097	89 45 f0	 mov	 DWORD PTR _addPower$1$[ebp], eax
$LN3@SetWeaponP:
; File C:\Anka2Project\Anka2Project\Source\Binary\source\eterBase\Singleton.h

; 26   : 		assert(ms_singleton);

  0009a	8b 3d 00 00 00
	00		 mov	 edi, DWORD PTR ?ms_singleton@?$CSingleton@VCItemManager@@@@0PAVCItemManager@@A ; CSingleton<CItemManager>::ms_singleton
  000a0	85 ff		 test	 edi, edi
  000a2	75 1a		 jne	 SHORT $LN11@SetWeaponP
  000a4	6a 1a		 push	 26			; 0000001aH
  000a6	68 00 00 00 00	 push	 OFFSET ??_C@_1IO@CAJLEEOI@?$AAC?$AA?3?$AA?2?$AAA?$AAn?$AAk?$AAa?$AA2?$AAP?$AAr?$AAo?$AAj?$AAe?$AAc?$AAt@
  000ab	68 00 00 00 00	 push	 OFFSET ??_C@_1BK@FMEHPMFE@?$AAm?$AAs?$AA_?$AAs?$AAi?$AAn?$AAg?$AAl?$AAe?$AAt?$AAo?$AAn@
  000b0	e8 00 00 00 00	 call	 __wassert
  000b5	8b 3d 00 00 00
	00		 mov	 edi, DWORD PTR ?ms_singleton@?$CSingleton@VCItemManager@@@@0PAVCItemManager@@A ; CSingleton<CItemManager>::ms_singleton
  000bb	83 c4 0c	 add	 esp, 12			; 0000000cH
$LN11@SetWeaponP:
  000be	8b 0d 00 00 00
	00		 mov	 ecx, DWORD PTR ?ms_singleton@?$CSingleton@VCPythonPlayer@@@@0PAVCPythonPlayer@@A ; CSingleton<CPythonPlayer>::ms_singleton
  000c4	85 c9		 test	 ecx, ecx
  000c6	75 1a		 jne	 SHORT $LN14@SetWeaponP
  000c8	6a 1a		 push	 26			; 0000001aH
  000ca	68 00 00 00 00	 push	 OFFSET ??_C@_1IO@CAJLEEOI@?$AAC?$AA?3?$AA?2?$AAA?$AAn?$AAk?$AAa?$AA2?$AAP?$AAr?$AAo?$AAj?$AAe?$AAc?$AAt@
  000cf	68 00 00 00 00	 push	 OFFSET ??_C@_1BK@FMEHPMFE@?$AAm?$AAs?$AA_?$AAs?$AAi?$AAn?$AAg?$AAl?$AAe?$AAt?$AAo?$AAn@
  000d4	e8 00 00 00 00	 call	 __wassert
  000d9	8b 0d 00 00 00
	00		 mov	 ecx, DWORD PTR ?ms_singleton@?$CSingleton@VCPythonPlayer@@@@0PAVCPythonPlayer@@A ; CSingleton<CPythonPlayer>::ms_singleton
  000df	83 c4 0c	 add	 esp, 12			; 0000000cH
$LN14@SetWeaponP:
; File C:\Anka2Project\Anka2Project\Source\Binary\source\UserInterface\PythonNetworkStreamPhaseGameActor.cpp

; 61   : 	if (CItemManager::Instance().GetItemDataPointer(CPythonPlayer::Instance().GetItemIndex(TItemPos(INVENTORY, c_Equipment_Weapon)), &pItemData))

  000e2	8b 41 04	 mov	 eax, DWORD PTR [ecx+4]
  000e5	83 c1 04	 add	 ecx, 4
  000e8	51		 push	 ecx
  000e9	8b d4		 mov	 edx, esp
  000eb	c6 45 fc 01	 mov	 BYTE PTR $T6[ebp], 1
  000ef	8b 70 48	 mov	 esi, DWORD PTR [eax+72]
  000f2	b8 b8 00 00 00	 mov	 eax, 184		; 000000b8H
  000f7	66 89 45 fd	 mov	 WORD PTR $T6[ebp+1], ax
  000fb	66 8b 45 fc	 mov	 ax, WORD PTR $T6[ebp]
  000ff	66 89 02	 mov	 WORD PTR [edx], ax
  00102	8a 45 fe	 mov	 al, BYTE PTR $T6[ebp+2]
  00105	88 42 02	 mov	 BYTE PTR [edx+2], al
  00108	ff d6		 call	 esi
  0010a	8d 4d f4	 lea	 ecx, DWORD PTR _pItemData$[ebp]
  0010d	51		 push	 ecx
  0010e	50		 push	 eax
  0010f	8b cf		 mov	 ecx, edi
  00111	e8 00 00 00 00	 call	 ?GetItemDataPointer@CItemManager@@QAEHKPAPAVCItemData@@@Z ; CItemManager::GetItemDataPointer
  00116	85 c0		 test	 eax, eax
  00118	74 40		 je	 SHORT $LN4@SetWeaponP

; 62   : 	{
; 63   : 		minPower=pItemData->GetValue(3);

  0011a	8b 4d f4	 mov	 ecx, DWORD PTR _pItemData$[ebp]
  0011d	6a 03		 push	 3
  0011f	e8 00 00 00 00	 call	 ?GetValue@CItemData@@QBEJE@Z ; CItemData::GetValue

; 64   : 		maxPower=pItemData->GetValue(4);

  00124	8b 4d f4	 mov	 ecx, DWORD PTR _pItemData$[ebp]
  00127	8b d8		 mov	 ebx, eax
  00129	6a 04		 push	 4
  0012b	e8 00 00 00 00	 call	 ?GetValue@CItemData@@QBEJE@Z ; CItemData::GetValue

; 65   : 		minMagicPower=pItemData->GetValue(1);

  00130	8b 4d f4	 mov	 ecx, DWORD PTR _pItemData$[ebp]
  00133	6a 01		 push	 1
  00135	89 45 e4	 mov	 DWORD PTR _maxPower$1$[ebp], eax
  00138	e8 00 00 00 00	 call	 ?GetValue@CItemData@@QBEJE@Z ; CItemData::GetValue

; 66   : 		maxMagicPower=pItemData->GetValue(2);

  0013d	8b 4d f4	 mov	 ecx, DWORD PTR _pItemData$[ebp]
  00140	6a 02		 push	 2
  00142	89 45 e8	 mov	 DWORD PTR _minMagicPower$1$[ebp], eax
  00145	e8 00 00 00 00	 call	 ?GetValue@CItemData@@QBEJE@Z ; CItemData::GetValue

; 67   : 		addPower=pItemData->GetValue(5);

  0014a	8b 4d f4	 mov	 ecx, DWORD PTR _pItemData$[ebp]
  0014d	6a 05		 push	 5
  0014f	89 45 ec	 mov	 DWORD PTR _maxMagicPower$1$[ebp], eax
  00152	e8 00 00 00 00	 call	 ?GetValue@CItemData@@QBEJE@Z ; CItemData::GetValue
  00157	89 45 f0	 mov	 DWORD PTR _addPower$1$[ebp], eax
$LN4@SetWeaponP:

; 68   : 	}
; 69   : #endif
; 70   : 
; 71   : 	rkPlayer.SetWeaponPower(minPower, maxPower, minMagicPower, maxMagicPower, addPower);

  0015a	ff 75 f0	 push	 DWORD PTR _addPower$1$[ebp]
  0015d	8b 4d e0	 mov	 ecx, DWORD PTR _rkPlayer$1$[ebp]
  00160	ff 75 ec	 push	 DWORD PTR _maxMagicPower$1$[ebp]
  00163	ff 75 e8	 push	 DWORD PTR _minMagicPower$1$[ebp]
  00166	8b 01		 mov	 eax, DWORD PTR [ecx]
  00168	ff 75 e4	 push	 DWORD PTR _maxPower$1$[ebp]
  0016b	53		 push	 ebx
  0016c	ff 50 64	 call	 DWORD PTR [eax+100]

; 72   : }

  0016f	5f		 pop	 edi
  00170	5e		 pop	 esi
  00171	5b		 pop	 ebx
  00172	8b e5		 mov	 esp, ebp
  00174	5d		 pop	 ebp
  00175	c3		 ret	 0
?__SetWeaponPower@@YAXAAVIAbstractPlayer@@K@Z ENDP	; __SetWeaponPower
_TEXT	ENDS
; Function compile flags: /Ogtp
; File C:\Anka2Project\Anka2Project\Source\Binary\source\UserInterface\PythonNetworkStreamPhaseGameActor.cpp
; File C:\Anka2Project\Anka2Project\Source\Binary\source\UserInterface\AbstractSingleton.h
; File C:\Anka2Project\Anka2Project\Source\Binary\source\UserInterface\PythonNetworkStreamPhaseGameActor.cpp
; File C:\Anka2Project\Anka2Project\Source\Binary\source\UserInterface\AbstractSingleton.h
; File C:\Anka2Project\Anka2Project\Source\Binary\source\UserInterface\PythonNetworkStreamPhaseGameActor.cpp
; File C:\Anka2Project\Anka2Project\Source\Binary\source\eterBase\Singleton.h
; File C:\Anka2Project\Anka2Project\Source\Binary\source\UserInterface\PythonNetworkStreamPhaseGameActor.cpp
; File C:\Anka2Project\Anka2Project\Source\Binary\source\eterBase\Singleton.h
; File C:\Anka2Project\Anka2Project\Source\Binary\source\UserInterface\PythonNetworkStreamPhaseGameActor.cpp
; File C:\Anka2Project\Anka2Project\Source\Binary\source\eterBase\Singleton.h
; File C:\Anka2Project\Anka2Project\Source\Binary\source\UserInterface\PythonNetworkStreamPhaseGameActor.cpp
; File C:\Program Files\Microsoft Visual Studio\2022\Community\VC\Tools\MSVC\14.44.35207\include\xstring
; File C:\Program Files\Microsoft Visual Studio\2022\Community\VC\Tools\MSVC\14.44.35207\include\__msvc_string_view.hpp
; File C:\Program Files\Microsoft Visual Studio\2022\Community\VC\Tools\MSVC\14.44.35207\include\xstring
; File C:\Program Files\Microsoft Visual Studio\2022\Community\VC\Tools\MSVC\14.44.35207\include\__msvc_string_view.hpp
; File C:\Program Files\Microsoft Visual Studio\2022\Community\VC\Tools\MSVC\14.44.35207\include\xstring
; File C:\Anka2Project\Anka2Project\Source\Binary\source\UserInterface\PythonNetworkStreamPhaseGameActor.cpp
; File C:\Program Files\Microsoft Visual Studio\2022\Community\VC\Tools\MSVC\14.44.35207\include\xstring
; File C:\Program Files\Microsoft Visual Studio\2022\Community\VC\Tools\MSVC\14.44.35207\include\__msvc_string_view.hpp
; File C:\Program Files\Microsoft Visual Studio\2022\Community\VC\Tools\MSVC\14.44.35207\include\xstring
; File C:\Program Files\Microsoft Visual Studio\2022\Community\VC\Tools\MSVC\14.44.35207\include\__msvc_string_view.hpp
; File C:\Anka2Project\Anka2Project\Source\Binary\source\UserInterface\PythonNetworkStreamPhaseGameActor.cpp
; File C:\Program Files\Microsoft Visual Studio\2022\Community\VC\Tools\MSVC\14.44.35207\include\__msvc_string_view.hpp
; File C:\Anka2Project\Anka2Project\Source\Binary\source\UserInterface\PythonNetworkStreamPhaseGameActor.cpp
; File C:\Program Files\Microsoft Visual Studio\2022\Community\VC\Tools\MSVC\14.44.35207\include\xstring
; File C:\Program Files\Microsoft Visual Studio\2022\Community\VC\Tools\MSVC\14.44.35207\include\xmemory
; File C:\Anka2Project\Anka2Project\Source\Binary\source\UserInterface\PythonNetworkStreamPhaseGameActor.cpp
; File C:\Anka2Project\Anka2Project\Source\Binary\source\eterlib\Ref.h
; File C:\Anka2Project\Anka2Project\Source\Binary\source\UserInterface\PythonNetworkStreamPhaseGameActor.cpp
; File C:\Program Files\Microsoft Visual Studio\2022\Community\VC\Tools\MSVC\14.44.35207\include\xmemory
; File C:\Anka2Project\Anka2Project\Source\Binary\source\UserInterface\PythonNetworkStreamPhaseGameActor.cpp
;	COMDAT ?__RecvCharacterAppendPacket@CPythonNetworkStream@@IAEXPAUSNetworkActorData@@@Z
_TEXT	SEGMENT
tv486 = -56						; size = 4
_pkNetActorData$GSCopy$1$ = -52				; size = 4
_this$GSCopy$1$ = -48					; size = 4
_strMapName$22 = -44					; size = 24
__$ArrayPad$ = -20					; size = 4
__$EHRec$ = -12						; size = 12
_pkNetActorData$ = 8					; size = 4
?__RecvCharacterAppendPacket@CPythonNetworkStream@@IAEXPAUSNetworkActorData@@@Z PROC ; CPythonNetworkStream::__RecvCharacterAppendPacket, COMDAT
; _this$ = ecx

; 422  : {

  00000	53		 push	 ebx
  00001	8b dc		 mov	 ebx, esp
  00003	83 ec 08	 sub	 esp, 8
  00006	83 e4 f8	 and	 esp, -8			; fffffff8H
  00009	83 c4 04	 add	 esp, 4
  0000c	55		 push	 ebp
  0000d	8b 6b 04	 mov	 ebp, DWORD PTR [ebx+4]
  00010	89 6c 24 04	 mov	 DWORD PTR [esp+4], ebp
  00014	8b ec		 mov	 ebp, esp
  00016	6a ff		 push	 -1
  00018	68 00 00 00 00	 push	 __ehhandler$?__RecvCharacterAppendPacket@CPythonNetworkStream@@IAEXPAUSNetworkActorData@@@Z
  0001d	64 a1 00 00 00
	00		 mov	 eax, DWORD PTR fs:0
  00023	50		 push	 eax
  00024	53		 push	 ebx
  00025	83 ec 28	 sub	 esp, 40			; 00000028H
  00028	a1 00 00 00 00	 mov	 eax, DWORD PTR ___security_cookie
  0002d	33 c5		 xor	 eax, ebp
  0002f	89 45 ec	 mov	 DWORD PTR __$ArrayPad$[ebp], eax
  00032	56		 push	 esi
  00033	57		 push	 edi
  00034	50		 push	 eax
  00035	8d 45 f4	 lea	 eax, DWORD PTR __$EHRec$[ebp]
  00038	64 a3 00 00 00
	00		 mov	 DWORD PTR fs:0, eax
  0003e	89 4d d0	 mov	 DWORD PTR _this$GSCopy$1$[ebp], ecx
; File C:\Anka2Project\Anka2Project\Source\Binary\source\UserInterface\AbstractSingleton.h

; 24   : 		assert(ms_singleton!=nullptr);

  00041	8b 3d 00 00 00
	00		 mov	 edi, DWORD PTR ?ms_singleton@?$TAbstractSingleton@VIAbstractPlayer@@@@0PAVIAbstractPlayer@@A ; TAbstractSingleton<IAbstractPlayer>::ms_singleton
; File C:\Anka2Project\Anka2Project\Source\Binary\source\UserInterface\PythonNetworkStreamPhaseGameActor.cpp

; 422  : {

  00047	8b 73 08	 mov	 esi, DWORD PTR _pkNetActorData$[ebx]
  0004a	89 75 cc	 mov	 DWORD PTR _pkNetActorData$GSCopy$1$[ebp], esi
; File C:\Anka2Project\Anka2Project\Source\Binary\source\UserInterface\AbstractSingleton.h

; 24   : 		assert(ms_singleton!=nullptr);

  0004d	85 ff		 test	 edi, edi
  0004f	75 1a		 jne	 SHORT $LN12@RecvCharac
  00051	6a 18		 push	 24			; 00000018H
  00053	68 00 00 00 00	 push	 OFFSET ??_C@_1KI@FIPHLMOB@?$AAC?$AA?3?$AA?2?$AAA?$AAn?$AAk?$AAa?$AA2?$AAP?$AAr?$AAo?$AAj?$AAe?$AAc?$AAt@
  00058	68 00 00 00 00	 push	 OFFSET ??_C@_1CM@FPMBEAEA@?$AAm?$AAs?$AA_?$AAs?$AAi?$AAn?$AAg?$AAl?$AAe?$AAt?$AAo?$AAn?$AA?$CB?$AA?$DN?$AAn@
  0005d	e8 00 00 00 00	 call	 __wassert
  00062	8b 3d 00 00 00
	00		 mov	 edi, DWORD PTR ?ms_singleton@?$TAbstractSingleton@VIAbstractPlayer@@@@0PAVIAbstractPlayer@@A ; TAbstractSingleton<IAbstractPlayer>::ms_singleton
  00068	83 c4 0c	 add	 esp, 12			; 0000000cH
$LN12@RecvCharac:
; File C:\Anka2Project\Anka2Project\Source\Binary\source\UserInterface\PythonNetworkStreamPhaseGameActor.cpp

; 424  : 	if (rkPlayer.IsMainCharacterIndex(pkNetActorData->m_dwVID))

  0006b	8b 07		 mov	 eax, DWORD PTR [edi]
  0006d	8b cf		 mov	 ecx, edi
  0006f	ff 76 24	 push	 DWORD PTR [esi+36]
  00072	8b 40 0c	 mov	 eax, DWORD PTR [eax+12]
  00075	ff d0		 call	 eax
  00077	84 c0		 test	 al, al
  00079	0f 84 c7 01 00
	00		 je	 $LN4@RecvCharac

; 425  : 	{
; 426  : 		rkPlayer.SetRace(pkNetActorData->m_dwRace);

  0007f	8b 07		 mov	 eax, DWORD PTR [edi]
  00081	8b cf		 mov	 ecx, edi
  00083	ff 76 30	 push	 DWORD PTR [esi+48]
  00086	ff 50 1c	 call	 DWORD PTR [eax+28]

; 427  : 
; 428  : 		__SetWeaponPower(rkPlayer, pkNetActorData->m_dwWeapon);

  00089	8b 56 68	 mov	 edx, DWORD PTR [esi+104]
  0008c	8b cf		 mov	 ecx, edi
  0008e	e8 00 00 00 00	 call	 ?__SetWeaponPower@@YAXAAVIAbstractPlayer@@K@Z ; __SetWeaponPower

; 429  : 
; 430  : 		if (rkPlayer.NEW_GetMainActorPtr())

  00093	8b 07		 mov	 eax, DWORD PTR [edi]
  00095	8b cf		 mov	 ecx, edi
  00097	8b 80 8c 00 00
	00		 mov	 eax, DWORD PTR [eax+140]
  0009d	ff d0		 call	 eax
  0009f	85 c0		 test	 eax, eax
  000a1	0f 84 91 01 00
	00		 je	 $LN3@RecvCharac
; File C:\Anka2Project\Anka2Project\Source\Binary\source\eterBase\Singleton.h

; 26   : 		assert(ms_singleton);

  000a7	8b 0d 00 00 00
	00		 mov	 ecx, DWORD PTR ?ms_singleton@?$CSingleton@VCPythonBackground@@@@0PAVCPythonBackground@@A ; CSingleton<CPythonBackground>::ms_singleton
  000ad	85 c9		 test	 ecx, ecx
  000af	75 1a		 jne	 SHORT $LN15@RecvCharac
  000b1	6a 1a		 push	 26			; 0000001aH
  000b3	68 00 00 00 00	 push	 OFFSET ??_C@_1IO@CAJLEEOI@?$AAC?$AA?3?$AA?2?$AAA?$AAn?$AAk?$AAa?$AA2?$AAP?$AAr?$AAo?$AAj?$AAe?$AAc?$AAt@
  000b8	68 00 00 00 00	 push	 OFFSET ??_C@_1BK@FMEHPMFE@?$AAm?$AAs?$AA_?$AAs?$AAi?$AAn?$AAg?$AAl?$AAe?$AAt?$AAo?$AAn@
  000bd	e8 00 00 00 00	 call	 __wassert
  000c2	8b 0d 00 00 00
	00		 mov	 ecx, DWORD PTR ?ms_singleton@?$CSingleton@VCPythonBackground@@@@0PAVCPythonBackground@@A ; CSingleton<CPythonBackground>::ms_singleton
  000c8	83 c4 0c	 add	 esp, 12			; 0000000cH
$LN15@RecvCharac:
  000cb	66 0f 6e 56 44	 movd	 xmm2, DWORD PTR [esi+68]
  000d0	0f 57 db	 xorps	 xmm3, xmm3
  000d3	66 0f 6e 4e 40	 movd	 xmm1, DWORD PTR [esi+64]
; File C:\Anka2Project\Anka2Project\Source\Binary\source\UserInterface\PythonNetworkStreamPhaseGameActor.cpp

; 432  : 			CPythonBackground::Instance().Update(pkNetActorData->m_lCurX, pkNetActorData->m_lCurY, 0.0f);

  000d8	0f 5b d2	 cvtdq2ps xmm2, xmm2
  000db	0f 5b c9	 cvtdq2ps xmm1, xmm1
  000de	e8 00 00 00 00	 call	 ?Update@CPythonBackground@@QAEXMMM@Z ; CPythonBackground::Update
; File C:\Anka2Project\Anka2Project\Source\Binary\source\eterBase\Singleton.h

; 26   : 		assert(ms_singleton);

  000e3	8b 0d 00 00 00
	00		 mov	 ecx, DWORD PTR ?ms_singleton@?$CSingleton@VCPythonCharacterManager@@@@0PAVCPythonCharacterManager@@A ; CSingleton<CPythonCharacterManager>::ms_singleton
  000e9	85 c9		 test	 ecx, ecx
  000eb	75 1a		 jne	 SHORT $LN18@RecvCharac
  000ed	6a 1a		 push	 26			; 0000001aH
  000ef	68 00 00 00 00	 push	 OFFSET ??_C@_1IO@CAJLEEOI@?$AAC?$AA?3?$AA?2?$AAA?$AAn?$AAk?$AAa?$AA2?$AAP?$AAr?$AAo?$AAj?$AAe?$AAc?$AAt@
  000f4	68 00 00 00 00	 push	 OFFSET ??_C@_1BK@FMEHPMFE@?$AAm?$AAs?$AA_?$AAs?$AAi?$AAn?$AAg?$AAl?$AAe?$AAt?$AAo?$AAn@
  000f9	e8 00 00 00 00	 call	 __wassert
  000fe	8b 0d 00 00 00
	00		 mov	 ecx, DWORD PTR ?ms_singleton@?$CSingleton@VCPythonCharacterManager@@@@0PAVCPythonCharacterManager@@A ; CSingleton<CPythonCharacterManager>::ms_singleton
  00104	83 c4 0c	 add	 esp, 12			; 0000000cH
$LN18@RecvCharac:
; File C:\Anka2Project\Anka2Project\Source\Binary\source\UserInterface\PythonNetworkStreamPhaseGameActor.cpp

; 433  : 			CPythonCharacterManager::Instance().Update();

  00107	e8 00 00 00 00	 call	 ?Update@CPythonCharacterManager@@QAEXXZ ; CPythonCharacterManager::Update
; File C:\Anka2Project\Anka2Project\Source\Binary\source\eterBase\Singleton.h

; 26   : 		assert(ms_singleton);

  0010c	8b 0d 00 00 00
	00		 mov	 ecx, DWORD PTR ?ms_singleton@?$CSingleton@VCPythonBackground@@@@0PAVCPythonBackground@@A ; CSingleton<CPythonBackground>::ms_singleton
  00112	85 c9		 test	 ecx, ecx
  00114	75 1a		 jne	 SHORT $LN21@RecvCharac
  00116	6a 1a		 push	 26			; 0000001aH
  00118	68 00 00 00 00	 push	 OFFSET ??_C@_1IO@CAJLEEOI@?$AAC?$AA?3?$AA?2?$AAA?$AAn?$AAk?$AAa?$AA2?$AAP?$AAr?$AAo?$AAj?$AAe?$AAc?$AAt@
  0011d	68 00 00 00 00	 push	 OFFSET ??_C@_1BK@FMEHPMFE@?$AAm?$AAs?$AA_?$AAs?$AAi?$AAn?$AAg?$AAl?$AAe?$AAt?$AAo?$AAn@
  00122	e8 00 00 00 00	 call	 __wassert
  00127	8b 0d 00 00 00
	00		 mov	 ecx, DWORD PTR ?ms_singleton@?$CSingleton@VCPythonBackground@@@@0PAVCPythonBackground@@A ; CSingleton<CPythonBackground>::ms_singleton
  0012d	83 c4 0c	 add	 esp, 12			; 0000000cH
$LN21@RecvCharac:
; File C:\Anka2Project\Anka2Project\Source\Binary\source\UserInterface\PythonNetworkStreamPhaseGameActor.cpp

; 436  : 				std::string strMapName = CPythonBackground::Instance().GetWarpMapName();

  00130	e8 00 00 00 00	 call	 ?GetWarpMapName@CPythonBackground@@QAEPBDXZ ; CPythonBackground::GetWarpMapName
  00135	8b d0		 mov	 edx, eax
; File C:\Program Files\Microsoft Visual Studio\2022\Community\VC\Tools\MSVC\14.44.35207\include\xstring

; 517  :     size_type _Mysize = 0; // current length of string (size)

  00137	c7 45 e4 00 00
	00 00		 mov	 DWORD PTR _strMapName$22[ebp+16], 0
; File C:\Program Files\Microsoft Visual Studio\2022\Community\VC\Tools\MSVC\14.44.35207\include\__msvc_string_view.hpp

; 456  :             return __builtin_strlen(_First);

  0013e	8b ca		 mov	 ecx, edx
; File C:\Program Files\Microsoft Visual Studio\2022\Community\VC\Tools\MSVC\14.44.35207\include\xstring

; 518  :     size_type _Myres  = 0; // current storage reserved for string (capacity)

  00140	c7 45 e8 00 00
	00 00		 mov	 DWORD PTR _strMapName$22[ebp+20], 0
  00147	0f 57 c0	 xorps	 xmm0, xmm0

; 493  :         _CONSTEXPR20 _Bxty() noexcept : _Buf() {} // user-provided, for fancy pointers

  0014a	0f 11 45 d4	 movups	 XMMWORD PTR _strMapName$22[ebp], xmm0
; File C:\Program Files\Microsoft Visual Studio\2022\Community\VC\Tools\MSVC\14.44.35207\include\__msvc_string_view.hpp

; 456  :             return __builtin_strlen(_First);

  0014e	8d 41 01	 lea	 eax, DWORD PTR [ecx+1]
  00151	89 45 c8	 mov	 DWORD PTR tv486[ebp], eax
$LL101@RecvCharac:
  00154	8a 01		 mov	 al, BYTE PTR [ecx]
  00156	41		 inc	 ecx
  00157	84 c0		 test	 al, al
  00159	75 f9		 jne	 SHORT $LL101@RecvCharac
  0015b	2b 4d c8	 sub	 ecx, DWORD PTR tv486[ebp]
; File C:\Program Files\Microsoft Visual Studio\2022\Community\VC\Tools\MSVC\14.44.35207\include\xstring

; 769  :         _Construct<_Construct_strategy::_From_ptr>(_Ptr, _Convert_size<size_type>(_Traits::length(_Ptr)));

  0015e	51		 push	 ecx
  0015f	52		 push	 edx
  00160	8d 4d d4	 lea	 ecx, DWORD PTR _strMapName$22[ebp]
  00163	e8 00 00 00 00	 call	 ??$_Construct@$00PBD@?$basic_string@DU?$char_traits@D@std@@V?$allocator@D@2@@std@@AAEXQBDI@Z ; std::basic_string<char,std::char_traits<char>,std::allocator<char> >::_Construct<1,char const *>
; File C:\Anka2Project\Anka2Project\Source\Binary\source\UserInterface\PythonNetworkStreamPhaseGameActor.cpp

; 436  : 				std::string strMapName = CPythonBackground::Instance().GetWarpMapName();

  00168	c7 45 fc 00 00
	00 00		 mov	 DWORD PTR __$EHRec$[ebp+8], 0
; File C:\Program Files\Microsoft Visual Studio\2022\Community\VC\Tools\MSVC\14.44.35207\include\xstring

; 444  :         const value_type* _Result = _Bx._Buf;

  0016f	8d 4d d4	 lea	 ecx, DWORD PTR _strMapName$22[ebp]

; 453  :         return _Myres > _Small_string_capacity;

  00172	83 7d e8 0f	 cmp	 DWORD PTR _strMapName$22[ebp+20], 15 ; 0000000fH

; 445  :         if (_Large_mode_engaged()) {

  00176	8b 45 d4	 mov	 eax, DWORD PTR _strMapName$22[ebp]
; File C:\Program Files\Microsoft Visual Studio\2022\Community\VC\Tools\MSVC\14.44.35207\include\__msvc_string_view.hpp

; 604  :     if (_Left_size != _Right_size) {

  00179	8b 55 e4	 mov	 edx, DWORD PTR _strMapName$22[ebp+16]
; File C:\Program Files\Microsoft Visual Studio\2022\Community\VC\Tools\MSVC\14.44.35207\include\xstring

; 445  :         if (_Large_mode_engaged()) {

  0017c	0f 47 c8	 cmova	 ecx, eax
; File C:\Program Files\Microsoft Visual Studio\2022\Community\VC\Tools\MSVC\14.44.35207\include\__msvc_string_view.hpp

; 604  :     if (_Left_size != _Right_size) {

  0017f	83 fa 16	 cmp	 edx, 22			; 00000016H
  00182	75 77		 jne	 SHORT $LN5@RecvCharac

; 605  :         return false;
; 606  :     }
; 607  : 
; 608  :     if (_Left_size == 0u) {

  00184	85 d2		 test	 edx, edx
  00186	74 62		 je	 SHORT $LN100@RecvCharac

; 437  :         return __builtin_memcmp(_First1, _First2, _Count);

  00188	be 00 00 00 00	 mov	 esi, OFFSET ??_C@_0BH@EOJPPMKE@metin2_map_deviltower1@
  0018d	83 ea 04	 sub	 edx, 4
  00190	72 11		 jb	 SHORT $LN104@RecvCharac
$LL105@RecvCharac:
  00192	8b 01		 mov	 eax, DWORD PTR [ecx]
  00194	3b 06		 cmp	 eax, DWORD PTR [esi]
  00196	75 10		 jne	 SHORT $LN103@RecvCharac
  00198	83 c1 04	 add	 ecx, 4
  0019b	83 c6 04	 add	 esi, 4
  0019e	83 ea 04	 sub	 edx, 4
  001a1	73 ef		 jae	 SHORT $LL105@RecvCharac
$LN104@RecvCharac:
  001a3	83 fa fc	 cmp	 edx, -4			; fffffffcH
  001a6	74 34		 je	 SHORT $LN102@RecvCharac
$LN103@RecvCharac:
  001a8	8a 01		 mov	 al, BYTE PTR [ecx]
  001aa	3a 06		 cmp	 al, BYTE PTR [esi]
  001ac	75 27		 jne	 SHORT $LN106@RecvCharac
  001ae	83 fa fd	 cmp	 edx, -3			; fffffffdH
  001b1	74 29		 je	 SHORT $LN102@RecvCharac
  001b3	8a 41 01	 mov	 al, BYTE PTR [ecx+1]
  001b6	3a 46 01	 cmp	 al, BYTE PTR [esi+1]
  001b9	75 1a		 jne	 SHORT $LN106@RecvCharac
  001bb	83 fa fe	 cmp	 edx, -2			; fffffffeH
  001be	74 1c		 je	 SHORT $LN102@RecvCharac
  001c0	8a 41 02	 mov	 al, BYTE PTR [ecx+2]
  001c3	3a 46 02	 cmp	 al, BYTE PTR [esi+2]
  001c6	75 0d		 jne	 SHORT $LN106@RecvCharac
  001c8	83 fa ff	 cmp	 edx, -1
  001cb	74 0f		 je	 SHORT $LN102@RecvCharac
  001cd	8a 41 03	 mov	 al, BYTE PTR [ecx+3]
  001d0	3a 46 03	 cmp	 al, BYTE PTR [esi+3]
  001d3	74 07		 je	 SHORT $LN102@RecvCharac
$LN106@RecvCharac:
  001d5	1b c0		 sbb	 eax, eax
  001d7	83 c8 01	 or	 eax, 1
  001da	eb 02		 jmp	 SHORT $LN107@RecvCharac
$LN102@RecvCharac:
  001dc	33 c0		 xor	 eax, eax
$LN107@RecvCharac:
; File C:\Anka2Project\Anka2Project\Source\Binary\source\UserInterface\PythonNetworkStreamPhaseGameActor.cpp

; 437  : 				if (strMapName == "metin2_map_deviltower1")

  001de	8b 75 cc	 mov	 esi, DWORD PTR _pkNetActorData$GSCopy$1$[ebp]
; File C:\Program Files\Microsoft Visual Studio\2022\Community\VC\Tools\MSVC\14.44.35207\include\__msvc_string_view.hpp

; 612  :     return _Traits::compare(_Left, _Right, _Left_size) == 0;

  001e1	85 c0		 test	 eax, eax
  001e3	0f 94 c0	 sete	 al
; File C:\Anka2Project\Anka2Project\Source\Binary\source\UserInterface\PythonNetworkStreamPhaseGameActor.cpp

; 437  : 				if (strMapName == "metin2_map_deviltower1")

  001e6	84 c0		 test	 al, al
  001e8	74 0e		 je	 SHORT $LN108@RecvCharac
$LN100@RecvCharac:

; 438  : 					__ShowMapName(pkNetActorData->m_lCurX, pkNetActorData->m_lCurY);

  001ea	ff 76 44	 push	 DWORD PTR [esi+68]
  001ed	8b 4d d0	 mov	 ecx, DWORD PTR _this$GSCopy$1$[ebp]
  001f0	ff 76 40	 push	 DWORD PTR [esi+64]
  001f3	e8 00 00 00 00	 call	 ?__ShowMapName@CPythonNetworkStream@@IAEXJJ@Z ; CPythonNetworkStream::__ShowMapName
$LN108@RecvCharac:

; 439  : 			}

  001f8	8b 45 d4	 mov	 eax, DWORD PTR _strMapName$22[ebp]
$LN5@RecvCharac:
  001fb	c7 45 fc ff ff
	ff ff		 mov	 DWORD PTR __$EHRec$[ebp+8], -1
; File C:\Program Files\Microsoft Visual Studio\2022\Community\VC\Tools\MSVC\14.44.35207\include\xstring

; 453  :         return _Myres > _Small_string_capacity;

  00202	8b 4d e8	 mov	 ecx, DWORD PTR _strMapName$22[ebp+20]
  00205	83 f9 0f	 cmp	 ecx, 15			; 0000000fH

; 3083 :         if (_My_data._Large_mode_engaged()) {

  00208	76 3c		 jbe	 SHORT $LN4@RecvCharac

; 852  :         _Al.deallocate(_Old_ptr, _Capacity + 1); // +1 for null terminator

  0020a	41		 inc	 ecx
; File C:\Program Files\Microsoft Visual Studio\2022\Community\VC\Tools\MSVC\14.44.35207\include\xmemory

; 284  :         if (_Bytes >= _Big_allocation_threshold) {

  0020b	81 f9 00 10 00
	00		 cmp	 ecx, 4096		; 00001000H
  00211	72 16		 jb	 SHORT $LN109@RecvCharac

; 205  :     const uintptr_t _Ptr_container   = _Ptr_user[-1];

  00213	8b 50 fc	 mov	 edx, DWORD PTR [eax-4]
  00216	83 c1 23	 add	 ecx, 35			; 00000023H
  00219	2b c2		 sub	 eax, edx

; 219  :     _STL_VERIFY(_Back_shift >= _Min_back_shift && _Back_shift <= _Non_user_size, "invalid argument");

  0021b	83 c0 fc	 add	 eax, -4			; fffffffcH
  0021e	83 f8 1f	 cmp	 eax, 31			; 0000001fH
  00221	0f 87 b3 00 00
	00		 ja	 $LN113@RecvCharac
  00227	eb 03		 jmp	 SHORT $LN90@RecvCharac
$LN109@RecvCharac:

; 284  :         if (_Bytes >= _Big_allocation_threshold) {

  00229	8b 55 d4	 mov	 edx, DWORD PTR _strMapName$22[ebp]
$LN90@RecvCharac:

; 285  :             // boost the alignment of big allocations to help autovectorization
; 286  :             _Adjust_manually_vector_aligned(_Ptr, _Bytes);
; 287  :         }
; 288  : #endif // defined(_M_IX86) || defined(_M_X64)
; 289  :         ::operator delete(_Ptr, _Bytes);

  0022c	51		 push	 ecx
  0022d	52		 push	 edx
  0022e	e8 00 00 00 00	 call	 ??3@YAXPAXI@Z		; operator delete
  00233	83 c4 08	 add	 esp, 8
; File C:\Anka2Project\Anka2Project\Source\Binary\source\UserInterface\PythonNetworkStreamPhaseGameActor.cpp

; 440  : 		}

  00236	eb 0e		 jmp	 SHORT $LN4@RecvCharac
$LN3@RecvCharac:

; 441  : 		else
; 442  : 		{
; 443  : 			__ShowMapName(pkNetActorData->m_lCurX, pkNetActorData->m_lCurY);

  00238	ff 76 44	 push	 DWORD PTR [esi+68]
  0023b	8b 4d d0	 mov	 ecx, DWORD PTR _this$GSCopy$1$[ebp]
  0023e	ff 76 40	 push	 DWORD PTR [esi+64]
  00241	e8 00 00 00 00	 call	 ?__ShowMapName@CPythonNetworkStream@@IAEXJJ@Z ; CPythonNetworkStream::__ShowMapName
$LN4@RecvCharac:
; File C:\Anka2Project\Anka2Project\Source\Binary\source\eterlib\Ref.h

; 85   : 			assert(m_pObject != nullptr);

  00246	8b 45 d0	 mov	 eax, DWORD PTR _this$GSCopy$1$[ebp]
  00249	83 b8 28 04 00
	00 00		 cmp	 DWORD PTR [eax+1064], 0
  00250	75 17		 jne	 SHORT $LN99@RecvCharac
  00252	6a 55		 push	 85			; 00000055H
  00254	68 00 00 00 00	 push	 OFFSET ??_C@_1IA@GOBOKLKL@?$AAC?$AA?3?$AA?2?$AAA?$AAn?$AAk?$AAa?$AA2?$AAP?$AAr?$AAo?$AAj?$AAe?$AAc?$AAt@
  00259	68 00 00 00 00	 push	 OFFSET ??_C@_1CK@DKKCJALE@?$AAm?$AA_?$AAp?$AAO?$AAb?$AAj?$AAe?$AAc?$AAt?$AA?5?$AA?$CB?$AA?$DN?$AA?5?$AAn?$AAu@
  0025e	e8 00 00 00 00	 call	 __wassert
  00263	8b 45 d0	 mov	 eax, DWORD PTR _this$GSCopy$1$[ebp]
  00266	83 c4 0c	 add	 esp, 12			; 0000000cH
$LN99@RecvCharac:
; File C:\Anka2Project\Anka2Project\Source\Binary\source\UserInterface\PythonNetworkStreamPhaseGameActor.cpp

; 447  : 	m_rokNetActorMgr->AppendActor(*pkNetActorData);

  00269	8b 88 28 04 00
	00		 mov	 ecx, DWORD PTR [eax+1064]
  0026f	56		 push	 esi
  00270	e8 00 00 00 00	 call	 ?AppendActor@CNetworkActorManager@@QAEXABUSNetworkActorData@@@Z ; CNetworkActorManager::AppendActor

; 448  : 
; 449  : 	if (GetMainActorVID()==pkNetActorData->m_dwVID)

  00275	8b 4d d0	 mov	 ecx, DWORD PTR _this$GSCopy$1$[ebp]
  00278	e8 00 00 00 00	 call	 ?GetMainActorVID@CPythonNetworkStream@@QAEKXZ ; CPythonNetworkStream::GetMainActorVID
  0027d	3b 46 24	 cmp	 eax, DWORD PTR [esi+36]
  00280	75 38		 jne	 SHORT $LN6@RecvCharac

; 450  : 	{
; 451  : 		rkPlayer.SetTarget(0);

  00282	8b 07		 mov	 eax, DWORD PTR [edi]
  00284	8b cf		 mov	 ecx, edi
  00286	6a 00		 push	 0
  00288	6a 01		 push	 1
  0028a	6a 00		 push	 0
  0028c	ff 50 68	 call	 DWORD PTR [eax+104]

; 452  : 		if (m_bComboSkillFlag)

  0028f	8b 45 d0	 mov	 eax, DWORD PTR _this$GSCopy$1$[ebp]
  00292	8a 88 3d 7a 00
	00		 mov	 cl, BYTE PTR [eax+31293]
  00298	84 c9		 test	 cl, cl
  0029a	74 11		 je	 SHORT $LN7@RecvCharac

; 453  : 			rkPlayer.SetComboSkillFlag(m_bComboSkillFlag);

  0029c	8b 17		 mov	 edx, DWORD PTR [edi]
  0029e	0f b6 c1	 movzx	 eax, cl
  002a1	8b cf		 mov	 ecx, edi
  002a3	50		 push	 eax
  002a4	ff 92 80 00 00
	00		 call	 DWORD PTR [edx+128]
  002aa	8b 45 d0	 mov	 eax, DWORD PTR _this$GSCopy$1$[ebp]
$LN7@RecvCharac:

; 454  : 
; 455  : 		__SetGuildID(pkNetActorData->m_dwGuildID);

  002ad	ff b6 88 00 00
	00		 push	 DWORD PTR [esi+136]
  002b3	8b c8		 mov	 ecx, eax
  002b5	e8 00 00 00 00	 call	 ?__SetGuildID@CPythonNetworkStream@@IAEXK@Z ; CPythonNetworkStream::__SetGuildID
$LN6@RecvCharac:

; 457  : }

  002ba	8b 4d f4	 mov	 ecx, DWORD PTR __$EHRec$[ebp]
  002bd	64 89 0d 00 00
	00 00		 mov	 DWORD PTR fs:0, ecx
  002c4	59		 pop	 ecx
  002c5	5f		 pop	 edi
  002c6	5e		 pop	 esi
  002c7	8b 4d ec	 mov	 ecx, DWORD PTR __$ArrayPad$[ebp]
  002ca	33 cd		 xor	 ecx, ebp
  002cc	e8 00 00 00 00	 call	 @__security_check_cookie@4
  002d1	8b e5		 mov	 esp, ebp
  002d3	5d		 pop	 ebp
  002d4	8b e3		 mov	 esp, ebx
  002d6	5b		 pop	 ebx
  002d7	c2 04 00	 ret	 4
$LN113@RecvCharac:
; File C:\Program Files\Microsoft Visual Studio\2022\Community\VC\Tools\MSVC\14.44.35207\include\xmemory

; 219  :     _STL_VERIFY(_Back_shift >= _Min_back_shift && _Back_shift <= _Non_user_size, "invalid argument");

  002da	6a 00		 push	 0
  002dc	6a 00		 push	 0
  002de	6a 00		 push	 0
  002e0	6a 00		 push	 0
  002e2	6a 00		 push	 0
  002e4	e8 00 00 00 00	 call	 __invoke_watson
$LN111@RecvCharac:
  002e9	cc		 int	 3
_TEXT	ENDS
;	COMDAT text$x
text$x	SEGMENT
__unwindfunclet$?__RecvCharacterAppendPacket@CPythonNetworkStream@@IAEXPAUSNetworkActorData@@@Z$0:
  00000	8d 4d d4	 lea	 ecx, DWORD PTR _strMapName$22[ebp]
  00003	e9 00 00 00 00	 jmp	 ??1?$basic_string@DU?$char_traits@D@std@@V?$allocator@D@2@@std@@QAE@XZ ; std::basic_string<char,std::char_traits<char>,std::allocator<char> >::~basic_string<char,std::char_traits<char>,std::allocator<char> >
  00008	cc		 int	 3
  00009	cc		 int	 3
  0000a	cc		 int	 3
  0000b	cc		 int	 3
  0000c	cc		 int	 3
__ehhandler$?__RecvCharacterAppendPacket@CPythonNetworkStream@@IAEXPAUSNetworkActorData@@@Z:
  0000d	90		 npad	 1
  0000e	90		 npad	 1
  0000f	8b 54 24 08	 mov	 edx, DWORD PTR [esp+8]
  00013	8d 42 0c	 lea	 eax, DWORD PTR [edx+12]
  00016	8b 4a c8	 mov	 ecx, DWORD PTR [edx-56]
  00019	33 c8		 xor	 ecx, eax
  0001b	e8 00 00 00 00	 call	 @__security_check_cookie@4
  00020	8b 4a f8	 mov	 ecx, DWORD PTR [edx-8]
  00023	33 c8		 xor	 ecx, eax
  00025	e8 00 00 00 00	 call	 @__security_check_cookie@4
  0002a	b8 00 00 00 00	 mov	 eax, OFFSET __ehfuncinfo$?__RecvCharacterAppendPacket@CPythonNetworkStream@@IAEXPAUSNetworkActorData@@@Z
  0002f	e9 00 00 00 00	 jmp	 ___CxxFrameHandler3
text$x	ENDS
?__RecvCharacterAppendPacket@CPythonNetworkStream@@IAEXPAUSNetworkActorData@@@Z ENDP ; CPythonNetworkStream::__RecvCharacterAppendPacket
; Function compile flags: /Ogtp
; File C:\Anka2Project\Anka2Project\Source\Binary\source\UserInterface\PythonNetworkStreamPhaseGameActor.cpp
; File C:\Anka2Project\Anka2Project\Source\Binary\source\eterlib\Ref.h
; File C:\Anka2Project\Anka2Project\Source\Binary\source\UserInterface\PythonNetworkStreamPhaseGameActor.cpp
; File C:\Anka2Project\Anka2Project\Source\Binary\source\UserInterface\AbstractSingleton.h
; File C:\Anka2Project\Anka2Project\Source\Binary\source\UserInterface\PythonNetworkStreamPhaseGameActor.cpp
;	COMDAT ?__RecvCharacterUpdatePacket@CPythonNetworkStream@@IAEXPAUSNetworkUpdateActorData@@@Z
_TEXT	SEGMENT
_pkNetUpdateActorData$ = 8				; size = 4
?__RecvCharacterUpdatePacket@CPythonNetworkStream@@IAEXPAUSNetworkUpdateActorData@@@Z PROC ; CPythonNetworkStream::__RecvCharacterUpdatePacket, COMDAT
; _this$ = ecx

; 460  : {

  00000	55		 push	 ebp
  00001	8b ec		 mov	 ebp, esp
  00003	53		 push	 ebx
  00004	56		 push	 esi
  00005	57		 push	 edi
  00006	8b f9		 mov	 edi, ecx
; File C:\Anka2Project\Anka2Project\Source\Binary\source\eterlib\Ref.h

; 85   : 			assert(m_pObject != nullptr);

  00008	83 bf 28 04 00
	00 00		 cmp	 DWORD PTR [edi+1064], 0
  0000f	75 14		 jne	 SHORT $LN7@RecvCharac
  00011	6a 55		 push	 85			; 00000055H
  00013	68 00 00 00 00	 push	 OFFSET ??_C@_1IA@GOBOKLKL@?$AAC?$AA?3?$AA?2?$AAA?$AAn?$AAk?$AAa?$AA2?$AAP?$AAr?$AAo?$AAj?$AAe?$AAc?$AAt@
  00018	68 00 00 00 00	 push	 OFFSET ??_C@_1CK@DKKCJALE@?$AAm?$AA_?$AAp?$AAO?$AAb?$AAj?$AAe?$AAc?$AAt?$AA?5?$AA?$CB?$AA?$DN?$AA?5?$AAn?$AAu@
  0001d	e8 00 00 00 00	 call	 __wassert
  00022	83 c4 0c	 add	 esp, 12			; 0000000cH
$LN7@RecvCharac:
; File C:\Anka2Project\Anka2Project\Source\Binary\source\UserInterface\PythonNetworkStreamPhaseGameActor.cpp

; 461  : 	m_rokNetActorMgr->UpdateActor(*pkNetUpdateActorData);

  00025	8b 5d 08	 mov	 ebx, DWORD PTR _pkNetUpdateActorData$[ebp]
  00028	8b 8f 28 04 00
	00		 mov	 ecx, DWORD PTR [edi+1064]
  0002e	53		 push	 ebx
  0002f	e8 00 00 00 00	 call	 ?UpdateActor@CNetworkActorManager@@QAEXABUSNetworkUpdateActorData@@@Z ; CNetworkActorManager::UpdateActor
; File C:\Anka2Project\Anka2Project\Source\Binary\source\UserInterface\AbstractSingleton.h

; 24   : 		assert(ms_singleton!=nullptr);

  00034	8b 35 00 00 00
	00		 mov	 esi, DWORD PTR ?ms_singleton@?$TAbstractSingleton@VIAbstractPlayer@@@@0PAVIAbstractPlayer@@A ; TAbstractSingleton<IAbstractPlayer>::ms_singleton
  0003a	85 f6		 test	 esi, esi
  0003c	75 1a		 jne	 SHORT $LN10@RecvCharac
  0003e	6a 18		 push	 24			; 00000018H
  00040	68 00 00 00 00	 push	 OFFSET ??_C@_1KI@FIPHLMOB@?$AAC?$AA?3?$AA?2?$AAA?$AAn?$AAk?$AAa?$AA2?$AAP?$AAr?$AAo?$AAj?$AAe?$AAc?$AAt@
  00045	68 00 00 00 00	 push	 OFFSET ??_C@_1CM@FPMBEAEA@?$AAm?$AAs?$AA_?$AAs?$AAi?$AAn?$AAg?$AAl?$AAe?$AAt?$AAo?$AAn?$AA?$CB?$AA?$DN?$AAn@
  0004a	e8 00 00 00 00	 call	 __wassert
  0004f	8b 35 00 00 00
	00		 mov	 esi, DWORD PTR ?ms_singleton@?$TAbstractSingleton@VIAbstractPlayer@@@@0PAVIAbstractPlayer@@A ; TAbstractSingleton<IAbstractPlayer>::ms_singleton
  00055	83 c4 0c	 add	 esp, 12			; 0000000cH
$LN10@RecvCharac:
; File C:\Anka2Project\Anka2Project\Source\Binary\source\UserInterface\PythonNetworkStreamPhaseGameActor.cpp

; 464  : 	if (rkPlayer.IsMainCharacterIndex(pkNetUpdateActorData->m_dwVID))

  00058	8b 06		 mov	 eax, DWORD PTR [esi]
  0005a	8b ce		 mov	 ecx, esi
  0005c	ff 33		 push	 DWORD PTR [ebx]
  0005e	8b 40 0c	 mov	 eax, DWORD PTR [eax+12]
  00061	ff d0		 call	 eax
  00063	84 c0		 test	 al, al
  00065	74 59		 je	 SHORT $LN2@RecvCharac

; 465  : 	{
; 466  : 		__SetGuildID(pkNetUpdateActorData->m_dwGuildID);

  00067	ff 73 04	 push	 DWORD PTR [ebx+4]
  0006a	8b cf		 mov	 ecx, edi
  0006c	e8 00 00 00 00	 call	 ?__SetGuildID@CPythonNetworkStream@@IAEXK@Z ; CPythonNetworkStream::__SetGuildID

; 467  : 		__SetWeaponPower(rkPlayer, pkNetUpdateActorData->m_dwWeapon);

  00071	8b 53 0c	 mov	 edx, DWORD PTR [ebx+12]
  00074	8b ce		 mov	 ecx, esi
  00076	e8 00 00 00 00	 call	 ?__SetWeaponPower@@YAXAAVIAbstractPlayer@@K@Z ; __SetWeaponPower

; 468  : 
; 469  : 		__RefreshStatus();

  0007b	8b cf		 mov	 ecx, edi
  0007d	e8 00 00 00 00	 call	 ?__RefreshStatus@CPythonNetworkStream@@IAEXXZ ; CPythonNetworkStream::__RefreshStatus

; 470  : 		__RefreshAlignmentWindow();

  00082	e8 00 00 00 00	 call	 ?__RefreshAlignmentWindow@CPythonNetworkStream@@IAEXXZ ; CPythonNetworkStream::__RefreshAlignmentWindow

; 471  : 		__RefreshEquipmentWindow();

  00087	8b cf		 mov	 ecx, edi
  00089	e8 00 00 00 00	 call	 ?__RefreshEquipmentWindow@CPythonNetworkStream@@IAEXXZ ; CPythonNetworkStream::__RefreshEquipmentWindow

; 472  : 		__RefreshInventoryWindow();

  0008e	e8 00 00 00 00	 call	 ?__RefreshInventoryWindow@CPythonNetworkStream@@IAEXXZ ; CPythonNetworkStream::__RefreshInventoryWindow

; 473  : 		m_akSimplePlayerInfo[m_dwSelectedCharacterIndex].wHairPart = pkNetUpdateActorData->m_dwHair;

  00093	6b 8f 2c 7a 00
	00 64		 imul	 ecx, DWORD PTR [edi+31276], 100
  0009a	0f b7 43 10	 movzx	 eax, WORD PTR [ebx+16]
  0009e	66 89 84 39 e9
	01 00 00	 mov	 WORD PTR [ecx+edi+489], ax

; 474  : 		m_akSimplePlayerInfo[m_dwSelectedCharacterIndex].wMainPart = pkNetUpdateActorData->m_dwArmor;

  000a6	6b 8f 2c 7a 00
	00 64		 imul	 ecx, DWORD PTR [edi+31276], 100
  000ad	0f b7 43 08	 movzx	 eax, WORD PTR [ebx+8]
  000b1	66 89 84 39 e6
	01 00 00	 mov	 WORD PTR [ecx+edi+486], ax

; 479  : 	}
; 480  : }

  000b9	5f		 pop	 edi
  000ba	5e		 pop	 esi
  000bb	5b		 pop	 ebx
  000bc	5d		 pop	 ebp
  000bd	c2 04 00	 ret	 4
$LN2@RecvCharac:

; 475  : 	}
; 476  : 	else
; 477  : 	{
; 478  : 		rkPlayer.NotifyCharacterUpdate(pkNetUpdateActorData->m_dwVID);

  000c0	8b 06		 mov	 eax, DWORD PTR [esi]
  000c2	8b ce		 mov	 ecx, esi
  000c4	ff 33		 push	 DWORD PTR [ebx]
  000c6	ff 50 6c	 call	 DWORD PTR [eax+108]

; 479  : 	}
; 480  : }

  000c9	5f		 pop	 edi
  000ca	5e		 pop	 esi
  000cb	5b		 pop	 ebx
  000cc	5d		 pop	 ebp
  000cd	c2 04 00	 ret	 4
?__RecvCharacterUpdatePacket@CPythonNetworkStream@@IAEXPAUSNetworkUpdateActorData@@@Z ENDP ; CPythonNetworkStream::__RecvCharacterUpdatePacket
_TEXT	ENDS
END
