; Listing generated by Microsoft (R) Optimizing Compiler Version 19.44.35219.0 

	TITLE	c:\anka2project\anka2project\source\binary\vs_files\userinterface\release\pythonime.obj
	.686P
	.XMM
	include listing.inc
	.model	flat

INCLUDELIB OLDNAMES

PUBLIC	??_C@_0BA@DKDMKINE@PythonIME?5Clear@		; `string'
PUBLIC	??_R2CPythonIME@@8				; CPythonIME::`RTTI Base Class Array'
PUBLIC	??_R2?$CSingleton@VCPythonIME@@@@8		; CSingleton<CPythonIME>::`RTTI Base Class Array'
PUBLIC	??_R2CIME@@8					; CIME::`RTTI Base Class Array'
PUBLIC	??_R2IIMEEventSink@@8				; IIMEEventSink::`RTTI Base Class Array'
PUBLIC	??_R1ICI@?0A@EA@?$CSingleton@VCPythonIME@@@@8	; CSingleton<CPythonIME>::`RTTI Base Class Descriptor at (2088,-1,0,64)'
PUBLIC	??_R13?0A@EA@CIME@@8				; CIME::`RTTI Base Class Descriptor at (4,-1,0,64)'
PUBLIC	??_R1A@?0A@EA@CPythonIME@@8			; CPythonIME::`RTTI Base Class Descriptor at (0,-1,0,64)'
PUBLIC	??_R1A@?0A@EA@?$CSingleton@VCPythonIME@@@@8	; CSingleton<CPythonIME>::`RTTI Base Class Descriptor at (0,-1,0,64)'
PUBLIC	??_R1A@?0A@EA@CIME@@8				; CIME::`RTTI Base Class Descriptor at (0,-1,0,64)'
PUBLIC	??_R1A@?0A@EA@IIMEEventSink@@8			; IIMEEventSink::`RTTI Base Class Descriptor at (0,-1,0,64)'
PUBLIC	??_R3?$CSingleton@VCPythonIME@@@@8		; CSingleton<CPythonIME>::`RTTI Class Hierarchy Descriptor'
PUBLIC	??_R0?AV?$CSingleton@VCPythonIME@@@@@8		; CSingleton<CPythonIME> `RTTI Type Descriptor'
PUBLIC	??_R3CIME@@8					; CIME::`RTTI Class Hierarchy Descriptor'
PUBLIC	??_R0?AVCIME@@@8				; CIME `RTTI Type Descriptor'
PUBLIC	??_R3CPythonIME@@8				; CPythonIME::`RTTI Class Hierarchy Descriptor'
PUBLIC	??_R0?AVCPythonIME@@@8				; CPythonIME `RTTI Type Descriptor'
PUBLIC	??_R3IIMEEventSink@@8				; IIMEEventSink::`RTTI Class Hierarchy Descriptor'
PUBLIC	??_R0?AVIIMEEventSink@@@8			; IIMEEventSink `RTTI Type Descriptor'
PUBLIC	??_R4?$CSingleton@VCPythonIME@@@@6B@		; CSingleton<CPythonIME>::`RTTI Complete Object Locator'
PUBLIC	??_R4CPythonIME@@6B?$CSingleton@VCPythonIME@@@@@ ; CPythonIME::`RTTI Complete Object Locator'
PUBLIC	??_R4CPythonIME@@6BCIME@@@			; CPythonIME::`RTTI Complete Object Locator'
PUBLIC	??_R4CPythonIME@@6BIIMEEventSink@@@		; CPythonIME::`RTTI Complete Object Locator'
PUBLIC	??_R4IIMEEventSink@@6B@				; IIMEEventSink::`RTTI Complete Object Locator'
PUBLIC	??_7?$CSingleton@VCPythonIME@@@@6B@		; CSingleton<CPythonIME>::`vftable'
PUBLIC	??_7IIMEEventSink@@6B@				; IIMEEventSink::`vftable'
PUBLIC	??_7CPythonIME@@6B?$CSingleton@VCPythonIME@@@@@	; CPythonIME::`vftable'
PUBLIC	??_7CPythonIME@@6BCIME@@@			; CPythonIME::`vftable'
PUBLIC	??_7CPythonIME@@6BIIMEEventSink@@@		; CPythonIME::`vftable'
EXTRN	?ms_bCaptureInput@CIME@@2_NA:BYTE		; CIME::ms_bCaptureInput
EXTRN	?SetCurPos@CIME@@IAEXH@Z:PROC			; CIME::SetCurPos
EXTRN	?DelCurPos@CIME@@IAEXXZ:PROC			; CIME::DelCurPos
EXTRN	?ms_curpos@CIME@@2HA:DWORD			; CIME::ms_curpos
EXTRN	?ms_lastpos@CIME@@2HA:DWORD			; CIME::ms_lastpos
EXTRN	?DecCurPos@CIME@@IAEXXZ:PROC			; CIME::DecCurPos
EXTRN	?IncCurPos@CIME@@IAEXXZ:PROC			; CIME::IncCurPos
EXTRN	?Initialize@CIME@@QAE_NPAUHWND__@@@Z:PROC	; CIME::Initialize
EXTRN	?ms_pEvent@CIME@@2PAVIIMEEventSink@@A:DWORD	; CIME::ms_pEvent
EXTRN	??0CIME@@QAE@XZ:PROC				; CIME::CIME
EXTRN	??1CIME@@UAE@XZ:PROC				; CIME::~CIME
;	COMDAT ??_7CPythonIME@@6BIIMEEventSink@@@
CONST	SEGMENT
??_7CPythonIME@@6BIIMEEventSink@@@ DD FLAT:??_R4CPythonIME@@6BIIMEEventSink@@@ ; CPythonIME::`vftable'
	DD	FLAT:?OnWM_CHAR@CPythonIME@@MAE_NIJ@Z
	DD	FLAT:?OnUpdate@CPythonIME@@MAEXXZ
	DD	FLAT:?OnChangeCodePage@CPythonIME@@MAEXXZ
	DD	FLAT:?OnOpenCandidateList@CPythonIME@@MAEXXZ
	DD	FLAT:?OnCloseCandidateList@CPythonIME@@MAEXXZ
	DD	FLAT:?OnOpenReadingWnd@CPythonIME@@MAEXXZ
	DD	FLAT:?OnCloseReadingWnd@CPythonIME@@MAEXXZ
	DD	FLAT:?OnTab@CPythonIME@@MAEXXZ
	DD	FLAT:?OnReturn@CPythonIME@@MAEXXZ
	DD	FLAT:?OnEscape@CPythonIME@@MAEXXZ
CONST	ENDS
;	COMDAT ??_7CPythonIME@@6BCIME@@@
CONST	SEGMENT
??_7CPythonIME@@6BCIME@@@ DD FLAT:??_R4CPythonIME@@6BCIME@@@ ; CPythonIME::`vftable'
	DD	FLAT:??_ECPythonIME@@W3AEPAXI@Z
CONST	ENDS
;	COMDAT ??_7CPythonIME@@6B?$CSingleton@VCPythonIME@@@@@
CONST	SEGMENT
??_7CPythonIME@@6B?$CSingleton@VCPythonIME@@@@@ DD FLAT:??_R4CPythonIME@@6B?$CSingleton@VCPythonIME@@@@@ ; CPythonIME::`vftable'
	DD	FLAT:??_ECPythonIME@@WICI@AEPAXI@Z
CONST	ENDS
;	COMDAT ??_7IIMEEventSink@@6B@
CONST	SEGMENT
??_7IIMEEventSink@@6B@ DD FLAT:??_R4IIMEEventSink@@6B@	; IIMEEventSink::`vftable'
	DD	FLAT:__purecall
	DD	FLAT:__purecall
	DD	FLAT:__purecall
	DD	FLAT:__purecall
	DD	FLAT:__purecall
	DD	FLAT:__purecall
	DD	FLAT:__purecall
CONST	ENDS
;	COMDAT ??_7?$CSingleton@VCPythonIME@@@@6B@
CONST	SEGMENT
??_7?$CSingleton@VCPythonIME@@@@6B@ DD FLAT:??_R4?$CSingleton@VCPythonIME@@@@6B@ ; CSingleton<CPythonIME>::`vftable'
	DD	FLAT:??_E?$CSingleton@VCPythonIME@@@@UAEPAXI@Z
CONST	ENDS
;	COMDAT ??_R4IIMEEventSink@@6B@
rdata$r	SEGMENT
??_R4IIMEEventSink@@6B@ DD 00H				; IIMEEventSink::`RTTI Complete Object Locator'
	DD	00H
	DD	00H
	DD	FLAT:??_R0?AVIIMEEventSink@@@8
	DD	FLAT:??_R3IIMEEventSink@@8
rdata$r	ENDS
;	COMDAT ??_R4CPythonIME@@6BIIMEEventSink@@@
rdata$r	SEGMENT
??_R4CPythonIME@@6BIIMEEventSink@@@ DD 00H		; CPythonIME::`RTTI Complete Object Locator'
	DD	00H
	DD	00H
	DD	FLAT:??_R0?AVCPythonIME@@@8
	DD	FLAT:??_R3CPythonIME@@8
rdata$r	ENDS
;	COMDAT ??_R4CPythonIME@@6BCIME@@@
rdata$r	SEGMENT
??_R4CPythonIME@@6BCIME@@@ DD 00H			; CPythonIME::`RTTI Complete Object Locator'
	DD	04H
	DD	00H
	DD	FLAT:??_R0?AVCPythonIME@@@8
	DD	FLAT:??_R3CPythonIME@@8
rdata$r	ENDS
;	COMDAT ??_R4CPythonIME@@6B?$CSingleton@VCPythonIME@@@@@
rdata$r	SEGMENT
??_R4CPythonIME@@6B?$CSingleton@VCPythonIME@@@@@ DD 00H	; CPythonIME::`RTTI Complete Object Locator'
	DD	0828H
	DD	00H
	DD	FLAT:??_R0?AVCPythonIME@@@8
	DD	FLAT:??_R3CPythonIME@@8
rdata$r	ENDS
;	COMDAT ??_R4?$CSingleton@VCPythonIME@@@@6B@
rdata$r	SEGMENT
??_R4?$CSingleton@VCPythonIME@@@@6B@ DD 00H		; CSingleton<CPythonIME>::`RTTI Complete Object Locator'
	DD	00H
	DD	00H
	DD	FLAT:??_R0?AV?$CSingleton@VCPythonIME@@@@@8
	DD	FLAT:??_R3?$CSingleton@VCPythonIME@@@@8
rdata$r	ENDS
;	COMDAT ??_R0?AVIIMEEventSink@@@8
data$rs	SEGMENT
??_R0?AVIIMEEventSink@@@8 DD FLAT:??_7type_info@@6B@	; IIMEEventSink `RTTI Type Descriptor'
	DD	00H
	DB	'.?AVIIMEEventSink@@', 00H
data$rs	ENDS
;	COMDAT ??_R3IIMEEventSink@@8
rdata$r	SEGMENT
??_R3IIMEEventSink@@8 DD 00H				; IIMEEventSink::`RTTI Class Hierarchy Descriptor'
	DD	00H
	DD	01H
	DD	FLAT:??_R2IIMEEventSink@@8
rdata$r	ENDS
;	COMDAT ??_R0?AVCPythonIME@@@8
data$rs	SEGMENT
??_R0?AVCPythonIME@@@8 DD FLAT:??_7type_info@@6B@	; CPythonIME `RTTI Type Descriptor'
	DD	00H
	DB	'.?AVCPythonIME@@', 00H
data$rs	ENDS
;	COMDAT ??_R3CPythonIME@@8
rdata$r	SEGMENT
??_R3CPythonIME@@8 DD 00H				; CPythonIME::`RTTI Class Hierarchy Descriptor'
	DD	01H
	DD	04H
	DD	FLAT:??_R2CPythonIME@@8
rdata$r	ENDS
;	COMDAT ??_R0?AVCIME@@@8
data$rs	SEGMENT
??_R0?AVCIME@@@8 DD FLAT:??_7type_info@@6B@		; CIME `RTTI Type Descriptor'
	DD	00H
	DB	'.?AVCIME@@', 00H
data$rs	ENDS
;	COMDAT ??_R3CIME@@8
rdata$r	SEGMENT
??_R3CIME@@8 DD	00H					; CIME::`RTTI Class Hierarchy Descriptor'
	DD	00H
	DD	01H
	DD	FLAT:??_R2CIME@@8
rdata$r	ENDS
;	COMDAT ??_R0?AV?$CSingleton@VCPythonIME@@@@@8
data$rs	SEGMENT
??_R0?AV?$CSingleton@VCPythonIME@@@@@8 DD FLAT:??_7type_info@@6B@ ; CSingleton<CPythonIME> `RTTI Type Descriptor'
	DD	00H
	DB	'.?AV?$CSingleton@VCPythonIME@@@@', 00H
data$rs	ENDS
;	COMDAT ??_R3?$CSingleton@VCPythonIME@@@@8
rdata$r	SEGMENT
??_R3?$CSingleton@VCPythonIME@@@@8 DD 00H		; CSingleton<CPythonIME>::`RTTI Class Hierarchy Descriptor'
	DD	00H
	DD	01H
	DD	FLAT:??_R2?$CSingleton@VCPythonIME@@@@8
rdata$r	ENDS
;	COMDAT ??_R1A@?0A@EA@IIMEEventSink@@8
rdata$r	SEGMENT
??_R1A@?0A@EA@IIMEEventSink@@8 DD FLAT:??_R0?AVIIMEEventSink@@@8 ; IIMEEventSink::`RTTI Base Class Descriptor at (0,-1,0,64)'
	DD	00H
	DD	00H
	DD	0ffffffffH
	DD	00H
	DD	040H
	DD	FLAT:??_R3IIMEEventSink@@8
rdata$r	ENDS
;	COMDAT ??_R1A@?0A@EA@CIME@@8
rdata$r	SEGMENT
??_R1A@?0A@EA@CIME@@8 DD FLAT:??_R0?AVCIME@@@8		; CIME::`RTTI Base Class Descriptor at (0,-1,0,64)'
	DD	00H
	DD	00H
	DD	0ffffffffH
	DD	00H
	DD	040H
	DD	FLAT:??_R3CIME@@8
rdata$r	ENDS
;	COMDAT ??_R1A@?0A@EA@?$CSingleton@VCPythonIME@@@@8
rdata$r	SEGMENT
??_R1A@?0A@EA@?$CSingleton@VCPythonIME@@@@8 DD FLAT:??_R0?AV?$CSingleton@VCPythonIME@@@@@8 ; CSingleton<CPythonIME>::`RTTI Base Class Descriptor at (0,-1,0,64)'
	DD	00H
	DD	00H
	DD	0ffffffffH
	DD	00H
	DD	040H
	DD	FLAT:??_R3?$CSingleton@VCPythonIME@@@@8
rdata$r	ENDS
;	COMDAT ??_R1A@?0A@EA@CPythonIME@@8
rdata$r	SEGMENT
??_R1A@?0A@EA@CPythonIME@@8 DD FLAT:??_R0?AVCPythonIME@@@8 ; CPythonIME::`RTTI Base Class Descriptor at (0,-1,0,64)'
	DD	03H
	DD	00H
	DD	0ffffffffH
	DD	00H
	DD	040H
	DD	FLAT:??_R3CPythonIME@@8
rdata$r	ENDS
;	COMDAT ??_R13?0A@EA@CIME@@8
rdata$r	SEGMENT
??_R13?0A@EA@CIME@@8 DD FLAT:??_R0?AVCIME@@@8		; CIME::`RTTI Base Class Descriptor at (4,-1,0,64)'
	DD	00H
	DD	04H
	DD	0ffffffffH
	DD	00H
	DD	040H
	DD	FLAT:??_R3CIME@@8
rdata$r	ENDS
;	COMDAT ??_R1ICI@?0A@EA@?$CSingleton@VCPythonIME@@@@8
rdata$r	SEGMENT
??_R1ICI@?0A@EA@?$CSingleton@VCPythonIME@@@@8 DD FLAT:??_R0?AV?$CSingleton@VCPythonIME@@@@@8 ; CSingleton<CPythonIME>::`RTTI Base Class Descriptor at (2088,-1,0,64)'
	DD	00H
	DD	0828H
	DD	0ffffffffH
	DD	00H
	DD	040H
	DD	FLAT:??_R3?$CSingleton@VCPythonIME@@@@8
rdata$r	ENDS
;	COMDAT ??_R2IIMEEventSink@@8
rdata$r	SEGMENT
??_R2IIMEEventSink@@8 DD FLAT:??_R1A@?0A@EA@IIMEEventSink@@8 ; IIMEEventSink::`RTTI Base Class Array'
rdata$r	ENDS
;	COMDAT ??_R2CIME@@8
rdata$r	SEGMENT
??_R2CIME@@8 DD	FLAT:??_R1A@?0A@EA@CIME@@8		; CIME::`RTTI Base Class Array'
rdata$r	ENDS
;	COMDAT ??_R2?$CSingleton@VCPythonIME@@@@8
rdata$r	SEGMENT
??_R2?$CSingleton@VCPythonIME@@@@8 DD FLAT:??_R1A@?0A@EA@?$CSingleton@VCPythonIME@@@@8 ; CSingleton<CPythonIME>::`RTTI Base Class Array'
rdata$r	ENDS
;	COMDAT ??_R2CPythonIME@@8
rdata$r	SEGMENT
??_R2CPythonIME@@8 DD FLAT:??_R1A@?0A@EA@CPythonIME@@8	; CPythonIME::`RTTI Base Class Array'
	DD	FLAT:??_R1A@?0A@EA@IIMEEventSink@@8
	DD	FLAT:??_R13?0A@EA@CIME@@8
	DD	FLAT:??_R1ICI@?0A@EA@?$CSingleton@VCPythonIME@@@@8
rdata$r	ENDS
;	COMDAT ??_C@_0BA@DKDMKINE@PythonIME?5Clear@
CONST	SEGMENT
??_C@_0BA@DKDMKINE@PythonIME?5Clear@ DB 'PythonIME Clear', 00H ; `string'
PUBLIC	??_ECPythonIME@@WICI@AEPAXI@Z			; [thunk]:CPythonIME::`vector deleting destructor'
PUBLIC	??_ECPythonIME@@W3AEPAXI@Z			; [thunk]:CPythonIME::`vector deleting destructor'
PUBLIC	??_G?$CSingleton@VCPythonIME@@@@UAEPAXI@Z	; CSingleton<CPythonIME>::`scalar deleting destructor'
PUBLIC	??0?$CSingleton@VCPythonIME@@@@QAE@XZ		; CSingleton<CPythonIME>::CSingleton<CPythonIME>
PUBLIC	??1?$CSingleton@VCPythonIME@@@@UAE@XZ		; CSingleton<CPythonIME>::~CSingleton<CPythonIME>
PUBLIC	?OnCloseReadingWnd@CPythonIME@@MAEXXZ		; CPythonIME::OnCloseReadingWnd
PUBLIC	?OnOpenReadingWnd@CPythonIME@@MAEXXZ		; CPythonIME::OnOpenReadingWnd
PUBLIC	?OnCloseCandidateList@CPythonIME@@MAEXXZ	; CPythonIME::OnCloseCandidateList
PUBLIC	?OnOpenCandidateList@CPythonIME@@MAEXXZ		; CPythonIME::OnOpenCandidateList
PUBLIC	?OnChangeCodePage@CPythonIME@@MAEXXZ		; CPythonIME::OnChangeCodePage
PUBLIC	?OnWM_CHAR@CPythonIME@@MAE_NIJ@Z		; CPythonIME::OnWM_CHAR
PUBLIC	?OnEscape@CPythonIME@@MAEXXZ			; CPythonIME::OnEscape
PUBLIC	?OnReturn@CPythonIME@@MAEXXZ			; CPythonIME::OnReturn
PUBLIC	?OnTab@CPythonIME@@MAEXXZ			; CPythonIME::OnTab
PUBLIC	?OnUpdate@CPythonIME@@MAEXXZ			; CPythonIME::OnUpdate
PUBLIC	?Delete@CPythonIME@@QAEXXZ			; CPythonIME::Delete
PUBLIC	?SetCursorPosition@CPythonIME@@QAEXH@Z		; CPythonIME::SetCursorPosition
PUBLIC	?MoveEnd@CPythonIME@@QAEXXZ			; CPythonIME::MoveEnd
PUBLIC	?MoveHome@CPythonIME@@QAEXXZ			; CPythonIME::MoveHome
PUBLIC	?MoveRight@CPythonIME@@QAEXXZ			; CPythonIME::MoveRight
PUBLIC	?MoveLeft@CPythonIME@@QAEXXZ			; CPythonIME::MoveLeft
PUBLIC	??0IIMEEventSink@@QAE@XZ			; IIMEEventSink::IIMEEventSink
PUBLIC	??_GCPythonIME@@UAEPAXI@Z			; CPythonIME::`scalar deleting destructor'
PUBLIC	??0CPythonIME@@QAE@XZ				; CPythonIME::CPythonIME
PUBLIC	??1CPythonIME@@UAE@XZ				; CPythonIME::~CPythonIME
PUBLIC	?Create@CPythonIME@@QAEXPAUHWND__@@@Z		; CPythonIME::Create
EXTRN	??_E?$CSingleton@VCPythonIME@@@@UAEPAXI@Z:PROC	; CSingleton<CPythonIME>::`vector deleting destructor'
EXTRN	??_ECPythonIME@@UAEPAXI@Z:PROC			; CPythonIME::`vector deleting destructor'
;	COMDAT xdata$x
xdata$x	SEGMENT
__ehfuncinfo$??1CPythonIME@@UAE@XZ DQ 00000000019930522r ; 2.11987e-315
	DQ	00000000000000000r		; 0
	DQ	00000000000000000r		; 0
	DQ	00000000000000000r		; 0
	DD	05H
; Function compile flags: /Ogtp
; File C:\Anka2Project\Anka2Project\Source\Binary\source\UserInterface\PythonIME.cpp
; File C:\Anka2Project\Anka2Project\Source\Binary\source\UserInterface\AbstractSingleton.h
; File C:\Anka2Project\Anka2Project\Source\Binary\source\UserInterface\PythonIME.cpp
;	COMDAT ?OnUpdate@CPythonIME@@MAEXXZ
_TEXT	SEGMENT
?OnUpdate@CPythonIME@@MAEXXZ PROC			; CPythonIME::OnUpdate, COMDAT
; _this$ = ecx
; File C:\Anka2Project\Anka2Project\Source\Binary\source\UserInterface\AbstractSingleton.h

; 24   : 		assert(ms_singleton!=nullptr);

  00000	8b 0d 00 00 00
	00		 mov	 ecx, DWORD PTR ?ms_singleton@?$TAbstractSingleton@VIAbstractApplication@@@@0PAVIAbstractApplication@@A ; TAbstractSingleton<IAbstractApplication>::ms_singleton
  00006	85 c9		 test	 ecx, ecx
  00008	75 1a		 jne	 SHORT $LN5@OnUpdate
  0000a	6a 18		 push	 24			; 00000018H
  0000c	68 00 00 00 00	 push	 OFFSET ??_C@_1KI@FIPHLMOB@?$AAC?$AA?3?$AA?2?$AAA?$AAn?$AAk?$AAa?$AA2?$AAP?$AAr?$AAo?$AAj?$AAe?$AAc?$AAt@
  00011	68 00 00 00 00	 push	 OFFSET ??_C@_1CM@FPMBEAEA@?$AAm?$AAs?$AA_?$AAs?$AAi?$AAn?$AAg?$AAl?$AAe?$AAt?$AAo?$AAn?$AA?$CB?$AA?$DN?$AAn@
  00016	e8 00 00 00 00	 call	 __wassert
  0001b	8b 0d 00 00 00
	00		 mov	 ecx, DWORD PTR ?ms_singleton@?$TAbstractSingleton@VIAbstractApplication@@@@0PAVIAbstractApplication@@A ; TAbstractSingleton<IAbstractApplication>::ms_singleton
  00021	83 c4 0c	 add	 esp, 12			; 0000000cH
$LN5@OnUpdate:
; File C:\Anka2Project\Anka2Project\Source\Binary\source\UserInterface\PythonIME.cpp

; 53   : 	IAbstractApplication::GetSingleton().RunIMEUpdate();

  00024	8b 01		 mov	 eax, DWORD PTR [ecx]
  00026	ff 60 28	 jmp	 DWORD PTR [eax+40]
?OnUpdate@CPythonIME@@MAEXXZ ENDP			; CPythonIME::OnUpdate
_TEXT	ENDS
; Function compile flags: /Ogtp
; File C:\Anka2Project\Anka2Project\Source\Binary\source\UserInterface\PythonIME.cpp
; File C:\Anka2Project\Anka2Project\Source\Binary\source\UserInterface\AbstractSingleton.h
; File C:\Anka2Project\Anka2Project\Source\Binary\source\UserInterface\PythonIME.cpp
;	COMDAT ?OnTab@CPythonIME@@MAEXXZ
_TEXT	SEGMENT
?OnTab@CPythonIME@@MAEXXZ PROC				; CPythonIME::OnTab, COMDAT
; _this$ = ecx
; File C:\Anka2Project\Anka2Project\Source\Binary\source\UserInterface\AbstractSingleton.h

; 24   : 		assert(ms_singleton!=nullptr);

  00000	8b 0d 00 00 00
	00		 mov	 ecx, DWORD PTR ?ms_singleton@?$TAbstractSingleton@VIAbstractApplication@@@@0PAVIAbstractApplication@@A ; TAbstractSingleton<IAbstractApplication>::ms_singleton
  00006	85 c9		 test	 ecx, ecx
  00008	75 1a		 jne	 SHORT $LN5@OnTab
  0000a	6a 18		 push	 24			; 00000018H
  0000c	68 00 00 00 00	 push	 OFFSET ??_C@_1KI@FIPHLMOB@?$AAC?$AA?3?$AA?2?$AAA?$AAn?$AAk?$AAa?$AA2?$AAP?$AAr?$AAo?$AAj?$AAe?$AAc?$AAt@
  00011	68 00 00 00 00	 push	 OFFSET ??_C@_1CM@FPMBEAEA@?$AAm?$AAs?$AA_?$AAs?$AAi?$AAn?$AAg?$AAl?$AAe?$AAt?$AAo?$AAn?$AA?$CB?$AA?$DN?$AAn@
  00016	e8 00 00 00 00	 call	 __wassert
  0001b	8b 0d 00 00 00
	00		 mov	 ecx, DWORD PTR ?ms_singleton@?$TAbstractSingleton@VIAbstractApplication@@@@0PAVIAbstractApplication@@A ; TAbstractSingleton<IAbstractApplication>::ms_singleton
  00021	83 c4 0c	 add	 esp, 12			; 0000000cH
$LN5@OnTab:
; File C:\Anka2Project\Anka2Project\Source\Binary\source\UserInterface\PythonIME.cpp

; 58   : 	IAbstractApplication::GetSingleton().RunIMETabEvent();

  00024	8b 01		 mov	 eax, DWORD PTR [ecx]
  00026	ff 60 2c	 jmp	 DWORD PTR [eax+44]
?OnTab@CPythonIME@@MAEXXZ ENDP				; CPythonIME::OnTab
_TEXT	ENDS
; Function compile flags: /Ogtp
; File C:\Anka2Project\Anka2Project\Source\Binary\source\UserInterface\PythonIME.cpp
; File C:\Anka2Project\Anka2Project\Source\Binary\source\UserInterface\AbstractSingleton.h
; File C:\Anka2Project\Anka2Project\Source\Binary\source\UserInterface\PythonIME.cpp
;	COMDAT ?OnReturn@CPythonIME@@MAEXXZ
_TEXT	SEGMENT
?OnReturn@CPythonIME@@MAEXXZ PROC			; CPythonIME::OnReturn, COMDAT
; _this$ = ecx
; File C:\Anka2Project\Anka2Project\Source\Binary\source\UserInterface\AbstractSingleton.h

; 24   : 		assert(ms_singleton!=nullptr);

  00000	8b 0d 00 00 00
	00		 mov	 ecx, DWORD PTR ?ms_singleton@?$TAbstractSingleton@VIAbstractApplication@@@@0PAVIAbstractApplication@@A ; TAbstractSingleton<IAbstractApplication>::ms_singleton
  00006	85 c9		 test	 ecx, ecx
  00008	75 1a		 jne	 SHORT $LN5@OnReturn
  0000a	6a 18		 push	 24			; 00000018H
  0000c	68 00 00 00 00	 push	 OFFSET ??_C@_1KI@FIPHLMOB@?$AAC?$AA?3?$AA?2?$AAA?$AAn?$AAk?$AAa?$AA2?$AAP?$AAr?$AAo?$AAj?$AAe?$AAc?$AAt@
  00011	68 00 00 00 00	 push	 OFFSET ??_C@_1CM@FPMBEAEA@?$AAm?$AAs?$AA_?$AAs?$AAi?$AAn?$AAg?$AAl?$AAe?$AAt?$AAo?$AAn?$AA?$CB?$AA?$DN?$AAn@
  00016	e8 00 00 00 00	 call	 __wassert
  0001b	8b 0d 00 00 00
	00		 mov	 ecx, DWORD PTR ?ms_singleton@?$TAbstractSingleton@VIAbstractApplication@@@@0PAVIAbstractApplication@@A ; TAbstractSingleton<IAbstractApplication>::ms_singleton
  00021	83 c4 0c	 add	 esp, 12			; 0000000cH
$LN5@OnReturn:
; File C:\Anka2Project\Anka2Project\Source\Binary\source\UserInterface\PythonIME.cpp

; 63   : 	IAbstractApplication::GetSingleton().RunIMEReturnEvent();

  00024	8b 01		 mov	 eax, DWORD PTR [ecx]
  00026	ff 60 30	 jmp	 DWORD PTR [eax+48]
?OnReturn@CPythonIME@@MAEXXZ ENDP			; CPythonIME::OnReturn
_TEXT	ENDS
; Function compile flags: /Ogtp
; File C:\Anka2Project\Anka2Project\Source\Binary\source\UserInterface\PythonIME.cpp
;	COMDAT ?OnWM_CHAR@CPythonIME@@MAE_NIJ@Z
_TEXT	SEGMENT
_wParam$ = 8						; size = 4
_lParam$ = 12						; size = 4
?OnWM_CHAR@CPythonIME@@MAE_NIJ@Z PROC			; CPythonIME::OnWM_CHAR, COMDAT
; _this$ = ecx

; 72   : {

  00000	55		 push	 ebp
  00001	8b ec		 mov	 ebp, esp

; 73   : 	unsigned char c = unsigned char(wParam & 0xff);

  00003	8a 45 08	 mov	 al, BYTE PTR _wParam$[ebp]
  00006	3c 09		 cmp	 al, 9

; 74   : 
; 75   : 	switch (c) 

  00008	74 27		 je	 SHORT $LN5@OnWM_CHAR
  0000a	3c 0d		 cmp	 al, 13			; 0000000dH
  0000c	74 18		 je	 SHORT $LN4@OnWM_CHAR
  0000e	3c 1b		 cmp	 al, 27			; 0000001bH
  00010	75 28		 jne	 SHORT $LN10@OnWM_CHAR

; 85   : 		return true;
; 86   : 
; 87   : 	case VK_ESCAPE:
; 88   : 		if(ms_bCaptureInput == false)

  00012	80 3d 00 00 00
	00 00		 cmp	 BYTE PTR ?ms_bCaptureInput@CIME@@2_NA, 0 ; CIME::ms_bCaptureInput
  00019	74 1f		 je	 SHORT $LN10@OnWM_CHAR

; 89   : 			return 0;
; 90   : 		OnEscape();

  0001b	8b 01		 mov	 eax, DWORD PTR [ecx]
  0001d	ff 50 24	 call	 DWORD PTR [eax+36]

; 91   : 		return true;
; 92   : 	}
; 93   : 	return false;
; 94   : }

  00020	b0 01		 mov	 al, 1
  00022	5d		 pop	 ebp
  00023	c2 08 00	 ret	 8
$LN4@OnWM_CHAR:

; 76   : 	{
; 77   : 	case VK_RETURN:
; 78   : 		OnReturn();

  00026	8b 01		 mov	 eax, DWORD PTR [ecx]
  00028	ff 50 20	 call	 DWORD PTR [eax+32]

; 91   : 		return true;
; 92   : 	}
; 93   : 	return false;
; 94   : }

  0002b	b0 01		 mov	 al, 1
  0002d	5d		 pop	 ebp
  0002e	c2 08 00	 ret	 8
$LN5@OnWM_CHAR:

; 79   : 		return true;
; 80   : 
; 81   : 	case VK_TAB:
; 82   : 		if(ms_bCaptureInput == false)

  00031	80 3d 00 00 00
	00 00		 cmp	 BYTE PTR ?ms_bCaptureInput@CIME@@2_NA, 0 ; CIME::ms_bCaptureInput
  00038	75 06		 jne	 SHORT $LN6@OnWM_CHAR
$LN10@OnWM_CHAR:

; 91   : 		return true;
; 92   : 	}
; 93   : 	return false;
; 94   : }

  0003a	32 c0		 xor	 al, al
  0003c	5d		 pop	 ebp
  0003d	c2 08 00	 ret	 8
$LN6@OnWM_CHAR:

; 83   : 			return 0;
; 84   : 		OnTab();

  00040	8b 01		 mov	 eax, DWORD PTR [ecx]
  00042	ff 50 1c	 call	 DWORD PTR [eax+28]

; 91   : 		return true;
; 92   : 	}
; 93   : 	return false;
; 94   : }

  00045	b0 01		 mov	 al, 1
  00047	5d		 pop	 ebp
  00048	c2 08 00	 ret	 8
?OnWM_CHAR@CPythonIME@@MAE_NIJ@Z ENDP			; CPythonIME::OnWM_CHAR
_TEXT	ENDS
; Function compile flags: /Ogtp
; File C:\Anka2Project\Anka2Project\Source\Binary\source\UserInterface\PythonIME.cpp
; File C:\Anka2Project\Anka2Project\Source\Binary\source\UserInterface\AbstractSingleton.h
; File C:\Anka2Project\Anka2Project\Source\Binary\source\UserInterface\PythonIME.cpp
;	COMDAT ?OnChangeCodePage@CPythonIME@@MAEXXZ
_TEXT	SEGMENT
?OnChangeCodePage@CPythonIME@@MAEXXZ PROC		; CPythonIME::OnChangeCodePage, COMDAT
; _this$ = ecx
; File C:\Anka2Project\Anka2Project\Source\Binary\source\UserInterface\AbstractSingleton.h

; 24   : 		assert(ms_singleton!=nullptr);

  00000	8b 0d 00 00 00
	00		 mov	 ecx, DWORD PTR ?ms_singleton@?$TAbstractSingleton@VIAbstractApplication@@@@0PAVIAbstractApplication@@A ; TAbstractSingleton<IAbstractApplication>::ms_singleton
  00006	85 c9		 test	 ecx, ecx
  00008	75 1a		 jne	 SHORT $LN5@OnChangeCo
  0000a	6a 18		 push	 24			; 00000018H
  0000c	68 00 00 00 00	 push	 OFFSET ??_C@_1KI@FIPHLMOB@?$AAC?$AA?3?$AA?2?$AAA?$AAn?$AAk?$AAa?$AA2?$AAP?$AAr?$AAo?$AAj?$AAe?$AAc?$AAt@
  00011	68 00 00 00 00	 push	 OFFSET ??_C@_1CM@FPMBEAEA@?$AAm?$AAs?$AA_?$AAs?$AAi?$AAn?$AAg?$AAl?$AAe?$AAt?$AAo?$AAn?$AA?$CB?$AA?$DN?$AAn@
  00016	e8 00 00 00 00	 call	 __wassert
  0001b	8b 0d 00 00 00
	00		 mov	 ecx, DWORD PTR ?ms_singleton@?$TAbstractSingleton@VIAbstractApplication@@@@0PAVIAbstractApplication@@A ; TAbstractSingleton<IAbstractApplication>::ms_singleton
  00021	83 c4 0c	 add	 esp, 12			; 0000000cH
$LN5@OnChangeCo:
; File C:\Anka2Project\Anka2Project\Source\Binary\source\UserInterface\PythonIME.cpp

; 98   : 	IAbstractApplication::GetSingleton().RunIMEChangeCodePage();

  00024	8b 01		 mov	 eax, DWORD PTR [ecx]
  00026	ff 60 34	 jmp	 DWORD PTR [eax+52]
?OnChangeCodePage@CPythonIME@@MAEXXZ ENDP		; CPythonIME::OnChangeCodePage
_TEXT	ENDS
; Function compile flags: /Ogtp
; File C:\Anka2Project\Anka2Project\Source\Binary\source\UserInterface\PythonIME.cpp
; File C:\Anka2Project\Anka2Project\Source\Binary\source\UserInterface\AbstractSingleton.h
; File C:\Anka2Project\Anka2Project\Source\Binary\source\UserInterface\PythonIME.cpp
;	COMDAT ?OnOpenCandidateList@CPythonIME@@MAEXXZ
_TEXT	SEGMENT
?OnOpenCandidateList@CPythonIME@@MAEXXZ PROC		; CPythonIME::OnOpenCandidateList, COMDAT
; _this$ = ecx
; File C:\Anka2Project\Anka2Project\Source\Binary\source\UserInterface\AbstractSingleton.h

; 24   : 		assert(ms_singleton!=nullptr);

  00000	8b 0d 00 00 00
	00		 mov	 ecx, DWORD PTR ?ms_singleton@?$TAbstractSingleton@VIAbstractApplication@@@@0PAVIAbstractApplication@@A ; TAbstractSingleton<IAbstractApplication>::ms_singleton
  00006	85 c9		 test	 ecx, ecx
  00008	75 1a		 jne	 SHORT $LN5@OnOpenCand
  0000a	6a 18		 push	 24			; 00000018H
  0000c	68 00 00 00 00	 push	 OFFSET ??_C@_1KI@FIPHLMOB@?$AAC?$AA?3?$AA?2?$AAA?$AAn?$AAk?$AAa?$AA2?$AAP?$AAr?$AAo?$AAj?$AAe?$AAc?$AAt@
  00011	68 00 00 00 00	 push	 OFFSET ??_C@_1CM@FPMBEAEA@?$AAm?$AAs?$AA_?$AAs?$AAi?$AAn?$AAg?$AAl?$AAe?$AAt?$AAo?$AAn?$AA?$CB?$AA?$DN?$AAn@
  00016	e8 00 00 00 00	 call	 __wassert
  0001b	8b 0d 00 00 00
	00		 mov	 ecx, DWORD PTR ?ms_singleton@?$TAbstractSingleton@VIAbstractApplication@@@@0PAVIAbstractApplication@@A ; TAbstractSingleton<IAbstractApplication>::ms_singleton
  00021	83 c4 0c	 add	 esp, 12			; 0000000cH
$LN5@OnOpenCand:
; File C:\Anka2Project\Anka2Project\Source\Binary\source\UserInterface\PythonIME.cpp

; 103  : 	IAbstractApplication::GetSingleton().RunIMEOpenCandidateListEvent();

  00024	8b 01		 mov	 eax, DWORD PTR [ecx]
  00026	ff 60 38	 jmp	 DWORD PTR [eax+56]
?OnOpenCandidateList@CPythonIME@@MAEXXZ ENDP		; CPythonIME::OnOpenCandidateList
_TEXT	ENDS
; Function compile flags: /Ogtp
; File C:\Anka2Project\Anka2Project\Source\Binary\source\UserInterface\PythonIME.cpp
; File C:\Anka2Project\Anka2Project\Source\Binary\source\UserInterface\AbstractSingleton.h
; File C:\Anka2Project\Anka2Project\Source\Binary\source\UserInterface\PythonIME.cpp
;	COMDAT ?OnCloseCandidateList@CPythonIME@@MAEXXZ
_TEXT	SEGMENT
?OnCloseCandidateList@CPythonIME@@MAEXXZ PROC		; CPythonIME::OnCloseCandidateList, COMDAT
; _this$ = ecx
; File C:\Anka2Project\Anka2Project\Source\Binary\source\UserInterface\AbstractSingleton.h

; 24   : 		assert(ms_singleton!=nullptr);

  00000	8b 0d 00 00 00
	00		 mov	 ecx, DWORD PTR ?ms_singleton@?$TAbstractSingleton@VIAbstractApplication@@@@0PAVIAbstractApplication@@A ; TAbstractSingleton<IAbstractApplication>::ms_singleton
  00006	85 c9		 test	 ecx, ecx
  00008	75 1a		 jne	 SHORT $LN5@OnCloseCan
  0000a	6a 18		 push	 24			; 00000018H
  0000c	68 00 00 00 00	 push	 OFFSET ??_C@_1KI@FIPHLMOB@?$AAC?$AA?3?$AA?2?$AAA?$AAn?$AAk?$AAa?$AA2?$AAP?$AAr?$AAo?$AAj?$AAe?$AAc?$AAt@
  00011	68 00 00 00 00	 push	 OFFSET ??_C@_1CM@FPMBEAEA@?$AAm?$AAs?$AA_?$AAs?$AAi?$AAn?$AAg?$AAl?$AAe?$AAt?$AAo?$AAn?$AA?$CB?$AA?$DN?$AAn@
  00016	e8 00 00 00 00	 call	 __wassert
  0001b	8b 0d 00 00 00
	00		 mov	 ecx, DWORD PTR ?ms_singleton@?$TAbstractSingleton@VIAbstractApplication@@@@0PAVIAbstractApplication@@A ; TAbstractSingleton<IAbstractApplication>::ms_singleton
  00021	83 c4 0c	 add	 esp, 12			; 0000000cH
$LN5@OnCloseCan:
; File C:\Anka2Project\Anka2Project\Source\Binary\source\UserInterface\PythonIME.cpp

; 108  : 	IAbstractApplication::GetSingleton().RunIMECloseCandidateListEvent();

  00024	8b 01		 mov	 eax, DWORD PTR [ecx]
  00026	ff 60 3c	 jmp	 DWORD PTR [eax+60]
?OnCloseCandidateList@CPythonIME@@MAEXXZ ENDP		; CPythonIME::OnCloseCandidateList
_TEXT	ENDS
; Function compile flags: /Ogtp
; File C:\Anka2Project\Anka2Project\Source\Binary\source\UserInterface\PythonIME.cpp
; File C:\Anka2Project\Anka2Project\Source\Binary\source\UserInterface\AbstractSingleton.h
; File C:\Anka2Project\Anka2Project\Source\Binary\source\UserInterface\PythonIME.cpp
;	COMDAT ?OnOpenReadingWnd@CPythonIME@@MAEXXZ
_TEXT	SEGMENT
?OnOpenReadingWnd@CPythonIME@@MAEXXZ PROC		; CPythonIME::OnOpenReadingWnd, COMDAT
; _this$ = ecx
; File C:\Anka2Project\Anka2Project\Source\Binary\source\UserInterface\AbstractSingleton.h

; 24   : 		assert(ms_singleton!=nullptr);

  00000	8b 0d 00 00 00
	00		 mov	 ecx, DWORD PTR ?ms_singleton@?$TAbstractSingleton@VIAbstractApplication@@@@0PAVIAbstractApplication@@A ; TAbstractSingleton<IAbstractApplication>::ms_singleton
  00006	85 c9		 test	 ecx, ecx
  00008	75 1a		 jne	 SHORT $LN5@OnOpenRead
  0000a	6a 18		 push	 24			; 00000018H
  0000c	68 00 00 00 00	 push	 OFFSET ??_C@_1KI@FIPHLMOB@?$AAC?$AA?3?$AA?2?$AAA?$AAn?$AAk?$AAa?$AA2?$AAP?$AAr?$AAo?$AAj?$AAe?$AAc?$AAt@
  00011	68 00 00 00 00	 push	 OFFSET ??_C@_1CM@FPMBEAEA@?$AAm?$AAs?$AA_?$AAs?$AAi?$AAn?$AAg?$AAl?$AAe?$AAt?$AAo?$AAn?$AA?$CB?$AA?$DN?$AAn@
  00016	e8 00 00 00 00	 call	 __wassert
  0001b	8b 0d 00 00 00
	00		 mov	 ecx, DWORD PTR ?ms_singleton@?$TAbstractSingleton@VIAbstractApplication@@@@0PAVIAbstractApplication@@A ; TAbstractSingleton<IAbstractApplication>::ms_singleton
  00021	83 c4 0c	 add	 esp, 12			; 0000000cH
$LN5@OnOpenRead:
; File C:\Anka2Project\Anka2Project\Source\Binary\source\UserInterface\PythonIME.cpp

; 113  : 	IAbstractApplication::GetSingleton().RunIMEOpenReadingWndEvent();

  00024	8b 01		 mov	 eax, DWORD PTR [ecx]
  00026	ff 60 40	 jmp	 DWORD PTR [eax+64]
?OnOpenReadingWnd@CPythonIME@@MAEXXZ ENDP		; CPythonIME::OnOpenReadingWnd
_TEXT	ENDS
; Function compile flags: /Ogtp
; File C:\Anka2Project\Anka2Project\Source\Binary\source\UserInterface\PythonIME.cpp
; File C:\Anka2Project\Anka2Project\Source\Binary\source\UserInterface\AbstractSingleton.h
; File C:\Anka2Project\Anka2Project\Source\Binary\source\UserInterface\PythonIME.cpp
;	COMDAT ?OnCloseReadingWnd@CPythonIME@@MAEXXZ
_TEXT	SEGMENT
?OnCloseReadingWnd@CPythonIME@@MAEXXZ PROC		; CPythonIME::OnCloseReadingWnd, COMDAT
; _this$ = ecx
; File C:\Anka2Project\Anka2Project\Source\Binary\source\UserInterface\AbstractSingleton.h

; 24   : 		assert(ms_singleton!=nullptr);

  00000	8b 0d 00 00 00
	00		 mov	 ecx, DWORD PTR ?ms_singleton@?$TAbstractSingleton@VIAbstractApplication@@@@0PAVIAbstractApplication@@A ; TAbstractSingleton<IAbstractApplication>::ms_singleton
  00006	85 c9		 test	 ecx, ecx
  00008	75 1a		 jne	 SHORT $LN5@OnCloseRea
  0000a	6a 18		 push	 24			; 00000018H
  0000c	68 00 00 00 00	 push	 OFFSET ??_C@_1KI@FIPHLMOB@?$AAC?$AA?3?$AA?2?$AAA?$AAn?$AAk?$AAa?$AA2?$AAP?$AAr?$AAo?$AAj?$AAe?$AAc?$AAt@
  00011	68 00 00 00 00	 push	 OFFSET ??_C@_1CM@FPMBEAEA@?$AAm?$AAs?$AA_?$AAs?$AAi?$AAn?$AAg?$AAl?$AAe?$AAt?$AAo?$AAn?$AA?$CB?$AA?$DN?$AAn@
  00016	e8 00 00 00 00	 call	 __wassert
  0001b	8b 0d 00 00 00
	00		 mov	 ecx, DWORD PTR ?ms_singleton@?$TAbstractSingleton@VIAbstractApplication@@@@0PAVIAbstractApplication@@A ; TAbstractSingleton<IAbstractApplication>::ms_singleton
  00021	83 c4 0c	 add	 esp, 12			; 0000000cH
$LN5@OnCloseRea:
; File C:\Anka2Project\Anka2Project\Source\Binary\source\UserInterface\PythonIME.cpp

; 118  : 	IAbstractApplication::GetSingleton().RunIMECloseReadingWndEvent();

  00024	8b 01		 mov	 eax, DWORD PTR [ecx]
  00026	ff 60 44	 jmp	 DWORD PTR [eax+68]
?OnCloseReadingWnd@CPythonIME@@MAEXXZ ENDP		; CPythonIME::OnCloseReadingWnd
_TEXT	ENDS
END
