; Listing generated by Microsoft (R) Optimizing Compiler Version 19.44.35219.0 

	TITLE	c:\anka2project\anka2project\source\binary\vs_files\userinterface\release\pythonacce.obj
	.686P
	.XMM
	include listing.inc
	.model	flat

INCLUDELIB OLDNAMES

PUBLIC	??_C@_02PDIHAGKM@ii@				; `string'
PUBLIC	??_C@_03GLKMLICL@iii@				; `string'
PUBLIC	??_C@_05MDNHABIA@Clear@				; `string'
PUBLIC	??_C@_0BB@JNNNKLPA@SendCloseRequest@		; `string'
PUBLIC	??_C@_03LDFMNCOE@Add@				; `string'
PUBLIC	??_C@_06MEPBJJFP@Remove@			; `string'
PUBLIC	??_C@_08LIIADGDC@GetPrice@			; `string'
PUBLIC	??_C@_0BA@HGMKPIDK@GetAttachedItem@		; `string'
PUBLIC	??_C@_0O@PHHGLLGO@GetResultItem@		; `string'
PUBLIC	??_C@_0BC@HOMOJNGO@SendRefineRequest@		; `string'
PUBLIC	??_C@_04OGAHOEGJ@acce@				; `string'
PUBLIC	??_C@_0BC@IECALNLB@ABSORPTION_SOCKET@		; `string'
PUBLIC	??_C@_0BA@OMEMJIA@ABSORBED_SOCKET@		; `string'
PUBLIC	??_C@_0BC@MMHEJGIM@CLEAN_ATTR_VALUE0@		; `string'
PUBLIC	??_C@_0BF@EEPIJCBJ@WINDOW_MAX_MATERIALS@	; `string'
PUBLIC	??_C@_0BH@GIMJACMK@CLEAN_ATTR_VALUE_FIELD@	; `string'
PUBLIC	??_C@_0M@KGAHGOKL@LIMIT_RANGE@			; `string'
PUBLIC	??_C@_0BF@DGADMFL@ACCE_REVERSAL_VNUM_1@		; `string'
PUBLIC	??_C@_0BF@CIENGPJI@ACCE_REVERSAL_VNUM_2@	; `string'
PUBLIC	??_R2CPythonAcce@@8				; CPythonAcce::`RTTI Base Class Array'
PUBLIC	??_R2?$CSingleton@VCPythonAcce@@@@8		; CSingleton<CPythonAcce>::`RTTI Base Class Array'
PUBLIC	??_R1A@?0A@EA@CPythonAcce@@8			; CPythonAcce::`RTTI Base Class Descriptor at (0,-1,0,64)'
PUBLIC	??_R1A@?0A@EA@?$CSingleton@VCPythonAcce@@@@8	; CSingleton<CPythonAcce>::`RTTI Base Class Descriptor at (0,-1,0,64)'
PUBLIC	??_R3?$CSingleton@VCPythonAcce@@@@8		; CSingleton<CPythonAcce>::`RTTI Class Hierarchy Descriptor'
PUBLIC	??_R0?AV?$CSingleton@VCPythonAcce@@@@@8		; CSingleton<CPythonAcce> `RTTI Type Descriptor'
PUBLIC	??_R3CPythonAcce@@8				; CPythonAcce::`RTTI Class Hierarchy Descriptor'
PUBLIC	??_R0?AVCPythonAcce@@@8				; CPythonAcce `RTTI Type Descriptor'
PUBLIC	??_R4?$CSingleton@VCPythonAcce@@@@6B@		; CSingleton<CPythonAcce>::`RTTI Complete Object Locator'
PUBLIC	??_R4CPythonAcce@@6B@				; CPythonAcce::`RTTI Complete Object Locator'
PUBLIC	??_7?$CSingleton@VCPythonAcce@@@@6B@		; CSingleton<CPythonAcce>::`vftable'
PUBLIC	?ms_singleton@?$CSingleton@VCPythonAcce@@@@0PAVCPythonAcce@@A ; CSingleton<CPythonAcce>::ms_singleton
PUBLIC	??_7CPythonAcce@@6B@				; CPythonAcce::`vftable'
EXTRN	__imp__PyModule_AddIntConstant:PROC
EXTRN	__imp__Py_InitModule4:PROC
EXTRN	__imp__PyLong_FromLongLong:PROC
EXTRN	?PyTuple_GetInteger@@YA_NPAU_object@@HPAG@Z:PROC ; PyTuple_GetInteger
EXTRN	?Py_BuildException@@YAPAU_object@@PBDZZ:PROC	; Py_BuildException
EXTRN	?PyTuple_GetInteger@@YA_NPAU_object@@HPAE@Z:PROC ; PyTuple_GetInteger
EXTRN	?Py_BuildNone@@YAPAU_object@@XZ:PROC		; Py_BuildNone
;	COMDAT ?ms_singleton@?$CSingleton@VCPythonAcce@@@@0PAVCPythonAcce@@A
_BSS	SEGMENT
?ms_singleton@?$CSingleton@VCPythonAcce@@@@0PAVCPythonAcce@@A DD 01H DUP (?) ; CSingleton<CPythonAcce>::ms_singleton
_BSS	ENDS
;	COMDAT ??_7CPythonAcce@@6B@
CONST	SEGMENT
??_7CPythonAcce@@6B@ DD FLAT:??_R4CPythonAcce@@6B@	; CPythonAcce::`vftable'
	DD	FLAT:??_ECPythonAcce@@UAEPAXI@Z
CONST	ENDS
;	COMDAT ?functions@?1??initAcce@@YAXXZ@4PAUPyMethodDef@@A
_DATA	SEGMENT
?functions@?1??initAcce@@YAXXZ@4PAUPyMethodDef@@A DD FLAT:??_C@_05MDNHABIA@Clear@ ; `initAcce'::`2'::functions
	DD	FLAT:?AcceClear@@YAPAU_object@@PAU1@0@Z
	DD	01H
	ORG $+4
	DD	FLAT:??_C@_0BB@JNNNKLPA@SendCloseRequest@
	DD	FLAT:?SendAcceCloseRequest@@YAPAU_object@@PAU1@0@Z
	DD	01H
	ORG $+4
	DD	FLAT:??_C@_03LDFMNCOE@Add@
	DD	FLAT:?SendAcceAdd@@YAPAU_object@@PAU1@0@Z
	DD	01H
	ORG $+4
	DD	FLAT:??_C@_06MEPBJJFP@Remove@
	DD	FLAT:?SendAcceRemove@@YAPAU_object@@PAU1@0@Z
	DD	01H
	ORG $+4
	DD	FLAT:??_C@_08LIIADGDC@GetPrice@
	DD	FLAT:?GetAccePrice@@YAPAU_object@@PAU1@0@Z
	DD	01H
	ORG $+4
	DD	FLAT:??_C@_0BA@HGMKPIDK@GetAttachedItem@
	DD	FLAT:?GetAcceAttachedItem@@YAPAU_object@@PAU1@0@Z
	DD	01H
	ORG $+4
	DD	FLAT:??_C@_0O@PHHGLLGO@GetResultItem@
	DD	FLAT:?GetAcceResultItem@@YAPAU_object@@PAU1@0@Z
	DD	01H
	ORG $+4
	DD	FLAT:??_C@_0BC@HOMOJNGO@SendRefineRequest@
	DD	FLAT:?SendAcceRefineRequest@@YAPAU_object@@PAU1@0@Z
	DD	01H
	ORG $+4
	DD	00H
	DD	00H
	DD	00H
	ORG $+4
_DATA	ENDS
;	COMDAT ??_7?$CSingleton@VCPythonAcce@@@@6B@
CONST	SEGMENT
??_7?$CSingleton@VCPythonAcce@@@@6B@ DD FLAT:??_R4?$CSingleton@VCPythonAcce@@@@6B@ ; CSingleton<CPythonAcce>::`vftable'
	DD	FLAT:??_E?$CSingleton@VCPythonAcce@@@@UAEPAXI@Z
CONST	ENDS
;	COMDAT ??_R4CPythonAcce@@6B@
rdata$r	SEGMENT
??_R4CPythonAcce@@6B@ DD 00H				; CPythonAcce::`RTTI Complete Object Locator'
	DD	00H
	DD	00H
	DD	FLAT:??_R0?AVCPythonAcce@@@8
	DD	FLAT:??_R3CPythonAcce@@8
rdata$r	ENDS
;	COMDAT ??_R4?$CSingleton@VCPythonAcce@@@@6B@
rdata$r	SEGMENT
??_R4?$CSingleton@VCPythonAcce@@@@6B@ DD 00H		; CSingleton<CPythonAcce>::`RTTI Complete Object Locator'
	DD	00H
	DD	00H
	DD	FLAT:??_R0?AV?$CSingleton@VCPythonAcce@@@@@8
	DD	FLAT:??_R3?$CSingleton@VCPythonAcce@@@@8
rdata$r	ENDS
;	COMDAT ??_R0?AVCPythonAcce@@@8
data$rs	SEGMENT
??_R0?AVCPythonAcce@@@8 DD FLAT:??_7type_info@@6B@	; CPythonAcce `RTTI Type Descriptor'
	DD	00H
	DB	'.?AVCPythonAcce@@', 00H
data$rs	ENDS
;	COMDAT ??_R3CPythonAcce@@8
rdata$r	SEGMENT
??_R3CPythonAcce@@8 DD 00H				; CPythonAcce::`RTTI Class Hierarchy Descriptor'
	DD	00H
	DD	02H
	DD	FLAT:??_R2CPythonAcce@@8
rdata$r	ENDS
;	COMDAT ??_R0?AV?$CSingleton@VCPythonAcce@@@@@8
data$rs	SEGMENT
??_R0?AV?$CSingleton@VCPythonAcce@@@@@8 DD FLAT:??_7type_info@@6B@ ; CSingleton<CPythonAcce> `RTTI Type Descriptor'
	DD	00H
	DB	'.?AV?$CSingleton@VCPythonAcce@@@@', 00H
data$rs	ENDS
;	COMDAT ??_R3?$CSingleton@VCPythonAcce@@@@8
rdata$r	SEGMENT
??_R3?$CSingleton@VCPythonAcce@@@@8 DD 00H		; CSingleton<CPythonAcce>::`RTTI Class Hierarchy Descriptor'
	DD	00H
	DD	01H
	DD	FLAT:??_R2?$CSingleton@VCPythonAcce@@@@8
rdata$r	ENDS
;	COMDAT ??_R1A@?0A@EA@?$CSingleton@VCPythonAcce@@@@8
rdata$r	SEGMENT
??_R1A@?0A@EA@?$CSingleton@VCPythonAcce@@@@8 DD FLAT:??_R0?AV?$CSingleton@VCPythonAcce@@@@@8 ; CSingleton<CPythonAcce>::`RTTI Base Class Descriptor at (0,-1,0,64)'
	DD	00H
	DD	00H
	DD	0ffffffffH
	DD	00H
	DD	040H
	DD	FLAT:??_R3?$CSingleton@VCPythonAcce@@@@8
rdata$r	ENDS
;	COMDAT ??_R1A@?0A@EA@CPythonAcce@@8
rdata$r	SEGMENT
??_R1A@?0A@EA@CPythonAcce@@8 DD FLAT:??_R0?AVCPythonAcce@@@8 ; CPythonAcce::`RTTI Base Class Descriptor at (0,-1,0,64)'
	DD	01H
	DD	00H
	DD	0ffffffffH
	DD	00H
	DD	040H
	DD	FLAT:??_R3CPythonAcce@@8
rdata$r	ENDS
;	COMDAT ??_R2?$CSingleton@VCPythonAcce@@@@8
rdata$r	SEGMENT
??_R2?$CSingleton@VCPythonAcce@@@@8 DD FLAT:??_R1A@?0A@EA@?$CSingleton@VCPythonAcce@@@@8 ; CSingleton<CPythonAcce>::`RTTI Base Class Array'
rdata$r	ENDS
;	COMDAT ??_R2CPythonAcce@@8
rdata$r	SEGMENT
??_R2CPythonAcce@@8 DD FLAT:??_R1A@?0A@EA@CPythonAcce@@8 ; CPythonAcce::`RTTI Base Class Array'
	DD	FLAT:??_R1A@?0A@EA@?$CSingleton@VCPythonAcce@@@@8
rdata$r	ENDS
;	COMDAT ??_C@_0BF@CIENGPJI@ACCE_REVERSAL_VNUM_2@
CONST	SEGMENT
??_C@_0BF@CIENGPJI@ACCE_REVERSAL_VNUM_2@ DB 'ACCE_REVERSAL_VNUM_2', 00H ; `string'
CONST	ENDS
;	COMDAT ??_C@_0BF@DGADMFL@ACCE_REVERSAL_VNUM_1@
CONST	SEGMENT
??_C@_0BF@DGADMFL@ACCE_REVERSAL_VNUM_1@ DB 'ACCE_REVERSAL_VNUM_1', 00H ; `string'
CONST	ENDS
;	COMDAT ??_C@_0M@KGAHGOKL@LIMIT_RANGE@
CONST	SEGMENT
??_C@_0M@KGAHGOKL@LIMIT_RANGE@ DB 'LIMIT_RANGE', 00H	; `string'
CONST	ENDS
;	COMDAT ??_C@_0BH@GIMJACMK@CLEAN_ATTR_VALUE_FIELD@
CONST	SEGMENT
??_C@_0BH@GIMJACMK@CLEAN_ATTR_VALUE_FIELD@ DB 'CLEAN_ATTR_VALUE_FIELD', 00H ; `string'
CONST	ENDS
;	COMDAT ??_C@_0BF@EEPIJCBJ@WINDOW_MAX_MATERIALS@
CONST	SEGMENT
??_C@_0BF@EEPIJCBJ@WINDOW_MAX_MATERIALS@ DB 'WINDOW_MAX_MATERIALS', 00H ; `string'
CONST	ENDS
;	COMDAT ??_C@_0BC@MMHEJGIM@CLEAN_ATTR_VALUE0@
CONST	SEGMENT
??_C@_0BC@MMHEJGIM@CLEAN_ATTR_VALUE0@ DB 'CLEAN_ATTR_VALUE0', 00H ; `string'
CONST	ENDS
;	COMDAT ??_C@_0BA@OMEMJIA@ABSORBED_SOCKET@
CONST	SEGMENT
??_C@_0BA@OMEMJIA@ABSORBED_SOCKET@ DB 'ABSORBED_SOCKET', 00H ; `string'
CONST	ENDS
;	COMDAT ??_C@_0BC@IECALNLB@ABSORPTION_SOCKET@
CONST	SEGMENT
??_C@_0BC@IECALNLB@ABSORPTION_SOCKET@ DB 'ABSORPTION_SOCKET', 00H ; `string'
CONST	ENDS
;	COMDAT ??_C@_04OGAHOEGJ@acce@
CONST	SEGMENT
??_C@_04OGAHOEGJ@acce@ DB 'acce', 00H			; `string'
CONST	ENDS
;	COMDAT ??_C@_0BC@HOMOJNGO@SendRefineRequest@
CONST	SEGMENT
??_C@_0BC@HOMOJNGO@SendRefineRequest@ DB 'SendRefineRequest', 00H ; `string'
CONST	ENDS
;	COMDAT ??_C@_0O@PHHGLLGO@GetResultItem@
CONST	SEGMENT
??_C@_0O@PHHGLLGO@GetResultItem@ DB 'GetResultItem', 00H ; `string'
CONST	ENDS
;	COMDAT ??_C@_0BA@HGMKPIDK@GetAttachedItem@
CONST	SEGMENT
??_C@_0BA@HGMKPIDK@GetAttachedItem@ DB 'GetAttachedItem', 00H ; `string'
CONST	ENDS
;	COMDAT ??_C@_08LIIADGDC@GetPrice@
CONST	SEGMENT
??_C@_08LIIADGDC@GetPrice@ DB 'GetPrice', 00H		; `string'
CONST	ENDS
;	COMDAT ??_C@_06MEPBJJFP@Remove@
CONST	SEGMENT
??_C@_06MEPBJJFP@Remove@ DB 'Remove', 00H		; `string'
CONST	ENDS
;	COMDAT ??_C@_03LDFMNCOE@Add@
CONST	SEGMENT
??_C@_03LDFMNCOE@Add@ DB 'Add', 00H			; `string'
CONST	ENDS
;	COMDAT ??_C@_0BB@JNNNKLPA@SendCloseRequest@
CONST	SEGMENT
??_C@_0BB@JNNNKLPA@SendCloseRequest@ DB 'SendCloseRequest', 00H ; `string'
CONST	ENDS
;	COMDAT ??_C@_05MDNHABIA@Clear@
CONST	SEGMENT
??_C@_05MDNHABIA@Clear@ DB 'Clear', 00H			; `string'
CONST	ENDS
;	COMDAT ??_C@_03GLKMLICL@iii@
CONST	SEGMENT
??_C@_03GLKMLICL@iii@ DB 'iii', 00H			; `string'
CONST	ENDS
;	COMDAT ??_C@_02PDIHAGKM@ii@
CONST	SEGMENT
??_C@_02PDIHAGKM@ii@ DB 'ii', 00H			; `string'
PUBLIC	??0SItemPos@@QAE@XZ				; SItemPos::SItemPos
PUBLIC	??$construct_at@USAcceMaterial@@U1@@std@@YAPAUSAcceMaterial@@QAU1@$$QAU1@@Z ; std::construct_at<SAcceMaterial,SAcceMaterial>
PUBLIC	?_Get_first@?$_Compressed_pair@V?$allocator@USAcceMaterial@@@std@@V?$_Vector_val@U?$_Simple_types@USAcceMaterial@@@std@@@2@$00@std@@QBEABV?$allocator@USAcceMaterial@@@2@XZ ; std::_Compressed_pair<std::allocator<SAcceMaterial>,std::_Vector_val<std::_Simple_types<SAcceMaterial> >,1>::_Get_first
PUBLIC	??$_Get_size_of_n@$02@std@@YAII@Z		; std::_Get_size_of_n<3>
PUBLIC	??$construct_at@USAcceMaterial@@$$V@std@@YAPAUSAcceMaterial@@QAU1@@Z ; std::construct_at<SAcceMaterial>
PUBLIC	??$construct@USAcceMaterial@@U1@@?$_Default_allocator_traits@V?$allocator@USAcceMaterial@@@std@@@std@@SAXAAV?$allocator@USAcceMaterial@@@1@QAUSAcceMaterial@@$$QAU3@@Z ; std::_Default_allocator_traits<std::allocator<SAcceMaterial> >::construct<SAcceMaterial,SAcceMaterial>
PUBLIC	??$forward@USAcceMaterial@@@std@@YA$$QAUSAcceMaterial@@AAU1@@Z ; std::forward<SAcceMaterial>
PUBLIC	??$_Copy_memmove_tail@PAUSAcceMaterial@@@std@@YAPAUSAcceMaterial@@QBDQAU1@II@Z ; std::_Copy_memmove_tail<SAcceMaterial *>
PUBLIC	??$move@AAPAUSAcceMaterial@@@std@@YA$$QAPAUSAcceMaterial@@AAPAU1@@Z ; std::move<SAcceMaterial * &>
PUBLIC	??$to_address@USAcceMaterial@@@std@@YAPAUSAcceMaterial@@QAU1@@Z ; std::to_address<SAcceMaterial>
PUBLIC	?allocate@?$allocator@USAcceMaterial@@@std@@QAEPAUSAcceMaterial@@I@Z ; std::allocator<SAcceMaterial>::allocate
PUBLIC	?capacity@?$vector@USAcceMaterial@@V?$allocator@USAcceMaterial@@@std@@@std@@QBEIXZ ; std::vector<SAcceMaterial,std::allocator<SAcceMaterial> >::capacity
PUBLIC	?_Getal@?$vector@USAcceMaterial@@V?$allocator@USAcceMaterial@@@std@@@std@@ABEABV?$allocator@USAcceMaterial@@@2@XZ ; std::vector<SAcceMaterial,std::allocator<SAcceMaterial> >::_Getal
PUBLIC	?max_size@?$_Default_allocator_traits@V?$allocator@USAcceMaterial@@@std@@@std@@SAIABV?$allocator@USAcceMaterial@@@2@@Z ; std::_Default_allocator_traits<std::allocator<SAcceMaterial> >::max_size
PUBLIC	??$construct@USAcceMaterial@@$$V@?$_Default_allocator_traits@V?$allocator@USAcceMaterial@@@std@@@std@@SAXAAV?$allocator@USAcceMaterial@@@1@QAUSAcceMaterial@@@Z ; std::_Default_allocator_traits<std::allocator<SAcceMaterial> >::construct<SAcceMaterial>
PUBLIC	??$_Emplace_back@USAcceMaterial@@@?$_Uninitialized_backout_al@V?$allocator@USAcceMaterial@@@std@@@std@@QAEX$$QAUSAcceMaterial@@@Z ; std::_Uninitialized_backout_al<std::allocator<SAcceMaterial> >::_Emplace_back<SAcceMaterial>
PUBLIC	??$_To_address@PAUSAcceMaterial@@@std@@YA?A_PABQAUSAcceMaterial@@@Z ; std::_To_address<SAcceMaterial *>
PUBLIC	??$_Copy_memmove@PAUSAcceMaterial@@PAU1@@std@@YAPAUSAcceMaterial@@PAU1@00@Z ; std::_Copy_memmove<SAcceMaterial *,SAcceMaterial *>
PUBLIC	??$_Unfancy@USAcceMaterial@@@std@@YAPAUSAcceMaterial@@PAU1@@Z ; std::_Unfancy<SAcceMaterial>
PUBLIC	??$move@AAUSAcceMaterial@@@std@@YA$$QAUSAcceMaterial@@AAU1@@Z ; std::move<SAcceMaterial &>
PUBLIC	?max_size@?$vector@USAcceMaterial@@V?$allocator@USAcceMaterial@@@std@@@std@@QBEIXZ ; std::vector<SAcceMaterial,std::allocator<SAcceMaterial> >::max_size
PUBLIC	?_Calculate_growth@?$vector@USAcceMaterial@@V?$allocator@USAcceMaterial@@@std@@@std@@ABEII@Z ; std::vector<SAcceMaterial,std::allocator<SAcceMaterial> >::_Calculate_growth
PUBLIC	?_Change_array@?$vector@USAcceMaterial@@V?$allocator@USAcceMaterial@@@std@@@std@@AAEXQAUSAcceMaterial@@II@Z ; std::vector<SAcceMaterial,std::allocator<SAcceMaterial> >::_Change_array
PUBLIC	?_Xlength@?$vector@USAcceMaterial@@V?$allocator@USAcceMaterial@@@std@@@std@@CAXXZ ; std::vector<SAcceMaterial,std::allocator<SAcceMaterial> >::_Xlength
PUBLIC	??1_Reallocation_guard@?$vector@USAcceMaterial@@V?$allocator@USAcceMaterial@@@std@@@std@@QAE@XZ ; std::vector<SAcceMaterial,std::allocator<SAcceMaterial> >::_Reallocation_guard::~_Reallocation_guard
PUBLIC	??0?$_Uninitialized_backout_al@V?$allocator@USAcceMaterial@@@std@@@std@@QAE@PAUSAcceMaterial@@AAV?$allocator@USAcceMaterial@@@1@@Z ; std::_Uninitialized_backout_al<std::allocator<SAcceMaterial> >::_Uninitialized_backout_al<std::allocator<SAcceMaterial> >
PUBLIC	??1?$_Uninitialized_backout_al@V?$allocator@USAcceMaterial@@@std@@@std@@QAE@XZ ; std::_Uninitialized_backout_al<std::allocator<SAcceMaterial> >::~_Uninitialized_backout_al<std::allocator<SAcceMaterial> >
PUBLIC	?_Release@?$_Uninitialized_backout_al@V?$allocator@USAcceMaterial@@@std@@@std@@QAEPAUSAcceMaterial@@XZ ; std::_Uninitialized_backout_al<std::allocator<SAcceMaterial> >::_Release
PUBLIC	??$_Emplace_back@$$V@?$_Uninitialized_backout_al@V?$allocator@USAcceMaterial@@@std@@@std@@QAEXXZ ; std::_Uninitialized_backout_al<std::allocator<SAcceMaterial> >::_Emplace_back<>
PUBLIC	??$_Uninitialized_move@PAUSAcceMaterial@@V?$allocator@USAcceMaterial@@@std@@@std@@YAPAUSAcceMaterial@@QAU1@0PAU1@AAV?$allocator@USAcceMaterial@@@0@@Z ; std::_Uninitialized_move<SAcceMaterial *,std::allocator<SAcceMaterial> >
PUBLIC	??$_Get_unwrapped@ABQAUSAcceMaterial@@@std@@YA?A_TABQAUSAcceMaterial@@@Z ; std::_Get_unwrapped<SAcceMaterial * const &>
PUBLIC	??$_Allocate_at_least_helper@V?$allocator@USAcceMaterial@@@std@@@std@@YAPAUSAcceMaterial@@AAV?$allocator@USAcceMaterial@@@0@AAI@Z ; std::_Allocate_at_least_helper<std::allocator<SAcceMaterial> >
PUBLIC	??0?$allocator@USAcceMaterial@@@std@@QAE@XZ	; std::allocator<SAcceMaterial>::allocator<SAcceMaterial>
PUBLIC	?deallocate@?$allocator@USAcceMaterial@@@std@@QAEXQAUSAcceMaterial@@I@Z ; std::allocator<SAcceMaterial>::deallocate
PUBLIC	?_Orphan_range@?$vector@USAcceMaterial@@V?$allocator@USAcceMaterial@@@std@@@std@@ABEXPAUSAcceMaterial@@0@Z ; std::vector<SAcceMaterial,std::allocator<SAcceMaterial> >::_Orphan_range
PUBLIC	??0?$_Vector_val@U?$_Simple_types@USAcceMaterial@@@std@@@std@@QAE@XZ ; std::_Vector_val<std::_Simple_types<SAcceMaterial> >::_Vector_val<std::_Simple_types<SAcceMaterial> >
PUBLIC	?_Get_first@?$_Compressed_pair@V?$allocator@USAcceMaterial@@@std@@V?$_Vector_val@U?$_Simple_types@USAcceMaterial@@@std@@@2@$00@std@@QAEAAV?$allocator@USAcceMaterial@@@2@XZ ; std::_Compressed_pair<std::allocator<SAcceMaterial>,std::_Vector_val<std::_Simple_types<SAcceMaterial> >,1>::_Get_first
PUBLIC	??$_Uninitialized_value_construct_n@V?$allocator@USAcceMaterial@@@std@@@std@@YAPAUSAcceMaterial@@PAU1@IAAV?$allocator@USAcceMaterial@@@0@@Z ; std::_Uninitialized_value_construct_n<std::allocator<SAcceMaterial> >
PUBLIC	??$_Resize_reallocate@U_Value_init_tag@std@@@?$vector@USAcceMaterial@@V?$allocator@USAcceMaterial@@@std@@@std@@AAEXIABU_Value_init_tag@1@@Z ; std::vector<SAcceMaterial,std::allocator<SAcceMaterial> >::_Resize_reallocate<std::_Value_init_tag>
PUBLIC	?_Tidy@?$vector@USAcceMaterial@@V?$allocator@USAcceMaterial@@@std@@@std@@AAEXXZ ; std::vector<SAcceMaterial,std::allocator<SAcceMaterial> >::_Tidy
PUBLIC	?_Getal@?$vector@USAcceMaterial@@V?$allocator@USAcceMaterial@@@std@@@std@@AAEAAV?$allocator@USAcceMaterial@@@2@XZ ; std::vector<SAcceMaterial,std::allocator<SAcceMaterial> >::_Getal
PUBLIC	??$?0$$V@?$_Compressed_pair@V?$allocator@USAcceMaterial@@@std@@V?$_Vector_val@U?$_Simple_types@USAcceMaterial@@@std@@@2@$00@std@@QAE@U_Zero_then_variadic_args_t@1@@Z ; std::_Compressed_pair<std::allocator<SAcceMaterial>,std::_Vector_val<std::_Simple_types<SAcceMaterial> >,1>::_Compressed_pair<std::allocator<SAcceMaterial>,std::_Vector_val<std::_Simple_types<SAcceMaterial> >,1><>
PUBLIC	??$_Resize@U_Value_init_tag@std@@@?$vector@USAcceMaterial@@V?$allocator@USAcceMaterial@@@std@@@std@@AAEXIABU_Value_init_tag@1@@Z ; std::vector<SAcceMaterial,std::allocator<SAcceMaterial> >::_Resize<std::_Value_init_tag>
PUBLIC	??$_Destroy_range@V?$allocator@USAcceMaterial@@@std@@@std@@YAXPAUSAcceMaterial@@QAU1@AAV?$allocator@USAcceMaterial@@@0@@Z ; std::_Destroy_range<std::allocator<SAcceMaterial> >
PUBLIC	??$_Unfancy_maybe_null@USAcceMaterial@@@std@@YAPAUSAcceMaterial@@PAU1@@Z ; std::_Unfancy_maybe_null<SAcceMaterial>
PUBLIC	??_G?$CSingleton@VCPythonAcce@@@@UAEPAXI@Z	; CSingleton<CPythonAcce>::`scalar deleting destructor'
PUBLIC	??0?$CSingleton@VCPythonAcce@@@@QAE@XZ		; CSingleton<CPythonAcce>::CSingleton<CPythonAcce>
PUBLIC	??1?$CSingleton@VCPythonAcce@@@@UAE@XZ		; CSingleton<CPythonAcce>::~CSingleton<CPythonAcce>
PUBLIC	?Instance@?$CSingleton@VCPythonAcce@@@@SAAAVCPythonAcce@@XZ ; CSingleton<CPythonAcce>::Instance
PUBLIC	??0?$vector@USAcceMaterial@@V?$allocator@USAcceMaterial@@@std@@@std@@QAE@XZ ; std::vector<SAcceMaterial,std::allocator<SAcceMaterial> >::vector<SAcceMaterial,std::allocator<SAcceMaterial> >
PUBLIC	??1?$vector@USAcceMaterial@@V?$allocator@USAcceMaterial@@@std@@@std@@QAE@XZ ; std::vector<SAcceMaterial,std::allocator<SAcceMaterial> >::~vector<SAcceMaterial,std::allocator<SAcceMaterial> >
PUBLIC	?resize@?$vector@USAcceMaterial@@V?$allocator@USAcceMaterial@@@std@@@std@@QAEXI@Z ; std::vector<SAcceMaterial,std::allocator<SAcceMaterial> >::resize
PUBLIC	?clear@?$vector@USAcceMaterial@@V?$allocator@USAcceMaterial@@@std@@@std@@QAEXXZ ; std::vector<SAcceMaterial,std::allocator<SAcceMaterial> >::clear
PUBLIC	?data@?$vector@USAcceMaterial@@V?$allocator@USAcceMaterial@@@std@@@std@@QAEPAUSAcceMaterial@@XZ ; std::vector<SAcceMaterial,std::allocator<SAcceMaterial> >::data
PUBLIC	?size@?$vector@USAcceMaterial@@V?$allocator@USAcceMaterial@@@std@@@std@@QBEIXZ ; std::vector<SAcceMaterial,std::allocator<SAcceMaterial> >::size
PUBLIC	??A?$vector@USAcceMaterial@@V?$allocator@USAcceMaterial@@@std@@@std@@QAEAAUSAcceMaterial@@I@Z ; std::vector<SAcceMaterial,std::allocator<SAcceMaterial> >::operator[]
PUBLIC	?initAcce@@YAXXZ				; initAcce
PUBLIC	?SendAcceRefineRequest@@YAPAU_object@@PAU1@0@Z	; SendAcceRefineRequest
PUBLIC	?GetAcceResultItem@@YAPAU_object@@PAU1@0@Z	; GetAcceResultItem
PUBLIC	?GetAcceAttachedItem@@YAPAU_object@@PAU1@0@Z	; GetAcceAttachedItem
PUBLIC	?GetAccePrice@@YAPAU_object@@PAU1@0@Z		; GetAccePrice
PUBLIC	?SendAcceRemove@@YAPAU_object@@PAU1@0@Z		; SendAcceRemove
PUBLIC	?SendAcceAdd@@YAPAU_object@@PAU1@0@Z		; SendAcceAdd
PUBLIC	?AcceClear@@YAPAU_object@@PAU1@0@Z		; AcceClear
PUBLIC	?SendAcceCloseRequest@@YAPAU_object@@PAU1@0@Z	; SendAcceCloseRequest
PUBLIC	?GetResultItem@CPythonAcce@@QAEXAAK00@Z		; CPythonAcce::GetResultItem
PUBLIC	?GetAttachedItem@CPythonAcce@@QAE_NEAAEAAG@Z	; CPythonAcce::GetAttachedItem
PUBLIC	?RemoveMaterial@CPythonAcce@@QAEX_JE@Z		; CPythonAcce::RemoveMaterial
PUBLIC	?AddResult@CPythonAcce@@QAEXKKK@Z		; CPythonAcce::AddResult
PUBLIC	?AddMaterial@CPythonAcce@@QAEX_JEUSItemPos@@@Z	; CPythonAcce::AddMaterial
PUBLIC	?Clear@CPythonAcce@@QAEXXZ			; CPythonAcce::Clear
PUBLIC	??1CPythonAcce@@UAE@XZ				; CPythonAcce::~CPythonAcce
PUBLIC	??_GCPythonAcce@@UAEPAXI@Z			; CPythonAcce::`scalar deleting destructor'
PUBLIC	??0CPythonAcce@@QAE@XZ				; CPythonAcce::CPythonAcce
PUBLIC	?GetPrice@CPythonAcce@@QAE_JXZ			; CPythonAcce::GetPrice
EXTRN	??_ECPythonAcce@@UAEPAXI@Z:PROC			; CPythonAcce::`vector deleting destructor'
EXTRN	??_E?$CSingleton@VCPythonAcce@@@@UAEPAXI@Z:PROC	; CSingleton<CPythonAcce>::`vector deleting destructor'
;	COMDAT xdata$x
xdata$x	SEGMENT
__ehfuncinfo$??0CPythonAcce@@QAE@XZ DQ 00000000219930522r ; 4.45598e-314
	DD	FLAT:__unwindtable$??0CPythonAcce@@QAE@XZ
	DQ	00000000000000000r		; 0
	DQ	00000000000000000r		; 0
	DQ	00000000100000000r		; 2.122e-314
__unwindtable$??0CPythonAcce@@QAE@XZ DD 0ffffffffH
	DD	FLAT:__unwindfunclet$??0CPythonAcce@@QAE@XZ$0
	DD	00H
	DD	FLAT:__unwindfunclet$??0CPythonAcce@@QAE@XZ$1
xdata$x	ENDS
;	COMDAT xdata$x
xdata$x	SEGMENT
__ehfuncinfo$??1CPythonAcce@@UAE@XZ DQ 00000000019930522r ; 2.11987e-315
	DQ	00000000000000000r		; 0
	DQ	00000000000000000r		; 0
	DQ	00000000000000000r		; 0
	DD	05H
END
