; Listing generated by Microsoft (R) Optimizing Compiler Version 19.44.35219.0 

	TITLE	c:\anka2project\anka2project\source\binary\vs_files\userinterface\release\pythonshop.obj
	.686P
	.XMM
	include listing.inc
	.model	flat

INCLUDELIB OLDNAMES

PUBLIC	??_C@_0FC@PFANBFHB@Out?5of?5Index?4?5tabIdx?$CI?$CFd?$CJ?5must?5b@ ; `string'
PUBLIC	??_C@_0CP@FJEENICJ@Out?5of?5Index?4?5tabIdx?$CI?$CFd?$CJ?5must?5b@ ; `string'
PUBLIC	??_C@_01OCOKONAJ@L@				; `string'
PUBLIC	??_C@_04OKGDLNCL@NONE@				; `string'
PUBLIC	??_C@_06DKEIEPKC@IsOpen@			; `string'
PUBLIC	??_C@_04DNCDCIAE@Open@				; `string'
PUBLIC	??_C@_0BI@HHPKCPJD@IsMainPlayerPrivateShop@	; `string'
PUBLIC	??_C@_0O@EDCBOPPA@IsPrivateShop@		; `string'
PUBLIC	??_C@_0M@PGHDAHMM@GetTabCount@			; `string'
PUBLIC	??_C@_0N@OIFMMAOE@GetItemPrice@			; `string'
PUBLIC	??_C@_0P@CFALBIIJ@GetTabCoinType@		; `string'
PUBLIC	??_C@_0L@HEMHLKHB@GetTabName@			; `string'
PUBLIC	??_C@_0BB@JOKODNDH@GetItemPriceVnum@		; `string'
PUBLIC	??_C@_0BB@OHLCEJJC@GetItemPriceType@		; `string'
PUBLIC	??_C@_0BI@JLNKJOOM@AddPrivateShopItemStock@	; `string'
PUBLIC	??_C@_0BG@BMKKEDKK@ClearPrivateShopStock@	; `string'
PUBLIC	??_C@_0BI@KLFPJJHF@GetPrivateShopItemPrice@	; `string'
PUBLIC	??_C@_0BI@FBMJKJEA@DelPrivateShopItemStock@	; `string'
PUBLIC	??_C@_0CA@JPBLMNKD@GetOfflineShopItemTransmutation@ ; `string'
PUBLIC	??_C@_0BB@MDMPBIAN@BuildPrivateShop@		; `string'
PUBLIC	??_C@_0BF@BLIEEIGK@GetOfflineShopItemID@	; `string'
PUBLIC	??_C@_0O@PLCMGBGD@IsOfflineShop@		; `string'
PUBLIC	??_C@_0BH@EIEDKBFD@GetOfflineShopItemVnum@	; `string'
PUBLIC	??_C@_0BI@NFEEPLNM@GetOfflineShopItemCount@	; `string'
PUBLIC	??_C@_0BO@HEAPKDCE@GetOfflineShopItemMetinSocket@ ; `string'
PUBLIC	??_C@_0BI@IJLIIALO@GetOfflineShopItemPrice@	; `string'
PUBLIC	??_C@_07HPMDFBOJ@GetSign@			; `string'
PUBLIC	??_C@_0BM@LKCCPGFH@GetOfflineShopItemAttribute@	; `string'
PUBLIC	??_C@_0BI@LJDNIHCH@AddOfflineShopItemStock@	; `string'
PUBLIC	??_C@_0BG@KDEOGIIB@ClearOfflineShopStock@	; `string'
PUBLIC	??_C@_0BM@GKJGCDDL@GetOfflineShopItemPriceReal@	; `string'
PUBLIC	??_C@_0BI@HDCOLAIL@DelOfflineShopItemStock@	; `string'
PUBLIC	??_C@_0BM@NOLOIGOM@GetOfflineShopItemBuyerName@	; `string'
PUBLIC	??_C@_0BJ@COGLHCCJ@GetOfflineShopItemStatus@	; `string'
PUBLIC	??_C@_0BC@BGGPLLFN@GetDisplayedCount@		; `string'
PUBLIC	??_C@_0BB@HLMCJGJO@BuildOfflineShop@		; `string'
PUBLIC	??_C@_0BL@KFFFJEDN@GetCurrentOfflineShopMoney@	; `string'
PUBLIC	??_C@_0BB@OMKHKKDA@GetOfflineShopID@		; `string'
PUBLIC	??_C@_0BE@EDLJNLOK@GetRealWatcherCount@		; `string'
PUBLIC	??_C@_0P@GALMKFH@HasOfflineShop@		; `string'
PUBLIC	??_C@_0M@OFBHDGCC@GetShopFlag@			; `string'
PUBLIC	??_C@_0BB@HKMACCCG@ChangeDecoration@		; `string'
PUBLIC	??_C@_0M@LHCCPOKI@GetShopType@			; `string'
PUBLIC	??_C@_0M@OKAJOAKB@SetShopFlag@			; `string'
PUBLIC	??_C@_0M@PDMFJJBE@GetShopTime@			; `string'
PUBLIC	??_C@_0M@LIDMCICL@SetShopType@			; `string'
PUBLIC	??_C@_04BFIJLIPK@shop@				; `string'
PUBLIC	??_C@_0M@PMNLEPJH@SetShopTime@			; `string'
PUBLIC	??_C@_0BE@FOBHCAAH@SHOP_COIN_TYPE_GOLD@		; `string'
PUBLIC	??_C@_0BA@MMIAEKCC@SHOP_SLOT_COUNT@		; `string'
PUBLIC	??_C@_0M@PGAJLHHB@SHOPEX_GOLD@			; `string'
PUBLIC	??_C@_0BO@GEPHLMDC@SHOP_COIN_TYPE_SECONDARY_COIN@ ; `string'
PUBLIC	??_C@_0M@BADCFJEI@SHOPEX_ITEM@			; `string'
PUBLIC	??_C@_0N@BHLKHBHI@SHOPEX_COINS@			; `string'
PUBLIC	??_C@_0L@IKKNLFGH@SHOPEX_MAX@			; `string'
PUBLIC	??_C@_0L@JEDHIPHP@SHOPEX_EXP@			; `string'
PUBLIC	??_C@_0BI@BDLFABJN@OFFLINE_SHOP_SLOT_COUNT@	; `string'
PUBLIC	??_R2CPythonShop@@8				; CPythonShop::`RTTI Base Class Array'
PUBLIC	??_R2?$CSingleton@VCPythonShop@@@@8		; CSingleton<CPythonShop>::`RTTI Base Class Array'
PUBLIC	??_R1A@?0A@EA@CPythonShop@@8			; CPythonShop::`RTTI Base Class Descriptor at (0,-1,0,64)'
PUBLIC	??_R1A@?0A@EA@?$CSingleton@VCPythonShop@@@@8	; CSingleton<CPythonShop>::`RTTI Base Class Descriptor at (0,-1,0,64)'
PUBLIC	??_R0?AV?$CSingleton@VCPythonShop@@@@@8		; CSingleton<CPythonShop> `RTTI Type Descriptor'
PUBLIC	??_R3?$CSingleton@VCPythonShop@@@@8		; CSingleton<CPythonShop>::`RTTI Class Hierarchy Descriptor'
PUBLIC	??_R0?AVCPythonShop@@@8				; CPythonShop `RTTI Type Descriptor'
PUBLIC	??_R3CPythonShop@@8				; CPythonShop::`RTTI Class Hierarchy Descriptor'
PUBLIC	??_R4CPythonShop@@6B@				; CPythonShop::`RTTI Complete Object Locator'
PUBLIC	??_R4?$CSingleton@VCPythonShop@@@@6B@		; CSingleton<CPythonShop>::`RTTI Complete Object Locator'
PUBLIC	??_7?$CSingleton@VCPythonShop@@@@6B@		; CSingleton<CPythonShop>::`vftable'
PUBLIC	??_7CPythonShop@@6B@				; CPythonShop::`vftable'
;	COMDAT ??_7CPythonShop@@6B@
CONST	SEGMENT
??_7CPythonShop@@6B@ DD FLAT:??_R4CPythonShop@@6B@	; CPythonShop::`vftable'
	DD	FLAT:??_ECPythonShop@@UAEPAXI@Z
CONST	ENDS
;	COMDAT ?s_methods@?1??initshop@@YAXXZ@4PAUPyMethodDef@@A
_DATA	SEGMENT
?s_methods@?1??initshop@@YAXXZ@4PAUPyMethodDef@@A DD FLAT:??_C@_04DNCDCIAE@Open@ ; `initshop'::`2'::s_methods
	DD	FLAT:?shopOpen@@YAPAU_object@@PAU1@0@Z
	DD	01H
	ORG $+4
	DD	FLAT:??_C@_05LGELBCGM@Close@
	DD	FLAT:?shopClose@@YAPAU_object@@PAU1@0@Z
	DD	01H
	ORG $+4
	DD	FLAT:??_C@_05MDNHABIA@Clear@
	DD	FLAT:?shopClear@@YAPAU_object@@PAU1@0@Z
	DD	01H
	ORG $+4
	DD	FLAT:??_C@_06DKEIEPKC@IsOpen@
	DD	FLAT:?shopIsOpen@@YAPAU_object@@PAU1@0@Z
	DD	01H
	ORG $+4
	DD	FLAT:??_C@_0O@EDCBOPPA@IsPrivateShop@
	DD	FLAT:?shopIsPrviateShop@@YAPAU_object@@PAU1@0@Z
	DD	01H
	ORG $+4
	DD	FLAT:??_C@_0BI@HHPKCPJD@IsMainPlayerPrivateShop@
	DD	FLAT:?shopIsMainPlayerPrivateShop@@YAPAU_object@@PAU1@0@Z
	DD	01H
	ORG $+4
	DD	FLAT:??_C@_09GMBNEEAB@GetItemID@
	DD	FLAT:?shopGetItemID@@YAPAU_object@@PAU1@0@Z
	DD	01H
	ORG $+4
	DD	FLAT:??_C@_0N@LEKALLIG@GetItemCount@
	DD	FLAT:?shopGetItemCount@@YAPAU_object@@PAU1@0@Z
	DD	01H
	ORG $+4
	DD	FLAT:??_C@_0N@OIFMMAOE@GetItemPrice@
	DD	FLAT:?shopGetItemPrice@@YAPAU_object@@PAU1@0@Z
	DD	01H
	ORG $+4
	DD	FLAT:??_C@_0BD@JBOBKHIE@GetItemMetinSocket@
	DD	FLAT:?shopGetItemMetinSocket@@YAPAU_object@@PAU1@0@Z
	DD	01H
	ORG $+4
	DD	FLAT:??_C@_0BB@GOKPPDHH@GetItemAttribute@
	DD	FLAT:?shopGetItemAttribute@@YAPAU_object@@PAU1@0@Z
	DD	01H
	ORG $+4
	DD	FLAT:??_C@_0M@PGHDAHMM@GetTabCount@
	DD	FLAT:?shopGetTabCount@@YAPAU_object@@PAU1@0@Z
	DD	01H
	ORG $+4
	DD	FLAT:??_C@_0L@HEMHLKHB@GetTabName@
	DD	FLAT:?shopGetTabName@@YAPAU_object@@PAU1@0@Z
	DD	01H
	ORG $+4
	DD	FLAT:??_C@_0P@CFALBIIJ@GetTabCoinType@
	DD	FLAT:?shopGetTabCoinType@@YAPAU_object@@PAU1@0@Z
	DD	01H
	ORG $+4
	DD	FLAT:??_C@_0BB@OHLCEJJC@GetItemPriceType@
	DD	FLAT:?shopGetItemPriceType@@YAPAU_object@@PAU1@0@Z
	DD	01H
	ORG $+4
	DD	FLAT:??_C@_0BB@JOKODNDH@GetItemPriceVnum@
	DD	FLAT:?shopGetItemPriceVnum@@YAPAU_object@@PAU1@0@Z
	DD	01H
	ORG $+4
	DD	FLAT:??_C@_0BG@BMKKEDKK@ClearPrivateShopStock@
	DD	FLAT:?shopClearPrivateShopStock@@YAPAU_object@@PAU1@0@Z
	DD	01H
	ORG $+4
	DD	FLAT:??_C@_0BI@JLNKJOOM@AddPrivateShopItemStock@
	DD	FLAT:?shopAddPrivateShopItemStock@@YAPAU_object@@PAU1@0@Z
	DD	01H
	ORG $+4
	DD	FLAT:??_C@_0BI@FBMJKJEA@DelPrivateShopItemStock@
	DD	FLAT:?shopDelPrivateShopItemStock@@YAPAU_object@@PAU1@0@Z
	DD	01H
	ORG $+4
	DD	FLAT:??_C@_0BI@KLFPJJHF@GetPrivateShopItemPrice@
	DD	FLAT:?shopGetPrivateShopItemPrice@@YAPAU_object@@PAU1@0@Z
	DD	01H
	ORG $+4
	DD	FLAT:??_C@_0BB@MDMPBIAN@BuildPrivateShop@
	DD	FLAT:?shopBuildPrivateShop@@YAPAU_object@@PAU1@0@Z
	DD	01H
	ORG $+4
	DD	FLAT:??_C@_0CA@JPBLMNKD@GetOfflineShopItemTransmutation@
	DD	FLAT:?shopGetOfflineShopItemTransmutation@@YAPAU_object@@PAU1@0@Z
	DD	01H
	ORG $+4
	DD	FLAT:??_C@_0O@PLCMGBGD@IsOfflineShop@
	DD	FLAT:?shopIsOfflineShop@@YAPAU_object@@PAU1@0@Z
	DD	01H
	ORG $+4
	DD	FLAT:??_C@_0BF@BLIEEIGK@GetOfflineShopItemID@
	DD	FLAT:?shopGetOfflineShopItemID@@YAPAU_object@@PAU1@0@Z
	DD	01H
	ORG $+4
	DD	FLAT:??_C@_0BI@NFEEPLNM@GetOfflineShopItemCount@
	DD	FLAT:?shopGetOfflineShopItemCount@@YAPAU_object@@PAU1@0@Z
	DD	01H
	ORG $+4
	DD	FLAT:??_C@_0BH@EIEDKBFD@GetOfflineShopItemVnum@
	DD	FLAT:?shopGetOfflineShopItemVnum@@YAPAU_object@@PAU1@0@Z
	DD	01H
	ORG $+4
	DD	FLAT:??_C@_0BI@IJLIIALO@GetOfflineShopItemPrice@
	DD	FLAT:?shopGetOfflineShopItemPrice@@YAPAU_object@@PAU1@0@Z
	DD	01H
	ORG $+4
	DD	FLAT:??_C@_0BO@HEAPKDCE@GetOfflineShopItemMetinSocket@
	DD	FLAT:?shopGetOfflineShopItemMetinSocket@@YAPAU_object@@PAU1@0@Z
	DD	01H
	ORG $+4
	DD	FLAT:??_C@_0BM@LKCCPGFH@GetOfflineShopItemAttribute@
	DD	FLAT:?shopGetOfflineShopItemAttribute@@YAPAU_object@@PAU1@0@Z
	DD	01H
	ORG $+4
	DD	FLAT:??_C@_07HPMDFBOJ@GetSign@
	DD	FLAT:?shopGetSign@@YAPAU_object@@PAU1@0@Z
	DD	01H
	ORG $+4
	DD	FLAT:??_C@_0BG@KDEOGIIB@ClearOfflineShopStock@
	DD	FLAT:?shopClearOfflineShopStock@@YAPAU_object@@PAU1@0@Z
	DD	01H
	ORG $+4
	DD	FLAT:??_C@_0BI@LJDNIHCH@AddOfflineShopItemStock@
	DD	FLAT:?shopAddOfflineShopItemStock@@YAPAU_object@@PAU1@0@Z
	DD	01H
	ORG $+4
	DD	FLAT:??_C@_0BI@HDCOLAIL@DelOfflineShopItemStock@
	DD	FLAT:?shopDelOfflineShopItemStock@@YAPAU_object@@PAU1@0@Z
	DD	01H
	ORG $+4
	DD	FLAT:??_C@_0BM@GKJGCDDL@GetOfflineShopItemPriceReal@
	DD	FLAT:?shopGetOfflineShopItemPriceReal@@YAPAU_object@@PAU1@0@Z
	DD	01H
	ORG $+4
	DD	FLAT:??_C@_0BJ@COGLHCCJ@GetOfflineShopItemStatus@
	DD	FLAT:?shopGetOfflineShopItemGetStatus@@YAPAU_object@@PAU1@0@Z
	DD	01H
	ORG $+4
	DD	FLAT:??_C@_0BM@NOLOIGOM@GetOfflineShopItemBuyerName@
	DD	FLAT:?shopGetOfflineShopItemGetBuyerName@@YAPAU_object@@PAU1@0@Z
	DD	01H
	ORG $+4
	DD	FLAT:??_C@_0BB@HLMCJGJO@BuildOfflineShop@
	DD	FLAT:?shopBuildOfflineShop@@YAPAU_object@@PAU1@0@Z
	DD	01H
	ORG $+4
	DD	FLAT:??_C@_0BC@BGGPLLFN@GetDisplayedCount@
	DD	FLAT:?shopGetDisplayedCount@@YAPAU_object@@PAU1@0@Z
	DD	01H
	ORG $+4
	DD	FLAT:??_C@_0BB@OMKHKKDA@GetOfflineShopID@
	DD	FLAT:?shopGetOfflineShopID@@YAPAU_object@@PAU1@0@Z
	DD	01H
	ORG $+4
	DD	FLAT:??_C@_0BL@KFFFJEDN@GetCurrentOfflineShopMoney@
	DD	FLAT:?shopGetCurrentOfflineShopMoney@@YAPAU_object@@PAU1@0@Z
	DD	01H
	ORG $+4
	DD	FLAT:??_C@_0P@GALMKFH@HasOfflineShop@
	DD	FLAT:?shopHasOfflineShop@@YAPAU_object@@PAU1@0@Z
	DD	01H
	ORG $+4
	DD	FLAT:??_C@_0BE@EDLJNLOK@GetRealWatcherCount@
	DD	FLAT:?shopGetRealWatcherCount@@YAPAU_object@@PAU1@0@Z
	DD	01H
	ORG $+4
	DD	FLAT:??_C@_0BB@HKMACCCG@ChangeDecoration@
	DD	FLAT:?shopChangeDecoration@@YAPAU_object@@PAU1@0@Z
	DD	01H
	ORG $+4
	DD	FLAT:??_C@_0M@OFBHDGCC@GetShopFlag@
	DD	FLAT:?shopGetShopFlag@@YAPAU_object@@PAU1@0@Z
	DD	01H
	ORG $+4
	DD	FLAT:??_C@_0M@OKAJOAKB@SetShopFlag@
	DD	FLAT:?shopSetShopFlag@@YAPAU_object@@PAU1@0@Z
	DD	01H
	ORG $+4
	DD	FLAT:??_C@_0M@LHCCPOKI@GetShopType@
	DD	FLAT:?shopGetShopType@@YAPAU_object@@PAU1@0@Z
	DD	01H
	ORG $+4
	DD	FLAT:??_C@_0M@LIDMCICL@SetShopType@
	DD	FLAT:?shopSetShopType@@YAPAU_object@@PAU1@0@Z
	DD	01H
	ORG $+4
	DD	FLAT:??_C@_0M@PDMFJJBE@GetShopTime@
	DD	FLAT:?shopGetShopTime@@YAPAU_object@@PAU1@0@Z
	DD	01H
	ORG $+4
	DD	FLAT:??_C@_0M@PMNLEPJH@SetShopTime@
	DD	FLAT:?shopSetShopTime@@YAPAU_object@@PAU1@0@Z
	DD	01H
	ORG $+4
	DD	FLAT:??_C@_0BG@IJOJLONA@GetItemChangeLookVnum@
	DD	FLAT:?shopGetItemChangeLookVnum@@YAPAU_object@@PAU1@0@Z
	DD	01H
	ORG $+4
	DD	00H
	DD	00H
	ORG $+8
_DATA	ENDS
;	COMDAT ??_7?$CSingleton@VCPythonShop@@@@6B@
CONST	SEGMENT
??_7?$CSingleton@VCPythonShop@@@@6B@ DD FLAT:??_R4?$CSingleton@VCPythonShop@@@@6B@ ; CSingleton<CPythonShop>::`vftable'
	DD	FLAT:??_E?$CSingleton@VCPythonShop@@@@UAEPAXI@Z
CONST	ENDS
;	COMDAT ??_R4?$CSingleton@VCPythonShop@@@@6B@
rdata$r	SEGMENT
??_R4?$CSingleton@VCPythonShop@@@@6B@ DD 00H		; CSingleton<CPythonShop>::`RTTI Complete Object Locator'
	DD	00H
	DD	00H
	DD	FLAT:??_R0?AV?$CSingleton@VCPythonShop@@@@@8
	DD	FLAT:??_R3?$CSingleton@VCPythonShop@@@@8
rdata$r	ENDS
;	COMDAT ??_R4CPythonShop@@6B@
rdata$r	SEGMENT
??_R4CPythonShop@@6B@ DD 00H				; CPythonShop::`RTTI Complete Object Locator'
	DD	00H
	DD	00H
	DD	FLAT:??_R0?AVCPythonShop@@@8
	DD	FLAT:??_R3CPythonShop@@8
rdata$r	ENDS
;	COMDAT ??_R3CPythonShop@@8
rdata$r	SEGMENT
??_R3CPythonShop@@8 DD 00H				; CPythonShop::`RTTI Class Hierarchy Descriptor'
	DD	00H
	DD	02H
	DD	FLAT:??_R2CPythonShop@@8
rdata$r	ENDS
;	COMDAT ??_R0?AVCPythonShop@@@8
data$rs	SEGMENT
??_R0?AVCPythonShop@@@8 DD FLAT:??_7type_info@@6B@	; CPythonShop `RTTI Type Descriptor'
	DD	00H
	DB	'.?AVCPythonShop@@', 00H
data$rs	ENDS
;	COMDAT ??_R3?$CSingleton@VCPythonShop@@@@8
rdata$r	SEGMENT
??_R3?$CSingleton@VCPythonShop@@@@8 DD 00H		; CSingleton<CPythonShop>::`RTTI Class Hierarchy Descriptor'
	DD	00H
	DD	01H
	DD	FLAT:??_R2?$CSingleton@VCPythonShop@@@@8
rdata$r	ENDS
;	COMDAT ??_R0?AV?$CSingleton@VCPythonShop@@@@@8
data$rs	SEGMENT
??_R0?AV?$CSingleton@VCPythonShop@@@@@8 DD FLAT:??_7type_info@@6B@ ; CSingleton<CPythonShop> `RTTI Type Descriptor'
	DD	00H
	DB	'.?AV?$CSingleton@VCPythonShop@@@@', 00H
data$rs	ENDS
;	COMDAT ??_R1A@?0A@EA@?$CSingleton@VCPythonShop@@@@8
rdata$r	SEGMENT
??_R1A@?0A@EA@?$CSingleton@VCPythonShop@@@@8 DD FLAT:??_R0?AV?$CSingleton@VCPythonShop@@@@@8 ; CSingleton<CPythonShop>::`RTTI Base Class Descriptor at (0,-1,0,64)'
	DD	00H
	DD	00H
	DD	0ffffffffH
	DD	00H
	DD	040H
	DD	FLAT:??_R3?$CSingleton@VCPythonShop@@@@8
rdata$r	ENDS
;	COMDAT ??_R1A@?0A@EA@CPythonShop@@8
rdata$r	SEGMENT
??_R1A@?0A@EA@CPythonShop@@8 DD FLAT:??_R0?AVCPythonShop@@@8 ; CPythonShop::`RTTI Base Class Descriptor at (0,-1,0,64)'
	DD	01H
	DD	00H
	DD	0ffffffffH
	DD	00H
	DD	040H
	DD	FLAT:??_R3CPythonShop@@8
rdata$r	ENDS
;	COMDAT ??_R2?$CSingleton@VCPythonShop@@@@8
rdata$r	SEGMENT
??_R2?$CSingleton@VCPythonShop@@@@8 DD FLAT:??_R1A@?0A@EA@?$CSingleton@VCPythonShop@@@@8 ; CSingleton<CPythonShop>::`RTTI Base Class Array'
rdata$r	ENDS
;	COMDAT ??_R2CPythonShop@@8
rdata$r	SEGMENT
??_R2CPythonShop@@8 DD FLAT:??_R1A@?0A@EA@CPythonShop@@8 ; CPythonShop::`RTTI Base Class Array'
	DD	FLAT:??_R1A@?0A@EA@?$CSingleton@VCPythonShop@@@@8
rdata$r	ENDS
;	COMDAT ??_C@_0BI@BDLFABJN@OFFLINE_SHOP_SLOT_COUNT@
CONST	SEGMENT
??_C@_0BI@BDLFABJN@OFFLINE_SHOP_SLOT_COUNT@ DB 'OFFLINE_SHOP_SLOT_COUNT', 00H ; `string'
CONST	ENDS
;	COMDAT ??_C@_0L@JEDHIPHP@SHOPEX_EXP@
CONST	SEGMENT
??_C@_0L@JEDHIPHP@SHOPEX_EXP@ DB 'SHOPEX_EXP', 00H	; `string'
CONST	ENDS
;	COMDAT ??_C@_0L@IKKNLFGH@SHOPEX_MAX@
CONST	SEGMENT
??_C@_0L@IKKNLFGH@SHOPEX_MAX@ DB 'SHOPEX_MAX', 00H	; `string'
CONST	ENDS
;	COMDAT ??_C@_0N@BHLKHBHI@SHOPEX_COINS@
CONST	SEGMENT
??_C@_0N@BHLKHBHI@SHOPEX_COINS@ DB 'SHOPEX_COINS', 00H	; `string'
CONST	ENDS
;	COMDAT ??_C@_0M@BADCFJEI@SHOPEX_ITEM@
CONST	SEGMENT
??_C@_0M@BADCFJEI@SHOPEX_ITEM@ DB 'SHOPEX_ITEM', 00H	; `string'
CONST	ENDS
;	COMDAT ??_C@_0BO@GEPHLMDC@SHOP_COIN_TYPE_SECONDARY_COIN@
CONST	SEGMENT
??_C@_0BO@GEPHLMDC@SHOP_COIN_TYPE_SECONDARY_COIN@ DB 'SHOP_COIN_TYPE_SECO'
	DB	'NDARY_COIN', 00H				; `string'
CONST	ENDS
;	COMDAT ??_C@_0M@PGAJLHHB@SHOPEX_GOLD@
CONST	SEGMENT
??_C@_0M@PGAJLHHB@SHOPEX_GOLD@ DB 'SHOPEX_GOLD', 00H	; `string'
CONST	ENDS
;	COMDAT ??_C@_0BA@MMIAEKCC@SHOP_SLOT_COUNT@
CONST	SEGMENT
??_C@_0BA@MMIAEKCC@SHOP_SLOT_COUNT@ DB 'SHOP_SLOT_COUNT', 00H ; `string'
CONST	ENDS
;	COMDAT ??_C@_0BE@FOBHCAAH@SHOP_COIN_TYPE_GOLD@
CONST	SEGMENT
??_C@_0BE@FOBHCAAH@SHOP_COIN_TYPE_GOLD@ DB 'SHOP_COIN_TYPE_GOLD', 00H ; `string'
CONST	ENDS
;	COMDAT ??_C@_0M@PMNLEPJH@SetShopTime@
CONST	SEGMENT
??_C@_0M@PMNLEPJH@SetShopTime@ DB 'SetShopTime', 00H	; `string'
CONST	ENDS
;	COMDAT ??_C@_04BFIJLIPK@shop@
CONST	SEGMENT
??_C@_04BFIJLIPK@shop@ DB 'shop', 00H			; `string'
CONST	ENDS
;	COMDAT ??_C@_0M@LIDMCICL@SetShopType@
CONST	SEGMENT
??_C@_0M@LIDMCICL@SetShopType@ DB 'SetShopType', 00H	; `string'
CONST	ENDS
;	COMDAT ??_C@_0M@PDMFJJBE@GetShopTime@
CONST	SEGMENT
??_C@_0M@PDMFJJBE@GetShopTime@ DB 'GetShopTime', 00H	; `string'
CONST	ENDS
;	COMDAT ??_C@_0M@OKAJOAKB@SetShopFlag@
CONST	SEGMENT
??_C@_0M@OKAJOAKB@SetShopFlag@ DB 'SetShopFlag', 00H	; `string'
CONST	ENDS
;	COMDAT ??_C@_0M@LHCCPOKI@GetShopType@
CONST	SEGMENT
??_C@_0M@LHCCPOKI@GetShopType@ DB 'GetShopType', 00H	; `string'
CONST	ENDS
;	COMDAT ??_C@_0BB@HKMACCCG@ChangeDecoration@
CONST	SEGMENT
??_C@_0BB@HKMACCCG@ChangeDecoration@ DB 'ChangeDecoration', 00H ; `string'
CONST	ENDS
;	COMDAT ??_C@_0M@OFBHDGCC@GetShopFlag@
CONST	SEGMENT
??_C@_0M@OFBHDGCC@GetShopFlag@ DB 'GetShopFlag', 00H	; `string'
CONST	ENDS
;	COMDAT ??_C@_0P@GALMKFH@HasOfflineShop@
CONST	SEGMENT
??_C@_0P@GALMKFH@HasOfflineShop@ DB 'HasOfflineShop', 00H ; `string'
CONST	ENDS
;	COMDAT ??_C@_0BE@EDLJNLOK@GetRealWatcherCount@
CONST	SEGMENT
??_C@_0BE@EDLJNLOK@GetRealWatcherCount@ DB 'GetRealWatcherCount', 00H ; `string'
CONST	ENDS
;	COMDAT ??_C@_0BB@OMKHKKDA@GetOfflineShopID@
CONST	SEGMENT
??_C@_0BB@OMKHKKDA@GetOfflineShopID@ DB 'GetOfflineShopID', 00H ; `string'
CONST	ENDS
;	COMDAT ??_C@_0BL@KFFFJEDN@GetCurrentOfflineShopMoney@
CONST	SEGMENT
??_C@_0BL@KFFFJEDN@GetCurrentOfflineShopMoney@ DB 'GetCurrentOfflineShopM'
	DB	'oney', 00H					; `string'
CONST	ENDS
;	COMDAT ??_C@_0BB@HLMCJGJO@BuildOfflineShop@
CONST	SEGMENT
??_C@_0BB@HLMCJGJO@BuildOfflineShop@ DB 'BuildOfflineShop', 00H ; `string'
CONST	ENDS
;	COMDAT ??_C@_0BC@BGGPLLFN@GetDisplayedCount@
CONST	SEGMENT
??_C@_0BC@BGGPLLFN@GetDisplayedCount@ DB 'GetDisplayedCount', 00H ; `string'
CONST	ENDS
;	COMDAT ??_C@_0BJ@COGLHCCJ@GetOfflineShopItemStatus@
CONST	SEGMENT
??_C@_0BJ@COGLHCCJ@GetOfflineShopItemStatus@ DB 'GetOfflineShopItemStatus'
	DB	00H						; `string'
CONST	ENDS
;	COMDAT ??_C@_0BM@NOLOIGOM@GetOfflineShopItemBuyerName@
CONST	SEGMENT
??_C@_0BM@NOLOIGOM@GetOfflineShopItemBuyerName@ DB 'GetOfflineShopItemBuy'
	DB	'erName', 00H				; `string'
CONST	ENDS
;	COMDAT ??_C@_0BI@HDCOLAIL@DelOfflineShopItemStock@
CONST	SEGMENT
??_C@_0BI@HDCOLAIL@DelOfflineShopItemStock@ DB 'DelOfflineShopItemStock', 00H ; `string'
CONST	ENDS
;	COMDAT ??_C@_0BM@GKJGCDDL@GetOfflineShopItemPriceReal@
CONST	SEGMENT
??_C@_0BM@GKJGCDDL@GetOfflineShopItemPriceReal@ DB 'GetOfflineShopItemPri'
	DB	'ceReal', 00H				; `string'
CONST	ENDS
;	COMDAT ??_C@_0BG@KDEOGIIB@ClearOfflineShopStock@
CONST	SEGMENT
??_C@_0BG@KDEOGIIB@ClearOfflineShopStock@ DB 'ClearOfflineShopStock', 00H ; `string'
CONST	ENDS
;	COMDAT ??_C@_0BI@LJDNIHCH@AddOfflineShopItemStock@
CONST	SEGMENT
??_C@_0BI@LJDNIHCH@AddOfflineShopItemStock@ DB 'AddOfflineShopItemStock', 00H ; `string'
CONST	ENDS
;	COMDAT ??_C@_0BM@LKCCPGFH@GetOfflineShopItemAttribute@
CONST	SEGMENT
??_C@_0BM@LKCCPGFH@GetOfflineShopItemAttribute@ DB 'GetOfflineShopItemAtt'
	DB	'ribute', 00H				; `string'
CONST	ENDS
;	COMDAT ??_C@_07HPMDFBOJ@GetSign@
CONST	SEGMENT
??_C@_07HPMDFBOJ@GetSign@ DB 'GetSign', 00H		; `string'
CONST	ENDS
;	COMDAT ??_C@_0BI@IJLIIALO@GetOfflineShopItemPrice@
CONST	SEGMENT
??_C@_0BI@IJLIIALO@GetOfflineShopItemPrice@ DB 'GetOfflineShopItemPrice', 00H ; `string'
CONST	ENDS
;	COMDAT ??_C@_0BO@HEAPKDCE@GetOfflineShopItemMetinSocket@
CONST	SEGMENT
??_C@_0BO@HEAPKDCE@GetOfflineShopItemMetinSocket@ DB 'GetOfflineShopItemM'
	DB	'etinSocket', 00H				; `string'
CONST	ENDS
;	COMDAT ??_C@_0BI@NFEEPLNM@GetOfflineShopItemCount@
CONST	SEGMENT
??_C@_0BI@NFEEPLNM@GetOfflineShopItemCount@ DB 'GetOfflineShopItemCount', 00H ; `string'
CONST	ENDS
;	COMDAT ??_C@_0BH@EIEDKBFD@GetOfflineShopItemVnum@
CONST	SEGMENT
??_C@_0BH@EIEDKBFD@GetOfflineShopItemVnum@ DB 'GetOfflineShopItemVnum', 00H ; `string'
CONST	ENDS
;	COMDAT ??_C@_0O@PLCMGBGD@IsOfflineShop@
CONST	SEGMENT
??_C@_0O@PLCMGBGD@IsOfflineShop@ DB 'IsOfflineShop', 00H ; `string'
CONST	ENDS
;	COMDAT ??_C@_0BF@BLIEEIGK@GetOfflineShopItemID@
CONST	SEGMENT
??_C@_0BF@BLIEEIGK@GetOfflineShopItemID@ DB 'GetOfflineShopItemID', 00H ; `string'
CONST	ENDS
;	COMDAT ??_C@_0BB@MDMPBIAN@BuildPrivateShop@
CONST	SEGMENT
??_C@_0BB@MDMPBIAN@BuildPrivateShop@ DB 'BuildPrivateShop', 00H ; `string'
CONST	ENDS
;	COMDAT ??_C@_0CA@JPBLMNKD@GetOfflineShopItemTransmutation@
CONST	SEGMENT
??_C@_0CA@JPBLMNKD@GetOfflineShopItemTransmutation@ DB 'GetOfflineShopIte'
	DB	'mTransmutation', 00H			; `string'
CONST	ENDS
;	COMDAT ??_C@_0BI@FBMJKJEA@DelPrivateShopItemStock@
CONST	SEGMENT
??_C@_0BI@FBMJKJEA@DelPrivateShopItemStock@ DB 'DelPrivateShopItemStock', 00H ; `string'
CONST	ENDS
;	COMDAT ??_C@_0BI@KLFPJJHF@GetPrivateShopItemPrice@
CONST	SEGMENT
??_C@_0BI@KLFPJJHF@GetPrivateShopItemPrice@ DB 'GetPrivateShopItemPrice', 00H ; `string'
CONST	ENDS
;	COMDAT ??_C@_0BG@BMKKEDKK@ClearPrivateShopStock@
CONST	SEGMENT
??_C@_0BG@BMKKEDKK@ClearPrivateShopStock@ DB 'ClearPrivateShopStock', 00H ; `string'
CONST	ENDS
;	COMDAT ??_C@_0BI@JLNKJOOM@AddPrivateShopItemStock@
CONST	SEGMENT
??_C@_0BI@JLNKJOOM@AddPrivateShopItemStock@ DB 'AddPrivateShopItemStock', 00H ; `string'
CONST	ENDS
;	COMDAT ??_C@_0BB@OHLCEJJC@GetItemPriceType@
CONST	SEGMENT
??_C@_0BB@OHLCEJJC@GetItemPriceType@ DB 'GetItemPriceType', 00H ; `string'
CONST	ENDS
;	COMDAT ??_C@_0BB@JOKODNDH@GetItemPriceVnum@
CONST	SEGMENT
??_C@_0BB@JOKODNDH@GetItemPriceVnum@ DB 'GetItemPriceVnum', 00H ; `string'
CONST	ENDS
;	COMDAT ??_C@_0L@HEMHLKHB@GetTabName@
CONST	SEGMENT
??_C@_0L@HEMHLKHB@GetTabName@ DB 'GetTabName', 00H	; `string'
CONST	ENDS
;	COMDAT ??_C@_0P@CFALBIIJ@GetTabCoinType@
CONST	SEGMENT
??_C@_0P@CFALBIIJ@GetTabCoinType@ DB 'GetTabCoinType', 00H ; `string'
CONST	ENDS
;	COMDAT ??_C@_0N@OIFMMAOE@GetItemPrice@
CONST	SEGMENT
??_C@_0N@OIFMMAOE@GetItemPrice@ DB 'GetItemPrice', 00H	; `string'
CONST	ENDS
;	COMDAT ??_C@_0M@PGHDAHMM@GetTabCount@
CONST	SEGMENT
??_C@_0M@PGHDAHMM@GetTabCount@ DB 'GetTabCount', 00H	; `string'
CONST	ENDS
;	COMDAT ??_C@_0O@EDCBOPPA@IsPrivateShop@
CONST	SEGMENT
??_C@_0O@EDCBOPPA@IsPrivateShop@ DB 'IsPrivateShop', 00H ; `string'
CONST	ENDS
;	COMDAT ??_C@_0BI@HHPKCPJD@IsMainPlayerPrivateShop@
CONST	SEGMENT
??_C@_0BI@HHPKCPJD@IsMainPlayerPrivateShop@ DB 'IsMainPlayerPrivateShop', 00H ; `string'
CONST	ENDS
;	COMDAT ??_C@_04DNCDCIAE@Open@
CONST	SEGMENT
??_C@_04DNCDCIAE@Open@ DB 'Open', 00H			; `string'
CONST	ENDS
;	COMDAT ??_C@_06DKEIEPKC@IsOpen@
CONST	SEGMENT
??_C@_06DKEIEPKC@IsOpen@ DB 'IsOpen', 00H		; `string'
CONST	ENDS
;	COMDAT ??_C@_04OKGDLNCL@NONE@
CONST	SEGMENT
??_C@_04OKGDLNCL@NONE@ DB 'NONE', 00H			; `string'
CONST	ENDS
;	COMDAT ??_C@_01OCOKONAJ@L@
CONST	SEGMENT
??_C@_01OCOKONAJ@L@ DB 'L', 00H				; `string'
CONST	ENDS
;	COMDAT ??_C@_0CP@FJEENICJ@Out?5of?5Index?4?5tabIdx?$CI?$CFd?$CJ?5must?5b@
CONST	SEGMENT
??_C@_0CP@FJEENICJ@Out?5of?5Index?4?5tabIdx?$CI?$CFd?$CJ?5must?5b@ DB 'Ou'
	DB	't of Index. tabIdx(%d) must be less than %d.', 00H ; `string'
CONST	ENDS
;	COMDAT ??_C@_0FC@PFANBFHB@Out?5of?5Index?4?5tabIdx?$CI?$CFd?$CJ?5must?5b@
CONST	SEGMENT
??_C@_0FC@PFANBFHB@Out?5of?5Index?4?5tabIdx?$CI?$CFd?$CJ?5must?5b@ DB 'Ou'
	DB	't of Index. tabIdx(%d) must be less than %d. dwSlotPos(%d) mu'
	DB	'st be less than %d', 00H			; `string'
PUBLIC	??MSItemPos@@QBE_NABU0@@Z			; SItemPos::operator<
PUBLIC	??$forward@USItemPos@@@std@@YA$$QAUSItemPos@@AAU1@@Z ; std::forward<SItemPos>
PUBLIC	?_Get_first@?$_Compressed_pair@V?$allocator@U?$_Tree_node@U?$pair@$$CBUSItemPos@@USOfflineShopItemTable@@@std@@PAX@std@@@std@@V?$_Tree_val@U?$_Tree_simple_types@U?$pair@$$CBUSItemPos@@USOfflineShopItemTable@@@std@@@std@@@2@$00@std@@QBEABV?$allocator@U?$_Tree_node@U?$pair@$$CBUSItemPos@@USOfflineShopItemTable@@@std@@PAX@std@@@2@XZ ; std::_Compressed_pair<std::allocator<std::_Tree_node<std::pair<SItemPos const ,SOfflineShopItemTable>,void *> >,std::_Tree_val<std::_Tree_simple_types<std::pair<SItemPos const ,SOfflineShopItemTable> > >,1>::_Get_first
PUBLIC	?_Get_first@?$_Compressed_pair@V?$allocator@U?$_Tree_node@U?$pair@$$CBUSItemPos@@USShopItemTable@@@std@@PAX@std@@@std@@V?$_Tree_val@U?$_Tree_simple_types@U?$pair@$$CBUSItemPos@@USShopItemTable@@@std@@@std@@@2@$00@std@@QBEABV?$allocator@U?$_Tree_node@U?$pair@$$CBUSItemPos@@USShopItemTable@@@std@@PAX@std@@@2@XZ ; std::_Compressed_pair<std::allocator<std::_Tree_node<std::pair<SItemPos const ,SShopItemTable>,void *> >,std::_Tree_val<std::_Tree_simple_types<std::pair<SItemPos const ,SShopItemTable> > >,1>::_Get_first
PUBLIC	??$?0USItemPos@@USOfflineShopItemTable@@$0A@@?$pair@$$CBUSItemPos@@USOfflineShopItemTable@@@std@@QAE@$$QAU?$pair@USItemPos@@USOfflineShopItemTable@@@1@@Z ; std::pair<SItemPos const ,SOfflineShopItemTable>::pair<SItemPos const ,SOfflineShopItemTable><SItemPos,SOfflineShopItemTable,0>
PUBLIC	??$?0USItemPos@@USShopItemTable@@$0A@@?$pair@$$CBUSItemPos@@USShopItemTable@@@std@@QAE@$$QAU?$pair@USItemPos@@USShopItemTable@@@1@@Z ; std::pair<SItemPos const ,SShopItemTable>::pair<SItemPos const ,SShopItemTable><SItemPos,SShopItemTable,0>
PUBLIC	?_Getal@?$_Tree@V?$_Tmap_traits@USItemPos@@USOfflineShopItemTable@@U?$less@USItemPos@@@std@@V?$allocator@U?$pair@$$CBUSItemPos@@USOfflineShopItemTable@@@std@@@4@$0A@@std@@@std@@IBEABV?$allocator@U?$_Tree_node@U?$pair@$$CBUSItemPos@@USOfflineShopItemTable@@@std@@PAX@std@@@2@XZ ; std::_Tree<std::_Tmap_traits<SItemPos,SOfflineShopItemTable,std::less<SItemPos>,std::allocator<std::pair<SItemPos const ,SOfflineShopItemTable> >,0> >::_Getal
PUBLIC	?max_size@?$_Default_allocator_traits@V?$allocator@U?$_Tree_node@U?$pair@$$CBUSItemPos@@USOfflineShopItemTable@@@std@@PAX@std@@@std@@@std@@SAIABV?$allocator@U?$_Tree_node@U?$pair@$$CBUSItemPos@@USOfflineShopItemTable@@@std@@PAX@std@@@2@@Z ; std::_Default_allocator_traits<std::allocator<std::_Tree_node<std::pair<SItemPos const ,SOfflineShopItemTable>,void *> > >::max_size
PUBLIC	?_Max@?$_Tree_val@U?$_Tree_simple_types@U?$pair@$$CBUSItemPos@@USOfflineShopItemTable@@@std@@@std@@@std@@SAPAU?$_Tree_node@U?$pair@$$CBUSItemPos@@USOfflineShopItemTable@@@std@@PAX@2@PAU32@@Z ; std::_Tree_val<std::_Tree_simple_types<std::pair<SItemPos const ,SOfflineShopItemTable> > >::_Max
PUBLIC	?_Getal@?$_Tree@V?$_Tmap_traits@USItemPos@@USShopItemTable@@U?$less@USItemPos@@@std@@V?$allocator@U?$pair@$$CBUSItemPos@@USShopItemTable@@@std@@@4@$0A@@std@@@std@@IBEABV?$allocator@U?$_Tree_node@U?$pair@$$CBUSItemPos@@USShopItemTable@@@std@@PAX@std@@@2@XZ ; std::_Tree<std::_Tmap_traits<SItemPos,SShopItemTable,std::less<SItemPos>,std::allocator<std::pair<SItemPos const ,SShopItemTable> >,0> >::_Getal
PUBLIC	?max_size@?$_Default_allocator_traits@V?$allocator@U?$_Tree_node@U?$pair@$$CBUSItemPos@@USShopItemTable@@@std@@PAX@std@@@std@@@std@@SAIABV?$allocator@U?$_Tree_node@U?$pair@$$CBUSItemPos@@USShopItemTable@@@std@@PAX@std@@@2@@Z ; std::_Default_allocator_traits<std::allocator<std::_Tree_node<std::pair<SItemPos const ,SShopItemTable>,void *> > >::max_size
PUBLIC	?_Max@?$_Tree_val@U?$_Tree_simple_types@U?$pair@$$CBUSItemPos@@USShopItemTable@@@std@@@std@@@std@@SAPAU?$_Tree_node@U?$pair@$$CBUSItemPos@@USShopItemTable@@@std@@PAX@2@PAU32@@Z ; std::_Tree_val<std::_Tree_simple_types<std::pair<SItemPos const ,SShopItemTable> > >::_Max
PUBLIC	??0?$_Alloc_construct_ptr@V?$allocator@U?$_Tree_node@U?$pair@$$CBUSItemPos@@USShopItemTable@@@std@@PAX@std@@@std@@@std@@QAE@AAV?$allocator@U?$_Tree_node@U?$pair@$$CBUSItemPos@@USShopItemTable@@@std@@PAX@std@@@1@@Z ; std::_Alloc_construct_ptr<std::allocator<std::_Tree_node<std::pair<SItemPos const ,SShopItemTable>,void *> > >::_Alloc_construct_ptr<std::allocator<std::_Tree_node<std::pair<SItemPos const ,SShopItemTable>,void *> > >
PUBLIC	?_Allocate@?$_Alloc_construct_ptr@V?$allocator@U?$_Tree_node@U?$pair@$$CBUSItemPos@@USShopItemTable@@@std@@PAX@std@@@std@@@std@@QAEXXZ ; std::_Alloc_construct_ptr<std::allocator<std::_Tree_node<std::pair<SItemPos const ,SShopItemTable>,void *> > >::_Allocate
PUBLIC	??0?$_Alloc_construct_ptr@V?$allocator@U?$_Tree_node@U?$pair@$$CBUSItemPos@@USOfflineShopItemTable@@@std@@PAX@std@@@std@@@std@@QAE@AAV?$allocator@U?$_Tree_node@U?$pair@$$CBUSItemPos@@USOfflineShopItemTable@@@std@@PAX@std@@@1@@Z ; std::_Alloc_construct_ptr<std::allocator<std::_Tree_node<std::pair<SItemPos const ,SOfflineShopItemTable>,void *> > >::_Alloc_construct_ptr<std::allocator<std::_Tree_node<std::pair<SItemPos const ,SOfflineShopItemTable>,void *> > >
PUBLIC	?_Allocate@?$_Alloc_construct_ptr@V?$allocator@U?$_Tree_node@U?$pair@$$CBUSItemPos@@USOfflineShopItemTable@@@std@@PAX@std@@@std@@@std@@QAEXXZ ; std::_Alloc_construct_ptr<std::allocator<std::_Tree_node<std::pair<SItemPos const ,SOfflineShopItemTable>,void *> > >::_Allocate
PUBLIC	??$_Get_size_of_n@$0EM@@std@@YAII@Z		; std::_Get_size_of_n<76>
PUBLIC	??$construct_at@PAU?$_Tree_node@U?$pair@$$CBUSItemPos@@USOfflineShopItemTable@@@std@@PAX@std@@ABQAU12@@std@@YAPAPAU?$_Tree_node@U?$pair@$$CBUSItemPos@@USOfflineShopItemTable@@@std@@PAX@0@QAPAU10@ABQAU10@@Z ; std::construct_at<std::_Tree_node<std::pair<SItemPos const ,SOfflineShopItemTable>,void *> *,std::_Tree_node<std::pair<SItemPos const ,SOfflineShopItemTable>,void *> * const &>
PUBLIC	??$forward@ABQAU?$_Tree_node@U?$pair@$$CBUSItemPos@@USOfflineShopItemTable@@@std@@PAX@std@@@std@@YAABQAU?$_Tree_node@U?$pair@$$CBUSItemPos@@USOfflineShopItemTable@@@std@@PAX@0@ABQAU10@@Z ; std::forward<std::_Tree_node<std::pair<SItemPos const ,SOfflineShopItemTable>,void *> * const &>
PUBLIC	??$construct_at@PAU?$_Tree_node@U?$pair@$$CBUSItemPos@@USShopItemTable@@@std@@PAX@std@@ABQAU12@@std@@YAPAPAU?$_Tree_node@U?$pair@$$CBUSItemPos@@USShopItemTable@@@std@@PAX@0@QAPAU10@ABQAU10@@Z ; std::construct_at<std::_Tree_node<std::pair<SItemPos const ,SShopItemTable>,void *> *,std::_Tree_node<std::pair<SItemPos const ,SShopItemTable>,void *> * const &>
PUBLIC	??$forward@ABQAU?$_Tree_node@U?$pair@$$CBUSItemPos@@USShopItemTable@@@std@@PAX@std@@@std@@YAABQAU?$_Tree_node@U?$pair@$$CBUSItemPos@@USShopItemTable@@@std@@PAX@0@ABQAU10@@Z ; std::forward<std::_Tree_node<std::pair<SItemPos const ,SShopItemTable>,void *> * const &>
PUBLIC	??$construct_at@USOfflineShopItemTable@@U1@@std@@YAPAUSOfflineShopItemTable@@QAU1@$$QAU1@@Z ; std::construct_at<SOfflineShopItemTable,SOfflineShopItemTable>
PUBLIC	??$construct_at@USShopItemTable@@U1@@std@@YAPAUSShopItemTable@@QAU1@$$QAU1@@Z ; std::construct_at<SShopItemTable,SShopItemTable>
PUBLIC	??$construct_at@PAU?$_Tree_node@U?$pair@$$CBUSItemPos@@USOfflineShopItemTable@@@std@@PAX@std@@AAPAU12@@std@@YAPAPAU?$_Tree_node@U?$pair@$$CBUSItemPos@@USOfflineShopItemTable@@@std@@PAX@0@QAPAU10@AAPAU10@@Z ; std::construct_at<std::_Tree_node<std::pair<SItemPos const ,SOfflineShopItemTable>,void *> *,std::_Tree_node<std::pair<SItemPos const ,SOfflineShopItemTable>,void *> * &>
PUBLIC	??$addressof@PAU?$_Tree_node@U?$pair@$$CBUSItemPos@@USOfflineShopItemTable@@@std@@PAX@std@@@std@@YAPAPAU?$_Tree_node@U?$pair@$$CBUSItemPos@@USOfflineShopItemTable@@@std@@PAX@0@AAPAU10@@Z ; std::addressof<std::_Tree_node<std::pair<SItemPos const ,SOfflineShopItemTable>,void *> *>
PUBLIC	??$construct_at@U?$pair@$$CBUSItemPos@@USOfflineShopItemTable@@@std@@U?$pair@USItemPos@@USOfflineShopItemTable@@@2@@std@@YAPAU?$pair@$$CBUSItemPos@@USOfflineShopItemTable@@@0@QAU10@$$QAU?$pair@USItemPos@@USOfflineShopItemTable@@@0@@Z ; std::construct_at<std::pair<SItemPos const ,SOfflineShopItemTable>,std::pair<SItemPos,SOfflineShopItemTable> >
PUBLIC	??$construct_at@PAU?$_Tree_node@U?$pair@$$CBUSItemPos@@USShopItemTable@@@std@@PAX@std@@AAPAU12@@std@@YAPAPAU?$_Tree_node@U?$pair@$$CBUSItemPos@@USShopItemTable@@@std@@PAX@0@QAPAU10@AAPAU10@@Z ; std::construct_at<std::_Tree_node<std::pair<SItemPos const ,SShopItemTable>,void *> *,std::_Tree_node<std::pair<SItemPos const ,SShopItemTable>,void *> * &>
PUBLIC	??$addressof@PAU?$_Tree_node@U?$pair@$$CBUSItemPos@@USShopItemTable@@@std@@PAX@std@@@std@@YAPAPAU?$_Tree_node@U?$pair@$$CBUSItemPos@@USShopItemTable@@@std@@PAX@0@AAPAU10@@Z ; std::addressof<std::_Tree_node<std::pair<SItemPos const ,SShopItemTable>,void *> *>
PUBLIC	??$construct_at@U?$pair@$$CBUSItemPos@@USShopItemTable@@@std@@U?$pair@USItemPos@@USShopItemTable@@@2@@std@@YAPAU?$pair@$$CBUSItemPos@@USShopItemTable@@@0@QAU10@$$QAU?$pair@USItemPos@@USShopItemTable@@@0@@Z ; std::construct_at<std::pair<SItemPos const ,SShopItemTable>,std::pair<SItemPos,SShopItemTable> >
PUBLIC	?max_size@?$_Tree@V?$_Tmap_traits@USItemPos@@USOfflineShopItemTable@@U?$less@USItemPos@@@std@@V?$allocator@U?$pair@$$CBUSItemPos@@USOfflineShopItemTable@@@std@@@4@$0A@@std@@@std@@QBEIXZ ; std::_Tree<std::_Tmap_traits<SItemPos,SOfflineShopItemTable,std::less<SItemPos>,std::allocator<std::pair<SItemPos const ,SOfflineShopItemTable> >,0> >::max_size
PUBLIC	??0?$allocator@U?$_Tree_node@U?$pair@$$CBUSItemPos@@USOfflineShopItemTable@@@std@@PAX@std@@@std@@QAE@XZ ; std::allocator<std::_Tree_node<std::pair<SItemPos const ,SOfflineShopItemTable>,void *> >::allocator<std::_Tree_node<std::pair<SItemPos const ,SOfflineShopItemTable>,void *> >
PUBLIC	?deallocate@?$allocator@U?$_Tree_node@U?$pair@$$CBUSItemPos@@USOfflineShopItemTable@@@std@@PAX@std@@@std@@QAEXQAU?$_Tree_node@U?$pair@$$CBUSItemPos@@USOfflineShopItemTable@@@std@@PAX@2@I@Z ; std::allocator<std::_Tree_node<std::pair<SItemPos const ,SOfflineShopItemTable>,void *> >::deallocate
PUBLIC	?allocate@?$allocator@U?$_Tree_node@U?$pair@$$CBUSItemPos@@USOfflineShopItemTable@@@std@@PAX@std@@@std@@QAEPAU?$_Tree_node@U?$pair@$$CBUSItemPos@@USOfflineShopItemTable@@@std@@PAX@2@I@Z ; std::allocator<std::_Tree_node<std::pair<SItemPos const ,SOfflineShopItemTable>,void *> >::allocate
PUBLIC	??0?$_Tree_val@U?$_Tree_simple_types@U?$pair@$$CBUSItemPos@@USOfflineShopItemTable@@@std@@@std@@@std@@QAE@XZ ; std::_Tree_val<std::_Tree_simple_types<std::pair<SItemPos const ,SOfflineShopItemTable> > >::_Tree_val<std::_Tree_simple_types<std::pair<SItemPos const ,SOfflineShopItemTable> > >
PUBLIC	?_Lrotate@?$_Tree_val@U?$_Tree_simple_types@U?$pair@$$CBUSItemPos@@USOfflineShopItemTable@@@std@@@std@@@std@@QAEXPAU?$_Tree_node@U?$pair@$$CBUSItemPos@@USOfflineShopItemTable@@@std@@PAX@2@@Z ; std::_Tree_val<std::_Tree_simple_types<std::pair<SItemPos const ,SOfflineShopItemTable> > >::_Lrotate
PUBLIC	?_Rrotate@?$_Tree_val@U?$_Tree_simple_types@U?$pair@$$CBUSItemPos@@USOfflineShopItemTable@@@std@@@std@@@std@@QAEXPAU?$_Tree_node@U?$pair@$$CBUSItemPos@@USOfflineShopItemTable@@@std@@PAX@2@@Z ; std::_Tree_val<std::_Tree_simple_types<std::pair<SItemPos const ,SOfflineShopItemTable> > >::_Rrotate
PUBLIC	?_Extract@?$_Tree_val@U?$_Tree_simple_types@U?$pair@$$CBUSItemPos@@USOfflineShopItemTable@@@std@@@std@@@std@@QAEPAU?$_Tree_node@U?$pair@$$CBUSItemPos@@USOfflineShopItemTable@@@std@@PAX@2@V?$_Tree_unchecked_const_iterator@V?$_Tree_val@U?$_Tree_simple_types@U?$pair@$$CBUSItemPos@@USOfflineShopItemTable@@@std@@@std@@@std@@U_Iterator_base0@2@@2@@Z ; std::_Tree_val<std::_Tree_simple_types<std::pair<SItemPos const ,SOfflineShopItemTable> > >::_Extract
PUBLIC	?max_size@?$_Tree@V?$_Tmap_traits@USItemPos@@USShopItemTable@@U?$less@USItemPos@@@std@@V?$allocator@U?$pair@$$CBUSItemPos@@USShopItemTable@@@std@@@4@$0A@@std@@@std@@QBEIXZ ; std::_Tree<std::_Tmap_traits<SItemPos,SShopItemTable,std::less<SItemPos>,std::allocator<std::pair<SItemPos const ,SShopItemTable> >,0> >::max_size
PUBLIC	??0?$allocator@U?$_Tree_node@U?$pair@$$CBUSItemPos@@USShopItemTable@@@std@@PAX@std@@@std@@QAE@XZ ; std::allocator<std::_Tree_node<std::pair<SItemPos const ,SShopItemTable>,void *> >::allocator<std::_Tree_node<std::pair<SItemPos const ,SShopItemTable>,void *> >
PUBLIC	?deallocate@?$allocator@U?$_Tree_node@U?$pair@$$CBUSItemPos@@USShopItemTable@@@std@@PAX@std@@@std@@QAEXQAU?$_Tree_node@U?$pair@$$CBUSItemPos@@USShopItemTable@@@std@@PAX@2@I@Z ; std::allocator<std::_Tree_node<std::pair<SItemPos const ,SShopItemTable>,void *> >::deallocate
PUBLIC	?allocate@?$allocator@U?$_Tree_node@U?$pair@$$CBUSItemPos@@USShopItemTable@@@std@@PAX@std@@@std@@QAEPAU?$_Tree_node@U?$pair@$$CBUSItemPos@@USShopItemTable@@@std@@PAX@2@I@Z ; std::allocator<std::_Tree_node<std::pair<SItemPos const ,SShopItemTable>,void *> >::allocate
PUBLIC	??0?$_Tree_val@U?$_Tree_simple_types@U?$pair@$$CBUSItemPos@@USShopItemTable@@@std@@@std@@@std@@QAE@XZ ; std::_Tree_val<std::_Tree_simple_types<std::pair<SItemPos const ,SShopItemTable> > >::_Tree_val<std::_Tree_simple_types<std::pair<SItemPos const ,SShopItemTable> > >
PUBLIC	?_Lrotate@?$_Tree_val@U?$_Tree_simple_types@U?$pair@$$CBUSItemPos@@USShopItemTable@@@std@@@std@@@std@@QAEXPAU?$_Tree_node@U?$pair@$$CBUSItemPos@@USShopItemTable@@@std@@PAX@2@@Z ; std::_Tree_val<std::_Tree_simple_types<std::pair<SItemPos const ,SShopItemTable> > >::_Lrotate
PUBLIC	?_Rrotate@?$_Tree_val@U?$_Tree_simple_types@U?$pair@$$CBUSItemPos@@USShopItemTable@@@std@@@std@@@std@@QAEXPAU?$_Tree_node@U?$pair@$$CBUSItemPos@@USShopItemTable@@@std@@PAX@2@@Z ; std::_Tree_val<std::_Tree_simple_types<std::pair<SItemPos const ,SShopItemTable> > >::_Rrotate
PUBLIC	?_Extract@?$_Tree_val@U?$_Tree_simple_types@U?$pair@$$CBUSItemPos@@USShopItemTable@@@std@@@std@@@std@@QAEPAU?$_Tree_node@U?$pair@$$CBUSItemPos@@USShopItemTable@@@std@@PAX@2@V?$_Tree_unchecked_const_iterator@V?$_Tree_val@U?$_Tree_simple_types@U?$pair@$$CBUSItemPos@@USShopItemTable@@@std@@@std@@@std@@U_Iterator_base0@2@@2@@Z ; std::_Tree_val<std::_Tree_simple_types<std::pair<SItemPos const ,SShopItemTable> > >::_Extract
PUBLIC	??0?$_Tree_temp_node_alloc@V?$allocator@U?$_Tree_node@U?$pair@$$CBUSItemPos@@USShopItemTable@@@std@@PAX@std@@@std@@@std@@QAE@AAV?$allocator@U?$_Tree_node@U?$pair@$$CBUSItemPos@@USShopItemTable@@@std@@PAX@std@@@1@@Z ; std::_Tree_temp_node_alloc<std::allocator<std::_Tree_node<std::pair<SItemPos const ,SShopItemTable>,void *> > >::_Tree_temp_node_alloc<std::allocator<std::_Tree_node<std::pair<SItemPos const ,SShopItemTable>,void *> > >
PUBLIC	??1?$_Alloc_construct_ptr@V?$allocator@U?$_Tree_node@U?$pair@$$CBUSItemPos@@USShopItemTable@@@std@@PAX@std@@@std@@@std@@QAE@XZ ; std::_Alloc_construct_ptr<std::allocator<std::_Tree_node<std::pair<SItemPos const ,SShopItemTable>,void *> > >::~_Alloc_construct_ptr<std::allocator<std::_Tree_node<std::pair<SItemPos const ,SShopItemTable>,void *> > >
PUBLIC	??0?$_Tree_temp_node_alloc@V?$allocator@U?$_Tree_node@U?$pair@$$CBUSItemPos@@USOfflineShopItemTable@@@std@@PAX@std@@@std@@@std@@QAE@AAV?$allocator@U?$_Tree_node@U?$pair@$$CBUSItemPos@@USOfflineShopItemTable@@@std@@PAX@std@@@1@@Z ; std::_Tree_temp_node_alloc<std::allocator<std::_Tree_node<std::pair<SItemPos const ,SOfflineShopItemTable>,void *> > >::_Tree_temp_node_alloc<std::allocator<std::_Tree_node<std::pair<SItemPos const ,SOfflineShopItemTable>,void *> > >
PUBLIC	??1?$_Alloc_construct_ptr@V?$allocator@U?$_Tree_node@U?$pair@$$CBUSItemPos@@USOfflineShopItemTable@@@std@@PAX@std@@@std@@@std@@QAE@XZ ; std::_Alloc_construct_ptr<std::allocator<std::_Tree_node<std::pair<SItemPos const ,SOfflineShopItemTable>,void *> > >::~_Alloc_construct_ptr<std::allocator<std::_Tree_node<std::pair<SItemPos const ,SOfflineShopItemTable>,void *> > >
PUBLIC	??$exchange@PAU?$_Tree_node@U?$pair@$$CBUSItemPos@@USShopItemTable@@@std@@PAX@std@@$$T@std@@YAPAU?$_Tree_node@U?$pair@$$CBUSItemPos@@USShopItemTable@@@std@@PAX@0@AAPAU10@$$QA$$T@Z ; std::exchange<std::_Tree_node<std::pair<SItemPos const ,SShopItemTable>,void *> *,std::nullptr_t>
PUBLIC	??$exchange@PAU?$_Tree_node@U?$pair@$$CBUSItemPos@@USOfflineShopItemTable@@@std@@PAX@std@@$$T@std@@YAPAU?$_Tree_node@U?$pair@$$CBUSItemPos@@USOfflineShopItemTable@@@std@@PAX@0@AAPAU10@$$QA$$T@Z ; std::exchange<std::_Tree_node<std::pair<SItemPos const ,SOfflineShopItemTable>,void *> *,std::nullptr_t>
PUBLIC	??$_Construct_in_place@PAU?$_Tree_node@U?$pair@$$CBUSItemPos@@USOfflineShopItemTable@@@std@@PAX@std@@ABQAU12@@std@@YAXAAPAU?$_Tree_node@U?$pair@$$CBUSItemPos@@USOfflineShopItemTable@@@std@@PAX@0@ABQAU10@@Z ; std::_Construct_in_place<std::_Tree_node<std::pair<SItemPos const ,SOfflineShopItemTable>,void *> *,std::_Tree_node<std::pair<SItemPos const ,SOfflineShopItemTable>,void *> * const &>
PUBLIC	??$_Construct_in_place@PAU?$_Tree_node@U?$pair@$$CBUSItemPos@@USShopItemTable@@@std@@PAX@std@@ABQAU12@@std@@YAXAAPAU?$_Tree_node@U?$pair@$$CBUSItemPos@@USShopItemTable@@@std@@PAX@0@ABQAU10@@Z ; std::_Construct_in_place<std::_Tree_node<std::pair<SItemPos const ,SShopItemTable>,void *> *,std::_Tree_node<std::pair<SItemPos const ,SShopItemTable>,void *> * const &>
PUBLIC	??$destroy_at@U?$pair@$$CBUSItemPos@@USOfflineShopItemTable@@@std@@@std@@YAXQAU?$pair@$$CBUSItemPos@@USOfflineShopItemTable@@@0@@Z ; std::destroy_at<std::pair<SItemPos const ,SOfflineShopItemTable> >
PUBLIC	??$destroy_at@U?$pair@$$CBUSItemPos@@USShopItemTable@@@std@@@std@@YAXQAU?$pair@$$CBUSItemPos@@USShopItemTable@@@0@@Z ; std::destroy_at<std::pair<SItemPos const ,SShopItemTable> >
PUBLIC	??$construct_at@USOfflineShopItemTable@@ABU1@@std@@YAPAUSOfflineShopItemTable@@QAU1@ABU1@@Z ; std::construct_at<SOfflineShopItemTable,SOfflineShopItemTable const &>
PUBLIC	??$addressof@USOfflineShopItemTable@@@std@@YAPAUSOfflineShopItemTable@@AAU1@@Z ; std::addressof<SOfflineShopItemTable>
PUBLIC	??$construct@USOfflineShopItemTable@@U1@@?$_Default_allocator_traits@V?$allocator@USOfflineShopItemTable@@@std@@@std@@SAXAAV?$allocator@USOfflineShopItemTable@@@1@QAUSOfflineShopItemTable@@$$QAU3@@Z ; std::_Default_allocator_traits<std::allocator<SOfflineShopItemTable> >::construct<SOfflineShopItemTable,SOfflineShopItemTable>
PUBLIC	??$_Copy_memmove_tail@PAUSOfflineShopItemTable@@@std@@YAPAUSOfflineShopItemTable@@QBDQAU1@II@Z ; std::_Copy_memmove_tail<SOfflineShopItemTable *>
PUBLIC	??$move@AAPAUSOfflineShopItemTable@@@std@@YA$$QAPAUSOfflineShopItemTable@@AAPAU1@@Z ; std::move<SOfflineShopItemTable * &>
PUBLIC	??$to_address@USOfflineShopItemTable@@@std@@YAPAUSOfflineShopItemTable@@QAU1@@Z ; std::to_address<SOfflineShopItemTable>
PUBLIC	??$construct_at@USShopItemTable@@ABU1@@std@@YAPAUSShopItemTable@@QAU1@ABU1@@Z ; std::construct_at<SShopItemTable,SShopItemTable const &>
PUBLIC	??$addressof@USShopItemTable@@@std@@YAPAUSShopItemTable@@AAU1@@Z ; std::addressof<SShopItemTable>
PUBLIC	??$construct@USShopItemTable@@U1@@?$_Default_allocator_traits@V?$allocator@USShopItemTable@@@std@@@std@@SAXAAV?$allocator@USShopItemTable@@@1@QAUSShopItemTable@@$$QAU3@@Z ; std::_Default_allocator_traits<std::allocator<SShopItemTable> >::construct<SShopItemTable,SShopItemTable>
PUBLIC	??$_Copy_memmove_tail@PAUSShopItemTable@@@std@@YAPAUSShopItemTable@@QBDQAU1@II@Z ; std::_Copy_memmove_tail<SShopItemTable *>
PUBLIC	??$move@AAPAUSShopItemTable@@@std@@YA$$QAPAUSShopItemTable@@AAPAU1@@Z ; std::move<SShopItemTable * &>
PUBLIC	??$to_address@USShopItemTable@@@std@@YAPAUSShopItemTable@@QAU1@@Z ; std::to_address<SShopItemTable>
PUBLIC	??$forward@AAPAUSOfflineShopItemTable@@@std@@YAAAPAUSOfflineShopItemTable@@AAPAU1@@Z ; std::forward<SOfflineShopItemTable * &>
PUBLIC	??$_Med3_unchecked@PAUSOfflineShopItemTable@@UOfflineShopItemStockSortFunc@@@std@@YAXPAUSOfflineShopItemTable@@00UOfflineShopItemStockSortFunc@@@Z ; std::_Med3_unchecked<SOfflineShopItemTable *,OfflineShopItemStockSortFunc>
PUBLIC	??$_Pop_heap_hole_unchecked@PAUSOfflineShopItemTable@@U1@UOfflineShopItemStockSortFunc@@@std@@YAXPAUSOfflineShopItemTable@@00$$QAU1@UOfflineShopItemStockSortFunc@@@Z ; std::_Pop_heap_hole_unchecked<SOfflineShopItemTable *,SOfflineShopItemTable,OfflineShopItemStockSortFunc>
PUBLIC	??$_Push_heap_by_index@PAUSOfflineShopItemTable@@U1@UOfflineShopItemStockSortFunc@@@std@@YAXPAUSOfflineShopItemTable@@HH$$QAU1@UOfflineShopItemStockSortFunc@@@Z ; std::_Push_heap_by_index<SOfflineShopItemTable *,SOfflineShopItemTable,OfflineShopItemStockSortFunc>
PUBLIC	??$forward@USOfflineShopItemTable@@@std@@YA$$QAUSOfflineShopItemTable@@AAU1@@Z ; std::forward<SOfflineShopItemTable>
PUBLIC	??$_Copy_backward_memmove@PAUSOfflineShopItemTable@@PAU1@@std@@YAPAUSOfflineShopItemTable@@PAU1@00@Z ; std::_Copy_backward_memmove<SOfflineShopItemTable *,SOfflineShopItemTable *>
PUBLIC	??$forward@PAU?$_Tree_node@U?$pair@$$CBUSItemPos@@USOfflineShopItemTable@@@std@@PAX@std@@@std@@YA$$QAPAU?$_Tree_node@U?$pair@$$CBUSItemPos@@USOfflineShopItemTable@@@std@@PAX@0@AAPAU10@@Z ; std::forward<std::_Tree_node<std::pair<SItemPos const ,SOfflineShopItemTable>,void *> *>
PUBLIC	??$_Construct_in_place@PAU?$_Tree_node@U?$pair@$$CBUSItemPos@@USOfflineShopItemTable@@@std@@PAX@std@@AAPAU12@@std@@YAXAAPAU?$_Tree_node@U?$pair@$$CBUSItemPos@@USOfflineShopItemTable@@@std@@PAX@0@0@Z ; std::_Construct_in_place<std::_Tree_node<std::pair<SItemPos const ,SOfflineShopItemTable>,void *> *,std::_Tree_node<std::pair<SItemPos const ,SOfflineShopItemTable>,void *> * &>
PUBLIC	??$construct@U?$pair@$$CBUSItemPos@@USOfflineShopItemTable@@@std@@U?$pair@USItemPos@@USOfflineShopItemTable@@@2@@?$_Default_allocator_traits@V?$allocator@U?$_Tree_node@U?$pair@$$CBUSItemPos@@USOfflineShopItemTable@@@std@@PAX@std@@@std@@@std@@SAXAAV?$allocator@U?$_Tree_node@U?$pair@$$CBUSItemPos@@USOfflineShopItemTable@@@std@@PAX@std@@@1@QAU?$pair@$$CBUSItemPos@@USOfflineShopItemTable@@@1@$$QAU?$pair@USItemPos@@USOfflineShopItemTable@@@1@@Z ; std::_Default_allocator_traits<std::allocator<std::_Tree_node<std::pair<SItemPos const ,SOfflineShopItemTable>,void *> > >::construct<std::pair<SItemPos const ,SOfflineShopItemTable>,std::pair<SItemPos,SOfflineShopItemTable> >
PUBLIC	??$forward@AAPAUSShopItemTable@@@std@@YAAAPAUSShopItemTable@@AAPAU1@@Z ; std::forward<SShopItemTable * &>
PUBLIC	??$_Med3_unchecked@PAUSShopItemTable@@UItemStockSortFunc@@@std@@YAXPAUSShopItemTable@@00UItemStockSortFunc@@@Z ; std::_Med3_unchecked<SShopItemTable *,ItemStockSortFunc>
PUBLIC	??$_Pop_heap_hole_unchecked@PAUSShopItemTable@@U1@UItemStockSortFunc@@@std@@YAXPAUSShopItemTable@@00$$QAU1@UItemStockSortFunc@@@Z ; std::_Pop_heap_hole_unchecked<SShopItemTable *,SShopItemTable,ItemStockSortFunc>
PUBLIC	??$_Push_heap_by_index@PAUSShopItemTable@@U1@UItemStockSortFunc@@@std@@YAXPAUSShopItemTable@@HH$$QAU1@UItemStockSortFunc@@@Z ; std::_Push_heap_by_index<SShopItemTable *,SShopItemTable,ItemStockSortFunc>
PUBLIC	??$forward@USShopItemTable@@@std@@YA$$QAUSShopItemTable@@AAU1@@Z ; std::forward<SShopItemTable>
PUBLIC	??$_Copy_backward_memmove@PAUSShopItemTable@@PAU1@@std@@YAPAUSShopItemTable@@PAU1@00@Z ; std::_Copy_backward_memmove<SShopItemTable *,SShopItemTable *>
PUBLIC	??$forward@PAU?$_Tree_node@U?$pair@$$CBUSItemPos@@USShopItemTable@@@std@@PAX@std@@@std@@YA$$QAPAU?$_Tree_node@U?$pair@$$CBUSItemPos@@USShopItemTable@@@std@@PAX@0@AAPAU10@@Z ; std::forward<std::_Tree_node<std::pair<SItemPos const ,SShopItemTable>,void *> *>
PUBLIC	??$_Construct_in_place@PAU?$_Tree_node@U?$pair@$$CBUSItemPos@@USShopItemTable@@@std@@PAX@std@@AAPAU12@@std@@YAXAAPAU?$_Tree_node@U?$pair@$$CBUSItemPos@@USShopItemTable@@@std@@PAX@0@0@Z ; std::_Construct_in_place<std::_Tree_node<std::pair<SItemPos const ,SShopItemTable>,void *> *,std::_Tree_node<std::pair<SItemPos const ,SShopItemTable>,void *> * &>
PUBLIC	??$construct@U?$pair@$$CBUSItemPos@@USShopItemTable@@@std@@U?$pair@USItemPos@@USShopItemTable@@@2@@?$_Default_allocator_traits@V?$allocator@U?$_Tree_node@U?$pair@$$CBUSItemPos@@USShopItemTable@@@std@@PAX@std@@@std@@@std@@SAXAAV?$allocator@U?$_Tree_node@U?$pair@$$CBUSItemPos@@USShopItemTable@@@std@@PAX@std@@@1@QAU?$pair@$$CBUSItemPos@@USShopItemTable@@@1@$$QAU?$pair@USItemPos@@USShopItemTable@@@1@@Z ; std::_Default_allocator_traits<std::allocator<std::_Tree_node<std::pair<SItemPos const ,SShopItemTable>,void *> > >::construct<std::pair<SItemPos const ,SShopItemTable>,std::pair<SItemPos,SShopItemTable> >
PUBLIC	??0?$_Tree_unchecked_iterator@V?$_Tree_val@U?$_Tree_simple_types@U?$pair@$$CBUSItemPos@@USOfflineShopItemTable@@@std@@@std@@@std@@@std@@QAE@PAU?$_Tree_node@U?$pair@$$CBUSItemPos@@USOfflineShopItemTable@@@std@@PAX@1@PBV?$_Tree_val@U?$_Tree_simple_types@U?$pair@$$CBUSItemPos@@USOfflineShopItemTable@@@std@@@std@@@1@@Z ; std::_Tree_unchecked_iterator<std::_Tree_val<std::_Tree_simple_types<std::pair<SItemPos const ,SOfflineShopItemTable> > > >::_Tree_unchecked_iterator<std::_Tree_val<std::_Tree_simple_types<std::pair<SItemPos const ,SOfflineShopItemTable> > > >
PUBLIC	??0?$_Tree_unchecked_iterator@V?$_Tree_val@U?$_Tree_simple_types@U?$pair@$$CBUSItemPos@@USShopItemTable@@@std@@@std@@@std@@@std@@QAE@PAU?$_Tree_node@U?$pair@$$CBUSItemPos@@USShopItemTable@@@std@@PAX@1@PBV?$_Tree_val@U?$_Tree_simple_types@U?$pair@$$CBUSItemPos@@USShopItemTable@@@std@@@std@@@1@@Z ; std::_Tree_unchecked_iterator<std::_Tree_val<std::_Tree_simple_types<std::pair<SItemPos const ,SShopItemTable> > > >::_Tree_unchecked_iterator<std::_Tree_val<std::_Tree_simple_types<std::pair<SItemPos const ,SShopItemTable> > > >
PUBLIC	??1?$_Tree_temp_node_alloc@V?$allocator@U?$_Tree_node@U?$pair@$$CBUSItemPos@@USOfflineShopItemTable@@@std@@PAX@std@@@std@@@std@@QAE@XZ ; std::_Tree_temp_node_alloc<std::allocator<std::_Tree_node<std::pair<SItemPos const ,SOfflineShopItemTable>,void *> > >::~_Tree_temp_node_alloc<std::allocator<std::_Tree_node<std::pair<SItemPos const ,SOfflineShopItemTable>,void *> > >
PUBLIC	??1?$_Tree_temp_node_alloc@V?$allocator@U?$_Tree_node@U?$pair@$$CBUSItemPos@@USShopItemTable@@@std@@PAX@std@@@std@@@std@@QAE@XZ ; std::_Tree_temp_node_alloc<std::allocator<std::_Tree_node<std::pair<SItemPos const ,SShopItemTable>,void *> > >::~_Tree_temp_node_alloc<std::allocator<std::_Tree_node<std::pair<SItemPos const ,SShopItemTable>,void *> > >
PUBLIC	?_Unchecked_begin@?$_Tree@V?$_Tmap_traits@USItemPos@@USOfflineShopItemTable@@U?$less@USItemPos@@@std@@V?$allocator@U?$pair@$$CBUSItemPos@@USOfflineShopItemTable@@@std@@@4@$0A@@std@@@std@@QAE?AV?$_Tree_unchecked_iterator@V?$_Tree_val@U?$_Tree_simple_types@U?$pair@$$CBUSItemPos@@USOfflineShopItemTable@@@std@@@std@@@std@@@2@XZ ; std::_Tree<std::_Tmap_traits<SItemPos,SOfflineShopItemTable,std::less<SItemPos>,std::allocator<std::pair<SItemPos const ,SOfflineShopItemTable> >,0> >::_Unchecked_begin
PUBLIC	?_Erase_unchecked@?$_Tree@V?$_Tmap_traits@USItemPos@@USOfflineShopItemTable@@U?$less@USItemPos@@@std@@V?$allocator@U?$pair@$$CBUSItemPos@@USOfflineShopItemTable@@@std@@@4@$0A@@std@@@std@@AAEPAU?$_Tree_node@U?$pair@$$CBUSItemPos@@USOfflineShopItemTable@@@std@@PAX@2@V?$_Tree_unchecked_const_iterator@V?$_Tree_val@U?$_Tree_simple_types@U?$pair@$$CBUSItemPos@@USOfflineShopItemTable@@@std@@@std@@@std@@U_Iterator_base0@2@@2@@Z ; std::_Tree<std::_Tmap_traits<SItemPos,SOfflineShopItemTable,std::less<SItemPos>,std::allocator<std::pair<SItemPos const ,SOfflineShopItemTable> >,0> >::_Erase_unchecked
PUBLIC	?_Check_grow_by_1@?$_Tree@V?$_Tmap_traits@USItemPos@@USOfflineShopItemTable@@U?$less@USItemPos@@@std@@V?$allocator@U?$pair@$$CBUSItemPos@@USOfflineShopItemTable@@@std@@@4@$0A@@std@@@std@@IAEXXZ ; std::_Tree<std::_Tmap_traits<SItemPos,SOfflineShopItemTable,std::less<SItemPos>,std::allocator<std::pair<SItemPos const ,SOfflineShopItemTable> >,0> >::_Check_grow_by_1
PUBLIC	?deallocate@?$_Default_allocator_traits@V?$allocator@U?$_Tree_node@U?$pair@$$CBUSItemPos@@USOfflineShopItemTable@@@std@@PAX@std@@@std@@@std@@SAXAAV?$allocator@U?$_Tree_node@U?$pair@$$CBUSItemPos@@USOfflineShopItemTable@@@std@@PAX@std@@@2@QAU?$_Tree_node@U?$pair@$$CBUSItemPos@@USOfflineShopItemTable@@@std@@PAX@2@I@Z ; std::_Default_allocator_traits<std::allocator<std::_Tree_node<std::pair<SItemPos const ,SOfflineShopItemTable>,void *> > >::deallocate
PUBLIC	?_Min@?$_Tree_val@U?$_Tree_simple_types@U?$pair@$$CBUSItemPos@@USOfflineShopItemTable@@@std@@@std@@@std@@SAPAU?$_Tree_node@U?$pair@$$CBUSItemPos@@USOfflineShopItemTable@@@std@@PAX@2@PAU32@@Z ; std::_Tree_val<std::_Tree_simple_types<std::pair<SItemPos const ,SOfflineShopItemTable> > >::_Min
PUBLIC	?_Insert_node@?$_Tree_val@U?$_Tree_simple_types@U?$pair@$$CBUSItemPos@@USOfflineShopItemTable@@@std@@@std@@@std@@QAEPAU?$_Tree_node@U?$pair@$$CBUSItemPos@@USOfflineShopItemTable@@@std@@PAX@2@U?$_Tree_id@PAU?$_Tree_node@U?$pair@$$CBUSItemPos@@USOfflineShopItemTable@@@std@@PAX@std@@@2@QAU32@@Z ; std::_Tree_val<std::_Tree_simple_types<std::pair<SItemPos const ,SOfflineShopItemTable> > >::_Insert_node
PUBLIC	??E?$_Tree_unchecked_const_iterator@V?$_Tree_val@U?$_Tree_simple_types@U?$pair@$$CBUSItemPos@@USOfflineShopItemTable@@@std@@@std@@@std@@U_Iterator_base0@2@@std@@QAE?AV01@H@Z ; std::_Tree_unchecked_const_iterator<std::_Tree_val<std::_Tree_simple_types<std::pair<SItemPos const ,SOfflineShopItemTable> > >,std::_Iterator_base0>::operator++
PUBLIC	??8?$_Tree_unchecked_const_iterator@V?$_Tree_val@U?$_Tree_simple_types@U?$pair@$$CBUSItemPos@@USOfflineShopItemTable@@@std@@@std@@@std@@U_Iterator_base0@2@@std@@QBE_NABV01@@Z ; std::_Tree_unchecked_const_iterator<std::_Tree_val<std::_Tree_simple_types<std::pair<SItemPos const ,SOfflineShopItemTable> > >,std::_Iterator_base0>::operator==
PUBLIC	?_Get_first@?$_Compressed_pair@U?$less@USItemPos@@@std@@V?$_Compressed_pair@V?$allocator@U?$_Tree_node@U?$pair@$$CBUSItemPos@@USOfflineShopItemTable@@@std@@PAX@std@@@std@@V?$_Tree_val@U?$_Tree_simple_types@U?$pair@$$CBUSItemPos@@USOfflineShopItemTable@@@std@@@std@@@2@$00@2@$00@std@@QBEABU?$less@USItemPos@@@2@XZ ; std::_Compressed_pair<std::less<SItemPos>,std::_Compressed_pair<std::allocator<std::_Tree_node<std::pair<SItemPos const ,SOfflineShopItemTable>,void *> >,std::_Tree_val<std::_Tree_simple_types<std::pair<SItemPos const ,SOfflineShopItemTable> > >,1>,1>::_Get_first
PUBLIC	?_Unchecked_begin@?$_Tree@V?$_Tmap_traits@USItemPos@@USShopItemTable@@U?$less@USItemPos@@@std@@V?$allocator@U?$pair@$$CBUSItemPos@@USShopItemTable@@@std@@@4@$0A@@std@@@std@@QAE?AV?$_Tree_unchecked_iterator@V?$_Tree_val@U?$_Tree_simple_types@U?$pair@$$CBUSItemPos@@USShopItemTable@@@std@@@std@@@std@@@2@XZ ; std::_Tree<std::_Tmap_traits<SItemPos,SShopItemTable,std::less<SItemPos>,std::allocator<std::pair<SItemPos const ,SShopItemTable> >,0> >::_Unchecked_begin
PUBLIC	?_Erase_unchecked@?$_Tree@V?$_Tmap_traits@USItemPos@@USShopItemTable@@U?$less@USItemPos@@@std@@V?$allocator@U?$pair@$$CBUSItemPos@@USShopItemTable@@@std@@@4@$0A@@std@@@std@@AAEPAU?$_Tree_node@U?$pair@$$CBUSItemPos@@USShopItemTable@@@std@@PAX@2@V?$_Tree_unchecked_const_iterator@V?$_Tree_val@U?$_Tree_simple_types@U?$pair@$$CBUSItemPos@@USShopItemTable@@@std@@@std@@@std@@U_Iterator_base0@2@@2@@Z ; std::_Tree<std::_Tmap_traits<SItemPos,SShopItemTable,std::less<SItemPos>,std::allocator<std::pair<SItemPos const ,SShopItemTable> >,0> >::_Erase_unchecked
PUBLIC	?_Check_grow_by_1@?$_Tree@V?$_Tmap_traits@USItemPos@@USShopItemTable@@U?$less@USItemPos@@@std@@V?$allocator@U?$pair@$$CBUSItemPos@@USShopItemTable@@@std@@@4@$0A@@std@@@std@@IAEXXZ ; std::_Tree<std::_Tmap_traits<SItemPos,SShopItemTable,std::less<SItemPos>,std::allocator<std::pair<SItemPos const ,SShopItemTable> >,0> >::_Check_grow_by_1
PUBLIC	?deallocate@?$_Default_allocator_traits@V?$allocator@U?$_Tree_node@U?$pair@$$CBUSItemPos@@USShopItemTable@@@std@@PAX@std@@@std@@@std@@SAXAAV?$allocator@U?$_Tree_node@U?$pair@$$CBUSItemPos@@USShopItemTable@@@std@@PAX@std@@@2@QAU?$_Tree_node@U?$pair@$$CBUSItemPos@@USShopItemTable@@@std@@PAX@2@I@Z ; std::_Default_allocator_traits<std::allocator<std::_Tree_node<std::pair<SItemPos const ,SShopItemTable>,void *> > >::deallocate
PUBLIC	?_Min@?$_Tree_val@U?$_Tree_simple_types@U?$pair@$$CBUSItemPos@@USShopItemTable@@@std@@@std@@@std@@SAPAU?$_Tree_node@U?$pair@$$CBUSItemPos@@USShopItemTable@@@std@@PAX@2@PAU32@@Z ; std::_Tree_val<std::_Tree_simple_types<std::pair<SItemPos const ,SShopItemTable> > >::_Min
PUBLIC	?_Insert_node@?$_Tree_val@U?$_Tree_simple_types@U?$pair@$$CBUSItemPos@@USShopItemTable@@@std@@@std@@@std@@QAEPAU?$_Tree_node@U?$pair@$$CBUSItemPos@@USShopItemTable@@@std@@PAX@2@U?$_Tree_id@PAU?$_Tree_node@U?$pair@$$CBUSItemPos@@USShopItemTable@@@std@@PAX@std@@@2@QAU32@@Z ; std::_Tree_val<std::_Tree_simple_types<std::pair<SItemPos const ,SShopItemTable> > >::_Insert_node
PUBLIC	??E?$_Tree_unchecked_const_iterator@V?$_Tree_val@U?$_Tree_simple_types@U?$pair@$$CBUSItemPos@@USShopItemTable@@@std@@@std@@@std@@U_Iterator_base0@2@@std@@QAE?AV01@H@Z ; std::_Tree_unchecked_const_iterator<std::_Tree_val<std::_Tree_simple_types<std::pair<SItemPos const ,SShopItemTable> > >,std::_Iterator_base0>::operator++
PUBLIC	??8?$_Tree_unchecked_const_iterator@V?$_Tree_val@U?$_Tree_simple_types@U?$pair@$$CBUSItemPos@@USShopItemTable@@@std@@@std@@@std@@U_Iterator_base0@2@@std@@QBE_NABV01@@Z ; std::_Tree_unchecked_const_iterator<std::_Tree_val<std::_Tree_simple_types<std::pair<SItemPos const ,SShopItemTable> > >,std::_Iterator_base0>::operator==
PUBLIC	?_Get_first@?$_Compressed_pair@U?$less@USItemPos@@@std@@V?$_Compressed_pair@V?$allocator@U?$_Tree_node@U?$pair@$$CBUSItemPos@@USShopItemTable@@@std@@PAX@std@@@std@@V?$_Tree_val@U?$_Tree_simple_types@U?$pair@$$CBUSItemPos@@USShopItemTable@@@std@@@std@@@2@$00@2@$00@std@@QBEABU?$less@USItemPos@@@2@XZ ; std::_Compressed_pair<std::less<SItemPos>,std::_Compressed_pair<std::allocator<std::_Tree_node<std::pair<SItemPos const ,SShopItemTable>,void *> >,std::_Tree_val<std::_Tree_simple_types<std::pair<SItemPos const ,SShopItemTable> > >,1>,1>::_Get_first
PUBLIC	?allocate@?$allocator@USOfflineShopItemTable@@@std@@QAEPAUSOfflineShopItemTable@@I@Z ; std::allocator<SOfflineShopItemTable>::allocate
PUBLIC	?_Calculate_growth@?$vector@USOfflineShopItemTable@@V?$allocator@USOfflineShopItemTable@@@std@@@std@@ABEII@Z ; std::vector<SOfflineShopItemTable,std::allocator<SOfflineShopItemTable> >::_Calculate_growth
PUBLIC	?_Orphan_range@?$vector@USOfflineShopItemTable@@V?$allocator@USOfflineShopItemTable@@@std@@@std@@ABEXPAUSOfflineShopItemTable@@0@Z ; std::vector<SOfflineShopItemTable,std::allocator<SOfflineShopItemTable> >::_Orphan_range
PUBLIC	?allocate@?$allocator@USShopItemTable@@@std@@QAEPAUSShopItemTable@@I@Z ; std::allocator<SShopItemTable>::allocate
PUBLIC	?_Calculate_growth@?$vector@USShopItemTable@@V?$allocator@USShopItemTable@@@std@@@std@@ABEII@Z ; std::vector<SShopItemTable,std::allocator<SShopItemTable> >::_Calculate_growth
PUBLIC	?_Orphan_range@?$vector@USShopItemTable@@V?$allocator@USShopItemTable@@@std@@@std@@ABEXPAUSShopItemTable@@0@Z ; std::vector<SShopItemTable,std::allocator<SShopItemTable> >::_Orphan_range
PUBLIC	??1_Reallocation_guard@?$vector@USShopItemTable@@V?$allocator@USShopItemTable@@@std@@@std@@QAE@XZ ; std::vector<SShopItemTable,std::allocator<SShopItemTable> >::_Reallocation_guard::~_Reallocation_guard
PUBLIC	?_Get_first@?$_Compressed_pair@V?$allocator@USShopItemTable@@@std@@V?$_Vector_val@U?$_Simple_types@USShopItemTable@@@std@@@2@$00@std@@QAEAAV?$allocator@USShopItemTable@@@2@XZ ; std::_Compressed_pair<std::allocator<SShopItemTable>,std::_Vector_val<std::_Simple_types<SShopItemTable> >,1>::_Get_first
PUBLIC	?_Get_first@?$_Compressed_pair@V?$allocator@USShopItemTable@@@std@@V?$_Vector_val@U?$_Simple_types@USShopItemTable@@@std@@@2@$00@std@@QBEABV?$allocator@USShopItemTable@@@2@XZ ; std::_Compressed_pair<std::allocator<SShopItemTable>,std::_Vector_val<std::_Simple_types<SShopItemTable> >,1>::_Get_first
PUBLIC	??1_Reallocation_guard@?$vector@USOfflineShopItemTable@@V?$allocator@USOfflineShopItemTable@@@std@@@std@@QAE@XZ ; std::vector<SOfflineShopItemTable,std::allocator<SOfflineShopItemTable> >::_Reallocation_guard::~_Reallocation_guard
PUBLIC	?_Get_first@?$_Compressed_pair@V?$allocator@USOfflineShopItemTable@@@std@@V?$_Vector_val@U?$_Simple_types@USOfflineShopItemTable@@@std@@@2@$00@std@@QAEAAV?$allocator@USOfflineShopItemTable@@@2@XZ ; std::_Compressed_pair<std::allocator<SOfflineShopItemTable>,std::_Vector_val<std::_Simple_types<SOfflineShopItemTable> >,1>::_Get_first
PUBLIC	?_Get_first@?$_Compressed_pair@V?$allocator@USOfflineShopItemTable@@@std@@V?$_Vector_val@U?$_Simple_types@USOfflineShopItemTable@@@std@@@2@$00@std@@QBEABV?$allocator@USOfflineShopItemTable@@@2@XZ ; std::_Compressed_pair<std::allocator<SOfflineShopItemTable>,std::_Vector_val<std::_Simple_types<SOfflineShopItemTable> >,1>::_Get_first
PUBLIC	?_Extract@?$_In_place_key_extract_map_impl@USItemPos@@U?$pair@USItemPos@@USShopItemTable@@@std@@@std@@SAABUSItemPos@@ABU?$pair@USItemPos@@USShopItemTable@@@2@@Z ; std::_In_place_key_extract_map_impl<SItemPos,std::pair<SItemPos,SShopItemTable> >::_Extract
PUBLIC	??1?$_Tree_temp_node@V?$allocator@U?$_Tree_node@U?$pair@$$CBUSItemPos@@USShopItemTable@@@std@@PAX@std@@@std@@@std@@QAE@XZ ; std::_Tree_temp_node<std::allocator<std::_Tree_node<std::pair<SItemPos const ,SShopItemTable>,void *> > >::~_Tree_temp_node<std::allocator<std::_Tree_node<std::pair<SItemPos const ,SShopItemTable>,void *> > >
PUBLIC	?_Release@?$_Alloc_construct_ptr@V?$allocator@U?$_Tree_node@U?$pair@$$CBUSItemPos@@USShopItemTable@@@std@@PAX@std@@@std@@@std@@QAEPAU?$_Tree_node@U?$pair@$$CBUSItemPos@@USShopItemTable@@@std@@PAX@2@XZ ; std::_Alloc_construct_ptr<std::allocator<std::_Tree_node<std::pair<SItemPos const ,SShopItemTable>,void *> > >::_Release
PUBLIC	?_Extract@?$_In_place_key_extract_map_impl@USItemPos@@U?$pair@USItemPos@@USOfflineShopItemTable@@@std@@@std@@SAABUSItemPos@@ABU?$pair@USItemPos@@USOfflineShopItemTable@@@2@@Z ; std::_In_place_key_extract_map_impl<SItemPos,std::pair<SItemPos,SOfflineShopItemTable> >::_Extract
PUBLIC	??1?$_Tree_temp_node@V?$allocator@U?$_Tree_node@U?$pair@$$CBUSItemPos@@USOfflineShopItemTable@@@std@@PAX@std@@@std@@@std@@QAE@XZ ; std::_Tree_temp_node<std::allocator<std::_Tree_node<std::pair<SItemPos const ,SOfflineShopItemTable>,void *> > >::~_Tree_temp_node<std::allocator<std::_Tree_node<std::pair<SItemPos const ,SOfflineShopItemTable>,void *> > >
PUBLIC	?_Release@?$_Alloc_construct_ptr@V?$allocator@U?$_Tree_node@U?$pair@$$CBUSItemPos@@USOfflineShopItemTable@@@std@@PAX@std@@@std@@@std@@QAEPAU?$_Tree_node@U?$pair@$$CBUSItemPos@@USOfflineShopItemTable@@@std@@PAX@2@XZ ; std::_Alloc_construct_ptr<std::allocator<std::_Tree_node<std::pair<SItemPos const ,SOfflineShopItemTable>,void *> > >::_Release
PUBLIC	??0?$_Uninitialized_backout_al@V?$allocator@USShopItemTable@@@std@@@std@@QAE@PAUSShopItemTable@@AAV?$allocator@USShopItemTable@@@1@@Z ; std::_Uninitialized_backout_al<std::allocator<SShopItemTable> >::_Uninitialized_backout_al<std::allocator<SShopItemTable> >
PUBLIC	??1?$_Uninitialized_backout_al@V?$allocator@USShopItemTable@@@std@@@std@@QAE@XZ ; std::_Uninitialized_backout_al<std::allocator<SShopItemTable> >::~_Uninitialized_backout_al<std::allocator<SShopItemTable> >
PUBLIC	?_Release@?$_Uninitialized_backout_al@V?$allocator@USShopItemTable@@@std@@@std@@QAEPAUSShopItemTable@@XZ ; std::_Uninitialized_backout_al<std::allocator<SShopItemTable> >::_Release
PUBLIC	??0?$_Uninitialized_backout_al@V?$allocator@USOfflineShopItemTable@@@std@@@std@@QAE@PAUSOfflineShopItemTable@@AAV?$allocator@USOfflineShopItemTable@@@1@@Z ; std::_Uninitialized_backout_al<std::allocator<SOfflineShopItemTable> >::_Uninitialized_backout_al<std::allocator<SOfflineShopItemTable> >
PUBLIC	??1?$_Uninitialized_backout_al@V?$allocator@USOfflineShopItemTable@@@std@@@std@@QAE@XZ ; std::_Uninitialized_backout_al<std::allocator<SOfflineShopItemTable> >::~_Uninitialized_backout_al<std::allocator<SOfflineShopItemTable> >
PUBLIC	?_Release@?$_Uninitialized_backout_al@V?$allocator@USOfflineShopItemTable@@@std@@@std@@QAEPAUSOfflineShopItemTable@@XZ ; std::_Uninitialized_backout_al<std::allocator<SOfflineShopItemTable> >::_Release
PUBLIC	??$_Buyheadnode@V?$allocator@U?$_Tree_node@U?$pair@$$CBUSItemPos@@USOfflineShopItemTable@@@std@@PAX@std@@@std@@@?$_Tree_node@U?$pair@$$CBUSItemPos@@USOfflineShopItemTable@@@std@@PAX@std@@SAPAU01@AAV?$allocator@U?$_Tree_node@U?$pair@$$CBUSItemPos@@USOfflineShopItemTable@@@std@@PAX@std@@@1@@Z ; std::_Tree_node<std::pair<SItemPos const ,SOfflineShopItemTable>,void *>::_Buyheadnode<std::allocator<std::_Tree_node<std::pair<SItemPos const ,SOfflineShopItemTable>,void *> > >
PUBLIC	??$_Buyheadnode@V?$allocator@U?$_Tree_node@U?$pair@$$CBUSItemPos@@USShopItemTable@@@std@@PAX@std@@@std@@@?$_Tree_node@U?$pair@$$CBUSItemPos@@USShopItemTable@@@std@@PAX@std@@SAPAU01@AAV?$allocator@U?$_Tree_node@U?$pair@$$CBUSItemPos@@USShopItemTable@@@std@@PAX@std@@@1@@Z ; std::_Tree_node<std::pair<SItemPos const ,SShopItemTable>,void *>::_Buyheadnode<std::allocator<std::_Tree_node<std::pair<SItemPos const ,SShopItemTable>,void *> > >
PUBLIC	??$_Adl_verify_range@V?$_Tree_unchecked_const_iterator@V?$_Tree_val@U?$_Tree_simple_types@U?$pair@$$CBUSItemPos@@USOfflineShopItemTable@@@std@@@std@@@std@@U_Iterator_base0@2@@std@@V12@@std@@YAXABV?$_Tree_unchecked_const_iterator@V?$_Tree_val@U?$_Tree_simple_types@U?$pair@$$CBUSItemPos@@USOfflineShopItemTable@@@std@@@std@@@std@@U_Iterator_base0@2@@0@0@Z ; std::_Adl_verify_range<std::_Tree_unchecked_const_iterator<std::_Tree_val<std::_Tree_simple_types<std::pair<SItemPos const ,SOfflineShopItemTable> > >,std::_Iterator_base0>,std::_Tree_unchecked_const_iterator<std::_Tree_val<std::_Tree_simple_types<std::pair<SItemPos const ,SOfflineShopItemTable> > >,std::_Iterator_base0> >
PUBLIC	??$forward@ABU?$less@USItemPos@@@std@@@std@@YAABU?$less@USItemPos@@@0@ABU10@@Z ; std::forward<std::less<SItemPos> const &>
PUBLIC	??$_Adl_verify_range@V?$_Tree_unchecked_const_iterator@V?$_Tree_val@U?$_Tree_simple_types@U?$pair@$$CBUSItemPos@@USShopItemTable@@@std@@@std@@@std@@U_Iterator_base0@2@@std@@V12@@std@@YAXABV?$_Tree_unchecked_const_iterator@V?$_Tree_val@U?$_Tree_simple_types@U?$pair@$$CBUSItemPos@@USShopItemTable@@@std@@@std@@@std@@U_Iterator_base0@2@@0@0@Z ; std::_Adl_verify_range<std::_Tree_unchecked_const_iterator<std::_Tree_val<std::_Tree_simple_types<std::pair<SItemPos const ,SShopItemTable> > >,std::_Iterator_base0>,std::_Tree_unchecked_const_iterator<std::_Tree_val<std::_Tree_simple_types<std::pair<SItemPos const ,SShopItemTable> > >,std::_Iterator_base0> >
PUBLIC	??$_Destroy_in_place@PAU?$_Tree_node@U?$pair@$$CBUSItemPos@@USOfflineShopItemTable@@@std@@PAX@std@@@std@@YAXAAPAU?$_Tree_node@U?$pair@$$CBUSItemPos@@USOfflineShopItemTable@@@std@@PAX@0@@Z ; std::_Destroy_in_place<std::_Tree_node<std::pair<SItemPos const ,SOfflineShopItemTable>,void *> *>
PUBLIC	??$destroy@U?$pair@$$CBUSItemPos@@USOfflineShopItemTable@@@std@@@?$_Default_allocator_traits@V?$allocator@U?$_Tree_node@U?$pair@$$CBUSItemPos@@USOfflineShopItemTable@@@std@@PAX@std@@@std@@@std@@SAXAAV?$allocator@U?$_Tree_node@U?$pair@$$CBUSItemPos@@USOfflineShopItemTable@@@std@@PAX@std@@@1@QAU?$pair@$$CBUSItemPos@@USOfflineShopItemTable@@@1@@Z ; std::_Default_allocator_traits<std::allocator<std::_Tree_node<std::pair<SItemPos const ,SOfflineShopItemTable>,void *> > >::destroy<std::pair<SItemPos const ,SOfflineShopItemTable> >
PUBLIC	??$_Destroy_in_place@PAU?$_Tree_node@U?$pair@$$CBUSItemPos@@USShopItemTable@@@std@@PAX@std@@@std@@YAXAAPAU?$_Tree_node@U?$pair@$$CBUSItemPos@@USShopItemTable@@@std@@PAX@0@@Z ; std::_Destroy_in_place<std::_Tree_node<std::pair<SItemPos const ,SShopItemTable>,void *> *>
PUBLIC	??$destroy@U?$pair@$$CBUSItemPos@@USShopItemTable@@@std@@@?$_Default_allocator_traits@V?$allocator@U?$_Tree_node@U?$pair@$$CBUSItemPos@@USShopItemTable@@@std@@PAX@std@@@std@@@std@@SAXAAV?$allocator@U?$_Tree_node@U?$pair@$$CBUSItemPos@@USShopItemTable@@@std@@PAX@std@@@1@QAU?$pair@$$CBUSItemPos@@USShopItemTable@@@1@@Z ; std::_Default_allocator_traits<std::allocator<std::_Tree_node<std::pair<SItemPos const ,SShopItemTable>,void *> > >::destroy<std::pair<SItemPos const ,SShopItemTable> >
PUBLIC	??$construct@USOfflineShopItemTable@@ABU1@@?$_Default_allocator_traits@V?$allocator@USOfflineShopItemTable@@@std@@@std@@SAXAAV?$allocator@USOfflineShopItemTable@@@1@QAUSOfflineShopItemTable@@ABU3@@Z ; std::_Default_allocator_traits<std::allocator<SOfflineShopItemTable> >::construct<SOfflineShopItemTable,SOfflineShopItemTable const &>
PUBLIC	??$_Construct_in_place@USOfflineShopItemTable@@ABU1@@std@@YAXAAUSOfflineShopItemTable@@ABU1@@Z ; std::_Construct_in_place<SOfflineShopItemTable,SOfflineShopItemTable const &>
PUBLIC	??$_Emplace_back@USOfflineShopItemTable@@@?$_Uninitialized_backout_al@V?$allocator@USOfflineShopItemTable@@@std@@@std@@QAEX$$QAUSOfflineShopItemTable@@@Z ; std::_Uninitialized_backout_al<std::allocator<SOfflineShopItemTable> >::_Emplace_back<SOfflineShopItemTable>
PUBLIC	??$_To_address@PAUSOfflineShopItemTable@@@std@@YA?A_PABQAUSOfflineShopItemTable@@@Z ; std::_To_address<SOfflineShopItemTable *>
PUBLIC	??$_Copy_memmove@PAUSOfflineShopItemTable@@PAU1@@std@@YAPAUSOfflineShopItemTable@@PAU1@00@Z ; std::_Copy_memmove<SOfflineShopItemTable *,SOfflineShopItemTable *>
PUBLIC	??$_Unfancy@USOfflineShopItemTable@@@std@@YAPAUSOfflineShopItemTable@@PAU1@@Z ; std::_Unfancy<SOfflineShopItemTable>
PUBLIC	??$construct@USShopItemTable@@ABU1@@?$_Default_allocator_traits@V?$allocator@USShopItemTable@@@std@@@std@@SAXAAV?$allocator@USShopItemTable@@@1@QAUSShopItemTable@@ABU3@@Z ; std::_Default_allocator_traits<std::allocator<SShopItemTable> >::construct<SShopItemTable,SShopItemTable const &>
PUBLIC	??$_Construct_in_place@USShopItemTable@@ABU1@@std@@YAXAAUSShopItemTable@@ABU1@@Z ; std::_Construct_in_place<SShopItemTable,SShopItemTable const &>
PUBLIC	??$_Emplace_back@USShopItemTable@@@?$_Uninitialized_backout_al@V?$allocator@USShopItemTable@@@std@@@std@@QAEX$$QAUSShopItemTable@@@Z ; std::_Uninitialized_backout_al<std::allocator<SShopItemTable> >::_Emplace_back<SShopItemTable>
PUBLIC	??$_To_address@PAUSShopItemTable@@@std@@YA?A_PABQAUSShopItemTable@@@Z ; std::_To_address<SShopItemTable *>
PUBLIC	??$_Copy_memmove@PAUSShopItemTable@@PAU1@@std@@YAPAUSShopItemTable@@PAU1@00@Z ; std::_Copy_memmove<SShopItemTable *,SShopItemTable *>
PUBLIC	??$_Unfancy@USShopItemTable@@@std@@YAPAUSShopItemTable@@PAU1@@Z ; std::_Unfancy<SShopItemTable>
PUBLIC	??$?0AAPAUSOfflineShopItemTable@@AAPAU0@$0A@@?$pair@PAUSOfflineShopItemTable@@PAU1@@std@@QAE@AAPAUSOfflineShopItemTable@@0@Z ; std::pair<SOfflineShopItemTable *,SOfflineShopItemTable *>::pair<SOfflineShopItemTable *,SOfflineShopItemTable *><SOfflineShopItemTable * &,SOfflineShopItemTable * &,0>
PUBLIC	??$swap@USOfflineShopItemTable@@$0A@@std@@YAXAAUSOfflineShopItemTable@@0@Z ; std::swap<SOfflineShopItemTable,0>
PUBLIC	??$_Next_iter@PAUSOfflineShopItemTable@@@std@@YAPAUSOfflineShopItemTable@@PAU1@@Z ; std::_Next_iter<SOfflineShopItemTable *>
PUBLIC	??$_Guess_median_unchecked@PAUSOfflineShopItemTable@@UOfflineShopItemStockSortFunc@@@std@@YAXPAUSOfflineShopItemTable@@00UOfflineShopItemStockSortFunc@@@Z ; std::_Guess_median_unchecked<SOfflineShopItemTable *,OfflineShopItemStockSortFunc>
PUBLIC	??$_Prev_iter@PAUSOfflineShopItemTable@@@std@@YAPAUSOfflineShopItemTable@@PAU1@@Z ; std::_Prev_iter<SOfflineShopItemTable *>
PUBLIC	??$_Pop_heap_unchecked@PAUSOfflineShopItemTable@@UOfflineShopItemStockSortFunc@@@std@@YAXPAUSOfflineShopItemTable@@0UOfflineShopItemStockSortFunc@@@Z ; std::_Pop_heap_unchecked<SOfflineShopItemTable *,OfflineShopItemStockSortFunc>
PUBLIC	??$_Pop_heap_hole_by_index@PAUSOfflineShopItemTable@@U1@UOfflineShopItemStockSortFunc@@@std@@YAXPAUSOfflineShopItemTable@@HH$$QAU1@UOfflineShopItemStockSortFunc@@@Z ; std::_Pop_heap_hole_by_index<SOfflineShopItemTable *,SOfflineShopItemTable,OfflineShopItemStockSortFunc>
PUBLIC	??$_Move_backward_unchecked@PAUSOfflineShopItemTable@@PAU1@@std@@YAPAUSOfflineShopItemTable@@PAU1@00@Z ; std::_Move_backward_unchecked<SOfflineShopItemTable *,SOfflineShopItemTable *>
PUBLIC	??$move@AAUSOfflineShopItemTable@@@std@@YA$$QAUSOfflineShopItemTable@@AAU1@@Z ; std::move<SOfflineShopItemTable &>
PUBLIC	??$forward@V?$_Tree_iterator@V?$_Tree_val@U?$_Tree_simple_types@U?$pair@$$CBUSItemPos@@USOfflineShopItemTable@@@std@@@std@@@std@@@std@@@std@@YA$$QAV?$_Tree_iterator@V?$_Tree_val@U?$_Tree_simple_types@U?$pair@$$CBUSItemPos@@USOfflineShopItemTable@@@std@@@std@@@std@@@0@AAV10@@Z ; std::forward<std::_Tree_iterator<std::_Tree_val<std::_Tree_simple_types<std::pair<SItemPos const ,SOfflineShopItemTable> > > > >
PUBLIC	??$?0PAU?$_Tree_node@U?$pair@$$CBUSItemPos@@USOfflineShopItemTable@@@std@@PAX@std@@_N$0A@@?$pair@PAU?$_Tree_node@U?$pair@$$CBUSItemPos@@USOfflineShopItemTable@@@std@@PAX@std@@_N@std@@QAE@$$QAPAU?$_Tree_node@U?$pair@$$CBUSItemPos@@USOfflineShopItemTable@@@std@@PAX@1@$$QA_N@Z ; std::pair<std::_Tree_node<std::pair<SItemPos const ,SOfflineShopItemTable>,void *> *,bool>::pair<std::_Tree_node<std::pair<SItemPos const ,SOfflineShopItemTable>,void *> *,bool><std::_Tree_node<std::pair<SItemPos const ,SOfflineShopItemTable>,void *> *,bool,0>
PUBLIC	??$?0AAPAU?$_Tree_node@U?$pair@$$CBUSItemPos@@USOfflineShopItemTable@@@std@@PAX@std@@_N$0A@@?$pair@PAU?$_Tree_node@U?$pair@$$CBUSItemPos@@USOfflineShopItemTable@@@std@@PAX@std@@_N@std@@QAE@AAPAU?$_Tree_node@U?$pair@$$CBUSItemPos@@USOfflineShopItemTable@@@std@@PAX@1@$$QA_N@Z ; std::pair<std::_Tree_node<std::pair<SItemPos const ,SOfflineShopItemTable>,void *> *,bool>::pair<std::_Tree_node<std::pair<SItemPos const ,SOfflineShopItemTable>,void *> *,bool><std::_Tree_node<std::pair<SItemPos const ,SOfflineShopItemTable>,void *> * &,bool,0>
PUBLIC	??$?0U?$pair@USItemPos@@USOfflineShopItemTable@@@std@@@?$_Tree_temp_node@V?$allocator@U?$_Tree_node@U?$pair@$$CBUSItemPos@@USOfflineShopItemTable@@@std@@PAX@std@@@std@@@std@@QAE@AAV?$allocator@U?$_Tree_node@U?$pair@$$CBUSItemPos@@USOfflineShopItemTable@@@std@@PAX@std@@@1@PAU?$_Tree_node@U?$pair@$$CBUSItemPos@@USOfflineShopItemTable@@@std@@PAX@1@$$QAU?$pair@USItemPos@@USOfflineShopItemTable@@@1@@Z ; std::_Tree_temp_node<std::allocator<std::_Tree_node<std::pair<SItemPos const ,SOfflineShopItemTable>,void *> > >::_Tree_temp_node<std::allocator<std::_Tree_node<std::pair<SItemPos const ,SOfflineShopItemTable>,void *> > ><std::pair<SItemPos,SOfflineShopItemTable> >
PUBLIC	??$?0AAPAUSShopItemTable@@AAPAU0@$0A@@?$pair@PAUSShopItemTable@@PAU1@@std@@QAE@AAPAUSShopItemTable@@0@Z ; std::pair<SShopItemTable *,SShopItemTable *>::pair<SShopItemTable *,SShopItemTable *><SShopItemTable * &,SShopItemTable * &,0>
PUBLIC	??$swap@USShopItemTable@@$0A@@std@@YAXAAUSShopItemTable@@0@Z ; std::swap<SShopItemTable,0>
PUBLIC	??$_Next_iter@PAUSShopItemTable@@@std@@YAPAUSShopItemTable@@PAU1@@Z ; std::_Next_iter<SShopItemTable *>
PUBLIC	??$_Guess_median_unchecked@PAUSShopItemTable@@UItemStockSortFunc@@@std@@YAXPAUSShopItemTable@@00UItemStockSortFunc@@@Z ; std::_Guess_median_unchecked<SShopItemTable *,ItemStockSortFunc>
PUBLIC	??$_Prev_iter@PAUSShopItemTable@@@std@@YAPAUSShopItemTable@@PAU1@@Z ; std::_Prev_iter<SShopItemTable *>
PUBLIC	??$_Pop_heap_unchecked@PAUSShopItemTable@@UItemStockSortFunc@@@std@@YAXPAUSShopItemTable@@0UItemStockSortFunc@@@Z ; std::_Pop_heap_unchecked<SShopItemTable *,ItemStockSortFunc>
PUBLIC	??$_Pop_heap_hole_by_index@PAUSShopItemTable@@U1@UItemStockSortFunc@@@std@@YAXPAUSShopItemTable@@HH$$QAU1@UItemStockSortFunc@@@Z ; std::_Pop_heap_hole_by_index<SShopItemTable *,SShopItemTable,ItemStockSortFunc>
PUBLIC	??$_Move_backward_unchecked@PAUSShopItemTable@@PAU1@@std@@YAPAUSShopItemTable@@PAU1@00@Z ; std::_Move_backward_unchecked<SShopItemTable *,SShopItemTable *>
PUBLIC	??$move@AAUSShopItemTable@@@std@@YA$$QAUSShopItemTable@@AAU1@@Z ; std::move<SShopItemTable &>
PUBLIC	??$forward@V?$_Tree_iterator@V?$_Tree_val@U?$_Tree_simple_types@U?$pair@$$CBUSItemPos@@USShopItemTable@@@std@@@std@@@std@@@std@@@std@@YA$$QAV?$_Tree_iterator@V?$_Tree_val@U?$_Tree_simple_types@U?$pair@$$CBUSItemPos@@USShopItemTable@@@std@@@std@@@std@@@0@AAV10@@Z ; std::forward<std::_Tree_iterator<std::_Tree_val<std::_Tree_simple_types<std::pair<SItemPos const ,SShopItemTable> > > > >
PUBLIC	??$?0PAU?$_Tree_node@U?$pair@$$CBUSItemPos@@USShopItemTable@@@std@@PAX@std@@_N$0A@@?$pair@PAU?$_Tree_node@U?$pair@$$CBUSItemPos@@USShopItemTable@@@std@@PAX@std@@_N@std@@QAE@$$QAPAU?$_Tree_node@U?$pair@$$CBUSItemPos@@USShopItemTable@@@std@@PAX@1@$$QA_N@Z ; std::pair<std::_Tree_node<std::pair<SItemPos const ,SShopItemTable>,void *> *,bool>::pair<std::_Tree_node<std::pair<SItemPos const ,SShopItemTable>,void *> *,bool><std::_Tree_node<std::pair<SItemPos const ,SShopItemTable>,void *> *,bool,0>
PUBLIC	??$?0AAPAU?$_Tree_node@U?$pair@$$CBUSItemPos@@USShopItemTable@@@std@@PAX@std@@_N$0A@@?$pair@PAU?$_Tree_node@U?$pair@$$CBUSItemPos@@USShopItemTable@@@std@@PAX@std@@_N@std@@QAE@AAPAU?$_Tree_node@U?$pair@$$CBUSItemPos@@USShopItemTable@@@std@@PAX@1@$$QA_N@Z ; std::pair<std::_Tree_node<std::pair<SItemPos const ,SShopItemTable>,void *> *,bool>::pair<std::_Tree_node<std::pair<SItemPos const ,SShopItemTable>,void *> *,bool><std::_Tree_node<std::pair<SItemPos const ,SShopItemTable>,void *> * &,bool,0>
PUBLIC	??$?0U?$pair@USItemPos@@USShopItemTable@@@std@@@?$_Tree_temp_node@V?$allocator@U?$_Tree_node@U?$pair@$$CBUSItemPos@@USShopItemTable@@@std@@PAX@std@@@std@@@std@@QAE@AAV?$allocator@U?$_Tree_node@U?$pair@$$CBUSItemPos@@USShopItemTable@@@std@@PAX@std@@@1@PAU?$_Tree_node@U?$pair@$$CBUSItemPos@@USShopItemTable@@@std@@PAX@1@$$QAU?$pair@USItemPos@@USShopItemTable@@@1@@Z ; std::_Tree_temp_node<std::allocator<std::_Tree_node<std::pair<SItemPos const ,SShopItemTable>,void *> > >::_Tree_temp_node<std::allocator<std::_Tree_node<std::pair<SItemPos const ,SShopItemTable>,void *> > ><std::pair<SItemPos,SShopItemTable> >
PUBLIC	??$forward@AAPAU?$_Tree_node@U?$pair@$$CBUSItemPos@@USOfflineShopItemTable@@@std@@PAX@std@@@std@@YAAAPAU?$_Tree_node@U?$pair@$$CBUSItemPos@@USOfflineShopItemTable@@@std@@PAX@0@AAPAU10@@Z ; std::forward<std::_Tree_node<std::pair<SItemPos const ,SOfflineShopItemTable>,void *> * &>
PUBLIC	??$forward@AAPAU?$_Tree_node@U?$pair@$$CBUSItemPos@@USShopItemTable@@@std@@PAX@std@@@std@@YAAAPAU?$_Tree_node@U?$pair@$$CBUSItemPos@@USShopItemTable@@@std@@PAX@0@AAPAU10@@Z ; std::forward<std::_Tree_node<std::pair<SItemPos const ,SShopItemTable>,void *> * &>
PUBLIC	??$?0$$V@?$_Compressed_pair@V?$allocator@U?$_Tree_node@U?$pair@$$CBUSItemPos@@USOfflineShopItemTable@@@std@@PAX@std@@@std@@V?$_Tree_val@U?$_Tree_simple_types@U?$pair@$$CBUSItemPos@@USOfflineShopItemTable@@@std@@@std@@@2@$00@std@@QAE@U_Zero_then_variadic_args_t@1@@Z ; std::_Compressed_pair<std::allocator<std::_Tree_node<std::pair<SItemPos const ,SOfflineShopItemTable>,void *> >,std::_Tree_val<std::_Tree_simple_types<std::pair<SItemPos const ,SOfflineShopItemTable> > >,1>::_Compressed_pair<std::allocator<std::_Tree_node<std::pair<SItemPos const ,SOfflineShopItemTable>,void *> >,std::_Tree_val<std::_Tree_simple_types<std::pair<SItemPos const ,SOfflineShopItemTable> > >,1><>
PUBLIC	??$?0$$V@?$_Compressed_pair@V?$allocator@U?$_Tree_node@U?$pair@$$CBUSItemPos@@USShopItemTable@@@std@@PAX@std@@@std@@V?$_Tree_val@U?$_Tree_simple_types@U?$pair@$$CBUSItemPos@@USShopItemTable@@@std@@@std@@@2@$00@std@@QAE@U_Zero_then_variadic_args_t@1@@Z ; std::_Compressed_pair<std::allocator<std::_Tree_node<std::pair<SItemPos const ,SShopItemTable>,void *> >,std::_Tree_val<std::_Tree_simple_types<std::pair<SItemPos const ,SShopItemTable> > >,1>::_Compressed_pair<std::allocator<std::_Tree_node<std::pair<SItemPos const ,SShopItemTable>,void *> >,std::_Tree_val<std::_Tree_simple_types<std::pair<SItemPos const ,SShopItemTable> > >,1><>
PUBLIC	??R?$less@USItemPos@@@std@@QBE_NABUSItemPos@@0@Z ; std::less<SItemPos>::operator()
PUBLIC	?_Erase_unchecked@?$_Tree@V?$_Tmap_traits@USItemPos@@USOfflineShopItemTable@@U?$less@USItemPos@@@std@@V?$allocator@U?$pair@$$CBUSItemPos@@USOfflineShopItemTable@@@std@@@4@$0A@@std@@@std@@AAEPAU?$_Tree_node@U?$pair@$$CBUSItemPos@@USOfflineShopItemTable@@@std@@PAX@2@V?$_Tree_unchecked_const_iterator@V?$_Tree_val@U?$_Tree_simple_types@U?$pair@$$CBUSItemPos@@USOfflineShopItemTable@@@std@@@std@@@std@@U_Iterator_base0@2@@2@0@Z ; std::_Tree<std::_Tmap_traits<SItemPos,SOfflineShopItemTable,std::less<SItemPos>,std::allocator<std::pair<SItemPos const ,SOfflineShopItemTable> >,0> >::_Erase_unchecked
PUBLIC	?_Alloc_sentinel_and_proxy@?$_Tree@V?$_Tmap_traits@USItemPos@@USOfflineShopItemTable@@U?$less@USItemPos@@@std@@V?$allocator@U?$pair@$$CBUSItemPos@@USOfflineShopItemTable@@@std@@@4@$0A@@std@@@std@@IAEXXZ ; std::_Tree<std::_Tmap_traits<SItemPos,SOfflineShopItemTable,std::less<SItemPos>,std::allocator<std::pair<SItemPos const ,SOfflineShopItemTable> >,0> >::_Alloc_sentinel_and_proxy
PUBLIC	?_Getcomp@?$_Tree@V?$_Tmap_traits@USItemPos@@USOfflineShopItemTable@@U?$less@USItemPos@@@std@@V?$allocator@U?$pair@$$CBUSItemPos@@USOfflineShopItemTable@@@std@@@4@$0A@@std@@@std@@IBEABU?$less@USItemPos@@@2@XZ ; std::_Tree<std::_Tmap_traits<SItemPos,SOfflineShopItemTable,std::less<SItemPos>,std::allocator<std::pair<SItemPos const ,SOfflineShopItemTable> >,0> >::_Getcomp
PUBLIC	??D?$_Tree_const_iterator@V?$_Tree_val@U?$_Tree_simple_types@U?$pair@$$CBUSItemPos@@USOfflineShopItemTable@@@std@@@std@@@std@@@std@@QBEABU?$pair@$$CBUSItemPos@@USOfflineShopItemTable@@@1@XZ ; std::_Tree_const_iterator<std::_Tree_val<std::_Tree_simple_types<std::pair<SItemPos const ,SOfflineShopItemTable> > > >::operator*
PUBLIC	??E?$_Tree_unchecked_const_iterator@V?$_Tree_val@U?$_Tree_simple_types@U?$pair@$$CBUSItemPos@@USOfflineShopItemTable@@@std@@@std@@@std@@U_Iterator_base0@2@@std@@QAEAAV01@XZ ; std::_Tree_unchecked_const_iterator<std::_Tree_val<std::_Tree_simple_types<std::pair<SItemPos const ,SOfflineShopItemTable> > >,std::_Iterator_base0>::operator++
PUBLIC	?_Get_first@?$_Compressed_pair@V?$allocator@U?$_Tree_node@U?$pair@$$CBUSItemPos@@USOfflineShopItemTable@@@std@@PAX@std@@@std@@V?$_Tree_val@U?$_Tree_simple_types@U?$pair@$$CBUSItemPos@@USOfflineShopItemTable@@@std@@@std@@@2@$00@std@@QAEAAV?$allocator@U?$_Tree_node@U?$pair@$$CBUSItemPos@@USOfflineShopItemTable@@@std@@PAX@std@@@2@XZ ; std::_Compressed_pair<std::allocator<std::_Tree_node<std::pair<SItemPos const ,SOfflineShopItemTable>,void *> >,std::_Tree_val<std::_Tree_simple_types<std::pair<SItemPos const ,SOfflineShopItemTable> > >,1>::_Get_first
PUBLIC	?_Erase_unchecked@?$_Tree@V?$_Tmap_traits@USItemPos@@USShopItemTable@@U?$less@USItemPos@@@std@@V?$allocator@U?$pair@$$CBUSItemPos@@USShopItemTable@@@std@@@4@$0A@@std@@@std@@AAEPAU?$_Tree_node@U?$pair@$$CBUSItemPos@@USShopItemTable@@@std@@PAX@2@V?$_Tree_unchecked_const_iterator@V?$_Tree_val@U?$_Tree_simple_types@U?$pair@$$CBUSItemPos@@USShopItemTable@@@std@@@std@@@std@@U_Iterator_base0@2@@2@0@Z ; std::_Tree<std::_Tmap_traits<SItemPos,SShopItemTable,std::less<SItemPos>,std::allocator<std::pair<SItemPos const ,SShopItemTable> >,0> >::_Erase_unchecked
PUBLIC	?_Alloc_sentinel_and_proxy@?$_Tree@V?$_Tmap_traits@USItemPos@@USShopItemTable@@U?$less@USItemPos@@@std@@V?$allocator@U?$pair@$$CBUSItemPos@@USShopItemTable@@@std@@@4@$0A@@std@@@std@@IAEXXZ ; std::_Tree<std::_Tmap_traits<SItemPos,SShopItemTable,std::less<SItemPos>,std::allocator<std::pair<SItemPos const ,SShopItemTable> >,0> >::_Alloc_sentinel_and_proxy
PUBLIC	?_Getcomp@?$_Tree@V?$_Tmap_traits@USItemPos@@USShopItemTable@@U?$less@USItemPos@@@std@@V?$allocator@U?$pair@$$CBUSItemPos@@USShopItemTable@@@std@@@4@$0A@@std@@@std@@IBEABU?$less@USItemPos@@@2@XZ ; std::_Tree<std::_Tmap_traits<SItemPos,SShopItemTable,std::less<SItemPos>,std::allocator<std::pair<SItemPos const ,SShopItemTable> >,0> >::_Getcomp
PUBLIC	??D?$_Tree_const_iterator@V?$_Tree_val@U?$_Tree_simple_types@U?$pair@$$CBUSItemPos@@USShopItemTable@@@std@@@std@@@std@@@std@@QBEABU?$pair@$$CBUSItemPos@@USShopItemTable@@@1@XZ ; std::_Tree_const_iterator<std::_Tree_val<std::_Tree_simple_types<std::pair<SItemPos const ,SShopItemTable> > > >::operator*
PUBLIC	??E?$_Tree_unchecked_const_iterator@V?$_Tree_val@U?$_Tree_simple_types@U?$pair@$$CBUSItemPos@@USShopItemTable@@@std@@@std@@@std@@U_Iterator_base0@2@@std@@QAEAAV01@XZ ; std::_Tree_unchecked_const_iterator<std::_Tree_val<std::_Tree_simple_types<std::pair<SItemPos const ,SShopItemTable> > >,std::_Iterator_base0>::operator++
PUBLIC	?_Get_first@?$_Compressed_pair@V?$allocator@U?$_Tree_node@U?$pair@$$CBUSItemPos@@USShopItemTable@@@std@@PAX@std@@@std@@V?$_Tree_val@U?$_Tree_simple_types@U?$pair@$$CBUSItemPos@@USShopItemTable@@@std@@@std@@@2@$00@std@@QAEAAV?$allocator@U?$_Tree_node@U?$pair@$$CBUSItemPos@@USShopItemTable@@@std@@PAX@std@@@2@XZ ; std::_Compressed_pair<std::allocator<std::_Tree_node<std::pair<SItemPos const ,SShopItemTable>,void *> >,std::_Tree_val<std::_Tree_simple_types<std::pair<SItemPos const ,SShopItemTable> > >,1>::_Get_first
PUBLIC	??0?$allocator@USOfflineShopItemTable@@@std@@QAE@XZ ; std::allocator<SOfflineShopItemTable>::allocator<SOfflineShopItemTable>
PUBLIC	?deallocate@?$allocator@USOfflineShopItemTable@@@std@@QAEXQAUSOfflineShopItemTable@@I@Z ; std::allocator<SOfflineShopItemTable>::deallocate
PUBLIC	?_Change_array@?$vector@USOfflineShopItemTable@@V?$allocator@USOfflineShopItemTable@@@std@@@std@@AAEXQAUSOfflineShopItemTable@@II@Z ; std::vector<SOfflineShopItemTable,std::allocator<SOfflineShopItemTable> >::_Change_array
PUBLIC	?_Getal@?$vector@USOfflineShopItemTable@@V?$allocator@USOfflineShopItemTable@@@std@@@std@@AAEAAV?$allocator@USOfflineShopItemTable@@@2@XZ ; std::vector<SOfflineShopItemTable,std::allocator<SOfflineShopItemTable> >::_Getal
PUBLIC	?_Getal@?$vector@USOfflineShopItemTable@@V?$allocator@USOfflineShopItemTable@@@std@@@std@@ABEABV?$allocator@USOfflineShopItemTable@@@2@XZ ; std::vector<SOfflineShopItemTable,std::allocator<SOfflineShopItemTable> >::_Getal
PUBLIC	??0?$allocator@USShopItemTable@@@std@@QAE@XZ	; std::allocator<SShopItemTable>::allocator<SShopItemTable>
PUBLIC	?deallocate@?$allocator@USShopItemTable@@@std@@QAEXQAUSShopItemTable@@I@Z ; std::allocator<SShopItemTable>::deallocate
PUBLIC	?_Change_array@?$vector@USShopItemTable@@V?$allocator@USShopItemTable@@@std@@@std@@AAEXQAUSShopItemTable@@II@Z ; std::vector<SShopItemTable,std::allocator<SShopItemTable> >::_Change_array
PUBLIC	?_Getal@?$vector@USShopItemTable@@V?$allocator@USShopItemTable@@@std@@@std@@AAEAAV?$allocator@USShopItemTable@@@2@XZ ; std::vector<SShopItemTable,std::allocator<SShopItemTable> >::_Getal
PUBLIC	?_Getal@?$vector@USShopItemTable@@V?$allocator@USShopItemTable@@@std@@@std@@ABEABV?$allocator@USShopItemTable@@@2@XZ ; std::vector<SShopItemTable,std::allocator<SShopItemTable> >::_Getal
PUBLIC	?max_size@?$_Default_allocator_traits@V?$allocator@USShopItemTable@@@std@@@std@@SAIABV?$allocator@USShopItemTable@@@2@@Z ; std::_Default_allocator_traits<std::allocator<SShopItemTable> >::max_size
PUBLIC	??0?$_Vector_val@U?$_Simple_types@USShopItemTable@@@std@@@std@@QAE@XZ ; std::_Vector_val<std::_Simple_types<SShopItemTable> >::_Vector_val<std::_Simple_types<SShopItemTable> >
PUBLIC	??1_Simple_reallocation_guard@?$vector@USShopItemTable@@V?$allocator@USShopItemTable@@@std@@@std@@QAE@XZ ; std::vector<SShopItemTable,std::allocator<SShopItemTable> >::_Simple_reallocation_guard::~_Simple_reallocation_guard
PUBLIC	?max_size@?$_Default_allocator_traits@V?$allocator@USOfflineShopItemTable@@@std@@@std@@SAIABV?$allocator@USOfflineShopItemTable@@@2@@Z ; std::_Default_allocator_traits<std::allocator<SOfflineShopItemTable> >::max_size
PUBLIC	??0?$_Vector_val@U?$_Simple_types@USOfflineShopItemTable@@@std@@@std@@QAE@XZ ; std::_Vector_val<std::_Simple_types<SOfflineShopItemTable> >::_Vector_val<std::_Simple_types<SOfflineShopItemTable> >
PUBLIC	??1_Simple_reallocation_guard@?$vector@USOfflineShopItemTable@@V?$allocator@USOfflineShopItemTable@@@std@@@std@@QAE@XZ ; std::vector<SOfflineShopItemTable,std::allocator<SOfflineShopItemTable> >::_Simple_reallocation_guard::~_Simple_reallocation_guard
PUBLIC	??$?0ABU?$less@USItemPos@@@std@@U_Zero_then_variadic_args_t@1@@?$_Compressed_pair@U?$less@USItemPos@@@std@@V?$_Compressed_pair@V?$allocator@U?$_Tree_node@U?$pair@$$CBUSItemPos@@USOfflineShopItemTable@@@std@@PAX@std@@@std@@V?$_Tree_val@U?$_Tree_simple_types@U?$pair@$$CBUSItemPos@@USOfflineShopItemTable@@@std@@@std@@@2@$00@2@$00@std@@QAE@U_One_then_variadic_args_t@1@ABU?$less@USItemPos@@@1@$$QAU_Zero_then_variadic_args_t@1@@Z ; std::_Compressed_pair<std::less<SItemPos>,std::_Compressed_pair<std::allocator<std::_Tree_node<std::pair<SItemPos const ,SOfflineShopItemTable>,void *> >,std::_Tree_val<std::_Tree_simple_types<std::pair<SItemPos const ,SOfflineShopItemTable> > >,1>,1>::_Compressed_pair<std::less<SItemPos>,std::_Compressed_pair<std::allocator<std::_Tree_node<std::pair<SItemPos const ,SOfflineShopItemTable>,void *> >,std::_Tree_val<std::_Tree_simple_types<std::pair<SItemPos const ,SOfflineShopItemTable> > >,1>,1><std::less<SItemPos> const &,std::_Zero_then_variadic_args_t>
PUBLIC	??$_Get_unwrapped@AAV?$_Tree_unchecked_const_iterator@V?$_Tree_val@U?$_Tree_simple_types@U?$pair@$$CBUSItemPos@@USOfflineShopItemTable@@@std@@@std@@@std@@U_Iterator_base0@2@@std@@@std@@YA?A_TAAV?$_Tree_unchecked_const_iterator@V?$_Tree_val@U?$_Tree_simple_types@U?$pair@$$CBUSItemPos@@USOfflineShopItemTable@@@std@@@std@@@std@@U_Iterator_base0@2@@0@@Z ; std::_Get_unwrapped<std::_Tree_unchecked_const_iterator<std::_Tree_val<std::_Tree_simple_types<std::pair<SItemPos const ,SOfflineShopItemTable> > >,std::_Iterator_base0> &>
PUBLIC	??$distance@V?$_Tree_unchecked_const_iterator@V?$_Tree_val@U?$_Tree_simple_types@U?$pair@$$CBUSItemPos@@USOfflineShopItemTable@@@std@@@std@@@std@@U_Iterator_base0@2@@std@@@std@@YAHV?$_Tree_unchecked_const_iterator@V?$_Tree_val@U?$_Tree_simple_types@U?$pair@$$CBUSItemPos@@USOfflineShopItemTable@@@std@@@std@@@std@@U_Iterator_base0@2@@0@0@Z ; std::distance<std::_Tree_unchecked_const_iterator<std::_Tree_val<std::_Tree_simple_types<std::pair<SItemPos const ,SOfflineShopItemTable> > >,std::_Iterator_base0> >
PUBLIC	??$addressof@V?$_Tree_val@U?$_Tree_simple_types@U?$pair@$$CBUSItemPos@@USOfflineShopItemTable@@@std@@@std@@@std@@@std@@YAPAV?$_Tree_val@U?$_Tree_simple_types@U?$pair@$$CBUSItemPos@@USOfflineShopItemTable@@@std@@@std@@@0@AAV10@@Z ; std::addressof<std::_Tree_val<std::_Tree_simple_types<std::pair<SItemPos const ,SOfflineShopItemTable> > > >
PUBLIC	??$addressof@$$CBV?$_Tree_val@U?$_Tree_simple_types@U?$pair@$$CBUSItemPos@@USOfflineShopItemTable@@@std@@@std@@@std@@@std@@YAPBV?$_Tree_val@U?$_Tree_simple_types@U?$pair@$$CBUSItemPos@@USOfflineShopItemTable@@@std@@@std@@@0@ABV10@@Z ; std::addressof<std::_Tree_val<std::_Tree_simple_types<std::pair<SItemPos const ,SOfflineShopItemTable> > > const >
PUBLIC	??$?0ABU?$less@USItemPos@@@std@@U_Zero_then_variadic_args_t@1@@?$_Compressed_pair@U?$less@USItemPos@@@std@@V?$_Compressed_pair@V?$allocator@U?$_Tree_node@U?$pair@$$CBUSItemPos@@USShopItemTable@@@std@@PAX@std@@@std@@V?$_Tree_val@U?$_Tree_simple_types@U?$pair@$$CBUSItemPos@@USShopItemTable@@@std@@@std@@@2@$00@2@$00@std@@QAE@U_One_then_variadic_args_t@1@ABU?$less@USItemPos@@@1@$$QAU_Zero_then_variadic_args_t@1@@Z ; std::_Compressed_pair<std::less<SItemPos>,std::_Compressed_pair<std::allocator<std::_Tree_node<std::pair<SItemPos const ,SShopItemTable>,void *> >,std::_Tree_val<std::_Tree_simple_types<std::pair<SItemPos const ,SShopItemTable> > >,1>,1>::_Compressed_pair<std::less<SItemPos>,std::_Compressed_pair<std::allocator<std::_Tree_node<std::pair<SItemPos const ,SShopItemTable>,void *> >,std::_Tree_val<std::_Tree_simple_types<std::pair<SItemPos const ,SShopItemTable> > >,1>,1><std::less<SItemPos> const &,std::_Zero_then_variadic_args_t>
PUBLIC	??$_Get_unwrapped@AAV?$_Tree_unchecked_const_iterator@V?$_Tree_val@U?$_Tree_simple_types@U?$pair@$$CBUSItemPos@@USShopItemTable@@@std@@@std@@@std@@U_Iterator_base0@2@@std@@@std@@YA?A_TAAV?$_Tree_unchecked_const_iterator@V?$_Tree_val@U?$_Tree_simple_types@U?$pair@$$CBUSItemPos@@USShopItemTable@@@std@@@std@@@std@@U_Iterator_base0@2@@0@@Z ; std::_Get_unwrapped<std::_Tree_unchecked_const_iterator<std::_Tree_val<std::_Tree_simple_types<std::pair<SItemPos const ,SShopItemTable> > >,std::_Iterator_base0> &>
PUBLIC	??$distance@V?$_Tree_unchecked_const_iterator@V?$_Tree_val@U?$_Tree_simple_types@U?$pair@$$CBUSItemPos@@USShopItemTable@@@std@@@std@@@std@@U_Iterator_base0@2@@std@@@std@@YAHV?$_Tree_unchecked_const_iterator@V?$_Tree_val@U?$_Tree_simple_types@U?$pair@$$CBUSItemPos@@USShopItemTable@@@std@@@std@@@std@@U_Iterator_base0@2@@0@0@Z ; std::distance<std::_Tree_unchecked_const_iterator<std::_Tree_val<std::_Tree_simple_types<std::pair<SItemPos const ,SShopItemTable> > >,std::_Iterator_base0> >
PUBLIC	??$addressof@V?$_Tree_val@U?$_Tree_simple_types@U?$pair@$$CBUSItemPos@@USShopItemTable@@@std@@@std@@@std@@@std@@YAPAV?$_Tree_val@U?$_Tree_simple_types@U?$pair@$$CBUSItemPos@@USShopItemTable@@@std@@@std@@@0@AAV10@@Z ; std::addressof<std::_Tree_val<std::_Tree_simple_types<std::pair<SItemPos const ,SShopItemTable> > > >
PUBLIC	??$addressof@$$CBV?$_Tree_val@U?$_Tree_simple_types@U?$pair@$$CBUSItemPos@@USShopItemTable@@@std@@@std@@@std@@@std@@YAPBV?$_Tree_val@U?$_Tree_simple_types@U?$pair@$$CBUSItemPos@@USShopItemTable@@@std@@@std@@@0@ABV10@@Z ; std::addressof<std::_Tree_val<std::_Tree_simple_types<std::pair<SItemPos const ,SShopItemTable> > > const >
PUBLIC	??$_Destroy_range@V?$allocator@USOfflineShopItemTable@@@std@@@std@@YAXPAUSOfflineShopItemTable@@QAU1@AAV?$allocator@USOfflineShopItemTable@@@0@@Z ; std::_Destroy_range<std::allocator<SOfflineShopItemTable> >
PUBLIC	??$_Destroy_range@V?$allocator@USShopItemTable@@@std@@@std@@YAXPAUSShopItemTable@@QAU1@AAV?$allocator@USShopItemTable@@@0@@Z ; std::_Destroy_range<std::allocator<SShopItemTable> >
PUBLIC	??$addressof@U?$pair@$$CBUSItemPos@@USShopItemTable@@@std@@@std@@YAPAU?$pair@$$CBUSItemPos@@USShopItemTable@@@0@AAU10@@Z ; std::addressof<std::pair<SItemPos const ,SShopItemTable> >
PUBLIC	??$addressof@U?$pair@$$CBUSItemPos@@USOfflineShopItemTable@@@std@@@std@@YAPAU?$pair@$$CBUSItemPos@@USOfflineShopItemTable@@@0@AAU10@@Z ; std::addressof<std::pair<SItemPos const ,SOfflineShopItemTable> >
PUBLIC	??$_Freenode0@V?$allocator@U?$_Tree_node@U?$pair@$$CBUSItemPos@@USOfflineShopItemTable@@@std@@PAX@std@@@std@@@?$_Tree_node@U?$pair@$$CBUSItemPos@@USOfflineShopItemTable@@@std@@PAX@std@@SAXAAV?$allocator@U?$_Tree_node@U?$pair@$$CBUSItemPos@@USOfflineShopItemTable@@@std@@PAX@std@@@1@PAU01@@Z ; std::_Tree_node<std::pair<SItemPos const ,SOfflineShopItemTable>,void *>::_Freenode0<std::allocator<std::_Tree_node<std::pair<SItemPos const ,SOfflineShopItemTable>,void *> > >
PUBLIC	??$_Freenode@V?$allocator@U?$_Tree_node@U?$pair@$$CBUSItemPos@@USOfflineShopItemTable@@@std@@PAX@std@@@std@@@?$_Tree_node@U?$pair@$$CBUSItemPos@@USOfflineShopItemTable@@@std@@PAX@std@@SAXAAV?$allocator@U?$_Tree_node@U?$pair@$$CBUSItemPos@@USOfflineShopItemTable@@@std@@PAX@std@@@1@PAU01@@Z ; std::_Tree_node<std::pair<SItemPos const ,SOfflineShopItemTable>,void *>::_Freenode<std::allocator<std::_Tree_node<std::pair<SItemPos const ,SOfflineShopItemTable>,void *> > >
PUBLIC	??$exchange@PAU?$_Tree_node@U?$pair@$$CBUSItemPos@@USOfflineShopItemTable@@@std@@PAX@std@@AAPAU12@@std@@YAPAU?$_Tree_node@U?$pair@$$CBUSItemPos@@USOfflineShopItemTable@@@std@@PAX@0@AAPAU10@0@Z ; std::exchange<std::_Tree_node<std::pair<SItemPos const ,SOfflineShopItemTable>,void *> *,std::_Tree_node<std::pair<SItemPos const ,SOfflineShopItemTable>,void *> * &>
PUBLIC	??$_Lower_bound_duplicate@USItemPos@@@?$_Tree@V?$_Tmap_traits@USItemPos@@USOfflineShopItemTable@@U?$less@USItemPos@@@std@@V?$allocator@U?$pair@$$CBUSItemPos@@USOfflineShopItemTable@@@std@@@4@$0A@@std@@@std@@IBE_NQAU?$_Tree_node@U?$pair@$$CBUSItemPos@@USOfflineShopItemTable@@@std@@PAX@1@ABUSItemPos@@@Z ; std::_Tree<std::_Tmap_traits<SItemPos,SOfflineShopItemTable,std::less<SItemPos>,std::allocator<std::pair<SItemPos const ,SOfflineShopItemTable> >,0> >::_Lower_bound_duplicate<SItemPos>
PUBLIC	??$_Find_lower_bound@USItemPos@@@?$_Tree@V?$_Tmap_traits@USItemPos@@USOfflineShopItemTable@@U?$less@USItemPos@@@std@@V?$allocator@U?$pair@$$CBUSItemPos@@USOfflineShopItemTable@@@std@@@4@$0A@@std@@@std@@IBE?AU?$_Tree_find_result@PAU?$_Tree_node@U?$pair@$$CBUSItemPos@@USOfflineShopItemTable@@@std@@PAX@std@@@1@ABUSItemPos@@@Z ; std::_Tree<std::_Tmap_traits<SItemPos,SOfflineShopItemTable,std::less<SItemPos>,std::allocator<std::pair<SItemPos const ,SOfflineShopItemTable> >,0> >::_Find_lower_bound<SItemPos>
PUBLIC	??$_Freenode0@V?$allocator@U?$_Tree_node@U?$pair@$$CBUSItemPos@@USShopItemTable@@@std@@PAX@std@@@std@@@?$_Tree_node@U?$pair@$$CBUSItemPos@@USShopItemTable@@@std@@PAX@std@@SAXAAV?$allocator@U?$_Tree_node@U?$pair@$$CBUSItemPos@@USShopItemTable@@@std@@PAX@std@@@1@PAU01@@Z ; std::_Tree_node<std::pair<SItemPos const ,SShopItemTable>,void *>::_Freenode0<std::allocator<std::_Tree_node<std::pair<SItemPos const ,SShopItemTable>,void *> > >
PUBLIC	??$_Freenode@V?$allocator@U?$_Tree_node@U?$pair@$$CBUSItemPos@@USShopItemTable@@@std@@PAX@std@@@std@@@?$_Tree_node@U?$pair@$$CBUSItemPos@@USShopItemTable@@@std@@PAX@std@@SAXAAV?$allocator@U?$_Tree_node@U?$pair@$$CBUSItemPos@@USShopItemTable@@@std@@PAX@std@@@1@PAU01@@Z ; std::_Tree_node<std::pair<SItemPos const ,SShopItemTable>,void *>::_Freenode<std::allocator<std::_Tree_node<std::pair<SItemPos const ,SShopItemTable>,void *> > >
PUBLIC	??$exchange@PAU?$_Tree_node@U?$pair@$$CBUSItemPos@@USShopItemTable@@@std@@PAX@std@@AAPAU12@@std@@YAPAU?$_Tree_node@U?$pair@$$CBUSItemPos@@USShopItemTable@@@std@@PAX@0@AAPAU10@0@Z ; std::exchange<std::_Tree_node<std::pair<SItemPos const ,SShopItemTable>,void *> *,std::_Tree_node<std::pair<SItemPos const ,SShopItemTable>,void *> * &>
PUBLIC	??$_Lower_bound_duplicate@USItemPos@@@?$_Tree@V?$_Tmap_traits@USItemPos@@USShopItemTable@@U?$less@USItemPos@@@std@@V?$allocator@U?$pair@$$CBUSItemPos@@USShopItemTable@@@std@@@4@$0A@@std@@@std@@IBE_NQAU?$_Tree_node@U?$pair@$$CBUSItemPos@@USShopItemTable@@@std@@PAX@1@ABUSItemPos@@@Z ; std::_Tree<std::_Tmap_traits<SItemPos,SShopItemTable,std::less<SItemPos>,std::allocator<std::pair<SItemPos const ,SShopItemTable> >,0> >::_Lower_bound_duplicate<SItemPos>
PUBLIC	??$_Find_lower_bound@USItemPos@@@?$_Tree@V?$_Tmap_traits@USItemPos@@USShopItemTable@@U?$less@USItemPos@@@std@@V?$allocator@U?$pair@$$CBUSItemPos@@USShopItemTable@@@std@@@4@$0A@@std@@@std@@IBE?AU?$_Tree_find_result@PAU?$_Tree_node@U?$pair@$$CBUSItemPos@@USShopItemTable@@@std@@PAX@std@@@1@ABUSItemPos@@@Z ; std::_Tree<std::_Tmap_traits<SItemPos,SShopItemTable,std::less<SItemPos>,std::allocator<std::pair<SItemPos const ,SShopItemTable> >,0> >::_Find_lower_bound<SItemPos>
PUBLIC	??$_Emplace_reallocate@ABUSOfflineShopItemTable@@@?$vector@USOfflineShopItemTable@@V?$allocator@USOfflineShopItemTable@@@std@@@std@@AAEPAUSOfflineShopItemTable@@QAU2@ABU2@@Z ; std::vector<SOfflineShopItemTable,std::allocator<SOfflineShopItemTable> >::_Emplace_reallocate<SOfflineShopItemTable const &>
PUBLIC	??$_Emplace_back_with_unused_capacity@ABUSOfflineShopItemTable@@@?$vector@USOfflineShopItemTable@@V?$allocator@USOfflineShopItemTable@@@std@@@std@@AAEAAUSOfflineShopItemTable@@ABU2@@Z ; std::vector<SOfflineShopItemTable,std::allocator<SOfflineShopItemTable> >::_Emplace_back_with_unused_capacity<SOfflineShopItemTable const &>
PUBLIC	??$forward@ABUSOfflineShopItemTable@@@std@@YAABUSOfflineShopItemTable@@ABU1@@Z ; std::forward<SOfflineShopItemTable const &>
PUBLIC	??$_Uninitialized_move@PAUSOfflineShopItemTable@@V?$allocator@USOfflineShopItemTable@@@std@@@std@@YAPAUSOfflineShopItemTable@@QAU1@0PAU1@AAV?$allocator@USOfflineShopItemTable@@@0@@Z ; std::_Uninitialized_move<SOfflineShopItemTable *,std::allocator<SOfflineShopItemTable> >
PUBLIC	??$_Get_unwrapped@ABQAUSOfflineShopItemTable@@@std@@YA?A_TABQAUSOfflineShopItemTable@@@Z ; std::_Get_unwrapped<SOfflineShopItemTable * const &>
PUBLIC	??$_Allocate_at_least_helper@V?$allocator@USOfflineShopItemTable@@@std@@@std@@YAPAUSOfflineShopItemTable@@AAV?$allocator@USOfflineShopItemTable@@@0@AAI@Z ; std::_Allocate_at_least_helper<std::allocator<SOfflineShopItemTable> >
PUBLIC	??$_Emplace_reallocate@ABUSShopItemTable@@@?$vector@USShopItemTable@@V?$allocator@USShopItemTable@@@std@@@std@@AAEPAUSShopItemTable@@QAU2@ABU2@@Z ; std::vector<SShopItemTable,std::allocator<SShopItemTable> >::_Emplace_reallocate<SShopItemTable const &>
PUBLIC	??$_Emplace_back_with_unused_capacity@ABUSShopItemTable@@@?$vector@USShopItemTable@@V?$allocator@USShopItemTable@@@std@@@std@@AAEAAUSShopItemTable@@ABU2@@Z ; std::vector<SShopItemTable,std::allocator<SShopItemTable> >::_Emplace_back_with_unused_capacity<SShopItemTable const &>
PUBLIC	??$forward@ABUSShopItemTable@@@std@@YAABUSShopItemTable@@ABU1@@Z ; std::forward<SShopItemTable const &>
PUBLIC	??$_Uninitialized_move@PAUSShopItemTable@@V?$allocator@USShopItemTable@@@std@@@std@@YAPAUSShopItemTable@@QAU1@0PAU1@AAV?$allocator@USShopItemTable@@@0@@Z ; std::_Uninitialized_move<SShopItemTable *,std::allocator<SShopItemTable> >
PUBLIC	??$_Get_unwrapped@ABQAUSShopItemTable@@@std@@YA?A_TABQAUSShopItemTable@@@Z ; std::_Get_unwrapped<SShopItemTable * const &>
PUBLIC	??$_Allocate_at_least_helper@V?$allocator@USShopItemTable@@@std@@@std@@YAPAUSShopItemTable@@AAV?$allocator@USShopItemTable@@@0@AAI@Z ; std::_Allocate_at_least_helper<std::allocator<SShopItemTable> >
PUBLIC	??$_Partition_by_median_guess_unchecked@PAUSOfflineShopItemTable@@UOfflineShopItemStockSortFunc@@@std@@YA?AU?$pair@PAUSOfflineShopItemTable@@PAU1@@0@PAUSOfflineShopItemTable@@0UOfflineShopItemStockSortFunc@@@Z ; std::_Partition_by_median_guess_unchecked<SOfflineShopItemTable *,OfflineShopItemStockSortFunc>
PUBLIC	??$_Sort_heap_unchecked@PAUSOfflineShopItemTable@@UOfflineShopItemStockSortFunc@@@std@@YAXPAUSOfflineShopItemTable@@0UOfflineShopItemStockSortFunc@@@Z ; std::_Sort_heap_unchecked<SOfflineShopItemTable *,OfflineShopItemStockSortFunc>
PUBLIC	??$_Make_heap_unchecked@PAUSOfflineShopItemTable@@UOfflineShopItemStockSortFunc@@@std@@YAXPAUSOfflineShopItemTable@@0UOfflineShopItemStockSortFunc@@@Z ; std::_Make_heap_unchecked<SOfflineShopItemTable *,OfflineShopItemStockSortFunc>
PUBLIC	??$_Insertion_sort_unchecked@PAUSOfflineShopItemTable@@UOfflineShopItemStockSortFunc@@@std@@YAPAUSOfflineShopItemTable@@QAU1@0UOfflineShopItemStockSortFunc@@@Z ; std::_Insertion_sort_unchecked<SOfflineShopItemTable *,OfflineShopItemStockSortFunc>
PUBLIC	??$?0V?$_Tree_iterator@V?$_Tree_val@U?$_Tree_simple_types@U?$pair@$$CBUSItemPos@@USOfflineShopItemTable@@@std@@@std@@@std@@@std@@AB_N$0A@@?$pair@V?$_Tree_iterator@V?$_Tree_val@U?$_Tree_simple_types@U?$pair@$$CBUSItemPos@@USOfflineShopItemTable@@@std@@@std@@@std@@@std@@_N@std@@QAE@$$QAV?$_Tree_iterator@V?$_Tree_val@U?$_Tree_simple_types@U?$pair@$$CBUSItemPos@@USOfflineShopItemTable@@@std@@@std@@@std@@@1@AB_N@Z ; std::pair<std::_Tree_iterator<std::_Tree_val<std::_Tree_simple_types<std::pair<SItemPos const ,SOfflineShopItemTable> > > >,bool>::pair<std::_Tree_iterator<std::_Tree_val<std::_Tree_simple_types<std::pair<SItemPos const ,SOfflineShopItemTable> > > >,bool><std::_Tree_iterator<std::_Tree_val<std::_Tree_simple_types<std::pair<SItemPos const ,SOfflineShopItemTable> > > >,bool const &,0>
PUBLIC	??$_Emplace@U?$pair@USItemPos@@USOfflineShopItemTable@@@std@@@?$_Tree@V?$_Tmap_traits@USItemPos@@USOfflineShopItemTable@@U?$less@USItemPos@@@std@@V?$allocator@U?$pair@$$CBUSItemPos@@USOfflineShopItemTable@@@std@@@4@$0A@@std@@@std@@IAE?AU?$pair@PAU?$_Tree_node@U?$pair@$$CBUSItemPos@@USOfflineShopItemTable@@@std@@PAX@std@@_N@1@$$QAU?$pair@USItemPos@@USOfflineShopItemTable@@@1@@Z ; std::_Tree<std::_Tmap_traits<SItemPos,SOfflineShopItemTable,std::less<SItemPos>,std::allocator<std::pair<SItemPos const ,SOfflineShopItemTable> >,0> >::_Emplace<std::pair<SItemPos,SOfflineShopItemTable> >
PUBLIC	??$_Partition_by_median_guess_unchecked@PAUSShopItemTable@@UItemStockSortFunc@@@std@@YA?AU?$pair@PAUSShopItemTable@@PAU1@@0@PAUSShopItemTable@@0UItemStockSortFunc@@@Z ; std::_Partition_by_median_guess_unchecked<SShopItemTable *,ItemStockSortFunc>
PUBLIC	??$_Sort_heap_unchecked@PAUSShopItemTable@@UItemStockSortFunc@@@std@@YAXPAUSShopItemTable@@0UItemStockSortFunc@@@Z ; std::_Sort_heap_unchecked<SShopItemTable *,ItemStockSortFunc>
PUBLIC	??$_Make_heap_unchecked@PAUSShopItemTable@@UItemStockSortFunc@@@std@@YAXPAUSShopItemTable@@0UItemStockSortFunc@@@Z ; std::_Make_heap_unchecked<SShopItemTable *,ItemStockSortFunc>
PUBLIC	??$_Insertion_sort_unchecked@PAUSShopItemTable@@UItemStockSortFunc@@@std@@YAPAUSShopItemTable@@QAU1@0UItemStockSortFunc@@@Z ; std::_Insertion_sort_unchecked<SShopItemTable *,ItemStockSortFunc>
PUBLIC	??$?0V?$_Tree_iterator@V?$_Tree_val@U?$_Tree_simple_types@U?$pair@$$CBUSItemPos@@USShopItemTable@@@std@@@std@@@std@@@std@@AB_N$0A@@?$pair@V?$_Tree_iterator@V?$_Tree_val@U?$_Tree_simple_types@U?$pair@$$CBUSItemPos@@USShopItemTable@@@std@@@std@@@std@@@std@@_N@std@@QAE@$$QAV?$_Tree_iterator@V?$_Tree_val@U?$_Tree_simple_types@U?$pair@$$CBUSItemPos@@USShopItemTable@@@std@@@std@@@std@@@1@AB_N@Z ; std::pair<std::_Tree_iterator<std::_Tree_val<std::_Tree_simple_types<std::pair<SItemPos const ,SShopItemTable> > > >,bool>::pair<std::_Tree_iterator<std::_Tree_val<std::_Tree_simple_types<std::pair<SItemPos const ,SShopItemTable> > > >,bool><std::_Tree_iterator<std::_Tree_val<std::_Tree_simple_types<std::pair<SItemPos const ,SShopItemTable> > > >,bool const &,0>
PUBLIC	??$_Emplace@U?$pair@USItemPos@@USShopItemTable@@@std@@@?$_Tree@V?$_Tmap_traits@USItemPos@@USShopItemTable@@U?$less@USItemPos@@@std@@V?$allocator@U?$pair@$$CBUSItemPos@@USShopItemTable@@@std@@@4@$0A@@std@@@std@@IAE?AU?$pair@PAU?$_Tree_node@U?$pair@$$CBUSItemPos@@USShopItemTable@@@std@@PAX@std@@_N@1@$$QAU?$pair@USItemPos@@USShopItemTable@@@1@@Z ; std::_Tree<std::_Tmap_traits<SItemPos,SShopItemTable,std::less<SItemPos>,std::allocator<std::pair<SItemPos const ,SShopItemTable> >,0> >::_Emplace<std::pair<SItemPos,SShopItemTable> >
PUBLIC	??$?0AAPAU?$_Tree_node@U?$pair@$$CBUSItemPos@@USOfflineShopItemTable@@@std@@PAX@std@@AAPAU01@$0A@@?$pair@PAU?$_Tree_node@U?$pair@$$CBUSItemPos@@USOfflineShopItemTable@@@std@@PAX@std@@PAU12@@std@@QAE@AAPAU?$_Tree_node@U?$pair@$$CBUSItemPos@@USOfflineShopItemTable@@@std@@PAX@1@0@Z ; std::pair<std::_Tree_node<std::pair<SItemPos const ,SOfflineShopItemTable>,void *> *,std::_Tree_node<std::pair<SItemPos const ,SOfflineShopItemTable>,void *> *>::pair<std::_Tree_node<std::pair<SItemPos const ,SOfflineShopItemTable>,void *> *,std::_Tree_node<std::pair<SItemPos const ,SOfflineShopItemTable>,void *> *><std::_Tree_node<std::pair<SItemPos const ,SOfflineShopItemTable>,void *> * &,std::_Tree_node<std::pair<SItemPos const ,SOfflineShopItemTable>,void *> * &,0>
PUBLIC	??$_Kfn@$$CBUSItemPos@@USOfflineShopItemTable@@@?$_Tmap_traits@USItemPos@@USOfflineShopItemTable@@U?$less@USItemPos@@@std@@V?$allocator@U?$pair@$$CBUSItemPos@@USOfflineShopItemTable@@@std@@@4@$0A@@std@@SAABUSItemPos@@ABU?$pair@$$CBUSItemPos@@USOfflineShopItemTable@@@1@@Z ; std::_Tmap_traits<SItemPos,SOfflineShopItemTable,std::less<SItemPos>,std::allocator<std::pair<SItemPos const ,SOfflineShopItemTable> >,0>::_Kfn<SItemPos const ,SOfflineShopItemTable>
PUBLIC	??$?0AAPAU?$_Tree_node@U?$pair@$$CBUSItemPos@@USShopItemTable@@@std@@PAX@std@@AAPAU01@$0A@@?$pair@PAU?$_Tree_node@U?$pair@$$CBUSItemPos@@USShopItemTable@@@std@@PAX@std@@PAU12@@std@@QAE@AAPAU?$_Tree_node@U?$pair@$$CBUSItemPos@@USShopItemTable@@@std@@PAX@1@0@Z ; std::pair<std::_Tree_node<std::pair<SItemPos const ,SShopItemTable>,void *> *,std::_Tree_node<std::pair<SItemPos const ,SShopItemTable>,void *> *>::pair<std::_Tree_node<std::pair<SItemPos const ,SShopItemTable>,void *> *,std::_Tree_node<std::pair<SItemPos const ,SShopItemTable>,void *> *><std::_Tree_node<std::pair<SItemPos const ,SShopItemTable>,void *> * &,std::_Tree_node<std::pair<SItemPos const ,SShopItemTable>,void *> * &,0>
PUBLIC	??$_Kfn@$$CBUSItemPos@@USShopItemTable@@@?$_Tmap_traits@USItemPos@@USShopItemTable@@U?$less@USItemPos@@@std@@V?$allocator@U?$pair@$$CBUSItemPos@@USShopItemTable@@@std@@@4@$0A@@std@@SAABUSItemPos@@ABU?$pair@$$CBUSItemPos@@USShopItemTable@@@1@@Z ; std::_Tmap_traits<SItemPos,SShopItemTable,std::less<SItemPos>,std::allocator<std::pair<SItemPos const ,SShopItemTable> >,0>::_Kfn<SItemPos const ,SShopItemTable>
PUBLIC	??0?$_Tree@V?$_Tmap_traits@USItemPos@@USOfflineShopItemTable@@U?$less@USItemPos@@@std@@V?$allocator@U?$pair@$$CBUSItemPos@@USOfflineShopItemTable@@@std@@@4@$0A@@std@@@std@@QAE@ABU?$less@USItemPos@@@1@@Z ; std::_Tree<std::_Tmap_traits<SItemPos,SOfflineShopItemTable,std::less<SItemPos>,std::allocator<std::pair<SItemPos const ,SOfflineShopItemTable> >,0> >::_Tree<std::_Tmap_traits<SItemPos,SOfflineShopItemTable,std::less<SItemPos>,std::allocator<std::pair<SItemPos const ,SOfflineShopItemTable> >,0> >
PUBLIC	?_Erase@?$_Tree@V?$_Tmap_traits@USItemPos@@USOfflineShopItemTable@@U?$less@USItemPos@@@std@@V?$allocator@U?$pair@$$CBUSItemPos@@USOfflineShopItemTable@@@std@@@4@$0A@@std@@@std@@AAEIU?$pair@PAU?$_Tree_node@U?$pair@$$CBUSItemPos@@USOfflineShopItemTable@@@std@@PAX@std@@PAU12@@2@@Z ; std::_Tree<std::_Tmap_traits<SItemPos,SOfflineShopItemTable,std::less<SItemPos>,std::allocator<std::pair<SItemPos const ,SOfflineShopItemTable> >,0> >::_Erase
PUBLIC	?_Getal@?$_Tree@V?$_Tmap_traits@USItemPos@@USOfflineShopItemTable@@U?$less@USItemPos@@@std@@V?$allocator@U?$pair@$$CBUSItemPos@@USOfflineShopItemTable@@@std@@@4@$0A@@std@@@std@@IAEAAV?$allocator@U?$_Tree_node@U?$pair@$$CBUSItemPos@@USOfflineShopItemTable@@@std@@PAX@std@@@2@XZ ; std::_Tree<std::_Tmap_traits<SItemPos,SOfflineShopItemTable,std::less<SItemPos>,std::allocator<std::pair<SItemPos const ,SOfflineShopItemTable> >,0> >::_Getal
PUBLIC	?_Get_scary@?$_Tree@V?$_Tmap_traits@USItemPos@@USOfflineShopItemTable@@U?$less@USItemPos@@@std@@V?$allocator@U?$pair@$$CBUSItemPos@@USOfflineShopItemTable@@@std@@@4@$0A@@std@@@std@@IAEPAV?$_Tree_val@U?$_Tree_simple_types@U?$pair@$$CBUSItemPos@@USOfflineShopItemTable@@@std@@@std@@@2@XZ ; std::_Tree<std::_Tmap_traits<SItemPos,SOfflineShopItemTable,std::less<SItemPos>,std::allocator<std::pair<SItemPos const ,SOfflineShopItemTable> >,0> >::_Get_scary
PUBLIC	?_Get_scary@?$_Tree@V?$_Tmap_traits@USItemPos@@USOfflineShopItemTable@@U?$less@USItemPos@@@std@@V?$allocator@U?$pair@$$CBUSItemPos@@USOfflineShopItemTable@@@std@@@4@$0A@@std@@@std@@IBEPBV?$_Tree_val@U?$_Tree_simple_types@U?$pair@$$CBUSItemPos@@USOfflineShopItemTable@@@std@@@std@@@2@XZ ; std::_Tree<std::_Tmap_traits<SItemPos,SOfflineShopItemTable,std::less<SItemPos>,std::allocator<std::pair<SItemPos const ,SOfflineShopItemTable> >,0> >::_Get_scary
PUBLIC	?_Orphan_ptr@?$_Tree_val@U?$_Tree_simple_types@U?$pair@$$CBUSItemPos@@USOfflineShopItemTable@@@std@@@std@@@std@@QAEXQAU?$_Tree_node@U?$pair@$$CBUSItemPos@@USOfflineShopItemTable@@@std@@PAX@2@@Z ; std::_Tree_val<std::_Tree_simple_types<std::pair<SItemPos const ,SOfflineShopItemTable> > >::_Orphan_ptr
PUBLIC	??E?$_Tree_const_iterator@V?$_Tree_val@U?$_Tree_simple_types@U?$pair@$$CBUSItemPos@@USOfflineShopItemTable@@@std@@@std@@@std@@@std@@QAEAAV01@XZ ; std::_Tree_const_iterator<std::_Tree_val<std::_Tree_simple_types<std::pair<SItemPos const ,SOfflineShopItemTable> > > >::operator++
PUBLIC	??D?$_Tree_iterator@V?$_Tree_val@U?$_Tree_simple_types@U?$pair@$$CBUSItemPos@@USOfflineShopItemTable@@@std@@@std@@@std@@@std@@QBEAAU?$pair@$$CBUSItemPos@@USOfflineShopItemTable@@@1@XZ ; std::_Tree_iterator<std::_Tree_val<std::_Tree_simple_types<std::pair<SItemPos const ,SOfflineShopItemTable> > > >::operator*
PUBLIC	??0?$_Tree_unchecked_const_iterator@V?$_Tree_val@U?$_Tree_simple_types@U?$pair@$$CBUSItemPos@@USOfflineShopItemTable@@@std@@@std@@@std@@U_Iterator_base0@2@@std@@QAE@PAU?$_Tree_node@U?$pair@$$CBUSItemPos@@USOfflineShopItemTable@@@std@@PAX@1@PBV?$_Tree_val@U?$_Tree_simple_types@U?$pair@$$CBUSItemPos@@USOfflineShopItemTable@@@std@@@std@@@1@@Z ; std::_Tree_unchecked_const_iterator<std::_Tree_val<std::_Tree_simple_types<std::pair<SItemPos const ,SOfflineShopItemTable> > >,std::_Iterator_base0>::_Tree_unchecked_const_iterator<std::_Tree_val<std::_Tree_simple_types<std::pair<SItemPos const ,SOfflineShopItemTable> > >,std::_Iterator_base0>
PUBLIC	??0?$_Tree@V?$_Tmap_traits@USItemPos@@USShopItemTable@@U?$less@USItemPos@@@std@@V?$allocator@U?$pair@$$CBUSItemPos@@USShopItemTable@@@std@@@4@$0A@@std@@@std@@QAE@ABU?$less@USItemPos@@@1@@Z ; std::_Tree<std::_Tmap_traits<SItemPos,SShopItemTable,std::less<SItemPos>,std::allocator<std::pair<SItemPos const ,SShopItemTable> >,0> >::_Tree<std::_Tmap_traits<SItemPos,SShopItemTable,std::less<SItemPos>,std::allocator<std::pair<SItemPos const ,SShopItemTable> >,0> >
PUBLIC	?_Erase@?$_Tree@V?$_Tmap_traits@USItemPos@@USShopItemTable@@U?$less@USItemPos@@@std@@V?$allocator@U?$pair@$$CBUSItemPos@@USShopItemTable@@@std@@@4@$0A@@std@@@std@@AAEIU?$pair@PAU?$_Tree_node@U?$pair@$$CBUSItemPos@@USShopItemTable@@@std@@PAX@std@@PAU12@@2@@Z ; std::_Tree<std::_Tmap_traits<SItemPos,SShopItemTable,std::less<SItemPos>,std::allocator<std::pair<SItemPos const ,SShopItemTable> >,0> >::_Erase
PUBLIC	?_Getal@?$_Tree@V?$_Tmap_traits@USItemPos@@USShopItemTable@@U?$less@USItemPos@@@std@@V?$allocator@U?$pair@$$CBUSItemPos@@USShopItemTable@@@std@@@4@$0A@@std@@@std@@IAEAAV?$allocator@U?$_Tree_node@U?$pair@$$CBUSItemPos@@USShopItemTable@@@std@@PAX@std@@@2@XZ ; std::_Tree<std::_Tmap_traits<SItemPos,SShopItemTable,std::less<SItemPos>,std::allocator<std::pair<SItemPos const ,SShopItemTable> >,0> >::_Getal
PUBLIC	?_Get_scary@?$_Tree@V?$_Tmap_traits@USItemPos@@USShopItemTable@@U?$less@USItemPos@@@std@@V?$allocator@U?$pair@$$CBUSItemPos@@USShopItemTable@@@std@@@4@$0A@@std@@@std@@IAEPAV?$_Tree_val@U?$_Tree_simple_types@U?$pair@$$CBUSItemPos@@USShopItemTable@@@std@@@std@@@2@XZ ; std::_Tree<std::_Tmap_traits<SItemPos,SShopItemTable,std::less<SItemPos>,std::allocator<std::pair<SItemPos const ,SShopItemTable> >,0> >::_Get_scary
PUBLIC	?_Get_scary@?$_Tree@V?$_Tmap_traits@USItemPos@@USShopItemTable@@U?$less@USItemPos@@@std@@V?$allocator@U?$pair@$$CBUSItemPos@@USShopItemTable@@@std@@@4@$0A@@std@@@std@@IBEPBV?$_Tree_val@U?$_Tree_simple_types@U?$pair@$$CBUSItemPos@@USShopItemTable@@@std@@@std@@@2@XZ ; std::_Tree<std::_Tmap_traits<SItemPos,SShopItemTable,std::less<SItemPos>,std::allocator<std::pair<SItemPos const ,SShopItemTable> >,0> >::_Get_scary
PUBLIC	?_Orphan_ptr@?$_Tree_val@U?$_Tree_simple_types@U?$pair@$$CBUSItemPos@@USShopItemTable@@@std@@@std@@@std@@QAEXQAU?$_Tree_node@U?$pair@$$CBUSItemPos@@USShopItemTable@@@std@@PAX@2@@Z ; std::_Tree_val<std::_Tree_simple_types<std::pair<SItemPos const ,SShopItemTable> > >::_Orphan_ptr
PUBLIC	??E?$_Tree_const_iterator@V?$_Tree_val@U?$_Tree_simple_types@U?$pair@$$CBUSItemPos@@USShopItemTable@@@std@@@std@@@std@@@std@@QAEAAV01@XZ ; std::_Tree_const_iterator<std::_Tree_val<std::_Tree_simple_types<std::pair<SItemPos const ,SShopItemTable> > > >::operator++
PUBLIC	??D?$_Tree_iterator@V?$_Tree_val@U?$_Tree_simple_types@U?$pair@$$CBUSItemPos@@USShopItemTable@@@std@@@std@@@std@@@std@@QBEAAU?$pair@$$CBUSItemPos@@USShopItemTable@@@1@XZ ; std::_Tree_iterator<std::_Tree_val<std::_Tree_simple_types<std::pair<SItemPos const ,SShopItemTable> > > >::operator*
PUBLIC	??0?$_Tree_unchecked_const_iterator@V?$_Tree_val@U?$_Tree_simple_types@U?$pair@$$CBUSItemPos@@USShopItemTable@@@std@@@std@@@std@@U_Iterator_base0@2@@std@@QAE@PAU?$_Tree_node@U?$pair@$$CBUSItemPos@@USShopItemTable@@@std@@PAX@1@PBV?$_Tree_val@U?$_Tree_simple_types@U?$pair@$$CBUSItemPos@@USShopItemTable@@@std@@@std@@@1@@Z ; std::_Tree_unchecked_const_iterator<std::_Tree_val<std::_Tree_simple_types<std::pair<SItemPos const ,SShopItemTable> > >,std::_Iterator_base0>::_Tree_unchecked_const_iterator<std::_Tree_val<std::_Tree_simple_types<std::pair<SItemPos const ,SShopItemTable> > >,std::_Iterator_base0>
PUBLIC	?max_size@?$vector@USOfflineShopItemTable@@V?$allocator@USOfflineShopItemTable@@@std@@@std@@QBEIXZ ; std::vector<SOfflineShopItemTable,std::allocator<SOfflineShopItemTable> >::max_size
PUBLIC	?capacity@?$vector@USOfflineShopItemTable@@V?$allocator@USOfflineShopItemTable@@@std@@@std@@QBEIXZ ; std::vector<SOfflineShopItemTable,std::allocator<SOfflineShopItemTable> >::capacity
PUBLIC	?_Tidy@?$vector@USOfflineShopItemTable@@V?$allocator@USOfflineShopItemTable@@@std@@@std@@AAEXXZ ; std::vector<SOfflineShopItemTable,std::allocator<SOfflineShopItemTable> >::_Tidy
PUBLIC	?_Xlength@?$vector@USOfflineShopItemTable@@V?$allocator@USOfflineShopItemTable@@@std@@@std@@CAXXZ ; std::vector<SOfflineShopItemTable,std::allocator<SOfflineShopItemTable> >::_Xlength
PUBLIC	?max_size@?$vector@USShopItemTable@@V?$allocator@USShopItemTable@@@std@@@std@@QBEIXZ ; std::vector<SShopItemTable,std::allocator<SShopItemTable> >::max_size
PUBLIC	?capacity@?$vector@USShopItemTable@@V?$allocator@USShopItemTable@@@std@@@std@@QBEIXZ ; std::vector<SShopItemTable,std::allocator<SShopItemTable> >::capacity
PUBLIC	?_Tidy@?$vector@USShopItemTable@@V?$allocator@USShopItemTable@@@std@@@std@@AAEXXZ ; std::vector<SShopItemTable,std::allocator<SShopItemTable> >::_Tidy
PUBLIC	?_Xlength@?$vector@USShopItemTable@@V?$allocator@USShopItemTable@@@std@@@std@@CAXXZ ; std::vector<SShopItemTable,std::allocator<SShopItemTable> >::_Xlength
PUBLIC	?pointer_to@?$pointer_traits@PAU?$pair@$$CBUSItemPos@@USShopItemTable@@@std@@@std@@SAPAU?$pair@$$CBUSItemPos@@USShopItemTable@@@2@AAU32@@Z ; std::pointer_traits<std::pair<SItemPos const ,SShopItemTable> *>::pointer_to
PUBLIC	?pointer_to@?$pointer_traits@PAU?$pair@$$CBUSItemPos@@USOfflineShopItemTable@@@std@@@std@@SAPAU?$pair@$$CBUSItemPos@@USOfflineShopItemTable@@@2@AAU32@@Z ; std::pointer_traits<std::pair<SItemPos const ,SOfflineShopItemTable> *>::pointer_to
PUBLIC	??$_Erase_head@V?$allocator@U?$_Tree_node@U?$pair@$$CBUSItemPos@@USOfflineShopItemTable@@@std@@PAX@std@@@std@@@?$_Tree_val@U?$_Tree_simple_types@U?$pair@$$CBUSItemPos@@USOfflineShopItemTable@@@std@@@std@@@std@@QAEXAAV?$allocator@U?$_Tree_node@U?$pair@$$CBUSItemPos@@USOfflineShopItemTable@@@std@@PAX@std@@@1@@Z ; std::_Tree_val<std::_Tree_simple_types<std::pair<SItemPos const ,SOfflineShopItemTable> > >::_Erase_head<std::allocator<std::_Tree_node<std::pair<SItemPos const ,SOfflineShopItemTable>,void *> > >
PUBLIC	??$_Erase_tree@V?$allocator@U?$_Tree_node@U?$pair@$$CBUSItemPos@@USOfflineShopItemTable@@@std@@PAX@std@@@std@@@?$_Tree_val@U?$_Tree_simple_types@U?$pair@$$CBUSItemPos@@USOfflineShopItemTable@@@std@@@std@@@std@@QAEXAAV?$allocator@U?$_Tree_node@U?$pair@$$CBUSItemPos@@USOfflineShopItemTable@@@std@@PAX@std@@@1@PAU?$_Tree_node@U?$pair@$$CBUSItemPos@@USOfflineShopItemTable@@@std@@PAX@1@@Z ; std::_Tree_val<std::_Tree_simple_types<std::pair<SItemPos const ,SOfflineShopItemTable> > >::_Erase_tree<std::allocator<std::_Tree_node<std::pair<SItemPos const ,SOfflineShopItemTable>,void *> > >
PUBLIC	??$_Find@USItemPos@@@?$_Tree@V?$_Tmap_traits@USItemPos@@USOfflineShopItemTable@@U?$less@USItemPos@@@std@@V?$allocator@U?$pair@$$CBUSItemPos@@USOfflineShopItemTable@@@std@@@4@$0A@@std@@@std@@ABEPAU?$_Tree_node@U?$pair@$$CBUSItemPos@@USOfflineShopItemTable@@@std@@PAX@1@ABUSItemPos@@@Z ; std::_Tree<std::_Tmap_traits<SItemPos,SOfflineShopItemTable,std::less<SItemPos>,std::allocator<std::pair<SItemPos const ,SOfflineShopItemTable> >,0> >::_Find<SItemPos>
PUBLIC	??$_Erase_head@V?$allocator@U?$_Tree_node@U?$pair@$$CBUSItemPos@@USShopItemTable@@@std@@PAX@std@@@std@@@?$_Tree_val@U?$_Tree_simple_types@U?$pair@$$CBUSItemPos@@USShopItemTable@@@std@@@std@@@std@@QAEXAAV?$allocator@U?$_Tree_node@U?$pair@$$CBUSItemPos@@USShopItemTable@@@std@@PAX@std@@@1@@Z ; std::_Tree_val<std::_Tree_simple_types<std::pair<SItemPos const ,SShopItemTable> > >::_Erase_head<std::allocator<std::_Tree_node<std::pair<SItemPos const ,SShopItemTable>,void *> > >
PUBLIC	??$_Erase_tree@V?$allocator@U?$_Tree_node@U?$pair@$$CBUSItemPos@@USShopItemTable@@@std@@PAX@std@@@std@@@?$_Tree_val@U?$_Tree_simple_types@U?$pair@$$CBUSItemPos@@USShopItemTable@@@std@@@std@@@std@@QAEXAAV?$allocator@U?$_Tree_node@U?$pair@$$CBUSItemPos@@USShopItemTable@@@std@@PAX@std@@@1@PAU?$_Tree_node@U?$pair@$$CBUSItemPos@@USShopItemTable@@@std@@PAX@1@@Z ; std::_Tree_val<std::_Tree_simple_types<std::pair<SItemPos const ,SShopItemTable> > >::_Erase_tree<std::allocator<std::_Tree_node<std::pair<SItemPos const ,SShopItemTable>,void *> > >
PUBLIC	??$_Find@USItemPos@@@?$_Tree@V?$_Tmap_traits@USItemPos@@USShopItemTable@@U?$less@USItemPos@@@std@@V?$allocator@U?$pair@$$CBUSItemPos@@USShopItemTable@@@std@@@4@$0A@@std@@@std@@ABEPAU?$_Tree_node@U?$pair@$$CBUSItemPos@@USShopItemTable@@@std@@PAX@1@ABUSItemPos@@@Z ; std::_Tree<std::_Tmap_traits<SItemPos,SShopItemTable,std::less<SItemPos>,std::allocator<std::pair<SItemPos const ,SShopItemTable> >,0> >::_Find<SItemPos>
PUBLIC	??$?0$$V@?$_Compressed_pair@V?$allocator@USOfflineShopItemTable@@@std@@V?$_Vector_val@U?$_Simple_types@USOfflineShopItemTable@@@std@@@2@$00@std@@QAE@U_Zero_then_variadic_args_t@1@@Z ; std::_Compressed_pair<std::allocator<SOfflineShopItemTable>,std::_Vector_val<std::_Simple_types<SOfflineShopItemTable> >,1>::_Compressed_pair<std::allocator<SOfflineShopItemTable>,std::_Vector_val<std::_Simple_types<SOfflineShopItemTable> >,1><>
PUBLIC	??$_Emplace_one_at_back@ABUSOfflineShopItemTable@@@?$vector@USOfflineShopItemTable@@V?$allocator@USOfflineShopItemTable@@@std@@@std@@AAEAAUSOfflineShopItemTable@@ABU2@@Z ; std::vector<SOfflineShopItemTable,std::allocator<SOfflineShopItemTable> >::_Emplace_one_at_back<SOfflineShopItemTable const &>
PUBLIC	??$_Reallocate@$0A@@?$vector@USOfflineShopItemTable@@V?$allocator@USOfflineShopItemTable@@@std@@@std@@AAEXAAI@Z ; std::vector<SOfflineShopItemTable,std::allocator<SOfflineShopItemTable> >::_Reallocate<0>
PUBLIC	??$addressof@V?$_Vector_val@U?$_Simple_types@USOfflineShopItemTable@@@std@@@std@@@std@@YAPAV?$_Vector_val@U?$_Simple_types@USOfflineShopItemTable@@@std@@@0@AAV10@@Z ; std::addressof<std::_Vector_val<std::_Simple_types<SOfflineShopItemTable> > >
PUBLIC	??$?0$$V@?$_Compressed_pair@V?$allocator@USShopItemTable@@@std@@V?$_Vector_val@U?$_Simple_types@USShopItemTable@@@std@@@2@$00@std@@QAE@U_Zero_then_variadic_args_t@1@@Z ; std::_Compressed_pair<std::allocator<SShopItemTable>,std::_Vector_val<std::_Simple_types<SShopItemTable> >,1>::_Compressed_pair<std::allocator<SShopItemTable>,std::_Vector_val<std::_Simple_types<SShopItemTable> >,1><>
PUBLIC	??$_Emplace_one_at_back@ABUSShopItemTable@@@?$vector@USShopItemTable@@V?$allocator@USShopItemTable@@@std@@@std@@AAEAAUSShopItemTable@@ABU2@@Z ; std::vector<SShopItemTable,std::allocator<SShopItemTable> >::_Emplace_one_at_back<SShopItemTable const &>
PUBLIC	??$_Reallocate@$0A@@?$vector@USShopItemTable@@V?$allocator@USShopItemTable@@@std@@@std@@AAEXAAI@Z ; std::vector<SShopItemTable,std::allocator<SShopItemTable> >::_Reallocate<0>
PUBLIC	??$addressof@V?$_Vector_val@U?$_Simple_types@USShopItemTable@@@std@@@std@@@std@@YAPAV?$_Vector_val@U?$_Simple_types@USShopItemTable@@@std@@@0@AAV10@@Z ; std::addressof<std::_Vector_val<std::_Simple_types<SShopItemTable> > >
PUBLIC	??$_Sort_unchecked@PAUSOfflineShopItemTable@@UOfflineShopItemStockSortFunc@@@std@@YAXPAUSOfflineShopItemTable@@0HUOfflineShopItemStockSortFunc@@@Z ; std::_Sort_unchecked<SOfflineShopItemTable *,OfflineShopItemStockSortFunc>
PUBLIC	??$_Adl_verify_range@V?$_Vector_iterator@V?$_Vector_val@U?$_Simple_types@USOfflineShopItemTable@@@std@@@std@@@std@@V12@@std@@YAXABV?$_Vector_iterator@V?$_Vector_val@U?$_Simple_types@USOfflineShopItemTable@@@std@@@std@@@0@0@Z ; std::_Adl_verify_range<std::_Vector_iterator<std::_Vector_val<std::_Simple_types<SOfflineShopItemTable> > >,std::_Vector_iterator<std::_Vector_val<std::_Simple_types<SOfflineShopItemTable> > > >
PUBLIC	??$emplace@U?$pair@USItemPos@@USOfflineShopItemTable@@@std@@@?$_Tree@V?$_Tmap_traits@USItemPos@@USOfflineShopItemTable@@U?$less@USItemPos@@@std@@V?$allocator@U?$pair@$$CBUSItemPos@@USOfflineShopItemTable@@@std@@@4@$0A@@std@@@std@@QAE?AU?$pair@V?$_Tree_iterator@V?$_Tree_val@U?$_Tree_simple_types@U?$pair@$$CBUSItemPos@@USOfflineShopItemTable@@@std@@@std@@@std@@@std@@_N@1@$$QAU?$pair@USItemPos@@USOfflineShopItemTable@@@1@@Z ; std::_Tree<std::_Tmap_traits<SItemPos,SOfflineShopItemTable,std::less<SItemPos>,std::allocator<std::pair<SItemPos const ,SOfflineShopItemTable> >,0> >::emplace<std::pair<SItemPos,SOfflineShopItemTable> >
PUBLIC	??$forward@U?$pair@USItemPos@@USOfflineShopItemTable@@@std@@@std@@YA$$QAU?$pair@USItemPos@@USOfflineShopItemTable@@@0@AAU10@@Z ; std::forward<std::pair<SItemPos,SOfflineShopItemTable> >
PUBLIC	??$?0AAUSItemPos@@AAUSOfflineShopItemTable@@$0A@@?$pair@USItemPos@@USOfflineShopItemTable@@@std@@QAE@AAUSItemPos@@AAUSOfflineShopItemTable@@@Z ; std::pair<SItemPos,SOfflineShopItemTable>::pair<SItemPos,SOfflineShopItemTable><SItemPos &,SOfflineShopItemTable &,0>
PUBLIC	??$forward@AAUSOfflineShopItemTable@@@std@@YAAAUSOfflineShopItemTable@@AAU1@@Z ; std::forward<SOfflineShopItemTable &>
PUBLIC	??$_Sort_unchecked@PAUSShopItemTable@@UItemStockSortFunc@@@std@@YAXPAUSShopItemTable@@0HUItemStockSortFunc@@@Z ; std::_Sort_unchecked<SShopItemTable *,ItemStockSortFunc>
PUBLIC	??$_Adl_verify_range@V?$_Vector_iterator@V?$_Vector_val@U?$_Simple_types@USShopItemTable@@@std@@@std@@@std@@V12@@std@@YAXABV?$_Vector_iterator@V?$_Vector_val@U?$_Simple_types@USShopItemTable@@@std@@@std@@@0@0@Z ; std::_Adl_verify_range<std::_Vector_iterator<std::_Vector_val<std::_Simple_types<SShopItemTable> > >,std::_Vector_iterator<std::_Vector_val<std::_Simple_types<SShopItemTable> > > >
PUBLIC	??$emplace@U?$pair@USItemPos@@USShopItemTable@@@std@@@?$_Tree@V?$_Tmap_traits@USItemPos@@USShopItemTable@@U?$less@USItemPos@@@std@@V?$allocator@U?$pair@$$CBUSItemPos@@USShopItemTable@@@std@@@4@$0A@@std@@@std@@QAE?AU?$pair@V?$_Tree_iterator@V?$_Tree_val@U?$_Tree_simple_types@U?$pair@$$CBUSItemPos@@USShopItemTable@@@std@@@std@@@std@@@std@@_N@1@$$QAU?$pair@USItemPos@@USShopItemTable@@@1@@Z ; std::_Tree<std::_Tmap_traits<SItemPos,SShopItemTable,std::less<SItemPos>,std::allocator<std::pair<SItemPos const ,SShopItemTable> >,0> >::emplace<std::pair<SItemPos,SShopItemTable> >
PUBLIC	??$forward@U?$pair@USItemPos@@USShopItemTable@@@std@@@std@@YA$$QAU?$pair@USItemPos@@USShopItemTable@@@0@AAU10@@Z ; std::forward<std::pair<SItemPos,SShopItemTable> >
PUBLIC	??$?0AAUSItemPos@@AAUSShopItemTable@@$0A@@?$pair@USItemPos@@USShopItemTable@@@std@@QAE@AAUSItemPos@@AAUSShopItemTable@@@Z ; std::pair<SItemPos,SShopItemTable>::pair<SItemPos,SShopItemTable><SItemPos &,SShopItemTable &,0>
PUBLIC	??$forward@AAUSShopItemTable@@@std@@YAAAUSShopItemTable@@AAU1@@Z ; std::forward<SShopItemTable &>
PUBLIC	??$forward@AAUSItemPos@@@std@@YAAAUSItemPos@@AAU1@@Z ; std::forward<SItemPos &>
PUBLIC	??$_Eqrange@USItemPos@@@?$_Tree@V?$_Tmap_traits@USItemPos@@USOfflineShopItemTable@@U?$less@USItemPos@@@std@@V?$allocator@U?$pair@$$CBUSItemPos@@USOfflineShopItemTable@@@std@@@4@$0A@@std@@@std@@IBE?AU?$pair@PAU?$_Tree_node@U?$pair@$$CBUSItemPos@@USOfflineShopItemTable@@@std@@PAX@std@@PAU12@@1@ABUSItemPos@@@Z ; std::_Tree<std::_Tmap_traits<SItemPos,SOfflineShopItemTable,std::less<SItemPos>,std::allocator<std::pair<SItemPos const ,SOfflineShopItemTable> >,0> >::_Eqrange<SItemPos>
PUBLIC	??$_Eqrange@USItemPos@@@?$_Tree@V?$_Tmap_traits@USItemPos@@USShopItemTable@@U?$less@USItemPos@@@std@@V?$allocator@U?$pair@$$CBUSItemPos@@USShopItemTable@@@std@@@4@$0A@@std@@@std@@IBE?AU?$pair@PAU?$_Tree_node@U?$pair@$$CBUSItemPos@@USShopItemTable@@@std@@PAX@std@@PAU12@@1@ABUSItemPos@@@Z ; std::_Tree<std::_Tmap_traits<SItemPos,SShopItemTable,std::less<SItemPos>,std::allocator<std::pair<SItemPos const ,SShopItemTable> >,0> >::_Eqrange<SItemPos>
PUBLIC	??0?$_Tree_const_iterator@V?$_Tree_val@U?$_Tree_simple_types@U?$pair@$$CBUSItemPos@@USOfflineShopItemTable@@@std@@@std@@@std@@@std@@QAE@PAU?$_Tree_node@U?$pair@$$CBUSItemPos@@USOfflineShopItemTable@@@std@@PAX@1@PBV?$_Tree_val@U?$_Tree_simple_types@U?$pair@$$CBUSItemPos@@USOfflineShopItemTable@@@std@@@std@@@1@@Z ; std::_Tree_const_iterator<std::_Tree_val<std::_Tree_simple_types<std::pair<SItemPos const ,SOfflineShopItemTable> > > >::_Tree_const_iterator<std::_Tree_val<std::_Tree_simple_types<std::pair<SItemPos const ,SOfflineShopItemTable> > > >
PUBLIC	??0?$_Tree_const_iterator@V?$_Tree_val@U?$_Tree_simple_types@U?$pair@$$CBUSItemPos@@USShopItemTable@@@std@@@std@@@std@@@std@@QAE@PAU?$_Tree_node@U?$pair@$$CBUSItemPos@@USShopItemTable@@@std@@PAX@1@PBV?$_Tree_val@U?$_Tree_simple_types@U?$pair@$$CBUSItemPos@@USShopItemTable@@@std@@@std@@@1@@Z ; std::_Tree_const_iterator<std::_Tree_val<std::_Tree_simple_types<std::pair<SItemPos const ,SShopItemTable> > > >::_Tree_const_iterator<std::_Tree_val<std::_Tree_simple_types<std::pair<SItemPos const ,SShopItemTable> > > >
PUBLIC	??_G?$CSingleton@VCPythonShop@@@@UAEPAXI@Z	; CSingleton<CPythonShop>::`scalar deleting destructor'
PUBLIC	??0?$_Tree_iterator@V?$_Tree_val@U?$_Tree_simple_types@U?$pair@$$CBUSItemPos@@USOfflineShopItemTable@@@std@@@std@@@std@@@std@@QAE@PAU?$_Tree_node@U?$pair@$$CBUSItemPos@@USOfflineShopItemTable@@@std@@PAX@1@PBV?$_Tree_val@U?$_Tree_simple_types@U?$pair@$$CBUSItemPos@@USOfflineShopItemTable@@@std@@@std@@@1@@Z ; std::_Tree_iterator<std::_Tree_val<std::_Tree_simple_types<std::pair<SItemPos const ,SOfflineShopItemTable> > > >::_Tree_iterator<std::_Tree_val<std::_Tree_simple_types<std::pair<SItemPos const ,SOfflineShopItemTable> > > >
PUBLIC	??0?$_Tree_iterator@V?$_Tree_val@U?$_Tree_simple_types@U?$pair@$$CBUSItemPos@@USShopItemTable@@@std@@@std@@@std@@@std@@QAE@PAU?$_Tree_node@U?$pair@$$CBUSItemPos@@USShopItemTable@@@std@@PAX@1@PBV?$_Tree_val@U?$_Tree_simple_types@U?$pair@$$CBUSItemPos@@USShopItemTable@@@std@@@std@@@1@@Z ; std::_Tree_iterator<std::_Tree_val<std::_Tree_simple_types<std::pair<SItemPos const ,SShopItemTable> > > >::_Tree_iterator<std::_Tree_val<std::_Tree_simple_types<std::pair<SItemPos const ,SShopItemTable> > > >
PUBLIC	??0?$CSingleton@VCPythonShop@@@@QAE@XZ		; CSingleton<CPythonShop>::CSingleton<CPythonShop>
PUBLIC	??1?$CSingleton@VCPythonShop@@@@UAE@XZ		; CSingleton<CPythonShop>::~CSingleton<CPythonShop>
PUBLIC	??0?$map@USItemPos@@USOfflineShopItemTable@@U?$less@USItemPos@@@std@@V?$allocator@U?$pair@$$CBUSItemPos@@USOfflineShopItemTable@@@std@@@4@@std@@QAE@XZ ; std::map<SItemPos,SOfflineShopItemTable,std::less<SItemPos>,std::allocator<std::pair<SItemPos const ,SOfflineShopItemTable> > >::map<SItemPos,SOfflineShopItemTable,std::less<SItemPos>,std::allocator<std::pair<SItemPos const ,SOfflineShopItemTable> > >
PUBLIC	??1?$_Tree@V?$_Tmap_traits@USItemPos@@USOfflineShopItemTable@@U?$less@USItemPos@@@std@@V?$allocator@U?$pair@$$CBUSItemPos@@USOfflineShopItemTable@@@std@@@4@$0A@@std@@@std@@QAE@XZ ; std::_Tree<std::_Tmap_traits<SItemPos,SOfflineShopItemTable,std::less<SItemPos>,std::allocator<std::pair<SItemPos const ,SOfflineShopItemTable> >,0> >::~_Tree<std::_Tmap_traits<SItemPos,SOfflineShopItemTable,std::less<SItemPos>,std::allocator<std::pair<SItemPos const ,SOfflineShopItemTable> >,0> >
PUBLIC	?begin@?$_Tree@V?$_Tmap_traits@USItemPos@@USOfflineShopItemTable@@U?$less@USItemPos@@@std@@V?$allocator@U?$pair@$$CBUSItemPos@@USOfflineShopItemTable@@@std@@@4@$0A@@std@@@std@@QAE?AV?$_Tree_iterator@V?$_Tree_val@U?$_Tree_simple_types@U?$pair@$$CBUSItemPos@@USOfflineShopItemTable@@@std@@@std@@@std@@@2@XZ ; std::_Tree<std::_Tmap_traits<SItemPos,SOfflineShopItemTable,std::less<SItemPos>,std::allocator<std::pair<SItemPos const ,SOfflineShopItemTable> >,0> >::begin
PUBLIC	?end@?$_Tree@V?$_Tmap_traits@USItemPos@@USOfflineShopItemTable@@U?$less@USItemPos@@@std@@V?$allocator@U?$pair@$$CBUSItemPos@@USOfflineShopItemTable@@@std@@@4@$0A@@std@@@std@@QAE?AV?$_Tree_iterator@V?$_Tree_val@U?$_Tree_simple_types@U?$pair@$$CBUSItemPos@@USOfflineShopItemTable@@@std@@@std@@@std@@@2@XZ ; std::_Tree<std::_Tmap_traits<SItemPos,SOfflineShopItemTable,std::less<SItemPos>,std::allocator<std::pair<SItemPos const ,SOfflineShopItemTable> >,0> >::end
PUBLIC	?size@?$_Tree@V?$_Tmap_traits@USItemPos@@USOfflineShopItemTable@@U?$less@USItemPos@@@std@@V?$allocator@U?$pair@$$CBUSItemPos@@USOfflineShopItemTable@@@std@@@4@$0A@@std@@@std@@QBEIXZ ; std::_Tree<std::_Tmap_traits<SItemPos,SOfflineShopItemTable,std::less<SItemPos>,std::allocator<std::pair<SItemPos const ,SOfflineShopItemTable> >,0> >::size
PUBLIC	?erase@?$_Tree@V?$_Tmap_traits@USItemPos@@USOfflineShopItemTable@@U?$less@USItemPos@@@std@@V?$allocator@U?$pair@$$CBUSItemPos@@USOfflineShopItemTable@@@std@@@4@$0A@@std@@@std@@QAEIABUSItemPos@@@Z ; std::_Tree<std::_Tmap_traits<SItemPos,SOfflineShopItemTable,std::less<SItemPos>,std::allocator<std::pair<SItemPos const ,SOfflineShopItemTable> >,0> >::erase
PUBLIC	?clear@?$_Tree@V?$_Tmap_traits@USItemPos@@USOfflineShopItemTable@@U?$less@USItemPos@@@std@@V?$allocator@U?$pair@$$CBUSItemPos@@USOfflineShopItemTable@@@std@@@4@$0A@@std@@@std@@QAEXXZ ; std::_Tree<std::_Tmap_traits<SItemPos,SOfflineShopItemTable,std::less<SItemPos>,std::allocator<std::pair<SItemPos const ,SOfflineShopItemTable> >,0> >::clear
PUBLIC	?find@?$_Tree@V?$_Tmap_traits@USItemPos@@USOfflineShopItemTable@@U?$less@USItemPos@@@std@@V?$allocator@U?$pair@$$CBUSItemPos@@USOfflineShopItemTable@@@std@@@4@$0A@@std@@@std@@QAE?AV?$_Tree_iterator@V?$_Tree_val@U?$_Tree_simple_types@U?$pair@$$CBUSItemPos@@USOfflineShopItemTable@@@std@@@std@@@std@@@2@ABUSItemPos@@@Z ; std::_Tree<std::_Tmap_traits<SItemPos,SOfflineShopItemTable,std::less<SItemPos>,std::allocator<std::pair<SItemPos const ,SOfflineShopItemTable> >,0> >::find
PUBLIC	??8?$_Tree_const_iterator@V?$_Tree_val@U?$_Tree_simple_types@U?$pair@$$CBUSItemPos@@USOfflineShopItemTable@@@std@@@std@@@std@@@std@@QBE_NABV01@@Z ; std::_Tree_const_iterator<std::_Tree_val<std::_Tree_simple_types<std::pair<SItemPos const ,SOfflineShopItemTable> > > >::operator==
PUBLIC	??C?$_Tree_iterator@V?$_Tree_val@U?$_Tree_simple_types@U?$pair@$$CBUSItemPos@@USOfflineShopItemTable@@@std@@@std@@@std@@@std@@QBEPAU?$pair@$$CBUSItemPos@@USOfflineShopItemTable@@@1@XZ ; std::_Tree_iterator<std::_Tree_val<std::_Tree_simple_types<std::pair<SItemPos const ,SOfflineShopItemTable> > > >::operator->
PUBLIC	??E?$_Tree_iterator@V?$_Tree_val@U?$_Tree_simple_types@U?$pair@$$CBUSItemPos@@USOfflineShopItemTable@@@std@@@std@@@std@@@std@@QAEAAV01@XZ ; std::_Tree_iterator<std::_Tree_val<std::_Tree_simple_types<std::pair<SItemPos const ,SOfflineShopItemTable> > > >::operator++
PUBLIC	??0?$map@USItemPos@@USShopItemTable@@U?$less@USItemPos@@@std@@V?$allocator@U?$pair@$$CBUSItemPos@@USShopItemTable@@@std@@@4@@std@@QAE@XZ ; std::map<SItemPos,SShopItemTable,std::less<SItemPos>,std::allocator<std::pair<SItemPos const ,SShopItemTable> > >::map<SItemPos,SShopItemTable,std::less<SItemPos>,std::allocator<std::pair<SItemPos const ,SShopItemTable> > >
PUBLIC	??1?$_Tree@V?$_Tmap_traits@USItemPos@@USShopItemTable@@U?$less@USItemPos@@@std@@V?$allocator@U?$pair@$$CBUSItemPos@@USShopItemTable@@@std@@@4@$0A@@std@@@std@@QAE@XZ ; std::_Tree<std::_Tmap_traits<SItemPos,SShopItemTable,std::less<SItemPos>,std::allocator<std::pair<SItemPos const ,SShopItemTable> >,0> >::~_Tree<std::_Tmap_traits<SItemPos,SShopItemTable,std::less<SItemPos>,std::allocator<std::pair<SItemPos const ,SShopItemTable> >,0> >
PUBLIC	?begin@?$_Tree@V?$_Tmap_traits@USItemPos@@USShopItemTable@@U?$less@USItemPos@@@std@@V?$allocator@U?$pair@$$CBUSItemPos@@USShopItemTable@@@std@@@4@$0A@@std@@@std@@QAE?AV?$_Tree_iterator@V?$_Tree_val@U?$_Tree_simple_types@U?$pair@$$CBUSItemPos@@USShopItemTable@@@std@@@std@@@std@@@2@XZ ; std::_Tree<std::_Tmap_traits<SItemPos,SShopItemTable,std::less<SItemPos>,std::allocator<std::pair<SItemPos const ,SShopItemTable> >,0> >::begin
PUBLIC	?end@?$_Tree@V?$_Tmap_traits@USItemPos@@USShopItemTable@@U?$less@USItemPos@@@std@@V?$allocator@U?$pair@$$CBUSItemPos@@USShopItemTable@@@std@@@4@$0A@@std@@@std@@QAE?AV?$_Tree_iterator@V?$_Tree_val@U?$_Tree_simple_types@U?$pair@$$CBUSItemPos@@USShopItemTable@@@std@@@std@@@std@@@2@XZ ; std::_Tree<std::_Tmap_traits<SItemPos,SShopItemTable,std::less<SItemPos>,std::allocator<std::pair<SItemPos const ,SShopItemTable> >,0> >::end
PUBLIC	?size@?$_Tree@V?$_Tmap_traits@USItemPos@@USShopItemTable@@U?$less@USItemPos@@@std@@V?$allocator@U?$pair@$$CBUSItemPos@@USShopItemTable@@@std@@@4@$0A@@std@@@std@@QBEIXZ ; std::_Tree<std::_Tmap_traits<SItemPos,SShopItemTable,std::less<SItemPos>,std::allocator<std::pair<SItemPos const ,SShopItemTable> >,0> >::size
PUBLIC	?erase@?$_Tree@V?$_Tmap_traits@USItemPos@@USShopItemTable@@U?$less@USItemPos@@@std@@V?$allocator@U?$pair@$$CBUSItemPos@@USShopItemTable@@@std@@@4@$0A@@std@@@std@@QAEIABUSItemPos@@@Z ; std::_Tree<std::_Tmap_traits<SItemPos,SShopItemTable,std::less<SItemPos>,std::allocator<std::pair<SItemPos const ,SShopItemTable> >,0> >::erase
PUBLIC	?clear@?$_Tree@V?$_Tmap_traits@USItemPos@@USShopItemTable@@U?$less@USItemPos@@@std@@V?$allocator@U?$pair@$$CBUSItemPos@@USShopItemTable@@@std@@@4@$0A@@std@@@std@@QAEXXZ ; std::_Tree<std::_Tmap_traits<SItemPos,SShopItemTable,std::less<SItemPos>,std::allocator<std::pair<SItemPos const ,SShopItemTable> >,0> >::clear
PUBLIC	?find@?$_Tree@V?$_Tmap_traits@USItemPos@@USShopItemTable@@U?$less@USItemPos@@@std@@V?$allocator@U?$pair@$$CBUSItemPos@@USShopItemTable@@@std@@@4@$0A@@std@@@std@@QAE?AV?$_Tree_iterator@V?$_Tree_val@U?$_Tree_simple_types@U?$pair@$$CBUSItemPos@@USShopItemTable@@@std@@@std@@@std@@@2@ABUSItemPos@@@Z ; std::_Tree<std::_Tmap_traits<SItemPos,SShopItemTable,std::less<SItemPos>,std::allocator<std::pair<SItemPos const ,SShopItemTable> >,0> >::find
PUBLIC	??8?$_Tree_const_iterator@V?$_Tree_val@U?$_Tree_simple_types@U?$pair@$$CBUSItemPos@@USShopItemTable@@@std@@@std@@@std@@@std@@QBE_NABV01@@Z ; std::_Tree_const_iterator<std::_Tree_val<std::_Tree_simple_types<std::pair<SItemPos const ,SShopItemTable> > > >::operator==
PUBLIC	??C?$_Tree_iterator@V?$_Tree_val@U?$_Tree_simple_types@U?$pair@$$CBUSItemPos@@USShopItemTable@@@std@@@std@@@std@@@std@@QBEPAU?$pair@$$CBUSItemPos@@USShopItemTable@@@1@XZ ; std::_Tree_iterator<std::_Tree_val<std::_Tree_simple_types<std::pair<SItemPos const ,SShopItemTable> > > >::operator->
PUBLIC	??E?$_Tree_iterator@V?$_Tree_val@U?$_Tree_simple_types@U?$pair@$$CBUSItemPos@@USShopItemTable@@@std@@@std@@@std@@@std@@QAEAAV01@XZ ; std::_Tree_iterator<std::_Tree_val<std::_Tree_simple_types<std::pair<SItemPos const ,SShopItemTable> > > >::operator++
PUBLIC	??0?$vector@USOfflineShopItemTable@@V?$allocator@USOfflineShopItemTable@@@std@@@std@@QAE@XZ ; std::vector<SOfflineShopItemTable,std::allocator<SOfflineShopItemTable> >::vector<SOfflineShopItemTable,std::allocator<SOfflineShopItemTable> >
PUBLIC	??1?$vector@USOfflineShopItemTable@@V?$allocator@USOfflineShopItemTable@@@std@@@std@@QAE@XZ ; std::vector<SOfflineShopItemTable,std::allocator<SOfflineShopItemTable> >::~vector<SOfflineShopItemTable,std::allocator<SOfflineShopItemTable> >
PUBLIC	?push_back@?$vector@USOfflineShopItemTable@@V?$allocator@USOfflineShopItemTable@@@std@@@std@@QAEXABUSOfflineShopItemTable@@@Z ; std::vector<SOfflineShopItemTable,std::allocator<SOfflineShopItemTable> >::push_back
PUBLIC	?reserve@?$vector@USOfflineShopItemTable@@V?$allocator@USOfflineShopItemTable@@@std@@@std@@QAEXI@Z ; std::vector<SOfflineShopItemTable,std::allocator<SOfflineShopItemTable> >::reserve
PUBLIC	?begin@?$vector@USOfflineShopItemTable@@V?$allocator@USOfflineShopItemTable@@@std@@@std@@QAE?AV?$_Vector_iterator@V?$_Vector_val@U?$_Simple_types@USOfflineShopItemTable@@@std@@@std@@@2@XZ ; std::vector<SOfflineShopItemTable,std::allocator<SOfflineShopItemTable> >::begin
PUBLIC	??0?$_Vector_iterator@V?$_Vector_val@U?$_Simple_types@USOfflineShopItemTable@@@std@@@std@@@std@@QAE@PAUSOfflineShopItemTable@@PBU_Container_base0@1@@Z ; std::_Vector_iterator<std::_Vector_val<std::_Simple_types<SOfflineShopItemTable> > >::_Vector_iterator<std::_Vector_val<std::_Simple_types<SOfflineShopItemTable> > >
PUBLIC	?end@?$vector@USOfflineShopItemTable@@V?$allocator@USOfflineShopItemTable@@@std@@@std@@QAE?AV?$_Vector_iterator@V?$_Vector_val@U?$_Simple_types@USOfflineShopItemTable@@@std@@@std@@@2@XZ ; std::vector<SOfflineShopItemTable,std::allocator<SOfflineShopItemTable> >::end
PUBLIC	??0?$vector@USShopItemTable@@V?$allocator@USShopItemTable@@@std@@@std@@QAE@XZ ; std::vector<SShopItemTable,std::allocator<SShopItemTable> >::vector<SShopItemTable,std::allocator<SShopItemTable> >
PUBLIC	??1?$vector@USShopItemTable@@V?$allocator@USShopItemTable@@@std@@@std@@QAE@XZ ; std::vector<SShopItemTable,std::allocator<SShopItemTable> >::~vector<SShopItemTable,std::allocator<SShopItemTable> >
PUBLIC	?push_back@?$vector@USShopItemTable@@V?$allocator@USShopItemTable@@@std@@@std@@QAEXABUSShopItemTable@@@Z ; std::vector<SShopItemTable,std::allocator<SShopItemTable> >::push_back
PUBLIC	?reserve@?$vector@USShopItemTable@@V?$allocator@USShopItemTable@@@std@@@std@@QAEXI@Z ; std::vector<SShopItemTable,std::allocator<SShopItemTable> >::reserve
PUBLIC	?begin@?$vector@USShopItemTable@@V?$allocator@USShopItemTable@@@std@@@std@@QAE?AV?$_Vector_iterator@V?$_Vector_val@U?$_Simple_types@USShopItemTable@@@std@@@std@@@2@XZ ; std::vector<SShopItemTable,std::allocator<SShopItemTable> >::begin
PUBLIC	??0?$_Vector_iterator@V?$_Vector_val@U?$_Simple_types@USShopItemTable@@@std@@@std@@@std@@QAE@PAUSShopItemTable@@PBU_Container_base0@1@@Z ; std::_Vector_iterator<std::_Vector_val<std::_Simple_types<SShopItemTable> > >::_Vector_iterator<std::_Vector_val<std::_Simple_types<SShopItemTable> > >
PUBLIC	?end@?$vector@USShopItemTable@@V?$allocator@USShopItemTable@@@std@@@std@@QAE?AV?$_Vector_iterator@V?$_Vector_val@U?$_Simple_types@USShopItemTable@@@std@@@std@@@2@XZ ; std::vector<SShopItemTable,std::allocator<SShopItemTable> >::end
PUBLIC	??$_Pass_fn@UOfflineShopItemStockSortFunc@@@std@@YA?A_PAAUOfflineShopItemStockSortFunc@@@Z ; std::_Pass_fn<OfflineShopItemStockSortFunc>
PUBLIC	?_Unwrapped@?$_Vector_iterator@V?$_Vector_val@U?$_Simple_types@USOfflineShopItemTable@@@std@@@std@@@std@@QBEPAUSOfflineShopItemTable@@XZ ; std::_Vector_iterator<std::_Vector_val<std::_Simple_types<SOfflineShopItemTable> > >::_Unwrapped
PUBLIC	??$_Get_unwrapped@ABV?$_Vector_iterator@V?$_Vector_val@U?$_Simple_types@USOfflineShopItemTable@@@std@@@std@@@std@@@std@@YA?A_TABV?$_Vector_iterator@V?$_Vector_val@U?$_Simple_types@USOfflineShopItemTable@@@std@@@std@@@0@@Z ; std::_Get_unwrapped<std::_Vector_iterator<std::_Vector_val<std::_Simple_types<SOfflineShopItemTable> > > const &>
PUBLIC	??$sort@V?$_Vector_iterator@V?$_Vector_val@U?$_Simple_types@USOfflineShopItemTable@@@std@@@std@@@std@@UOfflineShopItemStockSortFunc@@@std@@YAXV?$_Vector_iterator@V?$_Vector_val@U?$_Simple_types@USOfflineShopItemTable@@@std@@@std@@@0@0UOfflineShopItemStockSortFunc@@@Z ; std::sort<std::_Vector_iterator<std::_Vector_val<std::_Simple_types<SOfflineShopItemTable> > >,OfflineShopItemStockSortFunc>
PUBLIC	??$insert@U?$pair@USItemPos@@USOfflineShopItemTable@@@std@@$0A@@?$map@USItemPos@@USOfflineShopItemTable@@U?$less@USItemPos@@@std@@V?$allocator@U?$pair@$$CBUSItemPos@@USOfflineShopItemTable@@@std@@@4@@std@@QAE?AU?$pair@V?$_Tree_iterator@V?$_Tree_val@U?$_Tree_simple_types@U?$pair@$$CBUSItemPos@@USOfflineShopItemTable@@@std@@@std@@@std@@@std@@_N@1@$$QAU?$pair@USItemPos@@USOfflineShopItemTable@@@1@@Z ; std::map<SItemPos,SOfflineShopItemTable,std::less<SItemPos>,std::allocator<std::pair<SItemPos const ,SOfflineShopItemTable> > >::insert<std::pair<SItemPos,SOfflineShopItemTable>,0>
PUBLIC	??$make_pair@AAUSItemPos@@AAUSOfflineShopItemTable@@@std@@YA?AU?$pair@USItemPos@@USOfflineShopItemTable@@@0@AAUSItemPos@@AAUSOfflineShopItemTable@@@Z ; std::make_pair<SItemPos &,SOfflineShopItemTable &>
PUBLIC	??$_Pass_fn@UItemStockSortFunc@@@std@@YA?A_PAAUItemStockSortFunc@@@Z ; std::_Pass_fn<ItemStockSortFunc>
PUBLIC	?_Unwrapped@?$_Vector_iterator@V?$_Vector_val@U?$_Simple_types@USShopItemTable@@@std@@@std@@@std@@QBEPAUSShopItemTable@@XZ ; std::_Vector_iterator<std::_Vector_val<std::_Simple_types<SShopItemTable> > >::_Unwrapped
PUBLIC	??$_Get_unwrapped@ABV?$_Vector_iterator@V?$_Vector_val@U?$_Simple_types@USShopItemTable@@@std@@@std@@@std@@@std@@YA?A_TABV?$_Vector_iterator@V?$_Vector_val@U?$_Simple_types@USShopItemTable@@@std@@@std@@@0@@Z ; std::_Get_unwrapped<std::_Vector_iterator<std::_Vector_val<std::_Simple_types<SShopItemTable> > > const &>
PUBLIC	??$sort@V?$_Vector_iterator@V?$_Vector_val@U?$_Simple_types@USShopItemTable@@@std@@@std@@@std@@UItemStockSortFunc@@@std@@YAXV?$_Vector_iterator@V?$_Vector_val@U?$_Simple_types@USShopItemTable@@@std@@@std@@@0@0UItemStockSortFunc@@@Z ; std::sort<std::_Vector_iterator<std::_Vector_val<std::_Simple_types<SShopItemTable> > >,ItemStockSortFunc>
PUBLIC	??$insert@U?$pair@USItemPos@@USShopItemTable@@@std@@$0A@@?$map@USItemPos@@USShopItemTable@@U?$less@USItemPos@@@std@@V?$allocator@U?$pair@$$CBUSItemPos@@USShopItemTable@@@std@@@4@@std@@QAE?AU?$pair@V?$_Tree_iterator@V?$_Tree_val@U?$_Tree_simple_types@U?$pair@$$CBUSItemPos@@USShopItemTable@@@std@@@std@@@std@@@std@@_N@1@$$QAU?$pair@USItemPos@@USShopItemTable@@@1@@Z ; std::map<SItemPos,SShopItemTable,std::less<SItemPos>,std::allocator<std::pair<SItemPos const ,SShopItemTable> > >::insert<std::pair<SItemPos,SShopItemTable>,0>
PUBLIC	??$make_pair@AAUSItemPos@@AAUSShopItemTable@@@std@@YA?AU?$pair@USItemPos@@USShopItemTable@@@0@AAUSItemPos@@AAUSShopItemTable@@@Z ; std::make_pair<SItemPos &,SShopItemTable &>
PUBLIC	?initshop@@YAXXZ				; initshop
PUBLIC	?shopGetItemChangeLookVnum@@YAPAU_object@@PAU1@0@Z ; shopGetItemChangeLookVnum
PUBLIC	?shopSetShopTime@@YAPAU_object@@PAU1@0@Z	; shopSetShopTime
PUBLIC	?shopGetShopTime@@YAPAU_object@@PAU1@0@Z	; shopGetShopTime
PUBLIC	?shopSetShopType@@YAPAU_object@@PAU1@0@Z	; shopSetShopType
PUBLIC	?shopGetShopType@@YAPAU_object@@PAU1@0@Z	; shopGetShopType
PUBLIC	?shopSetShopFlag@@YAPAU_object@@PAU1@0@Z	; shopSetShopFlag
PUBLIC	?shopGetShopFlag@@YAPAU_object@@PAU1@0@Z	; shopGetShopFlag
PUBLIC	?shopGetRealWatcherCount@@YAPAU_object@@PAU1@0@Z ; shopGetRealWatcherCount
PUBLIC	?shopChangeDecoration@@YAPAU_object@@PAU1@0@Z	; shopChangeDecoration
PUBLIC	?shopHasOfflineShop@@YAPAU_object@@PAU1@0@Z	; shopHasOfflineShop
PUBLIC	?shopGetCurrentOfflineShopMoney@@YAPAU_object@@PAU1@0@Z ; shopGetCurrentOfflineShopMoney
PUBLIC	?shopGetOfflineShopID@@YAPAU_object@@PAU1@0@Z	; shopGetOfflineShopID
PUBLIC	?shopGetDisplayedCount@@YAPAU_object@@PAU1@0@Z	; shopGetDisplayedCount
PUBLIC	?shopBuildOfflineShop@@YAPAU_object@@PAU1@0@Z	; shopBuildOfflineShop
PUBLIC	?shopGetOfflineShopItemGetBuyerName@@YAPAU_object@@PAU1@0@Z ; shopGetOfflineShopItemGetBuyerName
PUBLIC	?shopGetOfflineShopItemGetStatus@@YAPAU_object@@PAU1@0@Z ; shopGetOfflineShopItemGetStatus
PUBLIC	?shopGetOfflineShopItemPriceReal@@YAPAU_object@@PAU1@0@Z ; shopGetOfflineShopItemPriceReal
PUBLIC	?shopDelOfflineShopItemStock@@YAPAU_object@@PAU1@0@Z ; shopDelOfflineShopItemStock
PUBLIC	?shopAddOfflineShopItemStock@@YAPAU_object@@PAU1@0@Z ; shopAddOfflineShopItemStock
PUBLIC	?shopClearOfflineShopStock@@YAPAU_object@@PAU1@0@Z ; shopClearOfflineShopStock
PUBLIC	?shopGetOfflineShopItemAttribute@@YAPAU_object@@PAU1@0@Z ; shopGetOfflineShopItemAttribute
PUBLIC	?shopGetOfflineShopItemMetinSocket@@YAPAU_object@@PAU1@0@Z ; shopGetOfflineShopItemMetinSocket
PUBLIC	?shopGetSign@@YAPAU_object@@PAU1@0@Z		; shopGetSign
PUBLIC	?shopGetOfflineShopItemPrice@@YAPAU_object@@PAU1@0@Z ; shopGetOfflineShopItemPrice
PUBLIC	?shopGetOfflineShopItemVnum@@YAPAU_object@@PAU1@0@Z ; shopGetOfflineShopItemVnum
PUBLIC	?shopGetOfflineShopItemCount@@YAPAU_object@@PAU1@0@Z ; shopGetOfflineShopItemCount
PUBLIC	?shopGetOfflineShopItemID@@YAPAU_object@@PAU1@0@Z ; shopGetOfflineShopItemID
PUBLIC	?shopIsOfflineShop@@YAPAU_object@@PAU1@0@Z	; shopIsOfflineShop
PUBLIC	?shopGetOfflineShopItemTransmutation@@YAPAU_object@@PAU1@0@Z ; shopGetOfflineShopItemTransmutation
PUBLIC	?BuildOfflineShop@CPythonShop@@QAEXPBDKE@Z	; CPythonShop::BuildOfflineShop
PUBLIC	?GetOfflineShopItemPrice@CPythonShop@@QAE_JUSItemPos@@@Z ; CPythonShop::GetOfflineShopItemPrice
PUBLIC	?DelOfflineShopItemStock@CPythonShop@@QAEXUSItemPos@@@Z ; CPythonShop::DelOfflineShopItemStock
PUBLIC	??0SOfflineShopItemTable@@QAE@XZ		; SOfflineShopItemTable::SOfflineShopItemTable
PUBLIC	?AddOfflineShopItemStock@CPythonShop@@QAEXUSItemPos@@E_J@Z ; CPythonShop::AddOfflineShopItemStock
PUBLIC	??ROfflineShopItemStockSortFunc@@QAE_NAAUSOfflineShopItemTable@@0@Z ; OfflineShopItemStockSortFunc::operator()
PUBLIC	?GetOfflineShopItemData@CPythonShop@@QAEHEKPAPBUpacket_offline_shop_item@@@Z ; CPythonShop::GetOfflineShopItemData
PUBLIC	?GetOfflineShopItemData@CPythonShop@@QAEHKPAPBUpacket_offline_shop_item@@@Z ; CPythonShop::GetOfflineShopItemData
PUBLIC	?SetOfflineShopItemData@CPythonShop@@QAEXEKABUpacket_offline_shop_item@@@Z ; CPythonShop::SetOfflineShopItemData
PUBLIC	?shopGetItemPriceVnum@@YAPAU_object@@PAU1@0@Z	; shopGetItemPriceVnum
PUBLIC	?shopGetItemPriceType@@YAPAU_object@@PAU1@0@Z	; shopGetItemPriceType
PUBLIC	?shopGetTabCoinType@@YAPAU_object@@PAU1@0@Z	; shopGetTabCoinType
PUBLIC	?shopGetTabName@@YAPAU_object@@PAU1@0@Z		; shopGetTabName
PUBLIC	?shopGetTabCount@@YAPAU_object@@PAU1@0@Z	; shopGetTabCount
PUBLIC	?shopBuildPrivateShop@@YAPAU_object@@PAU1@0@Z	; shopBuildPrivateShop
PUBLIC	?shopGetPrivateShopItemPrice@@YAPAU_object@@PAU1@0@Z ; shopGetPrivateShopItemPrice
PUBLIC	?shopDelPrivateShopItemStock@@YAPAU_object@@PAU1@0@Z ; shopDelPrivateShopItemStock
PUBLIC	?shopAddPrivateShopItemStock@@YAPAU_object@@PAU1@0@Z ; shopAddPrivateShopItemStock
PUBLIC	?shopClearPrivateShopStock@@YAPAU_object@@PAU1@0@Z ; shopClearPrivateShopStock
PUBLIC	?shopGetItemAttribute@@YAPAU_object@@PAU1@0@Z	; shopGetItemAttribute
PUBLIC	?shopGetItemMetinSocket@@YAPAU_object@@PAU1@0@Z	; shopGetItemMetinSocket
PUBLIC	?shopGetItemPrice@@YAPAU_object@@PAU1@0@Z	; shopGetItemPrice
PUBLIC	?shopGetItemCount@@YAPAU_object@@PAU1@0@Z	; shopGetItemCount
PUBLIC	?shopGetItemID@@YAPAU_object@@PAU1@0@Z		; shopGetItemID
PUBLIC	?shopIsMainPlayerPrivateShop@@YAPAU_object@@PAU1@0@Z ; shopIsMainPlayerPrivateShop
PUBLIC	?shopIsPrviateShop@@YAPAU_object@@PAU1@0@Z	; shopIsPrviateShop
PUBLIC	?shopIsOpen@@YAPAU_object@@PAU1@0@Z		; shopIsOpen
PUBLIC	?shopClear@@YAPAU_object@@PAU1@0@Z		; shopClear
PUBLIC	?shopClose@@YAPAU_object@@PAU1@0@Z		; shopClose
PUBLIC	?shopOpen@@YAPAU_object@@PAU1@0@Z		; shopOpen
PUBLIC	??1?$map@USItemPos@@USShopItemTable@@U?$less@USItemPos@@@std@@V?$allocator@U?$pair@$$CBUSItemPos@@USShopItemTable@@@std@@@4@@std@@QAE@XZ ; std::map<SItemPos,SShopItemTable,std::less<SItemPos>,std::allocator<std::pair<SItemPos const ,SShopItemTable> > >::~map<SItemPos,SShopItemTable,std::less<SItemPos>,std::allocator<std::pair<SItemPos const ,SShopItemTable> > >
PUBLIC	??1ShopTab@CPythonShop@@QAE@XZ			; CPythonShop::ShopTab::~ShopTab
PUBLIC	??1?$map@USItemPos@@USOfflineShopItemTable@@U?$less@USItemPos@@@std@@V?$allocator@U?$pair@$$CBUSItemPos@@USOfflineShopItemTable@@@std@@@4@@std@@QAE@XZ ; std::map<SItemPos,SOfflineShopItemTable,std::less<SItemPos>,std::allocator<std::pair<SItemPos const ,SOfflineShopItemTable> > >::~map<SItemPos,SOfflineShopItemTable,std::less<SItemPos>,std::allocator<std::pair<SItemPos const ,SOfflineShopItemTable> > >
PUBLIC	??_GCPythonShop@@UAEPAXI@Z			; CPythonShop::`scalar deleting destructor'
PUBLIC	?IsMainPlayerPrivateShop@CPythonShop@@QAEHXZ	; CPythonShop::IsMainPlayerPrivateShop
PUBLIC	?IsPrivateShop@CPythonShop@@QAEHXZ		; CPythonShop::IsPrivateShop
PUBLIC	?Close@CPythonShop@@QAEXXZ			; CPythonShop::Close
PUBLIC	?Open@CPythonShop@@QAEXHH@Z			; CPythonShop::Open
PUBLIC	?BuildPrivateShop@CPythonShop@@QAEXPBD@Z	; CPythonShop::BuildPrivateShop
PUBLIC	??RItemStockSortFunc@@QAE_NAAUSShopItemTable@@0@Z ; ItemStockSortFunc::operator()
PUBLIC	?GetPrivateShopItemPrice@CPythonShop@@QAE_JUSItemPos@@@Z ; CPythonShop::GetPrivateShopItemPrice
PUBLIC	?DelPrivateShopItemStock@CPythonShop@@QAEXUSItemPos@@@Z ; CPythonShop::DelPrivateShopItemStock
PUBLIC	?AddPrivateShopItemStock@CPythonShop@@QAEXUSItemPos@@E_J@Z ; CPythonShop::AddPrivateShopItemStock
PUBLIC	?ClearPrivateShopStock@CPythonShop@@QAEXXZ	; CPythonShop::ClearPrivateShopStock
PUBLIC	?GetItemData@CPythonShop@@QAEHEKPAPBUpacket_shop_item@@@Z ; CPythonShop::GetItemData
PUBLIC	?GetItemData@CPythonShop@@QAEHKPAPBUpacket_shop_item@@@Z ; CPythonShop::GetItemData
PUBLIC	?GetTabName@CPythonShop@@QAEPBDE@Z		; CPythonShop::GetTabName
PUBLIC	?GetTabCoinType@CPythonShop@@QAEEE@Z		; CPythonShop::GetTabCoinType
PUBLIC	??0ShopTab@CPythonShop@@QAE@XZ			; CPythonShop::ShopTab::ShopTab
PUBLIC	?GetShopType@CPythonShop@@QAEKXZ		; CPythonShop::GetShopType
PUBLIC	?GetShopTime@CPythonShop@@QAEHXZ		; CPythonShop::GetShopTime
PUBLIC	?GetShopFlag@CPythonShop@@QAE_KXZ		; CPythonShop::GetShopFlag
PUBLIC	?GetRealWatcherCount@CPythonShop@@QAEKXZ	; CPythonShop::GetRealWatcherCount
PUBLIC	?HasOfflineShop@CPythonShop@@QAE_NXZ		; CPythonShop::HasOfflineShop
PUBLIC	?GetCurrentOfflineShopMoney@CPythonShop@@QAE_JXZ ; CPythonShop::GetCurrentOfflineShopMoney
PUBLIC	?ClearOfflineShopStock@CPythonShop@@QAEXXZ	; CPythonShop::ClearOfflineShopStock
PUBLIC	?IsOfflineShop@CPythonShop@@QAEHXZ		; CPythonShop::IsOfflineShop
PUBLIC	?GetShopDisplayedCount@CPythonShop@@QAEKXZ	; CPythonShop::GetShopDisplayedCount
PUBLIC	?GetShopSign@CPythonShop@@QAEPBDXZ		; CPythonShop::GetShopSign
PUBLIC	?GetTabCount@CPythonShop@@QAEEXZ		; CPythonShop::GetTabCount
PUBLIC	??0SShopItemTable@@QAE@XZ			; SShopItemTable::SShopItemTable
PUBLIC	?IsOpen@CPythonShop@@QAEHXZ			; CPythonShop::IsOpen
PUBLIC	?Clear@CPythonShop@@QAEXXZ			; CPythonShop::Clear
PUBLIC	?SetItemData@CPythonShop@@QAEXKABUpacket_shop_item@@@Z ; CPythonShop::SetItemData
PUBLIC	?SetTabCoinType@CPythonShop@@QAEXEE@Z		; CPythonShop::SetTabCoinType
PUBLIC	?SetTabName@CPythonShop@@QAEXEPBD@Z		; CPythonShop::SetTabName
PUBLIC	?SetItemData@CPythonShop@@QAEXEKABUpacket_shop_item@@@Z ; CPythonShop::SetItemData
PUBLIC	?SetOfflineShopItemData@CPythonShop@@QAEXKABUpacket_offline_shop_item@@@Z ; CPythonShop::SetOfflineShopItemData
PUBLIC	??0CPythonShop@@QAE@XZ				; CPythonShop::CPythonShop
PUBLIC	??1CPythonShop@@UAE@XZ				; CPythonShop::~CPythonShop
EXTRN	??_ECPythonShop@@UAEPAXI@Z:PROC			; CPythonShop::`vector deleting destructor'
EXTRN	??_E?$CSingleton@VCPythonShop@@@@UAEPAXI@Z:PROC	; CSingleton<CPythonShop>::`vector deleting destructor'
;	COMDAT xdata$x
xdata$x	SEGMENT
__ehfuncinfo$??1CPythonShop@@UAE@XZ DQ 00000000019930522r ; 2.11987e-315
	DQ	00000000000000000r		; 0
	DQ	00000000000000000r		; 0
	DQ	00000000000000000r		; 0
	DD	05H
xdata$x	ENDS
;	COMDAT xdata$x
xdata$x	SEGMENT
__ehfuncinfo$??0CPythonShop@@QAE@XZ DQ 00000000319930522r ; 6.57797e-314
	DD	FLAT:__unwindtable$??0CPythonShop@@QAE@XZ
	DQ	00000000000000000r		; 0
	DQ	00000000000000000r		; 0
	DQ	00000000100000000r		; 2.122e-314
__unwindtable$??0CPythonShop@@QAE@XZ DD 0ffffffffH
	DD	FLAT:__unwindfunclet$??0CPythonShop@@QAE@XZ$0
	DD	00H
	DD	FLAT:__unwindfunclet$??0CPythonShop@@QAE@XZ$1
	DD	01H
	DD	FLAT:__unwindfunclet$??0CPythonShop@@QAE@XZ$2
xdata$x	ENDS
;	COMDAT xdata$x
xdata$x	SEGMENT
__ehfuncinfo$?AddPrivateShopItemStock@CPythonShop@@QAEXUSItemPos@@E_J@Z DQ 00000000119930522r ; 2.33398e-314
	DD	FLAT:__unwindtable$?AddPrivateShopItemStock@CPythonShop@@QAEXUSItemPos@@E_J@Z
	DQ	00000000000000000r		; 0
	DQ	00000000000000000r		; 0
	DQ	00000000100000000r		; 2.122e-314
__unwindtable$?AddPrivateShopItemStock@CPythonShop@@QAEXUSItemPos@@E_J@Z DD 0ffffffffH
	DD	FLAT:__unwindfunclet$?AddPrivateShopItemStock@CPythonShop@@QAEXUSItemPos@@E_J@Z$2
xdata$x	ENDS
;	COMDAT xdata$x
xdata$x	SEGMENT
__ehfuncinfo$?BuildPrivateShop@CPythonShop@@QAEXPBD@Z DQ 00000000119930522r ; 2.33398e-314
	DD	FLAT:__unwindtable$?BuildPrivateShop@CPythonShop@@QAEXPBD@Z
	DQ	00000000000000000r		; 0
	DQ	00000000000000000r		; 0
	DQ	00000000100000000r		; 2.122e-314
__unwindtable$?BuildPrivateShop@CPythonShop@@QAEXPBD@Z DD 0ffffffffH
	DD	FLAT:__unwindfunclet$?BuildPrivateShop@CPythonShop@@QAEXPBD@Z$0
xdata$x	ENDS
;	COMDAT xdata$x
xdata$x	SEGMENT
__ehfuncinfo$?AddOfflineShopItemStock@CPythonShop@@QAEXUSItemPos@@E_J@Z DQ 00000000119930522r ; 2.33398e-314
	DD	FLAT:__unwindtable$?AddOfflineShopItemStock@CPythonShop@@QAEXUSItemPos@@E_J@Z
	DQ	00000000000000000r		; 0
	DQ	00000000000000000r		; 0
	DQ	00000000100000000r		; 2.122e-314
__unwindtable$?AddOfflineShopItemStock@CPythonShop@@QAEXUSItemPos@@E_J@Z DD 0ffffffffH
	DD	FLAT:__unwindfunclet$?AddOfflineShopItemStock@CPythonShop@@QAEXUSItemPos@@E_J@Z$2
xdata$x	ENDS
;	COMDAT xdata$x
xdata$x	SEGMENT
__ehfuncinfo$?BuildOfflineShop@CPythonShop@@QAEXPBDKE@Z DQ 00000000119930522r ; 2.33398e-314
	DD	FLAT:__unwindtable$?BuildOfflineShop@CPythonShop@@QAEXPBDKE@Z
	DQ	00000000000000000r		; 0
	DQ	00000000000000000r		; 0
	DQ	00000000100000000r		; 2.122e-314
__unwindtable$?BuildOfflineShop@CPythonShop@@QAEXPBDKE@Z DD 0ffffffffH
	DD	FLAT:__unwindfunclet$?BuildOfflineShop@CPythonShop@@QAEXPBDKE@Z$0
xdata$x	ENDS
;	COMDAT xdata$x
xdata$x	SEGMENT
__ehfuncinfo$??$insert@U?$pair@USItemPos@@USShopItemTable@@@std@@$0A@@?$map@USItemPos@@USShopItemTable@@U?$less@USItemPos@@@std@@V?$allocator@U?$pair@$$CBUSItemPos@@USShopItemTable@@@std@@@4@@std@@QAE?AU?$pair@V?$_Tree_iterator@V?$_Tree_val@U?$_Tree_simple_types@U?$pair@$$CBUSItemPos@@USShopItemTable@@@std@@@std@@@std@@@std@@_N@1@$$QAU?$pair@USItemPos@@USShopItemTable@@@1@@Z DQ 00000000119930522r ; 2.33398e-314
	DD	FLAT:__unwindtable$??$insert@U?$pair@USItemPos@@USShopItemTable@@@std@@$0A@@?$map@USItemPos@@USShopItemTable@@U?$less@USItemPos@@@std@@V?$allocator@U?$pair@$$CBUSItemPos@@USShopItemTable@@@std@@@4@@std@@QAE?AU?$pair@V?$_Tree_iterator@V?$_Tree_val@U?$_Tree_simple_types@U?$pair@$$CBUSItemPos@@USShopItemTable@@@std@@@std@@@std@@@std@@_N@1@$$QAU?$pair@USItemPos@@USShopItemTable@@@1@@Z
	DQ	00000000000000000r		; 0
	DQ	00000000000000000r		; 0
	DQ	00000000100000000r		; 2.122e-314
__unwindtable$??$insert@U?$pair@USItemPos@@USShopItemTable@@@std@@$0A@@?$map@USItemPos@@USShopItemTable@@U?$less@USItemPos@@@std@@V?$allocator@U?$pair@$$CBUSItemPos@@USShopItemTable@@@std@@@4@@std@@QAE?AU?$pair@V?$_Tree_iterator@V?$_Tree_val@U?$_Tree_simple_types@U?$pair@$$CBUSItemPos@@USShopItemTable@@@std@@@std@@@std@@@std@@_N@1@$$QAU?$pair@USItemPos@@USShopItemTable@@@1@@Z DD 0ffffffffH
	DD	FLAT:__unwindfunclet$??$insert@U?$pair@USItemPos@@USShopItemTable@@@std@@$0A@@?$map@USItemPos@@USShopItemTable@@U?$less@USItemPos@@@std@@V?$allocator@U?$pair@$$CBUSItemPos@@USShopItemTable@@@std@@@4@@std@@QAE?AU?$pair@V?$_Tree_iterator@V?$_Tree_val@U?$_Tree_simple_types@U?$pair@$$CBUSItemPos@@USShopItemTable@@@std@@@std@@@std@@@std@@_N@1@$$QAU?$pair@USItemPos@@USShopItemTable@@@1@@Z$2
xdata$x	ENDS
;	COMDAT xdata$x
xdata$x	SEGMENT
__ehfuncinfo$??$insert@U?$pair@USItemPos@@USOfflineShopItemTable@@@std@@$0A@@?$map@USItemPos@@USOfflineShopItemTable@@U?$less@USItemPos@@@std@@V?$allocator@U?$pair@$$CBUSItemPos@@USOfflineShopItemTable@@@std@@@4@@std@@QAE?AU?$pair@V?$_Tree_iterator@V?$_Tree_val@U?$_Tree_simple_types@U?$pair@$$CBUSItemPos@@USOfflineShopItemTable@@@std@@@std@@@std@@@std@@_N@1@$$QAU?$pair@USItemPos@@USOfflineShopItemTable@@@1@@Z DQ 00000000119930522r ; 2.33398e-314
	DD	FLAT:__unwindtable$??$insert@U?$pair@USItemPos@@USOfflineShopItemTable@@@std@@$0A@@?$map@USItemPos@@USOfflineShopItemTable@@U?$less@USItemPos@@@std@@V?$allocator@U?$pair@$$CBUSItemPos@@USOfflineShopItemTable@@@std@@@4@@std@@QAE?AU?$pair@V?$_Tree_iterator@V?$_Tree_val@U?$_Tree_simple_types@U?$pair@$$CBUSItemPos@@USOfflineShopItemTable@@@std@@@std@@@std@@@std@@_N@1@$$QAU?$pair@USItemPos@@USOfflineShopItemTable@@@1@@Z
	DQ	00000000000000000r		; 0
	DQ	00000000000000000r		; 0
	DQ	00000000100000000r		; 2.122e-314
__unwindtable$??$insert@U?$pair@USItemPos@@USOfflineShopItemTable@@@std@@$0A@@?$map@USItemPos@@USOfflineShopItemTable@@U?$less@USItemPos@@@std@@V?$allocator@U?$pair@$$CBUSItemPos@@USOfflineShopItemTable@@@std@@@4@@std@@QAE?AU?$pair@V?$_Tree_iterator@V?$_Tree_val@U?$_Tree_simple_types@U?$pair@$$CBUSItemPos@@USOfflineShopItemTable@@@std@@@std@@@std@@@std@@_N@1@$$QAU?$pair@USItemPos@@USOfflineShopItemTable@@@1@@Z DD 0ffffffffH
	DD	FLAT:__unwindfunclet$??$insert@U?$pair@USItemPos@@USOfflineShopItemTable@@@std@@$0A@@?$map@USItemPos@@USOfflineShopItemTable@@U?$less@USItemPos@@@std@@V?$allocator@U?$pair@$$CBUSItemPos@@USOfflineShopItemTable@@@std@@@4@@std@@QAE?AU?$pair@V?$_Tree_iterator@V?$_Tree_val@U?$_Tree_simple_types@U?$pair@$$CBUSItemPos@@USOfflineShopItemTable@@@std@@@std@@@std@@@std@@_N@1@$$QAU?$pair@USItemPos@@USOfflineShopItemTable@@@1@@Z$2
xdata$x	ENDS
;	COMDAT xdata$x
xdata$x	SEGMENT
__ehfuncinfo$??$emplace@U?$pair@USItemPos@@USShopItemTable@@@std@@@?$_Tree@V?$_Tmap_traits@USItemPos@@USShopItemTable@@U?$less@USItemPos@@@std@@V?$allocator@U?$pair@$$CBUSItemPos@@USShopItemTable@@@std@@@4@$0A@@std@@@std@@QAE?AU?$pair@V?$_Tree_iterator@V?$_Tree_val@U?$_Tree_simple_types@U?$pair@$$CBUSItemPos@@USShopItemTable@@@std@@@std@@@std@@@std@@_N@1@$$QAU?$pair@USItemPos@@USShopItemTable@@@1@@Z DQ 00000000119930522r ; 2.33398e-314
	DD	FLAT:__unwindtable$??$emplace@U?$pair@USItemPos@@USShopItemTable@@@std@@@?$_Tree@V?$_Tmap_traits@USItemPos@@USShopItemTable@@U?$less@USItemPos@@@std@@V?$allocator@U?$pair@$$CBUSItemPos@@USShopItemTable@@@std@@@4@$0A@@std@@@std@@QAE?AU?$pair@V?$_Tree_iterator@V?$_Tree_val@U?$_Tree_simple_types@U?$pair@$$CBUSItemPos@@USShopItemTable@@@std@@@std@@@std@@@std@@_N@1@$$QAU?$pair@USItemPos@@USShopItemTable@@@1@@Z
	DQ	00000000000000000r		; 0
	DQ	00000000000000000r		; 0
	DQ	00000000100000000r		; 2.122e-314
__unwindtable$??$emplace@U?$pair@USItemPos@@USShopItemTable@@@std@@@?$_Tree@V?$_Tmap_traits@USItemPos@@USShopItemTable@@U?$less@USItemPos@@@std@@V?$allocator@U?$pair@$$CBUSItemPos@@USShopItemTable@@@std@@@4@$0A@@std@@@std@@QAE?AU?$pair@V?$_Tree_iterator@V?$_Tree_val@U?$_Tree_simple_types@U?$pair@$$CBUSItemPos@@USShopItemTable@@@std@@@std@@@std@@@std@@_N@1@$$QAU?$pair@USItemPos@@USShopItemTable@@@1@@Z DD 0ffffffffH
	DD	FLAT:__unwindfunclet$??$emplace@U?$pair@USItemPos@@USShopItemTable@@@std@@@?$_Tree@V?$_Tmap_traits@USItemPos@@USShopItemTable@@U?$less@USItemPos@@@std@@V?$allocator@U?$pair@$$CBUSItemPos@@USShopItemTable@@@std@@@4@$0A@@std@@@std@@QAE?AU?$pair@V?$_Tree_iterator@V?$_Tree_val@U?$_Tree_simple_types@U?$pair@$$CBUSItemPos@@USShopItemTable@@@std@@@std@@@std@@@std@@_N@1@$$QAU?$pair@USItemPos@@USShopItemTable@@@1@@Z$2
xdata$x	ENDS
;	COMDAT xdata$x
xdata$x	SEGMENT
__ehfuncinfo$??$emplace@U?$pair@USItemPos@@USOfflineShopItemTable@@@std@@@?$_Tree@V?$_Tmap_traits@USItemPos@@USOfflineShopItemTable@@U?$less@USItemPos@@@std@@V?$allocator@U?$pair@$$CBUSItemPos@@USOfflineShopItemTable@@@std@@@4@$0A@@std@@@std@@QAE?AU?$pair@V?$_Tree_iterator@V?$_Tree_val@U?$_Tree_simple_types@U?$pair@$$CBUSItemPos@@USOfflineShopItemTable@@@std@@@std@@@std@@@std@@_N@1@$$QAU?$pair@USItemPos@@USOfflineShopItemTable@@@1@@Z DQ 00000000119930522r ; 2.33398e-314
	DD	FLAT:__unwindtable$??$emplace@U?$pair@USItemPos@@USOfflineShopItemTable@@@std@@@?$_Tree@V?$_Tmap_traits@USItemPos@@USOfflineShopItemTable@@U?$less@USItemPos@@@std@@V?$allocator@U?$pair@$$CBUSItemPos@@USOfflineShopItemTable@@@std@@@4@$0A@@std@@@std@@QAE?AU?$pair@V?$_Tree_iterator@V?$_Tree_val@U?$_Tree_simple_types@U?$pair@$$CBUSItemPos@@USOfflineShopItemTable@@@std@@@std@@@std@@@std@@_N@1@$$QAU?$pair@USItemPos@@USOfflineShopItemTable@@@1@@Z
	DQ	00000000000000000r		; 0
	DQ	00000000000000000r		; 0
	DQ	00000000100000000r		; 2.122e-314
__unwindtable$??$emplace@U?$pair@USItemPos@@USOfflineShopItemTable@@@std@@@?$_Tree@V?$_Tmap_traits@USItemPos@@USOfflineShopItemTable@@U?$less@USItemPos@@@std@@V?$allocator@U?$pair@$$CBUSItemPos@@USOfflineShopItemTable@@@std@@@4@$0A@@std@@@std@@QAE?AU?$pair@V?$_Tree_iterator@V?$_Tree_val@U?$_Tree_simple_types@U?$pair@$$CBUSItemPos@@USOfflineShopItemTable@@@std@@@std@@@std@@@std@@_N@1@$$QAU?$pair@USItemPos@@USOfflineShopItemTable@@@1@@Z DD 0ffffffffH
	DD	FLAT:__unwindfunclet$??$emplace@U?$pair@USItemPos@@USOfflineShopItemTable@@@std@@@?$_Tree@V?$_Tmap_traits@USItemPos@@USOfflineShopItemTable@@U?$less@USItemPos@@@std@@V?$allocator@U?$pair@$$CBUSItemPos@@USOfflineShopItemTable@@@std@@@4@$0A@@std@@@std@@QAE?AU?$pair@V?$_Tree_iterator@V?$_Tree_val@U?$_Tree_simple_types@U?$pair@$$CBUSItemPos@@USOfflineShopItemTable@@@std@@@std@@@std@@@std@@_N@1@$$QAU?$pair@USItemPos@@USOfflineShopItemTable@@@1@@Z$2
xdata$x	ENDS
;	COMDAT xdata$x
xdata$x	SEGMENT
__ehfuncinfo$??$_Emplace@U?$pair@USItemPos@@USShopItemTable@@@std@@@?$_Tree@V?$_Tmap_traits@USItemPos@@USShopItemTable@@U?$less@USItemPos@@@std@@V?$allocator@U?$pair@$$CBUSItemPos@@USShopItemTable@@@std@@@4@$0A@@std@@@std@@IAE?AU?$pair@PAU?$_Tree_node@U?$pair@$$CBUSItemPos@@USShopItemTable@@@std@@PAX@std@@_N@1@$$QAU?$pair@USItemPos@@USShopItemTable@@@1@@Z DQ 00000000119930522r ; 2.33398e-314
	DD	FLAT:__unwindtable$??$_Emplace@U?$pair@USItemPos@@USShopItemTable@@@std@@@?$_Tree@V?$_Tmap_traits@USItemPos@@USShopItemTable@@U?$less@USItemPos@@@std@@V?$allocator@U?$pair@$$CBUSItemPos@@USShopItemTable@@@std@@@4@$0A@@std@@@std@@IAE?AU?$pair@PAU?$_Tree_node@U?$pair@$$CBUSItemPos@@USShopItemTable@@@std@@PAX@std@@_N@1@$$QAU?$pair@USItemPos@@USShopItemTable@@@1@@Z
	DQ	00000000000000000r		; 0
	DQ	00000000000000000r		; 0
	DQ	00000000100000000r		; 2.122e-314
__unwindtable$??$_Emplace@U?$pair@USItemPos@@USShopItemTable@@@std@@@?$_Tree@V?$_Tmap_traits@USItemPos@@USShopItemTable@@U?$less@USItemPos@@@std@@V?$allocator@U?$pair@$$CBUSItemPos@@USShopItemTable@@@std@@@4@$0A@@std@@@std@@IAE?AU?$pair@PAU?$_Tree_node@U?$pair@$$CBUSItemPos@@USShopItemTable@@@std@@PAX@std@@_N@1@$$QAU?$pair@USItemPos@@USShopItemTable@@@1@@Z DD 0ffffffffH
	DD	FLAT:__unwindfunclet$??$_Emplace@U?$pair@USItemPos@@USShopItemTable@@@std@@@?$_Tree@V?$_Tmap_traits@USItemPos@@USShopItemTable@@U?$less@USItemPos@@@std@@V?$allocator@U?$pair@$$CBUSItemPos@@USShopItemTable@@@std@@@4@$0A@@std@@@std@@IAE?AU?$pair@PAU?$_Tree_node@U?$pair@$$CBUSItemPos@@USShopItemTable@@@std@@PAX@std@@_N@1@$$QAU?$pair@USItemPos@@USShopItemTable@@@1@@Z$2
xdata$x	ENDS
;	COMDAT xdata$x
xdata$x	SEGMENT
__ehfuncinfo$??$_Emplace@U?$pair@USItemPos@@USOfflineShopItemTable@@@std@@@?$_Tree@V?$_Tmap_traits@USItemPos@@USOfflineShopItemTable@@U?$less@USItemPos@@@std@@V?$allocator@U?$pair@$$CBUSItemPos@@USOfflineShopItemTable@@@std@@@4@$0A@@std@@@std@@IAE?AU?$pair@PAU?$_Tree_node@U?$pair@$$CBUSItemPos@@USOfflineShopItemTable@@@std@@PAX@std@@_N@1@$$QAU?$pair@USItemPos@@USOfflineShopItemTable@@@1@@Z DQ 00000000119930522r ; 2.33398e-314
	DD	FLAT:__unwindtable$??$_Emplace@U?$pair@USItemPos@@USOfflineShopItemTable@@@std@@@?$_Tree@V?$_Tmap_traits@USItemPos@@USOfflineShopItemTable@@U?$less@USItemPos@@@std@@V?$allocator@U?$pair@$$CBUSItemPos@@USOfflineShopItemTable@@@std@@@4@$0A@@std@@@std@@IAE?AU?$pair@PAU?$_Tree_node@U?$pair@$$CBUSItemPos@@USOfflineShopItemTable@@@std@@PAX@std@@_N@1@$$QAU?$pair@USItemPos@@USOfflineShopItemTable@@@1@@Z
	DQ	00000000000000000r		; 0
	DQ	00000000000000000r		; 0
	DQ	00000000100000000r		; 2.122e-314
__unwindtable$??$_Emplace@U?$pair@USItemPos@@USOfflineShopItemTable@@@std@@@?$_Tree@V?$_Tmap_traits@USItemPos@@USOfflineShopItemTable@@U?$less@USItemPos@@@std@@V?$allocator@U?$pair@$$CBUSItemPos@@USOfflineShopItemTable@@@std@@@4@$0A@@std@@@std@@IAE?AU?$pair@PAU?$_Tree_node@U?$pair@$$CBUSItemPos@@USOfflineShopItemTable@@@std@@PAX@std@@_N@1@$$QAU?$pair@USItemPos@@USOfflineShopItemTable@@@1@@Z DD 0ffffffffH
	DD	FLAT:__unwindfunclet$??$_Emplace@U?$pair@USItemPos@@USOfflineShopItemTable@@@std@@@?$_Tree@V?$_Tmap_traits@USItemPos@@USOfflineShopItemTable@@U?$less@USItemPos@@@std@@V?$allocator@U?$pair@$$CBUSItemPos@@USOfflineShopItemTable@@@std@@@4@$0A@@std@@@std@@IAE?AU?$pair@PAU?$_Tree_node@U?$pair@$$CBUSItemPos@@USOfflineShopItemTable@@@std@@PAX@std@@_N@1@$$QAU?$pair@USItemPos@@USOfflineShopItemTable@@@1@@Z$2
xdata$x	ENDS
;	COMDAT xdata$x
xdata$x	SEGMENT
__ehfuncinfo$??$?0U?$pair@USItemPos@@USShopItemTable@@@std@@@?$_Tree_temp_node@V?$allocator@U?$_Tree_node@U?$pair@$$CBUSItemPos@@USShopItemTable@@@std@@PAX@std@@@std@@@std@@QAE@AAV?$allocator@U?$_Tree_node@U?$pair@$$CBUSItemPos@@USShopItemTable@@@std@@PAX@std@@@1@PAU?$_Tree_node@U?$pair@$$CBUSItemPos@@USShopItemTable@@@std@@PAX@1@$$QAU?$pair@USItemPos@@USShopItemTable@@@1@@Z DQ 00000000119930522r ; 2.33398e-314
	DD	FLAT:__unwindtable$??$?0U?$pair@USItemPos@@USShopItemTable@@@std@@@?$_Tree_temp_node@V?$allocator@U?$_Tree_node@U?$pair@$$CBUSItemPos@@USShopItemTable@@@std@@PAX@std@@@std@@@std@@QAE@AAV?$allocator@U?$_Tree_node@U?$pair@$$CBUSItemPos@@USShopItemTable@@@std@@PAX@std@@@1@PAU?$_Tree_node@U?$pair@$$CBUSItemPos@@USShopItemTable@@@std@@PAX@1@$$QAU?$pair@USItemPos@@USShopItemTable@@@1@@Z
	DQ	00000000000000000r		; 0
	DQ	00000000000000000r		; 0
	DQ	00000000100000000r		; 2.122e-314
__unwindtable$??$?0U?$pair@USItemPos@@USShopItemTable@@@std@@@?$_Tree_temp_node@V?$allocator@U?$_Tree_node@U?$pair@$$CBUSItemPos@@USShopItemTable@@@std@@PAX@std@@@std@@@std@@QAE@AAV?$allocator@U?$_Tree_node@U?$pair@$$CBUSItemPos@@USShopItemTable@@@std@@PAX@std@@@1@PAU?$_Tree_node@U?$pair@$$CBUSItemPos@@USShopItemTable@@@std@@PAX@1@$$QAU?$pair@USItemPos@@USShopItemTable@@@1@@Z DD 0ffffffffH
	DD	FLAT:__unwindfunclet$??$?0U?$pair@USItemPos@@USShopItemTable@@@std@@@?$_Tree_temp_node@V?$allocator@U?$_Tree_node@U?$pair@$$CBUSItemPos@@USShopItemTable@@@std@@PAX@std@@@std@@@std@@QAE@AAV?$allocator@U?$_Tree_node@U?$pair@$$CBUSItemPos@@USShopItemTable@@@std@@PAX@std@@@1@PAU?$_Tree_node@U?$pair@$$CBUSItemPos@@USShopItemTable@@@std@@PAX@1@$$QAU?$pair@USItemPos@@USShopItemTable@@@1@@Z$1
xdata$x	ENDS
;	COMDAT xdata$x
xdata$x	SEGMENT
__ehfuncinfo$??$?0U?$pair@USItemPos@@USOfflineShopItemTable@@@std@@@?$_Tree_temp_node@V?$allocator@U?$_Tree_node@U?$pair@$$CBUSItemPos@@USOfflineShopItemTable@@@std@@PAX@std@@@std@@@std@@QAE@AAV?$allocator@U?$_Tree_node@U?$pair@$$CBUSItemPos@@USOfflineShopItemTable@@@std@@PAX@std@@@1@PAU?$_Tree_node@U?$pair@$$CBUSItemPos@@USOfflineShopItemTable@@@std@@PAX@1@$$QAU?$pair@USItemPos@@USOfflineShopItemTable@@@1@@Z DQ 00000000119930522r ; 2.33398e-314
	DD	FLAT:__unwindtable$??$?0U?$pair@USItemPos@@USOfflineShopItemTable@@@std@@@?$_Tree_temp_node@V?$allocator@U?$_Tree_node@U?$pair@$$CBUSItemPos@@USOfflineShopItemTable@@@std@@PAX@std@@@std@@@std@@QAE@AAV?$allocator@U?$_Tree_node@U?$pair@$$CBUSItemPos@@USOfflineShopItemTable@@@std@@PAX@std@@@1@PAU?$_Tree_node@U?$pair@$$CBUSItemPos@@USOfflineShopItemTable@@@std@@PAX@1@$$QAU?$pair@USItemPos@@USOfflineShopItemTable@@@1@@Z
	DQ	00000000000000000r		; 0
	DQ	00000000000000000r		; 0
	DQ	00000000100000000r		; 2.122e-314
__unwindtable$??$?0U?$pair@USItemPos@@USOfflineShopItemTable@@@std@@@?$_Tree_temp_node@V?$allocator@U?$_Tree_node@U?$pair@$$CBUSItemPos@@USOfflineShopItemTable@@@std@@PAX@std@@@std@@@std@@QAE@AAV?$allocator@U?$_Tree_node@U?$pair@$$CBUSItemPos@@USOfflineShopItemTable@@@std@@PAX@std@@@1@PAU?$_Tree_node@U?$pair@$$CBUSItemPos@@USOfflineShopItemTable@@@std@@PAX@1@$$QAU?$pair@USItemPos@@USOfflineShopItemTable@@@1@@Z DD 0ffffffffH
	DD	FLAT:__unwindfunclet$??$?0U?$pair@USItemPos@@USOfflineShopItemTable@@@std@@@?$_Tree_temp_node@V?$allocator@U?$_Tree_node@U?$pair@$$CBUSItemPos@@USOfflineShopItemTable@@@std@@PAX@std@@@std@@@std@@QAE@AAV?$allocator@U?$_Tree_node@U?$pair@$$CBUSItemPos@@USOfflineShopItemTable@@@std@@PAX@std@@@1@PAU?$_Tree_node@U?$pair@$$CBUSItemPos@@USOfflineShopItemTable@@@std@@PAX@1@$$QAU?$pair@USItemPos@@USOfflineShopItemTable@@@1@@Z$1
xdata$x	ENDS
;	COMDAT xdata$x
xdata$x	SEGMENT
__ehfuncinfo$??0?$_Tree_temp_node_alloc@V?$allocator@U?$_Tree_node@U?$pair@$$CBUSItemPos@@USOfflineShopItemTable@@@std@@PAX@std@@@std@@@std@@QAE@AAV?$allocator@U?$_Tree_node@U?$pair@$$CBUSItemPos@@USOfflineShopItemTable@@@std@@PAX@std@@@1@@Z DQ 00000000119930522r ; 2.33398e-314
	DD	FLAT:__unwindtable$??0?$_Tree_temp_node_alloc@V?$allocator@U?$_Tree_node@U?$pair@$$CBUSItemPos@@USOfflineShopItemTable@@@std@@PAX@std@@@std@@@std@@QAE@AAV?$allocator@U?$_Tree_node@U?$pair@$$CBUSItemPos@@USOfflineShopItemTable@@@std@@PAX@std@@@1@@Z
	DQ	00000000000000000r		; 0
	DQ	00000000000000000r		; 0
	DQ	00000000100000000r		; 2.122e-314
__unwindtable$??0?$_Tree_temp_node_alloc@V?$allocator@U?$_Tree_node@U?$pair@$$CBUSItemPos@@USOfflineShopItemTable@@@std@@PAX@std@@@std@@@std@@QAE@AAV?$allocator@U?$_Tree_node@U?$pair@$$CBUSItemPos@@USOfflineShopItemTable@@@std@@PAX@std@@@1@@Z DD 0ffffffffH
	DD	FLAT:__unwindfunclet$??0?$_Tree_temp_node_alloc@V?$allocator@U?$_Tree_node@U?$pair@$$CBUSItemPos@@USOfflineShopItemTable@@@std@@PAX@std@@@std@@@std@@QAE@AAV?$allocator@U?$_Tree_node@U?$pair@$$CBUSItemPos@@USOfflineShopItemTable@@@std@@PAX@std@@@1@@Z$0
xdata$x	ENDS
;	COMDAT xdata$x
xdata$x	SEGMENT
__ehfuncinfo$??0?$_Tree_temp_node_alloc@V?$allocator@U?$_Tree_node@U?$pair@$$CBUSItemPos@@USShopItemTable@@@std@@PAX@std@@@std@@@std@@QAE@AAV?$allocator@U?$_Tree_node@U?$pair@$$CBUSItemPos@@USShopItemTable@@@std@@PAX@std@@@1@@Z DQ 00000000119930522r ; 2.33398e-314
	DD	FLAT:__unwindtable$??0?$_Tree_temp_node_alloc@V?$allocator@U?$_Tree_node@U?$pair@$$CBUSItemPos@@USShopItemTable@@@std@@PAX@std@@@std@@@std@@QAE@AAV?$allocator@U?$_Tree_node@U?$pair@$$CBUSItemPos@@USShopItemTable@@@std@@PAX@std@@@1@@Z
	DQ	00000000000000000r		; 0
	DQ	00000000000000000r		; 0
	DQ	00000000100000000r		; 2.122e-314
__unwindtable$??0?$_Tree_temp_node_alloc@V?$allocator@U?$_Tree_node@U?$pair@$$CBUSItemPos@@USShopItemTable@@@std@@PAX@std@@@std@@@std@@QAE@AAV?$allocator@U?$_Tree_node@U?$pair@$$CBUSItemPos@@USShopItemTable@@@std@@PAX@std@@@1@@Z DD 0ffffffffH
	DD	FLAT:__unwindfunclet$??0?$_Tree_temp_node_alloc@V?$allocator@U?$_Tree_node@U?$pair@$$CBUSItemPos@@USShopItemTable@@@std@@PAX@std@@@std@@@std@@QAE@AAV?$allocator@U?$_Tree_node@U?$pair@$$CBUSItemPos@@USShopItemTable@@@std@@PAX@std@@@1@@Z$0
; Function compile flags: /Ogtp
; File C:\Anka2Project\Anka2Project\Source\Binary\source\UserInterface\PythonShop.cpp
; File C:\Anka2Project\Anka2Project\Source\Binary\source\eterBase\Singleton.h
; File C:\Anka2Project\Anka2Project\Source\Binary\source\UserInterface\PythonShop.cpp
;	COMDAT ?shopIsOpen@@YAPAU_object@@PAU1@0@Z
_TEXT	SEGMENT
_poSelf$ = 8						; size = 4
_poArgs$ = 12						; size = 4
?shopIsOpen@@YAPAU_object@@PAU1@0@Z PROC		; shopIsOpen, COMDAT
; File C:\Anka2Project\Anka2Project\Source\Binary\source\eterBase\Singleton.h

; 26   : 		assert(ms_singleton);

  00000	8b 0d 00 00 00
	00		 mov	 ecx, DWORD PTR ?ms_singleton@?$CSingleton@VCPythonShop@@@@0PAVCPythonShop@@A ; CSingleton<CPythonShop>::ms_singleton
  00006	85 c9		 test	 ecx, ecx
  00008	75 1a		 jne	 SHORT $LN5@shopIsOpen
  0000a	6a 1a		 push	 26			; 0000001aH
  0000c	68 00 00 00 00	 push	 OFFSET ??_C@_1IO@CAJLEEOI@?$AAC?$AA?3?$AA?2?$AAA?$AAn?$AAk?$AAa?$AA2?$AAP?$AAr?$AAo?$AAj?$AAe?$AAc?$AAt@
  00011	68 00 00 00 00	 push	 OFFSET ??_C@_1BK@FMEHPMFE@?$AAm?$AAs?$AA_?$AAs?$AAi?$AAn?$AAg?$AAl?$AAe?$AAt?$AAo?$AAn@
  00016	e8 00 00 00 00	 call	 __wassert
  0001b	8b 0d 00 00 00
	00		 mov	 ecx, DWORD PTR ?ms_singleton@?$CSingleton@VCPythonShop@@@@0PAVCPythonShop@@A ; CSingleton<CPythonShop>::ms_singleton
  00021	83 c4 0c	 add	 esp, 12			; 0000000cH
$LN5@shopIsOpen:
; File C:\Anka2Project\Anka2Project\Source\Binary\source\UserInterface\PythonShop.cpp

; 253  : 	return Py_BuildValue("i", rkShop.IsOpen());

  00024	e8 00 00 00 00	 call	 ?IsOpen@CPythonShop@@QAEHXZ ; CPythonShop::IsOpen
  00029	50		 push	 eax
  0002a	68 00 00 00 00	 push	 OFFSET ??_C@_01KBJDNOO@i@
  0002f	ff 15 00 00 00
	00		 call	 DWORD PTR __imp__Py_BuildValue
  00035	83 c4 08	 add	 esp, 8

; 254  : }

  00038	c3		 ret	 0
?shopIsOpen@@YAPAU_object@@PAU1@0@Z ENDP		; shopIsOpen
_TEXT	ENDS
; Function compile flags: /Ogtp
; File C:\Anka2Project\Anka2Project\Source\Binary\source\UserInterface\PythonShop.cpp
; File C:\Anka2Project\Anka2Project\Source\Binary\source\eterBase\Singleton.h
; File C:\Anka2Project\Anka2Project\Source\Binary\source\UserInterface\PythonShop.cpp
;	COMDAT ?shopIsPrviateShop@@YAPAU_object@@PAU1@0@Z
_TEXT	SEGMENT
_poSelf$ = 8						; size = 4
_poArgs$ = 12						; size = 4
?shopIsPrviateShop@@YAPAU_object@@PAU1@0@Z PROC		; shopIsPrviateShop, COMDAT
; File C:\Anka2Project\Anka2Project\Source\Binary\source\eterBase\Singleton.h

; 26   : 		assert(ms_singleton);

  00000	8b 0d 00 00 00
	00		 mov	 ecx, DWORD PTR ?ms_singleton@?$CSingleton@VCPythonShop@@@@0PAVCPythonShop@@A ; CSingleton<CPythonShop>::ms_singleton
  00006	85 c9		 test	 ecx, ecx
  00008	75 1a		 jne	 SHORT $LN5@shopIsPrvi
  0000a	6a 1a		 push	 26			; 0000001aH
  0000c	68 00 00 00 00	 push	 OFFSET ??_C@_1IO@CAJLEEOI@?$AAC?$AA?3?$AA?2?$AAA?$AAn?$AAk?$AAa?$AA2?$AAP?$AAr?$AAo?$AAj?$AAe?$AAc?$AAt@
  00011	68 00 00 00 00	 push	 OFFSET ??_C@_1BK@FMEHPMFE@?$AAm?$AAs?$AA_?$AAs?$AAi?$AAn?$AAg?$AAl?$AAe?$AAt?$AAo?$AAn@
  00016	e8 00 00 00 00	 call	 __wassert
  0001b	8b 0d 00 00 00
	00		 mov	 ecx, DWORD PTR ?ms_singleton@?$CSingleton@VCPythonShop@@@@0PAVCPythonShop@@A ; CSingleton<CPythonShop>::ms_singleton
  00021	83 c4 0c	 add	 esp, 12			; 0000000cH
$LN5@shopIsPrvi:
; File C:\Anka2Project\Anka2Project\Source\Binary\source\UserInterface\PythonShop.cpp

; 259  : 	return Py_BuildValue("i", rkShop.IsPrivateShop());

  00024	e8 00 00 00 00	 call	 ?IsPrivateShop@CPythonShop@@QAEHXZ ; CPythonShop::IsPrivateShop
  00029	50		 push	 eax
  0002a	68 00 00 00 00	 push	 OFFSET ??_C@_01KBJDNOO@i@
  0002f	ff 15 00 00 00
	00		 call	 DWORD PTR __imp__Py_BuildValue
  00035	83 c4 08	 add	 esp, 8

; 260  : }

  00038	c3		 ret	 0
?shopIsPrviateShop@@YAPAU_object@@PAU1@0@Z ENDP		; shopIsPrviateShop
_TEXT	ENDS
; Function compile flags: /Ogtp
; File C:\Anka2Project\Anka2Project\Source\Binary\source\UserInterface\PythonShop.cpp
; File C:\Anka2Project\Anka2Project\Source\Binary\source\eterBase\Singleton.h
; File C:\Anka2Project\Anka2Project\Source\Binary\source\UserInterface\PythonShop.cpp
;	COMDAT ?shopIsMainPlayerPrivateShop@@YAPAU_object@@PAU1@0@Z
_TEXT	SEGMENT
_poSelf$ = 8						; size = 4
_poArgs$ = 12						; size = 4
?shopIsMainPlayerPrivateShop@@YAPAU_object@@PAU1@0@Z PROC ; shopIsMainPlayerPrivateShop, COMDAT
; File C:\Anka2Project\Anka2Project\Source\Binary\source\eterBase\Singleton.h

; 26   : 		assert(ms_singleton);

  00000	8b 0d 00 00 00
	00		 mov	 ecx, DWORD PTR ?ms_singleton@?$CSingleton@VCPythonShop@@@@0PAVCPythonShop@@A ; CSingleton<CPythonShop>::ms_singleton
  00006	85 c9		 test	 ecx, ecx
  00008	75 1a		 jne	 SHORT $LN5@shopIsMain
  0000a	6a 1a		 push	 26			; 0000001aH
  0000c	68 00 00 00 00	 push	 OFFSET ??_C@_1IO@CAJLEEOI@?$AAC?$AA?3?$AA?2?$AAA?$AAn?$AAk?$AAa?$AA2?$AAP?$AAr?$AAo?$AAj?$AAe?$AAc?$AAt@
  00011	68 00 00 00 00	 push	 OFFSET ??_C@_1BK@FMEHPMFE@?$AAm?$AAs?$AA_?$AAs?$AAi?$AAn?$AAg?$AAl?$AAe?$AAt?$AAo?$AAn@
  00016	e8 00 00 00 00	 call	 __wassert
  0001b	8b 0d 00 00 00
	00		 mov	 ecx, DWORD PTR ?ms_singleton@?$CSingleton@VCPythonShop@@@@0PAVCPythonShop@@A ; CSingleton<CPythonShop>::ms_singleton
  00021	83 c4 0c	 add	 esp, 12			; 0000000cH
$LN5@shopIsMain:
; File C:\Anka2Project\Anka2Project\Source\Binary\source\UserInterface\PythonShop.cpp

; 265  : 	return Py_BuildValue("i", rkShop.IsMainPlayerPrivateShop());

  00024	e8 00 00 00 00	 call	 ?IsMainPlayerPrivateShop@CPythonShop@@QAEHXZ ; CPythonShop::IsMainPlayerPrivateShop
  00029	50		 push	 eax
  0002a	68 00 00 00 00	 push	 OFFSET ??_C@_01KBJDNOO@i@
  0002f	ff 15 00 00 00
	00		 call	 DWORD PTR __imp__Py_BuildValue
  00035	83 c4 08	 add	 esp, 8

; 266  : }

  00038	c3		 ret	 0
?shopIsMainPlayerPrivateShop@@YAPAU_object@@PAU1@0@Z ENDP ; shopIsMainPlayerPrivateShop
_TEXT	ENDS
; Function compile flags: /Ogtp
; File C:\Anka2Project\Anka2Project\Source\Binary\source\UserInterface\PythonShop.cpp
; File C:\Anka2Project\Anka2Project\Source\Binary\source\eterBase\Singleton.h
; File C:\Anka2Project\Anka2Project\Source\Binary\source\UserInterface\PythonShop.cpp
;	COMDAT ?shopGetItemID@@YAPAU_object@@PAU1@0@Z
_TEXT	SEGMENT
_c_pItemData$ = -8					; size = 4
_nPos$ = -4						; size = 4
_poSelf$ = 8						; size = 4
_poArgs$ = 12						; size = 4
?shopGetItemID@@YAPAU_object@@PAU1@0@Z PROC		; shopGetItemID, COMDAT

; 269  : {

  00000	55		 push	 ebp
  00001	8b ec		 mov	 ebp, esp
  00003	83 ec 08	 sub	 esp, 8

; 270  : 	int nPos;
; 271  : 	if (!PyTuple_GetInteger(poArgs, 0, &nPos))

  00006	8d 45 fc	 lea	 eax, DWORD PTR _nPos$[ebp]
  00009	50		 push	 eax
  0000a	6a 00		 push	 0
  0000c	ff 75 0c	 push	 DWORD PTR _poArgs$[ebp]
  0000f	e8 00 00 00 00	 call	 ?PyTuple_GetInteger@@YA_NPAU_object@@HPAH@Z ; PyTuple_GetInteger
  00014	83 c4 0c	 add	 esp, 12			; 0000000cH
  00017	84 c0		 test	 al, al
  00019	75 0e		 jne	 SHORT $LN2@shopGetIte

; 272  : 		return Py_BuildException();

  0001b	6a 00		 push	 0
  0001d	e8 00 00 00 00	 call	 ?Py_BuildException@@YAPAU_object@@PBDZZ ; Py_BuildException
  00022	83 c4 04	 add	 esp, 4

; 279  : }

  00025	8b e5		 mov	 esp, ebp
  00027	5d		 pop	 ebp
  00028	c3		 ret	 0
$LN2@shopGetIte:
; File C:\Anka2Project\Anka2Project\Source\Binary\source\eterBase\Singleton.h

; 26   : 		assert(ms_singleton);

  00029	8b 0d 00 00 00
	00		 mov	 ecx, DWORD PTR ?ms_singleton@?$CSingleton@VCPythonShop@@@@0PAVCPythonShop@@A ; CSingleton<CPythonShop>::ms_singleton
  0002f	85 c9		 test	 ecx, ecx
  00031	75 1a		 jne	 SHORT $LN7@shopGetIte
  00033	6a 1a		 push	 26			; 0000001aH
  00035	68 00 00 00 00	 push	 OFFSET ??_C@_1IO@CAJLEEOI@?$AAC?$AA?3?$AA?2?$AAA?$AAn?$AAk?$AAa?$AA2?$AAP?$AAr?$AAo?$AAj?$AAe?$AAc?$AAt@
  0003a	68 00 00 00 00	 push	 OFFSET ??_C@_1BK@FMEHPMFE@?$AAm?$AAs?$AA_?$AAs?$AAi?$AAn?$AAg?$AAl?$AAe?$AAt?$AAo?$AAn@
  0003f	e8 00 00 00 00	 call	 __wassert
  00044	8b 0d 00 00 00
	00		 mov	 ecx, DWORD PTR ?ms_singleton@?$CSingleton@VCPythonShop@@@@0PAVCPythonShop@@A ; CSingleton<CPythonShop>::ms_singleton
  0004a	83 c4 0c	 add	 esp, 12			; 0000000cH
$LN7@shopGetIte:
; File C:\Anka2Project\Anka2Project\Source\Binary\source\UserInterface\PythonShop.cpp

; 275  : 	if (CPythonShop::Instance().GetItemData(nPos, &c_pItemData))

  0004d	8d 45 f8	 lea	 eax, DWORD PTR _c_pItemData$[ebp]
  00050	50		 push	 eax
  00051	ff 75 fc	 push	 DWORD PTR _nPos$[ebp]
  00054	e8 00 00 00 00	 call	 ?GetItemData@CPythonShop@@QAEHKPAPBUpacket_shop_item@@@Z ; CPythonShop::GetItemData
  00059	85 c0		 test	 eax, eax
  0005b	74 17		 je	 SHORT $LN3@shopGetIte

; 276  : 		return Py_BuildValue("i", c_pItemData->vnum);

  0005d	8b 45 f8	 mov	 eax, DWORD PTR _c_pItemData$[ebp]
  00060	ff 30		 push	 DWORD PTR [eax]

; 279  : }

  00062	68 00 00 00 00	 push	 OFFSET ??_C@_01KBJDNOO@i@
  00067	ff 15 00 00 00
	00		 call	 DWORD PTR __imp__Py_BuildValue
  0006d	83 c4 08	 add	 esp, 8
  00070	8b e5		 mov	 esp, ebp
  00072	5d		 pop	 ebp
  00073	c3		 ret	 0
$LN3@shopGetIte:

; 277  : 
; 278  : 	return Py_BuildValue("i", 0);

  00074	6a 00		 push	 0

; 279  : }

  00076	68 00 00 00 00	 push	 OFFSET ??_C@_01KBJDNOO@i@
  0007b	ff 15 00 00 00
	00		 call	 DWORD PTR __imp__Py_BuildValue
  00081	83 c4 08	 add	 esp, 8
  00084	8b e5		 mov	 esp, ebp
  00086	5d		 pop	 ebp
  00087	c3		 ret	 0
?shopGetItemID@@YAPAU_object@@PAU1@0@Z ENDP		; shopGetItemID
_TEXT	ENDS
; Function compile flags: /Ogtp
; File C:\Anka2Project\Anka2Project\Source\Binary\source\UserInterface\PythonShop.cpp
; File C:\Anka2Project\Anka2Project\Source\Binary\source\eterBase\Singleton.h
; File C:\Anka2Project\Anka2Project\Source\Binary\source\UserInterface\PythonShop.cpp
;	COMDAT ?shopGetItemCount@@YAPAU_object@@PAU1@0@Z
_TEXT	SEGMENT
_c_pItemData$ = -8					; size = 4
_iIndex$ = -4						; size = 4
_poSelf$ = 8						; size = 4
_poArgs$ = 12						; size = 4
?shopGetItemCount@@YAPAU_object@@PAU1@0@Z PROC		; shopGetItemCount, COMDAT

; 282  : {

  00000	55		 push	 ebp
  00001	8b ec		 mov	 ebp, esp
  00003	83 ec 08	 sub	 esp, 8

; 283  : 	int iIndex;
; 284  : 	if (!PyTuple_GetInteger(poArgs, 0, &iIndex))

  00006	8d 45 fc	 lea	 eax, DWORD PTR _iIndex$[ebp]
  00009	50		 push	 eax
  0000a	6a 00		 push	 0
  0000c	ff 75 0c	 push	 DWORD PTR _poArgs$[ebp]
  0000f	e8 00 00 00 00	 call	 ?PyTuple_GetInteger@@YA_NPAU_object@@HPAH@Z ; PyTuple_GetInteger
  00014	83 c4 0c	 add	 esp, 12			; 0000000cH
  00017	84 c0		 test	 al, al
  00019	75 0e		 jne	 SHORT $LN2@shopGetIte

; 285  : 		return Py_BuildException();

  0001b	6a 00		 push	 0
  0001d	e8 00 00 00 00	 call	 ?Py_BuildException@@YAPAU_object@@PBDZZ ; Py_BuildException
  00022	83 c4 04	 add	 esp, 4

; 292  : }

  00025	8b e5		 mov	 esp, ebp
  00027	5d		 pop	 ebp
  00028	c3		 ret	 0
$LN2@shopGetIte:
; File C:\Anka2Project\Anka2Project\Source\Binary\source\eterBase\Singleton.h

; 26   : 		assert(ms_singleton);

  00029	8b 0d 00 00 00
	00		 mov	 ecx, DWORD PTR ?ms_singleton@?$CSingleton@VCPythonShop@@@@0PAVCPythonShop@@A ; CSingleton<CPythonShop>::ms_singleton
  0002f	85 c9		 test	 ecx, ecx
  00031	75 1a		 jne	 SHORT $LN7@shopGetIte
  00033	6a 1a		 push	 26			; 0000001aH
  00035	68 00 00 00 00	 push	 OFFSET ??_C@_1IO@CAJLEEOI@?$AAC?$AA?3?$AA?2?$AAA?$AAn?$AAk?$AAa?$AA2?$AAP?$AAr?$AAo?$AAj?$AAe?$AAc?$AAt@
  0003a	68 00 00 00 00	 push	 OFFSET ??_C@_1BK@FMEHPMFE@?$AAm?$AAs?$AA_?$AAs?$AAi?$AAn?$AAg?$AAl?$AAe?$AAt?$AAo?$AAn@
  0003f	e8 00 00 00 00	 call	 __wassert
  00044	8b 0d 00 00 00
	00		 mov	 ecx, DWORD PTR ?ms_singleton@?$CSingleton@VCPythonShop@@@@0PAVCPythonShop@@A ; CSingleton<CPythonShop>::ms_singleton
  0004a	83 c4 0c	 add	 esp, 12			; 0000000cH
$LN7@shopGetIte:
; File C:\Anka2Project\Anka2Project\Source\Binary\source\UserInterface\PythonShop.cpp

; 288  : 	if (CPythonShop::Instance().GetItemData(iIndex, &c_pItemData))

  0004d	8d 45 f8	 lea	 eax, DWORD PTR _c_pItemData$[ebp]
  00050	50		 push	 eax
  00051	ff 75 fc	 push	 DWORD PTR _iIndex$[ebp]
  00054	e8 00 00 00 00	 call	 ?GetItemData@CPythonShop@@QAEHKPAPBUpacket_shop_item@@@Z ; CPythonShop::GetItemData
  00059	85 c0		 test	 eax, eax
  0005b	74 1a		 je	 SHORT $LN3@shopGetIte

; 289  : 		return Py_BuildValue("i", c_pItemData->count);

  0005d	8b 45 f8	 mov	 eax, DWORD PTR _c_pItemData$[ebp]
  00060	0f b7 40 0c	 movzx	 eax, WORD PTR [eax+12]
  00064	50		 push	 eax

; 292  : }

  00065	68 00 00 00 00	 push	 OFFSET ??_C@_01KBJDNOO@i@
  0006a	ff 15 00 00 00
	00		 call	 DWORD PTR __imp__Py_BuildValue
  00070	83 c4 08	 add	 esp, 8
  00073	8b e5		 mov	 esp, ebp
  00075	5d		 pop	 ebp
  00076	c3		 ret	 0
$LN3@shopGetIte:

; 290  : 
; 291  : 	return Py_BuildValue("i", 0);

  00077	6a 00		 push	 0

; 292  : }

  00079	68 00 00 00 00	 push	 OFFSET ??_C@_01KBJDNOO@i@
  0007e	ff 15 00 00 00
	00		 call	 DWORD PTR __imp__Py_BuildValue
  00084	83 c4 08	 add	 esp, 8
  00087	8b e5		 mov	 esp, ebp
  00089	5d		 pop	 ebp
  0008a	c3		 ret	 0
?shopGetItemCount@@YAPAU_object@@PAU1@0@Z ENDP		; shopGetItemCount
_TEXT	ENDS
; Function compile flags: /Ogtp
; File C:\Anka2Project\Anka2Project\Source\Binary\source\UserInterface\PythonShop.cpp
; File C:\Anka2Project\Anka2Project\Source\Binary\source\eterBase\Singleton.h
; File C:\Anka2Project\Anka2Project\Source\Binary\source\UserInterface\PythonShop.cpp
;	COMDAT ?shopGetItemPrice@@YAPAU_object@@PAU1@0@Z
_TEXT	SEGMENT
_c_pItemData$ = -8					; size = 4
_iIndex$ = -4						; size = 4
_poSelf$ = 8						; size = 4
_poArgs$ = 12						; size = 4
?shopGetItemPrice@@YAPAU_object@@PAU1@0@Z PROC		; shopGetItemPrice, COMDAT

; 295  : {

  00000	55		 push	 ebp
  00001	8b ec		 mov	 ebp, esp
  00003	83 ec 08	 sub	 esp, 8

; 296  : 	int iIndex;
; 297  : 	if (!PyTuple_GetInteger(poArgs, 0, &iIndex))

  00006	8d 45 fc	 lea	 eax, DWORD PTR _iIndex$[ebp]
  00009	50		 push	 eax
  0000a	6a 00		 push	 0
  0000c	ff 75 0c	 push	 DWORD PTR _poArgs$[ebp]
  0000f	e8 00 00 00 00	 call	 ?PyTuple_GetInteger@@YA_NPAU_object@@HPAH@Z ; PyTuple_GetInteger
  00014	83 c4 0c	 add	 esp, 12			; 0000000cH
  00017	84 c0		 test	 al, al
  00019	75 0e		 jne	 SHORT $LN2@shopGetIte

; 298  : 		return Py_BuildException();

  0001b	6a 00		 push	 0
  0001d	e8 00 00 00 00	 call	 ?Py_BuildException@@YAPAU_object@@PBDZZ ; Py_BuildException
  00022	83 c4 04	 add	 esp, 4

; 309  : }

  00025	8b e5		 mov	 esp, ebp
  00027	5d		 pop	 ebp
  00028	c3		 ret	 0
$LN2@shopGetIte:
; File C:\Anka2Project\Anka2Project\Source\Binary\source\eterBase\Singleton.h

; 26   : 		assert(ms_singleton);

  00029	8b 0d 00 00 00
	00		 mov	 ecx, DWORD PTR ?ms_singleton@?$CSingleton@VCPythonShop@@@@0PAVCPythonShop@@A ; CSingleton<CPythonShop>::ms_singleton
  0002f	85 c9		 test	 ecx, ecx
  00031	75 1a		 jne	 SHORT $LN7@shopGetIte
  00033	6a 1a		 push	 26			; 0000001aH
  00035	68 00 00 00 00	 push	 OFFSET ??_C@_1IO@CAJLEEOI@?$AAC?$AA?3?$AA?2?$AAA?$AAn?$AAk?$AAa?$AA2?$AAP?$AAr?$AAo?$AAj?$AAe?$AAc?$AAt@
  0003a	68 00 00 00 00	 push	 OFFSET ??_C@_1BK@FMEHPMFE@?$AAm?$AAs?$AA_?$AAs?$AAi?$AAn?$AAg?$AAl?$AAe?$AAt?$AAo?$AAn@
  0003f	e8 00 00 00 00	 call	 __wassert
  00044	8b 0d 00 00 00
	00		 mov	 ecx, DWORD PTR ?ms_singleton@?$CSingleton@VCPythonShop@@@@0PAVCPythonShop@@A ; CSingleton<CPythonShop>::ms_singleton
  0004a	83 c4 0c	 add	 esp, 12			; 0000000cH
$LN7@shopGetIte:
; File C:\Anka2Project\Anka2Project\Source\Binary\source\UserInterface\PythonShop.cpp

; 301  : 	if (CPythonShop::Instance().GetItemData(iIndex, &c_pItemData))

  0004d	8d 45 f8	 lea	 eax, DWORD PTR _c_pItemData$[ebp]
  00050	50		 push	 eax
  00051	ff 75 fc	 push	 DWORD PTR _iIndex$[ebp]
  00054	e8 00 00 00 00	 call	 ?GetItemData@CPythonShop@@QAEHKPAPBUpacket_shop_item@@@Z ; CPythonShop::GetItemData
  00059	85 c0		 test	 eax, eax
  0005b	74 1b		 je	 SHORT $LN3@shopGetIte

; 302  : #ifdef ENABLE_GOLD_LIMIT
; 303  : 		return Py_BuildValue("L", c_pItemData->price);

  0005d	8b 45 f8	 mov	 eax, DWORD PTR _c_pItemData$[ebp]
  00060	ff 70 08	 push	 DWORD PTR [eax+8]
  00063	ff 70 04	 push	 DWORD PTR [eax+4]
  00066	68 00 00 00 00	 push	 OFFSET ??_C@_01OCOKONAJ@L@
  0006b	ff 15 00 00 00
	00		 call	 DWORD PTR __imp__Py_BuildValue
  00071	83 c4 0c	 add	 esp, 12			; 0000000cH

; 309  : }

  00074	8b e5		 mov	 esp, ebp
  00076	5d		 pop	 ebp
  00077	c3		 ret	 0
$LN3@shopGetIte:

; 304  : #else
; 305  : 		return Py_BuildValue("i", c_pItemData->price);
; 306  : #endif
; 307  : 
; 308  : 	return Py_BuildValue("i", 0);

  00078	6a 00		 push	 0
  0007a	68 00 00 00 00	 push	 OFFSET ??_C@_01KBJDNOO@i@
  0007f	ff 15 00 00 00
	00		 call	 DWORD PTR __imp__Py_BuildValue
  00085	83 c4 08	 add	 esp, 8

; 309  : }

  00088	8b e5		 mov	 esp, ebp
  0008a	5d		 pop	 ebp
  0008b	c3		 ret	 0
?shopGetItemPrice@@YAPAU_object@@PAU1@0@Z ENDP		; shopGetItemPrice
_TEXT	ENDS
; Function compile flags: /Ogtp
; File C:\Anka2Project\Anka2Project\Source\Binary\source\UserInterface\PythonShop.cpp
; File C:\Anka2Project\Anka2Project\Source\Binary\source\eterBase\Singleton.h
; File C:\Anka2Project\Anka2Project\Source\Binary\source\UserInterface\PythonShop.cpp
;	COMDAT ?shopGetItemMetinSocket@@YAPAU_object@@PAU1@0@Z
_TEXT	SEGMENT
_c_pItemData$ = -12					; size = 4
_iMetinSocketIndex$ = -8				; size = 4
_iIndex$ = -4						; size = 4
_poSelf$ = 8						; size = 4
_poArgs$ = 12						; size = 4
?shopGetItemMetinSocket@@YAPAU_object@@PAU1@0@Z PROC	; shopGetItemMetinSocket, COMDAT

; 312  : {

  00000	55		 push	 ebp
  00001	8b ec		 mov	 ebp, esp
  00003	83 ec 0c	 sub	 esp, 12			; 0000000cH

; 313  : 	int iIndex;
; 314  : 	if (!PyTuple_GetInteger(poArgs, 0, &iIndex))

  00006	8d 45 fc	 lea	 eax, DWORD PTR _iIndex$[ebp]
  00009	50		 push	 eax
  0000a	6a 00		 push	 0
  0000c	ff 75 0c	 push	 DWORD PTR _poArgs$[ebp]
  0000f	e8 00 00 00 00	 call	 ?PyTuple_GetInteger@@YA_NPAU_object@@HPAH@Z ; PyTuple_GetInteger
  00014	83 c4 0c	 add	 esp, 12			; 0000000cH
  00017	84 c0		 test	 al, al
  00019	75 0e		 jne	 SHORT $LN2@shopGetIte
$LN10@shopGetIte:

; 325  : }

  0001b	6a 00		 push	 0
  0001d	e8 00 00 00 00	 call	 ?Py_BuildException@@YAPAU_object@@PBDZZ ; Py_BuildException
  00022	83 c4 04	 add	 esp, 4
  00025	8b e5		 mov	 esp, ebp
  00027	5d		 pop	 ebp
  00028	c3		 ret	 0
$LN2@shopGetIte:

; 315  : 		return Py_BuildException();
; 316  : 	int iMetinSocketIndex;
; 317  : 	if (!PyTuple_GetInteger(poArgs, 1, &iMetinSocketIndex))

  00029	8d 45 f8	 lea	 eax, DWORD PTR _iMetinSocketIndex$[ebp]
  0002c	50		 push	 eax
  0002d	6a 01		 push	 1
  0002f	ff 75 0c	 push	 DWORD PTR _poArgs$[ebp]
  00032	e8 00 00 00 00	 call	 ?PyTuple_GetInteger@@YA_NPAU_object@@HPAH@Z ; PyTuple_GetInteger
  00037	83 c4 0c	 add	 esp, 12			; 0000000cH
  0003a	84 c0		 test	 al, al
  0003c	74 dd		 je	 SHORT $LN10@shopGetIte
; File C:\Anka2Project\Anka2Project\Source\Binary\source\eterBase\Singleton.h

; 26   : 		assert(ms_singleton);

  0003e	8b 0d 00 00 00
	00		 mov	 ecx, DWORD PTR ?ms_singleton@?$CSingleton@VCPythonShop@@@@0PAVCPythonShop@@A ; CSingleton<CPythonShop>::ms_singleton
  00044	85 c9		 test	 ecx, ecx
  00046	75 1a		 jne	 SHORT $LN8@shopGetIte
  00048	6a 1a		 push	 26			; 0000001aH
  0004a	68 00 00 00 00	 push	 OFFSET ??_C@_1IO@CAJLEEOI@?$AAC?$AA?3?$AA?2?$AAA?$AAn?$AAk?$AAa?$AA2?$AAP?$AAr?$AAo?$AAj?$AAe?$AAc?$AAt@
  0004f	68 00 00 00 00	 push	 OFFSET ??_C@_1BK@FMEHPMFE@?$AAm?$AAs?$AA_?$AAs?$AAi?$AAn?$AAg?$AAl?$AAe?$AAt?$AAo?$AAn@
  00054	e8 00 00 00 00	 call	 __wassert
  00059	8b 0d 00 00 00
	00		 mov	 ecx, DWORD PTR ?ms_singleton@?$CSingleton@VCPythonShop@@@@0PAVCPythonShop@@A ; CSingleton<CPythonShop>::ms_singleton
  0005f	83 c4 0c	 add	 esp, 12			; 0000000cH
$LN8@shopGetIte:
; File C:\Anka2Project\Anka2Project\Source\Binary\source\UserInterface\PythonShop.cpp

; 321  : 	if (CPythonShop::Instance().GetItemData(iIndex, &c_pItemData))

  00062	8d 45 f4	 lea	 eax, DWORD PTR _c_pItemData$[ebp]
  00065	50		 push	 eax
  00066	ff 75 fc	 push	 DWORD PTR _iIndex$[ebp]
  00069	e8 00 00 00 00	 call	 ?GetItemData@CPythonShop@@QAEHKPAPBUpacket_shop_item@@@Z ; CPythonShop::GetItemData
  0006e	85 c0		 test	 eax, eax
  00070	74 1c		 je	 SHORT $LN4@shopGetIte

; 322  : 		return Py_BuildValue("i", c_pItemData->alSockets[iMetinSocketIndex]);

  00072	8b 4d f8	 mov	 ecx, DWORD PTR _iMetinSocketIndex$[ebp]
  00075	8b 45 f4	 mov	 eax, DWORD PTR _c_pItemData$[ebp]
  00078	ff 74 88 0f	 push	 DWORD PTR [eax+ecx*4+15]

; 325  : }

  0007c	68 00 00 00 00	 push	 OFFSET ??_C@_01KBJDNOO@i@
  00081	ff 15 00 00 00
	00		 call	 DWORD PTR __imp__Py_BuildValue
  00087	83 c4 08	 add	 esp, 8
  0008a	8b e5		 mov	 esp, ebp
  0008c	5d		 pop	 ebp
  0008d	c3		 ret	 0
$LN4@shopGetIte:

; 323  : 
; 324  : 	return Py_BuildValue("i", 0);

  0008e	6a 00		 push	 0

; 325  : }

  00090	68 00 00 00 00	 push	 OFFSET ??_C@_01KBJDNOO@i@
  00095	ff 15 00 00 00
	00		 call	 DWORD PTR __imp__Py_BuildValue
  0009b	83 c4 08	 add	 esp, 8
  0009e	8b e5		 mov	 esp, ebp
  000a0	5d		 pop	 ebp
  000a1	c3		 ret	 0
?shopGetItemMetinSocket@@YAPAU_object@@PAU1@0@Z ENDP	; shopGetItemMetinSocket
_TEXT	ENDS
; Function compile flags: /Ogtp
; File C:\Anka2Project\Anka2Project\Source\Binary\source\UserInterface\PythonShop.cpp
; File C:\Anka2Project\Anka2Project\Source\Binary\source\eterBase\Singleton.h
; File C:\Anka2Project\Anka2Project\Source\Binary\source\UserInterface\PythonShop.cpp
;	COMDAT ?shopGetItemAttribute@@YAPAU_object@@PAU1@0@Z
_TEXT	SEGMENT
_c_pItemData$2 = -12					; size = 4
_iIndex$ = -8						; size = 4
_iAttrSlotIndex$ = -4					; size = 4
_poSelf$ = 8						; size = 4
_poArgs$ = 12						; size = 4
?shopGetItemAttribute@@YAPAU_object@@PAU1@0@Z PROC	; shopGetItemAttribute, COMDAT

; 328  : {

  00000	55		 push	 ebp
  00001	8b ec		 mov	 ebp, esp
  00003	83 ec 0c	 sub	 esp, 12			; 0000000cH

; 329  : 	int iIndex;
; 330  : 	if (!PyTuple_GetInteger(poArgs, 0, &iIndex))

  00006	8d 45 f8	 lea	 eax, DWORD PTR _iIndex$[ebp]
  00009	50		 push	 eax
  0000a	6a 00		 push	 0
  0000c	ff 75 0c	 push	 DWORD PTR _poArgs$[ebp]
  0000f	e8 00 00 00 00	 call	 ?PyTuple_GetInteger@@YA_NPAU_object@@HPAH@Z ; PyTuple_GetInteger
  00014	83 c4 0c	 add	 esp, 12			; 0000000cH
  00017	84 c0		 test	 al, al
  00019	75 0e		 jne	 SHORT $LN2@shopGetIte
$LN11@shopGetIte:

; 344  : }

  0001b	6a 00		 push	 0
  0001d	e8 00 00 00 00	 call	 ?Py_BuildException@@YAPAU_object@@PBDZZ ; Py_BuildException
  00022	83 c4 04	 add	 esp, 4
  00025	8b e5		 mov	 esp, ebp
  00027	5d		 pop	 ebp
  00028	c3		 ret	 0
$LN2@shopGetIte:

; 331  : 		return Py_BuildException();
; 332  : 	int iAttrSlotIndex;
; 333  : 	if (!PyTuple_GetInteger(poArgs, 1, &iAttrSlotIndex))

  00029	8d 45 fc	 lea	 eax, DWORD PTR _iAttrSlotIndex$[ebp]
  0002c	50		 push	 eax
  0002d	6a 01		 push	 1
  0002f	ff 75 0c	 push	 DWORD PTR _poArgs$[ebp]
  00032	e8 00 00 00 00	 call	 ?PyTuple_GetInteger@@YA_NPAU_object@@HPAH@Z ; PyTuple_GetInteger
  00037	83 c4 0c	 add	 esp, 12			; 0000000cH
  0003a	84 c0		 test	 al, al
  0003c	74 dd		 je	 SHORT $LN11@shopGetIte

; 334  : 		return Py_BuildException();
; 335  : 
; 336  : 	if (iAttrSlotIndex >= 0 && iAttrSlotIndex < ITEM_ATTRIBUTE_SLOT_MAX_NUM)

  0003e	83 7d fc 06	 cmp	 DWORD PTR _iAttrSlotIndex$[ebp], 6
  00042	77 5e		 ja	 SHORT $LN5@shopGetIte
; File C:\Anka2Project\Anka2Project\Source\Binary\source\eterBase\Singleton.h

; 26   : 		assert(ms_singleton);

  00044	8b 0d 00 00 00
	00		 mov	 ecx, DWORD PTR ?ms_singleton@?$CSingleton@VCPythonShop@@@@0PAVCPythonShop@@A ; CSingleton<CPythonShop>::ms_singleton
  0004a	85 c9		 test	 ecx, ecx
  0004c	75 1a		 jne	 SHORT $LN9@shopGetIte
  0004e	6a 1a		 push	 26			; 0000001aH
  00050	68 00 00 00 00	 push	 OFFSET ??_C@_1IO@CAJLEEOI@?$AAC?$AA?3?$AA?2?$AAA?$AAn?$AAk?$AAa?$AA2?$AAP?$AAr?$AAo?$AAj?$AAe?$AAc?$AAt@
  00055	68 00 00 00 00	 push	 OFFSET ??_C@_1BK@FMEHPMFE@?$AAm?$AAs?$AA_?$AAs?$AAi?$AAn?$AAg?$AAl?$AAe?$AAt?$AAo?$AAn@
  0005a	e8 00 00 00 00	 call	 __wassert
  0005f	8b 0d 00 00 00
	00		 mov	 ecx, DWORD PTR ?ms_singleton@?$CSingleton@VCPythonShop@@@@0PAVCPythonShop@@A ; CSingleton<CPythonShop>::ms_singleton
  00065	83 c4 0c	 add	 esp, 12			; 0000000cH
$LN9@shopGetIte:
; File C:\Anka2Project\Anka2Project\Source\Binary\source\UserInterface\PythonShop.cpp

; 339  : 		if (CPythonShop::Instance().GetItemData(iIndex, &c_pItemData))

  00068	8d 45 f4	 lea	 eax, DWORD PTR _c_pItemData$2[ebp]
  0006b	50		 push	 eax
  0006c	ff 75 f8	 push	 DWORD PTR _iIndex$[ebp]
  0006f	e8 00 00 00 00	 call	 ?GetItemData@CPythonShop@@QAEHKPAPBUpacket_shop_item@@@Z ; CPythonShop::GetItemData
  00074	85 c0		 test	 eax, eax
  00076	74 2a		 je	 SHORT $LN5@shopGetIte

; 340  : 			return Py_BuildValue("ii", c_pItemData->aAttr[iAttrSlotIndex].bType, c_pItemData->aAttr[iAttrSlotIndex].sValue);

  00078	8b 4d fc	 mov	 ecx, DWORD PTR _iAttrSlotIndex$[ebp]
  0007b	8b 55 f4	 mov	 edx, DWORD PTR _c_pItemData$2[ebp]
  0007e	8d 04 4a	 lea	 eax, DWORD PTR [edx+ecx*2]
  00081	0f bf 44 01 1c	 movsx	 eax, WORD PTR [ecx+eax+28]
  00086	50		 push	 eax
  00087	8d 04 4a	 lea	 eax, DWORD PTR [edx+ecx*2]
  0008a	0f b6 44 01 1b	 movzx	 eax, BYTE PTR [ecx+eax+27]
  0008f	50		 push	 eax

; 344  : }

  00090	68 00 00 00 00	 push	 OFFSET ??_C@_02PDIHAGKM@ii@
  00095	ff 15 00 00 00
	00		 call	 DWORD PTR __imp__Py_BuildValue
  0009b	83 c4 0c	 add	 esp, 12			; 0000000cH
  0009e	8b e5		 mov	 esp, ebp
  000a0	5d		 pop	 ebp
  000a1	c3		 ret	 0
$LN5@shopGetIte:

; 341  : 	}
; 342  : 
; 343  : 	return Py_BuildValue("ii", 0, 0);

  000a2	6a 00		 push	 0
  000a4	6a 00		 push	 0

; 344  : }

  000a6	68 00 00 00 00	 push	 OFFSET ??_C@_02PDIHAGKM@ii@
  000ab	ff 15 00 00 00
	00		 call	 DWORD PTR __imp__Py_BuildValue
  000b1	83 c4 0c	 add	 esp, 12			; 0000000cH
  000b4	8b e5		 mov	 esp, ebp
  000b6	5d		 pop	 ebp
  000b7	c3		 ret	 0
?shopGetItemAttribute@@YAPAU_object@@PAU1@0@Z ENDP	; shopGetItemAttribute
_TEXT	ENDS
; Function compile flags: /Ogtp
; File C:\Anka2Project\Anka2Project\Source\Binary\source\UserInterface\PythonShop.cpp
; File C:\Anka2Project\Anka2Project\Source\Binary\source\eterBase\Singleton.h
; File C:\Anka2Project\Anka2Project\Source\Binary\source\UserInterface\PythonShop.cpp
;	COMDAT ?shopGetPrivateShopItemPrice@@YAPAU_object@@PAU1@0@Z
_TEXT	SEGMENT
$T4 = -12						; size = 3
_wItemSlotIndex$ = -8					; size = 2
_bItemWindowType$ = -1					; size = 1
_poSelf$ = 8						; size = 4
_poArgs$ = 12						; size = 4
?shopGetPrivateShopItemPrice@@YAPAU_object@@PAU1@0@Z PROC ; shopGetPrivateShopItemPrice, COMDAT

; 393  : {

  00000	55		 push	 ebp
  00001	8b ec		 mov	 ebp, esp
  00003	83 ec 0c	 sub	 esp, 12			; 0000000cH

; 394  : 	BYTE bItemWindowType;
; 395  : 	if (!PyTuple_GetInteger(poArgs, 0, &bItemWindowType))

  00006	8d 45 ff	 lea	 eax, DWORD PTR _bItemWindowType$[ebp]
  00009	50		 push	 eax
  0000a	6a 00		 push	 0
  0000c	ff 75 0c	 push	 DWORD PTR _poArgs$[ebp]
  0000f	e8 00 00 00 00	 call	 ?PyTuple_GetInteger@@YA_NPAU_object@@HPAE@Z ; PyTuple_GetInteger
  00014	83 c4 0c	 add	 esp, 12			; 0000000cH
  00017	84 c0		 test	 al, al
  00019	75 0e		 jne	 SHORT $LN2@shopGetPri
$LN10@shopGetPri:

; 404  : #else
; 405  : 	int iValue = CPythonShop::Instance().GetPrivateShopItemPrice(TItemPos(bItemWindowType, wItemSlotIndex));
; 406  : 	return Py_BuildValue("i", iValue);
; 407  : #endif
; 408  : }

  0001b	6a 00		 push	 0
  0001d	e8 00 00 00 00	 call	 ?Py_BuildException@@YAPAU_object@@PBDZZ ; Py_BuildException
  00022	83 c4 04	 add	 esp, 4
  00025	8b e5		 mov	 esp, ebp
  00027	5d		 pop	 ebp
  00028	c3		 ret	 0
$LN2@shopGetPri:

; 396  : 		return Py_BuildException();
; 397  : 	WORD wItemSlotIndex;
; 398  : 	if (!PyTuple_GetInteger(poArgs, 1, &wItemSlotIndex))

  00029	8d 45 f8	 lea	 eax, DWORD PTR _wItemSlotIndex$[ebp]
  0002c	50		 push	 eax
  0002d	6a 01		 push	 1
  0002f	ff 75 0c	 push	 DWORD PTR _poArgs$[ebp]
  00032	e8 00 00 00 00	 call	 ?PyTuple_GetInteger@@YA_NPAU_object@@HPAG@Z ; PyTuple_GetInteger
  00037	83 c4 0c	 add	 esp, 12			; 0000000cH
  0003a	84 c0		 test	 al, al
  0003c	74 dd		 je	 SHORT $LN10@shopGetPri
; File C:\Anka2Project\Anka2Project\Source\Binary\source\eterBase\Singleton.h

; 26   : 		assert(ms_singleton);

  0003e	8b 0d 00 00 00
	00		 mov	 ecx, DWORD PTR ?ms_singleton@?$CSingleton@VCPythonShop@@@@0PAVCPythonShop@@A ; CSingleton<CPythonShop>::ms_singleton
  00044	85 c9		 test	 ecx, ecx
  00046	75 1a		 jne	 SHORT $LN7@shopGetPri
  00048	6a 1a		 push	 26			; 0000001aH
  0004a	68 00 00 00 00	 push	 OFFSET ??_C@_1IO@CAJLEEOI@?$AAC?$AA?3?$AA?2?$AAA?$AAn?$AAk?$AAa?$AA2?$AAP?$AAr?$AAo?$AAj?$AAe?$AAc?$AAt@
  0004f	68 00 00 00 00	 push	 OFFSET ??_C@_1BK@FMEHPMFE@?$AAm?$AAs?$AA_?$AAs?$AAi?$AAn?$AAg?$AAl?$AAe?$AAt?$AAo?$AAn@
  00054	e8 00 00 00 00	 call	 __wassert
  00059	8b 0d 00 00 00
	00		 mov	 ecx, DWORD PTR ?ms_singleton@?$CSingleton@VCPythonShop@@@@0PAVCPythonShop@@A ; CSingleton<CPythonShop>::ms_singleton
  0005f	83 c4 0c	 add	 esp, 12			; 0000000cH
$LN7@shopGetPri:
; File C:\Anka2Project\Anka2Project\Source\Binary\source\UserInterface\PythonShop.cpp

; 402  : 	long long iValue = CPythonShop::Instance().GetPrivateShopItemPrice(TItemPos(bItemWindowType, wItemSlotIndex));

  00062	8a 45 ff	 mov	 al, BYTE PTR _bItemWindowType$[ebp]
  00065	88 45 f4	 mov	 BYTE PTR $T4[ebp], al
  00068	0f b7 45 f8	 movzx	 eax, WORD PTR _wItemSlotIndex$[ebp]
  0006c	51		 push	 ecx
  0006d	8b d4		 mov	 edx, esp
  0006f	66 89 45 f5	 mov	 WORD PTR $T4[ebp+1], ax
  00073	0f b7 45 f4	 movzx	 eax, WORD PTR $T4[ebp]
  00077	66 89 02	 mov	 WORD PTR [edx], ax
  0007a	8a 45 f6	 mov	 al, BYTE PTR $T4[ebp+2]
  0007d	88 42 02	 mov	 BYTE PTR [edx+2], al
  00080	e8 00 00 00 00	 call	 ?GetPrivateShopItemPrice@CPythonShop@@QAE_JUSItemPos@@@Z ; CPythonShop::GetPrivateShopItemPrice

; 403  : 	return Py_BuildValue("L", iValue);

  00085	52		 push	 edx
  00086	50		 push	 eax
  00087	68 00 00 00 00	 push	 OFFSET ??_C@_01OCOKONAJ@L@
  0008c	ff 15 00 00 00
	00		 call	 DWORD PTR __imp__Py_BuildValue
  00092	83 c4 0c	 add	 esp, 12			; 0000000cH

; 404  : #else
; 405  : 	int iValue = CPythonShop::Instance().GetPrivateShopItemPrice(TItemPos(bItemWindowType, wItemSlotIndex));
; 406  : 	return Py_BuildValue("i", iValue);
; 407  : #endif
; 408  : }

  00095	8b e5		 mov	 esp, ebp
  00097	5d		 pop	 ebp
  00098	c3		 ret	 0
?shopGetPrivateShopItemPrice@@YAPAU_object@@PAU1@0@Z ENDP ; shopGetPrivateShopItemPrice
_TEXT	ENDS
; Function compile flags: /Ogtp
; File C:\Anka2Project\Anka2Project\Source\Binary\source\UserInterface\PythonShop.cpp
; File C:\Anka2Project\Anka2Project\Source\Binary\source\eterBase\Singleton.h
; File C:\Anka2Project\Anka2Project\Source\Binary\source\UserInterface\PythonShop.cpp
;	COMDAT ?shopGetTabCount@@YAPAU_object@@PAU1@0@Z
_TEXT	SEGMENT
_poSelf$ = 8						; size = 4
_poArgs$ = 12						; size = 4
?shopGetTabCount@@YAPAU_object@@PAU1@0@Z PROC		; shopGetTabCount, COMDAT
; File C:\Anka2Project\Anka2Project\Source\Binary\source\eterBase\Singleton.h

; 37   : 		assert(ms_singleton);

  00000	a1 00 00 00 00	 mov	 eax, DWORD PTR ?ms_singleton@?$CSingleton@VCPythonShop@@@@0PAVCPythonShop@@A ; CSingleton<CPythonShop>::ms_singleton
  00005	85 c0		 test	 eax, eax
  00007	75 19		 jne	 SHORT $LN5@shopGetTab
  00009	6a 25		 push	 37			; 00000025H
  0000b	68 00 00 00 00	 push	 OFFSET ??_C@_1IO@CAJLEEOI@?$AAC?$AA?3?$AA?2?$AAA?$AAn?$AAk?$AAa?$AA2?$AAP?$AAr?$AAo?$AAj?$AAe?$AAc?$AAt@
  00010	68 00 00 00 00	 push	 OFFSET ??_C@_1BK@FMEHPMFE@?$AAm?$AAs?$AA_?$AAs?$AAi?$AAn?$AAg?$AAl?$AAe?$AAt?$AAo?$AAn@
  00015	e8 00 00 00 00	 call	 __wassert
  0001a	a1 00 00 00 00	 mov	 eax, DWORD PTR ?ms_singleton@?$CSingleton@VCPythonShop@@@@0PAVCPythonShop@@A ; CSingleton<CPythonShop>::ms_singleton
  0001f	83 c4 0c	 add	 esp, 12			; 0000000cH
$LN5@shopGetTab:
; File C:\Anka2Project\Anka2Project\Source\Binary\source\UserInterface\PythonShop.cpp

; 422  : 	return Py_BuildValue("i", CPythonShop::instance().GetTabCount());

  00022	0f b6 80 6c f5
	00 00		 movzx	 eax, BYTE PTR [eax+62828]
  00029	50		 push	 eax
  0002a	68 00 00 00 00	 push	 OFFSET ??_C@_01KBJDNOO@i@
  0002f	ff 15 00 00 00
	00		 call	 DWORD PTR __imp__Py_BuildValue
  00035	83 c4 08	 add	 esp, 8

; 423  : }

  00038	c3		 ret	 0
?shopGetTabCount@@YAPAU_object@@PAU1@0@Z ENDP		; shopGetTabCount
_TEXT	ENDS
; Function compile flags: /Ogtp
; File C:\Anka2Project\Anka2Project\Source\Binary\source\UserInterface\PythonShop.cpp
; File C:\Anka2Project\Anka2Project\Source\Binary\source\eterBase\Singleton.h
; File C:\Anka2Project\Anka2Project\Source\Binary\source\UserInterface\PythonShop.cpp
;	COMDAT ?shopGetTabName@@YAPAU_object@@PAU1@0@Z
_TEXT	SEGMENT
_bTabIdx$ = -1						; size = 1
_poSelf$ = 8						; size = 4
_poArgs$ = 12						; size = 4
?shopGetTabName@@YAPAU_object@@PAU1@0@Z PROC		; shopGetTabName, COMDAT

; 426  : {

  00000	55		 push	 ebp
  00001	8b ec		 mov	 ebp, esp
  00003	51		 push	 ecx

; 427  : 	BYTE bTabIdx;
; 428  : 	if (!PyTuple_GetInteger(poArgs, 0, &bTabIdx))

  00004	8d 45 ff	 lea	 eax, DWORD PTR _bTabIdx$[ebp]
  00007	50		 push	 eax
  00008	6a 00		 push	 0
  0000a	ff 75 0c	 push	 DWORD PTR _poArgs$[ebp]
  0000d	e8 00 00 00 00	 call	 ?PyTuple_GetInteger@@YA_NPAU_object@@HPAE@Z ; PyTuple_GetInteger
  00012	83 c4 0c	 add	 esp, 12			; 0000000cH
  00015	84 c0		 test	 al, al
  00017	75 0e		 jne	 SHORT $LN2@shopGetTab

; 429  : 		return Py_BuildException();

  00019	6a 00		 push	 0
  0001b	e8 00 00 00 00	 call	 ?Py_BuildException@@YAPAU_object@@PBDZZ ; Py_BuildException
  00020	83 c4 04	 add	 esp, 4

; 432  : }

  00023	8b e5		 mov	 esp, ebp
  00025	5d		 pop	 ebp
  00026	c3		 ret	 0
$LN2@shopGetTab:
; File C:\Anka2Project\Anka2Project\Source\Binary\source\eterBase\Singleton.h

; 37   : 		assert(ms_singleton);

  00027	8b 0d 00 00 00
	00		 mov	 ecx, DWORD PTR ?ms_singleton@?$CSingleton@VCPythonShop@@@@0PAVCPythonShop@@A ; CSingleton<CPythonShop>::ms_singleton
  0002d	85 c9		 test	 ecx, ecx
  0002f	75 1a		 jne	 SHORT $LN6@shopGetTab
  00031	6a 25		 push	 37			; 00000025H
  00033	68 00 00 00 00	 push	 OFFSET ??_C@_1IO@CAJLEEOI@?$AAC?$AA?3?$AA?2?$AAA?$AAn?$AAk?$AAa?$AA2?$AAP?$AAr?$AAo?$AAj?$AAe?$AAc?$AAt@
  00038	68 00 00 00 00	 push	 OFFSET ??_C@_1BK@FMEHPMFE@?$AAm?$AAs?$AA_?$AAs?$AAi?$AAn?$AAg?$AAl?$AAe?$AAt?$AAo?$AAn@
  0003d	e8 00 00 00 00	 call	 __wassert
  00042	8b 0d 00 00 00
	00		 mov	 ecx, DWORD PTR ?ms_singleton@?$CSingleton@VCPythonShop@@@@0PAVCPythonShop@@A ; CSingleton<CPythonShop>::ms_singleton
  00048	83 c4 0c	 add	 esp, 12			; 0000000cH
$LN6@shopGetTab:
; File C:\Anka2Project\Anka2Project\Source\Binary\source\UserInterface\PythonShop.cpp

; 431  : 	return Py_BuildValue("s", CPythonShop::instance().GetTabName(bTabIdx));

  0004b	8a 45 ff	 mov	 al, BYTE PTR _bTabIdx$[ebp]
  0004e	50		 push	 eax
  0004f	e8 00 00 00 00	 call	 ?GetTabName@CPythonShop@@QAEPBDE@Z ; CPythonShop::GetTabName
  00054	50		 push	 eax
  00055	68 00 00 00 00	 push	 OFFSET ??_C@_01LKDEMHDF@s@
  0005a	ff 15 00 00 00
	00		 call	 DWORD PTR __imp__Py_BuildValue
  00060	83 c4 08	 add	 esp, 8

; 432  : }

  00063	8b e5		 mov	 esp, ebp
  00065	5d		 pop	 ebp
  00066	c3		 ret	 0
?shopGetTabName@@YAPAU_object@@PAU1@0@Z ENDP		; shopGetTabName
_TEXT	ENDS
; Function compile flags: /Ogtp
; File C:\Anka2Project\Anka2Project\Source\Binary\source\UserInterface\PythonShop.cpp
; File C:\Anka2Project\Anka2Project\Source\Binary\source\eterBase\Singleton.h
; File C:\Anka2Project\Anka2Project\Source\Binary\source\UserInterface\PythonShop.cpp
;	COMDAT ?shopGetTabCoinType@@YAPAU_object@@PAU1@0@Z
_TEXT	SEGMENT
_bTabIdx$ = -1						; size = 1
_poSelf$ = 8						; size = 4
_poArgs$ = 12						; size = 4
?shopGetTabCoinType@@YAPAU_object@@PAU1@0@Z PROC	; shopGetTabCoinType, COMDAT

; 435  : {

  00000	55		 push	 ebp
  00001	8b ec		 mov	 ebp, esp
  00003	51		 push	 ecx

; 436  : 	BYTE bTabIdx;
; 437  : 	if (!PyTuple_GetInteger(poArgs, 0, &bTabIdx))

  00004	8d 45 ff	 lea	 eax, DWORD PTR _bTabIdx$[ebp]
  00007	50		 push	 eax
  00008	6a 00		 push	 0
  0000a	ff 75 0c	 push	 DWORD PTR _poArgs$[ebp]
  0000d	e8 00 00 00 00	 call	 ?PyTuple_GetInteger@@YA_NPAU_object@@HPAE@Z ; PyTuple_GetInteger
  00012	83 c4 0c	 add	 esp, 12			; 0000000cH
  00015	84 c0		 test	 al, al
  00017	75 0e		 jne	 SHORT $LN2@shopGetTab

; 438  : 		return Py_BuildException();

  00019	6a 00		 push	 0
  0001b	e8 00 00 00 00	 call	 ?Py_BuildException@@YAPAU_object@@PBDZZ ; Py_BuildException
  00020	83 c4 04	 add	 esp, 4

; 441  : }

  00023	8b e5		 mov	 esp, ebp
  00025	5d		 pop	 ebp
  00026	c3		 ret	 0
$LN2@shopGetTab:
; File C:\Anka2Project\Anka2Project\Source\Binary\source\eterBase\Singleton.h

; 37   : 		assert(ms_singleton);

  00027	8b 0d 00 00 00
	00		 mov	 ecx, DWORD PTR ?ms_singleton@?$CSingleton@VCPythonShop@@@@0PAVCPythonShop@@A ; CSingleton<CPythonShop>::ms_singleton
  0002d	85 c9		 test	 ecx, ecx
  0002f	75 1a		 jne	 SHORT $LN6@shopGetTab
  00031	6a 25		 push	 37			; 00000025H
  00033	68 00 00 00 00	 push	 OFFSET ??_C@_1IO@CAJLEEOI@?$AAC?$AA?3?$AA?2?$AAA?$AAn?$AAk?$AAa?$AA2?$AAP?$AAr?$AAo?$AAj?$AAe?$AAc?$AAt@
  00038	68 00 00 00 00	 push	 OFFSET ??_C@_1BK@FMEHPMFE@?$AAm?$AAs?$AA_?$AAs?$AAi?$AAn?$AAg?$AAl?$AAe?$AAt?$AAo?$AAn@
  0003d	e8 00 00 00 00	 call	 __wassert
  00042	8b 0d 00 00 00
	00		 mov	 ecx, DWORD PTR ?ms_singleton@?$CSingleton@VCPythonShop@@@@0PAVCPythonShop@@A ; CSingleton<CPythonShop>::ms_singleton
  00048	83 c4 0c	 add	 esp, 12			; 0000000cH
$LN6@shopGetTab:
; File C:\Anka2Project\Anka2Project\Source\Binary\source\UserInterface\PythonShop.cpp

; 440  : 	return Py_BuildValue("i", CPythonShop::instance().GetTabCoinType(bTabIdx));

  0004b	8a 45 ff	 mov	 al, BYTE PTR _bTabIdx$[ebp]
  0004e	50		 push	 eax
  0004f	e8 00 00 00 00	 call	 ?GetTabCoinType@CPythonShop@@QAEEE@Z ; CPythonShop::GetTabCoinType
  00054	0f b6 c0	 movzx	 eax, al
  00057	50		 push	 eax
  00058	68 00 00 00 00	 push	 OFFSET ??_C@_01KBJDNOO@i@
  0005d	ff 15 00 00 00
	00		 call	 DWORD PTR __imp__Py_BuildValue
  00063	83 c4 08	 add	 esp, 8

; 441  : }

  00066	8b e5		 mov	 esp, ebp
  00068	5d		 pop	 ebp
  00069	c3		 ret	 0
?shopGetTabCoinType@@YAPAU_object@@PAU1@0@Z ENDP	; shopGetTabCoinType
_TEXT	ENDS
; Function compile flags: /Ogtp
; File C:\Anka2Project\Anka2Project\Source\Binary\source\UserInterface\PythonShop.cpp
; File C:\Anka2Project\Anka2Project\Source\Binary\source\eterBase\Singleton.h
; File C:\Anka2Project\Anka2Project\Source\Binary\source\UserInterface\PythonShop.cpp
;	COMDAT ?shopGetItemPriceType@@YAPAU_object@@PAU1@0@Z
_TEXT	SEGMENT
_c_pItemData$ = -8					; size = 4
_nPos$ = -4						; size = 4
_poSelf$ = 8						; size = 4
_poArgs$ = 12						; size = 4
?shopGetItemPriceType@@YAPAU_object@@PAU1@0@Z PROC	; shopGetItemPriceType, COMDAT

; 445  : {

  00000	55		 push	 ebp
  00001	8b ec		 mov	 ebp, esp
  00003	83 ec 08	 sub	 esp, 8

; 446  : 	int nPos;
; 447  : 	if (!PyTuple_GetInteger(poArgs, 0, &nPos))

  00006	8d 45 fc	 lea	 eax, DWORD PTR _nPos$[ebp]
  00009	50		 push	 eax
  0000a	6a 00		 push	 0
  0000c	ff 75 0c	 push	 DWORD PTR _poArgs$[ebp]
  0000f	e8 00 00 00 00	 call	 ?PyTuple_GetInteger@@YA_NPAU_object@@HPAH@Z ; PyTuple_GetInteger
  00014	83 c4 0c	 add	 esp, 12			; 0000000cH
  00017	84 c0		 test	 al, al
  00019	75 0e		 jne	 SHORT $LN2@shopGetIte

; 448  : 		return Py_BuildException();

  0001b	6a 00		 push	 0
  0001d	e8 00 00 00 00	 call	 ?Py_BuildException@@YAPAU_object@@PBDZZ ; Py_BuildException
  00022	83 c4 04	 add	 esp, 4

; 455  : }

  00025	8b e5		 mov	 esp, ebp
  00027	5d		 pop	 ebp
  00028	c3		 ret	 0
$LN2@shopGetIte:
; File C:\Anka2Project\Anka2Project\Source\Binary\source\eterBase\Singleton.h

; 26   : 		assert(ms_singleton);

  00029	8b 0d 00 00 00
	00		 mov	 ecx, DWORD PTR ?ms_singleton@?$CSingleton@VCPythonShop@@@@0PAVCPythonShop@@A ; CSingleton<CPythonShop>::ms_singleton
  0002f	85 c9		 test	 ecx, ecx
  00031	75 1a		 jne	 SHORT $LN7@shopGetIte
  00033	6a 1a		 push	 26			; 0000001aH
  00035	68 00 00 00 00	 push	 OFFSET ??_C@_1IO@CAJLEEOI@?$AAC?$AA?3?$AA?2?$AAA?$AAn?$AAk?$AAa?$AA2?$AAP?$AAr?$AAo?$AAj?$AAe?$AAc?$AAt@
  0003a	68 00 00 00 00	 push	 OFFSET ??_C@_1BK@FMEHPMFE@?$AAm?$AAs?$AA_?$AAs?$AAi?$AAn?$AAg?$AAl?$AAe?$AAt?$AAo?$AAn@
  0003f	e8 00 00 00 00	 call	 __wassert
  00044	8b 0d 00 00 00
	00		 mov	 ecx, DWORD PTR ?ms_singleton@?$CSingleton@VCPythonShop@@@@0PAVCPythonShop@@A ; CSingleton<CPythonShop>::ms_singleton
  0004a	83 c4 0c	 add	 esp, 12			; 0000000cH
$LN7@shopGetIte:
; File C:\Anka2Project\Anka2Project\Source\Binary\source\UserInterface\PythonShop.cpp

; 451  : 	if (CPythonShop::Instance().GetItemData(nPos, &c_pItemData))

  0004d	8d 45 f8	 lea	 eax, DWORD PTR _c_pItemData$[ebp]
  00050	50		 push	 eax
  00051	ff 75 fc	 push	 DWORD PTR _nPos$[ebp]
  00054	e8 00 00 00 00	 call	 ?GetItemData@CPythonShop@@QAEHKPAPBUpacket_shop_item@@@Z ; CPythonShop::GetItemData
  00059	85 c0		 test	 eax, eax
  0005b	74 1a		 je	 SHORT $LN3@shopGetIte

; 452  : 		return Py_BuildValue("i", c_pItemData->price_type);

  0005d	8b 45 f8	 mov	 eax, DWORD PTR _c_pItemData$[ebp]
  00060	0f b6 40 30	 movzx	 eax, BYTE PTR [eax+48]
  00064	50		 push	 eax

; 455  : }

  00065	68 00 00 00 00	 push	 OFFSET ??_C@_01KBJDNOO@i@
  0006a	ff 15 00 00 00
	00		 call	 DWORD PTR __imp__Py_BuildValue
  00070	83 c4 08	 add	 esp, 8
  00073	8b e5		 mov	 esp, ebp
  00075	5d		 pop	 ebp
  00076	c3		 ret	 0
$LN3@shopGetIte:

; 453  : 
; 454  : 	return Py_BuildValue("i", 1);

  00077	6a 01		 push	 1

; 455  : }

  00079	68 00 00 00 00	 push	 OFFSET ??_C@_01KBJDNOO@i@
  0007e	ff 15 00 00 00
	00		 call	 DWORD PTR __imp__Py_BuildValue
  00084	83 c4 08	 add	 esp, 8
  00087	8b e5		 mov	 esp, ebp
  00089	5d		 pop	 ebp
  0008a	c3		 ret	 0
?shopGetItemPriceType@@YAPAU_object@@PAU1@0@Z ENDP	; shopGetItemPriceType
_TEXT	ENDS
; Function compile flags: /Ogtp
; File C:\Anka2Project\Anka2Project\Source\Binary\source\UserInterface\PythonShop.cpp
; File C:\Anka2Project\Anka2Project\Source\Binary\source\eterBase\Singleton.h
; File C:\Anka2Project\Anka2Project\Source\Binary\source\UserInterface\PythonShop.cpp
;	COMDAT ?shopGetItemPriceVnum@@YAPAU_object@@PAU1@0@Z
_TEXT	SEGMENT
_c_pItemData$ = -8					; size = 4
_nPos$ = -4						; size = 4
_poSelf$ = 8						; size = 4
_poArgs$ = 12						; size = 4
?shopGetItemPriceVnum@@YAPAU_object@@PAU1@0@Z PROC	; shopGetItemPriceVnum, COMDAT

; 458  : {

  00000	55		 push	 ebp
  00001	8b ec		 mov	 ebp, esp
  00003	83 ec 08	 sub	 esp, 8

; 459  : 	int nPos;
; 460  : 	if (!PyTuple_GetInteger(poArgs, 0, &nPos))

  00006	8d 45 fc	 lea	 eax, DWORD PTR _nPos$[ebp]
  00009	50		 push	 eax
  0000a	6a 00		 push	 0
  0000c	ff 75 0c	 push	 DWORD PTR _poArgs$[ebp]
  0000f	e8 00 00 00 00	 call	 ?PyTuple_GetInteger@@YA_NPAU_object@@HPAH@Z ; PyTuple_GetInteger
  00014	83 c4 0c	 add	 esp, 12			; 0000000cH
  00017	84 c0		 test	 al, al
  00019	75 0e		 jne	 SHORT $LN2@shopGetIte

; 461  : 		return Py_BuildException();

  0001b	6a 00		 push	 0
  0001d	e8 00 00 00 00	 call	 ?Py_BuildException@@YAPAU_object@@PBDZZ ; Py_BuildException
  00022	83 c4 04	 add	 esp, 4

; 468  : }

  00025	8b e5		 mov	 esp, ebp
  00027	5d		 pop	 ebp
  00028	c3		 ret	 0
$LN2@shopGetIte:
; File C:\Anka2Project\Anka2Project\Source\Binary\source\eterBase\Singleton.h

; 26   : 		assert(ms_singleton);

  00029	8b 0d 00 00 00
	00		 mov	 ecx, DWORD PTR ?ms_singleton@?$CSingleton@VCPythonShop@@@@0PAVCPythonShop@@A ; CSingleton<CPythonShop>::ms_singleton
  0002f	85 c9		 test	 ecx, ecx
  00031	75 1a		 jne	 SHORT $LN7@shopGetIte
  00033	6a 1a		 push	 26			; 0000001aH
  00035	68 00 00 00 00	 push	 OFFSET ??_C@_1IO@CAJLEEOI@?$AAC?$AA?3?$AA?2?$AAA?$AAn?$AAk?$AAa?$AA2?$AAP?$AAr?$AAo?$AAj?$AAe?$AAc?$AAt@
  0003a	68 00 00 00 00	 push	 OFFSET ??_C@_1BK@FMEHPMFE@?$AAm?$AAs?$AA_?$AAs?$AAi?$AAn?$AAg?$AAl?$AAe?$AAt?$AAo?$AAn@
  0003f	e8 00 00 00 00	 call	 __wassert
  00044	8b 0d 00 00 00
	00		 mov	 ecx, DWORD PTR ?ms_singleton@?$CSingleton@VCPythonShop@@@@0PAVCPythonShop@@A ; CSingleton<CPythonShop>::ms_singleton
  0004a	83 c4 0c	 add	 esp, 12			; 0000000cH
$LN7@shopGetIte:
; File C:\Anka2Project\Anka2Project\Source\Binary\source\UserInterface\PythonShop.cpp

; 464  : 	if (CPythonShop::Instance().GetItemData(nPos, &c_pItemData))

  0004d	8d 45 f8	 lea	 eax, DWORD PTR _c_pItemData$[ebp]
  00050	50		 push	 eax
  00051	ff 75 fc	 push	 DWORD PTR _nPos$[ebp]
  00054	e8 00 00 00 00	 call	 ?GetItemData@CPythonShop@@QAEHKPAPBUpacket_shop_item@@@Z ; CPythonShop::GetItemData
  00059	85 c0		 test	 eax, eax
  0005b	74 18		 je	 SHORT $LN3@shopGetIte

; 465  : 		return Py_BuildValue("i", c_pItemData->price_vnum);

  0005d	8b 45 f8	 mov	 eax, DWORD PTR _c_pItemData$[ebp]
  00060	ff 70 31	 push	 DWORD PTR [eax+49]

; 468  : }

  00063	68 00 00 00 00	 push	 OFFSET ??_C@_01KBJDNOO@i@
  00068	ff 15 00 00 00
	00		 call	 DWORD PTR __imp__Py_BuildValue
  0006e	83 c4 08	 add	 esp, 8
  00071	8b e5		 mov	 esp, ebp
  00073	5d		 pop	 ebp
  00074	c3		 ret	 0
$LN3@shopGetIte:

; 466  : 
; 467  : 	return Py_BuildValue("i", 0);

  00075	6a 00		 push	 0

; 468  : }

  00077	68 00 00 00 00	 push	 OFFSET ??_C@_01KBJDNOO@i@
  0007c	ff 15 00 00 00
	00		 call	 DWORD PTR __imp__Py_BuildValue
  00082	83 c4 08	 add	 esp, 8
  00085	8b e5		 mov	 esp, ebp
  00087	5d		 pop	 ebp
  00088	c3		 ret	 0
?shopGetItemPriceVnum@@YAPAU_object@@PAU1@0@Z ENDP	; shopGetItemPriceVnum
_TEXT	ENDS
; Function compile flags: /Ogtp
; File C:\Anka2Project\Anka2Project\Source\Binary\source\UserInterface\PythonShop.cpp
; File C:\Anka2Project\Anka2Project\Source\Binary\source\eterBase\Singleton.h
; File C:\Anka2Project\Anka2Project\Source\Binary\source\UserInterface\PythonShop.cpp
;	COMDAT ?shopGetOfflineShopItemTransmutation@@YAPAU_object@@PAU1@0@Z
_TEXT	SEGMENT
_c_pItemData$ = -8					; size = 4
_iIndex$ = -4						; size = 4
_poSelf$ = 8						; size = 4
_poArgs$ = 12						; size = 4
?shopGetOfflineShopItemTransmutation@@YAPAU_object@@PAU1@0@Z PROC ; shopGetOfflineShopItemTransmutation, COMDAT

; 574  : {

  00000	55		 push	 ebp
  00001	8b ec		 mov	 ebp, esp
  00003	83 ec 08	 sub	 esp, 8

; 575  : 	int iIndex;
; 576  : 	if (!PyTuple_GetInteger(poArgs, 0, &iIndex))

  00006	8d 45 fc	 lea	 eax, DWORD PTR _iIndex$[ebp]
  00009	50		 push	 eax
  0000a	6a 00		 push	 0
  0000c	ff 75 0c	 push	 DWORD PTR _poArgs$[ebp]
  0000f	e8 00 00 00 00	 call	 ?PyTuple_GetInteger@@YA_NPAU_object@@HPAH@Z ; PyTuple_GetInteger
  00014	83 c4 0c	 add	 esp, 12			; 0000000cH
  00017	84 c0		 test	 al, al
  00019	75 0e		 jne	 SHORT $LN2@shopGetOff

; 577  : 		return Py_BuildException();

  0001b	6a 00		 push	 0
  0001d	e8 00 00 00 00	 call	 ?Py_BuildException@@YAPAU_object@@PBDZZ ; Py_BuildException
  00022	83 c4 04	 add	 esp, 4

; 584  : }

  00025	8b e5		 mov	 esp, ebp
  00027	5d		 pop	 ebp
  00028	c3		 ret	 0
$LN2@shopGetOff:
; File C:\Anka2Project\Anka2Project\Source\Binary\source\eterBase\Singleton.h

; 26   : 		assert(ms_singleton);

  00029	8b 0d 00 00 00
	00		 mov	 ecx, DWORD PTR ?ms_singleton@?$CSingleton@VCPythonShop@@@@0PAVCPythonShop@@A ; CSingleton<CPythonShop>::ms_singleton
  0002f	85 c9		 test	 ecx, ecx
  00031	75 1a		 jne	 SHORT $LN7@shopGetOff
  00033	6a 1a		 push	 26			; 0000001aH
  00035	68 00 00 00 00	 push	 OFFSET ??_C@_1IO@CAJLEEOI@?$AAC?$AA?3?$AA?2?$AAA?$AAn?$AAk?$AAa?$AA2?$AAP?$AAr?$AAo?$AAj?$AAe?$AAc?$AAt@
  0003a	68 00 00 00 00	 push	 OFFSET ??_C@_1BK@FMEHPMFE@?$AAm?$AAs?$AA_?$AAs?$AAi?$AAn?$AAg?$AAl?$AAe?$AAt?$AAo?$AAn@
  0003f	e8 00 00 00 00	 call	 __wassert
  00044	8b 0d 00 00 00
	00		 mov	 ecx, DWORD PTR ?ms_singleton@?$CSingleton@VCPythonShop@@@@0PAVCPythonShop@@A ; CSingleton<CPythonShop>::ms_singleton
  0004a	83 c4 0c	 add	 esp, 12			; 0000000cH
$LN7@shopGetOff:
; File C:\Anka2Project\Anka2Project\Source\Binary\source\UserInterface\PythonShop.cpp

; 580  : 	if (CPythonShop::Instance().GetOfflineShopItemData(iIndex, &c_pItemData))

  0004d	8d 45 f8	 lea	 eax, DWORD PTR _c_pItemData$[ebp]
  00050	50		 push	 eax
  00051	ff 75 fc	 push	 DWORD PTR _iIndex$[ebp]
  00054	e8 00 00 00 00	 call	 ?GetOfflineShopItemData@CPythonShop@@QAEHKPAPBUpacket_offline_shop_item@@@Z ; CPythonShop::GetOfflineShopItemData
  00059	85 c0		 test	 eax, eax
  0005b	74 18		 je	 SHORT $LN3@shopGetOff

; 581  : 		return Py_BuildValue("i", c_pItemData->transmutation);

  0005d	8b 45 f8	 mov	 eax, DWORD PTR _c_pItemData$[ebp]
  00060	ff 70 68	 push	 DWORD PTR [eax+104]

; 584  : }

  00063	68 00 00 00 00	 push	 OFFSET ??_C@_01KBJDNOO@i@
  00068	ff 15 00 00 00
	00		 call	 DWORD PTR __imp__Py_BuildValue
  0006e	83 c4 08	 add	 esp, 8
  00071	8b e5		 mov	 esp, ebp
  00073	5d		 pop	 ebp
  00074	c3		 ret	 0
$LN3@shopGetOff:

; 582  : 
; 583  : 	return Py_BuildValue("i", 0);

  00075	6a 00		 push	 0

; 584  : }

  00077	68 00 00 00 00	 push	 OFFSET ??_C@_01KBJDNOO@i@
  0007c	ff 15 00 00 00
	00		 call	 DWORD PTR __imp__Py_BuildValue
  00082	83 c4 08	 add	 esp, 8
  00085	8b e5		 mov	 esp, ebp
  00087	5d		 pop	 ebp
  00088	c3		 ret	 0
?shopGetOfflineShopItemTransmutation@@YAPAU_object@@PAU1@0@Z ENDP ; shopGetOfflineShopItemTransmutation
_TEXT	ENDS
; Function compile flags: /Ogtp
; File C:\Anka2Project\Anka2Project\Source\Binary\source\UserInterface\PythonShop.cpp
; File C:\Anka2Project\Anka2Project\Source\Binary\source\eterBase\Singleton.h
; File C:\Anka2Project\Anka2Project\Source\Binary\source\UserInterface\PythonShop.cpp
;	COMDAT ?shopIsOfflineShop@@YAPAU_object@@PAU1@0@Z
_TEXT	SEGMENT
_poSelf$ = 8						; size = 4
_poArgs$ = 12						; size = 4
?shopIsOfflineShop@@YAPAU_object@@PAU1@0@Z PROC		; shopIsOfflineShop, COMDAT
; File C:\Anka2Project\Anka2Project\Source\Binary\source\eterBase\Singleton.h

; 26   : 		assert(ms_singleton);

  00000	a1 00 00 00 00	 mov	 eax, DWORD PTR ?ms_singleton@?$CSingleton@VCPythonShop@@@@0PAVCPythonShop@@A ; CSingleton<CPythonShop>::ms_singleton
  00005	85 c0		 test	 eax, eax
  00007	75 19		 jne	 SHORT $LN5@shopIsOffl
  00009	6a 1a		 push	 26			; 0000001aH
  0000b	68 00 00 00 00	 push	 OFFSET ??_C@_1IO@CAJLEEOI@?$AAC?$AA?3?$AA?2?$AAA?$AAn?$AAk?$AAa?$AA2?$AAP?$AAr?$AAo?$AAj?$AAe?$AAc?$AAt@
  00010	68 00 00 00 00	 push	 OFFSET ??_C@_1BK@FMEHPMFE@?$AAm?$AAs?$AA_?$AAs?$AAi?$AAn?$AAg?$AAl?$AAe?$AAt?$AAo?$AAn@
  00015	e8 00 00 00 00	 call	 __wassert
  0001a	a1 00 00 00 00	 mov	 eax, DWORD PTR ?ms_singleton@?$CSingleton@VCPythonShop@@@@0PAVCPythonShop@@A ; CSingleton<CPythonShop>::ms_singleton
  0001f	83 c4 0c	 add	 esp, 12			; 0000000cH
$LN5@shopIsOffl:
; File C:\Anka2Project\Anka2Project\Source\Binary\source\UserInterface\PythonShop.cpp

; 590  : 	return Py_BuildValue("i", rkShop.IsOfflineShop());

  00022	ff b0 14 f5 00
	00		 push	 DWORD PTR [eax+62740]
  00028	68 00 00 00 00	 push	 OFFSET ??_C@_01KBJDNOO@i@
  0002d	ff 15 00 00 00
	00		 call	 DWORD PTR __imp__Py_BuildValue
  00033	83 c4 08	 add	 esp, 8

; 591  : }

  00036	c3		 ret	 0
?shopIsOfflineShop@@YAPAU_object@@PAU1@0@Z ENDP		; shopIsOfflineShop
_TEXT	ENDS
; Function compile flags: /Ogtp
; File C:\Anka2Project\Anka2Project\Source\Binary\source\UserInterface\PythonShop.cpp
; File C:\Anka2Project\Anka2Project\Source\Binary\source\eterBase\Singleton.h
; File C:\Anka2Project\Anka2Project\Source\Binary\source\UserInterface\PythonShop.cpp
;	COMDAT ?shopGetOfflineShopItemID@@YAPAU_object@@PAU1@0@Z
_TEXT	SEGMENT
_c_pItemData$ = -8					; size = 4
_nPos$ = -4						; size = 4
_poSelf$ = 8						; size = 4
_poArgs$ = 12						; size = 4
?shopGetOfflineShopItemID@@YAPAU_object@@PAU1@0@Z PROC	; shopGetOfflineShopItemID, COMDAT

; 594  : {

  00000	55		 push	 ebp
  00001	8b ec		 mov	 ebp, esp
  00003	83 ec 08	 sub	 esp, 8

; 595  : 	int nPos;
; 596  : 	if (!PyTuple_GetInteger(poArgs, 0, &nPos))

  00006	8d 45 fc	 lea	 eax, DWORD PTR _nPos$[ebp]
  00009	50		 push	 eax
  0000a	6a 00		 push	 0
  0000c	ff 75 0c	 push	 DWORD PTR _poArgs$[ebp]
  0000f	e8 00 00 00 00	 call	 ?PyTuple_GetInteger@@YA_NPAU_object@@HPAH@Z ; PyTuple_GetInteger
  00014	83 c4 0c	 add	 esp, 12			; 0000000cH
  00017	84 c0		 test	 al, al
  00019	75 0e		 jne	 SHORT $LN2@shopGetOff

; 597  : 		return Py_BuildException();

  0001b	6a 00		 push	 0
  0001d	e8 00 00 00 00	 call	 ?Py_BuildException@@YAPAU_object@@PBDZZ ; Py_BuildException
  00022	83 c4 04	 add	 esp, 4

; 604  : }

  00025	8b e5		 mov	 esp, ebp
  00027	5d		 pop	 ebp
  00028	c3		 ret	 0
$LN2@shopGetOff:
; File C:\Anka2Project\Anka2Project\Source\Binary\source\eterBase\Singleton.h

; 26   : 		assert(ms_singleton);

  00029	8b 0d 00 00 00
	00		 mov	 ecx, DWORD PTR ?ms_singleton@?$CSingleton@VCPythonShop@@@@0PAVCPythonShop@@A ; CSingleton<CPythonShop>::ms_singleton
  0002f	85 c9		 test	 ecx, ecx
  00031	75 1a		 jne	 SHORT $LN7@shopGetOff
  00033	6a 1a		 push	 26			; 0000001aH
  00035	68 00 00 00 00	 push	 OFFSET ??_C@_1IO@CAJLEEOI@?$AAC?$AA?3?$AA?2?$AAA?$AAn?$AAk?$AAa?$AA2?$AAP?$AAr?$AAo?$AAj?$AAe?$AAc?$AAt@
  0003a	68 00 00 00 00	 push	 OFFSET ??_C@_1BK@FMEHPMFE@?$AAm?$AAs?$AA_?$AAs?$AAi?$AAn?$AAg?$AAl?$AAe?$AAt?$AAo?$AAn@
  0003f	e8 00 00 00 00	 call	 __wassert
  00044	8b 0d 00 00 00
	00		 mov	 ecx, DWORD PTR ?ms_singleton@?$CSingleton@VCPythonShop@@@@0PAVCPythonShop@@A ; CSingleton<CPythonShop>::ms_singleton
  0004a	83 c4 0c	 add	 esp, 12			; 0000000cH
$LN7@shopGetOff:
; File C:\Anka2Project\Anka2Project\Source\Binary\source\UserInterface\PythonShop.cpp

; 600  : 	if (CPythonShop::Instance().GetOfflineShopItemData(nPos, &c_pItemData))

  0004d	8d 45 f8	 lea	 eax, DWORD PTR _c_pItemData$[ebp]
  00050	50		 push	 eax
  00051	ff 75 fc	 push	 DWORD PTR _nPos$[ebp]
  00054	e8 00 00 00 00	 call	 ?GetOfflineShopItemData@CPythonShop@@QAEHKPAPBUpacket_offline_shop_item@@@Z ; CPythonShop::GetOfflineShopItemData
  00059	85 c0		 test	 eax, eax
  0005b	74 18		 je	 SHORT $LN3@shopGetOff

; 601  : 		return Py_BuildValue("i", c_pItemData->vnum);

  0005d	8b 45 f8	 mov	 eax, DWORD PTR _c_pItemData$[ebp]
  00060	ff 70 04	 push	 DWORD PTR [eax+4]

; 604  : }

  00063	68 00 00 00 00	 push	 OFFSET ??_C@_01KBJDNOO@i@
  00068	ff 15 00 00 00
	00		 call	 DWORD PTR __imp__Py_BuildValue
  0006e	83 c4 08	 add	 esp, 8
  00071	8b e5		 mov	 esp, ebp
  00073	5d		 pop	 ebp
  00074	c3		 ret	 0
$LN3@shopGetOff:

; 602  : 
; 603  : 	return Py_BuildValue("i", 0);

  00075	6a 00		 push	 0

; 604  : }

  00077	68 00 00 00 00	 push	 OFFSET ??_C@_01KBJDNOO@i@
  0007c	ff 15 00 00 00
	00		 call	 DWORD PTR __imp__Py_BuildValue
  00082	83 c4 08	 add	 esp, 8
  00085	8b e5		 mov	 esp, ebp
  00087	5d		 pop	 ebp
  00088	c3		 ret	 0
?shopGetOfflineShopItemID@@YAPAU_object@@PAU1@0@Z ENDP	; shopGetOfflineShopItemID
_TEXT	ENDS
; Function compile flags: /Ogtp
; File C:\Anka2Project\Anka2Project\Source\Binary\source\UserInterface\PythonShop.cpp
; File C:\Anka2Project\Anka2Project\Source\Binary\source\eterBase\Singleton.h
; File C:\Anka2Project\Anka2Project\Source\Binary\source\UserInterface\PythonShop.cpp
;	COMDAT ?shopGetOfflineShopItemCount@@YAPAU_object@@PAU1@0@Z
_TEXT	SEGMENT
_c_pItemData$ = -8					; size = 4
_iIndex$ = -4						; size = 4
_poSelf$ = 8						; size = 4
_poArgs$ = 12						; size = 4
?shopGetOfflineShopItemCount@@YAPAU_object@@PAU1@0@Z PROC ; shopGetOfflineShopItemCount, COMDAT

; 607  : {

  00000	55		 push	 ebp
  00001	8b ec		 mov	 ebp, esp
  00003	83 ec 08	 sub	 esp, 8

; 608  : 	int iIndex;
; 609  : 	if (!PyTuple_GetInteger(poArgs, 0, &iIndex))

  00006	8d 45 fc	 lea	 eax, DWORD PTR _iIndex$[ebp]
  00009	50		 push	 eax
  0000a	6a 00		 push	 0
  0000c	ff 75 0c	 push	 DWORD PTR _poArgs$[ebp]
  0000f	e8 00 00 00 00	 call	 ?PyTuple_GetInteger@@YA_NPAU_object@@HPAH@Z ; PyTuple_GetInteger
  00014	83 c4 0c	 add	 esp, 12			; 0000000cH
  00017	84 c0		 test	 al, al
  00019	75 0e		 jne	 SHORT $LN2@shopGetOff

; 610  : 		return Py_BuildException();

  0001b	6a 00		 push	 0
  0001d	e8 00 00 00 00	 call	 ?Py_BuildException@@YAPAU_object@@PBDZZ ; Py_BuildException
  00022	83 c4 04	 add	 esp, 4

; 617  : }

  00025	8b e5		 mov	 esp, ebp
  00027	5d		 pop	 ebp
  00028	c3		 ret	 0
$LN2@shopGetOff:
; File C:\Anka2Project\Anka2Project\Source\Binary\source\eterBase\Singleton.h

; 26   : 		assert(ms_singleton);

  00029	8b 0d 00 00 00
	00		 mov	 ecx, DWORD PTR ?ms_singleton@?$CSingleton@VCPythonShop@@@@0PAVCPythonShop@@A ; CSingleton<CPythonShop>::ms_singleton
  0002f	85 c9		 test	 ecx, ecx
  00031	75 1a		 jne	 SHORT $LN7@shopGetOff
  00033	6a 1a		 push	 26			; 0000001aH
  00035	68 00 00 00 00	 push	 OFFSET ??_C@_1IO@CAJLEEOI@?$AAC?$AA?3?$AA?2?$AAA?$AAn?$AAk?$AAa?$AA2?$AAP?$AAr?$AAo?$AAj?$AAe?$AAc?$AAt@
  0003a	68 00 00 00 00	 push	 OFFSET ??_C@_1BK@FMEHPMFE@?$AAm?$AAs?$AA_?$AAs?$AAi?$AAn?$AAg?$AAl?$AAe?$AAt?$AAo?$AAn@
  0003f	e8 00 00 00 00	 call	 __wassert
  00044	8b 0d 00 00 00
	00		 mov	 ecx, DWORD PTR ?ms_singleton@?$CSingleton@VCPythonShop@@@@0PAVCPythonShop@@A ; CSingleton<CPythonShop>::ms_singleton
  0004a	83 c4 0c	 add	 esp, 12			; 0000000cH
$LN7@shopGetOff:
; File C:\Anka2Project\Anka2Project\Source\Binary\source\UserInterface\PythonShop.cpp

; 613  : 	if (CPythonShop::Instance().GetOfflineShopItemData(iIndex, &c_pItemData))

  0004d	8d 45 f8	 lea	 eax, DWORD PTR _c_pItemData$[ebp]
  00050	50		 push	 eax
  00051	ff 75 fc	 push	 DWORD PTR _iIndex$[ebp]
  00054	e8 00 00 00 00	 call	 ?GetOfflineShopItemData@CPythonShop@@QAEHKPAPBUpacket_offline_shop_item@@@Z ; CPythonShop::GetOfflineShopItemData
  00059	85 c0		 test	 eax, eax
  0005b	74 18		 je	 SHORT $LN3@shopGetOff

; 614  : 		return Py_BuildValue("i", c_pItemData->count);

  0005d	8b 45 f8	 mov	 eax, DWORD PTR _c_pItemData$[ebp]
  00060	ff 70 10	 push	 DWORD PTR [eax+16]

; 617  : }

  00063	68 00 00 00 00	 push	 OFFSET ??_C@_01KBJDNOO@i@
  00068	ff 15 00 00 00
	00		 call	 DWORD PTR __imp__Py_BuildValue
  0006e	83 c4 08	 add	 esp, 8
  00071	8b e5		 mov	 esp, ebp
  00073	5d		 pop	 ebp
  00074	c3		 ret	 0
$LN3@shopGetOff:

; 615  : 
; 616  : 	return Py_BuildValue("i", 0);

  00075	6a 00		 push	 0

; 617  : }

  00077	68 00 00 00 00	 push	 OFFSET ??_C@_01KBJDNOO@i@
  0007c	ff 15 00 00 00
	00		 call	 DWORD PTR __imp__Py_BuildValue
  00082	83 c4 08	 add	 esp, 8
  00085	8b e5		 mov	 esp, ebp
  00087	5d		 pop	 ebp
  00088	c3		 ret	 0
?shopGetOfflineShopItemCount@@YAPAU_object@@PAU1@0@Z ENDP ; shopGetOfflineShopItemCount
_TEXT	ENDS
; Function compile flags: /Ogtp
; File C:\Anka2Project\Anka2Project\Source\Binary\source\UserInterface\PythonShop.cpp
; File C:\Anka2Project\Anka2Project\Source\Binary\source\eterBase\Singleton.h
; File C:\Anka2Project\Anka2Project\Source\Binary\source\UserInterface\PythonShop.cpp
;	COMDAT ?shopGetOfflineShopItemVnum@@YAPAU_object@@PAU1@0@Z
_TEXT	SEGMENT
_c_pItemData$ = -8					; size = 4
_iIndex$ = -4						; size = 4
_poSelf$ = 8						; size = 4
_poArgs$ = 12						; size = 4
?shopGetOfflineShopItemVnum@@YAPAU_object@@PAU1@0@Z PROC ; shopGetOfflineShopItemVnum, COMDAT

; 620  : {

  00000	55		 push	 ebp
  00001	8b ec		 mov	 ebp, esp
  00003	83 ec 08	 sub	 esp, 8

; 621  : 	int iIndex;
; 622  : 	if (!PyTuple_GetInteger(poArgs, 0, &iIndex))

  00006	8d 45 fc	 lea	 eax, DWORD PTR _iIndex$[ebp]
  00009	50		 push	 eax
  0000a	6a 00		 push	 0
  0000c	ff 75 0c	 push	 DWORD PTR _poArgs$[ebp]
  0000f	e8 00 00 00 00	 call	 ?PyTuple_GetInteger@@YA_NPAU_object@@HPAH@Z ; PyTuple_GetInteger
  00014	83 c4 0c	 add	 esp, 12			; 0000000cH
  00017	84 c0		 test	 al, al
  00019	75 0e		 jne	 SHORT $LN2@shopGetOff

; 623  : 		return Py_BuildException();

  0001b	6a 00		 push	 0
  0001d	e8 00 00 00 00	 call	 ?Py_BuildException@@YAPAU_object@@PBDZZ ; Py_BuildException
  00022	83 c4 04	 add	 esp, 4

; 630  : }

  00025	8b e5		 mov	 esp, ebp
  00027	5d		 pop	 ebp
  00028	c3		 ret	 0
$LN2@shopGetOff:
; File C:\Anka2Project\Anka2Project\Source\Binary\source\eterBase\Singleton.h

; 26   : 		assert(ms_singleton);

  00029	8b 0d 00 00 00
	00		 mov	 ecx, DWORD PTR ?ms_singleton@?$CSingleton@VCPythonShop@@@@0PAVCPythonShop@@A ; CSingleton<CPythonShop>::ms_singleton
  0002f	85 c9		 test	 ecx, ecx
  00031	75 1a		 jne	 SHORT $LN7@shopGetOff
  00033	6a 1a		 push	 26			; 0000001aH
  00035	68 00 00 00 00	 push	 OFFSET ??_C@_1IO@CAJLEEOI@?$AAC?$AA?3?$AA?2?$AAA?$AAn?$AAk?$AAa?$AA2?$AAP?$AAr?$AAo?$AAj?$AAe?$AAc?$AAt@
  0003a	68 00 00 00 00	 push	 OFFSET ??_C@_1BK@FMEHPMFE@?$AAm?$AAs?$AA_?$AAs?$AAi?$AAn?$AAg?$AAl?$AAe?$AAt?$AAo?$AAn@
  0003f	e8 00 00 00 00	 call	 __wassert
  00044	8b 0d 00 00 00
	00		 mov	 ecx, DWORD PTR ?ms_singleton@?$CSingleton@VCPythonShop@@@@0PAVCPythonShop@@A ; CSingleton<CPythonShop>::ms_singleton
  0004a	83 c4 0c	 add	 esp, 12			; 0000000cH
$LN7@shopGetOff:
; File C:\Anka2Project\Anka2Project\Source\Binary\source\UserInterface\PythonShop.cpp

; 626  : 	if (CPythonShop::Instance().GetOfflineShopItemData(iIndex, &c_pItemData))

  0004d	8d 45 f8	 lea	 eax, DWORD PTR _c_pItemData$[ebp]
  00050	50		 push	 eax
  00051	ff 75 fc	 push	 DWORD PTR _iIndex$[ebp]
  00054	e8 00 00 00 00	 call	 ?GetOfflineShopItemData@CPythonShop@@QAEHKPAPBUpacket_offline_shop_item@@@Z ; CPythonShop::GetOfflineShopItemData
  00059	85 c0		 test	 eax, eax
  0005b	74 18		 je	 SHORT $LN3@shopGetOff

; 627  : 		return Py_BuildValue("i", c_pItemData->vnum);

  0005d	8b 45 f8	 mov	 eax, DWORD PTR _c_pItemData$[ebp]
  00060	ff 70 04	 push	 DWORD PTR [eax+4]

; 630  : }

  00063	68 00 00 00 00	 push	 OFFSET ??_C@_01KBJDNOO@i@
  00068	ff 15 00 00 00
	00		 call	 DWORD PTR __imp__Py_BuildValue
  0006e	83 c4 08	 add	 esp, 8
  00071	8b e5		 mov	 esp, ebp
  00073	5d		 pop	 ebp
  00074	c3		 ret	 0
$LN3@shopGetOff:

; 628  : 
; 629  : 	return Py_BuildValue("i", 0);

  00075	6a 00		 push	 0

; 630  : }

  00077	68 00 00 00 00	 push	 OFFSET ??_C@_01KBJDNOO@i@
  0007c	ff 15 00 00 00
	00		 call	 DWORD PTR __imp__Py_BuildValue
  00082	83 c4 08	 add	 esp, 8
  00085	8b e5		 mov	 esp, ebp
  00087	5d		 pop	 ebp
  00088	c3		 ret	 0
?shopGetOfflineShopItemVnum@@YAPAU_object@@PAU1@0@Z ENDP ; shopGetOfflineShopItemVnum
_TEXT	ENDS
; Function compile flags: /Ogtp
; File C:\Anka2Project\Anka2Project\Source\Binary\source\UserInterface\PythonShop.cpp
; File C:\Anka2Project\Anka2Project\Source\Binary\source\eterBase\Singleton.h
; File C:\Anka2Project\Anka2Project\Source\Binary\source\UserInterface\PythonShop.cpp
;	COMDAT ?shopGetOfflineShopItemPrice@@YAPAU_object@@PAU1@0@Z
_TEXT	SEGMENT
_c_pItemData$ = -8					; size = 4
_iIndex$ = -4						; size = 4
_poSelf$ = 8						; size = 4
_poArgs$ = 12						; size = 4
?shopGetOfflineShopItemPrice@@YAPAU_object@@PAU1@0@Z PROC ; shopGetOfflineShopItemPrice, COMDAT

; 633  : {

  00000	55		 push	 ebp
  00001	8b ec		 mov	 ebp, esp
  00003	83 ec 08	 sub	 esp, 8

; 634  : 	int iIndex;
; 635  : 	if (!PyTuple_GetInteger(poArgs, 0, &iIndex))

  00006	8d 45 fc	 lea	 eax, DWORD PTR _iIndex$[ebp]
  00009	50		 push	 eax
  0000a	6a 00		 push	 0
  0000c	ff 75 0c	 push	 DWORD PTR _poArgs$[ebp]
  0000f	e8 00 00 00 00	 call	 ?PyTuple_GetInteger@@YA_NPAU_object@@HPAH@Z ; PyTuple_GetInteger
  00014	83 c4 0c	 add	 esp, 12			; 0000000cH
  00017	84 c0		 test	 al, al
  00019	75 0e		 jne	 SHORT $LN2@shopGetOff

; 636  : 		return Py_BuildException();

  0001b	6a 00		 push	 0
  0001d	e8 00 00 00 00	 call	 ?Py_BuildException@@YAPAU_object@@PBDZZ ; Py_BuildException
  00022	83 c4 04	 add	 esp, 4

; 643  : }

  00025	8b e5		 mov	 esp, ebp
  00027	5d		 pop	 ebp
  00028	c3		 ret	 0
$LN2@shopGetOff:
; File C:\Anka2Project\Anka2Project\Source\Binary\source\eterBase\Singleton.h

; 26   : 		assert(ms_singleton);

  00029	8b 0d 00 00 00
	00		 mov	 ecx, DWORD PTR ?ms_singleton@?$CSingleton@VCPythonShop@@@@0PAVCPythonShop@@A ; CSingleton<CPythonShop>::ms_singleton
  0002f	85 c9		 test	 ecx, ecx
  00031	75 1a		 jne	 SHORT $LN7@shopGetOff
  00033	6a 1a		 push	 26			; 0000001aH
  00035	68 00 00 00 00	 push	 OFFSET ??_C@_1IO@CAJLEEOI@?$AAC?$AA?3?$AA?2?$AAA?$AAn?$AAk?$AAa?$AA2?$AAP?$AAr?$AAo?$AAj?$AAe?$AAc?$AAt@
  0003a	68 00 00 00 00	 push	 OFFSET ??_C@_1BK@FMEHPMFE@?$AAm?$AAs?$AA_?$AAs?$AAi?$AAn?$AAg?$AAl?$AAe?$AAt?$AAo?$AAn@
  0003f	e8 00 00 00 00	 call	 __wassert
  00044	8b 0d 00 00 00
	00		 mov	 ecx, DWORD PTR ?ms_singleton@?$CSingleton@VCPythonShop@@@@0PAVCPythonShop@@A ; CSingleton<CPythonShop>::ms_singleton
  0004a	83 c4 0c	 add	 esp, 12			; 0000000cH
$LN7@shopGetOff:
; File C:\Anka2Project\Anka2Project\Source\Binary\source\UserInterface\PythonShop.cpp

; 639  : 	if (CPythonShop::Instance().GetOfflineShopItemData(iIndex, &c_pItemData))

  0004d	8d 45 f8	 lea	 eax, DWORD PTR _c_pItemData$[ebp]
  00050	50		 push	 eax
  00051	ff 75 fc	 push	 DWORD PTR _iIndex$[ebp]
  00054	e8 00 00 00 00	 call	 ?GetOfflineShopItemData@CPythonShop@@QAEHKPAPBUpacket_offline_shop_item@@@Z ; CPythonShop::GetOfflineShopItemData
  00059	85 c0		 test	 eax, eax
  0005b	74 16		 je	 SHORT $LN3@shopGetOff

; 640  : 		return PyLong_FromLongLong(c_pItemData->price);

  0005d	8b 45 f8	 mov	 eax, DWORD PTR _c_pItemData$[ebp]
  00060	ff 70 0c	 push	 DWORD PTR [eax+12]
  00063	ff 70 08	 push	 DWORD PTR [eax+8]
  00066	ff 15 00 00 00
	00		 call	 DWORD PTR __imp__PyLong_FromLongLong

; 643  : }

  0006c	83 c4 08	 add	 esp, 8
  0006f	8b e5		 mov	 esp, ebp
  00071	5d		 pop	 ebp
  00072	c3		 ret	 0
$LN3@shopGetOff:

; 641  : 
; 642  : 	return Py_BuildValue("i", 0);

  00073	6a 00		 push	 0
  00075	68 00 00 00 00	 push	 OFFSET ??_C@_01KBJDNOO@i@
  0007a	ff 15 00 00 00
	00		 call	 DWORD PTR __imp__Py_BuildValue

; 643  : }

  00080	83 c4 08	 add	 esp, 8
  00083	8b e5		 mov	 esp, ebp
  00085	5d		 pop	 ebp
  00086	c3		 ret	 0
?shopGetOfflineShopItemPrice@@YAPAU_object@@PAU1@0@Z ENDP ; shopGetOfflineShopItemPrice
_TEXT	ENDS
; Function compile flags: /Ogtp
; File C:\Anka2Project\Anka2Project\Source\Binary\source\UserInterface\PythonShop.cpp
; File C:\Anka2Project\Anka2Project\Source\Binary\source\eterBase\Singleton.h
; File C:\Anka2Project\Anka2Project\Source\Binary\source\UserInterface\PythonShop.cpp
;	COMDAT ?shopGetSign@@YAPAU_object@@PAU1@0@Z
_TEXT	SEGMENT
_poSelf$ = 8						; size = 4
_poArgs$ = 12						; size = 4
?shopGetSign@@YAPAU_object@@PAU1@0@Z PROC		; shopGetSign, COMDAT
; File C:\Anka2Project\Anka2Project\Source\Binary\source\eterBase\Singleton.h

; 26   : 		assert(ms_singleton);

  00000	a1 00 00 00 00	 mov	 eax, DWORD PTR ?ms_singleton@?$CSingleton@VCPythonShop@@@@0PAVCPythonShop@@A ; CSingleton<CPythonShop>::ms_singleton
  00005	85 c0		 test	 eax, eax
  00007	75 19		 jne	 SHORT $LN5@shopGetSig
  00009	6a 1a		 push	 26			; 0000001aH
  0000b	68 00 00 00 00	 push	 OFFSET ??_C@_1IO@CAJLEEOI@?$AAC?$AA?3?$AA?2?$AAA?$AAn?$AAk?$AAa?$AA2?$AAP?$AAr?$AAo?$AAj?$AAe?$AAc?$AAt@
  00010	68 00 00 00 00	 push	 OFFSET ??_C@_1BK@FMEHPMFE@?$AAm?$AAs?$AA_?$AAs?$AAi?$AAn?$AAg?$AAl?$AAe?$AAt?$AAo?$AAn@
  00015	e8 00 00 00 00	 call	 __wassert
  0001a	a1 00 00 00 00	 mov	 eax, DWORD PTR ?ms_singleton@?$CSingleton@VCPythonShop@@@@0PAVCPythonShop@@A ; CSingleton<CPythonShop>::ms_singleton
  0001f	83 c4 0c	 add	 esp, 12			; 0000000cH
$LN5@shopGetSig:
; File C:\Anka2Project\Anka2Project\Source\Binary\source\UserInterface\PythonShop.cpp

; 647  : 	return Py_BuildValue("s", CPythonShop::Instance().GetShopSign());

  00022	05 18 f5 00 00	 add	 eax, 62744		; 0000f518H
  00027	50		 push	 eax
  00028	68 00 00 00 00	 push	 OFFSET ??_C@_01LKDEMHDF@s@
  0002d	ff 15 00 00 00
	00		 call	 DWORD PTR __imp__Py_BuildValue
  00033	83 c4 08	 add	 esp, 8

; 648  : }

  00036	c3		 ret	 0
?shopGetSign@@YAPAU_object@@PAU1@0@Z ENDP		; shopGetSign
_TEXT	ENDS
; Function compile flags: /Ogtp
; File C:\Anka2Project\Anka2Project\Source\Binary\source\UserInterface\PythonShop.cpp
; File C:\Anka2Project\Anka2Project\Source\Binary\source\eterBase\Singleton.h
; File C:\Anka2Project\Anka2Project\Source\Binary\source\UserInterface\PythonShop.cpp
;	COMDAT ?shopGetOfflineShopItemMetinSocket@@YAPAU_object@@PAU1@0@Z
_TEXT	SEGMENT
_c_pItemData$ = -12					; size = 4
_iMetinSocketIndex$ = -8				; size = 4
_iIndex$ = -4						; size = 4
_poSelf$ = 8						; size = 4
_poArgs$ = 12						; size = 4
?shopGetOfflineShopItemMetinSocket@@YAPAU_object@@PAU1@0@Z PROC ; shopGetOfflineShopItemMetinSocket, COMDAT

; 651  : {

  00000	55		 push	 ebp
  00001	8b ec		 mov	 ebp, esp
  00003	83 ec 0c	 sub	 esp, 12			; 0000000cH

; 652  : 	int iIndex;
; 653  : 	if (!PyTuple_GetInteger(poArgs, 0, &iIndex))

  00006	8d 45 fc	 lea	 eax, DWORD PTR _iIndex$[ebp]
  00009	50		 push	 eax
  0000a	6a 00		 push	 0
  0000c	ff 75 0c	 push	 DWORD PTR _poArgs$[ebp]
  0000f	e8 00 00 00 00	 call	 ?PyTuple_GetInteger@@YA_NPAU_object@@HPAH@Z ; PyTuple_GetInteger
  00014	83 c4 0c	 add	 esp, 12			; 0000000cH
  00017	84 c0		 test	 al, al
  00019	75 0e		 jne	 SHORT $LN2@shopGetOff
$LN10@shopGetOff:

; 664  : }

  0001b	6a 00		 push	 0
  0001d	e8 00 00 00 00	 call	 ?Py_BuildException@@YAPAU_object@@PBDZZ ; Py_BuildException
  00022	83 c4 04	 add	 esp, 4
  00025	8b e5		 mov	 esp, ebp
  00027	5d		 pop	 ebp
  00028	c3		 ret	 0
$LN2@shopGetOff:

; 654  : 		return Py_BuildException();
; 655  : 	int iMetinSocketIndex;
; 656  : 	if (!PyTuple_GetInteger(poArgs, 1, &iMetinSocketIndex))

  00029	8d 45 f8	 lea	 eax, DWORD PTR _iMetinSocketIndex$[ebp]
  0002c	50		 push	 eax
  0002d	6a 01		 push	 1
  0002f	ff 75 0c	 push	 DWORD PTR _poArgs$[ebp]
  00032	e8 00 00 00 00	 call	 ?PyTuple_GetInteger@@YA_NPAU_object@@HPAH@Z ; PyTuple_GetInteger
  00037	83 c4 0c	 add	 esp, 12			; 0000000cH
  0003a	84 c0		 test	 al, al
  0003c	74 dd		 je	 SHORT $LN10@shopGetOff
; File C:\Anka2Project\Anka2Project\Source\Binary\source\eterBase\Singleton.h

; 26   : 		assert(ms_singleton);

  0003e	8b 0d 00 00 00
	00		 mov	 ecx, DWORD PTR ?ms_singleton@?$CSingleton@VCPythonShop@@@@0PAVCPythonShop@@A ; CSingleton<CPythonShop>::ms_singleton
  00044	85 c9		 test	 ecx, ecx
  00046	75 1a		 jne	 SHORT $LN8@shopGetOff
  00048	6a 1a		 push	 26			; 0000001aH
  0004a	68 00 00 00 00	 push	 OFFSET ??_C@_1IO@CAJLEEOI@?$AAC?$AA?3?$AA?2?$AAA?$AAn?$AAk?$AAa?$AA2?$AAP?$AAr?$AAo?$AAj?$AAe?$AAc?$AAt@
  0004f	68 00 00 00 00	 push	 OFFSET ??_C@_1BK@FMEHPMFE@?$AAm?$AAs?$AA_?$AAs?$AAi?$AAn?$AAg?$AAl?$AAe?$AAt?$AAo?$AAn@
  00054	e8 00 00 00 00	 call	 __wassert
  00059	8b 0d 00 00 00
	00		 mov	 ecx, DWORD PTR ?ms_singleton@?$CSingleton@VCPythonShop@@@@0PAVCPythonShop@@A ; CSingleton<CPythonShop>::ms_singleton
  0005f	83 c4 0c	 add	 esp, 12			; 0000000cH
$LN8@shopGetOff:
; File C:\Anka2Project\Anka2Project\Source\Binary\source\UserInterface\PythonShop.cpp

; 660  : 	if (CPythonShop::Instance().GetOfflineShopItemData(iIndex, &c_pItemData))

  00062	8d 45 f4	 lea	 eax, DWORD PTR _c_pItemData$[ebp]
  00065	50		 push	 eax
  00066	ff 75 fc	 push	 DWORD PTR _iIndex$[ebp]
  00069	e8 00 00 00 00	 call	 ?GetOfflineShopItemData@CPythonShop@@QAEHKPAPBUpacket_offline_shop_item@@@Z ; CPythonShop::GetOfflineShopItemData
  0006e	85 c0		 test	 eax, eax
  00070	74 1c		 je	 SHORT $LN4@shopGetOff

; 661  : 		return Py_BuildValue("i", c_pItemData->alSockets[iMetinSocketIndex]);

  00072	8b 4d f8	 mov	 ecx, DWORD PTR _iMetinSocketIndex$[ebp]
  00075	8b 45 f4	 mov	 eax, DWORD PTR _c_pItemData$[ebp]
  00078	ff 74 88 15	 push	 DWORD PTR [eax+ecx*4+21]

; 664  : }

  0007c	68 00 00 00 00	 push	 OFFSET ??_C@_01KBJDNOO@i@
  00081	ff 15 00 00 00
	00		 call	 DWORD PTR __imp__Py_BuildValue
  00087	83 c4 08	 add	 esp, 8
  0008a	8b e5		 mov	 esp, ebp
  0008c	5d		 pop	 ebp
  0008d	c3		 ret	 0
$LN4@shopGetOff:

; 662  : 
; 663  : 	return Py_BuildValue("i", 0);

  0008e	6a 00		 push	 0

; 664  : }

  00090	68 00 00 00 00	 push	 OFFSET ??_C@_01KBJDNOO@i@
  00095	ff 15 00 00 00
	00		 call	 DWORD PTR __imp__Py_BuildValue
  0009b	83 c4 08	 add	 esp, 8
  0009e	8b e5		 mov	 esp, ebp
  000a0	5d		 pop	 ebp
  000a1	c3		 ret	 0
?shopGetOfflineShopItemMetinSocket@@YAPAU_object@@PAU1@0@Z ENDP ; shopGetOfflineShopItemMetinSocket
_TEXT	ENDS
; Function compile flags: /Ogtp
; File C:\Anka2Project\Anka2Project\Source\Binary\source\UserInterface\PythonShop.cpp
; File C:\Anka2Project\Anka2Project\Source\Binary\source\eterBase\Singleton.h
; File C:\Anka2Project\Anka2Project\Source\Binary\source\UserInterface\PythonShop.cpp
;	COMDAT ?shopGetOfflineShopItemAttribute@@YAPAU_object@@PAU1@0@Z
_TEXT	SEGMENT
_c_pItemData$2 = -12					; size = 4
_iIndex$ = -8						; size = 4
_iAttrSlotIndex$ = -4					; size = 4
_poSelf$ = 8						; size = 4
_poArgs$ = 12						; size = 4
?shopGetOfflineShopItemAttribute@@YAPAU_object@@PAU1@0@Z PROC ; shopGetOfflineShopItemAttribute, COMDAT

; 667  : {

  00000	55		 push	 ebp
  00001	8b ec		 mov	 ebp, esp
  00003	83 ec 0c	 sub	 esp, 12			; 0000000cH

; 668  : 	int iIndex;
; 669  : 	if (!PyTuple_GetInteger(poArgs, 0, &iIndex))

  00006	8d 45 f8	 lea	 eax, DWORD PTR _iIndex$[ebp]
  00009	50		 push	 eax
  0000a	6a 00		 push	 0
  0000c	ff 75 0c	 push	 DWORD PTR _poArgs$[ebp]
  0000f	e8 00 00 00 00	 call	 ?PyTuple_GetInteger@@YA_NPAU_object@@HPAH@Z ; PyTuple_GetInteger
  00014	83 c4 0c	 add	 esp, 12			; 0000000cH
  00017	84 c0		 test	 al, al
  00019	75 0e		 jne	 SHORT $LN2@shopGetOff
$LN11@shopGetOff:

; 683  : }

  0001b	6a 00		 push	 0
  0001d	e8 00 00 00 00	 call	 ?Py_BuildException@@YAPAU_object@@PBDZZ ; Py_BuildException
  00022	83 c4 04	 add	 esp, 4
  00025	8b e5		 mov	 esp, ebp
  00027	5d		 pop	 ebp
  00028	c3		 ret	 0
$LN2@shopGetOff:

; 670  : 		return Py_BuildException();
; 671  : 	int iAttrSlotIndex;
; 672  : 	if (!PyTuple_GetInteger(poArgs, 1, &iAttrSlotIndex))

  00029	8d 45 fc	 lea	 eax, DWORD PTR _iAttrSlotIndex$[ebp]
  0002c	50		 push	 eax
  0002d	6a 01		 push	 1
  0002f	ff 75 0c	 push	 DWORD PTR _poArgs$[ebp]
  00032	e8 00 00 00 00	 call	 ?PyTuple_GetInteger@@YA_NPAU_object@@HPAH@Z ; PyTuple_GetInteger
  00037	83 c4 0c	 add	 esp, 12			; 0000000cH
  0003a	84 c0		 test	 al, al
  0003c	74 dd		 je	 SHORT $LN11@shopGetOff

; 673  : 		return Py_BuildException();
; 674  : 
; 675  : 	if (iAttrSlotIndex >= 0 && iAttrSlotIndex < ITEM_ATTRIBUTE_SLOT_MAX_NUM)

  0003e	83 7d fc 06	 cmp	 DWORD PTR _iAttrSlotIndex$[ebp], 6
  00042	77 5e		 ja	 SHORT $LN5@shopGetOff
; File C:\Anka2Project\Anka2Project\Source\Binary\source\eterBase\Singleton.h

; 26   : 		assert(ms_singleton);

  00044	8b 0d 00 00 00
	00		 mov	 ecx, DWORD PTR ?ms_singleton@?$CSingleton@VCPythonShop@@@@0PAVCPythonShop@@A ; CSingleton<CPythonShop>::ms_singleton
  0004a	85 c9		 test	 ecx, ecx
  0004c	75 1a		 jne	 SHORT $LN9@shopGetOff
  0004e	6a 1a		 push	 26			; 0000001aH
  00050	68 00 00 00 00	 push	 OFFSET ??_C@_1IO@CAJLEEOI@?$AAC?$AA?3?$AA?2?$AAA?$AAn?$AAk?$AAa?$AA2?$AAP?$AAr?$AAo?$AAj?$AAe?$AAc?$AAt@
  00055	68 00 00 00 00	 push	 OFFSET ??_C@_1BK@FMEHPMFE@?$AAm?$AAs?$AA_?$AAs?$AAi?$AAn?$AAg?$AAl?$AAe?$AAt?$AAo?$AAn@
  0005a	e8 00 00 00 00	 call	 __wassert
  0005f	8b 0d 00 00 00
	00		 mov	 ecx, DWORD PTR ?ms_singleton@?$CSingleton@VCPythonShop@@@@0PAVCPythonShop@@A ; CSingleton<CPythonShop>::ms_singleton
  00065	83 c4 0c	 add	 esp, 12			; 0000000cH
$LN9@shopGetOff:
; File C:\Anka2Project\Anka2Project\Source\Binary\source\UserInterface\PythonShop.cpp

; 678  : 		if (CPythonShop::Instance().GetOfflineShopItemData(iIndex, &c_pItemData))

  00068	8d 45 f4	 lea	 eax, DWORD PTR _c_pItemData$2[ebp]
  0006b	50		 push	 eax
  0006c	ff 75 f8	 push	 DWORD PTR _iIndex$[ebp]
  0006f	e8 00 00 00 00	 call	 ?GetOfflineShopItemData@CPythonShop@@QAEHKPAPBUpacket_offline_shop_item@@@Z ; CPythonShop::GetOfflineShopItemData
  00074	85 c0		 test	 eax, eax
  00076	74 2a		 je	 SHORT $LN5@shopGetOff

; 679  : 			return Py_BuildValue("ii", c_pItemData->aAttr[iAttrSlotIndex].bType, c_pItemData->aAttr[iAttrSlotIndex].sValue);

  00078	8b 4d fc	 mov	 ecx, DWORD PTR _iAttrSlotIndex$[ebp]
  0007b	8b 55 f4	 mov	 edx, DWORD PTR _c_pItemData$2[ebp]
  0007e	8d 04 4a	 lea	 eax, DWORD PTR [edx+ecx*2]
  00081	0f bf 44 01 22	 movsx	 eax, WORD PTR [ecx+eax+34]
  00086	50		 push	 eax
  00087	8d 04 4a	 lea	 eax, DWORD PTR [edx+ecx*2]
  0008a	0f b6 44 01 21	 movzx	 eax, BYTE PTR [ecx+eax+33]
  0008f	50		 push	 eax

; 683  : }

  00090	68 00 00 00 00	 push	 OFFSET ??_C@_02PDIHAGKM@ii@
  00095	ff 15 00 00 00
	00		 call	 DWORD PTR __imp__Py_BuildValue
  0009b	83 c4 0c	 add	 esp, 12			; 0000000cH
  0009e	8b e5		 mov	 esp, ebp
  000a0	5d		 pop	 ebp
  000a1	c3		 ret	 0
$LN5@shopGetOff:

; 680  : 	}
; 681  : 
; 682  : 	return Py_BuildValue("ii", 0, 0);

  000a2	6a 00		 push	 0
  000a4	6a 00		 push	 0

; 683  : }

  000a6	68 00 00 00 00	 push	 OFFSET ??_C@_02PDIHAGKM@ii@
  000ab	ff 15 00 00 00
	00		 call	 DWORD PTR __imp__Py_BuildValue
  000b1	83 c4 0c	 add	 esp, 12			; 0000000cH
  000b4	8b e5		 mov	 esp, ebp
  000b6	5d		 pop	 ebp
  000b7	c3		 ret	 0
?shopGetOfflineShopItemAttribute@@YAPAU_object@@PAU1@0@Z ENDP ; shopGetOfflineShopItemAttribute
_TEXT	ENDS
; Function compile flags: /Ogtp
; File C:\Anka2Project\Anka2Project\Source\Binary\source\UserInterface\PythonShop.cpp
; File C:\Anka2Project\Anka2Project\Source\Binary\source\eterBase\Singleton.h
; File C:\Anka2Project\Anka2Project\Source\Binary\source\UserInterface\PythonShop.cpp
;	COMDAT ?shopGetOfflineShopItemPriceReal@@YAPAU_object@@PAU1@0@Z
_TEXT	SEGMENT
$T4 = -12						; size = 3
_wItemSlotIndex$ = -8					; size = 2
_bItemWindowType$ = -1					; size = 1
_poSelf$ = 8						; size = 4
_poArgs$ = 12						; size = 4
?shopGetOfflineShopItemPriceReal@@YAPAU_object@@PAU1@0@Z PROC ; shopGetOfflineShopItemPriceReal, COMDAT

; 724  : {

  00000	55		 push	 ebp
  00001	8b ec		 mov	 ebp, esp
  00003	83 ec 0c	 sub	 esp, 12			; 0000000cH

; 725  : 	BYTE bItemWindowType;
; 726  : 	if (!PyTuple_GetInteger(poArgs, 0, &bItemWindowType))

  00006	8d 45 ff	 lea	 eax, DWORD PTR _bItemWindowType$[ebp]
  00009	50		 push	 eax
  0000a	6a 00		 push	 0
  0000c	ff 75 0c	 push	 DWORD PTR _poArgs$[ebp]
  0000f	e8 00 00 00 00	 call	 ?PyTuple_GetInteger@@YA_NPAU_object@@HPAE@Z ; PyTuple_GetInteger
  00014	83 c4 0c	 add	 esp, 12			; 0000000cH
  00017	84 c0		 test	 al, al
  00019	75 0e		 jne	 SHORT $LN2@shopGetOff
$LN10@shopGetOff:

; 732  : }

  0001b	6a 00		 push	 0
  0001d	e8 00 00 00 00	 call	 ?Py_BuildException@@YAPAU_object@@PBDZZ ; Py_BuildException
  00022	83 c4 04	 add	 esp, 4
  00025	8b e5		 mov	 esp, ebp
  00027	5d		 pop	 ebp
  00028	c3		 ret	 0
$LN2@shopGetOff:

; 727  : 		return Py_BuildException();
; 728  : 	WORD wItemSlotIndex;
; 729  : 	if (!PyTuple_GetInteger(poArgs, 1, &wItemSlotIndex))

  00029	8d 45 f8	 lea	 eax, DWORD PTR _wItemSlotIndex$[ebp]
  0002c	50		 push	 eax
  0002d	6a 01		 push	 1
  0002f	ff 75 0c	 push	 DWORD PTR _poArgs$[ebp]
  00032	e8 00 00 00 00	 call	 ?PyTuple_GetInteger@@YA_NPAU_object@@HPAG@Z ; PyTuple_GetInteger
  00037	83 c4 0c	 add	 esp, 12			; 0000000cH
  0003a	84 c0		 test	 al, al
  0003c	74 dd		 je	 SHORT $LN10@shopGetOff
; File C:\Anka2Project\Anka2Project\Source\Binary\source\eterBase\Singleton.h

; 26   : 		assert(ms_singleton);

  0003e	8b 0d 00 00 00
	00		 mov	 ecx, DWORD PTR ?ms_singleton@?$CSingleton@VCPythonShop@@@@0PAVCPythonShop@@A ; CSingleton<CPythonShop>::ms_singleton
  00044	85 c9		 test	 ecx, ecx
  00046	75 1a		 jne	 SHORT $LN7@shopGetOff
  00048	6a 1a		 push	 26			; 0000001aH
  0004a	68 00 00 00 00	 push	 OFFSET ??_C@_1IO@CAJLEEOI@?$AAC?$AA?3?$AA?2?$AAA?$AAn?$AAk?$AAa?$AA2?$AAP?$AAr?$AAo?$AAj?$AAe?$AAc?$AAt@
  0004f	68 00 00 00 00	 push	 OFFSET ??_C@_1BK@FMEHPMFE@?$AAm?$AAs?$AA_?$AAs?$AAi?$AAn?$AAg?$AAl?$AAe?$AAt?$AAo?$AAn@
  00054	e8 00 00 00 00	 call	 __wassert
  00059	8b 0d 00 00 00
	00		 mov	 ecx, DWORD PTR ?ms_singleton@?$CSingleton@VCPythonShop@@@@0PAVCPythonShop@@A ; CSingleton<CPythonShop>::ms_singleton
  0005f	83 c4 0c	 add	 esp, 12			; 0000000cH
$LN7@shopGetOff:
; File C:\Anka2Project\Anka2Project\Source\Binary\source\UserInterface\PythonShop.cpp

; 731  : 	return PyLong_FromLongLong(CPythonShop::Instance().GetOfflineShopItemPrice(TItemPos(bItemWindowType, wItemSlotIndex)));

  00062	8a 45 ff	 mov	 al, BYTE PTR _bItemWindowType$[ebp]
  00065	88 45 f4	 mov	 BYTE PTR $T4[ebp], al
  00068	0f b7 45 f8	 movzx	 eax, WORD PTR _wItemSlotIndex$[ebp]
  0006c	51		 push	 ecx
  0006d	8b d4		 mov	 edx, esp
  0006f	66 89 45 f5	 mov	 WORD PTR $T4[ebp+1], ax
  00073	0f b7 45 f4	 movzx	 eax, WORD PTR $T4[ebp]
  00077	66 89 02	 mov	 WORD PTR [edx], ax
  0007a	8a 45 f6	 mov	 al, BYTE PTR $T4[ebp+2]
  0007d	88 42 02	 mov	 BYTE PTR [edx+2], al
  00080	e8 00 00 00 00	 call	 ?GetOfflineShopItemPrice@CPythonShop@@QAE_JUSItemPos@@@Z ; CPythonShop::GetOfflineShopItemPrice
  00085	52		 push	 edx
  00086	50		 push	 eax
  00087	ff 15 00 00 00
	00		 call	 DWORD PTR __imp__PyLong_FromLongLong
  0008d	83 c4 08	 add	 esp, 8

; 732  : }

  00090	8b e5		 mov	 esp, ebp
  00092	5d		 pop	 ebp
  00093	c3		 ret	 0
?shopGetOfflineShopItemPriceReal@@YAPAU_object@@PAU1@0@Z ENDP ; shopGetOfflineShopItemPriceReal
_TEXT	ENDS
; Function compile flags: /Ogtp
; File C:\Anka2Project\Anka2Project\Source\Binary\source\UserInterface\PythonShop.cpp
; File C:\Anka2Project\Anka2Project\Source\Binary\source\eterBase\Singleton.h
; File C:\Anka2Project\Anka2Project\Source\Binary\source\UserInterface\PythonShop.cpp
;	COMDAT ?shopGetOfflineShopItemGetStatus@@YAPAU_object@@PAU1@0@Z
_TEXT	SEGMENT
_c_pItemData$ = -8					; size = 4
_iIndex$ = -4						; size = 4
_poSelf$ = 8						; size = 4
_poArgs$ = 12						; size = 4
?shopGetOfflineShopItemGetStatus@@YAPAU_object@@PAU1@0@Z PROC ; shopGetOfflineShopItemGetStatus, COMDAT

; 735  : {

  00000	55		 push	 ebp
  00001	8b ec		 mov	 ebp, esp
  00003	83 ec 08	 sub	 esp, 8

; 736  : 	int iIndex;
; 737  : 	if (!PyTuple_GetInteger(poArgs, 0, &iIndex))

  00006	8d 45 fc	 lea	 eax, DWORD PTR _iIndex$[ebp]
  00009	50		 push	 eax
  0000a	6a 00		 push	 0
  0000c	ff 75 0c	 push	 DWORD PTR _poArgs$[ebp]
  0000f	e8 00 00 00 00	 call	 ?PyTuple_GetInteger@@YA_NPAU_object@@HPAH@Z ; PyTuple_GetInteger
  00014	83 c4 0c	 add	 esp, 12			; 0000000cH
  00017	84 c0		 test	 al, al
  00019	75 0e		 jne	 SHORT $LN2@shopGetOff

; 738  : 		return Py_BuildException();

  0001b	6a 00		 push	 0
  0001d	e8 00 00 00 00	 call	 ?Py_BuildException@@YAPAU_object@@PBDZZ ; Py_BuildException
  00022	83 c4 04	 add	 esp, 4

; 745  : }

  00025	8b e5		 mov	 esp, ebp
  00027	5d		 pop	 ebp
  00028	c3		 ret	 0
$LN2@shopGetOff:
; File C:\Anka2Project\Anka2Project\Source\Binary\source\eterBase\Singleton.h

; 26   : 		assert(ms_singleton);

  00029	8b 0d 00 00 00
	00		 mov	 ecx, DWORD PTR ?ms_singleton@?$CSingleton@VCPythonShop@@@@0PAVCPythonShop@@A ; CSingleton<CPythonShop>::ms_singleton
  0002f	85 c9		 test	 ecx, ecx
  00031	75 1a		 jne	 SHORT $LN7@shopGetOff
  00033	6a 1a		 push	 26			; 0000001aH
  00035	68 00 00 00 00	 push	 OFFSET ??_C@_1IO@CAJLEEOI@?$AAC?$AA?3?$AA?2?$AAA?$AAn?$AAk?$AAa?$AA2?$AAP?$AAr?$AAo?$AAj?$AAe?$AAc?$AAt@
  0003a	68 00 00 00 00	 push	 OFFSET ??_C@_1BK@FMEHPMFE@?$AAm?$AAs?$AA_?$AAs?$AAi?$AAn?$AAg?$AAl?$AAe?$AAt?$AAo?$AAn@
  0003f	e8 00 00 00 00	 call	 __wassert
  00044	8b 0d 00 00 00
	00		 mov	 ecx, DWORD PTR ?ms_singleton@?$CSingleton@VCPythonShop@@@@0PAVCPythonShop@@A ; CSingleton<CPythonShop>::ms_singleton
  0004a	83 c4 0c	 add	 esp, 12			; 0000000cH
$LN7@shopGetOff:
; File C:\Anka2Project\Anka2Project\Source\Binary\source\UserInterface\PythonShop.cpp

; 741  : 	if (CPythonShop::Instance().GetOfflineShopItemData(iIndex, &c_pItemData))

  0004d	8d 45 f8	 lea	 eax, DWORD PTR _c_pItemData$[ebp]
  00050	50		 push	 eax
  00051	ff 75 fc	 push	 DWORD PTR _iIndex$[ebp]
  00054	e8 00 00 00 00	 call	 ?GetOfflineShopItemData@CPythonShop@@QAEHKPAPBUpacket_offline_shop_item@@@Z ; CPythonShop::GetOfflineShopItemData
  00059	85 c0		 test	 eax, eax
  0005b	74 1a		 je	 SHORT $LN3@shopGetOff

; 742  : 		return Py_BuildValue("i", c_pItemData->status);

  0005d	8b 45 f8	 mov	 eax, DWORD PTR _c_pItemData$[ebp]
  00060	0f b6 40 36	 movzx	 eax, BYTE PTR [eax+54]
  00064	50		 push	 eax

; 745  : }

  00065	68 00 00 00 00	 push	 OFFSET ??_C@_01KBJDNOO@i@
  0006a	ff 15 00 00 00
	00		 call	 DWORD PTR __imp__Py_BuildValue
  00070	83 c4 08	 add	 esp, 8
  00073	8b e5		 mov	 esp, ebp
  00075	5d		 pop	 ebp
  00076	c3		 ret	 0
$LN3@shopGetOff:

; 743  : 
; 744  : 	return Py_BuildValue("i", 0);

  00077	6a 00		 push	 0

; 745  : }

  00079	68 00 00 00 00	 push	 OFFSET ??_C@_01KBJDNOO@i@
  0007e	ff 15 00 00 00
	00		 call	 DWORD PTR __imp__Py_BuildValue
  00084	83 c4 08	 add	 esp, 8
  00087	8b e5		 mov	 esp, ebp
  00089	5d		 pop	 ebp
  0008a	c3		 ret	 0
?shopGetOfflineShopItemGetStatus@@YAPAU_object@@PAU1@0@Z ENDP ; shopGetOfflineShopItemGetStatus
_TEXT	ENDS
; Function compile flags: /Ogtp
; File C:\Anka2Project\Anka2Project\Source\Binary\source\UserInterface\PythonShop.cpp
; File C:\Anka2Project\Anka2Project\Source\Binary\source\eterBase\Singleton.h
; File C:\Anka2Project\Anka2Project\Source\Binary\source\UserInterface\PythonShop.cpp
;	COMDAT ?shopGetOfflineShopItemGetBuyerName@@YAPAU_object@@PAU1@0@Z
_TEXT	SEGMENT
_c_pItemData$ = -8					; size = 4
_iIndex$ = -4						; size = 4
_poSelf$ = 8						; size = 4
_poArgs$ = 12						; size = 4
?shopGetOfflineShopItemGetBuyerName@@YAPAU_object@@PAU1@0@Z PROC ; shopGetOfflineShopItemGetBuyerName, COMDAT

; 748  : {

  00000	55		 push	 ebp
  00001	8b ec		 mov	 ebp, esp
  00003	83 ec 08	 sub	 esp, 8

; 749  : 	int iIndex;
; 750  : 	if (!PyTuple_GetInteger(poArgs, 0, &iIndex))

  00006	8d 45 fc	 lea	 eax, DWORD PTR _iIndex$[ebp]
  00009	50		 push	 eax
  0000a	6a 00		 push	 0
  0000c	ff 75 0c	 push	 DWORD PTR _poArgs$[ebp]
  0000f	e8 00 00 00 00	 call	 ?PyTuple_GetInteger@@YA_NPAU_object@@HPAH@Z ; PyTuple_GetInteger
  00014	83 c4 0c	 add	 esp, 12			; 0000000cH
  00017	84 c0		 test	 al, al
  00019	75 0e		 jne	 SHORT $LN2@shopGetOff

; 751  : 		return Py_BuildException();

  0001b	6a 00		 push	 0
  0001d	e8 00 00 00 00	 call	 ?Py_BuildException@@YAPAU_object@@PBDZZ ; Py_BuildException
  00022	83 c4 04	 add	 esp, 4

; 758  : }

  00025	8b e5		 mov	 esp, ebp
  00027	5d		 pop	 ebp
  00028	c3		 ret	 0
$LN2@shopGetOff:
; File C:\Anka2Project\Anka2Project\Source\Binary\source\eterBase\Singleton.h

; 26   : 		assert(ms_singleton);

  00029	8b 0d 00 00 00
	00		 mov	 ecx, DWORD PTR ?ms_singleton@?$CSingleton@VCPythonShop@@@@0PAVCPythonShop@@A ; CSingleton<CPythonShop>::ms_singleton
  0002f	85 c9		 test	 ecx, ecx
  00031	75 1a		 jne	 SHORT $LN7@shopGetOff
  00033	6a 1a		 push	 26			; 0000001aH
  00035	68 00 00 00 00	 push	 OFFSET ??_C@_1IO@CAJLEEOI@?$AAC?$AA?3?$AA?2?$AAA?$AAn?$AAk?$AAa?$AA2?$AAP?$AAr?$AAo?$AAj?$AAe?$AAc?$AAt@
  0003a	68 00 00 00 00	 push	 OFFSET ??_C@_1BK@FMEHPMFE@?$AAm?$AAs?$AA_?$AAs?$AAi?$AAn?$AAg?$AAl?$AAe?$AAt?$AAo?$AAn@
  0003f	e8 00 00 00 00	 call	 __wassert
  00044	8b 0d 00 00 00
	00		 mov	 ecx, DWORD PTR ?ms_singleton@?$CSingleton@VCPythonShop@@@@0PAVCPythonShop@@A ; CSingleton<CPythonShop>::ms_singleton
  0004a	83 c4 0c	 add	 esp, 12			; 0000000cH
$LN7@shopGetOff:
; File C:\Anka2Project\Anka2Project\Source\Binary\source\UserInterface\PythonShop.cpp

; 754  : 	if (CPythonShop::Instance().GetOfflineShopItemData(iIndex, &c_pItemData))

  0004d	8d 45 f8	 lea	 eax, DWORD PTR _c_pItemData$[ebp]
  00050	50		 push	 eax
  00051	ff 75 fc	 push	 DWORD PTR _iIndex$[ebp]
  00054	e8 00 00 00 00	 call	 ?GetOfflineShopItemData@CPythonShop@@QAEHKPAPBUpacket_offline_shop_item@@@Z ; CPythonShop::GetOfflineShopItemData
  00059	85 c0		 test	 eax, eax
  0005b	74 19		 je	 SHORT $LN3@shopGetOff

; 755  : 		return Py_BuildValue("s", c_pItemData->szBuyerName);

  0005d	8b 45 f8	 mov	 eax, DWORD PTR _c_pItemData$[ebp]
  00060	83 c0 37	 add	 eax, 55			; 00000037H
  00063	50		 push	 eax

; 758  : }

  00064	68 00 00 00 00	 push	 OFFSET ??_C@_01LKDEMHDF@s@
  00069	ff 15 00 00 00
	00		 call	 DWORD PTR __imp__Py_BuildValue
  0006f	83 c4 08	 add	 esp, 8
  00072	8b e5		 mov	 esp, ebp
  00074	5d		 pop	 ebp
  00075	c3		 ret	 0
$LN3@shopGetOff:

; 756  : 
; 757  : 	return Py_BuildValue("s", "None");

  00076	68 00 00 00 00	 push	 OFFSET ??_C@_04OHJIHAFH@None@

; 758  : }

  0007b	68 00 00 00 00	 push	 OFFSET ??_C@_01LKDEMHDF@s@
  00080	ff 15 00 00 00
	00		 call	 DWORD PTR __imp__Py_BuildValue
  00086	83 c4 08	 add	 esp, 8
  00089	8b e5		 mov	 esp, ebp
  0008b	5d		 pop	 ebp
  0008c	c3		 ret	 0
?shopGetOfflineShopItemGetBuyerName@@YAPAU_object@@PAU1@0@Z ENDP ; shopGetOfflineShopItemGetBuyerName
_TEXT	ENDS
; Function compile flags: /Ogtp
; File C:\Anka2Project\Anka2Project\Source\Binary\source\UserInterface\PythonShop.cpp
; File C:\Anka2Project\Anka2Project\Source\Binary\source\eterBase\Singleton.h
; File C:\Anka2Project\Anka2Project\Source\Binary\source\UserInterface\PythonShop.cpp
;	COMDAT ?shopGetDisplayedCount@@YAPAU_object@@PAU1@0@Z
_TEXT	SEGMENT
_poSelf$ = 8						; size = 4
_poArgs$ = 12						; size = 4
?shopGetDisplayedCount@@YAPAU_object@@PAU1@0@Z PROC	; shopGetDisplayedCount, COMDAT
; File C:\Anka2Project\Anka2Project\Source\Binary\source\eterBase\Singleton.h

; 37   : 		assert(ms_singleton);

  00000	a1 00 00 00 00	 mov	 eax, DWORD PTR ?ms_singleton@?$CSingleton@VCPythonShop@@@@0PAVCPythonShop@@A ; CSingleton<CPythonShop>::ms_singleton
  00005	85 c0		 test	 eax, eax
  00007	75 19		 jne	 SHORT $LN5@shopGetDis
  00009	6a 25		 push	 37			; 00000025H
  0000b	68 00 00 00 00	 push	 OFFSET ??_C@_1IO@CAJLEEOI@?$AAC?$AA?3?$AA?2?$AAA?$AAn?$AAk?$AAa?$AA2?$AAP?$AAr?$AAo?$AAj?$AAe?$AAc?$AAt@
  00010	68 00 00 00 00	 push	 OFFSET ??_C@_1BK@FMEHPMFE@?$AAm?$AAs?$AA_?$AAs?$AAi?$AAn?$AAg?$AAl?$AAe?$AAt?$AAo?$AAn@
  00015	e8 00 00 00 00	 call	 __wassert
  0001a	a1 00 00 00 00	 mov	 eax, DWORD PTR ?ms_singleton@?$CSingleton@VCPythonShop@@@@0PAVCPythonShop@@A ; CSingleton<CPythonShop>::ms_singleton
  0001f	83 c4 0c	 add	 esp, 12			; 0000000cH
$LN5@shopGetDis:
; File C:\Anka2Project\Anka2Project\Source\Binary\source\UserInterface\PythonShop.cpp

; 778  : 	return Py_BuildValue("i", CPythonShop::instance().GetShopDisplayedCount());

  00022	ff 70 04	 push	 DWORD PTR [eax+4]
  00025	68 00 00 00 00	 push	 OFFSET ??_C@_01KBJDNOO@i@
  0002a	ff 15 00 00 00
	00		 call	 DWORD PTR __imp__Py_BuildValue
  00030	83 c4 08	 add	 esp, 8

; 779  : }

  00033	c3		 ret	 0
?shopGetDisplayedCount@@YAPAU_object@@PAU1@0@Z ENDP	; shopGetDisplayedCount
_TEXT	ENDS
; Function compile flags: /Ogtp
; File C:\Anka2Project\Anka2Project\Source\Binary\source\UserInterface\PythonShop.cpp
; File C:\Anka2Project\Anka2Project\Source\Binary\source\eterBase\Singleton.h
; File C:\Anka2Project\Anka2Project\Source\Binary\source\UserInterface\PythonShop.cpp
;	COMDAT ?shopGetOfflineShopID@@YAPAU_object@@PAU1@0@Z
_TEXT	SEGMENT
_c_pItemData$ = -8					; size = 4
_iIndex$ = -4						; size = 4
_poSelf$ = 8						; size = 4
_poArgs$ = 12						; size = 4
?shopGetOfflineShopID@@YAPAU_object@@PAU1@0@Z PROC	; shopGetOfflineShopID, COMDAT

; 782  : {

  00000	55		 push	 ebp
  00001	8b ec		 mov	 ebp, esp
  00003	83 ec 08	 sub	 esp, 8

; 783  : 	int iIndex;
; 784  : 	if (!PyTuple_GetInteger(poArgs, 0, &iIndex))

  00006	8d 45 fc	 lea	 eax, DWORD PTR _iIndex$[ebp]
  00009	50		 push	 eax
  0000a	6a 00		 push	 0
  0000c	ff 75 0c	 push	 DWORD PTR _poArgs$[ebp]
  0000f	e8 00 00 00 00	 call	 ?PyTuple_GetInteger@@YA_NPAU_object@@HPAH@Z ; PyTuple_GetInteger
  00014	83 c4 0c	 add	 esp, 12			; 0000000cH
  00017	84 c0		 test	 al, al
  00019	75 0e		 jne	 SHORT $LN2@shopGetOff

; 785  : 		return Py_BuildException();

  0001b	6a 00		 push	 0
  0001d	e8 00 00 00 00	 call	 ?Py_BuildException@@YAPAU_object@@PBDZZ ; Py_BuildException
  00022	83 c4 04	 add	 esp, 4

; 790  : }

  00025	8b e5		 mov	 esp, ebp
  00027	5d		 pop	 ebp
  00028	c3		 ret	 0
$LN2@shopGetOff:
; File C:\Anka2Project\Anka2Project\Source\Binary\source\eterBase\Singleton.h

; 26   : 		assert(ms_singleton);

  00029	8b 0d 00 00 00
	00		 mov	 ecx, DWORD PTR ?ms_singleton@?$CSingleton@VCPythonShop@@@@0PAVCPythonShop@@A ; CSingleton<CPythonShop>::ms_singleton
  0002f	85 c9		 test	 ecx, ecx
  00031	75 1a		 jne	 SHORT $LN7@shopGetOff
  00033	6a 1a		 push	 26			; 0000001aH
  00035	68 00 00 00 00	 push	 OFFSET ??_C@_1IO@CAJLEEOI@?$AAC?$AA?3?$AA?2?$AAA?$AAn?$AAk?$AAa?$AA2?$AAP?$AAr?$AAo?$AAj?$AAe?$AAc?$AAt@
  0003a	68 00 00 00 00	 push	 OFFSET ??_C@_1BK@FMEHPMFE@?$AAm?$AAs?$AA_?$AAs?$AAi?$AAn?$AAg?$AAl?$AAe?$AAt?$AAo?$AAn@
  0003f	e8 00 00 00 00	 call	 __wassert
  00044	8b 0d 00 00 00
	00		 mov	 ecx, DWORD PTR ?ms_singleton@?$CSingleton@VCPythonShop@@@@0PAVCPythonShop@@A ; CSingleton<CPythonShop>::ms_singleton
  0004a	83 c4 0c	 add	 esp, 12			; 0000000cH
$LN7@shopGetOff:
; File C:\Anka2Project\Anka2Project\Source\Binary\source\UserInterface\PythonShop.cpp

; 787  : 	if (CPythonShop::Instance().GetOfflineShopItemData(iIndex, &c_pItemData))

  0004d	8d 45 f8	 lea	 eax, DWORD PTR _c_pItemData$[ebp]
  00050	50		 push	 eax
  00051	ff 75 fc	 push	 DWORD PTR _iIndex$[ebp]
  00054	e8 00 00 00 00	 call	 ?GetOfflineShopItemData@CPythonShop@@QAEHKPAPBUpacket_offline_shop_item@@@Z ; CPythonShop::GetOfflineShopItemData
  00059	85 c0		 test	 eax, eax
  0005b	74 18		 je	 SHORT $LN3@shopGetOff

; 788  : 		return Py_BuildValue("i", c_pItemData->owner_id);

  0005d	8b 45 f8	 mov	 eax, DWORD PTR _c_pItemData$[ebp]
  00060	ff 70 6c	 push	 DWORD PTR [eax+108]

; 790  : }

  00063	68 00 00 00 00	 push	 OFFSET ??_C@_01KBJDNOO@i@
  00068	ff 15 00 00 00
	00		 call	 DWORD PTR __imp__Py_BuildValue
  0006e	83 c4 08	 add	 esp, 8
  00071	8b e5		 mov	 esp, ebp
  00073	5d		 pop	 ebp
  00074	c3		 ret	 0
$LN3@shopGetOff:

; 789  : 	return Py_BuildValue("i", 0);

  00075	6a 00		 push	 0

; 790  : }

  00077	68 00 00 00 00	 push	 OFFSET ??_C@_01KBJDNOO@i@
  0007c	ff 15 00 00 00
	00		 call	 DWORD PTR __imp__Py_BuildValue
  00082	83 c4 08	 add	 esp, 8
  00085	8b e5		 mov	 esp, ebp
  00087	5d		 pop	 ebp
  00088	c3		 ret	 0
?shopGetOfflineShopID@@YAPAU_object@@PAU1@0@Z ENDP	; shopGetOfflineShopID
_TEXT	ENDS
; Function compile flags: /Ogtp
; File C:\Anka2Project\Anka2Project\Source\Binary\source\UserInterface\PythonShop.cpp
; File C:\Anka2Project\Anka2Project\Source\Binary\source\eterBase\Singleton.h
; File C:\Anka2Project\Anka2Project\Source\Binary\source\UserInterface\PythonShop.cpp
;	COMDAT ?shopGetCurrentOfflineShopMoney@@YAPAU_object@@PAU1@0@Z
_TEXT	SEGMENT
_poSelf$ = 8						; size = 4
_poArgs$ = 12						; size = 4
?shopGetCurrentOfflineShopMoney@@YAPAU_object@@PAU1@0@Z PROC ; shopGetCurrentOfflineShopMoney, COMDAT
; File C:\Anka2Project\Anka2Project\Source\Binary\source\eterBase\Singleton.h

; 37   : 		assert(ms_singleton);

  00000	a1 00 00 00 00	 mov	 eax, DWORD PTR ?ms_singleton@?$CSingleton@VCPythonShop@@@@0PAVCPythonShop@@A ; CSingleton<CPythonShop>::ms_singleton
  00005	85 c0		 test	 eax, eax
  00007	75 19		 jne	 SHORT $LN5@shopGetCur
  00009	6a 25		 push	 37			; 00000025H
  0000b	68 00 00 00 00	 push	 OFFSET ??_C@_1IO@CAJLEEOI@?$AAC?$AA?3?$AA?2?$AAA?$AAn?$AAk?$AAa?$AA2?$AAP?$AAr?$AAo?$AAj?$AAe?$AAc?$AAt@
  00010	68 00 00 00 00	 push	 OFFSET ??_C@_1BK@FMEHPMFE@?$AAm?$AAs?$AA_?$AAs?$AAi?$AAn?$AAg?$AAl?$AAe?$AAt?$AAo?$AAn@
  00015	e8 00 00 00 00	 call	 __wassert
  0001a	a1 00 00 00 00	 mov	 eax, DWORD PTR ?ms_singleton@?$CSingleton@VCPythonShop@@@@0PAVCPythonShop@@A ; CSingleton<CPythonShop>::ms_singleton
  0001f	83 c4 0c	 add	 esp, 12			; 0000000cH
$LN5@shopGetCur:
; File C:\Anka2Project\Anka2Project\Source\Binary\source\UserInterface\PythonShop.cpp

; 794  : 	return	PyLong_FromLongLong(CPythonShop::instance().GetCurrentOfflineShopMoney());

  00022	ff b0 4c f5 00
	00		 push	 DWORD PTR [eax+62796]
  00028	ff b0 48 f5 00
	00		 push	 DWORD PTR [eax+62792]
  0002e	ff 15 00 00 00
	00		 call	 DWORD PTR __imp__PyLong_FromLongLong
  00034	83 c4 08	 add	 esp, 8

; 795  : }

  00037	c3		 ret	 0
?shopGetCurrentOfflineShopMoney@@YAPAU_object@@PAU1@0@Z ENDP ; shopGetCurrentOfflineShopMoney
_TEXT	ENDS
; Function compile flags: /Ogtp
; File C:\Anka2Project\Anka2Project\Source\Binary\source\UserInterface\PythonShop.cpp
; File C:\Anka2Project\Anka2Project\Source\Binary\source\eterBase\Singleton.h
; File C:\Anka2Project\Anka2Project\Source\Binary\source\UserInterface\PythonShop.cpp
;	COMDAT ?shopHasOfflineShop@@YAPAU_object@@PAU1@0@Z
_TEXT	SEGMENT
_poSelf$ = 8						; size = 4
_poArgs$ = 12						; size = 4
?shopHasOfflineShop@@YAPAU_object@@PAU1@0@Z PROC	; shopHasOfflineShop, COMDAT
; File C:\Anka2Project\Anka2Project\Source\Binary\source\eterBase\Singleton.h

; 37   : 		assert(ms_singleton);

  00000	a1 00 00 00 00	 mov	 eax, DWORD PTR ?ms_singleton@?$CSingleton@VCPythonShop@@@@0PAVCPythonShop@@A ; CSingleton<CPythonShop>::ms_singleton
  00005	85 c0		 test	 eax, eax
  00007	75 19		 jne	 SHORT $LN5@shopHasOff
  00009	6a 25		 push	 37			; 00000025H
  0000b	68 00 00 00 00	 push	 OFFSET ??_C@_1IO@CAJLEEOI@?$AAC?$AA?3?$AA?2?$AAA?$AAn?$AAk?$AAa?$AA2?$AAP?$AAr?$AAo?$AAj?$AAe?$AAc?$AAt@
  00010	68 00 00 00 00	 push	 OFFSET ??_C@_1BK@FMEHPMFE@?$AAm?$AAs?$AA_?$AAs?$AAi?$AAn?$AAg?$AAl?$AAe?$AAt?$AAo?$AAn@
  00015	e8 00 00 00 00	 call	 __wassert
  0001a	a1 00 00 00 00	 mov	 eax, DWORD PTR ?ms_singleton@?$CSingleton@VCPythonShop@@@@0PAVCPythonShop@@A ; CSingleton<CPythonShop>::ms_singleton
  0001f	83 c4 0c	 add	 esp, 12			; 0000000cH
$LN5@shopHasOff:
; File C:\Anka2Project\Anka2Project\Source\Binary\source\UserInterface\PythonShop.cpp

; 799  : 	return Py_BuildValue("i", CPythonShop::instance().HasOfflineShop());

  00022	0f b6 80 46 f5
	00 00		 movzx	 eax, BYTE PTR [eax+62790]
  00029	50		 push	 eax
  0002a	68 00 00 00 00	 push	 OFFSET ??_C@_01KBJDNOO@i@
  0002f	ff 15 00 00 00
	00		 call	 DWORD PTR __imp__Py_BuildValue
  00035	83 c4 08	 add	 esp, 8

; 800  : }

  00038	c3		 ret	 0
?shopHasOfflineShop@@YAPAU_object@@PAU1@0@Z ENDP	; shopHasOfflineShop
_TEXT	ENDS
; Function compile flags: /Ogtp
; File C:\Anka2Project\Anka2Project\Source\Binary\source\UserInterface\PythonShop.cpp
; File C:\Anka2Project\Anka2Project\Source\Binary\source\eterBase\Singleton.h
; File C:\Anka2Project\Anka2Project\Source\Binary\source\UserInterface\PythonShop.cpp
;	COMDAT ?shopGetRealWatcherCount@@YAPAU_object@@PAU1@0@Z
_TEXT	SEGMENT
_poSelf$ = 8						; size = 4
_poArgs$ = 12						; size = 4
?shopGetRealWatcherCount@@YAPAU_object@@PAU1@0@Z PROC	; shopGetRealWatcherCount, COMDAT
; File C:\Anka2Project\Anka2Project\Source\Binary\source\eterBase\Singleton.h

; 37   : 		assert(ms_singleton);

  00000	a1 00 00 00 00	 mov	 eax, DWORD PTR ?ms_singleton@?$CSingleton@VCPythonShop@@@@0PAVCPythonShop@@A ; CSingleton<CPythonShop>::ms_singleton
  00005	85 c0		 test	 eax, eax
  00007	75 19		 jne	 SHORT $LN5@shopGetRea
  00009	6a 25		 push	 37			; 00000025H
  0000b	68 00 00 00 00	 push	 OFFSET ??_C@_1IO@CAJLEEOI@?$AAC?$AA?3?$AA?2?$AAA?$AAn?$AAk?$AAa?$AA2?$AAP?$AAr?$AAo?$AAj?$AAe?$AAc?$AAt@
  00010	68 00 00 00 00	 push	 OFFSET ??_C@_1BK@FMEHPMFE@?$AAm?$AAs?$AA_?$AAs?$AAi?$AAn?$AAg?$AAl?$AAe?$AAt?$AAo?$AAn@
  00015	e8 00 00 00 00	 call	 __wassert
  0001a	a1 00 00 00 00	 mov	 eax, DWORD PTR ?ms_singleton@?$CSingleton@VCPythonShop@@@@0PAVCPythonShop@@A ; CSingleton<CPythonShop>::ms_singleton
  0001f	83 c4 0c	 add	 esp, 12			; 0000000cH
$LN5@shopGetRea:
; File C:\Anka2Project\Anka2Project\Source\Binary\source\UserInterface\PythonShop.cpp

; 819  : 	return Py_BuildValue("i", CPythonShop::instance().GetRealWatcherCount());

  00022	ff 70 08	 push	 DWORD PTR [eax+8]
  00025	68 00 00 00 00	 push	 OFFSET ??_C@_01KBJDNOO@i@
  0002a	ff 15 00 00 00
	00		 call	 DWORD PTR __imp__Py_BuildValue
  00030	83 c4 08	 add	 esp, 8

; 820  : }

  00033	c3		 ret	 0
?shopGetRealWatcherCount@@YAPAU_object@@PAU1@0@Z ENDP	; shopGetRealWatcherCount
_TEXT	ENDS
; Function compile flags: /Ogtp
; File C:\Anka2Project\Anka2Project\Source\Binary\source\UserInterface\PythonShop.cpp
; File C:\Anka2Project\Anka2Project\Source\Binary\source\eterBase\Singleton.h
; File C:\Anka2Project\Anka2Project\Source\Binary\source\UserInterface\PythonShop.cpp
;	COMDAT ?shopGetShopFlag@@YAPAU_object@@PAU1@0@Z
_TEXT	SEGMENT
_poSelf$ = 8						; size = 4
_poArgs$ = 12						; size = 4
?shopGetShopFlag@@YAPAU_object@@PAU1@0@Z PROC		; shopGetShopFlag, COMDAT
; File C:\Anka2Project\Anka2Project\Source\Binary\source\eterBase\Singleton.h

; 37   : 		assert(ms_singleton);

  00000	a1 00 00 00 00	 mov	 eax, DWORD PTR ?ms_singleton@?$CSingleton@VCPythonShop@@@@0PAVCPythonShop@@A ; CSingleton<CPythonShop>::ms_singleton
  00005	85 c0		 test	 eax, eax
  00007	75 19		 jne	 SHORT $LN5@shopGetSho
  00009	6a 25		 push	 37			; 00000025H
  0000b	68 00 00 00 00	 push	 OFFSET ??_C@_1IO@CAJLEEOI@?$AAC?$AA?3?$AA?2?$AAA?$AAn?$AAk?$AAa?$AA2?$AAP?$AAr?$AAo?$AAj?$AAe?$AAc?$AAt@
  00010	68 00 00 00 00	 push	 OFFSET ??_C@_1BK@FMEHPMFE@?$AAm?$AAs?$AA_?$AAs?$AAi?$AAn?$AAg?$AAl?$AAe?$AAt?$AAo?$AAn@
  00015	e8 00 00 00 00	 call	 __wassert
  0001a	a1 00 00 00 00	 mov	 eax, DWORD PTR ?ms_singleton@?$CSingleton@VCPythonShop@@@@0PAVCPythonShop@@A ; CSingleton<CPythonShop>::ms_singleton
  0001f	83 c4 0c	 add	 esp, 12			; 0000000cH
$LN5@shopGetSho:
; File C:\Anka2Project\Anka2Project\Source\Binary\source\UserInterface\PythonShop.cpp

; 824  : 	return PyLong_FromLongLong(CPythonShop::instance().GetShopFlag());

  00022	ff b0 54 f5 00
	00		 push	 DWORD PTR [eax+62804]
  00028	ff b0 50 f5 00
	00		 push	 DWORD PTR [eax+62800]
  0002e	ff 15 00 00 00
	00		 call	 DWORD PTR __imp__PyLong_FromLongLong
  00034	83 c4 08	 add	 esp, 8

; 825  : }

  00037	c3		 ret	 0
?shopGetShopFlag@@YAPAU_object@@PAU1@0@Z ENDP		; shopGetShopFlag
_TEXT	ENDS
; Function compile flags: /Ogtp
; File C:\Anka2Project\Anka2Project\Source\Binary\source\UserInterface\PythonShop.cpp
; File C:\Anka2Project\Anka2Project\Source\Binary\source\eterBase\Singleton.h
; File C:\Anka2Project\Anka2Project\Source\Binary\source\UserInterface\PythonShop.cpp
;	COMDAT ?shopGetShopType@@YAPAU_object@@PAU1@0@Z
_TEXT	SEGMENT
_poSelf$ = 8						; size = 4
_poArgs$ = 12						; size = 4
?shopGetShopType@@YAPAU_object@@PAU1@0@Z PROC		; shopGetShopType, COMDAT
; File C:\Anka2Project\Anka2Project\Source\Binary\source\eterBase\Singleton.h

; 37   : 		assert(ms_singleton);

  00000	a1 00 00 00 00	 mov	 eax, DWORD PTR ?ms_singleton@?$CSingleton@VCPythonShop@@@@0PAVCPythonShop@@A ; CSingleton<CPythonShop>::ms_singleton
  00005	85 c0		 test	 eax, eax
  00007	75 19		 jne	 SHORT $LN5@shopGetSho
  00009	6a 25		 push	 37			; 00000025H
  0000b	68 00 00 00 00	 push	 OFFSET ??_C@_1IO@CAJLEEOI@?$AAC?$AA?3?$AA?2?$AAA?$AAn?$AAk?$AAa?$AA2?$AAP?$AAr?$AAo?$AAj?$AAe?$AAc?$AAt@
  00010	68 00 00 00 00	 push	 OFFSET ??_C@_1BK@FMEHPMFE@?$AAm?$AAs?$AA_?$AAs?$AAi?$AAn?$AAg?$AAl?$AAe?$AAt?$AAo?$AAn@
  00015	e8 00 00 00 00	 call	 __wassert
  0001a	a1 00 00 00 00	 mov	 eax, DWORD PTR ?ms_singleton@?$CSingleton@VCPythonShop@@@@0PAVCPythonShop@@A ; CSingleton<CPythonShop>::ms_singleton
  0001f	83 c4 0c	 add	 esp, 12			; 0000000cH
$LN5@shopGetSho:
; File C:\Anka2Project\Anka2Project\Source\Binary\source\UserInterface\PythonShop.cpp

; 838  : 	return Py_BuildValue("i", CPythonShop::instance().GetShopType());

  00022	ff b0 5c f5 00
	00		 push	 DWORD PTR [eax+62812]
  00028	68 00 00 00 00	 push	 OFFSET ??_C@_01KBJDNOO@i@
  0002d	ff 15 00 00 00
	00		 call	 DWORD PTR __imp__Py_BuildValue
  00033	83 c4 08	 add	 esp, 8

; 839  : }

  00036	c3		 ret	 0
?shopGetShopType@@YAPAU_object@@PAU1@0@Z ENDP		; shopGetShopType
_TEXT	ENDS
; Function compile flags: /Ogtp
; File C:\Anka2Project\Anka2Project\Source\Binary\source\UserInterface\PythonShop.cpp
; File C:\Anka2Project\Anka2Project\Source\Binary\source\eterBase\Singleton.h
; File C:\Anka2Project\Anka2Project\Source\Binary\source\UserInterface\PythonShop.cpp
;	COMDAT ?shopGetShopTime@@YAPAU_object@@PAU1@0@Z
_TEXT	SEGMENT
_poSelf$ = 8						; size = 4
_poArgs$ = 12						; size = 4
?shopGetShopTime@@YAPAU_object@@PAU1@0@Z PROC		; shopGetShopTime, COMDAT
; File C:\Anka2Project\Anka2Project\Source\Binary\source\eterBase\Singleton.h

; 37   : 		assert(ms_singleton);

  00000	a1 00 00 00 00	 mov	 eax, DWORD PTR ?ms_singleton@?$CSingleton@VCPythonShop@@@@0PAVCPythonShop@@A ; CSingleton<CPythonShop>::ms_singleton
  00005	85 c0		 test	 eax, eax
  00007	75 19		 jne	 SHORT $LN5@shopGetSho
  00009	6a 25		 push	 37			; 00000025H
  0000b	68 00 00 00 00	 push	 OFFSET ??_C@_1IO@CAJLEEOI@?$AAC?$AA?3?$AA?2?$AAA?$AAn?$AAk?$AAa?$AA2?$AAP?$AAr?$AAo?$AAj?$AAe?$AAc?$AAt@
  00010	68 00 00 00 00	 push	 OFFSET ??_C@_1BK@FMEHPMFE@?$AAm?$AAs?$AA_?$AAs?$AAi?$AAn?$AAg?$AAl?$AAe?$AAt?$AAo?$AAn@
  00015	e8 00 00 00 00	 call	 __wassert
  0001a	a1 00 00 00 00	 mov	 eax, DWORD PTR ?ms_singleton@?$CSingleton@VCPythonShop@@@@0PAVCPythonShop@@A ; CSingleton<CPythonShop>::ms_singleton
  0001f	83 c4 0c	 add	 esp, 12			; 0000000cH
$LN5@shopGetSho:
; File C:\Anka2Project\Anka2Project\Source\Binary\source\UserInterface\PythonShop.cpp

; 852  : 	return Py_BuildValue("i", CPythonShop::instance().GetShopTime());

  00022	ff b0 58 f5 00
	00		 push	 DWORD PTR [eax+62808]
  00028	68 00 00 00 00	 push	 OFFSET ??_C@_01KBJDNOO@i@
  0002d	ff 15 00 00 00
	00		 call	 DWORD PTR __imp__Py_BuildValue
  00033	83 c4 08	 add	 esp, 8

; 853  : }

  00036	c3		 ret	 0
?shopGetShopTime@@YAPAU_object@@PAU1@0@Z ENDP		; shopGetShopTime
_TEXT	ENDS
; Function compile flags: /Ogtp
; File C:\Anka2Project\Anka2Project\Source\Binary\source\UserInterface\PythonShop.cpp
; File C:\Anka2Project\Anka2Project\Source\Binary\source\eterBase\Singleton.h
; File C:\Anka2Project\Anka2Project\Source\Binary\source\UserInterface\PythonShop.cpp
;	COMDAT ?shopGetItemChangeLookVnum@@YAPAU_object@@PAU1@0@Z
_TEXT	SEGMENT
_c_pItemData$ = -8					; size = 4
_iIndex$ = -4						; size = 4
_poSelf$ = 8						; size = 4
_poArgs$ = 12						; size = 4
?shopGetItemChangeLookVnum@@YAPAU_object@@PAU1@0@Z PROC	; shopGetItemChangeLookVnum, COMDAT

; 867  : {

  00000	55		 push	 ebp
  00001	8b ec		 mov	 ebp, esp
  00003	83 ec 08	 sub	 esp, 8

; 868  : 	int iIndex;
; 869  : 	if (!PyTuple_GetInteger(poArgs, 0, &iIndex))

  00006	8d 45 fc	 lea	 eax, DWORD PTR _iIndex$[ebp]
  00009	50		 push	 eax
  0000a	6a 00		 push	 0
  0000c	ff 75 0c	 push	 DWORD PTR _poArgs$[ebp]
  0000f	e8 00 00 00 00	 call	 ?PyTuple_GetInteger@@YA_NPAU_object@@HPAH@Z ; PyTuple_GetInteger
  00014	83 c4 0c	 add	 esp, 12			; 0000000cH
  00017	84 c0		 test	 al, al
  00019	75 0e		 jne	 SHORT $LN2@shopGetIte

; 870  : 		return Py_BuildException();

  0001b	6a 00		 push	 0
  0001d	e8 00 00 00 00	 call	 ?Py_BuildException@@YAPAU_object@@PBDZZ ; Py_BuildException
  00022	83 c4 04	 add	 esp, 4

; 877  : }

  00025	8b e5		 mov	 esp, ebp
  00027	5d		 pop	 ebp
  00028	c3		 ret	 0
$LN2@shopGetIte:
; File C:\Anka2Project\Anka2Project\Source\Binary\source\eterBase\Singleton.h

; 26   : 		assert(ms_singleton);

  00029	8b 0d 00 00 00
	00		 mov	 ecx, DWORD PTR ?ms_singleton@?$CSingleton@VCPythonShop@@@@0PAVCPythonShop@@A ; CSingleton<CPythonShop>::ms_singleton
  0002f	85 c9		 test	 ecx, ecx
  00031	75 1a		 jne	 SHORT $LN7@shopGetIte
  00033	6a 1a		 push	 26			; 0000001aH
  00035	68 00 00 00 00	 push	 OFFSET ??_C@_1IO@CAJLEEOI@?$AAC?$AA?3?$AA?2?$AAA?$AAn?$AAk?$AAa?$AA2?$AAP?$AAr?$AAo?$AAj?$AAe?$AAc?$AAt@
  0003a	68 00 00 00 00	 push	 OFFSET ??_C@_1BK@FMEHPMFE@?$AAm?$AAs?$AA_?$AAs?$AAi?$AAn?$AAg?$AAl?$AAe?$AAt?$AAo?$AAn@
  0003f	e8 00 00 00 00	 call	 __wassert
  00044	8b 0d 00 00 00
	00		 mov	 ecx, DWORD PTR ?ms_singleton@?$CSingleton@VCPythonShop@@@@0PAVCPythonShop@@A ; CSingleton<CPythonShop>::ms_singleton
  0004a	83 c4 0c	 add	 esp, 12			; 0000000cH
$LN7@shopGetIte:
; File C:\Anka2Project\Anka2Project\Source\Binary\source\UserInterface\PythonShop.cpp

; 873  : 	if (CPythonShop::Instance().GetItemData(iIndex, &c_pItemData))

  0004d	8d 45 f8	 lea	 eax, DWORD PTR _c_pItemData$[ebp]
  00050	50		 push	 eax
  00051	ff 75 fc	 push	 DWORD PTR _iIndex$[ebp]
  00054	e8 00 00 00 00	 call	 ?GetItemData@CPythonShop@@QAEHKPAPBUpacket_shop_item@@@Z ; CPythonShop::GetItemData
  00059	85 c0		 test	 eax, eax
  0005b	74 18		 je	 SHORT $LN3@shopGetIte

; 874  : 		return Py_BuildValue("i", c_pItemData->dwTransmutationVnum);

  0005d	8b 45 f8	 mov	 eax, DWORD PTR _c_pItemData$[ebp]
  00060	ff 70 35	 push	 DWORD PTR [eax+53]

; 877  : }

  00063	68 00 00 00 00	 push	 OFFSET ??_C@_01KBJDNOO@i@
  00068	ff 15 00 00 00
	00		 call	 DWORD PTR __imp__Py_BuildValue
  0006e	83 c4 08	 add	 esp, 8
  00071	8b e5		 mov	 esp, ebp
  00073	5d		 pop	 ebp
  00074	c3		 ret	 0
$LN3@shopGetIte:

; 875  : 
; 876  : 	return Py_BuildValue("i", 0);

  00075	6a 00		 push	 0

; 877  : }

  00077	68 00 00 00 00	 push	 OFFSET ??_C@_01KBJDNOO@i@
  0007c	ff 15 00 00 00
	00		 call	 DWORD PTR __imp__Py_BuildValue
  00082	83 c4 08	 add	 esp, 8
  00085	8b e5		 mov	 esp, ebp
  00087	5d		 pop	 ebp
  00088	c3		 ret	 0
?shopGetItemChangeLookVnum@@YAPAU_object@@PAU1@0@Z ENDP	; shopGetItemChangeLookVnum
_TEXT	ENDS
; Function compile flags: /Ogtp
; File C:\Anka2Project\Anka2Project\Source\Binary\source\UserInterface\PythonShop.cpp
;	COMDAT ?initshop@@YAXXZ
_TEXT	SEGMENT
?initshop@@YAXXZ PROC					; initshop, COMDAT

; 881  : {

  00000	56		 push	 esi
  00001	57		 push	 edi

; 882  : 	static PyMethodDef s_methods[] =
; 883  : 	{
; 884  : 		{ "Open", shopOpen, METH_VARARGS },
; 885  : 		{ "Close", shopClose, METH_VARARGS },
; 886  : 		{ "Clear", shopClear, METH_VARARGS },
; 887  : 		{ "IsOpen", shopIsOpen, METH_VARARGS },
; 888  : 		{ "IsPrivateShop", shopIsPrviateShop, METH_VARARGS },
; 889  : 		{ "IsMainPlayerPrivateShop", shopIsMainPlayerPrivateShop, METH_VARARGS },
; 890  : 		{ "GetItemID", shopGetItemID, METH_VARARGS },
; 891  : 		{ "GetItemCount", shopGetItemCount, METH_VARARGS },
; 892  : 		{ "GetItemPrice", shopGetItemPrice, METH_VARARGS },
; 893  : 		{ "GetItemMetinSocket", shopGetItemMetinSocket, METH_VARARGS },
; 894  : 		{ "GetItemAttribute", shopGetItemAttribute, METH_VARARGS },
; 895  : 		{ "GetTabCount", shopGetTabCount, METH_VARARGS },
; 896  : 		{ "GetTabName", shopGetTabName, METH_VARARGS },
; 897  : 		{ "GetTabCoinType", shopGetTabCoinType, METH_VARARGS },
; 898  : #ifdef ENABLE_RENEWAL_SHOPEX
; 899  : 		{ "GetItemPriceType", shopGetItemPriceType, METH_VARARGS },
; 900  : 		{ "GetItemPriceVnum", shopGetItemPriceVnum, METH_VARARGS },
; 901  : #endif
; 902  : 
; 903  : 		{ "ClearPrivateShopStock", shopClearPrivateShopStock, METH_VARARGS },
; 904  : 		{ "AddPrivateShopItemStock", shopAddPrivateShopItemStock, METH_VARARGS },
; 905  : 		{ "DelPrivateShopItemStock", shopDelPrivateShopItemStock, METH_VARARGS },
; 906  : 		{ "GetPrivateShopItemPrice", shopGetPrivateShopItemPrice, METH_VARARGS },
; 907  : 		{ "BuildPrivateShop", shopBuildPrivateShop, METH_VARARGS },
; 908  : 
; 909  : #ifdef ENABLE_RENEWAL_OFFLINESHOP
; 910  : #ifdef ENABLE_CHANGE_LOOK_SYSTEM
; 911  : 		{ "GetOfflineShopItemTransmutation", shopGetOfflineShopItemTransmutation,	METH_VARARGS },
; 912  : #endif
; 913  : 		{ "IsOfflineShop", shopIsOfflineShop, METH_VARARGS },
; 914  : 		{ "GetOfflineShopItemID", shopGetOfflineShopItemID, METH_VARARGS },
; 915  : 		{ "GetOfflineShopItemCount", shopGetOfflineShopItemCount, METH_VARARGS },
; 916  : 		{ "GetOfflineShopItemVnum", shopGetOfflineShopItemVnum, METH_VARARGS },
; 917  : 		{ "GetOfflineShopItemPrice", shopGetOfflineShopItemPrice, METH_VARARGS },
; 918  : 		{ "GetOfflineShopItemMetinSocket", shopGetOfflineShopItemMetinSocket, METH_VARARGS },
; 919  : 		{ "GetOfflineShopItemAttribute", shopGetOfflineShopItemAttribute, METH_VARARGS },
; 920  : 		{ "GetSign", shopGetSign, METH_VARARGS },
; 921  : 		{ "ClearOfflineShopStock", shopClearOfflineShopStock, METH_VARARGS },
; 922  : 		{ "AddOfflineShopItemStock", shopAddOfflineShopItemStock, METH_VARARGS },
; 923  : 		{ "DelOfflineShopItemStock", shopDelOfflineShopItemStock, METH_VARARGS },
; 924  : 		{ "GetOfflineShopItemPriceReal", shopGetOfflineShopItemPriceReal, METH_VARARGS },
; 925  : 		{ "GetOfflineShopItemStatus", shopGetOfflineShopItemGetStatus, METH_VARARGS },
; 926  : 		{ "GetOfflineShopItemBuyerName", shopGetOfflineShopItemGetBuyerName, METH_VARARGS },
; 927  : 		{ "BuildOfflineShop", shopBuildOfflineShop, METH_VARARGS },
; 928  : 		{ "GetDisplayedCount", shopGetDisplayedCount, METH_VARARGS },
; 929  : 		{ "GetOfflineShopID", shopGetOfflineShopID, METH_VARARGS },
; 930  : 		{ "GetCurrentOfflineShopMoney", shopGetCurrentOfflineShopMoney, METH_VARARGS },
; 931  : 		{ "HasOfflineShop", shopHasOfflineShop, METH_VARARGS },
; 932  : 		{ "GetRealWatcherCount", shopGetRealWatcherCount, METH_VARARGS },
; 933  : 		{ "ChangeDecoration", shopChangeDecoration, METH_VARARGS },
; 934  : 		{ "GetShopFlag", shopGetShopFlag, METH_VARARGS },
; 935  : 		{ "SetShopFlag", shopSetShopFlag, METH_VARARGS },
; 936  : 		{ "GetShopType", shopGetShopType, METH_VARARGS },
; 937  : 		{ "SetShopType", shopSetShopType, METH_VARARGS },
; 938  : 		{ "GetShopTime", shopGetShopTime, METH_VARARGS },
; 939  : 		{ "SetShopTime", shopSetShopTime, METH_VARARGS },
; 940  : #endif
; 941  : 
; 942  : #ifdef ENABLE_CHANGE_LOOK_SYSTEM
; 943  : 		{ "GetItemChangeLookVnum", shopGetItemChangeLookVnum, METH_VARARGS },
; 944  : #endif
; 945  : 
; 946  : 		{ nullptr, nullptr },
; 947  : 	};
; 948  : 	PyObject *poModule = Py_InitModule("shop", s_methods);

  00002	68 f5 03 00 00	 push	 1013			; 000003f5H
  00007	6a 00		 push	 0
  00009	6a 00		 push	 0
  0000b	68 00 00 00 00	 push	 OFFSET ?s_methods@?1??initshop@@YAXXZ@4PAUPyMethodDef@@A
  00010	68 00 00 00 00	 push	 OFFSET ??_C@_04BFIJLIPK@shop@
  00015	ff 15 00 00 00
	00		 call	 DWORD PTR __imp__Py_InitModule4

; 949  : 
; 950  : 	PyModule_AddIntConstant(poModule, "SHOP_SLOT_COUNT", SHOP_HOST_ITEM_MAX_NUM);

  0001b	8b 35 00 00 00
	00		 mov	 esi, DWORD PTR __imp__PyModule_AddIntConstant
  00021	8b f8		 mov	 edi, eax
  00023	6a 28		 push	 40			; 00000028H
  00025	68 00 00 00 00	 push	 OFFSET ??_C@_0BA@MMIAEKCC@SHOP_SLOT_COUNT@
  0002a	57		 push	 edi
  0002b	ff d6		 call	 esi

; 951  : 	PyModule_AddIntConstant(poModule, "SHOP_COIN_TYPE_GOLD", SHOP_COIN_TYPE_GOLD);

  0002d	6a 00		 push	 0
  0002f	68 00 00 00 00	 push	 OFFSET ??_C@_0BE@FOBHCAAH@SHOP_COIN_TYPE_GOLD@
  00034	57		 push	 edi
  00035	ff d6		 call	 esi

; 952  : 	PyModule_AddIntConstant(poModule, "SHOP_COIN_TYPE_SECONDARY_COIN", SHOP_COIN_TYPE_SECONDARY_COIN);

  00037	6a 01		 push	 1
  00039	68 00 00 00 00	 push	 OFFSET ??_C@_0BO@GEPHLMDC@SHOP_COIN_TYPE_SECONDARY_COIN@
  0003e	57		 push	 edi
  0003f	ff d6		 call	 esi

; 953  : #ifdef ENABLE_RENEWAL_SHOPEX
; 954  : 	PyModule_AddIntConstant(poModule, "SHOPEX_GOLD", SHOPEX_GOLD);

  00041	6a 01		 push	 1
  00043	68 00 00 00 00	 push	 OFFSET ??_C@_0M@PGAJLHHB@SHOPEX_GOLD@
  00048	57		 push	 edi
  00049	ff d6		 call	 esi
  0004b	83 c4 44	 add	 esp, 68			; 00000044H

; 955  : 	PyModule_AddIntConstant(poModule, "SHOPEX_COINS", SHOPEX_COINS);

  0004e	6a 02		 push	 2
  00050	68 00 00 00 00	 push	 OFFSET ??_C@_0N@BHLKHBHI@SHOPEX_COINS@
  00055	57		 push	 edi
  00056	ff d6		 call	 esi

; 956  : 	PyModule_AddIntConstant(poModule, "SHOPEX_ITEM", SHOPEX_ITEM);

  00058	6a 03		 push	 3
  0005a	68 00 00 00 00	 push	 OFFSET ??_C@_0M@BADCFJEI@SHOPEX_ITEM@
  0005f	57		 push	 edi
  00060	ff d6		 call	 esi

; 957  : 	PyModule_AddIntConstant(poModule, "SHOPEX_EXP", SHOPEX_EXP);

  00062	6a 04		 push	 4
  00064	68 00 00 00 00	 push	 OFFSET ??_C@_0L@JEDHIPHP@SHOPEX_EXP@
  00069	57		 push	 edi
  0006a	ff d6		 call	 esi

; 958  : 	PyModule_AddIntConstant(poModule, "SHOPEX_MAX", SHOPEX_MAX);

  0006c	6a 05		 push	 5
  0006e	68 00 00 00 00	 push	 OFFSET ??_C@_0L@IKKNLFGH@SHOPEX_MAX@
  00073	57		 push	 edi
  00074	ff d6		 call	 esi

; 959  : #endif
; 960  : #ifdef ENABLE_RENEWAL_OFFLINESHOP
; 961  : 	PyModule_AddIntConstant(poModule, "OFFLINE_SHOP_SLOT_COUNT", OFFLINE_SHOP_HOST_ITEM_MAX_NUM);

  00076	6a 50		 push	 80			; 00000050H
  00078	68 00 00 00 00	 push	 OFFSET ??_C@_0BI@BDLFABJN@OFFLINE_SHOP_SLOT_COUNT@
  0007d	57		 push	 edi
  0007e	ff d6		 call	 esi
  00080	83 c4 3c	 add	 esp, 60			; 0000003cH
  00083	5f		 pop	 edi
  00084	5e		 pop	 esi

; 962  : #endif
; 963  : }

  00085	c3		 ret	 0
?initshop@@YAXXZ ENDP					; initshop
_TEXT	ENDS
END
