; Listing generated by Microsoft (R) Optimizing Compiler Version 19.44.35219.0 

	TITLE	c:\anka2project\anka2project\source\binary\vs_files\userinterface\release\pythonnetworkstreamphaseloading.obj
	.686P
	.XMM
	include listing.inc
	.model	flat

INCLUDELIB OLDNAMES

PUBLIC	??_C@_0FB@EBHCNDED@CPythonNetworkStream?3?3LoadLocal@ ; `string'
PUBLIC	??_C@_0FF@CDAAOMKD@CPythonNetworkStream?3?3LoadLocal@ ; `string'
PUBLIC	??_C@_0FB@IFBMBLGI@CPythonNetworkStream?3?3LoadLocal@ ; `string'
PUBLIC	??_C@_0BO@GPONOGFJ@?$CD?$CD?5Network?5?9?5Loading?5Phase?5?$CD?$CD@ ; `string'
PUBLIC	??_C@_07BINAGFIJ@Loading@			; `string'
PUBLIC	??_C@_0BK@DINNAMGH@Send?5EnterFrontGamePacket@	; `string'
EXTRN	?DeleteAllInstances@CEffectManager@@QAEXXZ:PROC	; CEffectManager::DeleteAllInstances
EXTRN	?DeleteAllInstances@CFlyingManager@@QAEXXZ:PROC	; CFlyingManager::DeleteAllInstances
EXTRN	?SplitLineByTab@CMemoryTextFileLoader@@QAE_NKPAV?$vector@V?$basic_string@DU?$char_traits@D@std@@V?$allocator@D@2@@std@@V?$allocator@V?$basic_string@DU?$char_traits@D@std@@V?$allocator@D@2@@std@@@2@@std@@@Z:PROC ; CMemoryTextFileLoader::SplitLineByTab
;	COMDAT ?s_szChat@?1??GetLocaleChatVnum@CPythonNetworkStream@@QAEPBDK@Z@4PADA
_BSS	SEGMENT
?s_szChat@?1??GetLocaleChatVnum@CPythonNetworkStream@@QAEPBDK@Z@4PADA DB 0401H DUP (?) ; `CPythonNetworkStream::GetLocaleChatVnum'::`2'::s_szChat
_BSS	ENDS
;	COMDAT ?s_szChat@?1??GetLocaleQuizVnum@CPythonNetworkStream@@QAEPBDK@Z@4PADA
_BSS	SEGMENT
?s_szChat@?1??GetLocaleQuizVnum@CPythonNetworkStream@@QAEPBDK@Z@4PADA DB 0401H DUP (?) ; `CPythonNetworkStream::GetLocaleQuizVnum'::`2'::s_szChat
_BSS	ENDS
;	COMDAT ??_C@_0BK@DINNAMGH@Send?5EnterFrontGamePacket@
CONST	SEGMENT
??_C@_0BK@DINNAMGH@Send?5EnterFrontGamePacket@ DB 'Send EnterFrontGamePac'
	DB	'ket', 00H					; `string'
CONST	ENDS
;	COMDAT ??_C@_07BINAGFIJ@Loading@
CONST	SEGMENT
??_C@_07BINAGFIJ@Loading@ DB 'Loading', 00H		; `string'
CONST	ENDS
;	COMDAT ??_C@_0BO@GPONOGFJ@?$CD?$CD?5Network?5?9?5Loading?5Phase?5?$CD?$CD@
CONST	SEGMENT
??_C@_0BO@GPONOGFJ@?$CD?$CD?5Network?5?9?5Loading?5Phase?5?$CD?$CD@ DB '#'
	DB	'# Network - Loading Phase ##', 00H		; `string'
CONST	ENDS
;	COMDAT ??_C@_0FB@IFBMBLGI@CPythonNetworkStream?3?3LoadLocal@
CONST	SEGMENT
??_C@_0FB@IFBMBLGI@CPythonNetworkStream?3?3LoadLocal@ DB 'CPythonNetworkS'
	DB	'tream::LoadLocaleChatVnum(c_szLocaleChatFileName=%s) - Load E'
	DB	'rror', 00H					; `string'
CONST	ENDS
;	COMDAT ??_C@_0FF@CDAAOMKD@CPythonNetworkStream?3?3LoadLocal@
CONST	SEGMENT
??_C@_0FF@CDAAOMKD@CPythonNetworkStream?3?3LoadLocal@ DB 'CPythonNetworkS'
	DB	'tream::LoadLocaleStringVnum(c_szLocaleStringFileName=%s) - Lo'
	DB	'ad Error', 00H				; `string'
CONST	ENDS
;	COMDAT ??_C@_0FB@EBHCNDED@CPythonNetworkStream?3?3LoadLocal@
CONST	SEGMENT
??_C@_0FB@EBHCNDED@CPythonNetworkStream?3?3LoadLocal@ DB 'CPythonNetworkS'
	DB	'tream::LoadLocaleQuizVnum(c_szLocaleQuizFileName=%s) - Load E'
	DB	'rror', 00H					; `string'
PUBLIC	??$?0_JV?$basic_string@DU?$char_traits@D@std@@V?$allocator@D@2@@std@@$0A@@?$pair@$$CBKV?$basic_string@DU?$char_traits@D@std@@V?$allocator@D@2@@std@@@std@@QAE@$$QAU?$pair@_JV?$basic_string@DU?$char_traits@D@std@@V?$allocator@D@2@@std@@@1@@Z ; std::pair<unsigned long const ,std::basic_string<char,std::char_traits<char>,std::allocator<char> > >::pair<unsigned long const ,std::basic_string<char,std::char_traits<char>,std::allocator<char> > ><__int64,std::basic_string<char,std::char_traits<char>,std::allocator<char> >,0>
PUBLIC	??$construct_at@U?$pair@$$CBKV?$basic_string@DU?$char_traits@D@std@@V?$allocator@D@2@@std@@@std@@U?$pair@_JV?$basic_string@DU?$char_traits@D@std@@V?$allocator@D@2@@std@@@2@@std@@YAPAU?$pair@$$CBKV?$basic_string@DU?$char_traits@D@std@@V?$allocator@D@2@@std@@@0@QAU10@$$QAU?$pair@_JV?$basic_string@DU?$char_traits@D@std@@V?$allocator@D@2@@std@@@0@@Z ; std::construct_at<std::pair<unsigned long const ,std::basic_string<char,std::char_traits<char>,std::allocator<char> > >,std::pair<__int64,std::basic_string<char,std::char_traits<char>,std::allocator<char> > > >
PUBLIC	??$?0_JAAV?$basic_string@DU?$char_traits@D@std@@V?$allocator@D@2@@std@@$0A@@?$pair@$$CBKV?$basic_string@DU?$char_traits@D@std@@V?$allocator@D@2@@std@@@std@@QAE@$$QA_JAAV?$basic_string@DU?$char_traits@D@std@@V?$allocator@D@2@@1@@Z ; std::pair<unsigned long const ,std::basic_string<char,std::char_traits<char>,std::allocator<char> > >::pair<unsigned long const ,std::basic_string<char,std::char_traits<char>,std::allocator<char> > ><__int64,std::basic_string<char,std::char_traits<char>,std::allocator<char> > &,0>
PUBLIC	??$construct@U?$pair@$$CBKV?$basic_string@DU?$char_traits@D@std@@V?$allocator@D@2@@std@@@std@@U?$pair@_JV?$basic_string@DU?$char_traits@D@std@@V?$allocator@D@2@@std@@@2@@?$_Default_allocator_traits@V?$allocator@U?$_Tree_node@U?$pair@$$CBKV?$basic_string@DU?$char_traits@D@std@@V?$allocator@D@2@@std@@@std@@PAX@std@@@std@@@std@@SAXAAV?$allocator@U?$_Tree_node@U?$pair@$$CBKV?$basic_string@DU?$char_traits@D@std@@V?$allocator@D@2@@std@@@std@@PAX@std@@@1@QAU?$pair@$$CBKV?$basic_string@DU?$char_traits@D@std@@V?$allocator@D@2@@std@@@1@$$QAU?$pair@_JV?$basic_string@DU?$char_traits@D@std@@V?$allocator@D@2@@std@@@1@@Z ; std::_Default_allocator_traits<std::allocator<std::_Tree_node<std::pair<unsigned long const ,std::basic_string<char,std::char_traits<char>,std::allocator<char> > >,void *> > >::construct<std::pair<unsigned long const ,std::basic_string<char,std::char_traits<char>,std::allocator<char> > >,std::pair<__int64,std::basic_string<char,std::char_traits<char>,std::allocator<char> > > >
PUBLIC	??$construct_at@U?$pair@$$CBKV?$basic_string@DU?$char_traits@D@std@@V?$allocator@D@2@@std@@@std@@_JAAV?$basic_string@DU?$char_traits@D@std@@V?$allocator@D@2@@2@@std@@YAPAU?$pair@$$CBKV?$basic_string@DU?$char_traits@D@std@@V?$allocator@D@2@@std@@@0@QAU10@$$QA_JAAV?$basic_string@DU?$char_traits@D@std@@V?$allocator@D@2@@0@@Z ; std::construct_at<std::pair<unsigned long const ,std::basic_string<char,std::char_traits<char>,std::allocator<char> > >,__int64,std::basic_string<char,std::char_traits<char>,std::allocator<char> > &>
PUBLIC	??$?0U?$pair@_JV?$basic_string@DU?$char_traits@D@std@@V?$allocator@D@2@@std@@@std@@@?$_Tree_temp_node@V?$allocator@U?$_Tree_node@U?$pair@$$CBKV?$basic_string@DU?$char_traits@D@std@@V?$allocator@D@2@@std@@@std@@PAX@std@@@std@@@std@@QAE@AAV?$allocator@U?$_Tree_node@U?$pair@$$CBKV?$basic_string@DU?$char_traits@D@std@@V?$allocator@D@2@@std@@@std@@PAX@std@@@1@PAU?$_Tree_node@U?$pair@$$CBKV?$basic_string@DU?$char_traits@D@std@@V?$allocator@D@2@@std@@@std@@PAX@1@$$QAU?$pair@_JV?$basic_string@DU?$char_traits@D@std@@V?$allocator@D@2@@std@@@1@@Z ; std::_Tree_temp_node<std::allocator<std::_Tree_node<std::pair<unsigned long const ,std::basic_string<char,std::char_traits<char>,std::allocator<char> > >,void *> > >::_Tree_temp_node<std::allocator<std::_Tree_node<std::pair<unsigned long const ,std::basic_string<char,std::char_traits<char>,std::allocator<char> > >,void *> > ><std::pair<__int64,std::basic_string<char,std::char_traits<char>,std::allocator<char> > > >
PUBLIC	??$construct@U?$pair@$$CBKV?$basic_string@DU?$char_traits@D@std@@V?$allocator@D@2@@std@@@std@@_JAAV?$basic_string@DU?$char_traits@D@std@@V?$allocator@D@2@@2@@?$_Default_allocator_traits@V?$allocator@U?$_Tree_node@U?$pair@$$CBKV?$basic_string@DU?$char_traits@D@std@@V?$allocator@D@2@@std@@@std@@PAX@std@@@std@@@std@@SAXAAV?$allocator@U?$_Tree_node@U?$pair@$$CBKV?$basic_string@DU?$char_traits@D@std@@V?$allocator@D@2@@std@@@std@@PAX@std@@@1@QAU?$pair@$$CBKV?$basic_string@DU?$char_traits@D@std@@V?$allocator@D@2@@std@@@1@$$QA_JAAV?$basic_string@DU?$char_traits@D@std@@V?$allocator@D@2@@1@@Z ; std::_Default_allocator_traits<std::allocator<std::_Tree_node<std::pair<unsigned long const ,std::basic_string<char,std::char_traits<char>,std::allocator<char> > >,void *> > >::construct<std::pair<unsigned long const ,std::basic_string<char,std::char_traits<char>,std::allocator<char> > >,__int64,std::basic_string<char,std::char_traits<char>,std::allocator<char> > &>
PUBLIC	??D?$_Tree_const_iterator@V?$_Tree_val@U?$_Tree_simple_types@U?$pair@$$CBKV?$basic_string@DU?$char_traits@D@std@@V?$allocator@D@2@@std@@@std@@@std@@@std@@@std@@QBEABU?$pair@$$CBKV?$basic_string@DU?$char_traits@D@std@@V?$allocator@D@2@@std@@@1@XZ ; std::_Tree_const_iterator<std::_Tree_val<std::_Tree_simple_types<std::pair<unsigned long const ,std::basic_string<char,std::char_traits<char>,std::allocator<char> > > > > >::operator*
PUBLIC	??$_Emplace@U?$pair@_JV?$basic_string@DU?$char_traits@D@std@@V?$allocator@D@2@@std@@@std@@@?$_Tree@V?$_Tmap_traits@KV?$basic_string@DU?$char_traits@D@std@@V?$allocator@D@2@@std@@U?$less@K@2@V?$allocator@U?$pair@$$CBKV?$basic_string@DU?$char_traits@D@std@@V?$allocator@D@2@@std@@@std@@@2@$0A@@std@@@std@@IAE?AU?$pair@PAU?$_Tree_node@U?$pair@$$CBKV?$basic_string@DU?$char_traits@D@std@@V?$allocator@D@2@@std@@@std@@PAX@std@@_N@1@$$QAU?$pair@_JV?$basic_string@DU?$char_traits@D@std@@V?$allocator@D@2@@std@@@1@@Z ; std::_Tree<std::_Tmap_traits<unsigned long,std::basic_string<char,std::char_traits<char>,std::allocator<char> >,std::less<unsigned long>,std::allocator<std::pair<unsigned long const ,std::basic_string<char,std::char_traits<char>,std::allocator<char> > > >,0> >::_Emplace<std::pair<__int64,std::basic_string<char,std::char_traits<char>,std::allocator<char> > > >
PUBLIC	??$?0_JAAV?$basic_string@DU?$char_traits@D@std@@V?$allocator@D@2@@std@@@?$_Tree_temp_node@V?$allocator@U?$_Tree_node@U?$pair@$$CBKV?$basic_string@DU?$char_traits@D@std@@V?$allocator@D@2@@std@@@std@@PAX@std@@@std@@@std@@QAE@AAV?$allocator@U?$_Tree_node@U?$pair@$$CBKV?$basic_string@DU?$char_traits@D@std@@V?$allocator@D@2@@std@@@std@@PAX@std@@@1@PAU?$_Tree_node@U?$pair@$$CBKV?$basic_string@DU?$char_traits@D@std@@V?$allocator@D@2@@std@@@std@@PAX@1@$$QA_JAAV?$basic_string@DU?$char_traits@D@std@@V?$allocator@D@2@@1@@Z ; std::_Tree_temp_node<std::allocator<std::_Tree_node<std::pair<unsigned long const ,std::basic_string<char,std::char_traits<char>,std::allocator<char> > >,void *> > >::_Tree_temp_node<std::allocator<std::_Tree_node<std::pair<unsigned long const ,std::basic_string<char,std::char_traits<char>,std::allocator<char> > >,void *> > ><__int64,std::basic_string<char,std::char_traits<char>,std::allocator<char> > &>
PUBLIC	??D?$_Tree_iterator@V?$_Tree_val@U?$_Tree_simple_types@U?$pair@$$CBKV?$basic_string@DU?$char_traits@D@std@@V?$allocator@D@2@@std@@@std@@@std@@@std@@@std@@QBEAAU?$pair@$$CBKV?$basic_string@DU?$char_traits@D@std@@V?$allocator@D@2@@std@@@1@XZ ; std::_Tree_iterator<std::_Tree_val<std::_Tree_simple_types<std::pair<unsigned long const ,std::basic_string<char,std::char_traits<char>,std::allocator<char> > > > > >::operator*
PUBLIC	?pointer_to@?$pointer_traits@PAU?$pair@$$CBKV?$basic_string@DU?$char_traits@D@std@@V?$allocator@D@2@@std@@@std@@@std@@SAPAU?$pair@$$CBKV?$basic_string@DU?$char_traits@D@std@@V?$allocator@D@2@@std@@@2@AAU32@@Z ; std::pointer_traits<std::pair<unsigned long const ,std::basic_string<char,std::char_traits<char>,std::allocator<char> > > *>::pointer_to
PUBLIC	??$emplace@U?$pair@_JV?$basic_string@DU?$char_traits@D@std@@V?$allocator@D@2@@std@@@std@@@?$_Tree@V?$_Tmap_traits@KV?$basic_string@DU?$char_traits@D@std@@V?$allocator@D@2@@std@@U?$less@K@2@V?$allocator@U?$pair@$$CBKV?$basic_string@DU?$char_traits@D@std@@V?$allocator@D@2@@std@@@std@@@2@$0A@@std@@@std@@QAE?AU?$pair@V?$_Tree_iterator@V?$_Tree_val@U?$_Tree_simple_types@U?$pair@$$CBKV?$basic_string@DU?$char_traits@D@std@@V?$allocator@D@2@@std@@@std@@@std@@@std@@@std@@_N@1@$$QAU?$pair@_JV?$basic_string@DU?$char_traits@D@std@@V?$allocator@D@2@@std@@@1@@Z ; std::_Tree<std::_Tmap_traits<unsigned long,std::basic_string<char,std::char_traits<char>,std::allocator<char> >,std::less<unsigned long>,std::allocator<std::pair<unsigned long const ,std::basic_string<char,std::char_traits<char>,std::allocator<char> > > >,0> >::emplace<std::pair<__int64,std::basic_string<char,std::char_traits<char>,std::allocator<char> > > >
PUBLIC	??$forward@U?$pair@_JV?$basic_string@DU?$char_traits@D@std@@V?$allocator@D@2@@std@@@std@@@std@@YA$$QAU?$pair@_JV?$basic_string@DU?$char_traits@D@std@@V?$allocator@D@2@@std@@@0@AAU10@@Z ; std::forward<std::pair<__int64,std::basic_string<char,std::char_traits<char>,std::allocator<char> > > >
PUBLIC	??$?0_JAAV?$basic_string@DU?$char_traits@D@std@@V?$allocator@D@2@@std@@$0A@@?$pair@_JV?$basic_string@DU?$char_traits@D@std@@V?$allocator@D@2@@std@@@std@@QAE@$$QA_JAAV?$basic_string@DU?$char_traits@D@std@@V?$allocator@D@2@@1@@Z ; std::pair<__int64,std::basic_string<char,std::char_traits<char>,std::allocator<char> > >::pair<__int64,std::basic_string<char,std::char_traits<char>,std::allocator<char> > ><__int64,std::basic_string<char,std::char_traits<char>,std::allocator<char> > &,0>
PUBLIC	??$_Emplace@_JAAV?$basic_string@DU?$char_traits@D@std@@V?$allocator@D@2@@std@@@?$_Tree@V?$_Tmap_traits@KV?$basic_string@DU?$char_traits@D@std@@V?$allocator@D@2@@std@@U?$less@K@2@V?$allocator@U?$pair@$$CBKV?$basic_string@DU?$char_traits@D@std@@V?$allocator@D@2@@std@@@std@@@2@$0A@@std@@@std@@IAE?AU?$pair@PAU?$_Tree_node@U?$pair@$$CBKV?$basic_string@DU?$char_traits@D@std@@V?$allocator@D@2@@std@@@std@@PAX@std@@_N@1@$$QA_JAAV?$basic_string@DU?$char_traits@D@std@@V?$allocator@D@2@@1@@Z ; std::_Tree<std::_Tmap_traits<unsigned long,std::basic_string<char,std::char_traits<char>,std::allocator<char> >,std::less<unsigned long>,std::allocator<std::pair<unsigned long const ,std::basic_string<char,std::char_traits<char>,std::allocator<char> > > >,0> >::_Emplace<__int64,std::basic_string<char,std::char_traits<char>,std::allocator<char> > &>
PUBLIC	??$forward@_J@std@@YA$$QA_JAA_J@Z		; std::forward<__int64>
PUBLIC	?compare@?$basic_string@DU?$char_traits@D@std@@V?$allocator@D@2@@std@@QBEHIIQBD@Z ; std::basic_string<char,std::char_traits<char>,std::allocator<char> >::compare
PUBLIC	??C?$_Tree_iterator@V?$_Tree_val@U?$_Tree_simple_types@U?$pair@$$CBKV?$basic_string@DU?$char_traits@D@std@@V?$allocator@D@2@@std@@@std@@@std@@@std@@@std@@QBEPAU?$pair@$$CBKV?$basic_string@DU?$char_traits@D@std@@V?$allocator@D@2@@std@@@1@XZ ; std::_Tree_iterator<std::_Tree_val<std::_Tree_simple_types<std::pair<unsigned long const ,std::basic_string<char,std::char_traits<char>,std::allocator<char> > > > > >::operator->
PUBLIC	??$?0AAKABV?$basic_string@DU?$char_traits@D@std@@V?$allocator@D@2@@std@@$0A@@?$pair@KV?$basic_string@DU?$char_traits@D@std@@V?$allocator@D@2@@std@@@std@@QAE@AAKABV?$basic_string@DU?$char_traits@D@std@@V?$allocator@D@2@@1@@Z ; std::pair<unsigned long,std::basic_string<char,std::char_traits<char>,std::allocator<char> > >::pair<unsigned long,std::basic_string<char,std::char_traits<char>,std::allocator<char> > ><unsigned long &,std::basic_string<char,std::char_traits<char>,std::allocator<char> > const &,0>
PUBLIC	??$insert@U?$pair@_JV?$basic_string@DU?$char_traits@D@std@@V?$allocator@D@2@@std@@@std@@$0A@@?$map@KV?$basic_string@DU?$char_traits@D@std@@V?$allocator@D@2@@std@@U?$less@K@2@V?$allocator@U?$pair@$$CBKV?$basic_string@DU?$char_traits@D@std@@V?$allocator@D@2@@std@@@std@@@2@@std@@QAE?AU?$pair@V?$_Tree_iterator@V?$_Tree_val@U?$_Tree_simple_types@U?$pair@$$CBKV?$basic_string@DU?$char_traits@D@std@@V?$allocator@D@2@@std@@@std@@@std@@@std@@@std@@_N@1@$$QAU?$pair@_JV?$basic_string@DU?$char_traits@D@std@@V?$allocator@D@2@@std@@@1@@Z ; std::map<unsigned long,std::basic_string<char,std::char_traits<char>,std::allocator<char> >,std::less<unsigned long>,std::allocator<std::pair<unsigned long const ,std::basic_string<char,std::char_traits<char>,std::allocator<char> > > > >::insert<std::pair<__int64,std::basic_string<char,std::char_traits<char>,std::allocator<char> > >,0>
PUBLIC	??$make_pair@_JAAV?$basic_string@DU?$char_traits@D@std@@V?$allocator@D@2@@std@@@std@@YA?AU?$pair@_JV?$basic_string@DU?$char_traits@D@std@@V?$allocator@D@2@@std@@@0@$$QA_JAAV?$basic_string@DU?$char_traits@D@std@@V?$allocator@D@2@@0@@Z ; std::make_pair<__int64,std::basic_string<char,std::char_traits<char>,std::allocator<char> > &>
PUBLIC	??$emplace@_JAAV?$basic_string@DU?$char_traits@D@std@@V?$allocator@D@2@@std@@@?$_Tree@V?$_Tmap_traits@KV?$basic_string@DU?$char_traits@D@std@@V?$allocator@D@2@@std@@U?$less@K@2@V?$allocator@U?$pair@$$CBKV?$basic_string@DU?$char_traits@D@std@@V?$allocator@D@2@@std@@@std@@@2@$0A@@std@@@std@@QAE?AU?$pair@V?$_Tree_iterator@V?$_Tree_val@U?$_Tree_simple_types@U?$pair@$$CBKV?$basic_string@DU?$char_traits@D@std@@V?$allocator@D@2@@std@@@std@@@std@@@std@@@std@@_N@1@$$QA_JAAV?$basic_string@DU?$char_traits@D@std@@V?$allocator@D@2@@1@@Z ; std::_Tree<std::_Tmap_traits<unsigned long,std::basic_string<char,std::char_traits<char>,std::allocator<char> >,std::less<unsigned long>,std::allocator<std::pair<unsigned long const ,std::basic_string<char,std::char_traits<char>,std::allocator<char> > > >,0> >::emplace<__int64,std::basic_string<char,std::char_traits<char>,std::allocator<char> > &>
PUBLIC	?__SetFieldMusicFileInfo@CPythonNetworkStream@@IAEXPBDM@Z ; CPythonNetworkStream::__SetFieldMusicFileInfo
PUBLIC	?__SetFieldMusicFileName@CPythonNetworkStream@@IAEXPBD@Z ; CPythonNetworkStream::__SetFieldMusicFileName
PUBLIC	?RecvMainCharacter4_BGM_VOL@CPythonNetworkStream@@IAE_NXZ ; CPythonNetworkStream::RecvMainCharacter4_BGM_VOL
PUBLIC	?RecvMainCharacter3_BGM@CPythonNetworkStream@@IAE_NXZ ; CPythonNetworkStream::RecvMainCharacter3_BGM
PUBLIC	?RecvMainCharacter2_EMPIRE@CPythonNetworkStream@@IAE_NXZ ; CPythonNetworkStream::RecvMainCharacter2_EMPIRE
PUBLIC	?RecvMainCharacter@CPythonNetworkStream@@IAE_NXZ ; CPythonNetworkStream::RecvMainCharacter
PUBLIC	?LoadingPhase@CPythonNetworkStream@@IAEXXZ	; CPythonNetworkStream::LoadingPhase
PUBLIC	??1?$pair@_JV?$basic_string@DU?$char_traits@D@std@@V?$allocator@D@2@@std@@@std@@QAE@XZ ; std::pair<__int64,std::basic_string<char,std::char_traits<char>,std::allocator<char> > >::~pair<__int64,std::basic_string<char,std::char_traits<char>,std::allocator<char> > >
PUBLIC	?__LeaveLoadingPhase@CPythonNetworkStream@@IAEXXZ ; CPythonNetworkStream::__LeaveLoadingPhase
PUBLIC	?__RecvPlayerPoints@CPythonNetworkStream@@IAE_NXZ ; CPythonNetworkStream::__RecvPlayerPoints
PUBLIC	?__FilterInsult@CPythonNetworkStream@@IAEXPADI@Z ; CPythonNetworkStream::__FilterInsult
PUBLIC	?GetLocaleChatVnum@CPythonNetworkStream@@QAEPBDK@Z ; CPythonNetworkStream::GetLocaleChatVnum
PUBLIC	?GetLocaleStringVnum@CPythonNetworkStream@@QAE?AV?$basic_string@DU?$char_traits@D@std@@V?$allocator@D@2@@std@@K@Z ; CPythonNetworkStream::GetLocaleStringVnum
PUBLIC	?GetLocaleQuizVnum@CPythonNetworkStream@@QAEPBDK@Z ; CPythonNetworkStream::GetLocaleQuizVnum
PUBLIC	?StartGame@CPythonNetworkStream@@QAEXXZ		; CPythonNetworkStream::StartGame
PUBLIC	?GetFieldMusicFileName@CPythonNetworkStream@@QAEPBDXZ ; CPythonNetworkStream::GetFieldMusicFileName
PUBLIC	?GetFieldMusicVolume@CPythonNetworkStream@@QAEMXZ ; CPythonNetworkStream::GetFieldMusicVolume
PUBLIC	?EnableChatInsultFilter@CPythonNetworkStream@@QAEX_N@Z ; CPythonNetworkStream::EnableChatInsultFilter
PUBLIC	?IsChatInsultIn@CPythonNetworkStream@@QAE_NPBD@Z ; CPythonNetworkStream::IsChatInsultIn
PUBLIC	?IsInsultIn@CPythonNetworkStream@@QAE_NPBD@Z	; CPythonNetworkStream::IsInsultIn
PUBLIC	?SendEnterGame@CPythonNetworkStream@@QAE_NXZ	; CPythonNetworkStream::SendEnterGame
PUBLIC	?SetLoadingPhase@CPythonNetworkStream@@QAEXXZ	; CPythonNetworkStream::SetLoadingPhase
PUBLIC	?SendPythonData@CPythonNetworkStream@@QAEXPAU_object@@PBD@Z ; CPythonNetworkStream::SendPythonData
PUBLIC	?LoadInsultList@CPythonNetworkStream@@QAE_NPBD@Z ; CPythonNetworkStream::LoadInsultList
PUBLIC	?LoadLocaleStringVnum@CPythonNetworkStream@@QAE_NPBD@Z ; CPythonNetworkStream::LoadLocaleStringVnum
PUBLIC	?LoadLocaleChatVnum@CPythonNetworkStream@@QAE_NPBD@Z ; CPythonNetworkStream::LoadLocaleChatVnum
PUBLIC	?LoadLocaleQuizVnum@CPythonNetworkStream@@QAE_NPBD@Z ; CPythonNetworkStream::LoadLocaleQuizVnum
?vecDropSoundFileName@@3V?$array@U?$pair@KV?$basic_string@DU?$char_traits@D@std@@V?$allocator@D@2@@std@@@std@@$04@std@@B DB 08cH DUP (?) ; vecDropSoundFileName
?vecEffectList@@3V?$vector@V?$tuple@IPBDPBD_N@std@@V?$allocator@V?$tuple@IPBDPBD_N@std@@@2@@std@@B DB 0cH DUP (?) ; vecEffectList
?characterNameColors@@3V?$map@EV?$array@E$02@std@@U?$less@E@2@V?$allocator@U?$pair@$$CBEV?$array@E$02@std@@@std@@@2@@std@@B DQ 01H DUP (?) ; characterNameColors
?characterTitleColors@@3V?$map@EV?$array@E$02@std@@U?$less@E@2@V?$allocator@U?$pair@$$CBEV?$array@E$02@std@@@std@@@2@@std@@B DQ 01H DUP (?) ; characterTitleColors
?characterTitleSystemColors@@3V?$map@EV?$array@E$02@std@@U?$less@E@2@V?$allocator@U?$pair@$$CBEV?$array@E$02@std@@@std@@@2@@std@@B DQ 01H DUP (?) ; characterTitleSystemColors
?emotionIcons@@3V?$map@EPBDU?$less@E@std@@V?$allocator@U?$pair@$$CBEPBD@std@@@2@@std@@B DQ 01H DUP (?) ; emotionIcons
?skillIndexes@@3V?$map@EV?$map@EV?$vector@EV?$allocator@E@std@@@std@@U?$less@E@2@V?$allocator@U?$pair@$$CBEV?$vector@EV?$allocator@E@std@@@std@@@std@@@2@@std@@U?$less@E@2@V?$allocator@U?$pair@$$CBEV?$map@EV?$vector@EV?$allocator@E@std@@@std@@U?$less@E@2@V?$allocator@U?$pair@$$CBEV?$vector@EV?$allocator@E@std@@@std@@@std@@@2@@std@@@std@@@2@@std@@B DQ 01H DUP (?) ; skillIndexes
?guildSkills@@3V?$map@V?$basic_string@DU?$char_traits@D@std@@V?$allocator@D@2@@std@@V?$vector@EV?$allocator@E@std@@@2@U?$less@V?$basic_string@DU?$char_traits@D@std@@V?$allocator@D@2@@std@@@2@V?$allocator@U?$pair@$$CBV?$basic_string@DU?$char_traits@D@std@@V?$allocator@D@2@@std@@V?$vector@EV?$allocator@E@std@@@2@@std@@@2@@std@@B DQ 01H DUP (?) ; guildSkills
_BSS	ENDS
;	COMDAT xdata$x
xdata$x	SEGMENT
__ehfuncinfo$?LoadLocaleQuizVnum@CPythonNetworkStream@@QAE_NPBD@Z DQ 00000000619930522r ; 1.2944e-313
	DD	FLAT:__unwindtable$?LoadLocaleQuizVnum@CPythonNetworkStream@@QAE_NPBD@Z
	DQ	00000000000000000r		; 0
	DQ	00000000000000000r		; 0
	DQ	00000000100000000r		; 2.122e-314
__unwindtable$?LoadLocaleQuizVnum@CPythonNetworkStream@@QAE_NPBD@Z DD 0ffffffffH
	DD	FLAT:__unwindfunclet$?LoadLocaleQuizVnum@CPythonNetworkStream@@QAE_NPBD@Z$0
	DD	00H
	DD	FLAT:__unwindfunclet$?LoadLocaleQuizVnum@CPythonNetworkStream@@QAE_NPBD@Z$1
	DD	01H
	DD	FLAT:__unwindfunclet$?LoadLocaleQuizVnum@CPythonNetworkStream@@QAE_NPBD@Z$2
	DD	02H
	DD	FLAT:__unwindfunclet$?LoadLocaleQuizVnum@CPythonNetworkStream@@QAE_NPBD@Z$5
	DD	02H
	DD	FLAT:__unwindfunclet$?LoadLocaleQuizVnum@CPythonNetworkStream@@QAE_NPBD@Z$4
	DD	02H
	DD	FLAT:__unwindfunclet$?LoadLocaleQuizVnum@CPythonNetworkStream@@QAE_NPBD@Z$3
xdata$x	ENDS
;	COMDAT xdata$x
xdata$x	SEGMENT
__ehfuncinfo$?LoadLocaleChatVnum@CPythonNetworkStream@@QAE_NPBD@Z DQ 00000000619930522r ; 1.2944e-313
	DD	FLAT:__unwindtable$?LoadLocaleChatVnum@CPythonNetworkStream@@QAE_NPBD@Z
	DQ	00000000000000000r		; 0
	DQ	00000000000000000r		; 0
	DQ	00000000100000000r		; 2.122e-314
__unwindtable$?LoadLocaleChatVnum@CPythonNetworkStream@@QAE_NPBD@Z DD 0ffffffffH
	DD	FLAT:__unwindfunclet$?LoadLocaleChatVnum@CPythonNetworkStream@@QAE_NPBD@Z$0
	DD	00H
	DD	FLAT:__unwindfunclet$?LoadLocaleChatVnum@CPythonNetworkStream@@QAE_NPBD@Z$1
	DD	01H
	DD	FLAT:__unwindfunclet$?LoadLocaleChatVnum@CPythonNetworkStream@@QAE_NPBD@Z$2
	DD	02H
	DD	FLAT:__unwindfunclet$?LoadLocaleChatVnum@CPythonNetworkStream@@QAE_NPBD@Z$3
	DD	03H
	DD	FLAT:__unwindfunclet$?LoadLocaleChatVnum@CPythonNetworkStream@@QAE_NPBD@Z$8
	DD	03H
	DD	FLAT:__unwindfunclet$?LoadLocaleChatVnum@CPythonNetworkStream@@QAE_NPBD@Z$6
xdata$x	ENDS
;	COMDAT xdata$x
xdata$x	SEGMENT
__ehfuncinfo$?LoadLocaleStringVnum@CPythonNetworkStream@@QAE_NPBD@Z DQ 00000000619930522r ; 1.2944e-313
	DD	FLAT:__unwindtable$?LoadLocaleStringVnum@CPythonNetworkStream@@QAE_NPBD@Z
	DQ	00000000000000000r		; 0
	DQ	00000000000000000r		; 0
	DQ	00000000100000000r		; 2.122e-314
__unwindtable$?LoadLocaleStringVnum@CPythonNetworkStream@@QAE_NPBD@Z DD 0ffffffffH
	DD	FLAT:__unwindfunclet$?LoadLocaleStringVnum@CPythonNetworkStream@@QAE_NPBD@Z$0
	DD	00H
	DD	FLAT:__unwindfunclet$?LoadLocaleStringVnum@CPythonNetworkStream@@QAE_NPBD@Z$1
	DD	01H
	DD	FLAT:__unwindfunclet$?LoadLocaleStringVnum@CPythonNetworkStream@@QAE_NPBD@Z$2
	DD	02H
	DD	FLAT:__unwindfunclet$?LoadLocaleStringVnum@CPythonNetworkStream@@QAE_NPBD@Z$3
	DD	02H
	DD	FLAT:__unwindfunclet$?LoadLocaleStringVnum@CPythonNetworkStream@@QAE_NPBD@Z$4
	DD	04H
	DD	FLAT:__unwindfunclet$?LoadLocaleStringVnum@CPythonNetworkStream@@QAE_NPBD@Z$5
xdata$x	ENDS
;	COMDAT xdata$x
xdata$x	SEGMENT
__ehfuncinfo$?LoadInsultList@CPythonNetworkStream@@QAE_NPBD@Z DQ 00000000219930522r ; 4.45598e-314
	DD	FLAT:__unwindtable$?LoadInsultList@CPythonNetworkStream@@QAE_NPBD@Z
	DQ	00000000000000000r		; 0
	DQ	00000000000000000r		; 0
	DQ	00000000100000000r		; 2.122e-314
__unwindtable$?LoadInsultList@CPythonNetworkStream@@QAE_NPBD@Z DD 0ffffffffH
	DD	FLAT:__unwindfunclet$?LoadInsultList@CPythonNetworkStream@@QAE_NPBD@Z$0
	DD	00H
	DD	FLAT:__unwindfunclet$?LoadInsultList@CPythonNetworkStream@@QAE_NPBD@Z$1
xdata$x	ENDS
;	COMDAT xdata$x
xdata$x	SEGMENT
__ehfuncinfo$??__EvecUseSoundFileName@@YAXXZ DQ 00000000619930522r ; 1.2944e-313
	DD	FLAT:__unwindtable$??__EvecUseSoundFileName@@YAXXZ
	DQ	00000000000000000r		; 0
	DQ	00000000000000000r		; 0
	DQ	00000000100000000r		; 2.122e-314
__unwindtable$??__EvecUseSoundFileName@@YAXXZ DD 0ffffffffH
	DD	FLAT:__unwindfunclet$??__EvecUseSoundFileName@@YAXXZ$0
	DD	00H
	DD	FLAT:__unwindfunclet$??__EvecUseSoundFileName@@YAXXZ$1
	DD	01H
	DD	FLAT:__unwindfunclet$??__EvecUseSoundFileName@@YAXXZ$2
	DD	02H
	DD	FLAT:__unwindfunclet$??__EvecUseSoundFileName@@YAXXZ$3
	DD	03H
	DD	FLAT:__unwindfunclet$??__EvecUseSoundFileName@@YAXXZ$4
	DD	04H
	DD	FLAT:__unwindfunclet$??__EvecUseSoundFileName@@YAXXZ$5
xdata$x	ENDS
;	COMDAT xdata$x
xdata$x	SEGMENT
__ehfuncinfo$??__FvecUseSoundFileName@@YAXXZ DQ 00000000119930522r ; 2.33398e-314
	DD	FLAT:__unwindtable$??__FvecUseSoundFileName@@YAXXZ
	DQ	00000000000000000r		; 0
	DQ	00000000000000000r		; 0
	DQ	00000000100000000r		; 2.122e-314
__unwindtable$??__FvecUseSoundFileName@@YAXXZ DD 0ffffffffH
	DD	FLAT:___std_terminate
xdata$x	ENDS
;	COMDAT xdata$x
xdata$x	SEGMENT
__ehfuncinfo$??__EvecDropSoundFileName@@YAXXZ DQ 00000000419930522r ; 8.69997e-314
	DD	FLAT:__unwindtable$??__EvecDropSoundFileName@@YAXXZ
	DQ	00000000000000000r		; 0
	DQ	00000000000000000r		; 0
	DQ	00000000100000000r		; 2.122e-314
__unwindtable$??__EvecDropSoundFileName@@YAXXZ DD 0ffffffffH
	DD	FLAT:__unwindfunclet$??__EvecDropSoundFileName@@YAXXZ$0
	DD	00H
	DD	FLAT:__unwindfunclet$??__EvecDropSoundFileName@@YAXXZ$1
	DD	01H
	DD	FLAT:__unwindfunclet$??__EvecDropSoundFileName@@YAXXZ$2
	DD	02H
	DD	FLAT:__unwindfunclet$??__EvecDropSoundFileName@@YAXXZ$3
xdata$x	ENDS
;	COMDAT xdata$x
xdata$x	SEGMENT
__ehfuncinfo$??__FvecDropSoundFileName@@YAXXZ DQ 00000000119930522r ; 2.33398e-314
	DD	FLAT:__unwindtable$??__FvecDropSoundFileName@@YAXXZ
	DQ	00000000000000000r		; 0
	DQ	00000000000000000r		; 0
	DQ	00000000100000000r		; 2.122e-314
__unwindtable$??__FvecDropSoundFileName@@YAXXZ DD 0ffffffffH
	DD	FLAT:___std_terminate
xdata$x	ENDS
;	COMDAT xdata$x
xdata$x	SEGMENT
__ehfuncinfo$??__EskillIndexes@@YAXXZ DQ 00000002819930522r ; 8.50918e-313
	DD	FLAT:__unwindtable$??__EskillIndexes@@YAXXZ
	DQ	00000000000000000r		; 0
	DQ	00000000000000000r		; 0
	DQ	00000000100000000r		; 2.122e-314
	ORG $+4
__unwindtable$??__EskillIndexes@@YAXXZ DD 0ffffffffH
	DD	FLAT:__unwindfunclet$??__EskillIndexes@@YAXXZ$0
	DD	00H
	DD	FLAT:__unwindfunclet$??__EskillIndexes@@YAXXZ$1
	DD	01H
	DD	FLAT:__unwindfunclet$??__EskillIndexes@@YAXXZ$2
	DD	00H
	DD	FLAT:__unwindfunclet$??__EskillIndexes@@YAXXZ$2
	DD	03H
	DD	FLAT:__unwindfunclet$??__EskillIndexes@@YAXXZ$4
	DD	04H
	DD	FLAT:__unwindfunclet$??__EskillIndexes@@YAXXZ$5
	DD	05H
	DD	FLAT:__unwindfunclet$??__EskillIndexes@@YAXXZ$6
	DD	06H
	DD	FLAT:__unwindfunclet$??__EskillIndexes@@YAXXZ$7
	DD	07H
	DD	FLAT:__unwindfunclet$??__EskillIndexes@@YAXXZ$8
	DD	08H
	DD	FLAT:__unwindfunclet$??__EskillIndexes@@YAXXZ$9
	DD	07H
	DD	FLAT:__unwindfunclet$??__EskillIndexes@@YAXXZ$9
	DD	0aH
	DD	FLAT:__unwindfunclet$??__EskillIndexes@@YAXXZ$11
	DD	0bH
	DD	FLAT:__unwindfunclet$??__EskillIndexes@@YAXXZ$12
	DD	0cH
	DD	FLAT:__unwindfunclet$??__EskillIndexes@@YAXXZ$13
	DD	0dH
	DD	FLAT:__unwindfunclet$??__EskillIndexes@@YAXXZ$14
	DD	0eH
	DD	FLAT:__unwindfunclet$??__EskillIndexes@@YAXXZ$15
	DD	0fH
	DD	FLAT:__unwindfunclet$??__EskillIndexes@@YAXXZ$16
	DD	0eH
	DD	FLAT:__unwindfunclet$??__EskillIndexes@@YAXXZ$16
	DD	011H
	DD	FLAT:__unwindfunclet$??__EskillIndexes@@YAXXZ$18
	DD	012H
	DD	FLAT:__unwindfunclet$??__EskillIndexes@@YAXXZ$19
	DD	013H
	DD	FLAT:__unwindfunclet$??__EskillIndexes@@YAXXZ$20
	DD	014H
	DD	FLAT:__unwindfunclet$??__EskillIndexes@@YAXXZ$21
	DD	015H
	DD	FLAT:__unwindfunclet$??__EskillIndexes@@YAXXZ$22
	DD	016H
	DD	FLAT:__unwindfunclet$??__EskillIndexes@@YAXXZ$23
	DD	015H
	DD	FLAT:__unwindfunclet$??__EskillIndexes@@YAXXZ$23
	DD	018H
	DD	FLAT:__unwindfunclet$??__EskillIndexes@@YAXXZ$25
	DD	019H
	DD	FLAT:__unwindfunclet$??__EskillIndexes@@YAXXZ$26
	DD	05H
	DD	FLAT:__unwindfunclet$??__EskillIndexes@@YAXXZ$7
	DD	01bH
	DD	FLAT:__unwindfunclet$??__EskillIndexes@@YAXXZ$9
	DD	01cH
	DD	FLAT:__unwindfunclet$??__EskillIndexes@@YAXXZ$11
	DD	01dH
	DD	FLAT:__unwindfunclet$??__EskillIndexes@@YAXXZ$12
	DD	01eH
	DD	FLAT:__unwindfunclet$??__EskillIndexes@@YAXXZ$14
	DD	01fH
	DD	FLAT:__unwindfunclet$??__EskillIndexes@@YAXXZ$16
	DD	020H
	DD	FLAT:__unwindfunclet$??__EskillIndexes@@YAXXZ$18
	DD	021H
	DD	FLAT:__unwindfunclet$??__EskillIndexes@@YAXXZ$19
	DD	022H
	DD	FLAT:__unwindfunclet$??__EskillIndexes@@YAXXZ$21
	DD	023H
	DD	FLAT:__unwindfunclet$??__EskillIndexes@@YAXXZ$23
	DD	024H
	DD	FLAT:__unwindfunclet$??__EskillIndexes@@YAXXZ$25
	DD	025H
	DD	FLAT:__unwindfunclet$??__EskillIndexes@@YAXXZ$26
	DD	026H
	DD	FLAT:__unwindfunclet$??__EskillIndexes@@YAXXZ$28
xdata$x	ENDS
;	COMDAT xdata$x
xdata$x	SEGMENT
__ehfuncinfo$??__EguildSkills@@YAXXZ DQ 00000000a19930522r ; 2.14319e-313
	DD	FLAT:__unwindtable$??__EguildSkills@@YAXXZ
	DQ	00000000000000000r		; 0
	DQ	00000000000000000r		; 0
	DQ	00000000100000000r		; 2.122e-314
	ORG $+4
__unwindtable$??__EguildSkills@@YAXXZ DD 0ffffffffH
	DD	FLAT:__unwindfunclet$??__EguildSkills@@YAXXZ$0
	DD	00H
	DD	FLAT:__unwindfunclet$??__EguildSkills@@YAXXZ$1
	DD	01H
	DD	FLAT:__unwindfunclet$??__EguildSkills@@YAXXZ$10
	DD	01H
	DD	FLAT:__unwindfunclet$??__EguildSkills@@YAXXZ$2
	DD	03H
	DD	FLAT:__unwindfunclet$??__EguildSkills@@YAXXZ$3
	DD	04H
	DD	FLAT:__unwindfunclet$??__EguildSkills@@YAXXZ$4
	DD	05H
	DD	FLAT:__unwindfunclet$??__EguildSkills@@YAXXZ$16
	DD	01H
	DD	FLAT:__unwindfunclet$??__EguildSkills@@YAXXZ$3
	DD	07H
	DD	FLAT:__unwindfunclet$??__EguildSkills@@YAXXZ$4
	DD	08H
	DD	FLAT:__unwindfunclet$??__EguildSkills@@YAXXZ$6
xdata$x	ENDS
;	COMDAT xdata$x
xdata$x	SEGMENT
__ehfuncinfo$??$emplace@_JAAV?$basic_string@DU?$char_traits@D@std@@V?$allocator@D@2@@std@@@?$_Tree@V?$_Tmap_traits@KV?$basic_string@DU?$char_traits@D@std@@V?$allocator@D@2@@std@@U?$less@K@2@V?$allocator@U?$pair@$$CBKV?$basic_string@DU?$char_traits@D@std@@V?$allocator@D@2@@std@@@std@@@2@$0A@@std@@@std@@QAE?AU?$pair@V?$_Tree_iterator@V?$_Tree_val@U?$_Tree_simple_types@U?$pair@$$CBKV?$basic_string@DU?$char_traits@D@std@@V?$allocator@D@2@@std@@@std@@@std@@@std@@@std@@_N@1@$$QA_JAAV?$basic_string@DU?$char_traits@D@std@@V?$allocator@D@2@@1@@Z DQ 00000000319930522r ; 6.57797e-314
	DD	FLAT:__unwindtable$??$emplace@_JAAV?$basic_string@DU?$char_traits@D@std@@V?$allocator@D@2@@std@@@?$_Tree@V?$_Tmap_traits@KV?$basic_string@DU?$char_traits@D@std@@V?$allocator@D@2@@std@@U?$less@K@2@V?$allocator@U?$pair@$$CBKV?$basic_string@DU?$char_traits@D@std@@V?$allocator@D@2@@std@@@std@@@2@$0A@@std@@@std@@QAE?AU?$pair@V?$_Tree_iterator@V?$_Tree_val@U?$_Tree_simple_types@U?$pair@$$CBKV?$basic_string@DU?$char_traits@D@std@@V?$allocator@D@2@@std@@@std@@@std@@@std@@@std@@_N@1@$$QA_JAAV?$basic_string@DU?$char_traits@D@std@@V?$allocator@D@2@@1@@Z
	DQ	00000000000000000r		; 0
	DQ	00000000000000000r		; 0
	DQ	00000000100000000r		; 2.122e-314
__unwindtable$??$emplace@_JAAV?$basic_string@DU?$char_traits@D@std@@V?$allocator@D@2@@std@@@?$_Tree@V?$_Tmap_traits@KV?$basic_string@DU?$char_traits@D@std@@V?$allocator@D@2@@std@@U?$less@K@2@V?$allocator@U?$pair@$$CBKV?$basic_string@DU?$char_traits@D@std@@V?$allocator@D@2@@std@@@std@@@2@$0A@@std@@@std@@QAE?AU?$pair@V?$_Tree_iterator@V?$_Tree_val@U?$_Tree_simple_types@U?$pair@$$CBKV?$basic_string@DU?$char_traits@D@std@@V?$allocator@D@2@@std@@@std@@@std@@@std@@@std@@_N@1@$$QA_JAAV?$basic_string@DU?$char_traits@D@std@@V?$allocator@D@2@@1@@Z DD 0ffffffffH
	DD	FLAT:__unwindfunclet$??$emplace@_JAAV?$basic_string@DU?$char_traits@D@std@@V?$allocator@D@2@@std@@@?$_Tree@V?$_Tmap_traits@KV?$basic_string@DU?$char_traits@D@std@@V?$allocator@D@2@@std@@U?$less@K@2@V?$allocator@U?$pair@$$CBKV?$basic_string@DU?$char_traits@D@std@@V?$allocator@D@2@@std@@@std@@@2@$0A@@std@@@std@@QAE?AU?$pair@V?$_Tree_iterator@V?$_Tree_val@U?$_Tree_simple_types@U?$pair@$$CBKV?$basic_string@DU?$char_traits@D@std@@V?$allocator@D@2@@std@@@std@@@std@@@std@@@std@@_N@1@$$QA_JAAV?$basic_string@DU?$char_traits@D@std@@V?$allocator@D@2@@1@@Z$2
	DD	0ffffffffH
	DD	FLAT:__unwindfunclet$??$emplace@_JAAV?$basic_string@DU?$char_traits@D@std@@V?$allocator@D@2@@std@@@?$_Tree@V?$_Tmap_traits@KV?$basic_string@DU?$char_traits@D@std@@V?$allocator@D@2@@std@@U?$less@K@2@V?$allocator@U?$pair@$$CBKV?$basic_string@DU?$char_traits@D@std@@V?$allocator@D@2@@std@@@std@@@2@$0A@@std@@@std@@QAE?AU?$pair@V?$_Tree_iterator@V?$_Tree_val@U?$_Tree_simple_types@U?$pair@$$CBKV?$basic_string@DU?$char_traits@D@std@@V?$allocator@D@2@@std@@@std@@@std@@@std@@@std@@_N@1@$$QA_JAAV?$basic_string@DU?$char_traits@D@std@@V?$allocator@D@2@@1@@Z$1
	DD	0ffffffffH
	DD	FLAT:__unwindfunclet$??$emplace@_JAAV?$basic_string@DU?$char_traits@D@std@@V?$allocator@D@2@@std@@@?$_Tree@V?$_Tmap_traits@KV?$basic_string@DU?$char_traits@D@std@@V?$allocator@D@2@@std@@U?$less@K@2@V?$allocator@U?$pair@$$CBKV?$basic_string@DU?$char_traits@D@std@@V?$allocator@D@2@@std@@@std@@@2@$0A@@std@@@std@@QAE?AU?$pair@V?$_Tree_iterator@V?$_Tree_val@U?$_Tree_simple_types@U?$pair@$$CBKV?$basic_string@DU?$char_traits@D@std@@V?$allocator@D@2@@std@@@std@@@std@@@std@@@std@@_N@1@$$QA_JAAV?$basic_string@DU?$char_traits@D@std@@V?$allocator@D@2@@1@@Z$0
xdata$x	ENDS
;	COMDAT xdata$x
xdata$x	SEGMENT
__ehfuncinfo$??$insert@U?$pair@_JV?$basic_string@DU?$char_traits@D@std@@V?$allocator@D@2@@std@@@std@@$0A@@?$map@KV?$basic_string@DU?$char_traits@D@std@@V?$allocator@D@2@@std@@U?$less@K@2@V?$allocator@U?$pair@$$CBKV?$basic_string@DU?$char_traits@D@std@@V?$allocator@D@2@@std@@@std@@@2@@std@@QAE?AU?$pair@V?$_Tree_iterator@V?$_Tree_val@U?$_Tree_simple_types@U?$pair@$$CBKV?$basic_string@DU?$char_traits@D@std@@V?$allocator@D@2@@std@@@std@@@std@@@std@@@std@@_N@1@$$QAU?$pair@_JV?$basic_string@DU?$char_traits@D@std@@V?$allocator@D@2@@std@@@1@@Z DQ 00000000219930522r ; 4.45598e-314
	DD	FLAT:__unwindtable$??$insert@U?$pair@_JV?$basic_string@DU?$char_traits@D@std@@V?$allocator@D@2@@std@@@std@@$0A@@?$map@KV?$basic_string@DU?$char_traits@D@std@@V?$allocator@D@2@@std@@U?$less@K@2@V?$allocator@U?$pair@$$CBKV?$basic_string@DU?$char_traits@D@std@@V?$allocator@D@2@@std@@@std@@@2@@std@@QAE?AU?$pair@V?$_Tree_iterator@V?$_Tree_val@U?$_Tree_simple_types@U?$pair@$$CBKV?$basic_string@DU?$char_traits@D@std@@V?$allocator@D@2@@std@@@std@@@std@@@std@@@std@@_N@1@$$QAU?$pair@_JV?$basic_string@DU?$char_traits@D@std@@V?$allocator@D@2@@std@@@1@@Z
	DQ	00000000000000000r		; 0
	DQ	00000000000000000r		; 0
	DQ	00000000100000000r		; 2.122e-314
__unwindtable$??$insert@U?$pair@_JV?$basic_string@DU?$char_traits@D@std@@V?$allocator@D@2@@std@@@std@@$0A@@?$map@KV?$basic_string@DU?$char_traits@D@std@@V?$allocator@D@2@@std@@U?$less@K@2@V?$allocator@U?$pair@$$CBKV?$basic_string@DU?$char_traits@D@std@@V?$allocator@D@2@@std@@@std@@@2@@std@@QAE?AU?$pair@V?$_Tree_iterator@V?$_Tree_val@U?$_Tree_simple_types@U?$pair@$$CBKV?$basic_string@DU?$char_traits@D@std@@V?$allocator@D@2@@std@@@std@@@std@@@std@@@std@@_N@1@$$QAU?$pair@_JV?$basic_string@DU?$char_traits@D@std@@V?$allocator@D@2@@std@@@1@@Z DD 0ffffffffH
	DD	FLAT:__unwindfunclet$??$insert@U?$pair@_JV?$basic_string@DU?$char_traits@D@std@@V?$allocator@D@2@@std@@@std@@$0A@@?$map@KV?$basic_string@DU?$char_traits@D@std@@V?$allocator@D@2@@std@@U?$less@K@2@V?$allocator@U?$pair@$$CBKV?$basic_string@DU?$char_traits@D@std@@V?$allocator@D@2@@std@@@std@@@2@@std@@QAE?AU?$pair@V?$_Tree_iterator@V?$_Tree_val@U?$_Tree_simple_types@U?$pair@$$CBKV?$basic_string@DU?$char_traits@D@std@@V?$allocator@D@2@@std@@@std@@@std@@@std@@@std@@_N@1@$$QAU?$pair@_JV?$basic_string@DU?$char_traits@D@std@@V?$allocator@D@2@@std@@@1@@Z$2
	DD	0ffffffffH
	DD	FLAT:__unwindfunclet$??$insert@U?$pair@_JV?$basic_string@DU?$char_traits@D@std@@V?$allocator@D@2@@std@@@std@@$0A@@?$map@KV?$basic_string@DU?$char_traits@D@std@@V?$allocator@D@2@@std@@U?$less@K@2@V?$allocator@U?$pair@$$CBKV?$basic_string@DU?$char_traits@D@std@@V?$allocator@D@2@@std@@@std@@@2@@std@@QAE?AU?$pair@V?$_Tree_iterator@V?$_Tree_val@U?$_Tree_simple_types@U?$pair@$$CBKV?$basic_string@DU?$char_traits@D@std@@V?$allocator@D@2@@std@@@std@@@std@@@std@@@std@@_N@1@$$QAU?$pair@_JV?$basic_string@DU?$char_traits@D@std@@V?$allocator@D@2@@std@@@1@@Z$0
xdata$x	ENDS
;	COMDAT xdata$x
xdata$x	SEGMENT
__ehfuncinfo$??$_Emplace@_JAAV?$basic_string@DU?$char_traits@D@std@@V?$allocator@D@2@@std@@@?$_Tree@V?$_Tmap_traits@KV?$basic_string@DU?$char_traits@D@std@@V?$allocator@D@2@@std@@U?$less@K@2@V?$allocator@U?$pair@$$CBKV?$basic_string@DU?$char_traits@D@std@@V?$allocator@D@2@@std@@@std@@@2@$0A@@std@@@std@@IAE?AU?$pair@PAU?$_Tree_node@U?$pair@$$CBKV?$basic_string@DU?$char_traits@D@std@@V?$allocator@D@2@@std@@@std@@PAX@std@@_N@1@$$QA_JAAV?$basic_string@DU?$char_traits@D@std@@V?$allocator@D@2@@1@@Z DQ 00000000319930522r ; 6.57797e-314
	DD	FLAT:__unwindtable$??$_Emplace@_JAAV?$basic_string@DU?$char_traits@D@std@@V?$allocator@D@2@@std@@@?$_Tree@V?$_Tmap_traits@KV?$basic_string@DU?$char_traits@D@std@@V?$allocator@D@2@@std@@U?$less@K@2@V?$allocator@U?$pair@$$CBKV?$basic_string@DU?$char_traits@D@std@@V?$allocator@D@2@@std@@@std@@@2@$0A@@std@@@std@@IAE?AU?$pair@PAU?$_Tree_node@U?$pair@$$CBKV?$basic_string@DU?$char_traits@D@std@@V?$allocator@D@2@@std@@@std@@PAX@std@@_N@1@$$QA_JAAV?$basic_string@DU?$char_traits@D@std@@V?$allocator@D@2@@1@@Z
	DQ	00000000000000000r		; 0
	DQ	00000000000000000r		; 0
	DQ	00000000100000000r		; 2.122e-314
__unwindtable$??$_Emplace@_JAAV?$basic_string@DU?$char_traits@D@std@@V?$allocator@D@2@@std@@@?$_Tree@V?$_Tmap_traits@KV?$basic_string@DU?$char_traits@D@std@@V?$allocator@D@2@@std@@U?$less@K@2@V?$allocator@U?$pair@$$CBKV?$basic_string@DU?$char_traits@D@std@@V?$allocator@D@2@@std@@@std@@@2@$0A@@std@@@std@@IAE?AU?$pair@PAU?$_Tree_node@U?$pair@$$CBKV?$basic_string@DU?$char_traits@D@std@@V?$allocator@D@2@@std@@@std@@PAX@std@@_N@1@$$QA_JAAV?$basic_string@DU?$char_traits@D@std@@V?$allocator@D@2@@1@@Z DD 0ffffffffH
	DD	FLAT:__unwindfunclet$??$_Emplace@_JAAV?$basic_string@DU?$char_traits@D@std@@V?$allocator@D@2@@std@@@?$_Tree@V?$_Tmap_traits@KV?$basic_string@DU?$char_traits@D@std@@V?$allocator@D@2@@std@@U?$less@K@2@V?$allocator@U?$pair@$$CBKV?$basic_string@DU?$char_traits@D@std@@V?$allocator@D@2@@std@@@std@@@2@$0A@@std@@@std@@IAE?AU?$pair@PAU?$_Tree_node@U?$pair@$$CBKV?$basic_string@DU?$char_traits@D@std@@V?$allocator@D@2@@std@@@std@@PAX@std@@_N@1@$$QA_JAAV?$basic_string@DU?$char_traits@D@std@@V?$allocator@D@2@@1@@Z$2
	DD	0ffffffffH
	DD	FLAT:__unwindfunclet$??$_Emplace@_JAAV?$basic_string@DU?$char_traits@D@std@@V?$allocator@D@2@@std@@@?$_Tree@V?$_Tmap_traits@KV?$basic_string@DU?$char_traits@D@std@@V?$allocator@D@2@@std@@U?$less@K@2@V?$allocator@U?$pair@$$CBKV?$basic_string@DU?$char_traits@D@std@@V?$allocator@D@2@@std@@@std@@@2@$0A@@std@@@std@@IAE?AU?$pair@PAU?$_Tree_node@U?$pair@$$CBKV?$basic_string@DU?$char_traits@D@std@@V?$allocator@D@2@@std@@@std@@PAX@std@@_N@1@$$QA_JAAV?$basic_string@DU?$char_traits@D@std@@V?$allocator@D@2@@1@@Z$1
	DD	0ffffffffH
	DD	FLAT:__unwindfunclet$??$_Emplace@_JAAV?$basic_string@DU?$char_traits@D@std@@V?$allocator@D@2@@std@@@?$_Tree@V?$_Tmap_traits@KV?$basic_string@DU?$char_traits@D@std@@V?$allocator@D@2@@std@@U?$less@K@2@V?$allocator@U?$pair@$$CBKV?$basic_string@DU?$char_traits@D@std@@V?$allocator@D@2@@std@@@std@@@2@$0A@@std@@@std@@IAE?AU?$pair@PAU?$_Tree_node@U?$pair@$$CBKV?$basic_string@DU?$char_traits@D@std@@V?$allocator@D@2@@std@@@std@@PAX@std@@_N@1@$$QA_JAAV?$basic_string@DU?$char_traits@D@std@@V?$allocator@D@2@@1@@Z$0
xdata$x	ENDS
;	COMDAT xdata$x
xdata$x	SEGMENT
__ehfuncinfo$??$emplace@U?$pair@_JV?$basic_string@DU?$char_traits@D@std@@V?$allocator@D@2@@std@@@std@@@?$_Tree@V?$_Tmap_traits@KV?$basic_string@DU?$char_traits@D@std@@V?$allocator@D@2@@std@@U?$less@K@2@V?$allocator@U?$pair@$$CBKV?$basic_string@DU?$char_traits@D@std@@V?$allocator@D@2@@std@@@std@@@2@$0A@@std@@@std@@QAE?AU?$pair@V?$_Tree_iterator@V?$_Tree_val@U?$_Tree_simple_types@U?$pair@$$CBKV?$basic_string@DU?$char_traits@D@std@@V?$allocator@D@2@@std@@@std@@@std@@@std@@@std@@_N@1@$$QAU?$pair@_JV?$basic_string@DU?$char_traits@D@std@@V?$allocator@D@2@@std@@@1@@Z DQ 00000000219930522r ; 4.45598e-314
	DD	FLAT:__unwindtable$??$emplace@U?$pair@_JV?$basic_string@DU?$char_traits@D@std@@V?$allocator@D@2@@std@@@std@@@?$_Tree@V?$_Tmap_traits@KV?$basic_string@DU?$char_traits@D@std@@V?$allocator@D@2@@std@@U?$less@K@2@V?$allocator@U?$pair@$$CBKV?$basic_string@DU?$char_traits@D@std@@V?$allocator@D@2@@std@@@std@@@2@$0A@@std@@@std@@QAE?AU?$pair@V?$_Tree_iterator@V?$_Tree_val@U?$_Tree_simple_types@U?$pair@$$CBKV?$basic_string@DU?$char_traits@D@std@@V?$allocator@D@2@@std@@@std@@@std@@@std@@@std@@_N@1@$$QAU?$pair@_JV?$basic_string@DU?$char_traits@D@std@@V?$allocator@D@2@@std@@@1@@Z
	DQ	00000000000000000r		; 0
	DQ	00000000000000000r		; 0
	DQ	00000000100000000r		; 2.122e-314
__unwindtable$??$emplace@U?$pair@_JV?$basic_string@DU?$char_traits@D@std@@V?$allocator@D@2@@std@@@std@@@?$_Tree@V?$_Tmap_traits@KV?$basic_string@DU?$char_traits@D@std@@V?$allocator@D@2@@std@@U?$less@K@2@V?$allocator@U?$pair@$$CBKV?$basic_string@DU?$char_traits@D@std@@V?$allocator@D@2@@std@@@std@@@2@$0A@@std@@@std@@QAE?AU?$pair@V?$_Tree_iterator@V?$_Tree_val@U?$_Tree_simple_types@U?$pair@$$CBKV?$basic_string@DU?$char_traits@D@std@@V?$allocator@D@2@@std@@@std@@@std@@@std@@@std@@_N@1@$$QAU?$pair@_JV?$basic_string@DU?$char_traits@D@std@@V?$allocator@D@2@@std@@@1@@Z DD 0ffffffffH
	DD	FLAT:__unwindfunclet$??$emplace@U?$pair@_JV?$basic_string@DU?$char_traits@D@std@@V?$allocator@D@2@@std@@@std@@@?$_Tree@V?$_Tmap_traits@KV?$basic_string@DU?$char_traits@D@std@@V?$allocator@D@2@@std@@U?$less@K@2@V?$allocator@U?$pair@$$CBKV?$basic_string@DU?$char_traits@D@std@@V?$allocator@D@2@@std@@@std@@@2@$0A@@std@@@std@@QAE?AU?$pair@V?$_Tree_iterator@V?$_Tree_val@U?$_Tree_simple_types@U?$pair@$$CBKV?$basic_string@DU?$char_traits@D@std@@V?$allocator@D@2@@std@@@std@@@std@@@std@@@std@@_N@1@$$QAU?$pair@_JV?$basic_string@DU?$char_traits@D@std@@V?$allocator@D@2@@std@@@1@@Z$2
	DD	0ffffffffH
	DD	FLAT:__unwindfunclet$??$emplace@U?$pair@_JV?$basic_string@DU?$char_traits@D@std@@V?$allocator@D@2@@std@@@std@@@?$_Tree@V?$_Tmap_traits@KV?$basic_string@DU?$char_traits@D@std@@V?$allocator@D@2@@std@@U?$less@K@2@V?$allocator@U?$pair@$$CBKV?$basic_string@DU?$char_traits@D@std@@V?$allocator@D@2@@std@@@std@@@2@$0A@@std@@@std@@QAE?AU?$pair@V?$_Tree_iterator@V?$_Tree_val@U?$_Tree_simple_types@U?$pair@$$CBKV?$basic_string@DU?$char_traits@D@std@@V?$allocator@D@2@@std@@@std@@@std@@@std@@@std@@_N@1@$$QAU?$pair@_JV?$basic_string@DU?$char_traits@D@std@@V?$allocator@D@2@@std@@@1@@Z$0
xdata$x	ENDS
;	COMDAT xdata$x
xdata$x	SEGMENT
__ehfuncinfo$??$?0_JAAV?$basic_string@DU?$char_traits@D@std@@V?$allocator@D@2@@std@@@?$_Tree_temp_node@V?$allocator@U?$_Tree_node@U?$pair@$$CBKV?$basic_string@DU?$char_traits@D@std@@V?$allocator@D@2@@std@@@std@@PAX@std@@@std@@@std@@QAE@AAV?$allocator@U?$_Tree_node@U?$pair@$$CBKV?$basic_string@DU?$char_traits@D@std@@V?$allocator@D@2@@std@@@std@@PAX@std@@@1@PAU?$_Tree_node@U?$pair@$$CBKV?$basic_string@DU?$char_traits@D@std@@V?$allocator@D@2@@std@@@std@@PAX@1@$$QA_JAAV?$basic_string@DU?$char_traits@D@std@@V?$allocator@D@2@@1@@Z DQ 00000000219930522r ; 4.45598e-314
	DD	FLAT:__unwindtable$??$?0_JAAV?$basic_string@DU?$char_traits@D@std@@V?$allocator@D@2@@std@@@?$_Tree_temp_node@V?$allocator@U?$_Tree_node@U?$pair@$$CBKV?$basic_string@DU?$char_traits@D@std@@V?$allocator@D@2@@std@@@std@@PAX@std@@@std@@@std@@QAE@AAV?$allocator@U?$_Tree_node@U?$pair@$$CBKV?$basic_string@DU?$char_traits@D@std@@V?$allocator@D@2@@std@@@std@@PAX@std@@@1@PAU?$_Tree_node@U?$pair@$$CBKV?$basic_string@DU?$char_traits@D@std@@V?$allocator@D@2@@std@@@std@@PAX@1@$$QA_JAAV?$basic_string@DU?$char_traits@D@std@@V?$allocator@D@2@@1@@Z
	DQ	00000000000000000r		; 0
	DQ	00000000000000000r		; 0
	DQ	00000000100000000r		; 2.122e-314
__unwindtable$??$?0_JAAV?$basic_string@DU?$char_traits@D@std@@V?$allocator@D@2@@std@@@?$_Tree_temp_node@V?$allocator@U?$_Tree_node@U?$pair@$$CBKV?$basic_string@DU?$char_traits@D@std@@V?$allocator@D@2@@std@@@std@@PAX@std@@@std@@@std@@QAE@AAV?$allocator@U?$_Tree_node@U?$pair@$$CBKV?$basic_string@DU?$char_traits@D@std@@V?$allocator@D@2@@std@@@std@@PAX@std@@@1@PAU?$_Tree_node@U?$pair@$$CBKV?$basic_string@DU?$char_traits@D@std@@V?$allocator@D@2@@std@@@std@@PAX@1@$$QA_JAAV?$basic_string@DU?$char_traits@D@std@@V?$allocator@D@2@@1@@Z DD 0ffffffffH
	DD	FLAT:__unwindfunclet$??$?0_JAAV?$basic_string@DU?$char_traits@D@std@@V?$allocator@D@2@@std@@@?$_Tree_temp_node@V?$allocator@U?$_Tree_node@U?$pair@$$CBKV?$basic_string@DU?$char_traits@D@std@@V?$allocator@D@2@@std@@@std@@PAX@std@@@std@@@std@@QAE@AAV?$allocator@U?$_Tree_node@U?$pair@$$CBKV?$basic_string@DU?$char_traits@D@std@@V?$allocator@D@2@@std@@@std@@PAX@std@@@1@PAU?$_Tree_node@U?$pair@$$CBKV?$basic_string@DU?$char_traits@D@std@@V?$allocator@D@2@@std@@@std@@PAX@1@$$QA_JAAV?$basic_string@DU?$char_traits@D@std@@V?$allocator@D@2@@1@@Z$1
	DD	0ffffffffH
	DD	FLAT:__unwindfunclet$??$?0_JAAV?$basic_string@DU?$char_traits@D@std@@V?$allocator@D@2@@std@@@?$_Tree_temp_node@V?$allocator@U?$_Tree_node@U?$pair@$$CBKV?$basic_string@DU?$char_traits@D@std@@V?$allocator@D@2@@std@@@std@@PAX@std@@@std@@@std@@QAE@AAV?$allocator@U?$_Tree_node@U?$pair@$$CBKV?$basic_string@DU?$char_traits@D@std@@V?$allocator@D@2@@std@@@std@@PAX@std@@@1@PAU?$_Tree_node@U?$pair@$$CBKV?$basic_string@DU?$char_traits@D@std@@V?$allocator@D@2@@std@@@std@@PAX@1@$$QA_JAAV?$basic_string@DU?$char_traits@D@std@@V?$allocator@D@2@@1@@Z$0
xdata$x	ENDS
;	COMDAT xdata$x
xdata$x	SEGMENT
__ehfuncinfo$??$_Emplace@U?$pair@_JV?$basic_string@DU?$char_traits@D@std@@V?$allocator@D@2@@std@@@std@@@?$_Tree@V?$_Tmap_traits@KV?$basic_string@DU?$char_traits@D@std@@V?$allocator@D@2@@std@@U?$less@K@2@V?$allocator@U?$pair@$$CBKV?$basic_string@DU?$char_traits@D@std@@V?$allocator@D@2@@std@@@std@@@2@$0A@@std@@@std@@IAE?AU?$pair@PAU?$_Tree_node@U?$pair@$$CBKV?$basic_string@DU?$char_traits@D@std@@V?$allocator@D@2@@std@@@std@@PAX@std@@_N@1@$$QAU?$pair@_JV?$basic_string@DU?$char_traits@D@std@@V?$allocator@D@2@@std@@@1@@Z DQ 00000000219930522r ; 4.45598e-314
	DD	FLAT:__unwindtable$??$_Emplace@U?$pair@_JV?$basic_string@DU?$char_traits@D@std@@V?$allocator@D@2@@std@@@std@@@?$_Tree@V?$_Tmap_traits@KV?$basic_string@DU?$char_traits@D@std@@V?$allocator@D@2@@std@@U?$less@K@2@V?$allocator@U?$pair@$$CBKV?$basic_string@DU?$char_traits@D@std@@V?$allocator@D@2@@std@@@std@@@2@$0A@@std@@@std@@IAE?AU?$pair@PAU?$_Tree_node@U?$pair@$$CBKV?$basic_string@DU?$char_traits@D@std@@V?$allocator@D@2@@std@@@std@@PAX@std@@_N@1@$$QAU?$pair@_JV?$basic_string@DU?$char_traits@D@std@@V?$allocator@D@2@@std@@@1@@Z
	DQ	00000000000000000r		; 0
	DQ	00000000000000000r		; 0
	DQ	00000000100000000r		; 2.122e-314
__unwindtable$??$_Emplace@U?$pair@_JV?$basic_string@DU?$char_traits@D@std@@V?$allocator@D@2@@std@@@std@@@?$_Tree@V?$_Tmap_traits@KV?$basic_string@DU?$char_traits@D@std@@V?$allocator@D@2@@std@@U?$less@K@2@V?$allocator@U?$pair@$$CBKV?$basic_string@DU?$char_traits@D@std@@V?$allocator@D@2@@std@@@std@@@2@$0A@@std@@@std@@IAE?AU?$pair@PAU?$_Tree_node@U?$pair@$$CBKV?$basic_string@DU?$char_traits@D@std@@V?$allocator@D@2@@std@@@std@@PAX@std@@_N@1@$$QAU?$pair@_JV?$basic_string@DU?$char_traits@D@std@@V?$allocator@D@2@@std@@@1@@Z DD 0ffffffffH
	DD	FLAT:__unwindfunclet$??$_Emplace@U?$pair@_JV?$basic_string@DU?$char_traits@D@std@@V?$allocator@D@2@@std@@@std@@@?$_Tree@V?$_Tmap_traits@KV?$basic_string@DU?$char_traits@D@std@@V?$allocator@D@2@@std@@U?$less@K@2@V?$allocator@U?$pair@$$CBKV?$basic_string@DU?$char_traits@D@std@@V?$allocator@D@2@@std@@@std@@@2@$0A@@std@@@std@@IAE?AU?$pair@PAU?$_Tree_node@U?$pair@$$CBKV?$basic_string@DU?$char_traits@D@std@@V?$allocator@D@2@@std@@@std@@PAX@std@@_N@1@$$QAU?$pair@_JV?$basic_string@DU?$char_traits@D@std@@V?$allocator@D@2@@std@@@1@@Z$2
	DD	0ffffffffH
	DD	FLAT:__unwindfunclet$??$_Emplace@U?$pair@_JV?$basic_string@DU?$char_traits@D@std@@V?$allocator@D@2@@std@@@std@@@?$_Tree@V?$_Tmap_traits@KV?$basic_string@DU?$char_traits@D@std@@V?$allocator@D@2@@std@@U?$less@K@2@V?$allocator@U?$pair@$$CBKV?$basic_string@DU?$char_traits@D@std@@V?$allocator@D@2@@std@@@std@@@2@$0A@@std@@@std@@IAE?AU?$pair@PAU?$_Tree_node@U?$pair@$$CBKV?$basic_string@DU?$char_traits@D@std@@V?$allocator@D@2@@std@@@std@@PAX@std@@_N@1@$$QAU?$pair@_JV?$basic_string@DU?$char_traits@D@std@@V?$allocator@D@2@@std@@@1@@Z$0
xdata$x	ENDS
;	COMDAT xdata$x
xdata$x	SEGMENT
__ehfuncinfo$??$?0U?$pair@_JV?$basic_string@DU?$char_traits@D@std@@V?$allocator@D@2@@std@@@std@@@?$_Tree_temp_node@V?$allocator@U?$_Tree_node@U?$pair@$$CBKV?$basic_string@DU?$char_traits@D@std@@V?$allocator@D@2@@std@@@std@@PAX@std@@@std@@@std@@QAE@AAV?$allocator@U?$_Tree_node@U?$pair@$$CBKV?$basic_string@DU?$char_traits@D@std@@V?$allocator@D@2@@std@@@std@@PAX@std@@@1@PAU?$_Tree_node@U?$pair@$$CBKV?$basic_string@DU?$char_traits@D@std@@V?$allocator@D@2@@std@@@std@@PAX@1@$$QAU?$pair@_JV?$basic_string@DU?$char_traits@D@std@@V?$allocator@D@2@@std@@@1@@Z DQ 00000000119930522r ; 2.33398e-314
	DD	FLAT:__unwindtable$??$?0U?$pair@_JV?$basic_string@DU?$char_traits@D@std@@V?$allocator@D@2@@std@@@std@@@?$_Tree_temp_node@V?$allocator@U?$_Tree_node@U?$pair@$$CBKV?$basic_string@DU?$char_traits@D@std@@V?$allocator@D@2@@std@@@std@@PAX@std@@@std@@@std@@QAE@AAV?$allocator@U?$_Tree_node@U?$pair@$$CBKV?$basic_string@DU?$char_traits@D@std@@V?$allocator@D@2@@std@@@std@@PAX@std@@@1@PAU?$_Tree_node@U?$pair@$$CBKV?$basic_string@DU?$char_traits@D@std@@V?$allocator@D@2@@std@@@std@@PAX@1@$$QAU?$pair@_JV?$basic_string@DU?$char_traits@D@std@@V?$allocator@D@2@@std@@@1@@Z
	DQ	00000000000000000r		; 0
	DQ	00000000000000000r		; 0
	DQ	00000000100000000r		; 2.122e-314
__unwindtable$??$?0U?$pair@_JV?$basic_string@DU?$char_traits@D@std@@V?$allocator@D@2@@std@@@std@@@?$_Tree_temp_node@V?$allocator@U?$_Tree_node@U?$pair@$$CBKV?$basic_string@DU?$char_traits@D@std@@V?$allocator@D@2@@std@@@std@@PAX@std@@@std@@@std@@QAE@AAV?$allocator@U?$_Tree_node@U?$pair@$$CBKV?$basic_string@DU?$char_traits@D@std@@V?$allocator@D@2@@std@@@std@@PAX@std@@@1@PAU?$_Tree_node@U?$pair@$$CBKV?$basic_string@DU?$char_traits@D@std@@V?$allocator@D@2@@std@@@std@@PAX@1@$$QAU?$pair@_JV?$basic_string@DU?$char_traits@D@std@@V?$allocator@D@2@@std@@@1@@Z DD 0ffffffffH
	DD	FLAT:__unwindfunclet$??$?0U?$pair@_JV?$basic_string@DU?$char_traits@D@std@@V?$allocator@D@2@@std@@@std@@@?$_Tree_temp_node@V?$allocator@U?$_Tree_node@U?$pair@$$CBKV?$basic_string@DU?$char_traits@D@std@@V?$allocator@D@2@@std@@@std@@PAX@std@@@std@@@std@@QAE@AAV?$allocator@U?$_Tree_node@U?$pair@$$CBKV?$basic_string@DU?$char_traits@D@std@@V?$allocator@D@2@@std@@@std@@PAX@std@@@1@PAU?$_Tree_node@U?$pair@$$CBKV?$basic_string@DU?$char_traits@D@std@@V?$allocator@D@2@@std@@@std@@PAX@1@$$QAU?$pair@_JV?$basic_string@DU?$char_traits@D@std@@V?$allocator@D@2@@std@@@1@@Z$1
?gs_fieldMusic_volume@@3MA DD 03ca3d70br	; 0.02	; gs_fieldMusic_volume
	ORG $+4
?vecUseSoundFileName@@3V?$array@U?$pair@KV?$basic_string@DU?$char_traits@D@std@@V?$allocator@D@2@@std@@@std@@$06@std@@B DQ 00000000000000001r ; 4.94066e-324 ; vecUseSoundFileName
	DQ	00000000000000000r		; 0
	DQ	00000000000000000r		; 0
	DQ	00000000000000000r		; 0
	DQ	00000000000000000r		; 0
	DQ	00000000000000000r		; 0
	DQ	00000000000000000r		; 0
	DQ	00000000000000000r		; 0
	DQ	00000000000000000r		; 0
	DQ	00000000000000000r		; 0
	DQ	00000000000000000r		; 0
	DQ	00000000000000000r		; 0
	DQ	00000000000000000r		; 0
	DQ	00000000000000000r		; 0
	DQ	00000000000000000r		; 0
	DQ	00000000000000000r		; 0
	DQ	00000000000000000r		; 0
	DQ	00000000000000000r		; 0
	DQ	00000000000000000r		; 0
	DQ	00000000000000000r		; 0
	DQ	00000000000000000r		; 0
	DQ	00000000000000000r		; 0
	DQ	00000000000000000r		; 0
	DQ	00000000000000000r		; 0
	DD	00H
?gs_fieldMusic_fileName@@3V?$basic_string@DU?$char_traits@D@std@@V?$allocator@D@2@@std@@A DB 00H ; gs_fieldMusic_fileName
	DB	00H
	DB	00H
	DB	00H
	DB	00H
	DB	00H
	DB	00H
	DB	00H
	DB	00H
	DB	00H
	DB	00H
	DB	00H
	DB	00H
	DB	00H
	DB	00H
	DB	00H
	DD	00H
	DD	0fH
?vecUseSoundFileName$initializer$@@3P6AXXZA DD FLAT:??__EvecUseSoundFileName@@YAXXZ ; vecUseSoundFileName$initializer$
?vecDropSoundFileName$initializer$@@3P6AXXZA DD FLAT:??__EvecDropSoundFileName@@YAXXZ ; vecDropSoundFileName$initializer$
?vecEffectList$initializer$@@3P6AXXZA DD FLAT:??__EvecEffectList@@YAXXZ ; vecEffectList$initializer$
?characterNameColors$initializer$@@3P6AXXZA DD FLAT:??__EcharacterNameColors@@YAXXZ ; characterNameColors$initializer$
?characterTitleColors$initializer$@@3P6AXXZA DD FLAT:??__EcharacterTitleColors@@YAXXZ ; characterTitleColors$initializer$
?characterTitleSystemColors$initializer$@@3P6AXXZA DD FLAT:??__EcharacterTitleSystemColors@@YAXXZ ; characterTitleSystemColors$initializer$
?emotionIcons$initializer$@@3P6AXXZA DD FLAT:??__EemotionIcons@@YAXXZ ; emotionIcons$initializer$
?skillIndexes$initializer$@@3P6AXXZA DD FLAT:??__EskillIndexes@@YAXXZ ; skillIndexes$initializer$
?guildSkills$initializer$@@3P6AXXZA DD FLAT:??__EguildSkills@@YAXXZ ; guildSkills$initializer$
?gs_fieldMusic_fileName$initializer$@@3P6AXXZA DD FLAT:??__Egs_fieldMusic_fileName@@YAXXZ ; gs_fieldMusic_fileName$initializer$
; Function compile flags: /Ogtp
; File C:\Anka2Project\Anka2Project\Source\Binary\source\UserInterface\PythonNetworkStreamPhaseLoading.cpp
;	COMDAT ?SendPythonData@CPythonNetworkStream@@QAEXPAU_object@@PBD@Z
_TEXT	SEGMENT
_obj$ = 8						; size = 4
_funcname$dead$ = 12					; size = 4
?SendPythonData@CPythonNetworkStream@@QAEXPAU_object@@PBD@Z PROC ; CPythonNetworkStream::SendPythonData, COMDAT
; _this$ = ecx

; 509  : {

  00000	55		 push	 ebp
  00001	8b ec		 mov	 ebp, esp
  00003	56		 push	 esi

; 510  : 	PyCallClassMemberFunc(m_apoPhaseWnd[PHASE_WINDOW_LOGIN], funcname, Py_BuildValue("(O)", obj));

  00004	ff 75 08	 push	 DWORD PTR _obj$[ebp]
  00007	8b f1		 mov	 esi, ecx
  00009	68 00 00 00 00	 push	 OFFSET ??_C@_03IELNPCCE@?$CIO?$CJ@
  0000e	ff 15 00 00 00
	00		 call	 DWORD PTR __imp__Py_BuildValue
  00014	50		 push	 eax
  00015	68 00 00 00 00	 push	 OFFSET ??_C@_0BM@KEIKDNAE@BINARY_SetGuildBuildingList@
  0001a	ff b6 88 01 00
	00		 push	 DWORD PTR [esi+392]
  00020	e8 00 00 00 00	 call	 ?PyCallClassMemberFunc@@YA_NPAU_object@@PBD0@Z ; PyCallClassMemberFunc
  00025	83 c4 14	 add	 esp, 20			; 00000014H
  00028	5e		 pop	 esi

; 511  : }

  00029	5d		 pop	 ebp
  0002a	c2 08 00	 ret	 8
?SendPythonData@CPythonNetworkStream@@QAEXPAU_object@@PBD@Z ENDP ; CPythonNetworkStream::SendPythonData
_TEXT	ENDS
; Function compile flags: /Ogtp
; File C:\Anka2Project\Anka2Project\Source\Binary\source\UserInterface\PythonNetworkStreamPhaseLoading.cpp
; File C:\Anka2Project\Anka2Project\Source\Binary\source\eterBase\Singleton.h
; File C:\Anka2Project\Anka2Project\Source\Binary\source\UserInterface\PythonNetworkStreamPhaseLoading.cpp
;	COMDAT ?__RecvPlayerPoints@CPythonNetworkStream@@IAE_NXZ
_TEXT	SEGMENT
_PointsPacket$ = -2056					; size = 2041
__$ArrayPad$ = -4					; size = 4
?__RecvPlayerPoints@CPythonNetworkStream@@IAE_NXZ PROC	; CPythonNetworkStream::__RecvPlayerPoints, COMDAT
; _this$ = ecx

; 455  : {

  00000	55		 push	 ebp
  00001	8b ec		 mov	 ebp, esp
  00003	83 e4 f8	 and	 esp, -8			; fffffff8H
  00006	81 ec 08 08 00
	00		 sub	 esp, 2056		; 00000808H
  0000c	a1 00 00 00 00	 mov	 eax, DWORD PTR ___security_cookie
  00011	33 c4		 xor	 eax, esp
  00013	89 84 24 04 08
	00 00		 mov	 DWORD PTR __$ArrayPad$[esp+2056], eax
  0001a	56		 push	 esi
  0001b	57		 push	 edi

; 456  : 	TPacketGCPoints PointsPacket;
; 457  : 
; 458  : 	if (!Recv(sizeof(TPacketGCPoints), &PointsPacket))

  0001c	8d 44 24 08	 lea	 eax, DWORD PTR _PointsPacket$[esp+2064]
  00020	8b f9		 mov	 edi, ecx
  00022	50		 push	 eax
  00023	68 f9 07 00 00	 push	 2041			; 000007f9H
  00028	e8 00 00 00 00	 call	 ?Recv@CNetworkStream@@QAE_NHPAX@Z ; CNetworkStream::Recv
  0002d	84 c0		 test	 al, al
  0002f	75 14		 jne	 SHORT $LN5@RecvPlayer

; 478  : 	return true;
; 479  : }

  00031	5f		 pop	 edi
  00032	5e		 pop	 esi
  00033	8b 8c 24 04 08
	00 00		 mov	 ecx, DWORD PTR __$ArrayPad$[esp+2056]
  0003a	33 cc		 xor	 ecx, esp
  0003c	e8 00 00 00 00	 call	 @__security_check_cookie@4
  00041	8b e5		 mov	 esp, ebp
  00043	5d		 pop	 ebp
  00044	c3		 ret	 0
$LN5@RecvPlayer:

; 459  : 		return false;
; 460  : 
; 461  : 	for (DWORD i = 0; i < POINT_MAX_NUM; ++i)

  00045	33 f6		 xor	 esi, esi
  00047	66 0f 1f 84 00
	00 00 00 00	 npad	 9
$LL4@RecvPlayer:
; File C:\Anka2Project\Anka2Project\Source\Binary\source\eterBase\Singleton.h

; 26   : 		assert(ms_singleton);

  00050	8b 0d 00 00 00
	00		 mov	 ecx, DWORD PTR ?ms_singleton@?$CSingleton@VCPythonPlayer@@@@0PAVCPythonPlayer@@A ; CSingleton<CPythonPlayer>::ms_singleton
  00056	85 c9		 test	 ecx, ecx
  00058	75 1a		 jne	 SHORT $LN18@RecvPlayer
  0005a	6a 1a		 push	 26			; 0000001aH
  0005c	68 00 00 00 00	 push	 OFFSET ??_C@_1IO@CAJLEEOI@?$AAC?$AA?3?$AA?2?$AAA?$AAn?$AAk?$AAa?$AA2?$AAP?$AAr?$AAo?$AAj?$AAe?$AAc?$AAt@
  00061	68 00 00 00 00	 push	 OFFSET ??_C@_1BK@FMEHPMFE@?$AAm?$AAs?$AA_?$AAs?$AAi?$AAn?$AAg?$AAl?$AAe?$AAt?$AAo?$AAn@
  00066	e8 00 00 00 00	 call	 __wassert
  0006b	8b 0d 00 00 00
	00		 mov	 ecx, DWORD PTR ?ms_singleton@?$CSingleton@VCPythonPlayer@@@@0PAVCPythonPlayer@@A ; CSingleton<CPythonPlayer>::ms_singleton
  00071	83 c4 0c	 add	 esp, 12			; 0000000cH
$LN18@RecvPlayer:
; File C:\Anka2Project\Anka2Project\Source\Binary\source\UserInterface\PythonNetworkStreamPhaseLoading.cpp

; 463  : 		CPythonPlayer::Instance().SetStatus(i, PointsPacket.points[i]);

  00074	ff 74 f4 0d	 push	 DWORD PTR _PointsPacket$[esp+esi*8+2069]
  00078	ff 74 f4 0d	 push	 DWORD PTR _PointsPacket$[esp+esi*8+2069]
  0007c	56		 push	 esi
  0007d	e8 00 00 00 00	 call	 ?SetStatus@CPythonPlayer@@QAEXK_J@Z ; CPythonPlayer::SetStatus

; 464  : 		if (i == POINT_LEVEL)

  00082	83 fe 01	 cmp	 esi, 1
  00085	75 15		 jne	 SHORT $LN6@RecvPlayer

; 465  : 			m_akSimplePlayerInfo[m_dwSelectedCharacterIndex].byLevel = PointsPacket.points[i];

  00087	6b 8f 2c 7a 00
	00 64		 imul	 ecx, DWORD PTR [edi+31276], 100
  0008e	46		 inc	 esi
  0008f	8b 44 24 11	 mov	 eax, DWORD PTR _PointsPacket$[esp+2073]
  00093	89 84 39 da 01
	00 00		 mov	 DWORD PTR [ecx+edi+474], eax
  0009a	eb b4		 jmp	 SHORT $LL4@RecvPlayer
$LN6@RecvPlayer:

; 466  : 		else if (i == POINT_ST)

  0009c	83 fe 0c	 cmp	 esi, 12			; 0000000cH
  0009f	75 15		 jne	 SHORT $LN8@RecvPlayer

; 467  : 			m_akSimplePlayerInfo[m_dwSelectedCharacterIndex].byST = PointsPacket.points[i];

  000a1	6b 8f 2c 7a 00
	00 64		 imul	 ecx, DWORD PTR [edi+31276], 100
  000a8	46		 inc	 esi
  000a9	8a 44 24 69	 mov	 al, BYTE PTR _PointsPacket$[esp+2161]
  000ad	88 84 39 e2 01
	00 00		 mov	 BYTE PTR [ecx+edi+482], al
  000b4	eb 9a		 jmp	 SHORT $LL4@RecvPlayer
$LN8@RecvPlayer:

; 468  : 		else if (i == POINT_HT)

  000b6	83 fe 0d	 cmp	 esi, 13			; 0000000dH
  000b9	75 15		 jne	 SHORT $LN10@RecvPlayer

; 469  : 			m_akSimplePlayerInfo[m_dwSelectedCharacterIndex].byHT = PointsPacket.points[i];

  000bb	6b 8f 2c 7a 00
	00 64		 imul	 ecx, DWORD PTR [edi+31276], 100
  000c2	46		 inc	 esi
  000c3	8a 44 24 71	 mov	 al, BYTE PTR _PointsPacket$[esp+2169]
  000c7	88 84 39 e3 01
	00 00		 mov	 BYTE PTR [ecx+edi+483], al
  000ce	eb 80		 jmp	 SHORT $LL4@RecvPlayer
$LN10@RecvPlayer:

; 470  : 		else if (i == POINT_DX)

  000d0	83 fe 0e	 cmp	 esi, 14			; 0000000eH
  000d3	75 18		 jne	 SHORT $LN12@RecvPlayer

; 471  : 			m_akSimplePlayerInfo[m_dwSelectedCharacterIndex].byDX = PointsPacket.points[i];

  000d5	6b 8f 2c 7a 00
	00 64		 imul	 ecx, DWORD PTR [edi+31276], 100
  000dc	46		 inc	 esi
  000dd	8a 44 24 79	 mov	 al, BYTE PTR _PointsPacket$[esp+2177]
  000e1	88 84 39 e4 01
	00 00		 mov	 BYTE PTR [ecx+edi+484], al
  000e8	e9 63 ff ff ff	 jmp	 $LL4@RecvPlayer
$LN12@RecvPlayer:

; 472  : 		else if (i == POINT_IQ)

  000ed	83 fe 0f	 cmp	 esi, 15			; 0000000fH
  000f0	75 1b		 jne	 SHORT $LN2@RecvPlayer

; 473  : 			m_akSimplePlayerInfo[m_dwSelectedCharacterIndex].byIQ = PointsPacket.points[i];

  000f2	6b 8f 2c 7a 00
	00 64		 imul	 ecx, DWORD PTR [edi+31276], 100
  000f9	46		 inc	 esi
  000fa	8a 84 24 81 00
	00 00		 mov	 al, BYTE PTR _PointsPacket$[esp+2185]
  00101	88 84 39 e5 01
	00 00		 mov	 BYTE PTR [ecx+edi+485], al
  00108	e9 43 ff ff ff	 jmp	 $LL4@RecvPlayer
$LN2@RecvPlayer:

; 459  : 		return false;
; 460  : 
; 461  : 	for (DWORD i = 0; i < POINT_MAX_NUM; ++i)

  0010d	46		 inc	 esi
  0010e	81 fe ff 00 00
	00		 cmp	 esi, 255		; 000000ffH
  00114	0f 82 36 ff ff
	ff		 jb	 $LL4@RecvPlayer

; 474  : 
; 475  : 	}
; 476  : 
; 477  : 	PyCallClassMemberFunc(m_apoPhaseWnd[PHASE_WINDOW_GAME], "RefreshStatus", Py_BuildValue("()"));

  0011a	68 00 00 00 00	 push	 OFFSET ??_C@_02HCKGKOFO@?$CI?$CJ@
  0011f	ff 15 00 00 00
	00		 call	 DWORD PTR __imp__Py_BuildValue
  00125	83 c4 04	 add	 esp, 4
  00128	50		 push	 eax
  00129	68 00 00 00 00	 push	 OFFSET ??_C@_0O@PDJLBMPA@RefreshStatus@
  0012e	ff b7 98 01 00
	00		 push	 DWORD PTR [edi+408]
  00134	e8 00 00 00 00	 call	 ?PyCallClassMemberFunc@@YA_NPAU_object@@PBD0@Z ; PyCallClassMemberFunc

; 478  : 	return true;
; 479  : }

  00139	8b 8c 24 18 08
	00 00		 mov	 ecx, DWORD PTR __$ArrayPad$[esp+2076]
  00140	83 c4 0c	 add	 esp, 12			; 0000000cH
  00143	b0 01		 mov	 al, 1
  00145	5f		 pop	 edi
  00146	5e		 pop	 esi
  00147	33 cc		 xor	 ecx, esp
  00149	e8 00 00 00 00	 call	 @__security_check_cookie@4
  0014e	8b e5		 mov	 esp, ebp
  00150	5d		 pop	 ebp
  00151	c3		 ret	 0
?__RecvPlayerPoints@CPythonNetworkStream@@IAE_NXZ ENDP	; CPythonNetworkStream::__RecvPlayerPoints
_TEXT	ENDS
; Function compile flags: /Ogtp
; File C:\Anka2Project\Anka2Project\Source\Binary\source\UserInterface\PythonNetworkStreamPhaseLoading.cpp
; File C:\Anka2Project\Anka2Project\Source\Binary\source\eterlib\Ref.h
; File C:\Anka2Project\Anka2Project\Source\Binary\source\UserInterface\PythonNetworkStreamPhaseLoading.cpp
; File C:\Anka2Project\Anka2Project\Source\Binary\source\eterBase\Singleton.h
; File C:\Anka2Project\Anka2Project\Source\Binary\source\UserInterface\PythonNetworkStreamPhaseLoading.cpp
; File C:\Anka2Project\Anka2Project\Source\Binary\source\eterBase\Singleton.h
; File C:\Anka2Project\Anka2Project\Source\Binary\source\UserInterface\PythonNetworkStreamPhaseLoading.cpp
;	COMDAT ?RecvMainCharacter@CPythonNetworkStream@@IAE_NXZ
_TEXT	SEGMENT
_mainChrPacket$ = -80					; size = 70
__$ArrayPad$ = -4					; size = 4
?RecvMainCharacter@CPythonNetworkStream@@IAE_NXZ PROC	; CPythonNetworkStream::RecvMainCharacter, COMDAT
; _this$ = ecx

; 329  : {

  00000	55		 push	 ebp
  00001	8b ec		 mov	 ebp, esp
  00003	83 ec 50	 sub	 esp, 80			; 00000050H
  00006	a1 00 00 00 00	 mov	 eax, DWORD PTR ___security_cookie
  0000b	33 c5		 xor	 eax, ebp
  0000d	89 45 fc	 mov	 DWORD PTR __$ArrayPad$[ebp], eax
  00010	56		 push	 esi
  00011	57		 push	 edi

; 330  : 	TPacketGCMainCharacter mainChrPacket;
; 331  : 	if (!Recv(sizeof(mainChrPacket), &mainChrPacket))

  00012	8d 45 b0	 lea	 eax, DWORD PTR _mainChrPacket$[ebp]
  00015	8b f1		 mov	 esi, ecx
  00017	50		 push	 eax
  00018	6a 46		 push	 70			; 00000046H
  0001a	e8 00 00 00 00	 call	 ?Recv@CNetworkStream@@QAE_NHPAX@Z ; CNetworkStream::Recv
  0001f	84 c0		 test	 al, al
  00021	75 10		 jne	 SHORT $LN2@RecvMainCh

; 349  : 	return true;
; 350  : }

  00023	5f		 pop	 edi
  00024	5e		 pop	 esi
  00025	8b 4d fc	 mov	 ecx, DWORD PTR __$ArrayPad$[ebp]
  00028	33 cd		 xor	 ecx, ebp
  0002a	e8 00 00 00 00	 call	 @__security_check_cookie@4
  0002f	8b e5		 mov	 esp, ebp
  00031	5d		 pop	 ebp
  00032	c3		 ret	 0
$LN2@RecvMainCh:

; 332  : 		return false;
; 333  : 
; 334  : 	m_dwMainActorVID = mainChrPacket.dwVID;

  00033	8b 45 b1	 mov	 eax, DWORD PTR _mainChrPacket$[ebp+1]
  00036	89 86 94 00 00
	00		 mov	 DWORD PTR [esi+148], eax

; 335  : 	m_dwMainActorRace = mainChrPacket.wRaceNum;

  0003c	0f b7 45 b5	 movzx	 eax, WORD PTR _mainChrPacket$[ebp+5]
  00040	89 86 98 00 00
	00		 mov	 DWORD PTR [esi+152], eax

; 336  : 	m_dwMainActorEmpire = mainChrPacket.byEmpire;

  00046	0f b6 45 f4	 movzx	 eax, BYTE PTR _mainChrPacket$[ebp+68]
  0004a	89 86 9c 00 00
	00		 mov	 DWORD PTR [esi+156], eax

; 337  : 	m_dwMainActorSkillGroup = mainChrPacket.bySkillGroup;

  00050	0f b6 45 f5	 movzx	 eax, BYTE PTR _mainChrPacket$[ebp+69]
  00054	89 86 a0 00 00
	00		 mov	 DWORD PTR [esi+160], eax
; File C:\Anka2Project\Anka2Project\Source\Binary\source\eterlib\Ref.h

; 85   : 			assert(m_pObject != nullptr);

  0005a	83 be 28 04 00
	00 00		 cmp	 DWORD PTR [esi+1064], 0
  00061	75 14		 jne	 SHORT $LN6@RecvMainCh
  00063	6a 55		 push	 85			; 00000055H
  00065	68 00 00 00 00	 push	 OFFSET ??_C@_1IA@GOBOKLKL@?$AAC?$AA?3?$AA?2?$AAA?$AAn?$AAk?$AAa?$AA2?$AAP?$AAr?$AAo?$AAj?$AAe?$AAc?$AAt@
  0006a	68 00 00 00 00	 push	 OFFSET ??_C@_1CK@DKKCJALE@?$AAm?$AA_?$AAp?$AAO?$AAb?$AAj?$AAe?$AAc?$AAt?$AA?5?$AA?$CB?$AA?$DN?$AA?5?$AAn?$AAu@
  0006f	e8 00 00 00 00	 call	 __wassert
  00074	83 c4 0c	 add	 esp, 12			; 0000000cH
$LN6@RecvMainCh:
; File C:\Anka2Project\Anka2Project\Source\Binary\source\UserInterface\PythonNetworkStreamPhaseLoading.cpp

; 339  : 	m_rokNetActorMgr->SetMainActorVID(m_dwMainActorVID);

  00077	ff b6 94 00 00
	00		 push	 DWORD PTR [esi+148]
  0007d	8b 8e 28 04 00
	00		 mov	 ecx, DWORD PTR [esi+1064]
  00083	e8 00 00 00 00	 call	 ?SetMainActorVID@CNetworkActorManager@@QAEXK@Z ; CNetworkActorManager::SetMainActorVID
; File C:\Anka2Project\Anka2Project\Source\Binary\source\eterBase\Singleton.h

; 26   : 		assert(ms_singleton);

  00088	8b 3d 00 00 00
	00		 mov	 edi, DWORD PTR ?ms_singleton@?$CSingleton@VCPythonPlayer@@@@0PAVCPythonPlayer@@A ; CSingleton<CPythonPlayer>::ms_singleton
  0008e	85 ff		 test	 edi, edi
  00090	75 1a		 jne	 SHORT $LN9@RecvMainCh
  00092	6a 1a		 push	 26			; 0000001aH
  00094	68 00 00 00 00	 push	 OFFSET ??_C@_1IO@CAJLEEOI@?$AAC?$AA?3?$AA?2?$AAA?$AAn?$AAk?$AAa?$AA2?$AAP?$AAr?$AAo?$AAj?$AAe?$AAc?$AAt@
  00099	68 00 00 00 00	 push	 OFFSET ??_C@_1BK@FMEHPMFE@?$AAm?$AAs?$AA_?$AAs?$AAi?$AAn?$AAg?$AAl?$AAe?$AAt?$AAo?$AAn@
  0009e	e8 00 00 00 00	 call	 __wassert
  000a3	8b 3d 00 00 00
	00		 mov	 edi, DWORD PTR ?ms_singleton@?$CSingleton@VCPythonPlayer@@@@0PAVCPythonPlayer@@A ; CSingleton<CPythonPlayer>::ms_singleton
  000a9	83 c4 0c	 add	 esp, 12			; 0000000cH
$LN9@RecvMainCh:
; File C:\Anka2Project\Anka2Project\Source\Binary\source\UserInterface\PythonNetworkStreamPhaseLoading.cpp

; 342  : 	rkPlayer.SetName(mainChrPacket.szName);

  000ac	8d 45 b7	 lea	 eax, DWORD PTR _mainChrPacket$[ebp+7]
  000af	8b cf		 mov	 ecx, edi
  000b1	50		 push	 eax
  000b2	e8 00 00 00 00	 call	 ?SetName@CPythonPlayer@@QAEXPBD@Z ; CPythonPlayer::SetName

; 343  : 	rkPlayer.SetMainCharacterIndex(GetMainActorVID());

  000b7	8b ce		 mov	 ecx, esi
  000b9	e8 00 00 00 00	 call	 ?GetMainActorVID@CPythonNetworkStream@@QAEKXZ ; CPythonNetworkStream::GetMainActorVID
  000be	8b 57 04	 mov	 edx, DWORD PTR [edi+4]
  000c1	8d 4f 04	 lea	 ecx, DWORD PTR [edi+4]
  000c4	50		 push	 eax
  000c5	ff 52 08	 call	 DWORD PTR [edx+8]
; File C:\Anka2Project\Anka2Project\Source\Binary\source\eterBase\Singleton.h

; 26   : 		assert(ms_singleton);

  000c8	8b 0d 00 00 00
	00		 mov	 ecx, DWORD PTR ?ms_singleton@?$CSingleton@VCPythonNetworkStream@@@@0PAVCPythonNetworkStream@@A ; CSingleton<CPythonNetworkStream>::ms_singleton
  000ce	85 c9		 test	 ecx, ecx
  000d0	75 1a		 jne	 SHORT $LN12@RecvMainCh
  000d2	6a 1a		 push	 26			; 0000001aH
  000d4	68 00 00 00 00	 push	 OFFSET ??_C@_1IO@CAJLEEOI@?$AAC?$AA?3?$AA?2?$AAA?$AAn?$AAk?$AAa?$AA2?$AAP?$AAr?$AAo?$AAj?$AAe?$AAc?$AAt@
  000d9	68 00 00 00 00	 push	 OFFSET ??_C@_1BK@FMEHPMFE@?$AAm?$AAs?$AA_?$AAs?$AAi?$AAn?$AAg?$AAl?$AAe?$AAt?$AAo?$AAn@
  000de	e8 00 00 00 00	 call	 __wassert
  000e3	8b 0d 00 00 00
	00		 mov	 ecx, DWORD PTR ?ms_singleton@?$CSingleton@VCPythonNetworkStream@@@@0PAVCPythonNetworkStream@@A ; CSingleton<CPythonNetworkStream>::ms_singleton
  000e9	83 c4 0c	 add	 esp, 12			; 0000000cH
$LN12@RecvMainCh:
; File C:\Anka2Project\Anka2Project\Source\Binary\source\UserInterface\PythonNetworkStreamPhaseLoading.cpp

; 346  : 	rkNetStream.StartGame();

  000ec	e8 00 00 00 00	 call	 ?StartGame@CPythonNetworkStream@@QAEXXZ ; CPythonNetworkStream::StartGame

; 347  : 
; 348  : 	Warp(mainChrPacket.lX, mainChrPacket.lY);

  000f1	ff 75 ec	 push	 DWORD PTR _mainChrPacket$[ebp+60]
  000f4	8b ce		 mov	 ecx, esi
  000f6	ff 75 e8	 push	 DWORD PTR _mainChrPacket$[ebp+56]
  000f9	e8 00 00 00 00	 call	 ?Warp@CPythonNetworkStream@@QAEXJJ@Z ; CPythonNetworkStream::Warp

; 349  : 	return true;
; 350  : }

  000fe	8b 4d fc	 mov	 ecx, DWORD PTR __$ArrayPad$[ebp]
  00101	b0 01		 mov	 al, 1
  00103	5f		 pop	 edi
  00104	33 cd		 xor	 ecx, ebp
  00106	5e		 pop	 esi
  00107	e8 00 00 00 00	 call	 @__security_check_cookie@4
  0010c	8b e5		 mov	 esp, ebp
  0010e	5d		 pop	 ebp
  0010f	c3		 ret	 0
?RecvMainCharacter@CPythonNetworkStream@@IAE_NXZ ENDP	; CPythonNetworkStream::RecvMainCharacter
_TEXT	ENDS
; Function compile flags: /Ogtp
; File C:\Anka2Project\Anka2Project\Source\Binary\source\UserInterface\PythonNetworkStreamPhaseLoading.cpp
; File C:\Anka2Project\Anka2Project\Source\Binary\source\eterlib\Ref.h
; File C:\Anka2Project\Anka2Project\Source\Binary\source\UserInterface\PythonNetworkStreamPhaseLoading.cpp
; File C:\Anka2Project\Anka2Project\Source\Binary\source\eterBase\Singleton.h
; File C:\Anka2Project\Anka2Project\Source\Binary\source\UserInterface\PythonNetworkStreamPhaseLoading.cpp
; File C:\Anka2Project\Anka2Project\Source\Binary\source\eterBase\Singleton.h
; File C:\Anka2Project\Anka2Project\Source\Binary\source\UserInterface\PythonNetworkStreamPhaseLoading.cpp
;	COMDAT ?RecvMainCharacter2_EMPIRE@CPythonNetworkStream@@IAE_NXZ
_TEXT	SEGMENT
_mainChrPacket$ = -80					; size = 70
__$ArrayPad$ = -4					; size = 4
?RecvMainCharacter2_EMPIRE@CPythonNetworkStream@@IAE_NXZ PROC ; CPythonNetworkStream::RecvMainCharacter2_EMPIRE, COMDAT
; _this$ = ecx

; 353  : {

  00000	55		 push	 ebp
  00001	8b ec		 mov	 ebp, esp
  00003	83 ec 50	 sub	 esp, 80			; 00000050H
  00006	a1 00 00 00 00	 mov	 eax, DWORD PTR ___security_cookie
  0000b	33 c5		 xor	 eax, ebp
  0000d	89 45 fc	 mov	 DWORD PTR __$ArrayPad$[ebp], eax
  00010	56		 push	 esi
  00011	57		 push	 edi

; 354  : 	TPacketGCMainCharacter2_EMPIRE mainChrPacket;
; 355  : 	if (!Recv(sizeof(mainChrPacket), &mainChrPacket))

  00012	8d 45 b0	 lea	 eax, DWORD PTR _mainChrPacket$[ebp]
  00015	8b f1		 mov	 esi, ecx
  00017	50		 push	 eax
  00018	6a 46		 push	 70			; 00000046H
  0001a	e8 00 00 00 00	 call	 ?Recv@CNetworkStream@@QAE_NHPAX@Z ; CNetworkStream::Recv
  0001f	84 c0		 test	 al, al
  00021	75 10		 jne	 SHORT $LN2@RecvMainCh

; 373  : 	return true;
; 374  : }

  00023	5f		 pop	 edi
  00024	5e		 pop	 esi
  00025	8b 4d fc	 mov	 ecx, DWORD PTR __$ArrayPad$[ebp]
  00028	33 cd		 xor	 ecx, ebp
  0002a	e8 00 00 00 00	 call	 @__security_check_cookie@4
  0002f	8b e5		 mov	 esp, ebp
  00031	5d		 pop	 ebp
  00032	c3		 ret	 0
$LN2@RecvMainCh:

; 356  : 		return false;
; 357  : 
; 358  : 	m_dwMainActorVID = mainChrPacket.dwVID;

  00033	8b 45 b1	 mov	 eax, DWORD PTR _mainChrPacket$[ebp+1]
  00036	89 86 94 00 00
	00		 mov	 DWORD PTR [esi+148], eax

; 359  : 	m_dwMainActorRace = mainChrPacket.wRaceNum;

  0003c	0f b7 45 b5	 movzx	 eax, WORD PTR _mainChrPacket$[ebp+5]
  00040	89 86 98 00 00
	00		 mov	 DWORD PTR [esi+152], eax

; 360  : 	m_dwMainActorEmpire = mainChrPacket.byEmpire;

  00046	0f b6 45 f4	 movzx	 eax, BYTE PTR _mainChrPacket$[ebp+68]
  0004a	89 86 9c 00 00
	00		 mov	 DWORD PTR [esi+156], eax

; 361  : 	m_dwMainActorSkillGroup = mainChrPacket.bySkillGroup;

  00050	0f b6 45 f5	 movzx	 eax, BYTE PTR _mainChrPacket$[ebp+69]
  00054	89 86 a0 00 00
	00		 mov	 DWORD PTR [esi+160], eax
; File C:\Anka2Project\Anka2Project\Source\Binary\source\eterlib\Ref.h

; 85   : 			assert(m_pObject != nullptr);

  0005a	83 be 28 04 00
	00 00		 cmp	 DWORD PTR [esi+1064], 0
  00061	75 14		 jne	 SHORT $LN6@RecvMainCh
  00063	6a 55		 push	 85			; 00000055H
  00065	68 00 00 00 00	 push	 OFFSET ??_C@_1IA@GOBOKLKL@?$AAC?$AA?3?$AA?2?$AAA?$AAn?$AAk?$AAa?$AA2?$AAP?$AAr?$AAo?$AAj?$AAe?$AAc?$AAt@
  0006a	68 00 00 00 00	 push	 OFFSET ??_C@_1CK@DKKCJALE@?$AAm?$AA_?$AAp?$AAO?$AAb?$AAj?$AAe?$AAc?$AAt?$AA?5?$AA?$CB?$AA?$DN?$AA?5?$AAn?$AAu@
  0006f	e8 00 00 00 00	 call	 __wassert
  00074	83 c4 0c	 add	 esp, 12			; 0000000cH
$LN6@RecvMainCh:
; File C:\Anka2Project\Anka2Project\Source\Binary\source\UserInterface\PythonNetworkStreamPhaseLoading.cpp

; 363  : 	m_rokNetActorMgr->SetMainActorVID(m_dwMainActorVID);

  00077	ff b6 94 00 00
	00		 push	 DWORD PTR [esi+148]
  0007d	8b 8e 28 04 00
	00		 mov	 ecx, DWORD PTR [esi+1064]
  00083	e8 00 00 00 00	 call	 ?SetMainActorVID@CNetworkActorManager@@QAEXK@Z ; CNetworkActorManager::SetMainActorVID
; File C:\Anka2Project\Anka2Project\Source\Binary\source\eterBase\Singleton.h

; 26   : 		assert(ms_singleton);

  00088	8b 3d 00 00 00
	00		 mov	 edi, DWORD PTR ?ms_singleton@?$CSingleton@VCPythonPlayer@@@@0PAVCPythonPlayer@@A ; CSingleton<CPythonPlayer>::ms_singleton
  0008e	85 ff		 test	 edi, edi
  00090	75 1a		 jne	 SHORT $LN9@RecvMainCh
  00092	6a 1a		 push	 26			; 0000001aH
  00094	68 00 00 00 00	 push	 OFFSET ??_C@_1IO@CAJLEEOI@?$AAC?$AA?3?$AA?2?$AAA?$AAn?$AAk?$AAa?$AA2?$AAP?$AAr?$AAo?$AAj?$AAe?$AAc?$AAt@
  00099	68 00 00 00 00	 push	 OFFSET ??_C@_1BK@FMEHPMFE@?$AAm?$AAs?$AA_?$AAs?$AAi?$AAn?$AAg?$AAl?$AAe?$AAt?$AAo?$AAn@
  0009e	e8 00 00 00 00	 call	 __wassert
  000a3	8b 3d 00 00 00
	00		 mov	 edi, DWORD PTR ?ms_singleton@?$CSingleton@VCPythonPlayer@@@@0PAVCPythonPlayer@@A ; CSingleton<CPythonPlayer>::ms_singleton
  000a9	83 c4 0c	 add	 esp, 12			; 0000000cH
$LN9@RecvMainCh:
; File C:\Anka2Project\Anka2Project\Source\Binary\source\UserInterface\PythonNetworkStreamPhaseLoading.cpp

; 366  : 	rkPlayer.SetName(mainChrPacket.szName);

  000ac	8d 45 b7	 lea	 eax, DWORD PTR _mainChrPacket$[ebp+7]
  000af	8b cf		 mov	 ecx, edi
  000b1	50		 push	 eax
  000b2	e8 00 00 00 00	 call	 ?SetName@CPythonPlayer@@QAEXPBD@Z ; CPythonPlayer::SetName

; 367  : 	rkPlayer.SetMainCharacterIndex(GetMainActorVID());

  000b7	8b ce		 mov	 ecx, esi
  000b9	e8 00 00 00 00	 call	 ?GetMainActorVID@CPythonNetworkStream@@QAEKXZ ; CPythonNetworkStream::GetMainActorVID
  000be	8b 57 04	 mov	 edx, DWORD PTR [edi+4]
  000c1	8d 4f 04	 lea	 ecx, DWORD PTR [edi+4]
  000c4	50		 push	 eax
  000c5	ff 52 08	 call	 DWORD PTR [edx+8]
; File C:\Anka2Project\Anka2Project\Source\Binary\source\eterBase\Singleton.h

; 26   : 		assert(ms_singleton);

  000c8	8b 0d 00 00 00
	00		 mov	 ecx, DWORD PTR ?ms_singleton@?$CSingleton@VCPythonNetworkStream@@@@0PAVCPythonNetworkStream@@A ; CSingleton<CPythonNetworkStream>::ms_singleton
  000ce	85 c9		 test	 ecx, ecx
  000d0	75 1a		 jne	 SHORT $LN12@RecvMainCh
  000d2	6a 1a		 push	 26			; 0000001aH
  000d4	68 00 00 00 00	 push	 OFFSET ??_C@_1IO@CAJLEEOI@?$AAC?$AA?3?$AA?2?$AAA?$AAn?$AAk?$AAa?$AA2?$AAP?$AAr?$AAo?$AAj?$AAe?$AAc?$AAt@
  000d9	68 00 00 00 00	 push	 OFFSET ??_C@_1BK@FMEHPMFE@?$AAm?$AAs?$AA_?$AAs?$AAi?$AAn?$AAg?$AAl?$AAe?$AAt?$AAo?$AAn@
  000de	e8 00 00 00 00	 call	 __wassert
  000e3	8b 0d 00 00 00
	00		 mov	 ecx, DWORD PTR ?ms_singleton@?$CSingleton@VCPythonNetworkStream@@@@0PAVCPythonNetworkStream@@A ; CSingleton<CPythonNetworkStream>::ms_singleton
  000e9	83 c4 0c	 add	 esp, 12			; 0000000cH
$LN12@RecvMainCh:
; File C:\Anka2Project\Anka2Project\Source\Binary\source\UserInterface\PythonNetworkStreamPhaseLoading.cpp

; 370  : 	rkNetStream.StartGame();

  000ec	e8 00 00 00 00	 call	 ?StartGame@CPythonNetworkStream@@QAEXXZ ; CPythonNetworkStream::StartGame

; 371  : 
; 372  : 	Warp(mainChrPacket.lX, mainChrPacket.lY);

  000f1	ff 75 ec	 push	 DWORD PTR _mainChrPacket$[ebp+60]
  000f4	8b ce		 mov	 ecx, esi
  000f6	ff 75 e8	 push	 DWORD PTR _mainChrPacket$[ebp+56]
  000f9	e8 00 00 00 00	 call	 ?Warp@CPythonNetworkStream@@QAEXJJ@Z ; CPythonNetworkStream::Warp

; 373  : 	return true;
; 374  : }

  000fe	8b 4d fc	 mov	 ecx, DWORD PTR __$ArrayPad$[ebp]
  00101	b0 01		 mov	 al, 1
  00103	5f		 pop	 edi
  00104	33 cd		 xor	 ecx, ebp
  00106	5e		 pop	 esi
  00107	e8 00 00 00 00	 call	 @__security_check_cookie@4
  0010c	8b e5		 mov	 esp, ebp
  0010e	5d		 pop	 ebp
  0010f	c3		 ret	 0
?RecvMainCharacter2_EMPIRE@CPythonNetworkStream@@IAE_NXZ ENDP ; CPythonNetworkStream::RecvMainCharacter2_EMPIRE
_TEXT	ENDS
; Function compile flags: /Ogtp
; File C:\Anka2Project\Anka2Project\Source\Binary\source\UserInterface\PythonNetworkStreamPhaseLoading.cpp
; File C:\Anka2Project\Anka2Project\Source\Binary\source\eterlib\Ref.h
; File C:\Anka2Project\Anka2Project\Source\Binary\source\UserInterface\PythonNetworkStreamPhaseLoading.cpp
; File C:\Anka2Project\Anka2Project\Source\Binary\source\eterBase\Singleton.h
; File C:\Anka2Project\Anka2Project\Source\Binary\source\UserInterface\PythonNetworkStreamPhaseLoading.cpp
; File C:\Anka2Project\Anka2Project\Source\Binary\source\eterBase\Singleton.h
; File C:\Anka2Project\Anka2Project\Source\Binary\source\UserInterface\PythonNetworkStreamPhaseLoading.cpp
;	COMDAT ?RecvMainCharacter3_BGM@CPythonNetworkStream@@IAE_NXZ
_TEXT	SEGMENT
_mainChrPacket$ = -104					; size = 95
__$ArrayPad$ = -4					; size = 4
?RecvMainCharacter3_BGM@CPythonNetworkStream@@IAE_NXZ PROC ; CPythonNetworkStream::RecvMainCharacter3_BGM, COMDAT
; _this$ = ecx

; 377  : {

  00000	55		 push	 ebp
  00001	8b ec		 mov	 ebp, esp
  00003	83 ec 68	 sub	 esp, 104		; 00000068H
  00006	a1 00 00 00 00	 mov	 eax, DWORD PTR ___security_cookie
  0000b	33 c5		 xor	 eax, ebp
  0000d	89 45 fc	 mov	 DWORD PTR __$ArrayPad$[ebp], eax
  00010	56		 push	 esi
  00011	57		 push	 edi

; 378  : 	TPacketGCMainCharacter3_BGM mainChrPacket;
; 379  : 	if (!Recv(sizeof(mainChrPacket), &mainChrPacket))

  00012	8d 45 98	 lea	 eax, DWORD PTR _mainChrPacket$[ebp]
  00015	8b f1		 mov	 esi, ecx
  00017	50		 push	 eax
  00018	6a 5f		 push	 95			; 0000005fH
  0001a	e8 00 00 00 00	 call	 ?Recv@CNetworkStream@@QAE_NHPAX@Z ; CNetworkStream::Recv
  0001f	84 c0		 test	 al, al
  00021	75 10		 jne	 SHORT $LN2@RecvMainCh

; 399  : 	return true;
; 400  : }

  00023	5f		 pop	 edi
  00024	5e		 pop	 esi
  00025	8b 4d fc	 mov	 ecx, DWORD PTR __$ArrayPad$[ebp]
  00028	33 cd		 xor	 ecx, ebp
  0002a	e8 00 00 00 00	 call	 @__security_check_cookie@4
  0002f	8b e5		 mov	 esp, ebp
  00031	5d		 pop	 ebp
  00032	c3		 ret	 0
$LN2@RecvMainCh:

; 380  : 		return false;
; 381  : 
; 382  : 	m_dwMainActorVID = mainChrPacket.dwVID;

  00033	8b 45 99	 mov	 eax, DWORD PTR _mainChrPacket$[ebp+1]
  00036	89 86 94 00 00
	00		 mov	 DWORD PTR [esi+148], eax

; 383  : 	m_dwMainActorRace = mainChrPacket.wRaceNum;

  0003c	0f b7 45 9d	 movzx	 eax, WORD PTR _mainChrPacket$[ebp+5]
  00040	89 86 98 00 00
	00		 mov	 DWORD PTR [esi+152], eax

; 384  : 	m_dwMainActorEmpire = mainChrPacket.byEmpire;

  00046	0f b6 45 f5	 movzx	 eax, BYTE PTR _mainChrPacket$[ebp+93]
  0004a	89 86 9c 00 00
	00		 mov	 DWORD PTR [esi+156], eax

; 385  : 	m_dwMainActorSkillGroup = mainChrPacket.bySkillGroup;

  00050	0f b6 45 f6	 movzx	 eax, BYTE PTR _mainChrPacket$[ebp+94]
  00054	89 86 a0 00 00
	00		 mov	 DWORD PTR [esi+160], eax
; File C:\Anka2Project\Anka2Project\Source\Binary\source\eterlib\Ref.h

; 85   : 			assert(m_pObject != nullptr);

  0005a	83 be 28 04 00
	00 00		 cmp	 DWORD PTR [esi+1064], 0
  00061	75 14		 jne	 SHORT $LN6@RecvMainCh
  00063	6a 55		 push	 85			; 00000055H
  00065	68 00 00 00 00	 push	 OFFSET ??_C@_1IA@GOBOKLKL@?$AAC?$AA?3?$AA?2?$AAA?$AAn?$AAk?$AAa?$AA2?$AAP?$AAr?$AAo?$AAj?$AAe?$AAc?$AAt@
  0006a	68 00 00 00 00	 push	 OFFSET ??_C@_1CK@DKKCJALE@?$AAm?$AA_?$AAp?$AAO?$AAb?$AAj?$AAe?$AAc?$AAt?$AA?5?$AA?$CB?$AA?$DN?$AA?5?$AAn?$AAu@
  0006f	e8 00 00 00 00	 call	 __wassert
  00074	83 c4 0c	 add	 esp, 12			; 0000000cH
$LN6@RecvMainCh:
; File C:\Anka2Project\Anka2Project\Source\Binary\source\UserInterface\PythonNetworkStreamPhaseLoading.cpp

; 387  : 	m_rokNetActorMgr->SetMainActorVID(m_dwMainActorVID);

  00077	ff b6 94 00 00
	00		 push	 DWORD PTR [esi+148]
  0007d	8b 8e 28 04 00
	00		 mov	 ecx, DWORD PTR [esi+1064]
  00083	e8 00 00 00 00	 call	 ?SetMainActorVID@CNetworkActorManager@@QAEXK@Z ; CNetworkActorManager::SetMainActorVID
; File C:\Anka2Project\Anka2Project\Source\Binary\source\eterBase\Singleton.h

; 26   : 		assert(ms_singleton);

  00088	8b 3d 00 00 00
	00		 mov	 edi, DWORD PTR ?ms_singleton@?$CSingleton@VCPythonPlayer@@@@0PAVCPythonPlayer@@A ; CSingleton<CPythonPlayer>::ms_singleton
  0008e	85 ff		 test	 edi, edi
  00090	75 1a		 jne	 SHORT $LN9@RecvMainCh
  00092	6a 1a		 push	 26			; 0000001aH
  00094	68 00 00 00 00	 push	 OFFSET ??_C@_1IO@CAJLEEOI@?$AAC?$AA?3?$AA?2?$AAA?$AAn?$AAk?$AAa?$AA2?$AAP?$AAr?$AAo?$AAj?$AAe?$AAc?$AAt@
  00099	68 00 00 00 00	 push	 OFFSET ??_C@_1BK@FMEHPMFE@?$AAm?$AAs?$AA_?$AAs?$AAi?$AAn?$AAg?$AAl?$AAe?$AAt?$AAo?$AAn@
  0009e	e8 00 00 00 00	 call	 __wassert
  000a3	8b 3d 00 00 00
	00		 mov	 edi, DWORD PTR ?ms_singleton@?$CSingleton@VCPythonPlayer@@@@0PAVCPythonPlayer@@A ; CSingleton<CPythonPlayer>::ms_singleton
  000a9	83 c4 0c	 add	 esp, 12			; 0000000cH
$LN9@RecvMainCh:
; File C:\Anka2Project\Anka2Project\Source\Binary\source\UserInterface\PythonNetworkStreamPhaseLoading.cpp

; 390  : 	rkPlayer.SetName(mainChrPacket.szUserName);

  000ac	8d 45 9f	 lea	 eax, DWORD PTR _mainChrPacket$[ebp+7]
  000af	8b cf		 mov	 ecx, edi
  000b1	50		 push	 eax
  000b2	e8 00 00 00 00	 call	 ?SetName@CPythonPlayer@@QAEXPBD@Z ; CPythonPlayer::SetName

; 391  : 	rkPlayer.SetMainCharacterIndex(GetMainActorVID());

  000b7	8b ce		 mov	 ecx, esi
  000b9	e8 00 00 00 00	 call	 ?GetMainActorVID@CPythonNetworkStream@@QAEKXZ ; CPythonNetworkStream::GetMainActorVID
  000be	8b 57 04	 mov	 edx, DWORD PTR [edi+4]
  000c1	8d 4f 04	 lea	 ecx, DWORD PTR [edi+4]
  000c4	50		 push	 eax
  000c5	ff 52 08	 call	 DWORD PTR [edx+8]

; 392  : 
; 393  : 	__SetFieldMusicFileName(mainChrPacket.szBGMName);

  000c8	8d 45 d0	 lea	 eax, DWORD PTR _mainChrPacket$[ebp+56]
  000cb	50		 push	 eax
  000cc	e8 00 00 00 00	 call	 ?__SetFieldMusicFileName@CPythonNetworkStream@@IAEXPBD@Z ; CPythonNetworkStream::__SetFieldMusicFileName
; File C:\Anka2Project\Anka2Project\Source\Binary\source\eterBase\Singleton.h

; 26   : 		assert(ms_singleton);

  000d1	8b 0d 00 00 00
	00		 mov	 ecx, DWORD PTR ?ms_singleton@?$CSingleton@VCPythonNetworkStream@@@@0PAVCPythonNetworkStream@@A ; CSingleton<CPythonNetworkStream>::ms_singleton
  000d7	85 c9		 test	 ecx, ecx
  000d9	75 1a		 jne	 SHORT $LN12@RecvMainCh
  000db	6a 1a		 push	 26			; 0000001aH
  000dd	68 00 00 00 00	 push	 OFFSET ??_C@_1IO@CAJLEEOI@?$AAC?$AA?3?$AA?2?$AAA?$AAn?$AAk?$AAa?$AA2?$AAP?$AAr?$AAo?$AAj?$AAe?$AAc?$AAt@
  000e2	68 00 00 00 00	 push	 OFFSET ??_C@_1BK@FMEHPMFE@?$AAm?$AAs?$AA_?$AAs?$AAi?$AAn?$AAg?$AAl?$AAe?$AAt?$AAo?$AAn@
  000e7	e8 00 00 00 00	 call	 __wassert
  000ec	8b 0d 00 00 00
	00		 mov	 ecx, DWORD PTR ?ms_singleton@?$CSingleton@VCPythonNetworkStream@@@@0PAVCPythonNetworkStream@@A ; CSingleton<CPythonNetworkStream>::ms_singleton
  000f2	83 c4 0c	 add	 esp, 12			; 0000000cH
$LN12@RecvMainCh:
; File C:\Anka2Project\Anka2Project\Source\Binary\source\UserInterface\PythonNetworkStreamPhaseLoading.cpp

; 396  : 	rkNetStream.StartGame();

  000f5	e8 00 00 00 00	 call	 ?StartGame@CPythonNetworkStream@@QAEXXZ ; CPythonNetworkStream::StartGame

; 397  : 
; 398  : 	Warp(mainChrPacket.lX, mainChrPacket.lY);

  000fa	ff 75 ed	 push	 DWORD PTR _mainChrPacket$[ebp+85]
  000fd	8b ce		 mov	 ecx, esi
  000ff	ff 75 e9	 push	 DWORD PTR _mainChrPacket$[ebp+81]
  00102	e8 00 00 00 00	 call	 ?Warp@CPythonNetworkStream@@QAEXJJ@Z ; CPythonNetworkStream::Warp

; 399  : 	return true;
; 400  : }

  00107	8b 4d fc	 mov	 ecx, DWORD PTR __$ArrayPad$[ebp]
  0010a	b0 01		 mov	 al, 1
  0010c	5f		 pop	 edi
  0010d	33 cd		 xor	 ecx, ebp
  0010f	5e		 pop	 esi
  00110	e8 00 00 00 00	 call	 @__security_check_cookie@4
  00115	8b e5		 mov	 esp, ebp
  00117	5d		 pop	 ebp
  00118	c3		 ret	 0
?RecvMainCharacter3_BGM@CPythonNetworkStream@@IAE_NXZ ENDP ; CPythonNetworkStream::RecvMainCharacter3_BGM
_TEXT	ENDS
; Function compile flags: /Ogtp
; File C:\Anka2Project\Anka2Project\Source\Binary\source\UserInterface\PythonNetworkStreamPhaseLoading.cpp
; File C:\Anka2Project\Anka2Project\Source\Binary\source\eterlib\Ref.h
; File C:\Anka2Project\Anka2Project\Source\Binary\source\UserInterface\PythonNetworkStreamPhaseLoading.cpp
; File C:\Anka2Project\Anka2Project\Source\Binary\source\eterBase\Singleton.h
; File C:\Anka2Project\Anka2Project\Source\Binary\source\UserInterface\PythonNetworkStreamPhaseLoading.cpp
; File C:\Anka2Project\Anka2Project\Source\Binary\source\eterBase\Singleton.h
; File C:\Anka2Project\Anka2Project\Source\Binary\source\UserInterface\PythonNetworkStreamPhaseLoading.cpp
;	COMDAT ?RecvMainCharacter4_BGM_VOL@CPythonNetworkStream@@IAE_NXZ
_TEXT	SEGMENT
_mainChrPacket$ = -112					; size = 99
__$ArrayPad$ = -4					; size = 4
?RecvMainCharacter4_BGM_VOL@CPythonNetworkStream@@IAE_NXZ PROC ; CPythonNetworkStream::RecvMainCharacter4_BGM_VOL, COMDAT
; _this$ = ecx

; 403  : {

  00000	55		 push	 ebp
  00001	8b ec		 mov	 ebp, esp
  00003	83 ec 70	 sub	 esp, 112		; 00000070H
  00006	a1 00 00 00 00	 mov	 eax, DWORD PTR ___security_cookie
  0000b	33 c5		 xor	 eax, ebp
  0000d	89 45 fc	 mov	 DWORD PTR __$ArrayPad$[ebp], eax
  00010	56		 push	 esi
  00011	57		 push	 edi

; 404  : 	TPacketGCMainCharacter4_BGM_VOL mainChrPacket;
; 405  : 	if (!Recv(sizeof(mainChrPacket), &mainChrPacket))

  00012	8d 45 90	 lea	 eax, DWORD PTR _mainChrPacket$[ebp]
  00015	8b f1		 mov	 esi, ecx
  00017	50		 push	 eax
  00018	6a 63		 push	 99			; 00000063H
  0001a	e8 00 00 00 00	 call	 ?Recv@CNetworkStream@@QAE_NHPAX@Z ; CNetworkStream::Recv
  0001f	84 c0		 test	 al, al
  00021	75 10		 jne	 SHORT $LN2@RecvMainCh

; 425  : 	return true;
; 426  : }

  00023	5f		 pop	 edi
  00024	5e		 pop	 esi
  00025	8b 4d fc	 mov	 ecx, DWORD PTR __$ArrayPad$[ebp]
  00028	33 cd		 xor	 ecx, ebp
  0002a	e8 00 00 00 00	 call	 @__security_check_cookie@4
  0002f	8b e5		 mov	 esp, ebp
  00031	5d		 pop	 ebp
  00032	c3		 ret	 0
$LN2@RecvMainCh:

; 406  : 		return false;
; 407  : 
; 408  : 	m_dwMainActorVID = mainChrPacket.dwVID;

  00033	8b 45 91	 mov	 eax, DWORD PTR _mainChrPacket$[ebp+1]
  00036	89 86 94 00 00
	00		 mov	 DWORD PTR [esi+148], eax

; 409  : 	m_dwMainActorRace = mainChrPacket.wRaceNum;

  0003c	0f b7 45 95	 movzx	 eax, WORD PTR _mainChrPacket$[ebp+5]
  00040	89 86 98 00 00
	00		 mov	 DWORD PTR [esi+152], eax

; 410  : 	m_dwMainActorEmpire = mainChrPacket.byEmpire;

  00046	0f b6 45 f1	 movzx	 eax, BYTE PTR _mainChrPacket$[ebp+97]
  0004a	89 86 9c 00 00
	00		 mov	 DWORD PTR [esi+156], eax

; 411  : 	m_dwMainActorSkillGroup = mainChrPacket.bySkillGroup;

  00050	0f b6 45 f2	 movzx	 eax, BYTE PTR _mainChrPacket$[ebp+98]
  00054	89 86 a0 00 00
	00		 mov	 DWORD PTR [esi+160], eax
; File C:\Anka2Project\Anka2Project\Source\Binary\source\eterlib\Ref.h

; 85   : 			assert(m_pObject != nullptr);

  0005a	83 be 28 04 00
	00 00		 cmp	 DWORD PTR [esi+1064], 0
  00061	75 14		 jne	 SHORT $LN6@RecvMainCh
  00063	6a 55		 push	 85			; 00000055H
  00065	68 00 00 00 00	 push	 OFFSET ??_C@_1IA@GOBOKLKL@?$AAC?$AA?3?$AA?2?$AAA?$AAn?$AAk?$AAa?$AA2?$AAP?$AAr?$AAo?$AAj?$AAe?$AAc?$AAt@
  0006a	68 00 00 00 00	 push	 OFFSET ??_C@_1CK@DKKCJALE@?$AAm?$AA_?$AAp?$AAO?$AAb?$AAj?$AAe?$AAc?$AAt?$AA?5?$AA?$CB?$AA?$DN?$AA?5?$AAn?$AAu@
  0006f	e8 00 00 00 00	 call	 __wassert
  00074	83 c4 0c	 add	 esp, 12			; 0000000cH
$LN6@RecvMainCh:
; File C:\Anka2Project\Anka2Project\Source\Binary\source\UserInterface\PythonNetworkStreamPhaseLoading.cpp

; 413  : 	m_rokNetActorMgr->SetMainActorVID(m_dwMainActorVID);

  00077	ff b6 94 00 00
	00		 push	 DWORD PTR [esi+148]
  0007d	8b 8e 28 04 00
	00		 mov	 ecx, DWORD PTR [esi+1064]
  00083	e8 00 00 00 00	 call	 ?SetMainActorVID@CNetworkActorManager@@QAEXK@Z ; CNetworkActorManager::SetMainActorVID
; File C:\Anka2Project\Anka2Project\Source\Binary\source\eterBase\Singleton.h

; 26   : 		assert(ms_singleton);

  00088	8b 3d 00 00 00
	00		 mov	 edi, DWORD PTR ?ms_singleton@?$CSingleton@VCPythonPlayer@@@@0PAVCPythonPlayer@@A ; CSingleton<CPythonPlayer>::ms_singleton
  0008e	85 ff		 test	 edi, edi
  00090	75 1a		 jne	 SHORT $LN9@RecvMainCh
  00092	6a 1a		 push	 26			; 0000001aH
  00094	68 00 00 00 00	 push	 OFFSET ??_C@_1IO@CAJLEEOI@?$AAC?$AA?3?$AA?2?$AAA?$AAn?$AAk?$AAa?$AA2?$AAP?$AAr?$AAo?$AAj?$AAe?$AAc?$AAt@
  00099	68 00 00 00 00	 push	 OFFSET ??_C@_1BK@FMEHPMFE@?$AAm?$AAs?$AA_?$AAs?$AAi?$AAn?$AAg?$AAl?$AAe?$AAt?$AAo?$AAn@
  0009e	e8 00 00 00 00	 call	 __wassert
  000a3	8b 3d 00 00 00
	00		 mov	 edi, DWORD PTR ?ms_singleton@?$CSingleton@VCPythonPlayer@@@@0PAVCPythonPlayer@@A ; CSingleton<CPythonPlayer>::ms_singleton
  000a9	83 c4 0c	 add	 esp, 12			; 0000000cH
$LN9@RecvMainCh:
; File C:\Anka2Project\Anka2Project\Source\Binary\source\UserInterface\PythonNetworkStreamPhaseLoading.cpp

; 416  : 	rkPlayer.SetName(mainChrPacket.szUserName);

  000ac	8d 45 97	 lea	 eax, DWORD PTR _mainChrPacket$[ebp+7]
  000af	8b cf		 mov	 ecx, edi
  000b1	50		 push	 eax
  000b2	e8 00 00 00 00	 call	 ?SetName@CPythonPlayer@@QAEXPBD@Z ; CPythonPlayer::SetName

; 417  : 	rkPlayer.SetMainCharacterIndex(GetMainActorVID());

  000b7	8b ce		 mov	 ecx, esi
  000b9	e8 00 00 00 00	 call	 ?GetMainActorVID@CPythonNetworkStream@@QAEKXZ ; CPythonNetworkStream::GetMainActorVID
  000be	8b 57 04	 mov	 edx, DWORD PTR [edi+4]
  000c1	8d 4f 04	 lea	 ecx, DWORD PTR [edi+4]
  000c4	50		 push	 eax
  000c5	ff 52 08	 call	 DWORD PTR [edx+8]

; 418  : 
; 419  : 	__SetFieldMusicFileInfo(mainChrPacket.szBGMName, mainChrPacket.fBGMVol);

  000c8	f3 0f 10 55 e1	 movss	 xmm2, DWORD PTR _mainChrPacket$[ebp+81]
  000cd	8d 45 c8	 lea	 eax, DWORD PTR _mainChrPacket$[ebp+56]
  000d0	50		 push	 eax
  000d1	e8 00 00 00 00	 call	 ?__SetFieldMusicFileInfo@CPythonNetworkStream@@IAEXPBDM@Z ; CPythonNetworkStream::__SetFieldMusicFileInfo
; File C:\Anka2Project\Anka2Project\Source\Binary\source\eterBase\Singleton.h

; 26   : 		assert(ms_singleton);

  000d6	8b 0d 00 00 00
	00		 mov	 ecx, DWORD PTR ?ms_singleton@?$CSingleton@VCPythonNetworkStream@@@@0PAVCPythonNetworkStream@@A ; CSingleton<CPythonNetworkStream>::ms_singleton
  000dc	85 c9		 test	 ecx, ecx
  000de	75 1a		 jne	 SHORT $LN12@RecvMainCh
  000e0	6a 1a		 push	 26			; 0000001aH
  000e2	68 00 00 00 00	 push	 OFFSET ??_C@_1IO@CAJLEEOI@?$AAC?$AA?3?$AA?2?$AAA?$AAn?$AAk?$AAa?$AA2?$AAP?$AAr?$AAo?$AAj?$AAe?$AAc?$AAt@
  000e7	68 00 00 00 00	 push	 OFFSET ??_C@_1BK@FMEHPMFE@?$AAm?$AAs?$AA_?$AAs?$AAi?$AAn?$AAg?$AAl?$AAe?$AAt?$AAo?$AAn@
  000ec	e8 00 00 00 00	 call	 __wassert
  000f1	8b 0d 00 00 00
	00		 mov	 ecx, DWORD PTR ?ms_singleton@?$CSingleton@VCPythonNetworkStream@@@@0PAVCPythonNetworkStream@@A ; CSingleton<CPythonNetworkStream>::ms_singleton
  000f7	83 c4 0c	 add	 esp, 12			; 0000000cH
$LN12@RecvMainCh:
; File C:\Anka2Project\Anka2Project\Source\Binary\source\UserInterface\PythonNetworkStreamPhaseLoading.cpp

; 422  : 	rkNetStream.StartGame();

  000fa	e8 00 00 00 00	 call	 ?StartGame@CPythonNetworkStream@@QAEXXZ ; CPythonNetworkStream::StartGame

; 423  : 
; 424  : 	Warp(mainChrPacket.lX, mainChrPacket.lY);

  000ff	ff 75 e9	 push	 DWORD PTR _mainChrPacket$[ebp+89]
  00102	8b ce		 mov	 ecx, esi
  00104	ff 75 e5	 push	 DWORD PTR _mainChrPacket$[ebp+85]
  00107	e8 00 00 00 00	 call	 ?Warp@CPythonNetworkStream@@QAEXJJ@Z ; CPythonNetworkStream::Warp

; 425  : 	return true;
; 426  : }

  0010c	8b 4d fc	 mov	 ecx, DWORD PTR __$ArrayPad$[ebp]
  0010f	b0 01		 mov	 al, 1
  00111	5f		 pop	 edi
  00112	33 cd		 xor	 ecx, ebp
  00114	5e		 pop	 esi
  00115	e8 00 00 00 00	 call	 @__security_check_cookie@4
  0011a	8b e5		 mov	 esp, ebp
  0011c	5d		 pop	 ebp
  0011d	c3		 ret	 0
?RecvMainCharacter4_BGM_VOL@CPythonNetworkStream@@IAE_NXZ ENDP ; CPythonNetworkStream::RecvMainCharacter4_BGM_VOL
_TEXT	ENDS
END
