; Listing generated by Microsoft (R) Optimizing Compiler Version 19.44.35219.0 

	TITLE	c:\anka2project\anka2project\source\binary\vs_files\userinterface\release\pythonexchange.obj
	.686P
	.XMM
	include listing.inc
	.model	flat

INCLUDELIB OLDNAMES

PUBLIC	??_R2CPythonExchange@@8				; CPythonExchange::`RTTI Base Class Array'
PUBLIC	??_R2?$CSingleton@VCPythonExchange@@@@8		; CSingleton<CPythonExchange>::`RTTI Base Class Array'
PUBLIC	??_R1A@?0A@EA@CPythonExchange@@8		; CPythonExchange::`RTTI Base Class Descriptor at (0,-1,0,64)'
PUBLIC	??_R1A@?0A@EA@?$CSingleton@VCPythonExchange@@@@8 ; CSingleton<CPythonExchange>::`RTTI Base Class Descriptor at (0,-1,0,64)'
PUBLIC	??_R3?$CSingleton@VCPythonExchange@@@@8		; CSingleton<CPythonExchange>::`RTTI Class Hierarchy Descriptor'
PUBLIC	??_R0?AV?$CSingleton@VCPythonExchange@@@@@8	; CSingleton<CPythonExchange> `RTTI Type Descriptor'
PUBLIC	??_R3CPythonExchange@@8				; CPythonExchange::`RTTI Class Hierarchy Descriptor'
PUBLIC	??_R0?AVCPythonExchange@@@8			; CPythonExchange `RTTI Type Descriptor'
PUBLIC	??_R4?$CSingleton@VCPythonExchange@@@@6B@	; CSingleton<CPythonExchange>::`RTTI Complete Object Locator'
PUBLIC	??_R4CPythonExchange@@6B@			; CPythonExchange::`RTTI Complete Object Locator'
PUBLIC	?ms_singleton@?$CSingleton@VCPythonExchange@@@@0PAVCPythonExchange@@A ; CSingleton<CPythonExchange>::ms_singleton
PUBLIC	??_7?$CSingleton@VCPythonExchange@@@@6B@	; CSingleton<CPythonExchange>::`vftable'
PUBLIC	??_7CPythonExchange@@6B@			; CPythonExchange::`vftable'
;	COMDAT ?ms_singleton@?$CSingleton@VCPythonExchange@@@@0PAVCPythonExchange@@A
_BSS	SEGMENT
?ms_singleton@?$CSingleton@VCPythonExchange@@@@0PAVCPythonExchange@@A DD 01H DUP (?) ; CSingleton<CPythonExchange>::ms_singleton
_BSS	ENDS
;	COMDAT ??_7CPythonExchange@@6B@
CONST	SEGMENT
??_7CPythonExchange@@6B@ DD FLAT:??_R4CPythonExchange@@6B@ ; CPythonExchange::`vftable'
	DD	FLAT:??_ECPythonExchange@@UAEPAXI@Z
CONST	ENDS
;	COMDAT ??_7?$CSingleton@VCPythonExchange@@@@6B@
CONST	SEGMENT
??_7?$CSingleton@VCPythonExchange@@@@6B@ DD FLAT:??_R4?$CSingleton@VCPythonExchange@@@@6B@ ; CSingleton<CPythonExchange>::`vftable'
	DD	FLAT:??_E?$CSingleton@VCPythonExchange@@@@UAEPAXI@Z
CONST	ENDS
;	COMDAT ??_R4CPythonExchange@@6B@
rdata$r	SEGMENT
??_R4CPythonExchange@@6B@ DD 00H			; CPythonExchange::`RTTI Complete Object Locator'
	DD	00H
	DD	00H
	DD	FLAT:??_R0?AVCPythonExchange@@@8
	DD	FLAT:??_R3CPythonExchange@@8
rdata$r	ENDS
;	COMDAT ??_R4?$CSingleton@VCPythonExchange@@@@6B@
rdata$r	SEGMENT
??_R4?$CSingleton@VCPythonExchange@@@@6B@ DD 00H	; CSingleton<CPythonExchange>::`RTTI Complete Object Locator'
	DD	00H
	DD	00H
	DD	FLAT:??_R0?AV?$CSingleton@VCPythonExchange@@@@@8
	DD	FLAT:??_R3?$CSingleton@VCPythonExchange@@@@8
rdata$r	ENDS
;	COMDAT ??_R0?AVCPythonExchange@@@8
data$rs	SEGMENT
??_R0?AVCPythonExchange@@@8 DD FLAT:??_7type_info@@6B@	; CPythonExchange `RTTI Type Descriptor'
	DD	00H
	DB	'.?AVCPythonExchange@@', 00H
data$rs	ENDS
;	COMDAT ??_R3CPythonExchange@@8
rdata$r	SEGMENT
??_R3CPythonExchange@@8 DD 00H				; CPythonExchange::`RTTI Class Hierarchy Descriptor'
	DD	00H
	DD	02H
	DD	FLAT:??_R2CPythonExchange@@8
rdata$r	ENDS
;	COMDAT ??_R0?AV?$CSingleton@VCPythonExchange@@@@@8
data$rs	SEGMENT
??_R0?AV?$CSingleton@VCPythonExchange@@@@@8 DD FLAT:??_7type_info@@6B@ ; CSingleton<CPythonExchange> `RTTI Type Descriptor'
	DD	00H
	DB	'.?AV?$CSingleton@VCPythonExchange@@@@', 00H
data$rs	ENDS
;	COMDAT ??_R3?$CSingleton@VCPythonExchange@@@@8
rdata$r	SEGMENT
??_R3?$CSingleton@VCPythonExchange@@@@8 DD 00H		; CSingleton<CPythonExchange>::`RTTI Class Hierarchy Descriptor'
	DD	00H
	DD	01H
	DD	FLAT:??_R2?$CSingleton@VCPythonExchange@@@@8
rdata$r	ENDS
;	COMDAT ??_R1A@?0A@EA@?$CSingleton@VCPythonExchange@@@@8
rdata$r	SEGMENT
??_R1A@?0A@EA@?$CSingleton@VCPythonExchange@@@@8 DD FLAT:??_R0?AV?$CSingleton@VCPythonExchange@@@@@8 ; CSingleton<CPythonExchange>::`RTTI Base Class Descriptor at (0,-1,0,64)'
	DD	00H
	DD	00H
	DD	0ffffffffH
	DD	00H
	DD	040H
	DD	FLAT:??_R3?$CSingleton@VCPythonExchange@@@@8
rdata$r	ENDS
;	COMDAT ??_R1A@?0A@EA@CPythonExchange@@8
rdata$r	SEGMENT
??_R1A@?0A@EA@CPythonExchange@@8 DD FLAT:??_R0?AVCPythonExchange@@@8 ; CPythonExchange::`RTTI Base Class Descriptor at (0,-1,0,64)'
	DD	01H
	DD	00H
	DD	0ffffffffH
	DD	00H
	DD	040H
	DD	FLAT:??_R3CPythonExchange@@8
rdata$r	ENDS
;	COMDAT ??_R2?$CSingleton@VCPythonExchange@@@@8
rdata$r	SEGMENT
??_R2?$CSingleton@VCPythonExchange@@@@8 DD FLAT:??_R1A@?0A@EA@?$CSingleton@VCPythonExchange@@@@8 ; CSingleton<CPythonExchange>::`RTTI Base Class Array'
rdata$r	ENDS
;	COMDAT ??_R2CPythonExchange@@8
rdata$r	SEGMENT
??_R2CPythonExchange@@8 DD FLAT:??_R1A@?0A@EA@CPythonExchange@@8 ; CPythonExchange::`RTTI Base Class Array'
	DD	FLAT:??_R1A@?0A@EA@?$CSingleton@VCPythonExchange@@@@8
PUBLIC	??_G?$CSingleton@VCPythonExchange@@@@UAEPAXI@Z	; CSingleton<CPythonExchange>::`scalar deleting destructor'
PUBLIC	??0?$CSingleton@VCPythonExchange@@@@QAE@XZ	; CSingleton<CPythonExchange>::CSingleton<CPythonExchange>
PUBLIC	??1?$CSingleton@VCPythonExchange@@@@UAE@XZ	; CSingleton<CPythonExchange>::~CSingleton<CPythonExchange>
PUBLIC	??_GCPythonExchange@@UAEPAXI@Z			; CPythonExchange::`scalar deleting destructor'
PUBLIC	?Clear@CPythonExchange@@QAEXXZ			; CPythonExchange::Clear
PUBLIC	?isTrading@CPythonExchange@@QAE_NXZ		; CPythonExchange::isTrading
PUBLIC	?End@CPythonExchange@@QAEXXZ			; CPythonExchange::End
PUBLIC	?Start@CPythonExchange@@QAEXXZ			; CPythonExchange::Start
PUBLIC	?SetElkMode@CPythonExchange@@QAEX_N@Z		; CPythonExchange::SetElkMode
PUBLIC	?GetElkMode@CPythonExchange@@QAE_NXZ		; CPythonExchange::GetElkMode
PUBLIC	?GetAcceptFromSelf@CPythonExchange@@QAE_NXZ	; CPythonExchange::GetAcceptFromSelf
PUBLIC	?GetAcceptFromTarget@CPythonExchange@@QAE_NXZ	; CPythonExchange::GetAcceptFromTarget
PUBLIC	?SetAcceptToSelf@CPythonExchange@@QAEXE@Z	; CPythonExchange::SetAcceptToSelf
PUBLIC	?SetAcceptToTarget@CPythonExchange@@QAEXE@Z	; CPythonExchange::SetAcceptToTarget
PUBLIC	?GetItemAttributeFromSelf@CPythonExchange@@QAEXEHPAEPAF@Z ; CPythonExchange::GetItemAttributeFromSelf
PUBLIC	?GetItemAttributeFromTarget@CPythonExchange@@QAEXEHPAEPAF@Z ; CPythonExchange::GetItemAttributeFromTarget
PUBLIC	?GetItemMetinSocketFromSelf@CPythonExchange@@QAEKEH@Z ; CPythonExchange::GetItemMetinSocketFromSelf
PUBLIC	?GetItemMetinSocketFromTarget@CPythonExchange@@QAEKEH@Z ; CPythonExchange::GetItemMetinSocketFromTarget
PUBLIC	?GetItemCountFromSelf@CPythonExchange@@QAEGE@Z	; CPythonExchange::GetItemCountFromSelf
PUBLIC	?GetItemCountFromTarget@CPythonExchange@@QAEGE@Z ; CPythonExchange::GetItemCountFromTarget
PUBLIC	?GetItemVnumFromSelf@CPythonExchange@@QAEKE@Z	; CPythonExchange::GetItemVnumFromSelf
PUBLIC	?GetItemVnumFromTarget@CPythonExchange@@QAEKE@Z	; CPythonExchange::GetItemVnumFromTarget
PUBLIC	?DelItemOfSelf@CPythonExchange@@QAEXE@Z		; CPythonExchange::DelItemOfSelf
PUBLIC	?DelItemOfTarget@CPythonExchange@@QAEXE@Z	; CPythonExchange::DelItemOfTarget
PUBLIC	?GetItemChangeLookVnumToTarget@CPythonExchange@@QBEKE@Z ; CPythonExchange::GetItemChangeLookVnumToTarget
PUBLIC	?GetItemChangeLookVnumToSelf@CPythonExchange@@QBEKE@Z ; CPythonExchange::GetItemChangeLookVnumToSelf
PUBLIC	?SetItemChangeLookVnumToTarget@CPythonExchange@@QAEXHK@Z ; CPythonExchange::SetItemChangeLookVnumToTarget
PUBLIC	?SetItemChangeLookVnumToSelf@CPythonExchange@@QAEXHK@Z ; CPythonExchange::SetItemChangeLookVnumToSelf
PUBLIC	?SetItemAttributeToSelf@CPythonExchange@@QAEXHHEF@Z ; CPythonExchange::SetItemAttributeToSelf
PUBLIC	?SetItemAttributeToTarget@CPythonExchange@@QAEXHHEF@Z ; CPythonExchange::SetItemAttributeToTarget
PUBLIC	?SetItemMetinSocketToSelf@CPythonExchange@@QAEXHHK@Z ; CPythonExchange::SetItemMetinSocketToSelf
PUBLIC	?SetItemMetinSocketToTarget@CPythonExchange@@QAEXHHK@Z ; CPythonExchange::SetItemMetinSocketToTarget
PUBLIC	?SetItemToSelf@CPythonExchange@@QAEXKKG@Z	; CPythonExchange::SetItemToSelf
PUBLIC	?SetItemToTarget@CPythonExchange@@QAEXKKG@Z	; CPythonExchange::SetItemToTarget
PUBLIC	?GetLevelFromTarget@CPythonExchange@@QAEKXZ	; CPythonExchange::GetLevelFromTarget
PUBLIC	?GetLevelFromSelf@CPythonExchange@@QAEKXZ	; CPythonExchange::GetLevelFromSelf
PUBLIC	?SetTargetLevel@CPythonExchange@@QAEXK@Z	; CPythonExchange::SetTargetLevel
PUBLIC	?SetSelfLevel@CPythonExchange@@QAEXK@Z		; CPythonExchange::SetSelfLevel
PUBLIC	?GetRaceFromTarget@CPythonExchange@@QAEKXZ	; CPythonExchange::GetRaceFromTarget
PUBLIC	?GetRaceFromSelf@CPythonExchange@@QAEKXZ	; CPythonExchange::GetRaceFromSelf
PUBLIC	?SetTargetRace@CPythonExchange@@QAEXK@Z		; CPythonExchange::SetTargetRace
PUBLIC	?SetSelfRace@CPythonExchange@@QAEXK@Z		; CPythonExchange::SetSelfRace
PUBLIC	?GetElkFromSelf@CPythonExchange@@QAE_JXZ	; CPythonExchange::GetElkFromSelf
PUBLIC	?GetElkFromTarget@CPythonExchange@@QAE_JXZ	; CPythonExchange::GetElkFromTarget
PUBLIC	?SetElkToSelf@CPythonExchange@@QAEX_J@Z		; CPythonExchange::SetElkToSelf
PUBLIC	?SetElkToTarget@CPythonExchange@@QAEX_J@Z	; CPythonExchange::SetElkToTarget
PUBLIC	?GetNameFromTarget@CPythonExchange@@QAEPADXZ	; CPythonExchange::GetNameFromTarget
PUBLIC	?GetNameFromSelf@CPythonExchange@@QAEPADXZ	; CPythonExchange::GetNameFromSelf
PUBLIC	?SetTargetName@CPythonExchange@@QAEXPBD@Z	; CPythonExchange::SetTargetName
PUBLIC	?SetSelfName@CPythonExchange@@QAEXPBD@Z		; CPythonExchange::SetSelfName
PUBLIC	??0CPythonExchange@@QAE@XZ			; CPythonExchange::CPythonExchange
PUBLIC	??1CPythonExchange@@UAE@XZ			; CPythonExchange::~CPythonExchange
EXTRN	??_ECPythonExchange@@UAEPAXI@Z:PROC		; CPythonExchange::`vector deleting destructor'
EXTRN	??_E?$CSingleton@VCPythonExchange@@@@UAEPAXI@Z:PROC ; CSingleton<CPythonExchange>::`vector deleting destructor'
END
