; Listing generated by Microsoft (R) Optimizing Compiler Version 19.44.35219.0 

	TITLE	c:\anka2project\anka2project\source\binary\vs_files\userinterface\release\pythonapplication.obj
	.686P
	.XMM
	include listing.inc
	.model	flat

INCLUDELIB OLDNAMES

PUBLIC	??_C@_1KI@NDOHEKDB@?$AAC?$AA?3?$AA?2?$AAA?$AAn?$AAk?$AAa?$AA2?$AAP?$AAr?$AAo?$AAj?$AAe?$AAc?$AAt@ ; `string'
PUBLIC	??_C@_1DA@IANAENLC@?$AAm?$AAs?$AA_?$AAp?$AAI?$AAn?$AAs?$AAt?$AAa?$AAn?$AAc?$AAe?$AA?5?$AA?$CB?$AA?$DN@ ; `string'
PUBLIC	??_C@_0GN@LLBDNFAM@?$DN?$DN?$DN?$DN?$DN?$DN?$DN?$DN?$DN?$DN?$DN?$DN?$DN?$DN?$DN?$DN?$DN?$DN?$DN?$DN?$DN?$DN?$DN?$DN?$DN?$DN?$DN?$DN?$DN?$DN?$DN@ ; `string'
PUBLIC	??_C@_0M@EHJKIBDK@Abort?$CB?$CB?$CB?$CB?6?6@	; `string'
PUBLIC	??_C@_0BL@GHJOJKGG@FrameSkip?5Adjusting?4?4?4?5?$CFd?6@ ; `string'
PUBLIC	??_C@_0CF@LOPCCCAL@DEVICESTATE_NEEDS_RESET?5?9?5attem@ ; `string'
PUBLIC	??_C@_0BN@OAKBEJJN@CREATE_NO_APPROPRIATE_DEVICE@ ; `string'
PUBLIC	??_C@_0CD@GGLEAAKE@CreateDevice?3?5Enum?5?$CG?5Detect?5fai@ ; `string'
PUBLIC	??_C@_0BC@NKAKBNDM@CREATE_NO_DIRECTX@		; `string'
PUBLIC	??_C@_0DK@GACPAJMM@CreateDevice?3?5DirectX?58?41?5or?5gr@ ; `string'
PUBLIC	??_C@_0O@CMPMDOEH@CREATE_DEVICE@		; `string'
PUBLIC	??_C@_0CK@KMPBIDGP@CreateDevice?3?5GraphicDevice?5cre@ ; `string'
PUBLIC	??_C@_0O@DAEHMKOB@CREATE_FORMAT@		; `string'
PUBLIC	??_C@_0CH@DEBFNBPL@CreateDevice?3?5Change?5the?5screen@ ; `string'
PUBLIC	??_C@_0BC@IMJEDJEA@GetDevCaps?5failed@		; `string'
PUBLIC	??_C@_0CA@DLHDILBB@CreateDevice?3?5GetDevCaps?5failed@ ; `string'
PUBLIC	??_C@_0BD@IHNLMMLJ@GetDevCaps2?5failed@		; `string'
PUBLIC	??_C@_0CB@JLAAEKGJ@CreateDevice?3?5GetDevCaps2?5faile@ ; `string'
PUBLIC	??_C@_0O@BAEJJDKB@UNKNOWN_ERROR@		; `string'
PUBLIC	??_C@_0BN@JAHEKIGK@CreateDevice?3?5Unknown?5Error?$CB@ ; `string'
PUBLIC	??_C@_0O@MBOHINFJ@locale?1common@		; `string'
PUBLIC	??_C@_0BB@EOELDOLA@?$CFs?1item_list?4txt@	; `string'
PUBLIC	??_C@_0BC@NLEJCAEF@?$CFs?1SkillTable?4txt@	; `string'
PUBLIC	??_C@_0BB@JGLJKD@?$CFs?1mob_scale?4txt@		; `string'
PUBLIC	??_C@_0BC@PNKIJLFN@?$CFs?1item_scale?4txt@	; `string'
PUBLIC	??_C@_0BC@GDFAFLKP@?$CFs?1aura_scale?4txt@	; `string'
PUBLIC	??_C@_0BJ@LHDGEGED@?$CFs?1event_reward_list?4txt@ ; `string'
PUBLIC	??_C@_0BF@DDJEMEFH@?$CFs?1locale_string?4txt@	; `string'
PUBLIC	??_C@_0BE@CKCMBMKI@?$CFs?1monster_chat?4txt@	; `string'
PUBLIC	??_C@_0BD@CFBMHOFC@?$CFs?1locale_quiz?4txt@	; `string'
PUBLIC	??_C@_0BJ@CILNFEAO@?$CFs?1guildbuildinglist?4txt@ ; `string'
PUBLIC	??_C@_0BB@EHJGDDML@?$CFs?1pet_skill?4txt@	; `string'
PUBLIC	??_C@_0BA@EPHKNMDA@?$CFs?1npc_wear?4txt@	; `string'
PUBLIC	??_C@_0O@MEMEPBB@?$CFs?1item_proto@		; `string'
PUBLIC	??_C@_0BA@BIDKFLDM@?$CFs?1itemdesc?4txt@	; `string'
PUBLIC	??_C@_0N@KCBCHIHM@?$CFs?1mob_proto@		; `string'
PUBLIC	??_C@_0BB@JDMIHPNN@?$CFs?1SkillDesc?4txt@	; `string'
PUBLIC	??_C@_0O@JEIJHCCG@?$CFs?1insult?4txt@		; `string'
PUBLIC	??_C@_0CI@MGBDCDJE@LoadLocaleData?5?9?5LoadItemList?$CI?$CF@ ; `string'
PUBLIC	??_C@_0CJ@MIFDPICO@LoadLocaleData?5?9?5LoadItemProto?$CI@ ; `string'
PUBLIC	??_C@_0CI@FLOPHKEN@LoadLocaleData?5?9?5LoadItemDesc?$CI?$CF@ ; `string'
PUBLIC	??_C@_0CI@PNCAMHEJ@LoadLocaleData?5?9?5LoadMobProto?$CI?$CF@ ; `string'
PUBLIC	??_C@_0CN@NIKOAAJF@LoadLocaleData?5?9?5RegisterSkillD@ ; `string'
PUBLIC	??_C@_0CO@HCDPLHIO@LoadLocaleData?5?9?5RegisterSkillT@ ; `string'
PUBLIC	??_C@_0DO@PNDPPMDH@CPythonApplication?5?9?5CPythonNet@ ; `string'
PUBLIC	??_C@_0CG@PLPHALMN@LoadMobScale?5?9?5LoadMobScale?$CI?$CFs?$CJ@ ; `string'
PUBLIC	??_C@_0CI@NHMEBJOH@LoadLocaleData?3?5error?5while?5loa@ ; `string'
PUBLIC	??_C@_0CJ@MDAGKIOK@LoadLocaleData?5?9?5LoadAuraScale?$CI@ ; `string'
PUBLIC	??_C@_0CP@CBNIPEEN@LoadLocaleData?5?9?5LoadEventRewar@ ; `string'
PUBLIC	??_C@_0DA@DIGJHCGF@LoadLocaleData?5?9?5LoadLocaleStri@ ; `string'
PUBLIC	??_C@_0CO@PHJMHAHD@LoadLocaleData?5?9?5LoadLocaleChat@ ; `string'
PUBLIC	??_C@_0CO@ILPAGHEO@LoadLocaleData?5?9?5LoadLocaleQuiz@ ; `string'
PUBLIC	??_C@_0DF@HFNMNKEC@LoadLocaleData?5?9?5RegisterGuildB@ ; `string'
PUBLIC	??_C@_0DB@GEMLPGJM@LoadLocaleData?5?9?5RegisterPetSki@ ; `string'
PUBLIC	??_C@_0CL@IBCOJJMI@LoadLocaleData?5?9?5LoadNPCWearIte@ ; `string'
PUBLIC	??_C@_0BJ@DBNNLGNG@CMSWindow?3?3Create?5failed@	; `string'
PUBLIC	??_C@_0O@NOBMPFEG@CREATE_WINDOW@		; `string'
PUBLIC	??_C@_0CA@FFOMJBHN@CMSWindow?3?3Cursors?5Create?5Error@ ; `string'
PUBLIC	??_C@_0BA@GLLECKCO@?$CCCREATE_CURSOR?$CC@	; `string'
PUBLIC	??_C@_0BJ@CJEBNOLC@NetDevice?3?3Create?5failed@	; `string'
PUBLIC	??_C@_0BB@EJLMKODK@?$CCCREATE_NETWORK?$CC@	; `string'
PUBLIC	??_C@_0CD@KIIBIHOG@d?3?1ymir?5work?1special?1spheremap?4@ ; `string'
PUBLIC	??_C@_0CF@CBFEMJII@d?3?1ymir?5work?1special?1spheremap0@ ; `string'
PUBLIC	??_R2CPythonApplication@@8			; CPythonApplication::`RTTI Base Class Array'
PUBLIC	??_R2CInputKeyboard@@8				; CInputKeyboard::`RTTI Base Class Array'
PUBLIC	??_R2CInputDevice@@8				; CInputDevice::`RTTI Base Class Array'
PUBLIC	??_R2CMSApplication@@8				; CMSApplication::`RTTI Base Class Array'
PUBLIC	??_R2CMSWindow@@8				; CMSWindow::`RTTI Base Class Array'
PUBLIC	??_R2IAbstractApplication@@8			; IAbstractApplication::`RTTI Base Class Array'
PUBLIC	??_R2?$TAbstractSingleton@VIAbstractApplication@@@@8 ; TAbstractSingleton<IAbstractApplication>::`RTTI Base Class Array'
PUBLIC	??_R1CA@?0A@EA@?$TAbstractSingleton@VIAbstractApplication@@@@8 ; TAbstractSingleton<IAbstractApplication>::`RTTI Base Class Descriptor at (32,-1,0,64)'
PUBLIC	??_R1CA@?0A@EA@IAbstractApplication@@8		; IAbstractApplication::`RTTI Base Class Descriptor at (32,-1,0,64)'
PUBLIC	??_R1BM@?0A@EA@CInputDevice@@8			; CInputDevice::`RTTI Base Class Descriptor at (28,-1,0,64)'
PUBLIC	??_R1BM@?0A@EA@CInputKeyboard@@8		; CInputKeyboard::`RTTI Base Class Descriptor at (28,-1,0,64)'
PUBLIC	??_R1A@?0A@EA@CPythonApplication@@8		; CPythonApplication::`RTTI Base Class Descriptor at (0,-1,0,64)'
PUBLIC	??_R1A@?0A@EA@CInputKeyboard@@8			; CInputKeyboard::`RTTI Base Class Descriptor at (0,-1,0,64)'
PUBLIC	??_R1A@?0A@EA@CInputDevice@@8			; CInputDevice::`RTTI Base Class Descriptor at (0,-1,0,64)'
PUBLIC	??_R1A@?0A@EA@CMSApplication@@8			; CMSApplication::`RTTI Base Class Descriptor at (0,-1,0,64)'
PUBLIC	??_R1A@?0A@EA@CMSWindow@@8			; CMSWindow::`RTTI Base Class Descriptor at (0,-1,0,64)'
PUBLIC	??_R1A@?0A@EA@IAbstractApplication@@8		; IAbstractApplication::`RTTI Base Class Descriptor at (0,-1,0,64)'
PUBLIC	??_R1A@?0A@EA@?$TAbstractSingleton@VIAbstractApplication@@@@8 ; TAbstractSingleton<IAbstractApplication>::`RTTI Base Class Descriptor at (0,-1,0,64)'
PUBLIC	??_R3CInputDevice@@8				; CInputDevice::`RTTI Class Hierarchy Descriptor'
PUBLIC	??_R0?AVCInputDevice@@@8			; CInputDevice `RTTI Type Descriptor'
PUBLIC	??_R3CInputKeyboard@@8				; CInputKeyboard::`RTTI Class Hierarchy Descriptor'
PUBLIC	??_R0?AVCInputKeyboard@@@8			; CInputKeyboard `RTTI Type Descriptor'
PUBLIC	??_R3CMSApplication@@8				; CMSApplication::`RTTI Class Hierarchy Descriptor'
PUBLIC	??_R0?AVCMSApplication@@@8			; CMSApplication `RTTI Type Descriptor'
PUBLIC	??_R3CMSWindow@@8				; CMSWindow::`RTTI Class Hierarchy Descriptor'
PUBLIC	??_R0?AVCMSWindow@@@8				; CMSWindow `RTTI Type Descriptor'
PUBLIC	??_R3CPythonApplication@@8			; CPythonApplication::`RTTI Class Hierarchy Descriptor'
PUBLIC	??_R0?AVCPythonApplication@@@8			; CPythonApplication `RTTI Type Descriptor'
PUBLIC	??_R3?$TAbstractSingleton@VIAbstractApplication@@@@8 ; TAbstractSingleton<IAbstractApplication>::`RTTI Class Hierarchy Descriptor'
PUBLIC	??_R0?AV?$TAbstractSingleton@VIAbstractApplication@@@@@8 ; TAbstractSingleton<IAbstractApplication> `RTTI Type Descriptor'
PUBLIC	??_R3IAbstractApplication@@8			; IAbstractApplication::`RTTI Class Hierarchy Descriptor'
PUBLIC	??_R0?AVIAbstractApplication@@@8		; IAbstractApplication `RTTI Type Descriptor'
PUBLIC	??_R4CPythonApplication@@6BIAbstractApplication@@@ ; CPythonApplication::`RTTI Complete Object Locator'
PUBLIC	??_R4CPythonApplication@@6BCInputKeyboard@@@	; CPythonApplication::`RTTI Complete Object Locator'
PUBLIC	??_R4CPythonApplication@@6BCMSApplication@@@	; CPythonApplication::`RTTI Complete Object Locator'
PUBLIC	??_R4?$TAbstractSingleton@VIAbstractApplication@@@@6B@ ; TAbstractSingleton<IAbstractApplication>::`RTTI Complete Object Locator'
PUBLIC	??_R4IAbstractApplication@@6B@			; IAbstractApplication::`RTTI Complete Object Locator'
PUBLIC	?ms_singleton@?$CSingleton@VCTimer@@@@0PAVCTimer@@A ; CSingleton<CTimer>::ms_singleton
PUBLIC	?ms_singleton@?$CSingleton@VCWindowManager@UI@@@@0PAVCWindowManager@UI@@A ; CSingleton<UI::CWindowManager>::ms_singleton
PUBLIC	?ms_singleton@?$CSingleton@VCPythonIME@@@@0PAVCPythonIME@@A ; CSingleton<CPythonIME>::ms_singleton
PUBLIC	??_7?$TAbstractSingleton@VIAbstractApplication@@@@6B@ ; TAbstractSingleton<IAbstractApplication>::`vftable'
PUBLIC	?ms_singleton@?$CSingleton@VCPythonPlayerSettingsModule@@@@0PAVCPythonPlayerSettingsModule@@A ; CSingleton<CPythonPlayerSettingsModule>::ms_singleton
PUBLIC	?ms_singleton@?$CSingleton@VCRenderTargetManager@@@@0PAVCRenderTargetManager@@A ; CSingleton<CRenderTargetManager>::ms_singleton
PUBLIC	?ms_singleton@?$CSingleton@VInGameEventManager@@@@0PAVInGameEventManager@@A ; CSingleton<InGameEventManager>::ms_singleton
PUBLIC	?ms_singleton@?$CSingleton@VCPythonWiki@@@@0PAVCPythonWiki@@A ; CSingleton<CPythonWiki>::ms_singleton
PUBLIC	??_7CPythonApplication@@6BIAbstractApplication@@@ ; CPythonApplication::`vftable'
PUBLIC	??_7CPythonApplication@@6BCInputKeyboard@@@	; CPythonApplication::`vftable'
PUBLIC	??_7CPythonApplication@@6BCMSApplication@@@	; CPythonApplication::`vftable'
PUBLIC	?c_fDefaultCameraZoomSpeed@@3MA			; c_fDefaultCameraZoomSpeed
PUBLIC	?c_fDefaultCameraPitchSpeed@@3MA		; c_fDefaultCameraPitchSpeed
PUBLIC	?c_fDefaultCameraRotateSpeed@@3MA		; c_fDefaultCameraRotateSpeed
PUBLIC	?g_specularSpd@@3NA				; g_specularSpd
PUBLIC	?MIN_FOG@@3MA					; MIN_FOG
PUBLIC	?ms_pInstance@CPythonApplication@@1PAV1@A	; CPythonApplication::ms_pInstance
PUBLIC	??_7IAbstractApplication@@6B@			; IAbstractApplication::`vftable'
EXTRN	?OnSize@CMSWindow@@UAEXIJ@Z:PROC		; CMSWindow::OnSize
EXTRN	?Destroy@CMSWindow@@QAEXXZ:PROC			; CMSWindow::Destroy
EXTRN	?DestroySystem@CTextFileLoader@@SAXXZ:PROC	; CTextFileLoader::DestroySystem
EXTRN	?DestroySystem@CAttributeInstance@@SAXXZ:PROC	; CAttributeInstance::DestroySystem
EXTRN	?Destroy@CGraphicDevice@@QAEXXZ:PROC		; CGraphicDevice::Destroy
EXTRN	?Destroy@CSoundManager@@QAEXXZ:PROC		; CSoundManager::Destroy
EXTRN	?DestroySystem@CGraphicImageInstance@@SAXXZ:PROC ; CGraphicImageInstance::DestroySystem
EXTRN	?DestroySystem@CGrannyModelInstance@@SAXXZ:PROC	; CGrannyModelInstance::DestroySystem
EXTRN	?Destroy@CPythonResource@@QAEXXZ:PROC		; CPythonResource::Destroy
EXTRN	?Destroy@CPythonGraphic@@QAEXXZ:PROC		; CPythonGraphic::Destroy
EXTRN	?GrannyDestroySharedDeformBuffer@@YAXXZ:PROC	; GrannyDestroySharedDeformBuffer
EXTRN	?Destroy@CLightManager@@QAEXXZ:PROC		; CLightManager::Destroy
EXTRN	?Destroy@CEffectManager@@QAEXXZ:PROC		; CEffectManager::Destroy
EXTRN	?Destroy@CRaceManager@@QAEXXZ:PROC		; CRaceManager::Destroy
EXTRN	?Destroy@CFlyingManager@@QAEXXZ:PROC		; CFlyingManager::Destroy
EXTRN	?DestroyCollisionInstanceSystem@@YAXXZ:PROC	; DestroyCollisionInstanceSystem
EXTRN	?Destroy@CRenderTargetManager@@QAEXXZ:PROC	; CRenderTargetManager::Destroy
EXTRN	?Destroy@CWindowManager@UI@@QAEXXZ:PROC		; UI::CWindowManager::Destroy
EXTRN	?DestroySphereMap@CGrannyMaterial@@SAXXZ:PROC	; CGrannyMaterial::DestroySphereMap
EXTRN	_WebBrowser_Destroy:PROC
EXTRN	__imp__SendMessageA@16:PROC
EXTRN	?ms_hInstance@CMSWindow@@1PAUHINSTANCE__@@A:DWORD ; CMSWindow::ms_hInstance
EXTRN	__imp__FlashWindowEx@4:PROC
EXTRN	__time32:PROC
EXTRN	?CreateSphereMap@CGrannyMaterial@@SAXIPBD@Z:PROC ; CGrannyMaterial::CreateSphereMap
EXTRN	__imp__SystemParametersInfoA@16:PROC
EXTRN	?CreateSystem@CGraphicImageInstance@@SAXI@Z:PROC ; CGraphicImageInstance::CreateSystem
EXTRN	?Initialize@CLightManager@@QAEXXZ:PROC		; CLightManager::Initialize
EXTRN	?SetText@CIME@@QAEXPBDH@Z:PROC			; CIME::SetText
EXTRN	?IsFastTNL@CGraphicBase@@SA_NXZ:PROC		; CGraphicBase::IsFastTNL
EXTRN	?Create@CNetworkDevice@@QAE_NXZ:PROC		; CNetworkDevice::Create
EXTRN	?InitializeKeyboard@CInputKeyboard@@QAE_NPAUHWND__@@@Z:PROC ; CInputKeyboard::InitializeKeyboard
EXTRN	__imp__SetWindowPos@28:PROC
EXTRN	?SetVisibleMode@CMSWindow@@QAEX_N@Z:PROC	; CMSWindow::SetVisibleMode
EXTRN	?GrannyCreateSharedDeformBuffer@@YAXXZ:PROC	; GrannyCreateSharedDeformBuffer
EXTRN	?Create@CSoundManager@@QAEHXZ:PROC		; CSoundManager::Create
EXTRN	?GetScreenWidth@CMSWindow@@QAEHXZ:PROC		; CMSWindow::GetScreenWidth
EXTRN	?GetScreenHeight@CMSWindow@@QAEHXZ:PROC		; CMSWindow::GetScreenHeight
EXTRN	?SetPosition@CMSWindow@@QAEXHH@Z:PROC		; CMSWindow::SetPosition
EXTRN	?AdjustSize@CMSWindow@@QAEXHH@Z:PROC		; CMSWindow::AdjustSize
EXTRN	?UseDefaultIME@CIME@@QAEXXZ:PROC		; CIME::UseDefaultIME
EXTRN	?GetInstance@CMSWindow@@QAEPAUHINSTANCE__@@XZ:PROC ; CMSWindow::GetInstance
EXTRN	__imp__LoadIconA@8:PROC
EXTRN	?Create@CMSWindow@@QAE_NPBDHKKPAUHICON__@@H@Z:PROC ; CMSWindow::Create
EXTRN	__imp__FindWindowA@8:PROC
EXTRN	?LoadAuraScale@CItemManager@@QAE_NPBD@Z:PROC	; CItemManager::LoadAuraScale
EXTRN	?LoadItemScale@CItemManager@@QAE_NPBD@Z:PROC	; CItemManager::LoadItemScale
EXTRN	?LoadItemDesc@CItemManager@@QAE_NPBD@Z:PROC	; CItemManager::LoadItemDesc
EXTRN	?LoadItemTable@CItemManager@@QAE_NPBD@Z:PROC	; CItemManager::LoadItemTable
EXTRN	?LoadItemList@CItemManager@@QAE_NPBD@Z:PROC	; CItemManager::LoadItemList
EXTRN	?Destroy@CItemManager@@QAEXXZ:PROC		; CItemManager::Destroy
EXTRN	?MessageProcess@CMSApplication@@QAE_NXZ:PROC	; CMSApplication::MessageProcess
EXTRN	?IsMessage@CMSApplication@@QAE_NXZ:PROC		; CMSApplication::IsMessage
EXTRN	?SetMinLODMode@CGrannyLODController@@SAX_N@Z:PROC ; CGrannyLODController::SetMinLODMode
EXTRN	__imp__PyExc_RuntimeError:DWORD
EXTRN	__imp__PyErr_SetString:PROC
EXTRN	?GetWindowHandle@CMSWindow@@QAEPAUHWND__@@XZ:PROC ; CMSWindow::GetWindowHandle
EXTRN	?Create@CGraphicDevice@@QAEHPAUHWND__@@HH_NHH@Z:PROC ; CGraphicDevice::Create
EXTRN	?g_fGameFPS@@3MA:DWORD				; g_fGameFPS
EXTRN	?InitBackBufferCount@CGraphicDevice@@QAEXI@Z:PROC ; CGraphicDevice::InitBackBufferCount
EXTRN	?Reset@CGraphicDevice@@QAE_NXZ:PROC		; CGraphicDevice::Reset
EXTRN	?Trace@@YAXPBD@Z:PROC				; Trace
EXTRN	?GetDeviceState@CGraphicDevice@@QAE?AW4EDeviceState@1@XZ:PROC ; CGraphicDevice::GetDeviceState
EXTRN	?GetClientRect@CMSWindow@@QAEXPAUtagRECT@@@Z:PROC ; CMSWindow::GetClientRect
EXTRN	?ResetFaceCount@CGraphicBase@@QAEXXZ:PROC	; CGraphicBase::ResetFaceCount
EXTRN	?GetFaceCount@CGraphicBase@@QAEKXZ:PROC		; CGraphicBase::GetFaceCount
EXTRN	?Show@CScreen@@QAEXPAUHWND__@@@Z:PROC		; CScreen::Show
EXTRN	?End@CScreen@@QAEXXZ:PROC			; CScreen::End
EXTRN	?SetInterfaceRenderState@CPythonGraphic@@QAEXXZ:PROC ; CPythonGraphic::SetInterfaceRenderState
EXTRN	?ClearDepthBuffer@CScreen@@QAEXXZ:PROC		; CScreen::ClearDepthBuffer
EXTRN	?Begin@CScreen@@QAE_NXZ:PROC			; CScreen::Begin
EXTRN	?Update@CCullingManager@@QAEXXZ:PROC		; CCullingManager::Update
EXTRN	?IsActive@CMSWindow@@QAE_NXZ:PROC		; CMSWindow::IsActive
EXTRN	?CreateRenderTargetTextures@CRenderTargetManager@@QAEXXZ:PROC ; CRenderTargetManager::CreateRenderTargetTextures
EXTRN	?RestoreDevice@CScreen@@QAEHXZ:PROC		; CScreen::RestoreDevice
EXTRN	?ReleaseRenderTargetTextures@CRenderTargetManager@@QAEXXZ:PROC ; CRenderTargetManager::ReleaseRenderTargetTextures
EXTRN	?TranslateSpecularMatrix@CGrannyMaterial@@SAXMMM@Z:PROC ; CGrannyMaterial::TranslateSpecularMatrix
EXTRN	?Adjust@CTimer@@QAEXH@Z:PROC			; CTimer::Adjust
EXTRN	?Update@CResourceManager@@QAEXXZ:PROC		; CResourceManager::Update
EXTRN	__imp__ScreenToClient@8:PROC
EXTRN	__imp__GetCursorPos@4:PROC
EXTRN	?UpdateKeyboard@CInputKeyboard@@QAEXXZ:PROC	; CInputKeyboard::UpdateKeyboard
EXTRN	?GetElapsedMilliecond@CTimer@@QAEKXZ:PROC	; CTimer::GetElapsedMilliecond
EXTRN	?GetElapsedSecond@CTimer@@QAEMXZ:PROC		; CTimer::GetElapsedSecond
EXTRN	?GetCurrentSecond@CTimer@@QAEMXZ:PROC		; CTimer::GetCurrentSecond
EXTRN	?Advance@CTimer@@QAEXXZ:PROC			; CTimer::Advance
EXTRN	?ELTimer_SetFrameMSec@@YAXXZ:PROC		; ELTimer_SetFrameMSec
EXTRN	?Update@CFlyingManager@@QAEXXZ:PROC		; CFlyingManager::Update
EXTRN	?UpdateSound@CEffectManager@@QAEXXZ:PROC	; CEffectManager::UpdateSound
EXTRN	?Update@CEffectManager@@QAEXXZ:PROC		; CEffectManager::Update
EXTRN	?Update@CGameEventManager@@QAEXXZ:PROC		; CGameEventManager::Update
EXTRN	?SetCenterPosition@CGameEventManager@@QAEXMMM@Z:PROC ; CGameEventManager::SetCenterPosition
EXTRN	?UpdateModels@CRenderTargetManager@@QAEXXZ:PROC	; CRenderTargetManager::UpdateModels
EXTRN	?BuildViewFrustum@CScreen@@QAEXXZ:PROC		; CScreen::BuildViewFrustum
EXTRN	?Hyperlink_UpdateMousePos@CGraphicTextInstance@@SAXHH@Z:PROC ; CGraphicTextInstance::Hyperlink_UpdateMousePos
EXTRN	?Render@CFlyingManager@@QAEXXZ:PROC		; CFlyingManager::Render
EXTRN	?Render@CEffectManager@@QAEXXZ:PROC		; CEffectManager::Render
EXTRN	?EndEnvironment@CMapManager@@QAEXXZ:PROC	; CMapManager::EndEnvironment
EXTRN	?RenderModels@CRenderTargetManager@@QAEXXZ:PROC	; CRenderTargetManager::RenderModels
EXTRN	?BeginEnvironment@CMapManager@@QAEXXZ:PROC	; CMapManager::BeginEnvironment
EXTRN	?SetCursorPosition@CPythonGraphic@@QAEXHH@Z:PROC ; CPythonGraphic::SetCursorPosition
EXTRN	?GetMousePosition@CWindowManager@UI@@QAEXAAJ0@Z:PROC ; UI::CWindowManager::GetMousePosition
EXTRN	?PushState@CPythonGraphic@@QAEXXZ:PROC		; CPythonGraphic::PushState
EXTRN	?SetGameRenderState@CPythonGraphic@@QAEXXZ:PROC	; CPythonGraphic::SetGameRenderState
EXTRN	?DeformModels@CRenderTargetManager@@QAEXXZ:PROC	; CRenderTargetManager::DeformModels
EXTRN	?Process@CCullingManager@@QAEXXZ:PROC		; CCullingManager::Process
EXTRN	?SetPerspective@CGraphicBase@@QAEXMMMM@Z:PROC	; CGraphicBase::SetPerspective
EXTRN	?GetAspect@CWindowManager@UI@@QAEMXZ:PROC	; UI::CWindowManager::GetAspect
EXTRN	?RenderBackgrounds@CRenderTargetManager@@QAEXXZ:PROC ; CRenderTargetManager::RenderBackgrounds
EXTRN	__imp__PostQuitMessage@4:PROC
EXTRN	?GetInfo@CEffectManager@@QAEXPAV?$basic_string@DU?$char_traits@D@std@@V?$allocator@D@2@@std@@@Z:PROC ; CEffectManager::GetInfo
EXTRN	?GetMousePosition@CMSWindow@@QAEXPAUtagPOINT@@@Z:PROC ; CMSWindow::GetMousePosition
EXTRN	?AddCamera@CCameraManager@@QAE_NE@Z:PROC	; CCameraManager::AddCamera
EXTRN	?UseCustomTime@CTimer@@QAEXXZ:PROC		; CTimer::UseCustomTime
EXTRN	?SetEterExceptionHandler@@YAXXZ:PROC		; SetEterExceptionHandler
EXTRN	??1CRenderTargetManager@@UAE@XZ:PROC		; CRenderTargetManager::~CRenderTargetManager
EXTRN	??0CRenderTargetManager@@QAE@XZ:PROC		; CRenderTargetManager::CRenderTargetManager
EXTRN	??1CNetworkDevice@@UAE@XZ:PROC			; CNetworkDevice::~CNetworkDevice
EXTRN	??0CNetworkDevice@@QAE@XZ:PROC			; CNetworkDevice::CNetworkDevice
EXTRN	??1CGraphicDevice@@UAE@XZ:PROC			; CGraphicDevice::~CGraphicDevice
EXTRN	??0CGraphicDevice@@QAE@XZ:PROC			; CGraphicDevice::CGraphicDevice
EXTRN	??1CPythonResource@@UAE@XZ:PROC			; CPythonResource::~CPythonResource
EXTRN	??0CPythonResource@@QAE@XZ:PROC			; CPythonResource::CPythonResource
EXTRN	??1CPythonGraphic@@UAE@XZ:PROC			; CPythonGraphic::~CPythonGraphic
EXTRN	??0CPythonGraphic@@QAE@XZ:PROC			; CPythonGraphic::CPythonGraphic
EXTRN	??1CEffectManager@@UAE@XZ:PROC			; CEffectManager::~CEffectManager
EXTRN	??0CEffectManager@@QAE@XZ:PROC			; CEffectManager::CEffectManager
EXTRN	??1CWindowManager@UI@@UAE@XZ:PROC		; UI::CWindowManager::~CWindowManager
EXTRN	??0CWindowManager@UI@@QAE@XZ:PROC		; UI::CWindowManager::CWindowManager
EXTRN	??1CItemManager@@UAE@XZ:PROC			; CItemManager::~CItemManager
EXTRN	??0CItemManager@@QAE@XZ:PROC			; CItemManager::CItemManager
EXTRN	??1CGameEventManager@@UAE@XZ:PROC		; CGameEventManager::~CGameEventManager
EXTRN	??0CGameEventManager@@QAE@XZ:PROC		; CGameEventManager::CGameEventManager
EXTRN	??1CRaceManager@@UAE@XZ:PROC			; CRaceManager::~CRaceManager
EXTRN	??0CRaceManager@@QAE@XZ:PROC			; CRaceManager::CRaceManager
EXTRN	??1CFlyingManager@@UAE@XZ:PROC			; CFlyingManager::~CFlyingManager
EXTRN	??0CFlyingManager@@QAE@XZ:PROC			; CFlyingManager::CFlyingManager
EXTRN	??1CSoundManager@@UAE@XZ:PROC			; CSoundManager::~CSoundManager
EXTRN	??0CSoundManager@@QAE@XZ:PROC			; CSoundManager::CSoundManager
EXTRN	??1CLightManager@@UAE@XZ:PROC			; CLightManager::~CLightManager
EXTRN	??0CLightManager@@QAE@XZ:PROC			; CLightManager::CLightManager
EXTRN	??1CTimer@@UAE@XZ:PROC				; CTimer::~CTimer
EXTRN	??0CTimer@@QAE@XZ:PROC				; CTimer::CTimer
EXTRN	??1CInputKeyboard@@UAE@XZ:PROC			; CInputKeyboard::~CInputKeyboard
EXTRN	??0CInputKeyboard@@QAE@XZ:PROC			; CInputKeyboard::CInputKeyboard
EXTRN	??1CMSApplication@@UAE@XZ:PROC			; CMSApplication::~CMSApplication
EXTRN	??0CMSApplication@@QAE@XZ:PROC			; CMSApplication::CMSApplication
;	COMDAT ?ms_singleton@?$CSingleton@VCTimer@@@@0PAVCTimer@@A
_BSS	SEGMENT
?ms_singleton@?$CSingleton@VCTimer@@@@0PAVCTimer@@A DD 01H DUP (?) ; CSingleton<CTimer>::ms_singleton
_BSS	ENDS
;	COMDAT ?ms_singleton@?$CSingleton@VCWindowManager@UI@@@@0PAVCWindowManager@UI@@A
_BSS	SEGMENT
?ms_singleton@?$CSingleton@VCWindowManager@UI@@@@0PAVCWindowManager@UI@@A DD 01H DUP (?) ; CSingleton<UI::CWindowManager>::ms_singleton
_BSS	ENDS
;	COMDAT ?ms_singleton@?$CSingleton@VCPythonIME@@@@0PAVCPythonIME@@A
_BSS	SEGMENT
?ms_singleton@?$CSingleton@VCPythonIME@@@@0PAVCPythonIME@@A DD 01H DUP (?) ; CSingleton<CPythonIME>::ms_singleton
_BSS	ENDS
;	COMDAT ?ms_singleton@?$CSingleton@VCPythonPlayerSettingsModule@@@@0PAVCPythonPlayerSettingsModule@@A
_BSS	SEGMENT
?ms_singleton@?$CSingleton@VCPythonPlayerSettingsModule@@@@0PAVCPythonPlayerSettingsModule@@A DD 01H DUP (?) ; CSingleton<CPythonPlayerSettingsModule>::ms_singleton
_BSS	ENDS
;	COMDAT ?ms_singleton@?$CSingleton@VCRenderTargetManager@@@@0PAVCRenderTargetManager@@A
_BSS	SEGMENT
?ms_singleton@?$CSingleton@VCRenderTargetManager@@@@0PAVCRenderTargetManager@@A DD 01H DUP (?) ; CSingleton<CRenderTargetManager>::ms_singleton
_BSS	ENDS
;	COMDAT ?ms_singleton@?$CSingleton@VInGameEventManager@@@@0PAVInGameEventManager@@A
_BSS	SEGMENT
?ms_singleton@?$CSingleton@VInGameEventManager@@@@0PAVInGameEventManager@@A DD 01H DUP (?) ; CSingleton<InGameEventManager>::ms_singleton
_BSS	ENDS
;	COMDAT ?ms_singleton@?$CSingleton@VCPythonWiki@@@@0PAVCPythonWiki@@A
_BSS	SEGMENT
?ms_singleton@?$CSingleton@VCPythonWiki@@@@0PAVCPythonWiki@@A DD 01H DUP (?) ; CSingleton<CPythonWiki>::ms_singleton
_BSS	ENDS
;	COMDAT ?s_fBufRenderTime@?DE@??Process@CPythonApplication@@QAE_NXZ@4MA
_BSS	SEGMENT
?s_fBufRenderTime@?DE@??Process@CPythonApplication@@QAE_NXZ@4MA DD 01H DUP (?) ; `CPythonApplication::Process'::`52'::s_fBufRenderTime
_BSS	ENDS
;	COMDAT ?s_dwRenderRangeFrame@?CL@??Process@CPythonApplication@@QAE_NXZ@4KA
_BSS	SEGMENT
?s_dwRenderRangeFrame@?CL@??Process@CPythonApplication@@QAE_NXZ@4KA DD 01H DUP (?) ; `CPythonApplication::Process'::`43'::s_dwRenderRangeFrame
_BSS	ENDS
;	COMDAT ?s_dwRenderRangeTime@?CL@??Process@CPythonApplication@@QAE_NXZ@4KA
_BSS	SEGMENT
?s_dwRenderRangeTime@?CL@??Process@CPythonApplication@@QAE_NXZ@4KA DD 01H DUP (?) ; `CPythonApplication::Process'::`43'::s_dwRenderRangeTime
_BSS	ENDS
;	COMDAT ?s_bFrameSkip@?1??Process@CPythonApplication@@QAE_NXZ@4HA
_BSS	SEGMENT
?s_bFrameSkip@?1??Process@CPythonApplication@@QAE_NXZ@4HA DD 01H DUP (?) ; `CPythonApplication::Process'::`2'::s_bFrameSkip
_BSS	ENDS
;	COMDAT ?s_dwFaceCount@?1??Process@CPythonApplication@@QAE_NXZ@4KA
_BSS	SEGMENT
?s_dwFaceCount@?1??Process@CPythonApplication@@QAE_NXZ@4KA DD 01H DUP (?) ; `CPythonApplication::Process'::`2'::s_dwFaceCount
_BSS	ENDS
;	COMDAT ?s_uiLoad@?1??Process@CPythonApplication@@QAE_NXZ@4IA
_BSS	SEGMENT
?s_uiLoad@?1??Process@CPythonApplication@@QAE_NXZ@4IA DD 01H DUP (?) ; `CPythonApplication::Process'::`2'::s_uiLoad
_BSS	ENDS
;	COMDAT ?s_dwRenderFrameCount@?1??Process@CPythonApplication@@QAE_NXZ@4KA
_BSS	SEGMENT
?s_dwRenderFrameCount@?1??Process@CPythonApplication@@QAE_NXZ@4KA DD 01H DUP (?) ; `CPythonApplication::Process'::`2'::s_dwRenderFrameCount
_BSS	ENDS
;	COMDAT ?s_dwUpdateFrameCount@?1??Process@CPythonApplication@@QAE_NXZ@4KA
_BSS	SEGMENT
?s_dwUpdateFrameCount@?1??Process@CPythonApplication@@QAE_NXZ@4KA DD 01H DUP (?) ; `CPythonApplication::Process'::`2'::s_dwUpdateFrameCount
?ms_pInstance@CPythonApplication@@1PAV1@A DD 01H DUP (?) ; CPythonApplication::ms_pInstance
_BSS	ENDS
;	COMDAT ??_7IAbstractApplication@@6B@
CONST	SEGMENT
??_7IAbstractApplication@@6B@ DD FLAT:??_R4IAbstractApplication@@6B@ ; IAbstractApplication::`vftable'
	DD	FLAT:??_EIAbstractApplication@@UAEPAXI@Z
	DD	FLAT:__purecall
	DD	FLAT:__purecall
	DD	FLAT:__purecall
	DD	FLAT:__purecall
	DD	FLAT:__purecall
	DD	FLAT:__purecall
	DD	FLAT:__purecall
	DD	FLAT:__purecall
	DD	FLAT:__purecall
	DD	FLAT:__purecall
	DD	FLAT:__purecall
	DD	FLAT:__purecall
	DD	FLAT:__purecall
	DD	FLAT:__purecall
	DD	FLAT:__purecall
	DD	FLAT:__purecall
	DD	FLAT:__purecall
CONST	ENDS
;	COMDAT ??_7CPythonApplication@@6BCMSApplication@@@
CONST	SEGMENT
??_7CPythonApplication@@6BCMSApplication@@@ DD FLAT:??_R4CPythonApplication@@6BCMSApplication@@@ ; CPythonApplication::`vftable'
	DD	FLAT:??_ECPythonApplication@@UAEPAXI@Z
	DD	FLAT:?WindowProcedure@CPythonApplication@@MAEJPAUHWND__@@IIJ@Z
	DD	FLAT:?OnSize@CMSWindow@@UAEXIJ@Z
CONST	ENDS
;	COMDAT ??_7CPythonApplication@@6BCInputKeyboard@@@
CONST	SEGMENT
??_7CPythonApplication@@6BCInputKeyboard@@@ DD FLAT:??_R4CPythonApplication@@6BCInputKeyboard@@@ ; CPythonApplication::`vftable'
	DD	FLAT:??_ECPythonApplication@@WBM@AEPAXI@Z
	DD	FLAT:?OnKeyDown@CPythonApplication@@MAEXH@Z
	DD	FLAT:?OnKeyUp@CPythonApplication@@MAEXH@Z
CONST	ENDS
;	COMDAT ??_7CPythonApplication@@6BIAbstractApplication@@@
CONST	SEGMENT
??_7CPythonApplication@@6BIAbstractApplication@@@ DD FLAT:??_R4CPythonApplication@@6BIAbstractApplication@@@ ; CPythonApplication::`vftable'
	DD	FLAT:??_ECPythonApplication@@WCA@AEPAXI@Z
	DD	FLAT:?GetMousePosition@CPythonApplication@@UAEXPAUtagPOINT@@@Z
	DD	FLAT:?GetGlobalTime@CPythonApplication@@UAEMXZ
	DD	FLAT:?GetGlobalElapsedTime@CPythonApplication@@UAEMXZ
	DD	FLAT:?SkipRenderBuffering@CPythonApplication@@UAEXK@Z
	DD	FLAT:?SetServerTime@CPythonApplication@@UAEXJ@Z
	DD	FLAT:?SetCenterPosition@CPythonApplication@@UAEXMMM@Z
	DD	FLAT:?SetEventCamera@CPythonApplication@@UAEXABUSCameraSetting@IAbstractApplication@@@Z
	DD	FLAT:?BlendEventCamera@CPythonApplication@@UAEXABUSCameraSetting@IAbstractApplication@@M@Z
	DD	FLAT:?SetDefaultCamera@CPythonApplication@@UAEXXZ
	DD	FLAT:?RunIMEUpdate@CPythonApplication@@UAEXXZ
	DD	FLAT:?RunIMETabEvent@CPythonApplication@@UAEXXZ
	DD	FLAT:?RunIMEReturnEvent@CPythonApplication@@UAEXXZ
	DD	FLAT:?RunIMEChangeCodePage@CPythonApplication@@UAEXXZ
	DD	FLAT:?RunIMEOpenCandidateListEvent@CPythonApplication@@UAEXXZ
	DD	FLAT:?RunIMECloseCandidateListEvent@CPythonApplication@@UAEXXZ
	DD	FLAT:?RunIMEOpenReadingWndEvent@CPythonApplication@@UAEXXZ
	DD	FLAT:?RunIMECloseReadingWndEvent@CPythonApplication@@UAEXXZ
CONST	ENDS
;	COMDAT ?s_fAveRenderTime@?EN@??Process@CPythonApplication@@QAE_NXZ@4MA
_DATA	SEGMENT
?s_fAveRenderTime@?EN@??Process@CPythonApplication@@QAE_NXZ@4MA DD 041800000r ; 16 ; `CPythonApplication::Process'::`77'::s_fAveRenderTime
_DATA	ENDS
;	COMDAT ??_7?$TAbstractSingleton@VIAbstractApplication@@@@6B@
CONST	SEGMENT
??_7?$TAbstractSingleton@VIAbstractApplication@@@@6B@ DD FLAT:??_R4?$TAbstractSingleton@VIAbstractApplication@@@@6B@ ; TAbstractSingleton<IAbstractApplication>::`vftable'
	DD	FLAT:??_E?$TAbstractSingleton@VIAbstractApplication@@@@UAEPAXI@Z
CONST	ENDS
;	COMDAT ??_R4IAbstractApplication@@6B@
rdata$r	SEGMENT
??_R4IAbstractApplication@@6B@ DD 00H			; IAbstractApplication::`RTTI Complete Object Locator'
	DD	00H
	DD	00H
	DD	FLAT:??_R0?AVIAbstractApplication@@@8
	DD	FLAT:??_R3IAbstractApplication@@8
rdata$r	ENDS
;	COMDAT ??_R4?$TAbstractSingleton@VIAbstractApplication@@@@6B@
rdata$r	SEGMENT
??_R4?$TAbstractSingleton@VIAbstractApplication@@@@6B@ DD 00H ; TAbstractSingleton<IAbstractApplication>::`RTTI Complete Object Locator'
	DD	00H
	DD	00H
	DD	FLAT:??_R0?AV?$TAbstractSingleton@VIAbstractApplication@@@@@8
	DD	FLAT:??_R3?$TAbstractSingleton@VIAbstractApplication@@@@8
rdata$r	ENDS
;	COMDAT ??_R4CPythonApplication@@6BCMSApplication@@@
rdata$r	SEGMENT
??_R4CPythonApplication@@6BCMSApplication@@@ DD 00H	; CPythonApplication::`RTTI Complete Object Locator'
	DD	00H
	DD	00H
	DD	FLAT:??_R0?AVCPythonApplication@@@8
	DD	FLAT:??_R3CPythonApplication@@8
rdata$r	ENDS
;	COMDAT ??_R4CPythonApplication@@6BCInputKeyboard@@@
rdata$r	SEGMENT
??_R4CPythonApplication@@6BCInputKeyboard@@@ DD 00H	; CPythonApplication::`RTTI Complete Object Locator'
	DD	01cH
	DD	00H
	DD	FLAT:??_R0?AVCPythonApplication@@@8
	DD	FLAT:??_R3CPythonApplication@@8
rdata$r	ENDS
;	COMDAT ??_R4CPythonApplication@@6BIAbstractApplication@@@
rdata$r	SEGMENT
??_R4CPythonApplication@@6BIAbstractApplication@@@ DD 00H ; CPythonApplication::`RTTI Complete Object Locator'
	DD	020H
	DD	00H
	DD	FLAT:??_R0?AVCPythonApplication@@@8
	DD	FLAT:??_R3CPythonApplication@@8
rdata$r	ENDS
;	COMDAT ??_R0?AVIAbstractApplication@@@8
data$rs	SEGMENT
??_R0?AVIAbstractApplication@@@8 DD FLAT:??_7type_info@@6B@ ; IAbstractApplication `RTTI Type Descriptor'
	DD	00H
	DB	'.?AVIAbstractApplication@@', 00H
data$rs	ENDS
;	COMDAT ??_R3IAbstractApplication@@8
rdata$r	SEGMENT
??_R3IAbstractApplication@@8 DD 00H			; IAbstractApplication::`RTTI Class Hierarchy Descriptor'
	DD	00H
	DD	02H
	DD	FLAT:??_R2IAbstractApplication@@8
rdata$r	ENDS
;	COMDAT ??_R0?AV?$TAbstractSingleton@VIAbstractApplication@@@@@8
data$rs	SEGMENT
??_R0?AV?$TAbstractSingleton@VIAbstractApplication@@@@@8 DD FLAT:??_7type_info@@6B@ ; TAbstractSingleton<IAbstractApplication> `RTTI Type Descriptor'
	DD	00H
	DB	'.?AV?$TAbstractSingleton@VIAbstractApplication@@@@', 00H
data$rs	ENDS
;	COMDAT ??_R3?$TAbstractSingleton@VIAbstractApplication@@@@8
rdata$r	SEGMENT
??_R3?$TAbstractSingleton@VIAbstractApplication@@@@8 DD 00H ; TAbstractSingleton<IAbstractApplication>::`RTTI Class Hierarchy Descriptor'
	DD	00H
	DD	01H
	DD	FLAT:??_R2?$TAbstractSingleton@VIAbstractApplication@@@@8
rdata$r	ENDS
;	COMDAT ??_R0?AVCPythonApplication@@@8
data$rs	SEGMENT
??_R0?AVCPythonApplication@@@8 DD FLAT:??_7type_info@@6B@ ; CPythonApplication `RTTI Type Descriptor'
	DD	00H
	DB	'.?AVCPythonApplication@@', 00H
data$rs	ENDS
;	COMDAT ??_R3CPythonApplication@@8
rdata$r	SEGMENT
??_R3CPythonApplication@@8 DD 00H			; CPythonApplication::`RTTI Class Hierarchy Descriptor'
	DD	01H
	DD	07H
	DD	FLAT:??_R2CPythonApplication@@8
rdata$r	ENDS
;	COMDAT ??_R0?AVCMSWindow@@@8
data$rs	SEGMENT
??_R0?AVCMSWindow@@@8 DD FLAT:??_7type_info@@6B@	; CMSWindow `RTTI Type Descriptor'
	DD	00H
	DB	'.?AVCMSWindow@@', 00H
data$rs	ENDS
;	COMDAT ??_R3CMSWindow@@8
rdata$r	SEGMENT
??_R3CMSWindow@@8 DD 00H				; CMSWindow::`RTTI Class Hierarchy Descriptor'
	DD	00H
	DD	01H
	DD	FLAT:??_R2CMSWindow@@8
rdata$r	ENDS
;	COMDAT ??_R0?AVCMSApplication@@@8
data$rs	SEGMENT
??_R0?AVCMSApplication@@@8 DD FLAT:??_7type_info@@6B@	; CMSApplication `RTTI Type Descriptor'
	DD	00H
	DB	'.?AVCMSApplication@@', 00H
data$rs	ENDS
;	COMDAT ??_R3CMSApplication@@8
rdata$r	SEGMENT
??_R3CMSApplication@@8 DD 00H				; CMSApplication::`RTTI Class Hierarchy Descriptor'
	DD	00H
	DD	02H
	DD	FLAT:??_R2CMSApplication@@8
rdata$r	ENDS
;	COMDAT ??_R0?AVCInputKeyboard@@@8
data$rs	SEGMENT
??_R0?AVCInputKeyboard@@@8 DD FLAT:??_7type_info@@6B@	; CInputKeyboard `RTTI Type Descriptor'
	DD	00H
	DB	'.?AVCInputKeyboard@@', 00H
data$rs	ENDS
;	COMDAT ??_R3CInputKeyboard@@8
rdata$r	SEGMENT
??_R3CInputKeyboard@@8 DD 00H				; CInputKeyboard::`RTTI Class Hierarchy Descriptor'
	DD	00H
	DD	02H
	DD	FLAT:??_R2CInputKeyboard@@8
rdata$r	ENDS
;	COMDAT ??_R0?AVCInputDevice@@@8
data$rs	SEGMENT
??_R0?AVCInputDevice@@@8 DD FLAT:??_7type_info@@6B@	; CInputDevice `RTTI Type Descriptor'
	DD	00H
	DB	'.?AVCInputDevice@@', 00H
data$rs	ENDS
;	COMDAT ??_R3CInputDevice@@8
rdata$r	SEGMENT
??_R3CInputDevice@@8 DD 00H				; CInputDevice::`RTTI Class Hierarchy Descriptor'
	DD	00H
	DD	01H
	DD	FLAT:??_R2CInputDevice@@8
rdata$r	ENDS
;	COMDAT ??_R1A@?0A@EA@?$TAbstractSingleton@VIAbstractApplication@@@@8
rdata$r	SEGMENT
??_R1A@?0A@EA@?$TAbstractSingleton@VIAbstractApplication@@@@8 DD FLAT:??_R0?AV?$TAbstractSingleton@VIAbstractApplication@@@@@8 ; TAbstractSingleton<IAbstractApplication>::`RTTI Base Class Descriptor at (0,-1,0,64)'
	DD	00H
	DD	00H
	DD	0ffffffffH
	DD	00H
	DD	040H
	DD	FLAT:??_R3?$TAbstractSingleton@VIAbstractApplication@@@@8
rdata$r	ENDS
;	COMDAT ??_R1A@?0A@EA@IAbstractApplication@@8
rdata$r	SEGMENT
??_R1A@?0A@EA@IAbstractApplication@@8 DD FLAT:??_R0?AVIAbstractApplication@@@8 ; IAbstractApplication::`RTTI Base Class Descriptor at (0,-1,0,64)'
	DD	01H
	DD	00H
	DD	0ffffffffH
	DD	00H
	DD	040H
	DD	FLAT:??_R3IAbstractApplication@@8
rdata$r	ENDS
;	COMDAT ??_R1A@?0A@EA@CMSWindow@@8
rdata$r	SEGMENT
??_R1A@?0A@EA@CMSWindow@@8 DD FLAT:??_R0?AVCMSWindow@@@8 ; CMSWindow::`RTTI Base Class Descriptor at (0,-1,0,64)'
	DD	00H
	DD	00H
	DD	0ffffffffH
	DD	00H
	DD	040H
	DD	FLAT:??_R3CMSWindow@@8
rdata$r	ENDS
;	COMDAT ??_R1A@?0A@EA@CMSApplication@@8
rdata$r	SEGMENT
??_R1A@?0A@EA@CMSApplication@@8 DD FLAT:??_R0?AVCMSApplication@@@8 ; CMSApplication::`RTTI Base Class Descriptor at (0,-1,0,64)'
	DD	01H
	DD	00H
	DD	0ffffffffH
	DD	00H
	DD	040H
	DD	FLAT:??_R3CMSApplication@@8
rdata$r	ENDS
;	COMDAT ??_R1A@?0A@EA@CInputDevice@@8
rdata$r	SEGMENT
??_R1A@?0A@EA@CInputDevice@@8 DD FLAT:??_R0?AVCInputDevice@@@8 ; CInputDevice::`RTTI Base Class Descriptor at (0,-1,0,64)'
	DD	00H
	DD	00H
	DD	0ffffffffH
	DD	00H
	DD	040H
	DD	FLAT:??_R3CInputDevice@@8
rdata$r	ENDS
;	COMDAT ??_R1A@?0A@EA@CInputKeyboard@@8
rdata$r	SEGMENT
??_R1A@?0A@EA@CInputKeyboard@@8 DD FLAT:??_R0?AVCInputKeyboard@@@8 ; CInputKeyboard::`RTTI Base Class Descriptor at (0,-1,0,64)'
	DD	01H
	DD	00H
	DD	0ffffffffH
	DD	00H
	DD	040H
	DD	FLAT:??_R3CInputKeyboard@@8
rdata$r	ENDS
;	COMDAT ??_R1A@?0A@EA@CPythonApplication@@8
rdata$r	SEGMENT
??_R1A@?0A@EA@CPythonApplication@@8 DD FLAT:??_R0?AVCPythonApplication@@@8 ; CPythonApplication::`RTTI Base Class Descriptor at (0,-1,0,64)'
	DD	06H
	DD	00H
	DD	0ffffffffH
	DD	00H
	DD	040H
	DD	FLAT:??_R3CPythonApplication@@8
rdata$r	ENDS
;	COMDAT ??_R1BM@?0A@EA@CInputKeyboard@@8
rdata$r	SEGMENT
??_R1BM@?0A@EA@CInputKeyboard@@8 DD FLAT:??_R0?AVCInputKeyboard@@@8 ; CInputKeyboard::`RTTI Base Class Descriptor at (28,-1,0,64)'
	DD	01H
	DD	01cH
	DD	0ffffffffH
	DD	00H
	DD	040H
	DD	FLAT:??_R3CInputKeyboard@@8
rdata$r	ENDS
;	COMDAT ??_R1BM@?0A@EA@CInputDevice@@8
rdata$r	SEGMENT
??_R1BM@?0A@EA@CInputDevice@@8 DD FLAT:??_R0?AVCInputDevice@@@8 ; CInputDevice::`RTTI Base Class Descriptor at (28,-1,0,64)'
	DD	00H
	DD	01cH
	DD	0ffffffffH
	DD	00H
	DD	040H
	DD	FLAT:??_R3CInputDevice@@8
rdata$r	ENDS
;	COMDAT ??_R1CA@?0A@EA@IAbstractApplication@@8
rdata$r	SEGMENT
??_R1CA@?0A@EA@IAbstractApplication@@8 DD FLAT:??_R0?AVIAbstractApplication@@@8 ; IAbstractApplication::`RTTI Base Class Descriptor at (32,-1,0,64)'
	DD	01H
	DD	020H
	DD	0ffffffffH
	DD	00H
	DD	040H
	DD	FLAT:??_R3IAbstractApplication@@8
rdata$r	ENDS
;	COMDAT ??_R1CA@?0A@EA@?$TAbstractSingleton@VIAbstractApplication@@@@8
rdata$r	SEGMENT
??_R1CA@?0A@EA@?$TAbstractSingleton@VIAbstractApplication@@@@8 DD FLAT:??_R0?AV?$TAbstractSingleton@VIAbstractApplication@@@@@8 ; TAbstractSingleton<IAbstractApplication>::`RTTI Base Class Descriptor at (32,-1,0,64)'
	DD	00H
	DD	020H
	DD	0ffffffffH
	DD	00H
	DD	040H
	DD	FLAT:??_R3?$TAbstractSingleton@VIAbstractApplication@@@@8
rdata$r	ENDS
;	COMDAT ??_R2?$TAbstractSingleton@VIAbstractApplication@@@@8
rdata$r	SEGMENT
??_R2?$TAbstractSingleton@VIAbstractApplication@@@@8 DD FLAT:??_R1A@?0A@EA@?$TAbstractSingleton@VIAbstractApplication@@@@8 ; TAbstractSingleton<IAbstractApplication>::`RTTI Base Class Array'
rdata$r	ENDS
;	COMDAT ??_R2IAbstractApplication@@8
rdata$r	SEGMENT
??_R2IAbstractApplication@@8 DD FLAT:??_R1A@?0A@EA@IAbstractApplication@@8 ; IAbstractApplication::`RTTI Base Class Array'
	DD	FLAT:??_R1A@?0A@EA@?$TAbstractSingleton@VIAbstractApplication@@@@8
rdata$r	ENDS
;	COMDAT ??_R2CMSWindow@@8
rdata$r	SEGMENT
??_R2CMSWindow@@8 DD FLAT:??_R1A@?0A@EA@CMSWindow@@8	; CMSWindow::`RTTI Base Class Array'
rdata$r	ENDS
;	COMDAT ??_R2CMSApplication@@8
rdata$r	SEGMENT
??_R2CMSApplication@@8 DD FLAT:??_R1A@?0A@EA@CMSApplication@@8 ; CMSApplication::`RTTI Base Class Array'
	DD	FLAT:??_R1A@?0A@EA@CMSWindow@@8
rdata$r	ENDS
;	COMDAT ??_R2CInputDevice@@8
rdata$r	SEGMENT
??_R2CInputDevice@@8 DD FLAT:??_R1A@?0A@EA@CInputDevice@@8 ; CInputDevice::`RTTI Base Class Array'
rdata$r	ENDS
;	COMDAT ??_R2CInputKeyboard@@8
rdata$r	SEGMENT
??_R2CInputKeyboard@@8 DD FLAT:??_R1A@?0A@EA@CInputKeyboard@@8 ; CInputKeyboard::`RTTI Base Class Array'
	DD	FLAT:??_R1A@?0A@EA@CInputDevice@@8
rdata$r	ENDS
;	COMDAT ??_R2CPythonApplication@@8
rdata$r	SEGMENT
??_R2CPythonApplication@@8 DD FLAT:??_R1A@?0A@EA@CPythonApplication@@8 ; CPythonApplication::`RTTI Base Class Array'
	DD	FLAT:??_R1A@?0A@EA@CMSApplication@@8
	DD	FLAT:??_R1A@?0A@EA@CMSWindow@@8
	DD	FLAT:??_R1BM@?0A@EA@CInputKeyboard@@8
	DD	FLAT:??_R1BM@?0A@EA@CInputDevice@@8
	DD	FLAT:??_R1CA@?0A@EA@IAbstractApplication@@8
	DD	FLAT:??_R1CA@?0A@EA@?$TAbstractSingleton@VIAbstractApplication@@@@8
rdata$r	ENDS
;	COMDAT ??_C@_0CF@CBFEMJII@d?3?1ymir?5work?1special?1spheremap0@
CONST	SEGMENT
??_C@_0CF@CBFEMJII@d?3?1ymir?5work?1special?1spheremap0@ DB 'd:/ymir work'
	DB	'/special/spheremap01.jpg', 00H		; `string'
CONST	ENDS
;	COMDAT ??_C@_0CD@KIIBIHOG@d?3?1ymir?5work?1special?1spheremap?4@
CONST	SEGMENT
??_C@_0CD@KIIBIHOG@d?3?1ymir?5work?1special?1spheremap?4@ DB 'd:/ymir wor'
	DB	'k/special/spheremap.jpg', 00H		; `string'
CONST	ENDS
;	COMDAT ??_C@_0BB@EJLMKODK@?$CCCREATE_NETWORK?$CC@
CONST	SEGMENT
??_C@_0BB@EJLMKODK@?$CCCREATE_NETWORK?$CC@ DB '"CREATE_NETWORK"', 00H ; `string'
CONST	ENDS
;	COMDAT ??_C@_0BJ@CJEBNOLC@NetDevice?3?3Create?5failed@
CONST	SEGMENT
??_C@_0BJ@CJEBNOLC@NetDevice?3?3Create?5failed@ DB 'NetDevice::Create fai'
	DB	'led', 00H					; `string'
CONST	ENDS
;	COMDAT ??_C@_0BA@GLLECKCO@?$CCCREATE_CURSOR?$CC@
CONST	SEGMENT
??_C@_0BA@GLLECKCO@?$CCCREATE_CURSOR?$CC@ DB '"CREATE_CURSOR"', 00H ; `string'
CONST	ENDS
;	COMDAT ??_C@_0CA@FFOMJBHN@CMSWindow?3?3Cursors?5Create?5Error@
CONST	SEGMENT
??_C@_0CA@FFOMJBHN@CMSWindow?3?3Cursors?5Create?5Error@ DB 'CMSWindow::Cu'
	DB	'rsors Create Error', 00H			; `string'
CONST	ENDS
;	COMDAT ??_C@_0O@NOBMPFEG@CREATE_WINDOW@
CONST	SEGMENT
??_C@_0O@NOBMPFEG@CREATE_WINDOW@ DB 'CREATE_WINDOW', 00H ; `string'
CONST	ENDS
;	COMDAT ??_C@_0BJ@DBNNLGNG@CMSWindow?3?3Create?5failed@
CONST	SEGMENT
??_C@_0BJ@DBNNLGNG@CMSWindow?3?3Create?5failed@ DB 'CMSWindow::Create fai'
	DB	'led', 00H					; `string'
CONST	ENDS
;	COMDAT ??_C@_0CL@IBCOJJMI@LoadLocaleData?5?9?5LoadNPCWearIte@
CONST	SEGMENT
??_C@_0CL@IBCOJJMI@LoadLocaleData?5?9?5LoadNPCWearIte@ DB 'LoadLocaleData'
	DB	' - LoadNPCWearItem(%s) Error', 00H		; `string'
CONST	ENDS
;	COMDAT ??_C@_0DB@GEMLPGJM@LoadLocaleData?5?9?5RegisterPetSki@
CONST	SEGMENT
??_C@_0DB@GEMLPGJM@LoadLocaleData?5?9?5RegisterPetSki@ DB 'LoadLocaleData'
	DB	' - RegisterPetSkillTable(%s) Error', 00H	; `string'
CONST	ENDS
;	COMDAT ??_C@_0DF@HFNMNKEC@LoadLocaleData?5?9?5RegisterGuildB@
CONST	SEGMENT
??_C@_0DF@HFNMNKEC@LoadLocaleData?5?9?5RegisterGuildB@ DB 'LoadLocaleData'
	DB	' - RegisterGuildBuildingList(%s) Error', 00H ; `string'
CONST	ENDS
;	COMDAT ??_C@_0CO@ILPAGHEO@LoadLocaleData?5?9?5LoadLocaleQuiz@
CONST	SEGMENT
??_C@_0CO@ILPAGHEO@LoadLocaleData?5?9?5LoadLocaleQuiz@ DB 'LoadLocaleData'
	DB	' - LoadLocaleQuizVnum(%s) Error', 00H	; `string'
CONST	ENDS
;	COMDAT ??_C@_0CO@PHJMHAHD@LoadLocaleData?5?9?5LoadLocaleChat@
CONST	SEGMENT
??_C@_0CO@PHJMHAHD@LoadLocaleData?5?9?5LoadLocaleChat@ DB 'LoadLocaleData'
	DB	' - LoadLocaleChatVnum(%s) Error', 00H	; `string'
CONST	ENDS
;	COMDAT ??_C@_0DA@DIGJHCGF@LoadLocaleData?5?9?5LoadLocaleStri@
CONST	SEGMENT
??_C@_0DA@DIGJHCGF@LoadLocaleData?5?9?5LoadLocaleStri@ DB 'LoadLocaleData'
	DB	' - LoadLocaleStringVnum(%s) Error', 00H	; `string'
CONST	ENDS
;	COMDAT ??_C@_0CP@CBNIPEEN@LoadLocaleData?5?9?5LoadEventRewar@
CONST	SEGMENT
??_C@_0CP@CBNIPEEN@LoadLocaleData?5?9?5LoadEventRewar@ DB 'LoadLocaleData'
	DB	' - LoadEventRewardList(%s) Error', 00H	; `string'
CONST	ENDS
;	COMDAT ??_C@_0CJ@MDAGKIOK@LoadLocaleData?5?9?5LoadAuraScale?$CI@
CONST	SEGMENT
??_C@_0CJ@MDAGKIOK@LoadLocaleData?5?9?5LoadAuraScale?$CI@ DB 'LoadLocaleD'
	DB	'ata - LoadAuraScale(%s) Error', 00H		; `string'
CONST	ENDS
;	COMDAT ??_C@_0CI@NHMEBJOH@LoadLocaleData?3?5error?5while?5loa@
CONST	SEGMENT
??_C@_0CI@NHMEBJOH@LoadLocaleData?3?5error?5while?5loa@ DB 'LoadLocaleDat'
	DB	'a: error while loading %s.', 00H		; `string'
CONST	ENDS
;	COMDAT ??_C@_0CG@PLPHALMN@LoadMobScale?5?9?5LoadMobScale?$CI?$CFs?$CJ@
CONST	SEGMENT
??_C@_0CG@PLPHALMN@LoadMobScale?5?9?5LoadMobScale?$CI?$CFs?$CJ@ DB 'LoadM'
	DB	'obScale - LoadMobScale(%s) Error', 00H	; `string'
CONST	ENDS
;	COMDAT ??_C@_0DO@PNDPPMDH@CPythonApplication?5?9?5CPythonNet@
CONST	SEGMENT
??_C@_0DO@PNDPPMDH@CPythonApplication?5?9?5CPythonNet@ DB 'CPythonApplica'
	DB	'tion - CPythonNetworkStream::LoadInsultList(%s)', 00H ; `string'
CONST	ENDS
;	COMDAT ??_C@_0CO@HCDPLHIO@LoadLocaleData?5?9?5RegisterSkillT@
CONST	SEGMENT
??_C@_0CO@HCDPLHIO@LoadLocaleData?5?9?5RegisterSkillT@ DB 'LoadLocaleData'
	DB	' - RegisterSkillTable(%s) Error', 00H	; `string'
CONST	ENDS
;	COMDAT ??_C@_0CN@NIKOAAJF@LoadLocaleData?5?9?5RegisterSkillD@
CONST	SEGMENT
??_C@_0CN@NIKOAAJF@LoadLocaleData?5?9?5RegisterSkillD@ DB 'LoadLocaleData'
	DB	' - RegisterSkillDesc(%s) Error', 00H	; `string'
CONST	ENDS
;	COMDAT ??_C@_0CI@PNCAMHEJ@LoadLocaleData?5?9?5LoadMobProto?$CI?$CF@
CONST	SEGMENT
??_C@_0CI@PNCAMHEJ@LoadLocaleData?5?9?5LoadMobProto?$CI?$CF@ DB 'LoadLoca'
	DB	'leData - LoadMobProto(%s) Error', 00H	; `string'
CONST	ENDS
;	COMDAT ??_C@_0CI@FLOPHKEN@LoadLocaleData?5?9?5LoadItemDesc?$CI?$CF@
CONST	SEGMENT
??_C@_0CI@FLOPHKEN@LoadLocaleData?5?9?5LoadItemDesc?$CI?$CF@ DB 'LoadLoca'
	DB	'leData - LoadItemDesc(%s) Error', 00H	; `string'
CONST	ENDS
;	COMDAT ??_C@_0CJ@MIFDPICO@LoadLocaleData?5?9?5LoadItemProto?$CI@
CONST	SEGMENT
??_C@_0CJ@MIFDPICO@LoadLocaleData?5?9?5LoadItemProto?$CI@ DB 'LoadLocaleD'
	DB	'ata - LoadItemProto(%s) Error', 00H		; `string'
CONST	ENDS
;	COMDAT ??_C@_0CI@MGBDCDJE@LoadLocaleData?5?9?5LoadItemList?$CI?$CF@
CONST	SEGMENT
??_C@_0CI@MGBDCDJE@LoadLocaleData?5?9?5LoadItemList?$CI?$CF@ DB 'LoadLoca'
	DB	'leData - LoadItemList(%s) Error', 00H	; `string'
CONST	ENDS
;	COMDAT ??_C@_0O@JEIJHCCG@?$CFs?1insult?4txt@
CONST	SEGMENT
??_C@_0O@JEIJHCCG@?$CFs?1insult?4txt@ DB '%s/insult.txt', 00H ; `string'
CONST	ENDS
;	COMDAT ??_C@_0BB@JDMIHPNN@?$CFs?1SkillDesc?4txt@
CONST	SEGMENT
??_C@_0BB@JDMIHPNN@?$CFs?1SkillDesc?4txt@ DB '%s/SkillDesc.txt', 00H ; `string'
CONST	ENDS
;	COMDAT ??_C@_0N@KCBCHIHM@?$CFs?1mob_proto@
CONST	SEGMENT
??_C@_0N@KCBCHIHM@?$CFs?1mob_proto@ DB '%s/mob_proto', 00H ; `string'
CONST	ENDS
;	COMDAT ??_C@_0BA@BIDKFLDM@?$CFs?1itemdesc?4txt@
CONST	SEGMENT
??_C@_0BA@BIDKFLDM@?$CFs?1itemdesc?4txt@ DB '%s/itemdesc.txt', 00H ; `string'
CONST	ENDS
;	COMDAT ??_C@_0O@MEMEPBB@?$CFs?1item_proto@
CONST	SEGMENT
??_C@_0O@MEMEPBB@?$CFs?1item_proto@ DB '%s/item_proto', 00H ; `string'
CONST	ENDS
;	COMDAT ??_C@_0BA@EPHKNMDA@?$CFs?1npc_wear?4txt@
CONST	SEGMENT
??_C@_0BA@EPHKNMDA@?$CFs?1npc_wear?4txt@ DB '%s/npc_wear.txt', 00H ; `string'
CONST	ENDS
;	COMDAT ??_C@_0BB@EHJGDDML@?$CFs?1pet_skill?4txt@
CONST	SEGMENT
??_C@_0BB@EHJGDDML@?$CFs?1pet_skill?4txt@ DB '%s/pet_skill.txt', 00H ; `string'
CONST	ENDS
;	COMDAT ??_C@_0BJ@CILNFEAO@?$CFs?1guildbuildinglist?4txt@
CONST	SEGMENT
??_C@_0BJ@CILNFEAO@?$CFs?1guildbuildinglist?4txt@ DB '%s/guildbuildinglis'
	DB	't.txt', 00H					; `string'
CONST	ENDS
;	COMDAT ??_C@_0BD@CFBMHOFC@?$CFs?1locale_quiz?4txt@
CONST	SEGMENT
??_C@_0BD@CFBMHOFC@?$CFs?1locale_quiz?4txt@ DB '%s/locale_quiz.txt', 00H ; `string'
CONST	ENDS
;	COMDAT ??_C@_0BE@CKCMBMKI@?$CFs?1monster_chat?4txt@
CONST	SEGMENT
??_C@_0BE@CKCMBMKI@?$CFs?1monster_chat?4txt@ DB '%s/monster_chat.txt', 00H ; `string'
CONST	ENDS
;	COMDAT ??_C@_0BF@DDJEMEFH@?$CFs?1locale_string?4txt@
CONST	SEGMENT
??_C@_0BF@DDJEMEFH@?$CFs?1locale_string?4txt@ DB '%s/locale_string.txt', 00H ; `string'
CONST	ENDS
;	COMDAT ??_C@_0BJ@LHDGEGED@?$CFs?1event_reward_list?4txt@
CONST	SEGMENT
??_C@_0BJ@LHDGEGED@?$CFs?1event_reward_list?4txt@ DB '%s/event_reward_lis'
	DB	't.txt', 00H					; `string'
CONST	ENDS
;	COMDAT ??_C@_0BC@GDFAFLKP@?$CFs?1aura_scale?4txt@
CONST	SEGMENT
??_C@_0BC@GDFAFLKP@?$CFs?1aura_scale?4txt@ DB '%s/aura_scale.txt', 00H ; `string'
CONST	ENDS
;	COMDAT ??_C@_0BC@PNKIJLFN@?$CFs?1item_scale?4txt@
CONST	SEGMENT
??_C@_0BC@PNKIJLFN@?$CFs?1item_scale?4txt@ DB '%s/item_scale.txt', 00H ; `string'
CONST	ENDS
;	COMDAT ??_C@_0BB@JGLJKD@?$CFs?1mob_scale?4txt@
CONST	SEGMENT
??_C@_0BB@JGLJKD@?$CFs?1mob_scale?4txt@ DB '%s/mob_scale.txt', 00H ; `string'
CONST	ENDS
;	COMDAT ??_C@_0BC@NLEJCAEF@?$CFs?1SkillTable?4txt@
CONST	SEGMENT
??_C@_0BC@NLEJCAEF@?$CFs?1SkillTable?4txt@ DB '%s/SkillTable.txt', 00H ; `string'
CONST	ENDS
;	COMDAT ??_C@_0BB@EOELDOLA@?$CFs?1item_list?4txt@
CONST	SEGMENT
??_C@_0BB@EOELDOLA@?$CFs?1item_list?4txt@ DB '%s/item_list.txt', 00H ; `string'
CONST	ENDS
;	COMDAT ??_C@_0O@MBOHINFJ@locale?1common@
CONST	SEGMENT
??_C@_0O@MBOHINFJ@locale?1common@ DB 'locale/common', 00H ; `string'
CONST	ENDS
;	COMDAT ??_C@_0BN@JAHEKIGK@CreateDevice?3?5Unknown?5Error?$CB@
CONST	SEGMENT
??_C@_0BN@JAHEKIGK@CreateDevice?3?5Unknown?5Error?$CB@ DB 'CreateDevice: '
	DB	'Unknown Error!', 00H			; `string'
CONST	ENDS
;	COMDAT ??_C@_0O@BAEJJDKB@UNKNOWN_ERROR@
CONST	SEGMENT
??_C@_0O@BAEJJDKB@UNKNOWN_ERROR@ DB 'UNKNOWN_ERROR', 00H ; `string'
CONST	ENDS
;	COMDAT ??_C@_0CB@JLAAEKGJ@CreateDevice?3?5GetDevCaps2?5faile@
CONST	SEGMENT
??_C@_0CB@JLAAEKGJ@CreateDevice?3?5GetDevCaps2?5faile@ DB 'CreateDevice: '
	DB	'GetDevCaps2 failed', 00H			; `string'
CONST	ENDS
;	COMDAT ??_C@_0BD@IHNLMMLJ@GetDevCaps2?5failed@
CONST	SEGMENT
??_C@_0BD@IHNLMMLJ@GetDevCaps2?5failed@ DB 'GetDevCaps2 failed', 00H ; `string'
CONST	ENDS
;	COMDAT ??_C@_0CA@DLHDILBB@CreateDevice?3?5GetDevCaps?5failed@
CONST	SEGMENT
??_C@_0CA@DLHDILBB@CreateDevice?3?5GetDevCaps?5failed@ DB 'CreateDevice: '
	DB	'GetDevCaps failed', 00H			; `string'
CONST	ENDS
;	COMDAT ??_C@_0BC@IMJEDJEA@GetDevCaps?5failed@
CONST	SEGMENT
??_C@_0BC@IMJEDJEA@GetDevCaps?5failed@ DB 'GetDevCaps failed', 00H ; `string'
CONST	ENDS
;	COMDAT ??_C@_0CH@DEBFNBPL@CreateDevice?3?5Change?5the?5screen@
CONST	SEGMENT
??_C@_0CH@DEBFNBPL@CreateDevice?3?5Change?5the?5screen@ DB 'CreateDevice:'
	DB	' Change the screen format', 00H		; `string'
CONST	ENDS
;	COMDAT ??_C@_0O@DAEHMKOB@CREATE_FORMAT@
CONST	SEGMENT
??_C@_0O@DAEHMKOB@CREATE_FORMAT@ DB 'CREATE_FORMAT', 00H ; `string'
CONST	ENDS
;	COMDAT ??_C@_0CK@KMPBIDGP@CreateDevice?3?5GraphicDevice?5cre@
CONST	SEGMENT
??_C@_0CK@KMPBIDGP@CreateDevice?3?5GraphicDevice?5cre@ DB 'CreateDevice: '
	DB	'GraphicDevice create failed', 00H		; `string'
CONST	ENDS
;	COMDAT ??_C@_0O@CMPMDOEH@CREATE_DEVICE@
CONST	SEGMENT
??_C@_0O@CMPMDOEH@CREATE_DEVICE@ DB 'CREATE_DEVICE', 00H ; `string'
CONST	ENDS
;	COMDAT ??_C@_0DK@GACPAJMM@CreateDevice?3?5DirectX?58?41?5or?5gr@
CONST	SEGMENT
??_C@_0DK@GACPAJMM@CreateDevice?3?5DirectX?58?41?5or?5gr@ DB 'CreateDevic'
	DB	'e: DirectX 8.1 or greater required to run game', 00H ; `string'
CONST	ENDS
;	COMDAT ??_C@_0BC@NKAKBNDM@CREATE_NO_DIRECTX@
CONST	SEGMENT
??_C@_0BC@NKAKBNDM@CREATE_NO_DIRECTX@ DB 'CREATE_NO_DIRECTX', 00H ; `string'
CONST	ENDS
;	COMDAT ??_C@_0CD@GGLEAAKE@CreateDevice?3?5Enum?5?$CG?5Detect?5fai@
CONST	SEGMENT
??_C@_0CD@GGLEAAKE@CreateDevice?3?5Enum?5?$CG?5Detect?5fai@ DB 'CreateDev'
	DB	'ice: Enum & Detect failed', 00H		; `string'
CONST	ENDS
;	COMDAT ??_C@_0BN@OAKBEJJN@CREATE_NO_APPROPRIATE_DEVICE@
CONST	SEGMENT
??_C@_0BN@OAKBEJJN@CREATE_NO_APPROPRIATE_DEVICE@ DB 'CREATE_NO_APPROPRIAT'
	DB	'E_DEVICE', 00H				; `string'
CONST	ENDS
;	COMDAT ??_C@_0CF@LOPCCCAL@DEVICESTATE_NEEDS_RESET?5?9?5attem@
CONST	SEGMENT
??_C@_0CF@LOPCCCAL@DEVICESTATE_NEEDS_RESET?5?9?5attem@ DB 'DEVICESTATE_NE'
	DB	'EDS_RESET - attempting', 00H		; `string'
CONST	ENDS
;	COMDAT ??_C@_0BL@GHJOJKGG@FrameSkip?5Adjusting?4?4?4?5?$CFd?6@
CONST	SEGMENT
??_C@_0BL@GHJOJKGG@FrameSkip?5Adjusting?4?4?4?5?$CFd?6@ DB 'FrameSkip Adj'
	DB	'usting... %d', 0aH, 00H			; `string'
CONST	ENDS
;	COMDAT ??_C@_0M@EHJKIBDK@Abort?$CB?$CB?$CB?$CB?6?6@
CONST	SEGMENT
??_C@_0M@EHJKIBDK@Abort?$CB?$CB?$CB?$CB?6?6@ DB 'Abort!!!!', 0aH, 0aH, 00H ; `string'
CONST	ENDS
;	COMDAT ??_C@_0GN@LLBDNFAM@?$DN?$DN?$DN?$DN?$DN?$DN?$DN?$DN?$DN?$DN?$DN?$DN?$DN?$DN?$DN?$DN?$DN?$DN?$DN?$DN?$DN?$DN?$DN?$DN?$DN?$DN?$DN?$DN?$DN?$DN?$DN@
CONST	SEGMENT
??_C@_0GN@LLBDNFAM@?$DN?$DN?$DN?$DN?$DN?$DN?$DN?$DN?$DN?$DN?$DN?$DN?$DN?$DN?$DN?$DN?$DN?$DN?$DN?$DN?$DN?$DN?$DN?$DN?$DN?$DN?$DN?$DN?$DN?$DN?$DN@ DB '='
	DB	'============================================================='
	DB	'==============================================', 00H ; `string'
CONST	ENDS
;	COMDAT ??_C@_1DA@IANAENLC@?$AAm?$AAs?$AA_?$AAp?$AAI?$AAn?$AAs?$AAt?$AAa?$AAn?$AAc?$AAe?$AA?5?$AA?$CB?$AA?$DN@
CONST	SEGMENT
??_C@_1DA@IANAENLC@?$AAm?$AAs?$AA_?$AAp?$AAI?$AAn?$AAs?$AAt?$AAa?$AAn?$AAc?$AAe?$AA?5?$AA?$CB?$AA?$DN@ DB 'm'
	DB	00H, 's', 00H, '_', 00H, 'p', 00H, 'I', 00H, 'n', 00H, 's', 00H
	DB	't', 00H, 'a', 00H, 'n', 00H, 'c', 00H, 'e', 00H, ' ', 00H, '!'
	DB	00H, '=', 00H, ' ', 00H, 'n', 00H, 'u', 00H, 'l', 00H, 'l', 00H
	DB	'p', 00H, 't', 00H, 'r', 00H, 00H, 00H	; `string'
CONST	ENDS
;	COMDAT ??_C@_1KI@NDOHEKDB@?$AAC?$AA?3?$AA?2?$AAA?$AAn?$AAk?$AAa?$AA2?$AAP?$AAr?$AAo?$AAj?$AAe?$AAc?$AAt@
CONST	SEGMENT
??_C@_1KI@NDOHEKDB@?$AAC?$AA?3?$AA?2?$AAA?$AAn?$AAk?$AAa?$AA2?$AAP?$AAr?$AAo?$AAj?$AAe?$AAc?$AAt@ DB 'C'
	DB	00H, ':', 00H, '\', 00H, 'A', 00H, 'n', 00H, 'k', 00H, 'a', 00H
	DB	'2', 00H, 'P', 00H, 'r', 00H, 'o', 00H, 'j', 00H, 'e', 00H, 'c'
	DB	00H, 't', 00H, '\', 00H, 'A', 00H, 'n', 00H, 'k', 00H, 'a', 00H
	DB	'2', 00H, 'P', 00H, 'r', 00H, 'o', 00H, 'j', 00H, 'e', 00H, 'c'
	DB	00H, 't', 00H, '\', 00H, 'S', 00H, 'o', 00H, 'u', 00H, 'r', 00H
	DB	'c', 00H, 'e', 00H, '\', 00H, 'B', 00H, 'i', 00H, 'n', 00H, 'a'
	DB	00H, 'r', 00H, 'y', 00H, '\', 00H, 's', 00H, 'o', 00H, 'u', 00H
	DB	'r', 00H, 'c', 00H, 'e', 00H, '\', 00H, 'U', 00H, 's', 00H, 'e'
	DB	00H, 'r', 00H, 'I', 00H, 'n', 00H, 't', 00H, 'e', 00H, 'r', 00H
	DB	'f', 00H, 'a', 00H, 'c', 00H, 'e', 00H, '\', 00H, 'P', 00H, 'y'
	DB	00H, 't', 00H, 'h', 00H, 'o', 00H, 'n', 00H, 'A', 00H, 'p', 00H
	DB	'p', 00H, 'l', 00H, 'i', 00H, 'c', 00H, 'a', 00H, 't', 00H, 'i'
	DB	00H, 'o', 00H, 'n', 00H, '.', 00H, 'h', 00H, 00H, 00H ; `string'
?MIN_FOG@@3MA DD 045160000r			; 2400	; MIN_FOG
?g_specularSpd@@3NA DQ 03f7cac0840000000r	; 0.007	; g_specularSpd
?c_fDefaultCameraZoomSpeed@@3MA DD 03d4ccccdr	; 0.05	; c_fDefaultCameraZoomSpeed
?c_fDefaultCameraPitchSpeed@@3MA DD 03fc00000r	; 1.5	; c_fDefaultCameraPitchSpeed
?c_fDefaultCameraRotateSpeed@@3MA DD 03fc00000r	; 1.5	; c_fDefaultCameraRotateSpeed
PUBLIC	?SetUpdateTime@CTimer@@QAEXIEE@Z		; CTimer::SetUpdateTime
PUBLIC	??_ECPythonApplication@@WCA@AEPAXI@Z		; [thunk]:CPythonApplication::`vector deleting destructor'
PUBLIC	??_ECPythonApplication@@WBM@AEPAXI@Z		; [thunk]:CPythonApplication::`vector deleting destructor'
PUBLIC	??$construct_at@PAU?$_Tree_node@U?$pair@$$CBHPAX@std@@PAX@std@@ABQAU12@@std@@YAPAPAU?$_Tree_node@U?$pair@$$CBHPAX@std@@PAX@0@QAPAU10@ABQAU10@@Z ; std::construct_at<std::_Tree_node<std::pair<int const ,void *>,void *> *,std::_Tree_node<std::pair<int const ,void *>,void *> * const &>
PUBLIC	??$forward@ABQAU?$_Tree_node@U?$pair@$$CBHPAX@std@@PAX@std@@@std@@YAABQAU?$_Tree_node@U?$pair@$$CBHPAX@std@@PAX@0@ABQAU10@@Z ; std::forward<std::_Tree_node<std::pair<int const ,void *>,void *> * const &>
PUBLIC	??$addressof@PAU?$_Tree_node@U?$pair@$$CBHPAX@std@@PAX@std@@@std@@YAPAPAU?$_Tree_node@U?$pair@$$CBHPAX@std@@PAX@0@AAPAU10@@Z ; std::addressof<std::_Tree_node<std::pair<int const ,void *>,void *> *>
PUBLIC	??$destroy_at@U?$pair@$$CBHPAX@std@@@std@@YAXQAU?$pair@$$CBHPAX@0@@Z ; std::destroy_at<std::pair<int const ,void *> >
PUBLIC	??0?$allocator@U?$_Tree_node@U?$pair@$$CBHPAX@std@@PAX@std@@@std@@QAE@XZ ; std::allocator<std::_Tree_node<std::pair<int const ,void *>,void *> >::allocator<std::_Tree_node<std::pair<int const ,void *>,void *> >
PUBLIC	?deallocate@?$allocator@U?$_Tree_node@U?$pair@$$CBHPAX@std@@PAX@std@@@std@@QAEXQAU?$_Tree_node@U?$pair@$$CBHPAX@std@@PAX@2@I@Z ; std::allocator<std::_Tree_node<std::pair<int const ,void *>,void *> >::deallocate
PUBLIC	?allocate@?$allocator@U?$_Tree_node@U?$pair@$$CBHPAX@std@@PAX@std@@@std@@QAEPAU?$_Tree_node@U?$pair@$$CBHPAX@std@@PAX@2@I@Z ; std::allocator<std::_Tree_node<std::pair<int const ,void *>,void *> >::allocate
PUBLIC	??0?$_Tree_val@U?$_Tree_simple_types@U?$pair@$$CBHPAX@std@@@std@@@std@@QAE@XZ ; std::_Tree_val<std::_Tree_simple_types<std::pair<int const ,void *> > >::_Tree_val<std::_Tree_simple_types<std::pair<int const ,void *> > >
PUBLIC	??$_Construct_in_place@PAU?$_Tree_node@U?$pair@$$CBHPAX@std@@PAX@std@@ABQAU12@@std@@YAXAAPAU?$_Tree_node@U?$pair@$$CBHPAX@std@@PAX@0@ABQAU10@@Z ; std::_Construct_in_place<std::_Tree_node<std::pair<int const ,void *>,void *> *,std::_Tree_node<std::pair<int const ,void *>,void *> * const &>
PUBLIC	??$destroy@U?$pair@$$CBHPAX@std@@@?$_Default_allocator_traits@V?$allocator@U?$_Tree_node@U?$pair@$$CBHPAX@std@@PAX@std@@@std@@@std@@SAXAAV?$allocator@U?$_Tree_node@U?$pair@$$CBHPAX@std@@PAX@std@@@1@QAU?$pair@$$CBHPAX@1@@Z ; std::_Default_allocator_traits<std::allocator<std::_Tree_node<std::pair<int const ,void *>,void *> > >::destroy<std::pair<int const ,void *> >
PUBLIC	??$addressof@U?$pair@$$CBHPAX@std@@@std@@YAPAU?$pair@$$CBHPAX@0@AAU10@@Z ; std::addressof<std::pair<int const ,void *> >
PUBLIC	?deallocate@?$_Default_allocator_traits@V?$allocator@U?$_Tree_node@U?$pair@$$CBHPAX@std@@PAX@std@@@std@@@std@@SAXAAV?$allocator@U?$_Tree_node@U?$pair@$$CBHPAX@std@@PAX@std@@@2@QAU?$_Tree_node@U?$pair@$$CBHPAX@std@@PAX@2@I@Z ; std::_Default_allocator_traits<std::allocator<std::_Tree_node<std::pair<int const ,void *>,void *> > >::deallocate
PUBLIC	??$_Buyheadnode@V?$allocator@U?$_Tree_node@U?$pair@$$CBHPAX@std@@PAX@std@@@std@@@?$_Tree_node@U?$pair@$$CBHPAX@std@@PAX@std@@SAPAU01@AAV?$allocator@U?$_Tree_node@U?$pair@$$CBHPAX@std@@PAX@std@@@1@@Z ; std::_Tree_node<std::pair<int const ,void *>,void *>::_Buyheadnode<std::allocator<std::_Tree_node<std::pair<int const ,void *>,void *> > >
PUBLIC	??$_Destroy_in_place@PAU?$_Tree_node@U?$pair@$$CBHPAX@std@@PAX@std@@@std@@YAXAAPAU?$_Tree_node@U?$pair@$$CBHPAX@std@@PAX@0@@Z ; std::_Destroy_in_place<std::_Tree_node<std::pair<int const ,void *>,void *> *>
PUBLIC	??$_Freenode@V?$allocator@U?$_Tree_node@U?$pair@$$CBHPAX@std@@PAX@std@@@std@@@?$_Tree_node@U?$pair@$$CBHPAX@std@@PAX@std@@SAXAAV?$allocator@U?$_Tree_node@U?$pair@$$CBHPAX@std@@PAX@std@@@1@PAU01@@Z ; std::_Tree_node<std::pair<int const ,void *>,void *>::_Freenode<std::allocator<std::_Tree_node<std::pair<int const ,void *>,void *> > >
PUBLIC	??$exchange@PAU?$_Tree_node@U?$pair@$$CBHPAX@std@@PAX@std@@AAPAU12@@std@@YAPAU?$_Tree_node@U?$pair@$$CBHPAX@std@@PAX@0@AAPAU10@0@Z ; std::exchange<std::_Tree_node<std::pair<int const ,void *>,void *> *,std::_Tree_node<std::pair<int const ,void *>,void *> * &>
PUBLIC	??$?0$$V@?$_Compressed_pair@V?$allocator@U?$_Tree_node@U?$pair@$$CBHPAX@std@@PAX@std@@@std@@V?$_Tree_val@U?$_Tree_simple_types@U?$pair@$$CBHPAX@std@@@std@@@2@$00@std@@QAE@U_Zero_then_variadic_args_t@1@@Z ; std::_Compressed_pair<std::allocator<std::_Tree_node<std::pair<int const ,void *>,void *> >,std::_Tree_val<std::_Tree_simple_types<std::pair<int const ,void *> > >,1>::_Compressed_pair<std::allocator<std::_Tree_node<std::pair<int const ,void *>,void *> >,std::_Tree_val<std::_Tree_simple_types<std::pair<int const ,void *> > >,1><>
PUBLIC	?_Alloc_sentinel_and_proxy@?$_Tree@V?$_Tmap_traits@HPAXU?$less@H@std@@V?$allocator@U?$pair@$$CBHPAX@std@@@2@$0A@@std@@@std@@IAEXXZ ; std::_Tree<std::_Tmap_traits<int,void *,std::less<int>,std::allocator<std::pair<int const ,void *> >,0> >::_Alloc_sentinel_and_proxy
PUBLIC	?_Get_first@?$_Compressed_pair@V?$allocator@U?$_Tree_node@U?$pair@$$CBHPAX@std@@PAX@std@@@std@@V?$_Tree_val@U?$_Tree_simple_types@U?$pair@$$CBHPAX@std@@@std@@@2@$00@std@@QAEAAV?$allocator@U?$_Tree_node@U?$pair@$$CBHPAX@std@@PAX@std@@@2@XZ ; std::_Compressed_pair<std::allocator<std::_Tree_node<std::pair<int const ,void *>,void *> >,std::_Tree_val<std::_Tree_simple_types<std::pair<int const ,void *> > >,1>::_Get_first
PUBLIC	??$?0ABU?$less@H@std@@U_Zero_then_variadic_args_t@1@@?$_Compressed_pair@U?$less@H@std@@V?$_Compressed_pair@V?$allocator@U?$_Tree_node@U?$pair@$$CBHPAX@std@@PAX@std@@@std@@V?$_Tree_val@U?$_Tree_simple_types@U?$pair@$$CBHPAX@std@@@std@@@2@$00@2@$00@std@@QAE@U_One_then_variadic_args_t@1@ABU?$less@H@1@$$QAU_Zero_then_variadic_args_t@1@@Z ; std::_Compressed_pair<std::less<int>,std::_Compressed_pair<std::allocator<std::_Tree_node<std::pair<int const ,void *>,void *> >,std::_Tree_val<std::_Tree_simple_types<std::pair<int const ,void *> > >,1>,1>::_Compressed_pair<std::less<int>,std::_Compressed_pair<std::allocator<std::_Tree_node<std::pair<int const ,void *>,void *> >,std::_Tree_val<std::_Tree_simple_types<std::pair<int const ,void *> > >,1>,1><std::less<int> const &,std::_Zero_then_variadic_args_t>
PUBLIC	??$addressof@V?$_Tree_val@U?$_Tree_simple_types@U?$pair@$$CBHPAX@std@@@std@@@std@@@std@@YAPAV?$_Tree_val@U?$_Tree_simple_types@U?$pair@$$CBHPAX@std@@@std@@@0@AAV10@@Z ; std::addressof<std::_Tree_val<std::_Tree_simple_types<std::pair<int const ,void *> > > >
PUBLIC	??$_Freenode0@V?$allocator@U?$_Tree_node@U?$pair@$$CBHPAX@std@@PAX@std@@@std@@@?$_Tree_node@U?$pair@$$CBHPAX@std@@PAX@std@@SAXAAV?$allocator@U?$_Tree_node@U?$pair@$$CBHPAX@std@@PAX@std@@@1@PAU01@@Z ; std::_Tree_node<std::pair<int const ,void *>,void *>::_Freenode0<std::allocator<std::_Tree_node<std::pair<int const ,void *>,void *> > >
PUBLIC	??$_Erase_tree@V?$allocator@U?$_Tree_node@U?$pair@$$CBHPAX@std@@PAX@std@@@std@@@?$_Tree_val@U?$_Tree_simple_types@U?$pair@$$CBHPAX@std@@@std@@@std@@QAEXAAV?$allocator@U?$_Tree_node@U?$pair@$$CBHPAX@std@@PAX@std@@@1@PAU?$_Tree_node@U?$pair@$$CBHPAX@std@@PAX@1@@Z ; std::_Tree_val<std::_Tree_simple_types<std::pair<int const ,void *> > >::_Erase_tree<std::allocator<std::_Tree_node<std::pair<int const ,void *>,void *> > >
PUBLIC	??$?0H@?$_Tuple_val@H@std@@QAE@$$QAH@Z		; std::_Tuple_val<int>::_Tuple_val<int><int>
PUBLIC	??$?0U_Exact_args_t@std@@H$$V$0A@@?$tuple@H@std@@QAE@U_Exact_args_t@1@$$QAH@Z ; std::tuple<int>::tuple<int><std::_Exact_args_t,int,0>
PUBLIC	??0?$_Tree@V?$_Tmap_traits@HPAXU?$less@H@std@@V?$allocator@U?$pair@$$CBHPAX@std@@@2@$0A@@std@@@std@@QAE@ABU?$less@H@1@@Z ; std::_Tree<std::_Tmap_traits<int,void *,std::less<int>,std::allocator<std::pair<int const ,void *> >,0> >::_Tree<std::_Tmap_traits<int,void *,std::less<int>,std::allocator<std::pair<int const ,void *> >,0> >
PUBLIC	?_Getal@?$_Tree@V?$_Tmap_traits@HPAXU?$less@H@std@@V?$allocator@U?$pair@$$CBHPAX@std@@@2@$0A@@std@@@std@@IAEAAV?$allocator@U?$_Tree_node@U?$pair@$$CBHPAX@std@@PAX@std@@@2@XZ ; std::_Tree<std::_Tmap_traits<int,void *,std::less<int>,std::allocator<std::pair<int const ,void *> >,0> >::_Getal
PUBLIC	?_Get_scary@?$_Tree@V?$_Tmap_traits@HPAXU?$less@H@std@@V?$allocator@U?$pair@$$CBHPAX@std@@@2@$0A@@std@@@std@@IAEPAV?$_Tree_val@U?$_Tree_simple_types@U?$pair@$$CBHPAX@std@@@std@@@2@XZ ; std::_Tree<std::_Tmap_traits<int,void *,std::less<int>,std::allocator<std::pair<int const ,void *> >,0> >::_Get_scary
PUBLIC	??$_Erase_head@V?$allocator@U?$_Tree_node@U?$pair@$$CBHPAX@std@@PAX@std@@@std@@@?$_Tree_val@U?$_Tree_simple_types@U?$pair@$$CBHPAX@std@@@std@@@std@@QAEXAAV?$allocator@U?$_Tree_node@U?$pair@$$CBHPAX@std@@PAX@std@@@1@@Z ; std::_Tree_val<std::_Tree_simple_types<std::pair<int const ,void *> > >::_Erase_head<std::allocator<std::_Tree_node<std::pair<int const ,void *>,void *> > >
PUBLIC	??$?0U_Exact_args_t@std@@HH$0A@@?$tuple@HH@std@@QAE@U_Exact_args_t@1@$$QAH1@Z ; std::tuple<int,int>::tuple<int,int><std::_Exact_args_t,int,int,0>
PUBLIC	??_G?$TAbstractSingleton@VIAbstractApplication@@@@UAEPAXI@Z ; TAbstractSingleton<IAbstractApplication>::`scalar deleting destructor'
PUBLIC	?Instance@?$CSingleton@VCTimer@@@@SAAAVCTimer@@XZ ; CSingleton<CTimer>::Instance
PUBLIC	?Instance@?$CSingleton@VCWindowManager@UI@@@@SAAAVCWindowManager@UI@@XZ ; CSingleton<UI::CWindowManager>::Instance
PUBLIC	?Instance@?$CSingleton@VCPythonIME@@@@SAAAVCPythonIME@@XZ ; CSingleton<CPythonIME>::Instance
PUBLIC	??0?$TAbstractSingleton@VIAbstractApplication@@@@QAE@XZ ; TAbstractSingleton<IAbstractApplication>::TAbstractSingleton<IAbstractApplication>
PUBLIC	??1?$TAbstractSingleton@VIAbstractApplication@@@@UAE@XZ ; TAbstractSingleton<IAbstractApplication>::~TAbstractSingleton<IAbstractApplication>
PUBLIC	?Instance@?$CSingleton@VCPythonPlayerSettingsModule@@@@SAAAVCPythonPlayerSettingsModule@@XZ ; CSingleton<CPythonPlayerSettingsModule>::Instance
PUBLIC	?Instance@?$CSingleton@VCRenderTargetManager@@@@SAAAVCRenderTargetManager@@XZ ; CSingleton<CRenderTargetManager>::Instance
PUBLIC	?Instance@?$CSingleton@VInGameEventManager@@@@SAAAVInGameEventManager@@XZ ; CSingleton<InGameEventManager>::Instance
PUBLIC	?Instance@?$CSingleton@VCPythonWiki@@@@SAAAVCPythonWiki@@XZ ; CSingleton<CPythonWiki>::Instance
PUBLIC	??0?$map@HPAXU?$less@H@std@@V?$allocator@U?$pair@$$CBHPAX@std@@@2@@std@@QAE@XZ ; std::map<int,void *,std::less<int>,std::allocator<std::pair<int const ,void *> > >::map<int,void *,std::less<int>,std::allocator<std::pair<int const ,void *> > >
PUBLIC	??1?$_Tree@V?$_Tmap_traits@HPAXU?$less@H@std@@V?$allocator@U?$pair@$$CBHPAX@std@@@2@$0A@@std@@@std@@QAE@XZ ; std::_Tree<std::_Tmap_traits<int,void *,std::less<int>,std::allocator<std::pair<int const ,void *> >,0> >::~_Tree<std::_Tmap_traits<int,void *,std::less<int>,std::allocator<std::pair<int const ,void *> >,0> >
PUBLIC	??$get@$00HH@std@@YA$$QAH$$QAV?$tuple@HH@0@@Z	; std::get<1,int,int>
PUBLIC	??$get@$0A@HH@std@@YA$$QAH$$QAV?$tuple@HH@0@@Z	; std::get<0,int,int>
PUBLIC	??$<move>@AAV?$tuple@HH@std@@@@YA$$QAV?$tuple@HH@std@@AAV01@@Z ; <move><std::tuple<int,int> &>
PUBLIC	??$?0HH$0A@@?$tuple@HH@std@@QAE@$$QAH0@Z	; std::tuple<int,int>::tuple<int,int><int,int,0>
PUBLIC	?Destroy@CPythonApplication@@QAEXXZ		; CPythonApplication::Destroy
PUBLIC	?MultiFarmBlockIcon@CPythonApplication@@QAEXE@Z	; CPythonApplication::MultiFarmBlockIcon
PUBLIC	?FlashApplication@CPythonApplication@@QAEXXZ	; CPythonApplication::FlashApplication
PUBLIC	?Clear@CPythonApplication@@QAEXXZ		; CPythonApplication::Clear
PUBLIC	?SetForceSightRange@CPythonApplication@@QAEXH@Z	; CPythonApplication::SetForceSightRange
PUBLIC	?SetCameraSpeed@CPythonApplication@@QAEXH@Z	; CPythonApplication::SetCameraSpeed
PUBLIC	?EnableSpecialCameraMode@CPythonApplication@@QAEXXZ ; CPythonApplication::EnableSpecialCameraMode
PUBLIC	?GetConnectData@CPythonApplication@@QAEXAAV?$basic_string@DU?$char_traits@D@std@@V?$allocator@D@2@@std@@AAH@Z ; CPythonApplication::GetConnectData
PUBLIC	?SetConnectData@CPythonApplication@@QAEXPBDH@Z	; CPythonApplication::SetConnectData
PUBLIC	?GetHeight@CPythonApplication@@QAEHXZ		; CPythonApplication::GetHeight
PUBLIC	?GetWidth@CPythonApplication@@QAEHXZ		; CPythonApplication::GetWidth
PUBLIC	?SetFPS@CPythonApplication@@QAEXH@Z		; CPythonApplication::SetFPS
PUBLIC	?GetGlobalElapsedTime@CPythonApplication@@UAEMXZ ; CPythonApplication::GetGlobalElapsedTime
PUBLIC	?GetGlobalTime@CPythonApplication@@UAEMXZ	; CPythonApplication::GetGlobalTime
PUBLIC	?GetServerTimeStamp@CPythonApplication@@QAEJXZ	; CPythonApplication::GetServerTimeStamp
PUBLIC	?GetServerTime@CPythonApplication@@QAEJXZ	; CPythonApplication::GetServerTime
PUBLIC	?SetServerTime@CPythonApplication@@UAEXJ@Z	; CPythonApplication::SetServerTime
PUBLIC	?GetCenterPosition@CPythonApplication@@QAEXPAUD3DXVECTOR3@@@Z ; CPythonApplication::GetCenterPosition
PUBLIC	?SetCenterPosition@CPythonApplication@@UAEXMMM@Z ; CPythonApplication::SetCenterPosition
PUBLIC	?SetGlobalCenterPosition@CPythonApplication@@QAEXJJ@Z ; CPythonApplication::SetGlobalCenterPosition
PUBLIC	?Create@CPythonApplication@@QAE_NPAU_object@@PBDHHH@Z ; CPythonApplication::Create
PUBLIC	?__GetWindowMode@@YAI_N@Z			; __GetWindowMode
PUBLIC	?LoadLocaleData@@YA_NPBD@Z			; LoadLocaleData
PUBLIC	?Loop@CPythonApplication@@QAEXXZ		; CPythonApplication::Loop
PUBLIC	?CreateDevice@CPythonApplication@@QAE_NHHHHH@Z	; CPythonApplication::CreateDevice
PUBLIC	?GetTimer@@YA?AV?$tuple@HH@std@@H@Z		; GetTimer
PUBLIC	?CheckDeviceState@CPythonApplication@@IAEHXZ	; CPythonApplication::CheckDeviceState
PUBLIC	?SetMouseHandler@CPythonApplication@@QAEXPAU_object@@@Z ; CPythonApplication::SetMouseHandler
PUBLIC	?Process@CPythonApplication@@QAE_NXZ		; CPythonApplication::Process
PUBLIC	?SkipRenderBuffering@CPythonApplication@@UAEXK@Z ; CPythonApplication::SkipRenderBuffering
PUBLIC	?UpdateGame@CPythonApplication@@QAEXXZ		; CPythonApplication::UpdateGame
PUBLIC	?RenderGame@CPythonApplication@@QAEXXZ		; CPythonApplication::RenderGame
PUBLIC	?Exit@CPythonApplication@@QAEXXZ		; CPythonApplication::Exit
PUBLIC	?Abort@CPythonApplication@@QAEXXZ		; CPythonApplication::Abort
PUBLIC	?GetInfo@CPythonApplication@@QAEXIPAV?$basic_string@DU?$char_traits@D@std@@V?$allocator@D@2@@std@@@Z ; CPythonApplication::GetInfo
PUBLIC	?SetFrameSkip@CPythonApplication@@QAEX_N@Z	; CPythonApplication::SetFrameSkip
PUBLIC	?SetMinFog@CPythonApplication@@QAEXM@Z		; CPythonApplication::SetMinFog
PUBLIC	?GetMousePosition@CPythonApplication@@UAEXPAUtagPOINT@@@Z ; CPythonApplication::GetMousePosition
PUBLIC	??1CPythonApplication@@UAE@XZ			; CPythonApplication::~CPythonApplication
PUBLIC	??1?$map@HPAXU?$less@H@std@@V?$allocator@U?$pair@$$CBHPAX@std@@@2@@std@@QAE@XZ ; std::map<int,void *,std::less<int>,std::allocator<std::pair<int const ,void *> > >::~map<int,void *,std::less<int>,std::allocator<std::pair<int const ,void *> > >
PUBLIC	??_GCPythonApplication@@UAEPAXI@Z		; CPythonApplication::`scalar deleting destructor'
PUBLIC	??0CPythonApplication@@QAE@XZ			; CPythonApplication::CPythonApplication
PUBLIC	?Instance@CPythonApplication@@SAAAV1@XZ		; CPythonApplication::Instance
PUBLIC	??0SCameraSpeed@CPythonApplication@@QAE@XZ	; CPythonApplication::SCameraSpeed::SCameraSpeed
PUBLIC	??_GIAbstractApplication@@UAEPAXI@Z		; IAbstractApplication::`scalar deleting destructor'
PUBLIC	??1IAbstractApplication@@UAE@XZ			; IAbstractApplication::~IAbstractApplication
PUBLIC	??0IAbstractApplication@@QAE@XZ			; IAbstractApplication::IAbstractApplication
PUBLIC	??0SCameraSetting@IAbstractApplication@@QAE@XZ	; IAbstractApplication::SCameraSetting::SCameraSetting
PUBLIC	??0SCameraPos@IAbstractApplication@@QAE@XZ	; IAbstractApplication::SCameraPos::SCameraPos
PUBLIC	?SetMapManagerPtr@CFlyingManager@@QAEXPAVCMapManager@@@Z ; CFlyingManager::SetMapManagerPtr
EXTRN	??_EIAbstractApplication@@UAEPAXI@Z:PROC	; IAbstractApplication::`vector deleting destructor'
EXTRN	??_E?$TAbstractSingleton@VIAbstractApplication@@@@UAEPAXI@Z:PROC ; TAbstractSingleton<IAbstractApplication>::`vector deleting destructor'
EXTRN	??_ECPythonApplication@@UAEPAXI@Z:PROC		; CPythonApplication::`vector deleting destructor'
?vecDropSoundFileName@@3V?$array@U?$pair@KV?$basic_string@DU?$char_traits@D@std@@V?$allocator@D@2@@std@@@std@@$04@std@@B DB 08cH DUP (?) ; vecDropSoundFileName
?vecEffectList@@3V?$vector@V?$tuple@IPBDPBD_N@std@@V?$allocator@V?$tuple@IPBDPBD_N@std@@@2@@std@@B DB 0cH DUP (?) ; vecEffectList
?characterNameColors@@3V?$map@EV?$array@E$02@std@@U?$less@E@2@V?$allocator@U?$pair@$$CBEV?$array@E$02@std@@@std@@@2@@std@@B DQ 01H DUP (?) ; characterNameColors
?characterTitleColors@@3V?$map@EV?$array@E$02@std@@U?$less@E@2@V?$allocator@U?$pair@$$CBEV?$array@E$02@std@@@std@@@2@@std@@B DQ 01H DUP (?) ; characterTitleColors
?characterTitleSystemColors@@3V?$map@EV?$array@E$02@std@@U?$less@E@2@V?$allocator@U?$pair@$$CBEV?$array@E$02@std@@@std@@@2@@std@@B DQ 01H DUP (?) ; characterTitleSystemColors
?emotionIcons@@3V?$map@EPBDU?$less@E@std@@V?$allocator@U?$pair@$$CBEPBD@std@@@2@@std@@B DQ 01H DUP (?) ; emotionIcons
?skillIndexes@@3V?$map@EV?$map@EV?$vector@EV?$allocator@E@std@@@std@@U?$less@E@2@V?$allocator@U?$pair@$$CBEV?$vector@EV?$allocator@E@std@@@std@@@std@@@2@@std@@U?$less@E@2@V?$allocator@U?$pair@$$CBEV?$map@EV?$vector@EV?$allocator@E@std@@@std@@U?$less@E@2@V?$allocator@U?$pair@$$CBEV?$vector@EV?$allocator@E@std@@@std@@@std@@@2@@std@@@std@@@2@@std@@B DQ 01H DUP (?) ; skillIndexes
?guildSkills@@3V?$map@V?$basic_string@DU?$char_traits@D@std@@V?$allocator@D@2@@std@@V?$vector@EV?$allocator@E@std@@@2@U?$less@V?$basic_string@DU?$char_traits@D@std@@V?$allocator@D@2@@std@@@2@V?$allocator@U?$pair@$$CBV?$basic_string@DU?$char_traits@D@std@@V?$allocator@D@2@@std@@V?$vector@EV?$allocator@E@std@@@2@@std@@@2@@std@@B DQ 01H DUP (?) ; guildSkills
_BSS	ENDS
;	COMDAT ?$TSS0@?1??Process@CPythonApplication@@QAE_NXZ@4HA
_BSS	SEGMENT
?$TSS0@?1??Process@CPythonApplication@@QAE_NXZ@4HA DD 01H DUP (?) ; `CPythonApplication::Process'::`2'::$TSS0
_BSS	ENDS
;	COMDAT ?s_dwCheckTime@?1??Process@CPythonApplication@@QAE_NXZ@4KA
_BSS	SEGMENT
?s_dwCheckTime@?1??Process@CPythonApplication@@QAE_NXZ@4KA DD 01H DUP (?) ; `CPythonApplication::Process'::`2'::s_dwCheckTime
_BSS	ENDS
;	COMDAT ?$TSS1@?1??Process@CPythonApplication@@QAE_NXZ@4HA
_BSS	SEGMENT
?$TSS1@?1??Process@CPythonApplication@@QAE_NXZ@4HA DD 01H DUP (?) ; `CPythonApplication::Process'::`2'::$TSS1
_BSS	ENDS
;	COMDAT ?s_uiNextFrameTime@?1??Process@CPythonApplication@@QAE_NXZ@4IA
_BSS	SEGMENT
?s_uiNextFrameTime@?1??Process@CPythonApplication@@QAE_NXZ@4IA DD 01H DUP (?) ; `CPythonApplication::Process'::`2'::s_uiNextFrameTime
_BSS	ENDS
;	COMDAT ?$TSS2@?CL@??Process@CPythonApplication@@QAE_NXZ@4HA
_BSS	SEGMENT
?$TSS2@?CL@??Process@CPythonApplication@@QAE_NXZ@4HA DD 01H DUP (?) ; `CPythonApplication::Process'::`43'::$TSS2
_BSS	ENDS
;	COMDAT ?s_dwRenderCheckTime@?CL@??Process@CPythonApplication@@QAE_NXZ@4KA
_BSS	SEGMENT
?s_dwRenderCheckTime@?CL@??Process@CPythonApplication@@QAE_NXZ@4KA DD 01H DUP (?) ; `CPythonApplication::Process'::`43'::s_dwRenderCheckTime
_BSS	ENDS
;	COMDAT xdata$x
xdata$x	SEGMENT
__ehfuncinfo$??__EvecUseSoundFileName@@YAXXZ DD 019930522H
	DD	06H
	DD	FLAT:__unwindtable$??__EvecUseSoundFileName@@YAXXZ
	DD	2 DUP(00H)
	DD	2 DUP(00H)
	DD	00H
	DD	01H
__unwindtable$??__EvecUseSoundFileName@@YAXXZ DD 0ffffffffH
	DD	FLAT:__unwindfunclet$??__EvecUseSoundFileName@@YAXXZ$0
	DD	00H
	DD	FLAT:__unwindfunclet$??__EvecUseSoundFileName@@YAXXZ$1
	DD	01H
	DD	FLAT:__unwindfunclet$??__EvecUseSoundFileName@@YAXXZ$2
	DD	02H
	DD	FLAT:__unwindfunclet$??__EvecUseSoundFileName@@YAXXZ$3
	DD	03H
	DD	FLAT:__unwindfunclet$??__EvecUseSoundFileName@@YAXXZ$4
	DD	04H
	DD	FLAT:__unwindfunclet$??__EvecUseSoundFileName@@YAXXZ$5
xdata$x	ENDS
;	COMDAT xdata$x
xdata$x	SEGMENT
__ehfuncinfo$??__FvecUseSoundFileName@@YAXXZ DD 019930522H
	DD	01H
	DD	FLAT:__unwindtable$??__FvecUseSoundFileName@@YAXXZ
	DD	2 DUP(00H)
	DD	2 DUP(00H)
	DD	00H
	DD	01H
__unwindtable$??__FvecUseSoundFileName@@YAXXZ DD 0ffffffffH
	DD	FLAT:___std_terminate
xdata$x	ENDS
;	COMDAT xdata$x
xdata$x	SEGMENT
__ehfuncinfo$??__EvecDropSoundFileName@@YAXXZ DD 019930522H
	DD	04H
	DD	FLAT:__unwindtable$??__EvecDropSoundFileName@@YAXXZ
	DD	2 DUP(00H)
	DD	2 DUP(00H)
	DD	00H
	DD	01H
__unwindtable$??__EvecDropSoundFileName@@YAXXZ DD 0ffffffffH
	DD	FLAT:__unwindfunclet$??__EvecDropSoundFileName@@YAXXZ$0
	DD	00H
	DD	FLAT:__unwindfunclet$??__EvecDropSoundFileName@@YAXXZ$1
	DD	01H
	DD	FLAT:__unwindfunclet$??__EvecDropSoundFileName@@YAXXZ$2
	DD	02H
	DD	FLAT:__unwindfunclet$??__EvecDropSoundFileName@@YAXXZ$3
xdata$x	ENDS
;	COMDAT xdata$x
xdata$x	SEGMENT
__ehfuncinfo$??__FvecDropSoundFileName@@YAXXZ DD 019930522H
	DD	01H
	DD	FLAT:__unwindtable$??__FvecDropSoundFileName@@YAXXZ
	DD	2 DUP(00H)
	DD	2 DUP(00H)
	DD	00H
	DD	01H
__unwindtable$??__FvecDropSoundFileName@@YAXXZ DD 0ffffffffH
	DD	FLAT:___std_terminate
xdata$x	ENDS
;	COMDAT xdata$x
xdata$x	SEGMENT
__ehfuncinfo$??__EskillIndexes@@YAXXZ DD 019930522H
	DD	028H
	DD	FLAT:__unwindtable$??__EskillIndexes@@YAXXZ
	DD	2 DUP(00H)
	DD	2 DUP(00H)
	DD	00H
	DD	01H
	ORG $+4
__unwindtable$??__EskillIndexes@@YAXXZ DD 0ffffffffH
	DD	FLAT:__unwindfunclet$??__EskillIndexes@@YAXXZ$0
	DD	00H
	DD	FLAT:__unwindfunclet$??__EskillIndexes@@YAXXZ$1
	DD	01H
	DD	FLAT:__unwindfunclet$??__EskillIndexes@@YAXXZ$2
	DD	00H
	DD	FLAT:__unwindfunclet$??__EskillIndexes@@YAXXZ$2
	DD	03H
	DD	FLAT:__unwindfunclet$??__EskillIndexes@@YAXXZ$4
	DD	04H
	DD	FLAT:__unwindfunclet$??__EskillIndexes@@YAXXZ$5
	DD	05H
	DD	FLAT:__unwindfunclet$??__EskillIndexes@@YAXXZ$6
	DD	06H
	DD	FLAT:__unwindfunclet$??__EskillIndexes@@YAXXZ$7
	DD	07H
	DD	FLAT:__unwindfunclet$??__EskillIndexes@@YAXXZ$8
	DD	08H
	DD	FLAT:__unwindfunclet$??__EskillIndexes@@YAXXZ$9
	DD	07H
	DD	FLAT:__unwindfunclet$??__EskillIndexes@@YAXXZ$9
	DD	0aH
	DD	FLAT:__unwindfunclet$??__EskillIndexes@@YAXXZ$11
	DD	0bH
	DD	FLAT:__unwindfunclet$??__EskillIndexes@@YAXXZ$12
	DD	0cH
	DD	FLAT:__unwindfunclet$??__EskillIndexes@@YAXXZ$13
	DD	0dH
	DD	FLAT:__unwindfunclet$??__EskillIndexes@@YAXXZ$14
	DD	0eH
	DD	FLAT:__unwindfunclet$??__EskillIndexes@@YAXXZ$15
	DD	0fH
	DD	FLAT:__unwindfunclet$??__EskillIndexes@@YAXXZ$16
	DD	0eH
	DD	FLAT:__unwindfunclet$??__EskillIndexes@@YAXXZ$16
	DD	011H
	DD	FLAT:__unwindfunclet$??__EskillIndexes@@YAXXZ$18
	DD	012H
	DD	FLAT:__unwindfunclet$??__EskillIndexes@@YAXXZ$19
	DD	013H
	DD	FLAT:__unwindfunclet$??__EskillIndexes@@YAXXZ$20
	DD	014H
	DD	FLAT:__unwindfunclet$??__EskillIndexes@@YAXXZ$21
	DD	015H
	DD	FLAT:__unwindfunclet$??__EskillIndexes@@YAXXZ$22
	DD	016H
	DD	FLAT:__unwindfunclet$??__EskillIndexes@@YAXXZ$23
	DD	015H
	DD	FLAT:__unwindfunclet$??__EskillIndexes@@YAXXZ$23
	DD	018H
	DD	FLAT:__unwindfunclet$??__EskillIndexes@@YAXXZ$25
	DD	019H
	DD	FLAT:__unwindfunclet$??__EskillIndexes@@YAXXZ$26
	DD	05H
	DD	FLAT:__unwindfunclet$??__EskillIndexes@@YAXXZ$7
	DD	01bH
	DD	FLAT:__unwindfunclet$??__EskillIndexes@@YAXXZ$9
	DD	01cH
	DD	FLAT:__unwindfunclet$??__EskillIndexes@@YAXXZ$11
	DD	01dH
	DD	FLAT:__unwindfunclet$??__EskillIndexes@@YAXXZ$12
	DD	01eH
	DD	FLAT:__unwindfunclet$??__EskillIndexes@@YAXXZ$14
	DD	01fH
	DD	FLAT:__unwindfunclet$??__EskillIndexes@@YAXXZ$16
	DD	020H
	DD	FLAT:__unwindfunclet$??__EskillIndexes@@YAXXZ$18
	DD	021H
	DD	FLAT:__unwindfunclet$??__EskillIndexes@@YAXXZ$19
	DD	022H
	DD	FLAT:__unwindfunclet$??__EskillIndexes@@YAXXZ$21
	DD	023H
	DD	FLAT:__unwindfunclet$??__EskillIndexes@@YAXXZ$23
	DD	024H
	DD	FLAT:__unwindfunclet$??__EskillIndexes@@YAXXZ$25
	DD	025H
	DD	FLAT:__unwindfunclet$??__EskillIndexes@@YAXXZ$26
	DD	026H
	DD	FLAT:__unwindfunclet$??__EskillIndexes@@YAXXZ$28
xdata$x	ENDS
;	COMDAT xdata$x
xdata$x	SEGMENT
__ehfuncinfo$??__EguildSkills@@YAXXZ DD 019930522H
	DD	0aH
	DD	FLAT:__unwindtable$??__EguildSkills@@YAXXZ
	DD	2 DUP(00H)
	DD	2 DUP(00H)
	DD	00H
	DD	01H
	ORG $+4
__unwindtable$??__EguildSkills@@YAXXZ DD 0ffffffffH
	DD	FLAT:__unwindfunclet$??__EguildSkills@@YAXXZ$0
	DD	00H
	DD	FLAT:__unwindfunclet$??__EguildSkills@@YAXXZ$1
	DD	01H
	DD	FLAT:__unwindfunclet$??__EguildSkills@@YAXXZ$10
	DD	01H
	DD	FLAT:__unwindfunclet$??__EguildSkills@@YAXXZ$2
	DD	03H
	DD	FLAT:__unwindfunclet$??__EguildSkills@@YAXXZ$3
	DD	04H
	DD	FLAT:__unwindfunclet$??__EguildSkills@@YAXXZ$4
	DD	05H
	DD	FLAT:__unwindfunclet$??__EguildSkills@@YAXXZ$16
	DD	01H
	DD	FLAT:__unwindfunclet$??__EguildSkills@@YAXXZ$3
	DD	07H
	DD	FLAT:__unwindfunclet$??__EguildSkills@@YAXXZ$4
	DD	08H
	DD	FLAT:__unwindfunclet$??__EguildSkills@@YAXXZ$6
xdata$x	ENDS
;	COMDAT xdata$x
xdata$x	SEGMENT
__ehfuncinfo$??0CPythonApplication@@QAE@XZ DQ 00000003419930522r ; 1.10556e-312
	DD	FLAT:__unwindtable$??0CPythonApplication@@QAE@XZ
	DQ	00000000000000000r		; 0
	DQ	00000000000000000r		; 0
	DQ	00000000100000000r		; 2.122e-314
	ORG $+4
__unwindtable$??0CPythonApplication@@QAE@XZ DD 0ffffffffH
	DD	FLAT:__unwindfunclet$??0CPythonApplication@@QAE@XZ$0
	DD	00H
	DD	FLAT:__unwindfunclet$??0CPythonApplication@@QAE@XZ$1
	DD	01H
	DD	FLAT:__unwindfunclet$??0CPythonApplication@@QAE@XZ$2
	DD	02H
	DD	FLAT:__unwindfunclet$??0CPythonApplication@@QAE@XZ$3
	DD	03H
	DD	FLAT:__unwindfunclet$??0CPythonApplication@@QAE@XZ$4
	DD	04H
	DD	FLAT:__unwindfunclet$??0CPythonApplication@@QAE@XZ$5
	DD	05H
	DD	FLAT:__unwindfunclet$??0CPythonApplication@@QAE@XZ$6
	DD	06H
	DD	FLAT:__unwindfunclet$??0CPythonApplication@@QAE@XZ$7
	DD	07H
	DD	FLAT:__unwindfunclet$??0CPythonApplication@@QAE@XZ$8
	DD	08H
	DD	FLAT:__unwindfunclet$??0CPythonApplication@@QAE@XZ$9
	DD	09H
	DD	FLAT:__unwindfunclet$??0CPythonApplication@@QAE@XZ$10
	DD	0aH
	DD	FLAT:__unwindfunclet$??0CPythonApplication@@QAE@XZ$11
	DD	0bH
	DD	FLAT:__unwindfunclet$??0CPythonApplication@@QAE@XZ$12
	DD	0cH
	DD	FLAT:__unwindfunclet$??0CPythonApplication@@QAE@XZ$13
	DD	0dH
	DD	FLAT:__unwindfunclet$??0CPythonApplication@@QAE@XZ$14
	DD	0eH
	DD	FLAT:__unwindfunclet$??0CPythonApplication@@QAE@XZ$15
	DD	0fH
	DD	FLAT:__unwindfunclet$??0CPythonApplication@@QAE@XZ$16
	DD	010H
	DD	FLAT:__unwindfunclet$??0CPythonApplication@@QAE@XZ$17
	DD	011H
	DD	FLAT:__unwindfunclet$??0CPythonApplication@@QAE@XZ$18
	DD	012H
	DD	FLAT:__unwindfunclet$??0CPythonApplication@@QAE@XZ$19
	DD	013H
	DD	FLAT:__unwindfunclet$??0CPythonApplication@@QAE@XZ$20
	DD	014H
	DD	FLAT:__unwindfunclet$??0CPythonApplication@@QAE@XZ$21
	DD	015H
	DD	FLAT:__unwindfunclet$??0CPythonApplication@@QAE@XZ$22
	DD	016H
	DD	FLAT:__unwindfunclet$??0CPythonApplication@@QAE@XZ$23
	DD	017H
	DD	FLAT:__unwindfunclet$??0CPythonApplication@@QAE@XZ$24
	DD	018H
	DD	FLAT:__unwindfunclet$??0CPythonApplication@@QAE@XZ$25
	DD	019H
	DD	FLAT:__unwindfunclet$??0CPythonApplication@@QAE@XZ$26
	DD	01aH
	DD	FLAT:__unwindfunclet$??0CPythonApplication@@QAE@XZ$27
	DD	01bH
	DD	FLAT:__unwindfunclet$??0CPythonApplication@@QAE@XZ$28
	DD	01cH
	DD	FLAT:__unwindfunclet$??0CPythonApplication@@QAE@XZ$29
	DD	01dH
	DD	FLAT:__unwindfunclet$??0CPythonApplication@@QAE@XZ$30
	DD	01eH
	DD	FLAT:__unwindfunclet$??0CPythonApplication@@QAE@XZ$31
	DD	01fH
	DD	FLAT:__unwindfunclet$??0CPythonApplication@@QAE@XZ$32
	DD	020H
	DD	FLAT:__unwindfunclet$??0CPythonApplication@@QAE@XZ$33
	DD	021H
	DD	FLAT:__unwindfunclet$??0CPythonApplication@@QAE@XZ$34
	DD	022H
	DD	FLAT:__unwindfunclet$??0CPythonApplication@@QAE@XZ$35
	DD	023H
	DD	FLAT:__unwindfunclet$??0CPythonApplication@@QAE@XZ$36
	DD	024H
	DD	FLAT:__unwindfunclet$??0CPythonApplication@@QAE@XZ$37
	DD	025H
	DD	FLAT:__unwindfunclet$??0CPythonApplication@@QAE@XZ$38
	DD	026H
	DD	FLAT:__unwindfunclet$??0CPythonApplication@@QAE@XZ$39
	DD	027H
	DD	FLAT:__unwindfunclet$??0CPythonApplication@@QAE@XZ$40
	DD	028H
	DD	FLAT:__unwindfunclet$??0CPythonApplication@@QAE@XZ$41
	DD	029H
	DD	FLAT:__unwindfunclet$??0CPythonApplication@@QAE@XZ$42
	DD	02aH
	DD	FLAT:__unwindfunclet$??0CPythonApplication@@QAE@XZ$43
	DD	02bH
	DD	FLAT:__unwindfunclet$??0CPythonApplication@@QAE@XZ$44
	DD	02cH
	DD	FLAT:__unwindfunclet$??0CPythonApplication@@QAE@XZ$45
	DD	02dH
	DD	FLAT:__unwindfunclet$??0CPythonApplication@@QAE@XZ$46
	DD	02eH
	DD	FLAT:__unwindfunclet$??0CPythonApplication@@QAE@XZ$47
	DD	02fH
	DD	FLAT:__unwindfunclet$??0CPythonApplication@@QAE@XZ$48
	DD	030H
	DD	FLAT:__unwindfunclet$??0CPythonApplication@@QAE@XZ$49
	DD	031H
	DD	FLAT:__unwindfunclet$??0CPythonApplication@@QAE@XZ$50
	DD	032H
	DD	FLAT:__unwindfunclet$??0CPythonApplication@@QAE@XZ$51
xdata$x	ENDS
;	COMDAT xdata$x
xdata$x	SEGMENT
__ehfuncinfo$?UpdateGame@CPythonApplication@@QAEXXZ DD 019930522H
	DD	01H
	DD	FLAT:__unwindtable$?UpdateGame@CPythonApplication@@QAEXXZ
	DD	2 DUP(00H)
	DD	2 DUP(00H)
	DD	00H
	DD	01H
__unwindtable$?UpdateGame@CPythonApplication@@QAEXXZ DD 0ffffffffH
	DD	FLAT:__unwindfunclet$?UpdateGame@CPythonApplication@@QAEXXZ$0
xdata$x	ENDS
;	COMDAT xdata$x
xdata$x	SEGMENT
__ehfuncinfo$?Process@CPythonApplication@@QAE_NXZ DD 019930522H
	DD	02H
	DD	FLAT:__unwindtable$?Process@CPythonApplication@@QAE_NXZ
	DD	2 DUP(00H)
	DD	2 DUP(00H)
	DD	00H
	DD	01H
__unwindtable$?Process@CPythonApplication@@QAE_NXZ DD 0ffffffffH
	DD	FLAT:__unwindfunclet$?Process@CPythonApplication@@QAE_NXZ$0
	DD	0ffffffffH
	DD	FLAT:__unwindfunclet$?Process@CPythonApplication@@QAE_NXZ$1
	ORG $+172
?vecUseSoundFileName@@3V?$array@U?$pair@KV?$basic_string@DU?$char_traits@D@std@@V?$allocator@D@2@@std@@@std@@$06@std@@B DD 01H ; vecUseSoundFileName
	DB	16 DUP(00H)
	DD	00H
	DD	00H
?vecUseSoundFileName$initializer$@@3P6AXXZA DD FLAT:??__EvecUseSoundFileName@@YAXXZ ; vecUseSoundFileName$initializer$
?vecDropSoundFileName$initializer$@@3P6AXXZA DD FLAT:??__EvecDropSoundFileName@@YAXXZ ; vecDropSoundFileName$initializer$
?vecEffectList$initializer$@@3P6AXXZA DD FLAT:??__EvecEffectList@@YAXXZ ; vecEffectList$initializer$
?characterNameColors$initializer$@@3P6AXXZA DD FLAT:??__EcharacterNameColors@@YAXXZ ; characterNameColors$initializer$
?characterTitleColors$initializer$@@3P6AXXZA DD FLAT:??__EcharacterTitleColors@@YAXXZ ; characterTitleColors$initializer$
?characterTitleSystemColors$initializer$@@3P6AXXZA DD FLAT:??__EcharacterTitleSystemColors@@YAXXZ ; characterTitleSystemColors$initializer$
?emotionIcons$initializer$@@3P6AXXZA DD FLAT:??__EemotionIcons@@YAXXZ ; emotionIcons$initializer$
?skillIndexes$initializer$@@3P6AXXZA DD FLAT:??__EskillIndexes@@YAXXZ ; skillIndexes$initializer$
?guildSkills$initializer$@@3P6AXXZA DD FLAT:??__EguildSkills@@YAXXZ ; guildSkills$initializer$
; Function compile flags: /Ogtp
; File C:\Anka2Project\Anka2Project\Source\Binary\source\UserInterface\PythonPlayerSettingsModule.h
; File C:\Program Files\Microsoft Visual Studio\2022\Community\VC\Tools\MSVC\14.44.35207\include\xmemory
; File C:\Program Files\Microsoft Visual Studio\2022\Community\VC\Tools\MSVC\14.44.35207\include\__msvc_string_view.hpp
; File C:\Program Files\Microsoft Visual Studio\2022\Community\VC\Tools\MSVC\14.44.35207\include\xstring
; File C:\Program Files\Microsoft Visual Studio\2022\Community\VC\Tools\MSVC\14.44.35207\include\__msvc_string_view.hpp
; File C:\Program Files\Microsoft Visual Studio\2022\Community\VC\Tools\MSVC\14.44.35207\include\xstring
; File C:\Anka2Project\Anka2Project\Source\Binary\source\UserInterface\PythonPlayerSettingsModule.h
; File C:\Program Files\Microsoft Visual Studio\2022\Community\VC\Tools\MSVC\14.44.35207\include\xmemory
; File C:\Program Files\Microsoft Visual Studio\2022\Community\VC\Tools\MSVC\14.44.35207\include\utility
; File C:\Program Files\Microsoft Visual Studio\2022\Community\VC\Tools\MSVC\14.44.35207\include\xstring
; File C:\Program Files\Microsoft Visual Studio\2022\Community\VC\Tools\MSVC\14.44.35207\include\xmemory
; File C:\Program Files\Microsoft Visual Studio\2022\Community\VC\Tools\MSVC\14.44.35207\include\__msvc_string_view.hpp
; File C:\Program Files\Microsoft Visual Studio\2022\Community\VC\Tools\MSVC\14.44.35207\include\xmemory
; File C:\Program Files\Microsoft Visual Studio\2022\Community\VC\Tools\MSVC\14.44.35207\include\xstring
; File C:\Program Files\Microsoft Visual Studio\2022\Community\VC\Tools\MSVC\14.44.35207\include\__msvc_string_view.hpp
; File C:\Program Files\Microsoft Visual Studio\2022\Community\VC\Tools\MSVC\14.44.35207\include\xstring
; File C:\Anka2Project\Anka2Project\Source\Binary\source\UserInterface\PythonPlayerSettingsModule.h
; File C:\Program Files\Microsoft Visual Studio\2022\Community\VC\Tools\MSVC\14.44.35207\include\xmemory
; File C:\Program Files\Microsoft Visual Studio\2022\Community\VC\Tools\MSVC\14.44.35207\include\utility
; File C:\Program Files\Microsoft Visual Studio\2022\Community\VC\Tools\MSVC\14.44.35207\include\xstring
; File C:\Program Files\Microsoft Visual Studio\2022\Community\VC\Tools\MSVC\14.44.35207\include\xmemory
; File C:\Program Files\Microsoft Visual Studio\2022\Community\VC\Tools\MSVC\14.44.35207\include\__msvc_string_view.hpp
; File C:\Program Files\Microsoft Visual Studio\2022\Community\VC\Tools\MSVC\14.44.35207\include\xmemory
; File C:\Program Files\Microsoft Visual Studio\2022\Community\VC\Tools\MSVC\14.44.35207\include\xstring
; File C:\Program Files\Microsoft Visual Studio\2022\Community\VC\Tools\MSVC\14.44.35207\include\__msvc_string_view.hpp
; File C:\Program Files\Microsoft Visual Studio\2022\Community\VC\Tools\MSVC\14.44.35207\include\xstring
; File C:\Anka2Project\Anka2Project\Source\Binary\source\UserInterface\PythonPlayerSettingsModule.h
; File C:\Program Files\Microsoft Visual Studio\2022\Community\VC\Tools\MSVC\14.44.35207\include\xmemory
; File C:\Program Files\Microsoft Visual Studio\2022\Community\VC\Tools\MSVC\14.44.35207\include\utility
; File C:\Program Files\Microsoft Visual Studio\2022\Community\VC\Tools\MSVC\14.44.35207\include\xstring
; File C:\Program Files\Microsoft Visual Studio\2022\Community\VC\Tools\MSVC\14.44.35207\include\xmemory
; File C:\Program Files\Microsoft Visual Studio\2022\Community\VC\Tools\MSVC\14.44.35207\include\__msvc_string_view.hpp
; File C:\Program Files\Microsoft Visual Studio\2022\Community\VC\Tools\MSVC\14.44.35207\include\xstring
; File C:\Program Files\Microsoft Visual Studio\2022\Community\VC\Tools\MSVC\14.44.35207\include\__msvc_string_view.hpp
; File C:\Program Files\Microsoft Visual Studio\2022\Community\VC\Tools\MSVC\14.44.35207\include\xstring
; File C:\Anka2Project\Anka2Project\Source\Binary\source\UserInterface\PythonPlayerSettingsModule.h
; File C:\Program Files\Microsoft Visual Studio\2022\Community\VC\Tools\MSVC\14.44.35207\include\utility
; File C:\Program Files\Microsoft Visual Studio\2022\Community\VC\Tools\MSVC\14.44.35207\include\xstring
; File C:\Program Files\Microsoft Visual Studio\2022\Community\VC\Tools\MSVC\14.44.35207\include\xmemory
; File C:\Program Files\Microsoft Visual Studio\2022\Community\VC\Tools\MSVC\14.44.35207\include\__msvc_string_view.hpp
; File C:\Program Files\Microsoft Visual Studio\2022\Community\VC\Tools\MSVC\14.44.35207\include\xmemory
; File C:\Program Files\Microsoft Visual Studio\2022\Community\VC\Tools\MSVC\14.44.35207\include\xstring
; File C:\Program Files\Microsoft Visual Studio\2022\Community\VC\Tools\MSVC\14.44.35207\include\__msvc_string_view.hpp
; File C:\Program Files\Microsoft Visual Studio\2022\Community\VC\Tools\MSVC\14.44.35207\include\xstring
; File C:\Anka2Project\Anka2Project\Source\Binary\source\UserInterface\PythonPlayerSettingsModule.h
; File C:\Program Files\Microsoft Visual Studio\2022\Community\VC\Tools\MSVC\14.44.35207\include\xmemory
; File C:\Program Files\Microsoft Visual Studio\2022\Community\VC\Tools\MSVC\14.44.35207\include\utility
; File C:\Program Files\Microsoft Visual Studio\2022\Community\VC\Tools\MSVC\14.44.35207\include\xstring
; File C:\Program Files\Microsoft Visual Studio\2022\Community\VC\Tools\MSVC\14.44.35207\include\xmemory
; File C:\Program Files\Microsoft Visual Studio\2022\Community\VC\Tools\MSVC\14.44.35207\include\__msvc_string_view.hpp
; File C:\Program Files\Microsoft Visual Studio\2022\Community\VC\Tools\MSVC\14.44.35207\include\xmemory
; File C:\Program Files\Microsoft Visual Studio\2022\Community\VC\Tools\MSVC\14.44.35207\include\xstring
; File C:\Program Files\Microsoft Visual Studio\2022\Community\VC\Tools\MSVC\14.44.35207\include\__msvc_string_view.hpp
; File C:\Program Files\Microsoft Visual Studio\2022\Community\VC\Tools\MSVC\14.44.35207\include\xstring
; File C:\Anka2Project\Anka2Project\Source\Binary\source\UserInterface\PythonPlayerSettingsModule.h
; File C:\Program Files\Microsoft Visual Studio\2022\Community\VC\Tools\MSVC\14.44.35207\include\xmemory
; File C:\Program Files\Microsoft Visual Studio\2022\Community\VC\Tools\MSVC\14.44.35207\include\utility
; File C:\Program Files\Microsoft Visual Studio\2022\Community\VC\Tools\MSVC\14.44.35207\include\xstring
; File C:\Program Files\Microsoft Visual Studio\2022\Community\VC\Tools\MSVC\14.44.35207\include\xmemory
; File C:\Program Files\Microsoft Visual Studio\2022\Community\VC\Tools\MSVC\14.44.35207\include\__msvc_string_view.hpp
; File C:\Program Files\Microsoft Visual Studio\2022\Community\VC\Tools\MSVC\14.44.35207\include\xstring
; File C:\Program Files\Microsoft Visual Studio\2022\Community\VC\Tools\MSVC\14.44.35207\include\__msvc_string_view.hpp
; File C:\Anka2Project\Anka2Project\Source\Binary\source\UserInterface\PythonPlayerSettingsModule.h
; File C:\Program Files\Microsoft Visual Studio\2022\Community\VC\Tools\MSVC\14.44.35207\include\__msvc_string_view.hpp
; File C:\Program Files\Microsoft Visual Studio\2022\Community\VC\Tools\MSVC\14.44.35207\include\xstring
; File C:\Anka2Project\Anka2Project\Source\Binary\source\UserInterface\PythonPlayerSettingsModule.h
;	COMDAT ??__EvecUseSoundFileName@@YAXXZ
text$di	SEGMENT
__$EHRec$ = -12						; size = 12
??__EvecUseSoundFileName@@YAXXZ PROC			; `dynamic initializer for 'vecUseSoundFileName'', COMDAT

; 142  : } };

  00000	55		 push	 ebp
  00001	8b ec		 mov	 ebp, esp
  00003	6a ff		 push	 -1
  00005	68 00 00 00 00	 push	 __ehhandler$??__EvecUseSoundFileName@@YAXXZ
  0000a	64 a1 00 00 00
	00		 mov	 eax, DWORD PTR fs:0
  00010	50		 push	 eax
  00011	a1 00 00 00 00	 mov	 eax, DWORD PTR ___security_cookie
  00016	33 c5		 xor	 eax, ebp
  00018	50		 push	 eax
  00019	8d 45 f4	 lea	 eax, DWORD PTR __$EHRec$[ebp]
  0001c	64 a3 00 00 00
	00		 mov	 DWORD PTR fs:0, eax
; File C:\Program Files\Microsoft Visual Studio\2022\Community\VC\Tools\MSVC\14.44.35207\include\xmemory

; 136  :         return ::operator new(_Bytes);

  00022	6a 20		 push	 32			; 00000020H
  00024	e8 00 00 00 00	 call	 ??2@YAPAXI@Z		; operator new
; File C:\Program Files\Microsoft Visual Studio\2022\Community\VC\Tools\MSVC\14.44.35207\include\__msvc_string_view.hpp

; 121  :         _CSTD memcpy(_First1, _First2, _Count * sizeof(_Elem));

  00029	0f 10 05 00 00
	00 00		 movups	 xmm0, XMMWORD PTR ??_C@_0BC@NAJLHID@sound?1ui?1drop?4wav@
; File C:\Program Files\Microsoft Visual Studio\2022\Community\VC\Tools\MSVC\14.44.35207\include\xstring

; 913  :         _Construct_in_place(_My_data._Bx._Ptr, _New_ptr);

  00030	a3 04 00 00 00	 mov	 DWORD PTR ?vecUseSoundFileName@@3V?$array@U?$pair@KV?$basic_string@DU?$char_traits@D@std@@V?$allocator@D@2@@std@@@std@@$06@std@@B+4, eax

; 915  :         _My_data._Mysize = _Count;

  00035	c7 05 14 00 00
	00 11 00 00 00	 mov	 DWORD PTR ?vecUseSoundFileName@@3V?$array@U?$pair@KV?$basic_string@DU?$char_traits@D@std@@V?$allocator@D@2@@std@@@std@@$06@std@@B+20, 17 ; 00000011H

; 916  :         _My_data._Myres  = _New_capacity;

  0003f	c7 05 18 00 00
	00 1f 00 00 00	 mov	 DWORD PTR ?vecUseSoundFileName@@3V?$array@U?$pair@KV?$basic_string@DU?$char_traits@D@std@@V?$allocator@D@2@@std@@@std@@$06@std@@B+24, 31 ; 0000001fH
; File C:\Program Files\Microsoft Visual Studio\2022\Community\VC\Tools\MSVC\14.44.35207\include\__msvc_string_view.hpp

; 121  :         _CSTD memcpy(_First1, _First2, _Count * sizeof(_Elem));

  00049	0f 11 00	 movups	 XMMWORD PTR [eax], xmm0
  0004c	0f b6 0d 10 00
	00 00		 movzx	 ecx, BYTE PTR ??_C@_0BC@NAJLHID@sound?1ui?1drop?4wav@+16
  00053	88 48 10	 mov	 BYTE PTR [eax+16], cl
; File C:\Program Files\Microsoft Visual Studio\2022\Community\VC\Tools\MSVC\14.44.35207\include\xstring

; 922  :             _Traits::assign(_Unfancy(_New_ptr)[_Count], _Elem());

  00056	c6 40 11 00	 mov	 BYTE PTR [eax+17], 0
; File C:\Anka2Project\Anka2Project\Source\Binary\source\UserInterface\PythonPlayerSettingsModule.h

; 135  : 	{CPythonItem::USESOUND_DEFAULT, "sound/ui/drop.wav"},

  0005a	c7 45 fc 00 00
	00 00		 mov	 DWORD PTR __$EHRec$[ebp+8], 0
  00061	0f 57 c0	 xorps	 xmm0, xmm0
; File C:\Program Files\Microsoft Visual Studio\2022\Community\VC\Tools\MSVC\14.44.35207\include\xmemory

; 136  :         return ::operator new(_Bytes);

  00064	6a 20		 push	 32			; 00000020H
; File C:\Program Files\Microsoft Visual Studio\2022\Community\VC\Tools\MSVC\14.44.35207\include\utility

; 274  :         : first(_STD forward<_Other1>(_Val1)), second(_STD forward<_Other2>(_Val2)) {

  00066	c7 05 1c 00 00
	00 05 00 00 00	 mov	 DWORD PTR ?vecUseSoundFileName@@3V?$array@U?$pair@KV?$basic_string@DU?$char_traits@D@std@@V?$allocator@D@2@@std@@@std@@$06@std@@B+28, 5
; File C:\Program Files\Microsoft Visual Studio\2022\Community\VC\Tools\MSVC\14.44.35207\include\xstring

; 493  :         _CONSTEXPR20 _Bxty() noexcept : _Buf() {} // user-provided, for fancy pointers

  00070	0f 11 05 20 00
	00 00		 movups	 XMMWORD PTR ?vecUseSoundFileName@@3V?$array@U?$pair@KV?$basic_string@DU?$char_traits@D@std@@V?$allocator@D@2@@std@@@std@@$06@std@@B+32, xmm0

; 517  :     size_type _Mysize = 0; // current length of string (size)

  00077	c7 05 30 00 00
	00 00 00 00 00	 mov	 DWORD PTR ?vecUseSoundFileName@@3V?$array@U?$pair@KV?$basic_string@DU?$char_traits@D@std@@V?$allocator@D@2@@std@@@std@@$06@std@@B+48, 0

; 518  :     size_type _Myres  = 0; // current storage reserved for string (capacity)

  00081	c7 05 34 00 00
	00 00 00 00 00	 mov	 DWORD PTR ?vecUseSoundFileName@@3V?$array@U?$pair@KV?$basic_string@DU?$char_traits@D@std@@V?$allocator@D@2@@std@@@std@@$06@std@@B+52, 0
; File C:\Program Files\Microsoft Visual Studio\2022\Community\VC\Tools\MSVC\14.44.35207\include\xmemory

; 136  :         return ::operator new(_Bytes);

  0008b	e8 00 00 00 00	 call	 ??2@YAPAXI@Z		; operator new
; File C:\Program Files\Microsoft Visual Studio\2022\Community\VC\Tools\MSVC\14.44.35207\include\__msvc_string_view.hpp

; 121  :         _CSTD memcpy(_First1, _First2, _Count * sizeof(_Elem));

  00090	0f 10 05 00 00
	00 00		 movups	 xmm0, XMMWORD PTR ??_C@_0BP@BMHKPOHF@sound?1ui?1equip_ring_amulet?4wav@
; File C:\Program Files\Microsoft Visual Studio\2022\Community\VC\Tools\MSVC\14.44.35207\include\xmemory

; 256  :         return _Traits::_Allocate(_Bytes);

  00097	8b d0		 mov	 edx, eax
; File C:\Program Files\Microsoft Visual Studio\2022\Community\VC\Tools\MSVC\14.44.35207\include\xstring

; 915  :         _My_data._Mysize = _Count;

  00099	c7 05 30 00 00
	00 1e 00 00 00	 mov	 DWORD PTR ?vecUseSoundFileName@@3V?$array@U?$pair@KV?$basic_string@DU?$char_traits@D@std@@V?$allocator@D@2@@std@@@std@@$06@std@@B+48, 30 ; 0000001eH
  000a3	89 15 20 00 00
	00		 mov	 DWORD PTR ?vecUseSoundFileName@@3V?$array@U?$pair@KV?$basic_string@DU?$char_traits@D@std@@V?$allocator@D@2@@std@@@std@@$06@std@@B+32, edx

; 916  :         _My_data._Myres  = _New_capacity;

  000a9	c7 05 34 00 00
	00 1f 00 00 00	 mov	 DWORD PTR ?vecUseSoundFileName@@3V?$array@U?$pair@KV?$basic_string@DU?$char_traits@D@std@@V?$allocator@D@2@@std@@@std@@$06@std@@B+52, 31 ; 0000001fH
; File C:\Program Files\Microsoft Visual Studio\2022\Community\VC\Tools\MSVC\14.44.35207\include\__msvc_string_view.hpp

; 121  :         _CSTD memcpy(_First1, _First2, _Count * sizeof(_Elem));

  000b3	0f 11 02	 movups	 XMMWORD PTR [edx], xmm0
  000b6	f3 0f 7e 05 10
	00 00 00	 movq	 xmm0, QWORD PTR ??_C@_0BP@BMHKPOHF@sound?1ui?1equip_ring_amulet?4wav@+16
  000be	66 0f d6 42 10	 movq	 QWORD PTR [edx+16], xmm0
  000c3	8b 0d 18 00 00
	00		 mov	 ecx, DWORD PTR ??_C@_0BP@BMHKPOHF@sound?1ui?1equip_ring_amulet?4wav@+24
  000c9	89 4a 18	 mov	 DWORD PTR [edx+24], ecx
  000cc	0f b7 05 1c 00
	00 00		 movzx	 eax, WORD PTR ??_C@_0BP@BMHKPOHF@sound?1ui?1equip_ring_amulet?4wav@+28
  000d3	66 89 42 1c	 mov	 WORD PTR [edx+28], ax
; File C:\Program Files\Microsoft Visual Studio\2022\Community\VC\Tools\MSVC\14.44.35207\include\xstring

; 922  :             _Traits::assign(_Unfancy(_New_ptr)[_Count], _Elem());

  000d7	c6 42 1e 00	 mov	 BYTE PTR [edx+30], 0
; File C:\Anka2Project\Anka2Project\Source\Binary\source\UserInterface\PythonPlayerSettingsModule.h

; 136  : 	{CPythonItem::USESOUND_ACCESSORY, "sound/ui/equip_ring_amulet.wav"},

  000db	c6 45 fc 01	 mov	 BYTE PTR __$EHRec$[ebp+8], 1
  000df	0f 57 c0	 xorps	 xmm0, xmm0
; File C:\Program Files\Microsoft Visual Studio\2022\Community\VC\Tools\MSVC\14.44.35207\include\xmemory

; 136  :         return ::operator new(_Bytes);

  000e2	6a 20		 push	 32			; 00000020H
; File C:\Program Files\Microsoft Visual Studio\2022\Community\VC\Tools\MSVC\14.44.35207\include\utility

; 274  :         : first(_STD forward<_Other1>(_Val1)), second(_STD forward<_Other2>(_Val2)) {

  000e4	c7 05 38 00 00
	00 02 00 00 00	 mov	 DWORD PTR ?vecUseSoundFileName@@3V?$array@U?$pair@KV?$basic_string@DU?$char_traits@D@std@@V?$allocator@D@2@@std@@@std@@$06@std@@B+56, 2
; File C:\Program Files\Microsoft Visual Studio\2022\Community\VC\Tools\MSVC\14.44.35207\include\xstring

; 493  :         _CONSTEXPR20 _Bxty() noexcept : _Buf() {} // user-provided, for fancy pointers

  000ee	0f 11 05 3c 00
	00 00		 movups	 XMMWORD PTR ?vecUseSoundFileName@@3V?$array@U?$pair@KV?$basic_string@DU?$char_traits@D@std@@V?$allocator@D@2@@std@@@std@@$06@std@@B+60, xmm0

; 517  :     size_type _Mysize = 0; // current length of string (size)

  000f5	c7 05 4c 00 00
	00 00 00 00 00	 mov	 DWORD PTR ?vecUseSoundFileName@@3V?$array@U?$pair@KV?$basic_string@DU?$char_traits@D@std@@V?$allocator@D@2@@std@@@std@@$06@std@@B+76, 0

; 518  :     size_type _Myres  = 0; // current storage reserved for string (capacity)

  000ff	c7 05 50 00 00
	00 00 00 00 00	 mov	 DWORD PTR ?vecUseSoundFileName@@3V?$array@U?$pair@KV?$basic_string@DU?$char_traits@D@std@@V?$allocator@D@2@@std@@@std@@$06@std@@B+80, 0
; File C:\Program Files\Microsoft Visual Studio\2022\Community\VC\Tools\MSVC\14.44.35207\include\xmemory

; 136  :         return ::operator new(_Bytes);

  00109	e8 00 00 00 00	 call	 ??2@YAPAXI@Z		; operator new
; File C:\Program Files\Microsoft Visual Studio\2022\Community\VC\Tools\MSVC\14.44.35207\include\__msvc_string_view.hpp

; 121  :         _CSTD memcpy(_First1, _First2, _Count * sizeof(_Elem));

  0010e	0f 10 05 00 00
	00 00		 movups	 xmm0, XMMWORD PTR ??_C@_0BP@PMFHICHL@sound?1ui?1equip_metal_armor?4wav@
; File C:\Program Files\Microsoft Visual Studio\2022\Community\VC\Tools\MSVC\14.44.35207\include\xmemory

; 256  :         return _Traits::_Allocate(_Bytes);

  00115	8b d0		 mov	 edx, eax
; File C:\Program Files\Microsoft Visual Studio\2022\Community\VC\Tools\MSVC\14.44.35207\include\xstring

; 915  :         _My_data._Mysize = _Count;

  00117	c7 05 4c 00 00
	00 1e 00 00 00	 mov	 DWORD PTR ?vecUseSoundFileName@@3V?$array@U?$pair@KV?$basic_string@DU?$char_traits@D@std@@V?$allocator@D@2@@std@@@std@@$06@std@@B+76, 30 ; 0000001eH
  00121	89 15 3c 00 00
	00		 mov	 DWORD PTR ?vecUseSoundFileName@@3V?$array@U?$pair@KV?$basic_string@DU?$char_traits@D@std@@V?$allocator@D@2@@std@@@std@@$06@std@@B+60, edx

; 916  :         _My_data._Myres  = _New_capacity;

  00127	c7 05 50 00 00
	00 1f 00 00 00	 mov	 DWORD PTR ?vecUseSoundFileName@@3V?$array@U?$pair@KV?$basic_string@DU?$char_traits@D@std@@V?$allocator@D@2@@std@@@std@@$06@std@@B+80, 31 ; 0000001fH
; File C:\Program Files\Microsoft Visual Studio\2022\Community\VC\Tools\MSVC\14.44.35207\include\__msvc_string_view.hpp

; 121  :         _CSTD memcpy(_First1, _First2, _Count * sizeof(_Elem));

  00131	0f 11 02	 movups	 XMMWORD PTR [edx], xmm0
  00134	f3 0f 7e 05 10
	00 00 00	 movq	 xmm0, QWORD PTR ??_C@_0BP@PMFHICHL@sound?1ui?1equip_metal_armor?4wav@+16
  0013c	66 0f d6 42 10	 movq	 QWORD PTR [edx+16], xmm0
  00141	8b 0d 18 00 00
	00		 mov	 ecx, DWORD PTR ??_C@_0BP@PMFHICHL@sound?1ui?1equip_metal_armor?4wav@+24
  00147	89 4a 18	 mov	 DWORD PTR [edx+24], ecx
  0014a	0f b7 05 1c 00
	00 00		 movzx	 eax, WORD PTR ??_C@_0BP@PMFHICHL@sound?1ui?1equip_metal_armor?4wav@+28
  00151	66 89 42 1c	 mov	 WORD PTR [edx+28], ax
; File C:\Program Files\Microsoft Visual Studio\2022\Community\VC\Tools\MSVC\14.44.35207\include\xstring

; 922  :             _Traits::assign(_Unfancy(_New_ptr)[_Count], _Elem());

  00155	c6 42 1e 00	 mov	 BYTE PTR [edx+30], 0
; File C:\Anka2Project\Anka2Project\Source\Binary\source\UserInterface\PythonPlayerSettingsModule.h

; 137  : 	{CPythonItem::USESOUND_ARMOR, "sound/ui/equip_metal_armor.wav"},

  00159	c6 45 fc 02	 mov	 BYTE PTR __$EHRec$[ebp+8], 2
  0015d	0f 57 c0	 xorps	 xmm0, xmm0
; File C:\Program Files\Microsoft Visual Studio\2022\Community\VC\Tools\MSVC\14.44.35207\include\xmemory

; 136  :         return ::operator new(_Bytes);

  00160	6a 20		 push	 32			; 00000020H
; File C:\Program Files\Microsoft Visual Studio\2022\Community\VC\Tools\MSVC\14.44.35207\include\utility

; 274  :         : first(_STD forward<_Other1>(_Val1)), second(_STD forward<_Other2>(_Val2)) {

  00162	c7 05 54 00 00
	00 04 00 00 00	 mov	 DWORD PTR ?vecUseSoundFileName@@3V?$array@U?$pair@KV?$basic_string@DU?$char_traits@D@std@@V?$allocator@D@2@@std@@@std@@$06@std@@B+84, 4
; File C:\Program Files\Microsoft Visual Studio\2022\Community\VC\Tools\MSVC\14.44.35207\include\xstring

; 493  :         _CONSTEXPR20 _Bxty() noexcept : _Buf() {} // user-provided, for fancy pointers

  0016c	0f 11 05 58 00
	00 00		 movups	 XMMWORD PTR ?vecUseSoundFileName@@3V?$array@U?$pair@KV?$basic_string@DU?$char_traits@D@std@@V?$allocator@D@2@@std@@@std@@$06@std@@B+88, xmm0

; 517  :     size_type _Mysize = 0; // current length of string (size)

  00173	c7 05 68 00 00
	00 00 00 00 00	 mov	 DWORD PTR ?vecUseSoundFileName@@3V?$array@U?$pair@KV?$basic_string@DU?$char_traits@D@std@@V?$allocator@D@2@@std@@@std@@$06@std@@B+104, 0

; 518  :     size_type _Myres  = 0; // current storage reserved for string (capacity)

  0017d	c7 05 6c 00 00
	00 00 00 00 00	 mov	 DWORD PTR ?vecUseSoundFileName@@3V?$array@U?$pair@KV?$basic_string@DU?$char_traits@D@std@@V?$allocator@D@2@@std@@@std@@$06@std@@B+108, 0
; File C:\Program Files\Microsoft Visual Studio\2022\Community\VC\Tools\MSVC\14.44.35207\include\xmemory

; 136  :         return ::operator new(_Bytes);

  00187	e8 00 00 00 00	 call	 ??2@YAPAXI@Z		; operator new
; File C:\Program Files\Microsoft Visual Studio\2022\Community\VC\Tools\MSVC\14.44.35207\include\__msvc_string_view.hpp

; 121  :         _CSTD memcpy(_First1, _First2, _Count * sizeof(_Elem));

  0018c	0f 10 05 00 00
	00 00		 movups	 xmm0, XMMWORD PTR ??_C@_0BH@JDLOIICI@sound?1ui?1equip_bow?4wav@
; File C:\Program Files\Microsoft Visual Studio\2022\Community\VC\Tools\MSVC\14.44.35207\include\xstring

; 913  :         _Construct_in_place(_My_data._Bx._Ptr, _New_ptr);

  00193	a3 58 00 00 00	 mov	 DWORD PTR ?vecUseSoundFileName@@3V?$array@U?$pair@KV?$basic_string@DU?$char_traits@D@std@@V?$allocator@D@2@@std@@@std@@$06@std@@B+88, eax

; 915  :         _My_data._Mysize = _Count;

  00198	c7 05 68 00 00
	00 16 00 00 00	 mov	 DWORD PTR ?vecUseSoundFileName@@3V?$array@U?$pair@KV?$basic_string@DU?$char_traits@D@std@@V?$allocator@D@2@@std@@@std@@$06@std@@B+104, 22 ; 00000016H

; 916  :         _My_data._Myres  = _New_capacity;

  001a2	c7 05 6c 00 00
	00 1f 00 00 00	 mov	 DWORD PTR ?vecUseSoundFileName@@3V?$array@U?$pair@KV?$basic_string@DU?$char_traits@D@std@@V?$allocator@D@2@@std@@@std@@$06@std@@B+108, 31 ; 0000001fH
; File C:\Program Files\Microsoft Visual Studio\2022\Community\VC\Tools\MSVC\14.44.35207\include\__msvc_string_view.hpp

; 121  :         _CSTD memcpy(_First1, _First2, _Count * sizeof(_Elem));

  001ac	0f 11 00	 movups	 XMMWORD PTR [eax], xmm0
  001af	8b 0d 10 00 00
	00		 mov	 ecx, DWORD PTR ??_C@_0BH@JDLOIICI@sound?1ui?1equip_bow?4wav@+16
  001b5	89 48 10	 mov	 DWORD PTR [eax+16], ecx
  001b8	0f b7 0d 14 00
	00 00		 movzx	 ecx, WORD PTR ??_C@_0BH@JDLOIICI@sound?1ui?1equip_bow?4wav@+20
  001bf	66 89 48 14	 mov	 WORD PTR [eax+20], cx
; File C:\Program Files\Microsoft Visual Studio\2022\Community\VC\Tools\MSVC\14.44.35207\include\xstring

; 922  :             _Traits::assign(_Unfancy(_New_ptr)[_Count], _Elem());

  001c3	c6 40 16 00	 mov	 BYTE PTR [eax+22], 0
; File C:\Anka2Project\Anka2Project\Source\Binary\source\UserInterface\PythonPlayerSettingsModule.h

; 138  : 	{CPythonItem::USESOUND_BOW, "sound/ui/equip_bow.wav"},

  001c7	c6 45 fc 03	 mov	 BYTE PTR __$EHRec$[ebp+8], 3
  001cb	0f 57 c0	 xorps	 xmm0, xmm0
; File C:\Program Files\Microsoft Visual Studio\2022\Community\VC\Tools\MSVC\14.44.35207\include\utility

; 274  :         : first(_STD forward<_Other1>(_Val1)), second(_STD forward<_Other2>(_Val2)) {

  001ce	c7 05 70 00 00
	00 03 00 00 00	 mov	 DWORD PTR ?vecUseSoundFileName@@3V?$array@U?$pair@KV?$basic_string@DU?$char_traits@D@std@@V?$allocator@D@2@@std@@@std@@$06@std@@B+112, 3
; File C:\Program Files\Microsoft Visual Studio\2022\Community\VC\Tools\MSVC\14.44.35207\include\xstring

; 493  :         _CONSTEXPR20 _Bxty() noexcept : _Buf() {} // user-provided, for fancy pointers

  001d8	0f 11 05 74 00
	00 00		 movups	 XMMWORD PTR ?vecUseSoundFileName@@3V?$array@U?$pair@KV?$basic_string@DU?$char_traits@D@std@@V?$allocator@D@2@@std@@@std@@$06@std@@B+116, xmm0

; 517  :     size_type _Mysize = 0; // current length of string (size)

  001df	c7 05 84 00 00
	00 00 00 00 00	 mov	 DWORD PTR ?vecUseSoundFileName@@3V?$array@U?$pair@KV?$basic_string@DU?$char_traits@D@std@@V?$allocator@D@2@@std@@@std@@$06@std@@B+132, 0

; 518  :     size_type _Myres  = 0; // current storage reserved for string (capacity)

  001e9	c7 05 88 00 00
	00 00 00 00 00	 mov	 DWORD PTR ?vecUseSoundFileName@@3V?$array@U?$pair@KV?$basic_string@DU?$char_traits@D@std@@V?$allocator@D@2@@std@@@std@@$06@std@@B+136, 0
; File C:\Program Files\Microsoft Visual Studio\2022\Community\VC\Tools\MSVC\14.44.35207\include\xmemory

; 136  :         return ::operator new(_Bytes);

  001f3	6a 20		 push	 32			; 00000020H
  001f5	e8 00 00 00 00	 call	 ??2@YAPAXI@Z		; operator new
; File C:\Program Files\Microsoft Visual Studio\2022\Community\VC\Tools\MSVC\14.44.35207\include\__msvc_string_view.hpp

; 121  :         _CSTD memcpy(_First1, _First2, _Count * sizeof(_Elem));

  001fa	0f 10 05 00 00
	00 00		 movups	 xmm0, XMMWORD PTR ??_C@_0CA@COJJICKC@sound?1ui?1equip_metal_weapon?4wav@
; File C:\Program Files\Microsoft Visual Studio\2022\Community\VC\Tools\MSVC\14.44.35207\include\xmemory

; 256  :         return _Traits::_Allocate(_Bytes);

  00201	8b d0		 mov	 edx, eax
; File C:\Program Files\Microsoft Visual Studio\2022\Community\VC\Tools\MSVC\14.44.35207\include\xstring

; 915  :         _My_data._Mysize = _Count;

  00203	c7 05 84 00 00
	00 1f 00 00 00	 mov	 DWORD PTR ?vecUseSoundFileName@@3V?$array@U?$pair@KV?$basic_string@DU?$char_traits@D@std@@V?$allocator@D@2@@std@@@std@@$06@std@@B+132, 31 ; 0000001fH
  0020d	89 15 74 00 00
	00		 mov	 DWORD PTR ?vecUseSoundFileName@@3V?$array@U?$pair@KV?$basic_string@DU?$char_traits@D@std@@V?$allocator@D@2@@std@@@std@@$06@std@@B+116, edx

; 916  :         _My_data._Myres  = _New_capacity;

  00213	c7 05 88 00 00
	00 1f 00 00 00	 mov	 DWORD PTR ?vecUseSoundFileName@@3V?$array@U?$pair@KV?$basic_string@DU?$char_traits@D@std@@V?$allocator@D@2@@std@@@std@@$06@std@@B+136, 31 ; 0000001fH
; File C:\Program Files\Microsoft Visual Studio\2022\Community\VC\Tools\MSVC\14.44.35207\include\__msvc_string_view.hpp

; 121  :         _CSTD memcpy(_First1, _First2, _Count * sizeof(_Elem));

  0021d	0f 11 02	 movups	 XMMWORD PTR [edx], xmm0
  00220	f3 0f 7e 05 10
	00 00 00	 movq	 xmm0, QWORD PTR ??_C@_0CA@COJJICKC@sound?1ui?1equip_metal_weapon?4wav@+16
  00228	66 0f d6 42 10	 movq	 QWORD PTR [edx+16], xmm0
  0022d	8b 0d 18 00 00
	00		 mov	 ecx, DWORD PTR ??_C@_0CA@COJJICKC@sound?1ui?1equip_metal_weapon?4wav@+24
  00233	89 4a 18	 mov	 DWORD PTR [edx+24], ecx
  00236	0f b7 05 1c 00
	00 00		 movzx	 eax, WORD PTR ??_C@_0CA@COJJICKC@sound?1ui?1equip_metal_weapon?4wav@+28
  0023d	66 89 42 1c	 mov	 WORD PTR [edx+28], ax
  00241	0f b6 05 1e 00
	00 00		 movzx	 eax, BYTE PTR ??_C@_0CA@COJJICKC@sound?1ui?1equip_metal_weapon?4wav@+30
  00248	88 42 1e	 mov	 BYTE PTR [edx+30], al
; File C:\Program Files\Microsoft Visual Studio\2022\Community\VC\Tools\MSVC\14.44.35207\include\xstring

; 922  :             _Traits::assign(_Unfancy(_New_ptr)[_Count], _Elem());

  0024b	c6 42 1f 00	 mov	 BYTE PTR [edx+31], 0
; File C:\Anka2Project\Anka2Project\Source\Binary\source\UserInterface\PythonPlayerSettingsModule.h

; 139  : 	{CPythonItem::USESOUND_WEAPON, "sound/ui/equip_metal_weapon.wav"},

  0024f	c6 45 fc 04	 mov	 BYTE PTR __$EHRec$[ebp+8], 4
  00253	0f 57 c0	 xorps	 xmm0, xmm0
; File C:\Program Files\Microsoft Visual Studio\2022\Community\VC\Tools\MSVC\14.44.35207\include\xmemory

; 136  :         return ::operator new(_Bytes);

  00256	6a 20		 push	 32			; 00000020H
; File C:\Program Files\Microsoft Visual Studio\2022\Community\VC\Tools\MSVC\14.44.35207\include\utility

; 274  :         : first(_STD forward<_Other1>(_Val1)), second(_STD forward<_Other2>(_Val2)) {

  00258	c7 05 8c 00 00
	00 06 00 00 00	 mov	 DWORD PTR ?vecUseSoundFileName@@3V?$array@U?$pair@KV?$basic_string@DU?$char_traits@D@std@@V?$allocator@D@2@@std@@@std@@$06@std@@B+140, 6
; File C:\Program Files\Microsoft Visual Studio\2022\Community\VC\Tools\MSVC\14.44.35207\include\xstring

; 493  :         _CONSTEXPR20 _Bxty() noexcept : _Buf() {} // user-provided, for fancy pointers

  00262	0f 11 05 90 00
	00 00		 movups	 XMMWORD PTR ?vecUseSoundFileName@@3V?$array@U?$pair@KV?$basic_string@DU?$char_traits@D@std@@V?$allocator@D@2@@std@@@std@@$06@std@@B+144, xmm0

; 517  :     size_type _Mysize = 0; // current length of string (size)

  00269	c7 05 a0 00 00
	00 00 00 00 00	 mov	 DWORD PTR ?vecUseSoundFileName@@3V?$array@U?$pair@KV?$basic_string@DU?$char_traits@D@std@@V?$allocator@D@2@@std@@@std@@$06@std@@B+160, 0

; 518  :     size_type _Myres  = 0; // current storage reserved for string (capacity)

  00273	c7 05 a4 00 00
	00 00 00 00 00	 mov	 DWORD PTR ?vecUseSoundFileName@@3V?$array@U?$pair@KV?$basic_string@DU?$char_traits@D@std@@V?$allocator@D@2@@std@@@std@@$06@std@@B+164, 0
; File C:\Program Files\Microsoft Visual Studio\2022\Community\VC\Tools\MSVC\14.44.35207\include\xmemory

; 136  :         return ::operator new(_Bytes);

  0027d	e8 00 00 00 00	 call	 ??2@YAPAXI@Z		; operator new
; File C:\Program Files\Microsoft Visual Studio\2022\Community\VC\Tools\MSVC\14.44.35207\include\__msvc_string_view.hpp

; 121  :         _CSTD memcpy(_First1, _First2, _Count * sizeof(_Elem));

  00282	0f 10 05 00 00
	00 00		 movups	 xmm0, XMMWORD PTR ??_C@_0BI@HPEEMGIC@sound?1ui?1eat_potion?4wav@
; File C:\Program Files\Microsoft Visual Studio\2022\Community\VC\Tools\MSVC\14.44.35207\include\xmemory

; 256  :         return _Traits::_Allocate(_Bytes);

  00289	8b d0		 mov	 edx, eax
; File C:\Program Files\Microsoft Visual Studio\2022\Community\VC\Tools\MSVC\14.44.35207\include\xstring

; 915  :         _My_data._Mysize = _Count;

  0028b	c7 05 a0 00 00
	00 17 00 00 00	 mov	 DWORD PTR ?vecUseSoundFileName@@3V?$array@U?$pair@KV?$basic_string@DU?$char_traits@D@std@@V?$allocator@D@2@@std@@@std@@$06@std@@B+160, 23 ; 00000017H
  00295	89 15 90 00 00
	00		 mov	 DWORD PTR ?vecUseSoundFileName@@3V?$array@U?$pair@KV?$basic_string@DU?$char_traits@D@std@@V?$allocator@D@2@@std@@@std@@$06@std@@B+144, edx

; 916  :         _My_data._Myres  = _New_capacity;

  0029b	c7 05 a4 00 00
	00 1f 00 00 00	 mov	 DWORD PTR ?vecUseSoundFileName@@3V?$array@U?$pair@KV?$basic_string@DU?$char_traits@D@std@@V?$allocator@D@2@@std@@@std@@$06@std@@B+164, 31 ; 0000001fH
; File C:\Program Files\Microsoft Visual Studio\2022\Community\VC\Tools\MSVC\14.44.35207\include\__msvc_string_view.hpp

; 121  :         _CSTD memcpy(_First1, _First2, _Count * sizeof(_Elem));

  002a5	0f 11 02	 movups	 XMMWORD PTR [edx], xmm0
  002a8	8b 0d 10 00 00
	00		 mov	 ecx, DWORD PTR ??_C@_0BI@HPEEMGIC@sound?1ui?1eat_potion?4wav@+16
  002ae	89 4a 10	 mov	 DWORD PTR [edx+16], ecx
  002b1	0f b7 0d 14 00
	00 00		 movzx	 ecx, WORD PTR ??_C@_0BI@HPEEMGIC@sound?1ui?1eat_potion?4wav@+20
  002b8	66 89 4a 14	 mov	 WORD PTR [edx+20], cx
  002bc	0f b6 05 16 00
	00 00		 movzx	 eax, BYTE PTR ??_C@_0BI@HPEEMGIC@sound?1ui?1eat_potion?4wav@+22
  002c3	88 42 16	 mov	 BYTE PTR [edx+22], al
; File C:\Program Files\Microsoft Visual Studio\2022\Community\VC\Tools\MSVC\14.44.35207\include\xstring

; 922  :             _Traits::assign(_Unfancy(_New_ptr)[_Count], _Elem());

  002c6	c6 42 17 00	 mov	 BYTE PTR [edx+23], 0
; File C:\Anka2Project\Anka2Project\Source\Binary\source\UserInterface\PythonPlayerSettingsModule.h

; 140  : 	{CPythonItem::USESOUND_POTION, "sound/ui/eat_potion.wav"},

  002ca	c6 45 fc 05	 mov	 BYTE PTR __$EHRec$[ebp+8], 5
  002ce	0f 57 c0	 xorps	 xmm0, xmm0
; File C:\Program Files\Microsoft Visual Studio\2022\Community\VC\Tools\MSVC\14.44.35207\include\xmemory

; 136  :         return ::operator new(_Bytes);

  002d1	6a 20		 push	 32			; 00000020H
; File C:\Program Files\Microsoft Visual Studio\2022\Community\VC\Tools\MSVC\14.44.35207\include\utility

; 274  :         : first(_STD forward<_Other1>(_Val1)), second(_STD forward<_Other2>(_Val2)) {

  002d3	c7 05 a8 00 00
	00 07 00 00 00	 mov	 DWORD PTR ?vecUseSoundFileName@@3V?$array@U?$pair@KV?$basic_string@DU?$char_traits@D@std@@V?$allocator@D@2@@std@@@std@@$06@std@@B+168, 7
; File C:\Program Files\Microsoft Visual Studio\2022\Community\VC\Tools\MSVC\14.44.35207\include\xstring

; 493  :         _CONSTEXPR20 _Bxty() noexcept : _Buf() {} // user-provided, for fancy pointers

  002dd	0f 11 05 ac 00
	00 00		 movups	 XMMWORD PTR ?vecUseSoundFileName@@3V?$array@U?$pair@KV?$basic_string@DU?$char_traits@D@std@@V?$allocator@D@2@@std@@@std@@$06@std@@B+172, xmm0

; 517  :     size_type _Mysize = 0; // current length of string (size)

  002e4	c7 05 bc 00 00
	00 00 00 00 00	 mov	 DWORD PTR ?vecUseSoundFileName@@3V?$array@U?$pair@KV?$basic_string@DU?$char_traits@D@std@@V?$allocator@D@2@@std@@@std@@$06@std@@B+188, 0

; 518  :     size_type _Myres  = 0; // current storage reserved for string (capacity)

  002ee	c7 05 c0 00 00
	00 00 00 00 00	 mov	 DWORD PTR ?vecUseSoundFileName@@3V?$array@U?$pair@KV?$basic_string@DU?$char_traits@D@std@@V?$allocator@D@2@@std@@@std@@$06@std@@B+192, 0
; File C:\Program Files\Microsoft Visual Studio\2022\Community\VC\Tools\MSVC\14.44.35207\include\xmemory

; 136  :         return ::operator new(_Bytes);

  002f8	e8 00 00 00 00	 call	 ??2@YAPAXI@Z		; operator new
; File C:\Program Files\Microsoft Visual Studio\2022\Community\VC\Tools\MSVC\14.44.35207\include\__msvc_string_view.hpp

; 121  :         _CSTD memcpy(_First1, _First2, _Count * sizeof(_Elem));

  002fd	0f 10 05 00 00
	00 00		 movups	 xmm0, XMMWORD PTR ??_C@_0BK@KFMADICD@sound?1ui?1potal_scroll?4wav@
; File C:\Program Files\Microsoft Visual Studio\2022\Community\VC\Tools\MSVC\14.44.35207\include\xstring

; 913  :         _Construct_in_place(_My_data._Bx._Ptr, _New_ptr);

  00304	a3 ac 00 00 00	 mov	 DWORD PTR ?vecUseSoundFileName@@3V?$array@U?$pair@KV?$basic_string@DU?$char_traits@D@std@@V?$allocator@D@2@@std@@@std@@$06@std@@B+172, eax

; 915  :         _My_data._Mysize = _Count;

  00309	c7 05 bc 00 00
	00 19 00 00 00	 mov	 DWORD PTR ?vecUseSoundFileName@@3V?$array@U?$pair@KV?$basic_string@DU?$char_traits@D@std@@V?$allocator@D@2@@std@@@std@@$06@std@@B+188, 25 ; 00000019H

; 916  :         _My_data._Myres  = _New_capacity;

  00313	c7 05 c0 00 00
	00 1f 00 00 00	 mov	 DWORD PTR ?vecUseSoundFileName@@3V?$array@U?$pair@KV?$basic_string@DU?$char_traits@D@std@@V?$allocator@D@2@@std@@@std@@$06@std@@B+192, 31 ; 0000001fH
; File C:\Program Files\Microsoft Visual Studio\2022\Community\VC\Tools\MSVC\14.44.35207\include\__msvc_string_view.hpp

; 121  :         _CSTD memcpy(_First1, _First2, _Count * sizeof(_Elem));

  0031d	0f 11 00	 movups	 XMMWORD PTR [eax], xmm0
; File C:\Anka2Project\Anka2Project\Source\Binary\source\UserInterface\PythonPlayerSettingsModule.h

; 133  : static const std::array<TSoundFileName, CPythonItem::USESOUND_NUM - 1> vecUseSoundFileName =

  00320	68 00 00 00 00	 push	 OFFSET ??__FvecUseSoundFileName@@YAXXZ ; `dynamic atexit destructor for 'vecUseSoundFileName''
; File C:\Program Files\Microsoft Visual Studio\2022\Community\VC\Tools\MSVC\14.44.35207\include\__msvc_string_view.hpp

; 121  :         _CSTD memcpy(_First1, _First2, _Count * sizeof(_Elem));

  00325	f3 0f 7e 05 10
	00 00 00	 movq	 xmm0, QWORD PTR ??_C@_0BK@KFMADICD@sound?1ui?1potal_scroll?4wav@+16
  0032d	66 0f d6 40 10	 movq	 QWORD PTR [eax+16], xmm0
  00332	0f b6 0d 18 00
	00 00		 movzx	 ecx, BYTE PTR ??_C@_0BK@KFMADICD@sound?1ui?1potal_scroll?4wav@+24
  00339	88 48 18	 mov	 BYTE PTR [eax+24], cl
; File C:\Program Files\Microsoft Visual Studio\2022\Community\VC\Tools\MSVC\14.44.35207\include\xstring

; 922  :             _Traits::assign(_Unfancy(_New_ptr)[_Count], _Elem());

  0033c	c6 40 19 00	 mov	 BYTE PTR [eax+25], 0
; File C:\Anka2Project\Anka2Project\Source\Binary\source\UserInterface\PythonPlayerSettingsModule.h

; 133  : static const std::array<TSoundFileName, CPythonItem::USESOUND_NUM - 1> vecUseSoundFileName =

  00340	e8 00 00 00 00	 call	 _atexit
  00345	83 c4 20	 add	 esp, 32			; 00000020H
  00348	8b 4d f4	 mov	 ecx, DWORD PTR __$EHRec$[ebp]
  0034b	64 89 0d 00 00
	00 00		 mov	 DWORD PTR fs:0, ecx
  00352	59		 pop	 ecx
  00353	8b e5		 mov	 esp, ebp
  00355	5d		 pop	 ebp
  00356	c3		 ret	 0
text$di	ENDS
;	COMDAT text$x
text$x	SEGMENT
__unwindfunclet$??__EvecUseSoundFileName@@YAXXZ$0:
  00000	b9 00 00 00 00	 mov	 ecx, OFFSET ?vecUseSoundFileName@@3V?$array@U?$pair@KV?$basic_string@DU?$char_traits@D@std@@V?$allocator@D@2@@std@@@std@@$06@std@@B
  00005	e9 00 00 00 00	 jmp	 ??1?$pair@KV?$basic_string@DU?$char_traits@D@std@@V?$allocator@D@2@@std@@@std@@QAE@XZ
__unwindfunclet$??__EvecUseSoundFileName@@YAXXZ$1:
  0000a	b9 1c 00 00 00	 mov	 ecx, OFFSET ?vecUseSoundFileName@@3V?$array@U?$pair@KV?$basic_string@DU?$char_traits@D@std@@V?$allocator@D@2@@std@@@std@@$06@std@@B+28
  0000f	e9 00 00 00 00	 jmp	 ??1?$pair@KV?$basic_string@DU?$char_traits@D@std@@V?$allocator@D@2@@std@@@std@@QAE@XZ
__unwindfunclet$??__EvecUseSoundFileName@@YAXXZ$2:
  00014	b9 38 00 00 00	 mov	 ecx, OFFSET ?vecUseSoundFileName@@3V?$array@U?$pair@KV?$basic_string@DU?$char_traits@D@std@@V?$allocator@D@2@@std@@@std@@$06@std@@B+56
  00019	e9 00 00 00 00	 jmp	 ??1?$pair@KV?$basic_string@DU?$char_traits@D@std@@V?$allocator@D@2@@std@@@std@@QAE@XZ
__unwindfunclet$??__EvecUseSoundFileName@@YAXXZ$3:
  0001e	b9 54 00 00 00	 mov	 ecx, OFFSET ?vecUseSoundFileName@@3V?$array@U?$pair@KV?$basic_string@DU?$char_traits@D@std@@V?$allocator@D@2@@std@@@std@@$06@std@@B+84
  00023	e9 00 00 00 00	 jmp	 ??1?$pair@KV?$basic_string@DU?$char_traits@D@std@@V?$allocator@D@2@@std@@@std@@QAE@XZ
__unwindfunclet$??__EvecUseSoundFileName@@YAXXZ$4:
  00028	b9 70 00 00 00	 mov	 ecx, OFFSET ?vecUseSoundFileName@@3V?$array@U?$pair@KV?$basic_string@DU?$char_traits@D@std@@V?$allocator@D@2@@std@@@std@@$06@std@@B+112
  0002d	e9 00 00 00 00	 jmp	 ??1?$pair@KV?$basic_string@DU?$char_traits@D@std@@V?$allocator@D@2@@std@@@std@@QAE@XZ
__unwindfunclet$??__EvecUseSoundFileName@@YAXXZ$5:
  00032	b9 8c 00 00 00	 mov	 ecx, OFFSET ?vecUseSoundFileName@@3V?$array@U?$pair@KV?$basic_string@DU?$char_traits@D@std@@V?$allocator@D@2@@std@@@std@@$06@std@@B+140
  00037	e9 00 00 00 00	 jmp	 ??1?$pair@KV?$basic_string@DU?$char_traits@D@std@@V?$allocator@D@2@@std@@@std@@QAE@XZ
  0003c	cc		 int	 3
  0003d	cc		 int	 3
  0003e	cc		 int	 3
  0003f	cc		 int	 3
  00040	cc		 int	 3
__ehhandler$??__EvecUseSoundFileName@@YAXXZ:
  00041	90		 npad	 1
  00042	90		 npad	 1
  00043	8b 54 24 08	 mov	 edx, DWORD PTR [esp+8]
  00047	8d 42 0c	 lea	 eax, DWORD PTR [edx+12]
  0004a	8b 4a fc	 mov	 ecx, DWORD PTR [edx-4]
  0004d	33 c8		 xor	 ecx, eax
  0004f	e8 00 00 00 00	 call	 @__security_check_cookie@4
  00054	b8 00 00 00 00	 mov	 eax, OFFSET __ehfuncinfo$??__EvecUseSoundFileName@@YAXXZ
  00059	e9 00 00 00 00	 jmp	 ___CxxFrameHandler3
text$x	ENDS
??__EvecUseSoundFileName@@YAXXZ ENDP			; `dynamic initializer for 'vecUseSoundFileName''
; Function compile flags: /Ogtp
;	COMDAT ??__FvecUseSoundFileName@@YAXXZ
text$yd	SEGMENT
__$EHRec$ = -12						; size = 12
??__FvecUseSoundFileName@@YAXXZ PROC			; `dynamic atexit destructor for 'vecUseSoundFileName'', COMDAT
  00000	55		 push	 ebp
  00001	8b ec		 mov	 ebp, esp
  00003	6a ff		 push	 -1
  00005	68 00 00 00 00	 push	 __ehhandler$??__FvecUseSoundFileName@@YAXXZ
  0000a	64 a1 00 00 00
	00		 mov	 eax, DWORD PTR fs:0
  00010	50		 push	 eax
  00011	a1 00 00 00 00	 mov	 eax, DWORD PTR ___security_cookie
  00016	33 c5		 xor	 eax, ebp
  00018	50		 push	 eax
  00019	8d 45 f4	 lea	 eax, DWORD PTR __$EHRec$[ebp]
  0001c	64 a3 00 00 00
	00		 mov	 DWORD PTR fs:0, eax
  00022	68 00 00 00 00	 push	 OFFSET ??1?$pair@KV?$basic_string@DU?$char_traits@D@std@@V?$allocator@D@2@@std@@@std@@QAE@XZ
  00027	6a 07		 push	 7
  00029	6a 1c		 push	 28			; 0000001cH
  0002b	68 00 00 00 00	 push	 OFFSET ?vecUseSoundFileName@@3V?$array@U?$pair@KV?$basic_string@DU?$char_traits@D@std@@V?$allocator@D@2@@std@@@std@@$06@std@@B
  00030	c7 45 fc 00 00
	00 00		 mov	 DWORD PTR __$EHRec$[ebp+8], 0
  00037	e8 00 00 00 00	 call	 ??_M@YGXPAXIIP6EX0@Z@Z
  0003c	8b 4d f4	 mov	 ecx, DWORD PTR __$EHRec$[ebp]
  0003f	64 89 0d 00 00
	00 00		 mov	 DWORD PTR fs:0, ecx
  00046	59		 pop	 ecx
  00047	8b e5		 mov	 esp, ebp
  00049	5d		 pop	 ebp
  0004a	c3		 ret	 0
  0004b	cc		 int	 3
  0004c	cc		 int	 3
  0004d	cc		 int	 3
  0004e	cc		 int	 3
  0004f	cc		 int	 3
text$yd	ENDS
;	COMDAT text$x
text$x	SEGMENT
__ehhandler$??__FvecUseSoundFileName@@YAXXZ:
  00000	90		 npad	 1
  00001	90		 npad	 1
  00002	8b 54 24 08	 mov	 edx, DWORD PTR [esp+8]
  00006	8d 42 0c	 lea	 eax, DWORD PTR [edx+12]
  00009	8b 4a fc	 mov	 ecx, DWORD PTR [edx-4]
  0000c	33 c8		 xor	 ecx, eax
  0000e	e8 00 00 00 00	 call	 @__security_check_cookie@4
  00013	b8 00 00 00 00	 mov	 eax, OFFSET __ehfuncinfo$??__FvecUseSoundFileName@@YAXXZ
  00018	e9 00 00 00 00	 jmp	 ___CxxFrameHandler3
text$x	ENDS
??__FvecUseSoundFileName@@YAXXZ ENDP			; `dynamic atexit destructor for 'vecUseSoundFileName''
; Function compile flags: /Ogtp
; File C:\Anka2Project\Anka2Project\Source\Binary\source\UserInterface\PythonPlayerSettingsModule.h
; File C:\Program Files\Microsoft Visual Studio\2022\Community\VC\Tools\MSVC\14.44.35207\include\xmemory
; File C:\Program Files\Microsoft Visual Studio\2022\Community\VC\Tools\MSVC\14.44.35207\include\__msvc_string_view.hpp
; File C:\Program Files\Microsoft Visual Studio\2022\Community\VC\Tools\MSVC\14.44.35207\include\xstring
; File C:\Program Files\Microsoft Visual Studio\2022\Community\VC\Tools\MSVC\14.44.35207\include\__msvc_string_view.hpp
; File C:\Program Files\Microsoft Visual Studio\2022\Community\VC\Tools\MSVC\14.44.35207\include\xstring
; File C:\Anka2Project\Anka2Project\Source\Binary\source\UserInterface\PythonPlayerSettingsModule.h
; File C:\Program Files\Microsoft Visual Studio\2022\Community\VC\Tools\MSVC\14.44.35207\include\xmemory
; File C:\Program Files\Microsoft Visual Studio\2022\Community\VC\Tools\MSVC\14.44.35207\include\utility
; File C:\Program Files\Microsoft Visual Studio\2022\Community\VC\Tools\MSVC\14.44.35207\include\xstring
; File C:\Program Files\Microsoft Visual Studio\2022\Community\VC\Tools\MSVC\14.44.35207\include\xmemory
; File C:\Program Files\Microsoft Visual Studio\2022\Community\VC\Tools\MSVC\14.44.35207\include\__msvc_string_view.hpp
; File C:\Program Files\Microsoft Visual Studio\2022\Community\VC\Tools\MSVC\14.44.35207\include\xmemory
; File C:\Program Files\Microsoft Visual Studio\2022\Community\VC\Tools\MSVC\14.44.35207\include\xstring
; File C:\Program Files\Microsoft Visual Studio\2022\Community\VC\Tools\MSVC\14.44.35207\include\__msvc_string_view.hpp
; File C:\Program Files\Microsoft Visual Studio\2022\Community\VC\Tools\MSVC\14.44.35207\include\xstring
; File C:\Anka2Project\Anka2Project\Source\Binary\source\UserInterface\PythonPlayerSettingsModule.h
; File C:\Program Files\Microsoft Visual Studio\2022\Community\VC\Tools\MSVC\14.44.35207\include\xmemory
; File C:\Program Files\Microsoft Visual Studio\2022\Community\VC\Tools\MSVC\14.44.35207\include\utility
; File C:\Program Files\Microsoft Visual Studio\2022\Community\VC\Tools\MSVC\14.44.35207\include\xstring
; File C:\Program Files\Microsoft Visual Studio\2022\Community\VC\Tools\MSVC\14.44.35207\include\xmemory
; File C:\Program Files\Microsoft Visual Studio\2022\Community\VC\Tools\MSVC\14.44.35207\include\__msvc_string_view.hpp
; File C:\Program Files\Microsoft Visual Studio\2022\Community\VC\Tools\MSVC\14.44.35207\include\xmemory
; File C:\Program Files\Microsoft Visual Studio\2022\Community\VC\Tools\MSVC\14.44.35207\include\xstring
; File C:\Program Files\Microsoft Visual Studio\2022\Community\VC\Tools\MSVC\14.44.35207\include\__msvc_string_view.hpp
; File C:\Program Files\Microsoft Visual Studio\2022\Community\VC\Tools\MSVC\14.44.35207\include\xstring
; File C:\Anka2Project\Anka2Project\Source\Binary\source\UserInterface\PythonPlayerSettingsModule.h
; File C:\Program Files\Microsoft Visual Studio\2022\Community\VC\Tools\MSVC\14.44.35207\include\xmemory
; File C:\Program Files\Microsoft Visual Studio\2022\Community\VC\Tools\MSVC\14.44.35207\include\utility
; File C:\Program Files\Microsoft Visual Studio\2022\Community\VC\Tools\MSVC\14.44.35207\include\xstring
; File C:\Program Files\Microsoft Visual Studio\2022\Community\VC\Tools\MSVC\14.44.35207\include\xmemory
; File C:\Program Files\Microsoft Visual Studio\2022\Community\VC\Tools\MSVC\14.44.35207\include\__msvc_string_view.hpp
; File C:\Program Files\Microsoft Visual Studio\2022\Community\VC\Tools\MSVC\14.44.35207\include\xstring
; File C:\Program Files\Microsoft Visual Studio\2022\Community\VC\Tools\MSVC\14.44.35207\include\__msvc_string_view.hpp
; File C:\Program Files\Microsoft Visual Studio\2022\Community\VC\Tools\MSVC\14.44.35207\include\xstring
; File C:\Anka2Project\Anka2Project\Source\Binary\source\UserInterface\PythonPlayerSettingsModule.h
; File C:\Program Files\Microsoft Visual Studio\2022\Community\VC\Tools\MSVC\14.44.35207\include\utility
; File C:\Program Files\Microsoft Visual Studio\2022\Community\VC\Tools\MSVC\14.44.35207\include\xstring
; File C:\Program Files\Microsoft Visual Studio\2022\Community\VC\Tools\MSVC\14.44.35207\include\xmemory
; File C:\Program Files\Microsoft Visual Studio\2022\Community\VC\Tools\MSVC\14.44.35207\include\__msvc_string_view.hpp
; File C:\Program Files\Microsoft Visual Studio\2022\Community\VC\Tools\MSVC\14.44.35207\include\xmemory
; File C:\Program Files\Microsoft Visual Studio\2022\Community\VC\Tools\MSVC\14.44.35207\include\xstring
; File C:\Anka2Project\Anka2Project\Source\Binary\source\UserInterface\PythonPlayerSettingsModule.h
; File C:\Program Files\Microsoft Visual Studio\2022\Community\VC\Tools\MSVC\14.44.35207\include\__msvc_string_view.hpp
; File C:\Program Files\Microsoft Visual Studio\2022\Community\VC\Tools\MSVC\14.44.35207\include\xstring
; File C:\Anka2Project\Anka2Project\Source\Binary\source\UserInterface\PythonPlayerSettingsModule.h
;	COMDAT ??__EvecDropSoundFileName@@YAXXZ
text$di	SEGMENT
__$EHRec$ = -12						; size = 12
??__EvecDropSoundFileName@@YAXXZ PROC			; `dynamic initializer for 'vecDropSoundFileName'', COMDAT

; 151  : } };

  00000	55		 push	 ebp
  00001	8b ec		 mov	 ebp, esp
  00003	6a ff		 push	 -1
  00005	68 00 00 00 00	 push	 __ehhandler$??__EvecDropSoundFileName@@YAXXZ
  0000a	64 a1 00 00 00
	00		 mov	 eax, DWORD PTR fs:0
  00010	50		 push	 eax
  00011	a1 00 00 00 00	 mov	 eax, DWORD PTR ___security_cookie
  00016	33 c5		 xor	 eax, ebp
  00018	50		 push	 eax
  00019	8d 45 f4	 lea	 eax, DWORD PTR __$EHRec$[ebp]
  0001c	64 a3 00 00 00
	00		 mov	 DWORD PTR fs:0, eax
; File C:\Program Files\Microsoft Visual Studio\2022\Community\VC\Tools\MSVC\14.44.35207\include\xmemory

; 136  :         return ::operator new(_Bytes);

  00022	6a 20		 push	 32			; 00000020H
  00024	e8 00 00 00 00	 call	 ??2@YAPAXI@Z		; operator new
; File C:\Program Files\Microsoft Visual Studio\2022\Community\VC\Tools\MSVC\14.44.35207\include\__msvc_string_view.hpp

; 121  :         _CSTD memcpy(_First1, _First2, _Count * sizeof(_Elem));

  00029	0f 10 05 00 00
	00 00		 movups	 xmm0, XMMWORD PTR ??_C@_0BC@NAJLHID@sound?1ui?1drop?4wav@
; File C:\Program Files\Microsoft Visual Studio\2022\Community\VC\Tools\MSVC\14.44.35207\include\xstring

; 913  :         _Construct_in_place(_My_data._Bx._Ptr, _New_ptr);

  00030	a3 04 00 00 00	 mov	 DWORD PTR ?vecDropSoundFileName@@3V?$array@U?$pair@KV?$basic_string@DU?$char_traits@D@std@@V?$allocator@D@2@@std@@@std@@$04@std@@B+4, eax

; 915  :         _My_data._Mysize = _Count;

  00035	c7 05 14 00 00
	00 11 00 00 00	 mov	 DWORD PTR ?vecDropSoundFileName@@3V?$array@U?$pair@KV?$basic_string@DU?$char_traits@D@std@@V?$allocator@D@2@@std@@@std@@$04@std@@B+20, 17 ; 00000011H

; 916  :         _My_data._Myres  = _New_capacity;

  0003f	c7 05 18 00 00
	00 1f 00 00 00	 mov	 DWORD PTR ?vecDropSoundFileName@@3V?$array@U?$pair@KV?$basic_string@DU?$char_traits@D@std@@V?$allocator@D@2@@std@@@std@@$04@std@@B+24, 31 ; 0000001fH
; File C:\Program Files\Microsoft Visual Studio\2022\Community\VC\Tools\MSVC\14.44.35207\include\__msvc_string_view.hpp

; 121  :         _CSTD memcpy(_First1, _First2, _Count * sizeof(_Elem));

  00049	0f 11 00	 movups	 XMMWORD PTR [eax], xmm0
  0004c	8a 0d 10 00 00
	00		 mov	 cl, BYTE PTR ??_C@_0BC@NAJLHID@sound?1ui?1drop?4wav@+16
  00052	88 48 10	 mov	 BYTE PTR [eax+16], cl
; File C:\Program Files\Microsoft Visual Studio\2022\Community\VC\Tools\MSVC\14.44.35207\include\xstring

; 922  :             _Traits::assign(_Unfancy(_New_ptr)[_Count], _Elem());

  00055	c6 40 11 00	 mov	 BYTE PTR [eax+17], 0
; File C:\Anka2Project\Anka2Project\Source\Binary\source\UserInterface\PythonPlayerSettingsModule.h

; 146  : 		{CPythonItem::DROPSOUND_DEFAULT, "sound/ui/drop.wav"},

  00059	c7 45 fc 00 00
	00 00		 mov	 DWORD PTR __$EHRec$[ebp+8], 0
  00060	0f 57 c0	 xorps	 xmm0, xmm0
; File C:\Program Files\Microsoft Visual Studio\2022\Community\VC\Tools\MSVC\14.44.35207\include\xmemory

; 136  :         return ::operator new(_Bytes);

  00063	6a 20		 push	 32			; 00000020H
; File C:\Program Files\Microsoft Visual Studio\2022\Community\VC\Tools\MSVC\14.44.35207\include\utility

; 274  :         : first(_STD forward<_Other1>(_Val1)), second(_STD forward<_Other2>(_Val2)) {

  00065	c7 05 1c 00 00
	00 04 00 00 00	 mov	 DWORD PTR ?vecDropSoundFileName@@3V?$array@U?$pair@KV?$basic_string@DU?$char_traits@D@std@@V?$allocator@D@2@@std@@@std@@$04@std@@B+28, 4
; File C:\Program Files\Microsoft Visual Studio\2022\Community\VC\Tools\MSVC\14.44.35207\include\xstring

; 493  :         _CONSTEXPR20 _Bxty() noexcept : _Buf() {} // user-provided, for fancy pointers

  0006f	0f 11 05 20 00
	00 00		 movups	 XMMWORD PTR ?vecDropSoundFileName@@3V?$array@U?$pair@KV?$basic_string@DU?$char_traits@D@std@@V?$allocator@D@2@@std@@@std@@$04@std@@B+32, xmm0

; 517  :     size_type _Mysize = 0; // current length of string (size)

  00076	c7 05 30 00 00
	00 00 00 00 00	 mov	 DWORD PTR ?vecDropSoundFileName@@3V?$array@U?$pair@KV?$basic_string@DU?$char_traits@D@std@@V?$allocator@D@2@@std@@@std@@$04@std@@B+48, 0

; 518  :     size_type _Myres  = 0; // current storage reserved for string (capacity)

  00080	c7 05 34 00 00
	00 00 00 00 00	 mov	 DWORD PTR ?vecDropSoundFileName@@3V?$array@U?$pair@KV?$basic_string@DU?$char_traits@D@std@@V?$allocator@D@2@@std@@@std@@$04@std@@B+52, 0
; File C:\Program Files\Microsoft Visual Studio\2022\Community\VC\Tools\MSVC\14.44.35207\include\xmemory

; 136  :         return ::operator new(_Bytes);

  0008a	e8 00 00 00 00	 call	 ??2@YAPAXI@Z		; operator new
; File C:\Program Files\Microsoft Visual Studio\2022\Community\VC\Tools\MSVC\14.44.35207\include\__msvc_string_view.hpp

; 121  :         _CSTD memcpy(_First1, _First2, _Count * sizeof(_Elem));

  0008f	0f 10 05 00 00
	00 00		 movups	 xmm0, XMMWORD PTR ??_C@_0BP@BMHKPOHF@sound?1ui?1equip_ring_amulet?4wav@
; File C:\Program Files\Microsoft Visual Studio\2022\Community\VC\Tools\MSVC\14.44.35207\include\xmemory

; 256  :         return _Traits::_Allocate(_Bytes);

  00096	8b d0		 mov	 edx, eax
; File C:\Program Files\Microsoft Visual Studio\2022\Community\VC\Tools\MSVC\14.44.35207\include\xstring

; 915  :         _My_data._Mysize = _Count;

  00098	c7 05 30 00 00
	00 1e 00 00 00	 mov	 DWORD PTR ?vecDropSoundFileName@@3V?$array@U?$pair@KV?$basic_string@DU?$char_traits@D@std@@V?$allocator@D@2@@std@@@std@@$04@std@@B+48, 30 ; 0000001eH
  000a2	89 15 20 00 00
	00		 mov	 DWORD PTR ?vecDropSoundFileName@@3V?$array@U?$pair@KV?$basic_string@DU?$char_traits@D@std@@V?$allocator@D@2@@std@@@std@@$04@std@@B+32, edx

; 916  :         _My_data._Myres  = _New_capacity;

  000a8	c7 05 34 00 00
	00 1f 00 00 00	 mov	 DWORD PTR ?vecDropSoundFileName@@3V?$array@U?$pair@KV?$basic_string@DU?$char_traits@D@std@@V?$allocator@D@2@@std@@@std@@$04@std@@B+52, 31 ; 0000001fH
; File C:\Program Files\Microsoft Visual Studio\2022\Community\VC\Tools\MSVC\14.44.35207\include\__msvc_string_view.hpp

; 121  :         _CSTD memcpy(_First1, _First2, _Count * sizeof(_Elem));

  000b2	0f 11 02	 movups	 XMMWORD PTR [edx], xmm0
  000b5	f3 0f 7e 05 10
	00 00 00	 movq	 xmm0, QWORD PTR ??_C@_0BP@BMHKPOHF@sound?1ui?1equip_ring_amulet?4wav@+16
  000bd	66 0f d6 42 10	 movq	 QWORD PTR [edx+16], xmm0
  000c2	8b 0d 18 00 00
	00		 mov	 ecx, DWORD PTR ??_C@_0BP@BMHKPOHF@sound?1ui?1equip_ring_amulet?4wav@+24
  000c8	89 4a 18	 mov	 DWORD PTR [edx+24], ecx
  000cb	0f b7 05 1c 00
	00 00		 movzx	 eax, WORD PTR ??_C@_0BP@BMHKPOHF@sound?1ui?1equip_ring_amulet?4wav@+28
  000d2	66 89 42 1c	 mov	 WORD PTR [edx+28], ax
; File C:\Program Files\Microsoft Visual Studio\2022\Community\VC\Tools\MSVC\14.44.35207\include\xstring

; 922  :             _Traits::assign(_Unfancy(_New_ptr)[_Count], _Elem());

  000d6	c6 42 1e 00	 mov	 BYTE PTR [edx+30], 0
; File C:\Anka2Project\Anka2Project\Source\Binary\source\UserInterface\PythonPlayerSettingsModule.h

; 147  : 		{CPythonItem::DROPSOUND_ACCESSORY, "sound/ui/equip_ring_amulet.wav"},

  000da	c6 45 fc 01	 mov	 BYTE PTR __$EHRec$[ebp+8], 1
  000de	0f 57 c0	 xorps	 xmm0, xmm0
; File C:\Program Files\Microsoft Visual Studio\2022\Community\VC\Tools\MSVC\14.44.35207\include\xmemory

; 136  :         return ::operator new(_Bytes);

  000e1	6a 20		 push	 32			; 00000020H
; File C:\Program Files\Microsoft Visual Studio\2022\Community\VC\Tools\MSVC\14.44.35207\include\utility

; 274  :         : first(_STD forward<_Other1>(_Val1)), second(_STD forward<_Other2>(_Val2)) {

  000e3	c7 05 38 00 00
	00 01 00 00 00	 mov	 DWORD PTR ?vecDropSoundFileName@@3V?$array@U?$pair@KV?$basic_string@DU?$char_traits@D@std@@V?$allocator@D@2@@std@@@std@@$04@std@@B+56, 1
; File C:\Program Files\Microsoft Visual Studio\2022\Community\VC\Tools\MSVC\14.44.35207\include\xstring

; 493  :         _CONSTEXPR20 _Bxty() noexcept : _Buf() {} // user-provided, for fancy pointers

  000ed	0f 11 05 3c 00
	00 00		 movups	 XMMWORD PTR ?vecDropSoundFileName@@3V?$array@U?$pair@KV?$basic_string@DU?$char_traits@D@std@@V?$allocator@D@2@@std@@@std@@$04@std@@B+60, xmm0

; 517  :     size_type _Mysize = 0; // current length of string (size)

  000f4	c7 05 4c 00 00
	00 00 00 00 00	 mov	 DWORD PTR ?vecDropSoundFileName@@3V?$array@U?$pair@KV?$basic_string@DU?$char_traits@D@std@@V?$allocator@D@2@@std@@@std@@$04@std@@B+76, 0

; 518  :     size_type _Myres  = 0; // current storage reserved for string (capacity)

  000fe	c7 05 50 00 00
	00 00 00 00 00	 mov	 DWORD PTR ?vecDropSoundFileName@@3V?$array@U?$pair@KV?$basic_string@DU?$char_traits@D@std@@V?$allocator@D@2@@std@@@std@@$04@std@@B+80, 0
; File C:\Program Files\Microsoft Visual Studio\2022\Community\VC\Tools\MSVC\14.44.35207\include\xmemory

; 136  :         return ::operator new(_Bytes);

  00108	e8 00 00 00 00	 call	 ??2@YAPAXI@Z		; operator new
; File C:\Program Files\Microsoft Visual Studio\2022\Community\VC\Tools\MSVC\14.44.35207\include\__msvc_string_view.hpp

; 121  :         _CSTD memcpy(_First1, _First2, _Count * sizeof(_Elem));

  0010d	0f 10 05 00 00
	00 00		 movups	 xmm0, XMMWORD PTR ??_C@_0BP@PMFHICHL@sound?1ui?1equip_metal_armor?4wav@
; File C:\Program Files\Microsoft Visual Studio\2022\Community\VC\Tools\MSVC\14.44.35207\include\xmemory

; 256  :         return _Traits::_Allocate(_Bytes);

  00114	8b d0		 mov	 edx, eax
; File C:\Program Files\Microsoft Visual Studio\2022\Community\VC\Tools\MSVC\14.44.35207\include\xstring

; 915  :         _My_data._Mysize = _Count;

  00116	c7 05 4c 00 00
	00 1e 00 00 00	 mov	 DWORD PTR ?vecDropSoundFileName@@3V?$array@U?$pair@KV?$basic_string@DU?$char_traits@D@std@@V?$allocator@D@2@@std@@@std@@$04@std@@B+76, 30 ; 0000001eH
  00120	89 15 3c 00 00
	00		 mov	 DWORD PTR ?vecDropSoundFileName@@3V?$array@U?$pair@KV?$basic_string@DU?$char_traits@D@std@@V?$allocator@D@2@@std@@@std@@$04@std@@B+60, edx

; 916  :         _My_data._Myres  = _New_capacity;

  00126	c7 05 50 00 00
	00 1f 00 00 00	 mov	 DWORD PTR ?vecDropSoundFileName@@3V?$array@U?$pair@KV?$basic_string@DU?$char_traits@D@std@@V?$allocator@D@2@@std@@@std@@$04@std@@B+80, 31 ; 0000001fH
; File C:\Program Files\Microsoft Visual Studio\2022\Community\VC\Tools\MSVC\14.44.35207\include\__msvc_string_view.hpp

; 121  :         _CSTD memcpy(_First1, _First2, _Count * sizeof(_Elem));

  00130	0f 11 02	 movups	 XMMWORD PTR [edx], xmm0
  00133	f3 0f 7e 05 10
	00 00 00	 movq	 xmm0, QWORD PTR ??_C@_0BP@PMFHICHL@sound?1ui?1equip_metal_armor?4wav@+16
  0013b	66 0f d6 42 10	 movq	 QWORD PTR [edx+16], xmm0
  00140	8b 0d 18 00 00
	00		 mov	 ecx, DWORD PTR ??_C@_0BP@PMFHICHL@sound?1ui?1equip_metal_armor?4wav@+24
  00146	89 4a 18	 mov	 DWORD PTR [edx+24], ecx
  00149	0f b7 05 1c 00
	00 00		 movzx	 eax, WORD PTR ??_C@_0BP@PMFHICHL@sound?1ui?1equip_metal_armor?4wav@+28
  00150	66 89 42 1c	 mov	 WORD PTR [edx+28], ax
; File C:\Program Files\Microsoft Visual Studio\2022\Community\VC\Tools\MSVC\14.44.35207\include\xstring

; 922  :             _Traits::assign(_Unfancy(_New_ptr)[_Count], _Elem());

  00154	c6 42 1e 00	 mov	 BYTE PTR [edx+30], 0
; File C:\Anka2Project\Anka2Project\Source\Binary\source\UserInterface\PythonPlayerSettingsModule.h

; 148  : 		{CPythonItem::DROPSOUND_ARMOR, "sound/ui/equip_metal_armor.wav"},

  00158	c6 45 fc 02	 mov	 BYTE PTR __$EHRec$[ebp+8], 2
  0015c	0f 57 c0	 xorps	 xmm0, xmm0
; File C:\Program Files\Microsoft Visual Studio\2022\Community\VC\Tools\MSVC\14.44.35207\include\xmemory

; 136  :         return ::operator new(_Bytes);

  0015f	6a 20		 push	 32			; 00000020H
; File C:\Program Files\Microsoft Visual Studio\2022\Community\VC\Tools\MSVC\14.44.35207\include\utility

; 274  :         : first(_STD forward<_Other1>(_Val1)), second(_STD forward<_Other2>(_Val2)) {

  00161	c7 05 54 00 00
	00 03 00 00 00	 mov	 DWORD PTR ?vecDropSoundFileName@@3V?$array@U?$pair@KV?$basic_string@DU?$char_traits@D@std@@V?$allocator@D@2@@std@@@std@@$04@std@@B+84, 3
; File C:\Program Files\Microsoft Visual Studio\2022\Community\VC\Tools\MSVC\14.44.35207\include\xstring

; 493  :         _CONSTEXPR20 _Bxty() noexcept : _Buf() {} // user-provided, for fancy pointers

  0016b	0f 11 05 58 00
	00 00		 movups	 XMMWORD PTR ?vecDropSoundFileName@@3V?$array@U?$pair@KV?$basic_string@DU?$char_traits@D@std@@V?$allocator@D@2@@std@@@std@@$04@std@@B+88, xmm0

; 517  :     size_type _Mysize = 0; // current length of string (size)

  00172	c7 05 68 00 00
	00 00 00 00 00	 mov	 DWORD PTR ?vecDropSoundFileName@@3V?$array@U?$pair@KV?$basic_string@DU?$char_traits@D@std@@V?$allocator@D@2@@std@@@std@@$04@std@@B+104, 0

; 518  :     size_type _Myres  = 0; // current storage reserved for string (capacity)

  0017c	c7 05 6c 00 00
	00 00 00 00 00	 mov	 DWORD PTR ?vecDropSoundFileName@@3V?$array@U?$pair@KV?$basic_string@DU?$char_traits@D@std@@V?$allocator@D@2@@std@@@std@@$04@std@@B+108, 0
; File C:\Program Files\Microsoft Visual Studio\2022\Community\VC\Tools\MSVC\14.44.35207\include\xmemory

; 136  :         return ::operator new(_Bytes);

  00186	e8 00 00 00 00	 call	 ??2@YAPAXI@Z		; operator new
; File C:\Program Files\Microsoft Visual Studio\2022\Community\VC\Tools\MSVC\14.44.35207\include\__msvc_string_view.hpp

; 121  :         _CSTD memcpy(_First1, _First2, _Count * sizeof(_Elem));

  0018b	0f 10 05 00 00
	00 00		 movups	 xmm0, XMMWORD PTR ??_C@_0BH@JDLOIICI@sound?1ui?1equip_bow?4wav@
; File C:\Program Files\Microsoft Visual Studio\2022\Community\VC\Tools\MSVC\14.44.35207\include\xstring

; 913  :         _Construct_in_place(_My_data._Bx._Ptr, _New_ptr);

  00192	a3 58 00 00 00	 mov	 DWORD PTR ?vecDropSoundFileName@@3V?$array@U?$pair@KV?$basic_string@DU?$char_traits@D@std@@V?$allocator@D@2@@std@@@std@@$04@std@@B+88, eax

; 915  :         _My_data._Mysize = _Count;

  00197	c7 05 68 00 00
	00 16 00 00 00	 mov	 DWORD PTR ?vecDropSoundFileName@@3V?$array@U?$pair@KV?$basic_string@DU?$char_traits@D@std@@V?$allocator@D@2@@std@@@std@@$04@std@@B+104, 22 ; 00000016H

; 916  :         _My_data._Myres  = _New_capacity;

  001a1	c7 05 6c 00 00
	00 1f 00 00 00	 mov	 DWORD PTR ?vecDropSoundFileName@@3V?$array@U?$pair@KV?$basic_string@DU?$char_traits@D@std@@V?$allocator@D@2@@std@@@std@@$04@std@@B+108, 31 ; 0000001fH
; File C:\Program Files\Microsoft Visual Studio\2022\Community\VC\Tools\MSVC\14.44.35207\include\__msvc_string_view.hpp

; 121  :         _CSTD memcpy(_First1, _First2, _Count * sizeof(_Elem));

  001ab	0f 11 00	 movups	 XMMWORD PTR [eax], xmm0
  001ae	8b 0d 10 00 00
	00		 mov	 ecx, DWORD PTR ??_C@_0BH@JDLOIICI@sound?1ui?1equip_bow?4wav@+16
  001b4	89 48 10	 mov	 DWORD PTR [eax+16], ecx
  001b7	66 8b 0d 14 00
	00 00		 mov	 cx, WORD PTR ??_C@_0BH@JDLOIICI@sound?1ui?1equip_bow?4wav@+20
  001be	66 89 48 14	 mov	 WORD PTR [eax+20], cx
; File C:\Program Files\Microsoft Visual Studio\2022\Community\VC\Tools\MSVC\14.44.35207\include\xstring

; 922  :             _Traits::assign(_Unfancy(_New_ptr)[_Count], _Elem());

  001c2	c6 40 16 00	 mov	 BYTE PTR [eax+22], 0
; File C:\Anka2Project\Anka2Project\Source\Binary\source\UserInterface\PythonPlayerSettingsModule.h

; 149  : 		{CPythonItem::DROPSOUND_BOW, "sound/ui/equip_bow.wav"},

  001c6	c6 45 fc 03	 mov	 BYTE PTR __$EHRec$[ebp+8], 3
  001ca	0f 57 c0	 xorps	 xmm0, xmm0
; File C:\Program Files\Microsoft Visual Studio\2022\Community\VC\Tools\MSVC\14.44.35207\include\utility

; 274  :         : first(_STD forward<_Other1>(_Val1)), second(_STD forward<_Other2>(_Val2)) {

  001cd	c7 05 70 00 00
	00 02 00 00 00	 mov	 DWORD PTR ?vecDropSoundFileName@@3V?$array@U?$pair@KV?$basic_string@DU?$char_traits@D@std@@V?$allocator@D@2@@std@@@std@@$04@std@@B+112, 2
; File C:\Program Files\Microsoft Visual Studio\2022\Community\VC\Tools\MSVC\14.44.35207\include\xstring

; 493  :         _CONSTEXPR20 _Bxty() noexcept : _Buf() {} // user-provided, for fancy pointers

  001d7	0f 11 05 74 00
	00 00		 movups	 XMMWORD PTR ?vecDropSoundFileName@@3V?$array@U?$pair@KV?$basic_string@DU?$char_traits@D@std@@V?$allocator@D@2@@std@@@std@@$04@std@@B+116, xmm0

; 517  :     size_type _Mysize = 0; // current length of string (size)

  001de	c7 05 84 00 00
	00 00 00 00 00	 mov	 DWORD PTR ?vecDropSoundFileName@@3V?$array@U?$pair@KV?$basic_string@DU?$char_traits@D@std@@V?$allocator@D@2@@std@@@std@@$04@std@@B+132, 0

; 518  :     size_type _Myres  = 0; // current storage reserved for string (capacity)

  001e8	c7 05 88 00 00
	00 00 00 00 00	 mov	 DWORD PTR ?vecDropSoundFileName@@3V?$array@U?$pair@KV?$basic_string@DU?$char_traits@D@std@@V?$allocator@D@2@@std@@@std@@$04@std@@B+136, 0
; File C:\Program Files\Microsoft Visual Studio\2022\Community\VC\Tools\MSVC\14.44.35207\include\xmemory

; 136  :         return ::operator new(_Bytes);

  001f2	6a 20		 push	 32			; 00000020H
  001f4	e8 00 00 00 00	 call	 ??2@YAPAXI@Z		; operator new
; File C:\Program Files\Microsoft Visual Studio\2022\Community\VC\Tools\MSVC\14.44.35207\include\__msvc_string_view.hpp

; 121  :         _CSTD memcpy(_First1, _First2, _Count * sizeof(_Elem));

  001f9	0f 10 05 00 00
	00 00		 movups	 xmm0, XMMWORD PTR ??_C@_0CA@COJJICKC@sound?1ui?1equip_metal_weapon?4wav@
; File C:\Program Files\Microsoft Visual Studio\2022\Community\VC\Tools\MSVC\14.44.35207\include\xmemory

; 256  :         return _Traits::_Allocate(_Bytes);

  00200	8b d0		 mov	 edx, eax
; File C:\Program Files\Microsoft Visual Studio\2022\Community\VC\Tools\MSVC\14.44.35207\include\xstring

; 915  :         _My_data._Mysize = _Count;

  00202	c7 05 84 00 00
	00 1f 00 00 00	 mov	 DWORD PTR ?vecDropSoundFileName@@3V?$array@U?$pair@KV?$basic_string@DU?$char_traits@D@std@@V?$allocator@D@2@@std@@@std@@$04@std@@B+132, 31 ; 0000001fH
  0020c	89 15 74 00 00
	00		 mov	 DWORD PTR ?vecDropSoundFileName@@3V?$array@U?$pair@KV?$basic_string@DU?$char_traits@D@std@@V?$allocator@D@2@@std@@@std@@$04@std@@B+116, edx

; 916  :         _My_data._Myres  = _New_capacity;

  00212	c7 05 88 00 00
	00 1f 00 00 00	 mov	 DWORD PTR ?vecDropSoundFileName@@3V?$array@U?$pair@KV?$basic_string@DU?$char_traits@D@std@@V?$allocator@D@2@@std@@@std@@$04@std@@B+136, 31 ; 0000001fH
; File C:\Anka2Project\Anka2Project\Source\Binary\source\UserInterface\PythonPlayerSettingsModule.h

; 144  : static const std::array<TSoundFileName, CPythonItem::DROPSOUND_NUM> vecDropSoundFileName =

  0021c	68 00 00 00 00	 push	 OFFSET ??__FvecDropSoundFileName@@YAXXZ ; `dynamic atexit destructor for 'vecDropSoundFileName''
; File C:\Program Files\Microsoft Visual Studio\2022\Community\VC\Tools\MSVC\14.44.35207\include\__msvc_string_view.hpp

; 121  :         _CSTD memcpy(_First1, _First2, _Count * sizeof(_Elem));

  00221	0f 11 02	 movups	 XMMWORD PTR [edx], xmm0
  00224	f3 0f 7e 05 10
	00 00 00	 movq	 xmm0, QWORD PTR ??_C@_0CA@COJJICKC@sound?1ui?1equip_metal_weapon?4wav@+16
  0022c	66 0f d6 42 10	 movq	 QWORD PTR [edx+16], xmm0
  00231	8b 0d 18 00 00
	00		 mov	 ecx, DWORD PTR ??_C@_0CA@COJJICKC@sound?1ui?1equip_metal_weapon?4wav@+24
  00237	89 4a 18	 mov	 DWORD PTR [edx+24], ecx
  0023a	0f b7 05 1c 00
	00 00		 movzx	 eax, WORD PTR ??_C@_0CA@COJJICKC@sound?1ui?1equip_metal_weapon?4wav@+28
  00241	66 89 42 1c	 mov	 WORD PTR [edx+28], ax
  00245	a0 1e 00 00 00	 mov	 al, BYTE PTR ??_C@_0CA@COJJICKC@sound?1ui?1equip_metal_weapon?4wav@+30
  0024a	88 42 1e	 mov	 BYTE PTR [edx+30], al
; File C:\Program Files\Microsoft Visual Studio\2022\Community\VC\Tools\MSVC\14.44.35207\include\xstring

; 922  :             _Traits::assign(_Unfancy(_New_ptr)[_Count], _Elem());

  0024d	c6 42 1f 00	 mov	 BYTE PTR [edx+31], 0
; File C:\Anka2Project\Anka2Project\Source\Binary\source\UserInterface\PythonPlayerSettingsModule.h

; 144  : static const std::array<TSoundFileName, CPythonItem::DROPSOUND_NUM> vecDropSoundFileName =

  00251	e8 00 00 00 00	 call	 _atexit
  00256	83 c4 18	 add	 esp, 24			; 00000018H
  00259	8b 4d f4	 mov	 ecx, DWORD PTR __$EHRec$[ebp]
  0025c	64 89 0d 00 00
	00 00		 mov	 DWORD PTR fs:0, ecx
  00263	59		 pop	 ecx
  00264	8b e5		 mov	 esp, ebp
  00266	5d		 pop	 ebp
  00267	c3		 ret	 0
text$di	ENDS
;	COMDAT text$x
text$x	SEGMENT
__unwindfunclet$??__EvecDropSoundFileName@@YAXXZ$0:
  00000	b9 00 00 00 00	 mov	 ecx, OFFSET ?vecDropSoundFileName@@3V?$array@U?$pair@KV?$basic_string@DU?$char_traits@D@std@@V?$allocator@D@2@@std@@@std@@$04@std@@B
  00005	e9 00 00 00 00	 jmp	 ??1?$pair@KV?$basic_string@DU?$char_traits@D@std@@V?$allocator@D@2@@std@@@std@@QAE@XZ
__unwindfunclet$??__EvecDropSoundFileName@@YAXXZ$1:
  0000a	b9 1c 00 00 00	 mov	 ecx, OFFSET ?vecDropSoundFileName@@3V?$array@U?$pair@KV?$basic_string@DU?$char_traits@D@std@@V?$allocator@D@2@@std@@@std@@$04@std@@B+28
  0000f	e9 00 00 00 00	 jmp	 ??1?$pair@KV?$basic_string@DU?$char_traits@D@std@@V?$allocator@D@2@@std@@@std@@QAE@XZ
__unwindfunclet$??__EvecDropSoundFileName@@YAXXZ$2:
  00014	b9 38 00 00 00	 mov	 ecx, OFFSET ?vecDropSoundFileName@@3V?$array@U?$pair@KV?$basic_string@DU?$char_traits@D@std@@V?$allocator@D@2@@std@@@std@@$04@std@@B+56
  00019	e9 00 00 00 00	 jmp	 ??1?$pair@KV?$basic_string@DU?$char_traits@D@std@@V?$allocator@D@2@@std@@@std@@QAE@XZ
__unwindfunclet$??__EvecDropSoundFileName@@YAXXZ$3:
  0001e	b9 54 00 00 00	 mov	 ecx, OFFSET ?vecDropSoundFileName@@3V?$array@U?$pair@KV?$basic_string@DU?$char_traits@D@std@@V?$allocator@D@2@@std@@@std@@$04@std@@B+84
  00023	e9 00 00 00 00	 jmp	 ??1?$pair@KV?$basic_string@DU?$char_traits@D@std@@V?$allocator@D@2@@std@@@std@@QAE@XZ
  00028	cc		 int	 3
  00029	cc		 int	 3
  0002a	cc		 int	 3
  0002b	cc		 int	 3
  0002c	cc		 int	 3
__ehhandler$??__EvecDropSoundFileName@@YAXXZ:
  0002d	90		 npad	 1
  0002e	90		 npad	 1
  0002f	8b 54 24 08	 mov	 edx, DWORD PTR [esp+8]
  00033	8d 42 0c	 lea	 eax, DWORD PTR [edx+12]
  00036	8b 4a fc	 mov	 ecx, DWORD PTR [edx-4]
  00039	33 c8		 xor	 ecx, eax
  0003b	e8 00 00 00 00	 call	 @__security_check_cookie@4
  00040	b8 00 00 00 00	 mov	 eax, OFFSET __ehfuncinfo$??__EvecDropSoundFileName@@YAXXZ
  00045	e9 00 00 00 00	 jmp	 ___CxxFrameHandler3
text$x	ENDS
??__EvecDropSoundFileName@@YAXXZ ENDP			; `dynamic initializer for 'vecDropSoundFileName''
; Function compile flags: /Ogtp
;	COMDAT ??__FvecDropSoundFileName@@YAXXZ
text$yd	SEGMENT
__$EHRec$ = -12						; size = 12
??__FvecDropSoundFileName@@YAXXZ PROC			; `dynamic atexit destructor for 'vecDropSoundFileName'', COMDAT
  00000	55		 push	 ebp
  00001	8b ec		 mov	 ebp, esp
  00003	6a ff		 push	 -1
  00005	68 00 00 00 00	 push	 __ehhandler$??__FvecDropSoundFileName@@YAXXZ
  0000a	64 a1 00 00 00
	00		 mov	 eax, DWORD PTR fs:0
  00010	50		 push	 eax
  00011	a1 00 00 00 00	 mov	 eax, DWORD PTR ___security_cookie
  00016	33 c5		 xor	 eax, ebp
  00018	50		 push	 eax
  00019	8d 45 f4	 lea	 eax, DWORD PTR __$EHRec$[ebp]
  0001c	64 a3 00 00 00
	00		 mov	 DWORD PTR fs:0, eax
  00022	68 00 00 00 00	 push	 OFFSET ??1?$pair@KV?$basic_string@DU?$char_traits@D@std@@V?$allocator@D@2@@std@@@std@@QAE@XZ
  00027	6a 05		 push	 5
  00029	6a 1c		 push	 28			; 0000001cH
  0002b	68 00 00 00 00	 push	 OFFSET ?vecDropSoundFileName@@3V?$array@U?$pair@KV?$basic_string@DU?$char_traits@D@std@@V?$allocator@D@2@@std@@@std@@$04@std@@B
  00030	c7 45 fc 00 00
	00 00		 mov	 DWORD PTR __$EHRec$[ebp+8], 0
  00037	e8 00 00 00 00	 call	 ??_M@YGXPAXIIP6EX0@Z@Z
  0003c	8b 4d f4	 mov	 ecx, DWORD PTR __$EHRec$[ebp]
  0003f	64 89 0d 00 00
	00 00		 mov	 DWORD PTR fs:0, ecx
  00046	59		 pop	 ecx
  00047	8b e5		 mov	 esp, ebp
  00049	5d		 pop	 ebp
  0004a	c3		 ret	 0
  0004b	cc		 int	 3
  0004c	cc		 int	 3
  0004d	cc		 int	 3
  0004e	cc		 int	 3
  0004f	cc		 int	 3
text$yd	ENDS
;	COMDAT text$x
text$x	SEGMENT
__ehhandler$??__FvecDropSoundFileName@@YAXXZ:
  00000	90		 npad	 1
  00001	90		 npad	 1
  00002	8b 54 24 08	 mov	 edx, DWORD PTR [esp+8]
  00006	8d 42 0c	 lea	 eax, DWORD PTR [edx+12]
  00009	8b 4a fc	 mov	 ecx, DWORD PTR [edx-4]
  0000c	33 c8		 xor	 ecx, eax
  0000e	e8 00 00 00 00	 call	 @__security_check_cookie@4
  00013	b8 00 00 00 00	 mov	 eax, OFFSET __ehfuncinfo$??__FvecDropSoundFileName@@YAXXZ
  00018	e9 00 00 00 00	 jmp	 ___CxxFrameHandler3
text$x	ENDS
??__FvecDropSoundFileName@@YAXXZ ENDP			; `dynamic atexit destructor for 'vecDropSoundFileName''
; Function compile flags: /Ogtp
; File C:\Anka2Project\Anka2Project\Source\Binary\source\UserInterface\PythonPlayerSettingsModule.h
; File C:\Program Files\Microsoft Visual Studio\2022\Community\VC\Tools\MSVC\14.44.35207\include\tuple
; File C:\Anka2Project\Anka2Project\Source\Binary\source\UserInterface\PythonPlayerSettingsModule.h
; File C:\Program Files\Microsoft Visual Studio\2022\Community\VC\Tools\MSVC\14.44.35207\include\tuple
; File C:\Anka2Project\Anka2Project\Source\Binary\source\UserInterface\PythonPlayerSettingsModule.h
; File C:\Program Files\Microsoft Visual Studio\2022\Community\VC\Tools\MSVC\14.44.35207\include\tuple
; File C:\Anka2Project\Anka2Project\Source\Binary\source\UserInterface\PythonPlayerSettingsModule.h
; File C:\Program Files\Microsoft Visual Studio\2022\Community\VC\Tools\MSVC\14.44.35207\include\tuple
; File C:\Anka2Project\Anka2Project\Source\Binary\source\UserInterface\PythonPlayerSettingsModule.h
; File C:\Program Files\Microsoft Visual Studio\2022\Community\VC\Tools\MSVC\14.44.35207\include\initializer_list
; File C:\Anka2Project\Anka2Project\Source\Binary\source\UserInterface\PythonPlayerSettingsModule.h
; File C:\Program Files\Microsoft Visual Studio\2022\Community\VC\Tools\MSVC\14.44.35207\include\initializer_list
; File C:\Anka2Project\Anka2Project\Source\Binary\source\UserInterface\PythonPlayerSettingsModule.h
;	COMDAT ??__EvecEffectList@@YAXXZ
text$di	SEGMENT
$T742 = -2040						; size = 1
$T744 = -2039						; size = 1
$T746 = -2038						; size = 1
$T1 = -2037						; size = 1
$T741 = -2036						; size = 4
$T743 = -2032						; size = 4
$T745 = -2028						; size = 4
$T4 = -2024						; size = 2016
__$ArrayPad$ = -4					; size = 4
??__EvecEffectList@@YAXXZ PROC				; `dynamic initializer for 'vecEffectList'', COMDAT

; 403  : };

  00000	55		 push	 ebp
  00001	8b ec		 mov	 ebp, esp
  00003	83 e4 f8	 and	 esp, -8			; fffffff8H
  00006	81 ec f8 07 00
	00		 sub	 esp, 2040		; 000007f8H
  0000c	a1 00 00 00 00	 mov	 eax, DWORD PTR ___security_cookie
  00011	33 c4		 xor	 eax, esp
  00013	89 84 24 f4 07
	00 00		 mov	 DWORD PTR __$ArrayPad$[esp+2040], eax
; File C:\Program Files\Microsoft Visual Studio\2022\Community\VC\Tools\MSVC\14.44.35207\include\tuple

; 132  :     constexpr _Tuple_val(_Other&& _Arg) : _Val(_STD forward<_Other>(_Arg)) {}

  0001a	c6 44 24 10 01	 mov	 BYTE PTR $T4[esp+2040], 1
  0001f	c7 44 24 14 00
	00 00 00	 mov	 DWORD PTR $T4[esp+2044], OFFSET ??_C@_0DG@MNIDINPI@d?3?1ymir?5work?1effect?1etc?1appear_@
  00027	c7 44 24 18 00
	00 00 00	 mov	 DWORD PTR $T4[esp+2048], OFFSET ??_C@_05BBIGKCLJ@Bip01@
  0002f	c7 44 24 1c 09
	00 00 00	 mov	 DWORD PTR $T4[esp+2052], 9
  00037	c6 44 24 20 01	 mov	 BYTE PTR $T4[esp+2056], 1
  0003c	c7 44 24 24 00
	00 00 00	 mov	 DWORD PTR $T4[esp+2060], OFFSET ??_C@_0DD@JEPOMPGJ@d?3?1ymir?5work?1effect?1etc?1appear_@
  00044	c7 44 24 28 00
	00 00 00	 mov	 DWORD PTR $T4[esp+2064], OFFSET ??_C@_05BBIGKCLJ@Bip01@
  0004c	c7 44 24 2c 0a
	00 00 00	 mov	 DWORD PTR $T4[esp+2068], 10 ; 0000000aH
  00054	c6 44 24 30 01	 mov	 BYTE PTR $T4[esp+2072], 1
  00059	c7 44 24 34 00
	00 00 00	 mov	 DWORD PTR $T4[esp+2076], OFFSET ??_C@_0DG@KJDCFPII@d?3?1ymir?5work?1effect?1hit?1blow_fl@
  00061	c7 44 24 38 00
	00 00 00	 mov	 DWORD PTR $T4[esp+2080], OFFSET ??_C@_0BB@BPFBADGN@equip_right_hand@
  00069	c7 44 24 3c 03
	00 00 00	 mov	 DWORD PTR $T4[esp+2084], 3
  00071	c6 44 24 40 01	 mov	 BYTE PTR $T4[esp+2088], 1
  00076	c7 44 24 44 00
	00 00 00	 mov	 DWORD PTR $T4[esp+2092], OFFSET ??_C@_0DE@OJIBILHC@d?3?1ymir?5work?1effect?1hit?1blow_fl@
  0007e	c7 44 24 48 00
	00 00 00	 mov	 DWORD PTR $T4[esp+2096], OFFSET ??_C@_00CNPNBAHC@@
  00086	c7 44 24 4c 04
	00 00 00	 mov	 DWORD PTR $T4[esp+2100], 4
  0008e	c6 44 24 50 01	 mov	 BYTE PTR $T4[esp+2104], 1
  00093	c7 44 24 54 00
	00 00 00	 mov	 DWORD PTR $T4[esp+2108], OFFSET ??_C@_0DE@FPADLJBL@d?3?1ymir?5work?1effect?1hit?1blow_fl@
  0009b	c7 44 24 58 00
	00 00 00	 mov	 DWORD PTR $T4[esp+2112], OFFSET ??_C@_00CNPNBAHC@@
  000a3	c7 44 24 5c 05
	00 00 00	 mov	 DWORD PTR $T4[esp+2116], 5
  000ab	c6 44 24 60 01	 mov	 BYTE PTR $T4[esp+2120], 1
  000b0	c7 44 24 64 00
	00 00 00	 mov	 DWORD PTR $T4[esp+2124], OFFSET ??_C@_0DJ@JDHCNJPF@d?3?1ymir?5work?1effect?1hit?1blow_el@
  000b8	c7 44 24 68 00
	00 00 00	 mov	 DWORD PTR $T4[esp+2128], OFFSET ??_C@_0M@OLLEIOHA@equip_right@
  000c0	c7 44 24 6c 06
	00 00 00	 mov	 DWORD PTR $T4[esp+2132], 6
  000c8	c6 44 24 70 01	 mov	 BYTE PTR $T4[esp+2136], 1
  000cd	c7 44 24 74 00
	00 00 00	 mov	 DWORD PTR $T4[esp+2140], OFFSET ??_C@_0DH@DBPGLNCF@d?3?1ymir?5work?1effect?1hit?1blow_el@
  000d5	c7 44 24 78 00
	00 00 00	 mov	 DWORD PTR $T4[esp+2144], OFFSET ??_C@_00CNPNBAHC@@
  000dd	c7 44 24 7c 07
	00 00 00	 mov	 DWORD PTR $T4[esp+2148], 7
  000e5	c6 84 24 80 00
	00 00 01	 mov	 BYTE PTR $T4[esp+2152], 1
  000ed	c7 84 24 84 00
	00 00 00 00 00
	00		 mov	 DWORD PTR $T4[esp+2156], OFFSET ??_C@_0DH@IHHEIPEM@d?3?1ymir?5work?1effect?1hit?1blow_el@
  000f8	c7 84 24 88 00
	00 00 00 00 00
	00		 mov	 DWORD PTR $T4[esp+2160], OFFSET ??_C@_00CNPNBAHC@@
  00103	c7 84 24 8c 00
	00 00 08 00 00
	00		 mov	 DWORD PTR $T4[esp+2164], 8
  0010e	c6 84 24 90 00
	00 00 01	 mov	 BYTE PTR $T4[esp+2168], 1
  00116	c7 84 24 94 00
	00 00 00 00 00
	00		 mov	 DWORD PTR $T4[esp+2172], OFFSET ??_C@_0CN@NIGJEOKG@d?3?1ymir?5work?1effect?1etc?1boss_ef@
  00121	c7 84 24 98 00
	00 00 00 00 00
	00		 mov	 DWORD PTR $T4[esp+2176], OFFSET ??_C@_00CNPNBAHC@@
  0012c	c7 84 24 9c 00
	00 00 2c 01 00
	00		 mov	 DWORD PTR $T4[esp+2180], 300 ; 0000012cH
  00137	c6 84 24 a0 00
	00 00 01	 mov	 BYTE PTR $T4[esp+2184], 1
  0013f	c7 84 24 a4 00
	00 00 00 00 00
	00		 mov	 DWORD PTR $T4[esp+2188], OFFSET ??_C@_0CP@IEGOOEJL@d?3?1ymir?5work?1effect?1etc?1levelup@
  0014a	c7 84 24 a8 00
	00 00 00 00 00
	00		 mov	 DWORD PTR $T4[esp+2192], OFFSET ??_C@_00CNPNBAHC@@
  00155	c7 84 24 ac 00
	00 00 0b 00 00
	00		 mov	 DWORD PTR $T4[esp+2196], 11 ; 0000000bH
  00160	c6 84 24 b0 00
	00 00 01	 mov	 BYTE PTR $T4[esp+2200], 1
  00168	c7 84 24 b4 00
	00 00 00 00 00
	00		 mov	 DWORD PTR $T4[esp+2204], OFFSET ??_C@_0CO@BGKHBBGO@d?3?1ymir?5work?1effect?1etc?1skillup@
  00173	c7 84 24 b8 00
	00 00 00 00 00
	00		 mov	 DWORD PTR $T4[esp+2208], OFFSET ??_C@_00CNPNBAHC@@
  0017e	c7 84 24 bc 00
	00 00 0c 00 00
	00		 mov	 DWORD PTR $T4[esp+2212], 12 ; 0000000cH
  00189	c6 84 24 c0 00
	00 00 01	 mov	 BYTE PTR $T4[esp+2216], 1
  00191	c7 84 24 c4 00
	00 00 00 00 00
	00		 mov	 DWORD PTR $T4[esp+2220], OFFSET ??_C@_0CM@IHKFDKKE@d?3?1ymir?5work?1effect?1etc?1empire?1@
  0019c	c7 84 24 c8 00
	00 00 00 00 00
	00		 mov	 DWORD PTR $T4[esp+2224], OFFSET ??_C@_05BBIGKCLJ@Bip01@
  001a7	c7 84 24 cc 00
	00 00 e0 00 00
	00		 mov	 DWORD PTR $T4[esp+2228], 224 ; 000000e0H
  001b2	c6 84 24 d0 00
	00 00 01	 mov	 BYTE PTR $T4[esp+2232], 1
  001ba	c7 84 24 d4 00
	00 00 00 00 00
	00		 mov	 DWORD PTR $T4[esp+2236], OFFSET ??_C@_0CM@BDBEIAK@d?3?1ymir?5work?1effect?1etc?1empire?1@
  001c5	c7 84 24 d8 00
	00 00 00 00 00
	00		 mov	 DWORD PTR $T4[esp+2240], OFFSET ??_C@_05BBIGKCLJ@Bip01@
  001d0	c7 84 24 dc 00
	00 00 e1 00 00
	00		 mov	 DWORD PTR $T4[esp+2244], 225 ; 000000e1H
  001db	c6 84 24 e0 00
	00 00 01	 mov	 BYTE PTR $T4[esp+2248], 1
  001e3	c7 84 24 e4 00
	00 00 00 00 00
	00		 mov	 DWORD PTR $T4[esp+2252], OFFSET ??_C@_0CM@MKGNJLKP@d?3?1ymir?5work?1effect?1etc?1empire?1@
  001ee	c7 84 24 e8 00
	00 00 00 00 00
	00		 mov	 DWORD PTR $T4[esp+2256], OFFSET ??_C@_05BBIGKCLJ@Bip01@
  001f9	c7 84 24 ec 00
	00 00 e2 00 00
	00		 mov	 DWORD PTR $T4[esp+2260], 226 ; 000000e2H
  00204	c6 84 24 f0 00
	00 00 01	 mov	 BYTE PTR $T4[esp+2264], 1
  0020c	c7 84 24 f4 00
	00 00 00 00 00
	00		 mov	 DWORD PTR $T4[esp+2268], OFFSET ??_C@_0DD@EOBPHODL@d?3?1ymir?5work?1pc?1warrior?1effect?1@
  00217	c7 84 24 f8 00
	00 00 00 00 00
	00		 mov	 DWORD PTR $T4[esp+2272], OFFSET ??_C@_0BB@BPFBADGN@equip_right_hand@
  00222	c7 84 24 fc 00
	00 00 18 00 00
	00		 mov	 DWORD PTR $T4[esp+2276], 24 ; 00000018H
  0022d	c6 84 24 00 01
	00 00 01	 mov	 BYTE PTR $T4[esp+2280], 1
  00235	c7 84 24 04 01
	00 00 00 00 00
	00		 mov	 DWORD PTR $T4[esp+2284], OFFSET ??_C@_0DD@CMEIIDFJ@d?3?1ymir?5work?1pc?1warrior?1effect?1@
  00240	c7 84 24 08 01
	00 00 00 00 00
	00		 mov	 DWORD PTR $T4[esp+2288], OFFSET ??_C@_0BB@BPFBADGN@equip_right_hand@
  0024b	c7 84 24 0c 01
	00 00 19 00 00
	00		 mov	 DWORD PTR $T4[esp+2292], 25 ; 00000019H
  00256	c6 84 24 10 01
	00 00 01	 mov	 BYTE PTR $T4[esp+2296], 1
  0025e	c7 84 24 14 01
	00 00 00 00 00
	00		 mov	 DWORD PTR $T4[esp+2300], OFFSET ??_C@_0DE@KJMEEODN@d?3?1ymir?5work?1effect?1hit?1blow_po@
  00269	c7 84 24 18 01
	00 00 00 00 00
	00		 mov	 DWORD PTR $T4[esp+2304], OFFSET ??_C@_05BBIGKCLJ@Bip01@
  00274	c7 84 24 1c 01
	00 00 1e 00 00
	00		 mov	 DWORD PTR $T4[esp+2308], 30 ; 0000001eH
  0027f	c6 84 24 20 01
	00 00 01	 mov	 BYTE PTR $T4[esp+2312], 1
  00287	c7 84 24 24 01
	00 00 00 00 00
	00		 mov	 DWORD PTR $T4[esp+2316], OFFSET ??_C@_0CE@FPDCDHKE@d?3?1ymir?5work?1effect?1affect?1slow@
  00292	c7 84 24 28 01
	00 00 00 00 00
	00		 mov	 DWORD PTR $T4[esp+2320], OFFSET ??_C@_00CNPNBAHC@@
  0029d	c7 84 24 2c 01
	00 00 1f 00 00
	00		 mov	 DWORD PTR $T4[esp+2324], 31 ; 0000001fH
  002a8	c6 84 24 30 01
	00 00 01	 mov	 BYTE PTR $T4[esp+2328], 1
  002b0	c7 84 24 34 01
	00 00 00 00 00
	00		 mov	 DWORD PTR $T4[esp+2332], OFFSET ??_C@_0CL@IPGAJMDP@d?3?1ymir?5work?1effect?1etc?1stun?1st@
  002bb	c7 84 24 38 01
	00 00 00 00 00
	00		 mov	 DWORD PTR $T4[esp+2336], OFFSET ??_C@_0L@GHIHOBPC@Bip01?5Head@
  002c6	c7 84 24 3c 01
	00 00 20 00 00
	00		 mov	 DWORD PTR $T4[esp+2340], 32 ; 00000020H
  002d1	c6 84 24 40 01
	00 00 01	 mov	 BYTE PTR $T4[esp+2344], 1
  002d9	c7 84 24 44 01
	00 00 00 00 00
	00		 mov	 DWORD PTR $T4[esp+2348], OFFSET ??_C@_0CI@CBNNNGMC@d?3?1ymir?5work?1effect?1etc?1ready?1r@
  002e4	c7 84 24 48 01
	00 00 00 00 00
	00		 mov	 DWORD PTR $T4[esp+2352], OFFSET ??_C@_00CNPNBAHC@@
  002ef	c7 84 24 4c 01
	00 00 21 00 00
	00		 mov	 DWORD PTR $T4[esp+2356], 33 ; 00000021H
  002fa	c6 84 24 50 01
	00 00 01	 mov	 BYTE PTR $T4[esp+2360], 1
  00302	c7 84 24 54 01
	00 00 00 00 00
	00		 mov	 DWORD PTR $T4[esp+2364], OFFSET ??_C@_0DG@JMJLCJCB@d?3?1ymir?5work?1pc?1warrior?1effect?1@
  0030d	c7 84 24 58 01
	00 00 00 00 00
	00		 mov	 DWORD PTR $T4[esp+2368], OFFSET ??_C@_00CNPNBAHC@@
  00318	c7 84 24 5c 01
	00 00 2b 00 00
	00		 mov	 DWORD PTR $T4[esp+2372], 43 ; 0000002bH
  00323	c6 84 24 60 01
	00 00 01	 mov	 BYTE PTR $T4[esp+2376], 1
  0032b	c7 84 24 64 01
	00 00 00 00 00
	00		 mov	 DWORD PTR $T4[esp+2380], OFFSET ??_C@_0DE@JCKMOOOL@d?3?1ymir?5work?1pc?1assassin?1effect@
  00336	c7 84 24 68 01
	00 00 00 00 00
	00		 mov	 DWORD PTR $T4[esp+2384], OFFSET ??_C@_00CNPNBAHC@@
  00341	c7 84 24 6c 01
	00 00 2c 00 00
	00		 mov	 DWORD PTR $T4[esp+2388], 44 ; 0000002cH
  0034c	c6 84 24 70 01
	00 00 01	 mov	 BYTE PTR $T4[esp+2392], 1
  00354	c7 84 24 74 01
	00 00 00 00 00
	00		 mov	 DWORD PTR $T4[esp+2396], OFFSET ??_C@_0CN@LGPPPMOM@d?3?1ymir?5work?1pc?1sura?1effect?1gwi@
  0035f	c7 84 24 78 01
	00 00 00 00 00
	00		 mov	 DWORD PTR $T4[esp+2400], OFFSET ??_C@_0BA@LANKCOK@Bip01?5R?5Finger2@
  0036a	c7 84 24 7c 01
	00 00 2e 00 00
	00		 mov	 DWORD PTR $T4[esp+2404], 46 ; 0000002eH
  00375	c6 84 24 80 01
	00 00 01	 mov	 BYTE PTR $T4[esp+2408], 1
  0037d	c7 84 24 84 01
	00 00 00 00 00
	00		 mov	 DWORD PTR $T4[esp+2412], OFFSET ??_C@_0CK@CIALJCLA@d?3?1ymir?5work?1pc?1sura?1effect?1fea@
  00388	c7 84 24 88 01
	00 00 00 00 00
	00		 mov	 DWORD PTR $T4[esp+2416], OFFSET ??_C@_00CNPNBAHC@@
  00393	c7 84 24 8c 01
	00 00 2f 00 00
	00		 mov	 DWORD PTR $T4[esp+2420], 47 ; 0000002fH
  0039e	c6 84 24 90 01
	00 00 01	 mov	 BYTE PTR $T4[esp+2424], 1
  003a6	c7 84 24 94 01
	00 00 00 00 00
	00		 mov	 DWORD PTR $T4[esp+2428], OFFSET ??_C@_0CN@LNFALLNB@d?3?1ymir?5work?1pc?1sura?1effect?1jum@
  003b1	c7 84 24 98 01
	00 00 00 00 00
	00		 mov	 DWORD PTR $T4[esp+2432], OFFSET ??_C@_00CNPNBAHC@@
  003bc	c7 84 24 9c 01
	00 00 30 00 00
	00		 mov	 DWORD PTR $T4[esp+2436], 48 ; 00000030H
  003c7	c6 84 24 a0 01
	00 00 01	 mov	 BYTE PTR $T4[esp+2440], 1
  003cf	c7 84 24 a4 01
	00 00 00 00 00
	00		 mov	 DWORD PTR $T4[esp+2444], OFFSET ??_C@_0CO@IDBDIMLN@d?3?1ymir?5work?1pc?1shaman?1effect?13@
  003da	c7 84 24 a8 01
	00 00 00 00 00
	00		 mov	 DWORD PTR $T4[esp+2448], OFFSET ??_C@_00CNPNBAHC@@
  003e5	c7 84 24 ac 01
	00 00 31 00 00
	00		 mov	 DWORD PTR $T4[esp+2452], 49 ; 00000031H
  003f0	c6 84 24 b0 01
	00 00 01	 mov	 BYTE PTR $T4[esp+2456], 1
  003f8	c7 84 24 b4 01
	00 00 00 00 00
	00		 mov	 DWORD PTR $T4[esp+2460], OFFSET ??_C@_0CM@LPKODKL@d?3?1ymir?5work?1pc?1shaman?1effect?1b@
  00403	c7 84 24 b8 01
	00 00 00 00 00
	00		 mov	 DWORD PTR $T4[esp+2464], OFFSET ??_C@_00CNPNBAHC@@
  0040e	c7 84 24 bc 01
	00 00 32 00 00
	00		 mov	 DWORD PTR $T4[esp+2468], 50 ; 00000032H
  00419	c6 84 24 c0 01
	00 00 01	 mov	 BYTE PTR $T4[esp+2472], 1
  00421	c7 84 24 c4 01
	00 00 00 00 00
	00		 mov	 DWORD PTR $T4[esp+2476], OFFSET ??_C@_0DB@JOKHCNEG@d?3?1ymir?5work?1pc?1shaman?1effect?11@
  0042c	c7 84 24 c8 01
	00 00 00 00 00
	00		 mov	 DWORD PTR $T4[esp+2480], OFFSET ??_C@_00CNPNBAHC@@
  00437	c7 84 24 cc 01
	00 00 33 00 00
	00		 mov	 DWORD PTR $T4[esp+2484], 51 ; 00000033H
  00442	c6 84 24 d0 01
	00 00 01	 mov	 BYTE PTR $T4[esp+2488], 1
  0044a	c7 84 24 d4 01
	00 00 00 00 00
	00		 mov	 DWORD PTR $T4[esp+2492], OFFSET ??_C@_0CN@FIKFMJKE@d?3?1ymir?5work?1pc?1sura?1effect?1heu@
  00455	c7 84 24 d8 01
	00 00 00 00 00
	00		 mov	 DWORD PTR $T4[esp+2496], OFFSET ??_C@_00CNPNBAHC@@
  00460	c7 84 24 dc 01
	00 00 34 00 00
	00		 mov	 DWORD PTR $T4[esp+2500], 52 ; 00000034H
  0046b	c6 84 24 e0 01
	00 00 01	 mov	 BYTE PTR $T4[esp+2504], 1
  00473	c7 84 24 e4 01
	00 00 00 00 00
	00		 mov	 DWORD PTR $T4[esp+2508], OFFSET ??_C@_0CN@OFCKCPPJ@d?3?1ymir?5work?1pc?1sura?1effect?1muy@
  0047e	c7 84 24 e8 01
	00 00 00 00 00
	00		 mov	 DWORD PTR $T4[esp+2512], OFFSET ??_C@_00CNPNBAHC@@
  00489	c7 84 24 ec 01
	00 00 35 00 00
	00		 mov	 DWORD PTR $T4[esp+2516], 53 ; 00000035H
  00494	c6 84 24 f0 01
	00 00 01	 mov	 BYTE PTR $T4[esp+2520], 1
  0049c	c7 84 24 f4 01
	00 00 00 00 00
	00		 mov	 DWORD PTR $T4[esp+2524], OFFSET ??_C@_0DC@JEFOLNDJ@d?3?1ymir?5work?1effect?1hit?1blow_fl@
  004a7	c7 84 24 f8 01
	00 00 00 00 00
	00		 mov	 DWORD PTR $T4[esp+2528], OFFSET ??_C@_05BBIGKCLJ@Bip01@
  004b2	c7 84 24 fc 01
	00 00 37 00 00
	00		 mov	 DWORD PTR $T4[esp+2532], 55 ; 00000037H
  004bd	c6 84 24 00 02
	00 00 01	 mov	 BYTE PTR $T4[esp+2536], 1
  004c5	c7 84 24 04 02
	00 00 00 00 00
	00		 mov	 DWORD PTR $T4[esp+2540], OFFSET ??_C@_0DA@CCOAHJOP@d?3?1ymir?5work?1pc?1shaman?1effect?16@
  004d0	c7 84 24 08 02
	00 00 00 00 00
	00		 mov	 DWORD PTR $T4[esp+2544], OFFSET ??_C@_0N@NFGLJLMH@Bip01?5R?5Hand@
  004db	c7 84 24 0c 02
	00 00 38 00 00
	00		 mov	 DWORD PTR $T4[esp+2548], 56 ; 00000038H
  004e6	c6 84 24 10 02
	00 00 01	 mov	 BYTE PTR $T4[esp+2552], 1
  004ee	c7 84 24 14 02
	00 00 00 00 00
	00		 mov	 DWORD PTR $T4[esp+2556], OFFSET ??_C@_0DC@GCFCFGML@d?3?1ymir?5work?1pc?1shaman?1effect?1j@
  004f9	c7 84 24 18 02
	00 00 00 00 00
	00		 mov	 DWORD PTR $T4[esp+2560], OFFSET ??_C@_0N@OCIKHMFE@Bip01?5L?5Hand@
  00504	c7 84 24 1c 02
	00 00 39 00 00
	00		 mov	 DWORD PTR $T4[esp+2564], 57 ; 00000039H
  0050f	c6 84 24 20 02
	00 00 01	 mov	 BYTE PTR $T4[esp+2568], 1
  00517	c7 84 24 24 02
	00 00 00 00 00
	00		 mov	 DWORD PTR $T4[esp+2572], OFFSET ??_C@_0CM@CCAFDLBP@d?3?1ymir?5work?1pc?1sura?1effect?1pab@
  00522	c7 84 24 28 02
	00 00 00 00 00
	00		 mov	 DWORD PTR $T4[esp+2576], OFFSET ??_C@_0L@GHIHOBPC@Bip01?5Head@
  0052d	c7 84 24 2c 02
	00 00 3b 00 00
	00		 mov	 DWORD PTR $T4[esp+2580], 59 ; 0000003bH
  00538	c6 84 24 30 02
	00 00 01	 mov	 BYTE PTR $T4[esp+2584], 1
  00540	c7 84 24 34 02
	00 00 00 00 00
	00		 mov	 DWORD PTR $T4[esp+2588], OFFSET ??_C@_0DG@JMJLCJCB@d?3?1ymir?5work?1pc?1warrior?1effect?1@
  0054b	c7 84 24 38 02
	00 00 00 00 00
	00		 mov	 DWORD PTR $T4[esp+2592], OFFSET ??_C@_00CNPNBAHC@@
  00556	c7 84 24 3c 02
	00 00 3c 00 00
	00		 mov	 DWORD PTR $T4[esp+2596], 60 ; 0000003cH
  00561	c6 84 24 40 02
	00 00 01	 mov	 BYTE PTR $T4[esp+2600], 1
  00569	c7 84 24 44 02
	00 00 00 00 00
	00		 mov	 DWORD PTR $T4[esp+2604], OFFSET ??_C@_0DE@OPIDGJBC@d?3?1ymir?5work?1effect?1etc?1guild_w@
  00574	c7 84 24 48 02
	00 00 00 00 00
	00		 mov	 DWORD PTR $T4[esp+2608], OFFSET ??_C@_00CNPNBAHC@@
  0057f	c7 84 24 4c 02
	00 00 3e 00 00
	00		 mov	 DWORD PTR $T4[esp+2612], 62 ; 0000003eH
  0058a	c6 84 24 50 02
	00 00 01	 mov	 BYTE PTR $T4[esp+2616], 1
  00592	c7 84 24 54 02
	00 00 00 00 00
	00		 mov	 DWORD PTR $T4[esp+2620], OFFSET ??_C@_0DF@ELFLIELL@d?3?1ymir?5work?1effect?1etc?1guild_w@
  0059d	c7 84 24 58 02
	00 00 00 00 00
	00		 mov	 DWORD PTR $T4[esp+2624], OFFSET ??_C@_00CNPNBAHC@@
  005a8	c7 84 24 5c 02
	00 00 3f 00 00
	00		 mov	 DWORD PTR $T4[esp+2628], 63 ; 0000003fH
  005b3	c6 84 24 60 02
	00 00 01	 mov	 BYTE PTR $T4[esp+2632], 1
  005bb	c7 84 24 64 02
	00 00 00 00 00
	00		 mov	 DWORD PTR $T4[esp+2636], OFFSET ??_C@_0DH@IIDBMJBL@d?3?1ymir?5work?1effect?1etc?1guild_w@
  005c6	c7 84 24 68 02
	00 00 00 00 00
	00		 mov	 DWORD PTR $T4[esp+2640], OFFSET ??_C@_00CNPNBAHC@@
  005d1	c7 84 24 6c 02
	00 00 40 00 00
	00		 mov	 DWORD PTR $T4[esp+2644], 64 ; 00000040H
  005dc	c6 84 24 70 02
	00 00 01	 mov	 BYTE PTR $T4[esp+2648], 1
  005e4	c7 84 24 74 02
	00 00 00 00 00
	00		 mov	 DWORD PTR $T4[esp+2652], OFFSET ??_C@_0CL@OEFHPFHK@d?3?1ymir?5work?1effect?1autohunt?1au@
  005ef	c7 84 24 78 02
	00 00 00 00 00
	00		 mov	 DWORD PTR $T4[esp+2656], OFFSET ??_C@_05BBIGKCLJ@Bip01@
  005fa	c7 84 24 7c 02
	00 00 41 00 00
	00		 mov	 DWORD PTR $T4[esp+2660], 65 ; 00000041H
  00605	c6 84 24 80 02
	00 00 01	 mov	 BYTE PTR $T4[esp+2664], 1
  0060d	c7 84 24 84 02
	00 00 00 00 00
	00		 mov	 DWORD PTR $T4[esp+2668], OFFSET ??_C@_0CM@GNEGOGBH@d?3?1ymir?5work?1ui?1game?1staff_effe@
  00618	c7 84 24 88 02
	00 00 00 00 00
	00		 mov	 DWORD PTR $T4[esp+2672], OFFSET ??_C@_05BBIGKCLJ@Bip01@
  00623	c7 84 24 8c 02
	00 00 45 00 00
	00		 mov	 DWORD PTR $T4[esp+2676], 69 ; 00000045H
  0062e	c6 84 24 90 02
	00 00 01	 mov	 BYTE PTR $T4[esp+2680], 1
  00636	c7 84 24 94 02
	00 00 00 00 00
	00		 mov	 DWORD PTR $T4[esp+2684], OFFSET ??_C@_0CM@NAJCHPFI@d?3?1ymir?5work?1ui?1game?1staff_effe@
  00641	c7 84 24 98 02
	00 00 00 00 00
	00		 mov	 DWORD PTR $T4[esp+2688], OFFSET ??_C@_05BBIGKCLJ@Bip01@
  0064c	c7 84 24 9c 02
	00 00 46 00 00
	00		 mov	 DWORD PTR $T4[esp+2692], 70 ; 00000046H
  00657	c6 84 24 a0 02
	00 00 01	 mov	 BYTE PTR $T4[esp+2696], 1
  0065f	c7 84 24 a4 02
	00 00 00 00 00
	00		 mov	 DWORD PTR $T4[esp+2700], OFFSET ??_C@_0CM@EBGEEMDH@d?3?1ymir?5work?1ui?1game?1staff_effe@
  0066a	c7 84 24 a8 02
	00 00 00 00 00
	00		 mov	 DWORD PTR $T4[esp+2704], OFFSET ??_C@_05BBIGKCLJ@Bip01@
  00675	c7 84 24 ac 02
	00 00 47 00 00
	00		 mov	 DWORD PTR $T4[esp+2708], 71 ; 00000047H
  00680	c6 84 24 b0 02
	00 00 01	 mov	 BYTE PTR $T4[esp+2712], 1
  00688	c7 84 24 b4 02
	00 00 00 00 00
	00		 mov	 DWORD PTR $T4[esp+2716], OFFSET ??_C@_0CO@HACMINDF@d?3?1ymir?5work?1ui?1game?1staff_effe@
  00693	c7 84 24 b8 02
	00 00 00 00 00
	00		 mov	 DWORD PTR $T4[esp+2720], OFFSET ??_C@_05BBIGKCLJ@Bip01@
  0069e	c7 84 24 bc 02
	00 00 48 00 00
	00		 mov	 DWORD PTR $T4[esp+2724], 72 ; 00000048H
  006a9	c6 84 24 c0 02
	00 00 01	 mov	 BYTE PTR $T4[esp+2728], 1
  006b1	c7 84 24 c4 02
	00 00 00 00 00
	00		 mov	 DWORD PTR $T4[esp+2732], OFFSET ??_C@_0DA@GECHCBE@D?3?1ymir?5work?1pc?1common?1effect?1s@
  006bc	c7 84 24 c8 02
	00 00 00 00 00
	00		 mov	 DWORD PTR $T4[esp+2736], OFFSET ??_C@_0M@LDILJIBN@PART_WEAPON@
  006c7	c7 84 24 cc 02
	00 00 e6 00 00
	00		 mov	 DWORD PTR $T4[esp+2740], 230 ; 000000e6H
  006d2	c6 84 24 d0 02
	00 00 01	 mov	 BYTE PTR $T4[esp+2744], 1
  006da	c7 84 24 d4 02
	00 00 00 00 00
	00		 mov	 DWORD PTR $T4[esp+2748], OFFSET ??_C@_0DA@PHBEMAMB@D?3?1ymir?5work?1pc?1common?1effect?1s@
  006e5	c7 84 24 d8 02
	00 00 00 00 00
	00		 mov	 DWORD PTR $T4[esp+2752], OFFSET ??_C@_0M@LDILJIBN@PART_WEAPON@
  006f0	c7 84 24 dc 02
	00 00 e7 00 00
	00		 mov	 DWORD PTR $T4[esp+2756], 231 ; 000000e7H
  006fb	c6 84 24 e0 02
	00 00 01	 mov	 BYTE PTR $T4[esp+2760], 1
  00703	c7 84 24 e4 02
	00 00 00 00 00
	00		 mov	 DWORD PTR $T4[esp+2764], OFFSET ??_C@_0DA@DMEIBDGE@D?3?1ymir?5work?1pc?1common?1effect?1s@
  0070e	c7 84 24 e8 02
	00 00 00 00 00
	00		 mov	 DWORD PTR $T4[esp+2768], OFFSET ??_C@_0M@LDILJIBN@PART_WEAPON@
  00719	c7 84 24 ec 02
	00 00 e8 00 00
	00		 mov	 DWORD PTR $T4[esp+2772], 232 ; 000000e8H
  00724	c6 84 24 f0 02
	00 00 01	 mov	 BYTE PTR $T4[esp+2776], 1
  0072c	c7 84 24 f4 02
	00 00 00 00 00
	00		 mov	 DWORD PTR $T4[esp+2780], OFFSET ??_C@_0DC@GAOGMCDD@D?3?1ymir?5work?1pc?1common?1effect?1s@
  00737	c7 84 24 f8 02
	00 00 00 00 00
	00		 mov	 DWORD PTR $T4[esp+2784], OFFSET ??_C@_0BB@KENNFNCF@PART_WEAPON_LEFT@
  00742	c7 84 24 fc 02
	00 00 e9 00 00
	00		 mov	 DWORD PTR $T4[esp+2788], 233 ; 000000e9H
  0074d	c6 84 24 00 03
	00 00 01	 mov	 BYTE PTR $T4[esp+2792], 1
  00755	c7 84 24 04 03
	00 00 00 00 00
	00		 mov	 DWORD PTR $T4[esp+2796], OFFSET ??_C@_0DC@LJMGNAJP@D?3?1ymir?5work?1pc?1common?1effect?1s@
  00760	c7 84 24 08 03
	00 00 00 00 00
	00		 mov	 DWORD PTR $T4[esp+2800], OFFSET ??_C@_0BB@KENNFNCF@PART_WEAPON_LEFT@
  0076b	c7 84 24 0c 03
	00 00 ea 00 00
	00		 mov	 DWORD PTR $T4[esp+2804], 234 ; 000000eaH
  00776	c6 84 24 10 03
	00 00 01	 mov	 BYTE PTR $T4[esp+2808], 1
  0077e	c7 84 24 14 03
	00 00 00 00 00
	00		 mov	 DWORD PTR $T4[esp+2812], OFFSET ??_C@_0DC@HFGMNAAB@D?3?1ymir?5work?1pc?1common?1effect?1s@
  00789	c7 84 24 18 03
	00 00 00 00 00
	00		 mov	 DWORD PTR $T4[esp+2816], OFFSET ??_C@_0BB@KENNFNCF@PART_WEAPON_LEFT@
  00794	c7 84 24 1c 03
	00 00 eb 00 00
	00		 mov	 DWORD PTR $T4[esp+2820], 235 ; 000000ebH
  0079f	c6 84 24 20 03
	00 00 01	 mov	 BYTE PTR $T4[esp+2824], 1
  007a7	c7 84 24 24 03
	00 00 00 00 00
	00		 mov	 DWORD PTR $T4[esp+2828], OFFSET ??_C@_0DC@PLHHIACF@D?3?1ymir?5work?1pc?1common?1effect?1s@
  007b2	c7 84 24 28 03
	00 00 00 00 00
	00		 mov	 DWORD PTR $T4[esp+2832], OFFSET ??_C@_0M@LDILJIBN@PART_WEAPON@
  007bd	c7 84 24 2c 03
	00 00 ec 00 00
	00		 mov	 DWORD PTR $T4[esp+2836], 236 ; 000000ecH
  007c8	c6 84 24 30 03
	00 00 01	 mov	 BYTE PTR $T4[esp+2840], 1
  007d0	c7 84 24 34 03
	00 00 00 00 00
	00		 mov	 DWORD PTR $T4[esp+2844], OFFSET ??_C@_0DC@CCFHJCIJ@D?3?1ymir?5work?1pc?1common?1effect?1s@
  007db	c7 84 24 38 03
	00 00 00 00 00
	00		 mov	 DWORD PTR $T4[esp+2848], OFFSET ??_C@_0M@LDILJIBN@PART_WEAPON@
  007e6	c7 84 24 3c 03
	00 00 ed 00 00
	00		 mov	 DWORD PTR $T4[esp+2852], 237 ; 000000edH
  007f1	c6 84 24 40 03
	00 00 01	 mov	 BYTE PTR $T4[esp+2856], 1
  007f9	c7 84 24 44 03
	00 00 00 00 00
	00		 mov	 DWORD PTR $T4[esp+2860], OFFSET ??_C@_0DC@OOPNJCBH@D?3?1ymir?5work?1pc?1common?1effect?1s@
  00804	c7 84 24 48 03
	00 00 00 00 00
	00		 mov	 DWORD PTR $T4[esp+2864], OFFSET ??_C@_0M@LDILJIBN@PART_WEAPON@
  0080f	c7 84 24 4c 03
	00 00 ee 00 00
	00		 mov	 DWORD PTR $T4[esp+2868], 238 ; 000000eeH
  0081a	c6 84 24 50 03
	00 00 01	 mov	 BYTE PTR $T4[esp+2872], 1
  00822	c7 84 24 54 03
	00 00 00 00 00
	00		 mov	 DWORD PTR $T4[esp+2876], OFFSET ??_C@_0DC@KIGMBDAN@D?3?1ymir?5work?1pc?1common?1effect?1s@
  0082d	c7 84 24 58 03
	00 00 00 00 00
	00		 mov	 DWORD PTR $T4[esp+2880], OFFSET ??_C@_0M@LDILJIBN@PART_WEAPON@
  00838	c7 84 24 5c 03
	00 00 ef 00 00
	00		 mov	 DWORD PTR $T4[esp+2884], 239 ; 000000efH
  00843	c6 84 24 60 03
	00 00 01	 mov	 BYTE PTR $T4[esp+2888], 1
  0084b	c7 84 24 64 03
	00 00 00 00 00
	00		 mov	 DWORD PTR $T4[esp+2892], OFFSET ??_C@_0DC@HBEMABKB@D?3?1ymir?5work?1pc?1common?1effect?1s@
  00856	c7 84 24 68 03
	00 00 00 00 00
	00		 mov	 DWORD PTR $T4[esp+2896], OFFSET ??_C@_0M@LDILJIBN@PART_WEAPON@
  00861	c7 84 24 6c 03
	00 00 f0 00 00
	00		 mov	 DWORD PTR $T4[esp+2900], 240 ; 000000f0H
  0086c	c6 84 24 70 03
	00 00 01	 mov	 BYTE PTR $T4[esp+2904], 1
  00874	c7 84 24 74 03
	00 00 00 00 00
	00		 mov	 DWORD PTR $T4[esp+2908], OFFSET ??_C@_0DC@LNOGABDP@D?3?1ymir?5work?1pc?1common?1effect?1s@
  0087f	c7 84 24 78 03
	00 00 00 00 00
	00		 mov	 DWORD PTR $T4[esp+2912], OFFSET ??_C@_0M@LDILJIBN@PART_WEAPON@
  0088a	c7 84 24 7c 03
	00 00 f1 00 00
	00		 mov	 DWORD PTR $T4[esp+2916], 241 ; 000000f1H
  00895	c6 84 24 80 03
	00 00 01	 mov	 BYTE PTR $T4[esp+2920], 1
  0089d	c7 84 24 84 03
	00 00 00 00 00
	00		 mov	 DWORD PTR $T4[esp+2924], OFFSET ??_C@_0DC@KIGMBDAN@D?3?1ymir?5work?1pc?1common?1effect?1s@
  008a8	c7 84 24 88 03
	00 00 00 00 00
	00		 mov	 DWORD PTR $T4[esp+2928], OFFSET ??_C@_0BB@KENNFNCF@PART_WEAPON_LEFT@
  008b3	c7 84 24 8c 03
	00 00 f2 00 00
	00		 mov	 DWORD PTR $T4[esp+2932], 242 ; 000000f2H
  008be	c6 84 24 90 03
	00 00 01	 mov	 BYTE PTR $T4[esp+2936], 1
  008c6	c7 84 24 94 03
	00 00 00 00 00
	00		 mov	 DWORD PTR $T4[esp+2940], OFFSET ??_C@_0DC@HBEMABKB@D?3?1ymir?5work?1pc?1common?1effect?1s@
  008d1	c7 84 24 98 03
	00 00 00 00 00
	00		 mov	 DWORD PTR $T4[esp+2944], OFFSET ??_C@_0BB@KENNFNCF@PART_WEAPON_LEFT@
  008dc	c7 84 24 9c 03
	00 00 f3 00 00
	00		 mov	 DWORD PTR $T4[esp+2948], 243 ; 000000f3H
  008e7	c6 84 24 a0 03
	00 00 01	 mov	 BYTE PTR $T4[esp+2952], 1
  008ef	c7 84 24 a4 03
	00 00 00 00 00
	00		 mov	 DWORD PTR $T4[esp+2956], OFFSET ??_C@_0DC@LNOGABDP@D?3?1ymir?5work?1pc?1common?1effect?1s@
  008fa	c7 84 24 a8 03
	00 00 00 00 00
	00		 mov	 DWORD PTR $T4[esp+2960], OFFSET ??_C@_0BB@KENNFNCF@PART_WEAPON_LEFT@
  00905	c7 84 24 ac 03
	00 00 f4 00 00
	00		 mov	 DWORD PTR $T4[esp+2964], 244 ; 000000f4H
  00910	c6 84 24 b0 03
	00 00 01	 mov	 BYTE PTR $T4[esp+2968], 1
  00918	c7 84 24 b4 03
	00 00 00 00 00
	00		 mov	 DWORD PTR $T4[esp+2972], OFFSET ??_C@_0DA@KPNIEGP@D?3?1ymir?5work?1pc?1common?1effect?1a@
  00923	c7 84 24 b8 03
	00 00 00 00 00
	00		 mov	 DWORD PTR $T4[esp+2976], OFFSET ??_C@_05BBIGKCLJ@Bip01@
  0092e	c7 84 24 bc 03
	00 00 f5 00 00
	00		 mov	 DWORD PTR $T4[esp+2980], 245 ; 000000f5H
  00939	c6 84 24 c0 03
	00 00 01	 mov	 BYTE PTR $T4[esp+2984], 1
  00941	c7 84 24 c4 03
	00 00 00 00 00
	00		 mov	 DWORD PTR $T4[esp+2988], OFFSET ??_C@_0DA@PLKLDGLK@D?3?1ymir?5work?1pc?1common?1effect?1a@
  0094c	c7 84 24 c8 03
	00 00 00 00 00
	00		 mov	 DWORD PTR $T4[esp+2992], OFFSET ??_C@_05BBIGKCLJ@Bip01@
  00957	c7 84 24 cc 03
	00 00 f6 00 00
	00		 mov	 DWORD PTR $T4[esp+2996], 246 ; 000000f6H
  00962	c6 84 24 d0 03
	00 00 01	 mov	 BYTE PTR $T4[esp+3000], 1
  0096a	c7 84 24 d4 03
	00 00 00 00 00
	00		 mov	 DWORD PTR $T4[esp+3004], OFFSET ??_C@_0DA@DAPHOFBP@D?3?1ymir?5work?1pc?1common?1effect?1a@
  00975	c7 84 24 d8 03
	00 00 00 00 00
	00		 mov	 DWORD PTR $T4[esp+3008], OFFSET ??_C@_05BBIGKCLJ@Bip01@
  00980	c7 84 24 dc 03
	00 00 f7 00 00
	00		 mov	 DWORD PTR $T4[esp+3012], 247 ; 000000f7H
  0098b	c6 84 24 e0 03
	00 00 01	 mov	 BYTE PTR $T4[esp+3016], 1
  00993	c7 84 24 e4 03
	00 00 00 00 00
	00		 mov	 DWORD PTR $T4[esp+3020], OFFSET ??_C@_0DE@CBDJIACC@D?3?1ymir?5work?1pc?1common?1effect?1a@
  0099e	c7 84 24 e8 03
	00 00 00 00 00
	00		 mov	 DWORD PTR $T4[esp+3024], OFFSET ??_C@_05BBIGKCLJ@Bip01@
  009a9	c7 84 24 ec 03
	00 00 f8 00 00
	00		 mov	 DWORD PTR $T4[esp+3028], 248 ; 000000f8H
  009b4	c6 84 24 f0 03
	00 00 01	 mov	 BYTE PTR $T4[esp+3032], 1
  009bc	c7 84 24 f4 03
	00 00 00 00 00
	00		 mov	 DWORD PTR $T4[esp+3036], OFFSET ??_C@_0DE@KHKNPCIM@D?3?1ymir?5work?1pc?1common?1effect?1a@
  009c7	c7 84 24 f8 03
	00 00 00 00 00
	00		 mov	 DWORD PTR $T4[esp+3040], OFFSET ??_C@_05BBIGKCLJ@Bip01@
  009d2	c7 84 24 fc 03
	00 00 f9 00 00
	00		 mov	 DWORD PTR $T4[esp+3044], 249 ; 000000f9H
  009dd	c6 84 24 00 04
	00 00 01	 mov	 BYTE PTR $T4[esp+3048], 1
  009e5	c7 84 24 04 04
	00 00 00 00 00
	00		 mov	 DWORD PTR $T4[esp+3052], OFFSET ??_C@_0CP@IMBNOLN@d?3?1ymir?5work?1pc?1common?1effect?1a@
  009f0	c7 84 24 08 04
	00 00 00 00 00
	00		 mov	 DWORD PTR $T4[esp+3056], OFFSET ??_C@_05BBIGKCLJ@Bip01@
  009fb	c7 84 24 0c 04
	00 00 fa 00 00
	00		 mov	 DWORD PTR $T4[esp+3060], 250 ; 000000faH
  00a06	c6 84 24 10 04
	00 00 01	 mov	 BYTE PTR $T4[esp+3064], 1
  00a0e	c7 84 24 14 04
	00 00 00 00 00
	00		 mov	 DWORD PTR $T4[esp+3068], OFFSET ??_C@_0CC@GDMANCJ@D?3?1ymir?5work?1effect?1sword?1fms?4m@
  00a19	c7 84 24 18 04
	00 00 00 00 00
	00		 mov	 DWORD PTR $T4[esp+3072], OFFSET ??_C@_0M@LDILJIBN@PART_WEAPON@
  00a24	c7 84 24 1c 04
	00 00 fb 00 00
	00		 mov	 DWORD PTR $T4[esp+3076], 251 ; 000000fbH
  00a2f	c6 84 24 20 04
	00 00 01	 mov	 BYTE PTR $T4[esp+3080], 1
  00a37	c7 84 24 24 04
	00 00 00 00 00
	00		 mov	 DWORD PTR $T4[esp+3084], OFFSET ??_C@_0CF@FMCPLCFN@D?3?1ymir?5work?1effect?1sword?1tryto@
  00a42	c7 84 24 28 04
	00 00 00 00 00
	00		 mov	 DWORD PTR $T4[esp+3088], OFFSET ??_C@_0M@LDILJIBN@PART_WEAPON@
  00a4d	c7 84 24 2c 04
	00 00 fc 00 00
	00		 mov	 DWORD PTR $T4[esp+3092], 252 ; 000000fcH
  00a58	c6 84 24 30 04
	00 00 01	 mov	 BYTE PTR $T4[esp+3096], 1
  00a60	c7 84 24 34 04
	00 00 00 00 00
	00		 mov	 DWORD PTR $T4[esp+3100], OFFSET ??_C@_0CH@OJKFEBAD@D?3?1ymir?5work?1effect?1sword?1zatru@
  00a6b	c7 84 24 38 04
	00 00 00 00 00
	00		 mov	 DWORD PTR $T4[esp+3104], OFFSET ??_C@_0M@LDILJIBN@PART_WEAPON@
  00a76	c7 84 24 3c 04
	00 00 fd 00 00
	00		 mov	 DWORD PTR $T4[esp+3108], 253 ; 000000fdH
  00a81	c6 84 24 40 04
	00 00 01	 mov	 BYTE PTR $T4[esp+3112], 1
  00a89	c7 84 24 44 04
	00 00 00 00 00
	00		 mov	 DWORD PTR $T4[esp+3116], OFFSET ??_C@_0CC@PGBPPDJM@D?3?1ymir?5work?1effect?1sword?1lwi?4m@
  00a94	c7 84 24 48 04
	00 00 00 00 00
	00		 mov	 DWORD PTR $T4[esp+3120], OFFSET ??_C@_0M@LDILJIBN@PART_WEAPON@
  00a9f	c7 84 24 4c 04
	00 00 fe 00 00
	00		 mov	 DWORD PTR $T4[esp+3124], 254 ; 000000feH
  00aaa	c6 84 24 50 04
	00 00 01	 mov	 BYTE PTR $T4[esp+3128], 1
  00ab2	c7 84 24 54 04
	00 00 00 00 00
	00		 mov	 DWORD PTR $T4[esp+3132], OFFSET ??_C@_0CH@JHALOLH@D?3?1ymir?5work?1effect?1sword?1brzeg@
  00abd	c7 84 24 58 04
	00 00 00 00 00
	00		 mov	 DWORD PTR $T4[esp+3136], OFFSET ??_C@_0M@LDILJIBN@PART_WEAPON@
  00ac8	c7 84 24 5c 04
	00 00 ff 00 00
	00		 mov	 DWORD PTR $T4[esp+3140], 255 ; 000000ffH
  00ad3	c6 84 24 60 04
	00 00 01	 mov	 BYTE PTR $T4[esp+3144], 1
  00adb	c7 84 24 64 04
	00 00 00 00 00
	00		 mov	 DWORD PTR $T4[esp+3148], OFFSET ??_C@_0CF@PEOGOFEJ@D?3?1ymir?5work?1effect?1sword?1swiet@
  00ae6	c7 84 24 68 04
	00 00 00 00 00
	00		 mov	 DWORD PTR $T4[esp+3152], OFFSET ??_C@_0M@LDILJIBN@PART_WEAPON@
  00af1	c7 84 24 6c 04
	00 00 00 01 00
	00		 mov	 DWORD PTR $T4[esp+3156], 256 ; 00000100H
  00afc	c6 84 24 70 04
	00 00 01	 mov	 BYTE PTR $T4[esp+3160], 1
  00b04	c7 84 24 74 04
	00 00 00 00 00
	00		 mov	 DWORD PTR $T4[esp+3164], OFFSET ??_C@_0CC@MCAIMHNF@D?3?1ymir?5work?1effect?1sword?1rib?4m@
  00b0f	c7 84 24 78 04
	00 00 00 00 00
	00		 mov	 DWORD PTR $T4[esp+3168], OFFSET ??_C@_0M@LDILJIBN@PART_WEAPON@
  00b1a	c7 84 24 7c 04
	00 00 01 01 00
	00		 mov	 DWORD PTR $T4[esp+3172], 257 ; 00000101H
  00b25	c6 84 24 80 04
	00 00 01	 mov	 BYTE PTR $T4[esp+3176], 1
  00b2d	c7 84 24 84 04
	00 00 00 00 00
	00		 mov	 DWORD PTR $T4[esp+3180], OFFSET ??_C@_0CC@BIAIPDHH@D?3?1ymir?5work?1effect?1sword?1zal?4m@
  00b38	c7 84 24 88 04
	00 00 00 00 00
	00		 mov	 DWORD PTR $T4[esp+3184], OFFSET ??_C@_0M@LDILJIBN@PART_WEAPON@
  00b43	c7 84 24 8c 04
	00 00 02 01 00
	00		 mov	 DWORD PTR $T4[esp+3188], 258 ; 00000102H
  00b4e	c6 84 24 90 04
	00 00 01	 mov	 BYTE PTR $T4[esp+3192], 1
  00b56	c7 84 24 94 04
	00 00 00 00 00
	00		 mov	 DWORD PTR $T4[esp+3196], OFFSET ??_C@_0CG@KGPMPGPP@D?3?1ymir?5work?1effect?1sword?1jelon@
  00b61	c7 84 24 98 04
	00 00 00 00 00
	00		 mov	 DWORD PTR $T4[esp+3200], OFFSET ??_C@_0BB@KENNFNCF@PART_WEAPON_LEFT@
  00b6c	c7 84 24 9c 04
	00 00 03 01 00
	00		 mov	 DWORD PTR $T4[esp+3204], 259 ; 00000103H
  00b77	c6 84 24 a0 04
	00 00 01	 mov	 BYTE PTR $T4[esp+3208], 1
  00b7f	c7 84 24 a4 04
	00 00 00 00 00
	00		 mov	 DWORD PTR $T4[esp+3212], OFFSET ??_C@_0CD@IFJBIMEB@D?3?1ymir?5work?1effect?1sword?1kruk?4@
  00b8a	c7 84 24 a8 04
	00 00 00 00 00
	00		 mov	 DWORD PTR $T4[esp+3216], OFFSET ??_C@_0BB@KENNFNCF@PART_WEAPON_LEFT@
  00b95	c7 84 24 ac 04
	00 00 04 01 00
	00		 mov	 DWORD PTR $T4[esp+3220], 260 ; 00000104H
  00ba0	c6 84 24 b0 04
	00 00 01	 mov	 BYTE PTR $T4[esp+3224], 1
  00ba8	c7 84 24 b4 04
	00 00 00 00 00
	00		 mov	 DWORD PTR $T4[esp+3228], OFFSET ??_C@_0CH@PHJGNKLC@D?3?1ymir?5work?1effect?1sword?1diabl@
  00bb3	c7 84 24 b8 04
	00 00 00 00 00
	00		 mov	 DWORD PTR $T4[esp+3232], OFFSET ??_C@_0BB@KENNFNCF@PART_WEAPON_LEFT@
  00bbe	c7 84 24 bc 04
	00 00 05 01 00
	00		 mov	 DWORD PTR $T4[esp+3236], 261 ; 00000105H
  00bc9	c6 84 24 c0 04
	00 00 01	 mov	 BYTE PTR $T4[esp+3240], 1
  00bd1	c7 84 24 c4 04
	00 00 00 00 00
	00		 mov	 DWORD PTR $T4[esp+3244], OFFSET ??_C@_0CE@JAECJFJF@D?3?1ymir?5work?1effect?1sword?1antyk@
  00bdc	c7 84 24 c8 04
	00 00 00 00 00
	00		 mov	 DWORD PTR $T4[esp+3248], OFFSET ??_C@_0M@LDILJIBN@PART_WEAPON@
  00be7	c7 84 24 cc 04
	00 00 06 01 00
	00		 mov	 DWORD PTR $T4[esp+3252], 262 ; 00000106H
  00bf2	c6 84 24 d0 04
	00 00 01	 mov	 BYTE PTR $T4[esp+3256], 1
  00bfa	c7 84 24 d4 04
	00 00 00 00 00
	00		 mov	 DWORD PTR $T4[esp+3260], OFFSET ??_C@_0CF@OBOLHPCK@D?3?1ymir?5work?1effect?1sword?1bambu@
  00c05	c7 84 24 d8 04
	00 00 00 00 00
	00		 mov	 DWORD PTR $T4[esp+3264], OFFSET ??_C@_0M@LDILJIBN@PART_WEAPON@
  00c10	c7 84 24 dc 04
	00 00 07 01 00
	00		 mov	 DWORD PTR $T4[esp+3268], 263 ; 00000107H
  00c1b	c6 84 24 e0 04
	00 00 01	 mov	 BYTE PTR $T4[esp+3272], 1
  00c23	c7 84 24 e4 04
	00 00 00 00 00
	00		 mov	 DWORD PTR $T4[esp+3276], OFFSET ??_C@_0CG@FNICILCM@D?3?1ymir?5work?1effect?1sword?1szcze@
  00c2e	c7 84 24 e8 04
	00 00 00 00 00
	00		 mov	 DWORD PTR $T4[esp+3280], OFFSET ??_C@_0M@LDILJIBN@PART_WEAPON@
  00c39	c7 84 24 ec 04
	00 00 08 01 00
	00		 mov	 DWORD PTR $T4[esp+3284], 264 ; 00000108H
  00c44	c6 84 24 f0 04
	00 00 01	 mov	 BYTE PTR $T4[esp+3288], 1
  00c4c	c7 84 24 f4 04
	00 00 00 00 00
	00		 mov	 DWORD PTR $T4[esp+3292], OFFSET ??_C@_0CE@OCEPJPOD@D?3?1ymir?5work?1effect?1sword?1kozik@
  00c57	c7 84 24 f8 04
	00 00 00 00 00
	00		 mov	 DWORD PTR $T4[esp+3296], OFFSET ??_C@_0M@LDILJIBN@PART_WEAPON@
  00c62	c7 84 24 fc 04
	00 00 09 01 00
	00		 mov	 DWORD PTR $T4[esp+3300], 265 ; 00000109H
  00c6d	c6 84 24 00 05
	00 00 01	 mov	 BYTE PTR $T4[esp+3304], 1
  00c75	c7 84 24 04 05
	00 00 00 00 00
	00		 mov	 DWORD PTR $T4[esp+3308], OFFSET ??_C@_0CE@OCEPJPOD@D?3?1ymir?5work?1effect?1sword?1kozik@
  00c80	c7 84 24 08 05
	00 00 00 00 00
	00		 mov	 DWORD PTR $T4[esp+3312], OFFSET ??_C@_0BB@KENNFNCF@PART_WEAPON_LEFT@
  00c8b	c7 84 24 0c 05
	00 00 0a 01 00
	00		 mov	 DWORD PTR $T4[esp+3316], 266 ; 0000010aH
  00c96	c6 84 24 10 05
	00 00 01	 mov	 BYTE PTR $T4[esp+3320], 1
  00c9e	c7 84 24 14 05
	00 00 00 00 00
	00		 mov	 DWORD PTR $T4[esp+3324], OFFSET ??_C@_0CH@FKBGCCDC@D?3?1ymir?5work?1effect?1sword?1skrzy@
  00ca9	c7 84 24 18 05
	00 00 00 00 00
	00		 mov	 DWORD PTR $T4[esp+3328], OFFSET ??_C@_0M@LDILJIBN@PART_WEAPON@
  00cb4	c7 84 24 1c 05
	00 00 0b 01 00
	00		 mov	 DWORD PTR $T4[esp+3332], 267 ; 0000010bH
  00cbf	c6 84 24 20 05
	00 00 01	 mov	 BYTE PTR $T4[esp+3336], 1
  00cc7	c7 84 24 24 05
	00 00 00 00 00
	00		 mov	 DWORD PTR $T4[esp+3340], OFFSET ??_C@_0CH@FKBGCCDC@D?3?1ymir?5work?1effect?1sword?1skrzy@
  00cd2	c7 84 24 28 05
	00 00 00 00 00
	00		 mov	 DWORD PTR $T4[esp+3344], OFFSET ??_C@_0BB@KENNFNCF@PART_WEAPON_LEFT@
  00cdd	c7 84 24 2c 05
	00 00 0c 01 00
	00		 mov	 DWORD PTR $T4[esp+3348], 268 ; 0000010cH
  00ce8	c6 84 24 30 05
	00 00 01	 mov	 BYTE PTR $T4[esp+3352], 1
  00cf0	c7 84 24 34 05
	00 00 00 00 00
	00		 mov	 DWORD PTR $T4[esp+3356], OFFSET ??_C@_0CI@GHHADAPC@D?3?1ymir?5work?1effect?1sword?1bezdu@
  00cfb	c7 84 24 38 05
	00 00 00 00 00
	00		 mov	 DWORD PTR $T4[esp+3360], OFFSET ??_C@_0M@LDILJIBN@PART_WEAPON@
  00d06	c7 84 24 3c 05
	00 00 0d 01 00
	00		 mov	 DWORD PTR $T4[esp+3364], 269 ; 0000010dH
  00d11	c6 84 24 40 05
	00 00 01	 mov	 BYTE PTR $T4[esp+3368], 1
  00d19	c7 84 24 44 05
	00 00 00 00 00
	00		 mov	 DWORD PTR $T4[esp+3372], OFFSET ??_C@_0CI@GHHADAPC@D?3?1ymir?5work?1effect?1sword?1bezdu@
  00d24	c7 84 24 48 05
	00 00 00 00 00
	00		 mov	 DWORD PTR $T4[esp+3376], OFFSET ??_C@_0BB@KENNFNCF@PART_WEAPON_LEFT@
  00d2f	c7 84 24 4c 05
	00 00 0e 01 00
	00		 mov	 DWORD PTR $T4[esp+3380], 270 ; 0000010eH
  00d3a	c6 84 24 50 05
	00 00 01	 mov	 BYTE PTR $T4[esp+3384], 1
  00d42	c7 84 24 54 05
	00 00 00 00 00
	00		 mov	 DWORD PTR $T4[esp+3388], OFFSET ??_C@_0CF@BHENGJGF@D?3?1ymir?5work?1effect?1sword?1jesio@
  00d4d	c7 84 24 58 05
	00 00 00 00 00
	00		 mov	 DWORD PTR $T4[esp+3392], OFFSET ??_C@_0M@LDILJIBN@PART_WEAPON@
  00d58	c7 84 24 5c 05
	00 00 0f 01 00
	00		 mov	 DWORD PTR $T4[esp+3396], 271 ; 0000010fH
  00d63	c6 84 24 60 05
	00 00 01	 mov	 BYTE PTR $T4[esp+3400], 1
  00d6b	c7 84 24 64 05
	00 00 00 00 00
	00		 mov	 DWORD PTR $T4[esp+3404], OFFSET ??_C@_0CF@BHENGJGF@D?3?1ymir?5work?1effect?1sword?1jesio@
  00d76	c7 84 24 68 05
	00 00 00 00 00
	00		 mov	 DWORD PTR $T4[esp+3408], OFFSET ??_C@_0BB@KENNFNCF@PART_WEAPON_LEFT@
  00d81	c7 84 24 6c 05
	00 00 10 01 00
	00		 mov	 DWORD PTR $T4[esp+3412], 272 ; 00000110H
  00d8c	c6 84 24 70 05
	00 00 01	 mov	 BYTE PTR $T4[esp+3416], 1
  00d94	c7 84 24 74 05
	00 00 00 00 00
	00		 mov	 DWORD PTR $T4[esp+3420], OFFSET ??_C@_0CH@JOIHCIOK@D?3?1ymir?5work?1effect?1sword?1diabl@
  00d9f	c7 84 24 78 05
	00 00 00 00 00
	00		 mov	 DWORD PTR $T4[esp+3424], OFFSET ??_C@_0M@LDILJIBN@PART_WEAPON@
  00daa	c7 84 24 7c 05
	00 00 11 01 00
	00		 mov	 DWORD PTR $T4[esp+3428], 273 ; 00000111H
  00db5	c6 84 24 80 05
	00 00 01	 mov	 BYTE PTR $T4[esp+3432], 1
  00dbd	c7 84 24 84 05
	00 00 00 00 00
	00		 mov	 DWORD PTR $T4[esp+3436], OFFSET ??_C@_0CH@JOIHCIOK@D?3?1ymir?5work?1effect?1sword?1diabl@
  00dc8	c7 84 24 88 05
	00 00 00 00 00
	00		 mov	 DWORD PTR $T4[esp+3440], OFFSET ??_C@_0BB@KENNFNCF@PART_WEAPON_LEFT@
  00dd3	c7 84 24 8c 05
	00 00 12 01 00
	00		 mov	 DWORD PTR $T4[esp+3444], 274 ; 00000112H
  00dde	c6 84 24 90 05
	00 00 01	 mov	 BYTE PTR $T4[esp+3448], 1
  00de6	c7 84 24 94 05
	00 00 00 00 00
	00		 mov	 DWORD PTR $T4[esp+3452], OFFSET ??_C@_0CI@MPPOJFLC@D?3?1ymir?5work?1effect?1sword?1pieki@
  00df1	c7 84 24 98 05
	00 00 00 00 00
	00		 mov	 DWORD PTR $T4[esp+3456], OFFSET ??_C@_0M@LDILJIBN@PART_WEAPON@
  00dfc	c7 84 24 9c 05
	00 00 13 01 00
	00		 mov	 DWORD PTR $T4[esp+3460], 275 ; 00000113H
  00e07	c6 84 24 a0 05
	00 00 01	 mov	 BYTE PTR $T4[esp+3464], 1
  00e0f	c7 84 24 a4 05
	00 00 00 00 00
	00		 mov	 DWORD PTR $T4[esp+3468], OFFSET ??_C@_0CG@FNIDGDAD@d?3?1ymir?5work?1effect?1etc?1dust?1du@
  00e1a	c7 84 24 a8 05
	00 00 00 00 00
	00		 mov	 DWORD PTR $T4[esp+3472], OFFSET ??_C@_00CNPNBAHC@@
  00e25	c7 84 24 ac 05
	00 00 00 00 00
	00		 mov	 DWORD PTR $T4[esp+3476], 0
  00e30	c6 84 24 b0 05
	00 00 01	 mov	 BYTE PTR $T4[esp+3480], 1
  00e38	c7 84 24 b4 05
	00 00 00 00 00
	00		 mov	 DWORD PTR $T4[esp+3484], OFFSET ??_C@_0CO@FHOIMEIA@d?3?1ymir?5work?1effect?1etc?1dust?1ru@
  00e43	c7 84 24 b8 05
	00 00 00 00 00
	00		 mov	 DWORD PTR $T4[esp+3488], OFFSET ??_C@_00CNPNBAHC@@
  00e4e	c7 84 24 bc 05
	00 00 e4 00 00
	00		 mov	 DWORD PTR $T4[esp+3492], 228 ; 000000e4H
  00e59	c6 84 24 c0 05
	00 00 01	 mov	 BYTE PTR $T4[esp+3496], 1
  00e61	c7 84 24 c4 05
	00 00 00 00 00
	00		 mov	 DWORD PTR $T4[esp+3500], OFFSET ??_C@_0CO@GCOGPOPI@d?3?1ymir?5work?1effect?1hit?1blow_1?1@
  00e6c	c7 84 24 c8 05
	00 00 00 00 00
	00		 mov	 DWORD PTR $T4[esp+3504], OFFSET ??_C@_00CNPNBAHC@@
  00e77	c7 84 24 cc 05
	00 00 02 00 00
	00		 mov	 DWORD PTR $T4[esp+3508], 2
  00e82	c6 84 24 d0 05
	00 00 01	 mov	 BYTE PTR $T4[esp+3512], 1
  00e8a	c7 84 24 d4 05
	00 00 00 00 00
	00		 mov	 DWORD PTR $T4[esp+3516], OFFSET ??_C@_0DE@KDBGJFJN@d?3?1ymir?5work?1effect?1etc?1recuper@
  00e95	c7 84 24 d8 05
	00 00 00 00 00
	00		 mov	 DWORD PTR $T4[esp+3520], OFFSET ??_C@_00CNPNBAHC@@
  00ea0	c7 84 24 dc 05
	00 00 0d 00 00
	00		 mov	 DWORD PTR $T4[esp+3524], 13 ; 0000000dH
  00eab	c6 84 24 e0 05
	00 00 01	 mov	 BYTE PTR $T4[esp+3528], 1
  00eb3	c7 84 24 e4 05
	00 00 00 00 00
	00		 mov	 DWORD PTR $T4[esp+3532], OFFSET ??_C@_0DF@DGBAIPPG@d?3?1ymir?5work?1effect?1etc?1recuper@
  00ebe	c7 84 24 e8 05
	00 00 00 00 00
	00		 mov	 DWORD PTR $T4[esp+3536], OFFSET ??_C@_00CNPNBAHC@@
  00ec9	c7 84 24 ec 05
	00 00 0e 00 00
	00		 mov	 DWORD PTR $T4[esp+3540], 14 ; 0000000eH
  00ed4	c6 84 24 f0 05
	00 00 01	 mov	 BYTE PTR $T4[esp+3544], 1
  00edc	c7 84 24 f4 05
	00 00 00 00 00
	00		 mov	 DWORD PTR $T4[esp+3548], OFFSET ??_C@_0DG@KJEGMFD@d?3?1ymir?5work?1effect?1etc?1recuper@
  00ee7	c7 84 24 f8 05
	00 00 00 00 00
	00		 mov	 DWORD PTR $T4[esp+3552], OFFSET ??_C@_00CNPNBAHC@@
  00ef2	c7 84 24 fc 05
	00 00 0f 00 00
	00		 mov	 DWORD PTR $T4[esp+3556], 15 ; 0000000fH
  00efd	c6 84 24 00 06
	00 00 01	 mov	 BYTE PTR $T4[esp+3560], 1
  00f05	c7 84 24 04 06
	00 00 00 00 00
	00		 mov	 DWORD PTR $T4[esp+3564], OFFSET ??_C@_0DH@DGDHOHHH@d?3?1ymir?5work?1effect?1etc?1recuper@
  00f10	c7 84 24 08 06
	00 00 00 00 00
	00		 mov	 DWORD PTR $T4[esp+3568], OFFSET ??_C@_00CNPNBAHC@@
  00f1b	c7 84 24 0c 06
	00 00 10 00 00
	00		 mov	 DWORD PTR $T4[esp+3572], 16 ; 00000010H
  00f26	c6 84 24 10 06
	00 00 01	 mov	 BYTE PTR $T4[esp+3576], 1
  00f2e	c7 84 24 14 06
	00 00 00 00 00
	00		 mov	 DWORD PTR $T4[esp+3580], OFFSET ??_C@_0DI@DJOLHMEJ@d?3?1ymir?5work?1effect?1etc?1recuper@
  00f39	c7 84 24 18 06
	00 00 00 00 00
	00		 mov	 DWORD PTR $T4[esp+3584], OFFSET ??_C@_00CNPNBAHC@@
  00f44	c7 84 24 1c 06
	00 00 23 01 00
	00		 mov	 DWORD PTR $T4[esp+3588], 291 ; 00000123H
  00f4f	c6 84 24 20 06
	00 00 01	 mov	 BYTE PTR $T4[esp+3592], 1
  00f57	c7 84 24 24 06
	00 00 00 00 00
	00		 mov	 DWORD PTR $T4[esp+3596], OFFSET ??_C@_0DJ@LHDEGENC@d?3?1ymir?5work?1effect?1etc?1recuper@
  00f62	c7 84 24 28 06
	00 00 00 00 00
	00		 mov	 DWORD PTR $T4[esp+3600], OFFSET ??_C@_00CNPNBAHC@@
  00f6d	c7 84 24 2c 06
	00 00 24 01 00
	00		 mov	 DWORD PTR $T4[esp+3604], 292 ; 00000124H
  00f78	c6 84 24 30 06
	00 00 01	 mov	 BYTE PTR $T4[esp+3608], 1
  00f80	c7 84 24 34 06
	00 00 00 00 00
	00		 mov	 DWORD PTR $T4[esp+3612], OFFSET ??_C@_0CM@KLIJIODA@d?3?1ymir?5work?1effect?1etc?1buff?1bu@
  00f8b	c7 84 24 38 06
	00 00 00 00 00
	00		 mov	 DWORD PTR $T4[esp+3616], OFFSET ??_C@_00CNPNBAHC@@
  00f96	c7 84 24 3c 06
	00 00 25 01 00
	00		 mov	 DWORD PTR $T4[esp+3620], 293 ; 00000125H
  00fa1	c6 84 24 40 06
	00 00 01	 mov	 BYTE PTR $T4[esp+3624], 1
  00fa9	c7 84 24 44 06
	00 00 00 00 00
	00		 mov	 DWORD PTR $T4[esp+3628], OFFSET ??_C@_0CM@CNBNPMJO@d?3?1ymir?5work?1effect?1etc?1buff?1bu@
  00fb4	c7 84 24 48 06
	00 00 00 00 00
	00		 mov	 DWORD PTR $T4[esp+3632], OFFSET ??_C@_00CNPNBAHC@@
  00fbf	c7 84 24 4c 06
	00 00 26 01 00
	00		 mov	 DWORD PTR $T4[esp+3636], 294 ; 00000126H
  00fca	c6 84 24 50 06
	00 00 01	 mov	 BYTE PTR $T4[esp+3640], 1
  00fd2	c7 84 24 54 06
	00 00 00 00 00
	00		 mov	 DWORD PTR $T4[esp+3644], OFFSET ??_C@_0CM@OGEBCPDL@d?3?1ymir?5work?1effect?1etc?1buff?1bu@
  00fdd	c7 84 24 58 06
	00 00 00 00 00
	00		 mov	 DWORD PTR $T4[esp+3648], OFFSET ??_C@_00CNPNBAHC@@
  00fe8	c7 84 24 5c 06
	00 00 27 01 00
	00		 mov	 DWORD PTR $T4[esp+3652], 295 ; 00000127H
  00ff3	c6 84 24 60 06
	00 00 01	 mov	 BYTE PTR $T4[esp+3656], 1
  00ffb	c7 84 24 64 06
	00 00 00 00 00
	00		 mov	 DWORD PTR $T4[esp+3660], OFFSET ??_C@_0CM@PLEEBPID@d?3?1ymir?5work?1effect?1etc?1buff?1bu@
  01006	c7 84 24 68 06
	00 00 00 00 00
	00		 mov	 DWORD PTR $T4[esp+3664], OFFSET ??_C@_00CNPNBAHC@@
  01011	c7 84 24 6c 06
	00 00 28 01 00
	00		 mov	 DWORD PTR $T4[esp+3668], 296 ; 00000128H
  0101c	c6 84 24 70 06
	00 00 01	 mov	 BYTE PTR $T4[esp+3672], 1
  01024	c7 84 24 74 06
	00 00 00 00 00
	00		 mov	 DWORD PTR $T4[esp+3676], OFFSET ??_C@_0CM@LGIMLOII@d?3?1ymir?5work?1effect?1etc?1buff?1bu@
  0102f	c7 84 24 78 06
	00 00 00 00 00
	00		 mov	 DWORD PTR $T4[esp+3680], OFFSET ??_C@_00CNPNBAHC@@
  0103a	c7 84 24 7c 06
	00 00 2a 01 00
	00		 mov	 DWORD PTR $T4[esp+3684], 298 ; 0000012aH
  01045	c6 84 24 80 06
	00 00 01	 mov	 BYTE PTR $T4[esp+3688], 1
  0104d	c7 84 24 84 06
	00 00 00 00 00
	00		 mov	 DWORD PTR $T4[esp+3692], OFFSET ??_C@_0CM@HNNAGNCN@d?3?1ymir?5work?1effect?1etc?1buff?1bu@
  01058	c7 84 24 88 06
	00 00 00 00 00
	00		 mov	 DWORD PTR $T4[esp+3696], OFFSET ??_C@_00CNPNBAHC@@
  01063	c7 84 24 8c 06
	00 00 2b 01 00
	00		 mov	 DWORD PTR $T4[esp+3700], 299 ; 0000012bH
  0106e	c6 84 24 90 06
	00 00 01	 mov	 BYTE PTR $T4[esp+3704], 1
  01076	c7 84 24 94 06
	00 00 00 00 00
	00		 mov	 DWORD PTR $T4[esp+3708], OFFSET ??_C@_0CF@MCCGBFIH@d?3?1ymir?5work?1effect?1hit?1gwanton@
  01081	c7 84 24 98 06
	00 00 00 00 00
	00		 mov	 DWORD PTR $T4[esp+3712], OFFSET ??_C@_05BBIGKCLJ@Bip01@
  0108c	c7 84 24 9c 06
	00 00 12 00 00
	00		 mov	 DWORD PTR $T4[esp+3716], 18 ; 00000012H
  01097	c6 84 24 a0 06
	00 00 01	 mov	 BYTE PTR $T4[esp+3720], 1
  0109f	c7 84 24 a4 06
	00 00 00 00 00
	00		 mov	 DWORD PTR $T4[esp+3724], OFFSET ??_C@_0DM@LMNPCMLO@d?3?1ymir?5work?1effect?1etc?1firecra@
  010aa	c7 84 24 a8 06
	00 00 00 00 00
	00		 mov	 DWORD PTR $T4[esp+3728], OFFSET ??_C@_00CNPNBAHC@@
  010b5	c7 84 24 ac 06
	00 00 15 00 00
	00		 mov	 DWORD PTR $T4[esp+3732], 21 ; 00000015H
  010c0	c6 84 24 b0 06
	00 00 01	 mov	 BYTE PTR $T4[esp+3736], 1
  010c8	c7 84 24 b4 06
	00 00 00 00 00
	00		 mov	 DWORD PTR $T4[esp+3740], OFFSET ??_C@_0DA@OKHBFDHO@d?3?1ymir?5work?1effect?1etc?1firecra@
  010d3	c7 84 24 b8 06
	00 00 00 00 00
	00		 mov	 DWORD PTR $T4[esp+3744], OFFSET ??_C@_00CNPNBAHC@@
  010de	c7 84 24 bc 06
	00 00 16 00 00
	00		 mov	 DWORD PTR $T4[esp+3748], 22 ; 00000016H
  010e9	c6 84 24 c0 06
	00 00 01	 mov	 BYTE PTR $T4[esp+3752], 1
  010f1	c7 84 24 c4 06
	00 00 00 00 00
	00		 mov	 DWORD PTR $T4[esp+3756], OFFSET ??_C@_0CP@NMKNLCNB@d?3?1ymir?5work?1effect?1etc?1click?1c@
  010fc	c7 84 24 c8 06
	00 00 00 00 00
	00		 mov	 DWORD PTR $T4[esp+3760], OFFSET ??_C@_00CNPNBAHC@@
  01107	c7 84 24 cc 06
	00 00 dd 00 00
	00		 mov	 DWORD PTR $T4[esp+3764], 221 ; 000000ddH
  01112	c6 84 24 d0 06
	00 00 01	 mov	 BYTE PTR $T4[esp+3768], 1
  0111a	c7 84 24 d4 06
	00 00 00 00 00
	00		 mov	 DWORD PTR $T4[esp+3772], OFFSET ??_C@_0DE@OKJDPEOH@d?3?1ymir?5work?1effect?1etc?1click?1c@
  01125	c7 84 24 d8 06
	00 00 00 00 00
	00		 mov	 DWORD PTR $T4[esp+3776], OFFSET ??_C@_00CNPNBAHC@@
  01130	c7 84 24 dc 06
	00 00 de 00 00
	00		 mov	 DWORD PTR $T4[esp+3780], 222 ; 000000deH
  0113b	c6 84 24 e0 06
	00 00 01	 mov	 BYTE PTR $T4[esp+3784], 1
  01143	c7 84 24 e4 06
	00 00 00 00 00
	00		 mov	 DWORD PTR $T4[esp+3788], OFFSET ??_C@_0CG@OFJICOGE@d?3?1ymir?5work?1effect?1etc?1stun?1st@
  0114e	c7 84 24 e8 06
	00 00 00 00 00
	00		 mov	 DWORD PTR $T4[esp+3792], OFFSET ??_C@_0L@GHIHOBPC@Bip01?5Head@
  01159	c7 84 24 ec 06
	00 00 01 00 00
	00		 mov	 DWORD PTR $T4[esp+3796], 1
  01164	c6 84 24 f0 06
	00 00 01	 mov	 BYTE PTR $T4[esp+3800], 1
  0116c	c7 84 24 f4 06
	00 00 00 00 00
	00		 mov	 DWORD PTR $T4[esp+3804], OFFSET ??_C@_0CF@IGNMMICG@d?3?1ymir?5work?1effect?1hit?1critica@
  01177	c7 84 24 f8 06
	00 00 00 00 00
	00		 mov	 DWORD PTR $T4[esp+3808], OFFSET ??_C@_0N@NFGLJLMH@Bip01?5R?5Hand@
  01182	c7 84 24 fc 06
	00 00 11 00 00
	00		 mov	 DWORD PTR $T4[esp+3812], 17 ; 00000011H
  0118d	c6 84 24 00 07
	00 00 01	 mov	 BYTE PTR $T4[esp+3816], 1
  01195	c7 84 24 04 07
	00 00 00 00 00
	00		 mov	 DWORD PTR $T4[esp+3820], OFFSET ??_C@_0DC@ELCGDOJC@d?3?1ymir?5work?1effect?1affect?1dama@
  011a0	c7 84 24 08 07
	00 00 00 00 00
	00		 mov	 DWORD PTR $T4[esp+3824], OFFSET ??_C@_00CNPNBAHC@@
  011ab	c7 84 24 0c 07
	00 00 15 01 00
	00		 mov	 DWORD PTR $T4[esp+3828], 277 ; 00000115H
  011b6	c6 84 24 10 07
	00 00 01	 mov	 BYTE PTR $T4[esp+3832], 1
  011be	c7 84 24 14 07
	00 00 00 00 00
	00		 mov	 DWORD PTR $T4[esp+3836], OFFSET ??_C@_0DF@NHKBGLCB@d?3?1ymir?5work?1effect?1affect?1dama@
  011c9	c7 84 24 18 07
	00 00 00 00 00
	00		 mov	 DWORD PTR $T4[esp+3840], OFFSET ??_C@_00CNPNBAHC@@
  011d4	c7 84 24 1c 07
	00 00 16 01 00
	00		 mov	 DWORD PTR $T4[esp+3844], 278 ; 00000116H
  011df	c6 84 24 20 07
	00 00 01	 mov	 BYTE PTR $T4[esp+3848], 1
  011e7	c7 84 24 24 07
	00 00 00 00 00
	00		 mov	 DWORD PTR $T4[esp+3852], OFFSET ??_C@_0DC@PNDLOGJ@d?3?1ymir?5work?1effect?1affect?1dama@
  011f2	c7 84 24 28 07
	00 00 00 00 00
	00		 mov	 DWORD PTR $T4[esp+3856], OFFSET ??_C@_00CNPNBAHC@@
  011fd	c7 84 24 2c 07
	00 00 17 01 00
	00		 mov	 DWORD PTR $T4[esp+3860], 279 ; 00000117H
  01208	c6 84 24 30 07
	00 00 01	 mov	 BYTE PTR $T4[esp+3864], 1
  01210	c7 84 24 34 07
	00 00 00 00 00
	00		 mov	 DWORD PTR $T4[esp+3868], OFFSET ??_C@_0DE@OCLPDINL@d?3?1ymir?5work?1effect?1affect?1dama@
  0121b	c7 84 24 38 07
	00 00 00 00 00
	00		 mov	 DWORD PTR $T4[esp+3872], OFFSET ??_C@_00CNPNBAHC@@
  01226	c7 84 24 3c 07
	00 00 18 01 00
	00		 mov	 DWORD PTR $T4[esp+3876], 280 ; 00000118H
  01231	c6 84 24 40 07
	00 00 01	 mov	 BYTE PTR $T4[esp+3880], 1
  01239	c7 84 24 44 07
	00 00 00 00 00
	00		 mov	 DWORD PTR $T4[esp+3884], OFFSET ??_C@_0DC@DFGPOAGN@d?3?1ymir?5work?1effect?1affect?1dama@
  01244	c7 84 24 48 07
	00 00 00 00 00
	00		 mov	 DWORD PTR $T4[esp+3888], OFFSET ??_C@_00CNPNBAHC@@
  0124f	c7 84 24 4c 07
	00 00 19 01 00
	00		 mov	 DWORD PTR $T4[esp+3892], 281 ; 00000119H
  0125a	c6 84 24 50 07
	00 00 01	 mov	 BYTE PTR $T4[esp+3896], 1
  01262	c7 84 24 54 07
	00 00 00 00 00
	00		 mov	 DWORD PTR $T4[esp+3900], OFFSET ??_C@_0DA@GCPGFOFF@d?3?1ymir?5work?1effect?1affect?1dama@
  0126d	c7 84 24 58 07
	00 00 00 00 00
	00		 mov	 DWORD PTR $T4[esp+3904], OFFSET ??_C@_00CNPNBAHC@@
  01278	c7 84 24 5c 07
	00 00 1a 01 00
	00		 mov	 DWORD PTR $T4[esp+3908], 282 ; 0000011aH
  01283	c6 84 24 60 07
	00 00 01	 mov	 BYTE PTR $T4[esp+3912], 1
  0128b	c7 84 24 64 07
	00 00 00 00 00
	00		 mov	 DWORD PTR $T4[esp+3916], OFFSET ??_C@_0DH@BALHLFPA@d?3?1ymir?5work?1effect?1affect?1dama@
  01296	c7 84 24 68 07
	00 00 00 00 00
	00		 mov	 DWORD PTR $T4[esp+3920], OFFSET ??_C@_00CNPNBAHC@@
  012a1	c7 84 24 6c 07
	00 00 1b 01 00
	00		 mov	 DWORD PTR $T4[esp+3924], 283 ; 0000011bH
  012ac	c6 84 24 70 07
	00 00 01	 mov	 BYTE PTR $T4[esp+3928], 1
  012b4	c7 84 24 74 07
	00 00 00 00 00
	00		 mov	 DWORD PTR $T4[esp+3932], OFFSET ??_C@_0CM@KFAIMBLD@d?3?1ymir?5work?1effect?1hit?1percent@
  012bf	c7 84 24 78 07
	00 00 00 00 00
	00		 mov	 DWORD PTR $T4[esp+3936], OFFSET ??_C@_00CNPNBAHC@@
  012ca	c7 84 24 7c 07
	00 00 20 01 00
	00		 mov	 DWORD PTR $T4[esp+3940], 288 ; 00000120H
  012d5	c6 84 24 80 07
	00 00 01	 mov	 BYTE PTR $T4[esp+3944], 1
  012dd	c7 84 24 84 07
	00 00 00 00 00
	00		 mov	 DWORD PTR $T4[esp+3948], OFFSET ??_C@_0CM@CDJMLDBN@d?3?1ymir?5work?1effect?1hit?1percent@
  012e8	c7 84 24 88 07
	00 00 00 00 00
	00		 mov	 DWORD PTR $T4[esp+3952], OFFSET ??_C@_00CNPNBAHC@@
  012f3	c7 84 24 8c 07
	00 00 21 01 00
	00		 mov	 DWORD PTR $T4[esp+3956], 289 ; 00000121H
  012fe	c6 84 24 90 07
	00 00 01	 mov	 BYTE PTR $T4[esp+3960], 1
  01306	c7 84 24 94 07
	00 00 00 00 00
	00		 mov	 DWORD PTR $T4[esp+3964], OFFSET ??_C@_0CM@OIMAGALI@d?3?1ymir?5work?1effect?1hit?1percent@
  01311	c7 84 24 98 07
	00 00 00 00 00
	00		 mov	 DWORD PTR $T4[esp+3968], OFFSET ??_C@_00CNPNBAHC@@
  0131c	c7 84 24 9c 07
	00 00 22 01 00
	00		 mov	 DWORD PTR $T4[esp+3972], 290 ; 00000122H
  01327	c6 84 24 a0 07
	00 00 01	 mov	 BYTE PTR $T4[esp+3976], 1
  0132f	c7 84 24 a4 07
	00 00 00 00 00
	00		 mov	 DWORD PTR $T4[esp+3980], OFFSET ??_C@_0DL@JAMGHMDJ@d?3?1ymir?5work?1effect?1battlepass?1@
; File C:\Anka2Project\Anka2Project\Source\Binary\source\UserInterface\PythonPlayerSettingsModule.h

; 249  : {

  0133a	8d 04 24	 lea	 eax, DWORD PTR $T742[esp+2040]
; File C:\Program Files\Microsoft Visual Studio\2022\Community\VC\Tools\MSVC\14.44.35207\include\tuple

; 132  :     constexpr _Tuple_val(_Other&& _Arg) : _Val(_STD forward<_Other>(_Arg)) {}

  0133d	c7 84 24 a8 07
	00 00 00 00 00
	00		 mov	 DWORD PTR $T4[esp+3984], OFFSET ??_C@_00CNPNBAHC@@
; File C:\Anka2Project\Anka2Project\Source\Binary\source\UserInterface\PythonPlayerSettingsModule.h

; 249  : {

  01348	50		 push	 eax
  01349	68 00 00 00 00	 push	 OFFSET ??_C@_0DO@BLNOCHAN@d?3?1ymir?5work?1effect?1battlepass?1@
  0134e	68 00 00 00 00	 push	 OFFSET ??_C@_00CNPNBAHC@@
  01353	8d 44 24 10	 lea	 eax, DWORD PTR $T741[esp+2052]
; File C:\Program Files\Microsoft Visual Studio\2022\Community\VC\Tools\MSVC\14.44.35207\include\tuple

; 132  :     constexpr _Tuple_val(_Other&& _Arg) : _Val(_STD forward<_Other>(_Arg)) {}

  01357	c7 84 24 b8 07
	00 00 2d 01 00
	00		 mov	 DWORD PTR $T4[esp+4000], 301 ; 0000012dH
; File C:\Anka2Project\Anka2Project\Source\Binary\source\UserInterface\PythonPlayerSettingsModule.h

; 249  : {

  01362	50		 push	 eax
  01363	8d 8c 24 d0 07
	00 00		 lea	 ecx, DWORD PTR $T4[esp+4024]
; File C:\Program Files\Microsoft Visual Studio\2022\Community\VC\Tools\MSVC\14.44.35207\include\tuple

; 132  :     constexpr _Tuple_val(_Other&& _Arg) : _Val(_STD forward<_Other>(_Arg)) {}

  0136a	c6 84 24 c0 07
	00 00 01	 mov	 BYTE PTR $T4[esp+4008], 1
  01372	c7 84 24 c4 07
	00 00 00 00 00
	00		 mov	 DWORD PTR $T4[esp+4012], OFFSET ??_C@_0DM@MHMMIOAK@d?3?1ymir?5work?1effect?1battlepass?1@
  0137d	c7 84 24 c8 07
	00 00 00 00 00
	00		 mov	 DWORD PTR $T4[esp+4016], OFFSET ??_C@_00CNPNBAHC@@
  01388	c7 84 24 cc 07
	00 00 2e 01 00
	00		 mov	 DWORD PTR $T4[esp+4020], 302 ; 0000012eH
; File C:\Anka2Project\Anka2Project\Source\Binary\source\UserInterface\PythonPlayerSettingsModule.h

; 249  : {

  01393	c7 44 24 14 2f
	01 00 00	 mov	 DWORD PTR $T741[esp+2056], 303 ; 0000012fH
  0139b	c6 44 24 10 01	 mov	 BYTE PTR $T742[esp+2056], 1
  013a0	e8 00 00 00 00	 call	 ??$?0W4<unnamed-enum-EFFECT_DUST>@CInstanceBase@@AAY00$$CBDAAY0DO@$$CBD_N$0A@@?$tuple@IPBDPBD_N@std@@QAE@$$QAW4<unnamed-enum-EFFECT_DUST>@CInstanceBase@@AAY00$$CBDAAY0DO@$$CBD$$QA_N@Z ; std::tuple<unsigned int,char const *,char const *,bool>::tuple<unsigned int,char const *,char const *,bool><enum CInstanceBase::<unnamed-enum-EFFECT_DUST>,char const (&)[1],char const (&)[62],bool,0>
  013a5	8d 44 24 01	 lea	 eax, DWORD PTR $T744[esp+2040]
  013a9	c7 44 24 08 30
	01 00 00	 mov	 DWORD PTR $T743[esp+2040], 304 ; 00000130H
  013b1	50		 push	 eax
  013b2	68 00 00 00 00	 push	 OFFSET ??_C@_0DP@PLKMBGLC@d?3?1ymir?5work?1effect?1battlepass?1@
  013b7	68 00 00 00 00	 push	 OFFSET ??_C@_00CNPNBAHC@@
  013bc	8d 44 24 14	 lea	 eax, DWORD PTR $T743[esp+2052]
  013c0	c6 44 24 0d 01	 mov	 BYTE PTR $T744[esp+2052], 1
  013c5	50		 push	 eax
  013c6	8d 8c 24 e0 07
	00 00		 lea	 ecx, DWORD PTR $T4[esp+4040]
  013cd	e8 00 00 00 00	 call	 ??$?0W4<unnamed-enum-EFFECT_DUST>@CInstanceBase@@AAY00$$CBDAAY0DP@$$CBD_N$0A@@?$tuple@IPBDPBD_N@std@@QAE@$$QAW4<unnamed-enum-EFFECT_DUST>@CInstanceBase@@AAY00$$CBDAAY0DP@$$CBD$$QA_N@Z ; std::tuple<unsigned int,char const *,char const *,bool>::tuple<unsigned int,char const *,char const *,bool><enum CInstanceBase::<unnamed-enum-EFFECT_DUST>,char const (&)[1],char const (&)[63],bool,0>
  013d2	8d 44 24 02	 lea	 eax, DWORD PTR $T746[esp+2040]
  013d6	c7 44 24 0c 31
	01 00 00	 mov	 DWORD PTR $T745[esp+2040], 305 ; 00000131H
  013de	50		 push	 eax
  013df	68 00 00 00 00	 push	 OFFSET ??_C@_0CM@GHEHNBJK@d?3?1ymir?5work?1effect?1hit?1gyeongg@
  013e4	68 00 00 00 00	 push	 OFFSET ??_C@_00CNPNBAHC@@
  013e9	8d 44 24 18	 lea	 eax, DWORD PTR $T745[esp+2052]
  013ed	c6 44 24 0e 01	 mov	 BYTE PTR $T746[esp+2052], 1
  013f2	50		 push	 eax
  013f3	8d 8c 24 f0 07
	00 00		 lea	 ecx, DWORD PTR $T4[esp+4056]
  013fa	e8 00 00 00 00	 call	 ??$?0W4<unnamed-enum-EFFECT_DUST>@CInstanceBase@@AAY00$$CBDAAY0CM@$$CBD_N$0A@@?$tuple@IPBDPBD_N@std@@QAE@$$QAW4<unnamed-enum-EFFECT_DUST>@CInstanceBase@@AAY00$$CBDAAY0CM@$$CBD$$QA_N@Z ; std::tuple<unsigned int,char const *,char const *,bool>::tuple<unsigned int,char const *,char const *,bool><enum CInstanceBase::<unnamed-enum-EFFECT_DUST>,char const (&)[1],char const (&)[44],bool,0>
  013ff	8d 44 24 03	 lea	 eax, DWORD PTR $T1[esp+2040]
  01403	50		 push	 eax
; File C:\Program Files\Microsoft Visual Studio\2022\Community\VC\Tools\MSVC\14.44.35207\include\initializer_list

; 34   :         : _First(_First_arg), _Last(_Last_arg) {}

  01404	8d 8c 24 f4 07
	00 00		 lea	 ecx, DWORD PTR $T4[esp+4060]
; File C:\Anka2Project\Anka2Project\Source\Binary\source\UserInterface\PythonPlayerSettingsModule.h

; 249  : {

  0140b	51		 push	 ecx
; File C:\Program Files\Microsoft Visual Studio\2022\Community\VC\Tools\MSVC\14.44.35207\include\initializer_list

; 34   :         : _First(_First_arg), _Last(_Last_arg) {}

  0140c	8d 54 24 18	 lea	 edx, DWORD PTR $T4[esp+2048]
; File C:\Anka2Project\Anka2Project\Source\Binary\source\UserInterface\PythonPlayerSettingsModule.h

; 249  : {

  01410	b9 00 00 00 00	 mov	 ecx, OFFSET ?vecEffectList@@3V?$vector@V?$tuple@IPBDPBD_N@std@@V?$allocator@V?$tuple@IPBDPBD_N@std@@@2@@std@@B
  01415	52		 push	 edx
  01416	e8 00 00 00 00	 call	 ??0?$vector@V?$tuple@IPBDPBD_N@std@@V?$allocator@V?$tuple@IPBDPBD_N@std@@@2@@std@@QAE@V?$initializer_list@V?$tuple@IPBDPBD_N@std@@@1@ABV?$allocator@V?$tuple@IPBDPBD_N@std@@@1@@Z ; std::vector<std::tuple<unsigned int,char const *,char const *,bool>,std::allocator<std::tuple<unsigned int,char const *,char const *,bool> > >::vector<std::tuple<unsigned int,char const *,char const *,bool>,std::allocator<std::tuple<unsigned int,char const *,char const *,bool> > >
  0141b	68 00 00 00 00	 push	 OFFSET ??__FvecEffectList@@YAXXZ ; `dynamic atexit destructor for 'vecEffectList''
  01420	e8 00 00 00 00	 call	 _atexit
  01425	8b 8c 24 f8 07
	00 00		 mov	 ecx, DWORD PTR __$ArrayPad$[esp+2044]
  0142c	83 c4 04	 add	 esp, 4
  0142f	33 cc		 xor	 ecx, esp
  01431	e8 00 00 00 00	 call	 @__security_check_cookie@4

; 248  : static const std::vector<TEffectList> vecEffectList =

  01436	8b e5		 mov	 esp, ebp
  01438	5d		 pop	 ebp
  01439	c3		 ret	 0
??__EvecEffectList@@YAXXZ ENDP				; `dynamic initializer for 'vecEffectList''
text$di	ENDS
; Function compile flags: /Ogtp
; File C:\Program Files\Microsoft Visual Studio\2022\Community\VC\Tools\MSVC\14.44.35207\include\vector
;	COMDAT ??__FvecEffectList@@YAXXZ
text$yd	SEGMENT
??__FvecEffectList@@YAXXZ PROC				; `dynamic atexit destructor for 'vecEffectList'', COMDAT

; 830  :         _Tidy();

  00000	b9 00 00 00 00	 mov	 ecx, OFFSET ?vecEffectList@@3V?$vector@V?$tuple@IPBDPBD_N@std@@V?$allocator@V?$tuple@IPBDPBD_N@std@@@2@@std@@B
  00005	e9 00 00 00 00	 jmp	 ?_Tidy@?$vector@V?$tuple@IPBDPBD_N@std@@V?$allocator@V?$tuple@IPBDPBD_N@std@@@2@@std@@AAEXXZ ; std::vector<std::tuple<unsigned int,char const *,char const *,bool>,std::allocator<std::tuple<unsigned int,char const *,char const *,bool> > >::_Tidy
??__FvecEffectList@@YAXXZ ENDP				; `dynamic atexit destructor for 'vecEffectList''
text$yd	ENDS
; Function compile flags: /Ogtp
; File C:\Anka2Project\Anka2Project\Source\Binary\source\UserInterface\PythonPlayerSettingsModule.h
; File C:\Program Files\Microsoft Visual Studio\2022\Community\VC\Tools\MSVC\14.44.35207\include\initializer_list
; File C:\Program Files\Microsoft Visual Studio\2022\Community\VC\Tools\MSVC\14.44.35207\include\utility
; File C:\Program Files\Microsoft Visual Studio\2022\Community\VC\Tools\MSVC\14.44.35207\include\initializer_list
; File C:\Program Files\Microsoft Visual Studio\2022\Community\VC\Tools\MSVC\14.44.35207\include\utility
; File C:\Anka2Project\Anka2Project\Source\Binary\source\UserInterface\PythonPlayerSettingsModule.h
; File C:\Program Files\Microsoft Visual Studio\2022\Community\VC\Tools\MSVC\14.44.35207\include\utility
; File C:\Anka2Project\Anka2Project\Source\Binary\source\UserInterface\PythonPlayerSettingsModule.h
;	COMDAT ??__EcharacterNameColors@@YAXXZ
text$di	SEGMENT
$T3 = -64						; size = 60
__$ArrayPad$ = -4					; size = 4
??__EcharacterNameColors@@YAXXZ PROC			; `dynamic initializer for 'characterNameColors'', COMDAT

; 523  : };

  00000	55		 push	 ebp
  00001	8b ec		 mov	 ebp, esp
  00003	83 e4 f8	 and	 esp, -8			; fffffff8H
  00006	83 ec 40	 sub	 esp, 64			; 00000040H
  00009	a1 00 00 00 00	 mov	 eax, DWORD PTR ___security_cookie
  0000e	33 c4		 xor	 eax, esp
  00010	89 44 24 3c	 mov	 DWORD PTR __$ArrayPad$[esp+64], eax
; File C:\Program Files\Microsoft Visual Studio\2022\Community\VC\Tools\MSVC\14.44.35207\include\initializer_list

; 34   :         : _First(_First_arg), _Last(_Last_arg) {}

  00014	8d 44 24 3c	 lea	 eax, DWORD PTR $T3[esp+124]
; File C:\Program Files\Microsoft Visual Studio\2022\Community\VC\Tools\MSVC\14.44.35207\include\utility

; 263  :         : first(_Val1), second(_Val2) {}

  00018	c7 04 24 09 ff
	d7 4c		 mov	 DWORD PTR $T3[esp+64], 1289223945 ; 4cd7ff09H
; File C:\Program Files\Microsoft Visual Studio\2022\Community\VC\Tools\MSVC\14.44.35207\include\initializer_list

; 34   :         : _First(_First_arg), _Last(_Last_arg) {}

  0001f	8d 0c 24	 lea	 ecx, DWORD PTR $T3[esp+64]
; File C:\Program Files\Microsoft Visual Studio\2022\Community\VC\Tools\MSVC\14.44.35207\include\utility

; 263  :         : first(_Val1), second(_Val2) {}

  00022	c7 44 24 04 08
	7a e7 5d	 mov	 DWORD PTR $T3[esp+68], 1575451144 ; 5de77a08H
; File C:\Anka2Project\Anka2Project\Source\Binary\source\UserInterface\PythonPlayerSettingsModule.h

; 503  : {

  0002a	50		 push	 eax
  0002b	51		 push	 ecx
  0002c	b9 00 00 00 00	 mov	 ecx, OFFSET ?characterNameColors@@3V?$map@EV?$array@E$02@std@@U?$less@E@2@V?$allocator@U?$pair@$$CBEV?$array@E$02@std@@@std@@@2@@std@@B
; File C:\Program Files\Microsoft Visual Studio\2022\Community\VC\Tools\MSVC\14.44.35207\include\utility

; 263  :         : first(_Val1), second(_Val2) {}

  00031	c7 44 24 10 07
	eb 16 09	 mov	 DWORD PTR $T3[esp+80], 152496903 ; 0916eb07H
  00039	c7 44 24 14 17
	ee 36 df	 mov	 DWORD PTR $T3[esp+84], -550048233 ; df36ee17H
  00041	c7 44 24 18 16
	b4 64 00	 mov	 DWORD PTR $T3[esp+88], 6599702 ; 0064b416H
  00049	c7 44 24 1c 18
	80 c0 ff	 mov	 DWORD PTR $T3[esp+92], -4161512 ; ffc08018H
  00051	c7 44 24 20 19
	88 da f1	 mov	 DWORD PTR $T3[esp+96], -237336551 ; f1da8819H
  00059	c7 44 24 24 1a
	ff ff ff	 mov	 DWORD PTR $T3[esp+100], -230 ; ffffff1aH
  00061	c7 44 24 28 0e
	eb 16 09	 mov	 DWORD PTR $T3[esp+104], 152496910 ; 0916eb0eH
  00069	c7 44 24 2c 0f
	7a e7 5d	 mov	 DWORD PTR $T3[esp+108], 1575451151 ; 5de77a0fH
  00071	c7 44 24 30 11
	9d 00 00	 mov	 DWORD PTR $T3[esp+112], 40209 ; 00009d11H
  00079	c7 44 24 34 12
	de a0 2f	 mov	 DWORD PTR $T3[esp+116], 799071762 ; 2fa0de12H
  00081	c7 44 24 38 13
	17 1e 8a	 mov	 DWORD PTR $T3[esp+120], -1977739501 ; 8a1e1713H
  00089	c7 44 24 3c 1b
	f0 ff ff	 mov	 DWORD PTR $T3[esp+124], -4069 ; fffff01bH
  00091	c7 44 24 40 1c
	ff d7 4c	 mov	 DWORD PTR $T3[esp+128], 1289223964 ; 4cd7ff1cH
; File C:\Anka2Project\Anka2Project\Source\Binary\source\UserInterface\PythonPlayerSettingsModule.h

; 503  : {

  00099	e8 00 00 00 00	 call	 ??0?$map@EV?$array@E$02@std@@U?$less@E@2@V?$allocator@U?$pair@$$CBEV?$array@E$02@std@@@std@@@2@@std@@QAE@V?$initializer_list@U?$pair@$$CBEV?$array@E$02@std@@@std@@@1@@Z ; std::map<unsigned char,std::array<unsigned char,3>,std::less<unsigned char>,std::allocator<std::pair<unsigned char const ,std::array<unsigned char,3> > > >::map<unsigned char,std::array<unsigned char,3>,std::less<unsigned char>,std::allocator<std::pair<unsigned char const ,std::array<unsigned char,3> > > >
  0009e	68 00 00 00 00	 push	 OFFSET ??__FcharacterNameColors@@YAXXZ ; `dynamic atexit destructor for 'characterNameColors''
  000a3	e8 00 00 00 00	 call	 _atexit
  000a8	8b 4c 24 40	 mov	 ecx, DWORD PTR __$ArrayPad$[esp+68]
  000ac	83 c4 04	 add	 esp, 4
  000af	33 cc		 xor	 ecx, esp
  000b1	e8 00 00 00 00	 call	 @__security_check_cookie@4

; 502  : static const TCharacterColorMap characterNameColors

  000b6	8b e5		 mov	 esp, ebp
  000b8	5d		 pop	 ebp
  000b9	c3		 ret	 0
??__EcharacterNameColors@@YAXXZ ENDP			; `dynamic initializer for 'characterNameColors''
text$di	ENDS
; Function compile flags: /Ogtp
;	COMDAT ??__FcharacterNameColors@@YAXXZ
text$yd	SEGMENT
??__FcharacterNameColors@@YAXXZ PROC			; `dynamic atexit destructor for 'characterNameColors'', COMDAT
  00000	b9 00 00 00 00	 mov	 ecx, OFFSET ?characterNameColors@@3V?$map@EV?$array@E$02@std@@U?$less@E@2@V?$allocator@U?$pair@$$CBEV?$array@E$02@std@@@std@@@2@@std@@B
  00005	e9 00 00 00 00	 jmp	 ??1?$_Tree@V?$_Tmap_traits@EV?$array@E$02@std@@U?$less@E@2@V?$allocator@U?$pair@$$CBEV?$array@E$02@std@@@std@@@2@$0A@@std@@@std@@QAE@XZ ; std::_Tree<std::_Tmap_traits<unsigned char,std::array<unsigned char,3>,std::less<unsigned char>,std::allocator<std::pair<unsigned char const ,std::array<unsigned char,3> > >,0> >::~_Tree<std::_Tmap_traits<unsigned char,std::array<unsigned char,3>,std::less<unsigned char>,std::allocator<std::pair<unsigned char const ,std::array<unsigned char,3> > >,0> >
??__FcharacterNameColors@@YAXXZ ENDP			; `dynamic atexit destructor for 'characterNameColors''
text$yd	ENDS
; Function compile flags: /Ogtp
; File C:\Anka2Project\Anka2Project\Source\Binary\source\UserInterface\PythonPlayerSettingsModule.h
; File C:\Program Files\Microsoft Visual Studio\2022\Community\VC\Tools\MSVC\14.44.35207\include\initializer_list
; File C:\Program Files\Microsoft Visual Studio\2022\Community\VC\Tools\MSVC\14.44.35207\include\utility
; File C:\Program Files\Microsoft Visual Studio\2022\Community\VC\Tools\MSVC\14.44.35207\include\initializer_list
; File C:\Program Files\Microsoft Visual Studio\2022\Community\VC\Tools\MSVC\14.44.35207\include\utility
; File C:\Anka2Project\Anka2Project\Source\Binary\source\UserInterface\PythonPlayerSettingsModule.h
; File C:\Program Files\Microsoft Visual Studio\2022\Community\VC\Tools\MSVC\14.44.35207\include\utility
; File C:\Anka2Project\Anka2Project\Source\Binary\source\UserInterface\PythonPlayerSettingsModule.h
;	COMDAT ??__EcharacterTitleColors@@YAXXZ
text$di	SEGMENT
$T3 = -40						; size = 36
__$ArrayPad$ = -4					; size = 4
??__EcharacterTitleColors@@YAXXZ PROC			; `dynamic initializer for 'characterTitleColors'', COMDAT

; 536  : };

  00000	55		 push	 ebp
  00001	8b ec		 mov	 ebp, esp
  00003	83 e4 f8	 and	 esp, -8			; fffffff8H
  00006	83 ec 28	 sub	 esp, 40			; 00000028H
  00009	a1 00 00 00 00	 mov	 eax, DWORD PTR ___security_cookie
  0000e	33 c4		 xor	 eax, esp
  00010	89 44 24 24	 mov	 DWORD PTR __$ArrayPad$[esp+40], eax
; File C:\Program Files\Microsoft Visual Studio\2022\Community\VC\Tools\MSVC\14.44.35207\include\initializer_list

; 34   :         : _First(_First_arg), _Last(_Last_arg) {}

  00014	8d 44 24 24	 lea	 eax, DWORD PTR $T3[esp+76]
; File C:\Program Files\Microsoft Visual Studio\2022\Community\VC\Tools\MSVC\14.44.35207\include\utility

; 263  :         : first(_Val1), second(_Val2) {}

  00018	c7 04 24 00 00
	cc ff		 mov	 DWORD PTR $T3[esp+40], -3407872 ; ffcc0000H
; File C:\Program Files\Microsoft Visual Studio\2022\Community\VC\Tools\MSVC\14.44.35207\include\initializer_list

; 34   :         : _First(_First_arg), _Last(_Last_arg) {}

  0001f	8d 0c 24	 lea	 ecx, DWORD PTR $T3[esp+40]
; File C:\Program Files\Microsoft Visual Studio\2022\Community\VC\Tools\MSVC\14.44.35207\include\utility

; 263  :         : first(_Val1), second(_Val2) {}

  00022	c7 44 24 04 01
	00 90 ff	 mov	 DWORD PTR $T3[esp+44], -7340031 ; ff900001H
; File C:\Anka2Project\Anka2Project\Source\Binary\source\UserInterface\PythonPlayerSettingsModule.h

; 526  : {

  0002a	50		 push	 eax
  0002b	51		 push	 ecx
  0002c	b9 00 00 00 00	 mov	 ecx, OFFSET ?characterTitleColors@@3V?$map@EV?$array@E$02@std@@U?$less@E@2@V?$allocator@U?$pair@$$CBEV?$array@E$02@std@@@std@@@2@@std@@B
; File C:\Program Files\Microsoft Visual Studio\2022\Community\VC\Tools\MSVC\14.44.35207\include\utility

; 263  :         : first(_Val1), second(_Val2) {}

  00031	c7 44 24 10 02
	5c 6e ff	 mov	 DWORD PTR $T3[esp+56], -9544702 ; ff6e5c02H
  00039	c7 44 24 14 03
	9b 9b ff	 mov	 DWORD PTR $T3[esp+60], -6579453 ; ff9b9b03H
  00041	c7 44 24 18 04
	ff ff ff	 mov	 DWORD PTR $T3[esp+64], -252 ; ffffff04H
  00049	c7 44 24 1c 05
	cf 75 00	 mov	 DWORD PTR $T3[esp+68], 7720709 ; 0075cf05H
  00051	c7 44 24 20 06
	eb 53 00	 mov	 DWORD PTR $T3[esp+72], 5499654 ; 0053eb06H
  00059	c7 44 24 24 07
	e3 00 00	 mov	 DWORD PTR $T3[esp+76], 58119 ; 0000e307H
  00061	c7 44 24 28 08
	ff 00 00	 mov	 DWORD PTR $T3[esp+80], 65288 ; 0000ff08H
; File C:\Anka2Project\Anka2Project\Source\Binary\source\UserInterface\PythonPlayerSettingsModule.h

; 526  : {

  00069	e8 00 00 00 00	 call	 ??0?$map@EV?$array@E$02@std@@U?$less@E@2@V?$allocator@U?$pair@$$CBEV?$array@E$02@std@@@std@@@2@@std@@QAE@V?$initializer_list@U?$pair@$$CBEV?$array@E$02@std@@@std@@@1@@Z ; std::map<unsigned char,std::array<unsigned char,3>,std::less<unsigned char>,std::allocator<std::pair<unsigned char const ,std::array<unsigned char,3> > > >::map<unsigned char,std::array<unsigned char,3>,std::less<unsigned char>,std::allocator<std::pair<unsigned char const ,std::array<unsigned char,3> > > >
  0006e	68 00 00 00 00	 push	 OFFSET ??__FcharacterTitleColors@@YAXXZ ; `dynamic atexit destructor for 'characterTitleColors''
  00073	e8 00 00 00 00	 call	 _atexit
  00078	8b 4c 24 28	 mov	 ecx, DWORD PTR __$ArrayPad$[esp+44]
  0007c	83 c4 04	 add	 esp, 4
  0007f	33 cc		 xor	 ecx, esp
  00081	e8 00 00 00 00	 call	 @__security_check_cookie@4

; 525  : static const TCharacterColorMap characterTitleColors

  00086	8b e5		 mov	 esp, ebp
  00088	5d		 pop	 ebp
  00089	c3		 ret	 0
??__EcharacterTitleColors@@YAXXZ ENDP			; `dynamic initializer for 'characterTitleColors''
text$di	ENDS
; Function compile flags: /Ogtp
;	COMDAT ??__FcharacterTitleColors@@YAXXZ
text$yd	SEGMENT
??__FcharacterTitleColors@@YAXXZ PROC			; `dynamic atexit destructor for 'characterTitleColors'', COMDAT
  00000	b9 00 00 00 00	 mov	 ecx, OFFSET ?characterTitleColors@@3V?$map@EV?$array@E$02@std@@U?$less@E@2@V?$allocator@U?$pair@$$CBEV?$array@E$02@std@@@std@@@2@@std@@B
  00005	e9 00 00 00 00	 jmp	 ??1?$_Tree@V?$_Tmap_traits@EV?$array@E$02@std@@U?$less@E@2@V?$allocator@U?$pair@$$CBEV?$array@E$02@std@@@std@@@2@$0A@@std@@@std@@QAE@XZ ; std::_Tree<std::_Tmap_traits<unsigned char,std::array<unsigned char,3>,std::less<unsigned char>,std::allocator<std::pair<unsigned char const ,std::array<unsigned char,3> > >,0> >::~_Tree<std::_Tmap_traits<unsigned char,std::array<unsigned char,3>,std::less<unsigned char>,std::allocator<std::pair<unsigned char const ,std::array<unsigned char,3> > >,0> >
??__FcharacterTitleColors@@YAXXZ ENDP			; `dynamic atexit destructor for 'characterTitleColors''
text$yd	ENDS
; Function compile flags: /Ogtp
; File C:\Anka2Project\Anka2Project\Source\Binary\source\UserInterface\PythonPlayerSettingsModule.h
; File C:\Program Files\Microsoft Visual Studio\2022\Community\VC\Tools\MSVC\14.44.35207\include\initializer_list
; File C:\Program Files\Microsoft Visual Studio\2022\Community\VC\Tools\MSVC\14.44.35207\include\utility
; File C:\Program Files\Microsoft Visual Studio\2022\Community\VC\Tools\MSVC\14.44.35207\include\initializer_list
; File C:\Program Files\Microsoft Visual Studio\2022\Community\VC\Tools\MSVC\14.44.35207\include\utility
; File C:\Anka2Project\Anka2Project\Source\Binary\source\UserInterface\PythonPlayerSettingsModule.h
; File C:\Program Files\Microsoft Visual Studio\2022\Community\VC\Tools\MSVC\14.44.35207\include\utility
; File C:\Anka2Project\Anka2Project\Source\Binary\source\UserInterface\PythonPlayerSettingsModule.h
;	COMDAT ??__EcharacterTitleSystemColors@@YAXXZ
text$di	SEGMENT
$T3 = -96						; size = 84
__$ArrayPad$ = -4					; size = 4
??__EcharacterTitleSystemColors@@YAXXZ PROC		; `dynamic initializer for 'characterTitleSystemColors'', COMDAT

; 562  : };

  00000	55		 push	 ebp
  00001	8b ec		 mov	 ebp, esp
  00003	83 e4 f8	 and	 esp, -8			; fffffff8H
  00006	83 ec 60	 sub	 esp, 96			; 00000060H
  00009	a1 00 00 00 00	 mov	 eax, DWORD PTR ___security_cookie
  0000e	33 c4		 xor	 eax, esp
  00010	89 44 24 5c	 mov	 DWORD PTR __$ArrayPad$[esp+96], eax
; File C:\Program Files\Microsoft Visual Studio\2022\Community\VC\Tools\MSVC\14.44.35207\include\initializer_list

; 34   :         : _First(_First_arg), _Last(_Last_arg) {}

  00014	8d 44 24 54	 lea	 eax, DWORD PTR $T3[esp+180]
; File C:\Program Files\Microsoft Visual Studio\2022\Community\VC\Tools\MSVC\14.44.35207\include\utility

; 263  :         : first(_Val1), second(_Val2) {}

  00018	c7 04 24 00 ff
	e6 ba		 mov	 DWORD PTR $T3[esp+96], -1159266560 ; bae6ff00H
; File C:\Program Files\Microsoft Visual Studio\2022\Community\VC\Tools\MSVC\14.44.35207\include\initializer_list

; 34   :         : _First(_First_arg), _Last(_Last_arg) {}

  0001f	8d 0c 24	 lea	 ecx, DWORD PTR $T3[esp+96]
; File C:\Program Files\Microsoft Visual Studio\2022\Community\VC\Tools\MSVC\14.44.35207\include\utility

; 263  :         : first(_Val1), second(_Val2) {}

  00022	c7 44 24 04 01
	ff e6 ba	 mov	 DWORD PTR $T3[esp+100], -1159266559 ; bae6ff01H
; File C:\Anka2Project\Anka2Project\Source\Binary\source\UserInterface\PythonPlayerSettingsModule.h

; 540  : {

  0002a	50		 push	 eax
  0002b	51		 push	 ecx
  0002c	b9 00 00 00 00	 mov	 ecx, OFFSET ?characterTitleSystemColors@@3V?$map@EV?$array@E$02@std@@U?$less@E@2@V?$allocator@U?$pair@$$CBEV?$array@E$02@std@@@std@@@2@@std@@B
; File C:\Program Files\Microsoft Visual Studio\2022\Community\VC\Tools\MSVC\14.44.35207\include\utility

; 263  :         : first(_Val1), second(_Val2) {}

  00031	c7 44 24 10 02
	ff e6 ba	 mov	 DWORD PTR $T3[esp+112], -1159266558 ; bae6ff02H
  00039	c7 44 24 14 03
	ff e6 ba	 mov	 DWORD PTR $T3[esp+116], -1159266557 ; bae6ff03H
  00041	c7 44 24 18 04
	ff e6 ba	 mov	 DWORD PTR $T3[esp+120], -1159266556 ; bae6ff04H
  00049	c7 44 24 1c 05
	ff e6 ba	 mov	 DWORD PTR $T3[esp+124], -1159266555 ; bae6ff05H
  00051	c7 44 24 20 06
	ff e6 ba	 mov	 DWORD PTR $T3[esp+128], -1159266554 ; bae6ff06H
  00059	c7 44 24 24 07
	ff e6 ba	 mov	 DWORD PTR $T3[esp+132], -1159266553 ; bae6ff07H
  00061	c7 44 24 28 08
	ff e6 ba	 mov	 DWORD PTR $T3[esp+136], -1159266552 ; bae6ff08H
  00069	c7 44 24 2c 09
	ff e6 ba	 mov	 DWORD PTR $T3[esp+140], -1159266551 ; bae6ff09H
  00071	c7 44 24 30 0a
	ff e6 ba	 mov	 DWORD PTR $T3[esp+144], -1159266550 ; bae6ff0aH
  00079	c7 44 24 34 0b
	ff e6 ba	 mov	 DWORD PTR $T3[esp+148], -1159266549 ; bae6ff0bH
  00081	c7 44 24 38 0c
	ff e6 ba	 mov	 DWORD PTR $T3[esp+152], -1159266548 ; bae6ff0cH
  00089	c7 44 24 3c 0d
	ff e6 ba	 mov	 DWORD PTR $T3[esp+156], -1159266547 ; bae6ff0dH
  00091	c7 44 24 40 0e
	ff e6 ba	 mov	 DWORD PTR $T3[esp+160], -1159266546 ; bae6ff0eH
  00099	c7 44 24 44 0f
	ff e6 ba	 mov	 DWORD PTR $T3[esp+164], -1159266545 ; bae6ff0fH
  000a1	c7 44 24 48 10
	ff e6 ba	 mov	 DWORD PTR $T3[esp+168], -1159266544 ; bae6ff10H
  000a9	c7 44 24 4c 11
	ff e6 ba	 mov	 DWORD PTR $T3[esp+172], -1159266543 ; bae6ff11H
  000b1	c7 44 24 50 12
	ff e6 ba	 mov	 DWORD PTR $T3[esp+176], -1159266542 ; bae6ff12H
  000b9	c7 44 24 54 13
	ff e6 ba	 mov	 DWORD PTR $T3[esp+180], -1159266541 ; bae6ff13H
  000c1	c7 44 24 58 14
	ff e6 ba	 mov	 DWORD PTR $T3[esp+184], -1159266540 ; bae6ff14H
; File C:\Anka2Project\Anka2Project\Source\Binary\source\UserInterface\PythonPlayerSettingsModule.h

; 540  : {

  000c9	e8 00 00 00 00	 call	 ??0?$map@EV?$array@E$02@std@@U?$less@E@2@V?$allocator@U?$pair@$$CBEV?$array@E$02@std@@@std@@@2@@std@@QAE@V?$initializer_list@U?$pair@$$CBEV?$array@E$02@std@@@std@@@1@@Z ; std::map<unsigned char,std::array<unsigned char,3>,std::less<unsigned char>,std::allocator<std::pair<unsigned char const ,std::array<unsigned char,3> > > >::map<unsigned char,std::array<unsigned char,3>,std::less<unsigned char>,std::allocator<std::pair<unsigned char const ,std::array<unsigned char,3> > > >
  000ce	68 00 00 00 00	 push	 OFFSET ??__FcharacterTitleSystemColors@@YAXXZ ; `dynamic atexit destructor for 'characterTitleSystemColors''
  000d3	e8 00 00 00 00	 call	 _atexit
  000d8	8b 4c 24 60	 mov	 ecx, DWORD PTR __$ArrayPad$[esp+100]
  000dc	83 c4 04	 add	 esp, 4
  000df	33 cc		 xor	 ecx, esp
  000e1	e8 00 00 00 00	 call	 @__security_check_cookie@4

; 539  : static const TCharacterColorMap characterTitleSystemColors

  000e6	8b e5		 mov	 esp, ebp
  000e8	5d		 pop	 ebp
  000e9	c3		 ret	 0
??__EcharacterTitleSystemColors@@YAXXZ ENDP		; `dynamic initializer for 'characterTitleSystemColors''
text$di	ENDS
; Function compile flags: /Ogtp
;	COMDAT ??__FcharacterTitleSystemColors@@YAXXZ
text$yd	SEGMENT
??__FcharacterTitleSystemColors@@YAXXZ PROC		; `dynamic atexit destructor for 'characterTitleSystemColors'', COMDAT
  00000	b9 00 00 00 00	 mov	 ecx, OFFSET ?characterTitleSystemColors@@3V?$map@EV?$array@E$02@std@@U?$less@E@2@V?$allocator@U?$pair@$$CBEV?$array@E$02@std@@@std@@@2@@std@@B
  00005	e9 00 00 00 00	 jmp	 ??1?$_Tree@V?$_Tmap_traits@EV?$array@E$02@std@@U?$less@E@2@V?$allocator@U?$pair@$$CBEV?$array@E$02@std@@@std@@@2@$0A@@std@@@std@@QAE@XZ ; std::_Tree<std::_Tmap_traits<unsigned char,std::array<unsigned char,3>,std::less<unsigned char>,std::allocator<std::pair<unsigned char const ,std::array<unsigned char,3> > >,0> >::~_Tree<std::_Tmap_traits<unsigned char,std::array<unsigned char,3>,std::less<unsigned char>,std::allocator<std::pair<unsigned char const ,std::array<unsigned char,3> > >,0> >
??__FcharacterTitleSystemColors@@YAXXZ ENDP		; `dynamic atexit destructor for 'characterTitleSystemColors''
text$yd	ENDS
; Function compile flags: /Ogtp
; File C:\Anka2Project\Anka2Project\Source\Binary\source\UserInterface\PythonPlayerSettingsModule.h
; File C:\Program Files\Microsoft Visual Studio\2022\Community\VC\Tools\MSVC\14.44.35207\include\utility
; File C:\Program Files\Microsoft Visual Studio\2022\Community\VC\Tools\MSVC\14.44.35207\include\initializer_list
; File C:\Program Files\Microsoft Visual Studio\2022\Community\VC\Tools\MSVC\14.44.35207\include\utility
; File C:\Program Files\Microsoft Visual Studio\2022\Community\VC\Tools\MSVC\14.44.35207\include\initializer_list
; File C:\Program Files\Microsoft Visual Studio\2022\Community\VC\Tools\MSVC\14.44.35207\include\utility
; File C:\Anka2Project\Anka2Project\Source\Binary\source\UserInterface\PythonPlayerSettingsModule.h
; File C:\Program Files\Microsoft Visual Studio\2022\Community\VC\Tools\MSVC\14.44.35207\include\utility
; File C:\Anka2Project\Anka2Project\Source\Binary\source\UserInterface\PythonPlayerSettingsModule.h
;	COMDAT ??__EemotionIcons@@YAXXZ
text$di	SEGMENT
$T2 = -400						; size = 392
__$ArrayPad$ = -4					; size = 4
??__EemotionIcons@@YAXXZ PROC				; `dynamic initializer for 'emotionIcons'', COMDAT

; 616  : };

  00000	55		 push	 ebp
  00001	8b ec		 mov	 ebp, esp
  00003	83 e4 f8	 and	 esp, -8			; fffffff8H
  00006	81 ec 90 01 00
	00		 sub	 esp, 400		; 00000190H
  0000c	a1 00 00 00 00	 mov	 eax, DWORD PTR ___security_cookie
  00011	33 c4		 xor	 eax, esp
  00013	89 84 24 8c 01
	00 00		 mov	 DWORD PTR __$ArrayPad$[esp+400], eax
; File C:\Program Files\Microsoft Visual Studio\2022\Community\VC\Tools\MSVC\14.44.35207\include\utility

; 274  :         : first(_STD forward<_Other1>(_Val1)), second(_STD forward<_Other2>(_Val2)) {

  0001a	c6 04 24 01	 mov	 BYTE PTR $T2[esp+400], 1
  0001e	c7 44 24 04 00
	00 00 00	 mov	 DWORD PTR $T2[esp+404], OFFSET ??_C@_0CO@MFCEALPI@d?3?1ymir?5work?1ui?1game?1windows?1em@
  00026	c6 44 24 08 0b	 mov	 BYTE PTR $T2[esp+408], 11 ; 0000000bH
  0002b	c7 44 24 0c 00
	00 00 00	 mov	 DWORD PTR $T2[esp+412], OFFSET ??_C@_0DC@FAACJHAB@d?3?1ymir?5work?1ui?1game?1windows?1em@
  00033	c6 44 24 10 0c	 mov	 BYTE PTR $T2[esp+416], 12 ; 0000000cH
  00038	c7 44 24 14 00
	00 00 00	 mov	 DWORD PTR $T2[esp+420], OFFSET ??_C@_0DC@NGJGOFKP@d?3?1ymir?5work?1ui?1game?1windows?1em@
  00040	c6 44 24 18 0d	 mov	 BYTE PTR $T2[esp+424], 13 ; 0000000dH
  00045	c7 44 24 1c 00
	00 00 00	 mov	 DWORD PTR $T2[esp+428], OFFSET ??_C@_0BH@OMFLFAKO@icon?1action?1dance1?4tga@
  0004d	c6 44 24 20 0e	 mov	 BYTE PTR $T2[esp+432], 14 ; 0000000eH
  00052	c7 44 24 24 00
	00 00 00	 mov	 DWORD PTR $T2[esp+436], OFFSET ??_C@_0BH@GKMPCCAA@icon?1action?1dance2?4tga@
  0005a	c6 44 24 28 02	 mov	 BYTE PTR $T2[esp+440], 2
  0005f	c7 44 24 2c 00
	00 00 00	 mov	 DWORD PTR $T2[esp+444], OFFSET ??_C@_0BP@GFFNIAJA@icon?1action?1congratulation?4tga@
  00067	c6 44 24 30 03	 mov	 BYTE PTR $T2[esp+448], 3
  0006c	c7 44 24 34 00
	00 00 00	 mov	 DWORD PTR $T2[esp+452], OFFSET ??_C@_0BI@BEEJPNBE@icon?1action?1forgive?4tga@
  00074	c6 44 24 38 04	 mov	 BYTE PTR $T2[esp+456], 4
  00079	c7 44 24 3c 00
	00 00 00	 mov	 DWORD PTR $T2[esp+460], OFFSET ??_C@_0BG@JPEPMGBB@icon?1action?1angry?4tga@
  00081	c6 44 24 40 05	 mov	 BYTE PTR $T2[esp+464], 5
  00086	c7 44 24 44 00
	00 00 00	 mov	 DWORD PTR $T2[esp+468], OFFSET ??_C@_0BL@FJINJML@icon?1action?1attractive?4tga@
  0008e	c6 44 24 48 06	 mov	 BYTE PTR $T2[esp+472], 6
  00093	c7 44 24 4c 00
	00 00 00	 mov	 DWORD PTR $T2[esp+476], OFFSET ??_C@_0BE@PHMEGIFH@icon?1action?1sad?4tga@
  0009b	c6 44 24 50 07	 mov	 BYTE PTR $T2[esp+480], 7
  000a0	c7 44 24 54 00
	00 00 00	 mov	 DWORD PTR $T2[esp+484], OFFSET ??_C@_0BE@NNBEDMMB@icon?1action?1shy?4tga@
  000a8	c6 44 24 58 08	 mov	 BYTE PTR $T2[esp+488], 8
  000ad	c7 44 24 5c 00
	00 00 00	 mov	 DWORD PTR $T2[esp+492], OFFSET ??_C@_0BI@NHHIJFI@icon?1action?1cheerup?4tga@
  000b5	c6 44 24 60 09	 mov	 BYTE PTR $T2[esp+496], 9
  000ba	c7 44 24 64 00
	00 00 00	 mov	 DWORD PTR $T2[esp+500], OFFSET ??_C@_0BH@PLFMNKBN@icon?1action?1banter?4tga@
  000c2	c6 44 24 68 0a	 mov	 BYTE PTR $T2[esp+504], 10 ; 0000000aH
  000c7	c7 44 24 6c 00
	00 00 00	 mov	 DWORD PTR $T2[esp+508], OFFSET ??_C@_0BE@HLEHCIEP@icon?1action?1joy?4tga@
  000cf	c6 44 24 70 0d	 mov	 BYTE PTR $T2[esp+512], 13 ; 0000000dH
  000d4	c7 44 24 74 00
	00 00 00	 mov	 DWORD PTR $T2[esp+516], OFFSET ??_C@_0BH@OMFLFAKO@icon?1action?1dance1?4tga@
  000dc	c6 44 24 78 0e	 mov	 BYTE PTR $T2[esp+520], 14 ; 0000000eH
  000e1	c7 44 24 7c 00
	00 00 00	 mov	 DWORD PTR $T2[esp+524], OFFSET ??_C@_0BH@GKMPCCAA@icon?1action?1dance2?4tga@
  000e9	c6 84 24 80 00
	00 00 0f	 mov	 BYTE PTR $T2[esp+528], 15 ; 0000000fH
  000f1	c7 84 24 84 00
	00 00 00 00 00
	00		 mov	 DWORD PTR $T2[esp+532], OFFSET ??_C@_0BH@KBJDPBKF@icon?1action?1dance3?4tga@
  000fc	c6 84 24 88 00
	00 00 10	 mov	 BYTE PTR $T2[esp+536], 16 ; 00000010H
  00104	c7 84 24 8c 00
	00 00 00 00 00
	00		 mov	 DWORD PTR $T2[esp+540], OFFSET ??_C@_0BH@LMJGMBBN@icon?1action?1dance4?4tga@
  0010f	c6 84 24 90 00
	00 00 11	 mov	 BYTE PTR $T2[esp+544], 17 ; 00000011H
  00117	c7 84 24 94 00
	00 00 00 00 00
	00		 mov	 DWORD PTR $T2[esp+548], OFFSET ??_C@_0BH@HHMKBCLI@icon?1action?1dance5?4tga@
  00122	c6 84 24 98 00
	00 00 12	 mov	 BYTE PTR $T2[esp+552], 18 ; 00000012H
  0012a	c7 84 24 9c 00
	00 00 00 00 00
	00		 mov	 DWORD PTR $T2[esp+556], OFFSET ??_C@_0BH@PBFOGABG@icon?1action?1dance6?4tga@
  00135	c6 84 24 a0 00
	00 00 13	 mov	 BYTE PTR $T2[esp+560], 19 ; 00000013H
  0013d	c7 84 24 a4 00
	00 00 00 00 00
	00		 mov	 DWORD PTR $T2[esp+564], OFFSET ??_C@_0BH@DKACLDLD@icon?1action?1dance7?4tga@
  00148	c6 84 24 a8 00
	00 00 14	 mov	 BYTE PTR $T2[esp+568], 20 ; 00000014H
  00150	c7 84 24 ac 00
	00 00 00 00 00
	00		 mov	 DWORD PTR $T2[esp+572], OFFSET ??_C@_0BH@FENECHOL@icon?1action?1selfie?4tga@
  0015b	c6 84 24 b0 00
	00 00 15	 mov	 BYTE PTR $T2[esp+576], 21 ; 00000015H
  00163	c7 84 24 b4 00
	00 00 00 00 00
	00		 mov	 DWORD PTR $T2[esp+580], OFFSET ??_C@_0BF@DCMJCJMG@icon?1action?1doze?4tga@
  0016e	c6 84 24 b8 00
	00 00 16	 mov	 BYTE PTR $T2[esp+584], 22 ; 00000016H
  00176	c7 84 24 bc 00
	00 00 00 00 00
	00		 mov	 DWORD PTR $T2[esp+588], OFFSET ??_C@_0BJ@IAIOJNNE@icon?1action?1exercise?4tga@
  00181	c6 84 24 c0 00
	00 00 17	 mov	 BYTE PTR $T2[esp+592], 23 ; 00000017H
  00189	c7 84 24 c4 00
	00 00 00 00 00
	00		 mov	 DWORD PTR $T2[esp+596], OFFSET ??_C@_0BH@HPAODKAC@icon?1action?1pushup?4tga@
  00194	c6 84 24 c8 00
	00 00 3d	 mov	 BYTE PTR $T2[esp+600], 61 ; 0000003dH
  0019c	c7 84 24 cc 00
	00 00 00 00 00
	00		 mov	 DWORD PTR $T2[esp+604], OFFSET ??_C@_0BK@BPOFCBBP@icon?1action?1emotion_1?4tga@
  001a7	c6 84 24 d0 00
	00 00 3e	 mov	 BYTE PTR $T2[esp+608], 62 ; 0000003eH
  001af	c7 84 24 d4 00
	00 00 00 00 00
	00		 mov	 DWORD PTR $T2[esp+612], OFFSET ??_C@_0BK@JJHBFDLB@icon?1action?1emotion_2?4tga@
  001ba	c6 84 24 d8 00
	00 00 3f	 mov	 BYTE PTR $T2[esp+616], 63 ; 0000003fH
  001c2	c7 84 24 dc 00
	00 00 00 00 00
	00		 mov	 DWORD PTR $T2[esp+620], OFFSET ??_C@_0BK@FCCNIABE@icon?1action?1emotion_3?4tga@
  001cd	c6 84 24 e0 00
	00 00 40	 mov	 BYTE PTR $T2[esp+624], 64 ; 00000040H
  001d5	c7 84 24 e4 00
	00 00 00 00 00
	00		 mov	 DWORD PTR $T2[esp+628], OFFSET ??_C@_0BK@EPCILAKM@icon?1action?1emotion_4?4tga@
  001e0	c6 84 24 e8 00
	00 00 41	 mov	 BYTE PTR $T2[esp+632], 65 ; 00000041H
  001e8	c7 84 24 ec 00
	00 00 00 00 00
	00		 mov	 DWORD PTR $T2[esp+636], OFFSET ??_C@_0BK@IEHEGDAJ@icon?1action?1emotion_5?4tga@
  001f3	c6 84 24 f0 00
	00 00 42	 mov	 BYTE PTR $T2[esp+640], 66 ; 00000042H
  001fb	c7 84 24 f4 00
	00 00 00 00 00
	00		 mov	 DWORD PTR $T2[esp+644], OFFSET ??_C@_0BK@COABBKH@icon?1action?1emotion_6?4tga@
  00206	c6 84 24 f8 00
	00 00 43	 mov	 BYTE PTR $T2[esp+648], 67 ; 00000043H
  0020e	c7 84 24 fc 00
	00 00 00 00 00
	00		 mov	 DWORD PTR $T2[esp+652], OFFSET ??_C@_0BK@MJLMMCAC@icon?1action?1emotion_7?4tga@
  00219	c6 84 24 00 01
	00 00 44	 mov	 BYTE PTR $T2[esp+656], 68 ; 00000044H
  00221	c7 84 24 04 01
	00 00 00 00 00
	00		 mov	 DWORD PTR $T2[esp+660], OFFSET ??_C@_0BK@DIOKHANH@icon?1action?1emotion_8?4tga@
  0022c	c6 84 24 08 01
	00 00 45	 mov	 BYTE PTR $T2[esp+664], 69 ; 00000045H
  00234	c7 84 24 0c 01
	00 00 00 00 00
	00		 mov	 DWORD PTR $T2[esp+668], OFFSET ??_C@_0BK@PDLGKDHC@icon?1action?1emotion_9?4tga@
  0023f	c6 84 24 10 01
	00 00 46	 mov	 BYTE PTR $T2[esp+672], 70 ; 00000046H
  00247	c7 84 24 14 01
	00 00 00 00 00
	00		 mov	 DWORD PTR $T2[esp+676], OFFSET ??_C@_0BL@PMKPICHA@icon?1action?1emotion_10?4tga@
  00252	c6 84 24 18 01
	00 00 47	 mov	 BYTE PTR $T2[esp+680], 71 ; 00000047H
  0025a	c7 84 24 1c 01
	00 00 00 00 00
	00		 mov	 DWORD PTR $T2[esp+684], OFFSET ??_C@_0BL@DHPDFBNF@icon?1action?1emotion_11?4tga@
  00265	c6 84 24 20 01
	00 00 48	 mov	 BYTE PTR $T2[esp+688], 72 ; 00000048H
  0026d	c7 84 24 24 01
	00 00 00 00 00
	00		 mov	 DWORD PTR $T2[esp+692], OFFSET ??_C@_0BL@LBGHCDHL@icon?1action?1emotion_12?4tga@
  00278	c6 84 24 28 01
	00 00 49	 mov	 BYTE PTR $T2[esp+696], 73 ; 00000049H
  00280	c7 84 24 2c 01
	00 00 00 00 00
	00		 mov	 DWORD PTR $T2[esp+700], OFFSET ??_C@_0BF@LAAKDKNI@icon?1action?1bani?4tga@
  0028b	c6 84 24 30 01
	00 00 4a	 mov	 BYTE PTR $T2[esp+704], 74 ; 0000004aH
  00293	c7 84 24 34 01
	00 00 00 00 00
	00		 mov	 DWORD PTR $T2[esp+708], OFFSET ??_C@_0BF@LAAKDKNI@icon?1action?1bani?4tga@
  0029e	c6 84 24 38 01
	00 00 4b	 mov	 BYTE PTR $T2[esp+712], 75 ; 0000004bH
  002a6	c7 84 24 3c 01
	00 00 00 00 00
	00		 mov	 DWORD PTR $T2[esp+716], OFFSET ??_C@_0BF@LAAKDKNI@icon?1action?1bani?4tga@
  002b1	c6 84 24 40 01
	00 00 4c	 mov	 BYTE PTR $T2[esp+720], 76 ; 0000004cH
; File C:\Program Files\Microsoft Visual Studio\2022\Community\VC\Tools\MSVC\14.44.35207\include\initializer_list

; 34   :         : _First(_First_arg), _Last(_Last_arg) {}

  002b9	8d 84 24 88 01
	00 00		 lea	 eax, DWORD PTR $T2[esp+792]
; File C:\Program Files\Microsoft Visual Studio\2022\Community\VC\Tools\MSVC\14.44.35207\include\utility

; 274  :         : first(_STD forward<_Other1>(_Val1)), second(_STD forward<_Other2>(_Val2)) {

  002c0	c7 84 24 44 01
	00 00 00 00 00
	00		 mov	 DWORD PTR $T2[esp+724], OFFSET ??_C@_0BK@ELOIPPLP@icon?1action?1bestmates?4tga@
; File C:\Program Files\Microsoft Visual Studio\2022\Community\VC\Tools\MSVC\14.44.35207\include\initializer_list

; 34   :         : _First(_First_arg), _Last(_Last_arg) {}

  002cb	8d 0c 24	 lea	 ecx, DWORD PTR $T2[esp+400]
; File C:\Program Files\Microsoft Visual Studio\2022\Community\VC\Tools\MSVC\14.44.35207\include\utility

; 274  :         : first(_STD forward<_Other1>(_Val1)), second(_STD forward<_Other2>(_Val2)) {

  002ce	c6 84 24 48 01
	00 00 4d	 mov	 BYTE PTR $T2[esp+728], 77 ; 0000004dH
; File C:\Anka2Project\Anka2Project\Source\Binary\source\UserInterface\PythonPlayerSettingsModule.h

; 566  : {

  002d6	50		 push	 eax
  002d7	51		 push	 ecx
  002d8	b9 00 00 00 00	 mov	 ecx, OFFSET ?emotionIcons@@3V?$map@EPBDU?$less@E@std@@V?$allocator@U?$pair@$$CBEPBD@std@@@2@@std@@B
; File C:\Program Files\Microsoft Visual Studio\2022\Community\VC\Tools\MSVC\14.44.35207\include\utility

; 274  :         : first(_STD forward<_Other1>(_Val1)), second(_STD forward<_Other2>(_Val2)) {

  002dd	c7 84 24 54 01
	00 00 00 00 00
	00		 mov	 DWORD PTR $T2[esp+740], OFFSET ??_C@_0BG@JKBEMEJO@icon?1action?1flair?4tga@
  002e8	c6 84 24 58 01
	00 00 4e	 mov	 BYTE PTR $T2[esp+744], 78 ; 0000004eH
  002f0	c7 84 24 5c 01
	00 00 00 00 00
	00		 mov	 DWORD PTR $T2[esp+748], OFFSET ??_C@_0BG@FIKAAJPK@icon?1action?1horon?4tga@
  002fb	c6 84 24 60 01
	00 00 4f	 mov	 BYTE PTR $T2[esp+752], 79 ; 0000004fH
  00303	c7 84 24 64 01
	00 00 00 00 00
	00		 mov	 DWORD PTR $T2[esp+756], OFFSET ??_C@_0BL@BLFBHANH@icon?1action?1robotdance?4tga@
  0030e	c6 84 24 68 01
	00 00 50	 mov	 BYTE PTR $T2[esp+760], 80 ; 00000050H
  00316	c7 84 24 6c 01
	00 00 00 00 00
	00		 mov	 DWORD PTR $T2[esp+764], OFFSET ??_C@_0BJ@BMIINBG@icon?1action?1snowball?4tga@
  00321	c6 84 24 70 01
	00 00 51	 mov	 BYTE PTR $T2[esp+768], 81 ; 00000051H
  00329	c7 84 24 74 01
	00 00 00 00 00
	00		 mov	 DWORD PTR $T2[esp+772], OFFSET ??_C@_0BL@MKJPKIAM@icon?1action?1surprised2?4tga@
  00334	c6 84 24 78 01
	00 00 33	 mov	 BYTE PTR $T2[esp+776], 51 ; 00000033H
  0033c	c7 84 24 7c 01
	00 00 00 00 00
	00		 mov	 DWORD PTR $T2[esp+780], OFFSET ??_C@_0CO@EAMJFIMN@d?3?1ymir?5work?1ui?1game?1windows?1em@
  00347	c6 84 24 80 01
	00 00 34	 mov	 BYTE PTR $T2[esp+784], 52 ; 00000034H
  0034f	c7 84 24 84 01
	00 00 00 00 00
	00		 mov	 DWORD PTR $T2[esp+788], OFFSET ??_C@_0DF@IGFOIPMD@d?3?1ymir?5work?1ui?1game?1windows?1em@
  0035a	c6 84 24 88 01
	00 00 35	 mov	 BYTE PTR $T2[esp+792], 53 ; 00000035H
  00362	c7 84 24 8c 01
	00 00 00 00 00
	00		 mov	 DWORD PTR $T2[esp+796], OFFSET ??_C@_0CO@GJOEEJIJ@d?3?1ymir?5work?1ui?1game?1windows?1em@
; File C:\Anka2Project\Anka2Project\Source\Binary\source\UserInterface\PythonPlayerSettingsModule.h

; 566  : {

  0036d	e8 00 00 00 00	 call	 ??0?$map@EPBDU?$less@E@std@@V?$allocator@U?$pair@$$CBEPBD@std@@@2@@std@@QAE@V?$initializer_list@U?$pair@$$CBEPBD@std@@@1@@Z ; std::map<unsigned char,char const *,std::less<unsigned char>,std::allocator<std::pair<unsigned char const ,char const *> > >::map<unsigned char,char const *,std::less<unsigned char>,std::allocator<std::pair<unsigned char const ,char const *> > >
  00372	68 00 00 00 00	 push	 OFFSET ??__FemotionIcons@@YAXXZ ; `dynamic atexit destructor for 'emotionIcons''
  00377	e8 00 00 00 00	 call	 _atexit
  0037c	8b 8c 24 90 01
	00 00		 mov	 ecx, DWORD PTR __$ArrayPad$[esp+404]
  00383	83 c4 04	 add	 esp, 4
  00386	33 cc		 xor	 ecx, esp
  00388	e8 00 00 00 00	 call	 @__security_check_cookie@4

; 565  : static const std::map<uint8_t, const char*> emotionIcons =

  0038d	8b e5		 mov	 esp, ebp
  0038f	5d		 pop	 ebp
  00390	c3		 ret	 0
??__EemotionIcons@@YAXXZ ENDP				; `dynamic initializer for 'emotionIcons''
text$di	ENDS
; Function compile flags: /Ogtp
;	COMDAT ??__FemotionIcons@@YAXXZ
text$yd	SEGMENT
??__FemotionIcons@@YAXXZ PROC				; `dynamic atexit destructor for 'emotionIcons'', COMDAT
  00000	b9 00 00 00 00	 mov	 ecx, OFFSET ?emotionIcons@@3V?$map@EPBDU?$less@E@std@@V?$allocator@U?$pair@$$CBEPBD@std@@@2@@std@@B
  00005	e9 00 00 00 00	 jmp	 ??1?$_Tree@V?$_Tmap_traits@EPBDU?$less@E@std@@V?$allocator@U?$pair@$$CBEPBD@std@@@2@$0A@@std@@@std@@QAE@XZ ; std::_Tree<std::_Tmap_traits<unsigned char,char const *,std::less<unsigned char>,std::allocator<std::pair<unsigned char const ,char const *> >,0> >::~_Tree<std::_Tmap_traits<unsigned char,char const *,std::less<unsigned char>,std::allocator<std::pair<unsigned char const ,char const *> >,0> >
??__FemotionIcons@@YAXXZ ENDP				; `dynamic atexit destructor for 'emotionIcons''
text$yd	ENDS
; Function compile flags: /Ogtp
; File C:\Anka2Project\Anka2Project\Source\Binary\source\UserInterface\PythonPlayerSettingsModule.h
; File C:\Program Files\Microsoft Visual Studio\2022\Community\VC\Tools\MSVC\14.44.35207\include\vector
; File C:\Anka2Project\Anka2Project\Source\Binary\source\UserInterface\PythonPlayerSettingsModule.h
; File C:\Program Files\Microsoft Visual Studio\2022\Community\VC\Tools\MSVC\14.44.35207\include\initializer_list
; File C:\Anka2Project\Anka2Project\Source\Binary\source\UserInterface\PythonPlayerSettingsModule.h
; File C:\Program Files\Microsoft Visual Studio\2022\Community\VC\Tools\MSVC\14.44.35207\include\initializer_list
; File C:\Anka2Project\Anka2Project\Source\Binary\source\UserInterface\PythonPlayerSettingsModule.h
; File C:\Program Files\Microsoft Visual Studio\2022\Community\VC\Tools\MSVC\14.44.35207\include\vector
; File C:\Anka2Project\Anka2Project\Source\Binary\source\UserInterface\PythonPlayerSettingsModule.h
; File C:\Program Files\Microsoft Visual Studio\2022\Community\VC\Tools\MSVC\14.44.35207\include\vector
; File C:\Program Files\Microsoft Visual Studio\2022\Community\VC\Tools\MSVC\14.44.35207\include\xmemory
; File C:\Program Files\Microsoft Visual Studio\2022\Community\VC\Tools\MSVC\14.44.35207\include\vector
; File C:\Program Files\Microsoft Visual Studio\2022\Community\VC\Tools\MSVC\14.44.35207\include\xmemory
; File C:\Program Files\Microsoft Visual Studio\2022\Community\VC\Tools\MSVC\14.44.35207\include\vector
; File C:\Anka2Project\Anka2Project\Source\Binary\source\UserInterface\PythonPlayerSettingsModule.h
; File C:\Program Files\Microsoft Visual Studio\2022\Community\VC\Tools\MSVC\14.44.35207\include\utility
; File C:\Program Files\Microsoft Visual Studio\2022\Community\VC\Tools\MSVC\14.44.35207\include\vector
; File C:\Program Files\Microsoft Visual Studio\2022\Community\VC\Tools\MSVC\14.44.35207\include\xmemory
; File C:\Program Files\Microsoft Visual Studio\2022\Community\VC\Tools\MSVC\14.44.35207\include\vector
; File C:\Program Files\Microsoft Visual Studio\2022\Community\VC\Tools\MSVC\14.44.35207\include\xmemory
; File C:\Program Files\Microsoft Visual Studio\2022\Community\VC\Tools\MSVC\14.44.35207\include\vector
; File C:\Program Files\Microsoft Visual Studio\2022\Community\VC\Tools\MSVC\14.44.35207\include\xmemory
; File C:\Program Files\Microsoft Visual Studio\2022\Community\VC\Tools\MSVC\14.44.35207\include\vector
; File C:\Anka2Project\Anka2Project\Source\Binary\source\UserInterface\PythonPlayerSettingsModule.h
; File C:\Program Files\Microsoft Visual Studio\2022\Community\VC\Tools\MSVC\14.44.35207\include\initializer_list
; File C:\Program Files\Microsoft Visual Studio\2022\Community\VC\Tools\MSVC\14.44.35207\include\vector
; File C:\Anka2Project\Anka2Project\Source\Binary\source\UserInterface\PythonPlayerSettingsModule.h
; File C:\Program Files\Microsoft Visual Studio\2022\Community\VC\Tools\MSVC\14.44.35207\include\initializer_list
; File C:\Anka2Project\Anka2Project\Source\Binary\source\UserInterface\PythonPlayerSettingsModule.h
; File C:\Program Files\Microsoft Visual Studio\2022\Community\VC\Tools\MSVC\14.44.35207\include\vector
; File C:\Anka2Project\Anka2Project\Source\Binary\source\UserInterface\PythonPlayerSettingsModule.h
; File C:\Program Files\Microsoft Visual Studio\2022\Community\VC\Tools\MSVC\14.44.35207\include\vector
; File C:\Program Files\Microsoft Visual Studio\2022\Community\VC\Tools\MSVC\14.44.35207\include\xmemory
; File C:\Program Files\Microsoft Visual Studio\2022\Community\VC\Tools\MSVC\14.44.35207\include\vector
; File C:\Program Files\Microsoft Visual Studio\2022\Community\VC\Tools\MSVC\14.44.35207\include\xmemory
; File C:\Program Files\Microsoft Visual Studio\2022\Community\VC\Tools\MSVC\14.44.35207\include\vector
; File C:\Anka2Project\Anka2Project\Source\Binary\source\UserInterface\PythonPlayerSettingsModule.h
; File C:\Program Files\Microsoft Visual Studio\2022\Community\VC\Tools\MSVC\14.44.35207\include\utility
; File C:\Program Files\Microsoft Visual Studio\2022\Community\VC\Tools\MSVC\14.44.35207\include\vector
; File C:\Program Files\Microsoft Visual Studio\2022\Community\VC\Tools\MSVC\14.44.35207\include\xmemory
; File C:\Program Files\Microsoft Visual Studio\2022\Community\VC\Tools\MSVC\14.44.35207\include\vector
; File C:\Program Files\Microsoft Visual Studio\2022\Community\VC\Tools\MSVC\14.44.35207\include\xmemory
; File C:\Program Files\Microsoft Visual Studio\2022\Community\VC\Tools\MSVC\14.44.35207\include\vector
; File C:\Program Files\Microsoft Visual Studio\2022\Community\VC\Tools\MSVC\14.44.35207\include\xmemory
; File C:\Program Files\Microsoft Visual Studio\2022\Community\VC\Tools\MSVC\14.44.35207\include\vector
; File C:\Program Files\Microsoft Visual Studio\2022\Community\VC\Tools\MSVC\14.44.35207\include\initializer_list
; File C:\Anka2Project\Anka2Project\Source\Binary\source\UserInterface\PythonPlayerSettingsModule.h
; File C:\Program Files\Microsoft Visual Studio\2022\Community\VC\Tools\MSVC\14.44.35207\include\initializer_list
; File C:\Anka2Project\Anka2Project\Source\Binary\source\UserInterface\PythonPlayerSettingsModule.h
; File C:\Program Files\Microsoft Visual Studio\2022\Community\VC\Tools\MSVC\14.44.35207\include\utility
; File C:\Anka2Project\Anka2Project\Source\Binary\source\UserInterface\PythonPlayerSettingsModule.h
; File C:\Program Files\Microsoft Visual Studio\2022\Community\VC\Tools\MSVC\14.44.35207\include\utility
; File C:\Anka2Project\Anka2Project\Source\Binary\source\UserInterface\PythonPlayerSettingsModule.h
; File C:\Program Files\Microsoft Visual Studio\2022\Community\VC\Tools\MSVC\14.44.35207\include\initializer_list
; File C:\Program Files\Microsoft Visual Studio\2022\Community\VC\Tools\MSVC\14.44.35207\include\vector
; File C:\Anka2Project\Anka2Project\Source\Binary\source\UserInterface\PythonPlayerSettingsModule.h
; File C:\Program Files\Microsoft Visual Studio\2022\Community\VC\Tools\MSVC\14.44.35207\include\initializer_list
; File C:\Anka2Project\Anka2Project\Source\Binary\source\UserInterface\PythonPlayerSettingsModule.h
; File C:\Program Files\Microsoft Visual Studio\2022\Community\VC\Tools\MSVC\14.44.35207\include\vector
; File C:\Anka2Project\Anka2Project\Source\Binary\source\UserInterface\PythonPlayerSettingsModule.h
; File C:\Program Files\Microsoft Visual Studio\2022\Community\VC\Tools\MSVC\14.44.35207\include\vector
; File C:\Program Files\Microsoft Visual Studio\2022\Community\VC\Tools\MSVC\14.44.35207\include\xmemory
; File C:\Program Files\Microsoft Visual Studio\2022\Community\VC\Tools\MSVC\14.44.35207\include\vector
; File C:\Program Files\Microsoft Visual Studio\2022\Community\VC\Tools\MSVC\14.44.35207\include\xmemory
; File C:\Program Files\Microsoft Visual Studio\2022\Community\VC\Tools\MSVC\14.44.35207\include\vector
; File C:\Anka2Project\Anka2Project\Source\Binary\source\UserInterface\PythonPlayerSettingsModule.h
; File C:\Program Files\Microsoft Visual Studio\2022\Community\VC\Tools\MSVC\14.44.35207\include\utility
; File C:\Program Files\Microsoft Visual Studio\2022\Community\VC\Tools\MSVC\14.44.35207\include\vector
; File C:\Program Files\Microsoft Visual Studio\2022\Community\VC\Tools\MSVC\14.44.35207\include\xmemory
; File C:\Program Files\Microsoft Visual Studio\2022\Community\VC\Tools\MSVC\14.44.35207\include\vector
; File C:\Program Files\Microsoft Visual Studio\2022\Community\VC\Tools\MSVC\14.44.35207\include\xmemory
; File C:\Program Files\Microsoft Visual Studio\2022\Community\VC\Tools\MSVC\14.44.35207\include\vector
; File C:\Program Files\Microsoft Visual Studio\2022\Community\VC\Tools\MSVC\14.44.35207\include\xmemory
; File C:\Program Files\Microsoft Visual Studio\2022\Community\VC\Tools\MSVC\14.44.35207\include\vector
; File C:\Anka2Project\Anka2Project\Source\Binary\source\UserInterface\PythonPlayerSettingsModule.h
; File C:\Program Files\Microsoft Visual Studio\2022\Community\VC\Tools\MSVC\14.44.35207\include\initializer_list
; File C:\Program Files\Microsoft Visual Studio\2022\Community\VC\Tools\MSVC\14.44.35207\include\vector
; File C:\Anka2Project\Anka2Project\Source\Binary\source\UserInterface\PythonPlayerSettingsModule.h
; File C:\Program Files\Microsoft Visual Studio\2022\Community\VC\Tools\MSVC\14.44.35207\include\initializer_list
; File C:\Anka2Project\Anka2Project\Source\Binary\source\UserInterface\PythonPlayerSettingsModule.h
; File C:\Program Files\Microsoft Visual Studio\2022\Community\VC\Tools\MSVC\14.44.35207\include\vector
; File C:\Anka2Project\Anka2Project\Source\Binary\source\UserInterface\PythonPlayerSettingsModule.h
; File C:\Program Files\Microsoft Visual Studio\2022\Community\VC\Tools\MSVC\14.44.35207\include\vector
; File C:\Program Files\Microsoft Visual Studio\2022\Community\VC\Tools\MSVC\14.44.35207\include\xmemory
; File C:\Program Files\Microsoft Visual Studio\2022\Community\VC\Tools\MSVC\14.44.35207\include\vector
; File C:\Program Files\Microsoft Visual Studio\2022\Community\VC\Tools\MSVC\14.44.35207\include\xmemory
; File C:\Program Files\Microsoft Visual Studio\2022\Community\VC\Tools\MSVC\14.44.35207\include\vector
; File C:\Anka2Project\Anka2Project\Source\Binary\source\UserInterface\PythonPlayerSettingsModule.h
; File C:\Program Files\Microsoft Visual Studio\2022\Community\VC\Tools\MSVC\14.44.35207\include\utility
; File C:\Program Files\Microsoft Visual Studio\2022\Community\VC\Tools\MSVC\14.44.35207\include\vector
; File C:\Program Files\Microsoft Visual Studio\2022\Community\VC\Tools\MSVC\14.44.35207\include\xmemory
; File C:\Program Files\Microsoft Visual Studio\2022\Community\VC\Tools\MSVC\14.44.35207\include\vector
; File C:\Program Files\Microsoft Visual Studio\2022\Community\VC\Tools\MSVC\14.44.35207\include\xmemory
; File C:\Program Files\Microsoft Visual Studio\2022\Community\VC\Tools\MSVC\14.44.35207\include\vector
; File C:\Program Files\Microsoft Visual Studio\2022\Community\VC\Tools\MSVC\14.44.35207\include\xmemory
; File C:\Program Files\Microsoft Visual Studio\2022\Community\VC\Tools\MSVC\14.44.35207\include\vector
; File C:\Program Files\Microsoft Visual Studio\2022\Community\VC\Tools\MSVC\14.44.35207\include\initializer_list
; File C:\Anka2Project\Anka2Project\Source\Binary\source\UserInterface\PythonPlayerSettingsModule.h
; File C:\Program Files\Microsoft Visual Studio\2022\Community\VC\Tools\MSVC\14.44.35207\include\initializer_list
; File C:\Anka2Project\Anka2Project\Source\Binary\source\UserInterface\PythonPlayerSettingsModule.h
; File C:\Program Files\Microsoft Visual Studio\2022\Community\VC\Tools\MSVC\14.44.35207\include\utility
; File C:\Anka2Project\Anka2Project\Source\Binary\source\UserInterface\PythonPlayerSettingsModule.h
; File C:\Program Files\Microsoft Visual Studio\2022\Community\VC\Tools\MSVC\14.44.35207\include\utility
; File C:\Anka2Project\Anka2Project\Source\Binary\source\UserInterface\PythonPlayerSettingsModule.h
; File C:\Program Files\Microsoft Visual Studio\2022\Community\VC\Tools\MSVC\14.44.35207\include\initializer_list
; File C:\Program Files\Microsoft Visual Studio\2022\Community\VC\Tools\MSVC\14.44.35207\include\vector
; File C:\Anka2Project\Anka2Project\Source\Binary\source\UserInterface\PythonPlayerSettingsModule.h
; File C:\Program Files\Microsoft Visual Studio\2022\Community\VC\Tools\MSVC\14.44.35207\include\initializer_list
; File C:\Anka2Project\Anka2Project\Source\Binary\source\UserInterface\PythonPlayerSettingsModule.h
; File C:\Program Files\Microsoft Visual Studio\2022\Community\VC\Tools\MSVC\14.44.35207\include\vector
; File C:\Anka2Project\Anka2Project\Source\Binary\source\UserInterface\PythonPlayerSettingsModule.h
; File C:\Program Files\Microsoft Visual Studio\2022\Community\VC\Tools\MSVC\14.44.35207\include\vector
; File C:\Program Files\Microsoft Visual Studio\2022\Community\VC\Tools\MSVC\14.44.35207\include\xmemory
; File C:\Program Files\Microsoft Visual Studio\2022\Community\VC\Tools\MSVC\14.44.35207\include\vector
; File C:\Program Files\Microsoft Visual Studio\2022\Community\VC\Tools\MSVC\14.44.35207\include\xmemory
; File C:\Program Files\Microsoft Visual Studio\2022\Community\VC\Tools\MSVC\14.44.35207\include\vector
; File C:\Anka2Project\Anka2Project\Source\Binary\source\UserInterface\PythonPlayerSettingsModule.h
; File C:\Program Files\Microsoft Visual Studio\2022\Community\VC\Tools\MSVC\14.44.35207\include\utility
; File C:\Program Files\Microsoft Visual Studio\2022\Community\VC\Tools\MSVC\14.44.35207\include\vector
; File C:\Program Files\Microsoft Visual Studio\2022\Community\VC\Tools\MSVC\14.44.35207\include\xmemory
; File C:\Program Files\Microsoft Visual Studio\2022\Community\VC\Tools\MSVC\14.44.35207\include\vector
; File C:\Program Files\Microsoft Visual Studio\2022\Community\VC\Tools\MSVC\14.44.35207\include\xmemory
; File C:\Program Files\Microsoft Visual Studio\2022\Community\VC\Tools\MSVC\14.44.35207\include\vector
; File C:\Program Files\Microsoft Visual Studio\2022\Community\VC\Tools\MSVC\14.44.35207\include\xmemory
; File C:\Program Files\Microsoft Visual Studio\2022\Community\VC\Tools\MSVC\14.44.35207\include\vector
; File C:\Anka2Project\Anka2Project\Source\Binary\source\UserInterface\PythonPlayerSettingsModule.h
; File C:\Program Files\Microsoft Visual Studio\2022\Community\VC\Tools\MSVC\14.44.35207\include\initializer_list
; File C:\Program Files\Microsoft Visual Studio\2022\Community\VC\Tools\MSVC\14.44.35207\include\vector
; File C:\Anka2Project\Anka2Project\Source\Binary\source\UserInterface\PythonPlayerSettingsModule.h
; File C:\Program Files\Microsoft Visual Studio\2022\Community\VC\Tools\MSVC\14.44.35207\include\initializer_list
; File C:\Anka2Project\Anka2Project\Source\Binary\source\UserInterface\PythonPlayerSettingsModule.h
; File C:\Program Files\Microsoft Visual Studio\2022\Community\VC\Tools\MSVC\14.44.35207\include\vector
; File C:\Anka2Project\Anka2Project\Source\Binary\source\UserInterface\PythonPlayerSettingsModule.h
; File C:\Program Files\Microsoft Visual Studio\2022\Community\VC\Tools\MSVC\14.44.35207\include\vector
; File C:\Program Files\Microsoft Visual Studio\2022\Community\VC\Tools\MSVC\14.44.35207\include\xmemory
; File C:\Program Files\Microsoft Visual Studio\2022\Community\VC\Tools\MSVC\14.44.35207\include\vector
; File C:\Program Files\Microsoft Visual Studio\2022\Community\VC\Tools\MSVC\14.44.35207\include\xmemory
; File C:\Program Files\Microsoft Visual Studio\2022\Community\VC\Tools\MSVC\14.44.35207\include\vector
; File C:\Anka2Project\Anka2Project\Source\Binary\source\UserInterface\PythonPlayerSettingsModule.h
; File C:\Program Files\Microsoft Visual Studio\2022\Community\VC\Tools\MSVC\14.44.35207\include\utility
; File C:\Program Files\Microsoft Visual Studio\2022\Community\VC\Tools\MSVC\14.44.35207\include\vector
; File C:\Program Files\Microsoft Visual Studio\2022\Community\VC\Tools\MSVC\14.44.35207\include\xmemory
; File C:\Program Files\Microsoft Visual Studio\2022\Community\VC\Tools\MSVC\14.44.35207\include\vector
; File C:\Program Files\Microsoft Visual Studio\2022\Community\VC\Tools\MSVC\14.44.35207\include\xmemory
; File C:\Program Files\Microsoft Visual Studio\2022\Community\VC\Tools\MSVC\14.44.35207\include\vector
; File C:\Program Files\Microsoft Visual Studio\2022\Community\VC\Tools\MSVC\14.44.35207\include\xmemory
; File C:\Program Files\Microsoft Visual Studio\2022\Community\VC\Tools\MSVC\14.44.35207\include\vector
; File C:\Program Files\Microsoft Visual Studio\2022\Community\VC\Tools\MSVC\14.44.35207\include\initializer_list
; File C:\Anka2Project\Anka2Project\Source\Binary\source\UserInterface\PythonPlayerSettingsModule.h
; File C:\Program Files\Microsoft Visual Studio\2022\Community\VC\Tools\MSVC\14.44.35207\include\initializer_list
; File C:\Anka2Project\Anka2Project\Source\Binary\source\UserInterface\PythonPlayerSettingsModule.h
; File C:\Program Files\Microsoft Visual Studio\2022\Community\VC\Tools\MSVC\14.44.35207\include\utility
; File C:\Anka2Project\Anka2Project\Source\Binary\source\UserInterface\PythonPlayerSettingsModule.h
; File C:\Program Files\Microsoft Visual Studio\2022\Community\VC\Tools\MSVC\14.44.35207\include\utility
; File C:\Anka2Project\Anka2Project\Source\Binary\source\UserInterface\PythonPlayerSettingsModule.h
; File C:\Program Files\Microsoft Visual Studio\2022\Community\VC\Tools\MSVC\14.44.35207\include\initializer_list
; File C:\Program Files\Microsoft Visual Studio\2022\Community\VC\Tools\MSVC\14.44.35207\include\vector
; File C:\Anka2Project\Anka2Project\Source\Binary\source\UserInterface\PythonPlayerSettingsModule.h
; File C:\Program Files\Microsoft Visual Studio\2022\Community\VC\Tools\MSVC\14.44.35207\include\initializer_list
; File C:\Anka2Project\Anka2Project\Source\Binary\source\UserInterface\PythonPlayerSettingsModule.h
; File C:\Program Files\Microsoft Visual Studio\2022\Community\VC\Tools\MSVC\14.44.35207\include\vector
; File C:\Anka2Project\Anka2Project\Source\Binary\source\UserInterface\PythonPlayerSettingsModule.h
; File C:\Program Files\Microsoft Visual Studio\2022\Community\VC\Tools\MSVC\14.44.35207\include\vector
; File C:\Program Files\Microsoft Visual Studio\2022\Community\VC\Tools\MSVC\14.44.35207\include\xmemory
; File C:\Program Files\Microsoft Visual Studio\2022\Community\VC\Tools\MSVC\14.44.35207\include\vector
; File C:\Program Files\Microsoft Visual Studio\2022\Community\VC\Tools\MSVC\14.44.35207\include\xmemory
; File C:\Program Files\Microsoft Visual Studio\2022\Community\VC\Tools\MSVC\14.44.35207\include\vector
; File C:\Anka2Project\Anka2Project\Source\Binary\source\UserInterface\PythonPlayerSettingsModule.h
; File C:\Program Files\Microsoft Visual Studio\2022\Community\VC\Tools\MSVC\14.44.35207\include\utility
; File C:\Program Files\Microsoft Visual Studio\2022\Community\VC\Tools\MSVC\14.44.35207\include\vector
; File C:\Program Files\Microsoft Visual Studio\2022\Community\VC\Tools\MSVC\14.44.35207\include\xmemory
; File C:\Program Files\Microsoft Visual Studio\2022\Community\VC\Tools\MSVC\14.44.35207\include\vector
; File C:\Program Files\Microsoft Visual Studio\2022\Community\VC\Tools\MSVC\14.44.35207\include\xmemory
; File C:\Program Files\Microsoft Visual Studio\2022\Community\VC\Tools\MSVC\14.44.35207\include\vector
; File C:\Program Files\Microsoft Visual Studio\2022\Community\VC\Tools\MSVC\14.44.35207\include\xmemory
; File C:\Program Files\Microsoft Visual Studio\2022\Community\VC\Tools\MSVC\14.44.35207\include\vector
; File C:\Anka2Project\Anka2Project\Source\Binary\source\UserInterface\PythonPlayerSettingsModule.h
; File C:\Program Files\Microsoft Visual Studio\2022\Community\VC\Tools\MSVC\14.44.35207\include\initializer_list
; File C:\Program Files\Microsoft Visual Studio\2022\Community\VC\Tools\MSVC\14.44.35207\include\vector
; File C:\Anka2Project\Anka2Project\Source\Binary\source\UserInterface\PythonPlayerSettingsModule.h
; File C:\Program Files\Microsoft Visual Studio\2022\Community\VC\Tools\MSVC\14.44.35207\include\initializer_list
; File C:\Anka2Project\Anka2Project\Source\Binary\source\UserInterface\PythonPlayerSettingsModule.h
; File C:\Program Files\Microsoft Visual Studio\2022\Community\VC\Tools\MSVC\14.44.35207\include\vector
; File C:\Anka2Project\Anka2Project\Source\Binary\source\UserInterface\PythonPlayerSettingsModule.h
; File C:\Program Files\Microsoft Visual Studio\2022\Community\VC\Tools\MSVC\14.44.35207\include\vector
; File C:\Program Files\Microsoft Visual Studio\2022\Community\VC\Tools\MSVC\14.44.35207\include\xmemory
; File C:\Program Files\Microsoft Visual Studio\2022\Community\VC\Tools\MSVC\14.44.35207\include\vector
; File C:\Program Files\Microsoft Visual Studio\2022\Community\VC\Tools\MSVC\14.44.35207\include\xmemory
; File C:\Program Files\Microsoft Visual Studio\2022\Community\VC\Tools\MSVC\14.44.35207\include\vector
; File C:\Anka2Project\Anka2Project\Source\Binary\source\UserInterface\PythonPlayerSettingsModule.h
; File C:\Program Files\Microsoft Visual Studio\2022\Community\VC\Tools\MSVC\14.44.35207\include\utility
; File C:\Program Files\Microsoft Visual Studio\2022\Community\VC\Tools\MSVC\14.44.35207\include\vector
; File C:\Program Files\Microsoft Visual Studio\2022\Community\VC\Tools\MSVC\14.44.35207\include\xmemory
; File C:\Program Files\Microsoft Visual Studio\2022\Community\VC\Tools\MSVC\14.44.35207\include\vector
; File C:\Program Files\Microsoft Visual Studio\2022\Community\VC\Tools\MSVC\14.44.35207\include\xmemory
; File C:\Program Files\Microsoft Visual Studio\2022\Community\VC\Tools\MSVC\14.44.35207\include\vector
; File C:\Program Files\Microsoft Visual Studio\2022\Community\VC\Tools\MSVC\14.44.35207\include\xmemory
; File C:\Program Files\Microsoft Visual Studio\2022\Community\VC\Tools\MSVC\14.44.35207\include\vector
; File C:\Program Files\Microsoft Visual Studio\2022\Community\VC\Tools\MSVC\14.44.35207\include\initializer_list
; File C:\Anka2Project\Anka2Project\Source\Binary\source\UserInterface\PythonPlayerSettingsModule.h
; File C:\Program Files\Microsoft Visual Studio\2022\Community\VC\Tools\MSVC\14.44.35207\include\initializer_list
; File C:\Anka2Project\Anka2Project\Source\Binary\source\UserInterface\PythonPlayerSettingsModule.h
; File C:\Program Files\Microsoft Visual Studio\2022\Community\VC\Tools\MSVC\14.44.35207\include\utility
; File C:\Anka2Project\Anka2Project\Source\Binary\source\UserInterface\PythonPlayerSettingsModule.h
; File C:\Program Files\Microsoft Visual Studio\2022\Community\VC\Tools\MSVC\14.44.35207\include\utility
; File C:\Program Files\Microsoft Visual Studio\2022\Community\VC\Tools\MSVC\14.44.35207\include\initializer_list
; File C:\Anka2Project\Anka2Project\Source\Binary\source\UserInterface\PythonPlayerSettingsModule.h
; File C:\Program Files\Microsoft Visual Studio\2022\Community\VC\Tools\MSVC\14.44.35207\include\initializer_list
; File C:\Anka2Project\Anka2Project\Source\Binary\source\UserInterface\PythonPlayerSettingsModule.h
; File C:\Program Files\Microsoft Visual Studio\2022\Community\VC\Tools\MSVC\14.44.35207\include\xtree
; File C:\Program Files\Microsoft Visual Studio\2022\Community\VC\Tools\MSVC\14.44.35207\include\xmemory
; File C:\Anka2Project\Anka2Project\Source\Binary\source\UserInterface\PythonPlayerSettingsModule.h
; File C:\Program Files\Microsoft Visual Studio\2022\Community\VC\Tools\MSVC\14.44.35207\include\vector
; File C:\Program Files\Microsoft Visual Studio\2022\Community\VC\Tools\MSVC\14.44.35207\include\xmemory
; File C:\Program Files\Microsoft Visual Studio\2022\Community\VC\Tools\MSVC\14.44.35207\include\vector
; File C:\Program Files\Microsoft Visual Studio\2022\Community\VC\Tools\MSVC\14.44.35207\include\xmemory
; File C:\Program Files\Microsoft Visual Studio\2022\Community\VC\Tools\MSVC\14.44.35207\include\vector
; File C:\Anka2Project\Anka2Project\Source\Binary\source\UserInterface\PythonPlayerSettingsModule.h
; File C:\Program Files\Microsoft Visual Studio\2022\Community\VC\Tools\MSVC\14.44.35207\include\vector
; File C:\Program Files\Microsoft Visual Studio\2022\Community\VC\Tools\MSVC\14.44.35207\include\xmemory
; File C:\Program Files\Microsoft Visual Studio\2022\Community\VC\Tools\MSVC\14.44.35207\include\vector
; File C:\Program Files\Microsoft Visual Studio\2022\Community\VC\Tools\MSVC\14.44.35207\include\xmemory
; File C:\Program Files\Microsoft Visual Studio\2022\Community\VC\Tools\MSVC\14.44.35207\include\vector
; File C:\Program Files\Microsoft Visual Studio\2022\Community\VC\Tools\MSVC\14.44.35207\include\xtree
; File C:\Program Files\Microsoft Visual Studio\2022\Community\VC\Tools\MSVC\14.44.35207\include\xmemory
; File C:\Anka2Project\Anka2Project\Source\Binary\source\UserInterface\PythonPlayerSettingsModule.h
; File C:\Program Files\Microsoft Visual Studio\2022\Community\VC\Tools\MSVC\14.44.35207\include\vector
; File C:\Program Files\Microsoft Visual Studio\2022\Community\VC\Tools\MSVC\14.44.35207\include\xmemory
; File C:\Program Files\Microsoft Visual Studio\2022\Community\VC\Tools\MSVC\14.44.35207\include\vector
; File C:\Program Files\Microsoft Visual Studio\2022\Community\VC\Tools\MSVC\14.44.35207\include\xmemory
; File C:\Program Files\Microsoft Visual Studio\2022\Community\VC\Tools\MSVC\14.44.35207\include\vector
; File C:\Anka2Project\Anka2Project\Source\Binary\source\UserInterface\PythonPlayerSettingsModule.h
; File C:\Program Files\Microsoft Visual Studio\2022\Community\VC\Tools\MSVC\14.44.35207\include\vector
; File C:\Program Files\Microsoft Visual Studio\2022\Community\VC\Tools\MSVC\14.44.35207\include\xmemory
; File C:\Program Files\Microsoft Visual Studio\2022\Community\VC\Tools\MSVC\14.44.35207\include\vector
; File C:\Program Files\Microsoft Visual Studio\2022\Community\VC\Tools\MSVC\14.44.35207\include\xmemory
; File C:\Program Files\Microsoft Visual Studio\2022\Community\VC\Tools\MSVC\14.44.35207\include\vector
; File C:\Program Files\Microsoft Visual Studio\2022\Community\VC\Tools\MSVC\14.44.35207\include\xtree
; File C:\Program Files\Microsoft Visual Studio\2022\Community\VC\Tools\MSVC\14.44.35207\include\xmemory
; File C:\Anka2Project\Anka2Project\Source\Binary\source\UserInterface\PythonPlayerSettingsModule.h
; File C:\Program Files\Microsoft Visual Studio\2022\Community\VC\Tools\MSVC\14.44.35207\include\vector
; File C:\Program Files\Microsoft Visual Studio\2022\Community\VC\Tools\MSVC\14.44.35207\include\xmemory
; File C:\Program Files\Microsoft Visual Studio\2022\Community\VC\Tools\MSVC\14.44.35207\include\vector
; File C:\Program Files\Microsoft Visual Studio\2022\Community\VC\Tools\MSVC\14.44.35207\include\xmemory
; File C:\Program Files\Microsoft Visual Studio\2022\Community\VC\Tools\MSVC\14.44.35207\include\vector
; File C:\Anka2Project\Anka2Project\Source\Binary\source\UserInterface\PythonPlayerSettingsModule.h
; File C:\Program Files\Microsoft Visual Studio\2022\Community\VC\Tools\MSVC\14.44.35207\include\vector
; File C:\Program Files\Microsoft Visual Studio\2022\Community\VC\Tools\MSVC\14.44.35207\include\xmemory
; File C:\Program Files\Microsoft Visual Studio\2022\Community\VC\Tools\MSVC\14.44.35207\include\vector
; File C:\Program Files\Microsoft Visual Studio\2022\Community\VC\Tools\MSVC\14.44.35207\include\xmemory
; File C:\Program Files\Microsoft Visual Studio\2022\Community\VC\Tools\MSVC\14.44.35207\include\vector
; File C:\Program Files\Microsoft Visual Studio\2022\Community\VC\Tools\MSVC\14.44.35207\include\xtree
; File C:\Program Files\Microsoft Visual Studio\2022\Community\VC\Tools\MSVC\14.44.35207\include\xmemory
; File C:\Anka2Project\Anka2Project\Source\Binary\source\UserInterface\PythonPlayerSettingsModule.h
; File C:\Program Files\Microsoft Visual Studio\2022\Community\VC\Tools\MSVC\14.44.35207\include\vector
; File C:\Program Files\Microsoft Visual Studio\2022\Community\VC\Tools\MSVC\14.44.35207\include\xmemory
; File C:\Program Files\Microsoft Visual Studio\2022\Community\VC\Tools\MSVC\14.44.35207\include\vector
; File C:\Program Files\Microsoft Visual Studio\2022\Community\VC\Tools\MSVC\14.44.35207\include\xmemory
; File C:\Program Files\Microsoft Visual Studio\2022\Community\VC\Tools\MSVC\14.44.35207\include\vector
; File C:\Program Files\Microsoft Visual Studio\2022\Community\VC\Tools\MSVC\14.44.35207\include\xmemory
; File C:\Program Files\Microsoft Visual Studio\2022\Community\VC\Tools\MSVC\14.44.35207\include\vector
; File C:\Program Files\Microsoft Visual Studio\2022\Community\VC\Tools\MSVC\14.44.35207\include\xmemory
; File C:\Anka2Project\Anka2Project\Source\Binary\source\UserInterface\PythonPlayerSettingsModule.h
; File C:\Program Files\Microsoft Visual Studio\2022\Community\VC\Tools\MSVC\14.44.35207\include\xmemory
; File C:\Anka2Project\Anka2Project\Source\Binary\source\UserInterface\PythonPlayerSettingsModule.h
;	COMDAT ??__EskillIndexes@@YAXXZ
text$di	SEGMENT
$T17 = -452						; size = 32
$T74 = -420						; size = 32
$T130 = -388						; size = 32
$T186 = -356						; size = 32
$T55 = -324						; size = 8
$T112 = -316						; size = 8
$T168 = -308						; size = 8
$T224 = -300						; size = 8
$T8 = -292						; size = 12
$T34 = -280						; size = 12
$T65 = -268						; size = 12
$T91 = -256						; size = 12
$T121 = -244						; size = 12
$T147 = -232						; size = 12
$T177 = -220						; size = 12
$T203 = -208						; size = 12
__Dest$1$ = -196					; size = 4
__Dest$1$ = -196					; size = 4
__Dest$1$ = -196					; size = 4
__Dest$1$ = -196					; size = 4
__Dest$1$ = -196					; size = 4
__Dest$1$ = -196					; size = 4
__Dest$1$ = -196					; size = 4
__Dest$1$ = -196					; size = 4
$T56 = -192						; size = 48
$T87 = -144						; size = 15
$T61 = -128						; size = 15
$T199 = -112						; size = 14
$T173 = -96						; size = 14
$T143 = -80						; size = 14
$T117 = -64						; size = 14
$T30 = -48						; size = 14
$T4 = -32						; size = 14
__$ArrayPad$ = -16					; size = 4
__$EHRec$ = -12						; size = 12
??__EskillIndexes@@YAXXZ PROC				; `dynamic initializer for 'skillIndexes'', COMDAT

; 635  : };

  00000	55		 push	 ebp
  00001	8b ec		 mov	 ebp, esp
  00003	6a ff		 push	 -1
  00005	68 00 00 00 00	 push	 __ehhandler$??__EskillIndexes@@YAXXZ
  0000a	64 a1 00 00 00
	00		 mov	 eax, DWORD PTR fs:0
  00010	50		 push	 eax
  00011	81 ec b8 01 00
	00		 sub	 esp, 440		; 000001b8H
  00017	a1 00 00 00 00	 mov	 eax, DWORD PTR ___security_cookie
  0001c	33 c5		 xor	 eax, ebp
  0001e	89 45 f0	 mov	 DWORD PTR __$ArrayPad$[ebp], eax
  00021	56		 push	 esi
  00022	57		 push	 edi
  00023	50		 push	 eax
  00024	8d 45 f4	 lea	 eax, DWORD PTR __$EHRec$[ebp]
  00027	64 a3 00 00 00
	00		 mov	 DWORD PTR fs:0, eax
; File C:\Program Files\Microsoft Visual Studio\2022\Community\VC\Tools\MSVC\14.44.35207\include\vector

; 400  :     _CONSTEXPR20 _Vector_val() noexcept : _Myfirst(), _Mylast(), _Myend() {}

  0002d	33 c0		 xor	 eax, eax
; File C:\Anka2Project\Anka2Project\Source\Binary\source\UserInterface\PythonPlayerSettingsModule.h

; 618  : static const std::map<uint8_t, std::map<uint8_t, std::vector<uint8_t>>> skillIndexes{

  0002f	c7 45 e0 01 02
	03 04		 mov	 DWORD PTR $T4[ebp], 67305985 ; 04030201H
; File C:\Program Files\Microsoft Visual Studio\2022\Community\VC\Tools\MSVC\14.44.35207\include\initializer_list

; 34   :         : _First(_First_arg), _Last(_Last_arg) {}

  00036	8d 55 e0	 lea	 edx, DWORD PTR $T4[ebp]
; File C:\Anka2Project\Anka2Project\Source\Binary\source\UserInterface\PythonPlayerSettingsModule.h

; 618  : static const std::map<uint8_t, std::map<uint8_t, std::vector<uint8_t>>> skillIndexes{

  00039	c7 45 e4 05 00
	00 00		 mov	 DWORD PTR $T4[ebp+4], 5
; File C:\Program Files\Microsoft Visual Studio\2022\Community\VC\Tools\MSVC\14.44.35207\include\initializer_list

; 34   :         : _First(_First_arg), _Last(_Last_arg) {}

  00040	8d 7d ee	 lea	 edi, DWORD PTR $T4[ebp+14]
; File C:\Anka2Project\Anka2Project\Source\Binary\source\UserInterface\PythonPlayerSettingsModule.h

; 618  : static const std::map<uint8_t, std::map<uint8_t, std::vector<uint8_t>>> skillIndexes{

  00043	c7 45 e8 89 00
	8a 00		 mov	 DWORD PTR $T4[ebp+8], 9044105 ; 008a0089H
; File C:\Program Files\Microsoft Visual Studio\2022\Community\VC\Tools\MSVC\14.44.35207\include\vector

; 400  :     _CONSTEXPR20 _Vector_val() noexcept : _Myfirst(), _Mylast(), _Myend() {}

  0004a	33 c9		 xor	 ecx, ecx
; File C:\Anka2Project\Anka2Project\Source\Binary\source\UserInterface\PythonPlayerSettingsModule.h

; 618  : static const std::map<uint8_t, std::map<uint8_t, std::vector<uint8_t>>> skillIndexes{

  0004c	66 c7 45 ec 8b
	00		 mov	 WORD PTR $T4[ebp+12], 139 ; 0000008bH
; File C:\Program Files\Microsoft Visual Studio\2022\Community\VC\Tools\MSVC\14.44.35207\include\vector

; 400  :     _CONSTEXPR20 _Vector_val() noexcept : _Myfirst(), _Mylast(), _Myend() {}

  00052	89 8d dc fe ff
	ff		 mov	 DWORD PTR $T8[ebp], ecx
  00058	89 85 e0 fe ff
	ff		 mov	 DWORD PTR $T8[ebp+4], eax
  0005e	89 85 e4 fe ff
	ff		 mov	 DWORD PTR $T8[ebp+8], eax

; 721  :         _Construct_n(_Convert_size<size_type>(_Ilist.size()), _Ilist.begin(), _Ilist.end());

  00064	2b fa		 sub	 edi, edx

; 2111 :         if (_Count != 0) {

  00066	74 32		 je	 SHORT $LN63@dynamic

; 2112 :             _Buy_nonzero(_Count);

  00068	57		 push	 edi
  00069	8d 8d dc fe ff
	ff		 lea	 ecx, DWORD PTR $T8[ebp]
  0006f	e8 00 00 00 00	 call	 ?_Buy_nonzero@?$vector@EV?$allocator@E@std@@@std@@AAEXI@Z ; std::vector<unsigned char,std::allocator<unsigned char> >::_Buy_nonzero

; 2120 :                 _My_data._Mylast = _STD _Uninitialized_copy(_STD forward<_Valty>(_Val)..., _My_data._Myfirst, _Al);

  00074	8b b5 dc fe ff
	ff		 mov	 esi, DWORD PTR $T8[ebp]
; File C:\Program Files\Microsoft Visual Studio\2022\Community\VC\Tools\MSVC\14.44.35207\include\xmemory

; 1889 :                 _STD _Copy_memmove(_STD _To_address(_UFirst), _STD _To_address(_ULast), _STD _Unfancy(_Dest));

  0007a	8d 45 ee	 lea	 eax, DWORD PTR $T4[ebp+14]
  0007d	56		 push	 esi
  0007e	50		 push	 eax
  0007f	8d 45 e0	 lea	 eax, DWORD PTR $T4[ebp]
  00082	50		 push	 eax
  00083	e8 00 00 00 00	 call	 ??$_Copy_memmove@PBEPAE@std@@YAPAEPBE0PAE@Z ; std::_Copy_memmove<unsigned char const *,unsigned char *>
; File C:\Program Files\Microsoft Visual Studio\2022\Community\VC\Tools\MSVC\14.44.35207\include\vector

; 2120 :                 _My_data._Mylast = _STD _Uninitialized_copy(_STD forward<_Valty>(_Val)..., _My_data._Myfirst, _Al);

  00088	8b 8d dc fe ff
	ff		 mov	 ecx, DWORD PTR $T8[ebp]
; File C:\Program Files\Microsoft Visual Studio\2022\Community\VC\Tools\MSVC\14.44.35207\include\xmemory

; 1890 :                 _Dest += _ULast - _UFirst;

  0008e	8d 04 37	 lea	 eax, DWORD PTR [edi+esi]
  00091	83 c4 0c	 add	 esp, 12			; 0000000cH
; File C:\Program Files\Microsoft Visual Studio\2022\Community\VC\Tools\MSVC\14.44.35207\include\vector

; 2120 :                 _My_data._Mylast = _STD _Uninitialized_copy(_STD forward<_Valty>(_Val)..., _My_data._Myfirst, _Al);

  00094	89 85 e0 fe ff
	ff		 mov	 DWORD PTR $T8[ebp+4], eax
$LN63@dynamic:
; File C:\Anka2Project\Anka2Project\Source\Binary\source\UserInterface\PythonPlayerSettingsModule.h

; 618  : static const std::map<uint8_t, std::map<uint8_t, std::vector<uint8_t>>> skillIndexes{

  0009a	c7 45 fc 00 00
	00 00		 mov	 DWORD PTR __$EHRec$[ebp+8], 0
; File C:\Program Files\Microsoft Visual Studio\2022\Community\VC\Tools\MSVC\14.44.35207\include\utility

; 263  :         : first(_Val1), second(_Val2) {}

  000a1	c6 85 3c fe ff
	ff 01		 mov	 BYTE PTR $T17[ebp], 1
; File C:\Program Files\Microsoft Visual Studio\2022\Community\VC\Tools\MSVC\14.44.35207\include\vector

; 400  :     _CONSTEXPR20 _Vector_val() noexcept : _Myfirst(), _Mylast(), _Myend() {}

  000a8	c7 85 40 fe ff
	ff 00 00 00 00	 mov	 DWORD PTR $T17[ebp+4], 0
  000b2	c7 85 44 fe ff
	ff 00 00 00 00	 mov	 DWORD PTR $T17[ebp+8], 0
  000bc	c7 85 48 fe ff
	ff 00 00 00 00	 mov	 DWORD PTR $T17[ebp+12], 0

; 748  :         const auto _Count       = static_cast<size_type>(_Right_data._Mylast - _Right_data._Myfirst);

  000c6	2b c1		 sub	 eax, ecx

; 2111 :         if (_Count != 0) {

  000c8	74 3d		 je	 SHORT $LN94@dynamic

; 2112 :             _Buy_nonzero(_Count);

  000ca	50		 push	 eax
  000cb	8d 8d 40 fe ff
	ff		 lea	 ecx, DWORD PTR $T17[ebp+4]
  000d1	e8 00 00 00 00	 call	 ?_Buy_nonzero@?$vector@EV?$allocator@E@std@@@std@@AAEXI@Z ; std::vector<unsigned char,std::allocator<unsigned char> >::_Buy_nonzero

; 2120 :                 _My_data._Mylast = _STD _Uninitialized_copy(_STD forward<_Valty>(_Val)..., _My_data._Myfirst, _Al);

  000d6	8b 85 40 fe ff
	ff		 mov	 eax, DWORD PTR $T17[ebp+4]
; File C:\Program Files\Microsoft Visual Studio\2022\Community\VC\Tools\MSVC\14.44.35207\include\xmemory

; 1872 :     auto _ULast  = _RANGES _Unwrap_sent<_InIt>(_STD move(_Last));

  000dc	8b bd e0 fe ff
	ff		 mov	 edi, DWORD PTR $T8[ebp+4]
  000e2	8b b5 dc fe ff
	ff		 mov	 esi, DWORD PTR $T8[ebp]

; 1889 :                 _STD _Copy_memmove(_STD _To_address(_UFirst), _STD _To_address(_ULast), _STD _Unfancy(_Dest));

  000e8	50		 push	 eax
  000e9	57		 push	 edi
  000ea	56		 push	 esi
; File C:\Program Files\Microsoft Visual Studio\2022\Community\VC\Tools\MSVC\14.44.35207\include\vector

; 2120 :                 _My_data._Mylast = _STD _Uninitialized_copy(_STD forward<_Valty>(_Val)..., _My_data._Myfirst, _Al);

  000eb	89 85 3c ff ff
	ff		 mov	 DWORD PTR __Dest$1$[ebp], eax
; File C:\Program Files\Microsoft Visual Studio\2022\Community\VC\Tools\MSVC\14.44.35207\include\xmemory

; 1889 :                 _STD _Copy_memmove(_STD _To_address(_UFirst), _STD _To_address(_ULast), _STD _Unfancy(_Dest));

  000f1	e8 00 00 00 00	 call	 ??$_Copy_memmove@PAEPAE@std@@YAPAEPAE00@Z ; std::_Copy_memmove<unsigned char *,unsigned char *>
; File C:\Program Files\Microsoft Visual Studio\2022\Community\VC\Tools\MSVC\14.44.35207\include\vector

; 2120 :                 _My_data._Mylast = _STD _Uninitialized_copy(_STD forward<_Valty>(_Val)..., _My_data._Myfirst, _Al);

  000f6	2b fe		 sub	 edi, esi
; File C:\Program Files\Microsoft Visual Studio\2022\Community\VC\Tools\MSVC\14.44.35207\include\xmemory

; 1889 :                 _STD _Copy_memmove(_STD _To_address(_UFirst), _STD _To_address(_ULast), _STD _Unfancy(_Dest));

  000f8	83 c4 0c	 add	 esp, 12			; 0000000cH

; 1890 :                 _Dest += _ULast - _UFirst;

  000fb	03 bd 3c ff ff
	ff		 add	 edi, DWORD PTR __Dest$1$[ebp]
; File C:\Program Files\Microsoft Visual Studio\2022\Community\VC\Tools\MSVC\14.44.35207\include\vector

; 2120 :                 _My_data._Mylast = _STD _Uninitialized_copy(_STD forward<_Valty>(_Val)..., _My_data._Myfirst, _Al);

  00101	89 bd 44 fe ff
	ff		 mov	 DWORD PTR $T17[ebp+8], edi
$LN94@dynamic:
; File C:\Anka2Project\Anka2Project\Source\Binary\source\UserInterface\PythonPlayerSettingsModule.h

; 618  : static const std::map<uint8_t, std::map<uint8_t, std::vector<uint8_t>>> skillIndexes{

  00107	c6 45 fc 01	 mov	 BYTE PTR __$EHRec$[ebp+8], 1
; File C:\Program Files\Microsoft Visual Studio\2022\Community\VC\Tools\MSVC\14.44.35207\include\initializer_list

; 34   :         : _First(_First_arg), _Last(_Last_arg) {}

  0010b	8d 55 d0	 lea	 edx, DWORD PTR $T30[ebp]
; File C:\Program Files\Microsoft Visual Studio\2022\Community\VC\Tools\MSVC\14.44.35207\include\vector

; 400  :     _CONSTEXPR20 _Vector_val() noexcept : _Myfirst(), _Mylast(), _Myend() {}

  0010e	33 c0		 xor	 eax, eax
; File C:\Anka2Project\Anka2Project\Source\Binary\source\UserInterface\PythonPlayerSettingsModule.h

; 618  : static const std::map<uint8_t, std::map<uint8_t, std::vector<uint8_t>>> skillIndexes{

  00110	c7 45 d0 10 11
	12 13		 mov	 DWORD PTR $T30[ebp], 319951120 ; 13121110H
; File C:\Program Files\Microsoft Visual Studio\2022\Community\VC\Tools\MSVC\14.44.35207\include\initializer_list

; 34   :         : _First(_First_arg), _Last(_Last_arg) {}

  00117	8d 7d de	 lea	 edi, DWORD PTR $T30[ebp+14]
; File C:\Anka2Project\Anka2Project\Source\Binary\source\UserInterface\PythonPlayerSettingsModule.h

; 618  : static const std::map<uint8_t, std::map<uint8_t, std::vector<uint8_t>>> skillIndexes{

  0011a	c7 45 d4 14 00
	00 00		 mov	 DWORD PTR $T30[ebp+4], 20 ; 00000014H
; File C:\Program Files\Microsoft Visual Studio\2022\Community\VC\Tools\MSVC\14.44.35207\include\vector

; 400  :     _CONSTEXPR20 _Vector_val() noexcept : _Myfirst(), _Mylast(), _Myend() {}

  00121	33 c9		 xor	 ecx, ecx
; File C:\Anka2Project\Anka2Project\Source\Binary\source\UserInterface\PythonPlayerSettingsModule.h

; 618  : static const std::map<uint8_t, std::map<uint8_t, std::vector<uint8_t>>> skillIndexes{

  00123	c7 45 d8 89 00
	8a 00		 mov	 DWORD PTR $T30[ebp+8], 9044105 ; 008a0089H
  0012a	66 c7 45 dc 8b
	00		 mov	 WORD PTR $T30[ebp+12], 139 ; 0000008bH
; File C:\Program Files\Microsoft Visual Studio\2022\Community\VC\Tools\MSVC\14.44.35207\include\vector

; 400  :     _CONSTEXPR20 _Vector_val() noexcept : _Myfirst(), _Mylast(), _Myend() {}

  00130	89 8d e8 fe ff
	ff		 mov	 DWORD PTR $T34[ebp], ecx
  00136	89 85 ec fe ff
	ff		 mov	 DWORD PTR $T34[ebp+4], eax
  0013c	89 85 f0 fe ff
	ff		 mov	 DWORD PTR $T34[ebp+8], eax

; 721  :         _Construct_n(_Convert_size<size_type>(_Ilist.size()), _Ilist.begin(), _Ilist.end());

  00142	2b fa		 sub	 edi, edx

; 2111 :         if (_Count != 0) {

  00144	74 32		 je	 SHORT $LN128@dynamic

; 2112 :             _Buy_nonzero(_Count);

  00146	57		 push	 edi
  00147	8d 8d e8 fe ff
	ff		 lea	 ecx, DWORD PTR $T34[ebp]
  0014d	e8 00 00 00 00	 call	 ?_Buy_nonzero@?$vector@EV?$allocator@E@std@@@std@@AAEXI@Z ; std::vector<unsigned char,std::allocator<unsigned char> >::_Buy_nonzero

; 2120 :                 _My_data._Mylast = _STD _Uninitialized_copy(_STD forward<_Valty>(_Val)..., _My_data._Myfirst, _Al);

  00152	8b b5 e8 fe ff
	ff		 mov	 esi, DWORD PTR $T34[ebp]
; File C:\Program Files\Microsoft Visual Studio\2022\Community\VC\Tools\MSVC\14.44.35207\include\xmemory

; 1889 :                 _STD _Copy_memmove(_STD _To_address(_UFirst), _STD _To_address(_ULast), _STD _Unfancy(_Dest));

  00158	8d 45 de	 lea	 eax, DWORD PTR $T30[ebp+14]
  0015b	56		 push	 esi
  0015c	50		 push	 eax
  0015d	8d 45 d0	 lea	 eax, DWORD PTR $T30[ebp]
  00160	50		 push	 eax
  00161	e8 00 00 00 00	 call	 ??$_Copy_memmove@PBEPAE@std@@YAPAEPBE0PAE@Z ; std::_Copy_memmove<unsigned char const *,unsigned char *>
; File C:\Program Files\Microsoft Visual Studio\2022\Community\VC\Tools\MSVC\14.44.35207\include\vector

; 2120 :                 _My_data._Mylast = _STD _Uninitialized_copy(_STD forward<_Valty>(_Val)..., _My_data._Myfirst, _Al);

  00166	8b 8d e8 fe ff
	ff		 mov	 ecx, DWORD PTR $T34[ebp]
; File C:\Program Files\Microsoft Visual Studio\2022\Community\VC\Tools\MSVC\14.44.35207\include\xmemory

; 1890 :                 _Dest += _ULast - _UFirst;

  0016c	8d 04 37	 lea	 eax, DWORD PTR [edi+esi]
  0016f	83 c4 0c	 add	 esp, 12			; 0000000cH
; File C:\Program Files\Microsoft Visual Studio\2022\Community\VC\Tools\MSVC\14.44.35207\include\vector

; 2120 :                 _My_data._Mylast = _STD _Uninitialized_copy(_STD forward<_Valty>(_Val)..., _My_data._Myfirst, _Al);

  00172	89 85 ec fe ff
	ff		 mov	 DWORD PTR $T34[ebp+4], eax
$LN128@dynamic:
; File C:\Anka2Project\Anka2Project\Source\Binary\source\UserInterface\PythonPlayerSettingsModule.h

; 618  : static const std::map<uint8_t, std::map<uint8_t, std::vector<uint8_t>>> skillIndexes{

  00178	c6 45 fc 02	 mov	 BYTE PTR __$EHRec$[ebp+8], 2
; File C:\Program Files\Microsoft Visual Studio\2022\Community\VC\Tools\MSVC\14.44.35207\include\utility

; 263  :         : first(_Val1), second(_Val2) {}

  0017c	c6 85 4c fe ff
	ff 02		 mov	 BYTE PTR $T17[ebp+16], 2
; File C:\Program Files\Microsoft Visual Studio\2022\Community\VC\Tools\MSVC\14.44.35207\include\vector

; 400  :     _CONSTEXPR20 _Vector_val() noexcept : _Myfirst(), _Mylast(), _Myend() {}

  00183	c7 85 50 fe ff
	ff 00 00 00 00	 mov	 DWORD PTR $T17[ebp+20], 0
  0018d	c7 85 54 fe ff
	ff 00 00 00 00	 mov	 DWORD PTR $T17[ebp+24], 0
  00197	c7 85 58 fe ff
	ff 00 00 00 00	 mov	 DWORD PTR $T17[ebp+28], 0

; 748  :         const auto _Count       = static_cast<size_type>(_Right_data._Mylast - _Right_data._Myfirst);

  001a1	2b c1		 sub	 eax, ecx

; 2111 :         if (_Count != 0) {

  001a3	74 3d		 je	 SHORT $LN159@dynamic

; 2112 :             _Buy_nonzero(_Count);

  001a5	50		 push	 eax
  001a6	8d 8d 50 fe ff
	ff		 lea	 ecx, DWORD PTR $T17[ebp+20]
  001ac	e8 00 00 00 00	 call	 ?_Buy_nonzero@?$vector@EV?$allocator@E@std@@@std@@AAEXI@Z ; std::vector<unsigned char,std::allocator<unsigned char> >::_Buy_nonzero

; 2120 :                 _My_data._Mylast = _STD _Uninitialized_copy(_STD forward<_Valty>(_Val)..., _My_data._Myfirst, _Al);

  001b1	8b 85 50 fe ff
	ff		 mov	 eax, DWORD PTR $T17[ebp+20]
; File C:\Program Files\Microsoft Visual Studio\2022\Community\VC\Tools\MSVC\14.44.35207\include\xmemory

; 1872 :     auto _ULast  = _RANGES _Unwrap_sent<_InIt>(_STD move(_Last));

  001b7	8b bd ec fe ff
	ff		 mov	 edi, DWORD PTR $T34[ebp+4]
  001bd	8b b5 e8 fe ff
	ff		 mov	 esi, DWORD PTR $T34[ebp]

; 1889 :                 _STD _Copy_memmove(_STD _To_address(_UFirst), _STD _To_address(_ULast), _STD _Unfancy(_Dest));

  001c3	50		 push	 eax
  001c4	57		 push	 edi
  001c5	56		 push	 esi
; File C:\Program Files\Microsoft Visual Studio\2022\Community\VC\Tools\MSVC\14.44.35207\include\vector

; 2120 :                 _My_data._Mylast = _STD _Uninitialized_copy(_STD forward<_Valty>(_Val)..., _My_data._Myfirst, _Al);

  001c6	89 85 3c ff ff
	ff		 mov	 DWORD PTR __Dest$1$[ebp], eax
; File C:\Program Files\Microsoft Visual Studio\2022\Community\VC\Tools\MSVC\14.44.35207\include\xmemory

; 1889 :                 _STD _Copy_memmove(_STD _To_address(_UFirst), _STD _To_address(_ULast), _STD _Unfancy(_Dest));

  001cc	e8 00 00 00 00	 call	 ??$_Copy_memmove@PAEPAE@std@@YAPAEPAE00@Z ; std::_Copy_memmove<unsigned char *,unsigned char *>
; File C:\Program Files\Microsoft Visual Studio\2022\Community\VC\Tools\MSVC\14.44.35207\include\vector

; 2120 :                 _My_data._Mylast = _STD _Uninitialized_copy(_STD forward<_Valty>(_Val)..., _My_data._Myfirst, _Al);

  001d1	2b fe		 sub	 edi, esi
; File C:\Program Files\Microsoft Visual Studio\2022\Community\VC\Tools\MSVC\14.44.35207\include\xmemory

; 1889 :                 _STD _Copy_memmove(_STD _To_address(_UFirst), _STD _To_address(_ULast), _STD _Unfancy(_Dest));

  001d3	83 c4 0c	 add	 esp, 12			; 0000000cH

; 1890 :                 _Dest += _ULast - _UFirst;

  001d6	03 bd 3c ff ff
	ff		 add	 edi, DWORD PTR __Dest$1$[ebp]
; File C:\Program Files\Microsoft Visual Studio\2022\Community\VC\Tools\MSVC\14.44.35207\include\vector

; 2120 :                 _My_data._Mylast = _STD _Uninitialized_copy(_STD forward<_Valty>(_Val)..., _My_data._Myfirst, _Al);

  001dc	89 bd 54 fe ff
	ff		 mov	 DWORD PTR $T17[ebp+24], edi
$LN159@dynamic:
; File C:\Program Files\Microsoft Visual Studio\2022\Community\VC\Tools\MSVC\14.44.35207\include\initializer_list

; 34   :         : _First(_First_arg), _Last(_Last_arg) {}

  001e2	8d 85 5c fe ff
	ff		 lea	 eax, DWORD PTR $T17[ebp+32]
; File C:\Anka2Project\Anka2Project\Source\Binary\source\UserInterface\PythonPlayerSettingsModule.h

; 618  : static const std::map<uint8_t, std::map<uint8_t, std::vector<uint8_t>>> skillIndexes{

  001e8	c6 45 fc 04	 mov	 BYTE PTR __$EHRec$[ebp+8], 4
; File C:\Program Files\Microsoft Visual Studio\2022\Community\VC\Tools\MSVC\14.44.35207\include\initializer_list

; 34   :         : _First(_First_arg), _Last(_Last_arg) {}

  001ec	8d 8d 3c fe ff
	ff		 lea	 ecx, DWORD PTR $T17[ebp]
; File C:\Anka2Project\Anka2Project\Source\Binary\source\UserInterface\PythonPlayerSettingsModule.h

; 618  : static const std::map<uint8_t, std::map<uint8_t, std::vector<uint8_t>>> skillIndexes{

  001f2	50		 push	 eax
  001f3	51		 push	 ecx
  001f4	8d 8d bc fe ff
	ff		 lea	 ecx, DWORD PTR $T55[ebp]
  001fa	e8 00 00 00 00	 call	 ??0?$map@EV?$vector@EV?$allocator@E@std@@@std@@U?$less@E@2@V?$allocator@U?$pair@$$CBEV?$vector@EV?$allocator@E@std@@@std@@@std@@@2@@std@@QAE@V?$initializer_list@U?$pair@$$CBEV?$vector@EV?$allocator@E@std@@@std@@@std@@@1@@Z ; std::map<unsigned char,std::vector<unsigned char,std::allocator<unsigned char> >,std::less<unsigned char>,std::allocator<std::pair<unsigned char const ,std::vector<unsigned char,std::allocator<unsigned char> > > > >::map<unsigned char,std::vector<unsigned char,std::allocator<unsigned char> >,std::less<unsigned char>,std::allocator<std::pair<unsigned char const ,std::vector<unsigned char,std::allocator<unsigned char> > > > >
; File C:\Program Files\Microsoft Visual Studio\2022\Community\VC\Tools\MSVC\14.44.35207\include\utility

; 263  :         : first(_Val1), second(_Val2) {}

  001ff	8d 85 bc fe ff
	ff		 lea	 eax, DWORD PTR $T55[ebp]
; File C:\Anka2Project\Anka2Project\Source\Binary\source\UserInterface\PythonPlayerSettingsModule.h

; 618  : static const std::map<uint8_t, std::map<uint8_t, std::vector<uint8_t>>> skillIndexes{

  00205	c6 45 fc 05	 mov	 BYTE PTR __$EHRec$[ebp+8], 5
; File C:\Program Files\Microsoft Visual Studio\2022\Community\VC\Tools\MSVC\14.44.35207\include\utility

; 263  :         : first(_Val1), second(_Val2) {}

  00209	50		 push	 eax
  0020a	8d 8d 44 ff ff
	ff		 lea	 ecx, DWORD PTR $T56[ebp+4]
  00210	c6 85 40 ff ff
	ff 00		 mov	 BYTE PTR $T56[ebp], 0
  00217	e8 00 00 00 00	 call	 ??0?$map@EV?$vector@EV?$allocator@E@std@@@std@@U?$less@E@2@V?$allocator@U?$pair@$$CBEV?$vector@EV?$allocator@E@std@@@std@@@std@@@2@@std@@QAE@ABV01@@Z ; std::map<unsigned char,std::vector<unsigned char,std::allocator<unsigned char> >,std::less<unsigned char>,std::allocator<std::pair<unsigned char const ,std::vector<unsigned char,std::allocator<unsigned char> > > > >::map<unsigned char,std::vector<unsigned char,std::allocator<unsigned char> >,std::less<unsigned char>,std::allocator<std::pair<unsigned char const ,std::vector<unsigned char,std::allocator<unsigned char> > > > >
; File C:\Anka2Project\Anka2Project\Source\Binary\source\UserInterface\PythonPlayerSettingsModule.h

; 618  : static const std::map<uint8_t, std::map<uint8_t, std::vector<uint8_t>>> skillIndexes{

  0021c	c6 45 fc 06	 mov	 BYTE PTR __$EHRec$[ebp+8], 6
; File C:\Program Files\Microsoft Visual Studio\2022\Community\VC\Tools\MSVC\14.44.35207\include\initializer_list

; 34   :         : _First(_First_arg), _Last(_Last_arg) {}

  00220	8d 55 80	 lea	 edx, DWORD PTR $T61[ebp]
; File C:\Program Files\Microsoft Visual Studio\2022\Community\VC\Tools\MSVC\14.44.35207\include\vector

; 400  :     _CONSTEXPR20 _Vector_val() noexcept : _Myfirst(), _Mylast(), _Myend() {}

  00223	33 c0		 xor	 eax, eax
; File C:\Anka2Project\Anka2Project\Source\Binary\source\UserInterface\PythonPlayerSettingsModule.h

; 618  : static const std::map<uint8_t, std::map<uint8_t, std::vector<uint8_t>>> skillIndexes{

  00225	c7 45 80 1f 20
	21 22		 mov	 DWORD PTR $T61[ebp], 572596255 ; 2221201fH
; File C:\Program Files\Microsoft Visual Studio\2022\Community\VC\Tools\MSVC\14.44.35207\include\initializer_list

; 34   :         : _First(_First_arg), _Last(_Last_arg) {}

  0022c	8d 7d 8f	 lea	 edi, DWORD PTR $T61[ebp+15]
; File C:\Anka2Project\Anka2Project\Source\Binary\source\UserInterface\PythonPlayerSettingsModule.h

; 618  : static const std::map<uint8_t, std::map<uint8_t, std::vector<uint8_t>>> skillIndexes{

  0022f	c7 45 84 23 00
	00 00		 mov	 DWORD PTR $T61[ebp+4], 35 ; 00000023H
; File C:\Program Files\Microsoft Visual Studio\2022\Community\VC\Tools\MSVC\14.44.35207\include\vector

; 400  :     _CONSTEXPR20 _Vector_val() noexcept : _Myfirst(), _Mylast(), _Myend() {}

  00236	33 c9		 xor	 ecx, ecx
; File C:\Anka2Project\Anka2Project\Source\Binary\source\UserInterface\PythonPlayerSettingsModule.h

; 618  : static const std::map<uint8_t, std::map<uint8_t, std::vector<uint8_t>>> skillIndexes{

  00238	c7 45 88 89 00
	8a 00		 mov	 DWORD PTR $T61[ebp+8], 9044105 ; 008a0089H
  0023f	66 c7 45 8c 8b
	00		 mov	 WORD PTR $T61[ebp+12], 139 ; 0000008bH
  00245	c6 45 8e 8c	 mov	 BYTE PTR $T61[ebp+14], 140 ; 0000008cH
; File C:\Program Files\Microsoft Visual Studio\2022\Community\VC\Tools\MSVC\14.44.35207\include\vector

; 400  :     _CONSTEXPR20 _Vector_val() noexcept : _Myfirst(), _Mylast(), _Myend() {}

  00249	89 8d f4 fe ff
	ff		 mov	 DWORD PTR $T65[ebp], ecx
  0024f	89 85 f8 fe ff
	ff		 mov	 DWORD PTR $T65[ebp+4], eax
  00255	89 85 fc fe ff
	ff		 mov	 DWORD PTR $T65[ebp+8], eax

; 721  :         _Construct_n(_Convert_size<size_type>(_Ilist.size()), _Ilist.begin(), _Ilist.end());

  0025b	2b fa		 sub	 edi, edx

; 2111 :         if (_Count != 0) {

  0025d	74 32		 je	 SHORT $LN199@dynamic

; 2112 :             _Buy_nonzero(_Count);

  0025f	57		 push	 edi
  00260	8d 8d f4 fe ff
	ff		 lea	 ecx, DWORD PTR $T65[ebp]
  00266	e8 00 00 00 00	 call	 ?_Buy_nonzero@?$vector@EV?$allocator@E@std@@@std@@AAEXI@Z ; std::vector<unsigned char,std::allocator<unsigned char> >::_Buy_nonzero

; 2120 :                 _My_data._Mylast = _STD _Uninitialized_copy(_STD forward<_Valty>(_Val)..., _My_data._Myfirst, _Al);

  0026b	8b b5 f4 fe ff
	ff		 mov	 esi, DWORD PTR $T65[ebp]
; File C:\Program Files\Microsoft Visual Studio\2022\Community\VC\Tools\MSVC\14.44.35207\include\xmemory

; 1889 :                 _STD _Copy_memmove(_STD _To_address(_UFirst), _STD _To_address(_ULast), _STD _Unfancy(_Dest));

  00271	8d 45 8f	 lea	 eax, DWORD PTR $T61[ebp+15]
  00274	56		 push	 esi
  00275	50		 push	 eax
  00276	8d 45 80	 lea	 eax, DWORD PTR $T61[ebp]
  00279	50		 push	 eax
  0027a	e8 00 00 00 00	 call	 ??$_Copy_memmove@PBEPAE@std@@YAPAEPBE0PAE@Z ; std::_Copy_memmove<unsigned char const *,unsigned char *>
; File C:\Program Files\Microsoft Visual Studio\2022\Community\VC\Tools\MSVC\14.44.35207\include\vector

; 2120 :                 _My_data._Mylast = _STD _Uninitialized_copy(_STD forward<_Valty>(_Val)..., _My_data._Myfirst, _Al);

  0027f	8b 8d f4 fe ff
	ff		 mov	 ecx, DWORD PTR $T65[ebp]
; File C:\Program Files\Microsoft Visual Studio\2022\Community\VC\Tools\MSVC\14.44.35207\include\xmemory

; 1890 :                 _Dest += _ULast - _UFirst;

  00285	8d 04 3e	 lea	 eax, DWORD PTR [esi+edi]
  00288	83 c4 0c	 add	 esp, 12			; 0000000cH
; File C:\Program Files\Microsoft Visual Studio\2022\Community\VC\Tools\MSVC\14.44.35207\include\vector

; 2120 :                 _My_data._Mylast = _STD _Uninitialized_copy(_STD forward<_Valty>(_Val)..., _My_data._Myfirst, _Al);

  0028b	89 85 f8 fe ff
	ff		 mov	 DWORD PTR $T65[ebp+4], eax
$LN199@dynamic:
; File C:\Anka2Project\Anka2Project\Source\Binary\source\UserInterface\PythonPlayerSettingsModule.h

; 618  : static const std::map<uint8_t, std::map<uint8_t, std::vector<uint8_t>>> skillIndexes{

  00291	c6 45 fc 07	 mov	 BYTE PTR __$EHRec$[ebp+8], 7
; File C:\Program Files\Microsoft Visual Studio\2022\Community\VC\Tools\MSVC\14.44.35207\include\utility

; 263  :         : first(_Val1), second(_Val2) {}

  00295	c6 85 5c fe ff
	ff 01		 mov	 BYTE PTR $T74[ebp], 1
; File C:\Program Files\Microsoft Visual Studio\2022\Community\VC\Tools\MSVC\14.44.35207\include\vector

; 400  :     _CONSTEXPR20 _Vector_val() noexcept : _Myfirst(), _Mylast(), _Myend() {}

  0029c	c7 85 60 fe ff
	ff 00 00 00 00	 mov	 DWORD PTR $T74[ebp+4], 0
  002a6	c7 85 64 fe ff
	ff 00 00 00 00	 mov	 DWORD PTR $T74[ebp+8], 0
  002b0	c7 85 68 fe ff
	ff 00 00 00 00	 mov	 DWORD PTR $T74[ebp+12], 0

; 748  :         const auto _Count       = static_cast<size_type>(_Right_data._Mylast - _Right_data._Myfirst);

  002ba	2b c1		 sub	 eax, ecx

; 2111 :         if (_Count != 0) {

  002bc	74 3d		 je	 SHORT $LN230@dynamic

; 2112 :             _Buy_nonzero(_Count);

  002be	50		 push	 eax
  002bf	8d 8d 60 fe ff
	ff		 lea	 ecx, DWORD PTR $T74[ebp+4]
  002c5	e8 00 00 00 00	 call	 ?_Buy_nonzero@?$vector@EV?$allocator@E@std@@@std@@AAEXI@Z ; std::vector<unsigned char,std::allocator<unsigned char> >::_Buy_nonzero

; 2120 :                 _My_data._Mylast = _STD _Uninitialized_copy(_STD forward<_Valty>(_Val)..., _My_data._Myfirst, _Al);

  002ca	8b 85 60 fe ff
	ff		 mov	 eax, DWORD PTR $T74[ebp+4]
; File C:\Program Files\Microsoft Visual Studio\2022\Community\VC\Tools\MSVC\14.44.35207\include\xmemory

; 1872 :     auto _ULast  = _RANGES _Unwrap_sent<_InIt>(_STD move(_Last));

  002d0	8b bd f8 fe ff
	ff		 mov	 edi, DWORD PTR $T65[ebp+4]
  002d6	8b b5 f4 fe ff
	ff		 mov	 esi, DWORD PTR $T65[ebp]

; 1889 :                 _STD _Copy_memmove(_STD _To_address(_UFirst), _STD _To_address(_ULast), _STD _Unfancy(_Dest));

  002dc	50		 push	 eax
  002dd	57		 push	 edi
  002de	56		 push	 esi
; File C:\Program Files\Microsoft Visual Studio\2022\Community\VC\Tools\MSVC\14.44.35207\include\vector

; 2120 :                 _My_data._Mylast = _STD _Uninitialized_copy(_STD forward<_Valty>(_Val)..., _My_data._Myfirst, _Al);

  002df	89 85 3c ff ff
	ff		 mov	 DWORD PTR __Dest$1$[ebp], eax
; File C:\Program Files\Microsoft Visual Studio\2022\Community\VC\Tools\MSVC\14.44.35207\include\xmemory

; 1889 :                 _STD _Copy_memmove(_STD _To_address(_UFirst), _STD _To_address(_ULast), _STD _Unfancy(_Dest));

  002e5	e8 00 00 00 00	 call	 ??$_Copy_memmove@PAEPAE@std@@YAPAEPAE00@Z ; std::_Copy_memmove<unsigned char *,unsigned char *>
; File C:\Program Files\Microsoft Visual Studio\2022\Community\VC\Tools\MSVC\14.44.35207\include\vector

; 2120 :                 _My_data._Mylast = _STD _Uninitialized_copy(_STD forward<_Valty>(_Val)..., _My_data._Myfirst, _Al);

  002ea	2b fe		 sub	 edi, esi
; File C:\Program Files\Microsoft Visual Studio\2022\Community\VC\Tools\MSVC\14.44.35207\include\xmemory

; 1889 :                 _STD _Copy_memmove(_STD _To_address(_UFirst), _STD _To_address(_ULast), _STD _Unfancy(_Dest));

  002ec	83 c4 0c	 add	 esp, 12			; 0000000cH

; 1890 :                 _Dest += _ULast - _UFirst;

  002ef	03 bd 3c ff ff
	ff		 add	 edi, DWORD PTR __Dest$1$[ebp]
; File C:\Program Files\Microsoft Visual Studio\2022\Community\VC\Tools\MSVC\14.44.35207\include\vector

; 2120 :                 _My_data._Mylast = _STD _Uninitialized_copy(_STD forward<_Valty>(_Val)..., _My_data._Myfirst, _Al);

  002f5	89 bd 64 fe ff
	ff		 mov	 DWORD PTR $T74[ebp+8], edi
$LN230@dynamic:
; File C:\Anka2Project\Anka2Project\Source\Binary\source\UserInterface\PythonPlayerSettingsModule.h

; 618  : static const std::map<uint8_t, std::map<uint8_t, std::vector<uint8_t>>> skillIndexes{

  002fb	c6 45 fc 08	 mov	 BYTE PTR __$EHRec$[ebp+8], 8
; File C:\Program Files\Microsoft Visual Studio\2022\Community\VC\Tools\MSVC\14.44.35207\include\initializer_list

; 34   :         : _First(_First_arg), _Last(_Last_arg) {}

  002ff	8d 95 70 ff ff
	ff		 lea	 edx, DWORD PTR $T87[ebp]
; File C:\Program Files\Microsoft Visual Studio\2022\Community\VC\Tools\MSVC\14.44.35207\include\vector

; 400  :     _CONSTEXPR20 _Vector_val() noexcept : _Myfirst(), _Mylast(), _Myend() {}

  00305	33 c0		 xor	 eax, eax
; File C:\Anka2Project\Anka2Project\Source\Binary\source\UserInterface\PythonPlayerSettingsModule.h

; 618  : static const std::map<uint8_t, std::map<uint8_t, std::vector<uint8_t>>> skillIndexes{

  00307	c7 85 70 ff ff
	ff 2e 2f 30 31	 mov	 DWORD PTR $T87[ebp], 825241390 ; 31302f2eH
; File C:\Program Files\Microsoft Visual Studio\2022\Community\VC\Tools\MSVC\14.44.35207\include\initializer_list

; 34   :         : _First(_First_arg), _Last(_Last_arg) {}

  00311	8d bd 7f ff ff
	ff		 lea	 edi, DWORD PTR $T87[ebp+15]
; File C:\Anka2Project\Anka2Project\Source\Binary\source\UserInterface\PythonPlayerSettingsModule.h

; 618  : static const std::map<uint8_t, std::map<uint8_t, std::vector<uint8_t>>> skillIndexes{

  00317	c7 85 74 ff ff
	ff 32 00 00 00	 mov	 DWORD PTR $T87[ebp+4], 50 ; 00000032H
; File C:\Program Files\Microsoft Visual Studio\2022\Community\VC\Tools\MSVC\14.44.35207\include\vector

; 400  :     _CONSTEXPR20 _Vector_val() noexcept : _Myfirst(), _Mylast(), _Myend() {}

  00321	33 c9		 xor	 ecx, ecx
; File C:\Anka2Project\Anka2Project\Source\Binary\source\UserInterface\PythonPlayerSettingsModule.h

; 618  : static const std::map<uint8_t, std::map<uint8_t, std::vector<uint8_t>>> skillIndexes{

  00323	c7 85 78 ff ff
	ff 89 00 8a 00	 mov	 DWORD PTR $T87[ebp+8], 9044105 ; 008a0089H
  0032d	66 c7 85 7c ff
	ff ff 8b 00	 mov	 WORD PTR $T87[ebp+12], 139 ; 0000008bH
  00336	c6 85 7e ff ff
	ff 8c		 mov	 BYTE PTR $T87[ebp+14], 140 ; 0000008cH
; File C:\Program Files\Microsoft Visual Studio\2022\Community\VC\Tools\MSVC\14.44.35207\include\vector

; 400  :     _CONSTEXPR20 _Vector_val() noexcept : _Myfirst(), _Mylast(), _Myend() {}

  0033d	89 8d 00 ff ff
	ff		 mov	 DWORD PTR $T91[ebp], ecx
  00343	89 85 04 ff ff
	ff		 mov	 DWORD PTR $T91[ebp+4], eax
  00349	89 85 08 ff ff
	ff		 mov	 DWORD PTR $T91[ebp+8], eax

; 721  :         _Construct_n(_Convert_size<size_type>(_Ilist.size()), _Ilist.begin(), _Ilist.end());

  0034f	2b fa		 sub	 edi, edx

; 2111 :         if (_Count != 0) {

  00351	74 38		 je	 SHORT $LN264@dynamic

; 2112 :             _Buy_nonzero(_Count);

  00353	57		 push	 edi
  00354	8d 8d 00 ff ff
	ff		 lea	 ecx, DWORD PTR $T91[ebp]
  0035a	e8 00 00 00 00	 call	 ?_Buy_nonzero@?$vector@EV?$allocator@E@std@@@std@@AAEXI@Z ; std::vector<unsigned char,std::allocator<unsigned char> >::_Buy_nonzero

; 2120 :                 _My_data._Mylast = _STD _Uninitialized_copy(_STD forward<_Valty>(_Val)..., _My_data._Myfirst, _Al);

  0035f	8b b5 00 ff ff
	ff		 mov	 esi, DWORD PTR $T91[ebp]
; File C:\Program Files\Microsoft Visual Studio\2022\Community\VC\Tools\MSVC\14.44.35207\include\xmemory

; 1889 :                 _STD _Copy_memmove(_STD _To_address(_UFirst), _STD _To_address(_ULast), _STD _Unfancy(_Dest));

  00365	8d 85 7f ff ff
	ff		 lea	 eax, DWORD PTR $T87[ebp+15]
  0036b	56		 push	 esi
  0036c	50		 push	 eax
  0036d	8d 85 70 ff ff
	ff		 lea	 eax, DWORD PTR $T87[ebp]
  00373	50		 push	 eax
  00374	e8 00 00 00 00	 call	 ??$_Copy_memmove@PBEPAE@std@@YAPAEPBE0PAE@Z ; std::_Copy_memmove<unsigned char const *,unsigned char *>
; File C:\Program Files\Microsoft Visual Studio\2022\Community\VC\Tools\MSVC\14.44.35207\include\vector

; 2120 :                 _My_data._Mylast = _STD _Uninitialized_copy(_STD forward<_Valty>(_Val)..., _My_data._Myfirst, _Al);

  00379	8b 8d 00 ff ff
	ff		 mov	 ecx, DWORD PTR $T91[ebp]
; File C:\Program Files\Microsoft Visual Studio\2022\Community\VC\Tools\MSVC\14.44.35207\include\xmemory

; 1890 :                 _Dest += _ULast - _UFirst;

  0037f	8d 04 3e	 lea	 eax, DWORD PTR [esi+edi]
  00382	83 c4 0c	 add	 esp, 12			; 0000000cH
; File C:\Program Files\Microsoft Visual Studio\2022\Community\VC\Tools\MSVC\14.44.35207\include\vector

; 2120 :                 _My_data._Mylast = _STD _Uninitialized_copy(_STD forward<_Valty>(_Val)..., _My_data._Myfirst, _Al);

  00385	89 85 04 ff ff
	ff		 mov	 DWORD PTR $T91[ebp+4], eax
$LN264@dynamic:
; File C:\Anka2Project\Anka2Project\Source\Binary\source\UserInterface\PythonPlayerSettingsModule.h

; 618  : static const std::map<uint8_t, std::map<uint8_t, std::vector<uint8_t>>> skillIndexes{

  0038b	c6 45 fc 09	 mov	 BYTE PTR __$EHRec$[ebp+8], 9
; File C:\Program Files\Microsoft Visual Studio\2022\Community\VC\Tools\MSVC\14.44.35207\include\utility

; 263  :         : first(_Val1), second(_Val2) {}

  0038f	c6 85 6c fe ff
	ff 02		 mov	 BYTE PTR $T74[ebp+16], 2
; File C:\Program Files\Microsoft Visual Studio\2022\Community\VC\Tools\MSVC\14.44.35207\include\vector

; 400  :     _CONSTEXPR20 _Vector_val() noexcept : _Myfirst(), _Mylast(), _Myend() {}

  00396	c7 85 70 fe ff
	ff 00 00 00 00	 mov	 DWORD PTR $T74[ebp+20], 0
  003a0	c7 85 74 fe ff
	ff 00 00 00 00	 mov	 DWORD PTR $T74[ebp+24], 0
  003aa	c7 85 78 fe ff
	ff 00 00 00 00	 mov	 DWORD PTR $T74[ebp+28], 0

; 748  :         const auto _Count       = static_cast<size_type>(_Right_data._Mylast - _Right_data._Myfirst);

  003b4	2b c1		 sub	 eax, ecx

; 2111 :         if (_Count != 0) {

  003b6	74 3d		 je	 SHORT $LN295@dynamic

; 2112 :             _Buy_nonzero(_Count);

  003b8	50		 push	 eax
  003b9	8d 8d 70 fe ff
	ff		 lea	 ecx, DWORD PTR $T74[ebp+20]
  003bf	e8 00 00 00 00	 call	 ?_Buy_nonzero@?$vector@EV?$allocator@E@std@@@std@@AAEXI@Z ; std::vector<unsigned char,std::allocator<unsigned char> >::_Buy_nonzero

; 2120 :                 _My_data._Mylast = _STD _Uninitialized_copy(_STD forward<_Valty>(_Val)..., _My_data._Myfirst, _Al);

  003c4	8b 85 70 fe ff
	ff		 mov	 eax, DWORD PTR $T74[ebp+20]
; File C:\Program Files\Microsoft Visual Studio\2022\Community\VC\Tools\MSVC\14.44.35207\include\xmemory

; 1872 :     auto _ULast  = _RANGES _Unwrap_sent<_InIt>(_STD move(_Last));

  003ca	8b bd 04 ff ff
	ff		 mov	 edi, DWORD PTR $T91[ebp+4]
  003d0	8b b5 00 ff ff
	ff		 mov	 esi, DWORD PTR $T91[ebp]

; 1889 :                 _STD _Copy_memmove(_STD _To_address(_UFirst), _STD _To_address(_ULast), _STD _Unfancy(_Dest));

  003d6	50		 push	 eax
  003d7	57		 push	 edi
  003d8	56		 push	 esi
; File C:\Program Files\Microsoft Visual Studio\2022\Community\VC\Tools\MSVC\14.44.35207\include\vector

; 2120 :                 _My_data._Mylast = _STD _Uninitialized_copy(_STD forward<_Valty>(_Val)..., _My_data._Myfirst, _Al);

  003d9	89 85 3c ff ff
	ff		 mov	 DWORD PTR __Dest$1$[ebp], eax
; File C:\Program Files\Microsoft Visual Studio\2022\Community\VC\Tools\MSVC\14.44.35207\include\xmemory

; 1889 :                 _STD _Copy_memmove(_STD _To_address(_UFirst), _STD _To_address(_ULast), _STD _Unfancy(_Dest));

  003df	e8 00 00 00 00	 call	 ??$_Copy_memmove@PAEPAE@std@@YAPAEPAE00@Z ; std::_Copy_memmove<unsigned char *,unsigned char *>
; File C:\Program Files\Microsoft Visual Studio\2022\Community\VC\Tools\MSVC\14.44.35207\include\vector

; 2120 :                 _My_data._Mylast = _STD _Uninitialized_copy(_STD forward<_Valty>(_Val)..., _My_data._Myfirst, _Al);

  003e4	2b fe		 sub	 edi, esi
; File C:\Program Files\Microsoft Visual Studio\2022\Community\VC\Tools\MSVC\14.44.35207\include\xmemory

; 1889 :                 _STD _Copy_memmove(_STD _To_address(_UFirst), _STD _To_address(_ULast), _STD _Unfancy(_Dest));

  003e6	83 c4 0c	 add	 esp, 12			; 0000000cH

; 1890 :                 _Dest += _ULast - _UFirst;

  003e9	03 bd 3c ff ff
	ff		 add	 edi, DWORD PTR __Dest$1$[ebp]
; File C:\Program Files\Microsoft Visual Studio\2022\Community\VC\Tools\MSVC\14.44.35207\include\vector

; 2120 :                 _My_data._Mylast = _STD _Uninitialized_copy(_STD forward<_Valty>(_Val)..., _My_data._Myfirst, _Al);

  003ef	89 bd 74 fe ff
	ff		 mov	 DWORD PTR $T74[ebp+24], edi
$LN295@dynamic:
; File C:\Program Files\Microsoft Visual Studio\2022\Community\VC\Tools\MSVC\14.44.35207\include\initializer_list

; 34   :         : _First(_First_arg), _Last(_Last_arg) {}

  003f5	8d 85 7c fe ff
	ff		 lea	 eax, DWORD PTR $T74[ebp+32]
; File C:\Anka2Project\Anka2Project\Source\Binary\source\UserInterface\PythonPlayerSettingsModule.h

; 618  : static const std::map<uint8_t, std::map<uint8_t, std::vector<uint8_t>>> skillIndexes{

  003fb	c6 45 fc 0b	 mov	 BYTE PTR __$EHRec$[ebp+8], 11 ; 0000000bH
; File C:\Program Files\Microsoft Visual Studio\2022\Community\VC\Tools\MSVC\14.44.35207\include\initializer_list

; 34   :         : _First(_First_arg), _Last(_Last_arg) {}

  003ff	8d 8d 5c fe ff
	ff		 lea	 ecx, DWORD PTR $T74[ebp]
; File C:\Anka2Project\Anka2Project\Source\Binary\source\UserInterface\PythonPlayerSettingsModule.h

; 618  : static const std::map<uint8_t, std::map<uint8_t, std::vector<uint8_t>>> skillIndexes{

  00405	50		 push	 eax
  00406	51		 push	 ecx
  00407	8d 8d c4 fe ff
	ff		 lea	 ecx, DWORD PTR $T112[ebp]
  0040d	e8 00 00 00 00	 call	 ??0?$map@EV?$vector@EV?$allocator@E@std@@@std@@U?$less@E@2@V?$allocator@U?$pair@$$CBEV?$vector@EV?$allocator@E@std@@@std@@@std@@@2@@std@@QAE@V?$initializer_list@U?$pair@$$CBEV?$vector@EV?$allocator@E@std@@@std@@@std@@@1@@Z ; std::map<unsigned char,std::vector<unsigned char,std::allocator<unsigned char> >,std::less<unsigned char>,std::allocator<std::pair<unsigned char const ,std::vector<unsigned char,std::allocator<unsigned char> > > > >::map<unsigned char,std::vector<unsigned char,std::allocator<unsigned char> >,std::less<unsigned char>,std::allocator<std::pair<unsigned char const ,std::vector<unsigned char,std::allocator<unsigned char> > > > >
; File C:\Program Files\Microsoft Visual Studio\2022\Community\VC\Tools\MSVC\14.44.35207\include\utility

; 263  :         : first(_Val1), second(_Val2) {}

  00412	8d 85 c4 fe ff
	ff		 lea	 eax, DWORD PTR $T112[ebp]
; File C:\Anka2Project\Anka2Project\Source\Binary\source\UserInterface\PythonPlayerSettingsModule.h

; 618  : static const std::map<uint8_t, std::map<uint8_t, std::vector<uint8_t>>> skillIndexes{

  00418	c6 45 fc 0c	 mov	 BYTE PTR __$EHRec$[ebp+8], 12 ; 0000000cH
; File C:\Program Files\Microsoft Visual Studio\2022\Community\VC\Tools\MSVC\14.44.35207\include\utility

; 263  :         : first(_Val1), second(_Val2) {}

  0041c	50		 push	 eax
  0041d	8d 8d 50 ff ff
	ff		 lea	 ecx, DWORD PTR $T56[ebp+16]
  00423	c6 85 4c ff ff
	ff 01		 mov	 BYTE PTR $T56[ebp+12], 1
  0042a	e8 00 00 00 00	 call	 ??0?$map@EV?$vector@EV?$allocator@E@std@@@std@@U?$less@E@2@V?$allocator@U?$pair@$$CBEV?$vector@EV?$allocator@E@std@@@std@@@std@@@2@@std@@QAE@ABV01@@Z ; std::map<unsigned char,std::vector<unsigned char,std::allocator<unsigned char> >,std::less<unsigned char>,std::allocator<std::pair<unsigned char const ,std::vector<unsigned char,std::allocator<unsigned char> > > > >::map<unsigned char,std::vector<unsigned char,std::allocator<unsigned char> >,std::less<unsigned char>,std::allocator<std::pair<unsigned char const ,std::vector<unsigned char,std::allocator<unsigned char> > > > >
; File C:\Anka2Project\Anka2Project\Source\Binary\source\UserInterface\PythonPlayerSettingsModule.h

; 618  : static const std::map<uint8_t, std::map<uint8_t, std::vector<uint8_t>>> skillIndexes{

  0042f	c6 45 fc 0d	 mov	 BYTE PTR __$EHRec$[ebp+8], 13 ; 0000000dH
; File C:\Program Files\Microsoft Visual Studio\2022\Community\VC\Tools\MSVC\14.44.35207\include\initializer_list

; 34   :         : _First(_First_arg), _Last(_Last_arg) {}

  00433	8d 55 c0	 lea	 edx, DWORD PTR $T117[ebp]
; File C:\Program Files\Microsoft Visual Studio\2022\Community\VC\Tools\MSVC\14.44.35207\include\vector

; 400  :     _CONSTEXPR20 _Vector_val() noexcept : _Myfirst(), _Mylast(), _Myend() {}

  00436	33 c0		 xor	 eax, eax
; File C:\Anka2Project\Anka2Project\Source\Binary\source\UserInterface\PythonPlayerSettingsModule.h

; 618  : static const std::map<uint8_t, std::map<uint8_t, std::vector<uint8_t>>> skillIndexes{

  00438	c7 45 c0 3d 3e
	3f 40		 mov	 DWORD PTR $T117[ebp], 1077886525 ; 403f3e3dH
; File C:\Program Files\Microsoft Visual Studio\2022\Community\VC\Tools\MSVC\14.44.35207\include\initializer_list

; 34   :         : _First(_First_arg), _Last(_Last_arg) {}

  0043f	8d 7d ce	 lea	 edi, DWORD PTR $T117[ebp+14]
; File C:\Anka2Project\Anka2Project\Source\Binary\source\UserInterface\PythonPlayerSettingsModule.h

; 618  : static const std::map<uint8_t, std::map<uint8_t, std::vector<uint8_t>>> skillIndexes{

  00442	c7 45 c4 41 42
	00 00		 mov	 DWORD PTR $T117[ebp+4], 16961 ; 00004241H
; File C:\Program Files\Microsoft Visual Studio\2022\Community\VC\Tools\MSVC\14.44.35207\include\vector

; 400  :     _CONSTEXPR20 _Vector_val() noexcept : _Myfirst(), _Mylast(), _Myend() {}

  00449	33 c9		 xor	 ecx, ecx
; File C:\Anka2Project\Anka2Project\Source\Binary\source\UserInterface\PythonPlayerSettingsModule.h

; 618  : static const std::map<uint8_t, std::map<uint8_t, std::vector<uint8_t>>> skillIndexes{

  0044b	c7 45 c8 89 00
	8a 00		 mov	 DWORD PTR $T117[ebp+8], 9044105 ; 008a0089H
  00452	66 c7 45 cc 8b
	00		 mov	 WORD PTR $T117[ebp+12], 139 ; 0000008bH
; File C:\Program Files\Microsoft Visual Studio\2022\Community\VC\Tools\MSVC\14.44.35207\include\vector

; 400  :     _CONSTEXPR20 _Vector_val() noexcept : _Myfirst(), _Mylast(), _Myend() {}

  00458	89 8d 0c ff ff
	ff		 mov	 DWORD PTR $T121[ebp], ecx
  0045e	89 85 10 ff ff
	ff		 mov	 DWORD PTR $T121[ebp+4], eax
  00464	89 85 14 ff ff
	ff		 mov	 DWORD PTR $T121[ebp+8], eax

; 721  :         _Construct_n(_Convert_size<size_type>(_Ilist.size()), _Ilist.begin(), _Ilist.end());

  0046a	2b fa		 sub	 edi, edx

; 2111 :         if (_Count != 0) {

  0046c	74 32		 je	 SHORT $LN335@dynamic

; 2112 :             _Buy_nonzero(_Count);

  0046e	57		 push	 edi
  0046f	8d 8d 0c ff ff
	ff		 lea	 ecx, DWORD PTR $T121[ebp]
  00475	e8 00 00 00 00	 call	 ?_Buy_nonzero@?$vector@EV?$allocator@E@std@@@std@@AAEXI@Z ; std::vector<unsigned char,std::allocator<unsigned char> >::_Buy_nonzero

; 2120 :                 _My_data._Mylast = _STD _Uninitialized_copy(_STD forward<_Valty>(_Val)..., _My_data._Myfirst, _Al);

  0047a	8b b5 0c ff ff
	ff		 mov	 esi, DWORD PTR $T121[ebp]
; File C:\Program Files\Microsoft Visual Studio\2022\Community\VC\Tools\MSVC\14.44.35207\include\xmemory

; 1889 :                 _STD _Copy_memmove(_STD _To_address(_UFirst), _STD _To_address(_ULast), _STD _Unfancy(_Dest));

  00480	8d 45 ce	 lea	 eax, DWORD PTR $T117[ebp+14]
  00483	56		 push	 esi
  00484	50		 push	 eax
  00485	8d 45 c0	 lea	 eax, DWORD PTR $T117[ebp]
  00488	50		 push	 eax
  00489	e8 00 00 00 00	 call	 ??$_Copy_memmove@PBEPAE@std@@YAPAEPBE0PAE@Z ; std::_Copy_memmove<unsigned char const *,unsigned char *>
; File C:\Program Files\Microsoft Visual Studio\2022\Community\VC\Tools\MSVC\14.44.35207\include\vector

; 2120 :                 _My_data._Mylast = _STD _Uninitialized_copy(_STD forward<_Valty>(_Val)..., _My_data._Myfirst, _Al);

  0048e	8b 8d 0c ff ff
	ff		 mov	 ecx, DWORD PTR $T121[ebp]
; File C:\Program Files\Microsoft Visual Studio\2022\Community\VC\Tools\MSVC\14.44.35207\include\xmemory

; 1890 :                 _Dest += _ULast - _UFirst;

  00494	8d 04 3e	 lea	 eax, DWORD PTR [esi+edi]
  00497	83 c4 0c	 add	 esp, 12			; 0000000cH
; File C:\Program Files\Microsoft Visual Studio\2022\Community\VC\Tools\MSVC\14.44.35207\include\vector

; 2120 :                 _My_data._Mylast = _STD _Uninitialized_copy(_STD forward<_Valty>(_Val)..., _My_data._Myfirst, _Al);

  0049a	89 85 10 ff ff
	ff		 mov	 DWORD PTR $T121[ebp+4], eax
$LN335@dynamic:
; File C:\Anka2Project\Anka2Project\Source\Binary\source\UserInterface\PythonPlayerSettingsModule.h

; 618  : static const std::map<uint8_t, std::map<uint8_t, std::vector<uint8_t>>> skillIndexes{

  004a0	c6 45 fc 0e	 mov	 BYTE PTR __$EHRec$[ebp+8], 14 ; 0000000eH
; File C:\Program Files\Microsoft Visual Studio\2022\Community\VC\Tools\MSVC\14.44.35207\include\utility

; 263  :         : first(_Val1), second(_Val2) {}

  004a4	c6 85 7c fe ff
	ff 01		 mov	 BYTE PTR $T130[ebp], 1
; File C:\Program Files\Microsoft Visual Studio\2022\Community\VC\Tools\MSVC\14.44.35207\include\vector

; 400  :     _CONSTEXPR20 _Vector_val() noexcept : _Myfirst(), _Mylast(), _Myend() {}

  004ab	c7 85 80 fe ff
	ff 00 00 00 00	 mov	 DWORD PTR $T130[ebp+4], 0
  004b5	c7 85 84 fe ff
	ff 00 00 00 00	 mov	 DWORD PTR $T130[ebp+8], 0
  004bf	c7 85 88 fe ff
	ff 00 00 00 00	 mov	 DWORD PTR $T130[ebp+12], 0

; 748  :         const auto _Count       = static_cast<size_type>(_Right_data._Mylast - _Right_data._Myfirst);

  004c9	2b c1		 sub	 eax, ecx

; 2111 :         if (_Count != 0) {

  004cb	74 3d		 je	 SHORT $LN366@dynamic

; 2112 :             _Buy_nonzero(_Count);

  004cd	50		 push	 eax
  004ce	8d 8d 80 fe ff
	ff		 lea	 ecx, DWORD PTR $T130[ebp+4]
  004d4	e8 00 00 00 00	 call	 ?_Buy_nonzero@?$vector@EV?$allocator@E@std@@@std@@AAEXI@Z ; std::vector<unsigned char,std::allocator<unsigned char> >::_Buy_nonzero

; 2120 :                 _My_data._Mylast = _STD _Uninitialized_copy(_STD forward<_Valty>(_Val)..., _My_data._Myfirst, _Al);

  004d9	8b 85 80 fe ff
	ff		 mov	 eax, DWORD PTR $T130[ebp+4]
; File C:\Program Files\Microsoft Visual Studio\2022\Community\VC\Tools\MSVC\14.44.35207\include\xmemory

; 1872 :     auto _ULast  = _RANGES _Unwrap_sent<_InIt>(_STD move(_Last));

  004df	8b bd 10 ff ff
	ff		 mov	 edi, DWORD PTR $T121[ebp+4]
  004e5	8b b5 0c ff ff
	ff		 mov	 esi, DWORD PTR $T121[ebp]

; 1889 :                 _STD _Copy_memmove(_STD _To_address(_UFirst), _STD _To_address(_ULast), _STD _Unfancy(_Dest));

  004eb	50		 push	 eax
  004ec	57		 push	 edi
  004ed	56		 push	 esi
; File C:\Program Files\Microsoft Visual Studio\2022\Community\VC\Tools\MSVC\14.44.35207\include\vector

; 2120 :                 _My_data._Mylast = _STD _Uninitialized_copy(_STD forward<_Valty>(_Val)..., _My_data._Myfirst, _Al);

  004ee	89 85 3c ff ff
	ff		 mov	 DWORD PTR __Dest$1$[ebp], eax
; File C:\Program Files\Microsoft Visual Studio\2022\Community\VC\Tools\MSVC\14.44.35207\include\xmemory

; 1889 :                 _STD _Copy_memmove(_STD _To_address(_UFirst), _STD _To_address(_ULast), _STD _Unfancy(_Dest));

  004f4	e8 00 00 00 00	 call	 ??$_Copy_memmove@PAEPAE@std@@YAPAEPAE00@Z ; std::_Copy_memmove<unsigned char *,unsigned char *>
; File C:\Program Files\Microsoft Visual Studio\2022\Community\VC\Tools\MSVC\14.44.35207\include\vector

; 2120 :                 _My_data._Mylast = _STD _Uninitialized_copy(_STD forward<_Valty>(_Val)..., _My_data._Myfirst, _Al);

  004f9	2b fe		 sub	 edi, esi
; File C:\Program Files\Microsoft Visual Studio\2022\Community\VC\Tools\MSVC\14.44.35207\include\xmemory

; 1889 :                 _STD _Copy_memmove(_STD _To_address(_UFirst), _STD _To_address(_ULast), _STD _Unfancy(_Dest));

  004fb	83 c4 0c	 add	 esp, 12			; 0000000cH

; 1890 :                 _Dest += _ULast - _UFirst;

  004fe	03 bd 3c ff ff
	ff		 add	 edi, DWORD PTR __Dest$1$[ebp]
; File C:\Program Files\Microsoft Visual Studio\2022\Community\VC\Tools\MSVC\14.44.35207\include\vector

; 2120 :                 _My_data._Mylast = _STD _Uninitialized_copy(_STD forward<_Valty>(_Val)..., _My_data._Myfirst, _Al);

  00504	89 bd 84 fe ff
	ff		 mov	 DWORD PTR $T130[ebp+8], edi
$LN366@dynamic:
; File C:\Anka2Project\Anka2Project\Source\Binary\source\UserInterface\PythonPlayerSettingsModule.h

; 618  : static const std::map<uint8_t, std::map<uint8_t, std::vector<uint8_t>>> skillIndexes{

  0050a	c6 45 fc 0f	 mov	 BYTE PTR __$EHRec$[ebp+8], 15 ; 0000000fH
; File C:\Program Files\Microsoft Visual Studio\2022\Community\VC\Tools\MSVC\14.44.35207\include\initializer_list

; 34   :         : _First(_First_arg), _Last(_Last_arg) {}

  0050e	8d 55 b0	 lea	 edx, DWORD PTR $T143[ebp]
; File C:\Program Files\Microsoft Visual Studio\2022\Community\VC\Tools\MSVC\14.44.35207\include\vector

; 400  :     _CONSTEXPR20 _Vector_val() noexcept : _Myfirst(), _Mylast(), _Myend() {}

  00511	33 c0		 xor	 eax, eax
; File C:\Anka2Project\Anka2Project\Source\Binary\source\UserInterface\PythonPlayerSettingsModule.h

; 618  : static const std::map<uint8_t, std::map<uint8_t, std::vector<uint8_t>>> skillIndexes{

  00513	c7 45 b0 4c 4d
	4e 4f		 mov	 DWORD PTR $T143[ebp], 1330531660 ; 4f4e4d4cH
; File C:\Program Files\Microsoft Visual Studio\2022\Community\VC\Tools\MSVC\14.44.35207\include\initializer_list

; 34   :         : _First(_First_arg), _Last(_Last_arg) {}

  0051a	8d 7d be	 lea	 edi, DWORD PTR $T143[ebp+14]
; File C:\Anka2Project\Anka2Project\Source\Binary\source\UserInterface\PythonPlayerSettingsModule.h

; 618  : static const std::map<uint8_t, std::map<uint8_t, std::vector<uint8_t>>> skillIndexes{

  0051d	c7 45 b4 50 51
	00 00		 mov	 DWORD PTR $T143[ebp+4], 20816 ; 00005150H
; File C:\Program Files\Microsoft Visual Studio\2022\Community\VC\Tools\MSVC\14.44.35207\include\vector

; 400  :     _CONSTEXPR20 _Vector_val() noexcept : _Myfirst(), _Mylast(), _Myend() {}

  00524	33 c9		 xor	 ecx, ecx
; File C:\Anka2Project\Anka2Project\Source\Binary\source\UserInterface\PythonPlayerSettingsModule.h

; 618  : static const std::map<uint8_t, std::map<uint8_t, std::vector<uint8_t>>> skillIndexes{

  00526	c7 45 b8 89 00
	8a 00		 mov	 DWORD PTR $T143[ebp+8], 9044105 ; 008a0089H
  0052d	66 c7 45 bc 8b
	00		 mov	 WORD PTR $T143[ebp+12], 139 ; 0000008bH
; File C:\Program Files\Microsoft Visual Studio\2022\Community\VC\Tools\MSVC\14.44.35207\include\vector

; 400  :     _CONSTEXPR20 _Vector_val() noexcept : _Myfirst(), _Mylast(), _Myend() {}

  00533	89 8d 18 ff ff
	ff		 mov	 DWORD PTR $T147[ebp], ecx
  00539	89 85 1c ff ff
	ff		 mov	 DWORD PTR $T147[ebp+4], eax
  0053f	89 85 20 ff ff
	ff		 mov	 DWORD PTR $T147[ebp+8], eax

; 721  :         _Construct_n(_Convert_size<size_type>(_Ilist.size()), _Ilist.begin(), _Ilist.end());

  00545	2b fa		 sub	 edi, edx

; 2111 :         if (_Count != 0) {

  00547	74 32		 je	 SHORT $LN400@dynamic

; 2112 :             _Buy_nonzero(_Count);

  00549	57		 push	 edi
  0054a	8d 8d 18 ff ff
	ff		 lea	 ecx, DWORD PTR $T147[ebp]
  00550	e8 00 00 00 00	 call	 ?_Buy_nonzero@?$vector@EV?$allocator@E@std@@@std@@AAEXI@Z ; std::vector<unsigned char,std::allocator<unsigned char> >::_Buy_nonzero

; 2120 :                 _My_data._Mylast = _STD _Uninitialized_copy(_STD forward<_Valty>(_Val)..., _My_data._Myfirst, _Al);

  00555	8b b5 18 ff ff
	ff		 mov	 esi, DWORD PTR $T147[ebp]
; File C:\Program Files\Microsoft Visual Studio\2022\Community\VC\Tools\MSVC\14.44.35207\include\xmemory

; 1889 :                 _STD _Copy_memmove(_STD _To_address(_UFirst), _STD _To_address(_ULast), _STD _Unfancy(_Dest));

  0055b	8d 45 be	 lea	 eax, DWORD PTR $T143[ebp+14]
  0055e	56		 push	 esi
  0055f	50		 push	 eax
  00560	8d 45 b0	 lea	 eax, DWORD PTR $T143[ebp]
  00563	50		 push	 eax
  00564	e8 00 00 00 00	 call	 ??$_Copy_memmove@PBEPAE@std@@YAPAEPBE0PAE@Z ; std::_Copy_memmove<unsigned char const *,unsigned char *>
; File C:\Program Files\Microsoft Visual Studio\2022\Community\VC\Tools\MSVC\14.44.35207\include\vector

; 2120 :                 _My_data._Mylast = _STD _Uninitialized_copy(_STD forward<_Valty>(_Val)..., _My_data._Myfirst, _Al);

  00569	8b 8d 18 ff ff
	ff		 mov	 ecx, DWORD PTR $T147[ebp]
; File C:\Program Files\Microsoft Visual Studio\2022\Community\VC\Tools\MSVC\14.44.35207\include\xmemory

; 1890 :                 _Dest += _ULast - _UFirst;

  0056f	8d 04 37	 lea	 eax, DWORD PTR [edi+esi]
  00572	83 c4 0c	 add	 esp, 12			; 0000000cH
; File C:\Program Files\Microsoft Visual Studio\2022\Community\VC\Tools\MSVC\14.44.35207\include\vector

; 2120 :                 _My_data._Mylast = _STD _Uninitialized_copy(_STD forward<_Valty>(_Val)..., _My_data._Myfirst, _Al);

  00575	89 85 1c ff ff
	ff		 mov	 DWORD PTR $T147[ebp+4], eax
$LN400@dynamic:
; File C:\Anka2Project\Anka2Project\Source\Binary\source\UserInterface\PythonPlayerSettingsModule.h

; 618  : static const std::map<uint8_t, std::map<uint8_t, std::vector<uint8_t>>> skillIndexes{

  0057b	c6 45 fc 10	 mov	 BYTE PTR __$EHRec$[ebp+8], 16 ; 00000010H
; File C:\Program Files\Microsoft Visual Studio\2022\Community\VC\Tools\MSVC\14.44.35207\include\utility

; 263  :         : first(_Val1), second(_Val2) {}

  0057f	c6 85 8c fe ff
	ff 02		 mov	 BYTE PTR $T130[ebp+16], 2
; File C:\Program Files\Microsoft Visual Studio\2022\Community\VC\Tools\MSVC\14.44.35207\include\vector

; 400  :     _CONSTEXPR20 _Vector_val() noexcept : _Myfirst(), _Mylast(), _Myend() {}

  00586	c7 85 90 fe ff
	ff 00 00 00 00	 mov	 DWORD PTR $T130[ebp+20], 0
  00590	c7 85 94 fe ff
	ff 00 00 00 00	 mov	 DWORD PTR $T130[ebp+24], 0
  0059a	c7 85 98 fe ff
	ff 00 00 00 00	 mov	 DWORD PTR $T130[ebp+28], 0

; 748  :         const auto _Count       = static_cast<size_type>(_Right_data._Mylast - _Right_data._Myfirst);

  005a4	2b c1		 sub	 eax, ecx

; 2111 :         if (_Count != 0) {

  005a6	74 3d		 je	 SHORT $LN431@dynamic

; 2112 :             _Buy_nonzero(_Count);

  005a8	50		 push	 eax
  005a9	8d 8d 90 fe ff
	ff		 lea	 ecx, DWORD PTR $T130[ebp+20]
  005af	e8 00 00 00 00	 call	 ?_Buy_nonzero@?$vector@EV?$allocator@E@std@@@std@@AAEXI@Z ; std::vector<unsigned char,std::allocator<unsigned char> >::_Buy_nonzero

; 2120 :                 _My_data._Mylast = _STD _Uninitialized_copy(_STD forward<_Valty>(_Val)..., _My_data._Myfirst, _Al);

  005b4	8b 85 90 fe ff
	ff		 mov	 eax, DWORD PTR $T130[ebp+20]
; File C:\Program Files\Microsoft Visual Studio\2022\Community\VC\Tools\MSVC\14.44.35207\include\xmemory

; 1872 :     auto _ULast  = _RANGES _Unwrap_sent<_InIt>(_STD move(_Last));

  005ba	8b bd 1c ff ff
	ff		 mov	 edi, DWORD PTR $T147[ebp+4]
  005c0	8b b5 18 ff ff
	ff		 mov	 esi, DWORD PTR $T147[ebp]

; 1889 :                 _STD _Copy_memmove(_STD _To_address(_UFirst), _STD _To_address(_ULast), _STD _Unfancy(_Dest));

  005c6	50		 push	 eax
  005c7	57		 push	 edi
  005c8	56		 push	 esi
; File C:\Program Files\Microsoft Visual Studio\2022\Community\VC\Tools\MSVC\14.44.35207\include\vector

; 2120 :                 _My_data._Mylast = _STD _Uninitialized_copy(_STD forward<_Valty>(_Val)..., _My_data._Myfirst, _Al);

  005c9	89 85 3c ff ff
	ff		 mov	 DWORD PTR __Dest$1$[ebp], eax
; File C:\Program Files\Microsoft Visual Studio\2022\Community\VC\Tools\MSVC\14.44.35207\include\xmemory

; 1889 :                 _STD _Copy_memmove(_STD _To_address(_UFirst), _STD _To_address(_ULast), _STD _Unfancy(_Dest));

  005cf	e8 00 00 00 00	 call	 ??$_Copy_memmove@PAEPAE@std@@YAPAEPAE00@Z ; std::_Copy_memmove<unsigned char *,unsigned char *>
; File C:\Program Files\Microsoft Visual Studio\2022\Community\VC\Tools\MSVC\14.44.35207\include\vector

; 2120 :                 _My_data._Mylast = _STD _Uninitialized_copy(_STD forward<_Valty>(_Val)..., _My_data._Myfirst, _Al);

  005d4	2b fe		 sub	 edi, esi
; File C:\Program Files\Microsoft Visual Studio\2022\Community\VC\Tools\MSVC\14.44.35207\include\xmemory

; 1889 :                 _STD _Copy_memmove(_STD _To_address(_UFirst), _STD _To_address(_ULast), _STD _Unfancy(_Dest));

  005d6	83 c4 0c	 add	 esp, 12			; 0000000cH

; 1890 :                 _Dest += _ULast - _UFirst;

  005d9	03 bd 3c ff ff
	ff		 add	 edi, DWORD PTR __Dest$1$[ebp]
; File C:\Program Files\Microsoft Visual Studio\2022\Community\VC\Tools\MSVC\14.44.35207\include\vector

; 2120 :                 _My_data._Mylast = _STD _Uninitialized_copy(_STD forward<_Valty>(_Val)..., _My_data._Myfirst, _Al);

  005df	89 bd 94 fe ff
	ff		 mov	 DWORD PTR $T130[ebp+24], edi
$LN431@dynamic:
; File C:\Program Files\Microsoft Visual Studio\2022\Community\VC\Tools\MSVC\14.44.35207\include\initializer_list

; 34   :         : _First(_First_arg), _Last(_Last_arg) {}

  005e5	8d 85 9c fe ff
	ff		 lea	 eax, DWORD PTR $T130[ebp+32]
; File C:\Anka2Project\Anka2Project\Source\Binary\source\UserInterface\PythonPlayerSettingsModule.h

; 618  : static const std::map<uint8_t, std::map<uint8_t, std::vector<uint8_t>>> skillIndexes{

  005eb	c6 45 fc 12	 mov	 BYTE PTR __$EHRec$[ebp+8], 18 ; 00000012H
; File C:\Program Files\Microsoft Visual Studio\2022\Community\VC\Tools\MSVC\14.44.35207\include\initializer_list

; 34   :         : _First(_First_arg), _Last(_Last_arg) {}

  005ef	8d 8d 7c fe ff
	ff		 lea	 ecx, DWORD PTR $T130[ebp]
; File C:\Anka2Project\Anka2Project\Source\Binary\source\UserInterface\PythonPlayerSettingsModule.h

; 618  : static const std::map<uint8_t, std::map<uint8_t, std::vector<uint8_t>>> skillIndexes{

  005f5	50		 push	 eax
  005f6	51		 push	 ecx
  005f7	8d 8d cc fe ff
	ff		 lea	 ecx, DWORD PTR $T168[ebp]
  005fd	e8 00 00 00 00	 call	 ??0?$map@EV?$vector@EV?$allocator@E@std@@@std@@U?$less@E@2@V?$allocator@U?$pair@$$CBEV?$vector@EV?$allocator@E@std@@@std@@@std@@@2@@std@@QAE@V?$initializer_list@U?$pair@$$CBEV?$vector@EV?$allocator@E@std@@@std@@@std@@@1@@Z ; std::map<unsigned char,std::vector<unsigned char,std::allocator<unsigned char> >,std::less<unsigned char>,std::allocator<std::pair<unsigned char const ,std::vector<unsigned char,std::allocator<unsigned char> > > > >::map<unsigned char,std::vector<unsigned char,std::allocator<unsigned char> >,std::less<unsigned char>,std::allocator<std::pair<unsigned char const ,std::vector<unsigned char,std::allocator<unsigned char> > > > >
; File C:\Program Files\Microsoft Visual Studio\2022\Community\VC\Tools\MSVC\14.44.35207\include\utility

; 263  :         : first(_Val1), second(_Val2) {}

  00602	8d 85 cc fe ff
	ff		 lea	 eax, DWORD PTR $T168[ebp]
; File C:\Anka2Project\Anka2Project\Source\Binary\source\UserInterface\PythonPlayerSettingsModule.h

; 618  : static const std::map<uint8_t, std::map<uint8_t, std::vector<uint8_t>>> skillIndexes{

  00608	c6 45 fc 13	 mov	 BYTE PTR __$EHRec$[ebp+8], 19 ; 00000013H
; File C:\Program Files\Microsoft Visual Studio\2022\Community\VC\Tools\MSVC\14.44.35207\include\utility

; 263  :         : first(_Val1), second(_Val2) {}

  0060c	50		 push	 eax
  0060d	8d 8d 5c ff ff
	ff		 lea	 ecx, DWORD PTR $T56[ebp+28]
  00613	c6 85 58 ff ff
	ff 02		 mov	 BYTE PTR $T56[ebp+24], 2
  0061a	e8 00 00 00 00	 call	 ??0?$map@EV?$vector@EV?$allocator@E@std@@@std@@U?$less@E@2@V?$allocator@U?$pair@$$CBEV?$vector@EV?$allocator@E@std@@@std@@@std@@@2@@std@@QAE@ABV01@@Z ; std::map<unsigned char,std::vector<unsigned char,std::allocator<unsigned char> >,std::less<unsigned char>,std::allocator<std::pair<unsigned char const ,std::vector<unsigned char,std::allocator<unsigned char> > > > >::map<unsigned char,std::vector<unsigned char,std::allocator<unsigned char> >,std::less<unsigned char>,std::allocator<std::pair<unsigned char const ,std::vector<unsigned char,std::allocator<unsigned char> > > > >
; File C:\Anka2Project\Anka2Project\Source\Binary\source\UserInterface\PythonPlayerSettingsModule.h

; 618  : static const std::map<uint8_t, std::map<uint8_t, std::vector<uint8_t>>> skillIndexes{

  0061f	c6 45 fc 14	 mov	 BYTE PTR __$EHRec$[ebp+8], 20 ; 00000014H
; File C:\Program Files\Microsoft Visual Studio\2022\Community\VC\Tools\MSVC\14.44.35207\include\initializer_list

; 34   :         : _First(_First_arg), _Last(_Last_arg) {}

  00623	8d 55 a0	 lea	 edx, DWORD PTR $T173[ebp]
; File C:\Program Files\Microsoft Visual Studio\2022\Community\VC\Tools\MSVC\14.44.35207\include\vector

; 400  :     _CONSTEXPR20 _Vector_val() noexcept : _Myfirst(), _Mylast(), _Myend() {}

  00626	33 c0		 xor	 eax, eax
; File C:\Anka2Project\Anka2Project\Source\Binary\source\UserInterface\PythonPlayerSettingsModule.h

; 618  : static const std::map<uint8_t, std::map<uint8_t, std::vector<uint8_t>>> skillIndexes{

  00628	c7 45 a0 5b 5c
	5d 5e		 mov	 DWORD PTR $T173[ebp], 1583176795 ; 5e5d5c5bH
; File C:\Program Files\Microsoft Visual Studio\2022\Community\VC\Tools\MSVC\14.44.35207\include\initializer_list

; 34   :         : _First(_First_arg), _Last(_Last_arg) {}

  0062f	8d 7d ae	 lea	 edi, DWORD PTR $T173[ebp+14]
; File C:\Anka2Project\Anka2Project\Source\Binary\source\UserInterface\PythonPlayerSettingsModule.h

; 618  : static const std::map<uint8_t, std::map<uint8_t, std::vector<uint8_t>>> skillIndexes{

  00632	c7 45 a4 5f 60
	00 00		 mov	 DWORD PTR $T173[ebp+4], 24671 ; 0000605fH
; File C:\Program Files\Microsoft Visual Studio\2022\Community\VC\Tools\MSVC\14.44.35207\include\vector

; 400  :     _CONSTEXPR20 _Vector_val() noexcept : _Myfirst(), _Mylast(), _Myend() {}

  00639	33 c9		 xor	 ecx, ecx
; File C:\Anka2Project\Anka2Project\Source\Binary\source\UserInterface\PythonPlayerSettingsModule.h

; 618  : static const std::map<uint8_t, std::map<uint8_t, std::vector<uint8_t>>> skillIndexes{

  0063b	c7 45 a8 89 00
	8a 00		 mov	 DWORD PTR $T173[ebp+8], 9044105 ; 008a0089H
  00642	66 c7 45 ac 8b
	00		 mov	 WORD PTR $T173[ebp+12], 139 ; 0000008bH
; File C:\Program Files\Microsoft Visual Studio\2022\Community\VC\Tools\MSVC\14.44.35207\include\vector

; 400  :     _CONSTEXPR20 _Vector_val() noexcept : _Myfirst(), _Mylast(), _Myend() {}

  00648	89 8d 24 ff ff
	ff		 mov	 DWORD PTR $T177[ebp], ecx
  0064e	89 85 28 ff ff
	ff		 mov	 DWORD PTR $T177[ebp+4], eax
  00654	89 85 2c ff ff
	ff		 mov	 DWORD PTR $T177[ebp+8], eax

; 721  :         _Construct_n(_Convert_size<size_type>(_Ilist.size()), _Ilist.begin(), _Ilist.end());

  0065a	2b fa		 sub	 edi, edx

; 2111 :         if (_Count != 0) {

  0065c	74 32		 je	 SHORT $LN471@dynamic

; 2112 :             _Buy_nonzero(_Count);

  0065e	57		 push	 edi
  0065f	8d 8d 24 ff ff
	ff		 lea	 ecx, DWORD PTR $T177[ebp]
  00665	e8 00 00 00 00	 call	 ?_Buy_nonzero@?$vector@EV?$allocator@E@std@@@std@@AAEXI@Z ; std::vector<unsigned char,std::allocator<unsigned char> >::_Buy_nonzero

; 2120 :                 _My_data._Mylast = _STD _Uninitialized_copy(_STD forward<_Valty>(_Val)..., _My_data._Myfirst, _Al);

  0066a	8b b5 24 ff ff
	ff		 mov	 esi, DWORD PTR $T177[ebp]
; File C:\Program Files\Microsoft Visual Studio\2022\Community\VC\Tools\MSVC\14.44.35207\include\xmemory

; 1889 :                 _STD _Copy_memmove(_STD _To_address(_UFirst), _STD _To_address(_ULast), _STD _Unfancy(_Dest));

  00670	8d 45 ae	 lea	 eax, DWORD PTR $T173[ebp+14]
  00673	56		 push	 esi
  00674	50		 push	 eax
  00675	8d 45 a0	 lea	 eax, DWORD PTR $T173[ebp]
  00678	50		 push	 eax
  00679	e8 00 00 00 00	 call	 ??$_Copy_memmove@PBEPAE@std@@YAPAEPBE0PAE@Z ; std::_Copy_memmove<unsigned char const *,unsigned char *>
; File C:\Program Files\Microsoft Visual Studio\2022\Community\VC\Tools\MSVC\14.44.35207\include\vector

; 2120 :                 _My_data._Mylast = _STD _Uninitialized_copy(_STD forward<_Valty>(_Val)..., _My_data._Myfirst, _Al);

  0067e	8b 8d 24 ff ff
	ff		 mov	 ecx, DWORD PTR $T177[ebp]
; File C:\Program Files\Microsoft Visual Studio\2022\Community\VC\Tools\MSVC\14.44.35207\include\xmemory

; 1890 :                 _Dest += _ULast - _UFirst;

  00684	8d 04 3e	 lea	 eax, DWORD PTR [esi+edi]
  00687	83 c4 0c	 add	 esp, 12			; 0000000cH
; File C:\Program Files\Microsoft Visual Studio\2022\Community\VC\Tools\MSVC\14.44.35207\include\vector

; 2120 :                 _My_data._Mylast = _STD _Uninitialized_copy(_STD forward<_Valty>(_Val)..., _My_data._Myfirst, _Al);

  0068a	89 85 28 ff ff
	ff		 mov	 DWORD PTR $T177[ebp+4], eax
$LN471@dynamic:
; File C:\Anka2Project\Anka2Project\Source\Binary\source\UserInterface\PythonPlayerSettingsModule.h

; 618  : static const std::map<uint8_t, std::map<uint8_t, std::vector<uint8_t>>> skillIndexes{

  00690	c6 45 fc 15	 mov	 BYTE PTR __$EHRec$[ebp+8], 21 ; 00000015H
; File C:\Program Files\Microsoft Visual Studio\2022\Community\VC\Tools\MSVC\14.44.35207\include\utility

; 263  :         : first(_Val1), second(_Val2) {}

  00694	c6 85 9c fe ff
	ff 01		 mov	 BYTE PTR $T186[ebp], 1
; File C:\Program Files\Microsoft Visual Studio\2022\Community\VC\Tools\MSVC\14.44.35207\include\vector

; 400  :     _CONSTEXPR20 _Vector_val() noexcept : _Myfirst(), _Mylast(), _Myend() {}

  0069b	c7 85 a0 fe ff
	ff 00 00 00 00	 mov	 DWORD PTR $T186[ebp+4], 0
  006a5	c7 85 a4 fe ff
	ff 00 00 00 00	 mov	 DWORD PTR $T186[ebp+8], 0
  006af	c7 85 a8 fe ff
	ff 00 00 00 00	 mov	 DWORD PTR $T186[ebp+12], 0

; 748  :         const auto _Count       = static_cast<size_type>(_Right_data._Mylast - _Right_data._Myfirst);

  006b9	2b c1		 sub	 eax, ecx

; 2111 :         if (_Count != 0) {

  006bb	74 3d		 je	 SHORT $LN502@dynamic

; 2112 :             _Buy_nonzero(_Count);

  006bd	50		 push	 eax
  006be	8d 8d a0 fe ff
	ff		 lea	 ecx, DWORD PTR $T186[ebp+4]
  006c4	e8 00 00 00 00	 call	 ?_Buy_nonzero@?$vector@EV?$allocator@E@std@@@std@@AAEXI@Z ; std::vector<unsigned char,std::allocator<unsigned char> >::_Buy_nonzero

; 2120 :                 _My_data._Mylast = _STD _Uninitialized_copy(_STD forward<_Valty>(_Val)..., _My_data._Myfirst, _Al);

  006c9	8b 85 a0 fe ff
	ff		 mov	 eax, DWORD PTR $T186[ebp+4]
; File C:\Program Files\Microsoft Visual Studio\2022\Community\VC\Tools\MSVC\14.44.35207\include\xmemory

; 1872 :     auto _ULast  = _RANGES _Unwrap_sent<_InIt>(_STD move(_Last));

  006cf	8b bd 28 ff ff
	ff		 mov	 edi, DWORD PTR $T177[ebp+4]
  006d5	8b b5 24 ff ff
	ff		 mov	 esi, DWORD PTR $T177[ebp]

; 1889 :                 _STD _Copy_memmove(_STD _To_address(_UFirst), _STD _To_address(_ULast), _STD _Unfancy(_Dest));

  006db	50		 push	 eax
  006dc	57		 push	 edi
  006dd	56		 push	 esi
; File C:\Program Files\Microsoft Visual Studio\2022\Community\VC\Tools\MSVC\14.44.35207\include\vector

; 2120 :                 _My_data._Mylast = _STD _Uninitialized_copy(_STD forward<_Valty>(_Val)..., _My_data._Myfirst, _Al);

  006de	89 85 3c ff ff
	ff		 mov	 DWORD PTR __Dest$1$[ebp], eax
; File C:\Program Files\Microsoft Visual Studio\2022\Community\VC\Tools\MSVC\14.44.35207\include\xmemory

; 1889 :                 _STD _Copy_memmove(_STD _To_address(_UFirst), _STD _To_address(_ULast), _STD _Unfancy(_Dest));

  006e4	e8 00 00 00 00	 call	 ??$_Copy_memmove@PAEPAE@std@@YAPAEPAE00@Z ; std::_Copy_memmove<unsigned char *,unsigned char *>
; File C:\Program Files\Microsoft Visual Studio\2022\Community\VC\Tools\MSVC\14.44.35207\include\vector

; 2120 :                 _My_data._Mylast = _STD _Uninitialized_copy(_STD forward<_Valty>(_Val)..., _My_data._Myfirst, _Al);

  006e9	2b fe		 sub	 edi, esi
; File C:\Program Files\Microsoft Visual Studio\2022\Community\VC\Tools\MSVC\14.44.35207\include\xmemory

; 1889 :                 _STD _Copy_memmove(_STD _To_address(_UFirst), _STD _To_address(_ULast), _STD _Unfancy(_Dest));

  006eb	83 c4 0c	 add	 esp, 12			; 0000000cH

; 1890 :                 _Dest += _ULast - _UFirst;

  006ee	03 bd 3c ff ff
	ff		 add	 edi, DWORD PTR __Dest$1$[ebp]
; File C:\Program Files\Microsoft Visual Studio\2022\Community\VC\Tools\MSVC\14.44.35207\include\vector

; 2120 :                 _My_data._Mylast = _STD _Uninitialized_copy(_STD forward<_Valty>(_Val)..., _My_data._Myfirst, _Al);

  006f4	89 bd a4 fe ff
	ff		 mov	 DWORD PTR $T186[ebp+8], edi
$LN502@dynamic:
; File C:\Anka2Project\Anka2Project\Source\Binary\source\UserInterface\PythonPlayerSettingsModule.h

; 618  : static const std::map<uint8_t, std::map<uint8_t, std::vector<uint8_t>>> skillIndexes{

  006fa	c6 45 fc 16	 mov	 BYTE PTR __$EHRec$[ebp+8], 22 ; 00000016H
; File C:\Program Files\Microsoft Visual Studio\2022\Community\VC\Tools\MSVC\14.44.35207\include\initializer_list

; 34   :         : _First(_First_arg), _Last(_Last_arg) {}

  006fe	8d 55 90	 lea	 edx, DWORD PTR $T199[ebp]
; File C:\Program Files\Microsoft Visual Studio\2022\Community\VC\Tools\MSVC\14.44.35207\include\vector

; 400  :     _CONSTEXPR20 _Vector_val() noexcept : _Myfirst(), _Mylast(), _Myend() {}

  00701	33 c0		 xor	 eax, eax
; File C:\Anka2Project\Anka2Project\Source\Binary\source\UserInterface\PythonPlayerSettingsModule.h

; 618  : static const std::map<uint8_t, std::map<uint8_t, std::vector<uint8_t>>> skillIndexes{

  00703	c7 45 90 6a 6b
	6c 6d		 mov	 DWORD PTR $T199[ebp], 1835821930 ; 6d6c6b6aH
; File C:\Program Files\Microsoft Visual Studio\2022\Community\VC\Tools\MSVC\14.44.35207\include\initializer_list

; 34   :         : _First(_First_arg), _Last(_Last_arg) {}

  0070a	8d 7d 9e	 lea	 edi, DWORD PTR $T199[ebp+14]
; File C:\Anka2Project\Anka2Project\Source\Binary\source\UserInterface\PythonPlayerSettingsModule.h

; 618  : static const std::map<uint8_t, std::map<uint8_t, std::vector<uint8_t>>> skillIndexes{

  0070d	c7 45 94 6e 6f
	00 00		 mov	 DWORD PTR $T199[ebp+4], 28526 ; 00006f6eH
; File C:\Program Files\Microsoft Visual Studio\2022\Community\VC\Tools\MSVC\14.44.35207\include\vector

; 400  :     _CONSTEXPR20 _Vector_val() noexcept : _Myfirst(), _Mylast(), _Myend() {}

  00714	33 c9		 xor	 ecx, ecx
; File C:\Anka2Project\Anka2Project\Source\Binary\source\UserInterface\PythonPlayerSettingsModule.h

; 618  : static const std::map<uint8_t, std::map<uint8_t, std::vector<uint8_t>>> skillIndexes{

  00716	c7 45 98 89 00
	8a 00		 mov	 DWORD PTR $T199[ebp+8], 9044105 ; 008a0089H
  0071d	66 c7 45 9c 8b
	00		 mov	 WORD PTR $T199[ebp+12], 139 ; 0000008bH
; File C:\Program Files\Microsoft Visual Studio\2022\Community\VC\Tools\MSVC\14.44.35207\include\vector

; 400  :     _CONSTEXPR20 _Vector_val() noexcept : _Myfirst(), _Mylast(), _Myend() {}

  00723	89 8d 30 ff ff
	ff		 mov	 DWORD PTR $T203[ebp], ecx
  00729	89 85 34 ff ff
	ff		 mov	 DWORD PTR $T203[ebp+4], eax
  0072f	89 85 38 ff ff
	ff		 mov	 DWORD PTR $T203[ebp+8], eax

; 721  :         _Construct_n(_Convert_size<size_type>(_Ilist.size()), _Ilist.begin(), _Ilist.end());

  00735	2b fa		 sub	 edi, edx

; 2111 :         if (_Count != 0) {

  00737	74 32		 je	 SHORT $LN536@dynamic

; 2112 :             _Buy_nonzero(_Count);

  00739	57		 push	 edi
  0073a	8d 8d 30 ff ff
	ff		 lea	 ecx, DWORD PTR $T203[ebp]
  00740	e8 00 00 00 00	 call	 ?_Buy_nonzero@?$vector@EV?$allocator@E@std@@@std@@AAEXI@Z ; std::vector<unsigned char,std::allocator<unsigned char> >::_Buy_nonzero

; 2120 :                 _My_data._Mylast = _STD _Uninitialized_copy(_STD forward<_Valty>(_Val)..., _My_data._Myfirst, _Al);

  00745	8b b5 30 ff ff
	ff		 mov	 esi, DWORD PTR $T203[ebp]
; File C:\Program Files\Microsoft Visual Studio\2022\Community\VC\Tools\MSVC\14.44.35207\include\xmemory

; 1889 :                 _STD _Copy_memmove(_STD _To_address(_UFirst), _STD _To_address(_ULast), _STD _Unfancy(_Dest));

  0074b	8d 45 9e	 lea	 eax, DWORD PTR $T199[ebp+14]
  0074e	56		 push	 esi
  0074f	50		 push	 eax
  00750	8d 45 90	 lea	 eax, DWORD PTR $T199[ebp]
  00753	50		 push	 eax
  00754	e8 00 00 00 00	 call	 ??$_Copy_memmove@PBEPAE@std@@YAPAEPBE0PAE@Z ; std::_Copy_memmove<unsigned char const *,unsigned char *>
; File C:\Program Files\Microsoft Visual Studio\2022\Community\VC\Tools\MSVC\14.44.35207\include\vector

; 2120 :                 _My_data._Mylast = _STD _Uninitialized_copy(_STD forward<_Valty>(_Val)..., _My_data._Myfirst, _Al);

  00759	8b 8d 30 ff ff
	ff		 mov	 ecx, DWORD PTR $T203[ebp]
; File C:\Program Files\Microsoft Visual Studio\2022\Community\VC\Tools\MSVC\14.44.35207\include\xmemory

; 1890 :                 _Dest += _ULast - _UFirst;

  0075f	8d 04 3e	 lea	 eax, DWORD PTR [esi+edi]
  00762	83 c4 0c	 add	 esp, 12			; 0000000cH
; File C:\Program Files\Microsoft Visual Studio\2022\Community\VC\Tools\MSVC\14.44.35207\include\vector

; 2120 :                 _My_data._Mylast = _STD _Uninitialized_copy(_STD forward<_Valty>(_Val)..., _My_data._Myfirst, _Al);

  00765	89 85 34 ff ff
	ff		 mov	 DWORD PTR $T203[ebp+4], eax
$LN536@dynamic:
; File C:\Anka2Project\Anka2Project\Source\Binary\source\UserInterface\PythonPlayerSettingsModule.h

; 618  : static const std::map<uint8_t, std::map<uint8_t, std::vector<uint8_t>>> skillIndexes{

  0076b	c6 45 fc 17	 mov	 BYTE PTR __$EHRec$[ebp+8], 23 ; 00000017H
; File C:\Program Files\Microsoft Visual Studio\2022\Community\VC\Tools\MSVC\14.44.35207\include\utility

; 263  :         : first(_Val1), second(_Val2) {}

  0076f	c6 85 ac fe ff
	ff 02		 mov	 BYTE PTR $T186[ebp+16], 2
; File C:\Program Files\Microsoft Visual Studio\2022\Community\VC\Tools\MSVC\14.44.35207\include\vector

; 400  :     _CONSTEXPR20 _Vector_val() noexcept : _Myfirst(), _Mylast(), _Myend() {}

  00776	c7 85 b0 fe ff
	ff 00 00 00 00	 mov	 DWORD PTR $T186[ebp+20], 0
  00780	c7 85 b4 fe ff
	ff 00 00 00 00	 mov	 DWORD PTR $T186[ebp+24], 0
  0078a	c7 85 b8 fe ff
	ff 00 00 00 00	 mov	 DWORD PTR $T186[ebp+28], 0

; 748  :         const auto _Count       = static_cast<size_type>(_Right_data._Mylast - _Right_data._Myfirst);

  00794	2b c1		 sub	 eax, ecx

; 2111 :         if (_Count != 0) {

  00796	74 3d		 je	 SHORT $LN567@dynamic

; 2112 :             _Buy_nonzero(_Count);

  00798	50		 push	 eax
  00799	8d 8d b0 fe ff
	ff		 lea	 ecx, DWORD PTR $T186[ebp+20]
  0079f	e8 00 00 00 00	 call	 ?_Buy_nonzero@?$vector@EV?$allocator@E@std@@@std@@AAEXI@Z ; std::vector<unsigned char,std::allocator<unsigned char> >::_Buy_nonzero

; 2120 :                 _My_data._Mylast = _STD _Uninitialized_copy(_STD forward<_Valty>(_Val)..., _My_data._Myfirst, _Al);

  007a4	8b 85 b0 fe ff
	ff		 mov	 eax, DWORD PTR $T186[ebp+20]
; File C:\Program Files\Microsoft Visual Studio\2022\Community\VC\Tools\MSVC\14.44.35207\include\xmemory

; 1872 :     auto _ULast  = _RANGES _Unwrap_sent<_InIt>(_STD move(_Last));

  007aa	8b bd 34 ff ff
	ff		 mov	 edi, DWORD PTR $T203[ebp+4]
  007b0	8b b5 30 ff ff
	ff		 mov	 esi, DWORD PTR $T203[ebp]

; 1889 :                 _STD _Copy_memmove(_STD _To_address(_UFirst), _STD _To_address(_ULast), _STD _Unfancy(_Dest));

  007b6	50		 push	 eax
  007b7	57		 push	 edi
  007b8	56		 push	 esi
; File C:\Program Files\Microsoft Visual Studio\2022\Community\VC\Tools\MSVC\14.44.35207\include\vector

; 2120 :                 _My_data._Mylast = _STD _Uninitialized_copy(_STD forward<_Valty>(_Val)..., _My_data._Myfirst, _Al);

  007b9	89 85 3c ff ff
	ff		 mov	 DWORD PTR __Dest$1$[ebp], eax
; File C:\Program Files\Microsoft Visual Studio\2022\Community\VC\Tools\MSVC\14.44.35207\include\xmemory

; 1889 :                 _STD _Copy_memmove(_STD _To_address(_UFirst), _STD _To_address(_ULast), _STD _Unfancy(_Dest));

  007bf	e8 00 00 00 00	 call	 ??$_Copy_memmove@PAEPAE@std@@YAPAEPAE00@Z ; std::_Copy_memmove<unsigned char *,unsigned char *>
; File C:\Program Files\Microsoft Visual Studio\2022\Community\VC\Tools\MSVC\14.44.35207\include\vector

; 2120 :                 _My_data._Mylast = _STD _Uninitialized_copy(_STD forward<_Valty>(_Val)..., _My_data._Myfirst, _Al);

  007c4	2b fe		 sub	 edi, esi
; File C:\Program Files\Microsoft Visual Studio\2022\Community\VC\Tools\MSVC\14.44.35207\include\xmemory

; 1889 :                 _STD _Copy_memmove(_STD _To_address(_UFirst), _STD _To_address(_ULast), _STD _Unfancy(_Dest));

  007c6	83 c4 0c	 add	 esp, 12			; 0000000cH

; 1890 :                 _Dest += _ULast - _UFirst;

  007c9	03 bd 3c ff ff
	ff		 add	 edi, DWORD PTR __Dest$1$[ebp]
; File C:\Program Files\Microsoft Visual Studio\2022\Community\VC\Tools\MSVC\14.44.35207\include\vector

; 2120 :                 _My_data._Mylast = _STD _Uninitialized_copy(_STD forward<_Valty>(_Val)..., _My_data._Myfirst, _Al);

  007cf	89 bd b4 fe ff
	ff		 mov	 DWORD PTR $T186[ebp+24], edi
$LN567@dynamic:
; File C:\Program Files\Microsoft Visual Studio\2022\Community\VC\Tools\MSVC\14.44.35207\include\initializer_list

; 34   :         : _First(_First_arg), _Last(_Last_arg) {}

  007d5	8d 85 bc fe ff
	ff		 lea	 eax, DWORD PTR $T186[ebp+32]
; File C:\Anka2Project\Anka2Project\Source\Binary\source\UserInterface\PythonPlayerSettingsModule.h

; 618  : static const std::map<uint8_t, std::map<uint8_t, std::vector<uint8_t>>> skillIndexes{

  007db	c6 45 fc 19	 mov	 BYTE PTR __$EHRec$[ebp+8], 25 ; 00000019H
; File C:\Program Files\Microsoft Visual Studio\2022\Community\VC\Tools\MSVC\14.44.35207\include\initializer_list

; 34   :         : _First(_First_arg), _Last(_Last_arg) {}

  007df	8d 8d 9c fe ff
	ff		 lea	 ecx, DWORD PTR $T186[ebp]
; File C:\Anka2Project\Anka2Project\Source\Binary\source\UserInterface\PythonPlayerSettingsModule.h

; 618  : static const std::map<uint8_t, std::map<uint8_t, std::vector<uint8_t>>> skillIndexes{

  007e5	50		 push	 eax
  007e6	51		 push	 ecx
  007e7	8d 8d d4 fe ff
	ff		 lea	 ecx, DWORD PTR $T224[ebp]
  007ed	e8 00 00 00 00	 call	 ??0?$map@EV?$vector@EV?$allocator@E@std@@@std@@U?$less@E@2@V?$allocator@U?$pair@$$CBEV?$vector@EV?$allocator@E@std@@@std@@@std@@@2@@std@@QAE@V?$initializer_list@U?$pair@$$CBEV?$vector@EV?$allocator@E@std@@@std@@@std@@@1@@Z ; std::map<unsigned char,std::vector<unsigned char,std::allocator<unsigned char> >,std::less<unsigned char>,std::allocator<std::pair<unsigned char const ,std::vector<unsigned char,std::allocator<unsigned char> > > > >::map<unsigned char,std::vector<unsigned char,std::allocator<unsigned char> >,std::less<unsigned char>,std::allocator<std::pair<unsigned char const ,std::vector<unsigned char,std::allocator<unsigned char> > > > >
; File C:\Program Files\Microsoft Visual Studio\2022\Community\VC\Tools\MSVC\14.44.35207\include\utility

; 263  :         : first(_Val1), second(_Val2) {}

  007f2	8d 85 d4 fe ff
	ff		 lea	 eax, DWORD PTR $T224[ebp]
; File C:\Anka2Project\Anka2Project\Source\Binary\source\UserInterface\PythonPlayerSettingsModule.h

; 618  : static const std::map<uint8_t, std::map<uint8_t, std::vector<uint8_t>>> skillIndexes{

  007f8	c6 45 fc 1a	 mov	 BYTE PTR __$EHRec$[ebp+8], 26 ; 0000001aH
; File C:\Program Files\Microsoft Visual Studio\2022\Community\VC\Tools\MSVC\14.44.35207\include\utility

; 263  :         : first(_Val1), second(_Val2) {}

  007fc	50		 push	 eax
  007fd	8d 8d 68 ff ff
	ff		 lea	 ecx, DWORD PTR $T56[ebp+40]
  00803	c6 85 64 ff ff
	ff 03		 mov	 BYTE PTR $T56[ebp+36], 3
  0080a	e8 00 00 00 00	 call	 ??0?$map@EV?$vector@EV?$allocator@E@std@@@std@@U?$less@E@2@V?$allocator@U?$pair@$$CBEV?$vector@EV?$allocator@E@std@@@std@@@std@@@2@@std@@QAE@ABV01@@Z ; std::map<unsigned char,std::vector<unsigned char,std::allocator<unsigned char> >,std::less<unsigned char>,std::allocator<std::pair<unsigned char const ,std::vector<unsigned char,std::allocator<unsigned char> > > > >::map<unsigned char,std::vector<unsigned char,std::allocator<unsigned char> >,std::less<unsigned char>,std::allocator<std::pair<unsigned char const ,std::vector<unsigned char,std::allocator<unsigned char> > > > >
; File C:\Program Files\Microsoft Visual Studio\2022\Community\VC\Tools\MSVC\14.44.35207\include\initializer_list

; 34   :         : _First(_First_arg), _Last(_Last_arg) {}

  0080f	8d 85 70 ff ff
	ff		 lea	 eax, DWORD PTR $T56[ebp+48]
; File C:\Anka2Project\Anka2Project\Source\Binary\source\UserInterface\PythonPlayerSettingsModule.h

; 618  : static const std::map<uint8_t, std::map<uint8_t, std::vector<uint8_t>>> skillIndexes{

  00815	c6 45 fc 27	 mov	 BYTE PTR __$EHRec$[ebp+8], 39 ; 00000027H
; File C:\Program Files\Microsoft Visual Studio\2022\Community\VC\Tools\MSVC\14.44.35207\include\initializer_list

; 34   :         : _First(_First_arg), _Last(_Last_arg) {}

  00819	8d 8d 40 ff ff
	ff		 lea	 ecx, DWORD PTR $T56[ebp]
; File C:\Anka2Project\Anka2Project\Source\Binary\source\UserInterface\PythonPlayerSettingsModule.h

; 618  : static const std::map<uint8_t, std::map<uint8_t, std::vector<uint8_t>>> skillIndexes{

  0081f	50		 push	 eax
  00820	51		 push	 ecx
  00821	b9 00 00 00 00	 mov	 ecx, OFFSET ?skillIndexes@@3V?$map@EV?$map@EV?$vector@EV?$allocator@E@std@@@std@@U?$less@E@2@V?$allocator@U?$pair@$$CBEV?$vector@EV?$allocator@E@std@@@std@@@std@@@2@@std@@U?$less@E@2@V?$allocator@U?$pair@$$CBEV?$map@EV?$vector@EV?$allocator@E@std@@@std@@U?$less@E@2@V?$allocator@U?$pair@$$CBEV?$vector@EV?$allocator@E@std@@@std@@@std@@@2@@std@@@std@@@2@@std@@B
  00826	e8 00 00 00 00	 call	 ??0?$map@EV?$map@EV?$vector@EV?$allocator@E@std@@@std@@U?$less@E@2@V?$allocator@U?$pair@$$CBEV?$vector@EV?$allocator@E@std@@@std@@@std@@@2@@std@@U?$less@E@2@V?$allocator@U?$pair@$$CBEV?$map@EV?$vector@EV?$allocator@E@std@@@std@@U?$less@E@2@V?$allocator@U?$pair@$$CBEV?$vector@EV?$allocator@E@std@@@std@@@std@@@2@@std@@@std@@@2@@std@@QAE@V?$initializer_list@U?$pair@$$CBEV?$map@EV?$vector@EV?$allocator@E@std@@@std@@U?$less@E@2@V?$allocator@U?$pair@$$CBEV?$vector@EV?$allocator@E@std@@@std@@@std@@@2@@std@@@std@@@1@@Z ; std::map<unsigned char,std::map<unsigned char,std::vector<unsigned char,std::allocator<unsigned char> >,std::less<unsigned char>,std::allocator<std::pair<unsigned char const ,std::vector<unsigned char,std::allocator<unsigned char> > > > >,std::less<unsigned char>,std::allocator<std::pair<unsigned char const ,std::map<unsigned char,std::vector<unsigned char,std::allocator<unsigned char> >,std::less<unsigned char>,std::allocator<std::pair<unsigned char const ,std::vector<unsigned char,std::allocator<unsigned char> > > > > > > >::map<unsigned char,std::map<unsigned char,std::vector<unsigned char,std::allocator<unsigned char> >,std::less<unsigned char>,std::allocator<std::pair<unsigned char const ,std::vector<unsigned char,std::allocator<unsigned char> > > > >,std::less<unsigned char>,std::allocator<std::pair<unsigned char const ,std::map<unsigned char,std::vector<unsigned char,std::allocator<unsigned char> >,std::less<unsigned char>,std::allocator<std::pair<unsigned char const ,std::vector<unsigned char,std::allocator<unsigned char> > > > > > > >
  0082b	68 00 00 00 00	 push	 OFFSET ??1?$pair@$$CBEV?$map@EV?$vector@EV?$allocator@E@std@@@std@@U?$less@E@2@V?$allocator@U?$pair@$$CBEV?$vector@EV?$allocator@E@std@@@std@@@std@@@2@@std@@@std@@QAE@XZ
  00830	6a 04		 push	 4
  00832	6a 0c		 push	 12			; 0000000cH
  00834	8d 85 40 ff ff
	ff		 lea	 eax, DWORD PTR $T56[ebp]
  0083a	c6 45 fc 26	 mov	 BYTE PTR __$EHRec$[ebp+8], 38 ; 00000026H
  0083e	50		 push	 eax
  0083f	e8 00 00 00 00	 call	 ??_M@YGXPAXIIP6EX0@Z@Z
; File C:\Program Files\Microsoft Visual Studio\2022\Community\VC\Tools\MSVC\14.44.35207\include\xtree

; 777  :         _Erase_tree(_Al, _Myhead->_Parent);

  00844	8b 85 d4 fe ff
	ff		 mov	 eax, DWORD PTR $T224[ebp]
  0084a	ff 70 04	 push	 DWORD PTR [eax+4]
  0084d	8d 85 d4 fe ff
	ff		 lea	 eax, DWORD PTR $T224[ebp]
  00853	50		 push	 eax
  00854	8b c8		 mov	 ecx, eax
  00856	e8 00 00 00 00	 call	 ??$_Erase_tree@V?$allocator@U?$_Tree_node@U?$pair@$$CBEV?$vector@EV?$allocator@E@std@@@std@@@std@@PAX@std@@@std@@@?$_Tree_val@U?$_Tree_simple_types@U?$pair@$$CBEV?$vector@EV?$allocator@E@std@@@std@@@std@@@std@@@std@@QAEXAAV?$allocator@U?$_Tree_node@U?$pair@$$CBEV?$vector@EV?$allocator@E@std@@@std@@@std@@PAX@std@@@1@PAU?$_Tree_node@U?$pair@$$CBEV?$vector@EV?$allocator@E@std@@@std@@@std@@PAX@1@@Z ; std::_Tree_val<std::_Tree_simple_types<std::pair<unsigned char const ,std::vector<unsigned char,std::allocator<unsigned char> > > > >::_Erase_tree<std::allocator<std::_Tree_node<std::pair<unsigned char const ,std::vector<unsigned char,std::allocator<unsigned char> > >,void *> > >
; File C:\Program Files\Microsoft Visual Studio\2022\Community\VC\Tools\MSVC\14.44.35207\include\xmemory

; 289  :         ::operator delete(_Ptr, _Bytes);

  0085b	6a 20		 push	 32			; 00000020H
  0085d	ff b5 d4 fe ff
	ff		 push	 DWORD PTR $T224[ebp]
  00863	e8 00 00 00 00	 call	 ??3@YAXPAXI@Z		; operator delete
  00868	83 c4 08	 add	 esp, 8
; File C:\Anka2Project\Anka2Project\Source\Binary\source\UserInterface\PythonPlayerSettingsModule.h

; 618  : static const std::map<uint8_t, std::map<uint8_t, std::vector<uint8_t>>> skillIndexes{

  0086b	c6 45 fc 24	 mov	 BYTE PTR __$EHRec$[ebp+8], 36 ; 00000024H
  0086f	8d 85 9c fe ff
	ff		 lea	 eax, DWORD PTR $T186[ebp]
  00875	68 00 00 00 00	 push	 OFFSET ??1?$pair@$$CBEV?$vector@EV?$allocator@E@std@@@std@@@std@@QAE@XZ
  0087a	6a 02		 push	 2
  0087c	6a 10		 push	 16			; 00000010H
  0087e	50		 push	 eax
  0087f	e8 00 00 00 00	 call	 ??_M@YGXPAXIIP6EX0@Z@Z
  00884	c6 45 fc 23	 mov	 BYTE PTR __$EHRec$[ebp+8], 35 ; 00000023H
; File C:\Program Files\Microsoft Visual Studio\2022\Community\VC\Tools\MSVC\14.44.35207\include\vector

; 2090 :         if (_Myfirst) { // destroy and deallocate old array

  00888	8b 95 30 ff ff
	ff		 mov	 edx, DWORD PTR $T203[ebp]
  0088e	85 d2		 test	 edx, edx
  00890	74 4e		 je	 SHORT $LN632@dynamic

; 2093 :             _Al.deallocate(_Myfirst, static_cast<size_type>(_Myend - _Myfirst));

  00892	8b 8d 38 ff ff
	ff		 mov	 ecx, DWORD PTR $T203[ebp+8]
; File C:\Program Files\Microsoft Visual Studio\2022\Community\VC\Tools\MSVC\14.44.35207\include\xmemory

; 985  :         _STD _Deallocate<_New_alignof<_Ty>>(_Ptr, sizeof(_Ty) * _Count);

  00898	8b c2		 mov	 eax, edx
; File C:\Program Files\Microsoft Visual Studio\2022\Community\VC\Tools\MSVC\14.44.35207\include\vector

; 2093 :             _Al.deallocate(_Myfirst, static_cast<size_type>(_Myend - _Myfirst));

  0089a	2b ca		 sub	 ecx, edx
; File C:\Program Files\Microsoft Visual Studio\2022\Community\VC\Tools\MSVC\14.44.35207\include\xmemory

; 284  :         if (_Bytes >= _Big_allocation_threshold) {

  0089c	81 f9 00 10 00
	00		 cmp	 ecx, 4096		; 00001000H
  008a2	72 14		 jb	 SHORT $LN646@dynamic

; 205  :     const uintptr_t _Ptr_container   = _Ptr_user[-1];

  008a4	8b 50 fc	 mov	 edx, DWORD PTR [eax-4]
  008a7	83 c1 23	 add	 ecx, 35			; 00000023H
  008aa	2b c2		 sub	 eax, edx

; 219  :     _STL_VERIFY(_Back_shift >= _Min_back_shift && _Back_shift <= _Non_user_size, "invalid argument");

  008ac	83 c0 fc	 add	 eax, -4			; fffffffcH
  008af	83 f8 1f	 cmp	 eax, 31			; 0000001fH
  008b2	0f 87 6a 03 00
	00		 ja	 $LN950@dynamic
$LN646@dynamic:

; 289  :         ::operator delete(_Ptr, _Bytes);

  008b8	51		 push	 ecx
  008b9	52		 push	 edx
  008ba	e8 00 00 00 00	 call	 ??3@YAXPAXI@Z		; operator delete
  008bf	83 c4 08	 add	 esp, 8
; File C:\Program Files\Microsoft Visual Studio\2022\Community\VC\Tools\MSVC\14.44.35207\include\vector

; 2095 :             _Myfirst = nullptr;

  008c2	c7 85 30 ff ff
	ff 00 00 00 00	 mov	 DWORD PTR $T203[ebp], 0

; 2096 :             _Mylast  = nullptr;

  008cc	c7 85 34 ff ff
	ff 00 00 00 00	 mov	 DWORD PTR $T203[ebp+4], 0

; 2097 :             _Myend   = nullptr;

  008d6	c7 85 38 ff ff
	ff 00 00 00 00	 mov	 DWORD PTR $T203[ebp+8], 0
$LN632@dynamic:
; File C:\Anka2Project\Anka2Project\Source\Binary\source\UserInterface\PythonPlayerSettingsModule.h

; 618  : static const std::map<uint8_t, std::map<uint8_t, std::vector<uint8_t>>> skillIndexes{

  008e0	c6 45 fc 22	 mov	 BYTE PTR __$EHRec$[ebp+8], 34 ; 00000022H
; File C:\Program Files\Microsoft Visual Studio\2022\Community\VC\Tools\MSVC\14.44.35207\include\vector

; 2090 :         if (_Myfirst) { // destroy and deallocate old array

  008e4	8b 8d 24 ff ff
	ff		 mov	 ecx, DWORD PTR $T177[ebp]
  008ea	85 c9		 test	 ecx, ecx
  008ec	74 4e		 je	 SHORT $LN655@dynamic

; 2093 :             _Al.deallocate(_Myfirst, static_cast<size_type>(_Myend - _Myfirst));

  008ee	8b 95 2c ff ff
	ff		 mov	 edx, DWORD PTR $T177[ebp+8]
; File C:\Program Files\Microsoft Visual Studio\2022\Community\VC\Tools\MSVC\14.44.35207\include\xmemory

; 985  :         _STD _Deallocate<_New_alignof<_Ty>>(_Ptr, sizeof(_Ty) * _Count);

  008f4	8b c1		 mov	 eax, ecx
; File C:\Program Files\Microsoft Visual Studio\2022\Community\VC\Tools\MSVC\14.44.35207\include\vector

; 2093 :             _Al.deallocate(_Myfirst, static_cast<size_type>(_Myend - _Myfirst));

  008f6	2b d1		 sub	 edx, ecx
; File C:\Program Files\Microsoft Visual Studio\2022\Community\VC\Tools\MSVC\14.44.35207\include\xmemory

; 284  :         if (_Bytes >= _Big_allocation_threshold) {

  008f8	81 fa 00 10 00
	00		 cmp	 edx, 4096		; 00001000H
  008fe	72 14		 jb	 SHORT $LN669@dynamic

; 205  :     const uintptr_t _Ptr_container   = _Ptr_user[-1];

  00900	8b 48 fc	 mov	 ecx, DWORD PTR [eax-4]
  00903	83 c2 23	 add	 edx, 35			; 00000023H
  00906	2b c1		 sub	 eax, ecx

; 219  :     _STL_VERIFY(_Back_shift >= _Min_back_shift && _Back_shift <= _Non_user_size, "invalid argument");

  00908	83 c0 fc	 add	 eax, -4			; fffffffcH
  0090b	83 f8 1f	 cmp	 eax, 31			; 0000001fH
  0090e	0f 87 0e 03 00
	00		 ja	 $LN950@dynamic
$LN669@dynamic:

; 289  :         ::operator delete(_Ptr, _Bytes);

  00914	52		 push	 edx
  00915	51		 push	 ecx
  00916	e8 00 00 00 00	 call	 ??3@YAXPAXI@Z		; operator delete
  0091b	83 c4 08	 add	 esp, 8
; File C:\Program Files\Microsoft Visual Studio\2022\Community\VC\Tools\MSVC\14.44.35207\include\vector

; 2095 :             _Myfirst = nullptr;

  0091e	c7 85 24 ff ff
	ff 00 00 00 00	 mov	 DWORD PTR $T177[ebp], 0

; 2096 :             _Mylast  = nullptr;

  00928	c7 85 28 ff ff
	ff 00 00 00 00	 mov	 DWORD PTR $T177[ebp+4], 0

; 2097 :             _Myend   = nullptr;

  00932	c7 85 2c ff ff
	ff 00 00 00 00	 mov	 DWORD PTR $T177[ebp+8], 0
$LN655@dynamic:
; File C:\Program Files\Microsoft Visual Studio\2022\Community\VC\Tools\MSVC\14.44.35207\include\xtree

; 777  :         _Erase_tree(_Al, _Myhead->_Parent);

  0093c	8b 85 cc fe ff
	ff		 mov	 eax, DWORD PTR $T168[ebp]
  00942	ff 70 04	 push	 DWORD PTR [eax+4]
  00945	8d 85 cc fe ff
	ff		 lea	 eax, DWORD PTR $T168[ebp]
  0094b	50		 push	 eax
  0094c	8b c8		 mov	 ecx, eax
  0094e	e8 00 00 00 00	 call	 ??$_Erase_tree@V?$allocator@U?$_Tree_node@U?$pair@$$CBEV?$vector@EV?$allocator@E@std@@@std@@@std@@PAX@std@@@std@@@?$_Tree_val@U?$_Tree_simple_types@U?$pair@$$CBEV?$vector@EV?$allocator@E@std@@@std@@@std@@@std@@@std@@QAEXAAV?$allocator@U?$_Tree_node@U?$pair@$$CBEV?$vector@EV?$allocator@E@std@@@std@@@std@@PAX@std@@@1@PAU?$_Tree_node@U?$pair@$$CBEV?$vector@EV?$allocator@E@std@@@std@@@std@@PAX@1@@Z ; std::_Tree_val<std::_Tree_simple_types<std::pair<unsigned char const ,std::vector<unsigned char,std::allocator<unsigned char> > > > >::_Erase_tree<std::allocator<std::_Tree_node<std::pair<unsigned char const ,std::vector<unsigned char,std::allocator<unsigned char> > >,void *> > >
; File C:\Program Files\Microsoft Visual Studio\2022\Community\VC\Tools\MSVC\14.44.35207\include\xmemory

; 289  :         ::operator delete(_Ptr, _Bytes);

  00953	6a 20		 push	 32			; 00000020H
  00955	ff b5 cc fe ff
	ff		 push	 DWORD PTR $T168[ebp]
  0095b	e8 00 00 00 00	 call	 ??3@YAXPAXI@Z		; operator delete
  00960	83 c4 08	 add	 esp, 8
; File C:\Anka2Project\Anka2Project\Source\Binary\source\UserInterface\PythonPlayerSettingsModule.h

; 618  : static const std::map<uint8_t, std::map<uint8_t, std::vector<uint8_t>>> skillIndexes{

  00963	c6 45 fc 20	 mov	 BYTE PTR __$EHRec$[ebp+8], 32 ; 00000020H
  00967	8d 85 7c fe ff
	ff		 lea	 eax, DWORD PTR $T130[ebp]
  0096d	68 00 00 00 00	 push	 OFFSET ??1?$pair@$$CBEV?$vector@EV?$allocator@E@std@@@std@@@std@@QAE@XZ
  00972	6a 02		 push	 2
  00974	6a 10		 push	 16			; 00000010H
  00976	50		 push	 eax
  00977	e8 00 00 00 00	 call	 ??_M@YGXPAXIIP6EX0@Z@Z
  0097c	c6 45 fc 1f	 mov	 BYTE PTR __$EHRec$[ebp+8], 31 ; 0000001fH
; File C:\Program Files\Microsoft Visual Studio\2022\Community\VC\Tools\MSVC\14.44.35207\include\vector

; 2090 :         if (_Myfirst) { // destroy and deallocate old array

  00980	8b 95 18 ff ff
	ff		 mov	 edx, DWORD PTR $T147[ebp]
  00986	85 d2		 test	 edx, edx
  00988	74 4e		 je	 SHORT $LN726@dynamic

; 2093 :             _Al.deallocate(_Myfirst, static_cast<size_type>(_Myend - _Myfirst));

  0098a	8b 8d 20 ff ff
	ff		 mov	 ecx, DWORD PTR $T147[ebp+8]
; File C:\Program Files\Microsoft Visual Studio\2022\Community\VC\Tools\MSVC\14.44.35207\include\xmemory

; 985  :         _STD _Deallocate<_New_alignof<_Ty>>(_Ptr, sizeof(_Ty) * _Count);

  00990	8b c2		 mov	 eax, edx
; File C:\Program Files\Microsoft Visual Studio\2022\Community\VC\Tools\MSVC\14.44.35207\include\vector

; 2093 :             _Al.deallocate(_Myfirst, static_cast<size_type>(_Myend - _Myfirst));

  00992	2b ca		 sub	 ecx, edx
; File C:\Program Files\Microsoft Visual Studio\2022\Community\VC\Tools\MSVC\14.44.35207\include\xmemory

; 284  :         if (_Bytes >= _Big_allocation_threshold) {

  00994	81 f9 00 10 00
	00		 cmp	 ecx, 4096		; 00001000H
  0099a	72 14		 jb	 SHORT $LN740@dynamic

; 205  :     const uintptr_t _Ptr_container   = _Ptr_user[-1];

  0099c	8b 50 fc	 mov	 edx, DWORD PTR [eax-4]
  0099f	83 c1 23	 add	 ecx, 35			; 00000023H
  009a2	2b c2		 sub	 eax, edx

; 219  :     _STL_VERIFY(_Back_shift >= _Min_back_shift && _Back_shift <= _Non_user_size, "invalid argument");

  009a4	83 c0 fc	 add	 eax, -4			; fffffffcH
  009a7	83 f8 1f	 cmp	 eax, 31			; 0000001fH
  009aa	0f 87 72 02 00
	00		 ja	 $LN950@dynamic
$LN740@dynamic:

; 289  :         ::operator delete(_Ptr, _Bytes);

  009b0	51		 push	 ecx
  009b1	52		 push	 edx
  009b2	e8 00 00 00 00	 call	 ??3@YAXPAXI@Z		; operator delete
  009b7	83 c4 08	 add	 esp, 8
; File C:\Program Files\Microsoft Visual Studio\2022\Community\VC\Tools\MSVC\14.44.35207\include\vector

; 2095 :             _Myfirst = nullptr;

  009ba	c7 85 18 ff ff
	ff 00 00 00 00	 mov	 DWORD PTR $T147[ebp], 0

; 2096 :             _Mylast  = nullptr;

  009c4	c7 85 1c ff ff
	ff 00 00 00 00	 mov	 DWORD PTR $T147[ebp+4], 0

; 2097 :             _Myend   = nullptr;

  009ce	c7 85 20 ff ff
	ff 00 00 00 00	 mov	 DWORD PTR $T147[ebp+8], 0
$LN726@dynamic:
; File C:\Anka2Project\Anka2Project\Source\Binary\source\UserInterface\PythonPlayerSettingsModule.h

; 618  : static const std::map<uint8_t, std::map<uint8_t, std::vector<uint8_t>>> skillIndexes{

  009d8	c6 45 fc 1e	 mov	 BYTE PTR __$EHRec$[ebp+8], 30 ; 0000001eH
; File C:\Program Files\Microsoft Visual Studio\2022\Community\VC\Tools\MSVC\14.44.35207\include\vector

; 2090 :         if (_Myfirst) { // destroy and deallocate old array

  009dc	8b 8d 0c ff ff
	ff		 mov	 ecx, DWORD PTR $T121[ebp]
  009e2	85 c9		 test	 ecx, ecx
  009e4	74 4e		 je	 SHORT $LN749@dynamic

; 2093 :             _Al.deallocate(_Myfirst, static_cast<size_type>(_Myend - _Myfirst));

  009e6	8b 95 14 ff ff
	ff		 mov	 edx, DWORD PTR $T121[ebp+8]
; File C:\Program Files\Microsoft Visual Studio\2022\Community\VC\Tools\MSVC\14.44.35207\include\xmemory

; 985  :         _STD _Deallocate<_New_alignof<_Ty>>(_Ptr, sizeof(_Ty) * _Count);

  009ec	8b c1		 mov	 eax, ecx
; File C:\Program Files\Microsoft Visual Studio\2022\Community\VC\Tools\MSVC\14.44.35207\include\vector

; 2093 :             _Al.deallocate(_Myfirst, static_cast<size_type>(_Myend - _Myfirst));

  009ee	2b d1		 sub	 edx, ecx
; File C:\Program Files\Microsoft Visual Studio\2022\Community\VC\Tools\MSVC\14.44.35207\include\xmemory

; 284  :         if (_Bytes >= _Big_allocation_threshold) {

  009f0	81 fa 00 10 00
	00		 cmp	 edx, 4096		; 00001000H
  009f6	72 14		 jb	 SHORT $LN763@dynamic

; 205  :     const uintptr_t _Ptr_container   = _Ptr_user[-1];

  009f8	8b 48 fc	 mov	 ecx, DWORD PTR [eax-4]
  009fb	83 c2 23	 add	 edx, 35			; 00000023H
  009fe	2b c1		 sub	 eax, ecx

; 219  :     _STL_VERIFY(_Back_shift >= _Min_back_shift && _Back_shift <= _Non_user_size, "invalid argument");

  00a00	83 c0 fc	 add	 eax, -4			; fffffffcH
  00a03	83 f8 1f	 cmp	 eax, 31			; 0000001fH
  00a06	0f 87 16 02 00
	00		 ja	 $LN950@dynamic
$LN763@dynamic:

; 289  :         ::operator delete(_Ptr, _Bytes);

  00a0c	52		 push	 edx
  00a0d	51		 push	 ecx
  00a0e	e8 00 00 00 00	 call	 ??3@YAXPAXI@Z		; operator delete
  00a13	83 c4 08	 add	 esp, 8
; File C:\Program Files\Microsoft Visual Studio\2022\Community\VC\Tools\MSVC\14.44.35207\include\vector

; 2095 :             _Myfirst = nullptr;

  00a16	c7 85 0c ff ff
	ff 00 00 00 00	 mov	 DWORD PTR $T121[ebp], 0

; 2096 :             _Mylast  = nullptr;

  00a20	c7 85 10 ff ff
	ff 00 00 00 00	 mov	 DWORD PTR $T121[ebp+4], 0

; 2097 :             _Myend   = nullptr;

  00a2a	c7 85 14 ff ff
	ff 00 00 00 00	 mov	 DWORD PTR $T121[ebp+8], 0
$LN749@dynamic:
; File C:\Program Files\Microsoft Visual Studio\2022\Community\VC\Tools\MSVC\14.44.35207\include\xtree

; 777  :         _Erase_tree(_Al, _Myhead->_Parent);

  00a34	8b 85 c4 fe ff
	ff		 mov	 eax, DWORD PTR $T112[ebp]
  00a3a	ff 70 04	 push	 DWORD PTR [eax+4]
  00a3d	8d 85 c4 fe ff
	ff		 lea	 eax, DWORD PTR $T112[ebp]
  00a43	50		 push	 eax
  00a44	8b c8		 mov	 ecx, eax
  00a46	e8 00 00 00 00	 call	 ??$_Erase_tree@V?$allocator@U?$_Tree_node@U?$pair@$$CBEV?$vector@EV?$allocator@E@std@@@std@@@std@@PAX@std@@@std@@@?$_Tree_val@U?$_Tree_simple_types@U?$pair@$$CBEV?$vector@EV?$allocator@E@std@@@std@@@std@@@std@@@std@@QAEXAAV?$allocator@U?$_Tree_node@U?$pair@$$CBEV?$vector@EV?$allocator@E@std@@@std@@@std@@PAX@std@@@1@PAU?$_Tree_node@U?$pair@$$CBEV?$vector@EV?$allocator@E@std@@@std@@@std@@PAX@1@@Z ; std::_Tree_val<std::_Tree_simple_types<std::pair<unsigned char const ,std::vector<unsigned char,std::allocator<unsigned char> > > > >::_Erase_tree<std::allocator<std::_Tree_node<std::pair<unsigned char const ,std::vector<unsigned char,std::allocator<unsigned char> > >,void *> > >
; File C:\Program Files\Microsoft Visual Studio\2022\Community\VC\Tools\MSVC\14.44.35207\include\xmemory

; 289  :         ::operator delete(_Ptr, _Bytes);

  00a4b	6a 20		 push	 32			; 00000020H
  00a4d	ff b5 c4 fe ff
	ff		 push	 DWORD PTR $T112[ebp]
  00a53	e8 00 00 00 00	 call	 ??3@YAXPAXI@Z		; operator delete
  00a58	83 c4 08	 add	 esp, 8
; File C:\Anka2Project\Anka2Project\Source\Binary\source\UserInterface\PythonPlayerSettingsModule.h

; 618  : static const std::map<uint8_t, std::map<uint8_t, std::vector<uint8_t>>> skillIndexes{

  00a5b	c6 45 fc 1c	 mov	 BYTE PTR __$EHRec$[ebp+8], 28 ; 0000001cH
  00a5f	8d 85 5c fe ff
	ff		 lea	 eax, DWORD PTR $T74[ebp]
  00a65	68 00 00 00 00	 push	 OFFSET ??1?$pair@$$CBEV?$vector@EV?$allocator@E@std@@@std@@@std@@QAE@XZ
  00a6a	6a 02		 push	 2
  00a6c	6a 10		 push	 16			; 00000010H
  00a6e	50		 push	 eax
  00a6f	e8 00 00 00 00	 call	 ??_M@YGXPAXIIP6EX0@Z@Z
  00a74	c6 45 fc 1b	 mov	 BYTE PTR __$EHRec$[ebp+8], 27 ; 0000001bH
; File C:\Program Files\Microsoft Visual Studio\2022\Community\VC\Tools\MSVC\14.44.35207\include\vector

; 2090 :         if (_Myfirst) { // destroy and deallocate old array

  00a78	8b 95 00 ff ff
	ff		 mov	 edx, DWORD PTR $T91[ebp]
  00a7e	85 d2		 test	 edx, edx
  00a80	74 4e		 je	 SHORT $LN820@dynamic

; 2093 :             _Al.deallocate(_Myfirst, static_cast<size_type>(_Myend - _Myfirst));

  00a82	8b 8d 08 ff ff
	ff		 mov	 ecx, DWORD PTR $T91[ebp+8]
; File C:\Program Files\Microsoft Visual Studio\2022\Community\VC\Tools\MSVC\14.44.35207\include\xmemory

; 985  :         _STD _Deallocate<_New_alignof<_Ty>>(_Ptr, sizeof(_Ty) * _Count);

  00a88	8b c2		 mov	 eax, edx
; File C:\Program Files\Microsoft Visual Studio\2022\Community\VC\Tools\MSVC\14.44.35207\include\vector

; 2093 :             _Al.deallocate(_Myfirst, static_cast<size_type>(_Myend - _Myfirst));

  00a8a	2b ca		 sub	 ecx, edx
; File C:\Program Files\Microsoft Visual Studio\2022\Community\VC\Tools\MSVC\14.44.35207\include\xmemory

; 284  :         if (_Bytes >= _Big_allocation_threshold) {

  00a8c	81 f9 00 10 00
	00		 cmp	 ecx, 4096		; 00001000H
  00a92	72 14		 jb	 SHORT $LN834@dynamic

; 205  :     const uintptr_t _Ptr_container   = _Ptr_user[-1];

  00a94	8b 50 fc	 mov	 edx, DWORD PTR [eax-4]
  00a97	83 c1 23	 add	 ecx, 35			; 00000023H
  00a9a	2b c2		 sub	 eax, edx

; 219  :     _STL_VERIFY(_Back_shift >= _Min_back_shift && _Back_shift <= _Non_user_size, "invalid argument");

  00a9c	83 c0 fc	 add	 eax, -4			; fffffffcH
  00a9f	83 f8 1f	 cmp	 eax, 31			; 0000001fH
  00aa2	0f 87 7a 01 00
	00		 ja	 $LN950@dynamic
$LN834@dynamic:

; 289  :         ::operator delete(_Ptr, _Bytes);

  00aa8	51		 push	 ecx
  00aa9	52		 push	 edx
  00aaa	e8 00 00 00 00	 call	 ??3@YAXPAXI@Z		; operator delete
  00aaf	83 c4 08	 add	 esp, 8
; File C:\Program Files\Microsoft Visual Studio\2022\Community\VC\Tools\MSVC\14.44.35207\include\vector

; 2095 :             _Myfirst = nullptr;

  00ab2	c7 85 00 ff ff
	ff 00 00 00 00	 mov	 DWORD PTR $T91[ebp], 0

; 2096 :             _Mylast  = nullptr;

  00abc	c7 85 04 ff ff
	ff 00 00 00 00	 mov	 DWORD PTR $T91[ebp+4], 0

; 2097 :             _Myend   = nullptr;

  00ac6	c7 85 08 ff ff
	ff 00 00 00 00	 mov	 DWORD PTR $T91[ebp+8], 0
$LN820@dynamic:
; File C:\Anka2Project\Anka2Project\Source\Binary\source\UserInterface\PythonPlayerSettingsModule.h

; 618  : static const std::map<uint8_t, std::map<uint8_t, std::vector<uint8_t>>> skillIndexes{

  00ad0	c6 45 fc 05	 mov	 BYTE PTR __$EHRec$[ebp+8], 5
; File C:\Program Files\Microsoft Visual Studio\2022\Community\VC\Tools\MSVC\14.44.35207\include\vector

; 2090 :         if (_Myfirst) { // destroy and deallocate old array

  00ad4	8b 8d f4 fe ff
	ff		 mov	 ecx, DWORD PTR $T65[ebp]
  00ada	85 c9		 test	 ecx, ecx
  00adc	74 4e		 je	 SHORT $LN843@dynamic

; 2093 :             _Al.deallocate(_Myfirst, static_cast<size_type>(_Myend - _Myfirst));

  00ade	8b 95 fc fe ff
	ff		 mov	 edx, DWORD PTR $T65[ebp+8]
; File C:\Program Files\Microsoft Visual Studio\2022\Community\VC\Tools\MSVC\14.44.35207\include\xmemory

; 985  :         _STD _Deallocate<_New_alignof<_Ty>>(_Ptr, sizeof(_Ty) * _Count);

  00ae4	8b c1		 mov	 eax, ecx
; File C:\Program Files\Microsoft Visual Studio\2022\Community\VC\Tools\MSVC\14.44.35207\include\vector

; 2093 :             _Al.deallocate(_Myfirst, static_cast<size_type>(_Myend - _Myfirst));

  00ae6	2b d1		 sub	 edx, ecx
; File C:\Program Files\Microsoft Visual Studio\2022\Community\VC\Tools\MSVC\14.44.35207\include\xmemory

; 284  :         if (_Bytes >= _Big_allocation_threshold) {

  00ae8	81 fa 00 10 00
	00		 cmp	 edx, 4096		; 00001000H
  00aee	72 14		 jb	 SHORT $LN857@dynamic

; 205  :     const uintptr_t _Ptr_container   = _Ptr_user[-1];

  00af0	8b 48 fc	 mov	 ecx, DWORD PTR [eax-4]
  00af3	83 c2 23	 add	 edx, 35			; 00000023H
  00af6	2b c1		 sub	 eax, ecx

; 219  :     _STL_VERIFY(_Back_shift >= _Min_back_shift && _Back_shift <= _Non_user_size, "invalid argument");

  00af8	83 c0 fc	 add	 eax, -4			; fffffffcH
  00afb	83 f8 1f	 cmp	 eax, 31			; 0000001fH
  00afe	0f 87 1e 01 00
	00		 ja	 $LN950@dynamic
$LN857@dynamic:

; 289  :         ::operator delete(_Ptr, _Bytes);

  00b04	52		 push	 edx
  00b05	51		 push	 ecx
  00b06	e8 00 00 00 00	 call	 ??3@YAXPAXI@Z		; operator delete
  00b0b	83 c4 08	 add	 esp, 8
; File C:\Program Files\Microsoft Visual Studio\2022\Community\VC\Tools\MSVC\14.44.35207\include\vector

; 2095 :             _Myfirst = nullptr;

  00b0e	c7 85 f4 fe ff
	ff 00 00 00 00	 mov	 DWORD PTR $T65[ebp], 0

; 2096 :             _Mylast  = nullptr;

  00b18	c7 85 f8 fe ff
	ff 00 00 00 00	 mov	 DWORD PTR $T65[ebp+4], 0

; 2097 :             _Myend   = nullptr;

  00b22	c7 85 fc fe ff
	ff 00 00 00 00	 mov	 DWORD PTR $T65[ebp+8], 0
$LN843@dynamic:
; File C:\Program Files\Microsoft Visual Studio\2022\Community\VC\Tools\MSVC\14.44.35207\include\xtree

; 777  :         _Erase_tree(_Al, _Myhead->_Parent);

  00b2c	8b 85 bc fe ff
	ff		 mov	 eax, DWORD PTR $T55[ebp]
  00b32	ff 70 04	 push	 DWORD PTR [eax+4]
  00b35	8d 85 bc fe ff
	ff		 lea	 eax, DWORD PTR $T55[ebp]
  00b3b	50		 push	 eax
  00b3c	8b c8		 mov	 ecx, eax
  00b3e	e8 00 00 00 00	 call	 ??$_Erase_tree@V?$allocator@U?$_Tree_node@U?$pair@$$CBEV?$vector@EV?$allocator@E@std@@@std@@@std@@PAX@std@@@std@@@?$_Tree_val@U?$_Tree_simple_types@U?$pair@$$CBEV?$vector@EV?$allocator@E@std@@@std@@@std@@@std@@@std@@QAEXAAV?$allocator@U?$_Tree_node@U?$pair@$$CBEV?$vector@EV?$allocator@E@std@@@std@@@std@@PAX@std@@@1@PAU?$_Tree_node@U?$pair@$$CBEV?$vector@EV?$allocator@E@std@@@std@@@std@@PAX@1@@Z ; std::_Tree_val<std::_Tree_simple_types<std::pair<unsigned char const ,std::vector<unsigned char,std::allocator<unsigned char> > > > >::_Erase_tree<std::allocator<std::_Tree_node<std::pair<unsigned char const ,std::vector<unsigned char,std::allocator<unsigned char> > >,void *> > >
; File C:\Program Files\Microsoft Visual Studio\2022\Community\VC\Tools\MSVC\14.44.35207\include\xmemory

; 289  :         ::operator delete(_Ptr, _Bytes);

  00b43	6a 20		 push	 32			; 00000020H
  00b45	ff b5 bc fe ff
	ff		 push	 DWORD PTR $T55[ebp]
  00b4b	e8 00 00 00 00	 call	 ??3@YAXPAXI@Z		; operator delete
  00b50	83 c4 08	 add	 esp, 8
; File C:\Anka2Project\Anka2Project\Source\Binary\source\UserInterface\PythonPlayerSettingsModule.h

; 618  : static const std::map<uint8_t, std::map<uint8_t, std::vector<uint8_t>>> skillIndexes{

  00b53	c6 45 fc 03	 mov	 BYTE PTR __$EHRec$[ebp+8], 3
  00b57	8d 85 3c fe ff
	ff		 lea	 eax, DWORD PTR $T17[ebp]
  00b5d	68 00 00 00 00	 push	 OFFSET ??1?$pair@$$CBEV?$vector@EV?$allocator@E@std@@@std@@@std@@QAE@XZ
  00b62	6a 02		 push	 2
  00b64	6a 10		 push	 16			; 00000010H
  00b66	50		 push	 eax
  00b67	e8 00 00 00 00	 call	 ??_M@YGXPAXIIP6EX0@Z@Z
; File C:\Program Files\Microsoft Visual Studio\2022\Community\VC\Tools\MSVC\14.44.35207\include\vector

; 2090 :         if (_Myfirst) { // destroy and deallocate old array

  00b6c	8b 95 e8 fe ff
	ff		 mov	 edx, DWORD PTR $T34[ebp]
  00b72	85 d2		 test	 edx, edx
  00b74	74 4e		 je	 SHORT $LN914@dynamic

; 2093 :             _Al.deallocate(_Myfirst, static_cast<size_type>(_Myend - _Myfirst));

  00b76	8b 8d f0 fe ff
	ff		 mov	 ecx, DWORD PTR $T34[ebp+8]
; File C:\Program Files\Microsoft Visual Studio\2022\Community\VC\Tools\MSVC\14.44.35207\include\xmemory

; 985  :         _STD _Deallocate<_New_alignof<_Ty>>(_Ptr, sizeof(_Ty) * _Count);

  00b7c	8b c2		 mov	 eax, edx
; File C:\Program Files\Microsoft Visual Studio\2022\Community\VC\Tools\MSVC\14.44.35207\include\vector

; 2093 :             _Al.deallocate(_Myfirst, static_cast<size_type>(_Myend - _Myfirst));

  00b7e	2b ca		 sub	 ecx, edx
; File C:\Program Files\Microsoft Visual Studio\2022\Community\VC\Tools\MSVC\14.44.35207\include\xmemory

; 284  :         if (_Bytes >= _Big_allocation_threshold) {

  00b80	81 f9 00 10 00
	00		 cmp	 ecx, 4096		; 00001000H
  00b86	72 14		 jb	 SHORT $LN928@dynamic

; 205  :     const uintptr_t _Ptr_container   = _Ptr_user[-1];

  00b88	8b 50 fc	 mov	 edx, DWORD PTR [eax-4]
  00b8b	83 c1 23	 add	 ecx, 35			; 00000023H
  00b8e	2b c2		 sub	 eax, edx

; 219  :     _STL_VERIFY(_Back_shift >= _Min_back_shift && _Back_shift <= _Non_user_size, "invalid argument");

  00b90	83 c0 fc	 add	 eax, -4			; fffffffcH
  00b93	83 f8 1f	 cmp	 eax, 31			; 0000001fH
  00b96	0f 87 86 00 00
	00		 ja	 $LN950@dynamic
$LN928@dynamic:

; 289  :         ::operator delete(_Ptr, _Bytes);

  00b9c	51		 push	 ecx
  00b9d	52		 push	 edx
  00b9e	e8 00 00 00 00	 call	 ??3@YAXPAXI@Z		; operator delete
  00ba3	83 c4 08	 add	 esp, 8
; File C:\Program Files\Microsoft Visual Studio\2022\Community\VC\Tools\MSVC\14.44.35207\include\vector

; 2095 :             _Myfirst = nullptr;

  00ba6	c7 85 e8 fe ff
	ff 00 00 00 00	 mov	 DWORD PTR $T34[ebp], 0

; 2096 :             _Mylast  = nullptr;

  00bb0	c7 85 ec fe ff
	ff 00 00 00 00	 mov	 DWORD PTR $T34[ebp+4], 0

; 2097 :             _Myend   = nullptr;

  00bba	c7 85 f0 fe ff
	ff 00 00 00 00	 mov	 DWORD PTR $T34[ebp+8], 0
$LN914@dynamic:

; 2090 :         if (_Myfirst) { // destroy and deallocate old array

  00bc4	8b 8d dc fe ff
	ff		 mov	 ecx, DWORD PTR $T8[ebp]
  00bca	85 c9		 test	 ecx, ecx
  00bcc	74 2c		 je	 SHORT $LN943@dynamic

; 2093 :             _Al.deallocate(_Myfirst, static_cast<size_type>(_Myend - _Myfirst));

  00bce	8b 95 e4 fe ff
	ff		 mov	 edx, DWORD PTR $T8[ebp+8]
; File C:\Program Files\Microsoft Visual Studio\2022\Community\VC\Tools\MSVC\14.44.35207\include\xmemory

; 985  :         _STD _Deallocate<_New_alignof<_Ty>>(_Ptr, sizeof(_Ty) * _Count);

  00bd4	8b c1		 mov	 eax, ecx
; File C:\Program Files\Microsoft Visual Studio\2022\Community\VC\Tools\MSVC\14.44.35207\include\vector

; 2093 :             _Al.deallocate(_Myfirst, static_cast<size_type>(_Myend - _Myfirst));

  00bd6	2b d1		 sub	 edx, ecx
; File C:\Program Files\Microsoft Visual Studio\2022\Community\VC\Tools\MSVC\14.44.35207\include\xmemory

; 284  :         if (_Bytes >= _Big_allocation_threshold) {

  00bd8	81 fa 00 10 00
	00		 cmp	 edx, 4096		; 00001000H
  00bde	72 10		 jb	 SHORT $LN951@dynamic

; 205  :     const uintptr_t _Ptr_container   = _Ptr_user[-1];

  00be0	8b 48 fc	 mov	 ecx, DWORD PTR [eax-4]
  00be3	83 c2 23	 add	 edx, 35			; 00000023H
  00be6	2b c1		 sub	 eax, ecx

; 219  :     _STL_VERIFY(_Back_shift >= _Min_back_shift && _Back_shift <= _Non_user_size, "invalid argument");

  00be8	83 c0 fc	 add	 eax, -4			; fffffffcH
  00beb	83 f8 1f	 cmp	 eax, 31			; 0000001fH
  00bee	77 32		 ja	 SHORT $LN950@dynamic
$LN951@dynamic:

; 289  :         ::operator delete(_Ptr, _Bytes);

  00bf0	52		 push	 edx
  00bf1	51		 push	 ecx
  00bf2	e8 00 00 00 00	 call	 ??3@YAXPAXI@Z		; operator delete
  00bf7	83 c4 08	 add	 esp, 8
$LN943@dynamic:
; File C:\Anka2Project\Anka2Project\Source\Binary\source\UserInterface\PythonPlayerSettingsModule.h

; 618  : static const std::map<uint8_t, std::map<uint8_t, std::vector<uint8_t>>> skillIndexes{

  00bfa	68 00 00 00 00	 push	 OFFSET ??__FskillIndexes@@YAXXZ ; `dynamic atexit destructor for 'skillIndexes''
  00bff	e8 00 00 00 00	 call	 _atexit
  00c04	83 c4 04	 add	 esp, 4
  00c07	8b 4d f4	 mov	 ecx, DWORD PTR __$EHRec$[ebp]
  00c0a	64 89 0d 00 00
	00 00		 mov	 DWORD PTR fs:0, ecx
  00c11	59		 pop	 ecx
  00c12	5f		 pop	 edi
  00c13	5e		 pop	 esi
  00c14	8b 4d f0	 mov	 ecx, DWORD PTR __$ArrayPad$[ebp]
  00c17	33 cd		 xor	 ecx, ebp
  00c19	e8 00 00 00 00	 call	 @__security_check_cookie@4
  00c1e	8b e5		 mov	 esp, ebp
  00c20	5d		 pop	 ebp
  00c21	c3		 ret	 0
$LN950@dynamic:
; File C:\Program Files\Microsoft Visual Studio\2022\Community\VC\Tools\MSVC\14.44.35207\include\xmemory

; 219  :     _STL_VERIFY(_Back_shift >= _Min_back_shift && _Back_shift <= _Non_user_size, "invalid argument");

  00c22	6a 00		 push	 0
  00c24	6a 00		 push	 0
  00c26	6a 00		 push	 0
  00c28	6a 00		 push	 0
  00c2a	6a 00		 push	 0
  00c2c	e8 00 00 00 00	 call	 __invoke_watson
$LN1021@dynamic:
  00c31	cc		 int	 3
text$di	ENDS
;	COMDAT text$x
text$x	SEGMENT
__unwindfunclet$??__EskillIndexes@@YAXXZ$0:
  00000	8d 8d dc fe ff
	ff		 lea	 ecx, DWORD PTR $T8[ebp]
  00006	e9 00 00 00 00	 jmp	 ??1?$vector@EV?$allocator@E@std@@@std@@QAE@XZ ; std::vector<unsigned char,std::allocator<unsigned char> >::~vector<unsigned char,std::allocator<unsigned char> >
__unwindfunclet$??__EskillIndexes@@YAXXZ$1:
  0000b	8d 8d 3c fe ff
	ff		 lea	 ecx, DWORD PTR $T17[ebp]
  00011	e9 00 00 00 00	 jmp	 ??1?$pair@$$CBEV?$vector@EV?$allocator@E@std@@@std@@@std@@QAE@XZ
__unwindfunclet$??__EskillIndexes@@YAXXZ$2:
  00016	8d 8d e8 fe ff
	ff		 lea	 ecx, DWORD PTR $T34[ebp]
  0001c	e9 00 00 00 00	 jmp	 ??1?$vector@EV?$allocator@E@std@@@std@@QAE@XZ ; std::vector<unsigned char,std::allocator<unsigned char> >::~vector<unsigned char,std::allocator<unsigned char> >
__unwindfunclet$??__EskillIndexes@@YAXXZ$4:
  00021	68 00 00 00 00	 push	 OFFSET ??1?$pair@$$CBEV?$vector@EV?$allocator@E@std@@@std@@@std@@QAE@XZ
  00026	6a 02		 push	 2
  00028	6a 10		 push	 16			; 00000010H
  0002a	8d 85 3c fe ff
	ff		 lea	 eax, DWORD PTR $T17[ebp]
  00030	50		 push	 eax
  00031	e8 00 00 00 00	 call	 ??_M@YGXPAXIIP6EX0@Z@Z
  00036	c3		 ret	 0
__unwindfunclet$??__EskillIndexes@@YAXXZ$5:
  00037	8d 8d bc fe ff
	ff		 lea	 ecx, DWORD PTR $T55[ebp]
  0003d	e9 00 00 00 00	 jmp	 ??1?$map@EV?$vector@EV?$allocator@E@std@@@std@@U?$less@E@2@V?$allocator@U?$pair@$$CBEV?$vector@EV?$allocator@E@std@@@std@@@std@@@2@@std@@QAE@XZ
__unwindfunclet$??__EskillIndexes@@YAXXZ$6:
  00042	8d 8d 40 ff ff
	ff		 lea	 ecx, DWORD PTR $T56[ebp]
  00048	e9 00 00 00 00	 jmp	 ??1?$pair@$$CBEV?$map@EV?$vector@EV?$allocator@E@std@@@std@@U?$less@E@2@V?$allocator@U?$pair@$$CBEV?$vector@EV?$allocator@E@std@@@std@@@std@@@2@@std@@@std@@QAE@XZ
__unwindfunclet$??__EskillIndexes@@YAXXZ$7:
  0004d	8d 8d f4 fe ff
	ff		 lea	 ecx, DWORD PTR $T65[ebp]
  00053	e9 00 00 00 00	 jmp	 ??1?$vector@EV?$allocator@E@std@@@std@@QAE@XZ ; std::vector<unsigned char,std::allocator<unsigned char> >::~vector<unsigned char,std::allocator<unsigned char> >
__unwindfunclet$??__EskillIndexes@@YAXXZ$8:
  00058	8d 8d 5c fe ff
	ff		 lea	 ecx, DWORD PTR $T74[ebp]
  0005e	e9 00 00 00 00	 jmp	 ??1?$pair@$$CBEV?$vector@EV?$allocator@E@std@@@std@@@std@@QAE@XZ
__unwindfunclet$??__EskillIndexes@@YAXXZ$9:
  00063	8d 8d 00 ff ff
	ff		 lea	 ecx, DWORD PTR $T91[ebp]
  00069	e9 00 00 00 00	 jmp	 ??1?$vector@EV?$allocator@E@std@@@std@@QAE@XZ ; std::vector<unsigned char,std::allocator<unsigned char> >::~vector<unsigned char,std::allocator<unsigned char> >
__unwindfunclet$??__EskillIndexes@@YAXXZ$11:
  0006e	68 00 00 00 00	 push	 OFFSET ??1?$pair@$$CBEV?$vector@EV?$allocator@E@std@@@std@@@std@@QAE@XZ
  00073	6a 02		 push	 2
  00075	6a 10		 push	 16			; 00000010H
  00077	8d 85 5c fe ff
	ff		 lea	 eax, DWORD PTR $T74[ebp]
  0007d	50		 push	 eax
  0007e	e8 00 00 00 00	 call	 ??_M@YGXPAXIIP6EX0@Z@Z
  00083	c3		 ret	 0
__unwindfunclet$??__EskillIndexes@@YAXXZ$12:
  00084	8d 8d c4 fe ff
	ff		 lea	 ecx, DWORD PTR $T112[ebp]
  0008a	e9 00 00 00 00	 jmp	 ??1?$map@EV?$vector@EV?$allocator@E@std@@@std@@U?$less@E@2@V?$allocator@U?$pair@$$CBEV?$vector@EV?$allocator@E@std@@@std@@@std@@@2@@std@@QAE@XZ
__unwindfunclet$??__EskillIndexes@@YAXXZ$13:
  0008f	8d 8d 4c ff ff
	ff		 lea	 ecx, DWORD PTR $T56[ebp+12]
  00095	e9 00 00 00 00	 jmp	 ??1?$pair@$$CBEV?$map@EV?$vector@EV?$allocator@E@std@@@std@@U?$less@E@2@V?$allocator@U?$pair@$$CBEV?$vector@EV?$allocator@E@std@@@std@@@std@@@2@@std@@@std@@QAE@XZ
__unwindfunclet$??__EskillIndexes@@YAXXZ$14:
  0009a	8d 8d 0c ff ff
	ff		 lea	 ecx, DWORD PTR $T121[ebp]
  000a0	e9 00 00 00 00	 jmp	 ??1?$vector@EV?$allocator@E@std@@@std@@QAE@XZ ; std::vector<unsigned char,std::allocator<unsigned char> >::~vector<unsigned char,std::allocator<unsigned char> >
__unwindfunclet$??__EskillIndexes@@YAXXZ$15:
  000a5	8d 8d 7c fe ff
	ff		 lea	 ecx, DWORD PTR $T130[ebp]
  000ab	e9 00 00 00 00	 jmp	 ??1?$pair@$$CBEV?$vector@EV?$allocator@E@std@@@std@@@std@@QAE@XZ
__unwindfunclet$??__EskillIndexes@@YAXXZ$16:
  000b0	8d 8d 18 ff ff
	ff		 lea	 ecx, DWORD PTR $T147[ebp]
  000b6	e9 00 00 00 00	 jmp	 ??1?$vector@EV?$allocator@E@std@@@std@@QAE@XZ ; std::vector<unsigned char,std::allocator<unsigned char> >::~vector<unsigned char,std::allocator<unsigned char> >
__unwindfunclet$??__EskillIndexes@@YAXXZ$18:
  000bb	68 00 00 00 00	 push	 OFFSET ??1?$pair@$$CBEV?$vector@EV?$allocator@E@std@@@std@@@std@@QAE@XZ
  000c0	6a 02		 push	 2
  000c2	6a 10		 push	 16			; 00000010H
  000c4	8d 85 7c fe ff
	ff		 lea	 eax, DWORD PTR $T130[ebp]
  000ca	50		 push	 eax
  000cb	e8 00 00 00 00	 call	 ??_M@YGXPAXIIP6EX0@Z@Z
  000d0	c3		 ret	 0
__unwindfunclet$??__EskillIndexes@@YAXXZ$19:
  000d1	8d 8d cc fe ff
	ff		 lea	 ecx, DWORD PTR $T168[ebp]
  000d7	e9 00 00 00 00	 jmp	 ??1?$map@EV?$vector@EV?$allocator@E@std@@@std@@U?$less@E@2@V?$allocator@U?$pair@$$CBEV?$vector@EV?$allocator@E@std@@@std@@@std@@@2@@std@@QAE@XZ
__unwindfunclet$??__EskillIndexes@@YAXXZ$20:
  000dc	8d 8d 58 ff ff
	ff		 lea	 ecx, DWORD PTR $T56[ebp+24]
  000e2	e9 00 00 00 00	 jmp	 ??1?$pair@$$CBEV?$map@EV?$vector@EV?$allocator@E@std@@@std@@U?$less@E@2@V?$allocator@U?$pair@$$CBEV?$vector@EV?$allocator@E@std@@@std@@@std@@@2@@std@@@std@@QAE@XZ
__unwindfunclet$??__EskillIndexes@@YAXXZ$21:
  000e7	8d 8d 24 ff ff
	ff		 lea	 ecx, DWORD PTR $T177[ebp]
  000ed	e9 00 00 00 00	 jmp	 ??1?$vector@EV?$allocator@E@std@@@std@@QAE@XZ ; std::vector<unsigned char,std::allocator<unsigned char> >::~vector<unsigned char,std::allocator<unsigned char> >
__unwindfunclet$??__EskillIndexes@@YAXXZ$22:
  000f2	8d 8d 9c fe ff
	ff		 lea	 ecx, DWORD PTR $T186[ebp]
  000f8	e9 00 00 00 00	 jmp	 ??1?$pair@$$CBEV?$vector@EV?$allocator@E@std@@@std@@@std@@QAE@XZ
__unwindfunclet$??__EskillIndexes@@YAXXZ$23:
  000fd	8d 8d 30 ff ff
	ff		 lea	 ecx, DWORD PTR $T203[ebp]
  00103	e9 00 00 00 00	 jmp	 ??1?$vector@EV?$allocator@E@std@@@std@@QAE@XZ ; std::vector<unsigned char,std::allocator<unsigned char> >::~vector<unsigned char,std::allocator<unsigned char> >
__unwindfunclet$??__EskillIndexes@@YAXXZ$25:
  00108	68 00 00 00 00	 push	 OFFSET ??1?$pair@$$CBEV?$vector@EV?$allocator@E@std@@@std@@@std@@QAE@XZ
  0010d	6a 02		 push	 2
  0010f	6a 10		 push	 16			; 00000010H
  00111	8d 85 9c fe ff
	ff		 lea	 eax, DWORD PTR $T186[ebp]
  00117	50		 push	 eax
  00118	e8 00 00 00 00	 call	 ??_M@YGXPAXIIP6EX0@Z@Z
  0011d	c3		 ret	 0
__unwindfunclet$??__EskillIndexes@@YAXXZ$26:
  0011e	8d 8d d4 fe ff
	ff		 lea	 ecx, DWORD PTR $T224[ebp]
  00124	e9 00 00 00 00	 jmp	 ??1?$map@EV?$vector@EV?$allocator@E@std@@@std@@U?$less@E@2@V?$allocator@U?$pair@$$CBEV?$vector@EV?$allocator@E@std@@@std@@@std@@@2@@std@@QAE@XZ
__unwindfunclet$??__EskillIndexes@@YAXXZ$28:
  00129	68 00 00 00 00	 push	 OFFSET ??1?$pair@$$CBEV?$map@EV?$vector@EV?$allocator@E@std@@@std@@U?$less@E@2@V?$allocator@U?$pair@$$CBEV?$vector@EV?$allocator@E@std@@@std@@@std@@@2@@std@@@std@@QAE@XZ
  0012e	6a 04		 push	 4
  00130	6a 0c		 push	 12			; 0000000cH
  00132	8d 85 40 ff ff
	ff		 lea	 eax, DWORD PTR $T56[ebp]
  00138	50		 push	 eax
  00139	e8 00 00 00 00	 call	 ??_M@YGXPAXIIP6EX0@Z@Z
  0013e	c3		 ret	 0
  0013f	cc		 int	 3
  00140	cc		 int	 3
  00141	cc		 int	 3
  00142	cc		 int	 3
  00143	cc		 int	 3
__ehhandler$??__EskillIndexes@@YAXXZ:
  00144	90		 npad	 1
  00145	90		 npad	 1
  00146	8b 54 24 08	 mov	 edx, DWORD PTR [esp+8]
  0014a	8d 42 0c	 lea	 eax, DWORD PTR [edx+12]
  0014d	8b 8a 3c fe ff
	ff		 mov	 ecx, DWORD PTR [edx-452]
  00153	33 c8		 xor	 ecx, eax
  00155	e8 00 00 00 00	 call	 @__security_check_cookie@4
  0015a	8b 4a fc	 mov	 ecx, DWORD PTR [edx-4]
  0015d	33 c8		 xor	 ecx, eax
  0015f	e8 00 00 00 00	 call	 @__security_check_cookie@4
  00164	b8 00 00 00 00	 mov	 eax, OFFSET __ehfuncinfo$??__EskillIndexes@@YAXXZ
  00169	e9 00 00 00 00	 jmp	 ___CxxFrameHandler3
text$x	ENDS
??__EskillIndexes@@YAXXZ ENDP				; `dynamic initializer for 'skillIndexes''
; Function compile flags: /Ogtp
; File C:\Program Files\Microsoft Visual Studio\2022\Community\VC\Tools\MSVC\14.44.35207\include\xtree
; File C:\Program Files\Microsoft Visual Studio\2022\Community\VC\Tools\MSVC\14.44.35207\include\xmemory
;	COMDAT ??__FskillIndexes@@YAXXZ
text$yd	SEGMENT
??__FskillIndexes@@YAXXZ PROC				; `dynamic atexit destructor for 'skillIndexes'', COMDAT
; File C:\Program Files\Microsoft Visual Studio\2022\Community\VC\Tools\MSVC\14.44.35207\include\xtree

; 777  :         _Erase_tree(_Al, _Myhead->_Parent);

  00000	a1 00 00 00 00	 mov	 eax, DWORD PTR ?skillIndexes@@3V?$map@EV?$map@EV?$vector@EV?$allocator@E@std@@@std@@U?$less@E@2@V?$allocator@U?$pair@$$CBEV?$vector@EV?$allocator@E@std@@@std@@@std@@@2@@std@@U?$less@E@2@V?$allocator@U?$pair@$$CBEV?$map@EV?$vector@EV?$allocator@E@std@@@std@@U?$less@E@2@V?$allocator@U?$pair@$$CBEV?$vector@EV?$allocator@E@std@@@std@@@std@@@2@@std@@@std@@@2@@std@@B
  00005	b9 00 00 00 00	 mov	 ecx, OFFSET ?skillIndexes@@3V?$map@EV?$map@EV?$vector@EV?$allocator@E@std@@@std@@U?$less@E@2@V?$allocator@U?$pair@$$CBEV?$vector@EV?$allocator@E@std@@@std@@@std@@@2@@std@@U?$less@E@2@V?$allocator@U?$pair@$$CBEV?$map@EV?$vector@EV?$allocator@E@std@@@std@@U?$less@E@2@V?$allocator@U?$pair@$$CBEV?$vector@EV?$allocator@E@std@@@std@@@std@@@2@@std@@@std@@@2@@std@@B
  0000a	ff 70 04	 push	 DWORD PTR [eax+4]
  0000d	68 00 00 00 00	 push	 OFFSET ?skillIndexes@@3V?$map@EV?$map@EV?$vector@EV?$allocator@E@std@@@std@@U?$less@E@2@V?$allocator@U?$pair@$$CBEV?$vector@EV?$allocator@E@std@@@std@@@std@@@2@@std@@U?$less@E@2@V?$allocator@U?$pair@$$CBEV?$map@EV?$vector@EV?$allocator@E@std@@@std@@U?$less@E@2@V?$allocator@U?$pair@$$CBEV?$vector@EV?$allocator@E@std@@@std@@@std@@@2@@std@@@std@@@2@@std@@B
  00012	e8 00 00 00 00	 call	 ??$_Erase_tree@V?$allocator@U?$_Tree_node@U?$pair@$$CBEV?$map@EV?$vector@EV?$allocator@E@std@@@std@@U?$less@E@2@V?$allocator@U?$pair@$$CBEV?$vector@EV?$allocator@E@std@@@std@@@std@@@2@@std@@@std@@PAX@std@@@std@@@?$_Tree_val@U?$_Tree_simple_types@U?$pair@$$CBEV?$map@EV?$vector@EV?$allocator@E@std@@@std@@U?$less@E@2@V?$allocator@U?$pair@$$CBEV?$vector@EV?$allocator@E@std@@@std@@@std@@@2@@std@@@std@@@std@@@std@@QAEXAAV?$allocator@U?$_Tree_node@U?$pair@$$CBEV?$map@EV?$vector@EV?$allocator@E@std@@@std@@U?$less@E@2@V?$allocator@U?$pair@$$CBEV?$vector@EV?$allocator@E@std@@@std@@@std@@@2@@std@@@std@@PAX@std@@@1@PAU?$_Tree_node@U?$pair@$$CBEV?$map@EV?$vector@EV?$allocator@E@std@@@std@@U?$less@E@2@V?$allocator@U?$pair@$$CBEV?$vector@EV?$allocator@E@std@@@std@@@std@@@2@@std@@@std@@PAX@1@@Z ; std::_Tree_val<std::_Tree_simple_types<std::pair<unsigned char const ,std::map<unsigned char,std::vector<unsigned char,std::allocator<unsigned char> >,std::less<unsigned char>,std::allocator<std::pair<unsigned char const ,std::vector<unsigned char,std::allocator<unsigned char> > > > > > > >::_Erase_tree<std::allocator<std::_Tree_node<std::pair<unsigned char const ,std::map<unsigned char,std::vector<unsigned char,std::allocator<unsigned char> >,std::less<unsigned char>,std::allocator<std::pair<unsigned char const ,std::vector<unsigned char,std::allocator<unsigned char> > > > > >,void *> > >
; File C:\Program Files\Microsoft Visual Studio\2022\Community\VC\Tools\MSVC\14.44.35207\include\xmemory

; 289  :         ::operator delete(_Ptr, _Bytes);

  00017	6a 1c		 push	 28			; 0000001cH
  00019	ff 35 00 00 00
	00		 push	 DWORD PTR ?skillIndexes@@3V?$map@EV?$map@EV?$vector@EV?$allocator@E@std@@@std@@U?$less@E@2@V?$allocator@U?$pair@$$CBEV?$vector@EV?$allocator@E@std@@@std@@@std@@@2@@std@@U?$less@E@2@V?$allocator@U?$pair@$$CBEV?$map@EV?$vector@EV?$allocator@E@std@@@std@@U?$less@E@2@V?$allocator@U?$pair@$$CBEV?$vector@EV?$allocator@E@std@@@std@@@std@@@2@@std@@@std@@@2@@std@@B
  0001f	e8 00 00 00 00	 call	 ??3@YAXPAXI@Z		; operator delete
  00024	83 c4 08	 add	 esp, 8
  00027	c3		 ret	 0
??__FskillIndexes@@YAXXZ ENDP				; `dynamic atexit destructor for 'skillIndexes''
text$yd	ENDS
; Function compile flags: /Ogtp
; File C:\Anka2Project\Anka2Project\Source\Binary\source\UserInterface\PythonPlayerSettingsModule.h
; File C:\Program Files\Microsoft Visual Studio\2022\Community\VC\Tools\MSVC\14.44.35207\include\__msvc_string_view.hpp
; File C:\Program Files\Microsoft Visual Studio\2022\Community\VC\Tools\MSVC\14.44.35207\include\xstring
; File C:\Program Files\Microsoft Visual Studio\2022\Community\VC\Tools\MSVC\14.44.35207\include\__msvc_string_view.hpp
; File C:\Program Files\Microsoft Visual Studio\2022\Community\VC\Tools\MSVC\14.44.35207\include\xstring
; File C:\Program Files\Microsoft Visual Studio\2022\Community\VC\Tools\MSVC\14.44.35207\include\__msvc_string_view.hpp
; File C:\Program Files\Microsoft Visual Studio\2022\Community\VC\Tools\MSVC\14.44.35207\include\xstring
; File C:\Anka2Project\Anka2Project\Source\Binary\source\UserInterface\PythonPlayerSettingsModule.h
; File C:\Program Files\Microsoft Visual Studio\2022\Community\VC\Tools\MSVC\14.44.35207\include\initializer_list
; File C:\Anka2Project\Anka2Project\Source\Binary\source\UserInterface\PythonPlayerSettingsModule.h
; File C:\Program Files\Microsoft Visual Studio\2022\Community\VC\Tools\MSVC\14.44.35207\include\vector
; File C:\Program Files\Microsoft Visual Studio\2022\Community\VC\Tools\MSVC\14.44.35207\include\xmemory
; File C:\Program Files\Microsoft Visual Studio\2022\Community\VC\Tools\MSVC\14.44.35207\include\vector
; File C:\Program Files\Microsoft Visual Studio\2022\Community\VC\Tools\MSVC\14.44.35207\include\utility
; File C:\Anka2Project\Anka2Project\Source\Binary\source\UserInterface\PythonPlayerSettingsModule.h
; File C:\Program Files\Microsoft Visual Studio\2022\Community\VC\Tools\MSVC\14.44.35207\include\utility
; File C:\Program Files\Microsoft Visual Studio\2022\Community\VC\Tools\MSVC\14.44.35207\include\vector
; File C:\Program Files\Microsoft Visual Studio\2022\Community\VC\Tools\MSVC\14.44.35207\include\xmemory
; File C:\Program Files\Microsoft Visual Studio\2022\Community\VC\Tools\MSVC\14.44.35207\include\vector
; File C:\Program Files\Microsoft Visual Studio\2022\Community\VC\Tools\MSVC\14.44.35207\include\xmemory
; File C:\Program Files\Microsoft Visual Studio\2022\Community\VC\Tools\MSVC\14.44.35207\include\vector
; File C:\Program Files\Microsoft Visual Studio\2022\Community\VC\Tools\MSVC\14.44.35207\include\__msvc_string_view.hpp
; File C:\Program Files\Microsoft Visual Studio\2022\Community\VC\Tools\MSVC\14.44.35207\include\xstring
; File C:\Program Files\Microsoft Visual Studio\2022\Community\VC\Tools\MSVC\14.44.35207\include\__msvc_string_view.hpp
; File C:\Program Files\Microsoft Visual Studio\2022\Community\VC\Tools\MSVC\14.44.35207\include\xstring
; File C:\Program Files\Microsoft Visual Studio\2022\Community\VC\Tools\MSVC\14.44.35207\include\__msvc_string_view.hpp
; File C:\Program Files\Microsoft Visual Studio\2022\Community\VC\Tools\MSVC\14.44.35207\include\xstring
; File C:\Anka2Project\Anka2Project\Source\Binary\source\UserInterface\PythonPlayerSettingsModule.h
; File C:\Program Files\Microsoft Visual Studio\2022\Community\VC\Tools\MSVC\14.44.35207\include\initializer_list
; File C:\Anka2Project\Anka2Project\Source\Binary\source\UserInterface\PythonPlayerSettingsModule.h
; File C:\Program Files\Microsoft Visual Studio\2022\Community\VC\Tools\MSVC\14.44.35207\include\vector
; File C:\Program Files\Microsoft Visual Studio\2022\Community\VC\Tools\MSVC\14.44.35207\include\xmemory
; File C:\Program Files\Microsoft Visual Studio\2022\Community\VC\Tools\MSVC\14.44.35207\include\vector
; File C:\Program Files\Microsoft Visual Studio\2022\Community\VC\Tools\MSVC\14.44.35207\include\utility
; File C:\Anka2Project\Anka2Project\Source\Binary\source\UserInterface\PythonPlayerSettingsModule.h
; File C:\Program Files\Microsoft Visual Studio\2022\Community\VC\Tools\MSVC\14.44.35207\include\utility
; File C:\Program Files\Microsoft Visual Studio\2022\Community\VC\Tools\MSVC\14.44.35207\include\vector
; File C:\Program Files\Microsoft Visual Studio\2022\Community\VC\Tools\MSVC\14.44.35207\include\xmemory
; File C:\Program Files\Microsoft Visual Studio\2022\Community\VC\Tools\MSVC\14.44.35207\include\vector
; File C:\Program Files\Microsoft Visual Studio\2022\Community\VC\Tools\MSVC\14.44.35207\include\xmemory
; File C:\Program Files\Microsoft Visual Studio\2022\Community\VC\Tools\MSVC\14.44.35207\include\vector
; File C:\Program Files\Microsoft Visual Studio\2022\Community\VC\Tools\MSVC\14.44.35207\include\initializer_list
; File C:\Anka2Project\Anka2Project\Source\Binary\source\UserInterface\PythonPlayerSettingsModule.h
; File C:\Program Files\Microsoft Visual Studio\2022\Community\VC\Tools\MSVC\14.44.35207\include\initializer_list
; File C:\Anka2Project\Anka2Project\Source\Binary\source\UserInterface\PythonPlayerSettingsModule.h
; File C:\Program Files\Microsoft Visual Studio\2022\Community\VC\Tools\MSVC\14.44.35207\include\vector
; File C:\Program Files\Microsoft Visual Studio\2022\Community\VC\Tools\MSVC\14.44.35207\include\xmemory
; File C:\Program Files\Microsoft Visual Studio\2022\Community\VC\Tools\MSVC\14.44.35207\include\vector
; File C:\Program Files\Microsoft Visual Studio\2022\Community\VC\Tools\MSVC\14.44.35207\include\xmemory
; File C:\Program Files\Microsoft Visual Studio\2022\Community\VC\Tools\MSVC\14.44.35207\include\vector
; File C:\Program Files\Microsoft Visual Studio\2022\Community\VC\Tools\MSVC\14.44.35207\include\xstring
; File C:\Program Files\Microsoft Visual Studio\2022\Community\VC\Tools\MSVC\14.44.35207\include\xmemory
; File C:\Program Files\Microsoft Visual Studio\2022\Community\VC\Tools\MSVC\14.44.35207\include\xstring
; File C:\Program Files\Microsoft Visual Studio\2022\Community\VC\Tools\MSVC\14.44.35207\include\xmemory
; File C:\Program Files\Microsoft Visual Studio\2022\Community\VC\Tools\MSVC\14.44.35207\include\vector
; File C:\Program Files\Microsoft Visual Studio\2022\Community\VC\Tools\MSVC\14.44.35207\include\xstring
; File C:\Program Files\Microsoft Visual Studio\2022\Community\VC\Tools\MSVC\14.44.35207\include\vector
; File C:\Program Files\Microsoft Visual Studio\2022\Community\VC\Tools\MSVC\14.44.35207\include\xmemory
; File C:\Program Files\Microsoft Visual Studio\2022\Community\VC\Tools\MSVC\14.44.35207\include\vector
; File C:\Program Files\Microsoft Visual Studio\2022\Community\VC\Tools\MSVC\14.44.35207\include\xmemory
; File C:\Program Files\Microsoft Visual Studio\2022\Community\VC\Tools\MSVC\14.44.35207\include\vector
; File C:\Program Files\Microsoft Visual Studio\2022\Community\VC\Tools\MSVC\14.44.35207\include\xstring
; File C:\Program Files\Microsoft Visual Studio\2022\Community\VC\Tools\MSVC\14.44.35207\include\xmemory
; File C:\Program Files\Microsoft Visual Studio\2022\Community\VC\Tools\MSVC\14.44.35207\include\xstring
; File C:\Program Files\Microsoft Visual Studio\2022\Community\VC\Tools\MSVC\14.44.35207\include\xmemory
; File C:\Anka2Project\Anka2Project\Source\Binary\source\UserInterface\PythonPlayerSettingsModule.h
; File C:\Program Files\Microsoft Visual Studio\2022\Community\VC\Tools\MSVC\14.44.35207\include\xmemory
; File C:\Anka2Project\Anka2Project\Source\Binary\source\UserInterface\PythonPlayerSettingsModule.h
;	COMDAT ??__EguildSkills@@YAXXZ
text$di	SEGMENT
__Dest$1$ = -176					; size = 4
__Dest$1$ = -176					; size = 4
$T24 = -172						; size = 12
$T67 = -160						; size = 12
$T20 = -145						; size = 1
$T33 = -144						; size = 72
$T1 = -72						; size = 24
$T44 = -48						; size = 24
$T63 = -24						; size = 6
__$ArrayPad$ = -16					; size = 4
__$EHRec$ = -12						; size = 12
??__EguildSkills@@YAXXZ PROC				; `dynamic initializer for 'guildSkills'', COMDAT

; 647  : };

  00000	55		 push	 ebp
  00001	8b ec		 mov	 ebp, esp
  00003	6a ff		 push	 -1
  00005	68 00 00 00 00	 push	 __ehhandler$??__EguildSkills@@YAXXZ
  0000a	64 a1 00 00 00
	00		 mov	 eax, DWORD PTR fs:0
  00010	50		 push	 eax
  00011	81 ec a4 00 00
	00		 sub	 esp, 164		; 000000a4H
  00017	a1 00 00 00 00	 mov	 eax, DWORD PTR ___security_cookie
  0001c	33 c5		 xor	 eax, ebp
  0001e	89 45 f0	 mov	 DWORD PTR __$ArrayPad$[ebp], eax
  00021	56		 push	 esi
  00022	57		 push	 edi
  00023	50		 push	 eax
  00024	8d 45 f4	 lea	 eax, DWORD PTR __$EHRec$[ebp]
  00027	64 a3 00 00 00
	00		 mov	 DWORD PTR fs:0, eax
; File C:\Program Files\Microsoft Visual Studio\2022\Community\VC\Tools\MSVC\14.44.35207\include\__msvc_string_view.hpp

; 121  :         _CSTD memcpy(_First1, _First2, _Count * sizeof(_Elem));

  0002d	a1 00 00 00 00	 mov	 eax, DWORD PTR ??_C@_07NLANJMCK@PASSIVE@
  00032	0f 57 c0	 xorps	 xmm0, xmm0
; File C:\Program Files\Microsoft Visual Studio\2022\Community\VC\Tools\MSVC\14.44.35207\include\xstring

; 493  :         _CONSTEXPR20 _Bxty() noexcept : _Buf() {} // user-provided, for fancy pointers

  00035	0f 11 45 b8	 movups	 XMMWORD PTR $T1[ebp], xmm0
; File C:\Program Files\Microsoft Visual Studio\2022\Community\VC\Tools\MSVC\14.44.35207\include\__msvc_string_view.hpp

; 121  :         _CSTD memcpy(_First1, _First2, _Count * sizeof(_Elem));

  00039	89 45 b8	 mov	 DWORD PTR $T1[ebp], eax
  0003c	66 a1 04 00 00
	00		 mov	 ax, WORD PTR ??_C@_07NLANJMCK@PASSIVE@+4
  00042	66 89 45 bc	 mov	 WORD PTR $T1[ebp+4], ax
  00046	a0 06 00 00 00	 mov	 al, BYTE PTR ??_C@_07NLANJMCK@PASSIVE@+6
; File C:\Program Files\Microsoft Visual Studio\2022\Community\VC\Tools\MSVC\14.44.35207\include\xstring

; 890  :             _My_data._Mysize = _Count;

  0004b	c7 45 c8 07 00
	00 00		 mov	 DWORD PTR $T1[ebp+16], 7

; 891  :             _My_data._Myres  = _Small_string_capacity;

  00052	c7 45 cc 0f 00
	00 00		 mov	 DWORD PTR $T1[ebp+20], 15 ; 0000000fH
; File C:\Program Files\Microsoft Visual Studio\2022\Community\VC\Tools\MSVC\14.44.35207\include\__msvc_string_view.hpp

; 121  :         _CSTD memcpy(_First1, _First2, _Count * sizeof(_Elem));

  00059	88 45 be	 mov	 BYTE PTR $T1[ebp+6], al
; File C:\Program Files\Microsoft Visual Studio\2022\Community\VC\Tools\MSVC\14.44.35207\include\xstring

; 898  :                 _Traits::assign(_My_data._Bx._Buf[_Count], _Elem());

  0005c	c6 45 bf 00	 mov	 BYTE PTR $T1[ebp+7], 0
; File C:\Anka2Project\Anka2Project\Source\Binary\source\UserInterface\PythonPlayerSettingsModule.h

; 644  : {

  00060	c7 45 fc 00 00
	00 00		 mov	 DWORD PTR __$EHRec$[ebp+8], 0
; File C:\Program Files\Microsoft Visual Studio\2022\Community\VC\Tools\MSVC\14.44.35207\include\initializer_list

; 34   :         : _First(_First_arg), _Last(_Last_arg) {}

  00067	8d 85 6f ff ff
	ff		 lea	 eax, DWORD PTR $T20[ebp]
  0006d	8d bd 70 ff ff
	ff		 lea	 edi, DWORD PTR $T20[ebp+1]
; File C:\Anka2Project\Anka2Project\Source\Binary\source\UserInterface\PythonPlayerSettingsModule.h

; 644  : {

  00073	c6 85 6f ff ff
	ff 97		 mov	 BYTE PTR $T20[ebp], 151	; 00000097H
; File C:\Program Files\Microsoft Visual Studio\2022\Community\VC\Tools\MSVC\14.44.35207\include\vector

; 400  :     _CONSTEXPR20 _Vector_val() noexcept : _Myfirst(), _Mylast(), _Myend() {}

  0007a	c7 85 54 ff ff
	ff 00 00 00 00	 mov	 DWORD PTR $T24[ebp], 0
  00084	c7 85 58 ff ff
	ff 00 00 00 00	 mov	 DWORD PTR $T24[ebp+4], 0
  0008e	c7 85 5c ff ff
	ff 00 00 00 00	 mov	 DWORD PTR $T24[ebp+8], 0

; 721  :         _Construct_n(_Convert_size<size_type>(_Ilist.size()), _Ilist.begin(), _Ilist.end());

  00098	2b f8		 sub	 edi, eax

; 2111 :         if (_Count != 0) {

  0009a	74 32		 je	 SHORT $LN109@dynamic

; 2112 :             _Buy_nonzero(_Count);

  0009c	57		 push	 edi
  0009d	8d 8d 54 ff ff
	ff		 lea	 ecx, DWORD PTR $T24[ebp]
  000a3	e8 00 00 00 00	 call	 ?_Buy_nonzero@?$vector@EV?$allocator@E@std@@@std@@AAEXI@Z ; std::vector<unsigned char,std::allocator<unsigned char> >::_Buy_nonzero

; 2120 :                 _My_data._Mylast = _STD _Uninitialized_copy(_STD forward<_Valty>(_Val)..., _My_data._Myfirst, _Al);

  000a8	8b b5 54 ff ff
	ff		 mov	 esi, DWORD PTR $T24[ebp]
; File C:\Program Files\Microsoft Visual Studio\2022\Community\VC\Tools\MSVC\14.44.35207\include\xmemory

; 1889 :                 _STD _Copy_memmove(_STD _To_address(_UFirst), _STD _To_address(_ULast), _STD _Unfancy(_Dest));

  000ae	8d 85 70 ff ff
	ff		 lea	 eax, DWORD PTR $T20[ebp+1]
  000b4	56		 push	 esi
  000b5	50		 push	 eax
  000b6	8d 85 6f ff ff
	ff		 lea	 eax, DWORD PTR $T20[ebp]
  000bc	50		 push	 eax
  000bd	e8 00 00 00 00	 call	 ??$_Copy_memmove@PBEPAE@std@@YAPAEPBE0PAE@Z ; std::_Copy_memmove<unsigned char const *,unsigned char *>

; 1890 :                 _Dest += _ULast - _UFirst;

  000c2	8d 04 3e	 lea	 eax, DWORD PTR [esi+edi]
  000c5	83 c4 0c	 add	 esp, 12			; 0000000cH
; File C:\Program Files\Microsoft Visual Studio\2022\Community\VC\Tools\MSVC\14.44.35207\include\vector

; 2120 :                 _My_data._Mylast = _STD _Uninitialized_copy(_STD forward<_Valty>(_Val)..., _My_data._Myfirst, _Al);

  000c8	89 85 58 ff ff
	ff		 mov	 DWORD PTR $T24[ebp+4], eax
$LN109@dynamic:
; File C:\Program Files\Microsoft Visual Studio\2022\Community\VC\Tools\MSVC\14.44.35207\include\utility

; 263  :         : first(_Val1), second(_Val2) {}

  000ce	8d 45 b8	 lea	 eax, DWORD PTR $T1[ebp]
; File C:\Anka2Project\Anka2Project\Source\Binary\source\UserInterface\PythonPlayerSettingsModule.h

; 644  : {

  000d1	c6 45 fc 01	 mov	 BYTE PTR __$EHRec$[ebp+8], 1
; File C:\Program Files\Microsoft Visual Studio\2022\Community\VC\Tools\MSVC\14.44.35207\include\utility

; 263  :         : first(_Val1), second(_Val2) {}

  000d5	50		 push	 eax
  000d6	8d 8d 70 ff ff
	ff		 lea	 ecx, DWORD PTR $T33[ebp]
  000dc	e8 00 00 00 00	 call	 ??0?$basic_string@DU?$char_traits@D@std@@V?$allocator@D@2@@std@@QAE@ABV01@@Z ; std::basic_string<char,std::char_traits<char>,std::allocator<char> >::basic_string<char,std::char_traits<char>,std::allocator<char> >
  000e1	c6 45 fc 02	 mov	 BYTE PTR __$EHRec$[ebp+8], 2
; File C:\Program Files\Microsoft Visual Studio\2022\Community\VC\Tools\MSVC\14.44.35207\include\vector

; 748  :         const auto _Count       = static_cast<size_type>(_Right_data._Mylast - _Right_data._Myfirst);

  000e5	8b 85 58 ff ff
	ff		 mov	 eax, DWORD PTR $T24[ebp+4]

; 400  :     _CONSTEXPR20 _Vector_val() noexcept : _Myfirst(), _Mylast(), _Myend() {}

  000eb	c7 45 88 00 00
	00 00		 mov	 DWORD PTR $T33[ebp+24], 0
  000f2	c7 45 8c 00 00
	00 00		 mov	 DWORD PTR $T33[ebp+28], 0
  000f9	c7 45 90 00 00
	00 00		 mov	 DWORD PTR $T33[ebp+32], 0

; 748  :         const auto _Count       = static_cast<size_type>(_Right_data._Mylast - _Right_data._Myfirst);

  00100	2b 85 54 ff ff
	ff		 sub	 eax, DWORD PTR $T24[ebp]

; 2111 :         if (_Count != 0) {

  00106	74 36		 je	 SHORT $LN141@dynamic

; 2112 :             _Buy_nonzero(_Count);

  00108	50		 push	 eax
  00109	8d 4d 88	 lea	 ecx, DWORD PTR $T33[ebp+24]
  0010c	e8 00 00 00 00	 call	 ?_Buy_nonzero@?$vector@EV?$allocator@E@std@@@std@@AAEXI@Z ; std::vector<unsigned char,std::allocator<unsigned char> >::_Buy_nonzero

; 2120 :                 _My_data._Mylast = _STD _Uninitialized_copy(_STD forward<_Valty>(_Val)..., _My_data._Myfirst, _Al);

  00111	8b 45 88	 mov	 eax, DWORD PTR $T33[ebp+24]
; File C:\Program Files\Microsoft Visual Studio\2022\Community\VC\Tools\MSVC\14.44.35207\include\xmemory

; 1872 :     auto _ULast  = _RANGES _Unwrap_sent<_InIt>(_STD move(_Last));

  00114	8b b5 58 ff ff
	ff		 mov	 esi, DWORD PTR $T24[ebp+4]
  0011a	8b bd 54 ff ff
	ff		 mov	 edi, DWORD PTR $T24[ebp]

; 1889 :                 _STD _Copy_memmove(_STD _To_address(_UFirst), _STD _To_address(_ULast), _STD _Unfancy(_Dest));

  00120	50		 push	 eax
  00121	56		 push	 esi
  00122	57		 push	 edi
; File C:\Program Files\Microsoft Visual Studio\2022\Community\VC\Tools\MSVC\14.44.35207\include\vector

; 2120 :                 _My_data._Mylast = _STD _Uninitialized_copy(_STD forward<_Valty>(_Val)..., _My_data._Myfirst, _Al);

  00123	89 85 50 ff ff
	ff		 mov	 DWORD PTR __Dest$1$[ebp], eax
; File C:\Program Files\Microsoft Visual Studio\2022\Community\VC\Tools\MSVC\14.44.35207\include\xmemory

; 1889 :                 _STD _Copy_memmove(_STD _To_address(_UFirst), _STD _To_address(_ULast), _STD _Unfancy(_Dest));

  00129	e8 00 00 00 00	 call	 ??$_Copy_memmove@PAEPAE@std@@YAPAEPAE00@Z ; std::_Copy_memmove<unsigned char *,unsigned char *>

; 1890 :                 _Dest += _ULast - _UFirst;

  0012e	8b 85 50 ff ff
	ff		 mov	 eax, DWORD PTR __Dest$1$[ebp]
  00134	2b f7		 sub	 esi, edi
  00136	83 c4 0c	 add	 esp, 12			; 0000000cH
  00139	03 c6		 add	 eax, esi
; File C:\Program Files\Microsoft Visual Studio\2022\Community\VC\Tools\MSVC\14.44.35207\include\vector

; 2120 :                 _My_data._Mylast = _STD _Uninitialized_copy(_STD forward<_Valty>(_Val)..., _My_data._Myfirst, _Al);

  0013b	89 45 8c	 mov	 DWORD PTR $T33[ebp+28], eax
$LN141@dynamic:
; File C:\Program Files\Microsoft Visual Studio\2022\Community\VC\Tools\MSVC\14.44.35207\include\__msvc_string_view.hpp

; 121  :         _CSTD memcpy(_First1, _First2, _Count * sizeof(_Elem));

  0013e	a1 00 00 00 00	 mov	 eax, DWORD PTR ??_C@_06MHJDLBHA@ACTIVE@
  00143	0f 57 c0	 xorps	 xmm0, xmm0
; File C:\Program Files\Microsoft Visual Studio\2022\Community\VC\Tools\MSVC\14.44.35207\include\xstring

; 493  :         _CONSTEXPR20 _Bxty() noexcept : _Buf() {} // user-provided, for fancy pointers

  00146	0f 11 45 d0	 movups	 XMMWORD PTR $T44[ebp], xmm0
; File C:\Program Files\Microsoft Visual Studio\2022\Community\VC\Tools\MSVC\14.44.35207\include\__msvc_string_view.hpp

; 121  :         _CSTD memcpy(_First1, _First2, _Count * sizeof(_Elem));

  0014a	89 45 d0	 mov	 DWORD PTR $T44[ebp], eax
  0014d	66 a1 04 00 00
	00		 mov	 ax, WORD PTR ??_C@_06MHJDLBHA@ACTIVE@+4
; File C:\Program Files\Microsoft Visual Studio\2022\Community\VC\Tools\MSVC\14.44.35207\include\xstring

; 890  :             _My_data._Mysize = _Count;

  00153	c7 45 e0 06 00
	00 00		 mov	 DWORD PTR $T44[ebp+16], 6

; 891  :             _My_data._Myres  = _Small_string_capacity;

  0015a	c7 45 e4 0f 00
	00 00		 mov	 DWORD PTR $T44[ebp+20], 15 ; 0000000fH
; File C:\Program Files\Microsoft Visual Studio\2022\Community\VC\Tools\MSVC\14.44.35207\include\__msvc_string_view.hpp

; 121  :         _CSTD memcpy(_First1, _First2, _Count * sizeof(_Elem));

  00161	66 89 45 d4	 mov	 WORD PTR $T44[ebp+4], ax
; File C:\Program Files\Microsoft Visual Studio\2022\Community\VC\Tools\MSVC\14.44.35207\include\xstring

; 898  :                 _Traits::assign(_My_data._Bx._Buf[_Count], _Elem());

  00165	c6 45 d6 00	 mov	 BYTE PTR $T44[ebp+6], 0
; File C:\Anka2Project\Anka2Project\Source\Binary\source\UserInterface\PythonPlayerSettingsModule.h

; 644  : {

  00169	c6 45 fc 04	 mov	 BYTE PTR __$EHRec$[ebp+8], 4
; File C:\Program Files\Microsoft Visual Studio\2022\Community\VC\Tools\MSVC\14.44.35207\include\initializer_list

; 34   :         : _First(_First_arg), _Last(_Last_arg) {}

  0016d	8d 45 e8	 lea	 eax, DWORD PTR $T63[ebp]
  00170	8d 7d ee	 lea	 edi, DWORD PTR $T63[ebp+6]
; File C:\Anka2Project\Anka2Project\Source\Binary\source\UserInterface\PythonPlayerSettingsModule.h

; 644  : {

  00173	c7 45 e8 98 99
	9a 9b		 mov	 DWORD PTR $T63[ebp], -1684366952 ; 9b9a9998H
  0017a	66 c7 45 ec 9c
	9d		 mov	 WORD PTR $T63[ebp+4], 40348 ; 00009d9cH
; File C:\Program Files\Microsoft Visual Studio\2022\Community\VC\Tools\MSVC\14.44.35207\include\vector

; 400  :     _CONSTEXPR20 _Vector_val() noexcept : _Myfirst(), _Mylast(), _Myend() {}

  00180	c7 85 60 ff ff
	ff 00 00 00 00	 mov	 DWORD PTR $T67[ebp], 0
  0018a	c7 85 64 ff ff
	ff 00 00 00 00	 mov	 DWORD PTR $T67[ebp+4], 0
  00194	c7 85 68 ff ff
	ff 00 00 00 00	 mov	 DWORD PTR $T67[ebp+8], 0

; 721  :         _Construct_n(_Convert_size<size_type>(_Ilist.size()), _Ilist.begin(), _Ilist.end());

  0019e	2b f8		 sub	 edi, eax

; 2111 :         if (_Count != 0) {

  001a0	74 2c		 je	 SHORT $LN242@dynamic

; 2112 :             _Buy_nonzero(_Count);

  001a2	57		 push	 edi
  001a3	8d 8d 60 ff ff
	ff		 lea	 ecx, DWORD PTR $T67[ebp]
  001a9	e8 00 00 00 00	 call	 ?_Buy_nonzero@?$vector@EV?$allocator@E@std@@@std@@AAEXI@Z ; std::vector<unsigned char,std::allocator<unsigned char> >::_Buy_nonzero

; 2120 :                 _My_data._Mylast = _STD _Uninitialized_copy(_STD forward<_Valty>(_Val)..., _My_data._Myfirst, _Al);

  001ae	8b b5 60 ff ff
	ff		 mov	 esi, DWORD PTR $T67[ebp]
; File C:\Program Files\Microsoft Visual Studio\2022\Community\VC\Tools\MSVC\14.44.35207\include\xmemory

; 1889 :                 _STD _Copy_memmove(_STD _To_address(_UFirst), _STD _To_address(_ULast), _STD _Unfancy(_Dest));

  001b4	8d 45 ee	 lea	 eax, DWORD PTR $T63[ebp+6]
  001b7	56		 push	 esi
  001b8	50		 push	 eax
  001b9	8d 45 e8	 lea	 eax, DWORD PTR $T63[ebp]
  001bc	50		 push	 eax
  001bd	e8 00 00 00 00	 call	 ??$_Copy_memmove@PBEPAE@std@@YAPAEPBE0PAE@Z ; std::_Copy_memmove<unsigned char const *,unsigned char *>

; 1890 :                 _Dest += _ULast - _UFirst;

  001c2	8d 04 3e	 lea	 eax, DWORD PTR [esi+edi]
  001c5	83 c4 0c	 add	 esp, 12			; 0000000cH
; File C:\Program Files\Microsoft Visual Studio\2022\Community\VC\Tools\MSVC\14.44.35207\include\vector

; 2120 :                 _My_data._Mylast = _STD _Uninitialized_copy(_STD forward<_Valty>(_Val)..., _My_data._Myfirst, _Al);

  001c8	89 85 64 ff ff
	ff		 mov	 DWORD PTR $T67[ebp+4], eax
$LN242@dynamic:
; File C:\Program Files\Microsoft Visual Studio\2022\Community\VC\Tools\MSVC\14.44.35207\include\utility

; 263  :         : first(_Val1), second(_Val2) {}

  001ce	8d 45 d0	 lea	 eax, DWORD PTR $T44[ebp]
; File C:\Anka2Project\Anka2Project\Source\Binary\source\UserInterface\PythonPlayerSettingsModule.h

; 644  : {

  001d1	c6 45 fc 05	 mov	 BYTE PTR __$EHRec$[ebp+8], 5
; File C:\Program Files\Microsoft Visual Studio\2022\Community\VC\Tools\MSVC\14.44.35207\include\utility

; 263  :         : first(_Val1), second(_Val2) {}

  001d5	50		 push	 eax
  001d6	8d 4d 94	 lea	 ecx, DWORD PTR $T33[ebp+36]
  001d9	e8 00 00 00 00	 call	 ??0?$basic_string@DU?$char_traits@D@std@@V?$allocator@D@2@@std@@QAE@ABV01@@Z ; std::basic_string<char,std::char_traits<char>,std::allocator<char> >::basic_string<char,std::char_traits<char>,std::allocator<char> >
  001de	c6 45 fc 06	 mov	 BYTE PTR __$EHRec$[ebp+8], 6
; File C:\Program Files\Microsoft Visual Studio\2022\Community\VC\Tools\MSVC\14.44.35207\include\vector

; 748  :         const auto _Count       = static_cast<size_type>(_Right_data._Mylast - _Right_data._Myfirst);

  001e2	8b 85 64 ff ff
	ff		 mov	 eax, DWORD PTR $T67[ebp+4]

; 400  :     _CONSTEXPR20 _Vector_val() noexcept : _Myfirst(), _Mylast(), _Myend() {}

  001e8	c7 45 ac 00 00
	00 00		 mov	 DWORD PTR $T33[ebp+60], 0
  001ef	c7 45 b0 00 00
	00 00		 mov	 DWORD PTR $T33[ebp+64], 0
  001f6	c7 45 b4 00 00
	00 00		 mov	 DWORD PTR $T33[ebp+68], 0

; 748  :         const auto _Count       = static_cast<size_type>(_Right_data._Mylast - _Right_data._Myfirst);

  001fd	2b 85 60 ff ff
	ff		 sub	 eax, DWORD PTR $T67[ebp]

; 2111 :         if (_Count != 0) {

  00203	74 36		 je	 SHORT $LN274@dynamic

; 2112 :             _Buy_nonzero(_Count);

  00205	50		 push	 eax
  00206	8d 4d ac	 lea	 ecx, DWORD PTR $T33[ebp+60]
  00209	e8 00 00 00 00	 call	 ?_Buy_nonzero@?$vector@EV?$allocator@E@std@@@std@@AAEXI@Z ; std::vector<unsigned char,std::allocator<unsigned char> >::_Buy_nonzero

; 2120 :                 _My_data._Mylast = _STD _Uninitialized_copy(_STD forward<_Valty>(_Val)..., _My_data._Myfirst, _Al);

  0020e	8b 45 ac	 mov	 eax, DWORD PTR $T33[ebp+60]
; File C:\Program Files\Microsoft Visual Studio\2022\Community\VC\Tools\MSVC\14.44.35207\include\xmemory

; 1872 :     auto _ULast  = _RANGES _Unwrap_sent<_InIt>(_STD move(_Last));

  00211	8b b5 64 ff ff
	ff		 mov	 esi, DWORD PTR $T67[ebp+4]
  00217	8b bd 60 ff ff
	ff		 mov	 edi, DWORD PTR $T67[ebp]

; 1889 :                 _STD _Copy_memmove(_STD _To_address(_UFirst), _STD _To_address(_ULast), _STD _Unfancy(_Dest));

  0021d	50		 push	 eax
  0021e	56		 push	 esi
  0021f	57		 push	 edi
; File C:\Program Files\Microsoft Visual Studio\2022\Community\VC\Tools\MSVC\14.44.35207\include\vector

; 2120 :                 _My_data._Mylast = _STD _Uninitialized_copy(_STD forward<_Valty>(_Val)..., _My_data._Myfirst, _Al);

  00220	89 85 50 ff ff
	ff		 mov	 DWORD PTR __Dest$1$[ebp], eax
; File C:\Program Files\Microsoft Visual Studio\2022\Community\VC\Tools\MSVC\14.44.35207\include\xmemory

; 1889 :                 _STD _Copy_memmove(_STD _To_address(_UFirst), _STD _To_address(_ULast), _STD _Unfancy(_Dest));

  00226	e8 00 00 00 00	 call	 ??$_Copy_memmove@PAEPAE@std@@YAPAEPAE00@Z ; std::_Copy_memmove<unsigned char *,unsigned char *>

; 1890 :                 _Dest += _ULast - _UFirst;

  0022b	8b 85 50 ff ff
	ff		 mov	 eax, DWORD PTR __Dest$1$[ebp]
  00231	2b f7		 sub	 esi, edi
  00233	83 c4 0c	 add	 esp, 12			; 0000000cH
  00236	03 c6		 add	 eax, esi
; File C:\Program Files\Microsoft Visual Studio\2022\Community\VC\Tools\MSVC\14.44.35207\include\vector

; 2120 :                 _My_data._Mylast = _STD _Uninitialized_copy(_STD forward<_Valty>(_Val)..., _My_data._Myfirst, _Al);

  00238	89 45 b0	 mov	 DWORD PTR $T33[ebp+64], eax
$LN274@dynamic:
; File C:\Program Files\Microsoft Visual Studio\2022\Community\VC\Tools\MSVC\14.44.35207\include\initializer_list

; 34   :         : _First(_First_arg), _Last(_Last_arg) {}

  0023b	8d 45 b8	 lea	 eax, DWORD PTR $T33[ebp+72]
; File C:\Anka2Project\Anka2Project\Source\Binary\source\UserInterface\PythonPlayerSettingsModule.h

; 644  : {

  0023e	c6 45 fc 09	 mov	 BYTE PTR __$EHRec$[ebp+8], 9
; File C:\Program Files\Microsoft Visual Studio\2022\Community\VC\Tools\MSVC\14.44.35207\include\initializer_list

; 34   :         : _First(_First_arg), _Last(_Last_arg) {}

  00242	8d 8d 70 ff ff
	ff		 lea	 ecx, DWORD PTR $T33[ebp]
; File C:\Anka2Project\Anka2Project\Source\Binary\source\UserInterface\PythonPlayerSettingsModule.h

; 644  : {

  00248	50		 push	 eax
  00249	51		 push	 ecx
  0024a	b9 00 00 00 00	 mov	 ecx, OFFSET ?guildSkills@@3V?$map@V?$basic_string@DU?$char_traits@D@std@@V?$allocator@D@2@@std@@V?$vector@EV?$allocator@E@std@@@2@U?$less@V?$basic_string@DU?$char_traits@D@std@@V?$allocator@D@2@@std@@@2@V?$allocator@U?$pair@$$CBV?$basic_string@DU?$char_traits@D@std@@V?$allocator@D@2@@std@@V?$vector@EV?$allocator@E@std@@@2@@std@@@2@@std@@B
  0024f	e8 00 00 00 00	 call	 ??0?$map@V?$basic_string@DU?$char_traits@D@std@@V?$allocator@D@2@@std@@V?$vector@EV?$allocator@E@std@@@2@U?$less@V?$basic_string@DU?$char_traits@D@std@@V?$allocator@D@2@@std@@@2@V?$allocator@U?$pair@$$CBV?$basic_string@DU?$char_traits@D@std@@V?$allocator@D@2@@std@@V?$vector@EV?$allocator@E@std@@@2@@std@@@2@@std@@QAE@V?$initializer_list@U?$pair@$$CBV?$basic_string@DU?$char_traits@D@std@@V?$allocator@D@2@@std@@V?$vector@EV?$allocator@E@std@@@2@@std@@@1@@Z ; std::map<std::basic_string<char,std::char_traits<char>,std::allocator<char> >,std::vector<unsigned char,std::allocator<unsigned char> >,std::less<std::basic_string<char,std::char_traits<char>,std::allocator<char> > >,std::allocator<std::pair<std::basic_string<char,std::char_traits<char>,std::allocator<char> > const ,std::vector<unsigned char,std::allocator<unsigned char> > > > >::map<std::basic_string<char,std::char_traits<char>,std::allocator<char> >,std::vector<unsigned char,std::allocator<unsigned char> >,std::less<std::basic_string<char,std::char_traits<char>,std::allocator<char> > >,std::allocator<std::pair<std::basic_string<char,std::char_traits<char>,std::allocator<char> > const ,std::vector<unsigned char,std::allocator<unsigned char> > > > >
  00254	68 00 00 00 00	 push	 OFFSET ??1?$pair@$$CBV?$basic_string@DU?$char_traits@D@std@@V?$allocator@D@2@@std@@V?$vector@EV?$allocator@E@std@@@2@@std@@QAE@XZ
  00259	6a 02		 push	 2
  0025b	6a 24		 push	 36			; 00000024H
  0025d	8d 85 70 ff ff
	ff		 lea	 eax, DWORD PTR $T33[ebp]
  00263	c6 45 fc 08	 mov	 BYTE PTR __$EHRec$[ebp+8], 8
  00267	50		 push	 eax
  00268	e8 00 00 00 00	 call	 ??_M@YGXPAXIIP6EX0@Z@Z
; File C:\Program Files\Microsoft Visual Studio\2022\Community\VC\Tools\MSVC\14.44.35207\include\vector

; 2090 :         if (_Myfirst) { // destroy and deallocate old array

  0026d	8b 95 60 ff ff
	ff		 mov	 edx, DWORD PTR $T67[ebp]
  00273	85 d2		 test	 edx, edx
  00275	74 4e		 je	 SHORT $LN284@dynamic

; 2093 :             _Al.deallocate(_Myfirst, static_cast<size_type>(_Myend - _Myfirst));

  00277	8b 8d 68 ff ff
	ff		 mov	 ecx, DWORD PTR $T67[ebp+8]
; File C:\Program Files\Microsoft Visual Studio\2022\Community\VC\Tools\MSVC\14.44.35207\include\xmemory

; 985  :         _STD _Deallocate<_New_alignof<_Ty>>(_Ptr, sizeof(_Ty) * _Count);

  0027d	8b c2		 mov	 eax, edx
; File C:\Program Files\Microsoft Visual Studio\2022\Community\VC\Tools\MSVC\14.44.35207\include\vector

; 2093 :             _Al.deallocate(_Myfirst, static_cast<size_type>(_Myend - _Myfirst));

  0027f	2b ca		 sub	 ecx, edx
; File C:\Program Files\Microsoft Visual Studio\2022\Community\VC\Tools\MSVC\14.44.35207\include\xmemory

; 284  :         if (_Bytes >= _Big_allocation_threshold) {

  00281	81 f9 00 10 00
	00		 cmp	 ecx, 4096		; 00001000H
  00287	72 14		 jb	 SHORT $LN298@dynamic

; 205  :     const uintptr_t _Ptr_container   = _Ptr_user[-1];

  00289	8b 50 fc	 mov	 edx, DWORD PTR [eax-4]
  0028c	83 c1 23	 add	 ecx, 35			; 00000023H
  0028f	2b c2		 sub	 eax, edx

; 219  :     _STL_VERIFY(_Back_shift >= _Min_back_shift && _Back_shift <= _Non_user_size, "invalid argument");

  00291	83 c0 fc	 add	 eax, -4			; fffffffcH
  00294	83 f8 1f	 cmp	 eax, 31			; 0000001fH
  00297	0f 87 1e 01 00
	00		 ja	 $LN383@dynamic
$LN298@dynamic:

; 289  :         ::operator delete(_Ptr, _Bytes);

  0029d	51		 push	 ecx
  0029e	52		 push	 edx
  0029f	e8 00 00 00 00	 call	 ??3@YAXPAXI@Z		; operator delete
  002a4	83 c4 08	 add	 esp, 8
; File C:\Program Files\Microsoft Visual Studio\2022\Community\VC\Tools\MSVC\14.44.35207\include\vector

; 2095 :             _Myfirst = nullptr;

  002a7	c7 85 60 ff ff
	ff 00 00 00 00	 mov	 DWORD PTR $T67[ebp], 0

; 2096 :             _Mylast  = nullptr;

  002b1	c7 85 64 ff ff
	ff 00 00 00 00	 mov	 DWORD PTR $T67[ebp+4], 0

; 2097 :             _Myend   = nullptr;

  002bb	c7 85 68 ff ff
	ff 00 00 00 00	 mov	 DWORD PTR $T67[ebp+8], 0
$LN284@dynamic:
; File C:\Program Files\Microsoft Visual Studio\2022\Community\VC\Tools\MSVC\14.44.35207\include\xstring

; 453  :         return _Myres > _Small_string_capacity;

  002c5	8b 4d e4	 mov	 ecx, DWORD PTR $T44[ebp+20]
  002c8	83 f9 0f	 cmp	 ecx, 15			; 0000000fH

; 3083 :         if (_My_data._Large_mode_engaged()) {

  002cb	76 2c		 jbe	 SHORT $LN321@dynamic
; File C:\Program Files\Microsoft Visual Studio\2022\Community\VC\Tools\MSVC\14.44.35207\include\xmemory

; 985  :         _STD _Deallocate<_New_alignof<_Ty>>(_Ptr, sizeof(_Ty) * _Count);

  002cd	8b 55 d0	 mov	 edx, DWORD PTR $T44[ebp]
; File C:\Program Files\Microsoft Visual Studio\2022\Community\VC\Tools\MSVC\14.44.35207\include\xstring

; 852  :         _Al.deallocate(_Old_ptr, _Capacity + 1); // +1 for null terminator

  002d0	41		 inc	 ecx
; File C:\Program Files\Microsoft Visual Studio\2022\Community\VC\Tools\MSVC\14.44.35207\include\xmemory

; 985  :         _STD _Deallocate<_New_alignof<_Ty>>(_Ptr, sizeof(_Ty) * _Count);

  002d1	8b c2		 mov	 eax, edx

; 284  :         if (_Bytes >= _Big_allocation_threshold) {

  002d3	81 f9 00 10 00
	00		 cmp	 ecx, 4096		; 00001000H
  002d9	72 14		 jb	 SHORT $LN329@dynamic

; 205  :     const uintptr_t _Ptr_container   = _Ptr_user[-1];

  002db	8b 50 fc	 mov	 edx, DWORD PTR [eax-4]
  002de	83 c1 23	 add	 ecx, 35			; 00000023H
  002e1	2b c2		 sub	 eax, edx

; 219  :     _STL_VERIFY(_Back_shift >= _Min_back_shift && _Back_shift <= _Non_user_size, "invalid argument");

  002e3	83 c0 fc	 add	 eax, -4			; fffffffcH
  002e6	83 f8 1f	 cmp	 eax, 31			; 0000001fH
  002e9	0f 87 cc 00 00
	00		 ja	 $LN383@dynamic
$LN329@dynamic:

; 289  :         ::operator delete(_Ptr, _Bytes);

  002ef	51		 push	 ecx
  002f0	52		 push	 edx
  002f1	e8 00 00 00 00	 call	 ??3@YAXPAXI@Z		; operator delete
  002f6	83 c4 08	 add	 esp, 8
$LN321@dynamic:
; File C:\Program Files\Microsoft Visual Studio\2022\Community\VC\Tools\MSVC\14.44.35207\include\vector

; 2090 :         if (_Myfirst) { // destroy and deallocate old array

  002f9	8b 8d 54 ff ff
	ff		 mov	 ecx, DWORD PTR $T24[ebp]
; File C:\Program Files\Microsoft Visual Studio\2022\Community\VC\Tools\MSVC\14.44.35207\include\xstring

; 3090 :         _My_data._Mysize = 0;

  002ff	c7 45 e0 00 00
	00 00		 mov	 DWORD PTR $T44[ebp+16], 0

; 3091 :         _My_data._Myres  = _Small_string_capacity;

  00306	c7 45 e4 0f 00
	00 00		 mov	 DWORD PTR $T44[ebp+20], 15 ; 0000000fH

; 3092 :         // the _Traits::assign is last so the codegen doesn't think the char write can alias this
; 3093 :         _Traits::assign(_My_data._Bx._Buf[0], _Elem());

  0030d	c6 45 d0 00	 mov	 BYTE PTR $T44[ebp], 0
; File C:\Program Files\Microsoft Visual Studio\2022\Community\VC\Tools\MSVC\14.44.35207\include\vector

; 2090 :         if (_Myfirst) { // destroy and deallocate old array

  00311	85 c9		 test	 ecx, ecx
  00313	74 4e		 je	 SHORT $LN339@dynamic

; 2093 :             _Al.deallocate(_Myfirst, static_cast<size_type>(_Myend - _Myfirst));

  00315	8b 95 5c ff ff
	ff		 mov	 edx, DWORD PTR $T24[ebp+8]
; File C:\Program Files\Microsoft Visual Studio\2022\Community\VC\Tools\MSVC\14.44.35207\include\xmemory

; 985  :         _STD _Deallocate<_New_alignof<_Ty>>(_Ptr, sizeof(_Ty) * _Count);

  0031b	8b c1		 mov	 eax, ecx
; File C:\Program Files\Microsoft Visual Studio\2022\Community\VC\Tools\MSVC\14.44.35207\include\vector

; 2093 :             _Al.deallocate(_Myfirst, static_cast<size_type>(_Myend - _Myfirst));

  0031d	2b d1		 sub	 edx, ecx
; File C:\Program Files\Microsoft Visual Studio\2022\Community\VC\Tools\MSVC\14.44.35207\include\xmemory

; 284  :         if (_Bytes >= _Big_allocation_threshold) {

  0031f	81 fa 00 10 00
	00		 cmp	 edx, 4096		; 00001000H
  00325	72 14		 jb	 SHORT $LN353@dynamic

; 205  :     const uintptr_t _Ptr_container   = _Ptr_user[-1];

  00327	8b 48 fc	 mov	 ecx, DWORD PTR [eax-4]
  0032a	83 c2 23	 add	 edx, 35			; 00000023H
  0032d	2b c1		 sub	 eax, ecx

; 219  :     _STL_VERIFY(_Back_shift >= _Min_back_shift && _Back_shift <= _Non_user_size, "invalid argument");

  0032f	83 c0 fc	 add	 eax, -4			; fffffffcH
  00332	83 f8 1f	 cmp	 eax, 31			; 0000001fH
  00335	0f 87 80 00 00
	00		 ja	 $LN383@dynamic
$LN353@dynamic:

; 289  :         ::operator delete(_Ptr, _Bytes);

  0033b	52		 push	 edx
  0033c	51		 push	 ecx
  0033d	e8 00 00 00 00	 call	 ??3@YAXPAXI@Z		; operator delete
  00342	83 c4 08	 add	 esp, 8
; File C:\Program Files\Microsoft Visual Studio\2022\Community\VC\Tools\MSVC\14.44.35207\include\vector

; 2095 :             _Myfirst = nullptr;

  00345	c7 85 54 ff ff
	ff 00 00 00 00	 mov	 DWORD PTR $T24[ebp], 0

; 2096 :             _Mylast  = nullptr;

  0034f	c7 85 58 ff ff
	ff 00 00 00 00	 mov	 DWORD PTR $T24[ebp+4], 0

; 2097 :             _Myend   = nullptr;

  00359	c7 85 5c ff ff
	ff 00 00 00 00	 mov	 DWORD PTR $T24[ebp+8], 0
$LN339@dynamic:
; File C:\Program Files\Microsoft Visual Studio\2022\Community\VC\Tools\MSVC\14.44.35207\include\xstring

; 453  :         return _Myres > _Small_string_capacity;

  00363	8b 4d cc	 mov	 ecx, DWORD PTR $T1[ebp+20]
  00366	83 f9 0f	 cmp	 ecx, 15			; 0000000fH

; 3083 :         if (_My_data._Large_mode_engaged()) {

  00369	76 28		 jbe	 SHORT $LN376@dynamic
; File C:\Program Files\Microsoft Visual Studio\2022\Community\VC\Tools\MSVC\14.44.35207\include\xmemory

; 985  :         _STD _Deallocate<_New_alignof<_Ty>>(_Ptr, sizeof(_Ty) * _Count);

  0036b	8b 55 b8	 mov	 edx, DWORD PTR $T1[ebp]
; File C:\Program Files\Microsoft Visual Studio\2022\Community\VC\Tools\MSVC\14.44.35207\include\xstring

; 852  :         _Al.deallocate(_Old_ptr, _Capacity + 1); // +1 for null terminator

  0036e	41		 inc	 ecx
; File C:\Program Files\Microsoft Visual Studio\2022\Community\VC\Tools\MSVC\14.44.35207\include\xmemory

; 985  :         _STD _Deallocate<_New_alignof<_Ty>>(_Ptr, sizeof(_Ty) * _Count);

  0036f	8b c2		 mov	 eax, edx

; 284  :         if (_Bytes >= _Big_allocation_threshold) {

  00371	81 f9 00 10 00
	00		 cmp	 ecx, 4096		; 00001000H
  00377	72 10		 jb	 SHORT $LN384@dynamic

; 205  :     const uintptr_t _Ptr_container   = _Ptr_user[-1];

  00379	8b 50 fc	 mov	 edx, DWORD PTR [eax-4]
  0037c	83 c1 23	 add	 ecx, 35			; 00000023H
  0037f	2b c2		 sub	 eax, edx

; 219  :     _STL_VERIFY(_Back_shift >= _Min_back_shift && _Back_shift <= _Non_user_size, "invalid argument");

  00381	83 c0 fc	 add	 eax, -4			; fffffffcH
  00384	83 f8 1f	 cmp	 eax, 31			; 0000001fH
  00387	77 32		 ja	 SHORT $LN383@dynamic
$LN384@dynamic:

; 289  :         ::operator delete(_Ptr, _Bytes);

  00389	51		 push	 ecx
  0038a	52		 push	 edx
  0038b	e8 00 00 00 00	 call	 ??3@YAXPAXI@Z		; operator delete
  00390	83 c4 08	 add	 esp, 8
$LN376@dynamic:
; File C:\Anka2Project\Anka2Project\Source\Binary\source\UserInterface\PythonPlayerSettingsModule.h

; 643  : static const std::map < std::string, std::vector<uint8_t>> guildSkills

  00393	68 00 00 00 00	 push	 OFFSET ??__FguildSkills@@YAXXZ ; `dynamic atexit destructor for 'guildSkills''
  00398	e8 00 00 00 00	 call	 _atexit
  0039d	83 c4 04	 add	 esp, 4
  003a0	8b 4d f4	 mov	 ecx, DWORD PTR __$EHRec$[ebp]
  003a3	64 89 0d 00 00
	00 00		 mov	 DWORD PTR fs:0, ecx
  003aa	59		 pop	 ecx
  003ab	5f		 pop	 edi
  003ac	5e		 pop	 esi
  003ad	8b 4d f0	 mov	 ecx, DWORD PTR __$ArrayPad$[ebp]
  003b0	33 cd		 xor	 ecx, ebp
  003b2	e8 00 00 00 00	 call	 @__security_check_cookie@4
  003b7	8b e5		 mov	 esp, ebp
  003b9	5d		 pop	 ebp
  003ba	c3		 ret	 0
$LN383@dynamic:
; File C:\Program Files\Microsoft Visual Studio\2022\Community\VC\Tools\MSVC\14.44.35207\include\xmemory

; 219  :     _STL_VERIFY(_Back_shift >= _Min_back_shift && _Back_shift <= _Non_user_size, "invalid argument");

  003bb	6a 00		 push	 0
  003bd	6a 00		 push	 0
  003bf	6a 00		 push	 0
  003c1	6a 00		 push	 0
  003c3	6a 00		 push	 0
  003c5	e8 00 00 00 00	 call	 __invoke_watson
$LN433@dynamic:
  003ca	cc		 int	 3
text$di	ENDS
;	COMDAT text$x
text$x	SEGMENT
__unwindfunclet$??__EguildSkills@@YAXXZ$0:
  00000	8d 4d b8	 lea	 ecx, DWORD PTR $T1[ebp]
  00003	e9 00 00 00 00	 jmp	 ??1?$basic_string@DU?$char_traits@D@std@@V?$allocator@D@2@@std@@QAE@XZ ; std::basic_string<char,std::char_traits<char>,std::allocator<char> >::~basic_string<char,std::char_traits<char>,std::allocator<char> >
__unwindfunclet$??__EguildSkills@@YAXXZ$1:
  00008	8d 8d 54 ff ff
	ff		 lea	 ecx, DWORD PTR $T24[ebp]
  0000e	e9 00 00 00 00	 jmp	 ??1?$vector@EV?$allocator@E@std@@@std@@QAE@XZ ; std::vector<unsigned char,std::allocator<unsigned char> >::~vector<unsigned char,std::allocator<unsigned char> >
__unwindfunclet$??__EguildSkills@@YAXXZ$10:
  00013	8d 8d 70 ff ff
	ff		 lea	 ecx, DWORD PTR $T33[ebp]
  00019	e9 00 00 00 00	 jmp	 ??1?$basic_string@DU?$char_traits@D@std@@V?$allocator@D@2@@std@@QAE@XZ ; std::basic_string<char,std::char_traits<char>,std::allocator<char> >::~basic_string<char,std::char_traits<char>,std::allocator<char> >
__unwindfunclet$??__EguildSkills@@YAXXZ$2:
  0001e	8d 8d 70 ff ff
	ff		 lea	 ecx, DWORD PTR $T33[ebp]
  00024	e9 00 00 00 00	 jmp	 ??1?$pair@$$CBV?$basic_string@DU?$char_traits@D@std@@V?$allocator@D@2@@std@@V?$vector@EV?$allocator@E@std@@@2@@std@@QAE@XZ
__unwindfunclet$??__EguildSkills@@YAXXZ$3:
  00029	8d 4d d0	 lea	 ecx, DWORD PTR $T44[ebp]
  0002c	e9 00 00 00 00	 jmp	 ??1?$basic_string@DU?$char_traits@D@std@@V?$allocator@D@2@@std@@QAE@XZ ; std::basic_string<char,std::char_traits<char>,std::allocator<char> >::~basic_string<char,std::char_traits<char>,std::allocator<char> >
__unwindfunclet$??__EguildSkills@@YAXXZ$4:
  00031	8d 8d 60 ff ff
	ff		 lea	 ecx, DWORD PTR $T67[ebp]
  00037	e9 00 00 00 00	 jmp	 ??1?$vector@EV?$allocator@E@std@@@std@@QAE@XZ ; std::vector<unsigned char,std::allocator<unsigned char> >::~vector<unsigned char,std::allocator<unsigned char> >
__unwindfunclet$??__EguildSkills@@YAXXZ$16:
  0003c	8d 4d 94	 lea	 ecx, DWORD PTR $T33[ebp+36]
  0003f	e9 00 00 00 00	 jmp	 ??1?$basic_string@DU?$char_traits@D@std@@V?$allocator@D@2@@std@@QAE@XZ ; std::basic_string<char,std::char_traits<char>,std::allocator<char> >::~basic_string<char,std::char_traits<char>,std::allocator<char> >
__unwindfunclet$??__EguildSkills@@YAXXZ$6:
  00044	68 00 00 00 00	 push	 OFFSET ??1?$pair@$$CBV?$basic_string@DU?$char_traits@D@std@@V?$allocator@D@2@@std@@V?$vector@EV?$allocator@E@std@@@2@@std@@QAE@XZ
  00049	6a 02		 push	 2
  0004b	6a 24		 push	 36			; 00000024H
  0004d	8d 85 70 ff ff
	ff		 lea	 eax, DWORD PTR $T33[ebp]
  00053	50		 push	 eax
  00054	e8 00 00 00 00	 call	 ??_M@YGXPAXIIP6EX0@Z@Z
  00059	c3		 ret	 0
  0005a	cc		 int	 3
  0005b	cc		 int	 3
  0005c	cc		 int	 3
  0005d	cc		 int	 3
  0005e	cc		 int	 3
__ehhandler$??__EguildSkills@@YAXXZ:
  0005f	90		 npad	 1
  00060	90		 npad	 1
  00061	8b 54 24 08	 mov	 edx, DWORD PTR [esp+8]
  00065	8d 42 0c	 lea	 eax, DWORD PTR [edx+12]
  00068	8b 8a 50 ff ff
	ff		 mov	 ecx, DWORD PTR [edx-176]
  0006e	33 c8		 xor	 ecx, eax
  00070	e8 00 00 00 00	 call	 @__security_check_cookie@4
  00075	8b 4a fc	 mov	 ecx, DWORD PTR [edx-4]
  00078	33 c8		 xor	 ecx, eax
  0007a	e8 00 00 00 00	 call	 @__security_check_cookie@4
  0007f	b8 00 00 00 00	 mov	 eax, OFFSET __ehfuncinfo$??__EguildSkills@@YAXXZ
  00084	e9 00 00 00 00	 jmp	 ___CxxFrameHandler3
text$x	ENDS
??__EguildSkills@@YAXXZ ENDP				; `dynamic initializer for 'guildSkills''
; Function compile flags: /Ogtp
; File C:\Program Files\Microsoft Visual Studio\2022\Community\VC\Tools\MSVC\14.44.35207\include\xtree
; File C:\Program Files\Microsoft Visual Studio\2022\Community\VC\Tools\MSVC\14.44.35207\include\xmemory
;	COMDAT ??__FguildSkills@@YAXXZ
text$yd	SEGMENT
??__FguildSkills@@YAXXZ PROC				; `dynamic atexit destructor for 'guildSkills'', COMDAT
; File C:\Program Files\Microsoft Visual Studio\2022\Community\VC\Tools\MSVC\14.44.35207\include\xtree

; 777  :         _Erase_tree(_Al, _Myhead->_Parent);

  00000	a1 00 00 00 00	 mov	 eax, DWORD PTR ?guildSkills@@3V?$map@V?$basic_string@DU?$char_traits@D@std@@V?$allocator@D@2@@std@@V?$vector@EV?$allocator@E@std@@@2@U?$less@V?$basic_string@DU?$char_traits@D@std@@V?$allocator@D@2@@std@@@2@V?$allocator@U?$pair@$$CBV?$basic_string@DU?$char_traits@D@std@@V?$allocator@D@2@@std@@V?$vector@EV?$allocator@E@std@@@2@@std@@@2@@std@@B
  00005	b9 00 00 00 00	 mov	 ecx, OFFSET ?guildSkills@@3V?$map@V?$basic_string@DU?$char_traits@D@std@@V?$allocator@D@2@@std@@V?$vector@EV?$allocator@E@std@@@2@U?$less@V?$basic_string@DU?$char_traits@D@std@@V?$allocator@D@2@@std@@@2@V?$allocator@U?$pair@$$CBV?$basic_string@DU?$char_traits@D@std@@V?$allocator@D@2@@std@@V?$vector@EV?$allocator@E@std@@@2@@std@@@2@@std@@B
  0000a	ff 70 04	 push	 DWORD PTR [eax+4]
  0000d	68 00 00 00 00	 push	 OFFSET ?guildSkills@@3V?$map@V?$basic_string@DU?$char_traits@D@std@@V?$allocator@D@2@@std@@V?$vector@EV?$allocator@E@std@@@2@U?$less@V?$basic_string@DU?$char_traits@D@std@@V?$allocator@D@2@@std@@@2@V?$allocator@U?$pair@$$CBV?$basic_string@DU?$char_traits@D@std@@V?$allocator@D@2@@std@@V?$vector@EV?$allocator@E@std@@@2@@std@@@2@@std@@B
  00012	e8 00 00 00 00	 call	 ??$_Erase_tree@V?$allocator@U?$_Tree_node@U?$pair@$$CBV?$basic_string@DU?$char_traits@D@std@@V?$allocator@D@2@@std@@V?$vector@EV?$allocator@E@std@@@2@@std@@PAX@std@@@std@@@?$_Tree_val@U?$_Tree_simple_types@U?$pair@$$CBV?$basic_string@DU?$char_traits@D@std@@V?$allocator@D@2@@std@@V?$vector@EV?$allocator@E@std@@@2@@std@@@std@@@std@@QAEXAAV?$allocator@U?$_Tree_node@U?$pair@$$CBV?$basic_string@DU?$char_traits@D@std@@V?$allocator@D@2@@std@@V?$vector@EV?$allocator@E@std@@@2@@std@@PAX@std@@@1@PAU?$_Tree_node@U?$pair@$$CBV?$basic_string@DU?$char_traits@D@std@@V?$allocator@D@2@@std@@V?$vector@EV?$allocator@E@std@@@2@@std@@PAX@1@@Z ; std::_Tree_val<std::_Tree_simple_types<std::pair<std::basic_string<char,std::char_traits<char>,std::allocator<char> > const ,std::vector<unsigned char,std::allocator<unsigned char> > > > >::_Erase_tree<std::allocator<std::_Tree_node<std::pair<std::basic_string<char,std::char_traits<char>,std::allocator<char> > const ,std::vector<unsigned char,std::allocator<unsigned char> > >,void *> > >
; File C:\Program Files\Microsoft Visual Studio\2022\Community\VC\Tools\MSVC\14.44.35207\include\xmemory

; 289  :         ::operator delete(_Ptr, _Bytes);

  00017	6a 34		 push	 52			; 00000034H
  00019	ff 35 00 00 00
	00		 push	 DWORD PTR ?guildSkills@@3V?$map@V?$basic_string@DU?$char_traits@D@std@@V?$allocator@D@2@@std@@V?$vector@EV?$allocator@E@std@@@2@U?$less@V?$basic_string@DU?$char_traits@D@std@@V?$allocator@D@2@@std@@@2@V?$allocator@U?$pair@$$CBV?$basic_string@DU?$char_traits@D@std@@V?$allocator@D@2@@std@@V?$vector@EV?$allocator@E@std@@@2@@std@@@2@@std@@B
  0001f	e8 00 00 00 00	 call	 ??3@YAXPAXI@Z		; operator delete
  00024	83 c4 08	 add	 esp, 8
  00027	c3		 ret	 0
??__FguildSkills@@YAXXZ ENDP				; `dynamic atexit destructor for 'guildSkills''
text$yd	ENDS
; Function compile flags: /Ogtp
; File C:\Anka2Project\Anka2Project\Source\Binary\source\UserInterface\PythonApplication.cpp
;	COMDAT ?Abort@CPythonApplication@@QAEXXZ
_TEXT	SEGMENT
?Abort@CPythonApplication@@QAEXXZ PROC			; CPythonApplication::Abort, COMDAT
; _this$dead$ = ecx

; 159  : 	TraceError("============================================================================================================");

  00000	68 00 00 00 00	 push	 OFFSET ??_C@_0GN@LLBDNFAM@?$DN?$DN?$DN?$DN?$DN?$DN?$DN?$DN?$DN?$DN?$DN?$DN?$DN?$DN?$DN?$DN?$DN?$DN?$DN?$DN?$DN?$DN?$DN?$DN?$DN?$DN?$DN?$DN?$DN?$DN?$DN@
  00005	e8 00 00 00 00	 call	 ?TraceError@@YAXPBDZZ	; TraceError

; 160  : 	TraceError("Abort!!!!\n\n");

  0000a	68 00 00 00 00	 push	 OFFSET ??_C@_0M@EHJKIBDK@Abort?$CB?$CB?$CB?$CB?6?6@
  0000f	e8 00 00 00 00	 call	 ?TraceError@@YAXPBDZZ	; TraceError
  00014	83 c4 08	 add	 esp, 8

; 161  : 
; 162  : 	PostQuitMessage(0);

  00017	6a 00		 push	 0
  00019	ff 15 00 00 00
	00		 call	 DWORD PTR __imp__PostQuitMessage@4

; 163  : }

  0001f	c3		 ret	 0
?Abort@CPythonApplication@@QAEXXZ ENDP			; CPythonApplication::Abort
_TEXT	ENDS
; Function compile flags: /Ogtp
; File C:\Anka2Project\Anka2Project\Source\Binary\source\UserInterface\PythonApplication.cpp
;	COMDAT ?Exit@CPythonApplication@@QAEXXZ
_TEXT	SEGMENT
?Exit@CPythonApplication@@QAEXXZ PROC			; CPythonApplication::Exit, COMDAT
; _this$dead$ = ecx

; 167  : 	PostQuitMessage(0);

  00000	6a 00		 push	 0
  00002	ff 15 00 00 00
	00		 call	 DWORD PTR __imp__PostQuitMessage@4

; 168  : }

  00008	c3		 ret	 0
?Exit@CPythonApplication@@QAEXXZ ENDP			; CPythonApplication::Exit
_TEXT	ENDS
; Function compile flags: /Ogtp
; File C:\Anka2Project\Anka2Project\Source\Binary\source\UserInterface\PythonApplication.cpp
; File C:\Anka2Project\Anka2Project\Source\Binary\source\eterBase\Singleton.h
; File C:\Anka2Project\Anka2Project\Source\Binary\source\UserInterface\PythonApplication.cpp
; File C:\Anka2Project\Anka2Project\Source\Binary\source\eterBase\Singleton.h
; File C:\Anka2Project\Anka2Project\Source\Binary\source\UserInterface\PythonApplication.cpp
; File C:\Anka2Project\Anka2Project\Source\Binary\source\eterBase\Singleton.h
; File C:\Anka2Project\Anka2Project\Source\Binary\source\UserInterface\PythonApplication.cpp
; File C:\Anka2Project\Anka2Project\Source\Binary\source\eterBase\Singleton.h
; File C:\Anka2Project\Anka2Project\Source\Binary\source\UserInterface\PythonApplication.cpp
; File C:\Anka2Project\Anka2Project\Source\Binary\source\eterBase\Singleton.h
; File C:\Anka2Project\Anka2Project\Source\Binary\source\UserInterface\PythonApplication.cpp
;	COMDAT ?UpdateGame@CPythonApplication@@QAEXXZ
_TEXT	SEGMENT
_kPPosMainActor$ = -44					; size = 12
_ptMouse$ = -32						; size = 8
_fAspect$5 = -24					; size = 4
_fFarClip$1$ = -20					; size = 4
_s$6 = -16						; size = 4
__$EHRec$ = -12						; size = 12
?UpdateGame@CPythonApplication@@QAEXXZ PROC		; CPythonApplication::UpdateGame, COMDAT
; _this$ = ecx

; 233  : {

  00000	55		 push	 ebp
  00001	8b ec		 mov	 ebp, esp
  00003	6a ff		 push	 -1
  00005	68 00 00 00 00	 push	 __ehhandler$?UpdateGame@CPythonApplication@@QAEXXZ
  0000a	64 a1 00 00 00
	00		 mov	 eax, DWORD PTR fs:0
  00010	50		 push	 eax
  00011	83 ec 24	 sub	 esp, 36			; 00000024H
  00014	53		 push	 ebx
  00015	56		 push	 esi
  00016	57		 push	 edi
  00017	a1 00 00 00 00	 mov	 eax, DWORD PTR ___security_cookie
  0001c	33 c5		 xor	 eax, ebp
  0001e	50		 push	 eax
  0001f	8d 45 f4	 lea	 eax, DWORD PTR __$EHRec$[ebp]
  00022	64 a3 00 00 00
	00		 mov	 DWORD PTR fs:0, eax
  00028	8b d9		 mov	 ebx, ecx

; 234  : 	POINT ptMouse;
; 235  : 	GetMousePosition(&ptMouse);

  0002a	8b 43 20	 mov	 eax, DWORD PTR [ebx+32]
  0002d	8d 4d e0	 lea	 ecx, DWORD PTR _ptMouse$[ebp]
  00030	51		 push	 ecx
  00031	8d 4b 20	 lea	 ecx, DWORD PTR [ebx+32]
  00034	ff 50 04	 call	 DWORD PTR [eax+4]

; 236  : 
; 237  : 	CGraphicTextInstance::Hyperlink_UpdateMousePos(ptMouse.x, ptMouse.y);

  00037	ff 75 e4	 push	 DWORD PTR _ptMouse$[ebp+4]
  0003a	ff 75 e0	 push	 DWORD PTR _ptMouse$[ebp]
  0003d	e8 00 00 00 00	 call	 ?Hyperlink_UpdateMousePos@CGraphicTextInstance@@SAXHH@Z ; CGraphicTextInstance::Hyperlink_UpdateMousePos
  00042	83 c4 08	 add	 esp, 8

; 238  : 
; 239  : 	{
; 240  : 		CScreen s;

  00045	8d 4d f0	 lea	 ecx, DWORD PTR _s$6[ebp]
  00048	e8 00 00 00 00	 call	 ??0CScreen@@QAE@XZ	; CScreen::CScreen
  0004d	c7 45 fc 00 00
	00 00		 mov	 DWORD PTR __$EHRec$[ebp+8], 0
; File C:\Anka2Project\Anka2Project\Source\Binary\source\eterBase\Singleton.h

; 26   : 		assert(ms_singleton);

  00054	8b 0d 00 00 00
	00		 mov	 ecx, DWORD PTR ?ms_singleton@?$CSingleton@VCWindowManager@UI@@@@0PAVCWindowManager@UI@@A ; CSingleton<UI::CWindowManager>::ms_singleton
  0005a	85 c9		 test	 ecx, ecx
  0005c	75 1a		 jne	 SHORT $LN6@UpdateGame
  0005e	6a 1a		 push	 26			; 0000001aH
  00060	68 00 00 00 00	 push	 OFFSET ??_C@_1IO@CAJLEEOI@?$AAC?$AA?3?$AA?2?$AAA?$AAn?$AAk?$AAa?$AA2?$AAP?$AAr?$AAo?$AAj?$AAe?$AAc?$AAt@
  00065	68 00 00 00 00	 push	 OFFSET ??_C@_1BK@FMEHPMFE@?$AAm?$AAs?$AA_?$AAs?$AAi?$AAn?$AAg?$AAl?$AAe?$AAt?$AAo?$AAn@
  0006a	e8 00 00 00 00	 call	 __wassert
  0006f	8b 0d 00 00 00
	00		 mov	 ecx, DWORD PTR ?ms_singleton@?$CSingleton@VCWindowManager@UI@@@@0PAVCWindowManager@UI@@A ; CSingleton<UI::CWindowManager>::ms_singleton
  00075	83 c4 0c	 add	 esp, 12			; 0000000cH
$LN6@UpdateGame:
; File C:\Anka2Project\Anka2Project\Source\Binary\source\UserInterface\PythonApplication.cpp

; 241  : 		float fAspect = UI::CWindowManager::Instance().GetAspect();

  00078	e8 00 00 00 00	 call	 ?GetAspect@CWindowManager@UI@@QAEMXZ ; UI::CWindowManager::GetAspect
; File C:\Anka2Project\Anka2Project\Source\Binary\source\eterBase\Singleton.h

; 26   : 		assert(ms_singleton);

  0007d	8b 0d 00 00 00
	00		 mov	 ecx, DWORD PTR ?ms_singleton@?$CSingleton@VCPythonBackground@@@@0PAVCPythonBackground@@A ; CSingleton<CPythonBackground>::ms_singleton
; File C:\Anka2Project\Anka2Project\Source\Binary\source\UserInterface\PythonApplication.cpp

; 241  : 		float fAspect = UI::CWindowManager::Instance().GetAspect();

  00083	d9 5d e8	 fstp	 DWORD PTR _fAspect$5[ebp]
; File C:\Anka2Project\Anka2Project\Source\Binary\source\eterBase\Singleton.h

; 26   : 		assert(ms_singleton);

  00086	85 c9		 test	 ecx, ecx
  00088	75 1a		 jne	 SHORT $LN9@UpdateGame
  0008a	6a 1a		 push	 26			; 0000001aH
  0008c	68 00 00 00 00	 push	 OFFSET ??_C@_1IO@CAJLEEOI@?$AAC?$AA?3?$AA?2?$AAA?$AAn?$AAk?$AAa?$AA2?$AAP?$AAr?$AAo?$AAj?$AAe?$AAc?$AAt@
  00091	68 00 00 00 00	 push	 OFFSET ??_C@_1BK@FMEHPMFE@?$AAm?$AAs?$AA_?$AAs?$AAi?$AAn?$AAg?$AAl?$AAe?$AAt?$AAo?$AAn@
  00096	e8 00 00 00 00	 call	 __wassert
  0009b	8b 0d 00 00 00
	00		 mov	 ecx, DWORD PTR ?ms_singleton@?$CSingleton@VCPythonBackground@@@@0PAVCPythonBackground@@A ; CSingleton<CPythonBackground>::ms_singleton
  000a1	83 c4 0c	 add	 esp, 12			; 0000000cH
$LN9@UpdateGame:
; File C:\Anka2Project\Anka2Project\Source\Binary\source\UserInterface\PythonApplication.cpp

; 242  : 		float fFarClip = CPythonBackground::Instance().GetFarClip();

  000a4	e8 00 00 00 00	 call	 ?GetFarClip@CPythonBackground@@QAEMXZ ; CPythonBackground::GetFarClip
; File C:\Anka2Project\Anka2Project\Source\Binary\source\eterBase\Singleton.h

; 26   : 		assert(ms_singleton);

  000a9	8b 0d 00 00 00
	00		 mov	 ecx, DWORD PTR ?ms_singleton@?$CSingleton@VCPythonSystem@@@@0PAVCPythonSystem@@A ; CSingleton<CPythonSystem>::ms_singleton
; File C:\Anka2Project\Anka2Project\Source\Binary\source\UserInterface\PythonApplication.cpp

; 242  : 		float fFarClip = CPythonBackground::Instance().GetFarClip();

  000af	f3 0f 11 45 ec	 movss	 DWORD PTR _fFarClip$1$[ebp], xmm0
; File C:\Anka2Project\Anka2Project\Source\Binary\source\eterBase\Singleton.h

; 26   : 		assert(ms_singleton);

  000b4	85 c9		 test	 ecx, ecx
  000b6	75 1f		 jne	 SHORT $LN12@UpdateGame
  000b8	6a 1a		 push	 26			; 0000001aH
  000ba	68 00 00 00 00	 push	 OFFSET ??_C@_1IO@CAJLEEOI@?$AAC?$AA?3?$AA?2?$AAA?$AAn?$AAk?$AAa?$AA2?$AAP?$AAr?$AAo?$AAj?$AAe?$AAc?$AAt@
  000bf	68 00 00 00 00	 push	 OFFSET ??_C@_1BK@FMEHPMFE@?$AAm?$AAs?$AA_?$AAs?$AAi?$AAn?$AAg?$AAl?$AAe?$AAt?$AAo?$AAn@
  000c4	e8 00 00 00 00	 call	 __wassert
  000c9	8b 0d 00 00 00
	00		 mov	 ecx, DWORD PTR ?ms_singleton@?$CSingleton@VCPythonSystem@@@@0PAVCPythonSystem@@A ; CSingleton<CPythonSystem>::ms_singleton
  000cf	83 c4 0c	 add	 esp, 12			; 0000000cH
  000d2	f3 0f 10 45 ec	 movss	 xmm0, DWORD PTR _fFarClip$1$[ebp]
$LN12@UpdateGame:
; File C:\Anka2Project\Anka2Project\Source\Binary\source\UserInterface\PythonApplication.cpp

; 245  : 		s.SetPerspective(CPythonSystem::Instance().GetFOV(), fAspect, 100.0f, fFarClip);

  000d7	83 ec 0c	 sub	 esp, 12			; 0000000cH
  000da	f3 0f 11 44 24
	08		 movss	 DWORD PTR [esp+8], xmm0
  000e0	f3 0f 10 45 e8	 movss	 xmm0, DWORD PTR _fAspect$5[ebp]
  000e5	c7 44 24 04 00
	00 c8 42	 mov	 DWORD PTR [esp+4], 1120403456 ; 42c80000H
  000ed	f3 0f 11 04 24	 movss	 DWORD PTR [esp], xmm0
  000f2	e8 00 00 00 00	 call	 ?GetFOV@CPythonSystem@@QAEMXZ ; CPythonSystem::GetFOV
  000f7	51		 push	 ecx
  000f8	8d 4d f0	 lea	 ecx, DWORD PTR _s$6[ebp]
  000fb	f3 0f 11 04 24	 movss	 DWORD PTR [esp], xmm0
  00100	e8 00 00 00 00	 call	 ?SetPerspective@CGraphicBase@@QAEXMMMM@Z ; CGraphicBase::SetPerspective

; 246  : #else
; 247  : 		s.SetPerspective(30.0f,fAspect, 100.0f, fFarClip);
; 248  : #endif
; 249  : 
; 250  : 		s.BuildViewFrustum();

  00105	8d 4d f0	 lea	 ecx, DWORD PTR _s$6[ebp]
  00108	e8 00 00 00 00	 call	 ?BuildViewFrustum@CScreen@@QAEXXZ ; CScreen::BuildViewFrustum

; 251  : 	}

  0010d	8d 4d f0	 lea	 ecx, DWORD PTR _s$6[ebp]
  00110	c7 45 fc ff ff
	ff ff		 mov	 DWORD PTR __$EHRec$[ebp+8], -1
  00117	e8 00 00 00 00	 call	 ??1CScreen@@UAE@XZ	; CScreen::~CScreen

; 252  : 
; 253  : #ifdef ENABLE_RENDER_TARGET
; 254  : 	m_kRenderTargetManager.UpdateModels();

  0011c	8d 8b 50 d3 03
	00		 lea	 ecx, DWORD PTR [ebx+250704]
  00122	e8 00 00 00 00	 call	 ?UpdateModels@CRenderTargetManager@@QAEXXZ ; CRenderTargetManager::UpdateModels

; 255  : #endif
; 256  : 
; 257  : 	TPixelPosition kPPosMainActor;
; 258  : 	m_pyPlayer.NEW_GetMainActorPosition(&kPPosMainActor);

  00127	8d 45 d4	 lea	 eax, DWORD PTR _kPPosMainActor$[ebp]
  0012a	50		 push	 eax
  0012b	e8 00 00 00 00	 call	 ?NEW_GetMainActorPosition@CPythonPlayer@@QAEXPAUD3DXVECTOR3@@@Z ; CPythonPlayer::NEW_GetMainActorPosition

; 259  : 	m_pyBackground.Update(kPPosMainActor.x, kPPosMainActor.y, kPPosMainActor.z);

  00130	f3 0f 10 5d dc	 movss	 xmm3, DWORD PTR _kPPosMainActor$[ebp+8]
  00135	8d 8b b8 8d 03
	00		 lea	 ecx, DWORD PTR [ebx+232888]
  0013b	f3 0f 10 55 d8	 movss	 xmm2, DWORD PTR _kPPosMainActor$[ebp+4]
  00140	f3 0f 10 4d d4	 movss	 xmm1, DWORD PTR _kPPosMainActor$[ebp]
  00145	e8 00 00 00 00	 call	 ?Update@CPythonBackground@@QAEXMMM@Z ; CPythonBackground::Update

; 260  : 
; 261  : 	m_GameEventManager.SetCenterPosition(kPPosMainActor.x, kPPosMainActor.y, kPPosMainActor.z);

  0014a	f3 0f 10 45 dc	 movss	 xmm0, DWORD PTR _kPPosMainActor$[ebp+8]
  0014f	8d 8b c8 01 00
	00		 lea	 ecx, DWORD PTR [ebx+456]
  00155	83 ec 0c	 sub	 esp, 12			; 0000000cH
  00158	f3 0f 11 44 24
	08		 movss	 DWORD PTR [esp+8], xmm0
  0015e	f3 0f 10 45 d8	 movss	 xmm0, DWORD PTR _kPPosMainActor$[ebp+4]
  00163	f3 0f 11 44 24
	04		 movss	 DWORD PTR [esp+4], xmm0
  00169	f3 0f 10 45 d4	 movss	 xmm0, DWORD PTR _kPPosMainActor$[ebp]
  0016e	f3 0f 11 04 24	 movss	 DWORD PTR [esp], xmm0
  00173	e8 00 00 00 00	 call	 ?SetCenterPosition@CGameEventManager@@QAEXMMM@Z ; CGameEventManager::SetCenterPosition

; 262  : 	m_GameEventManager.Update();

  00178	8d 8b c8 01 00
	00		 lea	 ecx, DWORD PTR [ebx+456]
  0017e	e8 00 00 00 00	 call	 ?Update@CGameEventManager@@QAEXXZ ; CGameEventManager::Update

; 263  : 
; 264  : 	m_kChrMgr.Update();

  00183	8d 8b c4 02 00
	00		 lea	 ecx, DWORD PTR [ebx+708]
  00189	e8 00 00 00 00	 call	 ?Update@CPythonCharacterManager@@QAEXXZ ; CPythonCharacterManager::Update

; 265  : 	m_kEftMgr.Update();

  0018e	8d 8b 9c 02 00
	00		 lea	 ecx, DWORD PTR [ebx+668]
  00194	e8 00 00 00 00	 call	 ?Update@CEffectManager@@QAEXXZ ; CEffectManager::Update

; 266  : 	m_kEftMgr.UpdateSound();

  00199	8d 8b 9c 02 00
	00		 lea	 ecx, DWORD PTR [ebx+668]
  0019f	e8 00 00 00 00	 call	 ?UpdateSound@CEffectManager@@QAEXXZ ; CEffectManager::UpdateSound

; 267  : 	m_FlyingManager.Update();

  001a4	8d 8b 64 01 00
	00		 lea	 ecx, DWORD PTR [ebx+356]
  001aa	e8 00 00 00 00	 call	 ?Update@CFlyingManager@@QAEXXZ ; CFlyingManager::Update

; 268  : 	m_pyItem.Update(ptMouse);

  001af	8d 45 e0	 lea	 eax, DWORD PTR _ptMouse$[ebp]
  001b2	50		 push	 eax
  001b3	8d 8b 34 3f 02
	00		 lea	 ecx, DWORD PTR [ebx+147252]
  001b9	e8 00 00 00 00	 call	 ?Update@CPythonItem@@QAEXABUtagPOINT@@@Z ; CPythonItem::Update

; 269  : 	m_pyPlayer.Update();

  001be	8d 8b b0 82 00
	00		 lea	 ecx, DWORD PTR [ebx+33456]
  001c4	e8 00 00 00 00	 call	 ?Update@CPythonPlayer@@QAEXXZ ; CPythonPlayer::Update

; 270  : 
; 271  : 	m_pyPlayer.NEW_GetMainActorPosition(&kPPosMainActor);

  001c9	8d 45 d4	 lea	 eax, DWORD PTR _kPPosMainActor$[ebp]
  001cc	50		 push	 eax
  001cd	e8 00 00 00 00	 call	 ?NEW_GetMainActorPosition@CPythonPlayer@@QAEXPAUD3DXVECTOR3@@@Z ; CPythonPlayer::NEW_GetMainActorPosition

; 272  : 	SetCenterPosition(kPPosMainActor.x, kPPosMainActor.y, kPPosMainActor.z);

  001d2	f3 0f 10 45 dc	 movss	 xmm0, DWORD PTR _kPPosMainActor$[ebp+8]
  001d7	8d 4b 20	 lea	 ecx, DWORD PTR [ebx+32]
  001da	8b 43 20	 mov	 eax, DWORD PTR [ebx+32]
  001dd	83 ec 0c	 sub	 esp, 12			; 0000000cH
  001e0	f3 0f 11 44 24
	08		 movss	 DWORD PTR [esp+8], xmm0
  001e6	f3 0f 10 45 d8	 movss	 xmm0, DWORD PTR _kPPosMainActor$[ebp+4]
  001eb	f3 0f 11 44 24
	04		 movss	 DWORD PTR [esp+4], xmm0
  001f1	f3 0f 10 45 d4	 movss	 xmm0, DWORD PTR _kPPosMainActor$[ebp]
  001f6	f3 0f 11 04 24	 movss	 DWORD PTR [esp], xmm0
  001fb	ff 50 18	 call	 DWORD PTR [eax+24]

; 273  : }

  001fe	8b 4d f4	 mov	 ecx, DWORD PTR __$EHRec$[ebp]
  00201	64 89 0d 00 00
	00 00		 mov	 DWORD PTR fs:0, ecx
  00208	59		 pop	 ecx
  00209	5f		 pop	 edi
  0020a	5e		 pop	 esi
  0020b	5b		 pop	 ebx
  0020c	8b e5		 mov	 esp, ebp
  0020e	5d		 pop	 ebp
  0020f	c3		 ret	 0
_TEXT	ENDS
;	COMDAT text$x
text$x	SEGMENT
__unwindfunclet$?UpdateGame@CPythonApplication@@QAEXXZ$0:
  00000	8d 4d f0	 lea	 ecx, DWORD PTR _s$6[ebp]
  00003	e9 00 00 00 00	 jmp	 ??1CScreen@@UAE@XZ	; CScreen::~CScreen
  00008	cc		 int	 3
  00009	cc		 int	 3
  0000a	cc		 int	 3
  0000b	cc		 int	 3
  0000c	cc		 int	 3
__ehhandler$?UpdateGame@CPythonApplication@@QAEXXZ:
  0000d	90		 npad	 1
  0000e	90		 npad	 1
  0000f	8b 54 24 08	 mov	 edx, DWORD PTR [esp+8]
  00013	8d 42 0c	 lea	 eax, DWORD PTR [edx+12]
  00016	8b 4a cc	 mov	 ecx, DWORD PTR [edx-52]
  00019	33 c8		 xor	 ecx, eax
  0001b	e8 00 00 00 00	 call	 @__security_check_cookie@4
  00020	b8 00 00 00 00	 mov	 eax, OFFSET __ehfuncinfo$?UpdateGame@CPythonApplication@@QAEXXZ
  00025	e9 00 00 00 00	 jmp	 ___CxxFrameHandler3
text$x	ENDS
?UpdateGame@CPythonApplication@@QAEXXZ ENDP		; CPythonApplication::UpdateGame
; Function compile flags: /Ogtp
; File C:\Anka2Project\Anka2Project\Source\Binary\source\UserInterface\PythonApplication.cpp
; File C:\Anka2Project\Anka2Project\Source\Binary\source\eterBase\Singleton.h
; File C:\Anka2Project\Anka2Project\Source\Binary\source\UserInterface\PythonApplication.cpp
; File C:\Anka2Project\Anka2Project\Source\Binary\source\eterBase\Singleton.h
; File C:\Anka2Project\Anka2Project\Source\Binary\source\UserInterface\PythonApplication.cpp
; File C:\Anka2Project\Anka2Project\Source\Binary\source\eterBase\Singleton.h
; File C:\Anka2Project\Anka2Project\Source\Binary\source\UserInterface\PythonApplication.cpp
; File C:\Anka2Project\Anka2Project\Source\Binary\source\eterBase\Singleton.h
; File C:\Anka2Project\Anka2Project\Source\Binary\source\UserInterface\PythonApplication.cpp
; File C:\Anka2Project\Anka2Project\Source\Binary\source\eterBase\Singleton.h
; File C:\Anka2Project\Anka2Project\Source\Binary\source\UserInterface\PythonApplication.cpp
; File C:\Anka2Project\Anka2Project\Source\Binary\source\eterBase\Singleton.h
; File C:\Anka2Project\Anka2Project\Source\Binary\source\UserInterface\PythonApplication.cpp
; File C:\Anka2Project\Anka2Project\Source\Binary\source\eterBase\Singleton.h
; File C:\Anka2Project\Anka2Project\Source\Binary\source\UserInterface\PythonApplication.cpp
; File C:\Anka2Project\Anka2Project\Source\Binary\source\eterBase\Singleton.h
; File C:\Anka2Project\Anka2Project\Source\Binary\source\UserInterface\PythonApplication.cpp
;	COMDAT ?Process@CPythonApplication@@QAE_NXZ
_TEXT	SEGMENT
_Point$ = -40						; size = 8
_dwStart$1$ = -32					; size = 4
_fCurRenderTime$1$ = -28				; size = 4
_fRatio$9 = -24						; size = 4
_dwRenderStartTime$1$ = -20				; size = 4
_dwCurFaceCount$1$ = -20				; size = 4
$T10 = -16						; size = 4
__$EHRec$ = -12						; size = 12
?Process@CPythonApplication@@QAE_NXZ PROC		; CPythonApplication::Process, COMDAT
; _this$ = ecx

; 286  : {

  00000	55		 push	 ebp
  00001	8b ec		 mov	 ebp, esp
  00003	6a ff		 push	 -1
  00005	68 00 00 00 00	 push	 __ehhandler$?Process@CPythonApplication@@QAE_NXZ
  0000a	64 a1 00 00 00
	00		 mov	 eax, DWORD PTR fs:0
  00010	50		 push	 eax
  00011	83 ec 1c	 sub	 esp, 28			; 0000001cH
  00014	53		 push	 ebx
  00015	56		 push	 esi
  00016	57		 push	 edi
  00017	a1 00 00 00 00	 mov	 eax, DWORD PTR ___security_cookie
  0001c	33 c5		 xor	 eax, ebp
  0001e	50		 push	 eax
  0001f	8d 45 f4	 lea	 eax, DWORD PTR __$EHRec$[ebp]
  00022	64 a3 00 00 00
	00		 mov	 DWORD PTR fs:0, eax
  00028	8b f1		 mov	 esi, ecx

; 287  : 	ELTimer_SetFrameMSec();

  0002a	e8 00 00 00 00	 call	 ?ELTimer_SetFrameMSec@@YAXXZ ; ELTimer_SetFrameMSec

; 288  : 
; 289  : 	DWORD dwStart = ELTimer_GetMSec();

  0002f	e8 00 00 00 00	 call	 ?ELTimer_GetMSec@@YAKXZ	; ELTimer_GetMSec

; 290  : 
; 291  : 	///////////////////////////////////////////////////////////////////////////////////////////////////
; 292  : 	static DWORD	s_dwUpdateFrameCount = 0;
; 293  : 	static DWORD	s_dwRenderFrameCount = 0;
; 294  : 	static DWORD	s_dwFaceCount = 0;
; 295  : 	static UINT		s_uiLoad = 0;
; 296  : 	static DWORD	s_dwCheckTime = ELTimer_GetMSec();

  00034	64 8b 0d 00 00
	00 00		 mov	 ecx, DWORD PTR fs:__tls_array
  0003b	89 45 e0	 mov	 DWORD PTR _dwStart$1$[ebp], eax
  0003e	8b 11		 mov	 edx, DWORD PTR [ecx]
  00040	8b 0d 00 00 00
	00		 mov	 ecx, DWORD PTR ?$TSS0@?1??Process@CPythonApplication@@QAE_NXZ@4HA
  00046	3b 8a 00 00 00
	00		 cmp	 ecx, DWORD PTR __Init_thread_epoch[edx]
  0004c	7e 3b		 jle	 SHORT $LN2@Process
  0004e	68 00 00 00 00	 push	 OFFSET ?$TSS0@?1??Process@CPythonApplication@@QAE_NXZ@4HA
  00053	e8 00 00 00 00	 call	 __Init_thread_header
  00058	83 c4 04	 add	 esp, 4
  0005b	83 3d 00 00 00
	00 ff		 cmp	 DWORD PTR ?$TSS0@?1??Process@CPythonApplication@@QAE_NXZ@4HA, -1
  00062	75 25		 jne	 SHORT $LN2@Process
  00064	c7 45 fc 00 00
	00 00		 mov	 DWORD PTR __$EHRec$[ebp+8], 0
  0006b	e8 00 00 00 00	 call	 ?ELTimer_GetMSec@@YAKXZ	; ELTimer_GetMSec
  00070	68 00 00 00 00	 push	 OFFSET ?$TSS0@?1??Process@CPythonApplication@@QAE_NXZ@4HA
  00075	a3 00 00 00 00	 mov	 DWORD PTR ?s_dwCheckTime@?1??Process@CPythonApplication@@QAE_NXZ@4KA, eax
  0007a	c7 45 fc ff ff
	ff ff		 mov	 DWORD PTR __$EHRec$[ebp+8], -1
  00081	e8 00 00 00 00	 call	 __Init_thread_footer
  00086	83 c4 04	 add	 esp, 4
$LN2@Process:

; 297  : 
; 298  : 	if (ELTimer_GetMSec() - s_dwCheckTime > 1000)

  00089	e8 00 00 00 00	 call	 ?ELTimer_GetMSec@@YAKXZ	; ELTimer_GetMSec
  0008e	2b 05 00 00 00
	00		 sub	 eax, DWORD PTR ?s_dwCheckTime@?1??Process@CPythonApplication@@QAE_NXZ@4KA
  00094	3d e8 03 00 00	 cmp	 eax, 1000		; 000003e8H
  00099	76 6d		 jbe	 SHORT $LN5@Process

; 299  : 	{
; 300  : 		m_dwUpdateFPS		= s_dwUpdateFrameCount;

  0009b	a1 00 00 00 00	 mov	 eax, DWORD PTR ?s_dwUpdateFrameCount@?1??Process@CPythonApplication@@QAE_NXZ@4KA

; 301  : 		m_dwRenderFPS		= s_dwRenderFrameCount;

  000a0	8b 0d 00 00 00
	00		 mov	 ecx, DWORD PTR ?s_dwRenderFrameCount@?1??Process@CPythonApplication@@QAE_NXZ@4KA
  000a6	89 86 a4 d7 03
	00		 mov	 DWORD PTR [esi+251812], eax

; 302  : 		m_dwLoad			= s_uiLoad;

  000ac	a1 00 00 00 00	 mov	 eax, DWORD PTR ?s_uiLoad@?1??Process@CPythonApplication@@QAE_NXZ@4IA
  000b1	89 86 c0 d6 03
	00		 mov	 DWORD PTR [esi+251584], eax

; 303  : 
; 304  : 		m_dwFaceCount		= s_dwFaceCount / max(1, s_dwRenderFrameCount);

  000b7	b8 01 00 00 00	 mov	 eax, 1
  000bc	3b c8		 cmp	 ecx, eax
  000be	89 8e a8 d7 03
	00		 mov	 DWORD PTR [esi+251816], ecx
  000c4	0f 42 c8	 cmovb	 ecx, eax
  000c7	a1 00 00 00 00	 mov	 eax, DWORD PTR ?s_dwFaceCount@?1??Process@CPythonApplication@@QAE_NXZ@4KA
  000cc	33 d2		 xor	 edx, edx
  000ce	f7 f1		 div	 ecx
  000d0	89 86 ac d7 03
	00		 mov	 DWORD PTR [esi+251820], eax

; 305  : 
; 306  : 		s_dwCheckTime		= ELTimer_GetMSec();

  000d6	e8 00 00 00 00	 call	 ?ELTimer_GetMSec@@YAKXZ	; ELTimer_GetMSec
  000db	a3 00 00 00 00	 mov	 DWORD PTR ?s_dwCheckTime@?1??Process@CPythonApplication@@QAE_NXZ@4KA, eax

; 307  : 
; 308  : 		s_uiLoad = s_dwFaceCount = s_dwUpdateFrameCount = s_dwRenderFrameCount = 0;

  000e0	c7 05 00 00 00
	00 00 00 00 00	 mov	 DWORD PTR ?s_dwRenderFrameCount@?1??Process@CPythonApplication@@QAE_NXZ@4KA, 0
  000ea	c7 05 00 00 00
	00 00 00 00 00	 mov	 DWORD PTR ?s_dwUpdateFrameCount@?1??Process@CPythonApplication@@QAE_NXZ@4KA, 0
  000f4	c7 05 00 00 00
	00 00 00 00 00	 mov	 DWORD PTR ?s_dwFaceCount@?1??Process@CPythonApplication@@QAE_NXZ@4KA, 0
  000fe	c7 05 00 00 00
	00 00 00 00 00	 mov	 DWORD PTR ?s_uiLoad@?1??Process@CPythonApplication@@QAE_NXZ@4IA, 0
$LN5@Process:

; 309  : 	}
; 310  : 
; 311  : 	// Update Time
; 312  : 	static BOOL s_bFrameSkip = false;
; 313  : 	static UINT s_uiNextFrameTime = ELTimer_GetMSec();

  00108	64 a1 00 00 00
	00		 mov	 eax, DWORD PTR fs:__tls_array
  0010e	8b 08		 mov	 ecx, DWORD PTR [eax]
  00110	a1 00 00 00 00	 mov	 eax, DWORD PTR ?$TSS1@?1??Process@CPythonApplication@@QAE_NXZ@4HA
  00115	3b 81 00 00 00
	00		 cmp	 eax, DWORD PTR __Init_thread_epoch[ecx]
  0011b	7e 3b		 jle	 SHORT $LN3@Process
  0011d	68 00 00 00 00	 push	 OFFSET ?$TSS1@?1??Process@CPythonApplication@@QAE_NXZ@4HA
  00122	e8 00 00 00 00	 call	 __Init_thread_header
  00127	83 c4 04	 add	 esp, 4
  0012a	83 3d 00 00 00
	00 ff		 cmp	 DWORD PTR ?$TSS1@?1??Process@CPythonApplication@@QAE_NXZ@4HA, -1
  00131	75 25		 jne	 SHORT $LN3@Process
  00133	c7 45 fc 01 00
	00 00		 mov	 DWORD PTR __$EHRec$[ebp+8], 1
  0013a	e8 00 00 00 00	 call	 ?ELTimer_GetMSec@@YAKXZ	; ELTimer_GetMSec
  0013f	68 00 00 00 00	 push	 OFFSET ?$TSS1@?1??Process@CPythonApplication@@QAE_NXZ@4HA
  00144	a3 00 00 00 00	 mov	 DWORD PTR ?s_uiNextFrameTime@?1??Process@CPythonApplication@@QAE_NXZ@4IA, eax
  00149	c7 45 fc ff ff
	ff ff		 mov	 DWORD PTR __$EHRec$[ebp+8], -1
  00150	e8 00 00 00 00	 call	 __Init_thread_footer
  00155	83 c4 04	 add	 esp, 4
$LN3@Process:
; File C:\Anka2Project\Anka2Project\Source\Binary\source\eterBase\Singleton.h

; 26   : 		assert(ms_singleton);

  00158	8b 3d 00 00 00
	00		 mov	 edi, DWORD PTR ?ms_singleton@?$CSingleton@VCTimer@@@@0PAVCTimer@@A ; CSingleton<CTimer>::ms_singleton
  0015e	85 ff		 test	 edi, edi
  00160	75 1a		 jne	 SHORT $LN48@Process
  00162	6a 1a		 push	 26			; 0000001aH
  00164	68 00 00 00 00	 push	 OFFSET ??_C@_1IO@CAJLEEOI@?$AAC?$AA?3?$AA?2?$AAA?$AAn?$AAk?$AAa?$AA2?$AAP?$AAr?$AAo?$AAj?$AAe?$AAc?$AAt@
  00169	68 00 00 00 00	 push	 OFFSET ??_C@_1BK@FMEHPMFE@?$AAm?$AAs?$AA_?$AAs?$AAi?$AAn?$AAg?$AAl?$AAe?$AAt?$AAo?$AAn@
  0016e	e8 00 00 00 00	 call	 __wassert
  00173	8b 3d 00 00 00
	00		 mov	 edi, DWORD PTR ?ms_singleton@?$CSingleton@VCTimer@@@@0PAVCTimer@@A ; CSingleton<CTimer>::ms_singleton
  00179	83 c4 0c	 add	 esp, 12			; 0000000cH
$LN48@Process:
; File C:\Anka2Project\Anka2Project\Source\Binary\source\UserInterface\PythonApplication.cpp

; 316  : 	rkTimer.Advance();

  0017c	8b cf		 mov	 ecx, edi
  0017e	e8 00 00 00 00	 call	 ?Advance@CTimer@@QAEXXZ	; CTimer::Advance

; 317  : 
; 318  : 	m_fGlobalTime = rkTimer.GetCurrentSecond();

  00183	8b cf		 mov	 ecx, edi
  00185	e8 00 00 00 00	 call	 ?GetCurrentSecond@CTimer@@QAEMXZ ; CTimer::GetCurrentSecond
  0018a	d9 9e dc d6 03
	00		 fstp	 DWORD PTR [esi+251612]

; 319  : 	m_fGlobalElapsedTime = rkTimer.GetElapsedSecond();

  00190	8b cf		 mov	 ecx, edi
  00192	e8 00 00 00 00	 call	 ?GetElapsedSecond@CTimer@@QAEMXZ ; CTimer::GetElapsedSecond

; 320  : 
; 321  : 	UINT uiFrameTime = rkTimer.GetElapsedMilliecond();

  00197	8b cf		 mov	 ecx, edi
  00199	d9 9e e0 d6 03
	00		 fstp	 DWORD PTR [esi+251616]
  0019f	e8 00 00 00 00	 call	 ?GetElapsedMilliecond@CTimer@@QAEKXZ ; CTimer::GetElapsedMilliecond
  001a4	8b f8		 mov	 edi, eax

; 322  : 	s_uiNextFrameTime += uiFrameTime;

  001a6	01 3d 00 00 00
	00		 add	 DWORD PTR ?s_uiNextFrameTime@?1??Process@CPythonApplication@@QAE_NXZ@4IA, edi

; 323  : 
; 324  : 	DWORD updatestart = ELTimer_GetMSec();

  001ac	e8 00 00 00 00	 call	 ?ELTimer_GetMSec@@YAKXZ	; ELTimer_GetMSec

; 325  : 	// Network I/O
; 326  : 	m_pyNetworkStream.Process();

  001b1	8d 8e 28 08 00
	00		 lea	 ecx, DWORD PTR [esi+2088]
  001b7	8b d8		 mov	 ebx, eax
  001b9	e8 00 00 00 00	 call	 ?Process@CNetworkStream@@QAEXXZ ; CNetworkStream::Process

; 327  : 	//m_pyNetworkDatagram.Process();
; 328  : 
; 329  : 	m_kGuildMarkUploader.Process();

  001be	8d 8e 38 a6 03
	00		 lea	 ecx, DWORD PTR [esi+239160]
  001c4	e8 00 00 00 00	 call	 ?Process@CGuildMarkUploader@@QAEXXZ ; CGuildMarkUploader::Process

; 330  : 
; 331  : 	m_kGuildMarkDownloader.Process();

  001c9	8d 8e 88 a5 03
	00		 lea	 ecx, DWORD PTR [esi+238984]
  001cf	e8 00 00 00 00	 call	 ?Process@CGuildMarkDownloader@@QAEXXZ ; CGuildMarkDownloader::Process

; 332  : 	m_kAccountConnector.Process();

  001d4	8d 8e e0 a9 03
	00		 lea	 ecx, DWORD PTR [esi+240096]
  001da	e8 00 00 00 00	 call	 ?Process@CAccountConnector@@QAEXXZ ; CAccountConnector::Process

; 333  : 
; 334  : 	//////////////////////
; 335  : 	// Input Process
; 336  : 	// Keyboard
; 337  : 	UpdateKeyboard();

  001df	8d 4e 1c	 lea	 ecx, DWORD PTR [esi+28]
  001e2	e8 00 00 00 00	 call	 ?UpdateKeyboard@CInputKeyboard@@QAEXXZ ; CInputKeyboard::UpdateKeyboard

; 338  : 
; 339  : 	// Mouse
; 340  : 	POINT Point;
; 341  : 	if (GetCursorPos(&Point))

  001e7	8d 45 d8	 lea	 eax, DWORD PTR _Point$[ebp]
  001ea	50		 push	 eax
  001eb	ff 15 00 00 00
	00		 call	 DWORD PTR __imp__GetCursorPos@4
  001f1	85 c0		 test	 eax, eax
  001f3	74 1a		 je	 SHORT $LN6@Process

; 342  : 	{
; 343  : 		ScreenToClient(m_hWnd, &Point);

  001f5	8d 45 d8	 lea	 eax, DWORD PTR _Point$[ebp]
  001f8	50		 push	 eax
  001f9	ff 76 04	 push	 DWORD PTR [esi+4]
  001fc	ff 15 00 00 00
	00		 call	 DWORD PTR __imp__ScreenToClient@8

; 344  : 		OnMouseMove(Point.x, Point.y);

  00202	ff 75 dc	 push	 DWORD PTR _Point$[ebp+4]
  00205	8b ce		 mov	 ecx, esi
  00207	ff 75 d8	 push	 DWORD PTR _Point$[ebp]
  0020a	e8 00 00 00 00	 call	 ?OnMouseMove@CPythonApplication@@IAEXHH@Z ; CPythonApplication::OnMouseMove
$LN6@Process:

; 345  : 	}
; 346  : 	//////////////////////
; 347  : 	//if (m_isActivateWnd)
; 348  : 	__UpdateCamera();

  0020f	8b ce		 mov	 ecx, esi
  00211	e8 00 00 00 00	 call	 ?__UpdateCamera@CPythonApplication@@IAEXXZ ; CPythonApplication::__UpdateCamera
; File C:\Anka2Project\Anka2Project\Source\Binary\source\eterBase\Singleton.h

; 26   : 		assert(ms_singleton);

  00216	8b 0d 00 00 00
	00		 mov	 ecx, DWORD PTR ?ms_singleton@?$CSingleton@VCResourceManager@@@@0PAVCResourceManager@@A ; CSingleton<CResourceManager>::ms_singleton
  0021c	85 c9		 test	 ecx, ecx
  0021e	75 1a		 jne	 SHORT $LN51@Process
  00220	6a 1a		 push	 26			; 0000001aH
  00222	68 00 00 00 00	 push	 OFFSET ??_C@_1IO@CAJLEEOI@?$AAC?$AA?3?$AA?2?$AAA?$AAn?$AAk?$AAa?$AA2?$AAP?$AAr?$AAo?$AAj?$AAe?$AAc?$AAt@
  00227	68 00 00 00 00	 push	 OFFSET ??_C@_1BK@FMEHPMFE@?$AAm?$AAs?$AA_?$AAs?$AAi?$AAn?$AAg?$AAl?$AAe?$AAt?$AAo?$AAn@
  0022c	e8 00 00 00 00	 call	 __wassert
  00231	8b 0d 00 00 00
	00		 mov	 ecx, DWORD PTR ?ms_singleton@?$CSingleton@VCResourceManager@@@@0PAVCResourceManager@@A ; CSingleton<CResourceManager>::ms_singleton
  00237	83 c4 0c	 add	 esp, 12			; 0000000cH
$LN51@Process:
; File C:\Anka2Project\Anka2Project\Source\Binary\source\UserInterface\PythonApplication.cpp

; 350  : 	CResourceManager::Instance().Update();

  0023a	e8 00 00 00 00	 call	 ?Update@CResourceManager@@QAEXXZ ; CResourceManager::Update

; 351  : 	OnCameraUpdate();

  0023f	8b ce		 mov	 ecx, esi
  00241	e8 00 00 00 00	 call	 ?OnCameraUpdate@CPythonApplication@@IAEXXZ ; CPythonApplication::OnCameraUpdate

; 352  : 	OnMouseUpdate();

  00246	8b ce		 mov	 ecx, esi
  00248	e8 00 00 00 00	 call	 ?OnMouseUpdate@CPythonApplication@@IAEXXZ ; CPythonApplication::OnMouseUpdate

; 353  : 	OnUIUpdate();

  0024d	e8 00 00 00 00	 call	 ?OnUIUpdate@CPythonApplication@@IAEXXZ ; CPythonApplication::OnUIUpdate

; 354  : 
; 355  : 	m_dwCurUpdateTime = ELTimer_GetMSec() - updatestart;

  00252	e8 00 00 00 00	 call	 ?ELTimer_GetMSec@@YAKXZ	; ELTimer_GetMSec
  00257	2b c3		 sub	 eax, ebx
  00259	89 86 bc d6 03
	00		 mov	 DWORD PTR [esi+251580], eax

; 356  : 
; 357  : 	DWORD dwCurrentTime = ELTimer_GetMSec();

  0025f	e8 00 00 00 00	 call	 ?ELTimer_GetMSec@@YAKXZ	; ELTimer_GetMSec

; 358  : 	BOOL  bCurrentLateUpdate = FALSE;
; 359  : 
; 360  : 	s_bFrameSkip = false;
; 361  : 
; 362  : 	if (dwCurrentTime > s_uiNextFrameTime)

  00264	8b 0d 00 00 00
	00		 mov	 ecx, DWORD PTR ?s_uiNextFrameTime@?1??Process@CPythonApplication@@QAE_NXZ@4IA
  0026a	33 db		 xor	 ebx, ebx
  0026c	89 5d f0	 mov	 DWORD PTR $T10[ebp], ebx
  0026f	89 1d 00 00 00
	00		 mov	 DWORD PTR ?s_bFrameSkip@?1??Process@CPythonApplication@@QAE_NXZ@4HA, ebx
  00275	3b c1		 cmp	 eax, ecx
  00277	0f 86 86 00 00
	00		 jbe	 $LN7@Process

; 363  : 	{
; 364  : 		int dt = dwCurrentTime - s_uiNextFrameTime;

  0027d	66 0f 6e c7	 movd	 xmm0, edi
  00281	2b c1		 sub	 eax, ecx

; 365  : 		int nAdjustTime = ((float)dt / (float)uiFrameTime) * uiFrameTime;

  00283	f3 0f e6 c0	 cvtdq2pd xmm0, xmm0
  00287	c1 ef 1f	 shr	 edi, 31			; 0000001fH
  0028a	f2 0f 58 04 fd
	00 00 00 00	 addsd	 xmm0, QWORD PTR __xmm@41f00000000000000000000000000000[edi*8]
  00293	66 0f 5a c8	 cvtpd2ps xmm1, xmm0
  00297	66 0f 6e c0	 movd	 xmm0, eax
  0029b	0f 5b c0	 cvtdq2ps xmm0, xmm0
  0029e	f3 0f 5e c1	 divss	 xmm0, xmm1
  002a2	f3 0f 59 c1	 mulss	 xmm0, xmm1
  002a6	f3 0f 2c f8	 cvttss2si edi, xmm0

; 366  : 
; 367  : 		if ( dt >= 500 )

  002aa	3d f4 01 00 00	 cmp	 eax, 500		; 000001f4H
  002af	7c 40		 jl	 SHORT $LN8@Process

; 368  : 		{
; 369  : 			s_uiNextFrameTime += nAdjustTime;

  002b1	03 cf		 add	 ecx, edi

; 370  : 			printf("FrameSkip Adjusting... %d\n",nAdjustTime);

  002b3	57		 push	 edi
  002b4	68 00 00 00 00	 push	 OFFSET ??_C@_0BL@GHJOJKGG@FrameSkip?5Adjusting?4?4?4?5?$CFd?6@
  002b9	89 0d 00 00 00
	00		 mov	 DWORD PTR ?s_uiNextFrameTime@?1??Process@CPythonApplication@@QAE_NXZ@4IA, ecx
  002bf	e8 00 00 00 00	 call	 _printf
; File C:\Anka2Project\Anka2Project\Source\Binary\source\eterBase\Singleton.h

; 26   : 		assert(ms_singleton);

  002c4	8b 0d 00 00 00
	00		 mov	 ecx, DWORD PTR ?ms_singleton@?$CSingleton@VCTimer@@@@0PAVCTimer@@A ; CSingleton<CTimer>::ms_singleton
; File C:\Anka2Project\Anka2Project\Source\Binary\source\UserInterface\PythonApplication.cpp

; 370  : 			printf("FrameSkip Adjusting... %d\n",nAdjustTime);

  002ca	83 c4 08	 add	 esp, 8
; File C:\Anka2Project\Anka2Project\Source\Binary\source\eterBase\Singleton.h

; 26   : 		assert(ms_singleton);

  002cd	85 c9		 test	 ecx, ecx
  002cf	75 1a		 jne	 SHORT $LN54@Process
  002d1	6a 1a		 push	 26			; 0000001aH
  002d3	68 00 00 00 00	 push	 OFFSET ??_C@_1IO@CAJLEEOI@?$AAC?$AA?3?$AA?2?$AAA?$AAn?$AAk?$AAa?$AA2?$AAP?$AAr?$AAo?$AAj?$AAe?$AAc?$AAt@
  002d8	68 00 00 00 00	 push	 OFFSET ??_C@_1BK@FMEHPMFE@?$AAm?$AAs?$AA_?$AAs?$AAi?$AAn?$AAg?$AAl?$AAe?$AAt?$AAo?$AAn@
  002dd	e8 00 00 00 00	 call	 __wassert
  002e2	8b 0d 00 00 00
	00		 mov	 ecx, DWORD PTR ?ms_singleton@?$CSingleton@VCTimer@@@@0PAVCTimer@@A ; CSingleton<CTimer>::ms_singleton
  002e8	83 c4 0c	 add	 esp, 12			; 0000000cH
$LN54@Process:
; File C:\Anka2Project\Anka2Project\Source\Binary\source\UserInterface\PythonApplication.cpp

; 371  : 			CTimer::Instance().Adjust(nAdjustTime);

  002eb	57		 push	 edi
  002ec	e8 00 00 00 00	 call	 ?Adjust@CTimer@@QAEXH@Z	; CTimer::Adjust
$LN8@Process:

; 372  : 		}
; 373  : 
; 374  : 		s_bFrameSkip = true;
; 375  : 		bCurrentLateUpdate = TRUE;

  002f1	bb 01 00 00 00	 mov	 ebx, 1
  002f6	c7 05 00 00 00
	00 01 00 00 00	 mov	 DWORD PTR ?s_bFrameSkip@?1??Process@CPythonApplication@@QAE_NXZ@4HA, 1
  00300	89 5d f0	 mov	 DWORD PTR $T10[ebp], ebx
$LN7@Process:

; 376  : 	}
; 377  : 
; 378  : 	if (m_isFrameSkipDisable)

  00303	80 be d1 d7 03
	00 00		 cmp	 BYTE PTR [esi+251857], 0
  0030a	74 0c		 je	 SHORT $LN9@Process

; 379  : 		s_bFrameSkip = false;

  0030c	c7 05 00 00 00
	00 00 00 00 00	 mov	 DWORD PTR ?s_bFrameSkip@?1??Process@CPythonApplication@@QAE_NXZ@4HA, 0

; 442  : 		{
; 443  : 			SkipRenderBuffering(3000);

  00316	eb 08		 jmp	 SHORT $LN69@Process
$LN9@Process:

; 380  : 
; 381  : 	if (!s_bFrameSkip)

  00318	85 db		 test	 ebx, ebx
  0031a	0f 85 51 04 00
	00		 jne	 $LN19@Process
$LN69@Process:
  00320	f2 0f 10 05 00
	00 00 00	 movsd	 xmm0, QWORD PTR ?g_specularSpd@@3NA

; 382  : 	{
; 383  : 		CGrannyMaterial::TranslateSpecularMatrix(g_specularSpd, g_specularSpd, 0.0f);

  00328	83 ec 0c	 sub	 esp, 12			; 0000000cH
  0032b	66 0f 5a c0	 cvtpd2ps xmm0, xmm0
  0032f	c7 44 24 08 00
	00 00 00	 mov	 DWORD PTR [esp+8], 0
  00337	f3 0f 11 44 24
	04		 movss	 DWORD PTR [esp+4], xmm0
  0033d	f3 0f 11 04 24	 movss	 DWORD PTR [esp], xmm0
  00342	e8 00 00 00 00	 call	 ?TranslateSpecularMatrix@CGrannyMaterial@@SAXMMM@Z ; CGrannyMaterial::TranslateSpecularMatrix
  00347	83 c4 0c	 add	 esp, 12			; 0000000cH

; 384  : 
; 385  : 		DWORD dwRenderStartTime = ELTimer_GetMSec();

  0034a	e8 00 00 00 00	 call	 ?ELTimer_GetMSec@@YAKXZ	; ELTimer_GetMSec

; 386  : 
; 387  : 		bool canRender = true;
; 388  : 
; 389  : 		if (m_isMinimizedWnd)

  0034f	80 be f0 d7 03
	00 00		 cmp	 BYTE PTR [esi+251888], 0
  00356	b3 01		 mov	 bl, 1
  00358	89 45 ec	 mov	 DWORD PTR _dwRenderStartTime$1$[ebp], eax
  0035b	0f 85 a0 00 00
	00		 jne	 $LN14@Process

; 390  : 		{
; 391  : 			canRender = false;
; 392  : 		}
; 393  : 		else
; 394  : 		{
; 395  : #ifdef ENABLE_FIX_MOBS_LAG
; 396  : 			if (DEVICE_STATE_OK != CheckDeviceState())

  00361	8b ce		 mov	 ecx, esi
  00363	e8 00 00 00 00	 call	 ?CheckDeviceState@CPythonApplication@@IAEHXZ ; CPythonApplication::CheckDeviceState
  00368	83 f8 02	 cmp	 eax, 2
  0036b	0f 84 92 00 00
	00		 je	 $LN15@Process
; File C:\Anka2Project\Anka2Project\Source\Binary\source\eterBase\Singleton.h

; 26   : 		assert(ms_singleton);

  00371	8b 3d 00 00 00
	00		 mov	 edi, DWORD PTR ?ms_singleton@?$CSingleton@VCPythonBackground@@@@0PAVCPythonBackground@@A ; CSingleton<CPythonBackground>::ms_singleton
; File C:\Anka2Project\Anka2Project\Source\Binary\source\UserInterface\PythonApplication.cpp

; 398  : 				canRender = false;

  00377	32 db		 xor	 bl, bl
; File C:\Anka2Project\Anka2Project\Source\Binary\source\eterBase\Singleton.h

; 26   : 		assert(ms_singleton);

  00379	85 ff		 test	 edi, edi
  0037b	75 1a		 jne	 SHORT $LN57@Process
  0037d	6a 1a		 push	 26			; 0000001aH
  0037f	68 00 00 00 00	 push	 OFFSET ??_C@_1IO@CAJLEEOI@?$AAC?$AA?3?$AA?2?$AAA?$AAn?$AAk?$AAa?$AA2?$AAP?$AAr?$AAo?$AAj?$AAe?$AAc?$AAt@
  00384	68 00 00 00 00	 push	 OFFSET ??_C@_1BK@FMEHPMFE@?$AAm?$AAs?$AA_?$AAs?$AAi?$AAn?$AAg?$AAl?$AAe?$AAt?$AAo?$AAn@
  00389	e8 00 00 00 00	 call	 __wassert
  0038e	8b 3d 00 00 00
	00		 mov	 edi, DWORD PTR ?ms_singleton@?$CSingleton@VCPythonBackground@@@@0PAVCPythonBackground@@A ; CSingleton<CPythonBackground>::ms_singleton
  00394	83 c4 0c	 add	 esp, 12			; 0000000cH
$LN57@Process:
  00397	8b 0d 00 00 00
	00		 mov	 ecx, DWORD PTR ?ms_singleton@?$CSingleton@VCRenderTargetManager@@@@0PAVCRenderTargetManager@@A ; CSingleton<CRenderTargetManager>::ms_singleton
  0039d	85 c9		 test	 ecx, ecx
  0039f	75 1a		 jne	 SHORT $LN60@Process
  003a1	6a 1a		 push	 26			; 0000001aH
  003a3	68 00 00 00 00	 push	 OFFSET ??_C@_1IO@CAJLEEOI@?$AAC?$AA?3?$AA?2?$AAA?$AAn?$AAk?$AAa?$AA2?$AAP?$AAr?$AAo?$AAj?$AAe?$AAc?$AAt@
  003a8	68 00 00 00 00	 push	 OFFSET ??_C@_1BK@FMEHPMFE@?$AAm?$AAs?$AA_?$AAs?$AAi?$AAn?$AAg?$AAl?$AAe?$AAt?$AAo?$AAn@
  003ad	e8 00 00 00 00	 call	 __wassert
  003b2	8b 0d 00 00 00
	00		 mov	 ecx, DWORD PTR ?ms_singleton@?$CSingleton@VCRenderTargetManager@@@@0PAVCRenderTargetManager@@A ; CSingleton<CRenderTargetManager>::ms_singleton
  003b8	83 c4 0c	 add	 esp, 12			; 0000000cH
$LN60@Process:
; File C:\Anka2Project\Anka2Project\Source\Binary\source\UserInterface\PythonApplication.cpp

; 402  : 				CRenderTargetManager::Instance().ReleaseRenderTargetTextures();

  003bb	e8 00 00 00 00	 call	 ?ReleaseRenderTargetTextures@CRenderTargetManager@@QAEXXZ ; CRenderTargetManager::ReleaseRenderTargetTextures

; 403  : #endif
; 404  : 
; 405  : 				if (m_pyGraphic.RestoreDevice())

  003c0	8d 8e 84 07 00
	00		 lea	 ecx, DWORD PTR [esi+1924]
  003c6	e8 00 00 00 00	 call	 ?RestoreDevice@CScreen@@QAEHXZ ; CScreen::RestoreDevice
  003cb	85 c0		 test	 eax, eax
  003cd	74 32		 je	 SHORT $LN14@Process
; File C:\Anka2Project\Anka2Project\Source\Binary\source\eterBase\Singleton.h

; 26   : 		assert(ms_singleton);

  003cf	8b 0d 00 00 00
	00		 mov	 ecx, DWORD PTR ?ms_singleton@?$CSingleton@VCRenderTargetManager@@@@0PAVCRenderTargetManager@@A ; CSingleton<CRenderTargetManager>::ms_singleton
  003d5	85 c9		 test	 ecx, ecx
  003d7	75 1a		 jne	 SHORT $LN63@Process
  003d9	6a 1a		 push	 26			; 0000001aH
  003db	68 00 00 00 00	 push	 OFFSET ??_C@_1IO@CAJLEEOI@?$AAC?$AA?3?$AA?2?$AAA?$AAn?$AAk?$AAa?$AA2?$AAP?$AAr?$AAo?$AAj?$AAe?$AAc?$AAt@
  003e0	68 00 00 00 00	 push	 OFFSET ??_C@_1BK@FMEHPMFE@?$AAm?$AAs?$AA_?$AAs?$AAi?$AAn?$AAg?$AAl?$AAe?$AAt?$AAo?$AAn@
  003e5	e8 00 00 00 00	 call	 __wassert
  003ea	8b 0d 00 00 00
	00		 mov	 ecx, DWORD PTR ?ms_singleton@?$CSingleton@VCRenderTargetManager@@@@0PAVCRenderTargetManager@@A ; CSingleton<CRenderTargetManager>::ms_singleton
  003f0	83 c4 0c	 add	 esp, 12			; 0000000cH
$LN63@Process:
; File C:\Anka2Project\Anka2Project\Source\Binary\source\UserInterface\PythonApplication.cpp

; 408  : 					CRenderTargetManager::Instance().CreateRenderTargetTextures();

  003f3	e8 00 00 00 00	 call	 ?CreateRenderTargetTextures@CRenderTargetManager@@QAEXXZ ; CRenderTargetManager::CreateRenderTargetTextures

; 409  : #endif
; 410  : 					rkBG.CreateCharacterShadowTexture();

  003f8	8b cf		 mov	 ecx, edi
  003fa	e8 00 00 00 00	 call	 ?CreateCharacterShadowTexture@CPythonBackground@@QAEXXZ ; CPythonBackground::CreateCharacterShadowTexture

; 411  : 				}

  003ff	eb 02		 jmp	 SHORT $LN15@Process
$LN14@Process:

; 412  : 				else
; 413  : 				{
; 414  : 					canRender = false;
; 415  : 				}
; 416  : 			}
; 417  : #else
; 418  : 			if (m_pyGraphic.IsLostDevice())
; 419  : 			{
; 420  : 				CPythonBackground& rkBG = CPythonBackground::Instance();
; 421  : 				rkBG.ReleaseCharacterShadowTexture();
; 422  : #ifdef ENABLE_RENDER_TARGET
; 423  : 				CRenderTargetManager::Instance().ReleaseRenderTargetTextures();
; 424  : #endif
; 425  : 
; 426  : 				if (m_pyGraphic.RestoreDevice())
; 427  : 				{
; 428  : #ifdef ENABLE_RENDER_TARGET
; 429  : 					CRenderTargetManager::Instance().CreateRenderTargetTextures();
; 430  : #endif
; 431  : 					rkBG.CreateCharacterShadowTexture();
; 432  : 				}
; 433  : 				else
; 434  : 				{
; 435  : 					canRender = false;
; 436  : 				}
; 437  : 			}
; 438  : #endif
; 439  : 		}
; 440  : 
; 441  : 		if (!IsActive())

  00401	32 db		 xor	 bl, bl
$LN15@Process:
  00403	8b ce		 mov	 ecx, esi
  00405	e8 00 00 00 00	 call	 ?IsActive@CMSWindow@@QAE_NXZ ; CMSWindow::IsActive
  0040a	8d 7e 20	 lea	 edi, DWORD PTR [esi+32]
  0040d	84 c0		 test	 al, al
  0040f	75 0c		 jne	 SHORT $LN16@Process

; 442  : 		{
; 443  : 			SkipRenderBuffering(3000);

  00411	8b 07		 mov	 eax, DWORD PTR [edi]
  00413	8b cf		 mov	 ecx, edi
  00415	68 b8 0b 00 00	 push	 3000			; 00000bb8H
  0041a	ff 50 10	 call	 DWORD PTR [eax+16]
$LN16@Process:

; 444  : 		}
; 445  : 
; 446  : 		if (!canRender)

  0041d	84 db		 test	 bl, bl
  0041f	75 11		 jne	 SHORT $LN17@Process

; 447  : 		{
; 448  : 			SkipRenderBuffering(3000);

  00421	8b 07		 mov	 eax, DWORD PTR [edi]
  00423	8b cf		 mov	 ecx, edi
  00425	68 b8 0b 00 00	 push	 3000			; 00000bb8H
  0042a	ff 50 10	 call	 DWORD PTR [eax+16]

; 449  : 		}

  0042d	e9 3c 03 00 00	 jmp	 $LN70@Process
$LN17@Process:
; File C:\Anka2Project\Anka2Project\Source\Binary\source\eterBase\Singleton.h

; 26   : 		assert(ms_singleton);

  00432	8b 0d 00 00 00
	00		 mov	 ecx, DWORD PTR ?ms_singleton@?$CSingleton@VCCullingManager@@@@0PAVCCullingManager@@A ; CSingleton<CCullingManager>::ms_singleton
  00438	85 c9		 test	 ecx, ecx
  0043a	75 1a		 jne	 SHORT $LN66@Process
  0043c	6a 1a		 push	 26			; 0000001aH
  0043e	68 00 00 00 00	 push	 OFFSET ??_C@_1IO@CAJLEEOI@?$AAC?$AA?3?$AA?2?$AAA?$AAn?$AAk?$AAa?$AA2?$AAP?$AAr?$AAo?$AAj?$AAe?$AAc?$AAt@
  00443	68 00 00 00 00	 push	 OFFSET ??_C@_1BK@FMEHPMFE@?$AAm?$AAs?$AA_?$AAs?$AAi?$AAn?$AAg?$AAl?$AAe?$AAt?$AAo?$AAn@
  00448	e8 00 00 00 00	 call	 __wassert
  0044d	8b 0d 00 00 00
	00		 mov	 ecx, DWORD PTR ?ms_singleton@?$CSingleton@VCCullingManager@@@@0PAVCCullingManager@@A ; CSingleton<CCullingManager>::ms_singleton
  00453	83 c4 0c	 add	 esp, 12			; 0000000cH
$LN66@Process:
; File C:\Anka2Project\Anka2Project\Source\Binary\source\UserInterface\PythonApplication.cpp

; 452  : 			CCullingManager::Instance().Update();

  00456	e8 00 00 00 00	 call	 ?Update@CCullingManager@@QAEXXZ ; CCullingManager::Update

; 453  : 			if (m_pyGraphic.Begin())

  0045b	8d be 84 07 00
	00		 lea	 edi, DWORD PTR [esi+1924]
  00461	8b cf		 mov	 ecx, edi
  00463	e8 00 00 00 00	 call	 ?Begin@CScreen@@QAE_NXZ	; CScreen::Begin
  00468	84 c0		 test	 al, al
  0046a	0f 84 fe 02 00
	00		 je	 $LN70@Process

; 454  : 			{
; 455  : 
; 456  : 				m_pyGraphic.ClearDepthBuffer();

  00470	8b cf		 mov	 ecx, edi
  00472	e8 00 00 00 00	 call	 ?ClearDepthBuffer@CScreen@@QAEXXZ ; CScreen::ClearDepthBuffer

; 457  : 
; 458  : #ifdef _DEBUG
; 459  : 				m_pyGraphic.SetClearColor(0.3f, 0.3f, 0.3f);
; 460  : 				m_pyGraphic.Clear();
; 461  : #endif
; 462  : 
; 463  : 				/////////////////////
; 464  : 				// Interface
; 465  : 				m_pyGraphic.SetInterfaceRenderState();

  00477	8b cf		 mov	 ecx, edi
  00479	e8 00 00 00 00	 call	 ?SetInterfaceRenderState@CPythonGraphic@@QAEXXZ ; CPythonGraphic::SetInterfaceRenderState

; 466  : 
; 467  : 				OnUIRender();

  0047e	e8 00 00 00 00	 call	 ?OnUIRender@CPythonApplication@@IAEXXZ ; CPythonApplication::OnUIRender

; 468  : 				OnMouseRender();

  00483	8b ce		 mov	 ecx, esi
  00485	e8 00 00 00 00	 call	 ?OnMouseRender@CPythonApplication@@IAEXXZ ; CPythonApplication::OnMouseRender

; 469  : 				/////////////////////
; 470  : 
; 471  : 				m_pyGraphic.End();

  0048a	8b cf		 mov	 ecx, edi
  0048c	e8 00 00 00 00	 call	 ?End@CScreen@@QAEXXZ	; CScreen::End

; 472  : 
; 473  : 				//DWORD t1 = ELTimer_GetMSec();
; 474  : 				m_pyGraphic.Show();

  00491	6a 00		 push	 0
  00493	8b cf		 mov	 ecx, edi
  00495	e8 00 00 00 00	 call	 ?Show@CScreen@@QAEXPAUHWND__@@@Z ; CScreen::Show

; 475  : 				//DWORD t2 = ELTimer_GetMSec();
; 476  : 
; 477  : 				DWORD dwRenderEndTime = ELTimer_GetMSec();

  0049a	e8 00 00 00 00	 call	 ?ELTimer_GetMSec@@YAKXZ	; ELTimer_GetMSec

; 478  : 
; 479  : 				static DWORD s_dwRenderCheckTime = dwRenderEndTime;

  0049f	64 8b 0d 00 00
	00 00		 mov	 ecx, DWORD PTR fs:__tls_array
  004a6	8b d8		 mov	 ebx, eax
  004a8	8b 11		 mov	 edx, DWORD PTR [ecx]
  004aa	8b 0d 00 00 00
	00		 mov	 ecx, DWORD PTR ?$TSS2@?CL@??Process@CPythonApplication@@QAE_NXZ@4HA
  004b0	3b 8a 00 00 00
	00		 cmp	 ecx, DWORD PTR __Init_thread_epoch[edx]
  004b6	7e 29		 jle	 SHORT $LN4@Process
  004b8	68 00 00 00 00	 push	 OFFSET ?$TSS2@?CL@??Process@CPythonApplication@@QAE_NXZ@4HA
  004bd	e8 00 00 00 00	 call	 __Init_thread_header
  004c2	83 c4 04	 add	 esp, 4
  004c5	83 3d 00 00 00
	00 ff		 cmp	 DWORD PTR ?$TSS2@?CL@??Process@CPythonApplication@@QAE_NXZ@4HA, -1
  004cc	75 13		 jne	 SHORT $LN4@Process
  004ce	68 00 00 00 00	 push	 OFFSET ?$TSS2@?CL@??Process@CPythonApplication@@QAE_NXZ@4HA
  004d3	89 1d 00 00 00
	00		 mov	 DWORD PTR ?s_dwRenderCheckTime@?CL@??Process@CPythonApplication@@QAE_NXZ@4KA, ebx
  004d9	e8 00 00 00 00	 call	 __Init_thread_footer
  004de	83 c4 04	 add	 esp, 4
$LN4@Process:

; 480  : 				static DWORD s_dwRenderRangeTime = 0;
; 481  : 				static DWORD s_dwRenderRangeFrame = 0;
; 482  : 
; 483  : 				m_dwCurRenderTime = dwRenderEndTime - dwRenderStartTime;			
; 484  : 				s_dwRenderRangeTime += m_dwCurRenderTime;				
; 485  : 				++s_dwRenderRangeFrame;			

  004e1	8b 15 00 00 00
	00		 mov	 edx, DWORD PTR ?s_dwRenderRangeFrame@?CL@??Process@CPythonApplication@@QAE_NXZ@4KA
  004e7	8b cb		 mov	 ecx, ebx
  004e9	2b 4d ec	 sub	 ecx, DWORD PTR _dwRenderStartTime$1$[ebp]

; 486  : 
; 487  : 				if (dwRenderEndTime-s_dwRenderCheckTime>1000)

  004ec	8b c3		 mov	 eax, ebx
  004ee	2b 05 00 00 00
	00		 sub	 eax, DWORD PTR ?s_dwRenderCheckTime@?CL@??Process@CPythonApplication@@QAE_NXZ@4KA
  004f4	42		 inc	 edx
  004f5	89 8e b8 d6 03
	00		 mov	 DWORD PTR [esi+251576], ecx
  004fb	03 0d 00 00 00
	00		 add	 ecx, DWORD PTR ?s_dwRenderRangeTime@?CL@??Process@CPythonApplication@@QAE_NXZ@4KA
  00501	89 0d 00 00 00
	00		 mov	 DWORD PTR ?s_dwRenderRangeTime@?CL@??Process@CPythonApplication@@QAE_NXZ@4KA, ecx
  00507	89 15 00 00 00
	00		 mov	 DWORD PTR ?s_dwRenderRangeFrame@?CL@??Process@CPythonApplication@@QAE_NXZ@4KA, edx
  0050d	3d e8 03 00 00	 cmp	 eax, 1000		; 000003e8H
  00512	76 56		 jbe	 SHORT $LN20@Process

; 488  : 				{
; 489  : 					m_fAveRenderTime=float(double(s_dwRenderRangeTime)/double(s_dwRenderRangeFrame));

  00514	66 0f 6e c9	 movd	 xmm1, ecx
  00518	66 0f 6e c2	 movd	 xmm0, edx
  0051c	f3 0f e6 c9	 cvtdq2pd xmm1, xmm1
  00520	c1 e9 1f	 shr	 ecx, 31			; 0000001fH
  00523	c1 ea 1f	 shr	 edx, 31			; 0000001fH
  00526	f3 0f e6 c0	 cvtdq2pd xmm0, xmm0
  0052a	f2 0f 58 0c cd
	00 00 00 00	 addsd	 xmm1, QWORD PTR __xmm@41f00000000000000000000000000000[ecx*8]
  00533	f2 0f 58 04 d5
	00 00 00 00	 addsd	 xmm0, QWORD PTR __xmm@41f00000000000000000000000000000[edx*8]
  0053c	f2 0f 5e c8	 divsd	 xmm1, xmm0
  00540	66 0f 5a c1	 cvtpd2ps xmm0, xmm1
  00544	f3 0f 11 86 b4
	d6 03 00	 movss	 DWORD PTR [esi+251572], xmm0

; 490  : 
; 491  : 					s_dwRenderCheckTime=ELTimer_GetMSec();

  0054c	e8 00 00 00 00	 call	 ?ELTimer_GetMSec@@YAKXZ	; ELTimer_GetMSec
  00551	a3 00 00 00 00	 mov	 DWORD PTR ?s_dwRenderCheckTime@?CL@??Process@CPythonApplication@@QAE_NXZ@4KA, eax

; 492  : 					s_dwRenderRangeTime=0;

  00556	c7 05 00 00 00
	00 00 00 00 00	 mov	 DWORD PTR ?s_dwRenderRangeTime@?CL@??Process@CPythonApplication@@QAE_NXZ@4KA, 0

; 493  : 					s_dwRenderRangeFrame=0;

  00560	c7 05 00 00 00
	00 00 00 00 00	 mov	 DWORD PTR ?s_dwRenderRangeFrame@?CL@??Process@CPythonApplication@@QAE_NXZ@4KA, 0
$LN20@Process:

; 494  : 				}										
; 495  : 
; 496  : 				DWORD dwCurFaceCount=m_pyGraphic.GetFaceCount();

  0056a	8b cf		 mov	 ecx, edi
  0056c	e8 00 00 00 00	 call	 ?GetFaceCount@CGraphicBase@@QAEKXZ ; CGraphicBase::GetFaceCount

; 497  : 				m_pyGraphic.ResetFaceCount();

  00571	8b cf		 mov	 ecx, edi
  00573	89 45 ec	 mov	 DWORD PTR _dwCurFaceCount$1$[ebp], eax
  00576	e8 00 00 00 00	 call	 ?ResetFaceCount@CGraphicBase@@QAEXXZ ; CGraphicBase::ResetFaceCount

; 498  : 				s_dwFaceCount += dwCurFaceCount;

  0057b	8b 4d ec	 mov	 ecx, DWORD PTR _dwCurFaceCount$1$[ebp]
  0057e	01 0d 00 00 00
	00		 add	 DWORD PTR ?s_dwFaceCount@?1??Process@CPythonApplication@@QAE_NXZ@4KA, ecx

; 499  : 
; 500  : 				if (dwCurFaceCount > 5000)

  00584	81 f9 88 13 00
	00		 cmp	 ecx, 5000		; 00001388H
  0058a	0f 86 c1 01 00
	00		 jbe	 $LN21@Process

; 501  : 				{
; 502  : 					//   
; 503  : 					if (dwRenderEndTime > m_dwBufSleepSkipTime)

  00590	f3 0f 10 1d 00
	00 00 00	 movss	 xmm3, DWORD PTR __real@42c80000
  00598	3b 9e fc d7 03
	00		 cmp	 ebx, DWORD PTR [esi+251900]
  0059e	0f 86 c2 00 00
	00		 jbe	 $LN67@Process

; 504  : 					{	
; 505  : 						static float s_fBufRenderTime = 0.0f;
; 506  : 
; 507  : 						float fCurRenderTime = m_dwCurRenderTime;

  005a4	8b 86 b8 d6 03
	00		 mov	 eax, DWORD PTR [esi+251576]

; 508  : 
; 509  : 						if (fCurRenderTime > s_fBufRenderTime)

  005aa	f3 0f 10 0d 00
	00 00 00	 movss	 xmm1, DWORD PTR ?s_fBufRenderTime@?DE@??Process@CPythonApplication@@QAE_NXZ@4MA
  005b2	66 0f 6e c0	 movd	 xmm0, eax
  005b6	f3 0f e6 c0	 cvtdq2pd xmm0, xmm0
  005ba	c1 e8 1f	 shr	 eax, 31			; 0000001fH
  005bd	f2 0f 58 04 c5
	00 00 00 00	 addsd	 xmm0, QWORD PTR __xmm@41f00000000000000000000000000000[eax*8]
  005c6	66 0f 5a c0	 cvtpd2ps xmm0, xmm0
  005ca	0f 2f c1	 comiss	 xmm0, xmm1
  005cd	f3 0f 11 45 e4	 movss	 DWORD PTR _fCurRenderTime$1$[ebp], xmm0
  005d2	76 5a		 jbe	 SHORT $LN24@Process

; 510  : 						{
; 511  : 							float fRatio = fMAX(0.5f, (fCurRenderTime - s_fBufRenderTime) / 30.0f);

  005d4	f3 0f 5c c1	 subss	 xmm0, xmm1
  005d8	83 ec 08	 sub	 esp, 8
  005db	f3 0f 5e 05 00
	00 00 00	 divss	 xmm0, DWORD PTR __real@41f00000
  005e3	f3 0f 11 44 24
	04		 movss	 DWORD PTR [esp+4], xmm0
  005e9	c7 04 24 00 00
	00 3f		 mov	 DWORD PTR [esp], 1056964608 ; 3f000000H
  005f0	e8 00 00 00 00	 call	 ?fMAX@@YAMMM@Z		; fMAX

; 512  : 							s_fBufRenderTime = (s_fBufRenderTime * (100.0f - fRatio) + (fCurRenderTime + 5) * fRatio) / 100.0f;

  005f5	f3 0f 10 1d 00
	00 00 00	 movss	 xmm3, DWORD PTR __real@42c80000
  005fd	83 c4 08	 add	 esp, 8
  00600	f3 0f 10 55 e4	 movss	 xmm2, DWORD PTR _fCurRenderTime$1$[ebp]
  00605	0f 28 cb	 movaps	 xmm1, xmm3
  00608	f3 0f 58 15 00
	00 00 00	 addss	 xmm2, DWORD PTR __real@40a00000

; 513  : 						}

  00610	8b 4d ec	 mov	 ecx, DWORD PTR _dwCurFaceCount$1$[ebp]
  00613	d9 5d e8	 fstp	 DWORD PTR _fRatio$9[ebp]
  00616	f3 0f 5c 4d e8	 subss	 xmm1, DWORD PTR _fRatio$9[ebp]
  0061b	f3 0f 59 55 e8	 mulss	 xmm2, DWORD PTR _fRatio$9[ebp]
  00620	f3 0f 59 0d 00
	00 00 00	 mulss	 xmm1, DWORD PTR ?s_fBufRenderTime@?DE@??Process@CPythonApplication@@QAE_NXZ@4MA
  00628	f3 0f 58 ca	 addss	 xmm1, xmm2
  0062c	eb 14		 jmp	 SHORT $LN72@Process
$LN24@Process:

; 514  : 						else
; 515  : 						{
; 516  : 							float fRatio = 0.5f;
; 517  : 							s_fBufRenderTime = (s_fBufRenderTime * (100.0f - fRatio) + fCurRenderTime * fRatio) / 100.0f;

  0062e	f3 0f 59 0d 00
	00 00 00	 mulss	 xmm1, DWORD PTR __real@42c70000
  00636	f3 0f 59 05 00
	00 00 00	 mulss	 xmm0, DWORD PTR __real@3f000000
  0063e	f3 0f 58 c8	 addss	 xmm1, xmm0
$LN72@Process:

; 518  : 						}
; 519  : 
; 520  : 						//  
; 521  : 						if (s_fBufRenderTime > 100.0f)

  00642	f3 0f 5e cb	 divss	 xmm1, xmm3
  00646	0f 2f cb	 comiss	 xmm1, xmm3
  00649	f3 0f 11 0d 00
	00 00 00	 movss	 DWORD PTR ?s_fBufRenderTime@?DE@??Process@CPythonApplication@@QAE_NXZ@4MA, xmm1
  00651	76 0b		 jbe	 SHORT $LN26@Process

; 522  : 							s_fBufRenderTime = 100.0f;

  00653	0f 28 cb	 movaps	 xmm1, xmm3
  00656	f3 0f 11 0d 00
	00 00 00	 movss	 DWORD PTR ?s_fBufRenderTime@?DE@??Process@CPythonApplication@@QAE_NXZ@4MA, xmm1
$LN26@Process:

; 523  : 
; 524  : 						DWORD dwBufRenderTime = s_fBufRenderTime;
; 525  : 
; 526  : 						if (m_isWindowed)
; 527  : 						{						
; 528  : 							if (dwBufRenderTime>58)
; 529  : 								dwBufRenderTime=64;
; 530  : 							else if (dwBufRenderTime>42)
; 531  : 								dwBufRenderTime=48;
; 532  : 							else if (dwBufRenderTime>26)
; 533  : 								dwBufRenderTime=32;
; 534  : 							else if (dwBufRenderTime>10)
; 535  : 								dwBufRenderTime=16;
; 536  : 							else
; 537  : 								dwBufRenderTime=8;
; 538  : 						}
; 539  : 
; 540  : 						//      
; 541  : 						//    ??
; 542  : 						//if (m_dwCurRenderTime<dwBufRenderTime)
; 543  : 						//	Sleep(dwBufRenderTime-m_dwCurRenderTime);			
; 544  : 
; 545  : 						m_fAveRenderTime=s_fBufRenderTime;

  0065e	f3 0f 11 8e b4
	d6 03 00	 movss	 DWORD PTR [esi+251572], xmm1
$LN67@Process:

; 546  : 					}
; 547  : 
; 548  : 					m_dwFaceAccCount += dwCurFaceCount;

  00666	01 8e 9c d7 03
	00		 add	 DWORD PTR [esi+251804], ecx

; 549  : 					m_dwFaceAccTime += m_dwCurRenderTime;
; 550  : 
; 551  : 					m_fFaceSpd=(m_dwFaceAccCount/m_dwFaceAccTime);

  0066c	33 d2		 xor	 edx, edx
  0066e	8b 8e b8 d6 03
	00		 mov	 ecx, DWORD PTR [esi+251576]
  00674	01 8e a0 d7 03
	00		 add	 DWORD PTR [esi+251808], ecx
  0067a	8b 86 9c d7 03
	00		 mov	 eax, DWORD PTR [esi+251804]
  00680	f7 b6 a0 d7 03
	00		 div	 DWORD PTR [esi+251808]
  00686	66 0f 6e c0	 movd	 xmm0, eax
  0068a	f3 0f e6 c0	 cvtdq2pd xmm0, xmm0
  0068e	c1 e8 1f	 shr	 eax, 31			; 0000001fH
  00691	f2 0f 58 04 c5
	00 00 00 00	 addsd	 xmm0, QWORD PTR __xmm@41f00000000000000000000000000000[eax*8]

; 552  : 
; 553  : 					//   ?
; 554  : 					if (-1 == m_iForceSightRange)

  0069a	8b 86 00 d8 03
	00		 mov	 eax, DWORD PTR [esi+251904]
  006a0	66 0f 5a c0	 cvtpd2ps xmm0, xmm0
  006a4	f3 0f 11 86 90
	d7 03 00	 movss	 DWORD PTR [esi+251792], xmm0
  006ac	83 f8 ff	 cmp	 eax, -1
  006af	0f 85 93 00 00
	00		 jne	 $LN36@Process

; 555  : 					{
; 556  : 						static float s_fAveRenderTime = 16.0f;
; 557  : 						float fRatio=0.3f;
; 558  : 						s_fAveRenderTime=(s_fAveRenderTime*(100.0f-fRatio)+max(16.0f, m_dwCurRenderTime)*fRatio)/100.0f;

  006b5	f3 0f 10 15 00
	00 00 00	 movss	 xmm2, DWORD PTR __real@41800000
  006bd	0f 57 c0	 xorps	 xmm0, xmm0
  006c0	f2 0f 2a c1	 cvtsi2sd xmm0, ecx
  006c4	c1 e9 1f	 shr	 ecx, 31			; 0000001fH

; 559  : 
; 560  : 
; 561  : 						float fFar=25600.0f;
; 562  : 						float fNear=MIN_FOG;

  006c7	f3 0f 10 0d 00
	00 00 00	 movss	 xmm1, DWORD PTR ?MIN_FOG@@3MA
  006cf	f2 0f 58 04 cd
	00 00 00 00	 addsd	 xmm0, QWORD PTR __xmm@41f00000000000000000000000000000[ecx*8]
  006d8	66 0f 5a c0	 cvtpd2ps xmm0, xmm0
  006dc	f3 0f 5f d0	 maxss	 xmm2, xmm0
  006e0	f3 0f 10 05 00
	00 00 00	 movss	 xmm0, DWORD PTR ?s_fAveRenderTime@?EN@??Process@CPythonApplication@@QAE_NXZ@4MA
  006e8	f3 0f 59 05 00
	00 00 00	 mulss	 xmm0, DWORD PTR __real@42c76666
  006f0	f3 0f 59 15 00
	00 00 00	 mulss	 xmm2, DWORD PTR __real@3e99999a
  006f8	f3 0f 58 d0	 addss	 xmm2, xmm0
  006fc	f3 0f 10 05 00
	00 00 00	 movss	 xmm0, DWORD PTR __real@447a0000
  00704	f3 0f 5e d3	 divss	 xmm2, xmm3

; 563  : 						double dbAvePow=double(1000.0f/s_fAveRenderTime);
; 564  : 						double dbMaxPow=60.0;
; 565  : 						float fDistance=max(fNear+(fFar-fNear)*(dbAvePow)/dbMaxPow, fNear);

  00708	0f 5a d9	 cvtps2pd xmm3, xmm1
  0070b	f3 0f 5e c2	 divss	 xmm0, xmm2
  0070f	f3 0f 11 15 00
	00 00 00	 movss	 DWORD PTR ?s_fAveRenderTime@?EN@??Process@CPythonApplication@@QAE_NXZ@4MA, xmm2
  00717	0f 5a d0	 cvtps2pd xmm2, xmm0
  0071a	f3 0f 10 05 00
	00 00 00	 movss	 xmm0, DWORD PTR __real@46c80000
  00722	f3 0f 5c c1	 subss	 xmm0, xmm1
  00726	0f 5a c0	 cvtps2pd xmm0, xmm0
  00729	f2 0f 59 d0	 mulsd	 xmm2, xmm0
  0072d	f2 0f 5e 15 00
	00 00 00	 divsd	 xmm2, QWORD PTR __real@404e000000000000
  00735	f2 0f 58 d3	 addsd	 xmm2, xmm3
  00739	66 0f 2f d3	 comisd	 xmm2, xmm3
  0073d	77 03		 ja	 SHORT $LN43@Process
  0073f	0f 28 d3	 movaps	 xmm2, xmm3
$LN43@Process:
  00742	66 0f 5a d2	 cvtpd2ps xmm2, xmm2

; 566  : 						m_pyBackground.SetViewDistanceSet(0, fDistance);
; 567  : 					}

  00746	eb 11		 jmp	 SHORT $LN37@Process
$LN36@Process:
  00748	66 0f 6e d0	 movd	 xmm2, eax

; 568  : 					//   
; 569  : 					else
; 570  : 					{
; 571  : 						m_pyBackground.SetViewDistanceSet(0, float(m_iForceSightRange));

  0074c	0f 5b d2	 cvtdq2ps xmm2, xmm2

; 572  : 					}
; 573  : 				}

  0074f	eb 08		 jmp	 SHORT $LN37@Process
$LN21@Process:

; 574  : 				else
; 575  : 				{
; 576  : 					// 10000       
; 577  : 					m_pyBackground.SetViewDistanceSet(0, 25600.0f);

  00751	f3 0f 10 15 00
	00 00 00	 movss	 xmm2, DWORD PTR __real@46c80000
$LN37@Process:

; 578  : 				}
; 579  : 
; 580  : 				++s_dwRenderFrameCount;

  00759	b8 b8 8d 03 00	 mov	 eax, 232888		; 00038db8H
  0075e	6a 00		 push	 0
  00760	8d 0c 06	 lea	 ecx, DWORD PTR [esi+eax]
  00763	e8 00 00 00 00	 call	 ?SetViewDistanceSet@CPythonBackground@@QAEXHM@Z ; CPythonBackground::SetViewDistanceSet
  00768	ff 05 00 00 00
	00		 inc	 DWORD PTR ?s_dwRenderFrameCount@?1??Process@CPythonApplication@@QAE_NXZ@4KA
$LN70@Process:

; 581  : 			}
; 582  : 		}
; 583  : 	}
; 584  : 
; 585  : 	int rest = s_uiNextFrameTime - ELTimer_GetMSec();

  0076e	8b 5d f0	 mov	 ebx, DWORD PTR $T10[ebp]
$LN19@Process:
  00771	e8 00 00 00 00	 call	 ?ELTimer_GetMSec@@YAKXZ	; ELTimer_GetMSec
  00776	8b 0d 00 00 00
	00		 mov	 ecx, DWORD PTR ?s_uiNextFrameTime@?1??Process@CPythonApplication@@QAE_NXZ@4IA
  0077c	2b c8		 sub	 ecx, eax

; 586  : 
; 587  : 	if (rest > 0 && !bCurrentLateUpdate )

  0077e	85 c9		 test	 ecx, ecx
  00780	7e 11		 jle	 SHORT $LN38@Process
  00782	85 db		 test	 ebx, ebx
  00784	75 0d		 jne	 SHORT $LN38@Process

; 588  : 	{
; 589  : 		s_uiLoad -= rest;	//    ..

  00786	29 0d 00 00 00
	00		 sub	 DWORD PTR ?s_uiLoad@?1??Process@CPythonApplication@@QAE_NXZ@4IA, ecx

; 590  : 		Sleep(rest);

  0078c	51		 push	 ecx
  0078d	ff 15 00 00 00
	00		 call	 DWORD PTR __imp__Sleep@4
$LN38@Process:

; 591  : 	}	
; 592  : 
; 593  : 	++s_dwUpdateFrameCount;

  00793	ff 05 00 00 00
	00		 inc	 DWORD PTR ?s_dwUpdateFrameCount@?1??Process@CPythonApplication@@QAE_NXZ@4KA

; 594  : 
; 595  : 	s_uiLoad += ELTimer_GetMSec() - dwStart;

  00799	e8 00 00 00 00	 call	 ?ELTimer_GetMSec@@YAKXZ	; ELTimer_GetMSec
  0079e	2b 45 e0	 sub	 eax, DWORD PTR _dwStart$1$[ebp]
  007a1	01 05 00 00 00
	00		 add	 DWORD PTR ?s_uiLoad@?1??Process@CPythonApplication@@QAE_NXZ@4IA, eax

; 596  : 	//m_Profiler.ProfileByScreen();	
; 597  : 	return true;

  007a7	b0 01		 mov	 al, 1

; 598  : }

  007a9	8b 4d f4	 mov	 ecx, DWORD PTR __$EHRec$[ebp]
  007ac	64 89 0d 00 00
	00 00		 mov	 DWORD PTR fs:0, ecx
  007b3	59		 pop	 ecx
  007b4	5f		 pop	 edi
  007b5	5e		 pop	 esi
  007b6	5b		 pop	 ebx
  007b7	8b e5		 mov	 esp, ebp
  007b9	5d		 pop	 ebp
  007ba	c3		 ret	 0
_TEXT	ENDS
;	COMDAT text$x
text$x	SEGMENT
__unwindfunclet$?Process@CPythonApplication@@QAE_NXZ$0:
  00000	68 00 00 00 00	 push	 OFFSET ?$TSS0@?1??Process@CPythonApplication@@QAE_NXZ@4HA
  00005	e8 00 00 00 00	 call	 __Init_thread_abort
  0000a	59		 pop	 ecx
  0000b	c3		 ret	 0
__unwindfunclet$?Process@CPythonApplication@@QAE_NXZ$1:
  0000c	68 00 00 00 00	 push	 OFFSET ?$TSS1@?1??Process@CPythonApplication@@QAE_NXZ@4HA
  00011	e8 00 00 00 00	 call	 __Init_thread_abort
  00016	59		 pop	 ecx
  00017	c3		 ret	 0
  00018	cc		 int	 3
  00019	cc		 int	 3
  0001a	cc		 int	 3
  0001b	cc		 int	 3
  0001c	cc		 int	 3
__ehhandler$?Process@CPythonApplication@@QAE_NXZ:
  0001d	90		 npad	 1
  0001e	90		 npad	 1
  0001f	8b 54 24 08	 mov	 edx, DWORD PTR [esp+8]
  00023	8d 42 0c	 lea	 eax, DWORD PTR [edx+12]
  00026	8b 4a d4	 mov	 ecx, DWORD PTR [edx-44]
  00029	33 c8		 xor	 ecx, eax
  0002b	e8 00 00 00 00	 call	 @__security_check_cookie@4
  00030	b8 00 00 00 00	 mov	 eax, OFFSET __ehfuncinfo$?Process@CPythonApplication@@QAE_NXZ
  00035	e9 00 00 00 00	 jmp	 ___CxxFrameHandler3
text$x	ENDS
?Process@CPythonApplication@@QAE_NXZ ENDP		; CPythonApplication::Process
; Function compile flags: /Ogtp
; File C:\Anka2Project\Anka2Project\Source\Binary\source\UserInterface\PythonApplication.cpp
; File C:\Anka2Project\Anka2Project\Source\Binary\source\eterBase\Singleton.h
; File C:\Anka2Project\Anka2Project\Source\Binary\source\eterBase\Timer.h
; File C:\Anka2Project\Anka2Project\Source\Binary\source\UserInterface\PythonApplication.cpp
; File C:\Anka2Project\Anka2Project\Source\Binary\source\eterBase\Timer.h
; File C:\Anka2Project\Anka2Project\Source\Binary\source\UserInterface\PythonApplication.cpp
; File C:\Anka2Project\Anka2Project\Source\Binary\source\eterBase\Timer.h
; File C:\Anka2Project\Anka2Project\Source\Binary\source\UserInterface\PythonApplication.cpp
; File C:\Anka2Project\Anka2Project\Source\Binary\source\eterBase\Timer.h
; File C:\Anka2Project\Anka2Project\Source\Binary\source\UserInterface\PythonApplication.cpp
;	COMDAT ?CreateDevice@CPythonApplication@@QAE_NHHHHH@Z
_TEXT	SEGMENT
_$S13$ = -12						; size = 8
_width$ = 8						; size = 4
_height$ = 12						; size = 4
_Windowed$ = 16						; size = 4
_bit$ = 20						; size = 4
_frequency$ = 24					; size = 4
?CreateDevice@CPythonApplication@@QAE_NHHHHH@Z PROC	; CPythonApplication::CreateDevice, COMDAT
; _this$ = ecx

; 689  : {

  00000	55		 push	 ebp
  00001	8b ec		 mov	 ebp, esp
  00003	83 ec 10	 sub	 esp, 16			; 00000010H
  00006	53		 push	 ebx
  00007	56		 push	 esi
  00008	57		 push	 edi
  00009	8b f9		 mov	 edi, ecx

; 690  : 	int iRet;
; 691  : 
; 692  : 	m_grpDevice.InitBackBufferCount(2);

  0000b	6a 02		 push	 2
  0000d	8d 8f b4 aa 03
	00		 lea	 ecx, DWORD PTR [edi+240308]
  00013	e8 00 00 00 00	 call	 ?InitBackBufferCount@CGraphicDevice@@QAEXI@Z ; CGraphicDevice::InitBackBufferCount

; 693  : 
; 694  : #ifdef ENABLE_MORE_FPS
; 695  : 	g_fGameFPS = static_cast<float>(frequency);

  00018	8b 75 18	 mov	 esi, DWORD PTR _frequency$[ebp]

; 696  : 
; 697  : 	const auto diff = 0.42f;
; 698  : 	g_specularSpd = (diff / frequency);
; 699  : 
; 700  : 	auto [first, sec] = GetTimer(frequency);

  0001b	8d 4d f4	 lea	 ecx, DWORD PTR _$S13$[ebp]
  0001e	f3 0f 10 05 00
	00 00 00	 movss	 xmm0, DWORD PTR __real@3ed70a3d
  00026	8b d6		 mov	 edx, esi
  00028	66 0f 6e ce	 movd	 xmm1, esi
  0002c	0f 5b c9	 cvtdq2ps xmm1, xmm1
  0002f	f3 0f 5e c1	 divss	 xmm0, xmm1
  00033	f3 0f 11 0d 00
	00 00 00	 movss	 DWORD PTR ?g_fGameFPS@@3MA, xmm1
  0003b	0f 5a c0	 cvtps2pd xmm0, xmm0
  0003e	f2 0f 11 05 00
	00 00 00	 movsd	 QWORD PTR ?g_specularSpd@@3NA, xmm0
  00046	e8 00 00 00 00	 call	 ?GetTimer@@YA?AV?$tuple@HH@std@@H@Z ; GetTimer
; File C:\Anka2Project\Anka2Project\Source\Binary\source\eterBase\Singleton.h

; 26   : 		assert(ms_singleton);

  0004b	8b 0d 00 00 00
	00		 mov	 ecx, DWORD PTR ?ms_singleton@?$CSingleton@VCTimer@@@@0PAVCTimer@@A ; CSingleton<CTimer>::ms_singleton
  00051	85 c9		 test	 ecx, ecx
  00053	75 1a		 jne	 SHORT $LN23@CreateDevi
  00055	6a 1a		 push	 26			; 0000001aH
  00057	68 00 00 00 00	 push	 OFFSET ??_C@_1IO@CAJLEEOI@?$AAC?$AA?3?$AA?2?$AAA?$AAn?$AAk?$AAa?$AA2?$AAP?$AAr?$AAo?$AAj?$AAe?$AAc?$AAt@
  0005c	68 00 00 00 00	 push	 OFFSET ??_C@_1BK@FMEHPMFE@?$AAm?$AAs?$AA_?$AAs?$AAi?$AAn?$AAg?$AAl?$AAe?$AAt?$AAo?$AAn@
  00061	e8 00 00 00 00	 call	 __wassert
  00066	8b 0d 00 00 00
	00		 mov	 ecx, DWORD PTR ?ms_singleton@?$CSingleton@VCTimer@@@@0PAVCTimer@@A ; CSingleton<CTimer>::ms_singleton
  0006c	83 c4 0c	 add	 esp, 12			; 0000000cH
$LN23@CreateDevi:
; File C:\Anka2Project\Anka2Project\Source\Binary\source\eterBase\Timer.h

; 34   : 	void SetUpdateTime(uint32_t frequency, uint8_t first, uint8_t sec) { m_freq = frequency; m_firstArg = first; m_SecondArg = sec; }

  0006f	0f b6 45 f8	 movzx	 eax, BYTE PTR _$S13$[ebp+4]
; File C:\Anka2Project\Anka2Project\Source\Binary\source\UserInterface\PythonApplication.cpp

; 705  : 	iRet = m_grpDevice.Create(GetWindowHandle(), width, height, Windowed ? true : false, bit,frequency);

  00073	83 7d 10 00	 cmp	 DWORD PTR _Windowed$[ebp], 0
; File C:\Anka2Project\Anka2Project\Source\Binary\source\eterBase\Timer.h

; 34   : 	void SetUpdateTime(uint32_t frequency, uint8_t first, uint8_t sec) { m_freq = frequency; m_firstArg = first; m_SecondArg = sec; }

  00077	88 41 1c	 mov	 BYTE PTR [ecx+28], al
  0007a	0f b6 45 f4	 movzx	 eax, BYTE PTR _$S13$[ebp]
; File C:\Anka2Project\Anka2Project\Source\Binary\source\UserInterface\PythonApplication.cpp

; 705  : 	iRet = m_grpDevice.Create(GetWindowHandle(), width, height, Windowed ? true : false, bit,frequency);

  0007e	56		 push	 esi
  0007f	ff 75 14	 push	 DWORD PTR _bit$[ebp]
; File C:\Anka2Project\Anka2Project\Source\Binary\source\eterBase\Timer.h

; 34   : 	void SetUpdateTime(uint32_t frequency, uint8_t first, uint8_t sec) { m_freq = frequency; m_firstArg = first; m_SecondArg = sec; }

  00082	88 41 1d	 mov	 BYTE PTR [ecx+29], al
; File C:\Anka2Project\Anka2Project\Source\Binary\source\UserInterface\PythonApplication.cpp

; 705  : 	iRet = m_grpDevice.Create(GetWindowHandle(), width, height, Windowed ? true : false, bit,frequency);

  00085	0f 95 c0	 setne	 al
  00088	0f b6 c0	 movzx	 eax, al
  0008b	50		 push	 eax
  0008c	ff 75 0c	 push	 DWORD PTR _height$[ebp]
; File C:\Anka2Project\Anka2Project\Source\Binary\source\eterBase\Timer.h

; 34   : 	void SetUpdateTime(uint32_t frequency, uint8_t first, uint8_t sec) { m_freq = frequency; m_firstArg = first; m_SecondArg = sec; }

  0008f	89 71 20	 mov	 DWORD PTR [ecx+32], esi
; File C:\Anka2Project\Anka2Project\Source\Binary\source\UserInterface\PythonApplication.cpp

; 705  : 	iRet = m_grpDevice.Create(GetWindowHandle(), width, height, Windowed ? true : false, bit,frequency);

  00092	8b cf		 mov	 ecx, edi
  00094	ff 75 08	 push	 DWORD PTR _width$[ebp]
  00097	e8 00 00 00 00	 call	 ?GetWindowHandle@CMSWindow@@QAEPAUHWND__@@XZ ; CMSWindow::GetWindowHandle
  0009c	50		 push	 eax
  0009d	8d 8f b4 aa 03
	00		 lea	 ecx, DWORD PTR [edi+240308]
  000a3	e8 00 00 00 00	 call	 ?Create@CGraphicDevice@@QAEHPAUHWND__@@HH_NHH@Z ; CGraphicDevice::Create

; 706  : 
; 707  : 	switch (iRet)

  000a8	83 f8 10	 cmp	 eax, 16			; 00000010H
  000ab	0f 8f c1 00 00
	00		 jg	 $LN17@CreateDevi
  000b1	0f 84 91 00 00
	00		 je	 $LN9@CreateDevi
  000b7	8d 48 ff	 lea	 ecx, DWORD PTR [eax-1]
  000ba	83 f9 07	 cmp	 ecx, 7
  000bd	0f 87 f3 00 00
	00		 ja	 $LN13@CreateDevi
  000c3	ff 24 8d 00 00
	00 00		 jmp	 DWORD PTR $LN26@CreateDevi[ecx*4]
$LN8@CreateDevi:

; 719  : 		return false;
; 720  : 
; 721  : 	case CGraphicDevice::CREATE_NO_DIRECTX:
; 722  : 		//PyErr_SetString(PyExc_RuntimeError, "DirectX 8.1 or greater required to run game");
; 723  : 		SET_EXCEPTION(CREATE_NO_DIRECTX);

  000ca	a1 00 00 00 00	 mov	 eax, DWORD PTR __imp__PyExc_RuntimeError
  000cf	68 00 00 00 00	 push	 OFFSET ??_C@_0BC@NKAKBNDM@CREATE_NO_DIRECTX@
  000d4	ff 30		 push	 DWORD PTR [eax]
  000d6	ff 15 00 00 00
	00		 call	 DWORD PTR __imp__PyErr_SetString

; 724  : 		TraceError("CreateDevice: DirectX 8.1 or greater required to run game");

  000dc	68 00 00 00 00	 push	 OFFSET ??_C@_0DK@GACPAJMM@CreateDevice?3?5DirectX?58?41?5or?5gr@

; 766  : 		return false;
; 767  : 	}
; 768  : }

  000e1	e8 00 00 00 00	 call	 ?TraceError@@YAXPBDZZ	; TraceError
  000e6	83 c4 0c	 add	 esp, 12			; 0000000cH
  000e9	32 c0		 xor	 al, al
  000eb	5f		 pop	 edi
  000ec	5e		 pop	 esi
  000ed	5b		 pop	 ebx
  000ee	8b e5		 mov	 esp, ebp
  000f0	5d		 pop	 ebp
  000f1	c2 14 00	 ret	 20			; 00000014H
$LN11@CreateDevi:

; 736  : 		return false;
; 737  : 
; 738  : 		/*case CGraphicDevice::CREATE_GET_ADAPTER_DISPLAY_MODE:
; 739  : 		//PyErr_SetString(PyExc_RuntimeError, "GetAdapterDisplayMode failed");
; 740  : 		SET_EXCEPTION(CREATE_GET_ADAPTER_DISPLAY_MODE);
; 741  : 		TraceError("CreateDevice: GetAdapterDisplayMode failed");
; 742  : 		return false;*/
; 743  : 
; 744  : 	case CGraphicDevice::CREATE_GET_DEVICE_CAPS:
; 745  : 		PyErr_SetString(PyExc_RuntimeError, "GetDevCaps failed");

  000f4	a1 00 00 00 00	 mov	 eax, DWORD PTR __imp__PyExc_RuntimeError
  000f9	68 00 00 00 00	 push	 OFFSET ??_C@_0BC@IMJEDJEA@GetDevCaps?5failed@
  000fe	ff 30		 push	 DWORD PTR [eax]
  00100	ff 15 00 00 00
	00		 call	 DWORD PTR __imp__PyErr_SetString

; 746  : 		TraceError("CreateDevice: GetDevCaps failed");

  00106	68 00 00 00 00	 push	 OFFSET ??_C@_0CA@DLHDILBB@CreateDevice?3?5GetDevCaps?5failed@

; 766  : 		return false;
; 767  : 	}
; 768  : }

  0010b	e8 00 00 00 00	 call	 ?TraceError@@YAXPBDZZ	; TraceError
  00110	83 c4 0c	 add	 esp, 12			; 0000000cH
  00113	32 c0		 xor	 al, al
  00115	5f		 pop	 edi
  00116	5e		 pop	 esi
  00117	5b		 pop	 ebx
  00118	8b e5		 mov	 esp, ebp
  0011a	5d		 pop	 ebp
  0011b	c2 14 00	 ret	 20			; 00000014H
$LN12@CreateDevi:

; 747  : 		return false;
; 748  : 
; 749  : 	case CGraphicDevice::CREATE_GET_DEVICE_CAPS2:
; 750  : 		PyErr_SetString(PyExc_RuntimeError, "GetDevCaps2 failed");

  0011e	a1 00 00 00 00	 mov	 eax, DWORD PTR __imp__PyExc_RuntimeError
  00123	68 00 00 00 00	 push	 OFFSET ??_C@_0BD@IHNLMMLJ@GetDevCaps2?5failed@
  00128	ff 30		 push	 DWORD PTR [eax]
  0012a	ff 15 00 00 00
	00		 call	 DWORD PTR __imp__PyErr_SetString

; 751  : 		TraceError("CreateDevice: GetDevCaps2 failed");

  00130	68 00 00 00 00	 push	 OFFSET ??_C@_0CB@JLAAEKGJ@CreateDevice?3?5GetDevCaps2?5faile@

; 766  : 		return false;
; 767  : 	}
; 768  : }

  00135	e8 00 00 00 00	 call	 ?TraceError@@YAXPBDZZ	; TraceError
  0013a	83 c4 0c	 add	 esp, 12			; 0000000cH
  0013d	32 c0		 xor	 al, al
  0013f	5f		 pop	 edi
  00140	5e		 pop	 esi
  00141	5b		 pop	 ebx
  00142	8b e5		 mov	 esp, ebp
  00144	5d		 pop	 ebp
  00145	c2 14 00	 ret	 20			; 00000014H
$LN9@CreateDevi:

; 725  : 		return false;
; 726  : 
; 727  : 	case CGraphicDevice::CREATE_DEVICE:
; 728  : 		//PyErr_SetString(PyExc_RuntimeError, "GraphicDevice create failed");
; 729  : 		SET_EXCEPTION(CREATE_DEVICE);

  00148	a1 00 00 00 00	 mov	 eax, DWORD PTR __imp__PyExc_RuntimeError
  0014d	68 00 00 00 00	 push	 OFFSET ??_C@_0O@CMPMDOEH@CREATE_DEVICE@
  00152	ff 30		 push	 DWORD PTR [eax]
  00154	ff 15 00 00 00
	00		 call	 DWORD PTR __imp__PyErr_SetString

; 730  : 		TraceError("CreateDevice: GraphicDevice create failed");

  0015a	68 00 00 00 00	 push	 OFFSET ??_C@_0CK@KMPBIDGP@CreateDevice?3?5GraphicDevice?5cre@

; 766  : 		return false;
; 767  : 	}
; 768  : }

  0015f	e8 00 00 00 00	 call	 ?TraceError@@YAXPBDZZ	; TraceError
  00164	83 c4 0c	 add	 esp, 12			; 0000000cH
  00167	32 c0		 xor	 al, al
  00169	5f		 pop	 edi
  0016a	5e		 pop	 esi
  0016b	5b		 pop	 ebx
  0016c	8b e5		 mov	 esp, ebp
  0016e	5d		 pop	 ebp
  0016f	c2 14 00	 ret	 20			; 00000014H
$LN17@CreateDevi:

; 706  : 
; 707  : 	switch (iRet)

  00172	3d 80 00 00 00	 cmp	 eax, 128		; 00000080H
  00177	7f 36		 jg	 SHORT $LN18@CreateDevi
  00179	74 0a		 je	 SHORT $LN6@CreateDevi
  0017b	83 f8 20	 cmp	 eax, 32			; 00000020H
  0017e	74 4b		 je	 SHORT $LN15@CreateDevi
  00180	83 f8 40	 cmp	 eax, 64			; 00000040H
  00183	75 31		 jne	 SHORT $LN13@CreateDevi
$LN6@CreateDevi:

; 708  : 	{
; 709  : 	case CGraphicDevice::CREATE_OK:
; 710  : 		return true;
; 711  : 
; 712  : 	case CGraphicDevice::CREATE_REFRESHRATE:
; 713  : 		return true;
; 714  : 
; 715  : 	case CGraphicDevice::CREATE_ENUM:
; 716  : 	case CGraphicDevice::CREATE_DETECT:
; 717  : 		SET_EXCEPTION(CREATE_NO_APPROPRIATE_DEVICE);

  00185	a1 00 00 00 00	 mov	 eax, DWORD PTR __imp__PyExc_RuntimeError
  0018a	68 00 00 00 00	 push	 OFFSET ??_C@_0BN@OAKBEJJN@CREATE_NO_APPROPRIATE_DEVICE@
  0018f	ff 30		 push	 DWORD PTR [eax]
  00191	ff 15 00 00 00
	00		 call	 DWORD PTR __imp__PyErr_SetString

; 718  : 		TraceError("CreateDevice: Enum & Detect failed");

  00197	68 00 00 00 00	 push	 OFFSET ??_C@_0CD@GGLEAAKE@CreateDevice?3?5Enum?5?$CG?5Detect?5fai@

; 766  : 		return false;
; 767  : 	}
; 768  : }

  0019c	e8 00 00 00 00	 call	 ?TraceError@@YAXPBDZZ	; TraceError
  001a1	83 c4 0c	 add	 esp, 12			; 0000000cH
  001a4	32 c0		 xor	 al, al
  001a6	5f		 pop	 edi
  001a7	5e		 pop	 esi
  001a8	5b		 pop	 ebx
  001a9	8b e5		 mov	 esp, ebp
  001ab	5d		 pop	 ebp
  001ac	c2 14 00	 ret	 20			; 00000014H
$LN18@CreateDevi:

; 706  : 
; 707  : 	switch (iRet)

  001af	3d 00 04 00 00	 cmp	 eax, 1024		; 00000400H
  001b4	74 4a		 je	 SHORT $LN10@CreateDevi
$LN13@CreateDevi:

; 752  : 		return false;
; 753  : 
; 754  : 	default:
; 755  : 		if (iRet & CGraphicDevice::CREATE_OK)

  001b6	a8 01		 test	 al, 1
  001b8	74 1c		 je	 SHORT $LN14@CreateDevi

; 756  : 		{
; 757  : 			if (iRet & CGraphicDevice::CREATE_NO_TNL)

  001ba	a9 00 01 00 00	 test	 eax, 256		; 00000100H
  001bf	74 0a		 je	 SHORT $LN15@CreateDevi

; 758  : 			{
; 759  : 				CGrannyLODController::SetMinLODMode(true);

  001c1	6a 01		 push	 1
  001c3	e8 00 00 00 00	 call	 ?SetMinLODMode@CGrannyLODController@@SAX_N@Z ; CGrannyLODController::SetMinLODMode
  001c8	83 c4 04	 add	 esp, 4
$LN15@CreateDevi:

; 760  : 			}
; 761  : 			return true;

  001cb	b0 01		 mov	 al, 1

; 766  : 		return false;
; 767  : 	}
; 768  : }

  001cd	5f		 pop	 edi
  001ce	5e		 pop	 esi
  001cf	5b		 pop	 ebx
  001d0	8b e5		 mov	 esp, ebp
  001d2	5d		 pop	 ebp
  001d3	c2 14 00	 ret	 20			; 00000014H
$LN14@CreateDevi:

; 762  : 		}
; 763  : 
; 764  : 		SET_EXCEPTION(UNKNOWN_ERROR);

  001d6	a1 00 00 00 00	 mov	 eax, DWORD PTR __imp__PyExc_RuntimeError
  001db	68 00 00 00 00	 push	 OFFSET ??_C@_0O@BAEJJDKB@UNKNOWN_ERROR@
  001e0	ff 30		 push	 DWORD PTR [eax]
  001e2	ff 15 00 00 00
	00		 call	 DWORD PTR __imp__PyErr_SetString

; 765  : 		TraceError("CreateDevice: Unknown Error!");

  001e8	68 00 00 00 00	 push	 OFFSET ??_C@_0BN@JAHEKIGK@CreateDevice?3?5Unknown?5Error?$CB@

; 766  : 		return false;
; 767  : 	}
; 768  : }

  001ed	e8 00 00 00 00	 call	 ?TraceError@@YAXPBDZZ	; TraceError
  001f2	83 c4 0c	 add	 esp, 12			; 0000000cH
  001f5	32 c0		 xor	 al, al
  001f7	5f		 pop	 edi
  001f8	5e		 pop	 esi
  001f9	5b		 pop	 ebx
  001fa	8b e5		 mov	 esp, ebp
  001fc	5d		 pop	 ebp
  001fd	c2 14 00	 ret	 20			; 00000014H
$LN10@CreateDevi:

; 731  : 		return false;
; 732  : 
; 733  : 	case CGraphicDevice::CREATE_FORMAT:
; 734  : 		SET_EXCEPTION(CREATE_FORMAT);

  00200	a1 00 00 00 00	 mov	 eax, DWORD PTR __imp__PyExc_RuntimeError
  00205	68 00 00 00 00	 push	 OFFSET ??_C@_0O@DAEHMKOB@CREATE_FORMAT@
  0020a	ff 30		 push	 DWORD PTR [eax]
  0020c	ff 15 00 00 00
	00		 call	 DWORD PTR __imp__PyErr_SetString

; 735  : 		TraceError("CreateDevice: Change the screen format");

  00212	68 00 00 00 00	 push	 OFFSET ??_C@_0CH@DEBFNBPL@CreateDevice?3?5Change?5the?5screen@

; 766  : 		return false;
; 767  : 	}
; 768  : }

  00217	e8 00 00 00 00	 call	 ?TraceError@@YAXPBDZZ	; TraceError
  0021c	83 c4 0c	 add	 esp, 12			; 0000000cH
  0021f	32 c0		 xor	 al, al
  00221	5f		 pop	 edi
  00222	5e		 pop	 esi
  00223	5b		 pop	 ebx
  00224	8b e5		 mov	 esp, ebp
  00226	5d		 pop	 ebp
  00227	c2 14 00	 ret	 20			; 00000014H
  0022a	66 90		 npad	 2
$LN26@CreateDevi:
  0022c	00 00 00 00	 DD	 $LN15@CreateDevi
  00230	00 00 00 00	 DD	 $LN8@CreateDevi
  00234	00 00 00 00	 DD	 $LN13@CreateDevi
  00238	00 00 00 00	 DD	 $LN11@CreateDevi
  0023c	00 00 00 00	 DD	 $LN13@CreateDevi
  00240	00 00 00 00	 DD	 $LN13@CreateDevi
  00244	00 00 00 00	 DD	 $LN13@CreateDevi
  00248	00 00 00 00	 DD	 $LN12@CreateDevi
?CreateDevice@CPythonApplication@@QAE_NHHHHH@Z ENDP	; CPythonApplication::CreateDevice
_TEXT	ENDS
; Function compile flags: /Ogtp
; File C:\Anka2Project\Anka2Project\Source\Binary\source\UserInterface\PythonApplication.cpp
; File C:\Anka2Project\Anka2Project\Source\Binary\source\eterBase\Singleton.h
; File C:\Anka2Project\Anka2Project\Source\Binary\source\UserInterface\PythonApplication.cpp
; File C:\Anka2Project\Anka2Project\Source\Binary\source\eterBase\Singleton.h
; File C:\Anka2Project\Anka2Project\Source\Binary\source\UserInterface\PythonApplication.cpp
; File C:\Anka2Project\Anka2Project\Source\Binary\source\eterBase\Singleton.h
; File C:\Anka2Project\Anka2Project\Source\Binary\source\UserInterface\PythonApplication.cpp
; File C:\Anka2Project\Anka2Project\Source\Binary\source\eterBase\Singleton.h
; File C:\Anka2Project\Anka2Project\Source\Binary\source\UserInterface\PythonApplication.cpp
; File C:\Anka2Project\Anka2Project\Source\Binary\source\eterBase\Singleton.h
; File C:\Anka2Project\Anka2Project\Source\Binary\source\UserInterface\PythonApplication.cpp
;	COMDAT ?Create@CPythonApplication@@QAE_NPAU_object@@PBDHHH@Z
_TEXT	SEGMENT
_sStickKeys$ = -36					; size = 8
_Windowed$1$ = -28					; size = 4
_this$1$ = -24						; size = 4
_rc$6 = -20						; size = 16
__$ArrayPad$ = -4					; size = 4
_poSelf$ = 8						; size = 4
_c_szName$ = 12						; size = 4
_width$ = 16						; size = 4
_height$ = 20						; size = 4
_Windowed$ = 24						; size = 4
?Create@CPythonApplication@@QAE_NPAU_object@@PBDHHH@Z PROC ; CPythonApplication::Create, COMDAT
; _this$ = ecx

; 1040 : {

  00000	55		 push	 ebp
  00001	8b ec		 mov	 ebp, esp
  00003	83 ec 24	 sub	 esp, 36			; 00000024H
  00006	a1 00 00 00 00	 mov	 eax, DWORD PTR ___security_cookie
  0000b	33 c5		 xor	 eax, ebp
  0000d	89 45 fc	 mov	 DWORD PTR __$ArrayPad$[ebp], eax
  00010	53		 push	 ebx
  00011	56		 push	 esi
  00012	57		 push	 edi
  00013	89 4d e8	 mov	 DWORD PTR _this$1$[ebp], ecx

; 1041 : 	NANOBEGIN

  00016	eb		 DB	 -21			; ffffffebH
  00017	03		 DB	 3
  00018	d6		 DB	 -42			; ffffffd6H
  00019	d7		 DB	 -41			; ffffffd7H
  0001a	01		 DB	 1
; File C:\Anka2Project\Anka2Project\Source\Binary\source\eterBase\Singleton.h

; 26   : 		assert(ms_singleton);

  0001b	8b 0d 00 00 00
	00		 mov	 ecx, DWORD PTR ?ms_singleton@?$CSingleton@VCPythonSystem@@@@0PAVCPythonSystem@@A ; CSingleton<CPythonSystem>::ms_singleton
  00021	85 c9		 test	 ecx, ecx
  00023	75 1a		 jne	 SHORT $LN21@Create
  00025	6a 1a		 push	 26			; 0000001aH
  00027	68 00 00 00 00	 push	 OFFSET ??_C@_1IO@CAJLEEOI@?$AAC?$AA?3?$AA?2?$AAA?$AAn?$AAk?$AAa?$AA2?$AAP?$AAr?$AAo?$AAj?$AAe?$AAc?$AAt@
  0002c	68 00 00 00 00	 push	 OFFSET ??_C@_1BK@FMEHPMFE@?$AAm?$AAs?$AA_?$AAs?$AAi?$AAn?$AAg?$AAl?$AAe?$AAt?$AAo?$AAn@
  00031	e8 00 00 00 00	 call	 __wassert
  00036	8b 0d 00 00 00
	00		 mov	 ecx, DWORD PTR ?ms_singleton@?$CSingleton@VCPythonSystem@@@@0PAVCPythonSystem@@A ; CSingleton<CPythonSystem>::ms_singleton
  0003c	83 c4 0c	 add	 esp, 12			; 0000000cH
$LN21@Create:
; File C:\Anka2Project\Anka2Project\Source\Binary\source\UserInterface\PythonApplication.cpp

; 1041 : 	NANOBEGIN

  0003f	e8 00 00 00 00	 call	 ?IsWindowed@CPythonSystem@@QAE_NXZ ; CPythonSystem::IsWindowed

; 1042 : 		Windowed = CPythonSystem::Instance().IsWindowed() ? 1 : 0;
; 1043 : 
; 1044 : 	bool bAnotherWindow = false;
; 1045 : 
; 1046 : 	if (FindWindow(nullptr, c_szName))

  00044	8b 75 0c	 mov	 esi, DWORD PTR _c_szName$[ebp]
  00047	8a d8		 mov	 bl, al
  00049	56		 push	 esi
  0004a	0f b6 c3	 movzx	 eax, bl
  0004d	6a 00		 push	 0
  0004f	89 45 e4	 mov	 DWORD PTR _Windowed$1$[ebp], eax
  00052	ff 15 00 00 00
	00		 call	 DWORD PTR __imp__FindWindowA@8

; 1047 : 		bAnotherWindow = true;
; 1048 : 
; 1049 : 	m_dwWidth = width;

  00058	8b 4d 10	 mov	 ecx, DWORD PTR _width$[ebp]
  0005b	8b f8		 mov	 edi, eax
  0005d	8b 45 e8	 mov	 eax, DWORD PTR _this$1$[ebp]

; 1050 : 	m_dwHeight = height;
; 1051 : 
; 1052 : 	// Window
; 1053 : 	UINT WindowMode = __GetWindowMode(Windowed ? true : false);
; 1054 : 
; 1055 : 	if (!CMSWindow::Create(c_szName, 4, 0, WindowMode, ::LoadIcon( GetInstance(), MAKEINTRESOURCE( IDI_METIN2 ) ), IDC_CURSOR_NORMAL))

  00060	6a 66		 push	 102			; 00000066H
  00062	6a 64		 push	 100			; 00000064H
  00064	89 88 c4 d6 03
	00		 mov	 DWORD PTR [eax+251588], ecx
  0006a	8b 4d 14	 mov	 ecx, DWORD PTR _height$[ebp]
  0006d	89 88 c8 d6 03
	00		 mov	 DWORD PTR [eax+251592], ecx
  00073	8b c8		 mov	 ecx, eax
  00075	e8 00 00 00 00	 call	 ?GetInstance@CMSWindow@@QAEPAUHINSTANCE__@@XZ ; CMSWindow::GetInstance
  0007a	50		 push	 eax
  0007b	ff 15 00 00 00
	00		 call	 DWORD PTR __imp__LoadIconA@8
  00081	50		 push	 eax
  00082	8a cb		 mov	 cl, bl
  00084	e8 00 00 00 00	 call	 ?__GetWindowMode@@YAI_N@Z ; __GetWindowMode
  00089	8b 5d e8	 mov	 ebx, DWORD PTR _this$1$[ebp]
  0008c	8b cb		 mov	 ecx, ebx
  0008e	50		 push	 eax
  0008f	6a 00		 push	 0
  00091	6a 04		 push	 4
  00093	56		 push	 esi
  00094	e8 00 00 00 00	 call	 ?Create@CMSWindow@@QAE_NPBDHKKPAUHICON__@@H@Z ; CMSWindow::Create
  00099	84 c0		 test	 al, al
  0009b	75 37		 jne	 SHORT $LN3@Create

; 1056 : 	{
; 1057 : 		TraceError("CMSWindow::Create failed");

  0009d	68 00 00 00 00	 push	 OFFSET ??_C@_0BJ@DBNNLGNG@CMSWindow?3?3Create?5failed@
  000a2	e8 00 00 00 00	 call	 ?TraceError@@YAXPBDZZ	; TraceError
  000a7	83 c4 04	 add	 esp, 4

; 1058 : 		SET_EXCEPTION(CREATE_WINDOW);

  000aa	68 00 00 00 00	 push	 OFFSET ??_C@_0O@NOBMPFEG@CREATE_WINDOW@
$LN36@Create:

; 1172 : 	return true;
; 1173 : }

  000af	a1 00 00 00 00	 mov	 eax, DWORD PTR __imp__PyExc_RuntimeError
  000b4	ff 30		 push	 DWORD PTR [eax]
  000b6	ff 15 00 00 00
	00		 call	 DWORD PTR __imp__PyErr_SetString
  000bc	83 c4 08	 add	 esp, 8
$LN34@Create:
  000bf	32 c0		 xor	 al, al
  000c1	5f		 pop	 edi
  000c2	5e		 pop	 esi
  000c3	5b		 pop	 ebx
  000c4	8b 4d fc	 mov	 ecx, DWORD PTR __$ArrayPad$[ebp]
  000c7	33 cd		 xor	 ecx, ebp
  000c9	e8 00 00 00 00	 call	 @__security_check_cookie@4
  000ce	8b e5		 mov	 esp, ebp
  000d0	5d		 pop	 ebp
  000d1	c2 14 00	 ret	 20			; 00000014H
$LN3@Create:

; 1059 : 		return false;
; 1060 : 	}
; 1061 : 
; 1062 : 	if (m_pySystem.IsUseDefaultIME())

  000d4	8d b3 d0 aa 03
	00		 lea	 esi, DWORD PTR [ebx+240336]
  000da	8b ce		 mov	 ecx, esi
  000dc	e8 00 00 00 00	 call	 ?IsUseDefaultIME@CPythonSystem@@QAE_NXZ ; CPythonSystem::IsUseDefaultIME
  000e1	84 c0		 test	 al, al
  000e3	74 2c		 je	 SHORT $LN4@Create
; File C:\Anka2Project\Anka2Project\Source\Binary\source\eterBase\Singleton.h

; 26   : 		assert(ms_singleton);

  000e5	8b 0d 00 00 00
	00		 mov	 ecx, DWORD PTR ?ms_singleton@?$CSingleton@VCPythonIME@@@@0PAVCPythonIME@@A ; CSingleton<CPythonIME>::ms_singleton
  000eb	85 c9		 test	 ecx, ecx
  000ed	75 1a		 jne	 SHORT $LN24@Create
  000ef	6a 1a		 push	 26			; 0000001aH
  000f1	68 00 00 00 00	 push	 OFFSET ??_C@_1IO@CAJLEEOI@?$AAC?$AA?3?$AA?2?$AAA?$AAn?$AAk?$AAa?$AA2?$AAP?$AAr?$AAo?$AAj?$AAe?$AAc?$AAt@
  000f6	68 00 00 00 00	 push	 OFFSET ??_C@_1BK@FMEHPMFE@?$AAm?$AAs?$AA_?$AAs?$AAi?$AAn?$AAg?$AAl?$AAe?$AAt?$AAo?$AAn@
  000fb	e8 00 00 00 00	 call	 __wassert
  00100	8b 0d 00 00 00
	00		 mov	 ecx, DWORD PTR ?ms_singleton@?$CSingleton@VCPythonIME@@@@0PAVCPythonIME@@A ; CSingleton<CPythonIME>::ms_singleton
  00106	83 c4 0c	 add	 esp, 12			; 0000000cH
$LN24@Create:
; File C:\Anka2Project\Anka2Project\Source\Binary\source\UserInterface\PythonApplication.cpp

; 1064 : 		CPythonIME::Instance().UseDefaultIME();

  00109	83 c1 04	 add	 ecx, 4
  0010c	e8 00 00 00 00	 call	 ?UseDefaultIME@CIME@@QAEXXZ ; CIME::UseDefaultIME
$LN4@Create:

; 1065 : 	}
; 1066 : 
; 1067 : #ifdef ENABLE_DISCORD_RPC
; 1068 : 	m_pyNetworkStream.Discord_Start();

  00111	e8 00 00 00 00	 call	 ?Discord_Start@CPythonNetworkStream@@QAEXXZ ; CPythonNetworkStream::Discord_Start

; 1069 : #endif
; 1070 : 
; 1071 : 	AdjustSize(m_pySystem.GetWidth(), m_pySystem.GetHeight());

  00116	8b ce		 mov	 ecx, esi
  00118	e8 00 00 00 00	 call	 ?GetHeight@CPythonSystem@@QAEKXZ ; CPythonSystem::GetHeight
  0011d	50		 push	 eax
  0011e	e8 00 00 00 00	 call	 ?GetWidth@CPythonSystem@@QAEKXZ ; CPythonSystem::GetWidth
  00123	50		 push	 eax
  00124	8b cb		 mov	 ecx, ebx
  00126	e8 00 00 00 00	 call	 ?AdjustSize@CMSWindow@@QAEXHH@Z ; CMSWindow::AdjustSize

; 1072 : 
; 1073 : 	if (Windowed)

  0012b	83 7d e4 00	 cmp	 DWORD PTR _Windowed$1$[ebp], 0
  0012f	74 56		 je	 SHORT $LN5@Create

; 1074 : 	{
; 1075 : 		m_isWindowed = true;

  00131	c6 83 d0 d7 03
	00 01		 mov	 BYTE PTR [ebx+251856], 1

; 1076 : 
; 1077 : 		if (bAnotherWindow)

  00138	85 ff		 test	 edi, edi
  0013a	74 44		 je	 SHORT $LN7@Create

; 1078 : 		{
; 1079 : 			RECT rc;
; 1080 : 
; 1081 : 			GetClientRect(&rc);

  0013c	8d 45 ec	 lea	 eax, DWORD PTR _rc$6[ebp]
  0013f	8b cb		 mov	 ecx, ebx
  00141	50		 push	 eax
  00142	e8 00 00 00 00	 call	 ?GetClientRect@CMSWindow@@QAEXPAUtagRECT@@@Z ; CMSWindow::GetClientRect

; 1082 : 
; 1083 : 			int windowWidth = rc.right - rc.left;

  00147	8b 5d f4	 mov	 ebx, DWORD PTR _rc$6[ebp+8]

; 1084 : 			int windowHeight = (rc.bottom - rc.top);

  0014a	8b 75 f8	 mov	 esi, DWORD PTR _rc$6[ebp+12]

; 1085 : 
; 1086 : 			CMSApplication::SetPosition(GetScreenWidth() - windowWidth, GetScreenHeight() - 60 - windowHeight);

  0014d	8b 4d e8	 mov	 ecx, DWORD PTR _this$1$[ebp]
  00150	2b 5d ec	 sub	 ebx, DWORD PTR _rc$6[ebp]
  00153	2b 75 f0	 sub	 esi, DWORD PTR _rc$6[ebp+4]
  00156	e8 00 00 00 00	 call	 ?GetScreenHeight@CMSWindow@@QAEHXZ ; CMSWindow::GetScreenHeight
  0015b	8b 4d e8	 mov	 ecx, DWORD PTR _this$1$[ebp]
  0015e	bf c4 ff ff ff	 mov	 edi, -60		; ffffffc4H
  00163	2b fe		 sub	 edi, esi
  00165	03 f8		 add	 edi, eax
  00167	e8 00 00 00 00	 call	 ?GetScreenWidth@CMSWindow@@QAEHXZ ; CMSWindow::GetScreenWidth
  0016c	2b c3		 sub	 eax, ebx
  0016e	8b 5d e8	 mov	 ebx, DWORD PTR _this$1$[ebp]
  00171	57		 push	 edi
  00172	50		 push	 eax
  00173	8b cb		 mov	 ecx, ebx
  00175	e8 00 00 00 00	 call	 ?SetPosition@CMSWindow@@QAEXHH@Z ; CMSWindow::SetPosition
  0017a	8d b3 d0 aa 03
	00		 lea	 esi, DWORD PTR [ebx+240336]
$LN7@Create:

; 1087 : 		}
; 1088 : 		SetPosition(-8, 0); //Fix

  00180	b8 f8 ff ff ff	 mov	 eax, -8			; fffffff8H

; 1089 : 	}

  00185	eb 09		 jmp	 SHORT $LN6@Create
$LN5@Create:

; 1090 : 	else
; 1091 : 	{
; 1092 : 		m_isWindowed = false;

  00187	c6 83 d0 d7 03
	00 00		 mov	 BYTE PTR [ebx+251856], 0

; 1093 : 		SetPosition(0, 0);

  0018e	33 c0		 xor	 eax, eax
$LN6@Create:

; 1094 : 	}
; 1095 : 
; 1096 : 	if (!CreateCursors())

  00190	6a 00		 push	 0
  00192	50		 push	 eax
  00193	8b cb		 mov	 ecx, ebx
  00195	e8 00 00 00 00	 call	 ?SetPosition@CMSWindow@@QAEXHH@Z ; CMSWindow::SetPosition
  0019a	8b cb		 mov	 ecx, ebx
  0019c	e8 00 00 00 00	 call	 ?CreateCursors@CPythonApplication@@QAE_NXZ ; CPythonApplication::CreateCursors
  001a1	84 c0		 test	 al, al
  001a3	75 17		 jne	 SHORT $LN8@Create

; 1097 : 	{
; 1098 : 		TraceError("CMSWindow::Cursors Create Error");

  001a5	68 00 00 00 00	 push	 OFFSET ??_C@_0CA@FFOMJBHN@CMSWindow?3?3Cursors?5Create?5Error@
  001aa	e8 00 00 00 00	 call	 ?TraceError@@YAXPBDZZ	; TraceError
  001af	83 c4 04	 add	 esp, 4

; 1099 : 		SET_EXCEPTION("CREATE_CURSOR");

  001b2	68 00 00 00 00	 push	 OFFSET ??_C@_0BA@GLLECKCO@?$CCCREATE_CURSOR?$CC@

; 1100 : 		return false;

  001b7	e9 f3 fe ff ff	 jmp	 $LN36@Create
$LN8@Create:

; 1101 : 	}
; 1102 : 
; 1103 : 	if (!m_pySystem.IsNoSoundCard())

  001bc	8b ce		 mov	 ecx, esi
  001be	e8 00 00 00 00	 call	 ?IsNoSoundCard@CPythonSystem@@QAE_NXZ ; CPythonSystem::IsNoSoundCard
  001c3	84 c0		 test	 al, al
  001c5	75 0b		 jne	 SHORT $LN10@Create

; 1104 : 	{
; 1105 : 		// Sound
; 1106 : 		if (!m_SoundManager.Create())

  001c7	8d 8b f0 00 00
	00		 lea	 ecx, DWORD PTR [ebx+240]
  001cd	e8 00 00 00 00	 call	 ?Create@CSoundManager@@QAEHXZ ; CSoundManager::Create
$LN10@Create:

; 1107 : 		{
; 1108 : 		}
; 1109 : 	}
; 1110 : 
; 1111 : 	// Device
; 1112 : 	if (!CreateDevice(m_pySystem.GetWidth(), m_pySystem.GetHeight(), Windowed, m_pySystem.GetBPP(), m_pySystem.GetFrequency()))

  001d2	8b ce		 mov	 ecx, esi
  001d4	e8 00 00 00 00	 call	 ?GetFrequency@CPythonSystem@@QAEKXZ ; CPythonSystem::GetFrequency
  001d9	8b f8		 mov	 edi, eax
  001db	e8 00 00 00 00	 call	 ?GetBPP@CPythonSystem@@QAEKXZ ; CPythonSystem::GetBPP
  001e0	8d 8b d0 aa 03
	00		 lea	 ecx, DWORD PTR [ebx+240336]
  001e6	8b f0		 mov	 esi, eax
  001e8	e8 00 00 00 00	 call	 ?GetHeight@CPythonSystem@@QAEKXZ ; CPythonSystem::GetHeight
  001ed	8b d0		 mov	 edx, eax
  001ef	e8 00 00 00 00	 call	 ?GetWidth@CPythonSystem@@QAEKXZ ; CPythonSystem::GetWidth
  001f4	57		 push	 edi
  001f5	56		 push	 esi
  001f6	ff 75 e4	 push	 DWORD PTR _Windowed$1$[ebp]
  001f9	8b cb		 mov	 ecx, ebx
  001fb	52		 push	 edx
  001fc	50		 push	 eax
  001fd	e8 00 00 00 00	 call	 ?CreateDevice@CPythonApplication@@QAE_NHHHHH@Z ; CPythonApplication::CreateDevice
  00202	84 c0		 test	 al, al
  00204	0f 84 b5 fe ff
	ff		 je	 $LN34@Create

; 1113 : 		return false;
; 1114 : 
; 1115 : 	GrannyCreateSharedDeformBuffer();

  0020a	e8 00 00 00 00	 call	 ?GrannyCreateSharedDeformBuffer@@YAXXZ ; GrannyCreateSharedDeformBuffer

; 1116 : 
; 1117 : 	SetVisibleMode(true);

  0020f	6a 01		 push	 1
  00211	8b cb		 mov	 ecx, ebx
  00213	e8 00 00 00 00	 call	 ?SetVisibleMode@CMSWindow@@QAEX_N@Z ; CMSWindow::SetVisibleMode

; 1118 : 
; 1119 : 	if (m_isWindowFullScreenEnable)

  00218	83 bb f4 d7 03
	00 00		 cmp	 DWORD PTR [ebx+251892], 0
  0021f	74 1c		 je	 SHORT $LN12@Create

; 1120 : 	{
; 1121 : 		SetWindowPos(GetWindowHandle(), HWND_TOP, 0, 0, width, height, SWP_SHOWWINDOW);

  00221	6a 40		 push	 64			; 00000040H
  00223	ff 75 14	 push	 DWORD PTR _height$[ebp]
  00226	8b cb		 mov	 ecx, ebx
  00228	ff 75 10	 push	 DWORD PTR _width$[ebp]
  0022b	6a 00		 push	 0
  0022d	6a 00		 push	 0
  0022f	6a 00		 push	 0
  00231	e8 00 00 00 00	 call	 ?GetWindowHandle@CMSWindow@@QAEPAUHWND__@@XZ ; CMSWindow::GetWindowHandle
  00236	50		 push	 eax
  00237	ff 15 00 00 00
	00		 call	 DWORD PTR __imp__SetWindowPos@28
$LN12@Create:

; 1122 : 	}
; 1123 : 
; 1124 : 	if (!InitializeKeyboard(GetWindowHandle()))

  0023d	8b cb		 mov	 ecx, ebx
  0023f	e8 00 00 00 00	 call	 ?GetWindowHandle@CMSWindow@@QAEPAUHWND__@@XZ ; CMSWindow::GetWindowHandle
  00244	50		 push	 eax
  00245	8d 4b 1c	 lea	 ecx, DWORD PTR [ebx+28]
  00248	e8 00 00 00 00	 call	 ?InitializeKeyboard@CInputKeyboard@@QAE_NPAUHWND__@@@Z ; CInputKeyboard::InitializeKeyboard
  0024d	84 c0		 test	 al, al
  0024f	0f 84 6a fe ff
	ff		 je	 $LN34@Create

; 1125 : 		return false;
; 1126 : 
; 1127 : 	m_pySystem.GetDisplaySettings();

  00255	8d 8b d0 aa 03
	00		 lea	 ecx, DWORD PTR [ebx+240336]
  0025b	e8 00 00 00 00	 call	 ?GetDisplaySettings@CPythonSystem@@QAEXXZ ; CPythonSystem::GetDisplaySettings

; 1128 : 
; 1129 : 	// Mouse
; 1130 : 	if (m_pySystem.IsSoftwareCursor())

  00260	8d 8b d0 aa 03
	00		 lea	 ecx, DWORD PTR [ebx+240336]
  00266	e8 00 00 00 00	 call	 ?IsSoftwareCursor@CPythonSystem@@QAE_NXZ ; CPythonSystem::IsSoftwareCursor

; 1131 : 		SetCursorMode(CURSOR_MODE_SOFTWARE);
; 1132 : 	else
; 1133 : 		SetCursorMode(CURSOR_MODE_HARDWARE);
; 1134 : 
; 1135 : 	// Network
; 1136 : 	if (!m_netDevice.Create())

  0026b	0f b6 c0	 movzx	 eax, al
  0026e	8b cb		 mov	 ecx, ebx
  00270	50		 push	 eax
  00271	e8 00 00 00 00	 call	 ?SetCursorMode@CPythonApplication@@QAEXH@Z ; CPythonApplication::SetCursorMode
  00276	8d 8b c8 aa 03
	00		 lea	 ecx, DWORD PTR [ebx+240328]
  0027c	e8 00 00 00 00	 call	 ?Create@CNetworkDevice@@QAE_NXZ ; CNetworkDevice::Create
  00281	84 c0		 test	 al, al
  00283	75 17		 jne	 SHORT $LN16@Create

; 1137 : 	{
; 1138 : 		TraceError("NetDevice::Create failed");

  00285	68 00 00 00 00	 push	 OFFSET ??_C@_0BJ@CJEBNOLC@NetDevice?3?3Create?5failed@
  0028a	e8 00 00 00 00	 call	 ?TraceError@@YAXPBDZZ	; TraceError
  0028f	83 c4 04	 add	 esp, 4

; 1139 : 		SET_EXCEPTION("CREATE_NETWORK");

  00292	68 00 00 00 00	 push	 OFFSET ??_C@_0BB@EJLMKODK@?$CCCREATE_NETWORK?$CC@

; 1140 : 		return false;

  00297	e9 13 fe ff ff	 jmp	 $LN36@Create
$LN16@Create:

; 1141 : 	}
; 1142 : 
; 1143 : 	if (!m_grpDevice.IsFastTNL())

  0029c	e8 00 00 00 00	 call	 ?IsFastTNL@CGraphicBase@@SA_NXZ ; CGraphicBase::IsFastTNL
  002a1	84 c0		 test	 al, al
  002a3	75 0a		 jne	 SHORT $LN17@Create

; 1144 : 		CGrannyLODController::SetMinLODMode(true);

  002a5	6a 01		 push	 1
  002a7	e8 00 00 00 00	 call	 ?SetMinLODMode@CGrannyLODController@@SAX_N@Z ; CGrannyLODController::SetMinLODMode
  002ac	83 c4 04	 add	 esp, 4
$LN17@Create:

; 1145 : 
; 1146 : 	m_pyItem.Create();

  002af	8d 8b 34 3f 02
	00		 lea	 ecx, DWORD PTR [ebx+147252]
  002b5	e8 00 00 00 00	 call	 ?Create@CPythonItem@@QAEXXZ ; CPythonItem::Create

; 1147 : 
; 1148 : 	// Other Modules
; 1149 : 	DefaultFont_Startup();

  002ba	e8 00 00 00 00	 call	 ?DefaultFont_Startup@@YAXXZ ; DefaultFont_Startup
; File C:\Anka2Project\Anka2Project\Source\Binary\source\eterBase\Singleton.h

; 26   : 		assert(ms_singleton);

  002bf	8b 35 00 00 00
	00		 mov	 esi, DWORD PTR ?ms_singleton@?$CSingleton@VCPythonIME@@@@0PAVCPythonIME@@A ; CSingleton<CPythonIME>::ms_singleton
  002c5	85 f6		 test	 esi, esi
  002c7	75 1a		 jne	 SHORT $LN27@Create
  002c9	6a 1a		 push	 26			; 0000001aH
  002cb	68 00 00 00 00	 push	 OFFSET ??_C@_1IO@CAJLEEOI@?$AAC?$AA?3?$AA?2?$AAA?$AAn?$AAk?$AAa?$AA2?$AAP?$AAr?$AAo?$AAj?$AAe?$AAc?$AAt@
  002d0	68 00 00 00 00	 push	 OFFSET ??_C@_1BK@FMEHPMFE@?$AAm?$AAs?$AA_?$AAs?$AAi?$AAn?$AAg?$AAl?$AAe?$AAt?$AAo?$AAn@
  002d5	e8 00 00 00 00	 call	 __wassert
  002da	8b 35 00 00 00
	00		 mov	 esi, DWORD PTR ?ms_singleton@?$CSingleton@VCPythonIME@@@@0PAVCPythonIME@@A ; CSingleton<CPythonIME>::ms_singleton
  002e0	83 c4 0c	 add	 esp, 12			; 0000000cH
$LN27@Create:
; File C:\Anka2Project\Anka2Project\Source\Binary\source\UserInterface\PythonApplication.cpp

; 1151 : 	CPythonIME::Instance().Create(GetWindowHandle());

  002e3	8b cb		 mov	 ecx, ebx
  002e5	e8 00 00 00 00	 call	 ?GetWindowHandle@CMSWindow@@QAEPAUHWND__@@XZ ; CMSWindow::GetWindowHandle
  002ea	50		 push	 eax
  002eb	8b ce		 mov	 ecx, esi
  002ed	e8 00 00 00 00	 call	 ?Create@CPythonIME@@QAEXPAUHWND__@@@Z ; CPythonIME::Create
; File C:\Anka2Project\Anka2Project\Source\Binary\source\eterBase\Singleton.h

; 26   : 		assert(ms_singleton);

  002f2	8b 0d 00 00 00
	00		 mov	 ecx, DWORD PTR ?ms_singleton@?$CSingleton@VCPythonIME@@@@0PAVCPythonIME@@A ; CSingleton<CPythonIME>::ms_singleton
  002f8	85 c9		 test	 ecx, ecx
  002fa	75 1a		 jne	 SHORT $LN30@Create
  002fc	6a 1a		 push	 26			; 0000001aH
  002fe	68 00 00 00 00	 push	 OFFSET ??_C@_1IO@CAJLEEOI@?$AAC?$AA?3?$AA?2?$AAA?$AAn?$AAk?$AAa?$AA2?$AAP?$AAr?$AAo?$AAj?$AAe?$AAc?$AAt@
  00303	68 00 00 00 00	 push	 OFFSET ??_C@_1BK@FMEHPMFE@?$AAm?$AAs?$AA_?$AAs?$AAi?$AAn?$AAg?$AAl?$AAe?$AAt?$AAo?$AAn@
  00308	e8 00 00 00 00	 call	 __wassert
  0030d	8b 0d 00 00 00
	00		 mov	 ecx, DWORD PTR ?ms_singleton@?$CSingleton@VCPythonIME@@@@0PAVCPythonIME@@A ; CSingleton<CPythonIME>::ms_singleton
  00313	83 c4 0c	 add	 esp, 12			; 0000000cH
$LN30@Create:
; File C:\Anka2Project\Anka2Project\Source\Binary\source\UserInterface\PythonApplication.cpp

; 1152 : 	CPythonIME::Instance().SetText("", 0);

  00316	6a 00		 push	 0
  00318	68 00 00 00 00	 push	 OFFSET ??_C@_00CNPNBAHC@@
  0031d	83 c1 04	 add	 ecx, 4
  00320	e8 00 00 00 00	 call	 ?SetText@CIME@@QAEXPBDH@Z ; CIME::SetText
; File C:\Anka2Project\Anka2Project\Source\Binary\source\eterBase\Singleton.h

; 26   : 		assert(ms_singleton);

  00325	83 3d 00 00 00
	00 00		 cmp	 DWORD PTR ?ms_singleton@?$CSingleton@VCPythonTextTail@@@@0PAVCPythonTextTail@@A, 0 ; CSingleton<CPythonTextTail>::ms_singleton
  0032c	75 14		 jne	 SHORT $LN33@Create
  0032e	6a 1a		 push	 26			; 0000001aH
  00330	68 00 00 00 00	 push	 OFFSET ??_C@_1IO@CAJLEEOI@?$AAC?$AA?3?$AA?2?$AAA?$AAn?$AAk?$AAa?$AA2?$AAP?$AAr?$AAo?$AAj?$AAe?$AAc?$AAt@
  00335	68 00 00 00 00	 push	 OFFSET ??_C@_1BK@FMEHPMFE@?$AAm?$AAs?$AA_?$AAs?$AAi?$AAn?$AAg?$AAl?$AAe?$AAt?$AAo?$AAn@
  0033a	e8 00 00 00 00	 call	 __wassert
  0033f	83 c4 0c	 add	 esp, 12			; 0000000cH
$LN33@Create:
; File C:\Anka2Project\Anka2Project\Source\Binary\source\UserInterface\PythonApplication.cpp

; 1153 : 	CPythonTextTail::Instance().Initialize();

  00342	e8 00 00 00 00	 call	 ?Initialize@CPythonTextTail@@QAEXXZ ; CPythonTextTail::Initialize

; 1154 : 
; 1155 : 	// Light Manager
; 1156 : 	m_LightManager.Initialize();

  00347	8d 8b 84 00 00
	00		 lea	 ecx, DWORD PTR [ebx+132]
  0034d	e8 00 00 00 00	 call	 ?Initialize@CLightManager@@QAEXXZ ; CLightManager::Initialize

; 1157 : 
; 1158 : 	CGraphicImageInstance::CreateSystem(32);

  00352	6a 20		 push	 32			; 00000020H
  00354	e8 00 00 00 00	 call	 ?CreateSystem@CGraphicImageInstance@@SAXI@Z ; CGraphicImageInstance::CreateSystem

; 1159 : 
; 1160 : 	STICKYKEYS sStickKeys;
; 1161 : 	memset(&sStickKeys, 0, sizeof(sStickKeys));
; 1162 : 	sStickKeys.cbSize = sizeof(sStickKeys);
; 1163 : 	SystemParametersInfo( SPI_GETSTICKYKEYS, sizeof(sStickKeys), &sStickKeys, 0 );

  00359	8b 35 00 00 00
	00		 mov	 esi, DWORD PTR __imp__SystemParametersInfoA@16
  0035f	8d 45 dc	 lea	 eax, DWORD PTR _sStickKeys$[ebp]
  00362	83 c4 04	 add	 esp, 4
  00365	0f 57 c0	 xorps	 xmm0, xmm0
  00368	66 0f 13 45 dc	 movlpd	 QWORD PTR _sStickKeys$[ebp], xmm0
  0036d	c7 45 dc 08 00
	00 00		 mov	 DWORD PTR _sStickKeys$[ebp], 8
  00374	6a 00		 push	 0
  00376	50		 push	 eax
  00377	6a 08		 push	 8
  00379	6a 3a		 push	 58			; 0000003aH
  0037b	ff d6		 call	 esi

; 1164 : 	m_dwStickyKeysFlag = sStickKeys.dwFlags;

  0037d	8b 45 e0	 mov	 eax, DWORD PTR _sStickKeys$[ebp+4]
  00380	89 83 f8 d7 03
	00		 mov	 DWORD PTR [ebx+251896], eax

; 1165 : 
; 1166 : 	sStickKeys.dwFlags &= ~(SKF_AVAILABLE|SKF_HOTKEYACTIVE);

  00386	83 e0 f9	 and	 eax, -7			; fffffff9H

; 1167 : 	SystemParametersInfo( SPI_SETSTICKYKEYS, sizeof(sStickKeys), &sStickKeys, 0 );

  00389	6a 00		 push	 0
  0038b	89 45 e0	 mov	 DWORD PTR _sStickKeys$[ebp+4], eax
  0038e	8d 45 dc	 lea	 eax, DWORD PTR _sStickKeys$[ebp]
  00391	50		 push	 eax
  00392	6a 08		 push	 8
  00394	6a 3b		 push	 59			; 0000003bH
  00396	ff d6		 call	 esi

; 1168 : 
; 1169 : 	// SphereMap
; 1170 : 	CGrannyMaterial::CreateSphereMap(0, "d:/ymir work/special/spheremap.jpg");

  00398	68 00 00 00 00	 push	 OFFSET ??_C@_0CD@KIIBIHOG@d?3?1ymir?5work?1special?1spheremap?4@
  0039d	6a 00		 push	 0
  0039f	e8 00 00 00 00	 call	 ?CreateSphereMap@CGrannyMaterial@@SAXIPBD@Z ; CGrannyMaterial::CreateSphereMap

; 1171 : 	CGrannyMaterial::CreateSphereMap(1, "d:/ymir work/special/spheremap01.jpg");

  003a4	68 00 00 00 00	 push	 OFFSET ??_C@_0CF@CBFEMJII@d?3?1ymir?5work?1special?1spheremap0@
  003a9	6a 01		 push	 1
  003ab	e8 00 00 00 00	 call	 ?CreateSphereMap@CGrannyMaterial@@SAXIPBD@Z ; CGrannyMaterial::CreateSphereMap

; 1172 : 	return true;
; 1173 : }

  003b0	8b 4d fc	 mov	 ecx, DWORD PTR __$ArrayPad$[ebp]
  003b3	83 c4 10	 add	 esp, 16			; 00000010H
  003b6	33 cd		 xor	 ecx, ebp
  003b8	b0 01		 mov	 al, 1
  003ba	5f		 pop	 edi
  003bb	5e		 pop	 esi
  003bc	5b		 pop	 ebx
  003bd	e8 00 00 00 00	 call	 @__security_check_cookie@4
  003c2	8b e5		 mov	 esp, ebp
  003c4	5d		 pop	 ebp
  003c5	c2 14 00	 ret	 20			; 00000014H
?Create@CPythonApplication@@QAE_NPAU_object@@PBDHHH@Z ENDP ; CPythonApplication::Create
_TEXT	ENDS
; Function compile flags: /Ogtp
; File C:\Anka2Project\Anka2Project\Source\Binary\source\UserInterface\PythonApplication.cpp
; File C:\Anka2Project\Anka2Project\Source\Binary\source\eterBase\Singleton.h
; File C:\Anka2Project\Anka2Project\Source\Binary\source\UserInterface\PythonApplication.cpp
; File C:\Anka2Project\Anka2Project\Source\Binary\source\eterBase\Singleton.h
; File C:\Anka2Project\Anka2Project\Source\Binary\source\UserInterface\PythonApplication.cpp
; File C:\Anka2Project\Anka2Project\Source\Binary\source\UserInterface\PythonApplication.h
; File C:\Anka2Project\Anka2Project\Source\Binary\source\UserInterface\PythonApplication.cpp
; File C:\Anka2Project\Anka2Project\Source\Binary\source\UserInterface\PythonApplication.h
; File C:\Anka2Project\Anka2Project\Source\Binary\source\UserInterface\PythonApplication.cpp
;	COMDAT ?SetGlobalCenterPosition@CPythonApplication@@QAEXJJ@Z
_TEXT	SEGMENT
_z$ = -4						; size = 4
_x$ = 8							; size = 4
_y$ = 12						; size = 4
?SetGlobalCenterPosition@CPythonApplication@@QAEXJJ@Z PROC ; CPythonApplication::SetGlobalCenterPosition, COMDAT
; _this$dead$ = ecx

; 1176 : {

  00000	55		 push	 ebp
  00001	8b ec		 mov	 ebp, esp
  00003	51		 push	 ecx
  00004	56		 push	 esi
; File C:\Anka2Project\Anka2Project\Source\Binary\source\eterBase\Singleton.h

; 26   : 		assert(ms_singleton);

  00005	8b 35 00 00 00
	00		 mov	 esi, DWORD PTR ?ms_singleton@?$CSingleton@VCPythonBackground@@@@0PAVCPythonBackground@@A ; CSingleton<CPythonBackground>::ms_singleton
  0000b	85 f6		 test	 esi, esi
  0000d	75 1a		 jne	 SHORT $LN5@SetGlobalC
  0000f	6a 1a		 push	 26			; 0000001aH
  00011	68 00 00 00 00	 push	 OFFSET ??_C@_1IO@CAJLEEOI@?$AAC?$AA?3?$AA?2?$AAA?$AAn?$AAk?$AAa?$AA2?$AAP?$AAr?$AAo?$AAj?$AAe?$AAc?$AAt@
  00016	68 00 00 00 00	 push	 OFFSET ??_C@_1BK@FMEHPMFE@?$AAm?$AAs?$AA_?$AAs?$AAi?$AAn?$AAg?$AAl?$AAe?$AAt?$AAo?$AAn@
  0001b	e8 00 00 00 00	 call	 __wassert
  00020	8b 35 00 00 00
	00		 mov	 esi, DWORD PTR ?ms_singleton@?$CSingleton@VCPythonBackground@@@@0PAVCPythonBackground@@A ; CSingleton<CPythonBackground>::ms_singleton
  00026	83 c4 0c	 add	 esp, 12			; 0000000cH
$LN5@SetGlobalC:
; File C:\Anka2Project\Anka2Project\Source\Binary\source\UserInterface\PythonApplication.cpp

; 1178 : 	rkBG.GlobalPositionToLocalPosition(x, y);

  00029	8d 45 0c	 lea	 eax, DWORD PTR _y$[ebp]
  0002c	8b ce		 mov	 ecx, esi
  0002e	50		 push	 eax
  0002f	8d 45 08	 lea	 eax, DWORD PTR _x$[ebp]
  00032	50		 push	 eax
  00033	e8 00 00 00 00	 call	 ?GlobalPositionToLocalPosition@CPythonBackground@@QAEXAAJ0@Z ; CPythonBackground::GlobalPositionToLocalPosition
; File C:\Anka2Project\Anka2Project\Source\Binary\source\eterBase\Singleton.h

; 26   : 		assert(ms_singleton);

  00038	85 f6		 test	 esi, esi
  0003a	75 1a		 jne	 SHORT $LN8@SetGlobalC
  0003c	6a 1a		 push	 26			; 0000001aH
  0003e	68 00 00 00 00	 push	 OFFSET ??_C@_1IO@CAJLEEOI@?$AAC?$AA?3?$AA?2?$AAA?$AAn?$AAk?$AAa?$AA2?$AAP?$AAr?$AAo?$AAj?$AAe?$AAc?$AAt@
  00043	68 00 00 00 00	 push	 OFFSET ??_C@_1BK@FMEHPMFE@?$AAm?$AAs?$AA_?$AAs?$AAi?$AAn?$AAg?$AAl?$AAe?$AAt?$AAo?$AAn@
  00048	e8 00 00 00 00	 call	 __wassert
  0004d	8b 35 00 00 00
	00		 mov	 esi, DWORD PTR ?ms_singleton@?$CSingleton@VCPythonBackground@@@@0PAVCPythonBackground@@A ; CSingleton<CPythonBackground>::ms_singleton
  00053	83 c4 0c	 add	 esp, 12			; 0000000cH
$LN8@SetGlobalC:
  00056	66 0f 6e 45 0c	 movd	 xmm0, DWORD PTR _y$[ebp]
; File C:\Anka2Project\Anka2Project\Source\Binary\source\UserInterface\PythonApplication.cpp

; 1180 : 	float z = CPythonBackground::Instance().GetHeight(x, y);

  0005b	83 ec 08	 sub	 esp, 8
  0005e	66 0f 6e 4d 08	 movd	 xmm1, DWORD PTR _x$[ebp]
  00063	8b ce		 mov	 ecx, esi
  00065	0f 5b c0	 cvtdq2ps xmm0, xmm0
  00068	0f 5b c9	 cvtdq2ps xmm1, xmm1
  0006b	f3 0f 11 44 24
	04		 movss	 DWORD PTR [esp+4], xmm0
  00071	f3 0f 11 0c 24	 movss	 DWORD PTR [esp], xmm1
  00076	e8 00 00 00 00	 call	 ?GetHeight@CMapManager@@QAEMMM@Z ; CMapManager::GetHeight
; File C:\Anka2Project\Anka2Project\Source\Binary\source\UserInterface\PythonApplication.h

; 213  : 			assert(ms_pInstance != nullptr);

  0007b	8b 0d 00 00 00
	00		 mov	 ecx, DWORD PTR ?ms_pInstance@CPythonApplication@@1PAV1@A ; CPythonApplication::ms_pInstance
; File C:\Anka2Project\Anka2Project\Source\Binary\source\UserInterface\PythonApplication.cpp

; 1180 : 	float z = CPythonBackground::Instance().GetHeight(x, y);

  00081	d9 5d fc	 fstp	 DWORD PTR _z$[ebp]
; File C:\Anka2Project\Anka2Project\Source\Binary\source\UserInterface\PythonApplication.h

; 213  : 			assert(ms_pInstance != nullptr);

  00084	5e		 pop	 esi
  00085	85 c9		 test	 ecx, ecx
  00087	75 1d		 jne	 SHORT $LN11@SetGlobalC
  00089	68 d5 00 00 00	 push	 213			; 000000d5H
  0008e	68 00 00 00 00	 push	 OFFSET ??_C@_1KI@NDOHEKDB@?$AAC?$AA?3?$AA?2?$AAA?$AAn?$AAk?$AAa?$AA2?$AAP?$AAr?$AAo?$AAj?$AAe?$AAc?$AAt@
  00093	68 00 00 00 00	 push	 OFFSET ??_C@_1DA@IANAENLC@?$AAm?$AAs?$AA_?$AAp?$AAI?$AAn?$AAs?$AAt?$AAa?$AAn?$AAc?$AAe?$AA?5?$AA?$CB?$AA?$DN@
  00098	e8 00 00 00 00	 call	 __wassert
  0009d	8b 0d 00 00 00
	00		 mov	 ecx, DWORD PTR ?ms_pInstance@CPythonApplication@@1PAV1@A ; CPythonApplication::ms_pInstance
  000a3	83 c4 0c	 add	 esp, 12			; 0000000cH
$LN11@SetGlobalC:
; File C:\Anka2Project\Anka2Project\Source\Binary\source\UserInterface\PythonApplication.cpp

; 1182 : 	CPythonApplication::Instance().SetCenterPosition(x, y, z);

  000a6	f3 0f 10 45 fc	 movss	 xmm0, DWORD PTR _z$[ebp]
  000ab	83 ec 0c	 sub	 esp, 12			; 0000000cH
  000ae	8b 41 20	 mov	 eax, DWORD PTR [ecx+32]
  000b1	83 c1 20	 add	 ecx, 32			; 00000020H
  000b4	f3 0f 11 44 24
	08		 movss	 DWORD PTR [esp+8], xmm0
  000ba	66 0f 6e 45 0c	 movd	 xmm0, DWORD PTR _y$[ebp]
  000bf	0f 5b c0	 cvtdq2ps xmm0, xmm0
  000c2	f3 0f 11 44 24
	04		 movss	 DWORD PTR [esp+4], xmm0
  000c8	66 0f 6e 45 08	 movd	 xmm0, DWORD PTR _x$[ebp]
  000cd	0f 5b c0	 cvtdq2ps xmm0, xmm0
  000d0	f3 0f 11 04 24	 movss	 DWORD PTR [esp], xmm0
  000d5	ff 50 18	 call	 DWORD PTR [eax+24]

; 1183 : }

  000d8	8b e5		 mov	 esp, ebp
  000da	5d		 pop	 ebp
  000db	c2 08 00	 ret	 8
?SetGlobalCenterPosition@CPythonApplication@@QAEXJJ@Z ENDP ; CPythonApplication::SetGlobalCenterPosition
_TEXT	ENDS
; Function compile flags: /Ogtp
; File C:\Anka2Project\Anka2Project\Source\Binary\source\UserInterface\PythonApplication.cpp
;	COMDAT ?FlashApplication@CPythonApplication@@QAEXXZ
_TEXT	SEGMENT
_fi$ = -20						; size = 20
?FlashApplication@CPythonApplication@@QAEXXZ PROC	; CPythonApplication::FlashApplication, COMDAT
; _this$ = ecx

; 1278 : {

  00000	55		 push	 ebp
  00001	8b ec		 mov	 ebp, esp
  00003	83 ec 14	 sub	 esp, 20			; 00000014H

; 1279 : 	HWND hWnd = GetWindowHandle();

  00006	e8 00 00 00 00	 call	 ?GetWindowHandle@CMSWindow@@QAEPAUHWND__@@XZ ; CMSWindow::GetWindowHandle

; 1280 : 	FLASHWINFO fi;
; 1281 : 	fi.cbSize = sizeof(FLASHWINFO);
; 1282 : 	fi.hwnd = hWnd;

  0000b	89 45 f0	 mov	 DWORD PTR _fi$[ebp+4], eax

; 1283 : 	fi.dwFlags = FLASHW_ALL | FLASHW_TIMERNOFG;
; 1284 : 	fi.uCount = 0;
; 1285 : 	fi.dwTimeout = 0;
; 1286 : 	FlashWindowEx(&fi);

  0000e	8d 45 ec	 lea	 eax, DWORD PTR _fi$[ebp]
  00011	50		 push	 eax
  00012	c7 45 ec 14 00
	00 00		 mov	 DWORD PTR _fi$[ebp], 20	; 00000014H
  00019	c7 45 f4 0f 00
	00 00		 mov	 DWORD PTR _fi$[ebp+8], 15 ; 0000000fH
  00020	c7 45 f8 00 00
	00 00		 mov	 DWORD PTR _fi$[ebp+12], 0
  00027	c7 45 fc 00 00
	00 00		 mov	 DWORD PTR _fi$[ebp+16], 0
  0002e	ff 15 00 00 00
	00		 call	 DWORD PTR __imp__FlashWindowEx@4

; 1287 : }

  00034	8b e5		 mov	 esp, ebp
  00036	5d		 pop	 ebp
  00037	c3		 ret	 0
?FlashApplication@CPythonApplication@@QAEXXZ ENDP	; CPythonApplication::FlashApplication
_TEXT	ENDS
; Function compile flags: /Ogtp
; File C:\Anka2Project\Anka2Project\Source\Binary\source\UserInterface\PythonApplication.cpp
;	COMDAT ?MultiFarmBlockIcon@CPythonApplication@@QAEXE@Z
_TEXT	SEGMENT
_bStatus$ = 8						; size = 1
?MultiFarmBlockIcon@CPythonApplication@@QAEXE@Z PROC	; CPythonApplication::MultiFarmBlockIcon, COMDAT
; _this$ = ecx

; 1292 : {

  00000	55		 push	 ebp
  00001	8b ec		 mov	 ebp, esp

; 1293 : 	HICON exeIcon = bStatus ? LoadIcon(ms_hInstance, MAKEINTRESOURCE(IDI_METIN2)) : LoadIcon(ms_hInstance, MAKEINTRESOURCE(BLOCK_METIN2));

  00003	80 7d 08 00	 cmp	 BYTE PTR _bStatus$[ebp], 0
  00007	56		 push	 esi
  00008	8b f1		 mov	 esi, ecx
  0000a	74 04		 je	 SHORT $LN3@MultiFarmB
  0000c	6a 64		 push	 100			; 00000064H
  0000e	eb 05		 jmp	 SHORT $LN6@MultiFarmB
$LN3@MultiFarmB:
  00010	68 c7 00 00 00	 push	 199			; 000000c7H
$LN6@MultiFarmB:

; 1294 : 	SendMessage(GetWindowHandle(), WM_SETICON, ICON_BIG, (LPARAM)exeIcon);

  00015	ff 35 00 00 00
	00		 push	 DWORD PTR ?ms_hInstance@CMSWindow@@1PAUHINSTANCE__@@A ; CMSWindow::ms_hInstance
  0001b	ff 15 00 00 00
	00		 call	 DWORD PTR __imp__LoadIconA@8
  00021	50		 push	 eax
  00022	6a 01		 push	 1
  00024	68 80 00 00 00	 push	 128			; 00000080H
  00029	8b ce		 mov	 ecx, esi
  0002b	e8 00 00 00 00	 call	 ?GetWindowHandle@CMSWindow@@QAEPAUHWND__@@XZ ; CMSWindow::GetWindowHandle
  00030	50		 push	 eax
  00031	ff 15 00 00 00
	00		 call	 DWORD PTR __imp__SendMessageA@16
  00037	5e		 pop	 esi

; 1295 : }

  00038	5d		 pop	 ebp
  00039	c2 04 00	 ret	 4
?MultiFarmBlockIcon@CPythonApplication@@QAEXE@Z ENDP	; CPythonApplication::MultiFarmBlockIcon
_TEXT	ENDS
; Function compile flags: /Ogtp
; File C:\Anka2Project\Anka2Project\Source\Binary\source\UserInterface\PythonApplication.cpp
; File C:\Anka2Project\Anka2Project\Source\Binary\source\eterBase\Singleton.h
; File C:\Anka2Project\Anka2Project\Source\Binary\source\UserInterface\PythonApplication.cpp
;	COMDAT ?Destroy@CPythonApplication@@QAEXXZ
_TEXT	SEGMENT
_sStickKeys$ = -8					; size = 8
?Destroy@CPythonApplication@@QAEXXZ PROC		; CPythonApplication::Destroy, COMDAT
; _this$ = ecx

; 1299 : {

  00000	55		 push	 ebp
  00001	8b ec		 mov	 ebp, esp
  00003	83 ec 0c	 sub	 esp, 12			; 0000000cH
  00006	56		 push	 esi
  00007	8b f1		 mov	 esi, ecx

; 1300 : 	WebBrowser_Destroy();

  00009	e8 00 00 00 00	 call	 _WebBrowser_Destroy

; 1301 : 
; 1302 : 	CGrannyMaterial::DestroySphereMap();

  0000e	e8 00 00 00 00	 call	 ?DestroySphereMap@CGrannyMaterial@@SAXXZ ; CGrannyMaterial::DestroySphereMap

; 1303 : 
; 1304 : 	m_kWndMgr.Destroy();

  00013	8d 8e f8 01 00
	00		 lea	 ecx, DWORD PTR [esi+504]
  00019	e8 00 00 00 00	 call	 ?Destroy@CWindowManager@UI@@QAEXXZ ; UI::CWindowManager::Destroy
; File C:\Anka2Project\Anka2Project\Source\Binary\source\eterBase\Singleton.h

; 26   : 		assert(ms_singleton);

  0001e	8b 0d 00 00 00
	00		 mov	 ecx, DWORD PTR ?ms_singleton@?$CSingleton@VCPythonSystem@@@@0PAVCPythonSystem@@A ; CSingleton<CPythonSystem>::ms_singleton
  00024	85 c9		 test	 ecx, ecx
  00026	75 1a		 jne	 SHORT $LN5@Destroy
  00028	6a 1a		 push	 26			; 0000001aH
  0002a	68 00 00 00 00	 push	 OFFSET ??_C@_1IO@CAJLEEOI@?$AAC?$AA?3?$AA?2?$AAA?$AAn?$AAk?$AAa?$AA2?$AAP?$AAr?$AAo?$AAj?$AAe?$AAc?$AAt@
  0002f	68 00 00 00 00	 push	 OFFSET ??_C@_1BK@FMEHPMFE@?$AAm?$AAs?$AA_?$AAs?$AAi?$AAn?$AAg?$AAl?$AAe?$AAt?$AAo?$AAn@
  00034	e8 00 00 00 00	 call	 __wassert
  00039	8b 0d 00 00 00
	00		 mov	 ecx, DWORD PTR ?ms_singleton@?$CSingleton@VCPythonSystem@@@@0PAVCPythonSystem@@A ; CSingleton<CPythonSystem>::ms_singleton
  0003f	83 c4 0c	 add	 esp, 12			; 0000000cH
$LN5@Destroy:
; File C:\Anka2Project\Anka2Project\Source\Binary\source\UserInterface\PythonApplication.cpp

; 1306 : 	CPythonSystem::Instance().SaveConfig();

  00042	e8 00 00 00 00	 call	 ?SaveConfig@CPythonSystem@@QAE_NXZ ; CPythonSystem::SaveConfig

; 1307 : 
; 1308 : #ifdef ENABLE_RENDER_TARGET
; 1309 : 	m_kRenderTargetManager.Destroy();

  00047	8d 8e 50 d3 03
	00		 lea	 ecx, DWORD PTR [esi+250704]
  0004d	e8 00 00 00 00	 call	 ?Destroy@CRenderTargetManager@@QAEXXZ ; CRenderTargetManager::Destroy

; 1310 : #endif
; 1311 : 
; 1312 : 	DestroyCollisionInstanceSystem();

  00052	e8 00 00 00 00	 call	 ?DestroyCollisionInstanceSystem@@YAXXZ ; DestroyCollisionInstanceSystem

; 1313 : 
; 1314 : 	m_pySystem.SaveInterfaceStatus();

  00057	8d 8e d0 aa 03
	00		 lea	 ecx, DWORD PTR [esi+240336]
  0005d	e8 00 00 00 00	 call	 ?SaveInterfaceStatus@CPythonSystem@@QAEXXZ ; CPythonSystem::SaveInterfaceStatus

; 1315 : 
; 1316 : 	m_pyEventManager.Destroy();

  00062	8d 8e 38 8d 03
	00		 lea	 ecx, DWORD PTR [esi+232760]
  00068	e8 00 00 00 00	 call	 ?Destroy@CPythonEventManager@@QAEXXZ ; CPythonEventManager::Destroy

; 1317 : 	m_FlyingManager.Destroy();

  0006d	8d 8e 64 01 00
	00		 lea	 ecx, DWORD PTR [esi+356]
  00073	e8 00 00 00 00	 call	 ?Destroy@CFlyingManager@@QAEXXZ ; CFlyingManager::Destroy

; 1318 : 
; 1319 : 	m_pyMiniMap.Destroy();

  00078	8d 8e 2c 7f 03
	00		 lea	 ecx, DWORD PTR [esi+229164]
  0007e	e8 00 00 00 00	 call	 ?Destroy@CPythonMiniMap@@QAEXXZ ; CPythonMiniMap::Destroy

; 1320 : 
; 1321 : 	m_pyTextTail.Destroy();

  00083	8d 8e c0 7e 03
	00		 lea	 ecx, DWORD PTR [esi+229056]
  00089	e8 00 00 00 00	 call	 ?Destroy@CPythonTextTail@@QAEXXZ ; CPythonTextTail::Destroy

; 1322 : 	m_pyChat.Destroy();

  0008e	8d 8e 90 7d 03
	00		 lea	 ecx, DWORD PTR [esi+228752]
  00094	e8 00 00 00 00	 call	 ?Destroy@CPythonChat@@QAEXXZ ; CPythonChat::Destroy

; 1323 : 	m_kChrMgr.Destroy();

  00099	8b 86 c8 02 00
	00		 mov	 eax, DWORD PTR [esi+712]
  0009f	8d 8e c8 02 00
	00		 lea	 ecx, DWORD PTR [esi+712]
  000a5	ff 50 04	 call	 DWORD PTR [eax+4]

; 1324 : 	m_RaceManager.Destroy();

  000a8	8d 8e 88 01 00
	00		 lea	 ecx, DWORD PTR [esi+392]
  000ae	e8 00 00 00 00	 call	 ?Destroy@CRaceManager@@QAEXXZ ; CRaceManager::Destroy

; 1325 : 
; 1326 : 	m_pyItem.Destroy();

  000b3	8d 8e 34 3f 02
	00		 lea	 ecx, DWORD PTR [esi+147252]
  000b9	e8 00 00 00 00	 call	 ?Destroy@CPythonItem@@QAEXXZ ; CPythonItem::Destroy

; 1327 : 	m_kItemMgr.Destroy();

  000be	8d 8e dc 01 00
	00		 lea	 ecx, DWORD PTR [esi+476]
  000c4	e8 00 00 00 00	 call	 ?Destroy@CItemManager@@QAEXXZ ; CItemManager::Destroy

; 1328 : 
; 1329 : 	m_pyBackground.Destroy();

  000c9	8d 8e b8 8d 03
	00		 lea	 ecx, DWORD PTR [esi+232888]
  000cf	e8 00 00 00 00	 call	 ?Destroy@CPythonBackground@@QAEXXZ ; CPythonBackground::Destroy

; 1330 : 
; 1331 : 	m_kEftMgr.Destroy();

  000d4	8d 8e 9c 02 00
	00		 lea	 ecx, DWORD PTR [esi+668]
  000da	e8 00 00 00 00	 call	 ?Destroy@CEffectManager@@QAEXXZ ; CEffectManager::Destroy

; 1332 : 	m_LightManager.Destroy();

  000df	8d 8e 84 00 00
	00		 lea	 ecx, DWORD PTR [esi+132]
  000e5	e8 00 00 00 00	 call	 ?Destroy@CLightManager@@QAEXXZ ; CLightManager::Destroy

; 1333 : 
; 1334 : 	DefaultFont_Cleanup();

  000ea	e8 00 00 00 00	 call	 ?DefaultFont_Cleanup@@YAXXZ ; DefaultFont_Cleanup

; 1335 : 
; 1336 : 	GrannyDestroySharedDeformBuffer();

  000ef	e8 00 00 00 00	 call	 ?GrannyDestroySharedDeformBuffer@@YAXXZ ; GrannyDestroySharedDeformBuffer

; 1337 : 
; 1338 : 	m_pyGraphic.Destroy();

  000f4	8d 8e 84 07 00
	00		 lea	 ecx, DWORD PTR [esi+1924]
  000fa	e8 00 00 00 00	 call	 ?Destroy@CPythonGraphic@@QAEXXZ ; CPythonGraphic::Destroy

; 1339 : 
; 1340 : #ifdef ENABLE_DISCORD_RPC
; 1341 : 	m_pyNetworkStream.Discord_Close();

  000ff	e8 00 00 00 00	 call	 ?Discord_Close@CPythonNetworkStream@@QAEXXZ ; CPythonNetworkStream::Discord_Close

; 1342 : #endif
; 1343 : 
; 1344 : 	m_pyRes.Destroy();

  00104	8d 8e 14 a4 03
	00		 lea	 ecx, DWORD PTR [esi+238612]
  0010a	e8 00 00 00 00	 call	 ?Destroy@CPythonResource@@QAEXXZ ; CPythonResource::Destroy

; 1345 : 
; 1346 : 	m_kGuildMarkDownloader.Disconnect();

  0010f	8d 8e 88 a5 03
	00		 lea	 ecx, DWORD PTR [esi+238984]
  00115	e8 00 00 00 00	 call	 ?Disconnect@CNetworkStream@@QAEXXZ ; CNetworkStream::Disconnect

; 1347 : 
; 1348 : 	CGrannyModelInstance::DestroySystem();

  0011a	e8 00 00 00 00	 call	 ?DestroySystem@CGrannyModelInstance@@SAXXZ ; CGrannyModelInstance::DestroySystem

; 1349 : 	CGraphicImageInstance::DestroySystem();

  0011f	e8 00 00 00 00	 call	 ?DestroySystem@CGraphicImageInstance@@SAXXZ ; CGraphicImageInstance::DestroySystem

; 1350 : 
; 1351 : 	m_SoundManager.Destroy();

  00124	8d 8e f0 00 00
	00		 lea	 ecx, DWORD PTR [esi+240]
  0012a	e8 00 00 00 00	 call	 ?Destroy@CSoundManager@@QAEXXZ ; CSoundManager::Destroy

; 1352 : 	m_grpDevice.Destroy();

  0012f	8d 8e b4 aa 03
	00		 lea	 ecx, DWORD PTR [esi+240308]
  00135	e8 00 00 00 00	 call	 ?Destroy@CGraphicDevice@@QAEXXZ ; CGraphicDevice::Destroy

; 1353 : 
; 1354 : 	CAttributeInstance::DestroySystem();

  0013a	e8 00 00 00 00	 call	 ?DestroySystem@CAttributeInstance@@SAXXZ ; CAttributeInstance::DestroySystem

; 1355 : 	CTextFileLoader::DestroySystem();

  0013f	e8 00 00 00 00	 call	 ?DestroySystem@CTextFileLoader@@SAXXZ ; CTextFileLoader::DestroySystem

; 1356 : 	DestroyCursors();

  00144	8b ce		 mov	 ecx, esi
  00146	e8 00 00 00 00	 call	 ?DestroyCursors@CPythonApplication@@QAEXXZ ; CPythonApplication::DestroyCursors

; 1357 : 
; 1358 : 	CMSApplication::Destroy();

  0014b	8b ce		 mov	 ecx, esi
  0014d	e8 00 00 00 00	 call	 ?Destroy@CMSWindow@@QAEXXZ ; CMSWindow::Destroy

; 1359 : 
; 1360 : 	STICKYKEYS sStickKeys;
; 1361 : 	memset(&sStickKeys, 0, sizeof(sStickKeys));
; 1362 : 	sStickKeys.cbSize = sizeof(sStickKeys);
; 1363 : 	sStickKeys.dwFlags = m_dwStickyKeysFlag;

  00152	8b 86 f8 d7 03
	00		 mov	 eax, DWORD PTR [esi+251896]

; 1364 : 	SystemParametersInfo( SPI_SETSTICKYKEYS, sizeof(sStickKeys), &sStickKeys, 0 );

  00158	6a 00		 push	 0
  0015a	89 45 fc	 mov	 DWORD PTR _sStickKeys$[ebp+4], eax
  0015d	8d 45 f8	 lea	 eax, DWORD PTR _sStickKeys$[ebp]
  00160	50		 push	 eax
  00161	6a 08		 push	 8
  00163	6a 3b		 push	 59			; 0000003bH
  00165	c7 45 f8 08 00
	00 00		 mov	 DWORD PTR _sStickKeys$[ebp], 8
  0016c	ff 15 00 00 00
	00		 call	 DWORD PTR __imp__SystemParametersInfoA@16

; 1365 : }

  00172	5e		 pop	 esi
  00173	8b e5		 mov	 esp, ebp
  00175	5d		 pop	 ebp
  00176	c3		 ret	 0
?Destroy@CPythonApplication@@QAEXXZ ENDP		; CPythonApplication::Destroy
_TEXT	ENDS
END
