; Listing generated by Microsoft (R) Optimizing Compiler Version 19.44.35219.0 

	TITLE	c:\anka2project\anka2project\source\binary\vs_files\userinterface\release\pythonminimap.obj
	.686P
	.XMM
	include listing.inc
	.model	flat

INCLUDELIB OLDNAMES

PUBLIC	??_C@_0BJ@NLDABMC@minimap_image_filter?4dds@	; `string'
PUBLIC	??_C@_0BB@FOBBAEMC@D?3?1ymir?5work?1ui?1@	; `string'
PUBLIC	??_C@_0BH@IALDDMEN@minimap?1playermark?4sub@	; `string'
PUBLIC	??_C@_0BD@BAIINCPI@minimap_camera?4dds@		; `string'
PUBLIC	??_C@_0BF@GEPACMNN@minimap?1bossmark?4tga@	; `string'
PUBLIC	??_C@_0BK@GFJGCNLI@minimap?1whitemark_new?4tga@	; `string'
PUBLIC	??_C@_0BB@KFCGGOBN@minimap?1star?4tga@		; `string'
PUBLIC	??_C@_0BC@FFCJCGGB@minimap_range?4tga@		; `string'
PUBLIC	??_C@_0BL@CILDCNBH@?$CFsminimap?1waypoint?$CF02d?4sub@ ; `string'
PUBLIC	??_C@_0CA@MEBBNPAF@?$CFsminimap?1mini_waypoint?$CF02d?4sub@ ; `string'
PUBLIC	??_C@_0CI@EODFAHAD@d?3?1ymir?5work?1ui?1minimap?1GuildAr@ ; `string'
PUBLIC	??_C@_0BN@MHOOKNLA@?$CFsminimap?1targetmark?$CF02d?4sub@ ; `string'
PUBLIC	??_C@_0DJ@IGENJIBL@?5CPythonMiniMap?3?3__LoadAtlasMar@ ; `string'
PUBLIC	??_C@_0BP@BKFPNPKI@locale?1common?1map?1?$CFs_point?4txt@ ; `string'
PUBLIC	??_C@_0N@KOLJCEFK@?$CFs?1atlas?4sub@		; `string'
PUBLIC	??_C@_0CH@JMBNEHDO@d?3?1ymir?5work?1ui?1minimap?1playerm@ ; `string'
PUBLIC	??_C@_0BB@MMPFNHIC@empty_guild_area@		; `string'
PUBLIC	??_C@_0CD@LPCJKMM@d?3?1ymir?5work?1ui?1atlas?1?$CFs?1atlas?4@ ; `string'
PUBLIC	??_C@_0CM@FEJKJGNF@d?3?1ymir?5work?1ui?1minimap?1playerp@ ; `string'
PUBLIC	??_C@_0BI@DPOECPOI@SetCenterPositionAdjust@	; `string'
PUBLIC	??_C@_0DK@DPEMBCDB@?5CPythonMiniMap?3?3AddPartyPositi@ ; `string'
PUBLIC	??_R2?$_Ref_count@USPartyPlayerPosition@CPythonMiniMap@@@std@@8 ; std::_Ref_count<CPythonMiniMap::SPartyPlayerPosition>::`RTTI Base Class Array'
PUBLIC	??_R2?$CSingleton@VCPythonMiniMap@@@@8		; CSingleton<CPythonMiniMap>::`RTTI Base Class Array'
PUBLIC	??_R2CPythonMiniMap@@8				; CPythonMiniMap::`RTTI Base Class Array'
PUBLIC	??_R1A@?0A@EA@?$_Ref_count@USPartyPlayerPosition@CPythonMiniMap@@@std@@8 ; std::_Ref_count<CPythonMiniMap::SPartyPlayerPosition>::`RTTI Base Class Descriptor at (0,-1,0,64)'
PUBLIC	??_R13?0A@EA@?$CSingleton@VCPythonMiniMap@@@@8	; CSingleton<CPythonMiniMap>::`RTTI Base Class Descriptor at (4,-1,0,64)'
PUBLIC	??_R1A@?0A@EA@?$CSingleton@VCPythonMiniMap@@@@8	; CSingleton<CPythonMiniMap>::`RTTI Base Class Descriptor at (0,-1,0,64)'
PUBLIC	??_R1A@?0A@EA@CPythonMiniMap@@8			; CPythonMiniMap::`RTTI Base Class Descriptor at (0,-1,0,64)'
PUBLIC	??_R0?AV?$_Ref_count@USPartyPlayerPosition@CPythonMiniMap@@@std@@@8 ; std::_Ref_count<CPythonMiniMap::SPartyPlayerPosition> `RTTI Type Descriptor'
PUBLIC	??_R3?$_Ref_count@USPartyPlayerPosition@CPythonMiniMap@@@std@@8 ; std::_Ref_count<CPythonMiniMap::SPartyPlayerPosition>::`RTTI Class Hierarchy Descriptor'
PUBLIC	??_R0?AV?$CSingleton@VCPythonMiniMap@@@@@8	; CSingleton<CPythonMiniMap> `RTTI Type Descriptor'
PUBLIC	??_R3?$CSingleton@VCPythonMiniMap@@@@8		; CSingleton<CPythonMiniMap>::`RTTI Class Hierarchy Descriptor'
PUBLIC	??_R0?AVCPythonMiniMap@@@8			; CPythonMiniMap `RTTI Type Descriptor'
PUBLIC	??_R3CPythonMiniMap@@8				; CPythonMiniMap::`RTTI Class Hierarchy Descriptor'
PUBLIC	??_R4?$_Ref_count@USPartyPlayerPosition@CPythonMiniMap@@@std@@6B@ ; std::_Ref_count<CPythonMiniMap::SPartyPlayerPosition>::`RTTI Complete Object Locator'
PUBLIC	??_R4CPythonMiniMap@@6B?$CSingleton@VCPythonMiniMap@@@@@ ; CPythonMiniMap::`RTTI Complete Object Locator'
PUBLIC	??_R4?$CSingleton@VCPythonMiniMap@@@@6B@	; CSingleton<CPythonMiniMap>::`RTTI Complete Object Locator'
PUBLIC	??_R4CPythonMiniMap@@6BCScreen@@@		; CPythonMiniMap::`RTTI Complete Object Locator'
PUBLIC	??_7?$_Ref_count@USPartyPlayerPosition@CPythonMiniMap@@@std@@6B@ ; std::_Ref_count<CPythonMiniMap::SPartyPlayerPosition>::`vftable'
PUBLIC	??_7?$CSingleton@VCPythonMiniMap@@@@6B@		; CSingleton<CPythonMiniMap>::`vftable'
PUBLIC	??_7CPythonMiniMap@@6BCScreen@@@		; CPythonMiniMap::`vftable'
PUBLIC	??_7CPythonMiniMap@@6B?$CSingleton@VCPythonMiniMap@@@@@ ; CPythonMiniMap::`vftable'
PUBLIC	??_R0?AVCResource@@@8				; CResource `RTTI Type Descriptor'
PUBLIC	??_R0?AVCGraphicImage@@@8			; CGraphicImage `RTTI Type Descriptor'
PUBLIC	?_Min_buckets@?$_Hash@V?$_Umap_traits@KV?$shared_ptr@USPartyPlayerPosition@CPythonMiniMap@@@std@@V?$_Uhash_compare@KU?$hash@K@std@@U?$equal_to@K@2@@2@V?$allocator@U?$pair@$$CBKV?$shared_ptr@USPartyPlayerPosition@CPythonMiniMap@@@std@@@std@@@2@$0A@@std@@@std@@2IB ; std::_Hash<std::_Umap_traits<unsigned long,std::shared_ptr<CPythonMiniMap::SPartyPlayerPosition>,std::_Uhash_compare<unsigned long,std::hash<unsigned long>,std::equal_to<unsigned long> >,std::allocator<std::pair<unsigned long const ,std::shared_ptr<CPythonMiniMap::SPartyPlayerPosition> > >,0> >::_Min_buckets
EXTRN	??1CGraphicIndexBuffer@@UAE@XZ:PROC		; CGraphicIndexBuffer::~CGraphicIndexBuffer
EXTRN	??0CGraphicIndexBuffer@@QAE@XZ:PROC		; CGraphicIndexBuffer::CGraphicIndexBuffer
EXTRN	??0CGraphicExpandedImageInstance@@QAE@XZ:PROC	; CGraphicExpandedImageInstance::CGraphicExpandedImageInstance
EXTRN	?Destroy@CGraphicIndexBuffer@@QAEXXZ:PROC	; CGraphicIndexBuffer::Destroy
EXTRN	?Destroy@CGraphicVertexBuffer@@QAEXXZ:PROC	; CGraphicVertexBuffer::Destroy
EXTRN	?IsEmpty@CResource@@QBE_NXZ:PROC		; CResource::IsEmpty
EXTRN	?Destroy@CGraphicImageInstance@@QAEXXZ:PROC	; CGraphicImageInstance::Destroy
EXTRN	?SetScale@CGraphicImageInstance@@QAEXMM@Z:PROC	; CGraphicImageInstance::SetScale
EXTRN	?LoadMultipleTextData@@YA_NPBDAAV?$map@V?$basic_string@DU?$char_traits@D@std@@V?$allocator@D@2@@std@@V?$vector@V?$basic_string@DU?$char_traits@D@std@@V?$allocator@D@2@@std@@V?$allocator@V?$basic_string@DU?$char_traits@D@std@@V?$allocator@D@2@@std@@@2@@2@U?$less@V?$basic_string@DU?$char_traits@D@std@@V?$allocator@D@2@@std@@@2@V?$allocator@U?$pair@$$CBV?$basic_string@DU?$char_traits@D@std@@V?$allocator@D@2@@std@@V?$vector@V?$basic_string@DU?$char_traits@D@std@@V?$allocator@D@2@@std@@V?$allocator@V?$basic_string@DU?$char_traits@D@std@@V?$allocator@D@2@@std@@@2@@2@@std@@@2@@std@@@Z:PROC ; LoadMultipleTextData
EXTRN	?Create@CGraphicIndexBuffer@@QAE_NHW4_D3DFORMAT@@@Z:PROC ; CGraphicIndexBuffer::Create
EXTRN	?Unlock@CGraphicVertexBuffer@@QAE_NXZ:PROC	; CGraphicVertexBuffer::Unlock
EXTRN	?Unlock@CGraphicIndexBuffer@@QAEXXZ:PROC	; CGraphicIndexBuffer::Unlock
EXTRN	?Lock@CGraphicIndexBuffer@@QAE_NPAPAX@Z:PROC	; CGraphicIndexBuffer::Lock
EXTRN	?SetRenderingMode@CGraphicExpandedImageInstance@@QAEXH@Z:PROC ; CGraphicExpandedImageInstance::SetRenderingMode
EXTRN	?GetWidth@CGraphicImage@@QBEHXZ:PROC		; CGraphicImage::GetWidth
EXTRN	?RenderMiniMapFilter@CScreen@@QAEXMMMMHMMABUD3DXVECTOR3@@@Z:PROC ; CScreen::RenderMiniMapFilter
EXTRN	?SetDiffuseColor@CGraphicImageInstance@@QAEXMMMM@Z:PROC ; CGraphicImageInstance::SetDiffuseColor
EXTRN	?SetScale@CGraphicExpandedImageInstance@@QAEXMM@Z:PROC ; CGraphicExpandedImageInstance::SetScale
EXTRN	?SetDiffuseColor@CScreen@@QAEXK@Z:PROC		; CScreen::SetDiffuseColor
EXTRN	?SetRotation@CGraphicExpandedImageInstance@@QAEXM@Z:PROC ; CGraphicExpandedImageInstance::SetRotation
EXTRN	?Render@CGraphicImageInstance@@QAEXPAUtagRECT@@@Z:PROC ; CGraphicImageInstance::Render
EXTRN	?IsEmpty@CGraphicImageInstance@@QBE_NXZ:PROC	; CGraphicImageInstance::IsEmpty
EXTRN	?DrawIndexedPrimitive@CStateManager@@QAEJW4_D3DPRIMITIVETYPE@@IIII@Z:PROC ; CStateManager::DrawIndexedPrimitive
EXTRN	?GetD3DIndexBuffer@CGraphicIndexBuffer@@QBEPAUIDirect3DIndexBuffer8@@XZ:PROC ; CGraphicIndexBuffer::GetD3DIndexBuffer
EXTRN	?SetPosition@CGraphicImageInstance@@QAEXMM@Z:PROC ; CGraphicImageInstance::SetPosition
EXTRN	?RestoreTextureStageState@CStateManager@@QAEXKW4_D3DTEXTURESTAGESTATETYPE@@@Z:PROC ; CStateManager::RestoreTextureStageState
EXTRN	?SetStreamSource@CStateManager@@QAEXIPAUIDirect3DVertexBuffer8@@I@Z:PROC ; CStateManager::SetStreamSource
EXTRN	?SetIndices@CStateManager@@QAEXPAUIDirect3DIndexBuffer8@@I@Z:PROC ; CStateManager::SetIndices
EXTRN	?SaveTextureStageState@CStateManager@@QAEXKW4_D3DTEXTURESTAGESTATETYPE@@K@Z:PROC ; CStateManager::SaveTextureStageState
EXTRN	?SetVertexShader@CStateManager@@QAEXK@Z:PROC	; CStateManager::SetVertexShader
EXTRN	?GetTexturePointer@CGraphicImageInstance@@QAEPAVCGraphicTexture@@XZ:PROC ; CGraphicImageInstance::GetTexturePointer
EXTRN	?GetHeight@CGraphicImageInstance@@QAEHXZ:PROC	; CGraphicImageInstance::GetHeight
EXTRN	?GetWidth@CGraphicImageInstance@@QAEHXZ:PROC	; CGraphicImageInstance::GetWidth
EXTRN	?GetLinearInterpolation@@YAMMMM@Z:PROC		; GetLinearInterpolation
EXTRN	?IsMapOutdoor@CMapManager@@QAE_NXZ:PROC		; CMapManager::IsMapOutdoor
EXTRN	?GetTerrainPointer@CMapOutdoor@@QAEHEPAPAVCTerrain@@@Z:PROC ; CMapOutdoor::GetTerrainPointer
EXTRN	?Destroy@CGraphicExpandedImageInstance@@QAEXXZ:PROC ; CGraphicExpandedImageInstance::Destroy
EXTRN	??1CGraphicExpandedImageInstance@@UAE@XZ:PROC	; CGraphicExpandedImageInstance::~CGraphicExpandedImageInstance
EXTRN	??0CGraphicVertexBuffer@@QAE@XZ:PROC		; CGraphicVertexBuffer::CGraphicVertexBuffer
EXTRN	??1CGraphicVertexBuffer@@UAE@XZ:PROC		; CGraphicVertexBuffer::~CGraphicVertexBuffer
EXTRN	??1CGraphicImageInstance@@UAE@XZ:PROC		; CGraphicImageInstance::~CGraphicImageInstance
EXTRN	??0CGraphicImageInstance@@QAE@XZ:PROC		; CGraphicImageInstance::CGraphicImageInstance
;	COMDAT ?_Min_buckets@?$_Hash@V?$_Umap_traits@KV?$shared_ptr@USPartyPlayerPosition@CPythonMiniMap@@@std@@V?$_Uhash_compare@KU?$hash@K@std@@U?$equal_to@K@2@@2@V?$allocator@U?$pair@$$CBKV?$shared_ptr@USPartyPlayerPosition@CPythonMiniMap@@@std@@@std@@@2@$0A@@std@@@std@@2IB
CONST	SEGMENT
?_Min_buckets@?$_Hash@V?$_Umap_traits@KV?$shared_ptr@USPartyPlayerPosition@CPythonMiniMap@@@std@@V?$_Uhash_compare@KU?$hash@K@std@@U?$equal_to@K@2@@2@V?$allocator@U?$pair@$$CBKV?$shared_ptr@USPartyPlayerPosition@CPythonMiniMap@@@std@@@std@@@2@$0A@@std@@@std@@2IB DD 08H ; std::_Hash<std::_Umap_traits<unsigned long,std::shared_ptr<CPythonMiniMap::SPartyPlayerPosition>,std::_Uhash_compare<unsigned long,std::hash<unsigned long>,std::equal_to<unsigned long> >,std::allocator<std::pair<unsigned long const ,std::shared_ptr<CPythonMiniMap::SPartyPlayerPosition> > >,0> >::_Min_buckets
CONST	ENDS
;	COMDAT ?g_id@?1??AddSignalPoint@CPythonMiniMap@@QAEXMM@Z@4IA
_DATA	SEGMENT
?g_id@?1??AddSignalPoint@CPythonMiniMap@@QAEXMM@Z@4IA DD 0ffH ; `CPythonMiniMap::AddSignalPoint'::`2'::g_id
_DATA	ENDS
;	COMDAT ??_R0?AVCGraphicImage@@@8
data$r	SEGMENT
??_R0?AVCGraphicImage@@@8 DD FLAT:??_7type_info@@6B@	; CGraphicImage `RTTI Type Descriptor'
	DD	00H
	DB	'.?AVCGraphicImage@@', 00H
data$r	ENDS
;	COMDAT ?playerPartyMarkFileName@?4??AddPartyPositionInfo@CPythonMiniMap@@QAEXABUTPartyPosition@@@Z@4PBDB
CONST	SEGMENT
?playerPartyMarkFileName@?4??AddPartyPositionInfo@CPythonMiniMap@@QAEXABUTPartyPosition@@@Z@4PBDB DD FLAT:??_C@_0CM@FEJKJGNF@d?3?1ymir?5work?1ui?1minimap?1playerp@ ; `CPythonMiniMap::AddPartyPositionInfo'::`5'::playerPartyMarkFileName
CONST	ENDS
;	COMDAT ??_R0?AVCResource@@@8
data$r	SEGMENT
??_R0?AVCResource@@@8 DD FLAT:??_7type_info@@6B@	; CResource `RTTI Type Descriptor'
	DD	00H
	DB	'.?AVCResource@@', 00H
data$r	ENDS
;	COMDAT ??_7CPythonMiniMap@@6B?$CSingleton@VCPythonMiniMap@@@@@
CONST	SEGMENT
??_7CPythonMiniMap@@6B?$CSingleton@VCPythonMiniMap@@@@@ DD FLAT:??_R4CPythonMiniMap@@6B?$CSingleton@VCPythonMiniMap@@@@@ ; CPythonMiniMap::`vftable'
	DD	FLAT:??_ECPythonMiniMap@@W3AEPAXI@Z
CONST	ENDS
;	COMDAT ??_7CPythonMiniMap@@6BCScreen@@@
CONST	SEGMENT
??_7CPythonMiniMap@@6BCScreen@@@ DD FLAT:??_R4CPythonMiniMap@@6BCScreen@@@ ; CPythonMiniMap::`vftable'
	DD	FLAT:??_ECPythonMiniMap@@UAEPAXI@Z
CONST	ENDS
;	COMDAT ??_7?$CSingleton@VCPythonMiniMap@@@@6B@
CONST	SEGMENT
??_7?$CSingleton@VCPythonMiniMap@@@@6B@ DD FLAT:??_R4?$CSingleton@VCPythonMiniMap@@@@6B@ ; CSingleton<CPythonMiniMap>::`vftable'
	DD	FLAT:??_E?$CSingleton@VCPythonMiniMap@@@@UAEPAXI@Z
CONST	ENDS
;	COMDAT ??_7?$_Ref_count@USPartyPlayerPosition@CPythonMiniMap@@@std@@6B@
CONST	SEGMENT
??_7?$_Ref_count@USPartyPlayerPosition@CPythonMiniMap@@@std@@6B@ DD FLAT:??_R4?$_Ref_count@USPartyPlayerPosition@CPythonMiniMap@@@std@@6B@ ; std::_Ref_count<CPythonMiniMap::SPartyPlayerPosition>::`vftable'
	DD	FLAT:?_Destroy@?$_Ref_count@USPartyPlayerPosition@CPythonMiniMap@@@std@@EAEXXZ
	DD	FLAT:?_Delete_this@?$_Ref_count@USPartyPlayerPosition@CPythonMiniMap@@@std@@EAEXXZ
	DD	FLAT:??_E?$_Ref_count@USPartyPlayerPosition@CPythonMiniMap@@@std@@UAEPAXI@Z
	DD	FLAT:?_Get_deleter@_Ref_count_base@std@@UBEPAXABVtype_info@@@Z
CONST	ENDS
;	COMDAT ??_R4CPythonMiniMap@@6BCScreen@@@
rdata$r	SEGMENT
??_R4CPythonMiniMap@@6BCScreen@@@ DD 00H		; CPythonMiniMap::`RTTI Complete Object Locator'
	DD	00H
	DD	00H
	DD	FLAT:??_R0?AVCPythonMiniMap@@@8
	DD	FLAT:??_R3CPythonMiniMap@@8
rdata$r	ENDS
;	COMDAT ??_R4?$CSingleton@VCPythonMiniMap@@@@6B@
rdata$r	SEGMENT
??_R4?$CSingleton@VCPythonMiniMap@@@@6B@ DD 00H		; CSingleton<CPythonMiniMap>::`RTTI Complete Object Locator'
	DD	00H
	DD	00H
	DD	FLAT:??_R0?AV?$CSingleton@VCPythonMiniMap@@@@@8
	DD	FLAT:??_R3?$CSingleton@VCPythonMiniMap@@@@8
rdata$r	ENDS
;	COMDAT ??_R4CPythonMiniMap@@6B?$CSingleton@VCPythonMiniMap@@@@@
rdata$r	SEGMENT
??_R4CPythonMiniMap@@6B?$CSingleton@VCPythonMiniMap@@@@@ DD 00H ; CPythonMiniMap::`RTTI Complete Object Locator'
	DD	04H
	DD	00H
	DD	FLAT:??_R0?AVCPythonMiniMap@@@8
	DD	FLAT:??_R3CPythonMiniMap@@8
rdata$r	ENDS
;	COMDAT ??_R4?$_Ref_count@USPartyPlayerPosition@CPythonMiniMap@@@std@@6B@
rdata$r	SEGMENT
??_R4?$_Ref_count@USPartyPlayerPosition@CPythonMiniMap@@@std@@6B@ DD 00H ; std::_Ref_count<CPythonMiniMap::SPartyPlayerPosition>::`RTTI Complete Object Locator'
	DD	00H
	DD	00H
	DD	FLAT:??_R0?AV?$_Ref_count@USPartyPlayerPosition@CPythonMiniMap@@@std@@@8
	DD	FLAT:??_R3?$_Ref_count@USPartyPlayerPosition@CPythonMiniMap@@@std@@8
rdata$r	ENDS
;	COMDAT ??_R3CPythonMiniMap@@8
rdata$r	SEGMENT
??_R3CPythonMiniMap@@8 DD 00H				; CPythonMiniMap::`RTTI Class Hierarchy Descriptor'
	DD	01H
	DD	05H
	DD	FLAT:??_R2CPythonMiniMap@@8
rdata$r	ENDS
;	COMDAT ??_R0?AVCPythonMiniMap@@@8
data$rs	SEGMENT
??_R0?AVCPythonMiniMap@@@8 DD FLAT:??_7type_info@@6B@	; CPythonMiniMap `RTTI Type Descriptor'
	DD	00H
	DB	'.?AVCPythonMiniMap@@', 00H
data$rs	ENDS
;	COMDAT ??_R3?$CSingleton@VCPythonMiniMap@@@@8
rdata$r	SEGMENT
??_R3?$CSingleton@VCPythonMiniMap@@@@8 DD 00H		; CSingleton<CPythonMiniMap>::`RTTI Class Hierarchy Descriptor'
	DD	00H
	DD	01H
	DD	FLAT:??_R2?$CSingleton@VCPythonMiniMap@@@@8
rdata$r	ENDS
;	COMDAT ??_R0?AV?$CSingleton@VCPythonMiniMap@@@@@8
data$rs	SEGMENT
??_R0?AV?$CSingleton@VCPythonMiniMap@@@@@8 DD FLAT:??_7type_info@@6B@ ; CSingleton<CPythonMiniMap> `RTTI Type Descriptor'
	DD	00H
	DB	'.?AV?$CSingleton@VCPythonMiniMap@@@@', 00H
data$rs	ENDS
;	COMDAT ??_R3?$_Ref_count@USPartyPlayerPosition@CPythonMiniMap@@@std@@8
rdata$r	SEGMENT
??_R3?$_Ref_count@USPartyPlayerPosition@CPythonMiniMap@@@std@@8 DD 00H ; std::_Ref_count<CPythonMiniMap::SPartyPlayerPosition>::`RTTI Class Hierarchy Descriptor'
	DD	00H
	DD	02H
	DD	FLAT:??_R2?$_Ref_count@USPartyPlayerPosition@CPythonMiniMap@@@std@@8
rdata$r	ENDS
;	COMDAT ??_R0?AV?$_Ref_count@USPartyPlayerPosition@CPythonMiniMap@@@std@@@8
data$rs	SEGMENT
??_R0?AV?$_Ref_count@USPartyPlayerPosition@CPythonMiniMap@@@std@@@8 DD FLAT:??_7type_info@@6B@ ; std::_Ref_count<CPythonMiniMap::SPartyPlayerPosition> `RTTI Type Descriptor'
	DD	00H
	DB	'.?AV?$_Ref_count@USPartyPlayerPosition@CPythonMiniMap@@@'
	DB	'std@@', 00H
data$rs	ENDS
;	COMDAT ??_R1A@?0A@EA@CPythonMiniMap@@8
rdata$r	SEGMENT
??_R1A@?0A@EA@CPythonMiniMap@@8 DD FLAT:??_R0?AVCPythonMiniMap@@@8 ; CPythonMiniMap::`RTTI Base Class Descriptor at (0,-1,0,64)'
	DD	04H
	DD	00H
	DD	0ffffffffH
	DD	00H
	DD	040H
	DD	FLAT:??_R3CPythonMiniMap@@8
rdata$r	ENDS
;	COMDAT ??_R1A@?0A@EA@?$CSingleton@VCPythonMiniMap@@@@8
rdata$r	SEGMENT
??_R1A@?0A@EA@?$CSingleton@VCPythonMiniMap@@@@8 DD FLAT:??_R0?AV?$CSingleton@VCPythonMiniMap@@@@@8 ; CSingleton<CPythonMiniMap>::`RTTI Base Class Descriptor at (0,-1,0,64)'
	DD	00H
	DD	00H
	DD	0ffffffffH
	DD	00H
	DD	040H
	DD	FLAT:??_R3?$CSingleton@VCPythonMiniMap@@@@8
rdata$r	ENDS
;	COMDAT ??_R13?0A@EA@?$CSingleton@VCPythonMiniMap@@@@8
rdata$r	SEGMENT
??_R13?0A@EA@?$CSingleton@VCPythonMiniMap@@@@8 DD FLAT:??_R0?AV?$CSingleton@VCPythonMiniMap@@@@@8 ; CSingleton<CPythonMiniMap>::`RTTI Base Class Descriptor at (4,-1,0,64)'
	DD	00H
	DD	04H
	DD	0ffffffffH
	DD	00H
	DD	040H
	DD	FLAT:??_R3?$CSingleton@VCPythonMiniMap@@@@8
rdata$r	ENDS
;	COMDAT ??_R1A@?0A@EA@?$_Ref_count@USPartyPlayerPosition@CPythonMiniMap@@@std@@8
rdata$r	SEGMENT
??_R1A@?0A@EA@?$_Ref_count@USPartyPlayerPosition@CPythonMiniMap@@@std@@8 DD FLAT:??_R0?AV?$_Ref_count@USPartyPlayerPosition@CPythonMiniMap@@@std@@@8 ; std::_Ref_count<CPythonMiniMap::SPartyPlayerPosition>::`RTTI Base Class Descriptor at (0,-1,0,64)'
	DD	01H
	DD	00H
	DD	0ffffffffH
	DD	00H
	DD	040H
	DD	FLAT:??_R3?$_Ref_count@USPartyPlayerPosition@CPythonMiniMap@@@std@@8
rdata$r	ENDS
;	COMDAT ??_R2CPythonMiniMap@@8
rdata$r	SEGMENT
??_R2CPythonMiniMap@@8 DD FLAT:??_R1A@?0A@EA@CPythonMiniMap@@8 ; CPythonMiniMap::`RTTI Base Class Array'
	DD	FLAT:??_R1A@?0A@EA@CScreen@@8
	DD	FLAT:??_R1A@?0A@EA@CGraphicCollisionObject@@8
	DD	FLAT:??_R1A@?0A@EA@CGraphicBase@@8
	DD	FLAT:??_R13?0A@EA@?$CSingleton@VCPythonMiniMap@@@@8
rdata$r	ENDS
;	COMDAT ??_R2?$CSingleton@VCPythonMiniMap@@@@8
rdata$r	SEGMENT
??_R2?$CSingleton@VCPythonMiniMap@@@@8 DD FLAT:??_R1A@?0A@EA@?$CSingleton@VCPythonMiniMap@@@@8 ; CSingleton<CPythonMiniMap>::`RTTI Base Class Array'
rdata$r	ENDS
;	COMDAT ??_R2?$_Ref_count@USPartyPlayerPosition@CPythonMiniMap@@@std@@8
rdata$r	SEGMENT
??_R2?$_Ref_count@USPartyPlayerPosition@CPythonMiniMap@@@std@@8 DD FLAT:??_R1A@?0A@EA@?$_Ref_count@USPartyPlayerPosition@CPythonMiniMap@@@std@@8 ; std::_Ref_count<CPythonMiniMap::SPartyPlayerPosition>::`RTTI Base Class Array'
	DD	FLAT:??_R1A@?0A@EA@_Ref_count_base@std@@8
rdata$r	ENDS
;	COMDAT ??_C@_0DK@DPEMBCDB@?5CPythonMiniMap?3?3AddPartyPositi@
CONST	SEGMENT
??_C@_0DK@DPEMBCDB@?5CPythonMiniMap?3?3AddPartyPositi@ DB ' CPythonMiniMa'
	DB	'p::AddPartyPositionInfo File Load %s ERROR', 0aH, 00H ; `string'
CONST	ENDS
;	COMDAT ??_C@_0BI@DPOECPOI@SetCenterPositionAdjust@
CONST	SEGMENT
??_C@_0BI@DPOECPOI@SetCenterPositionAdjust@ DB 'SetCenterPositionAdjust', 00H ; `string'
CONST	ENDS
;	COMDAT ??_C@_0CM@FEJKJGNF@d?3?1ymir?5work?1ui?1minimap?1playerp@
CONST	SEGMENT
??_C@_0CM@FEJKJGNF@d?3?1ymir?5work?1ui?1minimap?1playerp@ DB 'd:/ymir wor'
	DB	'k/ui/minimap/playerpartymark.tga', 00H	; `string'
CONST	ENDS
;	COMDAT ??_C@_0CD@LPCJKMM@d?3?1ymir?5work?1ui?1atlas?1?$CFs?1atlas?4@
CONST	SEGMENT
??_C@_0CD@LPCJKMM@d?3?1ymir?5work?1ui?1atlas?1?$CFs?1atlas?4@ DB 'd:/ymir'
	DB	' work/ui/atlas/%s/atlas.sub', 00H		; `string'
CONST	ENDS
;	COMDAT ??_C@_0BB@MMPFNHIC@empty_guild_area@
CONST	SEGMENT
??_C@_0BB@MMPFNHIC@empty_guild_area@ DB 'empty_guild_area', 00H ; `string'
CONST	ENDS
;	COMDAT ??_C@_0CH@JMBNEHDO@d?3?1ymir?5work?1ui?1minimap?1playerm@
CONST	SEGMENT
??_C@_0CH@JMBNEHDO@d?3?1ymir?5work?1ui?1minimap?1playerm@ DB 'd:/ymir wor'
	DB	'k/ui/minimap/playermark.sub', 00H		; `string'
CONST	ENDS
;	COMDAT ??_C@_0N@KOLJCEFK@?$CFs?1atlas?4sub@
CONST	SEGMENT
??_C@_0N@KOLJCEFK@?$CFs?1atlas?4sub@ DB '%s/atlas.sub', 00H ; `string'
CONST	ENDS
;	COMDAT ??_C@_0BP@BKFPNPKI@locale?1common?1map?1?$CFs_point?4txt@
CONST	SEGMENT
??_C@_0BP@BKFPNPKI@locale?1common?1map?1?$CFs_point?4txt@ DB 'locale/comm'
	DB	'on/map/%s_point.txt', 00H			; `string'
CONST	ENDS
;	COMDAT ??_C@_0DJ@IGENJIBL@?5CPythonMiniMap?3?3__LoadAtlasMar@
CONST	SEGMENT
??_C@_0DJ@IGENJIBL@?5CPythonMiniMap?3?3__LoadAtlasMar@ DB ' CPythonMiniMa'
	DB	'p::__LoadAtlasMarkInfo File Load %s ERROR', 0aH, 00H ; `string'
CONST	ENDS
;	COMDAT ??_C@_0BN@MHOOKNLA@?$CFsminimap?1targetmark?$CF02d?4sub@
CONST	SEGMENT
??_C@_0BN@MHOOKNLA@?$CFsminimap?1targetmark?$CF02d?4sub@ DB '%sminimap/ta'
	DB	'rgetmark%02d.sub', 00H			; `string'
CONST	ENDS
;	COMDAT ??_C@_0CI@EODFAHAD@d?3?1ymir?5work?1ui?1minimap?1GuildAr@
CONST	SEGMENT
??_C@_0CI@EODFAHAD@d?3?1ymir?5work?1ui?1minimap?1GuildAr@ DB 'd:/ymir wor'
	DB	'k/ui/minimap/GuildArea01.sub', 00H		; `string'
CONST	ENDS
;	COMDAT ??_C@_0CA@MEBBNPAF@?$CFsminimap?1mini_waypoint?$CF02d?4sub@
CONST	SEGMENT
??_C@_0CA@MEBBNPAF@?$CFsminimap?1mini_waypoint?$CF02d?4sub@ DB '%sminimap'
	DB	'/mini_waypoint%02d.sub', 00H		; `string'
CONST	ENDS
;	COMDAT ??_C@_0BL@CILDCNBH@?$CFsminimap?1waypoint?$CF02d?4sub@
CONST	SEGMENT
??_C@_0BL@CILDCNBH@?$CFsminimap?1waypoint?$CF02d?4sub@ DB '%sminimap/wayp'
	DB	'oint%02d.sub', 00H				; `string'
CONST	ENDS
;	COMDAT ??_C@_0BC@FFCJCGGB@minimap_range?4tga@
CONST	SEGMENT
??_C@_0BC@FFCJCGGB@minimap_range?4tga@ DB 'minimap_range.tga', 00H ; `string'
CONST	ENDS
;	COMDAT ??_C@_0BB@KFCGGOBN@minimap?1star?4tga@
CONST	SEGMENT
??_C@_0BB@KFCGGOBN@minimap?1star?4tga@ DB 'minimap/star.tga', 00H ; `string'
CONST	ENDS
;	COMDAT ??_C@_0BK@GFJGCNLI@minimap?1whitemark_new?4tga@
CONST	SEGMENT
??_C@_0BK@GFJGCNLI@minimap?1whitemark_new?4tga@ DB 'minimap/whitemark_new'
	DB	'.tga', 00H					; `string'
CONST	ENDS
;	COMDAT ??_C@_0BF@GEPACMNN@minimap?1bossmark?4tga@
CONST	SEGMENT
??_C@_0BF@GEPACMNN@minimap?1bossmark?4tga@ DB 'minimap/bossmark.tga', 00H ; `string'
CONST	ENDS
;	COMDAT ??_C@_0BD@BAIINCPI@minimap_camera?4dds@
CONST	SEGMENT
??_C@_0BD@BAIINCPI@minimap_camera?4dds@ DB 'minimap_camera.dds', 00H ; `string'
CONST	ENDS
;	COMDAT ??_C@_0BH@IALDDMEN@minimap?1playermark?4sub@
CONST	SEGMENT
??_C@_0BH@IALDDMEN@minimap?1playermark?4sub@ DB 'minimap/playermark.sub', 00H ; `string'
CONST	ENDS
;	COMDAT ??_C@_0BB@FOBBAEMC@D?3?1ymir?5work?1ui?1@
CONST	SEGMENT
??_C@_0BB@FOBBAEMC@D?3?1ymir?5work?1ui?1@ DB 'D:/ymir work/ui/', 00H ; `string'
CONST	ENDS
;	COMDAT ??_C@_0BJ@NLDABMC@minimap_image_filter?4dds@
CONST	SEGMENT
??_C@_0BJ@NLDABMC@minimap_image_filter?4dds@ DB 'minimap_image_filter.dds'
	DB	00H						; `string'
PUBLIC	_asinf
PUBLIC	?GetD3DVertexBuffer@CGraphicVertexBuffer@@QBEPAUIDirect3DVertexBuffer8@@XZ ; CGraphicVertexBuffer::GetD3DVertexBuffer
PUBLIC	?D3DXColorModulate@@YAPAUD3DXCOLOR@@PAU1@PBU1@1@Z ; D3DXColorModulate
PUBLIC	??_ECPythonMiniMap@@W3AEPAXI@Z			; [thunk]:CPythonMiniMap::`vector deleting destructor'
PUBLIC	??0SAtlasMarkInfo@CPythonMiniMap@@QAE@$$QAU01@@Z ; CPythonMiniMap::SAtlasMarkInfo::SAtlasMarkInfo
PUBLIC	??$_Move_construct_from@USPartyPlayerPosition@CPythonMiniMap@@@?$_Ptr_base@USPartyPlayerPosition@CPythonMiniMap@@@std@@IAEX$$QAV01@@Z ; std::_Ptr_base<CPythonMiniMap::SPartyPlayerPosition>::_Move_construct_from<CPythonMiniMap::SPartyPlayerPosition>
PUBLIC	??$move@AAV?$shared_ptr@USPartyPlayerPosition@CPythonMiniMap@@@std@@@std@@YA$$QAV?$shared_ptr@USPartyPlayerPosition@CPythonMiniMap@@@0@AAV10@@Z ; std::move<std::shared_ptr<CPythonMiniMap::SPartyPlayerPosition> &>
PUBLIC	??$construct_at@V?$_List_unchecked_iterator@V?$_List_val@U?$_List_simple_types@U?$pair@$$CBKV?$shared_ptr@USPartyPlayerPosition@CPythonMiniMap@@@std@@@std@@@std@@@std@@@std@@ABV12@@std@@YAPAV?$_List_unchecked_iterator@V?$_List_val@U?$_List_simple_types@U?$pair@$$CBKV?$shared_ptr@USPartyPlayerPosition@CPythonMiniMap@@@std@@@std@@@std@@@std@@@0@QAV10@ABV10@@Z ; std::construct_at<std::_List_unchecked_iterator<std::_List_val<std::_List_simple_types<std::pair<unsigned long const ,std::shared_ptr<CPythonMiniMap::SPartyPlayerPosition> > > > >,std::_List_unchecked_iterator<std::_List_val<std::_List_simple_types<std::pair<unsigned long const ,std::shared_ptr<CPythonMiniMap::SPartyPlayerPosition> > > > > const &>
PUBLIC	??$addressof@V?$_List_unchecked_iterator@V?$_List_val@U?$_List_simple_types@U?$pair@$$CBKV?$shared_ptr@USPartyPlayerPosition@CPythonMiniMap@@@std@@@std@@@std@@@std@@@std@@@std@@YAPAV?$_List_unchecked_iterator@V?$_List_val@U?$_List_simple_types@U?$pair@$$CBKV?$shared_ptr@USPartyPlayerPosition@CPythonMiniMap@@@std@@@std@@@std@@@std@@@0@AAV10@@Z ; std::addressof<std::_List_unchecked_iterator<std::_List_val<std::_List_simple_types<std::pair<unsigned long const ,std::shared_ptr<CPythonMiniMap::SPartyPlayerPosition> > > > > >
PUBLIC	??$construct_at@USMarkPosition@CPythonMiniMap@@U12@@std@@YAPAUSMarkPosition@CPythonMiniMap@@QAU12@$$QAU12@@Z ; std::construct_at<CPythonMiniMap::SMarkPosition,CPythonMiniMap::SMarkPosition>
PUBLIC	??$construct_at@USAtlasMarkInfo@CPythonMiniMap@@U12@@std@@YAPAUSAtlasMarkInfo@CPythonMiniMap@@QAU12@$$QAU12@@Z ; std::construct_at<CPythonMiniMap::SAtlasMarkInfo,CPythonMiniMap::SAtlasMarkInfo>
PUBLIC	??$construct_at@USGuildAreaInfo@CPythonMiniMap@@U12@@std@@YAPAUSGuildAreaInfo@CPythonMiniMap@@QAU12@$$QAU12@@Z ; std::construct_at<CPythonMiniMap::SGuildAreaInfo,CPythonMiniMap::SGuildAreaInfo>
PUBLIC	??$construct_at@UTSignalPoint@CPythonMiniMap@@U12@@std@@YAPAUTSignalPoint@CPythonMiniMap@@QAU12@$$QAU12@@Z ; std::construct_at<CPythonMiniMap::TSignalPoint,CPythonMiniMap::TSignalPoint>
PUBLIC	??$?0V?$tuple@$$QAV?$basic_string@DU?$char_traits@D@std@@V?$allocator@D@2@@std@@@std@@V?$tuple@$$V@1@$0A@$$Z$S@?$pair@$$CBV?$basic_string@DU?$char_traits@D@std@@V?$allocator@D@2@@std@@V?$vector@V?$basic_string@DU?$char_traits@D@std@@V?$allocator@D@2@@std@@V?$allocator@V?$basic_string@DU?$char_traits@D@std@@V?$allocator@D@2@@std@@@2@@2@@std@@AAE@AAV?$tuple@$$QAV?$basic_string@DU?$char_traits@D@std@@V?$allocator@D@2@@std@@@1@AAV?$tuple@$$V@1@U?$integer_sequence@I$0A@@1@U?$integer_sequence@I$S@1@@Z ; std::pair<std::basic_string<char,std::char_traits<char>,std::allocator<char> > const ,std::vector<std::basic_string<char,std::char_traits<char>,std::allocator<char> >,std::allocator<std::basic_string<char,std::char_traits<char>,std::allocator<char> > > > >::pair<std::basic_string<char,std::char_traits<char>,std::allocator<char> > const ,std::vector<std::basic_string<char,std::char_traits<char>,std::allocator<char> >,std::allocator<std::basic_string<char,std::char_traits<char>,std::allocator<char> > > > ><std::tuple<std::basic_string<char,std::char_traits<char>,std::allocator<char> > &&>,std::tuple<>,0>
PUBLIC	?_Get_first@?$_Compressed_pair@V?$allocator@USMarkPosition@CPythonMiniMap@@@std@@V?$_Vector_val@U?$_Simple_types@USMarkPosition@CPythonMiniMap@@@std@@@2@$00@std@@QBEABV?$allocator@USMarkPosition@CPythonMiniMap@@@2@XZ ; std::_Compressed_pair<std::allocator<CPythonMiniMap::SMarkPosition>,std::_Vector_val<std::_Simple_types<CPythonMiniMap::SMarkPosition> >,1>::_Get_first
PUBLIC	?_Max@?$_Tree_val@U?$_Tree_simple_types@U?$pair@$$CBKUSObserver@CPythonMiniMap@@@std@@@std@@@std@@SAPAU?$_Tree_node@U?$pair@$$CBKUSObserver@CPythonMiniMap@@@std@@PAX@2@PAU32@@Z ; std::_Tree_val<std::_Tree_simple_types<std::pair<unsigned long const ,CPythonMiniMap::SObserver> > >::_Max
PUBLIC	?_Get_first@?$_Compressed_pair@V?$allocator@U?$_Tree_node@U?$pair@$$CBKUSObserver@CPythonMiniMap@@@std@@PAX@std@@@std@@V?$_Tree_val@U?$_Tree_simple_types@U?$pair@$$CBKUSObserver@CPythonMiniMap@@@std@@@std@@@2@$00@std@@QBEABV?$allocator@U?$_Tree_node@U?$pair@$$CBKUSObserver@CPythonMiniMap@@@std@@PAX@std@@@2@XZ ; std::_Compressed_pair<std::allocator<std::_Tree_node<std::pair<unsigned long const ,CPythonMiniMap::SObserver>,void *> >,std::_Tree_val<std::_Tree_simple_types<std::pair<unsigned long const ,CPythonMiniMap::SObserver> > >,1>::_Get_first
PUBLIC	??0?$shared_ptr@USPartyPlayerPosition@CPythonMiniMap@@@std@@QAE@$$QAV01@@Z ; std::shared_ptr<CPythonMiniMap::SPartyPlayerPosition>::shared_ptr<CPythonMiniMap::SPartyPlayerPosition>
PUBLIC	?_Get_first@?$_Compressed_pair@V?$allocator@USAtlasMarkInfo@CPythonMiniMap@@@std@@V?$_Vector_val@U?$_Simple_types@USAtlasMarkInfo@CPythonMiniMap@@@std@@@2@$00@std@@QBEABV?$allocator@USAtlasMarkInfo@CPythonMiniMap@@@2@XZ ; std::_Compressed_pair<std::allocator<CPythonMiniMap::SAtlasMarkInfo>,std::_Vector_val<std::_Simple_types<CPythonMiniMap::SAtlasMarkInfo> >,1>::_Get_first
PUBLIC	?_Get_first@?$_Compressed_pair@V?$allocator@USGuildAreaInfo@CPythonMiniMap@@@std@@V?$_Vector_val@U?$_Simple_types@USGuildAreaInfo@CPythonMiniMap@@@std@@@2@$00@std@@QBEABV?$allocator@USGuildAreaInfo@CPythonMiniMap@@@2@XZ ; std::_Compressed_pair<std::allocator<CPythonMiniMap::SGuildAreaInfo>,std::_Vector_val<std::_Simple_types<CPythonMiniMap::SGuildAreaInfo> >,1>::_Get_first
PUBLIC	?_Get_first@?$_Compressed_pair@V?$allocator@UTSignalPoint@CPythonMiniMap@@@std@@V?$_Vector_val@U?$_Simple_types@UTSignalPoint@CPythonMiniMap@@@std@@@2@$00@std@@QBEABV?$allocator@UTSignalPoint@CPythonMiniMap@@@2@XZ ; std::_Compressed_pair<std::allocator<CPythonMiniMap::TSignalPoint>,std::_Vector_val<std::_Simple_types<CPythonMiniMap::TSignalPoint> >,1>::_Get_first
PUBLIC	?_Get_first@?$_Compressed_pair@V?$allocator@U?$_Tree_node@U?$pair@$$CBV?$basic_string@DU?$char_traits@D@std@@V?$allocator@D@2@@std@@V?$vector@V?$basic_string@DU?$char_traits@D@std@@V?$allocator@D@2@@std@@V?$allocator@V?$basic_string@DU?$char_traits@D@std@@V?$allocator@D@2@@std@@@2@@2@@std@@PAX@std@@@std@@V?$_Tree_val@U?$_Tree_simple_types@U?$pair@$$CBV?$basic_string@DU?$char_traits@D@std@@V?$allocator@D@2@@std@@V?$vector@V?$basic_string@DU?$char_traits@D@std@@V?$allocator@D@2@@std@@V?$allocator@V?$basic_string@DU?$char_traits@D@std@@V?$allocator@D@2@@std@@@2@@2@@std@@@std@@@2@$00@std@@QBEABV?$allocator@U?$_Tree_node@U?$pair@$$CBV?$basic_string@DU?$char_traits@D@std@@V?$allocator@D@2@@std@@V?$vector@V?$basic_string@DU?$char_traits@D@std@@V?$allocator@D@2@@std@@V?$allocator@V?$basic_string@DU?$char_traits@D@std@@V?$allocator@D@2@@std@@@2@@2@@std@@PAX@std@@@2@XZ ; std::_Compressed_pair<std::allocator<std::_Tree_node<std::pair<std::basic_string<char,std::char_traits<char>,std::allocator<char> > const ,std::vector<std::basic_string<char,std::char_traits<char>,std::allocator<char> >,std::allocator<std::basic_string<char,std::char_traits<char>,std::allocator<char> > > > >,void *> >,std::_Tree_val<std::_Tree_simple_types<std::pair<std::basic_string<char,std::char_traits<char>,std::allocator<char> > const ,std::vector<std::basic_string<char,std::char_traits<char>,std::allocator<char> >,std::allocator<std::basic_string<char,std::char_traits<char>,std::allocator<char> > > > > > >,1>::_Get_first
PUBLIC	??$_Get_size_of_n@$0EE@@std@@YAII@Z		; std::_Get_size_of_n<68>
PUBLIC	??$construct_at@PAU?$_List_node@U?$pair@$$CBKV?$shared_ptr@USPartyPlayerPosition@CPythonMiniMap@@@std@@@std@@PAX@std@@AAPAU12@@std@@YAPAPAU?$_List_node@U?$pair@$$CBKV?$shared_ptr@USPartyPlayerPosition@CPythonMiniMap@@@std@@@std@@PAX@0@QAPAU10@AAPAU10@@Z ; std::construct_at<std::_List_node<std::pair<unsigned long const ,std::shared_ptr<CPythonMiniMap::SPartyPlayerPosition> >,void *> *,std::_List_node<std::pair<unsigned long const ,std::shared_ptr<CPythonMiniMap::SPartyPlayerPosition> >,void *> * &>
PUBLIC	??$forward@AAPAU?$_List_node@U?$pair@$$CBKV?$shared_ptr@USPartyPlayerPosition@CPythonMiniMap@@@std@@@std@@PAX@std@@@std@@YAAAPAU?$_List_node@U?$pair@$$CBKV?$shared_ptr@USPartyPlayerPosition@CPythonMiniMap@@@std@@@std@@PAX@0@AAPAU10@@Z ; std::forward<std::_List_node<std::pair<unsigned long const ,std::shared_ptr<CPythonMiniMap::SPartyPlayerPosition> >,void *> * &>
PUBLIC	??$construct_at@PAU?$_Tree_node@U?$pair@$$CBKUSObserver@CPythonMiniMap@@@std@@PAX@std@@ABQAU12@@std@@YAPAPAU?$_Tree_node@U?$pair@$$CBKUSObserver@CPythonMiniMap@@@std@@PAX@0@QAPAU10@ABQAU10@@Z ; std::construct_at<std::_Tree_node<std::pair<unsigned long const ,CPythonMiniMap::SObserver>,void *> *,std::_Tree_node<std::pair<unsigned long const ,CPythonMiniMap::SObserver>,void *> * const &>
PUBLIC	??$forward@ABQAU?$_Tree_node@U?$pair@$$CBKUSObserver@CPythonMiniMap@@@std@@PAX@std@@@std@@YAABQAU?$_Tree_node@U?$pair@$$CBKUSObserver@CPythonMiniMap@@@std@@PAX@0@ABQAU10@@Z ; std::forward<std::_Tree_node<std::pair<unsigned long const ,CPythonMiniMap::SObserver>,void *> * const &>
PUBLIC	??$_Construct_in_place@V?$_List_unchecked_iterator@V?$_List_val@U?$_List_simple_types@U?$pair@$$CBKV?$shared_ptr@USPartyPlayerPosition@CPythonMiniMap@@@std@@@std@@@std@@@std@@@std@@ABV12@@std@@YAXAAV?$_List_unchecked_iterator@V?$_List_val@U?$_List_simple_types@U?$pair@$$CBKV?$shared_ptr@USPartyPlayerPosition@CPythonMiniMap@@@std@@@std@@@std@@@std@@@0@ABV10@@Z ; std::_Construct_in_place<std::_List_unchecked_iterator<std::_List_val<std::_List_simple_types<std::pair<unsigned long const ,std::shared_ptr<CPythonMiniMap::SPartyPlayerPosition> > > > >,std::_List_unchecked_iterator<std::_List_val<std::_List_simple_types<std::pair<unsigned long const ,std::shared_ptr<CPythonMiniMap::SPartyPlayerPosition> > > > > const &>
PUBLIC	??$forward@ABV?$_List_unchecked_iterator@V?$_List_val@U?$_List_simple_types@U?$pair@$$CBKV?$shared_ptr@USPartyPlayerPosition@CPythonMiniMap@@@std@@@std@@@std@@@std@@@std@@@std@@YAABV?$_List_unchecked_iterator@V?$_List_val@U?$_List_simple_types@U?$pair@$$CBKV?$shared_ptr@USPartyPlayerPosition@CPythonMiniMap@@@std@@@std@@@std@@@std@@@0@ABV10@@Z ; std::forward<std::_List_unchecked_iterator<std::_List_val<std::_List_simple_types<std::pair<unsigned long const ,std::shared_ptr<CPythonMiniMap::SPartyPlayerPosition> > > > > const &>
PUBLIC	??$construct_at@PAU?$_Tree_node@U?$pair@$$CBV?$basic_string@DU?$char_traits@D@std@@V?$allocator@D@2@@std@@V?$vector@V?$basic_string@DU?$char_traits@D@std@@V?$allocator@D@2@@std@@V?$allocator@V?$basic_string@DU?$char_traits@D@std@@V?$allocator@D@2@@std@@@2@@2@@std@@PAX@std@@ABQAU12@@std@@YAPAPAU?$_Tree_node@U?$pair@$$CBV?$basic_string@DU?$char_traits@D@std@@V?$allocator@D@2@@std@@V?$vector@V?$basic_string@DU?$char_traits@D@std@@V?$allocator@D@2@@std@@V?$allocator@V?$basic_string@DU?$char_traits@D@std@@V?$allocator@D@2@@std@@@2@@2@@std@@PAX@0@QAPAU10@ABQAU10@@Z ; std::construct_at<std::_Tree_node<std::pair<std::basic_string<char,std::char_traits<char>,std::allocator<char> > const ,std::vector<std::basic_string<char,std::char_traits<char>,std::allocator<char> >,std::allocator<std::basic_string<char,std::char_traits<char>,std::allocator<char> > > > >,void *> *,std::_Tree_node<std::pair<std::basic_string<char,std::char_traits<char>,std::allocator<char> > const ,std::vector<std::basic_string<char,std::char_traits<char>,std::allocator<char> >,std::allocator<std::basic_string<char,std::char_traits<char>,std::allocator<char> > > > >,void *> * const &>
PUBLIC	??$construct@USMarkPosition@CPythonMiniMap@@U12@@?$_Default_allocator_traits@V?$allocator@USMarkPosition@CPythonMiniMap@@@std@@@std@@SAXAAV?$allocator@USMarkPosition@CPythonMiniMap@@@1@QAUSMarkPosition@CPythonMiniMap@@$$QAU34@@Z ; std::_Default_allocator_traits<std::allocator<CPythonMiniMap::SMarkPosition> >::construct<CPythonMiniMap::SMarkPosition,CPythonMiniMap::SMarkPosition>
PUBLIC	??$forward@USMarkPosition@CPythonMiniMap@@@std@@YA$$QAUSMarkPosition@CPythonMiniMap@@AAU12@@Z ; std::forward<CPythonMiniMap::SMarkPosition>
PUBLIC	??$_Copy_memmove_tail@PAUSMarkPosition@CPythonMiniMap@@@std@@YAPAUSMarkPosition@CPythonMiniMap@@QBDQAU12@II@Z ; std::_Copy_memmove_tail<CPythonMiniMap::SMarkPosition *>
PUBLIC	??$move@AAPAUSMarkPosition@CPythonMiniMap@@@std@@YA$$QAPAUSMarkPosition@CPythonMiniMap@@AAPAU12@@Z ; std::move<CPythonMiniMap::SMarkPosition * &>
PUBLIC	??$to_address@USMarkPosition@CPythonMiniMap@@@std@@YAPAUSMarkPosition@CPythonMiniMap@@QAU12@@Z ; std::to_address<CPythonMiniMap::SMarkPosition>
PUBLIC	??$construct@USAtlasMarkInfo@CPythonMiniMap@@U12@@?$_Default_allocator_traits@V?$allocator@USAtlasMarkInfo@CPythonMiniMap@@@std@@@std@@SAXAAV?$allocator@USAtlasMarkInfo@CPythonMiniMap@@@1@QAUSAtlasMarkInfo@CPythonMiniMap@@$$QAU34@@Z ; std::_Default_allocator_traits<std::allocator<CPythonMiniMap::SAtlasMarkInfo> >::construct<CPythonMiniMap::SAtlasMarkInfo,CPythonMiniMap::SAtlasMarkInfo>
PUBLIC	??$forward@USAtlasMarkInfo@CPythonMiniMap@@@std@@YA$$QAUSAtlasMarkInfo@CPythonMiniMap@@AAU12@@Z ; std::forward<CPythonMiniMap::SAtlasMarkInfo>
PUBLIC	??$construct@USGuildAreaInfo@CPythonMiniMap@@U12@@?$_Default_allocator_traits@V?$allocator@USGuildAreaInfo@CPythonMiniMap@@@std@@@std@@SAXAAV?$allocator@USGuildAreaInfo@CPythonMiniMap@@@1@QAUSGuildAreaInfo@CPythonMiniMap@@$$QAU34@@Z ; std::_Default_allocator_traits<std::allocator<CPythonMiniMap::SGuildAreaInfo> >::construct<CPythonMiniMap::SGuildAreaInfo,CPythonMiniMap::SGuildAreaInfo>
PUBLIC	??$forward@USGuildAreaInfo@CPythonMiniMap@@@std@@YA$$QAUSGuildAreaInfo@CPythonMiniMap@@AAU12@@Z ; std::forward<CPythonMiniMap::SGuildAreaInfo>
PUBLIC	??$_Copy_memmove_tail@PAUSGuildAreaInfo@CPythonMiniMap@@@std@@YAPAUSGuildAreaInfo@CPythonMiniMap@@QBDQAU12@II@Z ; std::_Copy_memmove_tail<CPythonMiniMap::SGuildAreaInfo *>
PUBLIC	??$move@AAPAUSGuildAreaInfo@CPythonMiniMap@@@std@@YA$$QAPAUSGuildAreaInfo@CPythonMiniMap@@AAPAU12@@Z ; std::move<CPythonMiniMap::SGuildAreaInfo * &>
PUBLIC	??$to_address@USGuildAreaInfo@CPythonMiniMap@@@std@@YAPAUSGuildAreaInfo@CPythonMiniMap@@QAU12@@Z ; std::to_address<CPythonMiniMap::SGuildAreaInfo>
PUBLIC	??$construct@UTSignalPoint@CPythonMiniMap@@U12@@?$_Default_allocator_traits@V?$allocator@UTSignalPoint@CPythonMiniMap@@@std@@@std@@SAXAAV?$allocator@UTSignalPoint@CPythonMiniMap@@@1@QAUTSignalPoint@CPythonMiniMap@@$$QAU34@@Z ; std::_Default_allocator_traits<std::allocator<CPythonMiniMap::TSignalPoint> >::construct<CPythonMiniMap::TSignalPoint,CPythonMiniMap::TSignalPoint>
PUBLIC	??$forward@UTSignalPoint@CPythonMiniMap@@@std@@YA$$QAUTSignalPoint@CPythonMiniMap@@AAU12@@Z ; std::forward<CPythonMiniMap::TSignalPoint>
PUBLIC	??$_Copy_memmove_tail@PAUTSignalPoint@CPythonMiniMap@@@std@@YAPAUTSignalPoint@CPythonMiniMap@@QBDQAU12@II@Z ; std::_Copy_memmove_tail<CPythonMiniMap::TSignalPoint *>
PUBLIC	??$move@AAPAUTSignalPoint@CPythonMiniMap@@@std@@YA$$QAPAUTSignalPoint@CPythonMiniMap@@AAPAU12@@Z ; std::move<CPythonMiniMap::TSignalPoint * &>
PUBLIC	??$to_address@UTSignalPoint@CPythonMiniMap@@@std@@YAPAUTSignalPoint@CPythonMiniMap@@QAU12@@Z ; std::to_address<CPythonMiniMap::TSignalPoint>
PUBLIC	??$?0$$QAV?$basic_string@DU?$char_traits@D@std@@V?$allocator@D@2@@std@@$$Z$$V@?$pair@$$CBV?$basic_string@DU?$char_traits@D@std@@V?$allocator@D@2@@std@@V?$vector@V?$basic_string@DU?$char_traits@D@std@@V?$allocator@D@2@@std@@V?$allocator@V?$basic_string@DU?$char_traits@D@std@@V?$allocator@D@2@@std@@@2@@2@@std@@QAE@Upiecewise_construct_t@1@V?$tuple@$$QAV?$basic_string@DU?$char_traits@D@std@@V?$allocator@D@2@@std@@@1@V?$tuple@$$V@1@@Z ; std::pair<std::basic_string<char,std::char_traits<char>,std::allocator<char> > const ,std::vector<std::basic_string<char,std::char_traits<char>,std::allocator<char> >,std::allocator<std::basic_string<char,std::char_traits<char>,std::allocator<char> > > > >::pair<std::basic_string<char,std::char_traits<char>,std::allocator<char> > const ,std::vector<std::basic_string<char,std::char_traits<char>,std::allocator<char> >,std::allocator<std::basic_string<char,std::char_traits<char>,std::allocator<char> > > > ><std::basic_string<char,std::char_traits<char>,std::allocator<char> > &&>
PUBLIC	??_G?$pair@$$CBV?$basic_string@DU?$char_traits@D@std@@V?$allocator@D@2@@std@@V?$vector@V?$basic_string@DU?$char_traits@D@std@@V?$allocator@D@2@@std@@V?$allocator@V?$basic_string@DU?$char_traits@D@std@@V?$allocator@D@2@@std@@@2@@2@@std@@QAEPAXI@Z ; std::pair<std::basic_string<char,std::char_traits<char>,std::allocator<char> > const ,std::vector<std::basic_string<char,std::char_traits<char>,std::allocator<char> >,std::allocator<std::basic_string<char,std::char_traits<char>,std::allocator<char> > > > >::`scalar deleting destructor'
PUBLIC	??0SAtlasMarkInfo@CPythonMiniMap@@QAE@ABU01@@Z	; CPythonMiniMap::SAtlasMarkInfo::SAtlasMarkInfo
PUBLIC	?allocate@?$allocator@USMarkPosition@CPythonMiniMap@@@std@@QAEPAUSMarkPosition@CPythonMiniMap@@I@Z ; std::allocator<CPythonMiniMap::SMarkPosition>::allocate
PUBLIC	?capacity@?$vector@USMarkPosition@CPythonMiniMap@@V?$allocator@USMarkPosition@CPythonMiniMap@@@std@@@std@@QBEIXZ ; std::vector<CPythonMiniMap::SMarkPosition,std::allocator<CPythonMiniMap::SMarkPosition> >::capacity
PUBLIC	?_Getal@?$vector@USMarkPosition@CPythonMiniMap@@V?$allocator@USMarkPosition@CPythonMiniMap@@@std@@@std@@ABEABV?$allocator@USMarkPosition@CPythonMiniMap@@@2@XZ ; std::vector<CPythonMiniMap::SMarkPosition,std::allocator<CPythonMiniMap::SMarkPosition> >::_Getal
PUBLIC	?max_size@?$_Default_allocator_traits@V?$allocator@USMarkPosition@CPythonMiniMap@@@std@@@std@@SAIABV?$allocator@USMarkPosition@CPythonMiniMap@@@2@@Z ; std::_Default_allocator_traits<std::allocator<CPythonMiniMap::SMarkPosition> >::max_size
PUBLIC	?_Getal@?$_Tree@V?$_Tmap_traits@KUSObserver@CPythonMiniMap@@U?$less@K@std@@V?$allocator@U?$pair@$$CBKUSObserver@CPythonMiniMap@@@std@@@4@$0A@@std@@@std@@IBEABV?$allocator@U?$_Tree_node@U?$pair@$$CBKUSObserver@CPythonMiniMap@@@std@@PAX@std@@@2@XZ ; std::_Tree<std::_Tmap_traits<unsigned long,CPythonMiniMap::SObserver,std::less<unsigned long>,std::allocator<std::pair<unsigned long const ,CPythonMiniMap::SObserver> >,0> >::_Getal
PUBLIC	??0?$allocator@U?$_Tree_node@U?$pair@$$CBKUSObserver@CPythonMiniMap@@@std@@PAX@std@@@std@@QAE@XZ ; std::allocator<std::_Tree_node<std::pair<unsigned long const ,CPythonMiniMap::SObserver>,void *> >::allocator<std::_Tree_node<std::pair<unsigned long const ,CPythonMiniMap::SObserver>,void *> >
PUBLIC	?deallocate@?$allocator@U?$_Tree_node@U?$pair@$$CBKUSObserver@CPythonMiniMap@@@std@@PAX@std@@@std@@QAEXQAU?$_Tree_node@U?$pair@$$CBKUSObserver@CPythonMiniMap@@@std@@PAX@2@I@Z ; std::allocator<std::_Tree_node<std::pair<unsigned long const ,CPythonMiniMap::SObserver>,void *> >::deallocate
PUBLIC	?allocate@?$allocator@U?$_Tree_node@U?$pair@$$CBKUSObserver@CPythonMiniMap@@@std@@PAX@std@@@std@@QAEPAU?$_Tree_node@U?$pair@$$CBKUSObserver@CPythonMiniMap@@@std@@PAX@2@I@Z ; std::allocator<std::_Tree_node<std::pair<unsigned long const ,CPythonMiniMap::SObserver>,void *> >::allocate
PUBLIC	?max_size@?$_Default_allocator_traits@V?$allocator@U?$_Tree_node@U?$pair@$$CBKUSObserver@CPythonMiniMap@@@std@@PAX@std@@@std@@@std@@SAIABV?$allocator@U?$_Tree_node@U?$pair@$$CBKUSObserver@CPythonMiniMap@@@std@@PAX@std@@@2@@Z ; std::_Default_allocator_traits<std::allocator<std::_Tree_node<std::pair<unsigned long const ,CPythonMiniMap::SObserver>,void *> > >::max_size
PUBLIC	??0?$_Tree_val@U?$_Tree_simple_types@U?$pair@$$CBKUSObserver@CPythonMiniMap@@@std@@@std@@@std@@QAE@XZ ; std::_Tree_val<std::_Tree_simple_types<std::pair<unsigned long const ,CPythonMiniMap::SObserver> > >::_Tree_val<std::_Tree_simple_types<std::pair<unsigned long const ,CPythonMiniMap::SObserver> > >
PUBLIC	?_Extract@?$_Tree_val@U?$_Tree_simple_types@U?$pair@$$CBKUSObserver@CPythonMiniMap@@@std@@@std@@@std@@QAEPAU?$_Tree_node@U?$pair@$$CBKUSObserver@CPythonMiniMap@@@std@@PAX@2@V?$_Tree_unchecked_const_iterator@V?$_Tree_val@U?$_Tree_simple_types@U?$pair@$$CBKUSObserver@CPythonMiniMap@@@std@@@std@@@std@@U_Iterator_base0@2@@2@@Z ; std::_Tree_val<std::_Tree_simple_types<std::pair<unsigned long const ,CPythonMiniMap::SObserver> > >::_Extract
PUBLIC	?_Orphan_ptr@?$_Tree_val@U?$_Tree_simple_types@U?$pair@$$CBKUSObserver@CPythonMiniMap@@@std@@@std@@@std@@QAEXQAU?$_Tree_node@U?$pair@$$CBKUSObserver@CPythonMiniMap@@@std@@PAX@2@@Z ; std::_Tree_val<std::_Tree_simple_types<std::pair<unsigned long const ,CPythonMiniMap::SObserver> > >::_Orphan_ptr
PUBLIC	??0?$_List_val@U?$_List_simple_types@U?$pair@$$CBKV?$shared_ptr@USPartyPlayerPosition@CPythonMiniMap@@@std@@@std@@@std@@@std@@QAE@XZ ; std::_List_val<std::_List_simple_types<std::pair<unsigned long const ,std::shared_ptr<CPythonMiniMap::SPartyPlayerPosition> > > >::_List_val<std::_List_simple_types<std::pair<unsigned long const ,std::shared_ptr<CPythonMiniMap::SPartyPlayerPosition> > > >
PUBLIC	?_Get_first@?$_Compressed_pair@V?$allocator@U?$_List_node@U?$pair@$$CBKV?$shared_ptr@USPartyPlayerPosition@CPythonMiniMap@@@std@@@std@@PAX@std@@@std@@V?$_List_val@U?$_List_simple_types@U?$pair@$$CBKV?$shared_ptr@USPartyPlayerPosition@CPythonMiniMap@@@std@@@std@@@std@@@2@$00@std@@QBEABV?$allocator@U?$_List_node@U?$pair@$$CBKV?$shared_ptr@USPartyPlayerPosition@CPythonMiniMap@@@std@@@std@@PAX@std@@@2@XZ ; std::_Compressed_pair<std::allocator<std::_List_node<std::pair<unsigned long const ,std::shared_ptr<CPythonMiniMap::SPartyPlayerPosition> >,void *> >,std::_List_val<std::_List_simple_types<std::pair<unsigned long const ,std::shared_ptr<CPythonMiniMap::SPartyPlayerPosition> > > >,1>::_Get_first
PUBLIC	?max_size@?$_Default_allocator_traits@V?$allocator@V?$_List_unchecked_iterator@V?$_List_val@U?$_List_simple_types@U?$pair@$$CBKV?$shared_ptr@USPartyPlayerPosition@CPythonMiniMap@@@std@@@std@@@std@@@std@@@std@@@std@@@std@@SAIABV?$allocator@V?$_List_unchecked_iterator@V?$_List_val@U?$_List_simple_types@U?$pair@$$CBKV?$shared_ptr@USPartyPlayerPosition@CPythonMiniMap@@@std@@@std@@@std@@@std@@@std@@@2@@Z ; std::_Default_allocator_traits<std::allocator<std::_List_unchecked_iterator<std::_List_val<std::_List_simple_types<std::pair<unsigned long const ,std::shared_ptr<CPythonMiniMap::SPartyPlayerPosition> > > > > > >::max_size
PUBLIC	??0?$_Vector_val@U?$_Simple_types@V?$_List_unchecked_iterator@V?$_List_val@U?$_List_simple_types@U?$pair@$$CBKV?$shared_ptr@USPartyPlayerPosition@CPythonMiniMap@@@std@@@std@@@std@@@std@@@std@@@std@@@std@@QAE@XZ ; std::_Vector_val<std::_Simple_types<std::_List_unchecked_iterator<std::_List_val<std::_List_simple_types<std::pair<unsigned long const ,std::shared_ptr<CPythonMiniMap::SPartyPlayerPosition> > > > > > >::_Vector_val<std::_Simple_types<std::_List_unchecked_iterator<std::_List_val<std::_List_simple_types<std::pair<unsigned long const ,std::shared_ptr<CPythonMiniMap::SPartyPlayerPosition> > > > > > >
PUBLIC	?_Get_first@?$_Compressed_pair@V?$allocator@V?$_List_unchecked_iterator@V?$_List_val@U?$_List_simple_types@U?$pair@$$CBKV?$shared_ptr@USPartyPlayerPosition@CPythonMiniMap@@@std@@@std@@@std@@@std@@@std@@@std@@V?$_Vector_val@U?$_Simple_types@V?$_List_unchecked_iterator@V?$_List_val@U?$_List_simple_types@U?$pair@$$CBKV?$shared_ptr@USPartyPlayerPosition@CPythonMiniMap@@@std@@@std@@@std@@@std@@@std@@@std@@@2@$00@std@@QBEABV?$allocator@V?$_List_unchecked_iterator@V?$_List_val@U?$_List_simple_types@U?$pair@$$CBKV?$shared_ptr@USPartyPlayerPosition@CPythonMiniMap@@@std@@@std@@@std@@@std@@@std@@@2@XZ ; std::_Compressed_pair<std::allocator<std::_List_unchecked_iterator<std::_List_val<std::_List_simple_types<std::pair<unsigned long const ,std::shared_ptr<CPythonMiniMap::SPartyPlayerPosition> > > > > >,std::_Vector_val<std::_Simple_types<std::_List_unchecked_iterator<std::_List_val<std::_List_simple_types<std::pair<unsigned long const ,std::shared_ptr<CPythonMiniMap::SPartyPlayerPosition> > > > > > >,1>::_Get_first
PUBLIC	?allocate@?$allocator@USAtlasMarkInfo@CPythonMiniMap@@@std@@QAEPAUSAtlasMarkInfo@CPythonMiniMap@@I@Z ; std::allocator<CPythonMiniMap::SAtlasMarkInfo>::allocate
PUBLIC	?capacity@?$vector@USAtlasMarkInfo@CPythonMiniMap@@V?$allocator@USAtlasMarkInfo@CPythonMiniMap@@@std@@@std@@QBEIXZ ; std::vector<CPythonMiniMap::SAtlasMarkInfo,std::allocator<CPythonMiniMap::SAtlasMarkInfo> >::capacity
PUBLIC	?_Getal@?$vector@USAtlasMarkInfo@CPythonMiniMap@@V?$allocator@USAtlasMarkInfo@CPythonMiniMap@@@std@@@std@@ABEABV?$allocator@USAtlasMarkInfo@CPythonMiniMap@@@2@XZ ; std::vector<CPythonMiniMap::SAtlasMarkInfo,std::allocator<CPythonMiniMap::SAtlasMarkInfo> >::_Getal
PUBLIC	?max_size@?$_Default_allocator_traits@V?$allocator@USAtlasMarkInfo@CPythonMiniMap@@@std@@@std@@SAIABV?$allocator@USAtlasMarkInfo@CPythonMiniMap@@@2@@Z ; std::_Default_allocator_traits<std::allocator<CPythonMiniMap::SAtlasMarkInfo> >::max_size
PUBLIC	?allocate@?$allocator@USGuildAreaInfo@CPythonMiniMap@@@std@@QAEPAUSGuildAreaInfo@CPythonMiniMap@@I@Z ; std::allocator<CPythonMiniMap::SGuildAreaInfo>::allocate
PUBLIC	?capacity@?$vector@USGuildAreaInfo@CPythonMiniMap@@V?$allocator@USGuildAreaInfo@CPythonMiniMap@@@std@@@std@@QBEIXZ ; std::vector<CPythonMiniMap::SGuildAreaInfo,std::allocator<CPythonMiniMap::SGuildAreaInfo> >::capacity
PUBLIC	?_Getal@?$vector@USGuildAreaInfo@CPythonMiniMap@@V?$allocator@USGuildAreaInfo@CPythonMiniMap@@@std@@@std@@ABEABV?$allocator@USGuildAreaInfo@CPythonMiniMap@@@2@XZ ; std::vector<CPythonMiniMap::SGuildAreaInfo,std::allocator<CPythonMiniMap::SGuildAreaInfo> >::_Getal
PUBLIC	?max_size@?$_Default_allocator_traits@V?$allocator@USGuildAreaInfo@CPythonMiniMap@@@std@@@std@@SAIABV?$allocator@USGuildAreaInfo@CPythonMiniMap@@@2@@Z ; std::_Default_allocator_traits<std::allocator<CPythonMiniMap::SGuildAreaInfo> >::max_size
PUBLIC	?allocate@?$allocator@UTSignalPoint@CPythonMiniMap@@@std@@QAEPAUTSignalPoint@CPythonMiniMap@@I@Z ; std::allocator<CPythonMiniMap::TSignalPoint>::allocate
PUBLIC	?capacity@?$vector@UTSignalPoint@CPythonMiniMap@@V?$allocator@UTSignalPoint@CPythonMiniMap@@@std@@@std@@QBEIXZ ; std::vector<CPythonMiniMap::TSignalPoint,std::allocator<CPythonMiniMap::TSignalPoint> >::capacity
PUBLIC	?_Getal@?$vector@UTSignalPoint@CPythonMiniMap@@V?$allocator@UTSignalPoint@CPythonMiniMap@@@std@@@std@@ABEABV?$allocator@UTSignalPoint@CPythonMiniMap@@@2@XZ ; std::vector<CPythonMiniMap::TSignalPoint,std::allocator<CPythonMiniMap::TSignalPoint> >::_Getal
PUBLIC	?max_size@?$_Default_allocator_traits@V?$allocator@UTSignalPoint@CPythonMiniMap@@@std@@@std@@SAIABV?$allocator@UTSignalPoint@CPythonMiniMap@@@2@@Z ; std::_Default_allocator_traits<std::allocator<CPythonMiniMap::TSignalPoint> >::max_size
PUBLIC	?_Getal@?$_Tree@V?$_Tmap_traits@V?$basic_string@DU?$char_traits@D@std@@V?$allocator@D@2@@std@@V?$vector@V?$basic_string@DU?$char_traits@D@std@@V?$allocator@D@2@@std@@V?$allocator@V?$basic_string@DU?$char_traits@D@std@@V?$allocator@D@2@@std@@@2@@2@U?$less@V?$basic_string@DU?$char_traits@D@std@@V?$allocator@D@2@@std@@@2@V?$allocator@U?$pair@$$CBV?$basic_string@DU?$char_traits@D@std@@V?$allocator@D@2@@std@@V?$vector@V?$basic_string@DU?$char_traits@D@std@@V?$allocator@D@2@@std@@V?$allocator@V?$basic_string@DU?$char_traits@D@std@@V?$allocator@D@2@@std@@@2@@2@@std@@@2@$0A@@std@@@std@@IBEABV?$allocator@U?$_Tree_node@U?$pair@$$CBV?$basic_string@DU?$char_traits@D@std@@V?$allocator@D@2@@std@@V?$vector@V?$basic_string@DU?$char_traits@D@std@@V?$allocator@D@2@@std@@V?$allocator@V?$basic_string@DU?$char_traits@D@std@@V?$allocator@D@2@@std@@@2@@2@@std@@PAX@std@@@2@XZ ; std::_Tree<std::_Tmap_traits<std::basic_string<char,std::char_traits<char>,std::allocator<char> >,std::vector<std::basic_string<char,std::char_traits<char>,std::allocator<char> >,std::allocator<std::basic_string<char,std::char_traits<char>,std::allocator<char> > > >,std::less<std::basic_string<char,std::char_traits<char>,std::allocator<char> > >,std::allocator<std::pair<std::basic_string<char,std::char_traits<char>,std::allocator<char> > const ,std::vector<std::basic_string<char,std::char_traits<char>,std::allocator<char> >,std::allocator<std::basic_string<char,std::char_traits<char>,std::allocator<char> > > > > >,0> >::_Getal
PUBLIC	??0?$allocator@U?$_Tree_node@U?$pair@$$CBV?$basic_string@DU?$char_traits@D@std@@V?$allocator@D@2@@std@@V?$vector@V?$basic_string@DU?$char_traits@D@std@@V?$allocator@D@2@@std@@V?$allocator@V?$basic_string@DU?$char_traits@D@std@@V?$allocator@D@2@@std@@@2@@2@@std@@PAX@std@@@std@@QAE@XZ ; std::allocator<std::_Tree_node<std::pair<std::basic_string<char,std::char_traits<char>,std::allocator<char> > const ,std::vector<std::basic_string<char,std::char_traits<char>,std::allocator<char> >,std::allocator<std::basic_string<char,std::char_traits<char>,std::allocator<char> > > > >,void *> >::allocator<std::_Tree_node<std::pair<std::basic_string<char,std::char_traits<char>,std::allocator<char> > const ,std::vector<std::basic_string<char,std::char_traits<char>,std::allocator<char> >,std::allocator<std::basic_string<char,std::char_traits<char>,std::allocator<char> > > > >,void *> >
PUBLIC	?deallocate@?$allocator@U?$_Tree_node@U?$pair@$$CBV?$basic_string@DU?$char_traits@D@std@@V?$allocator@D@2@@std@@V?$vector@V?$basic_string@DU?$char_traits@D@std@@V?$allocator@D@2@@std@@V?$allocator@V?$basic_string@DU?$char_traits@D@std@@V?$allocator@D@2@@std@@@2@@2@@std@@PAX@std@@@std@@QAEXQAU?$_Tree_node@U?$pair@$$CBV?$basic_string@DU?$char_traits@D@std@@V?$allocator@D@2@@std@@V?$vector@V?$basic_string@DU?$char_traits@D@std@@V?$allocator@D@2@@std@@V?$allocator@V?$basic_string@DU?$char_traits@D@std@@V?$allocator@D@2@@std@@@2@@2@@std@@PAX@2@I@Z ; std::allocator<std::_Tree_node<std::pair<std::basic_string<char,std::char_traits<char>,std::allocator<char> > const ,std::vector<std::basic_string<char,std::char_traits<char>,std::allocator<char> >,std::allocator<std::basic_string<char,std::char_traits<char>,std::allocator<char> > > > >,void *> >::deallocate
PUBLIC	?allocate@?$allocator@U?$_Tree_node@U?$pair@$$CBV?$basic_string@DU?$char_traits@D@std@@V?$allocator@D@2@@std@@V?$vector@V?$basic_string@DU?$char_traits@D@std@@V?$allocator@D@2@@std@@V?$allocator@V?$basic_string@DU?$char_traits@D@std@@V?$allocator@D@2@@std@@@2@@2@@std@@PAX@std@@@std@@QAEPAU?$_Tree_node@U?$pair@$$CBV?$basic_string@DU?$char_traits@D@std@@V?$allocator@D@2@@std@@V?$vector@V?$basic_string@DU?$char_traits@D@std@@V?$allocator@D@2@@std@@V?$allocator@V?$basic_string@DU?$char_traits@D@std@@V?$allocator@D@2@@std@@@2@@2@@std@@PAX@2@I@Z ; std::allocator<std::_Tree_node<std::pair<std::basic_string<char,std::char_traits<char>,std::allocator<char> > const ,std::vector<std::basic_string<char,std::char_traits<char>,std::allocator<char> >,std::allocator<std::basic_string<char,std::char_traits<char>,std::allocator<char> > > > >,void *> >::allocate
PUBLIC	?max_size@?$_Default_allocator_traits@V?$allocator@U?$_Tree_node@U?$pair@$$CBV?$basic_string@DU?$char_traits@D@std@@V?$allocator@D@2@@std@@V?$vector@V?$basic_string@DU?$char_traits@D@std@@V?$allocator@D@2@@std@@V?$allocator@V?$basic_string@DU?$char_traits@D@std@@V?$allocator@D@2@@std@@@2@@2@@std@@PAX@std@@@std@@@std@@SAIABV?$allocator@U?$_Tree_node@U?$pair@$$CBV?$basic_string@DU?$char_traits@D@std@@V?$allocator@D@2@@std@@V?$vector@V?$basic_string@DU?$char_traits@D@std@@V?$allocator@D@2@@std@@V?$allocator@V?$basic_string@DU?$char_traits@D@std@@V?$allocator@D@2@@std@@@2@@2@@std@@PAX@std@@@2@@Z ; std::_Default_allocator_traits<std::allocator<std::_Tree_node<std::pair<std::basic_string<char,std::char_traits<char>,std::allocator<char> > const ,std::vector<std::basic_string<char,std::char_traits<char>,std::allocator<char> >,std::allocator<std::basic_string<char,std::char_traits<char>,std::allocator<char> > > > >,void *> > >::max_size
PUBLIC	??0?$_Tree_val@U?$_Tree_simple_types@U?$pair@$$CBV?$basic_string@DU?$char_traits@D@std@@V?$allocator@D@2@@std@@V?$vector@V?$basic_string@DU?$char_traits@D@std@@V?$allocator@D@2@@std@@V?$allocator@V?$basic_string@DU?$char_traits@D@std@@V?$allocator@D@2@@std@@@2@@2@@std@@@std@@@std@@QAE@XZ ; std::_Tree_val<std::_Tree_simple_types<std::pair<std::basic_string<char,std::char_traits<char>,std::allocator<char> > const ,std::vector<std::basic_string<char,std::char_traits<char>,std::allocator<char> >,std::allocator<std::basic_string<char,std::char_traits<char>,std::allocator<char> > > > > > >::_Tree_val<std::_Tree_simple_types<std::pair<std::basic_string<char,std::char_traits<char>,std::allocator<char> > const ,std::vector<std::basic_string<char,std::char_traits<char>,std::allocator<char> >,std::allocator<std::basic_string<char,std::char_traits<char>,std::allocator<char> > > > > > >
PUBLIC	?_Get_first@?$_Compressed_pair@U?$less@V?$basic_string@DU?$char_traits@D@std@@V?$allocator@D@2@@std@@@std@@V?$_Compressed_pair@V?$allocator@U?$_Tree_node@U?$pair@$$CBV?$basic_string@DU?$char_traits@D@std@@V?$allocator@D@2@@std@@V?$vector@V?$basic_string@DU?$char_traits@D@std@@V?$allocator@D@2@@std@@V?$allocator@V?$basic_string@DU?$char_traits@D@std@@V?$allocator@D@2@@std@@@2@@2@@std@@PAX@std@@@std@@V?$_Tree_val@U?$_Tree_simple_types@U?$pair@$$CBV?$basic_string@DU?$char_traits@D@std@@V?$allocator@D@2@@std@@V?$vector@V?$basic_string@DU?$char_traits@D@std@@V?$allocator@D@2@@std@@V?$allocator@V?$basic_string@DU?$char_traits@D@std@@V?$allocator@D@2@@std@@@2@@2@@std@@@std@@@2@$00@2@$00@std@@QBEABU?$less@V?$basic_string@DU?$char_traits@D@std@@V?$allocator@D@2@@std@@@2@XZ ; std::_Compressed_pair<std::less<std::basic_string<char,std::char_traits<char>,std::allocator<char> > >,std::_Compressed_pair<std::allocator<std::_Tree_node<std::pair<std::basic_string<char,std::char_traits<char>,std::allocator<char> > const ,std::vector<std::basic_string<char,std::char_traits<char>,std::allocator<char> >,std::allocator<std::basic_string<char,std::char_traits<char>,std::allocator<char> > > > >,void *> >,std::_Tree_val<std::_Tree_simple_types<std::pair<std::basic_string<char,std::char_traits<char>,std::allocator<char> > const ,std::vector<std::basic_string<char,std::char_traits<char>,std::allocator<char> >,std::allocator<std::basic_string<char,std::char_traits<char>,std::allocator<char> > > > > > >,1>,1>::_Get_first
PUBLIC	??0?$_Alloc_construct_ptr@V?$allocator@U?$_Tree_node@U?$pair@$$CBKUSObserver@CPythonMiniMap@@@std@@PAX@std@@@std@@@std@@QAE@AAV?$allocator@U?$_Tree_node@U?$pair@$$CBKUSObserver@CPythonMiniMap@@@std@@PAX@std@@@1@@Z ; std::_Alloc_construct_ptr<std::allocator<std::_Tree_node<std::pair<unsigned long const ,CPythonMiniMap::SObserver>,void *> > >::_Alloc_construct_ptr<std::allocator<std::_Tree_node<std::pair<unsigned long const ,CPythonMiniMap::SObserver>,void *> > >
PUBLIC	?_Allocate@?$_Alloc_construct_ptr@V?$allocator@U?$_Tree_node@U?$pair@$$CBKUSObserver@CPythonMiniMap@@@std@@PAX@std@@@std@@@std@@QAEXXZ ; std::_Alloc_construct_ptr<std::allocator<std::_Tree_node<std::pair<unsigned long const ,CPythonMiniMap::SObserver>,void *> > >::_Allocate
PUBLIC	??0?$_Alloc_construct_ptr@V?$allocator@U?$_Tree_node@U?$pair@$$CBV?$basic_string@DU?$char_traits@D@std@@V?$allocator@D@2@@std@@V?$vector@V?$basic_string@DU?$char_traits@D@std@@V?$allocator@D@2@@std@@V?$allocator@V?$basic_string@DU?$char_traits@D@std@@V?$allocator@D@2@@std@@@2@@2@@std@@PAX@std@@@std@@@std@@QAE@AAV?$allocator@U?$_Tree_node@U?$pair@$$CBV?$basic_string@DU?$char_traits@D@std@@V?$allocator@D@2@@std@@V?$vector@V?$basic_string@DU?$char_traits@D@std@@V?$allocator@D@2@@std@@V?$allocator@V?$basic_string@DU?$char_traits@D@std@@V?$allocator@D@2@@std@@@2@@2@@std@@PAX@std@@@1@@Z ; std::_Alloc_construct_ptr<std::allocator<std::_Tree_node<std::pair<std::basic_string<char,std::char_traits<char>,std::allocator<char> > const ,std::vector<std::basic_string<char,std::char_traits<char>,std::allocator<char> >,std::allocator<std::basic_string<char,std::char_traits<char>,std::allocator<char> > > > >,void *> > >::_Alloc_construct_ptr<std::allocator<std::_Tree_node<std::pair<std::basic_string<char,std::char_traits<char>,std::allocator<char> > const ,std::vector<std::basic_string<char,std::char_traits<char>,std::allocator<char> >,std::allocator<std::basic_string<char,std::char_traits<char>,std::allocator<char> > > > >,void *> > >
PUBLIC	?_Allocate@?$_Alloc_construct_ptr@V?$allocator@U?$_Tree_node@U?$pair@$$CBV?$basic_string@DU?$char_traits@D@std@@V?$allocator@D@2@@std@@V?$vector@V?$basic_string@DU?$char_traits@D@std@@V?$allocator@D@2@@std@@V?$allocator@V?$basic_string@DU?$char_traits@D@std@@V?$allocator@D@2@@std@@@2@@2@@std@@PAX@std@@@std@@@std@@QAEXXZ ; std::_Alloc_construct_ptr<std::allocator<std::_Tree_node<std::pair<std::basic_string<char,std::char_traits<char>,std::allocator<char> > const ,std::vector<std::basic_string<char,std::char_traits<char>,std::allocator<char> >,std::allocator<std::basic_string<char,std::char_traits<char>,std::allocator<char> > > > >,void *> > >::_Allocate
PUBLIC	??0?$_Uninitialized_backout_al@V?$allocator@UTSignalPoint@CPythonMiniMap@@@std@@@std@@QAE@PAUTSignalPoint@CPythonMiniMap@@AAV?$allocator@UTSignalPoint@CPythonMiniMap@@@1@@Z ; std::_Uninitialized_backout_al<std::allocator<CPythonMiniMap::TSignalPoint> >::_Uninitialized_backout_al<std::allocator<CPythonMiniMap::TSignalPoint> >
PUBLIC	??1?$_Uninitialized_backout_al@V?$allocator@UTSignalPoint@CPythonMiniMap@@@std@@@std@@QAE@XZ ; std::_Uninitialized_backout_al<std::allocator<CPythonMiniMap::TSignalPoint> >::~_Uninitialized_backout_al<std::allocator<CPythonMiniMap::TSignalPoint> >
PUBLIC	?_Release@?$_Uninitialized_backout_al@V?$allocator@UTSignalPoint@CPythonMiniMap@@@std@@@std@@QAEPAUTSignalPoint@CPythonMiniMap@@XZ ; std::_Uninitialized_backout_al<std::allocator<CPythonMiniMap::TSignalPoint> >::_Release
PUBLIC	??0?$_Uninitialized_backout_al@V?$allocator@USGuildAreaInfo@CPythonMiniMap@@@std@@@std@@QAE@PAUSGuildAreaInfo@CPythonMiniMap@@AAV?$allocator@USGuildAreaInfo@CPythonMiniMap@@@1@@Z ; std::_Uninitialized_backout_al<std::allocator<CPythonMiniMap::SGuildAreaInfo> >::_Uninitialized_backout_al<std::allocator<CPythonMiniMap::SGuildAreaInfo> >
PUBLIC	??1?$_Uninitialized_backout_al@V?$allocator@USGuildAreaInfo@CPythonMiniMap@@@std@@@std@@QAE@XZ ; std::_Uninitialized_backout_al<std::allocator<CPythonMiniMap::SGuildAreaInfo> >::~_Uninitialized_backout_al<std::allocator<CPythonMiniMap::SGuildAreaInfo> >
PUBLIC	?_Release@?$_Uninitialized_backout_al@V?$allocator@USGuildAreaInfo@CPythonMiniMap@@@std@@@std@@QAEPAUSGuildAreaInfo@CPythonMiniMap@@XZ ; std::_Uninitialized_backout_al<std::allocator<CPythonMiniMap::SGuildAreaInfo> >::_Release
PUBLIC	??0?$_Uninitialized_backout_al@V?$allocator@USAtlasMarkInfo@CPythonMiniMap@@@std@@@std@@QAE@PAUSAtlasMarkInfo@CPythonMiniMap@@AAV?$allocator@USAtlasMarkInfo@CPythonMiniMap@@@1@@Z ; std::_Uninitialized_backout_al<std::allocator<CPythonMiniMap::SAtlasMarkInfo> >::_Uninitialized_backout_al<std::allocator<CPythonMiniMap::SAtlasMarkInfo> >
PUBLIC	??1?$_Uninitialized_backout_al@V?$allocator@USAtlasMarkInfo@CPythonMiniMap@@@std@@@std@@QAE@XZ ; std::_Uninitialized_backout_al<std::allocator<CPythonMiniMap::SAtlasMarkInfo> >::~_Uninitialized_backout_al<std::allocator<CPythonMiniMap::SAtlasMarkInfo> >
PUBLIC	?_Release@?$_Uninitialized_backout_al@V?$allocator@USAtlasMarkInfo@CPythonMiniMap@@@std@@@std@@QAEPAUSAtlasMarkInfo@CPythonMiniMap@@XZ ; std::_Uninitialized_backout_al<std::allocator<CPythonMiniMap::SAtlasMarkInfo> >::_Release
PUBLIC	??0?$_Uninitialized_backout_al@V?$allocator@USMarkPosition@CPythonMiniMap@@@std@@@std@@QAE@PAUSMarkPosition@CPythonMiniMap@@AAV?$allocator@USMarkPosition@CPythonMiniMap@@@1@@Z ; std::_Uninitialized_backout_al<std::allocator<CPythonMiniMap::SMarkPosition> >::_Uninitialized_backout_al<std::allocator<CPythonMiniMap::SMarkPosition> >
PUBLIC	??1?$_Uninitialized_backout_al@V?$allocator@USMarkPosition@CPythonMiniMap@@@std@@@std@@QAE@XZ ; std::_Uninitialized_backout_al<std::allocator<CPythonMiniMap::SMarkPosition> >::~_Uninitialized_backout_al<std::allocator<CPythonMiniMap::SMarkPosition> >
PUBLIC	?_Release@?$_Uninitialized_backout_al@V?$allocator@USMarkPosition@CPythonMiniMap@@@std@@@std@@QAEPAUSMarkPosition@CPythonMiniMap@@XZ ; std::_Uninitialized_backout_al<std::allocator<CPythonMiniMap::SMarkPosition> >::_Release
PUBLIC	??0?$_Uninitialized_backout@PAV?$_List_unchecked_iterator@V?$_List_val@U?$_List_simple_types@U?$pair@$$CBKV?$shared_ptr@USPartyPlayerPosition@CPythonMiniMap@@@std@@@std@@@std@@@std@@@std@@@std@@QAE@PAV?$_List_unchecked_iterator@V?$_List_val@U?$_List_simple_types@U?$pair@$$CBKV?$shared_ptr@USPartyPlayerPosition@CPythonMiniMap@@@std@@@std@@@std@@@std@@@1@@Z ; std::_Uninitialized_backout<std::_List_unchecked_iterator<std::_List_val<std::_List_simple_types<std::pair<unsigned long const ,std::shared_ptr<CPythonMiniMap::SPartyPlayerPosition> > > > > *>::_Uninitialized_backout<std::_List_unchecked_iterator<std::_List_val<std::_List_simple_types<std::pair<unsigned long const ,std::shared_ptr<CPythonMiniMap::SPartyPlayerPosition> > > > > *>
PUBLIC	??1?$_Uninitialized_backout@PAV?$_List_unchecked_iterator@V?$_List_val@U?$_List_simple_types@U?$pair@$$CBKV?$shared_ptr@USPartyPlayerPosition@CPythonMiniMap@@@std@@@std@@@std@@@std@@@std@@@std@@QAE@XZ ; std::_Uninitialized_backout<std::_List_unchecked_iterator<std::_List_val<std::_List_simple_types<std::pair<unsigned long const ,std::shared_ptr<CPythonMiniMap::SPartyPlayerPosition> > > > > *>::~_Uninitialized_backout<std::_List_unchecked_iterator<std::_List_val<std::_List_simple_types<std::pair<unsigned long const ,std::shared_ptr<CPythonMiniMap::SPartyPlayerPosition> > > > > *>
PUBLIC	?_Release@?$_Uninitialized_backout@PAV?$_List_unchecked_iterator@V?$_List_val@U?$_List_simple_types@U?$pair@$$CBKV?$shared_ptr@USPartyPlayerPosition@CPythonMiniMap@@@std@@@std@@@std@@@std@@@std@@@std@@QAEPAV?$_List_unchecked_iterator@V?$_List_val@U?$_List_simple_types@U?$pair@$$CBKV?$shared_ptr@USPartyPlayerPosition@CPythonMiniMap@@@std@@@std@@@std@@@std@@@2@XZ ; std::_Uninitialized_backout<std::_List_unchecked_iterator<std::_List_val<std::_List_simple_types<std::pair<unsigned long const ,std::shared_ptr<CPythonMiniMap::SPartyPlayerPosition> > > > > *>::_Release
PUBLIC	??$_Construct_in_place@PAU?$_List_node@U?$pair@$$CBKV?$shared_ptr@USPartyPlayerPosition@CPythonMiniMap@@@std@@@std@@PAX@std@@AAPAU12@@std@@YAXAAPAU?$_List_node@U?$pair@$$CBKV?$shared_ptr@USPartyPlayerPosition@CPythonMiniMap@@@std@@@std@@PAX@0@0@Z ; std::_Construct_in_place<std::_List_node<std::pair<unsigned long const ,std::shared_ptr<CPythonMiniMap::SPartyPlayerPosition> >,void *> *,std::_List_node<std::pair<unsigned long const ,std::shared_ptr<CPythonMiniMap::SPartyPlayerPosition> >,void *> * &>
PUBLIC	??$_Construct_in_place@PAU?$_Tree_node@U?$pair@$$CBKUSObserver@CPythonMiniMap@@@std@@PAX@std@@ABQAU12@@std@@YAXAAPAU?$_Tree_node@U?$pair@$$CBKUSObserver@CPythonMiniMap@@@std@@PAX@0@ABQAU10@@Z ; std::_Construct_in_place<std::_Tree_node<std::pair<unsigned long const ,CPythonMiniMap::SObserver>,void *> *,std::_Tree_node<std::pair<unsigned long const ,CPythonMiniMap::SObserver>,void *> * const &>
PUBLIC	??$_Emplace_back@ABV?$_List_unchecked_iterator@V?$_List_val@U?$_List_simple_types@U?$pair@$$CBKV?$shared_ptr@USPartyPlayerPosition@CPythonMiniMap@@@std@@@std@@@std@@@std@@@std@@@?$_Uninitialized_backout@PAV?$_List_unchecked_iterator@V?$_List_val@U?$_List_simple_types@U?$pair@$$CBKV?$shared_ptr@USPartyPlayerPosition@CPythonMiniMap@@@std@@@std@@@std@@@std@@@std@@@std@@QAEXABV?$_List_unchecked_iterator@V?$_List_val@U?$_List_simple_types@U?$pair@$$CBKV?$shared_ptr@USPartyPlayerPosition@CPythonMiniMap@@@std@@@std@@@std@@@std@@@1@@Z ; std::_Uninitialized_backout<std::_List_unchecked_iterator<std::_List_val<std::_List_simple_types<std::pair<unsigned long const ,std::shared_ptr<CPythonMiniMap::SPartyPlayerPosition> > > > > *>::_Emplace_back<std::_List_unchecked_iterator<std::_List_val<std::_List_simple_types<std::pair<unsigned long const ,std::shared_ptr<CPythonMiniMap::SPartyPlayerPosition> > > > > const &>
PUBLIC	??$_Construct_in_place@PAU?$_Tree_node@U?$pair@$$CBV?$basic_string@DU?$char_traits@D@std@@V?$allocator@D@2@@std@@V?$vector@V?$basic_string@DU?$char_traits@D@std@@V?$allocator@D@2@@std@@V?$allocator@V?$basic_string@DU?$char_traits@D@std@@V?$allocator@D@2@@std@@@2@@2@@std@@PAX@std@@ABQAU12@@std@@YAXAAPAU?$_Tree_node@U?$pair@$$CBV?$basic_string@DU?$char_traits@D@std@@V?$allocator@D@2@@std@@V?$vector@V?$basic_string@DU?$char_traits@D@std@@V?$allocator@D@2@@std@@V?$allocator@V?$basic_string@DU?$char_traits@D@std@@V?$allocator@D@2@@std@@@2@@2@@std@@PAX@0@ABQAU10@@Z ; std::_Construct_in_place<std::_Tree_node<std::pair<std::basic_string<char,std::char_traits<char>,std::allocator<char> > const ,std::vector<std::basic_string<char,std::char_traits<char>,std::allocator<char> >,std::allocator<std::basic_string<char,std::char_traits<char>,std::allocator<char> > > > >,void *> *,std::_Tree_node<std::pair<std::basic_string<char,std::char_traits<char>,std::allocator<char> > const ,std::vector<std::basic_string<char,std::char_traits<char>,std::allocator<char> >,std::allocator<std::basic_string<char,std::char_traits<char>,std::allocator<char> > > > >,void *> * const &>
PUBLIC	??$destroy_at@U?$pair@$$CBKUSObserver@CPythonMiniMap@@@std@@@std@@YAXQAU?$pair@$$CBKUSObserver@CPythonMiniMap@@@0@@Z ; std::destroy_at<std::pair<unsigned long const ,CPythonMiniMap::SObserver> >
PUBLIC	??1?$pair@$$CBV?$basic_string@DU?$char_traits@D@std@@V?$allocator@D@2@@std@@V?$vector@V?$basic_string@DU?$char_traits@D@std@@V?$allocator@D@2@@std@@V?$allocator@V?$basic_string@DU?$char_traits@D@std@@V?$allocator@D@2@@std@@@2@@2@@std@@QAE@XZ ; std::pair<std::basic_string<char,std::char_traits<char>,std::allocator<char> > const ,std::vector<std::basic_string<char,std::char_traits<char>,std::allocator<char> >,std::allocator<std::basic_string<char,std::char_traits<char>,std::allocator<char> > > > >::~pair<std::basic_string<char,std::char_traits<char>,std::allocator<char> > const ,std::vector<std::basic_string<char,std::char_traits<char>,std::allocator<char> >,std::allocator<std::basic_string<char,std::char_traits<char>,std::allocator<char> > > > >
PUBLIC	??$destroy_at@U?$pair@$$CBV?$basic_string@DU?$char_traits@D@std@@V?$allocator@D@2@@std@@V?$vector@V?$basic_string@DU?$char_traits@D@std@@V?$allocator@D@2@@std@@V?$allocator@V?$basic_string@DU?$char_traits@D@std@@V?$allocator@D@2@@std@@@2@@2@@std@@@std@@YAXQAU?$pair@$$CBV?$basic_string@DU?$char_traits@D@std@@V?$allocator@D@2@@std@@V?$vector@V?$basic_string@DU?$char_traits@D@std@@V?$allocator@D@2@@std@@V?$allocator@V?$basic_string@DU?$char_traits@D@std@@V?$allocator@D@2@@std@@@2@@2@@0@@Z ; std::destroy_at<std::pair<std::basic_string<char,std::char_traits<char>,std::allocator<char> > const ,std::vector<std::basic_string<char,std::char_traits<char>,std::allocator<char> >,std::allocator<std::basic_string<char,std::char_traits<char>,std::allocator<char> > > > > >
PUBLIC	??$construct_at@PAU?$_Tree_node@U?$pair@$$CBV?$basic_string@DU?$char_traits@D@std@@V?$allocator@D@2@@std@@V?$vector@V?$basic_string@DU?$char_traits@D@std@@V?$allocator@D@2@@std@@V?$allocator@V?$basic_string@DU?$char_traits@D@std@@V?$allocator@D@2@@std@@@2@@2@@std@@PAX@std@@AAPAU12@@std@@YAPAPAU?$_Tree_node@U?$pair@$$CBV?$basic_string@DU?$char_traits@D@std@@V?$allocator@D@2@@std@@V?$vector@V?$basic_string@DU?$char_traits@D@std@@V?$allocator@D@2@@std@@V?$allocator@V?$basic_string@DU?$char_traits@D@std@@V?$allocator@D@2@@std@@@2@@2@@std@@PAX@0@QAPAU10@AAPAU10@@Z ; std::construct_at<std::_Tree_node<std::pair<std::basic_string<char,std::char_traits<char>,std::allocator<char> > const ,std::vector<std::basic_string<char,std::char_traits<char>,std::allocator<char> >,std::allocator<std::basic_string<char,std::char_traits<char>,std::allocator<char> > > > >,void *> *,std::_Tree_node<std::pair<std::basic_string<char,std::char_traits<char>,std::allocator<char> > const ,std::vector<std::basic_string<char,std::char_traits<char>,std::allocator<char> >,std::allocator<std::basic_string<char,std::char_traits<char>,std::allocator<char> > > > >,void *> * &>
PUBLIC	??$forward@AAPAU?$_Tree_node@U?$pair@$$CBV?$basic_string@DU?$char_traits@D@std@@V?$allocator@D@2@@std@@V?$vector@V?$basic_string@DU?$char_traits@D@std@@V?$allocator@D@2@@std@@V?$allocator@V?$basic_string@DU?$char_traits@D@std@@V?$allocator@D@2@@std@@@2@@2@@std@@PAX@std@@@std@@YAAAPAU?$_Tree_node@U?$pair@$$CBV?$basic_string@DU?$char_traits@D@std@@V?$allocator@D@2@@std@@V?$vector@V?$basic_string@DU?$char_traits@D@std@@V?$allocator@D@2@@std@@V?$allocator@V?$basic_string@DU?$char_traits@D@std@@V?$allocator@D@2@@std@@@2@@2@@std@@PAX@0@AAPAU10@@Z ; std::forward<std::_Tree_node<std::pair<std::basic_string<char,std::char_traits<char>,std::allocator<char> > const ,std::vector<std::basic_string<char,std::char_traits<char>,std::allocator<char> >,std::allocator<std::basic_string<char,std::char_traits<char>,std::allocator<char> > > > >,void *> * &>
PUBLIC	??$addressof@PAU?$_Tree_node@U?$pair@$$CBV?$basic_string@DU?$char_traits@D@std@@V?$allocator@D@2@@std@@V?$vector@V?$basic_string@DU?$char_traits@D@std@@V?$allocator@D@2@@std@@V?$allocator@V?$basic_string@DU?$char_traits@D@std@@V?$allocator@D@2@@std@@@2@@2@@std@@PAX@std@@@std@@YAPAPAU?$_Tree_node@U?$pair@$$CBV?$basic_string@DU?$char_traits@D@std@@V?$allocator@D@2@@std@@V?$vector@V?$basic_string@DU?$char_traits@D@std@@V?$allocator@D@2@@std@@V?$allocator@V?$basic_string@DU?$char_traits@D@std@@V?$allocator@D@2@@std@@@2@@2@@std@@PAX@0@AAPAU10@@Z ; std::addressof<std::_Tree_node<std::pair<std::basic_string<char,std::char_traits<char>,std::allocator<char> > const ,std::vector<std::basic_string<char,std::char_traits<char>,std::allocator<char> >,std::allocator<std::basic_string<char,std::char_traits<char>,std::allocator<char> > > > >,void *> *>
PUBLIC	??$construct_at@U?$pair@$$CBV?$basic_string@DU?$char_traits@D@std@@V?$allocator@D@2@@std@@V?$vector@V?$basic_string@DU?$char_traits@D@std@@V?$allocator@D@2@@std@@V?$allocator@V?$basic_string@DU?$char_traits@D@std@@V?$allocator@D@2@@std@@@2@@2@@std@@ABUpiecewise_construct_t@2@V?$tuple@$$QAV?$basic_string@DU?$char_traits@D@std@@V?$allocator@D@2@@std@@@2@V?$tuple@$$V@2@@std@@YAPAU?$pair@$$CBV?$basic_string@DU?$char_traits@D@std@@V?$allocator@D@2@@std@@V?$vector@V?$basic_string@DU?$char_traits@D@std@@V?$allocator@D@2@@std@@V?$allocator@V?$basic_string@DU?$char_traits@D@std@@V?$allocator@D@2@@std@@@2@@2@@0@QAU10@ABUpiecewise_construct_t@0@$$QAV?$tuple@$$QAV?$basic_string@DU?$char_traits@D@std@@V?$allocator@D@2@@std@@@0@$$QAV?$tuple@$$V@0@@Z ; std::construct_at<std::pair<std::basic_string<char,std::char_traits<char>,std::allocator<char> > const ,std::vector<std::basic_string<char,std::char_traits<char>,std::allocator<char> >,std::allocator<std::basic_string<char,std::char_traits<char>,std::allocator<char> > > > >,std::piecewise_construct_t const &,std::tuple<std::basic_string<char,std::char_traits<char>,std::allocator<char> > &&>,std::tuple<> >
PUBLIC	??$_Emplace_back@USMarkPosition@CPythonMiniMap@@@?$_Uninitialized_backout_al@V?$allocator@USMarkPosition@CPythonMiniMap@@@std@@@std@@QAEX$$QAUSMarkPosition@CPythonMiniMap@@@Z ; std::_Uninitialized_backout_al<std::allocator<CPythonMiniMap::SMarkPosition> >::_Emplace_back<CPythonMiniMap::SMarkPosition>
PUBLIC	??$_To_address@PAUSMarkPosition@CPythonMiniMap@@@std@@YA?A_PABQAUSMarkPosition@CPythonMiniMap@@@Z ; std::_To_address<CPythonMiniMap::SMarkPosition *>
PUBLIC	??$_Copy_memmove@PAUSMarkPosition@CPythonMiniMap@@PAU12@@std@@YAPAUSMarkPosition@CPythonMiniMap@@PAU12@00@Z ; std::_Copy_memmove<CPythonMiniMap::SMarkPosition *,CPythonMiniMap::SMarkPosition *>
PUBLIC	??$move@AAUSMarkPosition@CPythonMiniMap@@@std@@YA$$QAUSMarkPosition@CPythonMiniMap@@AAU12@@Z ; std::move<CPythonMiniMap::SMarkPosition &>
PUBLIC	??$construct_at@USMarkPosition@CPythonMiniMap@@ABU12@@std@@YAPAUSMarkPosition@CPythonMiniMap@@QAU12@ABU12@@Z ; std::construct_at<CPythonMiniMap::SMarkPosition,CPythonMiniMap::SMarkPosition const &>
PUBLIC	??$addressof@USMarkPosition@CPythonMiniMap@@@std@@YAPAUSMarkPosition@CPythonMiniMap@@AAU12@@Z ; std::addressof<CPythonMiniMap::SMarkPosition>
PUBLIC	??$_Emplace_back@USAtlasMarkInfo@CPythonMiniMap@@@?$_Uninitialized_backout_al@V?$allocator@USAtlasMarkInfo@CPythonMiniMap@@@std@@@std@@QAEX$$QAUSAtlasMarkInfo@CPythonMiniMap@@@Z ; std::_Uninitialized_backout_al<std::allocator<CPythonMiniMap::SAtlasMarkInfo> >::_Emplace_back<CPythonMiniMap::SAtlasMarkInfo>
PUBLIC	??$construct_at@USAtlasMarkInfo@CPythonMiniMap@@ABU12@@std@@YAPAUSAtlasMarkInfo@CPythonMiniMap@@QAU12@ABU12@@Z ; std::construct_at<CPythonMiniMap::SAtlasMarkInfo,CPythonMiniMap::SAtlasMarkInfo const &>
PUBLIC	??$_Emplace_back@USGuildAreaInfo@CPythonMiniMap@@@?$_Uninitialized_backout_al@V?$allocator@USGuildAreaInfo@CPythonMiniMap@@@std@@@std@@QAEX$$QAUSGuildAreaInfo@CPythonMiniMap@@@Z ; std::_Uninitialized_backout_al<std::allocator<CPythonMiniMap::SGuildAreaInfo> >::_Emplace_back<CPythonMiniMap::SGuildAreaInfo>
PUBLIC	??$_To_address@PAUSGuildAreaInfo@CPythonMiniMap@@@std@@YA?A_PABQAUSGuildAreaInfo@CPythonMiniMap@@@Z ; std::_To_address<CPythonMiniMap::SGuildAreaInfo *>
PUBLIC	??$_Copy_memmove@PAUSGuildAreaInfo@CPythonMiniMap@@PAU12@@std@@YAPAUSGuildAreaInfo@CPythonMiniMap@@PAU12@00@Z ; std::_Copy_memmove<CPythonMiniMap::SGuildAreaInfo *,CPythonMiniMap::SGuildAreaInfo *>
PUBLIC	??$move@AAUSGuildAreaInfo@CPythonMiniMap@@@std@@YA$$QAUSGuildAreaInfo@CPythonMiniMap@@AAU12@@Z ; std::move<CPythonMiniMap::SGuildAreaInfo &>
PUBLIC	??$construct_at@USGuildAreaInfo@CPythonMiniMap@@ABU12@@std@@YAPAUSGuildAreaInfo@CPythonMiniMap@@QAU12@ABU12@@Z ; std::construct_at<CPythonMiniMap::SGuildAreaInfo,CPythonMiniMap::SGuildAreaInfo const &>
PUBLIC	??$addressof@USGuildAreaInfo@CPythonMiniMap@@@std@@YAPAUSGuildAreaInfo@CPythonMiniMap@@AAU12@@Z ; std::addressof<CPythonMiniMap::SGuildAreaInfo>
PUBLIC	??$_Emplace_back@UTSignalPoint@CPythonMiniMap@@@?$_Uninitialized_backout_al@V?$allocator@UTSignalPoint@CPythonMiniMap@@@std@@@std@@QAEX$$QAUTSignalPoint@CPythonMiniMap@@@Z ; std::_Uninitialized_backout_al<std::allocator<CPythonMiniMap::TSignalPoint> >::_Emplace_back<CPythonMiniMap::TSignalPoint>
PUBLIC	??$_To_address@PAUTSignalPoint@CPythonMiniMap@@@std@@YA?A_PABQAUTSignalPoint@CPythonMiniMap@@@Z ; std::_To_address<CPythonMiniMap::TSignalPoint *>
PUBLIC	??$_Copy_memmove@PAUTSignalPoint@CPythonMiniMap@@PAU12@@std@@YAPAUTSignalPoint@CPythonMiniMap@@PAU12@00@Z ; std::_Copy_memmove<CPythonMiniMap::TSignalPoint *,CPythonMiniMap::TSignalPoint *>
PUBLIC	??$move@AAUTSignalPoint@CPythonMiniMap@@@std@@YA$$QAUTSignalPoint@CPythonMiniMap@@AAU12@@Z ; std::move<CPythonMiniMap::TSignalPoint &>
PUBLIC	??$construct_at@UTSignalPoint@CPythonMiniMap@@ABU12@@std@@YAPAUTSignalPoint@CPythonMiniMap@@QAU12@ABU12@@Z ; std::construct_at<CPythonMiniMap::TSignalPoint,CPythonMiniMap::TSignalPoint const &>
PUBLIC	??$addressof@UTSignalPoint@CPythonMiniMap@@@std@@YAPAUTSignalPoint@CPythonMiniMap@@AAU12@@Z ; std::addressof<CPythonMiniMap::TSignalPoint>
PUBLIC	??$construct_at@PAU?$_Tree_node@U?$pair@$$CBKUSObserver@CPythonMiniMap@@@std@@PAX@std@@AAPAU12@@std@@YAPAPAU?$_Tree_node@U?$pair@$$CBKUSObserver@CPythonMiniMap@@@std@@PAX@0@QAPAU10@AAPAU10@@Z ; std::construct_at<std::_Tree_node<std::pair<unsigned long const ,CPythonMiniMap::SObserver>,void *> *,std::_Tree_node<std::pair<unsigned long const ,CPythonMiniMap::SObserver>,void *> * &>
PUBLIC	??$addressof@PAU?$_Tree_node@U?$pair@$$CBKUSObserver@CPythonMiniMap@@@std@@PAX@std@@@std@@YAPAPAU?$_Tree_node@U?$pair@$$CBKUSObserver@CPythonMiniMap@@@std@@PAX@0@AAPAU10@@Z ; std::addressof<std::_Tree_node<std::pair<unsigned long const ,CPythonMiniMap::SObserver>,void *> *>
PUBLIC	??$construct_at@U?$pair@$$CBKUSObserver@CPythonMiniMap@@@std@@U12@@std@@YAPAU?$pair@$$CBKUSObserver@CPythonMiniMap@@@0@QAU10@$$QAU10@@Z ; std::construct_at<std::pair<unsigned long const ,CPythonMiniMap::SObserver>,std::pair<unsigned long const ,CPythonMiniMap::SObserver> >
PUBLIC	??$?0U?$pair@$$CBKV?$shared_ptr@USPartyPlayerPosition@CPythonMiniMap@@@std@@@std@@@?$allocator@U?$_List_node@U?$pair@$$CBKV?$shared_ptr@USPartyPlayerPosition@CPythonMiniMap@@@std@@@std@@PAX@std@@@std@@QAE@ABV?$allocator@U?$pair@$$CBKV?$shared_ptr@USPartyPlayerPosition@CPythonMiniMap@@@std@@@std@@@1@@Z ; std::allocator<std::_List_node<std::pair<unsigned long const ,std::shared_ptr<CPythonMiniMap::SPartyPlayerPosition> >,void *> >::allocator<std::_List_node<std::pair<unsigned long const ,std::shared_ptr<CPythonMiniMap::SPartyPlayerPosition> >,void *> ><std::pair<unsigned long const ,std::shared_ptr<CPythonMiniMap::SPartyPlayerPosition> > >
PUBLIC	??$?0U?$pair@$$CBKV?$shared_ptr@USPartyPlayerPosition@CPythonMiniMap@@@std@@@std@@@?$allocator@V?$_List_unchecked_iterator@V?$_List_val@U?$_List_simple_types@U?$pair@$$CBKV?$shared_ptr@USPartyPlayerPosition@CPythonMiniMap@@@std@@@std@@@std@@@std@@@std@@@std@@QAE@ABV?$allocator@U?$pair@$$CBKV?$shared_ptr@USPartyPlayerPosition@CPythonMiniMap@@@std@@@std@@@1@@Z ; std::allocator<std::_List_unchecked_iterator<std::_List_val<std::_List_simple_types<std::pair<unsigned long const ,std::shared_ptr<CPythonMiniMap::SPartyPlayerPosition> > > > > >::allocator<std::_List_unchecked_iterator<std::_List_val<std::_List_simple_types<std::pair<unsigned long const ,std::shared_ptr<CPythonMiniMap::SPartyPlayerPosition> > > > > ><std::pair<unsigned long const ,std::shared_ptr<CPythonMiniMap::SPartyPlayerPosition> > >
PUBLIC	??$?0ABKV?$shared_ptr@USPartyPlayerPosition@CPythonMiniMap@@@std@@$0A@@?$pair@$$CBKV?$shared_ptr@USPartyPlayerPosition@CPythonMiniMap@@@std@@@std@@QAE@ABK$$QAV?$shared_ptr@USPartyPlayerPosition@CPythonMiniMap@@@1@@Z ; std::pair<unsigned long const ,std::shared_ptr<CPythonMiniMap::SPartyPlayerPosition> >::pair<unsigned long const ,std::shared_ptr<CPythonMiniMap::SPartyPlayerPosition> ><unsigned long const &,std::shared_ptr<CPythonMiniMap::SPartyPlayerPosition>,0>
PUBLIC	??0?$_Tree_unchecked_iterator@V?$_Tree_val@U?$_Tree_simple_types@U?$pair@$$CBKUSObserver@CPythonMiniMap@@@std@@@std@@@std@@@std@@QAE@PAU?$_Tree_node@U?$pair@$$CBKUSObserver@CPythonMiniMap@@@std@@PAX@1@PBV?$_Tree_val@U?$_Tree_simple_types@U?$pair@$$CBKUSObserver@CPythonMiniMap@@@std@@@std@@@1@@Z ; std::_Tree_unchecked_iterator<std::_Tree_val<std::_Tree_simple_types<std::pair<unsigned long const ,CPythonMiniMap::SObserver> > > >::_Tree_unchecked_iterator<std::_Tree_val<std::_Tree_simple_types<std::pair<unsigned long const ,CPythonMiniMap::SObserver> > > >
PUBLIC	??_G?$pair@$$CBKV?$shared_ptr@USPartyPlayerPosition@CPythonMiniMap@@@std@@@std@@QAEPAXI@Z ; std::pair<unsigned long const ,std::shared_ptr<CPythonMiniMap::SPartyPlayerPosition> >::`scalar deleting destructor'
PUBLIC	?max_size@?$vector@USMarkPosition@CPythonMiniMap@@V?$allocator@USMarkPosition@CPythonMiniMap@@@std@@@std@@QBEIXZ ; std::vector<CPythonMiniMap::SMarkPosition,std::allocator<CPythonMiniMap::SMarkPosition> >::max_size
PUBLIC	?_Calculate_growth@?$vector@USMarkPosition@CPythonMiniMap@@V?$allocator@USMarkPosition@CPythonMiniMap@@@std@@@std@@ABEII@Z ; std::vector<CPythonMiniMap::SMarkPosition,std::allocator<CPythonMiniMap::SMarkPosition> >::_Calculate_growth
PUBLIC	?_Change_array@?$vector@USMarkPosition@CPythonMiniMap@@V?$allocator@USMarkPosition@CPythonMiniMap@@@std@@@std@@AAEXQAUSMarkPosition@CPythonMiniMap@@II@Z ; std::vector<CPythonMiniMap::SMarkPosition,std::allocator<CPythonMiniMap::SMarkPosition> >::_Change_array
PUBLIC	?_Xlength@?$vector@USMarkPosition@CPythonMiniMap@@V?$allocator@USMarkPosition@CPythonMiniMap@@@std@@@std@@CAXXZ ; std::vector<CPythonMiniMap::SMarkPosition,std::allocator<CPythonMiniMap::SMarkPosition> >::_Xlength
PUBLIC	?_Orphan_range@?$vector@USMarkPosition@CPythonMiniMap@@V?$allocator@USMarkPosition@CPythonMiniMap@@@std@@@std@@ABEXPAUSMarkPosition@CPythonMiniMap@@0@Z ; std::vector<CPythonMiniMap::SMarkPosition,std::allocator<CPythonMiniMap::SMarkPosition> >::_Orphan_range
PUBLIC	??1_Reallocation_guard@?$vector@USMarkPosition@CPythonMiniMap@@V?$allocator@USMarkPosition@CPythonMiniMap@@@std@@@std@@QAE@XZ ; std::vector<CPythonMiniMap::SMarkPosition,std::allocator<CPythonMiniMap::SMarkPosition> >::_Reallocation_guard::~_Reallocation_guard
PUBLIC	?_Unchecked_begin@?$_Tree@V?$_Tmap_traits@KUSObserver@CPythonMiniMap@@U?$less@K@std@@V?$allocator@U?$pair@$$CBKUSObserver@CPythonMiniMap@@@std@@@4@$0A@@std@@@std@@QAE?AV?$_Tree_unchecked_iterator@V?$_Tree_val@U?$_Tree_simple_types@U?$pair@$$CBKUSObserver@CPythonMiniMap@@@std@@@std@@@std@@@2@XZ ; std::_Tree<std::_Tmap_traits<unsigned long,CPythonMiniMap::SObserver,std::less<unsigned long>,std::allocator<std::pair<unsigned long const ,CPythonMiniMap::SObserver> >,0> >::_Unchecked_begin
PUBLIC	?max_size@?$_Tree@V?$_Tmap_traits@KUSObserver@CPythonMiniMap@@U?$less@K@std@@V?$allocator@U?$pair@$$CBKUSObserver@CPythonMiniMap@@@std@@@4@$0A@@std@@@std@@QBEIXZ ; std::_Tree<std::_Tmap_traits<unsigned long,CPythonMiniMap::SObserver,std::less<unsigned long>,std::allocator<std::pair<unsigned long const ,CPythonMiniMap::SObserver> >,0> >::max_size
PUBLIC	?_Erase_unchecked@?$_Tree@V?$_Tmap_traits@KUSObserver@CPythonMiniMap@@U?$less@K@std@@V?$allocator@U?$pair@$$CBKUSObserver@CPythonMiniMap@@@std@@@4@$0A@@std@@@std@@AAEPAU?$_Tree_node@U?$pair@$$CBKUSObserver@CPythonMiniMap@@@std@@PAX@2@V?$_Tree_unchecked_const_iterator@V?$_Tree_val@U?$_Tree_simple_types@U?$pair@$$CBKUSObserver@CPythonMiniMap@@@std@@@std@@@std@@U_Iterator_base0@2@@2@@Z ; std::_Tree<std::_Tmap_traits<unsigned long,CPythonMiniMap::SObserver,std::less<unsigned long>,std::allocator<std::pair<unsigned long const ,CPythonMiniMap::SObserver> >,0> >::_Erase_unchecked
PUBLIC	?clear@?$_Tree@V?$_Tmap_traits@KUSObserver@CPythonMiniMap@@U?$less@K@std@@V?$allocator@U?$pair@$$CBKUSObserver@CPythonMiniMap@@@std@@@4@$0A@@std@@@std@@QAEXXZ ; std::_Tree<std::_Tmap_traits<unsigned long,CPythonMiniMap::SObserver,std::less<unsigned long>,std::allocator<std::pair<unsigned long const ,CPythonMiniMap::SObserver> >,0> >::clear
PUBLIC	?deallocate@?$_Default_allocator_traits@V?$allocator@U?$_Tree_node@U?$pair@$$CBKUSObserver@CPythonMiniMap@@@std@@PAX@std@@@std@@@std@@SAXAAV?$allocator@U?$_Tree_node@U?$pair@$$CBKUSObserver@CPythonMiniMap@@@std@@PAX@std@@@2@QAU?$_Tree_node@U?$pair@$$CBKUSObserver@CPythonMiniMap@@@std@@PAX@2@I@Z ; std::_Default_allocator_traits<std::allocator<std::_Tree_node<std::pair<unsigned long const ,CPythonMiniMap::SObserver>,void *> > >::deallocate
PUBLIC	?_Min@?$_Tree_val@U?$_Tree_simple_types@U?$pair@$$CBKUSObserver@CPythonMiniMap@@@std@@@std@@@std@@SAPAU?$_Tree_node@U?$pair@$$CBKUSObserver@CPythonMiniMap@@@std@@PAX@2@PAU32@@Z ; std::_Tree_val<std::_Tree_simple_types<std::pair<unsigned long const ,CPythonMiniMap::SObserver> > >::_Min
PUBLIC	?_Lrotate@?$_Tree_val@U?$_Tree_simple_types@U?$pair@$$CBKUSObserver@CPythonMiniMap@@@std@@@std@@@std@@QAEXPAU?$_Tree_node@U?$pair@$$CBKUSObserver@CPythonMiniMap@@@std@@PAX@2@@Z ; std::_Tree_val<std::_Tree_simple_types<std::pair<unsigned long const ,CPythonMiniMap::SObserver> > >::_Lrotate
PUBLIC	?_Rrotate@?$_Tree_val@U?$_Tree_simple_types@U?$pair@$$CBKUSObserver@CPythonMiniMap@@@std@@@std@@@std@@QAEXPAU?$_Tree_node@U?$pair@$$CBKUSObserver@CPythonMiniMap@@@std@@PAX@2@@Z ; std::_Tree_val<std::_Tree_simple_types<std::pair<unsigned long const ,CPythonMiniMap::SObserver> > >::_Rrotate
PUBLIC	??E?$_Tree_unchecked_const_iterator@V?$_Tree_val@U?$_Tree_simple_types@U?$pair@$$CBKUSObserver@CPythonMiniMap@@@std@@@std@@@std@@U_Iterator_base0@2@@std@@QAE?AV01@H@Z ; std::_Tree_unchecked_const_iterator<std::_Tree_val<std::_Tree_simple_types<std::pair<unsigned long const ,CPythonMiniMap::SObserver> > >,std::_Iterator_base0>::operator++
PUBLIC	??8?$_Tree_unchecked_const_iterator@V?$_Tree_val@U?$_Tree_simple_types@U?$pair@$$CBKUSObserver@CPythonMiniMap@@@std@@@std@@@std@@U_Iterator_base0@2@@std@@QBE_NABV01@@Z ; std::_Tree_unchecked_const_iterator<std::_Tree_val<std::_Tree_simple_types<std::pair<unsigned long const ,CPythonMiniMap::SObserver> > >,std::_Iterator_base0>::operator==
PUBLIC	?_Get_first@?$_Compressed_pair@U?$less@K@std@@V?$_Compressed_pair@V?$allocator@U?$_Tree_node@U?$pair@$$CBKUSObserver@CPythonMiniMap@@@std@@PAX@std@@@std@@V?$_Tree_val@U?$_Tree_simple_types@U?$pair@$$CBKUSObserver@CPythonMiniMap@@@std@@@std@@@2@$00@2@$00@std@@QBEABU?$less@K@2@XZ ; std::_Compressed_pair<std::less<unsigned long>,std::_Compressed_pair<std::allocator<std::_Tree_node<std::pair<unsigned long const ,CPythonMiniMap::SObserver>,void *> >,std::_Tree_val<std::_Tree_simple_types<std::pair<unsigned long const ,CPythonMiniMap::SObserver> > >,1>,1>::_Get_first
PUBLIC	?_Min_load_factor_buckets@?$_Hash@V?$_Umap_traits@KV?$shared_ptr@USPartyPlayerPosition@CPythonMiniMap@@@std@@V?$_Uhash_compare@KU?$hash@K@std@@U?$equal_to@K@2@@2@V?$allocator@U?$pair@$$CBKV?$shared_ptr@USPartyPlayerPosition@CPythonMiniMap@@@std@@@std@@@2@$0A@@std@@@std@@IBEII@Z ; std::_Hash<std::_Umap_traits<unsigned long,std::shared_ptr<CPythonMiniMap::SPartyPlayerPosition>,std::_Uhash_compare<unsigned long,std::hash<unsigned long>,std::equal_to<unsigned long> >,std::allocator<std::pair<unsigned long const ,std::shared_ptr<CPythonMiniMap::SPartyPlayerPosition> > >,0> >::_Min_load_factor_buckets
PUBLIC	?_Max_bucket_size@?$_Hash@V?$_Umap_traits@KV?$shared_ptr@USPartyPlayerPosition@CPythonMiniMap@@@std@@V?$_Uhash_compare@KU?$hash@K@std@@U?$equal_to@K@2@@2@V?$allocator@U?$pair@$$CBKV?$shared_ptr@USPartyPlayerPosition@CPythonMiniMap@@@std@@@std@@@2@$0A@@std@@@std@@IBEABMXZ ; std::_Hash<std::_Umap_traits<unsigned long,std::shared_ptr<CPythonMiniMap::SPartyPlayerPosition>,std::_Uhash_compare<unsigned long,std::hash<unsigned long>,std::equal_to<unsigned long> >,std::allocator<std::pair<unsigned long const ,std::shared_ptr<CPythonMiniMap::SPartyPlayerPosition> > >,0> >::_Max_bucket_size
PUBLIC	?_Alloc_sentinel_and_proxy@?$list@U?$pair@$$CBKV?$shared_ptr@USPartyPlayerPosition@CPythonMiniMap@@@std@@@std@@V?$allocator@U?$pair@$$CBKV?$shared_ptr@USPartyPlayerPosition@CPythonMiniMap@@@std@@@std@@@2@@std@@AAEXXZ ; std::list<std::pair<unsigned long const ,std::shared_ptr<CPythonMiniMap::SPartyPlayerPosition> >,std::allocator<std::pair<unsigned long const ,std::shared_ptr<CPythonMiniMap::SPartyPlayerPosition> > > >::_Alloc_sentinel_and_proxy
PUBLIC	?_Getal@?$list@U?$pair@$$CBKV?$shared_ptr@USPartyPlayerPosition@CPythonMiniMap@@@std@@@std@@V?$allocator@U?$pair@$$CBKV?$shared_ptr@USPartyPlayerPosition@CPythonMiniMap@@@std@@@std@@@2@@std@@ABEABV?$allocator@U?$_List_node@U?$pair@$$CBKV?$shared_ptr@USPartyPlayerPosition@CPythonMiniMap@@@std@@@std@@PAX@std@@@2@XZ ; std::list<std::pair<unsigned long const ,std::shared_ptr<CPythonMiniMap::SPartyPlayerPosition> >,std::allocator<std::pair<unsigned long const ,std::shared_ptr<CPythonMiniMap::SPartyPlayerPosition> > > >::_Getal
PUBLIC	?deallocate@?$allocator@U?$_List_node@U?$pair@$$CBKV?$shared_ptr@USPartyPlayerPosition@CPythonMiniMap@@@std@@@std@@PAX@std@@@std@@QAEXQAU?$_List_node@U?$pair@$$CBKV?$shared_ptr@USPartyPlayerPosition@CPythonMiniMap@@@std@@@std@@PAX@2@I@Z ; std::allocator<std::_List_node<std::pair<unsigned long const ,std::shared_ptr<CPythonMiniMap::SPartyPlayerPosition> >,void *> >::deallocate
PUBLIC	?allocate@?$allocator@U?$_List_node@U?$pair@$$CBKV?$shared_ptr@USPartyPlayerPosition@CPythonMiniMap@@@std@@@std@@PAX@std@@@std@@QAEPAU?$_List_node@U?$pair@$$CBKV?$shared_ptr@USPartyPlayerPosition@CPythonMiniMap@@@std@@@std@@PAX@2@I@Z ; std::allocator<std::_List_node<std::pair<unsigned long const ,std::shared_ptr<CPythonMiniMap::SPartyPlayerPosition> >,void *> >::allocate
PUBLIC	?deallocate@?$_Default_allocator_traits@V?$allocator@U?$_List_node@U?$pair@$$CBKV?$shared_ptr@USPartyPlayerPosition@CPythonMiniMap@@@std@@@std@@PAX@std@@@std@@@std@@SAXAAV?$allocator@U?$_List_node@U?$pair@$$CBKV?$shared_ptr@USPartyPlayerPosition@CPythonMiniMap@@@std@@@std@@PAX@std@@@2@QAU?$_List_node@U?$pair@$$CBKV?$shared_ptr@USPartyPlayerPosition@CPythonMiniMap@@@std@@@std@@PAX@2@I@Z ; std::_Default_allocator_traits<std::allocator<std::_List_node<std::pair<unsigned long const ,std::shared_ptr<CPythonMiniMap::SPartyPlayerPosition> >,void *> > >::deallocate
PUBLIC	?max_size@?$_Default_allocator_traits@V?$allocator@U?$_List_node@U?$pair@$$CBKV?$shared_ptr@USPartyPlayerPosition@CPythonMiniMap@@@std@@@std@@PAX@std@@@std@@@std@@SAIABV?$allocator@U?$_List_node@U?$pair@$$CBKV?$shared_ptr@USPartyPlayerPosition@CPythonMiniMap@@@std@@@std@@PAX@std@@@2@@Z ; std::_Default_allocator_traits<std::allocator<std::_List_node<std::pair<unsigned long const ,std::shared_ptr<CPythonMiniMap::SPartyPlayerPosition> >,void *> > >::max_size
PUBLIC	?_Orphan_ptr2@?$_List_val@U?$_List_simple_types@U?$pair@$$CBKV?$shared_ptr@USPartyPlayerPosition@CPythonMiniMap@@@std@@@std@@@std@@@std@@QAEXPAU?$_List_node@U?$pair@$$CBKV?$shared_ptr@USPartyPlayerPosition@CPythonMiniMap@@@std@@@std@@PAX@2@@Z ; std::_List_val<std::_List_simple_types<std::pair<unsigned long const ,std::shared_ptr<CPythonMiniMap::SPartyPlayerPosition> > > >::_Orphan_ptr2
PUBLIC	?_Unchecked_splice@?$_List_val@U?$_List_simple_types@U?$pair@$$CBKV?$shared_ptr@USPartyPlayerPosition@CPythonMiniMap@@@std@@@std@@@std@@@std@@SAPAU?$_List_node@U?$pair@$$CBKV?$shared_ptr@USPartyPlayerPosition@CPythonMiniMap@@@std@@@std@@PAX@2@QAU32@00@Z ; std::_List_val<std::_List_simple_types<std::pair<unsigned long const ,std::shared_ptr<CPythonMiniMap::SPartyPlayerPosition> > > >::_Unchecked_splice
PUBLIC	??F?$_List_unchecked_const_iterator@V?$_List_val@U?$_List_simple_types@U?$pair@$$CBKV?$shared_ptr@USPartyPlayerPosition@CPythonMiniMap@@@std@@@std@@@std@@@std@@U_Iterator_base0@2@@std@@QAEAAV01@XZ ; std::_List_unchecked_const_iterator<std::_List_val<std::_List_simple_types<std::pair<unsigned long const ,std::shared_ptr<CPythonMiniMap::SPartyPlayerPosition> > > >,std::_Iterator_base0>::operator--
PUBLIC	?allocate@?$allocator@V?$_List_unchecked_iterator@V?$_List_val@U?$_List_simple_types@U?$pair@$$CBKV?$shared_ptr@USPartyPlayerPosition@CPythonMiniMap@@@std@@@std@@@std@@@std@@@std@@@std@@QAEPAV?$_List_unchecked_iterator@V?$_List_val@U?$_List_simple_types@U?$pair@$$CBKV?$shared_ptr@USPartyPlayerPosition@CPythonMiniMap@@@std@@@std@@@std@@@std@@@2@I@Z ; std::allocator<std::_List_unchecked_iterator<std::_List_val<std::_List_simple_types<std::pair<unsigned long const ,std::shared_ptr<CPythonMiniMap::SPartyPlayerPosition> > > > > >::allocate
PUBLIC	??0_Clear_guard@?$_Hash@V?$_Umap_traits@KV?$shared_ptr@USPartyPlayerPosition@CPythonMiniMap@@@std@@V?$_Uhash_compare@KU?$hash@K@std@@U?$equal_to@K@2@@2@V?$allocator@U?$pair@$$CBKV?$shared_ptr@USPartyPlayerPosition@CPythonMiniMap@@@std@@@std@@@2@$0A@@std@@@std@@QAE@QAV12@@Z ; std::_Hash<std::_Umap_traits<unsigned long,std::shared_ptr<CPythonMiniMap::SPartyPlayerPosition>,std::_Uhash_compare<unsigned long,std::hash<unsigned long>,std::equal_to<unsigned long> >,std::allocator<std::pair<unsigned long const ,std::shared_ptr<CPythonMiniMap::SPartyPlayerPosition> > >,0> >::_Clear_guard::_Clear_guard
PUBLIC	??1_Clear_guard@?$_Hash@V?$_Umap_traits@KV?$shared_ptr@USPartyPlayerPosition@CPythonMiniMap@@@std@@V?$_Uhash_compare@KU?$hash@K@std@@U?$equal_to@K@2@@2@V?$allocator@U?$pair@$$CBKV?$shared_ptr@USPartyPlayerPosition@CPythonMiniMap@@@std@@@std@@@2@$0A@@std@@@std@@QAE@XZ ; std::_Hash<std::_Umap_traits<unsigned long,std::shared_ptr<CPythonMiniMap::SPartyPlayerPosition>,std::_Uhash_compare<unsigned long,std::hash<unsigned long>,std::equal_to<unsigned long> >,std::allocator<std::pair<unsigned long const ,std::shared_ptr<CPythonMiniMap::SPartyPlayerPosition> > >,0> >::_Clear_guard::~_Clear_guard
PUBLIC	?size@?$_Hash_vec@V?$allocator@V?$_List_unchecked_iterator@V?$_List_val@U?$_List_simple_types@U?$pair@$$CBKV?$shared_ptr@USPartyPlayerPosition@CPythonMiniMap@@@std@@@std@@@std@@@std@@@std@@@std@@@std@@QBEIXZ ; std::_Hash_vec<std::allocator<std::_List_unchecked_iterator<std::_List_val<std::_List_simple_types<std::pair<unsigned long const ,std::shared_ptr<CPythonMiniMap::SPartyPlayerPosition> > > > > > >::size
PUBLIC	?max_size@?$_Hash_vec@V?$allocator@V?$_List_unchecked_iterator@V?$_List_val@U?$_List_simple_types@U?$pair@$$CBKV?$shared_ptr@USPartyPlayerPosition@CPythonMiniMap@@@std@@@std@@@std@@@std@@@std@@@std@@@std@@QBEIXZ ; std::_Hash_vec<std::allocator<std::_List_unchecked_iterator<std::_List_val<std::_List_simple_types<std::pair<unsigned long const ,std::shared_ptr<CPythonMiniMap::SPartyPlayerPosition> > > > > > >::max_size
PUBLIC	?max_size@?$vector@USAtlasMarkInfo@CPythonMiniMap@@V?$allocator@USAtlasMarkInfo@CPythonMiniMap@@@std@@@std@@QBEIXZ ; std::vector<CPythonMiniMap::SAtlasMarkInfo,std::allocator<CPythonMiniMap::SAtlasMarkInfo> >::max_size
PUBLIC	?_Calculate_growth@?$vector@USAtlasMarkInfo@CPythonMiniMap@@V?$allocator@USAtlasMarkInfo@CPythonMiniMap@@@std@@@std@@ABEII@Z ; std::vector<CPythonMiniMap::SAtlasMarkInfo,std::allocator<CPythonMiniMap::SAtlasMarkInfo> >::_Calculate_growth
PUBLIC	?_Change_array@?$vector@USAtlasMarkInfo@CPythonMiniMap@@V?$allocator@USAtlasMarkInfo@CPythonMiniMap@@@std@@@std@@AAEXQAUSAtlasMarkInfo@CPythonMiniMap@@II@Z ; std::vector<CPythonMiniMap::SAtlasMarkInfo,std::allocator<CPythonMiniMap::SAtlasMarkInfo> >::_Change_array
PUBLIC	?_Xlength@?$vector@USAtlasMarkInfo@CPythonMiniMap@@V?$allocator@USAtlasMarkInfo@CPythonMiniMap@@@std@@@std@@CAXXZ ; std::vector<CPythonMiniMap::SAtlasMarkInfo,std::allocator<CPythonMiniMap::SAtlasMarkInfo> >::_Xlength
PUBLIC	??1_Reallocation_guard@?$vector@USAtlasMarkInfo@CPythonMiniMap@@V?$allocator@USAtlasMarkInfo@CPythonMiniMap@@@std@@@std@@QAE@XZ ; std::vector<CPythonMiniMap::SAtlasMarkInfo,std::allocator<CPythonMiniMap::SAtlasMarkInfo> >::_Reallocation_guard::~_Reallocation_guard
PUBLIC	?max_size@?$vector@USGuildAreaInfo@CPythonMiniMap@@V?$allocator@USGuildAreaInfo@CPythonMiniMap@@@std@@@std@@QBEIXZ ; std::vector<CPythonMiniMap::SGuildAreaInfo,std::allocator<CPythonMiniMap::SGuildAreaInfo> >::max_size
PUBLIC	?_Calculate_growth@?$vector@USGuildAreaInfo@CPythonMiniMap@@V?$allocator@USGuildAreaInfo@CPythonMiniMap@@@std@@@std@@ABEII@Z ; std::vector<CPythonMiniMap::SGuildAreaInfo,std::allocator<CPythonMiniMap::SGuildAreaInfo> >::_Calculate_growth
PUBLIC	?_Change_array@?$vector@USGuildAreaInfo@CPythonMiniMap@@V?$allocator@USGuildAreaInfo@CPythonMiniMap@@@std@@@std@@AAEXQAUSGuildAreaInfo@CPythonMiniMap@@II@Z ; std::vector<CPythonMiniMap::SGuildAreaInfo,std::allocator<CPythonMiniMap::SGuildAreaInfo> >::_Change_array
PUBLIC	?_Xlength@?$vector@USGuildAreaInfo@CPythonMiniMap@@V?$allocator@USGuildAreaInfo@CPythonMiniMap@@@std@@@std@@CAXXZ ; std::vector<CPythonMiniMap::SGuildAreaInfo,std::allocator<CPythonMiniMap::SGuildAreaInfo> >::_Xlength
PUBLIC	?_Orphan_range@?$vector@USGuildAreaInfo@CPythonMiniMap@@V?$allocator@USGuildAreaInfo@CPythonMiniMap@@@std@@@std@@ABEXPAUSGuildAreaInfo@CPythonMiniMap@@0@Z ; std::vector<CPythonMiniMap::SGuildAreaInfo,std::allocator<CPythonMiniMap::SGuildAreaInfo> >::_Orphan_range
PUBLIC	??1_Reallocation_guard@?$vector@USGuildAreaInfo@CPythonMiniMap@@V?$allocator@USGuildAreaInfo@CPythonMiniMap@@@std@@@std@@QAE@XZ ; std::vector<CPythonMiniMap::SGuildAreaInfo,std::allocator<CPythonMiniMap::SGuildAreaInfo> >::_Reallocation_guard::~_Reallocation_guard
PUBLIC	?max_size@?$vector@UTSignalPoint@CPythonMiniMap@@V?$allocator@UTSignalPoint@CPythonMiniMap@@@std@@@std@@QBEIXZ ; std::vector<CPythonMiniMap::TSignalPoint,std::allocator<CPythonMiniMap::TSignalPoint> >::max_size
PUBLIC	?_Calculate_growth@?$vector@UTSignalPoint@CPythonMiniMap@@V?$allocator@UTSignalPoint@CPythonMiniMap@@@std@@@std@@ABEII@Z ; std::vector<CPythonMiniMap::TSignalPoint,std::allocator<CPythonMiniMap::TSignalPoint> >::_Calculate_growth
PUBLIC	?_Change_array@?$vector@UTSignalPoint@CPythonMiniMap@@V?$allocator@UTSignalPoint@CPythonMiniMap@@@std@@@std@@AAEXQAUTSignalPoint@CPythonMiniMap@@II@Z ; std::vector<CPythonMiniMap::TSignalPoint,std::allocator<CPythonMiniMap::TSignalPoint> >::_Change_array
PUBLIC	?_Xlength@?$vector@UTSignalPoint@CPythonMiniMap@@V?$allocator@UTSignalPoint@CPythonMiniMap@@@std@@@std@@CAXXZ ; std::vector<CPythonMiniMap::TSignalPoint,std::allocator<CPythonMiniMap::TSignalPoint> >::_Xlength
PUBLIC	?_Orphan_range@?$vector@UTSignalPoint@CPythonMiniMap@@V?$allocator@UTSignalPoint@CPythonMiniMap@@@std@@@std@@ABEXPAUTSignalPoint@CPythonMiniMap@@0@Z ; std::vector<CPythonMiniMap::TSignalPoint,std::allocator<CPythonMiniMap::TSignalPoint> >::_Orphan_range
PUBLIC	??1_Reallocation_guard@?$vector@UTSignalPoint@CPythonMiniMap@@V?$allocator@UTSignalPoint@CPythonMiniMap@@@std@@@std@@QAE@XZ ; std::vector<CPythonMiniMap::TSignalPoint,std::allocator<CPythonMiniMap::TSignalPoint> >::_Reallocation_guard::~_Reallocation_guard
PUBLIC	?max_size@?$_Tree@V?$_Tmap_traits@V?$basic_string@DU?$char_traits@D@std@@V?$allocator@D@2@@std@@V?$vector@V?$basic_string@DU?$char_traits@D@std@@V?$allocator@D@2@@std@@V?$allocator@V?$basic_string@DU?$char_traits@D@std@@V?$allocator@D@2@@std@@@2@@2@U?$less@V?$basic_string@DU?$char_traits@D@std@@V?$allocator@D@2@@std@@@2@V?$allocator@U?$pair@$$CBV?$basic_string@DU?$char_traits@D@std@@V?$allocator@D@2@@std@@V?$vector@V?$basic_string@DU?$char_traits@D@std@@V?$allocator@D@2@@std@@V?$allocator@V?$basic_string@DU?$char_traits@D@std@@V?$allocator@D@2@@std@@@2@@2@@std@@@2@$0A@@std@@@std@@QBEIXZ ; std::_Tree<std::_Tmap_traits<std::basic_string<char,std::char_traits<char>,std::allocator<char> >,std::vector<std::basic_string<char,std::char_traits<char>,std::allocator<char> >,std::allocator<std::basic_string<char,std::char_traits<char>,std::allocator<char> > > >,std::less<std::basic_string<char,std::char_traits<char>,std::allocator<char> > >,std::allocator<std::pair<std::basic_string<char,std::char_traits<char>,std::allocator<char> > const ,std::vector<std::basic_string<char,std::char_traits<char>,std::allocator<char> >,std::allocator<std::basic_string<char,std::char_traits<char>,std::allocator<char> > > > > >,0> >::max_size
PUBLIC	?_Getcomp@?$_Tree@V?$_Tmap_traits@V?$basic_string@DU?$char_traits@D@std@@V?$allocator@D@2@@std@@V?$vector@V?$basic_string@DU?$char_traits@D@std@@V?$allocator@D@2@@std@@V?$allocator@V?$basic_string@DU?$char_traits@D@std@@V?$allocator@D@2@@std@@@2@@2@U?$less@V?$basic_string@DU?$char_traits@D@std@@V?$allocator@D@2@@std@@@2@V?$allocator@U?$pair@$$CBV?$basic_string@DU?$char_traits@D@std@@V?$allocator@D@2@@std@@V?$vector@V?$basic_string@DU?$char_traits@D@std@@V?$allocator@D@2@@std@@V?$allocator@V?$basic_string@DU?$char_traits@D@std@@V?$allocator@D@2@@std@@@2@@2@@std@@@2@$0A@@std@@@std@@IBEABU?$less@V?$basic_string@DU?$char_traits@D@std@@V?$allocator@D@2@@std@@@2@XZ ; std::_Tree<std::_Tmap_traits<std::basic_string<char,std::char_traits<char>,std::allocator<char> >,std::vector<std::basic_string<char,std::char_traits<char>,std::allocator<char> >,std::allocator<std::basic_string<char,std::char_traits<char>,std::allocator<char> > > >,std::less<std::basic_string<char,std::char_traits<char>,std::allocator<char> > >,std::allocator<std::pair<std::basic_string<char,std::char_traits<char>,std::allocator<char> > const ,std::vector<std::basic_string<char,std::char_traits<char>,std::allocator<char> >,std::allocator<std::basic_string<char,std::char_traits<char>,std::allocator<char> > > > > >,0> >::_Getcomp
PUBLIC	?deallocate@?$_Default_allocator_traits@V?$allocator@U?$_Tree_node@U?$pair@$$CBV?$basic_string@DU?$char_traits@D@std@@V?$allocator@D@2@@std@@V?$vector@V?$basic_string@DU?$char_traits@D@std@@V?$allocator@D@2@@std@@V?$allocator@V?$basic_string@DU?$char_traits@D@std@@V?$allocator@D@2@@std@@@2@@2@@std@@PAX@std@@@std@@@std@@SAXAAV?$allocator@U?$_Tree_node@U?$pair@$$CBV?$basic_string@DU?$char_traits@D@std@@V?$allocator@D@2@@std@@V?$vector@V?$basic_string@DU?$char_traits@D@std@@V?$allocator@D@2@@std@@V?$allocator@V?$basic_string@DU?$char_traits@D@std@@V?$allocator@D@2@@std@@@2@@2@@std@@PAX@std@@@2@QAU?$_Tree_node@U?$pair@$$CBV?$basic_string@DU?$char_traits@D@std@@V?$allocator@D@2@@std@@V?$vector@V?$basic_string@DU?$char_traits@D@std@@V?$allocator@D@2@@std@@V?$allocator@V?$basic_string@DU?$char_traits@D@std@@V?$allocator@D@2@@std@@@2@@2@@std@@PAX@2@I@Z ; std::_Default_allocator_traits<std::allocator<std::_Tree_node<std::pair<std::basic_string<char,std::char_traits<char>,std::allocator<char> > const ,std::vector<std::basic_string<char,std::char_traits<char>,std::allocator<char> >,std::allocator<std::basic_string<char,std::char_traits<char>,std::allocator<char> > > > >,void *> > >::deallocate
PUBLIC	?_Lrotate@?$_Tree_val@U?$_Tree_simple_types@U?$pair@$$CBV?$basic_string@DU?$char_traits@D@std@@V?$allocator@D@2@@std@@V?$vector@V?$basic_string@DU?$char_traits@D@std@@V?$allocator@D@2@@std@@V?$allocator@V?$basic_string@DU?$char_traits@D@std@@V?$allocator@D@2@@std@@@2@@2@@std@@@std@@@std@@QAEXPAU?$_Tree_node@U?$pair@$$CBV?$basic_string@DU?$char_traits@D@std@@V?$allocator@D@2@@std@@V?$vector@V?$basic_string@DU?$char_traits@D@std@@V?$allocator@D@2@@std@@V?$allocator@V?$basic_string@DU?$char_traits@D@std@@V?$allocator@D@2@@std@@@2@@2@@std@@PAX@2@@Z ; std::_Tree_val<std::_Tree_simple_types<std::pair<std::basic_string<char,std::char_traits<char>,std::allocator<char> > const ,std::vector<std::basic_string<char,std::char_traits<char>,std::allocator<char> >,std::allocator<std::basic_string<char,std::char_traits<char>,std::allocator<char> > > > > > >::_Lrotate
PUBLIC	?_Rrotate@?$_Tree_val@U?$_Tree_simple_types@U?$pair@$$CBV?$basic_string@DU?$char_traits@D@std@@V?$allocator@D@2@@std@@V?$vector@V?$basic_string@DU?$char_traits@D@std@@V?$allocator@D@2@@std@@V?$allocator@V?$basic_string@DU?$char_traits@D@std@@V?$allocator@D@2@@std@@@2@@2@@std@@@std@@@std@@QAEXPAU?$_Tree_node@U?$pair@$$CBV?$basic_string@DU?$char_traits@D@std@@V?$allocator@D@2@@std@@V?$vector@V?$basic_string@DU?$char_traits@D@std@@V?$allocator@D@2@@std@@V?$allocator@V?$basic_string@DU?$char_traits@D@std@@V?$allocator@D@2@@std@@@2@@2@@std@@PAX@2@@Z ; std::_Tree_val<std::_Tree_simple_types<std::pair<std::basic_string<char,std::char_traits<char>,std::allocator<char> > const ,std::vector<std::basic_string<char,std::char_traits<char>,std::allocator<char> >,std::allocator<std::basic_string<char,std::char_traits<char>,std::allocator<char> > > > > > >::_Rrotate
PUBLIC	??0?$_Tree_temp_node_alloc@V?$allocator@U?$_Tree_node@U?$pair@$$CBKUSObserver@CPythonMiniMap@@@std@@PAX@std@@@std@@@std@@QAE@AAV?$allocator@U?$_Tree_node@U?$pair@$$CBKUSObserver@CPythonMiniMap@@@std@@PAX@std@@@1@@Z ; std::_Tree_temp_node_alloc<std::allocator<std::_Tree_node<std::pair<unsigned long const ,CPythonMiniMap::SObserver>,void *> > >::_Tree_temp_node_alloc<std::allocator<std::_Tree_node<std::pair<unsigned long const ,CPythonMiniMap::SObserver>,void *> > >
PUBLIC	??1?$_Alloc_construct_ptr@V?$allocator@U?$_Tree_node@U?$pair@$$CBKUSObserver@CPythonMiniMap@@@std@@PAX@std@@@std@@@std@@QAE@XZ ; std::_Alloc_construct_ptr<std::allocator<std::_Tree_node<std::pair<unsigned long const ,CPythonMiniMap::SObserver>,void *> > >::~_Alloc_construct_ptr<std::allocator<std::_Tree_node<std::pair<unsigned long const ,CPythonMiniMap::SObserver>,void *> > >
PUBLIC	??0?$_Tree_temp_node_alloc@V?$allocator@U?$_Tree_node@U?$pair@$$CBV?$basic_string@DU?$char_traits@D@std@@V?$allocator@D@2@@std@@V?$vector@V?$basic_string@DU?$char_traits@D@std@@V?$allocator@D@2@@std@@V?$allocator@V?$basic_string@DU?$char_traits@D@std@@V?$allocator@D@2@@std@@@2@@2@@std@@PAX@std@@@std@@@std@@QAE@AAV?$allocator@U?$_Tree_node@U?$pair@$$CBV?$basic_string@DU?$char_traits@D@std@@V?$allocator@D@2@@std@@V?$vector@V?$basic_string@DU?$char_traits@D@std@@V?$allocator@D@2@@std@@V?$allocator@V?$basic_string@DU?$char_traits@D@std@@V?$allocator@D@2@@std@@@2@@2@@std@@PAX@std@@@1@@Z ; std::_Tree_temp_node_alloc<std::allocator<std::_Tree_node<std::pair<std::basic_string<char,std::char_traits<char>,std::allocator<char> > const ,std::vector<std::basic_string<char,std::char_traits<char>,std::allocator<char> >,std::allocator<std::basic_string<char,std::char_traits<char>,std::allocator<char> > > > >,void *> > >::_Tree_temp_node_alloc<std::allocator<std::_Tree_node<std::pair<std::basic_string<char,std::char_traits<char>,std::allocator<char> > const ,std::vector<std::basic_string<char,std::char_traits<char>,std::allocator<char> >,std::allocator<std::basic_string<char,std::char_traits<char>,std::allocator<char> > > > >,void *> > >
PUBLIC	??1?$_Alloc_construct_ptr@V?$allocator@U?$_Tree_node@U?$pair@$$CBV?$basic_string@DU?$char_traits@D@std@@V?$allocator@D@2@@std@@V?$vector@V?$basic_string@DU?$char_traits@D@std@@V?$allocator@D@2@@std@@V?$allocator@V?$basic_string@DU?$char_traits@D@std@@V?$allocator@D@2@@std@@@2@@2@@std@@PAX@std@@@std@@@std@@QAE@XZ ; std::_Alloc_construct_ptr<std::allocator<std::_Tree_node<std::pair<std::basic_string<char,std::char_traits<char>,std::allocator<char> > const ,std::vector<std::basic_string<char,std::char_traits<char>,std::allocator<char> >,std::allocator<std::basic_string<char,std::char_traits<char>,std::allocator<char> > > > >,void *> > >::~_Alloc_construct_ptr<std::allocator<std::_Tree_node<std::pair<std::basic_string<char,std::char_traits<char>,std::allocator<char> > const ,std::vector<std::basic_string<char,std::char_traits<char>,std::allocator<char> >,std::allocator<std::basic_string<char,std::char_traits<char>,std::allocator<char> > > > >,void *> > >
PUBLIC	??$_Buyheadnode@V?$allocator@U?$_Tree_node@U?$pair@$$CBKUSObserver@CPythonMiniMap@@@std@@PAX@std@@@std@@@?$_Tree_node@U?$pair@$$CBKUSObserver@CPythonMiniMap@@@std@@PAX@std@@SAPAU01@AAV?$allocator@U?$_Tree_node@U?$pair@$$CBKUSObserver@CPythonMiniMap@@@std@@PAX@std@@@1@@Z ; std::_Tree_node<std::pair<unsigned long const ,CPythonMiniMap::SObserver>,void *>::_Buyheadnode<std::allocator<std::_Tree_node<std::pair<unsigned long const ,CPythonMiniMap::SObserver>,void *> > >
PUBLIC	??$addressof@$$CBV?$_Tree_val@U?$_Tree_simple_types@U?$pair@$$CBKUSObserver@CPythonMiniMap@@@std@@@std@@@std@@@std@@YAPBV?$_Tree_val@U?$_Tree_simple_types@U?$pair@$$CBKUSObserver@CPythonMiniMap@@@std@@@std@@@0@ABV10@@Z ; std::addressof<std::_Tree_val<std::_Tree_simple_types<std::pair<unsigned long const ,CPythonMiniMap::SObserver> > > const >
PUBLIC	??$?0ABV?$allocator@U?$pair@$$CBKV?$shared_ptr@USPartyPlayerPosition@CPythonMiniMap@@@std@@@std@@@std@@$$V@?$_Compressed_pair@V?$allocator@U?$_List_node@U?$pair@$$CBKV?$shared_ptr@USPartyPlayerPosition@CPythonMiniMap@@@std@@@std@@PAX@std@@@std@@V?$_List_val@U?$_List_simple_types@U?$pair@$$CBKV?$shared_ptr@USPartyPlayerPosition@CPythonMiniMap@@@std@@@std@@@std@@@2@$00@std@@QAE@U_One_then_variadic_args_t@1@ABV?$allocator@U?$pair@$$CBKV?$shared_ptr@USPartyPlayerPosition@CPythonMiniMap@@@std@@@std@@@1@@Z ; std::_Compressed_pair<std::allocator<std::_List_node<std::pair<unsigned long const ,std::shared_ptr<CPythonMiniMap::SPartyPlayerPosition> >,void *> >,std::_List_val<std::_List_simple_types<std::pair<unsigned long const ,std::shared_ptr<CPythonMiniMap::SPartyPlayerPosition> > > >,1>::_Compressed_pair<std::allocator<std::_List_node<std::pair<unsigned long const ,std::shared_ptr<CPythonMiniMap::SPartyPlayerPosition> >,void *> >,std::_List_val<std::_List_simple_types<std::pair<unsigned long const ,std::shared_ptr<CPythonMiniMap::SPartyPlayerPosition> > > >,1><std::allocator<std::pair<unsigned long const ,std::shared_ptr<CPythonMiniMap::SPartyPlayerPosition> > > const &>
PUBLIC	??$uninitialized_fill@PAV?$_List_unchecked_iterator@V?$_List_val@U?$_List_simple_types@U?$pair@$$CBKV?$shared_ptr@USPartyPlayerPosition@CPythonMiniMap@@@std@@@std@@@std@@@std@@@std@@V12@@std@@YAXQAV?$_List_unchecked_iterator@V?$_List_val@U?$_List_simple_types@U?$pair@$$CBKV?$shared_ptr@USPartyPlayerPosition@CPythonMiniMap@@@std@@@std@@@std@@@std@@@0@0ABV10@@Z ; std::uninitialized_fill<std::_List_unchecked_iterator<std::_List_val<std::_List_simple_types<std::pair<unsigned long const ,std::shared_ptr<CPythonMiniMap::SPartyPlayerPosition> > > > > *,std::_List_unchecked_iterator<std::_List_val<std::_List_simple_types<std::pair<unsigned long const ,std::shared_ptr<CPythonMiniMap::SPartyPlayerPosition> > > > > >
PUBLIC	??$_Buyheadnode@V?$allocator@U?$_Tree_node@U?$pair@$$CBV?$basic_string@DU?$char_traits@D@std@@V?$allocator@D@2@@std@@V?$vector@V?$basic_string@DU?$char_traits@D@std@@V?$allocator@D@2@@std@@V?$allocator@V?$basic_string@DU?$char_traits@D@std@@V?$allocator@D@2@@std@@@2@@2@@std@@PAX@std@@@std@@@?$_Tree_node@U?$pair@$$CBV?$basic_string@DU?$char_traits@D@std@@V?$allocator@D@2@@std@@V?$vector@V?$basic_string@DU?$char_traits@D@std@@V?$allocator@D@2@@std@@V?$allocator@V?$basic_string@DU?$char_traits@D@std@@V?$allocator@D@2@@std@@@2@@2@@std@@PAX@std@@SAPAU01@AAV?$allocator@U?$_Tree_node@U?$pair@$$CBV?$basic_string@DU?$char_traits@D@std@@V?$allocator@D@2@@std@@V?$vector@V?$basic_string@DU?$char_traits@D@std@@V?$allocator@D@2@@std@@V?$allocator@V?$basic_string@DU?$char_traits@D@std@@V?$allocator@D@2@@std@@@2@@2@@std@@PAX@std@@@1@@Z ; std::_Tree_node<std::pair<std::basic_string<char,std::char_traits<char>,std::allocator<char> > const ,std::vector<std::basic_string<char,std::char_traits<char>,std::allocator<char> >,std::allocator<std::basic_string<char,std::char_traits<char>,std::allocator<char> > > > >,void *>::_Buyheadnode<std::allocator<std::_Tree_node<std::pair<std::basic_string<char,std::char_traits<char>,std::allocator<char> > const ,std::vector<std::basic_string<char,std::char_traits<char>,std::allocator<char> >,std::allocator<std::basic_string<char,std::char_traits<char>,std::allocator<char> > > > >,void *> > >
PUBLIC	??$destroy@U?$pair@$$CBKUSObserver@CPythonMiniMap@@@std@@@?$_Default_allocator_traits@V?$allocator@U?$_Tree_node@U?$pair@$$CBKUSObserver@CPythonMiniMap@@@std@@PAX@std@@@std@@@std@@SAXAAV?$allocator@U?$_Tree_node@U?$pair@$$CBKUSObserver@CPythonMiniMap@@@std@@PAX@std@@@1@QAU?$pair@$$CBKUSObserver@CPythonMiniMap@@@1@@Z ; std::_Default_allocator_traits<std::allocator<std::_Tree_node<std::pair<unsigned long const ,CPythonMiniMap::SObserver>,void *> > >::destroy<std::pair<unsigned long const ,CPythonMiniMap::SObserver> >
PUBLIC	??$exchange@PAU?$_Tree_node@U?$pair@$$CBKUSObserver@CPythonMiniMap@@@std@@PAX@std@@$$T@std@@YAPAU?$_Tree_node@U?$pair@$$CBKUSObserver@CPythonMiniMap@@@std@@PAX@0@AAPAU10@$$QA$$T@Z ; std::exchange<std::_Tree_node<std::pair<unsigned long const ,CPythonMiniMap::SObserver>,void *> *,std::nullptr_t>
PUBLIC	??$destroy@U?$pair@$$CBV?$basic_string@DU?$char_traits@D@std@@V?$allocator@D@2@@std@@V?$vector@V?$basic_string@DU?$char_traits@D@std@@V?$allocator@D@2@@std@@V?$allocator@V?$basic_string@DU?$char_traits@D@std@@V?$allocator@D@2@@std@@@2@@2@@std@@@?$_Default_allocator_traits@V?$allocator@U?$_Tree_node@U?$pair@$$CBV?$basic_string@DU?$char_traits@D@std@@V?$allocator@D@2@@std@@V?$vector@V?$basic_string@DU?$char_traits@D@std@@V?$allocator@D@2@@std@@V?$allocator@V?$basic_string@DU?$char_traits@D@std@@V?$allocator@D@2@@std@@@2@@2@@std@@PAX@std@@@std@@@std@@SAXAAV?$allocator@U?$_Tree_node@U?$pair@$$CBV?$basic_string@DU?$char_traits@D@std@@V?$allocator@D@2@@std@@V?$vector@V?$basic_string@DU?$char_traits@D@std@@V?$allocator@D@2@@std@@V?$allocator@V?$basic_string@DU?$char_traits@D@std@@V?$allocator@D@2@@std@@@2@@2@@std@@PAX@std@@@1@QAU?$pair@$$CBV?$basic_string@DU?$char_traits@D@std@@V?$allocator@D@2@@std@@V?$vector@V?$basic_string@DU?$char_traits@D@std@@V?$allocator@D@2@@std@@V?$allocator@V?$basic_string@DU?$char_traits@D@std@@V?$allocator@D@2@@std@@@2@@2@@1@@Z ; std::_Default_allocator_traits<std::allocator<std::_Tree_node<std::pair<std::basic_string<char,std::char_traits<char>,std::allocator<char> > const ,std::vector<std::basic_string<char,std::char_traits<char>,std::allocator<char> >,std::allocator<std::basic_string<char,std::char_traits<char>,std::allocator<char> > > > >,void *> > >::destroy<std::pair<std::basic_string<char,std::char_traits<char>,std::allocator<char> > const ,std::vector<std::basic_string<char,std::char_traits<char>,std::allocator<char> >,std::allocator<std::basic_string<char,std::char_traits<char>,std::allocator<char> > > > > >
PUBLIC	??$exchange@PAU?$_Tree_node@U?$pair@$$CBV?$basic_string@DU?$char_traits@D@std@@V?$allocator@D@2@@std@@V?$vector@V?$basic_string@DU?$char_traits@D@std@@V?$allocator@D@2@@std@@V?$allocator@V?$basic_string@DU?$char_traits@D@std@@V?$allocator@D@2@@std@@@2@@2@@std@@PAX@std@@$$T@std@@YAPAU?$_Tree_node@U?$pair@$$CBV?$basic_string@DU?$char_traits@D@std@@V?$allocator@D@2@@std@@V?$vector@V?$basic_string@DU?$char_traits@D@std@@V?$allocator@D@2@@std@@V?$allocator@V?$basic_string@DU?$char_traits@D@std@@V?$allocator@D@2@@std@@@2@@2@@std@@PAX@0@AAPAU10@$$QA$$T@Z ; std::exchange<std::_Tree_node<std::pair<std::basic_string<char,std::char_traits<char>,std::allocator<char> > const ,std::vector<std::basic_string<char,std::char_traits<char>,std::allocator<char> >,std::allocator<std::basic_string<char,std::char_traits<char>,std::allocator<char> > > > >,void *> *,std::nullptr_t>
PUBLIC	??$_Adl_verify_range@V?$_Tree_unchecked_const_iterator@V?$_Tree_val@U?$_Tree_simple_types@U?$pair@$$CBKUSObserver@CPythonMiniMap@@@std@@@std@@@std@@U_Iterator_base0@2@@std@@V12@@std@@YAXABV?$_Tree_unchecked_const_iterator@V?$_Tree_val@U?$_Tree_simple_types@U?$pair@$$CBKUSObserver@CPythonMiniMap@@@std@@@std@@@std@@U_Iterator_base0@2@@0@0@Z ; std::_Adl_verify_range<std::_Tree_unchecked_const_iterator<std::_Tree_val<std::_Tree_simple_types<std::pair<unsigned long const ,CPythonMiniMap::SObserver> > >,std::_Iterator_base0>,std::_Tree_unchecked_const_iterator<std::_Tree_val<std::_Tree_simple_types<std::pair<unsigned long const ,CPythonMiniMap::SObserver> > >,std::_Iterator_base0> >
PUBLIC	??$?0ABV?$allocator@U?$pair@$$CBKV?$shared_ptr@USPartyPlayerPosition@CPythonMiniMap@@@std@@@std@@@std@@$$V@?$_Compressed_pair@V?$allocator@V?$_List_unchecked_iterator@V?$_List_val@U?$_List_simple_types@U?$pair@$$CBKV?$shared_ptr@USPartyPlayerPosition@CPythonMiniMap@@@std@@@std@@@std@@@std@@@std@@@std@@V?$_Vector_val@U?$_Simple_types@V?$_List_unchecked_iterator@V?$_List_val@U?$_List_simple_types@U?$pair@$$CBKV?$shared_ptr@USPartyPlayerPosition@CPythonMiniMap@@@std@@@std@@@std@@@std@@@std@@@std@@@2@$00@std@@QAE@U_One_then_variadic_args_t@1@ABV?$allocator@U?$pair@$$CBKV?$shared_ptr@USPartyPlayerPosition@CPythonMiniMap@@@std@@@std@@@1@@Z ; std::_Compressed_pair<std::allocator<std::_List_unchecked_iterator<std::_List_val<std::_List_simple_types<std::pair<unsigned long const ,std::shared_ptr<CPythonMiniMap::SPartyPlayerPosition> > > > > >,std::_Vector_val<std::_Simple_types<std::_List_unchecked_iterator<std::_List_val<std::_List_simple_types<std::pair<unsigned long const ,std::shared_ptr<CPythonMiniMap::SPartyPlayerPosition> > > > > > >,1>::_Compressed_pair<std::allocator<std::_List_unchecked_iterator<std::_List_val<std::_List_simple_types<std::pair<unsigned long const ,std::shared_ptr<CPythonMiniMap::SPartyPlayerPosition> > > > > >,std::_Vector_val<std::_Simple_types<std::_List_unchecked_iterator<std::_List_val<std::_List_simple_types<std::pair<unsigned long const ,std::shared_ptr<CPythonMiniMap::SPartyPlayerPosition> > > > > > >,1><std::allocator<std::pair<unsigned long const ,std::shared_ptr<CPythonMiniMap::SPartyPlayerPosition> > > const &>
PUBLIC	??$forward@ABV?$allocator@U?$pair@$$CBKV?$shared_ptr@USPartyPlayerPosition@CPythonMiniMap@@@std@@@std@@@std@@@std@@YAABV?$allocator@U?$pair@$$CBKV?$shared_ptr@USPartyPlayerPosition@CPythonMiniMap@@@std@@@std@@@0@ABV10@@Z ; std::forward<std::allocator<std::pair<unsigned long const ,std::shared_ptr<CPythonMiniMap::SPartyPlayerPosition> > > const &>
PUBLIC	??$construct_at@PAU?$_List_node@U?$pair@$$CBKV?$shared_ptr@USPartyPlayerPosition@CPythonMiniMap@@@std@@@std@@PAX@std@@ABQAU12@@std@@YAPAPAU?$_List_node@U?$pair@$$CBKV?$shared_ptr@USPartyPlayerPosition@CPythonMiniMap@@@std@@@std@@PAX@0@QAPAU10@ABQAU10@@Z ; std::construct_at<std::_List_node<std::pair<unsigned long const ,std::shared_ptr<CPythonMiniMap::SPartyPlayerPosition> >,void *> *,std::_List_node<std::pair<unsigned long const ,std::shared_ptr<CPythonMiniMap::SPartyPlayerPosition> >,void *> * const &>
PUBLIC	??$forward@ABQAU?$_List_node@U?$pair@$$CBKV?$shared_ptr@USPartyPlayerPosition@CPythonMiniMap@@@std@@@std@@PAX@std@@@std@@YAABQAU?$_List_node@U?$pair@$$CBKV?$shared_ptr@USPartyPlayerPosition@CPythonMiniMap@@@std@@@std@@PAX@0@ABQAU10@@Z ; std::forward<std::_List_node<std::pair<unsigned long const ,std::shared_ptr<CPythonMiniMap::SPartyPlayerPosition> >,void *> * const &>
PUBLIC	??$addressof@PAU?$_List_node@U?$pair@$$CBKV?$shared_ptr@USPartyPlayerPosition@CPythonMiniMap@@@std@@@std@@PAX@std@@@std@@YAPAPAU?$_List_node@U?$pair@$$CBKV?$shared_ptr@USPartyPlayerPosition@CPythonMiniMap@@@std@@@std@@PAX@0@AAPAU10@@Z ; std::addressof<std::_List_node<std::pair<unsigned long const ,std::shared_ptr<CPythonMiniMap::SPartyPlayerPosition> >,void *> *>
PUBLIC	??$_Destroy_in_place@PAU?$_List_node@U?$pair@$$CBKV?$shared_ptr@USPartyPlayerPosition@CPythonMiniMap@@@std@@@std@@PAX@std@@@std@@YAXAAPAU?$_List_node@U?$pair@$$CBKV?$shared_ptr@USPartyPlayerPosition@CPythonMiniMap@@@std@@@std@@PAX@0@@Z ; std::_Destroy_in_place<std::_List_node<std::pair<unsigned long const ,std::shared_ptr<CPythonMiniMap::SPartyPlayerPosition> >,void *> *>
PUBLIC	??$_Freenode@V?$allocator@U?$_List_node@U?$pair@$$CBKV?$shared_ptr@USPartyPlayerPosition@CPythonMiniMap@@@std@@@std@@PAX@std@@@std@@@?$_List_node@U?$pair@$$CBKV?$shared_ptr@USPartyPlayerPosition@CPythonMiniMap@@@std@@@std@@PAX@std@@SAXAAV?$allocator@U?$_List_node@U?$pair@$$CBKV?$shared_ptr@USPartyPlayerPosition@CPythonMiniMap@@@std@@@std@@PAX@std@@@1@PAU01@@Z ; std::_List_node<std::pair<unsigned long const ,std::shared_ptr<CPythonMiniMap::SPartyPlayerPosition> >,void *>::_Freenode<std::allocator<std::_List_node<std::pair<unsigned long const ,std::shared_ptr<CPythonMiniMap::SPartyPlayerPosition> >,void *> > >
PUBLIC	??1?$pair@$$CBKV?$shared_ptr@USPartyPlayerPosition@CPythonMiniMap@@@std@@@std@@QAE@XZ ; std::pair<unsigned long const ,std::shared_ptr<CPythonMiniMap::SPartyPlayerPosition> >::~pair<unsigned long const ,std::shared_ptr<CPythonMiniMap::SPartyPlayerPosition> >
PUBLIC	??$destroy_at@U?$pair@$$CBKV?$shared_ptr@USPartyPlayerPosition@CPythonMiniMap@@@std@@@std@@@std@@YAXQAU?$pair@$$CBKV?$shared_ptr@USPartyPlayerPosition@CPythonMiniMap@@@std@@@0@@Z ; std::destroy_at<std::pair<unsigned long const ,std::shared_ptr<CPythonMiniMap::SPartyPlayerPosition> > >
PUBLIC	??$forward@PAU?$_Tree_node@U?$pair@$$CBV?$basic_string@DU?$char_traits@D@std@@V?$allocator@D@2@@std@@V?$vector@V?$basic_string@DU?$char_traits@D@std@@V?$allocator@D@2@@std@@V?$allocator@V?$basic_string@DU?$char_traits@D@std@@V?$allocator@D@2@@std@@@2@@2@@std@@PAX@std@@@std@@YA$$QAPAU?$_Tree_node@U?$pair@$$CBV?$basic_string@DU?$char_traits@D@std@@V?$allocator@D@2@@std@@V?$vector@V?$basic_string@DU?$char_traits@D@std@@V?$allocator@D@2@@std@@V?$allocator@V?$basic_string@DU?$char_traits@D@std@@V?$allocator@D@2@@std@@@2@@2@@std@@PAX@0@AAPAU10@@Z ; std::forward<std::_Tree_node<std::pair<std::basic_string<char,std::char_traits<char>,std::allocator<char> > const ,std::vector<std::basic_string<char,std::char_traits<char>,std::allocator<char> >,std::allocator<std::basic_string<char,std::char_traits<char>,std::allocator<char> > > > >,void *> *>
PUBLIC	??$forward@ABQAU?$_Tree_node@U?$pair@$$CBV?$basic_string@DU?$char_traits@D@std@@V?$allocator@D@2@@std@@V?$vector@V?$basic_string@DU?$char_traits@D@std@@V?$allocator@D@2@@std@@V?$allocator@V?$basic_string@DU?$char_traits@D@std@@V?$allocator@D@2@@std@@@2@@2@@std@@PAX@std@@@std@@YAABQAU?$_Tree_node@U?$pair@$$CBV?$basic_string@DU?$char_traits@D@std@@V?$allocator@D@2@@std@@V?$vector@V?$basic_string@DU?$char_traits@D@std@@V?$allocator@D@2@@std@@V?$allocator@V?$basic_string@DU?$char_traits@D@std@@V?$allocator@D@2@@std@@@2@@2@@std@@PAX@0@ABQAU10@@Z ; std::forward<std::_Tree_node<std::pair<std::basic_string<char,std::char_traits<char>,std::allocator<char> > const ,std::vector<std::basic_string<char,std::char_traits<char>,std::allocator<char> >,std::allocator<std::basic_string<char,std::char_traits<char>,std::allocator<char> > > > >,void *> * const &>
PUBLIC	??$_Construct_in_place@PAU?$_Tree_node@U?$pair@$$CBV?$basic_string@DU?$char_traits@D@std@@V?$allocator@D@2@@std@@V?$vector@V?$basic_string@DU?$char_traits@D@std@@V?$allocator@D@2@@std@@V?$allocator@V?$basic_string@DU?$char_traits@D@std@@V?$allocator@D@2@@std@@@2@@2@@std@@PAX@std@@AAPAU12@@std@@YAXAAPAU?$_Tree_node@U?$pair@$$CBV?$basic_string@DU?$char_traits@D@std@@V?$allocator@D@2@@std@@V?$vector@V?$basic_string@DU?$char_traits@D@std@@V?$allocator@D@2@@std@@V?$allocator@V?$basic_string@DU?$char_traits@D@std@@V?$allocator@D@2@@std@@@2@@2@@std@@PAX@0@0@Z ; std::_Construct_in_place<std::_Tree_node<std::pair<std::basic_string<char,std::char_traits<char>,std::allocator<char> > const ,std::vector<std::basic_string<char,std::char_traits<char>,std::allocator<char> >,std::allocator<std::basic_string<char,std::char_traits<char>,std::allocator<char> > > > >,void *> *,std::_Tree_node<std::pair<std::basic_string<char,std::char_traits<char>,std::allocator<char> > const ,std::vector<std::basic_string<char,std::char_traits<char>,std::allocator<char> >,std::allocator<std::basic_string<char,std::char_traits<char>,std::allocator<char> > > > >,void *> * &>
PUBLIC	??$construct@U?$pair@$$CBV?$basic_string@DU?$char_traits@D@std@@V?$allocator@D@2@@std@@V?$vector@V?$basic_string@DU?$char_traits@D@std@@V?$allocator@D@2@@std@@V?$allocator@V?$basic_string@DU?$char_traits@D@std@@V?$allocator@D@2@@std@@@2@@2@@std@@ABUpiecewise_construct_t@2@V?$tuple@$$QAV?$basic_string@DU?$char_traits@D@std@@V?$allocator@D@2@@std@@@2@V?$tuple@$$V@2@@?$_Default_allocator_traits@V?$allocator@U?$_Tree_node@U?$pair@$$CBV?$basic_string@DU?$char_traits@D@std@@V?$allocator@D@2@@std@@V?$vector@V?$basic_string@DU?$char_traits@D@std@@V?$allocator@D@2@@std@@V?$allocator@V?$basic_string@DU?$char_traits@D@std@@V?$allocator@D@2@@std@@@2@@2@@std@@PAX@std@@@std@@@std@@SAXAAV?$allocator@U?$_Tree_node@U?$pair@$$CBV?$basic_string@DU?$char_traits@D@std@@V?$allocator@D@2@@std@@V?$vector@V?$basic_string@DU?$char_traits@D@std@@V?$allocator@D@2@@std@@V?$allocator@V?$basic_string@DU?$char_traits@D@std@@V?$allocator@D@2@@std@@@2@@2@@std@@PAX@std@@@1@QAU?$pair@$$CBV?$basic_string@DU?$char_traits@D@std@@V?$allocator@D@2@@std@@V?$vector@V?$basic_string@DU?$char_traits@D@std@@V?$allocator@D@2@@std@@V?$allocator@V?$basic_string@DU?$char_traits@D@std@@V?$allocator@D@2@@std@@@2@@2@@1@ABUpiecewise_construct_t@1@$$QAV?$tuple@$$QAV?$basic_string@DU?$char_traits@D@std@@V?$allocator@D@2@@std@@@1@$$QAV?$tuple@$$V@1@@Z ; std::_Default_allocator_traits<std::allocator<std::_Tree_node<std::pair<std::basic_string<char,std::char_traits<char>,std::allocator<char> > const ,std::vector<std::basic_string<char,std::char_traits<char>,std::allocator<char> >,std::allocator<std::basic_string<char,std::char_traits<char>,std::allocator<char> > > > >,void *> > >::construct<std::pair<std::basic_string<char,std::char_traits<char>,std::allocator<char> > const ,std::vector<std::basic_string<char,std::char_traits<char>,std::allocator<char> >,std::allocator<std::basic_string<char,std::char_traits<char>,std::allocator<char> > > > >,std::piecewise_construct_t const &,std::tuple<std::basic_string<char,std::char_traits<char>,std::allocator<char> > &&>,std::tuple<> >
PUBLIC	??$addressof@U?$pair@$$CBV?$basic_string@DU?$char_traits@D@std@@V?$allocator@D@2@@std@@V?$vector@V?$basic_string@DU?$char_traits@D@std@@V?$allocator@D@2@@std@@V?$allocator@V?$basic_string@DU?$char_traits@D@std@@V?$allocator@D@2@@std@@@2@@2@@std@@@std@@YAPAU?$pair@$$CBV?$basic_string@DU?$char_traits@D@std@@V?$allocator@D@2@@std@@V?$vector@V?$basic_string@DU?$char_traits@D@std@@V?$allocator@D@2@@std@@V?$allocator@V?$basic_string@DU?$char_traits@D@std@@V?$allocator@D@2@@std@@@2@@2@@0@AAU10@@Z ; std::addressof<std::pair<std::basic_string<char,std::char_traits<char>,std::allocator<char> > const ,std::vector<std::basic_string<char,std::char_traits<char>,std::allocator<char> >,std::allocator<std::basic_string<char,std::char_traits<char>,std::allocator<char> > > > > >
PUBLIC	??$_Uninitialized_move@PAUSMarkPosition@CPythonMiniMap@@V?$allocator@USMarkPosition@CPythonMiniMap@@@std@@@std@@YAPAUSMarkPosition@CPythonMiniMap@@QAU12@0PAU12@AAV?$allocator@USMarkPosition@CPythonMiniMap@@@0@@Z ; std::_Uninitialized_move<CPythonMiniMap::SMarkPosition *,std::allocator<CPythonMiniMap::SMarkPosition> >
PUBLIC	??$_Get_unwrapped@ABQAUSMarkPosition@CPythonMiniMap@@@std@@YA?A_TABQAUSMarkPosition@CPythonMiniMap@@@Z ; std::_Get_unwrapped<CPythonMiniMap::SMarkPosition * const &>
PUBLIC	??$construct@USMarkPosition@CPythonMiniMap@@ABU12@@?$_Default_allocator_traits@V?$allocator@USMarkPosition@CPythonMiniMap@@@std@@@std@@SAXAAV?$allocator@USMarkPosition@CPythonMiniMap@@@1@QAUSMarkPosition@CPythonMiniMap@@ABU34@@Z ; std::_Default_allocator_traits<std::allocator<CPythonMiniMap::SMarkPosition> >::construct<CPythonMiniMap::SMarkPosition,CPythonMiniMap::SMarkPosition const &>
PUBLIC	??$_Unfancy@USMarkPosition@CPythonMiniMap@@@std@@YAPAUSMarkPosition@CPythonMiniMap@@PAU12@@Z ; std::_Unfancy<CPythonMiniMap::SMarkPosition>
PUBLIC	??$_Allocate_at_least_helper@V?$allocator@USMarkPosition@CPythonMiniMap@@@std@@@std@@YAPAUSMarkPosition@CPythonMiniMap@@AAV?$allocator@USMarkPosition@CPythonMiniMap@@@0@AAI@Z ; std::_Allocate_at_least_helper<std::allocator<CPythonMiniMap::SMarkPosition> >
PUBLIC	??$_Construct_in_place@USMarkPosition@CPythonMiniMap@@ABU12@@std@@YAXAAUSMarkPosition@CPythonMiniMap@@ABU12@@Z ; std::_Construct_in_place<CPythonMiniMap::SMarkPosition,CPythonMiniMap::SMarkPosition const &>
PUBLIC	??$_Destroy_in_place@PAU?$_Tree_node@U?$pair@$$CBKUSObserver@CPythonMiniMap@@@std@@PAX@std@@@std@@YAXAAPAU?$_Tree_node@U?$pair@$$CBKUSObserver@CPythonMiniMap@@@std@@PAX@0@@Z ; std::_Destroy_in_place<std::_Tree_node<std::pair<unsigned long const ,CPythonMiniMap::SObserver>,void *> *>
PUBLIC	??$_Freenode@V?$allocator@U?$_Tree_node@U?$pair@$$CBKUSObserver@CPythonMiniMap@@@std@@PAX@std@@@std@@@?$_Tree_node@U?$pair@$$CBKUSObserver@CPythonMiniMap@@@std@@PAX@std@@SAXAAV?$allocator@U?$_Tree_node@U?$pair@$$CBKUSObserver@CPythonMiniMap@@@std@@PAX@std@@@1@PAU01@@Z ; std::_Tree_node<std::pair<unsigned long const ,CPythonMiniMap::SObserver>,void *>::_Freenode<std::allocator<std::_Tree_node<std::pair<unsigned long const ,CPythonMiniMap::SObserver>,void *> > >
PUBLIC	??$exchange@PAU?$_Tree_node@U?$pair@$$CBKUSObserver@CPythonMiniMap@@@std@@PAX@std@@AAPAU12@@std@@YAPAU?$_Tree_node@U?$pair@$$CBKUSObserver@CPythonMiniMap@@@std@@PAX@0@AAPAU10@0@Z ; std::exchange<std::_Tree_node<std::pair<unsigned long const ,CPythonMiniMap::SObserver>,void *> *,std::_Tree_node<std::pair<unsigned long const ,CPythonMiniMap::SObserver>,void *> * &>
PUBLIC	??$_Uninitialized_move@PAUSAtlasMarkInfo@CPythonMiniMap@@V?$allocator@USAtlasMarkInfo@CPythonMiniMap@@@std@@@std@@YAPAUSAtlasMarkInfo@CPythonMiniMap@@QAU12@0PAU12@AAV?$allocator@USAtlasMarkInfo@CPythonMiniMap@@@0@@Z ; std::_Uninitialized_move<CPythonMiniMap::SAtlasMarkInfo *,std::allocator<CPythonMiniMap::SAtlasMarkInfo> >
PUBLIC	??$_Get_unwrapped@ABQAUSAtlasMarkInfo@CPythonMiniMap@@@std@@YA?A_TABQAUSAtlasMarkInfo@CPythonMiniMap@@@Z ; std::_Get_unwrapped<CPythonMiniMap::SAtlasMarkInfo * const &>
PUBLIC	??$_Allocate_at_least_helper@V?$allocator@USAtlasMarkInfo@CPythonMiniMap@@@std@@@std@@YAPAUSAtlasMarkInfo@CPythonMiniMap@@AAV?$allocator@USAtlasMarkInfo@CPythonMiniMap@@@0@AAI@Z ; std::_Allocate_at_least_helper<std::allocator<CPythonMiniMap::SAtlasMarkInfo> >
PUBLIC	??$construct@USAtlasMarkInfo@CPythonMiniMap@@ABU12@@?$_Default_allocator_traits@V?$allocator@USAtlasMarkInfo@CPythonMiniMap@@@std@@@std@@SAXAAV?$allocator@USAtlasMarkInfo@CPythonMiniMap@@@1@QAUSAtlasMarkInfo@CPythonMiniMap@@ABU34@@Z ; std::_Default_allocator_traits<std::allocator<CPythonMiniMap::SAtlasMarkInfo> >::construct<CPythonMiniMap::SAtlasMarkInfo,CPythonMiniMap::SAtlasMarkInfo const &>
PUBLIC	??$_Uninitialized_move@PAUSGuildAreaInfo@CPythonMiniMap@@V?$allocator@USGuildAreaInfo@CPythonMiniMap@@@std@@@std@@YAPAUSGuildAreaInfo@CPythonMiniMap@@QAU12@0PAU12@AAV?$allocator@USGuildAreaInfo@CPythonMiniMap@@@0@@Z ; std::_Uninitialized_move<CPythonMiniMap::SGuildAreaInfo *,std::allocator<CPythonMiniMap::SGuildAreaInfo> >
PUBLIC	??$_Get_unwrapped@ABQAUSGuildAreaInfo@CPythonMiniMap@@@std@@YA?A_TABQAUSGuildAreaInfo@CPythonMiniMap@@@Z ; std::_Get_unwrapped<CPythonMiniMap::SGuildAreaInfo * const &>
PUBLIC	??$construct@USGuildAreaInfo@CPythonMiniMap@@ABU12@@?$_Default_allocator_traits@V?$allocator@USGuildAreaInfo@CPythonMiniMap@@@std@@@std@@SAXAAV?$allocator@USGuildAreaInfo@CPythonMiniMap@@@1@QAUSGuildAreaInfo@CPythonMiniMap@@ABU34@@Z ; std::_Default_allocator_traits<std::allocator<CPythonMiniMap::SGuildAreaInfo> >::construct<CPythonMiniMap::SGuildAreaInfo,CPythonMiniMap::SGuildAreaInfo const &>
PUBLIC	??$_Unfancy@USGuildAreaInfo@CPythonMiniMap@@@std@@YAPAUSGuildAreaInfo@CPythonMiniMap@@PAU12@@Z ; std::_Unfancy<CPythonMiniMap::SGuildAreaInfo>
PUBLIC	??$_Allocate_at_least_helper@V?$allocator@USGuildAreaInfo@CPythonMiniMap@@@std@@@std@@YAPAUSGuildAreaInfo@CPythonMiniMap@@AAV?$allocator@USGuildAreaInfo@CPythonMiniMap@@@0@AAI@Z ; std::_Allocate_at_least_helper<std::allocator<CPythonMiniMap::SGuildAreaInfo> >
PUBLIC	??$_Construct_in_place@USGuildAreaInfo@CPythonMiniMap@@ABU12@@std@@YAXAAUSGuildAreaInfo@CPythonMiniMap@@ABU12@@Z ; std::_Construct_in_place<CPythonMiniMap::SGuildAreaInfo,CPythonMiniMap::SGuildAreaInfo const &>
PUBLIC	??$_Uninitialized_move@PAUTSignalPoint@CPythonMiniMap@@V?$allocator@UTSignalPoint@CPythonMiniMap@@@std@@@std@@YAPAUTSignalPoint@CPythonMiniMap@@QAU12@0PAU12@AAV?$allocator@UTSignalPoint@CPythonMiniMap@@@0@@Z ; std::_Uninitialized_move<CPythonMiniMap::TSignalPoint *,std::allocator<CPythonMiniMap::TSignalPoint> >
PUBLIC	??$_Get_unwrapped@ABQAUTSignalPoint@CPythonMiniMap@@@std@@YA?A_TABQAUTSignalPoint@CPythonMiniMap@@@Z ; std::_Get_unwrapped<CPythonMiniMap::TSignalPoint * const &>
PUBLIC	??$construct@UTSignalPoint@CPythonMiniMap@@ABU12@@?$_Default_allocator_traits@V?$allocator@UTSignalPoint@CPythonMiniMap@@@std@@@std@@SAXAAV?$allocator@UTSignalPoint@CPythonMiniMap@@@1@QAUTSignalPoint@CPythonMiniMap@@ABU34@@Z ; std::_Default_allocator_traits<std::allocator<CPythonMiniMap::TSignalPoint> >::construct<CPythonMiniMap::TSignalPoint,CPythonMiniMap::TSignalPoint const &>
PUBLIC	??$_Unfancy@UTSignalPoint@CPythonMiniMap@@@std@@YAPAUTSignalPoint@CPythonMiniMap@@PAU12@@Z ; std::_Unfancy<CPythonMiniMap::TSignalPoint>
PUBLIC	??$_Allocate_at_least_helper@V?$allocator@UTSignalPoint@CPythonMiniMap@@@std@@@std@@YAPAUTSignalPoint@CPythonMiniMap@@AAV?$allocator@UTSignalPoint@CPythonMiniMap@@@0@AAI@Z ; std::_Allocate_at_least_helper<std::allocator<CPythonMiniMap::TSignalPoint> >
PUBLIC	??$_Construct_in_place@UTSignalPoint@CPythonMiniMap@@ABU12@@std@@YAXAAUTSignalPoint@CPythonMiniMap@@ABU12@@Z ; std::_Construct_in_place<CPythonMiniMap::TSignalPoint,CPythonMiniMap::TSignalPoint const &>
PUBLIC	??$_Destroy_in_place@PAU?$_Tree_node@U?$pair@$$CBV?$basic_string@DU?$char_traits@D@std@@V?$allocator@D@2@@std@@V?$vector@V?$basic_string@DU?$char_traits@D@std@@V?$allocator@D@2@@std@@V?$allocator@V?$basic_string@DU?$char_traits@D@std@@V?$allocator@D@2@@std@@@2@@2@@std@@PAX@std@@@std@@YAXAAPAU?$_Tree_node@U?$pair@$$CBV?$basic_string@DU?$char_traits@D@std@@V?$allocator@D@2@@std@@V?$vector@V?$basic_string@DU?$char_traits@D@std@@V?$allocator@D@2@@std@@V?$allocator@V?$basic_string@DU?$char_traits@D@std@@V?$allocator@D@2@@std@@@2@@2@@std@@PAX@0@@Z ; std::_Destroy_in_place<std::_Tree_node<std::pair<std::basic_string<char,std::char_traits<char>,std::allocator<char> > const ,std::vector<std::basic_string<char,std::char_traits<char>,std::allocator<char> >,std::allocator<std::basic_string<char,std::char_traits<char>,std::allocator<char> > > > >,void *> *>
PUBLIC	??$_Freenode@V?$allocator@U?$_Tree_node@U?$pair@$$CBV?$basic_string@DU?$char_traits@D@std@@V?$allocator@D@2@@std@@V?$vector@V?$basic_string@DU?$char_traits@D@std@@V?$allocator@D@2@@std@@V?$allocator@V?$basic_string@DU?$char_traits@D@std@@V?$allocator@D@2@@std@@@2@@2@@std@@PAX@std@@@std@@@?$_Tree_node@U?$pair@$$CBV?$basic_string@DU?$char_traits@D@std@@V?$allocator@D@2@@std@@V?$vector@V?$basic_string@DU?$char_traits@D@std@@V?$allocator@D@2@@std@@V?$allocator@V?$basic_string@DU?$char_traits@D@std@@V?$allocator@D@2@@std@@@2@@2@@std@@PAX@std@@SAXAAV?$allocator@U?$_Tree_node@U?$pair@$$CBV?$basic_string@DU?$char_traits@D@std@@V?$allocator@D@2@@std@@V?$vector@V?$basic_string@DU?$char_traits@D@std@@V?$allocator@D@2@@std@@V?$allocator@V?$basic_string@DU?$char_traits@D@std@@V?$allocator@D@2@@std@@@2@@2@@std@@PAX@std@@@1@PAU01@@Z ; std::_Tree_node<std::pair<std::basic_string<char,std::char_traits<char>,std::allocator<char> > const ,std::vector<std::basic_string<char,std::char_traits<char>,std::allocator<char> >,std::allocator<std::basic_string<char,std::char_traits<char>,std::allocator<char> > > > >,void *>::_Freenode<std::allocator<std::_Tree_node<std::pair<std::basic_string<char,std::char_traits<char>,std::allocator<char> > const ,std::vector<std::basic_string<char,std::char_traits<char>,std::allocator<char> >,std::allocator<std::basic_string<char,std::char_traits<char>,std::allocator<char> > > > >,void *> > >
PUBLIC	??$exchange@PAU?$_Tree_node@U?$pair@$$CBV?$basic_string@DU?$char_traits@D@std@@V?$allocator@D@2@@std@@V?$vector@V?$basic_string@DU?$char_traits@D@std@@V?$allocator@D@2@@std@@V?$allocator@V?$basic_string@DU?$char_traits@D@std@@V?$allocator@D@2@@std@@@2@@2@@std@@PAX@std@@AAPAU12@@std@@YAPAU?$_Tree_node@U?$pair@$$CBV?$basic_string@DU?$char_traits@D@std@@V?$allocator@D@2@@std@@V?$vector@V?$basic_string@DU?$char_traits@D@std@@V?$allocator@D@2@@std@@V?$allocator@V?$basic_string@DU?$char_traits@D@std@@V?$allocator@D@2@@std@@@2@@2@@std@@PAX@0@AAPAU10@0@Z ; std::exchange<std::_Tree_node<std::pair<std::basic_string<char,std::char_traits<char>,std::allocator<char> > const ,std::vector<std::basic_string<char,std::char_traits<char>,std::allocator<char> >,std::allocator<std::basic_string<char,std::char_traits<char>,std::allocator<char> > > > >,void *> *,std::_Tree_node<std::pair<std::basic_string<char,std::char_traits<char>,std::allocator<char> > const ,std::vector<std::basic_string<char,std::char_traits<char>,std::allocator<char> >,std::allocator<std::basic_string<char,std::char_traits<char>,std::allocator<char> > > > >,void *> * &>
PUBLIC	??$_Kfn@$$CBV?$basic_string@DU?$char_traits@D@std@@V?$allocator@D@2@@std@@V?$vector@V?$basic_string@DU?$char_traits@D@std@@V?$allocator@D@2@@std@@V?$allocator@V?$basic_string@DU?$char_traits@D@std@@V?$allocator@D@2@@std@@@2@@2@@?$_Tmap_traits@V?$basic_string@DU?$char_traits@D@std@@V?$allocator@D@2@@std@@V?$vector@V?$basic_string@DU?$char_traits@D@std@@V?$allocator@D@2@@std@@V?$allocator@V?$basic_string@DU?$char_traits@D@std@@V?$allocator@D@2@@std@@@2@@2@U?$less@V?$basic_string@DU?$char_traits@D@std@@V?$allocator@D@2@@std@@@2@V?$allocator@U?$pair@$$CBV?$basic_string@DU?$char_traits@D@std@@V?$allocator@D@2@@std@@V?$vector@V?$basic_string@DU?$char_traits@D@std@@V?$allocator@D@2@@std@@V?$allocator@V?$basic_string@DU?$char_traits@D@std@@V?$allocator@D@2@@std@@@2@@2@@std@@@2@$0A@@std@@SAABV?$basic_string@DU?$char_traits@D@std@@V?$allocator@D@2@@1@ABU?$pair@$$CBV?$basic_string@DU?$char_traits@D@std@@V?$allocator@D@2@@std@@V?$vector@V?$basic_string@DU?$char_traits@D@std@@V?$allocator@D@2@@std@@V?$allocator@V?$basic_string@DU?$char_traits@D@std@@V?$allocator@D@2@@std@@@2@@2@@1@@Z ; std::_Tmap_traits<std::basic_string<char,std::char_traits<char>,std::allocator<char> >,std::vector<std::basic_string<char,std::char_traits<char>,std::allocator<char> >,std::allocator<std::basic_string<char,std::char_traits<char>,std::allocator<char> > > >,std::less<std::basic_string<char,std::char_traits<char>,std::allocator<char> > >,std::allocator<std::pair<std::basic_string<char,std::char_traits<char>,std::allocator<char> > const ,std::vector<std::basic_string<char,std::char_traits<char>,std::allocator<char> >,std::allocator<std::basic_string<char,std::char_traits<char>,std::allocator<char> > > > > >,0>::_Kfn<std::basic_string<char,std::char_traits<char>,std::allocator<char> > const ,std::vector<std::basic_string<char,std::char_traits<char>,std::allocator<char> >,std::allocator<std::basic_string<char,std::char_traits<char>,std::allocator<char> > > > >
PUBLIC	??$construct_at@U?$pair@$$CBKV?$shared_ptr@USPartyPlayerPosition@CPythonMiniMap@@@std@@@std@@ABKV?$shared_ptr@USPartyPlayerPosition@CPythonMiniMap@@@2@@std@@YAPAU?$pair@$$CBKV?$shared_ptr@USPartyPlayerPosition@CPythonMiniMap@@@std@@@0@QAU10@ABK$$QAV?$shared_ptr@USPartyPlayerPosition@CPythonMiniMap@@@0@@Z ; std::construct_at<std::pair<unsigned long const ,std::shared_ptr<CPythonMiniMap::SPartyPlayerPosition> >,unsigned long const &,std::shared_ptr<CPythonMiniMap::SPartyPlayerPosition> >
PUBLIC	??$forward@PAU?$_Tree_node@U?$pair@$$CBKUSObserver@CPythonMiniMap@@@std@@PAX@std@@@std@@YA$$QAPAU?$_Tree_node@U?$pair@$$CBKUSObserver@CPythonMiniMap@@@std@@PAX@0@AAPAU10@@Z ; std::forward<std::_Tree_node<std::pair<unsigned long const ,CPythonMiniMap::SObserver>,void *> *>
PUBLIC	??$_Construct_in_place@PAU?$_Tree_node@U?$pair@$$CBKUSObserver@CPythonMiniMap@@@std@@PAX@std@@AAPAU12@@std@@YAXAAPAU?$_Tree_node@U?$pair@$$CBKUSObserver@CPythonMiniMap@@@std@@PAX@0@0@Z ; std::_Construct_in_place<std::_Tree_node<std::pair<unsigned long const ,CPythonMiniMap::SObserver>,void *> *,std::_Tree_node<std::pair<unsigned long const ,CPythonMiniMap::SObserver>,void *> * &>
PUBLIC	??$construct@U?$pair@$$CBKUSObserver@CPythonMiniMap@@@std@@U12@@?$_Default_allocator_traits@V?$allocator@U?$_Tree_node@U?$pair@$$CBKUSObserver@CPythonMiniMap@@@std@@PAX@std@@@std@@@std@@SAXAAV?$allocator@U?$_Tree_node@U?$pair@$$CBKUSObserver@CPythonMiniMap@@@std@@PAX@std@@@1@QAU?$pair@$$CBKUSObserver@CPythonMiniMap@@@1@$$QAU31@@Z ; std::_Default_allocator_traits<std::allocator<std::_Tree_node<std::pair<unsigned long const ,CPythonMiniMap::SObserver>,void *> > >::construct<std::pair<unsigned long const ,CPythonMiniMap::SObserver>,std::pair<unsigned long const ,CPythonMiniMap::SObserver> >
PUBLIC	??$forward@AAPAU?$_Tree_node@U?$pair@$$CBKUSObserver@CPythonMiniMap@@@std@@PAX@std@@@std@@YAAAPAU?$_Tree_node@U?$pair@$$CBKUSObserver@CPythonMiniMap@@@std@@PAX@0@AAPAU10@@Z ; std::forward<std::_Tree_node<std::pair<unsigned long const ,CPythonMiniMap::SObserver>,void *> * &>
PUBLIC	??$?0$$V@?$_Compressed_pair@V?$allocator@U?$_Tree_node@U?$pair@$$CBKUSObserver@CPythonMiniMap@@@std@@PAX@std@@@std@@V?$_Tree_val@U?$_Tree_simple_types@U?$pair@$$CBKUSObserver@CPythonMiniMap@@@std@@@std@@@2@$00@std@@QAE@U_Zero_then_variadic_args_t@1@@Z ; std::_Compressed_pair<std::allocator<std::_Tree_node<std::pair<unsigned long const ,CPythonMiniMap::SObserver>,void *> >,std::_Tree_val<std::_Tree_simple_types<std::pair<unsigned long const ,CPythonMiniMap::SObserver> > >,1>::_Compressed_pair<std::allocator<std::_Tree_node<std::pair<unsigned long const ,CPythonMiniMap::SObserver>,void *> >,std::_Tree_val<std::_Tree_simple_types<std::pair<unsigned long const ,CPythonMiniMap::SObserver> > >,1><>
PUBLIC	??$?0$$V@?$_Compressed_pair@V?$allocator@U?$_Tree_node@U?$pair@$$CBV?$basic_string@DU?$char_traits@D@std@@V?$allocator@D@2@@std@@V?$vector@V?$basic_string@DU?$char_traits@D@std@@V?$allocator@D@2@@std@@V?$allocator@V?$basic_string@DU?$char_traits@D@std@@V?$allocator@D@2@@std@@@2@@2@@std@@PAX@std@@@std@@V?$_Tree_val@U?$_Tree_simple_types@U?$pair@$$CBV?$basic_string@DU?$char_traits@D@std@@V?$allocator@D@2@@std@@V?$vector@V?$basic_string@DU?$char_traits@D@std@@V?$allocator@D@2@@std@@V?$allocator@V?$basic_string@DU?$char_traits@D@std@@V?$allocator@D@2@@std@@@2@@2@@std@@@std@@@2@$00@std@@QAE@U_Zero_then_variadic_args_t@1@@Z ; std::_Compressed_pair<std::allocator<std::_Tree_node<std::pair<std::basic_string<char,std::char_traits<char>,std::allocator<char> > const ,std::vector<std::basic_string<char,std::char_traits<char>,std::allocator<char> >,std::allocator<std::basic_string<char,std::char_traits<char>,std::allocator<char> > > > >,void *> >,std::_Tree_val<std::_Tree_simple_types<std::pair<std::basic_string<char,std::char_traits<char>,std::allocator<char> > const ,std::vector<std::basic_string<char,std::char_traits<char>,std::allocator<char> >,std::allocator<std::basic_string<char,std::char_traits<char>,std::allocator<char> > > > > > >,1>::_Compressed_pair<std::allocator<std::_Tree_node<std::pair<std::basic_string<char,std::char_traits<char>,std::allocator<char> > const ,std::vector<std::basic_string<char,std::char_traits<char>,std::allocator<char> >,std::allocator<std::basic_string<char,std::char_traits<char>,std::allocator<char> > > > >,void *> >,std::_Tree_val<std::_Tree_simple_types<std::pair<std::basic_string<char,std::char_traits<char>,std::allocator<char> > const ,std::vector<std::basic_string<char,std::char_traits<char>,std::allocator<char> >,std::allocator<std::basic_string<char,std::char_traits<char>,std::allocator<char> > > > > > >,1><>
PUBLIC	??1?$_Tree_temp_node_alloc@V?$allocator@U?$_Tree_node@U?$pair@$$CBV?$basic_string@DU?$char_traits@D@std@@V?$allocator@D@2@@std@@V?$vector@V?$basic_string@DU?$char_traits@D@std@@V?$allocator@D@2@@std@@V?$allocator@V?$basic_string@DU?$char_traits@D@std@@V?$allocator@D@2@@std@@@2@@2@@std@@PAX@std@@@std@@@std@@QAE@XZ ; std::_Tree_temp_node_alloc<std::allocator<std::_Tree_node<std::pair<std::basic_string<char,std::char_traits<char>,std::allocator<char> > const ,std::vector<std::basic_string<char,std::char_traits<char>,std::allocator<char> >,std::allocator<std::basic_string<char,std::char_traits<char>,std::allocator<char> > > > >,void *> > >::~_Tree_temp_node_alloc<std::allocator<std::_Tree_node<std::pair<std::basic_string<char,std::char_traits<char>,std::allocator<char> > const ,std::vector<std::basic_string<char,std::char_traits<char>,std::allocator<char> >,std::allocator<std::basic_string<char,std::char_traits<char>,std::allocator<char> > > > >,void *> > >
PUBLIC	??_GSAtlasMarkInfo@CPythonMiniMap@@QAEPAXI@Z	; CPythonMiniMap::SAtlasMarkInfo::`scalar deleting destructor'
PUBLIC	??1?$_Tree_temp_node_alloc@V?$allocator@U?$_Tree_node@U?$pair@$$CBKUSObserver@CPythonMiniMap@@@std@@PAX@std@@@std@@@std@@QAE@XZ ; std::_Tree_temp_node_alloc<std::allocator<std::_Tree_node<std::pair<unsigned long const ,CPythonMiniMap::SObserver>,void *> > >::~_Tree_temp_node_alloc<std::allocator<std::_Tree_node<std::pair<unsigned long const ,CPythonMiniMap::SObserver>,void *> > >
PUBLIC	??0?$allocator@USMarkPosition@CPythonMiniMap@@@std@@QAE@XZ ; std::allocator<CPythonMiniMap::SMarkPosition>::allocator<CPythonMiniMap::SMarkPosition>
PUBLIC	?deallocate@?$allocator@USMarkPosition@CPythonMiniMap@@@std@@QAEXQAUSMarkPosition@CPythonMiniMap@@I@Z ; std::allocator<CPythonMiniMap::SMarkPosition>::deallocate
PUBLIC	??0?$_Vector_val@U?$_Simple_types@USMarkPosition@CPythonMiniMap@@@std@@@std@@QAE@XZ ; std::_Vector_val<std::_Simple_types<CPythonMiniMap::SMarkPosition> >::_Vector_val<std::_Simple_types<CPythonMiniMap::SMarkPosition> >
PUBLIC	?_Get_first@?$_Compressed_pair@V?$allocator@USMarkPosition@CPythonMiniMap@@@std@@V?$_Vector_val@U?$_Simple_types@USMarkPosition@CPythonMiniMap@@@std@@@2@$00@std@@QAEAAV?$allocator@USMarkPosition@CPythonMiniMap@@@2@XZ ; std::_Compressed_pair<std::allocator<CPythonMiniMap::SMarkPosition>,std::_Vector_val<std::_Simple_types<CPythonMiniMap::SMarkPosition> >,1>::_Get_first
PUBLIC	?_Erase_unchecked@?$_Tree@V?$_Tmap_traits@KUSObserver@CPythonMiniMap@@U?$less@K@std@@V?$allocator@U?$pair@$$CBKUSObserver@CPythonMiniMap@@@std@@@4@$0A@@std@@@std@@AAEPAU?$_Tree_node@U?$pair@$$CBKUSObserver@CPythonMiniMap@@@std@@PAX@2@V?$_Tree_unchecked_const_iterator@V?$_Tree_val@U?$_Tree_simple_types@U?$pair@$$CBKUSObserver@CPythonMiniMap@@@std@@@std@@@std@@U_Iterator_base0@2@@2@0@Z ; std::_Tree<std::_Tmap_traits<unsigned long,CPythonMiniMap::SObserver,std::less<unsigned long>,std::allocator<std::pair<unsigned long const ,CPythonMiniMap::SObserver> >,0> >::_Erase_unchecked
PUBLIC	?_Check_grow_by_1@?$_Tree@V?$_Tmap_traits@KUSObserver@CPythonMiniMap@@U?$less@K@std@@V?$allocator@U?$pair@$$CBKUSObserver@CPythonMiniMap@@@std@@@4@$0A@@std@@@std@@IAEXXZ ; std::_Tree<std::_Tmap_traits<unsigned long,CPythonMiniMap::SObserver,std::less<unsigned long>,std::allocator<std::pair<unsigned long const ,CPythonMiniMap::SObserver> >,0> >::_Check_grow_by_1
PUBLIC	?_Alloc_sentinel_and_proxy@?$_Tree@V?$_Tmap_traits@KUSObserver@CPythonMiniMap@@U?$less@K@std@@V?$allocator@U?$pair@$$CBKUSObserver@CPythonMiniMap@@@std@@@4@$0A@@std@@@std@@IAEXXZ ; std::_Tree<std::_Tmap_traits<unsigned long,CPythonMiniMap::SObserver,std::less<unsigned long>,std::allocator<std::pair<unsigned long const ,CPythonMiniMap::SObserver> >,0> >::_Alloc_sentinel_and_proxy
PUBLIC	?_Getcomp@?$_Tree@V?$_Tmap_traits@KUSObserver@CPythonMiniMap@@U?$less@K@std@@V?$allocator@U?$pair@$$CBKUSObserver@CPythonMiniMap@@@std@@@4@$0A@@std@@@std@@IBEABU?$less@K@2@XZ ; std::_Tree<std::_Tmap_traits<unsigned long,CPythonMiniMap::SObserver,std::less<unsigned long>,std::allocator<std::pair<unsigned long const ,CPythonMiniMap::SObserver> >,0> >::_Getcomp
PUBLIC	?_Get_scary@?$_Tree@V?$_Tmap_traits@KUSObserver@CPythonMiniMap@@U?$less@K@std@@V?$allocator@U?$pair@$$CBKUSObserver@CPythonMiniMap@@@std@@@4@$0A@@std@@@std@@IBEPBV?$_Tree_val@U?$_Tree_simple_types@U?$pair@$$CBKUSObserver@CPythonMiniMap@@@std@@@std@@@2@XZ ; std::_Tree<std::_Tmap_traits<unsigned long,CPythonMiniMap::SObserver,std::less<unsigned long>,std::allocator<std::pair<unsigned long const ,CPythonMiniMap::SObserver> >,0> >::_Get_scary
PUBLIC	?_Insert_node@?$_Tree_val@U?$_Tree_simple_types@U?$pair@$$CBKUSObserver@CPythonMiniMap@@@std@@@std@@@std@@QAEPAU?$_Tree_node@U?$pair@$$CBKUSObserver@CPythonMiniMap@@@std@@PAX@2@U?$_Tree_id@PAU?$_Tree_node@U?$pair@$$CBKUSObserver@CPythonMiniMap@@@std@@PAX@std@@@2@QAU32@@Z ; std::_Tree_val<std::_Tree_simple_types<std::pair<unsigned long const ,CPythonMiniMap::SObserver> > >::_Insert_node
PUBLIC	??D?$_Tree_const_iterator@V?$_Tree_val@U?$_Tree_simple_types@U?$pair@$$CBKUSObserver@CPythonMiniMap@@@std@@@std@@@std@@@std@@QBEABU?$pair@$$CBKUSObserver@CPythonMiniMap@@@1@XZ ; std::_Tree_const_iterator<std::_Tree_val<std::_Tree_simple_types<std::pair<unsigned long const ,CPythonMiniMap::SObserver> > > >::operator*
PUBLIC	??E?$_Tree_unchecked_const_iterator@V?$_Tree_val@U?$_Tree_simple_types@U?$pair@$$CBKUSObserver@CPythonMiniMap@@@std@@@std@@@std@@U_Iterator_base0@2@@std@@QAEAAV01@XZ ; std::_Tree_unchecked_const_iterator<std::_Tree_val<std::_Tree_simple_types<std::pair<unsigned long const ,CPythonMiniMap::SObserver> > >,std::_Iterator_base0>::operator++
PUBLIC	?_Get_first@?$_Compressed_pair@V?$allocator@U?$_Tree_node@U?$pair@$$CBKUSObserver@CPythonMiniMap@@@std@@PAX@std@@@std@@V?$_Tree_val@U?$_Tree_simple_types@U?$pair@$$CBKUSObserver@CPythonMiniMap@@@std@@@std@@@2@$00@std@@QAEAAV?$allocator@U?$_Tree_node@U?$pair@$$CBKUSObserver@CPythonMiniMap@@@std@@PAX@std@@@2@XZ ; std::_Compressed_pair<std::allocator<std::_Tree_node<std::pair<unsigned long const ,CPythonMiniMap::SObserver>,void *> >,std::_Tree_val<std::_Tree_simple_types<std::pair<unsigned long const ,CPythonMiniMap::SObserver> > >,1>::_Get_first
PUBLIC	??0?$_Umap_traits@KV?$shared_ptr@USPartyPlayerPosition@CPythonMiniMap@@@std@@V?$_Uhash_compare@KU?$hash@K@std@@U?$equal_to@K@2@@2@V?$allocator@U?$pair@$$CBKV?$shared_ptr@USPartyPlayerPosition@CPythonMiniMap@@@std@@@std@@@2@$0A@@std@@QAE@ABV?$_Uhash_compare@KU?$hash@K@std@@U?$equal_to@K@2@@1@@Z ; std::_Umap_traits<unsigned long,std::shared_ptr<CPythonMiniMap::SPartyPlayerPosition>,std::_Uhash_compare<unsigned long,std::hash<unsigned long>,std::equal_to<unsigned long> >,std::allocator<std::pair<unsigned long const ,std::shared_ptr<CPythonMiniMap::SPartyPlayerPosition> > >,0>::_Umap_traits<unsigned long,std::shared_ptr<CPythonMiniMap::SPartyPlayerPosition>,std::_Uhash_compare<unsigned long,std::hash<unsigned long>,std::equal_to<unsigned long> >,std::allocator<std::pair<unsigned long const ,std::shared_ptr<CPythonMiniMap::SPartyPlayerPosition> > >,0>
PUBLIC	?bucket@?$_Hash@V?$_Umap_traits@KV?$shared_ptr@USPartyPlayerPosition@CPythonMiniMap@@@std@@V?$_Uhash_compare@KU?$hash@K@std@@U?$equal_to@K@2@@2@V?$allocator@U?$pair@$$CBKV?$shared_ptr@USPartyPlayerPosition@CPythonMiniMap@@@std@@@std@@@2@$0A@@std@@@std@@QBEIABK@Z ; std::_Hash<std::_Umap_traits<unsigned long,std::shared_ptr<CPythonMiniMap::SPartyPlayerPosition>,std::_Uhash_compare<unsigned long,std::hash<unsigned long>,std::equal_to<unsigned long> >,std::allocator<std::pair<unsigned long const ,std::shared_ptr<CPythonMiniMap::SPartyPlayerPosition> > >,0> >::bucket
PUBLIC	?max_load_factor@?$_Hash@V?$_Umap_traits@KV?$shared_ptr@USPartyPlayerPosition@CPythonMiniMap@@@std@@V?$_Uhash_compare@KU?$hash@K@std@@U?$equal_to@K@2@@2@V?$allocator@U?$pair@$$CBKV?$shared_ptr@USPartyPlayerPosition@CPythonMiniMap@@@std@@@std@@@2@$0A@@std@@@std@@QBEMXZ ; std::_Hash<std::_Umap_traits<unsigned long,std::shared_ptr<CPythonMiniMap::SPartyPlayerPosition>,std::_Uhash_compare<unsigned long,std::hash<unsigned long>,std::equal_to<unsigned long> >,std::allocator<std::pair<unsigned long const ,std::shared_ptr<CPythonMiniMap::SPartyPlayerPosition> > >,0> >::max_load_factor
PUBLIC	?_Erase_bucket@?$_Hash@V?$_Umap_traits@KV?$shared_ptr@USPartyPlayerPosition@CPythonMiniMap@@@std@@V?$_Uhash_compare@KU?$hash@K@std@@U?$equal_to@K@2@@2@V?$allocator@U?$pair@$$CBKV?$shared_ptr@USPartyPlayerPosition@CPythonMiniMap@@@std@@@std@@@2@$0A@@std@@@std@@IAEXPAU?$_List_node@U?$pair@$$CBKV?$shared_ptr@USPartyPlayerPosition@CPythonMiniMap@@@std@@@std@@PAX@2@I@Z ; std::_Hash<std::_Umap_traits<unsigned long,std::shared_ptr<CPythonMiniMap::SPartyPlayerPosition>,std::_Uhash_compare<unsigned long,std::hash<unsigned long>,std::equal_to<unsigned long> >,std::allocator<std::pair<unsigned long const ,std::shared_ptr<CPythonMiniMap::SPartyPlayerPosition> > >,0> >::_Erase_bucket
PUBLIC	?_Desired_grow_bucket_count@?$_Hash@V?$_Umap_traits@KV?$shared_ptr@USPartyPlayerPosition@CPythonMiniMap@@@std@@V?$_Uhash_compare@KU?$hash@K@std@@U?$equal_to@K@2@@2@V?$allocator@U?$pair@$$CBKV?$shared_ptr@USPartyPlayerPosition@CPythonMiniMap@@@std@@@std@@@2@$0A@@std@@@std@@IBEII@Z ; std::_Hash<std::_Umap_traits<unsigned long,std::shared_ptr<CPythonMiniMap::SPartyPlayerPosition>,std::_Uhash_compare<unsigned long,std::hash<unsigned long>,std::equal_to<unsigned long> >,std::allocator<std::pair<unsigned long const ,std::shared_ptr<CPythonMiniMap::SPartyPlayerPosition> > >,0> >::_Desired_grow_bucket_count
PUBLIC	?_Forced_rehash@?$_Hash@V?$_Umap_traits@KV?$shared_ptr@USPartyPlayerPosition@CPythonMiniMap@@@std@@V?$_Uhash_compare@KU?$hash@K@std@@U?$equal_to@K@2@@2@V?$allocator@U?$pair@$$CBKV?$shared_ptr@USPartyPlayerPosition@CPythonMiniMap@@@std@@@std@@@2@$0A@@std@@@std@@IAEXI@Z ; std::_Hash<std::_Umap_traits<unsigned long,std::shared_ptr<CPythonMiniMap::SPartyPlayerPosition>,std::_Uhash_compare<unsigned long,std::hash<unsigned long>,std::equal_to<unsigned long> >,std::allocator<std::pair<unsigned long const ,std::shared_ptr<CPythonMiniMap::SPartyPlayerPosition> > >,0> >::_Forced_rehash
PUBLIC	?_Max_bucket_size@?$_Hash@V?$_Umap_traits@KV?$shared_ptr@USPartyPlayerPosition@CPythonMiniMap@@@std@@V?$_Uhash_compare@KU?$hash@K@std@@U?$equal_to@K@2@@2@V?$allocator@U?$pair@$$CBKV?$shared_ptr@USPartyPlayerPosition@CPythonMiniMap@@@std@@@std@@@2@$0A@@std@@@std@@IAEAAMXZ ; std::_Hash<std::_Umap_traits<unsigned long,std::shared_ptr<CPythonMiniMap::SPartyPlayerPosition>,std::_Uhash_compare<unsigned long,std::hash<unsigned long>,std::equal_to<unsigned long> >,std::allocator<std::pair<unsigned long const ,std::shared_ptr<CPythonMiniMap::SPartyPlayerPosition> > >,0> >::_Max_bucket_size
PUBLIC	??0?$list@U?$pair@$$CBKV?$shared_ptr@USPartyPlayerPosition@CPythonMiniMap@@@std@@@std@@V?$allocator@U?$pair@$$CBKV?$shared_ptr@USPartyPlayerPosition@CPythonMiniMap@@@std@@@std@@@2@@std@@QAE@ABV?$allocator@U?$pair@$$CBKV?$shared_ptr@USPartyPlayerPosition@CPythonMiniMap@@@std@@@std@@@1@@Z ; std::list<std::pair<unsigned long const ,std::shared_ptr<CPythonMiniMap::SPartyPlayerPosition> >,std::allocator<std::pair<unsigned long const ,std::shared_ptr<CPythonMiniMap::SPartyPlayerPosition> > > >::list<std::pair<unsigned long const ,std::shared_ptr<CPythonMiniMap::SPartyPlayerPosition> >,std::allocator<std::pair<unsigned long const ,std::shared_ptr<CPythonMiniMap::SPartyPlayerPosition> > > >
PUBLIC	?max_size@?$list@U?$pair@$$CBKV?$shared_ptr@USPartyPlayerPosition@CPythonMiniMap@@@std@@@std@@V?$allocator@U?$pair@$$CBKV?$shared_ptr@USPartyPlayerPosition@CPythonMiniMap@@@std@@@std@@@2@@std@@QBEIXZ ; std::list<std::pair<unsigned long const ,std::shared_ptr<CPythonMiniMap::SPartyPlayerPosition> >,std::allocator<std::pair<unsigned long const ,std::shared_ptr<CPythonMiniMap::SPartyPlayerPosition> > > >::max_size
PUBLIC	?_Unchecked_erase@?$list@U?$pair@$$CBKV?$shared_ptr@USPartyPlayerPosition@CPythonMiniMap@@@std@@@std@@V?$allocator@U?$pair@$$CBKV?$shared_ptr@USPartyPlayerPosition@CPythonMiniMap@@@std@@@std@@@2@@std@@AAEPAU?$_List_node@U?$pair@$$CBKV?$shared_ptr@USPartyPlayerPosition@CPythonMiniMap@@@std@@@std@@PAX@2@QAU32@@Z ; std::list<std::pair<unsigned long const ,std::shared_ptr<CPythonMiniMap::SPartyPlayerPosition> >,std::allocator<std::pair<unsigned long const ,std::shared_ptr<CPythonMiniMap::SPartyPlayerPosition> > > >::_Unchecked_erase
PUBLIC	?_Orphan_non_end@?$_List_val@U?$_List_simple_types@U?$pair@$$CBKV?$shared_ptr@USPartyPlayerPosition@CPythonMiniMap@@@std@@@std@@@std@@@std@@QAEXXZ ; std::_List_val<std::_List_simple_types<std::pair<unsigned long const ,std::shared_ptr<CPythonMiniMap::SPartyPlayerPosition> > > >::_Orphan_non_end
PUBLIC	??D?$_List_const_iterator@V?$_List_val@U?$_List_simple_types@U?$pair@$$CBKV?$shared_ptr@USPartyPlayerPosition@CPythonMiniMap@@@std@@@std@@@std@@@std@@@std@@QBEABU?$pair@$$CBKV?$shared_ptr@USPartyPlayerPosition@CPythonMiniMap@@@std@@@1@XZ ; std::_List_const_iterator<std::_List_val<std::_List_simple_types<std::pair<unsigned long const ,std::shared_ptr<CPythonMiniMap::SPartyPlayerPosition> > > > >::operator*
PUBLIC	??0?$_List_unchecked_const_iterator@V?$_List_val@U?$_List_simple_types@U?$pair@$$CBKV?$shared_ptr@USPartyPlayerPosition@CPythonMiniMap@@@std@@@std@@@std@@@std@@U_Iterator_base0@2@@std@@QAE@PAU?$_List_node@U?$pair@$$CBKV?$shared_ptr@USPartyPlayerPosition@CPythonMiniMap@@@std@@@std@@PAX@1@PBV?$_List_val@U?$_List_simple_types@U?$pair@$$CBKV?$shared_ptr@USPartyPlayerPosition@CPythonMiniMap@@@std@@@std@@@std@@@1@@Z ; std::_List_unchecked_const_iterator<std::_List_val<std::_List_simple_types<std::pair<unsigned long const ,std::shared_ptr<CPythonMiniMap::SPartyPlayerPosition> > > >,std::_Iterator_base0>::_List_unchecked_const_iterator<std::_List_val<std::_List_simple_types<std::pair<unsigned long const ,std::shared_ptr<CPythonMiniMap::SPartyPlayerPosition> > > >,std::_Iterator_base0>
PUBLIC	?_Get_first@?$_Compressed_pair@V?$allocator@U?$_List_node@U?$pair@$$CBKV?$shared_ptr@USPartyPlayerPosition@CPythonMiniMap@@@std@@@std@@PAX@std@@@std@@V?$_List_val@U?$_List_simple_types@U?$pair@$$CBKV?$shared_ptr@USPartyPlayerPosition@CPythonMiniMap@@@std@@@std@@@std@@@2@$00@std@@QAEAAV?$allocator@U?$_List_node@U?$pair@$$CBKV?$shared_ptr@USPartyPlayerPosition@CPythonMiniMap@@@std@@@std@@PAX@std@@@2@XZ ; std::_Compressed_pair<std::allocator<std::_List_node<std::pair<unsigned long const ,std::shared_ptr<CPythonMiniMap::SPartyPlayerPosition> >,void *> >,std::_List_val<std::_List_simple_types<std::pair<unsigned long const ,std::shared_ptr<CPythonMiniMap::SPartyPlayerPosition> > > >,1>::_Get_first
PUBLIC	?deallocate@?$allocator@V?$_List_unchecked_iterator@V?$_List_val@U?$_List_simple_types@U?$pair@$$CBKV?$shared_ptr@USPartyPlayerPosition@CPythonMiniMap@@@std@@@std@@@std@@@std@@@std@@@std@@QAEXQAV?$_List_unchecked_iterator@V?$_List_val@U?$_List_simple_types@U?$pair@$$CBKV?$shared_ptr@USPartyPlayerPosition@CPythonMiniMap@@@std@@@std@@@std@@@std@@@2@I@Z ; std::allocator<std::_List_unchecked_iterator<std::_List_val<std::_List_simple_types<std::pair<unsigned long const ,std::shared_ptr<CPythonMiniMap::SPartyPlayerPosition> > > > > >::deallocate
PUBLIC	??0_Range_eraser@?$_Hash@V?$_Umap_traits@KV?$shared_ptr@USPartyPlayerPosition@CPythonMiniMap@@@std@@V?$_Uhash_compare@KU?$hash@K@std@@U?$equal_to@K@2@@2@V?$allocator@U?$pair@$$CBKV?$shared_ptr@USPartyPlayerPosition@CPythonMiniMap@@@std@@@std@@@2@$0A@@std@@@std@@QAE@AAV?$list@U?$pair@$$CBKV?$shared_ptr@USPartyPlayerPosition@CPythonMiniMap@@@std@@@std@@V?$allocator@U?$pair@$$CBKV?$shared_ptr@USPartyPlayerPosition@CPythonMiniMap@@@std@@@std@@@2@@2@QAU?$_List_node@U?$pair@$$CBKV?$shared_ptr@USPartyPlayerPosition@CPythonMiniMap@@@std@@@std@@PAX@2@@Z ; std::_Hash<std::_Umap_traits<unsigned long,std::shared_ptr<CPythonMiniMap::SPartyPlayerPosition>,std::_Uhash_compare<unsigned long,std::hash<unsigned long>,std::equal_to<unsigned long> >,std::allocator<std::pair<unsigned long const ,std::shared_ptr<CPythonMiniMap::SPartyPlayerPosition> > >,0> >::_Range_eraser::_Range_eraser
PUBLIC	?_Bump_erased@_Range_eraser@?$_Hash@V?$_Umap_traits@KV?$shared_ptr@USPartyPlayerPosition@CPythonMiniMap@@@std@@V?$_Uhash_compare@KU?$hash@K@std@@U?$equal_to@K@2@@2@V?$allocator@U?$pair@$$CBKV?$shared_ptr@USPartyPlayerPosition@CPythonMiniMap@@@std@@@std@@@2@$0A@@std@@@std@@QAEXXZ ; std::_Hash<std::_Umap_traits<unsigned long,std::shared_ptr<CPythonMiniMap::SPartyPlayerPosition>,std::_Uhash_compare<unsigned long,std::hash<unsigned long>,std::equal_to<unsigned long> >,std::allocator<std::pair<unsigned long const ,std::shared_ptr<CPythonMiniMap::SPartyPlayerPosition> > >,0> >::_Range_eraser::_Bump_erased
PUBLIC	??1_Range_eraser@?$_Hash@V?$_Umap_traits@KV?$shared_ptr@USPartyPlayerPosition@CPythonMiniMap@@@std@@V?$_Uhash_compare@KU?$hash@K@std@@U?$equal_to@K@2@@2@V?$allocator@U?$pair@$$CBKV?$shared_ptr@USPartyPlayerPosition@CPythonMiniMap@@@std@@@std@@@2@$0A@@std@@@std@@QAE@XZ ; std::_Hash<std::_Umap_traits<unsigned long,std::shared_ptr<CPythonMiniMap::SPartyPlayerPosition>,std::_Uhash_compare<unsigned long,std::hash<unsigned long>,std::equal_to<unsigned long> >,std::allocator<std::pair<unsigned long const ,std::shared_ptr<CPythonMiniMap::SPartyPlayerPosition> > >,0> >::_Range_eraser::~_Range_eraser
PUBLIC	?capacity@?$_Hash_vec@V?$allocator@V?$_List_unchecked_iterator@V?$_List_val@U?$_List_simple_types@U?$pair@$$CBKV?$shared_ptr@USPartyPlayerPosition@CPythonMiniMap@@@std@@@std@@@std@@@std@@@std@@@std@@@std@@QBEIXZ ; std::_Hash_vec<std::allocator<std::_List_unchecked_iterator<std::_List_val<std::_List_simple_types<std::pair<unsigned long const ,std::shared_ptr<CPythonMiniMap::SPartyPlayerPosition> > > > > > >::capacity
PUBLIC	?_Assign_grow@?$_Hash_vec@V?$allocator@V?$_List_unchecked_iterator@V?$_List_val@U?$_List_simple_types@U?$pair@$$CBKV?$shared_ptr@USPartyPlayerPosition@CPythonMiniMap@@@std@@@std@@@std@@@std@@@std@@@std@@@std@@QAEXIV?$_List_unchecked_iterator@V?$_List_val@U?$_List_simple_types@U?$pair@$$CBKV?$shared_ptr@USPartyPlayerPosition@CPythonMiniMap@@@std@@@std@@@std@@@std@@@2@@Z ; std::_Hash_vec<std::allocator<std::_List_unchecked_iterator<std::_List_val<std::_List_simple_types<std::pair<unsigned long const ,std::shared_ptr<CPythonMiniMap::SPartyPlayerPosition> > > > > > >::_Assign_grow
PUBLIC	?_Get_first@?$_Compressed_pair@V?$allocator@V?$_List_unchecked_iterator@V?$_List_val@U?$_List_simple_types@U?$pair@$$CBKV?$shared_ptr@USPartyPlayerPosition@CPythonMiniMap@@@std@@@std@@@std@@@std@@@std@@@std@@V?$_Vector_val@U?$_Simple_types@V?$_List_unchecked_iterator@V?$_List_val@U?$_List_simple_types@U?$pair@$$CBKV?$shared_ptr@USPartyPlayerPosition@CPythonMiniMap@@@std@@@std@@@std@@@std@@@std@@@std@@@2@$00@std@@QAEAAV?$allocator@V?$_List_unchecked_iterator@V?$_List_val@U?$_List_simple_types@U?$pair@$$CBKV?$shared_ptr@USPartyPlayerPosition@CPythonMiniMap@@@std@@@std@@@std@@@std@@@std@@@2@XZ ; std::_Compressed_pair<std::allocator<std::_List_unchecked_iterator<std::_List_val<std::_List_simple_types<std::pair<unsigned long const ,std::shared_ptr<CPythonMiniMap::SPartyPlayerPosition> > > > > >,std::_Vector_val<std::_Simple_types<std::_List_unchecked_iterator<std::_List_val<std::_List_simple_types<std::pair<unsigned long const ,std::shared_ptr<CPythonMiniMap::SPartyPlayerPosition> > > > > > >,1>::_Get_first
PUBLIC	??0?$allocator@USAtlasMarkInfo@CPythonMiniMap@@@std@@QAE@XZ ; std::allocator<CPythonMiniMap::SAtlasMarkInfo>::allocator<CPythonMiniMap::SAtlasMarkInfo>
PUBLIC	?deallocate@?$allocator@USAtlasMarkInfo@CPythonMiniMap@@@std@@QAEXQAUSAtlasMarkInfo@CPythonMiniMap@@I@Z ; std::allocator<CPythonMiniMap::SAtlasMarkInfo>::deallocate
PUBLIC	??0?$_Vector_val@U?$_Simple_types@USAtlasMarkInfo@CPythonMiniMap@@@std@@@std@@QAE@XZ ; std::_Vector_val<std::_Simple_types<CPythonMiniMap::SAtlasMarkInfo> >::_Vector_val<std::_Simple_types<CPythonMiniMap::SAtlasMarkInfo> >
PUBLIC	?_Get_first@?$_Compressed_pair@V?$allocator@USAtlasMarkInfo@CPythonMiniMap@@@std@@V?$_Vector_val@U?$_Simple_types@USAtlasMarkInfo@CPythonMiniMap@@@std@@@2@$00@std@@QAEAAV?$allocator@USAtlasMarkInfo@CPythonMiniMap@@@2@XZ ; std::_Compressed_pair<std::allocator<CPythonMiniMap::SAtlasMarkInfo>,std::_Vector_val<std::_Simple_types<CPythonMiniMap::SAtlasMarkInfo> >,1>::_Get_first
PUBLIC	??0?$allocator@USGuildAreaInfo@CPythonMiniMap@@@std@@QAE@XZ ; std::allocator<CPythonMiniMap::SGuildAreaInfo>::allocator<CPythonMiniMap::SGuildAreaInfo>
PUBLIC	?deallocate@?$allocator@USGuildAreaInfo@CPythonMiniMap@@@std@@QAEXQAUSGuildAreaInfo@CPythonMiniMap@@I@Z ; std::allocator<CPythonMiniMap::SGuildAreaInfo>::deallocate
PUBLIC	??0?$_Vector_val@U?$_Simple_types@USGuildAreaInfo@CPythonMiniMap@@@std@@@std@@QAE@XZ ; std::_Vector_val<std::_Simple_types<CPythonMiniMap::SGuildAreaInfo> >::_Vector_val<std::_Simple_types<CPythonMiniMap::SGuildAreaInfo> >
PUBLIC	?_Get_first@?$_Compressed_pair@V?$allocator@USGuildAreaInfo@CPythonMiniMap@@@std@@V?$_Vector_val@U?$_Simple_types@USGuildAreaInfo@CPythonMiniMap@@@std@@@2@$00@std@@QAEAAV?$allocator@USGuildAreaInfo@CPythonMiniMap@@@2@XZ ; std::_Compressed_pair<std::allocator<CPythonMiniMap::SGuildAreaInfo>,std::_Vector_val<std::_Simple_types<CPythonMiniMap::SGuildAreaInfo> >,1>::_Get_first
PUBLIC	??0?$allocator@UTSignalPoint@CPythonMiniMap@@@std@@QAE@XZ ; std::allocator<CPythonMiniMap::TSignalPoint>::allocator<CPythonMiniMap::TSignalPoint>
PUBLIC	?deallocate@?$allocator@UTSignalPoint@CPythonMiniMap@@@std@@QAEXQAUTSignalPoint@CPythonMiniMap@@I@Z ; std::allocator<CPythonMiniMap::TSignalPoint>::deallocate
PUBLIC	??0?$_Vector_val@U?$_Simple_types@UTSignalPoint@CPythonMiniMap@@@std@@@std@@QAE@XZ ; std::_Vector_val<std::_Simple_types<CPythonMiniMap::TSignalPoint> >::_Vector_val<std::_Simple_types<CPythonMiniMap::TSignalPoint> >
PUBLIC	?_Get_first@?$_Compressed_pair@V?$allocator@UTSignalPoint@CPythonMiniMap@@@std@@V?$_Vector_val@U?$_Simple_types@UTSignalPoint@CPythonMiniMap@@@std@@@2@$00@std@@QAEAAV?$allocator@UTSignalPoint@CPythonMiniMap@@@2@XZ ; std::_Compressed_pair<std::allocator<CPythonMiniMap::TSignalPoint>,std::_Vector_val<std::_Simple_types<CPythonMiniMap::TSignalPoint> >,1>::_Get_first
PUBLIC	?_Check_grow_by_1@?$_Tree@V?$_Tmap_traits@V?$basic_string@DU?$char_traits@D@std@@V?$allocator@D@2@@std@@V?$vector@V?$basic_string@DU?$char_traits@D@std@@V?$allocator@D@2@@std@@V?$allocator@V?$basic_string@DU?$char_traits@D@std@@V?$allocator@D@2@@std@@@2@@2@U?$less@V?$basic_string@DU?$char_traits@D@std@@V?$allocator@D@2@@std@@@2@V?$allocator@U?$pair@$$CBV?$basic_string@DU?$char_traits@D@std@@V?$allocator@D@2@@std@@V?$vector@V?$basic_string@DU?$char_traits@D@std@@V?$allocator@D@2@@std@@V?$allocator@V?$basic_string@DU?$char_traits@D@std@@V?$allocator@D@2@@std@@@2@@2@@std@@@2@$0A@@std@@@std@@IAEXXZ ; std::_Tree<std::_Tmap_traits<std::basic_string<char,std::char_traits<char>,std::allocator<char> >,std::vector<std::basic_string<char,std::char_traits<char>,std::allocator<char> >,std::allocator<std::basic_string<char,std::char_traits<char>,std::allocator<char> > > >,std::less<std::basic_string<char,std::char_traits<char>,std::allocator<char> > >,std::allocator<std::pair<std::basic_string<char,std::char_traits<char>,std::allocator<char> > const ,std::vector<std::basic_string<char,std::char_traits<char>,std::allocator<char> >,std::allocator<std::basic_string<char,std::char_traits<char>,std::allocator<char> > > > > >,0> >::_Check_grow_by_1
PUBLIC	?_Alloc_sentinel_and_proxy@?$_Tree@V?$_Tmap_traits@V?$basic_string@DU?$char_traits@D@std@@V?$allocator@D@2@@std@@V?$vector@V?$basic_string@DU?$char_traits@D@std@@V?$allocator@D@2@@std@@V?$allocator@V?$basic_string@DU?$char_traits@D@std@@V?$allocator@D@2@@std@@@2@@2@U?$less@V?$basic_string@DU?$char_traits@D@std@@V?$allocator@D@2@@std@@@2@V?$allocator@U?$pair@$$CBV?$basic_string@DU?$char_traits@D@std@@V?$allocator@D@2@@std@@V?$vector@V?$basic_string@DU?$char_traits@D@std@@V?$allocator@D@2@@std@@V?$allocator@V?$basic_string@DU?$char_traits@D@std@@V?$allocator@D@2@@std@@@2@@2@@std@@@2@$0A@@std@@@std@@IAEXXZ ; std::_Tree<std::_Tmap_traits<std::basic_string<char,std::char_traits<char>,std::allocator<char> >,std::vector<std::basic_string<char,std::char_traits<char>,std::allocator<char> >,std::allocator<std::basic_string<char,std::char_traits<char>,std::allocator<char> > > >,std::less<std::basic_string<char,std::char_traits<char>,std::allocator<char> > >,std::allocator<std::pair<std::basic_string<char,std::char_traits<char>,std::allocator<char> > const ,std::vector<std::basic_string<char,std::char_traits<char>,std::allocator<char> >,std::allocator<std::basic_string<char,std::char_traits<char>,std::allocator<char> > > > > >,0> >::_Alloc_sentinel_and_proxy
PUBLIC	?_Insert_node@?$_Tree_val@U?$_Tree_simple_types@U?$pair@$$CBV?$basic_string@DU?$char_traits@D@std@@V?$allocator@D@2@@std@@V?$vector@V?$basic_string@DU?$char_traits@D@std@@V?$allocator@D@2@@std@@V?$allocator@V?$basic_string@DU?$char_traits@D@std@@V?$allocator@D@2@@std@@@2@@2@@std@@@std@@@std@@QAEPAU?$_Tree_node@U?$pair@$$CBV?$basic_string@DU?$char_traits@D@std@@V?$allocator@D@2@@std@@V?$vector@V?$basic_string@DU?$char_traits@D@std@@V?$allocator@D@2@@std@@V?$allocator@V?$basic_string@DU?$char_traits@D@std@@V?$allocator@D@2@@std@@@2@@2@@std@@PAX@2@U?$_Tree_id@PAU?$_Tree_node@U?$pair@$$CBV?$basic_string@DU?$char_traits@D@std@@V?$allocator@D@2@@std@@V?$vector@V?$basic_string@DU?$char_traits@D@std@@V?$allocator@D@2@@std@@V?$allocator@V?$basic_string@DU?$char_traits@D@std@@V?$allocator@D@2@@std@@@2@@2@@std@@PAX@std@@@2@QAU32@@Z ; std::_Tree_val<std::_Tree_simple_types<std::pair<std::basic_string<char,std::char_traits<char>,std::allocator<char> > const ,std::vector<std::basic_string<char,std::char_traits<char>,std::allocator<char> >,std::allocator<std::basic_string<char,std::char_traits<char>,std::allocator<char> > > > > > >::_Insert_node
PUBLIC	?_Get_first@?$_Compressed_pair@V?$allocator@U?$_Tree_node@U?$pair@$$CBV?$basic_string@DU?$char_traits@D@std@@V?$allocator@D@2@@std@@V?$vector@V?$basic_string@DU?$char_traits@D@std@@V?$allocator@D@2@@std@@V?$allocator@V?$basic_string@DU?$char_traits@D@std@@V?$allocator@D@2@@std@@@2@@2@@std@@PAX@std@@@std@@V?$_Tree_val@U?$_Tree_simple_types@U?$pair@$$CBV?$basic_string@DU?$char_traits@D@std@@V?$allocator@D@2@@std@@V?$vector@V?$basic_string@DU?$char_traits@D@std@@V?$allocator@D@2@@std@@V?$allocator@V?$basic_string@DU?$char_traits@D@std@@V?$allocator@D@2@@std@@@2@@2@@std@@@std@@@2@$00@std@@QAEAAV?$allocator@U?$_Tree_node@U?$pair@$$CBV?$basic_string@DU?$char_traits@D@std@@V?$allocator@D@2@@std@@V?$vector@V?$basic_string@DU?$char_traits@D@std@@V?$allocator@D@2@@std@@V?$allocator@V?$basic_string@DU?$char_traits@D@std@@V?$allocator@D@2@@std@@@2@@2@@std@@PAX@std@@@2@XZ ; std::_Compressed_pair<std::allocator<std::_Tree_node<std::pair<std::basic_string<char,std::char_traits<char>,std::allocator<char> > const ,std::vector<std::basic_string<char,std::char_traits<char>,std::allocator<char> >,std::allocator<std::basic_string<char,std::char_traits<char>,std::allocator<char> > > > >,void *> >,std::_Tree_val<std::_Tree_simple_types<std::pair<std::basic_string<char,std::char_traits<char>,std::allocator<char> > const ,std::vector<std::basic_string<char,std::char_traits<char>,std::allocator<char> >,std::allocator<std::basic_string<char,std::char_traits<char>,std::allocator<char> > > > > > >,1>::_Get_first
PUBLIC	??0?$_Alloc_construct_ptr@V?$allocator@U?$_List_node@U?$pair@$$CBKV?$shared_ptr@USPartyPlayerPosition@CPythonMiniMap@@@std@@@std@@PAX@std@@@std@@@std@@QAE@AAV?$allocator@U?$_List_node@U?$pair@$$CBKV?$shared_ptr@USPartyPlayerPosition@CPythonMiniMap@@@std@@@std@@PAX@std@@@1@@Z ; std::_Alloc_construct_ptr<std::allocator<std::_List_node<std::pair<unsigned long const ,std::shared_ptr<CPythonMiniMap::SPartyPlayerPosition> >,void *> > >::_Alloc_construct_ptr<std::allocator<std::_List_node<std::pair<unsigned long const ,std::shared_ptr<CPythonMiniMap::SPartyPlayerPosition> >,void *> > >
PUBLIC	?_Allocate@?$_Alloc_construct_ptr@V?$allocator@U?$_List_node@U?$pair@$$CBKV?$shared_ptr@USPartyPlayerPosition@CPythonMiniMap@@@std@@@std@@PAX@std@@@std@@@std@@QAEXXZ ; std::_Alloc_construct_ptr<std::allocator<std::_List_node<std::pair<unsigned long const ,std::shared_ptr<CPythonMiniMap::SPartyPlayerPosition> >,void *> > >::_Allocate
PUBLIC	??1?$_Alloc_construct_ptr@V?$allocator@U?$_List_node@U?$pair@$$CBKV?$shared_ptr@USPartyPlayerPosition@CPythonMiniMap@@@std@@@std@@PAX@std@@@std@@@std@@QAE@XZ ; std::_Alloc_construct_ptr<std::allocator<std::_List_node<std::pair<unsigned long const ,std::shared_ptr<CPythonMiniMap::SPartyPlayerPosition> >,void *> > >::~_Alloc_construct_ptr<std::allocator<std::_List_node<std::pair<unsigned long const ,std::shared_ptr<CPythonMiniMap::SPartyPlayerPosition> >,void *> > >
PUBLIC	?_Extract@?$_In_place_key_extract_map_impl@KU?$pair@$$CBKUSObserver@CPythonMiniMap@@@std@@@std@@SAABKABU?$pair@$$CBKUSObserver@CPythonMiniMap@@@2@@Z ; std::_In_place_key_extract_map_impl<unsigned long,std::pair<unsigned long const ,CPythonMiniMap::SObserver> >::_Extract
PUBLIC	??1?$_Tree_temp_node@V?$allocator@U?$_Tree_node@U?$pair@$$CBKUSObserver@CPythonMiniMap@@@std@@PAX@std@@@std@@@std@@QAE@XZ ; std::_Tree_temp_node<std::allocator<std::_Tree_node<std::pair<unsigned long const ,CPythonMiniMap::SObserver>,void *> > >::~_Tree_temp_node<std::allocator<std::_Tree_node<std::pair<unsigned long const ,CPythonMiniMap::SObserver>,void *> > >
PUBLIC	?_Release@?$_Alloc_construct_ptr@V?$allocator@U?$_Tree_node@U?$pair@$$CBKUSObserver@CPythonMiniMap@@@std@@PAX@std@@@std@@@std@@QAEPAU?$_Tree_node@U?$pair@$$CBKUSObserver@CPythonMiniMap@@@std@@PAX@2@XZ ; std::_Alloc_construct_ptr<std::allocator<std::_Tree_node<std::pair<unsigned long const ,CPythonMiniMap::SObserver>,void *> > >::_Release
PUBLIC	??1?$_Tree_temp_node@V?$allocator@U?$_Tree_node@U?$pair@$$CBV?$basic_string@DU?$char_traits@D@std@@V?$allocator@D@2@@std@@V?$vector@V?$basic_string@DU?$char_traits@D@std@@V?$allocator@D@2@@std@@V?$allocator@V?$basic_string@DU?$char_traits@D@std@@V?$allocator@D@2@@std@@@2@@2@@std@@PAX@std@@@std@@@std@@QAE@XZ ; std::_Tree_temp_node<std::allocator<std::_Tree_node<std::pair<std::basic_string<char,std::char_traits<char>,std::allocator<char> > const ,std::vector<std::basic_string<char,std::char_traits<char>,std::allocator<char> >,std::allocator<std::basic_string<char,std::char_traits<char>,std::allocator<char> > > > >,void *> > >::~_Tree_temp_node<std::allocator<std::_Tree_node<std::pair<std::basic_string<char,std::char_traits<char>,std::allocator<char> > const ,std::vector<std::basic_string<char,std::char_traits<char>,std::allocator<char> >,std::allocator<std::basic_string<char,std::char_traits<char>,std::allocator<char> > > > >,void *> > >
PUBLIC	?_Release@?$_Alloc_construct_ptr@V?$allocator@U?$_Tree_node@U?$pair@$$CBV?$basic_string@DU?$char_traits@D@std@@V?$allocator@D@2@@std@@V?$vector@V?$basic_string@DU?$char_traits@D@std@@V?$allocator@D@2@@std@@V?$allocator@V?$basic_string@DU?$char_traits@D@std@@V?$allocator@D@2@@std@@@2@@2@@std@@PAX@std@@@std@@@std@@QAEPAU?$_Tree_node@U?$pair@$$CBV?$basic_string@DU?$char_traits@D@std@@V?$allocator@D@2@@std@@V?$vector@V?$basic_string@DU?$char_traits@D@std@@V?$allocator@D@2@@std@@V?$allocator@V?$basic_string@DU?$char_traits@D@std@@V?$allocator@D@2@@std@@@2@@2@@std@@PAX@2@XZ ; std::_Alloc_construct_ptr<std::allocator<std::_Tree_node<std::pair<std::basic_string<char,std::char_traits<char>,std::allocator<char> > const ,std::vector<std::basic_string<char,std::char_traits<char>,std::allocator<char> >,std::allocator<std::basic_string<char,std::char_traits<char>,std::allocator<char> > > > >,void *> > >::_Release
PUBLIC	??$?0ABU?$less@K@std@@U_Zero_then_variadic_args_t@1@@?$_Compressed_pair@U?$less@K@std@@V?$_Compressed_pair@V?$allocator@U?$_Tree_node@U?$pair@$$CBKUSObserver@CPythonMiniMap@@@std@@PAX@std@@@std@@V?$_Tree_val@U?$_Tree_simple_types@U?$pair@$$CBKUSObserver@CPythonMiniMap@@@std@@@std@@@2@$00@2@$00@std@@QAE@U_One_then_variadic_args_t@1@ABU?$less@K@1@$$QAU_Zero_then_variadic_args_t@1@@Z ; std::_Compressed_pair<std::less<unsigned long>,std::_Compressed_pair<std::allocator<std::_Tree_node<std::pair<unsigned long const ,CPythonMiniMap::SObserver>,void *> >,std::_Tree_val<std::_Tree_simple_types<std::pair<unsigned long const ,CPythonMiniMap::SObserver> > >,1>,1>::_Compressed_pair<std::less<unsigned long>,std::_Compressed_pair<std::allocator<std::_Tree_node<std::pair<unsigned long const ,CPythonMiniMap::SObserver>,void *> >,std::_Tree_val<std::_Tree_simple_types<std::pair<unsigned long const ,CPythonMiniMap::SObserver> > >,1>,1><std::less<unsigned long> const &,std::_Zero_then_variadic_args_t>
PUBLIC	??$_Get_unwrapped@AAV?$_Tree_unchecked_const_iterator@V?$_Tree_val@U?$_Tree_simple_types@U?$pair@$$CBKUSObserver@CPythonMiniMap@@@std@@@std@@@std@@U_Iterator_base0@2@@std@@@std@@YA?A_TAAV?$_Tree_unchecked_const_iterator@V?$_Tree_val@U?$_Tree_simple_types@U?$pair@$$CBKUSObserver@CPythonMiniMap@@@std@@@std@@@std@@U_Iterator_base0@2@@0@@Z ; std::_Get_unwrapped<std::_Tree_unchecked_const_iterator<std::_Tree_val<std::_Tree_simple_types<std::pair<unsigned long const ,CPythonMiniMap::SObserver> > >,std::_Iterator_base0> &>
PUBLIC	??$distance@V?$_Tree_unchecked_const_iterator@V?$_Tree_val@U?$_Tree_simple_types@U?$pair@$$CBKUSObserver@CPythonMiniMap@@@std@@@std@@@std@@U_Iterator_base0@2@@std@@@std@@YAHV?$_Tree_unchecked_const_iterator@V?$_Tree_val@U?$_Tree_simple_types@U?$pair@$$CBKUSObserver@CPythonMiniMap@@@std@@@std@@@std@@U_Iterator_base0@2@@0@0@Z ; std::distance<std::_Tree_unchecked_const_iterator<std::_Tree_val<std::_Tree_simple_types<std::pair<unsigned long const ,CPythonMiniMap::SObserver> > >,std::_Iterator_base0> >
PUBLIC	??$addressof@V?$_Tree_val@U?$_Tree_simple_types@U?$pair@$$CBKUSObserver@CPythonMiniMap@@@std@@@std@@@std@@@std@@YAPAV?$_Tree_val@U?$_Tree_simple_types@U?$pair@$$CBKUSObserver@CPythonMiniMap@@@std@@@std@@@0@AAV10@@Z ; std::addressof<std::_Tree_val<std::_Tree_simple_types<std::pair<unsigned long const ,CPythonMiniMap::SObserver> > > >
PUBLIC	??$?0ABV?$allocator@U?$pair@$$CBKV?$shared_ptr@USPartyPlayerPosition@CPythonMiniMap@@@std@@@std@@@std@@$0A@@?$_Hash_vec@V?$allocator@V?$_List_unchecked_iterator@V?$_List_val@U?$_List_simple_types@U?$pair@$$CBKV?$shared_ptr@USPartyPlayerPosition@CPythonMiniMap@@@std@@@std@@@std@@@std@@@std@@@std@@@std@@QAE@ABV?$allocator@U?$pair@$$CBKV?$shared_ptr@USPartyPlayerPosition@CPythonMiniMap@@@std@@@std@@@1@@Z ; std::_Hash_vec<std::allocator<std::_List_unchecked_iterator<std::_List_val<std::_List_simple_types<std::pair<unsigned long const ,std::shared_ptr<CPythonMiniMap::SPartyPlayerPosition> > > > > > >::_Hash_vec<std::allocator<std::_List_unchecked_iterator<std::_List_val<std::_List_simple_types<std::pair<unsigned long const ,std::shared_ptr<CPythonMiniMap::SPartyPlayerPosition> > > > > > ><std::allocator<std::pair<unsigned long const ,std::shared_ptr<CPythonMiniMap::SPartyPlayerPosition> > > const &,0>
PUBLIC	??$_Construct_in_place@PAU?$_List_node@U?$pair@$$CBKV?$shared_ptr@USPartyPlayerPosition@CPythonMiniMap@@@std@@@std@@PAX@std@@ABQAU12@@std@@YAXAAPAU?$_List_node@U?$pair@$$CBKV?$shared_ptr@USPartyPlayerPosition@CPythonMiniMap@@@std@@@std@@PAX@0@ABQAU10@@Z ; std::_Construct_in_place<std::_List_node<std::pair<unsigned long const ,std::shared_ptr<CPythonMiniMap::SPartyPlayerPosition> >,void *> *,std::_List_node<std::pair<unsigned long const ,std::shared_ptr<CPythonMiniMap::SPartyPlayerPosition> >,void *> * const &>
PUBLIC	??$addressof@V?$_List_val@U?$_List_simple_types@U?$pair@$$CBKV?$shared_ptr@USPartyPlayerPosition@CPythonMiniMap@@@std@@@std@@@std@@@std@@@std@@YAPAV?$_List_val@U?$_List_simple_types@U?$pair@$$CBKV?$shared_ptr@USPartyPlayerPosition@CPythonMiniMap@@@std@@@std@@@std@@@0@AAV10@@Z ; std::addressof<std::_List_val<std::_List_simple_types<std::pair<unsigned long const ,std::shared_ptr<CPythonMiniMap::SPartyPlayerPosition> > > > >
PUBLIC	??$addressof@$$CBV?$_List_val@U?$_List_simple_types@U?$pair@$$CBKV?$shared_ptr@USPartyPlayerPosition@CPythonMiniMap@@@std@@@std@@@std@@@std@@@std@@YAPBV?$_List_val@U?$_List_simple_types@U?$pair@$$CBKV?$shared_ptr@USPartyPlayerPosition@CPythonMiniMap@@@std@@@std@@@std@@@0@ABV10@@Z ; std::addressof<std::_List_val<std::_List_simple_types<std::pair<unsigned long const ,std::shared_ptr<CPythonMiniMap::SPartyPlayerPosition> > > > const >
PUBLIC	??$_Freenode0@V?$allocator@U?$_List_node@U?$pair@$$CBKV?$shared_ptr@USPartyPlayerPosition@CPythonMiniMap@@@std@@@std@@PAX@std@@@std@@@?$_List_node@U?$pair@$$CBKV?$shared_ptr@USPartyPlayerPosition@CPythonMiniMap@@@std@@@std@@PAX@std@@SAXAAV?$allocator@U?$_List_node@U?$pair@$$CBKV?$shared_ptr@USPartyPlayerPosition@CPythonMiniMap@@@std@@@std@@PAX@std@@@1@PAU01@@Z ; std::_List_node<std::pair<unsigned long const ,std::shared_ptr<CPythonMiniMap::SPartyPlayerPosition> >,void *>::_Freenode0<std::allocator<std::_List_node<std::pair<unsigned long const ,std::shared_ptr<CPythonMiniMap::SPartyPlayerPosition> >,void *> > >
PUBLIC	??$_Free_non_head@V?$allocator@U?$_List_node@U?$pair@$$CBKV?$shared_ptr@USPartyPlayerPosition@CPythonMiniMap@@@std@@@std@@PAX@std@@@std@@@?$_List_node@U?$pair@$$CBKV?$shared_ptr@USPartyPlayerPosition@CPythonMiniMap@@@std@@@std@@PAX@std@@SAXAAV?$allocator@U?$_List_node@U?$pair@$$CBKV?$shared_ptr@USPartyPlayerPosition@CPythonMiniMap@@@std@@@std@@PAX@std@@@1@PAU01@@Z ; std::_List_node<std::pair<unsigned long const ,std::shared_ptr<CPythonMiniMap::SPartyPlayerPosition> >,void *>::_Free_non_head<std::allocator<std::_List_node<std::pair<unsigned long const ,std::shared_ptr<CPythonMiniMap::SPartyPlayerPosition> >,void *> > >
PUBLIC	??$_Destroy_range@PAV?$_List_unchecked_iterator@V?$_List_val@U?$_List_simple_types@U?$pair@$$CBKV?$shared_ptr@USPartyPlayerPosition@CPythonMiniMap@@@std@@@std@@@std@@@std@@@std@@PAV12@@std@@YAXPAV?$_List_unchecked_iterator@V?$_List_val@U?$_List_simple_types@U?$pair@$$CBKV?$shared_ptr@USPartyPlayerPosition@CPythonMiniMap@@@std@@@std@@@std@@@std@@@0@QAV10@@Z ; std::_Destroy_range<std::_List_unchecked_iterator<std::_List_val<std::_List_simple_types<std::pair<unsigned long const ,std::shared_ptr<CPythonMiniMap::SPartyPlayerPosition> > > > > *,std::_List_unchecked_iterator<std::_List_val<std::_List_simple_types<std::pair<unsigned long const ,std::shared_ptr<CPythonMiniMap::SPartyPlayerPosition> > > > > *>
PUBLIC	??$?0ABU?$less@V?$basic_string@DU?$char_traits@D@std@@V?$allocator@D@2@@std@@@std@@U_Zero_then_variadic_args_t@1@@?$_Compressed_pair@U?$less@V?$basic_string@DU?$char_traits@D@std@@V?$allocator@D@2@@std@@@std@@V?$_Compressed_pair@V?$allocator@U?$_Tree_node@U?$pair@$$CBV?$basic_string@DU?$char_traits@D@std@@V?$allocator@D@2@@std@@V?$vector@V?$basic_string@DU?$char_traits@D@std@@V?$allocator@D@2@@std@@V?$allocator@V?$basic_string@DU?$char_traits@D@std@@V?$allocator@D@2@@std@@@2@@2@@std@@PAX@std@@@std@@V?$_Tree_val@U?$_Tree_simple_types@U?$pair@$$CBV?$basic_string@DU?$char_traits@D@std@@V?$allocator@D@2@@std@@V?$vector@V?$basic_string@DU?$char_traits@D@std@@V?$allocator@D@2@@std@@V?$allocator@V?$basic_string@DU?$char_traits@D@std@@V?$allocator@D@2@@std@@@2@@2@@std@@@std@@@2@$00@2@$00@std@@QAE@U_One_then_variadic_args_t@1@ABU?$less@V?$basic_string@DU?$char_traits@D@std@@V?$allocator@D@2@@std@@@1@$$QAU_Zero_then_variadic_args_t@1@@Z ; std::_Compressed_pair<std::less<std::basic_string<char,std::char_traits<char>,std::allocator<char> > >,std::_Compressed_pair<std::allocator<std::_Tree_node<std::pair<std::basic_string<char,std::char_traits<char>,std::allocator<char> > const ,std::vector<std::basic_string<char,std::char_traits<char>,std::allocator<char> >,std::allocator<std::basic_string<char,std::char_traits<char>,std::allocator<char> > > > >,void *> >,std::_Tree_val<std::_Tree_simple_types<std::pair<std::basic_string<char,std::char_traits<char>,std::allocator<char> > const ,std::vector<std::basic_string<char,std::char_traits<char>,std::allocator<char> >,std::allocator<std::basic_string<char,std::char_traits<char>,std::allocator<char> > > > > > >,1>,1>::_Compressed_pair<std::less<std::basic_string<char,std::char_traits<char>,std::allocator<char> > >,std::_Compressed_pair<std::allocator<std::_Tree_node<std::pair<std::basic_string<char,std::char_traits<char>,std::allocator<char> > const ,std::vector<std::basic_string<char,std::char_traits<char>,std::allocator<char> >,std::allocator<std::basic_string<char,std::char_traits<char>,std::allocator<char> > > > >,void *> >,std::_Tree_val<std::_Tree_simple_types<std::pair<std::basic_string<char,std::char_traits<char>,std::allocator<char> > const ,std::vector<std::basic_string<char,std::char_traits<char>,std::allocator<char> >,std::allocator<std::basic_string<char,std::char_traits<char>,std::allocator<char> > > > > > >,1>,1><std::less<std::basic_string<char,std::char_traits<char>,std::allocator<char> > > const &,std::_Zero_then_variadic_args_t>
PUBLIC	??$addressof@V?$_Tree_val@U?$_Tree_simple_types@U?$pair@$$CBV?$basic_string@DU?$char_traits@D@std@@V?$allocator@D@2@@std@@V?$vector@V?$basic_string@DU?$char_traits@D@std@@V?$allocator@D@2@@std@@V?$allocator@V?$basic_string@DU?$char_traits@D@std@@V?$allocator@D@2@@std@@@2@@2@@std@@@std@@@std@@@std@@YAPAV?$_Tree_val@U?$_Tree_simple_types@U?$pair@$$CBV?$basic_string@DU?$char_traits@D@std@@V?$allocator@D@2@@std@@V?$vector@V?$basic_string@DU?$char_traits@D@std@@V?$allocator@D@2@@std@@V?$allocator@V?$basic_string@DU?$char_traits@D@std@@V?$allocator@D@2@@std@@@2@@2@@std@@@std@@@0@AAV10@@Z ; std::addressof<std::_Tree_val<std::_Tree_simple_types<std::pair<std::basic_string<char,std::char_traits<char>,std::allocator<char> > const ,std::vector<std::basic_string<char,std::char_traits<char>,std::allocator<char> >,std::allocator<std::basic_string<char,std::char_traits<char>,std::allocator<char> > > > > > > >
PUBLIC	??$addressof@$$CBV?$_Tree_val@U?$_Tree_simple_types@U?$pair@$$CBV?$basic_string@DU?$char_traits@D@std@@V?$allocator@D@2@@std@@V?$vector@V?$basic_string@DU?$char_traits@D@std@@V?$allocator@D@2@@std@@V?$allocator@V?$basic_string@DU?$char_traits@D@std@@V?$allocator@D@2@@std@@@2@@2@@std@@@std@@@std@@@std@@YAPBV?$_Tree_val@U?$_Tree_simple_types@U?$pair@$$CBV?$basic_string@DU?$char_traits@D@std@@V?$allocator@D@2@@std@@V?$vector@V?$basic_string@DU?$char_traits@D@std@@V?$allocator@D@2@@std@@V?$allocator@V?$basic_string@DU?$char_traits@D@std@@V?$allocator@D@2@@std@@@2@@2@@std@@@std@@@0@ABV10@@Z ; std::addressof<std::_Tree_val<std::_Tree_simple_types<std::pair<std::basic_string<char,std::char_traits<char>,std::allocator<char> > const ,std::vector<std::basic_string<char,std::char_traits<char>,std::allocator<char> >,std::allocator<std::basic_string<char,std::char_traits<char>,std::allocator<char> > > > > > > const >
PUBLIC	??$destroy@U?$pair@$$CBKV?$shared_ptr@USPartyPlayerPosition@CPythonMiniMap@@@std@@@std@@@?$_Default_allocator_traits@V?$allocator@U?$_List_node@U?$pair@$$CBKV?$shared_ptr@USPartyPlayerPosition@CPythonMiniMap@@@std@@@std@@PAX@std@@@std@@@std@@SAXAAV?$allocator@U?$_List_node@U?$pair@$$CBKV?$shared_ptr@USPartyPlayerPosition@CPythonMiniMap@@@std@@@std@@PAX@std@@@1@QAU?$pair@$$CBKV?$shared_ptr@USPartyPlayerPosition@CPythonMiniMap@@@std@@@1@@Z ; std::_Default_allocator_traits<std::allocator<std::_List_node<std::pair<unsigned long const ,std::shared_ptr<CPythonMiniMap::SPartyPlayerPosition> >,void *> > >::destroy<std::pair<unsigned long const ,std::shared_ptr<CPythonMiniMap::SPartyPlayerPosition> > >
PUBLIC	??$exchange@PAU?$_List_node@U?$pair@$$CBKV?$shared_ptr@USPartyPlayerPosition@CPythonMiniMap@@@std@@@std@@PAX@std@@$$T@std@@YAPAU?$_List_node@U?$pair@$$CBKV?$shared_ptr@USPartyPlayerPosition@CPythonMiniMap@@@std@@@std@@PAX@0@AAPAU10@$$QA$$T@Z ; std::exchange<std::_List_node<std::pair<unsigned long const ,std::shared_ptr<CPythonMiniMap::SPartyPlayerPosition> >,void *> *,std::nullptr_t>
PUBLIC	??$addressof@U?$pair@$$CBKUSObserver@CPythonMiniMap@@@std@@@std@@YAPAU?$pair@$$CBKUSObserver@CPythonMiniMap@@@0@AAU10@@Z ; std::addressof<std::pair<unsigned long const ,CPythonMiniMap::SObserver> >
PUBLIC	??$?0PAU?$_Tree_node@U?$pair@$$CBV?$basic_string@DU?$char_traits@D@std@@V?$allocator@D@2@@std@@V?$vector@V?$basic_string@DU?$char_traits@D@std@@V?$allocator@D@2@@std@@V?$allocator@V?$basic_string@DU?$char_traits@D@std@@V?$allocator@D@2@@std@@@2@@2@@std@@PAX@std@@_N$0A@@?$pair@PAU?$_Tree_node@U?$pair@$$CBV?$basic_string@DU?$char_traits@D@std@@V?$allocator@D@2@@std@@V?$vector@V?$basic_string@DU?$char_traits@D@std@@V?$allocator@D@2@@std@@V?$allocator@V?$basic_string@DU?$char_traits@D@std@@V?$allocator@D@2@@std@@@2@@2@@std@@PAX@std@@_N@std@@QAE@$$QAPAU?$_Tree_node@U?$pair@$$CBV?$basic_string@DU?$char_traits@D@std@@V?$allocator@D@2@@std@@V?$vector@V?$basic_string@DU?$char_traits@D@std@@V?$allocator@D@2@@std@@V?$allocator@V?$basic_string@DU?$char_traits@D@std@@V?$allocator@D@2@@std@@@2@@2@@std@@PAX@1@$$QA_N@Z ; std::pair<std::_Tree_node<std::pair<std::basic_string<char,std::char_traits<char>,std::allocator<char> > const ,std::vector<std::basic_string<char,std::char_traits<char>,std::allocator<char> >,std::allocator<std::basic_string<char,std::char_traits<char>,std::allocator<char> > > > >,void *> *,bool>::pair<std::_Tree_node<std::pair<std::basic_string<char,std::char_traits<char>,std::allocator<char> > const ,std::vector<std::basic_string<char,std::char_traits<char>,std::allocator<char> >,std::allocator<std::basic_string<char,std::char_traits<char>,std::allocator<char> > > > >,void *> *,bool><std::_Tree_node<std::pair<std::basic_string<char,std::char_traits<char>,std::allocator<char> > const ,std::vector<std::basic_string<char,std::char_traits<char>,std::allocator<char> >,std::allocator<std::basic_string<char,std::char_traits<char>,std::allocator<char> > > > >,void *> *,bool,0>
PUBLIC	??$?0ABQAU?$_Tree_node@U?$pair@$$CBV?$basic_string@DU?$char_traits@D@std@@V?$allocator@D@2@@std@@V?$vector@V?$basic_string@DU?$char_traits@D@std@@V?$allocator@D@2@@std@@V?$allocator@V?$basic_string@DU?$char_traits@D@std@@V?$allocator@D@2@@std@@@2@@2@@std@@PAX@std@@_N$0A@@?$pair@PAU?$_Tree_node@U?$pair@$$CBV?$basic_string@DU?$char_traits@D@std@@V?$allocator@D@2@@std@@V?$vector@V?$basic_string@DU?$char_traits@D@std@@V?$allocator@D@2@@std@@V?$allocator@V?$basic_string@DU?$char_traits@D@std@@V?$allocator@D@2@@std@@@2@@2@@std@@PAX@std@@_N@std@@QAE@ABQAU?$_Tree_node@U?$pair@$$CBV?$basic_string@DU?$char_traits@D@std@@V?$allocator@D@2@@std@@V?$vector@V?$basic_string@DU?$char_traits@D@std@@V?$allocator@D@2@@std@@V?$allocator@V?$basic_string@DU?$char_traits@D@std@@V?$allocator@D@2@@std@@@2@@2@@std@@PAX@1@$$QA_N@Z ; std::pair<std::_Tree_node<std::pair<std::basic_string<char,std::char_traits<char>,std::allocator<char> > const ,std::vector<std::basic_string<char,std::char_traits<char>,std::allocator<char> >,std::allocator<std::basic_string<char,std::char_traits<char>,std::allocator<char> > > > >,void *> *,bool>::pair<std::_Tree_node<std::pair<std::basic_string<char,std::char_traits<char>,std::allocator<char> > const ,std::vector<std::basic_string<char,std::char_traits<char>,std::allocator<char> >,std::allocator<std::basic_string<char,std::char_traits<char>,std::allocator<char> > > > >,void *> *,bool><std::_Tree_node<std::pair<std::basic_string<char,std::char_traits<char>,std::allocator<char> > const ,std::vector<std::basic_string<char,std::char_traits<char>,std::allocator<char> >,std::allocator<std::basic_string<char,std::char_traits<char>,std::allocator<char> > > > >,void *> * const &,bool,0>
PUBLIC	??$?0ABUpiecewise_construct_t@std@@V?$tuple@$$QAV?$basic_string@DU?$char_traits@D@std@@V?$allocator@D@2@@std@@@1@V?$tuple@$$V@1@@?$_Tree_temp_node@V?$allocator@U?$_Tree_node@U?$pair@$$CBV?$basic_string@DU?$char_traits@D@std@@V?$allocator@D@2@@std@@V?$vector@V?$basic_string@DU?$char_traits@D@std@@V?$allocator@D@2@@std@@V?$allocator@V?$basic_string@DU?$char_traits@D@std@@V?$allocator@D@2@@std@@@2@@2@@std@@PAX@std@@@std@@@std@@QAE@AAV?$allocator@U?$_Tree_node@U?$pair@$$CBV?$basic_string@DU?$char_traits@D@std@@V?$allocator@D@2@@std@@V?$vector@V?$basic_string@DU?$char_traits@D@std@@V?$allocator@D@2@@std@@V?$allocator@V?$basic_string@DU?$char_traits@D@std@@V?$allocator@D@2@@std@@@2@@2@@std@@PAX@std@@@1@PAU?$_Tree_node@U?$pair@$$CBV?$basic_string@DU?$char_traits@D@std@@V?$allocator@D@2@@std@@V?$vector@V?$basic_string@DU?$char_traits@D@std@@V?$allocator@D@2@@std@@V?$allocator@V?$basic_string@DU?$char_traits@D@std@@V?$allocator@D@2@@std@@@2@@2@@std@@PAX@1@ABUpiecewise_construct_t@1@$$QAV?$tuple@$$QAV?$basic_string@DU?$char_traits@D@std@@V?$allocator@D@2@@std@@@1@$$QAV?$tuple@$$V@1@@Z ; std::_Tree_temp_node<std::allocator<std::_Tree_node<std::pair<std::basic_string<char,std::char_traits<char>,std::allocator<char> > const ,std::vector<std::basic_string<char,std::char_traits<char>,std::allocator<char> >,std::allocator<std::basic_string<char,std::char_traits<char>,std::allocator<char> > > > >,void *> > >::_Tree_temp_node<std::allocator<std::_Tree_node<std::pair<std::basic_string<char,std::char_traits<char>,std::allocator<char> > const ,std::vector<std::basic_string<char,std::char_traits<char>,std::allocator<char> >,std::allocator<std::basic_string<char,std::char_traits<char>,std::allocator<char> > > > >,void *> > ><std::piecewise_construct_t const &,std::tuple<std::basic_string<char,std::char_traits<char>,std::allocator<char> > &&>,std::tuple<> >
PUBLIC	??$_Emplace_reallocate@ABUSMarkPosition@CPythonMiniMap@@@?$vector@USMarkPosition@CPythonMiniMap@@V?$allocator@USMarkPosition@CPythonMiniMap@@@std@@@std@@AAEPAUSMarkPosition@CPythonMiniMap@@QAU23@ABU23@@Z ; std::vector<CPythonMiniMap::SMarkPosition,std::allocator<CPythonMiniMap::SMarkPosition> >::_Emplace_reallocate<CPythonMiniMap::SMarkPosition const &>
PUBLIC	??$_Emplace_back_with_unused_capacity@ABUSMarkPosition@CPythonMiniMap@@@?$vector@USMarkPosition@CPythonMiniMap@@V?$allocator@USMarkPosition@CPythonMiniMap@@@std@@@std@@AAEAAUSMarkPosition@CPythonMiniMap@@ABU23@@Z ; std::vector<CPythonMiniMap::SMarkPosition,std::allocator<CPythonMiniMap::SMarkPosition> >::_Emplace_back_with_unused_capacity<CPythonMiniMap::SMarkPosition const &>
PUBLIC	??$forward@ABUSMarkPosition@CPythonMiniMap@@@std@@YAABUSMarkPosition@CPythonMiniMap@@ABU12@@Z ; std::forward<CPythonMiniMap::SMarkPosition const &>
PUBLIC	??$_Freenode0@V?$allocator@U?$_Tree_node@U?$pair@$$CBKUSObserver@CPythonMiniMap@@@std@@PAX@std@@@std@@@?$_Tree_node@U?$pair@$$CBKUSObserver@CPythonMiniMap@@@std@@PAX@std@@SAXAAV?$allocator@U?$_Tree_node@U?$pair@$$CBKUSObserver@CPythonMiniMap@@@std@@PAX@std@@@1@PAU01@@Z ; std::_Tree_node<std::pair<unsigned long const ,CPythonMiniMap::SObserver>,void *>::_Freenode0<std::allocator<std::_Tree_node<std::pair<unsigned long const ,CPythonMiniMap::SObserver>,void *> > >
PUBLIC	??$_Erase_tree@V?$allocator@U?$_Tree_node@U?$pair@$$CBKUSObserver@CPythonMiniMap@@@std@@PAX@std@@@std@@@?$_Tree_val@U?$_Tree_simple_types@U?$pair@$$CBKUSObserver@CPythonMiniMap@@@std@@@std@@@std@@QAEXAAV?$allocator@U?$_Tree_node@U?$pair@$$CBKUSObserver@CPythonMiniMap@@@std@@PAX@std@@@1@PAU?$_Tree_node@U?$pair@$$CBKUSObserver@CPythonMiniMap@@@std@@PAX@1@@Z ; std::_Tree_val<std::_Tree_simple_types<std::pair<unsigned long const ,CPythonMiniMap::SObserver> > >::_Erase_tree<std::allocator<std::_Tree_node<std::pair<unsigned long const ,CPythonMiniMap::SObserver>,void *> > >
PUBLIC	??$_Adl_verify_range@PAV?$_List_unchecked_iterator@V?$_List_val@U?$_List_simple_types@U?$pair@$$CBKV?$shared_ptr@USPartyPlayerPosition@CPythonMiniMap@@@std@@@std@@@std@@@std@@@std@@PAV12@@std@@YAXABQAV?$_List_unchecked_iterator@V?$_List_val@U?$_List_simple_types@U?$pair@$$CBKV?$shared_ptr@USPartyPlayerPosition@CPythonMiniMap@@@std@@@std@@@std@@@std@@@0@0@Z ; std::_Adl_verify_range<std::_List_unchecked_iterator<std::_List_val<std::_List_simple_types<std::pair<unsigned long const ,std::shared_ptr<CPythonMiniMap::SPartyPlayerPosition> > > > > *,std::_List_unchecked_iterator<std::_List_val<std::_List_simple_types<std::pair<unsigned long const ,std::shared_ptr<CPythonMiniMap::SPartyPlayerPosition> > > > > *>
PUBLIC	??$_Emplace_reallocate@ABUSAtlasMarkInfo@CPythonMiniMap@@@?$vector@USAtlasMarkInfo@CPythonMiniMap@@V?$allocator@USAtlasMarkInfo@CPythonMiniMap@@@std@@@std@@AAEPAUSAtlasMarkInfo@CPythonMiniMap@@QAU23@ABU23@@Z ; std::vector<CPythonMiniMap::SAtlasMarkInfo,std::allocator<CPythonMiniMap::SAtlasMarkInfo> >::_Emplace_reallocate<CPythonMiniMap::SAtlasMarkInfo const &>
PUBLIC	??$_Emplace_back_with_unused_capacity@ABUSAtlasMarkInfo@CPythonMiniMap@@@?$vector@USAtlasMarkInfo@CPythonMiniMap@@V?$allocator@USAtlasMarkInfo@CPythonMiniMap@@@std@@@std@@AAEAAUSAtlasMarkInfo@CPythonMiniMap@@ABU23@@Z ; std::vector<CPythonMiniMap::SAtlasMarkInfo,std::allocator<CPythonMiniMap::SAtlasMarkInfo> >::_Emplace_back_with_unused_capacity<CPythonMiniMap::SAtlasMarkInfo const &>
PUBLIC	??$forward@ABUSAtlasMarkInfo@CPythonMiniMap@@@std@@YAABUSAtlasMarkInfo@CPythonMiniMap@@ABU12@@Z ; std::forward<CPythonMiniMap::SAtlasMarkInfo const &>
PUBLIC	??$destroy_at@USAtlasMarkInfo@CPythonMiniMap@@@std@@YAXQAUSAtlasMarkInfo@CPythonMiniMap@@@Z ; std::destroy_at<CPythonMiniMap::SAtlasMarkInfo>
PUBLIC	??$move@AAUSAtlasMarkInfo@CPythonMiniMap@@@std@@YA$$QAUSAtlasMarkInfo@CPythonMiniMap@@AAU12@@Z ; std::move<CPythonMiniMap::SAtlasMarkInfo &>
PUBLIC	??$_Emplace_reallocate@ABUSGuildAreaInfo@CPythonMiniMap@@@?$vector@USGuildAreaInfo@CPythonMiniMap@@V?$allocator@USGuildAreaInfo@CPythonMiniMap@@@std@@@std@@AAEPAUSGuildAreaInfo@CPythonMiniMap@@QAU23@ABU23@@Z ; std::vector<CPythonMiniMap::SGuildAreaInfo,std::allocator<CPythonMiniMap::SGuildAreaInfo> >::_Emplace_reallocate<CPythonMiniMap::SGuildAreaInfo const &>
PUBLIC	??$_Emplace_back_with_unused_capacity@ABUSGuildAreaInfo@CPythonMiniMap@@@?$vector@USGuildAreaInfo@CPythonMiniMap@@V?$allocator@USGuildAreaInfo@CPythonMiniMap@@@std@@@std@@AAEAAUSGuildAreaInfo@CPythonMiniMap@@ABU23@@Z ; std::vector<CPythonMiniMap::SGuildAreaInfo,std::allocator<CPythonMiniMap::SGuildAreaInfo> >::_Emplace_back_with_unused_capacity<CPythonMiniMap::SGuildAreaInfo const &>
PUBLIC	??$forward@ABUSGuildAreaInfo@CPythonMiniMap@@@std@@YAABUSGuildAreaInfo@CPythonMiniMap@@ABU12@@Z ; std::forward<CPythonMiniMap::SGuildAreaInfo const &>
PUBLIC	??$_Emplace_reallocate@ABUTSignalPoint@CPythonMiniMap@@@?$vector@UTSignalPoint@CPythonMiniMap@@V?$allocator@UTSignalPoint@CPythonMiniMap@@@std@@@std@@AAEPAUTSignalPoint@CPythonMiniMap@@QAU23@ABU23@@Z ; std::vector<CPythonMiniMap::TSignalPoint,std::allocator<CPythonMiniMap::TSignalPoint> >::_Emplace_reallocate<CPythonMiniMap::TSignalPoint const &>
PUBLIC	??$_Emplace_back_with_unused_capacity@ABUTSignalPoint@CPythonMiniMap@@@?$vector@UTSignalPoint@CPythonMiniMap@@V?$allocator@UTSignalPoint@CPythonMiniMap@@@std@@@std@@AAEAAUTSignalPoint@CPythonMiniMap@@ABU23@@Z ; std::vector<CPythonMiniMap::TSignalPoint,std::allocator<CPythonMiniMap::TSignalPoint> >::_Emplace_back_with_unused_capacity<CPythonMiniMap::TSignalPoint const &>
PUBLIC	??$forward@ABUTSignalPoint@CPythonMiniMap@@@std@@YAABUTSignalPoint@CPythonMiniMap@@ABU12@@Z ; std::forward<CPythonMiniMap::TSignalPoint const &>
PUBLIC	??$_Freenode0@V?$allocator@U?$_Tree_node@U?$pair@$$CBV?$basic_string@DU?$char_traits@D@std@@V?$allocator@D@2@@std@@V?$vector@V?$basic_string@DU?$char_traits@D@std@@V?$allocator@D@2@@std@@V?$allocator@V?$basic_string@DU?$char_traits@D@std@@V?$allocator@D@2@@std@@@2@@2@@std@@PAX@std@@@std@@@?$_Tree_node@U?$pair@$$CBV?$basic_string@DU?$char_traits@D@std@@V?$allocator@D@2@@std@@V?$vector@V?$basic_string@DU?$char_traits@D@std@@V?$allocator@D@2@@std@@V?$allocator@V?$basic_string@DU?$char_traits@D@std@@V?$allocator@D@2@@std@@@2@@2@@std@@PAX@std@@SAXAAV?$allocator@U?$_Tree_node@U?$pair@$$CBV?$basic_string@DU?$char_traits@D@std@@V?$allocator@D@2@@std@@V?$vector@V?$basic_string@DU?$char_traits@D@std@@V?$allocator@D@2@@std@@V?$allocator@V?$basic_string@DU?$char_traits@D@std@@V?$allocator@D@2@@std@@@2@@2@@std@@PAX@std@@@1@PAU01@@Z ; std::_Tree_node<std::pair<std::basic_string<char,std::char_traits<char>,std::allocator<char> > const ,std::vector<std::basic_string<char,std::char_traits<char>,std::allocator<char> >,std::allocator<std::basic_string<char,std::char_traits<char>,std::allocator<char> > > > >,void *>::_Freenode0<std::allocator<std::_Tree_node<std::pair<std::basic_string<char,std::char_traits<char>,std::allocator<char> > const ,std::vector<std::basic_string<char,std::char_traits<char>,std::allocator<char> >,std::allocator<std::basic_string<char,std::char_traits<char>,std::allocator<char> > > > >,void *> > >
PUBLIC	??$_Erase_tree@V?$allocator@U?$_Tree_node@U?$pair@$$CBV?$basic_string@DU?$char_traits@D@std@@V?$allocator@D@2@@std@@V?$vector@V?$basic_string@DU?$char_traits@D@std@@V?$allocator@D@2@@std@@V?$allocator@V?$basic_string@DU?$char_traits@D@std@@V?$allocator@D@2@@std@@@2@@2@@std@@PAX@std@@@std@@@?$_Tree_val@U?$_Tree_simple_types@U?$pair@$$CBV?$basic_string@DU?$char_traits@D@std@@V?$allocator@D@2@@std@@V?$vector@V?$basic_string@DU?$char_traits@D@std@@V?$allocator@D@2@@std@@V?$allocator@V?$basic_string@DU?$char_traits@D@std@@V?$allocator@D@2@@std@@@2@@2@@std@@@std@@@std@@QAEXAAV?$allocator@U?$_Tree_node@U?$pair@$$CBV?$basic_string@DU?$char_traits@D@std@@V?$allocator@D@2@@std@@V?$vector@V?$basic_string@DU?$char_traits@D@std@@V?$allocator@D@2@@std@@V?$allocator@V?$basic_string@DU?$char_traits@D@std@@V?$allocator@D@2@@std@@@2@@2@@std@@PAX@std@@@1@PAU?$_Tree_node@U?$pair@$$CBV?$basic_string@DU?$char_traits@D@std@@V?$allocator@D@2@@std@@V?$vector@V?$basic_string@DU?$char_traits@D@std@@V?$allocator@D@2@@std@@V?$allocator@V?$basic_string@DU?$char_traits@D@std@@V?$allocator@D@2@@std@@@2@@2@@std@@PAX@1@@Z ; std::_Tree_val<std::_Tree_simple_types<std::pair<std::basic_string<char,std::char_traits<char>,std::allocator<char> > const ,std::vector<std::basic_string<char,std::char_traits<char>,std::allocator<char> >,std::allocator<std::basic_string<char,std::char_traits<char>,std::allocator<char> > > > > > >::_Erase_tree<std::allocator<std::_Tree_node<std::pair<std::basic_string<char,std::char_traits<char>,std::allocator<char> > const ,std::vector<std::basic_string<char,std::char_traits<char>,std::allocator<char> >,std::allocator<std::basic_string<char,std::char_traits<char>,std::allocator<char> > > > >,void *> > >
PUBLIC	??$_Lower_bound_duplicate@V?$basic_string@DU?$char_traits@D@std@@V?$allocator@D@2@@std@@@?$_Tree@V?$_Tmap_traits@V?$basic_string@DU?$char_traits@D@std@@V?$allocator@D@2@@std@@V?$vector@V?$basic_string@DU?$char_traits@D@std@@V?$allocator@D@2@@std@@V?$allocator@V?$basic_string@DU?$char_traits@D@std@@V?$allocator@D@2@@std@@@2@@2@U?$less@V?$basic_string@DU?$char_traits@D@std@@V?$allocator@D@2@@std@@@2@V?$allocator@U?$pair@$$CBV?$basic_string@DU?$char_traits@D@std@@V?$allocator@D@2@@std@@V?$vector@V?$basic_string@DU?$char_traits@D@std@@V?$allocator@D@2@@std@@V?$allocator@V?$basic_string@DU?$char_traits@D@std@@V?$allocator@D@2@@std@@@2@@2@@std@@@2@$0A@@std@@@std@@IBE_NQAU?$_Tree_node@U?$pair@$$CBV?$basic_string@DU?$char_traits@D@std@@V?$allocator@D@2@@std@@V?$vector@V?$basic_string@DU?$char_traits@D@std@@V?$allocator@D@2@@std@@V?$allocator@V?$basic_string@DU?$char_traits@D@std@@V?$allocator@D@2@@std@@@2@@2@@std@@PAX@1@ABV?$basic_string@DU?$char_traits@D@std@@V?$allocator@D@2@@1@@Z ; std::_Tree<std::_Tmap_traits<std::basic_string<char,std::char_traits<char>,std::allocator<char> >,std::vector<std::basic_string<char,std::char_traits<char>,std::allocator<char> >,std::allocator<std::basic_string<char,std::char_traits<char>,std::allocator<char> > > >,std::less<std::basic_string<char,std::char_traits<char>,std::allocator<char> > >,std::allocator<std::pair<std::basic_string<char,std::char_traits<char>,std::allocator<char> > const ,std::vector<std::basic_string<char,std::char_traits<char>,std::allocator<char> >,std::allocator<std::basic_string<char,std::char_traits<char>,std::allocator<char> > > > > >,0> >::_Lower_bound_duplicate<std::basic_string<char,std::char_traits<char>,std::allocator<char> > >
PUBLIC	??$_Find_lower_bound@V?$basic_string@DU?$char_traits@D@std@@V?$allocator@D@2@@std@@@?$_Tree@V?$_Tmap_traits@V?$basic_string@DU?$char_traits@D@std@@V?$allocator@D@2@@std@@V?$vector@V?$basic_string@DU?$char_traits@D@std@@V?$allocator@D@2@@std@@V?$allocator@V?$basic_string@DU?$char_traits@D@std@@V?$allocator@D@2@@std@@@2@@2@U?$less@V?$basic_string@DU?$char_traits@D@std@@V?$allocator@D@2@@std@@@2@V?$allocator@U?$pair@$$CBV?$basic_string@DU?$char_traits@D@std@@V?$allocator@D@2@@std@@V?$vector@V?$basic_string@DU?$char_traits@D@std@@V?$allocator@D@2@@std@@V?$allocator@V?$basic_string@DU?$char_traits@D@std@@V?$allocator@D@2@@std@@@2@@2@@std@@@2@$0A@@std@@@std@@IBE?AU?$_Tree_find_result@PAU?$_Tree_node@U?$pair@$$CBV?$basic_string@DU?$char_traits@D@std@@V?$allocator@D@2@@std@@V?$vector@V?$basic_string@DU?$char_traits@D@std@@V?$allocator@D@2@@std@@V?$allocator@V?$basic_string@DU?$char_traits@D@std@@V?$allocator@D@2@@std@@@2@@2@@std@@PAX@std@@@1@ABV?$basic_string@DU?$char_traits@D@std@@V?$allocator@D@2@@1@@Z ; std::_Tree<std::_Tmap_traits<std::basic_string<char,std::char_traits<char>,std::allocator<char> >,std::vector<std::basic_string<char,std::char_traits<char>,std::allocator<char> >,std::allocator<std::basic_string<char,std::char_traits<char>,std::allocator<char> > > >,std::less<std::basic_string<char,std::char_traits<char>,std::allocator<char> > >,std::allocator<std::pair<std::basic_string<char,std::char_traits<char>,std::allocator<char> > const ,std::vector<std::basic_string<char,std::char_traits<char>,std::allocator<char> >,std::allocator<std::basic_string<char,std::char_traits<char>,std::allocator<char> > > > > >,0> >::_Find_lower_bound<std::basic_string<char,std::char_traits<char>,std::allocator<char> > >
PUBLIC	??$forward@V?$_List_iterator@V?$_List_val@U?$_List_simple_types@U?$pair@$$CBKV?$shared_ptr@USPartyPlayerPosition@CPythonMiniMap@@@std@@@std@@@std@@@std@@@std@@@std@@YA$$QAV?$_List_iterator@V?$_List_val@U?$_List_simple_types@U?$pair@$$CBKV?$shared_ptr@USPartyPlayerPosition@CPythonMiniMap@@@std@@@std@@@std@@@std@@@0@AAV10@@Z ; std::forward<std::_List_iterator<std::_List_val<std::_List_simple_types<std::pair<unsigned long const ,std::shared_ptr<CPythonMiniMap::SPartyPlayerPosition> > > > > >
PUBLIC	??$construct@U?$pair@$$CBKV?$shared_ptr@USPartyPlayerPosition@CPythonMiniMap@@@std@@@std@@ABKV?$shared_ptr@USPartyPlayerPosition@CPythonMiniMap@@@2@@?$_Default_allocator_traits@V?$allocator@U?$_List_node@U?$pair@$$CBKV?$shared_ptr@USPartyPlayerPosition@CPythonMiniMap@@@std@@@std@@PAX@std@@@std@@@std@@SAXAAV?$allocator@U?$_List_node@U?$pair@$$CBKV?$shared_ptr@USPartyPlayerPosition@CPythonMiniMap@@@std@@@std@@PAX@std@@@1@QAU?$pair@$$CBKV?$shared_ptr@USPartyPlayerPosition@CPythonMiniMap@@@std@@@1@ABK$$QAV?$shared_ptr@USPartyPlayerPosition@CPythonMiniMap@@@1@@Z ; std::_Default_allocator_traits<std::allocator<std::_List_node<std::pair<unsigned long const ,std::shared_ptr<CPythonMiniMap::SPartyPlayerPosition> >,void *> > >::construct<std::pair<unsigned long const ,std::shared_ptr<CPythonMiniMap::SPartyPlayerPosition> >,unsigned long const &,std::shared_ptr<CPythonMiniMap::SPartyPlayerPosition> >
PUBLIC	??$addressof@U?$pair@$$CBKV?$shared_ptr@USPartyPlayerPosition@CPythonMiniMap@@@std@@@std@@@std@@YAPAU?$pair@$$CBKV?$shared_ptr@USPartyPlayerPosition@CPythonMiniMap@@@std@@@0@AAU10@@Z ; std::addressof<std::pair<unsigned long const ,std::shared_ptr<CPythonMiniMap::SPartyPlayerPosition> > >
PUBLIC	??$forward@V?$_Tree_iterator@V?$_Tree_val@U?$_Tree_simple_types@U?$pair@$$CBKUSObserver@CPythonMiniMap@@@std@@@std@@@std@@@std@@@std@@YA$$QAV?$_Tree_iterator@V?$_Tree_val@U?$_Tree_simple_types@U?$pair@$$CBKUSObserver@CPythonMiniMap@@@std@@@std@@@std@@@0@AAV10@@Z ; std::forward<std::_Tree_iterator<std::_Tree_val<std::_Tree_simple_types<std::pair<unsigned long const ,CPythonMiniMap::SObserver> > > > >
PUBLIC	??$?0PAU?$_Tree_node@U?$pair@$$CBKUSObserver@CPythonMiniMap@@@std@@PAX@std@@_N$0A@@?$pair@PAU?$_Tree_node@U?$pair@$$CBKUSObserver@CPythonMiniMap@@@std@@PAX@std@@_N@std@@QAE@$$QAPAU?$_Tree_node@U?$pair@$$CBKUSObserver@CPythonMiniMap@@@std@@PAX@1@$$QA_N@Z ; std::pair<std::_Tree_node<std::pair<unsigned long const ,CPythonMiniMap::SObserver>,void *> *,bool>::pair<std::_Tree_node<std::pair<unsigned long const ,CPythonMiniMap::SObserver>,void *> *,bool><std::_Tree_node<std::pair<unsigned long const ,CPythonMiniMap::SObserver>,void *> *,bool,0>
PUBLIC	??$?0AAPAU?$_Tree_node@U?$pair@$$CBKUSObserver@CPythonMiniMap@@@std@@PAX@std@@_N$0A@@?$pair@PAU?$_Tree_node@U?$pair@$$CBKUSObserver@CPythonMiniMap@@@std@@PAX@std@@_N@std@@QAE@AAPAU?$_Tree_node@U?$pair@$$CBKUSObserver@CPythonMiniMap@@@std@@PAX@1@$$QA_N@Z ; std::pair<std::_Tree_node<std::pair<unsigned long const ,CPythonMiniMap::SObserver>,void *> *,bool>::pair<std::_Tree_node<std::pair<unsigned long const ,CPythonMiniMap::SObserver>,void *> *,bool><std::_Tree_node<std::pair<unsigned long const ,CPythonMiniMap::SObserver>,void *> * &,bool,0>
PUBLIC	??$?0U?$pair@$$CBKUSObserver@CPythonMiniMap@@@std@@@?$_Tree_temp_node@V?$allocator@U?$_Tree_node@U?$pair@$$CBKUSObserver@CPythonMiniMap@@@std@@PAX@std@@@std@@@std@@QAE@AAV?$allocator@U?$_Tree_node@U?$pair@$$CBKUSObserver@CPythonMiniMap@@@std@@PAX@std@@@1@PAU?$_Tree_node@U?$pair@$$CBKUSObserver@CPythonMiniMap@@@std@@PAX@1@$$QAU?$pair@$$CBKUSObserver@CPythonMiniMap@@@1@@Z ; std::_Tree_temp_node<std::allocator<std::_Tree_node<std::pair<unsigned long const ,CPythonMiniMap::SObserver>,void *> > >::_Tree_temp_node<std::allocator<std::_Tree_node<std::pair<unsigned long const ,CPythonMiniMap::SObserver>,void *> > ><std::pair<unsigned long const ,CPythonMiniMap::SObserver> >
PUBLIC	??$forward@U?$pair@$$CBKUSObserver@CPythonMiniMap@@@std@@@std@@YA$$QAU?$pair@$$CBKUSObserver@CPythonMiniMap@@@0@AAU10@@Z ; std::forward<std::pair<unsigned long const ,CPythonMiniMap::SObserver> >
PUBLIC	??$_Lower_bound_duplicate@K@?$_Tree@V?$_Tmap_traits@KUSObserver@CPythonMiniMap@@U?$less@K@std@@V?$allocator@U?$pair@$$CBKUSObserver@CPythonMiniMap@@@std@@@4@$0A@@std@@@std@@IBE_NQAU?$_Tree_node@U?$pair@$$CBKUSObserver@CPythonMiniMap@@@std@@PAX@1@ABK@Z ; std::_Tree<std::_Tmap_traits<unsigned long,CPythonMiniMap::SObserver,std::less<unsigned long>,std::allocator<std::pair<unsigned long const ,CPythonMiniMap::SObserver> >,0> >::_Lower_bound_duplicate<unsigned long>
PUBLIC	??$_Find_lower_bound@K@?$_Tree@V?$_Tmap_traits@KUSObserver@CPythonMiniMap@@U?$less@K@std@@V?$allocator@U?$pair@$$CBKUSObserver@CPythonMiniMap@@@std@@@4@$0A@@std@@@std@@IBE?AU?$_Tree_find_result@PAU?$_Tree_node@U?$pair@$$CBKUSObserver@CPythonMiniMap@@@std@@PAX@std@@@1@ABK@Z ; std::_Tree<std::_Tmap_traits<unsigned long,CPythonMiniMap::SObserver,std::less<unsigned long>,std::allocator<std::pair<unsigned long const ,CPythonMiniMap::SObserver> >,0> >::_Find_lower_bound<unsigned long>
PUBLIC	??$?0AAPAU?$_Tree_node@U?$pair@$$CBKUSObserver@CPythonMiniMap@@@std@@PAX@std@@AAPAU01@$0A@@?$pair@PAU?$_Tree_node@U?$pair@$$CBKUSObserver@CPythonMiniMap@@@std@@PAX@std@@PAU12@@std@@QAE@AAPAU?$_Tree_node@U?$pair@$$CBKUSObserver@CPythonMiniMap@@@std@@PAX@1@0@Z ; std::pair<std::_Tree_node<std::pair<unsigned long const ,CPythonMiniMap::SObserver>,void *> *,std::_Tree_node<std::pair<unsigned long const ,CPythonMiniMap::SObserver>,void *> *>::pair<std::_Tree_node<std::pair<unsigned long const ,CPythonMiniMap::SObserver>,void *> *,std::_Tree_node<std::pair<unsigned long const ,CPythonMiniMap::SObserver>,void *> *><std::_Tree_node<std::pair<unsigned long const ,CPythonMiniMap::SObserver>,void *> * &,std::_Tree_node<std::pair<unsigned long const ,CPythonMiniMap::SObserver>,void *> * &,0>
PUBLIC	??$_Kfn@$$CBKUSObserver@CPythonMiniMap@@@?$_Tmap_traits@KUSObserver@CPythonMiniMap@@U?$less@K@std@@V?$allocator@U?$pair@$$CBKUSObserver@CPythonMiniMap@@@std@@@4@$0A@@std@@SAABKABU?$pair@$$CBKUSObserver@CPythonMiniMap@@@1@@Z ; std::_Tmap_traits<unsigned long,CPythonMiniMap::SObserver,std::less<unsigned long>,std::allocator<std::pair<unsigned long const ,CPythonMiniMap::SObserver> >,0>::_Kfn<unsigned long const ,CPythonMiniMap::SObserver>
PUBLIC	??0?$_List_const_iterator@V?$_List_val@U?$_List_simple_types@U?$pair@$$CBKV?$shared_ptr@USPartyPlayerPosition@CPythonMiniMap@@@std@@@std@@@std@@@std@@@std@@QAE@PAU?$_List_node@U?$pair@$$CBKV?$shared_ptr@USPartyPlayerPosition@CPythonMiniMap@@@std@@@std@@PAX@1@PBV?$_List_val@U?$_List_simple_types@U?$pair@$$CBKV?$shared_ptr@USPartyPlayerPosition@CPythonMiniMap@@@std@@@std@@@std@@@1@@Z ; std::_List_const_iterator<std::_List_val<std::_List_simple_types<std::pair<unsigned long const ,std::shared_ptr<CPythonMiniMap::SPartyPlayerPosition> > > > >::_List_const_iterator<std::_List_val<std::_List_simple_types<std::pair<unsigned long const ,std::shared_ptr<CPythonMiniMap::SPartyPlayerPosition> > > > >
PUBLIC	??0?$_List_unchecked_iterator@V?$_List_val@U?$_List_simple_types@U?$pair@$$CBKV?$shared_ptr@USPartyPlayerPosition@CPythonMiniMap@@@std@@@std@@@std@@@std@@@std@@QAE@PAU?$_List_node@U?$pair@$$CBKV?$shared_ptr@USPartyPlayerPosition@CPythonMiniMap@@@std@@@std@@PAX@1@PBV?$_List_val@U?$_List_simple_types@U?$pair@$$CBKV?$shared_ptr@USPartyPlayerPosition@CPythonMiniMap@@@std@@@std@@@std@@@1@@Z ; std::_List_unchecked_iterator<std::_List_val<std::_List_simple_types<std::pair<unsigned long const ,std::shared_ptr<CPythonMiniMap::SPartyPlayerPosition> > > > >::_List_unchecked_iterator<std::_List_val<std::_List_simple_types<std::pair<unsigned long const ,std::shared_ptr<CPythonMiniMap::SPartyPlayerPosition> > > > >
PUBLIC	??0?$_List_iterator@V?$_List_val@U?$_List_simple_types@U?$pair@$$CBKV?$shared_ptr@USPartyPlayerPosition@CPythonMiniMap@@@std@@@std@@@std@@@std@@@std@@QAE@PAU?$_List_node@U?$pair@$$CBKV?$shared_ptr@USPartyPlayerPosition@CPythonMiniMap@@@std@@@std@@PAX@1@PBV?$_List_val@U?$_List_simple_types@U?$pair@$$CBKV?$shared_ptr@USPartyPlayerPosition@CPythonMiniMap@@@std@@@std@@@std@@@1@@Z ; std::_List_iterator<std::_List_val<std::_List_simple_types<std::pair<unsigned long const ,std::shared_ptr<CPythonMiniMap::SPartyPlayerPosition> > > > >::_List_iterator<std::_List_val<std::_List_simple_types<std::pair<unsigned long const ,std::shared_ptr<CPythonMiniMap::SPartyPlayerPosition> > > > >
PUBLIC	??1?$_Ref_count@USPartyPlayerPosition@CPythonMiniMap@@@std@@UAE@XZ ; std::_Ref_count<CPythonMiniMap::SPartyPlayerPosition>::~_Ref_count<CPythonMiniMap::SPartyPlayerPosition>
PUBLIC	??_G?$_Ref_count@USPartyPlayerPosition@CPythonMiniMap@@@std@@UAEPAXI@Z ; std::_Ref_count<CPythonMiniMap::SPartyPlayerPosition>::`scalar deleting destructor'
PUBLIC	??_GSPartyPlayerPosition@CPythonMiniMap@@QAEPAXI@Z ; CPythonMiniMap::SPartyPlayerPosition::`scalar deleting destructor'
PUBLIC	?_Tidy@?$vector@USMarkPosition@CPythonMiniMap@@V?$allocator@USMarkPosition@CPythonMiniMap@@@std@@@std@@AAEXXZ ; std::vector<CPythonMiniMap::SMarkPosition,std::allocator<CPythonMiniMap::SMarkPosition> >::_Tidy
PUBLIC	?_Getal@?$vector@USMarkPosition@CPythonMiniMap@@V?$allocator@USMarkPosition@CPythonMiniMap@@@std@@@std@@AAEAAV?$allocator@USMarkPosition@CPythonMiniMap@@@2@XZ ; std::vector<CPythonMiniMap::SMarkPosition,std::allocator<CPythonMiniMap::SMarkPosition> >::_Getal
PUBLIC	??0?$_Vector_const_iterator@V?$_Vector_val@U?$_Simple_types@USMarkPosition@CPythonMiniMap@@@std@@@std@@@std@@QAE@PAUSMarkPosition@CPythonMiniMap@@PBU_Container_base0@1@@Z ; std::_Vector_const_iterator<std::_Vector_val<std::_Simple_types<CPythonMiniMap::SMarkPosition> > >::_Vector_const_iterator<std::_Vector_val<std::_Simple_types<CPythonMiniMap::SMarkPosition> > >
PUBLIC	??D?$_Vector_const_iterator@V?$_Vector_val@U?$_Simple_types@USMarkPosition@CPythonMiniMap@@@std@@@std@@@std@@QBEABUSMarkPosition@CPythonMiniMap@@XZ ; std::_Vector_const_iterator<std::_Vector_val<std::_Simple_types<CPythonMiniMap::SMarkPosition> > >::operator*
PUBLIC	??E?$_Vector_const_iterator@V?$_Vector_val@U?$_Simple_types@USMarkPosition@CPythonMiniMap@@@std@@@std@@@std@@QAEAAV01@XZ ; std::_Vector_const_iterator<std::_Vector_val<std::_Simple_types<CPythonMiniMap::SMarkPosition> > >::operator++
PUBLIC	?_Compat@?$_Vector_const_iterator@V?$_Vector_val@U?$_Simple_types@USMarkPosition@CPythonMiniMap@@@std@@@std@@@std@@QBEXABV12@@Z ; std::_Vector_const_iterator<std::_Vector_val<std::_Simple_types<CPythonMiniMap::SMarkPosition> > >::_Compat
PUBLIC	??0?$_Tree@V?$_Tmap_traits@KUSObserver@CPythonMiniMap@@U?$less@K@std@@V?$allocator@U?$pair@$$CBKUSObserver@CPythonMiniMap@@@std@@@4@$0A@@std@@@std@@QAE@ABU?$less@K@1@@Z ; std::_Tree<std::_Tmap_traits<unsigned long,CPythonMiniMap::SObserver,std::less<unsigned long>,std::allocator<std::pair<unsigned long const ,CPythonMiniMap::SObserver> >,0> >::_Tree<std::_Tmap_traits<unsigned long,CPythonMiniMap::SObserver,std::less<unsigned long>,std::allocator<std::pair<unsigned long const ,CPythonMiniMap::SObserver> >,0> >
PUBLIC	?_Erase@?$_Tree@V?$_Tmap_traits@KUSObserver@CPythonMiniMap@@U?$less@K@std@@V?$allocator@U?$pair@$$CBKUSObserver@CPythonMiniMap@@@std@@@4@$0A@@std@@@std@@AAEIU?$pair@PAU?$_Tree_node@U?$pair@$$CBKUSObserver@CPythonMiniMap@@@std@@PAX@std@@PAU12@@2@@Z ; std::_Tree<std::_Tmap_traits<unsigned long,CPythonMiniMap::SObserver,std::less<unsigned long>,std::allocator<std::pair<unsigned long const ,CPythonMiniMap::SObserver> >,0> >::_Erase
PUBLIC	?_Getal@?$_Tree@V?$_Tmap_traits@KUSObserver@CPythonMiniMap@@U?$less@K@std@@V?$allocator@U?$pair@$$CBKUSObserver@CPythonMiniMap@@@std@@@4@$0A@@std@@@std@@IAEAAV?$allocator@U?$_Tree_node@U?$pair@$$CBKUSObserver@CPythonMiniMap@@@std@@PAX@std@@@2@XZ ; std::_Tree<std::_Tmap_traits<unsigned long,CPythonMiniMap::SObserver,std::less<unsigned long>,std::allocator<std::pair<unsigned long const ,CPythonMiniMap::SObserver> >,0> >::_Getal
PUBLIC	?_Get_scary@?$_Tree@V?$_Tmap_traits@KUSObserver@CPythonMiniMap@@U?$less@K@std@@V?$allocator@U?$pair@$$CBKUSObserver@CPythonMiniMap@@@std@@@4@$0A@@std@@@std@@IAEPAV?$_Tree_val@U?$_Tree_simple_types@U?$pair@$$CBKUSObserver@CPythonMiniMap@@@std@@@std@@@2@XZ ; std::_Tree<std::_Tmap_traits<unsigned long,CPythonMiniMap::SObserver,std::less<unsigned long>,std::allocator<std::pair<unsigned long const ,CPythonMiniMap::SObserver> >,0> >::_Get_scary
PUBLIC	??E?$_Tree_const_iterator@V?$_Tree_val@U?$_Tree_simple_types@U?$pair@$$CBKUSObserver@CPythonMiniMap@@@std@@@std@@@std@@@std@@QAEAAV01@XZ ; std::_Tree_const_iterator<std::_Tree_val<std::_Tree_simple_types<std::pair<unsigned long const ,CPythonMiniMap::SObserver> > > >::operator++
PUBLIC	??D?$_Tree_iterator@V?$_Tree_val@U?$_Tree_simple_types@U?$pair@$$CBKUSObserver@CPythonMiniMap@@@std@@@std@@@std@@@std@@QBEAAU?$pair@$$CBKUSObserver@CPythonMiniMap@@@1@XZ ; std::_Tree_iterator<std::_Tree_val<std::_Tree_simple_types<std::pair<unsigned long const ,CPythonMiniMap::SObserver> > > >::operator*
PUBLIC	??0?$_Tree_unchecked_const_iterator@V?$_Tree_val@U?$_Tree_simple_types@U?$pair@$$CBKUSObserver@CPythonMiniMap@@@std@@@std@@@std@@U_Iterator_base0@2@@std@@QAE@PAU?$_Tree_node@U?$pair@$$CBKUSObserver@CPythonMiniMap@@@std@@PAX@1@PBV?$_Tree_val@U?$_Tree_simple_types@U?$pair@$$CBKUSObserver@CPythonMiniMap@@@std@@@std@@@1@@Z ; std::_Tree_unchecked_const_iterator<std::_Tree_val<std::_Tree_simple_types<std::pair<unsigned long const ,CPythonMiniMap::SObserver> > >,std::_Iterator_base0>::_Tree_unchecked_const_iterator<std::_Tree_val<std::_Tree_simple_types<std::pair<unsigned long const ,CPythonMiniMap::SObserver> > >,std::_Iterator_base0>
PUBLIC	??0?$allocator@U?$pair@$$CBKV?$shared_ptr@USPartyPlayerPosition@CPythonMiniMap@@@std@@@std@@@std@@QAE@XZ ; std::allocator<std::pair<unsigned long const ,std::shared_ptr<CPythonMiniMap::SPartyPlayerPosition> > >::allocator<std::pair<unsigned long const ,std::shared_ptr<CPythonMiniMap::SPartyPlayerPosition> > >
PUBLIC	??0?$_Hash@V?$_Umap_traits@KV?$shared_ptr@USPartyPlayerPosition@CPythonMiniMap@@@std@@V?$_Uhash_compare@KU?$hash@K@std@@U?$equal_to@K@2@@2@V?$allocator@U?$pair@$$CBKV?$shared_ptr@USPartyPlayerPosition@CPythonMiniMap@@@std@@@std@@@2@$0A@@std@@@std@@IAE@ABV?$_Uhash_compare@KU?$hash@K@std@@U?$equal_to@K@2@@1@ABV?$allocator@U?$pair@$$CBKV?$shared_ptr@USPartyPlayerPosition@CPythonMiniMap@@@std@@@std@@@1@@Z ; std::_Hash<std::_Umap_traits<unsigned long,std::shared_ptr<CPythonMiniMap::SPartyPlayerPosition>,std::_Uhash_compare<unsigned long,std::hash<unsigned long>,std::equal_to<unsigned long> >,std::allocator<std::pair<unsigned long const ,std::shared_ptr<CPythonMiniMap::SPartyPlayerPosition> > >,0> >::_Hash<std::_Umap_traits<unsigned long,std::shared_ptr<CPythonMiniMap::SPartyPlayerPosition>,std::_Uhash_compare<unsigned long,std::hash<unsigned long>,std::equal_to<unsigned long> >,std::allocator<std::pair<unsigned long const ,std::shared_ptr<CPythonMiniMap::SPartyPlayerPosition> > >,0> >
PUBLIC	?bucket_count@?$_Hash@V?$_Umap_traits@KV?$shared_ptr@USPartyPlayerPosition@CPythonMiniMap@@@std@@V?$_Uhash_compare@KU?$hash@K@std@@U?$equal_to@K@2@@2@V?$allocator@U?$pair@$$CBKV?$shared_ptr@USPartyPlayerPosition@CPythonMiniMap@@@std@@@std@@@2@$0A@@std@@@std@@QBEIXZ ; std::_Hash<std::_Umap_traits<unsigned long,std::shared_ptr<CPythonMiniMap::SPartyPlayerPosition>,std::_Uhash_compare<unsigned long,std::hash<unsigned long>,std::equal_to<unsigned long> >,std::allocator<std::pair<unsigned long const ,std::shared_ptr<CPythonMiniMap::SPartyPlayerPosition> > >,0> >::bucket_count
PUBLIC	?_Unchecked_erase@?$_Hash@V?$_Umap_traits@KV?$shared_ptr@USPartyPlayerPosition@CPythonMiniMap@@@std@@V?$_Uhash_compare@KU?$hash@K@std@@U?$equal_to@K@2@@2@V?$allocator@U?$pair@$$CBKV?$shared_ptr@USPartyPlayerPosition@CPythonMiniMap@@@std@@@std@@@2@$0A@@std@@@std@@AAEPAU?$_List_node@U?$pair@$$CBKV?$shared_ptr@USPartyPlayerPosition@CPythonMiniMap@@@std@@@std@@PAX@2@PAU32@@Z ; std::_Hash<std::_Umap_traits<unsigned long,std::shared_ptr<CPythonMiniMap::SPartyPlayerPosition>,std::_Uhash_compare<unsigned long,std::hash<unsigned long>,std::equal_to<unsigned long> >,std::allocator<std::pair<unsigned long const ,std::shared_ptr<CPythonMiniMap::SPartyPlayerPosition> > >,0> >::_Unchecked_erase
PUBLIC	?_Unchecked_erase@?$_Hash@V?$_Umap_traits@KV?$shared_ptr@USPartyPlayerPosition@CPythonMiniMap@@@std@@V?$_Uhash_compare@KU?$hash@K@std@@U?$equal_to@K@2@@2@V?$allocator@U?$pair@$$CBKV?$shared_ptr@USPartyPlayerPosition@CPythonMiniMap@@@std@@@std@@@2@$0A@@std@@@std@@AAEPAU?$_List_node@U?$pair@$$CBKV?$shared_ptr@USPartyPlayerPosition@CPythonMiniMap@@@std@@@std@@PAX@2@PAU32@QAU32@@Z ; std::_Hash<std::_Umap_traits<unsigned long,std::shared_ptr<CPythonMiniMap::SPartyPlayerPosition>,std::_Uhash_compare<unsigned long,std::hash<unsigned long>,std::equal_to<unsigned long> >,std::allocator<std::pair<unsigned long const ,std::shared_ptr<CPythonMiniMap::SPartyPlayerPosition> > >,0> >::_Unchecked_erase
PUBLIC	?_Insert_new_node_before@?$_Hash@V?$_Umap_traits@KV?$shared_ptr@USPartyPlayerPosition@CPythonMiniMap@@@std@@V?$_Uhash_compare@KU?$hash@K@std@@U?$equal_to@K@2@@2@V?$allocator@U?$pair@$$CBKV?$shared_ptr@USPartyPlayerPosition@CPythonMiniMap@@@std@@@std@@@2@$0A@@std@@@std@@IAEPAU?$_List_node@U?$pair@$$CBKV?$shared_ptr@USPartyPlayerPosition@CPythonMiniMap@@@std@@@std@@PAX@2@IQAU32@0@Z ; std::_Hash<std::_Umap_traits<unsigned long,std::shared_ptr<CPythonMiniMap::SPartyPlayerPosition>,std::_Uhash_compare<unsigned long,std::hash<unsigned long>,std::equal_to<unsigned long> >,std::allocator<std::pair<unsigned long const ,std::shared_ptr<CPythonMiniMap::SPartyPlayerPosition> > >,0> >::_Insert_new_node_before
PUBLIC	?_Check_max_size@?$_Hash@V?$_Umap_traits@KV?$shared_ptr@USPartyPlayerPosition@CPythonMiniMap@@@std@@V?$_Uhash_compare@KU?$hash@K@std@@U?$equal_to@K@2@@2@V?$allocator@U?$pair@$$CBKV?$shared_ptr@USPartyPlayerPosition@CPythonMiniMap@@@std@@@std@@@2@$0A@@std@@@std@@IBEXXZ ; std::_Hash<std::_Umap_traits<unsigned long,std::shared_ptr<CPythonMiniMap::SPartyPlayerPosition>,std::_Uhash_compare<unsigned long,std::hash<unsigned long>,std::equal_to<unsigned long> >,std::allocator<std::pair<unsigned long const ,std::shared_ptr<CPythonMiniMap::SPartyPlayerPosition> > >,0> >::_Check_max_size
PUBLIC	?_Check_rehash_required_1@?$_Hash@V?$_Umap_traits@KV?$shared_ptr@USPartyPlayerPosition@CPythonMiniMap@@@std@@V?$_Uhash_compare@KU?$hash@K@std@@U?$equal_to@K@2@@2@V?$allocator@U?$pair@$$CBKV?$shared_ptr@USPartyPlayerPosition@CPythonMiniMap@@@std@@@std@@@2@$0A@@std@@@std@@IBE_NXZ ; std::_Hash<std::_Umap_traits<unsigned long,std::shared_ptr<CPythonMiniMap::SPartyPlayerPosition>,std::_Uhash_compare<unsigned long,std::hash<unsigned long>,std::equal_to<unsigned long> >,std::allocator<std::pair<unsigned long const ,std::shared_ptr<CPythonMiniMap::SPartyPlayerPosition> > >,0> >::_Check_rehash_required_1
PUBLIC	?_Rehash_for_1@?$_Hash@V?$_Umap_traits@KV?$shared_ptr@USPartyPlayerPosition@CPythonMiniMap@@@std@@V?$_Uhash_compare@KU?$hash@K@std@@U?$equal_to@K@2@@2@V?$allocator@U?$pair@$$CBKV?$shared_ptr@USPartyPlayerPosition@CPythonMiniMap@@@std@@@std@@@2@$0A@@std@@@std@@IAEXXZ ; std::_Hash<std::_Umap_traits<unsigned long,std::shared_ptr<CPythonMiniMap::SPartyPlayerPosition>,std::_Uhash_compare<unsigned long,std::hash<unsigned long>,std::equal_to<unsigned long> >,std::allocator<std::pair<unsigned long const ,std::shared_ptr<CPythonMiniMap::SPartyPlayerPosition> > >,0> >::_Rehash_for_1
PUBLIC	?begin@?$list@U?$pair@$$CBKV?$shared_ptr@USPartyPlayerPosition@CPythonMiniMap@@@std@@@std@@V?$allocator@U?$pair@$$CBKV?$shared_ptr@USPartyPlayerPosition@CPythonMiniMap@@@std@@@std@@@2@@std@@QAE?AV?$_List_iterator@V?$_List_val@U?$_List_simple_types@U?$pair@$$CBKV?$shared_ptr@USPartyPlayerPosition@CPythonMiniMap@@@std@@@std@@@std@@@std@@@2@XZ ; std::list<std::pair<unsigned long const ,std::shared_ptr<CPythonMiniMap::SPartyPlayerPosition> >,std::allocator<std::pair<unsigned long const ,std::shared_ptr<CPythonMiniMap::SPartyPlayerPosition> > > >::begin
PUBLIC	?end@?$list@U?$pair@$$CBKV?$shared_ptr@USPartyPlayerPosition@CPythonMiniMap@@@std@@@std@@V?$allocator@U?$pair@$$CBKV?$shared_ptr@USPartyPlayerPosition@CPythonMiniMap@@@std@@@std@@@2@@std@@QAE?AV?$_List_iterator@V?$_List_val@U?$_List_simple_types@U?$pair@$$CBKV?$shared_ptr@USPartyPlayerPosition@CPythonMiniMap@@@std@@@std@@@std@@@std@@@2@XZ ; std::list<std::pair<unsigned long const ,std::shared_ptr<CPythonMiniMap::SPartyPlayerPosition> >,std::allocator<std::pair<unsigned long const ,std::shared_ptr<CPythonMiniMap::SPartyPlayerPosition> > > >::end
PUBLIC	?_Unchecked_begin@?$list@U?$pair@$$CBKV?$shared_ptr@USPartyPlayerPosition@CPythonMiniMap@@@std@@@std@@V?$allocator@U?$pair@$$CBKV?$shared_ptr@USPartyPlayerPosition@CPythonMiniMap@@@std@@@std@@@2@@std@@QAE?AV?$_List_unchecked_iterator@V?$_List_val@U?$_List_simple_types@U?$pair@$$CBKV?$shared_ptr@USPartyPlayerPosition@CPythonMiniMap@@@std@@@std@@@std@@@std@@@2@XZ ; std::list<std::pair<unsigned long const ,std::shared_ptr<CPythonMiniMap::SPartyPlayerPosition> >,std::allocator<std::pair<unsigned long const ,std::shared_ptr<CPythonMiniMap::SPartyPlayerPosition> > > >::_Unchecked_begin
PUBLIC	?_Unchecked_end@?$list@U?$pair@$$CBKV?$shared_ptr@USPartyPlayerPosition@CPythonMiniMap@@@std@@@std@@V?$allocator@U?$pair@$$CBKV?$shared_ptr@USPartyPlayerPosition@CPythonMiniMap@@@std@@@std@@@2@@std@@QAE?AV?$_List_unchecked_iterator@V?$_List_val@U?$_List_simple_types@U?$pair@$$CBKV?$shared_ptr@USPartyPlayerPosition@CPythonMiniMap@@@std@@@std@@@std@@@std@@@2@XZ ; std::list<std::pair<unsigned long const ,std::shared_ptr<CPythonMiniMap::SPartyPlayerPosition> >,std::allocator<std::pair<unsigned long const ,std::shared_ptr<CPythonMiniMap::SPartyPlayerPosition> > > >::_Unchecked_end
PUBLIC	?_Make_iter@?$list@U?$pair@$$CBKV?$shared_ptr@USPartyPlayerPosition@CPythonMiniMap@@@std@@@std@@V?$allocator@U?$pair@$$CBKV?$shared_ptr@USPartyPlayerPosition@CPythonMiniMap@@@std@@@std@@@2@@std@@QBE?AV?$_List_iterator@V?$_List_val@U?$_List_simple_types@U?$pair@$$CBKV?$shared_ptr@USPartyPlayerPosition@CPythonMiniMap@@@std@@@std@@@std@@@std@@@2@PAU?$_List_node@U?$pair@$$CBKV?$shared_ptr@USPartyPlayerPosition@CPythonMiniMap@@@std@@@std@@PAX@2@@Z ; std::list<std::pair<unsigned long const ,std::shared_ptr<CPythonMiniMap::SPartyPlayerPosition> >,std::allocator<std::pair<unsigned long const ,std::shared_ptr<CPythonMiniMap::SPartyPlayerPosition> > > >::_Make_iter
PUBLIC	?clear@?$list@U?$pair@$$CBKV?$shared_ptr@USPartyPlayerPosition@CPythonMiniMap@@@std@@@std@@V?$allocator@U?$pair@$$CBKV?$shared_ptr@USPartyPlayerPosition@CPythonMiniMap@@@std@@@std@@@2@@std@@QAEXXZ ; std::list<std::pair<unsigned long const ,std::shared_ptr<CPythonMiniMap::SPartyPlayerPosition> >,std::allocator<std::pair<unsigned long const ,std::shared_ptr<CPythonMiniMap::SPartyPlayerPosition> > > >::clear
PUBLIC	?_Tidy@?$list@U?$pair@$$CBKV?$shared_ptr@USPartyPlayerPosition@CPythonMiniMap@@@std@@@std@@V?$allocator@U?$pair@$$CBKV?$shared_ptr@USPartyPlayerPosition@CPythonMiniMap@@@std@@@std@@@2@@std@@AAEXXZ ; std::list<std::pair<unsigned long const ,std::shared_ptr<CPythonMiniMap::SPartyPlayerPosition> >,std::allocator<std::pair<unsigned long const ,std::shared_ptr<CPythonMiniMap::SPartyPlayerPosition> > > >::_Tidy
PUBLIC	?_Getal@?$list@U?$pair@$$CBKV?$shared_ptr@USPartyPlayerPosition@CPythonMiniMap@@@std@@@std@@V?$allocator@U?$pair@$$CBKV?$shared_ptr@USPartyPlayerPosition@CPythonMiniMap@@@std@@@std@@@2@@std@@AAEAAV?$allocator@U?$_List_node@U?$pair@$$CBKV?$shared_ptr@USPartyPlayerPosition@CPythonMiniMap@@@std@@@std@@PAX@std@@@2@XZ ; std::list<std::pair<unsigned long const ,std::shared_ptr<CPythonMiniMap::SPartyPlayerPosition> >,std::allocator<std::pair<unsigned long const ,std::shared_ptr<CPythonMiniMap::SPartyPlayerPosition> > > >::_Getal
PUBLIC	??D?$_List_iterator@V?$_List_val@U?$_List_simple_types@U?$pair@$$CBKV?$shared_ptr@USPartyPlayerPosition@CPythonMiniMap@@@std@@@std@@@std@@@std@@@std@@QBEAAU?$pair@$$CBKV?$shared_ptr@USPartyPlayerPosition@CPythonMiniMap@@@std@@@1@XZ ; std::_List_iterator<std::_List_val<std::_List_simple_types<std::pair<unsigned long const ,std::shared_ptr<CPythonMiniMap::SPartyPlayerPosition> > > > >::operator*
PUBLIC	??E?$_List_const_iterator@V?$_List_val@U?$_List_simple_types@U?$pair@$$CBKV?$shared_ptr@USPartyPlayerPosition@CPythonMiniMap@@@std@@@std@@@std@@@std@@@std@@QAEAAV01@XZ ; std::_List_const_iterator<std::_List_val<std::_List_simple_types<std::pair<unsigned long const ,std::shared_ptr<CPythonMiniMap::SPartyPlayerPosition> > > > >::operator++
PUBLIC	??D?$_List_unchecked_const_iterator@V?$_List_val@U?$_List_simple_types@U?$pair@$$CBKV?$shared_ptr@USPartyPlayerPosition@CPythonMiniMap@@@std@@@std@@@std@@@std@@U_Iterator_base0@2@@std@@QBEABU?$pair@$$CBKV?$shared_ptr@USPartyPlayerPosition@CPythonMiniMap@@@std@@@1@XZ ; std::_List_unchecked_const_iterator<std::_List_val<std::_List_simple_types<std::pair<unsigned long const ,std::shared_ptr<CPythonMiniMap::SPartyPlayerPosition> > > >,std::_Iterator_base0>::operator*
PUBLIC	??E?$_List_unchecked_const_iterator@V?$_List_val@U?$_List_simple_types@U?$pair@$$CBKV?$shared_ptr@USPartyPlayerPosition@CPythonMiniMap@@@std@@@std@@@std@@@std@@U_Iterator_base0@2@@std@@QAEAAV01@XZ ; std::_List_unchecked_const_iterator<std::_List_val<std::_List_simple_types<std::pair<unsigned long const ,std::shared_ptr<CPythonMiniMap::SPartyPlayerPosition> > > >,std::_Iterator_base0>::operator++
PUBLIC	?_Tidy@?$_Hash_vec@V?$allocator@V?$_List_unchecked_iterator@V?$_List_val@U?$_List_simple_types@U?$pair@$$CBKV?$shared_ptr@USPartyPlayerPosition@CPythonMiniMap@@@std@@@std@@@std@@@std@@@std@@@std@@@std@@QAEXXZ ; std::_Hash_vec<std::allocator<std::_List_unchecked_iterator<std::_List_val<std::_List_simple_types<std::pair<unsigned long const ,std::shared_ptr<CPythonMiniMap::SPartyPlayerPosition> > > > > > >::_Tidy
PUBLIC	?_Tidy@?$vector@USAtlasMarkInfo@CPythonMiniMap@@V?$allocator@USAtlasMarkInfo@CPythonMiniMap@@@std@@@std@@AAEXXZ ; std::vector<CPythonMiniMap::SAtlasMarkInfo,std::allocator<CPythonMiniMap::SAtlasMarkInfo> >::_Tidy
PUBLIC	?_Orphan_range@?$vector@USAtlasMarkInfo@CPythonMiniMap@@V?$allocator@USAtlasMarkInfo@CPythonMiniMap@@@std@@@std@@ABEXPAUSAtlasMarkInfo@CPythonMiniMap@@0@Z ; std::vector<CPythonMiniMap::SAtlasMarkInfo,std::allocator<CPythonMiniMap::SAtlasMarkInfo> >::_Orphan_range
PUBLIC	?_Getal@?$vector@USAtlasMarkInfo@CPythonMiniMap@@V?$allocator@USAtlasMarkInfo@CPythonMiniMap@@@std@@@std@@AAEAAV?$allocator@USAtlasMarkInfo@CPythonMiniMap@@@2@XZ ; std::vector<CPythonMiniMap::SAtlasMarkInfo,std::allocator<CPythonMiniMap::SAtlasMarkInfo> >::_Getal
PUBLIC	??0?$_Vector_const_iterator@V?$_Vector_val@U?$_Simple_types@USAtlasMarkInfo@CPythonMiniMap@@@std@@@std@@@std@@QAE@PAUSAtlasMarkInfo@CPythonMiniMap@@PBU_Container_base0@1@@Z ; std::_Vector_const_iterator<std::_Vector_val<std::_Simple_types<CPythonMiniMap::SAtlasMarkInfo> > >::_Vector_const_iterator<std::_Vector_val<std::_Simple_types<CPythonMiniMap::SAtlasMarkInfo> > >
PUBLIC	??D?$_Vector_const_iterator@V?$_Vector_val@U?$_Simple_types@USAtlasMarkInfo@CPythonMiniMap@@@std@@@std@@@std@@QBEABUSAtlasMarkInfo@CPythonMiniMap@@XZ ; std::_Vector_const_iterator<std::_Vector_val<std::_Simple_types<CPythonMiniMap::SAtlasMarkInfo> > >::operator*
PUBLIC	??E?$_Vector_const_iterator@V?$_Vector_val@U?$_Simple_types@USAtlasMarkInfo@CPythonMiniMap@@@std@@@std@@@std@@QAEAAV01@XZ ; std::_Vector_const_iterator<std::_Vector_val<std::_Simple_types<CPythonMiniMap::SAtlasMarkInfo> > >::operator++
PUBLIC	?_Compat@?$_Vector_const_iterator@V?$_Vector_val@U?$_Simple_types@USAtlasMarkInfo@CPythonMiniMap@@@std@@@std@@@std@@QBEXABV12@@Z ; std::_Vector_const_iterator<std::_Vector_val<std::_Simple_types<CPythonMiniMap::SAtlasMarkInfo> > >::_Compat
PUBLIC	?_Tidy@?$vector@USGuildAreaInfo@CPythonMiniMap@@V?$allocator@USGuildAreaInfo@CPythonMiniMap@@@std@@@std@@AAEXXZ ; std::vector<CPythonMiniMap::SGuildAreaInfo,std::allocator<CPythonMiniMap::SGuildAreaInfo> >::_Tidy
PUBLIC	?_Getal@?$vector@USGuildAreaInfo@CPythonMiniMap@@V?$allocator@USGuildAreaInfo@CPythonMiniMap@@@std@@@std@@AAEAAV?$allocator@USGuildAreaInfo@CPythonMiniMap@@@2@XZ ; std::vector<CPythonMiniMap::SGuildAreaInfo,std::allocator<CPythonMiniMap::SGuildAreaInfo> >::_Getal
PUBLIC	??0?$_Vector_const_iterator@V?$_Vector_val@U?$_Simple_types@USGuildAreaInfo@CPythonMiniMap@@@std@@@std@@@std@@QAE@PAUSGuildAreaInfo@CPythonMiniMap@@PBU_Container_base0@1@@Z ; std::_Vector_const_iterator<std::_Vector_val<std::_Simple_types<CPythonMiniMap::SGuildAreaInfo> > >::_Vector_const_iterator<std::_Vector_val<std::_Simple_types<CPythonMiniMap::SGuildAreaInfo> > >
PUBLIC	??D?$_Vector_const_iterator@V?$_Vector_val@U?$_Simple_types@USGuildAreaInfo@CPythonMiniMap@@@std@@@std@@@std@@QBEABUSGuildAreaInfo@CPythonMiniMap@@XZ ; std::_Vector_const_iterator<std::_Vector_val<std::_Simple_types<CPythonMiniMap::SGuildAreaInfo> > >::operator*
PUBLIC	??E?$_Vector_const_iterator@V?$_Vector_val@U?$_Simple_types@USGuildAreaInfo@CPythonMiniMap@@@std@@@std@@@std@@QAEAAV01@XZ ; std::_Vector_const_iterator<std::_Vector_val<std::_Simple_types<CPythonMiniMap::SGuildAreaInfo> > >::operator++
PUBLIC	?_Compat@?$_Vector_const_iterator@V?$_Vector_val@U?$_Simple_types@USGuildAreaInfo@CPythonMiniMap@@@std@@@std@@@std@@QBEXABV12@@Z ; std::_Vector_const_iterator<std::_Vector_val<std::_Simple_types<CPythonMiniMap::SGuildAreaInfo> > >::_Compat
PUBLIC	?_Tidy@?$vector@UTSignalPoint@CPythonMiniMap@@V?$allocator@UTSignalPoint@CPythonMiniMap@@@std@@@std@@AAEXXZ ; std::vector<CPythonMiniMap::TSignalPoint,std::allocator<CPythonMiniMap::TSignalPoint> >::_Tidy
PUBLIC	?_Getal@?$vector@UTSignalPoint@CPythonMiniMap@@V?$allocator@UTSignalPoint@CPythonMiniMap@@@std@@@std@@AAEAAV?$allocator@UTSignalPoint@CPythonMiniMap@@@2@XZ ; std::vector<CPythonMiniMap::TSignalPoint,std::allocator<CPythonMiniMap::TSignalPoint> >::_Getal
PUBLIC	??0?$_Vector_const_iterator@V?$_Vector_val@U?$_Simple_types@UTSignalPoint@CPythonMiniMap@@@std@@@std@@@std@@QAE@PAUTSignalPoint@CPythonMiniMap@@PBU_Container_base0@1@@Z ; std::_Vector_const_iterator<std::_Vector_val<std::_Simple_types<CPythonMiniMap::TSignalPoint> > >::_Vector_const_iterator<std::_Vector_val<std::_Simple_types<CPythonMiniMap::TSignalPoint> > >
PUBLIC	??E?$_Vector_const_iterator@V?$_Vector_val@U?$_Simple_types@UTSignalPoint@CPythonMiniMap@@@std@@@std@@@std@@QAEAAV01@XZ ; std::_Vector_const_iterator<std::_Vector_val<std::_Simple_types<CPythonMiniMap::TSignalPoint> > >::operator++
PUBLIC	?_Compat@?$_Vector_const_iterator@V?$_Vector_val@U?$_Simple_types@UTSignalPoint@CPythonMiniMap@@@std@@@std@@@std@@QBEXABV12@@Z ; std::_Vector_const_iterator<std::_Vector_val<std::_Simple_types<CPythonMiniMap::TSignalPoint> > >::_Compat
PUBLIC	??0?$_Tree@V?$_Tmap_traits@V?$basic_string@DU?$char_traits@D@std@@V?$allocator@D@2@@std@@V?$vector@V?$basic_string@DU?$char_traits@D@std@@V?$allocator@D@2@@std@@V?$allocator@V?$basic_string@DU?$char_traits@D@std@@V?$allocator@D@2@@std@@@2@@2@U?$less@V?$basic_string@DU?$char_traits@D@std@@V?$allocator@D@2@@std@@@2@V?$allocator@U?$pair@$$CBV?$basic_string@DU?$char_traits@D@std@@V?$allocator@D@2@@std@@V?$vector@V?$basic_string@DU?$char_traits@D@std@@V?$allocator@D@2@@std@@V?$allocator@V?$basic_string@DU?$char_traits@D@std@@V?$allocator@D@2@@std@@@2@@2@@std@@@2@$0A@@std@@@std@@QAE@ABU?$less@V?$basic_string@DU?$char_traits@D@std@@V?$allocator@D@2@@std@@@1@@Z ; std::_Tree<std::_Tmap_traits<std::basic_string<char,std::char_traits<char>,std::allocator<char> >,std::vector<std::basic_string<char,std::char_traits<char>,std::allocator<char> >,std::allocator<std::basic_string<char,std::char_traits<char>,std::allocator<char> > > >,std::less<std::basic_string<char,std::char_traits<char>,std::allocator<char> > >,std::allocator<std::pair<std::basic_string<char,std::char_traits<char>,std::allocator<char> > const ,std::vector<std::basic_string<char,std::char_traits<char>,std::allocator<char> >,std::allocator<std::basic_string<char,std::char_traits<char>,std::allocator<char> > > > > >,0> >::_Tree<std::_Tmap_traits<std::basic_string<char,std::char_traits<char>,std::allocator<char> >,std::vector<std::basic_string<char,std::char_traits<char>,std::allocator<char> >,std::allocator<std::basic_string<char,std::char_traits<char>,std::allocator<char> > > >,std::less<std::basic_string<char,std::char_traits<char>,std::allocator<char> > >,std::allocator<std::pair<std::basic_string<char,std::char_traits<char>,std::allocator<char> > const ,std::vector<std::basic_string<char,std::char_traits<char>,std::allocator<char> >,std::allocator<std::basic_string<char,std::char_traits<char>,std::allocator<char> > > > > >,0> >
PUBLIC	?_Getal@?$_Tree@V?$_Tmap_traits@V?$basic_string@DU?$char_traits@D@std@@V?$allocator@D@2@@std@@V?$vector@V?$basic_string@DU?$char_traits@D@std@@V?$allocator@D@2@@std@@V?$allocator@V?$basic_string@DU?$char_traits@D@std@@V?$allocator@D@2@@std@@@2@@2@U?$less@V?$basic_string@DU?$char_traits@D@std@@V?$allocator@D@2@@std@@@2@V?$allocator@U?$pair@$$CBV?$basic_string@DU?$char_traits@D@std@@V?$allocator@D@2@@std@@V?$vector@V?$basic_string@DU?$char_traits@D@std@@V?$allocator@D@2@@std@@V?$allocator@V?$basic_string@DU?$char_traits@D@std@@V?$allocator@D@2@@std@@@2@@2@@std@@@2@$0A@@std@@@std@@IAEAAV?$allocator@U?$_Tree_node@U?$pair@$$CBV?$basic_string@DU?$char_traits@D@std@@V?$allocator@D@2@@std@@V?$vector@V?$basic_string@DU?$char_traits@D@std@@V?$allocator@D@2@@std@@V?$allocator@V?$basic_string@DU?$char_traits@D@std@@V?$allocator@D@2@@std@@@2@@2@@std@@PAX@std@@@2@XZ ; std::_Tree<std::_Tmap_traits<std::basic_string<char,std::char_traits<char>,std::allocator<char> >,std::vector<std::basic_string<char,std::char_traits<char>,std::allocator<char> >,std::allocator<std::basic_string<char,std::char_traits<char>,std::allocator<char> > > >,std::less<std::basic_string<char,std::char_traits<char>,std::allocator<char> > >,std::allocator<std::pair<std::basic_string<char,std::char_traits<char>,std::allocator<char> > const ,std::vector<std::basic_string<char,std::char_traits<char>,std::allocator<char> >,std::allocator<std::basic_string<char,std::char_traits<char>,std::allocator<char> > > > > >,0> >::_Getal
PUBLIC	?_Get_scary@?$_Tree@V?$_Tmap_traits@V?$basic_string@DU?$char_traits@D@std@@V?$allocator@D@2@@std@@V?$vector@V?$basic_string@DU?$char_traits@D@std@@V?$allocator@D@2@@std@@V?$allocator@V?$basic_string@DU?$char_traits@D@std@@V?$allocator@D@2@@std@@@2@@2@U?$less@V?$basic_string@DU?$char_traits@D@std@@V?$allocator@D@2@@std@@@2@V?$allocator@U?$pair@$$CBV?$basic_string@DU?$char_traits@D@std@@V?$allocator@D@2@@std@@V?$vector@V?$basic_string@DU?$char_traits@D@std@@V?$allocator@D@2@@std@@V?$allocator@V?$basic_string@DU?$char_traits@D@std@@V?$allocator@D@2@@std@@@2@@2@@std@@@2@$0A@@std@@@std@@IAEPAV?$_Tree_val@U?$_Tree_simple_types@U?$pair@$$CBV?$basic_string@DU?$char_traits@D@std@@V?$allocator@D@2@@std@@V?$vector@V?$basic_string@DU?$char_traits@D@std@@V?$allocator@D@2@@std@@V?$allocator@V?$basic_string@DU?$char_traits@D@std@@V?$allocator@D@2@@std@@@2@@2@@std@@@std@@@2@XZ ; std::_Tree<std::_Tmap_traits<std::basic_string<char,std::char_traits<char>,std::allocator<char> >,std::vector<std::basic_string<char,std::char_traits<char>,std::allocator<char> >,std::allocator<std::basic_string<char,std::char_traits<char>,std::allocator<char> > > >,std::less<std::basic_string<char,std::char_traits<char>,std::allocator<char> > >,std::allocator<std::pair<std::basic_string<char,std::char_traits<char>,std::allocator<char> > const ,std::vector<std::basic_string<char,std::char_traits<char>,std::allocator<char> >,std::allocator<std::basic_string<char,std::char_traits<char>,std::allocator<char> > > > > >,0> >::_Get_scary
PUBLIC	?_Get_scary@?$_Tree@V?$_Tmap_traits@V?$basic_string@DU?$char_traits@D@std@@V?$allocator@D@2@@std@@V?$vector@V?$basic_string@DU?$char_traits@D@std@@V?$allocator@D@2@@std@@V?$allocator@V?$basic_string@DU?$char_traits@D@std@@V?$allocator@D@2@@std@@@2@@2@U?$less@V?$basic_string@DU?$char_traits@D@std@@V?$allocator@D@2@@std@@@2@V?$allocator@U?$pair@$$CBV?$basic_string@DU?$char_traits@D@std@@V?$allocator@D@2@@std@@V?$vector@V?$basic_string@DU?$char_traits@D@std@@V?$allocator@D@2@@std@@V?$allocator@V?$basic_string@DU?$char_traits@D@std@@V?$allocator@D@2@@std@@@2@@2@@std@@@2@$0A@@std@@@std@@IBEPBV?$_Tree_val@U?$_Tree_simple_types@U?$pair@$$CBV?$basic_string@DU?$char_traits@D@std@@V?$allocator@D@2@@std@@V?$vector@V?$basic_string@DU?$char_traits@D@std@@V?$allocator@D@2@@std@@V?$allocator@V?$basic_string@DU?$char_traits@D@std@@V?$allocator@D@2@@std@@@2@@2@@std@@@std@@@2@XZ ; std::_Tree<std::_Tmap_traits<std::basic_string<char,std::char_traits<char>,std::allocator<char> >,std::vector<std::basic_string<char,std::char_traits<char>,std::allocator<char> >,std::allocator<std::basic_string<char,std::char_traits<char>,std::allocator<char> > > >,std::less<std::basic_string<char,std::char_traits<char>,std::allocator<char> > >,std::allocator<std::pair<std::basic_string<char,std::char_traits<char>,std::allocator<char> > const ,std::vector<std::basic_string<char,std::char_traits<char>,std::allocator<char> >,std::allocator<std::basic_string<char,std::char_traits<char>,std::allocator<char> > > > > >,0> >::_Get_scary
PUBLIC	??0?$_Tree_unchecked_const_iterator@V?$_Tree_val@U?$_Tree_simple_types@U?$pair@$$CBV?$basic_string@DU?$char_traits@D@std@@V?$allocator@D@2@@std@@V?$vector@V?$basic_string@DU?$char_traits@D@std@@V?$allocator@D@2@@std@@V?$allocator@V?$basic_string@DU?$char_traits@D@std@@V?$allocator@D@2@@std@@@2@@2@@std@@@std@@@std@@U_Iterator_base0@2@@std@@QAE@PAU?$_Tree_node@U?$pair@$$CBV?$basic_string@DU?$char_traits@D@std@@V?$allocator@D@2@@std@@V?$vector@V?$basic_string@DU?$char_traits@D@std@@V?$allocator@D@2@@std@@V?$allocator@V?$basic_string@DU?$char_traits@D@std@@V?$allocator@D@2@@std@@@2@@2@@std@@PAX@1@PBV?$_Tree_val@U?$_Tree_simple_types@U?$pair@$$CBV?$basic_string@DU?$char_traits@D@std@@V?$allocator@D@2@@std@@V?$vector@V?$basic_string@DU?$char_traits@D@std@@V?$allocator@D@2@@std@@V?$allocator@V?$basic_string@DU?$char_traits@D@std@@V?$allocator@D@2@@std@@@2@@2@@std@@@std@@@1@@Z ; std::_Tree_unchecked_const_iterator<std::_Tree_val<std::_Tree_simple_types<std::pair<std::basic_string<char,std::char_traits<char>,std::allocator<char> > const ,std::vector<std::basic_string<char,std::char_traits<char>,std::allocator<char> >,std::allocator<std::basic_string<char,std::char_traits<char>,std::allocator<char> > > > > > >,std::_Iterator_base0>::_Tree_unchecked_const_iterator<std::_Tree_val<std::_Tree_simple_types<std::pair<std::basic_string<char,std::char_traits<char>,std::allocator<char> > const ,std::vector<std::basic_string<char,std::char_traits<char>,std::allocator<char> >,std::allocator<std::basic_string<char,std::char_traits<char>,std::allocator<char> > > > > > >,std::_Iterator_base0>
PUBLIC	?_Decref@?$_Ptr_base@USPartyPlayerPosition@CPythonMiniMap@@@std@@IAEXXZ ; std::_Ptr_base<CPythonMiniMap::SPartyPlayerPosition>::_Decref
PUBLIC	??0?$_Temporary_owner@USPartyPlayerPosition@CPythonMiniMap@@@std@@QAE@QAUSPartyPlayerPosition@CPythonMiniMap@@@Z ; std::_Temporary_owner<CPythonMiniMap::SPartyPlayerPosition>::_Temporary_owner<CPythonMiniMap::SPartyPlayerPosition>
PUBLIC	??1?$_Temporary_owner@USPartyPlayerPosition@CPythonMiniMap@@@std@@QAE@XZ ; std::_Temporary_owner<CPythonMiniMap::SPartyPlayerPosition>::~_Temporary_owner<CPythonMiniMap::SPartyPlayerPosition>
PUBLIC	??0?$_Ref_count@USPartyPlayerPosition@CPythonMiniMap@@@std@@QAE@PAUSPartyPlayerPosition@CPythonMiniMap@@@Z ; std::_Ref_count<CPythonMiniMap::SPartyPlayerPosition>::_Ref_count<CPythonMiniMap::SPartyPlayerPosition>
PUBLIC	?_Destroy@?$_Ref_count@USPartyPlayerPosition@CPythonMiniMap@@@std@@EAEXXZ ; std::_Ref_count<CPythonMiniMap::SPartyPlayerPosition>::_Destroy
PUBLIC	?_Delete_this@?$_Ref_count@USPartyPlayerPosition@CPythonMiniMap@@@std@@EAEXXZ ; std::_Ref_count<CPythonMiniMap::SPartyPlayerPosition>::_Delete_this
PUBLIC	?_Extract@?$_In_place_key_extract_map_impl@KKV?$shared_ptr@USPartyPlayerPosition@CPythonMiniMap@@@std@@@std@@SAABKABKABV?$shared_ptr@USPartyPlayerPosition@CPythonMiniMap@@@2@@Z ; std::_In_place_key_extract_map_impl<unsigned long,unsigned long,std::shared_ptr<CPythonMiniMap::SPartyPlayerPosition> >::_Extract
PUBLIC	??1?$_List_node_emplace_op2@V?$allocator@U?$_List_node@U?$pair@$$CBKV?$shared_ptr@USPartyPlayerPosition@CPythonMiniMap@@@std@@@std@@PAX@std@@@std@@@std@@QAE@XZ ; std::_List_node_emplace_op2<std::allocator<std::_List_node<std::pair<unsigned long const ,std::shared_ptr<CPythonMiniMap::SPartyPlayerPosition> >,void *> > >::~_List_node_emplace_op2<std::allocator<std::_List_node<std::pair<unsigned long const ,std::shared_ptr<CPythonMiniMap::SPartyPlayerPosition> >,void *> > >
PUBLIC	?_Release@?$_Alloc_construct_ptr@V?$allocator@U?$_List_node@U?$pair@$$CBKV?$shared_ptr@USPartyPlayerPosition@CPythonMiniMap@@@std@@@std@@PAX@std@@@std@@@std@@QAEPAU?$_List_node@U?$pair@$$CBKV?$shared_ptr@USPartyPlayerPosition@CPythonMiniMap@@@std@@@std@@PAX@2@XZ ; std::_Alloc_construct_ptr<std::allocator<std::_List_node<std::pair<unsigned long const ,std::shared_ptr<CPythonMiniMap::SPartyPlayerPosition> >,void *> > >::_Release
PUBLIC	?pointer_to@?$pointer_traits@PAU?$pair@$$CBKV?$shared_ptr@USPartyPlayerPosition@CPythonMiniMap@@@std@@@std@@@std@@SAPAU?$pair@$$CBKV?$shared_ptr@USPartyPlayerPosition@CPythonMiniMap@@@std@@@2@AAU32@@Z ; std::pointer_traits<std::pair<unsigned long const ,std::shared_ptr<CPythonMiniMap::SPartyPlayerPosition> > *>::pointer_to
PUBLIC	?pointer_to@?$pointer_traits@PAU?$pair@$$CBKUSObserver@CPythonMiniMap@@@std@@@std@@SAPAU?$pair@$$CBKUSObserver@CPythonMiniMap@@@2@AAU32@@Z ; std::pointer_traits<std::pair<unsigned long const ,CPythonMiniMap::SObserver> *>::pointer_to
PUBLIC	??$_Try_emplace@V?$basic_string@DU?$char_traits@D@std@@V?$allocator@D@2@@std@@$$V@?$map@V?$basic_string@DU?$char_traits@D@std@@V?$allocator@D@2@@std@@V?$vector@V?$basic_string@DU?$char_traits@D@std@@V?$allocator@D@2@@std@@V?$allocator@V?$basic_string@DU?$char_traits@D@std@@V?$allocator@D@2@@std@@@2@@2@U?$less@V?$basic_string@DU?$char_traits@D@std@@V?$allocator@D@2@@std@@@2@V?$allocator@U?$pair@$$CBV?$basic_string@DU?$char_traits@D@std@@V?$allocator@D@2@@std@@V?$vector@V?$basic_string@DU?$char_traits@D@std@@V?$allocator@D@2@@std@@V?$allocator@V?$basic_string@DU?$char_traits@D@std@@V?$allocator@D@2@@std@@@2@@2@@std@@@2@@std@@AAE?AU?$pair@PAU?$_Tree_node@U?$pair@$$CBV?$basic_string@DU?$char_traits@D@std@@V?$allocator@D@2@@std@@V?$vector@V?$basic_string@DU?$char_traits@D@std@@V?$allocator@D@2@@std@@V?$allocator@V?$basic_string@DU?$char_traits@D@std@@V?$allocator@D@2@@std@@@2@@2@@std@@PAX@std@@_N@1@$$QAV?$basic_string@DU?$char_traits@D@std@@V?$allocator@D@2@@1@@Z ; std::map<std::basic_string<char,std::char_traits<char>,std::allocator<char> >,std::vector<std::basic_string<char,std::char_traits<char>,std::allocator<char> >,std::allocator<std::basic_string<char,std::char_traits<char>,std::allocator<char> > > >,std::less<std::basic_string<char,std::char_traits<char>,std::allocator<char> > >,std::allocator<std::pair<std::basic_string<char,std::char_traits<char>,std::allocator<char> > const ,std::vector<std::basic_string<char,std::char_traits<char>,std::allocator<char> >,std::allocator<std::basic_string<char,std::char_traits<char>,std::allocator<char> > > > > > >::_Try_emplace<std::basic_string<char,std::char_traits<char>,std::allocator<char> > >
PUBLIC	??$?0$$V@?$_Compressed_pair@V?$allocator@USMarkPosition@CPythonMiniMap@@@std@@V?$_Vector_val@U?$_Simple_types@USMarkPosition@CPythonMiniMap@@@std@@@2@$00@std@@QAE@U_Zero_then_variadic_args_t@1@@Z ; std::_Compressed_pair<std::allocator<CPythonMiniMap::SMarkPosition>,std::_Vector_val<std::_Simple_types<CPythonMiniMap::SMarkPosition> >,1>::_Compressed_pair<std::allocator<CPythonMiniMap::SMarkPosition>,std::_Vector_val<std::_Simple_types<CPythonMiniMap::SMarkPosition> >,1><>
PUBLIC	??$_Emplace_one_at_back@ABUSMarkPosition@CPythonMiniMap@@@?$vector@USMarkPosition@CPythonMiniMap@@V?$allocator@USMarkPosition@CPythonMiniMap@@@std@@@std@@AAEAAUSMarkPosition@CPythonMiniMap@@ABU23@@Z ; std::vector<CPythonMiniMap::SMarkPosition,std::allocator<CPythonMiniMap::SMarkPosition> >::_Emplace_one_at_back<CPythonMiniMap::SMarkPosition const &>
PUBLIC	??$_Destroy_range@V?$allocator@USMarkPosition@CPythonMiniMap@@@std@@@std@@YAXPAUSMarkPosition@CPythonMiniMap@@QAU12@AAV?$allocator@USMarkPosition@CPythonMiniMap@@@0@@Z ; std::_Destroy_range<std::allocator<CPythonMiniMap::SMarkPosition> >
PUBLIC	??$addressof@V?$_Vector_val@U?$_Simple_types@USMarkPosition@CPythonMiniMap@@@std@@@std@@@std@@YAPAV?$_Vector_val@U?$_Simple_types@USMarkPosition@CPythonMiniMap@@@std@@@0@AAV10@@Z ; std::addressof<std::_Vector_val<std::_Simple_types<CPythonMiniMap::SMarkPosition> > >
PUBLIC	??$_Erase_head@V?$allocator@U?$_Tree_node@U?$pair@$$CBKUSObserver@CPythonMiniMap@@@std@@PAX@std@@@std@@@?$_Tree_val@U?$_Tree_simple_types@U?$pair@$$CBKUSObserver@CPythonMiniMap@@@std@@@std@@@std@@QAEXAAV?$allocator@U?$_Tree_node@U?$pair@$$CBKUSObserver@CPythonMiniMap@@@std@@PAX@std@@@1@@Z ; std::_Tree_val<std::_Tree_simple_types<std::pair<unsigned long const ,CPythonMiniMap::SObserver> > >::_Erase_head<std::allocator<std::_Tree_node<std::pair<unsigned long const ,CPythonMiniMap::SObserver>,void *> > >
