; Listing generated by Microsoft (R) Optimizing Compiler Version 19.44.35219.0 

	TITLE	c:\anka2project\anka2project\source\binary\vs_files\userinterface\release\pythonrendertargetmodule.obj
	.686P
	.XMM
	include listing.inc
	.model	flat

INCLUDELIB OLDNAMES

PUBLIC	??_C@_0O@HOPGOEEN@SetVisibility@		; `string'
PUBLIC	??_C@_0M@OOJEEMHJ@SelectModel@			; `string'
PUBLIC	??_C@_08CPFKDPFN@SetMount@			; `string'
PUBLIC	??_C@_0O@BFHAFDEO@SetBackground@		; `string'
PUBLIC	??_C@_0O@HKCKKFMF@SetModelV3Eye@		; `string'
PUBLIC	??_C@_0L@FBNCPECP@ResetModel@			; `string'
PUBLIC	??_C@_0N@NBOAENCH@GetFreeIndex@			; `string'
PUBLIC	??_C@_0BB@MAPNPDDG@SetModelV3Target@		; `string'
PUBLIC	??_C@_09BPLKFLCD@AddAffect@			; `string'
PUBLIC	??_C@_0P@MMIHFJEA@SetModelRender@		; `string'
PUBLIC	??_C@_0M@CMCDEKIM@ClearAffect@			; `string'
PUBLIC	??_C@_0N@KOCLGOMA@RemoveAffect@			; `string'
PUBLIC	??_C@_04LLODKBCK@Zoom@				; `string'
PUBLIC	??_C@_06JMGCGGJP@IsShow@			; `string'
PUBLIC	??_C@_0BG@OOAGALNL@RotateEyeAroundTarget@	; `string'
PUBLIC	??_C@_07IKHHFBOO@SetZoom@			; `string'
PUBLIC	??_C@_0N@IMGDPIOP@renderTarget@			; `string'
EXTRN	?RotateEyeAroundTarget@CRenderTarget@@QAEXMM@Z:PROC ; CRenderTarget::RotateEyeAroundTarget
EXTRN	?SetScale@CRenderTarget@@QAEXM@Z:PROC		; CRenderTarget::SetScale
EXTRN	?SetZoom@CRenderTarget@@QAEX_N@Z:PROC		; CRenderTarget::SetZoom
EXTRN	?ResetModel@CRenderTarget@@QAEXXZ:PROC		; CRenderTarget::ResetModel
EXTRN	?SetModelV3Eye@CRenderTarget@@QAEXMMM@Z:PROC	; CRenderTarget::SetModelV3Eye
EXTRN	?SetModelV3Target@CRenderTarget@@QAEXMMM@Z:PROC	; CRenderTarget::SetModelV3Target
EXTRN	?Zoom@CRenderTarget@@QAEXM@Z:PROC		; CRenderTarget::Zoom
EXTRN	?GetRenderTarget@CRenderTargetManager@@QAE?AV?$shared_ptr@VCRenderTarget@@@std@@H@Z:PROC ; CRenderTargetManager::GetRenderTarget
EXTRN	?SelectModel@CRenderTarget@@QAEXH_N@Z:PROC	; CRenderTarget::SelectModel
EXTRN	?CreateBackground@CRenderTarget@@QAE_NPBDKK@Z:PROC ; CRenderTarget::CreateBackground
;	COMDAT ?s_methods@?1??initRenderTarget@@YAXXZ@4PAUPyMethodDef@@A
_DATA	SEGMENT
?s_methods@?1??initRenderTarget@@YAXXZ@4PAUPyMethodDef@@A DD FLAT:??_C@_0M@OOJEEMHJ@SelectModel@ ; `initRenderTarget'::`2'::s_methods
	DD	FLAT:?renderTargetSelectModel@@YAPAU_object@@PAU1@0@Z
	DD	01H
	ORG $+4
	DD	FLAT:??_C@_0O@HOPGOEEN@SetVisibility@
	DD	FLAT:?renderTargetSetVisibility@@YAPAU_object@@PAU1@0@Z
	DD	01H
	ORG $+4
	DD	FLAT:??_C@_0O@BFHAFDEO@SetBackground@
	DD	FLAT:?renderTargetSetBackground@@YAPAU_object@@PAU1@0@Z
	DD	01H
	ORG $+4
	DD	FLAT:??_C@_08CNNBONE@SetArmor@
	DD	FLAT:?renderTargetSetArmor@@YAPAU_object@@PAU1@0@Z
	DD	01H
	ORG $+4
	DD	FLAT:??_C@_09LJGLIMMG@SetWeapon@
	DD	FLAT:?renderTargetSetWeapon@@YAPAU_object@@PAU1@0@Z
	DD	01H
	ORG $+4
	DD	FLAT:??_C@_07LJFPJABD@SetHair@
	DD	FLAT:?renderTargetSetHair@@YAPAU_object@@PAU1@0@Z
	DD	01H
	ORG $+4
	DD	FLAT:??_C@_0M@GNIHGJGG@SetRotation@
	DD	FLAT:?renderTargetSetRotation@@YAPAU_object@@PAU1@0@Z
	DD	01H
	ORG $+4
	DD	FLAT:??_C@_07BGFCDLKJ@SetAcce@
	DD	FLAT:?renderTargetSetAcce@@YAPAU_object@@PAU1@0@Z
	DD	01H
	ORG $+4
	DD	FLAT:??_C@_08CPFKDPFN@SetMount@
	DD	FLAT:?renderTargetSetMount@@YAPAU_object@@PAU1@0@Z
	DD	01H
	ORG $+4
	DD	FLAT:??_C@_0L@FBNCPECP@ResetModel@
	DD	FLAT:?renderTargetResetModel@@YAPAU_object@@PAU1@0@Z
	DD	01H
	ORG $+4
	DD	FLAT:??_C@_07BDCAJABG@Destroy@
	DD	FLAT:?renderTargetDestroy@@YAPAU_object@@PAU1@0@Z
	DD	01H
	ORG $+4
	DD	FLAT:??_C@_0O@HKCKKFMF@SetModelV3Eye@
	DD	FLAT:?renderSetModelV3Eye@@YAPAU_object@@PAU1@0@Z
	DD	01H
	ORG $+4
	DD	FLAT:??_C@_0BB@MAPNPDDG@SetModelV3Target@
	DD	FLAT:?renderSetModelV3Target@@YAPAU_object@@PAU1@0@Z
	DD	01H
	ORG $+4
	DD	FLAT:??_C@_0N@NBOAENCH@GetFreeIndex@
	DD	FLAT:?renderGetFreeIndex@@YAPAU_object@@PAU1@0@Z
	DD	01H
	ORG $+4
	DD	FLAT:??_C@_0P@MMIHFJEA@SetModelRender@
	DD	FLAT:?renderSetModelRender@@YAPAU_object@@PAU1@0@Z
	DD	01H
	ORG $+4
	DD	FLAT:??_C@_09BPLKFLCD@AddAffect@
	DD	FLAT:?renderAddAffect@@YAPAU_object@@PAU1@0@Z
	DD	01H
	ORG $+4
	DD	FLAT:??_C@_0N@KOCLGOMA@RemoveAffect@
	DD	FLAT:?renderRemoveAffect@@YAPAU_object@@PAU1@0@Z
	DD	01H
	ORG $+4
	DD	FLAT:??_C@_0M@CMCDEKIM@ClearAffect@
	DD	FLAT:?renderClearAffect@@YAPAU_object@@PAU1@0@Z
	DD	01H
	ORG $+4
	DD	FLAT:??_C@_06JMGCGGJP@IsShow@
	DD	FLAT:?renderIsShow@@YAPAU_object@@PAU1@0@Z
	DD	01H
	ORG $+4
	DD	FLAT:??_C@_04LLODKBCK@Zoom@
	DD	FLAT:?renderZoomCamera@@YAPAU_object@@PAU1@0@Z
	DD	01H
	ORG $+4
	DD	FLAT:??_C@_07IKHHFBOO@SetZoom@
	DD	FLAT:?renderSetZoom@@YAPAU_object@@PAU1@0@Z
	DD	01H
	ORG $+4
	DD	FLAT:??_C@_08FMFAIGAB@SetScale@
	DD	FLAT:?renderSetScale@@YAPAU_object@@PAU1@0@Z
	DD	01H
	ORG $+4
	DD	FLAT:??_C@_0BG@OOAGALNL@RotateEyeAroundTarget@
	DD	FLAT:?renderRotateEyeAroundTarget@@YAPAU_object@@PAU1@0@Z
	DD	01H
	ORG $+4
	DD	00H
	DD	00H
	DD	00H
	ORG $+4
_DATA	ENDS
;	COMDAT ??_C@_0N@IMGDPIOP@renderTarget@
CONST	SEGMENT
??_C@_0N@IMGDPIOP@renderTarget@ DB 'renderTarget', 00H	; `string'
CONST	ENDS
;	COMDAT ??_C@_07IKHHFBOO@SetZoom@
CONST	SEGMENT
??_C@_07IKHHFBOO@SetZoom@ DB 'SetZoom', 00H		; `string'
CONST	ENDS
;	COMDAT ??_C@_0BG@OOAGALNL@RotateEyeAroundTarget@
CONST	SEGMENT
??_C@_0BG@OOAGALNL@RotateEyeAroundTarget@ DB 'RotateEyeAroundTarget', 00H ; `string'
CONST	ENDS
;	COMDAT ??_C@_06JMGCGGJP@IsShow@
CONST	SEGMENT
??_C@_06JMGCGGJP@IsShow@ DB 'IsShow', 00H		; `string'
CONST	ENDS
;	COMDAT ??_C@_04LLODKBCK@Zoom@
CONST	SEGMENT
??_C@_04LLODKBCK@Zoom@ DB 'Zoom', 00H			; `string'
CONST	ENDS
;	COMDAT ??_C@_0N@KOCLGOMA@RemoveAffect@
CONST	SEGMENT
??_C@_0N@KOCLGOMA@RemoveAffect@ DB 'RemoveAffect', 00H	; `string'
CONST	ENDS
;	COMDAT ??_C@_0M@CMCDEKIM@ClearAffect@
CONST	SEGMENT
??_C@_0M@CMCDEKIM@ClearAffect@ DB 'ClearAffect', 00H	; `string'
CONST	ENDS
;	COMDAT ??_C@_0P@MMIHFJEA@SetModelRender@
CONST	SEGMENT
??_C@_0P@MMIHFJEA@SetModelRender@ DB 'SetModelRender', 00H ; `string'
CONST	ENDS
;	COMDAT ??_C@_09BPLKFLCD@AddAffect@
CONST	SEGMENT
??_C@_09BPLKFLCD@AddAffect@ DB 'AddAffect', 00H		; `string'
CONST	ENDS
;	COMDAT ??_C@_0BB@MAPNPDDG@SetModelV3Target@
CONST	SEGMENT
??_C@_0BB@MAPNPDDG@SetModelV3Target@ DB 'SetModelV3Target', 00H ; `string'
CONST	ENDS
;	COMDAT ??_C@_0N@NBOAENCH@GetFreeIndex@
CONST	SEGMENT
??_C@_0N@NBOAENCH@GetFreeIndex@ DB 'GetFreeIndex', 00H	; `string'
CONST	ENDS
;	COMDAT ??_C@_0L@FBNCPECP@ResetModel@
CONST	SEGMENT
??_C@_0L@FBNCPECP@ResetModel@ DB 'ResetModel', 00H	; `string'
CONST	ENDS
;	COMDAT ??_C@_0O@HKCKKFMF@SetModelV3Eye@
CONST	SEGMENT
??_C@_0O@HKCKKFMF@SetModelV3Eye@ DB 'SetModelV3Eye', 00H ; `string'
CONST	ENDS
;	COMDAT ??_C@_0O@BFHAFDEO@SetBackground@
CONST	SEGMENT
??_C@_0O@BFHAFDEO@SetBackground@ DB 'SetBackground', 00H ; `string'
CONST	ENDS
;	COMDAT ??_C@_08CPFKDPFN@SetMount@
CONST	SEGMENT
??_C@_08CPFKDPFN@SetMount@ DB 'SetMount', 00H		; `string'
CONST	ENDS
;	COMDAT ??_C@_0M@OOJEEMHJ@SelectModel@
CONST	SEGMENT
??_C@_0M@OOJEEMHJ@SelectModel@ DB 'SelectModel', 00H	; `string'
CONST	ENDS
;	COMDAT ??_C@_0O@HOPGOEEN@SetVisibility@
CONST	SEGMENT
??_C@_0O@HOPGOEEN@SetVisibility@ DB 'SetVisibility', 00H ; `string'
PUBLIC	?get@?$_Ptr_base@VCRenderTarget@@@std@@IBEPAVCRenderTarget@@XZ ; std::_Ptr_base<CRenderTarget>::get
PUBLIC	?_Decref@?$_Ptr_base@VCRenderTarget@@@std@@IAEXXZ ; std::_Ptr_base<CRenderTarget>::_Decref
PUBLIC	??C?$unique_ptr@VCInstanceBase@@U?$default_delete@VCInstanceBase@@@std@@@std@@QBEPAVCInstanceBase@@XZ ; std::unique_ptr<CInstanceBase,std::default_delete<CInstanceBase> >::operator->
PUBLIC	??B?$unique_ptr@VCInstanceBase@@U?$default_delete@VCInstanceBase@@@std@@@std@@QBE_NXZ ; std::unique_ptr<CInstanceBase,std::default_delete<CInstanceBase> >::operator bool
PUBLIC	??1?$shared_ptr@VCRenderTarget@@@std@@QAE@XZ	; std::shared_ptr<CRenderTarget>::~shared_ptr<CRenderTarget>
PUBLIC	??B?$shared_ptr@VCRenderTarget@@@std@@QBE_NXZ	; std::shared_ptr<CRenderTarget>::operator bool
PUBLIC	??$?CVCRenderTarget@@$0A@@?$shared_ptr@VCRenderTarget@@@std@@QBEPAVCRenderTarget@@XZ ; std::shared_ptr<CRenderTarget>::operator-><CRenderTarget,0>
PUBLIC	?initRenderTarget@@YAXXZ			; initRenderTarget
PUBLIC	?renderSetZoom@@YAPAU_object@@PAU1@0@Z		; renderSetZoom
PUBLIC	?renderIsShow@@YAPAU_object@@PAU1@0@Z		; renderIsShow
PUBLIC	?renderSetScale@@YAPAU_object@@PAU1@0@Z		; renderSetScale
PUBLIC	?renderRotateEyeAroundTarget@@YAPAU_object@@PAU1@0@Z ; renderRotateEyeAroundTarget
PUBLIC	?renderZoomCamera@@YAPAU_object@@PAU1@0@Z	; renderZoomCamera
PUBLIC	?renderClearAffect@@YAPAU_object@@PAU1@0@Z	; renderClearAffect
PUBLIC	?renderRemoveAffect@@YAPAU_object@@PAU1@0@Z	; renderRemoveAffect
PUBLIC	?renderAddAffect@@YAPAU_object@@PAU1@0@Z	; renderAddAffect
PUBLIC	?renderSetModelRender@@YAPAU_object@@PAU1@0@Z	; renderSetModelRender
PUBLIC	?renderGetFreeIndex@@YAPAU_object@@PAU1@0@Z	; renderGetFreeIndex
PUBLIC	?renderSetModelV3Target@@YAPAU_object@@PAU1@0@Z	; renderSetModelV3Target
PUBLIC	?renderSetModelV3Eye@@YAPAU_object@@PAU1@0@Z	; renderSetModelV3Eye
PUBLIC	?renderTargetDestroy@@YAPAU_object@@PAU1@0@Z	; renderTargetDestroy
PUBLIC	?renderTargetResetModel@@YAPAU_object@@PAU1@0@Z	; renderTargetResetModel
PUBLIC	?renderTargetSetBackground@@YAPAU_object@@PAU1@0@Z ; renderTargetSetBackground
PUBLIC	?renderTargetSetVisibility@@YAPAU_object@@PAU1@0@Z ; renderTargetSetVisibility
PUBLIC	?renderTargetSetRotation@@YAPAU_object@@PAU1@0@Z ; renderTargetSetRotation
PUBLIC	?renderTargetSetMount@@YAPAU_object@@PAU1@0@Z	; renderTargetSetMount
PUBLIC	?renderTargetSetAcce@@YAPAU_object@@PAU1@0@Z	; renderTargetSetAcce
PUBLIC	?renderTargetSetHair@@YAPAU_object@@PAU1@0@Z	; renderTargetSetHair
PUBLIC	?renderTargetSetWeapon@@YAPAU_object@@PAU1@0@Z	; renderTargetSetWeapon
PUBLIC	?renderTargetSetArmor@@YAPAU_object@@PAU1@0@Z	; renderTargetSetArmor
PUBLIC	?renderTargetSelectModel@@YAPAU_object@@PAU1@0@Z ; renderTargetSelectModel
PUBLIC	?GetCameraZoomSpeed@CPythonApplication@@QAEMXZ	; CPythonApplication::GetCameraZoomSpeed
PUBLIC	?IsShow@CRenderTarget@@QAE_NXZ			; CRenderTarget::IsShow
PUBLIC	?SetModelStatus@CRenderTarget@@QAEX_N@Z		; CRenderTarget::SetModelStatus
PUBLIC	?GetModel@CRenderTarget@@QAEAAV?$unique_ptr@VCInstanceBase@@U?$default_delete@VCInstanceBase@@@std@@@std@@XZ ; CRenderTarget::GetModel
PUBLIC	?IsReady@CRenderTarget@@QAE_NXZ			; CRenderTarget::IsReady
PUBLIC	?SetRotation@CRenderTarget@@QAEX_N@Z		; CRenderTarget::SetRotation
PUBLIC	?SetVisibility@CRenderTarget@@QAEX_N@Z		; CRenderTarget::SetVisibility
?vecDropSoundFileName@@3V?$array@U?$pair@KV?$basic_string@DU?$char_traits@D@std@@V?$allocator@D@2@@std@@@std@@$04@std@@B DB 08cH DUP (?) ; vecDropSoundFileName
?vecEffectList@@3V?$vector@V?$tuple@IPBDPBD_N@std@@V?$allocator@V?$tuple@IPBDPBD_N@std@@@2@@std@@B DB 0cH DUP (?) ; vecEffectList
?characterNameColors@@3V?$map@EV?$array@E$02@std@@U?$less@E@2@V?$allocator@U?$pair@$$CBEV?$array@E$02@std@@@std@@@2@@std@@B DQ 01H DUP (?) ; characterNameColors
?characterTitleColors@@3V?$map@EV?$array@E$02@std@@U?$less@E@2@V?$allocator@U?$pair@$$CBEV?$array@E$02@std@@@std@@@2@@std@@B DQ 01H DUP (?) ; characterTitleColors
?characterTitleSystemColors@@3V?$map@EV?$array@E$02@std@@U?$less@E@2@V?$allocator@U?$pair@$$CBEV?$array@E$02@std@@@std@@@2@@std@@B DQ 01H DUP (?) ; characterTitleSystemColors
?emotionIcons@@3V?$map@EPBDU?$less@E@std@@V?$allocator@U?$pair@$$CBEPBD@std@@@2@@std@@B DQ 01H DUP (?) ; emotionIcons
?skillIndexes@@3V?$map@EV?$map@EV?$vector@EV?$allocator@E@std@@@std@@U?$less@E@2@V?$allocator@U?$pair@$$CBEV?$vector@EV?$allocator@E@std@@@std@@@std@@@2@@std@@U?$less@E@2@V?$allocator@U?$pair@$$CBEV?$map@EV?$vector@EV?$allocator@E@std@@@std@@U?$less@E@2@V?$allocator@U?$pair@$$CBEV?$vector@EV?$allocator@E@std@@@std@@@std@@@2@@std@@@std@@@2@@std@@B DQ 01H DUP (?) ; skillIndexes
?guildSkills@@3V?$map@V?$basic_string@DU?$char_traits@D@std@@V?$allocator@D@2@@std@@V?$vector@EV?$allocator@E@std@@@2@U?$less@V?$basic_string@DU?$char_traits@D@std@@V?$allocator@D@2@@std@@@2@V?$allocator@U?$pair@$$CBV?$basic_string@DU?$char_traits@D@std@@V?$allocator@D@2@@std@@V?$vector@EV?$allocator@E@std@@@2@@std@@@2@@std@@B DQ 01H DUP (?) ; guildSkills
_BSS	ENDS
;	COMDAT xdata$x
xdata$x	SEGMENT
__ehfuncinfo$??__EvecUseSoundFileName@@YAXXZ DQ 00000000619930522r ; 1.2944e-313
	DD	FLAT:__unwindtable$??__EvecUseSoundFileName@@YAXXZ
	DQ	00000000000000000r		; 0
	DQ	00000000000000000r		; 0
	DQ	00000000100000000r		; 2.122e-314
__unwindtable$??__EvecUseSoundFileName@@YAXXZ DD 0ffffffffH
	DD	FLAT:__unwindfunclet$??__EvecUseSoundFileName@@YAXXZ$0
	DD	00H
	DD	FLAT:__unwindfunclet$??__EvecUseSoundFileName@@YAXXZ$1
	DD	01H
	DD	FLAT:__unwindfunclet$??__EvecUseSoundFileName@@YAXXZ$2
	DD	02H
	DD	FLAT:__unwindfunclet$??__EvecUseSoundFileName@@YAXXZ$3
	DD	03H
	DD	FLAT:__unwindfunclet$??__EvecUseSoundFileName@@YAXXZ$4
	DD	04H
	DD	FLAT:__unwindfunclet$??__EvecUseSoundFileName@@YAXXZ$5
xdata$x	ENDS
;	COMDAT xdata$x
xdata$x	SEGMENT
__ehfuncinfo$??__FvecUseSoundFileName@@YAXXZ DQ 00000000119930522r ; 2.33398e-314
	DD	FLAT:__unwindtable$??__FvecUseSoundFileName@@YAXXZ
	DQ	00000000000000000r		; 0
	DQ	00000000000000000r		; 0
	DQ	00000000100000000r		; 2.122e-314
__unwindtable$??__FvecUseSoundFileName@@YAXXZ DD 0ffffffffH
	DD	FLAT:___std_terminate
xdata$x	ENDS
;	COMDAT xdata$x
xdata$x	SEGMENT
__ehfuncinfo$??__EvecDropSoundFileName@@YAXXZ DQ 00000000419930522r ; 8.69997e-314
	DD	FLAT:__unwindtable$??__EvecDropSoundFileName@@YAXXZ
	DQ	00000000000000000r		; 0
	DQ	00000000000000000r		; 0
	DQ	00000000100000000r		; 2.122e-314
__unwindtable$??__EvecDropSoundFileName@@YAXXZ DD 0ffffffffH
	DD	FLAT:__unwindfunclet$??__EvecDropSoundFileName@@YAXXZ$0
	DD	00H
	DD	FLAT:__unwindfunclet$??__EvecDropSoundFileName@@YAXXZ$1
	DD	01H
	DD	FLAT:__unwindfunclet$??__EvecDropSoundFileName@@YAXXZ$2
	DD	02H
	DD	FLAT:__unwindfunclet$??__EvecDropSoundFileName@@YAXXZ$3
xdata$x	ENDS
;	COMDAT xdata$x
xdata$x	SEGMENT
__ehfuncinfo$??__FvecDropSoundFileName@@YAXXZ DQ 00000000119930522r ; 2.33398e-314
	DD	FLAT:__unwindtable$??__FvecDropSoundFileName@@YAXXZ
	DQ	00000000000000000r		; 0
	DQ	00000000000000000r		; 0
	DQ	00000000100000000r		; 2.122e-314
__unwindtable$??__FvecDropSoundFileName@@YAXXZ DD 0ffffffffH
	DD	FLAT:___std_terminate
xdata$x	ENDS
;	COMDAT xdata$x
xdata$x	SEGMENT
__ehfuncinfo$??__EskillIndexes@@YAXXZ DQ 00000002819930522r ; 8.50918e-313
	DD	FLAT:__unwindtable$??__EskillIndexes@@YAXXZ
	DQ	00000000000000000r		; 0
	DQ	00000000000000000r		; 0
	DQ	00000000100000000r		; 2.122e-314
	ORG $+4
__unwindtable$??__EskillIndexes@@YAXXZ DD 0ffffffffH
	DD	FLAT:__unwindfunclet$??__EskillIndexes@@YAXXZ$0
	DD	00H
	DD	FLAT:__unwindfunclet$??__EskillIndexes@@YAXXZ$1
	DD	01H
	DD	FLAT:__unwindfunclet$??__EskillIndexes@@YAXXZ$2
	DD	00H
	DD	FLAT:__unwindfunclet$??__EskillIndexes@@YAXXZ$2
	DD	03H
	DD	FLAT:__unwindfunclet$??__EskillIndexes@@YAXXZ$4
	DD	04H
	DD	FLAT:__unwindfunclet$??__EskillIndexes@@YAXXZ$5
	DD	05H
	DD	FLAT:__unwindfunclet$??__EskillIndexes@@YAXXZ$6
	DD	06H
	DD	FLAT:__unwindfunclet$??__EskillIndexes@@YAXXZ$7
	DD	07H
	DD	FLAT:__unwindfunclet$??__EskillIndexes@@YAXXZ$8
	DD	08H
	DD	FLAT:__unwindfunclet$??__EskillIndexes@@YAXXZ$9
	DD	07H
	DD	FLAT:__unwindfunclet$??__EskillIndexes@@YAXXZ$9
	DD	0aH
	DD	FLAT:__unwindfunclet$??__EskillIndexes@@YAXXZ$11
	DD	0bH
	DD	FLAT:__unwindfunclet$??__EskillIndexes@@YAXXZ$12
	DD	0cH
	DD	FLAT:__unwindfunclet$??__EskillIndexes@@YAXXZ$13
	DD	0dH
	DD	FLAT:__unwindfunclet$??__EskillIndexes@@YAXXZ$14
	DD	0eH
	DD	FLAT:__unwindfunclet$??__EskillIndexes@@YAXXZ$15
	DD	0fH
	DD	FLAT:__unwindfunclet$??__EskillIndexes@@YAXXZ$16
	DD	0eH
	DD	FLAT:__unwindfunclet$??__EskillIndexes@@YAXXZ$16
	DD	011H
	DD	FLAT:__unwindfunclet$??__EskillIndexes@@YAXXZ$18
	DD	012H
	DD	FLAT:__unwindfunclet$??__EskillIndexes@@YAXXZ$19
	DD	013H
	DD	FLAT:__unwindfunclet$??__EskillIndexes@@YAXXZ$20
	DD	014H
	DD	FLAT:__unwindfunclet$??__EskillIndexes@@YAXXZ$21
	DD	015H
	DD	FLAT:__unwindfunclet$??__EskillIndexes@@YAXXZ$22
	DD	016H
	DD	FLAT:__unwindfunclet$??__EskillIndexes@@YAXXZ$23
	DD	015H
	DD	FLAT:__unwindfunclet$??__EskillIndexes@@YAXXZ$23
	DD	018H
	DD	FLAT:__unwindfunclet$??__EskillIndexes@@YAXXZ$25
	DD	019H
	DD	FLAT:__unwindfunclet$??__EskillIndexes@@YAXXZ$26
	DD	05H
	DD	FLAT:__unwindfunclet$??__EskillIndexes@@YAXXZ$7
	DD	01bH
	DD	FLAT:__unwindfunclet$??__EskillIndexes@@YAXXZ$9
	DD	01cH
	DD	FLAT:__unwindfunclet$??__EskillIndexes@@YAXXZ$11
	DD	01dH
	DD	FLAT:__unwindfunclet$??__EskillIndexes@@YAXXZ$12
	DD	01eH
	DD	FLAT:__unwindfunclet$??__EskillIndexes@@YAXXZ$14
	DD	01fH
	DD	FLAT:__unwindfunclet$??__EskillIndexes@@YAXXZ$16
	DD	020H
	DD	FLAT:__unwindfunclet$??__EskillIndexes@@YAXXZ$18
	DD	021H
	DD	FLAT:__unwindfunclet$??__EskillIndexes@@YAXXZ$19
	DD	022H
	DD	FLAT:__unwindfunclet$??__EskillIndexes@@YAXXZ$21
	DD	023H
	DD	FLAT:__unwindfunclet$??__EskillIndexes@@YAXXZ$23
	DD	024H
	DD	FLAT:__unwindfunclet$??__EskillIndexes@@YAXXZ$25
	DD	025H
	DD	FLAT:__unwindfunclet$??__EskillIndexes@@YAXXZ$26
	DD	026H
	DD	FLAT:__unwindfunclet$??__EskillIndexes@@YAXXZ$28
xdata$x	ENDS
;	COMDAT xdata$x
xdata$x	SEGMENT
__ehfuncinfo$??__EguildSkills@@YAXXZ DQ 00000000a19930522r ; 2.14319e-313
	DD	FLAT:__unwindtable$??__EguildSkills@@YAXXZ
	DQ	00000000000000000r		; 0
	DQ	00000000000000000r		; 0
	DQ	00000000100000000r		; 2.122e-314
	ORG $+4
__unwindtable$??__EguildSkills@@YAXXZ DD 0ffffffffH
	DD	FLAT:__unwindfunclet$??__EguildSkills@@YAXXZ$0
	DD	00H
	DD	FLAT:__unwindfunclet$??__EguildSkills@@YAXXZ$1
	DD	01H
	DD	FLAT:__unwindfunclet$??__EguildSkills@@YAXXZ$10
	DD	01H
	DD	FLAT:__unwindfunclet$??__EguildSkills@@YAXXZ$2
	DD	03H
	DD	FLAT:__unwindfunclet$??__EguildSkills@@YAXXZ$3
	DD	04H
	DD	FLAT:__unwindfunclet$??__EguildSkills@@YAXXZ$4
	DD	05H
	DD	FLAT:__unwindfunclet$??__EguildSkills@@YAXXZ$16
	DD	01H
	DD	FLAT:__unwindfunclet$??__EguildSkills@@YAXXZ$3
	DD	07H
	DD	FLAT:__unwindfunclet$??__EguildSkills@@YAXXZ$4
	DD	08H
	DD	FLAT:__unwindfunclet$??__EguildSkills@@YAXXZ$6
xdata$x	ENDS
;	COMDAT xdata$x
xdata$x	SEGMENT
__ehfuncinfo$?renderTargetSelectModel@@YAPAU_object@@PAU1@0@Z DQ 00000000119930522r ; 2.33398e-314
	DD	FLAT:__unwindtable$?renderTargetSelectModel@@YAPAU_object@@PAU1@0@Z
	DQ	00000000000000000r		; 0
	DQ	00000000000000000r		; 0
	DQ	00000000100000000r		; 2.122e-314
__unwindtable$?renderTargetSelectModel@@YAPAU_object@@PAU1@0@Z DD 0ffffffffH
	DD	FLAT:__unwindfunclet$?renderTargetSelectModel@@YAPAU_object@@PAU1@0@Z$0
xdata$x	ENDS
;	COMDAT xdata$x
xdata$x	SEGMENT
__ehfuncinfo$?renderTargetSetArmor@@YAPAU_object@@PAU1@0@Z DQ 00000000119930522r ; 2.33398e-314
	DD	FLAT:__unwindtable$?renderTargetSetArmor@@YAPAU_object@@PAU1@0@Z
	DQ	00000000000000000r		; 0
	DQ	00000000000000000r		; 0
	DQ	00000000100000000r		; 2.122e-314
__unwindtable$?renderTargetSetArmor@@YAPAU_object@@PAU1@0@Z DD 0ffffffffH
	DD	FLAT:__unwindfunclet$?renderTargetSetArmor@@YAPAU_object@@PAU1@0@Z$0
xdata$x	ENDS
;	COMDAT xdata$x
xdata$x	SEGMENT
__ehfuncinfo$?renderTargetSetWeapon@@YAPAU_object@@PAU1@0@Z DQ 00000000119930522r ; 2.33398e-314
	DD	FLAT:__unwindtable$?renderTargetSetWeapon@@YAPAU_object@@PAU1@0@Z
	DQ	00000000000000000r		; 0
	DQ	00000000000000000r		; 0
	DQ	00000000100000000r		; 2.122e-314
__unwindtable$?renderTargetSetWeapon@@YAPAU_object@@PAU1@0@Z DD 0ffffffffH
	DD	FLAT:__unwindfunclet$?renderTargetSetWeapon@@YAPAU_object@@PAU1@0@Z$0
xdata$x	ENDS
;	COMDAT xdata$x
xdata$x	SEGMENT
__ehfuncinfo$?renderTargetSetHair@@YAPAU_object@@PAU1@0@Z DQ 00000000119930522r ; 2.33398e-314
	DD	FLAT:__unwindtable$?renderTargetSetHair@@YAPAU_object@@PAU1@0@Z
	DQ	00000000000000000r		; 0
	DQ	00000000000000000r		; 0
	DQ	00000000100000000r		; 2.122e-314
__unwindtable$?renderTargetSetHair@@YAPAU_object@@PAU1@0@Z DD 0ffffffffH
	DD	FLAT:__unwindfunclet$?renderTargetSetHair@@YAPAU_object@@PAU1@0@Z$0
xdata$x	ENDS
;	COMDAT xdata$x
xdata$x	SEGMENT
__ehfuncinfo$?renderTargetSetAcce@@YAPAU_object@@PAU1@0@Z DQ 00000000119930522r ; 2.33398e-314
	DD	FLAT:__unwindtable$?renderTargetSetAcce@@YAPAU_object@@PAU1@0@Z
	DQ	00000000000000000r		; 0
	DQ	00000000000000000r		; 0
	DQ	00000000100000000r		; 2.122e-314
__unwindtable$?renderTargetSetAcce@@YAPAU_object@@PAU1@0@Z DD 0ffffffffH
	DD	FLAT:__unwindfunclet$?renderTargetSetAcce@@YAPAU_object@@PAU1@0@Z$0
xdata$x	ENDS
;	COMDAT xdata$x
xdata$x	SEGMENT
__ehfuncinfo$?renderTargetSetMount@@YAPAU_object@@PAU1@0@Z DQ 00000000119930522r ; 2.33398e-314
	DD	FLAT:__unwindtable$?renderTargetSetMount@@YAPAU_object@@PAU1@0@Z
	DQ	00000000000000000r		; 0
	DQ	00000000000000000r		; 0
	DQ	00000000100000000r		; 2.122e-314
__unwindtable$?renderTargetSetMount@@YAPAU_object@@PAU1@0@Z DD 0ffffffffH
	DD	FLAT:__unwindfunclet$?renderTargetSetMount@@YAPAU_object@@PAU1@0@Z$0
xdata$x	ENDS
;	COMDAT xdata$x
xdata$x	SEGMENT
__ehfuncinfo$?renderTargetSetRotation@@YAPAU_object@@PAU1@0@Z DQ 00000000119930522r ; 2.33398e-314
	DD	FLAT:__unwindtable$?renderTargetSetRotation@@YAPAU_object@@PAU1@0@Z
	DQ	00000000000000000r		; 0
	DQ	00000000000000000r		; 0
	DQ	00000000100000000r		; 2.122e-314
__unwindtable$?renderTargetSetRotation@@YAPAU_object@@PAU1@0@Z DD 0ffffffffH
	DD	FLAT:__unwindfunclet$?renderTargetSetRotation@@YAPAU_object@@PAU1@0@Z$0
xdata$x	ENDS
;	COMDAT xdata$x
xdata$x	SEGMENT
__ehfuncinfo$?renderTargetSetVisibility@@YAPAU_object@@PAU1@0@Z DQ 00000000119930522r ; 2.33398e-314
	DD	FLAT:__unwindtable$?renderTargetSetVisibility@@YAPAU_object@@PAU1@0@Z
	DQ	00000000000000000r		; 0
	DQ	00000000000000000r		; 0
	DQ	00000000100000000r		; 2.122e-314
__unwindtable$?renderTargetSetVisibility@@YAPAU_object@@PAU1@0@Z DD 0ffffffffH
	DD	FLAT:__unwindfunclet$?renderTargetSetVisibility@@YAPAU_object@@PAU1@0@Z$0
xdata$x	ENDS
;	COMDAT xdata$x
xdata$x	SEGMENT
__ehfuncinfo$?renderTargetSetBackground@@YAPAU_object@@PAU1@0@Z DQ 00000000119930522r ; 2.33398e-314
	DD	FLAT:__unwindtable$?renderTargetSetBackground@@YAPAU_object@@PAU1@0@Z
	DQ	00000000000000000r		; 0
	DQ	00000000000000000r		; 0
	DQ	00000000100000000r		; 2.122e-314
__unwindtable$?renderTargetSetBackground@@YAPAU_object@@PAU1@0@Z DD 0ffffffffH
	DD	FLAT:__unwindfunclet$?renderTargetSetBackground@@YAPAU_object@@PAU1@0@Z$0
xdata$x	ENDS
;	COMDAT xdata$x
xdata$x	SEGMENT
__ehfuncinfo$?renderTargetResetModel@@YAPAU_object@@PAU1@0@Z DQ 00000000119930522r ; 2.33398e-314
	DD	FLAT:__unwindtable$?renderTargetResetModel@@YAPAU_object@@PAU1@0@Z
	DQ	00000000000000000r		; 0
	DQ	00000000000000000r		; 0
	DQ	00000000100000000r		; 2.122e-314
__unwindtable$?renderTargetResetModel@@YAPAU_object@@PAU1@0@Z DD 0ffffffffH
	DD	FLAT:__unwindfunclet$?renderTargetResetModel@@YAPAU_object@@PAU1@0@Z$0
xdata$x	ENDS
;	COMDAT xdata$x
xdata$x	SEGMENT
__ehfuncinfo$?renderSetModelV3Eye@@YAPAU_object@@PAU1@0@Z DQ 00000000119930522r ; 2.33398e-314
	DD	FLAT:__unwindtable$?renderSetModelV3Eye@@YAPAU_object@@PAU1@0@Z
	DQ	00000000000000000r		; 0
	DQ	00000000000000000r		; 0
	DQ	00000000100000000r		; 2.122e-314
__unwindtable$?renderSetModelV3Eye@@YAPAU_object@@PAU1@0@Z DD 0ffffffffH
	DD	FLAT:__unwindfunclet$?renderSetModelV3Eye@@YAPAU_object@@PAU1@0@Z$0
xdata$x	ENDS
;	COMDAT xdata$x
xdata$x	SEGMENT
__ehfuncinfo$?renderSetModelV3Target@@YAPAU_object@@PAU1@0@Z DQ 00000000119930522r ; 2.33398e-314
	DD	FLAT:__unwindtable$?renderSetModelV3Target@@YAPAU_object@@PAU1@0@Z
	DQ	00000000000000000r		; 0
	DQ	00000000000000000r		; 0
	DQ	00000000100000000r		; 2.122e-314
__unwindtable$?renderSetModelV3Target@@YAPAU_object@@PAU1@0@Z DD 0ffffffffH
	DD	FLAT:__unwindfunclet$?renderSetModelV3Target@@YAPAU_object@@PAU1@0@Z$0
xdata$x	ENDS
;	COMDAT xdata$x
xdata$x	SEGMENT
__ehfuncinfo$?renderSetModelRender@@YAPAU_object@@PAU1@0@Z DQ 00000000119930522r ; 2.33398e-314
	DD	FLAT:__unwindtable$?renderSetModelRender@@YAPAU_object@@PAU1@0@Z
	DQ	00000000000000000r		; 0
	DQ	00000000000000000r		; 0
	DQ	00000000100000000r		; 2.122e-314
__unwindtable$?renderSetModelRender@@YAPAU_object@@PAU1@0@Z DD 0ffffffffH
	DD	FLAT:__unwindfunclet$?renderSetModelRender@@YAPAU_object@@PAU1@0@Z$0
xdata$x	ENDS
;	COMDAT xdata$x
xdata$x	SEGMENT
__ehfuncinfo$?renderAddAffect@@YAPAU_object@@PAU1@0@Z DQ 00000000119930522r ; 2.33398e-314
	DD	FLAT:__unwindtable$?renderAddAffect@@YAPAU_object@@PAU1@0@Z
	DQ	00000000000000000r		; 0
	DQ	00000000000000000r		; 0
	DQ	00000000100000000r		; 2.122e-314
__unwindtable$?renderAddAffect@@YAPAU_object@@PAU1@0@Z DD 0ffffffffH
	DD	FLAT:__unwindfunclet$?renderAddAffect@@YAPAU_object@@PAU1@0@Z$0
xdata$x	ENDS
;	COMDAT xdata$x
xdata$x	SEGMENT
__ehfuncinfo$?renderRemoveAffect@@YAPAU_object@@PAU1@0@Z DQ 00000000119930522r ; 2.33398e-314
	DD	FLAT:__unwindtable$?renderRemoveAffect@@YAPAU_object@@PAU1@0@Z
	DQ	00000000000000000r		; 0
	DQ	00000000000000000r		; 0
	DQ	00000000100000000r		; 2.122e-314
__unwindtable$?renderRemoveAffect@@YAPAU_object@@PAU1@0@Z DD 0ffffffffH
	DD	FLAT:__unwindfunclet$?renderRemoveAffect@@YAPAU_object@@PAU1@0@Z$0
xdata$x	ENDS
;	COMDAT xdata$x
xdata$x	SEGMENT
__ehfuncinfo$?renderClearAffect@@YAPAU_object@@PAU1@0@Z DQ 00000000119930522r ; 2.33398e-314
	DD	FLAT:__unwindtable$?renderClearAffect@@YAPAU_object@@PAU1@0@Z
	DQ	00000000000000000r		; 0
	DQ	00000000000000000r		; 0
	DQ	00000000100000000r		; 2.122e-314
__unwindtable$?renderClearAffect@@YAPAU_object@@PAU1@0@Z DD 0ffffffffH
	DD	FLAT:__unwindfunclet$?renderClearAffect@@YAPAU_object@@PAU1@0@Z$0
xdata$x	ENDS
;	COMDAT xdata$x
xdata$x	SEGMENT
__ehfuncinfo$?renderZoomCamera@@YAPAU_object@@PAU1@0@Z DQ 00000000119930522r ; 2.33398e-314
	DD	FLAT:__unwindtable$?renderZoomCamera@@YAPAU_object@@PAU1@0@Z
	DQ	00000000000000000r		; 0
	DQ	00000000000000000r		; 0
	DQ	00000000100000000r		; 2.122e-314
__unwindtable$?renderZoomCamera@@YAPAU_object@@PAU1@0@Z DD 0ffffffffH
	DD	FLAT:__unwindfunclet$?renderZoomCamera@@YAPAU_object@@PAU1@0@Z$0
xdata$x	ENDS
;	COMDAT xdata$x
xdata$x	SEGMENT
__ehfuncinfo$?renderRotateEyeAroundTarget@@YAPAU_object@@PAU1@0@Z DQ 00000000119930522r ; 2.33398e-314
	DD	FLAT:__unwindtable$?renderRotateEyeAroundTarget@@YAPAU_object@@PAU1@0@Z
	DQ	00000000000000000r		; 0
	DQ	00000000000000000r		; 0
	DQ	00000000100000000r		; 2.122e-314
__unwindtable$?renderRotateEyeAroundTarget@@YAPAU_object@@PAU1@0@Z DD 0ffffffffH
	DD	FLAT:__unwindfunclet$?renderRotateEyeAroundTarget@@YAPAU_object@@PAU1@0@Z$0
xdata$x	ENDS
;	COMDAT xdata$x
xdata$x	SEGMENT
__ehfuncinfo$?renderSetScale@@YAPAU_object@@PAU1@0@Z DQ 00000000119930522r ; 2.33398e-314
	DD	FLAT:__unwindtable$?renderSetScale@@YAPAU_object@@PAU1@0@Z
	DQ	00000000000000000r		; 0
	DQ	00000000000000000r		; 0
	DQ	00000000100000000r		; 2.122e-314
__unwindtable$?renderSetScale@@YAPAU_object@@PAU1@0@Z DD 0ffffffffH
	DD	FLAT:__unwindfunclet$?renderSetScale@@YAPAU_object@@PAU1@0@Z$0
xdata$x	ENDS
;	COMDAT xdata$x
xdata$x	SEGMENT
__ehfuncinfo$?renderSetZoom@@YAPAU_object@@PAU1@0@Z DQ 00000000119930522r ; 2.33398e-314
	DD	FLAT:__unwindtable$?renderSetZoom@@YAPAU_object@@PAU1@0@Z
	DQ	00000000000000000r		; 0
	DQ	00000000000000000r		; 0
	DQ	00000000100000000r		; 2.122e-314
__unwindtable$?renderSetZoom@@YAPAU_object@@PAU1@0@Z DD 0ffffffffH
	DD	FLAT:__unwindfunclet$?renderSetZoom@@YAPAU_object@@PAU1@0@Z$0
	ORG $+4
?vecUseSoundFileName@@3V?$array@U?$pair@KV?$basic_string@DU?$char_traits@D@std@@V?$allocator@D@2@@std@@@std@@$06@std@@B DQ 00000000000000001r ; 4.94066e-324 ; vecUseSoundFileName
	DQ	00000000000000000r		; 0
	DQ	00000000000000000r		; 0
	DQ	00000000000000000r		; 0
	DQ	00000000000000000r		; 0
	DQ	00000000000000000r		; 0
	DQ	00000000000000000r		; 0
	DQ	00000000000000000r		; 0
	DQ	00000000000000000r		; 0
	DQ	00000000000000000r		; 0
	DQ	00000000000000000r		; 0
	DQ	00000000000000000r		; 0
	DQ	00000000000000000r		; 0
	DQ	00000000000000000r		; 0
	DQ	00000000000000000r		; 0
	DQ	00000000000000000r		; 0
	DQ	00000000000000000r		; 0
	DQ	00000000000000000r		; 0
	DQ	00000000000000000r		; 0
	DQ	00000000000000000r		; 0
	DQ	00000000000000000r		; 0
	DQ	00000000000000000r		; 0
	DQ	00000000000000000r		; 0
	DQ	00000000000000000r		; 0
	DD	00H
?vecUseSoundFileName$initializer$@@3P6AXXZA DD FLAT:??__EvecUseSoundFileName@@YAXXZ ; vecUseSoundFileName$initializer$
?vecDropSoundFileName$initializer$@@3P6AXXZA DD FLAT:??__EvecDropSoundFileName@@YAXXZ ; vecDropSoundFileName$initializer$
?vecEffectList$initializer$@@3P6AXXZA DD FLAT:??__EvecEffectList@@YAXXZ ; vecEffectList$initializer$
?characterNameColors$initializer$@@3P6AXXZA DD FLAT:??__EcharacterNameColors@@YAXXZ ; characterNameColors$initializer$
?characterTitleColors$initializer$@@3P6AXXZA DD FLAT:??__EcharacterTitleColors@@YAXXZ ; characterTitleColors$initializer$
?characterTitleSystemColors$initializer$@@3P6AXXZA DD FLAT:??__EcharacterTitleSystemColors@@YAXXZ ; characterTitleSystemColors$initializer$
?emotionIcons$initializer$@@3P6AXXZA DD FLAT:??__EemotionIcons@@YAXXZ ; emotionIcons$initializer$
?skillIndexes$initializer$@@3P6AXXZA DD FLAT:??__EskillIndexes@@YAXXZ ; skillIndexes$initializer$
?guildSkills$initializer$@@3P6AXXZA DD FLAT:??__EguildSkills@@YAXXZ ; guildSkills$initializer$
; Function compile flags: /Ogtp
; File C:\Anka2Project\Anka2Project\Source\Binary\source\UserInterface\PythonRenderTargetModule.cpp
; File C:\Anka2Project\Anka2Project\Source\Binary\source\eterBase\Singleton.h
; File C:\Anka2Project\Anka2Project\Source\Binary\source\UserInterface\PythonRenderTargetModule.cpp
; File C:\Program Files\Microsoft Visual Studio\2022\Community\VC\Tools\MSVC\14.44.35207\include\memory
; File C:\Anka2Project\Anka2Project\Source\Binary\source\UserInterface\PythonRenderTargetModule.cpp
;	COMDAT ?renderGetFreeIndex@@YAPAU_object@@PAU1@0@Z
_TEXT	SEGMENT
$T2 = -16						; size = 8
_iMin$ = -8						; size = 4
_iMax$ = -4						; size = 4
_poSelf$ = 8						; size = 4
_poArgs$ = 12						; size = 4
?renderGetFreeIndex@@YAPAU_object@@PAU1@0@Z PROC	; renderGetFreeIndex, COMDAT

; 220  : {

  00000	55		 push	 ebp
  00001	8b ec		 mov	 ebp, esp
  00003	83 ec 10	 sub	 esp, 16			; 00000010H

; 221  : 	int iMin;
; 222  : 	if (!PyTuple_GetInteger(poArgs, 0, &iMin))

  00006	8d 45 f8	 lea	 eax, DWORD PTR _iMin$[ebp]
  00009	56		 push	 esi
  0000a	8b 75 0c	 mov	 esi, DWORD PTR _poArgs$[ebp]
  0000d	50		 push	 eax
  0000e	6a 00		 push	 0
  00010	56		 push	 esi
  00011	e8 00 00 00 00	 call	 ?PyTuple_GetInteger@@YA_NPAU_object@@HPAH@Z ; PyTuple_GetInteger
  00016	83 c4 0c	 add	 esp, 12			; 0000000cH
  00019	84 c0		 test	 al, al
  0001b	75 0a		 jne	 SHORT $LN5@renderGetF
$LN48@renderGetF:

; 233  : }

  0001d	e8 00 00 00 00	 call	 ?Py_BadArgument@@YAPAU_object@@XZ ; Py_BadArgument
  00022	5e		 pop	 esi
  00023	8b e5		 mov	 esp, ebp
  00025	5d		 pop	 ebp
  00026	c3		 ret	 0
$LN5@renderGetF:

; 223  : 		return Py_BadArgument();
; 224  : 	int iMax;
; 225  : 	if (!PyTuple_GetInteger(poArgs, 1, &iMax))

  00027	8d 45 fc	 lea	 eax, DWORD PTR _iMax$[ebp]
  0002a	50		 push	 eax
  0002b	6a 01		 push	 1
  0002d	56		 push	 esi
  0002e	e8 00 00 00 00	 call	 ?PyTuple_GetInteger@@YA_NPAU_object@@HPAH@Z ; PyTuple_GetInteger
  00033	83 c4 0c	 add	 esp, 12			; 0000000cH
  00036	84 c0		 test	 al, al
  00038	74 e3		 je	 SHORT $LN48@renderGetF

; 226  : 		return Py_BadArgument();
; 227  : 	for (int j = iMin; j < iMax; ++j)

  0003a	8b 75 f8	 mov	 esi, DWORD PTR _iMin$[ebp]
  0003d	53		 push	 ebx
  0003e	57		 push	 edi
  0003f	3b 75 fc	 cmp	 esi, DWORD PTR _iMax$[ebp]
  00042	7d 65		 jge	 SHORT $LN3@renderGetF
$LL4@renderGetF:
; File C:\Anka2Project\Anka2Project\Source\Binary\source\eterBase\Singleton.h

; 26   : 		assert(ms_singleton);

  00044	8b 0d 00 00 00
	00		 mov	 ecx, DWORD PTR ?ms_singleton@?$CSingleton@VCRenderTargetManager@@@@0PAVCRenderTargetManager@@A ; CSingleton<CRenderTargetManager>::ms_singleton
  0004a	85 c9		 test	 ecx, ecx
  0004c	75 1a		 jne	 SHORT $LN12@renderGetF
  0004e	6a 1a		 push	 26			; 0000001aH
  00050	68 00 00 00 00	 push	 OFFSET ??_C@_1IO@CAJLEEOI@?$AAC?$AA?3?$AA?2?$AAA?$AAn?$AAk?$AAa?$AA2?$AAP?$AAr?$AAo?$AAj?$AAe?$AAc?$AAt@
  00055	68 00 00 00 00	 push	 OFFSET ??_C@_1BK@FMEHPMFE@?$AAm?$AAs?$AA_?$AAs?$AAi?$AAn?$AAg?$AAl?$AAe?$AAt?$AAo?$AAn@
  0005a	e8 00 00 00 00	 call	 __wassert
  0005f	8b 0d 00 00 00
	00		 mov	 ecx, DWORD PTR ?ms_singleton@?$CSingleton@VCRenderTargetManager@@@@0PAVCRenderTargetManager@@A ; CSingleton<CRenderTargetManager>::ms_singleton
  00065	83 c4 0c	 add	 esp, 12			; 0000000cH
$LN12@renderGetF:
; File C:\Anka2Project\Anka2Project\Source\Binary\source\UserInterface\PythonRenderTargetModule.cpp

; 229  : 		if (!CRenderTargetManager::Instance().GetRenderTarget(j))

  00068	56		 push	 esi
  00069	8d 45 f0	 lea	 eax, DWORD PTR $T2[ebp]
  0006c	50		 push	 eax
  0006d	e8 00 00 00 00	 call	 ?GetRenderTarget@CRenderTargetManager@@QAE?AV?$shared_ptr@VCRenderTarget@@@std@@H@Z ; CRenderTargetManager::GetRenderTarget
; File C:\Program Files\Microsoft Visual Studio\2022\Community\VC\Tools\MSVC\14.44.35207\include\memory

; 1384 :         if (_Rep) {

  00072	8b 7d f4	 mov	 edi, DWORD PTR $T2[ebp+4]

; 1789 :         return get() != nullptr;

  00075	8b 18		 mov	 ebx, DWORD PTR [eax]

; 1384 :         if (_Rep) {

  00077	85 ff		 test	 edi, edi
  00079	74 21		 je	 SHORT $LN28@renderGetF

; 1159 :         if (_MT_DECR(_Uses) == 0) {

  0007b	83 c8 ff	 or	 eax, -1
  0007e	f0 0f c1 47 04	 lock	  xadd	 DWORD PTR [edi+4], eax
  00083	75 17		 jne	 SHORT $LN28@renderGetF

; 1160 :             _Destroy();

  00085	8b 07		 mov	 eax, DWORD PTR [edi]
  00087	8b cf		 mov	 ecx, edi
  00089	ff 10		 call	 DWORD PTR [eax]

; 1166 :         if (_MT_DECR(_Weaks) == 0) {

  0008b	83 c8 ff	 or	 eax, -1
  0008e	f0 0f c1 47 08	 lock	  xadd	 DWORD PTR [edi+8], eax
  00093	75 07		 jne	 SHORT $LN28@renderGetF

; 1167 :             _Delete_this();

  00095	8b 07		 mov	 eax, DWORD PTR [edi]
  00097	8b cf		 mov	 ecx, edi
  00099	ff 50 04	 call	 DWORD PTR [eax+4]
$LN28@renderGetF:
; File C:\Anka2Project\Anka2Project\Source\Binary\source\UserInterface\PythonRenderTargetModule.cpp

; 229  : 		if (!CRenderTargetManager::Instance().GetRenderTarget(j))

  0009c	85 db		 test	 ebx, ebx
  0009e	74 22		 je	 SHORT $LN32@renderGetF

; 226  : 		return Py_BadArgument();
; 227  : 	for (int j = iMin; j < iMax; ++j)

  000a0	46		 inc	 esi
  000a1	3b 75 fc	 cmp	 esi, DWORD PTR _iMax$[ebp]
  000a4	7c 9e		 jl	 SHORT $LL4@renderGetF

; 229  : 		if (!CRenderTargetManager::Instance().GetRenderTarget(j))

  000a6	8b 75 f8	 mov	 esi, DWORD PTR _iMin$[ebp]
$LN3@renderGetF:

; 231  : 	}
; 232  : 	return Py_BuildValue("i", iMin + 20);

  000a9	8d 46 14	 lea	 eax, DWORD PTR [esi+20]
  000ac	50		 push	 eax
$LN47@renderGetF:
  000ad	68 00 00 00 00	 push	 OFFSET ??_C@_01KBJDNOO@i@
  000b2	ff 15 00 00 00
	00		 call	 DWORD PTR __imp__Py_BuildValue
  000b8	83 c4 08	 add	 esp, 8
  000bb	5f		 pop	 edi
  000bc	5b		 pop	 ebx
  000bd	5e		 pop	 esi

; 233  : }

  000be	8b e5		 mov	 esp, ebp
  000c0	5d		 pop	 ebp
  000c1	c3		 ret	 0
$LN32@renderGetF:

; 230  : 			return Py_BuildValue("i", j);

  000c2	56		 push	 esi
  000c3	eb e8		 jmp	 SHORT $LN47@renderGetF
?renderGetFreeIndex@@YAPAU_object@@PAU1@0@Z ENDP	; renderGetFreeIndex
_TEXT	ENDS
; Function compile flags: /Ogtp
; File C:\Anka2Project\Anka2Project\Source\Binary\source\UserInterface\PythonRenderTargetModule.cpp
; File C:\Anka2Project\Anka2Project\Source\Binary\source\eterBase\Singleton.h
; File C:\Anka2Project\Anka2Project\Source\Binary\source\UserInterface\PythonRenderTargetModule.cpp
; File C:\Program Files\Microsoft Visual Studio\2022\Community\VC\Tools\MSVC\14.44.35207\include\memory
; File C:\Anka2Project\Anka2Project\Source\Binary\source\UserInterface\PythonRenderTargetModule.cpp
; File C:\Program Files\Microsoft Visual Studio\2022\Community\VC\Tools\MSVC\14.44.35207\include\memory
; File C:\Anka2Project\Anka2Project\Source\Binary\source\UserInterface\PythonRenderTargetModule.cpp
; File C:\Program Files\Microsoft Visual Studio\2022\Community\VC\Tools\MSVC\14.44.35207\include\memory
; File C:\Anka2Project\Anka2Project\Source\Binary\source\UserInterface\PythonRenderTargetModule.cpp
;	COMDAT ?renderIsShow@@YAPAU_object@@PAU1@0@Z
_TEXT	SEGMENT
_target$ = -12						; size = 8
_iIndex$ = -4						; size = 4
_poSelf$ = 8						; size = 4
_poArgs$ = 12						; size = 4
?renderIsShow@@YAPAU_object@@PAU1@0@Z PROC		; renderIsShow, COMDAT

; 359  : {

  00000	55		 push	 ebp
  00001	8b ec		 mov	 ebp, esp
  00003	83 ec 0c	 sub	 esp, 12			; 0000000cH

; 360  : 	int iIndex;
; 361  : 	if (!PyTuple_GetInteger(poArgs, 0, &iIndex))

  00006	8d 45 fc	 lea	 eax, DWORD PTR _iIndex$[ebp]
  00009	50		 push	 eax
  0000a	6a 00		 push	 0
  0000c	ff 75 0c	 push	 DWORD PTR _poArgs$[ebp]
  0000f	e8 00 00 00 00	 call	 ?PyTuple_GetInteger@@YA_NPAU_object@@HPAH@Z ; PyTuple_GetInteger
  00014	83 c4 0c	 add	 esp, 12			; 0000000cH
  00017	84 c0		 test	 al, al
  00019	75 09		 jne	 SHORT $LN2@renderIsSh

; 362  : 		return Py_BadArgument();

  0001b	e8 00 00 00 00	 call	 ?Py_BadArgument@@YAPAU_object@@XZ ; Py_BadArgument

; 365  : }

  00020	8b e5		 mov	 esp, ebp
  00022	5d		 pop	 ebp
  00023	c3		 ret	 0
$LN2@renderIsSh:
; File C:\Anka2Project\Anka2Project\Source\Binary\source\eterBase\Singleton.h

; 26   : 		assert(ms_singleton);

  00024	8b 0d 00 00 00
	00		 mov	 ecx, DWORD PTR ?ms_singleton@?$CSingleton@VCRenderTargetManager@@@@0PAVCRenderTargetManager@@A ; CSingleton<CRenderTargetManager>::ms_singleton
  0002a	85 c9		 test	 ecx, ecx
  0002c	75 1a		 jne	 SHORT $LN9@renderIsSh
  0002e	6a 1a		 push	 26			; 0000001aH
  00030	68 00 00 00 00	 push	 OFFSET ??_C@_1IO@CAJLEEOI@?$AAC?$AA?3?$AA?2?$AAA?$AAn?$AAk?$AAa?$AA2?$AAP?$AAr?$AAo?$AAj?$AAe?$AAc?$AAt@
  00035	68 00 00 00 00	 push	 OFFSET ??_C@_1BK@FMEHPMFE@?$AAm?$AAs?$AA_?$AAs?$AAi?$AAn?$AAg?$AAl?$AAe?$AAt?$AAo?$AAn@
  0003a	e8 00 00 00 00	 call	 __wassert
  0003f	8b 0d 00 00 00
	00		 mov	 ecx, DWORD PTR ?ms_singleton@?$CSingleton@VCRenderTargetManager@@@@0PAVCRenderTargetManager@@A ; CSingleton<CRenderTargetManager>::ms_singleton
  00045	83 c4 0c	 add	 esp, 12			; 0000000cH
$LN9@renderIsSh:
; File C:\Anka2Project\Anka2Project\Source\Binary\source\UserInterface\PythonRenderTargetModule.cpp

; 363  : 	const std::shared_ptr<CRenderTarget> target = CRenderTargetManager::Instance().GetRenderTarget(iIndex);

  00048	ff 75 fc	 push	 DWORD PTR _iIndex$[ebp]
  0004b	8d 45 f4	 lea	 eax, DWORD PTR _target$[ebp]
  0004e	50		 push	 eax
  0004f	e8 00 00 00 00	 call	 ?GetRenderTarget@CRenderTargetManager@@QAE?AV?$shared_ptr@VCRenderTarget@@@std@@H@Z ; CRenderTargetManager::GetRenderTarget
; File C:\Program Files\Microsoft Visual Studio\2022\Community\VC\Tools\MSVC\14.44.35207\include\memory

; 1789 :         return get() != nullptr;

  00054	8b 45 f4	 mov	 eax, DWORD PTR _target$[ebp]
  00057	85 c0		 test	 eax, eax
; File C:\Anka2Project\Anka2Project\Source\Binary\source\UserInterface\PythonRenderTargetModule.cpp

; 364  : 	return Py_BuildValue("i", target ? target->IsShow() : 0);

  00059	74 06		 je	 SHORT $LN4@renderIsSh
  0005b	0f b6 40 11	 movzx	 eax, BYTE PTR [eax+17]
  0005f	eb 02		 jmp	 SHORT $LN5@renderIsSh
$LN4@renderIsSh:
  00061	33 c0		 xor	 eax, eax
$LN5@renderIsSh:
  00063	53		 push	 ebx
  00064	56		 push	 esi
  00065	50		 push	 eax
  00066	68 00 00 00 00	 push	 OFFSET ??_C@_01KBJDNOO@i@
  0006b	ff 15 00 00 00
	00		 call	 DWORD PTR __imp__Py_BuildValue
; File C:\Program Files\Microsoft Visual Studio\2022\Community\VC\Tools\MSVC\14.44.35207\include\memory

; 1384 :         if (_Rep) {

  00071	8b 75 f8	 mov	 esi, DWORD PTR _target$[ebp+4]
; File C:\Anka2Project\Anka2Project\Source\Binary\source\UserInterface\PythonRenderTargetModule.cpp

; 364  : 	return Py_BuildValue("i", target ? target->IsShow() : 0);

  00074	83 c4 08	 add	 esp, 8
  00077	8b d8		 mov	 ebx, eax
; File C:\Program Files\Microsoft Visual Studio\2022\Community\VC\Tools\MSVC\14.44.35207\include\memory

; 1384 :         if (_Rep) {

  00079	85 f6		 test	 esi, esi
  0007b	74 23		 je	 SHORT $LN25@renderIsSh
  0007d	57		 push	 edi

; 1159 :         if (_MT_DECR(_Uses) == 0) {

  0007e	83 cf ff	 or	 edi, -1
  00081	8b cf		 mov	 ecx, edi
  00083	f0 0f c1 4e 04	 lock	  xadd	 DWORD PTR [esi+4], ecx
  00088	75 15		 jne	 SHORT $LN34@renderIsSh

; 1160 :             _Destroy();

  0008a	8b 06		 mov	 eax, DWORD PTR [esi]
  0008c	8b ce		 mov	 ecx, esi
  0008e	ff 10		 call	 DWORD PTR [eax]

; 1166 :         if (_MT_DECR(_Weaks) == 0) {

  00090	f0 0f c1 7e 08	 lock	  xadd	 DWORD PTR [esi+8], edi
  00095	4f		 dec	 edi
  00096	75 07		 jne	 SHORT $LN34@renderIsSh

; 1167 :             _Delete_this();

  00098	8b 06		 mov	 eax, DWORD PTR [esi]
  0009a	8b ce		 mov	 ecx, esi
  0009c	ff 50 04	 call	 DWORD PTR [eax+4]
$LN34@renderIsSh:
  0009f	5f		 pop	 edi
$LN25@renderIsSh:
; File C:\Anka2Project\Anka2Project\Source\Binary\source\UserInterface\PythonRenderTargetModule.cpp

; 364  : 	return Py_BuildValue("i", target ? target->IsShow() : 0);

  000a0	5e		 pop	 esi
  000a1	8b c3		 mov	 eax, ebx
  000a3	5b		 pop	 ebx

; 365  : }

  000a4	8b e5		 mov	 esp, ebp
  000a6	5d		 pop	 ebp
  000a7	c3		 ret	 0
?renderIsShow@@YAPAU_object@@PAU1@0@Z ENDP		; renderIsShow
_TEXT	ENDS
; Function compile flags: /Ogtp
; File C:\Anka2Project\Anka2Project\Source\Binary\source\UserInterface\PythonRenderTargetModule.cpp
;	COMDAT ?initRenderTarget@@YAXXZ
_TEXT	SEGMENT
?initRenderTarget@@YAXXZ PROC				; initRenderTarget, COMDAT

; 383  : 	static PyMethodDef s_methods[] =
; 384  : 	{
; 385  : 		{"SelectModel", renderTargetSelectModel, METH_VARARGS},
; 386  : 		{"SetVisibility", renderTargetSetVisibility, METH_VARARGS},
; 387  : 		{"SetBackground", renderTargetSetBackground, METH_VARARGS},
; 388  : 		{"SetArmor", renderTargetSetArmor, METH_VARARGS},
; 389  : 		{"SetWeapon", renderTargetSetWeapon, METH_VARARGS},
; 390  : 		{"SetHair", renderTargetSetHair, METH_VARARGS},
; 391  : 		{"SetRotation", renderTargetSetRotation, METH_VARARGS},
; 392  : 		{"SetAcce", renderTargetSetAcce, METH_VARARGS},
; 393  : 		{"SetMount", renderTargetSetMount, METH_VARARGS},
; 394  : 		{"ResetModel", renderTargetResetModel, METH_VARARGS},
; 395  : 		{"Destroy", renderTargetDestroy, METH_VARARGS},
; 396  : 		{"SetModelV3Eye", renderSetModelV3Eye, METH_VARARGS },
; 397  : 		{"SetModelV3Target", renderSetModelV3Target, METH_VARARGS },
; 398  : 		{"GetFreeIndex", renderGetFreeIndex, METH_VARARGS },
; 399  : 
; 400  : 		{"SetModelRender", renderSetModelRender, METH_VARARGS },
; 401  : 		{"AddAffect", renderAddAffect, METH_VARARGS },
; 402  : 		{"RemoveAffect", renderRemoveAffect, METH_VARARGS },
; 403  : 		{"ClearAffect", renderClearAffect, METH_VARARGS },
; 404  : 
; 405  : 		{"IsShow", renderIsShow, METH_VARARGS },
; 406  : 		{"Zoom", renderZoomCamera, METH_VARARGS },
; 407  : 		{"SetZoom", renderSetZoom, METH_VARARGS },
; 408  : 		{"SetScale", renderSetScale, METH_VARARGS },
; 409  : 		{"RotateEyeAroundTarget", renderRotateEyeAroundTarget, METH_VARARGS },
; 410  : 
; 411  : 		{nullptr, nullptr, 0},
; 412  : 	};
; 413  : 
; 414  : 	PyObject *poModule = Py_InitModule("renderTarget", s_methods);

  00000	68 f5 03 00 00	 push	 1013			; 000003f5H
  00005	6a 00		 push	 0
  00007	6a 00		 push	 0
  00009	68 00 00 00 00	 push	 OFFSET ?s_methods@?1??initRenderTarget@@YAXXZ@4PAUPyMethodDef@@A
  0000e	68 00 00 00 00	 push	 OFFSET ??_C@_0N@IMGDPIOP@renderTarget@
  00013	ff 15 00 00 00
	00		 call	 DWORD PTR __imp__Py_InitModule4
  00019	83 c4 14	 add	 esp, 20			; 00000014H

; 415  : }

  0001c	c3		 ret	 0
?initRenderTarget@@YAXXZ ENDP				; initRenderTarget
_TEXT	ENDS
END
