; Listing generated by Microsoft (R) Optimizing Compiler Version 19.44.35219.0 

	TITLE	c:\anka2project\anka2project\source\binary\vs_files\userinterface\release\pythonwiki.obj
	.686P
	.XMM
	include listing.inc
	.model	flat

INCLUDELIB OLDNAMES

PUBLIC	??_C@_0BP@LKGJAPMA@locale?1common?1refine_table?4txt@ ; `string'
PUBLIC	??_C@_0CG@BNLHEMKA@CPythonWiki?5?9?5LoadItemTable?$CI?$CFs?$CJ@ ; `string'
PUBLIC	??_C@_0FC@KNPICBNF@CPythonApplication?5?9?5CPythonWik@ ; `string'
PUBLIC	??_C@_0CA@FMDANJOD@locale?1common?1mob_drop_item?4txt@ ; `string'
PUBLIC	??_C@_0CF@IHIGMFKF@locale?1common?1special_item_grou@ ; `string'
PUBLIC	??_C@_0DL@EMPAFMDG@ReadSpecialDropItemFile?3Syntax?5@ ; `string'
PUBLIC	??_C@_04BGNPCCOM@vnum@				; `string'
PUBLIC	??_C@_0P@KKDJHGHJ@ChestIndex?3?5?$CFd@		; `string'
PUBLIC	??_C@_0BB@FHAPCDKO@?5?5?5?5?5?5?5?5?5?5?5?5?5?5?5?5@ ; `string'
PUBLIC	??_C@_03DLHIKAF@mob@				; `string'
PUBLIC	??_C@_0DD@CFIPCANM@Chest?5Data?5?9?5Index?3?5?$CFd?5?5ItemVnu@ ; `string'
PUBLIC	??_C@_0N@LALAIFGK@MobIndex?3?5?$CFd@		; `string'
PUBLIC	??_C@_0DH@OBDMPANL@ReadMobDropItemFile?3Syntax?5erro@ ; `string'
PUBLIC	??_C@_0DP@NBGHGGP@CPythonItem?3?3LoadItemTable?3?5inv@ ; `string'
PUBLIC	??_C@_0DB@PIMBECFP@Mob?5Data?5?9?5Index?3?5?$CFd?5?5ItemVnum?3@ ; `string'
PUBLIC	??_C@_0DH@PMBKMONN@CPythonItem?3?3LoadItemTable?3?5inv@ ; `string'
PUBLIC	??_C@_0FE@FEBCGCHP@CPythonItem?3?3LoadItemTable?3?5inv@ ; `string'
PUBLIC	??_C@_02OLOALJBP@?$CL0@				; `string'
PUBLIC	??_C@_0DG@FEJODIAG@CPythonWiki?3?3LoadRefineTable?$CI?$CFs@ ; `string'
PUBLIC	??_C@_0P@CLJJIJOK@iiiiiiiiiiiiii@		; `string'
PUBLIC	??_C@_01MIFGBAGJ@?$CL@				; `string'
PUBLIC	??_C@_0M@GMNNELNA@IsBlackList@			; `string'
PUBLIC	??_C@_0P@KGBAHLBP@GetRefineItems@		; `string'
PUBLIC	??_C@_0BA@OPNIHJKA@GetCategoryData@		; `string'
PUBLIC	??_C@_0BA@JGFOPCND@GetCategorySize@		; `string'
PUBLIC	??_C@_0M@LGJOKALN@GetBossData@			; `string'
PUBLIC	??_C@_0M@MPBICLMO@GetBossSize@			; `string'
PUBLIC	??_C@_0P@NGIMMEHN@GetMonsterData@		; `string'
PUBLIC	??_C@_0P@KPAKEPAO@GetMonsterSize@		; `string'
PUBLIC	??_C@_0P@GIBKAMCI@GetCostumeData@		; `string'
PUBLIC	??_C@_0P@BBJMIHFL@GetCostumeSize@		; `string'
PUBLIC	??_C@_0N@LKJPFELG@GetStoneData@			; `string'
PUBLIC	??_C@_0N@MDBJNPMF@GetStoneSize@			; `string'
PUBLIC	??_C@_0N@IIIGFEMD@GetChestData@			; `string'
PUBLIC	??_C@_0N@PBAANPLA@GetChestSize@			; `string'
PUBLIC	??_C@_0BD@CCNPCMIJ@GetSpecialInfoData@		; `string'
PUBLIC	??_C@_0BD@FLFJKHPK@GetSpecialInfoSize@		; `string'
PUBLIC	??_C@_0P@BEHEEIIE@GetMobInfoData@		; `string'
PUBLIC	??_C@_0P@GNPCMDPH@GetMobInfoSize@		; `string'
PUBLIC	??_C@_0BC@EDOIKBGO@GetRefineMaxLevel@		; `string'
PUBLIC	??_C@_08GCAKNCOG@ReadData@			; `string'
PUBLIC	??_C@_0BH@MHJCLCEE@GetItemDropFromMonster@	; `string'
PUBLIC	??_C@_0BF@KHFPKBOJ@GetItemDropFromChest@	; `string'
PUBLIC	??_C@_04MELMHIJL@wiki@				; `string'
PUBLIC	??_R2?$CSingleton@VCPythonWiki@@@@8		; CSingleton<CPythonWiki>::`RTTI Base Class Array'
PUBLIC	??_R2CPythonWiki@@8				; CPythonWiki::`RTTI Base Class Array'
PUBLIC	??_R1A@?0A@EA@?$CSingleton@VCPythonWiki@@@@8	; CSingleton<CPythonWiki>::`RTTI Base Class Descriptor at (0,-1,0,64)'
PUBLIC	??_R1A@?0A@EA@CPythonWiki@@8			; CPythonWiki::`RTTI Base Class Descriptor at (0,-1,0,64)'
PUBLIC	??_R0?AV?$CSingleton@VCPythonWiki@@@@@8		; CSingleton<CPythonWiki> `RTTI Type Descriptor'
PUBLIC	??_R3?$CSingleton@VCPythonWiki@@@@8		; CSingleton<CPythonWiki>::`RTTI Class Hierarchy Descriptor'
PUBLIC	??_R0?AVCPythonWiki@@@8				; CPythonWiki `RTTI Type Descriptor'
PUBLIC	??_R3CPythonWiki@@8				; CPythonWiki::`RTTI Class Hierarchy Descriptor'
PUBLIC	??_R4CPythonWiki@@6B@				; CPythonWiki::`RTTI Complete Object Locator'
PUBLIC	??_R4?$CSingleton@VCPythonWiki@@@@6B@		; CSingleton<CPythonWiki>::`RTTI Complete Object Locator'
PUBLIC	??$_Isort_max@PAUrefine_map@@@std@@3HB		; std::_Isort_max<refine_map *>
PUBLIC	??_7?$CSingleton@VCPythonWiki@@@@6B@		; CSingleton<CPythonWiki>::`vftable'
PUBLIC	??_C@_0BG@HGEDEDEC@invalid?5stoi?5argument@	; `string'
PUBLIC	??_C@_0BL@MFFNMGGC@stoi?5argument?5out?5of?5range@ ; `string'
PUBLIC	??_7CPythonWiki@@6B@				; CPythonWiki::`vftable'
PUBLIC	?printLocalDatainSysser@@3_NA			; printLocalDatainSysser
PUBLIC	?_Min_buckets@?$_Hash@V?$_Umap_traits@KV?$vector@Uspecial_map@@V?$allocator@Uspecial_map@@@std@@@std@@V?$_Uhash_compare@KU?$hash@K@std@@U?$equal_to@K@2@@2@V?$allocator@U?$pair@$$CBKV?$vector@Uspecial_map@@V?$allocator@Uspecial_map@@@std@@@std@@@std@@@2@$0A@@std@@@std@@2IB ; std::_Hash<std::_Umap_traits<unsigned long,std::vector<special_map,std::allocator<special_map> >,std::_Uhash_compare<unsigned long,std::hash<unsigned long>,std::equal_to<unsigned long> >,std::allocator<std::pair<unsigned long const ,std::vector<special_map,std::allocator<special_map> > > >,0> >::_Min_buckets
PUBLIC	?_Min_buckets@?$_Hash@V?$_Umap_traits@KPAUr_table@@V?$_Uhash_compare@KU?$hash@K@std@@U?$equal_to@K@2@@std@@V?$allocator@U?$pair@$$CBKPAUr_table@@@std@@@3@$0A@@std@@@std@@2IB ; std::_Hash<std::_Umap_traits<unsigned long,r_table *,std::_Uhash_compare<unsigned long,std::hash<unsigned long>,std::equal_to<unsigned long> >,std::allocator<std::pair<unsigned long const ,r_table *> >,0> >::_Min_buckets
EXTRN	___std_reverse_trivially_swappable_8:PROC
EXTRN	?nothrow@std@@3Unothrow_t@1@B:BYTE		; std::nothrow
EXTRN	??2@YAPAXIABUnothrow_t@std@@@Z:PROC		; operator new
EXTRN	?_Xinvalid_argument@std@@YAXPBD@Z:PROC		; std::_Xinvalid_argument
EXTRN	?GetTokenInteger@CTextFileLoader@@QAEHABV?$basic_string@DU?$char_traits@D@std@@V?$allocator@D@2@@std@@PAH@Z:PROC ; CTextFileLoader::GetTokenInteger
?printLocalDatainSysser@@3_NA DB 01H DUP (?)		; printLocalDatainSysser
_BSS	ENDS
;	COMDAT ?_Min_buckets@?$_Hash@V?$_Umap_traits@KPAUr_table@@V?$_Uhash_compare@KU?$hash@K@std@@U?$equal_to@K@2@@std@@V?$allocator@U?$pair@$$CBKPAUr_table@@@std@@@3@$0A@@std@@@std@@2IB
CONST	SEGMENT
?_Min_buckets@?$_Hash@V?$_Umap_traits@KPAUr_table@@V?$_Uhash_compare@KU?$hash@K@std@@U?$equal_to@K@2@@std@@V?$allocator@U?$pair@$$CBKPAUr_table@@@std@@@3@$0A@@std@@@std@@2IB DD 08H ; std::_Hash<std::_Umap_traits<unsigned long,r_table *,std::_Uhash_compare<unsigned long,std::hash<unsigned long>,std::equal_to<unsigned long> >,std::allocator<std::pair<unsigned long const ,r_table *> >,0> >::_Min_buckets
CONST	ENDS
;	COMDAT ?_Min_buckets@?$_Hash@V?$_Umap_traits@KV?$vector@Uspecial_map@@V?$allocator@Uspecial_map@@@std@@@std@@V?$_Uhash_compare@KU?$hash@K@std@@U?$equal_to@K@2@@2@V?$allocator@U?$pair@$$CBKV?$vector@Uspecial_map@@V?$allocator@Uspecial_map@@@std@@@std@@@std@@@2@$0A@@std@@@std@@2IB
CONST	SEGMENT
?_Min_buckets@?$_Hash@V?$_Umap_traits@KV?$vector@Uspecial_map@@V?$allocator@Uspecial_map@@@std@@@std@@V?$_Uhash_compare@KU?$hash@K@std@@U?$equal_to@K@2@@2@V?$allocator@U?$pair@$$CBKV?$vector@Uspecial_map@@V?$allocator@Uspecial_map@@@std@@@std@@@std@@@2@$0A@@std@@@std@@2IB DD 08H ; std::_Hash<std::_Umap_traits<unsigned long,std::vector<special_map,std::allocator<special_map> >,std::_Uhash_compare<unsigned long,std::hash<unsigned long>,std::equal_to<unsigned long> >,std::allocator<std::pair<unsigned long const ,std::vector<special_map,std::allocator<special_map> > > >,0> >::_Min_buckets
CONST	ENDS
;	COMDAT ??_7CPythonWiki@@6B@
CONST	SEGMENT
??_7CPythonWiki@@6B@ DD FLAT:??_R4CPythonWiki@@6B@	; CPythonWiki::`vftable'
	DD	FLAT:??_ECPythonWiki@@UAEPAXI@Z
CONST	ENDS
;	COMDAT ??_C@_0BL@MFFNMGGC@stoi?5argument?5out?5of?5range@
CONST	SEGMENT
??_C@_0BL@MFFNMGGC@stoi?5argument?5out?5of?5range@ DB 'stoi argument out '
	DB	'of range', 00H				; `string'
CONST	ENDS
;	COMDAT ??_C@_0BG@HGEDEDEC@invalid?5stoi?5argument@
CONST	SEGMENT
??_C@_0BG@HGEDEDEC@invalid?5stoi?5argument@ DB 'invalid stoi argument', 00H ; `string'
CONST	ENDS
;	COMDAT ?s_methods@?1??initWiki@@YAXXZ@4PAUPyMethodDef@@A
_DATA	SEGMENT
?s_methods@?1??initWiki@@YAXXZ@4PAUPyMethodDef@@A DD FLAT:??_C@_0P@KGBAHLBP@GetRefineItems@ ; `initWiki'::`2'::s_methods
	DD	FLAT:?wikiGetRefineItems@@YAPAU_object@@PAU1@0@Z
	DD	01H
	ORG $+4
	DD	FLAT:??_C@_0M@GMNNELNA@IsBlackList@
	DD	FLAT:?wikiIsBlackList@@YAPAU_object@@PAU1@0@Z
	DD	01H
	ORG $+4
	DD	FLAT:??_C@_0BA@JGFOPCND@GetCategorySize@
	DD	FLAT:?wikiGetCategorySize@@YAPAU_object@@PAU1@0@Z
	DD	01H
	ORG $+4
	DD	FLAT:??_C@_0BA@OPNIHJKA@GetCategoryData@
	DD	FLAT:?wikiGetCategoryData@@YAPAU_object@@PAU1@0@Z
	DD	01H
	ORG $+4
	DD	FLAT:??_C@_0M@MPBICLMO@GetBossSize@
	DD	FLAT:?wikiGetBossSize@@YAPAU_object@@PAU1@0@Z
	DD	01H
	ORG $+4
	DD	FLAT:??_C@_0M@LGJOKALN@GetBossData@
	DD	FLAT:?wikiGetBossData@@YAPAU_object@@PAU1@0@Z
	DD	01H
	ORG $+4
	DD	FLAT:??_C@_0P@KPAKEPAO@GetMonsterSize@
	DD	FLAT:?wikiGetMonsterSize@@YAPAU_object@@PAU1@0@Z
	DD	01H
	ORG $+4
	DD	FLAT:??_C@_0P@NGIMMEHN@GetMonsterData@
	DD	FLAT:?wikiGetMonsterData@@YAPAU_object@@PAU1@0@Z
	DD	01H
	ORG $+4
	DD	FLAT:??_C@_0P@BBJMIHFL@GetCostumeSize@
	DD	FLAT:?wikiCostumeSize@@YAPAU_object@@PAU1@0@Z
	DD	01H
	ORG $+4
	DD	FLAT:??_C@_0P@GIBKAMCI@GetCostumeData@
	DD	FLAT:?wikiCostumeData@@YAPAU_object@@PAU1@0@Z
	DD	01H
	ORG $+4
	DD	FLAT:??_C@_0N@MDBJNPMF@GetStoneSize@
	DD	FLAT:?wikiGetStoneSize@@YAPAU_object@@PAU1@0@Z
	DD	01H
	ORG $+4
	DD	FLAT:??_C@_0N@LKJPFELG@GetStoneData@
	DD	FLAT:?wikiGetStoneData@@YAPAU_object@@PAU1@0@Z
	DD	01H
	ORG $+4
	DD	FLAT:??_C@_0N@PBAANPLA@GetChestSize@
	DD	FLAT:?wikiGetChestSize@@YAPAU_object@@PAU1@0@Z
	DD	01H
	ORG $+4
	DD	FLAT:??_C@_0N@IIIGFEMD@GetChestData@
	DD	FLAT:?wikiGetChestData@@YAPAU_object@@PAU1@0@Z
	DD	01H
	ORG $+4
	DD	FLAT:??_C@_0BD@FLFJKHPK@GetSpecialInfoSize@
	DD	FLAT:?wikiGetSpecialInfoSize@@YAPAU_object@@PAU1@0@Z
	DD	01H
	ORG $+4
	DD	FLAT:??_C@_0BD@CCNPCMIJ@GetSpecialInfoData@
	DD	FLAT:?wikiGetSpecialInfoData@@YAPAU_object@@PAU1@0@Z
	DD	01H
	ORG $+4
	DD	FLAT:??_C@_0P@GNPCMDPH@GetMobInfoSize@
	DD	FLAT:?wikiGetMobInfoSize@@YAPAU_object@@PAU1@0@Z
	DD	01H
	ORG $+4
	DD	FLAT:??_C@_0P@BEHEEIIE@GetMobInfoData@
	DD	FLAT:?wikiGetMobInfoData@@YAPAU_object@@PAU1@0@Z
	DD	01H
	ORG $+4
	DD	FLAT:??_C@_08GCAKNCOG@ReadData@
	DD	FLAT:?wikiReadData@@YAPAU_object@@PAU1@0@Z
	DD	01H
	ORG $+4
	DD	FLAT:??_C@_0BC@EDOIKBGO@GetRefineMaxLevel@
	DD	FLAT:?wikiGetRefineMaxLevel@@YAPAU_object@@PAU1@0@Z
	DD	01H
	ORG $+4
	DD	FLAT:??_C@_0BF@KHFPKBOJ@GetItemDropFromChest@
	DD	FLAT:?wikiGetItemDropFromChest@@YAPAU_object@@PAU1@0@Z
	DD	01H
	ORG $+4
	DD	FLAT:??_C@_0BH@MHJCLCEE@GetItemDropFromMonster@
	DD	FLAT:?wikiGetItemDropFromMonster@@YAPAU_object@@PAU1@0@Z
	DD	01H
	ORG $+4
	DD	00H
	DD	00H
	ORG $+8
_DATA	ENDS
;	COMDAT ??_7?$CSingleton@VCPythonWiki@@@@6B@
CONST	SEGMENT
??_7?$CSingleton@VCPythonWiki@@@@6B@ DD FLAT:??_R4?$CSingleton@VCPythonWiki@@@@6B@ ; CSingleton<CPythonWiki>::`vftable'
	DD	FLAT:??_E?$CSingleton@VCPythonWiki@@@@UAEPAXI@Z
CONST	ENDS
;	COMDAT ??$_Isort_max@PAUrefine_map@@@std@@3HB
CONST	SEGMENT
??$_Isort_max@PAUrefine_map@@@std@@3HB DD 020H		; std::_Isort_max<refine_map *>
CONST	ENDS
;	COMDAT ??_R4?$CSingleton@VCPythonWiki@@@@6B@
rdata$r	SEGMENT
??_R4?$CSingleton@VCPythonWiki@@@@6B@ DD 00H		; CSingleton<CPythonWiki>::`RTTI Complete Object Locator'
	DD	00H
	DD	00H
	DD	FLAT:??_R0?AV?$CSingleton@VCPythonWiki@@@@@8
	DD	FLAT:??_R3?$CSingleton@VCPythonWiki@@@@8
rdata$r	ENDS
;	COMDAT ??_R4CPythonWiki@@6B@
rdata$r	SEGMENT
??_R4CPythonWiki@@6B@ DD 00H				; CPythonWiki::`RTTI Complete Object Locator'
	DD	00H
	DD	00H
	DD	FLAT:??_R0?AVCPythonWiki@@@8
	DD	FLAT:??_R3CPythonWiki@@8
rdata$r	ENDS
;	COMDAT ??_R3CPythonWiki@@8
rdata$r	SEGMENT
??_R3CPythonWiki@@8 DD 00H				; CPythonWiki::`RTTI Class Hierarchy Descriptor'
	DD	00H
	DD	02H
	DD	FLAT:??_R2CPythonWiki@@8
rdata$r	ENDS
;	COMDAT ??_R0?AVCPythonWiki@@@8
data$rs	SEGMENT
??_R0?AVCPythonWiki@@@8 DD FLAT:??_7type_info@@6B@	; CPythonWiki `RTTI Type Descriptor'
	DD	00H
	DB	'.?AVCPythonWiki@@', 00H
data$rs	ENDS
;	COMDAT ??_R3?$CSingleton@VCPythonWiki@@@@8
rdata$r	SEGMENT
??_R3?$CSingleton@VCPythonWiki@@@@8 DD 00H		; CSingleton<CPythonWiki>::`RTTI Class Hierarchy Descriptor'
	DD	00H
	DD	01H
	DD	FLAT:??_R2?$CSingleton@VCPythonWiki@@@@8
rdata$r	ENDS
;	COMDAT ??_R0?AV?$CSingleton@VCPythonWiki@@@@@8
data$rs	SEGMENT
??_R0?AV?$CSingleton@VCPythonWiki@@@@@8 DD FLAT:??_7type_info@@6B@ ; CSingleton<CPythonWiki> `RTTI Type Descriptor'
	DD	00H
	DB	'.?AV?$CSingleton@VCPythonWiki@@@@', 00H
data$rs	ENDS
;	COMDAT ??_R1A@?0A@EA@CPythonWiki@@8
rdata$r	SEGMENT
??_R1A@?0A@EA@CPythonWiki@@8 DD FLAT:??_R0?AVCPythonWiki@@@8 ; CPythonWiki::`RTTI Base Class Descriptor at (0,-1,0,64)'
	DD	01H
	DD	00H
	DD	0ffffffffH
	DD	00H
	DD	040H
	DD	FLAT:??_R3CPythonWiki@@8
rdata$r	ENDS
;	COMDAT ??_R1A@?0A@EA@?$CSingleton@VCPythonWiki@@@@8
rdata$r	SEGMENT
??_R1A@?0A@EA@?$CSingleton@VCPythonWiki@@@@8 DD FLAT:??_R0?AV?$CSingleton@VCPythonWiki@@@@@8 ; CSingleton<CPythonWiki>::`RTTI Base Class Descriptor at (0,-1,0,64)'
	DD	00H
	DD	00H
	DD	0ffffffffH
	DD	00H
	DD	040H
	DD	FLAT:??_R3?$CSingleton@VCPythonWiki@@@@8
rdata$r	ENDS
;	COMDAT ??_R2CPythonWiki@@8
rdata$r	SEGMENT
??_R2CPythonWiki@@8 DD FLAT:??_R1A@?0A@EA@CPythonWiki@@8 ; CPythonWiki::`RTTI Base Class Array'
	DD	FLAT:??_R1A@?0A@EA@?$CSingleton@VCPythonWiki@@@@8
rdata$r	ENDS
;	COMDAT ??_R2?$CSingleton@VCPythonWiki@@@@8
rdata$r	SEGMENT
??_R2?$CSingleton@VCPythonWiki@@@@8 DD FLAT:??_R1A@?0A@EA@?$CSingleton@VCPythonWiki@@@@8 ; CSingleton<CPythonWiki>::`RTTI Base Class Array'
rdata$r	ENDS
;	COMDAT ??_C@_04MELMHIJL@wiki@
CONST	SEGMENT
??_C@_04MELMHIJL@wiki@ DB 'wiki', 00H			; `string'
CONST	ENDS
;	COMDAT ??_C@_0BF@KHFPKBOJ@GetItemDropFromChest@
CONST	SEGMENT
??_C@_0BF@KHFPKBOJ@GetItemDropFromChest@ DB 'GetItemDropFromChest', 00H ; `string'
CONST	ENDS
;	COMDAT ??_C@_0BH@MHJCLCEE@GetItemDropFromMonster@
CONST	SEGMENT
??_C@_0BH@MHJCLCEE@GetItemDropFromMonster@ DB 'GetItemDropFromMonster', 00H ; `string'
CONST	ENDS
;	COMDAT ??_C@_08GCAKNCOG@ReadData@
CONST	SEGMENT
??_C@_08GCAKNCOG@ReadData@ DB 'ReadData', 00H		; `string'
CONST	ENDS
;	COMDAT ??_C@_0BC@EDOIKBGO@GetRefineMaxLevel@
CONST	SEGMENT
??_C@_0BC@EDOIKBGO@GetRefineMaxLevel@ DB 'GetRefineMaxLevel', 00H ; `string'
CONST	ENDS
;	COMDAT ??_C@_0P@GNPCMDPH@GetMobInfoSize@
CONST	SEGMENT
??_C@_0P@GNPCMDPH@GetMobInfoSize@ DB 'GetMobInfoSize', 00H ; `string'
CONST	ENDS
;	COMDAT ??_C@_0P@BEHEEIIE@GetMobInfoData@
CONST	SEGMENT
??_C@_0P@BEHEEIIE@GetMobInfoData@ DB 'GetMobInfoData', 00H ; `string'
CONST	ENDS
;	COMDAT ??_C@_0BD@FLFJKHPK@GetSpecialInfoSize@
CONST	SEGMENT
??_C@_0BD@FLFJKHPK@GetSpecialInfoSize@ DB 'GetSpecialInfoSize', 00H ; `string'
CONST	ENDS
;	COMDAT ??_C@_0BD@CCNPCMIJ@GetSpecialInfoData@
CONST	SEGMENT
??_C@_0BD@CCNPCMIJ@GetSpecialInfoData@ DB 'GetSpecialInfoData', 00H ; `string'
CONST	ENDS
;	COMDAT ??_C@_0N@PBAANPLA@GetChestSize@
CONST	SEGMENT
??_C@_0N@PBAANPLA@GetChestSize@ DB 'GetChestSize', 00H	; `string'
CONST	ENDS
;	COMDAT ??_C@_0N@IIIGFEMD@GetChestData@
CONST	SEGMENT
??_C@_0N@IIIGFEMD@GetChestData@ DB 'GetChestData', 00H	; `string'
CONST	ENDS
;	COMDAT ??_C@_0N@MDBJNPMF@GetStoneSize@
CONST	SEGMENT
??_C@_0N@MDBJNPMF@GetStoneSize@ DB 'GetStoneSize', 00H	; `string'
CONST	ENDS
;	COMDAT ??_C@_0N@LKJPFELG@GetStoneData@
CONST	SEGMENT
??_C@_0N@LKJPFELG@GetStoneData@ DB 'GetStoneData', 00H	; `string'
CONST	ENDS
;	COMDAT ??_C@_0P@BBJMIHFL@GetCostumeSize@
CONST	SEGMENT
??_C@_0P@BBJMIHFL@GetCostumeSize@ DB 'GetCostumeSize', 00H ; `string'
CONST	ENDS
;	COMDAT ??_C@_0P@GIBKAMCI@GetCostumeData@
CONST	SEGMENT
??_C@_0P@GIBKAMCI@GetCostumeData@ DB 'GetCostumeData', 00H ; `string'
CONST	ENDS
;	COMDAT ??_C@_0P@KPAKEPAO@GetMonsterSize@
CONST	SEGMENT
??_C@_0P@KPAKEPAO@GetMonsterSize@ DB 'GetMonsterSize', 00H ; `string'
CONST	ENDS
;	COMDAT ??_C@_0P@NGIMMEHN@GetMonsterData@
CONST	SEGMENT
??_C@_0P@NGIMMEHN@GetMonsterData@ DB 'GetMonsterData', 00H ; `string'
CONST	ENDS
;	COMDAT ??_C@_0M@MPBICLMO@GetBossSize@
CONST	SEGMENT
??_C@_0M@MPBICLMO@GetBossSize@ DB 'GetBossSize', 00H	; `string'
CONST	ENDS
;	COMDAT ??_C@_0M@LGJOKALN@GetBossData@
CONST	SEGMENT
??_C@_0M@LGJOKALN@GetBossData@ DB 'GetBossData', 00H	; `string'
CONST	ENDS
;	COMDAT ??_C@_0BA@JGFOPCND@GetCategorySize@
CONST	SEGMENT
??_C@_0BA@JGFOPCND@GetCategorySize@ DB 'GetCategorySize', 00H ; `string'
CONST	ENDS
;	COMDAT ??_C@_0BA@OPNIHJKA@GetCategoryData@
CONST	SEGMENT
??_C@_0BA@OPNIHJKA@GetCategoryData@ DB 'GetCategoryData', 00H ; `string'
CONST	ENDS
;	COMDAT ??_C@_0P@KGBAHLBP@GetRefineItems@
CONST	SEGMENT
??_C@_0P@KGBAHLBP@GetRefineItems@ DB 'GetRefineItems', 00H ; `string'
CONST	ENDS
;	COMDAT ??_C@_0M@GMNNELNA@IsBlackList@
CONST	SEGMENT
??_C@_0M@GMNNELNA@IsBlackList@ DB 'IsBlackList', 00H	; `string'
CONST	ENDS
;	COMDAT ??_C@_01MIFGBAGJ@?$CL@
CONST	SEGMENT
??_C@_01MIFGBAGJ@?$CL@ DB '+', 00H			; `string'
CONST	ENDS
;	COMDAT ??_C@_0P@CLJJIJOK@iiiiiiiiiiiiii@
CONST	SEGMENT
??_C@_0P@CLJJIJOK@iiiiiiiiiiiiii@ DB 'iiiiiiiiiiiiii', 00H ; `string'
CONST	ENDS
;	COMDAT ??_C@_0DG@FEJODIAG@CPythonWiki?3?3LoadRefineTable?$CI?$CFs@
CONST	SEGMENT
??_C@_0DG@FEJODIAG@CPythonWiki?3?3LoadRefineTable?$CI?$CFs@ DB 'CPythonWi'
	DB	'ki::LoadRefineTable(%s) - StrangeLine in %d', 0aH, 00H ; `string'
CONST	ENDS
;	COMDAT ??_C@_02OLOALJBP@?$CL0@
CONST	SEGMENT
??_C@_02OLOALJBP@?$CL0@ DB '+0', 00H			; `string'
CONST	ENDS
;	COMDAT ??_C@_0FE@FEBCGCHP@CPythonItem?3?3LoadItemTable?3?5inv@
CONST	SEGMENT
??_C@_0FE@FEBCGCHP@CPythonItem?3?3LoadItemTable?3?5inv@ DB 'CPythonItem::'
	DB	'LoadItemTable: invalid item_proto[%s] STRIDE[%d] != sizeof(SI'
	DB	'temTable)', 00H				; `string'
CONST	ENDS
;	COMDAT ??_C@_0DH@PMBKMONN@CPythonItem?3?3LoadItemTable?3?5inv@
CONST	SEGMENT
??_C@_0DH@PMBKMONN@CPythonItem?3?3LoadItemTable?3?5inv@ DB 'CPythonItem::'
	DB	'LoadItemTable: invalid item proto type %s', 00H ; `string'
CONST	ENDS
;	COMDAT ??_C@_0DB@PIMBECFP@Mob?5Data?5?9?5Index?3?5?$CFd?5?5ItemVnum?3@
CONST	SEGMENT
??_C@_0DB@PIMBECFP@Mob?5Data?5?9?5Index?3?5?$CFd?5?5ItemVnum?3@ DB 'Mob D'
	DB	'ata - Index: %d  ItemVnum: %d ItemCount: %d', 00H ; `string'
CONST	ENDS
;	COMDAT ??_C@_0DP@NBGHGGP@CPythonItem?3?3LoadItemTable?3?5inv@
CONST	SEGMENT
??_C@_0DP@NBGHGGP@CPythonItem?3?3LoadItemTable?3?5inv@ DB 'CPythonItem::L'
	DB	'oadItemTable: invalid item_proto[%s] VERSION[%d]', 00H ; `string'
CONST	ENDS
;	COMDAT ??_C@_0DH@OBDMPANL@ReadMobDropItemFile?3Syntax?5erro@
CONST	SEGMENT
??_C@_0DH@OBDMPANL@ReadMobDropItemFile?3Syntax?5erro@ DB 'ReadMobDropItem'
	DB	'File:Syntax error %s : no vnum, node %s', 00H ; `string'
CONST	ENDS
;	COMDAT ??_C@_0N@LALAIFGK@MobIndex?3?5?$CFd@
CONST	SEGMENT
??_C@_0N@LALAIFGK@MobIndex?3?5?$CFd@ DB 'MobIndex: %d', 00H ; `string'
CONST	ENDS
;	COMDAT ??_C@_0DD@CFIPCANM@Chest?5Data?5?9?5Index?3?5?$CFd?5?5ItemVnu@
CONST	SEGMENT
??_C@_0DD@CFIPCANM@Chest?5Data?5?9?5Index?3?5?$CFd?5?5ItemVnu@ DB 'Chest '
	DB	'Data - Index: %d  ItemVnum: %d ItemCount: %d', 00H ; `string'
CONST	ENDS
;	COMDAT ??_C@_03DLHIKAF@mob@
CONST	SEGMENT
??_C@_03DLHIKAF@mob@ DB 'mob', 00H			; `string'
CONST	ENDS
;	COMDAT ??_C@_0BB@FHAPCDKO@?5?5?5?5?5?5?5?5?5?5?5?5?5?5?5?5@
CONST	SEGMENT
??_C@_0BB@FHAPCDKO@?5?5?5?5?5?5?5?5?5?5?5?5?5?5?5?5@ DB '                '
	DB	00H						; `string'
CONST	ENDS
;	COMDAT ??_C@_0P@KKDJHGHJ@ChestIndex?3?5?$CFd@
CONST	SEGMENT
??_C@_0P@KKDJHGHJ@ChestIndex?3?5?$CFd@ DB 'ChestIndex: %d', 00H ; `string'
CONST	ENDS
;	COMDAT ??_C@_04BGNPCCOM@vnum@
CONST	SEGMENT
??_C@_04BGNPCCOM@vnum@ DB 'vnum', 00H			; `string'
CONST	ENDS
;	COMDAT ??_C@_0DL@EMPAFMDG@ReadSpecialDropItemFile?3Syntax?5@
CONST	SEGMENT
??_C@_0DL@EMPAFMDG@ReadSpecialDropItemFile?3Syntax?5@ DB 'ReadSpecialDrop'
	DB	'ItemFile:Syntax error %s : no vnum, node %s', 00H ; `string'
CONST	ENDS
;	COMDAT ??_C@_0CF@IHIGMFKF@locale?1common?1special_item_grou@
CONST	SEGMENT
??_C@_0CF@IHIGMFKF@locale?1common?1special_item_grou@ DB 'locale/common/s'
	DB	'pecial_item_group.txt', 00H			; `string'
CONST	ENDS
;	COMDAT ??_C@_0CA@FMDANJOD@locale?1common?1mob_drop_item?4txt@
CONST	SEGMENT
??_C@_0CA@FMDANJOD@locale?1common?1mob_drop_item?4txt@ DB 'locale/common/'
	DB	'mob_drop_item.txt', 00H			; `string'
CONST	ENDS
;	COMDAT ??_C@_0FC@KNPICBNF@CPythonApplication?5?9?5CPythonWik@
CONST	SEGMENT
??_C@_0FC@KNPICBNF@CPythonApplication?5?9?5CPythonWik@ DB 'CPythonApplica'
	DB	'tion - CPythonWiki::LoadRefineTable(locale/common/refine_tabl'
	DB	'e.txt)', 00H				; `string'
CONST	ENDS
;	COMDAT ??_C@_0CG@BNLHEMKA@CPythonWiki?5?9?5LoadItemTable?$CI?$CFs?$CJ@
CONST	SEGMENT
??_C@_0CG@BNLHEMKA@CPythonWiki?5?9?5LoadItemTable?$CI?$CFs?$CJ@ DB 'CPyth'
	DB	'onWiki - LoadItemTable(%s) Error', 00H	; `string'
CONST	ENDS
;	COMDAT ??_C@_0BP@LKGJAPMA@locale?1common?1refine_table?4txt@
CONST	SEGMENT
??_C@_0BP@LKGJAPMA@locale?1common?1refine_table?4txt@ DB 'locale/common/r'
	DB	'efine_table.txt', 00H			; `string'
?otherChests@@3QAY01$$CBKA DD 06d5fH			; otherChests
	DD	00H
?eventChests@@3QAY01$$CBKA DD 0c35bH			; eventChests
	DD	00H
	DD	0c375H
	DD	00H
	DD	01161cH
	DD	00H
	DD	01161bH
	DD	00H
	DD	01161aH
	DD	00H
?eventBoss@@3QBKB DD 0445H				; eventBoss
	DD	09bdH
?bossChests@@3QAY01$$CBKA DD 0c396H			; bossChests
	DD	02b3H
	DD	0c397H
	DD	0317H
	DD	0c399H
	DD	082bH
	DD	0c39cH
	DD	088fH
	DD	0c39eH
	DD	0518H
	DD	0c39dH
	DD	076dH
	DD	0c39fH
	DD	089eH
?dungeonChests@@3QAY01$$CBKA DD 0c3a2H			; dungeonChests
	DD	0445H
	DD	0c40aH
	DD	0a26H
PUBLIC	?stoi@std@@YAHABV?$basic_string@DU?$char_traits@D@std@@V?$allocator@D@2@@1@PAIH@Z ; std::stoi
PUBLIC	??A?$basic_string@DU?$char_traits@D@std@@V?$allocator@D@2@@std@@QBEABDI@Z ; std::basic_string<char,std::char_traits<char>,std::allocator<char> >::operator[]
PUBLIC	??$min@H@std@@YAABHABH0@Z			; std::min<int>
PUBLIC	??$construct_at@Uspecial_map@@AAU1@@std@@YAPAUspecial_map@@QAU1@AAU1@@Z ; std::construct_at<special_map,special_map &>
PUBLIC	??$construct@Uspecial_map@@AAU1@@?$_Default_allocator_traits@V?$allocator@Uspecial_map@@@std@@@std@@SAXAAV?$allocator@Uspecial_map@@@1@QAUspecial_map@@AAU3@@Z ; std::_Default_allocator_traits<std::allocator<special_map> >::construct<special_map,special_map &>
PUBLIC	??$forward@AAUspecial_map@@@std@@YAAAUspecial_map@@AAU1@@Z ; std::forward<special_map &>
PUBLIC	??$swap@Urefine_map@@$0A@@std@@YAXAAUrefine_map@@0@Z ; std::swap<refine_map,0>
PUBLIC	??$_Reverse_vectorized@$07@std@@YAXPAX0@Z	; std::_Reverse_vectorized<8>
PUBLIC	?_Buy_raw@?$vector@Uspecial_map@@V?$allocator@Uspecial_map@@@std@@@std@@AAEXI@Z ; std::vector<special_map,std::allocator<special_map> >::_Buy_raw
PUBLIC	??$_Emplace_back@AAUspecial_map@@@?$_Uninitialized_backout_al@V?$allocator@Uspecial_map@@@std@@@std@@QAEXAAUspecial_map@@@Z ; std::_Uninitialized_backout_al<std::allocator<special_map> >::_Emplace_back<special_map &>
PUBLIC	??$_Seek_wrapped@PAUrefine_map@@PAU1@@std@@YAXAAPAUrefine_map@@$$QAPAU1@@Z ; std::_Seek_wrapped<refine_map *,refine_map *>
PUBLIC	??$reverse@PAUrefine_map@@@std@@YAXQAUrefine_map@@0@Z ; std::reverse<refine_map *>
PUBLIC	?_Buy_nonzero@?$vector@Uspecial_map@@V?$allocator@Uspecial_map@@@std@@@std@@AAEXI@Z ; std::vector<special_map,std::allocator<special_map> >::_Buy_nonzero
PUBLIC	?_Get_first@?$_Compressed_pair@V?$allocator@U?$_Tree_node@U?$pair@$$CBEV?$vector@KV?$allocator@K@std@@@std@@@std@@PAX@std@@@std@@V?$_Tree_val@U?$_Tree_simple_types@U?$pair@$$CBEV?$vector@KV?$allocator@K@std@@@std@@@std@@@std@@@2@$00@std@@QBEABV?$allocator@U?$_Tree_node@U?$pair@$$CBEV?$vector@KV?$allocator@K@std@@@std@@@std@@PAX@std@@@2@XZ ; std::_Compressed_pair<std::allocator<std::_Tree_node<std::pair<unsigned char const ,std::vector<unsigned long,std::allocator<unsigned long> > >,void *> >,std::_Tree_val<std::_Tree_simple_types<std::pair<unsigned char const ,std::vector<unsigned long,std::allocator<unsigned long> > > > >,1>::_Get_first
PUBLIC	??1?$_Tidy_guard@V?$vector@Uspecial_map@@V?$allocator@Uspecial_map@@@std@@@std@@@std@@QAE@XZ ; std::_Tidy_guard<std::vector<special_map,std::allocator<special_map> > >::~_Tidy_guard<std::vector<special_map,std::allocator<special_map> > >
PUBLIC	??$_Uninitialized_copy@PAUspecial_map@@PAU1@V?$allocator@Uspecial_map@@@std@@@std@@YAPAUspecial_map@@PAU1@00AAV?$allocator@Uspecial_map@@@0@@Z ; std::_Uninitialized_copy<special_map *,special_map *,std::allocator<special_map> >
PUBLIC	??$_Unwrap_sent@PAUspecial_map@@PAU1@@ranges@std@@YA?A_T$$QAPAUspecial_map@@@Z ; std::ranges::_Unwrap_sent<special_map *,special_map *>
PUBLIC	??$_Unwrap_iter@PAUspecial_map@@PAU1@@ranges@std@@YA?A_T$$QAPAUspecial_map@@@Z ; std::ranges::_Unwrap_iter<special_map *,special_map *>
PUBLIC	??$forward@ABQAUspecial_map@@@std@@YAABQAUspecial_map@@ABQAU1@@Z ; std::forward<special_map * const &>
PUBLIC	??$forward@V?$allocator@Uspecial_map@@@std@@@std@@YA$$QAV?$allocator@Uspecial_map@@@0@AAV10@@Z ; std::forward<std::allocator<special_map> >
PUBLIC	??$rotate@PAUrefine_map@@@std@@YAPAUrefine_map@@PAU1@00@Z ; std::rotate<refine_map *>
PUBLIC	??$forward@AAPAUrefine_map@@@std@@YAAAPAUrefine_map@@AAPAU1@@Z ; std::forward<refine_map * &>
PUBLIC	??0?$pair@$$CBEV?$vector@KV?$allocator@K@std@@@std@@@std@@QAE@ABU01@@Z ; std::pair<unsigned char const ,std::vector<unsigned long,std::allocator<unsigned long> > >::pair<unsigned char const ,std::vector<unsigned long,std::allocator<unsigned long> > >
PUBLIC	??0?$pair@$$CBKV?$vector@Uspecial_map@@V?$allocator@Uspecial_map@@@std@@@std@@@std@@QAE@ABU01@@Z ; std::pair<unsigned long const ,std::vector<special_map,std::allocator<special_map> > >::pair<unsigned long const ,std::vector<special_map,std::allocator<special_map> > >
PUBLIC	?_Orphan_non_end@?$_List_val@U?$_List_simple_types@U?$pair@$$CBKV?$vector@Uspecial_map@@V?$allocator@Uspecial_map@@@std@@@std@@@std@@@std@@@std@@QAEXXZ ; std::_List_val<std::_List_simple_types<std::pair<unsigned long const ,std::vector<special_map,std::allocator<special_map> > > > >::_Orphan_non_end
PUBLIC	??0_Range_eraser@?$_Hash@V?$_Umap_traits@KV?$vector@Uspecial_map@@V?$allocator@Uspecial_map@@@std@@@std@@V?$_Uhash_compare@KU?$hash@K@std@@U?$equal_to@K@2@@2@V?$allocator@U?$pair@$$CBKV?$vector@Uspecial_map@@V?$allocator@Uspecial_map@@@std@@@std@@@std@@@2@$0A@@std@@@std@@QAE@AAV?$list@U?$pair@$$CBKV?$vector@Uspecial_map@@V?$allocator@Uspecial_map@@@std@@@std@@@std@@V?$allocator@U?$pair@$$CBKV?$vector@Uspecial_map@@V?$allocator@Uspecial_map@@@std@@@std@@@std@@@2@@2@QAU?$_List_node@U?$pair@$$CBKV?$vector@Uspecial_map@@V?$allocator@Uspecial_map@@@std@@@std@@@std@@PAX@2@@Z ; std::_Hash<std::_Umap_traits<unsigned long,std::vector<special_map,std::allocator<special_map> >,std::_Uhash_compare<unsigned long,std::hash<unsigned long>,std::equal_to<unsigned long> >,std::allocator<std::pair<unsigned long const ,std::vector<special_map,std::allocator<special_map> > > >,0> >::_Range_eraser::_Range_eraser
PUBLIC	?_Bump_erased@_Range_eraser@?$_Hash@V?$_Umap_traits@KV?$vector@Uspecial_map@@V?$allocator@Uspecial_map@@@std@@@std@@V?$_Uhash_compare@KU?$hash@K@std@@U?$equal_to@K@2@@2@V?$allocator@U?$pair@$$CBKV?$vector@Uspecial_map@@V?$allocator@Uspecial_map@@@std@@@std@@@std@@@2@$0A@@std@@@std@@QAEXXZ ; std::_Hash<std::_Umap_traits<unsigned long,std::vector<special_map,std::allocator<special_map> >,std::_Uhash_compare<unsigned long,std::hash<unsigned long>,std::equal_to<unsigned long> >,std::allocator<std::pair<unsigned long const ,std::vector<special_map,std::allocator<special_map> > > >,0> >::_Range_eraser::_Bump_erased
PUBLIC	??1_Range_eraser@?$_Hash@V?$_Umap_traits@KV?$vector@Uspecial_map@@V?$allocator@Uspecial_map@@@std@@@std@@V?$_Uhash_compare@KU?$hash@K@std@@U?$equal_to@K@2@@2@V?$allocator@U?$pair@$$CBKV?$vector@Uspecial_map@@V?$allocator@Uspecial_map@@@std@@@std@@@std@@@2@$0A@@std@@@std@@QAE@XZ ; std::_Hash<std::_Umap_traits<unsigned long,std::vector<special_map,std::allocator<special_map> >,std::_Uhash_compare<unsigned long,std::hash<unsigned long>,std::equal_to<unsigned long> >,std::allocator<std::pair<unsigned long const ,std::vector<special_map,std::allocator<special_map> > > >,0> >::_Range_eraser::~_Range_eraser
PUBLIC	?_Getal@?$_Tree@V?$_Tmap_traits@EV?$vector@KV?$allocator@K@std@@@std@@U?$less@E@2@V?$allocator@U?$pair@$$CBEV?$vector@KV?$allocator@K@std@@@std@@@std@@@2@$0A@@std@@@std@@IBEABV?$allocator@U?$_Tree_node@U?$pair@$$CBEV?$vector@KV?$allocator@K@std@@@std@@@std@@PAX@std@@@2@XZ ; std::_Tree<std::_Tmap_traits<unsigned char,std::vector<unsigned long,std::allocator<unsigned long> >,std::less<unsigned char>,std::allocator<std::pair<unsigned char const ,std::vector<unsigned long,std::allocator<unsigned long> > > >,0> >::_Getal
PUBLIC	?max_size@?$_Default_allocator_traits@V?$allocator@U?$_Tree_node@U?$pair@$$CBEV?$vector@KV?$allocator@K@std@@@std@@@std@@PAX@std@@@std@@@std@@SAIABV?$allocator@U?$_Tree_node@U?$pair@$$CBEV?$vector@KV?$allocator@K@std@@@std@@@std@@PAX@std@@@2@@Z ; std::_Default_allocator_traits<std::allocator<std::_Tree_node<std::pair<unsigned char const ,std::vector<unsigned long,std::allocator<unsigned long> > >,void *> > >::max_size
PUBLIC	?_Max@?$_Tree_val@U?$_Tree_simple_types@U?$pair@$$CBEV?$vector@KV?$allocator@K@std@@@std@@@std@@@std@@@std@@SAPAU?$_Tree_node@U?$pair@$$CBEV?$vector@KV?$allocator@K@std@@@std@@@std@@PAX@2@PAU32@@Z ; std::_Tree_val<std::_Tree_simple_types<std::pair<unsigned char const ,std::vector<unsigned long,std::allocator<unsigned long> > > > >::_Max
PUBLIC	?_Min@?$_Tree_val@U?$_Tree_simple_types@U?$pair@$$CBEV?$vector@KV?$allocator@K@std@@@std@@@std@@@std@@@std@@SAPAU?$_Tree_node@U?$pair@$$CBEV?$vector@KV?$allocator@K@std@@@std@@@std@@PAX@2@PAU32@@Z ; std::_Tree_val<std::_Tree_simple_types<std::pair<unsigned char const ,std::vector<unsigned long,std::allocator<unsigned long> > > > >::_Min
PUBLIC	?select_on_container_copy_construction@?$_Default_allocator_traits@V?$allocator@Uspecial_map@@@std@@@std@@SA?AV?$allocator@Uspecial_map@@@2@ABV32@@Z ; std::_Default_allocator_traits<std::allocator<special_map> >::select_on_container_copy_construction
PUBLIC	??0?$_Alloc_construct_ptr@V?$allocator@U?$_Tree_node@U?$pair@$$CBEV?$vector@KV?$allocator@K@std@@@std@@@std@@PAX@std@@@std@@@std@@QAE@AAV?$allocator@U?$_Tree_node@U?$pair@$$CBEV?$vector@KV?$allocator@K@std@@@std@@@std@@PAX@std@@@1@@Z ; std::_Alloc_construct_ptr<std::allocator<std::_Tree_node<std::pair<unsigned char const ,std::vector<unsigned long,std::allocator<unsigned long> > >,void *> > >::_Alloc_construct_ptr<std::allocator<std::_Tree_node<std::pair<unsigned char const ,std::vector<unsigned long,std::allocator<unsigned long> > >,void *> > >
PUBLIC	?_Allocate@?$_Alloc_construct_ptr@V?$allocator@U?$_Tree_node@U?$pair@$$CBEV?$vector@KV?$allocator@K@std@@@std@@@std@@PAX@std@@@std@@@std@@QAEXXZ ; std::_Alloc_construct_ptr<std::allocator<std::_Tree_node<std::pair<unsigned char const ,std::vector<unsigned long,std::allocator<unsigned long> > >,void *> > >::_Allocate
PUBLIC	??$_Construct_n@ABQAUspecial_map@@ABQAU1@@?$vector@Uspecial_map@@V?$allocator@Uspecial_map@@@std@@@std@@AAEXIABQAUspecial_map@@0@Z ; std::vector<special_map,std::allocator<special_map> >::_Construct_n<special_map * const &,special_map * const &>
PUBLIC	??$?0V?$allocator@Uspecial_map@@@std@@$$V@?$_Compressed_pair@V?$allocator@Uspecial_map@@@std@@V?$_Vector_val@U?$_Simple_types@Uspecial_map@@@std@@@2@$00@std@@QAE@U_One_then_variadic_args_t@1@$$QAV?$allocator@Uspecial_map@@@1@@Z ; std::_Compressed_pair<std::allocator<special_map>,std::_Vector_val<std::_Simple_types<special_map> >,1>::_Compressed_pair<std::allocator<special_map>,std::_Vector_val<std::_Simple_types<special_map> >,1><std::allocator<special_map> >
PUBLIC	??$construct_at@V?$_List_unchecked_iterator@V?$_List_val@U?$_List_simple_types@U?$pair@$$CBKV?$vector@Uspecial_map@@V?$allocator@Uspecial_map@@@std@@@std@@@std@@@std@@@std@@@std@@ABV12@@std@@YAPAV?$_List_unchecked_iterator@V?$_List_val@U?$_List_simple_types@U?$pair@$$CBKV?$vector@Uspecial_map@@V?$allocator@Uspecial_map@@@std@@@std@@@std@@@std@@@std@@@0@QAV10@ABV10@@Z ; std::construct_at<std::_List_unchecked_iterator<std::_List_val<std::_List_simple_types<std::pair<unsigned long const ,std::vector<special_map,std::allocator<special_map> > > > > >,std::_List_unchecked_iterator<std::_List_val<std::_List_simple_types<std::pair<unsigned long const ,std::vector<special_map,std::allocator<special_map> > > > > > const &>
PUBLIC	??$addressof@V?$_List_unchecked_iterator@V?$_List_val@U?$_List_simple_types@U?$pair@$$CBKV?$vector@Uspecial_map@@V?$allocator@Uspecial_map@@@std@@@std@@@std@@@std@@@std@@@std@@@std@@YAPAV?$_List_unchecked_iterator@V?$_List_val@U?$_List_simple_types@U?$pair@$$CBKV?$vector@Uspecial_map@@V?$allocator@Uspecial_map@@@std@@@std@@@std@@@std@@@std@@@0@AAV10@@Z ; std::addressof<std::_List_unchecked_iterator<std::_List_val<std::_List_simple_types<std::pair<unsigned long const ,std::vector<special_map,std::allocator<special_map> > > > > > >
PUBLIC	??$construct_at@V?$_List_unchecked_iterator@V?$_List_val@U?$_List_simple_types@U?$pair@$$CBKPAUr_table@@@std@@@std@@@std@@@std@@ABV12@@std@@YAPAV?$_List_unchecked_iterator@V?$_List_val@U?$_List_simple_types@U?$pair@$$CBKPAUr_table@@@std@@@std@@@std@@@0@QAV10@ABV10@@Z ; std::construct_at<std::_List_unchecked_iterator<std::_List_val<std::_List_simple_types<std::pair<unsigned long const ,r_table *> > > >,std::_List_unchecked_iterator<std::_List_val<std::_List_simple_types<std::pair<unsigned long const ,r_table *> > > > const &>
PUBLIC	??$addressof@V?$_List_unchecked_iterator@V?$_List_val@U?$_List_simple_types@U?$pair@$$CBKPAUr_table@@@std@@@std@@@std@@@std@@@std@@YAPAV?$_List_unchecked_iterator@V?$_List_val@U?$_List_simple_types@U?$pair@$$CBKPAUr_table@@@std@@@std@@@std@@@0@AAV10@@Z ; std::addressof<std::_List_unchecked_iterator<std::_List_val<std::_List_simple_types<std::pair<unsigned long const ,r_table *> > > > >
PUBLIC	??$construct_at@PAU?$_Tree_node@U?$pair@$$CBEV?$vector@KV?$allocator@K@std@@@std@@@std@@PAX@std@@AAPAU12@@std@@YAPAPAU?$_Tree_node@U?$pair@$$CBEV?$vector@KV?$allocator@K@std@@@std@@@std@@PAX@0@QAPAU10@AAPAU10@@Z ; std::construct_at<std::_Tree_node<std::pair<unsigned char const ,std::vector<unsigned long,std::allocator<unsigned long> > >,void *> *,std::_Tree_node<std::pair<unsigned char const ,std::vector<unsigned long,std::allocator<unsigned long> > >,void *> * &>
PUBLIC	??$forward@AAPAU?$_Tree_node@U?$pair@$$CBEV?$vector@KV?$allocator@K@std@@@std@@@std@@PAX@std@@@std@@YAAAPAU?$_Tree_node@U?$pair@$$CBEV?$vector@KV?$allocator@K@std@@@std@@@std@@PAX@0@AAPAU10@@Z ; std::forward<std::_Tree_node<std::pair<unsigned char const ,std::vector<unsigned long,std::allocator<unsigned long> > >,void *> * &>
PUBLIC	??$construct_at@U?$pair@$$CBEV?$vector@KV?$allocator@K@std@@@std@@@std@@ABU12@@std@@YAPAU?$pair@$$CBEV?$vector@KV?$allocator@K@std@@@std@@@0@QAU10@ABU10@@Z ; std::construct_at<std::pair<unsigned char const ,std::vector<unsigned long,std::allocator<unsigned long> > >,std::pair<unsigned char const ,std::vector<unsigned long,std::allocator<unsigned long> > > const &>
PUBLIC	??$construct_at@U?$pair@$$CBKV?$vector@Uspecial_map@@V?$allocator@Uspecial_map@@@std@@@std@@@std@@ABU12@@std@@YAPAU?$pair@$$CBKV?$vector@Uspecial_map@@V?$allocator@Uspecial_map@@@std@@@std@@@0@QAU10@ABU10@@Z ; std::construct_at<std::pair<unsigned long const ,std::vector<special_map,std::allocator<special_map> > >,std::pair<unsigned long const ,std::vector<special_map,std::allocator<special_map> > > const &>
PUBLIC	??$_Buffered_rotate_unchecked@PAUrefine_map@@@std@@YAPAUrefine_map@@QAU1@00HH0H@Z ; std::_Buffered_rotate_unchecked<refine_map *>
PUBLIC	??$_Seek_wrapped@PAUrefine_map@@AAPAU1@@std@@YAXAAPAUrefine_map@@0@Z ; std::_Seek_wrapped<refine_map *,refine_map * &>
PUBLIC	??$_Next_iter@PAUrefine_map@@@std@@YAPAUrefine_map@@PAU1@@Z ; std::_Next_iter<refine_map *>
PUBLIC	??$_Adl_verify_range@PAUrefine_map@@PAU1@@std@@YAXABQAUrefine_map@@0@Z ; std::_Adl_verify_range<refine_map *,refine_map *>
PUBLIC	??$forward@PAUr_table@@@std@@YA$$QAPAUr_table@@AAPAU1@@Z ; std::forward<r_table *>
PUBLIC	??_G?$pair@$$CBEV?$vector@KV?$allocator@K@std@@@std@@@std@@QAEPAXI@Z ; std::pair<unsigned char const ,std::vector<unsigned long,std::allocator<unsigned long> > >::`scalar deleting destructor'
PUBLIC	??0?$vector@Uspecial_map@@V?$allocator@Uspecial_map@@@std@@@std@@QAE@ABV01@@Z ; std::vector<special_map,std::allocator<special_map> >::vector<special_map,std::allocator<special_map> >
PUBLIC	?_Get_first@?$_Compressed_pair@V?$allocator@Urefine_map@@@std@@V?$_Vector_val@U?$_Simple_types@Urefine_map@@@std@@@2@$00@std@@QBEABV?$allocator@Urefine_map@@@2@XZ ; std::_Compressed_pair<std::allocator<refine_map>,std::_Vector_val<std::_Simple_types<refine_map> >,1>::_Get_first
PUBLIC	?_Unchecked_erase@?$_Hash@V?$_Umap_traits@KV?$vector@Uspecial_map@@V?$allocator@Uspecial_map@@@std@@@std@@V?$_Uhash_compare@KU?$hash@K@std@@U?$equal_to@K@2@@2@V?$allocator@U?$pair@$$CBKV?$vector@Uspecial_map@@V?$allocator@Uspecial_map@@@std@@@std@@@std@@@2@$0A@@std@@@std@@AAEPAU?$_List_node@U?$pair@$$CBKV?$vector@Uspecial_map@@V?$allocator@Uspecial_map@@@std@@@std@@@std@@PAX@2@PAU32@QAU32@@Z ; std::_Hash<std::_Umap_traits<unsigned long,std::vector<special_map,std::allocator<special_map> >,std::_Uhash_compare<unsigned long,std::hash<unsigned long>,std::equal_to<unsigned long> >,std::allocator<std::pair<unsigned long const ,std::vector<special_map,std::allocator<special_map> > > >,0> >::_Unchecked_erase
PUBLIC	?clear@?$list@U?$pair@$$CBKV?$vector@Uspecial_map@@V?$allocator@Uspecial_map@@@std@@@std@@@std@@V?$allocator@U?$pair@$$CBKV?$vector@Uspecial_map@@V?$allocator@Uspecial_map@@@std@@@std@@@std@@@2@@std@@QAEXXZ ; std::list<std::pair<unsigned long const ,std::vector<special_map,std::allocator<special_map> > >,std::allocator<std::pair<unsigned long const ,std::vector<special_map,std::allocator<special_map> > > > >::clear
PUBLIC	?_Unchecked_begin@?$list@U?$pair@$$CBKPAUr_table@@@std@@V?$allocator@U?$pair@$$CBKPAUr_table@@@std@@@2@@std@@QAE?AV?$_List_unchecked_iterator@V?$_List_val@U?$_List_simple_types@U?$pair@$$CBKPAUr_table@@@std@@@std@@@std@@@2@XZ ; std::list<std::pair<unsigned long const ,r_table *>,std::allocator<std::pair<unsigned long const ,r_table *> > >::_Unchecked_begin
PUBLIC	?_Get_first@?$_Compressed_pair@V?$allocator@U?$_List_node@U?$pair@$$CBKPAUr_table@@@std@@PAX@std@@@std@@V?$_List_val@U?$_List_simple_types@U?$pair@$$CBKPAUr_table@@@std@@@std@@@2@$00@std@@QBEABV?$allocator@U?$_List_node@U?$pair@$$CBKPAUr_table@@@std@@PAX@std@@@2@XZ ; std::_Compressed_pair<std::allocator<std::_List_node<std::pair<unsigned long const ,r_table *>,void *> >,std::_List_val<std::_List_simple_types<std::pair<unsigned long const ,r_table *> > >,1>::_Get_first
PUBLIC	?max_size@?$_Default_allocator_traits@V?$allocator@V?$_List_unchecked_iterator@V?$_List_val@U?$_List_simple_types@U?$pair@$$CBKPAUr_table@@@std@@@std@@@std@@@std@@@std@@@std@@SAIABV?$allocator@V?$_List_unchecked_iterator@V?$_List_val@U?$_List_simple_types@U?$pair@$$CBKPAUr_table@@@std@@@std@@@std@@@std@@@2@@Z ; std::_Default_allocator_traits<std::allocator<std::_List_unchecked_iterator<std::_List_val<std::_List_simple_types<std::pair<unsigned long const ,r_table *> > > > > >::max_size
PUBLIC	?_Get_first@?$_Compressed_pair@V?$allocator@V?$_List_unchecked_iterator@V?$_List_val@U?$_List_simple_types@U?$pair@$$CBKPAUr_table@@@std@@@std@@@std@@@std@@@std@@V?$_Vector_val@U?$_Simple_types@V?$_List_unchecked_iterator@V?$_List_val@U?$_List_simple_types@U?$pair@$$CBKPAUr_table@@@std@@@std@@@std@@@std@@@std@@@2@$00@std@@QBEABV?$allocator@V?$_List_unchecked_iterator@V?$_List_val@U?$_List_simple_types@U?$pair@$$CBKPAUr_table@@@std@@@std@@@std@@@std@@@2@XZ ; std::_Compressed_pair<std::allocator<std::_List_unchecked_iterator<std::_List_val<std::_List_simple_types<std::pair<unsigned long const ,r_table *> > > > >,std::_Vector_val<std::_Simple_types<std::_List_unchecked_iterator<std::_List_val<std::_List_simple_types<std::pair<unsigned long const ,r_table *> > > > > >,1>::_Get_first
PUBLIC	?allocate@?$allocator@U?$pair@KK@std@@@std@@QAEPAU?$pair@KK@2@I@Z ; std::allocator<std::pair<unsigned long,unsigned long> >::allocate
PUBLIC	?_Get_first@?$_Compressed_pair@V?$allocator@U?$pair@KK@std@@@std@@V?$_Vector_val@U?$_Simple_types@U?$pair@KK@std@@@std@@@2@$00@std@@QBEABV?$allocator@U?$pair@KK@std@@@2@XZ ; std::_Compressed_pair<std::allocator<std::pair<unsigned long,unsigned long> >,std::_Vector_val<std::_Simple_types<std::pair<unsigned long,unsigned long> > >,1>::_Get_first
PUBLIC	?max_size@?$_Tree@V?$_Tmap_traits@EV?$vector@KV?$allocator@K@std@@@std@@U?$less@E@2@V?$allocator@U?$pair@$$CBEV?$vector@KV?$allocator@K@std@@@std@@@std@@@2@$0A@@std@@@std@@QBEIXZ ; std::_Tree<std::_Tmap_traits<unsigned char,std::vector<unsigned long,std::allocator<unsigned long> >,std::less<unsigned char>,std::allocator<std::pair<unsigned char const ,std::vector<unsigned long,std::allocator<unsigned long> > > >,0> >::max_size
PUBLIC	?_Lrotate@?$_Tree_val@U?$_Tree_simple_types@U?$pair@$$CBEV?$vector@KV?$allocator@K@std@@@std@@@std@@@std@@@std@@QAEXPAU?$_Tree_node@U?$pair@$$CBEV?$vector@KV?$allocator@K@std@@@std@@@std@@PAX@2@@Z ; std::_Tree_val<std::_Tree_simple_types<std::pair<unsigned char const ,std::vector<unsigned long,std::allocator<unsigned long> > > > >::_Lrotate
PUBLIC	?_Rrotate@?$_Tree_val@U?$_Tree_simple_types@U?$pair@$$CBEV?$vector@KV?$allocator@K@std@@@std@@@std@@@std@@@std@@QAEXPAU?$_Tree_node@U?$pair@$$CBEV?$vector@KV?$allocator@K@std@@@std@@@std@@PAX@2@@Z ; std::_Tree_val<std::_Tree_simple_types<std::pair<unsigned char const ,std::vector<unsigned long,std::allocator<unsigned long> > > > >::_Rrotate
PUBLIC	??E?$_Tree_unchecked_const_iterator@V?$_Tree_val@U?$_Tree_simple_types@U?$pair@$$CBEV?$vector@KV?$allocator@K@std@@@std@@@std@@@std@@@std@@U_Iterator_base0@2@@std@@QAEAAV01@XZ ; std::_Tree_unchecked_const_iterator<std::_Tree_val<std::_Tree_simple_types<std::pair<unsigned char const ,std::vector<unsigned long,std::allocator<unsigned long> > > > >,std::_Iterator_base0>::operator++
PUBLIC	??F?$_Tree_unchecked_const_iterator@V?$_Tree_val@U?$_Tree_simple_types@U?$pair@$$CBEV?$vector@KV?$allocator@K@std@@@std@@@std@@@std@@@std@@U_Iterator_base0@2@@std@@QAEAAV01@XZ ; std::_Tree_unchecked_const_iterator<std::_Tree_val<std::_Tree_simple_types<std::pair<unsigned char const ,std::vector<unsigned long,std::allocator<unsigned long> > > > >,std::_Iterator_base0>::operator--
PUBLIC	?_Get_first@?$_Compressed_pair@V?$allocator@Uspecial_map@@@std@@V?$_Vector_val@U?$_Simple_types@Uspecial_map@@@std@@@2@$00@std@@QBEABV?$allocator@Uspecial_map@@@2@XZ ; std::_Compressed_pair<std::allocator<special_map>,std::_Vector_val<std::_Simple_types<special_map> >,1>::_Get_first
PUBLIC	?allocate@?$allocator@PAV?$vector@Urefine_map@@V?$allocator@Urefine_map@@@std@@@std@@@std@@QAEPAPAV?$vector@Urefine_map@@V?$allocator@Urefine_map@@@std@@@2@I@Z ; std::allocator<std::vector<refine_map,std::allocator<refine_map> > *>::allocate
PUBLIC	?_Get_first@?$_Compressed_pair@V?$allocator@PAV?$vector@Urefine_map@@V?$allocator@Urefine_map@@@std@@@std@@@std@@V?$_Vector_val@U?$_Simple_types@PAV?$vector@Urefine_map@@V?$allocator@Urefine_map@@@std@@@std@@@std@@@2@$00@std@@QBEABV?$allocator@PAV?$vector@Urefine_map@@V?$allocator@Urefine_map@@@std@@@std@@@2@XZ ; std::_Compressed_pair<std::allocator<std::vector<refine_map,std::allocator<refine_map> > *>,std::_Vector_val<std::_Simple_types<std::vector<refine_map,std::allocator<refine_map> > *> >,1>::_Get_first
PUBLIC	??0?$_Tree_temp_node_alloc@V?$allocator@U?$_Tree_node@U?$pair@$$CBEV?$vector@KV?$allocator@K@std@@@std@@@std@@PAX@std@@@std@@@std@@QAE@AAV?$allocator@U?$_Tree_node@U?$pair@$$CBEV?$vector@KV?$allocator@K@std@@@std@@@std@@PAX@std@@@1@@Z ; std::_Tree_temp_node_alloc<std::allocator<std::_Tree_node<std::pair<unsigned char const ,std::vector<unsigned long,std::allocator<unsigned long> > >,void *> > >::_Tree_temp_node_alloc<std::allocator<std::_Tree_node<std::pair<unsigned char const ,std::vector<unsigned long,std::allocator<unsigned long> > >,void *> > >
PUBLIC	??1?$_Alloc_construct_ptr@V?$allocator@U?$_Tree_node@U?$pair@$$CBEV?$vector@KV?$allocator@K@std@@@std@@@std@@PAX@std@@@std@@@std@@QAE@XZ ; std::_Alloc_construct_ptr<std::allocator<std::_Tree_node<std::pair<unsigned char const ,std::vector<unsigned long,std::allocator<unsigned long> > >,void *> > >::~_Alloc_construct_ptr<std::allocator<std::_Tree_node<std::pair<unsigned char const ,std::vector<unsigned long,std::allocator<unsigned long> > >,void *> > >
PUBLIC	??$exchange@PAU?$_Tree_node@U?$pair@$$CBEV?$vector@KV?$allocator@K@std@@@std@@@std@@PAX@std@@$$T@std@@YAPAU?$_Tree_node@U?$pair@$$CBEV?$vector@KV?$allocator@K@std@@@std@@@std@@PAX@0@AAPAU10@$$QA$$T@Z ; std::exchange<std::_Tree_node<std::pair<unsigned char const ,std::vector<unsigned long,std::allocator<unsigned long> > >,void *> *,std::nullptr_t>
PUBLIC	??$construct_at@PAU?$_List_node@U?$pair@$$CBKV?$vector@Uspecial_map@@V?$allocator@Uspecial_map@@@std@@@std@@@std@@PAX@std@@AAPAU12@@std@@YAPAPAU?$_List_node@U?$pair@$$CBKV?$vector@Uspecial_map@@V?$allocator@Uspecial_map@@@std@@@std@@@std@@PAX@0@QAPAU10@AAPAU10@@Z ; std::construct_at<std::_List_node<std::pair<unsigned long const ,std::vector<special_map,std::allocator<special_map> > >,void *> *,std::_List_node<std::pair<unsigned long const ,std::vector<special_map,std::allocator<special_map> > >,void *> * &>
PUBLIC	??$forward@AAPAU?$_List_node@U?$pair@$$CBKV?$vector@Uspecial_map@@V?$allocator@Uspecial_map@@@std@@@std@@@std@@PAX@std@@@std@@YAAAPAU?$_List_node@U?$pair@$$CBKV?$vector@Uspecial_map@@V?$allocator@Uspecial_map@@@std@@@std@@@std@@PAX@0@AAPAU10@@Z ; std::forward<std::_List_node<std::pair<unsigned long const ,std::vector<special_map,std::allocator<special_map> > >,void *> * &>
PUBLIC	??$construct_at@PAU?$_List_node@U?$pair@$$CBKPAUr_table@@@std@@PAX@std@@AAPAU12@@std@@YAPAPAU?$_List_node@U?$pair@$$CBKPAUr_table@@@std@@PAX@0@QAPAU10@AAPAU10@@Z ; std::construct_at<std::_List_node<std::pair<unsigned long const ,r_table *>,void *> *,std::_List_node<std::pair<unsigned long const ,r_table *>,void *> * &>
PUBLIC	??$forward@AAPAU?$_List_node@U?$pair@$$CBKPAUr_table@@@std@@PAX@std@@@std@@YAAAPAU?$_List_node@U?$pair@$$CBKPAUr_table@@@std@@PAX@0@AAPAU10@@Z ; std::forward<std::_List_node<std::pair<unsigned long const ,r_table *>,void *> * &>
PUBLIC	??$_Construct_in_place@V?$_List_unchecked_iterator@V?$_List_val@U?$_List_simple_types@U?$pair@$$CBKV?$vector@Uspecial_map@@V?$allocator@Uspecial_map@@@std@@@std@@@std@@@std@@@std@@@std@@ABV12@@std@@YAXAAV?$_List_unchecked_iterator@V?$_List_val@U?$_List_simple_types@U?$pair@$$CBKV?$vector@Uspecial_map@@V?$allocator@Uspecial_map@@@std@@@std@@@std@@@std@@@std@@@0@ABV10@@Z ; std::_Construct_in_place<std::_List_unchecked_iterator<std::_List_val<std::_List_simple_types<std::pair<unsigned long const ,std::vector<special_map,std::allocator<special_map> > > > > >,std::_List_unchecked_iterator<std::_List_val<std::_List_simple_types<std::pair<unsigned long const ,std::vector<special_map,std::allocator<special_map> > > > > > const &>
PUBLIC	??$forward@ABV?$_List_unchecked_iterator@V?$_List_val@U?$_List_simple_types@U?$pair@$$CBKV?$vector@Uspecial_map@@V?$allocator@Uspecial_map@@@std@@@std@@@std@@@std@@@std@@@std@@@std@@YAABV?$_List_unchecked_iterator@V?$_List_val@U?$_List_simple_types@U?$pair@$$CBKV?$vector@Uspecial_map@@V?$allocator@Uspecial_map@@@std@@@std@@@std@@@std@@@std@@@0@ABV10@@Z ; std::forward<std::_List_unchecked_iterator<std::_List_val<std::_List_simple_types<std::pair<unsigned long const ,std::vector<special_map,std::allocator<special_map> > > > > > const &>
PUBLIC	??$_Construct_in_place@V?$_List_unchecked_iterator@V?$_List_val@U?$_List_simple_types@U?$pair@$$CBKPAUr_table@@@std@@@std@@@std@@@std@@ABV12@@std@@YAXAAV?$_List_unchecked_iterator@V?$_List_val@U?$_List_simple_types@U?$pair@$$CBKPAUr_table@@@std@@@std@@@std@@@0@ABV10@@Z ; std::_Construct_in_place<std::_List_unchecked_iterator<std::_List_val<std::_List_simple_types<std::pair<unsigned long const ,r_table *> > > >,std::_List_unchecked_iterator<std::_List_val<std::_List_simple_types<std::pair<unsigned long const ,r_table *> > > > const &>
PUBLIC	??$forward@ABV?$_List_unchecked_iterator@V?$_List_val@U?$_List_simple_types@U?$pair@$$CBKPAUr_table@@@std@@@std@@@std@@@std@@@std@@YAABV?$_List_unchecked_iterator@V?$_List_val@U?$_List_simple_types@U?$pair@$$CBKPAUr_table@@@std@@@std@@@std@@@0@ABV10@@Z ; std::forward<std::_List_unchecked_iterator<std::_List_val<std::_List_simple_types<std::pair<unsigned long const ,r_table *> > > > const &>
PUBLIC	??$construct_at@PAU?$_Tree_node@U?$pair@$$CBEV?$vector@KV?$allocator@K@std@@@std@@@std@@PAX@std@@ABQAU12@@std@@YAPAPAU?$_Tree_node@U?$pair@$$CBEV?$vector@KV?$allocator@K@std@@@std@@@std@@PAX@0@QAPAU10@ABQAU10@@Z ; std::construct_at<std::_Tree_node<std::pair<unsigned char const ,std::vector<unsigned long,std::allocator<unsigned long> > >,void *> *,std::_Tree_node<std::pair<unsigned char const ,std::vector<unsigned long,std::allocator<unsigned long> > >,void *> * const &>
PUBLIC	??$forward@ABQAU?$_Tree_node@U?$pair@$$CBEV?$vector@KV?$allocator@K@std@@@std@@@std@@PAX@std@@@std@@YAABQAU?$_Tree_node@U?$pair@$$CBEV?$vector@KV?$allocator@K@std@@@std@@@std@@PAX@0@ABQAU10@@Z ; std::forward<std::_Tree_node<std::pair<unsigned char const ,std::vector<unsigned long,std::allocator<unsigned long> > >,void *> * const &>
PUBLIC	??$addressof@PAU?$_Tree_node@U?$pair@$$CBEV?$vector@KV?$allocator@K@std@@@std@@@std@@PAX@std@@@std@@YAPAPAU?$_Tree_node@U?$pair@$$CBEV?$vector@KV?$allocator@K@std@@@std@@@std@@PAX@0@AAPAU10@@Z ; std::addressof<std::_Tree_node<std::pair<unsigned char const ,std::vector<unsigned long,std::allocator<unsigned long> > >,void *> *>
PUBLIC	??$_Construct_in_place@PAU?$_Tree_node@U?$pair@$$CBEV?$vector@KV?$allocator@K@std@@@std@@@std@@PAX@std@@AAPAU12@@std@@YAXAAPAU?$_Tree_node@U?$pair@$$CBEV?$vector@KV?$allocator@K@std@@@std@@@std@@PAX@0@0@Z ; std::_Construct_in_place<std::_Tree_node<std::pair<unsigned char const ,std::vector<unsigned long,std::allocator<unsigned long> > >,void *> *,std::_Tree_node<std::pair<unsigned char const ,std::vector<unsigned long,std::allocator<unsigned long> > >,void *> * &>
PUBLIC	??$construct@U?$pair@$$CBEV?$vector@KV?$allocator@K@std@@@std@@@std@@ABU12@@?$_Default_allocator_traits@V?$allocator@U?$_Tree_node@U?$pair@$$CBEV?$vector@KV?$allocator@K@std@@@std@@@std@@PAX@std@@@std@@@std@@SAXAAV?$allocator@U?$_Tree_node@U?$pair@$$CBEV?$vector@KV?$allocator@K@std@@@std@@@std@@PAX@std@@@1@QAU?$pair@$$CBEV?$vector@KV?$allocator@K@std@@@std@@@1@ABU31@@Z ; std::_Default_allocator_traits<std::allocator<std::_Tree_node<std::pair<unsigned char const ,std::vector<unsigned long,std::allocator<unsigned long> > >,void *> > >::construct<std::pair<unsigned char const ,std::vector<unsigned long,std::allocator<unsigned long> > >,std::pair<unsigned char const ,std::vector<unsigned long,std::allocator<unsigned long> > > const &>
PUBLIC	??$_Copy_memmove_tail@PAUspecial_map@@@std@@YAPAUspecial_map@@QBDQAU1@II@Z ; std::_Copy_memmove_tail<special_map *>
PUBLIC	??$move@AAPAUspecial_map@@@std@@YA$$QAPAUspecial_map@@AAPAU1@@Z ; std::move<special_map * &>
PUBLIC	??$to_address@Uspecial_map@@@std@@YAPAUspecial_map@@QAU1@@Z ; std::to_address<special_map>
PUBLIC	??$construct@U?$pair@$$CBKV?$vector@Uspecial_map@@V?$allocator@Uspecial_map@@@std@@@std@@@std@@ABU12@@?$_Default_allocator_traits@V?$allocator@U?$_List_node@U?$pair@$$CBKV?$vector@Uspecial_map@@V?$allocator@Uspecial_map@@@std@@@std@@@std@@PAX@std@@@std@@@std@@SAXAAV?$allocator@U?$_List_node@U?$pair@$$CBKV?$vector@Uspecial_map@@V?$allocator@Uspecial_map@@@std@@@std@@@std@@PAX@std@@@1@QAU?$pair@$$CBKV?$vector@Uspecial_map@@V?$allocator@Uspecial_map@@@std@@@std@@@1@ABU31@@Z ; std::_Default_allocator_traits<std::allocator<std::_List_node<std::pair<unsigned long const ,std::vector<special_map,std::allocator<special_map> > >,void *> > >::construct<std::pair<unsigned long const ,std::vector<special_map,std::allocator<special_map> > >,std::pair<unsigned long const ,std::vector<special_map,std::allocator<special_map> > > const &>
PUBLIC	??$construct_at@U?$pair@KK@std@@ABU12@@std@@YAPAU?$pair@KK@0@QAU10@ABU10@@Z ; std::construct_at<std::pair<unsigned long,unsigned long>,std::pair<unsigned long,unsigned long> const &>
PUBLIC	??$to_address@U?$pair@KK@std@@@std@@YAPAU?$pair@KK@0@QAU10@@Z ; std::to_address<std::pair<unsigned long,unsigned long> >
PUBLIC	??$destroy_at@U?$pair@$$CBEV?$vector@KV?$allocator@K@std@@@std@@@std@@@std@@YAXQAU?$pair@$$CBEV?$vector@KV?$allocator@K@std@@@std@@@0@@Z ; std::destroy_at<std::pair<unsigned char const ,std::vector<unsigned long,std::allocator<unsigned long> > > >
PUBLIC	??$construct_at@PAV?$vector@Urefine_map@@V?$allocator@Urefine_map@@@std@@@std@@ABQAV12@@std@@YAPAPAV?$vector@Urefine_map@@V?$allocator@Urefine_map@@@std@@@0@QAPAV10@ABQAV10@@Z ; std::construct_at<std::vector<refine_map,std::allocator<refine_map> > *,std::vector<refine_map,std::allocator<refine_map> > * const &>
PUBLIC	??$to_address@PAV?$vector@Urefine_map@@V?$allocator@Urefine_map@@@std@@@std@@@std@@YAPAPAV?$vector@Urefine_map@@V?$allocator@Urefine_map@@@std@@@0@QAPAV10@@Z ; std::to_address<std::vector<refine_map,std::allocator<refine_map> > *>
PUBLIC	??$_Copy_memmove_tail@PAUrefine_map@@@std@@YAPAUrefine_map@@QBDQAU1@II@Z ; std::_Copy_memmove_tail<refine_map *>
PUBLIC	??$move@AAPAUrefine_map@@@std@@YA$$QAPAUrefine_map@@AAPAU1@@Z ; std::move<refine_map * &>
PUBLIC	??$upper_bound@PAUrefine_map@@U1@P6A_NU1@0@Z@std@@YAPAUrefine_map@@PAU1@0ABU1@P6A_NU1@2@Z@Z ; std::upper_bound<refine_map *,refine_map,bool (__cdecl*)(refine_map,refine_map)>
PUBLIC	??$_Buffered_inplace_merge_divide_and_conquer2@PAUrefine_map@@P6A_NU1@0@Z@std@@YAXPAUrefine_map@@00HHQAU1@HP6A_NU1@2@Z00HH@Z ; std::_Buffered_inplace_merge_divide_and_conquer2<refine_map *,bool (__cdecl*)(refine_map,refine_map)>
PUBLIC	??$_Get_unwrapped@AAPAUrefine_map@@@std@@YA?A_TAAPAUrefine_map@@@Z ; std::_Get_unwrapped<refine_map * &>
PUBLIC	??$lower_bound@PAUrefine_map@@U1@P6A_NU1@0@Z@std@@YAPAUrefine_map@@PAU1@QAU1@ABU1@P6A_NU1@3@Z@Z ; std::lower_bound<refine_map *,refine_map,bool (__cdecl*)(refine_map,refine_map)>
PUBLIC	??$_Emplace_back_deref_move@PAUrefine_map@@@?$_Uninitialized_backout@PAUrefine_map@@@std@@QAEXAAPAUrefine_map@@@Z ; std::_Uninitialized_backout<refine_map *>::_Emplace_back_deref_move<refine_map *>
PUBLIC	??$_Emplace_back@Urefine_map@@@?$_Uninitialized_backout@PAUrefine_map@@@std@@QAEX$$QAUrefine_map@@@Z ; std::_Uninitialized_backout<refine_map *>::_Emplace_back<refine_map>
PUBLIC	??$forward@AAPAK@std@@YAAAPAKAAPAK@Z		; std::forward<unsigned long * &>
PUBLIC	??$_Med3_unchecked@PAKU?$less@X@std@@@std@@YAXPAK00U?$less@X@0@@Z ; std::_Med3_unchecked<unsigned long *,std::less<void> >
PUBLIC	??$_Pop_heap_hole_unchecked@PAKKU?$less@X@std@@@std@@YAXPAK00$$QAKU?$less@X@0@@Z ; std::_Pop_heap_hole_unchecked<unsigned long *,unsigned long,std::less<void> >
PUBLIC	??$_Push_heap_by_index@PAKKU?$less@X@std@@@std@@YAXPAKHH$$QAKU?$less@X@0@@Z ; std::_Push_heap_by_index<unsigned long *,unsigned long,std::less<void> >
PUBLIC	??$?0KPAUr_table@@$0A@@?$pair@$$CBKPAUr_table@@@std@@QAE@$$QAU?$pair@KPAUr_table@@@1@@Z ; std::pair<unsigned long const ,r_table *>::pair<unsigned long const ,r_table *><unsigned long,r_table *,0>
PUBLIC	??1?$_Tree_temp_node_alloc@V?$allocator@U?$_Tree_node@U?$pair@$$CBEV?$vector@KV?$allocator@K@std@@@std@@@std@@PAX@std@@@std@@@std@@QAE@XZ ; std::_Tree_temp_node_alloc<std::allocator<std::_Tree_node<std::pair<unsigned char const ,std::vector<unsigned long,std::allocator<unsigned long> > >,void *> > >::~_Tree_temp_node_alloc<std::allocator<std::_Tree_node<std::pair<unsigned char const ,std::vector<unsigned long,std::allocator<unsigned long> > >,void *> > >
PUBLIC	?allocate@?$allocator@Uspecial_map@@@std@@QAEPAUspecial_map@@I@Z ; std::allocator<special_map>::allocate
PUBLIC	?capacity@?$vector@Uspecial_map@@V?$allocator@Uspecial_map@@@std@@@std@@QBEIXZ ; std::vector<special_map,std::allocator<special_map> >::capacity
PUBLIC	?_Getal@?$vector@Uspecial_map@@V?$allocator@Uspecial_map@@@std@@@std@@ABEABV?$allocator@Uspecial_map@@@2@XZ ; std::vector<special_map,std::allocator<special_map> >::_Getal
PUBLIC	?allocate@?$allocator@Urefine_map@@@std@@QAEPAUrefine_map@@I@Z ; std::allocator<refine_map>::allocate
PUBLIC	?capacity@?$vector@Urefine_map@@V?$allocator@Urefine_map@@@std@@@std@@QBEIXZ ; std::vector<refine_map,std::allocator<refine_map> >::capacity
PUBLIC	?_Getal@?$vector@Urefine_map@@V?$allocator@Urefine_map@@@std@@@std@@ABEABV?$allocator@Urefine_map@@@2@XZ ; std::vector<refine_map,std::allocator<refine_map> >::_Getal
PUBLIC	?max_size@?$_Default_allocator_traits@V?$allocator@Urefine_map@@@std@@@std@@SAIABV?$allocator@Urefine_map@@@2@@Z ; std::_Default_allocator_traits<std::allocator<refine_map> >::max_size
PUBLIC	?clear@?$_Hash@V?$_Umap_traits@KV?$vector@Uspecial_map@@V?$allocator@Uspecial_map@@@std@@@std@@V?$_Uhash_compare@KU?$hash@K@std@@U?$equal_to@K@2@@2@V?$allocator@U?$pair@$$CBKV?$vector@Uspecial_map@@V?$allocator@Uspecial_map@@@std@@@std@@@std@@@2@$0A@@std@@@std@@QAEXXZ ; std::_Hash<std::_Umap_traits<unsigned long,std::vector<special_map,std::allocator<special_map> >,std::_Uhash_compare<unsigned long,std::hash<unsigned long>,std::equal_to<unsigned long> >,std::allocator<std::pair<unsigned long const ,std::vector<special_map,std::allocator<special_map> > > >,0> >::clear
PUBLIC	?_Unchecked_begin@?$list@U?$pair@$$CBKV?$vector@Uspecial_map@@V?$allocator@Uspecial_map@@@std@@@std@@@std@@V?$allocator@U?$pair@$$CBKV?$vector@Uspecial_map@@V?$allocator@Uspecial_map@@@std@@@std@@@std@@@2@@std@@QAE?AV?$_List_unchecked_iterator@V?$_List_val@U?$_List_simple_types@U?$pair@$$CBKV?$vector@Uspecial_map@@V?$allocator@Uspecial_map@@@std@@@std@@@std@@@std@@@std@@@2@XZ ; std::list<std::pair<unsigned long const ,std::vector<special_map,std::allocator<special_map> > >,std::allocator<std::pair<unsigned long const ,std::vector<special_map,std::allocator<special_map> > > > >::_Unchecked_begin
PUBLIC	??0?$_List_val@U?$_List_simple_types@U?$pair@$$CBKV?$vector@Uspecial_map@@V?$allocator@Uspecial_map@@@std@@@std@@@std@@@std@@@std@@QAE@XZ ; std::_List_val<std::_List_simple_types<std::pair<unsigned long const ,std::vector<special_map,std::allocator<special_map> > > > >::_List_val<std::_List_simple_types<std::pair<unsigned long const ,std::vector<special_map,std::allocator<special_map> > > > >
PUBLIC	?max_size@?$_Default_allocator_traits@V?$allocator@V?$_List_unchecked_iterator@V?$_List_val@U?$_List_simple_types@U?$pair@$$CBKV?$vector@Uspecial_map@@V?$allocator@Uspecial_map@@@std@@@std@@@std@@@std@@@std@@@std@@@std@@@std@@SAIABV?$allocator@V?$_List_unchecked_iterator@V?$_List_val@U?$_List_simple_types@U?$pair@$$CBKV?$vector@Uspecial_map@@V?$allocator@Uspecial_map@@@std@@@std@@@std@@@std@@@std@@@std@@@2@@Z ; std::_Default_allocator_traits<std::allocator<std::_List_unchecked_iterator<std::_List_val<std::_List_simple_types<std::pair<unsigned long const ,std::vector<special_map,std::allocator<special_map> > > > > > > >::max_size
PUBLIC	??0?$_Vector_val@U?$_Simple_types@V?$_List_unchecked_iterator@V?$_List_val@U?$_List_simple_types@U?$pair@$$CBKV?$vector@Uspecial_map@@V?$allocator@Uspecial_map@@@std@@@std@@@std@@@std@@@std@@@std@@@std@@@std@@QAE@XZ ; std::_Vector_val<std::_Simple_types<std::_List_unchecked_iterator<std::_List_val<std::_List_simple_types<std::pair<unsigned long const ,std::vector<special_map,std::allocator<special_map> > > > > > > >::_Vector_val<std::_Simple_types<std::_List_unchecked_iterator<std::_List_val<std::_List_simple_types<std::pair<unsigned long const ,std::vector<special_map,std::allocator<special_map> > > > > > > >
PUBLIC	?_Get_first@?$_Compressed_pair@V?$allocator@V?$_List_unchecked_iterator@V?$_List_val@U?$_List_simple_types@U?$pair@$$CBKV?$vector@Uspecial_map@@V?$allocator@Uspecial_map@@@std@@@std@@@std@@@std@@@std@@@std@@@std@@V?$_Vector_val@U?$_Simple_types@V?$_List_unchecked_iterator@V?$_List_val@U?$_List_simple_types@U?$pair@$$CBKV?$vector@Uspecial_map@@V?$allocator@Uspecial_map@@@std@@@std@@@std@@@std@@@std@@@std@@@std@@@2@$00@std@@QBEABV?$allocator@V?$_List_unchecked_iterator@V?$_List_val@U?$_List_simple_types@U?$pair@$$CBKV?$vector@Uspecial_map@@V?$allocator@Uspecial_map@@@std@@@std@@@std@@@std@@@std@@@std@@@2@XZ ; std::_Compressed_pair<std::allocator<std::_List_unchecked_iterator<std::_List_val<std::_List_simple_types<std::pair<unsigned long const ,std::vector<special_map,std::allocator<special_map> > > > > > >,std::_Vector_val<std::_Simple_types<std::_List_unchecked_iterator<std::_List_val<std::_List_simple_types<std::pair<unsigned long const ,std::vector<special_map,std::allocator<special_map> > > > > > > >,1>::_Get_first
PUBLIC	?_Unchecked_begin@?$_Hash@V?$_Umap_traits@KPAUr_table@@V?$_Uhash_compare@KU?$hash@K@std@@U?$equal_to@K@2@@std@@V?$allocator@U?$pair@$$CBKPAUr_table@@@std@@@3@$0A@@std@@@std@@QAE?AV?$_List_unchecked_iterator@V?$_List_val@U?$_List_simple_types@U?$pair@$$CBKPAUr_table@@@std@@@std@@@std@@@2@XZ ; std::_Hash<std::_Umap_traits<unsigned long,r_table *,std::_Uhash_compare<unsigned long,std::hash<unsigned long>,std::equal_to<unsigned long> >,std::allocator<std::pair<unsigned long const ,r_table *> >,0> >::_Unchecked_begin
PUBLIC	?_Min_load_factor_buckets@?$_Hash@V?$_Umap_traits@KPAUr_table@@V?$_Uhash_compare@KU?$hash@K@std@@U?$equal_to@K@2@@std@@V?$allocator@U?$pair@$$CBKPAUr_table@@@std@@@3@$0A@@std@@@std@@IBEII@Z ; std::_Hash<std::_Umap_traits<unsigned long,r_table *,std::_Uhash_compare<unsigned long,std::hash<unsigned long>,std::equal_to<unsigned long> >,std::allocator<std::pair<unsigned long const ,r_table *> >,0> >::_Min_load_factor_buckets
PUBLIC	?_Max_bucket_size@?$_Hash@V?$_Umap_traits@KPAUr_table@@V?$_Uhash_compare@KU?$hash@K@std@@U?$equal_to@K@2@@std@@V?$allocator@U?$pair@$$CBKPAUr_table@@@std@@@3@$0A@@std@@@std@@IBEABMXZ ; std::_Hash<std::_Umap_traits<unsigned long,r_table *,std::_Uhash_compare<unsigned long,std::hash<unsigned long>,std::equal_to<unsigned long> >,std::allocator<std::pair<unsigned long const ,r_table *> >,0> >::_Max_bucket_size
PUBLIC	?_Getal@?$list@U?$pair@$$CBKPAUr_table@@@std@@V?$allocator@U?$pair@$$CBKPAUr_table@@@std@@@2@@std@@ABEABV?$allocator@U?$_List_node@U?$pair@$$CBKPAUr_table@@@std@@PAX@std@@@2@XZ ; std::list<std::pair<unsigned long const ,r_table *>,std::allocator<std::pair<unsigned long const ,r_table *> > >::_Getal
PUBLIC	?deallocate@?$allocator@U?$_List_node@U?$pair@$$CBKPAUr_table@@@std@@PAX@std@@@std@@QAEXQAU?$_List_node@U?$pair@$$CBKPAUr_table@@@std@@PAX@2@I@Z ; std::allocator<std::_List_node<std::pair<unsigned long const ,r_table *>,void *> >::deallocate
PUBLIC	?allocate@?$allocator@U?$_List_node@U?$pair@$$CBKPAUr_table@@@std@@PAX@std@@@std@@QAEPAU?$_List_node@U?$pair@$$CBKPAUr_table@@@std@@PAX@2@I@Z ; std::allocator<std::_List_node<std::pair<unsigned long const ,r_table *>,void *> >::allocate
PUBLIC	?max_size@?$_Default_allocator_traits@V?$allocator@U?$_List_node@U?$pair@$$CBKPAUr_table@@@std@@PAX@std@@@std@@@std@@SAIABV?$allocator@U?$_List_node@U?$pair@$$CBKPAUr_table@@@std@@PAX@std@@@2@@Z ; std::_Default_allocator_traits<std::allocator<std::_List_node<std::pair<unsigned long const ,r_table *>,void *> > >::max_size
PUBLIC	??0?$_List_val@U?$_List_simple_types@U?$pair@$$CBKPAUr_table@@@std@@@std@@@std@@QAE@XZ ; std::_List_val<std::_List_simple_types<std::pair<unsigned long const ,r_table *> > >::_List_val<std::_List_simple_types<std::pair<unsigned long const ,r_table *> > >
PUBLIC	?_Unchecked_splice@?$_List_val@U?$_List_simple_types@U?$pair@$$CBKPAUr_table@@@std@@@std@@@std@@SAPAU?$_List_node@U?$pair@$$CBKPAUr_table@@@std@@PAX@2@QAU32@00@Z ; std::_List_val<std::_List_simple_types<std::pair<unsigned long const ,r_table *> > >::_Unchecked_splice
PUBLIC	??D?$_List_unchecked_iterator@V?$_List_val@U?$_List_simple_types@U?$pair@$$CBKPAUr_table@@@std@@@std@@@std@@@std@@QBEAAU?$pair@$$CBKPAUr_table@@@1@XZ ; std::_List_unchecked_iterator<std::_List_val<std::_List_simple_types<std::pair<unsigned long const ,r_table *> > > >::operator*
PUBLIC	??E?$_List_unchecked_iterator@V?$_List_val@U?$_List_simple_types@U?$pair@$$CBKPAUr_table@@@std@@@std@@@std@@@std@@QAEAAV01@XZ ; std::_List_unchecked_iterator<std::_List_val<std::_List_simple_types<std::pair<unsigned long const ,r_table *> > > >::operator++
PUBLIC	??D?$_List_unchecked_const_iterator@V?$_List_val@U?$_List_simple_types@U?$pair@$$CBKPAUr_table@@@std@@@std@@@std@@U_Iterator_base0@2@@std@@QBEABU?$pair@$$CBKPAUr_table@@@1@XZ ; std::_List_unchecked_const_iterator<std::_List_val<std::_List_simple_types<std::pair<unsigned long const ,r_table *> > >,std::_Iterator_base0>::operator*
PUBLIC	??E?$_List_unchecked_const_iterator@V?$_List_val@U?$_List_simple_types@U?$pair@$$CBKPAUr_table@@@std@@@std@@@std@@U_Iterator_base0@2@@std@@QAEAAV01@XZ ; std::_List_unchecked_const_iterator<std::_List_val<std::_List_simple_types<std::pair<unsigned long const ,r_table *> > >,std::_Iterator_base0>::operator++
PUBLIC	??F?$_List_unchecked_const_iterator@V?$_List_val@U?$_List_simple_types@U?$pair@$$CBKPAUr_table@@@std@@@std@@@std@@U_Iterator_base0@2@@std@@QAEAAV01@XZ ; std::_List_unchecked_const_iterator<std::_List_val<std::_List_simple_types<std::pair<unsigned long const ,r_table *> > >,std::_Iterator_base0>::operator--
PUBLIC	??8?$_List_unchecked_const_iterator@V?$_List_val@U?$_List_simple_types@U?$pair@$$CBKPAUr_table@@@std@@@std@@@std@@U_Iterator_base0@2@@std@@QBE_NABV01@@Z ; std::_List_unchecked_const_iterator<std::_List_val<std::_List_simple_types<std::pair<unsigned long const ,r_table *> > >,std::_Iterator_base0>::operator==
PUBLIC	??0_Clear_guard@?$_Hash@V?$_Umap_traits@KPAUr_table@@V?$_Uhash_compare@KU?$hash@K@std@@U?$equal_to@K@2@@std@@V?$allocator@U?$pair@$$CBKPAUr_table@@@std@@@3@$0A@@std@@@std@@QAE@QAV12@@Z ; std::_Hash<std::_Umap_traits<unsigned long,r_table *,std::_Uhash_compare<unsigned long,std::hash<unsigned long>,std::equal_to<unsigned long> >,std::allocator<std::pair<unsigned long const ,r_table *> >,0> >::_Clear_guard::_Clear_guard
PUBLIC	??1_Clear_guard@?$_Hash@V?$_Umap_traits@KPAUr_table@@V?$_Uhash_compare@KU?$hash@K@std@@U?$equal_to@K@2@@std@@V?$allocator@U?$pair@$$CBKPAUr_table@@@std@@@3@$0A@@std@@@std@@QAE@XZ ; std::_Hash<std::_Umap_traits<unsigned long,r_table *,std::_Uhash_compare<unsigned long,std::hash<unsigned long>,std::equal_to<unsigned long> >,std::allocator<std::pair<unsigned long const ,r_table *> >,0> >::_Clear_guard::~_Clear_guard
PUBLIC	?max_size@?$_Hash_vec@V?$allocator@V?$_List_unchecked_iterator@V?$_List_val@U?$_List_simple_types@U?$pair@$$CBKPAUr_table@@@std@@@std@@@std@@@std@@@std@@@std@@QBEIXZ ; std::_Hash_vec<std::allocator<std::_List_unchecked_iterator<std::_List_val<std::_List_simple_types<std::pair<unsigned long const ,r_table *> > > > > >::max_size
PUBLIC	??0?$_Vector_val@U?$_Simple_types@V?$_List_unchecked_iterator@V?$_List_val@U?$_List_simple_types@U?$pair@$$CBKPAUr_table@@@std@@@std@@@std@@@std@@@std@@@std@@QAE@XZ ; std::_Vector_val<std::_Simple_types<std::_List_unchecked_iterator<std::_List_val<std::_List_simple_types<std::pair<unsigned long const ,r_table *> > > > > >::_Vector_val<std::_Simple_types<std::_List_unchecked_iterator<std::_List_val<std::_List_simple_types<std::pair<unsigned long const ,r_table *> > > > > >
PUBLIC	?_Getal@?$vector@U?$pair@KK@std@@V?$allocator@U?$pair@KK@std@@@2@@std@@ABEABV?$allocator@U?$pair@KK@std@@@2@XZ ; std::vector<std::pair<unsigned long,unsigned long>,std::allocator<std::pair<unsigned long,unsigned long> > >::_Getal
PUBLIC	?max_size@?$_Default_allocator_traits@V?$allocator@U?$pair@KK@std@@@std@@@std@@SAIABV?$allocator@U?$pair@KK@std@@@2@@Z ; std::_Default_allocator_traits<std::allocator<std::pair<unsigned long,unsigned long> > >::max_size
PUBLIC	?_Check_grow_by_1@?$_Tree@V?$_Tmap_traits@EV?$vector@KV?$allocator@K@std@@@std@@U?$less@E@2@V?$allocator@U?$pair@$$CBEV?$vector@KV?$allocator@K@std@@@std@@@std@@@2@$0A@@std@@@std@@IAEXXZ ; std::_Tree<std::_Tmap_traits<unsigned char,std::vector<unsigned long,std::allocator<unsigned long> >,std::less<unsigned char>,std::allocator<std::pair<unsigned char const ,std::vector<unsigned long,std::allocator<unsigned long> > > >,0> >::_Check_grow_by_1
PUBLIC	??0?$allocator@U?$_Tree_node@U?$pair@$$CBEV?$vector@KV?$allocator@K@std@@@std@@@std@@PAX@std@@@std@@QAE@XZ ; std::allocator<std::_Tree_node<std::pair<unsigned char const ,std::vector<unsigned long,std::allocator<unsigned long> > >,void *> >::allocator<std::_Tree_node<std::pair<unsigned char const ,std::vector<unsigned long,std::allocator<unsigned long> > >,void *> >
PUBLIC	?deallocate@?$allocator@U?$_Tree_node@U?$pair@$$CBEV?$vector@KV?$allocator@K@std@@@std@@@std@@PAX@std@@@std@@QAEXQAU?$_Tree_node@U?$pair@$$CBEV?$vector@KV?$allocator@K@std@@@std@@@std@@PAX@2@I@Z ; std::allocator<std::_Tree_node<std::pair<unsigned char const ,std::vector<unsigned long,std::allocator<unsigned long> > >,void *> >::deallocate
PUBLIC	?allocate@?$allocator@U?$_Tree_node@U?$pair@$$CBEV?$vector@KV?$allocator@K@std@@@std@@@std@@PAX@std@@@std@@QAEPAU?$_Tree_node@U?$pair@$$CBEV?$vector@KV?$allocator@K@std@@@std@@@std@@PAX@2@I@Z ; std::allocator<std::_Tree_node<std::pair<unsigned char const ,std::vector<unsigned long,std::allocator<unsigned long> > >,void *> >::allocate
PUBLIC	??0?$_Tree_val@U?$_Tree_simple_types@U?$pair@$$CBEV?$vector@KV?$allocator@K@std@@@std@@@std@@@std@@@std@@QAE@XZ ; std::_Tree_val<std::_Tree_simple_types<std::pair<unsigned char const ,std::vector<unsigned long,std::allocator<unsigned long> > > > >::_Tree_val<std::_Tree_simple_types<std::pair<unsigned char const ,std::vector<unsigned long,std::allocator<unsigned long> > > > >
PUBLIC	?_Insert_node@?$_Tree_val@U?$_Tree_simple_types@U?$pair@$$CBEV?$vector@KV?$allocator@K@std@@@std@@@std@@@std@@@std@@QAEPAU?$_Tree_node@U?$pair@$$CBEV?$vector@KV?$allocator@K@std@@@std@@@std@@PAX@2@U?$_Tree_id@PAU?$_Tree_node@U?$pair@$$CBEV?$vector@KV?$allocator@K@std@@@std@@@std@@PAX@std@@@2@QAU32@@Z ; std::_Tree_val<std::_Tree_simple_types<std::pair<unsigned char const ,std::vector<unsigned long,std::allocator<unsigned long> > > > >::_Insert_node
PUBLIC	?_Get_first@?$_Compressed_pair@U?$less@E@std@@V?$_Compressed_pair@V?$allocator@U?$_Tree_node@U?$pair@$$CBEV?$vector@KV?$allocator@K@std@@@std@@@std@@PAX@std@@@std@@V?$_Tree_val@U?$_Tree_simple_types@U?$pair@$$CBEV?$vector@KV?$allocator@K@std@@@std@@@std@@@std@@@2@$00@2@$00@std@@QBEABU?$less@E@2@XZ ; std::_Compressed_pair<std::less<unsigned char>,std::_Compressed_pair<std::allocator<std::_Tree_node<std::pair<unsigned char const ,std::vector<unsigned long,std::allocator<unsigned long> > >,void *> >,std::_Tree_val<std::_Tree_simple_types<std::pair<unsigned char const ,std::vector<unsigned long,std::allocator<unsigned long> > > > >,1>,1>::_Get_first
PUBLIC	?max_size@?$_Default_allocator_traits@V?$allocator@Uspecial_map@@@std@@@std@@SAIABV?$allocator@Uspecial_map@@@2@@Z ; std::_Default_allocator_traits<std::allocator<special_map> >::max_size
PUBLIC	?_Getal@?$vector@PAV?$vector@Urefine_map@@V?$allocator@Urefine_map@@@std@@@std@@V?$allocator@PAV?$vector@Urefine_map@@V?$allocator@Urefine_map@@@std@@@std@@@2@@std@@ABEABV?$allocator@PAV?$vector@Urefine_map@@V?$allocator@Urefine_map@@@std@@@std@@@2@XZ ; std::vector<std::vector<refine_map,std::allocator<refine_map> > *,std::allocator<std::vector<refine_map,std::allocator<refine_map> > *> >::_Getal
PUBLIC	?max_size@?$_Default_allocator_traits@V?$allocator@PAV?$vector@Urefine_map@@V?$allocator@Urefine_map@@@std@@@std@@@std@@@std@@SAIABV?$allocator@PAV?$vector@Urefine_map@@V?$allocator@Urefine_map@@@std@@@std@@@2@@Z ; std::_Default_allocator_traits<std::allocator<std::vector<refine_map,std::allocator<refine_map> > *> >::max_size
PUBLIC	??0?$_Uninitialized_backout@PAUrefine_map@@@std@@QAE@PAUrefine_map@@@Z ; std::_Uninitialized_backout<refine_map *>::_Uninitialized_backout<refine_map *>
PUBLIC	?_Release@?$_Uninitialized_backout@PAUrefine_map@@@std@@QAEPAUrefine_map@@XZ ; std::_Uninitialized_backout<refine_map *>::_Release
PUBLIC	??0?$_Uninitialized_backout_al@V?$allocator@Urefine_map@@@std@@@std@@QAE@PAUrefine_map@@AAV?$allocator@Urefine_map@@@1@@Z ; std::_Uninitialized_backout_al<std::allocator<refine_map> >::_Uninitialized_backout_al<std::allocator<refine_map> >
PUBLIC	??1?$_Uninitialized_backout_al@V?$allocator@Urefine_map@@@std@@@std@@QAE@XZ ; std::_Uninitialized_backout_al<std::allocator<refine_map> >::~_Uninitialized_backout_al<std::allocator<refine_map> >
PUBLIC	?_Release@?$_Uninitialized_backout_al@V?$allocator@Urefine_map@@@std@@@std@@QAEPAUrefine_map@@XZ ; std::_Uninitialized_backout_al<std::allocator<refine_map> >::_Release
PUBLIC	?_Extract@?$_In_place_key_extract_map_impl@KU?$pair@$$CBKV?$vector@Uspecial_map@@V?$allocator@Uspecial_map@@@std@@@std@@@std@@@std@@SAABKABU?$pair@$$CBKV?$vector@Uspecial_map@@V?$allocator@Uspecial_map@@@std@@@std@@@2@@Z ; std::_In_place_key_extract_map_impl<unsigned long,std::pair<unsigned long const ,std::vector<special_map,std::allocator<special_map> > > >::_Extract
PUBLIC	??0?$_Uninitialized_backout_al@V?$allocator@Uspecial_map@@@std@@@std@@QAE@PAUspecial_map@@AAV?$allocator@Uspecial_map@@@1@@Z ; std::_Uninitialized_backout_al<std::allocator<special_map> >::_Uninitialized_backout_al<std::allocator<special_map> >
PUBLIC	??1?$_Uninitialized_backout_al@V?$allocator@Uspecial_map@@@std@@@std@@QAE@XZ ; std::_Uninitialized_backout_al<std::allocator<special_map> >::~_Uninitialized_backout_al<std::allocator<special_map> >
PUBLIC	?_Release@?$_Uninitialized_backout_al@V?$allocator@Uspecial_map@@@std@@@std@@QAEPAUspecial_map@@XZ ; std::_Uninitialized_backout_al<std::allocator<special_map> >::_Release
PUBLIC	?_Extract@?$_In_place_key_extract_map_impl@EU?$pair@$$CBEV?$vector@KV?$allocator@K@std@@@std@@@std@@@std@@SAABEABU?$pair@$$CBEV?$vector@KV?$allocator@K@std@@@std@@@2@@Z ; std::_In_place_key_extract_map_impl<unsigned char,std::pair<unsigned char const ,std::vector<unsigned long,std::allocator<unsigned long> > > >::_Extract
PUBLIC	??1?$_Tree_temp_node@V?$allocator@U?$_Tree_node@U?$pair@$$CBEV?$vector@KV?$allocator@K@std@@@std@@@std@@PAX@std@@@std@@@std@@QAE@XZ ; std::_Tree_temp_node<std::allocator<std::_Tree_node<std::pair<unsigned char const ,std::vector<unsigned long,std::allocator<unsigned long> > >,void *> > >::~_Tree_temp_node<std::allocator<std::_Tree_node<std::pair<unsigned char const ,std::vector<unsigned long,std::allocator<unsigned long> > >,void *> > >
PUBLIC	?_Release@?$_Alloc_construct_ptr@V?$allocator@U?$_Tree_node@U?$pair@$$CBEV?$vector@KV?$allocator@K@std@@@std@@@std@@PAX@std@@@std@@@std@@QAEPAU?$_Tree_node@U?$pair@$$CBEV?$vector@KV?$allocator@K@std@@@std@@@std@@PAX@2@XZ ; std::_Alloc_construct_ptr<std::allocator<std::_Tree_node<std::pair<unsigned char const ,std::vector<unsigned long,std::allocator<unsigned long> > >,void *> > >::_Release
PUBLIC	??0?$_Uninitialized_backout@PAV?$_List_unchecked_iterator@V?$_List_val@U?$_List_simple_types@U?$pair@$$CBKPAUr_table@@@std@@@std@@@std@@@std@@@std@@QAE@PAV?$_List_unchecked_iterator@V?$_List_val@U?$_List_simple_types@U?$pair@$$CBKPAUr_table@@@std@@@std@@@std@@@1@@Z ; std::_Uninitialized_backout<std::_List_unchecked_iterator<std::_List_val<std::_List_simple_types<std::pair<unsigned long const ,r_table *> > > > *>::_Uninitialized_backout<std::_List_unchecked_iterator<std::_List_val<std::_List_simple_types<std::pair<unsigned long const ,r_table *> > > > *>
PUBLIC	??1?$_Uninitialized_backout@PAV?$_List_unchecked_iterator@V?$_List_val@U?$_List_simple_types@U?$pair@$$CBKPAUr_table@@@std@@@std@@@std@@@std@@@std@@QAE@XZ ; std::_Uninitialized_backout<std::_List_unchecked_iterator<std::_List_val<std::_List_simple_types<std::pair<unsigned long const ,r_table *> > > > *>::~_Uninitialized_backout<std::_List_unchecked_iterator<std::_List_val<std::_List_simple_types<std::pair<unsigned long const ,r_table *> > > > *>
PUBLIC	?_Release@?$_Uninitialized_backout@PAV?$_List_unchecked_iterator@V?$_List_val@U?$_List_simple_types@U?$pair@$$CBKPAUr_table@@@std@@@std@@@std@@@std@@@std@@QAEPAV?$_List_unchecked_iterator@V?$_List_val@U?$_List_simple_types@U?$pair@$$CBKPAUr_table@@@std@@@std@@@std@@@2@XZ ; std::_Uninitialized_backout<std::_List_unchecked_iterator<std::_List_val<std::_List_simple_types<std::pair<unsigned long const ,r_table *> > > > *>::_Release
PUBLIC	??0?$_Uninitialized_backout@PAV?$_List_unchecked_iterator@V?$_List_val@U?$_List_simple_types@U?$pair@$$CBKV?$vector@Uspecial_map@@V?$allocator@Uspecial_map@@@std@@@std@@@std@@@std@@@std@@@std@@@std@@QAE@PAV?$_List_unchecked_iterator@V?$_List_val@U?$_List_simple_types@U?$pair@$$CBKV?$vector@Uspecial_map@@V?$allocator@Uspecial_map@@@std@@@std@@@std@@@std@@@std@@@1@@Z ; std::_Uninitialized_backout<std::_List_unchecked_iterator<std::_List_val<std::_List_simple_types<std::pair<unsigned long const ,std::vector<special_map,std::allocator<special_map> > > > > > *>::_Uninitialized_backout<std::_List_unchecked_iterator<std::_List_val<std::_List_simple_types<std::pair<unsigned long const ,std::vector<special_map,std::allocator<special_map> > > > > > *>
PUBLIC	??1?$_Uninitialized_backout@PAV?$_List_unchecked_iterator@V?$_List_val@U?$_List_simple_types@U?$pair@$$CBKV?$vector@Uspecial_map@@V?$allocator@Uspecial_map@@@std@@@std@@@std@@@std@@@std@@@std@@@std@@QAE@XZ ; std::_Uninitialized_backout<std::_List_unchecked_iterator<std::_List_val<std::_List_simple_types<std::pair<unsigned long const ,std::vector<special_map,std::allocator<special_map> > > > > > *>::~_Uninitialized_backout<std::_List_unchecked_iterator<std::_List_val<std::_List_simple_types<std::pair<unsigned long const ,std::vector<special_map,std::allocator<special_map> > > > > > *>
PUBLIC	?_Release@?$_Uninitialized_backout@PAV?$_List_unchecked_iterator@V?$_List_val@U?$_List_simple_types@U?$pair@$$CBKV?$vector@Uspecial_map@@V?$allocator@Uspecial_map@@@std@@@std@@@std@@@std@@@std@@@std@@@std@@QAEPAV?$_List_unchecked_iterator@V?$_List_val@U?$_List_simple_types@U?$pair@$$CBKV?$vector@Uspecial_map@@V?$allocator@Uspecial_map@@@std@@@std@@@std@@@std@@@std@@@2@XZ ; std::_Uninitialized_backout<std::_List_unchecked_iterator<std::_List_val<std::_List_simple_types<std::pair<unsigned long const ,std::vector<special_map,std::allocator<special_map> > > > > > *>::_Release
PUBLIC	??$_Construct_in_place@PAU?$_List_node@U?$pair@$$CBKV?$vector@Uspecial_map@@V?$allocator@Uspecial_map@@@std@@@std@@@std@@PAX@std@@AAPAU12@@std@@YAXAAPAU?$_List_node@U?$pair@$$CBKV?$vector@Uspecial_map@@V?$allocator@Uspecial_map@@@std@@@std@@@std@@PAX@0@0@Z ; std::_Construct_in_place<std::_List_node<std::pair<unsigned long const ,std::vector<special_map,std::allocator<special_map> > >,void *> *,std::_List_node<std::pair<unsigned long const ,std::vector<special_map,std::allocator<special_map> > >,void *> * &>
PUBLIC	??$_Construct_in_place@PAU?$_List_node@U?$pair@$$CBKPAUr_table@@@std@@PAX@std@@AAPAU12@@std@@YAXAAPAU?$_List_node@U?$pair@$$CBKPAUr_table@@@std@@PAX@0@0@Z ; std::_Construct_in_place<std::_List_node<std::pair<unsigned long const ,r_table *>,void *> *,std::_List_node<std::pair<unsigned long const ,r_table *>,void *> * &>
PUBLIC	??$_Allocate_at_least_helper@V?$allocator@U?$pair@KK@std@@@std@@@std@@YAPAU?$pair@KK@0@AAV?$allocator@U?$pair@KK@std@@@0@AAI@Z ; std::_Allocate_at_least_helper<std::allocator<std::pair<unsigned long,unsigned long> > >
PUBLIC	??$_Allocate_at_least_helper@V?$allocator@PAV?$vector@Urefine_map@@V?$allocator@Urefine_map@@@std@@@std@@@std@@@std@@YAPAPAV?$vector@Urefine_map@@V?$allocator@Urefine_map@@@std@@@0@AAV?$allocator@PAV?$vector@Urefine_map@@V?$allocator@Urefine_map@@@std@@@std@@@0@AAI@Z ; std::_Allocate_at_least_helper<std::allocator<std::vector<refine_map,std::allocator<refine_map> > *> >
PUBLIC	??$_Destroy_range@PAUrefine_map@@PAU1@@std@@YAXPAUrefine_map@@QAU1@@Z ; std::_Destroy_range<refine_map *,refine_map *>
PUBLIC	??$_Emplace_back@ABV?$_List_unchecked_iterator@V?$_List_val@U?$_List_simple_types@U?$pair@$$CBKV?$vector@Uspecial_map@@V?$allocator@Uspecial_map@@@std@@@std@@@std@@@std@@@std@@@std@@@?$_Uninitialized_backout@PAV?$_List_unchecked_iterator@V?$_List_val@U?$_List_simple_types@U?$pair@$$CBKV?$vector@Uspecial_map@@V?$allocator@Uspecial_map@@@std@@@std@@@std@@@std@@@std@@@std@@@std@@QAEXABV?$_List_unchecked_iterator@V?$_List_val@U?$_List_simple_types@U?$pair@$$CBKV?$vector@Uspecial_map@@V?$allocator@Uspecial_map@@@std@@@std@@@std@@@std@@@std@@@1@@Z ; std::_Uninitialized_backout<std::_List_unchecked_iterator<std::_List_val<std::_List_simple_types<std::pair<unsigned long const ,std::vector<special_map,std::allocator<special_map> > > > > > *>::_Emplace_back<std::_List_unchecked_iterator<std::_List_val<std::_List_simple_types<std::pair<unsigned long const ,std::vector<special_map,std::allocator<special_map> > > > > > const &>
PUBLIC	??$_Adl_verify_range@PAV?$_List_unchecked_iterator@V?$_List_val@U?$_List_simple_types@U?$pair@$$CBKV?$vector@Uspecial_map@@V?$allocator@Uspecial_map@@@std@@@std@@@std@@@std@@@std@@@std@@PAV12@@std@@YAXABQAV?$_List_unchecked_iterator@V?$_List_val@U?$_List_simple_types@U?$pair@$$CBKV?$vector@Uspecial_map@@V?$allocator@Uspecial_map@@@std@@@std@@@std@@@std@@@std@@@0@0@Z ; std::_Adl_verify_range<std::_List_unchecked_iterator<std::_List_val<std::_List_simple_types<std::pair<unsigned long const ,std::vector<special_map,std::allocator<special_map> > > > > > *,std::_List_unchecked_iterator<std::_List_val<std::_List_simple_types<std::pair<unsigned long const ,std::vector<special_map,std::allocator<special_map> > > > > > *>
PUBLIC	??$construct_at@PAU?$_List_node@U?$pair@$$CBKPAUr_table@@@std@@PAX@std@@ABQAU12@@std@@YAPAPAU?$_List_node@U?$pair@$$CBKPAUr_table@@@std@@PAX@0@QAPAU10@ABQAU10@@Z ; std::construct_at<std::_List_node<std::pair<unsigned long const ,r_table *>,void *> *,std::_List_node<std::pair<unsigned long const ,r_table *>,void *> * const &>
PUBLIC	??$forward@ABQAU?$_List_node@U?$pair@$$CBKPAUr_table@@@std@@PAX@std@@@std@@YAABQAU?$_List_node@U?$pair@$$CBKPAUr_table@@@std@@PAX@0@ABQAU10@@Z ; std::forward<std::_List_node<std::pair<unsigned long const ,r_table *>,void *> * const &>
PUBLIC	??$addressof@PAU?$_List_node@U?$pair@$$CBKPAUr_table@@@std@@PAX@std@@@std@@YAPAPAU?$_List_node@U?$pair@$$CBKPAUr_table@@@std@@PAX@0@AAPAU10@@Z ; std::addressof<std::_List_node<std::pair<unsigned long const ,r_table *>,void *> *>
PUBLIC	??$_Emplace_back@ABV?$_List_unchecked_iterator@V?$_List_val@U?$_List_simple_types@U?$pair@$$CBKPAUr_table@@@std@@@std@@@std@@@std@@@?$_Uninitialized_backout@PAV?$_List_unchecked_iterator@V?$_List_val@U?$_List_simple_types@U?$pair@$$CBKPAUr_table@@@std@@@std@@@std@@@std@@@std@@QAEXABV?$_List_unchecked_iterator@V?$_List_val@U?$_List_simple_types@U?$pair@$$CBKPAUr_table@@@std@@@std@@@std@@@1@@Z ; std::_Uninitialized_backout<std::_List_unchecked_iterator<std::_List_val<std::_List_simple_types<std::pair<unsigned long const ,r_table *> > > > *>::_Emplace_back<std::_List_unchecked_iterator<std::_List_val<std::_List_simple_types<std::pair<unsigned long const ,r_table *> > > > const &>
PUBLIC	??$_Construct_in_place@PAU?$_Tree_node@U?$pair@$$CBEV?$vector@KV?$allocator@K@std@@@std@@@std@@PAX@std@@ABQAU12@@std@@YAXAAPAU?$_Tree_node@U?$pair@$$CBEV?$vector@KV?$allocator@K@std@@@std@@@std@@PAX@0@ABQAU10@@Z ; std::_Construct_in_place<std::_Tree_node<std::pair<unsigned char const ,std::vector<unsigned long,std::allocator<unsigned long> > >,void *> *,std::_Tree_node<std::pair<unsigned char const ,std::vector<unsigned long,std::allocator<unsigned long> > >,void *> * const &>
PUBLIC	??$destroy_at@U?$pair@$$CBKPAUr_table@@@std@@@std@@YAXQAU?$pair@$$CBKPAUr_table@@@0@@Z ; std::destroy_at<std::pair<unsigned long const ,r_table *> >
PUBLIC	??$?0ABU?$pair@$$CBEV?$vector@KV?$allocator@K@std@@@std@@@std@@@?$_Tree_temp_node@V?$allocator@U?$_Tree_node@U?$pair@$$CBEV?$vector@KV?$allocator@K@std@@@std@@@std@@PAX@std@@@std@@@std@@QAE@AAV?$allocator@U?$_Tree_node@U?$pair@$$CBEV?$vector@KV?$allocator@K@std@@@std@@@std@@PAX@std@@@1@PAU?$_Tree_node@U?$pair@$$CBEV?$vector@KV?$allocator@K@std@@@std@@@std@@PAX@1@ABU?$pair@$$CBEV?$vector@KV?$allocator@K@std@@@std@@@1@@Z ; std::_Tree_temp_node<std::allocator<std::_Tree_node<std::pair<unsigned char const ,std::vector<unsigned long,std::allocator<unsigned long> > >,void *> > >::_Tree_temp_node<std::allocator<std::_Tree_node<std::pair<unsigned char const ,std::vector<unsigned long,std::allocator<unsigned long> > >,void *> > ><std::pair<unsigned char const ,std::vector<unsigned long,std::allocator<unsigned long> > > const &>
PUBLIC	??$forward@ABU?$pair@$$CBEV?$vector@KV?$allocator@K@std@@@std@@@std@@@std@@YAABU?$pair@$$CBEV?$vector@KV?$allocator@K@std@@@std@@@0@ABU10@@Z ; std::forward<std::pair<unsigned char const ,std::vector<unsigned long,std::allocator<unsigned long> > > const &>
PUBLIC	??$_Find_hint@E@?$_Tree@V?$_Tmap_traits@EV?$vector@KV?$allocator@K@std@@@std@@U?$less@E@2@V?$allocator@U?$pair@$$CBEV?$vector@KV?$allocator@K@std@@@std@@@std@@@2@$0A@@std@@@std@@IBE?AU?$_Tree_find_hint_result@PAU?$_Tree_node@U?$pair@$$CBEV?$vector@KV?$allocator@K@std@@@std@@@std@@PAX@std@@@1@QAU?$_Tree_node@U?$pair@$$CBEV?$vector@KV?$allocator@K@std@@@std@@@std@@PAX@1@ABE@Z ; std::_Tree<std::_Tmap_traits<unsigned char,std::vector<unsigned long,std::allocator<unsigned long> >,std::less<unsigned char>,std::allocator<std::pair<unsigned char const ,std::vector<unsigned long,std::allocator<unsigned long> > > >,0> >::_Find_hint<unsigned char>
PUBLIC	??$_Emplace_back@Uspecial_map@@@?$_Uninitialized_backout_al@V?$allocator@Uspecial_map@@@std@@@std@@QAEX$$QAUspecial_map@@@Z ; std::_Uninitialized_backout_al<std::allocator<special_map> >::_Emplace_back<special_map>
PUBLIC	??$_To_address@PAUspecial_map@@@std@@YA?A_PABQAUspecial_map@@@Z ; std::_To_address<special_map *>
PUBLIC	??$_Copy_memmove@PAUspecial_map@@PAU1@@std@@YAPAUspecial_map@@PAU1@00@Z ; std::_Copy_memmove<special_map *,special_map *>
PUBLIC	??$construct_at@Uspecial_map@@U1@@std@@YAPAUspecial_map@@QAU1@$$QAU1@@Z ; std::construct_at<special_map,special_map>
PUBLIC	??$addressof@Uspecial_map@@@std@@YAPAUspecial_map@@AAU1@@Z ; std::addressof<special_map>
PUBLIC	??$?0ABU?$pair@$$CBKV?$vector@Uspecial_map@@V?$allocator@Uspecial_map@@@std@@@std@@@std@@@?$_List_node_emplace_op2@V?$allocator@U?$_List_node@U?$pair@$$CBKV?$vector@Uspecial_map@@V?$allocator@Uspecial_map@@@std@@@std@@@std@@PAX@std@@@std@@@std@@QAE@AAV?$allocator@U?$_List_node@U?$pair@$$CBKV?$vector@Uspecial_map@@V?$allocator@Uspecial_map@@@std@@@std@@@std@@PAX@std@@@1@ABU?$pair@$$CBKV?$vector@Uspecial_map@@V?$allocator@Uspecial_map@@@std@@@std@@@1@@Z ; std::_List_node_emplace_op2<std::allocator<std::_List_node<std::pair<unsigned long const ,std::vector<special_map,std::allocator<special_map> > >,void *> > >::_List_node_emplace_op2<std::allocator<std::_List_node<std::pair<unsigned long const ,std::vector<special_map,std::allocator<special_map> > >,void *> > ><std::pair<unsigned long const ,std::vector<special_map,std::allocator<special_map> > > const &>
PUBLIC	??$forward@ABU?$pair@$$CBKV?$vector@Uspecial_map@@V?$allocator@Uspecial_map@@@std@@@std@@@std@@@std@@YAABU?$pair@$$CBKV?$vector@Uspecial_map@@V?$allocator@Uspecial_map@@@std@@@std@@@0@ABU10@@Z ; std::forward<std::pair<unsigned long const ,std::vector<special_map,std::allocator<special_map> > > const &>
PUBLIC	??$construct@U?$pair@KK@std@@ABU12@@?$_Default_allocator_traits@V?$allocator@U?$pair@KK@std@@@std@@@std@@SAXAAV?$allocator@U?$pair@KK@std@@@1@QAU?$pair@KK@1@ABU31@@Z ; std::_Default_allocator_traits<std::allocator<std::pair<unsigned long,unsigned long> > >::construct<std::pair<unsigned long,unsigned long>,std::pair<unsigned long,unsigned long> const &>
PUBLIC	??$forward@ABU?$pair@KK@std@@@std@@YAABU?$pair@KK@0@ABU10@@Z ; std::forward<std::pair<unsigned long,unsigned long> const &>
PUBLIC	??$_To_address@PAU?$pair@KK@std@@@std@@YA?A_PABQAU?$pair@KK@0@@Z ; std::_To_address<std::pair<unsigned long,unsigned long> *>
PUBLIC	??$_Copy_memmove_tail@PAU?$pair@KK@std@@@std@@YAPAU?$pair@KK@0@QBDQAU10@II@Z ; std::_Copy_memmove_tail<std::pair<unsigned long,unsigned long> *>
PUBLIC	??$move@AAPAU?$pair@KK@std@@@std@@YA$$QAPAU?$pair@KK@0@AAPAU10@@Z ; std::move<std::pair<unsigned long,unsigned long> * &>
PUBLIC	??$destroy@U?$pair@$$CBEV?$vector@KV?$allocator@K@std@@@std@@@std@@@?$_Default_allocator_traits@V?$allocator@U?$_Tree_node@U?$pair@$$CBEV?$vector@KV?$allocator@K@std@@@std@@@std@@PAX@std@@@std@@@std@@SAXAAV?$allocator@U?$_Tree_node@U?$pair@$$CBEV?$vector@KV?$allocator@K@std@@@std@@@std@@PAX@std@@@1@QAU?$pair@$$CBEV?$vector@KV?$allocator@K@std@@@std@@@1@@Z ; std::_Default_allocator_traits<std::allocator<std::_Tree_node<std::pair<unsigned char const ,std::vector<unsigned long,std::allocator<unsigned long> > >,void *> > >::destroy<std::pair<unsigned char const ,std::vector<unsigned long,std::allocator<unsigned long> > > >
PUBLIC	??$addressof@U?$pair@$$CBEV?$vector@KV?$allocator@K@std@@@std@@@std@@@std@@YAPAU?$pair@$$CBEV?$vector@KV?$allocator@K@std@@@std@@@0@AAU10@@Z ; std::addressof<std::pair<unsigned char const ,std::vector<unsigned long,std::allocator<unsigned long> > > >
PUBLIC	??$construct@PAV?$vector@Urefine_map@@V?$allocator@Urefine_map@@@std@@@std@@ABQAV12@@?$_Default_allocator_traits@V?$allocator@PAV?$vector@Urefine_map@@V?$allocator@Urefine_map@@@std@@@std@@@std@@@std@@SAXAAV?$allocator@PAV?$vector@Urefine_map@@V?$allocator@Urefine_map@@@std@@@std@@@1@QAPAV?$vector@Urefine_map@@V?$allocator@Urefine_map@@@std@@@1@ABQAV31@@Z ; std::_Default_allocator_traits<std::allocator<std::vector<refine_map,std::allocator<refine_map> > *> >::construct<std::vector<refine_map,std::allocator<refine_map> > *,std::vector<refine_map,std::allocator<refine_map> > * const &>
PUBLIC	??$forward@ABQAV?$vector@Urefine_map@@V?$allocator@Urefine_map@@@std@@@std@@@std@@YAABQAV?$vector@Urefine_map@@V?$allocator@Urefine_map@@@std@@@0@ABQAV10@@Z ; std::forward<std::vector<refine_map,std::allocator<refine_map> > * const &>
PUBLIC	??$_To_address@PAPAV?$vector@Urefine_map@@V?$allocator@Urefine_map@@@std@@@std@@@std@@YA?A_PABQAPAV?$vector@Urefine_map@@V?$allocator@Urefine_map@@@std@@@0@@Z ; std::_To_address<std::vector<refine_map,std::allocator<refine_map> > * *>
PUBLIC	??$_Copy_memmove_tail@PAPAV?$vector@Urefine_map@@V?$allocator@Urefine_map@@@std@@@std@@@std@@YAPAPAV?$vector@Urefine_map@@V?$allocator@Urefine_map@@@std@@@0@QBDQAPAV10@II@Z ; std::_Copy_memmove_tail<std::vector<refine_map,std::allocator<refine_map> > * *>
PUBLIC	??$move@AAPAPAV?$vector@Urefine_map@@V?$allocator@Urefine_map@@@std@@@std@@@std@@YA$$QAPAPAV?$vector@Urefine_map@@V?$allocator@Urefine_map@@@std@@@0@AAPAPAV10@@Z ; std::move<std::vector<refine_map,std::allocator<refine_map> > * * &>
PUBLIC	??$_Emplace_back@Urefine_map@@@?$_Uninitialized_backout_al@V?$allocator@Urefine_map@@@std@@@std@@QAEX$$QAUrefine_map@@@Z ; std::_Uninitialized_backout_al<std::allocator<refine_map> >::_Emplace_back<refine_map>
PUBLIC	??$_Copy_memmove@PAUrefine_map@@PAU1@@std@@YAPAUrefine_map@@PAU1@00@Z ; std::_Copy_memmove<refine_map *,refine_map *>
PUBLIC	??$construct_at@Urefine_map@@U1@@std@@YAPAUrefine_map@@QAU1@$$QAU1@@Z ; std::construct_at<refine_map,refine_map>
PUBLIC	??$addressof@Urefine_map@@@std@@YAPAUrefine_map@@AAU1@@Z ; std::addressof<refine_map>
PUBLIC	??$construct_at@U?$pair@$$CBKPAUr_table@@@std@@U?$pair@KPAUr_table@@@2@@std@@YAPAU?$pair@$$CBKPAUr_table@@@0@QAU10@$$QAU?$pair@KPAUr_table@@@0@@Z ; std::construct_at<std::pair<unsigned long const ,r_table *>,std::pair<unsigned long,r_table *> >
PUBLIC	??$_Buffered_inplace_merge_divide_and_conquer@PAUrefine_map@@P6A_NU1@0@Z@std@@YAXPAUrefine_map@@00HHQAU1@HP6A_NU1@2@Z@Z ; std::_Buffered_inplace_merge_divide_and_conquer<refine_map *,bool (__cdecl*)(refine_map,refine_map)>
PUBLIC	??$_Inplace_merge_buffer_right@PAUrefine_map@@P6A_NU1@0@Z@std@@YAXPAUrefine_map@@00QAU1@P6A_NU1@2@Z@Z ; std::_Inplace_merge_buffer_right<refine_map *,bool (__cdecl*)(refine_map,refine_map)>
PUBLIC	??$_Inplace_merge_buffer_left@PAUrefine_map@@P6A_NU1@0@Z@std@@YAXPAUrefine_map@@00QAU1@P6A_NU1@2@Z@Z ; std::_Inplace_merge_buffer_left<refine_map *,bool (__cdecl*)(refine_map,refine_map)>
PUBLIC	??$_Move_unchecked@PAUrefine_map@@PAU1@@std@@YAPAUrefine_map@@PAU1@00@Z ; std::_Move_unchecked<refine_map *,refine_map *>
PUBLIC	??$_Merge_move_unchecked@PAUrefine_map@@PAU1@P6A_NU1@0@Z@std@@YAPAUrefine_map@@PAU1@QAU1@10P6A_NU1@2@Z@Z ; std::_Merge_move_unchecked<refine_map *,refine_map *,bool (__cdecl*)(refine_map,refine_map)>
PUBLIC	??$_Uninitialized_move_unchecked@PAUrefine_map@@PAU1@@std@@YAPAUrefine_map@@PAU1@QAU1@0@Z ; std::_Uninitialized_move_unchecked<refine_map *,refine_map *>
PUBLIC	??$_Uninitialized_merge_move@PAUrefine_map@@U1@P6A_NU1@0@Z@std@@YAPAUrefine_map@@PAU1@QAU1@11P6A_NU1@2@Z@Z ; std::_Uninitialized_merge_move<refine_map *,refine_map,bool (__cdecl*)(refine_map,refine_map)>
PUBLIC	??$forward@$$T@std@@YA$$QA$$TAA$$T@Z		; std::forward<std::nullptr_t>
PUBLIC	??$forward@PAUrefine_map@@@std@@YA$$QAPAUrefine_map@@AAPAU1@@Z ; std::forward<refine_map *>
PUBLIC	??$to_address@Urefine_map@@@std@@YAPAUrefine_map@@QAU1@@Z ; std::to_address<refine_map>
PUBLIC	??$?0AAPAKAAPAK$0A@@?$pair@PAKPAK@std@@QAE@AAPAK0@Z ; std::pair<unsigned long *,unsigned long *>::pair<unsigned long *,unsigned long *><unsigned long * &,unsigned long * &,0>
PUBLIC	??$_Next_iter@PAK@std@@YAPAKPAK@Z		; std::_Next_iter<unsigned long *>
PUBLIC	??$_Guess_median_unchecked@PAKU?$less@X@std@@@std@@YAXPAK00U?$less@X@0@@Z ; std::_Guess_median_unchecked<unsigned long *,std::less<void> >
PUBLIC	??$_Prev_iter@PAK@std@@YAPAKPAK@Z		; std::_Prev_iter<unsigned long *>
PUBLIC	??$_Pop_heap_unchecked@PAKU?$less@X@std@@@std@@YAXPAK0U?$less@X@0@@Z ; std::_Pop_heap_unchecked<unsigned long *,std::less<void> >
PUBLIC	??$_Pop_heap_hole_by_index@PAKKU?$less@X@std@@@std@@YAXPAKHH$$QAKU?$less@X@0@@Z ; std::_Pop_heap_hole_by_index<unsigned long *,unsigned long,std::less<void> >
PUBLIC	??$?RAAKAAK@?$less@X@std@@QBE_NAAK0@Z		; std::less<void>::operator()<unsigned long &,unsigned long &>
PUBLIC	??$?0U?$pair@$$CBKV?$vector@Uspecial_map@@V?$allocator@Uspecial_map@@@std@@@std@@@std@@@?$allocator@U?$_List_node@U?$pair@$$CBKV?$vector@Uspecial_map@@V?$allocator@Uspecial_map@@@std@@@std@@@std@@PAX@std@@@std@@QAE@ABV?$allocator@U?$pair@$$CBKV?$vector@Uspecial_map@@V?$allocator@Uspecial_map@@@std@@@std@@@std@@@1@@Z ; std::allocator<std::_List_node<std::pair<unsigned long const ,std::vector<special_map,std::allocator<special_map> > >,void *> >::allocator<std::_List_node<std::pair<unsigned long const ,std::vector<special_map,std::allocator<special_map> > >,void *> ><std::pair<unsigned long const ,std::vector<special_map,std::allocator<special_map> > > >
PUBLIC	??$?0U?$pair@$$CBKPAUr_table@@@std@@@?$allocator@U?$_List_node@U?$pair@$$CBKPAUr_table@@@std@@PAX@std@@@std@@QAE@ABV?$allocator@U?$pair@$$CBKPAUr_table@@@std@@@1@@Z ; std::allocator<std::_List_node<std::pair<unsigned long const ,r_table *>,void *> >::allocator<std::_List_node<std::pair<unsigned long const ,r_table *>,void *> ><std::pair<unsigned long const ,r_table *> >
PUBLIC	??$?0U?$pair@$$CBKV?$vector@Uspecial_map@@V?$allocator@Uspecial_map@@@std@@@std@@@std@@@?$allocator@V?$_List_unchecked_iterator@V?$_List_val@U?$_List_simple_types@U?$pair@$$CBKV?$vector@Uspecial_map@@V?$allocator@Uspecial_map@@@std@@@std@@@std@@@std@@@std@@@std@@@std@@QAE@ABV?$allocator@U?$pair@$$CBKV?$vector@Uspecial_map@@V?$allocator@Uspecial_map@@@std@@@std@@@std@@@1@@Z ; std::allocator<std::_List_unchecked_iterator<std::_List_val<std::_List_simple_types<std::pair<unsigned long const ,std::vector<special_map,std::allocator<special_map> > > > > > >::allocator<std::_List_unchecked_iterator<std::_List_val<std::_List_simple_types<std::pair<unsigned long const ,std::vector<special_map,std::allocator<special_map> > > > > > ><std::pair<unsigned long const ,std::vector<special_map,std::allocator<special_map> > > >
PUBLIC	??$?0U?$pair@$$CBKPAUr_table@@@std@@@?$allocator@V?$_List_unchecked_iterator@V?$_List_val@U?$_List_simple_types@U?$pair@$$CBKPAUr_table@@@std@@@std@@@std@@@std@@@std@@QAE@ABV?$allocator@U?$pair@$$CBKPAUr_table@@@std@@@1@@Z ; std::allocator<std::_List_unchecked_iterator<std::_List_val<std::_List_simple_types<std::pair<unsigned long const ,r_table *> > > > >::allocator<std::_List_unchecked_iterator<std::_List_val<std::_List_simple_types<std::pair<unsigned long const ,r_table *> > > > ><std::pair<unsigned long const ,r_table *> >
PUBLIC	??$?0U?$_List_node@U?$pair@$$CBKV?$vector@Uspecial_map@@V?$allocator@Uspecial_map@@@std@@@std@@@std@@PAX@std@@@?$allocator@V?$_List_unchecked_iterator@V?$_List_val@U?$_List_simple_types@U?$pair@$$CBKV?$vector@Uspecial_map@@V?$allocator@Uspecial_map@@@std@@@std@@@std@@@std@@@std@@@std@@@std@@QAE@ABV?$allocator@U?$_List_node@U?$pair@$$CBKV?$vector@Uspecial_map@@V?$allocator@Uspecial_map@@@std@@@std@@@std@@PAX@std@@@1@@Z ; std::allocator<std::_List_unchecked_iterator<std::_List_val<std::_List_simple_types<std::pair<unsigned long const ,std::vector<special_map,std::allocator<special_map> > > > > > >::allocator<std::_List_unchecked_iterator<std::_List_val<std::_List_simple_types<std::pair<unsigned long const ,std::vector<special_map,std::allocator<special_map> > > > > > ><std::_List_node<std::pair<unsigned long const ,std::vector<special_map,std::allocator<special_map> > >,void *> >
PUBLIC	??$?0AAHAAV?$vector@Uspecial_map@@V?$allocator@Uspecial_map@@@std@@@std@@$0A@@?$pair@$$CBKV?$vector@Uspecial_map@@V?$allocator@Uspecial_map@@@std@@@std@@@std@@QAE@AAHAAV?$vector@Uspecial_map@@V?$allocator@Uspecial_map@@@std@@@1@@Z ; std::pair<unsigned long const ,std::vector<special_map,std::allocator<special_map> > >::pair<unsigned long const ,std::vector<special_map,std::allocator<special_map> > ><int &,std::vector<special_map,std::allocator<special_map> > &,0>
PUBLIC	??_G?$pair@$$CBKV?$vector@Uspecial_map@@V?$allocator@Uspecial_map@@@std@@@std@@@std@@QAEPAXI@Z ; std::pair<unsigned long const ,std::vector<special_map,std::allocator<special_map> > >::`scalar deleting destructor'
PUBLIC	?max_size@?$vector@Uspecial_map@@V?$allocator@Uspecial_map@@@std@@@std@@QBEIXZ ; std::vector<special_map,std::allocator<special_map> >::max_size
PUBLIC	?_Calculate_growth@?$vector@Uspecial_map@@V?$allocator@Uspecial_map@@@std@@@std@@ABEII@Z ; std::vector<special_map,std::allocator<special_map> >::_Calculate_growth
PUBLIC	?_Change_array@?$vector@Uspecial_map@@V?$allocator@Uspecial_map@@@std@@@std@@AAEXQAUspecial_map@@II@Z ; std::vector<special_map,std::allocator<special_map> >::_Change_array
PUBLIC	?_Xlength@?$vector@Uspecial_map@@V?$allocator@Uspecial_map@@@std@@@std@@CAXXZ ; std::vector<special_map,std::allocator<special_map> >::_Xlength
PUBLIC	?_Orphan_range@?$vector@Uspecial_map@@V?$allocator@Uspecial_map@@@std@@@std@@ABEXPAUspecial_map@@0@Z ; std::vector<special_map,std::allocator<special_map> >::_Orphan_range
PUBLIC	?max_size@?$vector@Urefine_map@@V?$allocator@Urefine_map@@@std@@@std@@QBEIXZ ; std::vector<refine_map,std::allocator<refine_map> >::max_size
PUBLIC	?_Calculate_growth@?$vector@Urefine_map@@V?$allocator@Urefine_map@@@std@@@std@@ABEII@Z ; std::vector<refine_map,std::allocator<refine_map> >::_Calculate_growth
PUBLIC	?_Change_array@?$vector@Urefine_map@@V?$allocator@Urefine_map@@@std@@@std@@AAEXQAUrefine_map@@II@Z ; std::vector<refine_map,std::allocator<refine_map> >::_Change_array
PUBLIC	?_Xlength@?$vector@Urefine_map@@V?$allocator@Urefine_map@@@std@@@std@@CAXXZ ; std::vector<refine_map,std::allocator<refine_map> >::_Xlength
PUBLIC	?_Orphan_range@?$vector@Urefine_map@@V?$allocator@Urefine_map@@@std@@@std@@ABEXPAUrefine_map@@0@Z ; std::vector<refine_map,std::allocator<refine_map> >::_Orphan_range
PUBLIC	??1_Reallocation_guard@?$vector@Urefine_map@@V?$allocator@Urefine_map@@@std@@@std@@QAE@XZ ; std::vector<refine_map,std::allocator<refine_map> >::_Reallocation_guard::~_Reallocation_guard
PUBLIC	?_Unchecked_begin@?$_Hash@V?$_Umap_traits@KV?$vector@Uspecial_map@@V?$allocator@Uspecial_map@@@std@@@std@@V?$_Uhash_compare@KU?$hash@K@std@@U?$equal_to@K@2@@2@V?$allocator@U?$pair@$$CBKV?$vector@Uspecial_map@@V?$allocator@Uspecial_map@@@std@@@std@@@std@@@2@$0A@@std@@@std@@QAE?AV?$_List_unchecked_iterator@V?$_List_val@U?$_List_simple_types@U?$pair@$$CBKV?$vector@Uspecial_map@@V?$allocator@Uspecial_map@@@std@@@std@@@std@@@std@@@std@@@2@XZ ; std::_Hash<std::_Umap_traits<unsigned long,std::vector<special_map,std::allocator<special_map> >,std::_Uhash_compare<unsigned long,std::hash<unsigned long>,std::equal_to<unsigned long> >,std::allocator<std::pair<unsigned long const ,std::vector<special_map,std::allocator<special_map> > > >,0> >::_Unchecked_begin
PUBLIC	?_Unchecked_end@?$_Hash@V?$_Umap_traits@KV?$vector@Uspecial_map@@V?$allocator@Uspecial_map@@@std@@@std@@V?$_Uhash_compare@KU?$hash@K@std@@U?$equal_to@K@2@@2@V?$allocator@U?$pair@$$CBKV?$vector@Uspecial_map@@V?$allocator@Uspecial_map@@@std@@@std@@@std@@@2@$0A@@std@@@std@@QAE?AV?$_List_unchecked_iterator@V?$_List_val@U?$_List_simple_types@U?$pair@$$CBKV?$vector@Uspecial_map@@V?$allocator@Uspecial_map@@@std@@@std@@@std@@@std@@@std@@@2@XZ ; std::_Hash<std::_Umap_traits<unsigned long,std::vector<special_map,std::allocator<special_map> >,std::_Uhash_compare<unsigned long,std::hash<unsigned long>,std::equal_to<unsigned long> >,std::allocator<std::pair<unsigned long const ,std::vector<special_map,std::allocator<special_map> > > >,0> >::_Unchecked_end
PUBLIC	?bucket@?$_Hash@V?$_Umap_traits@KV?$vector@Uspecial_map@@V?$allocator@Uspecial_map@@@std@@@std@@V?$_Uhash_compare@KU?$hash@K@std@@U?$equal_to@K@2@@2@V?$allocator@U?$pair@$$CBKV?$vector@Uspecial_map@@V?$allocator@Uspecial_map@@@std@@@std@@@std@@@2@$0A@@std@@@std@@QBEIABK@Z ; std::_Hash<std::_Umap_traits<unsigned long,std::vector<special_map,std::allocator<special_map> >,std::_Uhash_compare<unsigned long,std::hash<unsigned long>,std::equal_to<unsigned long> >,std::allocator<std::pair<unsigned long const ,std::vector<special_map,std::allocator<special_map> > > >,0> >::bucket
PUBLIC	?_Min_load_factor_buckets@?$_Hash@V?$_Umap_traits@KV?$vector@Uspecial_map@@V?$allocator@Uspecial_map@@@std@@@std@@V?$_Uhash_compare@KU?$hash@K@std@@U?$equal_to@K@2@@2@V?$allocator@U?$pair@$$CBKV?$vector@Uspecial_map@@V?$allocator@Uspecial_map@@@std@@@std@@@std@@@2@$0A@@std@@@std@@IBEII@Z ; std::_Hash<std::_Umap_traits<unsigned long,std::vector<special_map,std::allocator<special_map> >,std::_Uhash_compare<unsigned long,std::hash<unsigned long>,std::equal_to<unsigned long> >,std::allocator<std::pair<unsigned long const ,std::vector<special_map,std::allocator<special_map> > > >,0> >::_Min_load_factor_buckets
PUBLIC	?_Max_bucket_size@?$_Hash@V?$_Umap_traits@KV?$vector@Uspecial_map@@V?$allocator@Uspecial_map@@@std@@@std@@V?$_Uhash_compare@KU?$hash@K@std@@U?$equal_to@K@2@@2@V?$allocator@U?$pair@$$CBKV?$vector@Uspecial_map@@V?$allocator@Uspecial_map@@@std@@@std@@@std@@@2@$0A@@std@@@std@@IBEABMXZ ; std::_Hash<std::_Umap_traits<unsigned long,std::vector<special_map,std::allocator<special_map> >,std::_Uhash_compare<unsigned long,std::hash<unsigned long>,std::equal_to<unsigned long> >,std::allocator<std::pair<unsigned long const ,std::vector<special_map,std::allocator<special_map> > > >,0> >::_Max_bucket_size
PUBLIC	?_Alloc_sentinel_and_proxy@?$list@U?$pair@$$CBKV?$vector@Uspecial_map@@V?$allocator@Uspecial_map@@@std@@@std@@@std@@V?$allocator@U?$pair@$$CBKV?$vector@Uspecial_map@@V?$allocator@Uspecial_map@@@std@@@std@@@std@@@2@@std@@AAEXXZ ; std::list<std::pair<unsigned long const ,std::vector<special_map,std::allocator<special_map> > >,std::allocator<std::pair<unsigned long const ,std::vector<special_map,std::allocator<special_map> > > > >::_Alloc_sentinel_and_proxy
PUBLIC	?deallocate@?$allocator@U?$_List_node@U?$pair@$$CBKV?$vector@Uspecial_map@@V?$allocator@Uspecial_map@@@std@@@std@@@std@@PAX@std@@@std@@QAEXQAU?$_List_node@U?$pair@$$CBKV?$vector@Uspecial_map@@V?$allocator@Uspecial_map@@@std@@@std@@@std@@PAX@2@I@Z ; std::allocator<std::_List_node<std::pair<unsigned long const ,std::vector<special_map,std::allocator<special_map> > >,void *> >::deallocate
PUBLIC	?allocate@?$allocator@U?$_List_node@U?$pair@$$CBKV?$vector@Uspecial_map@@V?$allocator@Uspecial_map@@@std@@@std@@@std@@PAX@std@@@std@@QAEPAU?$_List_node@U?$pair@$$CBKV?$vector@Uspecial_map@@V?$allocator@Uspecial_map@@@std@@@std@@@std@@PAX@2@I@Z ; std::allocator<std::_List_node<std::pair<unsigned long const ,std::vector<special_map,std::allocator<special_map> > >,void *> >::allocate
PUBLIC	?deallocate@?$_Default_allocator_traits@V?$allocator@U?$_List_node@U?$pair@$$CBKV?$vector@Uspecial_map@@V?$allocator@Uspecial_map@@@std@@@std@@@std@@PAX@std@@@std@@@std@@SAXAAV?$allocator@U?$_List_node@U?$pair@$$CBKV?$vector@Uspecial_map@@V?$allocator@Uspecial_map@@@std@@@std@@@std@@PAX@std@@@2@QAU?$_List_node@U?$pair@$$CBKV?$vector@Uspecial_map@@V?$allocator@Uspecial_map@@@std@@@std@@@std@@PAX@2@I@Z ; std::_Default_allocator_traits<std::allocator<std::_List_node<std::pair<unsigned long const ,std::vector<special_map,std::allocator<special_map> > >,void *> > >::deallocate
PUBLIC	?max_size@?$_Default_allocator_traits@V?$allocator@U?$_List_node@U?$pair@$$CBKV?$vector@Uspecial_map@@V?$allocator@Uspecial_map@@@std@@@std@@@std@@PAX@std@@@std@@@std@@SAIABV?$allocator@U?$_List_node@U?$pair@$$CBKV?$vector@Uspecial_map@@V?$allocator@Uspecial_map@@@std@@@std@@@std@@PAX@std@@@2@@Z ; std::_Default_allocator_traits<std::allocator<std::_List_node<std::pair<unsigned long const ,std::vector<special_map,std::allocator<special_map> > >,void *> > >::max_size
PUBLIC	?_Unchecked_splice@?$_List_val@U?$_List_simple_types@U?$pair@$$CBKV?$vector@Uspecial_map@@V?$allocator@Uspecial_map@@@std@@@std@@@std@@@std@@@std@@SAPAU?$_List_node@U?$pair@$$CBKV?$vector@Uspecial_map@@V?$allocator@Uspecial_map@@@std@@@std@@@std@@PAX@2@QAU32@00@Z ; std::_List_val<std::_List_simple_types<std::pair<unsigned long const ,std::vector<special_map,std::allocator<special_map> > > > >::_Unchecked_splice
PUBLIC	??D?$_List_unchecked_iterator@V?$_List_val@U?$_List_simple_types@U?$pair@$$CBKV?$vector@Uspecial_map@@V?$allocator@Uspecial_map@@@std@@@std@@@std@@@std@@@std@@@std@@QBEAAU?$pair@$$CBKV?$vector@Uspecial_map@@V?$allocator@Uspecial_map@@@std@@@std@@@1@XZ ; std::_List_unchecked_iterator<std::_List_val<std::_List_simple_types<std::pair<unsigned long const ,std::vector<special_map,std::allocator<special_map> > > > > >::operator*
PUBLIC	??E?$_List_unchecked_iterator@V?$_List_val@U?$_List_simple_types@U?$pair@$$CBKV?$vector@Uspecial_map@@V?$allocator@Uspecial_map@@@std@@@std@@@std@@@std@@@std@@@std@@QAEAAV01@XZ ; std::_List_unchecked_iterator<std::_List_val<std::_List_simple_types<std::pair<unsigned long const ,std::vector<special_map,std::allocator<special_map> > > > > >::operator++
PUBLIC	??F?$_List_unchecked_const_iterator@V?$_List_val@U?$_List_simple_types@U?$pair@$$CBKV?$vector@Uspecial_map@@V?$allocator@Uspecial_map@@@std@@@std@@@std@@@std@@@std@@U_Iterator_base0@2@@std@@QAEAAV01@XZ ; std::_List_unchecked_const_iterator<std::_List_val<std::_List_simple_types<std::pair<unsigned long const ,std::vector<special_map,std::allocator<special_map> > > > >,std::_Iterator_base0>::operator--
PUBLIC	?_Get_first@?$_Compressed_pair@V?$allocator@U?$_List_node@U?$pair@$$CBKV?$vector@Uspecial_map@@V?$allocator@Uspecial_map@@@std@@@std@@@std@@PAX@std@@@std@@V?$_List_val@U?$_List_simple_types@U?$pair@$$CBKV?$vector@Uspecial_map@@V?$allocator@Uspecial_map@@@std@@@std@@@std@@@std@@@2@$00@std@@QBEABV?$allocator@U?$_List_node@U?$pair@$$CBKV?$vector@Uspecial_map@@V?$allocator@Uspecial_map@@@std@@@std@@@std@@PAX@std@@@2@XZ ; std::_Compressed_pair<std::allocator<std::_List_node<std::pair<unsigned long const ,std::vector<special_map,std::allocator<special_map> > >,void *> >,std::_List_val<std::_List_simple_types<std::pair<unsigned long const ,std::vector<special_map,std::allocator<special_map> > > > >,1>::_Get_first
PUBLIC	?allocate@?$allocator@V?$_List_unchecked_iterator@V?$_List_val@U?$_List_simple_types@U?$pair@$$CBKV?$vector@Uspecial_map@@V?$allocator@Uspecial_map@@@std@@@std@@@std@@@std@@@std@@@std@@@std@@QAEPAV?$_List_unchecked_iterator@V?$_List_val@U?$_List_simple_types@U?$pair@$$CBKV?$vector@Uspecial_map@@V?$allocator@Uspecial_map@@@std@@@std@@@std@@@std@@@std@@@2@I@Z ; std::allocator<std::_List_unchecked_iterator<std::_List_val<std::_List_simple_types<std::pair<unsigned long const ,std::vector<special_map,std::allocator<special_map> > > > > > >::allocate
PUBLIC	??0_Clear_guard@?$_Hash@V?$_Umap_traits@KV?$vector@Uspecial_map@@V?$allocator@Uspecial_map@@@std@@@std@@V?$_Uhash_compare@KU?$hash@K@std@@U?$equal_to@K@2@@2@V?$allocator@U?$pair@$$CBKV?$vector@Uspecial_map@@V?$allocator@Uspecial_map@@@std@@@std@@@std@@@2@$0A@@std@@@std@@QAE@QAV12@@Z ; std::_Hash<std::_Umap_traits<unsigned long,std::vector<special_map,std::allocator<special_map> >,std::_Uhash_compare<unsigned long,std::hash<unsigned long>,std::equal_to<unsigned long> >,std::allocator<std::pair<unsigned long const ,std::vector<special_map,std::allocator<special_map> > > >,0> >::_Clear_guard::_Clear_guard
PUBLIC	??1_Clear_guard@?$_Hash@V?$_Umap_traits@KV?$vector@Uspecial_map@@V?$allocator@Uspecial_map@@@std@@@std@@V?$_Uhash_compare@KU?$hash@K@std@@U?$equal_to@K@2@@2@V?$allocator@U?$pair@$$CBKV?$vector@Uspecial_map@@V?$allocator@Uspecial_map@@@std@@@std@@@std@@@2@$0A@@std@@@std@@QAE@XZ ; std::_Hash<std::_Umap_traits<unsigned long,std::vector<special_map,std::allocator<special_map> >,std::_Uhash_compare<unsigned long,std::hash<unsigned long>,std::equal_to<unsigned long> >,std::allocator<std::pair<unsigned long const ,std::vector<special_map,std::allocator<special_map> > > >,0> >::_Clear_guard::~_Clear_guard
PUBLIC	?max_size@?$_Hash_vec@V?$allocator@V?$_List_unchecked_iterator@V?$_List_val@U?$_List_simple_types@U?$pair@$$CBKV?$vector@Uspecial_map@@V?$allocator@Uspecial_map@@@std@@@std@@@std@@@std@@@std@@@std@@@std@@@std@@QBEIXZ ; std::_Hash_vec<std::allocator<std::_List_unchecked_iterator<std::_List_val<std::_List_simple_types<std::pair<unsigned long const ,std::vector<special_map,std::allocator<special_map> > > > > > > >::max_size
PUBLIC	?max_load_factor@?$_Hash@V?$_Umap_traits@KPAUr_table@@V?$_Uhash_compare@KU?$hash@K@std@@U?$equal_to@K@2@@std@@V?$allocator@U?$pair@$$CBKPAUr_table@@@std@@@3@$0A@@std@@@std@@QBEMXZ ; std::_Hash<std::_Umap_traits<unsigned long,r_table *,std::_Uhash_compare<unsigned long,std::hash<unsigned long>,std::equal_to<unsigned long> >,std::allocator<std::pair<unsigned long const ,r_table *> >,0> >::max_load_factor
PUBLIC	?_Desired_grow_bucket_count@?$_Hash@V?$_Umap_traits@KPAUr_table@@V?$_Uhash_compare@KU?$hash@K@std@@U?$equal_to@K@2@@std@@V?$allocator@U?$pair@$$CBKPAUr_table@@@std@@@3@$0A@@std@@@std@@IBEII@Z ; std::_Hash<std::_Umap_traits<unsigned long,r_table *,std::_Uhash_compare<unsigned long,std::hash<unsigned long>,std::equal_to<unsigned long> >,std::allocator<std::pair<unsigned long const ,r_table *> >,0> >::_Desired_grow_bucket_count
PUBLIC	?_Forced_rehash@?$_Hash@V?$_Umap_traits@KPAUr_table@@V?$_Uhash_compare@KU?$hash@K@std@@U?$equal_to@K@2@@std@@V?$allocator@U?$pair@$$CBKPAUr_table@@@std@@@3@$0A@@std@@@std@@IAEXI@Z ; std::_Hash<std::_Umap_traits<unsigned long,r_table *,std::_Uhash_compare<unsigned long,std::hash<unsigned long>,std::equal_to<unsigned long> >,std::allocator<std::pair<unsigned long const ,r_table *> >,0> >::_Forced_rehash
PUBLIC	?max_size@?$list@U?$pair@$$CBKPAUr_table@@@std@@V?$allocator@U?$pair@$$CBKPAUr_table@@@std@@@2@@std@@QBEIXZ ; std::list<std::pair<unsigned long const ,r_table *>,std::allocator<std::pair<unsigned long const ,r_table *> > >::max_size
PUBLIC	?_Alloc_sentinel_and_proxy@?$list@U?$pair@$$CBKPAUr_table@@@std@@V?$allocator@U?$pair@$$CBKPAUr_table@@@std@@@2@@std@@AAEXXZ ; std::list<std::pair<unsigned long const ,r_table *>,std::allocator<std::pair<unsigned long const ,r_table *> > >::_Alloc_sentinel_and_proxy
PUBLIC	?deallocate@?$_Default_allocator_traits@V?$allocator@U?$_List_node@U?$pair@$$CBKPAUr_table@@@std@@PAX@std@@@std@@@std@@SAXAAV?$allocator@U?$_List_node@U?$pair@$$CBKPAUr_table@@@std@@PAX@std@@@2@QAU?$_List_node@U?$pair@$$CBKPAUr_table@@@std@@PAX@2@I@Z ; std::_Default_allocator_traits<std::allocator<std::_List_node<std::pair<unsigned long const ,r_table *>,void *> > >::deallocate
PUBLIC	?_Orphan_ptr2@?$_List_val@U?$_List_simple_types@U?$pair@$$CBKPAUr_table@@@std@@@std@@@std@@QAEXPAU?$_List_node@U?$pair@$$CBKPAUr_table@@@std@@PAX@2@@Z ; std::_List_val<std::_List_simple_types<std::pair<unsigned long const ,r_table *> > >::_Orphan_ptr2
PUBLIC	?_Get_first@?$_Compressed_pair@V?$allocator@U?$_List_node@U?$pair@$$CBKPAUr_table@@@std@@PAX@std@@@std@@V?$_List_val@U?$_List_simple_types@U?$pair@$$CBKPAUr_table@@@std@@@std@@@2@$00@std@@QAEAAV?$allocator@U?$_List_node@U?$pair@$$CBKPAUr_table@@@std@@PAX@std@@@2@XZ ; std::_Compressed_pair<std::allocator<std::_List_node<std::pair<unsigned long const ,r_table *>,void *> >,std::_List_val<std::_List_simple_types<std::pair<unsigned long const ,r_table *> > >,1>::_Get_first
PUBLIC	?allocate@?$allocator@V?$_List_unchecked_iterator@V?$_List_val@U?$_List_simple_types@U?$pair@$$CBKPAUr_table@@@std@@@std@@@std@@@std@@@std@@QAEPAV?$_List_unchecked_iterator@V?$_List_val@U?$_List_simple_types@U?$pair@$$CBKPAUr_table@@@std@@@std@@@std@@@2@I@Z ; std::allocator<std::_List_unchecked_iterator<std::_List_val<std::_List_simple_types<std::pair<unsigned long const ,r_table *> > > > >::allocate
PUBLIC	?size@?$_Hash_vec@V?$allocator@V?$_List_unchecked_iterator@V?$_List_val@U?$_List_simple_types@U?$pair@$$CBKPAUr_table@@@std@@@std@@@std@@@std@@@std@@@std@@QBEIXZ ; std::_Hash_vec<std::allocator<std::_List_unchecked_iterator<std::_List_val<std::_List_simple_types<std::pair<unsigned long const ,r_table *> > > > > >::size
PUBLIC	?max_size@?$vector@U?$pair@KK@std@@V?$allocator@U?$pair@KK@std@@@2@@std@@QBEIXZ ; std::vector<std::pair<unsigned long,unsigned long>,std::allocator<std::pair<unsigned long,unsigned long> > >::max_size
PUBLIC	?_Buy_raw@?$vector@U?$pair@KK@std@@V?$allocator@U?$pair@KK@std@@@2@@std@@AAEXI@Z ; std::vector<std::pair<unsigned long,unsigned long>,std::allocator<std::pair<unsigned long,unsigned long> > >::_Buy_raw
PUBLIC	?_Xlength@?$vector@U?$pair@KK@std@@V?$allocator@U?$pair@KK@std@@@2@@std@@CAXXZ ; std::vector<std::pair<unsigned long,unsigned long>,std::allocator<std::pair<unsigned long,unsigned long> > >::_Xlength
PUBLIC	?_Get_first@?$_Compressed_pair@V?$allocator@U?$pair@KK@std@@@std@@V?$_Vector_val@U?$_Simple_types@U?$pair@KK@std@@@std@@@2@$00@std@@QAEAAV?$allocator@U?$pair@KK@std@@@2@XZ ; std::_Compressed_pair<std::allocator<std::pair<unsigned long,unsigned long> >,std::_Vector_val<std::_Simple_types<std::pair<unsigned long,unsigned long> > >,1>::_Get_first
PUBLIC	?_Getcomp@?$_Tree@V?$_Tmap_traits@EV?$vector@KV?$allocator@K@std@@@std@@U?$less@E@2@V?$allocator@U?$pair@$$CBEV?$vector@KV?$allocator@K@std@@@std@@@std@@@2@$0A@@std@@@std@@IBEABU?$less@E@2@XZ ; std::_Tree<std::_Tmap_traits<unsigned char,std::vector<unsigned long,std::allocator<unsigned long> >,std::less<unsigned char>,std::allocator<std::pair<unsigned char const ,std::vector<unsigned long,std::allocator<unsigned long> > > >,0> >::_Getcomp
PUBLIC	?deallocate@?$_Default_allocator_traits@V?$allocator@U?$_Tree_node@U?$pair@$$CBEV?$vector@KV?$allocator@K@std@@@std@@@std@@PAX@std@@@std@@@std@@SAXAAV?$allocator@U?$_Tree_node@U?$pair@$$CBEV?$vector@KV?$allocator@K@std@@@std@@@std@@PAX@std@@@2@QAU?$_Tree_node@U?$pair@$$CBEV?$vector@KV?$allocator@K@std@@@std@@@std@@PAX@2@I@Z ; std::_Default_allocator_traits<std::allocator<std::_Tree_node<std::pair<unsigned char const ,std::vector<unsigned long,std::allocator<unsigned long> > >,void *> > >::deallocate
PUBLIC	??1_Reallocation_guard@?$vector@Uspecial_map@@V?$allocator@Uspecial_map@@@std@@@std@@QAE@XZ ; std::vector<special_map,std::allocator<special_map> >::_Reallocation_guard::~_Reallocation_guard
PUBLIC	?max_size@?$vector@PAV?$vector@Urefine_map@@V?$allocator@Urefine_map@@@std@@@std@@V?$allocator@PAV?$vector@Urefine_map@@V?$allocator@Urefine_map@@@std@@@std@@@2@@std@@QBEIXZ ; std::vector<std::vector<refine_map,std::allocator<refine_map> > *,std::allocator<std::vector<refine_map,std::allocator<refine_map> > *> >::max_size
PUBLIC	?_Buy_raw@?$vector@PAV?$vector@Urefine_map@@V?$allocator@Urefine_map@@@std@@@std@@V?$allocator@PAV?$vector@Urefine_map@@V?$allocator@Urefine_map@@@std@@@std@@@2@@std@@AAEXI@Z ; std::vector<std::vector<refine_map,std::allocator<refine_map> > *,std::allocator<std::vector<refine_map,std::allocator<refine_map> > *> >::_Buy_raw
PUBLIC	?_Xlength@?$vector@PAV?$vector@Urefine_map@@V?$allocator@Urefine_map@@@std@@@std@@V?$allocator@PAV?$vector@Urefine_map@@V?$allocator@Urefine_map@@@std@@@std@@@2@@std@@CAXXZ ; std::vector<std::vector<refine_map,std::allocator<refine_map> > *,std::allocator<std::vector<refine_map,std::allocator<refine_map> > *> >::_Xlength
PUBLIC	?_Get_first@?$_Compressed_pair@V?$allocator@PAV?$vector@Urefine_map@@V?$allocator@Urefine_map@@@std@@@std@@@std@@V?$_Vector_val@U?$_Simple_types@PAV?$vector@Urefine_map@@V?$allocator@Urefine_map@@@std@@@std@@@std@@@2@$00@std@@QAEAAV?$allocator@PAV?$vector@Urefine_map@@V?$allocator@Urefine_map@@@std@@@std@@@2@XZ ; std::_Compressed_pair<std::allocator<std::vector<refine_map,std::allocator<refine_map> > *>,std::_Vector_val<std::_Simple_types<std::vector<refine_map,std::allocator<refine_map> > *> >,1>::_Get_first
PUBLIC	??0?$_Alloc_construct_ptr@V?$allocator@U?$_List_node@U?$pair@$$CBKPAUr_table@@@std@@PAX@std@@@std@@@std@@QAE@AAV?$allocator@U?$_List_node@U?$pair@$$CBKPAUr_table@@@std@@PAX@std@@@1@@Z ; std::_Alloc_construct_ptr<std::allocator<std::_List_node<std::pair<unsigned long const ,r_table *>,void *> > >::_Alloc_construct_ptr<std::allocator<std::_List_node<std::pair<unsigned long const ,r_table *>,void *> > >
PUBLIC	?_Allocate@?$_Alloc_construct_ptr@V?$allocator@U?$_List_node@U?$pair@$$CBKPAUr_table@@@std@@PAX@std@@@std@@@std@@QAEXXZ ; std::_Alloc_construct_ptr<std::allocator<std::_List_node<std::pair<unsigned long const ,r_table *>,void *> > >::_Allocate
PUBLIC	??1?$_Alloc_construct_ptr@V?$allocator@U?$_List_node@U?$pair@$$CBKPAUr_table@@@std@@PAX@std@@@std@@@std@@QAE@XZ ; std::_Alloc_construct_ptr<std::allocator<std::_List_node<std::pair<unsigned long const ,r_table *>,void *> > >::~_Alloc_construct_ptr<std::allocator<std::_List_node<std::pair<unsigned long const ,r_table *>,void *> > >
PUBLIC	??0?$_Uninitialized_backout@PAUrefine_map@@@std@@QAE@PAUrefine_map@@0@Z ; std::_Uninitialized_backout<refine_map *>::_Uninitialized_backout<refine_map *>
PUBLIC	??1?$_Uninitialized_backout@PAUrefine_map@@@std@@QAE@XZ ; std::_Uninitialized_backout<refine_map *>::~_Uninitialized_backout<refine_map *>
PUBLIC	??0?$_Uninitialized_backout_al@V?$allocator@PAV?$vector@Urefine_map@@V?$allocator@Urefine_map@@@std@@@std@@@std@@@std@@QAE@PAPAV?$vector@Urefine_map@@V?$allocator@Urefine_map@@@std@@@1@AAV?$allocator@PAV?$vector@Urefine_map@@V?$allocator@Urefine_map@@@std@@@std@@@1@@Z ; std::_Uninitialized_backout_al<std::allocator<std::vector<refine_map,std::allocator<refine_map> > *> >::_Uninitialized_backout_al<std::allocator<std::vector<refine_map,std::allocator<refine_map> > *> >
PUBLIC	??1?$_Uninitialized_backout_al@V?$allocator@PAV?$vector@Urefine_map@@V?$allocator@Urefine_map@@@std@@@std@@@std@@@std@@QAE@XZ ; std::_Uninitialized_backout_al<std::allocator<std::vector<refine_map,std::allocator<refine_map> > *> >::~_Uninitialized_backout_al<std::allocator<std::vector<refine_map,std::allocator<refine_map> > *> >
PUBLIC	?_Release@?$_Uninitialized_backout_al@V?$allocator@PAV?$vector@Urefine_map@@V?$allocator@Urefine_map@@@std@@@std@@@std@@@std@@QAEPAPAV?$vector@Urefine_map@@V?$allocator@Urefine_map@@@std@@@2@XZ ; std::_Uninitialized_backout_al<std::allocator<std::vector<refine_map,std::allocator<refine_map> > *> >::_Release
PUBLIC	??0?$_Uninitialized_backout_al@V?$allocator@U?$pair@KK@std@@@std@@@std@@QAE@PAU?$pair@KK@1@AAV?$allocator@U?$pair@KK@std@@@1@@Z ; std::_Uninitialized_backout_al<std::allocator<std::pair<unsigned long,unsigned long> > >::_Uninitialized_backout_al<std::allocator<std::pair<unsigned long,unsigned long> > >
PUBLIC	??1?$_Uninitialized_backout_al@V?$allocator@U?$pair@KK@std@@@std@@@std@@QAE@XZ ; std::_Uninitialized_backout_al<std::allocator<std::pair<unsigned long,unsigned long> > >::~_Uninitialized_backout_al<std::allocator<std::pair<unsigned long,unsigned long> > >
PUBLIC	?_Release@?$_Uninitialized_backout_al@V?$allocator@U?$pair@KK@std@@@std@@@std@@QAEPAU?$pair@KK@2@XZ ; std::_Uninitialized_backout_al<std::allocator<std::pair<unsigned long,unsigned long> > >::_Release
PUBLIC	??$?0ABV?$allocator@U?$pair@$$CBKV?$vector@Uspecial_map@@V?$allocator@Uspecial_map@@@std@@@std@@@std@@@std@@$$V@?$_Compressed_pair@V?$allocator@U?$_List_node@U?$pair@$$CBKV?$vector@Uspecial_map@@V?$allocator@Uspecial_map@@@std@@@std@@@std@@PAX@std@@@std@@V?$_List_val@U?$_List_simple_types@U?$pair@$$CBKV?$vector@Uspecial_map@@V?$allocator@Uspecial_map@@@std@@@std@@@std@@@std@@@2@$00@std@@QAE@U_One_then_variadic_args_t@1@ABV?$allocator@U?$pair@$$CBKV?$vector@Uspecial_map@@V?$allocator@Uspecial_map@@@std@@@std@@@std@@@1@@Z ; std::_Compressed_pair<std::allocator<std::_List_node<std::pair<unsigned long const ,std::vector<special_map,std::allocator<special_map> > >,void *> >,std::_List_val<std::_List_simple_types<std::pair<unsigned long const ,std::vector<special_map,std::allocator<special_map> > > > >,1>::_Compressed_pair<std::allocator<std::_List_node<std::pair<unsigned long const ,std::vector<special_map,std::allocator<special_map> > >,void *> >,std::_List_val<std::_List_simple_types<std::pair<unsigned long const ,std::vector<special_map,std::allocator<special_map> > > > >,1><std::allocator<std::pair<unsigned long const ,std::vector<special_map,std::allocator<special_map> > > > const &>
PUBLIC	??$fill@PAV?$_List_unchecked_iterator@V?$_List_val@U?$_List_simple_types@U?$pair@$$CBKV?$vector@Uspecial_map@@V?$allocator@Uspecial_map@@@std@@@std@@@std@@@std@@@std@@@std@@V12@@std@@YAXQAV?$_List_unchecked_iterator@V?$_List_val@U?$_List_simple_types@U?$pair@$$CBKV?$vector@Uspecial_map@@V?$allocator@Uspecial_map@@@std@@@std@@@std@@@std@@@std@@@0@0ABV10@@Z ; std::fill<std::_List_unchecked_iterator<std::_List_val<std::_List_simple_types<std::pair<unsigned long const ,std::vector<special_map,std::allocator<special_map> > > > > > *,std::_List_unchecked_iterator<std::_List_val<std::_List_simple_types<std::pair<unsigned long const ,std::vector<special_map,std::allocator<special_map> > > > > > >
PUBLIC	??$uninitialized_fill@PAV?$_List_unchecked_iterator@V?$_List_val@U?$_List_simple_types@U?$pair@$$CBKV?$vector@Uspecial_map@@V?$allocator@Uspecial_map@@@std@@@std@@@std@@@std@@@std@@@std@@V12@@std@@YAXQAV?$_List_unchecked_iterator@V?$_List_val@U?$_List_simple_types@U?$pair@$$CBKV?$vector@Uspecial_map@@V?$allocator@Uspecial_map@@@std@@@std@@@std@@@std@@@std@@@0@0ABV10@@Z ; std::uninitialized_fill<std::_List_unchecked_iterator<std::_List_val<std::_List_simple_types<std::pair<unsigned long const ,std::vector<special_map,std::allocator<special_map> > > > > > *,std::_List_unchecked_iterator<std::_List_val<std::_List_simple_types<std::pair<unsigned long const ,std::vector<special_map,std::allocator<special_map> > > > > > >
PUBLIC	??$_Get_unwrapped@ABQAV?$_List_unchecked_iterator@V?$_List_val@U?$_List_simple_types@U?$pair@$$CBKV?$vector@Uspecial_map@@V?$allocator@Uspecial_map@@@std@@@std@@@std@@@std@@@std@@@std@@@std@@YA?A_TABQAV?$_List_unchecked_iterator@V?$_List_val@U?$_List_simple_types@U?$pair@$$CBKV?$vector@Uspecial_map@@V?$allocator@Uspecial_map@@@std@@@std@@@std@@@std@@@std@@@0@@Z ; std::_Get_unwrapped<std::_List_unchecked_iterator<std::_List_val<std::_List_simple_types<std::pair<unsigned long const ,std::vector<special_map,std::allocator<special_map> > > > > > * const &>
PUBLIC	??$_Construct_in_place@PAU?$_List_node@U?$pair@$$CBKPAUr_table@@@std@@PAX@std@@ABQAU12@@std@@YAXAAPAU?$_List_node@U?$pair@$$CBKPAUr_table@@@std@@PAX@0@ABQAU10@@Z ; std::_Construct_in_place<std::_List_node<std::pair<unsigned long const ,r_table *>,void *> *,std::_List_node<std::pair<unsigned long const ,r_table *>,void *> * const &>
PUBLIC	??$?0ABV?$allocator@U?$pair@$$CBKPAUr_table@@@std@@@std@@$$V@?$_Compressed_pair@V?$allocator@U?$_List_node@U?$pair@$$CBKPAUr_table@@@std@@PAX@std@@@std@@V?$_List_val@U?$_List_simple_types@U?$pair@$$CBKPAUr_table@@@std@@@std@@@2@$00@std@@QAE@U_One_then_variadic_args_t@1@ABV?$allocator@U?$pair@$$CBKPAUr_table@@@std@@@1@@Z ; std::_Compressed_pair<std::allocator<std::_List_node<std::pair<unsigned long const ,r_table *>,void *> >,std::_List_val<std::_List_simple_types<std::pair<unsigned long const ,r_table *> > >,1>::_Compressed_pair<std::allocator<std::_List_node<std::pair<unsigned long const ,r_table *>,void *> >,std::_List_val<std::_List_simple_types<std::pair<unsigned long const ,r_table *> > >,1><std::allocator<std::pair<unsigned long const ,r_table *> > const &>
PUBLIC	??$uninitialized_fill@PAV?$_List_unchecked_iterator@V?$_List_val@U?$_List_simple_types@U?$pair@$$CBKPAUr_table@@@std@@@std@@@std@@@std@@V12@@std@@YAXQAV?$_List_unchecked_iterator@V?$_List_val@U?$_List_simple_types@U?$pair@$$CBKPAUr_table@@@std@@@std@@@std@@@0@0ABV10@@Z ; std::uninitialized_fill<std::_List_unchecked_iterator<std::_List_val<std::_List_simple_types<std::pair<unsigned long const ,r_table *> > > > *,std::_List_unchecked_iterator<std::_List_val<std::_List_simple_types<std::pair<unsigned long const ,r_table *> > > > >
PUBLIC	??$_Buyheadnode@V?$allocator@U?$_Tree_node@U?$pair@$$CBEV?$vector@KV?$allocator@K@std@@@std@@@std@@PAX@std@@@std@@@?$_Tree_node@U?$pair@$$CBEV?$vector@KV?$allocator@K@std@@@std@@@std@@PAX@std@@SAPAU01@AAV?$allocator@U?$_Tree_node@U?$pair@$$CBEV?$vector@KV?$allocator@K@std@@@std@@@std@@PAX@std@@@1@@Z ; std::_Tree_node<std::pair<unsigned char const ,std::vector<unsigned long,std::allocator<unsigned long> > >,void *>::_Buyheadnode<std::allocator<std::_Tree_node<std::pair<unsigned char const ,std::vector<unsigned long,std::allocator<unsigned long> > >,void *> > >
PUBLIC	??$destroy@U?$pair@$$CBKPAUr_table@@@std@@@?$_Default_allocator_traits@V?$allocator@U?$_List_node@U?$pair@$$CBKPAUr_table@@@std@@PAX@std@@@std@@@std@@SAXAAV?$allocator@U?$_List_node@U?$pair@$$CBKPAUr_table@@@std@@PAX@std@@@1@QAU?$pair@$$CBKPAUr_table@@@1@@Z ; std::_Default_allocator_traits<std::allocator<std::_List_node<std::pair<unsigned long const ,r_table *>,void *> > >::destroy<std::pair<unsigned long const ,r_table *> >
PUBLIC	??$exchange@PAU?$_List_node@U?$pair@$$CBKPAUr_table@@@std@@PAX@std@@$$T@std@@YAPAU?$_List_node@U?$pair@$$CBKPAUr_table@@@std@@PAX@0@AAPAU10@$$QA$$T@Z ; std::exchange<std::_List_node<std::pair<unsigned long const ,r_table *>,void *> *,std::nullptr_t>
PUBLIC	??$?0ABV?$allocator@U?$pair@$$CBKV?$vector@Uspecial_map@@V?$allocator@Uspecial_map@@@std@@@std@@@std@@@std@@$$V@?$_Compressed_pair@V?$allocator@V?$_List_unchecked_iterator@V?$_List_val@U?$_List_simple_types@U?$pair@$$CBKV?$vector@Uspecial_map@@V?$allocator@Uspecial_map@@@std@@@std@@@std@@@std@@@std@@@std@@@std@@V?$_Vector_val@U?$_Simple_types@V?$_List_unchecked_iterator@V?$_List_val@U?$_List_simple_types@U?$pair@$$CBKV?$vector@Uspecial_map@@V?$allocator@Uspecial_map@@@std@@@std@@@std@@@std@@@std@@@std@@@std@@@2@$00@std@@QAE@U_One_then_variadic_args_t@1@ABV?$allocator@U?$pair@$$CBKV?$vector@Uspecial_map@@V?$allocator@Uspecial_map@@@std@@@std@@@std@@@1@@Z ; std::_Compressed_pair<std::allocator<std::_List_unchecked_iterator<std::_List_val<std::_List_simple_types<std::pair<unsigned long const ,std::vector<special_map,std::allocator<special_map> > > > > > >,std::_Vector_val<std::_Simple_types<std::_List_unchecked_iterator<std::_List_val<std::_List_simple_types<std::pair<unsigned long const ,std::vector<special_map,std::allocator<special_map> > > > > > > >,1>::_Compressed_pair<std::allocator<std::_List_unchecked_iterator<std::_List_val<std::_List_simple_types<std::pair<unsigned long const ,std::vector<special_map,std::allocator<special_map> > > > > > >,std::_Vector_val<std::_Simple_types<std::_List_unchecked_iterator<std::_List_val<std::_List_simple_types<std::pair<unsigned long const ,std::vector<special_map,std::allocator<special_map> > > > > > > >,1><std::allocator<std::pair<unsigned long const ,std::vector<special_map,std::allocator<special_map> > > > const &>
PUBLIC	??$forward@ABV?$allocator@U?$pair@$$CBKV?$vector@Uspecial_map@@V?$allocator@Uspecial_map@@@std@@@std@@@std@@@std@@@std@@YAABV?$allocator@U?$pair@$$CBKV?$vector@Uspecial_map@@V?$allocator@Uspecial_map@@@std@@@std@@@std@@@0@ABV10@@Z ; std::forward<std::allocator<std::pair<unsigned long const ,std::vector<special_map,std::allocator<special_map> > > > const &>
PUBLIC	??$construct_at@PAU?$_List_node@U?$pair@$$CBKV?$vector@Uspecial_map@@V?$allocator@Uspecial_map@@@std@@@std@@@std@@PAX@std@@ABQAU12@@std@@YAPAPAU?$_List_node@U?$pair@$$CBKV?$vector@Uspecial_map@@V?$allocator@Uspecial_map@@@std@@@std@@@std@@PAX@0@QAPAU10@ABQAU10@@Z ; std::construct_at<std::_List_node<std::pair<unsigned long const ,std::vector<special_map,std::allocator<special_map> > >,void *> *,std::_List_node<std::pair<unsigned long const ,std::vector<special_map,std::allocator<special_map> > >,void *> * const &>
PUBLIC	??$forward@ABQAU?$_List_node@U?$pair@$$CBKV?$vector@Uspecial_map@@V?$allocator@Uspecial_map@@@std@@@std@@@std@@PAX@std@@@std@@YAABQAU?$_List_node@U?$pair@$$CBKV?$vector@Uspecial_map@@V?$allocator@Uspecial_map@@@std@@@std@@@std@@PAX@0@ABQAU10@@Z ; std::forward<std::_List_node<std::pair<unsigned long const ,std::vector<special_map,std::allocator<special_map> > >,void *> * const &>
PUBLIC	??$addressof@PAU?$_List_node@U?$pair@$$CBKV?$vector@Uspecial_map@@V?$allocator@Uspecial_map@@@std@@@std@@@std@@PAX@std@@@std@@YAPAPAU?$_List_node@U?$pair@$$CBKV?$vector@Uspecial_map@@V?$allocator@Uspecial_map@@@std@@@std@@@std@@PAX@0@AAPAU10@@Z ; std::addressof<std::_List_node<std::pair<unsigned long const ,std::vector<special_map,std::allocator<special_map> > >,void *> *>
PUBLIC	??$_Destroy_in_place@PAU?$_List_node@U?$pair@$$CBKV?$vector@Uspecial_map@@V?$allocator@Uspecial_map@@@std@@@std@@@std@@PAX@std@@@std@@YAXAAPAU?$_List_node@U?$pair@$$CBKV?$vector@Uspecial_map@@V?$allocator@Uspecial_map@@@std@@@std@@@std@@PAX@0@@Z ; std::_Destroy_in_place<std::_List_node<std::pair<unsigned long const ,std::vector<special_map,std::allocator<special_map> > >,void *> *>
PUBLIC	??$_Freenode@V?$allocator@U?$_List_node@U?$pair@$$CBKV?$vector@Uspecial_map@@V?$allocator@Uspecial_map@@@std@@@std@@@std@@PAX@std@@@std@@@?$_List_node@U?$pair@$$CBKV?$vector@Uspecial_map@@V?$allocator@Uspecial_map@@@std@@@std@@@std@@PAX@std@@SAXAAV?$allocator@U?$_List_node@U?$pair@$$CBKV?$vector@Uspecial_map@@V?$allocator@Uspecial_map@@@std@@@std@@@std@@PAX@std@@@1@PAU01@@Z ; std::_List_node<std::pair<unsigned long const ,std::vector<special_map,std::allocator<special_map> > >,void *>::_Freenode<std::allocator<std::_List_node<std::pair<unsigned long const ,std::vector<special_map,std::allocator<special_map> > >,void *> > >
PUBLIC	??$?0ABV?$allocator@U?$pair@$$CBKPAUr_table@@@std@@@std@@$$V@?$_Compressed_pair@V?$allocator@V?$_List_unchecked_iterator@V?$_List_val@U?$_List_simple_types@U?$pair@$$CBKPAUr_table@@@std@@@std@@@std@@@std@@@std@@V?$_Vector_val@U?$_Simple_types@V?$_List_unchecked_iterator@V?$_List_val@U?$_List_simple_types@U?$pair@$$CBKPAUr_table@@@std@@@std@@@std@@@std@@@std@@@2@$00@std@@QAE@U_One_then_variadic_args_t@1@ABV?$allocator@U?$pair@$$CBKPAUr_table@@@std@@@1@@Z ; std::_Compressed_pair<std::allocator<std::_List_unchecked_iterator<std::_List_val<std::_List_simple_types<std::pair<unsigned long const ,r_table *> > > > >,std::_Vector_val<std::_Simple_types<std::_List_unchecked_iterator<std::_List_val<std::_List_simple_types<std::pair<unsigned long const ,r_table *> > > > > >,1>::_Compressed_pair<std::allocator<std::_List_unchecked_iterator<std::_List_val<std::_List_simple_types<std::pair<unsigned long const ,r_table *> > > > >,std::_Vector_val<std::_Simple_types<std::_List_unchecked_iterator<std::_List_val<std::_List_simple_types<std::pair<unsigned long const ,r_table *> > > > > >,1><std::allocator<std::pair<unsigned long const ,r_table *> > const &>
PUBLIC	??$forward@ABV?$allocator@U?$pair@$$CBKPAUr_table@@@std@@@std@@@std@@YAABV?$allocator@U?$pair@$$CBKPAUr_table@@@std@@@0@ABV10@@Z ; std::forward<std::allocator<std::pair<unsigned long const ,r_table *> > const &>
PUBLIC	??$_Destroy_in_place@PAU?$_List_node@U?$pair@$$CBKPAUr_table@@@std@@PAX@std@@@std@@YAXAAPAU?$_List_node@U?$pair@$$CBKPAUr_table@@@std@@PAX@0@@Z ; std::_Destroy_in_place<std::_List_node<std::pair<unsigned long const ,r_table *>,void *> *>
PUBLIC	??$_Freenode@V?$allocator@U?$_List_node@U?$pair@$$CBKPAUr_table@@@std@@PAX@std@@@std@@@?$_List_node@U?$pair@$$CBKPAUr_table@@@std@@PAX@std@@SAXAAV?$allocator@U?$_List_node@U?$pair@$$CBKPAUr_table@@@std@@PAX@std@@@1@PAU01@@Z ; std::_List_node<std::pair<unsigned long const ,r_table *>,void *>::_Freenode<std::allocator<std::_List_node<std::pair<unsigned long const ,r_table *>,void *> > >
PUBLIC	??$_Emplace_hint@ABU?$pair@$$CBEV?$vector@KV?$allocator@K@std@@@std@@@std@@@?$_Tree@V?$_Tmap_traits@EV?$vector@KV?$allocator@K@std@@@std@@U?$less@E@2@V?$allocator@U?$pair@$$CBEV?$vector@KV?$allocator@K@std@@@std@@@std@@@2@$0A@@std@@@std@@IAEPAU?$_Tree_node@U?$pair@$$CBEV?$vector@KV?$allocator@K@std@@@std@@@std@@PAX@1@QAU21@ABU?$pair@$$CBEV?$vector@KV?$allocator@K@std@@@std@@@1@@Z ; std::_Tree<std::_Tmap_traits<unsigned char,std::vector<unsigned long,std::allocator<unsigned long> >,std::less<unsigned char>,std::allocator<std::pair<unsigned char const ,std::vector<unsigned long,std::allocator<unsigned long> > > >,0> >::_Emplace_hint<std::pair<unsigned char const ,std::vector<unsigned long,std::allocator<unsigned long> > > const &>
PUBLIC	??1?$pair@$$CBKV?$vector@Uspecial_map@@V?$allocator@Uspecial_map@@@std@@@std@@@std@@QAE@XZ ; std::pair<unsigned long const ,std::vector<special_map,std::allocator<special_map> > >::~pair<unsigned long const ,std::vector<special_map,std::allocator<special_map> > >
PUBLIC	??$destroy_at@U?$pair@$$CBKV?$vector@Uspecial_map@@V?$allocator@Uspecial_map@@@std@@@std@@@std@@@std@@YAXQAU?$pair@$$CBKV?$vector@Uspecial_map@@V?$allocator@Uspecial_map@@@std@@@std@@@0@@Z ; std::destroy_at<std::pair<unsigned long const ,std::vector<special_map,std::allocator<special_map> > > >
PUBLIC	??$_Copy_memmove@PBKPAK@std@@YAPAKPBK0PAK@Z	; std::_Copy_memmove<unsigned long const *,unsigned long *>
PUBLIC	??$to_address@$$CBK@std@@YAPBKQBK@Z		; std::to_address<unsigned long const >
PUBLIC	??$_Uninitialized_move@PAUspecial_map@@V?$allocator@Uspecial_map@@@std@@@std@@YAPAUspecial_map@@QAU1@0PAU1@AAV?$allocator@Uspecial_map@@@0@@Z ; std::_Uninitialized_move<special_map *,std::allocator<special_map> >
PUBLIC	??$_Get_unwrapped@ABQAUspecial_map@@@std@@YA?A_TABQAUspecial_map@@@Z ; std::_Get_unwrapped<special_map * const &>
PUBLIC	??$construct@Uspecial_map@@U1@@?$_Default_allocator_traits@V?$allocator@Uspecial_map@@@std@@@std@@SAXAAV?$allocator@Uspecial_map@@@1@QAUspecial_map@@$$QAU3@@Z ; std::_Default_allocator_traits<std::allocator<special_map> >::construct<special_map,special_map>
PUBLIC	??$_Unfancy@Uspecial_map@@@std@@YAPAUspecial_map@@PAU1@@Z ; std::_Unfancy<special_map>
PUBLIC	??$_Allocate_at_least_helper@V?$allocator@Uspecial_map@@@std@@@std@@YAPAUspecial_map@@AAV?$allocator@Uspecial_map@@@0@AAI@Z ; std::_Allocate_at_least_helper<std::allocator<special_map> >
PUBLIC	??$_Construct_in_place@Uspecial_map@@U1@@std@@YAXAAUspecial_map@@$$QAU1@@Z ; std::_Construct_in_place<special_map,special_map>
PUBLIC	??$emplace@ABU?$pair@$$CBKV?$vector@Uspecial_map@@V?$allocator@Uspecial_map@@@std@@@std@@@std@@@?$_Hash@V?$_Umap_traits@KV?$vector@Uspecial_map@@V?$allocator@Uspecial_map@@@std@@@std@@V?$_Uhash_compare@KU?$hash@K@std@@U?$equal_to@K@2@@2@V?$allocator@U?$pair@$$CBKV?$vector@Uspecial_map@@V?$allocator@Uspecial_map@@@std@@@std@@@std@@@2@$0A@@std@@@std@@QAE?AU?$pair@V?$_List_iterator@V?$_List_val@U?$_List_simple_types@U?$pair@$$CBKV?$vector@Uspecial_map@@V?$allocator@Uspecial_map@@@std@@@std@@@std@@@std@@@std@@@std@@_N@1@ABU?$pair@$$CBKV?$vector@Uspecial_map@@V?$allocator@Uspecial_map@@@std@@@std@@@1@@Z ; std::_Hash<std::_Umap_traits<unsigned long,std::vector<special_map,std::allocator<special_map> >,std::_Uhash_compare<unsigned long,std::hash<unsigned long>,std::equal_to<unsigned long> >,std::allocator<std::pair<unsigned long const ,std::vector<special_map,std::allocator<special_map> > > >,0> >::emplace<std::pair<unsigned long const ,std::vector<special_map,std::allocator<special_map> > > const &>
PUBLIC	??$?0ABV?$allocator@U?$_List_node@U?$pair@$$CBKV?$vector@Uspecial_map@@V?$allocator@Uspecial_map@@@std@@@std@@@std@@PAX@std@@@std@@$$V@?$_Compressed_pair@V?$allocator@V?$_List_unchecked_iterator@V?$_List_val@U?$_List_simple_types@U?$pair@$$CBKV?$vector@Uspecial_map@@V?$allocator@Uspecial_map@@@std@@@std@@@std@@@std@@@std@@@std@@@std@@V?$_Vector_val@U?$_Simple_types@V?$_List_unchecked_iterator@V?$_List_val@U?$_List_simple_types@U?$pair@$$CBKV?$vector@Uspecial_map@@V?$allocator@Uspecial_map@@@std@@@std@@@std@@@std@@@std@@@std@@@std@@@2@$00@std@@QAE@U_One_then_variadic_args_t@1@ABV?$allocator@U?$_List_node@U?$pair@$$CBKV?$vector@Uspecial_map@@V?$allocator@Uspecial_map@@@std@@@std@@@std@@PAX@std@@@1@@Z ; std::_Compressed_pair<std::allocator<std::_List_unchecked_iterator<std::_List_val<std::_List_simple_types<std::pair<unsigned long const ,std::vector<special_map,std::allocator<special_map> > > > > > >,std::_Vector_val<std::_Simple_types<std::_List_unchecked_iterator<std::_List_val<std::_List_simple_types<std::pair<unsigned long const ,std::vector<special_map,std::allocator<special_map> > > > > > > >,1>::_Compressed_pair<std::allocator<std::_List_unchecked_iterator<std::_List_val<std::_List_simple_types<std::pair<unsigned long const ,std::vector<special_map,std::allocator<special_map> > > > > > >,std::_Vector_val<std::_Simple_types<std::_List_unchecked_iterator<std::_List_val<std::_List_simple_types<std::pair<unsigned long const ,std::vector<special_map,std::allocator<special_map> > > > > > > >,1><std::allocator<std::_List_node<std::pair<unsigned long const ,std::vector<special_map,std::allocator<special_map> > >,void *> > const &>
PUBLIC	??$forward@ABV?$allocator@U?$_List_node@U?$pair@$$CBKV?$vector@Uspecial_map@@V?$allocator@Uspecial_map@@@std@@@std@@@std@@PAX@std@@@std@@@std@@YAABV?$allocator@U?$_List_node@U?$pair@$$CBKV?$vector@Uspecial_map@@V?$allocator@Uspecial_map@@@std@@@std@@@std@@PAX@std@@@0@ABV10@@Z ; std::forward<std::allocator<std::_List_node<std::pair<unsigned long const ,std::vector<special_map,std::allocator<special_map> > >,void *> > const &>
PUBLIC	??$_Emplace_back@ABU?$pair@KK@std@@@?$_Uninitialized_backout_al@V?$allocator@U?$pair@KK@std@@@std@@@std@@QAEXABU?$pair@KK@1@@Z ; std::_Uninitialized_backout_al<std::allocator<std::pair<unsigned long,unsigned long> > >::_Emplace_back<std::pair<unsigned long,unsigned long> const &>
PUBLIC	??$_Copy_memmove@PBU?$pair@KK@std@@PAU12@@std@@YAPAU?$pair@KK@0@PBU10@0PAU10@@Z ; std::_Copy_memmove<std::pair<unsigned long,unsigned long> const *,std::pair<unsigned long,unsigned long> *>
PUBLIC	??$_Unfancy@U?$pair@KK@std@@@std@@YAPAU?$pair@KK@0@PAU10@@Z ; std::_Unfancy<std::pair<unsigned long,unsigned long> >
PUBLIC	??$to_address@$$CBU?$pair@KK@std@@@std@@YAPBU?$pair@KK@0@QBU10@@Z ; std::to_address<std::pair<unsigned long,unsigned long> const >
PUBLIC	??$move@AAPBU?$pair@KK@std@@@std@@YA$$QAPBU?$pair@KK@0@AAPBU10@@Z ; std::move<std::pair<unsigned long,unsigned long> const * &>
PUBLIC	??$_Destroy_in_place@PAU?$_Tree_node@U?$pair@$$CBEV?$vector@KV?$allocator@K@std@@@std@@@std@@PAX@std@@@std@@YAXAAPAU?$_Tree_node@U?$pair@$$CBEV?$vector@KV?$allocator@K@std@@@std@@@std@@PAX@0@@Z ; std::_Destroy_in_place<std::_Tree_node<std::pair<unsigned char const ,std::vector<unsigned long,std::allocator<unsigned long> > >,void *> *>
PUBLIC	??$_Freenode@V?$allocator@U?$_Tree_node@U?$pair@$$CBEV?$vector@KV?$allocator@K@std@@@std@@@std@@PAX@std@@@std@@@?$_Tree_node@U?$pair@$$CBEV?$vector@KV?$allocator@K@std@@@std@@@std@@PAX@std@@SAXAAV?$allocator@U?$_Tree_node@U?$pair@$$CBEV?$vector@KV?$allocator@K@std@@@std@@@std@@PAX@std@@@1@PAU01@@Z ; std::_Tree_node<std::pair<unsigned char const ,std::vector<unsigned long,std::allocator<unsigned long> > >,void *>::_Freenode<std::allocator<std::_Tree_node<std::pair<unsigned char const ,std::vector<unsigned long,std::allocator<unsigned long> > >,void *> > >
PUBLIC	??$exchange@PAU?$_Tree_node@U?$pair@$$CBEV?$vector@KV?$allocator@K@std@@@std@@@std@@PAX@std@@AAPAU12@@std@@YAPAU?$_Tree_node@U?$pair@$$CBEV?$vector@KV?$allocator@K@std@@@std@@@std@@PAX@0@AAPAU10@0@Z ; std::exchange<std::_Tree_node<std::pair<unsigned char const ,std::vector<unsigned long,std::allocator<unsigned long> > >,void *> *,std::_Tree_node<std::pair<unsigned char const ,std::vector<unsigned long,std::allocator<unsigned long> > >,void *> * &>
PUBLIC	??$_Kfn@$$CBEV?$vector@KV?$allocator@K@std@@@std@@@?$_Tmap_traits@EV?$vector@KV?$allocator@K@std@@@std@@U?$less@E@2@V?$allocator@U?$pair@$$CBEV?$vector@KV?$allocator@K@std@@@std@@@std@@@2@$0A@@std@@SAABEABU?$pair@$$CBEV?$vector@KV?$allocator@K@std@@@std@@@1@@Z ; std::_Tmap_traits<unsigned char,std::vector<unsigned long,std::allocator<unsigned long> >,std::less<unsigned char>,std::allocator<std::pair<unsigned char const ,std::vector<unsigned long,std::allocator<unsigned long> > > >,0>::_Kfn<unsigned char const ,std::vector<unsigned long,std::allocator<unsigned long> > >
PUBLIC	??$_Emplace_back@ABQAV?$vector@Urefine_map@@V?$allocator@Urefine_map@@@std@@@std@@@?$_Uninitialized_backout_al@V?$allocator@PAV?$vector@Urefine_map@@V?$allocator@Urefine_map@@@std@@@std@@@std@@@std@@QAEXABQAV?$vector@Urefine_map@@V?$allocator@Urefine_map@@@std@@@1@@Z ; std::_Uninitialized_backout_al<std::allocator<std::vector<refine_map,std::allocator<refine_map> > *> >::_Emplace_back<std::vector<refine_map,std::allocator<refine_map> > * const &>
PUBLIC	??$_Copy_memmove@PBQAV?$vector@Urefine_map@@V?$allocator@Urefine_map@@@std@@@std@@PAPAV12@@std@@YAPAPAV?$vector@Urefine_map@@V?$allocator@Urefine_map@@@std@@@0@PBQAV10@0PAPAV10@@Z ; std::_Copy_memmove<std::vector<refine_map,std::allocator<refine_map> > * const *,std::vector<refine_map,std::allocator<refine_map> > * *>
PUBLIC	??$_Unfancy@PAV?$vector@Urefine_map@@V?$allocator@Urefine_map@@@std@@@std@@@std@@YAPAPAV?$vector@Urefine_map@@V?$allocator@Urefine_map@@@std@@@0@PAPAV10@@Z ; std::_Unfancy<std::vector<refine_map,std::allocator<refine_map> > *>
PUBLIC	??$to_address@QAV?$vector@Urefine_map@@V?$allocator@Urefine_map@@@std@@@std@@@std@@YAPBQAV?$vector@Urefine_map@@V?$allocator@Urefine_map@@@std@@@0@QBQAV10@@Z ; std::to_address<std::vector<refine_map,std::allocator<refine_map> > * const>
PUBLIC	??$move@AAPBQAV?$vector@Urefine_map@@V?$allocator@Urefine_map@@@std@@@std@@@std@@YA$$QAPBQAV?$vector@Urefine_map@@V?$allocator@Urefine_map@@@std@@@0@AAPBQAV10@@Z ; std::move<std::vector<refine_map,std::allocator<refine_map> > * const * &>
PUBLIC	??$_Uninitialized_move@PAUrefine_map@@V?$allocator@Urefine_map@@@std@@@std@@YAPAUrefine_map@@QAU1@0PAU1@AAV?$allocator@Urefine_map@@@0@@Z ; std::_Uninitialized_move<refine_map *,std::allocator<refine_map> >
PUBLIC	??$_Get_unwrapped@ABQAUrefine_map@@@std@@YA?A_TABQAUrefine_map@@@Z ; std::_Get_unwrapped<refine_map * const &>
PUBLIC	??$construct@Urefine_map@@U1@@?$_Default_allocator_traits@V?$allocator@Urefine_map@@@std@@@std@@SAXAAV?$allocator@Urefine_map@@@1@QAUrefine_map@@$$QAU3@@Z ; std::_Default_allocator_traits<std::allocator<refine_map> >::construct<refine_map,refine_map>
PUBLIC	??$_Unfancy@Urefine_map@@@std@@YAPAUrefine_map@@PAU1@@Z ; std::_Unfancy<refine_map>
PUBLIC	??$_Allocate_at_least_helper@V?$allocator@Urefine_map@@@std@@@std@@YAPAUrefine_map@@AAV?$allocator@Urefine_map@@@0@AAI@Z ; std::_Allocate_at_least_helper<std::allocator<refine_map> >
PUBLIC	??$_Construct_in_place@Urefine_map@@U1@@std@@YAXAAUrefine_map@@$$QAU1@@Z ; std::_Construct_in_place<refine_map,refine_map>
PUBLIC	??$forward@V?$_List_iterator@V?$_List_val@U?$_List_simple_types@U?$pair@$$CBKPAUr_table@@@std@@@std@@@std@@@std@@@std@@YA$$QAV?$_List_iterator@V?$_List_val@U?$_List_simple_types@U?$pair@$$CBKPAUr_table@@@std@@@std@@@std@@@0@AAV10@@Z ; std::forward<std::_List_iterator<std::_List_val<std::_List_simple_types<std::pair<unsigned long const ,r_table *> > > > >
PUBLIC	??$construct@U?$pair@$$CBKPAUr_table@@@std@@U?$pair@KPAUr_table@@@2@@?$_Default_allocator_traits@V?$allocator@U?$_List_node@U?$pair@$$CBKPAUr_table@@@std@@PAX@std@@@std@@@std@@SAXAAV?$allocator@U?$_List_node@U?$pair@$$CBKPAUr_table@@@std@@PAX@std@@@1@QAU?$pair@$$CBKPAUr_table@@@1@$$QAU?$pair@KPAUr_table@@@1@@Z ; std::_Default_allocator_traits<std::allocator<std::_List_node<std::pair<unsigned long const ,r_table *>,void *> > >::construct<std::pair<unsigned long const ,r_table *>,std::pair<unsigned long,r_table *> >
PUBLIC	??$_Buffered_inplace_merge_unchecked_impl@PAUrefine_map@@P6A_NU1@0@Z@std@@YAXPAUrefine_map@@00HHQAU1@HP6A_NU1@2@Z@Z ; std::_Buffered_inplace_merge_unchecked_impl<refine_map *,bool (__cdecl*)(refine_map,refine_map)>
PUBLIC	??$_Rotate_one_left@PAUrefine_map@@@std@@YAXPAUrefine_map@@00@Z ; std::_Rotate_one_left<refine_map *>
PUBLIC	??$_Rotate_one_right@PAUrefine_map@@@std@@YAXPAUrefine_map@@00@Z ; std::_Rotate_one_right<refine_map *>
PUBLIC	??$_Prev_iter@PAUrefine_map@@@std@@YAPAUrefine_map@@PAU1@@Z ; std::_Prev_iter<refine_map *>
PUBLIC	??$_Chunked_merge_unchecked@PAUrefine_map@@PAU1@P6A_NU1@0@Z@std@@YAXPAUrefine_map@@QAU1@0HHP6A_NU1@2@Z@Z ; std::_Chunked_merge_unchecked<refine_map *,refine_map *,bool (__cdecl*)(refine_map,refine_map)>
PUBLIC	??$_Uninitialized_chunked_merge_unchecked2@PAUrefine_map@@U1@P6A_NU1@0@Z@std@@YAXPAUrefine_map@@QAU1@0HP6A_NU1@2@Z@Z ; std::_Uninitialized_chunked_merge_unchecked2<refine_map *,refine_map,bool (__cdecl*)(refine_map,refine_map)>
PUBLIC	??$_Insertion_sort_isort_max_chunks@PAUrefine_map@@P6A_NU1@0@Z@std@@YAXPAUrefine_map@@QAU1@HP6A_NU1@2@Z@Z ; std::_Insertion_sort_isort_max_chunks<refine_map *,bool (__cdecl*)(refine_map,refine_map)>
PUBLIC	??$advance@PAUrefine_map@@H@std@@YAXAAPAUrefine_map@@H@Z ; std::advance<refine_map *,int>
PUBLIC	??$?0$$TH$0A@@?$pair@PAUrefine_map@@H@std@@QAE@$$QA$$T$$QAH@Z ; std::pair<refine_map *,int>::pair<refine_map *,int><std::nullptr_t,int,0>
PUBLIC	??$?0PAUrefine_map@@AAH$0A@@?$pair@PAUrefine_map@@H@std@@QAE@$$QAPAUrefine_map@@AAH@Z ; std::pair<refine_map *,int>::pair<refine_map *,int><refine_map *,int &,0>
PUBLIC	??$_To_address@PAUrefine_map@@@std@@YA?A_PABQAUrefine_map@@@Z ; std::_To_address<refine_map *>
PUBLIC	??$_Copy_backward_memmove@PAUrefine_map@@PAU1@@std@@YAPAUrefine_map@@PAU1@00@Z ; std::_Copy_backward_memmove<refine_map *,refine_map *>
PUBLIC	??$construct_at@U?$pair@$$CBKV?$vector@Uspecial_map@@V?$allocator@Uspecial_map@@@std@@@std@@@std@@AAHAAV?$vector@Uspecial_map@@V?$allocator@Uspecial_map@@@std@@@2@@std@@YAPAU?$pair@$$CBKV?$vector@Uspecial_map@@V?$allocator@Uspecial_map@@@std@@@std@@@0@QAU10@AAHAAV?$vector@Uspecial_map@@V?$allocator@Uspecial_map@@@std@@@0@@Z ; std::construct_at<std::pair<unsigned long const ,std::vector<special_map,std::allocator<special_map> > >,int &,std::vector<special_map,std::allocator<special_map> > &>
PUBLIC	??$_Copy_backward_memmove@PAKPAK@std@@YAPAKPAK00@Z ; std::_Copy_backward_memmove<unsigned long *,unsigned long *>
PUBLIC	??$_Emplace_back@ABK@?$_Uninitialized_backout_al@V?$allocator@K@std@@@std@@QAEXABK@Z ; std::_Uninitialized_backout_al<std::allocator<unsigned long> >::_Emplace_back<unsigned long const &>
PUBLIC	??$_Copy_memmove_n@PBKPAK@std@@YAPAKPBKIPAK@Z	; std::_Copy_memmove_n<unsigned long const *,unsigned long *>
PUBLIC	??$_Partition_by_median_guess_unchecked@PAKU?$less@X@std@@@std@@YA?AU?$pair@PAKPAK@0@PAK0U?$less@X@0@@Z ; std::_Partition_by_median_guess_unchecked<unsigned long *,std::less<void> >
PUBLIC	??$_Sort_heap_unchecked@PAKU?$less@X@std@@@std@@YAXPAK0U?$less@X@0@@Z ; std::_Sort_heap_unchecked<unsigned long *,std::less<void> >
PUBLIC	??$_Make_heap_unchecked@PAKU?$less@X@std@@@std@@YAXPAK0U?$less@X@0@@Z ; std::_Make_heap_unchecked<unsigned long *,std::less<void> >
PUBLIC	??$_Insertion_sort_unchecked@PAKU?$less@X@std@@@std@@YAPAKQAK0U?$less@X@0@@Z ; std::_Insertion_sort_unchecked<unsigned long *,std::less<void> >
PUBLIC	??$?0$$V@?$_Compressed_pair@V?$allocator@U?$_Tree_node@U?$pair@$$CBEV?$vector@KV?$allocator@K@std@@@std@@@std@@PAX@std@@@std@@V?$_Tree_val@U?$_Tree_simple_types@U?$pair@$$CBEV?$vector@KV?$allocator@K@std@@@std@@@std@@@std@@@2@$00@std@@QAE@U_Zero_then_variadic_args_t@1@@Z ; std::_Compressed_pair<std::allocator<std::_Tree_node<std::pair<unsigned char const ,std::vector<unsigned long,std::allocator<unsigned long> > >,void *> >,std::_Tree_val<std::_Tree_simple_types<std::pair<unsigned char const ,std::vector<unsigned long,std::allocator<unsigned long> > > > >,1>::_Compressed_pair<std::allocator<std::_Tree_node<std::pair<unsigned char const ,std::vector<unsigned long,std::allocator<unsigned long> > >,void *> >,std::_Tree_val<std::_Tree_simple_types<std::pair<unsigned char const ,std::vector<unsigned long,std::allocator<unsigned long> > > > >,1><>
PUBLIC	??0?$_List_unchecked_iterator@V?$_List_val@U?$_List_simple_types@U?$pair@$$CBKV?$vector@Uspecial_map@@V?$allocator@Uspecial_map@@@std@@@std@@@std@@@std@@@std@@@std@@QAE@PAU?$_List_node@U?$pair@$$CBKV?$vector@Uspecial_map@@V?$allocator@Uspecial_map@@@std@@@std@@@std@@PAX@1@PBV?$_List_val@U?$_List_simple_types@U?$pair@$$CBKV?$vector@Uspecial_map@@V?$allocator@Uspecial_map@@@std@@@std@@@std@@@std@@@1@@Z ; std::_List_unchecked_iterator<std::_List_val<std::_List_simple_types<std::pair<unsigned long const ,std::vector<special_map,std::allocator<special_map> > > > > >::_List_unchecked_iterator<std::_List_val<std::_List_simple_types<std::pair<unsigned long const ,std::vector<special_map,std::allocator<special_map> > > > > >
PUBLIC	??0?$_List_unchecked_iterator@V?$_List_val@U?$_List_simple_types@U?$pair@$$CBKPAUr_table@@@std@@@std@@@std@@@std@@QAE@PAU?$_List_node@U?$pair@$$CBKPAUr_table@@@std@@PAX@1@PBV?$_List_val@U?$_List_simple_types@U?$pair@$$CBKPAUr_table@@@std@@@std@@@1@@Z ; std::_List_unchecked_iterator<std::_List_val<std::_List_simple_types<std::pair<unsigned long const ,r_table *> > > >::_List_unchecked_iterator<std::_List_val<std::_List_simple_types<std::pair<unsigned long const ,r_table *> > > >
PUBLIC	??0?$_Vector_val@U?$_Simple_types@K@std@@@std@@QAE@PAK00@Z ; std::_Vector_val<std::_Simple_types<unsigned long> >::_Vector_val<std::_Simple_types<unsigned long> >
PUBLIC	??1_Vaporization_guard@?$vector@KV?$allocator@K@std@@@std@@QAE@XZ ; std::vector<unsigned long,std::allocator<unsigned long> >::_Vaporization_guard::~_Vaporization_guard
PUBLIC	??0?$allocator@Uspecial_map@@@std@@QAE@XZ	; std::allocator<special_map>::allocator<special_map>
PUBLIC	?deallocate@?$allocator@Uspecial_map@@@std@@QAEXQAUspecial_map@@I@Z ; std::allocator<special_map>::deallocate
PUBLIC	??0?$allocator@Urefine_map@@@std@@QAE@XZ	; std::allocator<refine_map>::allocator<refine_map>
PUBLIC	?deallocate@?$allocator@Urefine_map@@@std@@QAEXQAUrefine_map@@I@Z ; std::allocator<refine_map>::deallocate
PUBLIC	??0?$_Vector_val@U?$_Simple_types@Urefine_map@@@std@@@std@@QAE@XZ ; std::_Vector_val<std::_Simple_types<refine_map> >::_Vector_val<std::_Simple_types<refine_map> >
PUBLIC	?_Get_first@?$_Compressed_pair@V?$allocator@Urefine_map@@@std@@V?$_Vector_val@U?$_Simple_types@Urefine_map@@@std@@@2@$00@std@@QAEAAV?$allocator@Urefine_map@@@2@XZ ; std::_Compressed_pair<std::allocator<refine_map>,std::_Vector_val<std::_Simple_types<refine_map> >,1>::_Get_first
PUBLIC	??0?$_Umap_traits@KV?$vector@Uspecial_map@@V?$allocator@Uspecial_map@@@std@@@std@@V?$_Uhash_compare@KU?$hash@K@std@@U?$equal_to@K@2@@2@V?$allocator@U?$pair@$$CBKV?$vector@Uspecial_map@@V?$allocator@Uspecial_map@@@std@@@std@@@std@@@2@$0A@@std@@QAE@ABV?$_Uhash_compare@KU?$hash@K@std@@U?$equal_to@K@2@@1@@Z ; std::_Umap_traits<unsigned long,std::vector<special_map,std::allocator<special_map> >,std::_Uhash_compare<unsigned long,std::hash<unsigned long>,std::equal_to<unsigned long> >,std::allocator<std::pair<unsigned long const ,std::vector<special_map,std::allocator<special_map> > > >,0>::_Umap_traits<unsigned long,std::vector<special_map,std::allocator<special_map> >,std::_Uhash_compare<unsigned long,std::hash<unsigned long>,std::equal_to<unsigned long> >,std::allocator<std::pair<unsigned long const ,std::vector<special_map,std::allocator<special_map> > > >,0>
PUBLIC	?bucket_count@?$_Hash@V?$_Umap_traits@KV?$vector@Uspecial_map@@V?$allocator@Uspecial_map@@@std@@@std@@V?$_Uhash_compare@KU?$hash@K@std@@U?$equal_to@K@2@@2@V?$allocator@U?$pair@$$CBKV?$vector@Uspecial_map@@V?$allocator@Uspecial_map@@@std@@@std@@@std@@@2@$0A@@std@@@std@@QBEIXZ ; std::_Hash<std::_Umap_traits<unsigned long,std::vector<special_map,std::allocator<special_map> >,std::_Uhash_compare<unsigned long,std::hash<unsigned long>,std::equal_to<unsigned long> >,std::allocator<std::pair<unsigned long const ,std::vector<special_map,std::allocator<special_map> > > >,0> >::bucket_count
PUBLIC	?max_load_factor@?$_Hash@V?$_Umap_traits@KV?$vector@Uspecial_map@@V?$allocator@Uspecial_map@@@std@@@std@@V?$_Uhash_compare@KU?$hash@K@std@@U?$equal_to@K@2@@2@V?$allocator@U?$pair@$$CBKV?$vector@Uspecial_map@@V?$allocator@Uspecial_map@@@std@@@std@@@std@@@2@$0A@@std@@@std@@QBEMXZ ; std::_Hash<std::_Umap_traits<unsigned long,std::vector<special_map,std::allocator<special_map> >,std::_Uhash_compare<unsigned long,std::hash<unsigned long>,std::equal_to<unsigned long> >,std::allocator<std::pair<unsigned long const ,std::vector<special_map,std::allocator<special_map> > > >,0> >::max_load_factor
PUBLIC	?_Desired_grow_bucket_count@?$_Hash@V?$_Umap_traits@KV?$vector@Uspecial_map@@V?$allocator@Uspecial_map@@@std@@@std@@V?$_Uhash_compare@KU?$hash@K@std@@U?$equal_to@K@2@@2@V?$allocator@U?$pair@$$CBKV?$vector@Uspecial_map@@V?$allocator@Uspecial_map@@@std@@@std@@@std@@@2@$0A@@std@@@std@@IBEII@Z ; std::_Hash<std::_Umap_traits<unsigned long,std::vector<special_map,std::allocator<special_map> >,std::_Uhash_compare<unsigned long,std::hash<unsigned long>,std::equal_to<unsigned long> >,std::allocator<std::pair<unsigned long const ,std::vector<special_map,std::allocator<special_map> > > >,0> >::_Desired_grow_bucket_count
PUBLIC	?_Forced_rehash@?$_Hash@V?$_Umap_traits@KV?$vector@Uspecial_map@@V?$allocator@Uspecial_map@@@std@@@std@@V?$_Uhash_compare@KU?$hash@K@std@@U?$equal_to@K@2@@2@V?$allocator@U?$pair@$$CBKV?$vector@Uspecial_map@@V?$allocator@Uspecial_map@@@std@@@std@@@std@@@2@$0A@@std@@@std@@IAEXI@Z ; std::_Hash<std::_Umap_traits<unsigned long,std::vector<special_map,std::allocator<special_map> >,std::_Uhash_compare<unsigned long,std::hash<unsigned long>,std::equal_to<unsigned long> >,std::allocator<std::pair<unsigned long const ,std::vector<special_map,std::allocator<special_map> > > >,0> >::_Forced_rehash
PUBLIC	?_Max_bucket_size@?$_Hash@V?$_Umap_traits@KV?$vector@Uspecial_map@@V?$allocator@Uspecial_map@@@std@@@std@@V?$_Uhash_compare@KU?$hash@K@std@@U?$equal_to@K@2@@2@V?$allocator@U?$pair@$$CBKV?$vector@Uspecial_map@@V?$allocator@Uspecial_map@@@std@@@std@@@std@@@2@$0A@@std@@@std@@IAEAAMXZ ; std::_Hash<std::_Umap_traits<unsigned long,std::vector<special_map,std::allocator<special_map> >,std::_Uhash_compare<unsigned long,std::hash<unsigned long>,std::equal_to<unsigned long> >,std::allocator<std::pair<unsigned long const ,std::vector<special_map,std::allocator<special_map> > > >,0> >::_Max_bucket_size
PUBLIC	??0?$list@U?$pair@$$CBKV?$vector@Uspecial_map@@V?$allocator@Uspecial_map@@@std@@@std@@@std@@V?$allocator@U?$pair@$$CBKV?$vector@Uspecial_map@@V?$allocator@Uspecial_map@@@std@@@std@@@std@@@2@@std@@QAE@ABV?$allocator@U?$pair@$$CBKV?$vector@Uspecial_map@@V?$allocator@Uspecial_map@@@std@@@std@@@std@@@1@@Z ; std::list<std::pair<unsigned long const ,std::vector<special_map,std::allocator<special_map> > >,std::allocator<std::pair<unsigned long const ,std::vector<special_map,std::allocator<special_map> > > > >::list<std::pair<unsigned long const ,std::vector<special_map,std::allocator<special_map> > >,std::allocator<std::pair<unsigned long const ,std::vector<special_map,std::allocator<special_map> > > > >
PUBLIC	?_Unchecked_end@?$list@U?$pair@$$CBKV?$vector@Uspecial_map@@V?$allocator@Uspecial_map@@@std@@@std@@@std@@V?$allocator@U?$pair@$$CBKV?$vector@Uspecial_map@@V?$allocator@Uspecial_map@@@std@@@std@@@std@@@2@@std@@QAE?AV?$_List_unchecked_iterator@V?$_List_val@U?$_List_simple_types@U?$pair@$$CBKV?$vector@Uspecial_map@@V?$allocator@Uspecial_map@@@std@@@std@@@std@@@std@@@std@@@2@XZ ; std::list<std::pair<unsigned long const ,std::vector<special_map,std::allocator<special_map> > >,std::allocator<std::pair<unsigned long const ,std::vector<special_map,std::allocator<special_map> > > > >::_Unchecked_end
PUBLIC	?max_size@?$list@U?$pair@$$CBKV?$vector@Uspecial_map@@V?$allocator@Uspecial_map@@@std@@@std@@@std@@V?$allocator@U?$pair@$$CBKV?$vector@Uspecial_map@@V?$allocator@Uspecial_map@@@std@@@std@@@std@@@2@@std@@QBEIXZ ; std::list<std::pair<unsigned long const ,std::vector<special_map,std::allocator<special_map> > >,std::allocator<std::pair<unsigned long const ,std::vector<special_map,std::allocator<special_map> > > > >::max_size
PUBLIC	?_Getal@?$list@U?$pair@$$CBKV?$vector@Uspecial_map@@V?$allocator@Uspecial_map@@@std@@@std@@@std@@V?$allocator@U?$pair@$$CBKV?$vector@Uspecial_map@@V?$allocator@Uspecial_map@@@std@@@std@@@std@@@2@@std@@ABEABV?$allocator@U?$_List_node@U?$pair@$$CBKV?$vector@Uspecial_map@@V?$allocator@Uspecial_map@@@std@@@std@@@std@@PAX@std@@@2@XZ ; std::list<std::pair<unsigned long const ,std::vector<special_map,std::allocator<special_map> > >,std::allocator<std::pair<unsigned long const ,std::vector<special_map,std::allocator<special_map> > > > >::_Getal
PUBLIC	??D?$_List_const_iterator@V?$_List_val@U?$_List_simple_types@U?$pair@$$CBKV?$vector@Uspecial_map@@V?$allocator@Uspecial_map@@@std@@@std@@@std@@@std@@@std@@@std@@QBEABU?$pair@$$CBKV?$vector@Uspecial_map@@V?$allocator@Uspecial_map@@@std@@@std@@@1@XZ ; std::_List_const_iterator<std::_List_val<std::_List_simple_types<std::pair<unsigned long const ,std::vector<special_map,std::allocator<special_map> > > > > >::operator*
PUBLIC	??0?$_List_unchecked_const_iterator@V?$_List_val@U?$_List_simple_types@U?$pair@$$CBKV?$vector@Uspecial_map@@V?$allocator@Uspecial_map@@@std@@@std@@@std@@@std@@@std@@U_Iterator_base0@2@@std@@QAE@PAU?$_List_node@U?$pair@$$CBKV?$vector@Uspecial_map@@V?$allocator@Uspecial_map@@@std@@@std@@@std@@PAX@1@PBV?$_List_val@U?$_List_simple_types@U?$pair@$$CBKV?$vector@Uspecial_map@@V?$allocator@Uspecial_map@@@std@@@std@@@std@@@std@@@1@@Z ; std::_List_unchecked_const_iterator<std::_List_val<std::_List_simple_types<std::pair<unsigned long const ,std::vector<special_map,std::allocator<special_map> > > > >,std::_Iterator_base0>::_List_unchecked_const_iterator<std::_List_val<std::_List_simple_types<std::pair<unsigned long const ,std::vector<special_map,std::allocator<special_map> > > > >,std::_Iterator_base0>
PUBLIC	?_Get_first@?$_Compressed_pair@V?$allocator@U?$_List_node@U?$pair@$$CBKV?$vector@Uspecial_map@@V?$allocator@Uspecial_map@@@std@@@std@@@std@@PAX@std@@@std@@V?$_List_val@U?$_List_simple_types@U?$pair@$$CBKV?$vector@Uspecial_map@@V?$allocator@Uspecial_map@@@std@@@std@@@std@@@std@@@2@$00@std@@QAEAAV?$allocator@U?$_List_node@U?$pair@$$CBKV?$vector@Uspecial_map@@V?$allocator@Uspecial_map@@@std@@@std@@@std@@PAX@std@@@2@XZ ; std::_Compressed_pair<std::allocator<std::_List_node<std::pair<unsigned long const ,std::vector<special_map,std::allocator<special_map> > >,void *> >,std::_List_val<std::_List_simple_types<std::pair<unsigned long const ,std::vector<special_map,std::allocator<special_map> > > > >,1>::_Get_first
PUBLIC	?deallocate@?$allocator@V?$_List_unchecked_iterator@V?$_List_val@U?$_List_simple_types@U?$pair@$$CBKV?$vector@Uspecial_map@@V?$allocator@Uspecial_map@@@std@@@std@@@std@@@std@@@std@@@std@@@std@@QAEXQAV?$_List_unchecked_iterator@V?$_List_val@U?$_List_simple_types@U?$pair@$$CBKV?$vector@Uspecial_map@@V?$allocator@Uspecial_map@@@std@@@std@@@std@@@std@@@std@@@2@I@Z ; std::allocator<std::_List_unchecked_iterator<std::_List_val<std::_List_simple_types<std::pair<unsigned long const ,std::vector<special_map,std::allocator<special_map> > > > > > >::deallocate
PUBLIC	?size@?$_Hash_vec@V?$allocator@V?$_List_unchecked_iterator@V?$_List_val@U?$_List_simple_types@U?$pair@$$CBKV?$vector@Uspecial_map@@V?$allocator@Uspecial_map@@@std@@@std@@@std@@@std@@@std@@@std@@@std@@@std@@QBEIXZ ; std::_Hash_vec<std::allocator<std::_List_unchecked_iterator<std::_List_val<std::_List_simple_types<std::pair<unsigned long const ,std::vector<special_map,std::allocator<special_map> > > > > > > >::size
PUBLIC	?capacity@?$_Hash_vec@V?$allocator@V?$_List_unchecked_iterator@V?$_List_val@U?$_List_simple_types@U?$pair@$$CBKV?$vector@Uspecial_map@@V?$allocator@Uspecial_map@@@std@@@std@@@std@@@std@@@std@@@std@@@std@@@std@@QBEIXZ ; std::_Hash_vec<std::allocator<std::_List_unchecked_iterator<std::_List_val<std::_List_simple_types<std::pair<unsigned long const ,std::vector<special_map,std::allocator<special_map> > > > > > > >::capacity
PUBLIC	?_Assign_grow@?$_Hash_vec@V?$allocator@V?$_List_unchecked_iterator@V?$_List_val@U?$_List_simple_types@U?$pair@$$CBKV?$vector@Uspecial_map@@V?$allocator@Uspecial_map@@@std@@@std@@@std@@@std@@@std@@@std@@@std@@@std@@QAEXIV?$_List_unchecked_iterator@V?$_List_val@U?$_List_simple_types@U?$pair@$$CBKV?$vector@Uspecial_map@@V?$allocator@Uspecial_map@@@std@@@std@@@std@@@std@@@std@@@2@@Z ; std::_Hash_vec<std::allocator<std::_List_unchecked_iterator<std::_List_val<std::_List_simple_types<std::pair<unsigned long const ,std::vector<special_map,std::allocator<special_map> > > > > > > >::_Assign_grow
PUBLIC	?_Get_first@?$_Compressed_pair@V?$allocator@V?$_List_unchecked_iterator@V?$_List_val@U?$_List_simple_types@U?$pair@$$CBKV?$vector@Uspecial_map@@V?$allocator@Uspecial_map@@@std@@@std@@@std@@@std@@@std@@@std@@@std@@V?$_Vector_val@U?$_Simple_types@V?$_List_unchecked_iterator@V?$_List_val@U?$_List_simple_types@U?$pair@$$CBKV?$vector@Uspecial_map@@V?$allocator@Uspecial_map@@@std@@@std@@@std@@@std@@@std@@@std@@@std@@@2@$00@std@@QAEAAV?$allocator@V?$_List_unchecked_iterator@V?$_List_val@U?$_List_simple_types@U?$pair@$$CBKV?$vector@Uspecial_map@@V?$allocator@Uspecial_map@@@std@@@std@@@std@@@std@@@std@@@std@@@2@XZ ; std::_Compressed_pair<std::allocator<std::_List_unchecked_iterator<std::_List_val<std::_List_simple_types<std::pair<unsigned long const ,std::vector<special_map,std::allocator<special_map> > > > > > >,std::_Vector_val<std::_Simple_types<std::_List_unchecked_iterator<std::_List_val<std::_List_simple_types<std::pair<unsigned long const ,std::vector<special_map,std::allocator<special_map> > > > > > > >,1>::_Get_first
PUBLIC	??0?$_Umap_traits@KPAUr_table@@V?$_Uhash_compare@KU?$hash@K@std@@U?$equal_to@K@2@@std@@V?$allocator@U?$pair@$$CBKPAUr_table@@@std@@@3@$0A@@std@@QAE@ABV?$_Uhash_compare@KU?$hash@K@std@@U?$equal_to@K@2@@1@@Z ; std::_Umap_traits<unsigned long,r_table *,std::_Uhash_compare<unsigned long,std::hash<unsigned long>,std::equal_to<unsigned long> >,std::allocator<std::pair<unsigned long const ,r_table *> >,0>::_Umap_traits<unsigned long,r_table *,std::_Uhash_compare<unsigned long,std::hash<unsigned long>,std::equal_to<unsigned long> >,std::allocator<std::pair<unsigned long const ,r_table *> >,0>
PUBLIC	?bucket@?$_Hash@V?$_Umap_traits@KPAUr_table@@V?$_Uhash_compare@KU?$hash@K@std@@U?$equal_to@K@2@@std@@V?$allocator@U?$pair@$$CBKPAUr_table@@@std@@@3@$0A@@std@@@std@@QBEIABK@Z ; std::_Hash<std::_Umap_traits<unsigned long,r_table *,std::_Uhash_compare<unsigned long,std::hash<unsigned long>,std::equal_to<unsigned long> >,std::allocator<std::pair<unsigned long const ,r_table *> >,0> >::bucket
PUBLIC	?_Insert_new_node_before@?$_Hash@V?$_Umap_traits@KPAUr_table@@V?$_Uhash_compare@KU?$hash@K@std@@U?$equal_to@K@2@@std@@V?$allocator@U?$pair@$$CBKPAUr_table@@@std@@@3@$0A@@std@@@std@@IAEPAU?$_List_node@U?$pair@$$CBKPAUr_table@@@std@@PAX@2@IQAU32@0@Z ; std::_Hash<std::_Umap_traits<unsigned long,r_table *,std::_Uhash_compare<unsigned long,std::hash<unsigned long>,std::equal_to<unsigned long> >,std::allocator<std::pair<unsigned long const ,r_table *> >,0> >::_Insert_new_node_before
PUBLIC	?_Check_max_size@?$_Hash@V?$_Umap_traits@KPAUr_table@@V?$_Uhash_compare@KU?$hash@K@std@@U?$equal_to@K@2@@std@@V?$allocator@U?$pair@$$CBKPAUr_table@@@std@@@3@$0A@@std@@@std@@IBEXXZ ; std::_Hash<std::_Umap_traits<unsigned long,r_table *,std::_Uhash_compare<unsigned long,std::hash<unsigned long>,std::equal_to<unsigned long> >,std::allocator<std::pair<unsigned long const ,r_table *> >,0> >::_Check_max_size
PUBLIC	?_Check_rehash_required_1@?$_Hash@V?$_Umap_traits@KPAUr_table@@V?$_Uhash_compare@KU?$hash@K@std@@U?$equal_to@K@2@@std@@V?$allocator@U?$pair@$$CBKPAUr_table@@@std@@@3@$0A@@std@@@std@@IBE_NXZ ; std::_Hash<std::_Umap_traits<unsigned long,r_table *,std::_Uhash_compare<unsigned long,std::hash<unsigned long>,std::equal_to<unsigned long> >,std::allocator<std::pair<unsigned long const ,r_table *> >,0> >::_Check_rehash_required_1
PUBLIC	?_Rehash_for_1@?$_Hash@V?$_Umap_traits@KPAUr_table@@V?$_Uhash_compare@KU?$hash@K@std@@U?$equal_to@K@2@@std@@V?$allocator@U?$pair@$$CBKPAUr_table@@@std@@@3@$0A@@std@@@std@@IAEXXZ ; std::_Hash<std::_Umap_traits<unsigned long,r_table *,std::_Uhash_compare<unsigned long,std::hash<unsigned long>,std::equal_to<unsigned long> >,std::allocator<std::pair<unsigned long const ,r_table *> >,0> >::_Rehash_for_1
PUBLIC	?_Erase_bucket@?$_Hash@V?$_Umap_traits@KPAUr_table@@V?$_Uhash_compare@KU?$hash@K@std@@U?$equal_to@K@2@@std@@V?$allocator@U?$pair@$$CBKPAUr_table@@@std@@@3@$0A@@std@@@std@@IAEXPAU?$_List_node@U?$pair@$$CBKPAUr_table@@@std@@PAX@2@I@Z ; std::_Hash<std::_Umap_traits<unsigned long,r_table *,std::_Uhash_compare<unsigned long,std::hash<unsigned long>,std::equal_to<unsigned long> >,std::allocator<std::pair<unsigned long const ,r_table *> >,0> >::_Erase_bucket
PUBLIC	?_Max_bucket_size@?$_Hash@V?$_Umap_traits@KPAUr_table@@V?$_Uhash_compare@KU?$hash@K@std@@U?$equal_to@K@2@@std@@V?$allocator@U?$pair@$$CBKPAUr_table@@@std@@@3@$0A@@std@@@std@@IAEAAMXZ ; std::_Hash<std::_Umap_traits<unsigned long,r_table *,std::_Uhash_compare<unsigned long,std::hash<unsigned long>,std::equal_to<unsigned long> >,std::allocator<std::pair<unsigned long const ,r_table *> >,0> >::_Max_bucket_size
PUBLIC	??0?$list@U?$pair@$$CBKPAUr_table@@@std@@V?$allocator@U?$pair@$$CBKPAUr_table@@@std@@@2@@std@@QAE@ABV?$allocator@U?$pair@$$CBKPAUr_table@@@std@@@1@@Z ; std::list<std::pair<unsigned long const ,r_table *>,std::allocator<std::pair<unsigned long const ,r_table *> > >::list<std::pair<unsigned long const ,r_table *>,std::allocator<std::pair<unsigned long const ,r_table *> > >
PUBLIC	?_Unchecked_end@?$list@U?$pair@$$CBKPAUr_table@@@std@@V?$allocator@U?$pair@$$CBKPAUr_table@@@std@@@2@@std@@QAE?AV?$_List_unchecked_iterator@V?$_List_val@U?$_List_simple_types@U?$pair@$$CBKPAUr_table@@@std@@@std@@@std@@@2@XZ ; std::list<std::pair<unsigned long const ,r_table *>,std::allocator<std::pair<unsigned long const ,r_table *> > >::_Unchecked_end
PUBLIC	?_Unchecked_erase@?$list@U?$pair@$$CBKPAUr_table@@@std@@V?$allocator@U?$pair@$$CBKPAUr_table@@@std@@@2@@std@@AAEPAU?$_List_node@U?$pair@$$CBKPAUr_table@@@std@@PAX@2@QAU32@@Z ; std::list<std::pair<unsigned long const ,r_table *>,std::allocator<std::pair<unsigned long const ,r_table *> > >::_Unchecked_erase
PUBLIC	?_Getal@?$list@U?$pair@$$CBKPAUr_table@@@std@@V?$allocator@U?$pair@$$CBKPAUr_table@@@std@@@2@@std@@AAEAAV?$allocator@U?$_List_node@U?$pair@$$CBKPAUr_table@@@std@@PAX@std@@@2@XZ ; std::list<std::pair<unsigned long const ,r_table *>,std::allocator<std::pair<unsigned long const ,r_table *> > >::_Getal
PUBLIC	?_Orphan_non_end@?$_List_val@U?$_List_simple_types@U?$pair@$$CBKPAUr_table@@@std@@@std@@@std@@QAEXXZ ; std::_List_val<std::_List_simple_types<std::pair<unsigned long const ,r_table *> > >::_Orphan_non_end
PUBLIC	??D?$_List_const_iterator@V?$_List_val@U?$_List_simple_types@U?$pair@$$CBKPAUr_table@@@std@@@std@@@std@@@std@@QBEABU?$pair@$$CBKPAUr_table@@@1@XZ ; std::_List_const_iterator<std::_List_val<std::_List_simple_types<std::pair<unsigned long const ,r_table *> > > >::operator*
PUBLIC	??0?$_List_unchecked_const_iterator@V?$_List_val@U?$_List_simple_types@U?$pair@$$CBKPAUr_table@@@std@@@std@@@std@@U_Iterator_base0@2@@std@@QAE@PAU?$_List_node@U?$pair@$$CBKPAUr_table@@@std@@PAX@1@PBV?$_List_val@U?$_List_simple_types@U?$pair@$$CBKPAUr_table@@@std@@@std@@@1@@Z ; std::_List_unchecked_const_iterator<std::_List_val<std::_List_simple_types<std::pair<unsigned long const ,r_table *> > >,std::_Iterator_base0>::_List_unchecked_const_iterator<std::_List_val<std::_List_simple_types<std::pair<unsigned long const ,r_table *> > >,std::_Iterator_base0>
PUBLIC	?deallocate@?$allocator@V?$_List_unchecked_iterator@V?$_List_val@U?$_List_simple_types@U?$pair@$$CBKPAUr_table@@@std@@@std@@@std@@@std@@@std@@QAEXQAV?$_List_unchecked_iterator@V?$_List_val@U?$_List_simple_types@U?$pair@$$CBKPAUr_table@@@std@@@std@@@std@@@2@I@Z ; std::allocator<std::_List_unchecked_iterator<std::_List_val<std::_List_simple_types<std::pair<unsigned long const ,r_table *> > > > >::deallocate
PUBLIC	??0_Range_eraser@?$_Hash@V?$_Umap_traits@KPAUr_table@@V?$_Uhash_compare@KU?$hash@K@std@@U?$equal_to@K@2@@std@@V?$allocator@U?$pair@$$CBKPAUr_table@@@std@@@3@$0A@@std@@@std@@QAE@AAV?$list@U?$pair@$$CBKPAUr_table@@@std@@V?$allocator@U?$pair@$$CBKPAUr_table@@@std@@@2@@2@QAU?$_List_node@U?$pair@$$CBKPAUr_table@@@std@@PAX@2@@Z ; std::_Hash<std::_Umap_traits<unsigned long,r_table *,std::_Uhash_compare<unsigned long,std::hash<unsigned long>,std::equal_to<unsigned long> >,std::allocator<std::pair<unsigned long const ,r_table *> >,0> >::_Range_eraser::_Range_eraser
PUBLIC	?_Bump_erased@_Range_eraser@?$_Hash@V?$_Umap_traits@KPAUr_table@@V?$_Uhash_compare@KU?$hash@K@std@@U?$equal_to@K@2@@std@@V?$allocator@U?$pair@$$CBKPAUr_table@@@std@@@3@$0A@@std@@@std@@QAEXXZ ; std::_Hash<std::_Umap_traits<unsigned long,r_table *,std::_Uhash_compare<unsigned long,std::hash<unsigned long>,std::equal_to<unsigned long> >,std::allocator<std::pair<unsigned long const ,r_table *> >,0> >::_Range_eraser::_Bump_erased
PUBLIC	??1_Range_eraser@?$_Hash@V?$_Umap_traits@KPAUr_table@@V?$_Uhash_compare@KU?$hash@K@std@@U?$equal_to@K@2@@std@@V?$allocator@U?$pair@$$CBKPAUr_table@@@std@@@3@$0A@@std@@@std@@QAE@XZ ; std::_Hash<std::_Umap_traits<unsigned long,r_table *,std::_Uhash_compare<unsigned long,std::hash<unsigned long>,std::equal_to<unsigned long> >,std::allocator<std::pair<unsigned long const ,r_table *> >,0> >::_Range_eraser::~_Range_eraser
PUBLIC	?capacity@?$_Hash_vec@V?$allocator@V?$_List_unchecked_iterator@V?$_List_val@U?$_List_simple_types@U?$pair@$$CBKPAUr_table@@@std@@@std@@@std@@@std@@@std@@@std@@QBEIXZ ; std::_Hash_vec<std::allocator<std::_List_unchecked_iterator<std::_List_val<std::_List_simple_types<std::pair<unsigned long const ,r_table *> > > > > >::capacity
PUBLIC	?_Assign_grow@?$_Hash_vec@V?$allocator@V?$_List_unchecked_iterator@V?$_List_val@U?$_List_simple_types@U?$pair@$$CBKPAUr_table@@@std@@@std@@@std@@@std@@@std@@@std@@QAEXIV?$_List_unchecked_iterator@V?$_List_val@U?$_List_simple_types@U?$pair@$$CBKPAUr_table@@@std@@@std@@@std@@@2@@Z ; std::_Hash_vec<std::allocator<std::_List_unchecked_iterator<std::_List_val<std::_List_simple_types<std::pair<unsigned long const ,r_table *> > > > > >::_Assign_grow
PUBLIC	?_Get_first@?$_Compressed_pair@V?$allocator@V?$_List_unchecked_iterator@V?$_List_val@U?$_List_simple_types@U?$pair@$$CBKPAUr_table@@@std@@@std@@@std@@@std@@@std@@V?$_Vector_val@U?$_Simple_types@V?$_List_unchecked_iterator@V?$_List_val@U?$_List_simple_types@U?$pair@$$CBKPAUr_table@@@std@@@std@@@std@@@std@@@std@@@2@$00@std@@QAEAAV?$allocator@V?$_List_unchecked_iterator@V?$_List_val@U?$_List_simple_types@U?$pair@$$CBKPAUr_table@@@std@@@std@@@std@@@std@@@2@XZ ; std::_Compressed_pair<std::allocator<std::_List_unchecked_iterator<std::_List_val<std::_List_simple_types<std::pair<unsigned long const ,r_table *> > > > >,std::_Vector_val<std::_Simple_types<std::_List_unchecked_iterator<std::_List_val<std::_List_simple_types<std::pair<unsigned long const ,r_table *> > > > > >,1>::_Get_first
PUBLIC	?deallocate@?$allocator@U?$pair@KK@std@@@std@@QAEXQAU?$pair@KK@2@I@Z ; std::allocator<std::pair<unsigned long,unsigned long> >::deallocate
PUBLIC	?_Buy_nonzero@?$vector@U?$pair@KK@std@@V?$allocator@U?$pair@KK@std@@@2@@std@@AAEXI@Z ; std::vector<std::pair<unsigned long,unsigned long>,std::allocator<std::pair<unsigned long,unsigned long> > >::_Buy_nonzero
PUBLIC	?_Getal@?$vector@U?$pair@KK@std@@V?$allocator@U?$pair@KK@std@@@2@@std@@AAEAAV?$allocator@U?$pair@KK@std@@@2@XZ ; std::vector<std::pair<unsigned long,unsigned long>,std::allocator<std::pair<unsigned long,unsigned long> > >::_Getal
PUBLIC	??1?$_Tidy_guard@V?$vector@U?$pair@KK@std@@V?$allocator@U?$pair@KK@std@@@2@@std@@@std@@QAE@XZ ; std::_Tidy_guard<std::vector<std::pair<unsigned long,unsigned long>,std::allocator<std::pair<unsigned long,unsigned long> > > >::~_Tidy_guard<std::vector<std::pair<unsigned long,unsigned long>,std::allocator<std::pair<unsigned long,unsigned long> > > >
PUBLIC	??0?$_Vector_val@U?$_Simple_types@U?$pair@KK@std@@@std@@@std@@QAE@XZ ; std::_Vector_val<std::_Simple_types<std::pair<unsigned long,unsigned long> > >::_Vector_val<std::_Simple_types<std::pair<unsigned long,unsigned long> > >
PUBLIC	?_Alloc_sentinel_and_proxy@?$_Tree@V?$_Tmap_traits@EV?$vector@KV?$allocator@K@std@@@std@@U?$less@E@2@V?$allocator@U?$pair@$$CBEV?$vector@KV?$allocator@K@std@@@std@@@std@@@2@$0A@@std@@@std@@IAEXXZ ; std::_Tree<std::_Tmap_traits<unsigned char,std::vector<unsigned long,std::allocator<unsigned long> >,std::less<unsigned char>,std::allocator<std::pair<unsigned char const ,std::vector<unsigned long,std::allocator<unsigned long> > > >,0> >::_Alloc_sentinel_and_proxy
PUBLIC	?begin@?$initializer_list@U?$pair@$$CBEV?$vector@KV?$allocator@K@std@@@std@@@std@@@std@@QBEPBU?$pair@$$CBEV?$vector@KV?$allocator@K@std@@@std@@@2@XZ ; std::initializer_list<std::pair<unsigned char const ,std::vector<unsigned long,std::allocator<unsigned long> > > >::begin
PUBLIC	?end@?$initializer_list@U?$pair@$$CBEV?$vector@KV?$allocator@K@std@@@std@@@std@@@std@@QBEPBU?$pair@$$CBEV?$vector@KV?$allocator@K@std@@@std@@@2@XZ ; std::initializer_list<std::pair<unsigned char const ,std::vector<unsigned long,std::allocator<unsigned long> > > >::end
PUBLIC	?_Get_first@?$_Compressed_pair@V?$allocator@U?$_Tree_node@U?$pair@$$CBEV?$vector@KV?$allocator@K@std@@@std@@@std@@PAX@std@@@std@@V?$_Tree_val@U?$_Tree_simple_types@U?$pair@$$CBEV?$vector@KV?$allocator@K@std@@@std@@@std@@@std@@@2@$00@std@@QAEAAV?$allocator@U?$_Tree_node@U?$pair@$$CBEV?$vector@KV?$allocator@K@std@@@std@@@std@@PAX@std@@@2@XZ ; std::_Compressed_pair<std::allocator<std::_Tree_node<std::pair<unsigned char const ,std::vector<unsigned long,std::allocator<unsigned long> > >,void *> >,std::_Tree_val<std::_Tree_simple_types<std::pair<unsigned char const ,std::vector<unsigned long,std::allocator<unsigned long> > > > >,1>::_Get_first
PUBLIC	??0?$_Vector_val@U?$_Simple_types@Uspecial_map@@@std@@@std@@QAE@XZ ; std::_Vector_val<std::_Simple_types<special_map> >::_Vector_val<std::_Simple_types<special_map> >
PUBLIC	?_Get_first@?$_Compressed_pair@V?$allocator@Uspecial_map@@@std@@V?$_Vector_val@U?$_Simple_types@Uspecial_map@@@std@@@2@$00@std@@QAEAAV?$allocator@Uspecial_map@@@2@XZ ; std::_Compressed_pair<std::allocator<special_map>,std::_Vector_val<std::_Simple_types<special_map> >,1>::_Get_first
PUBLIC	?deallocate@?$allocator@PAV?$vector@Urefine_map@@V?$allocator@Urefine_map@@@std@@@std@@@std@@QAEXQAPAV?$vector@Urefine_map@@V?$allocator@Urefine_map@@@std@@@2@I@Z ; std::allocator<std::vector<refine_map,std::allocator<refine_map> > *>::deallocate
PUBLIC	?_Buy_nonzero@?$vector@PAV?$vector@Urefine_map@@V?$allocator@Urefine_map@@@std@@@std@@V?$allocator@PAV?$vector@Urefine_map@@V?$allocator@Urefine_map@@@std@@@std@@@2@@std@@AAEXI@Z ; std::vector<std::vector<refine_map,std::allocator<refine_map> > *,std::allocator<std::vector<refine_map,std::allocator<refine_map> > *> >::_Buy_nonzero
PUBLIC	?_Getal@?$vector@PAV?$vector@Urefine_map@@V?$allocator@Urefine_map@@@std@@@std@@V?$allocator@PAV?$vector@Urefine_map@@V?$allocator@Urefine_map@@@std@@@std@@@2@@std@@AAEAAV?$allocator@PAV?$vector@Urefine_map@@V?$allocator@Urefine_map@@@std@@@std@@@2@XZ ; std::vector<std::vector<refine_map,std::allocator<refine_map> > *,std::allocator<std::vector<refine_map,std::allocator<refine_map> > *> >::_Getal
PUBLIC	??1?$_Tidy_guard@V?$vector@PAV?$vector@Urefine_map@@V?$allocator@Urefine_map@@@std@@@std@@V?$allocator@PAV?$vector@Urefine_map@@V?$allocator@Urefine_map@@@std@@@std@@@2@@std@@@std@@QAE@XZ ; std::_Tidy_guard<std::vector<std::vector<refine_map,std::allocator<refine_map> > *,std::allocator<std::vector<refine_map,std::allocator<refine_map> > *> > >::~_Tidy_guard<std::vector<std::vector<refine_map,std::allocator<refine_map> > *,std::allocator<std::vector<refine_map,std::allocator<refine_map> > *> > >
PUBLIC	??0?$_Vector_val@U?$_Simple_types@PAV?$vector@Urefine_map@@V?$allocator@Urefine_map@@@std@@@std@@@std@@@std@@QAE@XZ ; std::_Vector_val<std::_Simple_types<std::vector<refine_map,std::allocator<refine_map> > *> >::_Vector_val<std::_Simple_types<std::vector<refine_map,std::allocator<refine_map> > *> >
PUBLIC	??0?$_Alloc_construct_ptr@V?$allocator@U?$_List_node@U?$pair@$$CBKV?$vector@Uspecial_map@@V?$allocator@Uspecial_map@@@std@@@std@@@std@@PAX@std@@@std@@@std@@QAE@AAV?$allocator@U?$_List_node@U?$pair@$$CBKV?$vector@Uspecial_map@@V?$allocator@Uspecial_map@@@std@@@std@@@std@@PAX@std@@@1@@Z ; std::_Alloc_construct_ptr<std::allocator<std::_List_node<std::pair<unsigned long const ,std::vector<special_map,std::allocator<special_map> > >,void *> > >::_Alloc_construct_ptr<std::allocator<std::_List_node<std::pair<unsigned long const ,std::vector<special_map,std::allocator<special_map> > >,void *> > >
PUBLIC	?_Allocate@?$_Alloc_construct_ptr@V?$allocator@U?$_List_node@U?$pair@$$CBKV?$vector@Uspecial_map@@V?$allocator@Uspecial_map@@@std@@@std@@@std@@PAX@std@@@std@@@std@@QAEXXZ ; std::_Alloc_construct_ptr<std::allocator<std::_List_node<std::pair<unsigned long const ,std::vector<special_map,std::allocator<special_map> > >,void *> > >::_Allocate
PUBLIC	??1?$_Alloc_construct_ptr@V?$allocator@U?$_List_node@U?$pair@$$CBKV?$vector@Uspecial_map@@V?$allocator@Uspecial_map@@@std@@@std@@@std@@PAX@std@@@std@@@std@@QAE@XZ ; std::_Alloc_construct_ptr<std::allocator<std::_List_node<std::pair<unsigned long const ,std::vector<special_map,std::allocator<special_map> > >,void *> > >::~_Alloc_construct_ptr<std::allocator<std::_List_node<std::pair<unsigned long const ,std::vector<special_map,std::allocator<special_map> > >,void *> > >
PUBLIC	?_Extract@?$_In_place_key_extract_map_impl@KU?$pair@KPAUr_table@@@std@@@std@@SAABKABU?$pair@KPAUr_table@@@2@@Z ; std::_In_place_key_extract_map_impl<unsigned long,std::pair<unsigned long,r_table *> >::_Extract
PUBLIC	??1?$_List_node_emplace_op2@V?$allocator@U?$_List_node@U?$pair@$$CBKPAUr_table@@@std@@PAX@std@@@std@@@std@@QAE@XZ ; std::_List_node_emplace_op2<std::allocator<std::_List_node<std::pair<unsigned long const ,r_table *>,void *> > >::~_List_node_emplace_op2<std::allocator<std::_List_node<std::pair<unsigned long const ,r_table *>,void *> > >
PUBLIC	?_Release@?$_Alloc_construct_ptr@V?$allocator@U?$_List_node@U?$pair@$$CBKPAUr_table@@@std@@PAX@std@@@std@@@std@@QAEPAU?$_List_node@U?$pair@$$CBKPAUr_table@@@std@@PAX@2@XZ ; std::_Alloc_construct_ptr<std::allocator<std::_List_node<std::pair<unsigned long const ,r_table *>,void *> > >::_Release
PUBLIC	??$?0ABV?$allocator@U?$pair@$$CBKV?$vector@Uspecial_map@@V?$allocator@Uspecial_map@@@std@@@std@@@std@@@std@@$0A@@?$_Hash_vec@V?$allocator@V?$_List_unchecked_iterator@V?$_List_val@U?$_List_simple_types@U?$pair@$$CBKV?$vector@Uspecial_map@@V?$allocator@Uspecial_map@@@std@@@std@@@std@@@std@@@std@@@std@@@std@@@std@@QAE@ABV?$allocator@U?$pair@$$CBKV?$vector@Uspecial_map@@V?$allocator@Uspecial_map@@@std@@@std@@@std@@@1@@Z ; std::_Hash_vec<std::allocator<std::_List_unchecked_iterator<std::_List_val<std::_List_simple_types<std::pair<unsigned long const ,std::vector<special_map,std::allocator<special_map> > > > > > > >::_Hash_vec<std::allocator<std::_List_unchecked_iterator<std::_List_val<std::_List_simple_types<std::pair<unsigned long const ,std::vector<special_map,std::allocator<special_map> > > > > > > ><std::allocator<std::pair<unsigned long const ,std::vector<special_map,std::allocator<special_map> > > > const &,0>
PUBLIC	??$_Construct_in_place@PAU?$_List_node@U?$pair@$$CBKV?$vector@Uspecial_map@@V?$allocator@Uspecial_map@@@std@@@std@@@std@@PAX@std@@ABQAU12@@std@@YAXAAPAU?$_List_node@U?$pair@$$CBKV?$vector@Uspecial_map@@V?$allocator@Uspecial_map@@@std@@@std@@@std@@PAX@0@ABQAU10@@Z ; std::_Construct_in_place<std::_List_node<std::pair<unsigned long const ,std::vector<special_map,std::allocator<special_map> > >,void *> *,std::_List_node<std::pair<unsigned long const ,std::vector<special_map,std::allocator<special_map> > >,void *> * const &>
PUBLIC	??$addressof@V?$_List_val@U?$_List_simple_types@U?$pair@$$CBKV?$vector@Uspecial_map@@V?$allocator@Uspecial_map@@@std@@@std@@@std@@@std@@@std@@@std@@YAPAV?$_List_val@U?$_List_simple_types@U?$pair@$$CBKV?$vector@Uspecial_map@@V?$allocator@Uspecial_map@@@std@@@std@@@std@@@std@@@0@AAV10@@Z ; std::addressof<std::_List_val<std::_List_simple_types<std::pair<unsigned long const ,std::vector<special_map,std::allocator<special_map> > > > > >
PUBLIC	??$addressof@$$CBV?$_List_val@U?$_List_simple_types@U?$pair@$$CBKV?$vector@Uspecial_map@@V?$allocator@Uspecial_map@@@std@@@std@@@std@@@std@@@std@@@std@@YAPBV?$_List_val@U?$_List_simple_types@U?$pair@$$CBKV?$vector@Uspecial_map@@V?$allocator@Uspecial_map@@@std@@@std@@@std@@@std@@@0@ABV10@@Z ; std::addressof<std::_List_val<std::_List_simple_types<std::pair<unsigned long const ,std::vector<special_map,std::allocator<special_map> > > > > const >
PUBLIC	??$_Freenode0@V?$allocator@U?$_List_node@U?$pair@$$CBKV?$vector@Uspecial_map@@V?$allocator@Uspecial_map@@@std@@@std@@@std@@PAX@std@@@std@@@?$_List_node@U?$pair@$$CBKV?$vector@Uspecial_map@@V?$allocator@Uspecial_map@@@std@@@std@@@std@@PAX@std@@SAXAAV?$allocator@U?$_List_node@U?$pair@$$CBKV?$vector@Uspecial_map@@V?$allocator@Uspecial_map@@@std@@@std@@@std@@PAX@std@@@1@PAU01@@Z ; std::_List_node<std::pair<unsigned long const ,std::vector<special_map,std::allocator<special_map> > >,void *>::_Freenode0<std::allocator<std::_List_node<std::pair<unsigned long const ,std::vector<special_map,std::allocator<special_map> > >,void *> > >
PUBLIC	??$_Free_non_head@V?$allocator@U?$_List_node@U?$pair@$$CBKV?$vector@Uspecial_map@@V?$allocator@Uspecial_map@@@std@@@std@@@std@@PAX@std@@@std@@@?$_List_node@U?$pair@$$CBKV?$vector@Uspecial_map@@V?$allocator@Uspecial_map@@@std@@@std@@@std@@PAX@std@@SAXAAV?$allocator@U?$_List_node@U?$pair@$$CBKV?$vector@Uspecial_map@@V?$allocator@Uspecial_map@@@std@@@std@@@std@@PAX@std@@@1@PAU01@@Z ; std::_List_node<std::pair<unsigned long const ,std::vector<special_map,std::allocator<special_map> > >,void *>::_Free_non_head<std::allocator<std::_List_node<std::pair<unsigned long const ,std::vector<special_map,std::allocator<special_map> > >,void *> > >
PUBLIC	??$_Destroy_range@PAV?$_List_unchecked_iterator@V?$_List_val@U?$_List_simple_types@U?$pair@$$CBKV?$vector@Uspecial_map@@V?$allocator@Uspecial_map@@@std@@@std@@@std@@@std@@@std@@@std@@PAV12@@std@@YAXPAV?$_List_unchecked_iterator@V?$_List_val@U?$_List_simple_types@U?$pair@$$CBKV?$vector@Uspecial_map@@V?$allocator@Uspecial_map@@@std@@@std@@@std@@@std@@@std@@@0@QAV10@@Z ; std::_Destroy_range<std::_List_unchecked_iterator<std::_List_val<std::_List_simple_types<std::pair<unsigned long const ,std::vector<special_map,std::allocator<special_map> > > > > > *,std::_List_unchecked_iterator<std::_List_val<std::_List_simple_types<std::pair<unsigned long const ,std::vector<special_map,std::allocator<special_map> > > > > > *>
PUBLIC	??$?0ABV?$allocator@U?$pair@$$CBKPAUr_table@@@std@@@std@@$0A@@?$_Hash_vec@V?$allocator@V?$_List_unchecked_iterator@V?$_List_val@U?$_List_simple_types@U?$pair@$$CBKPAUr_table@@@std@@@std@@@std@@@std@@@std@@@std@@QAE@ABV?$allocator@U?$pair@$$CBKPAUr_table@@@std@@@1@@Z ; std::_Hash_vec<std::allocator<std::_List_unchecked_iterator<std::_List_val<std::_List_simple_types<std::pair<unsigned long const ,r_table *> > > > > >::_Hash_vec<std::allocator<std::_List_unchecked_iterator<std::_List_val<std::_List_simple_types<std::pair<unsigned long const ,r_table *> > > > > ><std::allocator<std::pair<unsigned long const ,r_table *> > const &,0>
PUBLIC	??$addressof@V?$_List_val@U?$_List_simple_types@U?$pair@$$CBKPAUr_table@@@std@@@std@@@std@@@std@@YAPAV?$_List_val@U?$_List_simple_types@U?$pair@$$CBKPAUr_table@@@std@@@std@@@0@AAV10@@Z ; std::addressof<std::_List_val<std::_List_simple_types<std::pair<unsigned long const ,r_table *> > > >
PUBLIC	??$addressof@$$CBV?$_List_val@U?$_List_simple_types@U?$pair@$$CBKPAUr_table@@@std@@@std@@@std@@@std@@YAPBV?$_List_val@U?$_List_simple_types@U?$pair@$$CBKPAUr_table@@@std@@@std@@@0@ABV10@@Z ; std::addressof<std::_List_val<std::_List_simple_types<std::pair<unsigned long const ,r_table *> > > const >
PUBLIC	??$_Freenode0@V?$allocator@U?$_List_node@U?$pair@$$CBKPAUr_table@@@std@@PAX@std@@@std@@@?$_List_node@U?$pair@$$CBKPAUr_table@@@std@@PAX@std@@SAXAAV?$allocator@U?$_List_node@U?$pair@$$CBKPAUr_table@@@std@@PAX@std@@@1@PAU01@@Z ; std::_List_node<std::pair<unsigned long const ,r_table *>,void *>::_Freenode0<std::allocator<std::_List_node<std::pair<unsigned long const ,r_table *>,void *> > >
PUBLIC	??$_Free_non_head@V?$allocator@U?$_List_node@U?$pair@$$CBKPAUr_table@@@std@@PAX@std@@@std@@@?$_List_node@U?$pair@$$CBKPAUr_table@@@std@@PAX@std@@SAXAAV?$allocator@U?$_List_node@U?$pair@$$CBKPAUr_table@@@std@@PAX@std@@@1@PAU01@@Z ; std::_List_node<std::pair<unsigned long const ,r_table *>,void *>::_Free_non_head<std::allocator<std::_List_node<std::pair<unsigned long const ,r_table *>,void *> > >
PUBLIC	??$_Destroy_range@PAV?$_List_unchecked_iterator@V?$_List_val@U?$_List_simple_types@U?$pair@$$CBKPAUr_table@@@std@@@std@@@std@@@std@@PAV12@@std@@YAXPAV?$_List_unchecked_iterator@V?$_List_val@U?$_List_simple_types@U?$pair@$$CBKPAUr_table@@@std@@@std@@@std@@@0@QAV10@@Z ; std::_Destroy_range<std::_List_unchecked_iterator<std::_List_val<std::_List_simple_types<std::pair<unsigned long const ,r_table *> > > > *,std::_List_unchecked_iterator<std::_List_val<std::_List_simple_types<std::pair<unsigned long const ,r_table *> > > > *>
PUBLIC	??$_Destroy_range@V?$allocator@U?$pair@KK@std@@@std@@@std@@YAXPAU?$pair@KK@0@QAU10@AAV?$allocator@U?$pair@KK@std@@@0@@Z ; std::_Destroy_range<std::allocator<std::pair<unsigned long,unsigned long> > >
PUBLIC	??$?0ABU?$less@E@std@@U_Zero_then_variadic_args_t@1@@?$_Compressed_pair@U?$less@E@std@@V?$_Compressed_pair@V?$allocator@U?$_Tree_node@U?$pair@$$CBEV?$vector@KV?$allocator@K@std@@@std@@@std@@PAX@std@@@std@@V?$_Tree_val@U?$_Tree_simple_types@U?$pair@$$CBEV?$vector@KV?$allocator@K@std@@@std@@@std@@@std@@@2@$00@2@$00@std@@QAE@U_One_then_variadic_args_t@1@ABU?$less@E@1@$$QAU_Zero_then_variadic_args_t@1@@Z ; std::_Compressed_pair<std::less<unsigned char>,std::_Compressed_pair<std::allocator<std::_Tree_node<std::pair<unsigned char const ,std::vector<unsigned long,std::allocator<unsigned long> > >,void *> >,std::_Tree_val<std::_Tree_simple_types<std::pair<unsigned char const ,std::vector<unsigned long,std::allocator<unsigned long> > > > >,1>,1>::_Compressed_pair<std::less<unsigned char>,std::_Compressed_pair<std::allocator<std::_Tree_node<std::pair<unsigned char const ,std::vector<unsigned long,std::allocator<unsigned long> > >,void *> >,std::_Tree_val<std::_Tree_simple_types<std::pair<unsigned char const ,std::vector<unsigned long,std::allocator<unsigned long> > > > >,1>,1><std::less<unsigned char> const &,std::_Zero_then_variadic_args_t>
PUBLIC	??$_Insert_range_unchecked@PBU?$pair@$$CBEV?$vector@KV?$allocator@K@std@@@std@@@std@@PBU12@@?$_Tree@V?$_Tmap_traits@EV?$vector@KV?$allocator@K@std@@@std@@U?$less@E@2@V?$allocator@U?$pair@$$CBEV?$vector@KV?$allocator@K@std@@@std@@@std@@@2@$0A@@std@@@std@@IAEXPBU?$pair@$$CBEV?$vector@KV?$allocator@K@std@@@std@@@1@QBU21@@Z ; std::_Tree<std::_Tmap_traits<unsigned char,std::vector<unsigned long,std::allocator<unsigned long> >,std::less<unsigned char>,std::allocator<std::pair<unsigned char const ,std::vector<unsigned long,std::allocator<unsigned long> > > >,0> >::_Insert_range_unchecked<std::pair<unsigned char const ,std::vector<unsigned long,std::allocator<unsigned long> > > const *,std::pair<unsigned char const ,std::vector<unsigned long,std::allocator<unsigned long> > > const *>
PUBLIC	??$addressof@V?$_Tree_val@U?$_Tree_simple_types@U?$pair@$$CBEV?$vector@KV?$allocator@K@std@@@std@@@std@@@std@@@std@@@std@@YAPAV?$_Tree_val@U?$_Tree_simple_types@U?$pair@$$CBEV?$vector@KV?$allocator@K@std@@@std@@@std@@@std@@@0@AAV10@@Z ; std::addressof<std::_Tree_val<std::_Tree_simple_types<std::pair<unsigned char const ,std::vector<unsigned long,std::allocator<unsigned long> > > > > >
PUBLIC	??$addressof@$$CBV?$_Tree_val@U?$_Tree_simple_types@U?$pair@$$CBEV?$vector@KV?$allocator@K@std@@@std@@@std@@@std@@@std@@@std@@YAPBV?$_Tree_val@U?$_Tree_simple_types@U?$pair@$$CBEV?$vector@KV?$allocator@K@std@@@std@@@std@@@std@@@0@ABV10@@Z ; std::addressof<std::_Tree_val<std::_Tree_simple_types<std::pair<unsigned char const ,std::vector<unsigned long,std::allocator<unsigned long> > > > > const >
PUBLIC	??$_Destroy_range@V?$allocator@PAV?$vector@Urefine_map@@V?$allocator@Urefine_map@@@std@@@std@@@std@@@std@@YAXPAPAV?$vector@Urefine_map@@V?$allocator@Urefine_map@@@std@@@0@QAPAV10@AAV?$allocator@PAV?$vector@Urefine_map@@V?$allocator@Urefine_map@@@std@@@std@@@0@@Z ; std::_Destroy_range<std::allocator<std::vector<refine_map,std::allocator<refine_map> > *> >
PUBLIC	??$destroy@U?$pair@$$CBKV?$vector@Uspecial_map@@V?$allocator@Uspecial_map@@@std@@@std@@@std@@@?$_Default_allocator_traits@V?$allocator@U?$_List_node@U?$pair@$$CBKV?$vector@Uspecial_map@@V?$allocator@Uspecial_map@@@std@@@std@@@std@@PAX@std@@@std@@@std@@SAXAAV?$allocator@U?$_List_node@U?$pair@$$CBKV?$vector@Uspecial_map@@V?$allocator@Uspecial_map@@@std@@@std@@@std@@PAX@std@@@1@QAU?$pair@$$CBKV?$vector@Uspecial_map@@V?$allocator@Uspecial_map@@@std@@@std@@@1@@Z ; std::_Default_allocator_traits<std::allocator<std::_List_node<std::pair<unsigned long const ,std::vector<special_map,std::allocator<special_map> > >,void *> > >::destroy<std::pair<unsigned long const ,std::vector<special_map,std::allocator<special_map> > > >
PUBLIC	??$exchange@PAU?$_List_node@U?$pair@$$CBKV?$vector@Uspecial_map@@V?$allocator@Uspecial_map@@@std@@@std@@@std@@PAX@std@@$$T@std@@YAPAU?$_List_node@U?$pair@$$CBKV?$vector@Uspecial_map@@V?$allocator@Uspecial_map@@@std@@@std@@@std@@PAX@0@AAPAU10@$$QA$$T@Z ; std::exchange<std::_List_node<std::pair<unsigned long const ,std::vector<special_map,std::allocator<special_map> > >,void *> *,std::nullptr_t>
PUBLIC	??$addressof@$$CBU?$pair@$$CBEV?$vector@KV?$allocator@K@std@@@std@@@std@@@std@@YAPBU?$pair@$$CBEV?$vector@KV?$allocator@K@std@@@std@@@0@ABU10@@Z ; std::addressof<std::pair<unsigned char const ,std::vector<unsigned long,std::allocator<unsigned long> > > const >
PUBLIC	??$addressof@U?$pair@$$CBKPAUr_table@@@std@@@std@@YAPAU?$pair@$$CBKPAUr_table@@@0@AAU10@@Z ; std::addressof<std::pair<unsigned long const ,r_table *> >
PUBLIC	??$_To_address@PBK@std@@YA?A_PABQBK@Z		; std::_To_address<unsigned long const *>
PUBLIC	??$_Uninitialized_copy@PBKPBKV?$allocator@K@std@@@std@@YAPAKPBK0PAKAAV?$allocator@K@0@@Z ; std::_Uninitialized_copy<unsigned long const *,unsigned long const *,std::allocator<unsigned long> >
PUBLIC	??$_Unwrap_sent@PBKPBK@ranges@std@@YA?A_T$$QAPBK@Z ; std::ranges::_Unwrap_sent<unsigned long const *,unsigned long const *>
PUBLIC	??$_Unwrap_iter@PBKPBK@ranges@std@@YA?A_T$$QAPBK@Z ; std::ranges::_Unwrap_iter<unsigned long const *,unsigned long const *>
PUBLIC	??$forward@PBK@std@@YA$$QAPBKAAPBK@Z		; std::forward<unsigned long const *>
PUBLIC	??$forward@ABV?$allocator@K@std@@@std@@YAABV?$allocator@K@0@ABV10@@Z ; std::forward<std::allocator<unsigned long> const &>
PUBLIC	??$_Emplace_reallocate@Uspecial_map@@@?$vector@Uspecial_map@@V?$allocator@Uspecial_map@@@std@@@std@@AAEPAUspecial_map@@QAU2@$$QAU2@@Z ; std::vector<special_map,std::allocator<special_map> >::_Emplace_reallocate<special_map>
PUBLIC	??$_Emplace_back_with_unused_capacity@Uspecial_map@@@?$vector@Uspecial_map@@V?$allocator@Uspecial_map@@@std@@@std@@AAEAAUspecial_map@@$$QAU2@@Z ; std::vector<special_map,std::allocator<special_map> >::_Emplace_back_with_unused_capacity<special_map>
PUBLIC	??$forward@Uspecial_map@@@std@@YA$$QAUspecial_map@@AAU1@@Z ; std::forward<special_map>
PUBLIC	??$_Insert_range_unchecked@V?$_List_unchecked_const_iterator@V?$_List_val@U?$_List_simple_types@U?$pair@$$CBKV?$vector@Uspecial_map@@V?$allocator@Uspecial_map@@@std@@@std@@@std@@@std@@@std@@U_Iterator_base0@2@@std@@V12@@?$_Hash@V?$_Umap_traits@KV?$vector@Uspecial_map@@V?$allocator@Uspecial_map@@@std@@@std@@V?$_Uhash_compare@KU?$hash@K@std@@U?$equal_to@K@2@@2@V?$allocator@U?$pair@$$CBKV?$vector@Uspecial_map@@V?$allocator@Uspecial_map@@@std@@@std@@@std@@@2@$0A@@std@@@std@@IAEXV?$_List_unchecked_const_iterator@V?$_List_val@U?$_List_simple_types@U?$pair@$$CBKV?$vector@Uspecial_map@@V?$allocator@Uspecial_map@@@std@@@std@@@std@@@std@@@std@@U_Iterator_base0@2@@1@V21@@Z ; std::_Hash<std::_Umap_traits<unsigned long,std::vector<special_map,std::allocator<special_map> >,std::_Uhash_compare<unsigned long,std::hash<unsigned long>,std::equal_to<unsigned long> >,std::allocator<std::pair<unsigned long const ,std::vector<special_map,std::allocator<special_map> > > >,0> >::_Insert_range_unchecked<std::_List_unchecked_const_iterator<std::_List_val<std::_List_simple_types<std::pair<unsigned long const ,std::vector<special_map,std::allocator<special_map> > > > >,std::_Iterator_base0>,std::_List_unchecked_const_iterator<std::_List_val<std::_List_simple_types<std::pair<unsigned long const ,std::vector<special_map,std::allocator<special_map> > > > >,std::_Iterator_base0> >
PUBLIC	??$?0ABV?$allocator@U?$_List_node@U?$pair@$$CBKV?$vector@Uspecial_map@@V?$allocator@Uspecial_map@@@std@@@std@@@std@@PAX@std@@@std@@$0A@@?$_Hash_vec@V?$allocator@V?$_List_unchecked_iterator@V?$_List_val@U?$_List_simple_types@U?$pair@$$CBKV?$vector@Uspecial_map@@V?$allocator@Uspecial_map@@@std@@@std@@@std@@@std@@@std@@@std@@@std@@@std@@QAE@ABV?$allocator@U?$_List_node@U?$pair@$$CBKV?$vector@Uspecial_map@@V?$allocator@Uspecial_map@@@std@@@std@@@std@@PAX@std@@@1@@Z ; std::_Hash_vec<std::allocator<std::_List_unchecked_iterator<std::_List_val<std::_List_simple_types<std::pair<unsigned long const ,std::vector<special_map,std::allocator<special_map> > > > > > > >::_Hash_vec<std::allocator<std::_List_unchecked_iterator<std::_List_val<std::_List_simple_types<std::pair<unsigned long const ,std::vector<special_map,std::allocator<special_map> > > > > > > ><std::allocator<std::_List_node<std::pair<unsigned long const ,std::vector<special_map,std::allocator<special_map> > >,void *> > const &,0>
PUBLIC	??$?0U?$_List_node@U?$pair@$$CBKV?$vector@Uspecial_map@@V?$allocator@Uspecial_map@@@std@@@std@@@std@@PAX@std@@@?$allocator@U?$pair@$$CBKV?$vector@Uspecial_map@@V?$allocator@Uspecial_map@@@std@@@std@@@std@@@std@@QAE@ABV?$allocator@U?$_List_node@U?$pair@$$CBKV?$vector@Uspecial_map@@V?$allocator@Uspecial_map@@@std@@@std@@@std@@PAX@std@@@1@@Z ; std::allocator<std::pair<unsigned long const ,std::vector<special_map,std::allocator<special_map> > > >::allocator<std::pair<unsigned long const ,std::vector<special_map,std::allocator<special_map> > > ><std::_List_node<std::pair<unsigned long const ,std::vector<special_map,std::allocator<special_map> > >,void *> >
PUBLIC	??$_Adl_verify_range@PAV?$_List_unchecked_iterator@V?$_List_val@U?$_List_simple_types@U?$pair@$$CBKPAUr_table@@@std@@@std@@@std@@@std@@PAV12@@std@@YAXABQAV?$_List_unchecked_iterator@V?$_List_val@U?$_List_simple_types@U?$pair@$$CBKPAUr_table@@@std@@@std@@@std@@@0@0@Z ; std::_Adl_verify_range<std::_List_unchecked_iterator<std::_List_val<std::_List_simple_types<std::pair<unsigned long const ,r_table *> > > > *,std::_List_unchecked_iterator<std::_List_val<std::_List_simple_types<std::pair<unsigned long const ,r_table *> > > > *>
PUBLIC	??$_To_address@PBU?$pair@KK@std@@@std@@YA?A_PABQBU?$pair@KK@0@@Z ; std::_To_address<std::pair<unsigned long,unsigned long> const *>
PUBLIC	??$_Uninitialized_copy@PBU?$pair@KK@std@@PBU12@V?$allocator@U?$pair@KK@std@@@2@@std@@YAPAU?$pair@KK@0@PBU10@0PAU10@AAV?$allocator@U?$pair@KK@std@@@0@@Z ; std::_Uninitialized_copy<std::pair<unsigned long,unsigned long> const *,std::pair<unsigned long,unsigned long> const *,std::allocator<std::pair<unsigned long,unsigned long> > >
PUBLIC	??$_Unwrap_sent@PBU?$pair@KK@std@@PBU12@@ranges@std@@YA?A_T$$QAPBU?$pair@KK@1@@Z ; std::ranges::_Unwrap_sent<std::pair<unsigned long,unsigned long> const *,std::pair<unsigned long,unsigned long> const *>
PUBLIC	??$_Unwrap_iter@PBU?$pair@KK@std@@PBU12@@ranges@std@@YA?A_T$$QAPBU?$pair@KK@1@@Z ; std::ranges::_Unwrap_iter<std::pair<unsigned long,unsigned long> const *,std::pair<unsigned long,unsigned long> const *>
PUBLIC	??$forward@PBU?$pair@KK@std@@@std@@YA$$QAPBU?$pair@KK@0@AAPBU10@@Z ; std::forward<std::pair<unsigned long,unsigned long> const *>
PUBLIC	??$forward@ABV?$allocator@U?$pair@KK@std@@@std@@@std@@YAABV?$allocator@U?$pair@KK@std@@@0@ABV10@@Z ; std::forward<std::allocator<std::pair<unsigned long,unsigned long> > const &>
PUBLIC	??$_Freenode0@V?$allocator@U?$_Tree_node@U?$pair@$$CBEV?$vector@KV?$allocator@K@std@@@std@@@std@@PAX@std@@@std@@@?$_Tree_node@U?$pair@$$CBEV?$vector@KV?$allocator@K@std@@@std@@@std@@PAX@std@@SAXAAV?$allocator@U?$_Tree_node@U?$pair@$$CBEV?$vector@KV?$allocator@K@std@@@std@@@std@@PAX@std@@@1@PAU01@@Z ; std::_Tree_node<std::pair<unsigned char const ,std::vector<unsigned long,std::allocator<unsigned long> > >,void *>::_Freenode0<std::allocator<std::_Tree_node<std::pair<unsigned char const ,std::vector<unsigned long,std::allocator<unsigned long> > >,void *> > >
PUBLIC	??$_Erase_tree@V?$allocator@U?$_Tree_node@U?$pair@$$CBEV?$vector@KV?$allocator@K@std@@@std@@@std@@PAX@std@@@std@@@?$_Tree_val@U?$_Tree_simple_types@U?$pair@$$CBEV?$vector@KV?$allocator@K@std@@@std@@@std@@@std@@@std@@QAEXAAV?$allocator@U?$_Tree_node@U?$pair@$$CBEV?$vector@KV?$allocator@K@std@@@std@@@std@@PAX@std@@@1@PAU?$_Tree_node@U?$pair@$$CBEV?$vector@KV?$allocator@K@std@@@std@@@std@@PAX@1@@Z ; std::_Tree_val<std::_Tree_simple_types<std::pair<unsigned char const ,std::vector<unsigned long,std::allocator<unsigned long> > > > >::_Erase_tree<std::allocator<std::_Tree_node<std::pair<unsigned char const ,std::vector<unsigned long,std::allocator<unsigned long> > >,void *> > >
PUBLIC	??$_Lower_bound_duplicate@E@?$_Tree@V?$_Tmap_traits@EV?$vector@KV?$allocator@K@std@@@std@@U?$less@E@2@V?$allocator@U?$pair@$$CBEV?$vector@KV?$allocator@K@std@@@std@@@std@@@2@$0A@@std@@@std@@IBE_NQAU?$_Tree_node@U?$pair@$$CBEV?$vector@KV?$allocator@K@std@@@std@@@std@@PAX@1@ABE@Z ; std::_Tree<std::_Tmap_traits<unsigned char,std::vector<unsigned long,std::allocator<unsigned long> >,std::less<unsigned char>,std::allocator<std::pair<unsigned char const ,std::vector<unsigned long,std::allocator<unsigned long> > > >,0> >::_Lower_bound_duplicate<unsigned char>
PUBLIC	??$_Find_lower_bound@E@?$_Tree@V?$_Tmap_traits@EV?$vector@KV?$allocator@K@std@@@std@@U?$less@E@2@V?$allocator@U?$pair@$$CBEV?$vector@KV?$allocator@K@std@@@std@@@std@@@2@$0A@@std@@@std@@IBE?AU?$_Tree_find_result@PAU?$_Tree_node@U?$pair@$$CBEV?$vector@KV?$allocator@K@std@@@std@@@std@@PAX@std@@@1@ABE@Z ; std::_Tree<std::_Tmap_traits<unsigned char,std::vector<unsigned long,std::allocator<unsigned long> >,std::less<unsigned char>,std::allocator<std::pair<unsigned char const ,std::vector<unsigned long,std::allocator<unsigned long> > > >,0> >::_Find_lower_bound<unsigned char>
PUBLIC	??$_To_address@PBQAV?$vector@Urefine_map@@V?$allocator@Urefine_map@@@std@@@std@@@std@@YA?A_PABQBQAV?$vector@Urefine_map@@V?$allocator@Urefine_map@@@std@@@0@@Z ; std::_To_address<std::vector<refine_map,std::allocator<refine_map> > * const *>
PUBLIC	??$_Uninitialized_copy@PBQAV?$vector@Urefine_map@@V?$allocator@Urefine_map@@@std@@@std@@PBQAV12@V?$allocator@PAV?$vector@Urefine_map@@V?$allocator@Urefine_map@@@std@@@std@@@2@@std@@YAPAPAV?$vector@Urefine_map@@V?$allocator@Urefine_map@@@std@@@0@PBQAV10@0PAPAV10@AAV?$allocator@PAV?$vector@Urefine_map@@V?$allocator@Urefine_map@@@std@@@std@@@0@@Z ; std::_Uninitialized_copy<std::vector<refine_map,std::allocator<refine_map> > * const *,std::vector<refine_map,std::allocator<refine_map> > * const *,std::allocator<std::vector<refine_map,std::allocator<refine_map> > *> >
PUBLIC	??$_Unwrap_sent@PBQAV?$vector@Urefine_map@@V?$allocator@Urefine_map@@@std@@@std@@PBQAV12@@ranges@std@@YA?A_T$$QAPBQAV?$vector@Urefine_map@@V?$allocator@Urefine_map@@@std@@@1@@Z ; std::ranges::_Unwrap_sent<std::vector<refine_map,std::allocator<refine_map> > * const *,std::vector<refine_map,std::allocator<refine_map> > * const *>
PUBLIC	??$_Unwrap_iter@PBQAV?$vector@Urefine_map@@V?$allocator@Urefine_map@@@std@@@std@@PBQAV12@@ranges@std@@YA?A_T$$QAPBQAV?$vector@Urefine_map@@V?$allocator@Urefine_map@@@std@@@1@@Z ; std::ranges::_Unwrap_iter<std::vector<refine_map,std::allocator<refine_map> > * const *,std::vector<refine_map,std::allocator<refine_map> > * const *>
PUBLIC	??$forward@PBQAV?$vector@Urefine_map@@V?$allocator@Urefine_map@@@std@@@std@@@std@@YA$$QAPBQAV?$vector@Urefine_map@@V?$allocator@Urefine_map@@@std@@@0@AAPBQAV10@@Z ; std::forward<std::vector<refine_map,std::allocator<refine_map> > * const *>
PUBLIC	??$forward@ABV?$allocator@PAV?$vector@Urefine_map@@V?$allocator@Urefine_map@@@std@@@std@@@std@@@std@@YAABV?$allocator@PAV?$vector@Urefine_map@@V?$allocator@Urefine_map@@@std@@@std@@@0@ABV10@@Z ; std::forward<std::allocator<std::vector<refine_map,std::allocator<refine_map> > *> const &>
PUBLIC	??$_Emplace_reallocate@Urefine_map@@@?$vector@Urefine_map@@V?$allocator@Urefine_map@@@std@@@std@@AAEPAUrefine_map@@QAU2@$$QAU2@@Z ; std::vector<refine_map,std::allocator<refine_map> >::_Emplace_reallocate<refine_map>
PUBLIC	??$_Emplace_back_with_unused_capacity@Urefine_map@@@?$vector@Urefine_map@@V?$allocator@Urefine_map@@@std@@@std@@AAEAAUrefine_map@@$$QAU2@@Z ; std::vector<refine_map,std::allocator<refine_map> >::_Emplace_back_with_unused_capacity<refine_map>
PUBLIC	??$?0V?$_List_iterator@V?$_List_val@U?$_List_simple_types@U?$pair@$$CBKPAUr_table@@@std@@@std@@@std@@@std@@_N$0A@@?$pair@V?$_List_iterator@V?$_List_val@U?$_List_simple_types@U?$pair@$$CBKPAUr_table@@@std@@@std@@@std@@@std@@_N@std@@QAE@$$QAV?$_List_iterator@V?$_List_val@U?$_List_simple_types@U?$pair@$$CBKPAUr_table@@@std@@@std@@@std@@@1@$$QA_N@Z ; std::pair<std::_List_iterator<std::_List_val<std::_List_simple_types<std::pair<unsigned long const ,r_table *> > > >,bool>::pair<std::_List_iterator<std::_List_val<std::_List_simple_types<std::pair<unsigned long const ,r_table *> > > >,bool><std::_List_iterator<std::_List_val<std::_List_simple_types<std::pair<unsigned long const ,r_table *> > > >,bool,0>
PUBLIC	??$_Kfn@$$CBKPAUr_table@@@?$_Umap_traits@KPAUr_table@@V?$_Uhash_compare@KU?$hash@K@std@@U?$equal_to@K@2@@std@@V?$allocator@U?$pair@$$CBKPAUr_table@@@std@@@3@$0A@@std@@SAABKABU?$pair@$$CBKPAUr_table@@@1@@Z ; std::_Umap_traits<unsigned long,r_table *,std::_Uhash_compare<unsigned long,std::hash<unsigned long>,std::equal_to<unsigned long> >,std::allocator<std::pair<unsigned long const ,r_table *> >,0>::_Kfn<unsigned long const ,r_table *>
PUBLIC	??$?0U?$pair@KPAUr_table@@@std@@@?$_List_node_emplace_op2@V?$allocator@U?$_List_node@U?$pair@$$CBKPAUr_table@@@std@@PAX@std@@@std@@@std@@QAE@AAV?$allocator@U?$_List_node@U?$pair@$$CBKPAUr_table@@@std@@PAX@std@@@1@$$QAU?$pair@KPAUr_table@@@1@@Z ; std::_List_node_emplace_op2<std::allocator<std::_List_node<std::pair<unsigned long const ,r_table *>,void *> > >::_List_node_emplace_op2<std::allocator<std::_List_node<std::pair<unsigned long const ,r_table *>,void *> > ><std::pair<unsigned long,r_table *> >
PUBLIC	??$_Find_last@K@?$_Hash@V?$_Umap_traits@KPAUr_table@@V?$_Uhash_compare@KU?$hash@K@std@@U?$equal_to@K@2@@std@@V?$allocator@U?$pair@$$CBKPAUr_table@@@std@@@3@$0A@@std@@@std@@IBE?AU?$_Hash_find_last_result@PAU?$_List_node@U?$pair@$$CBKPAUr_table@@@std@@PAX@std@@@1@ABKI@Z ; std::_Hash<std::_Umap_traits<unsigned long,r_table *,std::_Uhash_compare<unsigned long,std::hash<unsigned long>,std::equal_to<unsigned long> >,std::allocator<std::pair<unsigned long const ,r_table *> >,0> >::_Find_last<unsigned long>
PUBLIC	??$_Buffered_inplace_merge_unchecked@PAUrefine_map@@P6A_NU1@0@Z@std@@YAXPAUrefine_map@@00HHQAU1@HP6A_NU1@2@Z@Z ; std::_Buffered_inplace_merge_unchecked<refine_map *,bool (__cdecl*)(refine_map,refine_map)>
PUBLIC	??$_Buffered_merge_sort_unchecked@PAUrefine_map@@P6A_NU1@0@Z@std@@YAXQAUrefine_map@@0H0P6A_NU1@1@Z@Z ; std::_Buffered_merge_sort_unchecked<refine_map *,bool (__cdecl*)(refine_map,refine_map)>
PUBLIC	??$next@PAUrefine_map@@@std@@YAPAUrefine_map@@PAU1@H@Z ; std::next<refine_map *>
PUBLIC	??$_Return_temporary_buffer@Urefine_map@@@std@@YAXQAUrefine_map@@@Z ; std::_Return_temporary_buffer<refine_map>
PUBLIC	??$_Get_temporary_buffer@Urefine_map@@@std@@YA?AU?$pair@PAUrefine_map@@H@0@H@Z ; std::_Get_temporary_buffer<refine_map>
PUBLIC	??$_Temporary_buffer_size@H@std@@YAHH@Z		; std::_Temporary_buffer_size<int>
PUBLIC	??$_Move_backward_unchecked@PAUrefine_map@@PAU1@@std@@YAPAUrefine_map@@PAU1@00@Z ; std::_Move_backward_unchecked<refine_map *,refine_map *>
PUBLIC	??$move@AAUrefine_map@@@std@@YA$$QAUrefine_map@@AAU1@@Z ; std::move<refine_map &>
PUBLIC	??$forward@V?$_List_iterator@V?$_List_val@U?$_List_simple_types@U?$pair@$$CBKV?$vector@Uspecial_map@@V?$allocator@Uspecial_map@@@std@@@std@@@std@@@std@@@std@@@std@@@std@@YA$$QAV?$_List_iterator@V?$_List_val@U?$_List_simple_types@U?$pair@$$CBKV?$vector@Uspecial_map@@V?$allocator@Uspecial_map@@@std@@@std@@@std@@@std@@@std@@@0@AAV10@@Z ; std::forward<std::_List_iterator<std::_List_val<std::_List_simple_types<std::pair<unsigned long const ,std::vector<special_map,std::allocator<special_map> > > > > > >
PUBLIC	??$construct@U?$pair@$$CBKV?$vector@Uspecial_map@@V?$allocator@Uspecial_map@@@std@@@std@@@std@@AAHAAV?$vector@Uspecial_map@@V?$allocator@Uspecial_map@@@std@@@2@@?$_Default_allocator_traits@V?$allocator@U?$_List_node@U?$pair@$$CBKV?$vector@Uspecial_map@@V?$allocator@Uspecial_map@@@std@@@std@@@std@@PAX@std@@@std@@@std@@SAXAAV?$allocator@U?$_List_node@U?$pair@$$CBKV?$vector@Uspecial_map@@V?$allocator@Uspecial_map@@@std@@@std@@@std@@PAX@std@@@1@QAU?$pair@$$CBKV?$vector@Uspecial_map@@V?$allocator@Uspecial_map@@@std@@@std@@@1@AAHAAV?$vector@Uspecial_map@@V?$allocator@Uspecial_map@@@std@@@1@@Z ; std::_Default_allocator_traits<std::allocator<std::_List_node<std::pair<unsigned long const ,std::vector<special_map,std::allocator<special_map> > >,void *> > >::construct<std::pair<unsigned long const ,std::vector<special_map,std::allocator<special_map> > >,int &,std::vector<special_map,std::allocator<special_map> > &>
PUBLIC	??$addressof@U?$pair@$$CBKV?$vector@Uspecial_map@@V?$allocator@Uspecial_map@@@std@@@std@@@std@@@std@@YAPAU?$pair@$$CBKV?$vector@Uspecial_map@@V?$allocator@Uspecial_map@@@std@@@std@@@0@AAU10@@Z ; std::addressof<std::pair<unsigned long const ,std::vector<special_map,std::allocator<special_map> > > >
PUBLIC	??$_Move_backward_unchecked@PAKPAK@std@@YAPAKPAK00@Z ; std::_Move_backward_unchecked<unsigned long *,unsigned long *>
PUBLIC	??$_Uninitialized_copy_n@PBKV?$allocator@K@std@@@std@@YAPAKPBKIPAKAAV?$allocator@K@0@@Z ; std::_Uninitialized_copy_n<unsigned long const *,std::allocator<unsigned long> >
PUBLIC	??$_Get_unwrapped@PBK@std@@YA?A_T$$QAPBK@Z	; std::_Get_unwrapped<unsigned long const *>
PUBLIC	??$move@AAPBK@std@@YA$$QAPBKAAPBK@Z		; std::move<unsigned long const * &>
PUBLIC	??$_Sort_unchecked@PAKU?$less@X@std@@@std@@YAXPAK0HU?$less@X@0@@Z ; std::_Sort_unchecked<unsigned long *,std::less<void> >
PUBLIC	??0?$_List_const_iterator@V?$_List_val@U?$_List_simple_types@U?$pair@$$CBKV?$vector@Uspecial_map@@V?$allocator@Uspecial_map@@@std@@@std@@@std@@@std@@@std@@@std@@QAE@PAU?$_List_node@U?$pair@$$CBKV?$vector@Uspecial_map@@V?$allocator@Uspecial_map@@@std@@@std@@@std@@PAX@1@PBV?$_List_val@U?$_List_simple_types@U?$pair@$$CBKV?$vector@Uspecial_map@@V?$allocator@Uspecial_map@@@std@@@std@@@std@@@std@@@1@@Z ; std::_List_const_iterator<std::_List_val<std::_List_simple_types<std::pair<unsigned long const ,std::vector<special_map,std::allocator<special_map> > > > > >::_List_const_iterator<std::_List_val<std::_List_simple_types<std::pair<unsigned long const ,std::vector<special_map,std::allocator<special_map> > > > > >
PUBLIC	??0?$_List_const_iterator@V?$_List_val@U?$_List_simple_types@U?$pair@$$CBKPAUr_table@@@std@@@std@@@std@@@std@@QAE@PAU?$_List_node@U?$pair@$$CBKPAUr_table@@@std@@PAX@1@PBV?$_List_val@U?$_List_simple_types@U?$pair@$$CBKPAUr_table@@@std@@@std@@@1@@Z ; std::_List_const_iterator<std::_List_val<std::_List_simple_types<std::pair<unsigned long const ,r_table *> > > >::_List_const_iterator<std::_List_val<std::_List_simple_types<std::pair<unsigned long const ,r_table *> > > >
PUBLIC	??0?$_List_iterator@V?$_List_val@U?$_List_simple_types@U?$pair@$$CBKV?$vector@Uspecial_map@@V?$allocator@Uspecial_map@@@std@@@std@@@std@@@std@@@std@@@std@@QAE@PAU?$_List_node@U?$pair@$$CBKV?$vector@Uspecial_map@@V?$allocator@Uspecial_map@@@std@@@std@@@std@@PAX@1@PBV?$_List_val@U?$_List_simple_types@U?$pair@$$CBKV?$vector@Uspecial_map@@V?$allocator@Uspecial_map@@@std@@@std@@@std@@@std@@@1@@Z ; std::_List_iterator<std::_List_val<std::_List_simple_types<std::pair<unsigned long const ,std::vector<special_map,std::allocator<special_map> > > > > >::_List_iterator<std::_List_val<std::_List_simple_types<std::pair<unsigned long const ,std::vector<special_map,std::allocator<special_map> > > > > >
PUBLIC	??0?$_List_iterator@V?$_List_val@U?$_List_simple_types@U?$pair@$$CBKPAUr_table@@@std@@@std@@@std@@@std@@QAE@PAU?$_List_node@U?$pair@$$CBKPAUr_table@@@std@@PAX@1@PBV?$_List_val@U?$_List_simple_types@U?$pair@$$CBKPAUr_table@@@std@@@std@@@1@@Z ; std::_List_iterator<std::_List_val<std::_List_simple_types<std::pair<unsigned long const ,r_table *> > > >::_List_iterator<std::_List_val<std::_List_simple_types<std::pair<unsigned long const ,r_table *> > > >
PUBLIC	?_Make_iterator_offset@?$vector@KV?$allocator@K@std@@@std@@AAE?AV?$_Vector_iterator@V?$_Vector_val@U?$_Simple_types@K@std@@@std@@@2@I@Z ; std::vector<unsigned long,std::allocator<unsigned long> >::_Make_iterator_offset
PUBLIC	?_Unwrapped@?$_Vector_const_iterator@V?$_Vector_val@U?$_Simple_types@K@std@@@std@@@std@@QBEPBKXZ ; std::_Vector_const_iterator<std::_Vector_val<std::_Simple_types<unsigned long> > >::_Unwrapped
PUBLIC	?begin@?$initializer_list@K@std@@QBEPBKXZ	; std::initializer_list<unsigned long>::begin
PUBLIC	?end@?$initializer_list@K@std@@QBEPBKXZ		; std::initializer_list<unsigned long>::end
PUBLIC	?size@?$initializer_list@K@std@@QBEIXZ		; std::initializer_list<unsigned long>::size
PUBLIC	?_Tidy@?$vector@Uspecial_map@@V?$allocator@Uspecial_map@@@std@@@std@@AAEXXZ ; std::vector<special_map,std::allocator<special_map> >::_Tidy
PUBLIC	?_Getal@?$vector@Uspecial_map@@V?$allocator@Uspecial_map@@@std@@@std@@AAEAAV?$allocator@Uspecial_map@@@2@XZ ; std::vector<special_map,std::allocator<special_map> >::_Getal
PUBLIC	??0?$allocator@U?$pair@$$CBKV?$vector@Uspecial_map@@V?$allocator@Uspecial_map@@@std@@@std@@@std@@@std@@QAE@XZ ; std::allocator<std::pair<unsigned long const ,std::vector<special_map,std::allocator<special_map> > > >::allocator<std::pair<unsigned long const ,std::vector<special_map,std::allocator<special_map> > > >
PUBLIC	?_Tidy@?$vector@Urefine_map@@V?$allocator@Urefine_map@@@std@@@std@@AAEXXZ ; std::vector<refine_map,std::allocator<refine_map> >::_Tidy
PUBLIC	?_Getal@?$vector@Urefine_map@@V?$allocator@Urefine_map@@@std@@@std@@AAEAAV?$allocator@Urefine_map@@@2@XZ ; std::vector<refine_map,std::allocator<refine_map> >::_Getal
PUBLIC	??0?$_Vector_const_iterator@V?$_Vector_val@U?$_Simple_types@Urefine_map@@@std@@@std@@@std@@QAE@PAUrefine_map@@PBU_Container_base0@1@@Z ; std::_Vector_const_iterator<std::_Vector_val<std::_Simple_types<refine_map> > >::_Vector_const_iterator<std::_Vector_val<std::_Simple_types<refine_map> > >
PUBLIC	??0?$_Hash@V?$_Umap_traits@KV?$vector@Uspecial_map@@V?$allocator@Uspecial_map@@@std@@@std@@V?$_Uhash_compare@KU?$hash@K@std@@U?$equal_to@K@2@@2@V?$allocator@U?$pair@$$CBKV?$vector@Uspecial_map@@V?$allocator@Uspecial_map@@@std@@@std@@@std@@@2@$0A@@std@@@std@@IAE@ABV?$_Uhash_compare@KU?$hash@K@std@@U?$equal_to@K@2@@1@ABV?$allocator@U?$pair@$$CBKV?$vector@Uspecial_map@@V?$allocator@Uspecial_map@@@std@@@std@@@std@@@1@@Z ; std::_Hash<std::_Umap_traits<unsigned long,std::vector<special_map,std::allocator<special_map> >,std::_Uhash_compare<unsigned long,std::hash<unsigned long>,std::equal_to<unsigned long> >,std::allocator<std::pair<unsigned long const ,std::vector<special_map,std::allocator<special_map> > > >,0> >::_Hash<std::_Umap_traits<unsigned long,std::vector<special_map,std::allocator<special_map> >,std::_Uhash_compare<unsigned long,std::hash<unsigned long>,std::equal_to<unsigned long> >,std::allocator<std::pair<unsigned long const ,std::vector<special_map,std::allocator<special_map> > > >,0> >
PUBLIC	?_Insert_new_node_before@?$_Hash@V?$_Umap_traits@KV?$vector@Uspecial_map@@V?$allocator@Uspecial_map@@@std@@@std@@V?$_Uhash_compare@KU?$hash@K@std@@U?$equal_to@K@2@@2@V?$allocator@U?$pair@$$CBKV?$vector@Uspecial_map@@V?$allocator@Uspecial_map@@@std@@@std@@@std@@@2@$0A@@std@@@std@@IAEPAU?$_List_node@U?$pair@$$CBKV?$vector@Uspecial_map@@V?$allocator@Uspecial_map@@@std@@@std@@@std@@PAX@2@IQAU32@0@Z ; std::_Hash<std::_Umap_traits<unsigned long,std::vector<special_map,std::allocator<special_map> >,std::_Uhash_compare<unsigned long,std::hash<unsigned long>,std::equal_to<unsigned long> >,std::allocator<std::pair<unsigned long const ,std::vector<special_map,std::allocator<special_map> > > >,0> >::_Insert_new_node_before
PUBLIC	?_Check_max_size@?$_Hash@V?$_Umap_traits@KV?$vector@Uspecial_map@@V?$allocator@Uspecial_map@@@std@@@std@@V?$_Uhash_compare@KU?$hash@K@std@@U?$equal_to@K@2@@2@V?$allocator@U?$pair@$$CBKV?$vector@Uspecial_map@@V?$allocator@Uspecial_map@@@std@@@std@@@std@@@2@$0A@@std@@@std@@IBEXXZ ; std::_Hash<std::_Umap_traits<unsigned long,std::vector<special_map,std::allocator<special_map> >,std::_Uhash_compare<unsigned long,std::hash<unsigned long>,std::equal_to<unsigned long> >,std::allocator<std::pair<unsigned long const ,std::vector<special_map,std::allocator<special_map> > > >,0> >::_Check_max_size
PUBLIC	?_Check_rehash_required_1@?$_Hash@V?$_Umap_traits@KV?$vector@Uspecial_map@@V?$allocator@Uspecial_map@@@std@@@std@@V?$_Uhash_compare@KU?$hash@K@std@@U?$equal_to@K@2@@2@V?$allocator@U?$pair@$$CBKV?$vector@Uspecial_map@@V?$allocator@Uspecial_map@@@std@@@std@@@std@@@2@$0A@@std@@@std@@IBE_NXZ ; std::_Hash<std::_Umap_traits<unsigned long,std::vector<special_map,std::allocator<special_map> >,std::_Uhash_compare<unsigned long,std::hash<unsigned long>,std::equal_to<unsigned long> >,std::allocator<std::pair<unsigned long const ,std::vector<special_map,std::allocator<special_map> > > >,0> >::_Check_rehash_required_1
PUBLIC	?_Rehash_for_1@?$_Hash@V?$_Umap_traits@KV?$vector@Uspecial_map@@V?$allocator@Uspecial_map@@@std@@@std@@V?$_Uhash_compare@KU?$hash@K@std@@U?$equal_to@K@2@@2@V?$allocator@U?$pair@$$CBKV?$vector@Uspecial_map@@V?$allocator@Uspecial_map@@@std@@@std@@@std@@@2@$0A@@std@@@std@@IAEXXZ ; std::_Hash<std::_Umap_traits<unsigned long,std::vector<special_map,std::allocator<special_map> >,std::_Uhash_compare<unsigned long,std::hash<unsigned long>,std::equal_to<unsigned long> >,std::allocator<std::pair<unsigned long const ,std::vector<special_map,std::allocator<special_map> > > >,0> >::_Rehash_for_1
PUBLIC	?_Getal@?$_Hash@V?$_Umap_traits@KV?$vector@Uspecial_map@@V?$allocator@Uspecial_map@@@std@@@std@@V?$_Uhash_compare@KU?$hash@K@std@@U?$equal_to@K@2@@2@V?$allocator@U?$pair@$$CBKV?$vector@Uspecial_map@@V?$allocator@Uspecial_map@@@std@@@std@@@std@@@2@$0A@@std@@@std@@IBEABV?$allocator@U?$_List_node@U?$pair@$$CBKV?$vector@Uspecial_map@@V?$allocator@Uspecial_map@@@std@@@std@@@std@@PAX@std@@@2@XZ ; std::_Hash<std::_Umap_traits<unsigned long,std::vector<special_map,std::allocator<special_map> >,std::_Uhash_compare<unsigned long,std::hash<unsigned long>,std::equal_to<unsigned long> >,std::allocator<std::pair<unsigned long const ,std::vector<special_map,std::allocator<special_map> > > >,0> >::_Getal
PUBLIC	?end@?$list@U?$pair@$$CBKV?$vector@Uspecial_map@@V?$allocator@Uspecial_map@@@std@@@std@@@std@@V?$allocator@U?$pair@$$CBKV?$vector@Uspecial_map@@V?$allocator@Uspecial_map@@@std@@@std@@@std@@@2@@std@@QAE?AV?$_List_iterator@V?$_List_val@U?$_List_simple_types@U?$pair@$$CBKV?$vector@Uspecial_map@@V?$allocator@Uspecial_map@@@std@@@std@@@std@@@std@@@std@@@2@XZ ; std::list<std::pair<unsigned long const ,std::vector<special_map,std::allocator<special_map> > >,std::allocator<std::pair<unsigned long const ,std::vector<special_map,std::allocator<special_map> > > > >::end
PUBLIC	?_Unchecked_begin@?$list@U?$pair@$$CBKV?$vector@Uspecial_map@@V?$allocator@Uspecial_map@@@std@@@std@@@std@@V?$allocator@U?$pair@$$CBKV?$vector@Uspecial_map@@V?$allocator@Uspecial_map@@@std@@@std@@@std@@@2@@std@@QBE?AV?$_List_unchecked_const_iterator@V?$_List_val@U?$_List_simple_types@U?$pair@$$CBKV?$vector@Uspecial_map@@V?$allocator@Uspecial_map@@@std@@@std@@@std@@@std@@@std@@U_Iterator_base0@2@@2@XZ ; std::list<std::pair<unsigned long const ,std::vector<special_map,std::allocator<special_map> > >,std::allocator<std::pair<unsigned long const ,std::vector<special_map,std::allocator<special_map> > > > >::_Unchecked_begin
PUBLIC	?_Unchecked_end@?$list@U?$pair@$$CBKV?$vector@Uspecial_map@@V?$allocator@Uspecial_map@@@std@@@std@@@std@@V?$allocator@U?$pair@$$CBKV?$vector@Uspecial_map@@V?$allocator@Uspecial_map@@@std@@@std@@@std@@@2@@std@@QBE?AV?$_List_unchecked_const_iterator@V?$_List_val@U?$_List_simple_types@U?$pair@$$CBKV?$vector@Uspecial_map@@V?$allocator@Uspecial_map@@@std@@@std@@@std@@@std@@@std@@U_Iterator_base0@2@@2@XZ ; std::list<std::pair<unsigned long const ,std::vector<special_map,std::allocator<special_map> > >,std::allocator<std::pair<unsigned long const ,std::vector<special_map,std::allocator<special_map> > > > >::_Unchecked_end
PUBLIC	?_Make_iter@?$list@U?$pair@$$CBKV?$vector@Uspecial_map@@V?$allocator@Uspecial_map@@@std@@@std@@@std@@V?$allocator@U?$pair@$$CBKV?$vector@Uspecial_map@@V?$allocator@Uspecial_map@@@std@@@std@@@std@@@2@@std@@QBE?AV?$_List_iterator@V?$_List_val@U?$_List_simple_types@U?$pair@$$CBKV?$vector@Uspecial_map@@V?$allocator@Uspecial_map@@@std@@@std@@@std@@@std@@@std@@@2@PAU?$_List_node@U?$pair@$$CBKV?$vector@Uspecial_map@@V?$allocator@Uspecial_map@@@std@@@std@@@std@@PAX@2@@Z ; std::list<std::pair<unsigned long const ,std::vector<special_map,std::allocator<special_map> > >,std::allocator<std::pair<unsigned long const ,std::vector<special_map,std::allocator<special_map> > > > >::_Make_iter
PUBLIC	?_Tidy@?$list@U?$pair@$$CBKV?$vector@Uspecial_map@@V?$allocator@Uspecial_map@@@std@@@std@@@std@@V?$allocator@U?$pair@$$CBKV?$vector@Uspecial_map@@V?$allocator@Uspecial_map@@@std@@@std@@@std@@@2@@std@@AAEXXZ ; std::list<std::pair<unsigned long const ,std::vector<special_map,std::allocator<special_map> > >,std::allocator<std::pair<unsigned long const ,std::vector<special_map,std::allocator<special_map> > > > >::_Tidy
PUBLIC	?_Getal@?$list@U?$pair@$$CBKV?$vector@Uspecial_map@@V?$allocator@Uspecial_map@@@std@@@std@@@std@@V?$allocator@U?$pair@$$CBKV?$vector@Uspecial_map@@V?$allocator@Uspecial_map@@@std@@@std@@@std@@@2@@std@@AAEAAV?$allocator@U?$_List_node@U?$pair@$$CBKV?$vector@Uspecial_map@@V?$allocator@Uspecial_map@@@std@@@std@@@std@@PAX@std@@@2@XZ ; std::list<std::pair<unsigned long const ,std::vector<special_map,std::allocator<special_map> > >,std::allocator<std::pair<unsigned long const ,std::vector<special_map,std::allocator<special_map> > > > >::_Getal
PUBLIC	?select_on_container_copy_construction@?$_Default_allocator_traits@V?$allocator@U?$_List_node@U?$pair@$$CBKV?$vector@Uspecial_map@@V?$allocator@Uspecial_map@@@std@@@std@@@std@@PAX@std@@@std@@@std@@SA?AV?$allocator@U?$_List_node@U?$pair@$$CBKV?$vector@Uspecial_map@@V?$allocator@Uspecial_map@@@std@@@std@@@std@@PAX@std@@@2@ABV32@@Z ; std::_Default_allocator_traits<std::allocator<std::_List_node<std::pair<unsigned long const ,std::vector<special_map,std::allocator<special_map> > >,void *> > >::select_on_container_copy_construction
PUBLIC	??D?$_List_iterator@V?$_List_val@U?$_List_simple_types@U?$pair@$$CBKV?$vector@Uspecial_map@@V?$allocator@Uspecial_map@@@std@@@std@@@std@@@std@@@std@@@std@@QBEAAU?$pair@$$CBKV?$vector@Uspecial_map@@V?$allocator@Uspecial_map@@@std@@@std@@@1@XZ ; std::_List_iterator<std::_List_val<std::_List_simple_types<std::pair<unsigned long const ,std::vector<special_map,std::allocator<special_map> > > > > >::operator*
PUBLIC	?_Tidy@?$_Hash_vec@V?$allocator@V?$_List_unchecked_iterator@V?$_List_val@U?$_List_simple_types@U?$pair@$$CBKV?$vector@Uspecial_map@@V?$allocator@Uspecial_map@@@std@@@std@@@std@@@std@@@std@@@std@@@std@@@std@@QAEXXZ ; std::_Hash_vec<std::allocator<std::_List_unchecked_iterator<std::_List_val<std::_List_simple_types<std::pair<unsigned long const ,std::vector<special_map,std::allocator<special_map> > > > > > > >::_Tidy
PUBLIC	??0?$allocator@U?$pair@$$CBKPAUr_table@@@std@@@std@@QAE@XZ ; std::allocator<std::pair<unsigned long const ,r_table *> >::allocator<std::pair<unsigned long const ,r_table *> >
PUBLIC	??0?$_Hash@V?$_Umap_traits@KPAUr_table@@V?$_Uhash_compare@KU?$hash@K@std@@U?$equal_to@K@2@@std@@V?$allocator@U?$pair@$$CBKPAUr_table@@@std@@@3@$0A@@std@@@std@@IAE@ABV?$_Uhash_compare@KU?$hash@K@std@@U?$equal_to@K@2@@1@ABV?$allocator@U?$pair@$$CBKPAUr_table@@@std@@@1@@Z ; std::_Hash<std::_Umap_traits<unsigned long,r_table *,std::_Uhash_compare<unsigned long,std::hash<unsigned long>,std::equal_to<unsigned long> >,std::allocator<std::pair<unsigned long const ,r_table *> >,0> >::_Hash<std::_Umap_traits<unsigned long,r_table *,std::_Uhash_compare<unsigned long,std::hash<unsigned long>,std::equal_to<unsigned long> >,std::allocator<std::pair<unsigned long const ,r_table *> >,0> >
PUBLIC	?_Unchecked_end@?$_Hash@V?$_Umap_traits@KPAUr_table@@V?$_Uhash_compare@KU?$hash@K@std@@U?$equal_to@K@2@@std@@V?$allocator@U?$pair@$$CBKPAUr_table@@@std@@@3@$0A@@std@@@std@@QAE?AV?$_List_unchecked_iterator@V?$_List_val@U?$_List_simple_types@U?$pair@$$CBKPAUr_table@@@std@@@std@@@std@@@2@XZ ; std::_Hash<std::_Umap_traits<unsigned long,r_table *,std::_Uhash_compare<unsigned long,std::hash<unsigned long>,std::equal_to<unsigned long> >,std::allocator<std::pair<unsigned long const ,r_table *> >,0> >::_Unchecked_end
PUBLIC	?bucket_count@?$_Hash@V?$_Umap_traits@KPAUr_table@@V?$_Uhash_compare@KU?$hash@K@std@@U?$equal_to@K@2@@std@@V?$allocator@U?$pair@$$CBKPAUr_table@@@std@@@3@$0A@@std@@@std@@QBEIXZ ; std::_Hash<std::_Umap_traits<unsigned long,r_table *,std::_Uhash_compare<unsigned long,std::hash<unsigned long>,std::equal_to<unsigned long> >,std::allocator<std::pair<unsigned long const ,r_table *> >,0> >::bucket_count
PUBLIC	?_Unchecked_erase@?$_Hash@V?$_Umap_traits@KPAUr_table@@V?$_Uhash_compare@KU?$hash@K@std@@U?$equal_to@K@2@@std@@V?$allocator@U?$pair@$$CBKPAUr_table@@@std@@@3@$0A@@std@@@std@@AAEPAU?$_List_node@U?$pair@$$CBKPAUr_table@@@std@@PAX@2@PAU32@@Z ; std::_Hash<std::_Umap_traits<unsigned long,r_table *,std::_Uhash_compare<unsigned long,std::hash<unsigned long>,std::equal_to<unsigned long> >,std::allocator<std::pair<unsigned long const ,r_table *> >,0> >::_Unchecked_erase
PUBLIC	?_Unchecked_erase@?$_Hash@V?$_Umap_traits@KPAUr_table@@V?$_Uhash_compare@KU?$hash@K@std@@U?$equal_to@K@2@@std@@V?$allocator@U?$pair@$$CBKPAUr_table@@@std@@@3@$0A@@std@@@std@@AAEPAU?$_List_node@U?$pair@$$CBKPAUr_table@@@std@@PAX@2@PAU32@QAU32@@Z ; std::_Hash<std::_Umap_traits<unsigned long,r_table *,std::_Uhash_compare<unsigned long,std::hash<unsigned long>,std::equal_to<unsigned long> >,std::allocator<std::pair<unsigned long const ,r_table *> >,0> >::_Unchecked_erase
PUBLIC	?begin@?$list@U?$pair@$$CBKPAUr_table@@@std@@V?$allocator@U?$pair@$$CBKPAUr_table@@@std@@@2@@std@@QAE?AV?$_List_iterator@V?$_List_val@U?$_List_simple_types@U?$pair@$$CBKPAUr_table@@@std@@@std@@@std@@@2@XZ ; std::list<std::pair<unsigned long const ,r_table *>,std::allocator<std::pair<unsigned long const ,r_table *> > >::begin
PUBLIC	?end@?$list@U?$pair@$$CBKPAUr_table@@@std@@V?$allocator@U?$pair@$$CBKPAUr_table@@@std@@@2@@std@@QAE?AV?$_List_iterator@V?$_List_val@U?$_List_simple_types@U?$pair@$$CBKPAUr_table@@@std@@@std@@@std@@@2@XZ ; std::list<std::pair<unsigned long const ,r_table *>,std::allocator<std::pair<unsigned long const ,r_table *> > >::end
PUBLIC	?_Make_iter@?$list@U?$pair@$$CBKPAUr_table@@@std@@V?$allocator@U?$pair@$$CBKPAUr_table@@@std@@@2@@std@@QBE?AV?$_List_iterator@V?$_List_val@U?$_List_simple_types@U?$pair@$$CBKPAUr_table@@@std@@@std@@@std@@@2@PAU?$_List_node@U?$pair@$$CBKPAUr_table@@@std@@PAX@2@@Z ; std::list<std::pair<unsigned long const ,r_table *>,std::allocator<std::pair<unsigned long const ,r_table *> > >::_Make_iter
PUBLIC	?clear@?$list@U?$pair@$$CBKPAUr_table@@@std@@V?$allocator@U?$pair@$$CBKPAUr_table@@@std@@@2@@std@@QAEXXZ ; std::list<std::pair<unsigned long const ,r_table *>,std::allocator<std::pair<unsigned long const ,r_table *> > >::clear
PUBLIC	?_Tidy@?$list@U?$pair@$$CBKPAUr_table@@@std@@V?$allocator@U?$pair@$$CBKPAUr_table@@@std@@@2@@std@@AAEXXZ ; std::list<std::pair<unsigned long const ,r_table *>,std::allocator<std::pair<unsigned long const ,r_table *> > >::_Tidy
PUBLIC	??D?$_List_iterator@V?$_List_val@U?$_List_simple_types@U?$pair@$$CBKPAUr_table@@@std@@@std@@@std@@@std@@QBEAAU?$pair@$$CBKPAUr_table@@@1@XZ ; std::_List_iterator<std::_List_val<std::_List_simple_types<std::pair<unsigned long const ,r_table *> > > >::operator*
PUBLIC	?_Tidy@?$_Hash_vec@V?$allocator@V?$_List_unchecked_iterator@V?$_List_val@U?$_List_simple_types@U?$pair@$$CBKPAUr_table@@@std@@@std@@@std@@@std@@@std@@@std@@QAEXXZ ; std::_Hash_vec<std::allocator<std::_List_unchecked_iterator<std::_List_val<std::_List_simple_types<std::pair<unsigned long const ,r_table *> > > > > >::_Tidy
PUBLIC	?_Tidy@?$vector@U?$pair@KK@std@@V?$allocator@U?$pair@KK@std@@@2@@std@@AAEXXZ ; std::vector<std::pair<unsigned long,unsigned long>,std::allocator<std::pair<unsigned long,unsigned long> > >::_Tidy
PUBLIC	?begin@?$initializer_list@U?$pair@KK@std@@@std@@QBEPBU?$pair@KK@2@XZ ; std::initializer_list<std::pair<unsigned long,unsigned long> >::begin
PUBLIC	?end@?$initializer_list@U?$pair@KK@std@@@std@@QBEPBU?$pair@KK@2@XZ ; std::initializer_list<std::pair<unsigned long,unsigned long> >::end
PUBLIC	?size@?$initializer_list@U?$pair@KK@std@@@std@@QBEIXZ ; std::initializer_list<std::pair<unsigned long,unsigned long> >::size
PUBLIC	??0?$_Tree@V?$_Tmap_traits@EV?$vector@KV?$allocator@K@std@@@std@@U?$less@E@2@V?$allocator@U?$pair@$$CBEV?$vector@KV?$allocator@K@std@@@std@@@std@@@2@$0A@@std@@@std@@QAE@ABU?$less@E@1@@Z ; std::_Tree<std::_Tmap_traits<unsigned char,std::vector<unsigned long,std::allocator<unsigned long> >,std::less<unsigned char>,std::allocator<std::pair<unsigned char const ,std::vector<unsigned long,std::allocator<unsigned long> > > >,0> >::_Tree<std::_Tmap_traits<unsigned char,std::vector<unsigned long,std::allocator<unsigned long> >,std::less<unsigned char>,std::allocator<std::pair<unsigned char const ,std::vector<unsigned long,std::allocator<unsigned long> > > >,0> >
PUBLIC	?insert@?$_Tree@V?$_Tmap_traits@EV?$vector@KV?$allocator@K@std@@@std@@U?$less@E@2@V?$allocator@U?$pair@$$CBEV?$vector@KV?$allocator@K@std@@@std@@@std@@@2@$0A@@std@@@std@@QAEXV?$initializer_list@U?$pair@$$CBEV?$vector@KV?$allocator@K@std@@@std@@@std@@@2@@Z ; std::_Tree<std::_Tmap_traits<unsigned char,std::vector<unsigned long,std::allocator<unsigned long> >,std::less<unsigned char>,std::allocator<std::pair<unsigned char const ,std::vector<unsigned long,std::allocator<unsigned long> > > >,0> >::insert
PUBLIC	?_Getal@?$_Tree@V?$_Tmap_traits@EV?$vector@KV?$allocator@K@std@@@std@@U?$less@E@2@V?$allocator@U?$pair@$$CBEV?$vector@KV?$allocator@K@std@@@std@@@std@@@2@$0A@@std@@@std@@IAEAAV?$allocator@U?$_Tree_node@U?$pair@$$CBEV?$vector@KV?$allocator@K@std@@@std@@@std@@PAX@std@@@2@XZ ; std::_Tree<std::_Tmap_traits<unsigned char,std::vector<unsigned long,std::allocator<unsigned long> >,std::less<unsigned char>,std::allocator<std::pair<unsigned char const ,std::vector<unsigned long,std::allocator<unsigned long> > > >,0> >::_Getal
PUBLIC	?_Get_scary@?$_Tree@V?$_Tmap_traits@EV?$vector@KV?$allocator@K@std@@@std@@U?$less@E@2@V?$allocator@U?$pair@$$CBEV?$vector@KV?$allocator@K@std@@@std@@@std@@@2@$0A@@std@@@std@@IAEPAV?$_Tree_val@U?$_Tree_simple_types@U?$pair@$$CBEV?$vector@KV?$allocator@K@std@@@std@@@std@@@std@@@2@XZ ; std::_Tree<std::_Tmap_traits<unsigned char,std::vector<unsigned long,std::allocator<unsigned long> >,std::less<unsigned char>,std::allocator<std::pair<unsigned char const ,std::vector<unsigned long,std::allocator<unsigned long> > > >,0> >::_Get_scary
PUBLIC	?_Get_scary@?$_Tree@V?$_Tmap_traits@EV?$vector@KV?$allocator@K@std@@@std@@U?$less@E@2@V?$allocator@U?$pair@$$CBEV?$vector@KV?$allocator@K@std@@@std@@@std@@@2@$0A@@std@@@std@@IBEPBV?$_Tree_val@U?$_Tree_simple_types@U?$pair@$$CBEV?$vector@KV?$allocator@K@std@@@std@@@std@@@std@@@2@XZ ; std::_Tree<std::_Tmap_traits<unsigned char,std::vector<unsigned long,std::allocator<unsigned long> >,std::less<unsigned char>,std::allocator<std::pair<unsigned char const ,std::vector<unsigned long,std::allocator<unsigned long> > > >,0> >::_Get_scary
PUBLIC	??D?$_Tree_const_iterator@V?$_Tree_val@U?$_Tree_simple_types@U?$pair@$$CBEV?$vector@KV?$allocator@K@std@@@std@@@std@@@std@@@std@@@std@@QBEABU?$pair@$$CBEV?$vector@KV?$allocator@K@std@@@std@@@1@XZ ; std::_Tree_const_iterator<std::_Tree_val<std::_Tree_simple_types<std::pair<unsigned char const ,std::vector<unsigned long,std::allocator<unsigned long> > > > > >::operator*
PUBLIC	??0?$_Tree_unchecked_const_iterator@V?$_Tree_val@U?$_Tree_simple_types@U?$pair@$$CBEV?$vector@KV?$allocator@K@std@@@std@@@std@@@std@@@std@@U_Iterator_base0@2@@std@@QAE@PAU?$_Tree_node@U?$pair@$$CBEV?$vector@KV?$allocator@K@std@@@std@@@std@@PAX@1@PBV?$_Tree_val@U?$_Tree_simple_types@U?$pair@$$CBEV?$vector@KV?$allocator@K@std@@@std@@@std@@@std@@@1@@Z ; std::_Tree_unchecked_const_iterator<std::_Tree_val<std::_Tree_simple_types<std::pair<unsigned char const ,std::vector<unsigned long,std::allocator<unsigned long> > > > >,std::_Iterator_base0>::_Tree_unchecked_const_iterator<std::_Tree_val<std::_Tree_simple_types<std::pair<unsigned char const ,std::vector<unsigned long,std::allocator<unsigned long> > > > >,std::_Iterator_base0>
PUBLIC	?_Tidy@?$vector@PAV?$vector@Urefine_map@@V?$allocator@Urefine_map@@@std@@@std@@V?$allocator@PAV?$vector@Urefine_map@@V?$allocator@Urefine_map@@@std@@@std@@@2@@std@@AAEXXZ ; std::vector<std::vector<refine_map,std::allocator<refine_map> > *,std::allocator<std::vector<refine_map,std::allocator<refine_map> > *> >::_Tidy
PUBLIC	?begin@?$initializer_list@PAV?$vector@Urefine_map@@V?$allocator@Urefine_map@@@std@@@std@@@std@@QBEPBQAV?$vector@Urefine_map@@V?$allocator@Urefine_map@@@std@@@2@XZ ; std::initializer_list<std::vector<refine_map,std::allocator<refine_map> > *>::begin
PUBLIC	?end@?$initializer_list@PAV?$vector@Urefine_map@@V?$allocator@Urefine_map@@@std@@@std@@@std@@QBEPBQAV?$vector@Urefine_map@@V?$allocator@Urefine_map@@@std@@@2@XZ ; std::initializer_list<std::vector<refine_map,std::allocator<refine_map> > *>::end
PUBLIC	?size@?$initializer_list@PAV?$vector@Urefine_map@@V?$allocator@Urefine_map@@@std@@@std@@@std@@QBEIXZ ; std::initializer_list<std::vector<refine_map,std::allocator<refine_map> > *>::size
PUBLIC	??1?$_List_node_emplace_op2@V?$allocator@U?$_List_node@U?$pair@$$CBKV?$vector@Uspecial_map@@V?$allocator@Uspecial_map@@@std@@@std@@@std@@PAX@std@@@std@@@std@@QAE@XZ ; std::_List_node_emplace_op2<std::allocator<std::_List_node<std::pair<unsigned long const ,std::vector<special_map,std::allocator<special_map> > >,void *> > >::~_List_node_emplace_op2<std::allocator<std::_List_node<std::pair<unsigned long const ,std::vector<special_map,std::allocator<special_map> > >,void *> > >
PUBLIC	?_Release@?$_Alloc_construct_ptr@V?$allocator@U?$_List_node@U?$pair@$$CBKV?$vector@Uspecial_map@@V?$allocator@Uspecial_map@@@std@@@std@@@std@@PAX@std@@@std@@@std@@QAEPAU?$_List_node@U?$pair@$$CBKV?$vector@Uspecial_map@@V?$allocator@Uspecial_map@@@std@@@std@@@std@@PAX@2@XZ ; std::_Alloc_construct_ptr<std::allocator<std::_List_node<std::pair<unsigned long const ,std::vector<special_map,std::allocator<special_map> > >,void *> > >::_Release
PUBLIC	??1?$_Optimistic_temporary_buffer@Urefine_map@@@std@@QAE@XZ ; std::_Optimistic_temporary_buffer<refine_map>::~_Optimistic_temporary_buffer<refine_map>
PUBLIC	?pointer_to@?$pointer_traits@PBU?$pair@$$CBEV?$vector@KV?$allocator@K@std@@@std@@@std@@@std@@SAPBU?$pair@$$CBEV?$vector@KV?$allocator@K@std@@@std@@@2@ABU32@@Z ; std::pointer_traits<std::pair<unsigned char const ,std::vector<unsigned long,std::allocator<unsigned long> > > const *>::pointer_to
PUBLIC	?pointer_to@?$pointer_traits@PAU?$pair@$$CBKPAUr_table@@@std@@@std@@SAPAU?$pair@$$CBKPAUr_table@@@2@AAU32@@Z ; std::pointer_traits<std::pair<unsigned long const ,r_table *> *>::pointer_to
PUBLIC	?pointer_to@?$pointer_traits@PAU?$pair@$$CBKV?$vector@Uspecial_map@@V?$allocator@Uspecial_map@@@std@@@std@@@std@@@std@@SAPAU?$pair@$$CBKV?$vector@Uspecial_map@@V?$allocator@Uspecial_map@@@std@@@std@@@2@AAU32@@Z ; std::pointer_traits<std::pair<unsigned long const ,std::vector<special_map,std::allocator<special_map> > > *>::pointer_to
PUBLIC	??$_Construct_n@PBKPBK@?$vector@KV?$allocator@K@std@@@std@@AAEXI$$QAPBK0@Z ; std::vector<unsigned long,std::allocator<unsigned long> >::_Construct_n<unsigned long const *,unsigned long const *>
PUBLIC	??$?0ABV?$allocator@K@std@@$$V@?$_Compressed_pair@V?$allocator@K@std@@V?$_Vector_val@U?$_Simple_types@K@std@@@2@$00@std@@QAE@U_One_then_variadic_args_t@1@ABV?$allocator@K@1@@Z ; std::_Compressed_pair<std::allocator<unsigned long>,std::_Vector_val<std::_Simple_types<unsigned long> >,1>::_Compressed_pair<std::allocator<unsigned long>,std::_Vector_val<std::_Simple_types<unsigned long> >,1><std::allocator<unsigned long> const &>
PUBLIC	??$?0V?$allocator@K@std@@PAKPAKPAK@?$_Compressed_pair@V?$allocator@K@std@@V?$_Vector_val@U?$_Simple_types@K@std@@@2@$00@std@@QAE@U_One_then_variadic_args_t@1@$$QAV?$allocator@K@1@$$QAPAK22@Z ; std::_Compressed_pair<std::allocator<unsigned long>,std::_Vector_val<std::_Simple_types<unsigned long> >,1>::_Compressed_pair<std::allocator<unsigned long>,std::_Vector_val<std::_Simple_types<unsigned long> >,1><std::allocator<unsigned long>,unsigned long *,unsigned long *,unsigned long *>
PUBLIC	??$exchange@PAK$$T@std@@YAPAKAAPAK$$QA$$T@Z	; std::exchange<unsigned long *,std::nullptr_t>
PUBLIC	??$move@AAV?$allocator@K@std@@@std@@YA$$QAV?$allocator@K@0@AAV10@@Z ; std::move<std::allocator<unsigned long> &>
PUBLIC	??$addressof@$$CBV?$_Vector_val@U?$_Simple_types@K@std@@@std@@@std@@YAPBV?$_Vector_val@U?$_Simple_types@K@std@@@0@ABV10@@Z ; std::addressof<std::_Vector_val<std::_Simple_types<unsigned long> > const >
PUBLIC	??$?0$$V@?$_Compressed_pair@V?$allocator@Uspecial_map@@@std@@V?$_Vector_val@U?$_Simple_types@Uspecial_map@@@std@@@2@$00@std@@QAE@U_Zero_then_variadic_args_t@1@@Z ; std::_Compressed_pair<std::allocator<special_map>,std::_Vector_val<std::_Simple_types<special_map> >,1>::_Compressed_pair<std::allocator<special_map>,std::_Vector_val<std::_Simple_types<special_map> >,1><>
PUBLIC	??$_Emplace_one_at_back@Uspecial_map@@@?$vector@Uspecial_map@@V?$allocator@Uspecial_map@@@std@@@std@@AAEAAUspecial_map@@$$QAU2@@Z ; std::vector<special_map,std::allocator<special_map> >::_Emplace_one_at_back<special_map>
PUBLIC	??$move@AAUspecial_map@@@std@@YA$$QAUspecial_map@@AAU1@@Z ; std::move<special_map &>
PUBLIC	??$_Destroy_range@V?$allocator@Uspecial_map@@@std@@@std@@YAXPAUspecial_map@@QAU1@AAV?$allocator@Uspecial_map@@@0@@Z ; std::_Destroy_range<std::allocator<special_map> >
PUBLIC	??$_Unfancy_maybe_null@Uspecial_map@@@std@@YAPAUspecial_map@@PAU1@@Z ; std::_Unfancy_maybe_null<special_map>
PUBLIC	??$?0V?$allocator@U?$_List_node@U?$pair@$$CBKV?$vector@Uspecial_map@@V?$allocator@Uspecial_map@@@std@@@std@@@std@@PAX@std@@@std@@@?$_Hash@V?$_Umap_traits@KV?$vector@Uspecial_map@@V?$allocator@Uspecial_map@@@std@@@std@@V?$_Uhash_compare@KU?$hash@K@std@@U?$equal_to@K@2@@2@V?$allocator@U?$pair@$$CBKV?$vector@Uspecial_map@@V?$allocator@Uspecial_map@@@std@@@std@@@std@@@2@$0A@@std@@@std@@IAE@ABV01@ABV?$allocator@U?$_List_node@U?$pair@$$CBKV?$vector@Uspecial_map@@V?$allocator@Uspecial_map@@@std@@@std@@@std@@PAX@std@@@1@@Z ; std::_Hash<std::_Umap_traits<unsigned long,std::vector<special_map,std::allocator<special_map> >,std::_Uhash_compare<unsigned long,std::hash<unsigned long>,std::equal_to<unsigned long> >,std::allocator<std::pair<unsigned long const ,std::vector<special_map,std::allocator<special_map> > > >,0> >::_Hash<std::_Umap_traits<unsigned long,std::vector<special_map,std::allocator<special_map> >,std::_Uhash_compare<unsigned long,std::hash<unsigned long>,std::equal_to<unsigned long> >,std::allocator<std::pair<unsigned long const ,std::vector<special_map,std::allocator<special_map> > > >,0> ><std::allocator<std::_List_node<std::pair<unsigned long const ,std::vector<special_map,std::allocator<special_map> > >,void *> > >
PUBLIC	??$?0$$V@?$_Compressed_pair@V?$allocator@Urefine_map@@@std@@V?$_Vector_val@U?$_Simple_types@Urefine_map@@@std@@@2@$00@std@@QAE@U_Zero_then_variadic_args_t@1@@Z ; std::_Compressed_pair<std::allocator<refine_map>,std::_Vector_val<std::_Simple_types<refine_map> >,1>::_Compressed_pair<std::allocator<refine_map>,std::_Vector_val<std::_Simple_types<refine_map> >,1><>
PUBLIC	??$_Destroy_range@V?$allocator@Urefine_map@@@std@@@std@@YAXPAUrefine_map@@QAU1@AAV?$allocator@Urefine_map@@@0@@Z ; std::_Destroy_range<std::allocator<refine_map> >
PUBLIC	??$addressof@V?$_Vector_val@U?$_Simple_types@Urefine_map@@@std@@@std@@@std@@YAPAV?$_Vector_val@U?$_Simple_types@Urefine_map@@@std@@@0@AAV10@@Z ; std::addressof<std::_Vector_val<std::_Simple_types<refine_map> > >
PUBLIC	??$_Find@K@?$_Hash@V?$_Umap_traits@KV?$vector@Uspecial_map@@V?$allocator@Uspecial_map@@@std@@@std@@V?$_Uhash_compare@KU?$hash@K@std@@U?$equal_to@K@2@@2@V?$allocator@U?$pair@$$CBKV?$vector@Uspecial_map@@V?$allocator@Uspecial_map@@@std@@@std@@@std@@@2@$0A@@std@@@std@@ABEPAU?$_List_node@U?$pair@$$CBKV?$vector@Uspecial_map@@V?$allocator@Uspecial_map@@@std@@@std@@@std@@PAX@1@ABKI@Z ; std::_Hash<std::_Umap_traits<unsigned long,std::vector<special_map,std::allocator<special_map> >,std::_Uhash_compare<unsigned long,std::hash<unsigned long>,std::equal_to<unsigned long> >,std::allocator<std::pair<unsigned long const ,std::vector<special_map,std::allocator<special_map> > > >,0> >::_Find<unsigned long>
PUBLIC	??$fill@PAV?$_List_unchecked_iterator@V?$_List_val@U?$_List_simple_types@U?$pair@$$CBKPAUr_table@@@std@@@std@@@std@@@std@@V12@@std@@YAXQAV?$_List_unchecked_iterator@V?$_List_val@U?$_List_simple_types@U?$pair@$$CBKPAUr_table@@@std@@@std@@@std@@@0@0ABV10@@Z ; std::fill<std::_List_unchecked_iterator<std::_List_val<std::_List_simple_types<std::pair<unsigned long const ,r_table *> > > > *,std::_List_unchecked_iterator<std::_List_val<std::_List_simple_types<std::pair<unsigned long const ,r_table *> > > > >
PUBLIC	??$_Get_unwrapped@ABQAV?$_List_unchecked_iterator@V?$_List_val@U?$_List_simple_types@U?$pair@$$CBKPAUr_table@@@std@@@std@@@std@@@std@@@std@@YA?A_TABQAV?$_List_unchecked_iterator@V?$_List_val@U?$_List_simple_types@U?$pair@$$CBKPAUr_table@@@std@@@std@@@std@@@0@@Z ; std::_Get_unwrapped<std::_List_unchecked_iterator<std::_List_val<std::_List_simple_types<std::pair<unsigned long const ,r_table *> > > > * const &>
PUBLIC	??$_Find@K@?$_Hash@V?$_Umap_traits@KPAUr_table@@V?$_Uhash_compare@KU?$hash@K@std@@U?$equal_to@K@2@@std@@V?$allocator@U?$pair@$$CBKPAUr_table@@@std@@@3@$0A@@std@@@std@@ABEPAU?$_List_node@U?$pair@$$CBKPAUr_table@@@std@@PAX@1@ABKI@Z ; std::_Hash<std::_Umap_traits<unsigned long,r_table *,std::_Uhash_compare<unsigned long,std::hash<unsigned long>,std::equal_to<unsigned long> >,std::allocator<std::pair<unsigned long const ,r_table *> >,0> >::_Find<unsigned long>
PUBLIC	??$_Construct_n@PBU?$pair@KK@std@@PBU12@@?$vector@U?$pair@KK@std@@V?$allocator@U?$pair@KK@std@@@2@@std@@AAEXI$$QAPBU?$pair@KK@1@0@Z ; std::vector<std::pair<unsigned long,unsigned long>,std::allocator<std::pair<unsigned long,unsigned long> > >::_Construct_n<std::pair<unsigned long,unsigned long> const *,std::pair<unsigned long,unsigned long> const *>
PUBLIC	??$?0ABV?$allocator@U?$pair@KK@std@@@std@@$$V@?$_Compressed_pair@V?$allocator@U?$pair@KK@std@@@std@@V?$_Vector_val@U?$_Simple_types@U?$pair@KK@std@@@std@@@2@$00@std@@QAE@U_One_then_variadic_args_t@1@ABV?$allocator@U?$pair@KK@std@@@1@@Z ; std::_Compressed_pair<std::allocator<std::pair<unsigned long,unsigned long> >,std::_Vector_val<std::_Simple_types<std::pair<unsigned long,unsigned long> > >,1>::_Compressed_pair<std::allocator<std::pair<unsigned long,unsigned long> >,std::_Vector_val<std::_Simple_types<std::pair<unsigned long,unsigned long> > >,1><std::allocator<std::pair<unsigned long,unsigned long> > const &>
PUBLIC	??$_Unfancy_maybe_null@U?$pair@KK@std@@@std@@YAPAU?$pair@KK@0@PAU10@@Z ; std::_Unfancy_maybe_null<std::pair<unsigned long,unsigned long> >
PUBLIC	??$_Erase_head@V?$allocator@U?$_Tree_node@U?$pair@$$CBEV?$vector@KV?$allocator@K@std@@@std@@@std@@PAX@std@@@std@@@?$_Tree_val@U?$_Tree_simple_types@U?$pair@$$CBEV?$vector@KV?$allocator@K@std@@@std@@@std@@@std@@@std@@QAEXAAV?$allocator@U?$_Tree_node@U?$pair@$$CBEV?$vector@KV?$allocator@K@std@@@std@@@std@@PAX@std@@@1@@Z ; std::_Tree_val<std::_Tree_simple_types<std::pair<unsigned char const ,std::vector<unsigned long,std::allocator<unsigned long> > > > >::_Erase_head<std::allocator<std::_Tree_node<std::pair<unsigned char const ,std::vector<unsigned long,std::allocator<unsigned long> > >,void *> > >
PUBLIC	??$_Find@E@?$_Tree@V?$_Tmap_traits@EV?$vector@KV?$allocator@K@std@@@std@@U?$less@E@2@V?$allocator@U?$pair@$$CBEV?$vector@KV?$allocator@K@std@@@std@@@std@@@2@$0A@@std@@@std@@ABEPAU?$_Tree_node@U?$pair@$$CBEV?$vector@KV?$allocator@K@std@@@std@@@std@@PAX@1@ABE@Z ; std::_Tree<std::_Tmap_traits<unsigned char,std::vector<unsigned long,std::allocator<unsigned long> >,std::less<unsigned char>,std::allocator<std::pair<unsigned char const ,std::vector<unsigned long,std::allocator<unsigned long> > > >,0> >::_Find<unsigned char>
PUBLIC	??$_Construct_n@PBQAV?$vector@Urefine_map@@V?$allocator@Urefine_map@@@std@@@std@@PBQAV12@@?$vector@PAV?$vector@Urefine_map@@V?$allocator@Urefine_map@@@std@@@std@@V?$allocator@PAV?$vector@Urefine_map@@V?$allocator@Urefine_map@@@std@@@std@@@2@@std@@AAEXI$$QAPBQAV?$vector@Urefine_map@@V?$allocator@Urefine_map@@@std@@@1@0@Z ; std::vector<std::vector<refine_map,std::allocator<refine_map> > *,std::allocator<std::vector<refine_map,std::allocator<refine_map> > *> >::_Construct_n<std::vector<refine_map,std::allocator<refine_map> > * const *,std::vector<refine_map,std::allocator<refine_map> > * const *>
PUBLIC	??$?0ABV?$allocator@PAV?$vector@Urefine_map@@V?$allocator@Urefine_map@@@std@@@std@@@std@@$$V@?$_Compressed_pair@V?$allocator@PAV?$vector@Urefine_map@@V?$allocator@Urefine_map@@@std@@@std@@@std@@V?$_Vector_val@U?$_Simple_types@PAV?$vector@Urefine_map@@V?$allocator@Urefine_map@@@std@@@std@@@std@@@2@$00@std@@QAE@U_One_then_variadic_args_t@1@ABV?$allocator@PAV?$vector@Urefine_map@@V?$allocator@Urefine_map@@@std@@@std@@@1@@Z ; std::_Compressed_pair<std::allocator<std::vector<refine_map,std::allocator<refine_map> > *>,std::_Vector_val<std::_Simple_types<std::vector<refine_map,std::allocator<refine_map> > *> >,1>::_Compressed_pair<std::allocator<std::vector<refine_map,std::allocator<refine_map> > *>,std::_Vector_val<std::_Simple_types<std::vector<refine_map,std::allocator<refine_map> > *> >,1><std::allocator<std::vector<refine_map,std::allocator<refine_map> > *> const &>
PUBLIC	??$_Unfancy_maybe_null@PAV?$vector@Urefine_map@@V?$allocator@Urefine_map@@@std@@@std@@@std@@YAPAPAV?$vector@Urefine_map@@V?$allocator@Urefine_map@@@std@@@0@PAPAV10@@Z ; std::_Unfancy_maybe_null<std::vector<refine_map,std::allocator<refine_map> > *>
PUBLIC	??$_Emplace_one_at_back@Urefine_map@@@?$vector@Urefine_map@@V?$allocator@Urefine_map@@@std@@@std@@AAEAAUrefine_map@@$$QAU2@@Z ; std::vector<refine_map,std::allocator<refine_map> >::_Emplace_one_at_back<refine_map>
PUBLIC	??$forward@Urefine_map@@@std@@YA$$QAUrefine_map@@AAU1@@Z ; std::forward<refine_map>
PUBLIC	??$emplace@U?$pair@KPAUr_table@@@std@@@?$_Hash@V?$_Umap_traits@KPAUr_table@@V?$_Uhash_compare@KU?$hash@K@std@@U?$equal_to@K@2@@std@@V?$allocator@U?$pair@$$CBKPAUr_table@@@std@@@3@$0A@@std@@@std@@QAE?AU?$pair@V?$_List_iterator@V?$_List_val@U?$_List_simple_types@U?$pair@$$CBKPAUr_table@@@std@@@std@@@std@@@std@@_N@1@$$QAU?$pair@KPAUr_table@@@1@@Z ; std::_Hash<std::_Umap_traits<unsigned long,r_table *,std::_Uhash_compare<unsigned long,std::hash<unsigned long>,std::equal_to<unsigned long> >,std::allocator<std::pair<unsigned long const ,r_table *> >,0> >::emplace<std::pair<unsigned long,r_table *> >
PUBLIC	??$forward@U?$pair@KPAUr_table@@@std@@@std@@YA$$QAU?$pair@KPAUr_table@@@0@AAU10@@Z ; std::forward<std::pair<unsigned long,r_table *> >
PUBLIC	??$?0AAKAAPAUr_table@@$0A@@?$pair@KPAUr_table@@@std@@QAE@AAKAAPAUr_table@@@Z ; std::pair<unsigned long,r_table *>::pair<unsigned long,r_table *><unsigned long &,r_table * &,0>
PUBLIC	??$forward@AAPAUr_table@@@std@@YAAAPAUr_table@@AAPAU1@@Z ; std::forward<r_table * &>
PUBLIC	??$_Stable_sort_unchecked@PAUrefine_map@@P6A_NU1@0@Z@std@@YAXQAUrefine_map@@0H0HP6A_NU1@1@Z@Z ; std::_Stable_sort_unchecked<refine_map *,bool (__cdecl*)(refine_map,refine_map)>
PUBLIC	??$?0H@?$_Optimistic_temporary_buffer@Urefine_map@@@std@@QAE@H@Z ; std::_Optimistic_temporary_buffer<refine_map>::_Optimistic_temporary_buffer<refine_map><int>
PUBLIC	??$_Insertion_sort_unchecked@PAUrefine_map@@P6A_NU1@0@Z@std@@YAPAUrefine_map@@QAU1@0P6A_NU1@1@Z@Z ; std::_Insertion_sort_unchecked<refine_map *,bool (__cdecl*)(refine_map,refine_map)>
PUBLIC	??$distance@PAUrefine_map@@@std@@YAHPAUrefine_map@@0@Z ; std::distance<refine_map *>
PUBLIC	??$_Unfancy_maybe_null@Urefine_map@@@std@@YAPAUrefine_map@@PAU1@@Z ; std::_Unfancy_maybe_null<refine_map>
PUBLIC	??$_Adl_verify_range@V?$_Vector_iterator@V?$_Vector_val@U?$_Simple_types@Urefine_map@@@std@@@std@@@std@@V12@@std@@YAXABV?$_Vector_iterator@V?$_Vector_val@U?$_Simple_types@Urefine_map@@@std@@@std@@@0@0@Z ; std::_Adl_verify_range<std::_Vector_iterator<std::_Vector_val<std::_Simple_types<refine_map> > >,std::_Vector_iterator<std::_Vector_val<std::_Simple_types<refine_map> > > >
PUBLIC	??$?0V?$_List_iterator@V?$_List_val@U?$_List_simple_types@U?$pair@$$CBKV?$vector@Uspecial_map@@V?$allocator@Uspecial_map@@@std@@@std@@@std@@@std@@@std@@@std@@_N$0A@@?$pair@V?$_List_iterator@V?$_List_val@U?$_List_simple_types@U?$pair@$$CBKV?$vector@Uspecial_map@@V?$allocator@Uspecial_map@@@std@@@std@@@std@@@std@@@std@@@std@@_N@std@@QAE@$$QAV?$_List_iterator@V?$_List_val@U?$_List_simple_types@U?$pair@$$CBKV?$vector@Uspecial_map@@V?$allocator@Uspecial_map@@@std@@@std@@@std@@@std@@@std@@@1@$$QA_N@Z ; std::pair<std::_List_iterator<std::_List_val<std::_List_simple_types<std::pair<unsigned long const ,std::vector<special_map,std::allocator<special_map> > > > > >,bool>::pair<std::_List_iterator<std::_List_val<std::_List_simple_types<std::pair<unsigned long const ,std::vector<special_map,std::allocator<special_map> > > > > >,bool><std::_List_iterator<std::_List_val<std::_List_simple_types<std::pair<unsigned long const ,std::vector<special_map,std::allocator<special_map> > > > > >,bool,0>
PUBLIC	??$_Find_last@K@?$_Hash@V?$_Umap_traits@KV?$vector@Uspecial_map@@V?$allocator@Uspecial_map@@@std@@@std@@V?$_Uhash_compare@KU?$hash@K@std@@U?$equal_to@K@2@@2@V?$allocator@U?$pair@$$CBKV?$vector@Uspecial_map@@V?$allocator@Uspecial_map@@@std@@@std@@@std@@@2@$0A@@std@@@std@@IBE?AU?$_Hash_find_last_result@PAU?$_List_node@U?$pair@$$CBKV?$vector@Uspecial_map@@V?$allocator@Uspecial_map@@@std@@@std@@@std@@PAX@std@@@1@ABKI@Z ; std::_Hash<std::_Umap_traits<unsigned long,std::vector<special_map,std::allocator<special_map> >,std::_Uhash_compare<unsigned long,std::hash<unsigned long>,std::equal_to<unsigned long> >,std::allocator<std::pair<unsigned long const ,std::vector<special_map,std::allocator<special_map> > > >,0> >::_Find_last<unsigned long>
PUBLIC	??$_Kfn@$$CBKV?$vector@Uspecial_map@@V?$allocator@Uspecial_map@@@std@@@std@@@?$_Umap_traits@KV?$vector@Uspecial_map@@V?$allocator@Uspecial_map@@@std@@@std@@V?$_Uhash_compare@KU?$hash@K@std@@U?$equal_to@K@2@@2@V?$allocator@U?$pair@$$CBKV?$vector@Uspecial_map@@V?$allocator@Uspecial_map@@@std@@@std@@@std@@@2@$0A@@std@@SAABKABU?$pair@$$CBKV?$vector@Uspecial_map@@V?$allocator@Uspecial_map@@@std@@@std@@@1@@Z ; std::_Umap_traits<unsigned long,std::vector<special_map,std::allocator<special_map> >,std::_Uhash_compare<unsigned long,std::hash<unsigned long>,std::equal_to<unsigned long> >,std::allocator<std::pair<unsigned long const ,std::vector<special_map,std::allocator<special_map> > > >,0>::_Kfn<unsigned long const ,std::vector<special_map,std::allocator<special_map> > >
PUBLIC	??$?0AAHAAV?$vector@Uspecial_map@@V?$allocator@Uspecial_map@@@std@@@std@@@?$_List_node_emplace_op2@V?$allocator@U?$_List_node@U?$pair@$$CBKV?$vector@Uspecial_map@@V?$allocator@Uspecial_map@@@std@@@std@@@std@@PAX@std@@@std@@@std@@QAE@AAV?$allocator@U?$_List_node@U?$pair@$$CBKV?$vector@Uspecial_map@@V?$allocator@Uspecial_map@@@std@@@std@@@std@@PAX@std@@@1@AAHAAV?$vector@Uspecial_map@@V?$allocator@Uspecial_map@@@std@@@1@@Z ; std::_List_node_emplace_op2<std::allocator<std::_List_node<std::pair<unsigned long const ,std::vector<special_map,std::allocator<special_map> > >,void *> > >::_List_node_emplace_op2<std::allocator<std::_List_node<std::pair<unsigned long const ,std::vector<special_map,std::allocator<special_map> > >,void *> > ><int &,std::vector<special_map,std::allocator<special_map> > &>
