; Listing generated by Microsoft (R) Optimizing Compiler Version 19.44.35219.0 

	TITLE	c:\anka2project\anka2project\source\binary\vs_files\userinterface\release\pythonnonplayermodule.obj
	.686P
	.XMM
	include listing.inc
	.model	flat

INCLUDELIB OLDNAMES

PUBLIC	??_C@_0N@HBLLMFED@GetEventType@			; `string'
PUBLIC	??_C@_01MJMHLOMK@O@				; `string'
PUBLIC	??_C@_0O@DBPCDLCL@GetLevelByVID@		; `string'
PUBLIC	??_C@_0BC@BCIFCAAC@GetEventTypeByVID@		; `string'
PUBLIC	??_C@_0P@OLKHIBCH@GetMonsterName@		; `string'
PUBLIC	??_C@_0O@EGDCEMAL@GetGradeByVID@		; `string'
PUBLIC	??_C@_0BD@JNKBHIE@MonsterHasRaceFlag@		; `string'
PUBLIC	??_C@_0BA@MNILMPOO@GetRaceNumByVID@		; `string'
PUBLIC	??_C@_0O@JALPLFAN@GetMobsByName@		; `string'
PUBLIC	??_C@_0BA@CIBIOIFE@GetMonsterPrice@		; `string'
PUBLIC	??_C@_0BD@NEKNIEPD@GetMonsterRaceFlag@		; `string'
PUBLIC	??_C@_0BA@FDPJOBBE@GetMonsterLevel@		; `string'
PUBLIC	??_C@_0BB@DOHKGACK@GetMonsterDamage@		; `string'
PUBLIC	??_C@_0P@EMGNNIFC@IsMonsterStone@		; `string'
PUBLIC	??_C@_0BJ@ENENIC@GetMonsterDamageMultiply@	; `string'
PUBLIC	??_C@_0O@KPPFPOPA@GetMonsterExp@		; `string'
PUBLIC	??_C@_0N@DLKGIDAA@GetMonsterDX@			; `string'
PUBLIC	??_C@_0N@IOHKHJPJ@GetMonsterST@			; `string'
PUBLIC	??_C@_0BA@MOJMEPAO@GetMonsterMaxHP@		; `string'
PUBLIC	??_C@_0BB@PDHHKCHI@GetMonsterResist@		; `string'
PUBLIC	??_C@_09OHMOODOI@nonplayer@			; `string'
PUBLIC	??_C@_0BC@GDKPGOBC@LoadNonPlayerData@		; `string'
PUBLIC	??_C@_0BG@EEKDAAJA@ON_CLICK_EVENT_BATTLE@	; `string'
PUBLIC	??_C@_0BE@FCOIJPJO@ON_CLICK_EVENT_NONE@		; `string'
PUBLIC	??_C@_0BE@FGAJOGO@ON_CLICK_EVENT_TALK@		; `string'
PUBLIC	??_C@_0BE@GBDIHIDH@ON_CLICK_EVENT_SHOP@		; `string'
PUBLIC	??_C@_04CFGPKCMP@PAWN@				; `string'
PUBLIC	??_C@_0BH@MKCNCKMM@ON_CLICK_EVENT_VEHICLE@	; `string'
PUBLIC	??_C@_06OCLDHEIK@KNIGHT@			; `string'
PUBLIC	??_C@_06JBMEMDKE@S_PAWN@			; `string'
PUBLIC	??_C@_04CHPFNFNO@BOSS@				; `string'
PUBLIC	??_C@_08FOAPCDID@S_KNIGHT@			; `string'
PUBLIC	??_C@_0BB@PPCGHBJB@MOB_RESIST_SWORD@		; `string'
PUBLIC	??_C@_04DFNOAPAF@KING@				; `string'
PUBLIC	??_C@_0BC@COPJHPOI@MOB_RESIST_DAGGER@		; `string'
PUBLIC	??_C@_0BD@LGACFJBE@MOB_RESIST_TWOHAND@		; `string'
PUBLIC	??_C@_0P@CBDKDIML@MOB_RESIST_FAN@		; `string'
PUBLIC	??_C@_0BA@CJDNMEPA@MOB_RESIST_BELL@		; `string'
PUBLIC	??_C@_0BA@FBBBOILL@MOB_RESIST_FIRE@		; `string'
PUBLIC	??_C@_0P@DPMGCLIO@MOB_RESIST_BOW@		; `string'
PUBLIC	??_C@_0BB@LDNMICOB@MOB_RESIST_MAGIC@		; `string'
PUBLIC	??_C@_0BB@FACANPG@MOB_RESIST_ELECT@		; `string'
PUBLIC	??_C@_0BC@MMJAAGH@MOB_RESIST_POISON@		; `string'
PUBLIC	??_C@_0BA@LGDNNM@MOB_RESIST_WIND@		; `string'
PUBLIC	??_C@_0BD@IEDJEENP@MOB_RESIST_MAX_NUM@		; `string'
;	COMDAT ?s_methods@?1??initNonPlayer@@YAXXZ@4PAUPyMethodDef@@A
_DATA	SEGMENT
?s_methods@?1??initNonPlayer@@YAXXZ@4PAUPyMethodDef@@A DD FLAT:??_C@_0N@HBLLMFED@GetEventType@ ; `initNonPlayer'::`2'::s_methods
	DD	FLAT:?nonplayerGetEventType@@YAPAU_object@@PAU1@0@Z
	DD	01H
	ORG $+4
	DD	FLAT:??_C@_0BC@BCIFCAAC@GetEventTypeByVID@
	DD	FLAT:?nonplayerGetEventTypeByVID@@YAPAU_object@@PAU1@0@Z
	DD	01H
	ORG $+4
	DD	FLAT:??_C@_0O@DBPCDLCL@GetLevelByVID@
	DD	FLAT:?nonplayerGetLevelByVID@@YAPAU_object@@PAU1@0@Z
	DD	01H
	ORG $+4
	DD	FLAT:??_C@_0O@EGDCEMAL@GetGradeByVID@
	DD	FLAT:?nonplayerGetGradeByVID@@YAPAU_object@@PAU1@0@Z
	DD	01H
	ORG $+4
	DD	FLAT:??_C@_0P@OLKHIBCH@GetMonsterName@
	DD	FLAT:?nonplayerGetMonsterName@@YAPAU_object@@PAU1@0@Z
	DD	01H
	ORG $+4
	DD	FLAT:??_C@_0BA@MNILMPOO@GetRaceNumByVID@
	DD	FLAT:?nonplayerGetRaceNumByVID@@YAPAU_object@@PAU1@0@Z
	DD	01H
	ORG $+4
	DD	FLAT:??_C@_0BD@JNKBHIE@MonsterHasRaceFlag@
	DD	FLAT:?nonplayerMonsterHasRaceFlag@@YAPAU_object@@PAU1@0@Z
	DD	01H
	ORG $+4
	DD	FLAT:??_C@_0BA@CIBIOIFE@GetMonsterPrice@
	DD	FLAT:?nonplayerGetMonsterPrice@@YAPAU_object@@PAU1@0@Z
	DD	01H
	ORG $+4
	DD	FLAT:??_C@_0O@JALPLFAN@GetMobsByName@
	DD	FLAT:?nonPlayerGetMobsByName@@YAPAU_object@@PAU1@0@Z
	DD	01H
	ORG $+4
	DD	FLAT:??_C@_0BA@FDPJOBBE@GetMonsterLevel@
	DD	FLAT:?nonplayerGetMonsterLevel@@YAPAU_object@@PAU1@0@Z
	DD	01H
	ORG $+4
	DD	FLAT:??_C@_0BD@NEKNIEPD@GetMonsterRaceFlag@
	DD	FLAT:?nonplayerGetMonsterRaceFlag@@YAPAU_object@@PAU1@0@Z
	DD	01H
	ORG $+4
	DD	FLAT:??_C@_0P@EMGNNIFC@IsMonsterStone@
	DD	FLAT:?nonplayerIsMonsterStone@@YAPAU_object@@PAU1@0@Z
	DD	01H
	ORG $+4
	DD	FLAT:??_C@_0BB@DOHKGACK@GetMonsterDamage@
	DD	FLAT:?nonplayerGetMonsterDamage@@YAPAU_object@@PAU1@0@Z
	DD	01H
	ORG $+4
	DD	FLAT:??_C@_0O@KPPFPOPA@GetMonsterExp@
	DD	FLAT:?nonplayerGetMonsterExp@@YAPAU_object@@PAU1@0@Z
	DD	01H
	ORG $+4
	DD	FLAT:??_C@_0BJ@ENENIC@GetMonsterDamageMultiply@
	DD	FLAT:?nonplayerGetMonsterDamageMultiply@@YAPAU_object@@PAU1@0@Z
	DD	01H
	ORG $+4
	DD	FLAT:??_C@_0N@IOHKHJPJ@GetMonsterST@
	DD	FLAT:?nonplayerGetMonsterST@@YAPAU_object@@PAU1@0@Z
	DD	01H
	ORG $+4
	DD	FLAT:??_C@_0N@DLKGIDAA@GetMonsterDX@
	DD	FLAT:?nonplayerGetMonsterDX@@YAPAU_object@@PAU1@0@Z
	DD	01H
	ORG $+4
	DD	FLAT:??_C@_0P@EMGNNIFC@IsMonsterStone@
	DD	FLAT:?nonplayerIsMonsterStone@@YAPAU_object@@PAU1@0@Z
	DD	01H
	ORG $+4
	DD	FLAT:??_C@_0BB@PDHHKCHI@GetMonsterResist@
	DD	FLAT:?nonplayerGetMonsterResist@@YAPAU_object@@PAU1@0@Z
	DD	01H
	ORG $+4
	DD	FLAT:??_C@_0BA@MOJMEPAO@GetMonsterMaxHP@
	DD	FLAT:?nonplayerGetMonsterMaxHP@@YAPAU_object@@PAU1@0@Z
	DD	01H
	ORG $+4
	DD	FLAT:??_C@_0BC@GDKPGOBC@LoadNonPlayerData@
	DD	FLAT:?nonplayerLoadNonPlayerData@@YAPAU_object@@PAU1@0@Z
	DD	01H
	ORG $+4
	DD	00H
	DD	00H
	DD	00H
	ORG $+4
_DATA	ENDS
;	COMDAT ??_C@_0BD@IEDJEENP@MOB_RESIST_MAX_NUM@
CONST	SEGMENT
??_C@_0BD@IEDJEENP@MOB_RESIST_MAX_NUM@ DB 'MOB_RESIST_MAX_NUM', 00H ; `string'
CONST	ENDS
;	COMDAT ??_C@_0BA@LGDNNM@MOB_RESIST_WIND@
CONST	SEGMENT
??_C@_0BA@LGDNNM@MOB_RESIST_WIND@ DB 'MOB_RESIST_WIND', 00H ; `string'
CONST	ENDS
;	COMDAT ??_C@_0BC@MMJAAGH@MOB_RESIST_POISON@
CONST	SEGMENT
??_C@_0BC@MMJAAGH@MOB_RESIST_POISON@ DB 'MOB_RESIST_POISON', 00H ; `string'
CONST	ENDS
;	COMDAT ??_C@_0BB@FACANPG@MOB_RESIST_ELECT@
CONST	SEGMENT
??_C@_0BB@FACANPG@MOB_RESIST_ELECT@ DB 'MOB_RESIST_ELECT', 00H ; `string'
CONST	ENDS
;	COMDAT ??_C@_0BB@LDNMICOB@MOB_RESIST_MAGIC@
CONST	SEGMENT
??_C@_0BB@LDNMICOB@MOB_RESIST_MAGIC@ DB 'MOB_RESIST_MAGIC', 00H ; `string'
CONST	ENDS
;	COMDAT ??_C@_0P@DPMGCLIO@MOB_RESIST_BOW@
CONST	SEGMENT
??_C@_0P@DPMGCLIO@MOB_RESIST_BOW@ DB 'MOB_RESIST_BOW', 00H ; `string'
CONST	ENDS
;	COMDAT ??_C@_0BA@FBBBOILL@MOB_RESIST_FIRE@
CONST	SEGMENT
??_C@_0BA@FBBBOILL@MOB_RESIST_FIRE@ DB 'MOB_RESIST_FIRE', 00H ; `string'
CONST	ENDS
;	COMDAT ??_C@_0BA@CJDNMEPA@MOB_RESIST_BELL@
CONST	SEGMENT
??_C@_0BA@CJDNMEPA@MOB_RESIST_BELL@ DB 'MOB_RESIST_BELL', 00H ; `string'
CONST	ENDS
;	COMDAT ??_C@_0P@CBDKDIML@MOB_RESIST_FAN@
CONST	SEGMENT
??_C@_0P@CBDKDIML@MOB_RESIST_FAN@ DB 'MOB_RESIST_FAN', 00H ; `string'
CONST	ENDS
;	COMDAT ??_C@_0BD@LGACFJBE@MOB_RESIST_TWOHAND@
CONST	SEGMENT
??_C@_0BD@LGACFJBE@MOB_RESIST_TWOHAND@ DB 'MOB_RESIST_TWOHAND', 00H ; `string'
CONST	ENDS
;	COMDAT ??_C@_0BC@COPJHPOI@MOB_RESIST_DAGGER@
CONST	SEGMENT
??_C@_0BC@COPJHPOI@MOB_RESIST_DAGGER@ DB 'MOB_RESIST_DAGGER', 00H ; `string'
CONST	ENDS
;	COMDAT ??_C@_04DFNOAPAF@KING@
CONST	SEGMENT
??_C@_04DFNOAPAF@KING@ DB 'KING', 00H			; `string'
CONST	ENDS
;	COMDAT ??_C@_0BB@PPCGHBJB@MOB_RESIST_SWORD@
CONST	SEGMENT
??_C@_0BB@PPCGHBJB@MOB_RESIST_SWORD@ DB 'MOB_RESIST_SWORD', 00H ; `string'
CONST	ENDS
;	COMDAT ??_C@_08FOAPCDID@S_KNIGHT@
CONST	SEGMENT
??_C@_08FOAPCDID@S_KNIGHT@ DB 'S_KNIGHT', 00H		; `string'
CONST	ENDS
;	COMDAT ??_C@_04CHPFNFNO@BOSS@
CONST	SEGMENT
??_C@_04CHPFNFNO@BOSS@ DB 'BOSS', 00H			; `string'
CONST	ENDS
;	COMDAT ??_C@_06JBMEMDKE@S_PAWN@
CONST	SEGMENT
??_C@_06JBMEMDKE@S_PAWN@ DB 'S_PAWN', 00H		; `string'
CONST	ENDS
;	COMDAT ??_C@_06OCLDHEIK@KNIGHT@
CONST	SEGMENT
??_C@_06OCLDHEIK@KNIGHT@ DB 'KNIGHT', 00H		; `string'
CONST	ENDS
;	COMDAT ??_C@_0BH@MKCNCKMM@ON_CLICK_EVENT_VEHICLE@
CONST	SEGMENT
??_C@_0BH@MKCNCKMM@ON_CLICK_EVENT_VEHICLE@ DB 'ON_CLICK_EVENT_VEHICLE', 00H ; `string'
CONST	ENDS
;	COMDAT ??_C@_04CFGPKCMP@PAWN@
CONST	SEGMENT
??_C@_04CFGPKCMP@PAWN@ DB 'PAWN', 00H			; `string'
CONST	ENDS
;	COMDAT ??_C@_0BE@GBDIHIDH@ON_CLICK_EVENT_SHOP@
CONST	SEGMENT
??_C@_0BE@GBDIHIDH@ON_CLICK_EVENT_SHOP@ DB 'ON_CLICK_EVENT_SHOP', 00H ; `string'
CONST	ENDS
;	COMDAT ??_C@_0BE@FGAJOGO@ON_CLICK_EVENT_TALK@
CONST	SEGMENT
??_C@_0BE@FGAJOGO@ON_CLICK_EVENT_TALK@ DB 'ON_CLICK_EVENT_TALK', 00H ; `string'
CONST	ENDS
;	COMDAT ??_C@_0BE@FCOIJPJO@ON_CLICK_EVENT_NONE@
CONST	SEGMENT
??_C@_0BE@FCOIJPJO@ON_CLICK_EVENT_NONE@ DB 'ON_CLICK_EVENT_NONE', 00H ; `string'
CONST	ENDS
;	COMDAT ??_C@_0BG@EEKDAAJA@ON_CLICK_EVENT_BATTLE@
CONST	SEGMENT
??_C@_0BG@EEKDAAJA@ON_CLICK_EVENT_BATTLE@ DB 'ON_CLICK_EVENT_BATTLE', 00H ; `string'
CONST	ENDS
;	COMDAT ??_C@_0BC@GDKPGOBC@LoadNonPlayerData@
CONST	SEGMENT
??_C@_0BC@GDKPGOBC@LoadNonPlayerData@ DB 'LoadNonPlayerData', 00H ; `string'
CONST	ENDS
;	COMDAT ??_C@_09OHMOODOI@nonplayer@
CONST	SEGMENT
??_C@_09OHMOODOI@nonplayer@ DB 'nonplayer', 00H		; `string'
CONST	ENDS
;	COMDAT ??_C@_0BB@PDHHKCHI@GetMonsterResist@
CONST	SEGMENT
??_C@_0BB@PDHHKCHI@GetMonsterResist@ DB 'GetMonsterResist', 00H ; `string'
CONST	ENDS
;	COMDAT ??_C@_0BA@MOJMEPAO@GetMonsterMaxHP@
CONST	SEGMENT
??_C@_0BA@MOJMEPAO@GetMonsterMaxHP@ DB 'GetMonsterMaxHP', 00H ; `string'
CONST	ENDS
;	COMDAT ??_C@_0N@IOHKHJPJ@GetMonsterST@
CONST	SEGMENT
??_C@_0N@IOHKHJPJ@GetMonsterST@ DB 'GetMonsterST', 00H	; `string'
CONST	ENDS
;	COMDAT ??_C@_0N@DLKGIDAA@GetMonsterDX@
CONST	SEGMENT
??_C@_0N@DLKGIDAA@GetMonsterDX@ DB 'GetMonsterDX', 00H	; `string'
CONST	ENDS
;	COMDAT ??_C@_0O@KPPFPOPA@GetMonsterExp@
CONST	SEGMENT
??_C@_0O@KPPFPOPA@GetMonsterExp@ DB 'GetMonsterExp', 00H ; `string'
CONST	ENDS
;	COMDAT ??_C@_0BJ@ENENIC@GetMonsterDamageMultiply@
CONST	SEGMENT
??_C@_0BJ@ENENIC@GetMonsterDamageMultiply@ DB 'GetMonsterDamageMultiply', 00H ; `string'
CONST	ENDS
;	COMDAT ??_C@_0P@EMGNNIFC@IsMonsterStone@
CONST	SEGMENT
??_C@_0P@EMGNNIFC@IsMonsterStone@ DB 'IsMonsterStone', 00H ; `string'
CONST	ENDS
;	COMDAT ??_C@_0BB@DOHKGACK@GetMonsterDamage@
CONST	SEGMENT
??_C@_0BB@DOHKGACK@GetMonsterDamage@ DB 'GetMonsterDamage', 00H ; `string'
CONST	ENDS
;	COMDAT ??_C@_0BA@FDPJOBBE@GetMonsterLevel@
CONST	SEGMENT
??_C@_0BA@FDPJOBBE@GetMonsterLevel@ DB 'GetMonsterLevel', 00H ; `string'
CONST	ENDS
;	COMDAT ??_C@_0BD@NEKNIEPD@GetMonsterRaceFlag@
CONST	SEGMENT
??_C@_0BD@NEKNIEPD@GetMonsterRaceFlag@ DB 'GetMonsterRaceFlag', 00H ; `string'
CONST	ENDS
;	COMDAT ??_C@_0BA@CIBIOIFE@GetMonsterPrice@
CONST	SEGMENT
??_C@_0BA@CIBIOIFE@GetMonsterPrice@ DB 'GetMonsterPrice', 00H ; `string'
CONST	ENDS
;	COMDAT ??_C@_0O@JALPLFAN@GetMobsByName@
CONST	SEGMENT
??_C@_0O@JALPLFAN@GetMobsByName@ DB 'GetMobsByName', 00H ; `string'
CONST	ENDS
;	COMDAT ??_C@_0BA@MNILMPOO@GetRaceNumByVID@
CONST	SEGMENT
??_C@_0BA@MNILMPOO@GetRaceNumByVID@ DB 'GetRaceNumByVID', 00H ; `string'
CONST	ENDS
;	COMDAT ??_C@_0BD@JNKBHIE@MonsterHasRaceFlag@
CONST	SEGMENT
??_C@_0BD@JNKBHIE@MonsterHasRaceFlag@ DB 'MonsterHasRaceFlag', 00H ; `string'
CONST	ENDS
;	COMDAT ??_C@_0O@EGDCEMAL@GetGradeByVID@
CONST	SEGMENT
??_C@_0O@EGDCEMAL@GetGradeByVID@ DB 'GetGradeByVID', 00H ; `string'
CONST	ENDS
;	COMDAT ??_C@_0P@OLKHIBCH@GetMonsterName@
CONST	SEGMENT
??_C@_0P@OLKHIBCH@GetMonsterName@ DB 'GetMonsterName', 00H ; `string'
CONST	ENDS
;	COMDAT ??_C@_0BC@BCIFCAAC@GetEventTypeByVID@
CONST	SEGMENT
??_C@_0BC@BCIFCAAC@GetEventTypeByVID@ DB 'GetEventTypeByVID', 00H ; `string'
CONST	ENDS
;	COMDAT ??_C@_0O@DBPCDLCL@GetLevelByVID@
CONST	SEGMENT
??_C@_0O@DBPCDLCL@GetLevelByVID@ DB 'GetLevelByVID', 00H ; `string'
CONST	ENDS
;	COMDAT ??_C@_01MJMHLOMK@O@
CONST	SEGMENT
??_C@_01MJMHLOMK@O@ DB 'O', 00H				; `string'
CONST	ENDS
;	COMDAT ??_C@_0N@HBLLMFED@GetEventType@
CONST	SEGMENT
??_C@_0N@HBLLMFED@GetEventType@ DB 'GetEventType', 00H	; `string'
PUBLIC	??$construct_at@U?$pair@$$CBKPAUSMobTable@CPythonNonPlayer@@@std@@AAU12@@std@@YAPAU?$pair@$$CBKPAUSMobTable@CPythonNonPlayer@@@0@QAU10@AAU10@@Z ; std::construct_at<std::pair<unsigned long const ,CPythonNonPlayer::SMobTable *>,std::pair<unsigned long const ,CPythonNonPlayer::SMobTable *> &>
PUBLIC	??$construct@U?$pair@$$CBKPAUSMobTable@CPythonNonPlayer@@@std@@AAU12@@?$_Default_allocator_traits@V?$allocator@U?$_Tree_node@U?$pair@$$CBKPAUSMobTable@CPythonNonPlayer@@@std@@PAX@std@@@std@@@std@@SAXAAV?$allocator@U?$_Tree_node@U?$pair@$$CBKPAUSMobTable@CPythonNonPlayer@@@std@@PAX@std@@@1@QAU?$pair@$$CBKPAUSMobTable@CPythonNonPlayer@@@1@AAU31@@Z ; std::_Default_allocator_traits<std::allocator<std::_Tree_node<std::pair<unsigned long const ,CPythonNonPlayer::SMobTable *>,void *> > >::construct<std::pair<unsigned long const ,CPythonNonPlayer::SMobTable *>,std::pair<unsigned long const ,CPythonNonPlayer::SMobTable *> &>
PUBLIC	??$_Buynode@V?$allocator@U?$_Tree_node@U?$pair@$$CBKPAUSMobTable@CPythonNonPlayer@@@std@@PAX@std@@@std@@AAU?$pair@$$CBKPAUSMobTable@CPythonNonPlayer@@@2@@?$_Tree_node@U?$pair@$$CBKPAUSMobTable@CPythonNonPlayer@@@std@@PAX@std@@SAPAU01@AAV?$allocator@U?$_Tree_node@U?$pair@$$CBKPAUSMobTable@CPythonNonPlayer@@@std@@PAX@std@@@1@PAU01@AAU?$pair@$$CBKPAUSMobTable@CPythonNonPlayer@@@1@@Z ; std::_Tree_node<std::pair<unsigned long const ,CPythonNonPlayer::SMobTable *>,void *>::_Buynode<std::allocator<std::_Tree_node<std::pair<unsigned long const ,CPythonNonPlayer::SMobTable *>,void *> >,std::pair<unsigned long const ,CPythonNonPlayer::SMobTable *> &>
PUBLIC	??$forward@AAU?$pair@$$CBKPAUSMobTable@CPythonNonPlayer@@@std@@@std@@YAAAU?$pair@$$CBKPAUSMobTable@CPythonNonPlayer@@@0@AAU10@@Z ; std::forward<std::pair<unsigned long const ,CPythonNonPlayer::SMobTable *> &>
PUBLIC	??$_Erase_tree_and_orphan@V?$allocator@U?$_Tree_node@U?$pair@$$CBKPAUSMobTable@CPythonNonPlayer@@@std@@PAX@std@@@std@@@?$_Tree_val@U?$_Tree_simple_types@U?$pair@$$CBKPAUSMobTable@CPythonNonPlayer@@@std@@@std@@@std@@QAEXAAV?$allocator@U?$_Tree_node@U?$pair@$$CBKPAUSMobTable@CPythonNonPlayer@@@std@@PAX@std@@@1@PAU?$_Tree_node@U?$pair@$$CBKPAUSMobTable@CPythonNonPlayer@@@std@@PAX@1@@Z ; std::_Tree_val<std::_Tree_simple_types<std::pair<unsigned long const ,CPythonNonPlayer::SMobTable *> > >::_Erase_tree_and_orphan<std::allocator<std::_Tree_node<std::pair<unsigned long const ,CPythonNonPlayer::SMobTable *>,void *> > >
PUBLIC	??$_Buynode@AAU?$pair@$$CBKPAUSMobTable@CPythonNonPlayer@@@std@@@?$_Tree@V?$_Tmap_traits@KPAUSMobTable@CPythonNonPlayer@@U?$less@K@std@@V?$allocator@U?$pair@$$CBKPAUSMobTable@CPythonNonPlayer@@@std@@@4@$0A@@std@@@std@@IAEPAU?$_Tree_node@U?$pair@$$CBKPAUSMobTable@CPythonNonPlayer@@@std@@PAX@1@AAU?$pair@$$CBKPAUSMobTable@CPythonNonPlayer@@@1@@Z ; std::_Tree<std::_Tmap_traits<unsigned long,CPythonNonPlayer::SMobTable *,std::less<unsigned long>,std::allocator<std::pair<unsigned long const ,CPythonNonPlayer::SMobTable *> >,0> >::_Buynode<std::pair<unsigned long const ,CPythonNonPlayer::SMobTable *> &>
PUBLIC	??1?$_Erase_tree_and_orphan_guard@V?$allocator@U?$_Tree_node@U?$pair@$$CBKPAUSMobTable@CPythonNonPlayer@@@std@@PAX@std@@@std@@@?$_Tree_val@U?$_Tree_simple_types@U?$pair@$$CBKPAUSMobTable@CPythonNonPlayer@@@std@@@std@@@std@@QAE@XZ ; std::_Tree_val<std::_Tree_simple_types<std::pair<unsigned long const ,CPythonNonPlayer::SMobTable *> > >::_Erase_tree_and_orphan_guard<std::allocator<std::_Tree_node<std::pair<unsigned long const ,CPythonNonPlayer::SMobTable *>,void *> > >::~_Erase_tree_and_orphan_guard<std::allocator<std::_Tree_node<std::pair<unsigned long const ,CPythonNonPlayer::SMobTable *>,void *> > >
PUBLIC	??$_Copy_or_move@$0A@U?$pair@$$CBKPAUSMobTable@CPythonNonPlayer@@@std@@@?$_Tree@V?$_Tmap_traits@KPAUSMobTable@CPythonNonPlayer@@U?$less@K@std@@V?$allocator@U?$pair@$$CBKPAUSMobTable@CPythonNonPlayer@@@std@@@4@$0A@@std@@@std@@IAEPAU?$_Tree_node@U?$pair@$$CBKPAUSMobTable@CPythonNonPlayer@@@std@@PAX@1@AAU?$pair@$$CBKPAUSMobTable@CPythonNonPlayer@@@1@@Z ; std::_Tree<std::_Tmap_traits<unsigned long,CPythonNonPlayer::SMobTable *,std::less<unsigned long>,std::allocator<std::pair<unsigned long const ,CPythonNonPlayer::SMobTable *> >,0> >::_Copy_or_move<0,std::pair<unsigned long const ,CPythonNonPlayer::SMobTable *> >
PUBLIC	?_Max@?$_Tree_val@U?$_Tree_simple_types@U?$pair@$$CBKPAUSMobTable@CPythonNonPlayer@@@std@@@std@@@std@@SAPAU?$_Tree_node@U?$pair@$$CBKPAUSMobTable@CPythonNonPlayer@@@std@@PAX@2@PAU32@@Z ; std::_Tree_val<std::_Tree_simple_types<std::pair<unsigned long const ,CPythonNonPlayer::SMobTable *> > >::_Max
PUBLIC	??$_Copy_nodes@$0A@@?$_Tree@V?$_Tmap_traits@KPAUSMobTable@CPythonNonPlayer@@U?$less@K@std@@V?$allocator@U?$pair@$$CBKPAUSMobTable@CPythonNonPlayer@@@std@@@4@$0A@@std@@@std@@IAEPAU?$_Tree_node@U?$pair@$$CBKPAUSMobTable@CPythonNonPlayer@@@std@@PAX@1@PAU21@0@Z ; std::_Tree<std::_Tmap_traits<unsigned long,CPythonNonPlayer::SMobTable *,std::less<unsigned long>,std::allocator<std::pair<unsigned long const ,CPythonNonPlayer::SMobTable *> >,0> >::_Copy_nodes<0>
PUBLIC	??$?0V?$allocator@U?$_Tree_node@U?$pair@$$CBKPAUSMobTable@CPythonNonPlayer@@@std@@PAX@std@@@std@@$$V@?$_Compressed_pair@V?$allocator@U?$_Tree_node@U?$pair@$$CBKPAUSMobTable@CPythonNonPlayer@@@std@@PAX@std@@@std@@V?$_Tree_val@U?$_Tree_simple_types@U?$pair@$$CBKPAUSMobTable@CPythonNonPlayer@@@std@@@std@@@2@$00@std@@QAE@U_One_then_variadic_args_t@1@$$QAV?$allocator@U?$_Tree_node@U?$pair@$$CBKPAUSMobTable@CPythonNonPlayer@@@std@@PAX@std@@@1@@Z ; std::_Compressed_pair<std::allocator<std::_Tree_node<std::pair<unsigned long const ,CPythonNonPlayer::SMobTable *>,void *> >,std::_Tree_val<std::_Tree_simple_types<std::pair<unsigned long const ,CPythonNonPlayer::SMobTable *> > >,1>::_Compressed_pair<std::allocator<std::_Tree_node<std::pair<unsigned long const ,CPythonNonPlayer::SMobTable *>,void *> >,std::_Tree_val<std::_Tree_simple_types<std::pair<unsigned long const ,CPythonNonPlayer::SMobTable *> > >,1><std::allocator<std::_Tree_node<std::pair<unsigned long const ,CPythonNonPlayer::SMobTable *>,void *> > >
PUBLIC	?key_comp@?$_Tree@V?$_Tmap_traits@KPAUSMobTable@CPythonNonPlayer@@U?$less@K@std@@V?$allocator@U?$pair@$$CBKPAUSMobTable@CPythonNonPlayer@@@std@@@4@$0A@@std@@@std@@QBE?AU?$less@K@2@XZ ; std::_Tree<std::_Tmap_traits<unsigned long,CPythonNonPlayer::SMobTable *,std::less<unsigned long>,std::allocator<std::pair<unsigned long const ,CPythonNonPlayer::SMobTable *> >,0> >::key_comp
PUBLIC	??0?$_Tree_head_scoped_ptr@V?$allocator@U?$_Tree_node@U?$pair@$$CBKPAUSMobTable@CPythonNonPlayer@@@std@@PAX@std@@@std@@V?$_Tree_val@U?$_Tree_simple_types@U?$pair@$$CBKPAUSMobTable@CPythonNonPlayer@@@std@@@std@@@2@@std@@QAE@AAV?$allocator@U?$_Tree_node@U?$pair@$$CBKPAUSMobTable@CPythonNonPlayer@@@std@@PAX@std@@@1@AAV?$_Tree_val@U?$_Tree_simple_types@U?$pair@$$CBKPAUSMobTable@CPythonNonPlayer@@@std@@@std@@@1@@Z ; std::_Tree_head_scoped_ptr<std::allocator<std::_Tree_node<std::pair<unsigned long const ,CPythonNonPlayer::SMobTable *>,void *> >,std::_Tree_val<std::_Tree_simple_types<std::pair<unsigned long const ,CPythonNonPlayer::SMobTable *> > > >::_Tree_head_scoped_ptr<std::allocator<std::_Tree_node<std::pair<unsigned long const ,CPythonNonPlayer::SMobTable *>,void *> >,std::_Tree_val<std::_Tree_simple_types<std::pair<unsigned long const ,CPythonNonPlayer::SMobTable *> > > >
PUBLIC	?_Release@?$_Tree_head_scoped_ptr@V?$allocator@U?$_Tree_node@U?$pair@$$CBKPAUSMobTable@CPythonNonPlayer@@@std@@PAX@std@@@std@@V?$_Tree_val@U?$_Tree_simple_types@U?$pair@$$CBKPAUSMobTable@CPythonNonPlayer@@@std@@@std@@@2@@std@@QAEXXZ ; std::_Tree_head_scoped_ptr<std::allocator<std::_Tree_node<std::pair<unsigned long const ,CPythonNonPlayer::SMobTable *>,void *> >,std::_Tree_val<std::_Tree_simple_types<std::pair<unsigned long const ,CPythonNonPlayer::SMobTable *> > > >::_Release
PUBLIC	??1?$_Tree_head_scoped_ptr@V?$allocator@U?$_Tree_node@U?$pair@$$CBKPAUSMobTable@CPythonNonPlayer@@@std@@PAX@std@@@std@@V?$_Tree_val@U?$_Tree_simple_types@U?$pair@$$CBKPAUSMobTable@CPythonNonPlayer@@@std@@@std@@@2@@std@@QAE@XZ ; std::_Tree_head_scoped_ptr<std::allocator<std::_Tree_node<std::pair<unsigned long const ,CPythonNonPlayer::SMobTable *>,void *> >,std::_Tree_val<std::_Tree_simple_types<std::pair<unsigned long const ,CPythonNonPlayer::SMobTable *> > > >::~_Tree_head_scoped_ptr<std::allocator<std::_Tree_node<std::pair<unsigned long const ,CPythonNonPlayer::SMobTable *>,void *> >,std::_Tree_val<std::_Tree_simple_types<std::pair<unsigned long const ,CPythonNonPlayer::SMobTable *> > > >
PUBLIC	??$_Copy@$0A@@?$_Tree@V?$_Tmap_traits@KPAUSMobTable@CPythonNonPlayer@@U?$less@K@std@@V?$allocator@U?$pair@$$CBKPAUSMobTable@CPythonNonPlayer@@@std@@@4@$0A@@std@@@std@@IAEXABV01@@Z ; std::_Tree<std::_Tmap_traits<unsigned long,CPythonNonPlayer::SMobTable *,std::less<unsigned long>,std::allocator<std::pair<unsigned long const ,CPythonNonPlayer::SMobTable *> >,0> >::_Copy<0>
PUBLIC	??$?0U?$less@K@std@@U_One_then_variadic_args_t@1@V?$allocator@U?$_Tree_node@U?$pair@$$CBKPAUSMobTable@CPythonNonPlayer@@@std@@PAX@std@@@1@@?$_Compressed_pair@U?$less@K@std@@V?$_Compressed_pair@V?$allocator@U?$_Tree_node@U?$pair@$$CBKPAUSMobTable@CPythonNonPlayer@@@std@@PAX@std@@@std@@V?$_Tree_val@U?$_Tree_simple_types@U?$pair@$$CBKPAUSMobTable@CPythonNonPlayer@@@std@@@std@@@2@$00@2@$00@std@@QAE@U_One_then_variadic_args_t@1@$$QAU?$less@K@1@$$QAU21@$$QAV?$allocator@U?$_Tree_node@U?$pair@$$CBKPAUSMobTable@CPythonNonPlayer@@@std@@PAX@std@@@1@@Z ; std::_Compressed_pair<std::less<unsigned long>,std::_Compressed_pair<std::allocator<std::_Tree_node<std::pair<unsigned long const ,CPythonNonPlayer::SMobTable *>,void *> >,std::_Tree_val<std::_Tree_simple_types<std::pair<unsigned long const ,CPythonNonPlayer::SMobTable *> > >,1>,1>::_Compressed_pair<std::less<unsigned long>,std::_Compressed_pair<std::allocator<std::_Tree_node<std::pair<unsigned long const ,CPythonNonPlayer::SMobTable *>,void *> >,std::_Tree_val<std::_Tree_simple_types<std::pair<unsigned long const ,CPythonNonPlayer::SMobTable *> > >,1>,1><std::less<unsigned long>,std::_One_then_variadic_args_t,std::allocator<std::_Tree_node<std::pair<unsigned long const ,CPythonNonPlayer::SMobTable *>,void *> > >
PUBLIC	??$forward@V?$allocator@U?$_Tree_node@U?$pair@$$CBKPAUSMobTable@CPythonNonPlayer@@@std@@PAX@std@@@std@@@std@@YA$$QAV?$allocator@U?$_Tree_node@U?$pair@$$CBKPAUSMobTable@CPythonNonPlayer@@@std@@PAX@std@@@0@AAV10@@Z ; std::forward<std::allocator<std::_Tree_node<std::pair<unsigned long const ,CPythonNonPlayer::SMobTable *>,void *> > >
PUBLIC	?select_on_container_copy_construction@?$_Default_allocator_traits@V?$allocator@U?$_Tree_node@U?$pair@$$CBKPAUSMobTable@CPythonNonPlayer@@@std@@PAX@std@@@std@@@std@@SA?AV?$allocator@U?$_Tree_node@U?$pair@$$CBKPAUSMobTable@CPythonNonPlayer@@@std@@PAX@std@@@2@ABV32@@Z ; std::_Default_allocator_traits<std::allocator<std::_Tree_node<std::pair<unsigned long const ,CPythonNonPlayer::SMobTable *>,void *> > >::select_on_container_copy_construction
PUBLIC	??$?0V?$allocator@U?$_Tree_node@U?$pair@$$CBKPAUSMobTable@CPythonNonPlayer@@@std@@PAX@std@@@std@@@?$_Tree@V?$_Tmap_traits@KPAUSMobTable@CPythonNonPlayer@@U?$less@K@std@@V?$allocator@U?$pair@$$CBKPAUSMobTable@CPythonNonPlayer@@@std@@@4@$0A@@std@@@std@@QAE@ABV01@$$QAV?$allocator@U?$_Tree_node@U?$pair@$$CBKPAUSMobTable@CPythonNonPlayer@@@std@@PAX@std@@@1@@Z ; std::_Tree<std::_Tmap_traits<unsigned long,CPythonNonPlayer::SMobTable *,std::less<unsigned long>,std::allocator<std::pair<unsigned long const ,CPythonNonPlayer::SMobTable *> >,0> >::_Tree<std::_Tmap_traits<unsigned long,CPythonNonPlayer::SMobTable *,std::less<unsigned long>,std::allocator<std::pair<unsigned long const ,CPythonNonPlayer::SMobTable *> >,0> ><std::allocator<std::_Tree_node<std::pair<unsigned long const ,CPythonNonPlayer::SMobTable *>,void *> > >
PUBLIC	??0?$map@KPAUSMobTable@CPythonNonPlayer@@U?$less@K@std@@V?$allocator@U?$pair@$$CBKPAUSMobTable@CPythonNonPlayer@@@std@@@4@@std@@QAE@ABV01@@Z ; std::map<unsigned long,CPythonNonPlayer::SMobTable *,std::less<unsigned long>,std::allocator<std::pair<unsigned long const ,CPythonNonPlayer::SMobTable *> > >::map<unsigned long,CPythonNonPlayer::SMobTable *,std::less<unsigned long>,std::allocator<std::pair<unsigned long const ,CPythonNonPlayer::SMobTable *> > >
PUBLIC	?size@?$_Tree@V?$_Tmap_traits@KPAUSMobTable@CPythonNonPlayer@@U?$less@K@std@@V?$allocator@U?$pair@$$CBKPAUSMobTable@CPythonNonPlayer@@@std@@@4@$0A@@std@@@std@@QBEIXZ ; std::_Tree<std::_Tmap_traits<unsigned long,CPythonNonPlayer::SMobTable *,std::less<unsigned long>,std::allocator<std::pair<unsigned long const ,CPythonNonPlayer::SMobTable *> >,0> >::size
PUBLIC	??0?$_Tree_unchecked_const_iterator@V?$_Tree_val@U?$_Tree_simple_types@U?$pair@$$CBKPAUSMobTable@CPythonNonPlayer@@@std@@@std@@@std@@U_Iterator_base0@2@@std@@QAE@XZ ; std::_Tree_unchecked_const_iterator<std::_Tree_val<std::_Tree_simple_types<std::pair<unsigned long const ,CPythonNonPlayer::SMobTable *> > >,std::_Iterator_base0>::_Tree_unchecked_const_iterator<std::_Tree_val<std::_Tree_simple_types<std::pair<unsigned long const ,CPythonNonPlayer::SMobTable *> > >,std::_Iterator_base0>
PUBLIC	?initNonPlayer@@YAXXZ				; initNonPlayer
PUBLIC	?nonplayerGetMonsterMaxHP@@YAPAU_object@@PAU1@0@Z ; nonplayerGetMonsterMaxHP
PUBLIC	?nonplayerGetMonsterRaceFlag@@YAPAU_object@@PAU1@0@Z ; nonplayerGetMonsterRaceFlag
PUBLIC	?nonplayerIsMonsterStone@@YAPAU_object@@PAU1@0@Z ; nonplayerIsMonsterStone
PUBLIC	?nonplayerGetMonsterDX@@YAPAU_object@@PAU1@0@Z	; nonplayerGetMonsterDX
PUBLIC	?nonplayerGetMonsterST@@YAPAU_object@@PAU1@0@Z	; nonplayerGetMonsterST
PUBLIC	?nonplayerGetMonsterDamageMultiply@@YAPAU_object@@PAU1@0@Z ; nonplayerGetMonsterDamageMultiply
PUBLIC	?nonplayerGetMonsterExp@@YAPAU_object@@PAU1@0@Z	; nonplayerGetMonsterExp
PUBLIC	?nonplayerGetMonsterDamage@@YAPAU_object@@PAU1@0@Z ; nonplayerGetMonsterDamage
PUBLIC	?nonplayerGetMonsterLevel@@YAPAU_object@@PAU1@0@Z ; nonplayerGetMonsterLevel
PUBLIC	?nonplayerGetMonsterResist@@YAPAU_object@@PAU1@0@Z ; nonplayerGetMonsterResist
PUBLIC	?nonplayerGetMonsterPrice@@YAPAU_object@@PAU1@0@Z ; nonplayerGetMonsterPrice
PUBLIC	??0?$_Tree_const_iterator@V?$_Tree_val@U?$_Tree_simple_types@U?$pair@$$CBKPAUSMobTable@CPythonNonPlayer@@@std@@@std@@@std@@@std@@QAE@XZ ; std::_Tree_const_iterator<std::_Tree_val<std::_Tree_simple_types<std::pair<unsigned long const ,CPythonNonPlayer::SMobTable *> > > >::_Tree_const_iterator<std::_Tree_val<std::_Tree_simple_types<std::pair<unsigned long const ,CPythonNonPlayer::SMobTable *> > > >
PUBLIC	??0?$_Tree_iterator@V?$_Tree_val@U?$_Tree_simple_types@U?$pair@$$CBKPAUSMobTable@CPythonNonPlayer@@@std@@@std@@@std@@@std@@QAE@XZ ; std::_Tree_iterator<std::_Tree_val<std::_Tree_simple_types<std::pair<unsigned long const ,CPythonNonPlayer::SMobTable *> > > >::_Tree_iterator<std::_Tree_val<std::_Tree_simple_types<std::pair<unsigned long const ,CPythonNonPlayer::SMobTable *> > > >
PUBLIC	?nonPlayerGetMobsByName@@YAPAU_object@@PAU1@0@Z	; nonPlayerGetMobsByName
PUBLIC	?nonplayerMonsterHasRaceFlag@@YAPAU_object@@PAU1@0@Z ; nonplayerMonsterHasRaceFlag
PUBLIC	?nonplayerGetRaceNumByVID@@YAPAU_object@@PAU1@0@Z ; nonplayerGetRaceNumByVID
PUBLIC	?nonplayerLoadNonPlayerData@@YAPAU_object@@PAU1@0@Z ; nonplayerLoadNonPlayerData
PUBLIC	?nonplayerGetMonsterName@@YAPAU_object@@PAU1@0@Z ; nonplayerGetMonsterName
PUBLIC	?nonplayerGetGradeByVID@@YAPAU_object@@PAU1@0@Z	; nonplayerGetGradeByVID
PUBLIC	?nonplayerGetLevelByVID@@YAPAU_object@@PAU1@0@Z	; nonplayerGetLevelByVID
PUBLIC	?nonplayerGetEventTypeByVID@@YAPAU_object@@PAU1@0@Z ; nonplayerGetEventTypeByVID
PUBLIC	?nonplayerGetEventType@@YAPAU_object@@PAU1@0@Z	; nonplayerGetEventType
PUBLIC	?GetMonsterData@CPythonNonPlayer@@QAE?AV?$map@KPAUSMobTable@CPythonNonPlayer@@U?$less@K@std@@V?$allocator@U?$pair@$$CBKPAUSMobTable@CPythonNonPlayer@@@std@@@4@@std@@XZ ; CPythonNonPlayer::GetMonsterData
;	COMDAT xdata$x
xdata$x	SEGMENT
__ehfuncinfo$?GetMonsterData@CPythonNonPlayer@@QAE?AV?$map@KPAUSMobTable@CPythonNonPlayer@@U?$less@K@std@@V?$allocator@U?$pair@$$CBKPAUSMobTable@CPythonNonPlayer@@@std@@@4@@std@@XZ DQ 00000000119930522r ; 2.33398e-314
	DD	FLAT:__unwindtable$?GetMonsterData@CPythonNonPlayer@@QAE?AV?$map@KPAUSMobTable@CPythonNonPlayer@@U?$less@K@std@@V?$allocator@U?$pair@$$CBKPAUSMobTable@CPythonNonPlayer@@@std@@@4@@std@@XZ
	DQ	00000000000000000r		; 0
	DQ	00000000000000000r		; 0
	DQ	00000000100000000r		; 2.122e-314
__unwindtable$?GetMonsterData@CPythonNonPlayer@@QAE?AV?$map@KPAUSMobTable@CPythonNonPlayer@@U?$less@K@std@@V?$allocator@U?$pair@$$CBKPAUSMobTable@CPythonNonPlayer@@@std@@@4@@std@@XZ DD 0ffffffffH
	DD	FLAT:__unwindfunclet$?GetMonsterData@CPythonNonPlayer@@QAE?AV?$map@KPAUSMobTable@CPythonNonPlayer@@U?$less@K@std@@V?$allocator@U?$pair@$$CBKPAUSMobTable@CPythonNonPlayer@@@std@@@4@@std@@XZ$2
xdata$x	ENDS
;	COMDAT xdata$x
xdata$x	SEGMENT
__ehfuncinfo$?nonPlayerGetMobsByName@@YAPAU_object@@PAU1@0@Z DQ 00000000419930522r ; 8.69997e-314
	DD	FLAT:__unwindtable$?nonPlayerGetMobsByName@@YAPAU_object@@PAU1@0@Z
	DQ	00000000000000000r		; 0
	DQ	00000000000000000r		; 0
	DQ	00000000100000000r		; 2.122e-314
__unwindtable$?nonPlayerGetMobsByName@@YAPAU_object@@PAU1@0@Z DD 0ffffffffH
	DD	FLAT:__unwindfunclet$?nonPlayerGetMobsByName@@YAPAU_object@@PAU1@0@Z$10
	DD	0ffffffffH
	DD	FLAT:__unwindfunclet$?nonPlayerGetMobsByName@@YAPAU_object@@PAU1@0@Z$0
	DD	01H
	DD	FLAT:__unwindfunclet$?nonPlayerGetMobsByName@@YAPAU_object@@PAU1@0@Z$1
	DD	02H
	DD	FLAT:__unwindfunclet$?nonPlayerGetMobsByName@@YAPAU_object@@PAU1@0@Z$2
xdata$x	ENDS
;	COMDAT xdata$x
xdata$x	SEGMENT
__ehfuncinfo$??0?$map@KPAUSMobTable@CPythonNonPlayer@@U?$less@K@std@@V?$allocator@U?$pair@$$CBKPAUSMobTable@CPythonNonPlayer@@@std@@@4@@std@@QAE@ABV01@@Z DQ 00000000119930522r ; 2.33398e-314
	DD	FLAT:__unwindtable$??0?$map@KPAUSMobTable@CPythonNonPlayer@@U?$less@K@std@@V?$allocator@U?$pair@$$CBKPAUSMobTable@CPythonNonPlayer@@@std@@@4@@std@@QAE@ABV01@@Z
	DQ	00000000000000000r		; 0
	DQ	00000000000000000r		; 0
	DQ	00000000100000000r		; 2.122e-314
__unwindtable$??0?$map@KPAUSMobTable@CPythonNonPlayer@@U?$less@K@std@@V?$allocator@U?$pair@$$CBKPAUSMobTable@CPythonNonPlayer@@@std@@@4@@std@@QAE@ABV01@@Z DD 0ffffffffH
	DD	FLAT:__unwindfunclet$??0?$map@KPAUSMobTable@CPythonNonPlayer@@U?$less@K@std@@V?$allocator@U?$pair@$$CBKPAUSMobTable@CPythonNonPlayer@@@std@@@4@@std@@QAE@ABV01@@Z$1
xdata$x	ENDS
;	COMDAT xdata$x
xdata$x	SEGMENT
__ehfuncinfo$??$?0V?$allocator@U?$_Tree_node@U?$pair@$$CBKPAUSMobTable@CPythonNonPlayer@@@std@@PAX@std@@@std@@@?$_Tree@V?$_Tmap_traits@KPAUSMobTable@CPythonNonPlayer@@U?$less@K@std@@V?$allocator@U?$pair@$$CBKPAUSMobTable@CPythonNonPlayer@@@std@@@4@$0A@@std@@@std@@QAE@ABV01@$$QAV?$allocator@U?$_Tree_node@U?$pair@$$CBKPAUSMobTable@CPythonNonPlayer@@@std@@PAX@std@@@1@@Z DQ 00000000119930522r ; 2.33398e-314
	DD	FLAT:__unwindtable$??$?0V?$allocator@U?$_Tree_node@U?$pair@$$CBKPAUSMobTable@CPythonNonPlayer@@@std@@PAX@std@@@std@@@?$_Tree@V?$_Tmap_traits@KPAUSMobTable@CPythonNonPlayer@@U?$less@K@std@@V?$allocator@U?$pair@$$CBKPAUSMobTable@CPythonNonPlayer@@@std@@@4@$0A@@std@@@std@@QAE@ABV01@$$QAV?$allocator@U?$_Tree_node@U?$pair@$$CBKPAUSMobTable@CPythonNonPlayer@@@std@@PAX@std@@@1@@Z
	DQ	00000000000000000r		; 0
	DQ	00000000000000000r		; 0
	DQ	00000000100000000r		; 2.122e-314
__unwindtable$??$?0V?$allocator@U?$_Tree_node@U?$pair@$$CBKPAUSMobTable@CPythonNonPlayer@@@std@@PAX@std@@@std@@@?$_Tree@V?$_Tmap_traits@KPAUSMobTable@CPythonNonPlayer@@U?$less@K@std@@V?$allocator@U?$pair@$$CBKPAUSMobTable@CPythonNonPlayer@@@std@@@4@$0A@@std@@@std@@QAE@ABV01@$$QAV?$allocator@U?$_Tree_node@U?$pair@$$CBKPAUSMobTable@CPythonNonPlayer@@@std@@PAX@std@@@1@@Z DD 0ffffffffH
	DD	FLAT:__unwindfunclet$??$?0V?$allocator@U?$_Tree_node@U?$pair@$$CBKPAUSMobTable@CPythonNonPlayer@@@std@@PAX@std@@@std@@@?$_Tree@V?$_Tmap_traits@KPAUSMobTable@CPythonNonPlayer@@U?$less@K@std@@V?$allocator@U?$pair@$$CBKPAUSMobTable@CPythonNonPlayer@@@std@@@4@$0A@@std@@@std@@QAE@ABV01@$$QAV?$allocator@U?$_Tree_node@U?$pair@$$CBKPAUSMobTable@CPythonNonPlayer@@@std@@PAX@std@@@1@@Z$0
xdata$x	ENDS
;	COMDAT xdata$x
xdata$x	SEGMENT
__ehfuncinfo$??$_Copy_nodes@$0A@@?$_Tree@V?$_Tmap_traits@KPAUSMobTable@CPythonNonPlayer@@U?$less@K@std@@V?$allocator@U?$pair@$$CBKPAUSMobTable@CPythonNonPlayer@@@std@@@4@$0A@@std@@@std@@IAEPAU?$_Tree_node@U?$pair@$$CBKPAUSMobTable@CPythonNonPlayer@@@std@@PAX@1@PAU21@0@Z DQ 00000000219930522r ; 4.45598e-314
	DD	FLAT:__unwindtable$??$_Copy_nodes@$0A@@?$_Tree@V?$_Tmap_traits@KPAUSMobTable@CPythonNonPlayer@@U?$less@K@std@@V?$allocator@U?$pair@$$CBKPAUSMobTable@CPythonNonPlayer@@@std@@@4@$0A@@std@@@std@@IAEPAU?$_Tree_node@U?$pair@$$CBKPAUSMobTable@CPythonNonPlayer@@@std@@PAX@1@PAU21@0@Z
	DQ	00000000000000000r		; 0
	DQ	00000000000000000r		; 0
	DQ	00000000100000000r		; 2.122e-314
__unwindtable$??$_Copy_nodes@$0A@@?$_Tree@V?$_Tmap_traits@KPAUSMobTable@CPythonNonPlayer@@U?$less@K@std@@V?$allocator@U?$pair@$$CBKPAUSMobTable@CPythonNonPlayer@@@std@@@4@$0A@@std@@@std@@IAEPAU?$_Tree_node@U?$pair@$$CBKPAUSMobTable@CPythonNonPlayer@@@std@@PAX@1@PAU21@0@Z DD 0ffffffffH
	DD	FLAT:__unwindfunclet$??$_Copy_nodes@$0A@@?$_Tree@V?$_Tmap_traits@KPAUSMobTable@CPythonNonPlayer@@U?$less@K@std@@V?$allocator@U?$pair@$$CBKPAUSMobTable@CPythonNonPlayer@@@std@@@4@$0A@@std@@@std@@IAEPAU?$_Tree_node@U?$pair@$$CBKPAUSMobTable@CPythonNonPlayer@@@std@@PAX@1@PAU21@0@Z$1
	DD	0ffffffffH
	DD	FLAT:__unwindfunclet$??$_Copy_nodes@$0A@@?$_Tree@V?$_Tmap_traits@KPAUSMobTable@CPythonNonPlayer@@U?$less@K@std@@V?$allocator@U?$pair@$$CBKPAUSMobTable@CPythonNonPlayer@@@std@@@4@$0A@@std@@@std@@IAEPAU?$_Tree_node@U?$pair@$$CBKPAUSMobTable@CPythonNonPlayer@@@std@@PAX@1@PAU21@0@Z$0
xdata$x	ENDS
;	COMDAT xdata$x
xdata$x	SEGMENT
__ehfuncinfo$??$_Copy_or_move@$0A@U?$pair@$$CBKPAUSMobTable@CPythonNonPlayer@@@std@@@?$_Tree@V?$_Tmap_traits@KPAUSMobTable@CPythonNonPlayer@@U?$less@K@std@@V?$allocator@U?$pair@$$CBKPAUSMobTable@CPythonNonPlayer@@@std@@@4@$0A@@std@@@std@@IAEPAU?$_Tree_node@U?$pair@$$CBKPAUSMobTable@CPythonNonPlayer@@@std@@PAX@1@AAU?$pair@$$CBKPAUSMobTable@CPythonNonPlayer@@@1@@Z DQ 00000000119930522r ; 2.33398e-314
	DD	FLAT:__unwindtable$??$_Copy_or_move@$0A@U?$pair@$$CBKPAUSMobTable@CPythonNonPlayer@@@std@@@?$_Tree@V?$_Tmap_traits@KPAUSMobTable@CPythonNonPlayer@@U?$less@K@std@@V?$allocator@U?$pair@$$CBKPAUSMobTable@CPythonNonPlayer@@@std@@@4@$0A@@std@@@std@@IAEPAU?$_Tree_node@U?$pair@$$CBKPAUSMobTable@CPythonNonPlayer@@@std@@PAX@1@AAU?$pair@$$CBKPAUSMobTable@CPythonNonPlayer@@@1@@Z
	DQ	00000000000000000r		; 0
	DQ	00000000000000000r		; 0
	DQ	00000000100000000r		; 2.122e-314
__unwindtable$??$_Copy_or_move@$0A@U?$pair@$$CBKPAUSMobTable@CPythonNonPlayer@@@std@@@?$_Tree@V?$_Tmap_traits@KPAUSMobTable@CPythonNonPlayer@@U?$less@K@std@@V?$allocator@U?$pair@$$CBKPAUSMobTable@CPythonNonPlayer@@@std@@@4@$0A@@std@@@std@@IAEPAU?$_Tree_node@U?$pair@$$CBKPAUSMobTable@CPythonNonPlayer@@@std@@PAX@1@AAU?$pair@$$CBKPAUSMobTable@CPythonNonPlayer@@@1@@Z DD 0ffffffffH
	DD	FLAT:__unwindfunclet$??$_Copy_or_move@$0A@U?$pair@$$CBKPAUSMobTable@CPythonNonPlayer@@@std@@@?$_Tree@V?$_Tmap_traits@KPAUSMobTable@CPythonNonPlayer@@U?$less@K@std@@V?$allocator@U?$pair@$$CBKPAUSMobTable@CPythonNonPlayer@@@std@@@4@$0A@@std@@@std@@IAEPAU?$_Tree_node@U?$pair@$$CBKPAUSMobTable@CPythonNonPlayer@@@std@@PAX@1@AAU?$pair@$$CBKPAUSMobTable@CPythonNonPlayer@@@1@@Z$0
xdata$x	ENDS
;	COMDAT xdata$x
xdata$x	SEGMENT
__ehfuncinfo$??$_Buynode@AAU?$pair@$$CBKPAUSMobTable@CPythonNonPlayer@@@std@@@?$_Tree@V?$_Tmap_traits@KPAUSMobTable@CPythonNonPlayer@@U?$less@K@std@@V?$allocator@U?$pair@$$CBKPAUSMobTable@CPythonNonPlayer@@@std@@@4@$0A@@std@@@std@@IAEPAU?$_Tree_node@U?$pair@$$CBKPAUSMobTable@CPythonNonPlayer@@@std@@PAX@1@AAU?$pair@$$CBKPAUSMobTable@CPythonNonPlayer@@@1@@Z DQ 00000000119930522r ; 2.33398e-314
	DD	FLAT:__unwindtable$??$_Buynode@AAU?$pair@$$CBKPAUSMobTable@CPythonNonPlayer@@@std@@@?$_Tree@V?$_Tmap_traits@KPAUSMobTable@CPythonNonPlayer@@U?$less@K@std@@V?$allocator@U?$pair@$$CBKPAUSMobTable@CPythonNonPlayer@@@std@@@4@$0A@@std@@@std@@IAEPAU?$_Tree_node@U?$pair@$$CBKPAUSMobTable@CPythonNonPlayer@@@std@@PAX@1@AAU?$pair@$$CBKPAUSMobTable@CPythonNonPlayer@@@1@@Z
	DQ	00000000000000000r		; 0
	DQ	00000000000000000r		; 0
	DQ	00000000100000000r		; 2.122e-314
__unwindtable$??$_Buynode@AAU?$pair@$$CBKPAUSMobTable@CPythonNonPlayer@@@std@@@?$_Tree@V?$_Tmap_traits@KPAUSMobTable@CPythonNonPlayer@@U?$less@K@std@@V?$allocator@U?$pair@$$CBKPAUSMobTable@CPythonNonPlayer@@@std@@@4@$0A@@std@@@std@@IAEPAU?$_Tree_node@U?$pair@$$CBKPAUSMobTable@CPythonNonPlayer@@@std@@PAX@1@AAU?$pair@$$CBKPAUSMobTable@CPythonNonPlayer@@@1@@Z DD 0ffffffffH
	DD	FLAT:__unwindfunclet$??$_Buynode@AAU?$pair@$$CBKPAUSMobTable@CPythonNonPlayer@@@std@@@?$_Tree@V?$_Tmap_traits@KPAUSMobTable@CPythonNonPlayer@@U?$less@K@std@@V?$allocator@U?$pair@$$CBKPAUSMobTable@CPythonNonPlayer@@@std@@@4@$0A@@std@@@std@@IAEPAU?$_Tree_node@U?$pair@$$CBKPAUSMobTable@CPythonNonPlayer@@@std@@PAX@1@AAU?$pair@$$CBKPAUSMobTable@CPythonNonPlayer@@@1@@Z$0
xdata$x	ENDS
;	COMDAT xdata$x
xdata$x	SEGMENT
__ehfuncinfo$??$_Buynode@V?$allocator@U?$_Tree_node@U?$pair@$$CBKPAUSMobTable@CPythonNonPlayer@@@std@@PAX@std@@@std@@AAU?$pair@$$CBKPAUSMobTable@CPythonNonPlayer@@@2@@?$_Tree_node@U?$pair@$$CBKPAUSMobTable@CPythonNonPlayer@@@std@@PAX@std@@SAPAU01@AAV?$allocator@U?$_Tree_node@U?$pair@$$CBKPAUSMobTable@CPythonNonPlayer@@@std@@PAX@std@@@1@PAU01@AAU?$pair@$$CBKPAUSMobTable@CPythonNonPlayer@@@1@@Z DQ 00000000119930522r ; 2.33398e-314
	DD	FLAT:__unwindtable$??$_Buynode@V?$allocator@U?$_Tree_node@U?$pair@$$CBKPAUSMobTable@CPythonNonPlayer@@@std@@PAX@std@@@std@@AAU?$pair@$$CBKPAUSMobTable@CPythonNonPlayer@@@2@@?$_Tree_node@U?$pair@$$CBKPAUSMobTable@CPythonNonPlayer@@@std@@PAX@std@@SAPAU01@AAV?$allocator@U?$_Tree_node@U?$pair@$$CBKPAUSMobTable@CPythonNonPlayer@@@std@@PAX@std@@@1@PAU01@AAU?$pair@$$CBKPAUSMobTable@CPythonNonPlayer@@@1@@Z
	DQ	00000000000000000r		; 0
	DQ	00000000000000000r		; 0
	DQ	00000000100000000r		; 2.122e-314
__unwindtable$??$_Buynode@V?$allocator@U?$_Tree_node@U?$pair@$$CBKPAUSMobTable@CPythonNonPlayer@@@std@@PAX@std@@@std@@AAU?$pair@$$CBKPAUSMobTable@CPythonNonPlayer@@@2@@?$_Tree_node@U?$pair@$$CBKPAUSMobTable@CPythonNonPlayer@@@std@@PAX@std@@SAPAU01@AAV?$allocator@U?$_Tree_node@U?$pair@$$CBKPAUSMobTable@CPythonNonPlayer@@@std@@PAX@std@@@1@PAU01@AAU?$pair@$$CBKPAUSMobTable@CPythonNonPlayer@@@1@@Z DD 0ffffffffH
	DD	FLAT:__unwindfunclet$??$_Buynode@V?$allocator@U?$_Tree_node@U?$pair@$$CBKPAUSMobTable@CPythonNonPlayer@@@std@@PAX@std@@@std@@AAU?$pair@$$CBKPAUSMobTable@CPythonNonPlayer@@@2@@?$_Tree_node@U?$pair@$$CBKPAUSMobTable@CPythonNonPlayer@@@std@@PAX@std@@SAPAU01@AAV?$allocator@U?$_Tree_node@U?$pair@$$CBKPAUSMobTable@CPythonNonPlayer@@@std@@PAX@std@@@1@PAU01@AAU?$pair@$$CBKPAUSMobTable@CPythonNonPlayer@@@1@@Z$0
END
