; Listing generated by Microsoft (R) Optimizing Compiler Version 19.44.35219.0 

	TITLE	c:\anka2project\anka2project\source\binary\vs_files\userinterface\release\pythonnetworkstreamphasegame.obj
	.686P
	.XMM
	include listing.inc
	.model	flat

INCLUDELIB OLDNAMES

PUBLIC	?gs_bEmpireLanuageEnable@@3HA			; gs_bEmpireLanuageEnable
PUBLIC	??_C@_0BE@IJPIELF@1022848045039230976@		; `string'
PUBLIC	??_C@_0O@IFLIJHII@metin2_map_a1@		; `string'
PUBLIC	??_C@_06BPOENAMC@Yongan@			; `string'
PUBLIC	??_C@_0O@IHPOCJNB@metin2_map_b1@		; `string'
PUBLIC	??_C@_04PKLAEIGB@Joan@				; `string'
PUBLIC	??_C@_0O@IGDMEDOG@metin2_map_c1@		; `string'
PUBLIC	??_C@_08BHKFMOMM@Pyungmoo@			; `string'
PUBLIC	??_C@_06GECNACHD@Name?3?5@			; `string'
PUBLIC	??_C@_0L@FKFGAJGA@Location?3?5@			; `string'
PUBLIC	??_C@_05PGCJLMNG@race_@				; `string'
PUBLIC	??_C@_08IMEFFKLD@?9Guild?3?5@			; `string'
PUBLIC	??_C@_08JHGIFPME@Assassin@			; `string'
PUBLIC	??_C@_07DFKLKNJN@Warrior@			; `string'
PUBLIC	??_C@_06ELHMMIIB@Shaman@			; `string'
PUBLIC	??_C@_04DBBMALIP@Sura@				; `string'
PUBLIC	??_C@_07CILALFII@Shinsoo@			; `string'
PUBLIC	??_C@_07MFLOJLNG@empire_@			; `string'
PUBLIC	??_C@_05PAJHDBI@Jinno@				; `string'
PUBLIC	??_C@_06LODJBEED@Chunjo@			; `string'
PUBLIC	??_C@_0BI@IJENFIMO@RefreshTargetBoardByVID@	; `string'
PUBLIC	??_C@_0BB@DGNNMOLK@RefreshAlignment@		; `string'
PUBLIC	??_C@_0BD@FLFBFOOJ@RefreshTargetBoard@		; `string'
PUBLIC	??_C@_0BJ@GGFFBLPA@RefreshTargetBoardByName@	; `string'
PUBLIC	??_C@_0BB@CAEOPHDE@RefreshEquipment@		; `string'
PUBLIC	??_C@_0BB@HFALJDHO@RefreshCharacter@		; `string'
PUBLIC	??_C@_0BA@JECEPFD@RefreshExchange@		; `string'
PUBLIC	??_C@_0BB@JLCHKFKI@RefreshInventory@		; `string'
PUBLIC	??_C@_0P@PHDJJCCP@RefreshSafebox@		; `string'
PUBLIC	??_C@_0N@EFFAOLPI@RefreshSkill@			; `string'
PUBLIC	??_C@_0O@PDJLBMPA@RefreshStatus@		; `string'
PUBLIC	??_C@_0M@HNBFKLDC@RefreshMall@			; `string'
PUBLIC	??_C@_0BF@NLJDKFFK@RefreshGuildInfoPage@	; `string'
PUBLIC	??_C@_0BB@CDMJAHKO@RefreshMessenger@		; `string'
PUBLIC	??_C@_0BH@BOJHBBF@RefreshGuildMemberPage@	; `string'
PUBLIC	??_C@_0BG@FFPNPADB@RefreshGuildBoardPage@	; `string'
PUBLIC	??_C@_0BG@MICKDFKA@RefreshGuildSkillPage@	; `string'
PUBLIC	??_C@_0CE@PAAOLBDB@RefreshGuildMemberPageGradeComb@ ; `string'
PUBLIC	??_C@_0BC@KPHCEHNG@RefreshShopSearch@		; `string'
PUBLIC	??_C@_0BG@CBAJOEAC@RefreshGuildGradePage@	; `string'
PUBLIC	??_C@_0M@DJFBBLID@ShowMapName@			; `string'
PUBLIC	??_C@_05FONOJENF@?$CIsii?$CJ@			; `string'
PUBLIC	??_C@_0BC@FABDGPBM@TrackWindowUpdate@		; `string'
PUBLIC	??_C@_0BL@HPKACCGC@?$CD?$CD?5Network?5?9?5Game?5Phase?5?$CD?$CD@ ; `string'
PUBLIC	??_C@_0BB@FNPCBFHE@CloseTargetBoard@		; `string'
PUBLIC	??_C@_0EC@IHJJGCFB@CPythonNetworkStream?3?3RecvDuelS@ ; `string'
PUBLIC	??_C@_0CJ@MJAJOLNA@?5SendMessengerAddBlockByNamePac@ ; `string'
PUBLIC	??_C@_0CE@DHDBME@?5SendMessengerAddByNamePacket?5?3@ ; `string'
PUBLIC	??_C@_1GC@PGNNMAHF@?$AAk?$AAS?$AAt?$AAa?$AAt?$AAe?$AAP?$AAa?$AAc?$AAk?$AAe?$AAt?$AA?4?$AAl?$AAX@ ; `string'
PUBLIC	??_C@_1MC@HOPJDGIA@?$AAC?$AA?3?$AA?2?$AAA?$AAn?$AAk?$AAa?$AA2?$AAP?$AAr?$AAo?$AAj?$AAe?$AAc?$AAt@ ; `string'
PUBLIC	??_C@_0DN@EFFJHKOL@CPythonNetworkStream?3?3SendUseSk@ ; `string'
PUBLIC	??_C@_0IB@FFAGJAOL@CPythonNetworkStream?3?3SendChara@ ; `string'
PUBLIC	??_C@_0N@EFAMMONH@?$HMcffffc700?$HMH@		; `string'
PUBLIC	??_C@_0DL@GMAAOOOI@Can?8t?5register?5emoticon?5string?4@ ; `string'
PUBLIC	??_C@_01OHGJGJJP@?$FL@				; `string'
PUBLIC	??_C@_0N@MNNAGHIM@?$HMcfff1e6c0?$HMH@		; `string'
PUBLIC	??_C@_02PAHBFGHG@?$HMh@				; `string'
PUBLIC	??_C@_01LBDDMOBJ@?$FN@				; `string'
PUBLIC	??_C@_04LIFAFMCE@?$FL?$CFs?$FN@			; `string'
PUBLIC	??_C@_05EMKMHPK@item?3@				; `string'
PUBLIC	??_C@_0BF@EKLOHGBI@BINARY_SetTipMessage@	; `string'
PUBLIC	??_C@_02DKCKIIND@?$CFs@				; `string'
PUBLIC	??_C@_0BM@FHNICOKA@BINARY_SetBigControlMessage@	; `string'
PUBLIC	??_C@_0BF@MEFMFHCI@BINARY_SetBigMessage@	; `string'
PUBLIC	??_C@_07IAFACCAD@?$CFs?5?3?5?$CFs@		; `string'
PUBLIC	??_C@_1GE@CJKKCFEA@?$AAw?$AAh?$AAi?$AAs?$AAp?$AAe?$AAr?$AAP?$AAa?$AAc?$AAk?$AAe?$AAt?$AA?4?$AAw@ ; `string'
PUBLIC	??_C@_0O@MLMPGGOH@OnRecvWhisper@		; `string'
PUBLIC	??_C@_05FKJLIKKL@?$CIiss?$CJ@			; `string'
PUBLIC	??_C@_0BD@HFHHLLOG@OnRecvWhisperError@		; `string'
PUBLIC	??_C@_0BL@MJBHNNKO@OnRecvWhisperSystemMessage@	; `string'
PUBLIC	??_C@_0M@JJMCBALF@OnPickMoney@			; `string'
PUBLIC	??_C@_0BP@DGLKKAJF@Recv?5Point?5Change?5Packet?5Error@ ; `string'
PUBLIC	??_C@_0CL@KJGPDLAC@CPythonNetworkStream?3?3RecvDeadP@ ; `string'
PUBLIC	??_C@_0CL@MKMKFBIM@CPythonNetworkStream?3?3RecvStunP@ ; `string'
PUBLIC	??_C@_03IELNPCCE@?$CIO?$CJ@			; `string'
PUBLIC	??_C@_0M@BDKDPHGA@?A?V?$MA?N?$LA?x?5?$LL?g?$LI?A@ ; `string'
PUBLIC	??_C@_0CF@OKKJKDKD@Send?5Character?5Position?5Packet?5@ ; `string'
PUBLIC	??_C@_0L@MNOOMILJ@OnGameOver@			; `string'
PUBLIC	??_C@_0BD@ICLELGCO@SendOnClickPacket?6@		; `string'
PUBLIC	??_C@_0BL@HCNNPICH@Send?5On_Click?5Packet?5Error@ ; `string'
PUBLIC	??_C@_07FONJAJPH@EndShop@			; `string'
PUBLIC	??_C@_09PJIJIJPH@StartShop@			; `string'
PUBLIC	??_C@_0BE@MHMAEIEM@SetShopSellingPrice@		; `string'
PUBLIC	??_C@_0M@DLPMCOFP@RefreshShop@			; `string'
PUBLIC	??_C@_0M@NHHHAHOK@OnShopError@			; `string'
PUBLIC	??_C@_0BB@GHBGEHD@NOT_ENOUGH_MONEY@		; `string'
PUBLIC	??_C@_07FBAJNJNN@SOLDOUT@			; `string'
PUBLIC	??_C@_0BB@FHBGDKNB@NOT_ENOUGH_COINS@		; `string'
PUBLIC	??_C@_0M@HAELFLPD@INVALID_POS@			; `string'
PUBLIC	??_C@_0P@HIHIAGBD@INVENTORY_FULL@		; `string'
PUBLIC	??_C@_0P@IOOOGPI@NOT_ENOUGH_EXP@		; `string'
PUBLIC	??_C@_0BA@GDHCJGKC@NOT_ENOUGH_ITEM@		; `string'
PUBLIC	??_C@_0DJ@IGANFIGP@CPythonNetworkStream?3?3RecvShopP@ ; `string'
PUBLIC	??_C@_0BG@ELOKCGJA@ALREADY_HAVE_ONE_ITEM@	; `string'
PUBLIC	??_C@_0BJ@LKIMJPM@AddExchangeItemSlotIndex@	; `string'
PUBLIC	??_C@_0O@HKIIBLHD@StartExchange@		; `string'
PUBLIC	??_C@_0O@LLCGBEIB@trade_already@		; `string'
PUBLIC	??_C@_0M@GJLEGLOM@EndExchange@			; `string'
PUBLIC	??_C@_0CA@CACIOMDA@Recv?5Quest?5Info?5Packet?5Error?5?$CD1@ ; `string'
PUBLIC	??_C@_0P@DNLFDBJJ@trade_less_elk@		; `string'
PUBLIC	??_C@_0N@IPPKALM@RefreshQuest@			; `string'
PUBLIC	??_C@_0CA@LAFLPPD@Recv?5Quest?5Info?5Packet?5Error?5?$CD2@ ; `string'
PUBLIC	??_C@_0BG@KIBJJMEI@BINARY_OnQuestConfirm@	; `string'
PUBLIC	??_C@_0BN@JBCFOMDG@RecvQuestConfirmPacket?5Error@ ; `string'
PUBLIC	??_C@_0CC@ELOCPLFN@RecvRequestMakeGuild?5Packet?5Err@ ; `string'
PUBLIC	??_C@_0BD@CFBLMLPP@RecvMarkPass?5Error@		; `string'
PUBLIC	??_C@_0BA@BHDOCKEA@ToggleDebugInfo@		; `string'
PUBLIC	??_C@_0N@FKOIEIPK@AskGuildName@			; `string'
PUBLIC	??_C@_0BH@BIEMFCCA@RecvGuildRanking?5Error@	; `string'
PUBLIC	??_C@_0BM@IFLFCIGO@RecvPartyPositionInfo?5Error@ ; `string'
PUBLIC	??_C@_0BP@CGFAIMHK@send_trade_start_packet?5Error?6@ ; `string'
PUBLIC	??_C@_0BH@DIHNLGAB@BINARY_GUILD_RANK_OPEN@	; `string'
PUBLIC	??_C@_0CB@EABMKDBI@send_trade_elk_add_packet?5Error@ ; `string'
PUBLIC	??_C@_0CD@FOAEKPNP@send_trade_start_packet?5?5?5vid?5?$CF@ ; `string'
PUBLIC	??_C@_0CC@IFEOOANP@send_trade_item_del_packet?5Erro@ ; `string'
PUBLIC	??_C@_0CC@JFABNFDE@send_trade_item_add_packet?5Erro@ ; `string'
PUBLIC	??_C@_0BO@FJKDIHPJ@send_trade_exit_packet?5Error?6@ ; `string'
PUBLIC	??_C@_0CA@EEPLBN@send_trade_accept_packet?5Error?6@ ; `string'
PUBLIC	??_C@_0BL@GIIBIOJB@RecvScriptPacket_RecvError@	; `string'
PUBLIC	??_C@_0BA@ILEGHCPF@StartPointReset@		; `string'
PUBLIC	??_C@_0CA@GLOCGDPA@Send?5Script?5Answer?5Packet?5Error@ ; `string'
PUBLIC	??_C@_0BL@FELFLKOI@RecvScriptPacket_SizeError@	; `string'
PUBLIC	??_C@_0CB@KDIADHIP@SendQuestInputStringPacket?5Erro@ ; `string'
PUBLIC	??_C@_0CA@DKGOFDHL@Send?5Script?5Button?5Packet?5Error@ ; `string'
PUBLIC	??_C@_0CB@HKJKPPKG@?5SendQuestConfirmPacket?5?3?5?$CFd?0?5?$CF@ ; `string'
PUBLIC	??_C@_0BN@IAHFIDIL@SendQuestConfirmPacket?5Error@ ; `string'
PUBLIC	??_C@_0DP@EPEALGJO@CPythonNetworkStream?3?3RecvSkill@ ; `string'
PUBLIC	??_C@_0DH@MPAMADMO@CPythonNetworkStream?3?3RecvSkill@ ; `string'
PUBLIC	??_C@_0DB@OELACDEA@CPythonNetworkStream?3?3RecvSkill@ ; `string'
PUBLIC	??_C@_1IE@MLPEGPFN@?$AA?$CB?$AA?$CC?$AAC?$AAP?$AAy?$AAt?$AAh?$AAo?$AAn?$AAN?$AAe?$AAt?$AAw?$AAo?$AAr@ ; `string'
PUBLIC	??_C@_0DE@EBNCHOOM@CPythonNetworkStream?3?3RecvSkill@ ; `string'
PUBLIC	??_C@_0BE@OJMAIMGE@?5?$DO?$DO?5RecvSkillLevel?6@ ; `string'
PUBLIC	??_C@_0BM@PIHJNOHE@Damage?5is?5equal?5or?5below?50?4@ ; `string'
PUBLIC	??_C@_0BJ@HIJGCIDI@Recv?5Target?5Packet?5Error@	; `string'
PUBLIC	??_C@_06GAHGMLBJ@?$CIiiii?$CJ@			; `string'
PUBLIC	??_C@_0BM@KLEOIHKF@CloseTargetBoardIfDifferent@	; `string'
PUBLIC	??_C@_0BO@GIHEABLB@Recv?5Info?5Target?5Packet?5Error@ ; `string'
PUBLIC	??_C@_0BB@PDPGJKAD@SetHPTargetBoard@		; `string'
PUBLIC	??_C@_0CE@BCGGCKOC@BINARY_RefreshTargetMonsterDrop@ ; `string'
PUBLIC	??_C@_0CA@ECFMOOAF@BINARY_AddTargetMonsterDropInfo@ ; `string'
PUBLIC	??_C@_0BI@OCDKMKMI@Recv?5Speed?5Packet?5Error@	; `string'
PUBLIC	??_C@_0BI@LEDBDCKL@Recv?5Mount?5Packet?5Error@	; `string'
PUBLIC	??_C@_0BN@KNAMGOGH@VID?5?$FL?$CFd?$FN?$LA?$KB?5?E?$LI?$LA?Y?$MA?$LL?5?C?$NP?$LA?$KB?5?$LM?$LD?A?$KE?6@ ; `string'
PUBLIC	??_C@_0CA@IBBLODAF@Send?5Battle?5Attack?5Packet?5Error@ ; `string'
PUBLIC	??_C@_0BG@GKKFNNN@SendShootPacket?5Error@	; `string'
PUBLIC	??_C@_0EM@NIJLGOIC@CPythonNetworkStream?3?3RecvFlyTa@ ; `string'
PUBLIC	??_C@_0BJ@MBCMDDJG@Send?5Target?5Packet?5Error@	; `string'
PUBLIC	??_C@_0BP@MONNHODC@Send?5FlyTargeting?5Packet?5Error@ ; `string'
PUBLIC	??_C@_0DM@NAODJGJE@CPythonNetworkStream?3?3SendSyncP@ ; `string'
PUBLIC	??_C@_0BO@DAKKOIFE@Send?5Skill?5Color?5Packet?5Error@ ; `string'
PUBLIC	??_C@_0CA@GNHHEHBK@?5?$DM?$DM?5SendPartyInvitePacket?5?3?5?$CFd?6@ ; `string'
PUBLIC	??_C@_0EG@HLBPKODM@CPythonNetworkStream?3?3SendParty@ ; `string'
PUBLIC	??_C@_0CK@GHKGLGPO@?5?$DM?$DM?5SendPartyInviteAnswerPacket@ ; `string'
PUBLIC	??_C@_0FA@IIILKEFH@CPythonNetworkStream?3?3SendParty@ ; `string'
PUBLIC	??_C@_0CA@HANJMBEA@?5?$DM?$DM?5SendPartyRemovePacket?5?3?5?$CFd?6@ ; `string'
PUBLIC	??_C@_0EG@BBBGKACF@CPythonNetworkStream?3?3SendParty@ ; `string'
PUBLIC	??_C@_0CK@PHAHCCJC@?5?$DM?$DM?5SendPartySetStatePacket?5?3?5?$CF@ ; `string'
PUBLIC	??_C@_0EM@FFPCCHJM@CPythonNetworkStream?3?3SendParty@ ; `string'
PUBLIC	??_C@_0CG@GLODGHKD@?5?$DM?$DM?5SendPartyUseSkillPacket?5?3?5?$CF@ ; `string'
PUBLIC	??_C@_0EM@BMAFGIHC@CPythonNetworkStream?3?3SendParty@ ; `string'
PUBLIC	??_C@_0CD@LLPEDDBL@?5?$DM?$DM?5SendPartyParameterPacket?5?3?5@ ; `string'
PUBLIC	??_C@_0EH@IOBBPNMN@CPythonNetworkStream?3?3SendParty@ ; `string'
PUBLIC	??_C@_0BI@FPJOLEHH@RecvPartyInviteQuestion@	; `string'
PUBLIC	??_C@_0EO@GALKDEGO@?5CPythonNetworkStream?3?3RecvPart@ ; `string'
PUBLIC	??_C@_0P@JPKHKGNP@AddPartyMember@		; `string'
PUBLIC	??_C@_0BO@EBDJDNJB@?5?$DO?$DO?5RecvPartyInvite?5?3?5?$CFd?0?5?$CFs?6@ ; `string'
PUBLIC	??_C@_0BG@JOKFDABD@UpdatePartyMemberInfo@	; `string'
PUBLIC	??_C@_0BL@GPMBAKEI@?5?$DO?$DO?5RecvPartyAdd?5?3?5?$CFd?0?5?$CFs?6@ ; `string'
PUBLIC	??_C@_0BK@FHNAOGNK@?5?$DO?$DO?5RecvPartyRemove?5?3?5?$CFd?6@ ; `string'
PUBLIC	??_C@_0BC@DGCJFOHN@RemovePartyMember@		; `string'
PUBLIC	??_C@_0BM@FEBFPLO@?5?$DO?$DO?5RecvPartyLink?5?3?5?$CFd?0?5?$CFd?6@ ; `string'
PUBLIC	??_C@_0BA@JPJIDGOI@LinkPartyMember@		; `string'
PUBLIC	??_C@_0BC@EBBCCLIK@UnlinkPartyMember@		; `string'
PUBLIC	??_C@_0BF@KBCGJNOO@UnlinkAllPartyMember@	; `string'
PUBLIC	??_C@_0BF@FFLEPOCB@ChangePartyParameter@	; `string'
PUBLIC	??_C@_0BO@JOBNIIPD@?5?$DO?$DO?5RecvPartyUnlink?5?3?5?$CFd?0?5?$CFd?6@ ; `string'
PUBLIC	??_C@_0BL@GHDBPEKM@?5SendGuildAddMemberPacket?6@ ; `string'
PUBLIC	??_C@_0BN@HDHIECAG@?5?$DO?$DO?5RecvPartyParameter?5?3?5?$CFd?6@ ; `string'
PUBLIC	??_C@_0CI@HCDCDOMK@?5SendGuildChangeGradeNamePacket@ ; `string'
PUBLIC	??_C@_0CB@OCJDCDKN@?5SendGuildRemoveMemberPacket?5?$CFd@ ; `string'
PUBLIC	??_C@_0BK@JBHNFCGO@?5SendGuildOfferPacket?5?$CFd?6@ ; `string'
PUBLIC	??_C@_0CN@ENAPGANL@?5SendGuildChangeGradeAuthorityP@ ; `string'
PUBLIC	??_C@_0CC@HHBLBNGP@?5SendGuildDeleteCommentPacket?5?$CF@ ; `string'
PUBLIC	??_C@_0CE@ILONPNIK@?5SendGuildPostCommentPacket?5?$CFd?0@ ; `string'
PUBLIC	??_C@_0CK@NJDDFMMG@?5SendGuildChangeMemberGradePack@ ; `string'
PUBLIC	??_C@_0CD@DFFJJDFM@?5SendGuildRefreshCommentPacket?5@ ; `string'
PUBLIC	??_C@_0DA@BBFAPAKJ@?5SendGuildChangeMemberGeneralFl@ ; `string'
PUBLIC	??_C@_0CB@HHLIHMFO@?5SendGuildUseSkillPacket?5?$CFd?0?5?$CFd@ ; `string'
PUBLIC	??_C@_0BO@DLDFHEKF@?5SendGuildChargeGSPPacket?5?$CFd?6@ ; `string'
PUBLIC	??_C@_0CF@HPNCOLAE@?5SendGuildInviteAnswerPacket?5?$CFd@ ; `string'
PUBLIC	??_C@_0CC@HBGAJKKF@?5SendGuildWithdrawMoneyPacket?5?$CF@ ; `string'
PUBLIC	??_C@_0CB@OEPAEO@?5SendGuildDepositMoneyPacket?5?$CFd@ ; `string'
PUBLIC	??_C@_0O@EGDOPDJO@?5?$DMRemove?$DO?5?$CFd?6@	; `string'
PUBLIC	??_C@_0M@JPGKCCFN@DeleteGuild@			; `string'
PUBLIC	??_C@_0BN@JFJPHNLH@?5?$DMChange?5Grade?5Name?$DO?5?$CFd?0?5?$CFs?6@ ; `string'
PUBLIC	??_C@_0BC@MJKOOFCD@RefreshGuildGrade@		; `string'
PUBLIC	??_C@_0BF@GJIHEANJ@?5?$DMChangeEXP?$DO?5?$CFd?0?5?$CFd?6@ ; `string'
PUBLIC	??_C@_0CC@KDHBOMAA@?5?$DMChange?5Grade?5Authority?$DO?5?$CFd?0?5?$CF@ ; `string'
PUBLIC	??_C@_0BK@FEHNPJOD@?5?$DMSkillInfo?$DO?5?$CFd?5?1?5?$CFd?0?5?$CFd?6@ ; `string'
PUBLIC	??_C@_0BN@HEKKNAEA@?5?$DMChangeMemberGrade?$DO?5?$CFd?0?5?$CFd?6@ ; `string'
PUBLIC	??_C@_0BI@GJGOAKHL@RecvGuildInviteQuestion@	; `string'
PUBLIC	??_C@_0CD@MPFPDEHG@?5?$DMChangeMemberGeneralFlag?$DO?5?$CFd?0?5@ ; `string'
PUBLIC	??_C@_0DF@PELONEKB@?5?$DO?$DO?5GUILD_SUBHEADER_GC_WAR?5?3?5GU@ ; `string'
PUBLIC	??_C@_0BI@EECNELJB@?5?$DMGuild?5Invite?$DO?5?$CFd?0?5?$CFs?6@ ; `string'
PUBLIC	??_C@_0DF@BIEEJDD@?5?$DO?$DO?5GUILD_SUBHEADER_GC_WAR?5?3?5GU@ ; `string'
PUBLIC	??_C@_0BO@HMPGICIO@BINARY_GuildWar_OnSendDeclare@ ; `string'
PUBLIC	??_C@_0DI@LOGKJDI@?5?$DO?$DO?5GUILD_SUBHEADER_GC_WAR?5?3?5GU@ ; `string'
PUBLIC	??_C@_0BO@JAJLCPKG@BINARY_GuildWar_OnRecvDeclare@ ; `string'
PUBLIC	??_C@_0CM@HGKOKFIL@?5?$DO?$DO?5GUILD_SUBHEADER_GC_WAR?5?3?5GU@ ; `string'
PUBLIC	??_C@_0BI@JKFNHMFD@BINARY_GuildWar_OnStart@	; `string'
PUBLIC	??_C@_0BO@BIGIPMO@GUILD_SUBHEADER_GC_GUILD_NAME@ ; `string'
PUBLIC	??_C@_0BG@NACAFPAN@BINARY_GuildWar_OnEnd@	; `string'
PUBLIC	??_C@_0CC@JOKPFJGF@GUILD_SUBHEADER_GC_GUILD_WAR_LI@ ; `string'
PUBLIC	??_C@_1HI@JNOBCLE@?$AAi?$AAP?$AAa?$AAc?$AAk?$AAe?$AAt?$AAS?$AAi?$AAz?$AAe?$AA?$CF?$AAn?$AAI?$AAt@ ; `string'
PUBLIC	??_C@_0BN@PIMGMDLK@?5?$DO?$DO?5GulidWarList?5?$FL?$CFd?5vs?5?$CFd?$FN?6@ ; `string'
PUBLIC	??_C@_1IA@KGKKPJBL@?$AAi?$AAP?$AAa?$AAc?$AAk?$AAe?$AAt?$AAS?$AAi?$AAz?$AAe?$AA?$CF?$AAn?$AAI?$AAt@ ; `string'
PUBLIC	??_C@_1II@DPOCFKFC@?$AAi?$AAP?$AAa?$AAc?$AAk?$AAe?$AAt?$AAS?$AAi?$AAz?$AAe?$AA?$CF?$AAn?$AAI?$AAt@ ; `string'
PUBLIC	??_C@_0CG@PEFHELOM@GUILD_SUBHEADER_GC_GUILD_WAR_EN@ ; `string'
PUBLIC	??_C@_0BM@LBOEDDLE@BINARY_GuildWar_OnRecvPoint@	; `string'
PUBLIC	??_C@_0CA@FNEJFGNL@?5?$DO?$DO?5GulidWarEndList?5?$FL?$CFd?5vs?5?$CFd?$FN?6@ ; `string'
PUBLIC	??_C@_0BB@CJFMLNJB@OnFishingFailure@		; `string'
PUBLIC	??_C@_0BN@IAMOHDFF@?5?$DO?$DO?5Guild?5Money?5Change?5?3?5?$CFd?6@ ; `string'
PUBLIC	??_C@_0BA@ODHDNEFK@OnFishingNotify@		; `string'
PUBLIC	??_C@_0BH@DPEJLPAP@OnFishingNotifyUnknown@	; `string'
PUBLIC	??_C@_0BN@BEOHMMCM@BINARY_PrivateShop_Disappear@ ; `string'
PUBLIC	??_C@_0BB@OABOAGML@OnFishingSuccess@		; `string'
PUBLIC	??_C@_0BB@CHHJLMHC@OpenRefineDialog@		; `string'
PUBLIC	??_C@_0BK@CKEFNKBC@BINARY_PrivateShop_Appear@	; `string'
PUBLIC	??_C@_07FANHMMCA@?$CIiiiii?$CJ@			; `string'
PUBLIC	??_C@_0BN@KLPAAKFJ@AppendMaterialToRefineDialog@ ; `string'
PUBLIC	??_C@_1OG@IPJPOND@?$AAi?$AAn?$AAt?$AA?$CI?$AAk?$AAN?$AAP?$AAC?$AAP?$AAo?$AAs?$AAi?$AAt?$AAi?$AAo@ ; `string'
PUBLIC	??_C@_0BH@PECFNDBA@HEADER_GC_NPC_POSITION@	; `string'
PUBLIC	??_C@_0BI@NIFEGIKP@BINARY_NEW_RemoveAffect@	; `string'
PUBLIC	??_C@_0BF@DEMCFMHM@BINARY_NEW_AddAffect@	; `string'
PUBLIC	??_C@_0L@MJNOPOK@SetAntiExp@			; `string'
PUBLIC	??_C@_0P@BNCAAKEF@RefreshChannel@		; `string'
PUBLIC	??_C@_0BH@DIEBEMHE@SetEquipmentDialogItem@	; `string'
PUBLIC	??_C@_0BE@OLAMAMAK@OpenEquipmentDialog@		; `string'
PUBLIC	??_C@_0BH@NIIPMAGM@SetEquipmentDialogAttr@	; `string'
PUBLIC	??_C@_0BJ@DBOCKHJF@SetEquipmentDialogSocket@	; `string'
PUBLIC	??_C@_0BB@EGDBDJKJ@BINARY_LoverInfo@		; `string'
PUBLIC	??_C@_0BH@NJGJICND@BINARY_OpenAtlasWindow@	; `string'
PUBLIC	??_C@_0EI@GDEJNOOE@CPythonNetworkStream?3?3RecvReque@ ; `string'
PUBLIC	??_C@_0BH@KEGDJEJM@BINARY_UpdateLovePoint@	; `string'
PUBLIC	??_C@_0BN@OAMCODMH@BINARY_RecieveWhisperDetails@ ; `string'
PUBLIC	??_C@_0BN@JEPOFCLN@BINARY_RequestChangeLanguage@ ; `string'
PUBLIC	??_C@_0BF@MNPOKFIN@RefreshSwitchbotItem@	; `string'
PUBLIC	??_C@_0BH@IJBFJHPO@RefreshSwitchbotWindow@	; `string'
PUBLIC	??_C@_0CO@LBDKNCCH@CPythonNetworkStream?3?3CubeRenew@ ; `string'
PUBLIC	??_C@_0DB@LAJGAGJ@CPythonNetworkStream?3?3CubeRenew@ ; `string'
PUBLIC	??_C@_04IBFHFEAL@?$CIib?$CJ@			; `string'
PUBLIC	??_C@_0BJ@GAIALHHF@BINARY_CUBE_RENEWAL_OPEN@	; `string'
PUBLIC	??_C@_03LECICHJH@?$CIb?$CJ@			; `string'
PUBLIC	??_C@_07ELBMDIMF@ActAcce@			; `string'
PUBLIC	??_C@_0DN@BMMMAEFK@CPythonNetworkStream?3?3RecvAcceP@ ; `string'
PUBLIC	??_C@_09LKAOGKCC@AlertAcce@			; `string'
PUBLIC	??_C@_0BI@EOELCKK@RecvBiologManager?5Error@	; `string'
PUBLIC	??_C@_0CL@ELFPAKJO@SendBiologManagerAction?5Send?5Pa@ ; `string'
PUBLIC	??_C@_0BJ@FIHBEIIF@BINARY_BiologManagerOpen@	; `string'
PUBLIC	??_C@_0BL@NDCMFINF@BINARY_BiologManagerUpdate@	; `string'
PUBLIC	??_C@_0BK@CMJBPDLK@BINARY_BiologManagerClose@	; `string'
PUBLIC	??_C@_0BK@FMPPPLPC@BINARY_BiologManagerAlert@	; `string'
PUBLIC	??_C@_0BM@OMNILKOH@BINARY_RefreshChestDropInfo@	; `string'
PUBLIC	??_C@_0BI@CPCNIMCA@BINARY_AddChestDropInfo@	; `string'
PUBLIC	??_C@_0BG@NNKLBCNL@SendRequestEventData?6@	; `string'
PUBLIC	??_C@_0CH@NIBHINNJ@Send?5SendRequestEventData?5Packe@ ; `string'
PUBLIC	??_C@_0EC@IOBEGFIA@CPythonNetworkStream?3?3RecvEvent@ ; `string'
PUBLIC	??_C@_0EE@ICMLPME@CPythonNetworkStream?3?3RecvEvent@ ; `string'
PUBLIC	??_C@_0EB@JNHIBBGC@CPythonNetworkStream?3?3RecvEvent@ ; `string'
PUBLIC	??_C@_0BH@MAOBEALI@BINARY_OpenInGameEvent@	; `string'
PUBLIC	??_C@_0BM@IIHINANN@SendRequestEventQuest?5Error@ ; `string'
PUBLIC	??_C@_0BI@IPPODIFN@BINARY_CloseInGameEvent@	; `string'
PUBLIC	??_C@_0DA@JIEBFEAB@SendExtBattlePassPremiumItem?5Se@ ; `string'
PUBLIC	??_C@_0CL@OLFDLPNC@SendExtBattlePassAction?5Send?5Pa@ ; `string'
PUBLIC	??_C@_07PCJKONNN@?$CIisiii?$CJ@			; `string'
PUBLIC	??_C@_0BJ@KPLGBCOI@BINARY_ExtOpenBattlePass@	; `string'
PUBLIC	??_C@_0BP@PGDGPOEE@BINARY_ExtBattlePassAddMission@ ; `string'
PUBLIC	??_C@_0CD@IHEKJBDA@BINARY_ExtBattlePassAddGeneralI@ ; `string'
PUBLIC	??_C@_0CF@HFDLNGAK@BINARY_ExtBattlePassAddMissionR@ ; `string'
PUBLIC	??_C@_08POCOFCP@?$CIiiiiii?$CJ@			; `string'
PUBLIC	??_C@_0BL@PLBCADOJ@BINARY_ExtBattlePassUpdate@	; `string'
PUBLIC	??_C@_0BO@DPJBNDFI@BINARY_ExtBattlePassAddReward@ ; `string'
PUBLIC	??_C@_0CF@LFILOFIH@BINARY_ExtBattlePassAddRanklist@ ; `string'
PUBLIC	??_C@_07JDHJAPKA@?$CIsiiii?$CJ@			; `string'
PUBLIC	??_C@_0L@FEIMNFCM@OnPickItem@			; `string'
PUBLIC	??_C@_0BP@CEPJNKNI@Recv?5PickupItemGC?5Packet?5Error@ ; `string'
PUBLIC	??_C@_0BK@PAIJGBNP@BINARY_OfflineShop_Appear@	; `string'
PUBLIC	??_C@_0BN@BIHDDAAN@BINARY_OfflineShop_Disappear@ ; `string'
PUBLIC	??_C@_07PLCKKFG@?$CIssiiL?$CJ@			; `string'
PUBLIC	??_C@_0BE@OJOJNIK@ClearOfflineShopLog@		; `string'
PUBLIC	??_C@_0BB@JDPKFGIA@StartOfflineShop@		; `string'
PUBLIC	??_C@_0O@FIBLIOMB@AppendShopLog@		; `string'
PUBLIC	??_C@_0BD@CKBDGFAP@AppendShopLogFirst@		; `string'
PUBLIC	??_C@_0P@GFOFKMCP@EndOfflineShop@		; `string'
PUBLIC	??_C@_0CA@DIOIFDKL@cannot?5recv?5TPacketGCLocaleChat@ ; `string'
PUBLIC	??_C@_0ED@NCBMNIGH@CPythonNetworkStream?3?3RecvOffli@ ; `string'
PUBLIC	??_C@_01IPJKGB@?$CD@				; `string'
PUBLIC	??_C@_0CI@FEBCCMLC@cannot?5recv?5TPacketGCLocaleChat@ ; `string'
PUBLIC	??_C@_0CD@HEMCAFOL@cannot?5recv?5TPacketGCLocaleWhis@ ; `string'
PUBLIC	??_C@_0FI@ECPDNIMN@CPythonNetworkStream?3?3RecvLocal@ ; `string'
PUBLIC	??_C@_0FM@NEJOJADH@CPythonNetworkStream?3?3RecvLocal@ ; `string'
PUBLIC	??_C@_0CL@GLOKBMK@cannot?5recv?5TPacketGCLocaleWhis@ ; `string'
PUBLIC	??_C@_09PJIJGDAO@?$CIsissiiL?$CJ@		; `string'
PUBLIC	??_C@_0CF@GLNDKFNM@SendQuestInputLongStringPacket?5@ ; `string'
PUBLIC	??_C@_03IGPLEMHN@?$CIL?$CJ@			; `string'
PUBLIC	??_C@_0BC@IJDMOEME@ItemShopAppendLog@		; `string'
PUBLIC	??_C@_0BE@JDDKCGAL@ItemShopHideLoading@		; `string'
PUBLIC	??_C@_0BG@OOMLLNJN@ItemShopSetDragonCoin@	; `string'
PUBLIC	??_C@_0BI@CLAAHGPI@ItemShopPurchasesWindow@	; `string'
PUBLIC	??_C@_0BB@BGMENNHD@ItemShopLogClear@		; `string'
PUBLIC	??_C@_0BD@GDBEBOMM@ItemShopUpdateItem@		; `string'
PUBLIC	??_C@_0M@BMALJCEL@?$CIiiLiiiiLi?$CJ@		; `string'
PUBLIC	??_C@_0BF@DOLACIJP@ItemShopOpenMainPage@	; `string'
PUBLIC	??_C@_0O@ENIGHLKL@ItemShopClear@		; `string'
PUBLIC	??_C@_0BD@KPKECH@ItemShopAppendItem@		; `string'
PUBLIC	??_C@_0O@GKPIGACE@?$CIiiiiLiiiiLi?$CJ@		; `string'
PUBLIC	??_C@_0BM@OGOFPMAB@AURA_SUBHEADER_GC_OPENCLOSE@	; `string'
PUBLIC	??_C@_0CA@JDBAIMNA@Aura?5Packet?5Error?5SubHeader?5?$CFu?6@ ; `string'
PUBLIC	??_C@_0P@IPOPFKPE@AuraWindowOpen@		; `string'
PUBLIC	??_C@_1KM@JOEFGNLC@?$AAi?$AAP?$AAa?$AAc?$AAk?$AAe?$AAt?$AAS?$AAi?$AAz?$AAe?$AA?5?$AA?$CF?$AA?5?$AAs@ ; `string'
PUBLIC	??_C@_0CC@GIFMNGP@?5RecvAuraPacket?5Error?50x04100?$CFu@ ; `string'
PUBLIC	??_C@_0BA@LEECMAC@AuraWindowClose@		; `string'
PUBLIC	??_C@_1KG@DCLGBDLM@?$AAi?$AAP?$AAa?$AAc?$AAk?$AAe?$AAt?$AAS?$AAi?$AAz?$AAe?$AA?5?$AA?$CF?$AA?5?$AAs@ ; `string'
PUBLIC	??_C@_0BL@PBFBKAOG@AURA_SUBHEADER_GC_SET_ITEM@	; `string'
PUBLIC	??_C@_0BN@KDIIPDOE@AURA_SUBHEADER_GC_CLEAR_SLOT@ ; `string'
PUBLIC	??_C@_0CC@IIFPMOBB@?5RecvAuraPacket?5Error?50x040?$CFuBA@ ; `string'
PUBLIC	??_C@_0CC@DFNKCEFH@?5RecvAuraPacket?5Error?50x04FF0?$CFu@ ; `string'
PUBLIC	??_C@_1KO@CGHJMJEB@?$AAi?$AAP?$AAa?$AAc?$AAk?$AAe?$AAt?$AAS?$AAi?$AAz?$AAe?$AA?5?$AA?$CF?$AA?5?$AAs@ ; `string'
PUBLIC	??_C@_0BO@JMLMMDMB@AURA_SUBHEADER_GC_REFINE_INFO@ ; `string'
PUBLIC	??_C@_0BH@HGANNEHA@invalid?5packet?5size?5?$CFd@ ; `string'
PUBLIC	??_C@_0CB@FFPIBKON@?5RecvAuraPacket?5Error?50x04000?$CFF@ ; `string'
PUBLIC	??_C@_1LC@ODKIJNC@?$AAi?$AAP?$AAa?$AAc?$AAk?$AAe?$AAt?$AAS?$AAi?$AAz?$AAe?$AA?5?$AA?$CF?$AA?5?$AAs@ ; `string'
PUBLIC	??_C@_0BJ@LGJKNCMK@PetHatchingWindowCommand@	; `string'
PUBLIC	??_C@_0BD@MONGDJB@TPacketGCPet?5Error@		; `string'
PUBLIC	??_C@_0BA@KEOJKDCA@PetReviveResult@		; `string'
PUBLIC	??_C@_0O@NIOMGAFN@PetFeedReuslt@		; `string'
PUBLIC	??_C@_0BG@LIJDOAGF@TPacketGCPetSet?5Error@	; `string'
PUBLIC	??_C@_0BE@NBONENCI@PetWindowTypeResult@		; `string'
PUBLIC	??_C@_0BJ@BOELLMJK@TPacketGCPetDelete?5Error@	; `string'
PUBLIC	??_C@_0BP@KPFECIAI@TPacketGCPetSet?9Exchange?5Error@ ; `string'
PUBLIC	??_C@_0BO@HCDMCLMP@TPacketGCPetPointUpdate?5Error@ ; `string'
PUBLIC	??_C@_0BJ@HKIBKOCK@TPacketGCPetSummon?5Error@	; `string'
PUBLIC	??_C@_0BL@FHHPLHGN@PetNameChangeWindowCommand@	; `string'
PUBLIC	??_C@_0CD@CLOACCDF@TPacketGCPetNameChangeResult?5Er@ ; `string'
PUBLIC	??_C@_0BH@OBJGLAHC@PetAffectShowerRefresh@	; `string'
PUBLIC	??_C@_0BO@BGNPECKJ@TPacketGCPetSkillUpdate?5Error@ ; `string'
PUBLIC	??_C@_0CC@EGMAAIE@TPacketGCPetDetermineResult?5Err@ ; `string'
PUBLIC	??_C@_0CA@GPJPCBPA@TPacketGCPetSkillCooltime?5Error@ ; `string'
PUBLIC	??_C@_0CD@EPNANBIO@TPacketGCPetAttrChangeResult?5Er@ ; `string'
PUBLIC	??_C@_0BH@BEAEHPHC@PetAttrDetermineResult@	; `string'
PUBLIC	??_C@_0DJ@CNNJDCIO@CPythonNetworkStream?3?3SendChang@ ; `string'
PUBLIC	??_C@_0BE@DAFOFION@PetAttrChangeResult@		; `string'
PUBLIC	??_C@_0EF@EJNDCKHL@CPythonNetworkStream?3?3SendChang@ ; `string'
PUBLIC	??_C@_0DK@JJLAABAO@CPythonNetworkStream?3?3SendChang@ ; `string'
PUBLIC	??_C@_0DI@HHPCBDAD@CPythonNetworkStream?3?3SendChang@ ; `string'
PUBLIC	??_C@_0EG@KAOGNGKN@CPythonNetworkStream?3?3SendChang@ ; `string'
PUBLIC	??_C@_0DH@EAEKOFH@?5?$DO?$DO?5CPythonNetworkStream?3?3RecvC@ ; `string'
PUBLIC	??_C@_0DI@IKICKLNN@CPythonNetworkStream?3?3SendChang@ ; `string'
PUBLIC	??_C@_0N@HFJLOJEB@?$CIiiiiiiiiii?$CJ@		; `string'
PUBLIC	??_C@_0DL@NAOEIGOO@?5?$DO?$DO?5CPythonNetworkStream?3?3RecvC@ ; `string'
PUBLIC	??_C@_0BP@LLENDBAH@BINARY_OpenHuntingWindowSelect@ ; `string'
PUBLIC	??_C@_0BN@HOIMFJKN@BINARY_OpenHuntingWindowMain@ ; `string'
PUBLIC	??_C@_0BM@CJKGCNIF@BINARY_UpdateHuntingMission@	; `string'
PUBLIC	??_C@_0BP@NCEONAGB@BINARY_OpenHuntingWindowReward@ ; `string'
PUBLIC	??_C@_0CJ@NFDBLEKK@CPythonNetworkStream?3?3MountUpGr@ ; `string'
PUBLIC	??_C@_0BP@ILPDJJCK@BINARY_HuntingReciveRandomItem@ ; `string'
PUBLIC	??_C@_0BB@LNBBFIDG@OpenMountUpGrade@		; `string'
PUBLIC	??_C@_0BL@JFMMDOKL@RecvOpenMountUpGrade?5Error@	; `string'
PUBLIC	??_C@_0BL@NJPJIHO@RecvMountUpGradeChat?5Error@	; `string'
PUBLIC	??_C@_0DN@IIDLKNPF@CPythonNetworkStream?3?3RecvMount@ ; `string'
PUBLIC	?ms_singleton@?$CSingleton@VCPythonSwitchbot@@@@0PAVCPythonSwitchbot@@A ; CSingleton<CPythonSwitchbot>::ms_singleton
PUBLIC	?ms_singleton@?$CSingleton@VCPythonQuest@@@@0PAVCPythonQuest@@A ; CSingleton<CPythonQuest>::ms_singleton
PUBLIC	?ms_singleton@?$CSingleton@VCPythonPrivateShopSearch@@@@0PAVCPythonPrivateShopSearch@@A ; CSingleton<CPythonPrivateShopSearch>::ms_singleton
PUBLIC	?_Min_buckets@?$_Hash@V?$_Umap_traits@V?$basic_string@DU?$char_traits@D@std@@V?$allocator@D@2@@std@@V12@V?$_Uhash_compare@V?$basic_string@DU?$char_traits@D@std@@V?$allocator@D@2@@std@@U?$hash@V?$basic_string@DU?$char_traits@D@std@@V?$allocator@D@2@@std@@@2@U?$equal_to@V?$basic_string@DU?$char_traits@D@std@@V?$allocator@D@2@@std@@@2@@2@V?$allocator@U?$pair@$$CBV?$basic_string@DU?$char_traits@D@std@@V?$allocator@D@2@@std@@V12@@std@@@2@$0A@@std@@@std@@2IB ; std::_Hash<std::_Umap_traits<std::basic_string<char,std::char_traits<char>,std::allocator<char> >,std::basic_string<char,std::char_traits<char>,std::allocator<char> >,std::_Uhash_compare<std::basic_string<char,std::char_traits<char>,std::allocator<char> >,std::hash<std::basic_string<char,std::char_traits<char>,std::allocator<char> > >,std::equal_to<std::basic_string<char,std::char_traits<char>,std::allocator<char> > > >,std::allocator<std::pair<std::basic_string<char,std::char_traits<char>,std::allocator<char> > const ,std::basic_string<char,std::char_traits<char>,std::allocator<char> > > >,0> >::_Min_buckets
PUBLIC	?DiscordClientID@Discord@@3QBDB			; Discord::DiscordClientID
EXTRN	_strtok:PROC
EXTRN	?CreateIndexedFly@CFlyingManager@@QAEXKPAVCActorInstance@@0@Z:PROC ; CFlyingManager::CreateIndexedFly
EXTRN	__imp__PyTuple_New:PROC
EXTRN	__imp__PyTuple_SetItem:PROC
EXTRN	?Send@CNetworkStream@@QAE_NHPBD@Z:PROC		; CNetworkStream::Send
EXTRN	_strncmp:PROC
;	COMDAT ?ms_singleton@?$CSingleton@VCPythonSwitchbot@@@@0PAVCPythonSwitchbot@@A
_BSS	SEGMENT
?ms_singleton@?$CSingleton@VCPythonSwitchbot@@@@0PAVCPythonSwitchbot@@A DD 01H DUP (?) ; CSingleton<CPythonSwitchbot>::ms_singleton
_BSS	ENDS
;	COMDAT ?ms_singleton@?$CSingleton@VCPythonQuest@@@@0PAVCPythonQuest@@A
_BSS	SEGMENT
?ms_singleton@?$CSingleton@VCPythonQuest@@@@0PAVCPythonQuest@@A DD 01H DUP (?) ; CSingleton<CPythonQuest>::ms_singleton
_BSS	ENDS
;	COMDAT ?ms_singleton@?$CSingleton@VCPythonPrivateShopSearch@@@@0PAVCPythonPrivateShopSearch@@A
_BSS	SEGMENT
?ms_singleton@?$CSingleton@VCPythonPrivateShopSearch@@@@0PAVCPythonPrivateShopSearch@@A DD 01H DUP (?) ; CSingleton<CPythonPrivateShopSearch>::ms_singleton
_BSS	ENDS
;	COMDAT ?szFilteredChat@?1??FilterChat@@YAPBDPBD@Z@4PADA
_BSS	SEGMENT
?szFilteredChat@?1??FilterChat@@YAPBDPBD@Z@4PADA DB 0401H DUP (?) ; `FilterChat'::`2'::szFilteredChat
_BSS	ENDS
;	COMDAT ?DiscordClientID@Discord@@3QBDB
CONST	SEGMENT
?DiscordClientID@Discord@@3QBDB DD FLAT:??_C@_0BE@IJPIELF@1022848045039230976@ ; Discord::DiscordClientID
CONST	ENDS
;	COMDAT ?_Min_buckets@?$_Hash@V?$_Umap_traits@V?$basic_string@DU?$char_traits@D@std@@V?$allocator@D@2@@std@@V12@V?$_Uhash_compare@V?$basic_string@DU?$char_traits@D@std@@V?$allocator@D@2@@std@@U?$hash@V?$basic_string@DU?$char_traits@D@std@@V?$allocator@D@2@@std@@@2@U?$equal_to@V?$basic_string@DU?$char_traits@D@std@@V?$allocator@D@2@@std@@@2@@2@V?$allocator@U?$pair@$$CBV?$basic_string@DU?$char_traits@D@std@@V?$allocator@D@2@@std@@V12@@std@@@2@$0A@@std@@@std@@2IB
CONST	SEGMENT
?_Min_buckets@?$_Hash@V?$_Umap_traits@V?$basic_string@DU?$char_traits@D@std@@V?$allocator@D@2@@std@@V12@V?$_Uhash_compare@V?$basic_string@DU?$char_traits@D@std@@V?$allocator@D@2@@std@@U?$hash@V?$basic_string@DU?$char_traits@D@std@@V?$allocator@D@2@@std@@@2@U?$equal_to@V?$basic_string@DU?$char_traits@D@std@@V?$allocator@D@2@@std@@@2@@2@V?$allocator@U?$pair@$$CBV?$basic_string@DU?$char_traits@D@std@@V?$allocator@D@2@@std@@V12@@std@@@2@$0A@@std@@@std@@2IB DD 08H ; std::_Hash<std::_Umap_traits<std::basic_string<char,std::char_traits<char>,std::allocator<char> >,std::basic_string<char,std::char_traits<char>,std::allocator<char> >,std::_Uhash_compare<std::basic_string<char,std::char_traits<char>,std::allocator<char> >,std::hash<std::basic_string<char,std::char_traits<char>,std::allocator<char> > >,std::equal_to<std::basic_string<char,std::char_traits<char>,std::allocator<char> > > >,std::allocator<std::pair<std::basic_string<char,std::char_traits<char>,std::allocator<char> > const ,std::basic_string<char,std::char_traits<char>,std::allocator<char> > > >,0> >::_Min_buckets
CONST	ENDS
;	COMDAT ?str@?1??RecvScriptPacket@CPythonNetworkStream@@IAE_NXZ@4V?$basic_string@DU?$char_traits@D@std@@V?$allocator@D@2@@std@@A
_DATA	SEGMENT
?str@?1??RecvScriptPacket@CPythonNetworkStream@@IAE_NXZ@4V?$basic_string@DU?$char_traits@D@std@@V?$allocator@D@2@@std@@A DB 00H ; `CPythonNetworkStream::RecvScriptPacket'::`2'::str
	DB	00H
	DB	00H
	DB	00H
	DB	00H
	DB	00H
	DB	00H
	DB	00H
	DB	00H
	DB	00H
	DB	00H
	DB	00H
	DB	00H
	DB	00H
	DB	00H
	DB	00H
	DD	00H
	DD	0fH
_DATA	ENDS
;	COMDAT ??_C@_0DN@IIDLKNPF@CPythonNetworkStream?3?3RecvMount@
CONST	SEGMENT
??_C@_0DN@IIDLKNPF@CPythonNetworkStream?3?3RecvMount@ DB 'CPythonNetworkS'
	DB	'tream::RecvMountUpGrade invalid subHeader: %d', 00H ; `string'
CONST	ENDS
;	COMDAT ??_C@_0BL@NJPJIHO@RecvMountUpGradeChat?5Error@
CONST	SEGMENT
??_C@_0BL@NJPJIHO@RecvMountUpGradeChat?5Error@ DB 'RecvMountUpGradeChat E'
	DB	'rror', 00H					; `string'
CONST	ENDS
;	COMDAT ??_C@_0BL@JFMMDOKL@RecvOpenMountUpGrade?5Error@
CONST	SEGMENT
??_C@_0BL@JFMMDOKL@RecvOpenMountUpGrade?5Error@ DB 'RecvOpenMountUpGrade '
	DB	'Error', 00H					; `string'
CONST	ENDS
;	COMDAT ??_C@_0BB@LNBBFIDG@OpenMountUpGrade@
CONST	SEGMENT
??_C@_0BB@LNBBFIDG@OpenMountUpGrade@ DB 'OpenMountUpGrade', 00H ; `string'
CONST	ENDS
;	COMDAT ??_C@_0BP@ILPDJJCK@BINARY_HuntingReciveRandomItem@
CONST	SEGMENT
??_C@_0BP@ILPDJJCK@BINARY_HuntingReciveRandomItem@ DB 'BINARY_HuntingReci'
	DB	'veRandomItem', 00H				; `string'
CONST	ENDS
;	COMDAT ??_C@_0CJ@NFDBLEKK@CPythonNetworkStream?3?3MountUpGr@
CONST	SEGMENT
??_C@_0CJ@NFDBLEKK@CPythonNetworkStream?3?3MountUpGr@ DB 'CPythonNetworkS'
	DB	'tream::MountUpGrade Error', 00H		; `string'
CONST	ENDS
;	COMDAT ??_C@_0BP@NCEONAGB@BINARY_OpenHuntingWindowReward@
CONST	SEGMENT
??_C@_0BP@NCEONAGB@BINARY_OpenHuntingWindowReward@ DB 'BINARY_OpenHunting'
	DB	'WindowReward', 00H				; `string'
CONST	ENDS
;	COMDAT ??_C@_0BM@CJKGCNIF@BINARY_UpdateHuntingMission@
CONST	SEGMENT
??_C@_0BM@CJKGCNIF@BINARY_UpdateHuntingMission@ DB 'BINARY_UpdateHuntingM'
	DB	'ission', 00H				; `string'
CONST	ENDS
;	COMDAT ??_C@_0BN@HOIMFJKN@BINARY_OpenHuntingWindowMain@
CONST	SEGMENT
??_C@_0BN@HOIMFJKN@BINARY_OpenHuntingWindowMain@ DB 'BINARY_OpenHuntingWi'
	DB	'ndowMain', 00H				; `string'
CONST	ENDS
;	COMDAT ??_C@_0BP@LLENDBAH@BINARY_OpenHuntingWindowSelect@
CONST	SEGMENT
??_C@_0BP@LLENDBAH@BINARY_OpenHuntingWindowSelect@ DB 'BINARY_OpenHunting'
	DB	'WindowSelect', 00H				; `string'
CONST	ENDS
;	COMDAT ??_C@_0DL@NAOEIGOO@?5?$DO?$DO?5CPythonNetworkStream?3?3RecvC@
CONST	SEGMENT
??_C@_0DL@NAOEIGOO@?5?$DO?$DO?5CPythonNetworkStream?3?3RecvC@ DB ' >> CPy'
	DB	'thonNetworkStream::RecvChangeLookFreeItemDelPacket', 0aH, 00H ; `string'
CONST	ENDS
;	COMDAT ??_C@_0N@HFJLOJEB@?$CIiiiiiiiiii?$CJ@
CONST	SEGMENT
??_C@_0N@HFJLOJEB@?$CIiiiiiiiiii?$CJ@ DB '(iiiiiiiiii)', 00H ; `string'
CONST	ENDS
;	COMDAT ??_C@_0DI@IKICKLNN@CPythonNetworkStream?3?3SendChang@
CONST	SEGMENT
??_C@_0DI@IKICKLNN@CPythonNetworkStream?3?3SendChang@ DB 'CPythonNetworkS'
	DB	'tream::SendChangeLookCancelPacket Error', 0aH, 00H ; `string'
CONST	ENDS
;	COMDAT ??_C@_0DH@EAEKOFH@?5?$DO?$DO?5CPythonNetworkStream?3?3RecvC@
CONST	SEGMENT
??_C@_0DH@EAEKOFH@?5?$DO?$DO?5CPythonNetworkStream?3?3RecvC@ DB ' >> CPyt'
	DB	'honNetworkStream::RecvChangeLookItemDelPacket', 0aH, 00H ; `string'
CONST	ENDS
;	COMDAT ??_C@_0EG@KAOGNGKN@CPythonNetworkStream?3?3SendChang@
CONST	SEGMENT
??_C@_0EG@KAOGNGKN@CPythonNetworkStream?3?3SendChang@ DB 'CPythonNetworkS'
	DB	'tream::SendChangeLookCheckOutFreeYangItemPacket Error', 0aH, 00H ; `string'
CONST	ENDS
;	COMDAT ??_C@_0DI@HHPCBDAD@CPythonNetworkStream?3?3SendChang@
CONST	SEGMENT
??_C@_0DI@HHPCBDAD@CPythonNetworkStream?3?3SendChang@ DB 'CPythonNetworkS'
	DB	'tream::SendChangeLookAcceptPacket Error', 0aH, 00H ; `string'
CONST	ENDS
;	COMDAT ??_C@_0DK@JJLAABAO@CPythonNetworkStream?3?3SendChang@
CONST	SEGMENT
??_C@_0DK@JJLAABAO@CPythonNetworkStream?3?3SendChang@ DB 'CPythonNetworkS'
	DB	'tream::SendChangeLookCheckOutPacket Error', 0aH, 00H ; `string'
CONST	ENDS
;	COMDAT ??_C@_0EF@EJNDCKHL@CPythonNetworkStream?3?3SendChang@
CONST	SEGMENT
??_C@_0EF@EJNDCKHL@CPythonNetworkStream?3?3SendChang@ DB 'CPythonNetworkS'
	DB	'tream::SendChangeLookCheckInFreeYangItemPacket Error', 0aH, 00H ; `string'
CONST	ENDS
;	COMDAT ??_C@_0BE@DAFOFION@PetAttrChangeResult@
CONST	SEGMENT
??_C@_0BE@DAFOFION@PetAttrChangeResult@ DB 'PetAttrChangeResult', 00H ; `string'
CONST	ENDS
;	COMDAT ??_C@_0DJ@CNNJDCIO@CPythonNetworkStream?3?3SendChang@
CONST	SEGMENT
??_C@_0DJ@CNNJDCIO@CPythonNetworkStream?3?3SendChang@ DB 'CPythonNetworkS'
	DB	'tream::SendChangeLookCheckInPacket Error', 0aH, 00H ; `string'
CONST	ENDS
;	COMDAT ??_C@_0BH@BEAEHPHC@PetAttrDetermineResult@
CONST	SEGMENT
??_C@_0BH@BEAEHPHC@PetAttrDetermineResult@ DB 'PetAttrDetermineResult', 00H ; `string'
CONST	ENDS
;	COMDAT ??_C@_0CD@EPNANBIO@TPacketGCPetAttrChangeResult?5Er@
CONST	SEGMENT
??_C@_0CD@EPNANBIO@TPacketGCPetAttrChangeResult?5Er@ DB 'TPacketGCPetAttr'
	DB	'ChangeResult Error', 00H			; `string'
CONST	ENDS
;	COMDAT ??_C@_0CA@GPJPCBPA@TPacketGCPetSkillCooltime?5Error@
CONST	SEGMENT
??_C@_0CA@GPJPCBPA@TPacketGCPetSkillCooltime?5Error@ DB 'TPacketGCPetSkil'
	DB	'lCooltime Error', 00H			; `string'
CONST	ENDS
;	COMDAT ??_C@_0CC@EGMAAIE@TPacketGCPetDetermineResult?5Err@
CONST	SEGMENT
??_C@_0CC@EGMAAIE@TPacketGCPetDetermineResult?5Err@ DB 'TPacketGCPetDeter'
	DB	'mineResult Error', 00H			; `string'
CONST	ENDS
;	COMDAT ??_C@_0BO@BGNPECKJ@TPacketGCPetSkillUpdate?5Error@
CONST	SEGMENT
??_C@_0BO@BGNPECKJ@TPacketGCPetSkillUpdate?5Error@ DB 'TPacketGCPetSkillU'
	DB	'pdate Error', 00H				; `string'
CONST	ENDS
;	COMDAT ??_C@_0BH@OBJGLAHC@PetAffectShowerRefresh@
CONST	SEGMENT
??_C@_0BH@OBJGLAHC@PetAffectShowerRefresh@ DB 'PetAffectShowerRefresh', 00H ; `string'
CONST	ENDS
;	COMDAT ??_C@_0CD@CLOACCDF@TPacketGCPetNameChangeResult?5Er@
CONST	SEGMENT
??_C@_0CD@CLOACCDF@TPacketGCPetNameChangeResult?5Er@ DB 'TPacketGCPetName'
	DB	'ChangeResult Error', 00H			; `string'
CONST	ENDS
;	COMDAT ??_C@_0BL@FHHPLHGN@PetNameChangeWindowCommand@
CONST	SEGMENT
??_C@_0BL@FHHPLHGN@PetNameChangeWindowCommand@ DB 'PetNameChangeWindowCom'
	DB	'mand', 00H					; `string'
CONST	ENDS
;	COMDAT ??_C@_0BJ@HKIBKOCK@TPacketGCPetSummon?5Error@
CONST	SEGMENT
??_C@_0BJ@HKIBKOCK@TPacketGCPetSummon?5Error@ DB 'TPacketGCPetSummon Erro'
	DB	'r', 00H					; `string'
CONST	ENDS
;	COMDAT ??_C@_0BO@HCDMCLMP@TPacketGCPetPointUpdate?5Error@
CONST	SEGMENT
??_C@_0BO@HCDMCLMP@TPacketGCPetPointUpdate?5Error@ DB 'TPacketGCPetPointU'
	DB	'pdate Error', 00H				; `string'
CONST	ENDS
;	COMDAT ??_C@_0BP@KPFECIAI@TPacketGCPetSet?9Exchange?5Error@
CONST	SEGMENT
??_C@_0BP@KPFECIAI@TPacketGCPetSet?9Exchange?5Error@ DB 'TPacketGCPetSet-'
	DB	'Exchange Error', 00H			; `string'
CONST	ENDS
;	COMDAT ??_C@_0BJ@BOELLMJK@TPacketGCPetDelete?5Error@
CONST	SEGMENT
??_C@_0BJ@BOELLMJK@TPacketGCPetDelete?5Error@ DB 'TPacketGCPetDelete Erro'
	DB	'r', 00H					; `string'
CONST	ENDS
;	COMDAT ??_C@_0BE@NBONENCI@PetWindowTypeResult@
CONST	SEGMENT
??_C@_0BE@NBONENCI@PetWindowTypeResult@ DB 'PetWindowTypeResult', 00H ; `string'
CONST	ENDS
;	COMDAT ??_C@_0BG@LIJDOAGF@TPacketGCPetSet?5Error@
CONST	SEGMENT
??_C@_0BG@LIJDOAGF@TPacketGCPetSet?5Error@ DB 'TPacketGCPetSet Error', 00H ; `string'
CONST	ENDS
;	COMDAT ??_C@_0O@NIOMGAFN@PetFeedReuslt@
CONST	SEGMENT
??_C@_0O@NIOMGAFN@PetFeedReuslt@ DB 'PetFeedReuslt', 00H ; `string'
CONST	ENDS
;	COMDAT ??_C@_0BA@KEOJKDCA@PetReviveResult@
CONST	SEGMENT
??_C@_0BA@KEOJKDCA@PetReviveResult@ DB 'PetReviveResult', 00H ; `string'
CONST	ENDS
;	COMDAT ??_C@_0BD@MONGDJB@TPacketGCPet?5Error@
CONST	SEGMENT
??_C@_0BD@MONGDJB@TPacketGCPet?5Error@ DB 'TPacketGCPet Error', 00H ; `string'
CONST	ENDS
;	COMDAT ??_C@_0BJ@LGJKNCMK@PetHatchingWindowCommand@
CONST	SEGMENT
??_C@_0BJ@LGJKNCMK@PetHatchingWindowCommand@ DB 'PetHatchingWindowCommand'
	DB	00H						; `string'
CONST	ENDS
;	COMDAT ??_C@_1LC@ODKIJNC@?$AAi?$AAP?$AAa?$AAc?$AAk?$AAe?$AAt?$AAS?$AAi?$AAz?$AAe?$AA?5?$AA?$CF?$AA?5?$AAs@
CONST	SEGMENT
??_C@_1LC@ODKIJNC@?$AAi?$AAP?$AAa?$AAc?$AAk?$AAe?$AAt?$AAS?$AAi?$AAz?$AAe?$AA?5?$AA?$CF?$AA?5?$AAs@ DB 'i'
	DB	00H, 'P', 00H, 'a', 00H, 'c', 00H, 'k', 00H, 'e', 00H, 't', 00H
	DB	'S', 00H, 'i', 00H, 'z', 00H, 'e', 00H, ' ', 00H, '%', 00H, ' '
	DB	00H, 's', 00H, 'i', 00H, 'z', 00H, 'e', 00H, 'o', 00H, 'f', 00H
	DB	'(', 00H, 'T', 00H, 'S', 00H, 'u', 00H, 'b', 00H, 'P', 00H, 'a'
	DB	00H, 'c', 00H, 'k', 00H, 'e', 00H, 't', 00H, 'G', 00H, 'C', 00H
	DB	'A', 00H, 'u', 00H, 'r', 00H, 'a', 00H, 'R', 00H, 'e', 00H, 'f'
	DB	00H, 'i', 00H, 'n', 00H, 'e', 00H, 'I', 00H, 'n', 00H, 'f', 00H
	DB	'o', 00H, ')', 00H, ' ', 00H, '=', 00H, '=', 00H, ' ', 00H, '0'
	DB	00H, ' ', 00H, '&', 00H, '&', 00H, ' ', 00H, '"', 00H, 'A', 00H
	DB	'U', 00H, 'R', 00H, 'A', 00H, '_', 00H, 'S', 00H, 'U', 00H, 'B'
	DB	00H, 'H', 00H, 'E', 00H, 'A', 00H, 'D', 00H, 'E', 00H, 'R', 00H
	DB	'_', 00H, 'G', 00H, 'C', 00H, '_', 00H, 'R', 00H, 'E', 00H, 'F'
	DB	00H, 'I', 00H, 'N', 00H, 'E', 00H, '_', 00H, 'I', 00H, 'N', 00H
	DB	'F', 00H, 'O', 00H, '"', 00H, 00H, 00H	; `string'
CONST	ENDS
;	COMDAT ??_C@_0CB@FFPIBKON@?5RecvAuraPacket?5Error?50x04000?$CFF@
CONST	SEGMENT
??_C@_0CB@FFPIBKON@?5RecvAuraPacket?5Error?50x04000?$CFF@ DB ' RecvAuraPa'
	DB	'cket Error 0x04000%FF', 00H			; `string'
CONST	ENDS
;	COMDAT ??_C@_0BH@HGANNEHA@invalid?5packet?5size?5?$CFd@
CONST	SEGMENT
??_C@_0BH@HGANNEHA@invalid?5packet?5size?5?$CFd@ DB 'invalid packet size '
	DB	'%d', 00H					; `string'
CONST	ENDS
;	COMDAT ??_C@_0BO@JMLMMDMB@AURA_SUBHEADER_GC_REFINE_INFO@
CONST	SEGMENT
??_C@_0BO@JMLMMDMB@AURA_SUBHEADER_GC_REFINE_INFO@ DB 'AURA_SUBHEADER_GC_R'
	DB	'EFINE_INFO', 00H				; `string'
CONST	ENDS
;	COMDAT ??_C@_1KO@CGHJMJEB@?$AAi?$AAP?$AAa?$AAc?$AAk?$AAe?$AAt?$AAS?$AAi?$AAz?$AAe?$AA?5?$AA?$CF?$AA?5?$AAs@
CONST	SEGMENT
??_C@_1KO@CGHJMJEB@?$AAi?$AAP?$AAa?$AAc?$AAk?$AAe?$AAt?$AAS?$AAi?$AAz?$AAe?$AA?5?$AA?$CF?$AA?5?$AAs@ DB 'i'
	DB	00H, 'P', 00H, 'a', 00H, 'c', 00H, 'k', 00H, 'e', 00H, 't', 00H
	DB	'S', 00H, 'i', 00H, 'z', 00H, 'e', 00H, ' ', 00H, '%', 00H, ' '
	DB	00H, 's', 00H, 'i', 00H, 'z', 00H, 'e', 00H, 'o', 00H, 'f', 00H
	DB	'(', 00H, 'T', 00H, 'S', 00H, 'u', 00H, 'b', 00H, 'P', 00H, 'a'
	DB	00H, 'c', 00H, 'k', 00H, 'e', 00H, 't', 00H, 'G', 00H, 'C', 00H
	DB	'A', 00H, 'u', 00H, 'r', 00H, 'a', 00H, 'C', 00H, 'l', 00H, 'e'
	DB	00H, 'a', 00H, 'r', 00H, 'S', 00H, 'l', 00H, 'o', 00H, 't', 00H
	DB	')', 00H, ' ', 00H, '=', 00H, '=', 00H, ' ', 00H, '0', 00H, ' '
	DB	00H, '&', 00H, '&', 00H, ' ', 00H, '"', 00H, 'A', 00H, 'U', 00H
	DB	'R', 00H, 'A', 00H, '_', 00H, 'S', 00H, 'U', 00H, 'B', 00H, 'H'
	DB	00H, 'E', 00H, 'A', 00H, 'D', 00H, 'E', 00H, 'R', 00H, '_', 00H
	DB	'G', 00H, 'C', 00H, '_', 00H, 'C', 00H, 'L', 00H, 'E', 00H, 'A'
	DB	00H, 'R', 00H, '_', 00H, 'S', 00H, 'L', 00H, 'O', 00H, 'T', 00H
	DB	'"', 00H, 00H, 00H				; `string'
CONST	ENDS
;	COMDAT ??_C@_0CC@DFNKCEFH@?5RecvAuraPacket?5Error?50x04FF0?$CFu@
CONST	SEGMENT
??_C@_0CC@DFNKCEFH@?5RecvAuraPacket?5Error?50x04FF0?$CFu@ DB ' RecvAuraPa'
	DB	'cket Error 0x04FF0%uAA', 00H		; `string'
CONST	ENDS
;	COMDAT ??_C@_0CC@IIFPMOBB@?5RecvAuraPacket?5Error?50x040?$CFuBA@
CONST	SEGMENT
??_C@_0CC@IIFPMOBB@?5RecvAuraPacket?5Error?50x040?$CFuBA@ DB ' RecvAuraPa'
	DB	'cket Error 0x040%uBABE', 00H		; `string'
CONST	ENDS
;	COMDAT ??_C@_0BN@KDIIPDOE@AURA_SUBHEADER_GC_CLEAR_SLOT@
CONST	SEGMENT
??_C@_0BN@KDIIPDOE@AURA_SUBHEADER_GC_CLEAR_SLOT@ DB 'AURA_SUBHEADER_GC_CL'
	DB	'EAR_SLOT', 00H				; `string'
CONST	ENDS
;	COMDAT ??_C@_0BL@PBFBKAOG@AURA_SUBHEADER_GC_SET_ITEM@
CONST	SEGMENT
??_C@_0BL@PBFBKAOG@AURA_SUBHEADER_GC_SET_ITEM@ DB 'AURA_SUBHEADER_GC_SET_'
	DB	'ITEM', 00H					; `string'
CONST	ENDS
;	COMDAT ??_C@_1KG@DCLGBDLM@?$AAi?$AAP?$AAa?$AAc?$AAk?$AAe?$AAt?$AAS?$AAi?$AAz?$AAe?$AA?5?$AA?$CF?$AA?5?$AAs@
CONST	SEGMENT
??_C@_1KG@DCLGBDLM@?$AAi?$AAP?$AAa?$AAc?$AAk?$AAe?$AAt?$AAS?$AAi?$AAz?$AAe?$AA?5?$AA?$CF?$AA?5?$AAs@ DB 'i'
	DB	00H, 'P', 00H, 'a', 00H, 'c', 00H, 'k', 00H, 'e', 00H, 't', 00H
	DB	'S', 00H, 'i', 00H, 'z', 00H, 'e', 00H, ' ', 00H, '%', 00H, ' '
	DB	00H, 's', 00H, 'i', 00H, 'z', 00H, 'e', 00H, 'o', 00H, 'f', 00H
	DB	'(', 00H, 'T', 00H, 'S', 00H, 'u', 00H, 'b', 00H, 'P', 00H, 'a'
	DB	00H, 'c', 00H, 'k', 00H, 'e', 00H, 't', 00H, 'G', 00H, 'C', 00H
	DB	'A', 00H, 'u', 00H, 'r', 00H, 'a', 00H, 'S', 00H, 'e', 00H, 't'
	DB	00H, 'I', 00H, 't', 00H, 'e', 00H, 'm', 00H, ')', 00H, ' ', 00H
	DB	'=', 00H, '=', 00H, ' ', 00H, '0', 00H, ' ', 00H, '&', 00H, '&'
	DB	00H, ' ', 00H, '"', 00H, 'A', 00H, 'U', 00H, 'R', 00H, 'A', 00H
	DB	'_', 00H, 'S', 00H, 'U', 00H, 'B', 00H, 'H', 00H, 'E', 00H, 'A'
	DB	00H, 'D', 00H, 'E', 00H, 'R', 00H, '_', 00H, 'G', 00H, 'C', 00H
	DB	'_', 00H, 'S', 00H, 'E', 00H, 'T', 00H, '_', 00H, 'I', 00H, 'T'
	DB	00H, 'E', 00H, 'M', 00H, '"', 00H, 00H, 00H	; `string'
CONST	ENDS
;	COMDAT ??_C@_0BA@LEECMAC@AuraWindowClose@
CONST	SEGMENT
??_C@_0BA@LEECMAC@AuraWindowClose@ DB 'AuraWindowClose', 00H ; `string'
CONST	ENDS
;	COMDAT ??_C@_0CC@GIFMNGP@?5RecvAuraPacket?5Error?50x04100?$CFu@
CONST	SEGMENT
??_C@_0CC@GIFMNGP@?5RecvAuraPacket?5Error?50x04100?$CFu@ DB ' RecvAuraPac'
	DB	'ket Error 0x04100%u0F', 00H			; `string'
CONST	ENDS
;	COMDAT ??_C@_1KM@JOEFGNLC@?$AAi?$AAP?$AAa?$AAc?$AAk?$AAe?$AAt?$AAS?$AAi?$AAz?$AAe?$AA?5?$AA?$CF?$AA?5?$AAs@
CONST	SEGMENT
??_C@_1KM@JOEFGNLC@?$AAi?$AAP?$AAa?$AAc?$AAk?$AAe?$AAt?$AAS?$AAi?$AAz?$AAe?$AA?5?$AA?$CF?$AA?5?$AAs@ DB 'i'
	DB	00H, 'P', 00H, 'a', 00H, 'c', 00H, 'k', 00H, 'e', 00H, 't', 00H
	DB	'S', 00H, 'i', 00H, 'z', 00H, 'e', 00H, ' ', 00H, '%', 00H, ' '
	DB	00H, 's', 00H, 'i', 00H, 'z', 00H, 'e', 00H, 'o', 00H, 'f', 00H
	DB	'(', 00H, 'T', 00H, 'S', 00H, 'u', 00H, 'b', 00H, 'P', 00H, 'a'
	DB	00H, 'c', 00H, 'k', 00H, 'e', 00H, 't', 00H, 'G', 00H, 'C', 00H
	DB	'A', 00H, 'u', 00H, 'r', 00H, 'a', 00H, 'O', 00H, 'p', 00H, 'e'
	DB	00H, 'n', 00H, 'C', 00H, 'l', 00H, 'o', 00H, 's', 00H, 'e', 00H
	DB	')', 00H, ' ', 00H, '=', 00H, '=', 00H, ' ', 00H, '0', 00H, ' '
	DB	00H, '&', 00H, '&', 00H, ' ', 00H, '"', 00H, 'A', 00H, 'U', 00H
	DB	'R', 00H, 'A', 00H, '_', 00H, 'S', 00H, 'U', 00H, 'B', 00H, 'H'
	DB	00H, 'E', 00H, 'A', 00H, 'D', 00H, 'E', 00H, 'R', 00H, '_', 00H
	DB	'G', 00H, 'C', 00H, '_', 00H, 'O', 00H, 'P', 00H, 'E', 00H, 'N'
	DB	00H, 'C', 00H, 'L', 00H, 'O', 00H, 'S', 00H, 'E', 00H, '"', 00H
	DB	00H, 00H					; `string'
CONST	ENDS
;	COMDAT ??_C@_0P@IPOPFKPE@AuraWindowOpen@
CONST	SEGMENT
??_C@_0P@IPOPFKPE@AuraWindowOpen@ DB 'AuraWindowOpen', 00H ; `string'
CONST	ENDS
;	COMDAT ??_C@_0CA@JDBAIMNA@Aura?5Packet?5Error?5SubHeader?5?$CFu?6@
CONST	SEGMENT
??_C@_0CA@JDBAIMNA@Aura?5Packet?5Error?5SubHeader?5?$CFu?6@ DB 'Aura Pack'
	DB	'et Error SubHeader %u', 0aH, 00H		; `string'
CONST	ENDS
;	COMDAT ??_C@_0BM@OGOFPMAB@AURA_SUBHEADER_GC_OPENCLOSE@
CONST	SEGMENT
??_C@_0BM@OGOFPMAB@AURA_SUBHEADER_GC_OPENCLOSE@ DB 'AURA_SUBHEADER_GC_OPE'
	DB	'NCLOSE', 00H				; `string'
CONST	ENDS
;	COMDAT ??_C@_0O@GKPIGACE@?$CIiiiiLiiiiLi?$CJ@
CONST	SEGMENT
??_C@_0O@GKPIGACE@?$CIiiiiLiiiiLi?$CJ@ DB '(iiiiLiiiiLi)', 00H ; `string'
CONST	ENDS
;	COMDAT ??_C@_0BD@KPKECH@ItemShopAppendItem@
CONST	SEGMENT
??_C@_0BD@KPKECH@ItemShopAppendItem@ DB 'ItemShopAppendItem', 00H ; `string'
CONST	ENDS
;	COMDAT ??_C@_0O@ENIGHLKL@ItemShopClear@
CONST	SEGMENT
??_C@_0O@ENIGHLKL@ItemShopClear@ DB 'ItemShopClear', 00H ; `string'
CONST	ENDS
;	COMDAT ??_C@_0BF@DOLACIJP@ItemShopOpenMainPage@
CONST	SEGMENT
??_C@_0BF@DOLACIJP@ItemShopOpenMainPage@ DB 'ItemShopOpenMainPage', 00H ; `string'
CONST	ENDS
;	COMDAT ??_C@_0M@BMALJCEL@?$CIiiLiiiiLi?$CJ@
CONST	SEGMENT
??_C@_0M@BMALJCEL@?$CIiiLiiiiLi?$CJ@ DB '(iiLiiiiLi)', 00H ; `string'
CONST	ENDS
;	COMDAT ??_C@_0BD@GDBEBOMM@ItemShopUpdateItem@
CONST	SEGMENT
??_C@_0BD@GDBEBOMM@ItemShopUpdateItem@ DB 'ItemShopUpdateItem', 00H ; `string'
CONST	ENDS
;	COMDAT ??_C@_0BB@BGMENNHD@ItemShopLogClear@
CONST	SEGMENT
??_C@_0BB@BGMENNHD@ItemShopLogClear@ DB 'ItemShopLogClear', 00H ; `string'
CONST	ENDS
;	COMDAT ??_C@_0BI@CLAAHGPI@ItemShopPurchasesWindow@
CONST	SEGMENT
??_C@_0BI@CLAAHGPI@ItemShopPurchasesWindow@ DB 'ItemShopPurchasesWindow', 00H ; `string'
CONST	ENDS
;	COMDAT ??_C@_0BG@OOMLLNJN@ItemShopSetDragonCoin@
CONST	SEGMENT
??_C@_0BG@OOMLLNJN@ItemShopSetDragonCoin@ DB 'ItemShopSetDragonCoin', 00H ; `string'
CONST	ENDS
;	COMDAT ??_C@_0BE@JDDKCGAL@ItemShopHideLoading@
CONST	SEGMENT
??_C@_0BE@JDDKCGAL@ItemShopHideLoading@ DB 'ItemShopHideLoading', 00H ; `string'
CONST	ENDS
;	COMDAT ??_C@_0BC@IJDMOEME@ItemShopAppendLog@
CONST	SEGMENT
??_C@_0BC@IJDMOEME@ItemShopAppendLog@ DB 'ItemShopAppendLog', 00H ; `string'
CONST	ENDS
;	COMDAT ??_C@_03IGPLEMHN@?$CIL?$CJ@
CONST	SEGMENT
??_C@_03IGPLEMHN@?$CIL?$CJ@ DB '(L)', 00H		; `string'
CONST	ENDS
;	COMDAT ??_C@_0CF@GLNDKFNM@SendQuestInputLongStringPacket?5@
CONST	SEGMENT
??_C@_0CF@GLNDKFNM@SendQuestInputLongStringPacket?5@ DB 'SendQuestInputLo'
	DB	'ngStringPacket Error', 00H			; `string'
CONST	ENDS
;	COMDAT ??_C@_09PJIJGDAO@?$CIsissiiL?$CJ@
CONST	SEGMENT
??_C@_09PJIJGDAO@?$CIsissiiL?$CJ@ DB '(sissiiL)', 00H	; `string'
CONST	ENDS
;	COMDAT ??_C@_0CL@GLOKBMK@cannot?5recv?5TPacketGCLocaleWhis@
CONST	SEGMENT
??_C@_0CL@GLOKBMK@cannot?5recv?5TPacketGCLocaleWhis@ DB 'cannot recv TPac'
	DB	'ketGCLocaleWhisper size %d', 00H		; `string'
CONST	ENDS
;	COMDAT ??_C@_0FM@NEJOJADH@CPythonNetworkStream?3?3RecvLocal@
CONST	SEGMENT
??_C@_0FM@NEJOJADH@CPythonNetworkStream?3?3RecvLocal@ DB 'CPythonNetworkS'
	DB	'tream::RecvLocaleWhishperPacket not all the arguments convert'
	DB	'ed for id (%u).', 00H			; `string'
CONST	ENDS
;	COMDAT ??_C@_0FI@ECPDNIMN@CPythonNetworkStream?3?3RecvLocal@
CONST	SEGMENT
??_C@_0FI@ECPDNIMN@CPythonNetworkStream?3?3RecvLocal@ DB 'CPythonNetworkS'
	DB	'tream::RecvLocaleChatPacket not all the arguments converted f'
	DB	'or id (%u).', 00H				; `string'
CONST	ENDS
;	COMDAT ??_C@_0CD@HEMCAFOL@cannot?5recv?5TPacketGCLocaleWhis@
CONST	SEGMENT
??_C@_0CD@HEMCAFOL@cannot?5recv?5TPacketGCLocaleWhis@ DB 'cannot recv TPa'
	DB	'cketGCLocaleWhisper', 00H			; `string'
CONST	ENDS
;	COMDAT ??_C@_0CI@FEBCCMLC@cannot?5recv?5TPacketGCLocaleChat@
CONST	SEGMENT
??_C@_0CI@FEBCCMLC@cannot?5recv?5TPacketGCLocaleChat@ DB 'cannot recv TPa'
	DB	'cketGCLocaleChat size %d', 00H		; `string'
CONST	ENDS
;	COMDAT ??_C@_01IPJKGB@?$CD@
CONST	SEGMENT
??_C@_01IPJKGB@?$CD@ DB '#', 00H			; `string'
CONST	ENDS
;	COMDAT ??_C@_0ED@NCBMNIGH@CPythonNetworkStream?3?3RecvOffli@
CONST	SEGMENT
??_C@_0ED@NCBMNIGH@CPythonNetworkStream?3?3RecvOffli@ DB 'CPythonNetworkS'
	DB	'tream::RecvOfflineShopPacket: Unknown subheader %d', 0aH, 00H ; `string'
CONST	ENDS
;	COMDAT ??_C@_0CA@DIOIFDKL@cannot?5recv?5TPacketGCLocaleChat@
CONST	SEGMENT
??_C@_0CA@DIOIFDKL@cannot?5recv?5TPacketGCLocaleChat@ DB 'cannot recv TPa'
	DB	'cketGCLocaleChat', 00H			; `string'
CONST	ENDS
;	COMDAT ??_C@_0P@GFOFKMCP@EndOfflineShop@
CONST	SEGMENT
??_C@_0P@GFOFKMCP@EndOfflineShop@ DB 'EndOfflineShop', 00H ; `string'
CONST	ENDS
;	COMDAT ??_C@_0BD@CKBDGFAP@AppendShopLogFirst@
CONST	SEGMENT
??_C@_0BD@CKBDGFAP@AppendShopLogFirst@ DB 'AppendShopLogFirst', 00H ; `string'
CONST	ENDS
;	COMDAT ??_C@_0O@FIBLIOMB@AppendShopLog@
CONST	SEGMENT
??_C@_0O@FIBLIOMB@AppendShopLog@ DB 'AppendShopLog', 00H ; `string'
CONST	ENDS
;	COMDAT ??_C@_0BB@JDPKFGIA@StartOfflineShop@
CONST	SEGMENT
??_C@_0BB@JDPKFGIA@StartOfflineShop@ DB 'StartOfflineShop', 00H ; `string'
CONST	ENDS
;	COMDAT ??_C@_0BE@OJOJNIK@ClearOfflineShopLog@
CONST	SEGMENT
??_C@_0BE@OJOJNIK@ClearOfflineShopLog@ DB 'ClearOfflineShopLog', 00H ; `string'
CONST	ENDS
;	COMDAT ??_C@_07PLCKKFG@?$CIssiiL?$CJ@
CONST	SEGMENT
??_C@_07PLCKKFG@?$CIssiiL?$CJ@ DB '(ssiiL)', 00H	; `string'
CONST	ENDS
;	COMDAT ??_C@_0BN@BIHDDAAN@BINARY_OfflineShop_Disappear@
CONST	SEGMENT
??_C@_0BN@BIHDDAAN@BINARY_OfflineShop_Disappear@ DB 'BINARY_OfflineShop_D'
	DB	'isappear', 00H				; `string'
CONST	ENDS
;	COMDAT ??_C@_0BK@PAIJGBNP@BINARY_OfflineShop_Appear@
CONST	SEGMENT
??_C@_0BK@PAIJGBNP@BINARY_OfflineShop_Appear@ DB 'BINARY_OfflineShop_Appe'
	DB	'ar', 00H					; `string'
CONST	ENDS
;	COMDAT ??_C@_0BP@CEPJNKNI@Recv?5PickupItemGC?5Packet?5Error@
CONST	SEGMENT
??_C@_0BP@CEPJNKNI@Recv?5PickupItemGC?5Packet?5Error@ DB 'Recv PickupItem'
	DB	'GC Packet Error', 00H			; `string'
CONST	ENDS
;	COMDAT ??_C@_0L@FEIMNFCM@OnPickItem@
CONST	SEGMENT
??_C@_0L@FEIMNFCM@OnPickItem@ DB 'OnPickItem', 00H	; `string'
CONST	ENDS
;	COMDAT ??_C@_07JDHJAPKA@?$CIsiiii?$CJ@
CONST	SEGMENT
??_C@_07JDHJAPKA@?$CIsiiii?$CJ@ DB '(siiii)', 00H	; `string'
CONST	ENDS
;	COMDAT ??_C@_0CF@LFILOFIH@BINARY_ExtBattlePassAddRanklist@
CONST	SEGMENT
??_C@_0CF@LFILOFIH@BINARY_ExtBattlePassAddRanklist@ DB 'BINARY_ExtBattleP'
	DB	'assAddRanklistEntry', 00H			; `string'
CONST	ENDS
;	COMDAT ??_C@_0BO@DPJBNDFI@BINARY_ExtBattlePassAddReward@
CONST	SEGMENT
??_C@_0BO@DPJBNDFI@BINARY_ExtBattlePassAddReward@ DB 'BINARY_ExtBattlePas'
	DB	'sAddReward', 00H				; `string'
CONST	ENDS
;	COMDAT ??_C@_0BL@PLBCADOJ@BINARY_ExtBattlePassUpdate@
CONST	SEGMENT
??_C@_0BL@PLBCADOJ@BINARY_ExtBattlePassUpdate@ DB 'BINARY_ExtBattlePassUp'
	DB	'date', 00H					; `string'
CONST	ENDS
;	COMDAT ??_C@_08POCOFCP@?$CIiiiiii?$CJ@
CONST	SEGMENT
??_C@_08POCOFCP@?$CIiiiiii?$CJ@ DB '(iiiiii)', 00H	; `string'
CONST	ENDS
;	COMDAT ??_C@_0CF@HFDLNGAK@BINARY_ExtBattlePassAddMissionR@
CONST	SEGMENT
??_C@_0CF@HFDLNGAK@BINARY_ExtBattlePassAddMissionR@ DB 'BINARY_ExtBattleP'
	DB	'assAddMissionReward', 00H			; `string'
CONST	ENDS
;	COMDAT ??_C@_0CD@IHEKJBDA@BINARY_ExtBattlePassAddGeneralI@
CONST	SEGMENT
??_C@_0CD@IHEKJBDA@BINARY_ExtBattlePassAddGeneralI@ DB 'BINARY_ExtBattleP'
	DB	'assAddGeneralInfo', 00H			; `string'
CONST	ENDS
;	COMDAT ??_C@_0BP@PGDGPOEE@BINARY_ExtBattlePassAddMission@
CONST	SEGMENT
??_C@_0BP@PGDGPOEE@BINARY_ExtBattlePassAddMission@ DB 'BINARY_ExtBattlePa'
	DB	'ssAddMission', 00H				; `string'
CONST	ENDS
;	COMDAT ??_C@_0BJ@KPLGBCOI@BINARY_ExtOpenBattlePass@
CONST	SEGMENT
??_C@_0BJ@KPLGBCOI@BINARY_ExtOpenBattlePass@ DB 'BINARY_ExtOpenBattlePass'
	DB	00H						; `string'
CONST	ENDS
;	COMDAT ??_C@_07PCJKONNN@?$CIisiii?$CJ@
CONST	SEGMENT
??_C@_07PCJKONNN@?$CIisiii?$CJ@ DB '(isiii)', 00H	; `string'
CONST	ENDS
;	COMDAT ??_C@_0CL@OLFDLPNC@SendExtBattlePassAction?5Send?5Pa@
CONST	SEGMENT
??_C@_0CL@OLFDLPNC@SendExtBattlePassAction?5Send?5Pa@ DB 'SendExtBattlePa'
	DB	'ssAction Send Packet Error', 0aH, 00H	; `string'
CONST	ENDS
;	COMDAT ??_C@_0DA@JIEBFEAB@SendExtBattlePassPremiumItem?5Se@
CONST	SEGMENT
??_C@_0DA@JIEBFEAB@SendExtBattlePassPremiumItem?5Se@ DB 'SendExtBattlePas'
	DB	'sPremiumItem Send Packet Error', 0aH, 00H	; `string'
CONST	ENDS
;	COMDAT ??_C@_0BI@IPPODIFN@BINARY_CloseInGameEvent@
CONST	SEGMENT
??_C@_0BI@IPPODIFN@BINARY_CloseInGameEvent@ DB 'BINARY_CloseInGameEvent', 00H ; `string'
CONST	ENDS
;	COMDAT ??_C@_0BM@IIHINANN@SendRequestEventQuest?5Error@
CONST	SEGMENT
??_C@_0BM@IIHINANN@SendRequestEventQuest?5Error@ DB 'SendRequestEventQues'
	DB	't Error', 00H				; `string'
CONST	ENDS
;	COMDAT ??_C@_0BH@MAOBEALI@BINARY_OpenInGameEvent@
CONST	SEGMENT
??_C@_0BH@MAOBEALI@BINARY_OpenInGameEvent@ DB 'BINARY_OpenInGameEvent', 00H ; `string'
CONST	ENDS
;	COMDAT ??_C@_0EB@JNHIBBGC@CPythonNetworkStream?3?3RecvEvent@
CONST	SEGMENT
??_C@_0EB@JNHIBBGC@CPythonNetworkStream?3?3RecvEvent@ DB 'CPythonNetworkS'
	DB	'tream::RecvEventReload TPacketGCEventReload Error', 00H ; `string'
CONST	ENDS
;	COMDAT ??_C@_0EE@ICMLPME@CPythonNetworkStream?3?3RecvEvent@
CONST	SEGMENT
??_C@_0EE@ICMLPME@CPythonNetworkStream?3?3RecvEvent@ DB 'CPythonNetworkSt'
	DB	'ream::RecvEventInformation TPacketGCEventInfo Error', 00H ; `string'
CONST	ENDS
;	COMDAT ??_C@_0EC@IOBEGFIA@CPythonNetworkStream?3?3RecvEvent@
CONST	SEGMENT
??_C@_0EC@IOBEGFIA@CPythonNetworkStream?3?3RecvEvent@ DB 'CPythonNetworkS'
	DB	'tream::RecvEventInformation TPacketEventData Error', 00H ; `string'
CONST	ENDS
;	COMDAT ??_C@_0CH@NIBHINNJ@Send?5SendRequestEventData?5Packe@
CONST	SEGMENT
??_C@_0CH@NIBHINNJ@Send?5SendRequestEventData?5Packe@ DB 'Send SendReques'
	DB	'tEventData Packet Error', 00H		; `string'
CONST	ENDS
;	COMDAT ??_C@_0BG@NNKLBCNL@SendRequestEventData?6@
CONST	SEGMENT
??_C@_0BG@NNKLBCNL@SendRequestEventData?6@ DB 'SendRequestEventData', 0aH
	DB	00H						; `string'
CONST	ENDS
;	COMDAT ??_C@_0BI@CPCNIMCA@BINARY_AddChestDropInfo@
CONST	SEGMENT
??_C@_0BI@CPCNIMCA@BINARY_AddChestDropInfo@ DB 'BINARY_AddChestDropInfo', 00H ; `string'
CONST	ENDS
;	COMDAT ??_C@_0BM@OMNILKOH@BINARY_RefreshChestDropInfo@
CONST	SEGMENT
??_C@_0BM@OMNILKOH@BINARY_RefreshChestDropInfo@ DB 'BINARY_RefreshChestDr'
	DB	'opInfo', 00H				; `string'
CONST	ENDS
;	COMDAT ??_C@_0BK@FMPPPLPC@BINARY_BiologManagerAlert@
CONST	SEGMENT
??_C@_0BK@FMPPPLPC@BINARY_BiologManagerAlert@ DB 'BINARY_BiologManagerAle'
	DB	'rt', 00H					; `string'
CONST	ENDS
;	COMDAT ??_C@_0BK@CMJBPDLK@BINARY_BiologManagerClose@
CONST	SEGMENT
??_C@_0BK@CMJBPDLK@BINARY_BiologManagerClose@ DB 'BINARY_BiologManagerClo'
	DB	'se', 00H					; `string'
CONST	ENDS
;	COMDAT ??_C@_0BL@NDCMFINF@BINARY_BiologManagerUpdate@
CONST	SEGMENT
??_C@_0BL@NDCMFINF@BINARY_BiologManagerUpdate@ DB 'BINARY_BiologManagerUp'
	DB	'date', 00H					; `string'
CONST	ENDS
;	COMDAT ??_C@_0BJ@FIHBEIIF@BINARY_BiologManagerOpen@
CONST	SEGMENT
??_C@_0BJ@FIHBEIIF@BINARY_BiologManagerOpen@ DB 'BINARY_BiologManagerOpen'
	DB	00H						; `string'
CONST	ENDS
;	COMDAT ??_C@_0CL@ELFPAKJO@SendBiologManagerAction?5Send?5Pa@
CONST	SEGMENT
??_C@_0CL@ELFPAKJO@SendBiologManagerAction?5Send?5Pa@ DB 'SendBiologManag'
	DB	'erAction Send Packet Error', 0aH, 00H	; `string'
CONST	ENDS
;	COMDAT ??_C@_0BI@EOELCKK@RecvBiologManager?5Error@
CONST	SEGMENT
??_C@_0BI@EOELCKK@RecvBiologManager?5Error@ DB 'RecvBiologManager Error', 00H ; `string'
CONST	ENDS
;	COMDAT ??_C@_09LKAOGKCC@AlertAcce@
CONST	SEGMENT
??_C@_09LKAOGKCC@AlertAcce@ DB 'AlertAcce', 00H		; `string'
CONST	ENDS
;	COMDAT ??_C@_0DN@BMMMAEFK@CPythonNetworkStream?3?3RecvAcceP@
CONST	SEGMENT
??_C@_0DN@BMMMAEFK@CPythonNetworkStream?3?3RecvAcceP@ DB 'CPythonNetworkS'
	DB	'tream::RecvAccePacket: unknown subheader %d', 0aH, '.', 00H ; `string'
CONST	ENDS
;	COMDAT ??_C@_07ELBMDIMF@ActAcce@
CONST	SEGMENT
??_C@_07ELBMDIMF@ActAcce@ DB 'ActAcce', 00H		; `string'
CONST	ENDS
;	COMDAT ??_C@_03LECICHJH@?$CIb?$CJ@
CONST	SEGMENT
??_C@_03LECICHJH@?$CIb?$CJ@ DB '(b)', 00H		; `string'
CONST	ENDS
;	COMDAT ??_C@_0BJ@GAIALHHF@BINARY_CUBE_RENEWAL_OPEN@
CONST	SEGMENT
??_C@_0BJ@GAIALHHF@BINARY_CUBE_RENEWAL_OPEN@ DB 'BINARY_CUBE_RENEWAL_OPEN'
	DB	00H						; `string'
CONST	ENDS
;	COMDAT ??_C@_04IBFHFEAL@?$CIib?$CJ@
CONST	SEGMENT
??_C@_04IBFHFEAL@?$CIib?$CJ@ DB '(ib)', 00H		; `string'
CONST	ENDS
;	COMDAT ??_C@_0DB@LAJGAGJ@CPythonNetworkStream?3?3CubeRenew@
CONST	SEGMENT
??_C@_0DB@LAJGAGJ@CPythonNetworkStream?3?3CubeRenew@ DB 'CPythonNetworkSt'
	DB	'ream::CubeRenewalMakeItem Error', 0aH, 00H	; `string'
CONST	ENDS
;	COMDAT ??_C@_0CO@LBDKNCCH@CPythonNetworkStream?3?3CubeRenew@
CONST	SEGMENT
??_C@_0CO@LBDKNCCH@CPythonNetworkStream?3?3CubeRenew@ DB 'CPythonNetworkS'
	DB	'tream::CubeRenewalClose Error', 0aH, 00H	; `string'
CONST	ENDS
;	COMDAT ??_C@_0BH@IJBFJHPO@RefreshSwitchbotWindow@
CONST	SEGMENT
??_C@_0BH@IJBFJHPO@RefreshSwitchbotWindow@ DB 'RefreshSwitchbotWindow', 00H ; `string'
CONST	ENDS
;	COMDAT ??_C@_0BF@MNPOKFIN@RefreshSwitchbotItem@
CONST	SEGMENT
??_C@_0BF@MNPOKFIN@RefreshSwitchbotItem@ DB 'RefreshSwitchbotItem', 00H ; `string'
CONST	ENDS
;	COMDAT ??_C@_0BN@JEPOFCLN@BINARY_RequestChangeLanguage@
CONST	SEGMENT
??_C@_0BN@JEPOFCLN@BINARY_RequestChangeLanguage@ DB 'BINARY_RequestChange'
	DB	'Language', 00H				; `string'
CONST	ENDS
;	COMDAT ??_C@_0BN@OAMCODMH@BINARY_RecieveWhisperDetails@
CONST	SEGMENT
??_C@_0BN@OAMCODMH@BINARY_RecieveWhisperDetails@ DB 'BINARY_RecieveWhispe'
	DB	'rDetails', 00H				; `string'
CONST	ENDS
;	COMDAT ??_C@_0BH@KEGDJEJM@BINARY_UpdateLovePoint@
CONST	SEGMENT
??_C@_0BH@KEGDJEJM@BINARY_UpdateLovePoint@ DB 'BINARY_UpdateLovePoint', 00H ; `string'
CONST	ENDS
;	COMDAT ??_C@_0EI@GDEJNOOE@CPythonNetworkStream?3?3RecvReque@
CONST	SEGMENT
??_C@_0EI@GDEJNOOE@CPythonNetworkStream?3?3RecvReque@ DB 'CPythonNetworkS'
	DB	'tream::RecvRequestChangeLanguage - MainCharacter is NULL', 00H ; `string'
CONST	ENDS
;	COMDAT ??_C@_0BH@NJGJICND@BINARY_OpenAtlasWindow@
CONST	SEGMENT
??_C@_0BH@NJGJICND@BINARY_OpenAtlasWindow@ DB 'BINARY_OpenAtlasWindow', 00H ; `string'
CONST	ENDS
;	COMDAT ??_C@_0BB@EGDBDJKJ@BINARY_LoverInfo@
CONST	SEGMENT
??_C@_0BB@EGDBDJKJ@BINARY_LoverInfo@ DB 'BINARY_LoverInfo', 00H ; `string'
CONST	ENDS
;	COMDAT ??_C@_0BJ@DBOCKHJF@SetEquipmentDialogSocket@
CONST	SEGMENT
??_C@_0BJ@DBOCKHJF@SetEquipmentDialogSocket@ DB 'SetEquipmentDialogSocket'
	DB	00H						; `string'
CONST	ENDS
;	COMDAT ??_C@_0BH@NIIPMAGM@SetEquipmentDialogAttr@
CONST	SEGMENT
??_C@_0BH@NIIPMAGM@SetEquipmentDialogAttr@ DB 'SetEquipmentDialogAttr', 00H ; `string'
CONST	ENDS
;	COMDAT ??_C@_0BE@OLAMAMAK@OpenEquipmentDialog@
CONST	SEGMENT
??_C@_0BE@OLAMAMAK@OpenEquipmentDialog@ DB 'OpenEquipmentDialog', 00H ; `string'
CONST	ENDS
;	COMDAT ??_C@_0BH@DIEBEMHE@SetEquipmentDialogItem@
CONST	SEGMENT
??_C@_0BH@DIEBEMHE@SetEquipmentDialogItem@ DB 'SetEquipmentDialogItem', 00H ; `string'
CONST	ENDS
;	COMDAT ??_C@_0P@BNCAAKEF@RefreshChannel@
CONST	SEGMENT
??_C@_0P@BNCAAKEF@RefreshChannel@ DB 'RefreshChannel', 00H ; `string'
CONST	ENDS
;	COMDAT ??_C@_0L@MJNOPOK@SetAntiExp@
CONST	SEGMENT
??_C@_0L@MJNOPOK@SetAntiExp@ DB 'SetAntiExp', 00H	; `string'
CONST	ENDS
;	COMDAT ??_C@_0BF@DEMCFMHM@BINARY_NEW_AddAffect@
CONST	SEGMENT
??_C@_0BF@DEMCFMHM@BINARY_NEW_AddAffect@ DB 'BINARY_NEW_AddAffect', 00H ; `string'
CONST	ENDS
;	COMDAT ??_C@_0BI@NIFEGIKP@BINARY_NEW_RemoveAffect@
CONST	SEGMENT
??_C@_0BI@NIFEGIKP@BINARY_NEW_RemoveAffect@ DB 'BINARY_NEW_RemoveAffect', 00H ; `string'
CONST	ENDS
;	COMDAT ??_C@_0BH@PECFNDBA@HEADER_GC_NPC_POSITION@
CONST	SEGMENT
??_C@_0BH@PECFNDBA@HEADER_GC_NPC_POSITION@ DB 'HEADER_GC_NPC_POSITION', 00H ; `string'
CONST	ENDS
;	COMDAT ??_C@_1OG@IPJPOND@?$AAi?$AAn?$AAt?$AA?$CI?$AAk?$AAN?$AAP?$AAC?$AAP?$AAo?$AAs?$AAi?$AAt?$AAi?$AAo@
CONST	SEGMENT
??_C@_1OG@IPJPOND@?$AAi?$AAn?$AAt?$AA?$CI?$AAk?$AAN?$AAP?$AAC?$AAP?$AAo?$AAs?$AAi?$AAt?$AAi?$AAo@ DB 'i'
	DB	00H, 'n', 00H, 't', 00H, '(', 00H, 'k', 00H, 'N', 00H, 'P', 00H
	DB	'C', 00H, 'P', 00H, 'o', 00H, 's', 00H, 'i', 00H, 't', 00H, 'i'
	DB	00H, 'o', 00H, 'n', 00H, '.', 00H, 's', 00H, 'i', 00H, 'z', 00H
	DB	'e', 00H, ')', 00H, '-', 00H, 's', 00H, 'i', 00H, 'z', 00H, 'e'
	DB	00H, 'o', 00H, 'f', 00H, '(', 00H, 'k', 00H, 'N', 00H, 'P', 00H
	DB	'C', 00H, 'P', 00H, 'o', 00H, 's', 00H, 'i', 00H, 't', 00H, 'i'
	DB	00H, 'o', 00H, 'n', 00H, ')', 00H, ' ', 00H, '=', 00H, '=', 00H
	DB	' ', 00H, 'k', 00H, 'N', 00H, 'P', 00H, 'C', 00H, 'P', 00H, 'o'
	DB	00H, 's', 00H, 'i', 00H, 't', 00H, 'i', 00H, 'o', 00H, 'n', 00H
	DB	'.', 00H, 'c', 00H, 'o', 00H, 'u', 00H, 'n', 00H, 't', 00H, '*'
	DB	00H, 's', 00H, 'i', 00H, 'z', 00H, 'e', 00H, 'o', 00H, 'f', 00H
	DB	'(', 00H, 'T', 00H, 'N', 00H, 'P', 00H, 'C', 00H, 'P', 00H, 'o'
	DB	00H, 's', 00H, 'i', 00H, 't', 00H, 'i', 00H, 'o', 00H, 'n', 00H
	DB	')', 00H, ' ', 00H, '&', 00H, '&', 00H, ' ', 00H, '"', 00H, 'H'
	DB	00H, 'E', 00H, 'A', 00H, 'D', 00H, 'E', 00H, 'R', 00H, '_', 00H
	DB	'G', 00H, 'C', 00H, '_', 00H, 'N', 00H, 'P', 00H, 'C', 00H, '_'
	DB	00H, 'P', 00H, 'O', 00H, 'S', 00H, 'I', 00H, 'T', 00H, 'I', 00H
	DB	'O', 00H, 'N', 00H, '"', 00H, 00H, 00H	; `string'
CONST	ENDS
;	COMDAT ??_C@_0BN@KLPAAKFJ@AppendMaterialToRefineDialog@
CONST	SEGMENT
??_C@_0BN@KLPAAKFJ@AppendMaterialToRefineDialog@ DB 'AppendMaterialToRefi'
	DB	'neDialog', 00H				; `string'
CONST	ENDS
;	COMDAT ??_C@_07FANHMMCA@?$CIiiiii?$CJ@
CONST	SEGMENT
??_C@_07FANHMMCA@?$CIiiiii?$CJ@ DB '(iiiii)', 00H	; `string'
CONST	ENDS
;	COMDAT ??_C@_0BK@CKEFNKBC@BINARY_PrivateShop_Appear@
CONST	SEGMENT
??_C@_0BK@CKEFNKBC@BINARY_PrivateShop_Appear@ DB 'BINARY_PrivateShop_Appe'
	DB	'ar', 00H					; `string'
CONST	ENDS
;	COMDAT ??_C@_0BB@CHHJLMHC@OpenRefineDialog@
CONST	SEGMENT
??_C@_0BB@CHHJLMHC@OpenRefineDialog@ DB 'OpenRefineDialog', 00H ; `string'
CONST	ENDS
;	COMDAT ??_C@_0BB@OABOAGML@OnFishingSuccess@
CONST	SEGMENT
??_C@_0BB@OABOAGML@OnFishingSuccess@ DB 'OnFishingSuccess', 00H ; `string'
CONST	ENDS
;	COMDAT ??_C@_0BN@BEOHMMCM@BINARY_PrivateShop_Disappear@
CONST	SEGMENT
??_C@_0BN@BEOHMMCM@BINARY_PrivateShop_Disappear@ DB 'BINARY_PrivateShop_D'
	DB	'isappear', 00H				; `string'
CONST	ENDS
;	COMDAT ??_C@_0BH@DPEJLPAP@OnFishingNotifyUnknown@
CONST	SEGMENT
??_C@_0BH@DPEJLPAP@OnFishingNotifyUnknown@ DB 'OnFishingNotifyUnknown', 00H ; `string'
CONST	ENDS
;	COMDAT ??_C@_0BA@ODHDNEFK@OnFishingNotify@
CONST	SEGMENT
??_C@_0BA@ODHDNEFK@OnFishingNotify@ DB 'OnFishingNotify', 00H ; `string'
CONST	ENDS
;	COMDAT ??_C@_0BN@IAMOHDFF@?5?$DO?$DO?5Guild?5Money?5Change?5?3?5?$CFd?6@
CONST	SEGMENT
??_C@_0BN@IAMOHDFF@?5?$DO?$DO?5Guild?5Money?5Change?5?3?5?$CFd?6@ DB ' >>'
	DB	' Guild Money Change : %d', 0aH, 00H		; `string'
CONST	ENDS
;	COMDAT ??_C@_0BB@CJFMLNJB@OnFishingFailure@
CONST	SEGMENT
??_C@_0BB@CJFMLNJB@OnFishingFailure@ DB 'OnFishingFailure', 00H ; `string'
CONST	ENDS
;	COMDAT ??_C@_0CA@FNEJFGNL@?5?$DO?$DO?5GulidWarEndList?5?$FL?$CFd?5vs?5?$CFd?$FN?6@
CONST	SEGMENT
??_C@_0CA@FNEJFGNL@?5?$DO?$DO?5GulidWarEndList?5?$FL?$CFd?5vs?5?$CFd?$FN?6@ DB ' '
	DB	'>> GulidWarEndList [%d vs %d]', 0aH, 00H	; `string'
CONST	ENDS
;	COMDAT ??_C@_0BM@LBOEDDLE@BINARY_GuildWar_OnRecvPoint@
CONST	SEGMENT
??_C@_0BM@LBOEDDLE@BINARY_GuildWar_OnRecvPoint@ DB 'BINARY_GuildWar_OnRec'
	DB	'vPoint', 00H				; `string'
CONST	ENDS
;	COMDAT ??_C@_0CG@PEFHELOM@GUILD_SUBHEADER_GC_GUILD_WAR_EN@
CONST	SEGMENT
??_C@_0CG@PEFHELOM@GUILD_SUBHEADER_GC_GUILD_WAR_EN@ DB 'GUILD_SUBHEADER_G'
	DB	'C_GUILD_WAR_END_LIST', 00H			; `string'
CONST	ENDS
;	COMDAT ??_C@_1II@DPOCFKFC@?$AAi?$AAP?$AAa?$AAc?$AAk?$AAe?$AAt?$AAS?$AAi?$AAz?$AAe?$AA?$CF?$AAn?$AAI?$AAt@
CONST	SEGMENT
??_C@_1II@DPOCFKFC@?$AAi?$AAP?$AAa?$AAc?$AAk?$AAe?$AAt?$AAS?$AAi?$AAz?$AAe?$AA?$CF?$AAn?$AAI?$AAt@ DB 'i'
	DB	00H, 'P', 00H, 'a', 00H, 'c', 00H, 'k', 00H, 'e', 00H, 't', 00H
	DB	'S', 00H, 'i', 00H, 'z', 00H, 'e', 00H, '%', 00H, 'n', 00H, 'I'
	DB	00H, 't', 00H, 'e', 00H, 'm', 00H, 'S', 00H, 'i', 00H, 'z', 00H
	DB	'e', 00H, '=', 00H, '=', 00H, '0', 00H, ' ', 00H, '&', 00H, '&'
	DB	00H, ' ', 00H, '"', 00H, 'G', 00H, 'U', 00H, 'I', 00H, 'L', 00H
	DB	'D', 00H, '_', 00H, 'S', 00H, 'U', 00H, 'B', 00H, 'H', 00H, 'E'
	DB	00H, 'A', 00H, 'D', 00H, 'E', 00H, 'R', 00H, '_', 00H, 'G', 00H
	DB	'C', 00H, '_', 00H, 'G', 00H, 'U', 00H, 'I', 00H, 'L', 00H, 'D'
	DB	00H, '_', 00H, 'W', 00H, 'A', 00H, 'R', 00H, '_', 00H, 'E', 00H
	DB	'N', 00H, 'D', 00H, '_', 00H, 'L', 00H, 'I', 00H, 'S', 00H, 'T'
	DB	00H, '"', 00H, 00H, 00H			; `string'
CONST	ENDS
;	COMDAT ??_C@_1IA@KGKKPJBL@?$AAi?$AAP?$AAa?$AAc?$AAk?$AAe?$AAt?$AAS?$AAi?$AAz?$AAe?$AA?$CF?$AAn?$AAI?$AAt@
CONST	SEGMENT
??_C@_1IA@KGKKPJBL@?$AAi?$AAP?$AAa?$AAc?$AAk?$AAe?$AAt?$AAS?$AAi?$AAz?$AAe?$AA?$CF?$AAn?$AAI?$AAt@ DB 'i'
	DB	00H, 'P', 00H, 'a', 00H, 'c', 00H, 'k', 00H, 'e', 00H, 't', 00H
	DB	'S', 00H, 'i', 00H, 'z', 00H, 'e', 00H, '%', 00H, 'n', 00H, 'I'
	DB	00H, 't', 00H, 'e', 00H, 'm', 00H, 'S', 00H, 'i', 00H, 'z', 00H
	DB	'e', 00H, '=', 00H, '=', 00H, '0', 00H, ' ', 00H, '&', 00H, '&'
	DB	00H, ' ', 00H, '"', 00H, 'G', 00H, 'U', 00H, 'I', 00H, 'L', 00H
	DB	'D', 00H, '_', 00H, 'S', 00H, 'U', 00H, 'B', 00H, 'H', 00H, 'E'
	DB	00H, 'A', 00H, 'D', 00H, 'E', 00H, 'R', 00H, '_', 00H, 'G', 00H
	DB	'C', 00H, '_', 00H, 'G', 00H, 'U', 00H, 'I', 00H, 'L', 00H, 'D'
	DB	00H, '_', 00H, 'W', 00H, 'A', 00H, 'R', 00H, '_', 00H, 'L', 00H
	DB	'I', 00H, 'S', 00H, 'T', 00H, '"', 00H, 00H, 00H ; `string'
CONST	ENDS
;	COMDAT ??_C@_0BN@PIMGMDLK@?5?$DO?$DO?5GulidWarList?5?$FL?$CFd?5vs?5?$CFd?$FN?6@
CONST	SEGMENT
??_C@_0BN@PIMGMDLK@?5?$DO?$DO?5GulidWarList?5?$FL?$CFd?5vs?5?$CFd?$FN?6@ DB ' '
	DB	'>> GulidWarList [%d vs %d]', 0aH, 00H	; `string'
CONST	ENDS
;	COMDAT ??_C@_1HI@JNOBCLE@?$AAi?$AAP?$AAa?$AAc?$AAk?$AAe?$AAt?$AAS?$AAi?$AAz?$AAe?$AA?$CF?$AAn?$AAI?$AAt@
CONST	SEGMENT
??_C@_1HI@JNOBCLE@?$AAi?$AAP?$AAa?$AAc?$AAk?$AAe?$AAt?$AAS?$AAi?$AAz?$AAe?$AA?$CF?$AAn?$AAI?$AAt@ DB 'i'
	DB	00H, 'P', 00H, 'a', 00H, 'c', 00H, 'k', 00H, 'e', 00H, 't', 00H
	DB	'S', 00H, 'i', 00H, 'z', 00H, 'e', 00H, '%', 00H, 'n', 00H, 'I'
	DB	00H, 't', 00H, 'e', 00H, 'm', 00H, 'S', 00H, 'i', 00H, 'z', 00H
	DB	'e', 00H, '=', 00H, '=', 00H, '0', 00H, ' ', 00H, '&', 00H, '&'
	DB	00H, ' ', 00H, '"', 00H, 'G', 00H, 'U', 00H, 'I', 00H, 'L', 00H
	DB	'D', 00H, '_', 00H, 'S', 00H, 'U', 00H, 'B', 00H, 'H', 00H, 'E'
	DB	00H, 'A', 00H, 'D', 00H, 'E', 00H, 'R', 00H, '_', 00H, 'G', 00H
	DB	'C', 00H, '_', 00H, 'G', 00H, 'U', 00H, 'I', 00H, 'L', 00H, 'D'
	DB	00H, '_', 00H, 'N', 00H, 'A', 00H, 'M', 00H, 'E', 00H, '"', 00H
	DB	00H, 00H					; `string'
CONST	ENDS
;	COMDAT ??_C@_0CC@JOKPFJGF@GUILD_SUBHEADER_GC_GUILD_WAR_LI@
CONST	SEGMENT
??_C@_0CC@JOKPFJGF@GUILD_SUBHEADER_GC_GUILD_WAR_LI@ DB 'GUILD_SUBHEADER_G'
	DB	'C_GUILD_WAR_LIST', 00H			; `string'
CONST	ENDS
;	COMDAT ??_C@_0BG@NACAFPAN@BINARY_GuildWar_OnEnd@
CONST	SEGMENT
??_C@_0BG@NACAFPAN@BINARY_GuildWar_OnEnd@ DB 'BINARY_GuildWar_OnEnd', 00H ; `string'
CONST	ENDS
;	COMDAT ??_C@_0BO@BIGIPMO@GUILD_SUBHEADER_GC_GUILD_NAME@
CONST	SEGMENT
??_C@_0BO@BIGIPMO@GUILD_SUBHEADER_GC_GUILD_NAME@ DB 'GUILD_SUBHEADER_GC_G'
	DB	'UILD_NAME', 00H				; `string'
CONST	ENDS
;	COMDAT ??_C@_0BI@JKFNHMFD@BINARY_GuildWar_OnStart@
CONST	SEGMENT
??_C@_0BI@JKFNHMFD@BINARY_GuildWar_OnStart@ DB 'BINARY_GuildWar_OnStart', 00H ; `string'
CONST	ENDS
;	COMDAT ??_C@_0CM@HGKOKFIL@?5?$DO?$DO?5GUILD_SUBHEADER_GC_WAR?5?3?5GU@
CONST	SEGMENT
??_C@_0CM@HGKOKFIL@?5?$DO?$DO?5GUILD_SUBHEADER_GC_WAR?5?3?5GU@ DB ' >> GU'
	DB	'ILD_SUBHEADER_GC_WAR : GUILD_WAR_END', 0aH, 00H ; `string'
CONST	ENDS
;	COMDAT ??_C@_0BO@JAJLCPKG@BINARY_GuildWar_OnRecvDeclare@
CONST	SEGMENT
??_C@_0BO@JAJLCPKG@BINARY_GuildWar_OnRecvDeclare@ DB 'BINARY_GuildWar_OnR'
	DB	'ecvDeclare', 00H				; `string'
CONST	ENDS
;	COMDAT ??_C@_0DI@LOGKJDI@?5?$DO?$DO?5GUILD_SUBHEADER_GC_WAR?5?3?5GU@
CONST	SEGMENT
??_C@_0DI@LOGKJDI@?5?$DO?$DO?5GUILD_SUBHEADER_GC_WAR?5?3?5GU@ DB ' >> GUI'
	DB	'LD_SUBHEADER_GC_WAR : GUILD_WAR_ON_WAR : %d, %d', 0aH, 00H ; `string'
CONST	ENDS
;	COMDAT ??_C@_0BO@HMPGICIO@BINARY_GuildWar_OnSendDeclare@
CONST	SEGMENT
??_C@_0BO@HMPGICIO@BINARY_GuildWar_OnSendDeclare@ DB 'BINARY_GuildWar_OnS'
	DB	'endDeclare', 00H				; `string'
CONST	ENDS
;	COMDAT ??_C@_0DF@BIEEJDD@?5?$DO?$DO?5GUILD_SUBHEADER_GC_WAR?5?3?5GU@
CONST	SEGMENT
??_C@_0DF@BIEEJDD@?5?$DO?$DO?5GUILD_SUBHEADER_GC_WAR?5?3?5GU@ DB ' >> GUI'
	DB	'LD_SUBHEADER_GC_WAR : GUILD_WAR_RECV_DECLARE', 0aH, 00H ; `string'
CONST	ENDS
;	COMDAT ??_C@_0BI@EECNELJB@?5?$DMGuild?5Invite?$DO?5?$CFd?0?5?$CFs?6@
CONST	SEGMENT
??_C@_0BI@EECNELJB@?5?$DMGuild?5Invite?$DO?5?$CFd?0?5?$CFs?6@ DB ' <Guild'
	DB	' Invite> %d, %s', 0aH, 00H			; `string'
CONST	ENDS
;	COMDAT ??_C@_0DF@PELONEKB@?5?$DO?$DO?5GUILD_SUBHEADER_GC_WAR?5?3?5GU@
CONST	SEGMENT
??_C@_0DF@PELONEKB@?5?$DO?$DO?5GUILD_SUBHEADER_GC_WAR?5?3?5GU@ DB ' >> GU'
	DB	'ILD_SUBHEADER_GC_WAR : GUILD_WAR_SEND_DECLARE', 0aH, 00H ; `string'
CONST	ENDS
;	COMDAT ??_C@_0CD@MPFPDEHG@?5?$DMChangeMemberGeneralFlag?$DO?5?$CFd?0?5@
CONST	SEGMENT
??_C@_0CD@MPFPDEHG@?5?$DMChangeMemberGeneralFlag?$DO?5?$CFd?0?5@ DB ' <Ch'
	DB	'angeMemberGeneralFlag> %d, %d', 0aH, 00H	; `string'
CONST	ENDS
;	COMDAT ??_C@_0BI@GJGOAKHL@RecvGuildInviteQuestion@
CONST	SEGMENT
??_C@_0BI@GJGOAKHL@RecvGuildInviteQuestion@ DB 'RecvGuildInviteQuestion', 00H ; `string'
CONST	ENDS
;	COMDAT ??_C@_0BN@HEKKNAEA@?5?$DMChangeMemberGrade?$DO?5?$CFd?0?5?$CFd?6@
CONST	SEGMENT
??_C@_0BN@HEKKNAEA@?5?$DMChangeMemberGrade?$DO?5?$CFd?0?5?$CFd?6@ DB ' <C'
	DB	'hangeMemberGrade> %d, %d', 0aH, 00H		; `string'
CONST	ENDS
;	COMDAT ??_C@_0BK@FEHNPJOD@?5?$DMSkillInfo?$DO?5?$CFd?5?1?5?$CFd?0?5?$CFd?6@
CONST	SEGMENT
??_C@_0BK@FEHNPJOD@?5?$DMSkillInfo?$DO?5?$CFd?5?1?5?$CFd?0?5?$CFd?6@ DB ' '
	DB	'<SkillInfo> %d / %d, %d', 0aH, 00H		; `string'
CONST	ENDS
;	COMDAT ??_C@_0CC@KDHBOMAA@?5?$DMChange?5Grade?5Authority?$DO?5?$CFd?0?5?$CF@
CONST	SEGMENT
??_C@_0CC@KDHBOMAA@?5?$DMChange?5Grade?5Authority?$DO?5?$CFd?0?5?$CF@ DB ' '
	DB	'<Change Grade Authority> %d, %d', 0aH, 00H	; `string'
CONST	ENDS
;	COMDAT ??_C@_0BF@GJIHEANJ@?5?$DMChangeEXP?$DO?5?$CFd?0?5?$CFd?6@
CONST	SEGMENT
??_C@_0BF@GJIHEANJ@?5?$DMChangeEXP?$DO?5?$CFd?0?5?$CFd?6@ DB ' <ChangeEXP'
	DB	'> %d, %d', 0aH, 00H				; `string'
CONST	ENDS
;	COMDAT ??_C@_0BC@MJKOOFCD@RefreshGuildGrade@
CONST	SEGMENT
??_C@_0BC@MJKOOFCD@RefreshGuildGrade@ DB 'RefreshGuildGrade', 00H ; `string'
CONST	ENDS
;	COMDAT ??_C@_0BN@JFJPHNLH@?5?$DMChange?5Grade?5Name?$DO?5?$CFd?0?5?$CFs?6@
CONST	SEGMENT
??_C@_0BN@JFJPHNLH@?5?$DMChange?5Grade?5Name?$DO?5?$CFd?0?5?$CFs?6@ DB ' '
	DB	'<Change Grade Name> %d, %s', 0aH, 00H	; `string'
CONST	ENDS
;	COMDAT ??_C@_0M@JPGKCCFN@DeleteGuild@
CONST	SEGMENT
??_C@_0M@JPGKCCFN@DeleteGuild@ DB 'DeleteGuild', 00H	; `string'
CONST	ENDS
;	COMDAT ??_C@_0O@EGDOPDJO@?5?$DMRemove?$DO?5?$CFd?6@
CONST	SEGMENT
??_C@_0O@EGDOPDJO@?5?$DMRemove?$DO?5?$CFd?6@ DB ' <Remove> %d', 0aH, 00H ; `string'
CONST	ENDS
;	COMDAT ??_C@_0CB@OEPAEO@?5SendGuildDepositMoneyPacket?5?$CFd@
CONST	SEGMENT
??_C@_0CB@OEPAEO@?5SendGuildDepositMoneyPacket?5?$CFd@ DB ' SendGuildDepo'
	DB	'sitMoneyPacket %d', 0aH, 00H		; `string'
CONST	ENDS
;	COMDAT ??_C@_0CC@HBGAJKKF@?5SendGuildWithdrawMoneyPacket?5?$CF@
CONST	SEGMENT
??_C@_0CC@HBGAJKKF@?5SendGuildWithdrawMoneyPacket?5?$CF@ DB ' SendGuildWi'
	DB	'thdrawMoneyPacket %d', 0aH, 00H		; `string'
CONST	ENDS
;	COMDAT ??_C@_0CF@HPNCOLAE@?5SendGuildInviteAnswerPacket?5?$CFd@
CONST	SEGMENT
??_C@_0CF@HPNCOLAE@?5SendGuildInviteAnswerPacket?5?$CFd@ DB ' SendGuildIn'
	DB	'viteAnswerPacket %d, %d', 0aH, 00H		; `string'
CONST	ENDS
;	COMDAT ??_C@_0BO@DLDFHEKF@?5SendGuildChargeGSPPacket?5?$CFd?6@
CONST	SEGMENT
??_C@_0BO@DLDFHEKF@?5SendGuildChargeGSPPacket?5?$CFd?6@ DB ' SendGuildCha'
	DB	'rgeGSPPacket %d', 0aH, 00H			; `string'
CONST	ENDS
;	COMDAT ??_C@_0CB@HHLIHMFO@?5SendGuildUseSkillPacket?5?$CFd?0?5?$CFd@
CONST	SEGMENT
??_C@_0CB@HHLIHMFO@?5SendGuildUseSkillPacket?5?$CFd?0?5?$CFd@ DB ' SendGu'
	DB	'ildUseSkillPacket %d, %d', 0aH, 00H		; `string'
CONST	ENDS
;	COMDAT ??_C@_0DA@BBFAPAKJ@?5SendGuildChangeMemberGeneralFl@
CONST	SEGMENT
??_C@_0DA@BBFAPAKJ@?5SendGuildChangeMemberGeneralFl@ DB ' SendGuildChange'
	DB	'MemberGeneralFlagPacket %d, %d', 0aH, 00H	; `string'
CONST	ENDS
;	COMDAT ??_C@_0CD@DFFJJDFM@?5SendGuildRefreshCommentPacket?5@
CONST	SEGMENT
??_C@_0CD@DFFJJDFM@?5SendGuildRefreshCommentPacket?5@ DB ' SendGuildRefre'
	DB	'shCommentPacket %d', 0aH, 00H		; `string'
CONST	ENDS
;	COMDAT ??_C@_0CK@NJDDFMMG@?5SendGuildChangeMemberGradePack@
CONST	SEGMENT
??_C@_0CK@NJDDFMMG@?5SendGuildChangeMemberGradePack@ DB ' SendGuildChange'
	DB	'MemberGradePacket %d, %d', 0aH, 00H		; `string'
CONST	ENDS
;	COMDAT ??_C@_0CE@ILONPNIK@?5SendGuildPostCommentPacket?5?$CFd?0@
CONST	SEGMENT
??_C@_0CE@ILONPNIK@?5SendGuildPostCommentPacket?5?$CFd?0@ DB ' SendGuildP'
	DB	'ostCommentPacket %d, %s', 0aH, 00H		; `string'
CONST	ENDS
;	COMDAT ??_C@_0CC@HHBLBNGP@?5SendGuildDeleteCommentPacket?5?$CF@
CONST	SEGMENT
??_C@_0CC@HHBLBNGP@?5SendGuildDeleteCommentPacket?5?$CF@ DB ' SendGuildDe'
	DB	'leteCommentPacket %d', 0aH, 00H		; `string'
CONST	ENDS
;	COMDAT ??_C@_0CN@ENAPGANL@?5SendGuildChangeGradeAuthorityP@
CONST	SEGMENT
??_C@_0CN@ENAPGANL@?5SendGuildChangeGradeAuthorityP@ DB ' SendGuildChange'
	DB	'GradeAuthorityPacket %d, %d', 0aH, 00H	; `string'
CONST	ENDS
;	COMDAT ??_C@_0BK@JBHNFCGO@?5SendGuildOfferPacket?5?$CFd?6@
CONST	SEGMENT
??_C@_0BK@JBHNFCGO@?5SendGuildOfferPacket?5?$CFd?6@ DB ' SendGuildOfferPa'
	DB	'cket %d', 0aH, 00H				; `string'
CONST	ENDS
;	COMDAT ??_C@_0CB@OCJDCDKN@?5SendGuildRemoveMemberPacket?5?$CFd@
CONST	SEGMENT
??_C@_0CB@OCJDCDKN@?5SendGuildRemoveMemberPacket?5?$CFd@ DB ' SendGuildRe'
	DB	'moveMemberPacket %d', 0aH, 00H		; `string'
CONST	ENDS
;	COMDAT ??_C@_0CI@HCDCDOMK@?5SendGuildChangeGradeNamePacket@
CONST	SEGMENT
??_C@_0CI@HCDCDOMK@?5SendGuildChangeGradeNamePacket@ DB ' SendGuildChange'
	DB	'GradeNamePacket %d, %s', 0aH, 00H		; `string'
CONST	ENDS
;	COMDAT ??_C@_0BN@HDHIECAG@?5?$DO?$DO?5RecvPartyParameter?5?3?5?$CFd?6@
CONST	SEGMENT
??_C@_0BN@HDHIECAG@?5?$DO?$DO?5RecvPartyParameter?5?3?5?$CFd?6@ DB ' >> R'
	DB	'ecvPartyParameter : %d', 0aH, 00H		; `string'
CONST	ENDS
;	COMDAT ??_C@_0BL@GHDBPEKM@?5SendGuildAddMemberPacket?6@
CONST	SEGMENT
??_C@_0BL@GHDBPEKM@?5SendGuildAddMemberPacket?6@ DB ' SendGuildAddMemberP'
	DB	'acket', 0aH, 00H				; `string'
CONST	ENDS
;	COMDAT ??_C@_0BO@JOBNIIPD@?5?$DO?$DO?5RecvPartyUnlink?5?3?5?$CFd?0?5?$CFd?6@
CONST	SEGMENT
??_C@_0BO@JOBNIIPD@?5?$DO?$DO?5RecvPartyUnlink?5?3?5?$CFd?0?5?$CFd?6@ DB ' '
	DB	'>> RecvPartyUnlink : %d, %d', 0aH, 00H	; `string'
CONST	ENDS
;	COMDAT ??_C@_0BF@FFLEPOCB@ChangePartyParameter@
CONST	SEGMENT
??_C@_0BF@FFLEPOCB@ChangePartyParameter@ DB 'ChangePartyParameter', 00H ; `string'
CONST	ENDS
;	COMDAT ??_C@_0BF@KBCGJNOO@UnlinkAllPartyMember@
CONST	SEGMENT
??_C@_0BF@KBCGJNOO@UnlinkAllPartyMember@ DB 'UnlinkAllPartyMember', 00H ; `string'
CONST	ENDS
;	COMDAT ??_C@_0BC@EBBCCLIK@UnlinkPartyMember@
CONST	SEGMENT
??_C@_0BC@EBBCCLIK@UnlinkPartyMember@ DB 'UnlinkPartyMember', 00H ; `string'
CONST	ENDS
;	COMDAT ??_C@_0BA@JPJIDGOI@LinkPartyMember@
CONST	SEGMENT
??_C@_0BA@JPJIDGOI@LinkPartyMember@ DB 'LinkPartyMember', 00H ; `string'
CONST	ENDS
;	COMDAT ??_C@_0BM@FEBFPLO@?5?$DO?$DO?5RecvPartyLink?5?3?5?$CFd?0?5?$CFd?6@
CONST	SEGMENT
??_C@_0BM@FEBFPLO@?5?$DO?$DO?5RecvPartyLink?5?3?5?$CFd?0?5?$CFd?6@ DB ' >'
	DB	'> RecvPartyLink : %d, %d', 0aH, 00H		; `string'
CONST	ENDS
;	COMDAT ??_C@_0BC@DGCJFOHN@RemovePartyMember@
CONST	SEGMENT
??_C@_0BC@DGCJFOHN@RemovePartyMember@ DB 'RemovePartyMember', 00H ; `string'
CONST	ENDS
;	COMDAT ??_C@_0BK@FHNAOGNK@?5?$DO?$DO?5RecvPartyRemove?5?3?5?$CFd?6@
CONST	SEGMENT
??_C@_0BK@FHNAOGNK@?5?$DO?$DO?5RecvPartyRemove?5?3?5?$CFd?6@ DB ' >> Recv'
	DB	'PartyRemove : %d', 0aH, 00H			; `string'
CONST	ENDS
;	COMDAT ??_C@_0BL@GPMBAKEI@?5?$DO?$DO?5RecvPartyAdd?5?3?5?$CFd?0?5?$CFs?6@
CONST	SEGMENT
??_C@_0BL@GPMBAKEI@?5?$DO?$DO?5RecvPartyAdd?5?3?5?$CFd?0?5?$CFs?6@ DB ' >'
	DB	'> RecvPartyAdd : %d, %s', 0aH, 00H		; `string'
CONST	ENDS
;	COMDAT ??_C@_0BG@JOKFDABD@UpdatePartyMemberInfo@
CONST	SEGMENT
??_C@_0BG@JOKFDABD@UpdatePartyMemberInfo@ DB 'UpdatePartyMemberInfo', 00H ; `string'
CONST	ENDS
;	COMDAT ??_C@_0BO@EBDJDNJB@?5?$DO?$DO?5RecvPartyInvite?5?3?5?$CFd?0?5?$CFs?6@
CONST	SEGMENT
??_C@_0BO@EBDJDNJB@?5?$DO?$DO?5RecvPartyInvite?5?3?5?$CFd?0?5?$CFs?6@ DB ' '
	DB	'>> RecvPartyInvite : %d, %s', 0aH, 00H	; `string'
CONST	ENDS
;	COMDAT ??_C@_0P@JPKHKGNP@AddPartyMember@
CONST	SEGMENT
??_C@_0P@JPKHKGNP@AddPartyMember@ DB 'AddPartyMember', 00H ; `string'
CONST	ENDS
;	COMDAT ??_C@_0EO@GALKDEGO@?5CPythonNetworkStream?3?3RecvPart@
CONST	SEGMENT
??_C@_0EO@GALKDEGO@?5CPythonNetworkStream?3?3RecvPart@ DB ' CPythonNetwor'
	DB	'kStream::RecvPartyInvite - Failed to find leader instance [%d'
	DB	']', 0aH, 00H				; `string'
CONST	ENDS
;	COMDAT ??_C@_0BI@FPJOLEHH@RecvPartyInviteQuestion@
CONST	SEGMENT
??_C@_0BI@FPJOLEHH@RecvPartyInviteQuestion@ DB 'RecvPartyInviteQuestion', 00H ; `string'
CONST	ENDS
;	COMDAT ??_C@_0EH@IOBBPNMN@CPythonNetworkStream?3?3SendParty@
CONST	SEGMENT
??_C@_0EH@IOBBPNMN@CPythonNetworkStream?3?3SendParty@ DB 'CPythonNetworkS'
	DB	'tream::SendPartyParameterPacket(%d) - PACKET SEND ERROR', 00H ; `string'
CONST	ENDS
;	COMDAT ??_C@_0CD@LLPEDDBL@?5?$DM?$DM?5SendPartyParameterPacket?5?3?5@
CONST	SEGMENT
??_C@_0CD@LLPEDDBL@?5?$DM?$DM?5SendPartyParameterPacket?5?3?5@ DB ' << Se'
	DB	'ndPartyParameterPacket : %d', 0aH, 00H	; `string'
CONST	ENDS
;	COMDAT ??_C@_0EM@BMAFGIHC@CPythonNetworkStream?3?3SendParty@
CONST	SEGMENT
??_C@_0EM@BMAFGIHC@CPythonNetworkStream?3?3SendParty@ DB 'CPythonNetworkS'
	DB	'tream::SendPartyUseSkillPacket(%ud, %ud) - PACKET SEND ERROR', 00H ; `string'
CONST	ENDS
;	COMDAT ??_C@_0CG@GLODGHKD@?5?$DM?$DM?5SendPartyUseSkillPacket?5?3?5?$CF@
CONST	SEGMENT
??_C@_0CG@GLODGHKD@?5?$DM?$DM?5SendPartyUseSkillPacket?5?3?5?$CF@ DB ' <<'
	DB	' SendPartyUseSkillPacket : %d, %d', 0aH, 00H ; `string'
CONST	ENDS
;	COMDAT ??_C@_0EM@FFPCCHJM@CPythonNetworkStream?3?3SendParty@
CONST	SEGMENT
??_C@_0EM@FFPCCHJM@CPythonNetworkStream?3?3SendParty@ DB 'CPythonNetworkS'
	DB	'tream::SendPartySetStatePacket(%ud, %ud) - PACKET SEND ERROR', 00H ; `string'
CONST	ENDS
;	COMDAT ??_C@_0CK@PHAHCCJC@?5?$DM?$DM?5SendPartySetStatePacket?5?3?5?$CF@
CONST	SEGMENT
??_C@_0CK@PHAHCCJC@?5?$DM?$DM?5SendPartySetStatePacket?5?3?5?$CF@ DB ' <<'
	DB	' SendPartySetStatePacket : %d, %d, %d', 0aH, 00H ; `string'
CONST	ENDS
;	COMDAT ??_C@_0EG@BBBGKACF@CPythonNetworkStream?3?3SendParty@
CONST	SEGMENT
??_C@_0EG@BBBGKACF@CPythonNetworkStream?3?3SendParty@ DB 'CPythonNetworkS'
	DB	'tream::SendPartyRemovePacket [%ud] - PACKET SEND ERROR', 00H ; `string'
CONST	ENDS
;	COMDAT ??_C@_0CA@HANJMBEA@?5?$DM?$DM?5SendPartyRemovePacket?5?3?5?$CFd?6@
CONST	SEGMENT
??_C@_0CA@HANJMBEA@?5?$DM?$DM?5SendPartyRemovePacket?5?3?5?$CFd?6@ DB ' <'
	DB	'< SendPartyRemovePacket : %d', 0aH, 00H	; `string'
CONST	ENDS
;	COMDAT ??_C@_0FA@IIILKEFH@CPythonNetworkStream?3?3SendParty@
CONST	SEGMENT
??_C@_0FA@IIILKEFH@CPythonNetworkStream?3?3SendParty@ DB 'CPythonNetworkS'
	DB	'tream::SendPartyInviteAnswerPacket [%ud %ud] - PACKET SEND ER'
	DB	'ROR', 00H					; `string'
CONST	ENDS
;	COMDAT ??_C@_0CK@GHKGLGPO@?5?$DM?$DM?5SendPartyInviteAnswerPacket@
CONST	SEGMENT
??_C@_0CK@GHKGLGPO@?5?$DM?$DM?5SendPartyInviteAnswerPacket@ DB ' << SendP'
	DB	'artyInviteAnswerPacket : %d, %d', 0aH, 00H	; `string'
CONST	ENDS
;	COMDAT ??_C@_0EG@HLBPKODM@CPythonNetworkStream?3?3SendParty@
CONST	SEGMENT
??_C@_0EG@HLBPKODM@CPythonNetworkStream?3?3SendParty@ DB 'CPythonNetworkS'
	DB	'tream::SendPartyInvitePacket [%ud] - PACKET SEND ERROR', 00H ; `string'
CONST	ENDS
;	COMDAT ??_C@_0CA@GNHHEHBK@?5?$DM?$DM?5SendPartyInvitePacket?5?3?5?$CFd?6@
CONST	SEGMENT
??_C@_0CA@GNHHEHBK@?5?$DM?$DM?5SendPartyInvitePacket?5?3?5?$CFd?6@ DB ' <'
	DB	'< SendPartyInvitePacket : %d', 0aH, 00H	; `string'
CONST	ENDS
;	COMDAT ??_C@_0BO@DAKKOIFE@Send?5Skill?5Color?5Packet?5Error@
CONST	SEGMENT
??_C@_0BO@DAKKOIFE@Send?5Skill?5Color?5Packet?5Error@ DB 'Send Skill Colo'
	DB	'r Packet Error', 00H			; `string'
CONST	ENDS
;	COMDAT ??_C@_0DM@NAODJGJE@CPythonNetworkStream?3?3SendSyncP@
CONST	SEGMENT
??_C@_0DM@NAODJGJE@CPythonNetworkStream?3?3SendSyncP@ DB 'CPythonNetworkS'
	DB	'tream::SendSyncPositionElementPacket - ERROR', 00H ; `string'
CONST	ENDS
;	COMDAT ??_C@_0BP@MONNHODC@Send?5FlyTargeting?5Packet?5Error@
CONST	SEGMENT
??_C@_0BP@MONNHODC@Send?5FlyTargeting?5Packet?5Error@ DB 'Send FlyTargeti'
	DB	'ng Packet Error', 00H			; `string'
CONST	ENDS
;	COMDAT ??_C@_0BJ@MBCMDDJG@Send?5Target?5Packet?5Error@
CONST	SEGMENT
??_C@_0BJ@MBCMDDJG@Send?5Target?5Packet?5Error@ DB 'Send Target Packet Er'
	DB	'ror', 00H					; `string'
CONST	ENDS
;	COMDAT ??_C@_0EM@NIJLGOIC@CPythonNetworkStream?3?3RecvFlyTa@
CONST	SEGMENT
??_C@_0EM@NIJLGOIC@CPythonNetworkStream?3?3RecvFlyTa@ DB 'CPythonNetworkS'
	DB	'tream::RecvFlyTargetingPacket() - dwShooterVID[%d] NOT EXIST', 00H ; `string'
CONST	ENDS
;	COMDAT ??_C@_0BG@GKKFNNN@SendShootPacket?5Error@
CONST	SEGMENT
??_C@_0BG@GKKFNNN@SendShootPacket?5Error@ DB 'SendShootPacket Error', 00H ; `string'
CONST	ENDS
;	COMDAT ??_C@_0CA@IBBLODAF@Send?5Battle?5Attack?5Packet?5Error@
CONST	SEGMENT
??_C@_0CA@IBBLODAF@Send?5Battle?5Attack?5Packet?5Error@ DB 'Send Battle A'
	DB	'ttack Packet Error', 00H			; `string'
CONST	ENDS
;	COMDAT ??_C@_0BN@KNAMGOGH@VID?5?$FL?$CFd?$FN?$LA?$KB?5?E?$LI?$LA?Y?$MA?$LL?5?C?$NP?$LA?$KB?5?$LM?$LD?A?$KE?6@
CONST	SEGMENT
??_C@_0BN@KNAMGOGH@VID?5?$FL?$CFd?$FN?$LA?$KB?5?E?$LI?$LA?Y?$MA?$LL?5?C?$NP?$LA?$KB?5?$LM?$LD?A?$KE?6@ DB 'V'
	DB	'ID [%d]', 0b0H, 0a1H, ' ', 0c5H, 0b8H, 0b0H, 0d9H, 0c0H, 0bbH
	DB	' ', 0c3H, 0dfH, 0b0H, 0a1H, ' ', 0bcH, 0b3H, 0c1H, 0a4H, 0aH, 00H ; `string'
CONST	ENDS
;	COMDAT ??_C@_0BI@LEDBDCKL@Recv?5Mount?5Packet?5Error@
CONST	SEGMENT
??_C@_0BI@LEDBDCKL@Recv?5Mount?5Packet?5Error@ DB 'Recv Mount Packet Erro'
	DB	'r', 00H					; `string'
CONST	ENDS
;	COMDAT ??_C@_0BI@OCDKMKMI@Recv?5Speed?5Packet?5Error@
CONST	SEGMENT
??_C@_0BI@OCDKMKMI@Recv?5Speed?5Packet?5Error@ DB 'Recv Speed Packet Erro'
	DB	'r', 00H					; `string'
CONST	ENDS
;	COMDAT ??_C@_0CA@ECFMOOAF@BINARY_AddTargetMonsterDropInfo@
CONST	SEGMENT
??_C@_0CA@ECFMOOAF@BINARY_AddTargetMonsterDropInfo@ DB 'BINARY_AddTargetM'
	DB	'onsterDropInfo', 00H			; `string'
CONST	ENDS
;	COMDAT ??_C@_0CE@BCGGCKOC@BINARY_RefreshTargetMonsterDrop@
CONST	SEGMENT
??_C@_0CE@BCGGCKOC@BINARY_RefreshTargetMonsterDrop@ DB 'BINARY_RefreshTar'
	DB	'getMonsterDropInfo', 00H			; `string'
CONST	ENDS
;	COMDAT ??_C@_0BB@PDPGJKAD@SetHPTargetBoard@
CONST	SEGMENT
??_C@_0BB@PDPGJKAD@SetHPTargetBoard@ DB 'SetHPTargetBoard', 00H ; `string'
CONST	ENDS
;	COMDAT ??_C@_0BO@GIHEABLB@Recv?5Info?5Target?5Packet?5Error@
CONST	SEGMENT
??_C@_0BO@GIHEABLB@Recv?5Info?5Target?5Packet?5Error@ DB 'Recv Info Targe'
	DB	't Packet Error', 00H			; `string'
CONST	ENDS
;	COMDAT ??_C@_0BM@KLEOIHKF@CloseTargetBoardIfDifferent@
CONST	SEGMENT
??_C@_0BM@KLEOIHKF@CloseTargetBoardIfDifferent@ DB 'CloseTargetBoardIfDif'
	DB	'ferent', 00H				; `string'
CONST	ENDS
;	COMDAT ??_C@_06GAHGMLBJ@?$CIiiii?$CJ@
CONST	SEGMENT
??_C@_06GAHGMLBJ@?$CIiiii?$CJ@ DB '(iiii)', 00H		; `string'
CONST	ENDS
;	COMDAT ??_C@_0BJ@HIJGCIDI@Recv?5Target?5Packet?5Error@
CONST	SEGMENT
??_C@_0BJ@HIJGCIDI@Recv?5Target?5Packet?5Error@ DB 'Recv Target Packet Er'
	DB	'ror', 00H					; `string'
CONST	ENDS
;	COMDAT ??_C@_0BM@PIHJNOHE@Damage?5is?5equal?5or?5below?50?4@
CONST	SEGMENT
??_C@_0BM@PIHJNOHE@Damage?5is?5equal?5or?5below?50?4@ DB 'Damage is equal'
	DB	' or below 0.', 00H				; `string'
CONST	ENDS
;	COMDAT ??_C@_0BE@OJMAIMGE@?5?$DO?$DO?5RecvSkillLevel?6@
CONST	SEGMENT
??_C@_0BE@OJMAIMGE@?5?$DO?$DO?5RecvSkillLevel?6@ DB ' >> RecvSkillLevel', 0aH
	DB	00H						; `string'
CONST	ENDS
;	COMDAT ??_C@_0DE@EBNCHOOM@CPythonNetworkStream?3?3RecvSkill@
CONST	SEGMENT
??_C@_0DE@EBNCHOOM@CPythonNetworkStream?3?3RecvSkill@ DB 'CPythonNetworkS'
	DB	'tream::RecvSkillLevelNew - RecvError', 00H	; `string'
CONST	ENDS
;	COMDAT ??_C@_1IE@MLPEGPFN@?$AA?$CB?$AA?$CC?$AAC?$AAP?$AAy?$AAt?$AAh?$AAo?$AAn?$AAN?$AAe?$AAt?$AAw?$AAo?$AAr@
CONST	SEGMENT
??_C@_1IE@MLPEGPFN@?$AA?$CB?$AA?$CC?$AAC?$AAP?$AAy?$AAt?$AAh?$AAo?$AAn?$AAN?$AAe?$AAt?$AAw?$AAo?$AAr@ DB '!'
	DB	00H, '"', 00H, 'C', 00H, 'P', 00H, 'y', 00H, 't', 00H, 'h', 00H
	DB	'o', 00H, 'n', 00H, 'N', 00H, 'e', 00H, 't', 00H, 'w', 00H, 'o'
	DB	00H, 'r', 00H, 'k', 00H, 'S', 00H, 't', 00H, 'r', 00H, 'e', 00H
	DB	'a', 00H, 'm', 00H, ':', 00H, ':', 00H, 'R', 00H, 'e', 00H, 'c'
	DB	00H, 'v', 00H, 'S', 00H, 'k', 00H, 'i', 00H, 'l', 00H, 'l', 00H
	DB	'L', 00H, 'e', 00H, 'v', 00H, 'e', 00H, 'l', 00H, ' ', 00H, '-'
	DB	00H, ' ', 00H, 'D', 00H, 'o', 00H, 'n', 00H, '''', 00H, 't', 00H
	DB	' ', 00H, 'u', 00H, 's', 00H, 'e', 00H, ' ', 00H, 't', 00H, 'h'
	DB	00H, 'i', 00H, 's', 00H, ' ', 00H, 'f', 00H, 'u', 00H, 'n', 00H
	DB	'c', 00H, 't', 00H, 'i', 00H, 'o', 00H, 'n', 00H, '"', 00H, 00H
	DB	00H						; `string'
CONST	ENDS
;	COMDAT ??_C@_0DB@OELACDEA@CPythonNetworkStream?3?3RecvSkill@
CONST	SEGMENT
??_C@_0DB@OELACDEA@CPythonNetworkStream?3?3RecvSkill@ DB 'CPythonNetworkS'
	DB	'tream::RecvSkillLevel - RecvError', 00H	; `string'
CONST	ENDS
;	COMDAT ??_C@_0DH@MPAMADMO@CPythonNetworkStream?3?3RecvSkill@
CONST	SEGMENT
??_C@_0DH@MPAMADMO@CPythonNetworkStream?3?3RecvSkill@ DB 'CPythonNetworkS'
	DB	'tream::RecvSkillCoolTimeEnd - RecvError', 00H ; `string'
CONST	ENDS
;	COMDAT ??_C@_0DP@EPEALGJO@CPythonNetworkStream?3?3RecvSkill@
CONST	SEGMENT
??_C@_0DP@EPEALGJO@CPythonNetworkStream?3?3RecvSkill@ DB 'CPythonNetworkS'
	DB	'tream::RecvSkillLevel - Don''t use this function', 00H ; `string'
CONST	ENDS
;	COMDAT ??_C@_0BN@IAHFIDIL@SendQuestConfirmPacket?5Error@
CONST	SEGMENT
??_C@_0BN@IAHFIDIL@SendQuestConfirmPacket?5Error@ DB 'SendQuestConfirmPac'
	DB	'ket Error', 00H				; `string'
CONST	ENDS
;	COMDAT ??_C@_0CB@HKJKPPKG@?5SendQuestConfirmPacket?5?3?5?$CFd?0?5?$CF@
CONST	SEGMENT
??_C@_0CB@HKJKPPKG@?5SendQuestConfirmPacket?5?3?5?$CFd?0?5?$CF@ DB ' Send'
	DB	'QuestConfirmPacket : %d, %d', 00H		; `string'
CONST	ENDS
;	COMDAT ??_C@_0CA@DKGOFDHL@Send?5Script?5Button?5Packet?5Error@
CONST	SEGMENT
??_C@_0CA@DKGOFDHL@Send?5Script?5Button?5Packet?5Error@ DB 'Send Script B'
	DB	'utton Packet Error', 00H			; `string'
CONST	ENDS
;	COMDAT ??_C@_0CB@KDIADHIP@SendQuestInputStringPacket?5Erro@
CONST	SEGMENT
??_C@_0CB@KDIADHIP@SendQuestInputStringPacket?5Erro@ DB 'SendQuestInputSt'
	DB	'ringPacket Error', 00H			; `string'
CONST	ENDS
;	COMDAT ??_C@_0BL@FELFLKOI@RecvScriptPacket_SizeError@
CONST	SEGMENT
??_C@_0BL@FELFLKOI@RecvScriptPacket_SizeError@ DB 'RecvScriptPacket_SizeE'
	DB	'rror', 00H					; `string'
CONST	ENDS
;	COMDAT ??_C@_0CA@GLOCGDPA@Send?5Script?5Answer?5Packet?5Error@
CONST	SEGMENT
??_C@_0CA@GLOCGDPA@Send?5Script?5Answer?5Packet?5Error@ DB 'Send Script A'
	DB	'nswer Packet Error', 00H			; `string'
CONST	ENDS
;	COMDAT ??_C@_0BA@ILEGHCPF@StartPointReset@
CONST	SEGMENT
??_C@_0BA@ILEGHCPF@StartPointReset@ DB 'StartPointReset', 00H ; `string'
CONST	ENDS
;	COMDAT ??_C@_0BL@GIIBIOJB@RecvScriptPacket_RecvError@
CONST	SEGMENT
??_C@_0BL@GIIBIOJB@RecvScriptPacket_RecvError@ DB 'RecvScriptPacket_RecvE'
	DB	'rror', 00H					; `string'
CONST	ENDS
;	COMDAT ??_C@_0CA@EEPLBN@send_trade_accept_packet?5Error?6@
CONST	SEGMENT
??_C@_0CA@EEPLBN@send_trade_accept_packet?5Error?6@ DB 'send_trade_accept'
	DB	'_packet Error', 0aH, 00H			; `string'
CONST	ENDS
;	COMDAT ??_C@_0BO@FJKDIHPJ@send_trade_exit_packet?5Error?6@
CONST	SEGMENT
??_C@_0BO@FJKDIHPJ@send_trade_exit_packet?5Error?6@ DB 'send_trade_exit_p'
	DB	'acket Error', 0aH, 00H			; `string'
CONST	ENDS
;	COMDAT ??_C@_0CC@JFABNFDE@send_trade_item_add_packet?5Erro@
CONST	SEGMENT
??_C@_0CC@JFABNFDE@send_trade_item_add_packet?5Erro@ DB 'send_trade_item_'
	DB	'add_packet Error', 0aH, 00H			; `string'
CONST	ENDS
;	COMDAT ??_C@_0CC@IFEOOANP@send_trade_item_del_packet?5Erro@
CONST	SEGMENT
??_C@_0CC@IFEOOANP@send_trade_item_del_packet?5Erro@ DB 'send_trade_item_'
	DB	'del_packet Error', 0aH, 00H			; `string'
CONST	ENDS
;	COMDAT ??_C@_0CD@FOAEKPNP@send_trade_start_packet?5?5?5vid?5?$CF@
CONST	SEGMENT
??_C@_0CD@FOAEKPNP@send_trade_start_packet?5?5?5vid?5?$CF@ DB 'send_trade'
	DB	'_start_packet   vid %d ', 0aH, 00H		; `string'
CONST	ENDS
;	COMDAT ??_C@_0CB@EABMKDBI@send_trade_elk_add_packet?5Error@
CONST	SEGMENT
??_C@_0CB@EABMKDBI@send_trade_elk_add_packet?5Error@ DB 'send_trade_elk_a'
	DB	'dd_packet Error', 0aH, 00H			; `string'
CONST	ENDS
;	COMDAT ??_C@_0BH@DIHNLGAB@BINARY_GUILD_RANK_OPEN@
CONST	SEGMENT
??_C@_0BH@DIHNLGAB@BINARY_GUILD_RANK_OPEN@ DB 'BINARY_GUILD_RANK_OPEN', 00H ; `string'
CONST	ENDS
;	COMDAT ??_C@_0BP@CGFAIMHK@send_trade_start_packet?5Error?6@
CONST	SEGMENT
??_C@_0BP@CGFAIMHK@send_trade_start_packet?5Error?6@ DB 'send_trade_start'
	DB	'_packet Error', 0aH, 00H			; `string'
CONST	ENDS
;	COMDAT ??_C@_0BM@IFLFCIGO@RecvPartyPositionInfo?5Error@
CONST	SEGMENT
??_C@_0BM@IFLFCIGO@RecvPartyPositionInfo?5Error@ DB 'RecvPartyPositionInf'
	DB	'o Error', 00H				; `string'
CONST	ENDS
;	COMDAT ??_C@_0BH@BIEMFCCA@RecvGuildRanking?5Error@
CONST	SEGMENT
??_C@_0BH@BIEMFCCA@RecvGuildRanking?5Error@ DB 'RecvGuildRanking Error', 00H ; `string'
CONST	ENDS
;	COMDAT ??_C@_0N@FKOIEIPK@AskGuildName@
CONST	SEGMENT
??_C@_0N@FKOIEIPK@AskGuildName@ DB 'AskGuildName', 00H	; `string'
CONST	ENDS
;	COMDAT ??_C@_0BA@BHDOCKEA@ToggleDebugInfo@
CONST	SEGMENT
??_C@_0BA@BHDOCKEA@ToggleDebugInfo@ DB 'ToggleDebugInfo', 00H ; `string'
CONST	ENDS
;	COMDAT ??_C@_0BD@CFBLMLPP@RecvMarkPass?5Error@
CONST	SEGMENT
??_C@_0BD@CFBLMLPP@RecvMarkPass?5Error@ DB 'RecvMarkPass Error', 00H ; `string'
CONST	ENDS
;	COMDAT ??_C@_0CC@ELOCPLFN@RecvRequestMakeGuild?5Packet?5Err@
CONST	SEGMENT
??_C@_0CC@ELOCPLFN@RecvRequestMakeGuild?5Packet?5Err@ DB 'RecvRequestMake'
	DB	'Guild Packet Error', 00H			; `string'
CONST	ENDS
;	COMDAT ??_C@_0BN@JBCFOMDG@RecvQuestConfirmPacket?5Error@
CONST	SEGMENT
??_C@_0BN@JBCFOMDG@RecvQuestConfirmPacket?5Error@ DB 'RecvQuestConfirmPac'
	DB	'ket Error', 00H				; `string'
CONST	ENDS
;	COMDAT ??_C@_0BG@KIBJJMEI@BINARY_OnQuestConfirm@
CONST	SEGMENT
??_C@_0BG@KIBJJMEI@BINARY_OnQuestConfirm@ DB 'BINARY_OnQuestConfirm', 00H ; `string'
CONST	ENDS
;	COMDAT ??_C@_0CA@LAFLPPD@Recv?5Quest?5Info?5Packet?5Error?5?$CD2@
CONST	SEGMENT
??_C@_0CA@LAFLPPD@Recv?5Quest?5Info?5Packet?5Error?5?$CD2@ DB 'Recv Quest'
	DB	' Info Packet Error #2', 00H			; `string'
CONST	ENDS
;	COMDAT ??_C@_0N@IPPKALM@RefreshQuest@
CONST	SEGMENT
??_C@_0N@IPPKALM@RefreshQuest@ DB 'RefreshQuest', 00H	; `string'
CONST	ENDS
;	COMDAT ??_C@_0P@DNLFDBJJ@trade_less_elk@
CONST	SEGMENT
??_C@_0P@DNLFDBJJ@trade_less_elk@ DB 'trade_less_elk', 00H ; `string'
CONST	ENDS
;	COMDAT ??_C@_0CA@CACIOMDA@Recv?5Quest?5Info?5Packet?5Error?5?$CD1@
CONST	SEGMENT
??_C@_0CA@CACIOMDA@Recv?5Quest?5Info?5Packet?5Error?5?$CD1@ DB 'Recv Ques'
	DB	't Info Packet Error #1', 00H		; `string'
CONST	ENDS
;	COMDAT ??_C@_0M@GJLEGLOM@EndExchange@
CONST	SEGMENT
??_C@_0M@GJLEGLOM@EndExchange@ DB 'EndExchange', 00H	; `string'
CONST	ENDS
;	COMDAT ??_C@_0O@LLCGBEIB@trade_already@
CONST	SEGMENT
??_C@_0O@LLCGBEIB@trade_already@ DB 'trade_already', 00H ; `string'
CONST	ENDS
;	COMDAT ??_C@_0O@HKIIBLHD@StartExchange@
CONST	SEGMENT
??_C@_0O@HKIIBLHD@StartExchange@ DB 'StartExchange', 00H ; `string'
CONST	ENDS
;	COMDAT ??_C@_0BJ@LKIMJPM@AddExchangeItemSlotIndex@
CONST	SEGMENT
??_C@_0BJ@LKIMJPM@AddExchangeItemSlotIndex@ DB 'AddExchangeItemSlotIndex', 00H ; `string'
CONST	ENDS
;	COMDAT ??_C@_0BG@ELOKCGJA@ALREADY_HAVE_ONE_ITEM@
CONST	SEGMENT
??_C@_0BG@ELOKCGJA@ALREADY_HAVE_ONE_ITEM@ DB 'ALREADY_HAVE_ONE_ITEM', 00H ; `string'
CONST	ENDS
;	COMDAT ??_C@_0DJ@IGANFIGP@CPythonNetworkStream?3?3RecvShopP@
CONST	SEGMENT
??_C@_0DJ@IGANFIGP@CPythonNetworkStream?3?3RecvShopP@ DB 'CPythonNetworkS'
	DB	'tream::RecvShopPacket: Unknown subheader', 0aH, 00H ; `string'
CONST	ENDS
;	COMDAT ??_C@_0BA@GDHCJGKC@NOT_ENOUGH_ITEM@
CONST	SEGMENT
??_C@_0BA@GDHCJGKC@NOT_ENOUGH_ITEM@ DB 'NOT_ENOUGH_ITEM', 00H ; `string'
CONST	ENDS
;	COMDAT ??_C@_0P@IOOOGPI@NOT_ENOUGH_EXP@
CONST	SEGMENT
??_C@_0P@IOOOGPI@NOT_ENOUGH_EXP@ DB 'NOT_ENOUGH_EXP', 00H ; `string'
CONST	ENDS
;	COMDAT ??_C@_0P@HIHIAGBD@INVENTORY_FULL@
CONST	SEGMENT
??_C@_0P@HIHIAGBD@INVENTORY_FULL@ DB 'INVENTORY_FULL', 00H ; `string'
CONST	ENDS
;	COMDAT ??_C@_0M@HAELFLPD@INVALID_POS@
CONST	SEGMENT
??_C@_0M@HAELFLPD@INVALID_POS@ DB 'INVALID_POS', 00H	; `string'
CONST	ENDS
;	COMDAT ??_C@_0BB@FHBGDKNB@NOT_ENOUGH_COINS@
CONST	SEGMENT
??_C@_0BB@FHBGDKNB@NOT_ENOUGH_COINS@ DB 'NOT_ENOUGH_COINS', 00H ; `string'
CONST	ENDS
;	COMDAT ??_C@_07FBAJNJNN@SOLDOUT@
CONST	SEGMENT
??_C@_07FBAJNJNN@SOLDOUT@ DB 'SOLDOUT', 00H		; `string'
CONST	ENDS
;	COMDAT ??_C@_0BB@GHBGEHD@NOT_ENOUGH_MONEY@
CONST	SEGMENT
??_C@_0BB@GHBGEHD@NOT_ENOUGH_MONEY@ DB 'NOT_ENOUGH_MONEY', 00H ; `string'
CONST	ENDS
;	COMDAT ??_C@_0M@NHHHAHOK@OnShopError@
CONST	SEGMENT
??_C@_0M@NHHHAHOK@OnShopError@ DB 'OnShopError', 00H	; `string'
CONST	ENDS
;	COMDAT ??_C@_0M@DLPMCOFP@RefreshShop@
CONST	SEGMENT
??_C@_0M@DLPMCOFP@RefreshShop@ DB 'RefreshShop', 00H	; `string'
CONST	ENDS
;	COMDAT ??_C@_0BE@MHMAEIEM@SetShopSellingPrice@
CONST	SEGMENT
??_C@_0BE@MHMAEIEM@SetShopSellingPrice@ DB 'SetShopSellingPrice', 00H ; `string'
CONST	ENDS
;	COMDAT ??_C@_09PJIJIJPH@StartShop@
CONST	SEGMENT
??_C@_09PJIJIJPH@StartShop@ DB 'StartShop', 00H		; `string'
CONST	ENDS
;	COMDAT ??_C@_07FONJAJPH@EndShop@
CONST	SEGMENT
??_C@_07FONJAJPH@EndShop@ DB 'EndShop', 00H		; `string'
CONST	ENDS
;	COMDAT ??_C@_0BL@HCNNPICH@Send?5On_Click?5Packet?5Error@
CONST	SEGMENT
??_C@_0BL@HCNNPICH@Send?5On_Click?5Packet?5Error@ DB 'Send On_Click Packe'
	DB	't Error', 00H				; `string'
CONST	ENDS
;	COMDAT ??_C@_0BD@ICLELGCO@SendOnClickPacket?6@
CONST	SEGMENT
??_C@_0BD@ICLELGCO@SendOnClickPacket?6@ DB 'SendOnClickPacket', 0aH, 00H ; `string'
CONST	ENDS
;	COMDAT ??_C@_0L@MNOOMILJ@OnGameOver@
CONST	SEGMENT
??_C@_0L@MNOOMILJ@OnGameOver@ DB 'OnGameOver', 00H	; `string'
CONST	ENDS
;	COMDAT ??_C@_0CF@OKKJKDKD@Send?5Character?5Position?5Packet?5@
CONST	SEGMENT
??_C@_0CF@OKKJKDKD@Send?5Character?5Position?5Packet?5@ DB 'Send Characte'
	DB	'r Position Packet Error', 00H		; `string'
CONST	ENDS
;	COMDAT ??_C@_0M@BDKDPHGA@?A?V?$MA?N?$LA?x?5?$LL?g?$LI?A@
CONST	SEGMENT
??_C@_0M@BDKDPHGA@?A?V?$MA?N?$LA?x?5?$LL?g?$LI?A@ DB 0c1H, 0d6H, 0c0H, 0ceH
	DB	0b0H, 0f8H, ' ', 0bbH, 0e7H, 0b8H, 0c1H, 00H	; `string'
CONST	ENDS
;	COMDAT ??_C@_03IELNPCCE@?$CIO?$CJ@
CONST	SEGMENT
??_C@_03IELNPCCE@?$CIO?$CJ@ DB '(O)', 00H		; `string'
CONST	ENDS
;	COMDAT ??_C@_0CL@MKMKFBIM@CPythonNetworkStream?3?3RecvStunP@
CONST	SEGMENT
??_C@_0CL@MKMKFBIM@CPythonNetworkStream?3?3RecvStunP@ DB 'CPythonNetworkS'
	DB	'tream::RecvStunPacket Error', 00H		; `string'
CONST	ENDS
;	COMDAT ??_C@_0CL@KJGPDLAC@CPythonNetworkStream?3?3RecvDeadP@
CONST	SEGMENT
??_C@_0CL@KJGPDLAC@CPythonNetworkStream?3?3RecvDeadP@ DB 'CPythonNetworkS'
	DB	'tream::RecvDeadPacket Error', 00H		; `string'
CONST	ENDS
;	COMDAT ??_C@_0BP@DGLKKAJF@Recv?5Point?5Change?5Packet?5Error@
CONST	SEGMENT
??_C@_0BP@DGLKKAJF@Recv?5Point?5Change?5Packet?5Error@ DB 'Recv Point Cha'
	DB	'nge Packet Error', 00H			; `string'
CONST	ENDS
;	COMDAT ??_C@_0M@JJMCBALF@OnPickMoney@
CONST	SEGMENT
??_C@_0M@JJMCBALF@OnPickMoney@ DB 'OnPickMoney', 00H	; `string'
CONST	ENDS
;	COMDAT ??_C@_0BL@MJBHNNKO@OnRecvWhisperSystemMessage@
CONST	SEGMENT
??_C@_0BL@MJBHNNKO@OnRecvWhisperSystemMessage@ DB 'OnRecvWhisperSystemMes'
	DB	'sage', 00H					; `string'
CONST	ENDS
;	COMDAT ??_C@_0BD@HFHHLLOG@OnRecvWhisperError@
CONST	SEGMENT
??_C@_0BD@HFHHLLOG@OnRecvWhisperError@ DB 'OnRecvWhisperError', 00H ; `string'
CONST	ENDS
;	COMDAT ??_C@_05FKJLIKKL@?$CIiss?$CJ@
CONST	SEGMENT
??_C@_05FKJLIKKL@?$CIiss?$CJ@ DB '(iss)', 00H		; `string'
CONST	ENDS
;	COMDAT ??_C@_0O@MLMPGGOH@OnRecvWhisper@
CONST	SEGMENT
??_C@_0O@MLMPGGOH@OnRecvWhisper@ DB 'OnRecvWhisper', 00H ; `string'
CONST	ENDS
;	COMDAT ??_C@_1GE@CJKKCFEA@?$AAw?$AAh?$AAi?$AAs?$AAp?$AAe?$AAr?$AAP?$AAa?$AAc?$AAk?$AAe?$AAt?$AA?4?$AAw@
CONST	SEGMENT
??_C@_1GE@CJKKCFEA@?$AAw?$AAh?$AAi?$AAs?$AAp?$AAe?$AAr?$AAP?$AAa?$AAc?$AAk?$AAe?$AAt?$AA?4?$AAw@ DB 'w'
	DB	00H, 'h', 00H, 'i', 00H, 's', 00H, 'p', 00H, 'e', 00H, 'r', 00H
	DB	'P', 00H, 'a', 00H, 'c', 00H, 'k', 00H, 'e', 00H, 't', 00H, '.'
	DB	00H, 'w', 00H, 'S', 00H, 'i', 00H, 'z', 00H, 'e', 00H, ' ', 00H
	DB	'-', 00H, ' ', 00H, 's', 00H, 'i', 00H, 'z', 00H, 'e', 00H, 'o'
	DB	00H, 'f', 00H, '(', 00H, 'w', 00H, 'h', 00H, 'i', 00H, 's', 00H
	DB	'p', 00H, 'e', 00H, 'r', 00H, 'P', 00H, 'a', 00H, 'c', 00H, 'k'
	DB	00H, 'e', 00H, 't', 00H, ')', 00H, ' ', 00H, '<', 00H, ' ', 00H
	DB	'5', 00H, '1', 00H, '2', 00H, 00H, 00H	; `string'
CONST	ENDS
;	COMDAT ??_C@_07IAFACCAD@?$CFs?5?3?5?$CFs@
CONST	SEGMENT
??_C@_07IAFACCAD@?$CFs?5?3?5?$CFs@ DB '%s : %s', 00H	; `string'
CONST	ENDS
;	COMDAT ??_C@_0BF@MEFMFHCI@BINARY_SetBigMessage@
CONST	SEGMENT
??_C@_0BF@MEFMFHCI@BINARY_SetBigMessage@ DB 'BINARY_SetBigMessage', 00H ; `string'
CONST	ENDS
;	COMDAT ??_C@_0BM@FHNICOKA@BINARY_SetBigControlMessage@
CONST	SEGMENT
??_C@_0BM@FHNICOKA@BINARY_SetBigControlMessage@ DB 'BINARY_SetBigControlM'
	DB	'essage', 00H				; `string'
CONST	ENDS
;	COMDAT ??_C@_02DKCKIIND@?$CFs@
CONST	SEGMENT
??_C@_02DKCKIIND@?$CFs@ DB '%s', 00H			; `string'
CONST	ENDS
;	COMDAT ??_C@_0BF@EKLOHGBI@BINARY_SetTipMessage@
CONST	SEGMENT
??_C@_0BF@EKLOHGBI@BINARY_SetTipMessage@ DB 'BINARY_SetTipMessage', 00H ; `string'
CONST	ENDS
;	COMDAT ??_C@_05EMKMHPK@item?3@
CONST	SEGMENT
??_C@_05EMKMHPK@item?3@ DB 'item:', 00H			; `string'
CONST	ENDS
;	COMDAT ??_C@_04LIFAFMCE@?$FL?$CFs?$FN@
CONST	SEGMENT
??_C@_04LIFAFMCE@?$FL?$CFs?$FN@ DB '[%s]', 00H		; `string'
CONST	ENDS
;	COMDAT ??_C@_01LBDDMOBJ@?$FN@
CONST	SEGMENT
??_C@_01LBDDMOBJ@?$FN@ DB ']', 00H			; `string'
CONST	ENDS
;	COMDAT ??_C@_02PAHBFGHG@?$HMh@
CONST	SEGMENT
??_C@_02PAHBFGHG@?$HMh@ DB '|h', 00H			; `string'
CONST	ENDS
;	COMDAT ??_C@_0N@MNNAGHIM@?$HMcfff1e6c0?$HMH@
CONST	SEGMENT
??_C@_0N@MNNAGHIM@?$HMcfff1e6c0?$HMH@ DB '|cfff1e6c0|H', 00H ; `string'
CONST	ENDS
;	COMDAT ??_C@_01OHGJGJJP@?$FL@
CONST	SEGMENT
??_C@_01OHGJGJJP@?$FL@ DB '[', 00H			; `string'
CONST	ENDS
;	COMDAT ??_C@_0DL@GMAAOOOI@Can?8t?5register?5emoticon?5string?4@
CONST	SEGMENT
??_C@_0DL@GMAAOOOI@Can?8t?5register?5emoticon?5string?4@ DB 'Can''t regis'
	DB	'ter emoticon string... vector is full (size:%d)', 00H ; `string'
CONST	ENDS
;	COMDAT ??_C@_0N@EFAMMONH@?$HMcffffc700?$HMH@
CONST	SEGMENT
??_C@_0N@EFAMMONH@?$HMcffffc700?$HMH@ DB '|cffffc700|H', 00H ; `string'
CONST	ENDS
;	COMDAT ??_C@_0IB@FFAGJAOL@CPythonNetworkStream?3?3SendChara@
CONST	SEGMENT
??_C@_0IB@FFAGJAOL@CPythonNetworkStream?3?3SendChara@ DB 'CPythonNetworkS'
	DB	'tream::SendCharacterStatePacket(dwCmdTime=%u, fDstPos=(%f, %f'
	DB	'), fDstRot=%f, eFunc=%d uArg=%d) - PACKET SEND ERROR', 00H ; `string'
CONST	ENDS
;	COMDAT ??_C@_0DN@EFFJHKOL@CPythonNetworkStream?3?3SendUseSk@
CONST	SEGMENT
??_C@_0DN@EFFJHKOL@CPythonNetworkStream?3?3SendUseSk@ DB 'CPythonNetworkS'
	DB	'tream::SendUseSkillPacket - SEND PACKET ERROR', 00H ; `string'
CONST	ENDS
;	COMDAT ??_C@_1MC@HOPJDGIA@?$AAC?$AA?3?$AA?2?$AAA?$AAn?$AAk?$AAa?$AA2?$AAP?$AAr?$AAo?$AAj?$AAe?$AAc?$AAt@
CONST	SEGMENT
??_C@_1MC@HOPJDGIA@?$AAC?$AA?3?$AA?2?$AAA?$AAn?$AAk?$AAa?$AA2?$AAP?$AAr?$AAo?$AAj?$AAe?$AAc?$AAt@ DB 'C'
	DB	00H, ':', 00H, '\', 00H, 'A', 00H, 'n', 00H, 'k', 00H, 'a', 00H
	DB	'2', 00H, 'P', 00H, 'r', 00H, 'o', 00H, 'j', 00H, 'e', 00H, 'c'
	DB	00H, 't', 00H, '\', 00H, 'A', 00H, 'n', 00H, 'k', 00H, 'a', 00H
	DB	'2', 00H, 'P', 00H, 'r', 00H, 'o', 00H, 'j', 00H, 'e', 00H, 'c'
	DB	00H, 't', 00H, '\', 00H, 'S', 00H, 'o', 00H, 'u', 00H, 'r', 00H
	DB	'c', 00H, 'e', 00H, '\', 00H, 'B', 00H, 'i', 00H, 'n', 00H, 'a'
	DB	00H, 'r', 00H, 'y', 00H, '\', 00H, 's', 00H, 'o', 00H, 'u', 00H
	DB	'r', 00H, 'c', 00H, 'e', 00H, '\', 00H, 'U', 00H, 's', 00H, 'e'
	DB	00H, 'r', 00H, 'I', 00H, 'n', 00H, 't', 00H, 'e', 00H, 'r', 00H
	DB	'f', 00H, 'a', 00H, 'c', 00H, 'e', 00H, '\', 00H, 'P', 00H, 'y'
	DB	00H, 't', 00H, 'h', 00H, 'o', 00H, 'n', 00H, 'N', 00H, 'e', 00H
	DB	't', 00H, 'w', 00H, 'o', 00H, 'r', 00H, 'k', 00H, 'S', 00H, 't'
	DB	00H, 'r', 00H, 'e', 00H, 'a', 00H, 'm', 00H, 'P', 00H, 'h', 00H
	DB	'a', 00H, 's', 00H, 'e', 00H, 'G', 00H, 'a', 00H, 'm', 00H, 'e'
	DB	00H, '.', 00H, 'c', 00H, 'p', 00H, 'p', 00H, 00H, 00H ; `string'
CONST	ENDS
;	COMDAT ??_C@_1GC@PGNNMAHF@?$AAk?$AAS?$AAt?$AAa?$AAt?$AAe?$AAP?$AAa?$AAc?$AAk?$AAe?$AAt?$AA?4?$AAl?$AAX@
CONST	SEGMENT
??_C@_1GC@PGNNMAHF@?$AAk?$AAS?$AAt?$AAa?$AAt?$AAe?$AAP?$AAa?$AAc?$AAk?$AAe?$AAt?$AA?4?$AAl?$AAX@ DB 'k'
	DB	00H, 'S', 00H, 't', 00H, 'a', 00H, 't', 00H, 'e', 00H, 'P', 00H
	DB	'a', 00H, 'c', 00H, 'k', 00H, 'e', 00H, 't', 00H, '.', 00H, 'l'
	DB	00H, 'X', 00H, ' ', 00H, '>', 00H, '=', 00H, ' ', 00H, '0', 00H
	DB	' ', 00H, '&', 00H, '&', 00H, ' ', 00H, 'k', 00H, 'S', 00H, 't'
	DB	00H, 'a', 00H, 't', 00H, 'e', 00H, 'P', 00H, 'a', 00H, 'c', 00H
	DB	'k', 00H, 'e', 00H, 't', 00H, '.', 00H, 'l', 00H, 'X', 00H, ' '
	DB	00H, '<', 00H, ' ', 00H, '2', 00H, '0', 00H, '4', 00H, '8', 00H
	DB	'0', 00H, '0', 00H, 00H, 00H			; `string'
CONST	ENDS
;	COMDAT ??_C@_0CE@DHDBME@?5SendMessengerAddByNamePacket?5?3@
CONST	SEGMENT
??_C@_0CE@DHDBME@?5SendMessengerAddByNamePacket?5?3@ DB ' SendMessengerAd'
	DB	'dByNamePacket : %s', 0aH, 00H		; `string'
CONST	ENDS
;	COMDAT ??_C@_0CJ@MJAJOLNA@?5SendMessengerAddBlockByNamePac@
CONST	SEGMENT
??_C@_0CJ@MJAJOLNA@?5SendMessengerAddBlockByNamePac@ DB ' SendMessengerAd'
	DB	'dBlockByNamePacket : %s', 0aH, 00H		; `string'
CONST	ENDS
;	COMDAT ??_C@_0EC@IHJJGCFB@CPythonNetworkStream?3?3RecvDuelS@
CONST	SEGMENT
??_C@_0EC@IHJJGCFB@CPythonNetworkStream?3?3RecvDuelS@ DB 'CPythonNetworkS'
	DB	'tream::RecvDuelStartPacket - MainCharacter is NULL', 00H ; `string'
CONST	ENDS
;	COMDAT ??_C@_0BB@FNPCBFHE@CloseTargetBoard@
CONST	SEGMENT
??_C@_0BB@FNPCBFHE@CloseTargetBoard@ DB 'CloseTargetBoard', 00H ; `string'
CONST	ENDS
;	COMDAT ??_C@_0BL@HPKACCGC@?$CD?$CD?5Network?5?9?5Game?5Phase?5?$CD?$CD@
CONST	SEGMENT
??_C@_0BL@HPKACCGC@?$CD?$CD?5Network?5?9?5Game?5Phase?5?$CD?$CD@ DB '## N'
	DB	'etwork - Game Phase ##', 00H		; `string'
CONST	ENDS
;	COMDAT ??_C@_0BC@FABDGPBM@TrackWindowUpdate@
CONST	SEGMENT
??_C@_0BC@FABDGPBM@TrackWindowUpdate@ DB 'TrackWindowUpdate', 00H ; `string'
CONST	ENDS
;	COMDAT ??_C@_05FONOJENF@?$CIsii?$CJ@
CONST	SEGMENT
??_C@_05FONOJENF@?$CIsii?$CJ@ DB '(sii)', 00H		; `string'
CONST	ENDS
;	COMDAT ??_C@_0M@DJFBBLID@ShowMapName@
CONST	SEGMENT
??_C@_0M@DJFBBLID@ShowMapName@ DB 'ShowMapName', 00H	; `string'
CONST	ENDS
;	COMDAT ??_C@_0BG@CBAJOEAC@RefreshGuildGradePage@
CONST	SEGMENT
??_C@_0BG@CBAJOEAC@RefreshGuildGradePage@ DB 'RefreshGuildGradePage', 00H ; `string'
CONST	ENDS
;	COMDAT ??_C@_0BC@KPHCEHNG@RefreshShopSearch@
CONST	SEGMENT
??_C@_0BC@KPHCEHNG@RefreshShopSearch@ DB 'RefreshShopSearch', 00H ; `string'
CONST	ENDS
;	COMDAT ??_C@_0CE@PAAOLBDB@RefreshGuildMemberPageGradeComb@
CONST	SEGMENT
??_C@_0CE@PAAOLBDB@RefreshGuildMemberPageGradeComb@ DB 'RefreshGuildMembe'
	DB	'rPageGradeComboBox', 00H			; `string'
CONST	ENDS
;	COMDAT ??_C@_0BG@MICKDFKA@RefreshGuildSkillPage@
CONST	SEGMENT
??_C@_0BG@MICKDFKA@RefreshGuildSkillPage@ DB 'RefreshGuildSkillPage', 00H ; `string'
CONST	ENDS
;	COMDAT ??_C@_0BG@FFPNPADB@RefreshGuildBoardPage@
CONST	SEGMENT
??_C@_0BG@FFPNPADB@RefreshGuildBoardPage@ DB 'RefreshGuildBoardPage', 00H ; `string'
CONST	ENDS
;	COMDAT ??_C@_0BH@BOJHBBF@RefreshGuildMemberPage@
CONST	SEGMENT
??_C@_0BH@BOJHBBF@RefreshGuildMemberPage@ DB 'RefreshGuildMemberPage', 00H ; `string'
CONST	ENDS
;	COMDAT ??_C@_0BB@CDMJAHKO@RefreshMessenger@
CONST	SEGMENT
??_C@_0BB@CDMJAHKO@RefreshMessenger@ DB 'RefreshMessenger', 00H ; `string'
CONST	ENDS
;	COMDAT ??_C@_0BF@NLJDKFFK@RefreshGuildInfoPage@
CONST	SEGMENT
??_C@_0BF@NLJDKFFK@RefreshGuildInfoPage@ DB 'RefreshGuildInfoPage', 00H ; `string'
CONST	ENDS
;	COMDAT ??_C@_0M@HNBFKLDC@RefreshMall@
CONST	SEGMENT
??_C@_0M@HNBFKLDC@RefreshMall@ DB 'RefreshMall', 00H	; `string'
CONST	ENDS
;	COMDAT ??_C@_0O@PDJLBMPA@RefreshStatus@
CONST	SEGMENT
??_C@_0O@PDJLBMPA@RefreshStatus@ DB 'RefreshStatus', 00H ; `string'
CONST	ENDS
;	COMDAT ??_C@_0N@EFFAOLPI@RefreshSkill@
CONST	SEGMENT
??_C@_0N@EFFAOLPI@RefreshSkill@ DB 'RefreshSkill', 00H	; `string'
CONST	ENDS
;	COMDAT ??_C@_0P@PHDJJCCP@RefreshSafebox@
CONST	SEGMENT
??_C@_0P@PHDJJCCP@RefreshSafebox@ DB 'RefreshSafebox', 00H ; `string'
CONST	ENDS
;	COMDAT ??_C@_0BB@JLCHKFKI@RefreshInventory@
CONST	SEGMENT
??_C@_0BB@JLCHKFKI@RefreshInventory@ DB 'RefreshInventory', 00H ; `string'
CONST	ENDS
;	COMDAT ??_C@_0BA@JECEPFD@RefreshExchange@
CONST	SEGMENT
??_C@_0BA@JECEPFD@RefreshExchange@ DB 'RefreshExchange', 00H ; `string'
CONST	ENDS
;	COMDAT ??_C@_0BB@HFALJDHO@RefreshCharacter@
CONST	SEGMENT
??_C@_0BB@HFALJDHO@RefreshCharacter@ DB 'RefreshCharacter', 00H ; `string'
CONST	ENDS
;	COMDAT ??_C@_0BB@CAEOPHDE@RefreshEquipment@
CONST	SEGMENT
??_C@_0BB@CAEOPHDE@RefreshEquipment@ DB 'RefreshEquipment', 00H ; `string'
CONST	ENDS
;	COMDAT ??_C@_0BJ@GGFFBLPA@RefreshTargetBoardByName@
CONST	SEGMENT
??_C@_0BJ@GGFFBLPA@RefreshTargetBoardByName@ DB 'RefreshTargetBoardByName'
	DB	00H						; `string'
CONST	ENDS
;	COMDAT ??_C@_0BD@FLFBFOOJ@RefreshTargetBoard@
CONST	SEGMENT
??_C@_0BD@FLFBFOOJ@RefreshTargetBoard@ DB 'RefreshTargetBoard', 00H ; `string'
CONST	ENDS
;	COMDAT ??_C@_0BB@DGNNMOLK@RefreshAlignment@
CONST	SEGMENT
??_C@_0BB@DGNNMOLK@RefreshAlignment@ DB 'RefreshAlignment', 00H ; `string'
CONST	ENDS
;	COMDAT ??_C@_0BI@IJENFIMO@RefreshTargetBoardByVID@
CONST	SEGMENT
??_C@_0BI@IJENFIMO@RefreshTargetBoardByVID@ DB 'RefreshTargetBoardByVID', 00H ; `string'
CONST	ENDS
;	COMDAT ??_C@_06LODJBEED@Chunjo@
CONST	SEGMENT
??_C@_06LODJBEED@Chunjo@ DB 'Chunjo', 00H		; `string'
CONST	ENDS
;	COMDAT ??_C@_05PAJHDBI@Jinno@
CONST	SEGMENT
??_C@_05PAJHDBI@Jinno@ DB 'Jinno', 00H			; `string'
CONST	ENDS
;	COMDAT ??_C@_07MFLOJLNG@empire_@
CONST	SEGMENT
??_C@_07MFLOJLNG@empire_@ DB 'empire_', 00H		; `string'
CONST	ENDS
;	COMDAT ??_C@_07CILALFII@Shinsoo@
CONST	SEGMENT
??_C@_07CILALFII@Shinsoo@ DB 'Shinsoo', 00H		; `string'
CONST	ENDS
;	COMDAT ??_C@_04DBBMALIP@Sura@
CONST	SEGMENT
??_C@_04DBBMALIP@Sura@ DB 'Sura', 00H			; `string'
CONST	ENDS
;	COMDAT ??_C@_06ELHMMIIB@Shaman@
CONST	SEGMENT
??_C@_06ELHMMIIB@Shaman@ DB 'Shaman', 00H		; `string'
CONST	ENDS
;	COMDAT ??_C@_07DFKLKNJN@Warrior@
CONST	SEGMENT
??_C@_07DFKLKNJN@Warrior@ DB 'Warrior', 00H		; `string'
CONST	ENDS
;	COMDAT ??_C@_08JHGIFPME@Assassin@
CONST	SEGMENT
??_C@_08JHGIFPME@Assassin@ DB 'Assassin', 00H		; `string'
CONST	ENDS
;	COMDAT ??_C@_08IMEFFKLD@?9Guild?3?5@
CONST	SEGMENT
??_C@_08IMEFFKLD@?9Guild?3?5@ DB '-Guild: ', 00H	; `string'
CONST	ENDS
;	COMDAT ??_C@_05PGCJLMNG@race_@
CONST	SEGMENT
??_C@_05PGCJLMNG@race_@ DB 'race_', 00H			; `string'
CONST	ENDS
;	COMDAT ??_C@_0L@FKFGAJGA@Location?3?5@
CONST	SEGMENT
??_C@_0L@FKFGAJGA@Location?3?5@ DB 'Location: ', 00H	; `string'
CONST	ENDS
;	COMDAT ??_C@_06GECNACHD@Name?3?5@
CONST	SEGMENT
??_C@_06GECNACHD@Name?3?5@ DB 'Name: ', 00H		; `string'
CONST	ENDS
;	COMDAT ??_C@_08BHKFMOMM@Pyungmoo@
CONST	SEGMENT
??_C@_08BHKFMOMM@Pyungmoo@ DB 'Pyungmoo', 00H		; `string'
CONST	ENDS
;	COMDAT ??_C@_0O@IGDMEDOG@metin2_map_c1@
CONST	SEGMENT
??_C@_0O@IGDMEDOG@metin2_map_c1@ DB 'metin2_map_c1', 00H ; `string'
CONST	ENDS
;	COMDAT ??_C@_04PKLAEIGB@Joan@
CONST	SEGMENT
??_C@_04PKLAEIGB@Joan@ DB 'Joan', 00H			; `string'
CONST	ENDS
;	COMDAT ??_C@_0O@IHPOCJNB@metin2_map_b1@
CONST	SEGMENT
??_C@_0O@IHPOCJNB@metin2_map_b1@ DB 'metin2_map_b1', 00H ; `string'
CONST	ENDS
;	COMDAT ??_C@_06BPOENAMC@Yongan@
CONST	SEGMENT
??_C@_06BPOENAMC@Yongan@ DB 'Yongan', 00H		; `string'
CONST	ENDS
;	COMDAT ??_C@_0O@IFLIJHII@metin2_map_a1@
CONST	SEGMENT
??_C@_0O@IFLIJHII@metin2_map_a1@ DB 'metin2_map_a1', 00H ; `string'
CONST	ENDS
;	COMDAT ??_C@_0BE@IJPIELF@1022848045039230976@
CONST	SEGMENT
??_C@_0BE@IJPIELF@1022848045039230976@ DB '1022848045039230976', 00H ; `string'
?gs_bEmpireLanuageEnable@@3HA DD 01H			; gs_bEmpireLanuageEnable
PUBLIC	??Y?$basic_string@DU?$char_traits@D@std@@V?$allocator@D@2@@std@@QAEAAV01@ABV01@@Z ; std::basic_string<char,std::char_traits<char>,std::allocator<char> >::operator+=
PUBLIC	?to_string@std@@YA?AV?$basic_string@DU?$char_traits@D@std@@V?$allocator@D@2@@1@K@Z ; std::to_string
PUBLIC	??$_Integral_to_string@DK@std@@YA?AV?$basic_string@DU?$char_traits@D@std@@V?$allocator@D@2@@0@K@Z ; std::_Integral_to_string<char,unsigned long>
PUBLIC	??$_UIntegral_to_buff@DK@std@@YAPADPADK@Z	; std::_UIntegral_to_buff<char,unsigned long>
PUBLIC	?strchr@@YAPADQADH@Z				; strchr
PUBLIC	??0?$basic_string@DU?$char_traits@D@std@@V?$allocator@D@2@@std@@QAE@QBDI@Z ; std::basic_string<char,std::char_traits<char>,std::allocator<char> >::basic_string<char,std::char_traits<char>,std::allocator<char> >
PUBLIC	?IsValidCell@SItemPos@@QAE_NXZ			; SItemPos::IsValidCell
PUBLIC	?IsEquipCell@SItemPos@@QAE_NXZ			; SItemPos::IsEquipCell
PUBLIC	??$move@AAPAD@std@@YA$$QAPADAAPAD@Z		; std::move<char * &>
PUBLIC	?_Orphan_non_end@?$_List_val@U?$_List_simple_types@U?$pair@$$CBV?$basic_string@DU?$char_traits@D@std@@V?$allocator@D@2@@std@@V12@@std@@@std@@@std@@QAEXXZ ; std::_List_val<std::_List_simple_types<std::pair<std::basic_string<char,std::char_traits<char>,std::allocator<char> > const ,std::basic_string<char,std::char_traits<char>,std::allocator<char> > > > >::_Orphan_non_end
PUBLIC	??0_Range_eraser@?$_Hash@V?$_Umap_traits@V?$basic_string@DU?$char_traits@D@std@@V?$allocator@D@2@@std@@V12@V?$_Uhash_compare@V?$basic_string@DU?$char_traits@D@std@@V?$allocator@D@2@@std@@U?$hash@V?$basic_string@DU?$char_traits@D@std@@V?$allocator@D@2@@std@@@2@U?$equal_to@V?$basic_string@DU?$char_traits@D@std@@V?$allocator@D@2@@std@@@2@@2@V?$allocator@U?$pair@$$CBV?$basic_string@DU?$char_traits@D@std@@V?$allocator@D@2@@std@@V12@@std@@@2@$0A@@std@@@std@@QAE@AAV?$list@U?$pair@$$CBV?$basic_string@DU?$char_traits@D@std@@V?$allocator@D@2@@std@@V12@@std@@V?$allocator@U?$pair@$$CBV?$basic_string@DU?$char_traits@D@std@@V?$allocator@D@2@@std@@V12@@std@@@2@@2@QAU?$_List_node@U?$pair@$$CBV?$basic_string@DU?$char_traits@D@std@@V?$allocator@D@2@@std@@V12@@std@@PAX@2@@Z ; std::_Hash<std::_Umap_traits<std::basic_string<char,std::char_traits<char>,std::allocator<char> >,std::basic_string<char,std::char_traits<char>,std::allocator<char> >,std::_Uhash_compare<std::basic_string<char,std::char_traits<char>,std::allocator<char> >,std::hash<std::basic_string<char,std::char_traits<char>,std::allocator<char> > >,std::equal_to<std::basic_string<char,std::char_traits<char>,std::allocator<char> > > >,std::allocator<std::pair<std::basic_string<char,std::char_traits<char>,std::allocator<char> > const ,std::basic_string<char,std::char_traits<char>,std::allocator<char> > > >,0> >::_Range_eraser::_Range_eraser
PUBLIC	?_Bump_erased@_Range_eraser@?$_Hash@V?$_Umap_traits@V?$basic_string@DU?$char_traits@D@std@@V?$allocator@D@2@@std@@V12@V?$_Uhash_compare@V?$basic_string@DU?$char_traits@D@std@@V?$allocator@D@2@@std@@U?$hash@V?$basic_string@DU?$char_traits@D@std@@V?$allocator@D@2@@std@@@2@U?$equal_to@V?$basic_string@DU?$char_traits@D@std@@V?$allocator@D@2@@std@@@2@@2@V?$allocator@U?$pair@$$CBV?$basic_string@DU?$char_traits@D@std@@V?$allocator@D@2@@std@@V12@@std@@@2@$0A@@std@@@std@@QAEXXZ ; std::_Hash<std::_Umap_traits<std::basic_string<char,std::char_traits<char>,std::allocator<char> >,std::basic_string<char,std::char_traits<char>,std::allocator<char> >,std::_Uhash_compare<std::basic_string<char,std::char_traits<char>,std::allocator<char> >,std::hash<std::basic_string<char,std::char_traits<char>,std::allocator<char> > >,std::equal_to<std::basic_string<char,std::char_traits<char>,std::allocator<char> > > >,std::allocator<std::pair<std::basic_string<char,std::char_traits<char>,std::allocator<char> > const ,std::basic_string<char,std::char_traits<char>,std::allocator<char> > > >,0> >::_Range_eraser::_Bump_erased
PUBLIC	??1_Range_eraser@?$_Hash@V?$_Umap_traits@V?$basic_string@DU?$char_traits@D@std@@V?$allocator@D@2@@std@@V12@V?$_Uhash_compare@V?$basic_string@DU?$char_traits@D@std@@V?$allocator@D@2@@std@@U?$hash@V?$basic_string@DU?$char_traits@D@std@@V?$allocator@D@2@@std@@@2@U?$equal_to@V?$basic_string@DU?$char_traits@D@std@@V?$allocator@D@2@@std@@@2@@2@V?$allocator@U?$pair@$$CBV?$basic_string@DU?$char_traits@D@std@@V?$allocator@D@2@@std@@V12@@std@@@2@$0A@@std@@@std@@QAE@XZ ; std::_Hash<std::_Umap_traits<std::basic_string<char,std::char_traits<char>,std::allocator<char> >,std::basic_string<char,std::char_traits<char>,std::allocator<char> >,std::_Uhash_compare<std::basic_string<char,std::char_traits<char>,std::allocator<char> >,std::hash<std::basic_string<char,std::char_traits<char>,std::allocator<char> > >,std::equal_to<std::basic_string<char,std::char_traits<char>,std::allocator<char> > > >,std::allocator<std::pair<std::basic_string<char,std::char_traits<char>,std::allocator<char> > const ,std::basic_string<char,std::char_traits<char>,std::allocator<char> > > >,0> >::_Range_eraser::~_Range_eraser
PUBLIC	?_Unchecked_erase@?$_Hash@V?$_Umap_traits@V?$basic_string@DU?$char_traits@D@std@@V?$allocator@D@2@@std@@V12@V?$_Uhash_compare@V?$basic_string@DU?$char_traits@D@std@@V?$allocator@D@2@@std@@U?$hash@V?$basic_string@DU?$char_traits@D@std@@V?$allocator@D@2@@std@@@2@U?$equal_to@V?$basic_string@DU?$char_traits@D@std@@V?$allocator@D@2@@std@@@2@@2@V?$allocator@U?$pair@$$CBV?$basic_string@DU?$char_traits@D@std@@V?$allocator@D@2@@std@@V12@@std@@@2@$0A@@std@@@std@@AAEPAU?$_List_node@U?$pair@$$CBV?$basic_string@DU?$char_traits@D@std@@V?$allocator@D@2@@std@@V12@@std@@PAX@2@PAU32@QAU32@@Z ; std::_Hash<std::_Umap_traits<std::basic_string<char,std::char_traits<char>,std::allocator<char> >,std::basic_string<char,std::char_traits<char>,std::allocator<char> >,std::_Uhash_compare<std::basic_string<char,std::char_traits<char>,std::allocator<char> >,std::hash<std::basic_string<char,std::char_traits<char>,std::allocator<char> > >,std::equal_to<std::basic_string<char,std::char_traits<char>,std::allocator<char> > > >,std::allocator<std::pair<std::basic_string<char,std::char_traits<char>,std::allocator<char> > const ,std::basic_string<char,std::char_traits<char>,std::allocator<char> > > >,0> >::_Unchecked_erase
PUBLIC	?clear@?$list@U?$pair@$$CBV?$basic_string@DU?$char_traits@D@std@@V?$allocator@D@2@@std@@V12@@std@@V?$allocator@U?$pair@$$CBV?$basic_string@DU?$char_traits@D@std@@V?$allocator@D@2@@std@@V12@@std@@@2@@std@@QAEXXZ ; std::list<std::pair<std::basic_string<char,std::char_traits<char>,std::allocator<char> > const ,std::basic_string<char,std::char_traits<char>,std::allocator<char> > >,std::allocator<std::pair<std::basic_string<char,std::char_traits<char>,std::allocator<char> > const ,std::basic_string<char,std::char_traits<char>,std::allocator<char> > > > >::clear
PUBLIC	?clear@?$_Hash@V?$_Umap_traits@V?$basic_string@DU?$char_traits@D@std@@V?$allocator@D@2@@std@@V12@V?$_Uhash_compare@V?$basic_string@DU?$char_traits@D@std@@V?$allocator@D@2@@std@@U?$hash@V?$basic_string@DU?$char_traits@D@std@@V?$allocator@D@2@@std@@@2@U?$equal_to@V?$basic_string@DU?$char_traits@D@std@@V?$allocator@D@2@@std@@@2@@2@V?$allocator@U?$pair@$$CBV?$basic_string@DU?$char_traits@D@std@@V?$allocator@D@2@@std@@V12@@std@@@2@$0A@@std@@@std@@QAEXXZ ; std::_Hash<std::_Umap_traits<std::basic_string<char,std::char_traits<char>,std::allocator<char> >,std::basic_string<char,std::char_traits<char>,std::allocator<char> >,std::_Uhash_compare<std::basic_string<char,std::char_traits<char>,std::allocator<char> >,std::hash<std::basic_string<char,std::char_traits<char>,std::allocator<char> > >,std::equal_to<std::basic_string<char,std::char_traits<char>,std::allocator<char> > > >,std::allocator<std::pair<std::basic_string<char,std::char_traits<char>,std::allocator<char> > const ,std::basic_string<char,std::char_traits<char>,std::allocator<char> > > >,0> >::clear
PUBLIC	?_Unchecked_begin@?$list@U?$pair@$$CBV?$basic_string@DU?$char_traits@D@std@@V?$allocator@D@2@@std@@V12@@std@@V?$allocator@U?$pair@$$CBV?$basic_string@DU?$char_traits@D@std@@V?$allocator@D@2@@std@@V12@@std@@@2@@std@@QAE?AV?$_List_unchecked_iterator@V?$_List_val@U?$_List_simple_types@U?$pair@$$CBV?$basic_string@DU?$char_traits@D@std@@V?$allocator@D@2@@std@@V12@@std@@@std@@@std@@@2@XZ ; std::list<std::pair<std::basic_string<char,std::char_traits<char>,std::allocator<char> > const ,std::basic_string<char,std::char_traits<char>,std::allocator<char> > >,std::allocator<std::pair<std::basic_string<char,std::char_traits<char>,std::allocator<char> > const ,std::basic_string<char,std::char_traits<char>,std::allocator<char> > > > >::_Unchecked_begin
PUBLIC	?_Get_first@?$_Compressed_pair@V?$allocator@U?$_List_node@U?$pair@$$CBV?$basic_string@DU?$char_traits@D@std@@V?$allocator@D@2@@std@@V12@@std@@PAX@std@@@std@@V?$_List_val@U?$_List_simple_types@U?$pair@$$CBV?$basic_string@DU?$char_traits@D@std@@V?$allocator@D@2@@std@@V12@@std@@@std@@@2@$00@std@@QBEABV?$allocator@U?$_List_node@U?$pair@$$CBV?$basic_string@DU?$char_traits@D@std@@V?$allocator@D@2@@std@@V12@@std@@PAX@std@@@2@XZ ; std::_Compressed_pair<std::allocator<std::_List_node<std::pair<std::basic_string<char,std::char_traits<char>,std::allocator<char> > const ,std::basic_string<char,std::char_traits<char>,std::allocator<char> > >,void *> >,std::_List_val<std::_List_simple_types<std::pair<std::basic_string<char,std::char_traits<char>,std::allocator<char> > const ,std::basic_string<char,std::char_traits<char>,std::allocator<char> > > > >,1>::_Get_first
PUBLIC	?max_size@?$_Default_allocator_traits@V?$allocator@V?$_List_unchecked_iterator@V?$_List_val@U?$_List_simple_types@U?$pair@$$CBV?$basic_string@DU?$char_traits@D@std@@V?$allocator@D@2@@std@@V12@@std@@@std@@@std@@@std@@@std@@@std@@SAIABV?$allocator@V?$_List_unchecked_iterator@V?$_List_val@U?$_List_simple_types@U?$pair@$$CBV?$basic_string@DU?$char_traits@D@std@@V?$allocator@D@2@@std@@V12@@std@@@std@@@std@@@std@@@2@@Z ; std::_Default_allocator_traits<std::allocator<std::_List_unchecked_iterator<std::_List_val<std::_List_simple_types<std::pair<std::basic_string<char,std::char_traits<char>,std::allocator<char> > const ,std::basic_string<char,std::char_traits<char>,std::allocator<char> > > > > > > >::max_size
PUBLIC	?_Get_first@?$_Compressed_pair@V?$allocator@V?$_List_unchecked_iterator@V?$_List_val@U?$_List_simple_types@U?$pair@$$CBV?$basic_string@DU?$char_traits@D@std@@V?$allocator@D@2@@std@@V12@@std@@@std@@@std@@@std@@@std@@V?$_Vector_val@U?$_Simple_types@V?$_List_unchecked_iterator@V?$_List_val@U?$_List_simple_types@U?$pair@$$CBV?$basic_string@DU?$char_traits@D@std@@V?$allocator@D@2@@std@@V12@@std@@@std@@@std@@@std@@@std@@@2@$00@std@@QBEABV?$allocator@V?$_List_unchecked_iterator@V?$_List_val@U?$_List_simple_types@U?$pair@$$CBV?$basic_string@DU?$char_traits@D@std@@V?$allocator@D@2@@std@@V12@@std@@@std@@@std@@@std@@@2@XZ ; std::_Compressed_pair<std::allocator<std::_List_unchecked_iterator<std::_List_val<std::_List_simple_types<std::pair<std::basic_string<char,std::char_traits<char>,std::allocator<char> > const ,std::basic_string<char,std::char_traits<char>,std::allocator<char> > > > > > >,std::_Vector_val<std::_Simple_types<std::_List_unchecked_iterator<std::_List_val<std::_List_simple_types<std::pair<std::basic_string<char,std::char_traits<char>,std::allocator<char> > const ,std::basic_string<char,std::char_traits<char>,std::allocator<char> > > > > > > >,1>::_Get_first
PUBLIC	??$addressof@PAV?$basic_string@DU?$char_traits@D@std@@V?$allocator@D@2@@std@@@std@@YAPAPAV?$basic_string@DU?$char_traits@D@std@@V?$allocator@D@2@@0@AAPAV10@@Z ; std::addressof<std::basic_string<char,std::char_traits<char>,std::allocator<char> > *>
PUBLIC	??0?$pair@$$CBV?$basic_string@DU?$char_traits@D@std@@V?$allocator@D@2@@std@@V12@@std@@QAE@ABU01@@Z ; std::pair<std::basic_string<char,std::char_traits<char>,std::allocator<char> > const ,std::basic_string<char,std::char_traits<char>,std::allocator<char> > >::pair<std::basic_string<char,std::char_traits<char>,std::allocator<char> > const ,std::basic_string<char,std::char_traits<char>,std::allocator<char> > >
PUBLIC	?_Unchecked_begin@?$_Hash@V?$_Umap_traits@V?$basic_string@DU?$char_traits@D@std@@V?$allocator@D@2@@std@@V12@V?$_Uhash_compare@V?$basic_string@DU?$char_traits@D@std@@V?$allocator@D@2@@std@@U?$hash@V?$basic_string@DU?$char_traits@D@std@@V?$allocator@D@2@@std@@@2@U?$equal_to@V?$basic_string@DU?$char_traits@D@std@@V?$allocator@D@2@@std@@@2@@2@V?$allocator@U?$pair@$$CBV?$basic_string@DU?$char_traits@D@std@@V?$allocator@D@2@@std@@V12@@std@@@2@$0A@@std@@@std@@QAE?AV?$_List_unchecked_iterator@V?$_List_val@U?$_List_simple_types@U?$pair@$$CBV?$basic_string@DU?$char_traits@D@std@@V?$allocator@D@2@@std@@V12@@std@@@std@@@std@@@2@XZ ; std::_Hash<std::_Umap_traits<std::basic_string<char,std::char_traits<char>,std::allocator<char> >,std::basic_string<char,std::char_traits<char>,std::allocator<char> >,std::_Uhash_compare<std::basic_string<char,std::char_traits<char>,std::allocator<char> >,std::hash<std::basic_string<char,std::char_traits<char>,std::allocator<char> > >,std::equal_to<std::basic_string<char,std::char_traits<char>,std::allocator<char> > > >,std::allocator<std::pair<std::basic_string<char,std::char_traits<char>,std::allocator<char> > const ,std::basic_string<char,std::char_traits<char>,std::allocator<char> > > >,0> >::_Unchecked_begin
PUBLIC	?_Unchecked_end@?$_Hash@V?$_Umap_traits@V?$basic_string@DU?$char_traits@D@std@@V?$allocator@D@2@@std@@V12@V?$_Uhash_compare@V?$basic_string@DU?$char_traits@D@std@@V?$allocator@D@2@@std@@U?$hash@V?$basic_string@DU?$char_traits@D@std@@V?$allocator@D@2@@std@@@2@U?$equal_to@V?$basic_string@DU?$char_traits@D@std@@V?$allocator@D@2@@std@@@2@@2@V?$allocator@U?$pair@$$CBV?$basic_string@DU?$char_traits@D@std@@V?$allocator@D@2@@std@@V12@@std@@@2@$0A@@std@@@std@@QAE?AV?$_List_unchecked_iterator@V?$_List_val@U?$_List_simple_types@U?$pair@$$CBV?$basic_string@DU?$char_traits@D@std@@V?$allocator@D@2@@std@@V12@@std@@@std@@@std@@@2@XZ ; std::_Hash<std::_Umap_traits<std::basic_string<char,std::char_traits<char>,std::allocator<char> >,std::basic_string<char,std::char_traits<char>,std::allocator<char> >,std::_Uhash_compare<std::basic_string<char,std::char_traits<char>,std::allocator<char> >,std::hash<std::basic_string<char,std::char_traits<char>,std::allocator<char> > >,std::equal_to<std::basic_string<char,std::char_traits<char>,std::allocator<char> > > >,std::allocator<std::pair<std::basic_string<char,std::char_traits<char>,std::allocator<char> > const ,std::basic_string<char,std::char_traits<char>,std::allocator<char> > > >,0> >::_Unchecked_end
PUBLIC	?bucket@?$_Hash@V?$_Umap_traits@V?$basic_string@DU?$char_traits@D@std@@V?$allocator@D@2@@std@@V12@V?$_Uhash_compare@V?$basic_string@DU?$char_traits@D@std@@V?$allocator@D@2@@std@@U?$hash@V?$basic_string@DU?$char_traits@D@std@@V?$allocator@D@2@@std@@@2@U?$equal_to@V?$basic_string@DU?$char_traits@D@std@@V?$allocator@D@2@@std@@@2@@2@V?$allocator@U?$pair@$$CBV?$basic_string@DU?$char_traits@D@std@@V?$allocator@D@2@@std@@V12@@std@@@2@$0A@@std@@@std@@QBEIABV?$basic_string@DU?$char_traits@D@std@@V?$allocator@D@2@@2@@Z ; std::_Hash<std::_Umap_traits<std::basic_string<char,std::char_traits<char>,std::allocator<char> >,std::basic_string<char,std::char_traits<char>,std::allocator<char> >,std::_Uhash_compare<std::basic_string<char,std::char_traits<char>,std::allocator<char> >,std::hash<std::basic_string<char,std::char_traits<char>,std::allocator<char> > >,std::equal_to<std::basic_string<char,std::char_traits<char>,std::allocator<char> > > >,std::allocator<std::pair<std::basic_string<char,std::char_traits<char>,std::allocator<char> > const ,std::basic_string<char,std::char_traits<char>,std::allocator<char> > > >,0> >::bucket
PUBLIC	?_Min_load_factor_buckets@?$_Hash@V?$_Umap_traits@V?$basic_string@DU?$char_traits@D@std@@V?$allocator@D@2@@std@@V12@V?$_Uhash_compare@V?$basic_string@DU?$char_traits@D@std@@V?$allocator@D@2@@std@@U?$hash@V?$basic_string@DU?$char_traits@D@std@@V?$allocator@D@2@@std@@@2@U?$equal_to@V?$basic_string@DU?$char_traits@D@std@@V?$allocator@D@2@@std@@@2@@2@V?$allocator@U?$pair@$$CBV?$basic_string@DU?$char_traits@D@std@@V?$allocator@D@2@@std@@V12@@std@@@2@$0A@@std@@@std@@IBEII@Z ; std::_Hash<std::_Umap_traits<std::basic_string<char,std::char_traits<char>,std::allocator<char> >,std::basic_string<char,std::char_traits<char>,std::allocator<char> >,std::_Uhash_compare<std::basic_string<char,std::char_traits<char>,std::allocator<char> >,std::hash<std::basic_string<char,std::char_traits<char>,std::allocator<char> > >,std::equal_to<std::basic_string<char,std::char_traits<char>,std::allocator<char> > > >,std::allocator<std::pair<std::basic_string<char,std::char_traits<char>,std::allocator<char> > const ,std::basic_string<char,std::char_traits<char>,std::allocator<char> > > >,0> >::_Min_load_factor_buckets
PUBLIC	?_Max_bucket_size@?$_Hash@V?$_Umap_traits@V?$basic_string@DU?$char_traits@D@std@@V?$allocator@D@2@@std@@V12@V?$_Uhash_compare@V?$basic_string@DU?$char_traits@D@std@@V?$allocator@D@2@@std@@U?$hash@V?$basic_string@DU?$char_traits@D@std@@V?$allocator@D@2@@std@@@2@U?$equal_to@V?$basic_string@DU?$char_traits@D@std@@V?$allocator@D@2@@std@@@2@@2@V?$allocator@U?$pair@$$CBV?$basic_string@DU?$char_traits@D@std@@V?$allocator@D@2@@std@@V12@@std@@@2@$0A@@std@@@std@@IBEABMXZ ; std::_Hash<std::_Umap_traits<std::basic_string<char,std::char_traits<char>,std::allocator<char> >,std::basic_string<char,std::char_traits<char>,std::allocator<char> >,std::_Uhash_compare<std::basic_string<char,std::char_traits<char>,std::allocator<char> >,std::hash<std::basic_string<char,std::char_traits<char>,std::allocator<char> > >,std::equal_to<std::basic_string<char,std::char_traits<char>,std::allocator<char> > > >,std::allocator<std::pair<std::basic_string<char,std::char_traits<char>,std::allocator<char> > const ,std::basic_string<char,std::char_traits<char>,std::allocator<char> > > >,0> >::_Max_bucket_size
PUBLIC	?_Getal@?$list@U?$pair@$$CBV?$basic_string@DU?$char_traits@D@std@@V?$allocator@D@2@@std@@V12@@std@@V?$allocator@U?$pair@$$CBV?$basic_string@DU?$char_traits@D@std@@V?$allocator@D@2@@std@@V12@@std@@@2@@std@@ABEABV?$allocator@U?$_List_node@U?$pair@$$CBV?$basic_string@DU?$char_traits@D@std@@V?$allocator@D@2@@std@@V12@@std@@PAX@std@@@2@XZ ; std::list<std::pair<std::basic_string<char,std::char_traits<char>,std::allocator<char> > const ,std::basic_string<char,std::char_traits<char>,std::allocator<char> > >,std::allocator<std::pair<std::basic_string<char,std::char_traits<char>,std::allocator<char> > const ,std::basic_string<char,std::char_traits<char>,std::allocator<char> > > > >::_Getal
PUBLIC	?max_size@?$_Default_allocator_traits@V?$allocator@U?$_List_node@U?$pair@$$CBV?$basic_string@DU?$char_traits@D@std@@V?$allocator@D@2@@std@@V12@@std@@PAX@std@@@std@@@std@@SAIABV?$allocator@U?$_List_node@U?$pair@$$CBV?$basic_string@DU?$char_traits@D@std@@V?$allocator@D@2@@std@@V12@@std@@PAX@std@@@2@@Z ; std::_Default_allocator_traits<std::allocator<std::_List_node<std::pair<std::basic_string<char,std::char_traits<char>,std::allocator<char> > const ,std::basic_string<char,std::char_traits<char>,std::allocator<char> > >,void *> > >::max_size
PUBLIC	?_Unchecked_splice@?$_List_val@U?$_List_simple_types@U?$pair@$$CBV?$basic_string@DU?$char_traits@D@std@@V?$allocator@D@2@@std@@V12@@std@@@std@@@std@@SAPAU?$_List_node@U?$pair@$$CBV?$basic_string@DU?$char_traits@D@std@@V?$allocator@D@2@@std@@V12@@std@@PAX@2@QAU32@00@Z ; std::_List_val<std::_List_simple_types<std::pair<std::basic_string<char,std::char_traits<char>,std::allocator<char> > const ,std::basic_string<char,std::char_traits<char>,std::allocator<char> > > > >::_Unchecked_splice
PUBLIC	??D?$_List_unchecked_iterator@V?$_List_val@U?$_List_simple_types@U?$pair@$$CBV?$basic_string@DU?$char_traits@D@std@@V?$allocator@D@2@@std@@V12@@std@@@std@@@std@@@std@@QBEAAU?$pair@$$CBV?$basic_string@DU?$char_traits@D@std@@V?$allocator@D@2@@std@@V12@@1@XZ ; std::_List_unchecked_iterator<std::_List_val<std::_List_simple_types<std::pair<std::basic_string<char,std::char_traits<char>,std::allocator<char> > const ,std::basic_string<char,std::char_traits<char>,std::allocator<char> > > > > >::operator*
PUBLIC	??E?$_List_unchecked_iterator@V?$_List_val@U?$_List_simple_types@U?$pair@$$CBV?$basic_string@DU?$char_traits@D@std@@V?$allocator@D@2@@std@@V12@@std@@@std@@@std@@@std@@QAEAAV01@XZ ; std::_List_unchecked_iterator<std::_List_val<std::_List_simple_types<std::pair<std::basic_string<char,std::char_traits<char>,std::allocator<char> > const ,std::basic_string<char,std::char_traits<char>,std::allocator<char> > > > > >::operator++
PUBLIC	??D?$_List_unchecked_const_iterator@V?$_List_val@U?$_List_simple_types@U?$pair@$$CBV?$basic_string@DU?$char_traits@D@std@@V?$allocator@D@2@@std@@V12@@std@@@std@@@std@@U_Iterator_base0@2@@std@@QBEABU?$pair@$$CBV?$basic_string@DU?$char_traits@D@std@@V?$allocator@D@2@@std@@V12@@1@XZ ; std::_List_unchecked_const_iterator<std::_List_val<std::_List_simple_types<std::pair<std::basic_string<char,std::char_traits<char>,std::allocator<char> > const ,std::basic_string<char,std::char_traits<char>,std::allocator<char> > > > >,std::_Iterator_base0>::operator*
PUBLIC	??E?$_List_unchecked_const_iterator@V?$_List_val@U?$_List_simple_types@U?$pair@$$CBV?$basic_string@DU?$char_traits@D@std@@V?$allocator@D@2@@std@@V12@@std@@@std@@@std@@U_Iterator_base0@2@@std@@QAEAAV01@XZ ; std::_List_unchecked_const_iterator<std::_List_val<std::_List_simple_types<std::pair<std::basic_string<char,std::char_traits<char>,std::allocator<char> > const ,std::basic_string<char,std::char_traits<char>,std::allocator<char> > > > >,std::_Iterator_base0>::operator++
PUBLIC	??F?$_List_unchecked_const_iterator@V?$_List_val@U?$_List_simple_types@U?$pair@$$CBV?$basic_string@DU?$char_traits@D@std@@V?$allocator@D@2@@std@@V12@@std@@@std@@@std@@U_Iterator_base0@2@@std@@QAEAAV01@XZ ; std::_List_unchecked_const_iterator<std::_List_val<std::_List_simple_types<std::pair<std::basic_string<char,std::char_traits<char>,std::allocator<char> > const ,std::basic_string<char,std::char_traits<char>,std::allocator<char> > > > >,std::_Iterator_base0>::operator--
PUBLIC	??8?$_List_unchecked_const_iterator@V?$_List_val@U?$_List_simple_types@U?$pair@$$CBV?$basic_string@DU?$char_traits@D@std@@V?$allocator@D@2@@std@@V12@@std@@@std@@@std@@U_Iterator_base0@2@@std@@QBE_NABV01@@Z ; std::_List_unchecked_const_iterator<std::_List_val<std::_List_simple_types<std::pair<std::basic_string<char,std::char_traits<char>,std::allocator<char> > const ,std::basic_string<char,std::char_traits<char>,std::allocator<char> > > > >,std::_Iterator_base0>::operator==
PUBLIC	??0_Clear_guard@?$_Hash@V?$_Umap_traits@V?$basic_string@DU?$char_traits@D@std@@V?$allocator@D@2@@std@@V12@V?$_Uhash_compare@V?$basic_string@DU?$char_traits@D@std@@V?$allocator@D@2@@std@@U?$hash@V?$basic_string@DU?$char_traits@D@std@@V?$allocator@D@2@@std@@@2@U?$equal_to@V?$basic_string@DU?$char_traits@D@std@@V?$allocator@D@2@@std@@@2@@2@V?$allocator@U?$pair@$$CBV?$basic_string@DU?$char_traits@D@std@@V?$allocator@D@2@@std@@V12@@std@@@2@$0A@@std@@@std@@QAE@QAV12@@Z ; std::_Hash<std::_Umap_traits<std::basic_string<char,std::char_traits<char>,std::allocator<char> >,std::basic_string<char,std::char_traits<char>,std::allocator<char> >,std::_Uhash_compare<std::basic_string<char,std::char_traits<char>,std::allocator<char> >,std::hash<std::basic_string<char,std::char_traits<char>,std::allocator<char> > >,std::equal_to<std::basic_string<char,std::char_traits<char>,std::allocator<char> > > >,std::allocator<std::pair<std::basic_string<char,std::char_traits<char>,std::allocator<char> > const ,std::basic_string<char,std::char_traits<char>,std::allocator<char> > > >,0> >::_Clear_guard::_Clear_guard
PUBLIC	??1_Clear_guard@?$_Hash@V?$_Umap_traits@V?$basic_string@DU?$char_traits@D@std@@V?$allocator@D@2@@std@@V12@V?$_Uhash_compare@V?$basic_string@DU?$char_traits@D@std@@V?$allocator@D@2@@std@@U?$hash@V?$basic_string@DU?$char_traits@D@std@@V?$allocator@D@2@@std@@@2@U?$equal_to@V?$basic_string@DU?$char_traits@D@std@@V?$allocator@D@2@@std@@@2@@2@V?$allocator@U?$pair@$$CBV?$basic_string@DU?$char_traits@D@std@@V?$allocator@D@2@@std@@V12@@std@@@2@$0A@@std@@@std@@QAE@XZ ; std::_Hash<std::_Umap_traits<std::basic_string<char,std::char_traits<char>,std::allocator<char> >,std::basic_string<char,std::char_traits<char>,std::allocator<char> >,std::_Uhash_compare<std::basic_string<char,std::char_traits<char>,std::allocator<char> >,std::hash<std::basic_string<char,std::char_traits<char>,std::allocator<char> > >,std::equal_to<std::basic_string<char,std::char_traits<char>,std::allocator<char> > > >,std::allocator<std::pair<std::basic_string<char,std::char_traits<char>,std::allocator<char> > const ,std::basic_string<char,std::char_traits<char>,std::allocator<char> > > >,0> >::_Clear_guard::~_Clear_guard
PUBLIC	?max_size@?$_Hash_vec@V?$allocator@V?$_List_unchecked_iterator@V?$_List_val@U?$_List_simple_types@U?$pair@$$CBV?$basic_string@DU?$char_traits@D@std@@V?$allocator@D@2@@std@@V12@@std@@@std@@@std@@@std@@@std@@@std@@QBEIXZ ; std::_Hash_vec<std::allocator<std::_List_unchecked_iterator<std::_List_val<std::_List_simple_types<std::pair<std::basic_string<char,std::char_traits<char>,std::allocator<char> > const ,std::basic_string<char,std::char_traits<char>,std::allocator<char> > > > > > > >::max_size
PUBLIC	??$construct_at@PAU?$_List_node@U?$pair@$$CBV?$basic_string@DU?$char_traits@D@std@@V?$allocator@D@2@@std@@V12@@std@@PAX@std@@ABQAU12@@std@@YAPAPAU?$_List_node@U?$pair@$$CBV?$basic_string@DU?$char_traits@D@std@@V?$allocator@D@2@@std@@V12@@std@@PAX@0@QAPAU10@ABQAU10@@Z ; std::construct_at<std::_List_node<std::pair<std::basic_string<char,std::char_traits<char>,std::allocator<char> > const ,std::basic_string<char,std::char_traits<char>,std::allocator<char> > >,void *> *,std::_List_node<std::pair<std::basic_string<char,std::char_traits<char>,std::allocator<char> > const ,std::basic_string<char,std::char_traits<char>,std::allocator<char> > >,void *> * const &>
PUBLIC	??$forward@ABQAU?$_List_node@U?$pair@$$CBV?$basic_string@DU?$char_traits@D@std@@V?$allocator@D@2@@std@@V12@@std@@PAX@std@@@std@@YAABQAU?$_List_node@U?$pair@$$CBV?$basic_string@DU?$char_traits@D@std@@V?$allocator@D@2@@std@@V12@@std@@PAX@0@ABQAU10@@Z ; std::forward<std::_List_node<std::pair<std::basic_string<char,std::char_traits<char>,std::allocator<char> > const ,std::basic_string<char,std::char_traits<char>,std::allocator<char> > >,void *> * const &>
PUBLIC	??$_Construct_in_place_by_deref@PAV?$basic_string@DU?$char_traits@D@std@@V?$allocator@D@2@@std@@PAPAV12@@std@@YAXAAPAV?$basic_string@DU?$char_traits@D@std@@V?$allocator@D@2@@0@AAPAPAV10@@Z ; std::_Construct_in_place_by_deref<std::basic_string<char,std::char_traits<char>,std::allocator<char> > *,std::basic_string<char,std::char_traits<char>,std::allocator<char> > * *>
PUBLIC	??$_Copy_memmove_tail@PAPAV?$basic_string@DU?$char_traits@D@std@@V?$allocator@D@2@@std@@@std@@YAPAPAV?$basic_string@DU?$char_traits@D@std@@V?$allocator@D@2@@0@QBDQAPAV10@II@Z ; std::_Copy_memmove_tail<std::basic_string<char,std::char_traits<char>,std::allocator<char> > * *>
PUBLIC	??$move@AAPAPAV?$basic_string@DU?$char_traits@D@std@@V?$allocator@D@2@@std@@@std@@YA$$QAPAPAV?$basic_string@DU?$char_traits@D@std@@V?$allocator@D@2@@0@AAPAPAV10@@Z ; std::move<std::basic_string<char,std::char_traits<char>,std::allocator<char> > * * &>
PUBLIC	??$construct_at@V?$_List_unchecked_iterator@V?$_List_val@U?$_List_simple_types@U?$pair@$$CBV?$basic_string@DU?$char_traits@D@std@@V?$allocator@D@2@@std@@V12@@std@@@std@@@std@@@std@@ABV12@@std@@YAPAV?$_List_unchecked_iterator@V?$_List_val@U?$_List_simple_types@U?$pair@$$CBV?$basic_string@DU?$char_traits@D@std@@V?$allocator@D@2@@std@@V12@@std@@@std@@@std@@@0@QAV10@ABV10@@Z ; std::construct_at<std::_List_unchecked_iterator<std::_List_val<std::_List_simple_types<std::pair<std::basic_string<char,std::char_traits<char>,std::allocator<char> > const ,std::basic_string<char,std::char_traits<char>,std::allocator<char> > > > > >,std::_List_unchecked_iterator<std::_List_val<std::_List_simple_types<std::pair<std::basic_string<char,std::char_traits<char>,std::allocator<char> > const ,std::basic_string<char,std::char_traits<char>,std::allocator<char> > > > > > const &>
PUBLIC	??$addressof@V?$_List_unchecked_iterator@V?$_List_val@U?$_List_simple_types@U?$pair@$$CBV?$basic_string@DU?$char_traits@D@std@@V?$allocator@D@2@@std@@V12@@std@@@std@@@std@@@std@@@std@@YAPAV?$_List_unchecked_iterator@V?$_List_val@U?$_List_simple_types@U?$pair@$$CBV?$basic_string@DU?$char_traits@D@std@@V?$allocator@D@2@@std@@V12@@std@@@std@@@std@@@0@AAV10@@Z ; std::addressof<std::_List_unchecked_iterator<std::_List_val<std::_List_simple_types<std::pair<std::basic_string<char,std::char_traits<char>,std::allocator<char> > const ,std::basic_string<char,std::char_traits<char>,std::allocator<char> > > > > > >
PUBLIC	??$construct_at@U?$pair@$$CBV?$basic_string@DU?$char_traits@D@std@@V?$allocator@D@2@@std@@V12@@std@@ABU12@@std@@YAPAU?$pair@$$CBV?$basic_string@DU?$char_traits@D@std@@V?$allocator@D@2@@std@@V12@@0@QAU10@ABU10@@Z ; std::construct_at<std::pair<std::basic_string<char,std::char_traits<char>,std::allocator<char> > const ,std::basic_string<char,std::char_traits<char>,std::allocator<char> > >,std::pair<std::basic_string<char,std::char_traits<char>,std::allocator<char> > const ,std::basic_string<char,std::char_traits<char>,std::allocator<char> > > const &>
PUBLIC	??$construct_at@Upacket_offline_shop_item@@U1@@std@@YAPAUpacket_offline_shop_item@@QAU1@$$QAU1@@Z ; std::construct_at<packet_offline_shop_item,packet_offline_shop_item>
PUBLIC	??$construct_at@DD@std@@YAPADQAD$$QAD@Z		; std::construct_at<char,char>
PUBLIC	??$construct_at@USIShopLogData@@U1@@std@@YAPAUSIShopLogData@@QAU1@$$QAU1@@Z ; std::construct_at<SIShopLogData,SIShopLogData>
PUBLIC	??_G?$pair@$$CBV?$basic_string@DU?$char_traits@D@std@@V?$allocator@D@2@@std@@V12@@std@@QAEPAXI@Z ; std::pair<std::basic_string<char,std::char_traits<char>,std::allocator<char> > const ,std::basic_string<char,std::char_traits<char>,std::allocator<char> > >::`scalar deleting destructor'
PUBLIC	?_Get_first@?$_Compressed_pair@V?$allocator@V?$basic_string@DU?$char_traits@D@std@@V?$allocator@D@2@@std@@@std@@V?$_Deque_val@U?$_Deque_simple_types@V?$basic_string@DU?$char_traits@D@std@@V?$allocator@D@2@@std@@@std@@@2@$00@std@@QBEABV?$allocator@V?$basic_string@DU?$char_traits@D@std@@V?$allocator@D@2@@std@@@2@XZ ; std::_Compressed_pair<std::allocator<std::basic_string<char,std::char_traits<char>,std::allocator<char> > >,std::_Deque_val<std::_Deque_simple_types<std::basic_string<char,std::char_traits<char>,std::allocator<char> > > >,1>::_Get_first
PUBLIC	?_Get_first@?$_Compressed_pair@V?$allocator@Upacket_offline_shop_item@@@std@@V?$_Vector_val@U?$_Simple_types@Upacket_offline_shop_item@@@std@@@2@$00@std@@QBEABV?$allocator@Upacket_offline_shop_item@@@2@XZ ; std::_Compressed_pair<std::allocator<packet_offline_shop_item>,std::_Vector_val<std::_Simple_types<packet_offline_shop_item> >,1>::_Get_first
PUBLIC	?bucket_count@?$_Hash@V?$_Umap_traits@V?$basic_string@DU?$char_traits@D@std@@V?$allocator@D@2@@std@@V12@V?$_Uhash_compare@V?$basic_string@DU?$char_traits@D@std@@V?$allocator@D@2@@std@@U?$hash@V?$basic_string@DU?$char_traits@D@std@@V?$allocator@D@2@@std@@@2@U?$equal_to@V?$basic_string@DU?$char_traits@D@std@@V?$allocator@D@2@@std@@@2@@2@V?$allocator@U?$pair@$$CBV?$basic_string@DU?$char_traits@D@std@@V?$allocator@D@2@@std@@V12@@std@@@2@$0A@@std@@@std@@QBEIXZ ; std::_Hash<std::_Umap_traits<std::basic_string<char,std::char_traits<char>,std::allocator<char> >,std::basic_string<char,std::char_traits<char>,std::allocator<char> >,std::_Uhash_compare<std::basic_string<char,std::char_traits<char>,std::allocator<char> >,std::hash<std::basic_string<char,std::char_traits<char>,std::allocator<char> > >,std::equal_to<std::basic_string<char,std::char_traits<char>,std::allocator<char> > > >,std::allocator<std::pair<std::basic_string<char,std::char_traits<char>,std::allocator<char> > const ,std::basic_string<char,std::char_traits<char>,std::allocator<char> > > >,0> >::bucket_count
PUBLIC	?max_load_factor@?$_Hash@V?$_Umap_traits@V?$basic_string@DU?$char_traits@D@std@@V?$allocator@D@2@@std@@V12@V?$_Uhash_compare@V?$basic_string@DU?$char_traits@D@std@@V?$allocator@D@2@@std@@U?$hash@V?$basic_string@DU?$char_traits@D@std@@V?$allocator@D@2@@std@@@2@U?$equal_to@V?$basic_string@DU?$char_traits@D@std@@V?$allocator@D@2@@std@@@2@@2@V?$allocator@U?$pair@$$CBV?$basic_string@DU?$char_traits@D@std@@V?$allocator@D@2@@std@@V12@@std@@@2@$0A@@std@@@std@@QBEMXZ ; std::_Hash<std::_Umap_traits<std::basic_string<char,std::char_traits<char>,std::allocator<char> >,std::basic_string<char,std::char_traits<char>,std::allocator<char> >,std::_Uhash_compare<std::basic_string<char,std::char_traits<char>,std::allocator<char> >,std::hash<std::basic_string<char,std::char_traits<char>,std::allocator<char> > >,std::equal_to<std::basic_string<char,std::char_traits<char>,std::allocator<char> > > >,std::allocator<std::pair<std::basic_string<char,std::char_traits<char>,std::allocator<char> > const ,std::basic_string<char,std::char_traits<char>,std::allocator<char> > > >,0> >::max_load_factor
PUBLIC	?_Desired_grow_bucket_count@?$_Hash@V?$_Umap_traits@V?$basic_string@DU?$char_traits@D@std@@V?$allocator@D@2@@std@@V12@V?$_Uhash_compare@V?$basic_string@DU?$char_traits@D@std@@V?$allocator@D@2@@std@@U?$hash@V?$basic_string@DU?$char_traits@D@std@@V?$allocator@D@2@@std@@@2@U?$equal_to@V?$basic_string@DU?$char_traits@D@std@@V?$allocator@D@2@@std@@@2@@2@V?$allocator@U?$pair@$$CBV?$basic_string@DU?$char_traits@D@std@@V?$allocator@D@2@@std@@V12@@std@@@2@$0A@@std@@@std@@IBEII@Z ; std::_Hash<std::_Umap_traits<std::basic_string<char,std::char_traits<char>,std::allocator<char> >,std::basic_string<char,std::char_traits<char>,std::allocator<char> >,std::_Uhash_compare<std::basic_string<char,std::char_traits<char>,std::allocator<char> >,std::hash<std::basic_string<char,std::char_traits<char>,std::allocator<char> > >,std::equal_to<std::basic_string<char,std::char_traits<char>,std::allocator<char> > > >,std::allocator<std::pair<std::basic_string<char,std::char_traits<char>,std::allocator<char> > const ,std::basic_string<char,std::char_traits<char>,std::allocator<char> > > >,0> >::_Desired_grow_bucket_count
PUBLIC	?_Forced_rehash@?$_Hash@V?$_Umap_traits@V?$basic_string@DU?$char_traits@D@std@@V?$allocator@D@2@@std@@V12@V?$_Uhash_compare@V?$basic_string@DU?$char_traits@D@std@@V?$allocator@D@2@@std@@U?$hash@V?$basic_string@DU?$char_traits@D@std@@V?$allocator@D@2@@std@@@2@U?$equal_to@V?$basic_string@DU?$char_traits@D@std@@V?$allocator@D@2@@std@@@2@@2@V?$allocator@U?$pair@$$CBV?$basic_string@DU?$char_traits@D@std@@V?$allocator@D@2@@std@@V12@@std@@@2@$0A@@std@@@std@@IAEXI@Z ; std::_Hash<std::_Umap_traits<std::basic_string<char,std::char_traits<char>,std::allocator<char> >,std::basic_string<char,std::char_traits<char>,std::allocator<char> >,std::_Uhash_compare<std::basic_string<char,std::char_traits<char>,std::allocator<char> >,std::hash<std::basic_string<char,std::char_traits<char>,std::allocator<char> > >,std::equal_to<std::basic_string<char,std::char_traits<char>,std::allocator<char> > > >,std::allocator<std::pair<std::basic_string<char,std::char_traits<char>,std::allocator<char> > const ,std::basic_string<char,std::char_traits<char>,std::allocator<char> > > >,0> >::_Forced_rehash
PUBLIC	?max_size@?$list@U?$pair@$$CBV?$basic_string@DU?$char_traits@D@std@@V?$allocator@D@2@@std@@V12@@std@@V?$allocator@U?$pair@$$CBV?$basic_string@DU?$char_traits@D@std@@V?$allocator@D@2@@std@@V12@@std@@@2@@std@@QBEIXZ ; std::list<std::pair<std::basic_string<char,std::char_traits<char>,std::allocator<char> > const ,std::basic_string<char,std::char_traits<char>,std::allocator<char> > >,std::allocator<std::pair<std::basic_string<char,std::char_traits<char>,std::allocator<char> > const ,std::basic_string<char,std::char_traits<char>,std::allocator<char> > > > >::max_size
PUBLIC	?_Get_first@?$_Compressed_pair@V?$allocator@D@std@@V?$_Vector_val@U?$_Simple_types@D@std@@@2@$00@std@@QBEABV?$allocator@D@2@XZ ; std::_Compressed_pair<std::allocator<char>,std::_Vector_val<std::_Simple_types<char> >,1>::_Get_first
PUBLIC	?_Get_first@?$_Compressed_pair@V?$allocator@USIShopLogData@@@std@@V?$_Vector_val@U?$_Simple_types@USIShopLogData@@@std@@@2@$00@std@@QBEABV?$allocator@USIShopLogData@@@2@XZ ; std::_Compressed_pair<std::allocator<SIShopLogData>,std::_Vector_val<std::_Simple_types<SIShopLogData> >,1>::_Get_first
PUBLIC	??0?$_Alloc_construct_ptr@V?$allocator@U?$_List_node@U?$pair@$$CBV?$basic_string@DU?$char_traits@D@std@@V?$allocator@D@2@@std@@V12@@std@@PAX@std@@@std@@@std@@QAE@AAV?$allocator@U?$_List_node@U?$pair@$$CBV?$basic_string@DU?$char_traits@D@std@@V?$allocator@D@2@@std@@V12@@std@@PAX@std@@@1@@Z ; std::_Alloc_construct_ptr<std::allocator<std::_List_node<std::pair<std::basic_string<char,std::char_traits<char>,std::allocator<char> > const ,std::basic_string<char,std::char_traits<char>,std::allocator<char> > >,void *> > >::_Alloc_construct_ptr<std::allocator<std::_List_node<std::pair<std::basic_string<char,std::char_traits<char>,std::allocator<char> > const ,std::basic_string<char,std::char_traits<char>,std::allocator<char> > >,void *> > >
PUBLIC	?_Allocate@?$_Alloc_construct_ptr@V?$allocator@U?$_List_node@U?$pair@$$CBV?$basic_string@DU?$char_traits@D@std@@V?$allocator@D@2@@std@@V12@@std@@PAX@std@@@std@@@std@@QAEXXZ ; std::_Alloc_construct_ptr<std::allocator<std::_List_node<std::pair<std::basic_string<char,std::char_traits<char>,std::allocator<char> > const ,std::basic_string<char,std::char_traits<char>,std::allocator<char> > >,void *> > >::_Allocate
PUBLIC	??1?$_Alloc_construct_ptr@V?$allocator@U?$_List_node@U?$pair@$$CBV?$basic_string@DU?$char_traits@D@std@@V?$allocator@D@2@@std@@V12@@std@@PAX@std@@@std@@@std@@QAE@XZ ; std::_Alloc_construct_ptr<std::allocator<std::_List_node<std::pair<std::basic_string<char,std::char_traits<char>,std::allocator<char> > const ,std::basic_string<char,std::char_traits<char>,std::allocator<char> > >,void *> > >::~_Alloc_construct_ptr<std::allocator<std::_List_node<std::pair<std::basic_string<char,std::char_traits<char>,std::allocator<char> > const ,std::basic_string<char,std::char_traits<char>,std::allocator<char> > >,void *> > >
PUBLIC	??0?$_Uninitialized_backout@PAPAV?$basic_string@DU?$char_traits@D@std@@V?$allocator@D@2@@std@@@std@@QAE@PAPAV?$basic_string@DU?$char_traits@D@std@@V?$allocator@D@2@@1@@Z ; std::_Uninitialized_backout<std::basic_string<char,std::char_traits<char>,std::allocator<char> > * *>::_Uninitialized_backout<std::basic_string<char,std::char_traits<char>,std::allocator<char> > * *>
PUBLIC	??1?$_Uninitialized_backout@PAPAV?$basic_string@DU?$char_traits@D@std@@V?$allocator@D@2@@std@@@std@@QAE@XZ ; std::_Uninitialized_backout<std::basic_string<char,std::char_traits<char>,std::allocator<char> > * *>::~_Uninitialized_backout<std::basic_string<char,std::char_traits<char>,std::allocator<char> > * *>
PUBLIC	?_Release@?$_Uninitialized_backout@PAPAV?$basic_string@DU?$char_traits@D@std@@V?$allocator@D@2@@std@@@std@@QAEPAPAV?$basic_string@DU?$char_traits@D@std@@V?$allocator@D@2@@2@XZ ; std::_Uninitialized_backout<std::basic_string<char,std::char_traits<char>,std::allocator<char> > * *>::_Release
PUBLIC	??$_Get_size_of_n@$0HA@@std@@YAII@Z		; std::_Get_size_of_n<112>
PUBLIC	??$_Construct_in_place@PAU?$_List_node@U?$pair@$$CBV?$basic_string@DU?$char_traits@D@std@@V?$allocator@D@2@@std@@V12@@std@@PAX@std@@ABQAU12@@std@@YAXAAPAU?$_List_node@U?$pair@$$CBV?$basic_string@DU?$char_traits@D@std@@V?$allocator@D@2@@std@@V12@@std@@PAX@0@ABQAU10@@Z ; std::_Construct_in_place<std::_List_node<std::pair<std::basic_string<char,std::char_traits<char>,std::allocator<char> > const ,std::basic_string<char,std::char_traits<char>,std::allocator<char> > >,void *> *,std::_List_node<std::pair<std::basic_string<char,std::char_traits<char>,std::allocator<char> > const ,std::basic_string<char,std::char_traits<char>,std::allocator<char> > >,void *> * const &>
PUBLIC	??$_Get_size_of_n@$0HC@@std@@YAII@Z		; std::_Get_size_of_n<114>
PUBLIC	??$exchange@PAU?$_List_node@U?$pair@$$CBV?$basic_string@DU?$char_traits@D@std@@V?$allocator@D@2@@std@@V12@@std@@PAX@std@@$$T@std@@YAPAU?$_List_node@U?$pair@$$CBV?$basic_string@DU?$char_traits@D@std@@V?$allocator@D@2@@std@@V12@@std@@PAX@0@AAPAU10@$$QA$$T@Z ; std::exchange<std::_List_node<std::pair<std::basic_string<char,std::char_traits<char>,std::allocator<char> > const ,std::basic_string<char,std::char_traits<char>,std::allocator<char> > >,void *> *,std::nullptr_t>
PUBLIC	??$construct_at@PAU?$_List_node@U?$pair@$$CBV?$basic_string@DU?$char_traits@D@std@@V?$allocator@D@2@@std@@V12@@std@@PAX@std@@AAPAU12@@std@@YAPAPAU?$_List_node@U?$pair@$$CBV?$basic_string@DU?$char_traits@D@std@@V?$allocator@D@2@@std@@V12@@std@@PAX@0@QAPAU10@AAPAU10@@Z ; std::construct_at<std::_List_node<std::pair<std::basic_string<char,std::char_traits<char>,std::allocator<char> > const ,std::basic_string<char,std::char_traits<char>,std::allocator<char> > >,void *> *,std::_List_node<std::pair<std::basic_string<char,std::char_traits<char>,std::allocator<char> > const ,std::basic_string<char,std::char_traits<char>,std::allocator<char> > >,void *> * &>
PUBLIC	??$forward@AAPAU?$_List_node@U?$pair@$$CBV?$basic_string@DU?$char_traits@D@std@@V?$allocator@D@2@@std@@V12@@std@@PAX@std@@@std@@YAAAPAU?$_List_node@U?$pair@$$CBV?$basic_string@DU?$char_traits@D@std@@V?$allocator@D@2@@std@@V12@@std@@PAX@0@AAPAU10@@Z ; std::forward<std::_List_node<std::pair<std::basic_string<char,std::char_traits<char>,std::allocator<char> > const ,std::basic_string<char,std::char_traits<char>,std::allocator<char> > >,void *> * &>
PUBLIC	??$addressof@PAU?$_List_node@U?$pair@$$CBV?$basic_string@DU?$char_traits@D@std@@V?$allocator@D@2@@std@@V12@@std@@PAX@std@@@std@@YAPAPAU?$_List_node@U?$pair@$$CBV?$basic_string@DU?$char_traits@D@std@@V?$allocator@D@2@@std@@V12@@std@@PAX@0@AAPAU10@@Z ; std::addressof<std::_List_node<std::pair<std::basic_string<char,std::char_traits<char>,std::allocator<char> > const ,std::basic_string<char,std::char_traits<char>,std::allocator<char> > >,void *> *>
PUBLIC	??$to_address@PAV?$basic_string@DU?$char_traits@D@std@@V?$allocator@D@2@@std@@@std@@YAPAPAV?$basic_string@DU?$char_traits@D@std@@V?$allocator@D@2@@0@QAPAV10@@Z ; std::to_address<std::basic_string<char,std::char_traits<char>,std::allocator<char> > *>
PUBLIC	??$forward@PAPAV?$basic_string@DU?$char_traits@D@std@@V?$allocator@D@2@@std@@@std@@YA$$QAPAPAV?$basic_string@DU?$char_traits@D@std@@V?$allocator@D@2@@0@AAPAPAV10@@Z ; std::forward<std::basic_string<char,std::char_traits<char>,std::allocator<char> > * *>
PUBLIC	??$_Emplace_back_deref@PAPAV?$basic_string@DU?$char_traits@D@std@@V?$allocator@D@2@@std@@@?$_Uninitialized_backout@PAPAV?$basic_string@DU?$char_traits@D@std@@V?$allocator@D@2@@std@@@std@@QAEXAAPAPAV?$basic_string@DU?$char_traits@D@std@@V?$allocator@D@2@@1@@Z ; std::_Uninitialized_backout<std::basic_string<char,std::char_traits<char>,std::allocator<char> > * *>::_Emplace_back_deref<std::basic_string<char,std::char_traits<char>,std::allocator<char> > * *>
PUBLIC	??$_Copy_memmove@PAPAV?$basic_string@DU?$char_traits@D@std@@V?$allocator@D@2@@std@@PAPAV12@@std@@YAPAPAV?$basic_string@DU?$char_traits@D@std@@V?$allocator@D@2@@0@PAPAV10@00@Z ; std::_Copy_memmove<std::basic_string<char,std::char_traits<char>,std::allocator<char> > * *,std::basic_string<char,std::char_traits<char>,std::allocator<char> > * *>
PUBLIC	??$_Construct_in_place@V?$_List_unchecked_iterator@V?$_List_val@U?$_List_simple_types@U?$pair@$$CBV?$basic_string@DU?$char_traits@D@std@@V?$allocator@D@2@@std@@V12@@std@@@std@@@std@@@std@@ABV12@@std@@YAXAAV?$_List_unchecked_iterator@V?$_List_val@U?$_List_simple_types@U?$pair@$$CBV?$basic_string@DU?$char_traits@D@std@@V?$allocator@D@2@@std@@V12@@std@@@std@@@std@@@0@ABV10@@Z ; std::_Construct_in_place<std::_List_unchecked_iterator<std::_List_val<std::_List_simple_types<std::pair<std::basic_string<char,std::char_traits<char>,std::allocator<char> > const ,std::basic_string<char,std::char_traits<char>,std::allocator<char> > > > > >,std::_List_unchecked_iterator<std::_List_val<std::_List_simple_types<std::pair<std::basic_string<char,std::char_traits<char>,std::allocator<char> > const ,std::basic_string<char,std::char_traits<char>,std::allocator<char> > > > > > const &>
PUBLIC	??$forward@ABV?$_List_unchecked_iterator@V?$_List_val@U?$_List_simple_types@U?$pair@$$CBV?$basic_string@DU?$char_traits@D@std@@V?$allocator@D@2@@std@@V12@@std@@@std@@@std@@@std@@@std@@YAABV?$_List_unchecked_iterator@V?$_List_val@U?$_List_simple_types@U?$pair@$$CBV?$basic_string@DU?$char_traits@D@std@@V?$allocator@D@2@@std@@V12@@std@@@std@@@std@@@0@ABV10@@Z ; std::forward<std::_List_unchecked_iterator<std::_List_val<std::_List_simple_types<std::pair<std::basic_string<char,std::char_traits<char>,std::allocator<char> > const ,std::basic_string<char,std::char_traits<char>,std::allocator<char> > > > > > const &>
PUBLIC	??$forward@V?$_List_iterator@V?$_List_val@U?$_List_simple_types@U?$pair@$$CBV?$basic_string@DU?$char_traits@D@std@@V?$allocator@D@2@@std@@V12@@std@@@std@@@std@@@std@@@std@@YA$$QAV?$_List_iterator@V?$_List_val@U?$_List_simple_types@U?$pair@$$CBV?$basic_string@DU?$char_traits@D@std@@V?$allocator@D@2@@std@@V12@@std@@@std@@@std@@@0@AAV10@@Z ; std::forward<std::_List_iterator<std::_List_val<std::_List_simple_types<std::pair<std::basic_string<char,std::char_traits<char>,std::allocator<char> > const ,std::basic_string<char,std::char_traits<char>,std::allocator<char> > > > > > >
PUBLIC	??$construct@U?$pair@$$CBV?$basic_string@DU?$char_traits@D@std@@V?$allocator@D@2@@std@@V12@@std@@ABU12@@?$_Default_allocator_traits@V?$allocator@U?$_List_node@U?$pair@$$CBV?$basic_string@DU?$char_traits@D@std@@V?$allocator@D@2@@std@@V12@@std@@PAX@std@@@std@@@std@@SAXAAV?$allocator@U?$_List_node@U?$pair@$$CBV?$basic_string@DU?$char_traits@D@std@@V?$allocator@D@2@@std@@V12@@std@@PAX@std@@@1@QAU?$pair@$$CBV?$basic_string@DU?$char_traits@D@std@@V?$allocator@D@2@@std@@V12@@1@ABU31@@Z ; std::_Default_allocator_traits<std::allocator<std::_List_node<std::pair<std::basic_string<char,std::char_traits<char>,std::allocator<char> > const ,std::basic_string<char,std::char_traits<char>,std::allocator<char> > >,void *> > >::construct<std::pair<std::basic_string<char,std::char_traits<char>,std::allocator<char> > const ,std::basic_string<char,std::char_traits<char>,std::allocator<char> > >,std::pair<std::basic_string<char,std::char_traits<char>,std::allocator<char> > const ,std::basic_string<char,std::char_traits<char>,std::allocator<char> > > const &>
PUBLIC	??$destroy_at@U?$pair@$$CBV?$basic_string@DU?$char_traits@D@std@@V?$allocator@D@2@@std@@V12@@std@@@std@@YAXQAU?$pair@$$CBV?$basic_string@DU?$char_traits@D@std@@V?$allocator@D@2@@std@@V12@@0@@Z ; std::destroy_at<std::pair<std::basic_string<char,std::char_traits<char>,std::allocator<char> > const ,std::basic_string<char,std::char_traits<char>,std::allocator<char> > > >
PUBLIC	??$construct_at@Upacket_offline_shop_item@@$$V@std@@YAPAUpacket_offline_shop_item@@QAU1@@Z ; std::construct_at<packet_offline_shop_item>
PUBLIC	??$construct@Upacket_offline_shop_item@@U1@@?$_Default_allocator_traits@V?$allocator@Upacket_offline_shop_item@@@std@@@std@@SAXAAV?$allocator@Upacket_offline_shop_item@@@1@QAUpacket_offline_shop_item@@$$QAU3@@Z ; std::_Default_allocator_traits<std::allocator<packet_offline_shop_item> >::construct<packet_offline_shop_item,packet_offline_shop_item>
PUBLIC	??$forward@Upacket_offline_shop_item@@@std@@YA$$QAUpacket_offline_shop_item@@AAU1@@Z ; std::forward<packet_offline_shop_item>
PUBLIC	??$_Copy_memmove_tail@PAUpacket_offline_shop_item@@@std@@YAPAUpacket_offline_shop_item@@QBDQAU1@II@Z ; std::_Copy_memmove_tail<packet_offline_shop_item *>
PUBLIC	??$move@AAPAUpacket_offline_shop_item@@@std@@YA$$QAPAUpacket_offline_shop_item@@AAPAU1@@Z ; std::move<packet_offline_shop_item * &>
PUBLIC	??$to_address@Upacket_offline_shop_item@@@std@@YAPAUpacket_offline_shop_item@@QAU1@@Z ; std::to_address<packet_offline_shop_item>
PUBLIC	??$construct@DD@?$_Default_allocator_traits@V?$allocator@D@std@@@std@@SAXAAV?$allocator@D@1@QAD$$QAD@Z ; std::_Default_allocator_traits<std::allocator<char> >::construct<char,char>
PUBLIC	??$forward@D@std@@YA$$QADAAD@Z			; std::forward<char>
PUBLIC	??$_Copy_memmove_tail@PAD@std@@YAPADQBDQADII@Z	; std::_Copy_memmove_tail<char *>
PUBLIC	??$construct_at@USIShopLogData@@$$V@std@@YAPAUSIShopLogData@@QAU1@@Z ; std::construct_at<SIShopLogData>
PUBLIC	??$construct@USIShopLogData@@U1@@?$_Default_allocator_traits@V?$allocator@USIShopLogData@@@std@@@std@@SAXAAV?$allocator@USIShopLogData@@@1@QAUSIShopLogData@@$$QAU3@@Z ; std::_Default_allocator_traits<std::allocator<SIShopLogData> >::construct<SIShopLogData,SIShopLogData>
PUBLIC	??$forward@USIShopLogData@@@std@@YA$$QAUSIShopLogData@@AAU1@@Z ; std::forward<SIShopLogData>
PUBLIC	??$_Copy_memmove_tail@PAUSIShopLogData@@@std@@YAPAUSIShopLogData@@QBDQAU1@II@Z ; std::_Copy_memmove_tail<SIShopLogData *>
PUBLIC	??$move@AAPAUSIShopLogData@@@std@@YA$$QAPAUSIShopLogData@@AAPAU1@@Z ; std::move<SIShopLogData * &>
PUBLIC	??$to_address@USIShopLogData@@@std@@YAPAUSIShopLogData@@QAU1@@Z ; std::to_address<SIShopLogData>
PUBLIC	??0?$_List_iterator@V?$_List_val@U?$_List_simple_types@U?$pair@$$CBV?$basic_string@DU?$char_traits@D@std@@V?$allocator@D@2@@std@@V12@@std@@@std@@@std@@@std@@QAE@PAU?$_List_node@U?$pair@$$CBV?$basic_string@DU?$char_traits@D@std@@V?$allocator@D@2@@std@@V12@@std@@PAX@1@PBV?$_List_val@U?$_List_simple_types@U?$pair@$$CBV?$basic_string@DU?$char_traits@D@std@@V?$allocator@D@2@@std@@V12@@std@@@std@@@1@@Z ; std::_List_iterator<std::_List_val<std::_List_simple_types<std::pair<std::basic_string<char,std::char_traits<char>,std::allocator<char> > const ,std::basic_string<char,std::char_traits<char>,std::allocator<char> > > > > >::_List_iterator<std::_List_val<std::_List_simple_types<std::pair<std::basic_string<char,std::char_traits<char>,std::allocator<char> > const ,std::basic_string<char,std::char_traits<char>,std::allocator<char> > > > > >
PUBLIC	?_Getal@?$deque@V?$basic_string@DU?$char_traits@D@std@@V?$allocator@D@2@@std@@V?$allocator@V?$basic_string@DU?$char_traits@D@std@@V?$allocator@D@2@@std@@@2@@std@@ABEABV?$allocator@V?$basic_string@DU?$char_traits@D@std@@V?$allocator@D@2@@std@@@2@XZ ; std::deque<std::basic_string<char,std::char_traits<char>,std::allocator<char> >,std::allocator<std::basic_string<char,std::char_traits<char>,std::allocator<char> > > >::_Getal
PUBLIC	?allocate@?$allocator@PAV?$basic_string@DU?$char_traits@D@std@@V?$allocator@D@2@@std@@@std@@QAEPAPAV?$basic_string@DU?$char_traits@D@std@@V?$allocator@D@2@@2@I@Z ; std::allocator<std::basic_string<char,std::char_traits<char>,std::allocator<char> > *>::allocate
PUBLIC	?allocate@?$allocator@Upacket_offline_shop_item@@@std@@QAEPAUpacket_offline_shop_item@@I@Z ; std::allocator<packet_offline_shop_item>::allocate
PUBLIC	?capacity@?$vector@Upacket_offline_shop_item@@V?$allocator@Upacket_offline_shop_item@@@std@@@std@@QBEIXZ ; std::vector<packet_offline_shop_item,std::allocator<packet_offline_shop_item> >::capacity
PUBLIC	?_Getal@?$vector@Upacket_offline_shop_item@@V?$allocator@Upacket_offline_shop_item@@@std@@@std@@ABEABV?$allocator@Upacket_offline_shop_item@@@2@XZ ; std::vector<packet_offline_shop_item,std::allocator<packet_offline_shop_item> >::_Getal
PUBLIC	?max_size@?$_Default_allocator_traits@V?$allocator@Upacket_offline_shop_item@@@std@@@std@@SAIABV?$allocator@Upacket_offline_shop_item@@@2@@Z ; std::_Default_allocator_traits<std::allocator<packet_offline_shop_item> >::max_size
PUBLIC	?_Insert_new_node_before@?$_Hash@V?$_Umap_traits@V?$basic_string@DU?$char_traits@D@std@@V?$allocator@D@2@@std@@V12@V?$_Uhash_compare@V?$basic_string@DU?$char_traits@D@std@@V?$allocator@D@2@@std@@U?$hash@V?$basic_string@DU?$char_traits@D@std@@V?$allocator@D@2@@std@@@2@U?$equal_to@V?$basic_string@DU?$char_traits@D@std@@V?$allocator@D@2@@std@@@2@@2@V?$allocator@U?$pair@$$CBV?$basic_string@DU?$char_traits@D@std@@V?$allocator@D@2@@std@@V12@@std@@@2@$0A@@std@@@std@@IAEPAU?$_List_node@U?$pair@$$CBV?$basic_string@DU?$char_traits@D@std@@V?$allocator@D@2@@std@@V12@@std@@PAX@2@IQAU32@0@Z ; std::_Hash<std::_Umap_traits<std::basic_string<char,std::char_traits<char>,std::allocator<char> >,std::basic_string<char,std::char_traits<char>,std::allocator<char> >,std::_Uhash_compare<std::basic_string<char,std::char_traits<char>,std::allocator<char> >,std::hash<std::basic_string<char,std::char_traits<char>,std::allocator<char> > >,std::equal_to<std::basic_string<char,std::char_traits<char>,std::allocator<char> > > >,std::allocator<std::pair<std::basic_string<char,std::char_traits<char>,std::allocator<char> > const ,std::basic_string<char,std::char_traits<char>,std::allocator<char> > > >,0> >::_Insert_new_node_before
PUBLIC	?_Check_max_size@?$_Hash@V?$_Umap_traits@V?$basic_string@DU?$char_traits@D@std@@V?$allocator@D@2@@std@@V12@V?$_Uhash_compare@V?$basic_string@DU?$char_traits@D@std@@V?$allocator@D@2@@std@@U?$hash@V?$basic_string@DU?$char_traits@D@std@@V?$allocator@D@2@@std@@@2@U?$equal_to@V?$basic_string@DU?$char_traits@D@std@@V?$allocator@D@2@@std@@@2@@2@V?$allocator@U?$pair@$$CBV?$basic_string@DU?$char_traits@D@std@@V?$allocator@D@2@@std@@V12@@std@@@2@$0A@@std@@@std@@IBEXXZ ; std::_Hash<std::_Umap_traits<std::basic_string<char,std::char_traits<char>,std::allocator<char> >,std::basic_string<char,std::char_traits<char>,std::allocator<char> >,std::_Uhash_compare<std::basic_string<char,std::char_traits<char>,std::allocator<char> >,std::hash<std::basic_string<char,std::char_traits<char>,std::allocator<char> > >,std::equal_to<std::basic_string<char,std::char_traits<char>,std::allocator<char> > > >,std::allocator<std::pair<std::basic_string<char,std::char_traits<char>,std::allocator<char> > const ,std::basic_string<char,std::char_traits<char>,std::allocator<char> > > >,0> >::_Check_max_size
PUBLIC	?_Check_rehash_required_1@?$_Hash@V?$_Umap_traits@V?$basic_string@DU?$char_traits@D@std@@V?$allocator@D@2@@std@@V12@V?$_Uhash_compare@V?$basic_string@DU?$char_traits@D@std@@V?$allocator@D@2@@std@@U?$hash@V?$basic_string@DU?$char_traits@D@std@@V?$allocator@D@2@@std@@@2@U?$equal_to@V?$basic_string@DU?$char_traits@D@std@@V?$allocator@D@2@@std@@@2@@2@V?$allocator@U?$pair@$$CBV?$basic_string@DU?$char_traits@D@std@@V?$allocator@D@2@@std@@V12@@std@@@2@$0A@@std@@@std@@IBE_NXZ ; std::_Hash<std::_Umap_traits<std::basic_string<char,std::char_traits<char>,std::allocator<char> >,std::basic_string<char,std::char_traits<char>,std::allocator<char> >,std::_Uhash_compare<std::basic_string<char,std::char_traits<char>,std::allocator<char> >,std::hash<std::basic_string<char,std::char_traits<char>,std::allocator<char> > >,std::equal_to<std::basic_string<char,std::char_traits<char>,std::allocator<char> > > >,std::allocator<std::pair<std::basic_string<char,std::char_traits<char>,std::allocator<char> > const ,std::basic_string<char,std::char_traits<char>,std::allocator<char> > > >,0> >::_Check_rehash_required_1
PUBLIC	?_Rehash_for_1@?$_Hash@V?$_Umap_traits@V?$basic_string@DU?$char_traits@D@std@@V?$allocator@D@2@@std@@V12@V?$_Uhash_compare@V?$basic_string@DU?$char_traits@D@std@@V?$allocator@D@2@@std@@U?$hash@V?$basic_string@DU?$char_traits@D@std@@V?$allocator@D@2@@std@@@2@U?$equal_to@V?$basic_string@DU?$char_traits@D@std@@V?$allocator@D@2@@std@@@2@@2@V?$allocator@U?$pair@$$CBV?$basic_string@DU?$char_traits@D@std@@V?$allocator@D@2@@std@@V12@@std@@@2@$0A@@std@@@std@@IAEXXZ ; std::_Hash<std::_Umap_traits<std::basic_string<char,std::char_traits<char>,std::allocator<char> >,std::basic_string<char,std::char_traits<char>,std::allocator<char> >,std::_Uhash_compare<std::basic_string<char,std::char_traits<char>,std::allocator<char> >,std::hash<std::basic_string<char,std::char_traits<char>,std::allocator<char> > >,std::equal_to<std::basic_string<char,std::char_traits<char>,std::allocator<char> > > >,std::allocator<std::pair<std::basic_string<char,std::char_traits<char>,std::allocator<char> > const ,std::basic_string<char,std::char_traits<char>,std::allocator<char> > > >,0> >::_Rehash_for_1
PUBLIC	?_Make_iter@?$list@U?$pair@$$CBV?$basic_string@DU?$char_traits@D@std@@V?$allocator@D@2@@std@@V12@@std@@V?$allocator@U?$pair@$$CBV?$basic_string@DU?$char_traits@D@std@@V?$allocator@D@2@@std@@V12@@std@@@2@@std@@QBE?AV?$_List_iterator@V?$_List_val@U?$_List_simple_types@U?$pair@$$CBV?$basic_string@DU?$char_traits@D@std@@V?$allocator@D@2@@std@@V12@@std@@@std@@@std@@@2@PAU?$_List_node@U?$pair@$$CBV?$basic_string@DU?$char_traits@D@std@@V?$allocator@D@2@@std@@V12@@std@@PAX@2@@Z ; std::list<std::pair<std::basic_string<char,std::char_traits<char>,std::allocator<char> > const ,std::basic_string<char,std::char_traits<char>,std::allocator<char> > >,std::allocator<std::pair<std::basic_string<char,std::char_traits<char>,std::allocator<char> > const ,std::basic_string<char,std::char_traits<char>,std::allocator<char> > > > >::_Make_iter
PUBLIC	?deallocate@?$allocator@U?$_List_node@U?$pair@$$CBV?$basic_string@DU?$char_traits@D@std@@V?$allocator@D@2@@std@@V12@@std@@PAX@std@@@std@@QAEXQAU?$_List_node@U?$pair@$$CBV?$basic_string@DU?$char_traits@D@std@@V?$allocator@D@2@@std@@V12@@std@@PAX@2@I@Z ; std::allocator<std::_List_node<std::pair<std::basic_string<char,std::char_traits<char>,std::allocator<char> > const ,std::basic_string<char,std::char_traits<char>,std::allocator<char> > >,void *> >::deallocate
PUBLIC	?allocate@?$allocator@U?$_List_node@U?$pair@$$CBV?$basic_string@DU?$char_traits@D@std@@V?$allocator@D@2@@std@@V12@@std@@PAX@std@@@std@@QAEPAU?$_List_node@U?$pair@$$CBV?$basic_string@DU?$char_traits@D@std@@V?$allocator@D@2@@std@@V12@@std@@PAX@2@I@Z ; std::allocator<std::_List_node<std::pair<std::basic_string<char,std::char_traits<char>,std::allocator<char> > const ,std::basic_string<char,std::char_traits<char>,std::allocator<char> > >,void *> >::allocate
PUBLIC	??0?$_List_val@U?$_List_simple_types@U?$pair@$$CBV?$basic_string@DU?$char_traits@D@std@@V?$allocator@D@2@@std@@V12@@std@@@std@@@std@@QAE@XZ ; std::_List_val<std::_List_simple_types<std::pair<std::basic_string<char,std::char_traits<char>,std::allocator<char> > const ,std::basic_string<char,std::char_traits<char>,std::allocator<char> > > > >::_List_val<std::_List_simple_types<std::pair<std::basic_string<char,std::char_traits<char>,std::allocator<char> > const ,std::basic_string<char,std::char_traits<char>,std::allocator<char> > > > >
PUBLIC	??0?$_Vector_val@U?$_Simple_types@V?$_List_unchecked_iterator@V?$_List_val@U?$_List_simple_types@U?$pair@$$CBV?$basic_string@DU?$char_traits@D@std@@V?$allocator@D@2@@std@@V12@@std@@@std@@@std@@@std@@@std@@@std@@QAE@XZ ; std::_Vector_val<std::_Simple_types<std::_List_unchecked_iterator<std::_List_val<std::_List_simple_types<std::pair<std::basic_string<char,std::char_traits<char>,std::allocator<char> > const ,std::basic_string<char,std::char_traits<char>,std::allocator<char> > > > > > > >::_Vector_val<std::_Simple_types<std::_List_unchecked_iterator<std::_List_val<std::_List_simple_types<std::pair<std::basic_string<char,std::char_traits<char>,std::allocator<char> > const ,std::basic_string<char,std::char_traits<char>,std::allocator<char> > > > > > > >
PUBLIC	?capacity@?$vector@DV?$allocator@D@std@@@std@@QBEIXZ ; std::vector<char,std::allocator<char> >::capacity
PUBLIC	?_Getal@?$vector@DV?$allocator@D@std@@@std@@ABEABV?$allocator@D@2@XZ ; std::vector<char,std::allocator<char> >::_Getal
PUBLIC	?allocate@?$allocator@USIShopLogData@@@std@@QAEPAUSIShopLogData@@I@Z ; std::allocator<SIShopLogData>::allocate
PUBLIC	?capacity@?$vector@USIShopLogData@@V?$allocator@USIShopLogData@@@std@@@std@@QBEIXZ ; std::vector<SIShopLogData,std::allocator<SIShopLogData> >::capacity
PUBLIC	?_Getal@?$vector@USIShopLogData@@V?$allocator@USIShopLogData@@@std@@@std@@ABEABV?$allocator@USIShopLogData@@@2@XZ ; std::vector<SIShopLogData,std::allocator<SIShopLogData> >::_Getal
PUBLIC	?max_size@?$_Default_allocator_traits@V?$allocator@USIShopLogData@@@std@@@std@@SAIABV?$allocator@USIShopLogData@@@2@@Z ; std::_Default_allocator_traits<std::allocator<SIShopLogData> >::max_size
PUBLIC	?_Extract@?$_In_place_key_extract_map_impl@V?$basic_string@DU?$char_traits@D@std@@V?$allocator@D@2@@std@@U?$pair@$$CBV?$basic_string@DU?$char_traits@D@std@@V?$allocator@D@2@@std@@V12@@2@@std@@SAABV?$basic_string@DU?$char_traits@D@std@@V?$allocator@D@2@@2@ABU?$pair@$$CBV?$basic_string@DU?$char_traits@D@std@@V?$allocator@D@2@@std@@V12@@2@@Z ; std::_In_place_key_extract_map_impl<std::basic_string<char,std::char_traits<char>,std::allocator<char> >,std::pair<std::basic_string<char,std::char_traits<char>,std::allocator<char> > const ,std::basic_string<char,std::char_traits<char>,std::allocator<char> > > >::_Extract
PUBLIC	??1?$_List_node_emplace_op2@V?$allocator@U?$_List_node@U?$pair@$$CBV?$basic_string@DU?$char_traits@D@std@@V?$allocator@D@2@@std@@V12@@std@@PAX@std@@@std@@@std@@QAE@XZ ; std::_List_node_emplace_op2<std::allocator<std::_List_node<std::pair<std::basic_string<char,std::char_traits<char>,std::allocator<char> > const ,std::basic_string<char,std::char_traits<char>,std::allocator<char> > >,void *> > >::~_List_node_emplace_op2<std::allocator<std::_List_node<std::pair<std::basic_string<char,std::char_traits<char>,std::allocator<char> > const ,std::basic_string<char,std::char_traits<char>,std::allocator<char> > >,void *> > >
PUBLIC	?_Release@?$_Alloc_construct_ptr@V?$allocator@U?$_List_node@U?$pair@$$CBV?$basic_string@DU?$char_traits@D@std@@V?$allocator@D@2@@std@@V12@@std@@PAX@std@@@std@@@std@@QAEPAU?$_List_node@U?$pair@$$CBV?$basic_string@DU?$char_traits@D@std@@V?$allocator@D@2@@std@@V12@@std@@PAX@2@XZ ; std::_Alloc_construct_ptr<std::allocator<std::_List_node<std::pair<std::basic_string<char,std::char_traits<char>,std::allocator<char> > const ,std::basic_string<char,std::char_traits<char>,std::allocator<char> > >,void *> > >::_Release
PUBLIC	??0?$_Uninitialized_backout@PAV?$_List_unchecked_iterator@V?$_List_val@U?$_List_simple_types@U?$pair@$$CBV?$basic_string@DU?$char_traits@D@std@@V?$allocator@D@2@@std@@V12@@std@@@std@@@std@@@std@@@std@@QAE@PAV?$_List_unchecked_iterator@V?$_List_val@U?$_List_simple_types@U?$pair@$$CBV?$basic_string@DU?$char_traits@D@std@@V?$allocator@D@2@@std@@V12@@std@@@std@@@std@@@1@@Z ; std::_Uninitialized_backout<std::_List_unchecked_iterator<std::_List_val<std::_List_simple_types<std::pair<std::basic_string<char,std::char_traits<char>,std::allocator<char> > const ,std::basic_string<char,std::char_traits<char>,std::allocator<char> > > > > > *>::_Uninitialized_backout<std::_List_unchecked_iterator<std::_List_val<std::_List_simple_types<std::pair<std::basic_string<char,std::char_traits<char>,std::allocator<char> > const ,std::basic_string<char,std::char_traits<char>,std::allocator<char> > > > > > *>
PUBLIC	??1?$_Uninitialized_backout@PAV?$_List_unchecked_iterator@V?$_List_val@U?$_List_simple_types@U?$pair@$$CBV?$basic_string@DU?$char_traits@D@std@@V?$allocator@D@2@@std@@V12@@std@@@std@@@std@@@std@@@std@@QAE@XZ ; std::_Uninitialized_backout<std::_List_unchecked_iterator<std::_List_val<std::_List_simple_types<std::pair<std::basic_string<char,std::char_traits<char>,std::allocator<char> > const ,std::basic_string<char,std::char_traits<char>,std::allocator<char> > > > > > *>::~_Uninitialized_backout<std::_List_unchecked_iterator<std::_List_val<std::_List_simple_types<std::pair<std::basic_string<char,std::char_traits<char>,std::allocator<char> > const ,std::basic_string<char,std::char_traits<char>,std::allocator<char> > > > > > *>
PUBLIC	?_Release@?$_Uninitialized_backout@PAV?$_List_unchecked_iterator@V?$_List_val@U?$_List_simple_types@U?$pair@$$CBV?$basic_string@DU?$char_traits@D@std@@V?$allocator@D@2@@std@@V12@@std@@@std@@@std@@@std@@@std@@QAEPAV?$_List_unchecked_iterator@V?$_List_val@U?$_List_simple_types@U?$pair@$$CBV?$basic_string@DU?$char_traits@D@std@@V?$allocator@D@2@@std@@V12@@std@@@std@@@std@@@2@XZ ; std::_Uninitialized_backout<std::_List_unchecked_iterator<std::_List_val<std::_List_simple_types<std::pair<std::basic_string<char,std::char_traits<char>,std::allocator<char> > const ,std::basic_string<char,std::char_traits<char>,std::allocator<char> > > > > > *>::_Release
PUBLIC	??$_Construct_in_place@PAU?$_List_node@U?$pair@$$CBV?$basic_string@DU?$char_traits@D@std@@V?$allocator@D@2@@std@@V12@@std@@PAX@std@@AAPAU12@@std@@YAXAAPAU?$_List_node@U?$pair@$$CBV?$basic_string@DU?$char_traits@D@std@@V?$allocator@D@2@@std@@V12@@std@@PAX@0@0@Z ; std::_Construct_in_place<std::_List_node<std::pair<std::basic_string<char,std::char_traits<char>,std::allocator<char> > const ,std::basic_string<char,std::char_traits<char>,std::allocator<char> > >,void *> *,std::_List_node<std::pair<std::basic_string<char,std::char_traits<char>,std::allocator<char> > const ,std::basic_string<char,std::char_traits<char>,std::allocator<char> > >,void *> * &>
PUBLIC	??$_To_address@PAPAV?$basic_string@DU?$char_traits@D@std@@V?$allocator@D@2@@std@@@std@@YA?A_PABQAPAV?$basic_string@DU?$char_traits@D@std@@V?$allocator@D@2@@0@@Z ; std::_To_address<std::basic_string<char,std::char_traits<char>,std::allocator<char> > * *>
PUBLIC	??$_Zero_range@PAPAV?$basic_string@DU?$char_traits@D@std@@V?$allocator@D@2@@std@@@std@@YAPAPAV?$basic_string@DU?$char_traits@D@std@@V?$allocator@D@2@@0@QAPAV10@0@Z ; std::_Zero_range<std::basic_string<char,std::char_traits<char>,std::allocator<char> > * *>
PUBLIC	??$_Seek_wrapped@PAPAV?$basic_string@DU?$char_traits@D@std@@V?$allocator@D@2@@std@@PAPAV12@@std@@YAXAAPAPAV?$basic_string@DU?$char_traits@D@std@@V?$allocator@D@2@@0@$$QAPAPAV10@@Z ; std::_Seek_wrapped<std::basic_string<char,std::char_traits<char>,std::allocator<char> > * *,std::basic_string<char,std::char_traits<char>,std::allocator<char> > * *>
PUBLIC	??$_Uninitialized_copy_unchecked@PAPAV?$basic_string@DU?$char_traits@D@std@@V?$allocator@D@2@@std@@PAPAV12@@std@@YAPAPAV?$basic_string@DU?$char_traits@D@std@@V?$allocator@D@2@@0@PAPAV10@QAPAV10@0@Z ; std::_Uninitialized_copy_unchecked<std::basic_string<char,std::char_traits<char>,std::allocator<char> > * *,std::basic_string<char,std::char_traits<char>,std::allocator<char> > * *>
PUBLIC	??$_Adl_verify_range@PAPAV?$basic_string@DU?$char_traits@D@std@@V?$allocator@D@2@@std@@PAPAV12@@std@@YAXABQAPAV?$basic_string@DU?$char_traits@D@std@@V?$allocator@D@2@@0@0@Z ; std::_Adl_verify_range<std::basic_string<char,std::char_traits<char>,std::allocator<char> > * *,std::basic_string<char,std::char_traits<char>,std::allocator<char> > * *>
PUBLIC	??$_Emplace_back@ABV?$_List_unchecked_iterator@V?$_List_val@U?$_List_simple_types@U?$pair@$$CBV?$basic_string@DU?$char_traits@D@std@@V?$allocator@D@2@@std@@V12@@std@@@std@@@std@@@std@@@?$_Uninitialized_backout@PAV?$_List_unchecked_iterator@V?$_List_val@U?$_List_simple_types@U?$pair@$$CBV?$basic_string@DU?$char_traits@D@std@@V?$allocator@D@2@@std@@V12@@std@@@std@@@std@@@std@@@std@@QAEXABV?$_List_unchecked_iterator@V?$_List_val@U?$_List_simple_types@U?$pair@$$CBV?$basic_string@DU?$char_traits@D@std@@V?$allocator@D@2@@std@@V12@@std@@@std@@@std@@@1@@Z ; std::_Uninitialized_backout<std::_List_unchecked_iterator<std::_List_val<std::_List_simple_types<std::pair<std::basic_string<char,std::char_traits<char>,std::allocator<char> > const ,std::basic_string<char,std::char_traits<char>,std::allocator<char> > > > > > *>::_Emplace_back<std::_List_unchecked_iterator<std::_List_val<std::_List_simple_types<std::pair<std::basic_string<char,std::char_traits<char>,std::allocator<char> > const ,std::basic_string<char,std::char_traits<char>,std::allocator<char> > > > > > const &>
PUBLIC	??$_Adl_verify_range@PAV?$_List_unchecked_iterator@V?$_List_val@U?$_List_simple_types@U?$pair@$$CBV?$basic_string@DU?$char_traits@D@std@@V?$allocator@D@2@@std@@V12@@std@@@std@@@std@@@std@@PAV12@@std@@YAXABQAV?$_List_unchecked_iterator@V?$_List_val@U?$_List_simple_types@U?$pair@$$CBV?$basic_string@DU?$char_traits@D@std@@V?$allocator@D@2@@std@@V12@@std@@@std@@@std@@@0@0@Z ; std::_Adl_verify_range<std::_List_unchecked_iterator<std::_List_val<std::_List_simple_types<std::pair<std::basic_string<char,std::char_traits<char>,std::allocator<char> > const ,std::basic_string<char,std::char_traits<char>,std::allocator<char> > > > > > *,std::_List_unchecked_iterator<std::_List_val<std::_List_simple_types<std::pair<std::basic_string<char,std::char_traits<char>,std::allocator<char> > const ,std::basic_string<char,std::char_traits<char>,std::allocator<char> > > > > > *>
PUBLIC	??$?0V?$_List_iterator@V?$_List_val@U?$_List_simple_types@U?$pair@$$CBV?$basic_string@DU?$char_traits@D@std@@V?$allocator@D@2@@std@@V12@@std@@@std@@@std@@@std@@_N$0A@@?$pair@V?$_List_iterator@V?$_List_val@U?$_List_simple_types@U?$pair@$$CBV?$basic_string@DU?$char_traits@D@std@@V?$allocator@D@2@@std@@V12@@std@@@std@@@std@@@std@@_N@std@@QAE@$$QAV?$_List_iterator@V?$_List_val@U?$_List_simple_types@U?$pair@$$CBV?$basic_string@DU?$char_traits@D@std@@V?$allocator@D@2@@std@@V12@@std@@@std@@@std@@@1@$$QA_N@Z ; std::pair<std::_List_iterator<std::_List_val<std::_List_simple_types<std::pair<std::basic_string<char,std::char_traits<char>,std::allocator<char> > const ,std::basic_string<char,std::char_traits<char>,std::allocator<char> > > > > >,bool>::pair<std::_List_iterator<std::_List_val<std::_List_simple_types<std::pair<std::basic_string<char,std::char_traits<char>,std::allocator<char> > const ,std::basic_string<char,std::char_traits<char>,std::allocator<char> > > > > >,bool><std::_List_iterator<std::_List_val<std::_List_simple_types<std::pair<std::basic_string<char,std::char_traits<char>,std::allocator<char> > const ,std::basic_string<char,std::char_traits<char>,std::allocator<char> > > > > >,bool,0>
PUBLIC	??$?0ABU?$pair@$$CBV?$basic_string@DU?$char_traits@D@std@@V?$allocator@D@2@@std@@V12@@std@@@?$_List_node_emplace_op2@V?$allocator@U?$_List_node@U?$pair@$$CBV?$basic_string@DU?$char_traits@D@std@@V?$allocator@D@2@@std@@V12@@std@@PAX@std@@@std@@@std@@QAE@AAV?$allocator@U?$_List_node@U?$pair@$$CBV?$basic_string@DU?$char_traits@D@std@@V?$allocator@D@2@@std@@V12@@std@@PAX@std@@@1@ABU?$pair@$$CBV?$basic_string@DU?$char_traits@D@std@@V?$allocator@D@2@@std@@V12@@1@@Z ; std::_List_node_emplace_op2<std::allocator<std::_List_node<std::pair<std::basic_string<char,std::char_traits<char>,std::allocator<char> > const ,std::basic_string<char,std::char_traits<char>,std::allocator<char> > >,void *> > >::_List_node_emplace_op2<std::allocator<std::_List_node<std::pair<std::basic_string<char,std::char_traits<char>,std::allocator<char> > const ,std::basic_string<char,std::char_traits<char>,std::allocator<char> > >,void *> > ><std::pair<std::basic_string<char,std::char_traits<char>,std::allocator<char> > const ,std::basic_string<char,std::char_traits<char>,std::allocator<char> > > const &>
PUBLIC	??$forward@ABU?$pair@$$CBV?$basic_string@DU?$char_traits@D@std@@V?$allocator@D@2@@std@@V12@@std@@@std@@YAABU?$pair@$$CBV?$basic_string@DU?$char_traits@D@std@@V?$allocator@D@2@@std@@V12@@0@ABU10@@Z ; std::forward<std::pair<std::basic_string<char,std::char_traits<char>,std::allocator<char> > const ,std::basic_string<char,std::char_traits<char>,std::allocator<char> > > const &>
PUBLIC	??$destroy@U?$pair@$$CBV?$basic_string@DU?$char_traits@D@std@@V?$allocator@D@2@@std@@V12@@std@@@?$_Default_allocator_traits@V?$allocator@U?$_List_node@U?$pair@$$CBV?$basic_string@DU?$char_traits@D@std@@V?$allocator@D@2@@std@@V12@@std@@PAX@std@@@std@@@std@@SAXAAV?$allocator@U?$_List_node@U?$pair@$$CBV?$basic_string@DU?$char_traits@D@std@@V?$allocator@D@2@@std@@V12@@std@@PAX@std@@@1@QAU?$pair@$$CBV?$basic_string@DU?$char_traits@D@std@@V?$allocator@D@2@@std@@V12@@1@@Z ; std::_Default_allocator_traits<std::allocator<std::_List_node<std::pair<std::basic_string<char,std::char_traits<char>,std::allocator<char> > const ,std::basic_string<char,std::char_traits<char>,std::allocator<char> > >,void *> > >::destroy<std::pair<std::basic_string<char,std::char_traits<char>,std::allocator<char> > const ,std::basic_string<char,std::char_traits<char>,std::allocator<char> > > >
PUBLIC	??$addressof@U?$pair@$$CBV?$basic_string@DU?$char_traits@D@std@@V?$allocator@D@2@@std@@V12@@std@@@std@@YAPAU?$pair@$$CBV?$basic_string@DU?$char_traits@D@std@@V?$allocator@D@2@@std@@V12@@0@AAU10@@Z ; std::addressof<std::pair<std::basic_string<char,std::char_traits<char>,std::allocator<char> > const ,std::basic_string<char,std::char_traits<char>,std::allocator<char> > > >
PUBLIC	??$construct@Upacket_offline_shop_item@@$$V@?$_Default_allocator_traits@V?$allocator@Upacket_offline_shop_item@@@std@@@std@@SAXAAV?$allocator@Upacket_offline_shop_item@@@1@QAUpacket_offline_shop_item@@@Z ; std::_Default_allocator_traits<std::allocator<packet_offline_shop_item> >::construct<packet_offline_shop_item>
PUBLIC	??$_Emplace_back@Upacket_offline_shop_item@@@?$_Uninitialized_backout_al@V?$allocator@Upacket_offline_shop_item@@@std@@@std@@QAEX$$QAUpacket_offline_shop_item@@@Z ; std::_Uninitialized_backout_al<std::allocator<packet_offline_shop_item> >::_Emplace_back<packet_offline_shop_item>
PUBLIC	??$_To_address@PAUpacket_offline_shop_item@@@std@@YA?A_PABQAUpacket_offline_shop_item@@@Z ; std::_To_address<packet_offline_shop_item *>
PUBLIC	??$_Copy_memmove@PAUpacket_offline_shop_item@@PAU1@@std@@YAPAUpacket_offline_shop_item@@PAU1@00@Z ; std::_Copy_memmove<packet_offline_shop_item *,packet_offline_shop_item *>
PUBLIC	??$_Unfancy@Upacket_offline_shop_item@@@std@@YAPAUpacket_offline_shop_item@@PAU1@@Z ; std::_Unfancy<packet_offline_shop_item>
PUBLIC	??$move@AAUpacket_offline_shop_item@@@std@@YA$$QAUpacket_offline_shop_item@@AAU1@@Z ; std::move<packet_offline_shop_item &>
PUBLIC	??$construct@D$$V@?$_Default_allocator_traits@V?$allocator@D@std@@@std@@SAXAAV?$allocator@D@1@QAD@Z ; std::_Default_allocator_traits<std::allocator<char> >::construct<char>
PUBLIC	??$to_address@D@std@@YAPADQAD@Z			; std::to_address<char>
PUBLIC	??$_Emplace_back@D@?$_Uninitialized_backout_al@V?$allocator@D@std@@@std@@QAEX$$QAD@Z ; std::_Uninitialized_backout_al<std::allocator<char> >::_Emplace_back<char>
PUBLIC	??$_Copy_memmove@PADPAD@std@@YAPADPAD00@Z	; std::_Copy_memmove<char *,char *>
PUBLIC	??$construct@USIShopLogData@@$$V@?$_Default_allocator_traits@V?$allocator@USIShopLogData@@@std@@@std@@SAXAAV?$allocator@USIShopLogData@@@1@QAUSIShopLogData@@@Z ; std::_Default_allocator_traits<std::allocator<SIShopLogData> >::construct<SIShopLogData>
PUBLIC	??$_Emplace_back@USIShopLogData@@@?$_Uninitialized_backout_al@V?$allocator@USIShopLogData@@@std@@@std@@QAEX$$QAUSIShopLogData@@@Z ; std::_Uninitialized_backout_al<std::allocator<SIShopLogData> >::_Emplace_back<SIShopLogData>
PUBLIC	??$_To_address@PAUSIShopLogData@@@std@@YA?A_PABQAUSIShopLogData@@@Z ; std::_To_address<SIShopLogData *>
PUBLIC	??$_Copy_memmove@PAUSIShopLogData@@PAU1@@std@@YAPAUSIShopLogData@@PAU1@00@Z ; std::_Copy_memmove<SIShopLogData *,SIShopLogData *>
PUBLIC	??$_Unfancy@USIShopLogData@@@std@@YAPAUSIShopLogData@@PAU1@@Z ; std::_Unfancy<SIShopLogData>
PUBLIC	??$move@AAUSIShopLogData@@@std@@YA$$QAUSIShopLogData@@AAU1@@Z ; std::move<SIShopLogData &>
PUBLIC	??$?0U?$pair@$$CBV?$basic_string@DU?$char_traits@D@std@@V?$allocator@D@2@@std@@V12@@std@@@?$allocator@U?$_List_node@U?$pair@$$CBV?$basic_string@DU?$char_traits@D@std@@V?$allocator@D@2@@std@@V12@@std@@PAX@std@@@std@@QAE@ABV?$allocator@U?$pair@$$CBV?$basic_string@DU?$char_traits@D@std@@V?$allocator@D@2@@std@@V12@@std@@@1@@Z ; std::allocator<std::_List_node<std::pair<std::basic_string<char,std::char_traits<char>,std::allocator<char> > const ,std::basic_string<char,std::char_traits<char>,std::allocator<char> > >,void *> >::allocator<std::_List_node<std::pair<std::basic_string<char,std::char_traits<char>,std::allocator<char> > const ,std::basic_string<char,std::char_traits<char>,std::allocator<char> > >,void *> ><std::pair<std::basic_string<char,std::char_traits<char>,std::allocator<char> > const ,std::basic_string<char,std::char_traits<char>,std::allocator<char> > > >
PUBLIC	??$?0U?$pair@$$CBV?$basic_string@DU?$char_traits@D@std@@V?$allocator@D@2@@std@@V12@@std@@@?$allocator@V?$_List_unchecked_iterator@V?$_List_val@U?$_List_simple_types@U?$pair@$$CBV?$basic_string@DU?$char_traits@D@std@@V?$allocator@D@2@@std@@V12@@std@@@std@@@std@@@std@@@std@@QAE@ABV?$allocator@U?$pair@$$CBV?$basic_string@DU?$char_traits@D@std@@V?$allocator@D@2@@std@@V12@@std@@@1@@Z ; std::allocator<std::_List_unchecked_iterator<std::_List_val<std::_List_simple_types<std::pair<std::basic_string<char,std::char_traits<char>,std::allocator<char> > const ,std::basic_string<char,std::char_traits<char>,std::allocator<char> > > > > > >::allocator<std::_List_unchecked_iterator<std::_List_val<std::_List_simple_types<std::pair<std::basic_string<char,std::char_traits<char>,std::allocator<char> > const ,std::basic_string<char,std::char_traits<char>,std::allocator<char> > > > > > ><std::pair<std::basic_string<char,std::char_traits<char>,std::allocator<char> > const ,std::basic_string<char,std::char_traits<char>,std::allocator<char> > > >
PUBLIC	?max_size@?$deque@V?$basic_string@DU?$char_traits@D@std@@V?$allocator@D@2@@std@@V?$allocator@V?$basic_string@DU?$char_traits@D@std@@V?$allocator@D@2@@std@@@2@@std@@QBEIXZ ; std::deque<std::basic_string<char,std::char_traits<char>,std::allocator<char> >,std::allocator<std::basic_string<char,std::char_traits<char>,std::allocator<char> > > >::max_size
PUBLIC	?_Xlen@?$deque@V?$basic_string@DU?$char_traits@D@std@@V?$allocator@D@2@@std@@V?$allocator@V?$basic_string@DU?$char_traits@D@std@@V?$allocator@D@2@@std@@@2@@std@@CAXXZ ; std::deque<std::basic_string<char,std::char_traits<char>,std::allocator<char> >,std::allocator<std::basic_string<char,std::char_traits<char>,std::allocator<char> > > >::_Xlen
PUBLIC	?max_size@?$vector@Upacket_offline_shop_item@@V?$allocator@Upacket_offline_shop_item@@@std@@@std@@QBEIXZ ; std::vector<packet_offline_shop_item,std::allocator<packet_offline_shop_item> >::max_size
PUBLIC	?_Calculate_growth@?$vector@Upacket_offline_shop_item@@V?$allocator@Upacket_offline_shop_item@@@std@@@std@@ABEII@Z ; std::vector<packet_offline_shop_item,std::allocator<packet_offline_shop_item> >::_Calculate_growth
PUBLIC	?_Change_array@?$vector@Upacket_offline_shop_item@@V?$allocator@Upacket_offline_shop_item@@@std@@@std@@AAEXQAUpacket_offline_shop_item@@II@Z ; std::vector<packet_offline_shop_item,std::allocator<packet_offline_shop_item> >::_Change_array
PUBLIC	?_Xlength@?$vector@Upacket_offline_shop_item@@V?$allocator@Upacket_offline_shop_item@@@std@@@std@@CAXXZ ; std::vector<packet_offline_shop_item,std::allocator<packet_offline_shop_item> >::_Xlength
PUBLIC	??1_Reallocation_guard@?$vector@Upacket_offline_shop_item@@V?$allocator@Upacket_offline_shop_item@@@std@@@std@@QAE@XZ ; std::vector<packet_offline_shop_item,std::allocator<packet_offline_shop_item> >::_Reallocation_guard::~_Reallocation_guard
PUBLIC	?_Get_first@?$_Compressed_pair@V?$allocator@Upacket_offline_shop_item@@@std@@V?$_Vector_val@U?$_Simple_types@Upacket_offline_shop_item@@@std@@@2@$00@std@@QAEAAV?$allocator@Upacket_offline_shop_item@@@2@XZ ; std::_Compressed_pair<std::allocator<packet_offline_shop_item>,std::_Vector_val<std::_Simple_types<packet_offline_shop_item> >,1>::_Get_first
PUBLIC	?_Alloc_sentinel_and_proxy@?$list@U?$pair@$$CBV?$basic_string@DU?$char_traits@D@std@@V?$allocator@D@2@@std@@V12@@std@@V?$allocator@U?$pair@$$CBV?$basic_string@DU?$char_traits@D@std@@V?$allocator@D@2@@std@@V12@@std@@@2@@std@@AAEXXZ ; std::list<std::pair<std::basic_string<char,std::char_traits<char>,std::allocator<char> > const ,std::basic_string<char,std::char_traits<char>,std::allocator<char> > >,std::allocator<std::pair<std::basic_string<char,std::char_traits<char>,std::allocator<char> > const ,std::basic_string<char,std::char_traits<char>,std::allocator<char> > > > >::_Alloc_sentinel_and_proxy
PUBLIC	?deallocate@?$_Default_allocator_traits@V?$allocator@U?$_List_node@U?$pair@$$CBV?$basic_string@DU?$char_traits@D@std@@V?$allocator@D@2@@std@@V12@@std@@PAX@std@@@std@@@std@@SAXAAV?$allocator@U?$_List_node@U?$pair@$$CBV?$basic_string@DU?$char_traits@D@std@@V?$allocator@D@2@@std@@V12@@std@@PAX@std@@@2@QAU?$_List_node@U?$pair@$$CBV?$basic_string@DU?$char_traits@D@std@@V?$allocator@D@2@@std@@V12@@std@@PAX@2@I@Z ; std::_Default_allocator_traits<std::allocator<std::_List_node<std::pair<std::basic_string<char,std::char_traits<char>,std::allocator<char> > const ,std::basic_string<char,std::char_traits<char>,std::allocator<char> > >,void *> > >::deallocate
PUBLIC	?_Get_first@?$_Compressed_pair@V?$allocator@U?$_List_node@U?$pair@$$CBV?$basic_string@DU?$char_traits@D@std@@V?$allocator@D@2@@std@@V12@@std@@PAX@std@@@std@@V?$_List_val@U?$_List_simple_types@U?$pair@$$CBV?$basic_string@DU?$char_traits@D@std@@V?$allocator@D@2@@std@@V12@@std@@@std@@@2@$00@std@@QAEAAV?$allocator@U?$_List_node@U?$pair@$$CBV?$basic_string@DU?$char_traits@D@std@@V?$allocator@D@2@@std@@V12@@std@@PAX@std@@@2@XZ ; std::_Compressed_pair<std::allocator<std::_List_node<std::pair<std::basic_string<char,std::char_traits<char>,std::allocator<char> > const ,std::basic_string<char,std::char_traits<char>,std::allocator<char> > >,void *> >,std::_List_val<std::_List_simple_types<std::pair<std::basic_string<char,std::char_traits<char>,std::allocator<char> > const ,std::basic_string<char,std::char_traits<char>,std::allocator<char> > > > >,1>::_Get_first
PUBLIC	?allocate@?$allocator@V?$_List_unchecked_iterator@V?$_List_val@U?$_List_simple_types@U?$pair@$$CBV?$basic_string@DU?$char_traits@D@std@@V?$allocator@D@2@@std@@V12@@std@@@std@@@std@@@std@@@std@@QAEPAV?$_List_unchecked_iterator@V?$_List_val@U?$_List_simple_types@U?$pair@$$CBV?$basic_string@DU?$char_traits@D@std@@V?$allocator@D@2@@std@@V12@@std@@@std@@@std@@@2@I@Z ; std::allocator<std::_List_unchecked_iterator<std::_List_val<std::_List_simple_types<std::pair<std::basic_string<char,std::char_traits<char>,std::allocator<char> > const ,std::basic_string<char,std::char_traits<char>,std::allocator<char> > > > > > >::allocate
PUBLIC	?size@?$_Hash_vec@V?$allocator@V?$_List_unchecked_iterator@V?$_List_val@U?$_List_simple_types@U?$pair@$$CBV?$basic_string@DU?$char_traits@D@std@@V?$allocator@D@2@@std@@V12@@std@@@std@@@std@@@std@@@std@@@std@@QBEIXZ ; std::_Hash_vec<std::allocator<std::_List_unchecked_iterator<std::_List_val<std::_List_simple_types<std::pair<std::basic_string<char,std::char_traits<char>,std::allocator<char> > const ,std::basic_string<char,std::char_traits<char>,std::allocator<char> > > > > > > >::size
PUBLIC	?max_size@?$vector@DV?$allocator@D@std@@@std@@QBEIXZ ; std::vector<char,std::allocator<char> >::max_size
PUBLIC	?_Calculate_growth@?$vector@DV?$allocator@D@std@@@std@@ABEII@Z ; std::vector<char,std::allocator<char> >::_Calculate_growth
PUBLIC	?_Change_array@?$vector@DV?$allocator@D@std@@@std@@AAEXQADII@Z ; std::vector<char,std::allocator<char> >::_Change_array
PUBLIC	?_Xlength@?$vector@DV?$allocator@D@std@@@std@@CAXXZ ; std::vector<char,std::allocator<char> >::_Xlength
PUBLIC	??1_Reallocation_guard@?$vector@DV?$allocator@D@std@@@std@@QAE@XZ ; std::vector<char,std::allocator<char> >::_Reallocation_guard::~_Reallocation_guard
PUBLIC	?_Get_first@?$_Compressed_pair@V?$allocator@UTSwitchbotAttributeAlternativeTable@CPythonSwitchbot@@@std@@V?$_Vector_val@U?$_Simple_types@UTSwitchbotAttributeAlternativeTable@CPythonSwitchbot@@@std@@@2@$00@std@@QAEAAV?$allocator@UTSwitchbotAttributeAlternativeTable@CPythonSwitchbot@@@2@XZ ; std::_Compressed_pair<std::allocator<CPythonSwitchbot::TSwitchbotAttributeAlternativeTable>,std::_Vector_val<std::_Simple_types<CPythonSwitchbot::TSwitchbotAttributeAlternativeTable> >,1>::_Get_first
PUBLIC	?max_size@?$vector@USIShopLogData@@V?$allocator@USIShopLogData@@@std@@@std@@QBEIXZ ; std::vector<SIShopLogData,std::allocator<SIShopLogData> >::max_size
PUBLIC	?_Calculate_growth@?$vector@USIShopLogData@@V?$allocator@USIShopLogData@@@std@@@std@@ABEII@Z ; std::vector<SIShopLogData,std::allocator<SIShopLogData> >::_Calculate_growth
PUBLIC	?_Change_array@?$vector@USIShopLogData@@V?$allocator@USIShopLogData@@@std@@@std@@AAEXQAUSIShopLogData@@II@Z ; std::vector<SIShopLogData,std::allocator<SIShopLogData> >::_Change_array
PUBLIC	?_Xlength@?$vector@USIShopLogData@@V?$allocator@USIShopLogData@@@std@@@std@@CAXXZ ; std::vector<SIShopLogData,std::allocator<SIShopLogData> >::_Xlength
PUBLIC	??1_Reallocation_guard@?$vector@USIShopLogData@@V?$allocator@USIShopLogData@@@std@@@std@@QAE@XZ ; std::vector<SIShopLogData,std::allocator<SIShopLogData> >::_Reallocation_guard::~_Reallocation_guard
PUBLIC	?_Get_first@?$_Compressed_pair@V?$allocator@USIShopLogData@@@std@@V?$_Vector_val@U?$_Simple_types@USIShopLogData@@@std@@@2@$00@std@@QAEAAV?$allocator@USIShopLogData@@@2@XZ ; std::_Compressed_pair<std::allocator<SIShopLogData>,std::_Vector_val<std::_Simple_types<SIShopLogData> >,1>::_Get_first
PUBLIC	??0?$_Uninitialized_backout_al@V?$allocator@USIShopLogData@@@std@@@std@@QAE@PAUSIShopLogData@@AAV?$allocator@USIShopLogData@@@1@@Z ; std::_Uninitialized_backout_al<std::allocator<SIShopLogData> >::_Uninitialized_backout_al<std::allocator<SIShopLogData> >
PUBLIC	??1?$_Uninitialized_backout_al@V?$allocator@USIShopLogData@@@std@@@std@@QAE@XZ ; std::_Uninitialized_backout_al<std::allocator<SIShopLogData> >::~_Uninitialized_backout_al<std::allocator<SIShopLogData> >
PUBLIC	?_Release@?$_Uninitialized_backout_al@V?$allocator@USIShopLogData@@@std@@@std@@QAEPAUSIShopLogData@@XZ ; std::_Uninitialized_backout_al<std::allocator<SIShopLogData> >::_Release
PUBLIC	??0?$_Uninitialized_backout_al@V?$allocator@D@std@@@std@@QAE@PADAAV?$allocator@D@1@@Z ; std::_Uninitialized_backout_al<std::allocator<char> >::_Uninitialized_backout_al<std::allocator<char> >
PUBLIC	??1?$_Uninitialized_backout_al@V?$allocator@D@std@@@std@@QAE@XZ ; std::_Uninitialized_backout_al<std::allocator<char> >::~_Uninitialized_backout_al<std::allocator<char> >
PUBLIC	?_Release@?$_Uninitialized_backout_al@V?$allocator@D@std@@@std@@QAEPADXZ ; std::_Uninitialized_backout_al<std::allocator<char> >::_Release
PUBLIC	??0?$_Uninitialized_backout_al@V?$allocator@Upacket_offline_shop_item@@@std@@@std@@QAE@PAUpacket_offline_shop_item@@AAV?$allocator@Upacket_offline_shop_item@@@1@@Z ; std::_Uninitialized_backout_al<std::allocator<packet_offline_shop_item> >::_Uninitialized_backout_al<std::allocator<packet_offline_shop_item> >
PUBLIC	??1?$_Uninitialized_backout_al@V?$allocator@Upacket_offline_shop_item@@@std@@@std@@QAE@XZ ; std::_Uninitialized_backout_al<std::allocator<packet_offline_shop_item> >::~_Uninitialized_backout_al<std::allocator<packet_offline_shop_item> >
PUBLIC	?_Release@?$_Uninitialized_backout_al@V?$allocator@Upacket_offline_shop_item@@@std@@@std@@QAEPAUpacket_offline_shop_item@@XZ ; std::_Uninitialized_backout_al<std::allocator<packet_offline_shop_item> >::_Release
PUBLIC	??$_Reallocate_grow_by@V<lambda_1>@?1??insert@?$basic_string@DU?$char_traits@D@std@@V?$allocator@D@2@@std@@QAEAAV34@IQBDI@Z@IPBDI@?$basic_string@DU?$char_traits@D@std@@V?$allocator@D@2@@std@@AAEAAV01@IV<lambda_1>@?1??insert@01@QAEAAV01@IQBDI@Z@IPBDI@Z ; std::basic_string<char,std::char_traits<char>,std::allocator<char> >::_Reallocate_grow_by<`std::basic_string<char,std::char_traits<char>,std::allocator<char> >::insert'::`2'::<lambda_1>,unsigned int,char const *,unsigned int>
PUBLIC	??$_Destroy_range@PAPAV?$basic_string@DU?$char_traits@D@std@@V?$allocator@D@2@@std@@PAPAV12@@std@@YAXPAPAV?$basic_string@DU?$char_traits@D@std@@V?$allocator@D@2@@0@QAPAV10@@Z ; std::_Destroy_range<std::basic_string<char,std::char_traits<char>,std::allocator<char> > * *,std::basic_string<char,std::char_traits<char>,std::allocator<char> > * *>
PUBLIC	??$_Uninitialized_value_construct_n_unchecked1@PAPAV?$basic_string@DU?$char_traits@D@std@@V?$allocator@D@2@@std@@I@std@@YAPAPAV?$basic_string@DU?$char_traits@D@std@@V?$allocator@D@2@@0@PAPAV10@I@Z ; std::_Uninitialized_value_construct_n_unchecked1<std::basic_string<char,std::char_traits<char>,std::allocator<char> > * *,unsigned int>
PUBLIC	??$_Get_unwrapped_n@AAPAPAV?$basic_string@DU?$char_traits@D@std@@V?$allocator@D@2@@std@@H@std@@YA?A_TAAPAPAV?$basic_string@DU?$char_traits@D@std@@V?$allocator@D@2@@0@H@Z ; std::_Get_unwrapped_n<std::basic_string<char,std::char_traits<char>,std::allocator<char> > * * &,int>
PUBLIC	??$_Idl_distance@PAPAV?$basic_string@DU?$char_traits@D@std@@V?$allocator@D@2@@std@@PAPAV12@@std@@YA?A_PABQAPAV?$basic_string@DU?$char_traits@D@std@@V?$allocator@D@2@@0@0@Z ; std::_Idl_distance<std::basic_string<char,std::char_traits<char>,std::allocator<char> > * *,std::basic_string<char,std::char_traits<char>,std::allocator<char> > * *>
PUBLIC	??$_Get_unwrapped@ABQAPAV?$basic_string@DU?$char_traits@D@std@@V?$allocator@D@2@@std@@@std@@YA?A_TABQAPAV?$basic_string@DU?$char_traits@D@std@@V?$allocator@D@2@@0@@Z ; std::_Get_unwrapped<std::basic_string<char,std::char_traits<char>,std::allocator<char> > * * const &>
PUBLIC	??$uninitialized_copy@PAPAV?$basic_string@DU?$char_traits@D@std@@V?$allocator@D@2@@std@@PAPAV12@@std@@YAPAPAV?$basic_string@DU?$char_traits@D@std@@V?$allocator@D@2@@0@QAPAV10@0PAPAV10@@Z ; std::uninitialized_copy<std::basic_string<char,std::char_traits<char>,std::allocator<char> > * *,std::basic_string<char,std::char_traits<char>,std::allocator<char> > * *>
PUBLIC	??$_Allocate_at_least_helper@V?$allocator@PAV?$basic_string@DU?$char_traits@D@std@@V?$allocator@D@2@@std@@@std@@@std@@YAPAPAV?$basic_string@DU?$char_traits@D@std@@V?$allocator@D@2@@0@AAV?$allocator@PAV?$basic_string@DU?$char_traits@D@std@@V?$allocator@D@2@@std@@@0@AAI@Z ; std::_Allocate_at_least_helper<std::allocator<std::basic_string<char,std::char_traits<char>,std::allocator<char> > *> >
PUBLIC	??$?0ABV?$allocator@U?$pair@$$CBV?$basic_string@DU?$char_traits@D@std@@V?$allocator@D@2@@std@@V12@@std@@@std@@$$V@?$_Compressed_pair@V?$allocator@U?$_List_node@U?$pair@$$CBV?$basic_string@DU?$char_traits@D@std@@V?$allocator@D@2@@std@@V12@@std@@PAX@std@@@std@@V?$_List_val@U?$_List_simple_types@U?$pair@$$CBV?$basic_string@DU?$char_traits@D@std@@V?$allocator@D@2@@std@@V12@@std@@@std@@@2@$00@std@@QAE@U_One_then_variadic_args_t@1@ABV?$allocator@U?$pair@$$CBV?$basic_string@DU?$char_traits@D@std@@V?$allocator@D@2@@std@@V12@@std@@@1@@Z ; std::_Compressed_pair<std::allocator<std::_List_node<std::pair<std::basic_string<char,std::char_traits<char>,std::allocator<char> > const ,std::basic_string<char,std::char_traits<char>,std::allocator<char> > >,void *> >,std::_List_val<std::_List_simple_types<std::pair<std::basic_string<char,std::char_traits<char>,std::allocator<char> > const ,std::basic_string<char,std::char_traits<char>,std::allocator<char> > > > >,1>::_Compressed_pair<std::allocator<std::_List_node<std::pair<std::basic_string<char,std::char_traits<char>,std::allocator<char> > const ,std::basic_string<char,std::char_traits<char>,std::allocator<char> > >,void *> >,std::_List_val<std::_List_simple_types<std::pair<std::basic_string<char,std::char_traits<char>,std::allocator<char> > const ,std::basic_string<char,std::char_traits<char>,std::allocator<char> > > > >,1><std::allocator<std::pair<std::basic_string<char,std::char_traits<char>,std::allocator<char> > const ,std::basic_string<char,std::char_traits<char>,std::allocator<char> > > > const &>
PUBLIC	??$fill@PAV?$_List_unchecked_iterator@V?$_List_val@U?$_List_simple_types@U?$pair@$$CBV?$basic_string@DU?$char_traits@D@std@@V?$allocator@D@2@@std@@V12@@std@@@std@@@std@@@std@@V12@@std@@YAXQAV?$_List_unchecked_iterator@V?$_List_val@U?$_List_simple_types@U?$pair@$$CBV?$basic_string@DU?$char_traits@D@std@@V?$allocator@D@2@@std@@V12@@std@@@std@@@std@@@0@0ABV10@@Z ; std::fill<std::_List_unchecked_iterator<std::_List_val<std::_List_simple_types<std::pair<std::basic_string<char,std::char_traits<char>,std::allocator<char> > const ,std::basic_string<char,std::char_traits<char>,std::allocator<char> > > > > > *,std::_List_unchecked_iterator<std::_List_val<std::_List_simple_types<std::pair<std::basic_string<char,std::char_traits<char>,std::allocator<char> > const ,std::basic_string<char,std::char_traits<char>,std::allocator<char> > > > > > >
PUBLIC	??$uninitialized_fill@PAV?$_List_unchecked_iterator@V?$_List_val@U?$_List_simple_types@U?$pair@$$CBV?$basic_string@DU?$char_traits@D@std@@V?$allocator@D@2@@std@@V12@@std@@@std@@@std@@@std@@V12@@std@@YAXQAV?$_List_unchecked_iterator@V?$_List_val@U?$_List_simple_types@U?$pair@$$CBV?$basic_string@DU?$char_traits@D@std@@V?$allocator@D@2@@std@@V12@@std@@@std@@@std@@@0@0ABV10@@Z ; std::uninitialized_fill<std::_List_unchecked_iterator<std::_List_val<std::_List_simple_types<std::pair<std::basic_string<char,std::char_traits<char>,std::allocator<char> > const ,std::basic_string<char,std::char_traits<char>,std::allocator<char> > > > > > *,std::_List_unchecked_iterator<std::_List_val<std::_List_simple_types<std::pair<std::basic_string<char,std::char_traits<char>,std::allocator<char> > const ,std::basic_string<char,std::char_traits<char>,std::allocator<char> > > > > > >
PUBLIC	??$_Get_unwrapped@ABQAV?$_List_unchecked_iterator@V?$_List_val@U?$_List_simple_types@U?$pair@$$CBV?$basic_string@DU?$char_traits@D@std@@V?$allocator@D@2@@std@@V12@@std@@@std@@@std@@@std@@@std@@YA?A_TABQAV?$_List_unchecked_iterator@V?$_List_val@U?$_List_simple_types@U?$pair@$$CBV?$basic_string@DU?$char_traits@D@std@@V?$allocator@D@2@@std@@V12@@std@@@std@@@std@@@0@@Z ; std::_Get_unwrapped<std::_List_unchecked_iterator<std::_List_val<std::_List_simple_types<std::pair<std::basic_string<char,std::char_traits<char>,std::allocator<char> > const ,std::basic_string<char,std::char_traits<char>,std::allocator<char> > > > > > * const &>
PUBLIC	??$?0ABV?$allocator@U?$pair@$$CBV?$basic_string@DU?$char_traits@D@std@@V?$allocator@D@2@@std@@V12@@std@@@std@@$$V@?$_Compressed_pair@V?$allocator@V?$_List_unchecked_iterator@V?$_List_val@U?$_List_simple_types@U?$pair@$$CBV?$basic_string@DU?$char_traits@D@std@@V?$allocator@D@2@@std@@V12@@std@@@std@@@std@@@std@@@std@@V?$_Vector_val@U?$_Simple_types@V?$_List_unchecked_iterator@V?$_List_val@U?$_List_simple_types@U?$pair@$$CBV?$basic_string@DU?$char_traits@D@std@@V?$allocator@D@2@@std@@V12@@std@@@std@@@std@@@std@@@std@@@2@$00@std@@QAE@U_One_then_variadic_args_t@1@ABV?$allocator@U?$pair@$$CBV?$basic_string@DU?$char_traits@D@std@@V?$allocator@D@2@@std@@V12@@std@@@1@@Z ; std::_Compressed_pair<std::allocator<std::_List_unchecked_iterator<std::_List_val<std::_List_simple_types<std::pair<std::basic_string<char,std::char_traits<char>,std::allocator<char> > const ,std::basic_string<char,std::char_traits<char>,std::allocator<char> > > > > > >,std::_Vector_val<std::_Simple_types<std::_List_unchecked_iterator<std::_List_val<std::_List_simple_types<std::pair<std::basic_string<char,std::char_traits<char>,std::allocator<char> > const ,std::basic_string<char,std::char_traits<char>,std::allocator<char> > > > > > > >,1>::_Compressed_pair<std::allocator<std::_List_unchecked_iterator<std::_List_val<std::_List_simple_types<std::pair<std::basic_string<char,std::char_traits<char>,std::allocator<char> > const ,std::basic_string<char,std::char_traits<char>,std::allocator<char> > > > > > >,std::_Vector_val<std::_Simple_types<std::_List_unchecked_iterator<std::_List_val<std::_List_simple_types<std::pair<std::basic_string<char,std::char_traits<char>,std::allocator<char> > const ,std::basic_string<char,std::char_traits<char>,std::allocator<char> > > > > > > >,1><std::allocator<std::pair<std::basic_string<char,std::char_traits<char>,std::allocator<char> > const ,std::basic_string<char,std::char_traits<char>,std::allocator<char> > > > const &>
PUBLIC	??$forward@ABV?$allocator@U?$pair@$$CBV?$basic_string@DU?$char_traits@D@std@@V?$allocator@D@2@@std@@V12@@std@@@std@@@std@@YAABV?$allocator@U?$pair@$$CBV?$basic_string@DU?$char_traits@D@std@@V?$allocator@D@2@@std@@V12@@std@@@0@ABV10@@Z ; std::forward<std::allocator<std::pair<std::basic_string<char,std::char_traits<char>,std::allocator<char> > const ,std::basic_string<char,std::char_traits<char>,std::allocator<char> > > > const &>
PUBLIC	??$emplace@ABU?$pair@$$CBV?$basic_string@DU?$char_traits@D@std@@V?$allocator@D@2@@std@@V12@@std@@@?$_Hash@V?$_Umap_traits@V?$basic_string@DU?$char_traits@D@std@@V?$allocator@D@2@@std@@V12@V?$_Uhash_compare@V?$basic_string@DU?$char_traits@D@std@@V?$allocator@D@2@@std@@U?$hash@V?$basic_string@DU?$char_traits@D@std@@V?$allocator@D@2@@std@@@2@U?$equal_to@V?$basic_string@DU?$char_traits@D@std@@V?$allocator@D@2@@std@@@2@@2@V?$allocator@U?$pair@$$CBV?$basic_string@DU?$char_traits@D@std@@V?$allocator@D@2@@std@@V12@@std@@@2@$0A@@std@@@std@@QAE?AU?$pair@V?$_List_iterator@V?$_List_val@U?$_List_simple_types@U?$pair@$$CBV?$basic_string@DU?$char_traits@D@std@@V?$allocator@D@2@@std@@V12@@std@@@std@@@std@@@std@@_N@1@ABU?$pair@$$CBV?$basic_string@DU?$char_traits@D@std@@V?$allocator@D@2@@std@@V12@@1@@Z ; std::_Hash<std::_Umap_traits<std::basic_string<char,std::char_traits<char>,std::allocator<char> >,std::basic_string<char,std::char_traits<char>,std::allocator<char> >,std::_Uhash_compare<std::basic_string<char,std::char_traits<char>,std::allocator<char> >,std::hash<std::basic_string<char,std::char_traits<char>,std::allocator<char> > >,std::equal_to<std::basic_string<char,std::char_traits<char>,std::allocator<char> > > >,std::allocator<std::pair<std::basic_string<char,std::char_traits<char>,std::allocator<char> > const ,std::basic_string<char,std::char_traits<char>,std::allocator<char> > > >,0> >::emplace<std::pair<std::basic_string<char,std::char_traits<char>,std::allocator<char> > const ,std::basic_string<char,std::char_traits<char>,std::allocator<char> > > const &>
PUBLIC	??$_Destroy_in_place@PAU?$_List_node@U?$pair@$$CBV?$basic_string@DU?$char_traits@D@std@@V?$allocator@D@2@@std@@V12@@std@@PAX@std@@@std@@YAXAAPAU?$_List_node@U?$pair@$$CBV?$basic_string@DU?$char_traits@D@std@@V?$allocator@D@2@@std@@V12@@std@@PAX@0@@Z ; std::_Destroy_in_place<std::_List_node<std::pair<std::basic_string<char,std::char_traits<char>,std::allocator<char> > const ,std::basic_string<char,std::char_traits<char>,std::allocator<char> > >,void *> *>
PUBLIC	??$_Freenode@V?$allocator@U?$_List_node@U?$pair@$$CBV?$basic_string@DU?$char_traits@D@std@@V?$allocator@D@2@@std@@V12@@std@@PAX@std@@@std@@@?$_List_node@U?$pair@$$CBV?$basic_string@DU?$char_traits@D@std@@V?$allocator@D@2@@std@@V12@@std@@PAX@std@@SAXAAV?$allocator@U?$_List_node@U?$pair@$$CBV?$basic_string@DU?$char_traits@D@std@@V?$allocator@D@2@@std@@V12@@std@@PAX@std@@@1@PAU01@@Z ; std::_List_node<std::pair<std::basic_string<char,std::char_traits<char>,std::allocator<char> > const ,std::basic_string<char,std::char_traits<char>,std::allocator<char> > >,void *>::_Freenode<std::allocator<std::_List_node<std::pair<std::basic_string<char,std::char_traits<char>,std::allocator<char> > const ,std::basic_string<char,std::char_traits<char>,std::allocator<char> > >,void *> > >
PUBLIC	??$_Emplace_back@$$V@?$_Uninitialized_backout_al@V?$allocator@Upacket_offline_shop_item@@@std@@@std@@QAEXXZ ; std::_Uninitialized_backout_al<std::allocator<packet_offline_shop_item> >::_Emplace_back<>
PUBLIC	??$_Uninitialized_move@PAUpacket_offline_shop_item@@V?$allocator@Upacket_offline_shop_item@@@std@@@std@@YAPAUpacket_offline_shop_item@@QAU1@0PAU1@AAV?$allocator@Upacket_offline_shop_item@@@0@@Z ; std::_Uninitialized_move<packet_offline_shop_item *,std::allocator<packet_offline_shop_item> >
PUBLIC	??$_Get_unwrapped@ABQAUpacket_offline_shop_item@@@std@@YA?A_TABQAUpacket_offline_shop_item@@@Z ; std::_Get_unwrapped<packet_offline_shop_item * const &>
PUBLIC	??$_Allocate_at_least_helper@V?$allocator@Upacket_offline_shop_item@@@std@@@std@@YAPAUpacket_offline_shop_item@@AAV?$allocator@Upacket_offline_shop_item@@@0@AAI@Z ; std::_Allocate_at_least_helper<std::allocator<packet_offline_shop_item> >
PUBLIC	??$_Kfn@$$CBV?$basic_string@DU?$char_traits@D@std@@V?$allocator@D@2@@std@@V12@@?$_Umap_traits@V?$basic_string@DU?$char_traits@D@std@@V?$allocator@D@2@@std@@V12@V?$_Uhash_compare@V?$basic_string@DU?$char_traits@D@std@@V?$allocator@D@2@@std@@U?$hash@V?$basic_string@DU?$char_traits@D@std@@V?$allocator@D@2@@std@@@2@U?$equal_to@V?$basic_string@DU?$char_traits@D@std@@V?$allocator@D@2@@std@@@2@@2@V?$allocator@U?$pair@$$CBV?$basic_string@DU?$char_traits@D@std@@V?$allocator@D@2@@std@@V12@@std@@@2@$0A@@std@@SAABV?$basic_string@DU?$char_traits@D@std@@V?$allocator@D@2@@1@ABU?$pair@$$CBV?$basic_string@DU?$char_traits@D@std@@V?$allocator@D@2@@std@@V12@@1@@Z ; std::_Umap_traits<std::basic_string<char,std::char_traits<char>,std::allocator<char> >,std::basic_string<char,std::char_traits<char>,std::allocator<char> >,std::_Uhash_compare<std::basic_string<char,std::char_traits<char>,std::allocator<char> >,std::hash<std::basic_string<char,std::char_traits<char>,std::allocator<char> > >,std::equal_to<std::basic_string<char,std::char_traits<char>,std::allocator<char> > > >,std::allocator<std::pair<std::basic_string<char,std::char_traits<char>,std::allocator<char> > const ,std::basic_string<char,std::char_traits<char>,std::allocator<char> > > >,0>::_Kfn<std::basic_string<char,std::char_traits<char>,std::allocator<char> > const ,std::basic_string<char,std::char_traits<char>,std::allocator<char> > >
PUBLIC	??$_Emplace_back@$$V@?$_Uninitialized_backout_al@V?$allocator@D@std@@@std@@QAEXXZ ; std::_Uninitialized_backout_al<std::allocator<char> >::_Emplace_back<>
PUBLIC	??$_To_address@PAD@std@@YA?A_PABQAD@Z		; std::_To_address<char *>
PUBLIC	??$_Zero_range@PAD@std@@YAPADQAD0@Z		; std::_Zero_range<char *>
PUBLIC	??$_Uninitialized_move@PADV?$allocator@D@std@@@std@@YAPADQAD0PADAAV?$allocator@D@0@@Z ; std::_Uninitialized_move<char *,std::allocator<char> >
PUBLIC	??$_Get_unwrapped@ABQAD@std@@YA?A_TABQAD@Z	; std::_Get_unwrapped<char * const &>
PUBLIC	??$_Emplace_back@$$V@?$_Uninitialized_backout_al@V?$allocator@USIShopLogData@@@std@@@std@@QAEXXZ ; std::_Uninitialized_backout_al<std::allocator<SIShopLogData> >::_Emplace_back<>
PUBLIC	??$_Uninitialized_move@PAUSIShopLogData@@V?$allocator@USIShopLogData@@@std@@@std@@YAPAUSIShopLogData@@QAU1@0PAU1@AAV?$allocator@USIShopLogData@@@0@@Z ; std::_Uninitialized_move<SIShopLogData *,std::allocator<SIShopLogData> >
PUBLIC	??$_Get_unwrapped@ABQAUSIShopLogData@@@std@@YA?A_TABQAUSIShopLogData@@@Z ; std::_Get_unwrapped<SIShopLogData * const &>
PUBLIC	??$_Allocate_at_least_helper@V?$allocator@USIShopLogData@@@std@@@std@@YAPAUSIShopLogData@@AAV?$allocator@USIShopLogData@@@0@AAI@Z ; std::_Allocate_at_least_helper<std::allocator<SIShopLogData> >
PUBLIC	??$_Construct_in_place@UTEventTable@InGameEventManager@@AAU12@@std@@YAXAAUTEventTable@InGameEventManager@@0@Z ; std::_Construct_in_place<InGameEventManager::TEventTable,InGameEventManager::TEventTable &>
PUBLIC	??0?$_List_unchecked_iterator@V?$_List_val@U?$_List_simple_types@U?$pair@$$CBV?$basic_string@DU?$char_traits@D@std@@V?$allocator@D@2@@std@@V12@@std@@@std@@@std@@@std@@QAE@PAU?$_List_node@U?$pair@$$CBV?$basic_string@DU?$char_traits@D@std@@V?$allocator@D@2@@std@@V12@@std@@PAX@1@PBV?$_List_val@U?$_List_simple_types@U?$pair@$$CBV?$basic_string@DU?$char_traits@D@std@@V?$allocator@D@2@@std@@V12@@std@@@std@@@1@@Z ; std::_List_unchecked_iterator<std::_List_val<std::_List_simple_types<std::pair<std::basic_string<char,std::char_traits<char>,std::allocator<char> > const ,std::basic_string<char,std::char_traits<char>,std::allocator<char> > > > > >::_List_unchecked_iterator<std::_List_val<std::_List_simple_types<std::pair<std::basic_string<char,std::char_traits<char>,std::allocator<char> > const ,std::basic_string<char,std::char_traits<char>,std::allocator<char> > > > > >
PUBLIC	??R<lambda_1>@?1??insert@?$basic_string@DU?$char_traits@D@std@@V?$allocator@D@2@@std@@QAEAAV23@IQBDI@Z@QBE@QAD0II0I@Z ; `std::basic_string<char,std::char_traits<char>,std::allocator<char> >::insert'::`2'::<lambda_1>::operator()
PUBLIC	?insert@?$basic_string@DU?$char_traits@D@std@@V?$allocator@D@2@@std@@QAEAAV12@IQBDI@Z ; std::basic_string<char,std::char_traits<char>,std::allocator<char> >::insert
PUBLIC	?deallocate@?$allocator@UTSwitchbotAttributeAlternativeTable@CPythonSwitchbot@@@std@@QAEXQAUTSwitchbotAttributeAlternativeTable@CPythonSwitchbot@@I@Z ; std::allocator<CPythonSwitchbot::TSwitchbotAttributeAlternativeTable>::deallocate
PUBLIC	?_Getal@?$vector@UTSwitchbotAttributeAlternativeTable@CPythonSwitchbot@@V?$allocator@UTSwitchbotAttributeAlternativeTable@CPythonSwitchbot@@@std@@@std@@AAEAAV?$allocator@UTSwitchbotAttributeAlternativeTable@CPythonSwitchbot@@@2@XZ ; std::vector<CPythonSwitchbot::TSwitchbotAttributeAlternativeTable,std::allocator<CPythonSwitchbot::TSwitchbotAttributeAlternativeTable> >::_Getal
PUBLIC	?_Growmap@?$deque@V?$basic_string@DU?$char_traits@D@std@@V?$allocator@D@2@@std@@V?$allocator@V?$basic_string@DU?$char_traits@D@std@@V?$allocator@D@2@@std@@@2@@std@@AAEXI@Z ; std::deque<std::basic_string<char,std::char_traits<char>,std::allocator<char> >,std::allocator<std::basic_string<char,std::char_traits<char>,std::allocator<char> > > >::_Growmap
PUBLIC	?_Subscript@?$_Deque_val@U?$_Deque_simple_types@V?$basic_string@DU?$char_traits@D@std@@V?$allocator@D@2@@std@@@std@@@std@@QAEAAV?$basic_string@DU?$char_traits@D@std@@V?$allocator@D@2@@2@I@Z ; std::_Deque_val<std::_Deque_simple_types<std::basic_string<char,std::char_traits<char>,std::allocator<char> > > >::_Subscript
PUBLIC	?begin@?$initializer_list@U?$pair@$$CBV?$basic_string@DU?$char_traits@D@std@@V?$allocator@D@2@@std@@V12@@std@@@std@@QBEPBU?$pair@$$CBV?$basic_string@DU?$char_traits@D@std@@V?$allocator@D@2@@std@@V12@@2@XZ ; std::initializer_list<std::pair<std::basic_string<char,std::char_traits<char>,std::allocator<char> > const ,std::basic_string<char,std::char_traits<char>,std::allocator<char> > > >::begin
PUBLIC	?end@?$initializer_list@U?$pair@$$CBV?$basic_string@DU?$char_traits@D@std@@V?$allocator@D@2@@std@@V12@@std@@@std@@QBEPBU?$pair@$$CBV?$basic_string@DU?$char_traits@D@std@@V?$allocator@D@2@@std@@V12@@2@XZ ; std::initializer_list<std::pair<std::basic_string<char,std::char_traits<char>,std::allocator<char> > const ,std::basic_string<char,std::char_traits<char>,std::allocator<char> > > >::end
PUBLIC	??0?$allocator@Upacket_offline_shop_item@@@std@@QAE@XZ ; std::allocator<packet_offline_shop_item>::allocator<packet_offline_shop_item>
PUBLIC	?deallocate@?$allocator@Upacket_offline_shop_item@@@std@@QAEXQAUpacket_offline_shop_item@@I@Z ; std::allocator<packet_offline_shop_item>::deallocate
PUBLIC	?_Orphan_range@?$vector@Upacket_offline_shop_item@@V?$allocator@Upacket_offline_shop_item@@@std@@@std@@ABEXPAUpacket_offline_shop_item@@0@Z ; std::vector<packet_offline_shop_item,std::allocator<packet_offline_shop_item> >::_Orphan_range
PUBLIC	?_Getal@?$vector@Upacket_offline_shop_item@@V?$allocator@Upacket_offline_shop_item@@@std@@@std@@AAEAAV?$allocator@Upacket_offline_shop_item@@@2@XZ ; std::vector<packet_offline_shop_item,std::allocator<packet_offline_shop_item> >::_Getal
PUBLIC	??0?$_Vector_val@U?$_Simple_types@Upacket_offline_shop_item@@@std@@@std@@QAE@XZ ; std::_Vector_val<std::_Simple_types<packet_offline_shop_item> >::_Vector_val<std::_Simple_types<packet_offline_shop_item> >
PUBLIC	??0?$_Umap_traits@V?$basic_string@DU?$char_traits@D@std@@V?$allocator@D@2@@std@@V12@V?$_Uhash_compare@V?$basic_string@DU?$char_traits@D@std@@V?$allocator@D@2@@std@@U?$hash@V?$basic_string@DU?$char_traits@D@std@@V?$allocator@D@2@@std@@@2@U?$equal_to@V?$basic_string@DU?$char_traits@D@std@@V?$allocator@D@2@@std@@@2@@2@V?$allocator@U?$pair@$$CBV?$basic_string@DU?$char_traits@D@std@@V?$allocator@D@2@@std@@V12@@std@@@2@$0A@@std@@QAE@ABV?$_Uhash_compare@V?$basic_string@DU?$char_traits@D@std@@V?$allocator@D@2@@std@@U?$hash@V?$basic_string@DU?$char_traits@D@std@@V?$allocator@D@2@@std@@@2@U?$equal_to@V?$basic_string@DU?$char_traits@D@std@@V?$allocator@D@2@@std@@@2@@1@@Z ; std::_Umap_traits<std::basic_string<char,std::char_traits<char>,std::allocator<char> >,std::basic_string<char,std::char_traits<char>,std::allocator<char> >,std::_Uhash_compare<std::basic_string<char,std::char_traits<char>,std::allocator<char> >,std::hash<std::basic_string<char,std::char_traits<char>,std::allocator<char> > >,std::equal_to<std::basic_string<char,std::char_traits<char>,std::allocator<char> > > >,std::allocator<std::pair<std::basic_string<char,std::char_traits<char>,std::allocator<char> > const ,std::basic_string<char,std::char_traits<char>,std::allocator<char> > > >,0>::_Umap_traits<std::basic_string<char,std::char_traits<char>,std::allocator<char> >,std::basic_string<char,std::char_traits<char>,std::allocator<char> >,std::_Uhash_compare<std::basic_string<char,std::char_traits<char>,std::allocator<char> >,std::hash<std::basic_string<char,std::char_traits<char>,std::allocator<char> > >,std::equal_to<std::basic_string<char,std::char_traits<char>,std::allocator<char> > > >,std::allocator<std::pair<std::basic_string<char,std::char_traits<char>,std::allocator<char> > const ,std::basic_string<char,std::char_traits<char>,std::allocator<char> > > >,0>
PUBLIC	?_Max_bucket_size@?$_Hash@V?$_Umap_traits@V?$basic_string@DU?$char_traits@D@std@@V?$allocator@D@2@@std@@V12@V?$_Uhash_compare@V?$basic_string@DU?$char_traits@D@std@@V?$allocator@D@2@@std@@U?$hash@V?$basic_string@DU?$char_traits@D@std@@V?$allocator@D@2@@std@@@2@U?$equal_to@V?$basic_string@DU?$char_traits@D@std@@V?$allocator@D@2@@std@@@2@@2@V?$allocator@U?$pair@$$CBV?$basic_string@DU?$char_traits@D@std@@V?$allocator@D@2@@std@@V12@@std@@@2@$0A@@std@@@std@@IAEAAMXZ ; std::_Hash<std::_Umap_traits<std::basic_string<char,std::char_traits<char>,std::allocator<char> >,std::basic_string<char,std::char_traits<char>,std::allocator<char> >,std::_Uhash_compare<std::basic_string<char,std::char_traits<char>,std::allocator<char> >,std::hash<std::basic_string<char,std::char_traits<char>,std::allocator<char> > >,std::equal_to<std::basic_string<char,std::char_traits<char>,std::allocator<char> > > >,std::allocator<std::pair<std::basic_string<char,std::char_traits<char>,std::allocator<char> > const ,std::basic_string<char,std::char_traits<char>,std::allocator<char> > > >,0> >::_Max_bucket_size
PUBLIC	??0?$list@U?$pair@$$CBV?$basic_string@DU?$char_traits@D@std@@V?$allocator@D@2@@std@@V12@@std@@V?$allocator@U?$pair@$$CBV?$basic_string@DU?$char_traits@D@std@@V?$allocator@D@2@@std@@V12@@std@@@2@@std@@QAE@ABV?$allocator@U?$pair@$$CBV?$basic_string@DU?$char_traits@D@std@@V?$allocator@D@2@@std@@V12@@std@@@1@@Z ; std::list<std::pair<std::basic_string<char,std::char_traits<char>,std::allocator<char> > const ,std::basic_string<char,std::char_traits<char>,std::allocator<char> > >,std::allocator<std::pair<std::basic_string<char,std::char_traits<char>,std::allocator<char> > const ,std::basic_string<char,std::char_traits<char>,std::allocator<char> > > > >::list<std::pair<std::basic_string<char,std::char_traits<char>,std::allocator<char> > const ,std::basic_string<char,std::char_traits<char>,std::allocator<char> > >,std::allocator<std::pair<std::basic_string<char,std::char_traits<char>,std::allocator<char> > const ,std::basic_string<char,std::char_traits<char>,std::allocator<char> > > > >
PUBLIC	?_Unchecked_end@?$list@U?$pair@$$CBV?$basic_string@DU?$char_traits@D@std@@V?$allocator@D@2@@std@@V12@@std@@V?$allocator@U?$pair@$$CBV?$basic_string@DU?$char_traits@D@std@@V?$allocator@D@2@@std@@V12@@std@@@2@@std@@QAE?AV?$_List_unchecked_iterator@V?$_List_val@U?$_List_simple_types@U?$pair@$$CBV?$basic_string@DU?$char_traits@D@std@@V?$allocator@D@2@@std@@V12@@std@@@std@@@std@@@2@XZ ; std::list<std::pair<std::basic_string<char,std::char_traits<char>,std::allocator<char> > const ,std::basic_string<char,std::char_traits<char>,std::allocator<char> > >,std::allocator<std::pair<std::basic_string<char,std::char_traits<char>,std::allocator<char> > const ,std::basic_string<char,std::char_traits<char>,std::allocator<char> > > > >::_Unchecked_end
PUBLIC	?_Getal@?$list@U?$pair@$$CBV?$basic_string@DU?$char_traits@D@std@@V?$allocator@D@2@@std@@V12@@std@@V?$allocator@U?$pair@$$CBV?$basic_string@DU?$char_traits@D@std@@V?$allocator@D@2@@std@@V12@@std@@@2@@std@@AAEAAV?$allocator@U?$_List_node@U?$pair@$$CBV?$basic_string@DU?$char_traits@D@std@@V?$allocator@D@2@@std@@V12@@std@@PAX@std@@@2@XZ ; std::list<std::pair<std::basic_string<char,std::char_traits<char>,std::allocator<char> > const ,std::basic_string<char,std::char_traits<char>,std::allocator<char> > >,std::allocator<std::pair<std::basic_string<char,std::char_traits<char>,std::allocator<char> > const ,std::basic_string<char,std::char_traits<char>,std::allocator<char> > > > >::_Getal
PUBLIC	??0?$_List_unchecked_const_iterator@V?$_List_val@U?$_List_simple_types@U?$pair@$$CBV?$basic_string@DU?$char_traits@D@std@@V?$allocator@D@2@@std@@V12@@std@@@std@@@std@@U_Iterator_base0@2@@std@@QAE@PAU?$_List_node@U?$pair@$$CBV?$basic_string@DU?$char_traits@D@std@@V?$allocator@D@2@@std@@V12@@std@@PAX@1@PBV?$_List_val@U?$_List_simple_types@U?$pair@$$CBV?$basic_string@DU?$char_traits@D@std@@V?$allocator@D@2@@std@@V12@@std@@@std@@@1@@Z ; std::_List_unchecked_const_iterator<std::_List_val<std::_List_simple_types<std::pair<std::basic_string<char,std::char_traits<char>,std::allocator<char> > const ,std::basic_string<char,std::char_traits<char>,std::allocator<char> > > > >,std::_Iterator_base0>::_List_unchecked_const_iterator<std::_List_val<std::_List_simple_types<std::pair<std::basic_string<char,std::char_traits<char>,std::allocator<char> > const ,std::basic_string<char,std::char_traits<char>,std::allocator<char> > > > >,std::_Iterator_base0>
PUBLIC	?deallocate@?$allocator@V?$_List_unchecked_iterator@V?$_List_val@U?$_List_simple_types@U?$pair@$$CBV?$basic_string@DU?$char_traits@D@std@@V?$allocator@D@2@@std@@V12@@std@@@std@@@std@@@std@@@std@@QAEXQAV?$_List_unchecked_iterator@V?$_List_val@U?$_List_simple_types@U?$pair@$$CBV?$basic_string@DU?$char_traits@D@std@@V?$allocator@D@2@@std@@V12@@std@@@std@@@std@@@2@I@Z ; std::allocator<std::_List_unchecked_iterator<std::_List_val<std::_List_simple_types<std::pair<std::basic_string<char,std::char_traits<char>,std::allocator<char> > const ,std::basic_string<char,std::char_traits<char>,std::allocator<char> > > > > > >::deallocate
PUBLIC	?capacity@?$_Hash_vec@V?$allocator@V?$_List_unchecked_iterator@V?$_List_val@U?$_List_simple_types@U?$pair@$$CBV?$basic_string@DU?$char_traits@D@std@@V?$allocator@D@2@@std@@V12@@std@@@std@@@std@@@std@@@std@@@std@@QBEIXZ ; std::_Hash_vec<std::allocator<std::_List_unchecked_iterator<std::_List_val<std::_List_simple_types<std::pair<std::basic_string<char,std::char_traits<char>,std::allocator<char> > const ,std::basic_string<char,std::char_traits<char>,std::allocator<char> > > > > > > >::capacity
PUBLIC	?_Assign_grow@?$_Hash_vec@V?$allocator@V?$_List_unchecked_iterator@V?$_List_val@U?$_List_simple_types@U?$pair@$$CBV?$basic_string@DU?$char_traits@D@std@@V?$allocator@D@2@@std@@V12@@std@@@std@@@std@@@std@@@std@@@std@@QAEXIV?$_List_unchecked_iterator@V?$_List_val@U?$_List_simple_types@U?$pair@$$CBV?$basic_string@DU?$char_traits@D@std@@V?$allocator@D@2@@std@@V12@@std@@@std@@@std@@@2@@Z ; std::_Hash_vec<std::allocator<std::_List_unchecked_iterator<std::_List_val<std::_List_simple_types<std::pair<std::basic_string<char,std::char_traits<char>,std::allocator<char> > const ,std::basic_string<char,std::char_traits<char>,std::allocator<char> > > > > > > >::_Assign_grow
PUBLIC	?_Get_first@?$_Compressed_pair@V?$allocator@V?$_List_unchecked_iterator@V?$_List_val@U?$_List_simple_types@U?$pair@$$CBV?$basic_string@DU?$char_traits@D@std@@V?$allocator@D@2@@std@@V12@@std@@@std@@@std@@@std@@@std@@V?$_Vector_val@U?$_Simple_types@V?$_List_unchecked_iterator@V?$_List_val@U?$_List_simple_types@U?$pair@$$CBV?$basic_string@DU?$char_traits@D@std@@V?$allocator@D@2@@std@@V12@@std@@@std@@@std@@@std@@@std@@@2@$00@std@@QAEAAV?$allocator@V?$_List_unchecked_iterator@V?$_List_val@U?$_List_simple_types@U?$pair@$$CBV?$basic_string@DU?$char_traits@D@std@@V?$allocator@D@2@@std@@V12@@std@@@std@@@std@@@std@@@2@XZ ; std::_Compressed_pair<std::allocator<std::_List_unchecked_iterator<std::_List_val<std::_List_simple_types<std::pair<std::basic_string<char,std::char_traits<char>,std::allocator<char> > const ,std::basic_string<char,std::char_traits<char>,std::allocator<char> > > > > > >,std::_Vector_val<std::_Simple_types<std::_List_unchecked_iterator<std::_List_val<std::_List_simple_types<std::pair<std::basic_string<char,std::char_traits<char>,std::allocator<char> > const ,std::basic_string<char,std::char_traits<char>,std::allocator<char> > > > > > > >,1>::_Get_first
PUBLIC	?_Orphan_range@?$vector@DV?$allocator@D@std@@@std@@ABEXPAD0@Z ; std::vector<char,std::allocator<char> >::_Orphan_range
PUBLIC	??0?$_Vector_val@U?$_Simple_types@D@std@@@std@@QAE@XZ ; std::_Vector_val<std::_Simple_types<char> >::_Vector_val<std::_Simple_types<char> >
PUBLIC	?_Get_first@?$_Compressed_pair@V?$allocator@D@std@@V?$_Vector_val@U?$_Simple_types@D@std@@@2@$00@std@@QAEAAV?$allocator@D@2@XZ ; std::_Compressed_pair<std::allocator<char>,std::_Vector_val<std::_Simple_types<char> >,1>::_Get_first
PUBLIC	??0?$allocator@USIShopLogData@@@std@@QAE@XZ	; std::allocator<SIShopLogData>::allocator<SIShopLogData>
PUBLIC	?deallocate@?$allocator@USIShopLogData@@@std@@QAEXQAUSIShopLogData@@I@Z ; std::allocator<SIShopLogData>::deallocate
PUBLIC	?_Orphan_range@?$vector@USIShopLogData@@V?$allocator@USIShopLogData@@@std@@@std@@ABEXPAUSIShopLogData@@0@Z ; std::vector<SIShopLogData,std::allocator<SIShopLogData> >::_Orphan_range
PUBLIC	?_Getal@?$vector@USIShopLogData@@V?$allocator@USIShopLogData@@@std@@@std@@AAEAAV?$allocator@USIShopLogData@@@2@XZ ; std::vector<SIShopLogData,std::allocator<SIShopLogData> >::_Getal
PUBLIC	??0?$_Vector_val@U?$_Simple_types@USIShopLogData@@@std@@@std@@QAE@XZ ; std::_Vector_val<std::_Simple_types<SIShopLogData> >::_Vector_val<std::_Simple_types<SIShopLogData> >
PUBLIC	??$_Reallocate_grow_by@V<lambda_1>@?1??replace@?$basic_string@DU?$char_traits@D@std@@V?$allocator@D@2@@std@@QAEAAV34@IIQBDI@Z@IIPBDI@?$basic_string@DU?$char_traits@D@std@@V?$allocator@D@2@@std@@AAEAAV01@IV<lambda_1>@?1??replace@01@QAEAAV01@IIQBDI@Z@IIPBDI@Z ; std::basic_string<char,std::char_traits<char>,std::allocator<char> >::_Reallocate_grow_by<`std::basic_string<char,std::char_traits<char>,std::allocator<char> >::replace'::`2'::<lambda_1>,unsigned int,unsigned int,char const *,unsigned int>
PUBLIC	??$_Destroy_range@V?$allocator@UTSwitchbotAttributeAlternativeTable@CPythonSwitchbot@@@std@@@std@@YAXPAUTSwitchbotAttributeAlternativeTable@CPythonSwitchbot@@QAU12@AAV?$allocator@UTSwitchbotAttributeAlternativeTable@CPythonSwitchbot@@@0@@Z ; std::_Destroy_range<std::allocator<CPythonSwitchbot::TSwitchbotAttributeAlternativeTable> >
PUBLIC	??$?0ABV?$allocator@U?$pair@$$CBV?$basic_string@DU?$char_traits@D@std@@V?$allocator@D@2@@std@@V12@@std@@@std@@$0A@@?$_Hash_vec@V?$allocator@V?$_List_unchecked_iterator@V?$_List_val@U?$_List_simple_types@U?$pair@$$CBV?$basic_string@DU?$char_traits@D@std@@V?$allocator@D@2@@std@@V12@@std@@@std@@@std@@@std@@@std@@@std@@QAE@ABV?$allocator@U?$pair@$$CBV?$basic_string@DU?$char_traits@D@std@@V?$allocator@D@2@@std@@V12@@std@@@1@@Z ; std::_Hash_vec<std::allocator<std::_List_unchecked_iterator<std::_List_val<std::_List_simple_types<std::pair<std::basic_string<char,std::char_traits<char>,std::allocator<char> > const ,std::basic_string<char,std::char_traits<char>,std::allocator<char> > > > > > > >::_Hash_vec<std::allocator<std::_List_unchecked_iterator<std::_List_val<std::_List_simple_types<std::pair<std::basic_string<char,std::char_traits<char>,std::allocator<char> > const ,std::basic_string<char,std::char_traits<char>,std::allocator<char> > > > > > > ><std::allocator<std::pair<std::basic_string<char,std::char_traits<char>,std::allocator<char> > const ,std::basic_string<char,std::char_traits<char>,std::allocator<char> > > > const &,0>
PUBLIC	??$_Insert_range_unchecked@PBU?$pair@$$CBV?$basic_string@DU?$char_traits@D@std@@V?$allocator@D@2@@std@@V12@@std@@PBU12@@?$_Hash@V?$_Umap_traits@V?$basic_string@DU?$char_traits@D@std@@V?$allocator@D@2@@std@@V12@V?$_Uhash_compare@V?$basic_string@DU?$char_traits@D@std@@V?$allocator@D@2@@std@@U?$hash@V?$basic_string@DU?$char_traits@D@std@@V?$allocator@D@2@@std@@@2@U?$equal_to@V?$basic_string@DU?$char_traits@D@std@@V?$allocator@D@2@@std@@@2@@2@V?$allocator@U?$pair@$$CBV?$basic_string@DU?$char_traits@D@std@@V?$allocator@D@2@@std@@V12@@std@@@2@$0A@@std@@@std@@IAEXPBU?$pair@$$CBV?$basic_string@DU?$char_traits@D@std@@V?$allocator@D@2@@std@@V12@@1@QBU21@@Z ; std::_Hash<std::_Umap_traits<std::basic_string<char,std::char_traits<char>,std::allocator<char> >,std::basic_string<char,std::char_traits<char>,std::allocator<char> >,std::_Uhash_compare<std::basic_string<char,std::char_traits<char>,std::allocator<char> >,std::hash<std::basic_string<char,std::char_traits<char>,std::allocator<char> > >,std::equal_to<std::basic_string<char,std::char_traits<char>,std::allocator<char> > > >,std::allocator<std::pair<std::basic_string<char,std::char_traits<char>,std::allocator<char> > const ,std::basic_string<char,std::char_traits<char>,std::allocator<char> > > >,0> >::_Insert_range_unchecked<std::pair<std::basic_string<char,std::char_traits<char>,std::allocator<char> > const ,std::basic_string<char,std::char_traits<char>,std::allocator<char> > > const *,std::pair<std::basic_string<char,std::char_traits<char>,std::allocator<char> > const ,std::basic_string<char,std::char_traits<char>,std::allocator<char> > > const *>
PUBLIC	??$addressof@$$CBV?$_List_val@U?$_List_simple_types@U?$pair@$$CBV?$basic_string@DU?$char_traits@D@std@@V?$allocator@D@2@@std@@V12@@std@@@std@@@std@@@std@@YAPBV?$_List_val@U?$_List_simple_types@U?$pair@$$CBV?$basic_string@DU?$char_traits@D@std@@V?$allocator@D@2@@std@@V12@@std@@@std@@@0@ABV10@@Z ; std::addressof<std::_List_val<std::_List_simple_types<std::pair<std::basic_string<char,std::char_traits<char>,std::allocator<char> > const ,std::basic_string<char,std::char_traits<char>,std::allocator<char> > > > > const >
PUBLIC	??$_Freenode0@V?$allocator@U?$_List_node@U?$pair@$$CBV?$basic_string@DU?$char_traits@D@std@@V?$allocator@D@2@@std@@V12@@std@@PAX@std@@@std@@@?$_List_node@U?$pair@$$CBV?$basic_string@DU?$char_traits@D@std@@V?$allocator@D@2@@std@@V12@@std@@PAX@std@@SAXAAV?$allocator@U?$_List_node@U?$pair@$$CBV?$basic_string@DU?$char_traits@D@std@@V?$allocator@D@2@@std@@V12@@std@@PAX@std@@@1@PAU01@@Z ; std::_List_node<std::pair<std::basic_string<char,std::char_traits<char>,std::allocator<char> > const ,std::basic_string<char,std::char_traits<char>,std::allocator<char> > >,void *>::_Freenode0<std::allocator<std::_List_node<std::pair<std::basic_string<char,std::char_traits<char>,std::allocator<char> > const ,std::basic_string<char,std::char_traits<char>,std::allocator<char> > >,void *> > >
PUBLIC	??$_Free_non_head@V?$allocator@U?$_List_node@U?$pair@$$CBV?$basic_string@DU?$char_traits@D@std@@V?$allocator@D@2@@std@@V12@@std@@PAX@std@@@std@@@?$_List_node@U?$pair@$$CBV?$basic_string@DU?$char_traits@D@std@@V?$allocator@D@2@@std@@V12@@std@@PAX@std@@SAXAAV?$allocator@U?$_List_node@U?$pair@$$CBV?$basic_string@DU?$char_traits@D@std@@V?$allocator@D@2@@std@@V12@@std@@PAX@std@@@1@PAU01@@Z ; std::_List_node<std::pair<std::basic_string<char,std::char_traits<char>,std::allocator<char> > const ,std::basic_string<char,std::char_traits<char>,std::allocator<char> > >,void *>::_Free_non_head<std::allocator<std::_List_node<std::pair<std::basic_string<char,std::char_traits<char>,std::allocator<char> > const ,std::basic_string<char,std::char_traits<char>,std::allocator<char> > >,void *> > >
PUBLIC	??$_Destroy_range@PAV?$_List_unchecked_iterator@V?$_List_val@U?$_List_simple_types@U?$pair@$$CBV?$basic_string@DU?$char_traits@D@std@@V?$allocator@D@2@@std@@V12@@std@@@std@@@std@@@std@@PAV12@@std@@YAXPAV?$_List_unchecked_iterator@V?$_List_val@U?$_List_simple_types@U?$pair@$$CBV?$basic_string@DU?$char_traits@D@std@@V?$allocator@D@2@@std@@V12@@std@@@std@@@std@@@0@QAV10@@Z ; std::_Destroy_range<std::_List_unchecked_iterator<std::_List_val<std::_List_simple_types<std::pair<std::basic_string<char,std::char_traits<char>,std::allocator<char> > const ,std::basic_string<char,std::char_traits<char>,std::allocator<char> > > > > > *,std::_List_unchecked_iterator<std::_List_val<std::_List_simple_types<std::pair<std::basic_string<char,std::char_traits<char>,std::allocator<char> > const ,std::basic_string<char,std::char_traits<char>,std::allocator<char> > > > > > *>
PUBLIC	??$addressof@$$CBU?$pair@$$CBV?$basic_string@DU?$char_traits@D@std@@V?$allocator@D@2@@std@@V12@@std@@@std@@YAPBU?$pair@$$CBV?$basic_string@DU?$char_traits@D@std@@V?$allocator@D@2@@std@@V12@@0@ABU10@@Z ; std::addressof<std::pair<std::basic_string<char,std::char_traits<char>,std::allocator<char> > const ,std::basic_string<char,std::char_traits<char>,std::allocator<char> > > const >
PUBLIC	??$_Uninitialized_value_construct_n@V?$allocator@Upacket_offline_shop_item@@@std@@@std@@YAPAUpacket_offline_shop_item@@PAU1@IAAV?$allocator@Upacket_offline_shop_item@@@0@@Z ; std::_Uninitialized_value_construct_n<std::allocator<packet_offline_shop_item> >
PUBLIC	??$_Resize_reallocate@U_Value_init_tag@std@@@?$vector@Upacket_offline_shop_item@@V?$allocator@Upacket_offline_shop_item@@@std@@@std@@AAEXIABU_Value_init_tag@1@@Z ; std::vector<packet_offline_shop_item,std::allocator<packet_offline_shop_item> >::_Resize_reallocate<std::_Value_init_tag>
PUBLIC	??$_Destroy_range@V?$allocator@Upacket_offline_shop_item@@@std@@@std@@YAXPAUpacket_offline_shop_item@@QAU1@AAV?$allocator@Upacket_offline_shop_item@@@0@@Z ; std::_Destroy_range<std::allocator<packet_offline_shop_item> >
PUBLIC	??$_Find_last@V?$basic_string@DU?$char_traits@D@std@@V?$allocator@D@2@@std@@@?$_Hash@V?$_Umap_traits@V?$basic_string@DU?$char_traits@D@std@@V?$allocator@D@2@@std@@V12@V?$_Uhash_compare@V?$basic_string@DU?$char_traits@D@std@@V?$allocator@D@2@@std@@U?$hash@V?$basic_string@DU?$char_traits@D@std@@V?$allocator@D@2@@std@@@2@U?$equal_to@V?$basic_string@DU?$char_traits@D@std@@V?$allocator@D@2@@std@@@2@@2@V?$allocator@U?$pair@$$CBV?$basic_string@DU?$char_traits@D@std@@V?$allocator@D@2@@std@@V12@@std@@@2@$0A@@std@@@std@@IBE?AU?$_Hash_find_last_result@PAU?$_List_node@U?$pair@$$CBV?$basic_string@DU?$char_traits@D@std@@V?$allocator@D@2@@std@@V12@@std@@PAX@std@@@1@ABV?$basic_string@DU?$char_traits@D@std@@V?$allocator@D@2@@1@I@Z ; std::_Hash<std::_Umap_traits<std::basic_string<char,std::char_traits<char>,std::allocator<char> >,std::basic_string<char,std::char_traits<char>,std::allocator<char> >,std::_Uhash_compare<std::basic_string<char,std::char_traits<char>,std::allocator<char> >,std::hash<std::basic_string<char,std::char_traits<char>,std::allocator<char> > >,std::equal_to<std::basic_string<char,std::char_traits<char>,std::allocator<char> > > >,std::allocator<std::pair<std::basic_string<char,std::char_traits<char>,std::allocator<char> > const ,std::basic_string<char,std::char_traits<char>,std::allocator<char> > > >,0> >::_Find_last<std::basic_string<char,std::char_traits<char>,std::allocator<char> > >
PUBLIC	??$_Uninitialized_value_construct_n@V?$allocator@D@std@@@std@@YAPADPADIAAV?$allocator@D@0@@Z ; std::_Uninitialized_value_construct_n<std::allocator<char> >
PUBLIC	??$_Resize_reallocate@U_Value_init_tag@std@@@?$vector@DV?$allocator@D@std@@@std@@AAEXIABU_Value_init_tag@1@@Z ; std::vector<char,std::allocator<char> >::_Resize_reallocate<std::_Value_init_tag>
PUBLIC	??$_Uninitialized_value_construct_n@V?$allocator@USIShopLogData@@@std@@@std@@YAPAUSIShopLogData@@PAU1@IAAV?$allocator@USIShopLogData@@@0@@Z ; std::_Uninitialized_value_construct_n<std::allocator<SIShopLogData> >
PUBLIC	??$_Resize_reallocate@U_Value_init_tag@std@@@?$vector@USIShopLogData@@V?$allocator@USIShopLogData@@@std@@@std@@AAEXIABU_Value_init_tag@1@@Z ; std::vector<SIShopLogData,std::allocator<SIShopLogData> >::_Resize_reallocate<std::_Value_init_tag>
PUBLIC	??$_Destroy_range@V?$allocator@USIShopLogData@@@std@@@std@@YAXPAUSIShopLogData@@QAU1@AAV?$allocator@USIShopLogData@@@0@@Z ; std::_Destroy_range<std::allocator<SIShopLogData> >
PUBLIC	??$_Emplace_reallocate@AAUTEventTable@InGameEventManager@@@?$vector@UTEventTable@InGameEventManager@@V?$allocator@UTEventTable@InGameEventManager@@@std@@@std@@AAEPAUTEventTable@InGameEventManager@@QAU23@AAU23@@Z ; std::vector<InGameEventManager::TEventTable,std::allocator<InGameEventManager::TEventTable> >::_Emplace_reallocate<InGameEventManager::TEventTable &>
PUBLIC	??$_Emplace_back_with_unused_capacity@AAUTEventTable@InGameEventManager@@@?$vector@UTEventTable@InGameEventManager@@V?$allocator@UTEventTable@InGameEventManager@@@std@@@std@@AAEAAUTEventTable@InGameEventManager@@AAU23@@Z ; std::vector<InGameEventManager::TEventTable,std::allocator<InGameEventManager::TEventTable> >::_Emplace_back_with_unused_capacity<InGameEventManager::TEventTable &>
PUBLIC	??0?$_List_const_iterator@V?$_List_val@U?$_List_simple_types@U?$pair@$$CBV?$basic_string@DU?$char_traits@D@std@@V?$allocator@D@2@@std@@V12@@std@@@std@@@std@@@std@@QAE@PAU?$_List_node@U?$pair@$$CBV?$basic_string@DU?$char_traits@D@std@@V?$allocator@D@2@@std@@V12@@std@@PAX@1@PBV?$_List_val@U?$_List_simple_types@U?$pair@$$CBV?$basic_string@DU?$char_traits@D@std@@V?$allocator@D@2@@std@@V12@@std@@@std@@@1@@Z ; std::_List_const_iterator<std::_List_val<std::_List_simple_types<std::pair<std::basic_string<char,std::char_traits<char>,std::allocator<char> > const ,std::basic_string<char,std::char_traits<char>,std::allocator<char> > > > > >::_List_const_iterator<std::_List_val<std::_List_simple_types<std::pair<std::basic_string<char,std::char_traits<char>,std::allocator<char> > const ,std::basic_string<char,std::char_traits<char>,std::allocator<char> > > > > >
PUBLIC	?insert@?$basic_string@DU?$char_traits@D@std@@V?$allocator@D@2@@std@@QAEAAV12@IQBD@Z ; std::basic_string<char,std::char_traits<char>,std::allocator<char> >::insert
PUBLIC	??R<lambda_1>@?1??replace@?$basic_string@DU?$char_traits@D@std@@V?$allocator@D@2@@std@@QAEAAV23@IIQBDI@Z@QBE@QAD0III0I@Z ; `std::basic_string<char,std::char_traits<char>,std::allocator<char> >::replace'::`2'::<lambda_1>::operator()
PUBLIC	?replace@?$basic_string@DU?$char_traits@D@std@@V?$allocator@D@2@@std@@QAEAAV12@IIQBDI@Z ; std::basic_string<char,std::char_traits<char>,std::allocator<char> >::replace
PUBLIC	??0?$allocator@U?$pair@$$CBV?$basic_string@DU?$char_traits@D@std@@V?$allocator@D@2@@std@@V12@@std@@@std@@QAE@XZ ; std::allocator<std::pair<std::basic_string<char,std::char_traits<char>,std::allocator<char> > const ,std::basic_string<char,std::char_traits<char>,std::allocator<char> > > >::allocator<std::pair<std::basic_string<char,std::char_traits<char>,std::allocator<char> > const ,std::basic_string<char,std::char_traits<char>,std::allocator<char> > > >
PUBLIC	?_Tidy@?$vector@UTSwitchbotAttributeAlternativeTable@CPythonSwitchbot@@V?$allocator@UTSwitchbotAttributeAlternativeTable@CPythonSwitchbot@@@std@@@std@@AAEXXZ ; std::vector<CPythonSwitchbot::TSwitchbotAttributeAlternativeTable,std::allocator<CPythonSwitchbot::TSwitchbotAttributeAlternativeTable> >::_Tidy
PUBLIC	?_Subscript@?$deque@V?$basic_string@DU?$char_traits@D@std@@V?$allocator@D@2@@std@@V?$allocator@V?$basic_string@DU?$char_traits@D@std@@V?$allocator@D@2@@std@@@2@@std@@AAEAAV?$basic_string@DU?$char_traits@D@std@@V?$allocator@D@2@@2@I@Z ; std::deque<std::basic_string<char,std::char_traits<char>,std::allocator<char> >,std::allocator<std::basic_string<char,std::char_traits<char>,std::allocator<char> > > >::_Subscript
PUBLIC	?_Xrange@?$vector@U?$pair@GG@std@@V?$allocator@U?$pair@GG@std@@@2@@std@@CAXXZ ; std::vector<std::pair<unsigned short,unsigned short>,std::allocator<std::pair<unsigned short,unsigned short> > >::_Xrange
PUBLIC	?_Tidy@?$vector@Upacket_offline_shop_item@@V?$allocator@Upacket_offline_shop_item@@@std@@@std@@AAEXXZ ; std::vector<packet_offline_shop_item,std::allocator<packet_offline_shop_item> >::_Tidy
PUBLIC	??0?$_Hash@V?$_Umap_traits@V?$basic_string@DU?$char_traits@D@std@@V?$allocator@D@2@@std@@V12@V?$_Uhash_compare@V?$basic_string@DU?$char_traits@D@std@@V?$allocator@D@2@@std@@U?$hash@V?$basic_string@DU?$char_traits@D@std@@V?$allocator@D@2@@std@@@2@U?$equal_to@V?$basic_string@DU?$char_traits@D@std@@V?$allocator@D@2@@std@@@2@@2@V?$allocator@U?$pair@$$CBV?$basic_string@DU?$char_traits@D@std@@V?$allocator@D@2@@std@@V12@@std@@@2@$0A@@std@@@std@@IAE@ABV?$_Uhash_compare@V?$basic_string@DU?$char_traits@D@std@@V?$allocator@D@2@@std@@U?$hash@V?$basic_string@DU?$char_traits@D@std@@V?$allocator@D@2@@std@@@2@U?$equal_to@V?$basic_string@DU?$char_traits@D@std@@V?$allocator@D@2@@std@@@2@@1@ABV?$allocator@U?$pair@$$CBV?$basic_string@DU?$char_traits@D@std@@V?$allocator@D@2@@std@@V12@@std@@@1@@Z ; std::_Hash<std::_Umap_traits<std::basic_string<char,std::char_traits<char>,std::allocator<char> >,std::basic_string<char,std::char_traits<char>,std::allocator<char> >,std::_Uhash_compare<std::basic_string<char,std::char_traits<char>,std::allocator<char> >,std::hash<std::basic_string<char,std::char_traits<char>,std::allocator<char> > >,std::equal_to<std::basic_string<char,std::char_traits<char>,std::allocator<char> > > >,std::allocator<std::pair<std::basic_string<char,std::char_traits<char>,std::allocator<char> > const ,std::basic_string<char,std::char_traits<char>,std::allocator<char> > > >,0> >::_Hash<std::_Umap_traits<std::basic_string<char,std::char_traits<char>,std::allocator<char> >,std::basic_string<char,std::char_traits<char>,std::allocator<char> >,std::_Uhash_compare<std::basic_string<char,std::char_traits<char>,std::allocator<char> >,std::hash<std::basic_string<char,std::char_traits<char>,std::allocator<char> > >,std::equal_to<std::basic_string<char,std::char_traits<char>,std::allocator<char> > > >,std::allocator<std::pair<std::basic_string<char,std::char_traits<char>,std::allocator<char> > const ,std::basic_string<char,std::char_traits<char>,std::allocator<char> > > >,0> >
PUBLIC	?insert@?$_Hash@V?$_Umap_traits@V?$basic_string@DU?$char_traits@D@std@@V?$allocator@D@2@@std@@V12@V?$_Uhash_compare@V?$basic_string@DU?$char_traits@D@std@@V?$allocator@D@2@@std@@U?$hash@V?$basic_string@DU?$char_traits@D@std@@V?$allocator@D@2@@std@@@2@U?$equal_to@V?$basic_string@DU?$char_traits@D@std@@V?$allocator@D@2@@std@@@2@@2@V?$allocator@U?$pair@$$CBV?$basic_string@DU?$char_traits@D@std@@V?$allocator@D@2@@std@@V12@@std@@@2@$0A@@std@@@std@@QAEXV?$initializer_list@U?$pair@$$CBV?$basic_string@DU?$char_traits@D@std@@V?$allocator@D@2@@std@@V12@@std@@@2@@Z ; std::_Hash<std::_Umap_traits<std::basic_string<char,std::char_traits<char>,std::allocator<char> >,std::basic_string<char,std::char_traits<char>,std::allocator<char> >,std::_Uhash_compare<std::basic_string<char,std::char_traits<char>,std::allocator<char> >,std::hash<std::basic_string<char,std::char_traits<char>,std::allocator<char> > >,std::equal_to<std::basic_string<char,std::char_traits<char>,std::allocator<char> > > >,std::allocator<std::pair<std::basic_string<char,std::char_traits<char>,std::allocator<char> > const ,std::basic_string<char,std::char_traits<char>,std::allocator<char> > > >,0> >::insert
PUBLIC	?end@?$list@U?$pair@$$CBV?$basic_string@DU?$char_traits@D@std@@V?$allocator@D@2@@std@@V12@@std@@V?$allocator@U?$pair@$$CBV?$basic_string@DU?$char_traits@D@std@@V?$allocator@D@2@@std@@V12@@std@@@2@@std@@QBE?AV?$_List_const_iterator@V?$_List_val@U?$_List_simple_types@U?$pair@$$CBV?$basic_string@DU?$char_traits@D@std@@V?$allocator@D@2@@std@@V12@@std@@@std@@@std@@@2@XZ ; std::list<std::pair<std::basic_string<char,std::char_traits<char>,std::allocator<char> > const ,std::basic_string<char,std::char_traits<char>,std::allocator<char> > >,std::allocator<std::pair<std::basic_string<char,std::char_traits<char>,std::allocator<char> > const ,std::basic_string<char,std::char_traits<char>,std::allocator<char> > > > >::end
PUBLIC	?_Make_const_iter@?$list@U?$pair@$$CBV?$basic_string@DU?$char_traits@D@std@@V?$allocator@D@2@@std@@V12@@std@@V?$allocator@U?$pair@$$CBV?$basic_string@DU?$char_traits@D@std@@V?$allocator@D@2@@std@@V12@@std@@@2@@std@@QBE?AV?$_List_const_iterator@V?$_List_val@U?$_List_simple_types@U?$pair@$$CBV?$basic_string@DU?$char_traits@D@std@@V?$allocator@D@2@@std@@V12@@std@@@std@@@std@@@2@PAU?$_List_node@U?$pair@$$CBV?$basic_string@DU?$char_traits@D@std@@V?$allocator@D@2@@std@@V12@@std@@PAX@2@@Z ; std::list<std::pair<std::basic_string<char,std::char_traits<char>,std::allocator<char> > const ,std::basic_string<char,std::char_traits<char>,std::allocator<char> > >,std::allocator<std::pair<std::basic_string<char,std::char_traits<char>,std::allocator<char> > const ,std::basic_string<char,std::char_traits<char>,std::allocator<char> > > > >::_Make_const_iter
PUBLIC	?_Tidy@?$list@U?$pair@$$CBV?$basic_string@DU?$char_traits@D@std@@V?$allocator@D@2@@std@@V12@@std@@V?$allocator@U?$pair@$$CBV?$basic_string@DU?$char_traits@D@std@@V?$allocator@D@2@@std@@V12@@std@@@2@@std@@AAEXXZ ; std::list<std::pair<std::basic_string<char,std::char_traits<char>,std::allocator<char> > const ,std::basic_string<char,std::char_traits<char>,std::allocator<char> > >,std::allocator<std::pair<std::basic_string<char,std::char_traits<char>,std::allocator<char> > const ,std::basic_string<char,std::char_traits<char>,std::allocator<char> > > > >::_Tidy
PUBLIC	??D?$_List_const_iterator@V?$_List_val@U?$_List_simple_types@U?$pair@$$CBV?$basic_string@DU?$char_traits@D@std@@V?$allocator@D@2@@std@@V12@@std@@@std@@@std@@@std@@QBEABU?$pair@$$CBV?$basic_string@DU?$char_traits@D@std@@V?$allocator@D@2@@std@@V12@@1@XZ ; std::_List_const_iterator<std::_List_val<std::_List_simple_types<std::pair<std::basic_string<char,std::char_traits<char>,std::allocator<char> > const ,std::basic_string<char,std::char_traits<char>,std::allocator<char> > > > > >::operator*
PUBLIC	?_Tidy@?$_Hash_vec@V?$allocator@V?$_List_unchecked_iterator@V?$_List_val@U?$_List_simple_types@U?$pair@$$CBV?$basic_string@DU?$char_traits@D@std@@V?$allocator@D@2@@std@@V12@@std@@@std@@@std@@@std@@@std@@@std@@QAEXXZ ; std::_Hash_vec<std::allocator<std::_List_unchecked_iterator<std::_List_val<std::_List_simple_types<std::pair<std::basic_string<char,std::char_traits<char>,std::allocator<char> > const ,std::basic_string<char,std::char_traits<char>,std::allocator<char> > > > > > > >::_Tidy
PUBLIC	?_Tidy@?$vector@DV?$allocator@D@std@@@std@@AAEXXZ ; std::vector<char,std::allocator<char> >::_Tidy
PUBLIC	?_Getal@?$vector@DV?$allocator@D@std@@@std@@AAEAAV?$allocator@D@2@XZ ; std::vector<char,std::allocator<char> >::_Getal
PUBLIC	??0?$_Vector_const_iterator@V?$_Vector_val@U?$_Simple_types@USShopItemTable@@@std@@@std@@@std@@QAE@PAUSShopItemTable@@PBU_Container_base0@1@@Z ; std::_Vector_const_iterator<std::_Vector_val<std::_Simple_types<SShopItemTable> > >::_Vector_const_iterator<std::_Vector_val<std::_Simple_types<SShopItemTable> > >
PUBLIC	?_Compat@?$_Vector_const_iterator@V?$_Vector_val@U?$_Simple_types@USShopItemTable@@@std@@@std@@@std@@QBEXABV12@@Z ; std::_Vector_const_iterator<std::_Vector_val<std::_Simple_types<SShopItemTable> > >::_Compat
PUBLIC	??0?$_Vector_const_iterator@V?$_Vector_val@U?$_Simple_types@USOfflineShopItemTable@@@std@@@std@@@std@@QAE@PAUSOfflineShopItemTable@@PBU_Container_base0@1@@Z ; std::_Vector_const_iterator<std::_Vector_val<std::_Simple_types<SOfflineShopItemTable> > >::_Vector_const_iterator<std::_Vector_val<std::_Simple_types<SOfflineShopItemTable> > >
PUBLIC	?_Compat@?$_Vector_const_iterator@V?$_Vector_val@U?$_Simple_types@USOfflineShopItemTable@@@std@@@std@@@std@@QBEXABV12@@Z ; std::_Vector_const_iterator<std::_Vector_val<std::_Simple_types<SOfflineShopItemTable> > >::_Compat
PUBLIC	?_Tidy@?$vector@USIShopLogData@@V?$allocator@USIShopLogData@@@std@@@std@@AAEXXZ ; std::vector<SIShopLogData,std::allocator<SIShopLogData> >::_Tidy
PUBLIC	?pointer_to@?$pointer_traits@PBU?$pair@$$CBV?$basic_string@DU?$char_traits@D@std@@V?$allocator@D@2@@std@@V12@@std@@@std@@SAPBU?$pair@$$CBV?$basic_string@DU?$char_traits@D@std@@V?$allocator@D@2@@std@@V12@@2@ABU32@@Z ; std::pointer_traits<std::pair<std::basic_string<char,std::char_traits<char>,std::allocator<char> > const ,std::basic_string<char,std::char_traits<char>,std::allocator<char> > > const *>::pointer_to
PUBLIC	??$_Unfancy_maybe_null@UTSwitchbotAttributeAlternativeTable@CPythonSwitchbot@@@std@@YAPAUTSwitchbotAttributeAlternativeTable@CPythonSwitchbot@@PAU12@@Z ; std::_Unfancy_maybe_null<CPythonSwitchbot::TSwitchbotAttributeAlternativeTable>
PUBLIC	??$addressof@$$CBV?$_Vector_val@U?$_Simple_types@USOfflineShopItemTable@@@std@@@std@@@std@@YAPBV?$_Vector_val@U?$_Simple_types@USOfflineShopItemTable@@@std@@@0@ABV10@@Z ; std::addressof<std::_Vector_val<std::_Simple_types<SOfflineShopItemTable> > const >
PUBLIC	??$addressof@$$CBV?$_Vector_val@U?$_Simple_types@USShopItemTable@@@std@@@std@@@std@@YAPBV?$_Vector_val@U?$_Simple_types@USShopItemTable@@@std@@@0@ABV10@@Z ; std::addressof<std::_Vector_val<std::_Simple_types<SShopItemTable> > const >
PUBLIC	??$?0$$V@?$_Compressed_pair@V?$allocator@Upacket_offline_shop_item@@@std@@V?$_Vector_val@U?$_Simple_types@Upacket_offline_shop_item@@@std@@@2@$00@std@@QAE@U_Zero_then_variadic_args_t@1@@Z ; std::_Compressed_pair<std::allocator<packet_offline_shop_item>,std::_Vector_val<std::_Simple_types<packet_offline_shop_item> >,1>::_Compressed_pair<std::allocator<packet_offline_shop_item>,std::_Vector_val<std::_Simple_types<packet_offline_shop_item> >,1><>
PUBLIC	??$_Resize@U_Value_init_tag@std@@@?$vector@Upacket_offline_shop_item@@V?$allocator@Upacket_offline_shop_item@@@std@@@std@@AAEXIABU_Value_init_tag@1@@Z ; std::vector<packet_offline_shop_item,std::allocator<packet_offline_shop_item> >::_Resize<std::_Value_init_tag>
PUBLIC	??$_Unfancy_maybe_null@Upacket_offline_shop_item@@@std@@YAPAUpacket_offline_shop_item@@PAU1@@Z ; std::_Unfancy_maybe_null<packet_offline_shop_item>
PUBLIC	??$_Find@V?$basic_string@DU?$char_traits@D@std@@V?$allocator@D@2@@std@@@?$_Hash@V?$_Umap_traits@V?$basic_string@DU?$char_traits@D@std@@V?$allocator@D@2@@std@@V12@V?$_Uhash_compare@V?$basic_string@DU?$char_traits@D@std@@V?$allocator@D@2@@std@@U?$hash@V?$basic_string@DU?$char_traits@D@std@@V?$allocator@D@2@@std@@@2@U?$equal_to@V?$basic_string@DU?$char_traits@D@std@@V?$allocator@D@2@@std@@@2@@2@V?$allocator@U?$pair@$$CBV?$basic_string@DU?$char_traits@D@std@@V?$allocator@D@2@@std@@V12@@std@@@2@$0A@@std@@@std@@ABEPAU?$_List_node@U?$pair@$$CBV?$basic_string@DU?$char_traits@D@std@@V?$allocator@D@2@@std@@V12@@std@@PAX@1@ABV?$basic_string@DU?$char_traits@D@std@@V?$allocator@D@2@@1@I@Z ; std::_Hash<std::_Umap_traits<std::basic_string<char,std::char_traits<char>,std::allocator<char> >,std::basic_string<char,std::char_traits<char>,std::allocator<char> >,std::_Uhash_compare<std::basic_string<char,std::char_traits<char>,std::allocator<char> >,std::hash<std::basic_string<char,std::char_traits<char>,std::allocator<char> > >,std::equal_to<std::basic_string<char,std::char_traits<char>,std::allocator<char> > > >,std::allocator<std::pair<std::basic_string<char,std::char_traits<char>,std::allocator<char> > const ,std::basic_string<char,std::char_traits<char>,std::allocator<char> > > >,0> >::_Find<std::basic_string<char,std::char_traits<char>,std::allocator<char> > >
PUBLIC	??$?0$$V@?$_Compressed_pair@V?$allocator@D@std@@V?$_Vector_val@U?$_Simple_types@D@std@@@2@$00@std@@QAE@U_Zero_then_variadic_args_t@1@@Z ; std::_Compressed_pair<std::allocator<char>,std::_Vector_val<std::_Simple_types<char> >,1>::_Compressed_pair<std::allocator<char>,std::_Vector_val<std::_Simple_types<char> >,1><>
PUBLIC	??$_Resize@U_Value_init_tag@std@@@?$vector@DV?$allocator@D@std@@@std@@AAEXIABU_Value_init_tag@1@@Z ; std::vector<char,std::allocator<char> >::_Resize<std::_Value_init_tag>
PUBLIC	??$_Destroy_range@V?$allocator@D@std@@@std@@YAXPADQADAAV?$allocator@D@0@@Z ; std::_Destroy_range<std::allocator<char> >
