; Listing generated by Microsoft (R) Optimizing Compiler Version 19.44.35219.0 

	TITLE	c:\anka2project\anka2project\source\binary\vs_files\userinterface\release\pythongameeventmanagermodule.obj
	.686P
	.XMM
	include listing.inc
	.model	flat

INCLUDELIB OLDNAMES

PUBLIC	??_C@_08DGHCLNGO@iiiiiiii@			; `string'
PUBLIC	??_C@_0BB@OGMAGIPH@GetDayEventCount@		; `string'
PUBLIC	??_C@_0N@OHJDEAGJ@GetEventData@			; `string'
PUBLIC	??_C@_0BE@DGDMNJEG@SetRequestEventData@		; `string'
PUBLIC	??_C@_0BE@JIBHJJDK@GetRequestEventData@		; `string'
PUBLIC	??_C@_0BD@OLBAGEEI@GetEventRewardData@		; `string'
PUBLIC	??_C@_08LLPALKPL@eventMgr@			; `string'
PUBLIC	??_C@_0O@CNMKCEPI@EVENT_MAX_NUM@		; `string'
PUBLIC	??_C@_0M@BGHCNJHJ@DAY_MAX_NUM@			; `string'
PUBLIC	??_C@_0P@FAGPDOGF@REWARD_MAX_NUM@		; `string'
PUBLIC	?ms_singleton@?$CSingleton@VCGameEventManager@@@@0PAVCGameEventManager@@A ; CSingleton<CGameEventManager>::ms_singleton
;	COMDAT ?ms_singleton@?$CSingleton@VCGameEventManager@@@@0PAVCGameEventManager@@A
_BSS	SEGMENT
?ms_singleton@?$CSingleton@VCGameEventManager@@@@0PAVCGameEventManager@@A DD 01H DUP (?) ; CSingleton<CGameEventManager>::ms_singleton
_BSS	ENDS
;	COMDAT ?s_methods@?1??initeventmgr@@YAXXZ@4PAUPyMethodDef@@A
_DATA	SEGMENT
?s_methods@?1??initeventmgr@@YAXXZ@4PAUPyMethodDef@@A DD FLAT:??_C@_06LMAGPFNF@Update@ ; `initeventmgr'::`2'::s_methods
	DD	FLAT:?eventMgrUpdate@@YAPAU_object@@PAU1@0@Z
	DD	01H
	ORG $+4
	DD	FLAT:??_C@_0BB@OGMAGIPH@GetDayEventCount@
	DD	FLAT:?eventMgrGetDayEventCount@@YAPAU_object@@PAU1@0@Z
	DD	01H
	ORG $+4
	DD	FLAT:??_C@_0N@OHJDEAGJ@GetEventData@
	DD	FLAT:?eventMgrGetEventData@@YAPAU_object@@PAU1@0@Z
	DD	01H
	ORG $+4
	DD	FLAT:??_C@_0BE@DGDMNJEG@SetRequestEventData@
	DD	FLAT:?eventMgrSetRequestEventData@@YAPAU_object@@PAU1@0@Z
	DD	01H
	ORG $+4
	DD	FLAT:??_C@_0BE@JIBHJJDK@GetRequestEventData@
	DD	FLAT:?eventMgrGetRequestEventData@@YAPAU_object@@PAU1@0@Z
	DD	01H
	ORG $+4
	DD	FLAT:??_C@_0BD@OLBAGEEI@GetEventRewardData@
	DD	FLAT:?eventMgrGetEventRewardData@@YAPAU_object@@PAU1@0@Z
	DD	01H
	ORG $+4
	DD	00H
	DD	00H
	ORG $+8
_DATA	ENDS
;	COMDAT ??_C@_0P@FAGPDOGF@REWARD_MAX_NUM@
CONST	SEGMENT
??_C@_0P@FAGPDOGF@REWARD_MAX_NUM@ DB 'REWARD_MAX_NUM', 00H ; `string'
CONST	ENDS
;	COMDAT ??_C@_0M@BGHCNJHJ@DAY_MAX_NUM@
CONST	SEGMENT
??_C@_0M@BGHCNJHJ@DAY_MAX_NUM@ DB 'DAY_MAX_NUM', 00H	; `string'
CONST	ENDS
;	COMDAT ??_C@_0O@CNMKCEPI@EVENT_MAX_NUM@
CONST	SEGMENT
??_C@_0O@CNMKCEPI@EVENT_MAX_NUM@ DB 'EVENT_MAX_NUM', 00H ; `string'
CONST	ENDS
;	COMDAT ??_C@_08LLPALKPL@eventMgr@
CONST	SEGMENT
??_C@_08LLPALKPL@eventMgr@ DB 'eventMgr', 00H		; `string'
CONST	ENDS
;	COMDAT ??_C@_0BD@OLBAGEEI@GetEventRewardData@
CONST	SEGMENT
??_C@_0BD@OLBAGEEI@GetEventRewardData@ DB 'GetEventRewardData', 00H ; `string'
CONST	ENDS
;	COMDAT ??_C@_0BE@JIBHJJDK@GetRequestEventData@
CONST	SEGMENT
??_C@_0BE@JIBHJJDK@GetRequestEventData@ DB 'GetRequestEventData', 00H ; `string'
CONST	ENDS
;	COMDAT ??_C@_0BE@DGDMNJEG@SetRequestEventData@
CONST	SEGMENT
??_C@_0BE@DGDMNJEG@SetRequestEventData@ DB 'SetRequestEventData', 00H ; `string'
CONST	ENDS
;	COMDAT ??_C@_0N@OHJDEAGJ@GetEventData@
CONST	SEGMENT
??_C@_0N@OHJDEAGJ@GetEventData@ DB 'GetEventData', 00H	; `string'
CONST	ENDS
;	COMDAT ??_C@_0BB@OGMAGIPH@GetDayEventCount@
CONST	SEGMENT
??_C@_0BB@OGMAGIPH@GetDayEventCount@ DB 'GetDayEventCount', 00H ; `string'
CONST	ENDS
;	COMDAT ??_C@_08DGHCLNGO@iiiiiiii@
CONST	SEGMENT
??_C@_08DGHCLNGO@iiiiiiii@ DB 'iiiiiiii', 00H		; `string'
PUBLIC	?Instance@?$CSingleton@VCGameEventManager@@@@SAAAVCGameEventManager@@XZ ; CSingleton<CGameEventManager>::Instance
PUBLIC	?initeventmgr@@YAXXZ				; initeventmgr
PUBLIC	?eventMgrGetEventRewardData@@YAPAU_object@@PAU1@0@Z ; eventMgrGetEventRewardData
PUBLIC	?eventMgrGetRequestEventData@@YAPAU_object@@PAU1@0@Z ; eventMgrGetRequestEventData
PUBLIC	?eventMgrSetRequestEventData@@YAPAU_object@@PAU1@0@Z ; eventMgrSetRequestEventData
PUBLIC	?eventMgrGetEventData@@YAPAU_object@@PAU1@0@Z	; eventMgrGetEventData
PUBLIC	?eventMgrGetDayEventCount@@YAPAU_object@@PAU1@0@Z ; eventMgrGetDayEventCount
PUBLIC	?eventMgrUpdate@@YAPAU_object@@PAU1@0@Z		; eventMgrUpdate
PUBLIC	?GetRequestEventData@InGameEventManager@@QAE_NXZ ; InGameEventManager::GetRequestEventData
PUBLIC	?SetRequestEventData@InGameEventManager@@QAEX_N@Z ; InGameEventManager::SetRequestEventData
END
