; Listing generated by Microsoft (R) Optimizing Compiler Version 19.44.35219.0 

	TITLE	c:\anka2project\anka2project\source\binary\vs_files\userinterface\release\pythonnetworkstream.obj
	.686P
	.XMM
	include listing.inc
	.model	flat

INCLUDELIB OLDNAMES

PUBLIC	??_C@_05CMMBDMDD@?1quit@			; `string'
PUBLIC	??_C@_07FOABJBDD@?1logout@			; `string'
PUBLIC	??_C@_0O@ODIJHOCP@?1phase_select@		; `string'
PUBLIC	??_C@_0CH@LALGPME@Unknown?5packet?5header?3?5?$CFd?0?5last@ ; `string'
PUBLIC	??_C@_0M@PCENNPGA@?$CFd?4?$CFd?4?$CFd?4?$CFd@	; `string'
PUBLIC	??_C@_0GF@BNCBJFEH@CPythonNetworkStream?3?3CheckPack@ ; `string'
PUBLIC	??_C@_0FP@JGOINIOH@CPythonNetworkStream?3?3CheckPack@ ; `string'
PUBLIC	??_C@_0CF@JLNGLGD@recv?5ping?5packet?4?5?$CIsecuritymode@ ; `string'
PUBLIC	??_C@_0EA@JMANDMEJ@Phase?5?$CFs?5does?5not?5handle?5this?5h@ ; `string'
PUBLIC	??_C@_0N@HHLEGKEL@SetGamePhase@			; `string'
PUBLIC	??_C@_0CG@PEEMFFFJ@?C?$LD?$LI?$KO?$LF?G?A?v?5?$LO?J?$MA?$LK?5?F?$DP?E?$LG?5?G?l?$LE?u?5?$CFd?0?5sta@ ; `string'
PUBLIC	??_C@_0BO@NMFMGDDG@?$CD?$CD?5Network?5?9?5OffLine?5Phase?5?$CD?$CD@ ; `string'
PUBLIC	??_C@_07NNEFBBEG@OffLine@			; `string'
PUBLIC	??_C@_0P@MDCECFOM@OBSERVER_COUNT@		; `string'
PUBLIC	??_C@_0O@PJEEOCNO@SetLoginPhase@		; `string'
PUBLIC	??_C@_1LA@DBDAGDHI@?$AAC?$AA?3?$AA?2?$AAA?$AAn?$AAk?$AAa?$AA2?$AAP?$AAr?$AAo?$AAj?$AAe?$AAc?$AAt@ ; `string'
PUBLIC	??_C@_0O@FEJHKOEO@BETTING_MONEY@		; `string'
PUBLIC	??_C@_04IBBNLEM@Game@				; `string'
PUBLIC	??_C@_1DM@BDGGMHHL@?$AAf?$AAa?$AAl?$AAs?$AAe?$AA?5?$AA?$CG?$AA?$CG?$AA?5?$AA?$CC?$AAS?$AAe?$AAn?$AAd?$AAE@ ; `string'
PUBLIC	??_C@_1IA@GOBOKLKL@?$AAC?$AA?3?$AA?2?$AAA?$AAn?$AAk?$AAa?$AA2?$AAP?$AAr?$AAo?$AAj?$AAe?$AAc?$AAt@ ; `string'
PUBLIC	??_C@_0BO@OMGIOKNA@PythonNetworkMainStream?5Clear@ ; `string'
PUBLIC	??_C@_1CK@DKKCJALE@?$AAm?$AA_?$AAp?$AAO?$AAb?$AAj?$AAe?$AAc?$AAt?$AA?5?$AA?$CB?$AA?$DN?$AA?5?$AAn?$AAu@ ; `string'
PUBLIC	??_R2CMainPacketHeaderMap@@8			; CMainPacketHeaderMap::`RTTI Base Class Array'
PUBLIC	??_R2CNetworkPacketHeaderMap@@8			; CNetworkPacketHeaderMap::`RTTI Base Class Array'
PUBLIC	??_R2?$CFuncObject@VCPythonNetworkStream@@@@8	; CFuncObject<CPythonNetworkStream>::`RTTI Base Class Array'
PUBLIC	??_R2?$CSingleton@VCPythonNetworkStream@@@@8	; CSingleton<CPythonNetworkStream>::`RTTI Base Class Array'
PUBLIC	??_R2CPythonNetworkStream@@8			; CPythonNetworkStream::`RTTI Base Class Array'
PUBLIC	??_R1A@?0A@EA@CNetworkPacketHeaderMap@@8	; CNetworkPacketHeaderMap::`RTTI Base Class Descriptor at (0,-1,0,64)'
PUBLIC	??_R1A@?0A@EA@CMainPacketHeaderMap@@8		; CMainPacketHeaderMap::`RTTI Base Class Descriptor at (0,-1,0,64)'
PUBLIC	??_R1HI@?0A@EA@?$CSingleton@VCPythonNetworkStream@@@@8 ; CSingleton<CPythonNetworkStream>::`RTTI Base Class Descriptor at (120,-1,0,64)'
PUBLIC	??_R1A@?0A@EA@?$CFuncObject@VCPythonNetworkStream@@@@8 ; CFuncObject<CPythonNetworkStream>::`RTTI Base Class Descriptor at (0,-1,0,64)'
PUBLIC	??_R1A@?0A@EA@?$CSingleton@VCPythonNetworkStream@@@@8 ; CSingleton<CPythonNetworkStream>::`RTTI Base Class Descriptor at (0,-1,0,64)'
PUBLIC	??_R1A@?0A@EA@CPythonNetworkStream@@8		; CPythonNetworkStream::`RTTI Base Class Descriptor at (0,-1,0,64)'
PUBLIC	??_R0?AVCNetworkPacketHeaderMap@@@8		; CNetworkPacketHeaderMap `RTTI Type Descriptor'
PUBLIC	??_R3CNetworkPacketHeaderMap@@8			; CNetworkPacketHeaderMap::`RTTI Class Hierarchy Descriptor'
PUBLIC	??_R0?AVCMainPacketHeaderMap@@@8		; CMainPacketHeaderMap `RTTI Type Descriptor'
PUBLIC	??_R3CMainPacketHeaderMap@@8			; CMainPacketHeaderMap::`RTTI Class Hierarchy Descriptor'
PUBLIC	??_R0?AV?$CFuncObject@VCPythonNetworkStream@@@@@8 ; CFuncObject<CPythonNetworkStream> `RTTI Type Descriptor'
PUBLIC	??_R3?$CFuncObject@VCPythonNetworkStream@@@@8	; CFuncObject<CPythonNetworkStream>::`RTTI Class Hierarchy Descriptor'
PUBLIC	??_R0?AV?$CSingleton@VCPythonNetworkStream@@@@@8 ; CSingleton<CPythonNetworkStream> `RTTI Type Descriptor'
PUBLIC	??_R3?$CSingleton@VCPythonNetworkStream@@@@8	; CSingleton<CPythonNetworkStream>::`RTTI Class Hierarchy Descriptor'
PUBLIC	??_R0?AVCPythonNetworkStream@@@8		; CPythonNetworkStream `RTTI Type Descriptor'
PUBLIC	??_R3CPythonNetworkStream@@8			; CPythonNetworkStream::`RTTI Class Hierarchy Descriptor'
PUBLIC	??_R4CMainPacketHeaderMap@@6B@			; CMainPacketHeaderMap::`RTTI Complete Object Locator'
PUBLIC	??_R4?$CFuncObject@VCPythonNetworkStream@@@@6B@	; CFuncObject<CPythonNetworkStream>::`RTTI Complete Object Locator'
PUBLIC	??_R4CPythonNetworkStream@@6B?$CSingleton@VCPythonNetworkStream@@@@@ ; CPythonNetworkStream::`RTTI Complete Object Locator'
PUBLIC	??_R4?$CSingleton@VCPythonNetworkStream@@@@6B@	; CSingleton<CPythonNetworkStream>::`RTTI Complete Object Locator'
PUBLIC	??_R4CPythonNetworkStream@@6BCNetworkStream@@@	; CPythonNetworkStream::`RTTI Complete Object Locator'
PUBLIC	??_7?$CFuncObject@VCPythonNetworkStream@@@@6B@	; CFuncObject<CPythonNetworkStream>::`vftable'
PUBLIC	??_7?$CSingleton@VCPythonNetworkStream@@@@6B@	; CSingleton<CPythonNetworkStream>::`vftable'
PUBLIC	??_7CPythonNetworkStream@@6B?$CSingleton@VCPythonNetworkStream@@@@@ ; CPythonNetworkStream::`vftable'
PUBLIC	??_7CPythonNetworkStream@@6BCNetworkStream@@@	; CPythonNetworkStream::`vftable'
PUBLIC	??_7CMainPacketHeaderMap@@6B@			; CMainPacketHeaderMap::`vftable'
PUBLIC	?g_iLastPacket@@3PAHA				; g_iLastPacket
EXTRN	?OnConnectSuccess@CNetworkStream@@MAEXXZ:PROC	; CNetworkStream::OnConnectSuccess
EXTRN	??1CNetworkAddress@@QAE@XZ:PROC			; CNetworkAddress::~CNetworkAddress
EXTRN	??0CNetworkAddress@@QAE@XZ:PROC			; CNetworkAddress::CNetworkAddress
EXTRN	__stricmp:PROC
EXTRN	?ClearRecvBuffer@CNetworkStream@@QAEXXZ:PROC	; CNetworkStream::ClearRecvBuffer
EXTRN	?Get@CNetworkPacketHeaderMap@@QAE_NHPAUSPacketType@1@@Z:PROC ; CNetworkPacketHeaderMap::Get
EXTRN	?Connect@CNetworkStream@@QAE_NKHH@Z:PROC	; CNetworkStream::Connect
EXTRN	?Set@CNetworkAddress@@QAE_NPBDH@Z:PROC		; CNetworkAddress::Set
EXTRN	?IsOnline@CNetworkStream@@QAE_NXZ:PROC		; CNetworkStream::IsOnline
EXTRN	?Set@CNetworkPacketHeaderMap@@QAEXHUSPacketType@1@@Z:PROC ; CNetworkPacketHeaderMap::Set
EXTRN	??1CNetworkPacketHeaderMap@@UAE@XZ:PROC		; CNetworkPacketHeaderMap::~CNetworkPacketHeaderMap
EXTRN	??0CNetworkPacketHeaderMap@@QAE@XZ:PROC		; CNetworkPacketHeaderMap::CNetworkPacketHeaderMap
?g_iLastPacket@@3PAHA DD 02H DUP (?)			; g_iLastPacket
_BSS	ENDS
;	COMDAT ??_7CMainPacketHeaderMap@@6B@
CONST	SEGMENT
??_7CMainPacketHeaderMap@@6B@ DD FLAT:??_R4CMainPacketHeaderMap@@6B@ ; CMainPacketHeaderMap::`vftable'
	DD	FLAT:??_ECMainPacketHeaderMap@@UAEPAXI@Z
CONST	ENDS
;	COMDAT ?sc_szEmpty@?1??GetAccountCharacterSlotDataz@CPythonNetworkStream@@QAEPBDII@Z@4PBDB
CONST	SEGMENT
?sc_szEmpty@?1??GetAccountCharacterSlotDataz@CPythonNetworkStream@@QAEPBDII@Z@4PBDB DD FLAT:??_C@_00CNPNBAHC@@ ; `CPythonNetworkStream::GetAccountCharacterSlotDataz'::`2'::sc_szEmpty
CONST	ENDS
;	COMDAT ??_7CPythonNetworkStream@@6BCNetworkStream@@@
CONST	SEGMENT
??_7CPythonNetworkStream@@6BCNetworkStream@@@ DD FLAT:??_R4CPythonNetworkStream@@6BCNetworkStream@@@ ; CPythonNetworkStream::`vftable'
	DD	FLAT:??_ECPythonNetworkStream@@UAEPAXI@Z
	DD	FLAT:?OnConnectSuccess@CNetworkStream@@MAEXXZ
	DD	FLAT:?OnConnectFailure@CPythonNetworkStream@@MAEXXZ
	DD	FLAT:?OnRemoteDisconnect@CPythonNetworkStream@@MAEXXZ
	DD	FLAT:?OnDisconnect@CPythonNetworkStream@@MAEXXZ
	DD	FLAT:?OnProcess@CPythonNetworkStream@@MAE_NXZ
CONST	ENDS
;	COMDAT ??_7CPythonNetworkStream@@6B?$CSingleton@VCPythonNetworkStream@@@@@
CONST	SEGMENT
??_7CPythonNetworkStream@@6B?$CSingleton@VCPythonNetworkStream@@@@@ DD FLAT:??_R4CPythonNetworkStream@@6B?$CSingleton@VCPythonNetworkStream@@@@@ ; CPythonNetworkStream::`vftable'
	DD	FLAT:??_ECPythonNetworkStream@@WHI@AEPAXI@Z
CONST	ENDS
;	COMDAT ??_7?$CSingleton@VCPythonNetworkStream@@@@6B@
CONST	SEGMENT
??_7?$CSingleton@VCPythonNetworkStream@@@@6B@ DD FLAT:??_R4?$CSingleton@VCPythonNetworkStream@@@@6B@ ; CSingleton<CPythonNetworkStream>::`vftable'
	DD	FLAT:??_E?$CSingleton@VCPythonNetworkStream@@@@UAEPAXI@Z
CONST	ENDS
;	COMDAT ??_7?$CFuncObject@VCPythonNetworkStream@@@@6B@
CONST	SEGMENT
??_7?$CFuncObject@VCPythonNetworkStream@@@@6B@ DD FLAT:??_R4?$CFuncObject@VCPythonNetworkStream@@@@6B@ ; CFuncObject<CPythonNetworkStream>::`vftable'
	DD	FLAT:??_E?$CFuncObject@VCPythonNetworkStream@@@@UAEPAXI@Z
CONST	ENDS
;	COMDAT ??_R4CPythonNetworkStream@@6BCNetworkStream@@@
rdata$r	SEGMENT
??_R4CPythonNetworkStream@@6BCNetworkStream@@@ DD 00H	; CPythonNetworkStream::`RTTI Complete Object Locator'
	DD	00H
	DD	00H
	DD	FLAT:??_R0?AVCPythonNetworkStream@@@8
	DD	FLAT:??_R3CPythonNetworkStream@@8
rdata$r	ENDS
;	COMDAT ??_R4?$CSingleton@VCPythonNetworkStream@@@@6B@
rdata$r	SEGMENT
??_R4?$CSingleton@VCPythonNetworkStream@@@@6B@ DD 00H	; CSingleton<CPythonNetworkStream>::`RTTI Complete Object Locator'
	DD	00H
	DD	00H
	DD	FLAT:??_R0?AV?$CSingleton@VCPythonNetworkStream@@@@@8
	DD	FLAT:??_R3?$CSingleton@VCPythonNetworkStream@@@@8
rdata$r	ENDS
;	COMDAT ??_R4CPythonNetworkStream@@6B?$CSingleton@VCPythonNetworkStream@@@@@
rdata$r	SEGMENT
??_R4CPythonNetworkStream@@6B?$CSingleton@VCPythonNetworkStream@@@@@ DD 00H ; CPythonNetworkStream::`RTTI Complete Object Locator'
	DD	078H
	DD	00H
	DD	FLAT:??_R0?AVCPythonNetworkStream@@@8
	DD	FLAT:??_R3CPythonNetworkStream@@8
rdata$r	ENDS
;	COMDAT ??_R4?$CFuncObject@VCPythonNetworkStream@@@@6B@
rdata$r	SEGMENT
??_R4?$CFuncObject@VCPythonNetworkStream@@@@6B@ DD 00H	; CFuncObject<CPythonNetworkStream>::`RTTI Complete Object Locator'
	DD	00H
	DD	00H
	DD	FLAT:??_R0?AV?$CFuncObject@VCPythonNetworkStream@@@@@8
	DD	FLAT:??_R3?$CFuncObject@VCPythonNetworkStream@@@@8
rdata$r	ENDS
;	COMDAT ??_R4CMainPacketHeaderMap@@6B@
rdata$r	SEGMENT
??_R4CMainPacketHeaderMap@@6B@ DD 00H			; CMainPacketHeaderMap::`RTTI Complete Object Locator'
	DD	00H
	DD	00H
	DD	FLAT:??_R0?AVCMainPacketHeaderMap@@@8
	DD	FLAT:??_R3CMainPacketHeaderMap@@8
rdata$r	ENDS
;	COMDAT ??_R3CPythonNetworkStream@@8
rdata$r	SEGMENT
??_R3CPythonNetworkStream@@8 DD 00H			; CPythonNetworkStream::`RTTI Class Hierarchy Descriptor'
	DD	01H
	DD	03H
	DD	FLAT:??_R2CPythonNetworkStream@@8
rdata$r	ENDS
;	COMDAT ??_R0?AVCPythonNetworkStream@@@8
data$rs	SEGMENT
??_R0?AVCPythonNetworkStream@@@8 DD FLAT:??_7type_info@@6B@ ; CPythonNetworkStream `RTTI Type Descriptor'
	DD	00H
	DB	'.?AVCPythonNetworkStream@@', 00H
data$rs	ENDS
;	COMDAT ??_R3?$CSingleton@VCPythonNetworkStream@@@@8
rdata$r	SEGMENT
??_R3?$CSingleton@VCPythonNetworkStream@@@@8 DD 00H	; CSingleton<CPythonNetworkStream>::`RTTI Class Hierarchy Descriptor'
	DD	00H
	DD	01H
	DD	FLAT:??_R2?$CSingleton@VCPythonNetworkStream@@@@8
rdata$r	ENDS
;	COMDAT ??_R0?AV?$CSingleton@VCPythonNetworkStream@@@@@8
data$rs	SEGMENT
??_R0?AV?$CSingleton@VCPythonNetworkStream@@@@@8 DD FLAT:??_7type_info@@6B@ ; CSingleton<CPythonNetworkStream> `RTTI Type Descriptor'
	DD	00H
	DB	'.?AV?$CSingleton@VCPythonNetworkStream@@@@', 00H
data$rs	ENDS
;	COMDAT ??_R3?$CFuncObject@VCPythonNetworkStream@@@@8
rdata$r	SEGMENT
??_R3?$CFuncObject@VCPythonNetworkStream@@@@8 DD 00H	; CFuncObject<CPythonNetworkStream>::`RTTI Class Hierarchy Descriptor'
	DD	00H
	DD	01H
	DD	FLAT:??_R2?$CFuncObject@VCPythonNetworkStream@@@@8
rdata$r	ENDS
;	COMDAT ??_R0?AV?$CFuncObject@VCPythonNetworkStream@@@@@8
data$rs	SEGMENT
??_R0?AV?$CFuncObject@VCPythonNetworkStream@@@@@8 DD FLAT:??_7type_info@@6B@ ; CFuncObject<CPythonNetworkStream> `RTTI Type Descriptor'
	DD	00H
	DB	'.?AV?$CFuncObject@VCPythonNetworkStream@@@@', 00H
data$rs	ENDS
;	COMDAT ??_R3CMainPacketHeaderMap@@8
rdata$r	SEGMENT
??_R3CMainPacketHeaderMap@@8 DD 00H			; CMainPacketHeaderMap::`RTTI Class Hierarchy Descriptor'
	DD	00H
	DD	02H
	DD	FLAT:??_R2CMainPacketHeaderMap@@8
rdata$r	ENDS
;	COMDAT ??_R0?AVCMainPacketHeaderMap@@@8
data$rs	SEGMENT
??_R0?AVCMainPacketHeaderMap@@@8 DD FLAT:??_7type_info@@6B@ ; CMainPacketHeaderMap `RTTI Type Descriptor'
	DD	00H
	DB	'.?AVCMainPacketHeaderMap@@', 00H
data$rs	ENDS
;	COMDAT ??_R3CNetworkPacketHeaderMap@@8
rdata$r	SEGMENT
??_R3CNetworkPacketHeaderMap@@8 DD 00H			; CNetworkPacketHeaderMap::`RTTI Class Hierarchy Descriptor'
	DD	00H
	DD	01H
	DD	FLAT:??_R2CNetworkPacketHeaderMap@@8
rdata$r	ENDS
;	COMDAT ??_R0?AVCNetworkPacketHeaderMap@@@8
data$rs	SEGMENT
??_R0?AVCNetworkPacketHeaderMap@@@8 DD FLAT:??_7type_info@@6B@ ; CNetworkPacketHeaderMap `RTTI Type Descriptor'
	DD	00H
	DB	'.?AVCNetworkPacketHeaderMap@@', 00H
data$rs	ENDS
;	COMDAT ??_R1A@?0A@EA@CPythonNetworkStream@@8
rdata$r	SEGMENT
??_R1A@?0A@EA@CPythonNetworkStream@@8 DD FLAT:??_R0?AVCPythonNetworkStream@@@8 ; CPythonNetworkStream::`RTTI Base Class Descriptor at (0,-1,0,64)'
	DD	02H
	DD	00H
	DD	0ffffffffH
	DD	00H
	DD	040H
	DD	FLAT:??_R3CPythonNetworkStream@@8
rdata$r	ENDS
;	COMDAT ??_R1A@?0A@EA@?$CSingleton@VCPythonNetworkStream@@@@8
rdata$r	SEGMENT
??_R1A@?0A@EA@?$CSingleton@VCPythonNetworkStream@@@@8 DD FLAT:??_R0?AV?$CSingleton@VCPythonNetworkStream@@@@@8 ; CSingleton<CPythonNetworkStream>::`RTTI Base Class Descriptor at (0,-1,0,64)'
	DD	00H
	DD	00H
	DD	0ffffffffH
	DD	00H
	DD	040H
	DD	FLAT:??_R3?$CSingleton@VCPythonNetworkStream@@@@8
rdata$r	ENDS
;	COMDAT ??_R1A@?0A@EA@?$CFuncObject@VCPythonNetworkStream@@@@8
rdata$r	SEGMENT
??_R1A@?0A@EA@?$CFuncObject@VCPythonNetworkStream@@@@8 DD FLAT:??_R0?AV?$CFuncObject@VCPythonNetworkStream@@@@@8 ; CFuncObject<CPythonNetworkStream>::`RTTI Base Class Descriptor at (0,-1,0,64)'
	DD	00H
	DD	00H
	DD	0ffffffffH
	DD	00H
	DD	040H
	DD	FLAT:??_R3?$CFuncObject@VCPythonNetworkStream@@@@8
rdata$r	ENDS
;	COMDAT ??_R1HI@?0A@EA@?$CSingleton@VCPythonNetworkStream@@@@8
rdata$r	SEGMENT
??_R1HI@?0A@EA@?$CSingleton@VCPythonNetworkStream@@@@8 DD FLAT:??_R0?AV?$CSingleton@VCPythonNetworkStream@@@@@8 ; CSingleton<CPythonNetworkStream>::`RTTI Base Class Descriptor at (120,-1,0,64)'
	DD	00H
	DD	078H
	DD	0ffffffffH
	DD	00H
	DD	040H
	DD	FLAT:??_R3?$CSingleton@VCPythonNetworkStream@@@@8
rdata$r	ENDS
;	COMDAT ??_R1A@?0A@EA@CMainPacketHeaderMap@@8
rdata$r	SEGMENT
??_R1A@?0A@EA@CMainPacketHeaderMap@@8 DD FLAT:??_R0?AVCMainPacketHeaderMap@@@8 ; CMainPacketHeaderMap::`RTTI Base Class Descriptor at (0,-1,0,64)'
	DD	01H
	DD	00H
	DD	0ffffffffH
	DD	00H
	DD	040H
	DD	FLAT:??_R3CMainPacketHeaderMap@@8
rdata$r	ENDS
;	COMDAT ??_R1A@?0A@EA@CNetworkPacketHeaderMap@@8
rdata$r	SEGMENT
??_R1A@?0A@EA@CNetworkPacketHeaderMap@@8 DD FLAT:??_R0?AVCNetworkPacketHeaderMap@@@8 ; CNetworkPacketHeaderMap::`RTTI Base Class Descriptor at (0,-1,0,64)'
	DD	00H
	DD	00H
	DD	0ffffffffH
	DD	00H
	DD	040H
	DD	FLAT:??_R3CNetworkPacketHeaderMap@@8
rdata$r	ENDS
;	COMDAT ??_R2CPythonNetworkStream@@8
rdata$r	SEGMENT
??_R2CPythonNetworkStream@@8 DD FLAT:??_R1A@?0A@EA@CPythonNetworkStream@@8 ; CPythonNetworkStream::`RTTI Base Class Array'
	DD	FLAT:??_R1A@?0A@EA@CNetworkStream@@8
	DD	FLAT:??_R1HI@?0A@EA@?$CSingleton@VCPythonNetworkStream@@@@8
rdata$r	ENDS
;	COMDAT ??_R2?$CSingleton@VCPythonNetworkStream@@@@8
rdata$r	SEGMENT
??_R2?$CSingleton@VCPythonNetworkStream@@@@8 DD FLAT:??_R1A@?0A@EA@?$CSingleton@VCPythonNetworkStream@@@@8 ; CSingleton<CPythonNetworkStream>::`RTTI Base Class Array'
rdata$r	ENDS
;	COMDAT ??_R2?$CFuncObject@VCPythonNetworkStream@@@@8
rdata$r	SEGMENT
??_R2?$CFuncObject@VCPythonNetworkStream@@@@8 DD FLAT:??_R1A@?0A@EA@?$CFuncObject@VCPythonNetworkStream@@@@8 ; CFuncObject<CPythonNetworkStream>::`RTTI Base Class Array'
rdata$r	ENDS
;	COMDAT ??_R2CNetworkPacketHeaderMap@@8
rdata$r	SEGMENT
??_R2CNetworkPacketHeaderMap@@8 DD FLAT:??_R1A@?0A@EA@CNetworkPacketHeaderMap@@8 ; CNetworkPacketHeaderMap::`RTTI Base Class Array'
rdata$r	ENDS
;	COMDAT ??_R2CMainPacketHeaderMap@@8
rdata$r	SEGMENT
??_R2CMainPacketHeaderMap@@8 DD FLAT:??_R1A@?0A@EA@CMainPacketHeaderMap@@8 ; CMainPacketHeaderMap::`RTTI Base Class Array'
	DD	FLAT:??_R1A@?0A@EA@CNetworkPacketHeaderMap@@8
rdata$r	ENDS
;	COMDAT ??_C@_1CK@DKKCJALE@?$AAm?$AA_?$AAp?$AAO?$AAb?$AAj?$AAe?$AAc?$AAt?$AA?5?$AA?$CB?$AA?$DN?$AA?5?$AAn?$AAu@
CONST	SEGMENT
??_C@_1CK@DKKCJALE@?$AAm?$AA_?$AAp?$AAO?$AAb?$AAj?$AAe?$AAc?$AAt?$AA?5?$AA?$CB?$AA?$DN?$AA?5?$AAn?$AAu@ DB 'm'
	DB	00H, '_', 00H, 'p', 00H, 'O', 00H, 'b', 00H, 'j', 00H, 'e', 00H
	DB	'c', 00H, 't', 00H, ' ', 00H, '!', 00H, '=', 00H, ' ', 00H, 'n'
	DB	00H, 'u', 00H, 'l', 00H, 'l', 00H, 'p', 00H, 't', 00H, 'r', 00H
	DB	00H, 00H					; `string'
CONST	ENDS
;	COMDAT ??_C@_0BO@OMGIOKNA@PythonNetworkMainStream?5Clear@
CONST	SEGMENT
??_C@_0BO@OMGIOKNA@PythonNetworkMainStream?5Clear@ DB 'PythonNetworkMainS'
	DB	'tream Clear', 00H				; `string'
CONST	ENDS
;	COMDAT ??_C@_1IA@GOBOKLKL@?$AAC?$AA?3?$AA?2?$AAA?$AAn?$AAk?$AAa?$AA2?$AAP?$AAr?$AAo?$AAj?$AAe?$AAc?$AAt@
CONST	SEGMENT
??_C@_1IA@GOBOKLKL@?$AAC?$AA?3?$AA?2?$AAA?$AAn?$AAk?$AAa?$AA2?$AAP?$AAr?$AAo?$AAj?$AAe?$AAc?$AAt@ DB 'C'
	DB	00H, ':', 00H, '\', 00H, 'A', 00H, 'n', 00H, 'k', 00H, 'a', 00H
	DB	'2', 00H, 'P', 00H, 'r', 00H, 'o', 00H, 'j', 00H, 'e', 00H, 'c'
	DB	00H, 't', 00H, '\', 00H, 'A', 00H, 'n', 00H, 'k', 00H, 'a', 00H
	DB	'2', 00H, 'P', 00H, 'r', 00H, 'o', 00H, 'j', 00H, 'e', 00H, 'c'
	DB	00H, 't', 00H, '\', 00H, 'S', 00H, 'o', 00H, 'u', 00H, 'r', 00H
	DB	'c', 00H, 'e', 00H, '\', 00H, 'B', 00H, 'i', 00H, 'n', 00H, 'a'
	DB	00H, 'r', 00H, 'y', 00H, '\', 00H, 's', 00H, 'o', 00H, 'u', 00H
	DB	'r', 00H, 'c', 00H, 'e', 00H, '\', 00H, 'e', 00H, 't', 00H, 'e'
	DB	00H, 'r', 00H, 'l', 00H, 'i', 00H, 'b', 00H, '\', 00H, 'R', 00H
	DB	'e', 00H, 'f', 00H, '.', 00H, 'h', 00H, 00H, 00H ; `string'
CONST	ENDS
;	COMDAT ??_C@_1DM@BDGGMHHL@?$AAf?$AAa?$AAl?$AAs?$AAe?$AA?5?$AA?$CG?$AA?$CG?$AA?5?$AA?$CC?$AAS?$AAe?$AAn?$AAd?$AAE@
CONST	SEGMENT
??_C@_1DM@BDGGMHHL@?$AAf?$AAa?$AAl?$AAs?$AAe?$AA?5?$AA?$CG?$AA?$CG?$AA?5?$AA?$CC?$AAS?$AAe?$AAn?$AAd?$AAE@ DB 'f'
	DB	00H, 'a', 00H, 'l', 00H, 's', 00H, 'e', 00H, ' ', 00H, '&', 00H
	DB	'&', 00H, ' ', 00H, '"', 00H, 'S', 00H, 'e', 00H, 'n', 00H, 'd'
	DB	00H, 'E', 00H, 'm', 00H, 'o', 00H, 't', 00H, 'i', 00H, 'c', 00H
	DB	'o', 00H, 'n', 00H, ' ', 00H, 'E', 00H, 'r', 00H, 'r', 00H, 'o'
	DB	00H, 'r', 00H, '"', 00H, 00H, 00H		; `string'
CONST	ENDS
;	COMDAT ??_C@_04IBBNLEM@Game@
CONST	SEGMENT
??_C@_04IBBNLEM@Game@ DB 'Game', 00H			; `string'
CONST	ENDS
;	COMDAT ??_C@_0O@FEJHKOEO@BETTING_MONEY@
CONST	SEGMENT
??_C@_0O@FEJHKOEO@BETTING_MONEY@ DB 'BETTING_MONEY', 00H ; `string'
CONST	ENDS
;	COMDAT ??_C@_1LA@DBDAGDHI@?$AAC?$AA?3?$AA?2?$AAA?$AAn?$AAk?$AAa?$AA2?$AAP?$AAr?$AAo?$AAj?$AAe?$AAc?$AAt@
CONST	SEGMENT
??_C@_1LA@DBDAGDHI@?$AAC?$AA?3?$AA?2?$AAA?$AAn?$AAk?$AAa?$AA2?$AAP?$AAr?$AAo?$AAj?$AAe?$AAc?$AAt@ DB 'C'
	DB	00H, ':', 00H, '\', 00H, 'A', 00H, 'n', 00H, 'k', 00H, 'a', 00H
	DB	'2', 00H, 'P', 00H, 'r', 00H, 'o', 00H, 'j', 00H, 'e', 00H, 'c'
	DB	00H, 't', 00H, '\', 00H, 'A', 00H, 'n', 00H, 'k', 00H, 'a', 00H
	DB	'2', 00H, 'P', 00H, 'r', 00H, 'o', 00H, 'j', 00H, 'e', 00H, 'c'
	DB	00H, 't', 00H, '\', 00H, 'S', 00H, 'o', 00H, 'u', 00H, 'r', 00H
	DB	'c', 00H, 'e', 00H, '\', 00H, 'B', 00H, 'i', 00H, 'n', 00H, 'a'
	DB	00H, 'r', 00H, 'y', 00H, '\', 00H, 's', 00H, 'o', 00H, 'u', 00H
	DB	'r', 00H, 'c', 00H, 'e', 00H, '\', 00H, 'U', 00H, 's', 00H, 'e'
	DB	00H, 'r', 00H, 'I', 00H, 'n', 00H, 't', 00H, 'e', 00H, 'r', 00H
	DB	'f', 00H, 'a', 00H, 'c', 00H, 'e', 00H, '\', 00H, 'P', 00H, 'y'
	DB	00H, 't', 00H, 'h', 00H, 'o', 00H, 'n', 00H, 'N', 00H, 'e', 00H
	DB	't', 00H, 'w', 00H, 'o', 00H, 'r', 00H, 'k', 00H, 'S', 00H, 't'
	DB	00H, 'r', 00H, 'e', 00H, 'a', 00H, 'm', 00H, '.', 00H, 'c', 00H
	DB	'p', 00H, 'p', 00H, 00H, 00H			; `string'
CONST	ENDS
;	COMDAT ??_C@_0O@PJEEOCNO@SetLoginPhase@
CONST	SEGMENT
??_C@_0O@PJEEOCNO@SetLoginPhase@ DB 'SetLoginPhase', 00H ; `string'
CONST	ENDS
;	COMDAT ??_C@_0P@MDCECFOM@OBSERVER_COUNT@
CONST	SEGMENT
??_C@_0P@MDCECFOM@OBSERVER_COUNT@ DB 'OBSERVER_COUNT', 00H ; `string'
CONST	ENDS
;	COMDAT ??_C@_07NNEFBBEG@OffLine@
CONST	SEGMENT
??_C@_07NNEFBBEG@OffLine@ DB 'OffLine', 00H		; `string'
CONST	ENDS
;	COMDAT ??_C@_0BO@NMFMGDDG@?$CD?$CD?5Network?5?9?5OffLine?5Phase?5?$CD?$CD@
CONST	SEGMENT
??_C@_0BO@NMFMGDDG@?$CD?$CD?5Network?5?9?5OffLine?5Phase?5?$CD?$CD@ DB '#'
	DB	'# Network - OffLine Phase ##', 00H		; `string'
CONST	ENDS
;	COMDAT ??_C@_0CG@PEEMFFFJ@?C?$LD?$LI?$KO?$LF?G?A?v?5?$LO?J?$MA?$LK?5?F?$DP?E?$LG?5?G?l?$LE?u?5?$CFd?0?5sta@
CONST	SEGMENT
??_C@_0CG@PEEMFFFJ@?C?$LD?$LI?$KO?$LF?G?A?v?5?$LO?J?$MA?$LK?5?F?$DP?E?$LG?5?G?l?$LE?u?5?$CFd?0?5sta@ DB 0c3H
	DB	0b3H, 0b8H, 0aeH, 0b5H, 0c7H, 0c1H, 0f6H, ' ', 0beH, 0caH, 0c0H
	DB	0baH, ' ', 0c6H, '?', 0c5H, 0b6H, ' ', 0c7H, 0ecH, 0b4H, 0f5H, ' '
	DB	'%d, state %s', 0aH, 00H			; `string'
CONST	ENDS
;	COMDAT ??_C@_0N@HHLEGKEL@SetGamePhase@
CONST	SEGMENT
??_C@_0N@HHLEGKEL@SetGamePhase@ DB 'SetGamePhase', 00H	; `string'
CONST	ENDS
;	COMDAT ??_C@_0EA@JMANDMEJ@Phase?5?$CFs?5does?5not?5handle?5this?5h@
CONST	SEGMENT
??_C@_0EA@JMANDMEJ@Phase?5?$CFs?5does?5not?5handle?5this?5h@ DB 'Phase %s'
	DB	' does not handle this header (header: %d, last: %d, %d)', 00H ; `string'
CONST	ENDS
;	COMDAT ??_C@_0CF@JLNGLGD@recv?5ping?5packet?4?5?$CIsecuritymode@
CONST	SEGMENT
??_C@_0CF@JLNGLGD@recv?5ping?5packet?4?5?$CIsecuritymode@ DB 'recv ping p'
	DB	'acket. (securitymode %u)', 0aH, 00H		; `string'
CONST	ENDS
;	COMDAT ??_C@_0FP@JGOINIOH@CPythonNetworkStream?3?3CheckPack@
CONST	SEGMENT
??_C@_0FP@JGOINIOH@CPythonNetworkStream?3?3CheckPack@ DB 'CPythonNetworkS'
	DB	'tream::CheckPacket - Not enough dynamic packet size: header %'
	DB	'd packet size: %d', 0aH, 00H		; `string'
CONST	ENDS
;	COMDAT ??_C@_0GF@BNCBJFEH@CPythonNetworkStream?3?3CheckPack@
CONST	SEGMENT
??_C@_0GF@BNCBJFEH@CPythonNetworkStream?3?3CheckPack@ DB 'CPythonNetworkS'
	DB	'tream::CheckPacket - Not enough LARGE dynamic packet size: he'
	DB	'ader %d packet size: %d', 0aH, 00H		; `string'
CONST	ENDS
;	COMDAT ??_C@_0M@PCENNPGA@?$CFd?4?$CFd?4?$CFd?4?$CFd@
CONST	SEGMENT
??_C@_0M@PCENNPGA@?$CFd?4?$CFd?4?$CFd?4?$CFd@ DB '%d.%d.%d.%d', 00H ; `string'
CONST	ENDS
;	COMDAT ??_C@_0CH@LALGPME@Unknown?5packet?5header?3?5?$CFd?0?5last@
CONST	SEGMENT
??_C@_0CH@LALGPME@Unknown?5packet?5header?3?5?$CFd?0?5last@ DB 'Unknown p'
	DB	'acket header: %d, last: %d %d', 00H		; `string'
CONST	ENDS
;	COMDAT ??_C@_0O@ODIJHOCP@?1phase_select@
CONST	SEGMENT
??_C@_0O@ODIJHOCP@?1phase_select@ DB '/phase_select', 00H ; `string'
CONST	ENDS
;	COMDAT ??_C@_07FOABJBDD@?1logout@
CONST	SEGMENT
??_C@_07FOABJBDD@?1logout@ DB '/logout', 00H		; `string'
CONST	ENDS
;	COMDAT ??_C@_05CMMBDMDD@?1quit@
CONST	SEGMENT
??_C@_05CMMBDMDD@?1quit@ DB '/quit', 00H		; `string'
PUBLIC	??_ECPythonNetworkStream@@WHI@AEPAXI@Z		; [thunk]:CPythonNetworkStream::`vector deleting destructor'
PUBLIC	?_Get_data@?$deque@V?$basic_string@DU?$char_traits@D@std@@V?$allocator@D@2@@std@@V?$allocator@V?$basic_string@DU?$char_traits@D@std@@V?$allocator@D@2@@std@@@2@@std@@ABEABV?$_Deque_val@U?$_Deque_simple_types@V?$basic_string@DU?$char_traits@D@std@@V?$allocator@D@2@@std@@@std@@@2@XZ ; std::deque<std::basic_string<char,std::char_traits<char>,std::allocator<char> >,std::allocator<std::basic_string<char,std::char_traits<char>,std::allocator<char> > > >::_Get_data
PUBLIC	?_Getblock@?$_Deque_val@U?$_Deque_simple_types@V?$basic_string@DU?$char_traits@D@std@@V?$allocator@D@2@@std@@@std@@@std@@QBEHI@Z ; std::_Deque_val<std::_Deque_simple_types<std::basic_string<char,std::char_traits<char>,std::allocator<char> > > >::_Getblock
PUBLIC	?_Mapsize@?$deque@V?$basic_string@DU?$char_traits@D@std@@V?$allocator@D@2@@std@@V?$allocator@V?$basic_string@DU?$char_traits@D@std@@V?$allocator@D@2@@std@@@2@@std@@AAEAAIXZ ; std::deque<std::basic_string<char,std::char_traits<char>,std::allocator<char> >,std::allocator<std::basic_string<char,std::char_traits<char>,std::allocator<char> > > >::_Mapsize
PUBLIC	?_Myoff@?$deque@V?$basic_string@DU?$char_traits@D@std@@V?$allocator@D@2@@std@@V?$allocator@V?$basic_string@DU?$char_traits@D@std@@V?$allocator@D@2@@std@@@2@@std@@AAEAAIXZ ; std::deque<std::basic_string<char,std::char_traits<char>,std::allocator<char> >,std::allocator<std::basic_string<char,std::char_traits<char>,std::allocator<char> > > >::_Myoff
PUBLIC	?_Mysize@?$deque@V?$basic_string@DU?$char_traits@D@std@@V?$allocator@D@2@@std@@V?$allocator@V?$basic_string@DU?$char_traits@D@std@@V?$allocator@D@2@@std@@@2@@std@@AAEAAIXZ ; std::deque<std::basic_string<char,std::char_traits<char>,std::allocator<char> >,std::allocator<std::basic_string<char,std::char_traits<char>,std::allocator<char> > > >::_Mysize
PUBLIC	?_Mysize@?$deque@V?$basic_string@DU?$char_traits@D@std@@V?$allocator@D@2@@std@@V?$allocator@V?$basic_string@DU?$char_traits@D@std@@V?$allocator@D@2@@std@@@2@@std@@ABEABIXZ ; std::deque<std::basic_string<char,std::char_traits<char>,std::allocator<char> >,std::allocator<std::basic_string<char,std::char_traits<char>,std::allocator<char> > > >::_Mysize
PUBLIC	?_Map_distance@?$deque@V?$basic_string@DU?$char_traits@D@std@@V?$allocator@D@2@@std@@V?$allocator@V?$basic_string@DU?$char_traits@D@std@@V?$allocator@D@2@@std@@@2@@std@@ABEHXZ ; std::deque<std::basic_string<char,std::char_traits<char>,std::allocator<char> >,std::allocator<std::basic_string<char,std::char_traits<char>,std::allocator<char> > > >::_Map_distance
PUBLIC	?deallocate@?$allocator@PAV?$basic_string@DU?$char_traits@D@std@@V?$allocator@D@2@@std@@@std@@QAEXQAPAV?$basic_string@DU?$char_traits@D@std@@V?$allocator@D@2@@2@I@Z ; std::allocator<std::basic_string<char,std::char_traits<char>,std::allocator<char> > *>::deallocate
PUBLIC	?_Address_subscript@?$_Deque_val@U?$_Deque_simple_types@V?$basic_string@DU?$char_traits@D@std@@V?$allocator@D@2@@std@@@std@@@std@@QAEPAV?$basic_string@DU?$char_traits@D@std@@V?$allocator@D@2@@2@I@Z ; std::_Deque_val<std::_Deque_simple_types<std::basic_string<char,std::char_traits<char>,std::allocator<char> > > >::_Address_subscript
PUBLIC	??$?0V?$basic_string@DU?$char_traits@D@std@@V?$allocator@D@2@@std@@@?$allocator@PAV?$basic_string@DU?$char_traits@D@std@@V?$allocator@D@2@@std@@@std@@QAE@ABV?$allocator@V?$basic_string@DU?$char_traits@D@std@@V?$allocator@D@2@@std@@@1@@Z ; std::allocator<std::basic_string<char,std::char_traits<char>,std::allocator<char> > *>::allocator<std::basic_string<char,std::char_traits<char>,std::allocator<char> > *><std::basic_string<char,std::char_traits<char>,std::allocator<char> > >
PUBLIC	??$_Destroy_in_place@PAV?$basic_string@DU?$char_traits@D@std@@V?$allocator@D@2@@std@@@std@@YAXAAPAV?$basic_string@DU?$char_traits@D@std@@V?$allocator@D@2@@0@@Z ; std::_Destroy_in_place<std::basic_string<char,std::char_traits<char>,std::allocator<char> > *>
PUBLIC	?empty@?$deque@V?$basic_string@DU?$char_traits@D@std@@V?$allocator@D@2@@std@@V?$allocator@V?$basic_string@DU?$char_traits@D@std@@V?$allocator@D@2@@std@@@2@@std@@QBE_NXZ ; std::deque<std::basic_string<char,std::char_traits<char>,std::allocator<char> >,std::allocator<std::basic_string<char,std::char_traits<char>,std::allocator<char> > > >::empty
PUBLIC	?pop_back@?$deque@V?$basic_string@DU?$char_traits@D@std@@V?$allocator@D@2@@std@@V?$allocator@V?$basic_string@DU?$char_traits@D@std@@V?$allocator@D@2@@std@@@2@@std@@QAEXXZ ; std::deque<std::basic_string<char,std::char_traits<char>,std::allocator<char> >,std::allocator<std::basic_string<char,std::char_traits<char>,std::allocator<char> > > >::pop_back
PUBLIC	?_Reset_map@?$deque@V?$basic_string@DU?$char_traits@D@std@@V?$allocator@D@2@@std@@V?$allocator@V?$basic_string@DU?$char_traits@D@std@@V?$allocator@D@2@@std@@@2@@std@@AAEXXZ ; std::deque<std::basic_string<char,std::char_traits<char>,std::allocator<char> >,std::allocator<std::basic_string<char,std::char_traits<char>,std::allocator<char> > > >::_Reset_map
PUBLIC	?_Orphan_all@?$deque@V?$basic_string@DU?$char_traits@D@std@@V?$allocator@D@2@@std@@V?$allocator@V?$basic_string@DU?$char_traits@D@std@@V?$allocator@D@2@@std@@@2@@std@@AAEXXZ ; std::deque<std::basic_string<char,std::char_traits<char>,std::allocator<char> >,std::allocator<std::basic_string<char,std::char_traits<char>,std::allocator<char> > > >::_Orphan_all
PUBLIC	?_Map@?$deque@V?$basic_string@DU?$char_traits@D@std@@V?$allocator@D@2@@std@@V?$allocator@V?$basic_string@DU?$char_traits@D@std@@V?$allocator@D@2@@std@@@2@@std@@AAEAAPAPAV?$basic_string@DU?$char_traits@D@std@@V?$allocator@D@2@@2@XZ ; std::deque<std::basic_string<char,std::char_traits<char>,std::allocator<char> >,std::allocator<std::basic_string<char,std::char_traits<char>,std::allocator<char> > > >::_Map
PUBLIC	??0?$_Deque_val@U?$_Deque_simple_types@V?$basic_string@DU?$char_traits@D@std@@V?$allocator@D@2@@std@@@std@@@std@@QAE@XZ ; std::_Deque_val<std::_Deque_simple_types<std::basic_string<char,std::char_traits<char>,std::allocator<char> > > >::_Deque_val<std::_Deque_simple_types<std::basic_string<char,std::char_traits<char>,std::allocator<char> > > >
PUBLIC	?_Get_first@?$_Compressed_pair@V?$allocator@V?$basic_string@DU?$char_traits@D@std@@V?$allocator@D@2@@std@@@std@@V?$_Deque_val@U?$_Deque_simple_types@V?$basic_string@DU?$char_traits@D@std@@V?$allocator@D@2@@std@@@std@@@2@$00@std@@QAEAAV?$allocator@V?$basic_string@DU?$char_traits@D@std@@V?$allocator@D@2@@std@@@2@XZ ; std::_Compressed_pair<std::allocator<std::basic_string<char,std::char_traits<char>,std::allocator<char> > >,std::_Deque_val<std::_Deque_simple_types<std::basic_string<char,std::char_traits<char>,std::allocator<char> > > >,1>::_Get_first
PUBLIC	??$to_address@PAU_object@@@std@@YAPAPAU_object@@QAPAU1@@Z ; std::to_address<_object *>
PUBLIC	?Clear@?$CRef@VCNetworkActorManager@@@@QAEXXZ	; CRef<CNetworkActorManager>::Clear
PUBLIC	?SetPointer@?$CRef@VCNetworkActorManager@@@@QAEXPAVCReferenceObject@@@Z ; CRef<CNetworkActorManager>::SetPointer
PUBLIC	?_Tidy@?$deque@V?$basic_string@DU?$char_traits@D@std@@V?$allocator@D@2@@std@@V?$allocator@V?$basic_string@DU?$char_traits@D@std@@V?$allocator@D@2@@std@@@2@@std@@AAEXXZ ; std::deque<std::basic_string<char,std::char_traits<char>,std::allocator<char> >,std::allocator<std::basic_string<char,std::char_traits<char>,std::allocator<char> > > >::_Tidy
PUBLIC	?_Getal@?$deque@V?$basic_string@DU?$char_traits@D@std@@V?$allocator@D@2@@std@@V?$allocator@V?$basic_string@DU?$char_traits@D@std@@V?$allocator@D@2@@std@@@2@@std@@AAEAAV?$allocator@V?$basic_string@DU?$char_traits@D@std@@V?$allocator@D@2@@std@@@2@XZ ; std::deque<std::basic_string<char,std::char_traits<char>,std::allocator<char> >,std::allocator<std::basic_string<char,std::char_traits<char>,std::allocator<char> > > >::_Getal
PUBLIC	?_Get_data@?$deque@V?$basic_string@DU?$char_traits@D@std@@V?$allocator@D@2@@std@@V?$allocator@V?$basic_string@DU?$char_traits@D@std@@V?$allocator@D@2@@std@@@2@@std@@AAEAAV?$_Deque_val@U?$_Deque_simple_types@V?$basic_string@DU?$char_traits@D@std@@V?$allocator@D@2@@std@@@std@@@2@XZ ; std::deque<std::basic_string<char,std::char_traits<char>,std::allocator<char> >,std::allocator<std::basic_string<char,std::char_traits<char>,std::allocator<char> > > >::_Get_data
PUBLIC	??$?0$$V@?$_Compressed_pair@V?$allocator@V?$basic_string@DU?$char_traits@D@std@@V?$allocator@D@2@@std@@@std@@V?$_Deque_val@U?$_Deque_simple_types@V?$basic_string@DU?$char_traits@D@std@@V?$allocator@D@2@@std@@@std@@@2@$00@std@@QAE@U_Zero_then_variadic_args_t@1@@Z ; std::_Compressed_pair<std::allocator<std::basic_string<char,std::char_traits<char>,std::allocator<char> > >,std::_Deque_val<std::_Deque_simple_types<std::basic_string<char,std::char_traits<char>,std::allocator<char> > > >,1>::_Compressed_pair<std::allocator<std::basic_string<char,std::char_traits<char>,std::allocator<char> > >,std::_Deque_val<std::_Deque_simple_types<std::basic_string<char,std::char_traits<char>,std::allocator<char> > > >,1><>
PUBLIC	??$?0V?$basic_string@DU?$char_traits@D@std@@V?$allocator@D@2@@std@@@?$allocator@U_Container_proxy@std@@@std@@QAE@ABV?$allocator@V?$basic_string@DU?$char_traits@D@std@@V?$allocator@D@2@@std@@@1@@Z ; std::allocator<std::_Container_proxy>::allocator<std::_Container_proxy><std::basic_string<char,std::char_traits<char>,std::allocator<char> > >
PUBLIC	??$_To_address@PAPAU_object@@@std@@YA?A_PABQAPAU_object@@@Z ; std::_To_address<_object * *>
PUBLIC	??$_Fill_zero_memset@PAPAU_object@@@std@@YAXPAPAU_object@@I@Z ; std::_Fill_zero_memset<_object * *>
PUBLIC	??$_Is_all_bits_zero@PAU_object@@@std@@YA_NABQAU_object@@@Z ; std::_Is_all_bits_zero<_object *>
PUBLIC	??$_Adl_verify_range@PAPAU_object@@PAPAU1@@std@@YAXABQAPAU_object@@0@Z ; std::_Adl_verify_range<_object * *,_object * *>
PUBLIC	??_G?$CSingleton@VCPythonNetworkStream@@@@UAEPAXI@Z ; CSingleton<CPythonNetworkStream>::`scalar deleting destructor'
PUBLIC	??_G?$CFuncObject@VCPythonNetworkStream@@@@UAEPAXI@Z ; CFuncObject<CPythonNetworkStream>::`scalar deleting destructor'
PUBLIC	??0?$CSingleton@VCPythonNetworkStream@@@@QAE@XZ	; CSingleton<CPythonNetworkStream>::CSingleton<CPythonNetworkStream>
PUBLIC	??1?$CSingleton@VCPythonNetworkStream@@@@UAE@XZ	; CSingleton<CPythonNetworkStream>::~CSingleton<CPythonNetworkStream>
PUBLIC	??0?$CFuncObject@VCPythonNetworkStream@@@@QAE@XZ ; CFuncObject<CPythonNetworkStream>::CFuncObject<CPythonNetworkStream>
PUBLIC	??1?$CFuncObject@VCPythonNetworkStream@@@@UAE@XZ ; CFuncObject<CPythonNetworkStream>::~CFuncObject<CPythonNetworkStream>
PUBLIC	?Clear@?$CFuncObject@VCPythonNetworkStream@@@@QAEXXZ ; CFuncObject<CPythonNetworkStream>::Clear
PUBLIC	?Set@?$CFuncObject@VCPythonNetworkStream@@@@QAEXPAVCPythonNetworkStream@@P82@AEXXZ@Z ; CFuncObject<CPythonNetworkStream>::Set
PUBLIC	?IsEmpty@?$CFuncObject@VCPythonNetworkStream@@@@QAE_NXZ ; CFuncObject<CPythonNetworkStream>::IsEmpty
PUBLIC	?Run@?$CFuncObject@VCPythonNetworkStream@@@@QAEXXZ ; CFuncObject<CPythonNetworkStream>::Run
PUBLIC	??0?$CRef@VCNetworkActorManager@@@@QAE@XZ	; CRef<CNetworkActorManager>::CRef<CNetworkActorManager>
PUBLIC	??1?$CRef@VCNetworkActorManager@@@@QAE@XZ	; CRef<CNetworkActorManager>::~CRef<CNetworkActorManager>
PUBLIC	??4?$CRef@VCNetworkActorManager@@@@QAEXPAVCReferenceObject@@@Z ; CRef<CNetworkActorManager>::operator=
PUBLIC	??C?$CRef@VCNetworkActorManager@@@@QBEPAVCNetworkActorManager@@XZ ; CRef<CNetworkActorManager>::operator->
PUBLIC	??0?$deque@V?$basic_string@DU?$char_traits@D@std@@V?$allocator@D@2@@std@@V?$allocator@V?$basic_string@DU?$char_traits@D@std@@V?$allocator@D@2@@std@@@2@@std@@QAE@XZ ; std::deque<std::basic_string<char,std::char_traits<char>,std::allocator<char> >,std::allocator<std::basic_string<char,std::char_traits<char>,std::allocator<char> > > >::deque<std::basic_string<char,std::char_traits<char>,std::allocator<char> >,std::allocator<std::basic_string<char,std::char_traits<char>,std::allocator<char> > > >
PUBLIC	??1?$deque@V?$basic_string@DU?$char_traits@D@std@@V?$allocator@D@2@@std@@V?$allocator@V?$basic_string@DU?$char_traits@D@std@@V?$allocator@D@2@@std@@@2@@std@@QAE@XZ ; std::deque<std::basic_string<char,std::char_traits<char>,std::allocator<char> >,std::allocator<std::basic_string<char,std::char_traits<char>,std::allocator<char> > > >::~deque<std::basic_string<char,std::char_traits<char>,std::allocator<char> >,std::allocator<std::basic_string<char,std::char_traits<char>,std::allocator<char> > > >
PUBLIC	?Instance@?$CSingleton@VCGuildMarkDownloader@@@@SAAAVCGuildMarkDownloader@@XZ ; CSingleton<CGuildMarkDownloader>::Instance
PUBLIC	?Instance@?$CSingleton@VCGuildMarkUploader@@@@SAAAVCGuildMarkUploader@@XZ ; CSingleton<CGuildMarkUploader>::Instance
PUBLIC	??$fill@PAPAU_object@@PAU1@@std@@YAXQAPAU_object@@0ABQAU1@@Z ; std::fill<_object * *,_object *>
PUBLIC	??$_Get_unwrapped@ABQAPAU_object@@@std@@YA?A_TABQAPAU_object@@@Z ; std::_Get_unwrapped<_object * * const &>
PUBLIC	?SetLanguage@CPythonNetworkStream@@QAEXE@Z	; CPythonNetworkStream::SetLanguage
PUBLIC	??1SMarkAuth@CPythonNetworkStream@@QAE@XZ	; CPythonNetworkStream::SMarkAuth::~SMarkAuth
PUBLIC	??0SMarkAuth@CPythonNetworkStream@@QAE@XZ	; CPythonNetworkStream::SMarkAuth::SMarkAuth
PUBLIC	??_GCPythonNetworkStream@@UAEPAXI@Z		; CPythonNetworkStream::`scalar deleting destructor'
PUBLIC	?SendEmoticon@CPythonNetworkStream@@QAEXI@Z	; CPythonNetworkStream::SendEmoticon
PUBLIC	?__ServerTimeSync_Initialize@CPythonNetworkStream@@IAEXXZ ; CPythonNetworkStream::__ServerTimeSync_Initialize
PUBLIC	?EXPORT_GetBettingGuildWarValue@CPythonNetworkStream@@QAEKPBD@Z ; CPythonNetworkStream::EXPORT_GetBettingGuildWarValue
PUBLIC	?__BettingGuildWar_Initialize@CPythonNetworkStream@@AAEXXZ ; CPythonNetworkStream::__BettingGuildWar_Initialize
PUBLIC	?__InitializeMarkAuth@CPythonNetworkStream@@IAEXXZ ; CPythonNetworkStream::__InitializeMarkAuth
PUBLIC	?__DirectEnterMode_IsSet@CPythonNetworkStream@@AAE_NXZ ; CPythonNetworkStream::__DirectEnterMode_IsSet
PUBLIC	?__DirectEnterMode_Set@CPythonNetworkStream@@AAEXI_N@Z ; CPythonNetworkStream::__DirectEnterMode_Set
PUBLIC	?__DirectEnterMode_IsWarp@CPythonNetworkStream@@AAE_NXZ ; CPythonNetworkStream::__DirectEnterMode_IsWarp
PUBLIC	?__DirectEnterMode_Initialize@CPythonNetworkStream@@AAEXXZ ; CPythonNetworkStream::__DirectEnterMode_Initialize
PUBLIC	?__ClearSelectCharacterData@CPythonNetworkStream@@IAEXXZ ; CPythonNetworkStream::__ClearSelectCharacterData
PUBLIC	?GetEmpireID@CPythonNetworkStream@@QAEKXZ	; CPythonNetworkStream::GetEmpireID
PUBLIC	?SetEmpireID@CPythonNetworkStream@@QAEXK@Z	; CPythonNetworkStream::SetEmpireID
PUBLIC	?GetMainActorSkillGroup@CPythonNetworkStream@@QAEKXZ ; CPythonNetworkStream::GetMainActorSkillGroup
PUBLIC	?GetMainActorEmpire@CPythonNetworkStream@@QAEKXZ ; CPythonNetworkStream::GetMainActorEmpire
PUBLIC	?GetMainActorRace@CPythonNetworkStream@@QAEKXZ	; CPythonNetworkStream::GetMainActorRace
PUBLIC	?GetMainActorVID@CPythonNetworkStream@@QAEKXZ	; CPythonNetworkStream::GetMainActorVID
PUBLIC	?SetHandler@CPythonNetworkStream@@QAEXPAU_object@@@Z ; CPythonNetworkStream::SetHandler
PUBLIC	?SetGameOffline@CPythonNetworkStream@@IAEXXZ	; CPythonNetworkStream::SetGameOffline
PUBLIC	?SetGameOnline@CPythonNetworkStream@@IAEXXZ	; CPythonNetworkStream::SetGameOnline
PUBLIC	?ClosePhase@CPythonNetworkStream@@QAEXXZ	; CPythonNetworkStream::ClosePhase
PUBLIC	?SetOffLinePhase@CPythonNetworkStream@@QAEXXZ	; CPythonNetworkStream::SetOffLinePhase
PUBLIC	?OnProcess@CPythonNetworkStream@@MAE_NXZ	; CPythonNetworkStream::OnProcess
PUBLIC	?RecvDefaultPacket@CPythonNetworkStream@@IAE_NH@Z ; CPythonNetworkStream::RecvDefaultPacket
PUBLIC	?RecvPingPacket@CPythonNetworkStream@@IAE_NXZ	; CPythonNetworkStream::RecvPingPacket
PUBLIC	?RecvPhasePacket@CPythonNetworkStream@@IAE_NXZ	; CPythonNetworkStream::RecvPhasePacket
PUBLIC	?RecvErrorPacket@CPythonNetworkStream@@IAE_NH@Z	; CPythonNetworkStream::RecvErrorPacket
PUBLIC	?CheckPacket@CPythonNetworkStream@@IAE_NPAE@Z	; CPythonNetworkStream::CheckPacket
PUBLIC	?SetLoginInfo@CPythonNetworkStream@@QAEXPBD0@Z	; CPythonNetworkStream::SetLoginInfo
PUBLIC	?ConnectGameServer@CPythonNetworkStream@@QAEXI@Z ; CPythonNetworkStream::ConnectGameServer
PUBLIC	?SetMarkServer@CPythonNetworkStream@@QAEXPBDI@Z	; CPythonNetworkStream::SetMarkServer
PUBLIC	?ConnectLoginServer@CPythonNetworkStream@@QAEXPBDI@Z ; CPythonNetworkStream::ConnectLoginServer
PUBLIC	?GetAccountCharacterSlotDataz@CPythonNetworkStream@@QAEPBDII@Z ; CPythonNetworkStream::GetAccountCharacterSlotDataz
PUBLIC	?GetAccountCharacterSlotDatau@CPythonNetworkStream@@QAEIII@Z ; CPythonNetworkStream::GetAccountCharacterSlotDatau
PUBLIC	?IsSelectedEmpire@CPythonNetworkStream@@QAE_NXZ	; CPythonNetworkStream::IsSelectedEmpire
PUBLIC	?SetServerCommandParserWindow@CPythonNetworkStream@@QAEXPAU_object@@@Z ; CPythonNetworkStream::SetServerCommandParserWindow
PUBLIC	?ClearPhaseWindow@CPythonNetworkStream@@QAEXIPAU_object@@@Z ; CPythonNetworkStream::ClearPhaseWindow
PUBLIC	?SetPhaseWindow@CPythonNetworkStream@@QAEXIPAU_object@@@Z ; CPythonNetworkStream::SetPhaseWindow
PUBLIC	?__DownloadSymbol@CPythonNetworkStream@@IAEXABV?$vector@KV?$allocator@K@std@@@std@@@Z ; CPythonNetworkStream::__DownloadSymbol
PUBLIC	?__DownloadMark@CPythonNetworkStream@@IAEXXZ	; CPythonNetworkStream::__DownloadMark
PUBLIC	?UploadSymbol@CPythonNetworkStream@@QAEIPBD@Z	; CPythonNetworkStream::UploadSymbol
PUBLIC	?UploadMark@CPythonNetworkStream@@QAEIPBD@Z	; CPythonNetworkStream::UploadMark
PUBLIC	?GetGuildID@CPythonNetworkStream@@QAEKXZ	; CPythonNetworkStream::GetGuildID
PUBLIC	?__IsNotPing@CPythonNetworkStream@@IAE_NXZ	; CPythonNetworkStream::__IsNotPing
PUBLIC	?AbsoluteExitApplication@CPythonNetworkStream@@QAEXXZ ; CPythonNetworkStream::AbsoluteExitApplication
PUBLIC	?AbsoluteExitGame@CPythonNetworkStream@@QAEXXZ	; CPythonNetworkStream::AbsoluteExitGame
PUBLIC	?LogOutGame@CPythonNetworkStream@@QAEXXZ	; CPythonNetworkStream::LogOutGame
PUBLIC	?ExitGame@CPythonNetworkStream@@QAEXXZ		; CPythonNetworkStream::ExitGame
PUBLIC	?ExitApplication@CPythonNetworkStream@@QAEXXZ	; CPythonNetworkStream::ExitApplication
PUBLIC	??1CMainPacketHeaderMap@@UAE@XZ			; CMainPacketHeaderMap::~CMainPacketHeaderMap
PUBLIC	??_GCMainPacketHeaderMap@@UAEPAXI@Z		; CMainPacketHeaderMap::`scalar deleting destructor'
PUBLIC	??0CMainPacketHeaderMap@@QAE@XZ			; CMainPacketHeaderMap::CMainPacketHeaderMap
PUBLIC	?__LeaveOfflinePhase@CPythonNetworkStream@@IAEXXZ ; CPythonNetworkStream::__LeaveOfflinePhase
PUBLIC	??0SPacketType@CNetworkPacketHeaderMap@@QAE@HH@Z ; CNetworkPacketHeaderMap::SPacketType::SPacketType
PUBLIC	??0CPythonNetworkStream@@QAE@XZ			; CPythonNetworkStream::CPythonNetworkStream
PUBLIC	??1CPythonNetworkStream@@UAE@XZ			; CPythonNetworkStream::~CPythonNetworkStream
PUBLIC	?ClearLoginInfo@CPythonNetworkStream@@QAEXXZ	; CPythonNetworkStream::ClearLoginInfo
PUBLIC	?SetLoginKey@CPythonNetworkStream@@QAEXK@Z	; CPythonNetworkStream::SetLoginKey
EXTRN	??_ECPythonNetworkStream@@UAEPAXI@Z:PROC	; CPythonNetworkStream::`vector deleting destructor'
EXTRN	??_E?$CSingleton@VCPythonNetworkStream@@@@UAEPAXI@Z:PROC ; CSingleton<CPythonNetworkStream>::`vector deleting destructor'
EXTRN	??_E?$CFuncObject@VCPythonNetworkStream@@@@UAEPAXI@Z:PROC ; CFuncObject<CPythonNetworkStream>::`vector deleting destructor'
EXTRN	??_ECMainPacketHeaderMap@@UAEPAXI@Z:PROC	; CMainPacketHeaderMap::`vector deleting destructor'
?gs_nextDownloadMarkTime@@3KA DD 01H DUP (?)		; gs_nextDownloadMarkTime
_BSS	ENDS
;	COMDAT ?s_szAddr@?6??GetAccountCharacterSlotDataz@CPythonNetworkStream@@QAEPBDII@Z@4PADA
_BSS	SEGMENT
?s_szAddr@?6??GetAccountCharacterSlotDataz@CPythonNetworkStream@@QAEPBDII@Z@4PADA DB 0100H DUP (?) ; `CPythonNetworkStream::GetAccountCharacterSlotDataz'::`7'::s_szAddr
_BSS	ENDS
;	COMDAT ?$TSS0@?1??CheckPacket@CPythonNetworkStream@@IAE_NPAE@Z@4HA
_BSS	SEGMENT
?$TSS0@?1??CheckPacket@CPythonNetworkStream@@IAE_NPAE@Z@4HA DD 01H DUP (?) ; `CPythonNetworkStream::CheckPacket'::`2'::$TSS0
_BSS	ENDS
;	COMDAT ?s_packetHeaderMap@?1??CheckPacket@CPythonNetworkStream@@IAE_NPAE@Z@4VCMainPacketHeaderMap@@A
_BSS	SEGMENT
?s_packetHeaderMap@?1??CheckPacket@CPythonNetworkStream@@IAE_NPAE@Z@4VCMainPacketHeaderMap@@A DB 0cH DUP (?) ; `CPythonNetworkStream::CheckPacket'::`2'::s_packetHeaderMap
_BSS	ENDS
;	COMDAT xdata$x
xdata$x	SEGMENT
__ehfuncinfo$??1CPythonNetworkStream@@UAE@XZ DQ 00000000119930522r ; 2.33398e-314
	DD	FLAT:__unwindtable$??1CPythonNetworkStream@@UAE@XZ
	DQ	00000000000000000r		; 0
	DQ	00000000000000000r		; 0
	DQ	00000000500000000r		; 1.061e-313
__unwindtable$??1CPythonNetworkStream@@UAE@XZ DD 0ffffffffH
	DD	FLAT:___std_terminate
xdata$x	ENDS
;	COMDAT xdata$x
xdata$x	SEGMENT
__ehfuncinfo$??0CPythonNetworkStream@@QAE@XZ DQ 00000001319930522r ; 4.05299e-313
	DD	FLAT:__unwindtable$??0CPythonNetworkStream@@QAE@XZ
	DQ	00000000000000000r		; 0
	DQ	00000000000000000r		; 0
	DQ	00000000100000000r		; 2.122e-314
	ORG $+4
__unwindtable$??0CPythonNetworkStream@@QAE@XZ DD 0ffffffffH
	DD	FLAT:__unwindfunclet$??0CPythonNetworkStream@@QAE@XZ$0
	DD	00H
	DD	FLAT:__unwindfunclet$??0CPythonNetworkStream@@QAE@XZ$1
	DD	01H
	DD	FLAT:__unwindfunclet$??0CPythonNetworkStream@@QAE@XZ$2
	DD	02H
	DD	FLAT:__unwindfunclet$??0CPythonNetworkStream@@QAE@XZ$3
	DD	03H
	DD	FLAT:__unwindfunclet$??0CPythonNetworkStream@@QAE@XZ$4
	DD	04H
	DD	FLAT:__unwindfunclet$??0CPythonNetworkStream@@QAE@XZ$5
	DD	05H
	DD	FLAT:__unwindfunclet$??0CPythonNetworkStream@@QAE@XZ$6
	DD	06H
	DD	FLAT:__unwindfunclet$??0CPythonNetworkStream@@QAE@XZ$7
	DD	07H
	DD	FLAT:__unwindfunclet$??0CPythonNetworkStream@@QAE@XZ$8
	DD	08H
	DD	FLAT:__unwindfunclet$??0CPythonNetworkStream@@QAE@XZ$9
	DD	09H
	DD	FLAT:__unwindfunclet$??0CPythonNetworkStream@@QAE@XZ$10
	DD	0aH
	DD	FLAT:__unwindfunclet$??0CPythonNetworkStream@@QAE@XZ$11
	DD	0bH
	DD	FLAT:__unwindfunclet$??0CPythonNetworkStream@@QAE@XZ$12
	DD	0cH
	DD	FLAT:__unwindfunclet$??0CPythonNetworkStream@@QAE@XZ$13
	DD	0dH
	DD	FLAT:__unwindfunclet$??0CPythonNetworkStream@@QAE@XZ$14
	DD	0eH
	DD	FLAT:__unwindfunclet$??0CPythonNetworkStream@@QAE@XZ$15
	DD	0fH
	DD	FLAT:__unwindfunclet$??0CPythonNetworkStream@@QAE@XZ$16
	DD	010H
	DD	FLAT:__unwindfunclet$??0CPythonNetworkStream@@QAE@XZ$17
	DD	011H
	DD	FLAT:__unwindfunclet$??0CPythonNetworkStream@@QAE@XZ$18
xdata$x	ENDS
;	COMDAT xdata$x
xdata$x	SEGMENT
__ehfuncinfo$??0CMainPacketHeaderMap@@QAE@XZ DQ 00000000119930522r ; 2.33398e-314
	DD	FLAT:__unwindtable$??0CMainPacketHeaderMap@@QAE@XZ
	DQ	00000000000000000r		; 0
	DQ	00000000000000000r		; 0
	DQ	00000000100000000r		; 2.122e-314
__unwindtable$??0CMainPacketHeaderMap@@QAE@XZ DD 0ffffffffH
	DD	FLAT:__unwindfunclet$??0CMainPacketHeaderMap@@QAE@XZ$0
xdata$x	ENDS
;	COMDAT xdata$x
xdata$x	SEGMENT
__ehfuncinfo$?CheckPacket@CPythonNetworkStream@@IAE_NPAE@Z DD 019930522H
	DD	01H
	DD	FLAT:__unwindtable$?CheckPacket@CPythonNetworkStream@@IAE_NPAE@Z
	DD	2 DUP(00H)
	DD	2 DUP(00H)
	DD	00H
	DD	01H
__unwindtable$?CheckPacket@CPythonNetworkStream@@IAE_NPAE@Z DD 0ffffffffH
	DD	FLAT:__unwindfunclet$?CheckPacket@CPythonNetworkStream@@IAE_NPAE@Z$0
xdata$x	ENDS
;	COMDAT xdata$x
xdata$x	SEGMENT
__ehfuncinfo$??1?$CRef@VCNetworkActorManager@@@@QAE@XZ DQ 00000000019930522r ; 2.11987e-315
	DQ	00000000000000000r		; 0
	DQ	00000000000000000r		; 0
	DQ	00000000000000000r		; 0
	DD	05H
; Function compile flags: /Ogtp
; File C:\Anka2Project\Anka2Project\Source\Binary\source\UserInterface\PythonNetworkStream.cpp
;	COMDAT ?AbsoluteExitApplication@CPythonNetworkStream@@QAEXXZ
_TEXT	SEGMENT
?AbsoluteExitApplication@CPythonNetworkStream@@QAEXXZ PROC ; CPythonNetworkStream::AbsoluteExitApplication, COMDAT
; _this$dead$ = ecx

; 294  : 	PostQuitMessage(0);

  00000	6a 00		 push	 0
  00002	ff 15 00 00 00
	00		 call	 DWORD PTR __imp__PostQuitMessage@4

; 295  : }

  00008	c3		 ret	 0
?AbsoluteExitApplication@CPythonNetworkStream@@QAEXXZ ENDP ; CPythonNetworkStream::AbsoluteExitApplication
_TEXT	ENDS
; Function compile flags: /Ogtp
; File C:\Anka2Project\Anka2Project\Source\Binary\source\UserInterface\PythonNetworkStream.cpp
; File C:\Anka2Project\Anka2Project\Source\Binary\source\eterLib\NetPacketHeaderMap.h
; File C:\Anka2Project\Anka2Project\Source\Binary\source\UserInterface\PythonNetworkStream.cpp
;	COMDAT ?CheckPacket@CPythonNetworkStream@@IAE_NPAE@Z
_TEXT	SEGMENT
_PacketType$ = -36					; size = 8
_largeDynamicSizePacketHeader$2 = -28			; size = 5
_DynamicSizePacketHeader$3 = -20			; size = 3
__$EHRec$ = -12						; size = 12
_pRetHeader$ = 8					; size = 4
_header$ = 11						; size = 1
?CheckPacket@CPythonNetworkStream@@IAE_NPAE@Z PROC	; CPythonNetworkStream::CheckPacket, COMDAT
; _this$ = ecx

; 574  : {

  00000	55		 push	 ebp
  00001	8b ec		 mov	 ebp, esp
  00003	6a ff		 push	 -1
  00005	68 00 00 00 00	 push	 __ehhandler$?CheckPacket@CPythonNetworkStream@@IAE_NPAE@Z
  0000a	64 a1 00 00 00
	00		 mov	 eax, DWORD PTR fs:0
  00010	50		 push	 eax
  00011	83 ec 1c	 sub	 esp, 28			; 0000001cH
  00014	56		 push	 esi
  00015	57		 push	 edi
  00016	a1 00 00 00 00	 mov	 eax, DWORD PTR ___security_cookie
  0001b	33 c5		 xor	 eax, ebp
  0001d	50		 push	 eax
  0001e	8d 45 f4	 lea	 eax, DWORD PTR __$EHRec$[ebp]
  00021	64 a3 00 00 00
	00		 mov	 DWORD PTR fs:0, eax
  00027	8b f1		 mov	 esi, ecx

; 575  : 	*pRetHeader = 0;

  00029	8b 7d 08	 mov	 edi, DWORD PTR _pRetHeader$[ebp]
  0002c	c6 07 00	 mov	 BYTE PTR [edi], 0

; 576  : 
; 577  : 	static CMainPacketHeaderMap s_packetHeaderMap;

  0002f	64 a1 00 00 00
	00		 mov	 eax, DWORD PTR fs:__tls_array
  00035	8b 10		 mov	 edx, DWORD PTR [eax]
  00037	a1 00 00 00 00	 mov	 eax, DWORD PTR ?$TSS0@?1??CheckPacket@CPythonNetworkStream@@IAE_NPAE@Z@4HA
  0003c	3b 82 00 00 00
	00		 cmp	 eax, DWORD PTR __Init_thread_epoch[edx]
  00042	7e 48		 jle	 SHORT $LN2@CheckPacke
  00044	68 00 00 00 00	 push	 OFFSET ?$TSS0@?1??CheckPacket@CPythonNetworkStream@@IAE_NPAE@Z@4HA
  00049	e8 00 00 00 00	 call	 __Init_thread_header
  0004e	83 c4 04	 add	 esp, 4
  00051	83 3d 00 00 00
	00 ff		 cmp	 DWORD PTR ?$TSS0@?1??CheckPacket@CPythonNetworkStream@@IAE_NPAE@Z@4HA, -1
  00058	75 32		 jne	 SHORT $LN2@CheckPacke
  0005a	b9 00 00 00 00	 mov	 ecx, OFFSET ?s_packetHeaderMap@?1??CheckPacket@CPythonNetworkStream@@IAE_NPAE@Z@4VCMainPacketHeaderMap@@A
  0005f	c7 45 fc 00 00
	00 00		 mov	 DWORD PTR __$EHRec$[ebp+8], 0
  00066	e8 00 00 00 00	 call	 ??0CMainPacketHeaderMap@@QAE@XZ ; CMainPacketHeaderMap::CMainPacketHeaderMap
  0006b	68 00 00 00 00	 push	 OFFSET ??__Fs_packetHeaderMap@?1??CheckPacket@CPythonNetworkStream@@IAE_NPAE@Z@YAXXZ ; `CPythonNetworkStream::CheckPacket'::`2'::`dynamic atexit destructor for 's_packetHeaderMap''
  00070	e8 00 00 00 00	 call	 _atexit
  00075	83 c4 04	 add	 esp, 4
  00078	c7 45 fc ff ff
	ff ff		 mov	 DWORD PTR __$EHRec$[ebp+8], -1
  0007f	68 00 00 00 00	 push	 OFFSET ?$TSS0@?1??CheckPacket@CPythonNetworkStream@@IAE_NPAE@Z@4HA
  00084	e8 00 00 00 00	 call	 __Init_thread_footer
  00089	83 c4 04	 add	 esp, 4
$LN2@CheckPacke:

; 578  : 
; 579  : 	TPacketHeader header;
; 580  : 
; 581  : 	if (!Peek(sizeof(TPacketHeader), &header))

  0008c	8d 45 0b	 lea	 eax, DWORD PTR _header$[ebp]
  0008f	8b ce		 mov	 ecx, esi
  00091	50		 push	 eax
  00092	6a 01		 push	 1
  00094	e8 00 00 00 00	 call	 ?Peek@CNetworkStream@@QAE_NHPAX@Z ; CNetworkStream::Peek
  00099	84 c0		 test	 al, al
  0009b	0f 84 fa 00 00
	00		 je	 $LN31@CheckPacke

; 582  : 		return false;
; 583  : 
; 584  : 	if (0 == header)

  000a1	8a 45 0b	 mov	 al, BYTE PTR _header$[ebp]
  000a4	84 c0		 test	 al, al
  000a6	75 60		 jne	 SHORT $LN11@CheckPacke

; 585  : 	{
; 586  : 		if (!Recv(sizeof(TPacketHeader), &header))

  000a8	8d 45 0b	 lea	 eax, DWORD PTR _header$[ebp]
  000ab	8b ce		 mov	 ecx, esi
  000ad	50		 push	 eax
  000ae	6a 01		 push	 1
  000b0	e8 00 00 00 00	 call	 ?Recv@CNetworkStream@@QAE_NHPAX@Z ; CNetworkStream::Recv
  000b5	84 c0		 test	 al, al
  000b7	0f 84 de 00 00
	00		 je	 $LN31@CheckPacke

; 587  : 			return false;
; 588  : 		
; 589  : 		while (Peek(sizeof(TPacketHeader), &header))

  000bd	8d 45 0b	 lea	 eax, DWORD PTR _header$[ebp]
  000c0	8b ce		 mov	 ecx, esi
  000c2	50		 push	 eax
  000c3	6a 01		 push	 1
  000c5	e8 00 00 00 00	 call	 ?Peek@CNetworkStream@@QAE_NHPAX@Z ; CNetworkStream::Peek
  000ca	84 c0		 test	 al, al
  000cc	74 2f		 je	 SHORT $LN8@CheckPacke
  000ce	66 90		 npad	 2
$LL3@CheckPacke:

; 590  : 		{
; 591  : 			if (0 == header)

  000d0	8a 45 0b	 mov	 al, BYTE PTR _header$[ebp]
  000d3	84 c0		 test	 al, al
  000d5	75 31		 jne	 SHORT $LN11@CheckPacke

; 592  : 			{
; 593  : 				if (!Recv(sizeof(TPacketHeader), &header))

  000d7	8d 45 0b	 lea	 eax, DWORD PTR _header$[ebp]
  000da	8b ce		 mov	 ecx, esi
  000dc	50		 push	 eax
  000dd	6a 01		 push	 1
  000df	e8 00 00 00 00	 call	 ?Recv@CNetworkStream@@QAE_NHPAX@Z ; CNetworkStream::Recv
  000e4	84 c0		 test	 al, al
  000e6	0f 84 af 00 00
	00		 je	 $LN31@CheckPacke

; 587  : 			return false;
; 588  : 		
; 589  : 		while (Peek(sizeof(TPacketHeader), &header))

  000ec	8d 45 0b	 lea	 eax, DWORD PTR _header$[ebp]
  000ef	8b ce		 mov	 ecx, esi
  000f1	50		 push	 eax
  000f2	6a 01		 push	 1
  000f4	e8 00 00 00 00	 call	 ?Peek@CNetworkStream@@QAE_NHPAX@Z ; CNetworkStream::Peek
  000f9	84 c0		 test	 al, al
  000fb	75 d3		 jne	 SHORT $LL3@CheckPacke
$LN8@CheckPacke:

; 594  : 					return false;
; 595  : 			}
; 596  : 			else
; 597  : 			{
; 598  : 				break;
; 599  : 			}
; 600  : 		}
; 601  : 
; 602  : 		if (0 == header)

  000fd	8a 45 0b	 mov	 al, BYTE PTR _header$[ebp]
  00100	84 c0		 test	 al, al
  00102	0f 84 93 00 00
	00		 je	 $LN31@CheckPacke
$LN11@CheckPacke:

; 608  : 	if (!s_packetHeaderMap.Get(header, &PacketType))

  00108	8d 55 dc	 lea	 edx, DWORD PTR _PacketType$[ebp]
  0010b	0f b6 c0	 movzx	 eax, al
  0010e	52		 push	 edx
  0010f	50		 push	 eax
  00110	b9 00 00 00 00	 mov	 ecx, OFFSET ?s_packetHeaderMap@?1??CheckPacket@CPythonNetworkStream@@IAE_NPAE@Z@4VCMainPacketHeaderMap@@A
; File C:\Anka2Project\Anka2Project\Source\Binary\source\eterLib\NetPacketHeaderMap.h

; 14   : 				iPacketSize = iSize;

  00115	c7 45 dc 00 00
	00 00		 mov	 DWORD PTR _PacketType$[ebp], 0

; 15   : 				iPacketType = bType;

  0011c	c7 45 e0 00 00
	00 00		 mov	 DWORD PTR _PacketType$[ebp+4], 0
; File C:\Anka2Project\Anka2Project\Source\Binary\source\UserInterface\PythonNetworkStream.cpp

; 608  : 	if (!s_packetHeaderMap.Get(header, &PacketType))

  00123	e8 00 00 00 00	 call	 ?Get@CNetworkPacketHeaderMap@@QAE_NHPAUSPacketType@1@@Z ; CNetworkPacketHeaderMap::Get
  00128	84 c0		 test	 al, al
  0012a	75 2f		 jne	 SHORT $LN12@CheckPacke

; 609  : 	{
; 610  : 		TraceError("Unknown packet header: %d, last: %d %d", header, g_iLastPacket[0], g_iLastPacket[1]);

  0012c	ff 35 04 00 00
	00		 push	 DWORD PTR ?g_iLastPacket@@3PAHA+4
  00132	0f b6 45 0b	 movzx	 eax, BYTE PTR _header$[ebp]
  00136	ff 35 00 00 00
	00		 push	 DWORD PTR ?g_iLastPacket@@3PAHA
  0013c	50		 push	 eax
  0013d	68 00 00 00 00	 push	 OFFSET ??_C@_0CH@LALGPME@Unknown?5packet?5header?3?5?$CFd?0?5last@
  00142	e8 00 00 00 00	 call	 ?TraceError@@YAXPBDZZ	; TraceError
  00147	83 c4 10	 add	 esp, 16			; 00000010H

; 611  : 		ClearRecvBuffer();

  0014a	8b ce		 mov	 ecx, esi
  0014c	e8 00 00 00 00	 call	 ?ClearRecvBuffer@CNetworkStream@@QAEXXZ ; CNetworkStream::ClearRecvBuffer

; 612  : 
; 613  : 		PostQuitMessage(0);

  00151	6a 00		 push	 0
  00153	ff 15 00 00 00
	00		 call	 DWORD PTR __imp__PostQuitMessage@4

; 614  : 		return false;

  00159	eb 40		 jmp	 SHORT $LN31@CheckPacke
$LN12@CheckPacke:

; 615  : 	}
; 616  : 
; 617  : #ifdef ENABLE_LARGE_DYNAMIC_PACKET
; 618  : 	if (PacketType.iPacketType == DYNAMIC_SIZE_PACKET)

  0015b	8b 45 e0	 mov	 eax, DWORD PTR _PacketType$[ebp+4]
  0015e	8b ce		 mov	 ecx, esi
  00160	83 f8 01	 cmp	 eax, 1
  00163	75 4b		 jne	 SHORT $LN13@CheckPacke

; 619  : #else
; 620  : 	if (PacketType.isDynamicSizePacket)
; 621  : #endif
; 622  : 	{
; 623  : 		TDynamicSizePacketHeader DynamicSizePacketHeader;
; 624  : 
; 625  : 		if (!Peek(sizeof(TDynamicSizePacketHeader), &DynamicSizePacketHeader))

  00165	8d 45 ec	 lea	 eax, DWORD PTR _DynamicSizePacketHeader$3[ebp]
  00168	50		 push	 eax
  00169	6a 03		 push	 3
  0016b	e8 00 00 00 00	 call	 ?Peek@CNetworkStream@@QAE_NHPAX@Z ; CNetworkStream::Peek
  00170	84 c0		 test	 al, al
  00172	74 27		 je	 SHORT $LN31@CheckPacke

; 626  : 			return false;
; 627  : 
; 628  : 		if (!Peek(DynamicSizePacketHeader.size))

  00174	0f b7 45 ed	 movzx	 eax, WORD PTR _DynamicSizePacketHeader$3[ebp+1]
  00178	8b ce		 mov	 ecx, esi
  0017a	50		 push	 eax
  0017b	e8 00 00 00 00	 call	 ?Peek@CNetworkStream@@QAE_NH@Z ; CNetworkStream::Peek
  00180	84 c0		 test	 al, al
  00182	75 69		 jne	 SHORT $LN21@CheckPacke

; 629  : 		{
; 630  : 			Tracef("CPythonNetworkStream::CheckPacket - Not enough dynamic packet size: header %d packet size: %d\n", 

  00184	0f b7 45 ed	 movzx	 eax, WORD PTR _DynamicSizePacketHeader$3[ebp+1]
  00188	50		 push	 eax
  00189	0f b6 45 ec	 movzx	 eax, BYTE PTR _DynamicSizePacketHeader$3[ebp]
  0018d	50		 push	 eax
  0018e	68 00 00 00 00	 push	 OFFSET ??_C@_0FP@JGOINIOH@CPythonNetworkStream?3?3CheckPack@
$LN39@CheckPacke:

; 667  : }

  00193	e8 00 00 00 00	 call	 ?Tracef@@YAXPBDZZ	; Tracef
  00198	83 c4 0c	 add	 esp, 12			; 0000000cH
$LN31@CheckPacke:
  0019b	32 c0		 xor	 al, al
  0019d	8b 4d f4	 mov	 ecx, DWORD PTR __$EHRec$[ebp]
  001a0	64 89 0d 00 00
	00 00		 mov	 DWORD PTR fs:0, ecx
  001a7	59		 pop	 ecx
  001a8	5f		 pop	 edi
  001a9	5e		 pop	 esi
  001aa	8b e5		 mov	 esp, ebp
  001ac	5d		 pop	 ebp
  001ad	c2 04 00	 ret	 4
$LN13@CheckPacke:

; 631  : 				DynamicSizePacketHeader.header,
; 632  : 				DynamicSizePacketHeader.size);
; 633  : 			return false;
; 634  : 		}
; 635  : 	}
; 636  : #ifdef ENABLE_LARGE_DYNAMIC_PACKET
; 637  : 	else if (PacketType.iPacketType == LARGE_DYNAMIC_SIZE_PACKET)

  001b0	83 f8 02	 cmp	 eax, 2
  001b3	75 2c		 jne	 SHORT $LN17@CheckPacke

; 638  : 	{
; 639  : 		TLargeDynamicSizePacketHeader largeDynamicSizePacketHeader;
; 640  : 		if (!Peek(sizeof(TLargeDynamicSizePacketHeader), &largeDynamicSizePacketHeader))

  001b5	8d 45 e4	 lea	 eax, DWORD PTR _largeDynamicSizePacketHeader$2[ebp]
  001b8	50		 push	 eax
  001b9	6a 05		 push	 5
  001bb	e8 00 00 00 00	 call	 ?Peek@CNetworkStream@@QAE_NHPAX@Z ; CNetworkStream::Peek
  001c0	84 c0		 test	 al, al
  001c2	74 d7		 je	 SHORT $LN31@CheckPacke

; 641  : 			return false;
; 642  : 
; 643  : 		if (!Peek(largeDynamicSizePacketHeader.size))

  001c4	ff 75 e5	 push	 DWORD PTR _largeDynamicSizePacketHeader$2[ebp+1]
  001c7	8b ce		 mov	 ecx, esi
  001c9	e8 00 00 00 00	 call	 ?Peek@CNetworkStream@@QAE_NH@Z ; CNetworkStream::Peek
  001ce	84 c0		 test	 al, al
  001d0	75 1b		 jne	 SHORT $LN21@CheckPacke

; 644  : 		{
; 645  : 			Tracef("CPythonNetworkStream::CheckPacket - Not enough LARGE dynamic packet size: header %d packet size: %d\n",

  001d2	ff 75 e5	 push	 DWORD PTR _largeDynamicSizePacketHeader$2[ebp+1]
  001d5	0f b6 45 e4	 movzx	 eax, BYTE PTR _largeDynamicSizePacketHeader$2[ebp]
  001d9	50		 push	 eax
  001da	68 00 00 00 00	 push	 OFFSET ??_C@_0GF@BNCBJFEH@CPythonNetworkStream?3?3CheckPack@

; 646  : 				largeDynamicSizePacketHeader.header, largeDynamicSizePacketHeader.size);
; 647  : 			return false;

  001df	eb b2		 jmp	 SHORT $LN39@CheckPacke
$LN17@CheckPacke:

; 648  : 		}
; 649  : 	}
; 650  : #endif
; 651  : 	else
; 652  : 	{
; 653  : 		if (!Peek(PacketType.iPacketSize))

  001e1	ff 75 dc	 push	 DWORD PTR _PacketType$[ebp]
  001e4	e8 00 00 00 00	 call	 ?Peek@CNetworkStream@@QAE_NH@Z ; CNetworkStream::Peek
  001e9	84 c0		 test	 al, al
  001eb	74 ae		 je	 SHORT $LN31@CheckPacke
$LN21@CheckPacke:

; 654  : 		{
; 655  : 			return false;
; 656  : 		}
; 657  : 	}
; 658  : 
; 659  : 	if (!header)

  001ed	8a 4d 0b	 mov	 cl, BYTE PTR _header$[ebp]
  001f0	84 c9		 test	 cl, cl
  001f2	74 a7		 je	 SHORT $LN31@CheckPacke

; 660  : 		return false;
; 661  : 
; 662  : 	*pRetHeader = header;
; 663  : 
; 664  : 	g_iLastPacket[0] = g_iLastPacket[1];

  001f4	a1 04 00 00 00	 mov	 eax, DWORD PTR ?g_iLastPacket@@3PAHA+4
  001f9	a3 00 00 00 00	 mov	 DWORD PTR ?g_iLastPacket@@3PAHA, eax

; 665  : 	g_iLastPacket[1] = header;

  001fe	0f b6 c1	 movzx	 eax, cl
  00201	a3 04 00 00 00	 mov	 DWORD PTR ?g_iLastPacket@@3PAHA+4, eax

; 666  : 	return true;

  00206	b0 01		 mov	 al, 1
  00208	88 0f		 mov	 BYTE PTR [edi], cl

; 667  : }

  0020a	8b 4d f4	 mov	 ecx, DWORD PTR __$EHRec$[ebp]
  0020d	64 89 0d 00 00
	00 00		 mov	 DWORD PTR fs:0, ecx
  00214	59		 pop	 ecx
  00215	5f		 pop	 edi
  00216	5e		 pop	 esi
  00217	8b e5		 mov	 esp, ebp
  00219	5d		 pop	 ebp
  0021a	c2 04 00	 ret	 4
_TEXT	ENDS
;	COMDAT text$x
text$x	SEGMENT
__unwindfunclet$?CheckPacket@CPythonNetworkStream@@IAE_NPAE@Z$0:
  00000	68 00 00 00 00	 push	 OFFSET ?$TSS0@?1??CheckPacket@CPythonNetworkStream@@IAE_NPAE@Z@4HA
  00005	e8 00 00 00 00	 call	 __Init_thread_abort
  0000a	59		 pop	 ecx
  0000b	c3		 ret	 0
  0000c	cc		 int	 3
  0000d	cc		 int	 3
  0000e	cc		 int	 3
  0000f	cc		 int	 3
  00010	cc		 int	 3
__ehhandler$?CheckPacket@CPythonNetworkStream@@IAE_NPAE@Z:
  00011	90		 npad	 1
  00012	90		 npad	 1
  00013	8b 54 24 08	 mov	 edx, DWORD PTR [esp+8]
  00017	8d 42 0c	 lea	 eax, DWORD PTR [edx+12]
  0001a	8b 4a d8	 mov	 ecx, DWORD PTR [edx-40]
  0001d	33 c8		 xor	 ecx, eax
  0001f	e8 00 00 00 00	 call	 @__security_check_cookie@4
  00024	b8 00 00 00 00	 mov	 eax, OFFSET __ehfuncinfo$?CheckPacket@CPythonNetworkStream@@IAE_NPAE@Z
  00029	e9 00 00 00 00	 jmp	 ___CxxFrameHandler3
text$x	ENDS
?CheckPacket@CPythonNetworkStream@@IAE_NPAE@Z ENDP	; CPythonNetworkStream::CheckPacket
; Function compile flags: /Ogtp
; File C:\Anka2Project\Anka2Project\Source\Binary\source\UserInterface\PythonNetworkStream.cpp
; File C:\Anka2Project\Anka2Project\Source\Binary\source\eterlib\Ref.h
; File C:\Anka2Project\Anka2Project\Source\Binary\source\UserInterface\PythonNetworkStream.cpp
; File C:\Anka2Project\Anka2Project\Source\Binary\source\EterLib\FuncObject.h
; File C:\Anka2Project\Anka2Project\Source\Binary\source\UserInterface\PythonNetworkStream.cpp
;	COMDAT ?OnProcess@CPythonNetworkStream@@MAE_NXZ
_TEXT	SEGMENT
?OnProcess@CPythonNetworkStream@@MAE_NXZ PROC		; CPythonNetworkStream::OnProcess, COMDAT
; _this$ = ecx

; 759  : {

  00000	56		 push	 esi
  00001	8b f1		 mov	 esi, ecx

; 760  : 	if (m_isStartGame)

  00003	83 be a8 00 00
	00 00		 cmp	 DWORD PTR [esi+168], 0
  0000a	74 29		 je	 SHORT $LN2@OnProcess

; 761  : 	{
; 762  : 		m_isStartGame = FALSE;
; 763  : 
; 764  : 		PyCallClassMemberFunc(m_poHandler, "SetGamePhase", Py_BuildValue("()"));

  0000c	68 00 00 00 00	 push	 OFFSET ??_C@_02HCKGKOFO@?$CI?$CJ@
  00011	c7 86 a8 00 00
	00 00 00 00 00	 mov	 DWORD PTR [esi+168], 0
  0001b	ff 15 00 00 00
	00		 call	 DWORD PTR __imp__Py_BuildValue
  00021	50		 push	 eax
  00022	68 00 00 00 00	 push	 OFFSET ??_C@_0N@HHLEGKEL@SetGamePhase@
  00027	ff b6 80 01 00
	00		 push	 DWORD PTR [esi+384]
  0002d	e8 00 00 00 00	 call	 ?PyCallClassMemberFunc@@YA_NPAU_object@@PBD0@Z ; PyCallClassMemberFunc
  00032	83 c4 10	 add	 esp, 16			; 00000010H
$LN2@OnProcess:
; File C:\Anka2Project\Anka2Project\Source\Binary\source\eterlib\Ref.h

; 85   : 			assert(m_pObject != nullptr);

  00035	83 be 28 04 00
	00 00		 cmp	 DWORD PTR [esi+1064], 0
  0003c	75 14		 jne	 SHORT $LN7@OnProcess
  0003e	6a 55		 push	 85			; 00000055H
  00040	68 00 00 00 00	 push	 OFFSET ??_C@_1IA@GOBOKLKL@?$AAC?$AA?3?$AA?2?$AAA?$AAn?$AAk?$AAa?$AA2?$AAP?$AAr?$AAo?$AAj?$AAe?$AAc?$AAt@
  00045	68 00 00 00 00	 push	 OFFSET ??_C@_1CK@DKKCJALE@?$AAm?$AA_?$AAp?$AAO?$AAb?$AAj?$AAe?$AAc?$AAt?$AA?5?$AA?$CB?$AA?$DN?$AA?5?$AAn?$AAu@
  0004a	e8 00 00 00 00	 call	 __wassert
  0004f	83 c4 0c	 add	 esp, 12			; 0000000cH
$LN7@OnProcess:
; File C:\Anka2Project\Anka2Project\Source\Binary\source\UserInterface\PythonNetworkStream.cpp

; 767  : 	m_rokNetActorMgr->Update();

  00052	8b 8e 28 04 00
	00		 mov	 ecx, DWORD PTR [esi+1064]
  00058	e8 00 00 00 00	 call	 ?Update@CNetworkActorManager@@QAEXXZ ; CNetworkActorManager::Update
; File C:\Anka2Project\Anka2Project\Source\Binary\source\EterLib\FuncObject.h

; 30   : 			if (m_pSelfObject != nullptr)

  0005d	8b 96 58 01 00
	00		 mov	 edx, DWORD PTR [esi+344]
  00063	85 d2		 test	 edx, edx
  00065	74 14		 je	 SHORT $LN29@OnProcess

; 42   : 				if (m_pFuncObject)

  00067	8b 86 60 01 00
	00		 mov	 eax, DWORD PTR [esi+352]
  0006d	85 c0		 test	 eax, eax
  0006f	74 0a		 je	 SHORT $LN29@OnProcess

; 43   : 					(m_pSelfObject->*m_pFuncObject)();

  00071	8b 8e 64 01 00
	00		 mov	 ecx, DWORD PTR [esi+356]
  00077	03 ca		 add	 ecx, edx
  00079	ff d0		 call	 eax
$LN29@OnProcess:
; File C:\Anka2Project\Anka2Project\Source\Binary\source\UserInterface\PythonNetworkStream.cpp

; 777  : }

  0007b	b0 01		 mov	 al, 1
  0007d	5e		 pop	 esi
  0007e	c3		 ret	 0
?OnProcess@CPythonNetworkStream@@MAE_NXZ ENDP		; CPythonNetworkStream::OnProcess
_TEXT	ENDS
; Function compile flags: /Ogtp
; File C:\Anka2Project\Anka2Project\Source\Binary\source\UserInterface\PythonNetworkStream.cpp
;	COMDAT ?ClosePhase@CPythonNetworkStream@@QAEXXZ
_TEXT	SEGMENT
?ClosePhase@CPythonNetworkStream@@QAEXXZ PROC		; CPythonNetworkStream::ClosePhase, COMDAT
; _this$ = ecx

; 808  : {

  00000	56		 push	 esi

; 809  : 	PyCallClassMemberFunc(m_poHandler, "SetLoginPhase", Py_BuildValue("()"));

  00001	68 00 00 00 00	 push	 OFFSET ??_C@_02HCKGKOFO@?$CI?$CJ@
  00006	8b f1		 mov	 esi, ecx
  00008	ff 15 00 00 00
	00		 call	 DWORD PTR __imp__Py_BuildValue
  0000e	50		 push	 eax
  0000f	68 00 00 00 00	 push	 OFFSET ??_C@_0O@PJEEOCNO@SetLoginPhase@
  00014	ff b6 80 01 00
	00		 push	 DWORD PTR [esi+384]
  0001a	e8 00 00 00 00	 call	 ?PyCallClassMemberFunc@@YA_NPAU_object@@PBD0@Z ; PyCallClassMemberFunc
  0001f	83 c4 10	 add	 esp, 16			; 00000010H
  00022	5e		 pop	 esi

; 810  : }

  00023	c3		 ret	 0
?ClosePhase@CPythonNetworkStream@@QAEXXZ ENDP		; CPythonNetworkStream::ClosePhase
_TEXT	ENDS
; Function compile flags: /Ogtp
; File C:\Anka2Project\Anka2Project\Source\Binary\source\EterLib\FuncObject.h
;	COMDAT ?Run@?$CFuncObject@VCPythonNetworkStream@@@@QAEXXZ
_TEXT	SEGMENT
?Run@?$CFuncObject@VCPythonNetworkStream@@@@QAEXXZ PROC	; CFuncObject<CPythonNetworkStream>::Run, COMDAT
; _this$ = ecx

; 41   : 			if (m_pSelfObject)

  00000	8b 51 08	 mov	 edx, DWORD PTR [ecx+8]
  00003	85 d2		 test	 edx, edx
  00005	74 0e		 je	 SHORT $LN3@Run

; 42   : 				if (m_pFuncObject)

  00007	8b 41 10	 mov	 eax, DWORD PTR [ecx+16]
  0000a	85 c0		 test	 eax, eax
  0000c	74 07		 je	 SHORT $LN3@Run

; 43   : 					(m_pSelfObject->*m_pFuncObject)();

  0000e	8b 49 14	 mov	 ecx, DWORD PTR [ecx+20]
  00011	03 ca		 add	 ecx, edx
  00013	ff e0		 jmp	 eax
$LN3@Run:

; 44   : 		}

  00015	c3		 ret	 0
?Run@?$CFuncObject@VCPythonNetworkStream@@@@QAEXXZ ENDP	; CFuncObject<CPythonNetworkStream>::Run
_TEXT	ENDS
END
