; Listing generated by Microsoft (R) Optimizing Compiler Version 19.44.35219.0 

	TITLE	c:\anka2project\anka2project\source\binary\vs_files\userinterface\release\pythonprivateshopsearch.obj
	.686P
	.XMM
	include listing.inc
	.model	flat

INCLUDELIB OLDNAMES

PUBLIC	??_C@_0BD@KCBKFHHC@GetSearchItemCount@		; `string'
PUBLIC	??_C@_0BC@BBNPJJFC@GetSearchItemVnum@		; `string'
PUBLIC	??_C@_0BD@POOGCMBA@GetSearchItemPrice@		; `string'
PUBLIC	??_C@_0BB@BMKHMJBI@ClearSearchItems@		; `string'
PUBLIC	??_C@_0BF@MNOCCBHJ@GetSearchItemShopVID@	; `string'
PUBLIC	??_C@_0BH@CNKNKICA@GetSearchItemAttribute@	; `string'
PUBLIC	??_C@_0BJ@JIKCKHGJ@GetSearchItemMetinSocket@	; `string'
PUBLIC	??_C@_0BB@JPGCIBFD@GetSearchItemPos@		; `string'
PUBLIC	??_C@_0BL@NNKBNEFP@GetSearchItemTransmutation@	; `string'
PUBLIC	??_C@_0BA@HBOOLDFG@GetSearchItemID@		; `string'
PUBLIC	??_C@_0BE@LPPIFKKE@GetSearchItemSeller@		; `string'
PUBLIC	??_C@_0BC@DOMFPLKH@privateShopSearch@		; `string'
PUBLIC	??_R2CPythonPrivateShopSearch@@8		; CPythonPrivateShopSearch::`RTTI Base Class Array'
PUBLIC	??_R2?$CSingleton@VCPythonPrivateShopSearch@@@@8 ; CSingleton<CPythonPrivateShopSearch>::`RTTI Base Class Array'
PUBLIC	??_R1A@?0A@EA@?$CSingleton@VCPythonPrivateShopSearch@@@@8 ; CSingleton<CPythonPrivateShopSearch>::`RTTI Base Class Descriptor at (0,-1,0,64)'
PUBLIC	??_R1A@?0A@EA@CPythonPrivateShopSearch@@8	; CPythonPrivateShopSearch::`RTTI Base Class Descriptor at (0,-1,0,64)'
PUBLIC	??_R3?$CSingleton@VCPythonPrivateShopSearch@@@@8 ; CSingleton<CPythonPrivateShopSearch>::`RTTI Class Hierarchy Descriptor'
PUBLIC	??_R3CPythonPrivateShopSearch@@8		; CPythonPrivateShopSearch::`RTTI Class Hierarchy Descriptor'
PUBLIC	??_R0?AV?$CSingleton@VCPythonPrivateShopSearch@@@@@8 ; CSingleton<CPythonPrivateShopSearch> `RTTI Type Descriptor'
PUBLIC	??_R0?AVCPythonPrivateShopSearch@@@8		; CPythonPrivateShopSearch `RTTI Type Descriptor'
PUBLIC	??_R4CPythonPrivateShopSearch@@6B@		; CPythonPrivateShopSearch::`RTTI Complete Object Locator'
PUBLIC	??_R4?$CSingleton@VCPythonPrivateShopSearch@@@@6B@ ; CSingleton<CPythonPrivateShopSearch>::`RTTI Complete Object Locator'
PUBLIC	??_7?$CSingleton@VCPythonPrivateShopSearch@@@@6B@ ; CSingleton<CPythonPrivateShopSearch>::`vftable'
PUBLIC	??_7CPythonPrivateShopSearch@@6B@		; CPythonPrivateShopSearch::`vftable'
;	COMDAT ??_7CPythonPrivateShopSearch@@6B@
CONST	SEGMENT
??_7CPythonPrivateShopSearch@@6B@ DD FLAT:??_R4CPythonPrivateShopSearch@@6B@ ; CPythonPrivateShopSearch::`vftable'
	DD	FLAT:??_ECPythonPrivateShopSearch@@UAEPAXI@Z
CONST	ENDS
;	COMDAT ??_7?$CSingleton@VCPythonPrivateShopSearch@@@@6B@
CONST	SEGMENT
??_7?$CSingleton@VCPythonPrivateShopSearch@@@@6B@ DD FLAT:??_R4?$CSingleton@VCPythonPrivateShopSearch@@@@6B@ ; CSingleton<CPythonPrivateShopSearch>::`vftable'
	DD	FLAT:??_E?$CSingleton@VCPythonPrivateShopSearch@@@@UAEPAXI@Z
CONST	ENDS
;	COMDAT ?s_methods@?1??initprivateShopSearch@@YAXXZ@4PAUPyMethodDef@@A
_DATA	SEGMENT
?s_methods@?1??initprivateShopSearch@@YAXXZ@4PAUPyMethodDef@@A DD FLAT:??_C@_0N@LEKALLIG@GetItemCount@ ; `initprivateShopSearch'::`2'::s_methods
	DD	FLAT:?privateShopSearchGetItemCount@@YAPAU_object@@PAU1@0@Z
	DD	01H
	ORG $+4
	DD	FLAT:??_C@_0BD@KCBKFHHC@GetSearchItemCount@
	DD	FLAT:?privateShopSearchGetSearchItemCount@@YAPAU_object@@PAU1@0@Z
	DD	01H
	ORG $+4
	DD	FLAT:??_C@_0BD@POOGCMBA@GetSearchItemPrice@
	DD	FLAT:?privateShopSearchGetSearchItemPrice@@YAPAU_object@@PAU1@0@Z
	DD	01H
	ORG $+4
	DD	FLAT:??_C@_0BC@BBNPJJFC@GetSearchItemVnum@
	DD	FLAT:?privateShopSearchGetSearchItemVnum@@YAPAU_object@@PAU1@0@Z
	DD	01H
	ORG $+4
	DD	FLAT:??_C@_0BF@MNOCCBHJ@GetSearchItemShopVID@
	DD	FLAT:?privateShopSearchGetSearchItemShopVID@@YAPAU_object@@PAU1@0@Z
	DD	01H
	ORG $+4
	DD	FLAT:??_C@_0BB@BMKHMJBI@ClearSearchItems@
	DD	FLAT:?privateShopSearchClearSearchItems@@YAPAU_object@@PAU1@0@Z
	DD	01H
	ORG $+4
	DD	FLAT:??_C@_0BJ@JIKCKHGJ@GetSearchItemMetinSocket@
	DD	FLAT:?privateShopSearchGetSearchItemMetinSocket@@YAPAU_object@@PAU1@0@Z
	DD	01H
	ORG $+4
	DD	FLAT:??_C@_0BH@CNKNKICA@GetSearchItemAttribute@
	DD	FLAT:?privateShopSearchGetSearchItemAttribute@@YAPAU_object@@PAU1@0@Z
	DD	01H
	ORG $+4
	DD	FLAT:??_C@_0BL@NNKBNEFP@GetSearchItemTransmutation@
	DD	FLAT:?privateShopSearchGetSearchItemTransmutation@@YAPAU_object@@PAU1@0@Z
	DD	01H
	ORG $+4
	DD	FLAT:??_C@_0BB@JPGCIBFD@GetSearchItemPos@
	DD	FLAT:?privateShopSearchGetSearchItemPos@@YAPAU_object@@PAU1@0@Z
	DD	01H
	ORG $+4
	DD	FLAT:??_C@_0BE@LPPIFKKE@GetSearchItemSeller@
	DD	FLAT:?privateShopSearchGetSearchItemBuyerName@@YAPAU_object@@PAU1@0@Z
	DD	01H
	ORG $+4
	DD	FLAT:??_C@_0BA@HBOOLDFG@GetSearchItemID@
	DD	FLAT:?privateShopSearchGetSearchItemID@@YAPAU_object@@PAU1@0@Z
	DD	01H
	ORG $+4
	DD	00H
	DD	00H
	ORG $+8
_DATA	ENDS
;	COMDAT ??_R4?$CSingleton@VCPythonPrivateShopSearch@@@@6B@
rdata$r	SEGMENT
??_R4?$CSingleton@VCPythonPrivateShopSearch@@@@6B@ DD 00H ; CSingleton<CPythonPrivateShopSearch>::`RTTI Complete Object Locator'
	DD	00H
	DD	00H
	DD	FLAT:??_R0?AV?$CSingleton@VCPythonPrivateShopSearch@@@@@8
	DD	FLAT:??_R3?$CSingleton@VCPythonPrivateShopSearch@@@@8
rdata$r	ENDS
;	COMDAT ??_R4CPythonPrivateShopSearch@@6B@
rdata$r	SEGMENT
??_R4CPythonPrivateShopSearch@@6B@ DD 00H		; CPythonPrivateShopSearch::`RTTI Complete Object Locator'
	DD	00H
	DD	00H
	DD	FLAT:??_R0?AVCPythonPrivateShopSearch@@@8
	DD	FLAT:??_R3CPythonPrivateShopSearch@@8
rdata$r	ENDS
;	COMDAT ??_R0?AVCPythonPrivateShopSearch@@@8
data$rs	SEGMENT
??_R0?AVCPythonPrivateShopSearch@@@8 DD FLAT:??_7type_info@@6B@ ; CPythonPrivateShopSearch `RTTI Type Descriptor'
	DD	00H
	DB	'.?AVCPythonPrivateShopSearch@@', 00H
data$rs	ENDS
;	COMDAT ??_R0?AV?$CSingleton@VCPythonPrivateShopSearch@@@@@8
data$rs	SEGMENT
??_R0?AV?$CSingleton@VCPythonPrivateShopSearch@@@@@8 DD FLAT:??_7type_info@@6B@ ; CSingleton<CPythonPrivateShopSearch> `RTTI Type Descriptor'
	DD	00H
	DB	'.?AV?$CSingleton@VCPythonPrivateShopSearch@@@@', 00H
data$rs	ENDS
;	COMDAT ??_R3CPythonPrivateShopSearch@@8
rdata$r	SEGMENT
??_R3CPythonPrivateShopSearch@@8 DD 00H			; CPythonPrivateShopSearch::`RTTI Class Hierarchy Descriptor'
	DD	00H
	DD	02H
	DD	FLAT:??_R2CPythonPrivateShopSearch@@8
rdata$r	ENDS
;	COMDAT ??_R3?$CSingleton@VCPythonPrivateShopSearch@@@@8
rdata$r	SEGMENT
??_R3?$CSingleton@VCPythonPrivateShopSearch@@@@8 DD 00H	; CSingleton<CPythonPrivateShopSearch>::`RTTI Class Hierarchy Descriptor'
	DD	00H
	DD	01H
	DD	FLAT:??_R2?$CSingleton@VCPythonPrivateShopSearch@@@@8
rdata$r	ENDS
;	COMDAT ??_R1A@?0A@EA@CPythonPrivateShopSearch@@8
rdata$r	SEGMENT
??_R1A@?0A@EA@CPythonPrivateShopSearch@@8 DD FLAT:??_R0?AVCPythonPrivateShopSearch@@@8 ; CPythonPrivateShopSearch::`RTTI Base Class Descriptor at (0,-1,0,64)'
	DD	01H
	DD	00H
	DD	0ffffffffH
	DD	00H
	DD	040H
	DD	FLAT:??_R3CPythonPrivateShopSearch@@8
rdata$r	ENDS
;	COMDAT ??_R1A@?0A@EA@?$CSingleton@VCPythonPrivateShopSearch@@@@8
rdata$r	SEGMENT
??_R1A@?0A@EA@?$CSingleton@VCPythonPrivateShopSearch@@@@8 DD FLAT:??_R0?AV?$CSingleton@VCPythonPrivateShopSearch@@@@@8 ; CSingleton<CPythonPrivateShopSearch>::`RTTI Base Class Descriptor at (0,-1,0,64)'
	DD	00H
	DD	00H
	DD	0ffffffffH
	DD	00H
	DD	040H
	DD	FLAT:??_R3?$CSingleton@VCPythonPrivateShopSearch@@@@8
rdata$r	ENDS
;	COMDAT ??_R2?$CSingleton@VCPythonPrivateShopSearch@@@@8
rdata$r	SEGMENT
??_R2?$CSingleton@VCPythonPrivateShopSearch@@@@8 DD FLAT:??_R1A@?0A@EA@?$CSingleton@VCPythonPrivateShopSearch@@@@8 ; CSingleton<CPythonPrivateShopSearch>::`RTTI Base Class Array'
rdata$r	ENDS
;	COMDAT ??_R2CPythonPrivateShopSearch@@8
rdata$r	SEGMENT
??_R2CPythonPrivateShopSearch@@8 DD FLAT:??_R1A@?0A@EA@CPythonPrivateShopSearch@@8 ; CPythonPrivateShopSearch::`RTTI Base Class Array'
	DD	FLAT:??_R1A@?0A@EA@?$CSingleton@VCPythonPrivateShopSearch@@@@8
rdata$r	ENDS
;	COMDAT ??_C@_0BC@DOMFPLKH@privateShopSearch@
CONST	SEGMENT
??_C@_0BC@DOMFPLKH@privateShopSearch@ DB 'privateShopSearch', 00H ; `string'
CONST	ENDS
;	COMDAT ??_C@_0BE@LPPIFKKE@GetSearchItemSeller@
CONST	SEGMENT
??_C@_0BE@LPPIFKKE@GetSearchItemSeller@ DB 'GetSearchItemSeller', 00H ; `string'
CONST	ENDS
;	COMDAT ??_C@_0BA@HBOOLDFG@GetSearchItemID@
CONST	SEGMENT
??_C@_0BA@HBOOLDFG@GetSearchItemID@ DB 'GetSearchItemID', 00H ; `string'
CONST	ENDS
;	COMDAT ??_C@_0BL@NNKBNEFP@GetSearchItemTransmutation@
CONST	SEGMENT
??_C@_0BL@NNKBNEFP@GetSearchItemTransmutation@ DB 'GetSearchItemTransmuta'
	DB	'tion', 00H					; `string'
CONST	ENDS
;	COMDAT ??_C@_0BB@JPGCIBFD@GetSearchItemPos@
CONST	SEGMENT
??_C@_0BB@JPGCIBFD@GetSearchItemPos@ DB 'GetSearchItemPos', 00H ; `string'
CONST	ENDS
;	COMDAT ??_C@_0BJ@JIKCKHGJ@GetSearchItemMetinSocket@
CONST	SEGMENT
??_C@_0BJ@JIKCKHGJ@GetSearchItemMetinSocket@ DB 'GetSearchItemMetinSocket'
	DB	00H						; `string'
CONST	ENDS
;	COMDAT ??_C@_0BH@CNKNKICA@GetSearchItemAttribute@
CONST	SEGMENT
??_C@_0BH@CNKNKICA@GetSearchItemAttribute@ DB 'GetSearchItemAttribute', 00H ; `string'
CONST	ENDS
;	COMDAT ??_C@_0BF@MNOCCBHJ@GetSearchItemShopVID@
CONST	SEGMENT
??_C@_0BF@MNOCCBHJ@GetSearchItemShopVID@ DB 'GetSearchItemShopVID', 00H ; `string'
CONST	ENDS
;	COMDAT ??_C@_0BB@BMKHMJBI@ClearSearchItems@
CONST	SEGMENT
??_C@_0BB@BMKHMJBI@ClearSearchItems@ DB 'ClearSearchItems', 00H ; `string'
CONST	ENDS
;	COMDAT ??_C@_0BD@POOGCMBA@GetSearchItemPrice@
CONST	SEGMENT
??_C@_0BD@POOGCMBA@GetSearchItemPrice@ DB 'GetSearchItemPrice', 00H ; `string'
CONST	ENDS
;	COMDAT ??_C@_0BC@BBNPJJFC@GetSearchItemVnum@
CONST	SEGMENT
??_C@_0BC@BBNPJJFC@GetSearchItemVnum@ DB 'GetSearchItemVnum', 00H ; `string'
CONST	ENDS
;	COMDAT ??_C@_0BD@KCBKFHHC@GetSearchItemCount@
CONST	SEGMENT
??_C@_0BD@KCBKFHHC@GetSearchItemCount@ DB 'GetSearchItemCount', 00H ; `string'
PUBLIC	??$construct_at@Upacket_offline_shop_item@@ABU1@@std@@YAPAUpacket_offline_shop_item@@QAU1@ABU1@@Z ; std::construct_at<packet_offline_shop_item,packet_offline_shop_item const &>
PUBLIC	??$addressof@Upacket_offline_shop_item@@@std@@YAPAUpacket_offline_shop_item@@AAU1@@Z ; std::addressof<packet_offline_shop_item>
PUBLIC	??$construct@Upacket_offline_shop_item@@ABU1@@?$_Default_allocator_traits@V?$allocator@Upacket_offline_shop_item@@@std@@@std@@SAXAAV?$allocator@Upacket_offline_shop_item@@@1@QAUpacket_offline_shop_item@@ABU3@@Z ; std::_Default_allocator_traits<std::allocator<packet_offline_shop_item> >::construct<packet_offline_shop_item,packet_offline_shop_item const &>
PUBLIC	??$_Construct_in_place@Upacket_offline_shop_item@@ABU1@@std@@YAXAAUpacket_offline_shop_item@@ABU1@@Z ; std::_Construct_in_place<packet_offline_shop_item,packet_offline_shop_item const &>
PUBLIC	??$_Emplace_reallocate@ABUpacket_offline_shop_item@@@?$vector@Upacket_offline_shop_item@@V?$allocator@Upacket_offline_shop_item@@@std@@@std@@AAEPAUpacket_offline_shop_item@@QAU2@ABU2@@Z ; std::vector<packet_offline_shop_item,std::allocator<packet_offline_shop_item> >::_Emplace_reallocate<packet_offline_shop_item const &>
PUBLIC	??$_Emplace_back_with_unused_capacity@ABUpacket_offline_shop_item@@@?$vector@Upacket_offline_shop_item@@V?$allocator@Upacket_offline_shop_item@@@std@@@std@@AAEAAUpacket_offline_shop_item@@ABU2@@Z ; std::vector<packet_offline_shop_item,std::allocator<packet_offline_shop_item> >::_Emplace_back_with_unused_capacity<packet_offline_shop_item const &>
PUBLIC	??$forward@ABUpacket_offline_shop_item@@@std@@YAABUpacket_offline_shop_item@@ABU1@@Z ; std::forward<packet_offline_shop_item const &>
PUBLIC	?_Xrange@?$vector@Upacket_offline_shop_item@@V?$allocator@Upacket_offline_shop_item@@@std@@@std@@CAXXZ ; std::vector<packet_offline_shop_item,std::allocator<packet_offline_shop_item> >::_Xrange
PUBLIC	??$_Emplace_one_at_back@ABUpacket_offline_shop_item@@@?$vector@Upacket_offline_shop_item@@V?$allocator@Upacket_offline_shop_item@@@std@@@std@@AAEAAUpacket_offline_shop_item@@ABU2@@Z ; std::vector<packet_offline_shop_item,std::allocator<packet_offline_shop_item> >::_Emplace_one_at_back<packet_offline_shop_item const &>
PUBLIC	??_G?$CSingleton@VCPythonPrivateShopSearch@@@@UAEPAXI@Z ; CSingleton<CPythonPrivateShopSearch>::`scalar deleting destructor'
PUBLIC	??0?$CSingleton@VCPythonPrivateShopSearch@@@@QAE@XZ ; CSingleton<CPythonPrivateShopSearch>::CSingleton<CPythonPrivateShopSearch>
PUBLIC	??1?$CSingleton@VCPythonPrivateShopSearch@@@@UAE@XZ ; CSingleton<CPythonPrivateShopSearch>::~CSingleton<CPythonPrivateShopSearch>
PUBLIC	?push_back@?$vector@Upacket_offline_shop_item@@V?$allocator@Upacket_offline_shop_item@@@std@@@std@@QAEXABUpacket_offline_shop_item@@@Z ; std::vector<packet_offline_shop_item,std::allocator<packet_offline_shop_item> >::push_back
PUBLIC	?clear@?$vector@Upacket_offline_shop_item@@V?$allocator@Upacket_offline_shop_item@@@std@@@std@@QAEXXZ ; std::vector<packet_offline_shop_item,std::allocator<packet_offline_shop_item> >::clear
PUBLIC	?size@?$vector@Upacket_offline_shop_item@@V?$allocator@Upacket_offline_shop_item@@@std@@@std@@QBEIXZ ; std::vector<packet_offline_shop_item,std::allocator<packet_offline_shop_item> >::size
PUBLIC	?at@?$vector@Upacket_offline_shop_item@@V?$allocator@Upacket_offline_shop_item@@@std@@@std@@QAEAAUpacket_offline_shop_item@@I@Z ; std::vector<packet_offline_shop_item,std::allocator<packet_offline_shop_item> >::at
PUBLIC	?initprivateShopSearch@@YAXXZ			; initprivateShopSearch
PUBLIC	?privateShopSearchClearSearchItems@@YAPAU_object@@PAU1@0@Z ; privateShopSearchClearSearchItems
PUBLIC	?privateShopSearchGetSearchItemBuyerName@@YAPAU_object@@PAU1@0@Z ; privateShopSearchGetSearchItemBuyerName
PUBLIC	?privateShopSearchGetSearchItemTransmutation@@YAPAU_object@@PAU1@0@Z ; privateShopSearchGetSearchItemTransmutation
PUBLIC	?privateShopSearchGetSearchItemID@@YAPAU_object@@PAU1@0@Z ; privateShopSearchGetSearchItemID
PUBLIC	?privateShopSearchGetSearchItemVnum@@YAPAU_object@@PAU1@0@Z ; privateShopSearchGetSearchItemVnum
PUBLIC	?privateShopSearchGetSearchItemPos@@YAPAU_object@@PAU1@0@Z ; privateShopSearchGetSearchItemPos
PUBLIC	?privateShopSearchGetSearchItemShopVID@@YAPAU_object@@PAU1@0@Z ; privateShopSearchGetSearchItemShopVID
PUBLIC	?privateShopSearchGetSearchItemPrice@@YAPAU_object@@PAU1@0@Z ; privateShopSearchGetSearchItemPrice
PUBLIC	?privateShopSearchGetSearchItemCount@@YAPAU_object@@PAU1@0@Z ; privateShopSearchGetSearchItemCount
PUBLIC	?privateShopSearchGetItemCount@@YAPAU_object@@PAU1@0@Z ; privateShopSearchGetItemCount
PUBLIC	?privateShopSearchGetSearchItemAttribute@@YAPAU_object@@PAU1@0@Z ; privateShopSearchGetSearchItemAttribute
PUBLIC	?privateShopSearchGetSearchItemMetinSocket@@YAPAU_object@@PAU1@0@Z ; privateShopSearchGetSearchItemMetinSocket
PUBLIC	?GetItemDataPtr@CPythonPrivateShopSearch@@QAEKKPAPAUpacket_offline_shop_item@@@Z ; CPythonPrivateShopSearch::GetItemDataPtr
PUBLIC	?ClearItemData@CPythonPrivateShopSearch@@QAEXXZ	; CPythonPrivateShopSearch::ClearItemData
PUBLIC	??_GCPythonPrivateShopSearch@@UAEPAXI@Z		; CPythonPrivateShopSearch::`scalar deleting destructor'
PUBLIC	?GetItemDataCount@CPythonPrivateShopSearch@@QAEKXZ ; CPythonPrivateShopSearch::GetItemDataCount
PUBLIC	?AddItemData@CPythonPrivateShopSearch@@QAEXAAUpacket_offline_shop_item@@@Z ; CPythonPrivateShopSearch::AddItemData
PUBLIC	??0CPythonPrivateShopSearch@@QAE@XZ		; CPythonPrivateShopSearch::CPythonPrivateShopSearch
PUBLIC	??1CPythonPrivateShopSearch@@UAE@XZ		; CPythonPrivateShopSearch::~CPythonPrivateShopSearch
EXTRN	??_ECPythonPrivateShopSearch@@UAEPAXI@Z:PROC	; CPythonPrivateShopSearch::`vector deleting destructor'
EXTRN	??_E?$CSingleton@VCPythonPrivateShopSearch@@@@UAEPAXI@Z:PROC ; CSingleton<CPythonPrivateShopSearch>::`vector deleting destructor'
; Function compile flags: /Ogtp
; File C:\Anka2Project\Anka2Project\Source\Binary\source\UserInterface\PythonPrivateShopSearch.cpp
; File C:\Anka2Project\Anka2Project\Source\Binary\source\eterBase\Singleton.h
; File C:\Anka2Project\Anka2Project\Source\Binary\source\UserInterface\PythonPrivateShopSearch.cpp
;	COMDAT ?privateShopSearchGetSearchItemMetinSocket@@YAPAU_object@@PAU1@0@Z
_TEXT	SEGMENT
_pItemData$ = -12					; size = 4
_iSlotIndex$ = -8					; size = 4
_iSocketIndex$ = -4					; size = 4
_poSelf$ = 8						; size = 4
_poArgs$ = 12						; size = 4
?privateShopSearchGetSearchItemMetinSocket@@YAPAU_object@@PAU1@0@Z PROC ; privateShopSearchGetSearchItemMetinSocket, COMDAT

; 28   : {

  00000	55		 push	 ebp
  00001	8b ec		 mov	 ebp, esp
  00003	83 ec 0c	 sub	 esp, 12			; 0000000cH

; 29   : 	int iSlotIndex;
; 30   : 	if (!PyTuple_GetInteger(poArgs, 0, &iSlotIndex))

  00006	8d 45 f8	 lea	 eax, DWORD PTR _iSlotIndex$[ebp]
  00009	50		 push	 eax
  0000a	6a 00		 push	 0
  0000c	ff 75 0c	 push	 DWORD PTR _poArgs$[ebp]
  0000f	e8 00 00 00 00	 call	 ?PyTuple_GetInteger@@YA_NPAU_object@@HPAH@Z ; PyTuple_GetInteger
  00014	83 c4 0c	 add	 esp, 12			; 0000000cH
  00017	84 c0		 test	 al, al
  00019	75 09		 jne	 SHORT $LN2@privateSho
$LN10@privateSho:

; 45   : }

  0001b	e8 00 00 00 00	 call	 ?Py_BadArgument@@YAPAU_object@@XZ ; Py_BadArgument
  00020	8b e5		 mov	 esp, ebp
  00022	5d		 pop	 ebp
  00023	c3		 ret	 0
$LN2@privateSho:

; 31   : 		return Py_BadArgument();
; 32   : 	int iSocketIndex;
; 33   : 	if (!PyTuple_GetInteger(poArgs, 1, &iSocketIndex))

  00024	8d 45 fc	 lea	 eax, DWORD PTR _iSocketIndex$[ebp]
  00027	50		 push	 eax
  00028	6a 01		 push	 1
  0002a	ff 75 0c	 push	 DWORD PTR _poArgs$[ebp]
  0002d	e8 00 00 00 00	 call	 ?PyTuple_GetInteger@@YA_NPAU_object@@HPAH@Z ; PyTuple_GetInteger
  00032	83 c4 0c	 add	 esp, 12			; 0000000cH
  00035	84 c0		 test	 al, al
  00037	74 e2		 je	 SHORT $LN10@privateSho

; 34   : 		return Py_BadArgument();
; 35   : 
; 36   : 	if (iSocketIndex >= ITEM_SOCKET_SLOT_MAX_NUM)

  00039	83 7d fc 03	 cmp	 DWORD PTR _iSocketIndex$[ebp], 3
  0003d	7c 0e		 jl	 SHORT $LN4@privateSho
$LN11@privateSho:

; 45   : }

  0003f	6a 00		 push	 0
  00041	e8 00 00 00 00	 call	 ?Py_BuildException@@YAPAU_object@@PBDZZ ; Py_BuildException
  00046	83 c4 04	 add	 esp, 4
  00049	8b e5		 mov	 esp, ebp
  0004b	5d		 pop	 ebp
  0004c	c3		 ret	 0
$LN4@privateSho:
; File C:\Anka2Project\Anka2Project\Source\Binary\source\eterBase\Singleton.h

; 26   : 		assert(ms_singleton);

  0004d	8b 0d 00 00 00
	00		 mov	 ecx, DWORD PTR ?ms_singleton@?$CSingleton@VCPythonPrivateShopSearch@@@@0PAVCPythonPrivateShopSearch@@A ; CSingleton<CPythonPrivateShopSearch>::ms_singleton
  00053	85 c9		 test	 ecx, ecx
  00055	75 1a		 jne	 SHORT $LN9@privateSho
  00057	6a 1a		 push	 26			; 0000001aH
  00059	68 00 00 00 00	 push	 OFFSET ??_C@_1IO@CAJLEEOI@?$AAC?$AA?3?$AA?2?$AAA?$AAn?$AAk?$AAa?$AA2?$AAP?$AAr?$AAo?$AAj?$AAe?$AAc?$AAt@
  0005e	68 00 00 00 00	 push	 OFFSET ??_C@_1BK@FMEHPMFE@?$AAm?$AAs?$AA_?$AAs?$AAi?$AAn?$AAg?$AAl?$AAe?$AAt?$AAo?$AAn@
  00063	e8 00 00 00 00	 call	 __wassert
  00068	8b 0d 00 00 00
	00		 mov	 ecx, DWORD PTR ?ms_singleton@?$CSingleton@VCPythonPrivateShopSearch@@@@0PAVCPythonPrivateShopSearch@@A ; CSingleton<CPythonPrivateShopSearch>::ms_singleton
  0006e	83 c4 0c	 add	 esp, 12			; 0000000cH
$LN9@privateSho:
; File C:\Anka2Project\Anka2Project\Source\Binary\source\UserInterface\PythonPrivateShopSearch.cpp

; 39   : 	if (!CPythonPrivateShopSearch::Instance().GetItemDataPtr(iSlotIndex, &pItemData))

  00071	8d 45 f4	 lea	 eax, DWORD PTR _pItemData$[ebp]
  00074	50		 push	 eax
  00075	ff 75 f8	 push	 DWORD PTR _iSlotIndex$[ebp]
  00078	e8 00 00 00 00	 call	 ?GetItemDataPtr@CPythonPrivateShopSearch@@QAEKKPAPAUpacket_offline_shop_item@@@Z ; CPythonPrivateShopSearch::GetItemDataPtr
  0007d	85 c0		 test	 eax, eax
  0007f	74 be		 je	 SHORT $LN11@privateSho

; 40   : 	{
; 41   : 		return Py_BuildException();
; 42   : 	}
; 43   : 
; 44   : 	return Py_BuildValue("i", pItemData->alSockets[iSocketIndex]);

  00081	8b 4d fc	 mov	 ecx, DWORD PTR _iSocketIndex$[ebp]
  00084	8b 45 f4	 mov	 eax, DWORD PTR _pItemData$[ebp]
  00087	ff 74 88 15	 push	 DWORD PTR [eax+ecx*4+21]
  0008b	68 00 00 00 00	 push	 OFFSET ??_C@_01KBJDNOO@i@
  00090	ff 15 00 00 00
	00		 call	 DWORD PTR __imp__Py_BuildValue
  00096	83 c4 08	 add	 esp, 8

; 45   : }

  00099	8b e5		 mov	 esp, ebp
  0009b	5d		 pop	 ebp
  0009c	c3		 ret	 0
?privateShopSearchGetSearchItemMetinSocket@@YAPAU_object@@PAU1@0@Z ENDP ; privateShopSearchGetSearchItemMetinSocket
_TEXT	ENDS
; Function compile flags: /Ogtp
; File C:\Anka2Project\Anka2Project\Source\Binary\source\UserInterface\PythonPrivateShopSearch.cpp
; File C:\Anka2Project\Anka2Project\Source\Binary\source\eterBase\Singleton.h
; File C:\Anka2Project\Anka2Project\Source\Binary\source\UserInterface\PythonPrivateShopSearch.cpp
;	COMDAT ?privateShopSearchGetSearchItemAttribute@@YAPAU_object@@PAU1@0@Z
_TEXT	SEGMENT
_pItemData$2 = -12					; size = 4
_iSlotIndex$ = -8					; size = 4
_iAttrSlotIndex$ = -4					; size = 4
_poSelf$ = 8						; size = 4
_poArgs$ = 12						; size = 4
?privateShopSearchGetSearchItemAttribute@@YAPAU_object@@PAU1@0@Z PROC ; privateShopSearchGetSearchItemAttribute, COMDAT

; 48   : {

  00000	55		 push	 ebp
  00001	8b ec		 mov	 ebp, esp
  00003	83 ec 0c	 sub	 esp, 12			; 0000000cH

; 49   : 	int iSlotIndex;
; 50   : 	if (!PyTuple_GetInteger(poArgs, 0, &iSlotIndex))

  00006	8d 45 f8	 lea	 eax, DWORD PTR _iSlotIndex$[ebp]
  00009	50		 push	 eax
  0000a	6a 00		 push	 0
  0000c	ff 75 0c	 push	 DWORD PTR _poArgs$[ebp]
  0000f	e8 00 00 00 00	 call	 ?PyTuple_GetInteger@@YA_NPAU_object@@HPAH@Z ; PyTuple_GetInteger
  00014	83 c4 0c	 add	 esp, 12			; 0000000cH
  00017	84 c0		 test	 al, al
  00019	75 0e		 jne	 SHORT $LN2@privateSho
$LN11@privateSho:

; 70   : }

  0001b	6a 00		 push	 0
  0001d	e8 00 00 00 00	 call	 ?Py_BuildException@@YAPAU_object@@PBDZZ ; Py_BuildException
  00022	83 c4 04	 add	 esp, 4
  00025	8b e5		 mov	 esp, ebp
  00027	5d		 pop	 ebp
  00028	c3		 ret	 0
$LN2@privateSho:

; 51   : 	{
; 52   : 		return Py_BuildException();
; 53   : 	}
; 54   : 	int iAttrSlotIndex;
; 55   : 	if (!PyTuple_GetInteger(poArgs, 1, &iAttrSlotIndex))

  00029	8d 45 fc	 lea	 eax, DWORD PTR _iAttrSlotIndex$[ebp]
  0002c	50		 push	 eax
  0002d	6a 01		 push	 1
  0002f	ff 75 0c	 push	 DWORD PTR _poArgs$[ebp]
  00032	e8 00 00 00 00	 call	 ?PyTuple_GetInteger@@YA_NPAU_object@@HPAH@Z ; PyTuple_GetInteger
  00037	83 c4 0c	 add	 esp, 12			; 0000000cH
  0003a	84 c0		 test	 al, al
  0003c	74 dd		 je	 SHORT $LN11@privateSho

; 56   : 	{
; 57   : 		return Py_BuildException();
; 58   : 	}
; 59   : 
; 60   : 	if (iAttrSlotIndex >= 0 && iAttrSlotIndex < ITEM_ATTRIBUTE_SLOT_MAX_NUM)

  0003e	83 7d fc 06	 cmp	 DWORD PTR _iAttrSlotIndex$[ebp], 6
  00042	77 5e		 ja	 SHORT $LN5@privateSho
; File C:\Anka2Project\Anka2Project\Source\Binary\source\eterBase\Singleton.h

; 26   : 		assert(ms_singleton);

  00044	8b 0d 00 00 00
	00		 mov	 ecx, DWORD PTR ?ms_singleton@?$CSingleton@VCPythonPrivateShopSearch@@@@0PAVCPythonPrivateShopSearch@@A ; CSingleton<CPythonPrivateShopSearch>::ms_singleton
  0004a	85 c9		 test	 ecx, ecx
  0004c	75 1a		 jne	 SHORT $LN9@privateSho
  0004e	6a 1a		 push	 26			; 0000001aH
  00050	68 00 00 00 00	 push	 OFFSET ??_C@_1IO@CAJLEEOI@?$AAC?$AA?3?$AA?2?$AAA?$AAn?$AAk?$AAa?$AA2?$AAP?$AAr?$AAo?$AAj?$AAe?$AAc?$AAt@
  00055	68 00 00 00 00	 push	 OFFSET ??_C@_1BK@FMEHPMFE@?$AAm?$AAs?$AA_?$AAs?$AAi?$AAn?$AAg?$AAl?$AAe?$AAt?$AAo?$AAn@
  0005a	e8 00 00 00 00	 call	 __wassert
  0005f	8b 0d 00 00 00
	00		 mov	 ecx, DWORD PTR ?ms_singleton@?$CSingleton@VCPythonPrivateShopSearch@@@@0PAVCPythonPrivateShopSearch@@A ; CSingleton<CPythonPrivateShopSearch>::ms_singleton
  00065	83 c4 0c	 add	 esp, 12			; 0000000cH
$LN9@privateSho:
; File C:\Anka2Project\Anka2Project\Source\Binary\source\UserInterface\PythonPrivateShopSearch.cpp

; 63   : 		if (CPythonPrivateShopSearch::Instance().GetItemDataPtr(iSlotIndex, &pItemData))

  00068	8d 45 f4	 lea	 eax, DWORD PTR _pItemData$2[ebp]
  0006b	50		 push	 eax
  0006c	ff 75 f8	 push	 DWORD PTR _iSlotIndex$[ebp]
  0006f	e8 00 00 00 00	 call	 ?GetItemDataPtr@CPythonPrivateShopSearch@@QAEKKPAPAUpacket_offline_shop_item@@@Z ; CPythonPrivateShopSearch::GetItemDataPtr
  00074	85 c0		 test	 eax, eax
  00076	74 2a		 je	 SHORT $LN5@privateSho

; 64   : 		{
; 65   : 			return Py_BuildValue("ii", pItemData->aAttr[iAttrSlotIndex].bType, pItemData->aAttr[iAttrSlotIndex].sValue);

  00078	8b 4d fc	 mov	 ecx, DWORD PTR _iAttrSlotIndex$[ebp]
  0007b	8b 55 f4	 mov	 edx, DWORD PTR _pItemData$2[ebp]
  0007e	8d 04 4a	 lea	 eax, DWORD PTR [edx+ecx*2]
  00081	0f bf 44 01 22	 movsx	 eax, WORD PTR [ecx+eax+34]
  00086	50		 push	 eax
  00087	8d 04 4a	 lea	 eax, DWORD PTR [edx+ecx*2]
  0008a	0f b6 44 01 21	 movzx	 eax, BYTE PTR [ecx+eax+33]
  0008f	50		 push	 eax

; 70   : }

  00090	68 00 00 00 00	 push	 OFFSET ??_C@_02PDIHAGKM@ii@
  00095	ff 15 00 00 00
	00		 call	 DWORD PTR __imp__Py_BuildValue
  0009b	83 c4 0c	 add	 esp, 12			; 0000000cH
  0009e	8b e5		 mov	 esp, ebp
  000a0	5d		 pop	 ebp
  000a1	c3		 ret	 0
$LN5@privateSho:

; 66   : 		}
; 67   : 	}
; 68   : 
; 69   : 	return Py_BuildValue("ii", 0, 0);

  000a2	6a 00		 push	 0
  000a4	6a 00		 push	 0

; 70   : }

  000a6	68 00 00 00 00	 push	 OFFSET ??_C@_02PDIHAGKM@ii@
  000ab	ff 15 00 00 00
	00		 call	 DWORD PTR __imp__Py_BuildValue
  000b1	83 c4 0c	 add	 esp, 12			; 0000000cH
  000b4	8b e5		 mov	 esp, ebp
  000b6	5d		 pop	 ebp
  000b7	c3		 ret	 0
?privateShopSearchGetSearchItemAttribute@@YAPAU_object@@PAU1@0@Z ENDP ; privateShopSearchGetSearchItemAttribute
_TEXT	ENDS
; Function compile flags: /Ogtp
; File C:\Anka2Project\Anka2Project\Source\Binary\source\UserInterface\PythonPrivateShopSearch.cpp
; File C:\Anka2Project\Anka2Project\Source\Binary\source\eterBase\Singleton.h
; File C:\Program Files\Microsoft Visual Studio\2022\Community\VC\Tools\MSVC\14.44.35207\include\vector
; File C:\Anka2Project\Anka2Project\Source\Binary\source\UserInterface\PythonPrivateShopSearch.cpp
;	COMDAT ?privateShopSearchGetItemCount@@YAPAU_object@@PAU1@0@Z
_TEXT	SEGMENT
_poSelf$ = 8						; size = 4
_poArgs$ = 12						; size = 4
?privateShopSearchGetItemCount@@YAPAU_object@@PAU1@0@Z PROC ; privateShopSearchGetItemCount, COMDAT
; File C:\Anka2Project\Anka2Project\Source\Binary\source\eterBase\Singleton.h

; 26   : 		assert(ms_singleton);

  00000	a1 00 00 00 00	 mov	 eax, DWORD PTR ?ms_singleton@?$CSingleton@VCPythonPrivateShopSearch@@@@0PAVCPythonPrivateShopSearch@@A ; CSingleton<CPythonPrivateShopSearch>::ms_singleton
  00005	85 c0		 test	 eax, eax
  00007	75 19		 jne	 SHORT $LN5@privateSho
  00009	6a 1a		 push	 26			; 0000001aH
  0000b	68 00 00 00 00	 push	 OFFSET ??_C@_1IO@CAJLEEOI@?$AAC?$AA?3?$AA?2?$AAA?$AAn?$AAk?$AAa?$AA2?$AAP?$AAr?$AAo?$AAj?$AAe?$AAc?$AAt@
  00010	68 00 00 00 00	 push	 OFFSET ??_C@_1BK@FMEHPMFE@?$AAm?$AAs?$AA_?$AAs?$AAi?$AAn?$AAg?$AAl?$AAe?$AAt?$AAo?$AAn@
  00015	e8 00 00 00 00	 call	 __wassert
  0001a	a1 00 00 00 00	 mov	 eax, DWORD PTR ?ms_singleton@?$CSingleton@VCPythonPrivateShopSearch@@@@0PAVCPythonPrivateShopSearch@@A ; CSingleton<CPythonPrivateShopSearch>::ms_singleton
  0001f	83 c4 0c	 add	 esp, 12			; 0000000cH
$LN5@privateSho:
; File C:\Program Files\Microsoft Visual Studio\2022\Community\VC\Tools\MSVC\14.44.35207\include\vector

; 1915 :         return static_cast<size_type>(_My_data._Mylast - _My_data._Myfirst);

  00022	8b 48 08	 mov	 ecx, DWORD PTR [eax+8]
  00025	2b 48 04	 sub	 ecx, DWORD PTR [eax+4]
  00028	b8 93 24 49 92	 mov	 eax, -1840700269	; 92492493H
  0002d	f7 e9		 imul	 ecx
  0002f	03 d1		 add	 edx, ecx
  00031	c1 fa 06	 sar	 edx, 6
  00034	8b c2		 mov	 eax, edx
  00036	c1 e8 1f	 shr	 eax, 31			; 0000001fH
  00039	03 c2		 add	 eax, edx
; File C:\Anka2Project\Anka2Project\Source\Binary\source\UserInterface\PythonPrivateShopSearch.cpp

; 74   : 	return Py_BuildValue("i", CPythonPrivateShopSearch::Instance().GetItemDataCount());

  0003b	50		 push	 eax
  0003c	68 00 00 00 00	 push	 OFFSET ??_C@_01KBJDNOO@i@
  00041	ff 15 00 00 00
	00		 call	 DWORD PTR __imp__Py_BuildValue
  00047	83 c4 08	 add	 esp, 8

; 75   : }

  0004a	c3		 ret	 0
?privateShopSearchGetItemCount@@YAPAU_object@@PAU1@0@Z ENDP ; privateShopSearchGetItemCount
_TEXT	ENDS
; Function compile flags: /Ogtp
; File C:\Anka2Project\Anka2Project\Source\Binary\source\UserInterface\PythonPrivateShopSearch.cpp
; File C:\Anka2Project\Anka2Project\Source\Binary\source\eterBase\Singleton.h
; File C:\Anka2Project\Anka2Project\Source\Binary\source\UserInterface\PythonPrivateShopSearch.cpp
;	COMDAT ?privateShopSearchGetSearchItemCount@@YAPAU_object@@PAU1@0@Z
_TEXT	SEGMENT
_pInstance$ = -8					; size = 4
_ipos$ = -4						; size = 4
_poSelf$ = 8						; size = 4
_poArgs$ = 12						; size = 4
?privateShopSearchGetSearchItemCount@@YAPAU_object@@PAU1@0@Z PROC ; privateShopSearchGetSearchItemCount, COMDAT

; 78   : {

  00000	55		 push	 ebp
  00001	8b ec		 mov	 ebp, esp
  00003	83 ec 08	 sub	 esp, 8

; 79   : 	int ipos;
; 80   : 	if (!PyTuple_GetInteger(poArgs, 0, &ipos))

  00006	8d 45 fc	 lea	 eax, DWORD PTR _ipos$[ebp]
  00009	50		 push	 eax
  0000a	6a 00		 push	 0
  0000c	ff 75 0c	 push	 DWORD PTR _poArgs$[ebp]
  0000f	e8 00 00 00 00	 call	 ?PyTuple_GetInteger@@YA_NPAU_object@@HPAH@Z ; PyTuple_GetInteger
  00014	83 c4 0c	 add	 esp, 12			; 0000000cH
  00017	84 c0		 test	 al, al
  00019	75 09		 jne	 SHORT $LN2@privateSho

; 81   : 	{
; 82   : 		return Py_BadArgument();

  0001b	e8 00 00 00 00	 call	 ?Py_BadArgument@@YAPAU_object@@XZ ; Py_BadArgument

; 92   : }

  00020	8b e5		 mov	 esp, ebp
  00022	5d		 pop	 ebp
  00023	c3		 ret	 0
$LN2@privateSho:
; File C:\Anka2Project\Anka2Project\Source\Binary\source\eterBase\Singleton.h

; 26   : 		assert(ms_singleton);

  00024	8b 0d 00 00 00
	00		 mov	 ecx, DWORD PTR ?ms_singleton@?$CSingleton@VCPythonPrivateShopSearch@@@@0PAVCPythonPrivateShopSearch@@A ; CSingleton<CPythonPrivateShopSearch>::ms_singleton
  0002a	85 c9		 test	 ecx, ecx
  0002c	75 1a		 jne	 SHORT $LN7@privateSho
  0002e	6a 1a		 push	 26			; 0000001aH
  00030	68 00 00 00 00	 push	 OFFSET ??_C@_1IO@CAJLEEOI@?$AAC?$AA?3?$AA?2?$AAA?$AAn?$AAk?$AAa?$AA2?$AAP?$AAr?$AAo?$AAj?$AAe?$AAc?$AAt@
  00035	68 00 00 00 00	 push	 OFFSET ??_C@_1BK@FMEHPMFE@?$AAm?$AAs?$AA_?$AAs?$AAi?$AAn?$AAg?$AAl?$AAe?$AAt?$AAo?$AAn@
  0003a	e8 00 00 00 00	 call	 __wassert
  0003f	8b 0d 00 00 00
	00		 mov	 ecx, DWORD PTR ?ms_singleton@?$CSingleton@VCPythonPrivateShopSearch@@@@0PAVCPythonPrivateShopSearch@@A ; CSingleton<CPythonPrivateShopSearch>::ms_singleton
  00045	83 c4 0c	 add	 esp, 12			; 0000000cH
$LN7@privateSho:
; File C:\Anka2Project\Anka2Project\Source\Binary\source\UserInterface\PythonPrivateShopSearch.cpp

; 86   : 	if (!CPythonPrivateShopSearch::Instance().GetItemDataPtr(ipos, &pInstance))

  00048	8d 45 f8	 lea	 eax, DWORD PTR _pInstance$[ebp]
  0004b	50		 push	 eax
  0004c	ff 75 fc	 push	 DWORD PTR _ipos$[ebp]
  0004f	e8 00 00 00 00	 call	 ?GetItemDataPtr@CPythonPrivateShopSearch@@QAEKKPAPAUpacket_offline_shop_item@@@Z ; CPythonPrivateShopSearch::GetItemDataPtr
  00054	85 c0		 test	 eax, eax
  00056	75 0d		 jne	 SHORT $LN3@privateSho

; 87   : 	{
; 88   : 		return Py_BuildException();

  00058	50		 push	 eax
  00059	e8 00 00 00 00	 call	 ?Py_BuildException@@YAPAU_object@@PBDZZ ; Py_BuildException
  0005e	83 c4 04	 add	 esp, 4

; 92   : }

  00061	8b e5		 mov	 esp, ebp
  00063	5d		 pop	 ebp
  00064	c3		 ret	 0
$LN3@privateSho:

; 89   : 	}
; 90   : 
; 91   : 	return Py_BuildValue("i", pInstance->count);

  00065	8b 45 f8	 mov	 eax, DWORD PTR _pInstance$[ebp]
  00068	ff 70 10	 push	 DWORD PTR [eax+16]
  0006b	68 00 00 00 00	 push	 OFFSET ??_C@_01KBJDNOO@i@
  00070	ff 15 00 00 00
	00		 call	 DWORD PTR __imp__Py_BuildValue
  00076	83 c4 08	 add	 esp, 8

; 92   : }

  00079	8b e5		 mov	 esp, ebp
  0007b	5d		 pop	 ebp
  0007c	c3		 ret	 0
?privateShopSearchGetSearchItemCount@@YAPAU_object@@PAU1@0@Z ENDP ; privateShopSearchGetSearchItemCount
_TEXT	ENDS
; Function compile flags: /Ogtp
; File C:\Anka2Project\Anka2Project\Source\Binary\source\UserInterface\PythonPrivateShopSearch.cpp
; File C:\Anka2Project\Anka2Project\Source\Binary\source\eterBase\Singleton.h
; File C:\Anka2Project\Anka2Project\Source\Binary\source\UserInterface\PythonPrivateShopSearch.cpp
;	COMDAT ?privateShopSearchGetSearchItemPrice@@YAPAU_object@@PAU1@0@Z
_TEXT	SEGMENT
_pInstance$ = -8					; size = 4
_ipos$ = -4						; size = 4
_poSelf$ = 8						; size = 4
_poArgs$ = 12						; size = 4
?privateShopSearchGetSearchItemPrice@@YAPAU_object@@PAU1@0@Z PROC ; privateShopSearchGetSearchItemPrice, COMDAT

; 95   : {

  00000	55		 push	 ebp
  00001	8b ec		 mov	 ebp, esp
  00003	83 ec 08	 sub	 esp, 8

; 96   : 	int ipos;
; 97   : 	if (!PyTuple_GetInteger(poArgs, 0, &ipos))

  00006	8d 45 fc	 lea	 eax, DWORD PTR _ipos$[ebp]
  00009	50		 push	 eax
  0000a	6a 00		 push	 0
  0000c	ff 75 0c	 push	 DWORD PTR _poArgs$[ebp]
  0000f	e8 00 00 00 00	 call	 ?PyTuple_GetInteger@@YA_NPAU_object@@HPAH@Z ; PyTuple_GetInteger
  00014	83 c4 0c	 add	 esp, 12			; 0000000cH
  00017	84 c0		 test	 al, al
  00019	75 09		 jne	 SHORT $LN2@privateSho

; 98   : 	{
; 99   : 		return Py_BadArgument();

  0001b	e8 00 00 00 00	 call	 ?Py_BadArgument@@YAPAU_object@@XZ ; Py_BadArgument

; 109  : }

  00020	8b e5		 mov	 esp, ebp
  00022	5d		 pop	 ebp
  00023	c3		 ret	 0
$LN2@privateSho:
; File C:\Anka2Project\Anka2Project\Source\Binary\source\eterBase\Singleton.h

; 26   : 		assert(ms_singleton);

  00024	8b 0d 00 00 00
	00		 mov	 ecx, DWORD PTR ?ms_singleton@?$CSingleton@VCPythonPrivateShopSearch@@@@0PAVCPythonPrivateShopSearch@@A ; CSingleton<CPythonPrivateShopSearch>::ms_singleton
  0002a	85 c9		 test	 ecx, ecx
  0002c	75 1a		 jne	 SHORT $LN7@privateSho
  0002e	6a 1a		 push	 26			; 0000001aH
  00030	68 00 00 00 00	 push	 OFFSET ??_C@_1IO@CAJLEEOI@?$AAC?$AA?3?$AA?2?$AAA?$AAn?$AAk?$AAa?$AA2?$AAP?$AAr?$AAo?$AAj?$AAe?$AAc?$AAt@
  00035	68 00 00 00 00	 push	 OFFSET ??_C@_1BK@FMEHPMFE@?$AAm?$AAs?$AA_?$AAs?$AAi?$AAn?$AAg?$AAl?$AAe?$AAt?$AAo?$AAn@
  0003a	e8 00 00 00 00	 call	 __wassert
  0003f	8b 0d 00 00 00
	00		 mov	 ecx, DWORD PTR ?ms_singleton@?$CSingleton@VCPythonPrivateShopSearch@@@@0PAVCPythonPrivateShopSearch@@A ; CSingleton<CPythonPrivateShopSearch>::ms_singleton
  00045	83 c4 0c	 add	 esp, 12			; 0000000cH
$LN7@privateSho:
; File C:\Anka2Project\Anka2Project\Source\Binary\source\UserInterface\PythonPrivateShopSearch.cpp

; 103  : 	if (!CPythonPrivateShopSearch::Instance().GetItemDataPtr(ipos, &pInstance))

  00048	8d 45 f8	 lea	 eax, DWORD PTR _pInstance$[ebp]
  0004b	50		 push	 eax
  0004c	ff 75 fc	 push	 DWORD PTR _ipos$[ebp]
  0004f	e8 00 00 00 00	 call	 ?GetItemDataPtr@CPythonPrivateShopSearch@@QAEKKPAPAUpacket_offline_shop_item@@@Z ; CPythonPrivateShopSearch::GetItemDataPtr
  00054	85 c0		 test	 eax, eax
  00056	75 0d		 jne	 SHORT $LN3@privateSho

; 104  : 	{
; 105  : 		return Py_BuildException();

  00058	50		 push	 eax
  00059	e8 00 00 00 00	 call	 ?Py_BuildException@@YAPAU_object@@PBDZZ ; Py_BuildException
  0005e	83 c4 04	 add	 esp, 4

; 109  : }

  00061	8b e5		 mov	 esp, ebp
  00063	5d		 pop	 ebp
  00064	c3		 ret	 0
$LN3@privateSho:

; 106  : 	}
; 107  : 
; 108  : 	return PyLong_FromLongLong(pInstance->price);

  00065	8b 45 f8	 mov	 eax, DWORD PTR _pInstance$[ebp]
  00068	ff 70 0c	 push	 DWORD PTR [eax+12]
  0006b	ff 70 08	 push	 DWORD PTR [eax+8]
  0006e	ff 15 00 00 00
	00		 call	 DWORD PTR __imp__PyLong_FromLongLong
  00074	83 c4 08	 add	 esp, 8

; 109  : }

  00077	8b e5		 mov	 esp, ebp
  00079	5d		 pop	 ebp
  0007a	c3		 ret	 0
?privateShopSearchGetSearchItemPrice@@YAPAU_object@@PAU1@0@Z ENDP ; privateShopSearchGetSearchItemPrice
_TEXT	ENDS
; Function compile flags: /Ogtp
; File C:\Anka2Project\Anka2Project\Source\Binary\source\UserInterface\PythonPrivateShopSearch.cpp
; File C:\Anka2Project\Anka2Project\Source\Binary\source\eterBase\Singleton.h
; File C:\Anka2Project\Anka2Project\Source\Binary\source\UserInterface\PythonPrivateShopSearch.cpp
;	COMDAT ?privateShopSearchGetSearchItemShopVID@@YAPAU_object@@PAU1@0@Z
_TEXT	SEGMENT
_pInstance$ = -8					; size = 4
_ipos$ = -4						; size = 4
_poSelf$ = 8						; size = 4
_poArgs$ = 12						; size = 4
?privateShopSearchGetSearchItemShopVID@@YAPAU_object@@PAU1@0@Z PROC ; privateShopSearchGetSearchItemShopVID, COMDAT

; 112  : {

  00000	55		 push	 ebp
  00001	8b ec		 mov	 ebp, esp
  00003	83 ec 08	 sub	 esp, 8

; 113  : 	int ipos;
; 114  : 	if (!PyTuple_GetInteger(poArgs, 0, &ipos))

  00006	8d 45 fc	 lea	 eax, DWORD PTR _ipos$[ebp]
  00009	50		 push	 eax
  0000a	6a 00		 push	 0
  0000c	ff 75 0c	 push	 DWORD PTR _poArgs$[ebp]
  0000f	e8 00 00 00 00	 call	 ?PyTuple_GetInteger@@YA_NPAU_object@@HPAH@Z ; PyTuple_GetInteger
  00014	83 c4 0c	 add	 esp, 12			; 0000000cH
  00017	84 c0		 test	 al, al
  00019	75 09		 jne	 SHORT $LN2@privateSho

; 115  : 	{
; 116  : 		return Py_BadArgument();

  0001b	e8 00 00 00 00	 call	 ?Py_BadArgument@@YAPAU_object@@XZ ; Py_BadArgument

; 126  : }

  00020	8b e5		 mov	 esp, ebp
  00022	5d		 pop	 ebp
  00023	c3		 ret	 0
$LN2@privateSho:
; File C:\Anka2Project\Anka2Project\Source\Binary\source\eterBase\Singleton.h

; 26   : 		assert(ms_singleton);

  00024	8b 0d 00 00 00
	00		 mov	 ecx, DWORD PTR ?ms_singleton@?$CSingleton@VCPythonPrivateShopSearch@@@@0PAVCPythonPrivateShopSearch@@A ; CSingleton<CPythonPrivateShopSearch>::ms_singleton
  0002a	85 c9		 test	 ecx, ecx
  0002c	75 1a		 jne	 SHORT $LN7@privateSho
  0002e	6a 1a		 push	 26			; 0000001aH
  00030	68 00 00 00 00	 push	 OFFSET ??_C@_1IO@CAJLEEOI@?$AAC?$AA?3?$AA?2?$AAA?$AAn?$AAk?$AAa?$AA2?$AAP?$AAr?$AAo?$AAj?$AAe?$AAc?$AAt@
  00035	68 00 00 00 00	 push	 OFFSET ??_C@_1BK@FMEHPMFE@?$AAm?$AAs?$AA_?$AAs?$AAi?$AAn?$AAg?$AAl?$AAe?$AAt?$AAo?$AAn@
  0003a	e8 00 00 00 00	 call	 __wassert
  0003f	8b 0d 00 00 00
	00		 mov	 ecx, DWORD PTR ?ms_singleton@?$CSingleton@VCPythonPrivateShopSearch@@@@0PAVCPythonPrivateShopSearch@@A ; CSingleton<CPythonPrivateShopSearch>::ms_singleton
  00045	83 c4 0c	 add	 esp, 12			; 0000000cH
$LN7@privateSho:
; File C:\Anka2Project\Anka2Project\Source\Binary\source\UserInterface\PythonPrivateShopSearch.cpp

; 120  : 	if (!CPythonPrivateShopSearch::Instance().GetItemDataPtr(ipos, &pInstance))

  00048	8d 45 f8	 lea	 eax, DWORD PTR _pInstance$[ebp]
  0004b	50		 push	 eax
  0004c	ff 75 fc	 push	 DWORD PTR _ipos$[ebp]
  0004f	e8 00 00 00 00	 call	 ?GetItemDataPtr@CPythonPrivateShopSearch@@QAEKKPAPAUpacket_offline_shop_item@@@Z ; CPythonPrivateShopSearch::GetItemDataPtr
  00054	85 c0		 test	 eax, eax
  00056	75 0d		 jne	 SHORT $LN3@privateSho

; 121  : 	{
; 122  : 		return Py_BuildException();

  00058	50		 push	 eax
  00059	e8 00 00 00 00	 call	 ?Py_BuildException@@YAPAU_object@@PBDZZ ; Py_BuildException
  0005e	83 c4 04	 add	 esp, 4

; 126  : }

  00061	8b e5		 mov	 esp, ebp
  00063	5d		 pop	 ebp
  00064	c3		 ret	 0
$LN3@privateSho:

; 123  : 	}
; 124  : 
; 125  : 	return Py_BuildValue("i", pInstance->owner_id);

  00065	8b 45 f8	 mov	 eax, DWORD PTR _pInstance$[ebp]
  00068	ff 70 6c	 push	 DWORD PTR [eax+108]
  0006b	68 00 00 00 00	 push	 OFFSET ??_C@_01KBJDNOO@i@
  00070	ff 15 00 00 00
	00		 call	 DWORD PTR __imp__Py_BuildValue
  00076	83 c4 08	 add	 esp, 8

; 126  : }

  00079	8b e5		 mov	 esp, ebp
  0007b	5d		 pop	 ebp
  0007c	c3		 ret	 0
?privateShopSearchGetSearchItemShopVID@@YAPAU_object@@PAU1@0@Z ENDP ; privateShopSearchGetSearchItemShopVID
_TEXT	ENDS
; Function compile flags: /Ogtp
; File C:\Anka2Project\Anka2Project\Source\Binary\source\UserInterface\PythonPrivateShopSearch.cpp
; File C:\Anka2Project\Anka2Project\Source\Binary\source\eterBase\Singleton.h
; File C:\Anka2Project\Anka2Project\Source\Binary\source\UserInterface\PythonPrivateShopSearch.cpp
;	COMDAT ?privateShopSearchGetSearchItemPos@@YAPAU_object@@PAU1@0@Z
_TEXT	SEGMENT
_pInstance$ = -8					; size = 4
_ipos$ = -4						; size = 4
_poSelf$ = 8						; size = 4
_poArgs$ = 12						; size = 4
?privateShopSearchGetSearchItemPos@@YAPAU_object@@PAU1@0@Z PROC ; privateShopSearchGetSearchItemPos, COMDAT

; 129  : {

  00000	55		 push	 ebp
  00001	8b ec		 mov	 ebp, esp
  00003	83 ec 08	 sub	 esp, 8

; 130  : 	int ipos;
; 131  : 	if (!PyTuple_GetInteger(poArgs, 0, &ipos))

  00006	8d 45 fc	 lea	 eax, DWORD PTR _ipos$[ebp]
  00009	50		 push	 eax
  0000a	6a 00		 push	 0
  0000c	ff 75 0c	 push	 DWORD PTR _poArgs$[ebp]
  0000f	e8 00 00 00 00	 call	 ?PyTuple_GetInteger@@YA_NPAU_object@@HPAH@Z ; PyTuple_GetInteger
  00014	83 c4 0c	 add	 esp, 12			; 0000000cH
  00017	84 c0		 test	 al, al
  00019	75 09		 jne	 SHORT $LN2@privateSho

; 132  : 	{
; 133  : 		return Py_BadArgument();

  0001b	e8 00 00 00 00	 call	 ?Py_BadArgument@@YAPAU_object@@XZ ; Py_BadArgument

; 143  : }

  00020	8b e5		 mov	 esp, ebp
  00022	5d		 pop	 ebp
  00023	c3		 ret	 0
$LN2@privateSho:
; File C:\Anka2Project\Anka2Project\Source\Binary\source\eterBase\Singleton.h

; 26   : 		assert(ms_singleton);

  00024	8b 0d 00 00 00
	00		 mov	 ecx, DWORD PTR ?ms_singleton@?$CSingleton@VCPythonPrivateShopSearch@@@@0PAVCPythonPrivateShopSearch@@A ; CSingleton<CPythonPrivateShopSearch>::ms_singleton
  0002a	85 c9		 test	 ecx, ecx
  0002c	75 1a		 jne	 SHORT $LN7@privateSho
  0002e	6a 1a		 push	 26			; 0000001aH
  00030	68 00 00 00 00	 push	 OFFSET ??_C@_1IO@CAJLEEOI@?$AAC?$AA?3?$AA?2?$AAA?$AAn?$AAk?$AAa?$AA2?$AAP?$AAr?$AAo?$AAj?$AAe?$AAc?$AAt@
  00035	68 00 00 00 00	 push	 OFFSET ??_C@_1BK@FMEHPMFE@?$AAm?$AAs?$AA_?$AAs?$AAi?$AAn?$AAg?$AAl?$AAe?$AAt?$AAo?$AAn@
  0003a	e8 00 00 00 00	 call	 __wassert
  0003f	8b 0d 00 00 00
	00		 mov	 ecx, DWORD PTR ?ms_singleton@?$CSingleton@VCPythonPrivateShopSearch@@@@0PAVCPythonPrivateShopSearch@@A ; CSingleton<CPythonPrivateShopSearch>::ms_singleton
  00045	83 c4 0c	 add	 esp, 12			; 0000000cH
$LN7@privateSho:
; File C:\Anka2Project\Anka2Project\Source\Binary\source\UserInterface\PythonPrivateShopSearch.cpp

; 137  : 	if (!CPythonPrivateShopSearch::Instance().GetItemDataPtr(ipos, &pInstance))

  00048	8d 45 f8	 lea	 eax, DWORD PTR _pInstance$[ebp]
  0004b	50		 push	 eax
  0004c	ff 75 fc	 push	 DWORD PTR _ipos$[ebp]
  0004f	e8 00 00 00 00	 call	 ?GetItemDataPtr@CPythonPrivateShopSearch@@QAEKKPAPAUpacket_offline_shop_item@@@Z ; CPythonPrivateShopSearch::GetItemDataPtr
  00054	85 c0		 test	 eax, eax
  00056	75 0d		 jne	 SHORT $LN3@privateSho

; 138  : 	{
; 139  : 		return Py_BuildException();

  00058	50		 push	 eax
  00059	e8 00 00 00 00	 call	 ?Py_BuildException@@YAPAU_object@@PBDZZ ; Py_BuildException
  0005e	83 c4 04	 add	 esp, 4

; 143  : }

  00061	8b e5		 mov	 esp, ebp
  00063	5d		 pop	 ebp
  00064	c3		 ret	 0
$LN3@privateSho:

; 140  : 	}
; 141  : 
; 142  : 	return Py_BuildValue("i", pInstance->display_pos);

  00065	8b 45 f8	 mov	 eax, DWORD PTR _pInstance$[ebp]
  00068	0f b6 40 14	 movzx	 eax, BYTE PTR [eax+20]
  0006c	50		 push	 eax
  0006d	68 00 00 00 00	 push	 OFFSET ??_C@_01KBJDNOO@i@
  00072	ff 15 00 00 00
	00		 call	 DWORD PTR __imp__Py_BuildValue
  00078	83 c4 08	 add	 esp, 8

; 143  : }

  0007b	8b e5		 mov	 esp, ebp
  0007d	5d		 pop	 ebp
  0007e	c3		 ret	 0
?privateShopSearchGetSearchItemPos@@YAPAU_object@@PAU1@0@Z ENDP ; privateShopSearchGetSearchItemPos
_TEXT	ENDS
; Function compile flags: /Ogtp
; File C:\Anka2Project\Anka2Project\Source\Binary\source\UserInterface\PythonPrivateShopSearch.cpp
; File C:\Anka2Project\Anka2Project\Source\Binary\source\eterBase\Singleton.h
; File C:\Anka2Project\Anka2Project\Source\Binary\source\UserInterface\PythonPrivateShopSearch.cpp
;	COMDAT ?privateShopSearchGetSearchItemVnum@@YAPAU_object@@PAU1@0@Z
_TEXT	SEGMENT
_pInstance$ = -8					; size = 4
_ipos$ = -4						; size = 4
_poSelf$ = 8						; size = 4
_poArgs$ = 12						; size = 4
?privateShopSearchGetSearchItemVnum@@YAPAU_object@@PAU1@0@Z PROC ; privateShopSearchGetSearchItemVnum, COMDAT

; 146  : {

  00000	55		 push	 ebp
  00001	8b ec		 mov	 ebp, esp
  00003	83 ec 08	 sub	 esp, 8

; 147  : 	int ipos;
; 148  : 	if (!PyTuple_GetInteger(poArgs, 0, &ipos))

  00006	8d 45 fc	 lea	 eax, DWORD PTR _ipos$[ebp]
  00009	50		 push	 eax
  0000a	6a 00		 push	 0
  0000c	ff 75 0c	 push	 DWORD PTR _poArgs$[ebp]
  0000f	e8 00 00 00 00	 call	 ?PyTuple_GetInteger@@YA_NPAU_object@@HPAH@Z ; PyTuple_GetInteger
  00014	83 c4 0c	 add	 esp, 12			; 0000000cH
  00017	84 c0		 test	 al, al
  00019	75 09		 jne	 SHORT $LN2@privateSho

; 149  : 	{
; 150  : 		return Py_BadArgument();

  0001b	e8 00 00 00 00	 call	 ?Py_BadArgument@@YAPAU_object@@XZ ; Py_BadArgument

; 160  : }

  00020	8b e5		 mov	 esp, ebp
  00022	5d		 pop	 ebp
  00023	c3		 ret	 0
$LN2@privateSho:
; File C:\Anka2Project\Anka2Project\Source\Binary\source\eterBase\Singleton.h

; 26   : 		assert(ms_singleton);

  00024	8b 0d 00 00 00
	00		 mov	 ecx, DWORD PTR ?ms_singleton@?$CSingleton@VCPythonPrivateShopSearch@@@@0PAVCPythonPrivateShopSearch@@A ; CSingleton<CPythonPrivateShopSearch>::ms_singleton
  0002a	85 c9		 test	 ecx, ecx
  0002c	75 1a		 jne	 SHORT $LN7@privateSho
  0002e	6a 1a		 push	 26			; 0000001aH
  00030	68 00 00 00 00	 push	 OFFSET ??_C@_1IO@CAJLEEOI@?$AAC?$AA?3?$AA?2?$AAA?$AAn?$AAk?$AAa?$AA2?$AAP?$AAr?$AAo?$AAj?$AAe?$AAc?$AAt@
  00035	68 00 00 00 00	 push	 OFFSET ??_C@_1BK@FMEHPMFE@?$AAm?$AAs?$AA_?$AAs?$AAi?$AAn?$AAg?$AAl?$AAe?$AAt?$AAo?$AAn@
  0003a	e8 00 00 00 00	 call	 __wassert
  0003f	8b 0d 00 00 00
	00		 mov	 ecx, DWORD PTR ?ms_singleton@?$CSingleton@VCPythonPrivateShopSearch@@@@0PAVCPythonPrivateShopSearch@@A ; CSingleton<CPythonPrivateShopSearch>::ms_singleton
  00045	83 c4 0c	 add	 esp, 12			; 0000000cH
$LN7@privateSho:
; File C:\Anka2Project\Anka2Project\Source\Binary\source\UserInterface\PythonPrivateShopSearch.cpp

; 154  : 	if (!CPythonPrivateShopSearch::Instance().GetItemDataPtr(ipos, &pInstance))

  00048	8d 45 f8	 lea	 eax, DWORD PTR _pInstance$[ebp]
  0004b	50		 push	 eax
  0004c	ff 75 fc	 push	 DWORD PTR _ipos$[ebp]
  0004f	e8 00 00 00 00	 call	 ?GetItemDataPtr@CPythonPrivateShopSearch@@QAEKKPAPAUpacket_offline_shop_item@@@Z ; CPythonPrivateShopSearch::GetItemDataPtr
  00054	85 c0		 test	 eax, eax
  00056	75 0d		 jne	 SHORT $LN3@privateSho

; 155  : 	{
; 156  : 		return Py_BuildException();

  00058	50		 push	 eax
  00059	e8 00 00 00 00	 call	 ?Py_BuildException@@YAPAU_object@@PBDZZ ; Py_BuildException
  0005e	83 c4 04	 add	 esp, 4

; 160  : }

  00061	8b e5		 mov	 esp, ebp
  00063	5d		 pop	 ebp
  00064	c3		 ret	 0
$LN3@privateSho:

; 157  : 	}
; 158  : 
; 159  : 	return Py_BuildValue("i", pInstance->vnum);

  00065	8b 45 f8	 mov	 eax, DWORD PTR _pInstance$[ebp]
  00068	ff 70 04	 push	 DWORD PTR [eax+4]
  0006b	68 00 00 00 00	 push	 OFFSET ??_C@_01KBJDNOO@i@
  00070	ff 15 00 00 00
	00		 call	 DWORD PTR __imp__Py_BuildValue
  00076	83 c4 08	 add	 esp, 8

; 160  : }

  00079	8b e5		 mov	 esp, ebp
  0007b	5d		 pop	 ebp
  0007c	c3		 ret	 0
?privateShopSearchGetSearchItemVnum@@YAPAU_object@@PAU1@0@Z ENDP ; privateShopSearchGetSearchItemVnum
_TEXT	ENDS
; Function compile flags: /Ogtp
; File C:\Anka2Project\Anka2Project\Source\Binary\source\UserInterface\PythonPrivateShopSearch.cpp
; File C:\Anka2Project\Anka2Project\Source\Binary\source\eterBase\Singleton.h
; File C:\Anka2Project\Anka2Project\Source\Binary\source\UserInterface\PythonPrivateShopSearch.cpp
;	COMDAT ?privateShopSearchGetSearchItemID@@YAPAU_object@@PAU1@0@Z
_TEXT	SEGMENT
_pInstance$ = -8					; size = 4
_ipos$ = -4						; size = 4
_poSelf$ = 8						; size = 4
_poArgs$ = 12						; size = 4
?privateShopSearchGetSearchItemID@@YAPAU_object@@PAU1@0@Z PROC ; privateShopSearchGetSearchItemID, COMDAT

; 163  : {

  00000	55		 push	 ebp
  00001	8b ec		 mov	 ebp, esp
  00003	83 ec 08	 sub	 esp, 8

; 164  : 	int ipos;
; 165  : 	if (!PyTuple_GetInteger(poArgs, 0, &ipos))

  00006	8d 45 fc	 lea	 eax, DWORD PTR _ipos$[ebp]
  00009	50		 push	 eax
  0000a	6a 00		 push	 0
  0000c	ff 75 0c	 push	 DWORD PTR _poArgs$[ebp]
  0000f	e8 00 00 00 00	 call	 ?PyTuple_GetInteger@@YA_NPAU_object@@HPAH@Z ; PyTuple_GetInteger
  00014	83 c4 0c	 add	 esp, 12			; 0000000cH
  00017	84 c0		 test	 al, al
  00019	75 09		 jne	 SHORT $LN2@privateSho

; 166  : 		return Py_BadArgument();

  0001b	e8 00 00 00 00	 call	 ?Py_BadArgument@@YAPAU_object@@XZ ; Py_BadArgument

; 171  : }

  00020	8b e5		 mov	 esp, ebp
  00022	5d		 pop	 ebp
  00023	c3		 ret	 0
$LN2@privateSho:
; File C:\Anka2Project\Anka2Project\Source\Binary\source\eterBase\Singleton.h

; 26   : 		assert(ms_singleton);

  00024	8b 0d 00 00 00
	00		 mov	 ecx, DWORD PTR ?ms_singleton@?$CSingleton@VCPythonPrivateShopSearch@@@@0PAVCPythonPrivateShopSearch@@A ; CSingleton<CPythonPrivateShopSearch>::ms_singleton
  0002a	85 c9		 test	 ecx, ecx
  0002c	75 1a		 jne	 SHORT $LN7@privateSho
  0002e	6a 1a		 push	 26			; 0000001aH
  00030	68 00 00 00 00	 push	 OFFSET ??_C@_1IO@CAJLEEOI@?$AAC?$AA?3?$AA?2?$AAA?$AAn?$AAk?$AAa?$AA2?$AAP?$AAr?$AAo?$AAj?$AAe?$AAc?$AAt@
  00035	68 00 00 00 00	 push	 OFFSET ??_C@_1BK@FMEHPMFE@?$AAm?$AAs?$AA_?$AAs?$AAi?$AAn?$AAg?$AAl?$AAe?$AAt?$AAo?$AAn@
  0003a	e8 00 00 00 00	 call	 __wassert
  0003f	8b 0d 00 00 00
	00		 mov	 ecx, DWORD PTR ?ms_singleton@?$CSingleton@VCPythonPrivateShopSearch@@@@0PAVCPythonPrivateShopSearch@@A ; CSingleton<CPythonPrivateShopSearch>::ms_singleton
  00045	83 c4 0c	 add	 esp, 12			; 0000000cH
$LN7@privateSho:
; File C:\Anka2Project\Anka2Project\Source\Binary\source\UserInterface\PythonPrivateShopSearch.cpp

; 168  : 	if (!CPythonPrivateShopSearch::Instance().GetItemDataPtr(ipos, &pInstance))

  00048	8d 45 f8	 lea	 eax, DWORD PTR _pInstance$[ebp]
  0004b	50		 push	 eax
  0004c	ff 75 fc	 push	 DWORD PTR _ipos$[ebp]
  0004f	e8 00 00 00 00	 call	 ?GetItemDataPtr@CPythonPrivateShopSearch@@QAEKKPAPAUpacket_offline_shop_item@@@Z ; CPythonPrivateShopSearch::GetItemDataPtr
  00054	85 c0		 test	 eax, eax
  00056	75 0d		 jne	 SHORT $LN3@privateSho

; 169  : 		return Py_BuildException();

  00058	50		 push	 eax
  00059	e8 00 00 00 00	 call	 ?Py_BuildException@@YAPAU_object@@PBDZZ ; Py_BuildException
  0005e	83 c4 04	 add	 esp, 4

; 171  : }

  00061	8b e5		 mov	 esp, ebp
  00063	5d		 pop	 ebp
  00064	c3		 ret	 0
$LN3@privateSho:

; 170  : 	return Py_BuildValue("i", pInstance->id);

  00065	8b 45 f8	 mov	 eax, DWORD PTR _pInstance$[ebp]
  00068	ff 30		 push	 DWORD PTR [eax]
  0006a	68 00 00 00 00	 push	 OFFSET ??_C@_01KBJDNOO@i@
  0006f	ff 15 00 00 00
	00		 call	 DWORD PTR __imp__Py_BuildValue
  00075	83 c4 08	 add	 esp, 8

; 171  : }

  00078	8b e5		 mov	 esp, ebp
  0007a	5d		 pop	 ebp
  0007b	c3		 ret	 0
?privateShopSearchGetSearchItemID@@YAPAU_object@@PAU1@0@Z ENDP ; privateShopSearchGetSearchItemID
_TEXT	ENDS
; Function compile flags: /Ogtp
; File C:\Anka2Project\Anka2Project\Source\Binary\source\UserInterface\PythonPrivateShopSearch.cpp
; File C:\Anka2Project\Anka2Project\Source\Binary\source\eterBase\Singleton.h
; File C:\Anka2Project\Anka2Project\Source\Binary\source\UserInterface\PythonPrivateShopSearch.cpp
;	COMDAT ?privateShopSearchGetSearchItemTransmutation@@YAPAU_object@@PAU1@0@Z
_TEXT	SEGMENT
_pInstance$ = -8					; size = 4
_ipos$ = -4						; size = 4
_poSelf$ = 8						; size = 4
_poArgs$ = 12						; size = 4
?privateShopSearchGetSearchItemTransmutation@@YAPAU_object@@PAU1@0@Z PROC ; privateShopSearchGetSearchItemTransmutation, COMDAT

; 175  : {

  00000	55		 push	 ebp
  00001	8b ec		 mov	 ebp, esp
  00003	83 ec 08	 sub	 esp, 8

; 176  : 	int ipos;
; 177  : 	if (!PyTuple_GetInteger(poArgs, 0, &ipos))

  00006	8d 45 fc	 lea	 eax, DWORD PTR _ipos$[ebp]
  00009	50		 push	 eax
  0000a	6a 00		 push	 0
  0000c	ff 75 0c	 push	 DWORD PTR _poArgs$[ebp]
  0000f	e8 00 00 00 00	 call	 ?PyTuple_GetInteger@@YA_NPAU_object@@HPAH@Z ; PyTuple_GetInteger
  00014	83 c4 0c	 add	 esp, 12			; 0000000cH
  00017	84 c0		 test	 al, al
  00019	75 09		 jne	 SHORT $LN2@privateSho

; 178  : 	{
; 179  : 		return Py_BadArgument();

  0001b	e8 00 00 00 00	 call	 ?Py_BadArgument@@YAPAU_object@@XZ ; Py_BadArgument

; 187  : }

  00020	8b e5		 mov	 esp, ebp
  00022	5d		 pop	 ebp
  00023	c3		 ret	 0
$LN2@privateSho:
; File C:\Anka2Project\Anka2Project\Source\Binary\source\eterBase\Singleton.h

; 26   : 		assert(ms_singleton);

  00024	8b 0d 00 00 00
	00		 mov	 ecx, DWORD PTR ?ms_singleton@?$CSingleton@VCPythonPrivateShopSearch@@@@0PAVCPythonPrivateShopSearch@@A ; CSingleton<CPythonPrivateShopSearch>::ms_singleton
  0002a	85 c9		 test	 ecx, ecx
  0002c	75 1a		 jne	 SHORT $LN7@privateSho
  0002e	6a 1a		 push	 26			; 0000001aH
  00030	68 00 00 00 00	 push	 OFFSET ??_C@_1IO@CAJLEEOI@?$AAC?$AA?3?$AA?2?$AAA?$AAn?$AAk?$AAa?$AA2?$AAP?$AAr?$AAo?$AAj?$AAe?$AAc?$AAt@
  00035	68 00 00 00 00	 push	 OFFSET ??_C@_1BK@FMEHPMFE@?$AAm?$AAs?$AA_?$AAs?$AAi?$AAn?$AAg?$AAl?$AAe?$AAt?$AAo?$AAn@
  0003a	e8 00 00 00 00	 call	 __wassert
  0003f	8b 0d 00 00 00
	00		 mov	 ecx, DWORD PTR ?ms_singleton@?$CSingleton@VCPythonPrivateShopSearch@@@@0PAVCPythonPrivateShopSearch@@A ; CSingleton<CPythonPrivateShopSearch>::ms_singleton
  00045	83 c4 0c	 add	 esp, 12			; 0000000cH
$LN7@privateSho:
; File C:\Anka2Project\Anka2Project\Source\Binary\source\UserInterface\PythonPrivateShopSearch.cpp

; 183  : 	if (CPythonPrivateShopSearch::Instance().GetItemDataPtr(ipos, &pInstance))

  00048	8d 45 f8	 lea	 eax, DWORD PTR _pInstance$[ebp]
  0004b	50		 push	 eax
  0004c	ff 75 fc	 push	 DWORD PTR _ipos$[ebp]
  0004f	e8 00 00 00 00	 call	 ?GetItemDataPtr@CPythonPrivateShopSearch@@QAEKKPAPAUpacket_offline_shop_item@@@Z ; CPythonPrivateShopSearch::GetItemDataPtr
  00054	85 c0		 test	 eax, eax
  00056	74 18		 je	 SHORT $LN3@privateSho

; 184  : 		return Py_BuildValue("i", pInstance->transmutation);

  00058	8b 45 f8	 mov	 eax, DWORD PTR _pInstance$[ebp]
  0005b	ff 70 68	 push	 DWORD PTR [eax+104]

; 187  : }

  0005e	68 00 00 00 00	 push	 OFFSET ??_C@_01KBJDNOO@i@
  00063	ff 15 00 00 00
	00		 call	 DWORD PTR __imp__Py_BuildValue
  00069	83 c4 08	 add	 esp, 8
  0006c	8b e5		 mov	 esp, ebp
  0006e	5d		 pop	 ebp
  0006f	c3		 ret	 0
$LN3@privateSho:

; 185  : 
; 186  : 	return Py_BuildValue("i",0);

  00070	6a 00		 push	 0

; 187  : }

  00072	68 00 00 00 00	 push	 OFFSET ??_C@_01KBJDNOO@i@
  00077	ff 15 00 00 00
	00		 call	 DWORD PTR __imp__Py_BuildValue
  0007d	83 c4 08	 add	 esp, 8
  00080	8b e5		 mov	 esp, ebp
  00082	5d		 pop	 ebp
  00083	c3		 ret	 0
?privateShopSearchGetSearchItemTransmutation@@YAPAU_object@@PAU1@0@Z ENDP ; privateShopSearchGetSearchItemTransmutation
_TEXT	ENDS
; Function compile flags: /Ogtp
; File C:\Anka2Project\Anka2Project\Source\Binary\source\UserInterface\PythonPrivateShopSearch.cpp
; File C:\Anka2Project\Anka2Project\Source\Binary\source\eterBase\Singleton.h
; File C:\Anka2Project\Anka2Project\Source\Binary\source\UserInterface\PythonPrivateShopSearch.cpp
;	COMDAT ?privateShopSearchGetSearchItemBuyerName@@YAPAU_object@@PAU1@0@Z
_TEXT	SEGMENT
_pInstance$ = -8					; size = 4
_ipos$ = -4						; size = 4
_poSelf$ = 8						; size = 4
_poArgs$ = 12						; size = 4
?privateShopSearchGetSearchItemBuyerName@@YAPAU_object@@PAU1@0@Z PROC ; privateShopSearchGetSearchItemBuyerName, COMDAT

; 191  : {

  00000	55		 push	 ebp
  00001	8b ec		 mov	 ebp, esp
  00003	83 ec 08	 sub	 esp, 8

; 192  : 	int ipos;
; 193  : 	if (!PyTuple_GetInteger(poArgs, 0, &ipos))

  00006	8d 45 fc	 lea	 eax, DWORD PTR _ipos$[ebp]
  00009	50		 push	 eax
  0000a	6a 00		 push	 0
  0000c	ff 75 0c	 push	 DWORD PTR _poArgs$[ebp]
  0000f	e8 00 00 00 00	 call	 ?PyTuple_GetInteger@@YA_NPAU_object@@HPAH@Z ; PyTuple_GetInteger
  00014	83 c4 0c	 add	 esp, 12			; 0000000cH
  00017	84 c0		 test	 al, al
  00019	75 09		 jne	 SHORT $LN2@privateSho

; 194  : 	{
; 195  : 		return Py_BadArgument();

  0001b	e8 00 00 00 00	 call	 ?Py_BadArgument@@YAPAU_object@@XZ ; Py_BadArgument

; 205  : }

  00020	8b e5		 mov	 esp, ebp
  00022	5d		 pop	 ebp
  00023	c3		 ret	 0
$LN2@privateSho:
; File C:\Anka2Project\Anka2Project\Source\Binary\source\eterBase\Singleton.h

; 26   : 		assert(ms_singleton);

  00024	8b 0d 00 00 00
	00		 mov	 ecx, DWORD PTR ?ms_singleton@?$CSingleton@VCPythonPrivateShopSearch@@@@0PAVCPythonPrivateShopSearch@@A ; CSingleton<CPythonPrivateShopSearch>::ms_singleton
  0002a	85 c9		 test	 ecx, ecx
  0002c	75 1a		 jne	 SHORT $LN7@privateSho
  0002e	6a 1a		 push	 26			; 0000001aH
  00030	68 00 00 00 00	 push	 OFFSET ??_C@_1IO@CAJLEEOI@?$AAC?$AA?3?$AA?2?$AAA?$AAn?$AAk?$AAa?$AA2?$AAP?$AAr?$AAo?$AAj?$AAe?$AAc?$AAt@
  00035	68 00 00 00 00	 push	 OFFSET ??_C@_1BK@FMEHPMFE@?$AAm?$AAs?$AA_?$AAs?$AAi?$AAn?$AAg?$AAl?$AAe?$AAt?$AAo?$AAn@
  0003a	e8 00 00 00 00	 call	 __wassert
  0003f	8b 0d 00 00 00
	00		 mov	 ecx, DWORD PTR ?ms_singleton@?$CSingleton@VCPythonPrivateShopSearch@@@@0PAVCPythonPrivateShopSearch@@A ; CSingleton<CPythonPrivateShopSearch>::ms_singleton
  00045	83 c4 0c	 add	 esp, 12			; 0000000cH
$LN7@privateSho:
; File C:\Anka2Project\Anka2Project\Source\Binary\source\UserInterface\PythonPrivateShopSearch.cpp

; 199  : 	if (!CPythonPrivateShopSearch::Instance().GetItemDataPtr(ipos, &pInstance))

  00048	8d 45 f8	 lea	 eax, DWORD PTR _pInstance$[ebp]
  0004b	50		 push	 eax
  0004c	ff 75 fc	 push	 DWORD PTR _ipos$[ebp]
  0004f	e8 00 00 00 00	 call	 ?GetItemDataPtr@CPythonPrivateShopSearch@@QAEKKPAPAUpacket_offline_shop_item@@@Z ; CPythonPrivateShopSearch::GetItemDataPtr
  00054	85 c0		 test	 eax, eax
  00056	75 0d		 jne	 SHORT $LN3@privateSho

; 200  : 	{
; 201  : 		return Py_BuildException();

  00058	50		 push	 eax
  00059	e8 00 00 00 00	 call	 ?Py_BuildException@@YAPAU_object@@PBDZZ ; Py_BuildException
  0005e	83 c4 04	 add	 esp, 4

; 205  : }

  00061	8b e5		 mov	 esp, ebp
  00063	5d		 pop	 ebp
  00064	c3		 ret	 0
$LN3@privateSho:

; 202  : 	}
; 203  : 
; 204  : 	return Py_BuildValue("s", pInstance->szBuyerName);

  00065	8b 45 f8	 mov	 eax, DWORD PTR _pInstance$[ebp]
  00068	83 c0 37	 add	 eax, 55			; 00000037H
  0006b	50		 push	 eax
  0006c	68 00 00 00 00	 push	 OFFSET ??_C@_01LKDEMHDF@s@
  00071	ff 15 00 00 00
	00		 call	 DWORD PTR __imp__Py_BuildValue
  00077	83 c4 08	 add	 esp, 8

; 205  : }

  0007a	8b e5		 mov	 esp, ebp
  0007c	5d		 pop	 ebp
  0007d	c3		 ret	 0
?privateShopSearchGetSearchItemBuyerName@@YAPAU_object@@PAU1@0@Z ENDP ; privateShopSearchGetSearchItemBuyerName
_TEXT	ENDS
; Function compile flags: /Ogtp
; File C:\Anka2Project\Anka2Project\Source\Binary\source\UserInterface\PythonPrivateShopSearch.cpp
;	COMDAT ?initprivateShopSearch@@YAXXZ
_TEXT	SEGMENT
?initprivateShopSearch@@YAXXZ PROC			; initprivateShopSearch, COMDAT

; 215  : 	static PyMethodDef s_methods[] =
; 216  : 	{
; 217  : 		{ "GetItemCount",					privateShopSearchGetItemCount,						METH_VARARGS },
; 218  : 		{ "GetSearchItemCount",				privateShopSearchGetSearchItemCount,				METH_VARARGS },
; 219  : 		{ "GetSearchItemPrice",				privateShopSearchGetSearchItemPrice,				METH_VARARGS },
; 220  : 		{ "GetSearchItemVnum",				privateShopSearchGetSearchItemVnum,					METH_VARARGS },
; 221  : 		{ "GetSearchItemShopVID",			privateShopSearchGetSearchItemShopVID,				METH_VARARGS },
; 222  : 		{ "ClearSearchItems",				privateShopSearchClearSearchItems,					METH_VARARGS },
; 223  : 		{ "GetSearchItemMetinSocket",		privateShopSearchGetSearchItemMetinSocket,			METH_VARARGS },
; 224  : 		{ "GetSearchItemAttribute",			privateShopSearchGetSearchItemAttribute,			METH_VARARGS },
; 225  : #ifdef ENABLE_CHANGE_LOOK_SYSTEM
; 226  : 		{ "GetSearchItemTransmutation",		privateShopSearchGetSearchItemTransmutation,		METH_VARARGS },
; 227  : #endif
; 228  : 		{ "GetSearchItemPos",				privateShopSearchGetSearchItemPos,					METH_VARARGS },
; 229  : 		{ "GetSearchItemSeller",			privateShopSearchGetSearchItemBuyerName,			METH_VARARGS },
; 230  : 		{ "GetSearchItemID",				privateShopSearchGetSearchItemID,					METH_VARARGS },
; 231  : 		{ nullptr, nullptr },
; 232  : 	};
; 233  : 
; 234  : 	PyObject *poModule = Py_InitModule("privateShopSearch", s_methods);

  00000	68 f5 03 00 00	 push	 1013			; 000003f5H
  00005	6a 00		 push	 0
  00007	6a 00		 push	 0
  00009	68 00 00 00 00	 push	 OFFSET ?s_methods@?1??initprivateShopSearch@@YAXXZ@4PAUPyMethodDef@@A
  0000e	68 00 00 00 00	 push	 OFFSET ??_C@_0BC@DOMFPLKH@privateShopSearch@
  00013	ff 15 00 00 00
	00		 call	 DWORD PTR __imp__Py_InitModule4
  00019	83 c4 14	 add	 esp, 20			; 00000014H

; 235  : }

  0001c	c3		 ret	 0
?initprivateShopSearch@@YAXXZ ENDP			; initprivateShopSearch
_TEXT	ENDS
; Function compile flags: /Ogtp
; File C:\Program Files\Microsoft Visual Studio\2022\Community\VC\Tools\MSVC\14.44.35207\include\vector
; File C:\Program Files\Microsoft Visual Studio\2022\Community\VC\Tools\MSVC\14.44.35207\include\xmemory
; File C:\Program Files\Microsoft Visual Studio\2022\Community\VC\Tools\MSVC\14.44.35207\include\vector
; File C:\Program Files\Microsoft Visual Studio\2022\Community\VC\Tools\MSVC\14.44.35207\include\xmemory
; File C:\Program Files\Microsoft Visual Studio\2022\Community\VC\Tools\MSVC\14.44.35207\include\vector
; File C:\Program Files\Microsoft Visual Studio\2022\Community\VC\Tools\MSVC\14.44.35207\include\xutility
; File C:\Program Files\Microsoft Visual Studio\2022\Community\VC\Tools\MSVC\14.44.35207\include\vector
; File C:\Program Files\Microsoft Visual Studio\2022\Community\VC\Tools\MSVC\14.44.35207\include\xutility
; File C:\Program Files\Microsoft Visual Studio\2022\Community\VC\Tools\MSVC\14.44.35207\include\vector
; File C:\Program Files\Microsoft Visual Studio\2022\Community\VC\Tools\MSVC\14.44.35207\include\xutility
; File C:\Program Files\Microsoft Visual Studio\2022\Community\VC\Tools\MSVC\14.44.35207\include\vector
; File C:\Program Files\Microsoft Visual Studio\2022\Community\VC\Tools\MSVC\14.44.35207\include\xmemory
; File C:\Program Files\Microsoft Visual Studio\2022\Community\VC\Tools\MSVC\14.44.35207\include\vector
; File C:\Program Files\Microsoft Visual Studio\2022\Community\VC\Tools\MSVC\14.44.35207\include\xmemory
; File C:\Program Files\Microsoft Visual Studio\2022\Community\VC\Tools\MSVC\14.44.35207\include\vector
; File C:\Program Files\Microsoft Visual Studio\2022\Community\VC\Tools\MSVC\14.44.35207\include\xmemory
; File C:\Program Files\Microsoft Visual Studio\2022\Community\VC\Tools\MSVC\14.44.35207\include\vector
;	COMDAT ??$_Emplace_reallocate@ABUpacket_offline_shop_item@@@?$vector@Upacket_offline_shop_item@@V?$allocator@Upacket_offline_shop_item@@@std@@@std@@AAEPAUpacket_offline_shop_item@@QAU2@ABU2@@Z
_TEXT	SEGMENT
__Oldsize$1$ = -16					; size = 4
_this$1$ = -12						; size = 4
tv588 = -8						; size = 4
$T26 = -4						; size = 4
__Whereptr$ = 8						; size = 4
_<_Val_0>$ = 12						; size = 4
??$_Emplace_reallocate@ABUpacket_offline_shop_item@@@?$vector@Upacket_offline_shop_item@@V?$allocator@Upacket_offline_shop_item@@@std@@@std@@AAEPAUpacket_offline_shop_item@@QAU2@ABU2@@Z PROC ; std::vector<packet_offline_shop_item,std::allocator<packet_offline_shop_item> >::_Emplace_reallocate<packet_offline_shop_item const &>, COMDAT
; _this$ = ecx

; 875  :     _CONSTEXPR20 pointer _Emplace_reallocate(const pointer _Whereptr, _Valty&&... _Val) {

  00000	55		 push	 ebp
  00001	8b ec		 mov	 ebp, esp
  00003	83 ec 10	 sub	 esp, 16			; 00000010H
  00006	53		 push	 ebx
  00007	8b d9		 mov	 ebx, ecx

; 876  :         // reallocate and insert by perfectly forwarding _Val at _Whereptr
; 877  :         _Alty& _Al        = _Getal();
; 878  :         auto& _My_data    = _Mypair._Myval2;
; 879  :         pointer& _Myfirst = _My_data._Myfirst;
; 880  :         pointer& _Mylast  = _My_data._Mylast;
; 881  : 
; 882  :         _STL_INTERNAL_CHECK(_Mylast == _My_data._Myend); // check that we have no unused capacity
; 883  : 
; 884  :         const auto _Whereoff = static_cast<size_type>(_Whereptr - _Myfirst);

  00009	b8 93 24 49 92	 mov	 eax, -1840700269	; 92492493H
  0000e	56		 push	 esi
  0000f	8b 75 08	 mov	 esi, DWORD PTR __Whereptr$[ebp]
  00012	57		 push	 edi
  00013	2b 33		 sub	 esi, DWORD PTR [ebx]

; 885  :         const auto _Oldsize  = static_cast<size_type>(_Mylast - _Myfirst);

  00015	8b 4b 04	 mov	 ecx, DWORD PTR [ebx+4]
  00018	2b 0b		 sub	 ecx, DWORD PTR [ebx]
  0001a	f7 ee		 imul	 esi
  0001c	b8 93 24 49 92	 mov	 eax, -1840700269	; 92492493H
  00021	89 5d f4	 mov	 DWORD PTR _this$1$[ebp], ebx
  00024	03 d6		 add	 edx, esi
  00026	c1 fa 06	 sar	 edx, 6
  00029	8b fa		 mov	 edi, edx
  0002b	c1 ef 1f	 shr	 edi, 31			; 0000001fH
  0002e	03 fa		 add	 edi, edx
  00030	f7 e9		 imul	 ecx
  00032	03 d1		 add	 edx, ecx
  00034	c1 fa 06	 sar	 edx, 6
  00037	8b c2		 mov	 eax, edx
  00039	c1 e8 1f	 shr	 eax, 31			; 0000001fH
  0003c	03 c2		 add	 eax, edx
  0003e	89 45 f0	 mov	 DWORD PTR __Oldsize$1$[ebp], eax

; 886  : 
; 887  :         if (_Oldsize == max_size()) {

  00041	3d 92 24 49 02	 cmp	 eax, 38347922		; 02492492H
  00046	0f 84 ec 00 00
	00		 je	 $LN129@Emplace_re

; 1924 :         return static_cast<size_type>(_My_data._Myend - _My_data._Myfirst);

  0004c	8b 4b 08	 mov	 ecx, DWORD PTR [ebx+8]

; 889  :         }
; 890  : 
; 891  :         const size_type _Newsize = _Oldsize + 1;

  0004f	8d 70 01	 lea	 esi, DWORD PTR [eax+1]

; 1924 :         return static_cast<size_type>(_My_data._Myend - _My_data._Myfirst);

  00052	2b 0b		 sub	 ecx, DWORD PTR [ebx]
  00054	b8 93 24 49 92	 mov	 eax, -1840700269	; 92492493H
  00059	f7 e9		 imul	 ecx

; 2011 :         if (_Oldcapacity > _Max - _Oldcapacity / 2) {

  0005b	b8 92 24 49 02	 mov	 eax, 38347922		; 02492492H

; 1924 :         return static_cast<size_type>(_My_data._Myend - _My_data._Myfirst);

  00060	03 d1		 add	 edx, ecx
  00062	c1 fa 06	 sar	 edx, 6
  00065	8b ca		 mov	 ecx, edx
  00067	c1 e9 1f	 shr	 ecx, 31			; 0000001fH
  0006a	03 ca		 add	 ecx, edx

; 2011 :         if (_Oldcapacity > _Max - _Oldcapacity / 2) {

  0006c	8b d1		 mov	 edx, ecx
  0006e	d1 ea		 shr	 edx, 1
  00070	2b c2		 sub	 eax, edx
  00072	3b c8		 cmp	 ecx, eax
  00074	76 17		 jbe	 SHORT $LN8@Emplace_re

; 2012 :             return _Max; // geometric growth would overflow

  00076	b8 e0 ff ff ff	 mov	 eax, -32		; ffffffe0H
  0007b	bb 92 24 49 02	 mov	 ebx, 38347922		; 02492492H
; File C:\Program Files\Microsoft Visual Studio\2022\Community\VC\Tools\MSVC\14.44.35207\include\xmemory

; 253  :             return _Allocate_manually_vector_aligned<_Traits>(_Bytes);

  00080	50		 push	 eax
  00081	e8 00 00 00 00	 call	 ??$_Allocate_manually_vector_aligned@U_Default_allocate_traits@std@@@std@@YAPAXI@Z ; std::_Allocate_manually_vector_aligned<std::_Default_allocate_traits>
  00086	8b d0		 mov	 edx, eax
  00088	89 55 fc	 mov	 DWORD PTR $T26[ebp], edx
  0008b	eb 43		 jmp	 SHORT $LN127@Emplace_re
$LN8@Emplace_re:
; File C:\Program Files\Microsoft Visual Studio\2022\Community\VC\Tools\MSVC\14.44.35207\include\vector

; 2015 :         const size_type _Geometric = _Oldcapacity + _Oldcapacity / 2;

  0008d	8d 04 0a	 lea	 eax, DWORD PTR [edx+ecx]
; File C:\Program Files\Microsoft Visual Studio\2022\Community\VC\Tools\MSVC\14.44.35207\include\xmemory

; 117  :         if (_Count > _Max_possible) {

  00090	8b de		 mov	 ebx, esi
  00092	3b c6		 cmp	 eax, esi
  00094	0f 43 d8	 cmovae	 ebx, eax
  00097	81 fb 92 24 49
	02		 cmp	 ebx, 38347922		; 02492492H
  0009d	0f 87 9a 00 00
	00		 ja	 $LN130@Emplace_re

; 119  :         }
; 120  :     }
; 121  : 
; 122  :     return _Count * _Ty_size;

  000a3	6b c3 70	 imul	 eax, ebx, 112

; 227  :     if (_Bytes == 0) {

  000a6	85 c0		 test	 eax, eax
  000a8	75 07		 jne	 SHORT $LN23@Emplace_re

; 228  :         return nullptr;

  000aa	33 d2		 xor	 edx, edx
  000ac	89 55 fc	 mov	 DWORD PTR $T26[ebp], edx
  000af	eb 22		 jmp	 SHORT $LN22@Emplace_re
$LN23@Emplace_re:

; 229  :     }
; 230  : 
; 231  : #if _HAS_CXX20 // TRANSITION, GH-1532
; 232  :     if (_STD is_constant_evaluated()) {
; 233  :         return _Traits::_Allocate(_Bytes);
; 234  :     }
; 235  : #endif // _HAS_CXX20
; 236  : 
; 237  : #ifdef __cpp_aligned_new
; 238  :     if constexpr (_Align > __STDCPP_DEFAULT_NEW_ALIGNMENT__) {
; 239  :         size_t _Passed_align = _Align;
; 240  : #if defined(_M_IX86) || defined(_M_X64)
; 241  :         if (_Bytes >= _Big_allocation_threshold) {
; 242  :             // boost the alignment of big allocations to help autovectorization
; 243  :             _Passed_align = (_STD max)(_Align, _Big_allocation_alignment);
; 244  :         }
; 245  : #endif // defined(_M_IX86) || defined(_M_X64)
; 246  :         return _Traits::_Allocate_aligned(_Bytes, _Passed_align);
; 247  :     } else
; 248  : #endif // defined(__cpp_aligned_new)
; 249  :     {
; 250  : #if defined(_M_IX86) || defined(_M_X64)
; 251  :         if (_Bytes >= _Big_allocation_threshold) {

  000b1	3d 00 10 00 00	 cmp	 eax, 4096		; 00001000H
  000b6	72 0d		 jb	 SHORT $LN25@Emplace_re

; 253  :             return _Allocate_manually_vector_aligned<_Traits>(_Bytes);

  000b8	50		 push	 eax
  000b9	e8 00 00 00 00	 call	 ??$_Allocate_manually_vector_aligned@U_Default_allocate_traits@std@@@std@@YAPAXI@Z ; std::_Allocate_manually_vector_aligned<std::_Default_allocate_traits>
  000be	8b d0		 mov	 edx, eax
  000c0	89 55 fc	 mov	 DWORD PTR $T26[ebp], edx
  000c3	eb 0b		 jmp	 SHORT $LN127@Emplace_re
$LN25@Emplace_re:

; 136  :         return ::operator new(_Bytes);

  000c5	50		 push	 eax
  000c6	e8 00 00 00 00	 call	 ??2@YAPAXI@Z		; operator new

; 256  :         return _Traits::_Allocate(_Bytes);

  000cb	8b d0		 mov	 edx, eax
  000cd	89 45 fc	 mov	 DWORD PTR $T26[ebp], eax
$LN127@Emplace_re:
; File C:\Program Files\Microsoft Visual Studio\2022\Community\VC\Tools\MSVC\14.44.35207\include\vector

; 900  :         _Alty_traits::construct(_Al, _STD _Unfancy(_Newvec + _Whereoff), _STD forward<_Valty>(_Val)...);

  000d0	83 c4 04	 add	 esp, 4
$LN22@Emplace_re:
; File C:\Program Files\Microsoft Visual Studio\2022\Community\VC\Tools\MSVC\14.44.35207\include\xutility

; 463  :     _MSVC_CONSTEXPR return ::new (static_cast<void*>(_Location)) _Ty(_STD forward<_Types>(_Args)...);

  000d3	8b 75 0c	 mov	 esi, DWORD PTR _<_Val_0>$[ebp]
  000d6	b9 1c 00 00 00	 mov	 ecx, 28			; 0000001cH
; File C:\Program Files\Microsoft Visual Studio\2022\Community\VC\Tools\MSVC\14.44.35207\include\vector

; 900  :         _Alty_traits::construct(_Al, _STD _Unfancy(_Newvec + _Whereoff), _STD forward<_Valty>(_Val)...);

  000db	6b c7 70	 imul	 eax, edi, 112
  000de	03 c2		 add	 eax, edx
; File C:\Program Files\Microsoft Visual Studio\2022\Community\VC\Tools\MSVC\14.44.35207\include\xutility

; 463  :     _MSVC_CONSTEXPR return ::new (static_cast<void*>(_Location)) _Ty(_STD forward<_Types>(_Args)...);

  000e0	8b f8		 mov	 edi, eax
; File C:\Program Files\Microsoft Visual Studio\2022\Community\VC\Tools\MSVC\14.44.35207\include\vector

; 900  :         _Alty_traits::construct(_Al, _STD _Unfancy(_Newvec + _Whereoff), _STD forward<_Valty>(_Val)...);

  000e2	89 45 f8	 mov	 DWORD PTR tv588[ebp], eax
; File C:\Program Files\Microsoft Visual Studio\2022\Community\VC\Tools\MSVC\14.44.35207\include\xutility

; 463  :     _MSVC_CONSTEXPR return ::new (static_cast<void*>(_Location)) _Ty(_STD forward<_Types>(_Args)...);

  000e5	f3 a5		 rep movsd
; File C:\Program Files\Microsoft Visual Studio\2022\Community\VC\Tools\MSVC\14.44.35207\include\vector

; 903  :         if (_Whereptr == _Mylast) { // at back, provide strong guarantee

  000e7	8b 75 f4	 mov	 esi, DWORD PTR _this$1$[ebp]
  000ea	8b 7d 08	 mov	 edi, DWORD PTR __Whereptr$[ebp]
  000ed	8b 46 04	 mov	 eax, DWORD PTR [esi+4]
  000f0	8b 0e		 mov	 ecx, DWORD PTR [esi]
  000f2	3b f8		 cmp	 edi, eax
  000f4	75 05		 jne	 SHORT $LN3@Emplace_re

; 904  :             if constexpr (is_nothrow_move_constructible_v<_Ty> || !is_copy_constructible_v<_Ty>) {
; 905  :                 _STD _Uninitialized_move(_Myfirst, _Mylast, _Newvec, _Al);
; 906  :             } else {
; 907  :                 _STD _Uninitialized_copy(_Myfirst, _Mylast, _Newvec, _Al);
; 908  :             }
; 909  :         } else { // provide basic guarantee

  000f6	8b 7d f8	 mov	 edi, DWORD PTR tv588[ebp]
  000f9	eb 17		 jmp	 SHORT $LN74@Emplace_re
$LN3@Emplace_re:
; File C:\Program Files\Microsoft Visual Studio\2022\Community\VC\Tools\MSVC\14.44.35207\include\xmemory

; 1992 :             _STD _Copy_memmove(_UFirst, _ULast, _STD _Unfancy(_Dest));

  000fb	52		 push	 edx
  000fc	8b d7		 mov	 edx, edi
  000fe	e8 00 00 00 00	 call	 ??$_Copy_memmove@PAUpacket_offline_shop_item@@PAU1@@std@@YAPAUpacket_offline_shop_item@@PAU1@00@Z ; std::_Copy_memmove<packet_offline_shop_item *,packet_offline_shop_item *>
; File C:\Program Files\Microsoft Visual Studio\2022\Community\VC\Tools\MSVC\14.44.35207\include\vector

; 912  :             _STD _Uninitialized_move(_Whereptr, _Mylast, _Newvec + _Whereoff + 1, _Al);

  00103	8b 7d f8	 mov	 edi, DWORD PTR tv588[ebp]
; File C:\Program Files\Microsoft Visual Studio\2022\Community\VC\Tools\MSVC\14.44.35207\include\xmemory

; 1992 :             _STD _Copy_memmove(_UFirst, _ULast, _STD _Unfancy(_Dest));

  00106	83 c4 04	 add	 esp, 4

; 1985 :     const auto _ULast = _STD _Get_unwrapped(_Last);

  00109	8b 46 04	 mov	 eax, DWORD PTR [esi+4]

; 1992 :             _STD _Copy_memmove(_UFirst, _ULast, _STD _Unfancy(_Dest));

  0010c	8b 4d 08	 mov	 ecx, DWORD PTR __Whereptr$[ebp]
; File C:\Program Files\Microsoft Visual Studio\2022\Community\VC\Tools\MSVC\14.44.35207\include\vector

; 912  :             _STD _Uninitialized_move(_Whereptr, _Mylast, _Newvec + _Whereoff + 1, _Al);

  0010f	8d 57 70	 lea	 edx, DWORD PTR [edi+112]
$LN74@Emplace_re:

; 913  :         }
; 914  : 
; 915  :         _Guard._New_begin = nullptr;
; 916  :         _Change_array(_Newvec, _Newsize, _Newcapacity);

  00112	52		 push	 edx
  00113	8b d0		 mov	 edx, eax
  00115	e8 00 00 00 00	 call	 ??$_Copy_memmove@PAUpacket_offline_shop_item@@PAU1@@std@@YAPAUpacket_offline_shop_item@@PAU1@00@Z ; std::_Copy_memmove<packet_offline_shop_item *,packet_offline_shop_item *>
  0011a	8b 45 f0	 mov	 eax, DWORD PTR __Oldsize$1$[ebp]
  0011d	83 c4 04	 add	 esp, 4
  00120	40		 inc	 eax
  00121	8b ce		 mov	 ecx, esi
  00123	53		 push	 ebx
  00124	50		 push	 eax
  00125	ff 75 fc	 push	 DWORD PTR $T26[ebp]
  00128	e8 00 00 00 00	 call	 ?_Change_array@?$vector@Upacket_offline_shop_item@@V?$allocator@Upacket_offline_shop_item@@@std@@@std@@AAEXQAUpacket_offline_shop_item@@II@Z ; std::vector<packet_offline_shop_item,std::allocator<packet_offline_shop_item> >::_Change_array

; 917  :         return _Newvec + _Whereoff;

  0012d	8b c7		 mov	 eax, edi

; 918  :     }

  0012f	5f		 pop	 edi
  00130	5e		 pop	 esi
  00131	5b		 pop	 ebx
  00132	8b e5		 mov	 esp, ebp
  00134	5d		 pop	 ebp
  00135	c2 08 00	 ret	 8
$LN129@Emplace_re:

; 888  :             _Xlength();

  00138	e8 00 00 00 00	 call	 ?_Xlength@?$vector@Upacket_offline_shop_item@@V?$allocator@Upacket_offline_shop_item@@@std@@@std@@CAXXZ ; std::vector<packet_offline_shop_item,std::allocator<packet_offline_shop_item> >::_Xlength
$LN130@Emplace_re:
; File C:\Program Files\Microsoft Visual Studio\2022\Community\VC\Tools\MSVC\14.44.35207\include\xmemory

; 118  :             _Throw_bad_array_new_length(); // multiply overflow

  0013d	e8 00 00 00 00	 call	 ?_Throw_bad_array_new_length@std@@YAXXZ ; std::_Throw_bad_array_new_length
$LN126@Emplace_re:
  00142	cc		 int	 3
??$_Emplace_reallocate@ABUpacket_offline_shop_item@@@?$vector@Upacket_offline_shop_item@@V?$allocator@Upacket_offline_shop_item@@@std@@@std@@AAEPAUpacket_offline_shop_item@@QAU2@ABU2@@Z ENDP ; std::vector<packet_offline_shop_item,std::allocator<packet_offline_shop_item> >::_Emplace_reallocate<packet_offline_shop_item const &>
_TEXT	ENDS
END
