; Listing generated by Microsoft (R) Optimizing Compiler Version 19.44.35219.0 

	TITLE	c:\anka2project\anka2project\source\binary\vs_files\userinterface\release\pythoncharactermanagermodule.obj
	.686P
	.XMM
	include listing.inc
	.model	flat

INCLUDELIB OLDNAMES

PUBLIC	??_C@_0N@DAOJGGNH@pos?$DN?$CI?$CFd?0?5?$CFd?$CJ@ ; `string'
PUBLIC	??_C@_0DD@OOILPMAD@VID?5?$CFd?5?$CIisRegistered?$DN?$CFd?0?5isAliv@ ; `string'
PUBLIC	??_C@_0BL@MNEPJNPF@RaceData?5has?5not?5selected?$CB@ ; `string'
PUBLIC	??_C@_0CA@PANOAEAA@Failed?5to?5SetMotionRandomWeight@ ; `string'
PUBLIC	??_C@_0BP@GOFKKANP@Failed?5to?5load?5race?5data?5?3?5?$CFs?6@ ; `string'
PUBLIC	??_C@_0BA@ONNGPENO@MovingSpeed?5?$DM?50@	; `string'
PUBLIC	??_C@_0CA@LHMBKIIP@MainCharacter?5has?5not?5selected?$CB@ ; `string'
PUBLIC	??_C@_0BC@BKLPPNOE@SetEmpireNameMode@		; `string'
PUBLIC	??_C@_0L@HLMOHPB@GetVIDInfo@			; `string'
PUBLIC	??_C@_0N@GBMNDJED@GetPickedVID@			; `string'
PUBLIC	??_C@_0O@MHKAJHDG@SetShapeModel@		; `string'
PUBLIC	??_C@_0BA@HPLHAKEG@AppendShapeSkin@		; `string'
PUBLIC	??_C@_0M@LPKBIHHH@SetPathName@			; `string'
PUBLIC	??_C@_0N@GHFJHKGH@LoadRaceData@			; `string'
PUBLIC	??_C@_0BC@DAGLOOBN@LoadLocalRaceData@		; `string'
PUBLIC	??_C@_0L@PAJHIMBB@CreateRace@			; `string'
PUBLIC	??_C@_0L@NJAJBJJE@SelectRace@			; `string'
PUBLIC	??_C@_0BK@DPJBIBKK@RegisterAttachingBoneName@	; `string'
PUBLIC	??_C@_0BD@JDOLIM@RegisterMotionMode@		; `string'
PUBLIC	??_C@_0BG@OCGHAGOD@SetMotionRandomWeight@	; `string'
PUBLIC	??_C@_0BF@PLDGGJNA@RegisterNormalAttack@	; `string'
PUBLIC	??_C@_0BD@DNKMMCHM@ReserveComboAttack@		; `string'
PUBLIC	??_C@_0BE@OMDLDMGO@RegisterComboAttack@		; `string'
PUBLIC	??_C@_0BG@COOOACPC@ReserveComboAttackNew@	; `string'
PUBLIC	??_C@_0BH@NFBILPOJ@RegisterComboAttackNew@	; `string'
PUBLIC	??_C@_0BD@JFBGJILK@RegisterMotionData@		; `string'
PUBLIC	??_C@_0BB@HNIEHNII@RegisterRaceName@		; `string'
PUBLIC	??_C@_0BE@HJOOIAPM@RegisterRaceSrcName@		; `string'
PUBLIC	??_C@_0BI@FCNOCDC@RegisterCacheMotionData@	; `string'
PUBLIC	??_C@_09FHCBCPJO@SetAffect@			; `string'
PUBLIC	??_C@_0M@CGAMKJOI@SetEmoticon@			; `string'
PUBLIC	??_C@_0BD@POCMNAMG@IsPossibleEmoticon@		; `string'
PUBLIC	??_C@_0P@HDADHLLI@RegisterEffect@		; `string'
PUBLIC	??_C@_0BE@EGCDGLCF@RegisterCacheEffect@		; `string'
PUBLIC	??_C@_0BE@LLPKKHNJ@RegisterPointEffect@		; `string'
PUBLIC	??_C@_0BA@NPGECIIB@ShowPointEffect@		; `string'
PUBLIC	??_C@_0BE@FHPGPJOE@ToggleDirectionLine@		; `string'
PUBLIC	??_C@_0P@BIEBGJOI@SetMovingSpeed@		; `string'
PUBLIC	??_C@_0L@BNCPBKEF@SetDustGap@			; `string'
PUBLIC	??_C@_0BA@JCKJBNGJ@SetHorseDustGap@		; `string'
PUBLIC	??_C@_0BC@MEILBMBD@RegisterTitleName@		; `string'
PUBLIC	??_C@_0BC@GAIKKIED@RegisterNameColor@		; `string'
PUBLIC	??_C@_0BD@CPPGJOLK@RegisterTitleColor@		; `string'
PUBLIC	??_C@_0O@LCDFPKLG@SetRaceHeight@		; `string'
PUBLIC	??_C@_0BI@FIJMCLIP@RegisterTitleSystemName@	; `string'
PUBLIC	??_C@_0BJ@NGNDFGOC@RegisterTitleSystemColor@	; `string'
PUBLIC	??_C@_0O@FOILFLOP@NAMECOLOR_MOB@		; `string'
PUBLIC	??_C@_0O@ECFPCBAN@NAMECOLOR_NPC@		; `string'
PUBLIC	??_C@_0N@HFDLLOOL@NAMECOLOR_PC@			; `string'
PUBLIC	??_C@_0BF@PFPMAJFA@NAMECOLOR_EMPIRE_MOB@	; `string'
PUBLIC	??_C@_0BF@OJCIHDLC@NAMECOLOR_EMPIRE_NPC@	; `string'
PUBLIC	??_C@_0BE@NDFEFIME@NAMECOLOR_EMPIRE_PC@		; `string'
PUBLIC	??_C@_0P@KKNBBHPK@NAMECOLOR_FUNC@		; `string'
PUBLIC	??_C@_0N@LNOCDEOD@NAMECOLOR_PK@			; `string'
PUBLIC	??_C@_0O@JHPLDMIB@NAMECOLOR_PVP@		; `string'
PUBLIC	??_C@_0BA@HFPCKBBO@NAMECOLOR_PARTY@		; `string'
PUBLIC	??_C@_0P@FMPJHCIG@NAMECOLOR_WARP@		; `string'
PUBLIC	??_C@_0BD@KCIPKGLN@NAMECOLOR_WAYPOINT@		; `string'
PUBLIC	??_C@_0BA@LCMPNPC@NAMECOLOR_METIN@		; `string'
PUBLIC	??_C@_0P@MAIPKLOP@NAMECOLOR_SHOP@		; `string'
PUBLIC	??_C@_0BA@OIOEHMPC@NAMECOLOR_EXTRA@		; `string'
PUBLIC	??_C@_0BH@CICELGM@EFFECT_SPAWN_DISAPPEAR@	; `string'
PUBLIC	??_C@_0BE@IMMEKAGC@EFFECT_SPAWN_APPEAR@		; `string'
PUBLIC	??_C@_0M@HJGLKAFL@EFFECT_DUST@			; `string'
PUBLIC	??_C@_0BC@IMCHDDJP@EFFECT_HORSE_DUST@		; `string'
PUBLIC	??_C@_0M@KHLHAKMF@EFFECT_STUN@			; `string'
PUBLIC	??_C@_0L@MLLFBJIP@EFFECT_HIT@			; `string'
PUBLIC	??_C@_0BE@OHNAJENN@EFFECT_FLAME_ATTACK@		; `string'
PUBLIC	??_C@_0BB@GKHDFHPF@EFFECT_FLAME_HIT@		; `string'
PUBLIC	??_C@_0BE@MMPNMHBO@EFFECT_FLAME_ATTACH@		; `string'
PUBLIC	??_C@_0BH@LIICDLOG@EFFECT_ELECTRIC_ATTACK@	; `string'
PUBLIC	??_C@_0BE@DDJNHBFG@EFFECT_ELECTRIC_HIT@		; `string'
PUBLIC	??_C@_0BH@JDKPGICF@EFFECT_ELECTRIC_ATTACH@	; `string'
PUBLIC	??_C@_0O@IICIGFKH@EFFECT_SELECT@		; `string'
PUBLIC	??_C@_0O@KHEKIEOF@EFFECT_TARGET@		; `string'
PUBLIC	??_C@_0BA@DGHICDHC@EFFECT_CRITICAL@		; `string'
PUBLIC	??_C@_0BF@CKINGCNE@EFFECT_DAMAGE_TARGET@	; `string'
PUBLIC	??_C@_0BJ@EHADMOLO@EFFECT_DAMAGE_NOT_TARGET@	; `string'
PUBLIC	??_C@_0BJ@LBPHCJON@EFFECT_DAMAGE_SELFDAMAGE@	; `string'
PUBLIC	??_C@_0BK@DDHKDNJN@EFFECT_DAMAGE_SELFDAMAGE2@	; `string'
PUBLIC	??_C@_0BF@JBDJDOOB@EFFECT_DAMAGE_POISON@	; `string'
PUBLIC	??_C@_0BD@HAKEDKPM@EFFECT_DAMAGE_MISS@		; `string'
PUBLIC	??_C@_0BJ@OOAALGB@EFFECT_DAMAGE_TARGETMISS@	; `string'
PUBLIC	??_C@_0BH@LJEMOOEK@EFFECT_DAMAGE_CRITICAL@	; `string'
PUBLIC	??_C@_0P@KMPGDLGB@EFFECT_LEVELUP@		; `string'
PUBLIC	??_C@_0P@KGMCLBIE@EFFECT_SKILLUP@		; `string'
PUBLIC	??_C@_0BA@FDCHOHC@EFFECT_HPUP_RED@		; `string'
PUBLIC	??_C@_0BB@OMECPCHO@EFFECT_SPUP_BLUE@		; `string'
PUBLIC	??_C@_0BF@KGBLOADC@EFFECT_SPEEDUP_GREEN@	; `string'
PUBLIC	??_C@_0BD@NFLNKENB@EFFECT_DXUP_PURPLE@		; `string'
PUBLIC	??_C@_0BB@MJKAFPM@EFFECT_PENETRATE@		; `string'
PUBLIC	??_C@_0N@FHECDOCO@EFFECT_BLOCK@			; `string'
PUBLIC	??_C@_0N@IIDAKFLA@EFFECT_DODGE@			; `string'
PUBLIC	??_C@_0BD@KGHDJJHH@EFFECT_FIRECRACKER@		; `string'
PUBLIC	??_C@_0BA@LEFHDKNA@EFFECT_SPIN_TOP@		; `string'
PUBLIC	??_C@_0O@FKAHCBBH@EFFECT_WEAPON@		; `string'
PUBLIC	??_C@_0O@LEENICEP@EFFECT_AFFECT@		; `string'
PUBLIC	??_C@_0BA@LLIBADMN@EFFECT_EMOTICON@		; `string'
PUBLIC	??_C@_0O@MBIOGBFC@EFFECT_EMPIRE@		; `string'
PUBLIC	??_C@_0P@JLGAELEM@EFFECT_REFINED@		; `string'
PUBLIC	??_C@_0P@OAEAICFL@EFFECT_SUCCESS@		; `string'
PUBLIC	??_C@_0M@EPHKINAM@EFFECT_FAIL@			; `string'
PUBLIC	??_C@_0BC@EDPMLGPA@EFFECT_FR_SUCCESS@		; `string'
PUBLIC	??_C@_0BH@KDDKMBMB@EFFECT_PERCENT_DAMAGE1@	; `string'
PUBLIC	??_C@_0BH@IIBHJCAC@EFFECT_PERCENT_DAMAGE2@	; `string'
PUBLIC	??_C@_0BH@JBAMKDED@EFFECT_PERCENT_DAMAGE3@	; `string'
PUBLIC	??_C@_0BB@LPHIBMMP@EFFECT_AUTO_HPUP@		; `string'
PUBLIC	??_C@_0BB@KIEILKFM@EFFECT_AUTO_SPUP@		; `string'
PUBLIC	??_C@_0BK@JCIOPIOG@EFFECT_RAMADAN_RING_EQUIP@	; `string'
PUBLIC	??_C@_0BN@NGBKKLJA@EFFECT_HALLOWEEN_CANDY_EQUIP@ ; `string'
PUBLIC	??_C@_0BM@DAACAMNP@EFFECT_HAPPINESS_RING_EQUIP@	; `string'
PUBLIC	??_C@_0BK@MMIJIEDM@EFFECT_LOVE_PENDANT_EQUIP@	; `string'
PUBLIC	??_C@_0BF@IIPPAKCH@EFFECT_ACCE_SUCCEDED@	; `string'
PUBLIC	??_C@_0BC@FAAHJKCH@EFFECT_ACCE_EQUIP@		; `string'
PUBLIC	??_C@_0M@ILAGKHAI@EFFECT_ACCE@			; `string'
PUBLIC	??_C@_0M@IGMOHEMH@EFFECT_BOSS@			; `string'
PUBLIC	??_C@_0CD@ENDEMKHE@EFFECT_BP_NORMAL_MISSION_COMPLE@ ; `string'
PUBLIC	??_C@_0CE@JJOCGBAD@EFFECT_BP_PREMIUM_MISSION_COMPL@ ; `string'
PUBLIC	??_C@_0CG@BINHAMPH@EFFECT_BP_NORMAL_BATTLEPASS_COM@ ; `string'
PUBLIC	??_C@_0CH@GLCKGADF@EFFECT_BP_PREMIUM_BATTLEPASS_CO@ ; `string'
PUBLIC	??_C@_0BH@PKDHJHLG@EFFECT_GYEONGGONG_BOOM@	; `string'
EXTRN	?SetRaceHeight@CRaceManager@@QAEXHM@Z:PROC	; CRaceManager::SetRaceHeight
EXTRN	?AppendShapeSkin@CRaceData@@QAEXIIPBD0@Z:PROC	; CRaceData::AppendShapeSkin
EXTRN	?ShowDirectionLine@CActorInstance@@SAX_N@Z:PROC	; CActorInstance::ShowDirectionLine
EXTRN	?RegisterRaceName@CRaceManager@@QAEXKPBD@Z:PROC	; CRaceManager::RegisterRaceName
EXTRN	?SetShapeModel@CRaceData@@QAEXIPBD@Z:PROC	; CRaceData::SetShapeModel
EXTRN	?RegisterRaceSrcName@CRaceManager@@QAEXABV?$basic_string@DU?$char_traits@D@std@@V?$allocator@D@2@@std@@0@Z:PROC ; CRaceManager::RegisterRaceSrcName
EXTRN	?LoadStaticCache@CResourceManager@@QAEXPBD@Z:PROC ; CResourceManager::LoadStaticCache
EXTRN	?MIN@@YAHHH@Z:PROC				; MIN
EXTRN	?RegisterMotionData@CRaceData@@QAEPAVCGraphicThing@@GGPBDE@Z:PROC ; CRaceData::RegisterMotionData
EXTRN	?GetFullPathFileName@CRaceManager@@QAEPBDPBD@Z:PROC ; CRaceManager::GetFullPathFileName
EXTRN	?LoadRaceData@CRaceData@@QAEHPBD@Z:PROC		; CRaceData::LoadRaceData
EXTRN	?ReserveComboAttack@CRaceData@@QAEXGGK@Z:PROC	; CRaceData::ReserveComboAttack
EXTRN	?RegisterComboAttack@CRaceData@@QAEXGGKG@Z:PROC	; CRaceData::RegisterComboAttack
EXTRN	?SetMotionRandomWeight@CRaceData@@QAE_NGGGE@Z:PROC ; CRaceData::SetMotionRandomWeight
EXTRN	?RegisterNormalAttack@CRaceData@@QAEXGG@Z:PROC	; CRaceData::RegisterNormalAttack
EXTRN	?RegisterAttachingBoneName@CRaceData@@QAEXKPBD@Z:PROC ; CRaceData::RegisterAttachingBoneName
EXTRN	?RegisterMotionMode@CRaceData@@QAEXG@Z:PROC	; CRaceData::RegisterMotionMode
EXTRN	?SelectRace@CRaceManager@@QAEXK@Z:PROC		; CRaceManager::SelectRace
EXTRN	?GetSelectedRaceDataPointer@CRaceManager@@QAEPAVCRaceData@@XZ:PROC ; CRaceManager::GetSelectedRaceDataPointer
EXTRN	?SetPathName@CRaceManager@@QAEXPBD@Z:PROC	; CRaceManager::SetPathName
EXTRN	?CreateRace@CRaceManager@@QAEXK@Z:PROC		; CRaceManager::CreateRace
;	COMDAT ?s_isVisible@?1??chrmgrToggleDirectionLine@@YAPAU_object@@PAU2@0@Z@4_NA
_DATA	SEGMENT
?s_isVisible@?1??chrmgrToggleDirectionLine@@YAPAU_object@@PAU2@0@Z@4_NA DB 01H ; `chrmgrToggleDirectionLine'::`2'::s_isVisible
_DATA	ENDS
;	COMDAT ?s_methods@?1??initchrmgr@@YAXXZ@4PAUPyMethodDef@@A
_DATA	SEGMENT
?s_methods@?1??initchrmgr@@YAXXZ@4PAUPyMethodDef@@A DD FLAT:??_C@_0BC@BKLPPNOE@SetEmpireNameMode@ ; `initchrmgr'::`2'::s_methods
	DD	FLAT:?chrmgrSetEmpireNameMode@@YAPAU_object@@PAU1@0@Z
	DD	01H
	ORG $+4
	DD	FLAT:??_C@_0L@HLMOHPB@GetVIDInfo@
	DD	FLAT:?chrmgrGetVIDInfo@@YAPAU_object@@PAU1@0@Z
	DD	01H
	ORG $+4
	DD	FLAT:??_C@_0N@GBMNDJED@GetPickedVID@
	DD	FLAT:?chrmgrGetPickedVID@@YAPAU_object@@PAU1@0@Z
	DD	01H
	ORG $+4
	DD	FLAT:??_C@_0O@MHKAJHDG@SetShapeModel@
	DD	FLAT:?chrmgrSetShapeModel@@YAPAU_object@@PAU1@0@Z
	DD	01H
	ORG $+4
	DD	FLAT:??_C@_0BA@HPLHAKEG@AppendShapeSkin@
	DD	FLAT:?chrmgrAppendShapeSkin@@YAPAU_object@@PAU1@0@Z
	DD	01H
	ORG $+4
	DD	FLAT:??_C@_0M@LPKBIHHH@SetPathName@
	DD	FLAT:?chrmgrSetPathName@@YAPAU_object@@PAU1@0@Z
	DD	01H
	ORG $+4
	DD	FLAT:??_C@_0N@GHFJHKGH@LoadRaceData@
	DD	FLAT:?chrmgrLoadRaceData@@YAPAU_object@@PAU1@0@Z
	DD	01H
	ORG $+4
	DD	FLAT:??_C@_0BC@DAGLOOBN@LoadLocalRaceData@
	DD	FLAT:?chrmgrLoadLocalRaceData@@YAPAU_object@@PAU1@0@Z
	DD	01H
	ORG $+4
	DD	FLAT:??_C@_0L@PAJHIMBB@CreateRace@
	DD	FLAT:?chrmgrCreateRace@@YAPAU_object@@PAU1@0@Z
	DD	01H
	ORG $+4
	DD	FLAT:??_C@_0L@NJAJBJJE@SelectRace@
	DD	FLAT:?chrmgrSelectRace@@YAPAU_object@@PAU1@0@Z
	DD	01H
	ORG $+4
	DD	FLAT:??_C@_0BK@DPJBIBKK@RegisterAttachingBoneName@
	DD	FLAT:?chrmgrRegisterAttachingBoneName@@YAPAU_object@@PAU1@0@Z
	DD	01H
	ORG $+4
	DD	FLAT:??_C@_0BD@JDOLIM@RegisterMotionMode@
	DD	FLAT:?chrmgrRegisterMotionMode@@YAPAU_object@@PAU1@0@Z
	DD	01H
	ORG $+4
	DD	FLAT:??_C@_0BG@OCGHAGOD@SetMotionRandomWeight@
	DD	FLAT:?chrmgrSetMotionRandomWeight@@YAPAU_object@@PAU1@0@Z
	DD	01H
	ORG $+4
	DD	FLAT:??_C@_0BF@PLDGGJNA@RegisterNormalAttack@
	DD	FLAT:?chrmgrRegisterNormalAttack@@YAPAU_object@@PAU1@0@Z
	DD	01H
	ORG $+4
	DD	FLAT:??_C@_0BD@DNKMMCHM@ReserveComboAttack@
	DD	FLAT:?chrmgrReserveComboAttack@@YAPAU_object@@PAU1@0@Z
	DD	01H
	ORG $+4
	DD	FLAT:??_C@_0BE@OMDLDMGO@RegisterComboAttack@
	DD	FLAT:?chrmgrRegisterComboAttack@@YAPAU_object@@PAU1@0@Z
	DD	01H
	ORG $+4
	DD	FLAT:??_C@_0BG@COOOACPC@ReserveComboAttackNew@
	DD	FLAT:?chrmgrReserveComboAttackNew@@YAPAU_object@@PAU1@0@Z
	DD	01H
	ORG $+4
	DD	FLAT:??_C@_0BH@NFBILPOJ@RegisterComboAttackNew@
	DD	FLAT:?chrmgrRegisterComboAttackNew@@YAPAU_object@@PAU1@0@Z
	DD	01H
	ORG $+4
	DD	FLAT:??_C@_0BD@JFBGJILK@RegisterMotionData@
	DD	FLAT:?chrmgrRegisterMotionData@@YAPAU_object@@PAU1@0@Z
	DD	01H
	ORG $+4
	DD	FLAT:??_C@_0BB@HNIEHNII@RegisterRaceName@
	DD	FLAT:?chrmgrRegisterRaceName@@YAPAU_object@@PAU1@0@Z
	DD	01H
	ORG $+4
	DD	FLAT:??_C@_0BE@HJOOIAPM@RegisterRaceSrcName@
	DD	FLAT:?chrmgrRegisterRaceSrcName@@YAPAU_object@@PAU1@0@Z
	DD	01H
	ORG $+4
	DD	FLAT:??_C@_0BI@FCNOCDC@RegisterCacheMotionData@
	DD	FLAT:?chrmgrRegisterCacheMotionData@@YAPAU_object@@PAU1@0@Z
	DD	01H
	ORG $+4
	DD	FLAT:??_C@_09FHCBCPJO@SetAffect@
	DD	FLAT:?chrmgrSetAffect@@YAPAU_object@@PAU1@0@Z
	DD	01H
	ORG $+4
	DD	FLAT:??_C@_0M@CGAMKJOI@SetEmoticon@
	DD	FLAT:?chrmgrSetEmoticon@@YAPAU_object@@PAU1@0@Z
	DD	01H
	ORG $+4
	DD	FLAT:??_C@_0BD@POCMNAMG@IsPossibleEmoticon@
	DD	FLAT:?chrmgrIsPossibleEmoticon@@YAPAU_object@@PAU1@0@Z
	DD	01H
	ORG $+4
	DD	FLAT:??_C@_0P@HDADHLLI@RegisterEffect@
	DD	FLAT:?chrmgrRegisterEffect@@YAPAU_object@@PAU1@0@Z
	DD	01H
	ORG $+4
	DD	FLAT:??_C@_0BE@EGCDGLCF@RegisterCacheEffect@
	DD	FLAT:?chrmgrRegisterCacheEffect@@YAPAU_object@@PAU1@0@Z
	DD	01H
	ORG $+4
	DD	FLAT:??_C@_0BE@LLPKKHNJ@RegisterPointEffect@
	DD	FLAT:?chrmgrRegisterPointEffect@@YAPAU_object@@PAU1@0@Z
	DD	01H
	ORG $+4
	DD	FLAT:??_C@_0BA@NPGECIIB@ShowPointEffect@
	DD	FLAT:?chrmgrShowPointEffect@@YAPAU_object@@PAU1@0@Z
	DD	01H
	ORG $+4
	DD	FLAT:??_C@_0BE@FHPGPJOE@ToggleDirectionLine@
	DD	FLAT:?chrmgrToggleDirectionLine@@YAPAU_object@@PAU1@0@Z
	DD	01H
	ORG $+4
	DD	FLAT:??_C@_0P@BIEBGJOI@SetMovingSpeed@
	DD	FLAT:?chrmgrSetMovingSpeed@@YAPAU_object@@PAU1@0@Z
	DD	01H
	ORG $+4
	DD	FLAT:??_C@_0L@BNCPBKEF@SetDustGap@
	DD	FLAT:?chrmgrSetDustGap@@YAPAU_object@@PAU1@0@Z
	DD	01H
	ORG $+4
	DD	FLAT:??_C@_0BA@JCKJBNGJ@SetHorseDustGap@
	DD	FLAT:?chrmgrSetHorseDustGap@@YAPAU_object@@PAU1@0@Z
	DD	01H
	ORG $+4
	DD	FLAT:??_C@_0BC@MEILBMBD@RegisterTitleName@
	DD	FLAT:?chrmgrRegisterTitleName@@YAPAU_object@@PAU1@0@Z
	DD	01H
	ORG $+4
	DD	FLAT:??_C@_0BC@GAIKKIED@RegisterNameColor@
	DD	FLAT:?chrmgrRegisterNameColor@@YAPAU_object@@PAU1@0@Z
	DD	01H
	ORG $+4
	DD	FLAT:??_C@_0BD@CPPGJOLK@RegisterTitleColor@
	DD	FLAT:?chrmgrRegisterTitleColor@@YAPAU_object@@PAU1@0@Z
	DD	01H
	ORG $+4
	DD	FLAT:??_C@_0O@LCDFPKLG@SetRaceHeight@
	DD	FLAT:?chrmgrSetRaceHeight@@YAPAU_object@@PAU1@0@Z
	DD	01H
	ORG $+4
	DD	FLAT:??_C@_0BI@FIJMCLIP@RegisterTitleSystemName@
	DD	FLAT:?chrmgrRegisterTitleSystemName@@YAPAU_object@@PAU1@0@Z
	DD	01H
	ORG $+4
	DD	FLAT:??_C@_0BJ@NGNDFGOC@RegisterTitleSystemColor@
	DD	FLAT:?chrmgrRegisterTitleSystemColor@@YAPAU_object@@PAU1@0@Z
	DD	01H
	ORG $+4
	DD	00H
	DD	00H
	ORG $+8
_DATA	ENDS
;	COMDAT ??_C@_0BH@PKDHJHLG@EFFECT_GYEONGGONG_BOOM@
CONST	SEGMENT
??_C@_0BH@PKDHJHLG@EFFECT_GYEONGGONG_BOOM@ DB 'EFFECT_GYEONGGONG_BOOM', 00H ; `string'
CONST	ENDS
;	COMDAT ??_C@_0CH@GLCKGADF@EFFECT_BP_PREMIUM_BATTLEPASS_CO@
CONST	SEGMENT
??_C@_0CH@GLCKGADF@EFFECT_BP_PREMIUM_BATTLEPASS_CO@ DB 'EFFECT_BP_PREMIUM'
	DB	'_BATTLEPASS_COMPLETED', 00H			; `string'
CONST	ENDS
;	COMDAT ??_C@_0CG@BINHAMPH@EFFECT_BP_NORMAL_BATTLEPASS_COM@
CONST	SEGMENT
??_C@_0CG@BINHAMPH@EFFECT_BP_NORMAL_BATTLEPASS_COM@ DB 'EFFECT_BP_NORMAL_'
	DB	'BATTLEPASS_COMPLETED', 00H			; `string'
CONST	ENDS
;	COMDAT ??_C@_0CE@JJOCGBAD@EFFECT_BP_PREMIUM_MISSION_COMPL@
CONST	SEGMENT
??_C@_0CE@JJOCGBAD@EFFECT_BP_PREMIUM_MISSION_COMPL@ DB 'EFFECT_BP_PREMIUM'
	DB	'_MISSION_COMPLETED', 00H			; `string'
CONST	ENDS
;	COMDAT ??_C@_0CD@ENDEMKHE@EFFECT_BP_NORMAL_MISSION_COMPLE@
CONST	SEGMENT
??_C@_0CD@ENDEMKHE@EFFECT_BP_NORMAL_MISSION_COMPLE@ DB 'EFFECT_BP_NORMAL_'
	DB	'MISSION_COMPLETED', 00H			; `string'
CONST	ENDS
;	COMDAT ??_C@_0M@IGMOHEMH@EFFECT_BOSS@
CONST	SEGMENT
??_C@_0M@IGMOHEMH@EFFECT_BOSS@ DB 'EFFECT_BOSS', 00H	; `string'
CONST	ENDS
;	COMDAT ??_C@_0M@ILAGKHAI@EFFECT_ACCE@
CONST	SEGMENT
??_C@_0M@ILAGKHAI@EFFECT_ACCE@ DB 'EFFECT_ACCE', 00H	; `string'
CONST	ENDS
;	COMDAT ??_C@_0BC@FAAHJKCH@EFFECT_ACCE_EQUIP@
CONST	SEGMENT
??_C@_0BC@FAAHJKCH@EFFECT_ACCE_EQUIP@ DB 'EFFECT_ACCE_EQUIP', 00H ; `string'
CONST	ENDS
;	COMDAT ??_C@_0BF@IIPPAKCH@EFFECT_ACCE_SUCCEDED@
CONST	SEGMENT
??_C@_0BF@IIPPAKCH@EFFECT_ACCE_SUCCEDED@ DB 'EFFECT_ACCE_SUCCEDED', 00H ; `string'
CONST	ENDS
;	COMDAT ??_C@_0BK@MMIJIEDM@EFFECT_LOVE_PENDANT_EQUIP@
CONST	SEGMENT
??_C@_0BK@MMIJIEDM@EFFECT_LOVE_PENDANT_EQUIP@ DB 'EFFECT_LOVE_PENDANT_EQU'
	DB	'IP', 00H					; `string'
CONST	ENDS
;	COMDAT ??_C@_0BM@DAACAMNP@EFFECT_HAPPINESS_RING_EQUIP@
CONST	SEGMENT
??_C@_0BM@DAACAMNP@EFFECT_HAPPINESS_RING_EQUIP@ DB 'EFFECT_HAPPINESS_RING'
	DB	'_EQUIP', 00H				; `string'
CONST	ENDS
;	COMDAT ??_C@_0BN@NGBKKLJA@EFFECT_HALLOWEEN_CANDY_EQUIP@
CONST	SEGMENT
??_C@_0BN@NGBKKLJA@EFFECT_HALLOWEEN_CANDY_EQUIP@ DB 'EFFECT_HALLOWEEN_CAN'
	DB	'DY_EQUIP', 00H				; `string'
CONST	ENDS
;	COMDAT ??_C@_0BK@JCIOPIOG@EFFECT_RAMADAN_RING_EQUIP@
CONST	SEGMENT
??_C@_0BK@JCIOPIOG@EFFECT_RAMADAN_RING_EQUIP@ DB 'EFFECT_RAMADAN_RING_EQU'
	DB	'IP', 00H					; `string'
CONST	ENDS
;	COMDAT ??_C@_0BB@KIEILKFM@EFFECT_AUTO_SPUP@
CONST	SEGMENT
??_C@_0BB@KIEILKFM@EFFECT_AUTO_SPUP@ DB 'EFFECT_AUTO_SPUP', 00H ; `string'
CONST	ENDS
;	COMDAT ??_C@_0BB@LPHIBMMP@EFFECT_AUTO_HPUP@
CONST	SEGMENT
??_C@_0BB@LPHIBMMP@EFFECT_AUTO_HPUP@ DB 'EFFECT_AUTO_HPUP', 00H ; `string'
CONST	ENDS
;	COMDAT ??_C@_0BH@JBAMKDED@EFFECT_PERCENT_DAMAGE3@
CONST	SEGMENT
??_C@_0BH@JBAMKDED@EFFECT_PERCENT_DAMAGE3@ DB 'EFFECT_PERCENT_DAMAGE3', 00H ; `string'
CONST	ENDS
;	COMDAT ??_C@_0BH@IIBHJCAC@EFFECT_PERCENT_DAMAGE2@
CONST	SEGMENT
??_C@_0BH@IIBHJCAC@EFFECT_PERCENT_DAMAGE2@ DB 'EFFECT_PERCENT_DAMAGE2', 00H ; `string'
CONST	ENDS
;	COMDAT ??_C@_0BH@KDDKMBMB@EFFECT_PERCENT_DAMAGE1@
CONST	SEGMENT
??_C@_0BH@KDDKMBMB@EFFECT_PERCENT_DAMAGE1@ DB 'EFFECT_PERCENT_DAMAGE1', 00H ; `string'
CONST	ENDS
;	COMDAT ??_C@_0BC@EDPMLGPA@EFFECT_FR_SUCCESS@
CONST	SEGMENT
??_C@_0BC@EDPMLGPA@EFFECT_FR_SUCCESS@ DB 'EFFECT_FR_SUCCESS', 00H ; `string'
CONST	ENDS
;	COMDAT ??_C@_0M@EPHKINAM@EFFECT_FAIL@
CONST	SEGMENT
??_C@_0M@EPHKINAM@EFFECT_FAIL@ DB 'EFFECT_FAIL', 00H	; `string'
CONST	ENDS
;	COMDAT ??_C@_0P@OAEAICFL@EFFECT_SUCCESS@
CONST	SEGMENT
??_C@_0P@OAEAICFL@EFFECT_SUCCESS@ DB 'EFFECT_SUCCESS', 00H ; `string'
CONST	ENDS
;	COMDAT ??_C@_0P@JLGAELEM@EFFECT_REFINED@
CONST	SEGMENT
??_C@_0P@JLGAELEM@EFFECT_REFINED@ DB 'EFFECT_REFINED', 00H ; `string'
CONST	ENDS
;	COMDAT ??_C@_0O@MBIOGBFC@EFFECT_EMPIRE@
CONST	SEGMENT
??_C@_0O@MBIOGBFC@EFFECT_EMPIRE@ DB 'EFFECT_EMPIRE', 00H ; `string'
CONST	ENDS
;	COMDAT ??_C@_0BA@LLIBADMN@EFFECT_EMOTICON@
CONST	SEGMENT
??_C@_0BA@LLIBADMN@EFFECT_EMOTICON@ DB 'EFFECT_EMOTICON', 00H ; `string'
CONST	ENDS
;	COMDAT ??_C@_0O@LEENICEP@EFFECT_AFFECT@
CONST	SEGMENT
??_C@_0O@LEENICEP@EFFECT_AFFECT@ DB 'EFFECT_AFFECT', 00H ; `string'
CONST	ENDS
;	COMDAT ??_C@_0O@FKAHCBBH@EFFECT_WEAPON@
CONST	SEGMENT
??_C@_0O@FKAHCBBH@EFFECT_WEAPON@ DB 'EFFECT_WEAPON', 00H ; `string'
CONST	ENDS
;	COMDAT ??_C@_0BA@LEFHDKNA@EFFECT_SPIN_TOP@
CONST	SEGMENT
??_C@_0BA@LEFHDKNA@EFFECT_SPIN_TOP@ DB 'EFFECT_SPIN_TOP', 00H ; `string'
CONST	ENDS
;	COMDAT ??_C@_0BD@KGHDJJHH@EFFECT_FIRECRACKER@
CONST	SEGMENT
??_C@_0BD@KGHDJJHH@EFFECT_FIRECRACKER@ DB 'EFFECT_FIRECRACKER', 00H ; `string'
CONST	ENDS
;	COMDAT ??_C@_0N@IIDAKFLA@EFFECT_DODGE@
CONST	SEGMENT
??_C@_0N@IIDAKFLA@EFFECT_DODGE@ DB 'EFFECT_DODGE', 00H	; `string'
CONST	ENDS
;	COMDAT ??_C@_0N@FHECDOCO@EFFECT_BLOCK@
CONST	SEGMENT
??_C@_0N@FHECDOCO@EFFECT_BLOCK@ DB 'EFFECT_BLOCK', 00H	; `string'
CONST	ENDS
;	COMDAT ??_C@_0BB@MJKAFPM@EFFECT_PENETRATE@
CONST	SEGMENT
??_C@_0BB@MJKAFPM@EFFECT_PENETRATE@ DB 'EFFECT_PENETRATE', 00H ; `string'
CONST	ENDS
;	COMDAT ??_C@_0BD@NFLNKENB@EFFECT_DXUP_PURPLE@
CONST	SEGMENT
??_C@_0BD@NFLNKENB@EFFECT_DXUP_PURPLE@ DB 'EFFECT_DXUP_PURPLE', 00H ; `string'
CONST	ENDS
;	COMDAT ??_C@_0BF@KGBLOADC@EFFECT_SPEEDUP_GREEN@
CONST	SEGMENT
??_C@_0BF@KGBLOADC@EFFECT_SPEEDUP_GREEN@ DB 'EFFECT_SPEEDUP_GREEN', 00H ; `string'
CONST	ENDS
;	COMDAT ??_C@_0BB@OMECPCHO@EFFECT_SPUP_BLUE@
CONST	SEGMENT
??_C@_0BB@OMECPCHO@EFFECT_SPUP_BLUE@ DB 'EFFECT_SPUP_BLUE', 00H ; `string'
CONST	ENDS
;	COMDAT ??_C@_0BA@FDCHOHC@EFFECT_HPUP_RED@
CONST	SEGMENT
??_C@_0BA@FDCHOHC@EFFECT_HPUP_RED@ DB 'EFFECT_HPUP_RED', 00H ; `string'
CONST	ENDS
;	COMDAT ??_C@_0P@KGMCLBIE@EFFECT_SKILLUP@
CONST	SEGMENT
??_C@_0P@KGMCLBIE@EFFECT_SKILLUP@ DB 'EFFECT_SKILLUP', 00H ; `string'
CONST	ENDS
;	COMDAT ??_C@_0P@KMPGDLGB@EFFECT_LEVELUP@
CONST	SEGMENT
??_C@_0P@KMPGDLGB@EFFECT_LEVELUP@ DB 'EFFECT_LEVELUP', 00H ; `string'
CONST	ENDS
;	COMDAT ??_C@_0BH@LJEMOOEK@EFFECT_DAMAGE_CRITICAL@
CONST	SEGMENT
??_C@_0BH@LJEMOOEK@EFFECT_DAMAGE_CRITICAL@ DB 'EFFECT_DAMAGE_CRITICAL', 00H ; `string'
CONST	ENDS
;	COMDAT ??_C@_0BJ@OOAALGB@EFFECT_DAMAGE_TARGETMISS@
CONST	SEGMENT
??_C@_0BJ@OOAALGB@EFFECT_DAMAGE_TARGETMISS@ DB 'EFFECT_DAMAGE_TARGETMISS', 00H ; `string'
CONST	ENDS
;	COMDAT ??_C@_0BD@HAKEDKPM@EFFECT_DAMAGE_MISS@
CONST	SEGMENT
??_C@_0BD@HAKEDKPM@EFFECT_DAMAGE_MISS@ DB 'EFFECT_DAMAGE_MISS', 00H ; `string'
CONST	ENDS
;	COMDAT ??_C@_0BF@JBDJDOOB@EFFECT_DAMAGE_POISON@
CONST	SEGMENT
??_C@_0BF@JBDJDOOB@EFFECT_DAMAGE_POISON@ DB 'EFFECT_DAMAGE_POISON', 00H ; `string'
CONST	ENDS
;	COMDAT ??_C@_0BK@DDHKDNJN@EFFECT_DAMAGE_SELFDAMAGE2@
CONST	SEGMENT
??_C@_0BK@DDHKDNJN@EFFECT_DAMAGE_SELFDAMAGE2@ DB 'EFFECT_DAMAGE_SELFDAMAG'
	DB	'E2', 00H					; `string'
CONST	ENDS
;	COMDAT ??_C@_0BJ@LBPHCJON@EFFECT_DAMAGE_SELFDAMAGE@
CONST	SEGMENT
??_C@_0BJ@LBPHCJON@EFFECT_DAMAGE_SELFDAMAGE@ DB 'EFFECT_DAMAGE_SELFDAMAGE'
	DB	00H						; `string'
CONST	ENDS
;	COMDAT ??_C@_0BJ@EHADMOLO@EFFECT_DAMAGE_NOT_TARGET@
CONST	SEGMENT
??_C@_0BJ@EHADMOLO@EFFECT_DAMAGE_NOT_TARGET@ DB 'EFFECT_DAMAGE_NOT_TARGET'
	DB	00H						; `string'
CONST	ENDS
;	COMDAT ??_C@_0BF@CKINGCNE@EFFECT_DAMAGE_TARGET@
CONST	SEGMENT
??_C@_0BF@CKINGCNE@EFFECT_DAMAGE_TARGET@ DB 'EFFECT_DAMAGE_TARGET', 00H ; `string'
CONST	ENDS
;	COMDAT ??_C@_0BA@DGHICDHC@EFFECT_CRITICAL@
CONST	SEGMENT
??_C@_0BA@DGHICDHC@EFFECT_CRITICAL@ DB 'EFFECT_CRITICAL', 00H ; `string'
CONST	ENDS
;	COMDAT ??_C@_0O@KHEKIEOF@EFFECT_TARGET@
CONST	SEGMENT
??_C@_0O@KHEKIEOF@EFFECT_TARGET@ DB 'EFFECT_TARGET', 00H ; `string'
CONST	ENDS
;	COMDAT ??_C@_0O@IICIGFKH@EFFECT_SELECT@
CONST	SEGMENT
??_C@_0O@IICIGFKH@EFFECT_SELECT@ DB 'EFFECT_SELECT', 00H ; `string'
CONST	ENDS
;	COMDAT ??_C@_0BH@JDKPGICF@EFFECT_ELECTRIC_ATTACH@
CONST	SEGMENT
??_C@_0BH@JDKPGICF@EFFECT_ELECTRIC_ATTACH@ DB 'EFFECT_ELECTRIC_ATTACH', 00H ; `string'
CONST	ENDS
;	COMDAT ??_C@_0BE@DDJNHBFG@EFFECT_ELECTRIC_HIT@
CONST	SEGMENT
??_C@_0BE@DDJNHBFG@EFFECT_ELECTRIC_HIT@ DB 'EFFECT_ELECTRIC_HIT', 00H ; `string'
CONST	ENDS
;	COMDAT ??_C@_0BH@LIICDLOG@EFFECT_ELECTRIC_ATTACK@
CONST	SEGMENT
??_C@_0BH@LIICDLOG@EFFECT_ELECTRIC_ATTACK@ DB 'EFFECT_ELECTRIC_ATTACK', 00H ; `string'
CONST	ENDS
;	COMDAT ??_C@_0BE@MMPNMHBO@EFFECT_FLAME_ATTACH@
CONST	SEGMENT
??_C@_0BE@MMPNMHBO@EFFECT_FLAME_ATTACH@ DB 'EFFECT_FLAME_ATTACH', 00H ; `string'
CONST	ENDS
;	COMDAT ??_C@_0BB@GKHDFHPF@EFFECT_FLAME_HIT@
CONST	SEGMENT
??_C@_0BB@GKHDFHPF@EFFECT_FLAME_HIT@ DB 'EFFECT_FLAME_HIT', 00H ; `string'
CONST	ENDS
;	COMDAT ??_C@_0BE@OHNAJENN@EFFECT_FLAME_ATTACK@
CONST	SEGMENT
??_C@_0BE@OHNAJENN@EFFECT_FLAME_ATTACK@ DB 'EFFECT_FLAME_ATTACK', 00H ; `string'
CONST	ENDS
;	COMDAT ??_C@_0L@MLLFBJIP@EFFECT_HIT@
CONST	SEGMENT
??_C@_0L@MLLFBJIP@EFFECT_HIT@ DB 'EFFECT_HIT', 00H	; `string'
CONST	ENDS
;	COMDAT ??_C@_0M@KHLHAKMF@EFFECT_STUN@
CONST	SEGMENT
??_C@_0M@KHLHAKMF@EFFECT_STUN@ DB 'EFFECT_STUN', 00H	; `string'
CONST	ENDS
;	COMDAT ??_C@_0BC@IMCHDDJP@EFFECT_HORSE_DUST@
CONST	SEGMENT
??_C@_0BC@IMCHDDJP@EFFECT_HORSE_DUST@ DB 'EFFECT_HORSE_DUST', 00H ; `string'
CONST	ENDS
;	COMDAT ??_C@_0M@HJGLKAFL@EFFECT_DUST@
CONST	SEGMENT
??_C@_0M@HJGLKAFL@EFFECT_DUST@ DB 'EFFECT_DUST', 00H	; `string'
CONST	ENDS
;	COMDAT ??_C@_0BE@IMMEKAGC@EFFECT_SPAWN_APPEAR@
CONST	SEGMENT
??_C@_0BE@IMMEKAGC@EFFECT_SPAWN_APPEAR@ DB 'EFFECT_SPAWN_APPEAR', 00H ; `string'
CONST	ENDS
;	COMDAT ??_C@_0BH@CICELGM@EFFECT_SPAWN_DISAPPEAR@
CONST	SEGMENT
??_C@_0BH@CICELGM@EFFECT_SPAWN_DISAPPEAR@ DB 'EFFECT_SPAWN_DISAPPEAR', 00H ; `string'
CONST	ENDS
;	COMDAT ??_C@_0BA@OIOEHMPC@NAMECOLOR_EXTRA@
CONST	SEGMENT
??_C@_0BA@OIOEHMPC@NAMECOLOR_EXTRA@ DB 'NAMECOLOR_EXTRA', 00H ; `string'
CONST	ENDS
;	COMDAT ??_C@_0P@MAIPKLOP@NAMECOLOR_SHOP@
CONST	SEGMENT
??_C@_0P@MAIPKLOP@NAMECOLOR_SHOP@ DB 'NAMECOLOR_SHOP', 00H ; `string'
CONST	ENDS
;	COMDAT ??_C@_0BA@LCMPNPC@NAMECOLOR_METIN@
CONST	SEGMENT
??_C@_0BA@LCMPNPC@NAMECOLOR_METIN@ DB 'NAMECOLOR_METIN', 00H ; `string'
CONST	ENDS
;	COMDAT ??_C@_0BD@KCIPKGLN@NAMECOLOR_WAYPOINT@
CONST	SEGMENT
??_C@_0BD@KCIPKGLN@NAMECOLOR_WAYPOINT@ DB 'NAMECOLOR_WAYPOINT', 00H ; `string'
CONST	ENDS
;	COMDAT ??_C@_0P@FMPJHCIG@NAMECOLOR_WARP@
CONST	SEGMENT
??_C@_0P@FMPJHCIG@NAMECOLOR_WARP@ DB 'NAMECOLOR_WARP', 00H ; `string'
CONST	ENDS
;	COMDAT ??_C@_0BA@HFPCKBBO@NAMECOLOR_PARTY@
CONST	SEGMENT
??_C@_0BA@HFPCKBBO@NAMECOLOR_PARTY@ DB 'NAMECOLOR_PARTY', 00H ; `string'
CONST	ENDS
;	COMDAT ??_C@_0O@JHPLDMIB@NAMECOLOR_PVP@
CONST	SEGMENT
??_C@_0O@JHPLDMIB@NAMECOLOR_PVP@ DB 'NAMECOLOR_PVP', 00H ; `string'
CONST	ENDS
;	COMDAT ??_C@_0N@LNOCDEOD@NAMECOLOR_PK@
CONST	SEGMENT
??_C@_0N@LNOCDEOD@NAMECOLOR_PK@ DB 'NAMECOLOR_PK', 00H	; `string'
CONST	ENDS
;	COMDAT ??_C@_0P@KKNBBHPK@NAMECOLOR_FUNC@
CONST	SEGMENT
??_C@_0P@KKNBBHPK@NAMECOLOR_FUNC@ DB 'NAMECOLOR_FUNC', 00H ; `string'
CONST	ENDS
;	COMDAT ??_C@_0BE@NDFEFIME@NAMECOLOR_EMPIRE_PC@
CONST	SEGMENT
??_C@_0BE@NDFEFIME@NAMECOLOR_EMPIRE_PC@ DB 'NAMECOLOR_EMPIRE_PC', 00H ; `string'
CONST	ENDS
;	COMDAT ??_C@_0BF@OJCIHDLC@NAMECOLOR_EMPIRE_NPC@
CONST	SEGMENT
??_C@_0BF@OJCIHDLC@NAMECOLOR_EMPIRE_NPC@ DB 'NAMECOLOR_EMPIRE_NPC', 00H ; `string'
CONST	ENDS
;	COMDAT ??_C@_0BF@PFPMAJFA@NAMECOLOR_EMPIRE_MOB@
CONST	SEGMENT
??_C@_0BF@PFPMAJFA@NAMECOLOR_EMPIRE_MOB@ DB 'NAMECOLOR_EMPIRE_MOB', 00H ; `string'
CONST	ENDS
;	COMDAT ??_C@_0N@HFDLLOOL@NAMECOLOR_PC@
CONST	SEGMENT
??_C@_0N@HFDLLOOL@NAMECOLOR_PC@ DB 'NAMECOLOR_PC', 00H	; `string'
CONST	ENDS
;	COMDAT ??_C@_0O@ECFPCBAN@NAMECOLOR_NPC@
CONST	SEGMENT
??_C@_0O@ECFPCBAN@NAMECOLOR_NPC@ DB 'NAMECOLOR_NPC', 00H ; `string'
CONST	ENDS
;	COMDAT ??_C@_0O@FOILFLOP@NAMECOLOR_MOB@
CONST	SEGMENT
??_C@_0O@FOILFLOP@NAMECOLOR_MOB@ DB 'NAMECOLOR_MOB', 00H ; `string'
CONST	ENDS
;	COMDAT ??_C@_0BJ@NGNDFGOC@RegisterTitleSystemColor@
CONST	SEGMENT
??_C@_0BJ@NGNDFGOC@RegisterTitleSystemColor@ DB 'RegisterTitleSystemColor'
	DB	00H						; `string'
CONST	ENDS
;	COMDAT ??_C@_0BI@FIJMCLIP@RegisterTitleSystemName@
CONST	SEGMENT
??_C@_0BI@FIJMCLIP@RegisterTitleSystemName@ DB 'RegisterTitleSystemName', 00H ; `string'
CONST	ENDS
;	COMDAT ??_C@_0O@LCDFPKLG@SetRaceHeight@
CONST	SEGMENT
??_C@_0O@LCDFPKLG@SetRaceHeight@ DB 'SetRaceHeight', 00H ; `string'
CONST	ENDS
;	COMDAT ??_C@_0BD@CPPGJOLK@RegisterTitleColor@
CONST	SEGMENT
??_C@_0BD@CPPGJOLK@RegisterTitleColor@ DB 'RegisterTitleColor', 00H ; `string'
CONST	ENDS
;	COMDAT ??_C@_0BC@GAIKKIED@RegisterNameColor@
CONST	SEGMENT
??_C@_0BC@GAIKKIED@RegisterNameColor@ DB 'RegisterNameColor', 00H ; `string'
CONST	ENDS
;	COMDAT ??_C@_0BC@MEILBMBD@RegisterTitleName@
CONST	SEGMENT
??_C@_0BC@MEILBMBD@RegisterTitleName@ DB 'RegisterTitleName', 00H ; `string'
CONST	ENDS
;	COMDAT ??_C@_0BA@JCKJBNGJ@SetHorseDustGap@
CONST	SEGMENT
??_C@_0BA@JCKJBNGJ@SetHorseDustGap@ DB 'SetHorseDustGap', 00H ; `string'
CONST	ENDS
;	COMDAT ??_C@_0L@BNCPBKEF@SetDustGap@
CONST	SEGMENT
??_C@_0L@BNCPBKEF@SetDustGap@ DB 'SetDustGap', 00H	; `string'
CONST	ENDS
;	COMDAT ??_C@_0P@BIEBGJOI@SetMovingSpeed@
CONST	SEGMENT
??_C@_0P@BIEBGJOI@SetMovingSpeed@ DB 'SetMovingSpeed', 00H ; `string'
CONST	ENDS
;	COMDAT ??_C@_0BE@FHPGPJOE@ToggleDirectionLine@
CONST	SEGMENT
??_C@_0BE@FHPGPJOE@ToggleDirectionLine@ DB 'ToggleDirectionLine', 00H ; `string'
CONST	ENDS
;	COMDAT ??_C@_0BA@NPGECIIB@ShowPointEffect@
CONST	SEGMENT
??_C@_0BA@NPGECIIB@ShowPointEffect@ DB 'ShowPointEffect', 00H ; `string'
CONST	ENDS
;	COMDAT ??_C@_0BE@LLPKKHNJ@RegisterPointEffect@
CONST	SEGMENT
??_C@_0BE@LLPKKHNJ@RegisterPointEffect@ DB 'RegisterPointEffect', 00H ; `string'
CONST	ENDS
;	COMDAT ??_C@_0BE@EGCDGLCF@RegisterCacheEffect@
CONST	SEGMENT
??_C@_0BE@EGCDGLCF@RegisterCacheEffect@ DB 'RegisterCacheEffect', 00H ; `string'
CONST	ENDS
;	COMDAT ??_C@_0P@HDADHLLI@RegisterEffect@
CONST	SEGMENT
??_C@_0P@HDADHLLI@RegisterEffect@ DB 'RegisterEffect', 00H ; `string'
CONST	ENDS
;	COMDAT ??_C@_0BD@POCMNAMG@IsPossibleEmoticon@
CONST	SEGMENT
??_C@_0BD@POCMNAMG@IsPossibleEmoticon@ DB 'IsPossibleEmoticon', 00H ; `string'
CONST	ENDS
;	COMDAT ??_C@_0M@CGAMKJOI@SetEmoticon@
CONST	SEGMENT
??_C@_0M@CGAMKJOI@SetEmoticon@ DB 'SetEmoticon', 00H	; `string'
CONST	ENDS
;	COMDAT ??_C@_09FHCBCPJO@SetAffect@
CONST	SEGMENT
??_C@_09FHCBCPJO@SetAffect@ DB 'SetAffect', 00H		; `string'
CONST	ENDS
;	COMDAT ??_C@_0BI@FCNOCDC@RegisterCacheMotionData@
CONST	SEGMENT
??_C@_0BI@FCNOCDC@RegisterCacheMotionData@ DB 'RegisterCacheMotionData', 00H ; `string'
CONST	ENDS
;	COMDAT ??_C@_0BE@HJOOIAPM@RegisterRaceSrcName@
CONST	SEGMENT
??_C@_0BE@HJOOIAPM@RegisterRaceSrcName@ DB 'RegisterRaceSrcName', 00H ; `string'
CONST	ENDS
;	COMDAT ??_C@_0BB@HNIEHNII@RegisterRaceName@
CONST	SEGMENT
??_C@_0BB@HNIEHNII@RegisterRaceName@ DB 'RegisterRaceName', 00H ; `string'
CONST	ENDS
;	COMDAT ??_C@_0BD@JFBGJILK@RegisterMotionData@
CONST	SEGMENT
??_C@_0BD@JFBGJILK@RegisterMotionData@ DB 'RegisterMotionData', 00H ; `string'
CONST	ENDS
;	COMDAT ??_C@_0BH@NFBILPOJ@RegisterComboAttackNew@
CONST	SEGMENT
??_C@_0BH@NFBILPOJ@RegisterComboAttackNew@ DB 'RegisterComboAttackNew', 00H ; `string'
CONST	ENDS
;	COMDAT ??_C@_0BG@COOOACPC@ReserveComboAttackNew@
CONST	SEGMENT
??_C@_0BG@COOOACPC@ReserveComboAttackNew@ DB 'ReserveComboAttackNew', 00H ; `string'
CONST	ENDS
;	COMDAT ??_C@_0BE@OMDLDMGO@RegisterComboAttack@
CONST	SEGMENT
??_C@_0BE@OMDLDMGO@RegisterComboAttack@ DB 'RegisterComboAttack', 00H ; `string'
CONST	ENDS
;	COMDAT ??_C@_0BD@DNKMMCHM@ReserveComboAttack@
CONST	SEGMENT
??_C@_0BD@DNKMMCHM@ReserveComboAttack@ DB 'ReserveComboAttack', 00H ; `string'
CONST	ENDS
;	COMDAT ??_C@_0BF@PLDGGJNA@RegisterNormalAttack@
CONST	SEGMENT
??_C@_0BF@PLDGGJNA@RegisterNormalAttack@ DB 'RegisterNormalAttack', 00H ; `string'
CONST	ENDS
;	COMDAT ??_C@_0BG@OCGHAGOD@SetMotionRandomWeight@
CONST	SEGMENT
??_C@_0BG@OCGHAGOD@SetMotionRandomWeight@ DB 'SetMotionRandomWeight', 00H ; `string'
CONST	ENDS
;	COMDAT ??_C@_0BD@JDOLIM@RegisterMotionMode@
CONST	SEGMENT
??_C@_0BD@JDOLIM@RegisterMotionMode@ DB 'RegisterMotionMode', 00H ; `string'
CONST	ENDS
;	COMDAT ??_C@_0BK@DPJBIBKK@RegisterAttachingBoneName@
CONST	SEGMENT
??_C@_0BK@DPJBIBKK@RegisterAttachingBoneName@ DB 'RegisterAttachingBoneNa'
	DB	'me', 00H					; `string'
CONST	ENDS
;	COMDAT ??_C@_0L@NJAJBJJE@SelectRace@
CONST	SEGMENT
??_C@_0L@NJAJBJJE@SelectRace@ DB 'SelectRace', 00H	; `string'
CONST	ENDS
;	COMDAT ??_C@_0L@PAJHIMBB@CreateRace@
CONST	SEGMENT
??_C@_0L@PAJHIMBB@CreateRace@ DB 'CreateRace', 00H	; `string'
CONST	ENDS
;	COMDAT ??_C@_0BC@DAGLOOBN@LoadLocalRaceData@
CONST	SEGMENT
??_C@_0BC@DAGLOOBN@LoadLocalRaceData@ DB 'LoadLocalRaceData', 00H ; `string'
CONST	ENDS
;	COMDAT ??_C@_0N@GHFJHKGH@LoadRaceData@
CONST	SEGMENT
??_C@_0N@GHFJHKGH@LoadRaceData@ DB 'LoadRaceData', 00H	; `string'
CONST	ENDS
;	COMDAT ??_C@_0M@LPKBIHHH@SetPathName@
CONST	SEGMENT
??_C@_0M@LPKBIHHH@SetPathName@ DB 'SetPathName', 00H	; `string'
CONST	ENDS
;	COMDAT ??_C@_0BA@HPLHAKEG@AppendShapeSkin@
CONST	SEGMENT
??_C@_0BA@HPLHAKEG@AppendShapeSkin@ DB 'AppendShapeSkin', 00H ; `string'
CONST	ENDS
;	COMDAT ??_C@_0O@MHKAJHDG@SetShapeModel@
CONST	SEGMENT
??_C@_0O@MHKAJHDG@SetShapeModel@ DB 'SetShapeModel', 00H ; `string'
CONST	ENDS
;	COMDAT ??_C@_0N@GBMNDJED@GetPickedVID@
CONST	SEGMENT
??_C@_0N@GBMNDJED@GetPickedVID@ DB 'GetPickedVID', 00H	; `string'
CONST	ENDS
;	COMDAT ??_C@_0L@HLMOHPB@GetVIDInfo@
CONST	SEGMENT
??_C@_0L@HLMOHPB@GetVIDInfo@ DB 'GetVIDInfo', 00H	; `string'
CONST	ENDS
;	COMDAT ??_C@_0BC@BKLPPNOE@SetEmpireNameMode@
CONST	SEGMENT
??_C@_0BC@BKLPPNOE@SetEmpireNameMode@ DB 'SetEmpireNameMode', 00H ; `string'
CONST	ENDS
;	COMDAT ??_C@_0CA@LHMBKIIP@MainCharacter?5has?5not?5selected?$CB@
CONST	SEGMENT
??_C@_0CA@LHMBKIIP@MainCharacter?5has?5not?5selected?$CB@ DB 'MainCharact'
	DB	'er has not selected!', 00H			; `string'
CONST	ENDS
;	COMDAT ??_C@_0BA@ONNGPENO@MovingSpeed?5?$DM?50@
CONST	SEGMENT
??_C@_0BA@ONNGPENO@MovingSpeed?5?$DM?50@ DB 'MovingSpeed < 0', 00H ; `string'
CONST	ENDS
;	COMDAT ??_C@_0BP@GOFKKANP@Failed?5to?5load?5race?5data?5?3?5?$CFs?6@
CONST	SEGMENT
??_C@_0BP@GOFKKANP@Failed?5to?5load?5race?5data?5?3?5?$CFs?6@ DB 'Failed '
	DB	'to load race data : %s', 0aH, 00H		; `string'
CONST	ENDS
;	COMDAT ??_C@_0CA@PANOAEAA@Failed?5to?5SetMotionRandomWeight@
CONST	SEGMENT
??_C@_0CA@PANOAEAA@Failed?5to?5SetMotionRandomWeight@ DB 'Failed to SetMo'
	DB	'tionRandomWeight', 00H			; `string'
CONST	ENDS
;	COMDAT ??_C@_0BL@MNEPJNPF@RaceData?5has?5not?5selected?$CB@
CONST	SEGMENT
??_C@_0BL@MNEPJNPF@RaceData?5has?5not?5selected?$CB@ DB 'RaceData has not'
	DB	' selected!', 00H				; `string'
CONST	ENDS
;	COMDAT ??_C@_0DD@OOILPMAD@VID?5?$CFd?5?$CIisRegistered?$DN?$CFd?0?5isAliv@
CONST	SEGMENT
??_C@_0DD@OOILPMAD@VID?5?$CFd?5?$CIisRegistered?$DN?$CFd?0?5isAliv@ DB 'V'
	DB	'ID %d (isRegistered=%d, isAlive=%d, isDead=%d) %s', 00H ; `string'
CONST	ENDS
;	COMDAT ??_C@_0N@DAOJGGNH@pos?$DN?$CI?$CFd?0?5?$CFd?$CJ@
CONST	SEGMENT
??_C@_0N@DAOJGGNH@pos?$DN?$CI?$CFd?0?5?$CFd?$CJ@ DB 'pos=(%d, %d)', 00H ; `string'
PUBLIC	?GetFileName@CResource@@QBEPBDXZ		; CResource::GetFileName
PUBLIC	?Instance@?$CSingleton@VCRaceManager@@@@SAAAVCRaceManager@@XZ ; CSingleton<CRaceManager>::Instance
PUBLIC	?initchrmgr@@YAXXZ				; initchrmgr
PUBLIC	?chrmgrSetRaceHeight@@YAPAU_object@@PAU1@0@Z	; chrmgrSetRaceHeight
PUBLIC	?chrmgrIsPossibleEmoticon@@YAPAU_object@@PAU1@0@Z ; chrmgrIsPossibleEmoticon
PUBLIC	?chrmgrSetEmoticon@@YAPAU_object@@PAU1@0@Z	; chrmgrSetEmoticon
PUBLIC	?IsPossibleEmoticon@CPythonCharacterManager@@QAE_NK@Z ; CPythonCharacterManager::IsPossibleEmoticon
PUBLIC	?SetEmoticon@CPythonCharacterManager@@QAEXKK@Z	; CPythonCharacterManager::SetEmoticon
PUBLIC	?chrmgrSetAffect@@YAPAU_object@@PAU1@0@Z	; chrmgrSetAffect
PUBLIC	?SCRIPT_SetAffect@CPythonCharacterManager@@QAEXKKH@Z ; CPythonCharacterManager::SCRIPT_SetAffect
PUBLIC	?chrmgrShowPointEffect@@YAPAU_object@@PAU1@0@Z	; chrmgrShowPointEffect
PUBLIC	?chrmgrRegisterPointEffect@@YAPAU_object@@PAU1@0@Z ; chrmgrRegisterPointEffect
PUBLIC	?chrmgrToggleDirectionLine@@YAPAU_object@@PAU1@0@Z ; chrmgrToggleDirectionLine
PUBLIC	?chrmgrSetHorseDustGap@@YAPAU_object@@PAU1@0@Z	; chrmgrSetHorseDustGap
PUBLIC	?chrmgrSetDustGap@@YAPAU_object@@PAU1@0@Z	; chrmgrSetDustGap
PUBLIC	?chrmgrRegisterCacheEffect@@YAPAU_object@@PAU1@0@Z ; chrmgrRegisterCacheEffect
PUBLIC	?chrmgrRegisterEffect@@YAPAU_object@@PAU1@0@Z	; chrmgrRegisterEffect
PUBLIC	?chrmgrSetMovingSpeed@@YAPAU_object@@PAU1@0@Z	; chrmgrSetMovingSpeed
PUBLIC	?chrmgrAppendShapeSkin@@YAPAU_object@@PAU1@0@Z	; chrmgrAppendShapeSkin
PUBLIC	?chrmgrSetShapeModel@@YAPAU_object@@PAU1@0@Z	; chrmgrSetShapeModel
PUBLIC	?chrmgrRegisterRaceName@@YAPAU_object@@PAU1@0@Z	; chrmgrRegisterRaceName
PUBLIC	?chrmgrRegisterRaceSrcName@@YAPAU_object@@PAU1@0@Z ; chrmgrRegisterRaceSrcName
PUBLIC	?chrmgrRegisterMotionData@@YAPAU_object@@PAU1@0@Z ; chrmgrRegisterMotionData
PUBLIC	?chrmgrRegisterCacheMotionData@@YAPAU_object@@PAU1@0@Z ; chrmgrRegisterCacheMotionData
PUBLIC	?chrmgrLoadLocalRaceData@@YAPAU_object@@PAU1@0@Z ; chrmgrLoadLocalRaceData
PUBLIC	?chrmgrLoadRaceData@@YAPAU_object@@PAU1@0@Z	; chrmgrLoadRaceData
PUBLIC	?chrmgrRegisterComboAttackNew@@YAPAU_object@@PAU1@0@Z ; chrmgrRegisterComboAttackNew
PUBLIC	?chrmgrReserveComboAttackNew@@YAPAU_object@@PAU1@0@Z ; chrmgrReserveComboAttackNew
PUBLIC	?chrmgrRegisterComboAttack@@YAPAU_object@@PAU1@0@Z ; chrmgrRegisterComboAttack
PUBLIC	?chrmgrReserveComboAttack@@YAPAU_object@@PAU1@0@Z ; chrmgrReserveComboAttack
PUBLIC	?chrmgrRegisterNormalAttack@@YAPAU_object@@PAU1@0@Z ; chrmgrRegisterNormalAttack
PUBLIC	?chrmgrSetMotionRandomWeight@@YAPAU_object@@PAU1@0@Z ; chrmgrSetMotionRandomWeight
PUBLIC	?chrmgrRegisterMotionMode@@YAPAU_object@@PAU1@0@Z ; chrmgrRegisterMotionMode
PUBLIC	?chrmgrRegisterAttachingBoneName@@YAPAU_object@@PAU1@0@Z ; chrmgrRegisterAttachingBoneName
PUBLIC	?chrmgrSelectRace@@YAPAU_object@@PAU1@0@Z	; chrmgrSelectRace
PUBLIC	?chrmgrCreateRace@@YAPAU_object@@PAU1@0@Z	; chrmgrCreateRace
PUBLIC	?chrmgrSetPathName@@YAPAU_object@@PAU1@0@Z	; chrmgrSetPathName
PUBLIC	?chrmgrGetVIDInfo@@YAPAU_object@@PAU1@0@Z	; chrmgrGetVIDInfo
PUBLIC	?chrmgrGetPickedVID@@YAPAU_object@@PAU1@0@Z	; chrmgrGetPickedVID
PUBLIC	?chrmgrRegisterTitleSystemColor@@YAPAU_object@@PAU1@0@Z ; chrmgrRegisterTitleSystemColor
PUBLIC	?chrmgrRegisterTitleSystemName@@YAPAU_object@@PAU1@0@Z ; chrmgrRegisterTitleSystemName
PUBLIC	?chrmgrRegisterTitleColor@@YAPAU_object@@PAU1@0@Z ; chrmgrRegisterTitleColor
PUBLIC	?chrmgrRegisterNameColor@@YAPAU_object@@PAU1@0@Z ; chrmgrRegisterNameColor
PUBLIC	?chrmgrRegisterTitleName@@YAPAU_object@@PAU1@0@Z ; chrmgrRegisterTitleName
PUBLIC	?chrmgrSetEmpireNameMode@@YAPAU_object@@PAU1@0@Z ; chrmgrSetEmpireNameMode
;	COMDAT xdata$x
xdata$x	SEGMENT
__ehfuncinfo$?chrmgrRegisterRaceSrcName@@YAPAU_object@@PAU1@0@Z DQ 00000000219930522r ; 4.45598e-314
	DD	FLAT:__unwindtable$?chrmgrRegisterRaceSrcName@@YAPAU_object@@PAU1@0@Z
	DQ	00000000000000000r		; 0
	DQ	00000000000000000r		; 0
	DQ	00000000100000000r		; 2.122e-314
__unwindtable$?chrmgrRegisterRaceSrcName@@YAPAU_object@@PAU1@0@Z DD 0ffffffffH
	DD	FLAT:__unwindfunclet$?chrmgrRegisterRaceSrcName@@YAPAU_object@@PAU1@0@Z$0
	DD	00H
	DD	FLAT:__unwindfunclet$?chrmgrRegisterRaceSrcName@@YAPAU_object@@PAU1@0@Z$1
; Function compile flags: /Ogtp
; File C:\Anka2Project\Anka2Project\Source\Binary\source\UserInterface\PythonCharacterManagerModule.cpp
;	COMDAT ?IsPossibleEmoticon@CPythonCharacterManager@@QAE_NK@Z
_TEXT	SEGMENT
_dwVID$ = 8						; size = 4
?IsPossibleEmoticon@CPythonCharacterManager@@QAE_NK@Z PROC ; CPythonCharacterManager::IsPossibleEmoticon, COMDAT
; _this$ = ecx

; 696  : {

  00000	55		 push	 ebp
  00001	8b ec		 mov	 ebp, esp

; 697  : 	CInstanceBase * pkInstSel = (dwVID == 0xffffffff) ? GetSelectedInstancePtr() : GetInstancePtr(dwVID);

  00003	8b 55 08	 mov	 edx, DWORD PTR _dwVID$[ebp]
  00006	83 fa ff	 cmp	 edx, -1
  00009	75 07		 jne	 SHORT $LN4@IsPossible
  0000b	e8 00 00 00 00	 call	 ?GetSelectedInstancePtr@CPythonCharacterManager@@QAEPAVCInstanceBase@@XZ ; CPythonCharacterManager::GetSelectedInstancePtr
  00010	eb 0a		 jmp	 SHORT $LN5@IsPossible
$LN4@IsPossible:
  00012	8b 41 04	 mov	 eax, DWORD PTR [ecx+4]
  00015	83 c1 04	 add	 ecx, 4
  00018	52		 push	 edx
  00019	ff 50 08	 call	 DWORD PTR [eax+8]
$LN5@IsPossible:

; 698  : 	if (!pkInstSel)

  0001c	85 c0		 test	 eax, eax
  0001e	75 06		 jne	 SHORT $LN2@IsPossible

; 699  : 		return false;

  00020	32 c0		 xor	 al, al

; 702  : }

  00022	5d		 pop	 ebp
  00023	c2 04 00	 ret	 4
$LN2@IsPossible:

; 700  : 	
; 701  : 	return pkInstSel->IsPossibleEmoticon();

  00026	8b c8		 mov	 ecx, eax
  00028	e8 00 00 00 00	 call	 ?IsPossibleEmoticon@CInstanceBase@@QAE_NXZ ; CInstanceBase::IsPossibleEmoticon

; 702  : }

  0002d	5d		 pop	 ebp
  0002e	c2 04 00	 ret	 4
?IsPossibleEmoticon@CPythonCharacterManager@@QAE_NK@Z ENDP ; CPythonCharacterManager::IsPossibleEmoticon
_TEXT	ENDS
END
