; Listing generated by Microsoft (R) Optimizing Compiler Version 19.44.35219.0 

	TITLE	c:\anka2project\anka2project\source\binary\vs_files\userinterface\release\pythonbiologmanagermodule.obj
	.686P
	.XMM
	include listing.inc
	.model	flat

INCLUDELIB OLDNAMES

PUBLIC	??_C@_01OJONOECF@b@				; `string'
PUBLIC	??_C@_04BIOIIFBG@iiii@				; `string'
PUBLIC	??_C@_0L@FFGNDDJL@SendPacket@			; `string'
PUBLIC	??_C@_0P@KIMPJMCP@SendPacketItem@		; `string'
PUBLIC	??_C@_0BD@GPJOEEAI@SendPacketReminder@		; `string'
PUBLIC	??_C@_0N@LDEDBHIB@GetInfoLevel@			; `string'
PUBLIC	??_C@_0M@JHJFKKCA@GetInfoItem@			; `string'
PUBLIC	??_C@_0N@JEFOGFKD@GetInfoCount@			; `string'
PUBLIC	??_C@_0BA@GIGECKBM@GetInfoCooldown@		; `string'
PUBLIC	??_C@_0BA@OBCJFFJP@GetInfoReminder@		; `string'
PUBLIC	??_C@_0O@IMGIJAM@GetInfoReward@			; `string'
PUBLIC	??_C@_09DHBHBPGA@biologmgr@			; `string'
PUBLIC	??_C@_0BE@HFNNCODO@BIOLOG_BONUS_LENGTH@		; `string'
;	COMDAT ?s_methods@?1??initBiologManager@@YAXXZ@4PAUPyMethodDef@@A
_DATA	SEGMENT
?s_methods@?1??initBiologManager@@YAXXZ@4PAUPyMethodDef@@A DD FLAT:??_C@_0L@FFGNDDJL@SendPacket@ ; `initBiologManager'::`2'::s_methods
	DD	FLAT:?biologSendPacket@@YAPAU_object@@PAU1@0@Z
	DD	01H
	ORG $+4
	DD	FLAT:??_C@_0P@KIMPJMCP@SendPacketItem@
	DD	FLAT:?biologSendPacketItem@@YAPAU_object@@PAU1@0@Z
	DD	01H
	ORG $+4
	DD	FLAT:??_C@_0BD@GPJOEEAI@SendPacketReminder@
	DD	FLAT:?biologSendPacketReminder@@YAPAU_object@@PAU1@0@Z
	DD	01H
	ORG $+4
	DD	FLAT:??_C@_0N@LDEDBHIB@GetInfoLevel@
	DD	FLAT:?biologManagerGetCurrentLevel@@YAPAU_object@@PAU1@0@Z
	DD	01H
	ORG $+4
	DD	FLAT:??_C@_0M@JHJFKKCA@GetInfoItem@
	DD	FLAT:?biologManagerGetCurrentItem@@YAPAU_object@@PAU1@0@Z
	DD	01H
	ORG $+4
	DD	FLAT:??_C@_0N@JEFOGFKD@GetInfoCount@
	DD	FLAT:?biologManagerGetCurrentCount@@YAPAU_object@@PAU1@0@Z
	DD	01H
	ORG $+4
	DD	FLAT:??_C@_0BA@GIGECKBM@GetInfoCooldown@
	DD	FLAT:?biologManagerGetCurrentCooldown@@YAPAU_object@@PAU1@0@Z
	DD	01H
	ORG $+4
	DD	FLAT:??_C@_0BA@OBCJFFJP@GetInfoReminder@
	DD	FLAT:?biologManagerGetCooldownReminder@@YAPAU_object@@PAU1@0@Z
	DD	01H
	ORG $+4
	DD	FLAT:??_C@_0O@IMGIJAM@GetInfoReward@
	DD	FLAT:?biologManagerGetCurrentReward@@YAPAU_object@@PAU1@0@Z
	DD	01H
	ORG $+4
	DD	00H
	DD	00H
	ORG $+8
_DATA	ENDS
;	COMDAT ??_C@_0BE@HFNNCODO@BIOLOG_BONUS_LENGTH@
CONST	SEGMENT
??_C@_0BE@HFNNCODO@BIOLOG_BONUS_LENGTH@ DB 'BIOLOG_BONUS_LENGTH', 00H ; `string'
CONST	ENDS
;	COMDAT ??_C@_09DHBHBPGA@biologmgr@
CONST	SEGMENT
??_C@_09DHBHBPGA@biologmgr@ DB 'biologmgr', 00H		; `string'
CONST	ENDS
;	COMDAT ??_C@_0O@IMGIJAM@GetInfoReward@
CONST	SEGMENT
??_C@_0O@IMGIJAM@GetInfoReward@ DB 'GetInfoReward', 00H	; `string'
CONST	ENDS
;	COMDAT ??_C@_0BA@OBCJFFJP@GetInfoReminder@
CONST	SEGMENT
??_C@_0BA@OBCJFFJP@GetInfoReminder@ DB 'GetInfoReminder', 00H ; `string'
CONST	ENDS
;	COMDAT ??_C@_0BA@GIGECKBM@GetInfoCooldown@
CONST	SEGMENT
??_C@_0BA@GIGECKBM@GetInfoCooldown@ DB 'GetInfoCooldown', 00H ; `string'
CONST	ENDS
;	COMDAT ??_C@_0N@JEFOGFKD@GetInfoCount@
CONST	SEGMENT
??_C@_0N@JEFOGFKD@GetInfoCount@ DB 'GetInfoCount', 00H	; `string'
CONST	ENDS
;	COMDAT ??_C@_0M@JHJFKKCA@GetInfoItem@
CONST	SEGMENT
??_C@_0M@JHJFKKCA@GetInfoItem@ DB 'GetInfoItem', 00H	; `string'
CONST	ENDS
;	COMDAT ??_C@_0N@LDEDBHIB@GetInfoLevel@
CONST	SEGMENT
??_C@_0N@LDEDBHIB@GetInfoLevel@ DB 'GetInfoLevel', 00H	; `string'
CONST	ENDS
;	COMDAT ??_C@_0BD@GPJOEEAI@SendPacketReminder@
CONST	SEGMENT
??_C@_0BD@GPJOEEAI@SendPacketReminder@ DB 'SendPacketReminder', 00H ; `string'
CONST	ENDS
;	COMDAT ??_C@_0P@KIMPJMCP@SendPacketItem@
CONST	SEGMENT
??_C@_0P@KIMPJMCP@SendPacketItem@ DB 'SendPacketItem', 00H ; `string'
CONST	ENDS
;	COMDAT ??_C@_0L@FFGNDDJL@SendPacket@
CONST	SEGMENT
??_C@_0L@FFGNDDJL@SendPacket@ DB 'SendPacket', 00H	; `string'
CONST	ENDS
;	COMDAT ??_C@_04BIOIIFBG@iiii@
CONST	SEGMENT
??_C@_04BIOIIFBG@iiii@ DB 'iiii', 00H			; `string'
CONST	ENDS
;	COMDAT ??_C@_01OJONOECF@b@
CONST	SEGMENT
??_C@_01OJONOECF@b@ DB 'b', 00H				; `string'
PUBLIC	?Instance@?$CSingleton@VCPythonBiologManager@@@@SAAAVCPythonBiologManager@@XZ ; CSingleton<CPythonBiologManager>::Instance
PUBLIC	?initBiologManager@@YAXXZ			; initBiologManager
PUBLIC	?biologSendPacketReminder@@YAPAU_object@@PAU1@0@Z ; biologSendPacketReminder
PUBLIC	?biologSendPacketItem@@YAPAU_object@@PAU1@0@Z	; biologSendPacketItem
PUBLIC	?biologSendPacket@@YAPAU_object@@PAU1@0@Z	; biologSendPacket
PUBLIC	?biologManagerGetCurrentReward@@YAPAU_object@@PAU1@0@Z ; biologManagerGetCurrentReward
PUBLIC	?biologManagerGetCooldownReminder@@YAPAU_object@@PAU1@0@Z ; biologManagerGetCooldownReminder
PUBLIC	?biologManagerGetCurrentCooldown@@YAPAU_object@@PAU1@0@Z ; biologManagerGetCurrentCooldown
PUBLIC	?biologManagerGetCurrentCount@@YAPAU_object@@PAU1@0@Z ; biologManagerGetCurrentCount
PUBLIC	?biologManagerGetCurrentItem@@YAPAU_object@@PAU1@0@Z ; biologManagerGetCurrentItem
PUBLIC	?biologManagerGetCurrentLevel@@YAPAU_object@@PAU1@0@Z ; biologManagerGetCurrentLevel
PUBLIC	?Biolog_GetCurrentRewardItemCount@CPythonBiologManager@@QBEGXZ ; CPythonBiologManager::Biolog_GetCurrentRewardItemCount
PUBLIC	?Biolog_GetCurrentRewardItem@CPythonBiologManager@@QBEKXZ ; CPythonBiologManager::Biolog_GetCurrentRewardItem
PUBLIC	?Biolog_GetCurrentRewardValue@CPythonBiologManager@@QBEJH@Z ; CPythonBiologManager::Biolog_GetCurrentRewardValue
PUBLIC	?Biolog_GetCurrentRewardType@CPythonBiologManager@@QBEKH@Z ; CPythonBiologManager::Biolog_GetCurrentRewardType
PUBLIC	?Biolog_GetCurrentCooldownReminder@CPythonBiologManager@@QBE_NXZ ; CPythonBiologManager::Biolog_GetCurrentCooldownReminder
PUBLIC	?Biolog_GetCurrentCooldown@CPythonBiologManager@@QBEJXZ ; CPythonBiologManager::Biolog_GetCurrentCooldown
PUBLIC	?Biolog_GetCurrentGlobalCooldown@CPythonBiologManager@@QBEJXZ ; CPythonBiologManager::Biolog_GetCurrentGlobalCooldown
PUBLIC	?Biolog_GetCurrentRequiredCount@CPythonBiologManager@@QBEGXZ ; CPythonBiologManager::Biolog_GetCurrentRequiredCount
PUBLIC	?Biolog_GetCurrentGivenItems@CPythonBiologManager@@QBEGXZ ; CPythonBiologManager::Biolog_GetCurrentGivenItems
PUBLIC	?Biolog_GetCurrentItem@CPythonBiologManager@@QBEKXZ ; CPythonBiologManager::Biolog_GetCurrentItem
PUBLIC	?Biolog_GetCurrentLevel@CPythonBiologManager@@QBEEXZ ; CPythonBiologManager::Biolog_GetCurrentLevel
; Function compile flags: /Ogtp
; File C:\Anka2Project\Anka2Project\Source\Binary\source\UserInterface\PythonBiologManagerModule.cpp
; File C:\Anka2Project\Anka2Project\Source\Binary\source\eterBase\Singleton.h
; File C:\Anka2Project\Anka2Project\Source\Binary\source\UserInterface\PythonBiologManagerModule.cpp
;	COMDAT ?biologManagerGetCurrentLevel@@YAPAU_object@@PAU1@0@Z
_TEXT	SEGMENT
_poSelf$ = 8						; size = 4
_poArgs$ = 12						; size = 4
?biologManagerGetCurrentLevel@@YAPAU_object@@PAU1@0@Z PROC ; biologManagerGetCurrentLevel, COMDAT
; File C:\Anka2Project\Anka2Project\Source\Binary\source\eterBase\Singleton.h

; 26   : 		assert(ms_singleton);

  00000	a1 00 00 00 00	 mov	 eax, DWORD PTR ?ms_singleton@?$CSingleton@VCPythonBiologManager@@@@0PAVCPythonBiologManager@@A ; CSingleton<CPythonBiologManager>::ms_singleton
  00005	85 c0		 test	 eax, eax
  00007	75 19		 jne	 SHORT $LN5@biologMana
  00009	6a 1a		 push	 26			; 0000001aH
  0000b	68 00 00 00 00	 push	 OFFSET ??_C@_1IO@CAJLEEOI@?$AAC?$AA?3?$AA?2?$AAA?$AAn?$AAk?$AAa?$AA2?$AAP?$AAr?$AAo?$AAj?$AAe?$AAc?$AAt@
  00010	68 00 00 00 00	 push	 OFFSET ??_C@_1BK@FMEHPMFE@?$AAm?$AAs?$AA_?$AAs?$AAi?$AAn?$AAg?$AAl?$AAe?$AAt?$AAo?$AAn@
  00015	e8 00 00 00 00	 call	 __wassert
  0001a	a1 00 00 00 00	 mov	 eax, DWORD PTR ?ms_singleton@?$CSingleton@VCPythonBiologManager@@@@0PAVCPythonBiologManager@@A ; CSingleton<CPythonBiologManager>::ms_singleton
  0001f	83 c4 0c	 add	 esp, 12			; 0000000cH
$LN5@biologMana:
; File C:\Anka2Project\Anka2Project\Source\Binary\source\UserInterface\PythonBiologManagerModule.cpp

; 10   : 	return Py_BuildValue("i", dwLevel);

  00022	0f b6 40 05	 movzx	 eax, BYTE PTR [eax+5]
  00026	50		 push	 eax
  00027	68 00 00 00 00	 push	 OFFSET ??_C@_01KBJDNOO@i@
  0002c	ff 15 00 00 00
	00		 call	 DWORD PTR __imp__Py_BuildValue
  00032	83 c4 08	 add	 esp, 8

; 11   : }

  00035	c3		 ret	 0
?biologManagerGetCurrentLevel@@YAPAU_object@@PAU1@0@Z ENDP ; biologManagerGetCurrentLevel
_TEXT	ENDS
; Function compile flags: /Ogtp
; File C:\Anka2Project\Anka2Project\Source\Binary\source\UserInterface\PythonBiologManagerModule.cpp
; File C:\Anka2Project\Anka2Project\Source\Binary\source\eterBase\Singleton.h
; File C:\Anka2Project\Anka2Project\Source\Binary\source\UserInterface\PythonBiologManagerModule.cpp
;	COMDAT ?biologManagerGetCurrentItem@@YAPAU_object@@PAU1@0@Z
_TEXT	SEGMENT
_poSelf$ = 8						; size = 4
_poArgs$ = 12						; size = 4
?biologManagerGetCurrentItem@@YAPAU_object@@PAU1@0@Z PROC ; biologManagerGetCurrentItem, COMDAT
; File C:\Anka2Project\Anka2Project\Source\Binary\source\eterBase\Singleton.h

; 26   : 		assert(ms_singleton);

  00000	a1 00 00 00 00	 mov	 eax, DWORD PTR ?ms_singleton@?$CSingleton@VCPythonBiologManager@@@@0PAVCPythonBiologManager@@A ; CSingleton<CPythonBiologManager>::ms_singleton
  00005	85 c0		 test	 eax, eax
  00007	75 19		 jne	 SHORT $LN5@biologMana
  00009	6a 1a		 push	 26			; 0000001aH
  0000b	68 00 00 00 00	 push	 OFFSET ??_C@_1IO@CAJLEEOI@?$AAC?$AA?3?$AA?2?$AAA?$AAn?$AAk?$AAa?$AA2?$AAP?$AAr?$AAo?$AAj?$AAe?$AAc?$AAt@
  00010	68 00 00 00 00	 push	 OFFSET ??_C@_1BK@FMEHPMFE@?$AAm?$AAs?$AA_?$AAs?$AAi?$AAn?$AAg?$AAl?$AAe?$AAt?$AAo?$AAn@
  00015	e8 00 00 00 00	 call	 __wassert
  0001a	a1 00 00 00 00	 mov	 eax, DWORD PTR ?ms_singleton@?$CSingleton@VCPythonBiologManager@@@@0PAVCPythonBiologManager@@A ; CSingleton<CPythonBiologManager>::ms_singleton
  0001f	83 c4 0c	 add	 esp, 12			; 0000000cH
$LN5@biologMana:
; File C:\Anka2Project\Anka2Project\Source\Binary\source\UserInterface\PythonBiologManagerModule.cpp

; 16   : 	return Py_BuildValue("i", iItem);

  00022	ff 70 06	 push	 DWORD PTR [eax+6]
  00025	68 00 00 00 00	 push	 OFFSET ??_C@_01KBJDNOO@i@
  0002a	ff 15 00 00 00
	00		 call	 DWORD PTR __imp__Py_BuildValue
  00030	83 c4 08	 add	 esp, 8

; 17   : }

  00033	c3		 ret	 0
?biologManagerGetCurrentItem@@YAPAU_object@@PAU1@0@Z ENDP ; biologManagerGetCurrentItem
_TEXT	ENDS
; Function compile flags: /Ogtp
; File C:\Anka2Project\Anka2Project\Source\Binary\source\UserInterface\PythonBiologManagerModule.cpp
; File C:\Anka2Project\Anka2Project\Source\Binary\source\eterBase\Singleton.h
; File C:\Anka2Project\Anka2Project\Source\Binary\source\UserInterface\PythonBiologManagerModule.cpp
;	COMDAT ?biologManagerGetCurrentCount@@YAPAU_object@@PAU1@0@Z
_TEXT	SEGMENT
_poSelf$ = 8						; size = 4
_poArgs$ = 12						; size = 4
?biologManagerGetCurrentCount@@YAPAU_object@@PAU1@0@Z PROC ; biologManagerGetCurrentCount, COMDAT
; File C:\Anka2Project\Anka2Project\Source\Binary\source\eterBase\Singleton.h

; 26   : 		assert(ms_singleton);

  00000	a1 00 00 00 00	 mov	 eax, DWORD PTR ?ms_singleton@?$CSingleton@VCPythonBiologManager@@@@0PAVCPythonBiologManager@@A ; CSingleton<CPythonBiologManager>::ms_singleton
  00005	85 c0		 test	 eax, eax
  00007	75 19		 jne	 SHORT $LN5@biologMana
  00009	6a 1a		 push	 26			; 0000001aH
  0000b	68 00 00 00 00	 push	 OFFSET ??_C@_1IO@CAJLEEOI@?$AAC?$AA?3?$AA?2?$AAA?$AAn?$AAk?$AAa?$AA2?$AAP?$AAr?$AAo?$AAj?$AAe?$AAc?$AAt@
  00010	68 00 00 00 00	 push	 OFFSET ??_C@_1BK@FMEHPMFE@?$AAm?$AAs?$AA_?$AAs?$AAi?$AAn?$AAg?$AAl?$AAe?$AAt?$AAo?$AAn@
  00015	e8 00 00 00 00	 call	 __wassert
  0001a	a1 00 00 00 00	 mov	 eax, DWORD PTR ?ms_singleton@?$CSingleton@VCPythonBiologManager@@@@0PAVCPythonBiologManager@@A ; CSingleton<CPythonBiologManager>::ms_singleton
  0001f	83 c4 0c	 add	 esp, 12			; 0000000cH
$LN5@biologMana:
; File C:\Anka2Project\Anka2Project\Source\Binary\source\UserInterface\PythonBiologManagerModule.cpp

; 21   : 	auto iGiven = CPythonBiologManager::Instance().Biolog_GetCurrentGivenItems();

  00022	0f b7 48 0a	 movzx	 ecx, WORD PTR [eax+10]

; 22   : 	auto iCount = CPythonBiologManager::Instance().Biolog_GetCurrentRequiredCount();

  00026	0f b7 40 0c	 movzx	 eax, WORD PTR [eax+12]

; 23   : 	return Py_BuildValue("ii", iGiven, iCount);

  0002a	50		 push	 eax
  0002b	51		 push	 ecx
  0002c	68 00 00 00 00	 push	 OFFSET ??_C@_02PDIHAGKM@ii@
  00031	ff 15 00 00 00
	00		 call	 DWORD PTR __imp__Py_BuildValue
  00037	83 c4 0c	 add	 esp, 12			; 0000000cH

; 24   : }

  0003a	c3		 ret	 0
?biologManagerGetCurrentCount@@YAPAU_object@@PAU1@0@Z ENDP ; biologManagerGetCurrentCount
_TEXT	ENDS
; Function compile flags: /Ogtp
; File C:\Anka2Project\Anka2Project\Source\Binary\source\UserInterface\PythonBiologManagerModule.cpp
; File C:\Anka2Project\Anka2Project\Source\Binary\source\eterBase\Singleton.h
; File C:\Anka2Project\Anka2Project\Source\Binary\source\UserInterface\PythonBiologManagerModule.cpp
;	COMDAT ?biologManagerGetCurrentCooldown@@YAPAU_object@@PAU1@0@Z
_TEXT	SEGMENT
_poSelf$ = 8						; size = 4
_poArgs$ = 12						; size = 4
?biologManagerGetCurrentCooldown@@YAPAU_object@@PAU1@0@Z PROC ; biologManagerGetCurrentCooldown, COMDAT
; File C:\Anka2Project\Anka2Project\Source\Binary\source\eterBase\Singleton.h

; 26   : 		assert(ms_singleton);

  00000	a1 00 00 00 00	 mov	 eax, DWORD PTR ?ms_singleton@?$CSingleton@VCPythonBiologManager@@@@0PAVCPythonBiologManager@@A ; CSingleton<CPythonBiologManager>::ms_singleton
  00005	85 c0		 test	 eax, eax
  00007	75 19		 jne	 SHORT $LN5@biologMana
  00009	6a 1a		 push	 26			; 0000001aH
  0000b	68 00 00 00 00	 push	 OFFSET ??_C@_1IO@CAJLEEOI@?$AAC?$AA?3?$AA?2?$AAA?$AAn?$AAk?$AAa?$AA2?$AAP?$AAr?$AAo?$AAj?$AAe?$AAc?$AAt@
  00010	68 00 00 00 00	 push	 OFFSET ??_C@_1BK@FMEHPMFE@?$AAm?$AAs?$AA_?$AAs?$AAi?$AAn?$AAg?$AAl?$AAe?$AAt?$AAo?$AAn@
  00015	e8 00 00 00 00	 call	 __wassert
  0001a	a1 00 00 00 00	 mov	 eax, DWORD PTR ?ms_singleton@?$CSingleton@VCPythonBiologManager@@@@0PAVCPythonBiologManager@@A ; CSingleton<CPythonBiologManager>::ms_singleton
  0001f	83 c4 0c	 add	 esp, 12			; 0000000cH
$LN5@biologMana:
; File C:\Anka2Project\Anka2Project\Source\Binary\source\UserInterface\PythonBiologManagerModule.cpp

; 30   : 	return Py_BuildValue("ii", iGCooldown, iCooldown);

  00022	ff 70 12	 push	 DWORD PTR [eax+18]
  00025	ff 70 0e	 push	 DWORD PTR [eax+14]
  00028	68 00 00 00 00	 push	 OFFSET ??_C@_02PDIHAGKM@ii@
  0002d	ff 15 00 00 00
	00		 call	 DWORD PTR __imp__Py_BuildValue
  00033	83 c4 0c	 add	 esp, 12			; 0000000cH

; 31   : }

  00036	c3		 ret	 0
?biologManagerGetCurrentCooldown@@YAPAU_object@@PAU1@0@Z ENDP ; biologManagerGetCurrentCooldown
_TEXT	ENDS
; Function compile flags: /Ogtp
; File C:\Anka2Project\Anka2Project\Source\Binary\source\UserInterface\PythonBiologManagerModule.cpp
; File C:\Anka2Project\Anka2Project\Source\Binary\source\eterBase\Singleton.h
; File C:\Anka2Project\Anka2Project\Source\Binary\source\UserInterface\PythonBiologManagerModule.cpp
;	COMDAT ?biologManagerGetCooldownReminder@@YAPAU_object@@PAU1@0@Z
_TEXT	SEGMENT
_poSelf$ = 8						; size = 4
_poArgs$ = 12						; size = 4
?biologManagerGetCooldownReminder@@YAPAU_object@@PAU1@0@Z PROC ; biologManagerGetCooldownReminder, COMDAT
; File C:\Anka2Project\Anka2Project\Source\Binary\source\eterBase\Singleton.h

; 26   : 		assert(ms_singleton);

  00000	a1 00 00 00 00	 mov	 eax, DWORD PTR ?ms_singleton@?$CSingleton@VCPythonBiologManager@@@@0PAVCPythonBiologManager@@A ; CSingleton<CPythonBiologManager>::ms_singleton
  00005	85 c0		 test	 eax, eax
  00007	75 19		 jne	 SHORT $LN5@biologMana
  00009	6a 1a		 push	 26			; 0000001aH
  0000b	68 00 00 00 00	 push	 OFFSET ??_C@_1IO@CAJLEEOI@?$AAC?$AA?3?$AA?2?$AAA?$AAn?$AAk?$AAa?$AA2?$AAP?$AAr?$AAo?$AAj?$AAe?$AAc?$AAt@
  00010	68 00 00 00 00	 push	 OFFSET ??_C@_1BK@FMEHPMFE@?$AAm?$AAs?$AA_?$AAs?$AAi?$AAn?$AAg?$AAl?$AAe?$AAt?$AAo?$AAn@
  00015	e8 00 00 00 00	 call	 __wassert
  0001a	a1 00 00 00 00	 mov	 eax, DWORD PTR ?ms_singleton@?$CSingleton@VCPythonBiologManager@@@@0PAVCPythonBiologManager@@A ; CSingleton<CPythonBiologManager>::ms_singleton
  0001f	83 c4 0c	 add	 esp, 12			; 0000000cH
$LN5@biologMana:
; File C:\Anka2Project\Anka2Project\Source\Binary\source\UserInterface\PythonBiologManagerModule.cpp

; 36   : 	return Py_BuildValue("b", bReminder);

  00022	0f b6 40 16	 movzx	 eax, BYTE PTR [eax+22]
  00026	50		 push	 eax
  00027	68 00 00 00 00	 push	 OFFSET ??_C@_01OJONOECF@b@
  0002c	ff 15 00 00 00
	00		 call	 DWORD PTR __imp__Py_BuildValue
  00032	83 c4 08	 add	 esp, 8

; 37   : }

  00035	c3		 ret	 0
?biologManagerGetCooldownReminder@@YAPAU_object@@PAU1@0@Z ENDP ; biologManagerGetCooldownReminder
_TEXT	ENDS
; Function compile flags: /Ogtp
; File C:\Anka2Project\Anka2Project\Source\Binary\source\UserInterface\PythonBiologManagerModule.cpp
; File C:\Anka2Project\Anka2Project\Source\Binary\source\eterBase\Singleton.h
; File C:\Anka2Project\Anka2Project\Source\Binary\source\UserInterface\PythonBiologManagerModule.cpp
; File C:\Anka2Project\Anka2Project\Source\Binary\source\eterBase\Singleton.h
; File C:\Anka2Project\Anka2Project\Source\Binary\source\UserInterface\PythonBiologManagerModule.cpp
; File C:\Anka2Project\Anka2Project\Source\Binary\source\eterBase\Singleton.h
; File C:\Anka2Project\Anka2Project\Source\Binary\source\UserInterface\PythonBiologManagerModule.cpp
;	COMDAT ?biologManagerGetCurrentReward@@YAPAU_object@@PAU1@0@Z
_TEXT	SEGMENT
_index$ = -4						; size = 4
_poSelf$ = 8						; size = 4
_poArgs$ = 12						; size = 4
?biologManagerGetCurrentReward@@YAPAU_object@@PAU1@0@Z PROC ; biologManagerGetCurrentReward, COMDAT

; 40   : {

  00000	55		 push	 ebp
  00001	8b ec		 mov	 ebp, esp
  00003	51		 push	 ecx

; 41   : 	int index = 0;
; 42   : 	if (!PyTuple_GetInteger(poArgs, 0, &index))

  00004	8d 45 fc	 lea	 eax, DWORD PTR _index$[ebp]
  00007	c7 45 fc 00 00
	00 00		 mov	 DWORD PTR _index$[ebp], 0
  0000e	50		 push	 eax
  0000f	6a 00		 push	 0
  00011	ff 75 0c	 push	 DWORD PTR _poArgs$[ebp]
  00014	e8 00 00 00 00	 call	 ?PyTuple_GetInteger@@YA_NPAU_object@@HPAH@Z ; PyTuple_GetInteger
  00019	83 c4 0c	 add	 esp, 12			; 0000000cH
  0001c	84 c0		 test	 al, al
  0001e	75 0e		 jne	 SHORT $LN2@biologMana

; 43   : 		return Py_BuildException();

  00020	6a 00		 push	 0
  00022	e8 00 00 00 00	 call	 ?Py_BuildException@@YAPAU_object@@PBDZZ ; Py_BuildException
  00027	83 c4 04	 add	 esp, 4

; 51   : }

  0002a	8b e5		 mov	 esp, ebp
  0002c	5d		 pop	 ebp
  0002d	c3		 ret	 0
$LN2@biologMana:
; File C:\Anka2Project\Anka2Project\Source\Binary\source\eterBase\Singleton.h

; 26   : 		assert(ms_singleton);

  0002e	8b 0d 00 00 00
	00		 mov	 ecx, DWORD PTR ?ms_singleton@?$CSingleton@VCPythonBiologManager@@@@0PAVCPythonBiologManager@@A ; CSingleton<CPythonBiologManager>::ms_singleton
  00034	85 c9		 test	 ecx, ecx
  00036	75 1a		 jne	 SHORT $LN6@biologMana
  00038	6a 1a		 push	 26			; 0000001aH
  0003a	68 00 00 00 00	 push	 OFFSET ??_C@_1IO@CAJLEEOI@?$AAC?$AA?3?$AA?2?$AAA?$AAn?$AAk?$AAa?$AA2?$AAP?$AAr?$AAo?$AAj?$AAe?$AAc?$AAt@
  0003f	68 00 00 00 00	 push	 OFFSET ??_C@_1BK@FMEHPMFE@?$AAm?$AAs?$AA_?$AAs?$AAi?$AAn?$AAg?$AAl?$AAe?$AAt?$AAo?$AAn@
  00044	e8 00 00 00 00	 call	 __wassert
  00049	8b 0d 00 00 00
	00		 mov	 ecx, DWORD PTR ?ms_singleton@?$CSingleton@VCPythonBiologManager@@@@0PAVCPythonBiologManager@@A ; CSingleton<CPythonBiologManager>::ms_singleton
  0004f	83 c4 0c	 add	 esp, 12			; 0000000cH
$LN6@biologMana:
; File C:\Anka2Project\Anka2Project\Source\Binary\source\UserInterface\PythonBiologManagerModule.cpp

; 45   : 	auto iType = CPythonBiologManager::Instance().Biolog_GetCurrentRewardType(index);

  00052	8b 45 fc	 mov	 eax, DWORD PTR _index$[ebp]
  00055	56		 push	 esi
  00056	57		 push	 edi
  00057	8b 74 81 18	 mov	 esi, DWORD PTR [ecx+eax*4+24]
; File C:\Anka2Project\Anka2Project\Source\Binary\source\eterBase\Singleton.h

; 26   : 		assert(ms_singleton);

  0005b	85 c9		 test	 ecx, ecx
  0005d	75 1d		 jne	 SHORT $LN11@biologMana
  0005f	6a 1a		 push	 26			; 0000001aH
  00061	68 00 00 00 00	 push	 OFFSET ??_C@_1IO@CAJLEEOI@?$AAC?$AA?3?$AA?2?$AAA?$AAn?$AAk?$AAa?$AA2?$AAP?$AAr?$AAo?$AAj?$AAe?$AAc?$AAt@
  00066	68 00 00 00 00	 push	 OFFSET ??_C@_1BK@FMEHPMFE@?$AAm?$AAs?$AA_?$AAs?$AAi?$AAn?$AAg?$AAl?$AAe?$AAt?$AAo?$AAn@
  0006b	e8 00 00 00 00	 call	 __wassert
  00070	8b 45 fc	 mov	 eax, DWORD PTR _index$[ebp]
  00073	83 c4 0c	 add	 esp, 12			; 0000000cH
  00076	8b 0d 00 00 00
	00		 mov	 ecx, DWORD PTR ?ms_singleton@?$CSingleton@VCPythonBiologManager@@@@0PAVCPythonBiologManager@@A ; CSingleton<CPythonBiologManager>::ms_singleton
$LN11@biologMana:
; File C:\Anka2Project\Anka2Project\Source\Binary\source\UserInterface\PythonBiologManagerModule.cpp

; 46   : 	auto iValue = CPythonBiologManager::Instance().Biolog_GetCurrentRewardValue(index);

  0007c	8b 7c 81 24	 mov	 edi, DWORD PTR [ecx+eax*4+36]
; File C:\Anka2Project\Anka2Project\Source\Binary\source\eterBase\Singleton.h

; 26   : 		assert(ms_singleton);

  00080	85 c9		 test	 ecx, ecx
  00082	75 1a		 jne	 SHORT $LN16@biologMana
  00084	6a 1a		 push	 26			; 0000001aH
  00086	68 00 00 00 00	 push	 OFFSET ??_C@_1IO@CAJLEEOI@?$AAC?$AA?3?$AA?2?$AAA?$AAn?$AAk?$AAa?$AA2?$AAP?$AAr?$AAo?$AAj?$AAe?$AAc?$AAt@
  0008b	68 00 00 00 00	 push	 OFFSET ??_C@_1BK@FMEHPMFE@?$AAm?$AAs?$AA_?$AAs?$AAi?$AAn?$AAg?$AAl?$AAe?$AAt?$AAo?$AAn@
  00090	e8 00 00 00 00	 call	 __wassert
  00095	8b 0d 00 00 00
	00		 mov	 ecx, DWORD PTR ?ms_singleton@?$CSingleton@VCPythonBiologManager@@@@0PAVCPythonBiologManager@@A ; CSingleton<CPythonBiologManager>::ms_singleton
  0009b	83 c4 0c	 add	 esp, 12			; 0000000cH
$LN16@biologMana:
; File C:\Anka2Project\Anka2Project\Source\Binary\source\UserInterface\PythonBiologManagerModule.cpp

; 48   : 	auto iItemCount = CPythonBiologManager::Instance().Biolog_GetCurrentRewardItemCount();

  0009e	0f b7 41 34	 movzx	 eax, WORD PTR [ecx+52]

; 49   : 
; 50   : 	return Py_BuildValue("iiii", iType, iValue, iItem, iItemCount);

  000a2	50		 push	 eax
  000a3	ff 71 30	 push	 DWORD PTR [ecx+48]
  000a6	57		 push	 edi
  000a7	56		 push	 esi
  000a8	68 00 00 00 00	 push	 OFFSET ??_C@_04BIOIIFBG@iiii@
  000ad	ff 15 00 00 00
	00		 call	 DWORD PTR __imp__Py_BuildValue
  000b3	83 c4 14	 add	 esp, 20			; 00000014H
  000b6	5f		 pop	 edi
  000b7	5e		 pop	 esi

; 51   : }

  000b8	8b e5		 mov	 esp, ebp
  000ba	5d		 pop	 ebp
  000bb	c3		 ret	 0
?biologManagerGetCurrentReward@@YAPAU_object@@PAU1@0@Z ENDP ; biologManagerGetCurrentReward
_TEXT	ENDS
; Function compile flags: /Ogtp
; File C:\Anka2Project\Anka2Project\Source\Binary\source\UserInterface\PythonBiologManagerModule.cpp
;	COMDAT ?initBiologManager@@YAXXZ
_TEXT	SEGMENT
?initBiologManager@@YAXXZ PROC				; initBiologManager, COMDAT

; 97   : 	static PyMethodDef s_methods[] =
; 98   : 	{
; 99   : 		{ "SendPacket", biologSendPacket, METH_VARARGS },
; 100  : 		{ "SendPacketItem", biologSendPacketItem, METH_VARARGS },
; 101  : 		{ "SendPacketReminder", biologSendPacketReminder, METH_VARARGS },
; 102  : 		{ "GetInfoLevel", biologManagerGetCurrentLevel, METH_VARARGS },
; 103  : 		{ "GetInfoItem", biologManagerGetCurrentItem, METH_VARARGS },
; 104  : 		{ "GetInfoCount", biologManagerGetCurrentCount, METH_VARARGS },
; 105  : 		{ "GetInfoCooldown", biologManagerGetCurrentCooldown, METH_VARARGS },
; 106  : 		{ "GetInfoReminder", biologManagerGetCooldownReminder, METH_VARARGS },
; 107  : 		{ "GetInfoReward", biologManagerGetCurrentReward, METH_VARARGS },
; 108  : 		{ nullptr, nullptr },
; 109  : 	};
; 110  : 
; 111  : 	PyObject *poModule = Py_InitModule("biologmgr", s_methods);

  00000	68 f5 03 00 00	 push	 1013			; 000003f5H
  00005	6a 00		 push	 0
  00007	6a 00		 push	 0
  00009	68 00 00 00 00	 push	 OFFSET ?s_methods@?1??initBiologManager@@YAXXZ@4PAUPyMethodDef@@A
  0000e	68 00 00 00 00	 push	 OFFSET ??_C@_09DHBHBPGA@biologmgr@
  00013	ff 15 00 00 00
	00		 call	 DWORD PTR __imp__Py_InitModule4

; 112  : 
; 113  : 	PyModule_AddIntConstant(poModule, "BIOLOG_BONUS_LENGTH", MAX_BONUSES_LENGTH);

  00019	6a 03		 push	 3
  0001b	68 00 00 00 00	 push	 OFFSET ??_C@_0BE@HFNNCODO@BIOLOG_BONUS_LENGTH@
  00020	50		 push	 eax
  00021	ff 15 00 00 00
	00		 call	 DWORD PTR __imp__PyModule_AddIntConstant
  00027	83 c4 20	 add	 esp, 32			; 00000020H

; 114  : }

  0002a	c3		 ret	 0
?initBiologManager@@YAXXZ ENDP				; initBiologManager
_TEXT	ENDS
END
