; Listing generated by Microsoft (R) Optimizing Compiler Version 19.44.35219.0 

	TITLE	c:\anka2project\anka2project\source\binary\vs_files\userinterface\release\pythonconfig.obj
	.686P
	.XMM
	include listing.inc
	.model	flat

INCLUDELIB OLDNAMES

PUBLIC	??_C@_07EGGHCNEO@GENERAL@			; `string'
PUBLIC	??_C@_04NHKBCFAO@CHAT@				; `string'
PUBLIC	??_C@_06OCONPLCM@OPTION@			; `string'
PUBLIC	??_C@_0M@LKOGBILG@SKILL_COLOR@			; `string'
PUBLIC	??_C@_0BF@MAKNNOFO@unkown?5class?5type?5?$CFu@	; `string'
PUBLIC	??_C@_06MNHBPGAA@UNKOWN@			; `string'
PUBLIC	??_C@_0DK@NPMDKFFC@not?5initialized?5when?5trying?5to?5@ ; `string'
PUBLIC	??_C@_0DK@NKEACBME@not?5initialized?5when?5trying?5to?5@ ; `string'
PUBLIC	??_C@_0CL@IDDNIOGC@not?5initialized?5when?5trying?5to?5@ ; `string'
PUBLIC	??_C@_0CO@BFIDHOCF@not?5initialized?5when?5trying?5to?5@ ; `string'
PUBLIC	??_R2CPythonConfig@@8				; CPythonConfig::`RTTI Base Class Array'
PUBLIC	??_R2?$CSingleton@VCPythonConfig@@@@8		; CSingleton<CPythonConfig>::`RTTI Base Class Array'
PUBLIC	??_R1A@?0A@EA@CPythonConfig@@8			; CPythonConfig::`RTTI Base Class Descriptor at (0,-1,0,64)'
PUBLIC	??_R1A@?0A@EA@?$CSingleton@VCPythonConfig@@@@8	; CSingleton<CPythonConfig>::`RTTI Base Class Descriptor at (0,-1,0,64)'
PUBLIC	??_R3?$CSingleton@VCPythonConfig@@@@8		; CSingleton<CPythonConfig>::`RTTI Class Hierarchy Descriptor'
PUBLIC	??_R0?AV?$CSingleton@VCPythonConfig@@@@@8	; CSingleton<CPythonConfig> `RTTI Type Descriptor'
PUBLIC	??_R3CPythonConfig@@8				; CPythonConfig::`RTTI Class Hierarchy Descriptor'
PUBLIC	??_R0?AVCPythonConfig@@@8			; CPythonConfig `RTTI Type Descriptor'
PUBLIC	??_R4?$CSingleton@VCPythonConfig@@@@6B@		; CSingleton<CPythonConfig>::`RTTI Complete Object Locator'
PUBLIC	??_R4CPythonConfig@@6B@				; CPythonConfig::`RTTI Complete Object Locator'
PUBLIC	?ms_singleton@?$CSingleton@VCPythonConfig@@@@0PAVCPythonConfig@@A ; CSingleton<CPythonConfig>::ms_singleton
PUBLIC	??_7?$CSingleton@VCPythonConfig@@@@6B@		; CSingleton<CPythonConfig>::`vftable'
PUBLIC	??_7CPythonConfig@@6B@				; CPythonConfig::`vftable'
;	COMDAT ?ms_singleton@?$CSingleton@VCPythonConfig@@@@0PAVCPythonConfig@@A
_BSS	SEGMENT
?ms_singleton@?$CSingleton@VCPythonConfig@@@@0PAVCPythonConfig@@A DD 01H DUP (?) ; CSingleton<CPythonConfig>::ms_singleton
_BSS	ENDS
;	COMDAT ??_7CPythonConfig@@6B@
CONST	SEGMENT
??_7CPythonConfig@@6B@ DD FLAT:??_R4CPythonConfig@@6B@	; CPythonConfig::`vftable'
	DD	FLAT:??_ECPythonConfig@@UAEPAXI@Z
CONST	ENDS
;	COMDAT ??_7?$CSingleton@VCPythonConfig@@@@6B@
CONST	SEGMENT
??_7?$CSingleton@VCPythonConfig@@@@6B@ DD FLAT:??_R4?$CSingleton@VCPythonConfig@@@@6B@ ; CSingleton<CPythonConfig>::`vftable'
	DD	FLAT:??_E?$CSingleton@VCPythonConfig@@@@UAEPAXI@Z
CONST	ENDS
;	COMDAT ??_R4CPythonConfig@@6B@
rdata$r	SEGMENT
??_R4CPythonConfig@@6B@ DD 00H				; CPythonConfig::`RTTI Complete Object Locator'
	DD	00H
	DD	00H
	DD	FLAT:??_R0?AVCPythonConfig@@@8
	DD	FLAT:??_R3CPythonConfig@@8
rdata$r	ENDS
;	COMDAT ??_R4?$CSingleton@VCPythonConfig@@@@6B@
rdata$r	SEGMENT
??_R4?$CSingleton@VCPythonConfig@@@@6B@ DD 00H		; CSingleton<CPythonConfig>::`RTTI Complete Object Locator'
	DD	00H
	DD	00H
	DD	FLAT:??_R0?AV?$CSingleton@VCPythonConfig@@@@@8
	DD	FLAT:??_R3?$CSingleton@VCPythonConfig@@@@8
rdata$r	ENDS
;	COMDAT ??_R0?AVCPythonConfig@@@8
data$rs	SEGMENT
??_R0?AVCPythonConfig@@@8 DD FLAT:??_7type_info@@6B@	; CPythonConfig `RTTI Type Descriptor'
	DD	00H
	DB	'.?AVCPythonConfig@@', 00H
data$rs	ENDS
;	COMDAT ??_R3CPythonConfig@@8
rdata$r	SEGMENT
??_R3CPythonConfig@@8 DD 00H				; CPythonConfig::`RTTI Class Hierarchy Descriptor'
	DD	00H
	DD	02H
	DD	FLAT:??_R2CPythonConfig@@8
rdata$r	ENDS
;	COMDAT ??_R0?AV?$CSingleton@VCPythonConfig@@@@@8
data$rs	SEGMENT
??_R0?AV?$CSingleton@VCPythonConfig@@@@@8 DD FLAT:??_7type_info@@6B@ ; CSingleton<CPythonConfig> `RTTI Type Descriptor'
	DD	00H
	DB	'.?AV?$CSingleton@VCPythonConfig@@@@', 00H
data$rs	ENDS
;	COMDAT ??_R3?$CSingleton@VCPythonConfig@@@@8
rdata$r	SEGMENT
??_R3?$CSingleton@VCPythonConfig@@@@8 DD 00H		; CSingleton<CPythonConfig>::`RTTI Class Hierarchy Descriptor'
	DD	00H
	DD	01H
	DD	FLAT:??_R2?$CSingleton@VCPythonConfig@@@@8
rdata$r	ENDS
;	COMDAT ??_R1A@?0A@EA@?$CSingleton@VCPythonConfig@@@@8
rdata$r	SEGMENT
??_R1A@?0A@EA@?$CSingleton@VCPythonConfig@@@@8 DD FLAT:??_R0?AV?$CSingleton@VCPythonConfig@@@@@8 ; CSingleton<CPythonConfig>::`RTTI Base Class Descriptor at (0,-1,0,64)'
	DD	00H
	DD	00H
	DD	0ffffffffH
	DD	00H
	DD	040H
	DD	FLAT:??_R3?$CSingleton@VCPythonConfig@@@@8
rdata$r	ENDS
;	COMDAT ??_R1A@?0A@EA@CPythonConfig@@8
rdata$r	SEGMENT
??_R1A@?0A@EA@CPythonConfig@@8 DD FLAT:??_R0?AVCPythonConfig@@@8 ; CPythonConfig::`RTTI Base Class Descriptor at (0,-1,0,64)'
	DD	01H
	DD	00H
	DD	0ffffffffH
	DD	00H
	DD	040H
	DD	FLAT:??_R3CPythonConfig@@8
rdata$r	ENDS
;	COMDAT ??_R2?$CSingleton@VCPythonConfig@@@@8
rdata$r	SEGMENT
??_R2?$CSingleton@VCPythonConfig@@@@8 DD FLAT:??_R1A@?0A@EA@?$CSingleton@VCPythonConfig@@@@8 ; CSingleton<CPythonConfig>::`RTTI Base Class Array'
rdata$r	ENDS
;	COMDAT ??_R2CPythonConfig@@8
rdata$r	SEGMENT
??_R2CPythonConfig@@8 DD FLAT:??_R1A@?0A@EA@CPythonConfig@@8 ; CPythonConfig::`RTTI Base Class Array'
	DD	FLAT:??_R1A@?0A@EA@?$CSingleton@VCPythonConfig@@@@8
rdata$r	ENDS
;	COMDAT ??_C@_0CO@BFIDHOCF@not?5initialized?5when?5trying?5to?5@
CONST	SEGMENT
??_C@_0CO@BFIDHOCF@not?5initialized?5when?5trying?5to?5@ DB 'not initiali'
	DB	'zed when trying to remove type %u', 00H	; `string'
CONST	ENDS
;	COMDAT ??_C@_0CL@IDDNIOGC@not?5initialized?5when?5trying?5to?5@
CONST	SEGMENT
??_C@_0CL@IDDNIOGC@not?5initialized?5when?5trying?5to?5@ DB 'not initiali'
	DB	'zed when trying to read key %s', 00H	; `string'
CONST	ENDS
;	COMDAT ??_C@_0DK@NKEACBME@not?5initialized?5when?5trying?5to?5@
CONST	SEGMENT
??_C@_0DK@NKEACBME@not?5initialized?5when?5trying?5to?5@ DB 'not initiali'
	DB	'zed when trying to write key %s with value %d', 00H ; `string'
CONST	ENDS
;	COMDAT ??_C@_0DK@NPMDKFFC@not?5initialized?5when?5trying?5to?5@
CONST	SEGMENT
??_C@_0DK@NPMDKFFC@not?5initialized?5when?5trying?5to?5@ DB 'not initiali'
	DB	'zed when trying to write key %s with value %s', 00H ; `string'
CONST	ENDS
;	COMDAT ??_C@_06MNHBPGAA@UNKOWN@
CONST	SEGMENT
??_C@_06MNHBPGAA@UNKOWN@ DB 'UNKOWN', 00H		; `string'
CONST	ENDS
;	COMDAT ??_C@_0BF@MAKNNOFO@unkown?5class?5type?5?$CFu@
CONST	SEGMENT
??_C@_0BF@MAKNNOFO@unkown?5class?5type?5?$CFu@ DB 'unkown class type %u', 00H ; `string'
CONST	ENDS
;	COMDAT ??_C@_0M@LKOGBILG@SKILL_COLOR@
CONST	SEGMENT
??_C@_0M@LKOGBILG@SKILL_COLOR@ DB 'SKILL_COLOR', 00H	; `string'
CONST	ENDS
;	COMDAT ??_C@_06OCONPLCM@OPTION@
CONST	SEGMENT
??_C@_06OCONPLCM@OPTION@ DB 'OPTION', 00H		; `string'
CONST	ENDS
;	COMDAT ??_C@_04NHKBCFAO@CHAT@
CONST	SEGMENT
??_C@_04NHKBCFAO@CHAT@ DB 'CHAT', 00H			; `string'
CONST	ENDS
;	COMDAT ??_C@_07EGGHCNEO@GENERAL@
CONST	SEGMENT
??_C@_07EGGHCNEO@GENERAL@ DB 'GENERAL', 00H		; `string'
PUBLIC	??_G?$CSingleton@VCPythonConfig@@@@UAEPAXI@Z	; CSingleton<CPythonConfig>::`scalar deleting destructor'
PUBLIC	??0?$CSingleton@VCPythonConfig@@@@QAE@XZ	; CSingleton<CPythonConfig>::CSingleton<CPythonConfig>
PUBLIC	??1?$CSingleton@VCPythonConfig@@@@UAE@XZ	; CSingleton<CPythonConfig>::~CSingleton<CPythonConfig>
PUBLIC	?RemoveSection@CPythonConfig@@QAEXW4EClassTypes@1@@Z ; CPythonConfig::RemoveSection
PUBLIC	?GetString@CPythonConfig@@QBE?AV?$basic_string@DU?$char_traits@D@std@@V?$allocator@D@2@@std@@W4EClassTypes@1@ABV23@1@Z ; CPythonConfig::GetString
PUBLIC	?Write@CPythonConfig@@QAEXW4EClassTypes@1@ABV?$basic_string@DU?$char_traits@D@std@@V?$allocator@D@2@@std@@H@Z ; CPythonConfig::Write
PUBLIC	?Write@CPythonConfig@@QAEXW4EClassTypes@1@ABV?$basic_string@DU?$char_traits@D@std@@V?$allocator@D@2@@std@@PBD@Z ; CPythonConfig::Write
PUBLIC	?GetClassNameByType@CPythonConfig@@QBE?AV?$basic_string@DU?$char_traits@D@std@@V?$allocator@D@2@@std@@W4EClassTypes@1@@Z ; CPythonConfig::GetClassNameByType
PUBLIC	?Initialize@CPythonConfig@@QAEXABV?$basic_string@DU?$char_traits@D@std@@V?$allocator@D@2@@std@@@Z ; CPythonConfig::Initialize
PUBLIC	??1minIni@@QAE@XZ				; minIni::~minIni
PUBLIC	??_GminIni@@QAEPAXI@Z				; minIni::`scalar deleting destructor'
PUBLIC	??1CPythonConfig@@UAE@XZ			; CPythonConfig::~CPythonConfig
PUBLIC	??_GCPythonConfig@@UAEPAXI@Z			; CPythonConfig::`scalar deleting destructor'
PUBLIC	??0CPythonConfig@@QAE@XZ			; CPythonConfig::CPythonConfig
PUBLIC	?del@minIni@@QBE_NABV?$basic_string@DU?$char_traits@D@std@@V?$allocator@D@2@@std@@@Z ; minIni::del
PUBLIC	?put@minIni@@QBE_NABV?$basic_string@DU?$char_traits@D@std@@V?$allocator@D@2@@std@@0PBD@Z ; minIni::put
PUBLIC	?put@minIni@@QBE_NABV?$basic_string@DU?$char_traits@D@std@@V?$allocator@D@2@@std@@0H@Z ; minIni::put
PUBLIC	?gets@minIni@@QBE?AV?$basic_string@DU?$char_traits@D@std@@V?$allocator@D@2@@std@@ABV23@00@Z ; minIni::gets
PUBLIC	??0minIni@@QAE@ABV?$basic_string@DU?$char_traits@D@std@@V?$allocator@D@2@@std@@@Z ; minIni::minIni
EXTRN	??_ECPythonConfig@@UAEPAXI@Z:PROC		; CPythonConfig::`vector deleting destructor'
EXTRN	??_E?$CSingleton@VCPythonConfig@@@@UAEPAXI@Z:PROC ; CSingleton<CPythonConfig>::`vector deleting destructor'
;	COMDAT xdata$x
xdata$x	SEGMENT
__ehfuncinfo$?Initialize@CPythonConfig@@QAEXABV?$basic_string@DU?$char_traits@D@std@@V?$allocator@D@2@@std@@@Z DQ 00000000119930522r ; 2.33398e-314
	DD	FLAT:__unwindtable$?Initialize@CPythonConfig@@QAEXABV?$basic_string@DU?$char_traits@D@std@@V?$allocator@D@2@@std@@@Z
	DQ	00000000000000000r		; 0
	DQ	00000000000000000r		; 0
	DQ	00000000100000000r		; 2.122e-314
__unwindtable$?Initialize@CPythonConfig@@QAEXABV?$basic_string@DU?$char_traits@D@std@@V?$allocator@D@2@@std@@@Z DD 0ffffffffH
	DD	FLAT:__unwindfunclet$?Initialize@CPythonConfig@@QAEXABV?$basic_string@DU?$char_traits@D@std@@V?$allocator@D@2@@std@@@Z$0
xdata$x	ENDS
;	COMDAT xdata$x
xdata$x	SEGMENT
__ehfuncinfo$?Write@CPythonConfig@@QAEXW4EClassTypes@1@ABV?$basic_string@DU?$char_traits@D@std@@V?$allocator@D@2@@std@@PBD@Z DQ 00000000119930522r ; 2.33398e-314
	DD	FLAT:__unwindtable$?Write@CPythonConfig@@QAEXW4EClassTypes@1@ABV?$basic_string@DU?$char_traits@D@std@@V?$allocator@D@2@@std@@PBD@Z
	DQ	00000000000000000r		; 0
	DQ	00000000000000000r		; 0
	DQ	00000000100000000r		; 2.122e-314
__unwindtable$?Write@CPythonConfig@@QAEXW4EClassTypes@1@ABV?$basic_string@DU?$char_traits@D@std@@V?$allocator@D@2@@std@@PBD@Z DD 0ffffffffH
	DD	FLAT:__unwindfunclet$?Write@CPythonConfig@@QAEXW4EClassTypes@1@ABV?$basic_string@DU?$char_traits@D@std@@V?$allocator@D@2@@std@@PBD@Z$0
xdata$x	ENDS
;	COMDAT xdata$x
xdata$x	SEGMENT
__ehfuncinfo$?Write@CPythonConfig@@QAEXW4EClassTypes@1@ABV?$basic_string@DU?$char_traits@D@std@@V?$allocator@D@2@@std@@H@Z DQ 00000000119930522r ; 2.33398e-314
	DD	FLAT:__unwindtable$?Write@CPythonConfig@@QAEXW4EClassTypes@1@ABV?$basic_string@DU?$char_traits@D@std@@V?$allocator@D@2@@std@@H@Z
	DQ	00000000000000000r		; 0
	DQ	00000000000000000r		; 0
	DQ	00000000100000000r		; 2.122e-314
__unwindtable$?Write@CPythonConfig@@QAEXW4EClassTypes@1@ABV?$basic_string@DU?$char_traits@D@std@@V?$allocator@D@2@@std@@H@Z DD 0ffffffffH
	DD	FLAT:__unwindfunclet$?Write@CPythonConfig@@QAEXW4EClassTypes@1@ABV?$basic_string@DU?$char_traits@D@std@@V?$allocator@D@2@@std@@H@Z$0
xdata$x	ENDS
;	COMDAT xdata$x
xdata$x	SEGMENT
__ehfuncinfo$?GetString@CPythonConfig@@QBE?AV?$basic_string@DU?$char_traits@D@std@@V?$allocator@D@2@@std@@W4EClassTypes@1@ABV23@1@Z DQ 00000000119930522r ; 2.33398e-314
	DD	FLAT:__unwindtable$?GetString@CPythonConfig@@QBE?AV?$basic_string@DU?$char_traits@D@std@@V?$allocator@D@2@@std@@W4EClassTypes@1@ABV23@1@Z
	DQ	00000000000000000r		; 0
	DQ	00000000000000000r		; 0
	DQ	00000000100000000r		; 2.122e-314
__unwindtable$?GetString@CPythonConfig@@QBE?AV?$basic_string@DU?$char_traits@D@std@@V?$allocator@D@2@@std@@W4EClassTypes@1@ABV23@1@Z DD 0ffffffffH
	DD	FLAT:__unwindfunclet$?GetString@CPythonConfig@@QBE?AV?$basic_string@DU?$char_traits@D@std@@V?$allocator@D@2@@std@@W4EClassTypes@1@ABV23@1@Z$1
xdata$x	ENDS
;	COMDAT xdata$x
xdata$x	SEGMENT
__ehfuncinfo$?RemoveSection@CPythonConfig@@QAEXW4EClassTypes@1@@Z DQ 00000000119930522r ; 2.33398e-314
	DD	FLAT:__unwindtable$?RemoveSection@CPythonConfig@@QAEXW4EClassTypes@1@@Z
	DQ	00000000000000000r		; 0
	DQ	00000000000000000r		; 0
	DQ	00000000100000000r		; 2.122e-314
__unwindtable$?RemoveSection@CPythonConfig@@QAEXW4EClassTypes@1@@Z DD 0ffffffffH
	DD	FLAT:__unwindfunclet$?RemoveSection@CPythonConfig@@QAEXW4EClassTypes@1@@Z$0
END
