; Listing generated by Microsoft (R) Optimizing Compiler Version 19.44.35219.0 

	TITLE	c:\anka2project\anka2project\source\binary\vs_files\userinterface\release\pythonbiologmanager.obj
	.686P
	.XMM
	include listing.inc
	.model	flat

INCLUDELIB OLDNAMES

PUBLIC	??_R2CPythonBiologManager@@8			; CPythonBiologManager::`RTTI Base Class Array'
PUBLIC	??_R2?$CSingleton@VCPythonBiologManager@@@@8	; CSingleton<CPythonBiologManager>::`RTTI Base Class Array'
PUBLIC	??_R1A@?0A@EA@CPythonBiologManager@@8		; CPythonBiologManager::`RTTI Base Class Descriptor at (0,-1,0,64)'
PUBLIC	??_R1A@?0A@EA@?$CSingleton@VCPythonBiologManager@@@@8 ; CSingleton<CPythonBiologManager>::`RTTI Base Class Descriptor at (0,-1,0,64)'
PUBLIC	??_R3?$CSingleton@VCPythonBiologManager@@@@8	; CSingleton<CPythonBiologManager>::`RTTI Class Hierarchy Descriptor'
PUBLIC	??_R0?AV?$CSingleton@VCPythonBiologManager@@@@@8 ; CSingleton<CPythonBiologManager> `RTTI Type Descriptor'
PUBLIC	??_R3CPythonBiologManager@@8			; CPythonBiologManager::`RTTI Class Hierarchy Descriptor'
PUBLIC	??_R0?AVCPythonBiologManager@@@8		; CPythonBiologManager `RTTI Type Descriptor'
PUBLIC	??_R4?$CSingleton@VCPythonBiologManager@@@@6B@	; CSingleton<CPythonBiologManager>::`RTTI Complete Object Locator'
PUBLIC	??_R4CPythonBiologManager@@6B@			; CPythonBiologManager::`RTTI Complete Object Locator'
PUBLIC	?ms_singleton@?$CSingleton@VCPythonBiologManager@@@@0PAVCPythonBiologManager@@A ; CSingleton<CPythonBiologManager>::ms_singleton
PUBLIC	??_7?$CSingleton@VCPythonBiologManager@@@@6B@	; CSingleton<CPythonBiologManager>::`vftable'
PUBLIC	??_7CPythonBiologManager@@6B@			; CPythonBiologManager::`vftable'
;	COMDAT ?ms_singleton@?$CSingleton@VCPythonBiologManager@@@@0PAVCPythonBiologManager@@A
_BSS	SEGMENT
?ms_singleton@?$CSingleton@VCPythonBiologManager@@@@0PAVCPythonBiologManager@@A DD 01H DUP (?) ; CSingleton<CPythonBiologManager>::ms_singleton
_BSS	ENDS
;	COMDAT ??_7CPythonBiologManager@@6B@
CONST	SEGMENT
??_7CPythonBiologManager@@6B@ DD FLAT:??_R4CPythonBiologManager@@6B@ ; CPythonBiologManager::`vftable'
	DD	FLAT:??_ECPythonBiologManager@@UAEPAXI@Z
CONST	ENDS
;	COMDAT ??_7?$CSingleton@VCPythonBiologManager@@@@6B@
CONST	SEGMENT
??_7?$CSingleton@VCPythonBiologManager@@@@6B@ DD FLAT:??_R4?$CSingleton@VCPythonBiologManager@@@@6B@ ; CSingleton<CPythonBiologManager>::`vftable'
	DD	FLAT:??_E?$CSingleton@VCPythonBiologManager@@@@UAEPAXI@Z
CONST	ENDS
;	COMDAT ??_R4CPythonBiologManager@@6B@
rdata$r	SEGMENT
??_R4CPythonBiologManager@@6B@ DD 00H			; CPythonBiologManager::`RTTI Complete Object Locator'
	DD	00H
	DD	00H
	DD	FLAT:??_R0?AVCPythonBiologManager@@@8
	DD	FLAT:??_R3CPythonBiologManager@@8
rdata$r	ENDS
;	COMDAT ??_R4?$CSingleton@VCPythonBiologManager@@@@6B@
rdata$r	SEGMENT
??_R4?$CSingleton@VCPythonBiologManager@@@@6B@ DD 00H	; CSingleton<CPythonBiologManager>::`RTTI Complete Object Locator'
	DD	00H
	DD	00H
	DD	FLAT:??_R0?AV?$CSingleton@VCPythonBiologManager@@@@@8
	DD	FLAT:??_R3?$CSingleton@VCPythonBiologManager@@@@8
rdata$r	ENDS
;	COMDAT ??_R0?AVCPythonBiologManager@@@8
data$rs	SEGMENT
??_R0?AVCPythonBiologManager@@@8 DD FLAT:??_7type_info@@6B@ ; CPythonBiologManager `RTTI Type Descriptor'
	DD	00H
	DB	'.?AVCPythonBiologManager@@', 00H
data$rs	ENDS
;	COMDAT ??_R3CPythonBiologManager@@8
rdata$r	SEGMENT
??_R3CPythonBiologManager@@8 DD 00H			; CPythonBiologManager::`RTTI Class Hierarchy Descriptor'
	DD	00H
	DD	02H
	DD	FLAT:??_R2CPythonBiologManager@@8
rdata$r	ENDS
;	COMDAT ??_R0?AV?$CSingleton@VCPythonBiologManager@@@@@8
data$rs	SEGMENT
??_R0?AV?$CSingleton@VCPythonBiologManager@@@@@8 DD FLAT:??_7type_info@@6B@ ; CSingleton<CPythonBiologManager> `RTTI Type Descriptor'
	DD	00H
	DB	'.?AV?$CSingleton@VCPythonBiologManager@@@@', 00H
data$rs	ENDS
;	COMDAT ??_R3?$CSingleton@VCPythonBiologManager@@@@8
rdata$r	SEGMENT
??_R3?$CSingleton@VCPythonBiologManager@@@@8 DD 00H	; CSingleton<CPythonBiologManager>::`RTTI Class Hierarchy Descriptor'
	DD	00H
	DD	01H
	DD	FLAT:??_R2?$CSingleton@VCPythonBiologManager@@@@8
rdata$r	ENDS
;	COMDAT ??_R1A@?0A@EA@?$CSingleton@VCPythonBiologManager@@@@8
rdata$r	SEGMENT
??_R1A@?0A@EA@?$CSingleton@VCPythonBiologManager@@@@8 DD FLAT:??_R0?AV?$CSingleton@VCPythonBiologManager@@@@@8 ; CSingleton<CPythonBiologManager>::`RTTI Base Class Descriptor at (0,-1,0,64)'
	DD	00H
	DD	00H
	DD	0ffffffffH
	DD	00H
	DD	040H
	DD	FLAT:??_R3?$CSingleton@VCPythonBiologManager@@@@8
rdata$r	ENDS
;	COMDAT ??_R1A@?0A@EA@CPythonBiologManager@@8
rdata$r	SEGMENT
??_R1A@?0A@EA@CPythonBiologManager@@8 DD FLAT:??_R0?AVCPythonBiologManager@@@8 ; CPythonBiologManager::`RTTI Base Class Descriptor at (0,-1,0,64)'
	DD	01H
	DD	00H
	DD	0ffffffffH
	DD	00H
	DD	040H
	DD	FLAT:??_R3CPythonBiologManager@@8
rdata$r	ENDS
;	COMDAT ??_R2?$CSingleton@VCPythonBiologManager@@@@8
rdata$r	SEGMENT
??_R2?$CSingleton@VCPythonBiologManager@@@@8 DD FLAT:??_R1A@?0A@EA@?$CSingleton@VCPythonBiologManager@@@@8 ; CSingleton<CPythonBiologManager>::`RTTI Base Class Array'
rdata$r	ENDS
;	COMDAT ??_R2CPythonBiologManager@@8
rdata$r	SEGMENT
??_R2CPythonBiologManager@@8 DD FLAT:??_R1A@?0A@EA@CPythonBiologManager@@8 ; CPythonBiologManager::`RTTI Base Class Array'
	DD	FLAT:??_R1A@?0A@EA@?$CSingleton@VCPythonBiologManager@@@@8
PUBLIC	??_G?$CSingleton@VCPythonBiologManager@@@@UAEPAXI@Z ; CSingleton<CPythonBiologManager>::`scalar deleting destructor'
PUBLIC	??0?$CSingleton@VCPythonBiologManager@@@@QAE@XZ	; CSingleton<CPythonBiologManager>::CSingleton<CPythonBiologManager>
PUBLIC	??1?$CSingleton@VCPythonBiologManager@@@@UAE@XZ	; CSingleton<CPythonBiologManager>::~CSingleton<CPythonBiologManager>
PUBLIC	?_LoadBiologInformation@CPythonBiologManager@@QAEXPBUSPacketGCBiologManagerInfo@@@Z ; CPythonBiologManager::_LoadBiologInformation
PUBLIC	?Initialize@CPythonBiologManager@@QAEXXZ	; CPythonBiologManager::Initialize
PUBLIC	??_GCPythonBiologManager@@UAEPAXI@Z		; CPythonBiologManager::`scalar deleting destructor'
PUBLIC	??0CPythonBiologManager@@QAE@XZ			; CPythonBiologManager::CPythonBiologManager
PUBLIC	??1CPythonBiologManager@@UAE@XZ			; CPythonBiologManager::~CPythonBiologManager
EXTRN	??_ECPythonBiologManager@@UAEPAXI@Z:PROC	; CPythonBiologManager::`vector deleting destructor'
EXTRN	??_E?$CSingleton@VCPythonBiologManager@@@@UAEPAXI@Z:PROC ; CSingleton<CPythonBiologManager>::`vector deleting destructor'
END
